


Disassembly of section .text:

00000000000040a0 <_start>:
    40a0:	f3 0f 1e fa          	endbr64 
    40a4:	31 ed                	xor    %ebp,%ebp
    40a6:	49 89 d1             	mov    %rdx,%r9
    40a9:	5e                   	pop    %rsi
    40aa:	48 89 e2             	mov    %rsp,%rdx
    40ad:	48 83 e4 f0          	and    $0xfffffffffffffff0,%rsp
    40b1:	50                   	push   %rax
    40b2:	54                   	push   %rsp
    40b3:	4c 8d 05 06 7f 00 00 	lea    0x7f06(%rip),%r8        # bfc0 <__libc_csu_fini>
    40ba:	48 8d 0d 8f 7e 00 00 	lea    0x7e8f(%rip),%rcx        # bf50 <__libc_csu_init>
    40c1:	48 8d 3d f2 5e 00 00 	lea    0x5ef2(%rip),%rdi        # 9fba <main>
    40c8:	ff 15 12 bf 00 00    	callq  *0xbf12(%rip)        # ffe0 <__libc_start_main@GLIBC_2.2.5>
    40ce:	f4                   	hlt    
    40cf:	90                   	nop

00000000000040d0 <deregister_tm_clones>:
    40d0:	48 8d 3d 49 e6 00 00 	lea    0xe649(%rip),%rdi        # 12720 <__TMC_END__>
    40d7:	48 8d 05 42 e6 00 00 	lea    0xe642(%rip),%rax        # 12720 <__TMC_END__>
    40de:	48 39 f8             	cmp    %rdi,%rax
    40e1:	74 15                	je     40f8 <deregister_tm_clones+0x28>
    40e3:	48 8b 05 ee be 00 00 	mov    0xbeee(%rip),%rax        # ffd8 <_ITM_deregisterTMCloneTable>
    40ea:	48 85 c0             	test   %rax,%rax
    40ed:	74 09                	je     40f8 <deregister_tm_clones+0x28>
    40ef:	ff e0                	jmpq   *%rax
    40f1:	0f 1f 80 00 00 00 00 	nopl   0x0(%rax)
    40f8:	c3                   	retq   
    40f9:	0f 1f 80 00 00 00 00 	nopl   0x0(%rax)

0000000000004100 <register_tm_clones>:
    4100:	48 8d 3d 19 e6 00 00 	lea    0xe619(%rip),%rdi        # 12720 <__TMC_END__>
    4107:	48 8d 35 12 e6 00 00 	lea    0xe612(%rip),%rsi        # 12720 <__TMC_END__>
    410e:	48 29 fe             	sub    %rdi,%rsi
    4111:	48 89 f0             	mov    %rsi,%rax
    4114:	48 c1 ee 3f          	shr    $0x3f,%rsi
    4118:	48 c1 f8 03          	sar    $0x3,%rax
    411c:	48 01 c6             	add    %rax,%rsi
    411f:	48 d1 fe             	sar    %rsi
    4122:	74 14                	je     4138 <register_tm_clones+0x38>
    4124:	48 8b 05 c5 be 00 00 	mov    0xbec5(%rip),%rax        # fff0 <_ITM_registerTMCloneTable>
    412b:	48 85 c0             	test   %rax,%rax
    412e:	74 08                	je     4138 <register_tm_clones+0x38>
    4130:	ff e0                	jmpq   *%rax
    4132:	66 0f 1f 44 00 00    	nopw   0x0(%rax,%rax,1)
    4138:	c3                   	retq   
    4139:	0f 1f 80 00 00 00 00 	nopl   0x0(%rax)

0000000000004140 <__do_global_dtors_aux>:
    4140:	f3 0f 1e fa          	endbr64 
    4144:	80 3d d5 e5 00 00 00 	cmpb   $0x0,0xe5d5(%rip)        # 12720 <__TMC_END__>
    414b:	75 2b                	jne    4178 <__do_global_dtors_aux+0x38>
    414d:	55                   	push   %rbp
    414e:	48 83 3d a2 be 00 00 	cmpq   $0x0,0xbea2(%rip)        # fff8 <__cxa_finalize@GLIBC_2.2.5>
    4155:	00 
    4156:	48 89 e5             	mov    %rsp,%rbp
    4159:	74 0c                	je     4167 <__do_global_dtors_aux+0x27>
    415b:	48 8b 3d a6 be 00 00 	mov    0xbea6(%rip),%rdi        # 10008 <__dso_handle>
    4162:	e8 f9 fe ff ff       	callq  4060 <__cxa_finalize@plt>
    4167:	e8 64 ff ff ff       	callq  40d0 <deregister_tm_clones>
    416c:	c6 05 ad e5 00 00 01 	movb   $0x1,0xe5ad(%rip)        # 12720 <__TMC_END__>
    4173:	5d                   	pop    %rbp
    4174:	c3                   	retq   
    4175:	0f 1f 00             	nopl   (%rax)
    4178:	c3                   	retq   
    4179:	0f 1f 80 00 00 00 00 	nopl   0x0(%rax)

0000000000004180 <frame_dummy>:
    4180:	f3 0f 1e fa          	endbr64 
    4184:	e9 77 ff ff ff       	jmpq   4100 <register_tm_clones>

0000000000004189 <platform_main_begin>:
    4189:	f3 0f 1e fa          	endbr64 
    418d:	55                   	push   %rbp
    418e:	48 89 e5             	mov    %rsp,%rbp
    4191:	90                   	nop
    4192:	5d                   	pop    %rbp
    4193:	c3                   	retq   

0000000000004194 <platform_main_end>:
    4194:	f3 0f 1e fa          	endbr64 
    4198:	55                   	push   %rbp
    4199:	48 89 e5             	mov    %rsp,%rbp
    419c:	48 83 ec 10          	sub    $0x10,%rsp
    41a0:	89 7d fc             	mov    %edi,-0x4(%rbp)
    41a3:	89 75 f8             	mov    %esi,-0x8(%rbp)
    41a6:	8b 45 fc             	mov    -0x4(%rbp),%eax
    41a9:	89 c6                	mov    %eax,%esi
    41ab:	48 8d 3d 6e 7e 00 00 	lea    0x7e6e(%rip),%rdi        # c020 <_IO_stdin_used+0x20>
    41b2:	b8 00 00 00 00       	mov    $0x0,%eax
    41b7:	e8 c4 fe ff ff       	callq  4080 <printf@plt>
    41bc:	90                   	nop
    41bd:	c9                   	leaveq 
    41be:	c3                   	retq   

00000000000041bf <safe_unary_minus_func_int8_t_s>:
    41bf:	f3 0f 1e fa          	endbr64 
    41c3:	55                   	push   %rbp
    41c4:	48 89 e5             	mov    %rsp,%rbp
    41c7:	89 f8                	mov    %edi,%eax
    41c9:	88 45 fc             	mov    %al,-0x4(%rbp)
    41cc:	0f b6 45 fc          	movzbl -0x4(%rbp),%eax
    41d0:	f7 d8                	neg    %eax
    41d2:	5d                   	pop    %rbp
    41d3:	c3                   	retq   

00000000000041d4 <safe_add_func_int8_t_s_s>:
    41d4:	f3 0f 1e fa          	endbr64 
    41d8:	55                   	push   %rbp
    41d9:	48 89 e5             	mov    %rsp,%rbp
    41dc:	89 fa                	mov    %edi,%edx
    41de:	89 f0                	mov    %esi,%eax
    41e0:	88 55 fc             	mov    %dl,-0x4(%rbp)
    41e3:	88 45 f8             	mov    %al,-0x8(%rbp)
    41e6:	0f b6 55 fc          	movzbl -0x4(%rbp),%edx
    41ea:	0f b6 45 f8          	movzbl -0x8(%rbp),%eax
    41ee:	01 d0                	add    %edx,%eax
    41f0:	5d                   	pop    %rbp
    41f1:	c3                   	retq   

00000000000041f2 <safe_sub_func_int8_t_s_s>:
    41f2:	f3 0f 1e fa          	endbr64 
    41f6:	55                   	push   %rbp
    41f7:	48 89 e5             	mov    %rsp,%rbp
    41fa:	89 fa                	mov    %edi,%edx
    41fc:	89 f0                	mov    %esi,%eax
    41fe:	88 55 fc             	mov    %dl,-0x4(%rbp)
    4201:	88 45 f8             	mov    %al,-0x8(%rbp)
    4204:	0f b6 55 fc          	movzbl -0x4(%rbp),%edx
    4208:	0f b6 45 f8          	movzbl -0x8(%rbp),%eax
    420c:	29 c2                	sub    %eax,%edx
    420e:	89 d0                	mov    %edx,%eax
    4210:	5d                   	pop    %rbp
    4211:	c3                   	retq   

0000000000004212 <safe_mul_func_int8_t_s_s>:
    4212:	f3 0f 1e fa          	endbr64 
    4216:	55                   	push   %rbp
    4217:	48 89 e5             	mov    %rsp,%rbp
    421a:	89 fa                	mov    %edi,%edx
    421c:	89 f0                	mov    %esi,%eax
    421e:	88 55 fc             	mov    %dl,-0x4(%rbp)
    4221:	88 45 f8             	mov    %al,-0x8(%rbp)
    4224:	0f b6 45 fc          	movzbl -0x4(%rbp),%eax
    4228:	0f b6 55 f8          	movzbl -0x8(%rbp),%edx
    422c:	0f af c2             	imul   %edx,%eax
    422f:	5d                   	pop    %rbp
    4230:	c3                   	retq   

0000000000004231 <safe_mod_func_int8_t_s_s>:
    4231:	f3 0f 1e fa          	endbr64 
    4235:	55                   	push   %rbp
    4236:	48 89 e5             	mov    %rsp,%rbp
    4239:	89 fa                	mov    %edi,%edx
    423b:	89 f0                	mov    %esi,%eax
    423d:	88 55 fc             	mov    %dl,-0x4(%rbp)
    4240:	88 45 f8             	mov    %al,-0x8(%rbp)
    4243:	80 7d f8 00          	cmpb   $0x0,-0x8(%rbp)
    4247:	74 1b                	je     4264 <safe_mod_func_int8_t_s_s+0x33>
    4249:	80 7d fc 80          	cmpb   $0x80,-0x4(%rbp)
    424d:	75 06                	jne    4255 <safe_mod_func_int8_t_s_s+0x24>
    424f:	80 7d f8 ff          	cmpb   $0xff,-0x8(%rbp)
    4253:	74 0f                	je     4264 <safe_mod_func_int8_t_s_s+0x33>
    4255:	0f be 45 fc          	movsbl -0x4(%rbp),%eax
    4259:	0f be 4d f8          	movsbl -0x8(%rbp),%ecx
    425d:	99                   	cltd   
    425e:	f7 f9                	idiv   %ecx
    4260:	89 d0                	mov    %edx,%eax
    4262:	eb 04                	jmp    4268 <safe_mod_func_int8_t_s_s+0x37>
    4264:	0f b6 45 fc          	movzbl -0x4(%rbp),%eax
    4268:	5d                   	pop    %rbp
    4269:	c3                   	retq   

000000000000426a <safe_div_func_int8_t_s_s>:
    426a:	f3 0f 1e fa          	endbr64 
    426e:	55                   	push   %rbp
    426f:	48 89 e5             	mov    %rsp,%rbp
    4272:	89 fa                	mov    %edi,%edx
    4274:	89 f0                	mov    %esi,%eax
    4276:	88 55 fc             	mov    %dl,-0x4(%rbp)
    4279:	88 45 f8             	mov    %al,-0x8(%rbp)
    427c:	80 7d f8 00          	cmpb   $0x0,-0x8(%rbp)
    4280:	74 19                	je     429b <safe_div_func_int8_t_s_s+0x31>
    4282:	80 7d fc 80          	cmpb   $0x80,-0x4(%rbp)
    4286:	75 06                	jne    428e <safe_div_func_int8_t_s_s+0x24>
    4288:	80 7d f8 ff          	cmpb   $0xff,-0x8(%rbp)
    428c:	74 0d                	je     429b <safe_div_func_int8_t_s_s+0x31>
    428e:	0f be 45 fc          	movsbl -0x4(%rbp),%eax
    4292:	0f be 4d f8          	movsbl -0x8(%rbp),%ecx
    4296:	99                   	cltd   
    4297:	f7 f9                	idiv   %ecx
    4299:	eb 04                	jmp    429f <safe_div_func_int8_t_s_s+0x35>
    429b:	0f b6 45 fc          	movzbl -0x4(%rbp),%eax
    429f:	5d                   	pop    %rbp
    42a0:	c3                   	retq   

00000000000042a1 <safe_lshift_func_int8_t_s_s>:
    42a1:	f3 0f 1e fa          	endbr64 
    42a5:	55                   	push   %rbp
    42a6:	48 89 e5             	mov    %rsp,%rbp
    42a9:	89 f8                	mov    %edi,%eax
    42ab:	89 75 f8             	mov    %esi,-0x8(%rbp)
    42ae:	88 45 fc             	mov    %al,-0x4(%rbp)
    42b1:	80 7d fc 00          	cmpb   $0x0,-0x4(%rbp)
    42b5:	78 31                	js     42e8 <safe_lshift_func_int8_t_s_s+0x47>
    42b7:	83 7d f8 00          	cmpl   $0x0,-0x8(%rbp)
    42bb:	78 2b                	js     42e8 <safe_lshift_func_int8_t_s_s+0x47>
    42bd:	83 7d f8 1f          	cmpl   $0x1f,-0x8(%rbp)
    42c1:	7f 25                	jg     42e8 <safe_lshift_func_int8_t_s_s+0x47>
    42c3:	0f be 55 fc          	movsbl -0x4(%rbp),%edx
    42c7:	8b 45 f8             	mov    -0x8(%rbp),%eax
    42ca:	be 7f 00 00 00       	mov    $0x7f,%esi
    42cf:	89 c1                	mov    %eax,%ecx
    42d1:	d3 fe                	sar    %cl,%esi
    42d3:	89 f0                	mov    %esi,%eax
    42d5:	39 c2                	cmp    %eax,%edx
    42d7:	7f 0f                	jg     42e8 <safe_lshift_func_int8_t_s_s+0x47>
    42d9:	0f be 55 fc          	movsbl -0x4(%rbp),%edx
    42dd:	8b 45 f8             	mov    -0x8(%rbp),%eax
    42e0:	89 c1                	mov    %eax,%ecx
    42e2:	d3 e2                	shl    %cl,%edx
    42e4:	89 d0                	mov    %edx,%eax
    42e6:	eb 04                	jmp    42ec <safe_lshift_func_int8_t_s_s+0x4b>
    42e8:	0f b6 45 fc          	movzbl -0x4(%rbp),%eax
    42ec:	5d                   	pop    %rbp
    42ed:	c3                   	retq   

00000000000042ee <safe_lshift_func_int8_t_s_u>:
    42ee:	f3 0f 1e fa          	endbr64 
    42f2:	55                   	push   %rbp
    42f3:	48 89 e5             	mov    %rsp,%rbp
    42f6:	89 f8                	mov    %edi,%eax
    42f8:	89 75 f8             	mov    %esi,-0x8(%rbp)
    42fb:	88 45 fc             	mov    %al,-0x4(%rbp)
    42fe:	80 7d fc 00          	cmpb   $0x0,-0x4(%rbp)
    4302:	78 2b                	js     432f <safe_lshift_func_int8_t_s_u+0x41>
    4304:	83 7d f8 1f          	cmpl   $0x1f,-0x8(%rbp)
    4308:	77 25                	ja     432f <safe_lshift_func_int8_t_s_u+0x41>
    430a:	0f be 55 fc          	movsbl -0x4(%rbp),%edx
    430e:	8b 45 f8             	mov    -0x8(%rbp),%eax
    4311:	be 7f 00 00 00       	mov    $0x7f,%esi
    4316:	89 c1                	mov    %eax,%ecx
    4318:	d3 fe                	sar    %cl,%esi
    431a:	89 f0                	mov    %esi,%eax
    431c:	39 c2                	cmp    %eax,%edx
    431e:	7f 0f                	jg     432f <safe_lshift_func_int8_t_s_u+0x41>
    4320:	0f be 55 fc          	movsbl -0x4(%rbp),%edx
    4324:	8b 45 f8             	mov    -0x8(%rbp),%eax
    4327:	89 c1                	mov    %eax,%ecx
    4329:	d3 e2                	shl    %cl,%edx
    432b:	89 d0                	mov    %edx,%eax
    432d:	eb 04                	jmp    4333 <safe_lshift_func_int8_t_s_u+0x45>
    432f:	0f b6 45 fc          	movzbl -0x4(%rbp),%eax
    4333:	5d                   	pop    %rbp
    4334:	c3                   	retq   

0000000000004335 <safe_rshift_func_int8_t_s_s>:
    4335:	f3 0f 1e fa          	endbr64 
    4339:	55                   	push   %rbp
    433a:	48 89 e5             	mov    %rsp,%rbp
    433d:	89 f8                	mov    %edi,%eax
    433f:	89 75 f8             	mov    %esi,-0x8(%rbp)
    4342:	88 45 fc             	mov    %al,-0x4(%rbp)
    4345:	80 7d fc 00          	cmpb   $0x0,-0x4(%rbp)
    4349:	78 1b                	js     4366 <safe_rshift_func_int8_t_s_s+0x31>
    434b:	83 7d f8 00          	cmpl   $0x0,-0x8(%rbp)
    434f:	78 15                	js     4366 <safe_rshift_func_int8_t_s_s+0x31>
    4351:	83 7d f8 1f          	cmpl   $0x1f,-0x8(%rbp)
    4355:	7f 0f                	jg     4366 <safe_rshift_func_int8_t_s_s+0x31>
    4357:	0f be 55 fc          	movsbl -0x4(%rbp),%edx
    435b:	8b 45 f8             	mov    -0x8(%rbp),%eax
    435e:	89 c1                	mov    %eax,%ecx
    4360:	d3 fa                	sar    %cl,%edx
    4362:	89 d0                	mov    %edx,%eax
    4364:	eb 04                	jmp    436a <safe_rshift_func_int8_t_s_s+0x35>
    4366:	0f b6 45 fc          	movzbl -0x4(%rbp),%eax
    436a:	5d                   	pop    %rbp
    436b:	c3                   	retq   

000000000000436c <safe_rshift_func_int8_t_s_u>:
    436c:	f3 0f 1e fa          	endbr64 
    4370:	55                   	push   %rbp
    4371:	48 89 e5             	mov    %rsp,%rbp
    4374:	89 f8                	mov    %edi,%eax
    4376:	89 75 f8             	mov    %esi,-0x8(%rbp)
    4379:	88 45 fc             	mov    %al,-0x4(%rbp)
    437c:	80 7d fc 00          	cmpb   $0x0,-0x4(%rbp)
    4380:	78 15                	js     4397 <safe_rshift_func_int8_t_s_u+0x2b>
    4382:	83 7d f8 1f          	cmpl   $0x1f,-0x8(%rbp)
    4386:	77 0f                	ja     4397 <safe_rshift_func_int8_t_s_u+0x2b>
    4388:	0f be 55 fc          	movsbl -0x4(%rbp),%edx
    438c:	8b 45 f8             	mov    -0x8(%rbp),%eax
    438f:	89 c1                	mov    %eax,%ecx
    4391:	d3 fa                	sar    %cl,%edx
    4393:	89 d0                	mov    %edx,%eax
    4395:	eb 04                	jmp    439b <safe_rshift_func_int8_t_s_u+0x2f>
    4397:	0f b6 45 fc          	movzbl -0x4(%rbp),%eax
    439b:	5d                   	pop    %rbp
    439c:	c3                   	retq   

000000000000439d <safe_unary_minus_func_int16_t_s>:
    439d:	f3 0f 1e fa          	endbr64 
    43a1:	55                   	push   %rbp
    43a2:	48 89 e5             	mov    %rsp,%rbp
    43a5:	89 f8                	mov    %edi,%eax
    43a7:	66 89 45 fc          	mov    %ax,-0x4(%rbp)
    43ab:	0f b7 45 fc          	movzwl -0x4(%rbp),%eax
    43af:	f7 d8                	neg    %eax
    43b1:	5d                   	pop    %rbp
    43b2:	c3                   	retq   

00000000000043b3 <safe_add_func_int16_t_s_s>:
    43b3:	f3 0f 1e fa          	endbr64 
    43b7:	55                   	push   %rbp
    43b8:	48 89 e5             	mov    %rsp,%rbp
    43bb:	89 fa                	mov    %edi,%edx
    43bd:	89 f0                	mov    %esi,%eax
    43bf:	66 89 55 fc          	mov    %dx,-0x4(%rbp)
    43c3:	66 89 45 f8          	mov    %ax,-0x8(%rbp)
    43c7:	0f b7 55 fc          	movzwl -0x4(%rbp),%edx
    43cb:	0f b7 45 f8          	movzwl -0x8(%rbp),%eax
    43cf:	01 d0                	add    %edx,%eax
    43d1:	5d                   	pop    %rbp
    43d2:	c3                   	retq   

00000000000043d3 <safe_sub_func_int16_t_s_s>:
    43d3:	f3 0f 1e fa          	endbr64 
    43d7:	55                   	push   %rbp
    43d8:	48 89 e5             	mov    %rsp,%rbp
    43db:	89 fa                	mov    %edi,%edx
    43dd:	89 f0                	mov    %esi,%eax
    43df:	66 89 55 fc          	mov    %dx,-0x4(%rbp)
    43e3:	66 89 45 f8          	mov    %ax,-0x8(%rbp)
    43e7:	0f b7 55 fc          	movzwl -0x4(%rbp),%edx
    43eb:	0f b7 45 f8          	movzwl -0x8(%rbp),%eax
    43ef:	29 c2                	sub    %eax,%edx
    43f1:	89 d0                	mov    %edx,%eax
    43f3:	5d                   	pop    %rbp
    43f4:	c3                   	retq   

00000000000043f5 <safe_mul_func_int16_t_s_s>:
    43f5:	f3 0f 1e fa          	endbr64 
    43f9:	55                   	push   %rbp
    43fa:	48 89 e5             	mov    %rsp,%rbp
    43fd:	89 fa                	mov    %edi,%edx
    43ff:	89 f0                	mov    %esi,%eax
    4401:	66 89 55 fc          	mov    %dx,-0x4(%rbp)
    4405:	66 89 45 f8          	mov    %ax,-0x8(%rbp)
    4409:	0f b7 55 fc          	movzwl -0x4(%rbp),%edx
    440d:	0f b7 45 f8          	movzwl -0x8(%rbp),%eax
    4411:	0f af c2             	imul   %edx,%eax
    4414:	5d                   	pop    %rbp
    4415:	c3                   	retq   

0000000000004416 <safe_mod_func_int16_t_s_s>:
    4416:	f3 0f 1e fa          	endbr64 
    441a:	55                   	push   %rbp
    441b:	48 89 e5             	mov    %rsp,%rbp
    441e:	89 fa                	mov    %edi,%edx
    4420:	89 f0                	mov    %esi,%eax
    4422:	66 89 55 fc          	mov    %dx,-0x4(%rbp)
    4426:	66 89 45 f8          	mov    %ax,-0x8(%rbp)
    442a:	66 83 7d f8 00       	cmpw   $0x0,-0x8(%rbp)
    442f:	74 1e                	je     444f <safe_mod_func_int16_t_s_s+0x39>
    4431:	66 81 7d fc 00 80    	cmpw   $0x8000,-0x4(%rbp)
    4437:	75 07                	jne    4440 <safe_mod_func_int16_t_s_s+0x2a>
    4439:	66 83 7d f8 ff       	cmpw   $0xffff,-0x8(%rbp)
    443e:	74 0f                	je     444f <safe_mod_func_int16_t_s_s+0x39>
    4440:	0f bf 45 fc          	movswl -0x4(%rbp),%eax
    4444:	0f bf 4d f8          	movswl -0x8(%rbp),%ecx
    4448:	99                   	cltd   
    4449:	f7 f9                	idiv   %ecx
    444b:	89 d0                	mov    %edx,%eax
    444d:	eb 04                	jmp    4453 <safe_mod_func_int16_t_s_s+0x3d>
    444f:	0f b7 45 fc          	movzwl -0x4(%rbp),%eax
    4453:	5d                   	pop    %rbp
    4454:	c3                   	retq   

0000000000004455 <safe_div_func_int16_t_s_s>:
    4455:	f3 0f 1e fa          	endbr64 
    4459:	55                   	push   %rbp
    445a:	48 89 e5             	mov    %rsp,%rbp
    445d:	89 fa                	mov    %edi,%edx
    445f:	89 f0                	mov    %esi,%eax
    4461:	66 89 55 fc          	mov    %dx,-0x4(%rbp)
    4465:	66 89 45 f8          	mov    %ax,-0x8(%rbp)
    4469:	66 83 7d f8 00       	cmpw   $0x0,-0x8(%rbp)
    446e:	74 1c                	je     448c <safe_div_func_int16_t_s_s+0x37>
    4470:	66 81 7d fc 00 80    	cmpw   $0x8000,-0x4(%rbp)
    4476:	75 07                	jne    447f <safe_div_func_int16_t_s_s+0x2a>
    4478:	66 83 7d f8 ff       	cmpw   $0xffff,-0x8(%rbp)
    447d:	74 0d                	je     448c <safe_div_func_int16_t_s_s+0x37>
    447f:	0f bf 45 fc          	movswl -0x4(%rbp),%eax
    4483:	0f bf 4d f8          	movswl -0x8(%rbp),%ecx
    4487:	99                   	cltd   
    4488:	f7 f9                	idiv   %ecx
    448a:	eb 04                	jmp    4490 <safe_div_func_int16_t_s_s+0x3b>
    448c:	0f b7 45 fc          	movzwl -0x4(%rbp),%eax
    4490:	5d                   	pop    %rbp
    4491:	c3                   	retq   

0000000000004492 <safe_lshift_func_int16_t_s_s>:
    4492:	f3 0f 1e fa          	endbr64 
    4496:	55                   	push   %rbp
    4497:	48 89 e5             	mov    %rsp,%rbp
    449a:	89 f8                	mov    %edi,%eax
    449c:	89 75 f8             	mov    %esi,-0x8(%rbp)
    449f:	66 89 45 fc          	mov    %ax,-0x4(%rbp)
    44a3:	66 83 7d fc 00       	cmpw   $0x0,-0x4(%rbp)
    44a8:	78 31                	js     44db <safe_lshift_func_int16_t_s_s+0x49>
    44aa:	83 7d f8 00          	cmpl   $0x0,-0x8(%rbp)
    44ae:	78 2b                	js     44db <safe_lshift_func_int16_t_s_s+0x49>
    44b0:	83 7d f8 1f          	cmpl   $0x1f,-0x8(%rbp)
    44b4:	7f 25                	jg     44db <safe_lshift_func_int16_t_s_s+0x49>
    44b6:	0f bf 55 fc          	movswl -0x4(%rbp),%edx
    44ba:	8b 45 f8             	mov    -0x8(%rbp),%eax
    44bd:	be ff 7f 00 00       	mov    $0x7fff,%esi
    44c2:	89 c1                	mov    %eax,%ecx
    44c4:	d3 fe                	sar    %cl,%esi
    44c6:	89 f0                	mov    %esi,%eax
    44c8:	39 c2                	cmp    %eax,%edx
    44ca:	7f 0f                	jg     44db <safe_lshift_func_int16_t_s_s+0x49>
    44cc:	0f bf 55 fc          	movswl -0x4(%rbp),%edx
    44d0:	8b 45 f8             	mov    -0x8(%rbp),%eax
    44d3:	89 c1                	mov    %eax,%ecx
    44d5:	d3 e2                	shl    %cl,%edx
    44d7:	89 d0                	mov    %edx,%eax
    44d9:	eb 04                	jmp    44df <safe_lshift_func_int16_t_s_s+0x4d>
    44db:	0f b7 45 fc          	movzwl -0x4(%rbp),%eax
    44df:	5d                   	pop    %rbp
    44e0:	c3                   	retq   

00000000000044e1 <safe_lshift_func_int16_t_s_u>:
    44e1:	f3 0f 1e fa          	endbr64 
    44e5:	55                   	push   %rbp
    44e6:	48 89 e5             	mov    %rsp,%rbp
    44e9:	89 f8                	mov    %edi,%eax
    44eb:	89 75 f8             	mov    %esi,-0x8(%rbp)
    44ee:	66 89 45 fc          	mov    %ax,-0x4(%rbp)
    44f2:	66 83 7d fc 00       	cmpw   $0x0,-0x4(%rbp)
    44f7:	78 2b                	js     4524 <safe_lshift_func_int16_t_s_u+0x43>
    44f9:	83 7d f8 1f          	cmpl   $0x1f,-0x8(%rbp)
    44fd:	77 25                	ja     4524 <safe_lshift_func_int16_t_s_u+0x43>
    44ff:	0f bf 55 fc          	movswl -0x4(%rbp),%edx
    4503:	8b 45 f8             	mov    -0x8(%rbp),%eax
    4506:	be ff 7f 00 00       	mov    $0x7fff,%esi
    450b:	89 c1                	mov    %eax,%ecx
    450d:	d3 fe                	sar    %cl,%esi
    450f:	89 f0                	mov    %esi,%eax
    4511:	39 c2                	cmp    %eax,%edx
    4513:	7f 0f                	jg     4524 <safe_lshift_func_int16_t_s_u+0x43>
    4515:	0f bf 55 fc          	movswl -0x4(%rbp),%edx
    4519:	8b 45 f8             	mov    -0x8(%rbp),%eax
    451c:	89 c1                	mov    %eax,%ecx
    451e:	d3 e2                	shl    %cl,%edx
    4520:	89 d0                	mov    %edx,%eax
    4522:	eb 04                	jmp    4528 <safe_lshift_func_int16_t_s_u+0x47>
    4524:	0f b7 45 fc          	movzwl -0x4(%rbp),%eax
    4528:	5d                   	pop    %rbp
    4529:	c3                   	retq   

000000000000452a <safe_rshift_func_int16_t_s_s>:
    452a:	f3 0f 1e fa          	endbr64 
    452e:	55                   	push   %rbp
    452f:	48 89 e5             	mov    %rsp,%rbp
    4532:	89 f8                	mov    %edi,%eax
    4534:	89 75 f8             	mov    %esi,-0x8(%rbp)
    4537:	66 89 45 fc          	mov    %ax,-0x4(%rbp)
    453b:	66 83 7d fc 00       	cmpw   $0x0,-0x4(%rbp)
    4540:	78 1b                	js     455d <safe_rshift_func_int16_t_s_s+0x33>
    4542:	83 7d f8 00          	cmpl   $0x0,-0x8(%rbp)
    4546:	78 15                	js     455d <safe_rshift_func_int16_t_s_s+0x33>
    4548:	83 7d f8 1f          	cmpl   $0x1f,-0x8(%rbp)
    454c:	7f 0f                	jg     455d <safe_rshift_func_int16_t_s_s+0x33>
    454e:	0f bf 55 fc          	movswl -0x4(%rbp),%edx
    4552:	8b 45 f8             	mov    -0x8(%rbp),%eax
    4555:	89 c1                	mov    %eax,%ecx
    4557:	d3 fa                	sar    %cl,%edx
    4559:	89 d0                	mov    %edx,%eax
    455b:	eb 04                	jmp    4561 <safe_rshift_func_int16_t_s_s+0x37>
    455d:	0f b7 45 fc          	movzwl -0x4(%rbp),%eax
    4561:	5d                   	pop    %rbp
    4562:	c3                   	retq   

0000000000004563 <safe_rshift_func_int16_t_s_u>:
    4563:	f3 0f 1e fa          	endbr64 
    4567:	55                   	push   %rbp
    4568:	48 89 e5             	mov    %rsp,%rbp
    456b:	89 f8                	mov    %edi,%eax
    456d:	89 75 f8             	mov    %esi,-0x8(%rbp)
    4570:	66 89 45 fc          	mov    %ax,-0x4(%rbp)
    4574:	66 83 7d fc 00       	cmpw   $0x0,-0x4(%rbp)
    4579:	78 15                	js     4590 <safe_rshift_func_int16_t_s_u+0x2d>
    457b:	83 7d f8 1f          	cmpl   $0x1f,-0x8(%rbp)
    457f:	77 0f                	ja     4590 <safe_rshift_func_int16_t_s_u+0x2d>
    4581:	0f bf 55 fc          	movswl -0x4(%rbp),%edx
    4585:	8b 45 f8             	mov    -0x8(%rbp),%eax
    4588:	89 c1                	mov    %eax,%ecx
    458a:	d3 fa                	sar    %cl,%edx
    458c:	89 d0                	mov    %edx,%eax
    458e:	eb 04                	jmp    4594 <safe_rshift_func_int16_t_s_u+0x31>
    4590:	0f b7 45 fc          	movzwl -0x4(%rbp),%eax
    4594:	5d                   	pop    %rbp
    4595:	c3                   	retq   

0000000000004596 <safe_unary_minus_func_int32_t_s>:
    4596:	f3 0f 1e fa          	endbr64 
    459a:	55                   	push   %rbp
    459b:	48 89 e5             	mov    %rsp,%rbp
    459e:	89 7d fc             	mov    %edi,-0x4(%rbp)
    45a1:	81 7d fc 00 00 00 80 	cmpl   $0x80000000,-0x4(%rbp)
    45a8:	74 07                	je     45b1 <safe_unary_minus_func_int32_t_s+0x1b>
    45aa:	8b 45 fc             	mov    -0x4(%rbp),%eax
    45ad:	f7 d8                	neg    %eax
    45af:	eb 03                	jmp    45b4 <safe_unary_minus_func_int32_t_s+0x1e>
    45b1:	8b 45 fc             	mov    -0x4(%rbp),%eax
    45b4:	5d                   	pop    %rbp
    45b5:	c3                   	retq   

00000000000045b6 <safe_add_func_int32_t_s_s>:
    45b6:	f3 0f 1e fa          	endbr64 
    45ba:	55                   	push   %rbp
    45bb:	48 89 e5             	mov    %rsp,%rbp
    45be:	89 7d fc             	mov    %edi,-0x4(%rbp)
    45c1:	89 75 f8             	mov    %esi,-0x8(%rbp)
    45c4:	83 7d fc 00          	cmpl   $0x0,-0x4(%rbp)
    45c8:	7e 13                	jle    45dd <safe_add_func_int32_t_s_s+0x27>
    45ca:	83 7d f8 00          	cmpl   $0x0,-0x8(%rbp)
    45ce:	7e 0d                	jle    45dd <safe_add_func_int32_t_s_s+0x27>
    45d0:	b8 ff ff ff 7f       	mov    $0x7fffffff,%eax
    45d5:	2b 45 f8             	sub    -0x8(%rbp),%eax
    45d8:	39 45 fc             	cmp    %eax,-0x4(%rbp)
    45db:	7f 23                	jg     4600 <safe_add_func_int32_t_s_s+0x4a>
    45dd:	83 7d fc 00          	cmpl   $0x0,-0x4(%rbp)
    45e1:	79 13                	jns    45f6 <safe_add_func_int32_t_s_s+0x40>
    45e3:	83 7d f8 00          	cmpl   $0x0,-0x8(%rbp)
    45e7:	79 0d                	jns    45f6 <safe_add_func_int32_t_s_s+0x40>
    45e9:	b8 00 00 00 80       	mov    $0x80000000,%eax
    45ee:	2b 45 f8             	sub    -0x8(%rbp),%eax
    45f1:	39 45 fc             	cmp    %eax,-0x4(%rbp)
    45f4:	7c 0a                	jl     4600 <safe_add_func_int32_t_s_s+0x4a>
    45f6:	8b 55 fc             	mov    -0x4(%rbp),%edx
    45f9:	8b 45 f8             	mov    -0x8(%rbp),%eax
    45fc:	01 d0                	add    %edx,%eax
    45fe:	eb 03                	jmp    4603 <safe_add_func_int32_t_s_s+0x4d>
    4600:	8b 45 fc             	mov    -0x4(%rbp),%eax
    4603:	5d                   	pop    %rbp
    4604:	c3                   	retq   

0000000000004605 <safe_sub_func_int32_t_s_s>:
    4605:	f3 0f 1e fa          	endbr64 
    4609:	55                   	push   %rbp
    460a:	48 89 e5             	mov    %rsp,%rbp
    460d:	89 7d fc             	mov    %edi,-0x4(%rbp)
    4610:	89 75 f8             	mov    %esi,-0x8(%rbp)
    4613:	8b 45 fc             	mov    -0x4(%rbp),%eax
    4616:	33 45 f8             	xor    -0x8(%rbp),%eax
    4619:	89 c2                	mov    %eax,%edx
    461b:	8b 45 fc             	mov    -0x4(%rbp),%eax
    461e:	33 45 f8             	xor    -0x8(%rbp),%eax
    4621:	25 00 00 00 80       	and    $0x80000000,%eax
    4626:	33 45 fc             	xor    -0x4(%rbp),%eax
    4629:	2b 45 f8             	sub    -0x8(%rbp),%eax
    462c:	33 45 f8             	xor    -0x8(%rbp),%eax
    462f:	21 d0                	and    %edx,%eax
    4631:	85 c0                	test   %eax,%eax
    4633:	78 08                	js     463d <safe_sub_func_int32_t_s_s+0x38>
    4635:	8b 45 fc             	mov    -0x4(%rbp),%eax
    4638:	2b 45 f8             	sub    -0x8(%rbp),%eax
    463b:	eb 03                	jmp    4640 <safe_sub_func_int32_t_s_s+0x3b>
    463d:	8b 45 fc             	mov    -0x4(%rbp),%eax
    4640:	5d                   	pop    %rbp
    4641:	c3                   	retq   

0000000000004642 <safe_mul_func_int32_t_s_s>:
    4642:	f3 0f 1e fa          	endbr64 
    4646:	55                   	push   %rbp
    4647:	48 89 e5             	mov    %rsp,%rbp
    464a:	89 7d fc             	mov    %edi,-0x4(%rbp)
    464d:	89 75 f8             	mov    %esi,-0x8(%rbp)
    4650:	83 7d fc 00          	cmpl   $0x0,-0x4(%rbp)
    4654:	7e 14                	jle    466a <safe_mul_func_int32_t_s_s+0x28>
    4656:	83 7d f8 00          	cmpl   $0x0,-0x8(%rbp)
    465a:	7e 0e                	jle    466a <safe_mul_func_int32_t_s_s+0x28>
    465c:	b8 ff ff ff 7f       	mov    $0x7fffffff,%eax
    4661:	99                   	cltd   
    4662:	f7 7d f8             	idivl  -0x8(%rbp)
    4665:	39 45 fc             	cmp    %eax,-0x4(%rbp)
    4668:	7f 5d                	jg     46c7 <safe_mul_func_int32_t_s_s+0x85>
    466a:	83 7d fc 00          	cmpl   $0x0,-0x4(%rbp)
    466e:	7e 14                	jle    4684 <safe_mul_func_int32_t_s_s+0x42>
    4670:	83 7d f8 00          	cmpl   $0x0,-0x8(%rbp)
    4674:	7f 0e                	jg     4684 <safe_mul_func_int32_t_s_s+0x42>
    4676:	b8 00 00 00 80       	mov    $0x80000000,%eax
    467b:	99                   	cltd   
    467c:	f7 7d fc             	idivl  -0x4(%rbp)
    467f:	39 45 f8             	cmp    %eax,-0x8(%rbp)
    4682:	7c 43                	jl     46c7 <safe_mul_func_int32_t_s_s+0x85>
    4684:	83 7d fc 00          	cmpl   $0x0,-0x4(%rbp)
    4688:	7f 14                	jg     469e <safe_mul_func_int32_t_s_s+0x5c>
    468a:	83 7d f8 00          	cmpl   $0x0,-0x8(%rbp)
    468e:	7e 0e                	jle    469e <safe_mul_func_int32_t_s_s+0x5c>
    4690:	b8 00 00 00 80       	mov    $0x80000000,%eax
    4695:	99                   	cltd   
    4696:	f7 7d f8             	idivl  -0x8(%rbp)
    4699:	39 45 fc             	cmp    %eax,-0x4(%rbp)
    469c:	7c 29                	jl     46c7 <safe_mul_func_int32_t_s_s+0x85>
    469e:	83 7d fc 00          	cmpl   $0x0,-0x4(%rbp)
    46a2:	7f 1a                	jg     46be <safe_mul_func_int32_t_s_s+0x7c>
    46a4:	83 7d f8 00          	cmpl   $0x0,-0x8(%rbp)
    46a8:	7f 14                	jg     46be <safe_mul_func_int32_t_s_s+0x7c>
    46aa:	83 7d fc 00          	cmpl   $0x0,-0x4(%rbp)
    46ae:	74 0e                	je     46be <safe_mul_func_int32_t_s_s+0x7c>
    46b0:	b8 ff ff ff 7f       	mov    $0x7fffffff,%eax
    46b5:	99                   	cltd   
    46b6:	f7 7d fc             	idivl  -0x4(%rbp)
    46b9:	39 45 f8             	cmp    %eax,-0x8(%rbp)
    46bc:	7c 09                	jl     46c7 <safe_mul_func_int32_t_s_s+0x85>
    46be:	8b 45 fc             	mov    -0x4(%rbp),%eax
    46c1:	0f af 45 f8          	imul   -0x8(%rbp),%eax
    46c5:	eb 03                	jmp    46ca <safe_mul_func_int32_t_s_s+0x88>
    46c7:	8b 45 fc             	mov    -0x4(%rbp),%eax
    46ca:	5d                   	pop    %rbp
    46cb:	c3                   	retq   

00000000000046cc <safe_mod_func_int32_t_s_s>:
    46cc:	f3 0f 1e fa          	endbr64 
    46d0:	55                   	push   %rbp
    46d1:	48 89 e5             	mov    %rsp,%rbp
    46d4:	89 7d fc             	mov    %edi,-0x4(%rbp)
    46d7:	89 75 f8             	mov    %esi,-0x8(%rbp)
    46da:	83 7d f8 00          	cmpl   $0x0,-0x8(%rbp)
    46de:	74 1a                	je     46fa <safe_mod_func_int32_t_s_s+0x2e>
    46e0:	81 7d fc 00 00 00 80 	cmpl   $0x80000000,-0x4(%rbp)
    46e7:	75 06                	jne    46ef <safe_mod_func_int32_t_s_s+0x23>
    46e9:	83 7d f8 ff          	cmpl   $0xffffffff,-0x8(%rbp)
    46ed:	74 0b                	je     46fa <safe_mod_func_int32_t_s_s+0x2e>
    46ef:	8b 45 fc             	mov    -0x4(%rbp),%eax
    46f2:	99                   	cltd   
    46f3:	f7 7d f8             	idivl  -0x8(%rbp)
    46f6:	89 d0                	mov    %edx,%eax
    46f8:	eb 03                	jmp    46fd <safe_mod_func_int32_t_s_s+0x31>
    46fa:	8b 45 fc             	mov    -0x4(%rbp),%eax
    46fd:	5d                   	pop    %rbp
    46fe:	c3                   	retq   

00000000000046ff <safe_div_func_int32_t_s_s>:
    46ff:	f3 0f 1e fa          	endbr64 
    4703:	55                   	push   %rbp
    4704:	48 89 e5             	mov    %rsp,%rbp
    4707:	89 7d fc             	mov    %edi,-0x4(%rbp)
    470a:	89 75 f8             	mov    %esi,-0x8(%rbp)
    470d:	83 7d f8 00          	cmpl   $0x0,-0x8(%rbp)
    4711:	74 18                	je     472b <safe_div_func_int32_t_s_s+0x2c>
    4713:	81 7d fc 00 00 00 80 	cmpl   $0x80000000,-0x4(%rbp)
    471a:	75 06                	jne    4722 <safe_div_func_int32_t_s_s+0x23>
    471c:	83 7d f8 ff          	cmpl   $0xffffffff,-0x8(%rbp)
    4720:	74 09                	je     472b <safe_div_func_int32_t_s_s+0x2c>
    4722:	8b 45 fc             	mov    -0x4(%rbp),%eax
    4725:	99                   	cltd   
    4726:	f7 7d f8             	idivl  -0x8(%rbp)
    4729:	eb 03                	jmp    472e <safe_div_func_int32_t_s_s+0x2f>
    472b:	8b 45 fc             	mov    -0x4(%rbp),%eax
    472e:	5d                   	pop    %rbp
    472f:	c3                   	retq   

0000000000004730 <safe_lshift_func_int32_t_s_s>:
    4730:	f3 0f 1e fa          	endbr64 
    4734:	55                   	push   %rbp
    4735:	48 89 e5             	mov    %rsp,%rbp
    4738:	89 7d fc             	mov    %edi,-0x4(%rbp)
    473b:	89 75 f8             	mov    %esi,-0x8(%rbp)
    473e:	83 7d fc 00          	cmpl   $0x0,-0x4(%rbp)
    4742:	78 2d                	js     4771 <safe_lshift_func_int32_t_s_s+0x41>
    4744:	83 7d f8 00          	cmpl   $0x0,-0x8(%rbp)
    4748:	78 27                	js     4771 <safe_lshift_func_int32_t_s_s+0x41>
    474a:	83 7d f8 1f          	cmpl   $0x1f,-0x8(%rbp)
    474e:	7f 21                	jg     4771 <safe_lshift_func_int32_t_s_s+0x41>
    4750:	8b 45 f8             	mov    -0x8(%rbp),%eax
    4753:	ba ff ff ff 7f       	mov    $0x7fffffff,%edx
    4758:	89 c1                	mov    %eax,%ecx
    475a:	d3 fa                	sar    %cl,%edx
    475c:	89 d0                	mov    %edx,%eax
    475e:	39 45 fc             	cmp    %eax,-0x4(%rbp)
    4761:	7f 0e                	jg     4771 <safe_lshift_func_int32_t_s_s+0x41>
    4763:	8b 45 f8             	mov    -0x8(%rbp),%eax
    4766:	8b 55 fc             	mov    -0x4(%rbp),%edx
    4769:	89 c1                	mov    %eax,%ecx
    476b:	d3 e2                	shl    %cl,%edx
    476d:	89 d0                	mov    %edx,%eax
    476f:	eb 03                	jmp    4774 <safe_lshift_func_int32_t_s_s+0x44>
    4771:	8b 45 fc             	mov    -0x4(%rbp),%eax
    4774:	5d                   	pop    %rbp
    4775:	c3                   	retq   

0000000000004776 <safe_lshift_func_int32_t_s_u>:
    4776:	f3 0f 1e fa          	endbr64 
    477a:	55                   	push   %rbp
    477b:	48 89 e5             	mov    %rsp,%rbp
    477e:	89 7d fc             	mov    %edi,-0x4(%rbp)
    4781:	89 75 f8             	mov    %esi,-0x8(%rbp)
    4784:	83 7d fc 00          	cmpl   $0x0,-0x4(%rbp)
    4788:	78 27                	js     47b1 <safe_lshift_func_int32_t_s_u+0x3b>
    478a:	83 7d f8 1f          	cmpl   $0x1f,-0x8(%rbp)
    478e:	77 21                	ja     47b1 <safe_lshift_func_int32_t_s_u+0x3b>
    4790:	8b 45 f8             	mov    -0x8(%rbp),%eax
    4793:	ba ff ff ff 7f       	mov    $0x7fffffff,%edx
    4798:	89 c1                	mov    %eax,%ecx
    479a:	d3 fa                	sar    %cl,%edx
    479c:	89 d0                	mov    %edx,%eax
    479e:	39 45 fc             	cmp    %eax,-0x4(%rbp)
    47a1:	7f 0e                	jg     47b1 <safe_lshift_func_int32_t_s_u+0x3b>
    47a3:	8b 45 f8             	mov    -0x8(%rbp),%eax
    47a6:	8b 55 fc             	mov    -0x4(%rbp),%edx
    47a9:	89 c1                	mov    %eax,%ecx
    47ab:	d3 e2                	shl    %cl,%edx
    47ad:	89 d0                	mov    %edx,%eax
    47af:	eb 03                	jmp    47b4 <safe_lshift_func_int32_t_s_u+0x3e>
    47b1:	8b 45 fc             	mov    -0x4(%rbp),%eax
    47b4:	5d                   	pop    %rbp
    47b5:	c3                   	retq   

00000000000047b6 <safe_rshift_func_int32_t_s_s>:
    47b6:	f3 0f 1e fa          	endbr64 
    47ba:	55                   	push   %rbp
    47bb:	48 89 e5             	mov    %rsp,%rbp
    47be:	89 7d fc             	mov    %edi,-0x4(%rbp)
    47c1:	89 75 f8             	mov    %esi,-0x8(%rbp)
    47c4:	83 7d fc 00          	cmpl   $0x0,-0x4(%rbp)
    47c8:	78 1a                	js     47e4 <safe_rshift_func_int32_t_s_s+0x2e>
    47ca:	83 7d f8 00          	cmpl   $0x0,-0x8(%rbp)
    47ce:	78 14                	js     47e4 <safe_rshift_func_int32_t_s_s+0x2e>
    47d0:	83 7d f8 1f          	cmpl   $0x1f,-0x8(%rbp)
    47d4:	7f 0e                	jg     47e4 <safe_rshift_func_int32_t_s_s+0x2e>
    47d6:	8b 45 f8             	mov    -0x8(%rbp),%eax
    47d9:	8b 55 fc             	mov    -0x4(%rbp),%edx
    47dc:	89 c1                	mov    %eax,%ecx
    47de:	d3 fa                	sar    %cl,%edx
    47e0:	89 d0                	mov    %edx,%eax
    47e2:	eb 03                	jmp    47e7 <safe_rshift_func_int32_t_s_s+0x31>
    47e4:	8b 45 fc             	mov    -0x4(%rbp),%eax
    47e7:	5d                   	pop    %rbp
    47e8:	c3                   	retq   

00000000000047e9 <safe_rshift_func_int32_t_s_u>:
    47e9:	f3 0f 1e fa          	endbr64 
    47ed:	55                   	push   %rbp
    47ee:	48 89 e5             	mov    %rsp,%rbp
    47f1:	89 7d fc             	mov    %edi,-0x4(%rbp)
    47f4:	89 75 f8             	mov    %esi,-0x8(%rbp)
    47f7:	83 7d fc 00          	cmpl   $0x0,-0x4(%rbp)
    47fb:	78 14                	js     4811 <safe_rshift_func_int32_t_s_u+0x28>
    47fd:	83 7d f8 1f          	cmpl   $0x1f,-0x8(%rbp)
    4801:	77 0e                	ja     4811 <safe_rshift_func_int32_t_s_u+0x28>
    4803:	8b 45 f8             	mov    -0x8(%rbp),%eax
    4806:	8b 55 fc             	mov    -0x4(%rbp),%edx
    4809:	89 c1                	mov    %eax,%ecx
    480b:	d3 fa                	sar    %cl,%edx
    480d:	89 d0                	mov    %edx,%eax
    480f:	eb 03                	jmp    4814 <safe_rshift_func_int32_t_s_u+0x2b>
    4811:	8b 45 fc             	mov    -0x4(%rbp),%eax
    4814:	5d                   	pop    %rbp
    4815:	c3                   	retq   

0000000000004816 <safe_unary_minus_func_int64_t_s>:
    4816:	f3 0f 1e fa          	endbr64 
    481a:	55                   	push   %rbp
    481b:	48 89 e5             	mov    %rsp,%rbp
    481e:	48 89 7d f8          	mov    %rdi,-0x8(%rbp)
    4822:	48 b8 00 00 00 00 00 	movabs $0x8000000000000000,%rax
    4829:	00 00 80 
    482c:	48 39 45 f8          	cmp    %rax,-0x8(%rbp)
    4830:	74 09                	je     483b <safe_unary_minus_func_int64_t_s+0x25>
    4832:	48 8b 45 f8          	mov    -0x8(%rbp),%rax
    4836:	48 f7 d8             	neg    %rax
    4839:	eb 04                	jmp    483f <safe_unary_minus_func_int64_t_s+0x29>
    483b:	48 8b 45 f8          	mov    -0x8(%rbp),%rax
    483f:	5d                   	pop    %rbp
    4840:	c3                   	retq   

0000000000004841 <safe_add_func_int64_t_s_s>:
    4841:	f3 0f 1e fa          	endbr64 
    4845:	55                   	push   %rbp
    4846:	48 89 e5             	mov    %rsp,%rbp
    4849:	48 89 7d f8          	mov    %rdi,-0x8(%rbp)
    484d:	48 89 75 f0          	mov    %rsi,-0x10(%rbp)
    4851:	48 83 7d f8 00       	cmpq   $0x0,-0x8(%rbp)
    4856:	7e 1b                	jle    4873 <safe_add_func_int64_t_s_s+0x32>
    4858:	48 83 7d f0 00       	cmpq   $0x0,-0x10(%rbp)
    485d:	7e 14                	jle    4873 <safe_add_func_int64_t_s_s+0x32>
    485f:	48 b8 ff ff ff ff ff 	movabs $0x7fffffffffffffff,%rax
    4866:	ff ff 7f 
    4869:	48 2b 45 f0          	sub    -0x10(%rbp),%rax
    486d:	48 39 45 f8          	cmp    %rax,-0x8(%rbp)
    4871:	7f 2f                	jg     48a2 <safe_add_func_int64_t_s_s+0x61>
    4873:	48 83 7d f8 00       	cmpq   $0x0,-0x8(%rbp)
    4878:	79 1b                	jns    4895 <safe_add_func_int64_t_s_s+0x54>
    487a:	48 83 7d f0 00       	cmpq   $0x0,-0x10(%rbp)
    487f:	79 14                	jns    4895 <safe_add_func_int64_t_s_s+0x54>
    4881:	48 b8 00 00 00 00 00 	movabs $0x8000000000000000,%rax
    4888:	00 00 80 
    488b:	48 2b 45 f0          	sub    -0x10(%rbp),%rax
    488f:	48 39 45 f8          	cmp    %rax,-0x8(%rbp)
    4893:	7c 0d                	jl     48a2 <safe_add_func_int64_t_s_s+0x61>
    4895:	48 8b 55 f8          	mov    -0x8(%rbp),%rdx
    4899:	48 8b 45 f0          	mov    -0x10(%rbp),%rax
    489d:	48 01 d0             	add    %rdx,%rax
    48a0:	eb 04                	jmp    48a6 <safe_add_func_int64_t_s_s+0x65>
    48a2:	48 8b 45 f8          	mov    -0x8(%rbp),%rax
    48a6:	5d                   	pop    %rbp
    48a7:	c3                   	retq   

00000000000048a8 <safe_sub_func_int64_t_s_s>:
    48a8:	f3 0f 1e fa          	endbr64 
    48ac:	55                   	push   %rbp
    48ad:	48 89 e5             	mov    %rsp,%rbp
    48b0:	48 89 7d f8          	mov    %rdi,-0x8(%rbp)
    48b4:	48 89 75 f0          	mov    %rsi,-0x10(%rbp)
    48b8:	48 8b 45 f8          	mov    -0x8(%rbp),%rax
    48bc:	48 33 45 f0          	xor    -0x10(%rbp),%rax
    48c0:	48 89 c2             	mov    %rax,%rdx
    48c3:	48 8b 45 f8          	mov    -0x8(%rbp),%rax
    48c7:	48 33 45 f0          	xor    -0x10(%rbp),%rax
    48cb:	48 b9 00 00 00 00 00 	movabs $0x8000000000000000,%rcx
    48d2:	00 00 80 
    48d5:	48 21 c8             	and    %rcx,%rax
    48d8:	48 33 45 f8          	xor    -0x8(%rbp),%rax
    48dc:	48 2b 45 f0          	sub    -0x10(%rbp),%rax
    48e0:	48 33 45 f0          	xor    -0x10(%rbp),%rax
    48e4:	48 21 d0             	and    %rdx,%rax
    48e7:	48 85 c0             	test   %rax,%rax
    48ea:	78 0a                	js     48f6 <safe_sub_func_int64_t_s_s+0x4e>
    48ec:	48 8b 45 f8          	mov    -0x8(%rbp),%rax
    48f0:	48 2b 45 f0          	sub    -0x10(%rbp),%rax
    48f4:	eb 04                	jmp    48fa <safe_sub_func_int64_t_s_s+0x52>
    48f6:	48 8b 45 f8          	mov    -0x8(%rbp),%rax
    48fa:	5d                   	pop    %rbp
    48fb:	c3                   	retq   

00000000000048fc <safe_mul_func_int64_t_s_s>:
    48fc:	f3 0f 1e fa          	endbr64 
    4900:	55                   	push   %rbp
    4901:	48 89 e5             	mov    %rsp,%rbp
    4904:	48 89 7d f8          	mov    %rdi,-0x8(%rbp)
    4908:	48 89 75 f0          	mov    %rsi,-0x10(%rbp)
    490c:	48 83 7d f8 00       	cmpq   $0x0,-0x8(%rbp)
    4911:	7e 1d                	jle    4930 <safe_mul_func_int64_t_s_s+0x34>
    4913:	48 83 7d f0 00       	cmpq   $0x0,-0x10(%rbp)
    4918:	7e 16                	jle    4930 <safe_mul_func_int64_t_s_s+0x34>
    491a:	48 b8 ff ff ff ff ff 	movabs $0x7fffffffffffffff,%rax
    4921:	ff ff 7f 
    4924:	48 99                	cqto   
    4926:	48 f7 7d f0          	idivq  -0x10(%rbp)
    492a:	48 39 45 f8          	cmp    %rax,-0x8(%rbp)
    492e:	7f 7e                	jg     49ae <safe_mul_func_int64_t_s_s+0xb2>
    4930:	48 83 7d f8 00       	cmpq   $0x0,-0x8(%rbp)
    4935:	7e 1d                	jle    4954 <safe_mul_func_int64_t_s_s+0x58>
    4937:	48 83 7d f0 00       	cmpq   $0x0,-0x10(%rbp)
    493c:	7f 16                	jg     4954 <safe_mul_func_int64_t_s_s+0x58>
    493e:	48 b8 00 00 00 00 00 	movabs $0x8000000000000000,%rax
    4945:	00 00 80 
    4948:	48 99                	cqto   
    494a:	48 f7 7d f8          	idivq  -0x8(%rbp)
    494e:	48 39 45 f0          	cmp    %rax,-0x10(%rbp)
    4952:	7c 5a                	jl     49ae <safe_mul_func_int64_t_s_s+0xb2>
    4954:	48 83 7d f8 00       	cmpq   $0x0,-0x8(%rbp)
    4959:	7f 1d                	jg     4978 <safe_mul_func_int64_t_s_s+0x7c>
    495b:	48 83 7d f0 00       	cmpq   $0x0,-0x10(%rbp)
    4960:	7e 16                	jle    4978 <safe_mul_func_int64_t_s_s+0x7c>
    4962:	48 b8 00 00 00 00 00 	movabs $0x8000000000000000,%rax
    4969:	00 00 80 
    496c:	48 99                	cqto   
    496e:	48 f7 7d f0          	idivq  -0x10(%rbp)
    4972:	48 39 45 f8          	cmp    %rax,-0x8(%rbp)
    4976:	7c 36                	jl     49ae <safe_mul_func_int64_t_s_s+0xb2>
    4978:	48 83 7d f8 00       	cmpq   $0x0,-0x8(%rbp)
    497d:	7f 24                	jg     49a3 <safe_mul_func_int64_t_s_s+0xa7>
    497f:	48 83 7d f0 00       	cmpq   $0x0,-0x10(%rbp)
    4984:	7f 1d                	jg     49a3 <safe_mul_func_int64_t_s_s+0xa7>
    4986:	48 83 7d f8 00       	cmpq   $0x0,-0x8(%rbp)
    498b:	74 16                	je     49a3 <safe_mul_func_int64_t_s_s+0xa7>
    498d:	48 b8 ff ff ff ff ff 	movabs $0x7fffffffffffffff,%rax
    4994:	ff ff 7f 
    4997:	48 99                	cqto   
    4999:	48 f7 7d f8          	idivq  -0x8(%rbp)
    499d:	48 39 45 f0          	cmp    %rax,-0x10(%rbp)
    49a1:	7c 0b                	jl     49ae <safe_mul_func_int64_t_s_s+0xb2>
    49a3:	48 8b 45 f8          	mov    -0x8(%rbp),%rax
    49a7:	48 0f af 45 f0       	imul   -0x10(%rbp),%rax
    49ac:	eb 04                	jmp    49b2 <safe_mul_func_int64_t_s_s+0xb6>
    49ae:	48 8b 45 f8          	mov    -0x8(%rbp),%rax
    49b2:	5d                   	pop    %rbp
    49b3:	c3                   	retq   

00000000000049b4 <safe_mod_func_int64_t_s_s>:
    49b4:	f3 0f 1e fa          	endbr64 
    49b8:	55                   	push   %rbp
    49b9:	48 89 e5             	mov    %rsp,%rbp
    49bc:	48 89 7d f8          	mov    %rdi,-0x8(%rbp)
    49c0:	48 89 75 f0          	mov    %rsi,-0x10(%rbp)
    49c4:	48 83 7d f0 00       	cmpq   $0x0,-0x10(%rbp)
    49c9:	74 26                	je     49f1 <safe_mod_func_int64_t_s_s+0x3d>
    49cb:	48 b8 00 00 00 00 00 	movabs $0x8000000000000000,%rax
    49d2:	00 00 80 
    49d5:	48 39 45 f8          	cmp    %rax,-0x8(%rbp)
    49d9:	75 07                	jne    49e2 <safe_mod_func_int64_t_s_s+0x2e>
    49db:	48 83 7d f0 ff       	cmpq   $0xffffffffffffffff,-0x10(%rbp)
    49e0:	74 0f                	je     49f1 <safe_mod_func_int64_t_s_s+0x3d>
    49e2:	48 8b 45 f8          	mov    -0x8(%rbp),%rax
    49e6:	48 99                	cqto   
    49e8:	48 f7 7d f0          	idivq  -0x10(%rbp)
    49ec:	48 89 d0             	mov    %rdx,%rax
    49ef:	eb 04                	jmp    49f5 <safe_mod_func_int64_t_s_s+0x41>
    49f1:	48 8b 45 f8          	mov    -0x8(%rbp),%rax
    49f5:	5d                   	pop    %rbp
    49f6:	c3                   	retq   

00000000000049f7 <safe_div_func_int64_t_s_s>:
    49f7:	f3 0f 1e fa          	endbr64 
    49fb:	55                   	push   %rbp
    49fc:	48 89 e5             	mov    %rsp,%rbp
    49ff:	48 89 7d f8          	mov    %rdi,-0x8(%rbp)
    4a03:	48 89 75 f0          	mov    %rsi,-0x10(%rbp)
    4a07:	48 83 7d f0 00       	cmpq   $0x0,-0x10(%rbp)
    4a0c:	74 23                	je     4a31 <safe_div_func_int64_t_s_s+0x3a>
    4a0e:	48 b8 00 00 00 00 00 	movabs $0x8000000000000000,%rax
    4a15:	00 00 80 
    4a18:	48 39 45 f8          	cmp    %rax,-0x8(%rbp)
    4a1c:	75 07                	jne    4a25 <safe_div_func_int64_t_s_s+0x2e>
    4a1e:	48 83 7d f0 ff       	cmpq   $0xffffffffffffffff,-0x10(%rbp)
    4a23:	74 0c                	je     4a31 <safe_div_func_int64_t_s_s+0x3a>
    4a25:	48 8b 45 f8          	mov    -0x8(%rbp),%rax
    4a29:	48 99                	cqto   
    4a2b:	48 f7 7d f0          	idivq  -0x10(%rbp)
    4a2f:	eb 04                	jmp    4a35 <safe_div_func_int64_t_s_s+0x3e>
    4a31:	48 8b 45 f8          	mov    -0x8(%rbp),%rax
    4a35:	5d                   	pop    %rbp
    4a36:	c3                   	retq   

0000000000004a37 <safe_lshift_func_int64_t_s_s>:
    4a37:	f3 0f 1e fa          	endbr64 
    4a3b:	55                   	push   %rbp
    4a3c:	48 89 e5             	mov    %rsp,%rbp
    4a3f:	48 89 7d f8          	mov    %rdi,-0x8(%rbp)
    4a43:	89 75 f4             	mov    %esi,-0xc(%rbp)
    4a46:	48 83 7d f8 00       	cmpq   $0x0,-0x8(%rbp)
    4a4b:	78 38                	js     4a85 <safe_lshift_func_int64_t_s_s+0x4e>
    4a4d:	83 7d f4 00          	cmpl   $0x0,-0xc(%rbp)
    4a51:	78 32                	js     4a85 <safe_lshift_func_int64_t_s_s+0x4e>
    4a53:	83 7d f4 1f          	cmpl   $0x1f,-0xc(%rbp)
    4a57:	7f 2c                	jg     4a85 <safe_lshift_func_int64_t_s_s+0x4e>
    4a59:	8b 45 f4             	mov    -0xc(%rbp),%eax
    4a5c:	48 ba ff ff ff ff ff 	movabs $0x7fffffffffffffff,%rdx
    4a63:	ff ff 7f 
    4a66:	89 c1                	mov    %eax,%ecx
    4a68:	48 d3 fa             	sar    %cl,%rdx
    4a6b:	48 89 d0             	mov    %rdx,%rax
    4a6e:	48 39 45 f8          	cmp    %rax,-0x8(%rbp)
    4a72:	7f 11                	jg     4a85 <safe_lshift_func_int64_t_s_s+0x4e>
    4a74:	8b 45 f4             	mov    -0xc(%rbp),%eax
    4a77:	48 8b 55 f8          	mov    -0x8(%rbp),%rdx
    4a7b:	89 c1                	mov    %eax,%ecx
    4a7d:	48 d3 e2             	shl    %cl,%rdx
    4a80:	48 89 d0             	mov    %rdx,%rax
    4a83:	eb 04                	jmp    4a89 <safe_lshift_func_int64_t_s_s+0x52>
    4a85:	48 8b 45 f8          	mov    -0x8(%rbp),%rax
    4a89:	5d                   	pop    %rbp
    4a8a:	c3                   	retq   

0000000000004a8b <safe_lshift_func_int64_t_s_u>:
    4a8b:	f3 0f 1e fa          	endbr64 
    4a8f:	55                   	push   %rbp
    4a90:	48 89 e5             	mov    %rsp,%rbp
    4a93:	48 89 7d f8          	mov    %rdi,-0x8(%rbp)
    4a97:	89 75 f4             	mov    %esi,-0xc(%rbp)
    4a9a:	48 83 7d f8 00       	cmpq   $0x0,-0x8(%rbp)
    4a9f:	78 32                	js     4ad3 <safe_lshift_func_int64_t_s_u+0x48>
    4aa1:	83 7d f4 1f          	cmpl   $0x1f,-0xc(%rbp)
    4aa5:	77 2c                	ja     4ad3 <safe_lshift_func_int64_t_s_u+0x48>
    4aa7:	8b 45 f4             	mov    -0xc(%rbp),%eax
    4aaa:	48 ba ff ff ff ff ff 	movabs $0x7fffffffffffffff,%rdx
    4ab1:	ff ff 7f 
    4ab4:	89 c1                	mov    %eax,%ecx
    4ab6:	48 d3 fa             	sar    %cl,%rdx
    4ab9:	48 89 d0             	mov    %rdx,%rax
    4abc:	48 39 45 f8          	cmp    %rax,-0x8(%rbp)
    4ac0:	7f 11                	jg     4ad3 <safe_lshift_func_int64_t_s_u+0x48>
    4ac2:	8b 45 f4             	mov    -0xc(%rbp),%eax
    4ac5:	48 8b 55 f8          	mov    -0x8(%rbp),%rdx
    4ac9:	89 c1                	mov    %eax,%ecx
    4acb:	48 d3 e2             	shl    %cl,%rdx
    4ace:	48 89 d0             	mov    %rdx,%rax
    4ad1:	eb 04                	jmp    4ad7 <safe_lshift_func_int64_t_s_u+0x4c>
    4ad3:	48 8b 45 f8          	mov    -0x8(%rbp),%rax
    4ad7:	5d                   	pop    %rbp
    4ad8:	c3                   	retq   

0000000000004ad9 <safe_rshift_func_int64_t_s_s>:
    4ad9:	f3 0f 1e fa          	endbr64 
    4add:	55                   	push   %rbp
    4ade:	48 89 e5             	mov    %rsp,%rbp
    4ae1:	48 89 7d f8          	mov    %rdi,-0x8(%rbp)
    4ae5:	89 75 f4             	mov    %esi,-0xc(%rbp)
    4ae8:	48 83 7d f8 00       	cmpq   $0x0,-0x8(%rbp)
    4aed:	78 1d                	js     4b0c <safe_rshift_func_int64_t_s_s+0x33>
    4aef:	83 7d f4 00          	cmpl   $0x0,-0xc(%rbp)
    4af3:	78 17                	js     4b0c <safe_rshift_func_int64_t_s_s+0x33>
    4af5:	83 7d f4 1f          	cmpl   $0x1f,-0xc(%rbp)
    4af9:	7f 11                	jg     4b0c <safe_rshift_func_int64_t_s_s+0x33>
    4afb:	8b 45 f4             	mov    -0xc(%rbp),%eax
    4afe:	48 8b 55 f8          	mov    -0x8(%rbp),%rdx
    4b02:	89 c1                	mov    %eax,%ecx
    4b04:	48 d3 fa             	sar    %cl,%rdx
    4b07:	48 89 d0             	mov    %rdx,%rax
    4b0a:	eb 04                	jmp    4b10 <safe_rshift_func_int64_t_s_s+0x37>
    4b0c:	48 8b 45 f8          	mov    -0x8(%rbp),%rax
    4b10:	5d                   	pop    %rbp
    4b11:	c3                   	retq   

0000000000004b12 <safe_rshift_func_int64_t_s_u>:
    4b12:	f3 0f 1e fa          	endbr64 
    4b16:	55                   	push   %rbp
    4b17:	48 89 e5             	mov    %rsp,%rbp
    4b1a:	48 89 7d f8          	mov    %rdi,-0x8(%rbp)
    4b1e:	89 75 f4             	mov    %esi,-0xc(%rbp)
    4b21:	48 83 7d f8 00       	cmpq   $0x0,-0x8(%rbp)
    4b26:	78 17                	js     4b3f <safe_rshift_func_int64_t_s_u+0x2d>
    4b28:	83 7d f4 1f          	cmpl   $0x1f,-0xc(%rbp)
    4b2c:	77 11                	ja     4b3f <safe_rshift_func_int64_t_s_u+0x2d>
    4b2e:	8b 45 f4             	mov    -0xc(%rbp),%eax
    4b31:	48 8b 55 f8          	mov    -0x8(%rbp),%rdx
    4b35:	89 c1                	mov    %eax,%ecx
    4b37:	48 d3 fa             	sar    %cl,%rdx
    4b3a:	48 89 d0             	mov    %rdx,%rax
    4b3d:	eb 04                	jmp    4b43 <safe_rshift_func_int64_t_s_u+0x31>
    4b3f:	48 8b 45 f8          	mov    -0x8(%rbp),%rax
    4b43:	5d                   	pop    %rbp
    4b44:	c3                   	retq   

0000000000004b45 <safe_unary_minus_func_uint8_t_u>:
    4b45:	f3 0f 1e fa          	endbr64 
    4b49:	55                   	push   %rbp
    4b4a:	48 89 e5             	mov    %rsp,%rbp
    4b4d:	89 f8                	mov    %edi,%eax
    4b4f:	88 45 fc             	mov    %al,-0x4(%rbp)
    4b52:	0f b6 45 fc          	movzbl -0x4(%rbp),%eax
    4b56:	f7 d8                	neg    %eax
    4b58:	5d                   	pop    %rbp
    4b59:	c3                   	retq   

0000000000004b5a <safe_add_func_uint8_t_u_u>:
    4b5a:	f3 0f 1e fa          	endbr64 
    4b5e:	55                   	push   %rbp
    4b5f:	48 89 e5             	mov    %rsp,%rbp
    4b62:	89 fa                	mov    %edi,%edx
    4b64:	89 f0                	mov    %esi,%eax
    4b66:	88 55 fc             	mov    %dl,-0x4(%rbp)
    4b69:	88 45 f8             	mov    %al,-0x8(%rbp)
    4b6c:	0f b6 55 fc          	movzbl -0x4(%rbp),%edx
    4b70:	0f b6 45 f8          	movzbl -0x8(%rbp),%eax
    4b74:	01 d0                	add    %edx,%eax
    4b76:	5d                   	pop    %rbp
    4b77:	c3                   	retq   

0000000000004b78 <safe_sub_func_uint8_t_u_u>:
    4b78:	f3 0f 1e fa          	endbr64 
    4b7c:	55                   	push   %rbp
    4b7d:	48 89 e5             	mov    %rsp,%rbp
    4b80:	89 fa                	mov    %edi,%edx
    4b82:	89 f0                	mov    %esi,%eax
    4b84:	88 55 fc             	mov    %dl,-0x4(%rbp)
    4b87:	88 45 f8             	mov    %al,-0x8(%rbp)
    4b8a:	0f b6 45 fc          	movzbl -0x4(%rbp),%eax
    4b8e:	2a 45 f8             	sub    -0x8(%rbp),%al
    4b91:	5d                   	pop    %rbp
    4b92:	c3                   	retq   

0000000000004b93 <safe_mul_func_uint8_t_u_u>:
    4b93:	f3 0f 1e fa          	endbr64 
    4b97:	55                   	push   %rbp
    4b98:	48 89 e5             	mov    %rsp,%rbp
    4b9b:	89 fa                	mov    %edi,%edx
    4b9d:	89 f0                	mov    %esi,%eax
    4b9f:	88 55 fc             	mov    %dl,-0x4(%rbp)
    4ba2:	88 45 f8             	mov    %al,-0x8(%rbp)
    4ba5:	0f b6 45 fc          	movzbl -0x4(%rbp),%eax
    4ba9:	f6 65 f8             	mulb   -0x8(%rbp)
    4bac:	5d                   	pop    %rbp
    4bad:	c3                   	retq   

0000000000004bae <safe_mod_func_uint8_t_u_u>:
    4bae:	f3 0f 1e fa          	endbr64 
    4bb2:	55                   	push   %rbp
    4bb3:	48 89 e5             	mov    %rsp,%rbp
    4bb6:	89 fa                	mov    %edi,%edx
    4bb8:	89 f0                	mov    %esi,%eax
    4bba:	88 55 fc             	mov    %dl,-0x4(%rbp)
    4bbd:	88 45 f8             	mov    %al,-0x8(%rbp)
    4bc0:	80 7d f8 00          	cmpb   $0x0,-0x8(%rbp)
    4bc4:	74 0f                	je     4bd5 <safe_mod_func_uint8_t_u_u+0x27>
    4bc6:	0f b6 45 fc          	movzbl -0x4(%rbp),%eax
    4bca:	0f b6 c0             	movzbl %al,%eax
    4bcd:	f6 75 f8             	divb   -0x8(%rbp)
    4bd0:	0f b6 c4             	movzbl %ah,%eax
    4bd3:	eb 04                	jmp    4bd9 <safe_mod_func_uint8_t_u_u+0x2b>
    4bd5:	0f b6 45 fc          	movzbl -0x4(%rbp),%eax
    4bd9:	5d                   	pop    %rbp
    4bda:	c3                   	retq   

0000000000004bdb <safe_div_func_uint8_t_u_u>:
    4bdb:	f3 0f 1e fa          	endbr64 
    4bdf:	55                   	push   %rbp
    4be0:	48 89 e5             	mov    %rsp,%rbp
    4be3:	89 fa                	mov    %edi,%edx
    4be5:	89 f0                	mov    %esi,%eax
    4be7:	88 55 fc             	mov    %dl,-0x4(%rbp)
    4bea:	88 45 f8             	mov    %al,-0x8(%rbp)
    4bed:	80 7d f8 00          	cmpb   $0x0,-0x8(%rbp)
    4bf1:	74 0c                	je     4bff <safe_div_func_uint8_t_u_u+0x24>
    4bf3:	0f b6 45 fc          	movzbl -0x4(%rbp),%eax
    4bf7:	0f b6 c0             	movzbl %al,%eax
    4bfa:	f6 75 f8             	divb   -0x8(%rbp)
    4bfd:	eb 04                	jmp    4c03 <safe_div_func_uint8_t_u_u+0x28>
    4bff:	0f b6 45 fc          	movzbl -0x4(%rbp),%eax
    4c03:	5d                   	pop    %rbp
    4c04:	c3                   	retq   

0000000000004c05 <safe_lshift_func_uint8_t_u_s>:
    4c05:	f3 0f 1e fa          	endbr64 
    4c09:	55                   	push   %rbp
    4c0a:	48 89 e5             	mov    %rsp,%rbp
    4c0d:	89 f8                	mov    %edi,%eax
    4c0f:	89 75 f8             	mov    %esi,-0x8(%rbp)
    4c12:	88 45 fc             	mov    %al,-0x4(%rbp)
    4c15:	83 7d f8 00          	cmpl   $0x0,-0x8(%rbp)
    4c19:	78 2b                	js     4c46 <safe_lshift_func_uint8_t_u_s+0x41>
    4c1b:	83 7d f8 1f          	cmpl   $0x1f,-0x8(%rbp)
    4c1f:	7f 25                	jg     4c46 <safe_lshift_func_uint8_t_u_s+0x41>
    4c21:	0f b6 55 fc          	movzbl -0x4(%rbp),%edx
    4c25:	8b 45 f8             	mov    -0x8(%rbp),%eax
    4c28:	be ff 00 00 00       	mov    $0xff,%esi
    4c2d:	89 c1                	mov    %eax,%ecx
    4c2f:	d3 fe                	sar    %cl,%esi
    4c31:	89 f0                	mov    %esi,%eax
    4c33:	39 c2                	cmp    %eax,%edx
    4c35:	7f 0f                	jg     4c46 <safe_lshift_func_uint8_t_u_s+0x41>
    4c37:	0f b6 55 fc          	movzbl -0x4(%rbp),%edx
    4c3b:	8b 45 f8             	mov    -0x8(%rbp),%eax
    4c3e:	89 c1                	mov    %eax,%ecx
    4c40:	d3 e2                	shl    %cl,%edx
    4c42:	89 d0                	mov    %edx,%eax
    4c44:	eb 04                	jmp    4c4a <safe_lshift_func_uint8_t_u_s+0x45>
    4c46:	0f b6 45 fc          	movzbl -0x4(%rbp),%eax
    4c4a:	5d                   	pop    %rbp
    4c4b:	c3                   	retq   

0000000000004c4c <safe_lshift_func_uint8_t_u_u>:
    4c4c:	f3 0f 1e fa          	endbr64 
    4c50:	55                   	push   %rbp
    4c51:	48 89 e5             	mov    %rsp,%rbp
    4c54:	89 f8                	mov    %edi,%eax
    4c56:	89 75 f8             	mov    %esi,-0x8(%rbp)
    4c59:	88 45 fc             	mov    %al,-0x4(%rbp)
    4c5c:	83 7d f8 1f          	cmpl   $0x1f,-0x8(%rbp)
    4c60:	77 25                	ja     4c87 <safe_lshift_func_uint8_t_u_u+0x3b>
    4c62:	0f b6 55 fc          	movzbl -0x4(%rbp),%edx
    4c66:	8b 45 f8             	mov    -0x8(%rbp),%eax
    4c69:	be ff 00 00 00       	mov    $0xff,%esi
    4c6e:	89 c1                	mov    %eax,%ecx
    4c70:	d3 fe                	sar    %cl,%esi
    4c72:	89 f0                	mov    %esi,%eax
    4c74:	39 c2                	cmp    %eax,%edx
    4c76:	7f 0f                	jg     4c87 <safe_lshift_func_uint8_t_u_u+0x3b>
    4c78:	0f b6 55 fc          	movzbl -0x4(%rbp),%edx
    4c7c:	8b 45 f8             	mov    -0x8(%rbp),%eax
    4c7f:	89 c1                	mov    %eax,%ecx
    4c81:	d3 e2                	shl    %cl,%edx
    4c83:	89 d0                	mov    %edx,%eax
    4c85:	eb 04                	jmp    4c8b <safe_lshift_func_uint8_t_u_u+0x3f>
    4c87:	0f b6 45 fc          	movzbl -0x4(%rbp),%eax
    4c8b:	5d                   	pop    %rbp
    4c8c:	c3                   	retq   

0000000000004c8d <safe_rshift_func_uint8_t_u_s>:
    4c8d:	f3 0f 1e fa          	endbr64 
    4c91:	55                   	push   %rbp
    4c92:	48 89 e5             	mov    %rsp,%rbp
    4c95:	89 f8                	mov    %edi,%eax
    4c97:	89 75 f8             	mov    %esi,-0x8(%rbp)
    4c9a:	88 45 fc             	mov    %al,-0x4(%rbp)
    4c9d:	83 7d f8 00          	cmpl   $0x0,-0x8(%rbp)
    4ca1:	78 15                	js     4cb8 <safe_rshift_func_uint8_t_u_s+0x2b>
    4ca3:	83 7d f8 1f          	cmpl   $0x1f,-0x8(%rbp)
    4ca7:	7f 0f                	jg     4cb8 <safe_rshift_func_uint8_t_u_s+0x2b>
    4ca9:	0f b6 55 fc          	movzbl -0x4(%rbp),%edx
    4cad:	8b 45 f8             	mov    -0x8(%rbp),%eax
    4cb0:	89 c1                	mov    %eax,%ecx
    4cb2:	d3 fa                	sar    %cl,%edx
    4cb4:	89 d0                	mov    %edx,%eax
    4cb6:	eb 04                	jmp    4cbc <safe_rshift_func_uint8_t_u_s+0x2f>
    4cb8:	0f b6 45 fc          	movzbl -0x4(%rbp),%eax
    4cbc:	5d                   	pop    %rbp
    4cbd:	c3                   	retq   

0000000000004cbe <safe_rshift_func_uint8_t_u_u>:
    4cbe:	f3 0f 1e fa          	endbr64 
    4cc2:	55                   	push   %rbp
    4cc3:	48 89 e5             	mov    %rsp,%rbp
    4cc6:	89 f8                	mov    %edi,%eax
    4cc8:	89 75 f8             	mov    %esi,-0x8(%rbp)
    4ccb:	88 45 fc             	mov    %al,-0x4(%rbp)
    4cce:	83 7d f8 1f          	cmpl   $0x1f,-0x8(%rbp)
    4cd2:	77 0f                	ja     4ce3 <safe_rshift_func_uint8_t_u_u+0x25>
    4cd4:	0f b6 55 fc          	movzbl -0x4(%rbp),%edx
    4cd8:	8b 45 f8             	mov    -0x8(%rbp),%eax
    4cdb:	89 c1                	mov    %eax,%ecx
    4cdd:	d3 fa                	sar    %cl,%edx
    4cdf:	89 d0                	mov    %edx,%eax
    4ce1:	eb 04                	jmp    4ce7 <safe_rshift_func_uint8_t_u_u+0x29>
    4ce3:	0f b6 45 fc          	movzbl -0x4(%rbp),%eax
    4ce7:	5d                   	pop    %rbp
    4ce8:	c3                   	retq   

0000000000004ce9 <safe_unary_minus_func_uint16_t_u>:
    4ce9:	f3 0f 1e fa          	endbr64 
    4ced:	55                   	push   %rbp
    4cee:	48 89 e5             	mov    %rsp,%rbp
    4cf1:	89 f8                	mov    %edi,%eax
    4cf3:	66 89 45 fc          	mov    %ax,-0x4(%rbp)
    4cf7:	0f b7 45 fc          	movzwl -0x4(%rbp),%eax
    4cfb:	f7 d8                	neg    %eax
    4cfd:	5d                   	pop    %rbp
    4cfe:	c3                   	retq   

0000000000004cff <safe_add_func_uint16_t_u_u>:
    4cff:	f3 0f 1e fa          	endbr64 
    4d03:	55                   	push   %rbp
    4d04:	48 89 e5             	mov    %rsp,%rbp
    4d07:	89 fa                	mov    %edi,%edx
    4d09:	89 f0                	mov    %esi,%eax
    4d0b:	66 89 55 fc          	mov    %dx,-0x4(%rbp)
    4d0f:	66 89 45 f8          	mov    %ax,-0x8(%rbp)
    4d13:	0f b7 55 fc          	movzwl -0x4(%rbp),%edx
    4d17:	0f b7 45 f8          	movzwl -0x8(%rbp),%eax
    4d1b:	01 d0                	add    %edx,%eax
    4d1d:	5d                   	pop    %rbp
    4d1e:	c3                   	retq   

0000000000004d1f <safe_sub_func_uint16_t_u_u>:
    4d1f:	f3 0f 1e fa          	endbr64 
    4d23:	55                   	push   %rbp
    4d24:	48 89 e5             	mov    %rsp,%rbp
    4d27:	89 fa                	mov    %edi,%edx
    4d29:	89 f0                	mov    %esi,%eax
    4d2b:	66 89 55 fc          	mov    %dx,-0x4(%rbp)
    4d2f:	66 89 45 f8          	mov    %ax,-0x8(%rbp)
    4d33:	0f b7 45 fc          	movzwl -0x4(%rbp),%eax
    4d37:	66 2b 45 f8          	sub    -0x8(%rbp),%ax
    4d3b:	5d                   	pop    %rbp
    4d3c:	c3                   	retq   

0000000000004d3d <safe_mul_func_uint16_t_u_u>:
    4d3d:	f3 0f 1e fa          	endbr64 
    4d41:	55                   	push   %rbp
    4d42:	48 89 e5             	mov    %rsp,%rbp
    4d45:	89 fa                	mov    %edi,%edx
    4d47:	89 f0                	mov    %esi,%eax
    4d49:	66 89 55 fc          	mov    %dx,-0x4(%rbp)
    4d4d:	66 89 45 f8          	mov    %ax,-0x8(%rbp)
    4d51:	0f b7 45 fc          	movzwl -0x4(%rbp),%eax
    4d55:	66 0f af 45 f8       	imul   -0x8(%rbp),%ax
    4d5a:	5d                   	pop    %rbp
    4d5b:	c3                   	retq   

0000000000004d5c <safe_mod_func_uint16_t_u_u>:
    4d5c:	f3 0f 1e fa          	endbr64 
    4d60:	55                   	push   %rbp
    4d61:	48 89 e5             	mov    %rsp,%rbp
    4d64:	89 fa                	mov    %edi,%edx
    4d66:	89 f0                	mov    %esi,%eax
    4d68:	66 89 55 fc          	mov    %dx,-0x4(%rbp)
    4d6c:	66 89 45 f8          	mov    %ax,-0x8(%rbp)
    4d70:	66 83 7d f8 00       	cmpw   $0x0,-0x8(%rbp)
    4d75:	74 11                	je     4d88 <safe_mod_func_uint16_t_u_u+0x2c>
    4d77:	0f b7 45 fc          	movzwl -0x4(%rbp),%eax
    4d7b:	ba 00 00 00 00       	mov    $0x0,%edx
    4d80:	66 f7 75 f8          	divw   -0x8(%rbp)
    4d84:	89 d0                	mov    %edx,%eax
    4d86:	eb 04                	jmp    4d8c <safe_mod_func_uint16_t_u_u+0x30>
    4d88:	0f b7 45 fc          	movzwl -0x4(%rbp),%eax
    4d8c:	5d                   	pop    %rbp
    4d8d:	c3                   	retq   

0000000000004d8e <safe_div_func_uint16_t_u_u>:
    4d8e:	f3 0f 1e fa          	endbr64 
    4d92:	55                   	push   %rbp
    4d93:	48 89 e5             	mov    %rsp,%rbp
    4d96:	89 fa                	mov    %edi,%edx
    4d98:	89 f0                	mov    %esi,%eax
    4d9a:	66 89 55 fc          	mov    %dx,-0x4(%rbp)
    4d9e:	66 89 45 f8          	mov    %ax,-0x8(%rbp)
    4da2:	66 83 7d f8 00       	cmpw   $0x0,-0x8(%rbp)
    4da7:	74 0f                	je     4db8 <safe_div_func_uint16_t_u_u+0x2a>
    4da9:	0f b7 45 fc          	movzwl -0x4(%rbp),%eax
    4dad:	ba 00 00 00 00       	mov    $0x0,%edx
    4db2:	66 f7 75 f8          	divw   -0x8(%rbp)
    4db6:	eb 04                	jmp    4dbc <safe_div_func_uint16_t_u_u+0x2e>
    4db8:	0f b7 45 fc          	movzwl -0x4(%rbp),%eax
    4dbc:	5d                   	pop    %rbp
    4dbd:	c3                   	retq   

0000000000004dbe <safe_lshift_func_uint16_t_u_s>:
    4dbe:	f3 0f 1e fa          	endbr64 
    4dc2:	55                   	push   %rbp
    4dc3:	48 89 e5             	mov    %rsp,%rbp
    4dc6:	89 f8                	mov    %edi,%eax
    4dc8:	89 75 f8             	mov    %esi,-0x8(%rbp)
    4dcb:	66 89 45 fc          	mov    %ax,-0x4(%rbp)
    4dcf:	83 7d f8 00          	cmpl   $0x0,-0x8(%rbp)
    4dd3:	78 2b                	js     4e00 <safe_lshift_func_uint16_t_u_s+0x42>
    4dd5:	83 7d f8 1f          	cmpl   $0x1f,-0x8(%rbp)
    4dd9:	7f 25                	jg     4e00 <safe_lshift_func_uint16_t_u_s+0x42>
    4ddb:	0f b7 55 fc          	movzwl -0x4(%rbp),%edx
    4ddf:	8b 45 f8             	mov    -0x8(%rbp),%eax
    4de2:	be ff ff 00 00       	mov    $0xffff,%esi
    4de7:	89 c1                	mov    %eax,%ecx
    4de9:	d3 fe                	sar    %cl,%esi
    4deb:	89 f0                	mov    %esi,%eax
    4ded:	39 c2                	cmp    %eax,%edx
    4def:	7f 0f                	jg     4e00 <safe_lshift_func_uint16_t_u_s+0x42>
    4df1:	0f b7 55 fc          	movzwl -0x4(%rbp),%edx
    4df5:	8b 45 f8             	mov    -0x8(%rbp),%eax
    4df8:	89 c1                	mov    %eax,%ecx
    4dfa:	d3 e2                	shl    %cl,%edx
    4dfc:	89 d0                	mov    %edx,%eax
    4dfe:	eb 04                	jmp    4e04 <safe_lshift_func_uint16_t_u_s+0x46>
    4e00:	0f b7 45 fc          	movzwl -0x4(%rbp),%eax
    4e04:	5d                   	pop    %rbp
    4e05:	c3                   	retq   

0000000000004e06 <safe_lshift_func_uint16_t_u_u>:
    4e06:	f3 0f 1e fa          	endbr64 
    4e0a:	55                   	push   %rbp
    4e0b:	48 89 e5             	mov    %rsp,%rbp
    4e0e:	89 f8                	mov    %edi,%eax
    4e10:	89 75 f8             	mov    %esi,-0x8(%rbp)
    4e13:	66 89 45 fc          	mov    %ax,-0x4(%rbp)
    4e17:	83 7d f8 1f          	cmpl   $0x1f,-0x8(%rbp)
    4e1b:	77 25                	ja     4e42 <safe_lshift_func_uint16_t_u_u+0x3c>
    4e1d:	0f b7 55 fc          	movzwl -0x4(%rbp),%edx
    4e21:	8b 45 f8             	mov    -0x8(%rbp),%eax
    4e24:	be ff ff 00 00       	mov    $0xffff,%esi
    4e29:	89 c1                	mov    %eax,%ecx
    4e2b:	d3 fe                	sar    %cl,%esi
    4e2d:	89 f0                	mov    %esi,%eax
    4e2f:	39 c2                	cmp    %eax,%edx
    4e31:	7f 0f                	jg     4e42 <safe_lshift_func_uint16_t_u_u+0x3c>
    4e33:	0f b7 55 fc          	movzwl -0x4(%rbp),%edx
    4e37:	8b 45 f8             	mov    -0x8(%rbp),%eax
    4e3a:	89 c1                	mov    %eax,%ecx
    4e3c:	d3 e2                	shl    %cl,%edx
    4e3e:	89 d0                	mov    %edx,%eax
    4e40:	eb 04                	jmp    4e46 <safe_lshift_func_uint16_t_u_u+0x40>
    4e42:	0f b7 45 fc          	movzwl -0x4(%rbp),%eax
    4e46:	5d                   	pop    %rbp
    4e47:	c3                   	retq   

0000000000004e48 <safe_rshift_func_uint16_t_u_s>:
    4e48:	f3 0f 1e fa          	endbr64 
    4e4c:	55                   	push   %rbp
    4e4d:	48 89 e5             	mov    %rsp,%rbp
    4e50:	89 f8                	mov    %edi,%eax
    4e52:	89 75 f8             	mov    %esi,-0x8(%rbp)
    4e55:	66 89 45 fc          	mov    %ax,-0x4(%rbp)
    4e59:	83 7d f8 00          	cmpl   $0x0,-0x8(%rbp)
    4e5d:	78 15                	js     4e74 <safe_rshift_func_uint16_t_u_s+0x2c>
    4e5f:	83 7d f8 1f          	cmpl   $0x1f,-0x8(%rbp)
    4e63:	7f 0f                	jg     4e74 <safe_rshift_func_uint16_t_u_s+0x2c>
    4e65:	0f b7 55 fc          	movzwl -0x4(%rbp),%edx
    4e69:	8b 45 f8             	mov    -0x8(%rbp),%eax
    4e6c:	89 c1                	mov    %eax,%ecx
    4e6e:	d3 fa                	sar    %cl,%edx
    4e70:	89 d0                	mov    %edx,%eax
    4e72:	eb 04                	jmp    4e78 <safe_rshift_func_uint16_t_u_s+0x30>
    4e74:	0f b7 45 fc          	movzwl -0x4(%rbp),%eax
    4e78:	5d                   	pop    %rbp
    4e79:	c3                   	retq   

0000000000004e7a <safe_rshift_func_uint16_t_u_u>:
    4e7a:	f3 0f 1e fa          	endbr64 
    4e7e:	55                   	push   %rbp
    4e7f:	48 89 e5             	mov    %rsp,%rbp
    4e82:	89 f8                	mov    %edi,%eax
    4e84:	89 75 f8             	mov    %esi,-0x8(%rbp)
    4e87:	66 89 45 fc          	mov    %ax,-0x4(%rbp)
    4e8b:	83 7d f8 1f          	cmpl   $0x1f,-0x8(%rbp)
    4e8f:	77 0f                	ja     4ea0 <safe_rshift_func_uint16_t_u_u+0x26>
    4e91:	0f b7 55 fc          	movzwl -0x4(%rbp),%edx
    4e95:	8b 45 f8             	mov    -0x8(%rbp),%eax
    4e98:	89 c1                	mov    %eax,%ecx
    4e9a:	d3 fa                	sar    %cl,%edx
    4e9c:	89 d0                	mov    %edx,%eax
    4e9e:	eb 04                	jmp    4ea4 <safe_rshift_func_uint16_t_u_u+0x2a>
    4ea0:	0f b7 45 fc          	movzwl -0x4(%rbp),%eax
    4ea4:	5d                   	pop    %rbp
    4ea5:	c3                   	retq   

0000000000004ea6 <safe_unary_minus_func_uint32_t_u>:
    4ea6:	f3 0f 1e fa          	endbr64 
    4eaa:	55                   	push   %rbp
    4eab:	48 89 e5             	mov    %rsp,%rbp
    4eae:	89 7d fc             	mov    %edi,-0x4(%rbp)
    4eb1:	8b 45 fc             	mov    -0x4(%rbp),%eax
    4eb4:	f7 d8                	neg    %eax
    4eb6:	5d                   	pop    %rbp
    4eb7:	c3                   	retq   

0000000000004eb8 <safe_add_func_uint32_t_u_u>:
    4eb8:	f3 0f 1e fa          	endbr64 
    4ebc:	55                   	push   %rbp
    4ebd:	48 89 e5             	mov    %rsp,%rbp
    4ec0:	89 7d fc             	mov    %edi,-0x4(%rbp)
    4ec3:	89 75 f8             	mov    %esi,-0x8(%rbp)
    4ec6:	8b 55 fc             	mov    -0x4(%rbp),%edx
    4ec9:	8b 45 f8             	mov    -0x8(%rbp),%eax
    4ecc:	01 d0                	add    %edx,%eax
    4ece:	5d                   	pop    %rbp
    4ecf:	c3                   	retq   

0000000000004ed0 <safe_sub_func_uint32_t_u_u>:
    4ed0:	f3 0f 1e fa          	endbr64 
    4ed4:	55                   	push   %rbp
    4ed5:	48 89 e5             	mov    %rsp,%rbp
    4ed8:	89 7d fc             	mov    %edi,-0x4(%rbp)
    4edb:	89 75 f8             	mov    %esi,-0x8(%rbp)
    4ede:	8b 45 fc             	mov    -0x4(%rbp),%eax
    4ee1:	2b 45 f8             	sub    -0x8(%rbp),%eax
    4ee4:	5d                   	pop    %rbp
    4ee5:	c3                   	retq   

0000000000004ee6 <safe_mul_func_uint32_t_u_u>:
    4ee6:	f3 0f 1e fa          	endbr64 
    4eea:	55                   	push   %rbp
    4eeb:	48 89 e5             	mov    %rsp,%rbp
    4eee:	89 7d fc             	mov    %edi,-0x4(%rbp)
    4ef1:	89 75 f8             	mov    %esi,-0x8(%rbp)
    4ef4:	8b 45 fc             	mov    -0x4(%rbp),%eax
    4ef7:	0f af 45 f8          	imul   -0x8(%rbp),%eax
    4efb:	5d                   	pop    %rbp
    4efc:	c3                   	retq   

0000000000004efd <safe_mod_func_uint32_t_u_u>:
    4efd:	f3 0f 1e fa          	endbr64 
    4f01:	55                   	push   %rbp
    4f02:	48 89 e5             	mov    %rsp,%rbp
    4f05:	89 7d fc             	mov    %edi,-0x4(%rbp)
    4f08:	89 75 f8             	mov    %esi,-0x8(%rbp)
    4f0b:	83 7d f8 00          	cmpl   $0x0,-0x8(%rbp)
    4f0f:	74 0f                	je     4f20 <safe_mod_func_uint32_t_u_u+0x23>
    4f11:	8b 45 fc             	mov    -0x4(%rbp),%eax
    4f14:	ba 00 00 00 00       	mov    $0x0,%edx
    4f19:	f7 75 f8             	divl   -0x8(%rbp)
    4f1c:	89 d0                	mov    %edx,%eax
    4f1e:	eb 03                	jmp    4f23 <safe_mod_func_uint32_t_u_u+0x26>
    4f20:	8b 45 fc             	mov    -0x4(%rbp),%eax
    4f23:	5d                   	pop    %rbp
    4f24:	c3                   	retq   

0000000000004f25 <safe_div_func_uint32_t_u_u>:
    4f25:	f3 0f 1e fa          	endbr64 
    4f29:	55                   	push   %rbp
    4f2a:	48 89 e5             	mov    %rsp,%rbp
    4f2d:	89 7d fc             	mov    %edi,-0x4(%rbp)
    4f30:	89 75 f8             	mov    %esi,-0x8(%rbp)
    4f33:	83 7d f8 00          	cmpl   $0x0,-0x8(%rbp)
    4f37:	74 0d                	je     4f46 <safe_div_func_uint32_t_u_u+0x21>
    4f39:	8b 45 fc             	mov    -0x4(%rbp),%eax
    4f3c:	ba 00 00 00 00       	mov    $0x0,%edx
    4f41:	f7 75 f8             	divl   -0x8(%rbp)
    4f44:	eb 03                	jmp    4f49 <safe_div_func_uint32_t_u_u+0x24>
    4f46:	8b 45 fc             	mov    -0x4(%rbp),%eax
    4f49:	5d                   	pop    %rbp
    4f4a:	c3                   	retq   

0000000000004f4b <safe_lshift_func_uint32_t_u_s>:
    4f4b:	f3 0f 1e fa          	endbr64 
    4f4f:	55                   	push   %rbp
    4f50:	48 89 e5             	mov    %rsp,%rbp
    4f53:	89 7d fc             	mov    %edi,-0x4(%rbp)
    4f56:	89 75 f8             	mov    %esi,-0x8(%rbp)
    4f59:	83 7d f8 00          	cmpl   $0x0,-0x8(%rbp)
    4f5d:	78 27                	js     4f86 <safe_lshift_func_uint32_t_u_s+0x3b>
    4f5f:	83 7d f8 1f          	cmpl   $0x1f,-0x8(%rbp)
    4f63:	7f 21                	jg     4f86 <safe_lshift_func_uint32_t_u_s+0x3b>
    4f65:	8b 45 f8             	mov    -0x8(%rbp),%eax
    4f68:	ba ff ff ff ff       	mov    $0xffffffff,%edx
    4f6d:	89 c1                	mov    %eax,%ecx
    4f6f:	d3 ea                	shr    %cl,%edx
    4f71:	89 d0                	mov    %edx,%eax
    4f73:	39 45 fc             	cmp    %eax,-0x4(%rbp)
    4f76:	77 0e                	ja     4f86 <safe_lshift_func_uint32_t_u_s+0x3b>
    4f78:	8b 45 f8             	mov    -0x8(%rbp),%eax
    4f7b:	8b 55 fc             	mov    -0x4(%rbp),%edx
    4f7e:	89 c1                	mov    %eax,%ecx
    4f80:	d3 e2                	shl    %cl,%edx
    4f82:	89 d0                	mov    %edx,%eax
    4f84:	eb 03                	jmp    4f89 <safe_lshift_func_uint32_t_u_s+0x3e>
    4f86:	8b 45 fc             	mov    -0x4(%rbp),%eax
    4f89:	5d                   	pop    %rbp
    4f8a:	c3                   	retq   

0000000000004f8b <safe_lshift_func_uint32_t_u_u>:
    4f8b:	f3 0f 1e fa          	endbr64 
    4f8f:	55                   	push   %rbp
    4f90:	48 89 e5             	mov    %rsp,%rbp
    4f93:	89 7d fc             	mov    %edi,-0x4(%rbp)
    4f96:	89 75 f8             	mov    %esi,-0x8(%rbp)
    4f99:	83 7d f8 1f          	cmpl   $0x1f,-0x8(%rbp)
    4f9d:	77 21                	ja     4fc0 <safe_lshift_func_uint32_t_u_u+0x35>
    4f9f:	8b 45 f8             	mov    -0x8(%rbp),%eax
    4fa2:	ba ff ff ff ff       	mov    $0xffffffff,%edx
    4fa7:	89 c1                	mov    %eax,%ecx
    4fa9:	d3 ea                	shr    %cl,%edx
    4fab:	89 d0                	mov    %edx,%eax
    4fad:	39 45 fc             	cmp    %eax,-0x4(%rbp)
    4fb0:	77 0e                	ja     4fc0 <safe_lshift_func_uint32_t_u_u+0x35>
    4fb2:	8b 45 f8             	mov    -0x8(%rbp),%eax
    4fb5:	8b 55 fc             	mov    -0x4(%rbp),%edx
    4fb8:	89 c1                	mov    %eax,%ecx
    4fba:	d3 e2                	shl    %cl,%edx
    4fbc:	89 d0                	mov    %edx,%eax
    4fbe:	eb 03                	jmp    4fc3 <safe_lshift_func_uint32_t_u_u+0x38>
    4fc0:	8b 45 fc             	mov    -0x4(%rbp),%eax
    4fc3:	5d                   	pop    %rbp
    4fc4:	c3                   	retq   

0000000000004fc5 <safe_rshift_func_uint32_t_u_s>:
    4fc5:	f3 0f 1e fa          	endbr64 
    4fc9:	55                   	push   %rbp
    4fca:	48 89 e5             	mov    %rsp,%rbp
    4fcd:	89 7d fc             	mov    %edi,-0x4(%rbp)
    4fd0:	89 75 f8             	mov    %esi,-0x8(%rbp)
    4fd3:	83 7d f8 00          	cmpl   $0x0,-0x8(%rbp)
    4fd7:	78 14                	js     4fed <safe_rshift_func_uint32_t_u_s+0x28>
    4fd9:	83 7d f8 1f          	cmpl   $0x1f,-0x8(%rbp)
    4fdd:	7f 0e                	jg     4fed <safe_rshift_func_uint32_t_u_s+0x28>
    4fdf:	8b 45 f8             	mov    -0x8(%rbp),%eax
    4fe2:	8b 55 fc             	mov    -0x4(%rbp),%edx
    4fe5:	89 c1                	mov    %eax,%ecx
    4fe7:	d3 ea                	shr    %cl,%edx
    4fe9:	89 d0                	mov    %edx,%eax
    4feb:	eb 03                	jmp    4ff0 <safe_rshift_func_uint32_t_u_s+0x2b>
    4fed:	8b 45 fc             	mov    -0x4(%rbp),%eax
    4ff0:	5d                   	pop    %rbp
    4ff1:	c3                   	retq   

0000000000004ff2 <safe_rshift_func_uint32_t_u_u>:
    4ff2:	f3 0f 1e fa          	endbr64 
    4ff6:	55                   	push   %rbp
    4ff7:	48 89 e5             	mov    %rsp,%rbp
    4ffa:	89 7d fc             	mov    %edi,-0x4(%rbp)
    4ffd:	89 75 f8             	mov    %esi,-0x8(%rbp)
    5000:	83 7d f8 1f          	cmpl   $0x1f,-0x8(%rbp)
    5004:	77 0e                	ja     5014 <safe_rshift_func_uint32_t_u_u+0x22>
    5006:	8b 45 f8             	mov    -0x8(%rbp),%eax
    5009:	8b 55 fc             	mov    -0x4(%rbp),%edx
    500c:	89 c1                	mov    %eax,%ecx
    500e:	d3 ea                	shr    %cl,%edx
    5010:	89 d0                	mov    %edx,%eax
    5012:	eb 03                	jmp    5017 <safe_rshift_func_uint32_t_u_u+0x25>
    5014:	8b 45 fc             	mov    -0x4(%rbp),%eax
    5017:	5d                   	pop    %rbp
    5018:	c3                   	retq   

0000000000005019 <safe_unary_minus_func_uint64_t_u>:
    5019:	f3 0f 1e fa          	endbr64 
    501d:	55                   	push   %rbp
    501e:	48 89 e5             	mov    %rsp,%rbp
    5021:	48 89 7d f8          	mov    %rdi,-0x8(%rbp)
    5025:	48 8b 45 f8          	mov    -0x8(%rbp),%rax
    5029:	48 f7 d8             	neg    %rax
    502c:	5d                   	pop    %rbp
    502d:	c3                   	retq   

000000000000502e <safe_add_func_uint64_t_u_u>:
    502e:	f3 0f 1e fa          	endbr64 
    5032:	55                   	push   %rbp
    5033:	48 89 e5             	mov    %rsp,%rbp
    5036:	48 89 7d f8          	mov    %rdi,-0x8(%rbp)
    503a:	48 89 75 f0          	mov    %rsi,-0x10(%rbp)
    503e:	48 8b 55 f8          	mov    -0x8(%rbp),%rdx
    5042:	48 8b 45 f0          	mov    -0x10(%rbp),%rax
    5046:	48 01 d0             	add    %rdx,%rax
    5049:	5d                   	pop    %rbp
    504a:	c3                   	retq   

000000000000504b <safe_sub_func_uint64_t_u_u>:
    504b:	f3 0f 1e fa          	endbr64 
    504f:	55                   	push   %rbp
    5050:	48 89 e5             	mov    %rsp,%rbp
    5053:	48 89 7d f8          	mov    %rdi,-0x8(%rbp)
    5057:	48 89 75 f0          	mov    %rsi,-0x10(%rbp)
    505b:	48 8b 45 f8          	mov    -0x8(%rbp),%rax
    505f:	48 2b 45 f0          	sub    -0x10(%rbp),%rax
    5063:	5d                   	pop    %rbp
    5064:	c3                   	retq   

0000000000005065 <safe_mul_func_uint64_t_u_u>:
    5065:	f3 0f 1e fa          	endbr64 
    5069:	55                   	push   %rbp
    506a:	48 89 e5             	mov    %rsp,%rbp
    506d:	48 89 7d f8          	mov    %rdi,-0x8(%rbp)
    5071:	48 89 75 f0          	mov    %rsi,-0x10(%rbp)
    5075:	48 8b 45 f8          	mov    -0x8(%rbp),%rax
    5079:	48 0f af 45 f0       	imul   -0x10(%rbp),%rax
    507e:	5d                   	pop    %rbp
    507f:	c3                   	retq   

0000000000005080 <safe_mod_func_uint64_t_u_u>:
    5080:	f3 0f 1e fa          	endbr64 
    5084:	55                   	push   %rbp
    5085:	48 89 e5             	mov    %rsp,%rbp
    5088:	48 89 7d f8          	mov    %rdi,-0x8(%rbp)
    508c:	48 89 75 f0          	mov    %rsi,-0x10(%rbp)
    5090:	48 83 7d f0 00       	cmpq   $0x0,-0x10(%rbp)
    5095:	74 12                	je     50a9 <safe_mod_func_uint64_t_u_u+0x29>
    5097:	48 8b 45 f8          	mov    -0x8(%rbp),%rax
    509b:	ba 00 00 00 00       	mov    $0x0,%edx
    50a0:	48 f7 75 f0          	divq   -0x10(%rbp)
    50a4:	48 89 d0             	mov    %rdx,%rax
    50a7:	eb 04                	jmp    50ad <safe_mod_func_uint64_t_u_u+0x2d>
    50a9:	48 8b 45 f8          	mov    -0x8(%rbp),%rax
    50ad:	5d                   	pop    %rbp
    50ae:	c3                   	retq   

00000000000050af <safe_div_func_uint64_t_u_u>:
    50af:	f3 0f 1e fa          	endbr64 
    50b3:	55                   	push   %rbp
    50b4:	48 89 e5             	mov    %rsp,%rbp
    50b7:	48 89 7d f8          	mov    %rdi,-0x8(%rbp)
    50bb:	48 89 75 f0          	mov    %rsi,-0x10(%rbp)
    50bf:	48 83 7d f0 00       	cmpq   $0x0,-0x10(%rbp)
    50c4:	74 0f                	je     50d5 <safe_div_func_uint64_t_u_u+0x26>
    50c6:	48 8b 45 f8          	mov    -0x8(%rbp),%rax
    50ca:	ba 00 00 00 00       	mov    $0x0,%edx
    50cf:	48 f7 75 f0          	divq   -0x10(%rbp)
    50d3:	eb 04                	jmp    50d9 <safe_div_func_uint64_t_u_u+0x2a>
    50d5:	48 8b 45 f8          	mov    -0x8(%rbp),%rax
    50d9:	5d                   	pop    %rbp
    50da:	c3                   	retq   

00000000000050db <safe_lshift_func_uint64_t_u_s>:
    50db:	f3 0f 1e fa          	endbr64 
    50df:	55                   	push   %rbp
    50e0:	48 89 e5             	mov    %rsp,%rbp
    50e3:	48 89 7d f8          	mov    %rdi,-0x8(%rbp)
    50e7:	89 75 f4             	mov    %esi,-0xc(%rbp)
    50ea:	83 7d f4 00          	cmpl   $0x0,-0xc(%rbp)
    50ee:	78 2f                	js     511f <safe_lshift_func_uint64_t_u_s+0x44>
    50f0:	83 7d f4 1f          	cmpl   $0x1f,-0xc(%rbp)
    50f4:	7f 29                	jg     511f <safe_lshift_func_uint64_t_u_s+0x44>
    50f6:	8b 45 f4             	mov    -0xc(%rbp),%eax
    50f9:	48 c7 c2 ff ff ff ff 	mov    $0xffffffffffffffff,%rdx
    5100:	89 c1                	mov    %eax,%ecx
    5102:	48 d3 ea             	shr    %cl,%rdx
    5105:	48 89 d0             	mov    %rdx,%rax
    5108:	48 39 45 f8          	cmp    %rax,-0x8(%rbp)
    510c:	77 11                	ja     511f <safe_lshift_func_uint64_t_u_s+0x44>
    510e:	8b 45 f4             	mov    -0xc(%rbp),%eax
    5111:	48 8b 55 f8          	mov    -0x8(%rbp),%rdx
    5115:	89 c1                	mov    %eax,%ecx
    5117:	48 d3 e2             	shl    %cl,%rdx
    511a:	48 89 d0             	mov    %rdx,%rax
    511d:	eb 04                	jmp    5123 <safe_lshift_func_uint64_t_u_s+0x48>
    511f:	48 8b 45 f8          	mov    -0x8(%rbp),%rax
    5123:	5d                   	pop    %rbp
    5124:	c3                   	retq   

0000000000005125 <safe_lshift_func_uint64_t_u_u>:
    5125:	f3 0f 1e fa          	endbr64 
    5129:	55                   	push   %rbp
    512a:	48 89 e5             	mov    %rsp,%rbp
    512d:	48 89 7d f8          	mov    %rdi,-0x8(%rbp)
    5131:	89 75 f4             	mov    %esi,-0xc(%rbp)
    5134:	83 7d f4 1f          	cmpl   $0x1f,-0xc(%rbp)
    5138:	77 29                	ja     5163 <safe_lshift_func_uint64_t_u_u+0x3e>
    513a:	8b 45 f4             	mov    -0xc(%rbp),%eax
    513d:	48 c7 c2 ff ff ff ff 	mov    $0xffffffffffffffff,%rdx
    5144:	89 c1                	mov    %eax,%ecx
    5146:	48 d3 ea             	shr    %cl,%rdx
    5149:	48 89 d0             	mov    %rdx,%rax
    514c:	48 39 45 f8          	cmp    %rax,-0x8(%rbp)
    5150:	77 11                	ja     5163 <safe_lshift_func_uint64_t_u_u+0x3e>
    5152:	8b 45 f4             	mov    -0xc(%rbp),%eax
    5155:	48 8b 55 f8          	mov    -0x8(%rbp),%rdx
    5159:	89 c1                	mov    %eax,%ecx
    515b:	48 d3 e2             	shl    %cl,%rdx
    515e:	48 89 d0             	mov    %rdx,%rax
    5161:	eb 04                	jmp    5167 <safe_lshift_func_uint64_t_u_u+0x42>
    5163:	48 8b 45 f8          	mov    -0x8(%rbp),%rax
    5167:	5d                   	pop    %rbp
    5168:	c3                   	retq   

0000000000005169 <safe_rshift_func_uint64_t_u_s>:
    5169:	f3 0f 1e fa          	endbr64 
    516d:	55                   	push   %rbp
    516e:	48 89 e5             	mov    %rsp,%rbp
    5171:	48 89 7d f8          	mov    %rdi,-0x8(%rbp)
    5175:	89 75 f4             	mov    %esi,-0xc(%rbp)
    5178:	83 7d f4 00          	cmpl   $0x0,-0xc(%rbp)
    517c:	78 17                	js     5195 <safe_rshift_func_uint64_t_u_s+0x2c>
    517e:	83 7d f4 1f          	cmpl   $0x1f,-0xc(%rbp)
    5182:	7f 11                	jg     5195 <safe_rshift_func_uint64_t_u_s+0x2c>
    5184:	8b 45 f4             	mov    -0xc(%rbp),%eax
    5187:	48 8b 55 f8          	mov    -0x8(%rbp),%rdx
    518b:	89 c1                	mov    %eax,%ecx
    518d:	48 d3 ea             	shr    %cl,%rdx
    5190:	48 89 d0             	mov    %rdx,%rax
    5193:	eb 04                	jmp    5199 <safe_rshift_func_uint64_t_u_s+0x30>
    5195:	48 8b 45 f8          	mov    -0x8(%rbp),%rax
    5199:	5d                   	pop    %rbp
    519a:	c3                   	retq   

000000000000519b <safe_rshift_func_uint64_t_u_u>:
    519b:	f3 0f 1e fa          	endbr64 
    519f:	55                   	push   %rbp
    51a0:	48 89 e5             	mov    %rsp,%rbp
    51a3:	48 89 7d f8          	mov    %rdi,-0x8(%rbp)
    51a7:	89 75 f4             	mov    %esi,-0xc(%rbp)
    51aa:	83 7d f4 1f          	cmpl   $0x1f,-0xc(%rbp)
    51ae:	77 11                	ja     51c1 <safe_rshift_func_uint64_t_u_u+0x26>
    51b0:	8b 45 f4             	mov    -0xc(%rbp),%eax
    51b3:	48 8b 55 f8          	mov    -0x8(%rbp),%rdx
    51b7:	89 c1                	mov    %eax,%ecx
    51b9:	48 d3 ea             	shr    %cl,%rdx
    51bc:	48 89 d0             	mov    %rdx,%rax
    51bf:	eb 04                	jmp    51c5 <safe_rshift_func_uint64_t_u_u+0x2a>
    51c1:	48 8b 45 f8          	mov    -0x8(%rbp),%rax
    51c5:	5d                   	pop    %rbp
    51c6:	c3                   	retq   

00000000000051c7 <safe_add_func_float_f_f>:
    51c7:	f3 0f 1e fa          	endbr64 
    51cb:	55                   	push   %rbp
    51cc:	48 89 e5             	mov    %rsp,%rbp
    51cf:	f3 0f 11 45 fc       	movss  %xmm0,-0x4(%rbp)
    51d4:	f3 0f 11 4d f8       	movss  %xmm1,-0x8(%rbp)
    51d9:	f3 0f 10 4d fc       	movss  -0x4(%rbp),%xmm1
    51de:	f3 0f 10 05 86 7e 00 	movss  0x7e86(%rip),%xmm0        # d06c <_IO_stdin_used+0x106c>
    51e5:	00 
    51e6:	f3 0f 59 c8          	mulss  %xmm0,%xmm1
    51ea:	f3 0f 10 55 f8       	movss  -0x8(%rbp),%xmm2
    51ef:	f3 0f 10 05 75 7e 00 	movss  0x7e75(%rip),%xmm0        # d06c <_IO_stdin_used+0x106c>
    51f6:	00 
    51f7:	f3 0f 59 c2          	mulss  %xmm2,%xmm0
    51fb:	f3 0f 58 c1          	addss  %xmm1,%xmm0
    51ff:	f3 0f 10 0d 69 7e 00 	movss  0x7e69(%rip),%xmm1        # d070 <_IO_stdin_used+0x1070>
    5206:	00 
    5207:	0f 54 c1             	andps  %xmm1,%xmm0
    520a:	0f 2f 05 6f 7e 00 00 	comiss 0x7e6f(%rip),%xmm0        # d080 <_IO_stdin_used+0x1080>
    5211:	76 07                	jbe    521a <safe_add_func_float_f_f+0x53>
    5213:	f3 0f 10 45 fc       	movss  -0x4(%rbp),%xmm0
    5218:	eb 0a                	jmp    5224 <safe_add_func_float_f_f+0x5d>
    521a:	f3 0f 10 45 fc       	movss  -0x4(%rbp),%xmm0
    521f:	f3 0f 58 45 f8       	addss  -0x8(%rbp),%xmm0
    5224:	5d                   	pop    %rbp
    5225:	c3                   	retq   

0000000000005226 <safe_sub_func_float_f_f>:
    5226:	f3 0f 1e fa          	endbr64 
    522a:	55                   	push   %rbp
    522b:	48 89 e5             	mov    %rsp,%rbp
    522e:	f3 0f 11 45 fc       	movss  %xmm0,-0x4(%rbp)
    5233:	f3 0f 11 4d f8       	movss  %xmm1,-0x8(%rbp)
    5238:	f3 0f 10 4d fc       	movss  -0x4(%rbp),%xmm1
    523d:	f3 0f 10 05 27 7e 00 	movss  0x7e27(%rip),%xmm0        # d06c <_IO_stdin_used+0x106c>
    5244:	00 
    5245:	f3 0f 59 c1          	mulss  %xmm1,%xmm0
    5249:	f3 0f 10 55 f8       	movss  -0x8(%rbp),%xmm2
    524e:	f3 0f 10 0d 16 7e 00 	movss  0x7e16(%rip),%xmm1        # d06c <_IO_stdin_used+0x106c>
    5255:	00 
    5256:	f3 0f 59 ca          	mulss  %xmm2,%xmm1
    525a:	f3 0f 5c c1          	subss  %xmm1,%xmm0
    525e:	f3 0f 10 0d 0a 7e 00 	movss  0x7e0a(%rip),%xmm1        # d070 <_IO_stdin_used+0x1070>
    5265:	00 
    5266:	0f 54 c1             	andps  %xmm1,%xmm0
    5269:	0f 2f 05 10 7e 00 00 	comiss 0x7e10(%rip),%xmm0        # d080 <_IO_stdin_used+0x1080>
    5270:	76 07                	jbe    5279 <safe_sub_func_float_f_f+0x53>
    5272:	f3 0f 10 45 fc       	movss  -0x4(%rbp),%xmm0
    5277:	eb 0a                	jmp    5283 <safe_sub_func_float_f_f+0x5d>
    5279:	f3 0f 10 45 fc       	movss  -0x4(%rbp),%xmm0
    527e:	f3 0f 5c 45 f8       	subss  -0x8(%rbp),%xmm0
    5283:	5d                   	pop    %rbp
    5284:	c3                   	retq   

0000000000005285 <safe_mul_func_float_f_f>:
    5285:	f3 0f 1e fa          	endbr64 
    5289:	55                   	push   %rbp
    528a:	48 89 e5             	mov    %rsp,%rbp
    528d:	f3 0f 11 45 fc       	movss  %xmm0,-0x4(%rbp)
    5292:	f3 0f 11 4d f8       	movss  %xmm1,-0x8(%rbp)
    5297:	f3 0f 10 4d fc       	movss  -0x4(%rbp),%xmm1
    529c:	f3 0f 10 05 e0 7d 00 	movss  0x7de0(%rip),%xmm0        # d084 <_IO_stdin_used+0x1084>
    52a3:	00 
    52a4:	f3 0f 59 c8          	mulss  %xmm0,%xmm1
    52a8:	f3 0f 10 55 f8       	movss  -0x8(%rbp),%xmm2
    52ad:	f3 0f 10 05 d3 7d 00 	movss  0x7dd3(%rip),%xmm0        # d088 <_IO_stdin_used+0x1088>
    52b4:	00 
    52b5:	f3 0f 59 c2          	mulss  %xmm2,%xmm0
    52b9:	f3 0f 59 c1          	mulss  %xmm1,%xmm0
    52bd:	f3 0f 10 0d ab 7d 00 	movss  0x7dab(%rip),%xmm1        # d070 <_IO_stdin_used+0x1070>
    52c4:	00 
    52c5:	0f 54 c1             	andps  %xmm1,%xmm0
    52c8:	0f 2f 05 bd 7d 00 00 	comiss 0x7dbd(%rip),%xmm0        # d08c <_IO_stdin_used+0x108c>
    52cf:	76 07                	jbe    52d8 <safe_mul_func_float_f_f+0x53>
    52d1:	f3 0f 10 45 fc       	movss  -0x4(%rbp),%xmm0
    52d6:	eb 0a                	jmp    52e2 <safe_mul_func_float_f_f+0x5d>
    52d8:	f3 0f 10 45 fc       	movss  -0x4(%rbp),%xmm0
    52dd:	f3 0f 59 45 f8       	mulss  -0x8(%rbp),%xmm0
    52e2:	5d                   	pop    %rbp
    52e3:	c3                   	retq   

00000000000052e4 <safe_div_func_float_f_f>:
    52e4:	f3 0f 1e fa          	endbr64 
    52e8:	55                   	push   %rbp
    52e9:	48 89 e5             	mov    %rsp,%rbp
    52ec:	f3 0f 11 45 fc       	movss  %xmm0,-0x4(%rbp)
    52f1:	f3 0f 11 4d f8       	movss  %xmm1,-0x8(%rbp)
    52f6:	f3 0f 10 45 f8       	movss  -0x8(%rbp),%xmm0
    52fb:	f3 0f 10 0d 6d 7d 00 	movss  0x7d6d(%rip),%xmm1        # d070 <_IO_stdin_used+0x1070>
    5302:	00 
    5303:	0f 54 c8             	andps  %xmm0,%xmm1
    5306:	f3 0f 10 05 82 7d 00 	movss  0x7d82(%rip),%xmm0        # d090 <_IO_stdin_used+0x1090>
    530d:	00 
    530e:	0f 2f c1             	comiss %xmm1,%xmm0
    5311:	0f 97 c0             	seta   %al
    5314:	83 f0 01             	xor    $0x1,%eax
    5317:	84 c0                	test   %al,%al
    5319:	75 56                	jne    5371 <safe_div_func_float_f_f+0x8d>
    531b:	66 0f ef c0          	pxor   %xmm0,%xmm0
    531f:	0f 2e 45 f8          	ucomiss -0x8(%rbp),%xmm0
    5323:	7a 0a                	jp     532f <safe_div_func_float_f_f+0x4b>
    5325:	66 0f ef c0          	pxor   %xmm0,%xmm0
    5329:	0f 2e 45 f8          	ucomiss -0x8(%rbp),%xmm0
    532d:	74 4e                	je     537d <safe_div_func_float_f_f+0x99>
    532f:	f3 0f 10 4d fc       	movss  -0x4(%rbp),%xmm1
    5334:	f3 0f 10 05 58 7d 00 	movss  0x7d58(%rip),%xmm0        # d094 <_IO_stdin_used+0x1094>
    533b:	00 
    533c:	f3 0f 59 c1          	mulss  %xmm1,%xmm0
    5340:	f3 0f 10 55 f8       	movss  -0x8(%rbp),%xmm2
    5345:	f3 0f 10 0d 4b 7d 00 	movss  0x7d4b(%rip),%xmm1        # d098 <_IO_stdin_used+0x1098>
    534c:	00 
    534d:	f3 0f 59 ca          	mulss  %xmm2,%xmm1
    5351:	f3 0f 5e c1          	divss  %xmm1,%xmm0
    5355:	f3 0f 10 0d 13 7d 00 	movss  0x7d13(%rip),%xmm1        # d070 <_IO_stdin_used+0x1070>
    535c:	00 
    535d:	0f 54 c1             	andps  %xmm1,%xmm0
    5360:	0f 2f 05 35 7d 00 00 	comiss 0x7d35(%rip),%xmm0        # d09c <_IO_stdin_used+0x109c>
    5367:	0f 97 c0             	seta   %al
    536a:	83 f0 01             	xor    $0x1,%eax
    536d:	84 c0                	test   %al,%al
    536f:	74 0c                	je     537d <safe_div_func_float_f_f+0x99>
    5371:	f3 0f 10 45 fc       	movss  -0x4(%rbp),%xmm0
    5376:	f3 0f 5e 45 f8       	divss  -0x8(%rbp),%xmm0
    537b:	eb 05                	jmp    5382 <safe_div_func_float_f_f+0x9e>
    537d:	f3 0f 10 45 fc       	movss  -0x4(%rbp),%xmm0
    5382:	5d                   	pop    %rbp
    5383:	c3                   	retq   

0000000000005384 <safe_add_func_double_f_f>:
    5384:	f3 0f 1e fa          	endbr64 
    5388:	55                   	push   %rbp
    5389:	48 89 e5             	mov    %rsp,%rbp
    538c:	f2 0f 11 45 f8       	movsd  %xmm0,-0x8(%rbp)
    5391:	f2 0f 11 4d f0       	movsd  %xmm1,-0x10(%rbp)
    5396:	f2 0f 10 4d f8       	movsd  -0x8(%rbp),%xmm1
    539b:	f2 0f 10 05 fd 7c 00 	movsd  0x7cfd(%rip),%xmm0        # d0a0 <_IO_stdin_used+0x10a0>
    53a2:	00 
    53a3:	f2 0f 59 c8          	mulsd  %xmm0,%xmm1
    53a7:	f2 0f 10 55 f0       	movsd  -0x10(%rbp),%xmm2
    53ac:	f2 0f 10 05 ec 7c 00 	movsd  0x7cec(%rip),%xmm0        # d0a0 <_IO_stdin_used+0x10a0>
    53b3:	00 
    53b4:	f2 0f 59 c2          	mulsd  %xmm2,%xmm0
    53b8:	f2 0f 58 c1          	addsd  %xmm1,%xmm0
    53bc:	f3 0f 7e 0d ec 7c 00 	movq   0x7cec(%rip),%xmm1        # d0b0 <_IO_stdin_used+0x10b0>
    53c3:	00 
    53c4:	66 0f 54 c1          	andpd  %xmm1,%xmm0
    53c8:	66 0f 2f 05 f0 7c 00 	comisd 0x7cf0(%rip),%xmm0        # d0c0 <_IO_stdin_used+0x10c0>
    53cf:	00 
    53d0:	76 07                	jbe    53d9 <safe_add_func_double_f_f+0x55>
    53d2:	f2 0f 10 45 f8       	movsd  -0x8(%rbp),%xmm0
    53d7:	eb 0a                	jmp    53e3 <safe_add_func_double_f_f+0x5f>
    53d9:	f2 0f 10 45 f8       	movsd  -0x8(%rbp),%xmm0
    53de:	f2 0f 58 45 f0       	addsd  -0x10(%rbp),%xmm0
    53e3:	5d                   	pop    %rbp
    53e4:	c3                   	retq   

00000000000053e5 <safe_sub_func_double_f_f>:
    53e5:	f3 0f 1e fa          	endbr64 
    53e9:	55                   	push   %rbp
    53ea:	48 89 e5             	mov    %rsp,%rbp
    53ed:	f2 0f 11 45 f8       	movsd  %xmm0,-0x8(%rbp)
    53f2:	f2 0f 11 4d f0       	movsd  %xmm1,-0x10(%rbp)
    53f7:	f2 0f 10 4d f8       	movsd  -0x8(%rbp),%xmm1
    53fc:	f2 0f 10 05 9c 7c 00 	movsd  0x7c9c(%rip),%xmm0        # d0a0 <_IO_stdin_used+0x10a0>
    5403:	00 
    5404:	f2 0f 59 c1          	mulsd  %xmm1,%xmm0
    5408:	f2 0f 10 55 f0       	movsd  -0x10(%rbp),%xmm2
    540d:	f2 0f 10 0d 8b 7c 00 	movsd  0x7c8b(%rip),%xmm1        # d0a0 <_IO_stdin_used+0x10a0>
    5414:	00 
    5415:	f2 0f 59 ca          	mulsd  %xmm2,%xmm1
    5419:	f2 0f 5c c1          	subsd  %xmm1,%xmm0
    541d:	f3 0f 7e 0d 8b 7c 00 	movq   0x7c8b(%rip),%xmm1        # d0b0 <_IO_stdin_used+0x10b0>
    5424:	00 
    5425:	66 0f 54 c1          	andpd  %xmm1,%xmm0
    5429:	66 0f 2f 05 8f 7c 00 	comisd 0x7c8f(%rip),%xmm0        # d0c0 <_IO_stdin_used+0x10c0>
    5430:	00 
    5431:	76 07                	jbe    543a <safe_sub_func_double_f_f+0x55>
    5433:	f2 0f 10 45 f8       	movsd  -0x8(%rbp),%xmm0
    5438:	eb 0a                	jmp    5444 <safe_sub_func_double_f_f+0x5f>
    543a:	f2 0f 10 45 f8       	movsd  -0x8(%rbp),%xmm0
    543f:	f2 0f 5c 45 f0       	subsd  -0x10(%rbp),%xmm0
    5444:	5d                   	pop    %rbp
    5445:	c3                   	retq   

0000000000005446 <safe_mul_func_double_f_f>:
    5446:	f3 0f 1e fa          	endbr64 
    544a:	55                   	push   %rbp
    544b:	48 89 e5             	mov    %rsp,%rbp
    544e:	f2 0f 11 45 f8       	movsd  %xmm0,-0x8(%rbp)
    5453:	f2 0f 11 4d f0       	movsd  %xmm1,-0x10(%rbp)
    5458:	f2 0f 10 4d f8       	movsd  -0x8(%rbp),%xmm1
    545d:	f2 0f 10 05 63 7c 00 	movsd  0x7c63(%rip),%xmm0        # d0c8 <_IO_stdin_used+0x10c8>
    5464:	00 
    5465:	f2 0f 59 c8          	mulsd  %xmm0,%xmm1
    5469:	f2 0f 10 55 f0       	movsd  -0x10(%rbp),%xmm2
    546e:	f2 0f 10 05 5a 7c 00 	movsd  0x7c5a(%rip),%xmm0        # d0d0 <_IO_stdin_used+0x10d0>
    5475:	00 
    5476:	f2 0f 59 c2          	mulsd  %xmm2,%xmm0
    547a:	f2 0f 59 c1          	mulsd  %xmm1,%xmm0
    547e:	f3 0f 7e 0d 2a 7c 00 	movq   0x7c2a(%rip),%xmm1        # d0b0 <_IO_stdin_used+0x10b0>
    5485:	00 
    5486:	66 0f 54 c1          	andpd  %xmm1,%xmm0
    548a:	66 0f 2f 05 46 7c 00 	comisd 0x7c46(%rip),%xmm0        # d0d8 <_IO_stdin_used+0x10d8>
    5491:	00 
    5492:	76 07                	jbe    549b <safe_mul_func_double_f_f+0x55>
    5494:	f2 0f 10 45 f8       	movsd  -0x8(%rbp),%xmm0
    5499:	eb 0a                	jmp    54a5 <safe_mul_func_double_f_f+0x5f>
    549b:	f2 0f 10 45 f8       	movsd  -0x8(%rbp),%xmm0
    54a0:	f2 0f 59 45 f0       	mulsd  -0x10(%rbp),%xmm0
    54a5:	5d                   	pop    %rbp
    54a6:	c3                   	retq   

00000000000054a7 <safe_div_func_double_f_f>:
    54a7:	f3 0f 1e fa          	endbr64 
    54ab:	55                   	push   %rbp
    54ac:	48 89 e5             	mov    %rsp,%rbp
    54af:	f2 0f 11 45 f8       	movsd  %xmm0,-0x8(%rbp)
    54b4:	f2 0f 11 4d f0       	movsd  %xmm1,-0x10(%rbp)
    54b9:	f2 0f 10 45 f0       	movsd  -0x10(%rbp),%xmm0
    54be:	f3 0f 7e 0d ea 7b 00 	movq   0x7bea(%rip),%xmm1        # d0b0 <_IO_stdin_used+0x10b0>
    54c5:	00 
    54c6:	66 0f 54 c8          	andpd  %xmm0,%xmm1
    54ca:	f2 0f 10 05 0e 7c 00 	movsd  0x7c0e(%rip),%xmm0        # d0e0 <_IO_stdin_used+0x10e0>
    54d1:	00 
    54d2:	66 0f 2f c1          	comisd %xmm1,%xmm0
    54d6:	0f 97 c0             	seta   %al
    54d9:	83 f0 01             	xor    $0x1,%eax
    54dc:	84 c0                	test   %al,%al
    54de:	75 5a                	jne    553a <safe_div_func_double_f_f+0x93>
    54e0:	66 0f ef c0          	pxor   %xmm0,%xmm0
    54e4:	66 0f 2e 45 f0       	ucomisd -0x10(%rbp),%xmm0
    54e9:	7a 0b                	jp     54f6 <safe_div_func_double_f_f+0x4f>
    54eb:	66 0f ef c0          	pxor   %xmm0,%xmm0
    54ef:	66 0f 2e 45 f0       	ucomisd -0x10(%rbp),%xmm0
    54f4:	74 50                	je     5546 <safe_div_func_double_f_f+0x9f>
    54f6:	f2 0f 10 4d f8       	movsd  -0x8(%rbp),%xmm1
    54fb:	f2 0f 10 05 e5 7b 00 	movsd  0x7be5(%rip),%xmm0        # d0e8 <_IO_stdin_used+0x10e8>
    5502:	00 
    5503:	f2 0f 59 c1          	mulsd  %xmm1,%xmm0
    5507:	f2 0f 10 55 f0       	movsd  -0x10(%rbp),%xmm2
    550c:	f2 0f 10 0d dc 7b 00 	movsd  0x7bdc(%rip),%xmm1        # d0f0 <_IO_stdin_used+0x10f0>
    5513:	00 
    5514:	f2 0f 59 ca          	mulsd  %xmm2,%xmm1
    5518:	f2 0f 5e c1          	divsd  %xmm1,%xmm0
    551c:	f3 0f 7e 0d 8c 7b 00 	movq   0x7b8c(%rip),%xmm1        # d0b0 <_IO_stdin_used+0x10b0>
    5523:	00 
    5524:	66 0f 54 c1          	andpd  %xmm1,%xmm0
    5528:	66 0f 2f 05 c8 7b 00 	comisd 0x7bc8(%rip),%xmm0        # d0f8 <_IO_stdin_used+0x10f8>
    552f:	00 
    5530:	0f 97 c0             	seta   %al
    5533:	83 f0 01             	xor    $0x1,%eax
    5536:	84 c0                	test   %al,%al
    5538:	74 0c                	je     5546 <safe_div_func_double_f_f+0x9f>
    553a:	f2 0f 10 45 f8       	movsd  -0x8(%rbp),%xmm0
    553f:	f2 0f 5e 45 f0       	divsd  -0x10(%rbp),%xmm0
    5544:	eb 05                	jmp    554b <safe_div_func_double_f_f+0xa4>
    5546:	f2 0f 10 45 f8       	movsd  -0x8(%rbp),%xmm0
    554b:	5d                   	pop    %rbp
    554c:	c3                   	retq   

000000000000554d <safe_convert_func_float_to_int32_t>:
    554d:	f3 0f 1e fa          	endbr64 
    5551:	55                   	push   %rbp
    5552:	48 89 e5             	mov    %rsp,%rbp
    5555:	f3 0f 11 45 fc       	movss  %xmm0,-0x4(%rbp)
    555a:	f3 0f 10 05 9e 7b 00 	movss  0x7b9e(%rip),%xmm0        # d100 <_IO_stdin_used+0x1100>
    5561:	00 
    5562:	0f 2f 45 fc          	comiss -0x4(%rbp),%xmm0
    5566:	0f 93 c0             	setae  %al
    5569:	83 f0 01             	xor    $0x1,%eax
    556c:	84 c0                	test   %al,%al
    556e:	74 21                	je     5591 <safe_convert_func_float_to_int32_t+0x44>
    5570:	f3 0f 10 45 fc       	movss  -0x4(%rbp),%xmm0
    5575:	0f 2f 05 88 7b 00 00 	comiss 0x7b88(%rip),%xmm0        # d104 <_IO_stdin_used+0x1104>
    557c:	0f 93 c0             	setae  %al
    557f:	83 f0 01             	xor    $0x1,%eax
    5582:	84 c0                	test   %al,%al
    5584:	74 0b                	je     5591 <safe_convert_func_float_to_int32_t+0x44>
    5586:	f3 0f 10 45 fc       	movss  -0x4(%rbp),%xmm0
    558b:	f3 0f 2c c0          	cvttss2si %xmm0,%eax
    558f:	eb 05                	jmp    5596 <safe_convert_func_float_to_int32_t+0x49>
    5591:	b8 ff ff ff 7f       	mov    $0x7fffffff,%eax
    5596:	5d                   	pop    %rbp
    5597:	c3                   	retq   

0000000000005598 <crc32_gentab>:
    5598:	f3 0f 1e fa          	endbr64 
    559c:	55                   	push   %rbp
    559d:	48 89 e5             	mov    %rsp,%rbp
    55a0:	c7 45 fc 20 83 b8 ed 	movl   $0xedb88320,-0x4(%rbp)
    55a7:	c7 45 f4 00 00 00 00 	movl   $0x0,-0xc(%rbp)
    55ae:	eb 51                	jmp    5601 <crc32_gentab+0x69>
    55b0:	8b 45 f4             	mov    -0xc(%rbp),%eax
    55b3:	89 45 f0             	mov    %eax,-0x10(%rbp)
    55b6:	c7 45 f8 08 00 00 00 	movl   $0x8,-0x8(%rbp)
    55bd:	eb 1e                	jmp    55dd <crc32_gentab+0x45>
    55bf:	8b 45 f0             	mov    -0x10(%rbp),%eax
    55c2:	83 e0 01             	and    $0x1,%eax
    55c5:	85 c0                	test   %eax,%eax
    55c7:	74 0d                	je     55d6 <crc32_gentab+0x3e>
    55c9:	8b 45 f0             	mov    -0x10(%rbp),%eax
    55cc:	d1 e8                	shr    %eax
    55ce:	33 45 fc             	xor    -0x4(%rbp),%eax
    55d1:	89 45 f0             	mov    %eax,-0x10(%rbp)
    55d4:	eb 03                	jmp    55d9 <crc32_gentab+0x41>
    55d6:	d1 6d f0             	shrl   -0x10(%rbp)
    55d9:	83 6d f8 01          	subl   $0x1,-0x8(%rbp)
    55dd:	83 7d f8 00          	cmpl   $0x0,-0x8(%rbp)
    55e1:	7f dc                	jg     55bf <crc32_gentab+0x27>
    55e3:	8b 45 f4             	mov    -0xc(%rbp),%eax
    55e6:	48 98                	cltq   
    55e8:	48 8d 0c 85 00 00 00 	lea    0x0(,%rax,4),%rcx
    55ef:	00 
    55f0:	48 8d 15 49 d1 00 00 	lea    0xd149(%rip),%rdx        # 12740 <crc32_tab>
    55f7:	8b 45 f0             	mov    -0x10(%rbp),%eax
    55fa:	89 04 11             	mov    %eax,(%rcx,%rdx,1)
    55fd:	83 45 f4 01          	addl   $0x1,-0xc(%rbp)
    5601:	81 7d f4 ff 00 00 00 	cmpl   $0xff,-0xc(%rbp)
    5608:	7e a6                	jle    55b0 <crc32_gentab+0x18>
    560a:	90                   	nop
    560b:	90                   	nop
    560c:	5d                   	pop    %rbp
    560d:	c3                   	retq   

000000000000560e <crc32_byte>:
    560e:	f3 0f 1e fa          	endbr64 
    5612:	55                   	push   %rbp
    5613:	48 89 e5             	mov    %rsp,%rbp
    5616:	89 f8                	mov    %edi,%eax
    5618:	88 45 fc             	mov    %al,-0x4(%rbp)
    561b:	8b 05 ff a9 00 00    	mov    0xa9ff(%rip),%eax        # 10020 <crc32_context>
    5621:	c1 e8 08             	shr    $0x8,%eax
    5624:	89 c1                	mov    %eax,%ecx
    5626:	0f b6 55 fc          	movzbl -0x4(%rbp),%edx
    562a:	8b 05 f0 a9 00 00    	mov    0xa9f0(%rip),%eax        # 10020 <crc32_context>
    5630:	31 d0                	xor    %edx,%eax
    5632:	0f b6 c0             	movzbl %al,%eax
    5635:	89 c0                	mov    %eax,%eax
    5637:	48 8d 14 85 00 00 00 	lea    0x0(,%rax,4),%rdx
    563e:	00 
    563f:	48 8d 05 fa d0 00 00 	lea    0xd0fa(%rip),%rax        # 12740 <crc32_tab>
    5646:	8b 04 02             	mov    (%rdx,%rax,1),%eax
    5649:	31 c8                	xor    %ecx,%eax
    564b:	89 05 cf a9 00 00    	mov    %eax,0xa9cf(%rip)        # 10020 <crc32_context>
    5651:	90                   	nop
    5652:	5d                   	pop    %rbp
    5653:	c3                   	retq   

0000000000005654 <crc32_8bytes>:
    5654:	f3 0f 1e fa          	endbr64 
    5658:	55                   	push   %rbp
    5659:	48 89 e5             	mov    %rsp,%rbp
    565c:	48 83 ec 08          	sub    $0x8,%rsp
    5660:	48 89 7d f8          	mov    %rdi,-0x8(%rbp)
    5664:	48 8b 45 f8          	mov    -0x8(%rbp),%rax
    5668:	0f b6 c0             	movzbl %al,%eax
    566b:	89 c7                	mov    %eax,%edi
    566d:	e8 9c ff ff ff       	callq  560e <crc32_byte>
    5672:	48 8b 45 f8          	mov    -0x8(%rbp),%rax
    5676:	48 c1 e8 08          	shr    $0x8,%rax
    567a:	0f b6 c0             	movzbl %al,%eax
    567d:	89 c7                	mov    %eax,%edi
    567f:	e8 8a ff ff ff       	callq  560e <crc32_byte>
    5684:	48 8b 45 f8          	mov    -0x8(%rbp),%rax
    5688:	48 c1 e8 10          	shr    $0x10,%rax
    568c:	0f b6 c0             	movzbl %al,%eax
    568f:	89 c7                	mov    %eax,%edi
    5691:	e8 78 ff ff ff       	callq  560e <crc32_byte>
    5696:	48 8b 45 f8          	mov    -0x8(%rbp),%rax
    569a:	48 c1 e8 18          	shr    $0x18,%rax
    569e:	0f b6 c0             	movzbl %al,%eax
    56a1:	89 c7                	mov    %eax,%edi
    56a3:	e8 66 ff ff ff       	callq  560e <crc32_byte>
    56a8:	48 8b 45 f8          	mov    -0x8(%rbp),%rax
    56ac:	48 c1 e8 20          	shr    $0x20,%rax
    56b0:	0f b6 c0             	movzbl %al,%eax
    56b3:	89 c7                	mov    %eax,%edi
    56b5:	e8 54 ff ff ff       	callq  560e <crc32_byte>
    56ba:	48 8b 45 f8          	mov    -0x8(%rbp),%rax
    56be:	48 c1 e8 28          	shr    $0x28,%rax
    56c2:	0f b6 c0             	movzbl %al,%eax
    56c5:	89 c7                	mov    %eax,%edi
    56c7:	e8 42 ff ff ff       	callq  560e <crc32_byte>
    56cc:	48 8b 45 f8          	mov    -0x8(%rbp),%rax
    56d0:	48 c1 e8 30          	shr    $0x30,%rax
    56d4:	0f b6 c0             	movzbl %al,%eax
    56d7:	89 c7                	mov    %eax,%edi
    56d9:	e8 30 ff ff ff       	callq  560e <crc32_byte>
    56de:	48 8b 45 f8          	mov    -0x8(%rbp),%rax
    56e2:	48 c1 e8 38          	shr    $0x38,%rax
    56e6:	0f b6 c0             	movzbl %al,%eax
    56e9:	89 c7                	mov    %eax,%edi
    56eb:	e8 1e ff ff ff       	callq  560e <crc32_byte>
    56f0:	90                   	nop
    56f1:	c9                   	leaveq 
    56f2:	c3                   	retq   

00000000000056f3 <transparent_crc>:
    56f3:	f3 0f 1e fa          	endbr64 
    56f7:	55                   	push   %rbp
    56f8:	48 89 e5             	mov    %rsp,%rbp
    56fb:	48 83 ec 20          	sub    $0x20,%rsp
    56ff:	48 89 7d f8          	mov    %rdi,-0x8(%rbp)
    5703:	48 89 75 f0          	mov    %rsi,-0x10(%rbp)
    5707:	89 55 ec             	mov    %edx,-0x14(%rbp)
    570a:	48 8b 45 f8          	mov    -0x8(%rbp),%rax
    570e:	48 89 c7             	mov    %rax,%rdi
    5711:	e8 3e ff ff ff       	callq  5654 <crc32_8bytes>
    5716:	83 7d ec 00          	cmpl   $0x0,-0x14(%rbp)
    571a:	74 22                	je     573e <transparent_crc+0x4b>
    571c:	8b 05 fe a8 00 00    	mov    0xa8fe(%rip),%eax        # 10020 <crc32_context>
    5722:	f7 d0                	not    %eax
    5724:	89 c2                	mov    %eax,%edx
    5726:	48 8b 45 f0          	mov    -0x10(%rbp),%rax
    572a:	48 89 c6             	mov    %rax,%rsi
    572d:	48 8d 3d fc 68 00 00 	lea    0x68fc(%rip),%rdi        # c030 <_IO_stdin_used+0x30>
    5734:	b8 00 00 00 00       	mov    $0x0,%eax
    5739:	e8 42 e9 ff ff       	callq  4080 <printf@plt>
    573e:	90                   	nop
    573f:	c9                   	leaveq 
    5740:	c3                   	retq   

0000000000005741 <transparent_crc_bytes>:
    5741:	f3 0f 1e fa          	endbr64 
    5745:	55                   	push   %rbp
    5746:	48 89 e5             	mov    %rsp,%rbp
    5749:	48 83 ec 30          	sub    $0x30,%rsp
    574d:	48 89 7d e8          	mov    %rdi,-0x18(%rbp)
    5751:	89 75 e4             	mov    %esi,-0x1c(%rbp)
    5754:	48 89 55 d8          	mov    %rdx,-0x28(%rbp)
    5758:	89 4d e0             	mov    %ecx,-0x20(%rbp)
    575b:	c7 45 fc 00 00 00 00 	movl   $0x0,-0x4(%rbp)
    5762:	eb 1e                	jmp    5782 <transparent_crc_bytes+0x41>
    5764:	8b 45 fc             	mov    -0x4(%rbp),%eax
    5767:	48 63 d0             	movslq %eax,%rdx
    576a:	48 8b 45 e8          	mov    -0x18(%rbp),%rax
    576e:	48 01 d0             	add    %rdx,%rax
    5771:	0f b6 00             	movzbl (%rax),%eax
    5774:	0f b6 c0             	movzbl %al,%eax
    5777:	89 c7                	mov    %eax,%edi
    5779:	e8 90 fe ff ff       	callq  560e <crc32_byte>
    577e:	83 45 fc 01          	addl   $0x1,-0x4(%rbp)
    5782:	8b 45 fc             	mov    -0x4(%rbp),%eax
    5785:	3b 45 e4             	cmp    -0x1c(%rbp),%eax
    5788:	7c da                	jl     5764 <transparent_crc_bytes+0x23>
    578a:	83 7d e0 00          	cmpl   $0x0,-0x20(%rbp)
    578e:	74 22                	je     57b2 <transparent_crc_bytes+0x71>
    5790:	8b 05 8a a8 00 00    	mov    0xa88a(%rip),%eax        # 10020 <crc32_context>
    5796:	f7 d0                	not    %eax
    5798:	89 c2                	mov    %eax,%edx
    579a:	48 8b 45 d8          	mov    -0x28(%rbp),%rax
    579e:	48 89 c6             	mov    %rax,%rsi
    57a1:	48 8d 3d 88 68 00 00 	lea    0x6888(%rip),%rdi        # c030 <_IO_stdin_used+0x30>
    57a8:	b8 00 00 00 00       	mov    $0x0,%eax
    57ad:	e8 ce e8 ff ff       	callq  4080 <printf@plt>
    57b2:	90                   	nop
    57b3:	c9                   	leaveq 
    57b4:	c3                   	retq   

00000000000057b5 <func_1>:
    57b5:	f3 0f 1e fa          	endbr64 
    57b9:	55                   	push   %rbp
    57ba:	48 89 e5             	mov    %rsp,%rbp
    57bd:	41 57                	push   %r15
    57bf:	41 56                	push   %r14
    57c1:	41 55                	push   %r13
    57c3:	41 54                	push   %r12
    57c5:	53                   	push   %rbx
    57c6:	48 81 ec 98 02 00 00 	sub    $0x298,%rsp
    57cd:	64 48 8b 04 25 28 00 	mov    %fs:0x28,%rax
    57d4:	00 00 
    57d6:	48 89 45 c8          	mov    %rax,-0x38(%rbp)
    57da:	31 c0                	xor    %eax,%eax
    57dc:	66 c7 85 62 fd ff ff 	movw   $0x218e,-0x29e(%rbp)
    57e3:	8e 21 
    57e5:	48 8d 85 62 fd ff ff 	lea    -0x29e(%rbp),%rax
    57ec:	48 89 85 60 fe ff ff 	mov    %rax,-0x1a0(%rbp)
    57f3:	48 8d 85 62 fd ff ff 	lea    -0x29e(%rbp),%rax
    57fa:	48 89 85 68 fe ff ff 	mov    %rax,-0x198(%rbp)
    5801:	48 c7 85 70 fe ff ff 	movq   $0x0,-0x190(%rbp)
    5808:	00 00 00 00 
    580c:	48 c7 85 78 fe ff ff 	movq   $0x0,-0x188(%rbp)
    5813:	00 00 00 00 
    5817:	48 c7 85 80 fe ff ff 	movq   $0x0,-0x180(%rbp)
    581e:	00 00 00 00 
    5822:	48 c7 85 88 fe ff ff 	movq   $0x0,-0x178(%rbp)
    5829:	00 00 00 00 
    582d:	48 c7 85 90 fe ff ff 	movq   $0x0,-0x170(%rbp)
    5834:	00 00 00 00 
    5838:	48 8d 85 62 fd ff ff 	lea    -0x29e(%rbp),%rax
    583f:	48 89 85 98 fe ff ff 	mov    %rax,-0x168(%rbp)
    5846:	48 c7 85 a0 fe ff ff 	movq   $0x0,-0x160(%rbp)
    584d:	00 00 00 00 
    5851:	48 8d 85 62 fd ff ff 	lea    -0x29e(%rbp),%rax
    5858:	48 89 85 a8 fe ff ff 	mov    %rax,-0x158(%rbp)
    585f:	48 c7 85 b0 fe ff ff 	movq   $0x0,-0x150(%rbp)
    5866:	00 00 00 00 
    586a:	48 8d 85 62 fd ff ff 	lea    -0x29e(%rbp),%rax
    5871:	48 89 85 b8 fe ff ff 	mov    %rax,-0x148(%rbp)
    5878:	48 8d 85 62 fd ff ff 	lea    -0x29e(%rbp),%rax
    587f:	48 89 85 c0 fe ff ff 	mov    %rax,-0x140(%rbp)
    5886:	48 8d 85 62 fd ff ff 	lea    -0x29e(%rbp),%rax
    588d:	48 89 85 c8 fe ff ff 	mov    %rax,-0x138(%rbp)
    5894:	48 8d 85 62 fd ff ff 	lea    -0x29e(%rbp),%rax
    589b:	48 89 85 d0 fe ff ff 	mov    %rax,-0x130(%rbp)
    58a2:	48 c7 85 d8 fe ff ff 	movq   $0x0,-0x128(%rbp)
    58a9:	00 00 00 00 
    58ad:	48 8d 85 62 fd ff ff 	lea    -0x29e(%rbp),%rax
    58b4:	48 89 85 e0 fe ff ff 	mov    %rax,-0x120(%rbp)
    58bb:	48 c7 85 e8 fe ff ff 	movq   $0x0,-0x118(%rbp)
    58c2:	00 00 00 00 
    58c6:	48 8d 85 62 fd ff ff 	lea    -0x29e(%rbp),%rax
    58cd:	48 89 85 f0 fe ff ff 	mov    %rax,-0x110(%rbp)
    58d4:	48 c7 85 f8 fe ff ff 	movq   $0x0,-0x108(%rbp)
    58db:	00 00 00 00 
    58df:	48 c7 85 00 ff ff ff 	movq   $0x0,-0x100(%rbp)
    58e6:	00 00 00 00 
    58ea:	48 8d 85 62 fd ff ff 	lea    -0x29e(%rbp),%rax
    58f1:	48 89 85 08 ff ff ff 	mov    %rax,-0xf8(%rbp)
    58f8:	48 8d 85 62 fd ff ff 	lea    -0x29e(%rbp),%rax
    58ff:	48 89 85 10 ff ff ff 	mov    %rax,-0xf0(%rbp)
    5906:	48 c7 85 18 ff ff ff 	movq   $0x0,-0xe8(%rbp)
    590d:	00 00 00 00 
    5911:	48 c7 85 20 ff ff ff 	movq   $0x0,-0xe0(%rbp)
    5918:	00 00 00 00 
    591c:	48 c7 85 28 ff ff ff 	movq   $0x0,-0xd8(%rbp)
    5923:	00 00 00 00 
    5927:	48 c7 85 30 ff ff ff 	movq   $0x0,-0xd0(%rbp)
    592e:	00 00 00 00 
    5932:	48 8d 85 62 fd ff ff 	lea    -0x29e(%rbp),%rax
    5939:	48 89 85 38 ff ff ff 	mov    %rax,-0xc8(%rbp)
    5940:	48 8d 85 62 fd ff ff 	lea    -0x29e(%rbp),%rax
    5947:	48 89 85 40 ff ff ff 	mov    %rax,-0xc0(%rbp)
    594e:	48 8d 85 62 fd ff ff 	lea    -0x29e(%rbp),%rax
    5955:	48 89 85 48 ff ff ff 	mov    %rax,-0xb8(%rbp)
    595c:	48 c7 85 50 ff ff ff 	movq   $0x0,-0xb0(%rbp)
    5963:	00 00 00 00 
    5967:	48 8d 85 62 fd ff ff 	lea    -0x29e(%rbp),%rax
    596e:	48 89 85 58 ff ff ff 	mov    %rax,-0xa8(%rbp)
    5975:	48 c7 85 60 ff ff ff 	movq   $0x0,-0xa0(%rbp)
    597c:	00 00 00 00 
    5980:	48 8d 85 62 fd ff ff 	lea    -0x29e(%rbp),%rax
    5987:	48 89 85 68 ff ff ff 	mov    %rax,-0x98(%rbp)
    598e:	48 c7 85 70 ff ff ff 	movq   $0x0,-0x90(%rbp)
    5995:	00 00 00 00 
    5999:	48 c7 85 78 ff ff ff 	movq   $0x0,-0x88(%rbp)
    59a0:	00 00 00 00 
    59a4:	48 8d 85 62 fd ff ff 	lea    -0x29e(%rbp),%rax
    59ab:	48 89 45 80          	mov    %rax,-0x80(%rbp)
    59af:	48 c7 45 88 00 00 00 	movq   $0x0,-0x78(%rbp)
    59b6:	00 
    59b7:	48 8d 85 62 fd ff ff 	lea    -0x29e(%rbp),%rax
    59be:	48 89 45 90          	mov    %rax,-0x70(%rbp)
    59c2:	48 c7 45 98 00 00 00 	movq   $0x0,-0x68(%rbp)
    59c9:	00 
    59ca:	48 c7 45 a0 00 00 00 	movq   $0x0,-0x60(%rbp)
    59d1:	00 
    59d2:	48 8d 85 62 fd ff ff 	lea    -0x29e(%rbp),%rax
    59d9:	48 89 45 a8          	mov    %rax,-0x58(%rbp)
    59dd:	48 8d 85 62 fd ff ff 	lea    -0x29e(%rbp),%rax
    59e4:	48 89 45 b0          	mov    %rax,-0x50(%rbp)
    59e8:	48 8d 85 62 fd ff ff 	lea    -0x29e(%rbp),%rax
    59ef:	48 89 45 b8          	mov    %rax,-0x48(%rbp)
    59f3:	48 8d 85 62 fd ff ff 	lea    -0x29e(%rbp),%rax
    59fa:	48 89 45 c0          	mov    %rax,-0x40(%rbp)
    59fe:	c7 85 6c fd ff ff fc 	movl   $0xfffffffc,-0x294(%rbp)
    5a05:	ff ff ff 
    5a08:	48 8d 85 60 fe ff ff 	lea    -0x1a0(%rbp),%rax
    5a0f:	48 05 b0 00 00 00    	add    $0xb0,%rax
    5a15:	48 89 85 90 fd ff ff 	mov    %rax,-0x270(%rbp)
    5a1c:	48 8d 85 60 fe ff ff 	lea    -0x1a0(%rbp),%rax
    5a23:	48 05 d0 00 00 00    	add    $0xd0,%rax
    5a29:	48 89 85 98 fd ff ff 	mov    %rax,-0x268(%rbp)
    5a30:	48 8d 85 60 fe ff ff 	lea    -0x1a0(%rbp),%rax
    5a37:	48 05 b0 00 00 00    	add    $0xb0,%rax
    5a3d:	48 89 85 a0 fd ff ff 	mov    %rax,-0x260(%rbp)
    5a44:	48 8d 85 60 fe ff ff 	lea    -0x1a0(%rbp),%rax
    5a4b:	48 05 b0 00 00 00    	add    $0xb0,%rax
    5a51:	48 89 85 a8 fd ff ff 	mov    %rax,-0x258(%rbp)
    5a58:	48 8d 85 60 fe ff ff 	lea    -0x1a0(%rbp),%rax
    5a5f:	48 05 d0 00 00 00    	add    $0xd0,%rax
    5a65:	48 89 85 b0 fd ff ff 	mov    %rax,-0x250(%rbp)
    5a6c:	48 8d 85 60 fe ff ff 	lea    -0x1a0(%rbp),%rax
    5a73:	48 05 b0 00 00 00    	add    $0xb0,%rax
    5a79:	48 89 85 b8 fd ff ff 	mov    %rax,-0x248(%rbp)
    5a80:	48 c7 85 78 fd ff ff 	movq   $0x0,-0x288(%rbp)
    5a87:	00 00 00 00 
    5a8b:	48 8d 05 8e a7 00 00 	lea    0xa78e(%rip),%rax        # 10220 <g_46>
    5a92:	48 89 85 c0 fd ff ff 	mov    %rax,-0x240(%rbp)
    5a99:	48 c7 85 c8 fd ff ff 	movq   $0x0,-0x238(%rbp)
    5aa0:	00 00 00 00 
    5aa4:	48 8d 05 75 a7 00 00 	lea    0xa775(%rip),%rax        # 10220 <g_46>
    5aab:	48 89 85 d0 fd ff ff 	mov    %rax,-0x230(%rbp)
    5ab2:	48 8d 05 67 a7 00 00 	lea    0xa767(%rip),%rax        # 10220 <g_46>
    5ab9:	48 89 85 d8 fd ff ff 	mov    %rax,-0x228(%rbp)
    5ac0:	48 c7 85 e0 fd ff ff 	movq   $0x0,-0x220(%rbp)
    5ac7:	00 00 00 00 
    5acb:	48 8d 05 4e a7 00 00 	lea    0xa74e(%rip),%rax        # 10220 <g_46>
    5ad2:	48 89 85 e8 fd ff ff 	mov    %rax,-0x218(%rbp)
    5ad9:	c7 85 70 fd ff ff 08 	movl   $0x8,-0x290(%rbp)
    5ae0:	00 00 00 
    5ae3:	c7 85 74 fd ff ff 0a 	movl   $0x494fe50a,-0x28c(%rbp)
    5aea:	e5 4f 49 
    5aed:	c7 85 64 fd ff ff 00 	movl   $0x0,-0x29c(%rbp)
    5af4:	00 00 00 
    5af7:	eb 4c                	jmp    5b45 <func_1+0x390>
    5af9:	c7 85 68 fd ff ff 00 	movl   $0x0,-0x298(%rbp)
    5b00:	00 00 00 
    5b03:	eb 30                	jmp    5b35 <func_1+0x380>
    5b05:	8b 85 68 fd ff ff    	mov    -0x298(%rbp),%eax
    5b0b:	48 63 c8             	movslq %eax,%rcx
    5b0e:	8b 85 64 fd ff ff    	mov    -0x29c(%rbp),%eax
    5b14:	48 63 d0             	movslq %eax,%rdx
    5b17:	48 89 d0             	mov    %rdx,%rax
    5b1a:	48 01 c0             	add    %rax,%rax
    5b1d:	48 01 d0             	add    %rdx,%rax
    5b20:	48 01 c8             	add    %rcx,%rax
    5b23:	c7 84 85 f0 fd ff ff 	movl   $0xb9763919,-0x210(%rbp,%rax,4)
    5b2a:	19 39 76 b9 
    5b2e:	83 85 68 fd ff ff 01 	addl   $0x1,-0x298(%rbp)
    5b35:	83 bd 68 fd ff ff 02 	cmpl   $0x2,-0x298(%rbp)
    5b3c:	7e c7                	jle    5b05 <func_1+0x350>
    5b3e:	83 85 64 fd ff ff 01 	addl   $0x1,-0x29c(%rbp)
    5b45:	83 bd 64 fd ff ff 08 	cmpl   $0x8,-0x29c(%rbp)
    5b4c:	7e ab                	jle    5af9 <func_1+0x344>
    5b4e:	48 8b 05 d3 a4 00 00 	mov    0xa4d3(%rip),%rax        # 10028 <g_24>
    5b55:	48 89 85 58 fd ff ff 	mov    %rax,-0x2a8(%rbp)
    5b5c:	0f b7 85 62 fd ff ff 	movzwl -0x29e(%rbp),%eax
    5b63:	0f be d8             	movsbl %al,%ebx
    5b66:	89 9d 54 fd ff ff    	mov    %ebx,-0x2ac(%rbp)
    5b6c:	8b 1d d2 a8 00 00    	mov    0xa8d2(%rip),%ebx        # 10444 <g_76+0x1e4>
    5b72:	0f b7 85 62 fd ff ff 	movzwl -0x29e(%rbp),%eax
    5b79:	44 0f bf e0          	movswl %ax,%r12d
    5b7d:	0f b7 85 62 fd ff ff 	movzwl -0x29e(%rbp),%eax
    5b84:	44 0f b6 e8          	movzbl %al,%r13d
    5b88:	48 8b 05 99 a4 00 00 	mov    0xa499(%rip),%rax        # 10028 <g_24>
    5b8f:	89 c2                	mov    %eax,%edx
    5b91:	8b 85 6c fd ff ff    	mov    -0x294(%rbp),%eax
    5b97:	21 d0                	and    %edx,%eax
    5b99:	89 85 6c fd ff ff    	mov    %eax,-0x294(%rbp)
    5b9f:	8b 85 6c fd ff ff    	mov    -0x294(%rbp),%eax
    5ba5:	98                   	cwtl   
    5ba6:	be 03 00 00 00       	mov    $0x3,%esi
    5bab:	89 c7                	mov    %eax,%edi
    5bad:	e8 78 e9 ff ff       	callq  452a <safe_rshift_func_int16_t_s_s>
    5bb2:	0f bf d0             	movswl %ax,%edx
    5bb5:	48 8b 0d 3c c3 00 00 	mov    0xc33c(%rip),%rcx        # 11ef8 <g_27+0x5d8>
    5bbc:	48 8d 85 62 fd ff ff 	lea    -0x29e(%rbp),%rax
    5bc3:	48 89 05 7e cf 00 00 	mov    %rax,0xcf7e(%rip)        # 12b48 <g_30>
    5bca:	48 8b 05 77 cf 00 00 	mov    0xcf77(%rip),%rax        # 12b48 <g_30>
    5bd1:	48 89 05 c8 c4 00 00 	mov    %rax,0xc4c8(%rip)        # 120a0 <g_31>
    5bd8:	48 8b 05 c1 c4 00 00 	mov    0xc4c1(%rip),%rax        # 120a0 <g_31>
    5bdf:	48 39 c1             	cmp    %rax,%rcx
    5be2:	0f 95 c0             	setne  %al
    5be5:	0f b6 c0             	movzbl %al,%eax
    5be8:	39 c2                	cmp    %eax,%edx
    5bea:	0f 9f c0             	setg   %al
    5bed:	88 85 53 fd ff ff    	mov    %al,-0x2ad(%rbp)
    5bf3:	0f b7 05 98 a4 00 00 	movzwl 0xa498(%rip),%eax        # 10092 <g_32+0x52>
    5bfa:	44 0f b7 f0          	movzwl %ax,%r14d
    5bfe:	0f b7 85 62 fd ff ff 	movzwl -0x29e(%rbp),%eax
    5c05:	44 0f be f8          	movsbl %al,%r15d
    5c09:	8b 05 1d a6 00 00    	mov    0xa61d(%rip),%eax        # 1022c <g_48>
    5c0f:	89 85 4c fd ff ff    	mov    %eax,-0x2b4(%rbp)
    5c15:	0f b7 85 62 fd ff ff 	movzwl -0x29e(%rbp),%eax
    5c1c:	0f bf c8             	movswl %ax,%ecx
    5c1f:	0f b7 05 da a4 00 00 	movzwl 0xa4da(%rip),%eax        # 10100 <g_32+0xc0>
    5c26:	98                   	cwtl   
    5c27:	48 8b 35 f2 a5 00 00 	mov    0xa5f2(%rip),%rsi        # 10220 <g_46>
    5c2e:	0f b7 15 f3 a5 00 00 	movzwl 0xa5f3(%rip),%edx        # 10228 <g_46+0x8>
    5c35:	89 c7                	mov    %eax,%edi
    5c37:	e8 7f 2a 00 00       	callq  86bb <func_42>
    5c3c:	48 89 05 dd a5 00 00 	mov    %rax,0xa5dd(%rip)        # 10220 <g_46>
    5c43:	0f b7 05 de a5 00 00 	movzwl 0xa5de(%rip),%eax        # 10228 <g_46+0x8>
    5c4a:	83 e0 00             	and    $0x0,%eax
    5c4d:	09 d0                	or     %edx,%eax
    5c4f:	66 89 05 d2 a5 00 00 	mov    %ax,0xa5d2(%rip)        # 10228 <g_46+0x8>
    5c56:	0f b7 85 62 fd ff ff 	movzwl -0x29e(%rbp),%eax
    5c5d:	0f bf d0             	movswl %ax,%edx
    5c60:	0f b7 85 62 fd ff ff 	movzwl -0x29e(%rbp),%eax
    5c67:	66 83 f8 01          	cmp    $0x1,%ax
    5c6b:	0f 9e c0             	setle  %al
    5c6e:	0f b6 c0             	movzbl %al,%eax
    5c71:	39 c2                	cmp    %eax,%edx
    5c73:	0f 95 c0             	setne  %al
    5c76:	0f b6 c0             	movzbl %al,%eax
    5c79:	8b b5 4c fd ff ff    	mov    -0x2b4(%rbp),%esi
    5c7f:	89 c7                	mov    %eax,%edi
    5c81:	e8 5b e8 ff ff       	callq  44e1 <safe_lshift_func_int16_t_s_u>
    5c86:	0f be c0             	movsbl %al,%eax
    5c89:	44 89 fe             	mov    %r15d,%esi
    5c8c:	89 c7                	mov    %eax,%edi
    5c8e:	e8 9e e5 ff ff       	callq  4231 <safe_mod_func_int8_t_s_s>
    5c93:	0f be c0             	movsbl %al,%eax
    5c96:	89 c6                	mov    %eax,%esi
    5c98:	bf 3a 40 36 05       	mov    $0x536403a,%edi
    5c9d:	e8 5d ea ff ff       	callq  46ff <safe_div_func_int32_t_s_s>
    5ca2:	0f b7 c0             	movzwl %ax,%eax
    5ca5:	44 89 f6             	mov    %r14d,%esi
    5ca8:	89 c7                	mov    %eax,%edi
    5caa:	e8 df f0 ff ff       	callq  4d8e <safe_div_func_uint16_t_u_u>
    5caf:	0f b7 d0             	movzwl %ax,%edx
    5cb2:	0f b7 05 f1 a3 00 00 	movzwl 0xa3f1(%rip),%eax        # 100aa <g_32+0x6a>
    5cb9:	98                   	cwtl   
    5cba:	39 c2                	cmp    %eax,%edx
    5cbc:	0f 9f c0             	setg   %al
    5cbf:	f7 d0                	not    %eax
    5cc1:	0a 85 53 fd ff ff    	or     -0x2ad(%rbp),%al
    5cc7:	0f b6 c0             	movzbl %al,%eax
    5cca:	44 89 ee             	mov    %r13d,%esi
    5ccd:	89 c7                	mov    %eax,%edi
    5ccf:	e8 da ee ff ff       	callq  4bae <safe_mod_func_uint8_t_u_u>
    5cd4:	0f b6 c0             	movzbl %al,%eax
    5cd7:	be 01 00 00 00       	mov    $0x1,%esi
    5cdc:	89 c7                	mov    %eax,%edi
    5cde:	e8 3c f0 ff ff       	callq  4d1f <safe_sub_func_uint16_t_u_u>
    5ce3:	0f b7 c0             	movzwl %ax,%eax
    5ce6:	48 89 c7             	mov    %rax,%rdi
    5ce9:	e8 ad 29 00 00       	callq  869b <func_16>
    5cee:	8b bd 6c fd ff ff    	mov    -0x294(%rbp),%edi
    5cf4:	48 8b 05 3d a5 00 00 	mov    0xa53d(%rip),%rax        # 10238 <g_70>
    5cfb:	0f b7 0d 3e a5 00 00 	movzwl 0xa53e(%rip),%ecx        # 10240 <g_70+0x8>
    5d02:	48 89 ca             	mov    %rcx,%rdx
    5d05:	48 89 d1             	mov    %rdx,%rcx
    5d08:	48 89 c2             	mov    %rax,%rdx
    5d0b:	44 89 e6             	mov    %r12d,%esi
    5d0e:	e8 84 28 00 00       	callq  8597 <func_12>
    5d13:	0f b6 c0             	movzbl %al,%eax
    5d16:	89 de                	mov    %ebx,%esi
    5d18:	89 c7                	mov    %eax,%edi
    5d1a:	e8 ce 1e 00 00       	callq  7bed <func_9>
    5d1f:	48 89 85 86 fd ff ff 	mov    %rax,-0x27a(%rbp)
    5d26:	0f b7 85 8e fd ff ff 	movzwl -0x272(%rbp),%eax
    5d2d:	83 e0 00             	and    $0x0,%eax
    5d30:	09 d0                	or     %edx,%eax
    5d32:	66 89 85 8e fd ff ff 	mov    %ax,-0x272(%rbp)
    5d39:	0f b7 85 62 fd ff ff 	movzwl -0x29e(%rbp),%eax
    5d40:	0f bf f0             	movswl %ax,%esi
    5d43:	0f b7 85 62 fd ff ff 	movzwl -0x29e(%rbp),%eax
    5d4a:	0f bf f8             	movswl %ax,%edi
    5d4d:	48 8b 85 86 fd ff ff 	mov    -0x27a(%rbp),%rax
    5d54:	0f b7 8d 8e fd ff ff 	movzwl -0x272(%rbp),%ecx
    5d5b:	48 89 ca             	mov    %rcx,%rdx
    5d5e:	4c 8b 8d 58 fd ff ff 	mov    -0x2a8(%rbp),%r9
    5d65:	44 8b 85 54 fd ff ff 	mov    -0x2ac(%rbp),%r8d
    5d6c:	48 89 d1             	mov    %rdx,%rcx
    5d6f:	48 89 c2             	mov    %rax,%rdx
    5d72:	e8 af 00 00 00       	callq  5e26 <func_2>
    5d77:	f7 d0                	not    %eax
    5d79:	23 85 70 fd ff ff    	and    -0x290(%rbp),%eax
    5d7f:	3d ef b1 00 00       	cmp    $0xb1ef,%eax
    5d84:	0f 95 c0             	setne  %al
    5d87:	0f b6 d0             	movzbl %al,%edx
    5d8a:	0f b6 05 b9 ab 00 00 	movzbl 0xabb9(%rip),%eax        # 1094a <g_775+0x1a>
    5d91:	01 c0                	add    %eax,%eax
    5d93:	c0 f8 06             	sar    $0x6,%al
    5d96:	0f be c0             	movsbl %al,%eax
    5d99:	39 c2                	cmp    %eax,%edx
    5d9b:	75 09                	jne    5da6 <func_1+0x5f1>
    5d9d:	83 bd 74 fd ff ff 00 	cmpl   $0x0,-0x28c(%rbp)
    5da4:	74 07                	je     5dad <func_1+0x5f8>
    5da6:	ba 01 00 00 00       	mov    $0x1,%edx
    5dab:	eb 05                	jmp    5db2 <func_1+0x5fd>
    5dad:	ba 00 00 00 00       	mov    $0x0,%edx
    5db2:	8b 85 20 fe ff ff    	mov    -0x1e0(%rbp),%eax
    5db8:	21 d0                	and    %edx,%eax
    5dba:	89 85 20 fe ff ff    	mov    %eax,-0x1e0(%rbp)
    5dc0:	48 8b 05 81 c3 00 00 	mov    0xc381(%rip),%rax        # 12148 <g_197>
    5dc7:	48 8b 0d b2 b3 00 00 	mov    0xb3b2(%rip),%rcx        # 11180 <g_1067>
    5dce:	48 8b 1d b3 b3 00 00 	mov    0xb3b3(%rip),%rbx        # 11188 <g_1067+0x8>
    5dd5:	48 89 08             	mov    %rcx,(%rax)
    5dd8:	48 89 58 08          	mov    %rbx,0x8(%rax)
    5ddc:	48 8b 15 ad b3 00 00 	mov    0xb3ad(%rip),%rdx        # 11190 <g_1067+0x10>
    5de3:	48 89 50 10          	mov    %rdx,0x10(%rax)
    5de7:	8b 15 ab b3 00 00    	mov    0xb3ab(%rip),%edx        # 11198 <g_1067+0x18>
    5ded:	89 50 18             	mov    %edx,0x18(%rax)
    5df0:	48 8b 05 99 b3 00 00 	mov    0xb399(%rip),%rax        # 11190 <g_1067+0x10>
    5df7:	48 c1 e8 20          	shr    $0x20,%rax
    5dfb:	25 ff ff 03 00       	and    $0x3ffff,%eax
    5e00:	48 8b 5d c8          	mov    -0x38(%rbp),%rbx
    5e04:	64 48 33 1c 25 28 00 	xor    %fs:0x28,%rbx
    5e0b:	00 00 
    5e0d:	74 05                	je     5e14 <func_1+0x65f>
    5e0f:	e8 5c e2 ff ff       	callq  4070 <__stack_chk_fail@plt>
    5e14:	48 81 c4 98 02 00 00 	add    $0x298,%rsp
    5e1b:	5b                   	pop    %rbx
    5e1c:	41 5c                	pop    %r12
    5e1e:	41 5d                	pop    %r13
    5e20:	41 5e                	pop    %r14
    5e22:	41 5f                	pop    %r15
    5e24:	5d                   	pop    %rbp
    5e25:	c3                   	retq   

0000000000005e26 <func_2>:
    5e26:	f3 0f 1e fa          	endbr64 
    5e2a:	55                   	push   %rbp
    5e2b:	48 89 e5             	mov    %rsp,%rbp
    5e2e:	41 57                	push   %r15
    5e30:	41 56                	push   %r14
    5e32:	41 55                	push   %r13
    5e34:	41 54                	push   %r12
    5e36:	53                   	push   %rbx
    5e37:	48 81 ec 00 10 00 00 	sub    $0x1000,%rsp
    5e3e:	48 83 0c 24 00       	orq    $0x0,(%rsp)
    5e43:	48 81 ec 08 04 00 00 	sub    $0x408,%rsp
    5e4a:	89 bd fc eb ff ff    	mov    %edi,-0x1404(%rbp)
    5e50:	89 b5 f8 eb ff ff    	mov    %esi,-0x1408(%rbp)
    5e56:	48 89 d0             	mov    %rdx,%rax
    5e59:	48 89 ca             	mov    %rcx,%rdx
    5e5c:	44 89 c1             	mov    %r8d,%ecx
    5e5f:	4c 89 8d d8 eb ff ff 	mov    %r9,-0x1428(%rbp)
    5e66:	48 89 85 e8 eb ff ff 	mov    %rax,-0x1418(%rbp)
    5e6d:	0f b7 85 f0 eb ff ff 	movzwl -0x1410(%rbp),%eax
    5e74:	83 e0 00             	and    $0x0,%eax
    5e77:	09 d0                	or     %edx,%eax
    5e79:	66 89 85 f0 eb ff ff 	mov    %ax,-0x1410(%rbp)
    5e80:	89 c8                	mov    %ecx,%eax
    5e82:	88 85 e4 eb ff ff    	mov    %al,-0x141c(%rbp)
    5e88:	64 48 8b 04 25 28 00 	mov    %fs:0x28,%rax
    5e8f:	00 00 
    5e91:	48 89 45 c8          	mov    %rax,-0x38(%rbp)
    5e95:	31 c0                	xor    %eax,%eax
    5e97:	c7 85 b0 ee ff ff 4a 	movl   $0x780b3f4a,-0x1150(%rbp)
    5e9e:	3f 0b 78 
    5ea1:	c7 85 b4 ee ff ff 07 	movl   $0x7,-0x114c(%rbp)
    5ea8:	00 00 00 
    5eab:	c7 85 b8 ee ff ff 28 	movl   $0x62d8aa28,-0x1148(%rbp)
    5eb2:	aa d8 62 
    5eb5:	c7 85 bc ee ff ff 08 	movl   $0x8,-0x1144(%rbp)
    5ebc:	00 00 00 
    5ebf:	c7 85 c0 ee ff ff 00 	movl   $0x0,-0x1140(%rbp)
    5ec6:	00 00 00 
    5ec9:	c7 85 c4 ee ff ff 00 	movl   $0x0,-0x113c(%rbp)
    5ed0:	00 00 00 
    5ed3:	c7 85 c8 ee ff ff 4a 	movl   $0x780b3f4a,-0x1138(%rbp)
    5eda:	3f 0b 78 
    5edd:	c7 85 cc ee ff ff 00 	movl   $0x0,-0x1134(%rbp)
    5ee4:	00 00 00 
    5ee7:	c7 85 d0 ee ff ff 00 	movl   $0x0,-0x1130(%rbp)
    5eee:	00 00 00 
    5ef1:	c7 85 d4 ee ff ff 08 	movl   $0x8,-0x112c(%rbp)
    5ef8:	00 00 00 
    5efb:	c7 85 d8 ee ff ff 28 	movl   $0x62d8aa28,-0x1128(%rbp)
    5f02:	aa d8 62 
    5f05:	c7 85 dc ee ff ff 07 	movl   $0x7,-0x1124(%rbp)
    5f0c:	00 00 00 
    5f0f:	c7 85 e0 ee ff ff 4a 	movl   $0x780b3f4a,-0x1120(%rbp)
    5f16:	3f 0b 78 
    5f19:	c7 85 e4 ee ff ff 28 	movl   $0x62d8aa28,-0x111c(%rbp)
    5f20:	aa d8 62 
    5f23:	c7 85 e8 ee ff ff 07 	movl   $0x7,-0x1118(%rbp)
    5f2a:	00 00 00 
    5f2d:	c7 85 ec ee ff ff 08 	movl   $0x8,-0x1114(%rbp)
    5f34:	00 00 00 
    5f37:	c7 85 f0 ee ff ff 07 	movl   $0x7,-0x1110(%rbp)
    5f3e:	00 00 00 
    5f41:	c7 85 f4 ee ff ff 28 	movl   $0x62d8aa28,-0x110c(%rbp)
    5f48:	aa d8 62 
    5f4b:	c7 85 f8 ee ff ff 4a 	movl   $0x780b3f4a,-0x1108(%rbp)
    5f52:	3f 0b 78 
    5f55:	c7 85 fc ee ff ff 07 	movl   $0x7,-0x1104(%rbp)
    5f5c:	00 00 00 
    5f5f:	c7 85 00 ef ff ff 28 	movl   $0x62d8aa28,-0x1100(%rbp)
    5f66:	aa d8 62 
    5f69:	c7 85 04 ef ff ff 08 	movl   $0x8,-0x10fc(%rbp)
    5f70:	00 00 00 
    5f73:	c7 85 08 ef ff ff 00 	movl   $0x0,-0x10f8(%rbp)
    5f7a:	00 00 00 
    5f7d:	c7 85 0c ef ff ff 00 	movl   $0x0,-0x10f4(%rbp)
    5f84:	00 00 00 
    5f87:	c7 85 10 ef ff ff 4a 	movl   $0x780b3f4a,-0x10f0(%rbp)
    5f8e:	3f 0b 78 
    5f91:	c7 85 14 ef ff ff 00 	movl   $0x0,-0x10ec(%rbp)
    5f98:	00 00 00 
    5f9b:	c7 85 18 ef ff ff 00 	movl   $0x0,-0x10e8(%rbp)
    5fa2:	00 00 00 
    5fa5:	c7 85 1c ef ff ff 08 	movl   $0x8,-0x10e4(%rbp)
    5fac:	00 00 00 
    5faf:	c7 85 20 ef ff ff 28 	movl   $0x62d8aa28,-0x10e0(%rbp)
    5fb6:	aa d8 62 
    5fb9:	c7 85 24 ef ff ff 07 	movl   $0x7,-0x10dc(%rbp)
    5fc0:	00 00 00 
    5fc3:	c7 85 28 ef ff ff 4a 	movl   $0x780b3f4a,-0x10d8(%rbp)
    5fca:	3f 0b 78 
    5fcd:	c7 85 2c ef ff ff 28 	movl   $0x62d8aa28,-0x10d4(%rbp)
    5fd4:	aa d8 62 
    5fd7:	c7 85 30 ef ff ff 07 	movl   $0x7,-0x10d0(%rbp)
    5fde:	00 00 00 
    5fe1:	c7 85 34 ef ff ff 08 	movl   $0x8,-0x10cc(%rbp)
    5fe8:	00 00 00 
    5feb:	c7 85 38 ef ff ff 07 	movl   $0x7,-0x10c8(%rbp)
    5ff2:	00 00 00 
    5ff5:	c7 85 3c ef ff ff 28 	movl   $0x62d8aa28,-0x10c4(%rbp)
    5ffc:	aa d8 62 
    5fff:	c7 85 40 ef ff ff 4a 	movl   $0x780b3f4a,-0x10c0(%rbp)
    6006:	3f 0b 78 
    6009:	c7 85 44 ef ff ff 07 	movl   $0x7,-0x10bc(%rbp)
    6010:	00 00 00 
    6013:	c7 85 48 ef ff ff 28 	movl   $0x62d8aa28,-0x10b8(%rbp)
    601a:	aa d8 62 
    601d:	c7 85 4c ef ff ff 08 	movl   $0x8,-0x10b4(%rbp)
    6024:	00 00 00 
    6027:	c7 85 50 ef ff ff 00 	movl   $0x0,-0x10b0(%rbp)
    602e:	00 00 00 
    6031:	c7 85 54 ef ff ff 4a 	movl   $0x780b3f4a,-0x10ac(%rbp)
    6038:	3f 0b 78 
    603b:	c7 85 58 ef ff ff b4 	movl   $0x6cabfb4,-0x10a8(%rbp)
    6042:	bf ca 06 
    6045:	c7 85 5c ef ff ff 4a 	movl   $0x780b3f4a,-0x10a4(%rbp)
    604c:	3f 0b 78 
    604f:	c7 85 60 ef ff ff 4a 	movl   $0x780b3f4a,-0x10a0(%rbp)
    6056:	3f 0b 78 
    6059:	c7 85 64 ef ff ff 01 	movl   $0x1,-0x109c(%rbp)
    6060:	00 00 00 
    6063:	c7 85 68 ef ff ff 08 	movl   $0x8,-0x1098(%rbp)
    606a:	00 00 00 
    606d:	c7 85 6c ef ff ff 00 	movl   $0x0,-0x1094(%rbp)
    6074:	00 00 00 
    6077:	c7 85 70 ef ff ff b4 	movl   $0x6cabfb4,-0x1090(%rbp)
    607e:	bf ca 06 
    6081:	c7 85 74 ef ff ff 08 	movl   $0x8,-0x108c(%rbp)
    6088:	00 00 00 
    608b:	48 8d 05 96 a1 00 00 	lea    0xa196(%rip),%rax        # 10228 <g_46+0x8>
    6092:	48 89 85 48 ec ff ff 	mov    %rax,-0x13b8(%rbp)
    6099:	48 8d 85 48 ec ff ff 	lea    -0x13b8(%rbp),%rax
    60a0:	48 89 85 70 ec ff ff 	mov    %rax,-0x1390(%rbp)
    60a7:	48 c7 85 78 ec ff ff 	movq   $0x0,-0x1388(%rbp)
    60ae:	00 00 00 00 
    60b2:	48 8d 05 6f 9f 00 00 	lea    0x9f6f(%rip),%rax        # 10028 <g_24>
    60b9:	48 89 85 50 ec ff ff 	mov    %rax,-0x13b0(%rbp)
    60c0:	48 8d 85 50 ec ff ff 	lea    -0x13b0(%rbp),%rax
    60c7:	48 89 85 80 ec ff ff 	mov    %rax,-0x1380(%rbp)
    60ce:	48 8d 05 cb bf 00 00 	lea    0xbfcb(%rip),%rax        # 120a0 <g_31>
    60d5:	48 89 85 80 ef ff ff 	mov    %rax,-0x1080(%rbp)
    60dc:	48 8d 05 bd bf 00 00 	lea    0xbfbd(%rip),%rax        # 120a0 <g_31>
    60e3:	48 89 85 88 ef ff ff 	mov    %rax,-0x1078(%rbp)
    60ea:	48 c7 85 90 ef ff ff 	movq   $0x0,-0x1070(%rbp)
    60f1:	00 00 00 00 
    60f5:	48 8d 05 a4 bf 00 00 	lea    0xbfa4(%rip),%rax        # 120a0 <g_31>
    60fc:	48 89 85 98 ef ff ff 	mov    %rax,-0x1068(%rbp)
    6103:	48 8d 05 96 bf 00 00 	lea    0xbf96(%rip),%rax        # 120a0 <g_31>
    610a:	48 89 85 a0 ef ff ff 	mov    %rax,-0x1060(%rbp)
    6111:	48 8d 05 88 bf 00 00 	lea    0xbf88(%rip),%rax        # 120a0 <g_31>
    6118:	48 89 85 a8 ef ff ff 	mov    %rax,-0x1058(%rbp)
    611f:	48 c7 85 b0 ef ff ff 	movq   $0x0,-0x1050(%rbp)
    6126:	00 00 00 00 
    612a:	48 8d 05 17 ca 00 00 	lea    0xca17(%rip),%rax        # 12b48 <g_30>
    6131:	48 89 85 b8 ef ff ff 	mov    %rax,-0x1048(%rbp)
    6138:	48 8d 05 09 ca 00 00 	lea    0xca09(%rip),%rax        # 12b48 <g_30>
    613f:	48 89 85 c0 ef ff ff 	mov    %rax,-0x1040(%rbp)
    6146:	48 8d 05 53 bf 00 00 	lea    0xbf53(%rip),%rax        # 120a0 <g_31>
    614d:	48 89 85 c8 ef ff ff 	mov    %rax,-0x1038(%rbp)
    6154:	48 8d 05 ed c9 00 00 	lea    0xc9ed(%rip),%rax        # 12b48 <g_30>
    615b:	48 89 85 d0 ef ff ff 	mov    %rax,-0x1030(%rbp)
    6162:	48 8d 05 37 bf 00 00 	lea    0xbf37(%rip),%rax        # 120a0 <g_31>
    6169:	48 89 85 d8 ef ff ff 	mov    %rax,-0x1028(%rbp)
    6170:	48 8d 05 29 bf 00 00 	lea    0xbf29(%rip),%rax        # 120a0 <g_31>
    6177:	48 89 85 e0 ef ff ff 	mov    %rax,-0x1020(%rbp)
    617e:	48 c7 85 e8 ef ff ff 	movq   $0x0,-0x1018(%rbp)
    6185:	00 00 00 00 
    6189:	48 8d 05 b8 c9 00 00 	lea    0xc9b8(%rip),%rax        # 12b48 <g_30>
    6190:	48 89 85 f0 ef ff ff 	mov    %rax,-0x1010(%rbp)
    6197:	48 8d 05 02 bf 00 00 	lea    0xbf02(%rip),%rax        # 120a0 <g_31>
    619e:	48 89 85 f8 ef ff ff 	mov    %rax,-0x1008(%rbp)
    61a5:	48 8d 05 f4 be 00 00 	lea    0xbef4(%rip),%rax        # 120a0 <g_31>
    61ac:	48 89 85 00 f0 ff ff 	mov    %rax,-0x1000(%rbp)
    61b3:	48 8d 05 e6 be 00 00 	lea    0xbee6(%rip),%rax        # 120a0 <g_31>
    61ba:	48 89 85 08 f0 ff ff 	mov    %rax,-0xff8(%rbp)
    61c1:	48 c7 85 10 f0 ff ff 	movq   $0x0,-0xff0(%rbp)
    61c8:	00 00 00 00 
    61cc:	48 c7 85 18 f0 ff ff 	movq   $0x0,-0xfe8(%rbp)
    61d3:	00 00 00 00 
    61d7:	48 c7 85 20 f0 ff ff 	movq   $0x0,-0xfe0(%rbp)
    61de:	00 00 00 00 
    61e2:	48 8d 05 b7 be 00 00 	lea    0xbeb7(%rip),%rax        # 120a0 <g_31>
    61e9:	48 89 85 28 f0 ff ff 	mov    %rax,-0xfd8(%rbp)
    61f0:	48 8d 05 51 c9 00 00 	lea    0xc951(%rip),%rax        # 12b48 <g_30>
    61f7:	48 89 85 30 f0 ff ff 	mov    %rax,-0xfd0(%rbp)
    61fe:	48 8d 05 9b be 00 00 	lea    0xbe9b(%rip),%rax        # 120a0 <g_31>
    6205:	48 89 85 38 f0 ff ff 	mov    %rax,-0xfc8(%rbp)
    620c:	48 c7 85 40 f0 ff ff 	movq   $0x0,-0xfc0(%rbp)
    6213:	00 00 00 00 
    6217:	48 8d 05 2a c9 00 00 	lea    0xc92a(%rip),%rax        # 12b48 <g_30>
    621e:	48 89 85 48 f0 ff ff 	mov    %rax,-0xfb8(%rbp)
    6225:	48 c7 85 50 f0 ff ff 	movq   $0x0,-0xfb0(%rbp)
    622c:	00 00 00 00 
    6230:	48 8d 05 69 be 00 00 	lea    0xbe69(%rip),%rax        # 120a0 <g_31>
    6237:	48 89 85 58 f0 ff ff 	mov    %rax,-0xfa8(%rbp)
    623e:	48 8d 05 5b be 00 00 	lea    0xbe5b(%rip),%rax        # 120a0 <g_31>
    6245:	48 89 85 60 f0 ff ff 	mov    %rax,-0xfa0(%rbp)
    624c:	48 8d 05 4d be 00 00 	lea    0xbe4d(%rip),%rax        # 120a0 <g_31>
    6253:	48 89 85 68 f0 ff ff 	mov    %rax,-0xf98(%rbp)
    625a:	48 8d 05 4f be 00 00 	lea    0xbe4f(%rip),%rax        # 120b0 <g_111>
    6261:	48 89 85 88 ec ff ff 	mov    %rax,-0x1378(%rbp)
    6268:	c7 85 1c ec ff ff 83 	movl   $0xdd6f483,-0x13e4(%rbp)
    626f:	f4 d6 0d 
    6272:	48 8d 05 b3 9f 00 00 	lea    0x9fb3(%rip),%rax        # 1022c <g_48>
    6279:	48 89 85 90 ec ff ff 	mov    %rax,-0x1370(%rbp)
    6280:	66 c7 85 10 ec ff ff 	movw   $0x1f86,-0x13f0(%rbp)
    6287:	86 1f 
    6289:	48 8d 05 e0 c8 00 00 	lea    0xc8e0(%rip),%rax        # 12b70 <g_148+0x10>
    6290:	48 89 85 58 ec ff ff 	mov    %rax,-0x13a8(%rbp)
    6297:	48 8d 85 58 ec ff ff 	lea    -0x13a8(%rbp),%rax
    629e:	48 89 85 98 ec ff ff 	mov    %rax,-0x1368(%rbp)
    62a5:	66 c7 85 12 ec ff ff 	movw   $0x8235,-0x13ee(%rbp)
    62ac:	35 82 
    62ae:	c7 85 34 ec ff ff 2d 	movl   $0xf25ca2d,-0x13cc(%rbp)
    62b5:	ca 25 0f 
    62b8:	48 8d 05 a1 bf 00 00 	lea    0xbfa1(%rip),%rax        # 12260 <g_547+0xe0>
    62bf:	48 89 85 a0 ec ff ff 	mov    %rax,-0x1360(%rbp)
    62c6:	c6 85 0f ec ff ff 00 	movb   $0x0,-0x13f1(%rbp)
    62cd:	48 8d 85 70 f1 ff ff 	lea    -0xe90(%rbp),%rax
    62d4:	48 8d 15 85 5d 00 00 	lea    0x5d85(%rip),%rdx        # c060 <_IO_stdin_used+0x60>
    62db:	b9 28 00 00 00       	mov    $0x28,%ecx
    62e0:	48 89 c7             	mov    %rax,%rdi
    62e3:	48 89 d6             	mov    %rdx,%rsi
    62e6:	f3 48 a5             	rep movsq %ds:(%rsi),%es:(%rdi)
    62e9:	48 c7 85 a8 ec ff ff 	movq   $0xfffffffffffffff6,-0x1358(%rbp)
    62f0:	f6 ff ff ff 
    62f4:	48 b8 08 1b f6 3d d1 	movabs $0xf1cfb8d13df61b08,%rax
    62fb:	b8 cf f1 
    62fe:	48 89 85 d0 ed ff ff 	mov    %rax,-0x1230(%rbp)
    6305:	48 bb 65 00 e7 cc b4 	movabs $0xfeca0bb4cce70065,%rbx
    630c:	0b ca fe 
    630f:	48 89 9d d8 ed ff ff 	mov    %rbx,-0x1228(%rbp)
    6316:	48 89 85 e0 ed ff ff 	mov    %rax,-0x1220(%rbp)
    631d:	48 89 85 e8 ed ff ff 	mov    %rax,-0x1218(%rbp)
    6324:	48 89 9d f0 ed ff ff 	mov    %rbx,-0x1210(%rbp)
    632b:	48 89 85 f8 ed ff ff 	mov    %rax,-0x1208(%rbp)
    6332:	48 89 85 00 ee ff ff 	mov    %rax,-0x1200(%rbp)
    6339:	48 89 9d 08 ee ff ff 	mov    %rbx,-0x11f8(%rbp)
    6340:	c7 85 38 ec ff ff 04 	movl   $0x4,-0x13c8(%rbp)
    6347:	00 00 00 
    634a:	48 8d 85 b0 f4 ff ff 	lea    -0xb50(%rbp),%rax
    6351:	48 8d 15 48 5e 00 00 	lea    0x5e48(%rip),%rdx        # c1a0 <_IO_stdin_used+0x1a0>
    6358:	b9 70 00 00 00       	mov    $0x70,%ecx
    635d:	48 89 c7             	mov    %rax,%rdi
    6360:	48 89 d6             	mov    %rdx,%rsi
    6363:	f3 48 a5             	rep movsq %ds:(%rsi),%es:(%rdi)
    6366:	48 89 f2             	mov    %rsi,%rdx
    6369:	48 89 f8             	mov    %rdi,%rax
    636c:	8b 0a                	mov    (%rdx),%ecx
    636e:	89 08                	mov    %ecx,(%rax)
    6370:	48 8d 40 04          	lea    0x4(%rax),%rax
    6374:	48 8d 52 04          	lea    0x4(%rdx),%rdx
    6378:	48 c7 85 b0 ec ff ff 	movq   $0x0,-0x1350(%rbp)
    637f:	00 00 00 00 
    6383:	48 8d 85 1c ec ff ff 	lea    -0x13e4(%rbp),%rax
    638a:	48 89 85 b0 ed ff ff 	mov    %rax,-0x1250(%rbp)
    6391:	48 8d 85 1c ec ff ff 	lea    -0x13e4(%rbp),%rax
    6398:	48 89 85 b8 ed ff ff 	mov    %rax,-0x1248(%rbp)
    639f:	48 8d 85 1c ec ff ff 	lea    -0x13e4(%rbp),%rax
    63a6:	48 89 85 c0 ed ff ff 	mov    %rax,-0x1240(%rbp)
    63ad:	48 8d 85 1c ec ff ff 	lea    -0x13e4(%rbp),%rax
    63b4:	48 89 85 c8 ed ff ff 	mov    %rax,-0x1238(%rbp)
    63bb:	c7 85 3c ec ff ff e7 	movl   $0xd49053e7,-0x13c4(%rbp)
    63c2:	53 90 d4 
    63c5:	c7 85 24 ec ff ff 00 	movl   $0x0,-0x13dc(%rbp)
    63cc:	00 00 00 
    63cf:	eb 19                	jmp    63ea <func_2+0x5c4>
    63d1:	8b 85 24 ec ff ff    	mov    -0x13dc(%rbp),%eax
    63d7:	48 98                	cltq   
    63d9:	66 c7 84 45 90 ed ff 	movw   $0x2,-0x1270(%rbp,%rax,2)
    63e0:	ff 02 00 
    63e3:	83 85 24 ec ff ff 01 	addl   $0x1,-0x13dc(%rbp)
    63ea:	83 bd 24 ec ff ff 09 	cmpl   $0x9,-0x13dc(%rbp)
    63f1:	7e de                	jle    63d1 <func_2+0x5ab>
    63f3:	48 c7 05 3a 9e 00 00 	movq   $0x3,0x9e3a(%rip)        # 10238 <g_70>
    63fa:	03 00 00 00 
    63fe:	e9 ae 17 00 00       	jmpq   7bb1 <func_2+0x1d8b>
    6403:	48 8d 05 16 9e 00 00 	lea    0x9e16(%rip),%rax        # 10220 <g_46>
    640a:	48 89 85 60 ec ff ff 	mov    %rax,-0x13a0(%rbp)
    6411:	48 8d 85 60 ec ff ff 	lea    -0x13a0(%rbp),%rax
    6418:	48 89 85 b8 ec ff ff 	mov    %rax,-0x1348(%rbp)
    641f:	48 8d 05 7a a4 00 00 	lea    0xa47a(%rip),%rax        # 108a0 <g_421>
    6426:	48 89 85 c0 ec ff ff 	mov    %rax,-0x1340(%rbp)
    642d:	c7 85 20 ec ff ff 69 	movl   $0x1be74a69,-0x13e0(%rbp)
    6434:	4a e7 1b 
    6437:	c7 85 40 ec ff ff df 	movl   $0x55fea8df,-0x13c0(%rbp)
    643e:	a8 fe 55 
    6441:	48 8d 85 40 f8 ff ff 	lea    -0x7c0(%rbp),%rax
    6448:	48 8d 15 51 ad 00 00 	lea    0xad51(%rip),%rdx        # 111a0 <g_1067+0x20>
    644f:	b9 f0 00 00 00       	mov    $0xf0,%ecx
    6454:	48 89 c7             	mov    %rax,%rdi
    6457:	48 89 d6             	mov    %rdx,%rsi
    645a:	f3 48 a5             	rep movsq %ds:(%rsi),%es:(%rdi)
    645d:	48 8d 85 40 f8 ff ff 	lea    -0x7c0(%rbp),%rax
    6464:	48 83 c0 08          	add    $0x8,%rax
    6468:	48 89 85 60 ee ff ff 	mov    %rax,-0x11a0(%rbp)
    646f:	48 8d 85 40 f8 ff ff 	lea    -0x7c0(%rbp),%rax
    6476:	48 05 58 05 00 00    	add    $0x558,%rax
    647c:	48 89 85 68 ee ff ff 	mov    %rax,-0x1198(%rbp)
    6483:	48 8d 85 40 f8 ff ff 	lea    -0x7c0(%rbp),%rax
    648a:	48 05 08 01 00 00    	add    $0x108,%rax
    6490:	48 89 85 70 ee ff ff 	mov    %rax,-0x1190(%rbp)
    6497:	48 8d 85 40 f8 ff ff 	lea    -0x7c0(%rbp),%rax
    649e:	48 05 58 05 00 00    	add    $0x558,%rax
    64a4:	48 89 85 78 ee ff ff 	mov    %rax,-0x1188(%rbp)
    64ab:	48 8d 85 40 f8 ff ff 	lea    -0x7c0(%rbp),%rax
    64b2:	48 83 c0 08          	add    $0x8,%rax
    64b6:	48 89 85 80 ee ff ff 	mov    %rax,-0x1180(%rbp)
    64bd:	48 8d 85 40 f8 ff ff 	lea    -0x7c0(%rbp),%rax
    64c4:	48 83 c0 08          	add    $0x8,%rax
    64c8:	48 89 85 88 ee ff ff 	mov    %rax,-0x1178(%rbp)
    64cf:	48 8d 85 40 f8 ff ff 	lea    -0x7c0(%rbp),%rax
    64d6:	48 05 58 05 00 00    	add    $0x558,%rax
    64dc:	48 89 85 90 ee ff ff 	mov    %rax,-0x1170(%rbp)
    64e3:	48 8d 85 40 f8 ff ff 	lea    -0x7c0(%rbp),%rax
    64ea:	48 05 08 01 00 00    	add    $0x108,%rax
    64f0:	48 89 85 98 ee ff ff 	mov    %rax,-0x1168(%rbp)
    64f7:	48 8d 85 40 f8 ff ff 	lea    -0x7c0(%rbp),%rax
    64fe:	48 05 58 05 00 00    	add    $0x558,%rax
    6504:	48 89 85 a0 ee ff ff 	mov    %rax,-0x1160(%rbp)
    650b:	48 8d 85 40 f8 ff ff 	lea    -0x7c0(%rbp),%rax
    6512:	48 83 c0 08          	add    $0x8,%rax
    6516:	48 89 85 a8 ee ff ff 	mov    %rax,-0x1158(%rbp)
    651d:	48 8d 85 40 f8 ff ff 	lea    -0x7c0(%rbp),%rax
    6524:	48 05 98 02 00 00    	add    $0x298,%rax
    652a:	48 89 85 70 f0 ff ff 	mov    %rax,-0xf90(%rbp)
    6531:	48 8d 85 40 f8 ff ff 	lea    -0x7c0(%rbp),%rax
    6538:	48 05 d0 02 00 00    	add    $0x2d0,%rax
    653e:	48 89 85 78 f0 ff ff 	mov    %rax,-0xf88(%rbp)
    6545:	48 8d 85 40 f8 ff ff 	lea    -0x7c0(%rbp),%rax
    654c:	48 83 c0 08          	add    $0x8,%rax
    6550:	48 89 85 80 f0 ff ff 	mov    %rax,-0xf80(%rbp)
    6557:	48 8d 85 40 f8 ff ff 	lea    -0x7c0(%rbp),%rax
    655e:	48 05 18 03 00 00    	add    $0x318,%rax
    6564:	48 89 85 88 f0 ff ff 	mov    %rax,-0xf78(%rbp)
    656b:	48 8d 85 40 f8 ff ff 	lea    -0x7c0(%rbp),%rax
    6572:	48 05 f8 01 00 00    	add    $0x1f8,%rax
    6578:	48 89 85 90 f0 ff ff 	mov    %rax,-0xf70(%rbp)
    657f:	48 8d 85 40 f8 ff ff 	lea    -0x7c0(%rbp),%rax
    6586:	48 83 c0 08          	add    $0x8,%rax
    658a:	48 89 85 98 f0 ff ff 	mov    %rax,-0xf68(%rbp)
    6591:	48 8d 85 40 f8 ff ff 	lea    -0x7c0(%rbp),%rax
    6598:	48 83 c0 08          	add    $0x8,%rax
    659c:	48 89 85 a0 f0 ff ff 	mov    %rax,-0xf60(%rbp)
    65a3:	48 8d 85 40 f8 ff ff 	lea    -0x7c0(%rbp),%rax
    65aa:	48 83 c0 08          	add    $0x8,%rax
    65ae:	48 89 85 a8 f0 ff ff 	mov    %rax,-0xf58(%rbp)
    65b5:	48 8d 85 40 f8 ff ff 	lea    -0x7c0(%rbp),%rax
    65bc:	48 05 d0 02 00 00    	add    $0x2d0,%rax
    65c2:	48 89 85 b0 f0 ff ff 	mov    %rax,-0xf50(%rbp)
    65c9:	48 8d 85 40 f8 ff ff 	lea    -0x7c0(%rbp),%rax
    65d0:	48 05 18 03 00 00    	add    $0x318,%rax
    65d6:	48 89 85 b8 f0 ff ff 	mov    %rax,-0xf48(%rbp)
    65dd:	48 8d 85 40 f8 ff ff 	lea    -0x7c0(%rbp),%rax
    65e4:	48 05 d0 02 00 00    	add    $0x2d0,%rax
    65ea:	48 89 85 c0 f0 ff ff 	mov    %rax,-0xf40(%rbp)
    65f1:	48 8d 85 40 f8 ff ff 	lea    -0x7c0(%rbp),%rax
    65f8:	48 83 c0 08          	add    $0x8,%rax
    65fc:	48 89 85 c8 f0 ff ff 	mov    %rax,-0xf38(%rbp)
    6603:	48 8d 85 40 f8 ff ff 	lea    -0x7c0(%rbp),%rax
    660a:	48 83 c0 08          	add    $0x8,%rax
    660e:	48 89 85 d0 f0 ff ff 	mov    %rax,-0xf30(%rbp)
    6615:	48 8d 85 40 f8 ff ff 	lea    -0x7c0(%rbp),%rax
    661c:	48 83 c0 08          	add    $0x8,%rax
    6620:	48 89 85 d8 f0 ff ff 	mov    %rax,-0xf28(%rbp)
    6627:	48 8d 85 40 f8 ff ff 	lea    -0x7c0(%rbp),%rax
    662e:	48 05 90 02 00 00    	add    $0x290,%rax
    6634:	48 89 85 e0 f0 ff ff 	mov    %rax,-0xf20(%rbp)
    663b:	48 8d 85 40 f8 ff ff 	lea    -0x7c0(%rbp),%rax
    6642:	48 05 90 02 00 00    	add    $0x290,%rax
    6648:	48 89 85 e8 f0 ff ff 	mov    %rax,-0xf18(%rbp)
    664f:	48 8d 85 40 f8 ff ff 	lea    -0x7c0(%rbp),%rax
    6656:	48 05 90 02 00 00    	add    $0x290,%rax
    665c:	48 89 85 f0 f0 ff ff 	mov    %rax,-0xf10(%rbp)
    6663:	48 8d 85 40 f8 ff ff 	lea    -0x7c0(%rbp),%rax
    666a:	48 05 98 02 00 00    	add    $0x298,%rax
    6670:	48 89 85 f8 f0 ff ff 	mov    %rax,-0xf08(%rbp)
    6677:	48 8d 85 40 f8 ff ff 	lea    -0x7c0(%rbp),%rax
    667e:	48 05 f8 01 00 00    	add    $0x1f8,%rax
    6684:	48 89 85 00 f1 ff ff 	mov    %rax,-0xf00(%rbp)
    668b:	48 8d 85 40 f8 ff ff 	lea    -0x7c0(%rbp),%rax
    6692:	48 05 f8 01 00 00    	add    $0x1f8,%rax
    6698:	48 89 85 08 f1 ff ff 	mov    %rax,-0xef8(%rbp)
    669f:	48 8d 85 40 f8 ff ff 	lea    -0x7c0(%rbp),%rax
    66a6:	48 05 98 02 00 00    	add    $0x298,%rax
    66ac:	48 89 85 10 f1 ff ff 	mov    %rax,-0xef0(%rbp)
    66b3:	48 8d 85 40 f8 ff ff 	lea    -0x7c0(%rbp),%rax
    66ba:	48 05 90 02 00 00    	add    $0x290,%rax
    66c0:	48 89 85 18 f1 ff ff 	mov    %rax,-0xee8(%rbp)
    66c7:	48 8d 85 40 f8 ff ff 	lea    -0x7c0(%rbp),%rax
    66ce:	48 83 c0 08          	add    $0x8,%rax
    66d2:	48 89 85 20 f1 ff ff 	mov    %rax,-0xee0(%rbp)
    66d9:	48 8d 85 40 f8 ff ff 	lea    -0x7c0(%rbp),%rax
    66e0:	48 83 c0 08          	add    $0x8,%rax
    66e4:	48 89 85 28 f1 ff ff 	mov    %rax,-0xed8(%rbp)
    66eb:	48 8d 85 40 f8 ff ff 	lea    -0x7c0(%rbp),%rax
    66f2:	48 05 90 02 00 00    	add    $0x290,%rax
    66f8:	48 89 85 30 f1 ff ff 	mov    %rax,-0xed0(%rbp)
    66ff:	48 8d 85 40 f8 ff ff 	lea    -0x7c0(%rbp),%rax
    6706:	48 83 c0 08          	add    $0x8,%rax
    670a:	48 89 85 38 f1 ff ff 	mov    %rax,-0xec8(%rbp)
    6711:	48 8d 85 40 f8 ff ff 	lea    -0x7c0(%rbp),%rax
    6718:	48 05 b8 03 00 00    	add    $0x3b8,%rax
    671e:	48 89 85 40 f1 ff ff 	mov    %rax,-0xec0(%rbp)
    6725:	48 8d 85 40 f8 ff ff 	lea    -0x7c0(%rbp),%rax
    672c:	48 05 98 02 00 00    	add    $0x298,%rax
    6732:	48 89 85 48 f1 ff ff 	mov    %rax,-0xeb8(%rbp)
    6739:	48 8d 85 40 f8 ff ff 	lea    -0x7c0(%rbp),%rax
    6740:	48 83 c0 08          	add    $0x8,%rax
    6744:	48 89 85 50 f1 ff ff 	mov    %rax,-0xeb0(%rbp)
    674b:	48 8d 85 40 f8 ff ff 	lea    -0x7c0(%rbp),%rax
    6752:	48 05 98 02 00 00    	add    $0x298,%rax
    6758:	48 89 85 58 f1 ff ff 	mov    %rax,-0xea8(%rbp)
    675f:	48 8d 85 40 f8 ff ff 	lea    -0x7c0(%rbp),%rax
    6766:	48 05 b8 03 00 00    	add    $0x3b8,%rax
    676c:	48 89 85 60 f1 ff ff 	mov    %rax,-0xea0(%rbp)
    6773:	48 8d 85 40 f8 ff ff 	lea    -0x7c0(%rbp),%rax
    677a:	48 83 c0 08          	add    $0x8,%rax
    677e:	48 89 85 68 f1 ff ff 	mov    %rax,-0xe98(%rbp)
    6785:	48 8d 85 70 f0 ff ff 	lea    -0xf90(%rbp),%rax
    678c:	48 05 b8 00 00 00    	add    $0xb8,%rax
    6792:	48 89 85 68 ec ff ff 	mov    %rax,-0x1398(%rbp)
    6799:	48 8d 85 70 f0 ff ff 	lea    -0xf90(%rbp),%rax
    67a0:	48 05 b8 00 00 00    	add    $0xb8,%rax
    67a6:	48 89 85 c8 ec ff ff 	mov    %rax,-0x1338(%rbp)
    67ad:	c6 05 74 9a 00 00 03 	movb   $0x3,0x9a74(%rip)        # 10228 <g_46+0x8>
    67b4:	e9 60 08 00 00       	jmpq   7019 <func_2+0x11f3>
    67b9:	c6 05 69 9a 00 00 00 	movb   $0x0,0x9a69(%rip)        # 10229 <g_46+0x9>
    67c0:	e9 cb 07 00 00       	jmpq   6f90 <func_2+0x116a>
    67c5:	48 8d 05 60 9a 00 00 	lea    0x9a60(%rip),%rax        # 1022c <g_48>
    67cc:	48 89 85 28 ed ff ff 	mov    %rax,-0x12d8(%rbp)
    67d3:	c7 85 44 ec ff ff 00 	movl   $0x0,-0x13bc(%rbp)
    67da:	00 00 00 
    67dd:	c6 85 e4 eb ff ff 03 	movb   $0x3,-0x141c(%rbp)
    67e4:	e9 87 07 00 00       	jmpq   6f70 <func_2+0x114a>
    67e9:	0f b6 05 39 9a 00 00 	movzbl 0x9a39(%rip),%eax        # 10229 <g_46+0x9>
    67f0:	0f b6 c0             	movzbl %al,%eax
    67f3:	8d 50 01             	lea    0x1(%rax),%edx
    67f6:	0f be 85 e4 eb ff ff 	movsbl -0x141c(%rbp),%eax
    67fd:	8d 48 02             	lea    0x2(%rax),%ecx
    6800:	0f b6 05 21 9a 00 00 	movzbl 0x9a21(%rip),%eax        # 10228 <g_46+0x8>
    6807:	0f be c0             	movsbl %al,%eax
    680a:	48 63 f0             	movslq %eax,%rsi
    680d:	48 63 d2             	movslq %edx,%rdx
    6810:	48 63 c9             	movslq %ecx,%rcx
    6813:	48 89 d0             	mov    %rdx,%rax
    6816:	48 c1 e0 04          	shl    $0x4,%rax
    681a:	48 29 d0             	sub    %rdx,%rax
    681d:	48 01 c0             	add    %rax,%rax
    6820:	48 89 ca             	mov    %rcx,%rdx
    6823:	48 c1 e2 02          	shl    $0x2,%rdx
    6827:	48 01 ca             	add    %rcx,%rdx
    682a:	48 01 d0             	add    %rdx,%rax
    682d:	48 01 f0             	add    %rsi,%rax
    6830:	48 8d 14 00          	lea    (%rax,%rax,1),%rdx
    6834:	48 8d 05 05 98 00 00 	lea    0x9805(%rip),%rax        # 10040 <g_32>
    683b:	0f b7 04 02          	movzwl (%rdx,%rax,1),%eax
    683f:	0f b6 15 e3 99 00 00 	movzbl 0x99e3(%rip),%edx        # 10229 <g_46+0x9>
    6846:	0f b6 d2             	movzbl %dl,%edx
    6849:	8d 7a 02             	lea    0x2(%rdx),%edi
    684c:	0f b6 15 d5 99 00 00 	movzbl 0x99d5(%rip),%edx        # 10228 <g_46+0x8>
    6853:	0f be ca             	movsbl %dl,%ecx
    6856:	0f b6 15 cb 99 00 00 	movzbl 0x99cb(%rip),%edx        # 10228 <g_46+0x8>
    685d:	0f be d2             	movsbl %dl,%edx
    6860:	44 8d 42 01          	lea    0x1(%rdx),%r8d
    6864:	44 0f bf c8          	movswl %ax,%r9d
    6868:	4d 63 d0             	movslq %r8d,%r10
    686b:	48 63 c7             	movslq %edi,%rax
    686e:	48 63 f1             	movslq %ecx,%rsi
    6871:	48 89 c2             	mov    %rax,%rdx
    6874:	48 01 d2             	add    %rdx,%rdx
    6877:	48 01 c2             	add    %rax,%rdx
    687a:	48 8d 04 d5 00 00 00 	lea    0x0(,%rdx,8),%rax
    6881:	00 
    6882:	48 89 c2             	mov    %rax,%rdx
    6885:	48 89 f0             	mov    %rsi,%rax
    6888:	48 01 c0             	add    %rax,%rax
    688b:	48 01 f0             	add    %rsi,%rax
    688e:	48 01 c0             	add    %rax,%rax
    6891:	48 01 d0             	add    %rdx,%rax
    6894:	4c 01 d0             	add    %r10,%rax
    6897:	48 8d 14 85 00 00 00 	lea    0x0(,%rax,4),%rdx
    689e:	00 
    689f:	48 8d 05 ba 99 00 00 	lea    0x99ba(%rip),%rax        # 10260 <g_76>
    68a6:	44 89 0c 02          	mov    %r9d,(%rdx,%rax,1)
    68aa:	49 63 f0             	movslq %r8d,%rsi
    68ad:	48 63 c7             	movslq %edi,%rax
    68b0:	48 63 c9             	movslq %ecx,%rcx
    68b3:	48 89 c2             	mov    %rax,%rdx
    68b6:	48 01 d2             	add    %rdx,%rdx
    68b9:	48 01 c2             	add    %rax,%rdx
    68bc:	48 8d 04 d5 00 00 00 	lea    0x0(,%rdx,8),%rax
    68c3:	00 
    68c4:	48 89 c2             	mov    %rax,%rdx
    68c7:	48 89 c8             	mov    %rcx,%rax
    68ca:	48 01 c0             	add    %rax,%rax
    68cd:	48 01 c8             	add    %rcx,%rax
    68d0:	48 01 c0             	add    %rax,%rax
    68d3:	48 01 d0             	add    %rdx,%rax
    68d6:	48 01 f0             	add    %rsi,%rax
    68d9:	48 8d 14 85 00 00 00 	lea    0x0(,%rax,4),%rdx
    68e0:	00 
    68e1:	48 8d 05 78 99 00 00 	lea    0x9978(%rip),%rax        # 10260 <g_76>
    68e8:	8b 04 02             	mov    (%rdx,%rax,1),%eax
    68eb:	85 c0                	test   %eax,%eax
    68ed:	74 6f                	je     695e <func_2+0xb38>
    68ef:	48 8b 05 42 b8 00 00 	mov    0xb842(%rip),%rax        # 12138 <g_114>
    68f6:	48 8b 95 b8 ec ff ff 	mov    -0x1348(%rbp),%rdx
    68fd:	48 89 10             	mov    %rdx,(%rax)
    6900:	48 8b 05 31 99 00 00 	mov    0x9931(%rip),%rax        # 10238 <g_70>
    6907:	0f be 95 e4 eb ff ff 	movsbl -0x141c(%rbp),%edx
    690e:	0f b6 0d 14 99 00 00 	movzbl 0x9914(%rip),%ecx        # 10229 <g_46+0x9>
    6915:	0f b6 c9             	movzbl %cl,%ecx
    6918:	83 c1 01             	add    $0x1,%ecx
    691b:	48 63 f1             	movslq %ecx,%rsi
    691e:	48 63 ca             	movslq %edx,%rcx
    6921:	48 89 c2             	mov    %rax,%rdx
    6924:	48 01 d2             	add    %rdx,%rdx
    6927:	48 01 c2             	add    %rax,%rdx
    692a:	48 8d 04 d5 00 00 00 	lea    0x0(,%rdx,8),%rax
    6931:	00 
    6932:	48 89 c2             	mov    %rax,%rdx
    6935:	48 89 c8             	mov    %rcx,%rax
    6938:	48 01 c0             	add    %rax,%rax
    693b:	48 01 c8             	add    %rcx,%rax
    693e:	48 01 c0             	add    %rax,%rax
    6941:	48 01 d0             	add    %rdx,%rax
    6944:	48 01 f0             	add    %rsi,%rax
    6947:	48 8d 14 85 00 00 00 	lea    0x0(,%rax,4),%rdx
    694e:	00 
    694f:	48 8d 05 0a 99 00 00 	lea    0x990a(%rip),%rax        # 10260 <g_76>
    6956:	8b 04 02             	mov    (%rdx,%rax,1),%eax
    6959:	e9 69 12 00 00       	jmpq   7bc7 <func_2+0x1da1>
    695e:	48 8d 05 cb 98 00 00 	lea    0x98cb(%rip),%rax        # 10230 <g_63>
    6965:	48 89 85 30 ed ff ff 	mov    %rax,-0x12d0(%rbp)
    696c:	48 8d 85 20 ec ff ff 	lea    -0x13e0(%rbp),%rax
    6973:	48 89 85 38 ed ff ff 	mov    %rax,-0x12c8(%rbp)
    697a:	48 c7 85 40 ed ff ff 	movq   $0x0,-0x12c0(%rbp)
    6981:	00 00 00 00 
    6985:	c7 85 84 ed ff ff 5c 	movl   $0x9b4df65c,-0x127c(%rbp)
    698c:	f6 4d 9b 
    698f:	0f b6 05 93 98 00 00 	movzbl 0x9893(%rip),%eax        # 10229 <g_46+0x9>
    6996:	0f b6 c0             	movzbl %al,%eax
    6999:	8d 50 02             	lea    0x2(%rax),%edx
    699c:	0f b6 05 85 98 00 00 	movzbl 0x9885(%rip),%eax        # 10228 <g_46+0x8>
    69a3:	0f be c8             	movsbl %al,%ecx
    69a6:	0f b6 05 7b 98 00 00 	movzbl 0x987b(%rip),%eax        # 10228 <g_46+0x8>
    69ad:	0f be c0             	movsbl %al,%eax
    69b0:	83 c0 01             	add    $0x1,%eax
    69b3:	48 63 f0             	movslq %eax,%rsi
    69b6:	48 63 c2             	movslq %edx,%rax
    69b9:	48 89 c2             	mov    %rax,%rdx
    69bc:	48 01 d2             	add    %rdx,%rdx
    69bf:	48 01 c2             	add    %rax,%rdx
    69c2:	48 8d 04 d5 00 00 00 	lea    0x0(,%rdx,8),%rax
    69c9:	00 
    69ca:	48 89 c2             	mov    %rax,%rdx
    69cd:	48 63 c9             	movslq %ecx,%rcx
    69d0:	48 89 c8             	mov    %rcx,%rax
    69d3:	48 01 c0             	add    %rax,%rax
    69d6:	48 01 c8             	add    %rcx,%rax
    69d9:	48 01 c0             	add    %rax,%rax
    69dc:	48 01 d0             	add    %rdx,%rax
    69df:	48 01 f0             	add    %rsi,%rax
    69e2:	48 8d 14 85 00 00 00 	lea    0x0(,%rax,4),%rdx
    69e9:	00 
    69ea:	48 8d 05 6f 98 00 00 	lea    0x986f(%rip),%rax        # 10260 <g_76>
    69f1:	48 01 d0             	add    %rdx,%rax
    69f4:	48 89 85 48 ed ff ff 	mov    %rax,-0x12b8(%rbp)
    69fb:	0f b6 05 27 98 00 00 	movzbl 0x9827(%rip),%eax        # 10229 <g_46+0x9>
    6a02:	0f b6 c0             	movzbl %al,%eax
    6a05:	8d 50 02             	lea    0x2(%rax),%edx
    6a08:	0f b6 05 19 98 00 00 	movzbl 0x9819(%rip),%eax        # 10228 <g_46+0x8>
    6a0f:	0f be c8             	movsbl %al,%ecx
    6a12:	0f b6 05 0f 98 00 00 	movzbl 0x980f(%rip),%eax        # 10228 <g_46+0x8>
    6a19:	0f be c0             	movsbl %al,%eax
    6a1c:	83 c0 01             	add    $0x1,%eax
    6a1f:	48 63 f0             	movslq %eax,%rsi
    6a22:	48 63 c2             	movslq %edx,%rax
    6a25:	48 89 c2             	mov    %rax,%rdx
    6a28:	48 01 d2             	add    %rdx,%rdx
    6a2b:	48 01 c2             	add    %rax,%rdx
    6a2e:	48 8d 04 d5 00 00 00 	lea    0x0(,%rdx,8),%rax
    6a35:	00 
    6a36:	48 89 c2             	mov    %rax,%rdx
    6a39:	48 63 c9             	movslq %ecx,%rcx
    6a3c:	48 89 c8             	mov    %rcx,%rax
    6a3f:	48 01 c0             	add    %rax,%rax
    6a42:	48 01 c8             	add    %rcx,%rax
    6a45:	48 01 c0             	add    %rax,%rax
    6a48:	48 01 d0             	add    %rdx,%rax
    6a4b:	48 01 f0             	add    %rsi,%rax
    6a4e:	48 8d 14 85 00 00 00 	lea    0x0(,%rax,4),%rdx
    6a55:	00 
    6a56:	48 8d 05 03 98 00 00 	lea    0x9803(%rip),%rax        # 10260 <g_76>
    6a5d:	48 01 d0             	add    %rdx,%rax
    6a60:	48 89 85 50 ed ff ff 	mov    %rax,-0x12b0(%rbp)
    6a67:	48 8d 85 20 ec ff ff 	lea    -0x13e0(%rbp),%rax
    6a6e:	48 89 85 58 ed ff ff 	mov    %rax,-0x12a8(%rbp)
    6a75:	48 c7 85 60 ed ff ff 	movq   $0x0,-0x12a0(%rbp)
    6a7c:	00 00 00 00 
    6a80:	48 8d 05 a9 97 00 00 	lea    0x97a9(%rip),%rax        # 10230 <g_63>
    6a87:	48 89 85 68 ed ff ff 	mov    %rax,-0x1298(%rbp)
    6a8e:	48 c7 85 70 ed ff ff 	movq   $0x0,-0x1290(%rbp)
    6a95:	00 00 00 00 
    6a99:	48 8d 85 84 ed ff ff 	lea    -0x127c(%rbp),%rax
    6aa0:	48 89 85 78 ed ff ff 	mov    %rax,-0x1288(%rbp)
    6aa7:	48 8d 05 a2 9a 00 00 	lea    0x9aa2(%rip),%rax        # 10550 <g_76+0x2f0>
    6aae:	48 89 85 b0 f2 ff ff 	mov    %rax,-0xd50(%rbp)
    6ab5:	48 c7 85 b8 f2 ff ff 	movq   $0x0,-0xd48(%rbp)
    6abc:	00 00 00 00 
    6ac0:	48 8d 85 84 ed ff ff 	lea    -0x127c(%rbp),%rax
    6ac7:	48 89 85 c0 f2 ff ff 	mov    %rax,-0xd40(%rbp)
    6ace:	48 8d 85 84 ed ff ff 	lea    -0x127c(%rbp),%rax
    6ad5:	48 89 85 c8 f2 ff ff 	mov    %rax,-0xd38(%rbp)
    6adc:	48 c7 85 d0 f2 ff ff 	movq   $0x0,-0xd30(%rbp)
    6ae3:	00 00 00 00 
    6ae7:	48 8d 05 62 9a 00 00 	lea    0x9a62(%rip),%rax        # 10550 <g_76+0x2f0>
    6aee:	48 89 85 d8 f2 ff ff 	mov    %rax,-0xd28(%rbp)
    6af5:	48 8d 85 20 ec ff ff 	lea    -0x13e0(%rbp),%rax
    6afc:	48 89 85 e0 f2 ff ff 	mov    %rax,-0xd20(%rbp)
    6b03:	48 c7 85 e8 f2 ff ff 	movq   $0x0,-0xd18(%rbp)
    6b0a:	00 00 00 00 
    6b0e:	48 8d 85 20 ec ff ff 	lea    -0x13e0(%rbp),%rax
    6b15:	48 89 85 f0 f2 ff ff 	mov    %rax,-0xd10(%rbp)
    6b1c:	48 8d 05 0d 97 00 00 	lea    0x970d(%rip),%rax        # 10230 <g_63>
    6b23:	48 89 85 f8 f2 ff ff 	mov    %rax,-0xd08(%rbp)
    6b2a:	48 8d 05 fb 96 00 00 	lea    0x96fb(%rip),%rax        # 1022c <g_48>
    6b31:	48 89 85 00 f3 ff ff 	mov    %rax,-0xd00(%rbp)
    6b38:	48 8d 05 f1 96 00 00 	lea    0x96f1(%rip),%rax        # 10230 <g_63>
    6b3f:	48 89 85 08 f3 ff ff 	mov    %rax,-0xcf8(%rbp)
    6b46:	48 8d 05 e3 96 00 00 	lea    0x96e3(%rip),%rax        # 10230 <g_63>
    6b4d:	48 89 85 10 f3 ff ff 	mov    %rax,-0xcf0(%rbp)
    6b54:	48 8d 05 d1 96 00 00 	lea    0x96d1(%rip),%rax        # 1022c <g_48>
    6b5b:	48 89 85 18 f3 ff ff 	mov    %rax,-0xce8(%rbp)
    6b62:	48 8d 05 c7 96 00 00 	lea    0x96c7(%rip),%rax        # 10230 <g_63>
    6b69:	48 89 85 20 f3 ff ff 	mov    %rax,-0xce0(%rbp)
    6b70:	48 8d 05 b5 96 00 00 	lea    0x96b5(%rip),%rax        # 1022c <g_48>
    6b77:	48 89 85 28 f3 ff ff 	mov    %rax,-0xcd8(%rbp)
    6b7e:	48 8d 05 a7 96 00 00 	lea    0x96a7(%rip),%rax        # 1022c <g_48>
    6b85:	48 89 85 30 f3 ff ff 	mov    %rax,-0xcd0(%rbp)
    6b8c:	48 8d 05 99 96 00 00 	lea    0x9699(%rip),%rax        # 1022c <g_48>
    6b93:	48 89 85 38 f3 ff ff 	mov    %rax,-0xcc8(%rbp)
    6b9a:	48 8d 05 af 99 00 00 	lea    0x99af(%rip),%rax        # 10550 <g_76+0x2f0>
    6ba1:	48 89 85 40 f3 ff ff 	mov    %rax,-0xcc0(%rbp)
    6ba8:	48 c7 85 48 f3 ff ff 	movq   $0x0,-0xcb8(%rbp)
    6baf:	00 00 00 00 
    6bb3:	48 8d 85 84 ed ff ff 	lea    -0x127c(%rbp),%rax
    6bba:	48 89 85 50 f3 ff ff 	mov    %rax,-0xcb0(%rbp)
    6bc1:	48 8d 85 84 ed ff ff 	lea    -0x127c(%rbp),%rax
    6bc8:	48 89 85 58 f3 ff ff 	mov    %rax,-0xca8(%rbp)
    6bcf:	48 c7 85 60 f3 ff ff 	movq   $0x0,-0xca0(%rbp)
    6bd6:	00 00 00 00 
    6bda:	48 8d 05 6f 99 00 00 	lea    0x996f(%rip),%rax        # 10550 <g_76+0x2f0>
    6be1:	48 89 85 68 f3 ff ff 	mov    %rax,-0xc98(%rbp)
    6be8:	48 8d 85 20 ec ff ff 	lea    -0x13e0(%rbp),%rax
    6bef:	48 89 85 70 f3 ff ff 	mov    %rax,-0xc90(%rbp)
    6bf6:	48 c7 85 78 f3 ff ff 	movq   $0x0,-0xc88(%rbp)
    6bfd:	00 00 00 00 
    6c01:	48 8d 85 20 ec ff ff 	lea    -0x13e0(%rbp),%rax
    6c08:	48 89 85 80 f3 ff ff 	mov    %rax,-0xc80(%rbp)
    6c0f:	48 8d 05 1a 96 00 00 	lea    0x961a(%rip),%rax        # 10230 <g_63>
    6c16:	48 89 85 88 f3 ff ff 	mov    %rax,-0xc78(%rbp)
    6c1d:	48 8d 05 08 96 00 00 	lea    0x9608(%rip),%rax        # 1022c <g_48>
    6c24:	48 89 85 90 f3 ff ff 	mov    %rax,-0xc70(%rbp)
    6c2b:	48 8d 05 fe 95 00 00 	lea    0x95fe(%rip),%rax        # 10230 <g_63>
    6c32:	48 89 85 98 f3 ff ff 	mov    %rax,-0xc68(%rbp)
    6c39:	48 8d 05 f0 95 00 00 	lea    0x95f0(%rip),%rax        # 10230 <g_63>
    6c40:	48 89 85 a0 f3 ff ff 	mov    %rax,-0xc60(%rbp)
    6c47:	48 8d 05 de 95 00 00 	lea    0x95de(%rip),%rax        # 1022c <g_48>
    6c4e:	48 89 85 a8 f3 ff ff 	mov    %rax,-0xc58(%rbp)
    6c55:	48 8d 05 d4 95 00 00 	lea    0x95d4(%rip),%rax        # 10230 <g_63>
    6c5c:	48 89 85 b0 f3 ff ff 	mov    %rax,-0xc50(%rbp)
    6c63:	48 8d 05 c2 95 00 00 	lea    0x95c2(%rip),%rax        # 1022c <g_48>
    6c6a:	48 89 85 b8 f3 ff ff 	mov    %rax,-0xc48(%rbp)
    6c71:	48 8d 05 b4 95 00 00 	lea    0x95b4(%rip),%rax        # 1022c <g_48>
    6c78:	48 89 85 c0 f3 ff ff 	mov    %rax,-0xc40(%rbp)
    6c7f:	48 8d 05 a6 95 00 00 	lea    0x95a6(%rip),%rax        # 1022c <g_48>
    6c86:	48 89 85 c8 f3 ff ff 	mov    %rax,-0xc38(%rbp)
    6c8d:	48 8d 05 bc 98 00 00 	lea    0x98bc(%rip),%rax        # 10550 <g_76+0x2f0>
    6c94:	48 89 85 d0 f3 ff ff 	mov    %rax,-0xc30(%rbp)
    6c9b:	48 c7 85 d8 f3 ff ff 	movq   $0x0,-0xc28(%rbp)
    6ca2:	00 00 00 00 
    6ca6:	48 8d 85 84 ed ff ff 	lea    -0x127c(%rbp),%rax
    6cad:	48 89 85 e0 f3 ff ff 	mov    %rax,-0xc20(%rbp)
    6cb4:	48 8d 85 84 ed ff ff 	lea    -0x127c(%rbp),%rax
    6cbb:	48 89 85 e8 f3 ff ff 	mov    %rax,-0xc18(%rbp)
    6cc2:	48 c7 85 f0 f3 ff ff 	movq   $0x0,-0xc10(%rbp)
    6cc9:	00 00 00 00 
    6ccd:	48 8d 05 7c 98 00 00 	lea    0x987c(%rip),%rax        # 10550 <g_76+0x2f0>
    6cd4:	48 89 85 f8 f3 ff ff 	mov    %rax,-0xc08(%rbp)
    6cdb:	48 8d 85 20 ec ff ff 	lea    -0x13e0(%rbp),%rax
    6ce2:	48 89 85 00 f4 ff ff 	mov    %rax,-0xc00(%rbp)
    6ce9:	48 c7 85 08 f4 ff ff 	movq   $0x0,-0xbf8(%rbp)
    6cf0:	00 00 00 00 
    6cf4:	48 8d 85 20 ec ff ff 	lea    -0x13e0(%rbp),%rax
    6cfb:	48 89 85 10 f4 ff ff 	mov    %rax,-0xbf0(%rbp)
    6d02:	48 8d 05 27 95 00 00 	lea    0x9527(%rip),%rax        # 10230 <g_63>
    6d09:	48 89 85 18 f4 ff ff 	mov    %rax,-0xbe8(%rbp)
    6d10:	48 8d 05 15 95 00 00 	lea    0x9515(%rip),%rax        # 1022c <g_48>
    6d17:	48 89 85 20 f4 ff ff 	mov    %rax,-0xbe0(%rbp)
    6d1e:	48 8d 05 0b 95 00 00 	lea    0x950b(%rip),%rax        # 10230 <g_63>
    6d25:	48 89 85 28 f4 ff ff 	mov    %rax,-0xbd8(%rbp)
    6d2c:	48 8d 05 fd 94 00 00 	lea    0x94fd(%rip),%rax        # 10230 <g_63>
    6d33:	48 89 85 30 f4 ff ff 	mov    %rax,-0xbd0(%rbp)
    6d3a:	48 8d 05 eb 94 00 00 	lea    0x94eb(%rip),%rax        # 1022c <g_48>
    6d41:	48 89 85 38 f4 ff ff 	mov    %rax,-0xbc8(%rbp)
    6d48:	48 8d 05 e1 94 00 00 	lea    0x94e1(%rip),%rax        # 10230 <g_63>
    6d4f:	48 89 85 40 f4 ff ff 	mov    %rax,-0xbc0(%rbp)
    6d56:	48 8d 05 cf 94 00 00 	lea    0x94cf(%rip),%rax        # 1022c <g_48>
    6d5d:	48 89 85 48 f4 ff ff 	mov    %rax,-0xbb8(%rbp)
    6d64:	48 8d 05 c1 94 00 00 	lea    0x94c1(%rip),%rax        # 1022c <g_48>
    6d6b:	48 89 85 50 f4 ff ff 	mov    %rax,-0xbb0(%rbp)
    6d72:	48 8d 05 b3 94 00 00 	lea    0x94b3(%rip),%rax        # 1022c <g_48>
    6d79:	48 89 85 58 f4 ff ff 	mov    %rax,-0xba8(%rbp)
    6d80:	48 8d 05 c9 97 00 00 	lea    0x97c9(%rip),%rax        # 10550 <g_76+0x2f0>
    6d87:	48 89 85 60 f4 ff ff 	mov    %rax,-0xba0(%rbp)
    6d8e:	48 c7 85 68 f4 ff ff 	movq   $0x0,-0xb98(%rbp)
    6d95:	00 00 00 00 
    6d99:	48 8d 85 84 ed ff ff 	lea    -0x127c(%rbp),%rax
    6da0:	48 89 85 70 f4 ff ff 	mov    %rax,-0xb90(%rbp)
    6da7:	48 8d 85 84 ed ff ff 	lea    -0x127c(%rbp),%rax
    6dae:	48 89 85 78 f4 ff ff 	mov    %rax,-0xb88(%rbp)
    6db5:	48 c7 85 80 f4 ff ff 	movq   $0x0,-0xb80(%rbp)
    6dbc:	00 00 00 00 
    6dc0:	48 8d 05 89 97 00 00 	lea    0x9789(%rip),%rax        # 10550 <g_76+0x2f0>
    6dc7:	48 89 85 88 f4 ff ff 	mov    %rax,-0xb78(%rbp)
    6dce:	48 8d 85 20 ec ff ff 	lea    -0x13e0(%rbp),%rax
    6dd5:	48 89 85 90 f4 ff ff 	mov    %rax,-0xb70(%rbp)
    6ddc:	48 c7 85 98 f4 ff ff 	movq   $0x0,-0xb68(%rbp)
    6de3:	00 00 00 00 
    6de7:	48 8d 85 20 ec ff ff 	lea    -0x13e0(%rbp),%rax
    6dee:	48 89 85 a0 f4 ff ff 	mov    %rax,-0xb60(%rbp)
    6df5:	48 8b 85 28 ed ff ff 	mov    -0x12d8(%rbp),%rax
    6dfc:	48 89 c7             	mov    %rax,%rdi
    6dff:	e8 cf 1b 00 00       	callq  89d3 <func_119>
    6e04:	41 89 c6             	mov    %eax,%r14d
    6e07:	0f b6 05 33 94 00 00 	movzbl 0x9433(%rip),%eax        # 10241 <g_70+0x9>
    6e0e:	44 0f b6 e0          	movzbl %al,%r12d
    6e12:	8b 85 44 ec ff ff    	mov    -0x13bc(%rbp),%eax
    6e18:	48 63 d8             	movslq %eax,%rbx
    6e1b:	0f b7 05 34 93 00 00 	movzwl 0x9334(%rip),%eax        # 10156 <g_32+0x116>
    6e22:	44 0f bf e8          	movswl %ax,%r13d
    6e26:	48 8b 85 e8 eb ff ff 	mov    -0x1418(%rbp),%rax
    6e2d:	48 89 c1             	mov    %rax,%rcx
    6e30:	0f b6 05 54 9a 00 00 	movzbl 0x9a54(%rip),%eax        # 1088b <g_301+0xb>
    6e37:	83 e0 f0             	and    $0xfffffff0,%eax
    6e3a:	88 05 4b 9a 00 00    	mov    %al,0x9a4b(%rip)        # 1088b <g_301+0xb>
    6e40:	0f b6 85 f1 eb ff ff 	movzbl -0x140f(%rbp),%eax
    6e47:	0f b6 d0             	movzbl %al,%edx
    6e4a:	48 83 bd c0 ec ff ff 	cmpq   $0x0,-0x1340(%rbp)
    6e51:	00 
    6e52:	0f 95 c0             	setne  %al
    6e55:	0f b6 c0             	movzbl %al,%eax
    6e58:	39 c2                	cmp    %eax,%edx
    6e5a:	0f 95 c0             	setne  %al
    6e5d:	0f b6 c0             	movzbl %al,%eax
    6e60:	48 89 ce             	mov    %rcx,%rsi
    6e63:	48 89 c7             	mov    %rax,%rdi
    6e66:	e8 15 e2 ff ff       	callq  5080 <safe_mod_func_uint64_t_u_u>
    6e6b:	48 85 c0             	test   %rax,%rax
    6e6e:	74 07                	je     6e77 <func_2+0x1051>
    6e70:	ba 01 00 00 00       	mov    $0x1,%edx
    6e75:	eb 05                	jmp    6e7c <func_2+0x1056>
    6e77:	ba 00 00 00 00       	mov    $0x0,%edx
    6e7c:	8b 85 20 ec ff ff    	mov    -0x13e0(%rbp),%eax
    6e82:	39 c2                	cmp    %eax,%edx
    6e84:	75 0a                	jne    6e90 <func_2+0x106a>
    6e86:	8b 85 fc eb ff ff    	mov    -0x1404(%rbp),%eax
    6e8c:	85 c0                	test   %eax,%eax
    6e8e:	74 07                	je     6e97 <func_2+0x1071>
    6e90:	b8 01 00 00 00       	mov    $0x1,%eax
    6e95:	eb 05                	jmp    6e9c <func_2+0x1076>
    6e97:	b8 00 00 00 00       	mov    $0x0,%eax
    6e9c:	48 98                	cltq   
    6e9e:	48 39 85 d8 eb ff ff 	cmp    %rax,-0x1428(%rbp)
    6ea5:	0f 97 c0             	seta   %al
    6ea8:	0f b6 c0             	movzbl %al,%eax
    6eab:	be ff ff ff ff       	mov    $0xffffffff,%esi
    6eb0:	89 c7                	mov    %eax,%edi
    6eb2:	e8 7a d3 ff ff       	callq  4231 <safe_mod_func_int8_t_s_s>
    6eb7:	0f be c0             	movsbl %al,%eax
    6eba:	44 09 e8             	or     %r13d,%eax
    6ebd:	48 63 d0             	movslq %eax,%rdx
    6ec0:	48 8b 85 e8 eb ff ff 	mov    -0x1418(%rbp),%rax
    6ec7:	48 39 c2             	cmp    %rax,%rdx
    6eca:	0f 9e c0             	setle  %al
    6ecd:	0f b6 c0             	movzbl %al,%eax
    6ed0:	48 89 de             	mov    %rbx,%rsi
    6ed3:	48 89 c7             	mov    %rax,%rdi
    6ed6:	e8 d9 da ff ff       	callq  49b4 <safe_mod_func_int64_t_s_s>
    6edb:	49 39 c4             	cmp    %rax,%r12
    6ede:	0f 9e c0             	setle  %al
    6ee1:	44 21 f0             	and    %r14d,%eax
    6ee4:	0f be c0             	movsbl %al,%eax
    6ee7:	be a6 ff ff ff       	mov    $0xffffffa6,%esi
    6eec:	89 c7                	mov    %eax,%edi
    6eee:	e8 1f d3 ff ff       	callq  4212 <safe_mul_func_int8_t_s_s>
    6ef3:	0f be c0             	movsbl %al,%eax
    6ef6:	89 c6                	mov    %eax,%esi
    6ef8:	bf ff ff ff ff       	mov    $0xffffffff,%edi
    6efd:	e8 b1 d4 ff ff       	callq  43b3 <safe_add_func_int16_t_s_s>
    6f02:	0f bf d0             	movswl %ax,%edx
    6f05:	48 8b 85 28 ed ff ff 	mov    -0x12d8(%rbp),%rax
    6f0c:	89 10                	mov    %edx,(%rax)
    6f0e:	48 8b 85 28 ed ff ff 	mov    -0x12d8(%rbp),%rax
    6f15:	8b 10                	mov    (%rax),%edx
    6f17:	8b 05 8b 99 00 00    	mov    0x998b(%rip),%eax        # 108a8 <g_421+0x8>
    6f1d:	c1 e0 08             	shl    $0x8,%eax
    6f20:	c1 f8 08             	sar    $0x8,%eax
    6f23:	31 d0                	xor    %edx,%eax
    6f25:	c1 e0 08             	shl    $0x8,%eax
    6f28:	c1 f8 08             	sar    $0x8,%eax
    6f2b:	25 ff ff ff 00       	and    $0xffffff,%eax
    6f30:	89 c2                	mov    %eax,%edx
    6f32:	8b 05 70 99 00 00    	mov    0x9970(%rip),%eax        # 108a8 <g_421+0x8>
    6f38:	25 00 00 00 ff       	and    $0xff000000,%eax
    6f3d:	09 d0                	or     %edx,%eax
    6f3f:	89 05 63 99 00 00    	mov    %eax,0x9963(%rip)        # 108a8 <g_421+0x8>
    6f45:	0f b7 05 70 99 00 00 	movzwl 0x9970(%rip),%eax        # 108bc <g_437>
    6f4c:	83 c0 01             	add    $0x1,%eax
    6f4f:	66 89 05 66 99 00 00 	mov    %ax,0x9966(%rip)        # 108bc <g_437>
    6f56:	8b 85 20 ec ff ff    	mov    -0x13e0(%rbp),%eax
    6f5c:	85 c0                	test   %eax,%eax
    6f5e:	75 1f                	jne    6f7f <func_2+0x1159>
    6f60:	0f b6 85 e4 eb ff ff 	movzbl -0x141c(%rbp),%eax
    6f67:	83 e8 01             	sub    $0x1,%eax
    6f6a:	88 85 e4 eb ff ff    	mov    %al,-0x141c(%rbp)
    6f70:	80 bd e4 eb ff ff 00 	cmpb   $0x0,-0x141c(%rbp)
    6f77:	0f 8f 6c f8 ff ff    	jg     67e9 <func_2+0x9c3>
    6f7d:	eb 01                	jmp    6f80 <func_2+0x115a>
    6f7f:	90                   	nop
    6f80:	0f b6 05 a2 92 00 00 	movzbl 0x92a2(%rip),%eax        # 10229 <g_46+0x9>
    6f87:	83 c0 01             	add    $0x1,%eax
    6f8a:	88 05 99 92 00 00    	mov    %al,0x9299(%rip)        # 10229 <g_46+0x9>
    6f90:	0f b6 05 92 92 00 00 	movzbl 0x9292(%rip),%eax        # 10229 <g_46+0x9>
    6f97:	3c 03                	cmp    $0x3,%al
    6f99:	0f 86 26 f8 ff ff    	jbe    67c5 <func_2+0x99f>
    6f9f:	48 c7 05 7e 90 00 00 	movq   $0x0,0x907e(%rip)        # 10028 <g_24>
    6fa6:	00 00 00 00 
    6faa:	90                   	nop
    6fab:	48 8b 05 76 90 00 00 	mov    0x9076(%rip),%rax        # 10028 <g_24>
    6fb2:	48 83 f8 03          	cmp    $0x3,%rax
    6fb6:	77 51                	ja     7009 <func_2+0x11e3>
    6fb8:	48 8b 05 69 90 00 00 	mov    0x9069(%rip),%rax        # 10028 <g_24>
    6fbf:	48 8d 50 03          	lea    0x3(%rax),%rdx
    6fc3:	48 8b 0d 5e 90 00 00 	mov    0x905e(%rip),%rcx        # 10028 <g_24>
    6fca:	0f b6 05 57 92 00 00 	movzbl 0x9257(%rip),%eax        # 10228 <g_46+0x8>
    6fd1:	0f be c0             	movsbl %al,%eax
    6fd4:	48 63 f0             	movslq %eax,%rsi
    6fd7:	48 89 d0             	mov    %rdx,%rax
    6fda:	48 c1 e0 04          	shl    $0x4,%rax
    6fde:	48 29 d0             	sub    %rdx,%rax
    6fe1:	48 01 c0             	add    %rax,%rax
    6fe4:	48 89 ca             	mov    %rcx,%rdx
    6fe7:	48 c1 e2 02          	shl    $0x2,%rdx
    6feb:	48 01 ca             	add    %rcx,%rdx
    6fee:	48 01 d0             	add    %rdx,%rax
    6ff1:	48 01 f0             	add    %rsi,%rax
    6ff4:	48 8d 14 00          	lea    (%rax,%rax,1),%rdx
    6ff8:	48 8d 05 41 90 00 00 	lea    0x9041(%rip),%rax        # 10040 <g_32>
    6fff:	0f b7 04 02          	movzwl (%rdx,%rax,1),%eax
    7003:	98                   	cwtl   
    7004:	e9 be 0b 00 00       	jmpq   7bc7 <func_2+0x1da1>
    7009:	0f b6 05 18 92 00 00 	movzbl 0x9218(%rip),%eax        # 10228 <g_46+0x8>
    7010:	83 e8 01             	sub    $0x1,%eax
    7013:	88 05 0f 92 00 00    	mov    %al,0x920f(%rip)        # 10228 <g_46+0x8>
    7019:	0f b6 05 08 92 00 00 	movzbl 0x9208(%rip),%eax        # 10228 <g_46+0x8>
    7020:	84 c0                	test   %al,%al
    7022:	0f 8f 91 f7 ff ff    	jg     67b9 <func_2+0x993>
    7028:	c7 85 f8 eb ff ff 00 	movl   $0x0,-0x1408(%rbp)
    702f:	00 00 00 
    7032:	e9 8d 00 00 00       	jmpq   70c4 <func_2+0x129e>
    7037:	48 b8 19 b8 1d b9 7a 	movabs $0xebbcec7ab91db819,%rax
    703e:	ec bc eb 
    7041:	48 89 85 84 ed ff ff 	mov    %rax,-0x127c(%rbp)
    7048:	c6 85 8c ed ff ff 1f 	movb   $0x1f,-0x1274(%rbp)
    704f:	c6 85 8d ed ff ff 00 	movb   $0x0,-0x1273(%rbp)
    7056:	48 8b 05 4b b0 00 00 	mov    0xb04b(%rip),%rax        # 120a8 <g_112>
    705d:	48 8b 95 84 ed ff ff 	mov    -0x127c(%rbp),%rdx
    7064:	48 89 10             	mov    %rdx,(%rax)
    7067:	0f b7 95 8c ed ff ff 	movzwl -0x1274(%rbp),%edx
    706e:	66 89 50 08          	mov    %dx,0x8(%rax)
    7072:	c6 85 8d ed ff ff 00 	movb   $0x0,-0x1273(%rbp)
    7079:	eb 37                	jmp    70b2 <func_2+0x128c>
    707b:	48 c7 85 84 ed ff ff 	movq   $0x0,-0x127c(%rbp)
    7082:	00 00 00 00 
    7086:	90                   	nop
    7087:	48 8b 85 84 ed ff ff 	mov    -0x127c(%rbp),%rax
    708e:	48 83 f8 04          	cmp    $0x4,%rax
    7092:	7f 0e                	jg     70a2 <func_2+0x127c>
    7094:	48 8b 05 bd b0 00 00 	mov    0xb0bd(%rip),%rax        # 12158 <g_199>
    709b:	8b 00                	mov    (%rax),%eax
    709d:	e9 25 0b 00 00       	jmpq   7bc7 <func_2+0x1da1>
    70a2:	0f b6 85 8d ed ff ff 	movzbl -0x1273(%rbp),%eax
    70a9:	83 c0 01             	add    $0x1,%eax
    70ac:	88 85 8d ed ff ff    	mov    %al,-0x1273(%rbp)
    70b2:	0f b6 85 8d ed ff ff 	movzbl -0x1273(%rbp),%eax
    70b9:	3c 04                	cmp    $0x4,%al
    70bb:	76 be                	jbe    707b <func_2+0x1255>
    70bd:	83 85 f8 eb ff ff 01 	addl   $0x1,-0x1408(%rbp)
    70c4:	83 bd f8 eb ff ff 04 	cmpl   $0x4,-0x1408(%rbp)
    70cb:	0f 86 66 ff ff ff    	jbe    7037 <func_2+0x1211>
    70d1:	48 8b 05 90 b0 00 00 	mov    0xb090(%rip),%rax        # 12168 <g_441>
    70d8:	8b 95 f8 eb ff ff    	mov    -0x1408(%rbp),%edx
    70de:	89 10                	mov    %edx,(%rax)
    70e0:	c7 05 42 91 00 00 00 	movl   $0x0,0x9142(%rip)        # 1022c <g_48>
    70e7:	00 00 00 
    70ea:	e9 9e 0a 00 00       	jmpq   7b8d <func_2+0x1d67>
    70ef:	c6 85 0e ec ff ff 01 	movb   $0x1,-0x13f2(%rbp)
    70f6:	c7 85 28 ec ff ff 40 	movl   $0x1cc98240,-0x13d8(%rbp)
    70fd:	82 c9 1c 
    7100:	66 c7 85 14 ec ff ff 	movw   $0xffff,-0x13ec(%rbp)
    7107:	ff ff 
    7109:	48 c7 05 14 8f 00 00 	movq   $0x0,0x8f14(%rip)        # 10028 <g_24>
    7110:	00 00 00 00 
    7114:	e9 48 02 00 00       	jmpq   7361 <func_2+0x153b>
    7119:	48 8d 85 48 ec ff ff 	lea    -0x13b8(%rbp),%rax
    7120:	48 89 85 18 ed ff ff 	mov    %rax,-0x12e8(%rbp)
    7127:	48 8d 05 13 91 00 00 	lea    0x9113(%rip),%rax        # 10241 <g_70+0x9>
    712e:	48 89 85 20 ed ff ff 	mov    %rax,-0x12e0(%rbp)
    7135:	c7 85 2c ec ff ff 00 	movl   $0x0,-0x13d4(%rbp)
    713c:	00 00 00 
    713f:	eb 1e                	jmp    715f <func_2+0x1339>
    7141:	8b 85 2c ec ff ff    	mov    -0x13d4(%rbp),%eax
    7147:	48 98                	cltq   
    7149:	48 8d 95 60 ec ff ff 	lea    -0x13a0(%rbp),%rdx
    7150:	48 89 94 c5 b0 f2 ff 	mov    %rdx,-0xd50(%rbp,%rax,8)
    7157:	ff 
    7158:	83 85 2c ec ff ff 01 	addl   $0x1,-0x13d4(%rbp)
    715f:	83 bd 2c ec ff ff 09 	cmpl   $0x9,-0x13d4(%rbp)
    7166:	7e d9                	jle    7141 <func_2+0x131b>
    7168:	c7 85 2c ec ff ff 00 	movl   $0x0,-0x13d4(%rbp)
    716f:	00 00 00 
    7172:	eb 1b                	jmp    718f <func_2+0x1369>
    7174:	8b 85 2c ec ff ff    	mov    -0x13d4(%rbp),%eax
    717a:	48 98                	cltq   
    717c:	48 c7 84 c5 10 ee ff 	movq   $0x0,-0x11f0(%rbp,%rax,8)
    7183:	ff 00 00 00 00 
    7188:	83 85 2c ec ff ff 01 	addl   $0x1,-0x13d4(%rbp)
    718f:	83 bd 2c ec ff ff 08 	cmpl   $0x8,-0x13d4(%rbp)
    7196:	7e dc                	jle    7174 <func_2+0x134e>
    7198:	8b 85 18 ef ff ff    	mov    -0x10e8(%rbp),%eax
    719e:	0f be d8             	movsbl %al,%ebx
    71a1:	8b 85 fc eb ff ff    	mov    -0x1404(%rbp),%eax
    71a7:	44 0f be e0          	movsbl %al,%r12d
    71ab:	8b 05 f7 96 00 00    	mov    0x96f7(%rip),%eax        # 108a8 <g_421+0x8>
    71b1:	c1 e0 08             	shl    $0x8,%eax
    71b4:	c1 f8 08             	sar    $0x8,%eax
    71b7:	85 c0                	test   %eax,%eax
    71b9:	41 0f 9f c7          	setg   %r15b
    71bd:	48 8b 85 e8 eb ff ff 	mov    -0x1418(%rbp),%rax
    71c4:	41 89 c6             	mov    %eax,%r14d
    71c7:	48 8b 05 f2 96 00 00 	mov    0x96f2(%rip),%rax        # 108c0 <g_467>
    71ce:	44 0f bf e8          	movswl %ax,%r13d
    71d2:	0f be 85 0e ec ff ff 	movsbl -0x13f2(%rbp),%eax
    71d9:	be 01 00 00 00       	mov    $0x1,%esi
    71de:	89 c7                	mov    %eax,%edi
    71e0:	e8 ce d1 ff ff       	callq  43b3 <safe_add_func_int16_t_s_s>
    71e5:	48 8b 95 c0 f2 ff ff 	mov    -0xd40(%rbp),%rdx
    71ec:	48 8d 85 60 ec ff ff 	lea    -0x13a0(%rbp),%rax
    71f3:	48 39 c2             	cmp    %rax,%rdx
    71f6:	0f 94 c0             	sete   %al
    71f9:	0f b6 c0             	movzbl %al,%eax
    71fc:	44 89 ee             	mov    %r13d,%esi
    71ff:	89 c7                	mov    %eax,%edi
    7201:	e8 ad d1 ff ff       	callq  43b3 <safe_add_func_int16_t_s_s>
    7206:	98                   	cwtl   
    7207:	44 89 f6             	mov    %r14d,%esi
    720a:	89 c7                	mov    %eax,%edi
    720c:	e8 d0 d2 ff ff       	callq  44e1 <safe_lshift_func_int16_t_s_u>
    7211:	0f b6 15 10 90 00 00 	movzbl 0x9010(%rip),%edx        # 10228 <g_46+0x8>
    7218:	66 0f be d2          	movsbw %dl,%dx
    721c:	66 39 d0             	cmp    %dx,%ax
    721f:	0f 9e c0             	setle  %al
    7222:	44 31 f8             	xor    %r15d,%eax
    7225:	0f b6 d0             	movzbl %al,%edx
    7228:	8b 85 fc ee ff ff    	mov    -0x1104(%rbp),%eax
    722e:	89 d6                	mov    %edx,%esi
    7230:	89 c7                	mov    %eax,%edi
    7232:	e8 ce d3 ff ff       	callq  4605 <safe_sub_func_int32_t_s_s>
    7237:	0f be c0             	movsbl %al,%eax
    723a:	44 89 e6             	mov    %r12d,%esi
    723d:	89 c7                	mov    %eax,%edi
    723f:	e8 ce cf ff ff       	callq  4212 <safe_mul_func_int8_t_s_s>
    7244:	0f be c0             	movsbl %al,%eax
    7247:	be ee 6d c1 b1       	mov    $0xb1c16dee,%esi
    724c:	89 c7                	mov    %eax,%edi
    724e:	e8 ac d4 ff ff       	callq  46ff <safe_div_func_int32_t_s_s>
    7253:	48 63 d0             	movslq %eax,%rdx
    7256:	48 8b 85 e8 eb ff ff 	mov    -0x1418(%rbp),%rax
    725d:	48 39 c2             	cmp    %rax,%rdx
    7260:	0f 95 c0             	setne  %al
    7263:	0f b6 c0             	movzbl %al,%eax
    7266:	89 de                	mov    %ebx,%esi
    7268:	89 c7                	mov    %eax,%edi
    726a:	e8 83 cf ff ff       	callq  41f2 <safe_sub_func_int8_t_s_s>
    726f:	30 85 e4 eb ff ff    	xor    %al,-0x141c(%rbp)
    7275:	0f b6 85 e4 eb ff ff 	movzbl -0x141c(%rbp),%eax
    727c:	0f be c0             	movsbl %al,%eax
    727f:	21 85 28 ec ff ff    	and    %eax,-0x13d8(%rbp)
    7285:	8b 95 28 ec ff ff    	mov    -0x13d8(%rbp),%edx
    728b:	0f b6 85 f0 eb ff ff 	movzbl -0x1410(%rbp),%eax
    7292:	31 d0                	xor    %edx,%eax
    7294:	88 85 f0 eb ff ff    	mov    %al,-0x1410(%rbp)
    729a:	0f b6 85 f0 eb ff ff 	movzbl -0x1410(%rbp),%eax
    72a1:	0f be d0             	movsbl %al,%edx
    72a4:	8b 05 de 95 00 00    	mov    0x95de(%rip),%eax        # 10888 <g_301+0x8>
    72aa:	c1 e0 08             	shl    $0x8,%eax
    72ad:	c1 f8 08             	sar    $0x8,%eax
    72b0:	39 c2                	cmp    %eax,%edx
    72b2:	0f 94 c0             	sete   %al
    72b5:	89 c2                	mov    %eax,%edx
    72b7:	48 8b 85 20 ed ff ff 	mov    -0x12e0(%rbp),%rax
    72be:	88 10                	mov    %dl,(%rax)
    72c0:	48 8b 85 20 ed ff ff 	mov    -0x12e0(%rbp),%rax
    72c7:	0f b6 00             	movzbl (%rax),%eax
    72ca:	0f b6 d0             	movzbl %al,%edx
    72cd:	8b 85 cc ee ff ff    	mov    -0x1134(%rbp),%eax
    72d3:	0f b6 c0             	movzbl %al,%eax
    72d6:	89 d6                	mov    %edx,%esi
    72d8:	89 c7                	mov    %eax,%edi
    72da:	e8 df d9 ff ff       	callq  4cbe <safe_rshift_func_uint8_t_u_u>
    72df:	48 8b 85 48 ec ff ff 	mov    -0x13b8(%rbp),%rax
    72e6:	48 8d 15 67 b8 00 00 	lea    0xb867(%rip),%rdx        # 12b54 <g_147>
    72ed:	48 39 d0             	cmp    %rdx,%rax
    72f0:	0f 95 c0             	setne  %al
    72f3:	0f b6 d0             	movzbl %al,%edx
    72f6:	48 8b 85 e8 eb ff ff 	mov    -0x1418(%rbp),%rax
    72fd:	89 c6                	mov    %eax,%esi
    72ff:	48 8b 05 32 8f 00 00 	mov    0x8f32(%rip),%rax        # 10238 <g_70>
    7306:	48 8d 48 03          	lea    0x3(%rax),%rcx
    730a:	48 8b 05 27 8f 00 00 	mov    0x8f27(%rip),%rax        # 10238 <g_70>
    7311:	48 8b 3d 10 8d 00 00 	mov    0x8d10(%rip),%rdi        # 10028 <g_24>
    7318:	31 d6                	xor    %edx,%esi
    731a:	48 89 c2             	mov    %rax,%rdx
    731d:	48 01 d2             	add    %rdx,%rdx
    7320:	48 01 c2             	add    %rax,%rdx
    7323:	48 8d 04 12          	lea    (%rdx,%rdx,1),%rax
    7327:	48 89 c2             	mov    %rax,%rdx
    732a:	48 89 c8             	mov    %rcx,%rax
    732d:	48 01 c0             	add    %rax,%rax
    7330:	48 01 c8             	add    %rcx,%rax
    7333:	48 c1 e0 03          	shl    $0x3,%rax
    7337:	48 01 d0             	add    %rdx,%rax
    733a:	48 01 f8             	add    %rdi,%rax
    733d:	48 8d 14 85 00 00 00 	lea    0x0(,%rax,4),%rdx
    7344:	00 
    7345:	48 8d 05 14 8f 00 00 	lea    0x8f14(%rip),%rax        # 10260 <g_76>
    734c:	89 34 02             	mov    %esi,(%rdx,%rax,1)
    734f:	48 8b 05 d2 8c 00 00 	mov    0x8cd2(%rip),%rax        # 10028 <g_24>
    7356:	48 83 c0 01          	add    $0x1,%rax
    735a:	48 89 05 c7 8c 00 00 	mov    %rax,0x8cc7(%rip)        # 10028 <g_24>
    7361:	48 8b 05 c0 8c 00 00 	mov    0x8cc0(%rip),%rax        # 10028 <g_24>
    7368:	48 83 f8 04          	cmp    $0x4,%rax
    736c:	0f 86 a7 fd ff ff    	jbe    7119 <func_2+0x12f3>
    7372:	c6 05 c8 8e 00 00 01 	movb   $0x1,0x8ec8(%rip)        # 10241 <g_70+0x9>
    7379:	e9 34 01 00 00       	jmpq   74b2 <func_2+0x168c>
    737e:	66 c7 85 18 ec ff ff 	movw   $0xa56f,-0x13e8(%rbp)
    7385:	6f a5 
    7387:	48 8d 05 a2 8e 00 00 	lea    0x8ea2(%rip),%rax        # 10230 <g_63>
    738e:	48 89 85 08 ed ff ff 	mov    %rax,-0x12f8(%rbp)
    7395:	c7 05 dd 94 00 00 00 	movl   $0x0,0x94dd(%rip)        # 1087c <g_262>
    739c:	00 00 00 
    739f:	eb 6e                	jmp    740f <func_2+0x15e9>
    73a1:	48 8d 05 88 8e 00 00 	lea    0x8e88(%rip),%rax        # 10230 <g_63>
    73a8:	48 89 85 10 ed ff ff 	mov    %rax,-0x12f0(%rbp)
    73af:	66 c7 85 1a ec ff ff 	movw   $0xffff,-0x13e6(%rbp)
    73b6:	ff ff 
    73b8:	c7 85 30 ec ff ff 00 	movl   $0x0,-0x13d0(%rbp)
    73bf:	00 00 00 
    73c2:	eb 1b                	jmp    73df <func_2+0x15b9>
    73c4:	8b 85 30 ec ff ff    	mov    -0x13d0(%rbp),%eax
    73ca:	48 98                	cltq   
    73cc:	48 c7 84 c5 b0 f2 ff 	movq   $0x0,-0xd50(%rbp,%rax,8)
    73d3:	ff 00 00 00 00 
    73d8:	83 85 30 ec ff ff 01 	addl   $0x1,-0x13d0(%rbp)
    73df:	83 bd 30 ec ff ff 02 	cmpl   $0x2,-0x13d0(%rbp)
    73e6:	7e dc                	jle    73c4 <func_2+0x159e>
    73e8:	66 83 85 1a ec ff ff 	addw   $0x1,-0x13e6(%rbp)
    73ef:	01 
    73f0:	0f b6 85 f1 eb ff ff 	movzbl -0x140f(%rbp),%eax
    73f7:	0f b6 c0             	movzbl %al,%eax
    73fa:	89 85 f8 ee ff ff    	mov    %eax,-0x1108(%rbp)
    7400:	8b 05 76 94 00 00    	mov    0x9476(%rip),%eax        # 1087c <g_262>
    7406:	83 c0 01             	add    $0x1,%eax
    7409:	89 05 6d 94 00 00    	mov    %eax,0x946d(%rip)        # 1087c <g_262>
    740f:	8b 05 67 94 00 00    	mov    0x9467(%rip),%eax        # 1087c <g_262>
    7415:	83 f8 03             	cmp    $0x3,%eax
    7418:	76 87                	jbe    73a1 <func_2+0x157b>
    741a:	48 8b 05 37 ad 00 00 	mov    0xad37(%rip),%rax        # 12158 <g_199>
    7421:	8b 00                	mov    (%rax),%eax
    7423:	85 c0                	test   %eax,%eax
    7425:	75 77                	jne    749e <func_2+0x1678>
    7427:	c7 05 4b 94 00 00 00 	movl   $0x0,0x944b(%rip)        # 1087c <g_262>
    742e:	00 00 00 
    7431:	eb 5e                	jmp    7491 <func_2+0x166b>
    7433:	0f b6 85 f0 eb ff ff 	movzbl -0x1410(%rbp),%eax
    743a:	84 c0                	test   %al,%al
    743c:	75 63                	jne    74a1 <func_2+0x167b>
    743e:	66 83 bd 18 ec ff ff 	cmpw   $0x0,-0x13e8(%rbp)
    7445:	00 
    7446:	75 39                	jne    7481 <func_2+0x165b>
    7448:	c7 05 fe b6 00 00 00 	movl   $0x0,0xb6fe(%rip)        # 12b50 <g_82>
    744f:	00 00 00 
    7452:	eb 20                	jmp    7474 <func_2+0x164e>
    7454:	48 8b 05 05 ad 00 00 	mov    0xad05(%rip),%rax        # 12160 <g_375>
    745b:	48 8b 95 08 ed ff ff 	mov    -0x12f8(%rbp),%rdx
    7462:	48 89 10             	mov    %rdx,(%rax)
    7465:	8b 05 e5 b6 00 00    	mov    0xb6e5(%rip),%eax        # 12b50 <g_82>
    746b:	83 c0 01             	add    $0x1,%eax
    746e:	89 05 dc b6 00 00    	mov    %eax,0xb6dc(%rip)        # 12b50 <g_82>
    7474:	8b 05 d6 b6 00 00    	mov    0xb6d6(%rip),%eax        # 12b50 <g_82>
    747a:	83 f8 04             	cmp    $0x4,%eax
    747d:	76 d5                	jbe    7454 <func_2+0x162e>
    747f:	eb 01                	jmp    7482 <func_2+0x165c>
    7481:	90                   	nop
    7482:	8b 05 f4 93 00 00    	mov    0x93f4(%rip),%eax        # 1087c <g_262>
    7488:	83 c0 01             	add    $0x1,%eax
    748b:	89 05 eb 93 00 00    	mov    %eax,0x93eb(%rip)        # 1087c <g_262>
    7491:	8b 05 e5 93 00 00    	mov    0x93e5(%rip),%eax        # 1087c <g_262>
    7497:	83 f8 03             	cmp    $0x3,%eax
    749a:	76 97                	jbe    7433 <func_2+0x160d>
    749c:	eb 04                	jmp    74a2 <func_2+0x167c>
    749e:	90                   	nop
    749f:	eb 01                	jmp    74a2 <func_2+0x167c>
    74a1:	90                   	nop
    74a2:	0f b6 05 98 8d 00 00 	movzbl 0x8d98(%rip),%eax        # 10241 <g_70+0x9>
    74a9:	83 c0 01             	add    $0x1,%eax
    74ac:	88 05 8f 8d 00 00    	mov    %al,0x8d8f(%rip)        # 10241 <g_70+0x9>
    74b2:	0f b6 05 88 8d 00 00 	movzbl 0x8d88(%rip),%eax        # 10241 <g_70+0x9>
    74b9:	3c 04                	cmp    $0x4,%al
    74bb:	0f 86 bd fe ff ff    	jbe    737e <func_2+0x1558>
    74c1:	8b 85 cc ee ff ff    	mov    -0x1134(%rbp),%eax
    74c7:	85 c0                	test   %eax,%eax
    74c9:	0f 85 cf 06 00 00    	jne    7b9e <func_2+0x1d78>
    74cf:	c6 85 0e ec ff ff 00 	movb   $0x0,-0x13f2(%rbp)
    74d6:	e9 96 06 00 00       	jmpq   7b71 <func_2+0x1d4b>
    74db:	48 8d 05 72 b6 00 00 	lea    0xb672(%rip),%rax        # 12b54 <g_147>
    74e2:	48 89 85 d0 ec ff ff 	mov    %rax,-0x1330(%rbp)
    74e9:	48 8d 05 78 b6 00 00 	lea    0xb678(%rip),%rax        # 12b68 <g_148+0x8>
    74f0:	48 89 85 d8 ec ff ff 	mov    %rax,-0x1328(%rbp)
    74f7:	48 8d 05 7a 93 00 00 	lea    0x937a(%rip),%rax        # 10878 <g_254>
    74fe:	48 89 85 e0 ec ff ff 	mov    %rax,-0x1320(%rbp)
    7505:	48 c7 85 e8 ec ff ff 	movq   $0x0,-0x1318(%rbp)
    750c:	00 00 00 00 
    7510:	48 8d 85 68 ec ff ff 	lea    -0x1398(%rbp),%rax
    7517:	48 89 85 f0 ec ff ff 	mov    %rax,-0x1310(%rbp)
    751e:	66 c7 85 16 ec ff ff 	movw   $0x1,-0x13ea(%rbp)
    7525:	01 00 
    7527:	48 8d 05 12 8d 00 00 	lea    0x8d12(%rip),%rax        # 10240 <g_70+0x8>
    752e:	48 89 85 f8 ec ff ff 	mov    %rax,-0x1308(%rbp)
    7535:	48 8d 05 fc 8c 00 00 	lea    0x8cfc(%rip),%rax        # 10238 <g_70>
    753c:	48 89 85 b0 f2 ff ff 	mov    %rax,-0xd50(%rbp)
    7543:	48 8d 05 ee 8c 00 00 	lea    0x8cee(%rip),%rax        # 10238 <g_70>
    754a:	48 89 85 b8 f2 ff ff 	mov    %rax,-0xd48(%rbp)
    7551:	48 8d 05 e0 8c 00 00 	lea    0x8ce0(%rip),%rax        # 10238 <g_70>
    7558:	48 89 85 c0 f2 ff ff 	mov    %rax,-0xd40(%rbp)
    755f:	48 8d 05 d2 8c 00 00 	lea    0x8cd2(%rip),%rax        # 10238 <g_70>
    7566:	48 89 85 c8 f2 ff ff 	mov    %rax,-0xd38(%rbp)
    756d:	48 8d 05 c4 8c 00 00 	lea    0x8cc4(%rip),%rax        # 10238 <g_70>
    7574:	48 89 85 d0 f2 ff ff 	mov    %rax,-0xd30(%rbp)
    757b:	48 8d 05 b6 8c 00 00 	lea    0x8cb6(%rip),%rax        # 10238 <g_70>
    7582:	48 89 85 d8 f2 ff ff 	mov    %rax,-0xd28(%rbp)
    7589:	48 8d 05 a8 8c 00 00 	lea    0x8ca8(%rip),%rax        # 10238 <g_70>
    7590:	48 89 85 e0 f2 ff ff 	mov    %rax,-0xd20(%rbp)
    7597:	48 8d 05 9a 8c 00 00 	lea    0x8c9a(%rip),%rax        # 10238 <g_70>
    759e:	48 89 85 e8 f2 ff ff 	mov    %rax,-0xd18(%rbp)
    75a5:	48 8d 05 8c 8c 00 00 	lea    0x8c8c(%rip),%rax        # 10238 <g_70>
    75ac:	48 89 85 f0 f2 ff ff 	mov    %rax,-0xd10(%rbp)
    75b3:	48 8d 05 7e 8c 00 00 	lea    0x8c7e(%rip),%rax        # 10238 <g_70>
    75ba:	48 89 85 f8 f2 ff ff 	mov    %rax,-0xd08(%rbp)
    75c1:	48 8d 05 70 8c 00 00 	lea    0x8c70(%rip),%rax        # 10238 <g_70>
    75c8:	48 89 85 00 f3 ff ff 	mov    %rax,-0xd00(%rbp)
    75cf:	48 8d 05 62 8c 00 00 	lea    0x8c62(%rip),%rax        # 10238 <g_70>
    75d6:	48 89 85 08 f3 ff ff 	mov    %rax,-0xcf8(%rbp)
    75dd:	48 8d 05 54 8c 00 00 	lea    0x8c54(%rip),%rax        # 10238 <g_70>
    75e4:	48 89 85 10 f3 ff ff 	mov    %rax,-0xcf0(%rbp)
    75eb:	48 8d 05 46 8c 00 00 	lea    0x8c46(%rip),%rax        # 10238 <g_70>
    75f2:	48 89 85 18 f3 ff ff 	mov    %rax,-0xce8(%rbp)
    75f9:	48 8d 05 38 8c 00 00 	lea    0x8c38(%rip),%rax        # 10238 <g_70>
    7600:	48 89 85 20 f3 ff ff 	mov    %rax,-0xce0(%rbp)
    7607:	48 8d 05 2a 8c 00 00 	lea    0x8c2a(%rip),%rax        # 10238 <g_70>
    760e:	48 89 85 28 f3 ff ff 	mov    %rax,-0xcd8(%rbp)
    7615:	48 8d 05 1c 8c 00 00 	lea    0x8c1c(%rip),%rax        # 10238 <g_70>
    761c:	48 89 85 30 f3 ff ff 	mov    %rax,-0xcd0(%rbp)
    7623:	48 8d 05 0e 8c 00 00 	lea    0x8c0e(%rip),%rax        # 10238 <g_70>
    762a:	48 89 85 38 f3 ff ff 	mov    %rax,-0xcc8(%rbp)
    7631:	48 8d 05 00 8c 00 00 	lea    0x8c00(%rip),%rax        # 10238 <g_70>
    7638:	48 89 85 40 f3 ff ff 	mov    %rax,-0xcc0(%rbp)
    763f:	48 8d 05 f2 8b 00 00 	lea    0x8bf2(%rip),%rax        # 10238 <g_70>
    7646:	48 89 85 48 f3 ff ff 	mov    %rax,-0xcb8(%rbp)
    764d:	48 8d 05 e4 8b 00 00 	lea    0x8be4(%rip),%rax        # 10238 <g_70>
    7654:	48 89 85 50 f3 ff ff 	mov    %rax,-0xcb0(%rbp)
    765b:	48 8d 05 d6 8b 00 00 	lea    0x8bd6(%rip),%rax        # 10238 <g_70>
    7662:	48 89 85 58 f3 ff ff 	mov    %rax,-0xca8(%rbp)
    7669:	48 8d 05 c8 8b 00 00 	lea    0x8bc8(%rip),%rax        # 10238 <g_70>
    7670:	48 89 85 60 f3 ff ff 	mov    %rax,-0xca0(%rbp)
    7677:	48 8d 05 ba 8b 00 00 	lea    0x8bba(%rip),%rax        # 10238 <g_70>
    767e:	48 89 85 68 f3 ff ff 	mov    %rax,-0xc98(%rbp)
    7685:	48 8d 05 ac 8b 00 00 	lea    0x8bac(%rip),%rax        # 10238 <g_70>
    768c:	48 89 85 70 f3 ff ff 	mov    %rax,-0xc90(%rbp)
    7693:	48 8d 05 9e 8b 00 00 	lea    0x8b9e(%rip),%rax        # 10238 <g_70>
    769a:	48 89 85 78 f3 ff ff 	mov    %rax,-0xc88(%rbp)
    76a1:	48 8d 05 90 8b 00 00 	lea    0x8b90(%rip),%rax        # 10238 <g_70>
    76a8:	48 89 85 80 f3 ff ff 	mov    %rax,-0xc80(%rbp)
    76af:	48 8d 05 82 8b 00 00 	lea    0x8b82(%rip),%rax        # 10238 <g_70>
    76b6:	48 89 85 88 f3 ff ff 	mov    %rax,-0xc78(%rbp)
    76bd:	48 8d 05 74 8b 00 00 	lea    0x8b74(%rip),%rax        # 10238 <g_70>
    76c4:	48 89 85 90 f3 ff ff 	mov    %rax,-0xc70(%rbp)
    76cb:	48 8d 05 66 8b 00 00 	lea    0x8b66(%rip),%rax        # 10238 <g_70>
    76d2:	48 89 85 98 f3 ff ff 	mov    %rax,-0xc68(%rbp)
    76d9:	48 8d 05 58 8b 00 00 	lea    0x8b58(%rip),%rax        # 10238 <g_70>
    76e0:	48 89 85 a0 f3 ff ff 	mov    %rax,-0xc60(%rbp)
    76e7:	48 8d 05 4a 8b 00 00 	lea    0x8b4a(%rip),%rax        # 10238 <g_70>
    76ee:	48 89 85 a8 f3 ff ff 	mov    %rax,-0xc58(%rbp)
    76f5:	48 8d 05 8c 8b 00 00 	lea    0x8b8c(%rip),%rax        # 10288 <g_76+0x28>
    76fc:	48 89 85 00 ed ff ff 	mov    %rax,-0x1300(%rbp)
    7703:	48 8b 9d a8 ef ff ff 	mov    -0x1058(%rbp),%rbx
    770a:	48 8b 85 e8 eb ff ff 	mov    -0x1418(%rbp),%rax
    7711:	89 c1                	mov    %eax,%ecx
    7713:	48 8b 05 86 a9 00 00 	mov    0xa986(%rip),%rax        # 120a0 <g_31>
    771a:	0f b7 00             	movzwl (%rax),%eax
    771d:	48 0f bf d0          	movswq %ax,%rdx
    7721:	48 8b 85 e8 eb ff ff 	mov    -0x1418(%rbp),%rax
    7728:	48 09 d0             	or     %rdx,%rax
    772b:	48 85 c0             	test   %rax,%rax
    772e:	75 0b                	jne    773b <func_2+0x1915>
    7730:	0f b6 85 f0 eb ff ff 	movzbl -0x1410(%rbp),%eax
    7737:	84 c0                	test   %al,%al
    7739:	74 07                	je     7742 <func_2+0x191c>
    773b:	be 01 00 00 00       	mov    $0x1,%esi
    7740:	eb 05                	jmp    7747 <func_2+0x1921>
    7742:	be 00 00 00 00       	mov    $0x0,%esi
    7747:	48 83 bd 78 ec ff ff 	cmpq   $0x0,-0x1388(%rbp)
    774e:	00 
    774f:	0f 94 c0             	sete   %al
    7752:	0f b6 d0             	movzbl %al,%edx
    7755:	48 8b 85 a0 ee ff ff 	mov    -0x1160(%rbp),%rax
    775c:	48 39 85 80 ec ff ff 	cmp    %rax,-0x1380(%rbp)
    7763:	0f 94 c0             	sete   %al
    7766:	0f b6 c0             	movzbl %al,%eax
    7769:	39 c2                	cmp    %eax,%edx
    776b:	0f 9c c0             	setl   %al
    776e:	0f b6 c0             	movzbl %al,%eax
    7771:	39 c6                	cmp    %eax,%esi
    7773:	0f 9f c0             	setg   %al
    7776:	0f b6 d0             	movzbl %al,%edx
    7779:	0f bf 85 14 ec ff ff 	movswl -0x13ec(%rbp),%eax
    7780:	39 c2                	cmp    %eax,%edx
    7782:	0f 94 c0             	sete   %al
    7785:	89 c2                	mov    %eax,%edx
    7787:	48 8b 85 d0 ec ff ff 	mov    -0x1330(%rbp),%rax
    778e:	88 10                	mov    %dl,(%rax)
    7790:	48 8b 85 d0 ec ff ff 	mov    -0x1330(%rbp),%rax
    7797:	0f b6 00             	movzbl (%rax),%eax
    779a:	0f b6 d0             	movzbl %al,%edx
    779d:	8b 85 20 ec ff ff    	mov    -0x13e0(%rbp),%eax
    77a3:	21 d0                	and    %edx,%eax
    77a5:	89 85 20 ec ff ff    	mov    %eax,-0x13e0(%rbp)
    77ab:	8b 95 20 ec ff ff    	mov    -0x13e0(%rbp),%edx
    77b1:	8b 05 d1 90 00 00    	mov    0x90d1(%rip),%eax        # 10888 <g_301+0x8>
    77b7:	c1 e0 08             	shl    $0x8,%eax
    77ba:	c1 f8 08             	sar    $0x8,%eax
    77bd:	39 c2                	cmp    %eax,%edx
    77bf:	0f 9d c0             	setge  %al
    77c2:	0f b6 c0             	movzbl %al,%eax
    77c5:	89 ce                	mov    %ecx,%esi
    77c7:	89 c7                	mov    %eax,%edi
    77c9:	e8 57 d7 ff ff       	callq  4f25 <safe_div_func_uint32_t_u_u>
    77ce:	89 c0                	mov    %eax,%eax
    77d0:	48 89 85 d8 eb ff ff 	mov    %rax,-0x1428(%rbp)
    77d7:	48 8b 05 ba 90 00 00 	mov    0x90ba(%rip),%rax        # 10898 <g_301+0x18>
    77de:	48 8d 95 60 ec ff ff 	lea    -0x13a0(%rbp),%rdx
    77e5:	48 8b 85 d8 eb ff ff 	mov    -0x1428(%rbp),%rax
    77ec:	49 89 d0             	mov    %rdx,%r8
    77ef:	48 8d 0d ba a8 00 00 	lea    0xa8ba(%rip),%rcx        # 120b0 <g_111>
    77f6:	48 89 da             	mov    %rbx,%rdx
    77f9:	48 89 c6             	mov    %rax,%rsi
    77fc:	bf 02 00 00 00       	mov    $0x2,%edi
    7801:	e8 11 25 00 00       	callq  9d17 <func_166>
    7806:	48 8b 95 d8 ec ff ff 	mov    -0x1328(%rbp),%rdx
    780d:	48 89 02             	mov    %rax,(%rdx)
    7810:	48 8b 05 21 8a 00 00 	mov    0x8a21(%rip),%rax        # 10238 <g_70>
    7817:	48 83 c0 05          	add    $0x5,%rax
    781b:	48 8b 0d 16 8a 00 00 	mov    0x8a16(%rip),%rcx        # 10238 <g_70>
    7822:	8b 15 04 8a 00 00    	mov    0x8a04(%rip),%edx        # 1022c <g_48>
    7828:	48 63 f2             	movslq %edx,%rsi
    782b:	48 89 c2             	mov    %rax,%rdx
    782e:	48 01 d2             	add    %rdx,%rdx
    7831:	48 01 c2             	add    %rax,%rdx
    7834:	48 8d 04 d5 00 00 00 	lea    0x0(,%rdx,8),%rax
    783b:	00 
    783c:	48 89 c2             	mov    %rax,%rdx
    783f:	48 89 c8             	mov    %rcx,%rax
    7842:	48 01 c0             	add    %rax,%rax
    7845:	48 01 c8             	add    %rcx,%rax
    7848:	48 01 c0             	add    %rax,%rax
    784b:	48 01 d0             	add    %rdx,%rax
    784e:	48 01 f0             	add    %rsi,%rax
    7851:	48 8d 14 85 00 00 00 	lea    0x0(,%rax,4),%rdx
    7858:	00 
    7859:	48 8d 05 00 8a 00 00 	lea    0x8a00(%rip),%rax        # 10260 <g_76>
    7860:	8b 04 02             	mov    (%rdx,%rax,1),%eax
    7863:	48 8b 15 ce 89 00 00 	mov    0x89ce(%rip),%rdx        # 10238 <g_70>
    786a:	48 8d 72 05          	lea    0x5(%rdx),%rsi
    786e:	48 8b 0d c3 89 00 00 	mov    0x89c3(%rip),%rcx        # 10238 <g_70>
    7875:	8b 3d b1 89 00 00    	mov    0x89b1(%rip),%edi        # 1022c <g_48>
    787b:	0d 85 d1 98 d5       	or     $0xd598d185,%eax
    7880:	41 89 c0             	mov    %eax,%r8d
    7883:	4c 63 cf             	movslq %edi,%r9
    7886:	48 89 f2             	mov    %rsi,%rdx
    7889:	48 01 d2             	add    %rdx,%rdx
    788c:	48 01 f2             	add    %rsi,%rdx
    788f:	48 8d 04 d5 00 00 00 	lea    0x0(,%rdx,8),%rax
    7896:	00 
    7897:	48 89 c2             	mov    %rax,%rdx
    789a:	48 89 c8             	mov    %rcx,%rax
    789d:	48 01 c0             	add    %rax,%rax
    78a0:	48 01 c8             	add    %rcx,%rax
    78a3:	48 01 c0             	add    %rax,%rax
    78a6:	48 01 d0             	add    %rdx,%rax
    78a9:	4c 01 c8             	add    %r9,%rax
    78ac:	48 8d 14 85 00 00 00 	lea    0x0(,%rax,4),%rdx
    78b3:	00 
    78b4:	48 8d 05 a5 89 00 00 	lea    0x89a5(%rip),%rax        # 10260 <g_76>
    78bb:	44 89 04 02          	mov    %r8d,(%rdx,%rax,1)
    78bf:	48 63 ff             	movslq %edi,%rdi
    78c2:	48 89 f2             	mov    %rsi,%rdx
    78c5:	48 01 d2             	add    %rdx,%rdx
    78c8:	48 01 f2             	add    %rsi,%rdx
    78cb:	48 8d 04 d5 00 00 00 	lea    0x0(,%rdx,8),%rax
    78d2:	00 
    78d3:	48 89 c2             	mov    %rax,%rdx
    78d6:	48 89 c8             	mov    %rcx,%rax
    78d9:	48 01 c0             	add    %rax,%rax
    78dc:	48 01 c8             	add    %rcx,%rax
    78df:	48 01 c0             	add    %rax,%rax
    78e2:	48 01 d0             	add    %rdx,%rax
    78e5:	48 01 f8             	add    %rdi,%rax
    78e8:	48 8d 14 85 00 00 00 	lea    0x0(,%rax,4),%rdx
    78ef:	00 
    78f0:	48 8d 05 69 89 00 00 	lea    0x8969(%rip),%rax        # 10260 <g_76>
    78f7:	8b 04 02             	mov    (%rdx,%rax,1),%eax
    78fa:	39 85 f8 eb ff ff    	cmp    %eax,-0x1408(%rbp)
    7900:	0f 96 c3             	setbe  %bl
    7903:	8b 85 cc ee ff ff    	mov    -0x1134(%rbp),%eax
    7909:	85 c0                	test   %eax,%eax
    790b:	74 58                	je     7965 <func_2+0x1b3f>
    790d:	8b 05 71 8f 00 00    	mov    0x8f71(%rip),%eax        # 10884 <g_301+0x4>
    7913:	25 ff ff ff 07       	and    $0x7ffffff,%eax
    7918:	39 85 40 ec ff ff    	cmp    %eax,-0x13c0(%rbp)
    791e:	0f 9e c0             	setle  %al
    7921:	0f b6 c0             	movzbl %al,%eax
    7924:	48 89 85 d8 eb ff ff 	mov    %rax,-0x1428(%rbp)
    792b:	48 8b 05 06 8f 00 00 	mov    0x8f06(%rip),%rax        # 10838 <g_216+0xd8>
    7932:	25 ff ff 03 00       	and    $0x3ffff,%eax
    7937:	89 c2                	mov    %eax,%edx
    7939:	48 8b 85 d8 eb ff ff 	mov    -0x1428(%rbp),%rax
    7940:	48 89 c6             	mov    %rax,%rsi
    7943:	48 89 d7             	mov    %rdx,%rdi
    7946:	e8 00 d7 ff ff       	callq  504b <safe_sub_func_uint64_t_u_u>
    794b:	0f be c0             	movsbl %al,%eax
    794e:	be 05 00 00 00       	mov    $0x5,%esi
    7953:	89 c7                	mov    %eax,%edi
    7955:	e8 47 c9 ff ff       	callq  42a1 <safe_lshift_func_int8_t_s_s>
    795a:	84 c0                	test   %al,%al
    795c:	74 07                	je     7965 <func_2+0x1b3f>
    795e:	b8 01 00 00 00       	mov    $0x1,%eax
    7963:	eb 05                	jmp    796a <func_2+0x1b44>
    7965:	b8 00 00 00 00       	mov    $0x0,%eax
    796a:	83 e0 01             	and    $0x1,%eax
    796d:	31 d8                	xor    %ebx,%eax
    796f:	0f b6 d0             	movzbl %al,%edx
    7972:	48 8b 05 27 a7 00 00 	mov    0xa727(%rip),%rax        # 120a0 <g_31>
    7979:	0f b7 00             	movzwl (%rax),%eax
    797c:	98                   	cwtl   
    797d:	89 d6                	mov    %edx,%esi
    797f:	89 c7                	mov    %eax,%edi
    7981:	e8 2d ca ff ff       	callq  43b3 <safe_add_func_int16_t_s_s>
    7986:	0f bf d8             	movswl %ax,%ebx
    7989:	0f b6 85 f1 eb ff ff 	movzbl -0x140f(%rbp),%eax
    7990:	0f b6 c0             	movzbl %al,%eax
    7993:	89 c6                	mov    %eax,%esi
    7995:	bf 01 00 00 00       	mov    $0x1,%edi
    799a:	e8 b6 ca ff ff       	callq  4455 <safe_div_func_int16_t_s_s>
    799f:	89 c2                	mov    %eax,%edx
    79a1:	48 8b 85 e0 ec ff ff 	mov    -0x1320(%rbp),%rax
    79a8:	66 89 10             	mov    %dx,(%rax)
    79ab:	48 8b 85 e0 ec ff ff 	mov    -0x1320(%rbp),%rax
    79b2:	0f b7 00             	movzwl (%rax),%eax
    79b5:	0f b7 c0             	movzwl %ax,%eax
    79b8:	39 c3                	cmp    %eax,%ebx
    79ba:	0f 9f c0             	setg   %al
    79bd:	0f b6 c0             	movzbl %al,%eax
    79c0:	89 85 cc ee ff ff    	mov    %eax,-0x1134(%rbp)
    79c6:	0f b6 85 f1 eb ff ff 	movzbl -0x140f(%rbp),%eax
    79cd:	0f b6 c0             	movzbl %al,%eax
    79d0:	89 c6                	mov    %eax,%esi
    79d2:	bf 1f b9 22 f0       	mov    $0xf022b91f,%edi
    79d7:	e8 f4 d4 ff ff       	callq  4ed0 <safe_sub_func_uint32_t_u_u>
    79dc:	48 8b 05 65 8d 00 00 	mov    0x8d65(%rip),%rax        # 10748 <g_192+0x18>
    79e3:	25 ff ff 1f 00       	and    $0x1fffff,%eax
    79e8:	41 89 c6             	mov    %eax,%r14d
    79eb:	0f b7 9d 16 ec ff ff 	movzwl -0x13ea(%rbp),%ebx
    79f2:	0f b7 05 a1 8e 00 00 	movzwl 0x8ea1(%rip),%eax        # 1089a <g_301+0x1a>
    79f9:	66 c1 e8 07          	shr    $0x7,%ax
    79fd:	83 e0 03             	and    $0x3,%eax
    7a00:	44 0f b6 e0          	movzbl %al,%r12d
    7a04:	44 0f be ad e4 eb ff 	movsbl -0x141c(%rbp),%r13d
    7a0b:	ff 
    7a0c:	be 0a 00 00 00       	mov    $0xa,%esi
    7a11:	bf 00 00 00 00       	mov    $0x0,%edi
    7a16:	e8 a3 d3 ff ff       	callq  4dbe <safe_lshift_func_uint16_t_u_s>
    7a1b:	98                   	cwtl   
    7a1c:	44 89 ee             	mov    %r13d,%esi
    7a1f:	89 c7                	mov    %eax,%edi
    7a21:	e8 cf c9 ff ff       	callq  43f5 <safe_mul_func_int16_t_s_s>
    7a26:	48 0f bf c0          	movswq %ax,%rax
    7a2a:	4c 89 e6             	mov    %r12,%rsi
    7a2d:	48 89 c7             	mov    %rax,%rdi
    7a30:	e8 7a d6 ff ff       	callq  50af <safe_div_func_uint64_t_u_u>
    7a35:	48 89 de             	mov    %rbx,%rsi
    7a38:	48 89 c7             	mov    %rax,%rdi
    7a3b:	e8 74 cf ff ff       	callq  49b4 <safe_mod_func_int64_t_s_s>
    7a40:	be be f2 12 2b       	mov    $0x2b12f2be,%esi
    7a45:	89 c7                	mov    %eax,%edi
    7a47:	e8 b9 cb ff ff       	callq  4605 <safe_sub_func_int32_t_s_s>
    7a4c:	0f bf 95 14 ec ff ff 	movswl -0x13ec(%rbp),%edx
    7a53:	48 8b 8d 68 ec ff ff 	mov    -0x1398(%rbp),%rcx
    7a5a:	48 8b 85 f0 ec ff ff 	mov    -0x1310(%rbp),%rax
    7a61:	48 89 08             	mov    %rcx,(%rax)
    7a64:	48 8b 85 f0 ec ff ff 	mov    -0x1310(%rbp),%rax
    7a6b:	48 8b 00             	mov    (%rax),%rax
    7a6e:	48 8b 0d 13 b1 00 00 	mov    0xb113(%rip),%rcx        # 12b88 <g_516>
    7a75:	48 89 8d c8 ec ff ff 	mov    %rcx,-0x1338(%rbp)
    7a7c:	48 39 85 c8 ec ff ff 	cmp    %rax,-0x1338(%rbp)
    7a83:	0f 94 c0             	sete   %al
    7a86:	0f b6 c0             	movzbl %al,%eax
    7a89:	89 d6                	mov    %edx,%esi
    7a8b:	89 c7                	mov    %eax,%edi
    7a8d:	e8 2c d3 ff ff       	callq  4dbe <safe_lshift_func_uint16_t_u_s>
    7a92:	66 3d d1 c5          	cmp    $0xc5d1,%ax
    7a96:	0f 96 c0             	setbe  %al
    7a99:	0f b6 c0             	movzbl %al,%eax
    7a9c:	4c 89 f6             	mov    %r14,%rsi
    7a9f:	48 89 c7             	mov    %rax,%rdi
    7aa2:	e8 a4 d5 ff ff       	callq  504b <safe_sub_func_uint64_t_u_u>
    7aa7:	48 89 c2             	mov    %rax,%rdx
    7aaa:	48 8b 85 70 ec ff ff 	mov    -0x1390(%rbp),%rax
    7ab1:	48 8b 00             	mov    (%rax),%rax
    7ab4:	88 10                	mov    %dl,(%rax)
    7ab6:	48 8b 85 f8 ec ff ff 	mov    -0x1308(%rbp),%rax
    7abd:	c6 00 a9             	movb   $0xa9,(%rax)
    7ac0:	48 8b 85 f8 ec ff ff 	mov    -0x1308(%rbp),%rax
    7ac7:	0f b6 00             	movzbl (%rax),%eax
    7aca:	0f be c0             	movsbl %al,%eax
    7acd:	8b 15 61 8c 00 00    	mov    0x8c61(%rip),%edx        # 10734 <g_192+0x4>
    7ad3:	81 e2 ff ff ff 07    	and    $0x7ffffff,%edx
    7ad9:	39 d0                	cmp    %edx,%eax
    7adb:	0f 9c c0             	setl   %al
    7ade:	0f b6 c0             	movzbl %al,%eax
    7ae1:	be 07 00 00 00       	mov    $0x7,%esi
    7ae6:	89 c7                	mov    %eax,%edi
    7ae8:	e8 f4 c9 ff ff       	callq  44e1 <safe_lshift_func_int16_t_s_u>
    7aed:	0f be 85 e4 eb ff ff 	movsbl -0x141c(%rbp),%eax
    7af4:	0d 61 07 74 a2       	or     $0xa2740761,%eax
    7af9:	89 85 28 ec ff ff    	mov    %eax,-0x13d8(%rbp)
    7aff:	8b 85 28 ec ff ff    	mov    -0x13d8(%rbp),%eax
    7b05:	48 98                	cltq   
    7b07:	48 c7 c6 f6 ff ff ff 	mov    $0xfffffffffffffff6,%rsi
    7b0e:	48 89 c7             	mov    %rax,%rdi
    7b11:	e8 92 cd ff ff       	callq  48a8 <safe_sub_func_int64_t_s_s>
    7b16:	48 8b 95 00 ed ff ff 	mov    -0x1300(%rbp),%rdx
    7b1d:	8b 12                	mov    (%rdx),%edx
    7b1f:	21 c2                	and    %eax,%edx
    7b21:	48 8b 85 00 ed ff ff 	mov    -0x1300(%rbp),%rax
    7b28:	89 10                	mov    %edx,(%rax)
    7b2a:	48 8b 95 a8 ef ff ff 	mov    -0x1058(%rbp),%rdx
    7b31:	8b 85 20 ec ff ff    	mov    -0x13e0(%rbp),%eax
    7b37:	48 98                	cltq   
    7b39:	48 8d b5 60 ec ff ff 	lea    -0x13a0(%rbp),%rsi
    7b40:	48 8b 8d 88 ec ff ff 	mov    -0x1378(%rbp),%rcx
    7b47:	49 89 f0             	mov    %rsi,%r8
    7b4a:	48 89 c6             	mov    %rax,%rsi
    7b4d:	bf 06 00 00 00       	mov    $0x6,%edi
    7b52:	e8 c0 21 00 00       	callq  9d17 <func_166>
    7b57:	48 8b 95 d8 ec ff ff 	mov    -0x1328(%rbp),%rdx
    7b5e:	48 89 02             	mov    %rax,(%rdx)
    7b61:	0f b6 85 0e ec ff ff 	movzbl -0x13f2(%rbp),%eax
    7b68:	83 c0 01             	add    $0x1,%eax
    7b6b:	88 85 0e ec ff ff    	mov    %al,-0x13f2(%rbp)
    7b71:	80 bd 0e ec ff ff 04 	cmpb   $0x4,-0x13f2(%rbp)
    7b78:	0f 8e 5d f9 ff ff    	jle    74db <func_2+0x16b5>
    7b7e:	8b 05 a8 86 00 00    	mov    0x86a8(%rip),%eax        # 1022c <g_48>
    7b84:	83 c0 01             	add    $0x1,%eax
    7b87:	89 05 9f 86 00 00    	mov    %eax,0x869f(%rip)        # 1022c <g_48>
    7b8d:	8b 05 99 86 00 00    	mov    0x8699(%rip),%eax        # 1022c <g_48>
    7b93:	83 f8 04             	cmp    $0x4,%eax
    7b96:	0f 8e 53 f5 ff ff    	jle    70ef <func_2+0x12c9>
    7b9c:	eb 01                	jmp    7b9f <func_2+0x1d79>
    7b9e:	90                   	nop
    7b9f:	48 8b 05 92 86 00 00 	mov    0x8692(%rip),%rax        # 10238 <g_70>
    7ba6:	48 83 e8 01          	sub    $0x1,%rax
    7baa:	48 89 05 87 86 00 00 	mov    %rax,0x8687(%rip)        # 10238 <g_70>
    7bb1:	48 8b 05 80 86 00 00 	mov    0x8680(%rip),%rax        # 10238 <g_70>
    7bb8:	48 85 c0             	test   %rax,%rax
    7bbb:	0f 89 42 e8 ff ff    	jns    6403 <func_2+0x5dd>
    7bc1:	8b 85 3c ec ff ff    	mov    -0x13c4(%rbp),%eax
    7bc7:	48 8b 5d c8          	mov    -0x38(%rbp),%rbx
    7bcb:	64 48 33 1c 25 28 00 	xor    %fs:0x28,%rbx
    7bd2:	00 00 
    7bd4:	74 05                	je     7bdb <func_2+0x1db5>
    7bd6:	e8 95 c4 ff ff       	callq  4070 <__stack_chk_fail@plt>
    7bdb:	48 81 c4 08 14 00 00 	add    $0x1408,%rsp
    7be2:	5b                   	pop    %rbx
    7be3:	41 5c                	pop    %r12
    7be5:	41 5d                	pop    %r13
    7be7:	41 5e                	pop    %r14
    7be9:	41 5f                	pop    %r15
    7beb:	5d                   	pop    %rbp
    7bec:	c3                   	retq   

0000000000007bed <func_9>:
    7bed:	f3 0f 1e fa          	endbr64 
    7bf1:	55                   	push   %rbp
    7bf2:	48 89 e5             	mov    %rsp,%rbp
    7bf5:	53                   	push   %rbx
    7bf6:	48 81 ec 28 05 00 00 	sub    $0x528,%rsp
    7bfd:	89 f8                	mov    %edi,%eax
    7bff:	89 b5 e8 fa ff ff    	mov    %esi,-0x518(%rbp)
    7c05:	88 85 ec fa ff ff    	mov    %al,-0x514(%rbp)
    7c0b:	64 48 8b 04 25 28 00 	mov    %fs:0x28,%rax
    7c12:	00 00 
    7c14:	48 89 45 e8          	mov    %rax,-0x18(%rbp)
    7c18:	31 c0                	xor    %eax,%eax
    7c1a:	48 c7 85 08 fb ff ff 	movq   $0x0,-0x4f8(%rbp)
    7c21:	00 00 00 00 
    7c25:	48 8d 05 38 87 00 00 	lea    0x8738(%rip),%rax        # 10364 <g_76+0x104>
    7c2c:	48 89 85 00 fb ff ff 	mov    %rax,-0x500(%rbp)
    7c33:	48 8d 05 d6 88 00 00 	lea    0x88d6(%rip),%rax        # 10510 <g_76+0x2b0>
    7c3a:	48 89 85 10 fb ff ff 	mov    %rax,-0x4f0(%rbp)
    7c41:	c7 85 50 fb ff ff 01 	movl   $0x1,-0x4b0(%rbp)
    7c48:	00 00 00 
    7c4b:	c7 85 54 fb ff ff fd 	movl   $0xfffffffd,-0x4ac(%rbp)
    7c52:	ff ff ff 
    7c55:	c7 85 58 fb ff ff 01 	movl   $0x1,-0x4a8(%rbp)
    7c5c:	00 00 00 
    7c5f:	c7 85 5c fb ff ff fd 	movl   $0xfffffffd,-0x4a4(%rbp)
    7c66:	ff ff ff 
    7c69:	c7 85 60 fb ff ff 01 	movl   $0x1,-0x4a0(%rbp)
    7c70:	00 00 00 
    7c73:	c7 85 64 fb ff ff fd 	movl   $0xfffffffd,-0x49c(%rbp)
    7c7a:	ff ff ff 
    7c7d:	c7 85 68 fb ff ff 01 	movl   $0x1,-0x498(%rbp)
    7c84:	00 00 00 
    7c87:	c7 85 6c fb ff ff fd 	movl   $0xfffffffd,-0x494(%rbp)
    7c8e:	ff ff ff 
    7c91:	c7 85 70 fb ff ff 01 	movl   $0x1,-0x490(%rbp)
    7c98:	00 00 00 
    7c9b:	48 8d 85 50 fb ff ff 	lea    -0x4b0(%rbp),%rax
    7ca2:	48 83 c0 14          	add    $0x14,%rax
    7ca6:	48 89 85 18 fb ff ff 	mov    %rax,-0x4e8(%rbp)
    7cad:	48 8d 85 50 fb ff ff 	lea    -0x4b0(%rbp),%rax
    7cb4:	48 83 c0 08          	add    $0x8,%rax
    7cb8:	48 89 85 20 fb ff ff 	mov    %rax,-0x4e0(%rbp)
    7cbf:	48 8d 05 66 85 00 00 	lea    0x8566(%rip),%rax        # 1022c <g_48>
    7cc6:	48 89 85 28 fb ff ff 	mov    %rax,-0x4d8(%rbp)
    7ccd:	48 8d 05 5c 85 00 00 	lea    0x855c(%rip),%rax        # 10230 <g_63>
    7cd4:	48 89 85 80 fb ff ff 	mov    %rax,-0x480(%rbp)
    7cdb:	48 c7 85 88 fb ff ff 	movq   $0x0,-0x478(%rbp)
    7ce2:	00 00 00 00 
    7ce6:	48 8d 05 bf 85 00 00 	lea    0x85bf(%rip),%rax        # 102ac <g_76+0x4c>
    7ced:	48 89 85 90 fb ff ff 	mov    %rax,-0x470(%rbp)
    7cf4:	48 8d 05 31 85 00 00 	lea    0x8531(%rip),%rax        # 1022c <g_48>
    7cfb:	48 89 85 98 fb ff ff 	mov    %rax,-0x468(%rbp)
    7d02:	48 8d 05 23 85 00 00 	lea    0x8523(%rip),%rax        # 1022c <g_48>
    7d09:	48 89 85 a0 fb ff ff 	mov    %rax,-0x460(%rbp)
    7d10:	48 8d 05 15 85 00 00 	lea    0x8515(%rip),%rax        # 1022c <g_48>
    7d17:	48 89 85 a8 fb ff ff 	mov    %rax,-0x458(%rbp)
    7d1e:	48 c7 85 b0 fb ff ff 	movq   $0x0,-0x450(%rbp)
    7d25:	00 00 00 00 
    7d29:	48 8d 05 fc 84 00 00 	lea    0x84fc(%rip),%rax        # 1022c <g_48>
    7d30:	48 89 85 b8 fb ff ff 	mov    %rax,-0x448(%rbp)
    7d37:	48 8d 05 ee 84 00 00 	lea    0x84ee(%rip),%rax        # 1022c <g_48>
    7d3e:	48 89 85 c0 fb ff ff 	mov    %rax,-0x440(%rbp)
    7d45:	48 c7 85 c8 fb ff ff 	movq   $0x0,-0x438(%rbp)
    7d4c:	00 00 00 00 
    7d50:	48 8d 05 d9 84 00 00 	lea    0x84d9(%rip),%rax        # 10230 <g_63>
    7d57:	48 89 85 d0 fb ff ff 	mov    %rax,-0x430(%rbp)
    7d5e:	48 8d 05 c7 84 00 00 	lea    0x84c7(%rip),%rax        # 1022c <g_48>
    7d65:	48 89 85 d8 fb ff ff 	mov    %rax,-0x428(%rbp)
    7d6c:	48 8d 05 bd 84 00 00 	lea    0x84bd(%rip),%rax        # 10230 <g_63>
    7d73:	48 89 85 e0 fb ff ff 	mov    %rax,-0x420(%rbp)
    7d7a:	48 8d 05 c3 86 00 00 	lea    0x86c3(%rip),%rax        # 10444 <g_76+0x1e4>
    7d81:	48 89 85 e8 fb ff ff 	mov    %rax,-0x418(%rbp)
    7d88:	48 8d 05 a1 84 00 00 	lea    0x84a1(%rip),%rax        # 10230 <g_63>
    7d8f:	48 89 85 f0 fb ff ff 	mov    %rax,-0x410(%rbp)
    7d96:	48 8d 05 8f 84 00 00 	lea    0x848f(%rip),%rax        # 1022c <g_48>
    7d9d:	48 89 85 f8 fb ff ff 	mov    %rax,-0x408(%rbp)
    7da4:	48 8d 05 a5 87 00 00 	lea    0x87a5(%rip),%rax        # 10550 <g_76+0x2f0>
    7dab:	48 89 85 00 fc ff ff 	mov    %rax,-0x400(%rbp)
    7db2:	48 8d 05 77 84 00 00 	lea    0x8477(%rip),%rax        # 10230 <g_63>
    7db9:	48 89 85 08 fc ff ff 	mov    %rax,-0x3f8(%rbp)
    7dc0:	48 c7 85 10 fc ff ff 	movq   $0x0,-0x3f0(%rbp)
    7dc7:	00 00 00 00 
    7dcb:	48 8d 05 5a 84 00 00 	lea    0x845a(%rip),%rax        # 1022c <g_48>
    7dd2:	48 89 85 18 fc ff ff 	mov    %rax,-0x3e8(%rbp)
    7dd9:	48 8d 05 50 84 00 00 	lea    0x8450(%rip),%rax        # 10230 <g_63>
    7de0:	48 89 85 20 fc ff ff 	mov    %rax,-0x3e0(%rbp)
    7de7:	48 8d 05 56 86 00 00 	lea    0x8656(%rip),%rax        # 10444 <g_76+0x1e4>
    7dee:	48 89 85 28 fc ff ff 	mov    %rax,-0x3d8(%rbp)
    7df5:	48 c7 85 30 fc ff ff 	movq   $0x0,-0x3d0(%rbp)
    7dfc:	00 00 00 00 
    7e00:	48 8d 85 50 fb ff ff 	lea    -0x4b0(%rbp),%rax
    7e07:	48 89 85 38 fc ff ff 	mov    %rax,-0x3c8(%rbp)
    7e0e:	48 8d 05 d7 86 00 00 	lea    0x86d7(%rip),%rax        # 104ec <g_76+0x28c>
    7e15:	48 89 85 40 fc ff ff 	mov    %rax,-0x3c0(%rbp)
    7e1c:	48 8d 05 09 84 00 00 	lea    0x8409(%rip),%rax        # 1022c <g_48>
    7e23:	48 89 85 48 fc ff ff 	mov    %rax,-0x3b8(%rbp)
    7e2a:	48 c7 85 50 fc ff ff 	movq   $0x0,-0x3b0(%rbp)
    7e31:	00 00 00 00 
    7e35:	48 c7 85 58 fc ff ff 	movq   $0x0,-0x3a8(%rbp)
    7e3c:	00 00 00 00 
    7e40:	48 8d 85 50 fb ff ff 	lea    -0x4b0(%rbp),%rax
    7e47:	48 89 85 60 fc ff ff 	mov    %rax,-0x3a0(%rbp)
    7e4e:	48 c7 85 68 fc ff ff 	movq   $0x0,-0x398(%rbp)
    7e55:	00 00 00 00 
    7e59:	48 8d 05 cc 83 00 00 	lea    0x83cc(%rip),%rax        # 1022c <g_48>
    7e60:	48 89 85 70 fc ff ff 	mov    %rax,-0x390(%rbp)
    7e67:	48 8d 05 be 83 00 00 	lea    0x83be(%rip),%rax        # 1022c <g_48>
    7e6e:	48 89 85 78 fc ff ff 	mov    %rax,-0x388(%rbp)
    7e75:	48 8d 05 c8 85 00 00 	lea    0x85c8(%rip),%rax        # 10444 <g_76+0x1e4>
    7e7c:	48 89 85 80 fc ff ff 	mov    %rax,-0x380(%rbp)
    7e83:	48 c7 85 88 fc ff ff 	movq   $0x0,-0x378(%rbp)
    7e8a:	00 00 00 00 
    7e8e:	48 8d 85 50 fb ff ff 	lea    -0x4b0(%rbp),%rax
    7e95:	48 89 85 90 fc ff ff 	mov    %rax,-0x370(%rbp)
    7e9c:	48 8d 05 89 83 00 00 	lea    0x8389(%rip),%rax        # 1022c <g_48>
    7ea3:	48 89 85 98 fc ff ff 	mov    %rax,-0x368(%rbp)
    7eaa:	48 8d 05 fb 83 00 00 	lea    0x83fb(%rip),%rax        # 102ac <g_76+0x4c>
    7eb1:	48 89 85 a0 fc ff ff 	mov    %rax,-0x360(%rbp)
    7eb8:	48 c7 85 a8 fc ff ff 	movq   $0x0,-0x358(%rbp)
    7ebf:	00 00 00 00 
    7ec3:	48 8d 05 7a 85 00 00 	lea    0x857a(%rip),%rax        # 10444 <g_76+0x1e4>
    7eca:	48 89 85 b0 fc ff ff 	mov    %rax,-0x350(%rbp)
    7ed1:	48 8d 05 58 83 00 00 	lea    0x8358(%rip),%rax        # 10230 <g_63>
    7ed8:	48 89 85 b8 fc ff ff 	mov    %rax,-0x348(%rbp)
    7edf:	48 8d 05 5e 85 00 00 	lea    0x855e(%rip),%rax        # 10444 <g_76+0x1e4>
    7ee6:	48 89 85 c0 fc ff ff 	mov    %rax,-0x340(%rbp)
    7eed:	48 8d 85 50 fb ff ff 	lea    -0x4b0(%rbp),%rax
    7ef4:	48 89 85 c8 fc ff ff 	mov    %rax,-0x338(%rbp)
    7efb:	48 8d 05 2e 83 00 00 	lea    0x832e(%rip),%rax        # 10230 <g_63>
    7f02:	48 89 85 d0 fc ff ff 	mov    %rax,-0x330(%rbp)
    7f09:	48 8d 05 1c 83 00 00 	lea    0x831c(%rip),%rax        # 1022c <g_48>
    7f10:	48 89 85 d8 fc ff ff 	mov    %rax,-0x328(%rbp)
    7f17:	48 8d 05 0e 83 00 00 	lea    0x830e(%rip),%rax        # 1022c <g_48>
    7f1e:	48 89 85 e0 fc ff ff 	mov    %rax,-0x320(%rbp)
    7f25:	48 8d 05 18 85 00 00 	lea    0x8518(%rip),%rax        # 10444 <g_76+0x1e4>
    7f2c:	48 89 85 e8 fc ff ff 	mov    %rax,-0x318(%rbp)
    7f33:	48 8d 05 72 83 00 00 	lea    0x8372(%rip),%rax        # 102ac <g_76+0x4c>
    7f3a:	48 89 85 f0 fc ff ff 	mov    %rax,-0x310(%rbp)
    7f41:	48 8d 05 fc 84 00 00 	lea    0x84fc(%rip),%rax        # 10444 <g_76+0x1e4>
    7f48:	48 89 85 f8 fc ff ff 	mov    %rax,-0x308(%rbp)
    7f4f:	48 8d 05 d6 82 00 00 	lea    0x82d6(%rip),%rax        # 1022c <g_48>
    7f56:	48 89 85 00 fd ff ff 	mov    %rax,-0x300(%rbp)
    7f5d:	48 8d 05 c8 82 00 00 	lea    0x82c8(%rip),%rax        # 1022c <g_48>
    7f64:	48 89 85 08 fd ff ff 	mov    %rax,-0x2f8(%rbp)
    7f6b:	48 8d 05 be 82 00 00 	lea    0x82be(%rip),%rax        # 10230 <g_63>
    7f72:	48 89 85 10 fd ff ff 	mov    %rax,-0x2f0(%rbp)
    7f79:	48 8d 05 ac 82 00 00 	lea    0x82ac(%rip),%rax        # 1022c <g_48>
    7f80:	48 89 85 18 fd ff ff 	mov    %rax,-0x2e8(%rbp)
    7f87:	48 8d 85 50 fb ff ff 	lea    -0x4b0(%rbp),%rax
    7f8e:	48 83 c0 10          	add    $0x10,%rax
    7f92:	48 89 85 20 fd ff ff 	mov    %rax,-0x2e0(%rbp)
    7f99:	48 8d 05 8c 82 00 00 	lea    0x828c(%rip),%rax        # 1022c <g_48>
    7fa0:	48 89 85 28 fd ff ff 	mov    %rax,-0x2d8(%rbp)
    7fa7:	48 8d 05 82 82 00 00 	lea    0x8282(%rip),%rax        # 10230 <g_63>
    7fae:	48 89 85 30 fd ff ff 	mov    %rax,-0x2d0(%rbp)
    7fb5:	48 8d 85 50 fb ff ff 	lea    -0x4b0(%rbp),%rax
    7fbc:	48 83 c0 10          	add    $0x10,%rax
    7fc0:	48 89 85 38 fd ff ff 	mov    %rax,-0x2c8(%rbp)
    7fc7:	48 c7 85 40 fd ff ff 	movq   $0x0,-0x2c0(%rbp)
    7fce:	00 00 00 00 
    7fd2:	48 8d 85 50 fb ff ff 	lea    -0x4b0(%rbp),%rax
    7fd9:	48 89 85 48 fd ff ff 	mov    %rax,-0x2b8(%rbp)
    7fe0:	48 8d 05 49 82 00 00 	lea    0x8249(%rip),%rax        # 10230 <g_63>
    7fe7:	48 89 85 50 fd ff ff 	mov    %rax,-0x2b0(%rbp)
    7fee:	48 8d 05 3b 82 00 00 	lea    0x823b(%rip),%rax        # 10230 <g_63>
    7ff5:	48 89 85 58 fd ff ff 	mov    %rax,-0x2a8(%rbp)
    7ffc:	48 8d 05 59 84 00 00 	lea    0x8459(%rip),%rax        # 1045c <g_76+0x1fc>
    8003:	48 89 85 60 fd ff ff 	mov    %rax,-0x2a0(%rbp)
    800a:	48 8d 05 1f 82 00 00 	lea    0x821f(%rip),%rax        # 10230 <g_63>
    8011:	48 89 85 68 fd ff ff 	mov    %rax,-0x298(%rbp)
    8018:	48 8d 05 25 84 00 00 	lea    0x8425(%rip),%rax        # 10444 <g_76+0x1e4>
    801f:	48 89 85 70 fd ff ff 	mov    %rax,-0x290(%rbp)
    8026:	48 8d 05 ff 81 00 00 	lea    0x81ff(%rip),%rax        # 1022c <g_48>
    802d:	48 89 85 78 fd ff ff 	mov    %rax,-0x288(%rbp)
    8034:	48 8d 05 09 84 00 00 	lea    0x8409(%rip),%rax        # 10444 <g_76+0x1e4>
    803b:	48 89 85 80 fd ff ff 	mov    %rax,-0x280(%rbp)
    8042:	48 8d 05 e7 81 00 00 	lea    0x81e7(%rip),%rax        # 10230 <g_63>
    8049:	48 89 85 88 fd ff ff 	mov    %rax,-0x278(%rbp)
    8050:	48 8d 05 d5 81 00 00 	lea    0x81d5(%rip),%rax        # 1022c <g_48>
    8057:	48 89 85 90 fd ff ff 	mov    %rax,-0x270(%rbp)
    805e:	48 c7 85 98 fd ff ff 	movq   $0x0,-0x268(%rbp)
    8065:	00 00 00 00 
    8069:	48 8d 05 c0 81 00 00 	lea    0x81c0(%rip),%rax        # 10230 <g_63>
    8070:	48 89 85 a0 fd ff ff 	mov    %rax,-0x260(%rbp)
    8077:	48 8d 05 ae 81 00 00 	lea    0x81ae(%rip),%rax        # 1022c <g_48>
    807e:	48 89 85 a8 fd ff ff 	mov    %rax,-0x258(%rbp)
    8085:	48 8d 05 a4 81 00 00 	lea    0x81a4(%rip),%rax        # 10230 <g_63>
    808c:	48 89 85 b0 fd ff ff 	mov    %rax,-0x250(%rbp)
    8093:	48 8d 05 aa 83 00 00 	lea    0x83aa(%rip),%rax        # 10444 <g_76+0x1e4>
    809a:	48 89 85 b8 fd ff ff 	mov    %rax,-0x248(%rbp)
    80a1:	48 c7 85 c0 fd ff ff 	movq   $0x0,-0x240(%rbp)
    80a8:	00 00 00 00 
    80ac:	48 c7 85 c8 fd ff ff 	movq   $0x0,-0x238(%rbp)
    80b3:	00 00 00 00 
    80b7:	48 c7 85 d0 fd ff ff 	movq   $0x0,-0x230(%rbp)
    80be:	00 00 00 00 
    80c2:	48 8d 05 63 81 00 00 	lea    0x8163(%rip),%rax        # 1022c <g_48>
    80c9:	48 89 85 d8 fd ff ff 	mov    %rax,-0x228(%rbp)
    80d0:	48 c7 85 e0 fd ff ff 	movq   $0x0,-0x220(%rbp)
    80d7:	00 00 00 00 
    80db:	48 c7 85 e8 fd ff ff 	movq   $0x0,-0x218(%rbp)
    80e2:	00 00 00 00 
    80e6:	48 8d 05 3f 81 00 00 	lea    0x813f(%rip),%rax        # 1022c <g_48>
    80ed:	48 89 85 f0 fd ff ff 	mov    %rax,-0x210(%rbp)
    80f4:	48 8d 05 35 81 00 00 	lea    0x8135(%rip),%rax        # 10230 <g_63>
    80fb:	48 89 85 f8 fd ff ff 	mov    %rax,-0x208(%rbp)
    8102:	48 c7 85 00 fe ff ff 	movq   $0x0,-0x200(%rbp)
    8109:	00 00 00 00 
    810d:	48 8d 05 18 81 00 00 	lea    0x8118(%rip),%rax        # 1022c <g_48>
    8114:	48 89 85 08 fe ff ff 	mov    %rax,-0x1f8(%rbp)
    811b:	48 8d 05 22 83 00 00 	lea    0x8322(%rip),%rax        # 10444 <g_76+0x1e4>
    8122:	48 89 85 10 fe ff ff 	mov    %rax,-0x1f0(%rbp)
    8129:	48 8d 05 00 81 00 00 	lea    0x8100(%rip),%rax        # 10230 <g_63>
    8130:	48 89 85 18 fe ff ff 	mov    %rax,-0x1e8(%rbp)
    8137:	48 8d 05 f2 80 00 00 	lea    0x80f2(%rip),%rax        # 10230 <g_63>
    813e:	48 89 85 20 fe ff ff 	mov    %rax,-0x1e0(%rbp)
    8145:	48 8d 85 50 fb ff ff 	lea    -0x4b0(%rbp),%rax
    814c:	48 83 c0 10          	add    $0x10,%rax
    8150:	48 89 85 28 fe ff ff 	mov    %rax,-0x1d8(%rbp)
    8157:	48 8d 05 ce 80 00 00 	lea    0x80ce(%rip),%rax        # 1022c <g_48>
    815e:	48 89 85 30 fe ff ff 	mov    %rax,-0x1d0(%rbp)
    8165:	48 8d 05 c4 80 00 00 	lea    0x80c4(%rip),%rax        # 10230 <g_63>
    816c:	48 89 85 38 fe ff ff 	mov    %rax,-0x1c8(%rbp)
    8173:	48 8d 05 b2 80 00 00 	lea    0x80b2(%rip),%rax        # 1022c <g_48>
    817a:	48 89 85 40 fe ff ff 	mov    %rax,-0x1c0(%rbp)
    8181:	48 c7 85 48 fe ff ff 	movq   $0x0,-0x1b8(%rbp)
    8188:	00 00 00 00 
    818c:	48 8d 85 50 fb ff ff 	lea    -0x4b0(%rbp),%rax
    8193:	48 83 c0 10          	add    $0x10,%rax
    8197:	48 89 85 50 fe ff ff 	mov    %rax,-0x1b0(%rbp)
    819e:	48 c7 85 58 fe ff ff 	movq   $0x0,-0x1a8(%rbp)
    81a5:	00 00 00 00 
    81a9:	48 c7 85 60 fe ff ff 	movq   $0x0,-0x1a0(%rbp)
    81b0:	00 00 00 00 
    81b4:	48 8d 85 50 fb ff ff 	lea    -0x4b0(%rbp),%rax
    81bb:	48 83 c0 10          	add    $0x10,%rax
    81bf:	48 89 85 68 fe ff ff 	mov    %rax,-0x198(%rbp)
    81c6:	48 8d 05 77 82 00 00 	lea    0x8277(%rip),%rax        # 10444 <g_76+0x1e4>
    81cd:	48 89 85 70 fe ff ff 	mov    %rax,-0x190(%rbp)
    81d4:	48 c7 85 78 fe ff ff 	movq   $0x0,-0x188(%rbp)
    81db:	00 00 00 00 
    81df:	48 c7 85 80 fe ff ff 	movq   $0x0,-0x180(%rbp)
    81e6:	00 00 00 00 
    81ea:	48 8d 05 3f 80 00 00 	lea    0x803f(%rip),%rax        # 10230 <g_63>
    81f1:	48 89 85 88 fe ff ff 	mov    %rax,-0x178(%rbp)
    81f8:	48 8d 05 2d 80 00 00 	lea    0x802d(%rip),%rax        # 1022c <g_48>
    81ff:	48 89 85 90 fe ff ff 	mov    %rax,-0x170(%rbp)
    8206:	48 8d 05 9f 80 00 00 	lea    0x809f(%rip),%rax        # 102ac <g_76+0x4c>
    820d:	48 89 85 98 fe ff ff 	mov    %rax,-0x168(%rbp)
    8214:	48 8d 05 11 80 00 00 	lea    0x8011(%rip),%rax        # 1022c <g_48>
    821b:	48 89 85 a0 fe ff ff 	mov    %rax,-0x160(%rbp)
    8222:	48 8d 85 50 fb ff ff 	lea    -0x4b0(%rbp),%rax
    8229:	48 89 85 a8 fe ff ff 	mov    %rax,-0x158(%rbp)
    8230:	48 8d 85 50 fb ff ff 	lea    -0x4b0(%rbp),%rax
    8237:	48 83 c0 10          	add    $0x10,%rax
    823b:	48 89 85 b0 fe ff ff 	mov    %rax,-0x150(%rbp)
    8242:	48 c7 85 b8 fe ff ff 	movq   $0x0,-0x148(%rbp)
    8249:	00 00 00 00 
    824d:	48 8d 05 dc 7f 00 00 	lea    0x7fdc(%rip),%rax        # 10230 <g_63>
    8254:	48 89 85 c0 fe ff ff 	mov    %rax,-0x140(%rbp)
    825b:	48 8d 05 ce 7f 00 00 	lea    0x7fce(%rip),%rax        # 10230 <g_63>
    8262:	48 89 85 c8 fe ff ff 	mov    %rax,-0x138(%rbp)
    8269:	48 8d 05 e0 82 00 00 	lea    0x82e0(%rip),%rax        # 10550 <g_76+0x2f0>
    8270:	48 89 85 d0 fe ff ff 	mov    %rax,-0x130(%rbp)
    8277:	48 8d 05 ae 7f 00 00 	lea    0x7fae(%rip),%rax        # 1022c <g_48>
    827e:	48 89 85 d8 fe ff ff 	mov    %rax,-0x128(%rbp)
    8285:	48 8d 05 a0 7f 00 00 	lea    0x7fa0(%rip),%rax        # 1022c <g_48>
    828c:	48 89 85 e0 fe ff ff 	mov    %rax,-0x120(%rbp)
    8293:	48 c7 85 e8 fe ff ff 	movq   $0x0,-0x118(%rbp)
    829a:	00 00 00 00 
    829e:	48 8d 05 8b 7f 00 00 	lea    0x7f8b(%rip),%rax        # 10230 <g_63>
    82a5:	48 89 85 f0 fe ff ff 	mov    %rax,-0x110(%rbp)
    82ac:	48 8d 05 7d 7f 00 00 	lea    0x7f7d(%rip),%rax        # 10230 <g_63>
    82b3:	48 89 85 f8 fe ff ff 	mov    %rax,-0x108(%rbp)
    82ba:	48 8d 05 6b 7f 00 00 	lea    0x7f6b(%rip),%rax        # 1022c <g_48>
    82c1:	48 89 85 00 ff ff ff 	mov    %rax,-0x100(%rbp)
    82c8:	48 8d 85 50 fb ff ff 	lea    -0x4b0(%rbp),%rax
    82cf:	48 83 c0 10          	add    $0x10,%rax
    82d3:	48 89 85 08 ff ff ff 	mov    %rax,-0xf8(%rbp)
    82da:	48 8d 05 4b 7f 00 00 	lea    0x7f4b(%rip),%rax        # 1022c <g_48>
    82e1:	48 89 85 10 ff ff ff 	mov    %rax,-0xf0(%rbp)
    82e8:	48 8d 05 55 81 00 00 	lea    0x8155(%rip),%rax        # 10444 <g_76+0x1e4>
    82ef:	48 89 85 18 ff ff ff 	mov    %rax,-0xe8(%rbp)
    82f6:	48 8d 05 33 7f 00 00 	lea    0x7f33(%rip),%rax        # 10230 <g_63>
    82fd:	48 89 85 20 ff ff ff 	mov    %rax,-0xe0(%rbp)
    8304:	48 8d 05 25 7f 00 00 	lea    0x7f25(%rip),%rax        # 10230 <g_63>
    830b:	48 89 85 28 ff ff ff 	mov    %rax,-0xd8(%rbp)
    8312:	48 8d 05 13 7f 00 00 	lea    0x7f13(%rip),%rax        # 1022c <g_48>
    8319:	48 89 85 30 ff ff ff 	mov    %rax,-0xd0(%rbp)
    8320:	48 8d 05 09 7f 00 00 	lea    0x7f09(%rip),%rax        # 10230 <g_63>
    8327:	48 89 85 38 ff ff ff 	mov    %rax,-0xc8(%rbp)
    832e:	48 c7 85 40 ff ff ff 	movq   $0x0,-0xc0(%rbp)
    8335:	00 00 00 00 
    8339:	48 8d 05 f0 7e 00 00 	lea    0x7ef0(%rip),%rax        # 10230 <g_63>
    8340:	48 89 85 48 ff ff ff 	mov    %rax,-0xb8(%rbp)
    8347:	48 c7 85 50 ff ff ff 	movq   $0x0,-0xb0(%rbp)
    834e:	00 00 00 00 
    8352:	48 8d 05 d7 7e 00 00 	lea    0x7ed7(%rip),%rax        # 10230 <g_63>
    8359:	48 89 85 58 ff ff ff 	mov    %rax,-0xa8(%rbp)
    8360:	48 c7 85 60 ff ff ff 	movq   $0x0,-0xa0(%rbp)
    8367:	00 00 00 00 
    836b:	48 8d 05 3a 7f 00 00 	lea    0x7f3a(%rip),%rax        # 102ac <g_76+0x4c>
    8372:	48 89 85 68 ff ff ff 	mov    %rax,-0x98(%rbp)
    8379:	48 8d 05 b0 7e 00 00 	lea    0x7eb0(%rip),%rax        # 10230 <g_63>
    8380:	48 89 85 70 ff ff ff 	mov    %rax,-0x90(%rbp)
    8387:	48 8d 05 9e 7e 00 00 	lea    0x7e9e(%rip),%rax        # 1022c <g_48>
    838e:	48 89 85 78 ff ff ff 	mov    %rax,-0x88(%rbp)
    8395:	48 8d 05 90 7e 00 00 	lea    0x7e90(%rip),%rax        # 1022c <g_48>
    839c:	48 89 45 80          	mov    %rax,-0x80(%rbp)
    83a0:	48 8d 05 89 7e 00 00 	lea    0x7e89(%rip),%rax        # 10230 <g_63>
    83a7:	48 89 45 88          	mov    %rax,-0x78(%rbp)
    83ab:	48 8d 05 7a 7e 00 00 	lea    0x7e7a(%rip),%rax        # 1022c <g_48>
    83b2:	48 89 45 90          	mov    %rax,-0x70(%rbp)
    83b6:	48 8d 05 93 81 00 00 	lea    0x8193(%rip),%rax        # 10550 <g_76+0x2f0>
    83bd:	48 89 45 98          	mov    %rax,-0x68(%rbp)
    83c1:	48 8d 05 24 81 00 00 	lea    0x8124(%rip),%rax        # 104ec <g_76+0x28c>
    83c8:	48 89 45 a0          	mov    %rax,-0x60(%rbp)
    83cc:	48 c7 45 a8 00 00 00 	movq   $0x0,-0x58(%rbp)
    83d3:	00 
    83d4:	48 c7 45 b0 00 00 00 	movq   $0x0,-0x50(%rbp)
    83db:	00 
    83dc:	48 8d 05 49 7e 00 00 	lea    0x7e49(%rip),%rax        # 1022c <g_48>
    83e3:	48 89 45 b8          	mov    %rax,-0x48(%rbp)
    83e7:	48 8d 85 50 fb ff ff 	lea    -0x4b0(%rbp),%rax
    83ee:	48 89 45 c0          	mov    %rax,-0x40(%rbp)
    83f2:	48 8d 05 4b 80 00 00 	lea    0x804b(%rip),%rax        # 10444 <g_76+0x1e4>
    83f9:	48 89 45 c8          	mov    %rax,-0x38(%rbp)
    83fd:	48 8d 05 2c 7e 00 00 	lea    0x7e2c(%rip),%rax        # 10230 <g_63>
    8404:	48 89 45 d0          	mov    %rax,-0x30(%rbp)
    8408:	48 8d 05 21 7e 00 00 	lea    0x7e21(%rip),%rax        # 10230 <g_63>
    840f:	48 89 45 d8          	mov    %rax,-0x28(%rbp)
    8413:	c6 85 fd fa ff ff 00 	movb   $0x0,-0x503(%rbp)
    841a:	48 8d 85 00 fb ff ff 	lea    -0x500(%rbp),%rax
    8421:	48 89 85 30 fb ff ff 	mov    %rax,-0x4d0(%rbp)
    8428:	48 b8 78 15 c9 3f 67 	movabs $0xdb9ac0673fc91578,%rax
    842f:	c0 9a db 
    8432:	48 89 85 3c fb ff ff 	mov    %rax,-0x4c4(%rbp)
    8439:	c6 85 44 fb ff ff 00 	movb   $0x0,-0x4bc(%rbp)
    8440:	c6 85 45 fb ff ff de 	movb   $0xde,-0x4bb(%rbp)
    8447:	66 c7 85 fe fa ff ff 	movw   $0x1,-0x502(%rbp)
    844e:	01 00 
    8450:	0f b6 85 fd fa ff ff 	movzbl -0x503(%rbp),%eax
    8457:	83 e8 01             	sub    $0x1,%eax
    845a:	88 85 fd fa ff ff    	mov    %al,-0x503(%rbp)
    8460:	48 8b 85 30 fb ff ff 	mov    -0x4d0(%rbp),%rax
    8467:	48 c7 00 00 00 00 00 	movq   $0x0,(%rax)
    846e:	0f b7 05 3b 7c 00 00 	movzwl 0x7c3b(%rip),%eax        # 100b0 <g_32+0x70>
    8475:	0f b6 d8             	movzbl %al,%ebx
    8478:	0f b6 85 ec fa ff ff 	movzbl -0x514(%rbp),%eax
    847f:	88 05 bc 7d 00 00    	mov    %al,0x7dbc(%rip)        # 10241 <g_70+0x9>
    8485:	0f b6 05 b5 7d 00 00 	movzbl 0x7db5(%rip),%eax        # 10241 <g_70+0x9>
    848c:	0f b6 d0             	movzbl %al,%edx
    848f:	0f b6 05 aa 7d 00 00 	movzbl 0x7daa(%rip),%eax        # 10240 <g_70+0x8>
    8496:	8b 8d e8 fa ff ff    	mov    -0x518(%rbp),%ecx
    849c:	09 c8                	or     %ecx,%eax
    849e:	0f b6 c0             	movzbl %al,%eax
    84a1:	89 d6                	mov    %edx,%esi
    84a3:	89 c7                	mov    %eax,%edi
    84a5:	e8 a2 c7 ff ff       	callq  4c4c <safe_lshift_func_uint8_t_u_u>
    84aa:	0f b6 d0             	movzbl %al,%edx
    84ad:	0f b7 05 7c 7b 00 00 	movzwl 0x7b7c(%rip),%eax        # 10030 <g_28>
    84b4:	98                   	cwtl   
    84b5:	89 d6                	mov    %edx,%esi
    84b7:	89 c7                	mov    %eax,%edi
    84b9:	e8 67 ca ff ff       	callq  4f25 <safe_div_func_uint32_t_u_u>
    84be:	3d 13 84 d0 bd       	cmp    $0xbdd08413,%eax
    84c3:	0f 96 c0             	setbe  %al
    84c6:	0f b6 c0             	movzbl %al,%eax
    84c9:	89 de                	mov    %ebx,%esi
    84cb:	89 c7                	mov    %eax,%edi
    84cd:	e8 09 c7 ff ff       	callq  4bdb <safe_div_func_uint8_t_u_u>
    84d2:	0f b6 c0             	movzbl %al,%eax
    84d5:	48 89 c7             	mov    %rax,%rdi
    84d8:	e8 3c cb ff ff       	callq  5019 <safe_unary_minus_func_uint64_t_u>
    84dd:	89 c6                	mov    %eax,%esi
    84df:	8b bd e8 fa ff ff    	mov    -0x518(%rbp),%edi
    84e5:	48 8b 85 3c fb ff ff 	mov    -0x4c4(%rbp),%rax
    84ec:	0f b7 8d 44 fb ff ff 	movzwl -0x4bc(%rbp),%ecx
    84f3:	48 89 ca             	mov    %rcx,%rdx
    84f6:	48 89 d1             	mov    %rdx,%rcx
    84f9:	48 89 c2             	mov    %rax,%rdx
    84fc:	e8 96 00 00 00       	callq  8597 <func_12>
    8501:	0f b7 85 fe fa ff ff 	movzwl -0x502(%rbp),%eax
    8508:	39 85 e8 fa ff ff    	cmp    %eax,-0x518(%rbp)
    850e:	0f 9f c0             	setg   %al
    8511:	0f b6 d8             	movzbl %al,%ebx
    8514:	48 8b 05 05 7d 00 00 	mov    0x7d05(%rip),%rax        # 10220 <g_46>
    851b:	48 89 c7             	mov    %rax,%rdi
    851e:	e8 78 01 00 00       	callq  869b <func_16>
    8523:	0f be c0             	movsbl %al,%eax
    8526:	89 de                	mov    %ebx,%esi
    8528:	89 c7                	mov    %eax,%edi
    852a:	e8 06 be ff ff       	callq  4335 <safe_rshift_func_int8_t_s_s>
    852f:	66 98                	cbtw   
    8531:	0f b7 c0             	movzwl %ax,%eax
    8534:	be 01 00 00 00       	mov    $0x1,%esi
    8539:	89 c7                	mov    %eax,%edi
    853b:	e8 3a c9 ff ff       	callq  4e7a <safe_rshift_func_uint16_t_u_u>
    8540:	0f b7 d0             	movzwl %ax,%edx
    8543:	48 8b 85 20 fb ff ff 	mov    -0x4e0(%rbp),%rax
    854a:	89 10                	mov    %edx,(%rax)
    854c:	48 8b 85 3c fb ff ff 	mov    -0x4c4(%rbp),%rax
    8553:	48 89 85 46 fb ff ff 	mov    %rax,-0x4ba(%rbp)
    855a:	0f b7 85 44 fb ff ff 	movzwl -0x4bc(%rbp),%eax
    8561:	66 89 85 4e fb ff ff 	mov    %ax,-0x4b2(%rbp)
    8568:	48 8b 85 46 fb ff ff 	mov    -0x4ba(%rbp),%rax
    856f:	0f b7 8d 4e fb ff ff 	movzwl -0x4b2(%rbp),%ecx
    8576:	48 89 ca             	mov    %rcx,%rdx
    8579:	48 8b 5d e8          	mov    -0x18(%rbp),%rbx
    857d:	64 48 33 1c 25 28 00 	xor    %fs:0x28,%rbx
    8584:	00 00 
    8586:	74 05                	je     858d <func_9+0x9a0>
    8588:	e8 e3 ba ff ff       	callq  4070 <__stack_chk_fail@plt>
    858d:	48 81 c4 28 05 00 00 	add    $0x528,%rsp
    8594:	5b                   	pop    %rbx
    8595:	5d                   	pop    %rbp
    8596:	c3                   	retq   

0000000000008597 <func_12>:
    8597:	f3 0f 1e fa          	endbr64 
    859b:	55                   	push   %rbp
    859c:	48 89 e5             	mov    %rsp,%rbp
    859f:	48 81 ec 90 00 00 00 	sub    $0x90,%rsp
    85a6:	89 7d 8c             	mov    %edi,-0x74(%rbp)
    85a9:	89 75 88             	mov    %esi,-0x78(%rbp)
    85ac:	48 89 d0             	mov    %rdx,%rax
    85af:	48 89 ca             	mov    %rcx,%rdx
    85b2:	48 89 85 78 ff ff ff 	mov    %rax,-0x88(%rbp)
    85b9:	0f b7 45 80          	movzwl -0x80(%rbp),%eax
    85bd:	83 e0 00             	and    $0x0,%eax
    85c0:	09 d0                	or     %edx,%eax
    85c2:	66 89 45 80          	mov    %ax,-0x80(%rbp)
    85c6:	64 48 8b 04 25 28 00 	mov    %fs:0x28,%rax
    85cd:	00 00 
    85cf:	48 89 45 f8          	mov    %rax,-0x8(%rbp)
    85d3:	31 c0                	xor    %eax,%eax
    85d5:	48 8d 05 50 7c 00 00 	lea    0x7c50(%rip),%rax        # 1022c <g_48>
    85dc:	48 89 45 a0          	mov    %rax,-0x60(%rbp)
    85e0:	48 8d 05 45 7c 00 00 	lea    0x7c45(%rip),%rax        # 1022c <g_48>
    85e7:	48 89 45 a8          	mov    %rax,-0x58(%rbp)
    85eb:	48 8d 05 3e 7c 00 00 	lea    0x7c3e(%rip),%rax        # 10230 <g_63>
    85f2:	48 89 45 b0          	mov    %rax,-0x50(%rbp)
    85f6:	c6 45 9b 03          	movb   $0x3,-0x65(%rbp)
    85fa:	c7 45 f3 97 97 97 97 	movl   $0x97979797,-0xd(%rbp)
    8601:	c6 45 f7 97          	movb   $0x97,-0x9(%rbp)
    8605:	48 8d 05 44 a5 00 00 	lea    0xa544(%rip),%rax        # 12b50 <g_82>
    860c:	48 89 45 b8          	mov    %rax,-0x48(%rbp)
    8610:	c7 45 9c 00 00 00 00 	movl   $0x0,-0x64(%rbp)
    8617:	eb 15                	jmp    862e <func_12+0x97>
    8619:	8b 45 9c             	mov    -0x64(%rbp),%eax
    861c:	48 98                	cltq   
    861e:	48 8d 15 0b 7c 00 00 	lea    0x7c0b(%rip),%rdx        # 10230 <g_63>
    8625:	48 89 54 c5 c0       	mov    %rdx,-0x40(%rbp,%rax,8)
    862a:	83 45 9c 01          	addl   $0x1,-0x64(%rbp)
    862e:	83 7d 9c 05          	cmpl   $0x5,-0x64(%rbp)
    8632:	7e e5                	jle    8619 <func_12+0x82>
    8634:	0f b6 45 f5          	movzbl -0xb(%rbp),%eax
    8638:	83 c0 01             	add    $0x1,%eax
    863b:	88 45 f5             	mov    %al,-0xb(%rbp)
    863e:	48 8b 05 03 7c 00 00 	mov    0x7c03(%rip),%rax        # 10248 <g_75>
    8645:	89 05 e5 7b 00 00    	mov    %eax,0x7be5(%rip)        # 10230 <g_63>
    864b:	8b 05 df 7b 00 00    	mov    0x7bdf(%rip),%eax        # 10230 <g_63>
    8651:	89 c1                	mov    %eax,%ecx
    8653:	48 8b 45 b8          	mov    -0x48(%rbp),%rax
    8657:	8b 10                	mov    (%rax),%edx
    8659:	0f b6 05 c9 7b 00 00 	movzbl 0x7bc9(%rip),%eax        # 10229 <g_46+0x9>
    8660:	0f b6 c0             	movzbl %al,%eax
    8663:	31 c2                	xor    %eax,%edx
    8665:	48 8b 45 b8          	mov    -0x48(%rbp),%rax
    8669:	89 10                	mov    %edx,(%rax)
    866b:	48 8b 45 b8          	mov    -0x48(%rbp),%rax
    866f:	8b 00                	mov    (%rax),%eax
    8671:	39 c1                	cmp    %eax,%ecx
    8673:	0f 96 c0             	setbe  %al
    8676:	0f b6 d0             	movzbl %al,%edx
    8679:	48 8b 45 a8          	mov    -0x58(%rbp),%rax
    867d:	89 10                	mov    %edx,(%rax)
    867f:	48 8b 45 a0          	mov    -0x60(%rbp),%rax
    8683:	8b 00                	mov    (%rax),%eax
    8685:	48 8b 75 f8          	mov    -0x8(%rbp),%rsi
    8689:	64 48 33 34 25 28 00 	xor    %fs:0x28,%rsi
    8690:	00 00 
    8692:	74 05                	je     8699 <func_12+0x102>
    8694:	e8 d7 b9 ff ff       	callq  4070 <__stack_chk_fail@plt>
    8699:	c9                   	leaveq 
    869a:	c3                   	retq   

000000000000869b <func_16>:
    869b:	f3 0f 1e fa          	endbr64 
    869f:	55                   	push   %rbp
    86a0:	48 89 e5             	mov    %rsp,%rbp
    86a3:	48 89 7d e8          	mov    %rdi,-0x18(%rbp)
    86a7:	66 c7 45 fe f6 ff    	movw   $0xfff6,-0x2(%rbp)
    86ad:	48 8b 45 e8          	mov    -0x18(%rbp),%rax
    86b1:	66 89 45 fe          	mov    %ax,-0x2(%rbp)
    86b5:	48 8b 45 e8          	mov    -0x18(%rbp),%rax
    86b9:	5d                   	pop    %rbp
    86ba:	c3                   	retq   

00000000000086bb <func_42>:
    86bb:	f3 0f 1e fa          	endbr64 
    86bf:	55                   	push   %rbp
    86c0:	48 89 e5             	mov    %rsp,%rbp
    86c3:	48 81 ec e0 01 00 00 	sub    $0x1e0,%rsp
    86ca:	89 bd 4c fe ff ff    	mov    %edi,-0x1b4(%rbp)
    86d0:	89 d0                	mov    %edx,%eax
    86d2:	89 8d 48 fe ff ff    	mov    %ecx,-0x1b8(%rbp)
    86d8:	48 89 b5 38 fe ff ff 	mov    %rsi,-0x1c8(%rbp)
    86df:	66 89 85 40 fe ff ff 	mov    %ax,-0x1c0(%rbp)
    86e6:	64 48 8b 04 25 28 00 	mov    %fs:0x28,%rax
    86ed:	00 00 
    86ef:	48 89 45 f8          	mov    %rax,-0x8(%rbp)
    86f3:	31 c0                	xor    %eax,%eax
    86f5:	48 8d 05 30 7b 00 00 	lea    0x7b30(%rip),%rax        # 1022c <g_48>
    86fc:	48 89 85 60 fe ff ff 	mov    %rax,-0x1a0(%rbp)
    8703:	48 8d 05 22 7b 00 00 	lea    0x7b22(%rip),%rax        # 1022c <g_48>
    870a:	48 89 85 68 fe ff ff 	mov    %rax,-0x198(%rbp)
    8711:	c7 85 58 fe ff ff 22 	movl   $0xbc073022,-0x1a8(%rbp)
    8718:	30 07 bc 
    871b:	c7 85 5c fe ff ff fe 	movl   $0xfffffffe,-0x1a4(%rbp)
    8722:	ff ff ff 
    8725:	48 8d 85 5c fe ff ff 	lea    -0x1a4(%rbp),%rax
    872c:	48 89 85 70 fe ff ff 	mov    %rax,-0x190(%rbp)
    8733:	48 8d 85 58 fe ff ff 	lea    -0x1a8(%rbp),%rax
    873a:	48 89 85 78 fe ff ff 	mov    %rax,-0x188(%rbp)
    8741:	48 8d 05 e4 7a 00 00 	lea    0x7ae4(%rip),%rax        # 1022c <g_48>
    8748:	48 89 85 80 fe ff ff 	mov    %rax,-0x180(%rbp)
    874f:	48 8d 85 58 fe ff ff 	lea    -0x1a8(%rbp),%rax
    8756:	48 89 85 88 fe ff ff 	mov    %rax,-0x178(%rbp)
    875d:	48 8d 85 58 fe ff ff 	lea    -0x1a8(%rbp),%rax
    8764:	48 89 85 90 fe ff ff 	mov    %rax,-0x170(%rbp)
    876b:	48 8d 85 5c fe ff ff 	lea    -0x1a4(%rbp),%rax
    8772:	48 89 85 98 fe ff ff 	mov    %rax,-0x168(%rbp)
    8779:	48 8d 05 ac 7a 00 00 	lea    0x7aac(%rip),%rax        # 1022c <g_48>
    8780:	48 89 85 a0 fe ff ff 	mov    %rax,-0x160(%rbp)
    8787:	48 8d 85 58 fe ff ff 	lea    -0x1a8(%rbp),%rax
    878e:	48 89 85 a8 fe ff ff 	mov    %rax,-0x158(%rbp)
    8795:	48 8d 05 90 7a 00 00 	lea    0x7a90(%rip),%rax        # 1022c <g_48>
    879c:	48 89 85 b0 fe ff ff 	mov    %rax,-0x150(%rbp)
    87a3:	48 8d 85 58 fe ff ff 	lea    -0x1a8(%rbp),%rax
    87aa:	48 89 85 b8 fe ff ff 	mov    %rax,-0x148(%rbp)
    87b1:	48 8d 85 5c fe ff ff 	lea    -0x1a4(%rbp),%rax
    87b8:	48 89 85 d0 fe ff ff 	mov    %rax,-0x130(%rbp)
    87bf:	48 8d 85 5c fe ff ff 	lea    -0x1a4(%rbp),%rax
    87c6:	48 89 85 d8 fe ff ff 	mov    %rax,-0x128(%rbp)
    87cd:	48 8d 85 5c fe ff ff 	lea    -0x1a4(%rbp),%rax
    87d4:	48 89 85 e0 fe ff ff 	mov    %rax,-0x120(%rbp)
    87db:	48 8d 85 5c fe ff ff 	lea    -0x1a4(%rbp),%rax
    87e2:	48 89 85 e8 fe ff ff 	mov    %rax,-0x118(%rbp)
    87e9:	48 8d 05 3c 7a 00 00 	lea    0x7a3c(%rip),%rax        # 1022c <g_48>
    87f0:	48 89 85 f0 fe ff ff 	mov    %rax,-0x110(%rbp)
    87f7:	48 8d 85 5c fe ff ff 	lea    -0x1a4(%rbp),%rax
    87fe:	48 89 85 f8 fe ff ff 	mov    %rax,-0x108(%rbp)
    8805:	48 8d 85 5c fe ff ff 	lea    -0x1a4(%rbp),%rax
    880c:	48 89 85 00 ff ff ff 	mov    %rax,-0x100(%rbp)
    8813:	48 8d 85 5c fe ff ff 	lea    -0x1a4(%rbp),%rax
    881a:	48 89 85 08 ff ff ff 	mov    %rax,-0xf8(%rbp)
    8821:	48 8d 85 5c fe ff ff 	lea    -0x1a4(%rbp),%rax
    8828:	48 89 85 10 ff ff ff 	mov    %rax,-0xf0(%rbp)
    882f:	48 8d 85 5c fe ff ff 	lea    -0x1a4(%rbp),%rax
    8836:	48 89 85 18 ff ff ff 	mov    %rax,-0xe8(%rbp)
    883d:	48 8d 85 5c fe ff ff 	lea    -0x1a4(%rbp),%rax
    8844:	48 89 85 20 ff ff ff 	mov    %rax,-0xe0(%rbp)
    884b:	48 8d 85 5c fe ff ff 	lea    -0x1a4(%rbp),%rax
    8852:	48 89 85 28 ff ff ff 	mov    %rax,-0xd8(%rbp)
    8859:	48 8d 05 cc 79 00 00 	lea    0x79cc(%rip),%rax        # 1022c <g_48>
    8860:	48 89 85 30 ff ff ff 	mov    %rax,-0xd0(%rbp)
    8867:	48 8d 05 be 79 00 00 	lea    0x79be(%rip),%rax        # 1022c <g_48>
    886e:	48 89 85 38 ff ff ff 	mov    %rax,-0xc8(%rbp)
    8875:	48 8d 85 5c fe ff ff 	lea    -0x1a4(%rbp),%rax
    887c:	48 89 85 40 ff ff ff 	mov    %rax,-0xc0(%rbp)
    8883:	48 8d 85 5c fe ff ff 	lea    -0x1a4(%rbp),%rax
    888a:	48 89 85 48 ff ff ff 	mov    %rax,-0xb8(%rbp)
    8891:	48 8d 85 5c fe ff ff 	lea    -0x1a4(%rbp),%rax
    8898:	48 89 85 50 ff ff ff 	mov    %rax,-0xb0(%rbp)
    889f:	48 8d 85 5c fe ff ff 	lea    -0x1a4(%rbp),%rax
    88a6:	48 89 85 58 ff ff ff 	mov    %rax,-0xa8(%rbp)
    88ad:	48 8d 85 5c fe ff ff 	lea    -0x1a4(%rbp),%rax
    88b4:	48 89 85 60 ff ff ff 	mov    %rax,-0xa0(%rbp)
    88bb:	48 8d 85 5c fe ff ff 	lea    -0x1a4(%rbp),%rax
    88c2:	48 89 85 68 ff ff ff 	mov    %rax,-0x98(%rbp)
    88c9:	48 8d 85 5c fe ff ff 	lea    -0x1a4(%rbp),%rax
    88d0:	48 89 85 70 ff ff ff 	mov    %rax,-0x90(%rbp)
    88d7:	48 8d 85 5c fe ff ff 	lea    -0x1a4(%rbp),%rax
    88de:	48 89 85 78 ff ff ff 	mov    %rax,-0x88(%rbp)
    88e5:	48 8d 85 5c fe ff ff 	lea    -0x1a4(%rbp),%rax
    88ec:	48 89 45 80          	mov    %rax,-0x80(%rbp)
    88f0:	48 8d 85 5c fe ff ff 	lea    -0x1a4(%rbp),%rax
    88f7:	48 89 45 88          	mov    %rax,-0x78(%rbp)
    88fb:	48 8d 05 2a 79 00 00 	lea    0x792a(%rip),%rax        # 1022c <g_48>
    8902:	48 89 45 90          	mov    %rax,-0x70(%rbp)
    8906:	48 8d 85 5c fe ff ff 	lea    -0x1a4(%rbp),%rax
    890d:	48 89 45 98          	mov    %rax,-0x68(%rbp)
    8911:	48 8d 85 5c fe ff ff 	lea    -0x1a4(%rbp),%rax
    8918:	48 89 45 a0          	mov    %rax,-0x60(%rbp)
    891c:	48 8d 85 5c fe ff ff 	lea    -0x1a4(%rbp),%rax
    8923:	48 89 45 a8          	mov    %rax,-0x58(%rbp)
    8927:	48 8d 85 5c fe ff ff 	lea    -0x1a4(%rbp),%rax
    892e:	48 89 45 b0          	mov    %rax,-0x50(%rbp)
    8932:	48 8d 85 5c fe ff ff 	lea    -0x1a4(%rbp),%rax
    8939:	48 89 45 b8          	mov    %rax,-0x48(%rbp)
    893d:	48 8d 85 5c fe ff ff 	lea    -0x1a4(%rbp),%rax
    8944:	48 89 45 c0          	mov    %rax,-0x40(%rbp)
    8948:	48 8d 85 5c fe ff ff 	lea    -0x1a4(%rbp),%rax
    894f:	48 89 45 c8          	mov    %rax,-0x38(%rbp)
    8953:	48 8d 05 d2 78 00 00 	lea    0x78d2(%rip),%rax        # 1022c <g_48>
    895a:	48 89 45 d0          	mov    %rax,-0x30(%rbp)
    895e:	48 8d 05 c7 78 00 00 	lea    0x78c7(%rip),%rax        # 1022c <g_48>
    8965:	48 89 45 d8          	mov    %rax,-0x28(%rbp)
    8969:	48 8d 85 5c fe ff ff 	lea    -0x1a4(%rbp),%rax
    8970:	48 89 45 e0          	mov    %rax,-0x20(%rbp)
    8974:	48 8d 85 5c fe ff ff 	lea    -0x1a4(%rbp),%rax
    897b:	48 89 45 e8          	mov    %rax,-0x18(%rbp)
    897f:	0f b7 05 ae 78 00 00 	movzwl 0x78ae(%rip),%eax        # 10234 <g_64>
    8986:	83 c0 01             	add    $0x1,%eax
    8989:	66 89 05 a4 78 00 00 	mov    %ax,0x78a4(%rip)        # 10234 <g_64>
    8990:	48 8b 05 89 78 00 00 	mov    0x7889(%rip),%rax        # 10220 <g_46>
    8997:	48 89 85 c6 fe ff ff 	mov    %rax,-0x13a(%rbp)
    899e:	0f b7 05 83 78 00 00 	movzwl 0x7883(%rip),%eax        # 10228 <g_46+0x8>
    89a5:	66 89 85 ce fe ff ff 	mov    %ax,-0x132(%rbp)
    89ac:	48 8b 85 c6 fe ff ff 	mov    -0x13a(%rbp),%rax
    89b3:	0f b7 8d ce fe ff ff 	movzwl -0x132(%rbp),%ecx
    89ba:	48 89 ca             	mov    %rcx,%rdx
    89bd:	48 8b 7d f8          	mov    -0x8(%rbp),%rdi
    89c1:	64 48 33 3c 25 28 00 	xor    %fs:0x28,%rdi
    89c8:	00 00 
    89ca:	74 05                	je     89d1 <func_42+0x316>
    89cc:	e8 9f b6 ff ff       	callq  4070 <__stack_chk_fail@plt>
    89d1:	c9                   	leaveq 
    89d2:	c3                   	retq   

00000000000089d3 <func_119>:
    89d3:	f3 0f 1e fa          	endbr64 
    89d7:	55                   	push   %rbp
    89d8:	48 89 e5             	mov    %rsp,%rbp
    89db:	41 56                	push   %r14
    89dd:	41 55                	push   %r13
    89df:	41 54                	push   %r12
    89e1:	53                   	push   %rbx
    89e2:	48 81 ec 40 04 00 00 	sub    $0x440,%rsp
    89e9:	48 89 bd a8 fb ff ff 	mov    %rdi,-0x458(%rbp)
    89f0:	64 48 8b 04 25 28 00 	mov    %fs:0x28,%rax
    89f7:	00 00 
    89f9:	48 89 45 d8          	mov    %rax,-0x28(%rbp)
    89fd:	31 c0                	xor    %eax,%eax
    89ff:	48 8d 05 3e 7a 00 00 	lea    0x7a3e(%rip),%rax        # 10444 <g_76+0x1e4>
    8a06:	48 89 85 c0 fb ff ff 	mov    %rax,-0x440(%rbp)
    8a0d:	48 8d 05 18 78 00 00 	lea    0x7818(%rip),%rax        # 1022c <g_48>
    8a14:	48 89 85 c8 fb ff ff 	mov    %rax,-0x438(%rbp)
    8a1b:	c7 85 b8 fb ff ff 00 	movl   $0x0,-0x448(%rbp)
    8a22:	00 00 00 
    8a25:	48 8d 05 04 78 00 00 	lea    0x7804(%rip),%rax        # 10230 <g_63>
    8a2c:	48 89 85 d0 fb ff ff 	mov    %rax,-0x430(%rbp)
    8a33:	48 8d 05 f2 77 00 00 	lea    0x77f2(%rip),%rax        # 1022c <g_48>
    8a3a:	48 89 85 d8 fb ff ff 	mov    %rax,-0x428(%rbp)
    8a41:	48 8d 05 54 7b 00 00 	lea    0x7b54(%rip),%rax        # 1059c <g_76+0x33c>
    8a48:	48 89 85 e0 fb ff ff 	mov    %rax,-0x420(%rbp)
    8a4f:	48 8d 05 ce 79 00 00 	lea    0x79ce(%rip),%rax        # 10424 <g_76+0x1c4>
    8a56:	48 89 85 e8 fb ff ff 	mov    %rax,-0x418(%rbp)
    8a5d:	48 8d 05 cc 77 00 00 	lea    0x77cc(%rip),%rax        # 10230 <g_63>
    8a64:	48 89 85 30 fc ff ff 	mov    %rax,-0x3d0(%rbp)
    8a6b:	48 8d 05 be 77 00 00 	lea    0x77be(%rip),%rax        # 10230 <g_63>
    8a72:	48 89 85 38 fc ff ff 	mov    %rax,-0x3c8(%rbp)
    8a79:	48 8d 05 b0 77 00 00 	lea    0x77b0(%rip),%rax        # 10230 <g_63>
    8a80:	48 89 85 40 fc ff ff 	mov    %rax,-0x3c0(%rbp)
    8a87:	48 8d 05 a2 77 00 00 	lea    0x77a2(%rip),%rax        # 10230 <g_63>
    8a8e:	48 89 85 48 fc ff ff 	mov    %rax,-0x3b8(%rbp)
    8a95:	48 8d 05 94 77 00 00 	lea    0x7794(%rip),%rax        # 10230 <g_63>
    8a9c:	48 89 85 50 fc ff ff 	mov    %rax,-0x3b0(%rbp)
    8aa3:	c6 85 b3 fb ff ff 27 	movb   $0x27,-0x44d(%rbp)
    8aaa:	48 8d 05 9f a0 00 00 	lea    0xa09f(%rip),%rax        # 12b50 <g_82>
    8ab1:	48 89 85 f0 fb ff ff 	mov    %rax,-0x410(%rbp)
    8ab8:	48 8d 05 e1 95 00 00 	lea    0x95e1(%rip),%rax        # 120a0 <g_31>
    8abf:	48 89 85 f8 fb ff ff 	mov    %rax,-0x408(%rbp)
    8ac6:	48 8d 05 73 77 00 00 	lea    0x7773(%rip),%rax        # 10240 <g_70+0x8>
    8acd:	48 89 85 00 fc ff ff 	mov    %rax,-0x400(%rbp)
    8ad4:	48 8d 85 00 fd ff ff 	lea    -0x300(%rbp),%rax
    8adb:	48 8d 15 5e 3a 00 00 	lea    0x3a5e(%rip),%rdx        # c540 <_IO_stdin_used+0x540>
    8ae2:	b9 5a 00 00 00       	mov    $0x5a,%ecx
    8ae7:	48 89 c7             	mov    %rax,%rdi
    8aea:	48 89 d6             	mov    %rdx,%rsi
    8aed:	f3 48 a5             	rep movsq %ds:(%rsi),%es:(%rdi)
    8af0:	66 c7 85 b4 fb ff ff 	movw   $0xffff,-0x44c(%rbp)
    8af7:	ff ff 
    8af9:	48 8d 05 b0 95 00 00 	lea    0x95b0(%rip),%rax        # 120b0 <g_111>
    8b00:	48 89 85 08 fc ff ff 	mov    %rax,-0x3f8(%rbp)
    8b07:	48 8d 05 9a 95 00 00 	lea    0x959a(%rip),%rax        # 120a8 <g_112>
    8b0e:	48 89 85 10 fc ff ff 	mov    %rax,-0x3f0(%rbp)
    8b15:	66 c7 85 b6 fb ff ff 	movw   $0x4343,-0x44a(%rbp)
    8b1c:	43 43 
    8b1e:	0f b6 85 b3 fb ff ff 	movzbl -0x44d(%rbp),%eax
    8b25:	83 e8 01             	sub    $0x1,%eax
    8b28:	88 85 b3 fb ff ff    	mov    %al,-0x44d(%rbp)
    8b2e:	0f b6 05 1f a0 00 00 	movzbl 0xa01f(%rip),%eax        # 12b54 <g_147>
    8b35:	44 0f b6 f0          	movzbl %al,%r14d
    8b39:	44 0f bf a5 b4 fb ff 	movswl -0x44c(%rbp),%r12d
    8b40:	ff 
    8b41:	0f b6 05 e0 76 00 00 	movzbl 0x76e0(%rip),%eax        # 10228 <g_46+0x8>
    8b48:	0f b6 d8             	movzbl %al,%ebx
    8b4b:	8b 05 8b 7a 00 00    	mov    0x7a8b(%rip),%eax        # 105dc <g_130+0x1c>
    8b51:	48 8b 85 c8 fb ff ff 	mov    -0x438(%rbp),%rax
    8b58:	8b 00                	mov    (%rax),%eax
    8b5a:	0f be d0             	movsbl %al,%edx
    8b5d:	48 83 bd f8 fb ff ff 	cmpq   $0x0,-0x408(%rbp)
    8b64:	00 
    8b65:	0f 94 c0             	sete   %al
    8b68:	0f b6 c0             	movzbl %al,%eax
    8b6b:	89 d6                	mov    %edx,%esi
    8b6d:	89 c7                	mov    %eax,%edi
    8b6f:	e8 f6 b6 ff ff       	callq  426a <safe_div_func_int8_t_s_s>
    8b74:	48 0f be c0          	movsbq %al,%rax
    8b78:	48 89 05 a1 76 00 00 	mov    %rax,0x76a1(%rip)        # 10220 <g_46>
    8b7f:	8b 15 ab 76 00 00    	mov    0x76ab(%rip),%edx        # 10230 <g_63>
    8b85:	48 8b 85 00 fc ff ff 	mov    -0x400(%rbp),%rax
    8b8c:	0f b6 00             	movzbl (%rax),%eax
    8b8f:	09 c2                	or     %eax,%edx
    8b91:	48 8b 85 00 fc ff ff 	mov    -0x400(%rbp),%rax
    8b98:	88 10                	mov    %dl,(%rax)
    8b9a:	48 8b 85 00 fc ff ff 	mov    -0x400(%rbp),%rax
    8ba1:	0f b6 00             	movzbl (%rax),%eax
    8ba4:	84 c0                	test   %al,%al
    8ba6:	75 0b                	jne    8bb3 <func_119+0x1e0>
    8ba8:	48 8b 85 e0 fb ff ff 	mov    -0x420(%rbp),%rax
    8baf:	8b 00                	mov    (%rax),%eax
    8bb1:	85 c0                	test   %eax,%eax
    8bb3:	48 8b 85 c0 fb ff ff 	mov    -0x440(%rbp),%rax
    8bba:	8b 00                	mov    (%rax),%eax
    8bbc:	48 98                	cltq   
    8bbe:	48 89 c7             	mov    %rax,%rdi
    8bc1:	e8 d5 fa ff ff       	callq  869b <func_16>
    8bc6:	48 8b 85 f0 fb ff ff 	mov    -0x410(%rbp),%rax
    8bcd:	c7 00 65 81 13 dc    	movl   $0xdc138165,(%rax)
    8bd3:	48 8b 85 f0 fb ff ff 	mov    -0x410(%rbp),%rax
    8bda:	8b 30                	mov    (%rax),%esi
    8bdc:	48 8b 85 c8 fb ff ff 	mov    -0x438(%rbp),%rax
    8be3:	8b 00                	mov    (%rax),%eax
    8be5:	89 c7                	mov    %eax,%edi
    8be7:	48 8b 85 aa fd ff ff 	mov    -0x256(%rbp),%rax
    8bee:	0f b7 8d b2 fd ff ff 	movzwl -0x24e(%rbp),%ecx
    8bf5:	48 89 ca             	mov    %rcx,%rdx
    8bf8:	48 89 d1             	mov    %rdx,%rcx
    8bfb:	48 89 c2             	mov    %rax,%rdx
    8bfe:	e8 94 f9 ff ff       	callq  8597 <func_12>
    8c03:	84 c0                	test   %al,%al
    8c05:	75 0d                	jne    8c14 <func_119+0x241>
    8c07:	48 8b 85 d8 fb ff ff 	mov    -0x428(%rbp),%rax
    8c0e:	8b 00                	mov    (%rax),%eax
    8c10:	85 c0                	test   %eax,%eax
    8c12:	74 07                	je     8c1b <func_119+0x248>
    8c14:	b8 01 00 00 00       	mov    $0x1,%eax
    8c19:	eb 05                	jmp    8c20 <func_119+0x24d>
    8c1b:	b8 00 00 00 00       	mov    $0x0,%eax
    8c20:	98                   	cwtl   
    8c21:	4c 8b 2d 38 95 00 00 	mov    0x9538(%rip),%r13        # 12160 <g_375>
    8c28:	48 8d b5 b8 fb ff ff 	lea    -0x448(%rbp),%rsi
    8c2f:	45 89 f0             	mov    %r14d,%r8d
    8c32:	44 89 e1             	mov    %r12d,%ecx
    8c35:	89 da                	mov    %ebx,%edx
    8c37:	89 c7                	mov    %eax,%edi
    8c39:	e8 79 03 00 00       	callq  8fb7 <func_134>
    8c3e:	49 89 45 00          	mov    %rax,0x0(%r13)
    8c42:	66 c7 85 b4 fb ff ff 	movw   $0x0,-0x44c(%rbp)
    8c49:	00 00 
    8c4b:	e9 24 03 00 00       	jmpq   8f74 <func_119+0x5a1>
    8c50:	48 8d 05 51 94 00 00 	lea    0x9451(%rip),%rax        # 120a8 <g_112>
    8c57:	48 89 85 18 fc ff ff 	mov    %rax,-0x3e8(%rbp)
    8c5e:	48 8d 85 b3 fb ff ff 	lea    -0x44d(%rbp),%rax
    8c65:	48 89 85 20 fc ff ff 	mov    %rax,-0x3e0(%rbp)
    8c6c:	c7 85 bc fb ff ff 01 	movl   $0x1,-0x444(%rbp)
    8c73:	00 00 00 
    8c76:	48 8d 05 23 94 00 00 	lea    0x9423(%rip),%rax        # 120a0 <g_31>
    8c7d:	48 89 85 28 fc ff ff 	mov    %rax,-0x3d8(%rbp)
    8c84:	48 8d 85 b8 fb ff ff 	lea    -0x448(%rbp),%rax
    8c8b:	48 89 85 60 fc ff ff 	mov    %rax,-0x3a0(%rbp)
    8c92:	48 8d 85 b8 fb ff ff 	lea    -0x448(%rbp),%rax
    8c99:	48 89 85 68 fc ff ff 	mov    %rax,-0x398(%rbp)
    8ca0:	48 8d 85 b8 fb ff ff 	lea    -0x448(%rbp),%rax
    8ca7:	48 89 85 70 fc ff ff 	mov    %rax,-0x390(%rbp)
    8cae:	48 8d 85 b8 fb ff ff 	lea    -0x448(%rbp),%rax
    8cb5:	48 89 85 78 fc ff ff 	mov    %rax,-0x388(%rbp)
    8cbc:	48 c7 85 80 fc ff ff 	movq   $0x0,-0x380(%rbp)
    8cc3:	00 00 00 00 
    8cc7:	48 8d 05 76 77 00 00 	lea    0x7776(%rip),%rax        # 10444 <g_76+0x1e4>
    8cce:	48 89 85 88 fc ff ff 	mov    %rax,-0x378(%rbp)
    8cd5:	48 c7 85 90 fc ff ff 	movq   $0x0,-0x370(%rbp)
    8cdc:	00 00 00 00 
    8ce0:	48 8d 85 b8 fb ff ff 	lea    -0x448(%rbp),%rax
    8ce7:	48 89 85 98 fc ff ff 	mov    %rax,-0x368(%rbp)
    8cee:	48 8d 85 b8 fb ff ff 	lea    -0x448(%rbp),%rax
    8cf5:	48 89 85 a0 fc ff ff 	mov    %rax,-0x360(%rbp)
    8cfc:	48 8d 85 b8 fb ff ff 	lea    -0x448(%rbp),%rax
    8d03:	48 89 85 a8 fc ff ff 	mov    %rax,-0x358(%rbp)
    8d0a:	48 8d 85 b8 fb ff ff 	lea    -0x448(%rbp),%rax
    8d11:	48 89 85 b0 fc ff ff 	mov    %rax,-0x350(%rbp)
    8d18:	48 c7 85 b8 fc ff ff 	movq   $0x0,-0x348(%rbp)
    8d1f:	00 00 00 00 
    8d23:	48 8d 05 1a 77 00 00 	lea    0x771a(%rip),%rax        # 10444 <g_76+0x1e4>
    8d2a:	48 89 85 c0 fc ff ff 	mov    %rax,-0x340(%rbp)
    8d31:	48 c7 85 c8 fc ff ff 	movq   $0x0,-0x338(%rbp)
    8d38:	00 00 00 00 
    8d3c:	48 8d 85 b8 fb ff ff 	lea    -0x448(%rbp),%rax
    8d43:	48 89 85 d0 fc ff ff 	mov    %rax,-0x330(%rbp)
    8d4a:	48 8d 85 b8 fb ff ff 	lea    -0x448(%rbp),%rax
    8d51:	48 89 85 d8 fc ff ff 	mov    %rax,-0x328(%rbp)
    8d58:	48 8d 85 b8 fb ff ff 	lea    -0x448(%rbp),%rax
    8d5f:	48 89 85 e0 fc ff ff 	mov    %rax,-0x320(%rbp)
    8d66:	48 8d 85 b8 fb ff ff 	lea    -0x448(%rbp),%rax
    8d6d:	48 89 85 e8 fc ff ff 	mov    %rax,-0x318(%rbp)
    8d74:	48 c7 85 f0 fc ff ff 	movq   $0x0,-0x310(%rbp)
    8d7b:	00 00 00 00 
    8d7f:	48 8d 05 be 76 00 00 	lea    0x76be(%rip),%rax        # 10444 <g_76+0x1e4>
    8d86:	48 89 85 f8 fc ff ff 	mov    %rax,-0x308(%rbp)
    8d8d:	0f b6 05 a7 79 00 00 	movzbl 0x79a7(%rip),%eax        # 1073b <g_192+0xb>
    8d94:	c1 e0 04             	shl    $0x4,%eax
    8d97:	c0 f8 04             	sar    $0x4,%al
    8d9a:	48 0f be d8          	movsbq %al,%rbx
    8d9e:	48 8b 05 93 7a 00 00 	mov    0x7a93(%rip),%rax        # 10838 <g_216+0xd8>
    8da5:	48 c1 e8 20          	shr    $0x20,%rax
    8da9:	25 ff ff 1f 00       	and    $0x1fffff,%eax
    8dae:	85 c0                	test   %eax,%eax
    8db0:	0f 84 19 01 00 00    	je     8ecf <func_119+0x4fc>
    8db6:	8b 05 78 79 00 00    	mov    0x7978(%rip),%eax        # 10734 <g_192+0x4>
    8dbc:	25 ff ff ff 07       	and    $0x7ffffff,%eax
    8dc1:	44 0f b6 e0          	movzbl %al,%r12d
    8dc5:	0f b7 05 06 74 00 00 	movzwl 0x7406(%rip),%eax        # 101d2 <g_32+0x192>
    8dcc:	44 0f b6 e8          	movzbl %al,%r13d
    8dd0:	0f b7 05 a1 7a 00 00 	movzwl 0x7aa1(%rip),%eax        # 10878 <g_254>
    8dd7:	44 0f b7 f0          	movzwl %ax,%r14d
    8ddb:	48 8b 85 c0 fb ff ff 	mov    -0x440(%rbp),%rax
    8de2:	8b 10                	mov    (%rax),%edx
    8de4:	0f b6 05 69 9d 00 00 	movzbl 0x9d69(%rip),%eax        # 12b54 <g_147>
    8deb:	0f be c0             	movsbl %al,%eax
    8dee:	89 d6                	mov    %edx,%esi
    8df0:	89 c7                	mov    %eax,%edi
    8df2:	e8 3e b5 ff ff       	callq  4335 <safe_rshift_func_int8_t_s_s>
    8df7:	48 8d 05 aa 92 00 00 	lea    0x92aa(%rip),%rax        # 120a8 <g_112>
    8dfe:	48 39 85 18 fc ff ff 	cmp    %rax,-0x3e8(%rbp)
    8e05:	0f 94 c0             	sete   %al
    8e08:	89 c2                	mov    %eax,%edx
    8e0a:	48 8b 85 20 fc ff ff 	mov    -0x3e0(%rbp),%rax
    8e11:	88 10                	mov    %dl,(%rax)
    8e13:	48 8b 85 20 fc ff ff 	mov    -0x3e0(%rbp),%rax
    8e1a:	0f b6 00             	movzbl (%rax),%eax
    8e1d:	84 c0                	test   %al,%al
    8e1f:	74 16                	je     8e37 <func_119+0x464>
    8e21:	8b 05 0d 79 00 00    	mov    0x790d(%rip),%eax        # 10734 <g_192+0x4>
    8e27:	25 ff ff ff 07       	and    $0x7ffffff,%eax
    8e2c:	85 c0                	test   %eax,%eax
    8e2e:	74 07                	je     8e37 <func_119+0x464>
    8e30:	b8 01 00 00 00       	mov    $0x1,%eax
    8e35:	eb 05                	jmp    8e3c <func_119+0x469>
    8e37:	b8 00 00 00 00       	mov    $0x0,%eax
    8e3c:	be 8b e7 dd 83       	mov    $0x83dde78b,%esi
    8e41:	89 c7                	mov    %eax,%edi
    8e43:	e8 b7 b8 ff ff       	callq  46ff <safe_div_func_int32_t_s_s>
    8e48:	41 39 c6             	cmp    %eax,%r14d
    8e4b:	0f 95 c0             	setne  %al
    8e4e:	0f b6 c0             	movzbl %al,%eax
    8e51:	39 85 bc fb ff ff    	cmp    %eax,-0x444(%rbp)
    8e57:	0f 9c c0             	setl   %al
    8e5a:	0f b6 c0             	movzbl %al,%eax
    8e5d:	89 c7                	mov    %eax,%edi
    8e5f:	e8 39 b5 ff ff       	callq  439d <safe_unary_minus_func_int16_t_s>
    8e64:	98                   	cwtl   
    8e65:	39 85 bc fb ff ff    	cmp    %eax,-0x444(%rbp)
    8e6b:	0f 95 c0             	setne  %al
    8e6e:	0f b6 c0             	movzbl %al,%eax
    8e71:	8b 95 bc fb ff ff    	mov    -0x444(%rbp),%edx
    8e77:	89 d6                	mov    %edx,%esi
    8e79:	89 c7                	mov    %eax,%edi
    8e7b:	e8 4c b8 ff ff       	callq  46cc <safe_mod_func_int32_t_s_s>
    8e80:	85 c0                	test   %eax,%eax
    8e82:	0f 95 c0             	setne  %al
    8e85:	0f b6 c0             	movzbl %al,%eax
    8e88:	44 89 ee             	mov    %r13d,%esi
    8e8b:	89 c7                	mov    %eax,%edi
    8e8d:	e8 49 bd ff ff       	callq  4bdb <safe_div_func_uint8_t_u_u>
    8e92:	0f b7 05 b1 78 00 00 	movzwl 0x78b1(%rip),%eax        # 1074a <g_192+0x1a>
    8e99:	66 c1 e8 07          	shr    $0x7,%ax
    8e9d:	83 e0 03             	and    $0x3,%eax
    8ea0:	0f b6 c0             	movzbl %al,%eax
    8ea3:	44 89 e6             	mov    %r12d,%esi
    8ea6:	89 c7                	mov    %eax,%edi
    8ea8:	e8 cb bc ff ff       	callq  4b78 <safe_sub_func_uint8_t_u_u>
    8ead:	0f b6 d0             	movzbl %al,%edx
    8eb0:	48 8b 85 e0 fb ff ff 	mov    -0x420(%rbp),%rax
    8eb7:	8b 00                	mov    (%rax),%eax
    8eb9:	09 c2                	or     %eax,%edx
    8ebb:	48 8b 85 e0 fb ff ff 	mov    -0x420(%rbp),%rax
    8ec2:	8b 00                	mov    (%rax),%eax
    8ec4:	39 c2                	cmp    %eax,%edx
    8ec6:	7f 07                	jg     8ecf <func_119+0x4fc>
    8ec8:	b8 01 00 00 00       	mov    $0x1,%eax
    8ecd:	eb 05                	jmp    8ed4 <func_119+0x501>
    8ecf:	b8 00 00 00 00       	mov    $0x0,%eax
    8ed4:	be 8f f8 64 50       	mov    $0x5064f88f,%esi
    8ed9:	89 c7                	mov    %eax,%edi
    8edb:	e8 25 b7 ff ff       	callq  4605 <safe_sub_func_int32_t_s_s>
    8ee0:	0f be c0             	movsbl %al,%eax
    8ee3:	be 07 00 00 00       	mov    $0x7,%esi
    8ee8:	89 c7                	mov    %eax,%edi
    8eea:	e8 ff b3 ff ff       	callq  42ee <safe_lshift_func_int8_t_s_u>
    8eef:	be 02 00 00 00       	mov    $0x2,%esi
    8ef4:	bf c4 ff ff ff       	mov    $0xffffffc4,%edi
    8ef9:	e8 6e b4 ff ff       	callq  436c <safe_rshift_func_int8_t_s_u>
    8efe:	44 0f b6 e0          	movzbl %al,%r12d
    8f02:	48 8b 85 a8 fb ff ff 	mov    -0x458(%rbp),%rax
    8f09:	8b 00                	mov    (%rax),%eax
    8f0b:	89 c1                	mov    %eax,%ecx
    8f0d:	8b 05 0d 78 00 00    	mov    0x780d(%rip),%eax        # 10720 <g_188+0xc0>
    8f13:	8b 15 17 73 00 00    	mov    0x7317(%rip),%edx        # 10230 <g_63>
    8f19:	39 d0                	cmp    %edx,%eax
    8f1b:	0f 95 c0             	setne  %al
    8f1e:	0f b6 c0             	movzbl %al,%eax
    8f21:	89 ce                	mov    %ecx,%esi
    8f23:	89 c7                	mov    %eax,%edi
    8f25:	e8 fb bf ff ff       	callq  4f25 <safe_div_func_uint32_t_u_u>
    8f2a:	0f b6 c0             	movzbl %al,%eax
    8f2d:	44 89 e6             	mov    %r12d,%esi
    8f30:	89 c7                	mov    %eax,%edi
    8f32:	e8 23 bc ff ff       	callq  4b5a <safe_add_func_uint8_t_u_u>
    8f37:	0f b6 c0             	movzbl %al,%eax
    8f3a:	48 8b b5 10 fc ff ff 	mov    -0x3f0(%rbp),%rsi
    8f41:	48 8b 8d 08 fc ff ff 	mov    -0x3f8(%rbp),%rcx
    8f48:	48 8b 95 28 fc ff ff 	mov    -0x3d8(%rbp),%rdx
    8f4f:	49 89 f0             	mov    %rsi,%r8
    8f52:	48 89 de             	mov    %rbx,%rsi
    8f55:	89 c7                	mov    %eax,%edi
    8f57:	e8 bb 0d 00 00       	callq  9d17 <func_166>
    8f5c:	48 89 85 80 fc ff ff 	mov    %rax,-0x380(%rbp)
    8f63:	0f b7 85 b4 fb ff ff 	movzwl -0x44c(%rbp),%eax
    8f6a:	83 c0 01             	add    $0x1,%eax
    8f6d:	66 89 85 b4 fb ff ff 	mov    %ax,-0x44c(%rbp)
    8f74:	66 83 bd b4 fb ff ff 	cmpw   $0xb,-0x44c(%rbp)
    8f7b:	0b 
    8f7c:	0f 8e ce fc ff ff    	jle    8c50 <func_119+0x27d>
    8f82:	66 83 85 b6 fb ff ff 	addw   $0x1,-0x44a(%rbp)
    8f89:	01 
    8f8a:	48 8b 85 e0 fb ff ff 	mov    -0x420(%rbp),%rax
    8f91:	8b 00                	mov    (%rax),%eax
    8f93:	48 8b 5d d8          	mov    -0x28(%rbp),%rbx
    8f97:	64 48 33 1c 25 28 00 	xor    %fs:0x28,%rbx
    8f9e:	00 00 
    8fa0:	74 05                	je     8fa7 <func_119+0x5d4>
    8fa2:	e8 c9 b0 ff ff       	callq  4070 <__stack_chk_fail@plt>
    8fa7:	48 81 c4 40 04 00 00 	add    $0x440,%rsp
    8fae:	5b                   	pop    %rbx
    8faf:	41 5c                	pop    %r12
    8fb1:	41 5d                	pop    %r13
    8fb3:	41 5e                	pop    %r14
    8fb5:	5d                   	pop    %rbp
    8fb6:	c3                   	retq   

0000000000008fb7 <func_134>:
    8fb7:	f3 0f 1e fa          	endbr64 
    8fbb:	55                   	push   %rbp
    8fbc:	48 89 e5             	mov    %rsp,%rbp
    8fbf:	41 57                	push   %r15
    8fc1:	41 56                	push   %r14
    8fc3:	41 55                	push   %r13
    8fc5:	41 54                	push   %r12
    8fc7:	53                   	push   %rbx
    8fc8:	48 81 ec 98 05 00 00 	sub    $0x598,%rsp
    8fcf:	89 f8                	mov    %edi,%eax
    8fd1:	48 89 b5 50 fa ff ff 	mov    %rsi,-0x5b0(%rbp)
    8fd8:	89 d6                	mov    %edx,%esi
    8fda:	89 8d 4c fa ff ff    	mov    %ecx,-0x5b4(%rbp)
    8fe0:	44 89 c2             	mov    %r8d,%edx
    8fe3:	66 89 85 5c fa ff ff 	mov    %ax,-0x5a4(%rbp)
    8fea:	89 f0                	mov    %esi,%eax
    8fec:	88 85 58 fa ff ff    	mov    %al,-0x5a8(%rbp)
    8ff2:	89 d0                	mov    %edx,%eax
    8ff4:	66 89 85 48 fa ff ff 	mov    %ax,-0x5b8(%rbp)
    8ffb:	64 48 8b 04 25 28 00 	mov    %fs:0x28,%rax
    9002:	00 00 
    9004:	48 89 45 c8          	mov    %rax,-0x38(%rbp)
    9008:	31 c0                	xor    %eax,%eax
    900a:	66 c7 85 62 fa ff ff 	movw   $0xfff8,-0x59e(%rbp)
    9011:	f8 ff 
    9013:	48 8d 05 2e 9b 00 00 	lea    0x9b2e(%rip),%rax        # 12b48 <g_30>
    901a:	48 89 85 98 fa ff ff 	mov    %rax,-0x568(%rbp)
    9021:	48 c7 85 90 fa ff ff 	movq   $0x0,-0x570(%rbp)
    9028:	00 00 00 00 
    902c:	66 c7 85 64 fa ff ff 	movw   $0x2,-0x59c(%rbp)
    9033:	02 00 
    9035:	48 8d 85 30 fe ff ff 	lea    -0x1d0(%rbp),%rax
    903c:	48 8d 15 dd 37 00 00 	lea    0x37dd(%rip),%rdx        # c820 <_IO_stdin_used+0x820>
    9043:	b9 32 00 00 00       	mov    $0x32,%ecx
    9048:	48 89 c7             	mov    %rax,%rdi
    904b:	48 89 d6             	mov    %rdx,%rsi
    904e:	f3 48 a5             	rep movsq %ds:(%rsi),%es:(%rdi)
    9051:	c7 85 6c fa ff ff 06 	movl   $0x6,-0x594(%rbp)
    9058:	00 00 00 
    905b:	48 8d 05 be 71 00 00 	lea    0x71be(%rip),%rax        # 10220 <g_46>
    9062:	48 89 85 a0 fa ff ff 	mov    %rax,-0x560(%rbp)
    9069:	48 8d 05 d8 90 00 00 	lea    0x90d8(%rip),%rax        # 12148 <g_197>
    9070:	48 89 85 a8 fa ff ff 	mov    %rax,-0x558(%rbp)
    9077:	48 8d 05 c2 71 00 00 	lea    0x71c2(%rip),%rax        # 10240 <g_70+0x8>
    907e:	48 89 85 80 fa ff ff 	mov    %rax,-0x580(%rbp)
    9085:	c7 05 c1 9a 00 00 00 	movl   $0x0,0x9ac1(%rip)        # 12b50 <g_82>
    908c:	00 00 00 
    908f:	e9 7b 0b 00 00       	jmpq   9c0f <func_134+0xc58>
    9094:	48 8d 05 15 90 00 00 	lea    0x9015(%rip),%rax        # 120b0 <g_111>
    909b:	48 89 85 b0 fa ff ff 	mov    %rax,-0x550(%rbp)
    90a2:	48 8d 05 ff 8f 00 00 	lea    0x8fff(%rip),%rax        # 120a8 <g_112>
    90a9:	48 89 85 b8 fa ff ff 	mov    %rax,-0x548(%rbp)
    90b0:	48 b8 3f 8e b2 62 33 	movabs $0xee41843362b28e3f,%rax
    90b7:	84 41 ee 
    90ba:	48 89 85 88 fa ff ff 	mov    %rax,-0x578(%rbp)
    90c1:	48 8d 85 88 fa ff ff 	lea    -0x578(%rbp),%rax
    90c8:	48 89 85 c0 fa ff ff 	mov    %rax,-0x540(%rbp)
    90cf:	c7 85 50 fb ff ff ff 	movl   $0xffffffff,-0x4b0(%rbp)
    90d6:	ff ff ff 
    90d9:	c7 85 54 fb ff ff 80 	movl   $0xd223a280,-0x4ac(%rbp)
    90e0:	a2 23 d2 
    90e3:	c7 85 58 fb ff ff 80 	movl   $0xd223a280,-0x4a8(%rbp)
    90ea:	a2 23 d2 
    90ed:	c7 85 5c fb ff ff ff 	movl   $0xffffffff,-0x4a4(%rbp)
    90f4:	ff ff ff 
    90f7:	c7 85 60 fb ff ff 80 	movl   $0xd223a280,-0x4a0(%rbp)
    90fe:	a2 23 d2 
    9101:	c7 85 64 fb ff ff 80 	movl   $0xd223a280,-0x49c(%rbp)
    9108:	a2 23 d2 
    910b:	c7 85 68 fb ff ff ff 	movl   $0xffffffff,-0x498(%rbp)
    9112:	ff ff ff 
    9115:	c7 85 6c fb ff ff 80 	movl   $0xd223a280,-0x494(%rbp)
    911c:	a2 23 d2 
    911f:	c7 85 70 fb ff ff 80 	movl   $0xd223a280,-0x490(%rbp)
    9126:	a2 23 d2 
    9129:	c7 85 70 fa ff ff 02 	movl   $0x2,-0x590(%rbp)
    9130:	00 00 00 
    9133:	c7 85 74 fa ff ff 00 	movl   $0x0,-0x58c(%rbp)
    913a:	00 00 00 
    913d:	48 8d 05 fc 70 00 00 	lea    0x70fc(%rip),%rax        # 10240 <g_70+0x8>
    9144:	48 89 85 c8 fa ff ff 	mov    %rax,-0x538(%rbp)
    914b:	48 c7 85 d0 fa ff ff 	movq   $0x0,-0x530(%rbp)
    9152:	00 00 00 00 
    9156:	48 c7 85 d8 fa ff ff 	movq   $0x0,-0x528(%rbp)
    915d:	00 00 00 00 
    9161:	48 8d 85 30 fe ff ff 	lea    -0x1d0(%rbp),%rax
    9168:	48 05 ec 00 00 00    	add    $0xec,%rax
    916e:	48 89 85 e0 fa ff ff 	mov    %rax,-0x520(%rbp)
    9175:	48 8d 05 b0 70 00 00 	lea    0x70b0(%rip),%rax        # 1022c <g_48>
    917c:	48 89 85 e0 fb ff ff 	mov    %rax,-0x420(%rbp)
    9183:	48 8d 05 a2 70 00 00 	lea    0x70a2(%rip),%rax        # 1022c <g_48>
    918a:	48 89 85 e8 fb ff ff 	mov    %rax,-0x418(%rbp)
    9191:	48 8d 05 94 70 00 00 	lea    0x7094(%rip),%rax        # 1022c <g_48>
    9198:	48 89 85 f0 fb ff ff 	mov    %rax,-0x410(%rbp)
    919f:	48 8d 05 86 70 00 00 	lea    0x7086(%rip),%rax        # 1022c <g_48>
    91a6:	48 89 85 f8 fb ff ff 	mov    %rax,-0x408(%rbp)
    91ad:	48 8d 05 78 70 00 00 	lea    0x7078(%rip),%rax        # 1022c <g_48>
    91b4:	48 89 85 00 fc ff ff 	mov    %rax,-0x400(%rbp)
    91bb:	48 8d 05 6a 70 00 00 	lea    0x706a(%rip),%rax        # 1022c <g_48>
    91c2:	48 89 85 08 fc ff ff 	mov    %rax,-0x3f8(%rbp)
    91c9:	48 c7 85 10 fc ff ff 	movq   $0xffffffffffffffff,-0x3f0(%rbp)
    91d0:	ff ff ff ff 
    91d4:	48 c7 85 18 fc ff ff 	movq   $0x1,-0x3e8(%rbp)
    91db:	01 00 00 00 
    91df:	48 c7 85 20 fc ff ff 	movq   $0xffffffffffffffff,-0x3e0(%rbp)
    91e6:	ff ff ff ff 
    91ea:	48 c7 85 28 fc ff ff 	movq   $0xffffffffffffffff,-0x3d8(%rbp)
    91f1:	ff ff ff ff 
    91f5:	48 c7 85 30 fc ff ff 	movq   $0x1,-0x3d0(%rbp)
    91fc:	01 00 00 00 
    9200:	48 c7 85 38 fc ff ff 	movq   $0xffffffffffffffff,-0x3c8(%rbp)
    9207:	ff ff ff ff 
    920b:	66 c7 85 66 fa ff ff 	movw   $0xf3fb,-0x59a(%rbp)
    9212:	fb f3 
    9214:	48 8b 85 50 fa ff ff 	mov    -0x5b0(%rbp),%rax
    921b:	48 89 05 4e 99 00 00 	mov    %rax,0x994e(%rip)        # 12b70 <g_148+0x10>
    9222:	8b 9d 4c fa ff ff    	mov    -0x5b4(%rbp),%ebx
    9228:	44 0f b7 b5 62 fa ff 	movzwl -0x59e(%rbp),%r14d
    922f:	ff 
    9230:	8b 05 1a 99 00 00    	mov    0x991a(%rip),%eax        # 12b50 <g_82>
    9236:	0f b6 c0             	movzbl %al,%eax
    9239:	be bb 00 00 00       	mov    $0xbb,%esi
    923e:	89 c7                	mov    %eax,%edi
    9240:	e8 33 b9 ff ff       	callq  4b78 <safe_sub_func_uint8_t_u_u>
    9245:	44 0f b6 f8          	movzbl %al,%r15d
    9249:	48 8b 05 e8 6f 00 00 	mov    0x6fe8(%rip),%rax        # 10238 <g_70>
    9250:	44 0f be e0          	movsbl %al,%r12d
    9254:	48 8b 85 88 fa ff ff 	mov    -0x578(%rbp),%rax
    925b:	44 0f bf e8          	movswl %ax,%r13d
    925f:	48 0f bf b5 5c fa ff 	movswq -0x5a4(%rbp),%rsi
    9266:	ff 
    9267:	0f b6 85 58 fa ff ff 	movzbl -0x5a8(%rbp),%eax
    926e:	48 8b 8d b8 fa ff ff 	mov    -0x548(%rbp),%rcx
    9275:	48 8b 95 b0 fa ff ff 	mov    -0x550(%rbp),%rdx
    927c:	49 89 c8             	mov    %rcx,%r8
    927f:	48 89 d1             	mov    %rdx,%rcx
    9282:	48 8d 15 bf 98 00 00 	lea    0x98bf(%rip),%rdx        # 12b48 <g_30>
    9289:	89 c7                	mov    %eax,%edi
    928b:	e8 87 0a 00 00       	callq  9d17 <func_166>
    9290:	48 89 c2             	mov    %rax,%rdx
    9293:	48 83 bd 98 fa ff ff 	cmpq   $0x0,-0x568(%rbp)
    929a:	00 
    929b:	0f 94 c0             	sete   %al
    929e:	0f b6 c0             	movzbl %al,%eax
    92a1:	48 89 d6             	mov    %rdx,%rsi
    92a4:	89 c7                	mov    %eax,%edi
    92a6:	e8 e7 09 00 00       	callq  9c92 <func_162>
    92ab:	89 c2                	mov    %eax,%edx
    92ad:	48 8b 05 ec 8d 00 00 	mov    0x8dec(%rip),%rax        # 120a0 <g_31>
    92b4:	0f b7 00             	movzwl (%rax),%eax
    92b7:	31 d0                	xor    %edx,%eax
    92b9:	98                   	cwtl   
    92ba:	44 89 ee             	mov    %r13d,%esi
    92bd:	89 c7                	mov    %eax,%edi
    92bf:	e8 91 b1 ff ff       	callq  4455 <safe_div_func_int16_t_s_s>
    92c4:	0f be c0             	movsbl %al,%eax
    92c7:	44 89 e6             	mov    %r12d,%esi
    92ca:	89 c7                	mov    %eax,%edi
    92cc:	e8 03 af ff ff       	callq  41d4 <safe_add_func_int8_t_s_s>
    92d1:	48 0f be d0          	movsbq %al,%rdx
    92d5:	48 8b 85 c0 fa ff ff 	mov    -0x540(%rbp),%rax
    92dc:	48 89 10             	mov    %rdx,(%rax)
    92df:	48 8b 85 c0 fa ff ff 	mov    -0x540(%rbp),%rax
    92e6:	48 8b 00             	mov    (%rax),%rax
    92e9:	48 89 c7             	mov    %rax,%rdi
    92ec:	e8 aa f3 ff ff       	callq  869b <func_16>
    92f1:	85 c0                	test   %eax,%eax
    92f3:	74 15                	je     930a <func_134+0x353>
    92f5:	0f b6 05 4e 74 00 00 	movzbl 0x744e(%rip),%eax        # 1074a <g_192+0x1a>
    92fc:	83 e0 60             	and    $0x60,%eax
    92ff:	84 c0                	test   %al,%al
    9301:	74 07                	je     930a <func_134+0x353>
    9303:	b8 01 00 00 00       	mov    $0x1,%eax
    9308:	eb 05                	jmp    930f <func_134+0x358>
    930a:	b8 00 00 00 00       	mov    $0x0,%eax
    930f:	89 c1                	mov    %eax,%ecx
    9311:	48 8b 85 50 fa ff ff 	mov    -0x5b0(%rbp),%rax
    9318:	8b 00                	mov    (%rax),%eax
    931a:	89 c2                	mov    %eax,%edx
    931c:	48 8b 05 7d 8d 00 00 	mov    0x8d7d(%rip),%rax        # 120a0 <g_31>
    9323:	21 ca                	and    %ecx,%edx
    9325:	66 89 10             	mov    %dx,(%rax)
    9328:	0f b7 00             	movzwl (%rax),%eax
    932b:	98                   	cwtl   
    932c:	41 39 c7             	cmp    %eax,%r15d
    932f:	0f 95 c0             	setne  %al
    9332:	0f b6 c0             	movzbl %al,%eax
    9335:	be 08 00 00 00       	mov    $0x8,%esi
    933a:	89 c7                	mov    %eax,%edi
    933c:	e8 e9 b1 ff ff       	callq  452a <safe_rshift_func_int16_t_s_s>
    9341:	98                   	cwtl   
    9342:	41 39 c6             	cmp    %eax,%r14d
    9345:	0f b7 05 fe 73 00 00 	movzwl 0x73fe(%rip),%eax        # 1074a <g_192+0x1a>
    934c:	66 c1 e8 07          	shr    $0x7,%ax
    9350:	83 e0 03             	and    $0x3,%eax
    9353:	0f b6 c0             	movzbl %al,%eax
    9356:	89 de                	mov    %ebx,%esi
    9358:	89 c7                	mov    %eax,%edi
    935a:	e8 c6 bb ff ff       	callq  4f25 <safe_div_func_uint32_t_u_u>
    935f:	89 c2                	mov    %eax,%edx
    9361:	0f b7 85 62 fa ff ff 	movzwl -0x59e(%rbp),%eax
    9368:	48 89 d6             	mov    %rdx,%rsi
    936b:	48 89 c7             	mov    %rax,%rdi
    936e:	e8 41 b6 ff ff       	callq  49b4 <safe_mod_func_int64_t_s_s>
    9373:	48 85 c0             	test   %rax,%rax
    9376:	0f 84 20 06 00 00    	je     999c <func_134+0x9e5>
    937c:	c7 85 80 fb ff ff bc 	movl   $0xd65060bc,-0x480(%rbp)
    9383:	60 50 d6 
    9386:	c7 85 84 fb ff ff 16 	movl   $0xb46a7616,-0x47c(%rbp)
    938d:	76 6a b4 
    9390:	c7 85 88 fb ff ff bc 	movl   $0xd65060bc,-0x478(%rbp)
    9397:	60 50 d6 
    939a:	c7 85 8c fb ff ff 16 	movl   $0xb46a7616,-0x474(%rbp)
    93a1:	76 6a b4 
    93a4:	c7 85 90 fb ff ff bc 	movl   $0xd65060bc,-0x470(%rbp)
    93ab:	60 50 d6 
    93ae:	c7 85 94 fb ff ff 16 	movl   $0xb46a7616,-0x46c(%rbp)
    93b5:	76 6a b4 
    93b8:	c7 85 98 fb ff ff bc 	movl   $0xd65060bc,-0x468(%rbp)
    93bf:	60 50 d6 
    93c2:	c7 85 9c fb ff ff 16 	movl   $0xb46a7616,-0x464(%rbp)
    93c9:	76 6a b4 
    93cc:	c7 85 a0 fb ff ff bc 	movl   $0xd65060bc,-0x460(%rbp)
    93d3:	60 50 d6 
    93d6:	c7 85 78 fa ff ff 00 	movl   $0x0,-0x588(%rbp)
    93dd:	00 00 00 
    93e0:	c7 85 7c fa ff ff 09 	movl   $0x9,-0x584(%rbp)
    93e7:	00 00 00 
    93ea:	c7 85 b0 fb ff ff fd 	movl   $0xfffffffd,-0x450(%rbp)
    93f1:	ff ff ff 
    93f4:	c7 85 b4 fb ff ff 01 	movl   $0x1,-0x44c(%rbp)
    93fb:	00 00 00 
    93fe:	c7 85 b8 fb ff ff 01 	movl   $0x1,-0x448(%rbp)
    9405:	00 00 00 
    9408:	c7 85 bc fb ff ff fd 	movl   $0xfffffffd,-0x444(%rbp)
    940f:	ff ff ff 
    9412:	c7 85 c0 fb ff ff 01 	movl   $0x1,-0x440(%rbp)
    9419:	00 00 00 
    941c:	c7 85 c4 fb ff ff 01 	movl   $0x1,-0x43c(%rbp)
    9423:	00 00 00 
    9426:	c7 85 c8 fb ff ff fd 	movl   $0xfffffffd,-0x438(%rbp)
    942d:	ff ff ff 
    9430:	c7 85 cc fb ff ff 01 	movl   $0x1,-0x434(%rbp)
    9437:	00 00 00 
    943a:	c7 85 d0 fb ff ff 01 	movl   $0x1,-0x430(%rbp)
    9441:	00 00 00 
    9444:	c7 85 d4 fb ff ff fd 	movl   $0xfffffffd,-0x42c(%rbp)
    944b:	ff ff ff 
    944e:	c7 85 70 fc ff ff 7b 	movl   $0xd67b4b7b,-0x390(%rbp)
    9455:	4b 7b d6 
    9458:	c7 85 74 fc ff ff 7b 	movl   $0xd67b4b7b,-0x38c(%rbp)
    945f:	4b 7b d6 
    9462:	c7 85 78 fc ff ff 7b 	movl   $0xd67b4b7b,-0x388(%rbp)
    9469:	4b 7b d6 
    946c:	c7 85 7c fc ff ff cf 	movl   $0xca3bc5cf,-0x384(%rbp)
    9473:	c5 3b ca 
    9476:	c7 85 80 fc ff ff 7b 	movl   $0xd67b4b7b,-0x380(%rbp)
    947d:	4b 7b d6 
    9480:	c7 85 84 fc ff ff 7b 	movl   $0xd67b4b7b,-0x37c(%rbp)
    9487:	4b 7b d6 
    948a:	c7 85 88 fc ff ff 7b 	movl   $0xd67b4b7b,-0x378(%rbp)
    9491:	4b 7b d6 
    9494:	c7 85 8c fc ff ff cf 	movl   $0xca3bc5cf,-0x374(%rbp)
    949b:	c5 3b ca 
    949e:	c7 85 90 fc ff ff 7b 	movl   $0xd67b4b7b,-0x370(%rbp)
    94a5:	4b 7b d6 
    94a8:	c7 85 94 fc ff ff 7b 	movl   $0xd67b4b7b,-0x36c(%rbp)
    94af:	4b 7b d6 
    94b2:	c7 85 98 fc ff ff 7b 	movl   $0xd67b4b7b,-0x368(%rbp)
    94b9:	4b 7b d6 
    94bc:	c7 85 9c fc ff ff cf 	movl   $0xca3bc5cf,-0x364(%rbp)
    94c3:	c5 3b ca 
    94c6:	c7 85 a0 fc ff ff 7b 	movl   $0xd67b4b7b,-0x360(%rbp)
    94cd:	4b 7b d6 
    94d0:	c7 85 a4 fc ff ff 7b 	movl   $0xd67b4b7b,-0x35c(%rbp)
    94d7:	4b 7b d6 
    94da:	c7 85 a8 fc ff ff 7b 	movl   $0xd67b4b7b,-0x358(%rbp)
    94e1:	4b 7b d6 
    94e4:	c7 85 ac fc ff ff cf 	movl   $0xca3bc5cf,-0x354(%rbp)
    94eb:	c5 3b ca 
    94ee:	c6 85 61 fa ff ff 8f 	movb   $0x8f,-0x59f(%rbp)
    94f5:	66 c7 05 36 6d 00 00 	movw   $0x0,0x6d36(%rip)        # 10234 <g_64>
    94fc:	00 00 
    94fe:	e9 83 04 00 00       	jmpq   9986 <func_134+0x9cf>
    9503:	48 c7 85 f0 fa ff ff 	movq   $0x0,-0x510(%rbp)
    950a:	00 00 00 00 
    950e:	48 8d 05 3f 96 00 00 	lea    0x963f(%rip),%rax        # 12b54 <g_147>
    9515:	48 89 85 40 fc ff ff 	mov    %rax,-0x3c0(%rbp)
    951c:	48 8d 05 31 96 00 00 	lea    0x9631(%rip),%rax        # 12b54 <g_147>
    9523:	48 89 85 48 fc ff ff 	mov    %rax,-0x3b8(%rbp)
    952a:	48 8d 05 23 96 00 00 	lea    0x9623(%rip),%rax        # 12b54 <g_147>
    9531:	48 89 85 50 fc ff ff 	mov    %rax,-0x3b0(%rbp)
    9538:	48 8d 05 15 96 00 00 	lea    0x9615(%rip),%rax        # 12b54 <g_147>
    953f:	48 89 85 58 fc ff ff 	mov    %rax,-0x3a8(%rbp)
    9546:	48 8d 05 07 96 00 00 	lea    0x9607(%rip),%rax        # 12b54 <g_147>
    954d:	48 89 85 60 fc ff ff 	mov    %rax,-0x3a0(%rbp)
    9554:	48 8d 05 f9 95 00 00 	lea    0x95f9(%rip),%rax        # 12b54 <g_147>
    955b:	48 89 85 68 fc ff ff 	mov    %rax,-0x398(%rbp)
    9562:	48 8d 05 c7 71 00 00 	lea    0x71c7(%rip),%rax        # 10730 <g_192>
    9569:	48 89 85 f8 fa ff ff 	mov    %rax,-0x508(%rbp)
    9570:	c7 85 b0 fc ff ff 1c 	movl   $0xb373a21c,-0x350(%rbp)
    9577:	a2 73 b3 
    957a:	c7 85 b4 fc ff ff 1c 	movl   $0xb373a21c,-0x34c(%rbp)
    9581:	a2 73 b3 
    9584:	c7 85 b8 fc ff ff 1c 	movl   $0xb373a21c,-0x348(%rbp)
    958b:	a2 73 b3 
    958e:	c7 85 bc fc ff ff 5e 	movl   $0x82aba05e,-0x344(%rbp)
    9595:	a0 ab 82 
    9598:	c7 85 c0 fc ff ff 5e 	movl   $0x82aba05e,-0x340(%rbp)
    959f:	a0 ab 82 
    95a2:	c7 85 c4 fc ff ff 5e 	movl   $0x3606635e,-0x33c(%rbp)
    95a9:	63 06 36 
    95ac:	c7 85 c8 fc ff ff 5e 	movl   $0x3606635e,-0x338(%rbp)
    95b3:	63 06 36 
    95b6:	c7 85 cc fc ff ff 5e 	movl   $0x82aba05e,-0x334(%rbp)
    95bd:	a0 ab 82 
    95c0:	c7 85 d0 fc ff ff 5e 	movl   $0x3606635e,-0x330(%rbp)
    95c7:	63 06 36 
    95ca:	c7 85 d4 fc ff ff 5e 	movl   $0x82aba05e,-0x32c(%rbp)
    95d1:	a0 ab 82 
    95d4:	c7 85 d8 fc ff ff 5e 	movl   $0x3606635e,-0x328(%rbp)
    95db:	63 06 36 
    95de:	c7 85 dc fc ff ff 5e 	movl   $0x3606635e,-0x324(%rbp)
    95e5:	63 06 36 
    95e8:	c7 85 e0 fc ff ff 5e 	movl   $0x82aba05e,-0x320(%rbp)
    95ef:	a0 ab 82 
    95f2:	c7 85 e4 fc ff ff 5e 	movl   $0x82aba05e,-0x31c(%rbp)
    95f9:	a0 ab 82 
    95fc:	c7 85 e8 fc ff ff 1c 	movl   $0xb373a21c,-0x318(%rbp)
    9603:	a2 73 b3 
    9606:	c7 85 ec fc ff ff 5e 	movl   $0x82aba05e,-0x314(%rbp)
    960d:	a0 ab 82 
    9610:	c7 85 f0 fc ff ff 5e 	movl   $0x82aba05e,-0x310(%rbp)
    9617:	a0 ab 82 
    961a:	c7 85 f4 fc ff ff 5e 	movl   $0x3606635e,-0x30c(%rbp)
    9621:	63 06 36 
    9624:	c7 85 f8 fc ff ff 5e 	movl   $0x3606635e,-0x308(%rbp)
    962b:	63 06 36 
    962e:	c7 85 fc fc ff ff 5e 	movl   $0x82aba05e,-0x304(%rbp)
    9635:	a0 ab 82 
    9638:	c7 85 00 fd ff ff 5e 	movl   $0x3606635e,-0x300(%rbp)
    963f:	63 06 36 
    9642:	c7 85 04 fd ff ff 5e 	movl   $0x82aba05e,-0x2fc(%rbp)
    9649:	a0 ab 82 
    964c:	c7 85 08 fd ff ff 5e 	movl   $0x3606635e,-0x2f8(%rbp)
    9653:	63 06 36 
    9656:	c7 85 0c fd ff ff 5e 	movl   $0x3606635e,-0x2f4(%rbp)
    965d:	63 06 36 
    9660:	c7 85 10 fd ff ff 5e 	movl   $0x82aba05e,-0x2f0(%rbp)
    9667:	a0 ab 82 
    966a:	c7 85 14 fd ff ff 5e 	movl   $0x82aba05e,-0x2ec(%rbp)
    9671:	a0 ab 82 
    9674:	c7 85 18 fd ff ff 1c 	movl   $0xb373a21c,-0x2e8(%rbp)
    967b:	a2 73 b3 
    967e:	c7 85 1c fd ff ff 5e 	movl   $0x82aba05e,-0x2e4(%rbp)
    9685:	a0 ab 82 
    9688:	c7 85 20 fd ff ff 5e 	movl   $0x82aba05e,-0x2e0(%rbp)
    968f:	a0 ab 82 
    9692:	c7 85 24 fd ff ff 5e 	movl   $0x3606635e,-0x2dc(%rbp)
    9699:	63 06 36 
    969c:	c7 85 28 fd ff ff 5e 	movl   $0x3606635e,-0x2d8(%rbp)
    96a3:	63 06 36 
    96a6:	c7 85 2c fd ff ff 5e 	movl   $0x82aba05e,-0x2d4(%rbp)
    96ad:	a0 ab 82 
    96b0:	c7 85 30 fd ff ff 5e 	movl   $0x3606635e,-0x2d0(%rbp)
    96b7:	63 06 36 
    96ba:	c7 85 34 fd ff ff 5e 	movl   $0x82aba05e,-0x2cc(%rbp)
    96c1:	a0 ab 82 
    96c4:	c7 85 38 fd ff ff 5e 	movl   $0x3606635e,-0x2c8(%rbp)
    96cb:	63 06 36 
    96ce:	c7 85 3c fd ff ff 5e 	movl   $0x3606635e,-0x2c4(%rbp)
    96d5:	63 06 36 
    96d8:	c7 85 40 fd ff ff 5e 	movl   $0x82aba05e,-0x2c0(%rbp)
    96df:	a0 ab 82 
    96e2:	c7 85 44 fd ff ff 5e 	movl   $0x82aba05e,-0x2bc(%rbp)
    96e9:	a0 ab 82 
    96ec:	c7 85 48 fd ff ff 1c 	movl   $0xb373a21c,-0x2b8(%rbp)
    96f3:	a2 73 b3 
    96f6:	c7 85 4c fd ff ff 5e 	movl   $0x82aba05e,-0x2b4(%rbp)
    96fd:	a0 ab 82 
    9700:	48 8d 85 30 fe ff ff 	lea    -0x1d0(%rbp),%rax
    9707:	48 05 c8 00 00 00    	add    $0xc8,%rax
    970d:	48 89 85 00 fb ff ff 	mov    %rax,-0x500(%rbp)
    9714:	48 8d 85 b0 fc ff ff 	lea    -0x350(%rbp),%rax
    971b:	48 83 c0 04          	add    $0x4,%rax
    971f:	48 89 85 08 fb ff ff 	mov    %rax,-0x4f8(%rbp)
    9726:	48 8d 05 17 6d 00 00 	lea    0x6d17(%rip),%rax        # 10444 <g_76+0x1e4>
    972d:	48 89 85 10 fb ff ff 	mov    %rax,-0x4f0(%rbp)
    9734:	48 8d 85 50 fb ff ff 	lea    -0x4b0(%rbp),%rax
    973b:	48 83 c0 08          	add    $0x8,%rax
    973f:	48 89 85 18 fb ff ff 	mov    %rax,-0x4e8(%rbp)
    9746:	48 c7 85 20 fb ff ff 	movq   $0x0,-0x4e0(%rbp)
    974d:	00 00 00 00 
    9751:	48 c7 85 28 fb ff ff 	movq   $0x0,-0x4d8(%rbp)
    9758:	00 00 00 00 
    975c:	48 8d 05 41 6e 00 00 	lea    0x6e41(%rip),%rax        # 105a4 <g_76+0x344>
    9763:	48 89 85 30 fb ff ff 	mov    %rax,-0x4d0(%rbp)
    976a:	48 8d 85 b0 fb ff ff 	lea    -0x450(%rbp),%rax
    9771:	48 83 c0 0c          	add    $0xc,%rax
    9775:	48 89 85 38 fb ff ff 	mov    %rax,-0x4c8(%rbp)
    977c:	48 8d 85 30 fe ff ff 	lea    -0x1d0(%rbp),%rax
    9783:	48 05 c8 00 00 00    	add    $0xc8,%rax
    9789:	48 89 85 40 fb ff ff 	mov    %rax,-0x4c0(%rbp)
    9790:	48 8d 85 50 fb ff ff 	lea    -0x4b0(%rbp),%rax
    9797:	48 83 c0 08          	add    $0x8,%rax
    979b:	48 89 85 50 fd ff ff 	mov    %rax,-0x2b0(%rbp)
    97a2:	48 8d 85 50 fb ff ff 	lea    -0x4b0(%rbp),%rax
    97a9:	48 83 c0 08          	add    $0x8,%rax
    97ad:	48 89 85 58 fd ff ff 	mov    %rax,-0x2a8(%rbp)
    97b4:	48 8d 85 50 fb ff ff 	lea    -0x4b0(%rbp),%rax
    97bb:	48 83 c0 08          	add    $0x8,%rax
    97bf:	48 89 85 60 fd ff ff 	mov    %rax,-0x2a0(%rbp)
    97c6:	48 8d 05 63 6a 00 00 	lea    0x6a63(%rip),%rax        # 10230 <g_63>
    97cd:	48 89 85 68 fd ff ff 	mov    %rax,-0x298(%rbp)
    97d4:	48 8d 05 55 6a 00 00 	lea    0x6a55(%rip),%rax        # 10230 <g_63>
    97db:	48 89 85 70 fd ff ff 	mov    %rax,-0x290(%rbp)
    97e2:	48 8d 05 47 6a 00 00 	lea    0x6a47(%rip),%rax        # 10230 <g_63>
    97e9:	48 89 85 78 fd ff ff 	mov    %rax,-0x288(%rbp)
    97f0:	48 8d 85 50 fb ff ff 	lea    -0x4b0(%rbp),%rax
    97f7:	48 83 c0 08          	add    $0x8,%rax
    97fb:	48 89 85 80 fd ff ff 	mov    %rax,-0x280(%rbp)
    9802:	48 8d 85 50 fb ff ff 	lea    -0x4b0(%rbp),%rax
    9809:	48 83 c0 08          	add    $0x8,%rax
    980d:	48 89 85 88 fd ff ff 	mov    %rax,-0x278(%rbp)
    9814:	48 8d 85 50 fb ff ff 	lea    -0x4b0(%rbp),%rax
    981b:	48 83 c0 08          	add    $0x8,%rax
    981f:	48 89 85 90 fd ff ff 	mov    %rax,-0x270(%rbp)
    9826:	48 8d 05 03 6a 00 00 	lea    0x6a03(%rip),%rax        # 10230 <g_63>
    982d:	48 89 85 98 fd ff ff 	mov    %rax,-0x268(%rbp)
    9834:	48 8d 05 f5 69 00 00 	lea    0x69f5(%rip),%rax        # 10230 <g_63>
    983b:	48 89 85 a0 fd ff ff 	mov    %rax,-0x260(%rbp)
    9842:	48 8d 05 e7 69 00 00 	lea    0x69e7(%rip),%rax        # 10230 <g_63>
    9849:	48 89 85 a8 fd ff ff 	mov    %rax,-0x258(%rbp)
    9850:	48 8d 85 50 fb ff ff 	lea    -0x4b0(%rbp),%rax
    9857:	48 83 c0 08          	add    $0x8,%rax
    985b:	48 89 85 b0 fd ff ff 	mov    %rax,-0x250(%rbp)
    9862:	48 8d 85 50 fb ff ff 	lea    -0x4b0(%rbp),%rax
    9869:	48 83 c0 08          	add    $0x8,%rax
    986d:	48 89 85 b8 fd ff ff 	mov    %rax,-0x248(%rbp)
    9874:	48 8d 85 50 fb ff ff 	lea    -0x4b0(%rbp),%rax
    987b:	48 83 c0 08          	add    $0x8,%rax
    987f:	48 89 85 c0 fd ff ff 	mov    %rax,-0x240(%rbp)
    9886:	48 8d 05 a3 69 00 00 	lea    0x69a3(%rip),%rax        # 10230 <g_63>
    988d:	48 89 85 c8 fd ff ff 	mov    %rax,-0x238(%rbp)
    9894:	48 8d 05 95 69 00 00 	lea    0x6995(%rip),%rax        # 10230 <g_63>
    989b:	48 89 85 d0 fd ff ff 	mov    %rax,-0x230(%rbp)
    98a2:	48 8d 05 87 69 00 00 	lea    0x6987(%rip),%rax        # 10230 <g_63>
    98a9:	48 89 85 d8 fd ff ff 	mov    %rax,-0x228(%rbp)
    98b0:	48 8d 85 50 fb ff ff 	lea    -0x4b0(%rbp),%rax
    98b7:	48 83 c0 08          	add    $0x8,%rax
    98bb:	48 89 85 e0 fd ff ff 	mov    %rax,-0x220(%rbp)
    98c2:	48 8d 85 50 fb ff ff 	lea    -0x4b0(%rbp),%rax
    98c9:	48 83 c0 08          	add    $0x8,%rax
    98cd:	48 89 85 e8 fd ff ff 	mov    %rax,-0x218(%rbp)
    98d4:	48 8d 85 50 fb ff ff 	lea    -0x4b0(%rbp),%rax
    98db:	48 83 c0 08          	add    $0x8,%rax
    98df:	48 89 85 f0 fd ff ff 	mov    %rax,-0x210(%rbp)
    98e6:	48 8d 05 43 69 00 00 	lea    0x6943(%rip),%rax        # 10230 <g_63>
    98ed:	48 89 85 f8 fd ff ff 	mov    %rax,-0x208(%rbp)
    98f4:	48 8d 05 35 69 00 00 	lea    0x6935(%rip),%rax        # 10230 <g_63>
    98fb:	48 89 85 00 fe ff ff 	mov    %rax,-0x200(%rbp)
    9902:	48 8d 05 27 69 00 00 	lea    0x6927(%rip),%rax        # 10230 <g_63>
    9909:	48 89 85 08 fe ff ff 	mov    %rax,-0x1f8(%rbp)
    9910:	48 8d 85 50 fb ff ff 	lea    -0x4b0(%rbp),%rax
    9917:	48 83 c0 08          	add    $0x8,%rax
    991b:	48 89 85 10 fe ff ff 	mov    %rax,-0x1f0(%rbp)
    9922:	48 8d 85 50 fb ff ff 	lea    -0x4b0(%rbp),%rax
    9929:	48 83 c0 08          	add    $0x8,%rax
    992d:	48 89 85 18 fe ff ff 	mov    %rax,-0x1e8(%rbp)
    9934:	48 8d 85 50 fb ff ff 	lea    -0x4b0(%rbp),%rax
    993b:	48 83 c0 08          	add    $0x8,%rax
    993f:	48 89 85 20 fe ff ff 	mov    %rax,-0x1e0(%rbp)
    9946:	c7 85 68 fa ff ff 00 	movl   $0x0,-0x598(%rbp)
    994d:	00 00 00 
    9950:	eb 1a                	jmp    996c <func_134+0x9b5>
    9952:	8b 85 68 fa ff ff    	mov    -0x598(%rbp),%eax
    9958:	48 98                	cltq   
    995a:	c7 84 85 48 fb ff ff 	movl   $0x727a0ac4,-0x4b8(%rbp,%rax,4)
    9961:	c4 0a 7a 72 
    9965:	83 85 68 fa ff ff 01 	addl   $0x1,-0x598(%rbp)
    996c:	83 bd 68 fa ff ff 01 	cmpl   $0x1,-0x598(%rbp)
    9973:	7e dd                	jle    9952 <func_134+0x99b>
    9975:	0f b7 05 b8 68 00 00 	movzwl 0x68b8(%rip),%eax        # 10234 <g_64>
    997c:	83 c0 01             	add    $0x1,%eax
    997f:	66 89 05 ae 68 00 00 	mov    %ax,0x68ae(%rip)        # 10234 <g_64>
    9986:	0f b7 05 a7 68 00 00 	movzwl 0x68a7(%rip),%eax        # 10234 <g_64>
    998d:	66 83 f8 03          	cmp    $0x3,%ax
    9991:	0f 86 6c fb ff ff    	jbe    9503 <func_134+0x54c>
    9997:	e9 5c 02 00 00       	jmpq   9bf8 <func_134+0xc41>
    999c:	48 8d 85 80 fa ff ff 	lea    -0x580(%rbp),%rax
    99a3:	48 89 85 e8 fa ff ff 	mov    %rax,-0x518(%rbp)
    99aa:	c7 85 50 fd ff ff 02 	movl   $0x2,-0x2b0(%rbp)
    99b1:	00 00 00 
    99b4:	c7 85 54 fd ff ff 02 	movl   $0x2,-0x2ac(%rbp)
    99bb:	00 00 00 
    99be:	c7 85 58 fd ff ff fc 	movl   $0xfffffffc,-0x2a8(%rbp)
    99c5:	ff ff ff 
    99c8:	c7 85 5c fd ff ff 06 	movl   $0x6,-0x2a4(%rbp)
    99cf:	00 00 00 
    99d2:	c7 85 60 fd ff ff fc 	movl   $0xfffffffc,-0x2a0(%rbp)
    99d9:	ff ff ff 
    99dc:	c7 85 64 fd ff ff 02 	movl   $0x2,-0x29c(%rbp)
    99e3:	00 00 00 
    99e6:	c7 85 68 fd ff ff 02 	movl   $0x2,-0x298(%rbp)
    99ed:	00 00 00 
    99f0:	c7 85 6c fd ff ff 02 	movl   $0x2,-0x294(%rbp)
    99f7:	00 00 00 
    99fa:	c7 85 70 fd ff ff fc 	movl   $0xfffffffc,-0x290(%rbp)
    9a01:	ff ff ff 
    9a04:	c7 85 74 fd ff ff 06 	movl   $0x6,-0x28c(%rbp)
    9a0b:	00 00 00 
    9a0e:	c7 85 78 fd ff ff fc 	movl   $0xfffffffc,-0x288(%rbp)
    9a15:	ff ff ff 
    9a18:	c7 85 7c fd ff ff 02 	movl   $0x2,-0x284(%rbp)
    9a1f:	00 00 00 
    9a22:	c7 85 80 fd ff ff 02 	movl   $0x2,-0x280(%rbp)
    9a29:	00 00 00 
    9a2c:	c7 85 84 fd ff ff fc 	movl   $0xfffffffc,-0x27c(%rbp)
    9a33:	ff ff ff 
    9a36:	48 83 bd a8 fa ff ff 	cmpq   $0x0,-0x558(%rbp)
    9a3d:	00 
    9a3e:	0f 85 9f 01 00 00    	jne    9be3 <func_134+0xc2c>
    9a44:	48 8b 85 50 fa ff ff 	mov    -0x5b0(%rbp),%rax
    9a4b:	44 8b 38             	mov    (%rax),%r15d
    9a4e:	48 8b 05 4b 86 00 00 	mov    0x864b(%rip),%rax        # 120a0 <g_31>
    9a55:	0f b7 00             	movzwl (%rax),%eax
    9a58:	0f bf d8             	movswl %ax,%ebx
    9a5b:	0f b7 85 48 fa ff ff 	movzwl -0x5b8(%rbp),%eax
    9a62:	44 0f be e0          	movsbl %al,%r12d
    9a66:	44 0f bf ad 48 fa ff 	movswl -0x5b8(%rbp),%r13d
    9a6d:	ff 
    9a6e:	4c 0f bf b5 5c fa ff 	movswq -0x5a4(%rbp),%r14
    9a75:	ff 
    9a76:	48 8b 85 90 fa ff ff 	mov    -0x570(%rbp),%rax
    9a7d:	89 85 44 fa ff ff    	mov    %eax,-0x5bc(%rbp)
    9a83:	8b 85 84 fd ff ff    	mov    -0x27c(%rbp),%eax
    9a89:	0f b6 d0             	movzbl %al,%edx
    9a8c:	48 8b 05 a5 67 00 00 	mov    0x67a5(%rip),%rax        # 10238 <g_70>
    9a93:	0f b6 c0             	movzbl %al,%eax
    9a96:	89 d6                	mov    %edx,%esi
    9a98:	89 c7                	mov    %eax,%edi
    9a9a:	e8 bb b0 ff ff       	callq  4b5a <safe_add_func_uint8_t_u_u>
    9a9f:	84 c0                	test   %al,%al
    9aa1:	74 08                	je     9aab <func_134+0xaf4>
    9aa3:	66 83 bd 48 fa ff ff 	cmpw   $0x0,-0x5b8(%rbp)
    9aaa:	00 
    9aab:	48 83 bd d0 fa ff ff 	cmpq   $0x0,-0x530(%rbp)
    9ab2:	00 
    9ab3:	0f 95 c0             	setne  %al
    9ab6:	0f b6 c0             	movzbl %al,%eax
    9ab9:	be a8 f4 c8 16       	mov    $0x16c8f4a8,%esi
    9abe:	89 c7                	mov    %eax,%edi
    9ac0:	e8 3a ac ff ff       	callq  46ff <safe_div_func_int32_t_s_s>
    9ac5:	0f be c0             	movsbl %al,%eax
    9ac8:	8b b5 44 fa ff ff    	mov    -0x5bc(%rbp),%esi
    9ace:	89 c7                	mov    %eax,%edi
    9ad0:	e8 60 a8 ff ff       	callq  4335 <safe_rshift_func_int8_t_s_s>
    9ad5:	0f be d0             	movsbl %al,%edx
    9ad8:	0f b7 05 55 67 00 00 	movzwl 0x6755(%rip),%eax        # 10234 <g_64>
    9adf:	0f b7 c0             	movzwl %ax,%eax
    9ae2:	39 c2                	cmp    %eax,%edx
    9ae4:	0f 9c c0             	setl   %al
    9ae7:	0f b6 c0             	movzbl %al,%eax
    9aea:	89 85 54 fe ff ff    	mov    %eax,-0x1ac(%rbp)
    9af0:	48 8b 05 41 86 00 00 	mov    0x8641(%rip),%rax        # 12138 <g_114>
    9af7:	4c 89 f6             	mov    %r14,%rsi
    9afa:	48 bf 59 4c c7 73 dd 	movabs $0xaade5cdd73c74c59,%rdi
    9b01:	5c de aa 
    9b04:	e8 42 b5 ff ff       	callq  504b <safe_sub_func_uint64_t_u_u>
    9b09:	89 c2                	mov    %eax,%edx
    9b0b:	48 8b 85 c8 fa ff ff 	mov    -0x538(%rbp),%rax
    9b12:	88 10                	mov    %dl,(%rax)
    9b14:	48 8b 85 c8 fa ff ff 	mov    -0x538(%rbp),%rax
    9b1b:	0f b6 00             	movzbl (%rax),%eax
    9b1e:	0f be c0             	movsbl %al,%eax
    9b21:	44 89 ee             	mov    %r13d,%esi
    9b24:	89 c7                	mov    %eax,%edi
    9b26:	e8 76 a7 ff ff       	callq  42a1 <safe_lshift_func_int8_t_s_s>
    9b2b:	0f be c0             	movsbl %al,%eax
    9b2e:	89 c6                	mov    %eax,%esi
    9b30:	bf cd 66 3d e1       	mov    $0xe13d66cd,%edi
    9b35:	e8 96 b3 ff ff       	callq  4ed0 <safe_sub_func_uint32_t_u_u>
    9b3a:	0f be c0             	movsbl %al,%eax
    9b3d:	44 89 e6             	mov    %r12d,%esi
    9b40:	89 c7                	mov    %eax,%edi
    9b42:	e8 ab a6 ff ff       	callq  41f2 <safe_sub_func_int8_t_s_s>
    9b47:	84 c0                	test   %al,%al
    9b49:	75 13                	jne    9b5e <func_134+0xba7>
    9b4b:	48 8b 05 36 6d 00 00 	mov    0x6d36(%rip),%rax        # 10888 <g_301+0x8>
    9b52:	48 c1 e0 07          	shl    $0x7,%rax
    9b56:	48 c1 f8 27          	sar    $0x27,%rax
    9b5a:	85 c0                	test   %eax,%eax
    9b5c:	74 07                	je     9b65 <func_134+0xbae>
    9b5e:	b8 01 00 00 00       	mov    $0x1,%eax
    9b63:	eb 05                	jmp    9b6a <func_134+0xbb3>
    9b65:	b8 00 00 00 00       	mov    $0x0,%eax
    9b6a:	98                   	cwtl   
    9b6b:	89 de                	mov    %ebx,%esi
    9b6d:	89 c7                	mov    %eax,%edi
    9b6f:	e8 e1 a8 ff ff       	callq  4455 <safe_div_func_int16_t_s_s>
    9b74:	0f b7 d0             	movzwl %ax,%edx
    9b77:	48 8b 8d 80 fa ff ff 	mov    -0x580(%rbp),%rcx
    9b7e:	48 8b 85 e8 fa ff ff 	mov    -0x518(%rbp),%rax
    9b85:	48 89 08             	mov    %rcx,(%rax)
    9b88:	48 8b 85 e8 fa ff ff 	mov    -0x518(%rbp),%rax
    9b8f:	48 8b 00             	mov    (%rax),%rax
    9b92:	48 39 85 c8 fa ff ff 	cmp    %rax,-0x538(%rbp)
    9b99:	0f 95 c0             	setne  %al
    9b9c:	0f b6 c0             	movzbl %al,%eax
    9b9f:	89 d6                	mov    %edx,%esi
    9ba1:	89 c7                	mov    %eax,%edi
    9ba3:	e8 57 b1 ff ff       	callq  4cff <safe_add_func_uint16_t_u_u>
    9ba8:	48 83 bd 90 fa ff ff 	cmpq   $0x0,-0x570(%rbp)
    9baf:	00 
    9bb0:	75 0a                	jne    9bbc <func_134+0xc05>
    9bb2:	8b 85 64 fd ff ff    	mov    -0x29c(%rbp),%eax
    9bb8:	85 c0                	test   %eax,%eax
    9bba:	74 07                	je     9bc3 <func_134+0xc0c>
    9bbc:	b8 01 00 00 00       	mov    $0x1,%eax
    9bc1:	eb 05                	jmp    9bc8 <func_134+0xc11>
    9bc3:	b8 00 00 00 00       	mov    $0x0,%eax
    9bc8:	44 39 f8             	cmp    %r15d,%eax
    9bcb:	0f 9f c0             	setg   %al
    9bce:	0f b6 c0             	movzbl %al,%eax
    9bd1:	48 89 c6             	mov    %rax,%rsi
    9bd4:	bf 08 00 00 00       	mov    $0x8,%edi
    9bd9:	e8 50 b4 ff ff       	callq  502e <safe_add_func_uint64_t_u_u>
    9bde:	48 85 c0             	test   %rax,%rax
    9be1:	74 07                	je     9bea <func_134+0xc33>
    9be3:	ba 01 00 00 00       	mov    $0x1,%edx
    9be8:	eb 05                	jmp    9bef <func_134+0xc38>
    9bea:	ba 00 00 00 00       	mov    $0x0,%edx
    9bef:	48 8b 85 50 fa ff ff 	mov    -0x5b0(%rbp),%rax
    9bf6:	89 10                	mov    %edx,(%rax)
    9bf8:	66 83 85 66 fa ff ff 	addw   $0x1,-0x59a(%rbp)
    9bff:	01 
    9c00:	8b 05 4a 8f 00 00    	mov    0x8f4a(%rip),%eax        # 12b50 <g_82>
    9c06:	83 c0 01             	add    $0x1,%eax
    9c09:	89 05 41 8f 00 00    	mov    %eax,0x8f41(%rip)        # 12b50 <g_82>
    9c0f:	8b 05 3b 8f 00 00    	mov    0x8f3b(%rip),%eax        # 12b50 <g_82>
    9c15:	83 f8 03             	cmp    $0x3,%eax
    9c18:	0f 86 76 f4 ff ff    	jbe    9094 <func_134+0xdd>
    9c1e:	48 c7 85 90 fa ff ff 	movq   $0xffffffffffffffe3,-0x570(%rbp)
    9c25:	e3 ff ff ff 
    9c29:	eb 23                	jmp    9c4e <func_134+0xc97>
    9c2b:	48 8b 85 50 fa ff ff 	mov    -0x5b0(%rbp),%rax
    9c32:	8b 10                	mov    (%rax),%edx
    9c34:	0f bf 85 64 fa ff ff 	movswl -0x59c(%rbp),%eax
    9c3b:	09 c2                	or     %eax,%edx
    9c3d:	48 8b 85 50 fa ff ff 	mov    -0x5b0(%rbp),%rax
    9c44:	89 10                	mov    %edx,(%rax)
    9c46:	48 83 85 90 fa ff ff 	addq   $0x1,-0x570(%rbp)
    9c4d:	01 
    9c4e:	48 83 bd 90 fa ff ff 	cmpq   $0x19,-0x570(%rbp)
    9c55:	19 
    9c56:	75 d3                	jne    9c2b <func_134+0xc74>
    9c58:	48 8b 85 50 fa ff ff 	mov    -0x5b0(%rbp),%rax
    9c5f:	c7 00 05 00 00 00    	movl   $0x5,(%rax)
    9c65:	48 8d 05 c4 65 00 00 	lea    0x65c4(%rip),%rax        # 10230 <g_63>
    9c6c:	48 8b 5d c8          	mov    -0x38(%rbp),%rbx
    9c70:	64 48 33 1c 25 28 00 	xor    %fs:0x28,%rbx
    9c77:	00 00 
    9c79:	74 05                	je     9c80 <func_134+0xcc9>
    9c7b:	e8 f0 a3 ff ff       	callq  4070 <__stack_chk_fail@plt>
    9c80:	48 81 c4 98 05 00 00 	add    $0x598,%rsp
    9c87:	5b                   	pop    %rbx
    9c88:	41 5c                	pop    %r12
    9c8a:	41 5d                	pop    %r13
    9c8c:	41 5e                	pop    %r14
    9c8e:	41 5f                	pop    %r15
    9c90:	5d                   	pop    %rbp
    9c91:	c3                   	retq   

0000000000009c92 <func_162>:
    9c92:	f3 0f 1e fa          	endbr64 
    9c96:	55                   	push   %rbp
    9c97:	48 89 e5             	mov    %rsp,%rbp
    9c9a:	53                   	push   %rbx
    9c9b:	89 f8                	mov    %edi,%eax
    9c9d:	48 89 75 d8          	mov    %rsi,-0x28(%rbp)
    9ca1:	88 45 e4             	mov    %al,-0x1c(%rbp)
    9ca4:	48 8d 05 85 6a 00 00 	lea    0x6a85(%rip),%rax        # 10730 <g_192>
    9cab:	48 89 45 e8          	mov    %rax,-0x18(%rbp)
    9caf:	48 8d 05 9a 8e 00 00 	lea    0x8e9a(%rip),%rax        # 12b50 <g_82>
    9cb6:	48 89 45 f0          	mov    %rax,-0x10(%rbp)
    9cba:	48 8b 05 7f 84 00 00 	mov    0x847f(%rip),%rax        # 12140 <g_194>
    9cc1:	48 8b 0d 68 6a 00 00 	mov    0x6a68(%rip),%rcx        # 10730 <g_192>
    9cc8:	48 8b 1d 69 6a 00 00 	mov    0x6a69(%rip),%rbx        # 10738 <g_192+0x8>
    9ccf:	48 89 08             	mov    %rcx,(%rax)
    9cd2:	48 89 58 08          	mov    %rbx,0x8(%rax)
    9cd6:	48 8b 15 63 6a 00 00 	mov    0x6a63(%rip),%rdx        # 10740 <g_192+0x10>
    9cdd:	48 89 50 10          	mov    %rdx,0x10(%rax)
    9ce1:	8b 15 61 6a 00 00    	mov    0x6a61(%rip),%edx        # 10748 <g_192+0x18>
    9ce7:	89 50 18             	mov    %edx,0x18(%rax)
    9cea:	48 8b 05 5f 84 00 00 	mov    0x845f(%rip),%rax        # 12150 <g_196>
    9cf1:	48 8b 55 e8          	mov    -0x18(%rbp),%rdx
    9cf5:	48 89 10             	mov    %rdx,(%rax)
    9cf8:	48 8b 05 59 84 00 00 	mov    0x8459(%rip),%rax        # 12158 <g_199>
    9cff:	8b 08                	mov    (%rax),%ecx
    9d01:	48 83 7d f0 00       	cmpq   $0x0,-0x10(%rbp)
    9d06:	0f 94 c2             	sete   %dl
    9d09:	0f b6 d2             	movzbl %dl,%edx
    9d0c:	09 ca                	or     %ecx,%edx
    9d0e:	89 10                	mov    %edx,(%rax)
    9d10:	0f b6 45 e4          	movzbl -0x1c(%rbp),%eax
    9d14:	5b                   	pop    %rbx
    9d15:	5d                   	pop    %rbp
    9d16:	c3                   	retq   

0000000000009d17 <func_166>:
    9d17:	f3 0f 1e fa          	endbr64 
    9d1b:	55                   	push   %rbp
    9d1c:	48 89 e5             	mov    %rsp,%rbp
    9d1f:	48 81 ec 80 01 00 00 	sub    $0x180,%rsp
    9d26:	89 f8                	mov    %edi,%eax
    9d28:	48 89 b5 a0 fe ff ff 	mov    %rsi,-0x160(%rbp)
    9d2f:	48 89 95 98 fe ff ff 	mov    %rdx,-0x168(%rbp)
    9d36:	48 89 8d 90 fe ff ff 	mov    %rcx,-0x170(%rbp)
    9d3d:	4c 89 85 88 fe ff ff 	mov    %r8,-0x178(%rbp)
    9d44:	88 85 ac fe ff ff    	mov    %al,-0x154(%rbp)
    9d4a:	64 48 8b 04 25 28 00 	mov    %fs:0x28,%rax
    9d51:	00 00 
    9d53:	48 89 45 f8          	mov    %rax,-0x8(%rbp)
    9d57:	31 c0                	xor    %eax,%eax
    9d59:	48 8d 05 d4 64 00 00 	lea    0x64d4(%rip),%rax        # 10234 <g_64>
    9d60:	48 89 85 c8 fe ff ff 	mov    %rax,-0x138(%rbp)
    9d67:	48 b8 39 0d 96 fc 24 	movabs $0x77dd4e24fc960d39,%rax
    9d6e:	4e dd 77 
    9d71:	48 89 85 d6 fe ff ff 	mov    %rax,-0x12a(%rbp)
    9d78:	c6 85 de fe ff ff af 	movb   $0xaf,-0x122(%rbp)
    9d7f:	c6 85 df fe ff ff f8 	movb   $0xf8,-0x121(%rbp)
    9d86:	48 8d 05 b7 66 00 00 	lea    0x66b7(%rip),%rax        # 10444 <g_76+0x1e4>
    9d8d:	48 89 85 10 ff ff ff 	mov    %rax,-0xf0(%rbp)
    9d94:	48 8d 05 a9 66 00 00 	lea    0x66a9(%rip),%rax        # 10444 <g_76+0x1e4>
    9d9b:	48 89 85 18 ff ff ff 	mov    %rax,-0xe8(%rbp)
    9da2:	48 8d 05 9b 66 00 00 	lea    0x669b(%rip),%rax        # 10444 <g_76+0x1e4>
    9da9:	48 89 85 20 ff ff ff 	mov    %rax,-0xe0(%rbp)
    9db0:	48 8d 05 8d 66 00 00 	lea    0x668d(%rip),%rax        # 10444 <g_76+0x1e4>
    9db7:	48 89 85 28 ff ff ff 	mov    %rax,-0xd8(%rbp)
    9dbe:	48 8d 05 7f 66 00 00 	lea    0x667f(%rip),%rax        # 10444 <g_76+0x1e4>
    9dc5:	48 89 85 30 ff ff ff 	mov    %rax,-0xd0(%rbp)
    9dcc:	48 8d 05 71 66 00 00 	lea    0x6671(%rip),%rax        # 10444 <g_76+0x1e4>
    9dd3:	48 89 85 38 ff ff ff 	mov    %rax,-0xc8(%rbp)
    9dda:	48 8d 05 63 66 00 00 	lea    0x6663(%rip),%rax        # 10444 <g_76+0x1e4>
    9de1:	48 89 85 40 ff ff ff 	mov    %rax,-0xc0(%rbp)
    9de8:	48 8d 05 55 66 00 00 	lea    0x6655(%rip),%rax        # 10444 <g_76+0x1e4>
    9def:	48 89 85 48 ff ff ff 	mov    %rax,-0xb8(%rbp)
    9df6:	48 8d 05 47 66 00 00 	lea    0x6647(%rip),%rax        # 10444 <g_76+0x1e4>
    9dfd:	48 89 85 50 ff ff ff 	mov    %rax,-0xb0(%rbp)
    9e04:	48 8d 05 39 66 00 00 	lea    0x6639(%rip),%rax        # 10444 <g_76+0x1e4>
    9e0b:	48 89 85 58 ff ff ff 	mov    %rax,-0xa8(%rbp)
    9e12:	48 8d 05 2b 66 00 00 	lea    0x662b(%rip),%rax        # 10444 <g_76+0x1e4>
    9e19:	48 89 85 60 ff ff ff 	mov    %rax,-0xa0(%rbp)
    9e20:	48 8d 05 1d 66 00 00 	lea    0x661d(%rip),%rax        # 10444 <g_76+0x1e4>
    9e27:	48 89 85 68 ff ff ff 	mov    %rax,-0x98(%rbp)
    9e2e:	48 8d 05 0f 66 00 00 	lea    0x660f(%rip),%rax        # 10444 <g_76+0x1e4>
    9e35:	48 89 85 70 ff ff ff 	mov    %rax,-0x90(%rbp)
    9e3c:	48 8d 05 01 66 00 00 	lea    0x6601(%rip),%rax        # 10444 <g_76+0x1e4>
    9e43:	48 89 85 78 ff ff ff 	mov    %rax,-0x88(%rbp)
    9e4a:	48 8d 05 f3 65 00 00 	lea    0x65f3(%rip),%rax        # 10444 <g_76+0x1e4>
    9e51:	48 89 45 80          	mov    %rax,-0x80(%rbp)
    9e55:	48 8d 05 e8 65 00 00 	lea    0x65e8(%rip),%rax        # 10444 <g_76+0x1e4>
    9e5c:	48 89 45 88          	mov    %rax,-0x78(%rbp)
    9e60:	48 8d 05 dd 65 00 00 	lea    0x65dd(%rip),%rax        # 10444 <g_76+0x1e4>
    9e67:	48 89 45 90          	mov    %rax,-0x70(%rbp)
    9e6b:	48 8d 05 d2 65 00 00 	lea    0x65d2(%rip),%rax        # 10444 <g_76+0x1e4>
    9e72:	48 89 45 98          	mov    %rax,-0x68(%rbp)
    9e76:	48 8d 05 c7 65 00 00 	lea    0x65c7(%rip),%rax        # 10444 <g_76+0x1e4>
    9e7d:	48 89 45 a0          	mov    %rax,-0x60(%rbp)
    9e81:	48 8d 05 bc 65 00 00 	lea    0x65bc(%rip),%rax        # 10444 <g_76+0x1e4>
    9e88:	48 89 45 a8          	mov    %rax,-0x58(%rbp)
    9e8c:	48 8d 05 b1 65 00 00 	lea    0x65b1(%rip),%rax        # 10444 <g_76+0x1e4>
    9e93:	48 89 45 b0          	mov    %rax,-0x50(%rbp)
    9e97:	48 8d 05 a6 65 00 00 	lea    0x65a6(%rip),%rax        # 10444 <g_76+0x1e4>
    9e9e:	48 89 45 b8          	mov    %rax,-0x48(%rbp)
    9ea2:	48 8d 05 9b 65 00 00 	lea    0x659b(%rip),%rax        # 10444 <g_76+0x1e4>
    9ea9:	48 89 45 c0          	mov    %rax,-0x40(%rbp)
    9ead:	48 8d 05 90 65 00 00 	lea    0x6590(%rip),%rax        # 10444 <g_76+0x1e4>
    9eb4:	48 89 45 c8          	mov    %rax,-0x38(%rbp)
    9eb8:	48 8d 05 85 65 00 00 	lea    0x6585(%rip),%rax        # 10444 <g_76+0x1e4>
    9ebf:	48 89 45 d0          	mov    %rax,-0x30(%rbp)
    9ec3:	48 8d 05 7a 65 00 00 	lea    0x657a(%rip),%rax        # 10444 <g_76+0x1e4>
    9eca:	48 89 45 d8          	mov    %rax,-0x28(%rbp)
    9ece:	48 8d 05 6f 65 00 00 	lea    0x656f(%rip),%rax        # 10444 <g_76+0x1e4>
    9ed5:	48 89 45 e0          	mov    %rax,-0x20(%rbp)
    9ed9:	48 8d 05 64 65 00 00 	lea    0x6564(%rip),%rax        # 10444 <g_76+0x1e4>
    9ee0:	48 89 45 e8          	mov    %rax,-0x18(%rbp)
    9ee4:	c7 85 c0 fe ff ff 55 	movl   $0x16f0d455,-0x140(%rbp)
    9eeb:	d4 f0 16 
    9eee:	c7 85 e0 fe ff ff 81 	movl   $0xc066e181,-0x120(%rbp)
    9ef5:	e1 66 c0 
    9ef8:	c7 85 e4 fe ff ff 05 	movl   $0x5,-0x11c(%rbp)
    9eff:	00 00 00 
    9f02:	c7 85 e8 fe ff ff 05 	movl   $0x5,-0x118(%rbp)
    9f09:	00 00 00 
    9f0c:	c7 85 ec fe ff ff 81 	movl   $0xc066e181,-0x114(%rbp)
    9f13:	e1 66 c0 
    9f16:	c7 85 f0 fe ff ff 05 	movl   $0x5,-0x110(%rbp)
    9f1d:	00 00 00 
    9f20:	c7 85 f4 fe ff ff 05 	movl   $0x5,-0x10c(%rbp)
    9f27:	00 00 00 
    9f2a:	c7 85 f8 fe ff ff 81 	movl   $0xc066e181,-0x108(%rbp)
    9f31:	e1 66 c0 
    9f34:	c7 85 fc fe ff ff 05 	movl   $0x5,-0x104(%rbp)
    9f3b:	00 00 00 
    9f3e:	c7 85 00 ff ff ff 05 	movl   $0x5,-0x100(%rbp)
    9f45:	00 00 00 
    9f48:	66 c7 85 be fe ff ff 	movw   $0xfffb,-0x142(%rbp)
    9f4f:	fb ff 
    9f51:	c7 85 c4 fe ff ff 29 	movl   $0xb192f129,-0x13c(%rbp)
    9f58:	f1 92 b1 
    9f5b:	48 8b 05 3e 81 00 00 	mov    0x813e(%rip),%rax        # 120a0 <g_31>
    9f62:	0f b7 00             	movzwl (%rax),%eax
    9f65:	83 c8 fa             	or     $0xfffffffa,%eax
    9f68:	89 c2                	mov    %eax,%edx
    9f6a:	48 8b 85 c8 fe ff ff 	mov    -0x138(%rbp),%rax
    9f71:	66 89 10             	mov    %dx,(%rax)
    9f74:	b8 01 00 00 00       	mov    $0x1,%eax
    9f79:	0f b7 c0             	movzwl %ax,%eax
    9f7c:	be 02 00 00 00       	mov    $0x2,%esi
    9f81:	89 c7                	mov    %eax,%edi
    9f83:	e8 97 ad ff ff       	callq  4d1f <safe_sub_func_uint16_t_u_u>
    9f88:	0f b7 c0             	movzwl %ax,%eax
    9f8b:	89 c6                	mov    %eax,%esi
    9f8d:	bf 07 00 00 00       	mov    $0x7,%edi
    9f92:	e8 f6 ac ff ff       	callq  4c8d <safe_rshift_func_uint8_t_u_s>
    9f97:	0f b6 c0             	movzbl %al,%eax
    9f9a:	09 85 c4 fe ff ff    	or     %eax,-0x13c(%rbp)
    9fa0:	48 8b 45 d8          	mov    -0x28(%rbp),%rax
    9fa4:	48 8b 4d f8          	mov    -0x8(%rbp),%rcx
    9fa8:	64 48 33 0c 25 28 00 	xor    %fs:0x28,%rcx
    9faf:	00 00 
    9fb1:	74 05                	je     9fb8 <func_166+0x2a1>
    9fb3:	e8 b8 a0 ff ff       	callq  4070 <__stack_chk_fail@plt>
    9fb8:	c9                   	leaveq 
    9fb9:	c3                   	retq   

0000000000009fba <main>:
    9fba:	f3 0f 1e fa          	endbr64 
    9fbe:	55                   	push   %rbp
    9fbf:	48 89 e5             	mov    %rsp,%rbp
    9fc2:	48 83 ec 20          	sub    $0x20,%rsp
    9fc6:	89 7d ec             	mov    %edi,-0x14(%rbp)
    9fc9:	48 89 75 e0          	mov    %rsi,-0x20(%rbp)
    9fcd:	c7 45 fc 00 00 00 00 	movl   $0x0,-0x4(%rbp)
    9fd4:	83 7d ec 02          	cmpl   $0x2,-0x14(%rbp)
    9fd8:	75 25                	jne    9fff <main+0x45>
    9fda:	48 8b 45 e0          	mov    -0x20(%rbp),%rax
    9fde:	48 83 c0 08          	add    $0x8,%rax
    9fe2:	48 8b 00             	mov    (%rax),%rax
    9fe5:	48 8d 35 c4 29 00 00 	lea    0x29c4(%rip),%rsi        # c9b0 <_IO_stdin_used+0x9b0>
    9fec:	48 89 c7             	mov    %rax,%rdi
    9fef:	e8 9c a0 ff ff       	callq  4090 <strcmp@plt>
    9ff4:	85 c0                	test   %eax,%eax
    9ff6:	75 07                	jne    9fff <main+0x45>
    9ff8:	c7 45 fc 01 00 00 00 	movl   $0x1,-0x4(%rbp)
    9fff:	e8 85 a1 ff ff       	callq  4189 <platform_main_begin>
    a004:	e8 8f b5 ff ff       	callq  5598 <crc32_gentab>
    a009:	e8 a7 b7 ff ff       	callq  57b5 <func_1>
    a00e:	48 8b 05 13 60 00 00 	mov    0x6013(%rip),%rax        # 10028 <g_24>
    a015:	8b 55 fc             	mov    -0x4(%rbp),%edx
    a018:	48 8d 35 93 29 00 00 	lea    0x2993(%rip),%rsi        # c9b2 <_IO_stdin_used+0x9b2>
    a01f:	48 89 c7             	mov    %rax,%rdi
    a022:	e8 cc b6 ff ff       	callq  56f3 <transparent_crc>
    a027:	0f b7 05 02 60 00 00 	movzwl 0x6002(%rip),%eax        # 10030 <g_28>
    a02e:	48 0f bf c0          	movswq %ax,%rax
    a032:	8b 55 fc             	mov    -0x4(%rbp),%edx
    a035:	48 8d 35 7b 29 00 00 	lea    0x297b(%rip),%rsi        # c9b7 <_IO_stdin_used+0x9b7>
    a03c:	48 89 c7             	mov    %rax,%rdi
    a03f:	e8 af b6 ff ff       	callq  56f3 <transparent_crc>
    a044:	c7 45 f0 00 00 00 00 	movl   $0x0,-0x10(%rbp)
    a04b:	e9 a7 00 00 00       	jmpq   a0f7 <main+0x13d>
    a050:	c7 45 f4 00 00 00 00 	movl   $0x0,-0xc(%rbp)
    a057:	e9 8d 00 00 00       	jmpq   a0e9 <main+0x12f>
    a05c:	c7 45 f8 00 00 00 00 	movl   $0x0,-0x8(%rbp)
    a063:	eb 7a                	jmp    a0df <main+0x125>
    a065:	8b 45 f8             	mov    -0x8(%rbp),%eax
    a068:	48 63 f0             	movslq %eax,%rsi
    a06b:	8b 45 f0             	mov    -0x10(%rbp),%eax
    a06e:	48 63 d0             	movslq %eax,%rdx
    a071:	8b 45 f4             	mov    -0xc(%rbp),%eax
    a074:	48 63 c8             	movslq %eax,%rcx
    a077:	48 89 d0             	mov    %rdx,%rax
    a07a:	48 c1 e0 04          	shl    $0x4,%rax
    a07e:	48 29 d0             	sub    %rdx,%rax
    a081:	48 01 c0             	add    %rax,%rax
    a084:	48 89 ca             	mov    %rcx,%rdx
    a087:	48 c1 e2 02          	shl    $0x2,%rdx
    a08b:	48 01 ca             	add    %rcx,%rdx
    a08e:	48 01 d0             	add    %rdx,%rax
    a091:	48 01 f0             	add    %rsi,%rax
    a094:	48 8d 14 00          	lea    (%rax,%rax,1),%rdx
    a098:	48 8d 05 a1 5f 00 00 	lea    0x5fa1(%rip),%rax        # 10040 <g_32>
    a09f:	0f b7 04 02          	movzwl (%rdx,%rax,1),%eax
    a0a3:	48 0f bf c0          	movswq %ax,%rax
    a0a7:	8b 55 fc             	mov    -0x4(%rbp),%edx
    a0aa:	48 8d 35 0b 29 00 00 	lea    0x290b(%rip),%rsi        # c9bc <_IO_stdin_used+0x9bc>
    a0b1:	48 89 c7             	mov    %rax,%rdi
    a0b4:	e8 3a b6 ff ff       	callq  56f3 <transparent_crc>
    a0b9:	83 7d fc 00          	cmpl   $0x0,-0x4(%rbp)
    a0bd:	74 1c                	je     a0db <main+0x121>
    a0bf:	8b 4d f8             	mov    -0x8(%rbp),%ecx
    a0c2:	8b 55 f4             	mov    -0xc(%rbp),%edx
    a0c5:	8b 45 f0             	mov    -0x10(%rbp),%eax
    a0c8:	89 c6                	mov    %eax,%esi
    a0ca:	48 8d 3d f9 28 00 00 	lea    0x28f9(%rip),%rdi        # c9ca <_IO_stdin_used+0x9ca>
    a0d1:	b8 00 00 00 00       	mov    $0x0,%eax
    a0d6:	e8 a5 9f ff ff       	callq  4080 <printf@plt>
    a0db:	83 45 f8 01          	addl   $0x1,-0x8(%rbp)
    a0df:	83 7d f8 04          	cmpl   $0x4,-0x8(%rbp)
    a0e3:	7e 80                	jle    a065 <main+0xab>
    a0e5:	83 45 f4 01          	addl   $0x1,-0xc(%rbp)
    a0e9:	83 7d f4 05          	cmpl   $0x5,-0xc(%rbp)
    a0ed:	0f 8e 69 ff ff ff    	jle    a05c <main+0xa2>
    a0f3:	83 45 f0 01          	addl   $0x1,-0x10(%rbp)
    a0f7:	83 7d f0 07          	cmpl   $0x7,-0x10(%rbp)
    a0fb:	0f 8e 4f ff ff ff    	jle    a050 <main+0x96>
    a101:	48 8b 05 18 61 00 00 	mov    0x6118(%rip),%rax        # 10220 <g_46>
    a108:	48 89 c1             	mov    %rax,%rcx
    a10b:	8b 45 fc             	mov    -0x4(%rbp),%eax
    a10e:	89 c2                	mov    %eax,%edx
    a110:	48 8d 35 c9 28 00 00 	lea    0x28c9(%rip),%rsi        # c9e0 <_IO_stdin_used+0x9e0>
    a117:	48 89 cf             	mov    %rcx,%rdi
    a11a:	e8 d4 b5 ff ff       	callq  56f3 <transparent_crc>
    a11f:	0f b6 05 02 61 00 00 	movzbl 0x6102(%rip),%eax        # 10228 <g_46+0x8>
    a126:	48 0f be c0          	movsbq %al,%rax
    a12a:	8b 55 fc             	mov    -0x4(%rbp),%edx
    a12d:	48 8d 35 b4 28 00 00 	lea    0x28b4(%rip),%rsi        # c9e8 <_IO_stdin_used+0x9e8>
    a134:	48 89 c7             	mov    %rax,%rdi
    a137:	e8 b7 b5 ff ff       	callq  56f3 <transparent_crc>
    a13c:	0f b6 05 e6 60 00 00 	movzbl 0x60e6(%rip),%eax        # 10229 <g_46+0x9>
    a143:	0f b6 c0             	movzbl %al,%eax
    a146:	8b 55 fc             	mov    -0x4(%rbp),%edx
    a149:	48 8d 35 a0 28 00 00 	lea    0x28a0(%rip),%rsi        # c9f0 <_IO_stdin_used+0x9f0>
    a150:	48 89 c7             	mov    %rax,%rdi
    a153:	e8 9b b5 ff ff       	callq  56f3 <transparent_crc>
    a158:	8b 05 ce 60 00 00    	mov    0x60ce(%rip),%eax        # 1022c <g_48>
    a15e:	48 98                	cltq   
    a160:	8b 55 fc             	mov    -0x4(%rbp),%edx
    a163:	48 8d 35 8e 28 00 00 	lea    0x288e(%rip),%rsi        # c9f8 <_IO_stdin_used+0x9f8>
    a16a:	48 89 c7             	mov    %rax,%rdi
    a16d:	e8 81 b5 ff ff       	callq  56f3 <transparent_crc>
    a172:	8b 05 b8 60 00 00    	mov    0x60b8(%rip),%eax        # 10230 <g_63>
    a178:	48 98                	cltq   
    a17a:	8b 55 fc             	mov    -0x4(%rbp),%edx
    a17d:	48 8d 35 79 28 00 00 	lea    0x2879(%rip),%rsi        # c9fd <_IO_stdin_used+0x9fd>
    a184:	48 89 c7             	mov    %rax,%rdi
    a187:	e8 67 b5 ff ff       	callq  56f3 <transparent_crc>
    a18c:	0f b7 05 a1 60 00 00 	movzwl 0x60a1(%rip),%eax        # 10234 <g_64>
    a193:	0f b7 c0             	movzwl %ax,%eax
    a196:	8b 55 fc             	mov    -0x4(%rbp),%edx
    a199:	48 8d 35 62 28 00 00 	lea    0x2862(%rip),%rsi        # ca02 <_IO_stdin_used+0xa02>
    a1a0:	48 89 c7             	mov    %rax,%rdi
    a1a3:	e8 4b b5 ff ff       	callq  56f3 <transparent_crc>
    a1a8:	48 8b 05 89 60 00 00 	mov    0x6089(%rip),%rax        # 10238 <g_70>
    a1af:	48 89 c1             	mov    %rax,%rcx
    a1b2:	8b 45 fc             	mov    -0x4(%rbp),%eax
    a1b5:	89 c2                	mov    %eax,%edx
    a1b7:	48 8d 35 49 28 00 00 	lea    0x2849(%rip),%rsi        # ca07 <_IO_stdin_used+0xa07>
    a1be:	48 89 cf             	mov    %rcx,%rdi
    a1c1:	e8 2d b5 ff ff       	callq  56f3 <transparent_crc>
    a1c6:	0f b6 05 73 60 00 00 	movzbl 0x6073(%rip),%eax        # 10240 <g_70+0x8>
    a1cd:	48 0f be c0          	movsbq %al,%rax
    a1d1:	8b 55 fc             	mov    -0x4(%rbp),%edx
    a1d4:	48 8d 35 34 28 00 00 	lea    0x2834(%rip),%rsi        # ca0f <_IO_stdin_used+0xa0f>
    a1db:	48 89 c7             	mov    %rax,%rdi
    a1de:	e8 10 b5 ff ff       	callq  56f3 <transparent_crc>
    a1e3:	0f b6 05 57 60 00 00 	movzbl 0x6057(%rip),%eax        # 10241 <g_70+0x9>
    a1ea:	0f b6 c0             	movzbl %al,%eax
    a1ed:	8b 55 fc             	mov    -0x4(%rbp),%edx
    a1f0:	48 8d 35 20 28 00 00 	lea    0x2820(%rip),%rsi        # ca17 <_IO_stdin_used+0xa17>
    a1f7:	48 89 c7             	mov    %rax,%rdi
    a1fa:	e8 f4 b4 ff ff       	callq  56f3 <transparent_crc>
    a1ff:	48 8b 05 42 60 00 00 	mov    0x6042(%rip),%rax        # 10248 <g_75>
    a206:	48 89 c1             	mov    %rax,%rcx
    a209:	8b 45 fc             	mov    -0x4(%rbp),%eax
    a20c:	89 c2                	mov    %eax,%edx
    a20e:	48 8d 35 0a 28 00 00 	lea    0x280a(%rip),%rsi        # ca1f <_IO_stdin_used+0xa1f>
    a215:	48 89 cf             	mov    %rcx,%rdi
    a218:	e8 d6 b4 ff ff       	callq  56f3 <transparent_crc>
    a21d:	c7 45 f0 00 00 00 00 	movl   $0x0,-0x10(%rbp)
    a224:	e9 b7 00 00 00       	jmpq   a2e0 <main+0x326>
    a229:	c7 45 f4 00 00 00 00 	movl   $0x0,-0xc(%rbp)
    a230:	e9 9d 00 00 00       	jmpq   a2d2 <main+0x318>
    a235:	c7 45 f8 00 00 00 00 	movl   $0x0,-0x8(%rbp)
    a23c:	e9 83 00 00 00       	jmpq   a2c4 <main+0x30a>
    a241:	8b 45 f8             	mov    -0x8(%rbp),%eax
    a244:	48 63 f0             	movslq %eax,%rsi
    a247:	8b 45 f0             	mov    -0x10(%rbp),%eax
    a24a:	48 98                	cltq   
    a24c:	8b 55 f4             	mov    -0xc(%rbp),%edx
    a24f:	48 63 ca             	movslq %edx,%rcx
    a252:	48 89 c2             	mov    %rax,%rdx
    a255:	48 01 d2             	add    %rdx,%rdx
    a258:	48 01 c2             	add    %rax,%rdx
    a25b:	48 8d 04 d5 00 00 00 	lea    0x0(,%rdx,8),%rax
    a262:	00 
    a263:	48 89 c2             	mov    %rax,%rdx
    a266:	48 89 c8             	mov    %rcx,%rax
    a269:	48 01 c0             	add    %rax,%rax
    a26c:	48 01 c8             	add    %rcx,%rax
    a26f:	48 01 c0             	add    %rax,%rax
    a272:	48 01 d0             	add    %rdx,%rax
    a275:	48 01 f0             	add    %rsi,%rax
    a278:	48 8d 14 85 00 00 00 	lea    0x0(,%rax,4),%rdx
    a27f:	00 
    a280:	48 8d 05 d9 5f 00 00 	lea    0x5fd9(%rip),%rax        # 10260 <g_76>
    a287:	8b 04 02             	mov    (%rdx,%rax,1),%eax
    a28a:	48 98                	cltq   
    a28c:	8b 55 fc             	mov    -0x4(%rbp),%edx
    a28f:	48 8d 35 8e 27 00 00 	lea    0x278e(%rip),%rsi        # ca24 <_IO_stdin_used+0xa24>
    a296:	48 89 c7             	mov    %rax,%rdi
    a299:	e8 55 b4 ff ff       	callq  56f3 <transparent_crc>
    a29e:	83 7d fc 00          	cmpl   $0x0,-0x4(%rbp)
    a2a2:	74 1c                	je     a2c0 <main+0x306>
    a2a4:	8b 4d f8             	mov    -0x8(%rbp),%ecx
    a2a7:	8b 55 f4             	mov    -0xc(%rbp),%edx
    a2aa:	8b 45 f0             	mov    -0x10(%rbp),%eax
    a2ad:	89 c6                	mov    %eax,%esi
    a2af:	48 8d 3d 14 27 00 00 	lea    0x2714(%rip),%rdi        # c9ca <_IO_stdin_used+0x9ca>
    a2b6:	b8 00 00 00 00       	mov    $0x0,%eax
    a2bb:	e8 c0 9d ff ff       	callq  4080 <printf@plt>
    a2c0:	83 45 f8 01          	addl   $0x1,-0x8(%rbp)
    a2c4:	83 7d f8 05          	cmpl   $0x5,-0x8(%rbp)
    a2c8:	0f 8e 73 ff ff ff    	jle    a241 <main+0x287>
    a2ce:	83 45 f4 01          	addl   $0x1,-0xc(%rbp)
    a2d2:	83 7d f4 03          	cmpl   $0x3,-0xc(%rbp)
    a2d6:	0f 8e 59 ff ff ff    	jle    a235 <main+0x27b>
    a2dc:	83 45 f0 01          	addl   $0x1,-0x10(%rbp)
    a2e0:	83 7d f0 08          	cmpl   $0x8,-0x10(%rbp)
    a2e4:	0f 8e 3f ff ff ff    	jle    a229 <main+0x26f>
    a2ea:	8b 05 60 88 00 00    	mov    0x8860(%rip),%eax        # 12b50 <g_82>
    a2f0:	89 c1                	mov    %eax,%ecx
    a2f2:	8b 45 fc             	mov    -0x4(%rbp),%eax
    a2f5:	89 c2                	mov    %eax,%edx
    a2f7:	48 8d 35 34 27 00 00 	lea    0x2734(%rip),%rsi        # ca32 <_IO_stdin_used+0xa32>
    a2fe:	48 89 cf             	mov    %rcx,%rdi
    a301:	e8 ed b3 ff ff       	callq  56f3 <transparent_crc>
    a306:	c7 45 f0 00 00 00 00 	movl   $0x0,-0x10(%rbp)
    a30d:	eb 75                	jmp    a384 <main+0x3ca>
    a30f:	c7 45 f4 00 00 00 00 	movl   $0x0,-0xc(%rbp)
    a316:	eb 62                	jmp    a37a <main+0x3c0>
    a318:	8b 45 f4             	mov    -0xc(%rbp),%eax
    a31b:	48 63 c8             	movslq %eax,%rcx
    a31e:	8b 45 f0             	mov    -0x10(%rbp),%eax
    a321:	48 63 d0             	movslq %eax,%rdx
    a324:	48 89 d0             	mov    %rdx,%rax
    a327:	48 c1 e0 03          	shl    $0x3,%rax
    a32b:	48 01 d0             	add    %rdx,%rax
    a32e:	48 01 c8             	add    %rcx,%rax
    a331:	48 8d 14 85 00 00 00 	lea    0x0(,%rax,4),%rdx
    a338:	00 
    a339:	48 8d 05 80 62 00 00 	lea    0x6280(%rip),%rax        # 105c0 <g_130>
    a340:	8b 04 02             	mov    (%rdx,%rax,1),%eax
    a343:	48 98                	cltq   
    a345:	8b 55 fc             	mov    -0x4(%rbp),%edx
    a348:	48 8d 35 e8 26 00 00 	lea    0x26e8(%rip),%rsi        # ca37 <_IO_stdin_used+0xa37>
    a34f:	48 89 c7             	mov    %rax,%rdi
    a352:	e8 9c b3 ff ff       	callq  56f3 <transparent_crc>
    a357:	83 7d fc 00          	cmpl   $0x0,-0x4(%rbp)
    a35b:	74 19                	je     a376 <main+0x3bc>
    a35d:	8b 55 f4             	mov    -0xc(%rbp),%edx
    a360:	8b 45 f0             	mov    -0x10(%rbp),%eax
    a363:	89 c6                	mov    %eax,%esi
    a365:	48 8d 3d d7 26 00 00 	lea    0x26d7(%rip),%rdi        # ca43 <_IO_stdin_used+0xa43>
    a36c:	b8 00 00 00 00       	mov    $0x0,%eax
    a371:	e8 0a 9d ff ff       	callq  4080 <printf@plt>
    a376:	83 45 f4 01          	addl   $0x1,-0xc(%rbp)
    a37a:	83 7d f4 08          	cmpl   $0x8,-0xc(%rbp)
    a37e:	7e 98                	jle    a318 <main+0x35e>
    a380:	83 45 f0 01          	addl   $0x1,-0x10(%rbp)
    a384:	83 7d f0 03          	cmpl   $0x3,-0x10(%rbp)
    a388:	7e 85                	jle    a30f <main+0x355>
    a38a:	0f b6 05 c3 87 00 00 	movzbl 0x87c3(%rip),%eax        # 12b54 <g_147>
    a391:	0f b6 c0             	movzbl %al,%eax
    a394:	8b 55 fc             	mov    -0x4(%rbp),%edx
    a397:	48 8d 35 b7 26 00 00 	lea    0x26b7(%rip),%rsi        # ca55 <_IO_stdin_used+0xa55>
    a39e:	48 89 c7             	mov    %rax,%rdi
    a3a1:	e8 4d b3 ff ff       	callq  56f3 <transparent_crc>
    a3a6:	c7 45 f0 00 00 00 00 	movl   $0x0,-0x10(%rbp)
    a3ad:	e9 9c 00 00 00       	jmpq   a44e <main+0x494>
    a3b2:	c7 45 f4 00 00 00 00 	movl   $0x0,-0xc(%rbp)
    a3b9:	e9 82 00 00 00       	jmpq   a440 <main+0x486>
    a3be:	c7 45 f8 00 00 00 00 	movl   $0x0,-0x8(%rbp)
    a3c5:	eb 6f                	jmp    a436 <main+0x47c>
    a3c7:	8b 45 f8             	mov    -0x8(%rbp),%eax
    a3ca:	48 63 c8             	movslq %eax,%rcx
    a3cd:	8b 45 f0             	mov    -0x10(%rbp),%eax
    a3d0:	48 63 d0             	movslq %eax,%rdx
    a3d3:	8b 45 f4             	mov    -0xc(%rbp),%eax
    a3d6:	48 98                	cltq   
    a3d8:	48 01 c2             	add    %rax,%rdx
    a3db:	48 89 d0             	mov    %rdx,%rax
    a3de:	48 c1 e0 03          	shl    $0x3,%rax
    a3e2:	48 29 d0             	sub    %rdx,%rax
    a3e5:	48 01 c8             	add    %rcx,%rax
    a3e8:	48 8d 14 85 00 00 00 	lea    0x0(,%rax,4),%rdx
    a3ef:	00 
    a3f0:	48 8d 05 69 62 00 00 	lea    0x6269(%rip),%rax        # 10660 <g_188>
    a3f7:	8b 04 02             	mov    (%rdx,%rax,1),%eax
    a3fa:	89 c1                	mov    %eax,%ecx
    a3fc:	8b 45 fc             	mov    -0x4(%rbp),%eax
    a3ff:	89 c2                	mov    %eax,%edx
    a401:	48 8d 35 53 26 00 00 	lea    0x2653(%rip),%rsi        # ca5b <_IO_stdin_used+0xa5b>
    a408:	48 89 cf             	mov    %rcx,%rdi
    a40b:	e8 e3 b2 ff ff       	callq  56f3 <transparent_crc>
    a410:	83 7d fc 00          	cmpl   $0x0,-0x4(%rbp)
    a414:	74 1c                	je     a432 <main+0x478>
    a416:	8b 4d f8             	mov    -0x8(%rbp),%ecx
    a419:	8b 55 f4             	mov    -0xc(%rbp),%edx
    a41c:	8b 45 f0             	mov    -0x10(%rbp),%eax
    a41f:	89 c6                	mov    %eax,%esi
    a421:	48 8d 3d a2 25 00 00 	lea    0x25a2(%rip),%rdi        # c9ca <_IO_stdin_used+0x9ca>
    a428:	b8 00 00 00 00       	mov    $0x0,%eax
    a42d:	e8 4e 9c ff ff       	callq  4080 <printf@plt>
    a432:	83 45 f8 01          	addl   $0x1,-0x8(%rbp)
    a436:	83 7d f8 06          	cmpl   $0x6,-0x8(%rbp)
    a43a:	7e 8b                	jle    a3c7 <main+0x40d>
    a43c:	83 45 f4 01          	addl   $0x1,-0xc(%rbp)
    a440:	83 7d f4 00          	cmpl   $0x0,-0xc(%rbp)
    a444:	0f 8e 74 ff ff ff    	jle    a3be <main+0x404>
    a44a:	83 45 f0 01          	addl   $0x1,-0x10(%rbp)
    a44e:	83 7d f0 06          	cmpl   $0x6,-0x10(%rbp)
    a452:	0f 8e 5a ff ff ff    	jle    a3b2 <main+0x3f8>
    a458:	48 8b 05 d1 62 00 00 	mov    0x62d1(%rip),%rax        # 10730 <g_192>
    a45f:	25 ff ff 1f 00       	and    $0x1fffff,%eax
    a464:	89 c1                	mov    %eax,%ecx
    a466:	8b 45 fc             	mov    -0x4(%rbp),%eax
    a469:	89 c2                	mov    %eax,%edx
    a46b:	48 8d 35 f8 25 00 00 	lea    0x25f8(%rip),%rsi        # ca6a <_IO_stdin_used+0xa6a>
    a472:	48 89 cf             	mov    %rcx,%rdi
    a475:	e8 79 b2 ff ff       	callq  56f3 <transparent_crc>
    a47a:	8b 05 b4 62 00 00    	mov    0x62b4(%rip),%eax        # 10734 <g_192+0x4>
    a480:	25 ff ff ff 07       	and    $0x7ffffff,%eax
    a485:	89 c1                	mov    %eax,%ecx
    a487:	8b 45 fc             	mov    -0x4(%rbp),%eax
    a48a:	89 c2                	mov    %eax,%edx
    a48c:	48 8d 35 e0 25 00 00 	lea    0x25e0(%rip),%rsi        # ca73 <_IO_stdin_used+0xa73>
    a493:	48 89 cf             	mov    %rcx,%rdi
    a496:	e8 58 b2 ff ff       	callq  56f3 <transparent_crc>
    a49b:	8b 05 97 62 00 00    	mov    0x6297(%rip),%eax        # 10738 <g_192+0x8>
    a4a1:	c1 e0 08             	shl    $0x8,%eax
    a4a4:	c1 f8 08             	sar    $0x8,%eax
    a4a7:	48 98                	cltq   
    a4a9:	8b 55 fc             	mov    -0x4(%rbp),%edx
    a4ac:	48 8d 35 c9 25 00 00 	lea    0x25c9(%rip),%rsi        # ca7c <_IO_stdin_used+0xa7c>
    a4b3:	48 89 c7             	mov    %rax,%rdi
    a4b6:	e8 38 b2 ff ff       	callq  56f3 <transparent_crc>
    a4bb:	0f b6 05 79 62 00 00 	movzbl 0x6279(%rip),%eax        # 1073b <g_192+0xb>
    a4c2:	c1 e0 04             	shl    $0x4,%eax
    a4c5:	c0 f8 04             	sar    $0x4,%al
    a4c8:	48 0f be c0          	movsbq %al,%rax
    a4cc:	8b 55 fc             	mov    -0x4(%rbp),%edx
    a4cf:	48 8d 35 af 25 00 00 	lea    0x25af(%rip),%rsi        # ca85 <_IO_stdin_used+0xa85>
    a4d6:	48 89 c7             	mov    %rax,%rdi
    a4d9:	e8 15 b2 ff ff       	callq  56f3 <transparent_crc>
    a4de:	48 8b 05 53 62 00 00 	mov    0x6253(%rip),%rax        # 10738 <g_192+0x8>
    a4e5:	48 c1 e0 07          	shl    $0x7,%rax
    a4e9:	48 c1 f8 27          	sar    $0x27,%rax
    a4ed:	48 98                	cltq   
    a4ef:	8b 55 fc             	mov    -0x4(%rbp),%edx
    a4f2:	48 8d 35 95 25 00 00 	lea    0x2595(%rip),%rsi        # ca8e <_IO_stdin_used+0xa8e>
    a4f9:	48 89 c7             	mov    %rax,%rdi
    a4fc:	e8 f2 b1 ff ff       	callq  56f3 <transparent_crc>
    a501:	48 8b 05 38 62 00 00 	mov    0x6238(%rip),%rax        # 10740 <g_192+0x10>
    a508:	c1 e0 0d             	shl    $0xd,%eax
    a50b:	c1 f8 0d             	sar    $0xd,%eax
    a50e:	48 98                	cltq   
    a510:	8b 55 fc             	mov    -0x4(%rbp),%edx
    a513:	48 8d 35 7d 25 00 00 	lea    0x257d(%rip),%rsi        # ca97 <_IO_stdin_used+0xa97>
    a51a:	48 89 c7             	mov    %rax,%rdi
    a51d:	e8 d1 b1 ff ff       	callq  56f3 <transparent_crc>
    a522:	8b 05 1c 62 00 00    	mov    0x621c(%rip),%eax        # 10744 <g_192+0x14>
    a528:	25 ff ff 03 00       	and    $0x3ffff,%eax
    a52d:	89 c1                	mov    %eax,%ecx
    a52f:	8b 45 fc             	mov    -0x4(%rbp),%eax
    a532:	89 c2                	mov    %eax,%edx
    a534:	48 8d 35 65 25 00 00 	lea    0x2565(%rip),%rsi        # caa0 <_IO_stdin_used+0xaa0>
    a53b:	48 89 cf             	mov    %rcx,%rdi
    a53e:	e8 b0 b1 ff ff       	callq  56f3 <transparent_crc>
    a543:	48 8b 05 fe 61 00 00 	mov    0x61fe(%rip),%rax        # 10748 <g_192+0x18>
    a54a:	25 ff ff 1f 00       	and    $0x1fffff,%eax
    a54f:	89 c1                	mov    %eax,%ecx
    a551:	8b 45 fc             	mov    -0x4(%rbp),%eax
    a554:	89 c2                	mov    %eax,%edx
    a556:	48 8d 35 4c 25 00 00 	lea    0x254c(%rip),%rsi        # caa9 <_IO_stdin_used+0xaa9>
    a55d:	48 89 cf             	mov    %rcx,%rdi
    a560:	e8 8e b1 ff ff       	callq  56f3 <transparent_crc>
    a565:	0f b6 05 de 61 00 00 	movzbl 0x61de(%rip),%eax        # 1074a <g_192+0x1a>
    a56c:	01 c0                	add    %eax,%eax
    a56e:	c0 f8 06             	sar    $0x6,%al
    a571:	48 0f be c0          	movsbq %al,%rax
    a575:	8b 55 fc             	mov    -0x4(%rbp),%edx
    a578:	48 8d 35 33 25 00 00 	lea    0x2533(%rip),%rsi        # cab2 <_IO_stdin_used+0xab2>
    a57f:	48 89 c7             	mov    %rax,%rdi
    a582:	e8 6c b1 ff ff       	callq  56f3 <transparent_crc>
    a587:	0f b7 05 bc 61 00 00 	movzwl 0x61bc(%rip),%eax        # 1074a <g_192+0x1a>
    a58e:	66 c1 e8 07          	shr    $0x7,%ax
    a592:	83 e0 03             	and    $0x3,%eax
    a595:	0f b6 c0             	movzbl %al,%eax
    a598:	8b 55 fc             	mov    -0x4(%rbp),%edx
    a59b:	48 8d 35 19 25 00 00 	lea    0x2519(%rip),%rsi        # cabb <_IO_stdin_used+0xabb>
    a5a2:	48 89 c7             	mov    %rax,%rdi
    a5a5:	e8 49 b1 ff ff       	callq  56f3 <transparent_crc>
    a5aa:	c7 45 f0 00 00 00 00 	movl   $0x0,-0x10(%rbp)
    a5b1:	e9 7f 02 00 00       	jmpq   a835 <main+0x87b>
    a5b6:	8b 45 f0             	mov    -0x10(%rbp),%eax
    a5b9:	48 63 d0             	movslq %eax,%rdx
    a5bc:	48 89 d0             	mov    %rdx,%rax
    a5bf:	48 c1 e0 03          	shl    $0x3,%rax
    a5c3:	48 29 d0             	sub    %rdx,%rax
    a5c6:	48 c1 e0 02          	shl    $0x2,%rax
    a5ca:	48 89 c2             	mov    %rax,%rdx
    a5cd:	48 8d 05 8c 61 00 00 	lea    0x618c(%rip),%rax        # 10760 <g_216>
    a5d4:	8b 04 02             	mov    (%rdx,%rax,1),%eax
    a5d7:	25 ff ff 1f 00       	and    $0x1fffff,%eax
    a5dc:	89 c1                	mov    %eax,%ecx
    a5de:	8b 45 fc             	mov    -0x4(%rbp),%eax
    a5e1:	89 c2                	mov    %eax,%edx
    a5e3:	48 8d 35 da 24 00 00 	lea    0x24da(%rip),%rsi        # cac4 <_IO_stdin_used+0xac4>
    a5ea:	48 89 cf             	mov    %rcx,%rdi
    a5ed:	e8 01 b1 ff ff       	callq  56f3 <transparent_crc>
    a5f2:	8b 45 f0             	mov    -0x10(%rbp),%eax
    a5f5:	48 63 d0             	movslq %eax,%rdx
    a5f8:	48 89 d0             	mov    %rdx,%rax
    a5fb:	48 c1 e0 03          	shl    $0x3,%rax
    a5ff:	48 29 d0             	sub    %rdx,%rax
    a602:	48 c1 e0 02          	shl    $0x2,%rax
    a606:	48 89 c2             	mov    %rax,%rdx
    a609:	48 8d 05 50 61 00 00 	lea    0x6150(%rip),%rax        # 10760 <g_216>
    a610:	8b 44 02 04          	mov    0x4(%rdx,%rax,1),%eax
    a614:	25 ff ff ff 07       	and    $0x7ffffff,%eax
    a619:	89 c1                	mov    %eax,%ecx
    a61b:	8b 45 fc             	mov    -0x4(%rbp),%eax
    a61e:	89 c2                	mov    %eax,%edx
    a620:	48 8d 35 a9 24 00 00 	lea    0x24a9(%rip),%rsi        # cad0 <_IO_stdin_used+0xad0>
    a627:	48 89 cf             	mov    %rcx,%rdi
    a62a:	e8 c4 b0 ff ff       	callq  56f3 <transparent_crc>
    a62f:	8b 45 f0             	mov    -0x10(%rbp),%eax
    a632:	48 63 d0             	movslq %eax,%rdx
    a635:	48 89 d0             	mov    %rdx,%rax
    a638:	48 c1 e0 03          	shl    $0x3,%rax
    a63c:	48 29 d0             	sub    %rdx,%rax
    a63f:	48 c1 e0 02          	shl    $0x2,%rax
    a643:	48 89 c2             	mov    %rax,%rdx
    a646:	48 8d 05 13 61 00 00 	lea    0x6113(%rip),%rax        # 10760 <g_216>
    a64d:	8b 44 02 08          	mov    0x8(%rdx,%rax,1),%eax
    a651:	c1 e0 08             	shl    $0x8,%eax
    a654:	c1 f8 08             	sar    $0x8,%eax
    a657:	48 98                	cltq   
    a659:	8b 55 fc             	mov    -0x4(%rbp),%edx
    a65c:	48 8d 35 79 24 00 00 	lea    0x2479(%rip),%rsi        # cadc <_IO_stdin_used+0xadc>
    a663:	48 89 c7             	mov    %rax,%rdi
    a666:	e8 88 b0 ff ff       	callq  56f3 <transparent_crc>
    a66b:	8b 45 f0             	mov    -0x10(%rbp),%eax
    a66e:	48 63 d0             	movslq %eax,%rdx
    a671:	48 89 d0             	mov    %rdx,%rax
    a674:	48 c1 e0 03          	shl    $0x3,%rax
    a678:	48 29 d0             	sub    %rdx,%rax
    a67b:	48 c1 e0 02          	shl    $0x2,%rax
    a67f:	48 89 c2             	mov    %rax,%rdx
    a682:	48 8d 05 d7 60 00 00 	lea    0x60d7(%rip),%rax        # 10760 <g_216>
    a689:	8b 44 02 08          	mov    0x8(%rdx,%rax,1),%eax
    a68d:	c1 e0 04             	shl    $0x4,%eax
    a690:	c1 f8 1c             	sar    $0x1c,%eax
    a693:	48 0f be c0          	movsbq %al,%rax
    a697:	8b 55 fc             	mov    -0x4(%rbp),%edx
    a69a:	48 8d 35 47 24 00 00 	lea    0x2447(%rip),%rsi        # cae8 <_IO_stdin_used+0xae8>
    a6a1:	48 89 c7             	mov    %rax,%rdi
    a6a4:	e8 4a b0 ff ff       	callq  56f3 <transparent_crc>
    a6a9:	8b 45 f0             	mov    -0x10(%rbp),%eax
    a6ac:	48 63 d0             	movslq %eax,%rdx
    a6af:	48 89 d0             	mov    %rdx,%rax
    a6b2:	48 c1 e0 03          	shl    $0x3,%rax
    a6b6:	48 29 d0             	sub    %rdx,%rax
    a6b9:	48 c1 e0 02          	shl    $0x2,%rax
    a6bd:	48 89 c2             	mov    %rax,%rdx
    a6c0:	48 8d 05 99 60 00 00 	lea    0x6099(%rip),%rax        # 10760 <g_216>
    a6c7:	8b 44 02 0c          	mov    0xc(%rdx,%rax,1),%eax
    a6cb:	c1 e0 07             	shl    $0x7,%eax
    a6ce:	c1 f8 07             	sar    $0x7,%eax
    a6d1:	48 98                	cltq   
    a6d3:	8b 55 fc             	mov    -0x4(%rbp),%edx
    a6d6:	48 8d 35 17 24 00 00 	lea    0x2417(%rip),%rsi        # caf4 <_IO_stdin_used+0xaf4>
    a6dd:	48 89 c7             	mov    %rax,%rdi
    a6e0:	e8 0e b0 ff ff       	callq  56f3 <transparent_crc>
    a6e5:	8b 45 f0             	mov    -0x10(%rbp),%eax
    a6e8:	48 63 d0             	movslq %eax,%rdx
    a6eb:	48 89 d0             	mov    %rdx,%rax
    a6ee:	48 c1 e0 03          	shl    $0x3,%rax
    a6f2:	48 29 d0             	sub    %rdx,%rax
    a6f5:	48 c1 e0 02          	shl    $0x2,%rax
    a6f9:	48 89 c2             	mov    %rax,%rdx
    a6fc:	48 8d 05 6d 60 00 00 	lea    0x606d(%rip),%rax        # 10770 <g_216+0x10>
    a703:	8b 04 02             	mov    (%rdx,%rax,1),%eax
    a706:	c1 e0 0d             	shl    $0xd,%eax
    a709:	c1 f8 0d             	sar    $0xd,%eax
    a70c:	48 98                	cltq   
    a70e:	8b 55 fc             	mov    -0x4(%rbp),%edx
    a711:	48 8d 35 e8 23 00 00 	lea    0x23e8(%rip),%rsi        # cb00 <_IO_stdin_used+0xb00>
    a718:	48 89 c7             	mov    %rax,%rdi
    a71b:	e8 d3 af ff ff       	callq  56f3 <transparent_crc>
    a720:	8b 45 f0             	mov    -0x10(%rbp),%eax
    a723:	48 63 d0             	movslq %eax,%rdx
    a726:	48 89 d0             	mov    %rdx,%rax
    a729:	48 c1 e0 03          	shl    $0x3,%rax
    a72d:	48 29 d0             	sub    %rdx,%rax
    a730:	48 c1 e0 02          	shl    $0x2,%rax
    a734:	48 89 c2             	mov    %rax,%rdx
    a737:	48 8d 05 32 60 00 00 	lea    0x6032(%rip),%rax        # 10770 <g_216+0x10>
    a73e:	8b 44 02 04          	mov    0x4(%rdx,%rax,1),%eax
    a742:	25 ff ff 03 00       	and    $0x3ffff,%eax
    a747:	89 c1                	mov    %eax,%ecx
    a749:	8b 45 fc             	mov    -0x4(%rbp),%eax
    a74c:	89 c2                	mov    %eax,%edx
    a74e:	48 8d 35 b7 23 00 00 	lea    0x23b7(%rip),%rsi        # cb0c <_IO_stdin_used+0xb0c>
    a755:	48 89 cf             	mov    %rcx,%rdi
    a758:	e8 96 af ff ff       	callq  56f3 <transparent_crc>
    a75d:	8b 45 f0             	mov    -0x10(%rbp),%eax
    a760:	48 63 d0             	movslq %eax,%rdx
    a763:	48 89 d0             	mov    %rdx,%rax
    a766:	48 c1 e0 03          	shl    $0x3,%rax
    a76a:	48 29 d0             	sub    %rdx,%rax
    a76d:	48 c1 e0 02          	shl    $0x2,%rax
    a771:	48 89 c2             	mov    %rax,%rdx
    a774:	48 8d 05 f5 5f 00 00 	lea    0x5ff5(%rip),%rax        # 10770 <g_216+0x10>
    a77b:	8b 44 02 08          	mov    0x8(%rdx,%rax,1),%eax
    a77f:	25 ff ff 1f 00       	and    $0x1fffff,%eax
    a784:	89 c1                	mov    %eax,%ecx
    a786:	8b 45 fc             	mov    -0x4(%rbp),%eax
    a789:	89 c2                	mov    %eax,%edx
    a78b:	48 8d 35 86 23 00 00 	lea    0x2386(%rip),%rsi        # cb18 <_IO_stdin_used+0xb18>
    a792:	48 89 cf             	mov    %rcx,%rdi
    a795:	e8 59 af ff ff       	callq  56f3 <transparent_crc>
    a79a:	8b 45 f0             	mov    -0x10(%rbp),%eax
    a79d:	48 63 d0             	movslq %eax,%rdx
    a7a0:	48 89 d0             	mov    %rdx,%rax
    a7a3:	48 c1 e0 03          	shl    $0x3,%rax
    a7a7:	48 29 d0             	sub    %rdx,%rax
    a7aa:	48 c1 e0 02          	shl    $0x2,%rax
    a7ae:	48 89 c2             	mov    %rax,%rdx
    a7b1:	48 8d 05 b8 5f 00 00 	lea    0x5fb8(%rip),%rax        # 10770 <g_216+0x10>
    a7b8:	8b 44 02 08          	mov    0x8(%rdx,%rax,1),%eax
    a7bc:	c1 e0 09             	shl    $0x9,%eax
    a7bf:	c1 f8 1e             	sar    $0x1e,%eax
    a7c2:	48 0f be c0          	movsbq %al,%rax
    a7c6:	8b 55 fc             	mov    -0x4(%rbp),%edx
    a7c9:	48 8d 35 54 23 00 00 	lea    0x2354(%rip),%rsi        # cb24 <_IO_stdin_used+0xb24>
    a7d0:	48 89 c7             	mov    %rax,%rdi
    a7d3:	e8 1b af ff ff       	callq  56f3 <transparent_crc>
    a7d8:	8b 45 f0             	mov    -0x10(%rbp),%eax
    a7db:	48 63 d0             	movslq %eax,%rdx
    a7de:	48 89 d0             	mov    %rdx,%rax
    a7e1:	48 c1 e0 03          	shl    $0x3,%rax
    a7e5:	48 29 d0             	sub    %rdx,%rax
    a7e8:	48 c1 e0 02          	shl    $0x2,%rax
    a7ec:	48 89 c2             	mov    %rax,%rdx
    a7ef:	48 8d 05 7a 5f 00 00 	lea    0x5f7a(%rip),%rax        # 10770 <g_216+0x10>
    a7f6:	8b 44 02 08          	mov    0x8(%rdx,%rax,1),%eax
    a7fa:	c1 e8 17             	shr    $0x17,%eax
    a7fd:	83 e0 03             	and    $0x3,%eax
    a800:	0f b6 c0             	movzbl %al,%eax
    a803:	8b 55 fc             	mov    -0x4(%rbp),%edx
    a806:	48 8d 35 23 23 00 00 	lea    0x2323(%rip),%rsi        # cb30 <_IO_stdin_used+0xb30>
    a80d:	48 89 c7             	mov    %rax,%rdi
    a810:	e8 de ae ff ff       	callq  56f3 <transparent_crc>
    a815:	83 7d fc 00          	cmpl   $0x0,-0x4(%rbp)
    a819:	74 16                	je     a831 <main+0x877>
    a81b:	8b 45 f0             	mov    -0x10(%rbp),%eax
    a81e:	89 c6                	mov    %eax,%esi
    a820:	48 8d 3d 15 23 00 00 	lea    0x2315(%rip),%rdi        # cb3c <_IO_stdin_used+0xb3c>
    a827:	b8 00 00 00 00       	mov    $0x0,%eax
    a82c:	e8 4f 98 ff ff       	callq  4080 <printf@plt>
    a831:	83 45 f0 01          	addl   $0x1,-0x10(%rbp)
    a835:	83 7d f0 09          	cmpl   $0x9,-0x10(%rbp)
    a839:	0f 8e 77 fd ff ff    	jle    a5b6 <main+0x5fc>
    a83f:	0f b7 05 32 60 00 00 	movzwl 0x6032(%rip),%eax        # 10878 <g_254>
    a846:	0f b7 c0             	movzwl %ax,%eax
    a849:	8b 55 fc             	mov    -0x4(%rbp),%edx
    a84c:	48 8d 35 f7 22 00 00 	lea    0x22f7(%rip),%rsi        # cb4a <_IO_stdin_used+0xb4a>
    a853:	48 89 c7             	mov    %rax,%rdi
    a856:	e8 98 ae ff ff       	callq  56f3 <transparent_crc>
    a85b:	8b 05 1b 60 00 00    	mov    0x601b(%rip),%eax        # 1087c <g_262>
    a861:	89 c1                	mov    %eax,%ecx
    a863:	8b 45 fc             	mov    -0x4(%rbp),%eax
    a866:	89 c2                	mov    %eax,%edx
    a868:	48 8d 35 e1 22 00 00 	lea    0x22e1(%rip),%rsi        # cb50 <_IO_stdin_used+0xb50>
    a86f:	48 89 cf             	mov    %rcx,%rdi
    a872:	e8 7c ae ff ff       	callq  56f3 <transparent_crc>
    a877:	48 8b 05 02 60 00 00 	mov    0x6002(%rip),%rax        # 10880 <g_301>
    a87e:	25 ff ff 1f 00       	and    $0x1fffff,%eax
    a883:	89 c1                	mov    %eax,%ecx
    a885:	8b 45 fc             	mov    -0x4(%rbp),%eax
    a888:	89 c2                	mov    %eax,%edx
    a88a:	48 8d 35 c5 22 00 00 	lea    0x22c5(%rip),%rsi        # cb56 <_IO_stdin_used+0xb56>
    a891:	48 89 cf             	mov    %rcx,%rdi
    a894:	e8 5a ae ff ff       	callq  56f3 <transparent_crc>
    a899:	8b 05 e5 5f 00 00    	mov    0x5fe5(%rip),%eax        # 10884 <g_301+0x4>
    a89f:	25 ff ff ff 07       	and    $0x7ffffff,%eax
    a8a4:	89 c1                	mov    %eax,%ecx
    a8a6:	8b 45 fc             	mov    -0x4(%rbp),%eax
    a8a9:	89 c2                	mov    %eax,%edx
    a8ab:	48 8d 35 ad 22 00 00 	lea    0x22ad(%rip),%rsi        # cb5f <_IO_stdin_used+0xb5f>
    a8b2:	48 89 cf             	mov    %rcx,%rdi
    a8b5:	e8 39 ae ff ff       	callq  56f3 <transparent_crc>
    a8ba:	8b 05 c8 5f 00 00    	mov    0x5fc8(%rip),%eax        # 10888 <g_301+0x8>
    a8c0:	c1 e0 08             	shl    $0x8,%eax
    a8c3:	c1 f8 08             	sar    $0x8,%eax
    a8c6:	48 98                	cltq   
    a8c8:	8b 55 fc             	mov    -0x4(%rbp),%edx
    a8cb:	48 8d 35 96 22 00 00 	lea    0x2296(%rip),%rsi        # cb68 <_IO_stdin_used+0xb68>
    a8d2:	48 89 c7             	mov    %rax,%rdi
    a8d5:	e8 19 ae ff ff       	callq  56f3 <transparent_crc>
    a8da:	0f b6 05 aa 5f 00 00 	movzbl 0x5faa(%rip),%eax        # 1088b <g_301+0xb>
    a8e1:	c1 e0 04             	shl    $0x4,%eax
    a8e4:	c0 f8 04             	sar    $0x4,%al
    a8e7:	48 0f be c0          	movsbq %al,%rax
    a8eb:	8b 55 fc             	mov    -0x4(%rbp),%edx
    a8ee:	48 8d 35 7c 22 00 00 	lea    0x227c(%rip),%rsi        # cb71 <_IO_stdin_used+0xb71>
    a8f5:	48 89 c7             	mov    %rax,%rdi
    a8f8:	e8 f6 ad ff ff       	callq  56f3 <transparent_crc>
    a8fd:	48 8b 05 84 5f 00 00 	mov    0x5f84(%rip),%rax        # 10888 <g_301+0x8>
    a904:	48 c1 e0 07          	shl    $0x7,%rax
    a908:	48 c1 f8 27          	sar    $0x27,%rax
    a90c:	48 98                	cltq   
    a90e:	8b 55 fc             	mov    -0x4(%rbp),%edx
    a911:	48 8d 35 62 22 00 00 	lea    0x2262(%rip),%rsi        # cb7a <_IO_stdin_used+0xb7a>
    a918:	48 89 c7             	mov    %rax,%rdi
    a91b:	e8 d3 ad ff ff       	callq  56f3 <transparent_crc>
    a920:	48 8b 05 69 5f 00 00 	mov    0x5f69(%rip),%rax        # 10890 <g_301+0x10>
    a927:	c1 e0 0d             	shl    $0xd,%eax
    a92a:	c1 f8 0d             	sar    $0xd,%eax
    a92d:	48 98                	cltq   
    a92f:	8b 55 fc             	mov    -0x4(%rbp),%edx
    a932:	48 8d 35 4a 22 00 00 	lea    0x224a(%rip),%rsi        # cb83 <_IO_stdin_used+0xb83>
    a939:	48 89 c7             	mov    %rax,%rdi
    a93c:	e8 b2 ad ff ff       	callq  56f3 <transparent_crc>
    a941:	8b 05 4d 5f 00 00    	mov    0x5f4d(%rip),%eax        # 10894 <g_301+0x14>
    a947:	25 ff ff 03 00       	and    $0x3ffff,%eax
    a94c:	89 c1                	mov    %eax,%ecx
    a94e:	8b 45 fc             	mov    -0x4(%rbp),%eax
    a951:	89 c2                	mov    %eax,%edx
    a953:	48 8d 35 32 22 00 00 	lea    0x2232(%rip),%rsi        # cb8c <_IO_stdin_used+0xb8c>
    a95a:	48 89 cf             	mov    %rcx,%rdi
    a95d:	e8 91 ad ff ff       	callq  56f3 <transparent_crc>
    a962:	48 8b 05 2f 5f 00 00 	mov    0x5f2f(%rip),%rax        # 10898 <g_301+0x18>
    a969:	25 ff ff 1f 00       	and    $0x1fffff,%eax
    a96e:	89 c1                	mov    %eax,%ecx
    a970:	8b 45 fc             	mov    -0x4(%rbp),%eax
    a973:	89 c2                	mov    %eax,%edx
    a975:	48 8d 35 19 22 00 00 	lea    0x2219(%rip),%rsi        # cb95 <_IO_stdin_used+0xb95>
    a97c:	48 89 cf             	mov    %rcx,%rdi
    a97f:	e8 6f ad ff ff       	callq  56f3 <transparent_crc>
    a984:	0f b6 05 0f 5f 00 00 	movzbl 0x5f0f(%rip),%eax        # 1089a <g_301+0x1a>
    a98b:	01 c0                	add    %eax,%eax
    a98d:	c0 f8 06             	sar    $0x6,%al
    a990:	48 0f be c0          	movsbq %al,%rax
    a994:	8b 55 fc             	mov    -0x4(%rbp),%edx
    a997:	48 8d 35 00 22 00 00 	lea    0x2200(%rip),%rsi        # cb9e <_IO_stdin_used+0xb9e>
    a99e:	48 89 c7             	mov    %rax,%rdi
    a9a1:	e8 4d ad ff ff       	callq  56f3 <transparent_crc>
    a9a6:	0f b7 05 ed 5e 00 00 	movzwl 0x5eed(%rip),%eax        # 1089a <g_301+0x1a>
    a9ad:	66 c1 e8 07          	shr    $0x7,%ax
    a9b1:	83 e0 03             	and    $0x3,%eax
    a9b4:	0f b6 c0             	movzbl %al,%eax
    a9b7:	8b 55 fc             	mov    -0x4(%rbp),%edx
    a9ba:	48 8d 35 e6 21 00 00 	lea    0x21e6(%rip),%rsi        # cba7 <_IO_stdin_used+0xba7>
    a9c1:	48 89 c7             	mov    %rax,%rdi
    a9c4:	e8 2a ad ff ff       	callq  56f3 <transparent_crc>
    a9c9:	48 8b 05 d0 5e 00 00 	mov    0x5ed0(%rip),%rax        # 108a0 <g_421>
    a9d0:	25 ff ff 1f 00       	and    $0x1fffff,%eax
    a9d5:	89 c1                	mov    %eax,%ecx
    a9d7:	8b 45 fc             	mov    -0x4(%rbp),%eax
    a9da:	89 c2                	mov    %eax,%edx
    a9dc:	48 8d 35 cd 21 00 00 	lea    0x21cd(%rip),%rsi        # cbb0 <_IO_stdin_used+0xbb0>
    a9e3:	48 89 cf             	mov    %rcx,%rdi
    a9e6:	e8 08 ad ff ff       	callq  56f3 <transparent_crc>
    a9eb:	8b 05 b3 5e 00 00    	mov    0x5eb3(%rip),%eax        # 108a4 <g_421+0x4>
    a9f1:	25 ff ff ff 07       	and    $0x7ffffff,%eax
    a9f6:	89 c1                	mov    %eax,%ecx
    a9f8:	8b 45 fc             	mov    -0x4(%rbp),%eax
    a9fb:	89 c2                	mov    %eax,%edx
    a9fd:	48 8d 35 b5 21 00 00 	lea    0x21b5(%rip),%rsi        # cbb9 <_IO_stdin_used+0xbb9>
    aa04:	48 89 cf             	mov    %rcx,%rdi
    aa07:	e8 e7 ac ff ff       	callq  56f3 <transparent_crc>
    aa0c:	8b 05 96 5e 00 00    	mov    0x5e96(%rip),%eax        # 108a8 <g_421+0x8>
    aa12:	c1 e0 08             	shl    $0x8,%eax
    aa15:	c1 f8 08             	sar    $0x8,%eax
    aa18:	48 98                	cltq   
    aa1a:	8b 55 fc             	mov    -0x4(%rbp),%edx
    aa1d:	48 8d 35 9e 21 00 00 	lea    0x219e(%rip),%rsi        # cbc2 <_IO_stdin_used+0xbc2>
    aa24:	48 89 c7             	mov    %rax,%rdi
    aa27:	e8 c7 ac ff ff       	callq  56f3 <transparent_crc>
    aa2c:	0f b6 05 78 5e 00 00 	movzbl 0x5e78(%rip),%eax        # 108ab <g_421+0xb>
    aa33:	c1 e0 04             	shl    $0x4,%eax
    aa36:	c0 f8 04             	sar    $0x4,%al
    aa39:	48 0f be c0          	movsbq %al,%rax
    aa3d:	8b 55 fc             	mov    -0x4(%rbp),%edx
    aa40:	48 8d 35 84 21 00 00 	lea    0x2184(%rip),%rsi        # cbcb <_IO_stdin_used+0xbcb>
    aa47:	48 89 c7             	mov    %rax,%rdi
    aa4a:	e8 a4 ac ff ff       	callq  56f3 <transparent_crc>
    aa4f:	48 8b 05 52 5e 00 00 	mov    0x5e52(%rip),%rax        # 108a8 <g_421+0x8>
    aa56:	48 c1 e0 07          	shl    $0x7,%rax
    aa5a:	48 c1 f8 27          	sar    $0x27,%rax
    aa5e:	48 98                	cltq   
    aa60:	8b 55 fc             	mov    -0x4(%rbp),%edx
    aa63:	48 8d 35 6a 21 00 00 	lea    0x216a(%rip),%rsi        # cbd4 <_IO_stdin_used+0xbd4>
    aa6a:	48 89 c7             	mov    %rax,%rdi
    aa6d:	e8 81 ac ff ff       	callq  56f3 <transparent_crc>
    aa72:	48 8b 05 37 5e 00 00 	mov    0x5e37(%rip),%rax        # 108b0 <g_421+0x10>
    aa79:	c1 e0 0d             	shl    $0xd,%eax
    aa7c:	c1 f8 0d             	sar    $0xd,%eax
    aa7f:	48 98                	cltq   
    aa81:	8b 55 fc             	mov    -0x4(%rbp),%edx
    aa84:	48 8d 35 52 21 00 00 	lea    0x2152(%rip),%rsi        # cbdd <_IO_stdin_used+0xbdd>
    aa8b:	48 89 c7             	mov    %rax,%rdi
    aa8e:	e8 60 ac ff ff       	callq  56f3 <transparent_crc>
    aa93:	8b 05 1b 5e 00 00    	mov    0x5e1b(%rip),%eax        # 108b4 <g_421+0x14>
    aa99:	25 ff ff 03 00       	and    $0x3ffff,%eax
    aa9e:	89 c1                	mov    %eax,%ecx
    aaa0:	8b 45 fc             	mov    -0x4(%rbp),%eax
    aaa3:	89 c2                	mov    %eax,%edx
    aaa5:	48 8d 35 3a 21 00 00 	lea    0x213a(%rip),%rsi        # cbe6 <_IO_stdin_used+0xbe6>
    aaac:	48 89 cf             	mov    %rcx,%rdi
    aaaf:	e8 3f ac ff ff       	callq  56f3 <transparent_crc>
    aab4:	48 8b 05 fd 5d 00 00 	mov    0x5dfd(%rip),%rax        # 108b8 <g_421+0x18>
    aabb:	25 ff ff 1f 00       	and    $0x1fffff,%eax
    aac0:	89 c1                	mov    %eax,%ecx
    aac2:	8b 45 fc             	mov    -0x4(%rbp),%eax
    aac5:	89 c2                	mov    %eax,%edx
    aac7:	48 8d 35 21 21 00 00 	lea    0x2121(%rip),%rsi        # cbef <_IO_stdin_used+0xbef>
    aace:	48 89 cf             	mov    %rcx,%rdi
    aad1:	e8 1d ac ff ff       	callq  56f3 <transparent_crc>
    aad6:	0f b6 05 dd 5d 00 00 	movzbl 0x5ddd(%rip),%eax        # 108ba <g_421+0x1a>
    aadd:	01 c0                	add    %eax,%eax
    aadf:	c0 f8 06             	sar    $0x6,%al
    aae2:	48 0f be c0          	movsbq %al,%rax
    aae6:	8b 55 fc             	mov    -0x4(%rbp),%edx
    aae9:	48 8d 35 08 21 00 00 	lea    0x2108(%rip),%rsi        # cbf8 <_IO_stdin_used+0xbf8>
    aaf0:	48 89 c7             	mov    %rax,%rdi
    aaf3:	e8 fb ab ff ff       	callq  56f3 <transparent_crc>
    aaf8:	0f b7 05 bb 5d 00 00 	movzwl 0x5dbb(%rip),%eax        # 108ba <g_421+0x1a>
    aaff:	66 c1 e8 07          	shr    $0x7,%ax
    ab03:	83 e0 03             	and    $0x3,%eax
    ab06:	0f b6 c0             	movzbl %al,%eax
    ab09:	8b 55 fc             	mov    -0x4(%rbp),%edx
    ab0c:	48 8d 35 ee 20 00 00 	lea    0x20ee(%rip),%rsi        # cc01 <_IO_stdin_used+0xc01>
    ab13:	48 89 c7             	mov    %rax,%rdi
    ab16:	e8 d8 ab ff ff       	callq  56f3 <transparent_crc>
    ab1b:	0f b7 05 9a 5d 00 00 	movzwl 0x5d9a(%rip),%eax        # 108bc <g_437>
    ab22:	0f b7 c0             	movzwl %ax,%eax
    ab25:	8b 55 fc             	mov    -0x4(%rbp),%edx
    ab28:	48 8d 35 db 20 00 00 	lea    0x20db(%rip),%rsi        # cc0a <_IO_stdin_used+0xc0a>
    ab2f:	48 89 c7             	mov    %rax,%rdi
    ab32:	e8 bc ab ff ff       	callq  56f3 <transparent_crc>
    ab37:	48 8b 05 82 5d 00 00 	mov    0x5d82(%rip),%rax        # 108c0 <g_467>
    ab3e:	48 89 c1             	mov    %rax,%rcx
    ab41:	8b 45 fc             	mov    -0x4(%rbp),%eax
    ab44:	89 c2                	mov    %eax,%edx
    ab46:	48 8d 35 c3 20 00 00 	lea    0x20c3(%rip),%rsi        # cc10 <_IO_stdin_used+0xc10>
    ab4d:	48 89 cf             	mov    %rcx,%rdi
    ab50:	e8 9e ab ff ff       	callq  56f3 <transparent_crc>
    ab55:	48 8b 05 74 5d 00 00 	mov    0x5d74(%rip),%rax        # 108d0 <g_502>
    ab5c:	25 ff ff 1f 00       	and    $0x1fffff,%eax
    ab61:	89 c1                	mov    %eax,%ecx
    ab63:	8b 45 fc             	mov    -0x4(%rbp),%eax
    ab66:	89 c2                	mov    %eax,%edx
    ab68:	48 8d 35 a7 20 00 00 	lea    0x20a7(%rip),%rsi        # cc16 <_IO_stdin_used+0xc16>
    ab6f:	48 89 cf             	mov    %rcx,%rdi
    ab72:	e8 7c ab ff ff       	callq  56f3 <transparent_crc>
    ab77:	48 8b 05 52 5d 00 00 	mov    0x5d52(%rip),%rax        # 108d0 <g_502>
    ab7e:	48 c1 e8 20          	shr    $0x20,%rax
    ab82:	25 ff ff ff 07       	and    $0x7ffffff,%eax
    ab87:	89 c1                	mov    %eax,%ecx
    ab89:	8b 45 fc             	mov    -0x4(%rbp),%eax
    ab8c:	89 c2                	mov    %eax,%edx
    ab8e:	48 8d 35 8a 20 00 00 	lea    0x208a(%rip),%rsi        # cc1f <_IO_stdin_used+0xc1f>
    ab95:	48 89 cf             	mov    %rcx,%rdi
    ab98:	e8 56 ab ff ff       	callq  56f3 <transparent_crc>
    ab9d:	48 8b 05 34 5d 00 00 	mov    0x5d34(%rip),%rax        # 108d8 <g_502+0x8>
    aba4:	c1 e0 08             	shl    $0x8,%eax
    aba7:	c1 f8 08             	sar    $0x8,%eax
    abaa:	48 98                	cltq   
    abac:	8b 55 fc             	mov    -0x4(%rbp),%edx
    abaf:	48 8d 35 72 20 00 00 	lea    0x2072(%rip),%rsi        # cc28 <_IO_stdin_used+0xc28>
    abb6:	48 89 c7             	mov    %rax,%rdi
    abb9:	e8 35 ab ff ff       	callq  56f3 <transparent_crc>
    abbe:	48 8b 05 13 5d 00 00 	mov    0x5d13(%rip),%rax        # 108d8 <g_502+0x8>
    abc5:	c1 e0 04             	shl    $0x4,%eax
    abc8:	c1 f8 1c             	sar    $0x1c,%eax
    abcb:	48 0f be c0          	movsbq %al,%rax
    abcf:	8b 55 fc             	mov    -0x4(%rbp),%edx
    abd2:	48 8d 35 58 20 00 00 	lea    0x2058(%rip),%rsi        # cc31 <_IO_stdin_used+0xc31>
    abd9:	48 89 c7             	mov    %rax,%rdi
    abdc:	e8 12 ab ff ff       	callq  56f3 <transparent_crc>
    abe1:	48 8b 05 f0 5c 00 00 	mov    0x5cf0(%rip),%rax        # 108d8 <g_502+0x8>
    abe8:	48 c1 e0 07          	shl    $0x7,%rax
    abec:	48 c1 f8 27          	sar    $0x27,%rax
    abf0:	48 98                	cltq   
    abf2:	8b 55 fc             	mov    -0x4(%rbp),%edx
    abf5:	48 8d 35 3e 20 00 00 	lea    0x203e(%rip),%rsi        # cc3a <_IO_stdin_used+0xc3a>
    abfc:	48 89 c7             	mov    %rax,%rdi
    abff:	e8 ef aa ff ff       	callq  56f3 <transparent_crc>
    ac04:	48 8b 05 d5 5c 00 00 	mov    0x5cd5(%rip),%rax        # 108e0 <g_502+0x10>
    ac0b:	c1 e0 0d             	shl    $0xd,%eax
    ac0e:	c1 f8 0d             	sar    $0xd,%eax
    ac11:	48 98                	cltq   
    ac13:	8b 55 fc             	mov    -0x4(%rbp),%edx
    ac16:	48 8d 35 26 20 00 00 	lea    0x2026(%rip),%rsi        # cc43 <_IO_stdin_used+0xc43>
    ac1d:	48 89 c7             	mov    %rax,%rdi
    ac20:	e8 ce aa ff ff       	callq  56f3 <transparent_crc>
    ac25:	48 8b 05 b4 5c 00 00 	mov    0x5cb4(%rip),%rax        # 108e0 <g_502+0x10>
    ac2c:	48 c1 e8 20          	shr    $0x20,%rax
    ac30:	25 ff ff 03 00       	and    $0x3ffff,%eax
    ac35:	89 c1                	mov    %eax,%ecx
    ac37:	8b 45 fc             	mov    -0x4(%rbp),%eax
    ac3a:	89 c2                	mov    %eax,%edx
    ac3c:	48 8d 35 09 20 00 00 	lea    0x2009(%rip),%rsi        # cc4c <_IO_stdin_used+0xc4c>
    ac43:	48 89 cf             	mov    %rcx,%rdi
    ac46:	e8 a8 aa ff ff       	callq  56f3 <transparent_crc>
    ac4b:	48 8b 05 96 5c 00 00 	mov    0x5c96(%rip),%rax        # 108e8 <g_502+0x18>
    ac52:	25 ff ff 1f 00       	and    $0x1fffff,%eax
    ac57:	89 c1                	mov    %eax,%ecx
    ac59:	8b 45 fc             	mov    -0x4(%rbp),%eax
    ac5c:	89 c2                	mov    %eax,%edx
    ac5e:	48 8d 35 f0 1f 00 00 	lea    0x1ff0(%rip),%rsi        # cc55 <_IO_stdin_used+0xc55>
    ac65:	48 89 cf             	mov    %rcx,%rdi
    ac68:	e8 86 aa ff ff       	callq  56f3 <transparent_crc>
    ac6d:	48 8b 05 74 5c 00 00 	mov    0x5c74(%rip),%rax        # 108e8 <g_502+0x18>
    ac74:	c1 e0 09             	shl    $0x9,%eax
    ac77:	c1 f8 1e             	sar    $0x1e,%eax
    ac7a:	48 0f be c0          	movsbq %al,%rax
    ac7e:	8b 55 fc             	mov    -0x4(%rbp),%edx
    ac81:	48 8d 35 d6 1f 00 00 	lea    0x1fd6(%rip),%rsi        # cc5e <_IO_stdin_used+0xc5e>
    ac88:	48 89 c7             	mov    %rax,%rdi
    ac8b:	e8 63 aa ff ff       	callq  56f3 <transparent_crc>
    ac90:	48 8b 05 51 5c 00 00 	mov    0x5c51(%rip),%rax        # 108e8 <g_502+0x18>
    ac97:	48 c1 e8 17          	shr    $0x17,%rax
    ac9b:	83 e0 03             	and    $0x3,%eax
    ac9e:	0f b6 c0             	movzbl %al,%eax
    aca1:	8b 55 fc             	mov    -0x4(%rbp),%edx
    aca4:	48 8d 35 bc 1f 00 00 	lea    0x1fbc(%rip),%rsi        # cc67 <_IO_stdin_used+0xc67>
    acab:	48 89 c7             	mov    %rax,%rdi
    acae:	e8 40 aa ff ff       	callq  56f3 <transparent_crc>
    acb3:	48 8b 05 36 5c 00 00 	mov    0x5c36(%rip),%rax        # 108f0 <g_609>
    acba:	25 ff ff 1f 00       	and    $0x1fffff,%eax
    acbf:	89 c1                	mov    %eax,%ecx
    acc1:	8b 45 fc             	mov    -0x4(%rbp),%eax
    acc4:	89 c2                	mov    %eax,%edx
    acc6:	48 8d 35 a3 1f 00 00 	lea    0x1fa3(%rip),%rsi        # cc70 <_IO_stdin_used+0xc70>
    accd:	48 89 cf             	mov    %rcx,%rdi
    acd0:	e8 1e aa ff ff       	callq  56f3 <transparent_crc>
    acd5:	8b 05 19 5c 00 00    	mov    0x5c19(%rip),%eax        # 108f4 <g_609+0x4>
    acdb:	25 ff ff ff 07       	and    $0x7ffffff,%eax
    ace0:	89 c1                	mov    %eax,%ecx
    ace2:	8b 45 fc             	mov    -0x4(%rbp),%eax
    ace5:	89 c2                	mov    %eax,%edx
    ace7:	48 8d 35 8b 1f 00 00 	lea    0x1f8b(%rip),%rsi        # cc79 <_IO_stdin_used+0xc79>
    acee:	48 89 cf             	mov    %rcx,%rdi
    acf1:	e8 fd a9 ff ff       	callq  56f3 <transparent_crc>
    acf6:	8b 05 fc 5b 00 00    	mov    0x5bfc(%rip),%eax        # 108f8 <g_609+0x8>
    acfc:	c1 e0 08             	shl    $0x8,%eax
    acff:	c1 f8 08             	sar    $0x8,%eax
    ad02:	48 98                	cltq   
    ad04:	8b 55 fc             	mov    -0x4(%rbp),%edx
    ad07:	48 8d 35 74 1f 00 00 	lea    0x1f74(%rip),%rsi        # cc82 <_IO_stdin_used+0xc82>
    ad0e:	48 89 c7             	mov    %rax,%rdi
    ad11:	e8 dd a9 ff ff       	callq  56f3 <transparent_crc>
    ad16:	0f b6 05 de 5b 00 00 	movzbl 0x5bde(%rip),%eax        # 108fb <g_609+0xb>
    ad1d:	c1 e0 04             	shl    $0x4,%eax
    ad20:	c0 f8 04             	sar    $0x4,%al
    ad23:	48 0f be c0          	movsbq %al,%rax
    ad27:	8b 55 fc             	mov    -0x4(%rbp),%edx
    ad2a:	48 8d 35 5a 1f 00 00 	lea    0x1f5a(%rip),%rsi        # cc8b <_IO_stdin_used+0xc8b>
    ad31:	48 89 c7             	mov    %rax,%rdi
    ad34:	e8 ba a9 ff ff       	callq  56f3 <transparent_crc>
    ad39:	48 8b 05 b8 5b 00 00 	mov    0x5bb8(%rip),%rax        # 108f8 <g_609+0x8>
    ad40:	48 c1 e0 07          	shl    $0x7,%rax
    ad44:	48 c1 f8 27          	sar    $0x27,%rax
    ad48:	48 98                	cltq   
    ad4a:	8b 55 fc             	mov    -0x4(%rbp),%edx
    ad4d:	48 8d 35 40 1f 00 00 	lea    0x1f40(%rip),%rsi        # cc94 <_IO_stdin_used+0xc94>
    ad54:	48 89 c7             	mov    %rax,%rdi
    ad57:	e8 97 a9 ff ff       	callq  56f3 <transparent_crc>
    ad5c:	48 8b 05 9d 5b 00 00 	mov    0x5b9d(%rip),%rax        # 10900 <g_609+0x10>
    ad63:	c1 e0 0d             	shl    $0xd,%eax
    ad66:	c1 f8 0d             	sar    $0xd,%eax
    ad69:	48 98                	cltq   
    ad6b:	8b 55 fc             	mov    -0x4(%rbp),%edx
    ad6e:	48 8d 35 28 1f 00 00 	lea    0x1f28(%rip),%rsi        # cc9d <_IO_stdin_used+0xc9d>
    ad75:	48 89 c7             	mov    %rax,%rdi
    ad78:	e8 76 a9 ff ff       	callq  56f3 <transparent_crc>
    ad7d:	8b 05 81 5b 00 00    	mov    0x5b81(%rip),%eax        # 10904 <g_609+0x14>
    ad83:	25 ff ff 03 00       	and    $0x3ffff,%eax
    ad88:	89 c1                	mov    %eax,%ecx
    ad8a:	8b 45 fc             	mov    -0x4(%rbp),%eax
    ad8d:	89 c2                	mov    %eax,%edx
    ad8f:	48 8d 35 10 1f 00 00 	lea    0x1f10(%rip),%rsi        # cca6 <_IO_stdin_used+0xca6>
    ad96:	48 89 cf             	mov    %rcx,%rdi
    ad99:	e8 55 a9 ff ff       	callq  56f3 <transparent_crc>
    ad9e:	48 8b 05 63 5b 00 00 	mov    0x5b63(%rip),%rax        # 10908 <g_609+0x18>
    ada5:	25 ff ff 1f 00       	and    $0x1fffff,%eax
    adaa:	89 c1                	mov    %eax,%ecx
    adac:	8b 45 fc             	mov    -0x4(%rbp),%eax
    adaf:	89 c2                	mov    %eax,%edx
    adb1:	48 8d 35 f7 1e 00 00 	lea    0x1ef7(%rip),%rsi        # ccaf <_IO_stdin_used+0xcaf>
    adb8:	48 89 cf             	mov    %rcx,%rdi
    adbb:	e8 33 a9 ff ff       	callq  56f3 <transparent_crc>
    adc0:	0f b6 05 43 5b 00 00 	movzbl 0x5b43(%rip),%eax        # 1090a <g_609+0x1a>
    adc7:	01 c0                	add    %eax,%eax
    adc9:	c0 f8 06             	sar    $0x6,%al
    adcc:	48 0f be c0          	movsbq %al,%rax
    add0:	8b 55 fc             	mov    -0x4(%rbp),%edx
    add3:	48 8d 35 de 1e 00 00 	lea    0x1ede(%rip),%rsi        # ccb8 <_IO_stdin_used+0xcb8>
    adda:	48 89 c7             	mov    %rax,%rdi
    addd:	e8 11 a9 ff ff       	callq  56f3 <transparent_crc>
    ade2:	0f b7 05 21 5b 00 00 	movzwl 0x5b21(%rip),%eax        # 1090a <g_609+0x1a>
    ade9:	66 c1 e8 07          	shr    $0x7,%ax
    aded:	83 e0 03             	and    $0x3,%eax
    adf0:	0f b6 c0             	movzbl %al,%eax
    adf3:	8b 55 fc             	mov    -0x4(%rbp),%edx
    adf6:	48 8d 35 c4 1e 00 00 	lea    0x1ec4(%rip),%rsi        # ccc1 <_IO_stdin_used+0xcc1>
    adfd:	48 89 c7             	mov    %rax,%rdi
    ae00:	e8 ee a8 ff ff       	callq  56f3 <transparent_crc>
    ae05:	48 8b 05 04 5b 00 00 	mov    0x5b04(%rip),%rax        # 10910 <g_679>
    ae0c:	25 ff ff 1f 00       	and    $0x1fffff,%eax
    ae11:	89 c1                	mov    %eax,%ecx
    ae13:	8b 45 fc             	mov    -0x4(%rbp),%eax
    ae16:	89 c2                	mov    %eax,%edx
    ae18:	48 8d 35 ab 1e 00 00 	lea    0x1eab(%rip),%rsi        # ccca <_IO_stdin_used+0xcca>
    ae1f:	48 89 cf             	mov    %rcx,%rdi
    ae22:	e8 cc a8 ff ff       	callq  56f3 <transparent_crc>
    ae27:	48 8b 05 e2 5a 00 00 	mov    0x5ae2(%rip),%rax        # 10910 <g_679>
    ae2e:	48 c1 e8 20          	shr    $0x20,%rax
    ae32:	25 ff ff ff 07       	and    $0x7ffffff,%eax
    ae37:	89 c1                	mov    %eax,%ecx
    ae39:	8b 45 fc             	mov    -0x4(%rbp),%eax
    ae3c:	89 c2                	mov    %eax,%edx
    ae3e:	48 8d 35 8e 1e 00 00 	lea    0x1e8e(%rip),%rsi        # ccd3 <_IO_stdin_used+0xcd3>
    ae45:	48 89 cf             	mov    %rcx,%rdi
    ae48:	e8 a6 a8 ff ff       	callq  56f3 <transparent_crc>
    ae4d:	48 8b 05 c4 5a 00 00 	mov    0x5ac4(%rip),%rax        # 10918 <g_679+0x8>
    ae54:	c1 e0 08             	shl    $0x8,%eax
    ae57:	c1 f8 08             	sar    $0x8,%eax
    ae5a:	48 98                	cltq   
    ae5c:	8b 55 fc             	mov    -0x4(%rbp),%edx
    ae5f:	48 8d 35 76 1e 00 00 	lea    0x1e76(%rip),%rsi        # ccdc <_IO_stdin_used+0xcdc>
    ae66:	48 89 c7             	mov    %rax,%rdi
    ae69:	e8 85 a8 ff ff       	callq  56f3 <transparent_crc>
    ae6e:	48 8b 05 a3 5a 00 00 	mov    0x5aa3(%rip),%rax        # 10918 <g_679+0x8>
    ae75:	c1 e0 04             	shl    $0x4,%eax
    ae78:	c1 f8 1c             	sar    $0x1c,%eax
    ae7b:	48 0f be c0          	movsbq %al,%rax
    ae7f:	8b 55 fc             	mov    -0x4(%rbp),%edx
    ae82:	48 8d 35 5c 1e 00 00 	lea    0x1e5c(%rip),%rsi        # cce5 <_IO_stdin_used+0xce5>
    ae89:	48 89 c7             	mov    %rax,%rdi
    ae8c:	e8 62 a8 ff ff       	callq  56f3 <transparent_crc>
    ae91:	48 8b 05 80 5a 00 00 	mov    0x5a80(%rip),%rax        # 10918 <g_679+0x8>
    ae98:	48 c1 e0 07          	shl    $0x7,%rax
    ae9c:	48 c1 f8 27          	sar    $0x27,%rax
    aea0:	48 98                	cltq   
    aea2:	8b 55 fc             	mov    -0x4(%rbp),%edx
    aea5:	48 8d 35 42 1e 00 00 	lea    0x1e42(%rip),%rsi        # ccee <_IO_stdin_used+0xcee>
    aeac:	48 89 c7             	mov    %rax,%rdi
    aeaf:	e8 3f a8 ff ff       	callq  56f3 <transparent_crc>
    aeb4:	48 8b 05 65 5a 00 00 	mov    0x5a65(%rip),%rax        # 10920 <g_679+0x10>
    aebb:	c1 e0 0d             	shl    $0xd,%eax
    aebe:	c1 f8 0d             	sar    $0xd,%eax
    aec1:	48 98                	cltq   
    aec3:	8b 55 fc             	mov    -0x4(%rbp),%edx
    aec6:	48 8d 35 2a 1e 00 00 	lea    0x1e2a(%rip),%rsi        # ccf7 <_IO_stdin_used+0xcf7>
    aecd:	48 89 c7             	mov    %rax,%rdi
    aed0:	e8 1e a8 ff ff       	callq  56f3 <transparent_crc>
    aed5:	48 8b 05 44 5a 00 00 	mov    0x5a44(%rip),%rax        # 10920 <g_679+0x10>
    aedc:	48 c1 e8 20          	shr    $0x20,%rax
    aee0:	25 ff ff 03 00       	and    $0x3ffff,%eax
    aee5:	89 c1                	mov    %eax,%ecx
    aee7:	8b 45 fc             	mov    -0x4(%rbp),%eax
    aeea:	89 c2                	mov    %eax,%edx
    aeec:	48 8d 35 0d 1e 00 00 	lea    0x1e0d(%rip),%rsi        # cd00 <_IO_stdin_used+0xd00>
    aef3:	48 89 cf             	mov    %rcx,%rdi
    aef6:	e8 f8 a7 ff ff       	callq  56f3 <transparent_crc>
    aefb:	48 8b 05 26 5a 00 00 	mov    0x5a26(%rip),%rax        # 10928 <g_679+0x18>
    af02:	25 ff ff 1f 00       	and    $0x1fffff,%eax
    af07:	89 c1                	mov    %eax,%ecx
    af09:	8b 45 fc             	mov    -0x4(%rbp),%eax
    af0c:	89 c2                	mov    %eax,%edx
    af0e:	48 8d 35 f4 1d 00 00 	lea    0x1df4(%rip),%rsi        # cd09 <_IO_stdin_used+0xd09>
    af15:	48 89 cf             	mov    %rcx,%rdi
    af18:	e8 d6 a7 ff ff       	callq  56f3 <transparent_crc>
    af1d:	48 8b 05 04 5a 00 00 	mov    0x5a04(%rip),%rax        # 10928 <g_679+0x18>
    af24:	c1 e0 09             	shl    $0x9,%eax
    af27:	c1 f8 1e             	sar    $0x1e,%eax
    af2a:	48 0f be c0          	movsbq %al,%rax
    af2e:	8b 55 fc             	mov    -0x4(%rbp),%edx
    af31:	48 8d 35 da 1d 00 00 	lea    0x1dda(%rip),%rsi        # cd12 <_IO_stdin_used+0xd12>
    af38:	48 89 c7             	mov    %rax,%rdi
    af3b:	e8 b3 a7 ff ff       	callq  56f3 <transparent_crc>
    af40:	48 8b 05 e1 59 00 00 	mov    0x59e1(%rip),%rax        # 10928 <g_679+0x18>
    af47:	48 c1 e8 17          	shr    $0x17,%rax
    af4b:	83 e0 03             	and    $0x3,%eax
    af4e:	0f b6 c0             	movzbl %al,%eax
    af51:	8b 55 fc             	mov    -0x4(%rbp),%edx
    af54:	48 8d 35 c0 1d 00 00 	lea    0x1dc0(%rip),%rsi        # cd1b <_IO_stdin_used+0xd1b>
    af5b:	48 89 c7             	mov    %rax,%rdi
    af5e:	e8 90 a7 ff ff       	callq  56f3 <transparent_crc>
    af63:	48 8b 05 c6 59 00 00 	mov    0x59c6(%rip),%rax        # 10930 <g_775>
    af6a:	25 ff ff 1f 00       	and    $0x1fffff,%eax
    af6f:	89 c1                	mov    %eax,%ecx
    af71:	8b 45 fc             	mov    -0x4(%rbp),%eax
    af74:	89 c2                	mov    %eax,%edx
    af76:	48 8d 35 a7 1d 00 00 	lea    0x1da7(%rip),%rsi        # cd24 <_IO_stdin_used+0xd24>
    af7d:	48 89 cf             	mov    %rcx,%rdi
    af80:	e8 6e a7 ff ff       	callq  56f3 <transparent_crc>
    af85:	8b 05 a9 59 00 00    	mov    0x59a9(%rip),%eax        # 10934 <g_775+0x4>
    af8b:	25 ff ff ff 07       	and    $0x7ffffff,%eax
    af90:	89 c1                	mov    %eax,%ecx
    af92:	8b 45 fc             	mov    -0x4(%rbp),%eax
    af95:	89 c2                	mov    %eax,%edx
    af97:	48 8d 35 8f 1d 00 00 	lea    0x1d8f(%rip),%rsi        # cd2d <_IO_stdin_used+0xd2d>
    af9e:	48 89 cf             	mov    %rcx,%rdi
    afa1:	e8 4d a7 ff ff       	callq  56f3 <transparent_crc>
    afa6:	8b 05 8c 59 00 00    	mov    0x598c(%rip),%eax        # 10938 <g_775+0x8>
    afac:	c1 e0 08             	shl    $0x8,%eax
    afaf:	c1 f8 08             	sar    $0x8,%eax
    afb2:	48 98                	cltq   
    afb4:	8b 55 fc             	mov    -0x4(%rbp),%edx
    afb7:	48 8d 35 78 1d 00 00 	lea    0x1d78(%rip),%rsi        # cd36 <_IO_stdin_used+0xd36>
    afbe:	48 89 c7             	mov    %rax,%rdi
    afc1:	e8 2d a7 ff ff       	callq  56f3 <transparent_crc>
    afc6:	0f b6 05 6e 59 00 00 	movzbl 0x596e(%rip),%eax        # 1093b <g_775+0xb>
    afcd:	c1 e0 04             	shl    $0x4,%eax
    afd0:	c0 f8 04             	sar    $0x4,%al
    afd3:	48 0f be c0          	movsbq %al,%rax
    afd7:	8b 55 fc             	mov    -0x4(%rbp),%edx
    afda:	48 8d 35 5e 1d 00 00 	lea    0x1d5e(%rip),%rsi        # cd3f <_IO_stdin_used+0xd3f>
    afe1:	48 89 c7             	mov    %rax,%rdi
    afe4:	e8 0a a7 ff ff       	callq  56f3 <transparent_crc>
    afe9:	48 8b 05 48 59 00 00 	mov    0x5948(%rip),%rax        # 10938 <g_775+0x8>
    aff0:	48 c1 e0 07          	shl    $0x7,%rax
    aff4:	48 c1 f8 27          	sar    $0x27,%rax
    aff8:	48 98                	cltq   
    affa:	8b 55 fc             	mov    -0x4(%rbp),%edx
    affd:	48 8d 35 44 1d 00 00 	lea    0x1d44(%rip),%rsi        # cd48 <_IO_stdin_used+0xd48>
    b004:	48 89 c7             	mov    %rax,%rdi
    b007:	e8 e7 a6 ff ff       	callq  56f3 <transparent_crc>
    b00c:	48 8b 05 2d 59 00 00 	mov    0x592d(%rip),%rax        # 10940 <g_775+0x10>
    b013:	c1 e0 0d             	shl    $0xd,%eax
    b016:	c1 f8 0d             	sar    $0xd,%eax
    b019:	48 98                	cltq   
    b01b:	8b 55 fc             	mov    -0x4(%rbp),%edx
    b01e:	48 8d 35 2c 1d 00 00 	lea    0x1d2c(%rip),%rsi        # cd51 <_IO_stdin_used+0xd51>
    b025:	48 89 c7             	mov    %rax,%rdi
    b028:	e8 c6 a6 ff ff       	callq  56f3 <transparent_crc>
    b02d:	8b 05 11 59 00 00    	mov    0x5911(%rip),%eax        # 10944 <g_775+0x14>
    b033:	25 ff ff 03 00       	and    $0x3ffff,%eax
    b038:	89 c1                	mov    %eax,%ecx
    b03a:	8b 45 fc             	mov    -0x4(%rbp),%eax
    b03d:	89 c2                	mov    %eax,%edx
    b03f:	48 8d 35 14 1d 00 00 	lea    0x1d14(%rip),%rsi        # cd5a <_IO_stdin_used+0xd5a>
    b046:	48 89 cf             	mov    %rcx,%rdi
    b049:	e8 a5 a6 ff ff       	callq  56f3 <transparent_crc>
    b04e:	48 8b 05 f3 58 00 00 	mov    0x58f3(%rip),%rax        # 10948 <g_775+0x18>
    b055:	25 ff ff 1f 00       	and    $0x1fffff,%eax
    b05a:	89 c1                	mov    %eax,%ecx
    b05c:	8b 45 fc             	mov    -0x4(%rbp),%eax
    b05f:	89 c2                	mov    %eax,%edx
    b061:	48 8d 35 fb 1c 00 00 	lea    0x1cfb(%rip),%rsi        # cd63 <_IO_stdin_used+0xd63>
    b068:	48 89 cf             	mov    %rcx,%rdi
    b06b:	e8 83 a6 ff ff       	callq  56f3 <transparent_crc>
    b070:	0f b6 05 d3 58 00 00 	movzbl 0x58d3(%rip),%eax        # 1094a <g_775+0x1a>
    b077:	01 c0                	add    %eax,%eax
    b079:	c0 f8 06             	sar    $0x6,%al
    b07c:	48 0f be c0          	movsbq %al,%rax
    b080:	8b 55 fc             	mov    -0x4(%rbp),%edx
    b083:	48 8d 35 e2 1c 00 00 	lea    0x1ce2(%rip),%rsi        # cd6c <_IO_stdin_used+0xd6c>
    b08a:	48 89 c7             	mov    %rax,%rdi
    b08d:	e8 61 a6 ff ff       	callq  56f3 <transparent_crc>
    b092:	0f b7 05 b1 58 00 00 	movzwl 0x58b1(%rip),%eax        # 1094a <g_775+0x1a>
    b099:	66 c1 e8 07          	shr    $0x7,%ax
    b09d:	83 e0 03             	and    $0x3,%eax
    b0a0:	0f b6 c0             	movzbl %al,%eax
    b0a3:	8b 55 fc             	mov    -0x4(%rbp),%edx
    b0a6:	48 8d 35 c8 1c 00 00 	lea    0x1cc8(%rip),%rsi        # cd75 <_IO_stdin_used+0xd75>
    b0ad:	48 89 c7             	mov    %rax,%rdi
    b0b0:	e8 3e a6 ff ff       	callq  56f3 <transparent_crc>
    b0b5:	c7 45 f0 00 00 00 00 	movl   $0x0,-0x10(%rbp)
    b0bc:	e9 7f 02 00 00       	jmpq   b340 <main+0x1386>
    b0c1:	8b 45 f0             	mov    -0x10(%rbp),%eax
    b0c4:	48 63 d0             	movslq %eax,%rdx
    b0c7:	48 89 d0             	mov    %rdx,%rax
    b0ca:	48 c1 e0 03          	shl    $0x3,%rax
    b0ce:	48 29 d0             	sub    %rdx,%rax
    b0d1:	48 c1 e0 02          	shl    $0x2,%rax
    b0d5:	48 89 c2             	mov    %rax,%rdx
    b0d8:	48 8d 05 81 58 00 00 	lea    0x5881(%rip),%rax        # 10960 <g_852>
    b0df:	8b 04 02             	mov    (%rdx,%rax,1),%eax
    b0e2:	25 ff ff 1f 00       	and    $0x1fffff,%eax
    b0e7:	89 c1                	mov    %eax,%ecx
    b0e9:	8b 45 fc             	mov    -0x4(%rbp),%eax
    b0ec:	89 c2                	mov    %eax,%edx
    b0ee:	48 8d 35 89 1c 00 00 	lea    0x1c89(%rip),%rsi        # cd7e <_IO_stdin_used+0xd7e>
    b0f5:	48 89 cf             	mov    %rcx,%rdi
    b0f8:	e8 f6 a5 ff ff       	callq  56f3 <transparent_crc>
    b0fd:	8b 45 f0             	mov    -0x10(%rbp),%eax
    b100:	48 63 d0             	movslq %eax,%rdx
    b103:	48 89 d0             	mov    %rdx,%rax
    b106:	48 c1 e0 03          	shl    $0x3,%rax
    b10a:	48 29 d0             	sub    %rdx,%rax
    b10d:	48 c1 e0 02          	shl    $0x2,%rax
    b111:	48 89 c2             	mov    %rax,%rdx
    b114:	48 8d 05 45 58 00 00 	lea    0x5845(%rip),%rax        # 10960 <g_852>
    b11b:	8b 44 02 04          	mov    0x4(%rdx,%rax,1),%eax
    b11f:	25 ff ff ff 07       	and    $0x7ffffff,%eax
    b124:	89 c1                	mov    %eax,%ecx
    b126:	8b 45 fc             	mov    -0x4(%rbp),%eax
    b129:	89 c2                	mov    %eax,%edx
    b12b:	48 8d 35 58 1c 00 00 	lea    0x1c58(%rip),%rsi        # cd8a <_IO_stdin_used+0xd8a>
    b132:	48 89 cf             	mov    %rcx,%rdi
    b135:	e8 b9 a5 ff ff       	callq  56f3 <transparent_crc>
    b13a:	8b 45 f0             	mov    -0x10(%rbp),%eax
    b13d:	48 63 d0             	movslq %eax,%rdx
    b140:	48 89 d0             	mov    %rdx,%rax
    b143:	48 c1 e0 03          	shl    $0x3,%rax
    b147:	48 29 d0             	sub    %rdx,%rax
    b14a:	48 c1 e0 02          	shl    $0x2,%rax
    b14e:	48 89 c2             	mov    %rax,%rdx
    b151:	48 8d 05 08 58 00 00 	lea    0x5808(%rip),%rax        # 10960 <g_852>
    b158:	8b 44 02 08          	mov    0x8(%rdx,%rax,1),%eax
    b15c:	c1 e0 08             	shl    $0x8,%eax
    b15f:	c1 f8 08             	sar    $0x8,%eax
    b162:	48 98                	cltq   
    b164:	8b 55 fc             	mov    -0x4(%rbp),%edx
    b167:	48 8d 35 28 1c 00 00 	lea    0x1c28(%rip),%rsi        # cd96 <_IO_stdin_used+0xd96>
    b16e:	48 89 c7             	mov    %rax,%rdi
    b171:	e8 7d a5 ff ff       	callq  56f3 <transparent_crc>
    b176:	8b 45 f0             	mov    -0x10(%rbp),%eax
    b179:	48 63 d0             	movslq %eax,%rdx
    b17c:	48 89 d0             	mov    %rdx,%rax
    b17f:	48 c1 e0 03          	shl    $0x3,%rax
    b183:	48 29 d0             	sub    %rdx,%rax
    b186:	48 c1 e0 02          	shl    $0x2,%rax
    b18a:	48 89 c2             	mov    %rax,%rdx
    b18d:	48 8d 05 cc 57 00 00 	lea    0x57cc(%rip),%rax        # 10960 <g_852>
    b194:	8b 44 02 08          	mov    0x8(%rdx,%rax,1),%eax
    b198:	c1 e0 04             	shl    $0x4,%eax
    b19b:	c1 f8 1c             	sar    $0x1c,%eax
    b19e:	48 0f be c0          	movsbq %al,%rax
    b1a2:	8b 55 fc             	mov    -0x4(%rbp),%edx
    b1a5:	48 8d 35 f6 1b 00 00 	lea    0x1bf6(%rip),%rsi        # cda2 <_IO_stdin_used+0xda2>
    b1ac:	48 89 c7             	mov    %rax,%rdi
    b1af:	e8 3f a5 ff ff       	callq  56f3 <transparent_crc>
    b1b4:	8b 45 f0             	mov    -0x10(%rbp),%eax
    b1b7:	48 63 d0             	movslq %eax,%rdx
    b1ba:	48 89 d0             	mov    %rdx,%rax
    b1bd:	48 c1 e0 03          	shl    $0x3,%rax
    b1c1:	48 29 d0             	sub    %rdx,%rax
    b1c4:	48 c1 e0 02          	shl    $0x2,%rax
    b1c8:	48 89 c2             	mov    %rax,%rdx
    b1cb:	48 8d 05 8e 57 00 00 	lea    0x578e(%rip),%rax        # 10960 <g_852>
    b1d2:	8b 44 02 0c          	mov    0xc(%rdx,%rax,1),%eax
    b1d6:	c1 e0 07             	shl    $0x7,%eax
    b1d9:	c1 f8 07             	sar    $0x7,%eax
    b1dc:	48 98                	cltq   
    b1de:	8b 55 fc             	mov    -0x4(%rbp),%edx
    b1e1:	48 8d 35 c6 1b 00 00 	lea    0x1bc6(%rip),%rsi        # cdae <_IO_stdin_used+0xdae>
    b1e8:	48 89 c7             	mov    %rax,%rdi
    b1eb:	e8 03 a5 ff ff       	callq  56f3 <transparent_crc>
    b1f0:	8b 45 f0             	mov    -0x10(%rbp),%eax
    b1f3:	48 63 d0             	movslq %eax,%rdx
    b1f6:	48 89 d0             	mov    %rdx,%rax
    b1f9:	48 c1 e0 03          	shl    $0x3,%rax
    b1fd:	48 29 d0             	sub    %rdx,%rax
    b200:	48 c1 e0 02          	shl    $0x2,%rax
    b204:	48 89 c2             	mov    %rax,%rdx
    b207:	48 8d 05 62 57 00 00 	lea    0x5762(%rip),%rax        # 10970 <g_852+0x10>
    b20e:	8b 04 02             	mov    (%rdx,%rax,1),%eax
    b211:	c1 e0 0d             	shl    $0xd,%eax
    b214:	c1 f8 0d             	sar    $0xd,%eax
    b217:	48 98                	cltq   
    b219:	8b 55 fc             	mov    -0x4(%rbp),%edx
    b21c:	48 8d 35 97 1b 00 00 	lea    0x1b97(%rip),%rsi        # cdba <_IO_stdin_used+0xdba>
    b223:	48 89 c7             	mov    %rax,%rdi
    b226:	e8 c8 a4 ff ff       	callq  56f3 <transparent_crc>
    b22b:	8b 45 f0             	mov    -0x10(%rbp),%eax
    b22e:	48 63 d0             	movslq %eax,%rdx
    b231:	48 89 d0             	mov    %rdx,%rax
    b234:	48 c1 e0 03          	shl    $0x3,%rax
    b238:	48 29 d0             	sub    %rdx,%rax
    b23b:	48 c1 e0 02          	shl    $0x2,%rax
    b23f:	48 89 c2             	mov    %rax,%rdx
    b242:	48 8d 05 27 57 00 00 	lea    0x5727(%rip),%rax        # 10970 <g_852+0x10>
    b249:	8b 44 02 04          	mov    0x4(%rdx,%rax,1),%eax
    b24d:	25 ff ff 03 00       	and    $0x3ffff,%eax
    b252:	89 c1                	mov    %eax,%ecx
    b254:	8b 45 fc             	mov    -0x4(%rbp),%eax
    b257:	89 c2                	mov    %eax,%edx
    b259:	48 8d 35 66 1b 00 00 	lea    0x1b66(%rip),%rsi        # cdc6 <_IO_stdin_used+0xdc6>
    b260:	48 89 cf             	mov    %rcx,%rdi
    b263:	e8 8b a4 ff ff       	callq  56f3 <transparent_crc>
    b268:	8b 45 f0             	mov    -0x10(%rbp),%eax
    b26b:	48 63 d0             	movslq %eax,%rdx
    b26e:	48 89 d0             	mov    %rdx,%rax
    b271:	48 c1 e0 03          	shl    $0x3,%rax
    b275:	48 29 d0             	sub    %rdx,%rax
    b278:	48 c1 e0 02          	shl    $0x2,%rax
    b27c:	48 89 c2             	mov    %rax,%rdx
    b27f:	48 8d 05 ea 56 00 00 	lea    0x56ea(%rip),%rax        # 10970 <g_852+0x10>
    b286:	8b 44 02 08          	mov    0x8(%rdx,%rax,1),%eax
    b28a:	25 ff ff 1f 00       	and    $0x1fffff,%eax
    b28f:	89 c1                	mov    %eax,%ecx
    b291:	8b 45 fc             	mov    -0x4(%rbp),%eax
    b294:	89 c2                	mov    %eax,%edx
    b296:	48 8d 35 35 1b 00 00 	lea    0x1b35(%rip),%rsi        # cdd2 <_IO_stdin_used+0xdd2>
    b29d:	48 89 cf             	mov    %rcx,%rdi
    b2a0:	e8 4e a4 ff ff       	callq  56f3 <transparent_crc>
    b2a5:	8b 45 f0             	mov    -0x10(%rbp),%eax
    b2a8:	48 63 d0             	movslq %eax,%rdx
    b2ab:	48 89 d0             	mov    %rdx,%rax
    b2ae:	48 c1 e0 03          	shl    $0x3,%rax
    b2b2:	48 29 d0             	sub    %rdx,%rax
    b2b5:	48 c1 e0 02          	shl    $0x2,%rax
    b2b9:	48 89 c2             	mov    %rax,%rdx
    b2bc:	48 8d 05 ad 56 00 00 	lea    0x56ad(%rip),%rax        # 10970 <g_852+0x10>
    b2c3:	8b 44 02 08          	mov    0x8(%rdx,%rax,1),%eax
    b2c7:	c1 e0 09             	shl    $0x9,%eax
    b2ca:	c1 f8 1e             	sar    $0x1e,%eax
    b2cd:	48 0f be c0          	movsbq %al,%rax
    b2d1:	8b 55 fc             	mov    -0x4(%rbp),%edx
    b2d4:	48 8d 35 03 1b 00 00 	lea    0x1b03(%rip),%rsi        # cdde <_IO_stdin_used+0xdde>
    b2db:	48 89 c7             	mov    %rax,%rdi
    b2de:	e8 10 a4 ff ff       	callq  56f3 <transparent_crc>
    b2e3:	8b 45 f0             	mov    -0x10(%rbp),%eax
    b2e6:	48 63 d0             	movslq %eax,%rdx
    b2e9:	48 89 d0             	mov    %rdx,%rax
    b2ec:	48 c1 e0 03          	shl    $0x3,%rax
    b2f0:	48 29 d0             	sub    %rdx,%rax
    b2f3:	48 c1 e0 02          	shl    $0x2,%rax
    b2f7:	48 89 c2             	mov    %rax,%rdx
    b2fa:	48 8d 05 6f 56 00 00 	lea    0x566f(%rip),%rax        # 10970 <g_852+0x10>
    b301:	8b 44 02 08          	mov    0x8(%rdx,%rax,1),%eax
    b305:	c1 e8 17             	shr    $0x17,%eax
    b308:	83 e0 03             	and    $0x3,%eax
    b30b:	0f b6 c0             	movzbl %al,%eax
    b30e:	8b 55 fc             	mov    -0x4(%rbp),%edx
    b311:	48 8d 35 d2 1a 00 00 	lea    0x1ad2(%rip),%rsi        # cdea <_IO_stdin_used+0xdea>
    b318:	48 89 c7             	mov    %rax,%rdi
    b31b:	e8 d3 a3 ff ff       	callq  56f3 <transparent_crc>
    b320:	83 7d fc 00          	cmpl   $0x0,-0x4(%rbp)
    b324:	74 16                	je     b33c <main+0x1382>
    b326:	8b 45 f0             	mov    -0x10(%rbp),%eax
    b329:	89 c6                	mov    %eax,%esi
    b32b:	48 8d 3d 0a 18 00 00 	lea    0x180a(%rip),%rdi        # cb3c <_IO_stdin_used+0xb3c>
    b332:	b8 00 00 00 00       	mov    $0x0,%eax
    b337:	e8 44 8d ff ff       	callq  4080 <printf@plt>
    b33c:	83 45 f0 01          	addl   $0x1,-0x10(%rbp)
    b340:	83 7d f0 05          	cmpl   $0x5,-0x10(%rbp)
    b344:	0f 8e 77 fd ff ff    	jle    b0c1 <main+0x1107>
    b34a:	c7 45 f0 00 00 00 00 	movl   $0x0,-0x10(%rbp)
    b351:	e9 7f 02 00 00       	jmpq   b5d5 <main+0x161b>
    b356:	8b 45 f0             	mov    -0x10(%rbp),%eax
    b359:	48 63 d0             	movslq %eax,%rdx
    b35c:	48 89 d0             	mov    %rdx,%rax
    b35f:	48 c1 e0 03          	shl    $0x3,%rax
    b363:	48 29 d0             	sub    %rdx,%rax
    b366:	48 c1 e0 02          	shl    $0x2,%rax
    b36a:	48 89 c2             	mov    %rax,%rdx
    b36d:	48 8d 05 ac 56 00 00 	lea    0x56ac(%rip),%rax        # 10a20 <g_853>
    b374:	8b 04 02             	mov    (%rdx,%rax,1),%eax
    b377:	25 ff ff 1f 00       	and    $0x1fffff,%eax
    b37c:	89 c1                	mov    %eax,%ecx
    b37e:	8b 45 fc             	mov    -0x4(%rbp),%eax
    b381:	89 c2                	mov    %eax,%edx
    b383:	48 8d 35 6c 1a 00 00 	lea    0x1a6c(%rip),%rsi        # cdf6 <_IO_stdin_used+0xdf6>
    b38a:	48 89 cf             	mov    %rcx,%rdi
    b38d:	e8 61 a3 ff ff       	callq  56f3 <transparent_crc>
    b392:	8b 45 f0             	mov    -0x10(%rbp),%eax
    b395:	48 63 d0             	movslq %eax,%rdx
    b398:	48 89 d0             	mov    %rdx,%rax
    b39b:	48 c1 e0 03          	shl    $0x3,%rax
    b39f:	48 29 d0             	sub    %rdx,%rax
    b3a2:	48 c1 e0 02          	shl    $0x2,%rax
    b3a6:	48 89 c2             	mov    %rax,%rdx
    b3a9:	48 8d 05 70 56 00 00 	lea    0x5670(%rip),%rax        # 10a20 <g_853>
    b3b0:	8b 44 02 04          	mov    0x4(%rdx,%rax,1),%eax
    b3b4:	25 ff ff ff 07       	and    $0x7ffffff,%eax
    b3b9:	89 c1                	mov    %eax,%ecx
    b3bb:	8b 45 fc             	mov    -0x4(%rbp),%eax
    b3be:	89 c2                	mov    %eax,%edx
    b3c0:	48 8d 35 3b 1a 00 00 	lea    0x1a3b(%rip),%rsi        # ce02 <_IO_stdin_used+0xe02>
    b3c7:	48 89 cf             	mov    %rcx,%rdi
    b3ca:	e8 24 a3 ff ff       	callq  56f3 <transparent_crc>
    b3cf:	8b 45 f0             	mov    -0x10(%rbp),%eax
    b3d2:	48 63 d0             	movslq %eax,%rdx
    b3d5:	48 89 d0             	mov    %rdx,%rax
    b3d8:	48 c1 e0 03          	shl    $0x3,%rax
    b3dc:	48 29 d0             	sub    %rdx,%rax
    b3df:	48 c1 e0 02          	shl    $0x2,%rax
    b3e3:	48 89 c2             	mov    %rax,%rdx
    b3e6:	48 8d 05 33 56 00 00 	lea    0x5633(%rip),%rax        # 10a20 <g_853>
    b3ed:	8b 44 02 08          	mov    0x8(%rdx,%rax,1),%eax
    b3f1:	c1 e0 08             	shl    $0x8,%eax
    b3f4:	c1 f8 08             	sar    $0x8,%eax
    b3f7:	48 98                	cltq   
    b3f9:	8b 55 fc             	mov    -0x4(%rbp),%edx
    b3fc:	48 8d 35 0b 1a 00 00 	lea    0x1a0b(%rip),%rsi        # ce0e <_IO_stdin_used+0xe0e>
    b403:	48 89 c7             	mov    %rax,%rdi
    b406:	e8 e8 a2 ff ff       	callq  56f3 <transparent_crc>
    b40b:	8b 45 f0             	mov    -0x10(%rbp),%eax
    b40e:	48 63 d0             	movslq %eax,%rdx
    b411:	48 89 d0             	mov    %rdx,%rax
    b414:	48 c1 e0 03          	shl    $0x3,%rax
    b418:	48 29 d0             	sub    %rdx,%rax
    b41b:	48 c1 e0 02          	shl    $0x2,%rax
    b41f:	48 89 c2             	mov    %rax,%rdx
    b422:	48 8d 05 f7 55 00 00 	lea    0x55f7(%rip),%rax        # 10a20 <g_853>
    b429:	8b 44 02 08          	mov    0x8(%rdx,%rax,1),%eax
    b42d:	c1 e0 04             	shl    $0x4,%eax
    b430:	c1 f8 1c             	sar    $0x1c,%eax
    b433:	48 0f be c0          	movsbq %al,%rax
    b437:	8b 55 fc             	mov    -0x4(%rbp),%edx
    b43a:	48 8d 35 d9 19 00 00 	lea    0x19d9(%rip),%rsi        # ce1a <_IO_stdin_used+0xe1a>
    b441:	48 89 c7             	mov    %rax,%rdi
    b444:	e8 aa a2 ff ff       	callq  56f3 <transparent_crc>
    b449:	8b 45 f0             	mov    -0x10(%rbp),%eax
    b44c:	48 63 d0             	movslq %eax,%rdx
    b44f:	48 89 d0             	mov    %rdx,%rax
    b452:	48 c1 e0 03          	shl    $0x3,%rax
    b456:	48 29 d0             	sub    %rdx,%rax
    b459:	48 c1 e0 02          	shl    $0x2,%rax
    b45d:	48 89 c2             	mov    %rax,%rdx
    b460:	48 8d 05 b9 55 00 00 	lea    0x55b9(%rip),%rax        # 10a20 <g_853>
    b467:	8b 44 02 0c          	mov    0xc(%rdx,%rax,1),%eax
    b46b:	c1 e0 07             	shl    $0x7,%eax
    b46e:	c1 f8 07             	sar    $0x7,%eax
    b471:	48 98                	cltq   
    b473:	8b 55 fc             	mov    -0x4(%rbp),%edx
    b476:	48 8d 35 a9 19 00 00 	lea    0x19a9(%rip),%rsi        # ce26 <_IO_stdin_used+0xe26>
    b47d:	48 89 c7             	mov    %rax,%rdi
    b480:	e8 6e a2 ff ff       	callq  56f3 <transparent_crc>
    b485:	8b 45 f0             	mov    -0x10(%rbp),%eax
    b488:	48 63 d0             	movslq %eax,%rdx
    b48b:	48 89 d0             	mov    %rdx,%rax
    b48e:	48 c1 e0 03          	shl    $0x3,%rax
    b492:	48 29 d0             	sub    %rdx,%rax
    b495:	48 c1 e0 02          	shl    $0x2,%rax
    b499:	48 89 c2             	mov    %rax,%rdx
    b49c:	48 8d 05 8d 55 00 00 	lea    0x558d(%rip),%rax        # 10a30 <g_853+0x10>
    b4a3:	8b 04 02             	mov    (%rdx,%rax,1),%eax
    b4a6:	c1 e0 0d             	shl    $0xd,%eax
    b4a9:	c1 f8 0d             	sar    $0xd,%eax
    b4ac:	48 98                	cltq   
    b4ae:	8b 55 fc             	mov    -0x4(%rbp),%edx
    b4b1:	48 8d 35 7a 19 00 00 	lea    0x197a(%rip),%rsi        # ce32 <_IO_stdin_used+0xe32>
    b4b8:	48 89 c7             	mov    %rax,%rdi
    b4bb:	e8 33 a2 ff ff       	callq  56f3 <transparent_crc>
    b4c0:	8b 45 f0             	mov    -0x10(%rbp),%eax
    b4c3:	48 63 d0             	movslq %eax,%rdx
    b4c6:	48 89 d0             	mov    %rdx,%rax
    b4c9:	48 c1 e0 03          	shl    $0x3,%rax
    b4cd:	48 29 d0             	sub    %rdx,%rax
    b4d0:	48 c1 e0 02          	shl    $0x2,%rax
    b4d4:	48 89 c2             	mov    %rax,%rdx
    b4d7:	48 8d 05 52 55 00 00 	lea    0x5552(%rip),%rax        # 10a30 <g_853+0x10>
    b4de:	8b 44 02 04          	mov    0x4(%rdx,%rax,1),%eax
    b4e2:	25 ff ff 03 00       	and    $0x3ffff,%eax
    b4e7:	89 c1                	mov    %eax,%ecx
    b4e9:	8b 45 fc             	mov    -0x4(%rbp),%eax
    b4ec:	89 c2                	mov    %eax,%edx
    b4ee:	48 8d 35 49 19 00 00 	lea    0x1949(%rip),%rsi        # ce3e <_IO_stdin_used+0xe3e>
    b4f5:	48 89 cf             	mov    %rcx,%rdi
    b4f8:	e8 f6 a1 ff ff       	callq  56f3 <transparent_crc>
    b4fd:	8b 45 f0             	mov    -0x10(%rbp),%eax
    b500:	48 63 d0             	movslq %eax,%rdx
    b503:	48 89 d0             	mov    %rdx,%rax
    b506:	48 c1 e0 03          	shl    $0x3,%rax
    b50a:	48 29 d0             	sub    %rdx,%rax
    b50d:	48 c1 e0 02          	shl    $0x2,%rax
    b511:	48 89 c2             	mov    %rax,%rdx
    b514:	48 8d 05 15 55 00 00 	lea    0x5515(%rip),%rax        # 10a30 <g_853+0x10>
    b51b:	8b 44 02 08          	mov    0x8(%rdx,%rax,1),%eax
    b51f:	25 ff ff 1f 00       	and    $0x1fffff,%eax
    b524:	89 c1                	mov    %eax,%ecx
    b526:	8b 45 fc             	mov    -0x4(%rbp),%eax
    b529:	89 c2                	mov    %eax,%edx
    b52b:	48 8d 35 18 19 00 00 	lea    0x1918(%rip),%rsi        # ce4a <_IO_stdin_used+0xe4a>
    b532:	48 89 cf             	mov    %rcx,%rdi
    b535:	e8 b9 a1 ff ff       	callq  56f3 <transparent_crc>
    b53a:	8b 45 f0             	mov    -0x10(%rbp),%eax
    b53d:	48 63 d0             	movslq %eax,%rdx
    b540:	48 89 d0             	mov    %rdx,%rax
    b543:	48 c1 e0 03          	shl    $0x3,%rax
    b547:	48 29 d0             	sub    %rdx,%rax
    b54a:	48 c1 e0 02          	shl    $0x2,%rax
    b54e:	48 89 c2             	mov    %rax,%rdx
    b551:	48 8d 05 d8 54 00 00 	lea    0x54d8(%rip),%rax        # 10a30 <g_853+0x10>
    b558:	8b 44 02 08          	mov    0x8(%rdx,%rax,1),%eax
    b55c:	c1 e0 09             	shl    $0x9,%eax
    b55f:	c1 f8 1e             	sar    $0x1e,%eax
    b562:	48 0f be c0          	movsbq %al,%rax
    b566:	8b 55 fc             	mov    -0x4(%rbp),%edx
    b569:	48 8d 35 e6 18 00 00 	lea    0x18e6(%rip),%rsi        # ce56 <_IO_stdin_used+0xe56>
    b570:	48 89 c7             	mov    %rax,%rdi
    b573:	e8 7b a1 ff ff       	callq  56f3 <transparent_crc>
    b578:	8b 45 f0             	mov    -0x10(%rbp),%eax
    b57b:	48 63 d0             	movslq %eax,%rdx
    b57e:	48 89 d0             	mov    %rdx,%rax
    b581:	48 c1 e0 03          	shl    $0x3,%rax
    b585:	48 29 d0             	sub    %rdx,%rax
    b588:	48 c1 e0 02          	shl    $0x2,%rax
    b58c:	48 89 c2             	mov    %rax,%rdx
    b58f:	48 8d 05 9a 54 00 00 	lea    0x549a(%rip),%rax        # 10a30 <g_853+0x10>
    b596:	8b 44 02 08          	mov    0x8(%rdx,%rax,1),%eax
    b59a:	c1 e8 17             	shr    $0x17,%eax
    b59d:	83 e0 03             	and    $0x3,%eax
    b5a0:	0f b6 c0             	movzbl %al,%eax
    b5a3:	8b 55 fc             	mov    -0x4(%rbp),%edx
    b5a6:	48 8d 35 b5 18 00 00 	lea    0x18b5(%rip),%rsi        # ce62 <_IO_stdin_used+0xe62>
    b5ad:	48 89 c7             	mov    %rax,%rdi
    b5b0:	e8 3e a1 ff ff       	callq  56f3 <transparent_crc>
    b5b5:	83 7d fc 00          	cmpl   $0x0,-0x4(%rbp)
    b5b9:	74 16                	je     b5d1 <main+0x1617>
    b5bb:	8b 45 f0             	mov    -0x10(%rbp),%eax
    b5be:	89 c6                	mov    %eax,%esi
    b5c0:	48 8d 3d 75 15 00 00 	lea    0x1575(%rip),%rdi        # cb3c <_IO_stdin_used+0xb3c>
    b5c7:	b8 00 00 00 00       	mov    $0x0,%eax
    b5cc:	e8 af 8a ff ff       	callq  4080 <printf@plt>
    b5d1:	83 45 f0 01          	addl   $0x1,-0x10(%rbp)
    b5d5:	83 7d f0 07          	cmpl   $0x7,-0x10(%rbp)
    b5d9:	0f 8e 77 fd ff ff    	jle    b356 <main+0x139c>
    b5df:	48 8b 05 1a 55 00 00 	mov    0x551a(%rip),%rax        # 10b00 <g_908>
    b5e6:	25 ff ff 1f 00       	and    $0x1fffff,%eax
    b5eb:	89 c1                	mov    %eax,%ecx
    b5ed:	8b 45 fc             	mov    -0x4(%rbp),%eax
    b5f0:	89 c2                	mov    %eax,%edx
    b5f2:	48 8d 35 75 18 00 00 	lea    0x1875(%rip),%rsi        # ce6e <_IO_stdin_used+0xe6e>
    b5f9:	48 89 cf             	mov    %rcx,%rdi
    b5fc:	e8 f2 a0 ff ff       	callq  56f3 <transparent_crc>
    b601:	48 8b 05 f8 54 00 00 	mov    0x54f8(%rip),%rax        # 10b00 <g_908>
    b608:	48 c1 e8 20          	shr    $0x20,%rax
    b60c:	25 ff ff ff 07       	and    $0x7ffffff,%eax
    b611:	89 c1                	mov    %eax,%ecx
    b613:	8b 45 fc             	mov    -0x4(%rbp),%eax
    b616:	89 c2                	mov    %eax,%edx
    b618:	48 8d 35 58 18 00 00 	lea    0x1858(%rip),%rsi        # ce77 <_IO_stdin_used+0xe77>
    b61f:	48 89 cf             	mov    %rcx,%rdi
    b622:	e8 cc a0 ff ff       	callq  56f3 <transparent_crc>
    b627:	48 8b 05 da 54 00 00 	mov    0x54da(%rip),%rax        # 10b08 <g_908+0x8>
    b62e:	c1 e0 08             	shl    $0x8,%eax
    b631:	c1 f8 08             	sar    $0x8,%eax
    b634:	48 98                	cltq   
    b636:	8b 55 fc             	mov    -0x4(%rbp),%edx
    b639:	48 8d 35 40 18 00 00 	lea    0x1840(%rip),%rsi        # ce80 <_IO_stdin_used+0xe80>
    b640:	48 89 c7             	mov    %rax,%rdi
    b643:	e8 ab a0 ff ff       	callq  56f3 <transparent_crc>
    b648:	48 8b 05 b9 54 00 00 	mov    0x54b9(%rip),%rax        # 10b08 <g_908+0x8>
    b64f:	c1 e0 04             	shl    $0x4,%eax
    b652:	c1 f8 1c             	sar    $0x1c,%eax
    b655:	48 0f be c0          	movsbq %al,%rax
    b659:	8b 55 fc             	mov    -0x4(%rbp),%edx
    b65c:	48 8d 35 26 18 00 00 	lea    0x1826(%rip),%rsi        # ce89 <_IO_stdin_used+0xe89>
    b663:	48 89 c7             	mov    %rax,%rdi
    b666:	e8 88 a0 ff ff       	callq  56f3 <transparent_crc>
    b66b:	48 8b 05 96 54 00 00 	mov    0x5496(%rip),%rax        # 10b08 <g_908+0x8>
    b672:	48 c1 e0 07          	shl    $0x7,%rax
    b676:	48 c1 f8 27          	sar    $0x27,%rax
    b67a:	48 98                	cltq   
    b67c:	8b 55 fc             	mov    -0x4(%rbp),%edx
    b67f:	48 8d 35 0c 18 00 00 	lea    0x180c(%rip),%rsi        # ce92 <_IO_stdin_used+0xe92>
    b686:	48 89 c7             	mov    %rax,%rdi
    b689:	e8 65 a0 ff ff       	callq  56f3 <transparent_crc>
    b68e:	48 8b 05 7b 54 00 00 	mov    0x547b(%rip),%rax        # 10b10 <g_908+0x10>
    b695:	c1 e0 0d             	shl    $0xd,%eax
    b698:	c1 f8 0d             	sar    $0xd,%eax
    b69b:	48 98                	cltq   
    b69d:	8b 55 fc             	mov    -0x4(%rbp),%edx
    b6a0:	48 8d 35 f4 17 00 00 	lea    0x17f4(%rip),%rsi        # ce9b <_IO_stdin_used+0xe9b>
    b6a7:	48 89 c7             	mov    %rax,%rdi
    b6aa:	e8 44 a0 ff ff       	callq  56f3 <transparent_crc>
    b6af:	48 8b 05 5a 54 00 00 	mov    0x545a(%rip),%rax        # 10b10 <g_908+0x10>
    b6b6:	48 c1 e8 20          	shr    $0x20,%rax
    b6ba:	25 ff ff 03 00       	and    $0x3ffff,%eax
    b6bf:	89 c1                	mov    %eax,%ecx
    b6c1:	8b 45 fc             	mov    -0x4(%rbp),%eax
    b6c4:	89 c2                	mov    %eax,%edx
    b6c6:	48 8d 35 d7 17 00 00 	lea    0x17d7(%rip),%rsi        # cea4 <_IO_stdin_used+0xea4>
    b6cd:	48 89 cf             	mov    %rcx,%rdi
    b6d0:	e8 1e a0 ff ff       	callq  56f3 <transparent_crc>
    b6d5:	48 8b 05 3c 54 00 00 	mov    0x543c(%rip),%rax        # 10b18 <g_908+0x18>
    b6dc:	25 ff ff 1f 00       	and    $0x1fffff,%eax
    b6e1:	89 c1                	mov    %eax,%ecx
    b6e3:	8b 45 fc             	mov    -0x4(%rbp),%eax
    b6e6:	89 c2                	mov    %eax,%edx
    b6e8:	48 8d 35 be 17 00 00 	lea    0x17be(%rip),%rsi        # cead <_IO_stdin_used+0xead>
    b6ef:	48 89 cf             	mov    %rcx,%rdi
    b6f2:	e8 fc 9f ff ff       	callq  56f3 <transparent_crc>
    b6f7:	48 8b 05 1a 54 00 00 	mov    0x541a(%rip),%rax        # 10b18 <g_908+0x18>
    b6fe:	c1 e0 09             	shl    $0x9,%eax
    b701:	c1 f8 1e             	sar    $0x1e,%eax
    b704:	48 0f be c0          	movsbq %al,%rax
    b708:	8b 55 fc             	mov    -0x4(%rbp),%edx
    b70b:	48 8d 35 a4 17 00 00 	lea    0x17a4(%rip),%rsi        # ceb6 <_IO_stdin_used+0xeb6>
    b712:	48 89 c7             	mov    %rax,%rdi
    b715:	e8 d9 9f ff ff       	callq  56f3 <transparent_crc>
    b71a:	48 8b 05 f7 53 00 00 	mov    0x53f7(%rip),%rax        # 10b18 <g_908+0x18>
    b721:	48 c1 e8 17          	shr    $0x17,%rax
    b725:	83 e0 03             	and    $0x3,%eax
    b728:	0f b6 c0             	movzbl %al,%eax
    b72b:	8b 55 fc             	mov    -0x4(%rbp),%edx
    b72e:	48 8d 35 8a 17 00 00 	lea    0x178a(%rip),%rsi        # cebf <_IO_stdin_used+0xebf>
    b735:	48 89 c7             	mov    %rax,%rdi
    b738:	e8 b6 9f ff ff       	callq  56f3 <transparent_crc>
    b73d:	c7 45 f0 00 00 00 00 	movl   $0x0,-0x10(%rbp)
    b744:	e9 35 03 00 00       	jmpq   ba7e <main+0x1ac4>
    b749:	c7 45 f4 00 00 00 00 	movl   $0x0,-0xc(%rbp)
    b750:	e9 1b 03 00 00       	jmpq   ba70 <main+0x1ab6>
    b755:	8b 45 f4             	mov    -0xc(%rbp),%eax
    b758:	48 63 d0             	movslq %eax,%rdx
    b75b:	8b 45 f0             	mov    -0x10(%rbp),%eax
    b75e:	48 63 c8             	movslq %eax,%rcx
    b761:	48 89 d0             	mov    %rdx,%rax
    b764:	48 c1 e0 03          	shl    $0x3,%rax
    b768:	48 29 d0             	sub    %rdx,%rax
    b76b:	48 c1 e0 02          	shl    $0x2,%rax
    b76f:	48 69 d1 8c 00 00 00 	imul   $0x8c,%rcx,%rdx
    b776:	48 01 c2             	add    %rax,%rdx
    b779:	48 8d 05 a0 53 00 00 	lea    0x53a0(%rip),%rax        # 10b20 <g_933>
    b780:	48 01 d0             	add    %rdx,%rax
    b783:	8b 00                	mov    (%rax),%eax
    b785:	25 ff ff 1f 00       	and    $0x1fffff,%eax
    b78a:	89 c1                	mov    %eax,%ecx
    b78c:	8b 45 fc             	mov    -0x4(%rbp),%eax
    b78f:	89 c2                	mov    %eax,%edx
    b791:	48 8d 35 30 17 00 00 	lea    0x1730(%rip),%rsi        # cec8 <_IO_stdin_used+0xec8>
    b798:	48 89 cf             	mov    %rcx,%rdi
    b79b:	e8 53 9f ff ff       	callq  56f3 <transparent_crc>
    b7a0:	8b 45 f4             	mov    -0xc(%rbp),%eax
    b7a3:	48 63 d0             	movslq %eax,%rdx
    b7a6:	8b 45 f0             	mov    -0x10(%rbp),%eax
    b7a9:	48 63 c8             	movslq %eax,%rcx
    b7ac:	48 89 d0             	mov    %rdx,%rax
    b7af:	48 c1 e0 03          	shl    $0x3,%rax
    b7b3:	48 29 d0             	sub    %rdx,%rax
    b7b6:	48 c1 e0 02          	shl    $0x2,%rax
    b7ba:	48 69 d1 8c 00 00 00 	imul   $0x8c,%rcx,%rdx
    b7c1:	48 01 c2             	add    %rax,%rdx
    b7c4:	48 8d 05 55 53 00 00 	lea    0x5355(%rip),%rax        # 10b20 <g_933>
    b7cb:	48 01 d0             	add    %rdx,%rax
    b7ce:	8b 40 04             	mov    0x4(%rax),%eax
    b7d1:	25 ff ff ff 07       	and    $0x7ffffff,%eax
    b7d6:	89 c1                	mov    %eax,%ecx
    b7d8:	8b 45 fc             	mov    -0x4(%rbp),%eax
    b7db:	89 c2                	mov    %eax,%edx
    b7dd:	48 8d 35 f3 16 00 00 	lea    0x16f3(%rip),%rsi        # ced7 <_IO_stdin_used+0xed7>
    b7e4:	48 89 cf             	mov    %rcx,%rdi
    b7e7:	e8 07 9f ff ff       	callq  56f3 <transparent_crc>
    b7ec:	8b 45 f4             	mov    -0xc(%rbp),%eax
    b7ef:	48 63 d0             	movslq %eax,%rdx
    b7f2:	8b 45 f0             	mov    -0x10(%rbp),%eax
    b7f5:	48 63 c8             	movslq %eax,%rcx
    b7f8:	48 89 d0             	mov    %rdx,%rax
    b7fb:	48 c1 e0 03          	shl    $0x3,%rax
    b7ff:	48 29 d0             	sub    %rdx,%rax
    b802:	48 c1 e0 02          	shl    $0x2,%rax
    b806:	48 69 d1 8c 00 00 00 	imul   $0x8c,%rcx,%rdx
    b80d:	48 01 c2             	add    %rax,%rdx
    b810:	48 8d 05 09 53 00 00 	lea    0x5309(%rip),%rax        # 10b20 <g_933>
    b817:	48 01 d0             	add    %rdx,%rax
    b81a:	8b 40 08             	mov    0x8(%rax),%eax
    b81d:	c1 e0 08             	shl    $0x8,%eax
    b820:	c1 f8 08             	sar    $0x8,%eax
    b823:	48 98                	cltq   
    b825:	8b 55 fc             	mov    -0x4(%rbp),%edx
    b828:	48 8d 35 b7 16 00 00 	lea    0x16b7(%rip),%rsi        # cee6 <_IO_stdin_used+0xee6>
    b82f:	48 89 c7             	mov    %rax,%rdi
    b832:	e8 bc 9e ff ff       	callq  56f3 <transparent_crc>
    b837:	8b 45 f4             	mov    -0xc(%rbp),%eax
    b83a:	48 63 d0             	movslq %eax,%rdx
    b83d:	8b 45 f0             	mov    -0x10(%rbp),%eax
    b840:	48 63 c8             	movslq %eax,%rcx
    b843:	48 89 d0             	mov    %rdx,%rax
    b846:	48 c1 e0 03          	shl    $0x3,%rax
    b84a:	48 29 d0             	sub    %rdx,%rax
    b84d:	48 c1 e0 02          	shl    $0x2,%rax
    b851:	48 69 d1 8c 00 00 00 	imul   $0x8c,%rcx,%rdx
    b858:	48 01 c2             	add    %rax,%rdx
    b85b:	48 8d 05 be 52 00 00 	lea    0x52be(%rip),%rax        # 10b20 <g_933>
    b862:	48 01 d0             	add    %rdx,%rax
    b865:	0f b6 40 0b          	movzbl 0xb(%rax),%eax
    b869:	c1 e0 04             	shl    $0x4,%eax
    b86c:	c0 f8 04             	sar    $0x4,%al
    b86f:	48 0f be c0          	movsbq %al,%rax
    b873:	8b 55 fc             	mov    -0x4(%rbp),%edx
    b876:	48 8d 35 78 16 00 00 	lea    0x1678(%rip),%rsi        # cef5 <_IO_stdin_used+0xef5>
    b87d:	48 89 c7             	mov    %rax,%rdi
    b880:	e8 6e 9e ff ff       	callq  56f3 <transparent_crc>
    b885:	8b 45 f4             	mov    -0xc(%rbp),%eax
    b888:	48 63 d0             	movslq %eax,%rdx
    b88b:	8b 45 f0             	mov    -0x10(%rbp),%eax
    b88e:	48 63 c8             	movslq %eax,%rcx
    b891:	48 89 d0             	mov    %rdx,%rax
    b894:	48 c1 e0 03          	shl    $0x3,%rax
    b898:	48 29 d0             	sub    %rdx,%rax
    b89b:	48 c1 e0 02          	shl    $0x2,%rax
    b89f:	48 69 d1 8c 00 00 00 	imul   $0x8c,%rcx,%rdx
    b8a6:	48 01 c2             	add    %rax,%rdx
    b8a9:	48 8d 05 70 52 00 00 	lea    0x5270(%rip),%rax        # 10b20 <g_933>
    b8b0:	48 01 d0             	add    %rdx,%rax
    b8b3:	8b 40 0c             	mov    0xc(%rax),%eax
    b8b6:	c1 e0 07             	shl    $0x7,%eax
    b8b9:	c1 f8 07             	sar    $0x7,%eax
    b8bc:	48 98                	cltq   
    b8be:	8b 55 fc             	mov    -0x4(%rbp),%edx
    b8c1:	48 8d 35 3c 16 00 00 	lea    0x163c(%rip),%rsi        # cf04 <_IO_stdin_used+0xf04>
    b8c8:	48 89 c7             	mov    %rax,%rdi
    b8cb:	e8 23 9e ff ff       	callq  56f3 <transparent_crc>
    b8d0:	8b 45 f4             	mov    -0xc(%rbp),%eax
    b8d3:	48 63 d0             	movslq %eax,%rdx
    b8d6:	8b 45 f0             	mov    -0x10(%rbp),%eax
    b8d9:	48 63 c8             	movslq %eax,%rcx
    b8dc:	48 89 d0             	mov    %rdx,%rax
    b8df:	48 c1 e0 03          	shl    $0x3,%rax
    b8e3:	48 29 d0             	sub    %rdx,%rax
    b8e6:	48 c1 e0 02          	shl    $0x2,%rax
    b8ea:	48 69 d1 8c 00 00 00 	imul   $0x8c,%rcx,%rdx
    b8f1:	48 01 c2             	add    %rax,%rdx
    b8f4:	48 8d 05 35 52 00 00 	lea    0x5235(%rip),%rax        # 10b30 <g_933+0x10>
    b8fb:	48 01 d0             	add    %rdx,%rax
    b8fe:	8b 00                	mov    (%rax),%eax
    b900:	c1 e0 0d             	shl    $0xd,%eax
    b903:	c1 f8 0d             	sar    $0xd,%eax
    b906:	48 98                	cltq   
    b908:	8b 55 fc             	mov    -0x4(%rbp),%edx
    b90b:	48 8d 35 01 16 00 00 	lea    0x1601(%rip),%rsi        # cf13 <_IO_stdin_used+0xf13>
    b912:	48 89 c7             	mov    %rax,%rdi
    b915:	e8 d9 9d ff ff       	callq  56f3 <transparent_crc>
    b91a:	8b 45 f4             	mov    -0xc(%rbp),%eax
    b91d:	48 63 d0             	movslq %eax,%rdx
    b920:	8b 45 f0             	mov    -0x10(%rbp),%eax
    b923:	48 63 c8             	movslq %eax,%rcx
    b926:	48 89 d0             	mov    %rdx,%rax
    b929:	48 c1 e0 03          	shl    $0x3,%rax
    b92d:	48 29 d0             	sub    %rdx,%rax
    b930:	48 c1 e0 02          	shl    $0x2,%rax
    b934:	48 69 d1 8c 00 00 00 	imul   $0x8c,%rcx,%rdx
    b93b:	48 01 c2             	add    %rax,%rdx
    b93e:	48 8d 05 eb 51 00 00 	lea    0x51eb(%rip),%rax        # 10b30 <g_933+0x10>
    b945:	48 01 d0             	add    %rdx,%rax
    b948:	8b 40 04             	mov    0x4(%rax),%eax
    b94b:	25 ff ff 03 00       	and    $0x3ffff,%eax
    b950:	89 c1                	mov    %eax,%ecx
    b952:	8b 45 fc             	mov    -0x4(%rbp),%eax
    b955:	89 c2                	mov    %eax,%edx
    b957:	48 8d 35 c4 15 00 00 	lea    0x15c4(%rip),%rsi        # cf22 <_IO_stdin_used+0xf22>
    b95e:	48 89 cf             	mov    %rcx,%rdi
    b961:	e8 8d 9d ff ff       	callq  56f3 <transparent_crc>
    b966:	8b 45 f4             	mov    -0xc(%rbp),%eax
    b969:	48 63 d0             	movslq %eax,%rdx
    b96c:	8b 45 f0             	mov    -0x10(%rbp),%eax
    b96f:	48 63 c8             	movslq %eax,%rcx
    b972:	48 89 d0             	mov    %rdx,%rax
    b975:	48 c1 e0 03          	shl    $0x3,%rax
    b979:	48 29 d0             	sub    %rdx,%rax
    b97c:	48 c1 e0 02          	shl    $0x2,%rax
    b980:	48 69 d1 8c 00 00 00 	imul   $0x8c,%rcx,%rdx
    b987:	48 01 c2             	add    %rax,%rdx
    b98a:	48 8d 05 9f 51 00 00 	lea    0x519f(%rip),%rax        # 10b30 <g_933+0x10>
    b991:	48 01 d0             	add    %rdx,%rax
    b994:	8b 40 08             	mov    0x8(%rax),%eax
    b997:	25 ff ff 1f 00       	and    $0x1fffff,%eax
    b99c:	89 c1                	mov    %eax,%ecx
    b99e:	8b 45 fc             	mov    -0x4(%rbp),%eax
    b9a1:	89 c2                	mov    %eax,%edx
    b9a3:	48 8d 35 87 15 00 00 	lea    0x1587(%rip),%rsi        # cf31 <_IO_stdin_used+0xf31>
    b9aa:	48 89 cf             	mov    %rcx,%rdi
    b9ad:	e8 41 9d ff ff       	callq  56f3 <transparent_crc>
    b9b2:	8b 45 f4             	mov    -0xc(%rbp),%eax
    b9b5:	48 63 d0             	movslq %eax,%rdx
    b9b8:	8b 45 f0             	mov    -0x10(%rbp),%eax
    b9bb:	48 63 c8             	movslq %eax,%rcx
    b9be:	48 89 d0             	mov    %rdx,%rax
    b9c1:	48 c1 e0 03          	shl    $0x3,%rax
    b9c5:	48 29 d0             	sub    %rdx,%rax
    b9c8:	48 c1 e0 02          	shl    $0x2,%rax
    b9cc:	48 69 d1 8c 00 00 00 	imul   $0x8c,%rcx,%rdx
    b9d3:	48 01 c2             	add    %rax,%rdx
    b9d6:	48 8d 05 53 51 00 00 	lea    0x5153(%rip),%rax        # 10b30 <g_933+0x10>
    b9dd:	48 01 d0             	add    %rdx,%rax
    b9e0:	0f b6 40 0a          	movzbl 0xa(%rax),%eax
    b9e4:	01 c0                	add    %eax,%eax
    b9e6:	c0 f8 06             	sar    $0x6,%al
    b9e9:	48 0f be c0          	movsbq %al,%rax
    b9ed:	8b 55 fc             	mov    -0x4(%rbp),%edx
    b9f0:	48 8d 35 49 15 00 00 	lea    0x1549(%rip),%rsi        # cf40 <_IO_stdin_used+0xf40>
    b9f7:	48 89 c7             	mov    %rax,%rdi
    b9fa:	e8 f4 9c ff ff       	callq  56f3 <transparent_crc>
    b9ff:	8b 45 f4             	mov    -0xc(%rbp),%eax
    ba02:	48 63 d0             	movslq %eax,%rdx
    ba05:	8b 45 f0             	mov    -0x10(%rbp),%eax
    ba08:	48 63 c8             	movslq %eax,%rcx
    ba0b:	48 89 d0             	mov    %rdx,%rax
    ba0e:	48 c1 e0 03          	shl    $0x3,%rax
    ba12:	48 29 d0             	sub    %rdx,%rax
    ba15:	48 c1 e0 02          	shl    $0x2,%rax
    ba19:	48 69 d1 8c 00 00 00 	imul   $0x8c,%rcx,%rdx
    ba20:	48 01 c2             	add    %rax,%rdx
    ba23:	48 8d 05 06 51 00 00 	lea    0x5106(%rip),%rax        # 10b30 <g_933+0x10>
    ba2a:	48 01 d0             	add    %rdx,%rax
    ba2d:	0f b7 40 0a          	movzwl 0xa(%rax),%eax
    ba31:	66 c1 e8 07          	shr    $0x7,%ax
    ba35:	83 e0 03             	and    $0x3,%eax
    ba38:	0f b6 c0             	movzbl %al,%eax
    ba3b:	8b 55 fc             	mov    -0x4(%rbp),%edx
    ba3e:	48 8d 35 0a 15 00 00 	lea    0x150a(%rip),%rsi        # cf4f <_IO_stdin_used+0xf4f>
    ba45:	48 89 c7             	mov    %rax,%rdi
    ba48:	e8 a6 9c ff ff       	callq  56f3 <transparent_crc>
    ba4d:	83 7d fc 00          	cmpl   $0x0,-0x4(%rbp)
    ba51:	74 19                	je     ba6c <main+0x1ab2>
    ba53:	8b 55 f4             	mov    -0xc(%rbp),%edx
    ba56:	8b 45 f0             	mov    -0x10(%rbp),%eax
    ba59:	89 c6                	mov    %eax,%esi
    ba5b:	48 8d 3d e1 0f 00 00 	lea    0xfe1(%rip),%rdi        # ca43 <_IO_stdin_used+0xa43>
    ba62:	b8 00 00 00 00       	mov    $0x0,%eax
    ba67:	e8 14 86 ff ff       	callq  4080 <printf@plt>
    ba6c:	83 45 f4 01          	addl   $0x1,-0xc(%rbp)
    ba70:	83 7d f4 04          	cmpl   $0x4,-0xc(%rbp)
    ba74:	0f 8e db fc ff ff    	jle    b755 <main+0x179b>
    ba7a:	83 45 f0 01          	addl   $0x1,-0x10(%rbp)
    ba7e:	83 7d f0 06          	cmpl   $0x6,-0x10(%rbp)
    ba82:	0f 8e c1 fc ff ff    	jle    b749 <main+0x178f>
    ba88:	0f b6 05 09 71 00 00 	movzbl 0x7109(%rip),%eax        # 12b98 <g_941>
    ba8f:	0f b6 c0             	movzbl %al,%eax
    ba92:	8b 55 fc             	mov    -0x4(%rbp),%edx
    ba95:	48 8d 35 c2 14 00 00 	lea    0x14c2(%rip),%rsi        # cf5e <_IO_stdin_used+0xf5e>
    ba9c:	48 89 c7             	mov    %rax,%rdi
    ba9f:	e8 4f 9c ff ff       	callq  56f3 <transparent_crc>
    baa4:	8b 05 4a 54 00 00    	mov    0x544a(%rip),%eax        # 10ef4 <g_981>
    baaa:	48 98                	cltq   
    baac:	8b 55 fc             	mov    -0x4(%rbp),%edx
    baaf:	48 8d 35 ae 14 00 00 	lea    0x14ae(%rip),%rsi        # cf64 <_IO_stdin_used+0xf64>
    bab6:	48 89 c7             	mov    %rax,%rdi
    bab9:	e8 35 9c ff ff       	callq  56f3 <transparent_crc>
    babe:	48 8b 05 3b 54 00 00 	mov    0x543b(%rip),%rax        # 10f00 <g_1013>
    bac5:	25 ff ff 1f 00       	and    $0x1fffff,%eax
    baca:	89 c1                	mov    %eax,%ecx
    bacc:	8b 45 fc             	mov    -0x4(%rbp),%eax
    bacf:	89 c2                	mov    %eax,%edx
    bad1:	48 8d 35 92 14 00 00 	lea    0x1492(%rip),%rsi        # cf6a <_IO_stdin_used+0xf6a>
    bad8:	48 89 cf             	mov    %rcx,%rdi
    badb:	e8 13 9c ff ff       	callq  56f3 <transparent_crc>
    bae0:	8b 05 1e 54 00 00    	mov    0x541e(%rip),%eax        # 10f04 <g_1013+0x4>
    bae6:	25 ff ff ff 07       	and    $0x7ffffff,%eax
    baeb:	89 c1                	mov    %eax,%ecx
    baed:	8b 45 fc             	mov    -0x4(%rbp),%eax
    baf0:	89 c2                	mov    %eax,%edx
    baf2:	48 8d 35 7b 14 00 00 	lea    0x147b(%rip),%rsi        # cf74 <_IO_stdin_used+0xf74>
    baf9:	48 89 cf             	mov    %rcx,%rdi
    bafc:	e8 f2 9b ff ff       	callq  56f3 <transparent_crc>
    bb01:	8b 05 01 54 00 00    	mov    0x5401(%rip),%eax        # 10f08 <g_1013+0x8>
    bb07:	c1 e0 08             	shl    $0x8,%eax
    bb0a:	c1 f8 08             	sar    $0x8,%eax
    bb0d:	48 98                	cltq   
    bb0f:	8b 55 fc             	mov    -0x4(%rbp),%edx
    bb12:	48 8d 35 65 14 00 00 	lea    0x1465(%rip),%rsi        # cf7e <_IO_stdin_used+0xf7e>
    bb19:	48 89 c7             	mov    %rax,%rdi
    bb1c:	e8 d2 9b ff ff       	callq  56f3 <transparent_crc>
    bb21:	0f b6 05 e3 53 00 00 	movzbl 0x53e3(%rip),%eax        # 10f0b <g_1013+0xb>
    bb28:	c1 e0 04             	shl    $0x4,%eax
    bb2b:	c0 f8 04             	sar    $0x4,%al
    bb2e:	48 0f be c0          	movsbq %al,%rax
    bb32:	8b 55 fc             	mov    -0x4(%rbp),%edx
    bb35:	48 8d 35 4c 14 00 00 	lea    0x144c(%rip),%rsi        # cf88 <_IO_stdin_used+0xf88>
    bb3c:	48 89 c7             	mov    %rax,%rdi
    bb3f:	e8 af 9b ff ff       	callq  56f3 <transparent_crc>
    bb44:	48 8b 05 bd 53 00 00 	mov    0x53bd(%rip),%rax        # 10f08 <g_1013+0x8>
    bb4b:	48 c1 e0 07          	shl    $0x7,%rax
    bb4f:	48 c1 f8 27          	sar    $0x27,%rax
    bb53:	48 98                	cltq   
    bb55:	8b 55 fc             	mov    -0x4(%rbp),%edx
    bb58:	48 8d 35 33 14 00 00 	lea    0x1433(%rip),%rsi        # cf92 <_IO_stdin_used+0xf92>
    bb5f:	48 89 c7             	mov    %rax,%rdi
    bb62:	e8 8c 9b ff ff       	callq  56f3 <transparent_crc>
    bb67:	48 8b 05 a2 53 00 00 	mov    0x53a2(%rip),%rax        # 10f10 <g_1013+0x10>
    bb6e:	c1 e0 0d             	shl    $0xd,%eax
    bb71:	c1 f8 0d             	sar    $0xd,%eax
    bb74:	48 98                	cltq   
    bb76:	8b 55 fc             	mov    -0x4(%rbp),%edx
    bb79:	48 8d 35 1c 14 00 00 	lea    0x141c(%rip),%rsi        # cf9c <_IO_stdin_used+0xf9c>
    bb80:	48 89 c7             	mov    %rax,%rdi
    bb83:	e8 6b 9b ff ff       	callq  56f3 <transparent_crc>
    bb88:	8b 05 86 53 00 00    	mov    0x5386(%rip),%eax        # 10f14 <g_1013+0x14>
    bb8e:	25 ff ff 03 00       	and    $0x3ffff,%eax
    bb93:	89 c1                	mov    %eax,%ecx
    bb95:	8b 45 fc             	mov    -0x4(%rbp),%eax
    bb98:	89 c2                	mov    %eax,%edx
    bb9a:	48 8d 35 05 14 00 00 	lea    0x1405(%rip),%rsi        # cfa6 <_IO_stdin_used+0xfa6>
    bba1:	48 89 cf             	mov    %rcx,%rdi
    bba4:	e8 4a 9b ff ff       	callq  56f3 <transparent_crc>
    bba9:	48 8b 05 68 53 00 00 	mov    0x5368(%rip),%rax        # 10f18 <g_1013+0x18>
    bbb0:	25 ff ff 1f 00       	and    $0x1fffff,%eax
    bbb5:	89 c1                	mov    %eax,%ecx
    bbb7:	8b 45 fc             	mov    -0x4(%rbp),%eax
    bbba:	89 c2                	mov    %eax,%edx
    bbbc:	48 8d 35 ed 13 00 00 	lea    0x13ed(%rip),%rsi        # cfb0 <_IO_stdin_used+0xfb0>
    bbc3:	48 89 cf             	mov    %rcx,%rdi
    bbc6:	e8 28 9b ff ff       	callq  56f3 <transparent_crc>
    bbcb:	0f b6 05 48 53 00 00 	movzbl 0x5348(%rip),%eax        # 10f1a <g_1013+0x1a>
    bbd2:	01 c0                	add    %eax,%eax
    bbd4:	c0 f8 06             	sar    $0x6,%al
    bbd7:	48 0f be c0          	movsbq %al,%rax
    bbdb:	8b 55 fc             	mov    -0x4(%rbp),%edx
    bbde:	48 8d 35 d5 13 00 00 	lea    0x13d5(%rip),%rsi        # cfba <_IO_stdin_used+0xfba>
    bbe5:	48 89 c7             	mov    %rax,%rdi
    bbe8:	e8 06 9b ff ff       	callq  56f3 <transparent_crc>
    bbed:	0f b7 05 26 53 00 00 	movzwl 0x5326(%rip),%eax        # 10f1a <g_1013+0x1a>
    bbf4:	66 c1 e8 07          	shr    $0x7,%ax
    bbf8:	83 e0 03             	and    $0x3,%eax
    bbfb:	0f b6 c0             	movzbl %al,%eax
    bbfe:	8b 55 fc             	mov    -0x4(%rbp),%edx
    bc01:	48 8d 35 bc 13 00 00 	lea    0x13bc(%rip),%rsi        # cfc4 <_IO_stdin_used+0xfc4>
    bc08:	48 89 c7             	mov    %rax,%rdi
    bc0b:	e8 e3 9a ff ff       	callq  56f3 <transparent_crc>
    bc10:	c7 45 f0 00 00 00 00 	movl   $0x0,-0x10(%rbp)
    bc17:	e9 4e 01 00 00       	jmpq   bd6a <main+0x1db0>
    bc1c:	c7 45 f4 00 00 00 00 	movl   $0x0,-0xc(%rbp)
    bc23:	e9 34 01 00 00       	jmpq   bd5c <main+0x1da2>
    bc28:	8b 45 f4             	mov    -0xc(%rbp),%eax
    bc2b:	48 98                	cltq   
    bc2d:	8b 55 f0             	mov    -0x10(%rbp),%edx
    bc30:	48 63 ca             	movslq %edx,%rcx
    bc33:	48 89 c2             	mov    %rax,%rdx
    bc36:	48 c1 e2 02          	shl    $0x2,%rdx
    bc3a:	48 01 c2             	add    %rax,%rdx
    bc3d:	48 8d 04 12          	lea    (%rdx,%rdx,1),%rax
    bc41:	48 89 c2             	mov    %rax,%rdx
    bc44:	48 89 c8             	mov    %rcx,%rax
    bc47:	48 c1 e0 02          	shl    $0x2,%rax
    bc4b:	48 01 c8             	add    %rcx,%rax
    bc4e:	48 8d 0c 85 00 00 00 	lea    0x0(,%rax,4),%rcx
    bc55:	00 
    bc56:	48 01 c8             	add    %rcx,%rax
    bc59:	48 c1 e0 02          	shl    $0x2,%rax
    bc5d:	48 01 c2             	add    %rax,%rdx
    bc60:	48 8d 05 b9 52 00 00 	lea    0x52b9(%rip),%rax        # 10f20 <g_1051>
    bc67:	48 01 d0             	add    %rdx,%rax
    bc6a:	48 8b 00             	mov    (%rax),%rax
    bc6d:	48 89 c1             	mov    %rax,%rcx
    bc70:	8b 45 fc             	mov    -0x4(%rbp),%eax
    bc73:	89 c2                	mov    %eax,%edx
    bc75:	48 8d 35 52 13 00 00 	lea    0x1352(%rip),%rsi        # cfce <_IO_stdin_used+0xfce>
    bc7c:	48 89 cf             	mov    %rcx,%rdi
    bc7f:	e8 6f 9a ff ff       	callq  56f3 <transparent_crc>
    bc84:	8b 45 f4             	mov    -0xc(%rbp),%eax
    bc87:	48 98                	cltq   
    bc89:	8b 55 f0             	mov    -0x10(%rbp),%edx
    bc8c:	48 63 ca             	movslq %edx,%rcx
    bc8f:	48 89 c2             	mov    %rax,%rdx
    bc92:	48 c1 e2 02          	shl    $0x2,%rdx
    bc96:	48 01 c2             	add    %rax,%rdx
    bc99:	48 8d 04 12          	lea    (%rdx,%rdx,1),%rax
    bc9d:	48 89 c2             	mov    %rax,%rdx
    bca0:	48 89 c8             	mov    %rcx,%rax
    bca3:	48 c1 e0 02          	shl    $0x2,%rax
    bca7:	48 01 c8             	add    %rcx,%rax
    bcaa:	48 8d 0c 85 00 00 00 	lea    0x0(,%rax,4),%rcx
    bcb1:	00 
    bcb2:	48 01 c8             	add    %rcx,%rax
    bcb5:	48 c1 e0 02          	shl    $0x2,%rax
    bcb9:	48 01 c2             	add    %rax,%rdx
    bcbc:	48 8d 05 65 52 00 00 	lea    0x5265(%rip),%rax        # 10f28 <g_1051+0x8>
    bcc3:	48 01 d0             	add    %rdx,%rax
    bcc6:	0f b6 00             	movzbl (%rax),%eax
    bcc9:	48 0f be c0          	movsbq %al,%rax
    bccd:	8b 55 fc             	mov    -0x4(%rbp),%edx
    bcd0:	48 8d 35 07 13 00 00 	lea    0x1307(%rip),%rsi        # cfde <_IO_stdin_used+0xfde>
    bcd7:	48 89 c7             	mov    %rax,%rdi
    bcda:	e8 14 9a ff ff       	callq  56f3 <transparent_crc>
    bcdf:	8b 45 f4             	mov    -0xc(%rbp),%eax
    bce2:	48 98                	cltq   
    bce4:	8b 55 f0             	mov    -0x10(%rbp),%edx
    bce7:	48 63 ca             	movslq %edx,%rcx
    bcea:	48 89 c2             	mov    %rax,%rdx
    bced:	48 c1 e2 02          	shl    $0x2,%rdx
    bcf1:	48 01 c2             	add    %rax,%rdx
    bcf4:	48 8d 04 12          	lea    (%rdx,%rdx,1),%rax
    bcf8:	48 89 c2             	mov    %rax,%rdx
    bcfb:	48 89 c8             	mov    %rcx,%rax
    bcfe:	48 c1 e0 02          	shl    $0x2,%rax
    bd02:	48 01 c8             	add    %rcx,%rax
    bd05:	48 8d 0c 85 00 00 00 	lea    0x0(,%rax,4),%rcx
    bd0c:	00 
    bd0d:	48 01 c8             	add    %rcx,%rax
    bd10:	48 c1 e0 02          	shl    $0x2,%rax
    bd14:	48 01 c2             	add    %rax,%rdx
    bd17:	48 8d 05 0b 52 00 00 	lea    0x520b(%rip),%rax        # 10f29 <g_1051+0x9>
    bd1e:	48 01 d0             	add    %rdx,%rax
    bd21:	0f b6 00             	movzbl (%rax),%eax
    bd24:	0f b6 c0             	movzbl %al,%eax
    bd27:	8b 55 fc             	mov    -0x4(%rbp),%edx
    bd2a:	48 8d 35 bd 12 00 00 	lea    0x12bd(%rip),%rsi        # cfee <_IO_stdin_used+0xfee>
    bd31:	48 89 c7             	mov    %rax,%rdi
    bd34:	e8 ba 99 ff ff       	callq  56f3 <transparent_crc>
    bd39:	83 7d fc 00          	cmpl   $0x0,-0x4(%rbp)
    bd3d:	74 19                	je     bd58 <main+0x1d9e>
    bd3f:	8b 55 f4             	mov    -0xc(%rbp),%edx
    bd42:	8b 45 f0             	mov    -0x10(%rbp),%eax
    bd45:	89 c6                	mov    %eax,%esi
    bd47:	48 8d 3d f5 0c 00 00 	lea    0xcf5(%rip),%rdi        # ca43 <_IO_stdin_used+0xa43>
    bd4e:	b8 00 00 00 00       	mov    $0x0,%eax
    bd53:	e8 28 83 ff ff       	callq  4080 <printf@plt>
    bd58:	83 45 f4 01          	addl   $0x1,-0xc(%rbp)
    bd5c:	83 7d f4 09          	cmpl   $0x9,-0xc(%rbp)
    bd60:	0f 8e c2 fe ff ff    	jle    bc28 <main+0x1c6e>
    bd66:	83 45 f0 01          	addl   $0x1,-0x10(%rbp)
    bd6a:	83 7d f0 05          	cmpl   $0x5,-0x10(%rbp)
    bd6e:	0f 8e a8 fe ff ff    	jle    bc1c <main+0x1c62>
    bd74:	c7 45 f0 00 00 00 00 	movl   $0x0,-0x10(%rbp)
    bd7b:	eb 45                	jmp    bdc2 <main+0x1e08>
    bd7d:	8b 45 f0             	mov    -0x10(%rbp),%eax
    bd80:	48 98                	cltq   
    bd82:	48 8d 15 ef 53 00 00 	lea    0x53ef(%rip),%rdx        # 11178 <g_1060>
    bd89:	0f b6 04 10          	movzbl (%rax,%rdx,1),%eax
    bd8d:	0f b6 c0             	movzbl %al,%eax
    bd90:	8b 55 fc             	mov    -0x4(%rbp),%edx
    bd93:	48 8d 35 64 12 00 00 	lea    0x1264(%rip),%rsi        # cffe <_IO_stdin_used+0xffe>
    bd9a:	48 89 c7             	mov    %rax,%rdi
    bd9d:	e8 51 99 ff ff       	callq  56f3 <transparent_crc>
    bda2:	83 7d fc 00          	cmpl   $0x0,-0x4(%rbp)
    bda6:	74 16                	je     bdbe <main+0x1e04>
    bda8:	8b 45 f0             	mov    -0x10(%rbp),%eax
    bdab:	89 c6                	mov    %eax,%esi
    bdad:	48 8d 3d 88 0d 00 00 	lea    0xd88(%rip),%rdi        # cb3c <_IO_stdin_used+0xb3c>
    bdb4:	b8 00 00 00 00       	mov    $0x0,%eax
    bdb9:	e8 c2 82 ff ff       	callq  4080 <printf@plt>
    bdbe:	83 45 f0 01          	addl   $0x1,-0x10(%rbp)
    bdc2:	83 7d f0 05          	cmpl   $0x5,-0x10(%rbp)
    bdc6:	7e b5                	jle    bd7d <main+0x1dc3>
    bdc8:	48 8b 05 b1 53 00 00 	mov    0x53b1(%rip),%rax        # 11180 <g_1067>
    bdcf:	25 ff ff 1f 00       	and    $0x1fffff,%eax
    bdd4:	89 c1                	mov    %eax,%ecx
    bdd6:	8b 45 fc             	mov    -0x4(%rbp),%eax
    bdd9:	89 c2                	mov    %eax,%edx
    bddb:	48 8d 35 26 12 00 00 	lea    0x1226(%rip),%rsi        # d008 <_IO_stdin_used+0x1008>
    bde2:	48 89 cf             	mov    %rcx,%rdi
    bde5:	e8 09 99 ff ff       	callq  56f3 <transparent_crc>
    bdea:	48 8b 05 8f 53 00 00 	mov    0x538f(%rip),%rax        # 11180 <g_1067>
    bdf1:	48 c1 e8 20          	shr    $0x20,%rax
    bdf5:	25 ff ff ff 07       	and    $0x7ffffff,%eax
    bdfa:	89 c1                	mov    %eax,%ecx
    bdfc:	8b 45 fc             	mov    -0x4(%rbp),%eax
    bdff:	89 c2                	mov    %eax,%edx
    be01:	48 8d 35 0a 12 00 00 	lea    0x120a(%rip),%rsi        # d012 <_IO_stdin_used+0x1012>
    be08:	48 89 cf             	mov    %rcx,%rdi
    be0b:	e8 e3 98 ff ff       	callq  56f3 <transparent_crc>
    be10:	48 8b 05 71 53 00 00 	mov    0x5371(%rip),%rax        # 11188 <g_1067+0x8>
    be17:	c1 e0 08             	shl    $0x8,%eax
    be1a:	c1 f8 08             	sar    $0x8,%eax
    be1d:	48 98                	cltq   
    be1f:	8b 55 fc             	mov    -0x4(%rbp),%edx
    be22:	48 8d 35 f3 11 00 00 	lea    0x11f3(%rip),%rsi        # d01c <_IO_stdin_used+0x101c>
    be29:	48 89 c7             	mov    %rax,%rdi
    be2c:	e8 c2 98 ff ff       	callq  56f3 <transparent_crc>
    be31:	48 8b 05 50 53 00 00 	mov    0x5350(%rip),%rax        # 11188 <g_1067+0x8>
    be38:	c1 e0 04             	shl    $0x4,%eax
    be3b:	c1 f8 1c             	sar    $0x1c,%eax
    be3e:	48 0f be c0          	movsbq %al,%rax
    be42:	8b 55 fc             	mov    -0x4(%rbp),%edx
    be45:	48 8d 35 da 11 00 00 	lea    0x11da(%rip),%rsi        # d026 <_IO_stdin_used+0x1026>
    be4c:	48 89 c7             	mov    %rax,%rdi
    be4f:	e8 9f 98 ff ff       	callq  56f3 <transparent_crc>
    be54:	48 8b 05 2d 53 00 00 	mov    0x532d(%rip),%rax        # 11188 <g_1067+0x8>
    be5b:	48 c1 e0 07          	shl    $0x7,%rax
    be5f:	48 c1 f8 27          	sar    $0x27,%rax
    be63:	48 98                	cltq   
    be65:	8b 55 fc             	mov    -0x4(%rbp),%edx
    be68:	48 8d 35 c1 11 00 00 	lea    0x11c1(%rip),%rsi        # d030 <_IO_stdin_used+0x1030>
    be6f:	48 89 c7             	mov    %rax,%rdi
    be72:	e8 7c 98 ff ff       	callq  56f3 <transparent_crc>
    be77:	48 8b 05 12 53 00 00 	mov    0x5312(%rip),%rax        # 11190 <g_1067+0x10>
    be7e:	c1 e0 0d             	shl    $0xd,%eax
    be81:	c1 f8 0d             	sar    $0xd,%eax
    be84:	48 98                	cltq   
    be86:	8b 55 fc             	mov    -0x4(%rbp),%edx
    be89:	48 8d 35 aa 11 00 00 	lea    0x11aa(%rip),%rsi        # d03a <_IO_stdin_used+0x103a>
    be90:	48 89 c7             	mov    %rax,%rdi
    be93:	e8 5b 98 ff ff       	callq  56f3 <transparent_crc>
    be98:	48 8b 05 f1 52 00 00 	mov    0x52f1(%rip),%rax        # 11190 <g_1067+0x10>
    be9f:	48 c1 e8 20          	shr    $0x20,%rax
    bea3:	25 ff ff 03 00       	and    $0x3ffff,%eax
    bea8:	89 c1                	mov    %eax,%ecx
    beaa:	8b 45 fc             	mov    -0x4(%rbp),%eax
    bead:	89 c2                	mov    %eax,%edx
    beaf:	48 8d 35 8e 11 00 00 	lea    0x118e(%rip),%rsi        # d044 <_IO_stdin_used+0x1044>
    beb6:	48 89 cf             	mov    %rcx,%rdi
    beb9:	e8 35 98 ff ff       	callq  56f3 <transparent_crc>
    bebe:	48 8b 05 d3 52 00 00 	mov    0x52d3(%rip),%rax        # 11198 <g_1067+0x18>
    bec5:	25 ff ff 1f 00       	and    $0x1fffff,%eax
    beca:	89 c1                	mov    %eax,%ecx
    becc:	8b 45 fc             	mov    -0x4(%rbp),%eax
    becf:	89 c2                	mov    %eax,%edx
    bed1:	48 8d 35 76 11 00 00 	lea    0x1176(%rip),%rsi        # d04e <_IO_stdin_used+0x104e>
    bed8:	48 89 cf             	mov    %rcx,%rdi
    bedb:	e8 13 98 ff ff       	callq  56f3 <transparent_crc>
    bee0:	48 8b 05 b1 52 00 00 	mov    0x52b1(%rip),%rax        # 11198 <g_1067+0x18>
    bee7:	c1 e0 09             	shl    $0x9,%eax
    beea:	c1 f8 1e             	sar    $0x1e,%eax
    beed:	48 0f be c0          	movsbq %al,%rax
    bef1:	8b 55 fc             	mov    -0x4(%rbp),%edx
    bef4:	48 8d 35 5d 11 00 00 	lea    0x115d(%rip),%rsi        # d058 <_IO_stdin_used+0x1058>
    befb:	48 89 c7             	mov    %rax,%rdi
    befe:	e8 f0 97 ff ff       	callq  56f3 <transparent_crc>
    bf03:	48 8b 05 8e 52 00 00 	mov    0x528e(%rip),%rax        # 11198 <g_1067+0x18>
    bf0a:	48 c1 e8 17          	shr    $0x17,%rax
    bf0e:	83 e0 03             	and    $0x3,%eax
    bf11:	0f b6 c0             	movzbl %al,%eax
    bf14:	8b 55 fc             	mov    -0x4(%rbp),%edx
    bf17:	48 8d 35 44 11 00 00 	lea    0x1144(%rip),%rsi        # d062 <_IO_stdin_used+0x1062>
    bf1e:	48 89 c7             	mov    %rax,%rdi
    bf21:	e8 cd 97 ff ff       	callq  56f3 <transparent_crc>
    bf26:	8b 05 f4 40 00 00    	mov    0x40f4(%rip),%eax        # 10020 <crc32_context>
    bf2c:	f7 d0                	not    %eax
    bf2e:	89 c2                	mov    %eax,%edx
    bf30:	8b 45 fc             	mov    -0x4(%rbp),%eax
    bf33:	89 c6                	mov    %eax,%esi
    bf35:	89 d7                	mov    %edx,%edi
    bf37:	e8 58 82 ff ff       	callq  4194 <platform_main_end>
    bf3c:	b8 00 00 00 00       	mov    $0x0,%eax
    bf41:	c9                   	leaveq 
    bf42:	c3                   	retq   
    bf43:	66 2e 0f 1f 84 00 00 	nopw   %cs:0x0(%rax,%rax,1)
    bf4a:	00 00 00 
    bf4d:	0f 1f 00             	nopl   (%rax)

000000000000bf50 <__libc_csu_init>:
    bf50:	f3 0f 1e fa          	endbr64 
    bf54:	41 57                	push   %r15
    bf56:	4c 8d 3d 4b 3e 00 00 	lea    0x3e4b(%rip),%r15        # fda8 <__frame_dummy_init_array_entry>
    bf5d:	41 56                	push   %r14
    bf5f:	49 89 d6             	mov    %rdx,%r14
    bf62:	41 55                	push   %r13
    bf64:	49 89 f5             	mov    %rsi,%r13
    bf67:	41 54                	push   %r12
    bf69:	41 89 fc             	mov    %edi,%r12d
    bf6c:	55                   	push   %rbp
    bf6d:	48 8d 2d 3c 3e 00 00 	lea    0x3e3c(%rip),%rbp        # fdb0 <__do_global_dtors_aux_fini_array_entry>
    bf74:	53                   	push   %rbx
    bf75:	4c 29 fd             	sub    %r15,%rbp
    bf78:	48 83 ec 08          	sub    $0x8,%rsp
    bf7c:	e8 7f 80 ff ff       	callq  4000 <_init>
    bf81:	48 c1 fd 03          	sar    $0x3,%rbp
    bf85:	74 1f                	je     bfa6 <__libc_csu_init+0x56>
    bf87:	31 db                	xor    %ebx,%ebx
    bf89:	0f 1f 80 00 00 00 00 	nopl   0x0(%rax)
    bf90:	4c 89 f2             	mov    %r14,%rdx
    bf93:	4c 89 ee             	mov    %r13,%rsi
    bf96:	44 89 e7             	mov    %r12d,%edi
    bf99:	41 ff 14 df          	callq  *(%r15,%rbx,8)
    bf9d:	48 83 c3 01          	add    $0x1,%rbx
    bfa1:	48 39 dd             	cmp    %rbx,%rbp
    bfa4:	75 ea                	jne    bf90 <__libc_csu_init+0x40>
    bfa6:	48 83 c4 08          	add    $0x8,%rsp
    bfaa:	5b                   	pop    %rbx
    bfab:	5d                   	pop    %rbp
    bfac:	41 5c                	pop    %r12
    bfae:	41 5d                	pop    %r13
    bfb0:	41 5e                	pop    %r14
    bfb2:	41 5f                	pop    %r15
    bfb4:	c3                   	retq   
    bfb5:	66 66 2e 0f 1f 84 00 	data16 nopw %cs:0x0(%rax,%rax,1)
    bfbc:	00 00 00 00 

000000000000bfc0 <__libc_csu_fini>:
    bfc0:	f3 0f 1e fa          	endbr64 
    bfc4:	c3                   	retq   
