


Disassembly of section .text:

00000000000070a0 <_start>:
    70a0:	f3 0f 1e fa          	endbr64 
    70a4:	31 ed                	xor    %ebp,%ebp
    70a6:	49 89 d1             	mov    %rdx,%r9
    70a9:	5e                   	pop    %rsi
    70aa:	48 89 e2             	mov    %rsp,%rdx
    70ad:	48 83 e4 f0          	and    $0xfffffffffffffff0,%rsp
    70b1:	50                   	push   %rax
    70b2:	54                   	push   %rsp
    70b3:	4c 8d 05 16 df 00 00 	lea    0xdf16(%rip),%r8        # 14fd0 <__libc_csu_fini>
    70ba:	48 8d 0d 9f de 00 00 	lea    0xde9f(%rip),%rcx        # 14f60 <__libc_csu_init>
    70c1:	48 8d 3d 7c 8a 00 00 	lea    0x8a7c(%rip),%rdi        # fb44 <main>
    70c8:	ff 15 0a 2f 01 00    	callq  *0x12f0a(%rip)        # 19fd8 <__libc_start_main@GLIBC_2.2.5>
    70ce:	f4                   	hlt    
    70cf:	90                   	nop

00000000000070d0 <deregister_tm_clones>:
    70d0:	48 8d 3d 91 d2 01 00 	lea    0x1d291(%rip),%rdi        # 24368 <__TMC_END__>
    70d7:	48 8d 05 8a d2 01 00 	lea    0x1d28a(%rip),%rax        # 24368 <__TMC_END__>
    70de:	48 39 f8             	cmp    %rdi,%rax
    70e1:	74 15                	je     70f8 <deregister_tm_clones+0x28>
    70e3:	48 8b 05 e6 2e 01 00 	mov    0x12ee6(%rip),%rax        # 19fd0 <_ITM_deregisterTMCloneTable>
    70ea:	48 85 c0             	test   %rax,%rax
    70ed:	74 09                	je     70f8 <deregister_tm_clones+0x28>
    70ef:	ff e0                	jmpq   *%rax
    70f1:	0f 1f 80 00 00 00 00 	nopl   0x0(%rax)
    70f8:	c3                   	retq   
    70f9:	0f 1f 80 00 00 00 00 	nopl   0x0(%rax)

0000000000007100 <register_tm_clones>:
    7100:	48 8d 3d 61 d2 01 00 	lea    0x1d261(%rip),%rdi        # 24368 <__TMC_END__>
    7107:	48 8d 35 5a d2 01 00 	lea    0x1d25a(%rip),%rsi        # 24368 <__TMC_END__>
    710e:	48 29 fe             	sub    %rdi,%rsi
    7111:	48 89 f0             	mov    %rsi,%rax
    7114:	48 c1 ee 3f          	shr    $0x3f,%rsi
    7118:	48 c1 f8 03          	sar    $0x3,%rax
    711c:	48 01 c6             	add    %rax,%rsi
    711f:	48 d1 fe             	sar    %rsi
    7122:	74 14                	je     7138 <register_tm_clones+0x38>
    7124:	48 8b 05 bd 2e 01 00 	mov    0x12ebd(%rip),%rax        # 19fe8 <_ITM_registerTMCloneTable>
    712b:	48 85 c0             	test   %rax,%rax
    712e:	74 08                	je     7138 <register_tm_clones+0x38>
    7130:	ff e0                	jmpq   *%rax
    7132:	66 0f 1f 44 00 00    	nopw   0x0(%rax,%rax,1)
    7138:	c3                   	retq   
    7139:	0f 1f 80 00 00 00 00 	nopl   0x0(%rax)

0000000000007140 <__do_global_dtors_aux>:
    7140:	f3 0f 1e fa          	endbr64 
    7144:	80 3d 35 d2 01 00 00 	cmpb   $0x0,0x1d235(%rip)        # 24380 <completed.8061>
    714b:	75 2b                	jne    7178 <__do_global_dtors_aux+0x38>
    714d:	55                   	push   %rbp
    714e:	48 83 3d 9a 2e 01 00 	cmpq   $0x0,0x12e9a(%rip)        # 19ff0 <__cxa_finalize@GLIBC_2.2.5>
    7155:	00 
    7156:	48 89 e5             	mov    %rsp,%rbp
    7159:	74 0c                	je     7167 <__do_global_dtors_aux+0x27>
    715b:	48 8b 3d a6 2e 01 00 	mov    0x12ea6(%rip),%rdi        # 1a008 <__dso_handle>
    7162:	e8 f9 fe ff ff       	callq  7060 <__cxa_finalize@plt>
    7167:	e8 64 ff ff ff       	callq  70d0 <deregister_tm_clones>
    716c:	c6 05 0d d2 01 00 01 	movb   $0x1,0x1d20d(%rip)        # 24380 <completed.8061>
    7173:	5d                   	pop    %rbp
    7174:	c3                   	retq   
    7175:	0f 1f 00             	nopl   (%rax)
    7178:	c3                   	retq   
    7179:	0f 1f 80 00 00 00 00 	nopl   0x0(%rax)

0000000000007180 <frame_dummy>:
    7180:	f3 0f 1e fa          	endbr64 
    7184:	e9 77 ff ff ff       	jmpq   7100 <register_tm_clones>

0000000000007189 <platform_main_begin>:
    7189:	f3 0f 1e fa          	endbr64 
    718d:	55                   	push   %rbp
    718e:	48 89 e5             	mov    %rsp,%rbp
    7191:	90                   	nop
    7192:	5d                   	pop    %rbp
    7193:	c3                   	retq   

0000000000007194 <platform_main_end>:
    7194:	f3 0f 1e fa          	endbr64 
    7198:	55                   	push   %rbp
    7199:	48 89 e5             	mov    %rsp,%rbp
    719c:	48 83 ec 10          	sub    $0x10,%rsp
    71a0:	89 7d fc             	mov    %edi,-0x4(%rbp)
    71a3:	89 75 f8             	mov    %esi,-0x8(%rbp)
    71a6:	8b 45 fc             	mov    -0x4(%rbp),%eax
    71a9:	89 c6                	mov    %eax,%esi
    71ab:	48 8d 3d 6e de 00 00 	lea    0xde6e(%rip),%rdi        # 15020 <_IO_stdin_used+0x20>
    71b2:	b8 00 00 00 00       	mov    $0x0,%eax
    71b7:	e8 c4 fe ff ff       	callq  7080 <printf@plt>
    71bc:	90                   	nop
    71bd:	c9                   	leaveq 
    71be:	c3                   	retq   

00000000000071bf <safe_unary_minus_func_int8_t_s>:
    71bf:	f3 0f 1e fa          	endbr64 
    71c3:	55                   	push   %rbp
    71c4:	48 89 e5             	mov    %rsp,%rbp
    71c7:	89 f8                	mov    %edi,%eax
    71c9:	88 45 fc             	mov    %al,-0x4(%rbp)
    71cc:	0f b6 45 fc          	movzbl -0x4(%rbp),%eax
    71d0:	f7 d8                	neg    %eax
    71d2:	5d                   	pop    %rbp
    71d3:	c3                   	retq   

00000000000071d4 <safe_add_func_int8_t_s_s>:
    71d4:	f3 0f 1e fa          	endbr64 
    71d8:	55                   	push   %rbp
    71d9:	48 89 e5             	mov    %rsp,%rbp
    71dc:	89 fa                	mov    %edi,%edx
    71de:	89 f0                	mov    %esi,%eax
    71e0:	88 55 fc             	mov    %dl,-0x4(%rbp)
    71e3:	88 45 f8             	mov    %al,-0x8(%rbp)
    71e6:	0f b6 55 fc          	movzbl -0x4(%rbp),%edx
    71ea:	0f b6 45 f8          	movzbl -0x8(%rbp),%eax
    71ee:	01 d0                	add    %edx,%eax
    71f0:	5d                   	pop    %rbp
    71f1:	c3                   	retq   

00000000000071f2 <safe_sub_func_int8_t_s_s>:
    71f2:	f3 0f 1e fa          	endbr64 
    71f6:	55                   	push   %rbp
    71f7:	48 89 e5             	mov    %rsp,%rbp
    71fa:	89 fa                	mov    %edi,%edx
    71fc:	89 f0                	mov    %esi,%eax
    71fe:	88 55 fc             	mov    %dl,-0x4(%rbp)
    7201:	88 45 f8             	mov    %al,-0x8(%rbp)
    7204:	0f b6 55 fc          	movzbl -0x4(%rbp),%edx
    7208:	0f b6 45 f8          	movzbl -0x8(%rbp),%eax
    720c:	29 c2                	sub    %eax,%edx
    720e:	89 d0                	mov    %edx,%eax
    7210:	5d                   	pop    %rbp
    7211:	c3                   	retq   

0000000000007212 <safe_mul_func_int8_t_s_s>:
    7212:	f3 0f 1e fa          	endbr64 
    7216:	55                   	push   %rbp
    7217:	48 89 e5             	mov    %rsp,%rbp
    721a:	89 fa                	mov    %edi,%edx
    721c:	89 f0                	mov    %esi,%eax
    721e:	88 55 fc             	mov    %dl,-0x4(%rbp)
    7221:	88 45 f8             	mov    %al,-0x8(%rbp)
    7224:	0f b6 45 fc          	movzbl -0x4(%rbp),%eax
    7228:	0f b6 55 f8          	movzbl -0x8(%rbp),%edx
    722c:	0f af c2             	imul   %edx,%eax
    722f:	5d                   	pop    %rbp
    7230:	c3                   	retq   

0000000000007231 <safe_mod_func_int8_t_s_s>:
    7231:	f3 0f 1e fa          	endbr64 
    7235:	55                   	push   %rbp
    7236:	48 89 e5             	mov    %rsp,%rbp
    7239:	89 fa                	mov    %edi,%edx
    723b:	89 f0                	mov    %esi,%eax
    723d:	88 55 fc             	mov    %dl,-0x4(%rbp)
    7240:	88 45 f8             	mov    %al,-0x8(%rbp)
    7243:	80 7d f8 00          	cmpb   $0x0,-0x8(%rbp)
    7247:	74 1b                	je     7264 <safe_mod_func_int8_t_s_s+0x33>
    7249:	80 7d fc 80          	cmpb   $0x80,-0x4(%rbp)
    724d:	75 06                	jne    7255 <safe_mod_func_int8_t_s_s+0x24>
    724f:	80 7d f8 ff          	cmpb   $0xff,-0x8(%rbp)
    7253:	74 0f                	je     7264 <safe_mod_func_int8_t_s_s+0x33>
    7255:	0f be 45 fc          	movsbl -0x4(%rbp),%eax
    7259:	0f be 4d f8          	movsbl -0x8(%rbp),%ecx
    725d:	99                   	cltd   
    725e:	f7 f9                	idiv   %ecx
    7260:	89 d0                	mov    %edx,%eax
    7262:	eb 04                	jmp    7268 <safe_mod_func_int8_t_s_s+0x37>
    7264:	0f b6 45 fc          	movzbl -0x4(%rbp),%eax
    7268:	5d                   	pop    %rbp
    7269:	c3                   	retq   

000000000000726a <safe_div_func_int8_t_s_s>:
    726a:	f3 0f 1e fa          	endbr64 
    726e:	55                   	push   %rbp
    726f:	48 89 e5             	mov    %rsp,%rbp
    7272:	89 fa                	mov    %edi,%edx
    7274:	89 f0                	mov    %esi,%eax
    7276:	88 55 fc             	mov    %dl,-0x4(%rbp)
    7279:	88 45 f8             	mov    %al,-0x8(%rbp)
    727c:	80 7d f8 00          	cmpb   $0x0,-0x8(%rbp)
    7280:	74 19                	je     729b <safe_div_func_int8_t_s_s+0x31>
    7282:	80 7d fc 80          	cmpb   $0x80,-0x4(%rbp)
    7286:	75 06                	jne    728e <safe_div_func_int8_t_s_s+0x24>
    7288:	80 7d f8 ff          	cmpb   $0xff,-0x8(%rbp)
    728c:	74 0d                	je     729b <safe_div_func_int8_t_s_s+0x31>
    728e:	0f be 45 fc          	movsbl -0x4(%rbp),%eax
    7292:	0f be 4d f8          	movsbl -0x8(%rbp),%ecx
    7296:	99                   	cltd   
    7297:	f7 f9                	idiv   %ecx
    7299:	eb 04                	jmp    729f <safe_div_func_int8_t_s_s+0x35>
    729b:	0f b6 45 fc          	movzbl -0x4(%rbp),%eax
    729f:	5d                   	pop    %rbp
    72a0:	c3                   	retq   

00000000000072a1 <safe_lshift_func_int8_t_s_s>:
    72a1:	f3 0f 1e fa          	endbr64 
    72a5:	55                   	push   %rbp
    72a6:	48 89 e5             	mov    %rsp,%rbp
    72a9:	89 f8                	mov    %edi,%eax
    72ab:	89 75 f8             	mov    %esi,-0x8(%rbp)
    72ae:	88 45 fc             	mov    %al,-0x4(%rbp)
    72b1:	80 7d fc 00          	cmpb   $0x0,-0x4(%rbp)
    72b5:	78 31                	js     72e8 <safe_lshift_func_int8_t_s_s+0x47>
    72b7:	83 7d f8 00          	cmpl   $0x0,-0x8(%rbp)
    72bb:	78 2b                	js     72e8 <safe_lshift_func_int8_t_s_s+0x47>
    72bd:	83 7d f8 1f          	cmpl   $0x1f,-0x8(%rbp)
    72c1:	7f 25                	jg     72e8 <safe_lshift_func_int8_t_s_s+0x47>
    72c3:	0f be 55 fc          	movsbl -0x4(%rbp),%edx
    72c7:	8b 45 f8             	mov    -0x8(%rbp),%eax
    72ca:	be 7f 00 00 00       	mov    $0x7f,%esi
    72cf:	89 c1                	mov    %eax,%ecx
    72d1:	d3 fe                	sar    %cl,%esi
    72d3:	89 f0                	mov    %esi,%eax
    72d5:	39 c2                	cmp    %eax,%edx
    72d7:	7f 0f                	jg     72e8 <safe_lshift_func_int8_t_s_s+0x47>
    72d9:	0f be 55 fc          	movsbl -0x4(%rbp),%edx
    72dd:	8b 45 f8             	mov    -0x8(%rbp),%eax
    72e0:	89 c1                	mov    %eax,%ecx
    72e2:	d3 e2                	shl    %cl,%edx
    72e4:	89 d0                	mov    %edx,%eax
    72e6:	eb 04                	jmp    72ec <safe_lshift_func_int8_t_s_s+0x4b>
    72e8:	0f b6 45 fc          	movzbl -0x4(%rbp),%eax
    72ec:	5d                   	pop    %rbp
    72ed:	c3                   	retq   

00000000000072ee <safe_lshift_func_int8_t_s_u>:
    72ee:	f3 0f 1e fa          	endbr64 
    72f2:	55                   	push   %rbp
    72f3:	48 89 e5             	mov    %rsp,%rbp
    72f6:	89 f8                	mov    %edi,%eax
    72f8:	89 75 f8             	mov    %esi,-0x8(%rbp)
    72fb:	88 45 fc             	mov    %al,-0x4(%rbp)
    72fe:	80 7d fc 00          	cmpb   $0x0,-0x4(%rbp)
    7302:	78 2b                	js     732f <safe_lshift_func_int8_t_s_u+0x41>
    7304:	83 7d f8 1f          	cmpl   $0x1f,-0x8(%rbp)
    7308:	77 25                	ja     732f <safe_lshift_func_int8_t_s_u+0x41>
    730a:	0f be 55 fc          	movsbl -0x4(%rbp),%edx
    730e:	8b 45 f8             	mov    -0x8(%rbp),%eax
    7311:	be 7f 00 00 00       	mov    $0x7f,%esi
    7316:	89 c1                	mov    %eax,%ecx
    7318:	d3 fe                	sar    %cl,%esi
    731a:	89 f0                	mov    %esi,%eax
    731c:	39 c2                	cmp    %eax,%edx
    731e:	7f 0f                	jg     732f <safe_lshift_func_int8_t_s_u+0x41>
    7320:	0f be 55 fc          	movsbl -0x4(%rbp),%edx
    7324:	8b 45 f8             	mov    -0x8(%rbp),%eax
    7327:	89 c1                	mov    %eax,%ecx
    7329:	d3 e2                	shl    %cl,%edx
    732b:	89 d0                	mov    %edx,%eax
    732d:	eb 04                	jmp    7333 <safe_lshift_func_int8_t_s_u+0x45>
    732f:	0f b6 45 fc          	movzbl -0x4(%rbp),%eax
    7333:	5d                   	pop    %rbp
    7334:	c3                   	retq   

0000000000007335 <safe_rshift_func_int8_t_s_s>:
    7335:	f3 0f 1e fa          	endbr64 
    7339:	55                   	push   %rbp
    733a:	48 89 e5             	mov    %rsp,%rbp
    733d:	89 f8                	mov    %edi,%eax
    733f:	89 75 f8             	mov    %esi,-0x8(%rbp)
    7342:	88 45 fc             	mov    %al,-0x4(%rbp)
    7345:	80 7d fc 00          	cmpb   $0x0,-0x4(%rbp)
    7349:	78 1b                	js     7366 <safe_rshift_func_int8_t_s_s+0x31>
    734b:	83 7d f8 00          	cmpl   $0x0,-0x8(%rbp)
    734f:	78 15                	js     7366 <safe_rshift_func_int8_t_s_s+0x31>
    7351:	83 7d f8 1f          	cmpl   $0x1f,-0x8(%rbp)
    7355:	7f 0f                	jg     7366 <safe_rshift_func_int8_t_s_s+0x31>
    7357:	0f be 55 fc          	movsbl -0x4(%rbp),%edx
    735b:	8b 45 f8             	mov    -0x8(%rbp),%eax
    735e:	89 c1                	mov    %eax,%ecx
    7360:	d3 fa                	sar    %cl,%edx
    7362:	89 d0                	mov    %edx,%eax
    7364:	eb 04                	jmp    736a <safe_rshift_func_int8_t_s_s+0x35>
    7366:	0f b6 45 fc          	movzbl -0x4(%rbp),%eax
    736a:	5d                   	pop    %rbp
    736b:	c3                   	retq   

000000000000736c <safe_rshift_func_int8_t_s_u>:
    736c:	f3 0f 1e fa          	endbr64 
    7370:	55                   	push   %rbp
    7371:	48 89 e5             	mov    %rsp,%rbp
    7374:	89 f8                	mov    %edi,%eax
    7376:	89 75 f8             	mov    %esi,-0x8(%rbp)
    7379:	88 45 fc             	mov    %al,-0x4(%rbp)
    737c:	80 7d fc 00          	cmpb   $0x0,-0x4(%rbp)
    7380:	78 15                	js     7397 <safe_rshift_func_int8_t_s_u+0x2b>
    7382:	83 7d f8 1f          	cmpl   $0x1f,-0x8(%rbp)
    7386:	77 0f                	ja     7397 <safe_rshift_func_int8_t_s_u+0x2b>
    7388:	0f be 55 fc          	movsbl -0x4(%rbp),%edx
    738c:	8b 45 f8             	mov    -0x8(%rbp),%eax
    738f:	89 c1                	mov    %eax,%ecx
    7391:	d3 fa                	sar    %cl,%edx
    7393:	89 d0                	mov    %edx,%eax
    7395:	eb 04                	jmp    739b <safe_rshift_func_int8_t_s_u+0x2f>
    7397:	0f b6 45 fc          	movzbl -0x4(%rbp),%eax
    739b:	5d                   	pop    %rbp
    739c:	c3                   	retq   

000000000000739d <safe_unary_minus_func_int16_t_s>:
    739d:	f3 0f 1e fa          	endbr64 
    73a1:	55                   	push   %rbp
    73a2:	48 89 e5             	mov    %rsp,%rbp
    73a5:	89 f8                	mov    %edi,%eax
    73a7:	66 89 45 fc          	mov    %ax,-0x4(%rbp)
    73ab:	0f b7 45 fc          	movzwl -0x4(%rbp),%eax
    73af:	f7 d8                	neg    %eax
    73b1:	5d                   	pop    %rbp
    73b2:	c3                   	retq   

00000000000073b3 <safe_add_func_int16_t_s_s>:
    73b3:	f3 0f 1e fa          	endbr64 
    73b7:	55                   	push   %rbp
    73b8:	48 89 e5             	mov    %rsp,%rbp
    73bb:	89 fa                	mov    %edi,%edx
    73bd:	89 f0                	mov    %esi,%eax
    73bf:	66 89 55 fc          	mov    %dx,-0x4(%rbp)
    73c3:	66 89 45 f8          	mov    %ax,-0x8(%rbp)
    73c7:	0f b7 55 fc          	movzwl -0x4(%rbp),%edx
    73cb:	0f b7 45 f8          	movzwl -0x8(%rbp),%eax
    73cf:	01 d0                	add    %edx,%eax
    73d1:	5d                   	pop    %rbp
    73d2:	c3                   	retq   

00000000000073d3 <safe_sub_func_int16_t_s_s>:
    73d3:	f3 0f 1e fa          	endbr64 
    73d7:	55                   	push   %rbp
    73d8:	48 89 e5             	mov    %rsp,%rbp
    73db:	89 fa                	mov    %edi,%edx
    73dd:	89 f0                	mov    %esi,%eax
    73df:	66 89 55 fc          	mov    %dx,-0x4(%rbp)
    73e3:	66 89 45 f8          	mov    %ax,-0x8(%rbp)
    73e7:	0f b7 55 fc          	movzwl -0x4(%rbp),%edx
    73eb:	0f b7 45 f8          	movzwl -0x8(%rbp),%eax
    73ef:	29 c2                	sub    %eax,%edx
    73f1:	89 d0                	mov    %edx,%eax
    73f3:	5d                   	pop    %rbp
    73f4:	c3                   	retq   

00000000000073f5 <safe_mul_func_int16_t_s_s>:
    73f5:	f3 0f 1e fa          	endbr64 
    73f9:	55                   	push   %rbp
    73fa:	48 89 e5             	mov    %rsp,%rbp
    73fd:	89 fa                	mov    %edi,%edx
    73ff:	89 f0                	mov    %esi,%eax
    7401:	66 89 55 fc          	mov    %dx,-0x4(%rbp)
    7405:	66 89 45 f8          	mov    %ax,-0x8(%rbp)
    7409:	0f b7 55 fc          	movzwl -0x4(%rbp),%edx
    740d:	0f b7 45 f8          	movzwl -0x8(%rbp),%eax
    7411:	0f af c2             	imul   %edx,%eax
    7414:	5d                   	pop    %rbp
    7415:	c3                   	retq   

0000000000007416 <safe_mod_func_int16_t_s_s>:
    7416:	f3 0f 1e fa          	endbr64 
    741a:	55                   	push   %rbp
    741b:	48 89 e5             	mov    %rsp,%rbp
    741e:	89 fa                	mov    %edi,%edx
    7420:	89 f0                	mov    %esi,%eax
    7422:	66 89 55 fc          	mov    %dx,-0x4(%rbp)
    7426:	66 89 45 f8          	mov    %ax,-0x8(%rbp)
    742a:	66 83 7d f8 00       	cmpw   $0x0,-0x8(%rbp)
    742f:	74 1e                	je     744f <safe_mod_func_int16_t_s_s+0x39>
    7431:	66 81 7d fc 00 80    	cmpw   $0x8000,-0x4(%rbp)
    7437:	75 07                	jne    7440 <safe_mod_func_int16_t_s_s+0x2a>
    7439:	66 83 7d f8 ff       	cmpw   $0xffff,-0x8(%rbp)
    743e:	74 0f                	je     744f <safe_mod_func_int16_t_s_s+0x39>
    7440:	0f bf 45 fc          	movswl -0x4(%rbp),%eax
    7444:	0f bf 4d f8          	movswl -0x8(%rbp),%ecx
    7448:	99                   	cltd   
    7449:	f7 f9                	idiv   %ecx
    744b:	89 d0                	mov    %edx,%eax
    744d:	eb 04                	jmp    7453 <safe_mod_func_int16_t_s_s+0x3d>
    744f:	0f b7 45 fc          	movzwl -0x4(%rbp),%eax
    7453:	5d                   	pop    %rbp
    7454:	c3                   	retq   

0000000000007455 <safe_div_func_int16_t_s_s>:
    7455:	f3 0f 1e fa          	endbr64 
    7459:	55                   	push   %rbp
    745a:	48 89 e5             	mov    %rsp,%rbp
    745d:	89 fa                	mov    %edi,%edx
    745f:	89 f0                	mov    %esi,%eax
    7461:	66 89 55 fc          	mov    %dx,-0x4(%rbp)
    7465:	66 89 45 f8          	mov    %ax,-0x8(%rbp)
    7469:	66 83 7d f8 00       	cmpw   $0x0,-0x8(%rbp)
    746e:	74 1c                	je     748c <safe_div_func_int16_t_s_s+0x37>
    7470:	66 81 7d fc 00 80    	cmpw   $0x8000,-0x4(%rbp)
    7476:	75 07                	jne    747f <safe_div_func_int16_t_s_s+0x2a>
    7478:	66 83 7d f8 ff       	cmpw   $0xffff,-0x8(%rbp)
    747d:	74 0d                	je     748c <safe_div_func_int16_t_s_s+0x37>
    747f:	0f bf 45 fc          	movswl -0x4(%rbp),%eax
    7483:	0f bf 4d f8          	movswl -0x8(%rbp),%ecx
    7487:	99                   	cltd   
    7488:	f7 f9                	idiv   %ecx
    748a:	eb 04                	jmp    7490 <safe_div_func_int16_t_s_s+0x3b>
    748c:	0f b7 45 fc          	movzwl -0x4(%rbp),%eax
    7490:	5d                   	pop    %rbp
    7491:	c3                   	retq   

0000000000007492 <safe_lshift_func_int16_t_s_s>:
    7492:	f3 0f 1e fa          	endbr64 
    7496:	55                   	push   %rbp
    7497:	48 89 e5             	mov    %rsp,%rbp
    749a:	89 f8                	mov    %edi,%eax
    749c:	89 75 f8             	mov    %esi,-0x8(%rbp)
    749f:	66 89 45 fc          	mov    %ax,-0x4(%rbp)
    74a3:	66 83 7d fc 00       	cmpw   $0x0,-0x4(%rbp)
    74a8:	78 31                	js     74db <safe_lshift_func_int16_t_s_s+0x49>
    74aa:	83 7d f8 00          	cmpl   $0x0,-0x8(%rbp)
    74ae:	78 2b                	js     74db <safe_lshift_func_int16_t_s_s+0x49>
    74b0:	83 7d f8 1f          	cmpl   $0x1f,-0x8(%rbp)
    74b4:	7f 25                	jg     74db <safe_lshift_func_int16_t_s_s+0x49>
    74b6:	0f bf 55 fc          	movswl -0x4(%rbp),%edx
    74ba:	8b 45 f8             	mov    -0x8(%rbp),%eax
    74bd:	be ff 7f 00 00       	mov    $0x7fff,%esi
    74c2:	89 c1                	mov    %eax,%ecx
    74c4:	d3 fe                	sar    %cl,%esi
    74c6:	89 f0                	mov    %esi,%eax
    74c8:	39 c2                	cmp    %eax,%edx
    74ca:	7f 0f                	jg     74db <safe_lshift_func_int16_t_s_s+0x49>
    74cc:	0f bf 55 fc          	movswl -0x4(%rbp),%edx
    74d0:	8b 45 f8             	mov    -0x8(%rbp),%eax
    74d3:	89 c1                	mov    %eax,%ecx
    74d5:	d3 e2                	shl    %cl,%edx
    74d7:	89 d0                	mov    %edx,%eax
    74d9:	eb 04                	jmp    74df <safe_lshift_func_int16_t_s_s+0x4d>
    74db:	0f b7 45 fc          	movzwl -0x4(%rbp),%eax
    74df:	5d                   	pop    %rbp
    74e0:	c3                   	retq   

00000000000074e1 <safe_lshift_func_int16_t_s_u>:
    74e1:	f3 0f 1e fa          	endbr64 
    74e5:	55                   	push   %rbp
    74e6:	48 89 e5             	mov    %rsp,%rbp
    74e9:	89 f8                	mov    %edi,%eax
    74eb:	89 75 f8             	mov    %esi,-0x8(%rbp)
    74ee:	66 89 45 fc          	mov    %ax,-0x4(%rbp)
    74f2:	66 83 7d fc 00       	cmpw   $0x0,-0x4(%rbp)
    74f7:	78 2b                	js     7524 <safe_lshift_func_int16_t_s_u+0x43>
    74f9:	83 7d f8 1f          	cmpl   $0x1f,-0x8(%rbp)
    74fd:	77 25                	ja     7524 <safe_lshift_func_int16_t_s_u+0x43>
    74ff:	0f bf 55 fc          	movswl -0x4(%rbp),%edx
    7503:	8b 45 f8             	mov    -0x8(%rbp),%eax
    7506:	be ff 7f 00 00       	mov    $0x7fff,%esi
    750b:	89 c1                	mov    %eax,%ecx
    750d:	d3 fe                	sar    %cl,%esi
    750f:	89 f0                	mov    %esi,%eax
    7511:	39 c2                	cmp    %eax,%edx
    7513:	7f 0f                	jg     7524 <safe_lshift_func_int16_t_s_u+0x43>
    7515:	0f bf 55 fc          	movswl -0x4(%rbp),%edx
    7519:	8b 45 f8             	mov    -0x8(%rbp),%eax
    751c:	89 c1                	mov    %eax,%ecx
    751e:	d3 e2                	shl    %cl,%edx
    7520:	89 d0                	mov    %edx,%eax
    7522:	eb 04                	jmp    7528 <safe_lshift_func_int16_t_s_u+0x47>
    7524:	0f b7 45 fc          	movzwl -0x4(%rbp),%eax
    7528:	5d                   	pop    %rbp
    7529:	c3                   	retq   

000000000000752a <safe_rshift_func_int16_t_s_s>:
    752a:	f3 0f 1e fa          	endbr64 
    752e:	55                   	push   %rbp
    752f:	48 89 e5             	mov    %rsp,%rbp
    7532:	89 f8                	mov    %edi,%eax
    7534:	89 75 f8             	mov    %esi,-0x8(%rbp)
    7537:	66 89 45 fc          	mov    %ax,-0x4(%rbp)
    753b:	66 83 7d fc 00       	cmpw   $0x0,-0x4(%rbp)
    7540:	78 1b                	js     755d <safe_rshift_func_int16_t_s_s+0x33>
    7542:	83 7d f8 00          	cmpl   $0x0,-0x8(%rbp)
    7546:	78 15                	js     755d <safe_rshift_func_int16_t_s_s+0x33>
    7548:	83 7d f8 1f          	cmpl   $0x1f,-0x8(%rbp)
    754c:	7f 0f                	jg     755d <safe_rshift_func_int16_t_s_s+0x33>
    754e:	0f bf 55 fc          	movswl -0x4(%rbp),%edx
    7552:	8b 45 f8             	mov    -0x8(%rbp),%eax
    7555:	89 c1                	mov    %eax,%ecx
    7557:	d3 fa                	sar    %cl,%edx
    7559:	89 d0                	mov    %edx,%eax
    755b:	eb 04                	jmp    7561 <safe_rshift_func_int16_t_s_s+0x37>
    755d:	0f b7 45 fc          	movzwl -0x4(%rbp),%eax
    7561:	5d                   	pop    %rbp
    7562:	c3                   	retq   

0000000000007563 <safe_rshift_func_int16_t_s_u>:
    7563:	f3 0f 1e fa          	endbr64 
    7567:	55                   	push   %rbp
    7568:	48 89 e5             	mov    %rsp,%rbp
    756b:	89 f8                	mov    %edi,%eax
    756d:	89 75 f8             	mov    %esi,-0x8(%rbp)
    7570:	66 89 45 fc          	mov    %ax,-0x4(%rbp)
    7574:	66 83 7d fc 00       	cmpw   $0x0,-0x4(%rbp)
    7579:	78 15                	js     7590 <safe_rshift_func_int16_t_s_u+0x2d>
    757b:	83 7d f8 1f          	cmpl   $0x1f,-0x8(%rbp)
    757f:	77 0f                	ja     7590 <safe_rshift_func_int16_t_s_u+0x2d>
    7581:	0f bf 55 fc          	movswl -0x4(%rbp),%edx
    7585:	8b 45 f8             	mov    -0x8(%rbp),%eax
    7588:	89 c1                	mov    %eax,%ecx
    758a:	d3 fa                	sar    %cl,%edx
    758c:	89 d0                	mov    %edx,%eax
    758e:	eb 04                	jmp    7594 <safe_rshift_func_int16_t_s_u+0x31>
    7590:	0f b7 45 fc          	movzwl -0x4(%rbp),%eax
    7594:	5d                   	pop    %rbp
    7595:	c3                   	retq   

0000000000007596 <safe_unary_minus_func_int32_t_s>:
    7596:	f3 0f 1e fa          	endbr64 
    759a:	55                   	push   %rbp
    759b:	48 89 e5             	mov    %rsp,%rbp
    759e:	89 7d fc             	mov    %edi,-0x4(%rbp)
    75a1:	81 7d fc 00 00 00 80 	cmpl   $0x80000000,-0x4(%rbp)
    75a8:	74 07                	je     75b1 <safe_unary_minus_func_int32_t_s+0x1b>
    75aa:	8b 45 fc             	mov    -0x4(%rbp),%eax
    75ad:	f7 d8                	neg    %eax
    75af:	eb 03                	jmp    75b4 <safe_unary_minus_func_int32_t_s+0x1e>
    75b1:	8b 45 fc             	mov    -0x4(%rbp),%eax
    75b4:	5d                   	pop    %rbp
    75b5:	c3                   	retq   

00000000000075b6 <safe_add_func_int32_t_s_s>:
    75b6:	f3 0f 1e fa          	endbr64 
    75ba:	55                   	push   %rbp
    75bb:	48 89 e5             	mov    %rsp,%rbp
    75be:	89 7d fc             	mov    %edi,-0x4(%rbp)
    75c1:	89 75 f8             	mov    %esi,-0x8(%rbp)
    75c4:	83 7d fc 00          	cmpl   $0x0,-0x4(%rbp)
    75c8:	7e 13                	jle    75dd <safe_add_func_int32_t_s_s+0x27>
    75ca:	83 7d f8 00          	cmpl   $0x0,-0x8(%rbp)
    75ce:	7e 0d                	jle    75dd <safe_add_func_int32_t_s_s+0x27>
    75d0:	b8 ff ff ff 7f       	mov    $0x7fffffff,%eax
    75d5:	2b 45 f8             	sub    -0x8(%rbp),%eax
    75d8:	39 45 fc             	cmp    %eax,-0x4(%rbp)
    75db:	7f 23                	jg     7600 <safe_add_func_int32_t_s_s+0x4a>
    75dd:	83 7d fc 00          	cmpl   $0x0,-0x4(%rbp)
    75e1:	79 13                	jns    75f6 <safe_add_func_int32_t_s_s+0x40>
    75e3:	83 7d f8 00          	cmpl   $0x0,-0x8(%rbp)
    75e7:	79 0d                	jns    75f6 <safe_add_func_int32_t_s_s+0x40>
    75e9:	b8 00 00 00 80       	mov    $0x80000000,%eax
    75ee:	2b 45 f8             	sub    -0x8(%rbp),%eax
    75f1:	39 45 fc             	cmp    %eax,-0x4(%rbp)
    75f4:	7c 0a                	jl     7600 <safe_add_func_int32_t_s_s+0x4a>
    75f6:	8b 55 fc             	mov    -0x4(%rbp),%edx
    75f9:	8b 45 f8             	mov    -0x8(%rbp),%eax
    75fc:	01 d0                	add    %edx,%eax
    75fe:	eb 03                	jmp    7603 <safe_add_func_int32_t_s_s+0x4d>
    7600:	8b 45 fc             	mov    -0x4(%rbp),%eax
    7603:	5d                   	pop    %rbp
    7604:	c3                   	retq   

0000000000007605 <safe_sub_func_int32_t_s_s>:
    7605:	f3 0f 1e fa          	endbr64 
    7609:	55                   	push   %rbp
    760a:	48 89 e5             	mov    %rsp,%rbp
    760d:	89 7d fc             	mov    %edi,-0x4(%rbp)
    7610:	89 75 f8             	mov    %esi,-0x8(%rbp)
    7613:	8b 45 fc             	mov    -0x4(%rbp),%eax
    7616:	33 45 f8             	xor    -0x8(%rbp),%eax
    7619:	89 c2                	mov    %eax,%edx
    761b:	8b 45 fc             	mov    -0x4(%rbp),%eax
    761e:	33 45 f8             	xor    -0x8(%rbp),%eax
    7621:	25 00 00 00 80       	and    $0x80000000,%eax
    7626:	33 45 fc             	xor    -0x4(%rbp),%eax
    7629:	2b 45 f8             	sub    -0x8(%rbp),%eax
    762c:	33 45 f8             	xor    -0x8(%rbp),%eax
    762f:	21 d0                	and    %edx,%eax
    7631:	85 c0                	test   %eax,%eax
    7633:	78 08                	js     763d <safe_sub_func_int32_t_s_s+0x38>
    7635:	8b 45 fc             	mov    -0x4(%rbp),%eax
    7638:	2b 45 f8             	sub    -0x8(%rbp),%eax
    763b:	eb 03                	jmp    7640 <safe_sub_func_int32_t_s_s+0x3b>
    763d:	8b 45 fc             	mov    -0x4(%rbp),%eax
    7640:	5d                   	pop    %rbp
    7641:	c3                   	retq   

0000000000007642 <safe_mul_func_int32_t_s_s>:
    7642:	f3 0f 1e fa          	endbr64 
    7646:	55                   	push   %rbp
    7647:	48 89 e5             	mov    %rsp,%rbp
    764a:	89 7d fc             	mov    %edi,-0x4(%rbp)
    764d:	89 75 f8             	mov    %esi,-0x8(%rbp)
    7650:	83 7d fc 00          	cmpl   $0x0,-0x4(%rbp)
    7654:	7e 14                	jle    766a <safe_mul_func_int32_t_s_s+0x28>
    7656:	83 7d f8 00          	cmpl   $0x0,-0x8(%rbp)
    765a:	7e 0e                	jle    766a <safe_mul_func_int32_t_s_s+0x28>
    765c:	b8 ff ff ff 7f       	mov    $0x7fffffff,%eax
    7661:	99                   	cltd   
    7662:	f7 7d f8             	idivl  -0x8(%rbp)
    7665:	39 45 fc             	cmp    %eax,-0x4(%rbp)
    7668:	7f 5d                	jg     76c7 <safe_mul_func_int32_t_s_s+0x85>
    766a:	83 7d fc 00          	cmpl   $0x0,-0x4(%rbp)
    766e:	7e 14                	jle    7684 <safe_mul_func_int32_t_s_s+0x42>
    7670:	83 7d f8 00          	cmpl   $0x0,-0x8(%rbp)
    7674:	7f 0e                	jg     7684 <safe_mul_func_int32_t_s_s+0x42>
    7676:	b8 00 00 00 80       	mov    $0x80000000,%eax
    767b:	99                   	cltd   
    767c:	f7 7d fc             	idivl  -0x4(%rbp)
    767f:	39 45 f8             	cmp    %eax,-0x8(%rbp)
    7682:	7c 43                	jl     76c7 <safe_mul_func_int32_t_s_s+0x85>
    7684:	83 7d fc 00          	cmpl   $0x0,-0x4(%rbp)
    7688:	7f 14                	jg     769e <safe_mul_func_int32_t_s_s+0x5c>
    768a:	83 7d f8 00          	cmpl   $0x0,-0x8(%rbp)
    768e:	7e 0e                	jle    769e <safe_mul_func_int32_t_s_s+0x5c>
    7690:	b8 00 00 00 80       	mov    $0x80000000,%eax
    7695:	99                   	cltd   
    7696:	f7 7d f8             	idivl  -0x8(%rbp)
    7699:	39 45 fc             	cmp    %eax,-0x4(%rbp)
    769c:	7c 29                	jl     76c7 <safe_mul_func_int32_t_s_s+0x85>
    769e:	83 7d fc 00          	cmpl   $0x0,-0x4(%rbp)
    76a2:	7f 1a                	jg     76be <safe_mul_func_int32_t_s_s+0x7c>
    76a4:	83 7d f8 00          	cmpl   $0x0,-0x8(%rbp)
    76a8:	7f 14                	jg     76be <safe_mul_func_int32_t_s_s+0x7c>
    76aa:	83 7d fc 00          	cmpl   $0x0,-0x4(%rbp)
    76ae:	74 0e                	je     76be <safe_mul_func_int32_t_s_s+0x7c>
    76b0:	b8 ff ff ff 7f       	mov    $0x7fffffff,%eax
    76b5:	99                   	cltd   
    76b6:	f7 7d fc             	idivl  -0x4(%rbp)
    76b9:	39 45 f8             	cmp    %eax,-0x8(%rbp)
    76bc:	7c 09                	jl     76c7 <safe_mul_func_int32_t_s_s+0x85>
    76be:	8b 45 fc             	mov    -0x4(%rbp),%eax
    76c1:	0f af 45 f8          	imul   -0x8(%rbp),%eax
    76c5:	eb 03                	jmp    76ca <safe_mul_func_int32_t_s_s+0x88>
    76c7:	8b 45 fc             	mov    -0x4(%rbp),%eax
    76ca:	5d                   	pop    %rbp
    76cb:	c3                   	retq   

00000000000076cc <safe_mod_func_int32_t_s_s>:
    76cc:	f3 0f 1e fa          	endbr64 
    76d0:	55                   	push   %rbp
    76d1:	48 89 e5             	mov    %rsp,%rbp
    76d4:	89 7d fc             	mov    %edi,-0x4(%rbp)
    76d7:	89 75 f8             	mov    %esi,-0x8(%rbp)
    76da:	83 7d f8 00          	cmpl   $0x0,-0x8(%rbp)
    76de:	74 1a                	je     76fa <safe_mod_func_int32_t_s_s+0x2e>
    76e0:	81 7d fc 00 00 00 80 	cmpl   $0x80000000,-0x4(%rbp)
    76e7:	75 06                	jne    76ef <safe_mod_func_int32_t_s_s+0x23>
    76e9:	83 7d f8 ff          	cmpl   $0xffffffff,-0x8(%rbp)
    76ed:	74 0b                	je     76fa <safe_mod_func_int32_t_s_s+0x2e>
    76ef:	8b 45 fc             	mov    -0x4(%rbp),%eax
    76f2:	99                   	cltd   
    76f3:	f7 7d f8             	idivl  -0x8(%rbp)
    76f6:	89 d0                	mov    %edx,%eax
    76f8:	eb 03                	jmp    76fd <safe_mod_func_int32_t_s_s+0x31>
    76fa:	8b 45 fc             	mov    -0x4(%rbp),%eax
    76fd:	5d                   	pop    %rbp
    76fe:	c3                   	retq   

00000000000076ff <safe_div_func_int32_t_s_s>:
    76ff:	f3 0f 1e fa          	endbr64 
    7703:	55                   	push   %rbp
    7704:	48 89 e5             	mov    %rsp,%rbp
    7707:	89 7d fc             	mov    %edi,-0x4(%rbp)
    770a:	89 75 f8             	mov    %esi,-0x8(%rbp)
    770d:	83 7d f8 00          	cmpl   $0x0,-0x8(%rbp)
    7711:	74 18                	je     772b <safe_div_func_int32_t_s_s+0x2c>
    7713:	81 7d fc 00 00 00 80 	cmpl   $0x80000000,-0x4(%rbp)
    771a:	75 06                	jne    7722 <safe_div_func_int32_t_s_s+0x23>
    771c:	83 7d f8 ff          	cmpl   $0xffffffff,-0x8(%rbp)
    7720:	74 09                	je     772b <safe_div_func_int32_t_s_s+0x2c>
    7722:	8b 45 fc             	mov    -0x4(%rbp),%eax
    7725:	99                   	cltd   
    7726:	f7 7d f8             	idivl  -0x8(%rbp)
    7729:	eb 03                	jmp    772e <safe_div_func_int32_t_s_s+0x2f>
    772b:	8b 45 fc             	mov    -0x4(%rbp),%eax
    772e:	5d                   	pop    %rbp
    772f:	c3                   	retq   

0000000000007730 <safe_lshift_func_int32_t_s_s>:
    7730:	f3 0f 1e fa          	endbr64 
    7734:	55                   	push   %rbp
    7735:	48 89 e5             	mov    %rsp,%rbp
    7738:	89 7d fc             	mov    %edi,-0x4(%rbp)
    773b:	89 75 f8             	mov    %esi,-0x8(%rbp)
    773e:	83 7d fc 00          	cmpl   $0x0,-0x4(%rbp)
    7742:	78 2d                	js     7771 <safe_lshift_func_int32_t_s_s+0x41>
    7744:	83 7d f8 00          	cmpl   $0x0,-0x8(%rbp)
    7748:	78 27                	js     7771 <safe_lshift_func_int32_t_s_s+0x41>
    774a:	83 7d f8 1f          	cmpl   $0x1f,-0x8(%rbp)
    774e:	7f 21                	jg     7771 <safe_lshift_func_int32_t_s_s+0x41>
    7750:	8b 45 f8             	mov    -0x8(%rbp),%eax
    7753:	ba ff ff ff 7f       	mov    $0x7fffffff,%edx
    7758:	89 c1                	mov    %eax,%ecx
    775a:	d3 fa                	sar    %cl,%edx
    775c:	89 d0                	mov    %edx,%eax
    775e:	39 45 fc             	cmp    %eax,-0x4(%rbp)
    7761:	7f 0e                	jg     7771 <safe_lshift_func_int32_t_s_s+0x41>
    7763:	8b 45 f8             	mov    -0x8(%rbp),%eax
    7766:	8b 55 fc             	mov    -0x4(%rbp),%edx
    7769:	89 c1                	mov    %eax,%ecx
    776b:	d3 e2                	shl    %cl,%edx
    776d:	89 d0                	mov    %edx,%eax
    776f:	eb 03                	jmp    7774 <safe_lshift_func_int32_t_s_s+0x44>
    7771:	8b 45 fc             	mov    -0x4(%rbp),%eax
    7774:	5d                   	pop    %rbp
    7775:	c3                   	retq   

0000000000007776 <safe_lshift_func_int32_t_s_u>:
    7776:	f3 0f 1e fa          	endbr64 
    777a:	55                   	push   %rbp
    777b:	48 89 e5             	mov    %rsp,%rbp
    777e:	89 7d fc             	mov    %edi,-0x4(%rbp)
    7781:	89 75 f8             	mov    %esi,-0x8(%rbp)
    7784:	83 7d fc 00          	cmpl   $0x0,-0x4(%rbp)
    7788:	78 27                	js     77b1 <safe_lshift_func_int32_t_s_u+0x3b>
    778a:	83 7d f8 1f          	cmpl   $0x1f,-0x8(%rbp)
    778e:	77 21                	ja     77b1 <safe_lshift_func_int32_t_s_u+0x3b>
    7790:	8b 45 f8             	mov    -0x8(%rbp),%eax
    7793:	ba ff ff ff 7f       	mov    $0x7fffffff,%edx
    7798:	89 c1                	mov    %eax,%ecx
    779a:	d3 fa                	sar    %cl,%edx
    779c:	89 d0                	mov    %edx,%eax
    779e:	39 45 fc             	cmp    %eax,-0x4(%rbp)
    77a1:	7f 0e                	jg     77b1 <safe_lshift_func_int32_t_s_u+0x3b>
    77a3:	8b 45 f8             	mov    -0x8(%rbp),%eax
    77a6:	8b 55 fc             	mov    -0x4(%rbp),%edx
    77a9:	89 c1                	mov    %eax,%ecx
    77ab:	d3 e2                	shl    %cl,%edx
    77ad:	89 d0                	mov    %edx,%eax
    77af:	eb 03                	jmp    77b4 <safe_lshift_func_int32_t_s_u+0x3e>
    77b1:	8b 45 fc             	mov    -0x4(%rbp),%eax
    77b4:	5d                   	pop    %rbp
    77b5:	c3                   	retq   

00000000000077b6 <safe_rshift_func_int32_t_s_s>:
    77b6:	f3 0f 1e fa          	endbr64 
    77ba:	55                   	push   %rbp
    77bb:	48 89 e5             	mov    %rsp,%rbp
    77be:	89 7d fc             	mov    %edi,-0x4(%rbp)
    77c1:	89 75 f8             	mov    %esi,-0x8(%rbp)
    77c4:	83 7d fc 00          	cmpl   $0x0,-0x4(%rbp)
    77c8:	78 1a                	js     77e4 <safe_rshift_func_int32_t_s_s+0x2e>
    77ca:	83 7d f8 00          	cmpl   $0x0,-0x8(%rbp)
    77ce:	78 14                	js     77e4 <safe_rshift_func_int32_t_s_s+0x2e>
    77d0:	83 7d f8 1f          	cmpl   $0x1f,-0x8(%rbp)
    77d4:	7f 0e                	jg     77e4 <safe_rshift_func_int32_t_s_s+0x2e>
    77d6:	8b 45 f8             	mov    -0x8(%rbp),%eax
    77d9:	8b 55 fc             	mov    -0x4(%rbp),%edx
    77dc:	89 c1                	mov    %eax,%ecx
    77de:	d3 fa                	sar    %cl,%edx
    77e0:	89 d0                	mov    %edx,%eax
    77e2:	eb 03                	jmp    77e7 <safe_rshift_func_int32_t_s_s+0x31>
    77e4:	8b 45 fc             	mov    -0x4(%rbp),%eax
    77e7:	5d                   	pop    %rbp
    77e8:	c3                   	retq   

00000000000077e9 <safe_rshift_func_int32_t_s_u>:
    77e9:	f3 0f 1e fa          	endbr64 
    77ed:	55                   	push   %rbp
    77ee:	48 89 e5             	mov    %rsp,%rbp
    77f1:	89 7d fc             	mov    %edi,-0x4(%rbp)
    77f4:	89 75 f8             	mov    %esi,-0x8(%rbp)
    77f7:	83 7d fc 00          	cmpl   $0x0,-0x4(%rbp)
    77fb:	78 14                	js     7811 <safe_rshift_func_int32_t_s_u+0x28>
    77fd:	83 7d f8 1f          	cmpl   $0x1f,-0x8(%rbp)
    7801:	77 0e                	ja     7811 <safe_rshift_func_int32_t_s_u+0x28>
    7803:	8b 45 f8             	mov    -0x8(%rbp),%eax
    7806:	8b 55 fc             	mov    -0x4(%rbp),%edx
    7809:	89 c1                	mov    %eax,%ecx
    780b:	d3 fa                	sar    %cl,%edx
    780d:	89 d0                	mov    %edx,%eax
    780f:	eb 03                	jmp    7814 <safe_rshift_func_int32_t_s_u+0x2b>
    7811:	8b 45 fc             	mov    -0x4(%rbp),%eax
    7814:	5d                   	pop    %rbp
    7815:	c3                   	retq   

0000000000007816 <safe_unary_minus_func_int64_t_s>:
    7816:	f3 0f 1e fa          	endbr64 
    781a:	55                   	push   %rbp
    781b:	48 89 e5             	mov    %rsp,%rbp
    781e:	48 89 7d f8          	mov    %rdi,-0x8(%rbp)
    7822:	48 b8 00 00 00 00 00 	movabs $0x8000000000000000,%rax
    7829:	00 00 80 
    782c:	48 39 45 f8          	cmp    %rax,-0x8(%rbp)
    7830:	74 09                	je     783b <safe_unary_minus_func_int64_t_s+0x25>
    7832:	48 8b 45 f8          	mov    -0x8(%rbp),%rax
    7836:	48 f7 d8             	neg    %rax
    7839:	eb 04                	jmp    783f <safe_unary_minus_func_int64_t_s+0x29>
    783b:	48 8b 45 f8          	mov    -0x8(%rbp),%rax
    783f:	5d                   	pop    %rbp
    7840:	c3                   	retq   

0000000000007841 <safe_add_func_int64_t_s_s>:
    7841:	f3 0f 1e fa          	endbr64 
    7845:	55                   	push   %rbp
    7846:	48 89 e5             	mov    %rsp,%rbp
    7849:	48 89 7d f8          	mov    %rdi,-0x8(%rbp)
    784d:	48 89 75 f0          	mov    %rsi,-0x10(%rbp)
    7851:	48 83 7d f8 00       	cmpq   $0x0,-0x8(%rbp)
    7856:	7e 1b                	jle    7873 <safe_add_func_int64_t_s_s+0x32>
    7858:	48 83 7d f0 00       	cmpq   $0x0,-0x10(%rbp)
    785d:	7e 14                	jle    7873 <safe_add_func_int64_t_s_s+0x32>
    785f:	48 b8 ff ff ff ff ff 	movabs $0x7fffffffffffffff,%rax
    7866:	ff ff 7f 
    7869:	48 2b 45 f0          	sub    -0x10(%rbp),%rax
    786d:	48 39 45 f8          	cmp    %rax,-0x8(%rbp)
    7871:	7f 2f                	jg     78a2 <safe_add_func_int64_t_s_s+0x61>
    7873:	48 83 7d f8 00       	cmpq   $0x0,-0x8(%rbp)
    7878:	79 1b                	jns    7895 <safe_add_func_int64_t_s_s+0x54>
    787a:	48 83 7d f0 00       	cmpq   $0x0,-0x10(%rbp)
    787f:	79 14                	jns    7895 <safe_add_func_int64_t_s_s+0x54>
    7881:	48 b8 00 00 00 00 00 	movabs $0x8000000000000000,%rax
    7888:	00 00 80 
    788b:	48 2b 45 f0          	sub    -0x10(%rbp),%rax
    788f:	48 39 45 f8          	cmp    %rax,-0x8(%rbp)
    7893:	7c 0d                	jl     78a2 <safe_add_func_int64_t_s_s+0x61>
    7895:	48 8b 55 f8          	mov    -0x8(%rbp),%rdx
    7899:	48 8b 45 f0          	mov    -0x10(%rbp),%rax
    789d:	48 01 d0             	add    %rdx,%rax
    78a0:	eb 04                	jmp    78a6 <safe_add_func_int64_t_s_s+0x65>
    78a2:	48 8b 45 f8          	mov    -0x8(%rbp),%rax
    78a6:	5d                   	pop    %rbp
    78a7:	c3                   	retq   

00000000000078a8 <safe_sub_func_int64_t_s_s>:
    78a8:	f3 0f 1e fa          	endbr64 
    78ac:	55                   	push   %rbp
    78ad:	48 89 e5             	mov    %rsp,%rbp
    78b0:	48 89 7d f8          	mov    %rdi,-0x8(%rbp)
    78b4:	48 89 75 f0          	mov    %rsi,-0x10(%rbp)
    78b8:	48 8b 45 f8          	mov    -0x8(%rbp),%rax
    78bc:	48 33 45 f0          	xor    -0x10(%rbp),%rax
    78c0:	48 89 c2             	mov    %rax,%rdx
    78c3:	48 8b 45 f8          	mov    -0x8(%rbp),%rax
    78c7:	48 33 45 f0          	xor    -0x10(%rbp),%rax
    78cb:	48 b9 00 00 00 00 00 	movabs $0x8000000000000000,%rcx
    78d2:	00 00 80 
    78d5:	48 21 c8             	and    %rcx,%rax
    78d8:	48 33 45 f8          	xor    -0x8(%rbp),%rax
    78dc:	48 2b 45 f0          	sub    -0x10(%rbp),%rax
    78e0:	48 33 45 f0          	xor    -0x10(%rbp),%rax
    78e4:	48 21 d0             	and    %rdx,%rax
    78e7:	48 85 c0             	test   %rax,%rax
    78ea:	78 0a                	js     78f6 <safe_sub_func_int64_t_s_s+0x4e>
    78ec:	48 8b 45 f8          	mov    -0x8(%rbp),%rax
    78f0:	48 2b 45 f0          	sub    -0x10(%rbp),%rax
    78f4:	eb 04                	jmp    78fa <safe_sub_func_int64_t_s_s+0x52>
    78f6:	48 8b 45 f8          	mov    -0x8(%rbp),%rax
    78fa:	5d                   	pop    %rbp
    78fb:	c3                   	retq   

00000000000078fc <safe_mul_func_int64_t_s_s>:
    78fc:	f3 0f 1e fa          	endbr64 
    7900:	55                   	push   %rbp
    7901:	48 89 e5             	mov    %rsp,%rbp
    7904:	48 89 7d f8          	mov    %rdi,-0x8(%rbp)
    7908:	48 89 75 f0          	mov    %rsi,-0x10(%rbp)
    790c:	48 83 7d f8 00       	cmpq   $0x0,-0x8(%rbp)
    7911:	7e 1d                	jle    7930 <safe_mul_func_int64_t_s_s+0x34>
    7913:	48 83 7d f0 00       	cmpq   $0x0,-0x10(%rbp)
    7918:	7e 16                	jle    7930 <safe_mul_func_int64_t_s_s+0x34>
    791a:	48 b8 ff ff ff ff ff 	movabs $0x7fffffffffffffff,%rax
    7921:	ff ff 7f 
    7924:	48 99                	cqto   
    7926:	48 f7 7d f0          	idivq  -0x10(%rbp)
    792a:	48 39 45 f8          	cmp    %rax,-0x8(%rbp)
    792e:	7f 7e                	jg     79ae <safe_mul_func_int64_t_s_s+0xb2>
    7930:	48 83 7d f8 00       	cmpq   $0x0,-0x8(%rbp)
    7935:	7e 1d                	jle    7954 <safe_mul_func_int64_t_s_s+0x58>
    7937:	48 83 7d f0 00       	cmpq   $0x0,-0x10(%rbp)
    793c:	7f 16                	jg     7954 <safe_mul_func_int64_t_s_s+0x58>
    793e:	48 b8 00 00 00 00 00 	movabs $0x8000000000000000,%rax
    7945:	00 00 80 
    7948:	48 99                	cqto   
    794a:	48 f7 7d f8          	idivq  -0x8(%rbp)
    794e:	48 39 45 f0          	cmp    %rax,-0x10(%rbp)
    7952:	7c 5a                	jl     79ae <safe_mul_func_int64_t_s_s+0xb2>
    7954:	48 83 7d f8 00       	cmpq   $0x0,-0x8(%rbp)
    7959:	7f 1d                	jg     7978 <safe_mul_func_int64_t_s_s+0x7c>
    795b:	48 83 7d f0 00       	cmpq   $0x0,-0x10(%rbp)
    7960:	7e 16                	jle    7978 <safe_mul_func_int64_t_s_s+0x7c>
    7962:	48 b8 00 00 00 00 00 	movabs $0x8000000000000000,%rax
    7969:	00 00 80 
    796c:	48 99                	cqto   
    796e:	48 f7 7d f0          	idivq  -0x10(%rbp)
    7972:	48 39 45 f8          	cmp    %rax,-0x8(%rbp)
    7976:	7c 36                	jl     79ae <safe_mul_func_int64_t_s_s+0xb2>
    7978:	48 83 7d f8 00       	cmpq   $0x0,-0x8(%rbp)
    797d:	7f 24                	jg     79a3 <safe_mul_func_int64_t_s_s+0xa7>
    797f:	48 83 7d f0 00       	cmpq   $0x0,-0x10(%rbp)
    7984:	7f 1d                	jg     79a3 <safe_mul_func_int64_t_s_s+0xa7>
    7986:	48 83 7d f8 00       	cmpq   $0x0,-0x8(%rbp)
    798b:	74 16                	je     79a3 <safe_mul_func_int64_t_s_s+0xa7>
    798d:	48 b8 ff ff ff ff ff 	movabs $0x7fffffffffffffff,%rax
    7994:	ff ff 7f 
    7997:	48 99                	cqto   
    7999:	48 f7 7d f8          	idivq  -0x8(%rbp)
    799d:	48 39 45 f0          	cmp    %rax,-0x10(%rbp)
    79a1:	7c 0b                	jl     79ae <safe_mul_func_int64_t_s_s+0xb2>
    79a3:	48 8b 45 f8          	mov    -0x8(%rbp),%rax
    79a7:	48 0f af 45 f0       	imul   -0x10(%rbp),%rax
    79ac:	eb 04                	jmp    79b2 <safe_mul_func_int64_t_s_s+0xb6>
    79ae:	48 8b 45 f8          	mov    -0x8(%rbp),%rax
    79b2:	5d                   	pop    %rbp
    79b3:	c3                   	retq   

00000000000079b4 <safe_mod_func_int64_t_s_s>:
    79b4:	f3 0f 1e fa          	endbr64 
    79b8:	55                   	push   %rbp
    79b9:	48 89 e5             	mov    %rsp,%rbp
    79bc:	48 89 7d f8          	mov    %rdi,-0x8(%rbp)
    79c0:	48 89 75 f0          	mov    %rsi,-0x10(%rbp)
    79c4:	48 83 7d f0 00       	cmpq   $0x0,-0x10(%rbp)
    79c9:	74 26                	je     79f1 <safe_mod_func_int64_t_s_s+0x3d>
    79cb:	48 b8 00 00 00 00 00 	movabs $0x8000000000000000,%rax
    79d2:	00 00 80 
    79d5:	48 39 45 f8          	cmp    %rax,-0x8(%rbp)
    79d9:	75 07                	jne    79e2 <safe_mod_func_int64_t_s_s+0x2e>
    79db:	48 83 7d f0 ff       	cmpq   $0xffffffffffffffff,-0x10(%rbp)
    79e0:	74 0f                	je     79f1 <safe_mod_func_int64_t_s_s+0x3d>
    79e2:	48 8b 45 f8          	mov    -0x8(%rbp),%rax
    79e6:	48 99                	cqto   
    79e8:	48 f7 7d f0          	idivq  -0x10(%rbp)
    79ec:	48 89 d0             	mov    %rdx,%rax
    79ef:	eb 04                	jmp    79f5 <safe_mod_func_int64_t_s_s+0x41>
    79f1:	48 8b 45 f8          	mov    -0x8(%rbp),%rax
    79f5:	5d                   	pop    %rbp
    79f6:	c3                   	retq   

00000000000079f7 <safe_div_func_int64_t_s_s>:
    79f7:	f3 0f 1e fa          	endbr64 
    79fb:	55                   	push   %rbp
    79fc:	48 89 e5             	mov    %rsp,%rbp
    79ff:	48 89 7d f8          	mov    %rdi,-0x8(%rbp)
    7a03:	48 89 75 f0          	mov    %rsi,-0x10(%rbp)
    7a07:	48 83 7d f0 00       	cmpq   $0x0,-0x10(%rbp)
    7a0c:	74 23                	je     7a31 <safe_div_func_int64_t_s_s+0x3a>
    7a0e:	48 b8 00 00 00 00 00 	movabs $0x8000000000000000,%rax
    7a15:	00 00 80 
    7a18:	48 39 45 f8          	cmp    %rax,-0x8(%rbp)
    7a1c:	75 07                	jne    7a25 <safe_div_func_int64_t_s_s+0x2e>
    7a1e:	48 83 7d f0 ff       	cmpq   $0xffffffffffffffff,-0x10(%rbp)
    7a23:	74 0c                	je     7a31 <safe_div_func_int64_t_s_s+0x3a>
    7a25:	48 8b 45 f8          	mov    -0x8(%rbp),%rax
    7a29:	48 99                	cqto   
    7a2b:	48 f7 7d f0          	idivq  -0x10(%rbp)
    7a2f:	eb 04                	jmp    7a35 <safe_div_func_int64_t_s_s+0x3e>
    7a31:	48 8b 45 f8          	mov    -0x8(%rbp),%rax
    7a35:	5d                   	pop    %rbp
    7a36:	c3                   	retq   

0000000000007a37 <safe_lshift_func_int64_t_s_s>:
    7a37:	f3 0f 1e fa          	endbr64 
    7a3b:	55                   	push   %rbp
    7a3c:	48 89 e5             	mov    %rsp,%rbp
    7a3f:	48 89 7d f8          	mov    %rdi,-0x8(%rbp)
    7a43:	89 75 f4             	mov    %esi,-0xc(%rbp)
    7a46:	48 83 7d f8 00       	cmpq   $0x0,-0x8(%rbp)
    7a4b:	78 38                	js     7a85 <safe_lshift_func_int64_t_s_s+0x4e>
    7a4d:	83 7d f4 00          	cmpl   $0x0,-0xc(%rbp)
    7a51:	78 32                	js     7a85 <safe_lshift_func_int64_t_s_s+0x4e>
    7a53:	83 7d f4 1f          	cmpl   $0x1f,-0xc(%rbp)
    7a57:	7f 2c                	jg     7a85 <safe_lshift_func_int64_t_s_s+0x4e>
    7a59:	8b 45 f4             	mov    -0xc(%rbp),%eax
    7a5c:	48 ba ff ff ff ff ff 	movabs $0x7fffffffffffffff,%rdx
    7a63:	ff ff 7f 
    7a66:	89 c1                	mov    %eax,%ecx
    7a68:	48 d3 fa             	sar    %cl,%rdx
    7a6b:	48 89 d0             	mov    %rdx,%rax
    7a6e:	48 39 45 f8          	cmp    %rax,-0x8(%rbp)
    7a72:	7f 11                	jg     7a85 <safe_lshift_func_int64_t_s_s+0x4e>
    7a74:	8b 45 f4             	mov    -0xc(%rbp),%eax
    7a77:	48 8b 55 f8          	mov    -0x8(%rbp),%rdx
    7a7b:	89 c1                	mov    %eax,%ecx
    7a7d:	48 d3 e2             	shl    %cl,%rdx
    7a80:	48 89 d0             	mov    %rdx,%rax
    7a83:	eb 04                	jmp    7a89 <safe_lshift_func_int64_t_s_s+0x52>
    7a85:	48 8b 45 f8          	mov    -0x8(%rbp),%rax
    7a89:	5d                   	pop    %rbp
    7a8a:	c3                   	retq   

0000000000007a8b <safe_lshift_func_int64_t_s_u>:
    7a8b:	f3 0f 1e fa          	endbr64 
    7a8f:	55                   	push   %rbp
    7a90:	48 89 e5             	mov    %rsp,%rbp
    7a93:	48 89 7d f8          	mov    %rdi,-0x8(%rbp)
    7a97:	89 75 f4             	mov    %esi,-0xc(%rbp)
    7a9a:	48 83 7d f8 00       	cmpq   $0x0,-0x8(%rbp)
    7a9f:	78 32                	js     7ad3 <safe_lshift_func_int64_t_s_u+0x48>
    7aa1:	83 7d f4 1f          	cmpl   $0x1f,-0xc(%rbp)
    7aa5:	77 2c                	ja     7ad3 <safe_lshift_func_int64_t_s_u+0x48>
    7aa7:	8b 45 f4             	mov    -0xc(%rbp),%eax
    7aaa:	48 ba ff ff ff ff ff 	movabs $0x7fffffffffffffff,%rdx
    7ab1:	ff ff 7f 
    7ab4:	89 c1                	mov    %eax,%ecx
    7ab6:	48 d3 fa             	sar    %cl,%rdx
    7ab9:	48 89 d0             	mov    %rdx,%rax
    7abc:	48 39 45 f8          	cmp    %rax,-0x8(%rbp)
    7ac0:	7f 11                	jg     7ad3 <safe_lshift_func_int64_t_s_u+0x48>
    7ac2:	8b 45 f4             	mov    -0xc(%rbp),%eax
    7ac5:	48 8b 55 f8          	mov    -0x8(%rbp),%rdx
    7ac9:	89 c1                	mov    %eax,%ecx
    7acb:	48 d3 e2             	shl    %cl,%rdx
    7ace:	48 89 d0             	mov    %rdx,%rax
    7ad1:	eb 04                	jmp    7ad7 <safe_lshift_func_int64_t_s_u+0x4c>
    7ad3:	48 8b 45 f8          	mov    -0x8(%rbp),%rax
    7ad7:	5d                   	pop    %rbp
    7ad8:	c3                   	retq   

0000000000007ad9 <safe_rshift_func_int64_t_s_s>:
    7ad9:	f3 0f 1e fa          	endbr64 
    7add:	55                   	push   %rbp
    7ade:	48 89 e5             	mov    %rsp,%rbp
    7ae1:	48 89 7d f8          	mov    %rdi,-0x8(%rbp)
    7ae5:	89 75 f4             	mov    %esi,-0xc(%rbp)
    7ae8:	48 83 7d f8 00       	cmpq   $0x0,-0x8(%rbp)
    7aed:	78 1d                	js     7b0c <safe_rshift_func_int64_t_s_s+0x33>
    7aef:	83 7d f4 00          	cmpl   $0x0,-0xc(%rbp)
    7af3:	78 17                	js     7b0c <safe_rshift_func_int64_t_s_s+0x33>
    7af5:	83 7d f4 1f          	cmpl   $0x1f,-0xc(%rbp)
    7af9:	7f 11                	jg     7b0c <safe_rshift_func_int64_t_s_s+0x33>
    7afb:	8b 45 f4             	mov    -0xc(%rbp),%eax
    7afe:	48 8b 55 f8          	mov    -0x8(%rbp),%rdx
    7b02:	89 c1                	mov    %eax,%ecx
    7b04:	48 d3 fa             	sar    %cl,%rdx
    7b07:	48 89 d0             	mov    %rdx,%rax
    7b0a:	eb 04                	jmp    7b10 <safe_rshift_func_int64_t_s_s+0x37>
    7b0c:	48 8b 45 f8          	mov    -0x8(%rbp),%rax
    7b10:	5d                   	pop    %rbp
    7b11:	c3                   	retq   

0000000000007b12 <safe_rshift_func_int64_t_s_u>:
    7b12:	f3 0f 1e fa          	endbr64 
    7b16:	55                   	push   %rbp
    7b17:	48 89 e5             	mov    %rsp,%rbp
    7b1a:	48 89 7d f8          	mov    %rdi,-0x8(%rbp)
    7b1e:	89 75 f4             	mov    %esi,-0xc(%rbp)
    7b21:	48 83 7d f8 00       	cmpq   $0x0,-0x8(%rbp)
    7b26:	78 17                	js     7b3f <safe_rshift_func_int64_t_s_u+0x2d>
    7b28:	83 7d f4 1f          	cmpl   $0x1f,-0xc(%rbp)
    7b2c:	77 11                	ja     7b3f <safe_rshift_func_int64_t_s_u+0x2d>
    7b2e:	8b 45 f4             	mov    -0xc(%rbp),%eax
    7b31:	48 8b 55 f8          	mov    -0x8(%rbp),%rdx
    7b35:	89 c1                	mov    %eax,%ecx
    7b37:	48 d3 fa             	sar    %cl,%rdx
    7b3a:	48 89 d0             	mov    %rdx,%rax
    7b3d:	eb 04                	jmp    7b43 <safe_rshift_func_int64_t_s_u+0x31>
    7b3f:	48 8b 45 f8          	mov    -0x8(%rbp),%rax
    7b43:	5d                   	pop    %rbp
    7b44:	c3                   	retq   

0000000000007b45 <safe_unary_minus_func_uint8_t_u>:
    7b45:	f3 0f 1e fa          	endbr64 
    7b49:	55                   	push   %rbp
    7b4a:	48 89 e5             	mov    %rsp,%rbp
    7b4d:	89 f8                	mov    %edi,%eax
    7b4f:	88 45 fc             	mov    %al,-0x4(%rbp)
    7b52:	0f b6 45 fc          	movzbl -0x4(%rbp),%eax
    7b56:	f7 d8                	neg    %eax
    7b58:	5d                   	pop    %rbp
    7b59:	c3                   	retq   

0000000000007b5a <safe_add_func_uint8_t_u_u>:
    7b5a:	f3 0f 1e fa          	endbr64 
    7b5e:	55                   	push   %rbp
    7b5f:	48 89 e5             	mov    %rsp,%rbp
    7b62:	89 fa                	mov    %edi,%edx
    7b64:	89 f0                	mov    %esi,%eax
    7b66:	88 55 fc             	mov    %dl,-0x4(%rbp)
    7b69:	88 45 f8             	mov    %al,-0x8(%rbp)
    7b6c:	0f b6 55 fc          	movzbl -0x4(%rbp),%edx
    7b70:	0f b6 45 f8          	movzbl -0x8(%rbp),%eax
    7b74:	01 d0                	add    %edx,%eax
    7b76:	5d                   	pop    %rbp
    7b77:	c3                   	retq   

0000000000007b78 <safe_sub_func_uint8_t_u_u>:
    7b78:	f3 0f 1e fa          	endbr64 
    7b7c:	55                   	push   %rbp
    7b7d:	48 89 e5             	mov    %rsp,%rbp
    7b80:	89 fa                	mov    %edi,%edx
    7b82:	89 f0                	mov    %esi,%eax
    7b84:	88 55 fc             	mov    %dl,-0x4(%rbp)
    7b87:	88 45 f8             	mov    %al,-0x8(%rbp)
    7b8a:	0f b6 45 fc          	movzbl -0x4(%rbp),%eax
    7b8e:	2a 45 f8             	sub    -0x8(%rbp),%al
    7b91:	5d                   	pop    %rbp
    7b92:	c3                   	retq   

0000000000007b93 <safe_mul_func_uint8_t_u_u>:
    7b93:	f3 0f 1e fa          	endbr64 
    7b97:	55                   	push   %rbp
    7b98:	48 89 e5             	mov    %rsp,%rbp
    7b9b:	89 fa                	mov    %edi,%edx
    7b9d:	89 f0                	mov    %esi,%eax
    7b9f:	88 55 fc             	mov    %dl,-0x4(%rbp)
    7ba2:	88 45 f8             	mov    %al,-0x8(%rbp)
    7ba5:	0f b6 45 fc          	movzbl -0x4(%rbp),%eax
    7ba9:	f6 65 f8             	mulb   -0x8(%rbp)
    7bac:	5d                   	pop    %rbp
    7bad:	c3                   	retq   

0000000000007bae <safe_mod_func_uint8_t_u_u>:
    7bae:	f3 0f 1e fa          	endbr64 
    7bb2:	55                   	push   %rbp
    7bb3:	48 89 e5             	mov    %rsp,%rbp
    7bb6:	89 fa                	mov    %edi,%edx
    7bb8:	89 f0                	mov    %esi,%eax
    7bba:	88 55 fc             	mov    %dl,-0x4(%rbp)
    7bbd:	88 45 f8             	mov    %al,-0x8(%rbp)
    7bc0:	80 7d f8 00          	cmpb   $0x0,-0x8(%rbp)
    7bc4:	74 0f                	je     7bd5 <safe_mod_func_uint8_t_u_u+0x27>
    7bc6:	0f b6 45 fc          	movzbl -0x4(%rbp),%eax
    7bca:	0f b6 c0             	movzbl %al,%eax
    7bcd:	f6 75 f8             	divb   -0x8(%rbp)
    7bd0:	0f b6 c4             	movzbl %ah,%eax
    7bd3:	eb 04                	jmp    7bd9 <safe_mod_func_uint8_t_u_u+0x2b>
    7bd5:	0f b6 45 fc          	movzbl -0x4(%rbp),%eax
    7bd9:	5d                   	pop    %rbp
    7bda:	c3                   	retq   

0000000000007bdb <safe_div_func_uint8_t_u_u>:
    7bdb:	f3 0f 1e fa          	endbr64 
    7bdf:	55                   	push   %rbp
    7be0:	48 89 e5             	mov    %rsp,%rbp
    7be3:	89 fa                	mov    %edi,%edx
    7be5:	89 f0                	mov    %esi,%eax
    7be7:	88 55 fc             	mov    %dl,-0x4(%rbp)
    7bea:	88 45 f8             	mov    %al,-0x8(%rbp)
    7bed:	80 7d f8 00          	cmpb   $0x0,-0x8(%rbp)
    7bf1:	74 0c                	je     7bff <safe_div_func_uint8_t_u_u+0x24>
    7bf3:	0f b6 45 fc          	movzbl -0x4(%rbp),%eax
    7bf7:	0f b6 c0             	movzbl %al,%eax
    7bfa:	f6 75 f8             	divb   -0x8(%rbp)
    7bfd:	eb 04                	jmp    7c03 <safe_div_func_uint8_t_u_u+0x28>
    7bff:	0f b6 45 fc          	movzbl -0x4(%rbp),%eax
    7c03:	5d                   	pop    %rbp
    7c04:	c3                   	retq   

0000000000007c05 <safe_lshift_func_uint8_t_u_s>:
    7c05:	f3 0f 1e fa          	endbr64 
    7c09:	55                   	push   %rbp
    7c0a:	48 89 e5             	mov    %rsp,%rbp
    7c0d:	89 f8                	mov    %edi,%eax
    7c0f:	89 75 f8             	mov    %esi,-0x8(%rbp)
    7c12:	88 45 fc             	mov    %al,-0x4(%rbp)
    7c15:	83 7d f8 00          	cmpl   $0x0,-0x8(%rbp)
    7c19:	78 2b                	js     7c46 <safe_lshift_func_uint8_t_u_s+0x41>
    7c1b:	83 7d f8 1f          	cmpl   $0x1f,-0x8(%rbp)
    7c1f:	7f 25                	jg     7c46 <safe_lshift_func_uint8_t_u_s+0x41>
    7c21:	0f b6 55 fc          	movzbl -0x4(%rbp),%edx
    7c25:	8b 45 f8             	mov    -0x8(%rbp),%eax
    7c28:	be ff 00 00 00       	mov    $0xff,%esi
    7c2d:	89 c1                	mov    %eax,%ecx
    7c2f:	d3 fe                	sar    %cl,%esi
    7c31:	89 f0                	mov    %esi,%eax
    7c33:	39 c2                	cmp    %eax,%edx
    7c35:	7f 0f                	jg     7c46 <safe_lshift_func_uint8_t_u_s+0x41>
    7c37:	0f b6 55 fc          	movzbl -0x4(%rbp),%edx
    7c3b:	8b 45 f8             	mov    -0x8(%rbp),%eax
    7c3e:	89 c1                	mov    %eax,%ecx
    7c40:	d3 e2                	shl    %cl,%edx
    7c42:	89 d0                	mov    %edx,%eax
    7c44:	eb 04                	jmp    7c4a <safe_lshift_func_uint8_t_u_s+0x45>
    7c46:	0f b6 45 fc          	movzbl -0x4(%rbp),%eax
    7c4a:	5d                   	pop    %rbp
    7c4b:	c3                   	retq   

0000000000007c4c <safe_lshift_func_uint8_t_u_u>:
    7c4c:	f3 0f 1e fa          	endbr64 
    7c50:	55                   	push   %rbp
    7c51:	48 89 e5             	mov    %rsp,%rbp
    7c54:	89 f8                	mov    %edi,%eax
    7c56:	89 75 f8             	mov    %esi,-0x8(%rbp)
    7c59:	88 45 fc             	mov    %al,-0x4(%rbp)
    7c5c:	83 7d f8 1f          	cmpl   $0x1f,-0x8(%rbp)
    7c60:	77 25                	ja     7c87 <safe_lshift_func_uint8_t_u_u+0x3b>
    7c62:	0f b6 55 fc          	movzbl -0x4(%rbp),%edx
    7c66:	8b 45 f8             	mov    -0x8(%rbp),%eax
    7c69:	be ff 00 00 00       	mov    $0xff,%esi
    7c6e:	89 c1                	mov    %eax,%ecx
    7c70:	d3 fe                	sar    %cl,%esi
    7c72:	89 f0                	mov    %esi,%eax
    7c74:	39 c2                	cmp    %eax,%edx
    7c76:	7f 0f                	jg     7c87 <safe_lshift_func_uint8_t_u_u+0x3b>
    7c78:	0f b6 55 fc          	movzbl -0x4(%rbp),%edx
    7c7c:	8b 45 f8             	mov    -0x8(%rbp),%eax
    7c7f:	89 c1                	mov    %eax,%ecx
    7c81:	d3 e2                	shl    %cl,%edx
    7c83:	89 d0                	mov    %edx,%eax
    7c85:	eb 04                	jmp    7c8b <safe_lshift_func_uint8_t_u_u+0x3f>
    7c87:	0f b6 45 fc          	movzbl -0x4(%rbp),%eax
    7c8b:	5d                   	pop    %rbp
    7c8c:	c3                   	retq   

0000000000007c8d <safe_rshift_func_uint8_t_u_s>:
    7c8d:	f3 0f 1e fa          	endbr64 
    7c91:	55                   	push   %rbp
    7c92:	48 89 e5             	mov    %rsp,%rbp
    7c95:	89 f8                	mov    %edi,%eax
    7c97:	89 75 f8             	mov    %esi,-0x8(%rbp)
    7c9a:	88 45 fc             	mov    %al,-0x4(%rbp)
    7c9d:	83 7d f8 00          	cmpl   $0x0,-0x8(%rbp)
    7ca1:	78 15                	js     7cb8 <safe_rshift_func_uint8_t_u_s+0x2b>
    7ca3:	83 7d f8 1f          	cmpl   $0x1f,-0x8(%rbp)
    7ca7:	7f 0f                	jg     7cb8 <safe_rshift_func_uint8_t_u_s+0x2b>
    7ca9:	0f b6 55 fc          	movzbl -0x4(%rbp),%edx
    7cad:	8b 45 f8             	mov    -0x8(%rbp),%eax
    7cb0:	89 c1                	mov    %eax,%ecx
    7cb2:	d3 fa                	sar    %cl,%edx
    7cb4:	89 d0                	mov    %edx,%eax
    7cb6:	eb 04                	jmp    7cbc <safe_rshift_func_uint8_t_u_s+0x2f>
    7cb8:	0f b6 45 fc          	movzbl -0x4(%rbp),%eax
    7cbc:	5d                   	pop    %rbp
    7cbd:	c3                   	retq   

0000000000007cbe <safe_rshift_func_uint8_t_u_u>:
    7cbe:	f3 0f 1e fa          	endbr64 
    7cc2:	55                   	push   %rbp
    7cc3:	48 89 e5             	mov    %rsp,%rbp
    7cc6:	89 f8                	mov    %edi,%eax
    7cc8:	89 75 f8             	mov    %esi,-0x8(%rbp)
    7ccb:	88 45 fc             	mov    %al,-0x4(%rbp)
    7cce:	83 7d f8 1f          	cmpl   $0x1f,-0x8(%rbp)
    7cd2:	77 0f                	ja     7ce3 <safe_rshift_func_uint8_t_u_u+0x25>
    7cd4:	0f b6 55 fc          	movzbl -0x4(%rbp),%edx
    7cd8:	8b 45 f8             	mov    -0x8(%rbp),%eax
    7cdb:	89 c1                	mov    %eax,%ecx
    7cdd:	d3 fa                	sar    %cl,%edx
    7cdf:	89 d0                	mov    %edx,%eax
    7ce1:	eb 04                	jmp    7ce7 <safe_rshift_func_uint8_t_u_u+0x29>
    7ce3:	0f b6 45 fc          	movzbl -0x4(%rbp),%eax
    7ce7:	5d                   	pop    %rbp
    7ce8:	c3                   	retq   

0000000000007ce9 <safe_unary_minus_func_uint16_t_u>:
    7ce9:	f3 0f 1e fa          	endbr64 
    7ced:	55                   	push   %rbp
    7cee:	48 89 e5             	mov    %rsp,%rbp
    7cf1:	89 f8                	mov    %edi,%eax
    7cf3:	66 89 45 fc          	mov    %ax,-0x4(%rbp)
    7cf7:	0f b7 45 fc          	movzwl -0x4(%rbp),%eax
    7cfb:	f7 d8                	neg    %eax
    7cfd:	5d                   	pop    %rbp
    7cfe:	c3                   	retq   

0000000000007cff <safe_add_func_uint16_t_u_u>:
    7cff:	f3 0f 1e fa          	endbr64 
    7d03:	55                   	push   %rbp
    7d04:	48 89 e5             	mov    %rsp,%rbp
    7d07:	89 fa                	mov    %edi,%edx
    7d09:	89 f0                	mov    %esi,%eax
    7d0b:	66 89 55 fc          	mov    %dx,-0x4(%rbp)
    7d0f:	66 89 45 f8          	mov    %ax,-0x8(%rbp)
    7d13:	0f b7 55 fc          	movzwl -0x4(%rbp),%edx
    7d17:	0f b7 45 f8          	movzwl -0x8(%rbp),%eax
    7d1b:	01 d0                	add    %edx,%eax
    7d1d:	5d                   	pop    %rbp
    7d1e:	c3                   	retq   

0000000000007d1f <safe_sub_func_uint16_t_u_u>:
    7d1f:	f3 0f 1e fa          	endbr64 
    7d23:	55                   	push   %rbp
    7d24:	48 89 e5             	mov    %rsp,%rbp
    7d27:	89 fa                	mov    %edi,%edx
    7d29:	89 f0                	mov    %esi,%eax
    7d2b:	66 89 55 fc          	mov    %dx,-0x4(%rbp)
    7d2f:	66 89 45 f8          	mov    %ax,-0x8(%rbp)
    7d33:	0f b7 45 fc          	movzwl -0x4(%rbp),%eax
    7d37:	66 2b 45 f8          	sub    -0x8(%rbp),%ax
    7d3b:	5d                   	pop    %rbp
    7d3c:	c3                   	retq   

0000000000007d3d <safe_mul_func_uint16_t_u_u>:
    7d3d:	f3 0f 1e fa          	endbr64 
    7d41:	55                   	push   %rbp
    7d42:	48 89 e5             	mov    %rsp,%rbp
    7d45:	89 fa                	mov    %edi,%edx
    7d47:	89 f0                	mov    %esi,%eax
    7d49:	66 89 55 fc          	mov    %dx,-0x4(%rbp)
    7d4d:	66 89 45 f8          	mov    %ax,-0x8(%rbp)
    7d51:	0f b7 45 fc          	movzwl -0x4(%rbp),%eax
    7d55:	66 0f af 45 f8       	imul   -0x8(%rbp),%ax
    7d5a:	5d                   	pop    %rbp
    7d5b:	c3                   	retq   

0000000000007d5c <safe_mod_func_uint16_t_u_u>:
    7d5c:	f3 0f 1e fa          	endbr64 
    7d60:	55                   	push   %rbp
    7d61:	48 89 e5             	mov    %rsp,%rbp
    7d64:	89 fa                	mov    %edi,%edx
    7d66:	89 f0                	mov    %esi,%eax
    7d68:	66 89 55 fc          	mov    %dx,-0x4(%rbp)
    7d6c:	66 89 45 f8          	mov    %ax,-0x8(%rbp)
    7d70:	66 83 7d f8 00       	cmpw   $0x0,-0x8(%rbp)
    7d75:	74 11                	je     7d88 <safe_mod_func_uint16_t_u_u+0x2c>
    7d77:	0f b7 45 fc          	movzwl -0x4(%rbp),%eax
    7d7b:	ba 00 00 00 00       	mov    $0x0,%edx
    7d80:	66 f7 75 f8          	divw   -0x8(%rbp)
    7d84:	89 d0                	mov    %edx,%eax
    7d86:	eb 04                	jmp    7d8c <safe_mod_func_uint16_t_u_u+0x30>
    7d88:	0f b7 45 fc          	movzwl -0x4(%rbp),%eax
    7d8c:	5d                   	pop    %rbp
    7d8d:	c3                   	retq   

0000000000007d8e <safe_div_func_uint16_t_u_u>:
    7d8e:	f3 0f 1e fa          	endbr64 
    7d92:	55                   	push   %rbp
    7d93:	48 89 e5             	mov    %rsp,%rbp
    7d96:	89 fa                	mov    %edi,%edx
    7d98:	89 f0                	mov    %esi,%eax
    7d9a:	66 89 55 fc          	mov    %dx,-0x4(%rbp)
    7d9e:	66 89 45 f8          	mov    %ax,-0x8(%rbp)
    7da2:	66 83 7d f8 00       	cmpw   $0x0,-0x8(%rbp)
    7da7:	74 0f                	je     7db8 <safe_div_func_uint16_t_u_u+0x2a>
    7da9:	0f b7 45 fc          	movzwl -0x4(%rbp),%eax
    7dad:	ba 00 00 00 00       	mov    $0x0,%edx
    7db2:	66 f7 75 f8          	divw   -0x8(%rbp)
    7db6:	eb 04                	jmp    7dbc <safe_div_func_uint16_t_u_u+0x2e>
    7db8:	0f b7 45 fc          	movzwl -0x4(%rbp),%eax
    7dbc:	5d                   	pop    %rbp
    7dbd:	c3                   	retq   

0000000000007dbe <safe_lshift_func_uint16_t_u_s>:
    7dbe:	f3 0f 1e fa          	endbr64 
    7dc2:	55                   	push   %rbp
    7dc3:	48 89 e5             	mov    %rsp,%rbp
    7dc6:	89 f8                	mov    %edi,%eax
    7dc8:	89 75 f8             	mov    %esi,-0x8(%rbp)
    7dcb:	66 89 45 fc          	mov    %ax,-0x4(%rbp)
    7dcf:	83 7d f8 00          	cmpl   $0x0,-0x8(%rbp)
    7dd3:	78 2b                	js     7e00 <safe_lshift_func_uint16_t_u_s+0x42>
    7dd5:	83 7d f8 1f          	cmpl   $0x1f,-0x8(%rbp)
    7dd9:	7f 25                	jg     7e00 <safe_lshift_func_uint16_t_u_s+0x42>
    7ddb:	0f b7 55 fc          	movzwl -0x4(%rbp),%edx
    7ddf:	8b 45 f8             	mov    -0x8(%rbp),%eax
    7de2:	be ff ff 00 00       	mov    $0xffff,%esi
    7de7:	89 c1                	mov    %eax,%ecx
    7de9:	d3 fe                	sar    %cl,%esi
    7deb:	89 f0                	mov    %esi,%eax
    7ded:	39 c2                	cmp    %eax,%edx
    7def:	7f 0f                	jg     7e00 <safe_lshift_func_uint16_t_u_s+0x42>
    7df1:	0f b7 55 fc          	movzwl -0x4(%rbp),%edx
    7df5:	8b 45 f8             	mov    -0x8(%rbp),%eax
    7df8:	89 c1                	mov    %eax,%ecx
    7dfa:	d3 e2                	shl    %cl,%edx
    7dfc:	89 d0                	mov    %edx,%eax
    7dfe:	eb 04                	jmp    7e04 <safe_lshift_func_uint16_t_u_s+0x46>
    7e00:	0f b7 45 fc          	movzwl -0x4(%rbp),%eax
    7e04:	5d                   	pop    %rbp
    7e05:	c3                   	retq   

0000000000007e06 <safe_lshift_func_uint16_t_u_u>:
    7e06:	f3 0f 1e fa          	endbr64 
    7e0a:	55                   	push   %rbp
    7e0b:	48 89 e5             	mov    %rsp,%rbp
    7e0e:	89 f8                	mov    %edi,%eax
    7e10:	89 75 f8             	mov    %esi,-0x8(%rbp)
    7e13:	66 89 45 fc          	mov    %ax,-0x4(%rbp)
    7e17:	83 7d f8 1f          	cmpl   $0x1f,-0x8(%rbp)
    7e1b:	77 25                	ja     7e42 <safe_lshift_func_uint16_t_u_u+0x3c>
    7e1d:	0f b7 55 fc          	movzwl -0x4(%rbp),%edx
    7e21:	8b 45 f8             	mov    -0x8(%rbp),%eax
    7e24:	be ff ff 00 00       	mov    $0xffff,%esi
    7e29:	89 c1                	mov    %eax,%ecx
    7e2b:	d3 fe                	sar    %cl,%esi
    7e2d:	89 f0                	mov    %esi,%eax
    7e2f:	39 c2                	cmp    %eax,%edx
    7e31:	7f 0f                	jg     7e42 <safe_lshift_func_uint16_t_u_u+0x3c>
    7e33:	0f b7 55 fc          	movzwl -0x4(%rbp),%edx
    7e37:	8b 45 f8             	mov    -0x8(%rbp),%eax
    7e3a:	89 c1                	mov    %eax,%ecx
    7e3c:	d3 e2                	shl    %cl,%edx
    7e3e:	89 d0                	mov    %edx,%eax
    7e40:	eb 04                	jmp    7e46 <safe_lshift_func_uint16_t_u_u+0x40>
    7e42:	0f b7 45 fc          	movzwl -0x4(%rbp),%eax
    7e46:	5d                   	pop    %rbp
    7e47:	c3                   	retq   

0000000000007e48 <safe_rshift_func_uint16_t_u_s>:
    7e48:	f3 0f 1e fa          	endbr64 
    7e4c:	55                   	push   %rbp
    7e4d:	48 89 e5             	mov    %rsp,%rbp
    7e50:	89 f8                	mov    %edi,%eax
    7e52:	89 75 f8             	mov    %esi,-0x8(%rbp)
    7e55:	66 89 45 fc          	mov    %ax,-0x4(%rbp)
    7e59:	83 7d f8 00          	cmpl   $0x0,-0x8(%rbp)
    7e5d:	78 15                	js     7e74 <safe_rshift_func_uint16_t_u_s+0x2c>
    7e5f:	83 7d f8 1f          	cmpl   $0x1f,-0x8(%rbp)
    7e63:	7f 0f                	jg     7e74 <safe_rshift_func_uint16_t_u_s+0x2c>
    7e65:	0f b7 55 fc          	movzwl -0x4(%rbp),%edx
    7e69:	8b 45 f8             	mov    -0x8(%rbp),%eax
    7e6c:	89 c1                	mov    %eax,%ecx
    7e6e:	d3 fa                	sar    %cl,%edx
    7e70:	89 d0                	mov    %edx,%eax
    7e72:	eb 04                	jmp    7e78 <safe_rshift_func_uint16_t_u_s+0x30>
    7e74:	0f b7 45 fc          	movzwl -0x4(%rbp),%eax
    7e78:	5d                   	pop    %rbp
    7e79:	c3                   	retq   

0000000000007e7a <safe_rshift_func_uint16_t_u_u>:
    7e7a:	f3 0f 1e fa          	endbr64 
    7e7e:	55                   	push   %rbp
    7e7f:	48 89 e5             	mov    %rsp,%rbp
    7e82:	89 f8                	mov    %edi,%eax
    7e84:	89 75 f8             	mov    %esi,-0x8(%rbp)
    7e87:	66 89 45 fc          	mov    %ax,-0x4(%rbp)
    7e8b:	83 7d f8 1f          	cmpl   $0x1f,-0x8(%rbp)
    7e8f:	77 0f                	ja     7ea0 <safe_rshift_func_uint16_t_u_u+0x26>
    7e91:	0f b7 55 fc          	movzwl -0x4(%rbp),%edx
    7e95:	8b 45 f8             	mov    -0x8(%rbp),%eax
    7e98:	89 c1                	mov    %eax,%ecx
    7e9a:	d3 fa                	sar    %cl,%edx
    7e9c:	89 d0                	mov    %edx,%eax
    7e9e:	eb 04                	jmp    7ea4 <safe_rshift_func_uint16_t_u_u+0x2a>
    7ea0:	0f b7 45 fc          	movzwl -0x4(%rbp),%eax
    7ea4:	5d                   	pop    %rbp
    7ea5:	c3                   	retq   

0000000000007ea6 <safe_unary_minus_func_uint32_t_u>:
    7ea6:	f3 0f 1e fa          	endbr64 
    7eaa:	55                   	push   %rbp
    7eab:	48 89 e5             	mov    %rsp,%rbp
    7eae:	89 7d fc             	mov    %edi,-0x4(%rbp)
    7eb1:	8b 45 fc             	mov    -0x4(%rbp),%eax
    7eb4:	f7 d8                	neg    %eax
    7eb6:	5d                   	pop    %rbp
    7eb7:	c3                   	retq   

0000000000007eb8 <safe_add_func_uint32_t_u_u>:
    7eb8:	f3 0f 1e fa          	endbr64 
    7ebc:	55                   	push   %rbp
    7ebd:	48 89 e5             	mov    %rsp,%rbp
    7ec0:	89 7d fc             	mov    %edi,-0x4(%rbp)
    7ec3:	89 75 f8             	mov    %esi,-0x8(%rbp)
    7ec6:	8b 55 fc             	mov    -0x4(%rbp),%edx
    7ec9:	8b 45 f8             	mov    -0x8(%rbp),%eax
    7ecc:	01 d0                	add    %edx,%eax
    7ece:	5d                   	pop    %rbp
    7ecf:	c3                   	retq   

0000000000007ed0 <safe_sub_func_uint32_t_u_u>:
    7ed0:	f3 0f 1e fa          	endbr64 
    7ed4:	55                   	push   %rbp
    7ed5:	48 89 e5             	mov    %rsp,%rbp
    7ed8:	89 7d fc             	mov    %edi,-0x4(%rbp)
    7edb:	89 75 f8             	mov    %esi,-0x8(%rbp)
    7ede:	8b 45 fc             	mov    -0x4(%rbp),%eax
    7ee1:	2b 45 f8             	sub    -0x8(%rbp),%eax
    7ee4:	5d                   	pop    %rbp
    7ee5:	c3                   	retq   

0000000000007ee6 <safe_mul_func_uint32_t_u_u>:
    7ee6:	f3 0f 1e fa          	endbr64 
    7eea:	55                   	push   %rbp
    7eeb:	48 89 e5             	mov    %rsp,%rbp
    7eee:	89 7d fc             	mov    %edi,-0x4(%rbp)
    7ef1:	89 75 f8             	mov    %esi,-0x8(%rbp)
    7ef4:	8b 45 fc             	mov    -0x4(%rbp),%eax
    7ef7:	0f af 45 f8          	imul   -0x8(%rbp),%eax
    7efb:	5d                   	pop    %rbp
    7efc:	c3                   	retq   

0000000000007efd <safe_mod_func_uint32_t_u_u>:
    7efd:	f3 0f 1e fa          	endbr64 
    7f01:	55                   	push   %rbp
    7f02:	48 89 e5             	mov    %rsp,%rbp
    7f05:	89 7d fc             	mov    %edi,-0x4(%rbp)
    7f08:	89 75 f8             	mov    %esi,-0x8(%rbp)
    7f0b:	83 7d f8 00          	cmpl   $0x0,-0x8(%rbp)
    7f0f:	74 0f                	je     7f20 <safe_mod_func_uint32_t_u_u+0x23>
    7f11:	8b 45 fc             	mov    -0x4(%rbp),%eax
    7f14:	ba 00 00 00 00       	mov    $0x0,%edx
    7f19:	f7 75 f8             	divl   -0x8(%rbp)
    7f1c:	89 d0                	mov    %edx,%eax
    7f1e:	eb 03                	jmp    7f23 <safe_mod_func_uint32_t_u_u+0x26>
    7f20:	8b 45 fc             	mov    -0x4(%rbp),%eax
    7f23:	5d                   	pop    %rbp
    7f24:	c3                   	retq   

0000000000007f25 <safe_div_func_uint32_t_u_u>:
    7f25:	f3 0f 1e fa          	endbr64 
    7f29:	55                   	push   %rbp
    7f2a:	48 89 e5             	mov    %rsp,%rbp
    7f2d:	89 7d fc             	mov    %edi,-0x4(%rbp)
    7f30:	89 75 f8             	mov    %esi,-0x8(%rbp)
    7f33:	83 7d f8 00          	cmpl   $0x0,-0x8(%rbp)
    7f37:	74 0d                	je     7f46 <safe_div_func_uint32_t_u_u+0x21>
    7f39:	8b 45 fc             	mov    -0x4(%rbp),%eax
    7f3c:	ba 00 00 00 00       	mov    $0x0,%edx
    7f41:	f7 75 f8             	divl   -0x8(%rbp)
    7f44:	eb 03                	jmp    7f49 <safe_div_func_uint32_t_u_u+0x24>
    7f46:	8b 45 fc             	mov    -0x4(%rbp),%eax
    7f49:	5d                   	pop    %rbp
    7f4a:	c3                   	retq   

0000000000007f4b <safe_lshift_func_uint32_t_u_s>:
    7f4b:	f3 0f 1e fa          	endbr64 
    7f4f:	55                   	push   %rbp
    7f50:	48 89 e5             	mov    %rsp,%rbp
    7f53:	89 7d fc             	mov    %edi,-0x4(%rbp)
    7f56:	89 75 f8             	mov    %esi,-0x8(%rbp)
    7f59:	83 7d f8 00          	cmpl   $0x0,-0x8(%rbp)
    7f5d:	78 27                	js     7f86 <safe_lshift_func_uint32_t_u_s+0x3b>
    7f5f:	83 7d f8 1f          	cmpl   $0x1f,-0x8(%rbp)
    7f63:	7f 21                	jg     7f86 <safe_lshift_func_uint32_t_u_s+0x3b>
    7f65:	8b 45 f8             	mov    -0x8(%rbp),%eax
    7f68:	ba ff ff ff ff       	mov    $0xffffffff,%edx
    7f6d:	89 c1                	mov    %eax,%ecx
    7f6f:	d3 ea                	shr    %cl,%edx
    7f71:	89 d0                	mov    %edx,%eax
    7f73:	39 45 fc             	cmp    %eax,-0x4(%rbp)
    7f76:	77 0e                	ja     7f86 <safe_lshift_func_uint32_t_u_s+0x3b>
    7f78:	8b 45 f8             	mov    -0x8(%rbp),%eax
    7f7b:	8b 55 fc             	mov    -0x4(%rbp),%edx
    7f7e:	89 c1                	mov    %eax,%ecx
    7f80:	d3 e2                	shl    %cl,%edx
    7f82:	89 d0                	mov    %edx,%eax
    7f84:	eb 03                	jmp    7f89 <safe_lshift_func_uint32_t_u_s+0x3e>
    7f86:	8b 45 fc             	mov    -0x4(%rbp),%eax
    7f89:	5d                   	pop    %rbp
    7f8a:	c3                   	retq   

0000000000007f8b <safe_lshift_func_uint32_t_u_u>:
    7f8b:	f3 0f 1e fa          	endbr64 
    7f8f:	55                   	push   %rbp
    7f90:	48 89 e5             	mov    %rsp,%rbp
    7f93:	89 7d fc             	mov    %edi,-0x4(%rbp)
    7f96:	89 75 f8             	mov    %esi,-0x8(%rbp)
    7f99:	83 7d f8 1f          	cmpl   $0x1f,-0x8(%rbp)
    7f9d:	77 21                	ja     7fc0 <safe_lshift_func_uint32_t_u_u+0x35>
    7f9f:	8b 45 f8             	mov    -0x8(%rbp),%eax
    7fa2:	ba ff ff ff ff       	mov    $0xffffffff,%edx
    7fa7:	89 c1                	mov    %eax,%ecx
    7fa9:	d3 ea                	shr    %cl,%edx
    7fab:	89 d0                	mov    %edx,%eax
    7fad:	39 45 fc             	cmp    %eax,-0x4(%rbp)
    7fb0:	77 0e                	ja     7fc0 <safe_lshift_func_uint32_t_u_u+0x35>
    7fb2:	8b 45 f8             	mov    -0x8(%rbp),%eax
    7fb5:	8b 55 fc             	mov    -0x4(%rbp),%edx
    7fb8:	89 c1                	mov    %eax,%ecx
    7fba:	d3 e2                	shl    %cl,%edx
    7fbc:	89 d0                	mov    %edx,%eax
    7fbe:	eb 03                	jmp    7fc3 <safe_lshift_func_uint32_t_u_u+0x38>
    7fc0:	8b 45 fc             	mov    -0x4(%rbp),%eax
    7fc3:	5d                   	pop    %rbp
    7fc4:	c3                   	retq   

0000000000007fc5 <safe_rshift_func_uint32_t_u_s>:
    7fc5:	f3 0f 1e fa          	endbr64 
    7fc9:	55                   	push   %rbp
    7fca:	48 89 e5             	mov    %rsp,%rbp
    7fcd:	89 7d fc             	mov    %edi,-0x4(%rbp)
    7fd0:	89 75 f8             	mov    %esi,-0x8(%rbp)
    7fd3:	83 7d f8 00          	cmpl   $0x0,-0x8(%rbp)
    7fd7:	78 14                	js     7fed <safe_rshift_func_uint32_t_u_s+0x28>
    7fd9:	83 7d f8 1f          	cmpl   $0x1f,-0x8(%rbp)
    7fdd:	7f 0e                	jg     7fed <safe_rshift_func_uint32_t_u_s+0x28>
    7fdf:	8b 45 f8             	mov    -0x8(%rbp),%eax
    7fe2:	8b 55 fc             	mov    -0x4(%rbp),%edx
    7fe5:	89 c1                	mov    %eax,%ecx
    7fe7:	d3 ea                	shr    %cl,%edx
    7fe9:	89 d0                	mov    %edx,%eax
    7feb:	eb 03                	jmp    7ff0 <safe_rshift_func_uint32_t_u_s+0x2b>
    7fed:	8b 45 fc             	mov    -0x4(%rbp),%eax
    7ff0:	5d                   	pop    %rbp
    7ff1:	c3                   	retq   

0000000000007ff2 <safe_rshift_func_uint32_t_u_u>:
    7ff2:	f3 0f 1e fa          	endbr64 
    7ff6:	55                   	push   %rbp
    7ff7:	48 89 e5             	mov    %rsp,%rbp
    7ffa:	89 7d fc             	mov    %edi,-0x4(%rbp)
    7ffd:	89 75 f8             	mov    %esi,-0x8(%rbp)
    8000:	83 7d f8 1f          	cmpl   $0x1f,-0x8(%rbp)
    8004:	77 0e                	ja     8014 <safe_rshift_func_uint32_t_u_u+0x22>
    8006:	8b 45 f8             	mov    -0x8(%rbp),%eax
    8009:	8b 55 fc             	mov    -0x4(%rbp),%edx
    800c:	89 c1                	mov    %eax,%ecx
    800e:	d3 ea                	shr    %cl,%edx
    8010:	89 d0                	mov    %edx,%eax
    8012:	eb 03                	jmp    8017 <safe_rshift_func_uint32_t_u_u+0x25>
    8014:	8b 45 fc             	mov    -0x4(%rbp),%eax
    8017:	5d                   	pop    %rbp
    8018:	c3                   	retq   

0000000000008019 <safe_unary_minus_func_uint64_t_u>:
    8019:	f3 0f 1e fa          	endbr64 
    801d:	55                   	push   %rbp
    801e:	48 89 e5             	mov    %rsp,%rbp
    8021:	48 89 7d f8          	mov    %rdi,-0x8(%rbp)
    8025:	48 8b 45 f8          	mov    -0x8(%rbp),%rax
    8029:	48 f7 d8             	neg    %rax
    802c:	5d                   	pop    %rbp
    802d:	c3                   	retq   

000000000000802e <safe_add_func_uint64_t_u_u>:
    802e:	f3 0f 1e fa          	endbr64 
    8032:	55                   	push   %rbp
    8033:	48 89 e5             	mov    %rsp,%rbp
    8036:	48 89 7d f8          	mov    %rdi,-0x8(%rbp)
    803a:	48 89 75 f0          	mov    %rsi,-0x10(%rbp)
    803e:	48 8b 55 f8          	mov    -0x8(%rbp),%rdx
    8042:	48 8b 45 f0          	mov    -0x10(%rbp),%rax
    8046:	48 01 d0             	add    %rdx,%rax
    8049:	5d                   	pop    %rbp
    804a:	c3                   	retq   

000000000000804b <safe_sub_func_uint64_t_u_u>:
    804b:	f3 0f 1e fa          	endbr64 
    804f:	55                   	push   %rbp
    8050:	48 89 e5             	mov    %rsp,%rbp
    8053:	48 89 7d f8          	mov    %rdi,-0x8(%rbp)
    8057:	48 89 75 f0          	mov    %rsi,-0x10(%rbp)
    805b:	48 8b 45 f8          	mov    -0x8(%rbp),%rax
    805f:	48 2b 45 f0          	sub    -0x10(%rbp),%rax
    8063:	5d                   	pop    %rbp
    8064:	c3                   	retq   

0000000000008065 <safe_mul_func_uint64_t_u_u>:
    8065:	f3 0f 1e fa          	endbr64 
    8069:	55                   	push   %rbp
    806a:	48 89 e5             	mov    %rsp,%rbp
    806d:	48 89 7d f8          	mov    %rdi,-0x8(%rbp)
    8071:	48 89 75 f0          	mov    %rsi,-0x10(%rbp)
    8075:	48 8b 45 f8          	mov    -0x8(%rbp),%rax
    8079:	48 0f af 45 f0       	imul   -0x10(%rbp),%rax
    807e:	5d                   	pop    %rbp
    807f:	c3                   	retq   

0000000000008080 <safe_mod_func_uint64_t_u_u>:
    8080:	f3 0f 1e fa          	endbr64 
    8084:	55                   	push   %rbp
    8085:	48 89 e5             	mov    %rsp,%rbp
    8088:	48 89 7d f8          	mov    %rdi,-0x8(%rbp)
    808c:	48 89 75 f0          	mov    %rsi,-0x10(%rbp)
    8090:	48 83 7d f0 00       	cmpq   $0x0,-0x10(%rbp)
    8095:	74 12                	je     80a9 <safe_mod_func_uint64_t_u_u+0x29>
    8097:	48 8b 45 f8          	mov    -0x8(%rbp),%rax
    809b:	ba 00 00 00 00       	mov    $0x0,%edx
    80a0:	48 f7 75 f0          	divq   -0x10(%rbp)
    80a4:	48 89 d0             	mov    %rdx,%rax
    80a7:	eb 04                	jmp    80ad <safe_mod_func_uint64_t_u_u+0x2d>
    80a9:	48 8b 45 f8          	mov    -0x8(%rbp),%rax
    80ad:	5d                   	pop    %rbp
    80ae:	c3                   	retq   

00000000000080af <safe_div_func_uint64_t_u_u>:
    80af:	f3 0f 1e fa          	endbr64 
    80b3:	55                   	push   %rbp
    80b4:	48 89 e5             	mov    %rsp,%rbp
    80b7:	48 89 7d f8          	mov    %rdi,-0x8(%rbp)
    80bb:	48 89 75 f0          	mov    %rsi,-0x10(%rbp)
    80bf:	48 83 7d f0 00       	cmpq   $0x0,-0x10(%rbp)
    80c4:	74 0f                	je     80d5 <safe_div_func_uint64_t_u_u+0x26>
    80c6:	48 8b 45 f8          	mov    -0x8(%rbp),%rax
    80ca:	ba 00 00 00 00       	mov    $0x0,%edx
    80cf:	48 f7 75 f0          	divq   -0x10(%rbp)
    80d3:	eb 04                	jmp    80d9 <safe_div_func_uint64_t_u_u+0x2a>
    80d5:	48 8b 45 f8          	mov    -0x8(%rbp),%rax
    80d9:	5d                   	pop    %rbp
    80da:	c3                   	retq   

00000000000080db <safe_lshift_func_uint64_t_u_s>:
    80db:	f3 0f 1e fa          	endbr64 
    80df:	55                   	push   %rbp
    80e0:	48 89 e5             	mov    %rsp,%rbp
    80e3:	48 89 7d f8          	mov    %rdi,-0x8(%rbp)
    80e7:	89 75 f4             	mov    %esi,-0xc(%rbp)
    80ea:	83 7d f4 00          	cmpl   $0x0,-0xc(%rbp)
    80ee:	78 2f                	js     811f <safe_lshift_func_uint64_t_u_s+0x44>
    80f0:	83 7d f4 1f          	cmpl   $0x1f,-0xc(%rbp)
    80f4:	7f 29                	jg     811f <safe_lshift_func_uint64_t_u_s+0x44>
    80f6:	8b 45 f4             	mov    -0xc(%rbp),%eax
    80f9:	48 c7 c2 ff ff ff ff 	mov    $0xffffffffffffffff,%rdx
    8100:	89 c1                	mov    %eax,%ecx
    8102:	48 d3 ea             	shr    %cl,%rdx
    8105:	48 89 d0             	mov    %rdx,%rax
    8108:	48 39 45 f8          	cmp    %rax,-0x8(%rbp)
    810c:	77 11                	ja     811f <safe_lshift_func_uint64_t_u_s+0x44>
    810e:	8b 45 f4             	mov    -0xc(%rbp),%eax
    8111:	48 8b 55 f8          	mov    -0x8(%rbp),%rdx
    8115:	89 c1                	mov    %eax,%ecx
    8117:	48 d3 e2             	shl    %cl,%rdx
    811a:	48 89 d0             	mov    %rdx,%rax
    811d:	eb 04                	jmp    8123 <safe_lshift_func_uint64_t_u_s+0x48>
    811f:	48 8b 45 f8          	mov    -0x8(%rbp),%rax
    8123:	5d                   	pop    %rbp
    8124:	c3                   	retq   

0000000000008125 <safe_lshift_func_uint64_t_u_u>:
    8125:	f3 0f 1e fa          	endbr64 
    8129:	55                   	push   %rbp
    812a:	48 89 e5             	mov    %rsp,%rbp
    812d:	48 89 7d f8          	mov    %rdi,-0x8(%rbp)
    8131:	89 75 f4             	mov    %esi,-0xc(%rbp)
    8134:	83 7d f4 1f          	cmpl   $0x1f,-0xc(%rbp)
    8138:	77 29                	ja     8163 <safe_lshift_func_uint64_t_u_u+0x3e>
    813a:	8b 45 f4             	mov    -0xc(%rbp),%eax
    813d:	48 c7 c2 ff ff ff ff 	mov    $0xffffffffffffffff,%rdx
    8144:	89 c1                	mov    %eax,%ecx
    8146:	48 d3 ea             	shr    %cl,%rdx
    8149:	48 89 d0             	mov    %rdx,%rax
    814c:	48 39 45 f8          	cmp    %rax,-0x8(%rbp)
    8150:	77 11                	ja     8163 <safe_lshift_func_uint64_t_u_u+0x3e>
    8152:	8b 45 f4             	mov    -0xc(%rbp),%eax
    8155:	48 8b 55 f8          	mov    -0x8(%rbp),%rdx
    8159:	89 c1                	mov    %eax,%ecx
    815b:	48 d3 e2             	shl    %cl,%rdx
    815e:	48 89 d0             	mov    %rdx,%rax
    8161:	eb 04                	jmp    8167 <safe_lshift_func_uint64_t_u_u+0x42>
    8163:	48 8b 45 f8          	mov    -0x8(%rbp),%rax
    8167:	5d                   	pop    %rbp
    8168:	c3                   	retq   

0000000000008169 <safe_rshift_func_uint64_t_u_s>:
    8169:	f3 0f 1e fa          	endbr64 
    816d:	55                   	push   %rbp
    816e:	48 89 e5             	mov    %rsp,%rbp
    8171:	48 89 7d f8          	mov    %rdi,-0x8(%rbp)
    8175:	89 75 f4             	mov    %esi,-0xc(%rbp)
    8178:	83 7d f4 00          	cmpl   $0x0,-0xc(%rbp)
    817c:	78 17                	js     8195 <safe_rshift_func_uint64_t_u_s+0x2c>
    817e:	83 7d f4 1f          	cmpl   $0x1f,-0xc(%rbp)
    8182:	7f 11                	jg     8195 <safe_rshift_func_uint64_t_u_s+0x2c>
    8184:	8b 45 f4             	mov    -0xc(%rbp),%eax
    8187:	48 8b 55 f8          	mov    -0x8(%rbp),%rdx
    818b:	89 c1                	mov    %eax,%ecx
    818d:	48 d3 ea             	shr    %cl,%rdx
    8190:	48 89 d0             	mov    %rdx,%rax
    8193:	eb 04                	jmp    8199 <safe_rshift_func_uint64_t_u_s+0x30>
    8195:	48 8b 45 f8          	mov    -0x8(%rbp),%rax
    8199:	5d                   	pop    %rbp
    819a:	c3                   	retq   

000000000000819b <safe_rshift_func_uint64_t_u_u>:
    819b:	f3 0f 1e fa          	endbr64 
    819f:	55                   	push   %rbp
    81a0:	48 89 e5             	mov    %rsp,%rbp
    81a3:	48 89 7d f8          	mov    %rdi,-0x8(%rbp)
    81a7:	89 75 f4             	mov    %esi,-0xc(%rbp)
    81aa:	83 7d f4 1f          	cmpl   $0x1f,-0xc(%rbp)
    81ae:	77 11                	ja     81c1 <safe_rshift_func_uint64_t_u_u+0x26>
    81b0:	8b 45 f4             	mov    -0xc(%rbp),%eax
    81b3:	48 8b 55 f8          	mov    -0x8(%rbp),%rdx
    81b7:	89 c1                	mov    %eax,%ecx
    81b9:	48 d3 ea             	shr    %cl,%rdx
    81bc:	48 89 d0             	mov    %rdx,%rax
    81bf:	eb 04                	jmp    81c5 <safe_rshift_func_uint64_t_u_u+0x2a>
    81c1:	48 8b 45 f8          	mov    -0x8(%rbp),%rax
    81c5:	5d                   	pop    %rbp
    81c6:	c3                   	retq   

00000000000081c7 <safe_add_func_float_f_f>:
    81c7:	f3 0f 1e fa          	endbr64 
    81cb:	55                   	push   %rbp
    81cc:	48 89 e5             	mov    %rsp,%rbp
    81cf:	f3 0f 11 45 fc       	movss  %xmm0,-0x4(%rbp)
    81d4:	f3 0f 11 4d f8       	movss  %xmm1,-0x8(%rbp)
    81d9:	f3 0f 10 4d fc       	movss  -0x4(%rbp),%xmm1
    81de:	f3 0f 10 05 12 e9 00 	movss  0xe912(%rip),%xmm0        # 16af8 <l_885.5109+0x8>
    81e5:	00 
    81e6:	f3 0f 59 c8          	mulss  %xmm0,%xmm1
    81ea:	f3 0f 10 55 f8       	movss  -0x8(%rbp),%xmm2
    81ef:	f3 0f 10 05 01 e9 00 	movss  0xe901(%rip),%xmm0        # 16af8 <l_885.5109+0x8>
    81f6:	00 
    81f7:	f3 0f 59 c2          	mulss  %xmm2,%xmm0
    81fb:	f3 0f 58 c1          	addss  %xmm1,%xmm0
    81ff:	f3 0f 10 0d f9 e8 00 	movss  0xe8f9(%rip),%xmm1        # 16b00 <l_885.5109+0x10>
    8206:	00 
    8207:	0f 54 c1             	andps  %xmm1,%xmm0
    820a:	0f 2f 05 ff e8 00 00 	comiss 0xe8ff(%rip),%xmm0        # 16b10 <l_885.5109+0x20>
    8211:	76 07                	jbe    821a <safe_add_func_float_f_f+0x53>
    8213:	f3 0f 10 45 fc       	movss  -0x4(%rbp),%xmm0
    8218:	eb 0a                	jmp    8224 <safe_add_func_float_f_f+0x5d>
    821a:	f3 0f 10 45 fc       	movss  -0x4(%rbp),%xmm0
    821f:	f3 0f 58 45 f8       	addss  -0x8(%rbp),%xmm0
    8224:	5d                   	pop    %rbp
    8225:	c3                   	retq   

0000000000008226 <safe_sub_func_float_f_f>:
    8226:	f3 0f 1e fa          	endbr64 
    822a:	55                   	push   %rbp
    822b:	48 89 e5             	mov    %rsp,%rbp
    822e:	f3 0f 11 45 fc       	movss  %xmm0,-0x4(%rbp)
    8233:	f3 0f 11 4d f8       	movss  %xmm1,-0x8(%rbp)
    8238:	f3 0f 10 4d fc       	movss  -0x4(%rbp),%xmm1
    823d:	f3 0f 10 05 b3 e8 00 	movss  0xe8b3(%rip),%xmm0        # 16af8 <l_885.5109+0x8>
    8244:	00 
    8245:	f3 0f 59 c1          	mulss  %xmm1,%xmm0
    8249:	f3 0f 10 55 f8       	movss  -0x8(%rbp),%xmm2
    824e:	f3 0f 10 0d a2 e8 00 	movss  0xe8a2(%rip),%xmm1        # 16af8 <l_885.5109+0x8>
    8255:	00 
    8256:	f3 0f 59 ca          	mulss  %xmm2,%xmm1
    825a:	f3 0f 5c c1          	subss  %xmm1,%xmm0
    825e:	f3 0f 10 0d 9a e8 00 	movss  0xe89a(%rip),%xmm1        # 16b00 <l_885.5109+0x10>
    8265:	00 
    8266:	0f 54 c1             	andps  %xmm1,%xmm0
    8269:	0f 2f 05 a0 e8 00 00 	comiss 0xe8a0(%rip),%xmm0        # 16b10 <l_885.5109+0x20>
    8270:	76 07                	jbe    8279 <safe_sub_func_float_f_f+0x53>
    8272:	f3 0f 10 45 fc       	movss  -0x4(%rbp),%xmm0
    8277:	eb 0a                	jmp    8283 <safe_sub_func_float_f_f+0x5d>
    8279:	f3 0f 10 45 fc       	movss  -0x4(%rbp),%xmm0
    827e:	f3 0f 5c 45 f8       	subss  -0x8(%rbp),%xmm0
    8283:	5d                   	pop    %rbp
    8284:	c3                   	retq   

0000000000008285 <safe_mul_func_float_f_f>:
    8285:	f3 0f 1e fa          	endbr64 
    8289:	55                   	push   %rbp
    828a:	48 89 e5             	mov    %rsp,%rbp
    828d:	f3 0f 11 45 fc       	movss  %xmm0,-0x4(%rbp)
    8292:	f3 0f 11 4d f8       	movss  %xmm1,-0x8(%rbp)
    8297:	f3 0f 10 4d fc       	movss  -0x4(%rbp),%xmm1
    829c:	f3 0f 10 05 70 e8 00 	movss  0xe870(%rip),%xmm0        # 16b14 <l_885.5109+0x24>
    82a3:	00 
    82a4:	f3 0f 59 c8          	mulss  %xmm0,%xmm1
    82a8:	f3 0f 10 55 f8       	movss  -0x8(%rbp),%xmm2
    82ad:	f3 0f 10 05 63 e8 00 	movss  0xe863(%rip),%xmm0        # 16b18 <l_885.5109+0x28>
    82b4:	00 
    82b5:	f3 0f 59 c2          	mulss  %xmm2,%xmm0
    82b9:	f3 0f 59 c1          	mulss  %xmm1,%xmm0
    82bd:	f3 0f 10 0d 3b e8 00 	movss  0xe83b(%rip),%xmm1        # 16b00 <l_885.5109+0x10>
    82c4:	00 
    82c5:	0f 54 c1             	andps  %xmm1,%xmm0
    82c8:	0f 2f 05 4d e8 00 00 	comiss 0xe84d(%rip),%xmm0        # 16b1c <l_885.5109+0x2c>
    82cf:	76 07                	jbe    82d8 <safe_mul_func_float_f_f+0x53>
    82d1:	f3 0f 10 45 fc       	movss  -0x4(%rbp),%xmm0
    82d6:	eb 0a                	jmp    82e2 <safe_mul_func_float_f_f+0x5d>
    82d8:	f3 0f 10 45 fc       	movss  -0x4(%rbp),%xmm0
    82dd:	f3 0f 59 45 f8       	mulss  -0x8(%rbp),%xmm0
    82e2:	5d                   	pop    %rbp
    82e3:	c3                   	retq   

00000000000082e4 <safe_div_func_float_f_f>:
    82e4:	f3 0f 1e fa          	endbr64 
    82e8:	55                   	push   %rbp
    82e9:	48 89 e5             	mov    %rsp,%rbp
    82ec:	f3 0f 11 45 fc       	movss  %xmm0,-0x4(%rbp)
    82f1:	f3 0f 11 4d f8       	movss  %xmm1,-0x8(%rbp)
    82f6:	f3 0f 10 45 f8       	movss  -0x8(%rbp),%xmm0
    82fb:	f3 0f 10 0d fd e7 00 	movss  0xe7fd(%rip),%xmm1        # 16b00 <l_885.5109+0x10>
    8302:	00 
    8303:	0f 54 c8             	andps  %xmm0,%xmm1
    8306:	f3 0f 10 05 12 e8 00 	movss  0xe812(%rip),%xmm0        # 16b20 <l_885.5109+0x30>
    830d:	00 
    830e:	0f 2f c1             	comiss %xmm1,%xmm0
    8311:	0f 97 c0             	seta   %al
    8314:	83 f0 01             	xor    $0x1,%eax
    8317:	84 c0                	test   %al,%al
    8319:	75 56                	jne    8371 <safe_div_func_float_f_f+0x8d>
    831b:	66 0f ef c0          	pxor   %xmm0,%xmm0
    831f:	0f 2e 45 f8          	ucomiss -0x8(%rbp),%xmm0
    8323:	7a 0a                	jp     832f <safe_div_func_float_f_f+0x4b>
    8325:	66 0f ef c0          	pxor   %xmm0,%xmm0
    8329:	0f 2e 45 f8          	ucomiss -0x8(%rbp),%xmm0
    832d:	74 4e                	je     837d <safe_div_func_float_f_f+0x99>
    832f:	f3 0f 10 4d fc       	movss  -0x4(%rbp),%xmm1
    8334:	f3 0f 10 05 e8 e7 00 	movss  0xe7e8(%rip),%xmm0        # 16b24 <l_885.5109+0x34>
    833b:	00 
    833c:	f3 0f 59 c1          	mulss  %xmm1,%xmm0
    8340:	f3 0f 10 55 f8       	movss  -0x8(%rbp),%xmm2
    8345:	f3 0f 10 0d db e7 00 	movss  0xe7db(%rip),%xmm1        # 16b28 <l_885.5109+0x38>
    834c:	00 
    834d:	f3 0f 59 ca          	mulss  %xmm2,%xmm1
    8351:	f3 0f 5e c1          	divss  %xmm1,%xmm0
    8355:	f3 0f 10 0d a3 e7 00 	movss  0xe7a3(%rip),%xmm1        # 16b00 <l_885.5109+0x10>
    835c:	00 
    835d:	0f 54 c1             	andps  %xmm1,%xmm0
    8360:	0f 2f 05 c5 e7 00 00 	comiss 0xe7c5(%rip),%xmm0        # 16b2c <l_885.5109+0x3c>
    8367:	0f 97 c0             	seta   %al
    836a:	83 f0 01             	xor    $0x1,%eax
    836d:	84 c0                	test   %al,%al
    836f:	74 0c                	je     837d <safe_div_func_float_f_f+0x99>
    8371:	f3 0f 10 45 fc       	movss  -0x4(%rbp),%xmm0
    8376:	f3 0f 5e 45 f8       	divss  -0x8(%rbp),%xmm0
    837b:	eb 05                	jmp    8382 <safe_div_func_float_f_f+0x9e>
    837d:	f3 0f 10 45 fc       	movss  -0x4(%rbp),%xmm0
    8382:	5d                   	pop    %rbp
    8383:	c3                   	retq   

0000000000008384 <safe_add_func_double_f_f>:
    8384:	f3 0f 1e fa          	endbr64 
    8388:	55                   	push   %rbp
    8389:	48 89 e5             	mov    %rsp,%rbp
    838c:	f2 0f 11 45 f8       	movsd  %xmm0,-0x8(%rbp)
    8391:	f2 0f 11 4d f0       	movsd  %xmm1,-0x10(%rbp)
    8396:	f2 0f 10 4d f8       	movsd  -0x8(%rbp),%xmm1
    839b:	f2 0f 10 05 8d e7 00 	movsd  0xe78d(%rip),%xmm0        # 16b30 <l_885.5109+0x40>
    83a2:	00 
    83a3:	f2 0f 59 c8          	mulsd  %xmm0,%xmm1
    83a7:	f2 0f 10 55 f0       	movsd  -0x10(%rbp),%xmm2
    83ac:	f2 0f 10 05 7c e7 00 	movsd  0xe77c(%rip),%xmm0        # 16b30 <l_885.5109+0x40>
    83b3:	00 
    83b4:	f2 0f 59 c2          	mulsd  %xmm2,%xmm0
    83b8:	f2 0f 58 c1          	addsd  %xmm1,%xmm0
    83bc:	f3 0f 7e 0d 7c e7 00 	movq   0xe77c(%rip),%xmm1        # 16b40 <l_885.5109+0x50>
    83c3:	00 
    83c4:	66 0f 54 c1          	andpd  %xmm1,%xmm0
    83c8:	66 0f 2f 05 80 e7 00 	comisd 0xe780(%rip),%xmm0        # 16b50 <l_885.5109+0x60>
    83cf:	00 
    83d0:	76 07                	jbe    83d9 <safe_add_func_double_f_f+0x55>
    83d2:	f2 0f 10 45 f8       	movsd  -0x8(%rbp),%xmm0
    83d7:	eb 0a                	jmp    83e3 <safe_add_func_double_f_f+0x5f>
    83d9:	f2 0f 10 45 f8       	movsd  -0x8(%rbp),%xmm0
    83de:	f2 0f 58 45 f0       	addsd  -0x10(%rbp),%xmm0
    83e3:	5d                   	pop    %rbp
    83e4:	c3                   	retq   

00000000000083e5 <safe_sub_func_double_f_f>:
    83e5:	f3 0f 1e fa          	endbr64 
    83e9:	55                   	push   %rbp
    83ea:	48 89 e5             	mov    %rsp,%rbp
    83ed:	f2 0f 11 45 f8       	movsd  %xmm0,-0x8(%rbp)
    83f2:	f2 0f 11 4d f0       	movsd  %xmm1,-0x10(%rbp)
    83f7:	f2 0f 10 4d f8       	movsd  -0x8(%rbp),%xmm1
    83fc:	f2 0f 10 05 2c e7 00 	movsd  0xe72c(%rip),%xmm0        # 16b30 <l_885.5109+0x40>
    8403:	00 
    8404:	f2 0f 59 c1          	mulsd  %xmm1,%xmm0
    8408:	f2 0f 10 55 f0       	movsd  -0x10(%rbp),%xmm2
    840d:	f2 0f 10 0d 1b e7 00 	movsd  0xe71b(%rip),%xmm1        # 16b30 <l_885.5109+0x40>
    8414:	00 
    8415:	f2 0f 59 ca          	mulsd  %xmm2,%xmm1
    8419:	f2 0f 5c c1          	subsd  %xmm1,%xmm0
    841d:	f3 0f 7e 0d 1b e7 00 	movq   0xe71b(%rip),%xmm1        # 16b40 <l_885.5109+0x50>
    8424:	00 
    8425:	66 0f 54 c1          	andpd  %xmm1,%xmm0
    8429:	66 0f 2f 05 1f e7 00 	comisd 0xe71f(%rip),%xmm0        # 16b50 <l_885.5109+0x60>
    8430:	00 
    8431:	76 07                	jbe    843a <safe_sub_func_double_f_f+0x55>
    8433:	f2 0f 10 45 f8       	movsd  -0x8(%rbp),%xmm0
    8438:	eb 0a                	jmp    8444 <safe_sub_func_double_f_f+0x5f>
    843a:	f2 0f 10 45 f8       	movsd  -0x8(%rbp),%xmm0
    843f:	f2 0f 5c 45 f0       	subsd  -0x10(%rbp),%xmm0
    8444:	5d                   	pop    %rbp
    8445:	c3                   	retq   

0000000000008446 <safe_mul_func_double_f_f>:
    8446:	f3 0f 1e fa          	endbr64 
    844a:	55                   	push   %rbp
    844b:	48 89 e5             	mov    %rsp,%rbp
    844e:	f2 0f 11 45 f8       	movsd  %xmm0,-0x8(%rbp)
    8453:	f2 0f 11 4d f0       	movsd  %xmm1,-0x10(%rbp)
    8458:	f2 0f 10 4d f8       	movsd  -0x8(%rbp),%xmm1
    845d:	f2 0f 10 05 f3 e6 00 	movsd  0xe6f3(%rip),%xmm0        # 16b58 <l_885.5109+0x68>
    8464:	00 
    8465:	f2 0f 59 c8          	mulsd  %xmm0,%xmm1
    8469:	f2 0f 10 55 f0       	movsd  -0x10(%rbp),%xmm2
    846e:	f2 0f 10 05 ea e6 00 	movsd  0xe6ea(%rip),%xmm0        # 16b60 <l_885.5109+0x70>
    8475:	00 
    8476:	f2 0f 59 c2          	mulsd  %xmm2,%xmm0
    847a:	f2 0f 59 c1          	mulsd  %xmm1,%xmm0
    847e:	f3 0f 7e 0d ba e6 00 	movq   0xe6ba(%rip),%xmm1        # 16b40 <l_885.5109+0x50>
    8485:	00 
    8486:	66 0f 54 c1          	andpd  %xmm1,%xmm0
    848a:	66 0f 2f 05 d6 e6 00 	comisd 0xe6d6(%rip),%xmm0        # 16b68 <l_885.5109+0x78>
    8491:	00 
    8492:	76 07                	jbe    849b <safe_mul_func_double_f_f+0x55>
    8494:	f2 0f 10 45 f8       	movsd  -0x8(%rbp),%xmm0
    8499:	eb 0a                	jmp    84a5 <safe_mul_func_double_f_f+0x5f>
    849b:	f2 0f 10 45 f8       	movsd  -0x8(%rbp),%xmm0
    84a0:	f2 0f 59 45 f0       	mulsd  -0x10(%rbp),%xmm0
    84a5:	5d                   	pop    %rbp
    84a6:	c3                   	retq   

00000000000084a7 <safe_div_func_double_f_f>:
    84a7:	f3 0f 1e fa          	endbr64 
    84ab:	55                   	push   %rbp
    84ac:	48 89 e5             	mov    %rsp,%rbp
    84af:	f2 0f 11 45 f8       	movsd  %xmm0,-0x8(%rbp)
    84b4:	f2 0f 11 4d f0       	movsd  %xmm1,-0x10(%rbp)
    84b9:	f2 0f 10 45 f0       	movsd  -0x10(%rbp),%xmm0
    84be:	f3 0f 7e 0d 7a e6 00 	movq   0xe67a(%rip),%xmm1        # 16b40 <l_885.5109+0x50>
    84c5:	00 
    84c6:	66 0f 54 c8          	andpd  %xmm0,%xmm1
    84ca:	f2 0f 10 05 9e e6 00 	movsd  0xe69e(%rip),%xmm0        # 16b70 <l_885.5109+0x80>
    84d1:	00 
    84d2:	66 0f 2f c1          	comisd %xmm1,%xmm0
    84d6:	0f 97 c0             	seta   %al
    84d9:	83 f0 01             	xor    $0x1,%eax
    84dc:	84 c0                	test   %al,%al
    84de:	75 5a                	jne    853a <safe_div_func_double_f_f+0x93>
    84e0:	66 0f ef c0          	pxor   %xmm0,%xmm0
    84e4:	66 0f 2e 45 f0       	ucomisd -0x10(%rbp),%xmm0
    84e9:	7a 0b                	jp     84f6 <safe_div_func_double_f_f+0x4f>
    84eb:	66 0f ef c0          	pxor   %xmm0,%xmm0
    84ef:	66 0f 2e 45 f0       	ucomisd -0x10(%rbp),%xmm0
    84f4:	74 50                	je     8546 <safe_div_func_double_f_f+0x9f>
    84f6:	f2 0f 10 4d f8       	movsd  -0x8(%rbp),%xmm1
    84fb:	f2 0f 10 05 75 e6 00 	movsd  0xe675(%rip),%xmm0        # 16b78 <l_885.5109+0x88>
    8502:	00 
    8503:	f2 0f 59 c1          	mulsd  %xmm1,%xmm0
    8507:	f2 0f 10 55 f0       	movsd  -0x10(%rbp),%xmm2
    850c:	f2 0f 10 0d 6c e6 00 	movsd  0xe66c(%rip),%xmm1        # 16b80 <l_885.5109+0x90>
    8513:	00 
    8514:	f2 0f 59 ca          	mulsd  %xmm2,%xmm1
    8518:	f2 0f 5e c1          	divsd  %xmm1,%xmm0
    851c:	f3 0f 7e 0d 1c e6 00 	movq   0xe61c(%rip),%xmm1        # 16b40 <l_885.5109+0x50>
    8523:	00 
    8524:	66 0f 54 c1          	andpd  %xmm1,%xmm0
    8528:	66 0f 2f 05 58 e6 00 	comisd 0xe658(%rip),%xmm0        # 16b88 <l_885.5109+0x98>
    852f:	00 
    8530:	0f 97 c0             	seta   %al
    8533:	83 f0 01             	xor    $0x1,%eax
    8536:	84 c0                	test   %al,%al
    8538:	74 0c                	je     8546 <safe_div_func_double_f_f+0x9f>
    853a:	f2 0f 10 45 f8       	movsd  -0x8(%rbp),%xmm0
    853f:	f2 0f 5e 45 f0       	divsd  -0x10(%rbp),%xmm0
    8544:	eb 05                	jmp    854b <safe_div_func_double_f_f+0xa4>
    8546:	f2 0f 10 45 f8       	movsd  -0x8(%rbp),%xmm0
    854b:	5d                   	pop    %rbp
    854c:	c3                   	retq   

000000000000854d <safe_convert_func_float_to_int32_t>:
    854d:	f3 0f 1e fa          	endbr64 
    8551:	55                   	push   %rbp
    8552:	48 89 e5             	mov    %rsp,%rbp
    8555:	f3 0f 11 45 fc       	movss  %xmm0,-0x4(%rbp)
    855a:	f3 0f 10 05 2e e6 00 	movss  0xe62e(%rip),%xmm0        # 16b90 <l_885.5109+0xa0>
    8561:	00 
    8562:	0f 2f 45 fc          	comiss -0x4(%rbp),%xmm0
    8566:	0f 93 c0             	setae  %al
    8569:	83 f0 01             	xor    $0x1,%eax
    856c:	84 c0                	test   %al,%al
    856e:	74 21                	je     8591 <safe_convert_func_float_to_int32_t+0x44>
    8570:	f3 0f 10 45 fc       	movss  -0x4(%rbp),%xmm0
    8575:	0f 2f 05 18 e6 00 00 	comiss 0xe618(%rip),%xmm0        # 16b94 <l_885.5109+0xa4>
    857c:	0f 93 c0             	setae  %al
    857f:	83 f0 01             	xor    $0x1,%eax
    8582:	84 c0                	test   %al,%al
    8584:	74 0b                	je     8591 <safe_convert_func_float_to_int32_t+0x44>
    8586:	f3 0f 10 45 fc       	movss  -0x4(%rbp),%xmm0
    858b:	f3 0f 2c c0          	cvttss2si %xmm0,%eax
    858f:	eb 05                	jmp    8596 <safe_convert_func_float_to_int32_t+0x49>
    8591:	b8 ff ff ff 7f       	mov    $0x7fffffff,%eax
    8596:	5d                   	pop    %rbp
    8597:	c3                   	retq   

0000000000008598 <crc32_gentab>:
    8598:	f3 0f 1e fa          	endbr64 
    859c:	55                   	push   %rbp
    859d:	48 89 e5             	mov    %rsp,%rbp
    85a0:	c7 45 fc 20 83 b8 ed 	movl   $0xedb88320,-0x4(%rbp)
    85a7:	c7 45 f4 00 00 00 00 	movl   $0x0,-0xc(%rbp)
    85ae:	eb 51                	jmp    8601 <crc32_gentab+0x69>
    85b0:	8b 45 f4             	mov    -0xc(%rbp),%eax
    85b3:	89 45 f0             	mov    %eax,-0x10(%rbp)
    85b6:	c7 45 f8 08 00 00 00 	movl   $0x8,-0x8(%rbp)
    85bd:	eb 1e                	jmp    85dd <crc32_gentab+0x45>
    85bf:	8b 45 f0             	mov    -0x10(%rbp),%eax
    85c2:	83 e0 01             	and    $0x1,%eax
    85c5:	85 c0                	test   %eax,%eax
    85c7:	74 0d                	je     85d6 <crc32_gentab+0x3e>
    85c9:	8b 45 f0             	mov    -0x10(%rbp),%eax
    85cc:	d1 e8                	shr    %eax
    85ce:	33 45 fc             	xor    -0x4(%rbp),%eax
    85d1:	89 45 f0             	mov    %eax,-0x10(%rbp)
    85d4:	eb 03                	jmp    85d9 <crc32_gentab+0x41>
    85d6:	d1 6d f0             	shrl   -0x10(%rbp)
    85d9:	83 6d f8 01          	subl   $0x1,-0x8(%rbp)
    85dd:	83 7d f8 00          	cmpl   $0x0,-0x8(%rbp)
    85e1:	7f dc                	jg     85bf <crc32_gentab+0x27>
    85e3:	8b 45 f4             	mov    -0xc(%rbp),%eax
    85e6:	48 98                	cltq   
    85e8:	48 8d 0c 85 00 00 00 	lea    0x0(,%rax,4),%rcx
    85ef:	00 
    85f0:	48 8d 15 a9 bd 01 00 	lea    0x1bda9(%rip),%rdx        # 243a0 <crc32_tab>
    85f7:	8b 45 f0             	mov    -0x10(%rbp),%eax
    85fa:	89 04 11             	mov    %eax,(%rcx,%rdx,1)
    85fd:	83 45 f4 01          	addl   $0x1,-0xc(%rbp)
    8601:	81 7d f4 ff 00 00 00 	cmpl   $0xff,-0xc(%rbp)
    8608:	7e a6                	jle    85b0 <crc32_gentab+0x18>
    860a:	90                   	nop
    860b:	90                   	nop
    860c:	5d                   	pop    %rbp
    860d:	c3                   	retq   

000000000000860e <crc32_byte>:
    860e:	f3 0f 1e fa          	endbr64 
    8612:	55                   	push   %rbp
    8613:	48 89 e5             	mov    %rsp,%rbp
    8616:	89 f8                	mov    %edi,%eax
    8618:	88 45 fc             	mov    %al,-0x4(%rbp)
    861b:	8b 05 ff 19 01 00    	mov    0x119ff(%rip),%eax        # 1a020 <crc32_context>
    8621:	c1 e8 08             	shr    $0x8,%eax
    8624:	89 c1                	mov    %eax,%ecx
    8626:	0f b6 55 fc          	movzbl -0x4(%rbp),%edx
    862a:	8b 05 f0 19 01 00    	mov    0x119f0(%rip),%eax        # 1a020 <crc32_context>
    8630:	31 d0                	xor    %edx,%eax
    8632:	0f b6 c0             	movzbl %al,%eax
    8635:	89 c0                	mov    %eax,%eax
    8637:	48 8d 14 85 00 00 00 	lea    0x0(,%rax,4),%rdx
    863e:	00 
    863f:	48 8d 05 5a bd 01 00 	lea    0x1bd5a(%rip),%rax        # 243a0 <crc32_tab>
    8646:	8b 04 02             	mov    (%rdx,%rax,1),%eax
    8649:	31 c8                	xor    %ecx,%eax
    864b:	89 05 cf 19 01 00    	mov    %eax,0x119cf(%rip)        # 1a020 <crc32_context>
    8651:	90                   	nop
    8652:	5d                   	pop    %rbp
    8653:	c3                   	retq   

0000000000008654 <crc32_8bytes>:
    8654:	f3 0f 1e fa          	endbr64 
    8658:	55                   	push   %rbp
    8659:	48 89 e5             	mov    %rsp,%rbp
    865c:	48 83 ec 08          	sub    $0x8,%rsp
    8660:	48 89 7d f8          	mov    %rdi,-0x8(%rbp)
    8664:	48 8b 45 f8          	mov    -0x8(%rbp),%rax
    8668:	0f b6 c0             	movzbl %al,%eax
    866b:	89 c7                	mov    %eax,%edi
    866d:	e8 9c ff ff ff       	callq  860e <crc32_byte>
    8672:	48 8b 45 f8          	mov    -0x8(%rbp),%rax
    8676:	48 c1 e8 08          	shr    $0x8,%rax
    867a:	0f b6 c0             	movzbl %al,%eax
    867d:	89 c7                	mov    %eax,%edi
    867f:	e8 8a ff ff ff       	callq  860e <crc32_byte>
    8684:	48 8b 45 f8          	mov    -0x8(%rbp),%rax
    8688:	48 c1 e8 10          	shr    $0x10,%rax
    868c:	0f b6 c0             	movzbl %al,%eax
    868f:	89 c7                	mov    %eax,%edi
    8691:	e8 78 ff ff ff       	callq  860e <crc32_byte>
    8696:	48 8b 45 f8          	mov    -0x8(%rbp),%rax
    869a:	48 c1 e8 18          	shr    $0x18,%rax
    869e:	0f b6 c0             	movzbl %al,%eax
    86a1:	89 c7                	mov    %eax,%edi
    86a3:	e8 66 ff ff ff       	callq  860e <crc32_byte>
    86a8:	48 8b 45 f8          	mov    -0x8(%rbp),%rax
    86ac:	48 c1 e8 20          	shr    $0x20,%rax
    86b0:	0f b6 c0             	movzbl %al,%eax
    86b3:	89 c7                	mov    %eax,%edi
    86b5:	e8 54 ff ff ff       	callq  860e <crc32_byte>
    86ba:	48 8b 45 f8          	mov    -0x8(%rbp),%rax
    86be:	48 c1 e8 28          	shr    $0x28,%rax
    86c2:	0f b6 c0             	movzbl %al,%eax
    86c5:	89 c7                	mov    %eax,%edi
    86c7:	e8 42 ff ff ff       	callq  860e <crc32_byte>
    86cc:	48 8b 45 f8          	mov    -0x8(%rbp),%rax
    86d0:	48 c1 e8 30          	shr    $0x30,%rax
    86d4:	0f b6 c0             	movzbl %al,%eax
    86d7:	89 c7                	mov    %eax,%edi
    86d9:	e8 30 ff ff ff       	callq  860e <crc32_byte>
    86de:	48 8b 45 f8          	mov    -0x8(%rbp),%rax
    86e2:	48 c1 e8 38          	shr    $0x38,%rax
    86e6:	0f b6 c0             	movzbl %al,%eax
    86e9:	89 c7                	mov    %eax,%edi
    86eb:	e8 1e ff ff ff       	callq  860e <crc32_byte>
    86f0:	90                   	nop
    86f1:	c9                   	leaveq 
    86f2:	c3                   	retq   

00000000000086f3 <transparent_crc>:
    86f3:	f3 0f 1e fa          	endbr64 
    86f7:	55                   	push   %rbp
    86f8:	48 89 e5             	mov    %rsp,%rbp
    86fb:	48 83 ec 20          	sub    $0x20,%rsp
    86ff:	48 89 7d f8          	mov    %rdi,-0x8(%rbp)
    8703:	48 89 75 f0          	mov    %rsi,-0x10(%rbp)
    8707:	89 55 ec             	mov    %edx,-0x14(%rbp)
    870a:	48 8b 45 f8          	mov    -0x8(%rbp),%rax
    870e:	48 89 c7             	mov    %rax,%rdi
    8711:	e8 3e ff ff ff       	callq  8654 <crc32_8bytes>
    8716:	83 7d ec 00          	cmpl   $0x0,-0x14(%rbp)
    871a:	74 22                	je     873e <transparent_crc+0x4b>
    871c:	8b 05 fe 18 01 00    	mov    0x118fe(%rip),%eax        # 1a020 <crc32_context>
    8722:	f7 d0                	not    %eax
    8724:	89 c2                	mov    %eax,%edx
    8726:	48 8b 45 f0          	mov    -0x10(%rbp),%rax
    872a:	48 89 c6             	mov    %rax,%rsi
    872d:	48 8d 3d fc c8 00 00 	lea    0xc8fc(%rip),%rdi        # 15030 <_IO_stdin_used+0x30>
    8734:	b8 00 00 00 00       	mov    $0x0,%eax
    8739:	e8 42 e9 ff ff       	callq  7080 <printf@plt>
    873e:	90                   	nop
    873f:	c9                   	leaveq 
    8740:	c3                   	retq   

0000000000008741 <transparent_crc_bytes>:
    8741:	f3 0f 1e fa          	endbr64 
    8745:	55                   	push   %rbp
    8746:	48 89 e5             	mov    %rsp,%rbp
    8749:	48 83 ec 30          	sub    $0x30,%rsp
    874d:	48 89 7d e8          	mov    %rdi,-0x18(%rbp)
    8751:	89 75 e4             	mov    %esi,-0x1c(%rbp)
    8754:	48 89 55 d8          	mov    %rdx,-0x28(%rbp)
    8758:	89 4d e0             	mov    %ecx,-0x20(%rbp)
    875b:	c7 45 fc 00 00 00 00 	movl   $0x0,-0x4(%rbp)
    8762:	eb 1e                	jmp    8782 <transparent_crc_bytes+0x41>
    8764:	8b 45 fc             	mov    -0x4(%rbp),%eax
    8767:	48 63 d0             	movslq %eax,%rdx
    876a:	48 8b 45 e8          	mov    -0x18(%rbp),%rax
    876e:	48 01 d0             	add    %rdx,%rax
    8771:	0f b6 00             	movzbl (%rax),%eax
    8774:	0f b6 c0             	movzbl %al,%eax
    8777:	89 c7                	mov    %eax,%edi
    8779:	e8 90 fe ff ff       	callq  860e <crc32_byte>
    877e:	83 45 fc 01          	addl   $0x1,-0x4(%rbp)
    8782:	8b 45 fc             	mov    -0x4(%rbp),%eax
    8785:	3b 45 e4             	cmp    -0x1c(%rbp),%eax
    8788:	7c da                	jl     8764 <transparent_crc_bytes+0x23>
    878a:	83 7d e0 00          	cmpl   $0x0,-0x20(%rbp)
    878e:	74 22                	je     87b2 <transparent_crc_bytes+0x71>
    8790:	8b 05 8a 18 01 00    	mov    0x1188a(%rip),%eax        # 1a020 <crc32_context>
    8796:	f7 d0                	not    %eax
    8798:	89 c2                	mov    %eax,%edx
    879a:	48 8b 45 d8          	mov    -0x28(%rbp),%rax
    879e:	48 89 c6             	mov    %rax,%rsi
    87a1:	48 8d 3d 88 c8 00 00 	lea    0xc888(%rip),%rdi        # 15030 <_IO_stdin_used+0x30>
    87a8:	b8 00 00 00 00       	mov    $0x0,%eax
    87ad:	e8 ce e8 ff ff       	callq  7080 <printf@plt>
    87b2:	90                   	nop
    87b3:	c9                   	leaveq 
    87b4:	c3                   	retq   

00000000000087b5 <func_1>:
    87b5:	f3 0f 1e fa          	endbr64 
    87b9:	55                   	push   %rbp
    87ba:	48 89 e5             	mov    %rsp,%rbp
    87bd:	48 81 ec 80 04 00 00 	sub    $0x480,%rsp
    87c4:	64 48 8b 04 25 28 00 	mov    %fs:0x28,%rax
    87cb:	00 00 
    87cd:	48 89 45 f8          	mov    %rax,-0x8(%rbp)
    87d1:	31 c0                	xor    %eax,%eax
    87d3:	66 c7 85 88 fb ff ff 	movw   $0x0,-0x478(%rbp)
    87da:	00 00 
    87dc:	c7 85 90 fb ff ff f9 	movl   $0xfffffff9,-0x470(%rbp)
    87e3:	ff ff ff 
    87e6:	66 c7 85 8a fb ff ff 	movw   $0x8279,-0x476(%rbp)
    87ed:	79 82 
    87ef:	c7 85 94 fb ff ff 7b 	movl   $0x8e5c8c7b,-0x46c(%rbp)
    87f6:	8c 5c 8e 
    87f9:	c7 05 21 18 01 00 ed 	movl   $0xffffffed,0x11821(%rip)        # 1a024 <g_2>
    8800:	ff ff ff 
    8803:	90                   	nop
    8804:	8b 05 1a 18 01 00    	mov    0x1181a(%rip),%eax        # 1a024 <g_2>
    880a:	83 f8 09             	cmp    $0x9,%eax
    880d:	75 39                	jne    8848 <func_1+0x93>
    880f:	48 8d 05 0e 18 01 00 	lea    0x1180e(%rip),%rax        # 1a024 <g_2>
    8816:	48 89 85 98 fb ff ff 	mov    %rax,-0x468(%rbp)
    881d:	48 8d 85 98 fb ff ff 	lea    -0x468(%rbp),%rax
    8824:	48 89 85 c8 fb ff ff 	mov    %rax,-0x438(%rbp)
    882b:	48 8b 85 c8 fb ff ff 	mov    -0x438(%rbp),%rax
    8832:	48 c7 00 00 00 00 00 	movq   $0x0,(%rax)
    8839:	0f b7 85 88 fb ff ff 	movzwl -0x478(%rbp),%eax
    8840:	0f b7 c0             	movzwl %ax,%eax
    8843:	e9 c4 00 00 00       	jmpq   890c <func_1+0x157>
    8848:	c7 05 d2 17 01 00 00 	movl   $0x0,0x117d2(%rip)        # 1a024 <g_2>
    884f:	00 00 00 
    8852:	e9 a0 00 00 00       	jmpq   88f7 <func_1+0x142>
    8857:	66 c7 85 8c fb ff ff 	movw   $0x3b28,-0x474(%rbp)
    885e:	28 3b 
    8860:	48 8d 85 f0 fc ff ff 	lea    -0x310(%rbp),%rax
    8867:	48 8d 15 b2 95 01 00 	lea    0x195b2(%rip),%rdx        # 21e20 <g_2682+0x40>
    886e:	b9 60 00 00 00       	mov    $0x60,%ecx
    8873:	48 89 c7             	mov    %rax,%rdi
    8876:	48 89 d6             	mov    %rdx,%rsi
    8879:	f3 48 a5             	rep movsq %ds:(%rsi),%es:(%rdi)
    887c:	48 8d 05 ad 17 01 00 	lea    0x117ad(%rip),%rax        # 1a030 <g_41>
    8883:	48 89 85 a0 fb ff ff 	mov    %rax,-0x460(%rbp)
    888a:	48 c7 85 a8 fb ff ff 	movq   $0x0,-0x458(%rbp)
    8891:	00 00 00 00 
    8895:	48 8d 85 d0 fb ff ff 	lea    -0x430(%rbp),%rax
    889c:	48 8d 15 7d 98 01 00 	lea    0x1987d(%rip),%rdx        # 22120 <g_2682+0x340>
    88a3:	b9 24 00 00 00       	mov    $0x24,%ecx
    88a8:	48 89 c7             	mov    %rax,%rdi
    88ab:	48 89 d6             	mov    %rdx,%rsi
    88ae:	f3 48 a5             	rep movsq %ds:(%rsi),%es:(%rdi)
    88b1:	c6 85 87 fb ff ff d5 	movb   $0xd5,-0x479(%rbp)
    88b8:	48 8d 05 0e 6c 01 00 	lea    0x16c0e(%rip),%rax        # 1f4cd <g_997+0x4d>
    88bf:	48 89 85 b0 fb ff ff 	mov    %rax,-0x450(%rbp)
    88c6:	66 c7 85 8e fb ff ff 	movw   $0x1,-0x472(%rbp)
    88cd:	01 00 
    88cf:	48 c7 85 b8 fb ff ff 	movq   $0x0,-0x448(%rbp)
    88d6:	00 00 00 00 
    88da:	48 8d 85 88 fb ff ff 	lea    -0x478(%rbp),%rax
    88e1:	48 89 85 c0 fb ff ff 	mov    %rax,-0x440(%rbp)
    88e8:	8b 05 36 17 01 00    	mov    0x11736(%rip),%eax        # 1a024 <g_2>
    88ee:	83 e8 01             	sub    $0x1,%eax
    88f1:	89 05 2d 17 01 00    	mov    %eax,0x1172d(%rip)        # 1a024 <g_2>
    88f7:	8b 05 27 17 01 00    	mov    0x11727(%rip),%eax        # 1a024 <g_2>
    88fd:	83 f8 eb             	cmp    $0xffffffeb,%eax
    8900:	0f 84 51 ff ff ff    	je     8857 <func_1+0xa2>
    8906:	8b 85 94 fb ff ff    	mov    -0x46c(%rbp),%eax
    890c:	48 8b 55 f8          	mov    -0x8(%rbp),%rdx
    8910:	64 48 33 14 25 28 00 	xor    %fs:0x28,%rdx
    8917:	00 00 
    8919:	74 05                	je     8920 <func_1+0x16b>
    891b:	e8 50 e7 ff ff       	callq  7070 <__stack_chk_fail@plt>
    8920:	c9                   	leaveq 
    8921:	c3                   	retq   

0000000000008922 <func_15>:
    8922:	f3 0f 1e fa          	endbr64 
    8926:	55                   	push   %rbp
    8927:	48 89 e5             	mov    %rsp,%rbp
    892a:	41 54                	push   %r12
    892c:	53                   	push   %rbx
    892d:	48 81 ec 30 04 00 00 	sub    $0x430,%rsp
    8934:	48 89 bd d8 fb ff ff 	mov    %rdi,-0x428(%rbp)
    893b:	89 f0                	mov    %esi,%eax
    893d:	48 89 95 c8 fb ff ff 	mov    %rdx,-0x438(%rbp)
    8944:	88 85 d4 fb ff ff    	mov    %al,-0x42c(%rbp)
    894a:	64 48 8b 04 25 28 00 	mov    %fs:0x28,%rax
    8951:	00 00 
    8953:	48 89 45 e8          	mov    %rax,-0x18(%rbp)
    8957:	31 c0                	xor    %eax,%eax
    8959:	66 c7 85 e0 fb ff ff 	movw   $0xffff,-0x420(%rbp)
    8960:	ff ff 
    8962:	c7 85 1c fc ff ff 03 	movl   $0x3,-0x3e4(%rbp)
    8969:	00 00 00 
    896c:	c7 85 e8 fb ff ff 54 	movl   $0x564b7754,-0x418(%rbp)
    8973:	77 4b 56 
    8976:	c7 85 ec fb ff ff 5f 	movl   $0x5500a05f,-0x414(%rbp)
    897d:	a0 00 55 
    8980:	c7 85 f0 fb ff ff ff 	movl   $0xffffffff,-0x410(%rbp)
    8987:	ff ff ff 
    898a:	c7 85 f4 fb ff ff 08 	movl   $0x8,-0x40c(%rbp)
    8991:	00 00 00 
    8994:	48 c7 85 50 fc ff ff 	movq   $0x0,-0x3b0(%rbp)
    899b:	00 00 00 00 
    899f:	c7 85 f8 fb ff ff ff 	movl   $0xffffffff,-0x408(%rbp)
    89a6:	ff ff ff 
    89a9:	c7 85 fc fb ff ff 00 	movl   $0x0,-0x404(%rbp)
    89b0:	00 00 00 
    89b3:	c7 85 20 fc ff ff 24 	movl   $0xef94b024,-0x3e0(%rbp)
    89ba:	b0 94 ef 
    89bd:	c7 85 00 fc ff ff 87 	movl   $0x5f969687,-0x400(%rbp)
    89c4:	96 96 5f 
    89c7:	c7 85 04 fc ff ff 00 	movl   $0x0,-0x3fc(%rbp)
    89ce:	00 00 00 
    89d1:	c7 85 24 fc ff ff 01 	movl   $0x1,-0x3dc(%rbp)
    89d8:	00 00 00 
    89db:	c7 85 08 fc ff ff f4 	movl   $0x1e3043f4,-0x3f8(%rbp)
    89e2:	43 30 1e 
    89e5:	48 c7 85 48 fc ff ff 	movq   $0x1,-0x3b8(%rbp)
    89ec:	01 00 00 00 
    89f0:	48 c7 85 58 fc ff ff 	movq   $0xfffffffffffffff6,-0x3a8(%rbp)
    89f7:	f6 ff ff ff 
    89fb:	c7 85 28 fc ff ff 06 	movl   $0x6,-0x3d8(%rbp)
    8a02:	00 00 00 
    8a05:	48 8d 05 bc b0 01 00 	lea    0x1b0bc(%rip),%rax        # 23ac8 <g_1115>
    8a0c:	48 89 85 38 fc ff ff 	mov    %rax,-0x3c8(%rbp)
    8a13:	c7 05 33 8c 01 00 00 	movl   $0x0,0x18c33(%rip)        # 21650 <g_2293>
    8a1a:	00 00 00 
    8a1d:	e9 2a 02 00 00       	jmpq   8c4c <func_15+0x32a>
    8a22:	c7 85 30 fc ff ff 01 	movl   $0x1,-0x3d0(%rbp)
    8a29:	00 00 00 
    8a2c:	48 8d 05 25 16 01 00 	lea    0x11625(%rip),%rax        # 1a058 <g_97>
    8a33:	48 89 85 80 fc ff ff 	mov    %rax,-0x380(%rbp)
    8a3a:	48 8d 05 8c 6a 01 00 	lea    0x16a8c(%rip),%rax        # 1f4cd <g_997+0x4d>
    8a41:	48 89 85 88 fc ff ff 	mov    %rax,-0x378(%rbp)
    8a48:	48 8d 05 49 18 01 00 	lea    0x11849(%rip),%rax        # 1a298 <g_294+0x8>
    8a4f:	48 89 85 90 fc ff ff 	mov    %rax,-0x370(%rbp)
    8a56:	48 8d 05 0a 6b 01 00 	lea    0x16b0a(%rip),%rax        # 1f567 <g_1281+0x17>
    8a5d:	48 89 85 98 fc ff ff 	mov    %rax,-0x368(%rbp)
    8a64:	c7 85 40 fc ff ff fc 	movl   $0xfffffffc,-0x3c0(%rbp)
    8a6b:	ff ff ff 
    8a6e:	48 c7 85 a0 fc ff ff 	movq   $0x0,-0x360(%rbp)
    8a75:	00 00 00 00 
    8a79:	48 c7 85 a8 fc ff ff 	movq   $0x0,-0x358(%rbp)
    8a80:	00 00 00 00 
    8a84:	48 8d 05 4d be 01 00 	lea    0x1be4d(%rip),%rax        # 248d8 <g_1530>
    8a8b:	48 89 85 b0 fc ff ff 	mov    %rax,-0x350(%rbp)
    8a92:	48 8d 05 34 6a 01 00 	lea    0x16a34(%rip),%rax        # 1f4cd <g_997+0x4d>
    8a99:	48 89 85 b8 fc ff ff 	mov    %rax,-0x348(%rbp)
    8aa0:	48 8d 05 b1 15 01 00 	lea    0x115b1(%rip),%rax        # 1a058 <g_97>
    8aa7:	48 89 85 c0 fc ff ff 	mov    %rax,-0x340(%rbp)
    8aae:	48 8d 05 ef 17 01 00 	lea    0x117ef(%rip),%rax        # 1a2a4 <g_294+0x14>
    8ab5:	48 89 85 c8 fc ff ff 	mov    %rax,-0x338(%rbp)
    8abc:	48 8d 05 d1 17 01 00 	lea    0x117d1(%rip),%rax        # 1a294 <g_294+0x4>
    8ac3:	48 89 85 d0 fc ff ff 	mov    %rax,-0x330(%rbp)
    8aca:	48 8d 05 87 15 01 00 	lea    0x11587(%rip),%rax        # 1a058 <g_97>
    8ad1:	48 89 85 d8 fc ff ff 	mov    %rax,-0x328(%rbp)
    8ad8:	48 c7 85 e0 fc ff ff 	movq   $0x0,-0x320(%rbp)
    8adf:	00 00 00 00 
    8ae3:	48 c7 85 e8 fc ff ff 	movq   $0x0,-0x318(%rbp)
    8aea:	00 00 00 00 
    8aee:	48 8d 05 a3 17 01 00 	lea    0x117a3(%rip),%rax        # 1a298 <g_294+0x8>
    8af5:	48 89 85 f0 fc ff ff 	mov    %rax,-0x310(%rbp)
    8afc:	48 8d 05 95 17 01 00 	lea    0x11795(%rip),%rax        # 1a298 <g_294+0x8>
    8b03:	48 89 85 f8 fc ff ff 	mov    %rax,-0x308(%rbp)
    8b0a:	c7 85 0c fc ff ff 00 	movl   $0x0,-0x3f4(%rbp)
    8b11:	00 00 00 
    8b14:	eb 1e                	jmp    8b34 <func_15+0x212>
    8b16:	8b 85 0c fc ff ff    	mov    -0x3f4(%rbp),%eax
    8b1c:	48 98                	cltq   
    8b1e:	48 8d 95 40 fc ff ff 	lea    -0x3c0(%rbp),%rdx
    8b25:	48 89 94 c5 b0 fd ff 	mov    %rdx,-0x250(%rbp,%rax,8)
    8b2c:	ff 
    8b2d:	83 85 0c fc ff ff 01 	addl   $0x1,-0x3f4(%rbp)
    8b34:	83 bd 0c fc ff ff 06 	cmpl   $0x6,-0x3f4(%rbp)
    8b3b:	7e d9                	jle    8b16 <func_15+0x1f4>
    8b3d:	48 83 ad 48 fc ff ff 	subq   $0x1,-0x3b8(%rbp)
    8b44:	01 
    8b45:	c6 05 74 bd 01 00 00 	movb   $0x0,0x1bd74(%rip)        # 248c0 <g_1389>
    8b4c:	e9 dd 00 00 00       	jmpq   8c2e <func_15+0x30c>
    8b51:	66 c7 85 e6 fb ff ff 	movw   $0xfff6,-0x41a(%rbp)
    8b58:	f6 ff 
    8b5a:	c7 85 34 fc ff ff 06 	movl   $0x88a9f506,-0x3cc(%rbp)
    8b61:	f5 a9 88 
    8b64:	48 b8 46 4a e6 af 8c 	movabs $0x55e1718cafe64a46,%rax
    8b6b:	71 e1 55 
    8b6e:	48 89 85 00 fd ff ff 	mov    %rax,-0x300(%rbp)
    8b75:	c7 85 60 fd ff ff 8c 	movl   $0x5112e38c,-0x2a0(%rbp)
    8b7c:	e3 12 51 
    8b7f:	c7 85 64 fd ff ff 8c 	movl   $0x5112e38c,-0x29c(%rbp)
    8b86:	e3 12 51 
    8b89:	c7 85 68 fd ff ff 8c 	movl   $0x5112e38c,-0x298(%rbp)
    8b90:	e3 12 51 
    8b93:	c7 85 6c fd ff ff 8c 	movl   $0x5112e38c,-0x294(%rbp)
    8b9a:	e3 12 51 
    8b9d:	c7 85 70 fd ff ff 8c 	movl   $0x5112e38c,-0x290(%rbp)
    8ba4:	e3 12 51 
    8ba7:	c7 85 74 fd ff ff 8c 	movl   $0x5112e38c,-0x28c(%rbp)
    8bae:	e3 12 51 
    8bb1:	c7 85 10 fc ff ff 00 	movl   $0x0,-0x3f0(%rbp)
    8bb8:	00 00 00 
    8bbb:	eb 1a                	jmp    8bd7 <func_15+0x2b5>
    8bbd:	8b 85 10 fc ff ff    	mov    -0x3f0(%rbp),%eax
    8bc3:	48 98                	cltq   
    8bc5:	c7 84 85 10 fd ff ff 	movl   $0xfffffff8,-0x2f0(%rbp,%rax,4)
    8bcc:	f8 ff ff ff 
    8bd0:	83 85 10 fc ff ff 01 	addl   $0x1,-0x3f0(%rbp)
    8bd7:	83 bd 10 fc ff ff 03 	cmpl   $0x3,-0x3f0(%rbp)
    8bde:	7e dd                	jle    8bbd <func_15+0x29b>
    8be0:	48 8b 85 b8 fc ff ff 	mov    -0x348(%rbp),%rax
    8be7:	8b 10                	mov    (%rax),%edx
    8be9:	48 8b 85 90 fc ff ff 	mov    -0x370(%rbp),%rax
    8bf0:	8b 00                	mov    (%rax),%eax
    8bf2:	31 c2                	xor    %eax,%edx
    8bf4:	48 8b 85 b8 fc ff ff 	mov    -0x348(%rbp),%rax
    8bfb:	89 10                	mov    %edx,(%rax)
    8bfd:	48 8b 85 b8 fc ff ff 	mov    -0x348(%rbp),%rax
    8c04:	8b 10                	mov    (%rax),%edx
    8c06:	48 8b 85 98 fc ff ff 	mov    -0x368(%rbp),%rax
    8c0d:	89 10                	mov    %edx,(%rax)
    8c0f:	8b 85 70 fd ff ff    	mov    -0x290(%rbp),%eax
    8c15:	83 c0 01             	add    $0x1,%eax
    8c18:	89 85 70 fd ff ff    	mov    %eax,-0x290(%rbp)
    8c1e:	0f b6 05 9b bc 01 00 	movzbl 0x1bc9b(%rip),%eax        # 248c0 <g_1389>
    8c25:	83 c0 01             	add    $0x1,%eax
    8c28:	88 05 92 bc 01 00    	mov    %al,0x1bc92(%rip)        # 248c0 <g_1389>
    8c2e:	0f b6 05 8b bc 01 00 	movzbl 0x1bc8b(%rip),%eax        # 248c0 <g_1389>
    8c35:	3c 35                	cmp    $0x35,%al
    8c37:	0f 85 14 ff ff ff    	jne    8b51 <func_15+0x22f>
    8c3d:	8b 05 0d 8a 01 00    	mov    0x18a0d(%rip),%eax        # 21650 <g_2293>
    8c43:	83 c0 01             	add    $0x1,%eax
    8c46:	89 05 04 8a 01 00    	mov    %eax,0x18a04(%rip)        # 21650 <g_2293>
    8c4c:	8b 05 fe 89 01 00    	mov    0x189fe(%rip),%eax        # 21650 <g_2293>
    8c52:	83 f8 03             	cmp    $0x3,%eax
    8c55:	0f 87 c7 fd ff ff    	ja     8a22 <func_15+0x100>
    8c5b:	66 c7 05 ec 68 01 00 	movw   $0x0,0x168ec(%rip)        # 1f550 <g_1281>
    8c62:	00 00 
    8c64:	eb 56                	jmp    8cbc <func_15+0x39a>
    8c66:	c7 05 f7 68 01 00 00 	movl   $0x0,0x168f7(%rip)        # 1f567 <g_1281+0x17>
    8c6d:	00 00 00 
    8c70:	eb 21                	jmp    8c93 <func_15+0x371>
    8c72:	66 c7 85 e4 fb ff ff 	movw   $0x95fb,-0x41c(%rbp)
    8c79:	fb 95 
    8c7b:	66 c7 85 e4 fb ff ff 	movw   $0x4ac7,-0x41c(%rbp)
    8c82:	c7 4a 
    8c84:	8b 05 dd 68 01 00    	mov    0x168dd(%rip),%eax        # 1f567 <g_1281+0x17>
    8c8a:	83 e8 01             	sub    $0x1,%eax
    8c8d:	89 05 d4 68 01 00    	mov    %eax,0x168d4(%rip)        # 1f567 <g_1281+0x17>
    8c93:	8b 05 ce 68 01 00    	mov    0x168ce(%rip),%eax        # 1f567 <g_1281+0x17>
    8c99:	83 f8 f7             	cmp    $0xfffffff7,%eax
    8c9c:	7d d4                	jge    8c72 <func_15+0x350>
    8c9e:	0f b7 05 ab 68 01 00 	movzwl 0x168ab(%rip),%eax        # 1f550 <g_1281>
    8ca5:	0f b7 c0             	movzwl %ax,%eax
    8ca8:	be 01 00 00 00       	mov    $0x1,%esi
    8cad:	48 89 c7             	mov    %rax,%rdi
    8cb0:	e8 8c eb ff ff       	callq  7841 <safe_add_func_int64_t_s_s>
    8cb5:	66 89 05 94 68 01 00 	mov    %ax,0x16894(%rip)        # 1f550 <g_1281>
    8cbc:	0f b7 05 8d 68 01 00 	movzwl 0x1688d(%rip),%eax        # 1f550 <g_1281>
    8cc3:	66 83 f8 11          	cmp    $0x11,%ax
    8cc7:	76 9d                	jbe    8c66 <func_15+0x344>
    8cc9:	c6 05 60 13 01 00 f2 	movb   $0xf2,0x11360(%rip)        # 1a030 <g_41>
    8cd0:	e9 51 07 00 00       	jmpq   9426 <func_15+0xb04>
    8cd5:	66 c7 85 e2 fb ff ff 	movw   $0x207f,-0x41e(%rbp)
    8cdc:	7f 20 
    8cde:	48 8d 85 f8 fb ff ff 	lea    -0x408(%rbp),%rax
    8ce5:	48 89 85 60 fc ff ff 	mov    %rax,-0x3a0(%rbp)
    8cec:	48 8d 05 71 86 01 00 	lea    0x18671(%rip),%rax        # 21364 <g_1961+0x4>
    8cf3:	48 89 85 10 fd ff ff 	mov    %rax,-0x2f0(%rbp)
    8cfa:	48 8d 05 6f 86 01 00 	lea    0x1866f(%rip),%rax        # 21370 <g_1961+0x10>
    8d01:	48 89 85 18 fd ff ff 	mov    %rax,-0x2e8(%rbp)
    8d08:	48 8d 05 61 86 01 00 	lea    0x18661(%rip),%rax        # 21370 <g_1961+0x10>
    8d0f:	48 89 85 20 fd ff ff 	mov    %rax,-0x2e0(%rbp)
    8d16:	48 8d 05 47 86 01 00 	lea    0x18647(%rip),%rax        # 21364 <g_1961+0x4>
    8d1d:	48 89 85 28 fd ff ff 	mov    %rax,-0x2d8(%rbp)
    8d24:	48 8d 05 45 86 01 00 	lea    0x18645(%rip),%rax        # 21370 <g_1961+0x10>
    8d2b:	48 89 85 30 fd ff ff 	mov    %rax,-0x2d0(%rbp)
    8d32:	48 8d 05 37 86 01 00 	lea    0x18637(%rip),%rax        # 21370 <g_1961+0x10>
    8d39:	48 89 85 38 fd ff ff 	mov    %rax,-0x2c8(%rbp)
    8d40:	48 8d 05 1d 86 01 00 	lea    0x1861d(%rip),%rax        # 21364 <g_1961+0x4>
    8d47:	48 89 85 40 fd ff ff 	mov    %rax,-0x2c0(%rbp)
    8d4e:	48 8d 05 1b 86 01 00 	lea    0x1861b(%rip),%rax        # 21370 <g_1961+0x10>
    8d55:	48 89 85 48 fd ff ff 	mov    %rax,-0x2b8(%rbp)
    8d5c:	48 8d 05 0d 86 01 00 	lea    0x1860d(%rip),%rax        # 21370 <g_1961+0x10>
    8d63:	48 89 85 50 fd ff ff 	mov    %rax,-0x2b0(%rbp)
    8d6a:	48 8d 85 f4 fb ff ff 	lea    -0x40c(%rbp),%rax
    8d71:	48 89 85 b0 fd ff ff 	mov    %rax,-0x250(%rbp)
    8d78:	48 8d 85 00 fc ff ff 	lea    -0x400(%rbp),%rax
    8d7f:	48 89 85 b8 fd ff ff 	mov    %rax,-0x248(%rbp)
    8d86:	48 8d 05 0b 15 01 00 	lea    0x1150b(%rip),%rax        # 1a298 <g_294+0x8>
    8d8d:	48 89 85 c0 fd ff ff 	mov    %rax,-0x240(%rbp)
    8d94:	48 8d 85 04 fc ff ff 	lea    -0x3fc(%rbp),%rax
    8d9b:	48 89 85 c8 fd ff ff 	mov    %rax,-0x238(%rbp)
    8da2:	48 8d 85 fc fb ff ff 	lea    -0x404(%rbp),%rax
    8da9:	48 89 85 d0 fd ff ff 	mov    %rax,-0x230(%rbp)
    8db0:	48 8d 85 ec fb ff ff 	lea    -0x414(%rbp),%rax
    8db7:	48 89 85 d8 fd ff ff 	mov    %rax,-0x228(%rbp)
    8dbe:	48 8d 05 93 12 01 00 	lea    0x11293(%rip),%rax        # 1a058 <g_97>
    8dc5:	48 89 85 e0 fd ff ff 	mov    %rax,-0x220(%rbp)
    8dcc:	48 8d 85 00 fc ff ff 	lea    -0x400(%rbp),%rax
    8dd3:	48 89 85 e8 fd ff ff 	mov    %rax,-0x218(%rbp)
    8dda:	48 8d 05 bf 14 01 00 	lea    0x114bf(%rip),%rax        # 1a2a0 <g_294+0x10>
    8de1:	48 89 85 f0 fd ff ff 	mov    %rax,-0x210(%rbp)
    8de8:	48 8d 85 ec fb ff ff 	lea    -0x414(%rbp),%rax
    8def:	48 89 85 f8 fd ff ff 	mov    %rax,-0x208(%rbp)
    8df6:	48 8d 85 f0 fb ff ff 	lea    -0x410(%rbp),%rax
    8dfd:	48 89 85 00 fe ff ff 	mov    %rax,-0x200(%rbp)
    8e04:	48 8d 05 19 12 01 00 	lea    0x11219(%rip),%rax        # 1a024 <g_2>
    8e0b:	48 89 85 08 fe ff ff 	mov    %rax,-0x1f8(%rbp)
    8e12:	48 c7 85 10 fe ff ff 	movq   $0x0,-0x1f0(%rbp)
    8e19:	00 00 00 00 
    8e1d:	48 8d 85 ec fb ff ff 	lea    -0x414(%rbp),%rax
    8e24:	48 89 85 18 fe ff ff 	mov    %rax,-0x1e8(%rbp)
    8e2b:	48 8d 85 00 fc ff ff 	lea    -0x400(%rbp),%rax
    8e32:	48 89 85 20 fe ff ff 	mov    %rax,-0x1e0(%rbp)
    8e39:	48 8d 85 f0 fb ff ff 	lea    -0x410(%rbp),%rax
    8e40:	48 89 85 28 fe ff ff 	mov    %rax,-0x1d8(%rbp)
    8e47:	48 8d 85 ec fb ff ff 	lea    -0x414(%rbp),%rax
    8e4e:	48 89 85 30 fe ff ff 	mov    %rax,-0x1d0(%rbp)
    8e55:	48 8d 85 fc fb ff ff 	lea    -0x404(%rbp),%rax
    8e5c:	48 89 85 38 fe ff ff 	mov    %rax,-0x1c8(%rbp)
    8e63:	48 8d 05 fd 66 01 00 	lea    0x166fd(%rip),%rax        # 1f567 <g_1281+0x17>
    8e6a:	48 89 85 40 fe ff ff 	mov    %rax,-0x1c0(%rbp)
    8e71:	48 8d 85 f0 fb ff ff 	lea    -0x410(%rbp),%rax
    8e78:	48 89 85 48 fe ff ff 	mov    %rax,-0x1b8(%rbp)
    8e7f:	48 8d 05 9e 11 01 00 	lea    0x1119e(%rip),%rax        # 1a024 <g_2>
    8e86:	48 89 85 50 fe ff ff 	mov    %rax,-0x1b0(%rbp)
    8e8d:	48 c7 85 58 fe ff ff 	movq   $0x0,-0x1a8(%rbp)
    8e94:	00 00 00 00 
    8e98:	48 8d 85 f4 fb ff ff 	lea    -0x40c(%rbp),%rax
    8e9f:	48 89 85 60 fe ff ff 	mov    %rax,-0x1a0(%rbp)
    8ea6:	48 8d 85 00 fc ff ff 	lea    -0x400(%rbp),%rax
    8ead:	48 89 85 68 fe ff ff 	mov    %rax,-0x198(%rbp)
    8eb4:	48 c7 85 70 fe ff ff 	movq   $0x0,-0x190(%rbp)
    8ebb:	00 00 00 00 
    8ebf:	48 8d 85 f4 fb ff ff 	lea    -0x40c(%rbp),%rax
    8ec6:	48 89 85 78 fe ff ff 	mov    %rax,-0x188(%rbp)
    8ecd:	48 c7 85 80 fe ff ff 	movq   $0x0,-0x180(%rbp)
    8ed4:	00 00 00 00 
    8ed8:	48 8d 85 00 fc ff ff 	lea    -0x400(%rbp),%rax
    8edf:	48 89 85 88 fe ff ff 	mov    %rax,-0x178(%rbp)
    8ee6:	48 8d 85 f4 fb ff ff 	lea    -0x40c(%rbp),%rax
    8eed:	48 89 85 90 fe ff ff 	mov    %rax,-0x170(%rbp)
    8ef4:	48 c7 85 98 fe ff ff 	movq   $0x0,-0x168(%rbp)
    8efb:	00 00 00 00 
    8eff:	48 8d 85 ec fb ff ff 	lea    -0x414(%rbp),%rax
    8f06:	48 89 85 a0 fe ff ff 	mov    %rax,-0x160(%rbp)
    8f0d:	48 c7 85 a8 fe ff ff 	movq   $0x0,-0x158(%rbp)
    8f14:	00 00 00 00 
    8f18:	48 8d 85 f0 fb ff ff 	lea    -0x410(%rbp),%rax
    8f1f:	48 89 85 b0 fe ff ff 	mov    %rax,-0x150(%rbp)
    8f26:	48 c7 85 b8 fe ff ff 	movq   $0x0,-0x148(%rbp)
    8f2d:	00 00 00 00 
    8f31:	48 8d 85 04 fc ff ff 	lea    -0x3fc(%rbp),%rax
    8f38:	48 89 85 c0 fe ff ff 	mov    %rax,-0x140(%rbp)
    8f3f:	48 8d 85 08 fc ff ff 	lea    -0x3f8(%rbp),%rax
    8f46:	48 89 85 c8 fe ff ff 	mov    %rax,-0x138(%rbp)
    8f4d:	48 8d 05 44 13 01 00 	lea    0x11344(%rip),%rax        # 1a298 <g_294+0x8>
    8f54:	48 89 85 d0 fe ff ff 	mov    %rax,-0x130(%rbp)
    8f5b:	48 8d 85 04 fc ff ff 	lea    -0x3fc(%rbp),%rax
    8f62:	48 89 85 d8 fe ff ff 	mov    %rax,-0x128(%rbp)
    8f69:	48 8d 05 28 13 01 00 	lea    0x11328(%rip),%rax        # 1a298 <g_294+0x8>
    8f70:	48 89 85 e0 fe ff ff 	mov    %rax,-0x120(%rbp)
    8f77:	48 8d 85 e8 fb ff ff 	lea    -0x418(%rbp),%rax
    8f7e:	48 89 85 e8 fe ff ff 	mov    %rax,-0x118(%rbp)
    8f85:	48 8d 85 04 fc ff ff 	lea    -0x3fc(%rbp),%rax
    8f8c:	48 89 85 f0 fe ff ff 	mov    %rax,-0x110(%rbp)
    8f93:	48 c7 85 f8 fe ff ff 	movq   $0x0,-0x108(%rbp)
    8f9a:	00 00 00 00 
    8f9e:	48 8d 05 c2 65 01 00 	lea    0x165c2(%rip),%rax        # 1f567 <g_1281+0x17>
    8fa5:	48 89 85 00 ff ff ff 	mov    %rax,-0x100(%rbp)
    8fac:	48 c7 85 08 ff ff ff 	movq   $0x0,-0xf8(%rbp)
    8fb3:	00 00 00 00 
    8fb7:	48 8d 85 00 fc ff ff 	lea    -0x400(%rbp),%rax
    8fbe:	48 89 85 10 ff ff ff 	mov    %rax,-0xf0(%rbp)
    8fc5:	48 8d 85 08 fc ff ff 	lea    -0x3f8(%rbp),%rax
    8fcc:	48 89 85 18 ff ff ff 	mov    %rax,-0xe8(%rbp)
    8fd3:	48 8d 05 c6 12 01 00 	lea    0x112c6(%rip),%rax        # 1a2a0 <g_294+0x10>
    8fda:	48 89 85 20 ff ff ff 	mov    %rax,-0xe0(%rbp)
    8fe1:	48 8d 05 b0 12 01 00 	lea    0x112b0(%rip),%rax        # 1a298 <g_294+0x8>
    8fe8:	48 89 85 28 ff ff ff 	mov    %rax,-0xd8(%rbp)
    8fef:	48 8d 85 f0 fb ff ff 	lea    -0x410(%rbp),%rax
    8ff6:	48 89 85 30 ff ff ff 	mov    %rax,-0xd0(%rbp)
    8ffd:	48 c7 85 38 ff ff ff 	movq   $0x0,-0xc8(%rbp)
    9004:	00 00 00 00 
    9008:	48 8d 85 ec fb ff ff 	lea    -0x414(%rbp),%rax
    900f:	48 89 85 40 ff ff ff 	mov    %rax,-0xc0(%rbp)
    9016:	48 8d 85 fc fb ff ff 	lea    -0x404(%rbp),%rax
    901d:	48 89 85 48 ff ff ff 	mov    %rax,-0xb8(%rbp)
    9024:	48 8d 85 04 fc ff ff 	lea    -0x3fc(%rbp),%rax
    902b:	48 89 85 50 ff ff ff 	mov    %rax,-0xb0(%rbp)
    9032:	48 8d 05 5f 12 01 00 	lea    0x1125f(%rip),%rax        # 1a298 <g_294+0x8>
    9039:	48 89 85 58 ff ff ff 	mov    %rax,-0xa8(%rbp)
    9040:	48 8d 85 00 fc ff ff 	lea    -0x400(%rbp),%rax
    9047:	48 89 85 60 ff ff ff 	mov    %rax,-0xa0(%rbp)
    904e:	48 8d 85 f4 fb ff ff 	lea    -0x40c(%rbp),%rax
    9055:	48 89 85 68 ff ff ff 	mov    %rax,-0x98(%rbp)
    905c:	48 c7 85 70 ff ff ff 	movq   $0x0,-0x90(%rbp)
    9063:	00 00 00 00 
    9067:	48 c7 85 78 ff ff ff 	movq   $0x0,-0x88(%rbp)
    906e:	00 00 00 00 
    9072:	48 8d 85 f4 fb ff ff 	lea    -0x40c(%rbp),%rax
    9079:	48 89 45 80          	mov    %rax,-0x80(%rbp)
    907d:	48 8d 85 00 fc ff ff 	lea    -0x400(%rbp),%rax
    9084:	48 89 45 88          	mov    %rax,-0x78(%rbp)
    9088:	48 8d 05 95 0f 01 00 	lea    0x10f95(%rip),%rax        # 1a024 <g_2>
    908f:	48 89 45 90          	mov    %rax,-0x70(%rbp)
    9093:	48 8d 85 04 fc ff ff 	lea    -0x3fc(%rbp),%rax
    909a:	48 89 45 98          	mov    %rax,-0x68(%rbp)
    909e:	48 8d 85 04 fc ff ff 	lea    -0x3fc(%rbp),%rax
    90a5:	48 89 45 a0          	mov    %rax,-0x60(%rbp)
    90a9:	48 8d 05 74 0f 01 00 	lea    0x10f74(%rip),%rax        # 1a024 <g_2>
    90b0:	48 89 45 a8          	mov    %rax,-0x58(%rbp)
    90b4:	48 c7 45 b0 00 00 00 	movq   $0x0,-0x50(%rbp)
    90bb:	00 
    90bc:	48 8d 85 f0 fb ff ff 	lea    -0x410(%rbp),%rax
    90c3:	48 89 45 b8          	mov    %rax,-0x48(%rbp)
    90c7:	48 8d 05 ca 11 01 00 	lea    0x111ca(%rip),%rax        # 1a298 <g_294+0x8>
    90ce:	48 89 45 c0          	mov    %rax,-0x40(%rbp)
    90d2:	48 8d 05 c7 11 01 00 	lea    0x111c7(%rip),%rax        # 1a2a0 <g_294+0x10>
    90d9:	48 89 45 c8          	mov    %rax,-0x38(%rbp)
    90dd:	48 8d 85 08 fc ff ff 	lea    -0x3f8(%rbp),%rax
    90e4:	48 89 45 d0          	mov    %rax,-0x30(%rbp)
    90e8:	48 8d 85 00 fc ff ff 	lea    -0x400(%rbp),%rax
    90ef:	48 89 45 d8          	mov    %rax,-0x28(%rbp)
    90f3:	0f bf 95 e2 fb ff ff 	movswl -0x41e(%rbp),%edx
    90fa:	48 8b 85 60 fc ff ff 	mov    -0x3a0(%rbp),%rax
    9101:	89 10                	mov    %edx,(%rax)
    9103:	c7 85 e8 fb ff ff 00 	movl   $0x0,-0x418(%rbp)
    910a:	00 00 00 
    910d:	90                   	nop
    910e:	8b 85 e8 fb ff ff    	mov    -0x418(%rbp),%eax
    9114:	83 f8 08             	cmp    $0x8,%eax
    9117:	7f 15                	jg     912e <func_15+0x80c>
    9119:	c7 85 2c fc ff ff 01 	movl   $0x1,-0x3d4(%rbp)
    9120:	00 00 00 
    9123:	8b 85 2c fc ff ff    	mov    -0x3d4(%rbp),%eax
    9129:	e9 1e 03 00 00       	jmpq   944c <func_15+0xb2a>
    912e:	0f b6 9d d4 fb ff ff 	movzbl -0x42c(%rbp),%ebx
    9135:	48 8b 85 60 fc ff ff 	mov    -0x3a0(%rbp),%rax
    913c:	44 8b 20             	mov    (%rax),%r12d
    913f:	48 8b 85 60 fc ff ff 	mov    -0x3a0(%rbp),%rax
    9146:	8b 00                	mov    (%rax),%eax
    9148:	39 85 28 fc ff ff    	cmp    %eax,-0x3d8(%rbp)
    914e:	0f 94 c0             	sete   %al
    9151:	0f b6 c0             	movzbl %al,%eax
    9154:	89 c6                	mov    %eax,%esi
    9156:	bf de 54 97 82       	mov    $0x829754de,%edi
    915b:	e8 58 ed ff ff       	callq  7eb8 <safe_add_func_uint32_t_u_u>
    9160:	44 89 e6             	mov    %r12d,%esi
    9163:	89 c7                	mov    %eax,%edi
    9165:	e8 4c e4 ff ff       	callq  75b6 <safe_add_func_int32_t_s_s>
    916a:	89 85 20 fc ff ff    	mov    %eax,-0x3e0(%rbp)
    9170:	8b 85 24 fc ff ff    	mov    -0x3dc(%rbp),%eax
    9176:	89 c6                	mov    %eax,%esi
    9178:	bf 01 00 00 00       	mov    $0x1,%edi
    917d:	e8 4e ed ff ff       	callq  7ed0 <safe_sub_func_uint32_t_u_u>
    9182:	89 c1                	mov    %eax,%ecx
    9184:	48 8b 05 65 a8 01 00 	mov    0x1a865(%rip),%rax        # 239f0 <g_646>
    918b:	0f b7 10             	movzwl (%rax),%edx
    918e:	83 ea 01             	sub    $0x1,%edx
    9191:	66 89 10             	mov    %dx,(%rax)
    9194:	0f b7 00             	movzwl (%rax),%eax
    9197:	0f b7 c0             	movzwl %ax,%eax
    919a:	89 ce                	mov    %ecx,%esi
    919c:	89 c7                	mov    %eax,%edi
    919e:	e8 a5 ec ff ff       	callq  7e48 <safe_rshift_func_uint16_t_u_s>
    91a3:	0f b7 c0             	movzwl %ax,%eax
    91a6:	be 01 00 00 00       	mov    $0x1,%esi
    91ab:	89 c7                	mov    %eax,%edi
    91ad:	e8 4d e5 ff ff       	callq  76ff <safe_div_func_int32_t_s_s>
    91b2:	0f b6 95 d4 fb ff ff 	movzbl -0x42c(%rbp),%edx
    91b9:	39 d0                	cmp    %edx,%eax
    91bb:	8b 85 e8 fb ff ff    	mov    -0x418(%rbp),%eax
    91c1:	98                   	cwtl   
    91c2:	be 00 00 00 00       	mov    $0x0,%esi
    91c7:	89 c7                	mov    %eax,%edi
    91c9:	e8 27 e2 ff ff       	callq  73f5 <safe_mul_func_int16_t_s_s>
    91ce:	0f bf d0             	movswl %ax,%edx
    91d1:	0f b6 85 d4 fb ff ff 	movzbl -0x42c(%rbp),%eax
    91d8:	39 c2                	cmp    %eax,%edx
    91da:	0f 9f c0             	setg   %al
    91dd:	0f b6 c0             	movzbl %al,%eax
    91e0:	be 58 00 00 00       	mov    $0x58,%esi
    91e5:	89 c7                	mov    %eax,%edi
    91e7:	e8 8c e9 ff ff       	callq  7b78 <safe_sub_func_uint8_t_u_u>
    91ec:	89 c2                	mov    %eax,%edx
    91ee:	48 8b 05 3b b0 01 00 	mov    0x1b03b(%rip),%rax        # 24230 <g_1577>
    91f5:	0f b6 d2             	movzbl %dl,%edx
    91f8:	89 10                	mov    %edx,(%rax)
    91fa:	8b 00                	mov    (%rax),%eax
    91fc:	be 09 00 00 00       	mov    $0x9,%esi
    9201:	89 c7                	mov    %eax,%edi
    9203:	e8 fd e3 ff ff       	callq  7605 <safe_sub_func_int32_t_s_s>
    9208:	85 c0                	test   %eax,%eax
    920a:	75 0a                	jne    9216 <func_15+0x8f4>
    920c:	8b 85 f8 fb ff ff    	mov    -0x408(%rbp),%eax
    9212:	85 c0                	test   %eax,%eax
    9214:	74 07                	je     921d <func_15+0x8fb>
    9216:	b8 01 00 00 00       	mov    $0x1,%eax
    921b:	eb 05                	jmp    9222 <func_15+0x900>
    921d:	b8 00 00 00 00       	mov    $0x0,%eax
    9222:	0f b6 c0             	movzbl %al,%eax
    9225:	be bd 00 00 00       	mov    $0xbd,%esi
    922a:	89 c7                	mov    %eax,%edi
    922c:	e8 7d e9 ff ff       	callq  7bae <safe_mod_func_uint8_t_u_u>
    9231:	0f b6 d0             	movzbl %al,%edx
    9234:	48 8b 85 60 fc ff ff 	mov    -0x3a0(%rbp),%rax
    923b:	89 10                	mov    %edx,(%rax)
    923d:	48 8b 05 e4 b5 01 00 	mov    0x1b5e4(%rip),%rax        # 24828 <g_64>
    9244:	0f b6 00             	movzbl (%rax),%eax
    9247:	38 85 d4 fb ff ff    	cmp    %al,-0x42c(%rbp)
    924d:	0f 92 c0             	setb   %al
    9250:	0f b6 c0             	movzbl %al,%eax
    9253:	89 de                	mov    %ebx,%esi
    9255:	89 c7                	mov    %eax,%edi
    9257:	e8 52 e9 ff ff       	callq  7bae <safe_mod_func_uint8_t_u_u>
    925c:	0f b6 c0             	movzbl %al,%eax
    925f:	89 c6                	mov    %eax,%esi
    9261:	bf f8 ff ff ff       	mov    $0xfffffff8,%edi
    9266:	e8 8a e1 ff ff       	callq  73f5 <safe_mul_func_int16_t_s_s>
    926b:	66 85 c0             	test   %ax,%ax
    926e:	0f 84 93 01 00 00    	je     9407 <func_15+0xae5>
    9274:	c7 85 14 fc ff ff 00 	movl   $0x0,-0x3ec(%rbp)
    927b:	00 00 00 
    927e:	eb 1a                	jmp    929a <func_15+0x978>
    9280:	8b 85 14 fc ff ff    	mov    -0x3ec(%rbp),%eax
    9286:	48 98                	cltq   
    9288:	c7 84 85 0c fd ff ff 	movl   $0x2d0a47fb,-0x2f4(%rbp,%rax,4)
    928f:	fb 47 0a 2d 
    9293:	83 85 14 fc ff ff 01 	addl   $0x1,-0x3ec(%rbp)
    929a:	83 bd 14 fc ff ff 00 	cmpl   $0x0,-0x3ec(%rbp)
    92a1:	7e dd                	jle    9280 <func_15+0x95e>
    92a3:	48 8b 05 6e a7 01 00 	mov    0x1a76e(%rip),%rax        # 23a18 <g_925>
    92aa:	48 8b 00             	mov    (%rax),%rax
    92ad:	48 8b 00             	mov    (%rax),%rax
    92b0:	48 8b 95 10 fe ff ff 	mov    -0x1f0(%rbp),%rdx
    92b7:	48 89 10             	mov    %rdx,(%rax)
    92ba:	48 c7 05 f3 7f 01 00 	movq   $0x0,0x17ff3(%rip)        # 212b8 <g_1853+0x18>
    92c1:	00 00 00 00 
    92c5:	eb 24                	jmp    92eb <func_15+0x9c9>
    92c7:	48 8b 05 ea 7f 01 00 	mov    0x17fea(%rip),%rax        # 212b8 <g_1853+0x18>
    92ce:	48 8d 15 6b 0d 01 00 	lea    0x10d6b(%rip),%rdx        # 1a040 <g_73>
    92d5:	c6 04 10 e6          	movb   $0xe6,(%rax,%rdx,1)
    92d9:	48 8b 05 d8 7f 01 00 	mov    0x17fd8(%rip),%rax        # 212b8 <g_1853+0x18>
    92e0:	48 83 c0 01          	add    $0x1,%rax
    92e4:	48 89 05 cd 7f 01 00 	mov    %rax,0x17fcd(%rip)        # 212b8 <g_1853+0x18>
    92eb:	48 8b 05 c6 7f 01 00 	mov    0x17fc6(%rip),%rax        # 212b8 <g_1853+0x18>
    92f2:	48 83 f8 08          	cmp    $0x8,%rax
    92f6:	76 cf                	jbe    92c7 <func_15+0x9a5>
    92f8:	66 c7 05 91 0e 01 00 	movw   $0x0,0x10e91(%rip)        # 1a192 <g_174>
    92ff:	00 00 
    9301:	e9 df 00 00 00       	jmpq   93e5 <func_15+0xac3>
    9306:	48 8d 85 60 fd ff ff 	lea    -0x2a0(%rbp),%rax
    930d:	48 83 c0 20          	add    $0x20,%rax
    9311:	48 89 85 40 fc ff ff 	mov    %rax,-0x3c0(%rbp)
    9318:	48 8d 85 40 fc ff ff 	lea    -0x3c0(%rbp),%rax
    931f:	48 89 85 68 fc ff ff 	mov    %rax,-0x398(%rbp)
    9326:	48 c7 85 70 fc ff ff 	movq   $0x0,-0x390(%rbp)
    932d:	00 00 00 00 
    9331:	48 8d 85 38 fc ff ff 	lea    -0x3c8(%rbp),%rax
    9338:	48 89 85 78 fc ff ff 	mov    %rax,-0x388(%rbp)
    933f:	c7 85 18 fc ff ff 00 	movl   $0x0,-0x3e8(%rbp)
    9346:	00 00 00 
    9349:	eb 1b                	jmp    9366 <func_15+0xa44>
    934b:	8b 85 18 fc ff ff    	mov    -0x3e8(%rbp),%eax
    9351:	48 98                	cltq   
    9353:	48 c7 84 c5 60 fd ff 	movq   $0x0,-0x2a0(%rbp,%rax,8)
    935a:	ff 00 00 00 00 
    935f:	83 85 18 fc ff ff 01 	addl   $0x1,-0x3e8(%rbp)
    9366:	83 bd 18 fc ff ff 08 	cmpl   $0x8,-0x3e8(%rbp)
    936d:	7e dc                	jle    934b <func_15+0xa29>
    936f:	8b 85 0c fd ff ff    	mov    -0x2f4(%rbp),%eax
    9375:	83 e8 01             	sub    $0x1,%eax
    9378:	89 85 0c fd ff ff    	mov    %eax,-0x2f4(%rbp)
    937e:	0f b6 95 d4 fb ff ff 	movzbl -0x42c(%rbp),%edx
    9385:	48 8b 8d 38 fc ff ff 	mov    -0x3c8(%rbp),%rcx
    938c:	48 8b 85 78 fc ff ff 	mov    -0x388(%rbp),%rax
    9393:	48 89 08             	mov    %rcx,(%rax)
    9396:	48 8b 85 78 fc ff ff 	mov    -0x388(%rbp),%rax
    939d:	48 8b 00             	mov    (%rax),%rax
    93a0:	48 39 85 68 fc ff ff 	cmp    %rax,-0x398(%rbp)
    93a7:	0f 95 c0             	setne  %al
    93aa:	0f b6 c0             	movzbl %al,%eax
    93ad:	89 d6                	mov    %edx,%esi
    93af:	89 c7                	mov    %eax,%edi
    93b1:	e8 08 ea ff ff       	callq  7dbe <safe_lshift_func_uint16_t_u_s>
    93b6:	66 3d f8 00          	cmp    $0xf8,%ax
    93ba:	0f 95 c0             	setne  %al
    93bd:	0f b6 d0             	movzbl %al,%edx
    93c0:	48 8b 85 60 fc ff ff 	mov    -0x3a0(%rbp),%rax
    93c7:	8b 00                	mov    (%rax),%eax
    93c9:	09 c2                	or     %eax,%edx
    93cb:	48 8b 85 60 fc ff ff 	mov    -0x3a0(%rbp),%rax
    93d2:	89 10                	mov    %edx,(%rax)
    93d4:	0f b7 05 b7 0d 01 00 	movzwl 0x10db7(%rip),%eax        # 1a192 <g_174>
    93db:	83 e8 01             	sub    $0x1,%eax
    93de:	66 89 05 ad 0d 01 00 	mov    %ax,0x10dad(%rip)        # 1a192 <g_174>
    93e5:	0f b7 05 a6 0d 01 00 	movzwl 0x10da6(%rip),%eax        # 1a192 <g_174>
    93ec:	66 83 f8 ef          	cmp    $0xffef,%ax
    93f0:	0f 84 10 ff ff ff    	je     9306 <func_15+0x9e4>
    93f6:	8b 95 fc fb ff ff    	mov    -0x404(%rbp),%edx
    93fc:	48 8b 85 60 fc ff ff 	mov    -0x3a0(%rbp),%rax
    9403:	89 10                	mov    %edx,(%rax)
    9405:	eb 0f                	jmp    9416 <func_15+0xaf4>
    9407:	8b 05 5a 61 01 00    	mov    0x1615a(%rip),%eax        # 1f567 <g_1281+0x17>
    940d:	85 c0                	test   %eax,%eax
    940f:	74 05                	je     9416 <func_15+0xaf4>
    9411:	e9 fd f5 ff ff       	jmpq   8a13 <func_15+0xf1>
    9416:	0f b6 05 13 0c 01 00 	movzbl 0x10c13(%rip),%eax        # 1a030 <g_41>
    941d:	83 c0 01             	add    $0x1,%eax
    9420:	88 05 0a 0c 01 00    	mov    %al,0x10c0a(%rip)        # 1a030 <g_41>
    9426:	0f b6 05 03 0c 01 00 	movzbl 0x10c03(%rip),%eax        # 1a030 <g_41>
    942d:	3c 35                	cmp    $0x35,%al
    942f:	0f 84 a0 f8 ff ff    	je     8cd5 <func_15+0x3b3>
    9435:	0f b6 05 f4 0b 01 00 	movzbl 0x10bf4(%rip),%eax        # 1a030 <g_41>
    943c:	84 c0                	test   %al,%al
    943e:	74 05                	je     9445 <func_15+0xb23>
    9440:	e9 ce f5 ff ff       	jmpq   8a13 <func_15+0xf1>
    9445:	0f b6 85 d4 fb ff ff 	movzbl -0x42c(%rbp),%eax
    944c:	48 8b 5d e8          	mov    -0x18(%rbp),%rbx
    9450:	64 48 33 1c 25 28 00 	xor    %fs:0x28,%rbx
    9457:	00 00 
    9459:	74 05                	je     9460 <func_15+0xb3e>
    945b:	e8 10 dc ff ff       	callq  7070 <__stack_chk_fail@plt>
    9460:	48 81 c4 30 04 00 00 	add    $0x430,%rsp
    9467:	5b                   	pop    %rbx
    9468:	41 5c                	pop    %r12
    946a:	5d                   	pop    %rbp
    946b:	c3                   	retq   

000000000000946c <func_19>:
    946c:	f3 0f 1e fa          	endbr64 
    9470:	55                   	push   %rbp
    9471:	48 89 e5             	mov    %rsp,%rbp
    9474:	48 83 ec 60          	sub    $0x60,%rsp
    9478:	89 7d bc             	mov    %edi,-0x44(%rbp)
    947b:	89 75 b8             	mov    %esi,-0x48(%rbp)
    947e:	89 d0                	mov    %edx,%eax
    9480:	48 89 4d a8          	mov    %rcx,-0x58(%rbp)
    9484:	4c 89 45 a0          	mov    %r8,-0x60(%rbp)
    9488:	88 45 b4             	mov    %al,-0x4c(%rbp)
    948b:	64 48 8b 04 25 28 00 	mov    %fs:0x28,%rax
    9492:	00 00 
    9494:	48 89 45 f8          	mov    %rax,-0x8(%rbp)
    9498:	31 c0                	xor    %eax,%eax
    949a:	48 8d 05 b7 0b 01 00 	lea    0x10bb7(%rip),%rax        # 1a058 <g_97>
    94a1:	48 89 45 c0          	mov    %rax,-0x40(%rbp)
    94a5:	48 8d 05 ac 0b 01 00 	lea    0x10bac(%rip),%rax        # 1a058 <g_97>
    94ac:	48 89 45 c8          	mov    %rax,-0x38(%rbp)
    94b0:	48 8d 05 a1 0b 01 00 	lea    0x10ba1(%rip),%rax        # 1a058 <g_97>
    94b7:	48 89 45 d0          	mov    %rax,-0x30(%rbp)
    94bb:	48 8d 05 96 0b 01 00 	lea    0x10b96(%rip),%rax        # 1a058 <g_97>
    94c2:	48 89 45 d8          	mov    %rax,-0x28(%rbp)
    94c6:	48 8d 05 8b 0b 01 00 	lea    0x10b8b(%rip),%rax        # 1a058 <g_97>
    94cd:	48 89 45 e0          	mov    %rax,-0x20(%rbp)
    94d1:	48 8d 05 80 0b 01 00 	lea    0x10b80(%rip),%rax        # 1a058 <g_97>
    94d8:	48 89 45 e8          	mov    %rax,-0x18(%rbp)
    94dc:	48 8b 45 a0          	mov    -0x60(%rbp),%rax
    94e0:	48 8b 10             	mov    (%rax),%rdx
    94e3:	48 8b 45 d0          	mov    -0x30(%rbp),%rax
    94e7:	48 39 c2             	cmp    %rax,%rdx
    94ea:	0f 94 c0             	sete   %al
    94ed:	0f b6 c0             	movzbl %al,%eax
    94f0:	23 45 b8             	and    -0x48(%rbp),%eax
    94f3:	33 45 bc             	xor    -0x44(%rbp),%eax
    94f6:	89 c2                	mov    %eax,%edx
    94f8:	48 8b 45 a8          	mov    -0x58(%rbp),%rax
    94fc:	89 10                	mov    %edx,(%rax)
    94fe:	48 8b 05 6b a1 01 00 	mov    0x1a16b(%rip),%rax        # 23670 <g_96>
    9505:	8b 10                	mov    (%rax),%edx
    9507:	48 8b 45 a8          	mov    -0x58(%rbp),%rax
    950b:	89 10                	mov    %edx,(%rax)
    950d:	48 c7 05 47 60 01 00 	movq   $0xe,0x16047(%rip)        # 1f55f <g_1281+0xf>
    9514:	0e 00 00 00 
    9518:	eb 34                	jmp    954e <func_19+0xe2>
    951a:	c7 45 bc 00 00 00 00 	movl   $0x0,-0x44(%rbp)
    9521:	83 7d bc 0d          	cmpl   $0xd,-0x44(%rbp)
    9525:	75 0c                	jne    9533 <func_19+0xc7>
    9527:	48 8b 05 6a a4 01 00 	mov    0x1a46a(%rip),%rax        # 23998 <g_445>
    952e:	48 8b 00             	mov    (%rax),%rax
    9531:	eb 2c                	jmp    955f <func_19+0xf3>
    9533:	48 8b 05 25 60 01 00 	mov    0x16025(%rip),%rax        # 1f55f <g_1281+0xf>
    953a:	be 01 00 00 00       	mov    $0x1,%esi
    953f:	48 89 c7             	mov    %rax,%rdi
    9542:	e8 fa e2 ff ff       	callq  7841 <safe_add_func_int64_t_s_s>
    9547:	48 89 05 11 60 01 00 	mov    %rax,0x16011(%rip)        # 1f55f <g_1281+0xf>
    954e:	48 8b 05 0a 60 01 00 	mov    0x1600a(%rip),%rax        # 1f55f <g_1281+0xf>
    9555:	48 83 f8 1a          	cmp    $0x1a,%rax
    9559:	75 bf                	jne    951a <func_19+0xae>
    955b:	48 8b 45 a0          	mov    -0x60(%rbp),%rax
    955f:	48 8b 4d f8          	mov    -0x8(%rbp),%rcx
    9563:	64 48 33 0c 25 28 00 	xor    %fs:0x28,%rcx
    956a:	00 00 
    956c:	74 05                	je     9573 <func_19+0x107>
    956e:	e8 fd da ff ff       	callq  7070 <__stack_chk_fail@plt>
    9573:	c9                   	leaveq 
    9574:	c3                   	retq   

0000000000009575 <func_25>:
    9575:	f3 0f 1e fa          	endbr64 
    9579:	55                   	push   %rbp
    957a:	48 89 e5             	mov    %rsp,%rbp
    957d:	48 81 ec c0 00 00 00 	sub    $0xc0,%rsp
    9584:	48 89 bd 48 ff ff ff 	mov    %rdi,-0xb8(%rbp)
    958b:	48 89 b5 40 ff ff ff 	mov    %rsi,-0xc0(%rbp)
    9592:	64 48 8b 04 25 28 00 	mov    %fs:0x28,%rax
    9599:	00 00 
    959b:	48 89 45 f8          	mov    %rax,-0x8(%rbp)
    959f:	31 c0                	xor    %eax,%eax
    95a1:	c7 85 5c ff ff ff 30 	movl   $0xa8603730,-0xa4(%rbp)
    95a8:	37 60 a8 
    95ab:	48 8d 05 a6 0a 01 00 	lea    0x10aa6(%rip),%rax        # 1a058 <g_97>
    95b2:	48 89 85 60 ff ff ff 	mov    %rax,-0xa0(%rbp)
    95b9:	48 8d 05 a7 5f 01 00 	lea    0x15fa7(%rip),%rax        # 1f567 <g_1281+0x17>
    95c0:	48 89 85 68 ff ff ff 	mov    %rax,-0x98(%rbp)
    95c7:	48 8d 05 ca 0c 01 00 	lea    0x10cca(%rip),%rax        # 1a298 <g_294+0x8>
    95ce:	48 89 85 70 ff ff ff 	mov    %rax,-0x90(%rbp)
    95d5:	c7 85 54 ff ff ff e0 	movl   $0xf7fa5be0,-0xac(%rbp)
    95dc:	5b fa f7 
    95df:	48 8d 05 81 5f 01 00 	lea    0x15f81(%rip),%rax        # 1f567 <g_1281+0x17>
    95e6:	48 89 85 78 ff ff ff 	mov    %rax,-0x88(%rbp)
    95ed:	48 c7 45 80 00 00 00 	movq   $0x0,-0x80(%rbp)
    95f4:	00 
    95f5:	48 8d 85 54 ff ff ff 	lea    -0xac(%rbp),%rax
    95fc:	48 89 45 88          	mov    %rax,-0x78(%rbp)
    9600:	48 8d 85 54 ff ff ff 	lea    -0xac(%rbp),%rax
    9607:	48 89 45 90          	mov    %rax,-0x70(%rbp)
    960b:	c7 85 58 ff ff ff ff 	movl   $0xffffffff,-0xa8(%rbp)
    9612:	ff ff ff 
    9615:	48 8d 85 58 ff ff ff 	lea    -0xa8(%rbp),%rax
    961c:	48 89 45 a0          	mov    %rax,-0x60(%rbp)
    9620:	48 c7 45 a8 00 00 00 	movq   $0x0,-0x58(%rbp)
    9627:	00 
    9628:	48 8d 85 58 ff ff ff 	lea    -0xa8(%rbp),%rax
    962f:	48 89 45 b0          	mov    %rax,-0x50(%rbp)
    9633:	48 8d 85 58 ff ff ff 	lea    -0xa8(%rbp),%rax
    963a:	48 89 45 b8          	mov    %rax,-0x48(%rbp)
    963e:	48 c7 45 c0 00 00 00 	movq   $0x0,-0x40(%rbp)
    9645:	00 
    9646:	48 8d 85 58 ff ff ff 	lea    -0xa8(%rbp),%rax
    964d:	48 89 45 c8          	mov    %rax,-0x38(%rbp)
    9651:	48 8d 85 58 ff ff ff 	lea    -0xa8(%rbp),%rax
    9658:	48 89 45 d0          	mov    %rax,-0x30(%rbp)
    965c:	48 c7 45 d8 00 00 00 	movq   $0x0,-0x28(%rbp)
    9663:	00 
    9664:	48 8d 85 58 ff ff ff 	lea    -0xa8(%rbp),%rax
    966b:	48 89 45 e0          	mov    %rax,-0x20(%rbp)
    966f:	48 8d 85 58 ff ff ff 	lea    -0xa8(%rbp),%rax
    9676:	48 89 45 e8          	mov    %rax,-0x18(%rbp)
    967a:	0f b6 05 32 87 01 00 	movzbl 0x18732(%rip),%eax        # 21db3 <g_2672+0x3>
    9681:	83 c0 01             	add    $0x1,%eax
    9684:	88 05 29 87 01 00    	mov    %al,0x18729(%rip)        # 21db3 <g_2672+0x3>
    968a:	48 c7 05 c3 0c 01 00 	movq   $0x0,0x10cc3(%rip)        # 1a358 <g_546+0x18>
    9691:	00 00 00 00 
    9695:	90                   	nop
    9696:	48 8b 05 bb 0c 01 00 	mov    0x10cbb(%rip),%rax        # 1a358 <g_546+0x18>
    969d:	48 83 f8 1a          	cmp    $0x1a,%rax
    96a1:	77 37                	ja     96da <func_25+0x165>
    96a3:	48 b8 66 ad 80 5b 4d 	movabs $0x8febe54d5b80ad66,%rax
    96aa:	e5 eb 8f 
    96ad:	48 89 45 98          	mov    %rax,-0x68(%rbp)
    96b1:	48 8b 85 68 ff ff ff 	mov    -0x98(%rbp),%rax
    96b8:	8b 00                	mov    (%rax),%eax
    96ba:	0d 8f e8 57 ef       	or     $0xef57e88f,%eax
    96bf:	89 c2                	mov    %eax,%edx
    96c1:	48 8b 85 68 ff ff ff 	mov    -0x98(%rbp),%rax
    96c8:	89 10                	mov    %edx,(%rax)
    96ca:	48 83 45 98 01       	addq   $0x1,-0x68(%rbp)
    96cf:	48 8b 05 ea ab 01 00 	mov    0x1abea(%rip),%rax        # 242c0 <g_2486>
    96d6:	8b 00                	mov    (%rax),%eax
    96d8:	eb 09                	jmp    96e3 <func_25+0x16e>
    96da:	48 8b 05 8f 9f 01 00 	mov    0x19f8f(%rip),%rax        # 23670 <g_96>
    96e1:	8b 00                	mov    (%rax),%eax
    96e3:	48 8b 4d f8          	mov    -0x8(%rbp),%rcx
    96e7:	64 48 33 0c 25 28 00 	xor    %fs:0x28,%rcx
    96ee:	00 00 
    96f0:	74 05                	je     96f7 <func_25+0x182>
    96f2:	e8 79 d9 ff ff       	callq  7070 <__stack_chk_fail@plt>
    96f7:	c9                   	leaveq 
    96f8:	c3                   	retq   

00000000000096f9 <func_28>:
    96f9:	f3 0f 1e fa          	endbr64 
    96fd:	55                   	push   %rbp
    96fe:	48 89 e5             	mov    %rsp,%rbp
    9701:	41 54                	push   %r12
    9703:	53                   	push   %rbx
    9704:	48 81 ec d0 09 00 00 	sub    $0x9d0,%rsp
    970b:	48 89 bd 28 f6 ff ff 	mov    %rdi,-0x9d8(%rbp)
    9712:	89 b5 24 f6 ff ff    	mov    %esi,-0x9dc(%rbp)
    9718:	64 48 8b 04 25 28 00 	mov    %fs:0x28,%rax
    971f:	00 00 
    9721:	48 89 45 e8          	mov    %rax,-0x18(%rbp)
    9725:	31 c0                	xor    %eax,%eax
    9727:	66 c7 85 38 f6 ff ff 	movw   $0xffff,-0x9c8(%rbp)
    972e:	ff ff 
    9730:	c7 85 3c f6 ff ff ff 	movl   $0xffffffff,-0x9c4(%rbp)
    9737:	ff ff ff 
    973a:	48 c7 85 50 f6 ff ff 	movq   $0x0,-0x9b0(%rbp)
    9741:	00 00 00 00 
    9745:	48 8d 85 c0 f6 ff ff 	lea    -0x940(%rbp),%rax
    974c:	48 89 85 98 f6 ff ff 	mov    %rax,-0x968(%rbp)
    9753:	48 8d 05 b0 5d 01 00 	lea    0x15db0(%rip),%rax        # 1f50a <g_1243+0x2>
    975a:	48 89 85 a0 f6 ff ff 	mov    %rax,-0x960(%rbp)
    9761:	48 8d 05 29 0a 01 00 	lea    0x10a29(%rip),%rax        # 1a191 <g_167>
    9768:	48 89 85 58 f6 ff ff 	mov    %rax,-0x9a8(%rbp)
    976f:	c7 85 40 f6 ff ff fc 	movl   $0xfffffffc,-0x9c0(%rbp)
    9776:	ff ff ff 
    9779:	48 8d 85 40 f6 ff ff 	lea    -0x9c0(%rbp),%rax
    9780:	48 89 85 88 f6 ff ff 	mov    %rax,-0x978(%rbp)
    9787:	c7 85 48 f6 ff ff 2b 	movl   $0x88122d2b,-0x9b8(%rbp)
    978e:	2d 12 88 
    9791:	c7 85 4c f6 ff ff f6 	movl   $0xfffffff6,-0x9b4(%rbp)
    9798:	ff ff ff 
    979b:	66 c7 85 3a f6 ff ff 	movw   $0xfffa,-0x9c6(%rbp)
    97a2:	fa ff 
    97a4:	48 c7 85 90 f6 ff ff 	movq   $0x0,-0x970(%rbp)
    97ab:	00 00 00 00 
    97af:	48 8d 05 8e 7b 01 00 	lea    0x17b8e(%rip),%rax        # 21344 <g_1869+0x24>
    97b6:	48 89 85 10 f8 ff ff 	mov    %rax,-0x7f0(%rbp)
    97bd:	48 8d 85 3c f6 ff ff 	lea    -0x9c4(%rbp),%rax
    97c4:	48 89 85 18 f8 ff ff 	mov    %rax,-0x7e8(%rbp)
    97cb:	48 8d 85 3c f6 ff ff 	lea    -0x9c4(%rbp),%rax
    97d2:	48 89 85 20 f8 ff ff 	mov    %rax,-0x7e0(%rbp)
    97d9:	48 8d 05 64 7b 01 00 	lea    0x17b64(%rip),%rax        # 21344 <g_1869+0x24>
    97e0:	48 89 85 28 f8 ff ff 	mov    %rax,-0x7d8(%rbp)
    97e7:	48 8d 85 3c f6 ff ff 	lea    -0x9c4(%rbp),%rax
    97ee:	48 89 85 30 f8 ff ff 	mov    %rax,-0x7d0(%rbp)
    97f5:	48 8d 05 c8 7a 01 00 	lea    0x17ac8(%rip),%rax        # 212c4 <g_1853+0x24>
    97fc:	48 89 85 38 f8 ff ff 	mov    %rax,-0x7c8(%rbp)
    9803:	48 8d 05 46 7e 01 00 	lea    0x17e46(%rip),%rax        # 21650 <g_2293>
    980a:	48 89 85 40 f8 ff ff 	mov    %rax,-0x7c0(%rbp)
    9811:	48 c7 85 48 f8 ff ff 	movq   $0x0,-0x7b8(%rbp)
    9818:	00 00 00 00 
    981c:	48 8d 05 61 7c 01 00 	lea    0x17c61(%rip),%rax        # 21484 <g_1990+0x24>
    9823:	48 89 85 50 f8 ff ff 	mov    %rax,-0x7b0(%rbp)
    982a:	48 c7 85 58 f8 ff ff 	movq   $0x0,-0x7a8(%rbp)
    9831:	00 00 00 00 
    9835:	48 c7 85 60 f8 ff ff 	movq   $0x0,-0x7a0(%rbp)
    983c:	00 00 00 00 
    9840:	48 c7 85 68 f8 ff ff 	movq   $0x0,-0x798(%rbp)
    9847:	00 00 00 00 
    984b:	48 c7 85 70 f8 ff ff 	movq   $0x0,-0x790(%rbp)
    9852:	00 00 00 00 
    9856:	48 c7 85 78 f8 ff ff 	movq   $0x0,-0x788(%rbp)
    985d:	00 00 00 00 
    9861:	48 8d 05 ac 73 01 00 	lea    0x173ac(%rip),%rax        # 20c14 <g_1608+0x2f4>
    9868:	48 89 85 80 f8 ff ff 	mov    %rax,-0x780(%rbp)
    986f:	48 c7 85 88 f8 ff ff 	movq   $0x0,-0x778(%rbp)
    9876:	00 00 00 00 
    987a:	48 8d 85 3c f6 ff ff 	lea    -0x9c4(%rbp),%rax
    9881:	48 89 85 90 f8 ff ff 	mov    %rax,-0x770(%rbp)
    9888:	48 c7 85 98 f8 ff ff 	movq   $0x0,-0x768(%rbp)
    988f:	00 00 00 00 
    9893:	48 8d 05 2a 7d 01 00 	lea    0x17d2a(%rip),%rax        # 215c4 <g_2213+0x24>
    989a:	48 89 85 a0 f8 ff ff 	mov    %rax,-0x760(%rbp)
    98a1:	48 c7 85 a8 f8 ff ff 	movq   $0x0,-0x758(%rbp)
    98a8:	00 00 00 00 
    98ac:	48 8d 05 91 7a 01 00 	lea    0x17a91(%rip),%rax        # 21344 <g_1869+0x24>
    98b3:	48 89 85 b0 f8 ff ff 	mov    %rax,-0x750(%rbp)
    98ba:	48 8d 05 03 7a 01 00 	lea    0x17a03(%rip),%rax        # 212c4 <g_1853+0x24>
    98c1:	48 89 85 b8 f8 ff ff 	mov    %rax,-0x748(%rbp)
    98c8:	48 c7 85 c0 f8 ff ff 	movq   $0x0,-0x740(%rbp)
    98cf:	00 00 00 00 
    98d3:	48 8d 05 6a 7a 01 00 	lea    0x17a6a(%rip),%rax        # 21344 <g_1869+0x24>
    98da:	48 89 85 c8 f8 ff ff 	mov    %rax,-0x738(%rbp)
    98e1:	48 8d 05 dc 7c 01 00 	lea    0x17cdc(%rip),%rax        # 215c4 <g_2213+0x24>
    98e8:	48 89 85 d0 f8 ff ff 	mov    %rax,-0x730(%rbp)
    98ef:	48 8d 85 3c f6 ff ff 	lea    -0x9c4(%rbp),%rax
    98f6:	48 89 85 d8 f8 ff ff 	mov    %rax,-0x728(%rbp)
    98fd:	48 8d 05 ec 09 01 00 	lea    0x109ec(%rip),%rax        # 1a2f0 <g_464>
    9904:	48 89 85 e0 f8 ff ff 	mov    %rax,-0x720(%rbp)
    990b:	48 8d 05 de 09 01 00 	lea    0x109de(%rip),%rax        # 1a2f0 <g_464>
    9912:	48 89 85 e8 f8 ff ff 	mov    %rax,-0x718(%rbp)
    9919:	48 8d 05 a4 7c 01 00 	lea    0x17ca4(%rip),%rax        # 215c4 <g_2213+0x24>
    9920:	48 89 85 f0 f8 ff ff 	mov    %rax,-0x710(%rbp)
    9927:	48 8d 05 96 7c 01 00 	lea    0x17c96(%rip),%rax        # 215c4 <g_2213+0x24>
    992e:	48 89 85 f8 f8 ff ff 	mov    %rax,-0x708(%rbp)
    9935:	48 c7 85 00 f9 ff ff 	movq   $0x0,-0x700(%rbp)
    993c:	00 00 00 00 
    9940:	48 8d 85 3c f6 ff ff 	lea    -0x9c4(%rbp),%rax
    9947:	48 89 85 08 f9 ff ff 	mov    %rax,-0x6f8(%rbp)
    994e:	48 8d 05 ef 79 01 00 	lea    0x179ef(%rip),%rax        # 21344 <g_1869+0x24>
    9955:	48 89 85 10 f9 ff ff 	mov    %rax,-0x6f0(%rbp)
    995c:	48 8d 05 8d 09 01 00 	lea    0x1098d(%rip),%rax        # 1a2f0 <g_464>
    9963:	48 89 85 18 f9 ff ff 	mov    %rax,-0x6e8(%rbp)
    996a:	48 8d 05 53 7c 01 00 	lea    0x17c53(%rip),%rax        # 215c4 <g_2213+0x24>
    9971:	48 89 85 20 f9 ff ff 	mov    %rax,-0x6e0(%rbp)
    9978:	48 8d 05 45 79 01 00 	lea    0x17945(%rip),%rax        # 212c4 <g_1853+0x24>
    997f:	48 89 85 28 f9 ff ff 	mov    %rax,-0x6d8(%rbp)
    9986:	48 8d 85 3c f6 ff ff 	lea    -0x9c4(%rbp),%rax
    998d:	48 89 85 30 f9 ff ff 	mov    %rax,-0x6d0(%rbp)
    9994:	48 8d 05 e9 7a 01 00 	lea    0x17ae9(%rip),%rax        # 21484 <g_1990+0x24>
    999b:	48 89 85 38 f9 ff ff 	mov    %rax,-0x6c8(%rbp)
    99a2:	48 8d 05 6b 72 01 00 	lea    0x1726b(%rip),%rax        # 20c14 <g_1608+0x2f4>
    99a9:	48 89 85 40 f9 ff ff 	mov    %rax,-0x6c0(%rbp)
    99b0:	48 8d 05 0d 7c 01 00 	lea    0x17c0d(%rip),%rax        # 215c4 <g_2213+0x24>
    99b7:	48 89 85 48 f9 ff ff 	mov    %rax,-0x6b8(%rbp)
    99be:	48 c7 85 50 f9 ff ff 	movq   $0x0,-0x6b0(%rbp)
    99c5:	00 00 00 00 
    99c9:	48 8d 05 b4 7a 01 00 	lea    0x17ab4(%rip),%rax        # 21484 <g_1990+0x24>
    99d0:	48 89 85 58 f9 ff ff 	mov    %rax,-0x6a8(%rbp)
    99d7:	48 c7 85 60 f9 ff ff 	movq   $0x0,-0x6a0(%rbp)
    99de:	00 00 00 00 
    99e2:	48 8d 05 db 78 01 00 	lea    0x178db(%rip),%rax        # 212c4 <g_1853+0x24>
    99e9:	48 89 85 68 f9 ff ff 	mov    %rax,-0x698(%rbp)
    99f0:	48 8d 05 8d 7a 01 00 	lea    0x17a8d(%rip),%rax        # 21484 <g_1990+0x24>
    99f7:	48 89 85 70 f9 ff ff 	mov    %rax,-0x690(%rbp)
    99fe:	48 8d 05 eb 08 01 00 	lea    0x108eb(%rip),%rax        # 1a2f0 <g_464>
    9a05:	48 89 85 78 f9 ff ff 	mov    %rax,-0x688(%rbp)
    9a0c:	48 8d 05 3d 7c 01 00 	lea    0x17c3d(%rip),%rax        # 21650 <g_2293>
    9a13:	48 89 85 80 f9 ff ff 	mov    %rax,-0x680(%rbp)
    9a1a:	48 8d 85 3c f6 ff ff 	lea    -0x9c4(%rbp),%rax
    9a21:	48 89 85 88 f9 ff ff 	mov    %rax,-0x678(%rbp)
    9a28:	48 8d 85 3c f6 ff ff 	lea    -0x9c4(%rbp),%rax
    9a2f:	48 89 85 90 f9 ff ff 	mov    %rax,-0x670(%rbp)
    9a36:	48 8d 05 87 7b 01 00 	lea    0x17b87(%rip),%rax        # 215c4 <g_2213+0x24>
    9a3d:	48 89 85 98 f9 ff ff 	mov    %rax,-0x668(%rbp)
    9a44:	48 8d 85 3c f6 ff ff 	lea    -0x9c4(%rbp),%rax
    9a4b:	48 89 85 a0 f9 ff ff 	mov    %rax,-0x660(%rbp)
    9a52:	48 8d 05 97 08 01 00 	lea    0x10897(%rip),%rax        # 1a2f0 <g_464>
    9a59:	48 89 85 a8 f9 ff ff 	mov    %rax,-0x658(%rbp)
    9a60:	48 8d 05 dd 78 01 00 	lea    0x178dd(%rip),%rax        # 21344 <g_1869+0x24>
    9a67:	48 89 85 b0 f9 ff ff 	mov    %rax,-0x650(%rbp)
    9a6e:	48 8d 85 3c f6 ff ff 	lea    -0x9c4(%rbp),%rax
    9a75:	48 89 85 b8 f9 ff ff 	mov    %rax,-0x648(%rbp)
    9a7c:	48 8d 85 3c f6 ff ff 	lea    -0x9c4(%rbp),%rax
    9a83:	48 89 85 c0 f9 ff ff 	mov    %rax,-0x640(%rbp)
    9a8a:	48 8d 05 b3 78 01 00 	lea    0x178b3(%rip),%rax        # 21344 <g_1869+0x24>
    9a91:	48 89 85 c8 f9 ff ff 	mov    %rax,-0x638(%rbp)
    9a98:	48 8d 85 3c f6 ff ff 	lea    -0x9c4(%rbp),%rax
    9a9f:	48 89 85 d0 f9 ff ff 	mov    %rax,-0x630(%rbp)
    9aa6:	48 8d 05 17 78 01 00 	lea    0x17817(%rip),%rax        # 212c4 <g_1853+0x24>
    9aad:	48 89 85 d8 f9 ff ff 	mov    %rax,-0x628(%rbp)
    9ab4:	48 8d 05 95 7b 01 00 	lea    0x17b95(%rip),%rax        # 21650 <g_2293>
    9abb:	48 89 85 e0 f9 ff ff 	mov    %rax,-0x620(%rbp)
    9ac2:	48 c7 85 e8 f9 ff ff 	movq   $0x0,-0x618(%rbp)
    9ac9:	00 00 00 00 
    9acd:	48 8d 05 b0 79 01 00 	lea    0x179b0(%rip),%rax        # 21484 <g_1990+0x24>
    9ad4:	48 89 85 f0 f9 ff ff 	mov    %rax,-0x610(%rbp)
    9adb:	48 c7 85 f8 f9 ff ff 	movq   $0x0,-0x608(%rbp)
    9ae2:	00 00 00 00 
    9ae6:	48 c7 85 00 fa ff ff 	movq   $0x0,-0x600(%rbp)
    9aed:	00 00 00 00 
    9af1:	48 c7 85 08 fa ff ff 	movq   $0x0,-0x5f8(%rbp)
    9af8:	00 00 00 00 
    9afc:	48 8d 85 10 f8 ff ff 	lea    -0x7f0(%rbp),%rax
    9b03:	48 83 c0 08          	add    $0x8,%rax
    9b07:	48 89 85 30 f7 ff ff 	mov    %rax,-0x8d0(%rbp)
    9b0e:	48 8d 85 10 f8 ff ff 	lea    -0x7f0(%rbp),%rax
    9b15:	48 83 c0 08          	add    $0x8,%rax
    9b19:	48 89 85 38 f7 ff ff 	mov    %rax,-0x8c8(%rbp)
    9b20:	48 8d 85 10 f8 ff ff 	lea    -0x7f0(%rbp),%rax
    9b27:	48 83 c0 08          	add    $0x8,%rax
    9b2b:	48 89 85 40 f7 ff ff 	mov    %rax,-0x8c0(%rbp)
    9b32:	48 8d 85 10 f8 ff ff 	lea    -0x7f0(%rbp),%rax
    9b39:	48 83 c0 08          	add    $0x8,%rax
    9b3d:	48 89 85 48 f7 ff ff 	mov    %rax,-0x8b8(%rbp)
    9b44:	48 8d 85 10 f8 ff ff 	lea    -0x7f0(%rbp),%rax
    9b4b:	48 83 c0 08          	add    $0x8,%rax
    9b4f:	48 89 85 50 f7 ff ff 	mov    %rax,-0x8b0(%rbp)
    9b56:	48 8d 85 10 f8 ff ff 	lea    -0x7f0(%rbp),%rax
    9b5d:	48 83 c0 08          	add    $0x8,%rax
    9b61:	48 89 85 58 f7 ff ff 	mov    %rax,-0x8a8(%rbp)
    9b68:	48 8d 85 10 f8 ff ff 	lea    -0x7f0(%rbp),%rax
    9b6f:	48 83 c0 08          	add    $0x8,%rax
    9b73:	48 89 85 60 f7 ff ff 	mov    %rax,-0x8a0(%rbp)
    9b7a:	48 8d 85 10 f8 ff ff 	lea    -0x7f0(%rbp),%rax
    9b81:	48 83 c0 08          	add    $0x8,%rax
    9b85:	48 89 85 68 f7 ff ff 	mov    %rax,-0x898(%rbp)
    9b8c:	48 8d 85 10 f8 ff ff 	lea    -0x7f0(%rbp),%rax
    9b93:	48 83 c0 08          	add    $0x8,%rax
    9b97:	48 89 85 70 f7 ff ff 	mov    %rax,-0x890(%rbp)
    9b9e:	48 8d 85 10 f8 ff ff 	lea    -0x7f0(%rbp),%rax
    9ba5:	48 83 c0 08          	add    $0x8,%rax
    9ba9:	48 89 85 78 f7 ff ff 	mov    %rax,-0x888(%rbp)
    9bb0:	48 8d 85 30 f7 ff ff 	lea    -0x8d0(%rbp),%rax
    9bb7:	48 83 c0 18          	add    $0x18,%rax
    9bbb:	48 89 85 60 f6 ff ff 	mov    %rax,-0x9a0(%rbp)
    9bc2:	48 8d 85 60 f6 ff ff 	lea    -0x9a0(%rbp),%rax
    9bc9:	48 89 85 78 f6 ff ff 	mov    %rax,-0x988(%rbp)
    9bd0:	48 8d 05 a1 9a 01 00 	lea    0x19aa1(%rip),%rax        # 23678 <g_115>
    9bd7:	48 89 85 80 f6 ff ff 	mov    %rax,-0x980(%rbp)
    9bde:	48 c7 85 f0 f6 ff ff 	movq   $0x0,-0x910(%rbp)
    9be5:	00 00 00 00 
    9be9:	48 8d 05 dd 58 01 00 	lea    0x158dd(%rip),%rax        # 1f4cd <g_997+0x4d>
    9bf0:	48 89 85 f8 f6 ff ff 	mov    %rax,-0x908(%rbp)
    9bf7:	48 c7 85 00 f7 ff ff 	movq   $0x0,-0x900(%rbp)
    9bfe:	00 00 00 00 
    9c02:	48 c7 85 08 f7 ff ff 	movq   $0x0,-0x8f8(%rbp)
    9c09:	00 00 00 00 
    9c0d:	48 8d 05 b9 58 01 00 	lea    0x158b9(%rip),%rax        # 1f4cd <g_997+0x4d>
    9c14:	48 89 85 10 f7 ff ff 	mov    %rax,-0x8f0(%rbp)
    9c1b:	48 c7 85 18 f7 ff ff 	movq   $0x0,-0x8e8(%rbp)
    9c22:	00 00 00 00 
    9c26:	48 c7 85 20 f7 ff ff 	movq   $0x0,-0x8e0(%rbp)
    9c2d:	00 00 00 00 
    9c31:	66 c7 85 36 f6 ff ff 	movw   $0x921b,-0x9ca(%rbp)
    9c38:	1b 92 
    9c3a:	c7 85 44 f6 ff ff 00 	movl   $0x0,-0x9bc(%rbp)
    9c41:	00 00 00 
    9c44:	eb 21                	jmp    9c67 <func_28+0x56e>
    9c46:	8b 85 44 f6 ff ff    	mov    -0x9bc(%rbp),%eax
    9c4c:	48 98                	cltq   
    9c4e:	48 b9 18 e6 56 f3 23 	movabs $0xda710723f356e618,%rcx
    9c55:	07 71 da 
    9c58:	48 89 8c c5 a8 f6 ff 	mov    %rcx,-0x958(%rbp,%rax,8)
    9c5f:	ff 
    9c60:	83 85 44 f6 ff ff 01 	addl   $0x1,-0x9bc(%rbp)
    9c67:	83 bd 44 f6 ff ff 00 	cmpl   $0x0,-0x9bc(%rbp)
    9c6e:	7e d6                	jle    9c46 <func_28+0x54d>
    9c70:	c7 85 44 f6 ff ff 00 	movl   $0x0,-0x9bc(%rbp)
    9c77:	00 00 00 
    9c7a:	eb 1e                	jmp    9c9a <func_28+0x5a1>
    9c7c:	8b 85 44 f6 ff ff    	mov    -0x9bc(%rbp),%eax
    9c82:	48 98                	cltq   
    9c84:	48 8d 95 50 f6 ff ff 	lea    -0x9b0(%rbp),%rdx
    9c8b:	48 89 94 c5 c0 f6 ff 	mov    %rdx,-0x940(%rbp,%rax,8)
    9c92:	ff 
    9c93:	83 85 44 f6 ff ff 01 	addl   $0x1,-0x9bc(%rbp)
    9c9a:	83 bd 44 f6 ff ff 04 	cmpl   $0x4,-0x9bc(%rbp)
    9ca1:	7e d9                	jle    9c7c <func_28+0x583>
    9ca3:	c7 85 44 f6 ff ff 00 	movl   $0x0,-0x9bc(%rbp)
    9caa:	00 00 00 
    9cad:	eb 1a                	jmp    9cc9 <func_28+0x5d0>
    9caf:	8b 85 44 f6 ff ff    	mov    -0x9bc(%rbp),%eax
    9cb5:	48 98                	cltq   
    9cb7:	c7 84 85 b4 f6 ff ff 	movl   $0x750cd5c1,-0x94c(%rbp,%rax,4)
    9cbe:	c1 d5 0c 75 
    9cc2:	83 85 44 f6 ff ff 01 	addl   $0x1,-0x9bc(%rbp)
    9cc9:	83 bd 44 f6 ff ff 02 	cmpl   $0x2,-0x9bc(%rbp)
    9cd0:	7e dd                	jle    9caf <func_28+0x5b6>
    9cd2:	8b 9d 3c f6 ff ff    	mov    -0x9c4(%rbp),%ebx
    9cd8:	48 8d 05 c1 ab 01 00 	lea    0x1abc1(%rip),%rax        # 248a0 <g_1269>
    9cdf:	48 39 85 98 f6 ff ff 	cmp    %rax,-0x968(%rbp)
    9ce6:	0f 94 c0             	sete   %al
    9ce9:	0f b6 c0             	movzbl %al,%eax
    9cec:	be 07 a3 20 42       	mov    $0x4220a307,%esi
    9cf1:	89 c7                	mov    %eax,%edi
    9cf3:	e8 05 e2 ff ff       	callq  7efd <safe_mod_func_uint32_t_u_u>
    9cf8:	89 de                	mov    %ebx,%esi
    9cfa:	89 c7                	mov    %eax,%edi
    9cfc:	e8 fc e1 ff ff       	callq  7efd <safe_mod_func_uint32_t_u_u>
    9d01:	85 c0                	test   %eax,%eax
    9d03:	74 07                	je     9d0c <func_28+0x613>
    9d05:	b8 01 00 00 00       	mov    $0x1,%eax
    9d0a:	eb 05                	jmp    9d11 <func_28+0x618>
    9d0c:	b8 00 00 00 00       	mov    $0x0,%eax
    9d11:	39 85 24 f6 ff ff    	cmp    %eax,-0x9dc(%rbp)
    9d17:	0f 95 c0             	setne  %al
    9d1a:	0f b6 c0             	movzbl %al,%eax
    9d1d:	be 06 00 00 00       	mov    $0x6,%esi
    9d22:	89 c7                	mov    %eax,%edi
    9d24:	e8 b8 d7 ff ff       	callq  74e1 <safe_lshift_func_int16_t_s_u>
    9d29:	0f bf d0             	movswl %ax,%edx
    9d2c:	48 8b 85 a8 f6 ff ff 	mov    -0x958(%rbp),%rax
    9d33:	25 6f e4 97 03       	and    $0x397e46f,%eax
    9d38:	48 89 c1             	mov    %rax,%rcx
    9d3b:	b8 ff ff ff ff       	mov    $0xffffffff,%eax
    9d40:	48 39 c1             	cmp    %rax,%rcx
    9d43:	0f 96 c0             	setbe  %al
    9d46:	0f b6 c0             	movzbl %al,%eax
    9d49:	89 d6                	mov    %edx,%esi
    9d4b:	89 c7                	mov    %eax,%edi
    9d4d:	e8 6c e0 ff ff       	callq  7dbe <safe_lshift_func_uint16_t_u_s>
    9d52:	44 0f b7 e0          	movzwl %ax,%r12d
    9d56:	0f b7 85 38 f6 ff ff 	movzwl -0x9c8(%rbp),%eax
    9d5d:	0f b7 c0             	movzwl %ax,%eax
    9d60:	48 8b 1d 89 9c 01 00 	mov    0x19c89(%rip),%rbx        # 239f0 <g_646>
    9d67:	be a0 86 00 00       	mov    $0x86a0,%esi
    9d6c:	89 c7                	mov    %eax,%edi
    9d6e:	e8 8c df ff ff       	callq  7cff <safe_add_func_uint16_t_u_u>
    9d73:	66 89 03             	mov    %ax,(%rbx)
    9d76:	0f b7 03             	movzwl (%rbx),%eax
    9d79:	0f b7 c0             	movzwl %ax,%eax
    9d7c:	44 89 e6             	mov    %r12d,%esi
    9d7f:	89 c7                	mov    %eax,%edi
    9d81:	e8 f4 e0 ff ff       	callq  7e7a <safe_rshift_func_uint16_t_u_u>
    9d86:	0f bf 95 38 f6 ff ff 	movswl -0x9c8(%rbp),%edx
    9d8d:	8b 85 3c f6 ff ff    	mov    -0x9c4(%rbp),%eax
    9d93:	85 c0                	test   %eax,%eax
    9d95:	0f 95 c0             	setne  %al
    9d98:	0f b6 c0             	movzbl %al,%eax
    9d9b:	39 c2                	cmp    %eax,%edx
    9d9d:	0f 94 c0             	sete   %al
    9da0:	0f b6 d0             	movzbl %al,%edx
    9da3:	48 8b 85 a0 f6 ff ff 	mov    -0x960(%rbp),%rax
    9daa:	0f b7 00             	movzwl (%rax),%eax
    9dad:	89 c1                	mov    %eax,%ecx
    9daf:	89 d0                	mov    %edx,%eax
    9db1:	21 c8                	and    %ecx,%eax
    9db3:	89 c2                	mov    %eax,%edx
    9db5:	48 8b 85 a0 f6 ff ff 	mov    -0x960(%rbp),%rax
    9dbc:	66 89 10             	mov    %dx,(%rax)
    9dbf:	48 8b 85 58 f6 ff ff 	mov    -0x9a8(%rbp),%rax
    9dc6:	c6 00 8f             	movb   $0x8f,(%rax)
    9dc9:	48 b8 f2 f0 4b 73 14 	movabs $0xa6f8c414734bf0f2,%rax
    9dd0:	c4 f8 a6 
    9dd3:	48 89 85 70 f6 ff ff 	mov    %rax,-0x990(%rbp)
    9dda:	c7 85 80 f7 ff ff 2a 	movl   $0xa6e8c62a,-0x880(%rbp)
    9de1:	c6 e8 a6 
    9de4:	c7 85 84 f7 ff ff f5 	movl   $0xa1c237f5,-0x87c(%rbp)
    9deb:	37 c2 a1 
    9dee:	c7 85 88 f7 ff ff f5 	movl   $0xa1c237f5,-0x878(%rbp)
    9df5:	37 c2 a1 
    9df8:	c7 85 8c f7 ff ff 2a 	movl   $0xa6e8c62a,-0x874(%rbp)
    9dff:	c6 e8 a6 
    9e02:	c7 85 90 f7 ff ff 93 	movl   $0xd5f9e93,-0x870(%rbp)
    9e09:	9e 5f 0d 
    9e0c:	c7 85 94 f7 ff ff 09 	movl   $0x9,-0x86c(%rbp)
    9e13:	00 00 00 
    9e16:	c7 85 98 f7 ff ff 93 	movl   $0xd5f9e93,-0x868(%rbp)
    9e1d:	9e 5f 0d 
    9e20:	c7 85 9c f7 ff ff 2a 	movl   $0xa6e8c62a,-0x864(%rbp)
    9e27:	c6 e8 a6 
    9e2a:	c7 85 a0 f7 ff ff f5 	movl   $0xa1c237f5,-0x860(%rbp)
    9e31:	37 c2 a1 
    9e34:	c7 85 a4 f7 ff ff 93 	movl   $0xd5f9e93,-0x85c(%rbp)
    9e3b:	9e 5f 0d 
    9e3e:	c7 85 a8 f7 ff ff 93 	movl   $0xd5f9e93,-0x858(%rbp)
    9e45:	9e 5f 0d 
    9e48:	c7 85 ac f7 ff ff 2d 	movl   $0x7ba1d22d,-0x854(%rbp)
    9e4f:	d2 a1 7b 
    9e52:	c7 85 b0 f7 ff ff 09 	movl   $0x9,-0x850(%rbp)
    9e59:	00 00 00 
    9e5c:	c7 85 b4 f7 ff ff 3d 	movl   $0x1775873d,-0x84c(%rbp)
    9e63:	87 75 17 
    9e66:	c7 85 b8 f7 ff ff 09 	movl   $0x9,-0x848(%rbp)
    9e6d:	00 00 00 
    9e70:	c7 85 bc f7 ff ff 2d 	movl   $0x7ba1d22d,-0x844(%rbp)
    9e77:	d2 a1 7b 
    9e7a:	c7 85 c0 f7 ff ff 93 	movl   $0xd5f9e93,-0x840(%rbp)
    9e81:	9e 5f 0d 
    9e84:	c7 85 c4 f7 ff ff 93 	movl   $0xd5f9e93,-0x83c(%rbp)
    9e8b:	9e 5f 0d 
    9e8e:	c7 85 c8 f7 ff ff f5 	movl   $0xa1c237f5,-0x838(%rbp)
    9e95:	37 c2 a1 
    9e98:	c7 85 cc f7 ff ff 2a 	movl   $0xa6e8c62a,-0x834(%rbp)
    9e9f:	c6 e8 a6 
    9ea2:	c7 85 d0 f7 ff ff 93 	movl   $0xd5f9e93,-0x830(%rbp)
    9ea9:	9e 5f 0d 
    9eac:	c7 85 d4 f7 ff ff 09 	movl   $0x9,-0x82c(%rbp)
    9eb3:	00 00 00 
    9eb6:	c7 85 d8 f7 ff ff 93 	movl   $0xd5f9e93,-0x828(%rbp)
    9ebd:	9e 5f 0d 
    9ec0:	c7 85 dc f7 ff ff 2a 	movl   $0xa6e8c62a,-0x824(%rbp)
    9ec7:	c6 e8 a6 
    9eca:	c7 85 e0 f7 ff ff f5 	movl   $0xa1c237f5,-0x820(%rbp)
    9ed1:	37 c2 a1 
    9ed4:	c7 85 e4 f7 ff ff f5 	movl   $0xa1c237f5,-0x81c(%rbp)
    9edb:	37 c2 a1 
    9ede:	c7 85 e8 f7 ff ff 2a 	movl   $0xa6e8c62a,-0x818(%rbp)
    9ee5:	c6 e8 a6 
    9ee8:	c7 85 ec f7 ff ff 09 	movl   $0x9,-0x814(%rbp)
    9eef:	00 00 00 
    9ef2:	c7 85 f0 f7 ff ff 2a 	movl   $0xa6e8c62a,-0x810(%rbp)
    9ef9:	c6 e8 a6 
    9efc:	c7 85 f4 f7 ff ff 2d 	movl   $0x7ba1d22d,-0x80c(%rbp)
    9f03:	d2 a1 7b 
    9f06:	c7 85 f8 f7 ff ff 2a 	movl   $0xa6e8c62a,-0x808(%rbp)
    9f0d:	c6 e8 a6 
    9f10:	c7 85 fc f7 ff ff 09 	movl   $0x9,-0x804(%rbp)
    9f17:	00 00 00 
    9f1a:	c7 85 00 f8 ff ff 2d 	movl   $0x7ba1d22d,-0x800(%rbp)
    9f21:	d2 a1 7b 
    9f24:	c7 85 04 f8 ff ff 2d 	movl   $0x7ba1d22d,-0x7fc(%rbp)
    9f2b:	d2 a1 7b 
    9f2e:	c7 85 08 f8 ff ff 05 	movl   $0x5,-0x7f8(%rbp)
    9f35:	00 00 00 
    9f38:	c7 85 0c f8 ff ff f5 	movl   $0xa1c237f5,-0x7f4(%rbp)
    9f3f:	37 c2 a1 
    9f42:	48 8d 05 d3 79 01 00 	lea    0x179d3(%rip),%rax        # 2191c <g_2510+0x23c>
    9f49:	48 89 85 68 f6 ff ff 	mov    %rax,-0x998(%rbp)
    9f50:	8b 85 40 f6 ff ff    	mov    -0x9c0(%rbp),%eax
    9f56:	0d e4 30 67 f6       	or     $0xf66730e4,%eax
    9f5b:	89 c2                	mov    %eax,%edx
    9f5d:	48 8b 05 5c a3 01 00 	mov    0x1a35c(%rip),%rax        # 242c0 <g_2486>
    9f64:	89 10                	mov    %edx,(%rax)
    9f66:	8b 85 40 f6 ff ff    	mov    -0x9c0(%rbp),%eax
    9f6c:	89 85 40 f6 ff ff    	mov    %eax,-0x9c0(%rbp)
    9f72:	66 c7 85 38 f6 ff ff 	movw   $0x0,-0x9c8(%rbp)
    9f79:	00 00 
    9f7b:	eb 30                	jmp    9fad <func_28+0x8b4>
    9f7d:	c6 85 35 f6 ff ff fc 	movb   $0xfc,-0x9cb(%rbp)
    9f84:	48 8b 05 7d 9a 01 00 	mov    0x19a7d(%rip),%rax        # 23a08 <g_927>
    9f8b:	48 8b 95 88 f6 ff ff 	mov    -0x978(%rbp),%rdx
    9f92:	48 89 10             	mov    %rdx,(%rax)
    9f95:	80 85 35 f6 ff ff 01 	addb   $0x1,-0x9cb(%rbp)
    9f9c:	0f b7 85 38 f6 ff ff 	movzwl -0x9c8(%rbp),%eax
    9fa3:	83 c0 01             	add    $0x1,%eax
    9fa6:	66 89 85 38 f6 ff ff 	mov    %ax,-0x9c8(%rbp)
    9fad:	66 83 bd 38 f6 ff ff 	cmpw   $0x9,-0x9c8(%rbp)
    9fb4:	09 
    9fb5:	74 c6                	je     9f7d <func_28+0x884>
    9fb7:	48 8b 85 88 f6 ff ff 	mov    -0x978(%rbp),%rax
    9fbe:	8b 00                	mov    (%rax),%eax
    9fc0:	48 98                	cltq   
    9fc2:	48 31 85 70 f6 ff ff 	xor    %rax,-0x990(%rbp)
    9fc9:	48 8b 05 20 9a 01 00 	mov    0x19a20(%rip),%rax        # 239f0 <g_646>
    9fd0:	0f b7 00             	movzwl (%rax),%eax
    9fd3:	0f b7 d8             	movzwl %ax,%ebx
    9fd6:	8b 85 24 f6 ff ff    	mov    -0x9dc(%rbp),%eax
    9fdc:	0f b6 d0             	movzbl %al,%edx
    9fdf:	48 83 bd 68 f6 ff ff 	cmpq   $0x0,-0x998(%rbp)
    9fe6:	00 
    9fe7:	0f 95 c0             	setne  %al
    9fea:	0f b6 c0             	movzbl %al,%eax
    9fed:	39 85 24 f6 ff ff    	cmp    %eax,-0x9dc(%rbp)
    9ff3:	0f 96 c0             	setbe  %al
    9ff6:	0f b6 c0             	movzbl %al,%eax
    9ff9:	89 d6                	mov    %edx,%esi
    9ffb:	89 c7                	mov    %eax,%edi
    9ffd:	e8 58 db ff ff       	callq  7b5a <safe_add_func_uint8_t_u_u>
    a002:	44 0f b6 e0          	movzbl %al,%r12d
    a006:	48 8b 05 3b 2d 01 00 	mov    0x12d3b(%rip),%rax        # 1cd48 <g_908+0x8>
    a00d:	48 c1 e0 0d          	shl    $0xd,%rax
    a011:	48 c1 f8 2d          	sar    $0x2d,%rax
    a015:	0f b6 c0             	movzbl %al,%eax
    a018:	89 c6                	mov    %eax,%esi
    a01a:	bf 00 00 00 00       	mov    $0x0,%edi
    a01f:	e8 6f db ff ff       	callq  7b93 <safe_mul_func_uint8_t_u_u>
    a024:	0f b6 c0             	movzbl %al,%eax
    a027:	44 89 e6             	mov    %r12d,%esi
    a02a:	89 c7                	mov    %eax,%edi
    a02c:	e8 d4 d5 ff ff       	callq  7605 <safe_sub_func_int32_t_s_s>
    a031:	85 c0                	test   %eax,%eax
    a033:	0f 95 c0             	setne  %al
    a036:	0f b6 c0             	movzbl %al,%eax
    a039:	be 01 00 00 00       	mov    $0x1,%esi
    a03e:	89 c7                	mov    %eax,%edi
    a040:	e8 c0 db ff ff       	callq  7c05 <safe_lshift_func_uint8_t_u_s>
    a045:	8b 85 24 f6 ff ff    	mov    -0x9dc(%rbp),%eax
    a04b:	f7 d0                	not    %eax
    a04d:	89 c2                	mov    %eax,%edx
    a04f:	8b 85 0c f8 ff ff    	mov    -0x7f4(%rbp),%eax
    a055:	21 d0                	and    %edx,%eax
    a057:	83 f8 01             	cmp    $0x1,%eax
    a05a:	0f 95 c0             	setne  %al
    a05d:	0f b6 c0             	movzbl %al,%eax
    a060:	89 de                	mov    %ebx,%esi
    a062:	89 c7                	mov    %eax,%edi
    a064:	e8 9d dd ff ff       	callq  7e06 <safe_lshift_func_uint16_t_u_u>
    a069:	be 00 00 00 00       	mov    $0x0,%esi
    a06e:	bf fd ff ff ff       	mov    $0xfffffffd,%edi
    a073:	e8 69 d4 ff ff       	callq  74e1 <safe_lshift_func_int16_t_s_u>
    a078:	0f bf d0             	movswl %ax,%edx
    a07b:	48 8b 85 88 f6 ff ff 	mov    -0x978(%rbp),%rax
    a082:	89 10                	mov    %edx,(%rax)
    a084:	48 8b 05 0d 99 01 00 	mov    0x1990d(%rip),%rax        # 23998 <g_445>
    a08b:	48 8b 00             	mov    (%rax),%rax
    a08e:	48 8b 15 03 99 01 00 	mov    0x19903(%rip),%rdx        # 23998 <g_445>
    a095:	48 8b 12             	mov    (%rdx),%rdx
    a098:	48 89 15 c1 a2 01 00 	mov    %rdx,0x1a2c1(%rip)        # 24360 <g_2648>
    a09f:	48 8b 15 ba a2 01 00 	mov    0x1a2ba(%rip),%rdx        # 24360 <g_2648>
    a0a6:	48 89 95 80 f6 ff ff 	mov    %rdx,-0x980(%rbp)
    a0ad:	48 39 85 80 f6 ff ff 	cmp    %rax,-0x980(%rbp)
    a0b4:	8b 85 b8 f6 ff ff    	mov    -0x948(%rbp),%eax
    a0ba:	23 85 24 f6 ff ff    	and    -0x9dc(%rbp),%eax
    a0c0:	85 c0                	test   %eax,%eax
    a0c2:	0f 94 c0             	sete   %al
    a0c5:	0f b6 d0             	movzbl %al,%edx
    a0c8:	48 8b 05 29 99 01 00 	mov    0x19929(%rip),%rax        # 239f8 <g_645>
    a0cf:	48 8b 00             	mov    (%rax),%rax
    a0d2:	0f b7 00             	movzwl (%rax),%eax
    a0d5:	0f b7 c0             	movzwl %ax,%eax
    a0d8:	39 c2                	cmp    %eax,%edx
    a0da:	0f 9d c0             	setge  %al
    a0dd:	0f b6 c0             	movzbl %al,%eax
    a0e0:	be 01 00 00 00       	mov    $0x1,%esi
    a0e5:	89 c7                	mov    %eax,%edi
    a0e7:	e8 45 d1 ff ff       	callq  7231 <safe_mod_func_int8_t_s_s>
    a0ec:	0f be d8             	movsbl %al,%ebx
    a0ef:	0f b6 05 f2 02 01 00 	movzbl 0x102f2(%rip),%eax        # 1a3e8 <g_828+0x28>
    a0f6:	01 c0                	add    %eax,%eax
    a0f8:	d0 f8                	sar    %al
    a0fa:	0f be c0             	movsbl %al,%eax
    a0fd:	89 c6                	mov    %eax,%esi
    a0ff:	bf 0f 90 ff ff       	mov    $0xffff900f,%edi
    a104:	e8 aa d2 ff ff       	callq  73b3 <safe_add_func_int16_t_s_s>
    a109:	0f b7 c0             	movzwl %ax,%eax
    a10c:	89 de                	mov    %ebx,%esi
    a10e:	89 c7                	mov    %eax,%edi
    a110:	e8 65 dd ff ff       	callq  7e7a <safe_rshift_func_uint16_t_u_u>
    a115:	48 8b 05 7c 96 01 00 	mov    0x1967c(%rip),%rax        # 23798 <g_386>
    a11c:	48 8b 00             	mov    (%rax),%rax
    a11f:	83 bd 24 f6 ff ff 00 	cmpl   $0x0,-0x9dc(%rbp)
    a126:	75 0d                	jne    a135 <func_28+0xa3c>
    a128:	48 8b 85 88 f6 ff ff 	mov    -0x978(%rbp),%rax
    a12f:	8b 00                	mov    (%rax),%eax
    a131:	85 c0                	test   %eax,%eax
    a133:	74 07                	je     a13c <func_28+0xa43>
    a135:	b8 01 00 00 00       	mov    $0x1,%eax
    a13a:	eb 05                	jmp    a141 <func_28+0xa48>
    a13c:	b8 00 00 00 00       	mov    $0x0,%eax
    a141:	66 21 85 36 f6 ff ff 	and    %ax,-0x9ca(%rbp)
    a148:	48 8b 05 49 98 01 00 	mov    0x19849(%rip),%rax        # 23998 <g_445>
    a14f:	48 8b 00             	mov    (%rax),%rax
    a152:	48 8b 4d e8          	mov    -0x18(%rbp),%rcx
    a156:	64 48 33 0c 25 28 00 	xor    %fs:0x28,%rcx
    a15d:	00 00 
    a15f:	74 05                	je     a166 <func_28+0xa6d>
    a161:	e8 0a cf ff ff       	callq  7070 <__stack_chk_fail@plt>
    a166:	48 81 c4 d0 09 00 00 	add    $0x9d0,%rsp
    a16d:	5b                   	pop    %rbx
    a16e:	41 5c                	pop    %r12
    a170:	5d                   	pop    %rbp
    a171:	c3                   	retq   

000000000000a172 <func_31>:
    a172:	f3 0f 1e fa          	endbr64 
    a176:	55                   	push   %rbp
    a177:	48 89 e5             	mov    %rsp,%rbp
    a17a:	41 57                	push   %r15
    a17c:	41 56                	push   %r14
    a17e:	41 55                	push   %r13
    a180:	41 54                	push   %r12
    a182:	53                   	push   %rbx
    a183:	48 81 ec 00 10 00 00 	sub    $0x1000,%rsp
    a18a:	48 83 0c 24 00       	orq    $0x0,(%rsp)
    a18f:	48 81 ec 98 0e 00 00 	sub    $0xe98,%rsp
    a196:	89 bd 6c e1 ff ff    	mov    %edi,-0x1e94(%rbp)
    a19c:	48 89 b5 60 e1 ff ff 	mov    %rsi,-0x1ea0(%rbp)
    a1a3:	89 d0                	mov    %edx,%eax
    a1a5:	48 89 8d 58 e1 ff ff 	mov    %rcx,-0x1ea8(%rbp)
    a1ac:	4c 89 85 50 e1 ff ff 	mov    %r8,-0x1eb0(%rbp)
    a1b3:	66 89 85 68 e1 ff ff 	mov    %ax,-0x1e98(%rbp)
    a1ba:	64 48 8b 04 25 28 00 	mov    %fs:0x28,%rax
    a1c1:	00 00 
    a1c3:	48 89 45 c8          	mov    %rax,-0x38(%rbp)
    a1c7:	31 c0                	xor    %eax,%eax
    a1c9:	c7 85 84 e1 ff ff 2c 	movl   $0x3ec4722c,-0x1e7c(%rbp)
    a1d0:	72 c4 3e 
    a1d3:	c7 85 d4 e1 ff ff 01 	movl   $0x1,-0x1e2c(%rbp)
    a1da:	00 00 00 
    a1dd:	48 8d 05 2c 98 01 00 	lea    0x1982c(%rip),%rax        # 23a10 <g_926>
    a1e4:	48 89 85 70 e3 ff ff 	mov    %rax,-0x1c90(%rbp)
    a1eb:	48 8d 05 56 95 01 00 	lea    0x19556(%rip),%rax        # 23748 <g_359>
    a1f2:	48 89 85 38 e2 ff ff 	mov    %rax,-0x1dc8(%rbp)
    a1f9:	48 8d 85 38 e2 ff ff 	lea    -0x1dc8(%rbp),%rax
    a200:	48 89 85 40 e2 ff ff 	mov    %rax,-0x1dc0(%rbp)
    a207:	c7 85 88 e1 ff ff 01 	movl   $0x1,-0x1e78(%rbp)
    a20e:	00 00 00 
    a211:	c7 85 d8 e1 ff ff 79 	movl   $0x2ad38279,-0x1e28(%rbp)
    a218:	82 d3 2a 
    a21b:	48 c7 85 78 e3 ff ff 	movq   $0x0,-0x1c88(%rbp)
    a222:	00 00 00 00 
    a226:	c7 85 d0 e4 ff ff 70 	movl   $0xf9390170,-0x1b30(%rbp)
    a22d:	01 39 f9 
    a230:	c7 85 d4 e4 ff ff 39 	movl   $0x139f939,-0x1b2c(%rbp)
    a237:	f9 39 01 
    a23a:	c7 85 d8 e4 ff ff 70 	movl   $0xf91df970,-0x1b28(%rbp)
    a241:	f9 1d f9 
    a244:	c7 85 dc e4 ff ff 70 	movl   $0xf9390170,-0x1b24(%rbp)
    a24b:	01 39 f9 
    a24e:	c7 85 e0 e4 ff ff 39 	movl   $0x139f939,-0x1b20(%rbp)
    a255:	f9 39 01 
    a258:	c7 85 e4 e4 ff ff 70 	movl   $0xf91df970,-0x1b1c(%rbp)
    a25f:	f9 1d f9 
    a262:	66 c7 85 90 e4 ff ff 	movw   $0x90ab,-0x1b70(%rbp)
    a269:	ab 90 
    a26b:	0f b7 85 92 e4 ff ff 	movzwl -0x1b6e(%rbp),%eax
    a272:	83 e0 00             	and    $0x0,%eax
    a275:	0c cb                	or     $0xcb,%al
    a277:	66 89 85 92 e4 ff ff 	mov    %ax,-0x1b6e(%rbp)
    a27e:	0f b6 85 94 e4 ff ff 	movzbl -0x1b6c(%rbp),%eax
    a285:	83 e0 c0             	and    $0xffffffc0,%eax
    a288:	88 85 94 e4 ff ff    	mov    %al,-0x1b6c(%rbp)
    a28e:	48 b8 89 02 15 57 88 	movabs $0x45f15f8857150289,%rax
    a295:	5f f1 45 
    a298:	48 89 85 95 e4 ff ff 	mov    %rax,-0x1b6b(%rbp)
    a29f:	66 c7 85 9d e4 ff ff 	movw   $0xea6,-0x1b63(%rbp)
    a2a6:	a6 0e 
    a2a8:	48 c7 85 9f e4 ff ff 	movq   $0x1,-0x1b61(%rbp)
    a2af:	01 00 00 00 
    a2b3:	c7 85 a7 e4 ff ff 79 	movl   $0x3b7ed979,-0x1b59(%rbp)
    a2ba:	d9 7e 3b 
    a2bd:	66 c7 85 78 e1 ff ff 	movw   $0x2bf6,-0x1e88(%rbp)
    a2c4:	f6 2b 
    a2c6:	c7 85 8c e1 ff ff 01 	movl   $0x1,-0x1e74(%rbp)
    a2cd:	00 00 00 
    a2d0:	c7 85 c4 e1 ff ff de 	movl   $0xd3d61bde,-0x1e3c(%rbp)
    a2d7:	1b d6 d3 
    a2da:	c7 85 94 e1 ff ff a1 	movl   $0x7c2b6da1,-0x1e6c(%rbp)
    a2e1:	6d 2b 7c 
    a2e4:	48 8d 05 35 97 01 00 	lea    0x19735(%rip),%rax        # 23a20 <g_996>
    a2eb:	48 89 85 48 e2 ff ff 	mov    %rax,-0x1db8(%rbp)
    a2f2:	48 8d 85 48 e2 ff ff 	lea    -0x1db8(%rbp),%rax
    a2f9:	48 89 85 50 e2 ff ff 	mov    %rax,-0x1db0(%rbp)
    a300:	48 c7 85 48 e3 ff ff 	movq   $0x0,-0x1cb8(%rbp)
    a307:	00 00 00 00 
    a30b:	48 8d 85 8c e1 ff ff 	lea    -0x1e74(%rbp),%rax
    a312:	48 89 85 58 e2 ff ff 	mov    %rax,-0x1da8(%rbp)
    a319:	48 8d 05 b0 a5 01 00 	lea    0x1a5b0(%rip),%rax        # 248d0 <g_1521>
    a320:	48 89 85 50 e3 ff ff 	mov    %rax,-0x1cb0(%rbp)
    a327:	48 8d 85 80 e8 ff ff 	lea    -0x1780(%rbp),%rax
    a32e:	48 8d 15 0b 7f 01 00 	lea    0x17f0b(%rip),%rdx        # 22240 <g_2682+0x460>
    a335:	b9 3f 00 00 00       	mov    $0x3f,%ecx
    a33a:	48 89 c7             	mov    %rax,%rdi
    a33d:	48 89 d6             	mov    %rdx,%rsi
    a340:	f3 48 a5             	rep movsq %ds:(%rsi),%es:(%rdi)
    a343:	c7 85 c8 e1 ff ff f3 	movl   $0x378412f3,-0x1e38(%rbp)
    a34a:	12 84 37 
    a34d:	48 8d 05 5a 00 01 00 	lea    0x1005a(%rip),%rax        # 1a3ae <g_770>
    a354:	48 89 85 60 e2 ff ff 	mov    %rax,-0x1da0(%rbp)
    a35b:	48 8d 85 60 e2 ff ff 	lea    -0x1da0(%rbp),%rax
    a362:	48 89 85 68 e2 ff ff 	mov    %rax,-0x1d98(%rbp)
    a369:	48 8d 85 68 e2 ff ff 	lea    -0x1d98(%rbp),%rax
    a370:	48 89 85 58 e3 ff ff 	mov    %rax,-0x1ca8(%rbp)
    a377:	c7 85 cc e1 ff ff 01 	movl   $0x1,-0x1e34(%rbp)
    a37e:	00 00 00 
    a381:	c6 85 76 e1 ff ff f9 	movb   $0xf9,-0x1e8a(%rbp)
    a388:	48 8d 05 0d ff 00 00 	lea    0xff0d(%rip),%rax        # 1a29c <g_294+0xc>
    a38f:	48 89 85 60 e3 ff ff 	mov    %rax,-0x1ca0(%rbp)
    a396:	c7 85 d0 e1 ff ff 00 	movl   $0x0,-0x1e30(%rbp)
    a39d:	00 00 00 
    a3a0:	eb 14                	jmp    a3b6 <func_31+0x244>
    a3a2:	8b 85 d0 e1 ff ff    	mov    -0x1e30(%rbp),%eax
    a3a8:	48 98                	cltq   
    a3aa:	c6 44 05 c0 c9       	movb   $0xc9,-0x40(%rbp,%rax,1)
    a3af:	83 85 d0 e1 ff ff 01 	addl   $0x1,-0x1e30(%rbp)
    a3b6:	83 bd d0 e1 ff ff 00 	cmpl   $0x0,-0x1e30(%rbp)
    a3bd:	7e e3                	jle    a3a2 <func_31+0x230>
    a3bf:	90                   	nop
    a3c0:	48 8b 05 71 9e 01 00 	mov    0x19e71(%rip),%rax        # 24238 <g_1890>
    a3c7:	48 8d 15 32 ff 00 00 	lea    0xff32(%rip),%rdx        # 1a300 <g_524>
    a3ce:	48 89 10             	mov    %rdx,(%rax)
    a3d1:	be 04 00 00 00       	mov    $0x4,%esi
    a3d6:	bf 00 00 00 00       	mov    $0x0,%edi
    a3db:	e8 8c cf ff ff       	callq  736c <safe_rshift_func_int8_t_s_u>
    a3e0:	48 8b 85 50 e1 ff ff 	mov    -0x1eb0(%rbp),%rax
    a3e7:	48 c7 00 fa ff ff ff 	movq   $0xfffffffffffffffa,(%rax)
    a3ee:	48 8d 05 db a4 01 00 	lea    0x1a4db(%rip),%rax        # 248d0 <g_1521>
    a3f5:	48 89 85 70 e2 ff ff 	mov    %rax,-0x1d90(%rbp)
    a3fc:	48 8d 85 70 e2 ff ff 	lea    -0x1d90(%rbp),%rax
    a403:	48 89 85 68 e3 ff ff 	mov    %rax,-0x1c98(%rbp)
    a40a:	48 8d 85 c0 ec ff ff 	lea    -0x1340(%rbp),%rax
    a411:	48 8d 15 28 80 01 00 	lea    0x18028(%rip),%rdx        # 22440 <g_2682+0x660>
    a418:	b9 78 00 00 00       	mov    $0x78,%ecx
    a41d:	48 89 c7             	mov    %rax,%rdi
    a420:	48 89 d6             	mov    %rdx,%rsi
    a423:	f3 48 a5             	rep movsq %ds:(%rsi),%es:(%rdi)
    a426:	48 8d 05 6b 95 01 00 	lea    0x1956b(%rip),%rax        # 23998 <g_445>
    a42d:	48 89 85 30 e3 ff ff 	mov    %rax,-0x1cd0(%rbp)
    a434:	48 8d 05 57 fd 00 00 	lea    0xfd57(%rip),%rax        # 1a192 <g_174>
    a43b:	48 89 85 00 e6 ff ff 	mov    %rax,-0x1a00(%rbp)
    a442:	48 8d 05 49 fd 00 00 	lea    0xfd49(%rip),%rax        # 1a192 <g_174>
    a449:	48 89 85 08 e6 ff ff 	mov    %rax,-0x19f8(%rbp)
    a450:	48 8d 05 3b fd 00 00 	lea    0xfd3b(%rip),%rax        # 1a192 <g_174>
    a457:	48 89 85 10 e6 ff ff 	mov    %rax,-0x19f0(%rbp)
    a45e:	48 8d 05 2d fd 00 00 	lea    0xfd2d(%rip),%rax        # 1a192 <g_174>
    a465:	48 89 85 18 e6 ff ff 	mov    %rax,-0x19e8(%rbp)
    a46c:	48 8d 05 1f fd 00 00 	lea    0xfd1f(%rip),%rax        # 1a192 <g_174>
    a473:	48 89 85 20 e6 ff ff 	mov    %rax,-0x19e0(%rbp)
    a47a:	48 8d 05 11 fd 00 00 	lea    0xfd11(%rip),%rax        # 1a192 <g_174>
    a481:	48 89 85 28 e6 ff ff 	mov    %rax,-0x19d8(%rbp)
    a488:	48 8d 05 03 fd 00 00 	lea    0xfd03(%rip),%rax        # 1a192 <g_174>
    a48f:	48 89 85 30 e6 ff ff 	mov    %rax,-0x19d0(%rbp)
    a496:	48 8d 05 f5 fc 00 00 	lea    0xfcf5(%rip),%rax        # 1a192 <g_174>
    a49d:	48 89 85 38 e6 ff ff 	mov    %rax,-0x19c8(%rbp)
    a4a4:	48 8d 05 e7 fc 00 00 	lea    0xfce7(%rip),%rax        # 1a192 <g_174>
    a4ab:	48 89 85 40 e6 ff ff 	mov    %rax,-0x19c0(%rbp)
    a4b2:	48 8d 05 d9 fc 00 00 	lea    0xfcd9(%rip),%rax        # 1a192 <g_174>
    a4b9:	48 89 85 48 e6 ff ff 	mov    %rax,-0x19b8(%rbp)
    a4c0:	48 8d 05 cb fc 00 00 	lea    0xfccb(%rip),%rax        # 1a192 <g_174>
    a4c7:	48 89 85 50 e6 ff ff 	mov    %rax,-0x19b0(%rbp)
    a4ce:	48 8d 05 bd fc 00 00 	lea    0xfcbd(%rip),%rax        # 1a192 <g_174>
    a4d5:	48 89 85 58 e6 ff ff 	mov    %rax,-0x19a8(%rbp)
    a4dc:	48 8d 85 00 e6 ff ff 	lea    -0x1a00(%rbp),%rax
    a4e3:	48 83 c0 10          	add    $0x10,%rax
    a4e7:	48 89 85 78 e2 ff ff 	mov    %rax,-0x1d88(%rbp)
    a4ee:	48 8d 85 78 e2 ff ff 	lea    -0x1d88(%rbp),%rax
    a4f5:	48 89 85 80 e2 ff ff 	mov    %rax,-0x1d80(%rbp)
    a4fc:	48 8d 85 80 e2 ff ff 	lea    -0x1d80(%rbp),%rax
    a503:	48 89 85 88 e2 ff ff 	mov    %rax,-0x1d78(%rbp)
    a50a:	c7 85 bc e1 ff ff fc 	movl   $0xfffffffc,-0x1e44(%rbp)
    a511:	ff ff ff 
    a514:	48 8d 05 d5 94 01 00 	lea    0x194d5(%rip),%rax        # 239f0 <g_646>
    a51b:	48 89 85 38 e3 ff ff 	mov    %rax,-0x1cc8(%rbp)
    a522:	c7 85 c0 e1 ff ff f8 	movl   $0xfffffff8,-0x1e40(%rbp)
    a529:	ff ff ff 
    a52c:	c7 85 90 e1 ff ff 87 	movl   $0x98a0887,-0x1e70(%rbp)
    a533:	08 8a 09 
    a536:	48 8d 85 b8 e4 ff ff 	lea    -0x1b48(%rbp),%rax
    a53d:	48 89 85 40 e3 ff ff 	mov    %rax,-0x1cc0(%rbp)
    a544:	48 8d 85 50 e2 ff ff 	lea    -0x1db0(%rbp),%rax
    a54b:	48 89 85 30 e5 ff ff 	mov    %rax,-0x1ad0(%rbp)
    a552:	48 8d 85 50 e2 ff ff 	lea    -0x1db0(%rbp),%rax
    a559:	48 89 85 38 e5 ff ff 	mov    %rax,-0x1ac8(%rbp)
    a560:	48 8d 85 50 e2 ff ff 	lea    -0x1db0(%rbp),%rax
    a567:	48 89 85 40 e5 ff ff 	mov    %rax,-0x1ac0(%rbp)
    a56e:	48 8d 85 50 e2 ff ff 	lea    -0x1db0(%rbp),%rax
    a575:	48 89 85 48 e5 ff ff 	mov    %rax,-0x1ab8(%rbp)
    a57c:	48 8d 85 50 e2 ff ff 	lea    -0x1db0(%rbp),%rax
    a583:	48 89 85 50 e5 ff ff 	mov    %rax,-0x1ab0(%rbp)
    a58a:	48 8d 85 50 e2 ff ff 	lea    -0x1db0(%rbp),%rax
    a591:	48 89 85 58 e5 ff ff 	mov    %rax,-0x1aa8(%rbp)
    a598:	48 8d 85 50 e2 ff ff 	lea    -0x1db0(%rbp),%rax
    a59f:	48 89 85 60 e5 ff ff 	mov    %rax,-0x1aa0(%rbp)
    a5a6:	48 c7 85 28 e3 ff ff 	movq   $0x0,-0x1cd8(%rbp)
    a5ad:	00 00 00 00 
    a5b1:	48 8d 05 d9 fb 00 00 	lea    0xfbd9(%rip),%rax        # 1a191 <g_167>
    a5b8:	48 89 85 00 e3 ff ff 	mov    %rax,-0x1d00(%rbp)
    a5bf:	48 8d 05 fa fd 00 00 	lea    0xfdfa(%rip),%rax        # 1a3c0 <g_828>
    a5c6:	48 89 85 08 e3 ff ff 	mov    %rax,-0x1cf8(%rbp)
    a5cd:	48 c7 85 10 e3 ff ff 	movq   $0x0,-0x1cf0(%rbp)
    a5d4:	00 00 00 00 
    a5d8:	c7 85 b0 e1 ff ff 01 	movl   $0x1,-0x1e50(%rbp)
    a5df:	00 00 00 
    a5e2:	c7 85 b4 e1 ff ff 98 	movl   $0x28752698,-0x1e4c(%rbp)
    a5e9:	26 75 28 
    a5ec:	48 8d 05 de 4e 01 00 	lea    0x14ede(%rip),%rax        # 1f4d1 <g_997+0x51>
    a5f3:	48 89 85 18 e3 ff ff 	mov    %rax,-0x1ce8(%rbp)
    a5fa:	48 8d 05 1f 9c 01 00 	lea    0x19c1f(%rip),%rax        # 24220 <g_1533>
    a601:	48 89 85 20 e3 ff ff 	mov    %rax,-0x1ce0(%rbp)
    a608:	c7 85 b8 e1 ff ff 00 	movl   $0x0,-0x1e48(%rbp)
    a60f:	00 00 00 
    a612:	eb 1a                	jmp    a62e <func_31+0x4bc>
    a614:	8b 85 b8 e1 ff ff    	mov    -0x1e48(%rbp),%eax
    a61a:	48 98                	cltq   
    a61c:	c7 84 85 c4 e4 ff ff 	movl   $0x7,-0x1b3c(%rbp,%rax,4)
    a623:	07 00 00 00 
    a627:	83 85 b8 e1 ff ff 01 	addl   $0x1,-0x1e48(%rbp)
    a62e:	83 bd b8 e1 ff ff 02 	cmpl   $0x2,-0x1e48(%rbp)
    a635:	7e dd                	jle    a614 <func_31+0x4a2>
    a637:	c7 85 b8 e1 ff ff 00 	movl   $0x0,-0x1e48(%rbp)
    a63e:	00 00 00 
    a641:	eb 1b                	jmp    a65e <func_31+0x4ec>
    a643:	8b 85 b8 e1 ff ff    	mov    -0x1e48(%rbp),%eax
    a649:	48 98                	cltq   
    a64b:	48 c7 84 c5 b8 e4 ff 	movq   $0x0,-0x1b48(%rbp,%rax,8)
    a652:	ff 00 00 00 00 
    a657:	83 85 b8 e1 ff ff 01 	addl   $0x1,-0x1e48(%rbp)
    a65e:	83 bd b8 e1 ff ff 00 	cmpl   $0x0,-0x1e48(%rbp)
    a665:	7e dc                	jle    a643 <func_31+0x4d1>
    a667:	90                   	nop
    a668:	48 8b 85 68 e3 ff ff 	mov    -0x1c98(%rbp),%rax
    a66f:	48 c7 00 00 00 00 00 	movq   $0x0,(%rax)
    a676:	48 8b 85 68 e3 ff ff 	mov    -0x1c98(%rbp),%rax
    a67d:	48 8b 00             	mov    (%rax),%rax
    a680:	48 85 c0             	test   %rax,%rax
    a683:	0f 95 c0             	setne  %al
    a686:	0f b6 c0             	movzbl %al,%eax
    a689:	be ff ff 00 00       	mov    $0xffff,%esi
    a68e:	89 c7                	mov    %eax,%edi
    a690:	e8 a8 d6 ff ff       	callq  7d3d <safe_mul_func_uint16_t_u_u>
    a695:	8b 85 6c e1 ff ff    	mov    -0x1e94(%rbp),%eax
    a69b:	89 c2                	mov    %eax,%edx
    a69d:	0f b6 45 c0          	movzbl -0x40(%rbp),%eax
    a6a1:	84 c0                	test   %al,%al
    a6a3:	0f 94 c0             	sete   %al
    a6a6:	0f b6 c0             	movzbl %al,%eax
    a6a9:	89 d6                	mov    %edx,%esi
    a6ab:	89 c7                	mov    %eax,%edi
    a6ad:	e8 b1 ce ff ff       	callq  7563 <safe_rshift_func_int16_t_s_u>
    a6b2:	98                   	cwtl   
    a6b3:	89 c6                	mov    %eax,%esi
    a6b5:	bf 00 00 00 00       	mov    $0x0,%edi
    a6ba:	e8 66 d8 ff ff       	callq  7f25 <safe_div_func_uint32_t_u_u>
    a6bf:	48 8b 95 58 e1 ff ff 	mov    -0x1ea8(%rbp),%rdx
    a6c6:	48 85 d2             	test   %rdx,%rdx
    a6c9:	74 13                	je     a6de <func_31+0x56c>
    a6cb:	48 8b 95 58 e1 ff ff 	mov    -0x1ea8(%rbp),%rdx
    a6d2:	48 85 d2             	test   %rdx,%rdx
    a6d5:	74 07                	je     a6de <func_31+0x56c>
    a6d7:	b9 01 00 00 00       	mov    $0x1,%ecx
    a6dc:	eb 05                	jmp    a6e3 <func_31+0x571>
    a6de:	b9 00 00 00 00       	mov    $0x0,%ecx
    a6e3:	8b 95 cc e4 ff ff    	mov    -0x1b34(%rbp),%edx
    a6e9:	21 ca                	and    %ecx,%edx
    a6eb:	39 d0                	cmp    %edx,%eax
    a6ed:	48 8d 85 84 e1 ff ff 	lea    -0x1e7c(%rbp),%rax
    a6f4:	48 89 85 c8 e2 ff ff 	mov    %rax,-0x1d38(%rbp)
    a6fb:	48 8d 05 8f fa 00 00 	lea    0xfa8f(%rip),%rax        # 1a191 <g_167>
    a702:	48 89 85 d0 e2 ff ff 	mov    %rax,-0x1d30(%rbp)
    a709:	c7 85 a8 e1 ff ff 09 	movl   $0x9,-0x1e58(%rbp)
    a710:	00 00 00 
    a713:	48 c7 85 d8 e2 ff ff 	movq   $0x0,-0x1d28(%rbp)
    a71a:	00 00 00 00 
    a71e:	48 8d 05 d3 92 01 00 	lea    0x192d3(%rip),%rax        # 239f8 <g_645>
    a725:	48 89 85 e0 e2 ff ff 	mov    %rax,-0x1d20(%rbp)
    a72c:	48 8d 05 71 fb 00 00 	lea    0xfb71(%rip),%rax        # 1a2a4 <g_294+0x14>
    a733:	48 89 85 e8 e2 ff ff 	mov    %rax,-0x1d18(%rbp)
    a73a:	48 8d 05 83 6b 01 00 	lea    0x16b83(%rip),%rax        # 212c4 <g_1853+0x24>
    a741:	48 89 85 f0 e2 ff ff 	mov    %rax,-0x1d10(%rbp)
    a748:	48 8d 05 21 60 01 00 	lea    0x16021(%rip),%rax        # 20770 <g_1334+0x230>
    a74f:	48 89 85 f8 e2 ff ff 	mov    %rax,-0x1d08(%rbp)
    a756:	c7 85 ac e1 ff ff ff 	movl   $0xffffffff,-0x1e54(%rbp)
    a75d:	ff ff ff 
    a760:	c7 85 98 e1 ff ff f6 	movl   $0xfffffff6,-0x1e68(%rbp)
    a767:	ff ff ff 
    a76a:	c7 85 9c e1 ff ff 97 	movl   $0x531a8197,-0x1e64(%rbp)
    a771:	81 1a 53 
    a774:	c7 85 a0 e1 ff ff c2 	movl   $0xeecbd8c2,-0x1e60(%rbp)
    a77b:	d8 cb ee 
    a77e:	c7 85 a4 e1 ff ff 23 	movl   $0x18d24623,-0x1e5c(%rbp)
    a785:	46 d2 18 
    a788:	48 8b 85 58 e1 ff ff 	mov    -0x1ea8(%rbp),%rax
    a78f:	41 89 c4             	mov    %eax,%r12d
    a792:	48 8d 85 6c e1 ff ff 	lea    -0x1e94(%rbp),%rax
    a799:	48 89 85 c8 e2 ff ff 	mov    %rax,-0x1d38(%rbp)
    a7a0:	48 8d 85 6c e1 ff ff 	lea    -0x1e94(%rbp),%rax
    a7a7:	48 39 85 c8 e2 ff ff 	cmp    %rax,-0x1d38(%rbp)
    a7ae:	0f 95 c0             	setne  %al
    a7b1:	0f b6 d0             	movzbl %al,%edx
    a7b4:	48 8b 85 58 e1 ff ff 	mov    -0x1ea8(%rbp),%rax
    a7bb:	48 39 c2             	cmp    %rax,%rdx
    a7be:	0f 9f c0             	setg   %al
    a7c1:	89 c2                	mov    %eax,%edx
    a7c3:	48 8b 85 d0 e2 ff ff 	mov    -0x1d30(%rbp),%rax
    a7ca:	88 10                	mov    %dl,(%rax)
    a7cc:	48 8b 85 d0 e2 ff ff 	mov    -0x1d30(%rbp),%rax
    a7d3:	0f b6 00             	movzbl (%rax),%eax
    a7d6:	0f b6 d0             	movzbl %al,%edx
    a7d9:	8b 8d 6c e1 ff ff    	mov    -0x1e94(%rbp),%ecx
    a7df:	48 8b 05 1a 92 01 00 	mov    0x1921a(%rip),%rax        # 23a00 <g_728>
    a7e6:	48 8b 00             	mov    (%rax),%rax
    a7e9:	48 8b 00             	mov    (%rax),%rax
    a7ec:	88 08                	mov    %cl,(%rax)
    a7ee:	0f b6 00             	movzbl (%rax),%eax
    a7f1:	0f b6 c0             	movzbl %al,%eax
    a7f4:	89 d6                	mov    %edx,%esi
    a7f6:	89 c7                	mov    %eax,%edi
    a7f8:	e8 96 d3 ff ff       	callq  7b93 <safe_mul_func_uint8_t_u_u>
    a7fd:	0f b6 d8             	movzbl %al,%ebx
    a800:	8b 85 a8 e1 ff ff    	mov    -0x1e58(%rbp),%eax
    a806:	89 85 84 e1 ff ff    	mov    %eax,-0x1e7c(%rbp)
    a80c:	0f b6 45 c0          	movzbl -0x40(%rbp),%eax
    a810:	84 c0                	test   %al,%al
    a812:	75 19                	jne    a82d <func_31+0x6bb>
    a814:	0f b7 85 68 e1 ff ff 	movzwl -0x1e98(%rbp),%eax
    a81b:	98                   	cwtl   
    a81c:	89 c6                	mov    %eax,%esi
    a81e:	bf 46 77 00 00       	mov    $0x7746,%edi
    a823:	e8 52 d6 ff ff       	callq  7e7a <safe_rshift_func_uint16_t_u_u>
    a828:	66 85 c0             	test   %ax,%ax
    a82b:	74 08                	je     a835 <func_31+0x6c3>
    a82d:	8b 85 88 e1 ff ff    	mov    -0x1e78(%rbp),%eax
    a833:	85 c0                	test   %eax,%eax
    a835:	48 8b 85 50 e1 ff ff 	mov    -0x1eb0(%rbp),%rax
    a83c:	48 8b 00             	mov    (%rax),%rax
    a83f:	48 85 c0             	test   %rax,%rax
    a842:	48 8b 85 e0 e2 ff ff 	mov    -0x1d20(%rbp),%rax
    a849:	48 8b 95 38 e3 ff ff 	mov    -0x1cc8(%rbp),%rdx
    a850:	48 89 10             	mov    %rdx,(%rax)
    a853:	48 8b 85 e0 e2 ff ff 	mov    -0x1d20(%rbp),%rax
    a85a:	48 8b 00             	mov    (%rax),%rax
    a85d:	48 39 85 78 e3 ff ff 	cmp    %rax,-0x1c88(%rbp)
    a864:	0f 95 c0             	setne  %al
    a867:	0f b6 c0             	movzbl %al,%eax
    a86a:	33 85 a8 e1 ff ff    	xor    -0x1e58(%rbp),%eax
    a870:	8b 15 fa 6b 01 00    	mov    0x16bfa(%rip),%edx        # 21470 <g_1990+0x10>
    a876:	81 e2 ff ff 3f 00    	and    $0x3fffff,%edx
    a87c:	39 d0                	cmp    %edx,%eax
    a87e:	75 07                	jne    a887 <func_31+0x715>
    a880:	b8 f1 7a 00 00       	mov    $0x7af1,%eax
    a885:	eb 05                	jmp    a88c <func_31+0x71a>
    a887:	b8 f0 7a 00 00       	mov    $0x7af0,%eax
    a88c:	48 c7 c6 ff ff ff ff 	mov    $0xffffffffffffffff,%rsi
    a893:	48 89 c7             	mov    %rax,%rdi
    a896:	e8 e5 d7 ff ff       	callq  8080 <safe_mod_func_uint64_t_u_u>
    a89b:	88 85 dd e4 ff ff    	mov    %al,-0x1b23(%rbp)
    a8a1:	0f b6 85 dd e4 ff ff 	movzbl -0x1b23(%rbp),%eax
    a8a8:	0f b6 c0             	movzbl %al,%eax
    a8ab:	be 04 00 00 00       	mov    $0x4,%esi
    a8b0:	89 c7                	mov    %eax,%edi
    a8b2:	e8 c3 d5 ff ff       	callq  7e7a <safe_rshift_func_uint16_t_u_u>
    a8b7:	21 d8                	and    %ebx,%eax
    a8b9:	98                   	cwtl   
    a8ba:	44 89 e6             	mov    %r12d,%esi
    a8bd:	89 c7                	mov    %eax,%edi
    a8bf:	e8 1d cc ff ff       	callq  74e1 <safe_lshift_func_int16_t_s_u>
    a8c4:	0f bf d0             	movswl %ax,%edx
    a8c7:	48 8b 05 32 fa 00 00 	mov    0xfa32(%rip),%rax        # 1a300 <g_524>
    a8ce:	c1 e0 05             	shl    $0x5,%eax
    a8d1:	66 c1 f8 05          	sar    $0x5,%ax
    a8d5:	0f be c0             	movsbl %al,%eax
    a8d8:	89 d6                	mov    %edx,%esi
    a8da:	89 c7                	mov    %eax,%edi
    a8dc:	e8 c0 c9 ff ff       	callq  72a1 <safe_lshift_func_int8_t_s_s>
    a8e1:	ba 81 eb a2 21       	mov    $0x21a2eb81,%edx
    a8e6:	48 8b 85 e8 e2 ff ff 	mov    -0x1d18(%rbp),%rax
    a8ed:	8b 00                	mov    (%rax),%eax
    a8ef:	31 c2                	xor    %eax,%edx
    a8f1:	48 8b 85 e8 e2 ff ff 	mov    -0x1d18(%rbp),%rax
    a8f8:	89 10                	mov    %edx,(%rax)
    a8fa:	48 8b 05 8f 8e 01 00 	mov    0x18e8f(%rip),%rax        # 23790 <g_357>
    a901:	48 8b 00             	mov    (%rax),%rax
    a904:	48 8b 00             	mov    (%rax),%rax
    a907:	48 8b 00             	mov    (%rax),%rax
    a90a:	0f b6 00             	movzbl (%rax),%eax
    a90d:	0f b6 d8             	movzbl %al,%ebx
    a910:	8b 85 90 e1 ff ff    	mov    -0x1e70(%rbp),%eax
    a916:	44 0f b7 e0          	movzwl %ax,%r12d
    a91a:	48 8b 85 50 e1 ff ff 	mov    -0x1eb0(%rbp),%rax
    a921:	4c 8b 28             	mov    (%rax),%r13
    a924:	0f b6 85 dd e4 ff ff 	movzbl -0x1b23(%rbp),%eax
    a92b:	0f b6 c0             	movzbl %al,%eax
    a92e:	0b 85 c0 e1 ff ff    	or     -0x1e40(%rbp),%eax
    a934:	41 89 c6             	mov    %eax,%r14d
    a937:	0f b7 85 68 e1 ff ff 	movzwl -0x1e98(%rbp),%eax
    a93e:	0f bf d0             	movswl %ax,%edx
    a941:	48 8b 85 e0 e2 ff ff 	mov    -0x1d20(%rbp),%rax
    a948:	48 8b 00             	mov    (%rax),%rax
    a94b:	48 8b 00             	mov    (%rax),%rax
    a94e:	0f b7 08             	movzwl (%rax),%ecx
    a951:	48 8b 85 e0 e2 ff ff 	mov    -0x1d20(%rbp),%rax
    a958:	48 8b 00             	mov    (%rax),%rax
    a95b:	48 8b 00             	mov    (%rax),%rax
    a95e:	83 c9 01             	or     $0x1,%ecx
    a961:	66 89 08             	mov    %cx,(%rax)
    a964:	8b 85 6c e1 ff ff    	mov    -0x1e94(%rbp),%eax
    a96a:	89 85 84 e1 ff ff    	mov    %eax,-0x1e7c(%rbp)
    a970:	8b 8d 84 e1 ff ff    	mov    -0x1e7c(%rbp),%ecx
    a976:	48 8b 85 95 e4 ff ff 	mov    -0x1b6b(%rbp),%rax
    a97d:	48 85 c0             	test   %rax,%rax
    a980:	0f 95 c0             	setne  %al
    a983:	0f b6 c0             	movzbl %al,%eax
    a986:	39 c1                	cmp    %eax,%ecx
    a988:	0f 95 c0             	setne  %al
    a98b:	0f b6 c8             	movzbl %al,%ecx
    a98e:	48 8b 85 58 e1 ff ff 	mov    -0x1ea8(%rbp),%rax
    a995:	48 39 c1             	cmp    %rax,%rcx
    a998:	0f 9c c0             	setl   %al
    a99b:	89 c1                	mov    %eax,%ecx
    a99d:	48 8b 85 58 e1 ff ff 	mov    -0x1ea8(%rbp),%rax
    a9a4:	31 c8                	xor    %ecx,%eax
    a9a6:	89 c1                	mov    %eax,%ecx
    a9a8:	48 8b 85 50 e1 ff ff 	mov    -0x1eb0(%rbp),%rax
    a9af:	48 8b 00             	mov    (%rax),%rax
    a9b2:	21 c8                	and    %ecx,%eax
    a9b4:	0f b6 c0             	movzbl %al,%eax
    a9b7:	89 d6                	mov    %edx,%esi
    a9b9:	89 c7                	mov    %eax,%edi
    a9bb:	e8 cd d2 ff ff       	callq  7c8d <safe_rshift_func_uint8_t_u_s>
    a9c0:	0f b6 d0             	movzbl %al,%edx
    a9c3:	8b 85 6c e1 ff ff    	mov    -0x1e94(%rbp),%eax
    a9c9:	31 c2                	xor    %eax,%edx
    a9cb:	0f b7 85 68 e1 ff ff 	movzwl -0x1e98(%rbp),%eax
    a9d2:	98                   	cwtl   
    a9d3:	39 c2                	cmp    %eax,%edx
    a9d5:	0f 9f c0             	setg   %al
    a9d8:	0f b6 c0             	movzbl %al,%eax
    a9db:	41 39 c6             	cmp    %eax,%r14d
    a9de:	0f 94 c0             	sete   %al
    a9e1:	0f b6 c0             	movzbl %al,%eax
    a9e4:	4c 89 ea             	mov    %r13,%rdx
    a9e7:	48 31 c2             	xor    %rax,%rdx
    a9ea:	48 8b 85 e8 e2 ff ff 	mov    -0x1d18(%rbp),%rax
    a9f1:	8b 00                	mov    (%rax),%eax
    a9f3:	48 98                	cltq   
    a9f5:	48 39 c2             	cmp    %rax,%rdx
    a9f8:	0f 94 c0             	sete   %al
    a9fb:	0f b6 c0             	movzbl %al,%eax
    a9fe:	44 89 e6             	mov    %r12d,%esi
    aa01:	89 c7                	mov    %eax,%edi
    aa03:	e8 17 d3 ff ff       	callq  7d1f <safe_sub_func_uint16_t_u_u>
    aa08:	48 8b 95 f0 e2 ff ff 	mov    -0x1d10(%rbp),%rdx
    aa0f:	8b 12                	mov    (%rdx),%edx
    aa11:	0f b7 c0             	movzwl %ax,%eax
    aa14:	09 c2                	or     %eax,%edx
    aa16:	48 8b 85 f0 e2 ff ff 	mov    -0x1d10(%rbp),%rax
    aa1d:	89 10                	mov    %edx,(%rax)
    aa1f:	48 8b 85 f0 e2 ff ff 	mov    -0x1d10(%rbp),%rax
    aa26:	8b 00                	mov    (%rax),%eax
    aa28:	8b 95 6c e1 ff ff    	mov    -0x1e94(%rbp),%edx
    aa2e:	21 d0                	and    %edx,%eax
    aa30:	85 c0                	test   %eax,%eax
    aa32:	48 8b 85 c8 e2 ff ff 	mov    -0x1d38(%rbp),%rax
    aa39:	8b 10                	mov    (%rax),%edx
    aa3b:	48 8b 85 e8 e2 ff ff 	mov    -0x1d18(%rbp),%rax
    aa42:	8b 08                	mov    (%rax),%ecx
    aa44:	0f b7 85 68 e1 ff ff 	movzwl -0x1e98(%rbp),%eax
    aa4b:	98                   	cwtl   
    aa4c:	39 c1                	cmp    %eax,%ecx
    aa4e:	0f 9e c0             	setle  %al
    aa51:	0f b6 c0             	movzbl %al,%eax
    aa54:	39 c2                	cmp    %eax,%edx
    aa56:	0f 9c c0             	setl   %al
    aa59:	0f b6 c8             	movzbl %al,%ecx
    aa5c:	48 8b 85 f8 e2 ff ff 	mov    -0x1d08(%rbp),%rax
    aa63:	48 8b 10             	mov    (%rax),%rdx
    aa66:	48 63 c1             	movslq %ecx,%rax
    aa69:	48 31 c2             	xor    %rax,%rdx
    aa6c:	48 8b 85 f8 e2 ff ff 	mov    -0x1d08(%rbp),%rax
    aa73:	48 89 10             	mov    %rdx,(%rax)
    aa76:	48 8b 85 f8 e2 ff ff 	mov    -0x1d08(%rbp),%rax
    aa7d:	48 8b 00             	mov    (%rax),%rax
    aa80:	48 89 c2             	mov    %rax,%rdx
    aa83:	48 b8 96 c2 96 c1 7b 	movabs $0xed15347bc196c296,%rax
    aa8a:	34 15 ed 
    aa8d:	48 39 c2             	cmp    %rax,%rdx
    aa90:	0f 96 c0             	setbe  %al
    aa93:	0f b6 c0             	movzbl %al,%eax
    aa96:	89 de                	mov    %ebx,%esi
    aa98:	89 c7                	mov    %eax,%edi
    aa9a:	e8 ad d1 ff ff       	callq  7c4c <safe_lshift_func_uint8_t_u_u>
    aa9f:	48 8b 85 58 e1 ff ff 	mov    -0x1ea8(%rbp),%rax
    aaa6:	48 85 c0             	test   %rax,%rax
    aaa9:	0f 84 a0 00 00 00    	je     ab4f <func_31+0x9dd>
    aaaf:	48 c7 85 80 ea ff ff 	movq   $0x0,-0x1580(%rbp)
    aab6:	00 00 00 00 
    aaba:	48 c7 85 88 ea ff ff 	movq   $0x0,-0x1578(%rbp)
    aac1:	00 00 00 00 
    aac5:	48 c7 85 90 ea ff ff 	movq   $0x0,-0x1570(%rbp)
    aacc:	00 00 00 00 
    aad0:	48 c7 85 98 ea ff ff 	movq   $0x0,-0x1568(%rbp)
    aad7:	00 00 00 00 
    aadb:	c7 85 a0 ea ff ff 00 	movl   $0x0,-0x1560(%rbp)
    aae2:	00 00 00 
    aae5:	c7 05 55 68 01 00 00 	movl   $0x0,0x16855(%rip)        # 21344 <g_1869+0x24>
    aaec:	00 00 00 
    aaef:	eb 4e                	jmp    ab3f <func_31+0x9cd>
    aaf1:	c7 05 f5 f7 00 00 00 	movl   $0x0,0xf7f5(%rip)        # 1a2f0 <g_464>
    aaf8:	00 00 00 
    aafb:	90                   	nop
    aafc:	8b 05 ee f7 00 00    	mov    0xf7ee(%rip),%eax        # 1a2f0 <g_464>
    ab02:	83 f8 01             	cmp    $0x1,%eax
    ab05:	77 29                	ja     ab30 <func_31+0x9be>
    ab07:	48 8b 85 e8 e2 ff ff 	mov    -0x1d18(%rbp),%rax
    ab0e:	8b 10                	mov    (%rax),%edx
    ab10:	8b 85 88 ea ff ff    	mov    -0x1578(%rbp),%eax
    ab16:	09 c2                	or     %eax,%edx
    ab18:	48 8b 85 e8 e2 ff ff 	mov    -0x1d18(%rbp),%rax
    ab1f:	89 10                	mov    %edx,(%rax)
    ab21:	48 8b 05 70 8e 01 00 	mov    0x18e70(%rip),%rax        # 23998 <g_445>
    ab28:	48 8b 00             	mov    (%rax),%rax
    ab2b:	e9 0b 2a 00 00       	jmpq   d53b <func_31+0x33c9>
    ab30:	8b 05 0e 68 01 00    	mov    0x1680e(%rip),%eax        # 21344 <g_1869+0x24>
    ab36:	83 c0 01             	add    $0x1,%eax
    ab39:	89 05 05 68 01 00    	mov    %eax,0x16805(%rip)        # 21344 <g_1869+0x24>
    ab3f:	8b 05 ff 67 01 00    	mov    0x167ff(%rip),%eax        # 21344 <g_1869+0x24>
    ab45:	83 f8 37             	cmp    $0x37,%eax
    ab48:	75 a7                	jne    aaf1 <func_31+0x97f>
    ab4a:	e9 ca 02 00 00       	jmpq   ae19 <func_31+0xca7>
    ab4f:	48 8d 05 02 f5 00 00 	lea    0xf502(%rip),%rax        # 1a058 <g_97>
    ab56:	48 89 85 b0 e2 ff ff 	mov    %rax,-0x1d50(%rbp)
    ab5d:	48 8d 05 03 4a 01 00 	lea    0x14a03(%rip),%rax        # 1f567 <g_1281+0x17>
    ab64:	48 89 85 b8 e2 ff ff 	mov    %rax,-0x1d48(%rbp)
    ab6b:	48 8d 85 88 e1 ff ff 	lea    -0x1e78(%rbp),%rax
    ab72:	48 89 85 c0 e2 ff ff 	mov    %rax,-0x1d40(%rbp)
    ab79:	48 8d 05 a4 f4 00 00 	lea    0xf4a4(%rip),%rax        # 1a024 <g_2>
    ab80:	48 89 85 d0 e6 ff ff 	mov    %rax,-0x1930(%rbp)
    ab87:	48 8d 05 96 f4 00 00 	lea    0xf496(%rip),%rax        # 1a024 <g_2>
    ab8e:	48 89 85 d8 e6 ff ff 	mov    %rax,-0x1928(%rbp)
    ab95:	48 8d 05 88 f4 00 00 	lea    0xf488(%rip),%rax        # 1a024 <g_2>
    ab9c:	48 89 85 e0 e6 ff ff 	mov    %rax,-0x1920(%rbp)
    aba3:	48 8d 05 7a f4 00 00 	lea    0xf47a(%rip),%rax        # 1a024 <g_2>
    abaa:	48 89 85 e8 e6 ff ff 	mov    %rax,-0x1918(%rbp)
    abb1:	48 8d 05 6c f4 00 00 	lea    0xf46c(%rip),%rax        # 1a024 <g_2>
    abb8:	48 89 85 f0 e6 ff ff 	mov    %rax,-0x1910(%rbp)
    abbf:	c7 85 80 ea ff ff 00 	movl   $0x0,-0x1580(%rbp)
    abc6:	00 00 00 
    abc9:	c7 85 84 ea ff ff 00 	movl   $0x0,-0x157c(%rbp)
    abd0:	00 00 00 
    abd3:	c7 85 88 ea ff ff ff 	movl   $0xffffffff,-0x1578(%rbp)
    abda:	ff ff ff 
    abdd:	c7 85 8c ea ff ff 00 	movl   $0x0,-0x1574(%rbp)
    abe4:	00 00 00 
    abe7:	c7 85 90 ea ff ff 3a 	movl   $0x5805783a,-0x1570(%rbp)
    abee:	78 05 58 
    abf1:	c7 85 94 ea ff ff ff 	movl   $0xffffffff,-0x156c(%rbp)
    abf8:	ff ff ff 
    abfb:	c7 85 98 ea ff ff 00 	movl   $0x0,-0x1568(%rbp)
    ac02:	00 00 00 
    ac05:	c7 85 9c ea ff ff 3a 	movl   $0x5805783a,-0x1564(%rbp)
    ac0c:	78 05 58 
    ac0f:	c7 85 a0 ea ff ff ff 	movl   $0xffffffff,-0x1560(%rbp)
    ac16:	ff ff ff 
    ac19:	c7 85 a4 ea ff ff 3a 	movl   $0x5805783a,-0x155c(%rbp)
    ac20:	78 05 58 
    ac23:	c7 85 a8 ea ff ff 00 	movl   $0x0,-0x1558(%rbp)
    ac2a:	00 00 00 
    ac2d:	c7 85 ac ea ff ff ff 	movl   $0xffffffff,-0x1554(%rbp)
    ac34:	ff ff ff 
    ac37:	c7 85 b0 ea ff ff 3a 	movl   $0x5805783a,-0x1550(%rbp)
    ac3e:	78 05 58 
    ac41:	c7 85 b4 ea ff ff 00 	movl   $0x0,-0x154c(%rbp)
    ac48:	00 00 00 
    ac4b:	c7 85 b8 ea ff ff ff 	movl   $0xffffffff,-0x1548(%rbp)
    ac52:	ff ff ff 
    ac55:	c7 85 bc ea ff ff 00 	movl   $0x0,-0x1544(%rbp)
    ac5c:	00 00 00 
    ac5f:	c7 85 c0 ea ff ff 00 	movl   $0x0,-0x1540(%rbp)
    ac66:	00 00 00 
    ac69:	c7 85 c4 ea ff ff ff 	movl   $0xffffffff,-0x153c(%rbp)
    ac70:	ff ff ff 
    ac73:	c7 85 c8 ea ff ff 00 	movl   $0x0,-0x1538(%rbp)
    ac7a:	00 00 00 
    ac7d:	c7 85 cc ea ff ff 00 	movl   $0x0,-0x1534(%rbp)
    ac84:	00 00 00 
    ac87:	c7 85 d0 ea ff ff ff 	movl   $0xffffffff,-0x1530(%rbp)
    ac8e:	ff ff ff 
    ac91:	c7 85 d4 ea ff ff 00 	movl   $0x0,-0x152c(%rbp)
    ac98:	00 00 00 
    ac9b:	c7 85 d8 ea ff ff 3a 	movl   $0x5805783a,-0x1528(%rbp)
    aca2:	78 05 58 
    aca5:	c7 85 dc ea ff ff ff 	movl   $0xffffffff,-0x1524(%rbp)
    acac:	ff ff ff 
    acaf:	c7 85 e0 ea ff ff 00 	movl   $0x0,-0x1520(%rbp)
    acb6:	00 00 00 
    acb9:	c7 85 e4 ea ff ff 3a 	movl   $0x5805783a,-0x151c(%rbp)
    acc0:	78 05 58 
    acc3:	c7 85 e8 ea ff ff ff 	movl   $0xffffffff,-0x1518(%rbp)
    acca:	ff ff ff 
    accd:	c7 85 ec ea ff ff 3a 	movl   $0x5805783a,-0x1514(%rbp)
    acd4:	78 05 58 
    acd7:	c7 85 f0 ea ff ff 00 	movl   $0x0,-0x1510(%rbp)
    acde:	00 00 00 
    ace1:	c7 85 f4 ea ff ff ff 	movl   $0xffffffff,-0x150c(%rbp)
    ace8:	ff ff ff 
    aceb:	c7 85 f8 ea ff ff 3a 	movl   $0x5805783a,-0x1508(%rbp)
    acf2:	78 05 58 
    acf5:	c7 85 fc ea ff ff 00 	movl   $0x0,-0x1504(%rbp)
    acfc:	00 00 00 
    acff:	c7 85 00 eb ff ff ff 	movl   $0xffffffff,-0x1500(%rbp)
    ad06:	ff ff ff 
    ad09:	c7 85 04 eb ff ff 00 	movl   $0x0,-0x14fc(%rbp)
    ad10:	00 00 00 
    ad13:	c7 85 08 eb ff ff 00 	movl   $0x0,-0x14f8(%rbp)
    ad1a:	00 00 00 
    ad1d:	c7 85 0c eb ff ff ff 	movl   $0xffffffff,-0x14f4(%rbp)
    ad24:	ff ff ff 
    ad27:	c7 85 10 eb ff ff 00 	movl   $0x0,-0x14f0(%rbp)
    ad2e:	00 00 00 
    ad31:	c7 85 14 eb ff ff 00 	movl   $0x0,-0x14ec(%rbp)
    ad38:	00 00 00 
    ad3b:	c7 85 18 eb ff ff ff 	movl   $0xffffffff,-0x14e8(%rbp)
    ad42:	ff ff ff 
    ad45:	c7 85 1c eb ff ff 00 	movl   $0x0,-0x14e4(%rbp)
    ad4c:	00 00 00 
    ad4f:	c7 85 20 eb ff ff 3a 	movl   $0x5805783a,-0x14e0(%rbp)
    ad56:	78 05 58 
    ad59:	c7 85 24 eb ff ff ff 	movl   $0xffffffff,-0x14dc(%rbp)
    ad60:	ff ff ff 
    ad63:	c7 85 28 eb ff ff 00 	movl   $0x0,-0x14d8(%rbp)
    ad6a:	00 00 00 
    ad6d:	c7 85 2c eb ff ff 3a 	movl   $0x5805783a,-0x14d4(%rbp)
    ad74:	78 05 58 
    ad77:	c7 85 30 eb ff ff ff 	movl   $0xffffffff,-0x14d0(%rbp)
    ad7e:	ff ff ff 
    ad81:	c7 85 34 eb ff ff 3a 	movl   $0x5805783a,-0x14cc(%rbp)
    ad88:	78 05 58 
    ad8b:	c7 85 38 eb ff ff 00 	movl   $0x0,-0x14c8(%rbp)
    ad92:	00 00 00 
    ad95:	c7 85 3c eb ff ff ff 	movl   $0xffffffff,-0x14c4(%rbp)
    ad9c:	ff ff ff 
    ad9f:	c7 85 40 eb ff ff 3a 	movl   $0x5805783a,-0x14c0(%rbp)
    ada6:	78 05 58 
    ada9:	c7 85 44 eb ff ff 00 	movl   $0x0,-0x14bc(%rbp)
    adb0:	00 00 00 
    adb3:	c7 85 48 eb ff ff ff 	movl   $0xffffffff,-0x14b8(%rbp)
    adba:	ff ff ff 
    adbd:	c7 85 4c eb ff ff 00 	movl   $0x0,-0x14b4(%rbp)
    adc4:	00 00 00 
    adc7:	c7 85 50 eb ff ff 00 	movl   $0x0,-0x14b0(%rbp)
    adce:	00 00 00 
    add1:	c7 85 54 eb ff ff ff 	movl   $0xffffffff,-0x14ac(%rbp)
    add8:	ff ff ff 
    addb:	48 8b 05 46 9a 01 00 	mov    0x19a46(%rip),%rax        # 24828 <g_64>
    ade2:	0f b6 00             	movzbl (%rax),%eax
    ade5:	3c 80                	cmp    $0x80,%al
    ade7:	0f 96 c0             	setbe  %al
    adea:	0f b6 d0             	movzbl %al,%edx
    aded:	48 8b 85 58 e1 ff ff 	mov    -0x1ea8(%rbp),%rax
    adf4:	48 39 c2             	cmp    %rax,%rdx
    adf7:	0f 9e c0             	setle  %al
    adfa:	0f b6 c0             	movzbl %al,%eax
    adfd:	89 85 6c e1 ff ff    	mov    %eax,-0x1e94(%rbp)
    ae03:	83 ad 94 e1 ff ff 01 	subl   $0x1,-0x1e6c(%rbp)
    ae0a:	48 8b 05 87 8b 01 00 	mov    0x18b87(%rip),%rax        # 23998 <g_445>
    ae11:	48 8b 00             	mov    (%rax),%rax
    ae14:	e9 22 27 00 00       	jmpq   d53b <func_31+0x33c9>
    ae19:	48 8b 85 40 e3 ff ff 	mov    -0x1cc0(%rbp),%rax
    ae20:	48 8d 95 70 e2 ff ff 	lea    -0x1d90(%rbp),%rdx
    ae27:	48 89 10             	mov    %rdx,(%rax)
    ae2a:	48 8b 85 40 e3 ff ff 	mov    -0x1cc0(%rbp),%rax
    ae31:	48 8b 10             	mov    (%rax),%rdx
    ae34:	48 8d 85 70 e2 ff ff 	lea    -0x1d90(%rbp),%rax
    ae3b:	48 39 c2             	cmp    %rax,%rdx
    ae3e:	48 8b 85 50 e2 ff ff 	mov    -0x1db0(%rbp),%rax
    ae45:	48 89 05 2c 94 01 00 	mov    %rax,0x1942c(%rip)        # 24278 <g_2092+0x18>
    ae4c:	48 8b 05 25 94 01 00 	mov    0x19425(%rip),%rax        # 24278 <g_2092+0x18>
    ae53:	48 8d 95 c0 ec ff ff 	lea    -0x1340(%rbp),%rdx
    ae5a:	48 81 c2 78 03 00 00 	add    $0x378,%rdx
    ae61:	48 39 d0             	cmp    %rdx,%rax
    ae64:	0f 85 83 00 00 00    	jne    aeed <func_31+0xd7b>
    ae6a:	8b 85 6c e1 ff ff    	mov    -0x1e94(%rbp),%eax
    ae70:	0f be d8             	movsbl %al,%ebx
    ae73:	48 8d 05 16 89 01 00 	lea    0x18916(%rip),%rax        # 23790 <g_357>
    ae7a:	48 39 85 28 e3 ff ff 	cmp    %rax,-0x1cd8(%rbp)
    ae81:	0f 94 c0             	sete   %al
    ae84:	0f b6 c0             	movzbl %al,%eax
    ae87:	89 85 88 e1 ff ff    	mov    %eax,-0x1e78(%rbp)
    ae8d:	44 8b a5 88 e1 ff ff 	mov    -0x1e78(%rbp),%r12d
    ae94:	be 06 00 00 00       	mov    $0x6,%esi
    ae99:	bf 04 00 00 00       	mov    $0x4,%edi
    ae9e:	e8 c9 c4 ff ff       	callq  736c <safe_rshift_func_int8_t_s_u>
    aea3:	84 c0                	test   %al,%al
    aea5:	74 07                	je     aeae <func_31+0xd3c>
    aea7:	b8 01 00 00 00       	mov    $0x1,%eax
    aeac:	eb 05                	jmp    aeb3 <func_31+0xd41>
    aeae:	b8 00 00 00 00       	mov    $0x0,%eax
    aeb3:	44 39 e0             	cmp    %r12d,%eax
    aeb6:	0f 9c c0             	setl   %al
    aeb9:	89 c2                	mov    %eax,%edx
    aebb:	48 8b 85 00 e3 ff ff 	mov    -0x1d00(%rbp),%rax
    aec2:	88 10                	mov    %dl,(%rax)
    aec4:	48 8b 85 00 e3 ff ff 	mov    -0x1d00(%rbp),%rax
    aecb:	0f b6 00             	movzbl (%rax),%eax
    aece:	0f be c0             	movsbl %al,%eax
    aed1:	89 de                	mov    %ebx,%esi
    aed3:	89 c7                	mov    %eax,%edi
    aed5:	e8 57 c3 ff ff       	callq  7231 <safe_mod_func_int8_t_s_s>
    aeda:	8b 85 6c e1 ff ff    	mov    -0x1e94(%rbp),%eax
    aee0:	48 63 d0             	movslq %eax,%rdx
    aee3:	48 8b 85 58 e1 ff ff 	mov    -0x1ea8(%rbp),%rax
    aeea:	48 39 c2             	cmp    %rax,%rdx
    aeed:	48 8b 85 58 e1 ff ff 	mov    -0x1ea8(%rbp),%rax
    aef4:	83 f0 01             	xor    $0x1,%eax
    aef7:	25 ae 00 00 00       	and    $0xae,%eax
    aefc:	89 c1                	mov    %eax,%ecx
    aefe:	0f b7 85 68 e1 ff ff 	movzwl -0x1e98(%rbp),%eax
    af05:	0f bf d0             	movswl %ax,%edx
    af08:	48 8b 05 21 93 01 00 	mov    0x19321(%rip),%rax        # 24230 <g_1577>
    af0f:	31 ca                	xor    %ecx,%edx
    af11:	89 10                	mov    %edx,(%rax)
    af13:	8b 00                	mov    (%rax),%eax
    af15:	85 c0                	test   %eax,%eax
    af17:	0f 84 73 24 00 00    	je     d390 <func_31+0x321e>
    af1d:	66 c7 85 60 e6 ff ff 	movw   $0x1,-0x19a0(%rbp)
    af24:	01 00 
    af26:	66 c7 85 62 e6 ff ff 	movw   $0x1,-0x199e(%rbp)
    af2d:	01 00 
    af2f:	66 c7 85 64 e6 ff ff 	movw   $0xfff7,-0x199c(%rbp)
    af36:	f7 ff 
    af38:	66 c7 85 66 e6 ff ff 	movw   $0x1,-0x199a(%rbp)
    af3f:	01 00 
    af41:	66 c7 85 68 e6 ff ff 	movw   $0x1,-0x1998(%rbp)
    af48:	01 00 
    af4a:	66 c7 85 6a e6 ff ff 	movw   $0xfff7,-0x1996(%rbp)
    af51:	f7 ff 
    af53:	66 c7 85 6c e6 ff ff 	movw   $0x1,-0x1994(%rbp)
    af5a:	01 00 
    af5c:	66 c7 85 6e e6 ff ff 	movw   $0xfb79,-0x1992(%rbp)
    af63:	79 fb 
    af65:	66 c7 85 70 e6 ff ff 	movw   $0x1,-0x1990(%rbp)
    af6c:	01 00 
    af6e:	66 c7 85 72 e6 ff ff 	movw   $0x5af0,-0x198e(%rbp)
    af75:	f0 5a 
    af77:	66 c7 85 74 e6 ff ff 	movw   $0x9397,-0x198c(%rbp)
    af7e:	97 93 
    af80:	66 c7 85 76 e6 ff ff 	movw   $0x5af0,-0x198a(%rbp)
    af87:	f0 5a 
    af89:	66 c7 85 78 e6 ff ff 	movw   $0x1,-0x1988(%rbp)
    af90:	01 00 
    af92:	66 c7 85 7a e6 ff ff 	movw   $0xfb79,-0x1986(%rbp)
    af99:	79 fb 
    af9b:	66 c7 85 7c e6 ff ff 	movw   $0xa155,-0x1984(%rbp)
    afa2:	55 a1 
    afa4:	66 c7 85 7e e6 ff ff 	movw   $0x1,-0x1982(%rbp)
    afab:	01 00 
    afad:	66 c7 85 80 e6 ff ff 	movw   $0xa155,-0x1980(%rbp)
    afb4:	55 a1 
    afb6:	66 c7 85 82 e6 ff ff 	movw   $0xa155,-0x197e(%rbp)
    afbd:	55 a1 
    afbf:	66 c7 85 84 e6 ff ff 	movw   $0x1,-0x197c(%rbp)
    afc6:	01 00 
    afc8:	66 c7 85 86 e6 ff ff 	movw   $0xa155,-0x197a(%rbp)
    afcf:	55 a1 
    afd1:	66 c7 85 88 e6 ff ff 	movw   $0xa155,-0x1978(%rbp)
    afd8:	55 a1 
    afda:	66 c7 85 8a e6 ff ff 	movw   $0xfb79,-0x1976(%rbp)
    afe1:	79 fb 
    afe3:	66 c7 85 8c e6 ff ff 	movw   $0x9397,-0x1974(%rbp)
    afea:	97 93 
    afec:	66 c7 85 8e e6 ff ff 	movw   $0xffff,-0x1972(%rbp)
    aff3:	ff ff 
    aff5:	66 c7 85 90 e6 ff ff 	movw   $0x9397,-0x1970(%rbp)
    affc:	97 93 
    affe:	66 c7 85 92 e6 ff ff 	movw   $0xfb79,-0x196e(%rbp)
    b005:	79 fb 
    b007:	66 c7 85 94 e6 ff ff 	movw   $0xfff6,-0x196c(%rbp)
    b00e:	f6 ff 
    b010:	66 c7 85 96 e6 ff ff 	movw   $0xfb79,-0x196a(%rbp)
    b017:	79 fb 
    b019:	66 c7 85 98 e6 ff ff 	movw   $0x1,-0x1968(%rbp)
    b020:	01 00 
    b022:	66 c7 85 9a e6 ff ff 	movw   $0xa155,-0x1966(%rbp)
    b029:	55 a1 
    b02b:	66 c7 85 9c e6 ff ff 	movw   $0xa155,-0x1964(%rbp)
    b032:	55 a1 
    b034:	66 c7 85 9e e6 ff ff 	movw   $0x1,-0x1962(%rbp)
    b03b:	01 00 
    b03d:	66 c7 85 a0 e6 ff ff 	movw   $0xa155,-0x1960(%rbp)
    b044:	55 a1 
    b046:	66 c7 85 a2 e6 ff ff 	movw   $0xa155,-0x195e(%rbp)
    b04d:	55 a1 
    b04f:	66 c7 85 a4 e6 ff ff 	movw   $0x1,-0x195c(%rbp)
    b056:	01 00 
    b058:	66 c7 85 a6 e6 ff ff 	movw   $0x5af0,-0x195a(%rbp)
    b05f:	f0 5a 
    b061:	66 c7 85 a8 e6 ff ff 	movw   $0x9397,-0x1958(%rbp)
    b068:	97 93 
    b06a:	66 c7 85 aa e6 ff ff 	movw   $0x5af0,-0x1956(%rbp)
    b071:	f0 5a 
    b073:	66 c7 85 ac e6 ff ff 	movw   $0x1,-0x1954(%rbp)
    b07a:	01 00 
    b07c:	66 c7 85 ae e6 ff ff 	movw   $0xfb79,-0x1952(%rbp)
    b083:	79 fb 
    b085:	66 c7 85 b0 e6 ff ff 	movw   $0x1,-0x1950(%rbp)
    b08c:	01 00 
    b08e:	66 c7 85 b2 e6 ff ff 	movw   $0x5af0,-0x194e(%rbp)
    b095:	f0 5a 
    b097:	66 c7 85 b4 e6 ff ff 	movw   $0x1,-0x194c(%rbp)
    b09e:	01 00 
    b0a0:	66 c7 85 b6 e6 ff ff 	movw   $0x1,-0x194a(%rbp)
    b0a7:	01 00 
    b0a9:	66 c7 85 b8 e6 ff ff 	movw   $0xfff7,-0x1948(%rbp)
    b0b0:	f7 ff 
    b0b2:	66 c7 85 ba e6 ff ff 	movw   $0x1,-0x1946(%rbp)
    b0b9:	01 00 
    b0bb:	66 c7 85 bc e6 ff ff 	movw   $0x1,-0x1944(%rbp)
    b0c2:	01 00 
    b0c4:	66 c7 85 be e6 ff ff 	movw   $0xfff7,-0x1942(%rbp)
    b0cb:	f7 ff 
    b0cd:	66 c7 85 c0 e6 ff ff 	movw   $0x1,-0x1940(%rbp)
    b0d4:	01 00 
    b0d6:	c7 85 dc e1 ff ff 41 	movl   $0xde9b3541,-0x1e24(%rbp)
    b0dd:	35 9b de 
    b0e0:	48 8d 05 4a ef 00 00 	lea    0xef4a(%rip),%rax        # 1a031 <g_44>
    b0e7:	48 89 85 88 e3 ff ff 	mov    %rax,-0x1c78(%rbp)
    b0ee:	48 8d 85 90 e4 ff ff 	lea    -0x1b70(%rbp),%rax
    b0f5:	48 89 85 90 e3 ff ff 	mov    %rax,-0x1c70(%rbp)
    b0fc:	48 8d 05 49 4e 01 00 	lea    0x14e49(%rip),%rax        # 1ff4c <g_1332+0x9cc>
    b103:	48 89 85 98 e3 ff ff 	mov    %rax,-0x1c68(%rbp)
    b10a:	48 8d 85 58 e2 ff ff 	lea    -0x1da8(%rbp),%rax
    b111:	48 89 85 80 ea ff ff 	mov    %rax,-0x1580(%rbp)
    b118:	48 8d 05 59 85 01 00 	lea    0x18559(%rip),%rax        # 23678 <g_115>
    b11f:	48 89 85 88 ea ff ff 	mov    %rax,-0x1578(%rbp)
    b126:	48 8d 85 58 e2 ff ff 	lea    -0x1da8(%rbp),%rax
    b12d:	48 89 85 90 ea ff ff 	mov    %rax,-0x1570(%rbp)
    b134:	48 8d 05 3d 85 01 00 	lea    0x1853d(%rip),%rax        # 23678 <g_115>
    b13b:	48 89 85 98 ea ff ff 	mov    %rax,-0x1568(%rbp)
    b142:	48 8d 05 2f 85 01 00 	lea    0x1852f(%rip),%rax        # 23678 <g_115>
    b149:	48 89 85 a0 ea ff ff 	mov    %rax,-0x1560(%rbp)
    b150:	48 8d 85 58 e2 ff ff 	lea    -0x1da8(%rbp),%rax
    b157:	48 89 85 a8 ea ff ff 	mov    %rax,-0x1558(%rbp)
    b15e:	48 8d 05 13 85 01 00 	lea    0x18513(%rip),%rax        # 23678 <g_115>
    b165:	48 89 85 b0 ea ff ff 	mov    %rax,-0x1550(%rbp)
    b16c:	48 8d 85 58 e2 ff ff 	lea    -0x1da8(%rbp),%rax
    b173:	48 89 85 b8 ea ff ff 	mov    %rax,-0x1548(%rbp)
    b17a:	48 8d 05 f7 84 01 00 	lea    0x184f7(%rip),%rax        # 23678 <g_115>
    b181:	48 89 85 c0 ea ff ff 	mov    %rax,-0x1540(%rbp)
    b188:	48 8d 05 e9 84 01 00 	lea    0x184e9(%rip),%rax        # 23678 <g_115>
    b18f:	48 89 85 c8 ea ff ff 	mov    %rax,-0x1538(%rbp)
    b196:	48 8d 85 58 e2 ff ff 	lea    -0x1da8(%rbp),%rax
    b19d:	48 89 85 d0 ea ff ff 	mov    %rax,-0x1530(%rbp)
    b1a4:	48 8d 05 cd 84 01 00 	lea    0x184cd(%rip),%rax        # 23678 <g_115>
    b1ab:	48 89 85 d8 ea ff ff 	mov    %rax,-0x1528(%rbp)
    b1b2:	48 8d 05 bf 84 01 00 	lea    0x184bf(%rip),%rax        # 23678 <g_115>
    b1b9:	48 89 85 e0 ea ff ff 	mov    %rax,-0x1520(%rbp)
    b1c0:	48 8d 05 b1 84 01 00 	lea    0x184b1(%rip),%rax        # 23678 <g_115>
    b1c7:	48 89 85 e8 ea ff ff 	mov    %rax,-0x1518(%rbp)
    b1ce:	48 8d 05 a3 84 01 00 	lea    0x184a3(%rip),%rax        # 23678 <g_115>
    b1d5:	48 89 85 f0 ea ff ff 	mov    %rax,-0x1510(%rbp)
    b1dc:	48 8d 85 58 e2 ff ff 	lea    -0x1da8(%rbp),%rax
    b1e3:	48 89 85 f8 ea ff ff 	mov    %rax,-0x1508(%rbp)
    b1ea:	48 8d 05 87 84 01 00 	lea    0x18487(%rip),%rax        # 23678 <g_115>
    b1f1:	48 89 85 00 eb ff ff 	mov    %rax,-0x1500(%rbp)
    b1f8:	48 8d 05 79 84 01 00 	lea    0x18479(%rip),%rax        # 23678 <g_115>
    b1ff:	48 89 85 08 eb ff ff 	mov    %rax,-0x14f8(%rbp)
    b206:	48 8d 05 6b 84 01 00 	lea    0x1846b(%rip),%rax        # 23678 <g_115>
    b20d:	48 89 85 10 eb ff ff 	mov    %rax,-0x14f0(%rbp)
    b214:	48 8d 85 58 e2 ff ff 	lea    -0x1da8(%rbp),%rax
    b21b:	48 89 85 18 eb ff ff 	mov    %rax,-0x14e8(%rbp)
    b222:	48 8d 05 4f 84 01 00 	lea    0x1844f(%rip),%rax        # 23678 <g_115>
    b229:	48 89 85 20 eb ff ff 	mov    %rax,-0x14e0(%rbp)
    b230:	48 8d 05 41 84 01 00 	lea    0x18441(%rip),%rax        # 23678 <g_115>
    b237:	48 89 85 28 eb ff ff 	mov    %rax,-0x14d8(%rbp)
    b23e:	48 8d 05 33 84 01 00 	lea    0x18433(%rip),%rax        # 23678 <g_115>
    b245:	48 89 85 30 eb ff ff 	mov    %rax,-0x14d0(%rbp)
    b24c:	48 8d 05 25 84 01 00 	lea    0x18425(%rip),%rax        # 23678 <g_115>
    b253:	48 89 85 38 eb ff ff 	mov    %rax,-0x14c8(%rbp)
    b25a:	48 8d 85 58 e2 ff ff 	lea    -0x1da8(%rbp),%rax
    b261:	48 89 85 40 eb ff ff 	mov    %rax,-0x14c0(%rbp)
    b268:	48 8d 05 09 84 01 00 	lea    0x18409(%rip),%rax        # 23678 <g_115>
    b26f:	48 89 85 48 eb ff ff 	mov    %rax,-0x14b8(%rbp)
    b276:	48 8d 05 fb 83 01 00 	lea    0x183fb(%rip),%rax        # 23678 <g_115>
    b27d:	48 89 85 50 eb ff ff 	mov    %rax,-0x14b0(%rbp)
    b284:	48 8d 85 58 e2 ff ff 	lea    -0x1da8(%rbp),%rax
    b28b:	48 89 85 58 eb ff ff 	mov    %rax,-0x14a8(%rbp)
    b292:	48 8d 05 df 83 01 00 	lea    0x183df(%rip),%rax        # 23678 <g_115>
    b299:	48 89 85 60 eb ff ff 	mov    %rax,-0x14a0(%rbp)
    b2a0:	48 8d 85 58 e2 ff ff 	lea    -0x1da8(%rbp),%rax
    b2a7:	48 89 85 68 eb ff ff 	mov    %rax,-0x1498(%rbp)
    b2ae:	48 8d 05 c3 83 01 00 	lea    0x183c3(%rip),%rax        # 23678 <g_115>
    b2b5:	48 89 85 70 eb ff ff 	mov    %rax,-0x1490(%rbp)
    b2bc:	48 8d 05 b5 83 01 00 	lea    0x183b5(%rip),%rax        # 23678 <g_115>
    b2c3:	48 89 85 78 eb ff ff 	mov    %rax,-0x1488(%rbp)
    b2ca:	48 8d 05 a7 83 01 00 	lea    0x183a7(%rip),%rax        # 23678 <g_115>
    b2d1:	48 89 85 80 eb ff ff 	mov    %rax,-0x1480(%rbp)
    b2d8:	48 8d 05 99 83 01 00 	lea    0x18399(%rip),%rax        # 23678 <g_115>
    b2df:	48 89 85 88 eb ff ff 	mov    %rax,-0x1478(%rbp)
    b2e6:	48 8d 85 58 e2 ff ff 	lea    -0x1da8(%rbp),%rax
    b2ed:	48 89 85 90 eb ff ff 	mov    %rax,-0x1470(%rbp)
    b2f4:	48 8d 85 58 e2 ff ff 	lea    -0x1da8(%rbp),%rax
    b2fb:	48 89 85 98 eb ff ff 	mov    %rax,-0x1468(%rbp)
    b302:	48 8d 05 6f 83 01 00 	lea    0x1836f(%rip),%rax        # 23678 <g_115>
    b309:	48 89 85 a0 eb ff ff 	mov    %rax,-0x1460(%rbp)
    b310:	48 8d 05 61 83 01 00 	lea    0x18361(%rip),%rax        # 23678 <g_115>
    b317:	48 89 85 a8 eb ff ff 	mov    %rax,-0x1458(%rbp)
    b31e:	48 8d 05 53 83 01 00 	lea    0x18353(%rip),%rax        # 23678 <g_115>
    b325:	48 89 85 b0 eb ff ff 	mov    %rax,-0x1450(%rbp)
    b32c:	48 8d 85 58 e2 ff ff 	lea    -0x1da8(%rbp),%rax
    b333:	48 89 85 b8 eb ff ff 	mov    %rax,-0x1448(%rbp)
    b33a:	48 8d 85 58 e2 ff ff 	lea    -0x1da8(%rbp),%rax
    b341:	48 89 85 c0 eb ff ff 	mov    %rax,-0x1440(%rbp)
    b348:	48 8d 05 29 83 01 00 	lea    0x18329(%rip),%rax        # 23678 <g_115>
    b34f:	48 89 85 c8 eb ff ff 	mov    %rax,-0x1438(%rbp)
    b356:	48 8d 85 58 e2 ff ff 	lea    -0x1da8(%rbp),%rax
    b35d:	48 89 85 d0 eb ff ff 	mov    %rax,-0x1430(%rbp)
    b364:	48 8d 05 0d 83 01 00 	lea    0x1830d(%rip),%rax        # 23678 <g_115>
    b36b:	48 89 85 d8 eb ff ff 	mov    %rax,-0x1428(%rbp)
    b372:	48 8d 05 ff 82 01 00 	lea    0x182ff(%rip),%rax        # 23678 <g_115>
    b379:	48 89 85 e0 eb ff ff 	mov    %rax,-0x1420(%rbp)
    b380:	48 8d 85 58 e2 ff ff 	lea    -0x1da8(%rbp),%rax
    b387:	48 89 85 e8 eb ff ff 	mov    %rax,-0x1418(%rbp)
    b38e:	48 8d 05 e3 82 01 00 	lea    0x182e3(%rip),%rax        # 23678 <g_115>
    b395:	48 89 85 f0 eb ff ff 	mov    %rax,-0x1410(%rbp)
    b39c:	48 8d 85 58 e2 ff ff 	lea    -0x1da8(%rbp),%rax
    b3a3:	48 89 85 f8 eb ff ff 	mov    %rax,-0x1408(%rbp)
    b3aa:	48 8d 05 c7 82 01 00 	lea    0x182c7(%rip),%rax        # 23678 <g_115>
    b3b1:	48 89 85 00 ec ff ff 	mov    %rax,-0x1400(%rbp)
    b3b8:	48 8d 85 58 e2 ff ff 	lea    -0x1da8(%rbp),%rax
    b3bf:	48 89 85 08 ec ff ff 	mov    %rax,-0x13f8(%rbp)
    b3c6:	48 8d 05 ab 82 01 00 	lea    0x182ab(%rip),%rax        # 23678 <g_115>
    b3cd:	48 89 85 10 ec ff ff 	mov    %rax,-0x13f0(%rbp)
    b3d4:	48 8d 85 58 e2 ff ff 	lea    -0x1da8(%rbp),%rax
    b3db:	48 89 85 18 ec ff ff 	mov    %rax,-0x13e8(%rbp)
    b3e2:	48 8d 05 8f 82 01 00 	lea    0x1828f(%rip),%rax        # 23678 <g_115>
    b3e9:	48 89 85 20 ec ff ff 	mov    %rax,-0x13e0(%rbp)
    b3f0:	48 8d 05 81 82 01 00 	lea    0x18281(%rip),%rax        # 23678 <g_115>
    b3f7:	48 89 85 28 ec ff ff 	mov    %rax,-0x13d8(%rbp)
    b3fe:	48 8d 85 58 e2 ff ff 	lea    -0x1da8(%rbp),%rax
    b405:	48 89 85 30 ec ff ff 	mov    %rax,-0x13d0(%rbp)
    b40c:	48 8d 05 65 82 01 00 	lea    0x18265(%rip),%rax        # 23678 <g_115>
    b413:	48 89 85 38 ec ff ff 	mov    %rax,-0x13c8(%rbp)
    b41a:	48 8d 05 57 82 01 00 	lea    0x18257(%rip),%rax        # 23678 <g_115>
    b421:	48 89 85 40 ec ff ff 	mov    %rax,-0x13c0(%rbp)
    b428:	48 8d 05 49 82 01 00 	lea    0x18249(%rip),%rax        # 23678 <g_115>
    b42f:	48 89 85 48 ec ff ff 	mov    %rax,-0x13b8(%rbp)
    b436:	48 8d 85 58 e2 ff ff 	lea    -0x1da8(%rbp),%rax
    b43d:	48 89 85 50 ec ff ff 	mov    %rax,-0x13b0(%rbp)
    b444:	48 8d 05 2d 82 01 00 	lea    0x1822d(%rip),%rax        # 23678 <g_115>
    b44b:	48 89 85 58 ec ff ff 	mov    %rax,-0x13a8(%rbp)
    b452:	48 8d 85 58 e2 ff ff 	lea    -0x1da8(%rbp),%rax
    b459:	48 89 85 60 ec ff ff 	mov    %rax,-0x13a0(%rbp)
    b460:	48 8d 05 11 82 01 00 	lea    0x18211(%rip),%rax        # 23678 <g_115>
    b467:	48 89 85 68 ec ff ff 	mov    %rax,-0x1398(%rbp)
    b46e:	48 8d 05 03 82 01 00 	lea    0x18203(%rip),%rax        # 23678 <g_115>
    b475:	48 89 85 70 ec ff ff 	mov    %rax,-0x1390(%rbp)
    b47c:	48 8d 85 58 e2 ff ff 	lea    -0x1da8(%rbp),%rax
    b483:	48 89 85 78 ec ff ff 	mov    %rax,-0x1388(%rbp)
    b48a:	48 8d 85 58 e2 ff ff 	lea    -0x1da8(%rbp),%rax
    b491:	48 89 85 80 ec ff ff 	mov    %rax,-0x1380(%rbp)
    b498:	48 8d 85 58 e2 ff ff 	lea    -0x1da8(%rbp),%rax
    b49f:	48 89 85 88 ec ff ff 	mov    %rax,-0x1378(%rbp)
    b4a6:	48 8d 85 58 e2 ff ff 	lea    -0x1da8(%rbp),%rax
    b4ad:	48 89 85 90 ec ff ff 	mov    %rax,-0x1370(%rbp)
    b4b4:	48 8d 85 58 e2 ff ff 	lea    -0x1da8(%rbp),%rax
    b4bb:	48 89 85 98 ec ff ff 	mov    %rax,-0x1368(%rbp)
    b4c2:	48 8d 05 af 81 01 00 	lea    0x181af(%rip),%rax        # 23678 <g_115>
    b4c9:	48 89 85 a0 ec ff ff 	mov    %rax,-0x1360(%rbp)
    b4d0:	48 8d 85 58 e2 ff ff 	lea    -0x1da8(%rbp),%rax
    b4d7:	48 89 85 a8 ec ff ff 	mov    %rax,-0x1358(%rbp)
    b4de:	48 8d 85 58 e2 ff ff 	lea    -0x1da8(%rbp),%rax
    b4e5:	48 89 85 b0 ec ff ff 	mov    %rax,-0x1350(%rbp)
    b4ec:	48 8d 85 58 e2 ff ff 	lea    -0x1da8(%rbp),%rax
    b4f3:	48 89 85 b8 ec ff ff 	mov    %rax,-0x1348(%rbp)
    b4fa:	48 8d 05 ef ed 00 00 	lea    0xedef(%rip),%rax        # 1a2f0 <g_464>
    b501:	48 89 85 90 e2 ff ff 	mov    %rax,-0x1d70(%rbp)
    b508:	48 c7 85 a0 e3 ff ff 	movq   $0x0,-0x1c60(%rbp)
    b50f:	00 00 00 00 
    b513:	48 c7 85 98 e2 ff ff 	movq   $0x0,-0x1d68(%rbp)
    b51a:	00 00 00 00 
    b51e:	48 8d 85 98 e2 ff ff 	lea    -0x1d68(%rbp),%rax
    b525:	48 89 85 a8 e3 ff ff 	mov    %rax,-0x1c58(%rbp)
    b52c:	48 8d 85 78 e2 ff ff 	lea    -0x1d88(%rbp),%rax
    b533:	48 89 85 b0 e3 ff ff 	mov    %rax,-0x1c50(%rbp)
    b53a:	66 c7 85 7e e1 ff ff 	movw   $0x0,-0x1e82(%rbp)
    b541:	00 00 
    b543:	48 c7 05 07 40 01 00 	movq   $0x0,0x14007(%rip)        # 1f555 <g_1281+0x5>
    b54a:	00 00 00 00 
    b54e:	e9 dd 0b 00 00       	jmpq   c130 <func_31+0x1fbe>
    b553:	66 c7 45 c1 01 01    	movw   $0x101,-0x3f(%rbp)
    b559:	48 8d 05 c0 84 01 00 	lea    0x184c0(%rip),%rax        # 23a20 <g_996>
    b560:	48 89 85 28 e4 ff ff 	mov    %rax,-0x1bd8(%rbp)
    b567:	48 8d 85 90 e1 ff ff 	lea    -0x1e70(%rbp),%rax
    b56e:	48 89 85 30 e4 ff ff 	mov    %rax,-0x1bd0(%rbp)
    b575:	48 c7 85 38 e4 ff ff 	movq   $0x0,-0x1bc8(%rbp)
    b57c:	00 00 00 00 
    b580:	c7 85 34 e2 ff ff 4c 	movl   $0xf181244c,-0x1dcc(%rbp)
    b587:	24 81 f1 
    b58a:	48 8d 05 6f 4f 01 00 	lea    0x14f6f(%rip),%rax        # 20500 <g_1333>
    b591:	48 89 85 70 e5 ff ff 	mov    %rax,-0x1a90(%rbp)
    b598:	48 8d 05 8d ec 00 00 	lea    0xec8d(%rip),%rax        # 1a22c <g_283+0x2c>
    b59f:	48 89 85 78 e5 ff ff 	mov    %rax,-0x1a88(%rbp)
    b5a6:	48 8d 05 53 4f 01 00 	lea    0x14f53(%rip),%rax        # 20500 <g_1333>
    b5ad:	48 89 85 80 e5 ff ff 	mov    %rax,-0x1a80(%rbp)
    b5b4:	48 8d 05 71 ec 00 00 	lea    0xec71(%rip),%rax        # 1a22c <g_283+0x2c>
    b5bb:	48 89 85 88 e5 ff ff 	mov    %rax,-0x1a78(%rbp)
    b5c2:	48 8d 05 37 4f 01 00 	lea    0x14f37(%rip),%rax        # 20500 <g_1333>
    b5c9:	48 89 85 90 e5 ff ff 	mov    %rax,-0x1a70(%rbp)
    b5d0:	48 8d 05 55 ec 00 00 	lea    0xec55(%rip),%rax        # 1a22c <g_283+0x2c>
    b5d7:	48 89 85 98 e5 ff ff 	mov    %rax,-0x1a68(%rbp)
    b5de:	48 8d 05 1b 4f 01 00 	lea    0x14f1b(%rip),%rax        # 20500 <g_1333>
    b5e5:	48 89 85 a0 e5 ff ff 	mov    %rax,-0x1a60(%rbp)
    b5ec:	48 8d 05 39 ec 00 00 	lea    0xec39(%rip),%rax        # 1a22c <g_283+0x2c>
    b5f3:	48 89 85 a8 e5 ff ff 	mov    %rax,-0x1a58(%rbp)
    b5fa:	c7 85 e0 e1 ff ff 00 	movl   $0x0,-0x1e20(%rbp)
    b601:	00 00 00 
    b604:	eb 58                	jmp    b65e <func_31+0x14ec>
    b606:	c7 85 e4 e1 ff ff 00 	movl   $0x0,-0x1e1c(%rbp)
    b60d:	00 00 00 
    b610:	eb 3c                	jmp    b64e <func_31+0x14dc>
    b612:	8b 85 e4 e1 ff ff    	mov    -0x1e1c(%rbp),%eax
    b618:	48 63 c8             	movslq %eax,%rcx
    b61b:	8b 85 e0 e1 ff ff    	mov    -0x1e20(%rbp),%eax
    b621:	48 63 d0             	movslq %eax,%rdx
    b624:	48 89 d0             	mov    %rdx,%rax
    b627:	48 c1 e0 02          	shl    $0x2,%rax
    b62b:	48 01 d0             	add    %rdx,%rax
    b62e:	48 01 c0             	add    %rax,%rax
    b631:	48 01 c8             	add    %rcx,%rax
    b634:	48 8d 95 00 e6 ff ff 	lea    -0x1a00(%rbp),%rdx
    b63b:	48 83 c2 10          	add    $0x10,%rdx
    b63f:	48 89 94 c5 b0 e5 ff 	mov    %rdx,-0x1a50(%rbp,%rax,8)
    b646:	ff 
    b647:	83 85 e4 e1 ff ff 01 	addl   $0x1,-0x1e1c(%rbp)
    b64e:	83 bd e4 e1 ff ff 09 	cmpl   $0x9,-0x1e1c(%rbp)
    b655:	7e bb                	jle    b612 <func_31+0x14a0>
    b657:	83 85 e0 e1 ff ff 01 	addl   $0x1,-0x1e20(%rbp)
    b65e:	83 bd e0 e1 ff ff 00 	cmpl   $0x0,-0x1e20(%rbp)
    b665:	7e 9f                	jle    b606 <func_31+0x1494>
    b667:	48 8b 85 58 e1 ff ff 	mov    -0x1ea8(%rbp),%rax
    b66e:	48 85 c0             	test   %rax,%rax
    b671:	0f 95 c0             	setne  %al
    b674:	0f b6 c0             	movzbl %al,%eax
    b677:	89 85 34 e2 ff ff    	mov    %eax,-0x1dcc(%rbp)
    b67d:	66 c7 85 68 e1 ff ff 	movw   $0x2,-0x1e98(%rbp)
    b684:	02 00 
    b686:	e9 1e 03 00 00       	jmpq   b9a9 <func_31+0x1837>
    b68b:	48 8d 05 c6 e9 00 00 	lea    0xe9c6(%rip),%rax        # 1a058 <g_97>
    b692:	48 89 85 40 e4 ff ff 	mov    %rax,-0x1bc0(%rbp)
    b699:	48 c7 85 a8 e2 ff ff 	movq   $0x0,-0x1d58(%rbp)
    b6a0:	00 00 00 00 
    b6a4:	48 c7 85 48 e4 ff ff 	movq   $0x0,-0x1bb8(%rbp)
    b6ab:	00 00 00 00 
    b6af:	48 c7 85 50 e4 ff ff 	movq   $0x0,-0x1bb0(%rbp)
    b6b6:	00 00 00 00 
    b6ba:	48 8d 05 df eb 00 00 	lea    0xebdf(%rip),%rax        # 1a2a0 <g_294+0x10>
    b6c1:	48 89 85 58 e4 ff ff 	mov    %rax,-0x1ba8(%rbp)
    b6c8:	48 8d 85 d0 e6 ff ff 	lea    -0x1930(%rbp),%rax
    b6cf:	48 83 c0 10          	add    $0x10,%rax
    b6d3:	48 89 85 60 e4 ff ff 	mov    %rax,-0x1ba0(%rbp)
    b6da:	48 8d 85 88 e2 ff ff 	lea    -0x1d78(%rbp),%rax
    b6e1:	48 89 85 68 e4 ff ff 	mov    %rax,-0x1b98(%rbp)
    b6e8:	c7 85 e8 e1 ff ff 00 	movl   $0x0,-0x1e18(%rbp)
    b6ef:	00 00 00 
    b6f2:	eb 1e                	jmp    b712 <func_31+0x15a0>
    b6f4:	8b 85 e8 e1 ff ff    	mov    -0x1e18(%rbp),%eax
    b6fa:	48 98                	cltq   
    b6fc:	48 8d 95 80 e2 ff ff 	lea    -0x1d80(%rbp),%rdx
    b703:	48 89 94 c5 d0 e6 ff 	mov    %rdx,-0x1930(%rbp,%rax,8)
    b70a:	ff 
    b70b:	83 85 e8 e1 ff ff 01 	addl   $0x1,-0x1e18(%rbp)
    b712:	83 bd e8 e1 ff ff 07 	cmpl   $0x7,-0x1e18(%rbp)
    b719:	7e d9                	jle    b6f4 <func_31+0x1582>
    b71b:	48 83 bd 10 e3 ff ff 	cmpq   $0x0,-0x1cf0(%rbp)
    b722:	00 
    b723:	0f 95 c0             	setne  %al
    b726:	44 0f b6 e0          	movzbl %al,%r12d
    b72a:	0f b7 85 68 e1 ff ff 	movzwl -0x1e98(%rbp),%eax
    b731:	0f bf d8             	movswl %ax,%ebx
    b734:	83 bd c0 e1 ff ff 00 	cmpl   $0x0,-0x1e40(%rbp)
    b73b:	0f 84 a6 00 00 00    	je     b7e7 <func_31+0x1675>
    b741:	48 8b 95 d0 e6 ff ff 	mov    -0x1930(%rbp),%rdx
    b748:	48 8b 85 60 e4 ff ff 	mov    -0x1ba0(%rbp),%rax
    b74f:	48 89 10             	mov    %rdx,(%rax)
    b752:	48 8b 85 68 e4 ff ff 	mov    -0x1b98(%rbp),%rax
    b759:	48 c7 00 00 00 00 00 	movq   $0x0,(%rax)
    b760:	c7 85 dc e1 ff ff b0 	movl   $0x2de180b0,-0x1e24(%rbp)
    b767:	80 e1 2d 
    b76a:	48 8b 85 40 e4 ff ff 	mov    -0x1bc0(%rbp),%rax
    b771:	8b 95 dc e1 ff ff    	mov    -0x1e24(%rbp),%edx
    b777:	89 10                	mov    %edx,(%rax)
    b779:	48 8b 85 40 e4 ff ff 	mov    -0x1bc0(%rbp),%rax
    b780:	8b 10                	mov    (%rax),%edx
    b782:	48 8b 85 58 e4 ff ff 	mov    -0x1ba8(%rbp),%rax
    b789:	8b 00                	mov    (%rax),%eax
    b78b:	31 c2                	xor    %eax,%edx
    b78d:	48 8b 85 58 e4 ff ff 	mov    -0x1ba8(%rbp),%rax
    b794:	89 10                	mov    %edx,(%rax)
    b796:	48 8b 85 58 e4 ff ff 	mov    -0x1ba8(%rbp),%rax
    b79d:	8b 00                	mov    (%rax),%eax
    b79f:	85 c0                	test   %eax,%eax
    b7a1:	0f 95 c0             	setne  %al
    b7a4:	0f b6 d0             	movzbl %al,%edx
    b7a7:	48 8b 85 50 e1 ff ff 	mov    -0x1eb0(%rbp),%rax
    b7ae:	48 8b 00             	mov    (%rax),%rax
    b7b1:	48 89 d6             	mov    %rdx,%rsi
    b7b4:	48 89 c7             	mov    %rax,%rdi
    b7b7:	e8 c4 c8 ff ff       	callq  8080 <safe_mod_func_uint64_t_u_u>
    b7bc:	89 85 b0 e1 ff ff    	mov    %eax,-0x1e50(%rbp)
    b7c2:	8b 85 b0 e1 ff ff    	mov    -0x1e50(%rbp),%eax
    b7c8:	48 98                	cltq   
    b7ca:	be 01 00 00 00       	mov    $0x1,%esi
    b7cf:	48 89 c7             	mov    %rax,%rdi
    b7d2:	e8 d1 c0 ff ff       	callq  78a8 <safe_sub_func_int64_t_s_s>
    b7d7:	48 85 c0             	test   %rax,%rax
    b7da:	74 0b                	je     b7e7 <func_31+0x1675>
    b7dc:	0f b7 85 68 e1 ff ff 	movzwl -0x1e98(%rbp),%eax
    b7e3:	66 85 c0             	test   %ax,%ax
    b7e6:	90                   	nop
    b7e7:	48 8b 05 12 82 01 00 	mov    0x18212(%rip),%rax        # 23a00 <g_728>
    b7ee:	48 8b 00             	mov    (%rax),%rax
    b7f1:	48 8b 10             	mov    (%rax),%rdx
    b7f4:	48 8b 85 38 e2 ff ff 	mov    -0x1dc8(%rbp),%rax
    b7fb:	48 8b 00             	mov    (%rax),%rax
    b7fe:	48 8b 00             	mov    (%rax),%rax
    b801:	0f b6 12             	movzbl (%rdx),%edx
    b804:	88 10                	mov    %dl,(%rax)
    b806:	0f b6 00             	movzbl (%rax),%eax
    b809:	0f b6 c0             	movzbl %al,%eax
    b80c:	89 85 8c e1 ff ff    	mov    %eax,-0x1e74(%rbp)
    b812:	8b 85 8c e1 ff ff    	mov    -0x1e74(%rbp),%eax
    b818:	0f b6 c0             	movzbl %al,%eax
    b81b:	89 de                	mov    %ebx,%esi
    b81d:	89 c7                	mov    %eax,%edi
    b81f:	e8 28 c4 ff ff       	callq  7c4c <safe_lshift_func_uint8_t_u_u>
    b824:	0f b6 c0             	movzbl %al,%eax
    b827:	44 09 e0             	or     %r12d,%eax
    b82a:	85 c0                	test   %eax,%eax
    b82c:	74 2e                	je     b85c <func_31+0x16ea>
    b82e:	48 8d 85 a8 e2 ff ff 	lea    -0x1d58(%rbp),%rax
    b835:	48 89 85 80 e4 ff ff 	mov    %rax,-0x1b80(%rbp)
    b83c:	8b 85 6c e1 ff ff    	mov    -0x1e94(%rbp),%eax
    b842:	85 c0                	test   %eax,%eax
    b844:	0f 85 71 01 00 00    	jne    b9bb <func_31+0x1849>
    b84a:	48 8b 85 30 e3 ff ff 	mov    -0x1cd0(%rbp),%rax
    b851:	48 8b 00             	mov    (%rax),%rax
    b854:	48 8b 00             	mov    (%rax),%rax
    b857:	e9 df 1c 00 00       	jmpq   d53b <func_31+0x33c9>
    b85c:	48 8d 05 bd 81 01 00 	lea    0x181bd(%rip),%rax        # 23a20 <g_996>
    b863:	48 89 85 70 e4 ff ff 	mov    %rax,-0x1b90(%rbp)
    b86a:	48 8d 05 99 3c 01 00 	lea    0x13c99(%rip),%rax        # 1f50a <g_1243+0x2>
    b871:	48 89 85 78 e4 ff ff 	mov    %rax,-0x1b88(%rbp)
    b878:	48 8b 85 70 e4 ff ff 	mov    -0x1b90(%rbp),%rax
    b87f:	48 8b 95 90 e3 ff ff 	mov    -0x1c70(%rbp),%rdx
    b886:	48 89 10             	mov    %rdx,(%rax)
    b889:	0f b7 85 68 e1 ff ff 	movzwl -0x1e98(%rbp),%eax
    b890:	66 85 c0             	test   %ax,%ax
    b893:	0f 85 fe 00 00 00    	jne    b997 <func_31+0x1825>
    b899:	48 8b 85 50 e1 ff ff 	mov    -0x1eb0(%rbp),%rax
    b8a0:	48 8b 10             	mov    (%rax),%rdx
    b8a3:	0f b7 85 6e e6 ff ff 	movzwl -0x1992(%rbp),%eax
    b8aa:	0f b7 c0             	movzwl %ax,%eax
    b8ad:	48 89 d6             	mov    %rdx,%rsi
    b8b0:	48 89 c7             	mov    %rax,%rdi
    b8b3:	e8 c8 c7 ff ff       	callq  8080 <safe_mod_func_uint64_t_u_u>
    b8b8:	48 89 c2             	mov    %rax,%rdx
    b8bb:	48 8b 05 0e 82 01 00 	mov    0x1820e(%rip),%rax        # 23ad0 <g_1226>
    b8c2:	48 8b 00             	mov    (%rax),%rax
    b8c5:	48 8b 08             	mov    (%rax),%rcx
    b8c8:	48 8b 05 f1 81 01 00 	mov    0x181f1(%rip),%rax        # 23ac0 <g_1116>
    b8cf:	48 8b 09             	mov    (%rcx),%rcx
    b8d2:	48 89 08             	mov    %rcx,(%rax)
    b8d5:	48 8b 08             	mov    (%rax),%rcx
    b8d8:	48 8d 85 58 e1 ff ff 	lea    -0x1ea8(%rbp),%rax
    b8df:	48 39 c1             	cmp    %rax,%rcx
    b8e2:	0f 95 c0             	setne  %al
    b8e5:	0f b6 c0             	movzbl %al,%eax
    b8e8:	48 39 c2             	cmp    %rax,%rdx
    b8eb:	0f 96 c0             	setbe  %al
    b8ee:	0f b6 d0             	movzbl %al,%edx
    b8f1:	48 8b 85 78 e4 ff ff 	mov    -0x1b88(%rbp),%rax
    b8f8:	0f b7 00             	movzwl (%rax),%eax
    b8fb:	89 c1                	mov    %eax,%ecx
    b8fd:	89 d0                	mov    %edx,%eax
    b8ff:	09 c8                	or     %ecx,%eax
    b901:	89 c2                	mov    %eax,%edx
    b903:	48 8b 85 78 e4 ff ff 	mov    -0x1b88(%rbp),%rax
    b90a:	66 89 10             	mov    %dx,(%rax)
    b90d:	48 8b 85 78 e4 ff ff 	mov    -0x1b88(%rbp),%rax
    b914:	0f b7 00             	movzwl (%rax),%eax
    b917:	0f b7 d0             	movzwl %ax,%edx
    b91a:	48 8b 85 38 e3 ff ff 	mov    -0x1cc8(%rbp),%rax
    b921:	48 8b 00             	mov    (%rax),%rax
    b924:	0f b7 08             	movzwl (%rax),%ecx
    b927:	83 c1 01             	add    $0x1,%ecx
    b92a:	66 89 08             	mov    %cx,(%rax)
    b92d:	0f b7 00             	movzwl (%rax),%eax
    b930:	0f b7 c0             	movzwl %ax,%eax
    b933:	89 d6                	mov    %edx,%esi
    b935:	89 c7                	mov    %eax,%edi
    b937:	e8 3e c5 ff ff       	callq  7e7a <safe_rshift_func_uint16_t_u_u>
    b93c:	0f b7 c0             	movzwl %ax,%eax
    b93f:	48 89 c6             	mov    %rax,%rsi
    b942:	48 c7 c7 ff ff ff ff 	mov    $0xffffffffffffffff,%rdi
    b949:	e8 fd c6 ff ff       	callq  804b <safe_sub_func_uint64_t_u_u>
    b94e:	89 c2                	mov    %eax,%edx
    b950:	8b 85 6c e1 ff ff    	mov    -0x1e94(%rbp),%eax
    b956:	31 d0                	xor    %edx,%eax
    b958:	89 85 6c e1 ff ff    	mov    %eax,-0x1e94(%rbp)
    b95e:	c7 05 5c 59 01 00 00 	movl   $0x0,0x1595c(%rip)        # 212c4 <g_1853+0x24>
    b965:	00 00 00 
    b968:	eb 20                	jmp    b98a <func_31+0x1818>
    b96a:	48 8b 05 07 5b 01 00 	mov    0x15b07(%rip),%rax        # 21478 <g_1990+0x18>
    b971:	48 85 c0             	test   %rax,%rax
    b974:	74 05                	je     b97b <func_31+0x1809>
    b976:	e9 45 ea ff ff       	jmpq   a3c0 <func_31+0x24e>
    b97b:	8b 05 43 59 01 00    	mov    0x15943(%rip),%eax        # 212c4 <g_1853+0x24>
    b981:	83 c0 01             	add    $0x1,%eax
    b984:	89 05 3a 59 01 00    	mov    %eax,0x1593a(%rip)        # 212c4 <g_1853+0x24>
    b98a:	8b 05 34 59 01 00    	mov    0x15934(%rip),%eax        # 212c4 <g_1853+0x24>
    b990:	83 f8 05             	cmp    $0x5,%eax
    b993:	76 d5                	jbe    b96a <func_31+0x17f8>
    b995:	eb 01                	jmp    b998 <func_31+0x1826>
    b997:	90                   	nop
    b998:	0f b7 85 68 e1 ff ff 	movzwl -0x1e98(%rbp),%eax
    b99f:	83 e8 01             	sub    $0x1,%eax
    b9a2:	66 89 85 68 e1 ff ff 	mov    %ax,-0x1e98(%rbp)
    b9a9:	0f b7 85 68 e1 ff ff 	movzwl -0x1e98(%rbp),%eax
    b9b0:	66 85 c0             	test   %ax,%ax
    b9b3:	0f 89 d2 fc ff ff    	jns    b68b <func_31+0x1519>
    b9b9:	eb 01                	jmp    b9bc <func_31+0x184a>
    b9bb:	90                   	nop
    b9bc:	c7 85 94 e1 ff ff 00 	movl   $0x0,-0x1e6c(%rbp)
    b9c3:	00 00 00 
    b9c6:	83 bd 94 e1 ff ff 00 	cmpl   $0x0,-0x1e6c(%rbp)
    b9cd:	0f 85 4b 07 00 00    	jne    c11e <func_31+0x1fac>
    b9d3:	c7 85 f0 e4 ff ff 14 	movl   $0x604b1c14,-0x1b10(%rbp)
    b9da:	1c 4b 60 
    b9dd:	c7 85 f4 e4 ff ff 56 	movl   $0x4a55b056,-0x1b0c(%rbp)
    b9e4:	b0 55 4a 
    b9e7:	c7 85 f8 e4 ff ff 14 	movl   $0x604b1c14,-0x1b08(%rbp)
    b9ee:	1c 4b 60 
    b9f1:	c7 85 fc e4 ff ff 14 	movl   $0x604b1c14,-0x1b04(%rbp)
    b9f8:	1c 4b 60 
    b9fb:	c7 85 00 e5 ff ff 56 	movl   $0x4a55b056,-0x1b00(%rbp)
    ba02:	b0 55 4a 
    ba05:	c7 85 04 e5 ff ff 14 	movl   $0x604b1c14,-0x1afc(%rbp)
    ba0c:	1c 4b 60 
    ba0f:	c7 85 08 e5 ff ff 14 	movl   $0x604b1c14,-0x1af8(%rbp)
    ba16:	1c 4b 60 
    ba19:	c7 85 0c e5 ff ff 56 	movl   $0x4a55b056,-0x1af4(%rbp)
    ba20:	b0 55 4a 
    ba23:	48 8d 05 9e 8e 01 00 	lea    0x18e9e(%rip),%rax        # 248c8 <g_1473>
    ba2a:	48 89 85 a0 e2 ff ff 	mov    %rax,-0x1d60(%rbp)
    ba31:	48 8d 85 a0 e2 ff ff 	lea    -0x1d60(%rbp),%rax
    ba38:	48 89 85 a8 e2 ff ff 	mov    %rax,-0x1d58(%rbp)
    ba3f:	48 8d 85 a8 e2 ff ff 	lea    -0x1d58(%rbp),%rax
    ba46:	48 89 85 88 e4 ff ff 	mov    %rax,-0x1b78(%rbp)
    ba4d:	8b 85 b4 e1 ff ff    	mov    -0x1e4c(%rbp),%eax
    ba53:	0f be d0             	movsbl %al,%edx
    ba56:	0f b7 85 92 e6 ff ff 	movzwl -0x196e(%rbp),%eax
    ba5d:	0f be c0             	movsbl %al,%eax
    ba60:	89 d6                	mov    %edx,%esi
    ba62:	89 c7                	mov    %eax,%edi
    ba64:	e8 a9 b7 ff ff       	callq  7212 <safe_mul_func_int8_t_s_s>
    ba69:	44 0f be e0          	movsbl %al,%r12d
    ba6d:	8b 85 6c e1 ff ff    	mov    -0x1e94(%rbp),%eax
    ba73:	89 c3                	mov    %eax,%ebx
    ba75:	0f b6 05 d4 5a 01 00 	movzbl 0x15ad4(%rip),%eax        # 21550 <g_2160>
    ba7c:	48 0f be d0          	movsbq %al,%rdx
    ba80:	48 8b 85 58 e1 ff ff 	mov    -0x1ea8(%rbp),%rax
    ba87:	48 3d e6 00 00 00    	cmp    $0xe6,%rax
    ba8d:	7f 2d                	jg     babc <func_31+0x194a>
    ba8f:	48 8b 8d 58 e1 ff ff 	mov    -0x1ea8(%rbp),%rcx
    ba96:	48 8b 85 38 e2 ff ff 	mov    -0x1dc8(%rbp),%rax
    ba9d:	48 8b 00             	mov    (%rax),%rax
    baa0:	48 8b 00             	mov    (%rax),%rax
    baa3:	88 08                	mov    %cl,(%rax)
    baa5:	48 8b 05 34 7f 01 00 	mov    0x17f34(%rip),%rax        # 239e0 <g_586>
    baac:	0f b7 00             	movzwl (%rax),%eax
    baaf:	0f b7 c8             	movzwl %ax,%ecx
    bab2:	8b 85 6c e1 ff ff    	mov    -0x1e94(%rbp),%eax
    bab8:	39 c1                	cmp    %eax,%ecx
    baba:	74 07                	je     bac3 <func_31+0x1951>
    babc:	b8 01 00 00 00       	mov    $0x1,%eax
    bac1:	eb 05                	jmp    bac8 <func_31+0x1956>
    bac3:	b8 00 00 00 00       	mov    $0x0,%eax
    bac8:	48 63 c8             	movslq %eax,%rcx
    bacb:	48 8b 85 50 e1 ff ff 	mov    -0x1eb0(%rbp),%rax
    bad2:	48 89 08             	mov    %rcx,(%rax)
    bad5:	48 8b 85 50 e1 ff ff 	mov    -0x1eb0(%rbp),%rax
    badc:	48 8b 08             	mov    (%rax),%rcx
    badf:	8b 85 dc e1 ff ff    	mov    -0x1e24(%rbp),%eax
    bae5:	48 98                	cltq   
    bae7:	48 31 c8             	xor    %rcx,%rax
    baea:	48 3d fc 00 00 00    	cmp    $0xfc,%rax
    baf0:	0f 96 c0             	setbe  %al
    baf3:	0f b6 c0             	movzbl %al,%eax
    baf6:	48 89 d6             	mov    %rdx,%rsi
    baf9:	48 89 c7             	mov    %rax,%rdi
    bafc:	e8 ae c5 ff ff       	callq  80af <safe_div_func_uint64_t_u_u>
    bb01:	98                   	cwtl   
    bb02:	be 0f 00 00 00       	mov    $0xf,%esi
    bb07:	89 c7                	mov    %eax,%edi
    bb09:	e8 1c ba ff ff       	callq  752a <safe_rshift_func_int16_t_s_s>
    bb0e:	0f be c0             	movsbl %al,%eax
    bb11:	89 de                	mov    %ebx,%esi
    bb13:	89 c7                	mov    %eax,%edi
    bb15:	e8 52 b8 ff ff       	callq  736c <safe_rshift_func_int8_t_s_u>
    bb1a:	8b 85 6c e1 ff ff    	mov    -0x1e94(%rbp),%eax
    bb20:	be fd ff ff ff       	mov    $0xfffffffd,%esi
    bb25:	89 c7                	mov    %eax,%edi
    bb27:	e8 f9 c3 ff ff       	callq  7f25 <safe_div_func_uint32_t_u_u>
    bb2c:	89 c1                	mov    %eax,%ecx
    bb2e:	0f b7 85 68 e1 ff ff 	movzwl -0x1e98(%rbp),%eax
    bb35:	66 25 97 77          	and    $0x7797,%ax
    bb39:	66 89 85 68 e1 ff ff 	mov    %ax,-0x1e98(%rbp)
    bb40:	0f b7 85 68 e1 ff ff 	movzwl -0x1e98(%rbp),%eax
    bb47:	98                   	cwtl   
    bb48:	48 8b 95 78 e2 ff ff 	mov    -0x1d88(%rbp),%rdx
    bb4f:	48 8b 1a             	mov    (%rdx),%rbx
    bb52:	89 ce                	mov    %ecx,%esi
    bb54:	89 c7                	mov    %eax,%edi
    bb56:	e8 37 b9 ff ff       	callq  7492 <safe_lshift_func_int16_t_s_s>
    bb5b:	66 89 03             	mov    %ax,(%rbx)
    bb5e:	0f b7 13             	movzwl (%rbx),%edx
    bb61:	0f b7 05 98 57 01 00 	movzwl 0x15798(%rip),%eax        # 21300 <g_1854+0x20>
    bb68:	c1 e0 06             	shl    $0x6,%eax
    bb6b:	66 c1 f8 06          	sar    $0x6,%ax
    bb6f:	66 39 c2             	cmp    %ax,%dx
    bb72:	0f 95 c0             	setne  %al
    bb75:	0f b6 c0             	movzbl %al,%eax
    bb78:	89 85 d8 e1 ff ff    	mov    %eax,-0x1e28(%rbp)
    bb7e:	8b 85 d8 e1 ff ff    	mov    -0x1e28(%rbp),%eax
    bb84:	0f bf d0             	movswl %ax,%edx
    bb87:	8b 85 f0 e4 ff ff    	mov    -0x1b10(%rbp),%eax
    bb8d:	98                   	cwtl   
    bb8e:	89 d6                	mov    %edx,%esi
    bb90:	89 c7                	mov    %eax,%edi
    bb92:	e8 1c b8 ff ff       	callq  73b3 <safe_add_func_int16_t_s_s>
    bb97:	0f b7 c0             	movzwl %ax,%eax
    bb9a:	8b 95 dc e1 ff ff    	mov    -0x1e24(%rbp),%edx
    bba0:	89 d6                	mov    %edx,%esi
    bba2:	89 c7                	mov    %eax,%edi
    bba4:	e8 15 c2 ff ff       	callq  7dbe <safe_lshift_func_uint16_t_u_s>
    bba9:	0f b7 c0             	movzwl %ax,%eax
    bbac:	89 85 f8 e4 ff ff    	mov    %eax,-0x1b08(%rbp)
    bbb2:	8b 85 f8 e4 ff ff    	mov    -0x1b08(%rbp),%eax
    bbb8:	44 09 e0             	or     %r12d,%eax
    bbbb:	85 c0                	test   %eax,%eax
    bbbd:	0f 84 88 00 00 00    	je     bc4b <func_31+0x1ad9>
    bbc3:	8b 85 6c e1 ff ff    	mov    -0x1e94(%rbp),%eax
    bbc9:	85 c0                	test   %eax,%eax
    bbcb:	74 7e                	je     bc4b <func_31+0x1ad9>
    bbcd:	48 8b 05 cc 86 01 00 	mov    0x186cc(%rip),%rax        # 242a0 <g_2167>
    bbd4:	48 39 85 88 e4 ff ff 	cmp    %rax,-0x1b78(%rbp)
    bbdb:	0f 95 c0             	setne  %al
    bbde:	0f b6 d0             	movzbl %al,%edx
    bbe1:	48 8b 85 d8 e5 ff ff 	mov    -0x1a28(%rbp),%rax
    bbe8:	48 85 c0             	test   %rax,%rax
    bbeb:	0f 94 c0             	sete   %al
    bbee:	0f b6 c0             	movzbl %al,%eax
    bbf1:	48 89 d6             	mov    %rdx,%rsi
    bbf4:	48 89 c7             	mov    %rax,%rdi
    bbf7:	e8 32 c4 ff ff       	callq  802e <safe_add_func_uint64_t_u_u>
    bbfc:	ba f7 ff ff ff       	mov    $0xfffffff7,%edx
    bc01:	48 39 d0             	cmp    %rdx,%rax
    bc04:	0f 97 c0             	seta   %al
    bc07:	0f b6 d0             	movzbl %al,%edx
    bc0a:	8b 85 6c e1 ff ff    	mov    -0x1e94(%rbp),%eax
    bc10:	09 d0                	or     %edx,%eax
    bc12:	89 85 6c e1 ff ff    	mov    %eax,-0x1e94(%rbp)
    bc18:	48 8b 05 f1 7d 01 00 	mov    0x17df1(%rip),%rax        # 23a10 <g_926>
    bc1f:	48 8b 00             	mov    (%rax),%rax
    bc22:	48 8b 95 58 e2 ff ff 	mov    -0x1da8(%rbp),%rdx
    bc29:	48 89 10             	mov    %rdx,(%rax)
    bc2c:	0f b7 85 68 e1 ff ff 	movzwl -0x1e98(%rbp),%eax
    bc33:	66 85 c0             	test   %ax,%ax
    bc36:	0f 85 e1 04 00 00    	jne    c11d <func_31+0x1fab>
    bc3c:	48 8b 05 55 7d 01 00 	mov    0x17d55(%rip),%rax        # 23998 <g_445>
    bc43:	48 8b 00             	mov    (%rax),%rax
    bc46:	e9 f0 18 00 00       	jmpq   d53b <func_31+0x33c9>
    bc4b:	66 c7 85 82 e1 ff ff 	movw   $0xc24a,-0x1e7e(%rbp)
    bc52:	4a c2 
    bc54:	48 c7 85 10 e5 ff ff 	movq   $0x1,-0x1af0(%rbp)
    bc5b:	01 00 00 00 
    bc5f:	48 c7 85 18 e5 ff ff 	movq   $0x1,-0x1ae8(%rbp)
    bc66:	01 00 00 00 
    bc6a:	48 c7 85 20 e5 ff ff 	movq   $0x1,-0x1ae0(%rbp)
    bc71:	01 00 00 00 
    bc75:	48 c7 85 28 e5 ff ff 	movq   $0x1,-0x1ad8(%rbp)
    bc7c:	01 00 00 00 
    bc80:	48 8d 85 70 e5 ff ff 	lea    -0x1a90(%rbp),%rax
    bc87:	48 89 85 d0 e6 ff ff 	mov    %rax,-0x1930(%rbp)
    bc8e:	48 8d 85 70 e5 ff ff 	lea    -0x1a90(%rbp),%rax
    bc95:	48 83 c0 10          	add    $0x10,%rax
    bc99:	48 89 85 d8 e6 ff ff 	mov    %rax,-0x1928(%rbp)
    bca0:	48 8d 85 70 e5 ff ff 	lea    -0x1a90(%rbp),%rax
    bca7:	48 83 c0 10          	add    $0x10,%rax
    bcab:	48 89 85 e0 e6 ff ff 	mov    %rax,-0x1920(%rbp)
    bcb2:	48 8d 85 70 e5 ff ff 	lea    -0x1a90(%rbp),%rax
    bcb9:	48 89 85 e8 e6 ff ff 	mov    %rax,-0x1918(%rbp)
    bcc0:	48 8d 85 70 e5 ff ff 	lea    -0x1a90(%rbp),%rax
    bcc7:	48 89 85 f0 e6 ff ff 	mov    %rax,-0x1910(%rbp)
    bcce:	48 8d 85 70 e5 ff ff 	lea    -0x1a90(%rbp),%rax
    bcd5:	48 89 85 f8 e6 ff ff 	mov    %rax,-0x1908(%rbp)
    bcdc:	48 8d 85 70 e5 ff ff 	lea    -0x1a90(%rbp),%rax
    bce3:	48 83 c0 10          	add    $0x10,%rax
    bce7:	48 89 85 00 e7 ff ff 	mov    %rax,-0x1900(%rbp)
    bcee:	48 8d 85 70 e5 ff ff 	lea    -0x1a90(%rbp),%rax
    bcf5:	48 83 c0 10          	add    $0x10,%rax
    bcf9:	48 89 85 08 e7 ff ff 	mov    %rax,-0x18f8(%rbp)
    bd00:	48 8d 85 70 e5 ff ff 	lea    -0x1a90(%rbp),%rax
    bd07:	48 89 85 10 e7 ff ff 	mov    %rax,-0x18f0(%rbp)
    bd0e:	48 8d 85 70 e5 ff ff 	lea    -0x1a90(%rbp),%rax
    bd15:	48 83 c0 38          	add    $0x38,%rax
    bd19:	48 89 85 18 e7 ff ff 	mov    %rax,-0x18e8(%rbp)
    bd20:	48 8d 85 70 e5 ff ff 	lea    -0x1a90(%rbp),%rax
    bd27:	48 83 c0 10          	add    $0x10,%rax
    bd2b:	48 89 85 20 e7 ff ff 	mov    %rax,-0x18e0(%rbp)
    bd32:	48 c7 85 28 e7 ff ff 	movq   $0x0,-0x18d8(%rbp)
    bd39:	00 00 00 00 
    bd3d:	48 8d 85 70 e5 ff ff 	lea    -0x1a90(%rbp),%rax
    bd44:	48 83 c0 10          	add    $0x10,%rax
    bd48:	48 89 85 30 e7 ff ff 	mov    %rax,-0x18d0(%rbp)
    bd4f:	48 8d 85 70 e5 ff ff 	lea    -0x1a90(%rbp),%rax
    bd56:	48 83 c0 38          	add    $0x38,%rax
    bd5a:	48 89 85 38 e7 ff ff 	mov    %rax,-0x18c8(%rbp)
    bd61:	48 8d 85 70 e5 ff ff 	lea    -0x1a90(%rbp),%rax
    bd68:	48 83 c0 38          	add    $0x38,%rax
    bd6c:	48 89 85 40 e7 ff ff 	mov    %rax,-0x18c0(%rbp)
    bd73:	48 8d 85 70 e5 ff ff 	lea    -0x1a90(%rbp),%rax
    bd7a:	48 83 c0 10          	add    $0x10,%rax
    bd7e:	48 89 85 48 e7 ff ff 	mov    %rax,-0x18b8(%rbp)
    bd85:	48 c7 85 50 e7 ff ff 	movq   $0x0,-0x18b0(%rbp)
    bd8c:	00 00 00 00 
    bd90:	48 8d 85 70 e5 ff ff 	lea    -0x1a90(%rbp),%rax
    bd97:	48 83 c0 10          	add    $0x10,%rax
    bd9b:	48 89 85 58 e7 ff ff 	mov    %rax,-0x18a8(%rbp)
    bda2:	48 8d 85 70 e5 ff ff 	lea    -0x1a90(%rbp),%rax
    bda9:	48 83 c0 10          	add    $0x10,%rax
    bdad:	48 89 85 60 e7 ff ff 	mov    %rax,-0x18a0(%rbp)
    bdb4:	48 8d 85 70 e5 ff ff 	lea    -0x1a90(%rbp),%rax
    bdbb:	48 89 85 68 e7 ff ff 	mov    %rax,-0x1898(%rbp)
    bdc2:	48 c7 85 70 e7 ff ff 	movq   $0x0,-0x1890(%rbp)
    bdc9:	00 00 00 00 
    bdcd:	48 c7 85 78 e7 ff ff 	movq   $0x0,-0x1888(%rbp)
    bdd4:	00 00 00 00 
    bdd8:	48 8d 85 70 e5 ff ff 	lea    -0x1a90(%rbp),%rax
    bddf:	48 89 85 80 e7 ff ff 	mov    %rax,-0x1880(%rbp)
    bde6:	48 8d 85 70 e5 ff ff 	lea    -0x1a90(%rbp),%rax
    bded:	48 83 c0 10          	add    $0x10,%rax
    bdf1:	48 89 85 88 e7 ff ff 	mov    %rax,-0x1878(%rbp)
    bdf8:	48 8d 85 70 e5 ff ff 	lea    -0x1a90(%rbp),%rax
    bdff:	48 89 85 90 e7 ff ff 	mov    %rax,-0x1870(%rbp)
    be06:	48 c7 85 98 e7 ff ff 	movq   $0x0,-0x1868(%rbp)
    be0d:	00 00 00 00 
    be11:	48 c7 85 a0 e7 ff ff 	movq   $0x0,-0x1860(%rbp)
    be18:	00 00 00 00 
    be1c:	48 8d 85 70 e5 ff ff 	lea    -0x1a90(%rbp),%rax
    be23:	48 83 c0 38          	add    $0x38,%rax
    be27:	48 89 85 a8 e7 ff ff 	mov    %rax,-0x1858(%rbp)
    be2e:	48 8d 85 70 e5 ff ff 	lea    -0x1a90(%rbp),%rax
    be35:	48 83 c0 38          	add    $0x38,%rax
    be39:	48 89 85 b0 e7 ff ff 	mov    %rax,-0x1850(%rbp)
    be40:	48 8d 85 70 e5 ff ff 	lea    -0x1a90(%rbp),%rax
    be47:	48 83 c0 10          	add    $0x10,%rax
    be4b:	48 89 85 b8 e7 ff ff 	mov    %rax,-0x1848(%rbp)
    be52:	48 c7 85 c0 e7 ff ff 	movq   $0x0,-0x1840(%rbp)
    be59:	00 00 00 00 
    be5d:	48 8d 85 70 e5 ff ff 	lea    -0x1a90(%rbp),%rax
    be64:	48 83 c0 10          	add    $0x10,%rax
    be68:	48 89 85 c8 e7 ff ff 	mov    %rax,-0x1838(%rbp)
    be6f:	48 8d 85 70 e5 ff ff 	lea    -0x1a90(%rbp),%rax
    be76:	48 83 c0 38          	add    $0x38,%rax
    be7a:	48 89 85 d0 e7 ff ff 	mov    %rax,-0x1830(%rbp)
    be81:	48 8d 85 70 e5 ff ff 	lea    -0x1a90(%rbp),%rax
    be88:	48 83 c0 38          	add    $0x38,%rax
    be8c:	48 89 85 d8 e7 ff ff 	mov    %rax,-0x1828(%rbp)
    be93:	48 8d 85 70 e5 ff ff 	lea    -0x1a90(%rbp),%rax
    be9a:	48 83 c0 10          	add    $0x10,%rax
    be9e:	48 89 85 e0 e7 ff ff 	mov    %rax,-0x1820(%rbp)
    bea5:	48 c7 85 e8 e7 ff ff 	movq   $0x0,-0x1818(%rbp)
    beac:	00 00 00 00 
    beb0:	48 8d 85 70 e5 ff ff 	lea    -0x1a90(%rbp),%rax
    beb7:	48 89 85 f0 e7 ff ff 	mov    %rax,-0x1810(%rbp)
    bebe:	48 8d 85 70 e5 ff ff 	lea    -0x1a90(%rbp),%rax
    bec5:	48 89 85 f8 e7 ff ff 	mov    %rax,-0x1808(%rbp)
    becc:	48 8d 85 70 e5 ff ff 	lea    -0x1a90(%rbp),%rax
    bed3:	48 89 85 00 e8 ff ff 	mov    %rax,-0x1800(%rbp)
    beda:	48 8d 85 70 e5 ff ff 	lea    -0x1a90(%rbp),%rax
    bee1:	48 83 c0 10          	add    $0x10,%rax
    bee5:	48 89 85 08 e8 ff ff 	mov    %rax,-0x17f8(%rbp)
    beec:	48 8d 85 70 e5 ff ff 	lea    -0x1a90(%rbp),%rax
    bef3:	48 83 c0 10          	add    $0x10,%rax
    bef7:	48 89 85 10 e8 ff ff 	mov    %rax,-0x17f0(%rbp)
    befe:	48 8d 85 70 e5 ff ff 	lea    -0x1a90(%rbp),%rax
    bf05:	48 89 85 18 e8 ff ff 	mov    %rax,-0x17e8(%rbp)
    bf0c:	48 8d 85 70 e5 ff ff 	lea    -0x1a90(%rbp),%rax
    bf13:	48 89 85 20 e8 ff ff 	mov    %rax,-0x17e0(%rbp)
    bf1a:	48 8d 85 70 e5 ff ff 	lea    -0x1a90(%rbp),%rax
    bf21:	48 89 85 28 e8 ff ff 	mov    %rax,-0x17d8(%rbp)
    bf28:	48 8d 85 70 e5 ff ff 	lea    -0x1a90(%rbp),%rax
    bf2f:	48 83 c0 10          	add    $0x10,%rax
    bf33:	48 89 85 30 e8 ff ff 	mov    %rax,-0x17d0(%rbp)
    bf3a:	48 8d 85 70 e5 ff ff 	lea    -0x1a90(%rbp),%rax
    bf41:	48 89 85 38 e8 ff ff 	mov    %rax,-0x17c8(%rbp)
    bf48:	48 8d 85 70 e5 ff ff 	lea    -0x1a90(%rbp),%rax
    bf4f:	48 83 c0 10          	add    $0x10,%rax
    bf53:	48 89 85 40 e8 ff ff 	mov    %rax,-0x17c0(%rbp)
    bf5a:	48 8d 85 70 e5 ff ff 	lea    -0x1a90(%rbp),%rax
    bf61:	48 83 c0 10          	add    $0x10,%rax
    bf65:	48 89 85 48 e8 ff ff 	mov    %rax,-0x17b8(%rbp)
    bf6c:	48 8d 85 70 e5 ff ff 	lea    -0x1a90(%rbp),%rax
    bf73:	48 89 85 50 e8 ff ff 	mov    %rax,-0x17b0(%rbp)
    bf7a:	48 8d 85 70 e5 ff ff 	lea    -0x1a90(%rbp),%rax
    bf81:	48 89 85 58 e8 ff ff 	mov    %rax,-0x17a8(%rbp)
    bf88:	48 8d 85 70 e5 ff ff 	lea    -0x1a90(%rbp),%rax
    bf8f:	48 89 85 60 e8 ff ff 	mov    %rax,-0x17a0(%rbp)
    bf96:	48 8d 85 70 e5 ff ff 	lea    -0x1a90(%rbp),%rax
    bf9d:	48 83 c0 10          	add    $0x10,%rax
    bfa1:	48 89 85 68 e8 ff ff 	mov    %rax,-0x1798(%rbp)
    bfa8:	48 8d 85 70 e5 ff ff 	lea    -0x1a90(%rbp),%rax
    bfaf:	48 83 c0 10          	add    $0x10,%rax
    bfb3:	48 89 85 70 e8 ff ff 	mov    %rax,-0x1790(%rbp)
    bfba:	48 8d 85 70 e5 ff ff 	lea    -0x1a90(%rbp),%rax
    bfc1:	48 89 85 78 e8 ff ff 	mov    %rax,-0x1788(%rbp)
    bfc8:	0f b7 85 68 e1 ff ff 	movzwl -0x1e98(%rbp),%eax
    bfcf:	0f b6 d8             	movzbl %al,%ebx
    bfd2:	0f b7 85 82 e1 ff ff 	movzwl -0x1e7e(%rbp),%eax
    bfd9:	0f b6 d0             	movzbl %al,%edx
    bfdc:	48 8b 05 45 88 01 00 	mov    0x18845(%rip),%rax        # 24828 <g_64>
    bfe3:	0f b6 00             	movzbl (%rax),%eax
    bfe6:	0f b6 c0             	movzbl %al,%eax
    bfe9:	89 d6                	mov    %edx,%esi
    bfeb:	89 c7                	mov    %eax,%edi
    bfed:	e8 e9 bb ff ff       	callq  7bdb <safe_div_func_uint8_t_u_u>
    bff2:	84 c0                	test   %al,%al
    bff4:	74 11                	je     c007 <func_31+0x1e95>
    bff6:	8b 85 6c e1 ff ff    	mov    -0x1e94(%rbp),%eax
    bffc:	85 c0                	test   %eax,%eax
    bffe:	74 07                	je     c007 <func_31+0x1e95>
    c000:	b8 01 00 00 00       	mov    $0x1,%eax
    c005:	eb 05                	jmp    c00c <func_31+0x1e9a>
    c007:	b8 00 00 00 00       	mov    $0x0,%eax
    c00c:	4c 63 f0             	movslq %eax,%r14
    c00f:	8b 85 f0 e4 ff ff    	mov    -0x1b10(%rbp),%eax
    c015:	44 0f be e0          	movsbl %al,%r12d
    c019:	0f b7 85 68 e1 ff ff 	movzwl -0x1e98(%rbp),%eax
    c020:	44 0f bf e8          	movswl %ax,%r13d
    c024:	8b 85 6c e1 ff ff    	mov    -0x1e94(%rbp),%eax
    c02a:	48 98                	cltq   
    c02c:	25 4b aa 77 e3       	and    $0xe377aa4b,%eax
    c031:	48 89 c2             	mov    %rax,%rdx
    c034:	0f b7 85 82 e1 ff ff 	movzwl -0x1e7e(%rbp),%eax
    c03b:	48 39 c2             	cmp    %rax,%rdx
    c03e:	0f 9e c0             	setle  %al
    c041:	0f b6 d0             	movzbl %al,%edx
    c044:	48 8b 85 88 e5 ff ff 	mov    -0x1a78(%rbp),%rax
    c04b:	48 89 05 56 82 01 00 	mov    %rax,0x18256(%rip)        # 242a8 <g_2191>
    c052:	48 8b 05 4f 82 01 00 	mov    0x1824f(%rip),%rax        # 242a8 <g_2191>
    c059:	48 39 85 98 e3 ff ff 	cmp    %rax,-0x1c68(%rbp)
    c060:	0f 94 c0             	sete   %al
    c063:	0f b6 c0             	movzbl %al,%eax
    c066:	89 d6                	mov    %edx,%esi
    c068:	89 c7                	mov    %eax,%edi
    c06a:	e8 32 b2 ff ff       	callq  72a1 <safe_lshift_func_int8_t_s_s>
    c06f:	0f be d0             	movsbl %al,%edx
    c072:	48 8b 85 10 e5 ff ff 	mov    -0x1af0(%rbp),%rax
    c079:	89 c1                	mov    %eax,%ecx
    c07b:	48 8b 85 88 e3 ff ff 	mov    -0x1c78(%rbp),%rax
    c082:	88 08                	mov    %cl,(%rax)
    c084:	48 8b 85 88 e3 ff ff 	mov    -0x1c78(%rbp),%rax
    c08b:	0f b6 00             	movzbl (%rax),%eax
    c08e:	0f b6 c0             	movzbl %al,%eax
    c091:	89 d6                	mov    %edx,%esi
    c093:	89 c7                	mov    %eax,%edi
    c095:	e8 24 bc ff ff       	callq  7cbe <safe_rshift_func_uint8_t_u_u>
    c09a:	0f b6 c0             	movzbl %al,%eax
    c09d:	44 89 ee             	mov    %r13d,%esi
    c0a0:	89 c7                	mov    %eax,%edi
    c0a2:	e8 11 be ff ff       	callq  7eb8 <safe_add_func_uint32_t_u_u>
    c0a7:	0f be c0             	movsbl %al,%eax
    c0aa:	44 89 e6             	mov    %r12d,%esi
    c0ad:	89 c7                	mov    %eax,%edi
    c0af:	e8 20 b1 ff ff       	callq  71d4 <safe_add_func_int8_t_s_s>
    c0b4:	48 0f be c0          	movsbq %al,%rax
    c0b8:	48 f7 d0             	not    %rax
    c0bb:	49 39 c6             	cmp    %rax,%r14
    c0be:	0f 94 c0             	sete   %al
    c0c1:	89 c2                	mov    %eax,%edx
    c0c3:	8b 85 dc e1 ff ff    	mov    -0x1e24(%rbp),%eax
    c0c9:	21 d0                	and    %edx,%eax
    c0cb:	0f b6 c0             	movzbl %al,%eax
    c0ce:	89 de                	mov    %ebx,%esi
    c0d0:	89 c7                	mov    %eax,%edi
    c0d2:	e8 bc ba ff ff       	callq  7b93 <safe_mul_func_uint8_t_u_u>
    c0d7:	0f b6 c0             	movzbl %al,%eax
    c0da:	be d0 00 00 00       	mov    $0xd0,%esi
    c0df:	89 c7                	mov    %eax,%edi
    c0e1:	e8 ad ba ff ff       	callq  7b93 <safe_mul_func_uint8_t_u_u>
    c0e6:	0f b6 d0             	movzbl %al,%edx
    c0e9:	0f b7 85 68 e1 ff ff 	movzwl -0x1e98(%rbp),%eax
    c0f0:	98                   	cwtl   
    c0f1:	89 d6                	mov    %edx,%esi
    c0f3:	89 c7                	mov    %eax,%edi
    c0f5:	e8 03 be ff ff       	callq  7efd <safe_mod_func_uint32_t_u_u>
    c0fa:	8b 95 6c e1 ff ff    	mov    -0x1e94(%rbp),%edx
    c100:	21 c2                	and    %eax,%edx
    c102:	48 8b 85 58 e2 ff ff 	mov    -0x1da8(%rbp),%rax
    c109:	89 10                	mov    %edx,(%rax)
    c10b:	48 8b 85 30 e3 ff ff 	mov    -0x1cd0(%rbp),%rax
    c112:	48 8b 00             	mov    (%rax),%rax
    c115:	48 8b 00             	mov    (%rax),%rax
    c118:	e9 1e 14 00 00       	jmpq   d53b <func_31+0x33c9>
    c11d:	90                   	nop
    c11e:	48 8b 05 30 34 01 00 	mov    0x13430(%rip),%rax        # 1f555 <g_1281+0x5>
    c125:	48 83 c0 01          	add    $0x1,%rax
    c129:	48 89 05 25 34 01 00 	mov    %rax,0x13425(%rip)        # 1f555 <g_1281+0x5>
    c130:	48 8b 05 1e 34 01 00 	mov    0x1341e(%rip),%rax        # 1f555 <g_1281+0x5>
    c137:	48 83 f8 01          	cmp    $0x1,%rax
    c13b:	0f 86 12 f4 ff ff    	jbe    b553 <func_31+0x13e1>
    c141:	90                   	nop
    c142:	48 8b 85 68 e3 ff ff 	mov    -0x1c98(%rbp),%rax
    c149:	48 8b 95 50 e3 ff ff 	mov    -0x1cb0(%rbp),%rdx
    c150:	48 89 10             	mov    %rdx,(%rax)
    c153:	48 8b 85 90 e2 ff ff 	mov    -0x1d70(%rbp),%rax
    c15a:	c7 00 00 00 00 00    	movl   $0x0,(%rax)
    c160:	8b 18                	mov    (%rax),%ebx
    c162:	8b 85 6c e1 ff ff    	mov    -0x1e94(%rbp),%eax
    c168:	3d fc 00 00 00       	cmp    $0xfc,%eax
    c16d:	0f 97 c0             	seta   %al
    c170:	0f b6 c0             	movzbl %al,%eax
    c173:	be 02 00 00 00       	mov    $0x2,%esi
    c178:	89 c7                	mov    %eax,%edi
    c17a:	e8 86 ba ff ff       	callq  7c05 <safe_lshift_func_uint8_t_u_s>
    c17f:	0f b6 c0             	movzbl %al,%eax
    c182:	be 00 00 00 00       	mov    $0x0,%esi
    c187:	89 c7                	mov    %eax,%edi
    c189:	e8 28 b4 ff ff       	callq  75b6 <safe_add_func_int32_t_s_s>
    c18e:	0f b7 85 68 e1 ff ff 	movzwl -0x1e98(%rbp),%eax
    c195:	0f be c0             	movsbl %al,%eax
    c198:	be 03 00 00 00       	mov    $0x3,%esi
    c19d:	89 c7                	mov    %eax,%edi
    c19f:	e8 91 b1 ff ff       	callq  7335 <safe_rshift_func_int8_t_s_s>
    c1a4:	0f be c0             	movsbl %al,%eax
    c1a7:	31 d8                	xor    %ebx,%eax
    c1a9:	89 c2                	mov    %eax,%edx
    c1ab:	48 8b 85 58 e1 ff ff 	mov    -0x1ea8(%rbp),%rax
    c1b2:	48 39 c2             	cmp    %rax,%rdx
    c1b5:	7d 09                	jge    c1c0 <func_31+0x204e>
    c1b7:	0f b6 05 02 87 01 00 	movzbl 0x18702(%rip),%eax        # 248c0 <g_1389>
    c1be:	84 c0                	test   %al,%al
    c1c0:	48 8b 85 a8 e3 ff ff 	mov    -0x1c58(%rbp),%rax
    c1c7:	48 c7 00 00 00 00 00 	movq   $0x0,(%rax)
    c1ce:	48 8b 85 a8 e3 ff ff 	mov    -0x1c58(%rbp),%rax
    c1d5:	48 8b 00             	mov    (%rax),%rax
    c1d8:	48 39 85 38 e3 ff ff 	cmp    %rax,-0x1cc8(%rbp)
    c1df:	0f 94 c0             	sete   %al
    c1e2:	0f b6 c0             	movzbl %al,%eax
    c1e5:	89 85 6c e1 ff ff    	mov    %eax,-0x1e94(%rbp)
    c1eb:	8b 95 6c e1 ff ff    	mov    -0x1e94(%rbp),%edx
    c1f1:	8b 85 cc e4 ff ff    	mov    -0x1b34(%rbp),%eax
    c1f7:	09 d0                	or     %edx,%eax
    c1f9:	89 85 cc e4 ff ff    	mov    %eax,-0x1b34(%rbp)
    c1ff:	8b 85 cc e4 ff ff    	mov    -0x1b34(%rbp),%eax
    c205:	85 c0                	test   %eax,%eax
    c207:	0f 84 f5 0c 00 00    	je     cf02 <func_31+0x2d90>
    c20d:	48 8d 85 c0 ec ff ff 	lea    -0x1340(%rbp),%rax
    c214:	48 05 98 01 00 00    	add    $0x198,%rax
    c21a:	48 89 85 b8 e3 ff ff 	mov    %rax,-0x1c48(%rbp)
    c221:	c7 85 04 e2 ff ff 01 	movl   $0x1,-0x1dfc(%rbp)
    c228:	00 00 00 
    c22b:	c7 85 08 e2 ff ff 53 	movl   $0x40c38f53,-0x1df8(%rbp)
    c232:	8f c3 40 
    c235:	c7 85 0c e2 ff ff f8 	movl   $0xfffffff8,-0x1df4(%rbp)
    c23c:	ff ff ff 
    c23f:	48 8d 05 32 74 01 00 	lea    0x17432(%rip),%rax        # 23678 <g_115>
    c246:	48 89 85 c0 e3 ff ff 	mov    %rax,-0x1c40(%rbp)
    c24d:	48 8d 05 9c 77 01 00 	lea    0x1779c(%rip),%rax        # 239f0 <g_646>
    c254:	48 89 85 c8 e3 ff ff 	mov    %rax,-0x1c38(%rbp)
    c25b:	48 8d 05 0e 45 01 00 	lea    0x1450e(%rip),%rax        # 20770 <g_1334+0x230>
    c262:	48 89 85 d0 e3 ff ff 	mov    %rax,-0x1c30(%rbp)
    c269:	48 8d 85 90 e2 ff ff 	lea    -0x1d70(%rbp),%rax
    c270:	48 89 85 d0 e6 ff ff 	mov    %rax,-0x1930(%rbp)
    c277:	48 8d 85 90 e2 ff ff 	lea    -0x1d70(%rbp),%rax
    c27e:	48 89 85 d8 e6 ff ff 	mov    %rax,-0x1928(%rbp)
    c285:	48 8d 85 90 e2 ff ff 	lea    -0x1d70(%rbp),%rax
    c28c:	48 89 85 e0 e6 ff ff 	mov    %rax,-0x1920(%rbp)
    c293:	48 8d 85 90 e2 ff ff 	lea    -0x1d70(%rbp),%rax
    c29a:	48 89 85 e8 e6 ff ff 	mov    %rax,-0x1918(%rbp)
    c2a1:	48 8d 85 90 e2 ff ff 	lea    -0x1d70(%rbp),%rax
    c2a8:	48 89 85 f0 e6 ff ff 	mov    %rax,-0x1910(%rbp)
    c2af:	48 8d 85 90 e2 ff ff 	lea    -0x1d70(%rbp),%rax
    c2b6:	48 89 85 f8 e6 ff ff 	mov    %rax,-0x1908(%rbp)
    c2bd:	48 8d 85 90 e2 ff ff 	lea    -0x1d70(%rbp),%rax
    c2c4:	48 89 85 00 e7 ff ff 	mov    %rax,-0x1900(%rbp)
    c2cb:	48 8d 85 90 e2 ff ff 	lea    -0x1d70(%rbp),%rax
    c2d2:	48 89 85 08 e7 ff ff 	mov    %rax,-0x18f8(%rbp)
    c2d9:	48 8d 85 90 e2 ff ff 	lea    -0x1d70(%rbp),%rax
    c2e0:	48 89 85 10 e7 ff ff 	mov    %rax,-0x18f0(%rbp)
    c2e7:	48 c7 85 18 e7 ff ff 	movq   $0x0,-0x18e8(%rbp)
    c2ee:	00 00 00 00 
    c2f2:	48 c7 85 20 e7 ff ff 	movq   $0x0,-0x18e0(%rbp)
    c2f9:	00 00 00 00 
    c2fd:	48 c7 85 28 e7 ff ff 	movq   $0x0,-0x18d8(%rbp)
    c304:	00 00 00 00 
    c308:	48 c7 85 30 e7 ff ff 	movq   $0x0,-0x18d0(%rbp)
    c30f:	00 00 00 00 
    c313:	48 c7 85 38 e7 ff ff 	movq   $0x0,-0x18c8(%rbp)
    c31a:	00 00 00 00 
    c31e:	48 c7 85 40 e7 ff ff 	movq   $0x0,-0x18c0(%rbp)
    c325:	00 00 00 00 
    c329:	48 c7 85 48 e7 ff ff 	movq   $0x0,-0x18b8(%rbp)
    c330:	00 00 00 00 
    c334:	48 c7 85 50 e7 ff ff 	movq   $0x0,-0x18b0(%rbp)
    c33b:	00 00 00 00 
    c33f:	48 c7 85 58 e7 ff ff 	movq   $0x0,-0x18a8(%rbp)
    c346:	00 00 00 00 
    c34a:	48 8d 85 90 e2 ff ff 	lea    -0x1d70(%rbp),%rax
    c351:	48 89 85 60 e7 ff ff 	mov    %rax,-0x18a0(%rbp)
    c358:	48 8d 85 90 e2 ff ff 	lea    -0x1d70(%rbp),%rax
    c35f:	48 89 85 68 e7 ff ff 	mov    %rax,-0x1898(%rbp)
    c366:	48 8d 85 90 e2 ff ff 	lea    -0x1d70(%rbp),%rax
    c36d:	48 89 85 70 e7 ff ff 	mov    %rax,-0x1890(%rbp)
    c374:	48 8d 85 90 e2 ff ff 	lea    -0x1d70(%rbp),%rax
    c37b:	48 89 85 78 e7 ff ff 	mov    %rax,-0x1888(%rbp)
    c382:	48 8d 85 90 e2 ff ff 	lea    -0x1d70(%rbp),%rax
    c389:	48 89 85 80 e7 ff ff 	mov    %rax,-0x1880(%rbp)
    c390:	48 8d 85 90 e2 ff ff 	lea    -0x1d70(%rbp),%rax
    c397:	48 89 85 88 e7 ff ff 	mov    %rax,-0x1878(%rbp)
    c39e:	48 8d 85 90 e2 ff ff 	lea    -0x1d70(%rbp),%rax
    c3a5:	48 89 85 90 e7 ff ff 	mov    %rax,-0x1870(%rbp)
    c3ac:	48 8d 85 90 e2 ff ff 	lea    -0x1d70(%rbp),%rax
    c3b3:	48 89 85 98 e7 ff ff 	mov    %rax,-0x1868(%rbp)
    c3ba:	48 8d 85 90 e2 ff ff 	lea    -0x1d70(%rbp),%rax
    c3c1:	48 89 85 a0 e7 ff ff 	mov    %rax,-0x1860(%rbp)
    c3c8:	48 8d 85 90 e2 ff ff 	lea    -0x1d70(%rbp),%rax
    c3cf:	48 89 85 d8 e3 ff ff 	mov    %rax,-0x1c28(%rbp)
    c3d6:	48 8b 95 58 e1 ff ff 	mov    -0x1ea8(%rbp),%rdx
    c3dd:	48 8b 85 58 e2 ff ff 	mov    -0x1da8(%rbp),%rax
    c3e4:	89 10                	mov    %edx,(%rax)
    c3e6:	8b 00                	mov    (%rax),%eax
    c3e8:	85 c0                	test   %eax,%eax
    c3ea:	0f 84 5f 05 00 00    	je     c94f <func_31+0x27dd>
    c3f0:	48 c7 85 f0 e3 ff ff 	movq   $0x6,-0x1c10(%rbp)
    c3f7:	06 00 00 00 
    c3fb:	c7 85 10 e2 ff ff f8 	movl   $0xfffffff8,-0x1df0(%rbp)
    c402:	ff ff ff 
    c405:	c7 85 70 e5 ff ff 3d 	movl   $0x22643d3d,-0x1a90(%rbp)
    c40c:	3d 64 22 
    c40f:	c7 85 74 e5 ff ff fb 	movl   $0xfffffffb,-0x1a8c(%rbp)
    c416:	ff ff ff 
    c419:	c7 85 78 e5 ff ff 3d 	movl   $0x22643d3d,-0x1a88(%rbp)
    c420:	3d 64 22 
    c423:	c7 85 7c e5 ff ff 3d 	movl   $0x22643d3d,-0x1a84(%rbp)
    c42a:	3d 64 22 
    c42d:	c7 85 80 e5 ff ff fb 	movl   $0xfffffffb,-0x1a80(%rbp)
    c434:	ff ff ff 
    c437:	c7 85 84 e5 ff ff 3d 	movl   $0x22643d3d,-0x1a7c(%rbp)
    c43e:	3d 64 22 
    c441:	c7 85 88 e5 ff ff 3d 	movl   $0x22643d3d,-0x1a78(%rbp)
    c448:	3d 64 22 
    c44b:	c7 85 14 e2 ff ff f6 	movl   $0xfffffff6,-0x1dec(%rbp)
    c452:	ff ff ff 
    c455:	48 8d 05 1c 72 01 00 	lea    0x1721c(%rip),%rax        # 23678 <g_115>
    c45c:	48 89 85 f8 e3 ff ff 	mov    %rax,-0x1c08(%rbp)
    c463:	48 8b 85 58 e1 ff ff 	mov    -0x1ea8(%rbp),%rax
    c46a:	f7 d0                	not    %eax
    c46c:	0f be d8             	movsbl %al,%ebx
    c46f:	48 8b 05 2a 50 01 00 	mov    0x1502a(%rip),%rax        # 214a0 <g_1993>
    c476:	48 8b 85 58 e1 ff ff 	mov    -0x1ea8(%rbp),%rax
    c47d:	89 c2                	mov    %eax,%edx
    c47f:	8b 85 6c e1 ff ff    	mov    -0x1e94(%rbp),%eax
    c485:	09 d0                	or     %edx,%eax
    c487:	89 85 6c e1 ff ff    	mov    %eax,-0x1e94(%rbp)
    c48d:	8b 85 6c e1 ff ff    	mov    -0x1e94(%rbp),%eax
    c493:	89 c2                	mov    %eax,%edx
    c495:	48 8b 85 90 e2 ff ff 	mov    -0x1d70(%rbp),%rax
    c49c:	c7 00 66 09 8d 1f    	movl   $0x1f8d0966,(%rax)
    c4a2:	8b 00                	mov    (%rax),%eax
    c4a4:	89 d6                	mov    %edx,%esi
    c4a6:	89 c7                	mov    %eax,%edi
    c4a8:	e8 0b ba ff ff       	callq  7eb8 <safe_add_func_uint32_t_u_u>
    c4ad:	89 c1                	mov    %eax,%ecx
    c4af:	48 83 bd f0 e3 ff ff 	cmpq   $0x0,-0x1c10(%rbp)
    c4b6:	00 
    c4b7:	74 21                	je     c4da <func_31+0x2368>
    c4b9:	48 8b 05 40 75 01 00 	mov    0x17540(%rip),%rax        # 23a00 <g_728>
    c4c0:	48 8b 00             	mov    (%rax),%rax
    c4c3:	48 8b 10             	mov    (%rax),%rdx
    c4c6:	0f b6 02             	movzbl (%rdx),%eax
    c4c9:	8d 70 01             	lea    0x1(%rax),%esi
    c4cc:	40 88 32             	mov    %sil,(%rdx)
    c4cf:	84 c0                	test   %al,%al
    c4d1:	74 07                	je     c4da <func_31+0x2368>
    c4d3:	b8 01 00 00 00       	mov    $0x1,%eax
    c4d8:	eb 05                	jmp    c4df <func_31+0x236d>
    c4da:	b8 00 00 00 00       	mov    $0x0,%eax
    c4df:	39 c1                	cmp    %eax,%ecx
    c4e1:	0f 92 c0             	setb   %al
    c4e4:	0f b6 c0             	movzbl %al,%eax
    c4e7:	89 de                	mov    %ebx,%esi
    c4e9:	89 c7                	mov    %eax,%edi
    c4eb:	e8 e4 ac ff ff       	callq  71d4 <safe_add_func_int8_t_s_s>
    c4f0:	48 83 bd f0 e3 ff ff 	cmpq   $0x0,-0x1c10(%rbp)
    c4f7:	00 
    c4f8:	74 07                	je     c501 <func_31+0x238f>
    c4fa:	b8 01 00 00 00       	mov    $0x1,%eax
    c4ff:	eb 05                	jmp    c506 <func_31+0x2394>
    c501:	b8 00 00 00 00       	mov    $0x0,%eax
    c506:	89 c7                	mov    %eax,%edi
    c508:	e8 89 b0 ff ff       	callq  7596 <safe_unary_minus_func_int32_t_s>
    c50d:	85 c0                	test   %eax,%eax
    c50f:	74 16                	je     c527 <func_31+0x23b5>
    c511:	83 ad 14 e2 ff ff 01 	subl   $0x1,-0x1dec(%rbp)
    c518:	48 8b 05 79 74 01 00 	mov    0x17479(%rip),%rax        # 23998 <g_445>
    c51f:	48 8b 00             	mov    (%rax),%rax
    c522:	e9 14 10 00 00       	jmpq   d53b <func_31+0x33c9>
    c527:	48 8d 05 22 50 01 00 	lea    0x15022(%rip),%rax        # 21550 <g_2160>
    c52e:	48 89 85 b0 e5 ff ff 	mov    %rax,-0x1a50(%rbp)
    c535:	48 8d 05 14 50 01 00 	lea    0x15014(%rip),%rax        # 21550 <g_2160>
    c53c:	48 89 85 b8 e5 ff ff 	mov    %rax,-0x1a48(%rbp)
    c543:	48 8d 05 06 50 01 00 	lea    0x15006(%rip),%rax        # 21550 <g_2160>
    c54a:	48 89 85 c0 e5 ff ff 	mov    %rax,-0x1a40(%rbp)
    c551:	48 8d 05 f8 4f 01 00 	lea    0x14ff8(%rip),%rax        # 21550 <g_2160>
    c558:	48 89 85 c8 e5 ff ff 	mov    %rax,-0x1a38(%rbp)
    c55f:	48 8d 05 ea 4f 01 00 	lea    0x14fea(%rip),%rax        # 21550 <g_2160>
    c566:	48 89 85 d0 e5 ff ff 	mov    %rax,-0x1a30(%rbp)
    c56d:	48 8d 05 dc 4f 01 00 	lea    0x14fdc(%rip),%rax        # 21550 <g_2160>
    c574:	48 89 85 d8 e5 ff ff 	mov    %rax,-0x1a28(%rbp)
    c57b:	48 8d 05 ce 4f 01 00 	lea    0x14fce(%rip),%rax        # 21550 <g_2160>
    c582:	48 89 85 e0 e5 ff ff 	mov    %rax,-0x1a20(%rbp)
    c589:	c7 85 18 e2 ff ff bd 	movl   $0x717778bd,-0x1de8(%rbp)
    c590:	78 77 71 
    c593:	48 8b 05 f6 71 01 00 	mov    0x171f6(%rip),%rax        # 23790 <g_357>
    c59a:	48 8b 00             	mov    (%rax),%rax
    c59d:	48 8b 00             	mov    (%rax),%rax
    c5a0:	48 85 c0             	test   %rax,%rax
    c5a3:	0f 95 c0             	setne  %al
    c5a6:	0f b6 d0             	movzbl %al,%edx
    c5a9:	48 8b 85 58 e2 ff ff 	mov    -0x1da8(%rbp),%rax
    c5b0:	8b 00                	mov    (%rax),%eax
    c5b2:	0f b7 c0             	movzwl %ax,%eax
    c5b5:	89 d6                	mov    %edx,%esi
    c5b7:	89 c7                	mov    %eax,%edi
    c5b9:	e8 41 b7 ff ff       	callq  7cff <safe_add_func_uint16_t_u_u>
    c5be:	0f b7 c0             	movzwl %ax,%eax
    c5c1:	39 85 04 e2 ff ff    	cmp    %eax,-0x1dfc(%rbp)
    c5c7:	0f 97 c0             	seta   %al
    c5ca:	0f b6 d0             	movzbl %al,%edx
    c5cd:	8b 85 6c e1 ff ff    	mov    -0x1e94(%rbp),%eax
    c5d3:	31 d0                	xor    %edx,%eax
    c5d5:	89 85 6c e1 ff ff    	mov    %eax,-0x1e94(%rbp)
    c5db:	8b 95 14 e2 ff ff    	mov    -0x1dec(%rbp),%edx
    c5e1:	48 8b 05 a8 71 01 00 	mov    0x171a8(%rip),%rax        # 23790 <g_357>
    c5e8:	48 8b 00             	mov    (%rax),%rax
    c5eb:	48 8b 00             	mov    (%rax),%rax
    c5ee:	48 8b 00             	mov    (%rax),%rax
    c5f1:	0f b6 00             	movzbl (%rax),%eax
    c5f4:	0f b6 c0             	movzbl %al,%eax
    c5f7:	89 d6                	mov    %edx,%esi
    c5f9:	89 c7                	mov    %eax,%edi
    c5fb:	e8 8d b6 ff ff       	callq  7c8d <safe_rshift_func_uint8_t_u_s>
    c600:	0f b6 c0             	movzbl %al,%eax
    c603:	48 c7 c6 ff ff ff ff 	mov    $0xffffffffffffffff,%rsi
    c60a:	48 89 c7             	mov    %rax,%rdi
    c60d:	e8 2f b2 ff ff       	callq  7841 <safe_add_func_int64_t_s_s>
    c612:	0f b6 c0             	movzbl %al,%eax
    c615:	48 8b 1d 0c 82 01 00 	mov    0x1820c(%rip),%rbx        # 24828 <g_64>
    c61c:	89 c6                	mov    %eax,%esi
    c61e:	bf fe 00 00 00       	mov    $0xfe,%edi
    c623:	e8 b3 b5 ff ff       	callq  7bdb <safe_div_func_uint8_t_u_u>
    c628:	88 03                	mov    %al,(%rbx)
    c62a:	48 8b 85 80 e8 ff ff 	mov    -0x1780(%rbp),%rax
    c631:	48 85 c0             	test   %rax,%rax
    c634:	0f 95 c0             	setne  %al
    c637:	0f b6 c0             	movzbl %al,%eax
    c63a:	89 c6                	mov    %eax,%esi
    c63c:	bf ff ff 00 00       	mov    $0xffff,%edi
    c641:	e8 78 b7 ff ff       	callq  7dbe <safe_lshift_func_uint16_t_u_s>
    c646:	0f be d0             	movsbl %al,%edx
    c649:	48 83 bd c0 e3 ff ff 	cmpq   $0x0,-0x1c40(%rbp)
    c650:	00 
    c651:	0f 94 c0             	sete   %al
    c654:	0f b6 c8             	movzbl %al,%ecx
    c657:	48 8b 85 00 e3 ff ff 	mov    -0x1d00(%rbp),%rax
    c65e:	0f b6 00             	movzbl (%rax),%eax
    c661:	21 c1                	and    %eax,%ecx
    c663:	48 8b 85 00 e3 ff ff 	mov    -0x1d00(%rbp),%rax
    c66a:	88 08                	mov    %cl,(%rax)
    c66c:	48 8b 85 00 e3 ff ff 	mov    -0x1d00(%rbp),%rax
    c673:	0f b6 00             	movzbl (%rax),%eax
    c676:	0f be c0             	movsbl %al,%eax
    c679:	89 d6                	mov    %edx,%esi
    c67b:	89 c7                	mov    %eax,%edi
    c67d:	e8 af ab ff ff       	callq  7231 <safe_mod_func_int8_t_s_s>
    c682:	0f be c0             	movsbl %al,%eax
    c685:	39 85 c8 e1 ff ff    	cmp    %eax,-0x1e38(%rbp)
    c68b:	0f 9f c0             	setg   %al
    c68e:	0f b6 c0             	movzbl %al,%eax
    c691:	89 85 18 e2 ff ff    	mov    %eax,-0x1de8(%rbp)
    c697:	83 bd 18 e2 ff ff 00 	cmpl   $0x0,-0x1de8(%rbp)
    c69e:	75 0c                	jne    c6ac <func_31+0x253a>
    c6a0:	48 8b 85 58 e1 ff ff 	mov    -0x1ea8(%rbp),%rax
    c6a7:	48 85 c0             	test   %rax,%rax
    c6aa:	74 07                	je     c6b3 <func_31+0x2541>
    c6ac:	b8 01 00 00 00       	mov    $0x1,%eax
    c6b1:	eb 05                	jmp    c6b8 <func_31+0x2546>
    c6b3:	b8 00 00 00 00       	mov    $0x0,%eax
    c6b8:	0f be c0             	movsbl %al,%eax
    c6bb:	be ac ff ff ff       	mov    $0xffffffac,%esi
    c6c0:	89 c7                	mov    %eax,%edi
    c6c2:	e8 4b ab ff ff       	callq  7212 <safe_mul_func_int8_t_s_s>
    c6c7:	88 05 83 4e 01 00    	mov    %al,0x14e83(%rip)        # 21550 <g_2160>
    c6cd:	0f b6 05 7c 4e 01 00 	movzbl 0x14e7c(%rip),%eax        # 21550 <g_2160>
    c6d4:	48 8b 95 58 e1 ff ff 	mov    -0x1ea8(%rbp),%rdx
    c6db:	09 d0                	or     %edx,%eax
    c6dd:	0f b6 c0             	movzbl %al,%eax
    c6e0:	89 c6                	mov    %eax,%esi
    c6e2:	bf ff 00 00 00       	mov    $0xff,%edi
    c6e7:	e8 ef b4 ff ff       	callq  7bdb <safe_div_func_uint8_t_u_u>
    c6ec:	be 00 00 00 00       	mov    $0x0,%esi
    c6f1:	bf b2 e8 ff ff       	mov    $0xffffe8b2,%edi
    c6f6:	e8 2f ae ff ff       	callq  752a <safe_rshift_func_int16_t_s_s>
    c6fb:	8b 85 18 e2 ff ff    	mov    -0x1de8(%rbp),%eax
    c701:	89 85 7c e5 ff ff    	mov    %eax,-0x1a84(%rbp)
    c707:	8b 85 18 e2 ff ff    	mov    -0x1de8(%rbp),%eax
    c70d:	0f be d8             	movsbl %al,%ebx
    c710:	be 92 bf 96 49       	mov    $0x4996bf92,%esi
    c715:	bf a8 c6 ad 31       	mov    $0x31adc6a8,%edi
    c71a:	e8 ad af ff ff       	callq  76cc <safe_mod_func_int32_t_s_s>
    c71f:	48 98                	cltq   
    c721:	48 89 85 58 e1 ff ff 	mov    %rax,-0x1ea8(%rbp)
    c728:	48 8b 95 58 e1 ff ff 	mov    -0x1ea8(%rbp),%rdx
    c72f:	8b 05 17 dc 00 00    	mov    0xdc17(%rip),%eax        # 1a34c <g_546+0xc>
    c735:	c1 e0 0d             	shl    $0xd,%eax
    c738:	c1 f8 0d             	sar    $0xd,%eax
    c73b:	0b 85 cc e1 ff ff    	or     -0x1e34(%rbp),%eax
    c741:	48 98                	cltq   
    c743:	48 39 c2             	cmp    %rax,%rdx
    c746:	0f 9d c0             	setge  %al
    c749:	0f b6 c0             	movzbl %al,%eax
    c74c:	89 de                	mov    %ebx,%esi
    c74e:	89 c7                	mov    %eax,%edi
    c750:	e8 15 ab ff ff       	callq  726a <safe_div_func_int8_t_s_s>
    c755:	84 c0                	test   %al,%al
    c757:	74 12                	je     c76b <func_31+0x25f9>
    c759:	0f b6 05 f0 4d 01 00 	movzbl 0x14df0(%rip),%eax        # 21550 <g_2160>
    c760:	84 c0                	test   %al,%al
    c762:	74 07                	je     c76b <func_31+0x25f9>
    c764:	b8 01 00 00 00       	mov    $0x1,%eax
    c769:	eb 05                	jmp    c770 <func_31+0x25fe>
    c76b:	b8 00 00 00 00       	mov    $0x0,%eax
    c770:	0f bf d0             	movswl %ax,%edx
    c773:	8b 85 18 e2 ff ff    	mov    -0x1de8(%rbp),%eax
    c779:	98                   	cwtl   
    c77a:	89 d6                	mov    %edx,%esi
    c77c:	89 c7                	mov    %eax,%edi
    c77e:	e8 d2 ac ff ff       	callq  7455 <safe_div_func_int16_t_s_s>
    c783:	0f b7 c0             	movzwl %ax,%eax
    c786:	be 18 ca 00 00       	mov    $0xca18,%esi
    c78b:	89 c7                	mov    %eax,%edi
    c78d:	e8 fc b5 ff ff       	callq  7d8e <safe_div_func_uint16_t_u_u>
    c792:	0f b7 c0             	movzwl %ax,%eax
    c795:	be 06 00 00 00       	mov    $0x6,%esi
    c79a:	89 c7                	mov    %eax,%edi
    c79c:	e8 a7 b6 ff ff       	callq  7e48 <safe_rshift_func_uint16_t_u_s>
    c7a1:	be fc ff 00 00       	mov    $0xfffc,%esi
    c7a6:	bf 01 00 00 00       	mov    $0x1,%edi
    c7ab:	e8 de b5 ff ff       	callq  7d8e <safe_div_func_uint16_t_u_u>
    c7b0:	0f b7 d0             	movzwl %ax,%edx
    c7b3:	0f b7 85 68 e1 ff ff 	movzwl -0x1e98(%rbp),%eax
    c7ba:	98                   	cwtl   
    c7bb:	39 c2                	cmp    %eax,%edx
    c7bd:	0f 95 c0             	setne  %al
    c7c0:	0f b6 d8             	movzbl %al,%ebx
    c7c3:	8b 85 6c e1 ff ff    	mov    -0x1e94(%rbp),%eax
    c7c9:	4c 63 e0             	movslq %eax,%r12
    c7cc:	48 8b 05 bd 6f 01 00 	mov    0x16fbd(%rip),%rax        # 23790 <g_357>
    c7d3:	48 8b 00             	mov    (%rax),%rax
    c7d6:	48 8b 00             	mov    (%rax),%rax
    c7d9:	48 8b 00             	mov    (%rax),%rax
    c7dc:	0f b6 10             	movzbl (%rax),%edx
    c7df:	83 c2 01             	add    $0x1,%edx
    c7e2:	88 10                	mov    %dl,(%rax)
    c7e4:	0f b6 00             	movzbl (%rax),%eax
    c7e7:	0f be c0             	movsbl %al,%eax
    c7ea:	89 c6                	mov    %eax,%esi
    c7ec:	bf 8d ff ff ff       	mov    $0xffffff8d,%edi
    c7f1:	e8 74 aa ff ff       	callq  726a <safe_div_func_int8_t_s_s>
    c7f6:	48 0f be c0          	movsbq %al,%rax
    c7fa:	4c 89 e6             	mov    %r12,%rsi
    c7fd:	48 89 c7             	mov    %rax,%rdi
    c800:	e8 7b b8 ff ff       	callq  8080 <safe_mod_func_uint64_t_u_u>
    c805:	0f b7 c0             	movzwl %ax,%eax
    c808:	89 de                	mov    %ebx,%esi
    c80a:	89 c7                	mov    %eax,%edi
    c80c:	e8 ad b5 ff ff       	callq  7dbe <safe_lshift_func_uint16_t_u_s>
    c811:	48 8b 95 58 e2 ff ff 	mov    -0x1da8(%rbp),%rdx
    c818:	8b 0a                	mov    (%rdx),%ecx
    c81a:	0f b7 d0             	movzwl %ax,%edx
    c81d:	48 8b 85 58 e2 ff ff 	mov    -0x1da8(%rbp),%rax
    c824:	31 ca                	xor    %ecx,%edx
    c826:	89 10                	mov    %edx,(%rax)
    c828:	8b 00                	mov    (%rax),%eax
    c82a:	21 85 0c e2 ff ff    	and    %eax,-0x1df4(%rbp)
    c830:	0f b7 85 68 e1 ff ff 	movzwl -0x1e98(%rbp),%eax
    c837:	0f b6 d8             	movzbl %al,%ebx
    c83a:	48 8b 85 58 e1 ff ff 	mov    -0x1ea8(%rbp),%rax
    c841:	89 c1                	mov    %eax,%ecx
    c843:	8b 15 07 4e 01 00    	mov    0x14e07(%rip),%edx        # 21650 <g_2293>
    c849:	48 8b 85 60 e2 ff ff 	mov    -0x1da0(%rbp),%rax
    c850:	66 89 10             	mov    %dx,(%rax)
    c853:	89 ce                	mov    %ecx,%esi
    c855:	bf 00 00 00 00       	mov    $0x0,%edi
    c85a:	e8 2e b4 ff ff       	callq  7c8d <safe_rshift_func_uint8_t_u_s>
    c85f:	0f b6 c0             	movzbl %al,%eax
    c862:	89 de                	mov    %ebx,%esi
    c864:	89 c7                	mov    %eax,%edi
    c866:	e8 ef b2 ff ff       	callq  7b5a <safe_add_func_uint8_t_u_u>
    c86b:	0f b6 c0             	movzbl %al,%eax
    c86e:	be 01 00 00 00       	mov    $0x1,%esi
    c873:	89 c7                	mov    %eax,%edi
    c875:	e8 34 b3 ff ff       	callq  7bae <safe_mod_func_uint8_t_u_u>
    c87a:	0f b6 c0             	movzbl %al,%eax
    c87d:	be 3e 94 df 8d       	mov    $0x8ddf943e,%esi
    c882:	89 c7                	mov    %eax,%edi
    c884:	e8 76 ae ff ff       	callq  76ff <safe_div_func_int32_t_s_s>
    c889:	85 c0                	test   %eax,%eax
    c88b:	79 13                	jns    c8a0 <func_31+0x272e>
    c88d:	48 8b 85 58 e1 ff ff 	mov    -0x1ea8(%rbp),%rax
    c894:	48 85 c0             	test   %rax,%rax
    c897:	75 07                	jne    c8a0 <func_31+0x272e>
    c899:	83 bd 18 e2 ff ff 00 	cmpl   $0x0,-0x1de8(%rbp)
    c8a0:	90                   	nop
    c8a1:	48 8b 85 50 e1 ff ff 	mov    -0x1eb0(%rbp),%rax
    c8a8:	48 8b 10             	mov    (%rax),%rdx
    c8ab:	8b 05 93 f9 00 00    	mov    0xf993(%rip),%eax        # 1c244 <g_889+0x1e44>
    c8b1:	25 ff ff ff 0f       	and    $0xfffffff,%eax
    c8b6:	85 c0                	test   %eax,%eax
    c8b8:	74 11                	je     c8cb <func_31+0x2759>
    c8ba:	8b 85 6c e1 ff ff    	mov    -0x1e94(%rbp),%eax
    c8c0:	85 c0                	test   %eax,%eax
    c8c2:	74 07                	je     c8cb <func_31+0x2759>
    c8c4:	b8 01 00 00 00       	mov    $0x1,%eax
    c8c9:	eb 05                	jmp    c8d0 <func_31+0x275e>
    c8cb:	b8 00 00 00 00       	mov    $0x0,%eax
    c8d0:	f7 d0                	not    %eax
    c8d2:	48 98                	cltq   
    c8d4:	48 21 c2             	and    %rax,%rdx
    c8d7:	48 8b 85 50 e1 ff ff 	mov    -0x1eb0(%rbp),%rax
    c8de:	48 89 10             	mov    %rdx,(%rax)
    c8e1:	48 8b 85 58 e2 ff ff 	mov    -0x1da8(%rbp),%rax
    c8e8:	8b 10                	mov    (%rax),%edx
    c8ea:	48 8b 85 30 e3 ff ff 	mov    -0x1cd0(%rbp),%rax
    c8f1:	48 8b 00             	mov    (%rax),%rax
    c8f4:	48 8b 00             	mov    (%rax),%rax
    c8f7:	48 c7 85 f8 e3 ff ff 	movq   $0x0,-0x1c08(%rbp)
    c8fe:	00 00 00 00 
    c902:	48 39 85 f8 e3 ff ff 	cmp    %rax,-0x1c08(%rbp)
    c909:	0f 94 c0             	sete   %al
    c90c:	0f b6 c0             	movzbl %al,%eax
    c90f:	39 c2                	cmp    %eax,%edx
    c911:	0f 95 c0             	setne  %al
    c914:	0f b6 c0             	movzbl %al,%eax
    c917:	be 00 00 00 00       	mov    $0x0,%esi
    c91c:	89 c7                	mov    %eax,%edi
    c91e:	e8 cf a8 ff ff       	callq  71f2 <safe_sub_func_int8_t_s_s>
    c923:	48 8b 05 8d d7 00 00 	mov    0xd78d(%rip),%rax        # 1a0b7 <g_127+0x17>
    c92a:	8b 15 20 da 00 00    	mov    0xda20(%rip),%edx        # 1a350 <g_546+0x10>
    c930:	81 e2 ff ff 3f 00    	and    $0x3fffff,%edx
    c936:	89 d2                	mov    %edx,%edx
    c938:	48 39 d0             	cmp    %rdx,%rax
    c93b:	0f 94 c2             	sete   %dl
    c93e:	48 8b 85 58 e2 ff ff 	mov    -0x1da8(%rbp),%rax
    c945:	0f b6 d2             	movzbl %dl,%edx
    c948:	89 10                	mov    %edx,(%rax)
    c94a:	e9 26 01 00 00       	jmpq   ca75 <func_31+0x2903>
    c94f:	66 c7 85 80 e1 ff ff 	movw   $0xfffa,-0x1e80(%rbp)
    c956:	fa ff 
    c958:	48 c7 85 a8 e2 ff ff 	movq   $0x0,-0x1d58(%rbp)
    c95f:	00 00 00 00 
    c963:	48 8d 85 a8 e2 ff ff 	lea    -0x1d58(%rbp),%rax
    c96a:	48 89 85 b0 e5 ff ff 	mov    %rax,-0x1a50(%rbp)
    c971:	48 8d 85 a8 e2 ff ff 	lea    -0x1d58(%rbp),%rax
    c978:	48 89 85 b8 e5 ff ff 	mov    %rax,-0x1a48(%rbp)
    c97f:	48 8d 85 a8 e2 ff ff 	lea    -0x1d58(%rbp),%rax
    c986:	48 89 85 c0 e5 ff ff 	mov    %rax,-0x1a40(%rbp)
    c98d:	48 8d 85 a8 e2 ff ff 	lea    -0x1d58(%rbp),%rax
    c994:	48 89 85 c8 e5 ff ff 	mov    %rax,-0x1a38(%rbp)
    c99b:	48 8d 85 a8 e2 ff ff 	lea    -0x1d58(%rbp),%rax
    c9a2:	48 89 85 d0 e5 ff ff 	mov    %rax,-0x1a30(%rbp)
    c9a9:	48 8d 85 b0 e5 ff ff 	lea    -0x1a50(%rbp),%rax
    c9b0:	48 83 c0 18          	add    $0x18,%rax
    c9b4:	48 89 85 e0 e3 ff ff 	mov    %rax,-0x1c20(%rbp)
    c9bb:	48 8d 05 96 d9 00 00 	lea    0xd996(%rip),%rax        # 1a358 <g_546+0x18>
    c9c2:	48 89 85 e8 e3 ff ff 	mov    %rax,-0x1c18(%rbp)
    c9c9:	48 8b 85 c0 e3 ff ff 	mov    -0x1c40(%rbp),%rax
    c9d0:	48 8b 00             	mov    (%rax),%rax
    c9d3:	8b 00                	mov    (%rax),%eax
    c9d5:	85 c0                	test   %eax,%eax
    c9d7:	0f 9e c2             	setle  %dl
    c9da:	48 8b 85 90 e2 ff ff 	mov    -0x1d70(%rbp),%rax
    c9e1:	0f b6 d2             	movzbl %dl,%edx
    c9e4:	89 10                	mov    %edx,(%rax)
    c9e6:	8b 00                	mov    (%rax),%eax
    c9e8:	89 c6                	mov    %eax,%esi
    c9ea:	bf f7 ff ff ff       	mov    $0xfffffff7,%edi
    c9ef:	e8 c4 b4 ff ff       	callq  7eb8 <safe_add_func_uint32_t_u_u>
    c9f4:	89 c3                	mov    %eax,%ebx
    c9f6:	48 8b 85 58 e2 ff ff 	mov    -0x1da8(%rbp),%rax
    c9fd:	8b 00                	mov    (%rax),%eax
    c9ff:	0f b6 d0             	movzbl %al,%edx
    ca02:	48 8b 85 c0 e3 ff ff 	mov    -0x1c40(%rbp),%rax
    ca09:	48 8b 00             	mov    (%rax),%rax
    ca0c:	8b 08                	mov    (%rax),%ecx
    ca0e:	48 8b 85 38 e2 ff ff 	mov    -0x1dc8(%rbp),%rax
    ca15:	48 8b 00             	mov    (%rax),%rax
    ca18:	48 8b 00             	mov    (%rax),%rax
    ca1b:	88 08                	mov    %cl,(%rax)
    ca1d:	0f b6 00             	movzbl (%rax),%eax
    ca20:	0f b6 c0             	movzbl %al,%eax
    ca23:	66 89 85 80 e1 ff ff 	mov    %ax,-0x1e80(%rbp)
    ca2a:	0f b7 85 80 e1 ff ff 	movzwl -0x1e80(%rbp),%eax
    ca31:	0f b6 c0             	movzbl %al,%eax
    ca34:	89 d6                	mov    %edx,%esi
    ca36:	89 c7                	mov    %eax,%edi
    ca38:	e8 9e b1 ff ff       	callq  7bdb <safe_div_func_uint8_t_u_u>
    ca3d:	0f b6 d0             	movzbl %al,%edx
    ca40:	48 8b 85 e8 e3 ff ff 	mov    -0x1c18(%rbp),%rax
    ca47:	48 8b 00             	mov    (%rax),%rax
    ca4a:	89 d9                	mov    %ebx,%ecx
    ca4c:	48 21 c1             	and    %rax,%rcx
    ca4f:	48 8b 85 e8 e3 ff ff 	mov    -0x1c18(%rbp),%rax
    ca56:	48 89 08             	mov    %rcx,(%rax)
    ca59:	48 8b 85 e8 e3 ff ff 	mov    -0x1c18(%rbp),%rax
    ca60:	48 8b 00             	mov    (%rax),%rax
    ca63:	48 39 c2             	cmp    %rax,%rdx
    ca66:	0f 97 c2             	seta   %dl
    ca69:	48 8b 85 58 e2 ff ff 	mov    -0x1da8(%rbp),%rax
    ca70:	0f b6 d2             	movzbl %dl,%edx
    ca73:	89 10                	mov    %edx,(%rax)
    ca75:	48 8b 05 59 d7 00 00 	mov    0xd759(%rip),%rax        # 1a1d5 <g_254+0x5>
    ca7c:	89 c3                	mov    %eax,%ebx
    ca7e:	48 8b 05 f3 6b 01 00 	mov    0x16bf3(%rip),%rax        # 23678 <g_115>
    ca85:	8b 00                	mov    (%rax),%eax
    ca87:	89 c6                	mov    %eax,%esi
    ca89:	bf 00 00 00 00       	mov    $0x0,%edi
    ca8e:	e8 39 ac ff ff       	callq  76cc <safe_mod_func_int32_t_s_s>
    ca93:	48 8b 85 80 e8 ff ff 	mov    -0x1780(%rbp),%rax
    ca9a:	48 85 c0             	test   %rax,%rax
    ca9d:	0f 94 c0             	sete   %al
    caa0:	0f b6 d0             	movzbl %al,%edx
    caa3:	48 8b 05 7e 7d 01 00 	mov    0x17d7e(%rip),%rax        # 24828 <g_64>
    caaa:	0f b6 00             	movzbl (%rax),%eax
    caad:	0f b6 c8             	movzbl %al,%ecx
    cab0:	0f b7 85 68 e1 ff ff 	movzwl -0x1e98(%rbp),%eax
    cab7:	98                   	cwtl   
    cab8:	39 c1                	cmp    %eax,%ecx
    caba:	0f 94 c0             	sete   %al
    cabd:	0f b6 c8             	movzbl %al,%ecx
    cac0:	48 8b 85 58 e1 ff ff 	mov    -0x1ea8(%rbp),%rax
    cac7:	48 21 c1             	and    %rax,%rcx
    caca:	48 8b 85 d0 e3 ff ff 	mov    -0x1c30(%rbp),%rax
    cad1:	48 89 08             	mov    %rcx,(%rax)
    cad4:	48 8b 85 d0 e3 ff ff 	mov    -0x1c30(%rbp),%rax
    cadb:	48 8b 00             	mov    (%rax),%rax
    cade:	48 89 85 58 e1 ff ff 	mov    %rax,-0x1ea8(%rbp)
    cae5:	48 8b 85 58 e1 ff ff 	mov    -0x1ea8(%rbp),%rax
    caec:	48 89 d6             	mov    %rdx,%rsi
    caef:	48 89 c7             	mov    %rax,%rdi
    caf2:	e8 4a ad ff ff       	callq  7841 <safe_add_func_int64_t_s_s>
    caf7:	0f b6 c0             	movzbl %al,%eax
    cafa:	89 de                	mov    %ebx,%esi
    cafc:	89 c7                	mov    %eax,%edi
    cafe:	e8 8a b1 ff ff       	callq  7c8d <safe_rshift_func_uint8_t_u_s>
    cb03:	0f b6 d0             	movzbl %al,%edx
    cb06:	48 83 bd c8 e3 ff ff 	cmpq   $0x0,-0x1c38(%rbp)
    cb0d:	00 
    cb0e:	0f 94 c0             	sete   %al
    cb11:	0f b6 c0             	movzbl %al,%eax
    cb14:	89 d6                	mov    %edx,%esi
    cb16:	89 c7                	mov    %eax,%edi
    cb18:	e8 b3 b3 ff ff       	callq  7ed0 <safe_sub_func_uint32_t_u_u>
    cb1d:	85 c0                	test   %eax,%eax
    cb1f:	0f 84 31 03 00 00    	je     ce56 <func_31+0x2ce4>
    cb25:	c7 85 1c e2 ff ff f6 	movl   $0xfffffff6,-0x1de4(%rbp)
    cb2c:	ff ff ff 
    cb2f:	c7 85 20 e2 ff ff fa 	movl   $0xfffffffa,-0x1de0(%rbp)
    cb36:	ff ff ff 
    cb39:	48 8d 85 78 e2 ff ff 	lea    -0x1d88(%rbp),%rax
    cb40:	48 89 85 a8 e2 ff ff 	mov    %rax,-0x1d58(%rbp)
    cb47:	48 8d 85 a8 e2 ff ff 	lea    -0x1d58(%rbp),%rax
    cb4e:	48 89 85 00 e4 ff ff 	mov    %rax,-0x1c00(%rbp)
    cb55:	c7 05 f9 d4 00 00 00 	movl   $0x0,0xd4f9(%rip)        # 1a058 <g_97>
    cb5c:	00 00 00 
    cb5f:	e9 9b 02 00 00       	jmpq   cdff <func_31+0x2c8d>
    cb64:	48 8d 85 70 e5 ff ff 	lea    -0x1a90(%rbp),%rax
    cb6b:	48 89 85 b0 e5 ff ff 	mov    %rax,-0x1a50(%rbp)
    cb72:	48 8d 85 70 e5 ff ff 	lea    -0x1a90(%rbp),%rax
    cb79:	48 89 85 b8 e5 ff ff 	mov    %rax,-0x1a48(%rbp)
    cb80:	48 8d 85 70 e5 ff ff 	lea    -0x1a90(%rbp),%rax
    cb87:	48 89 85 c0 e5 ff ff 	mov    %rax,-0x1a40(%rbp)
    cb8e:	48 8d 85 70 e5 ff ff 	lea    -0x1a90(%rbp),%rax
    cb95:	48 89 85 c8 e5 ff ff 	mov    %rax,-0x1a38(%rbp)
    cb9c:	48 8d 85 70 e5 ff ff 	lea    -0x1a90(%rbp),%rax
    cba3:	48 89 85 d0 e5 ff ff 	mov    %rax,-0x1a30(%rbp)
    cbaa:	48 8d 85 70 e5 ff ff 	lea    -0x1a90(%rbp),%rax
    cbb1:	48 89 85 d8 e5 ff ff 	mov    %rax,-0x1a28(%rbp)
    cbb8:	48 8d 85 70 e5 ff ff 	lea    -0x1a90(%rbp),%rax
    cbbf:	48 89 85 e0 e5 ff ff 	mov    %rax,-0x1a20(%rbp)
    cbc6:	48 8d 85 70 e5 ff ff 	lea    -0x1a90(%rbp),%rax
    cbcd:	48 89 85 e8 e5 ff ff 	mov    %rax,-0x1a18(%rbp)
    cbd4:	c7 85 ec e1 ff ff 00 	movl   $0x0,-0x1e14(%rbp)
    cbdb:	00 00 00 
    cbde:	eb 1e                	jmp    cbfe <func_31+0x2a8c>
    cbe0:	8b 85 ec e1 ff ff    	mov    -0x1e14(%rbp),%eax
    cbe6:	48 98                	cltq   
    cbe8:	48 8d 95 90 e2 ff ff 	lea    -0x1d70(%rbp),%rdx
    cbef:	48 89 94 c5 70 e5 ff 	mov    %rdx,-0x1a90(%rbp,%rax,8)
    cbf6:	ff 
    cbf7:	83 85 ec e1 ff ff 01 	addl   $0x1,-0x1e14(%rbp)
    cbfe:	83 bd ec e1 ff ff 00 	cmpl   $0x0,-0x1e14(%rbp)
    cc05:	7e d9                	jle    cbe0 <func_31+0x2a6e>
    cc07:	48 8b 05 62 6a 01 00 	mov    0x16a62(%rip),%rax        # 23670 <g_96>
    cc0e:	8b 00                	mov    (%rax),%eax
    cc10:	41 89 c6             	mov    %eax,%r14d
    cc13:	48 8b 85 c0 e3 ff ff 	mov    -0x1c40(%rbp),%rax
    cc1a:	48 8b 00             	mov    (%rax),%rax
    cc1d:	8b 00                	mov    (%rax),%eax
    cc1f:	48 63 d8             	movslq %eax,%rbx
    cc22:	0f b7 85 68 e1 ff ff 	movzwl -0x1e98(%rbp),%eax
    cc29:	4c 0f bf e0          	movswq %ax,%r12
    cc2d:	48 8d 85 90 e2 ff ff 	lea    -0x1d70(%rbp),%rax
    cc34:	48 89 85 e8 e6 ff ff 	mov    %rax,-0x1918(%rbp)
    cc3b:	48 8b 85 e8 e6 ff ff 	mov    -0x1918(%rbp),%rax
    cc42:	48 39 85 d8 e3 ff ff 	cmp    %rax,-0x1c28(%rbp)
    cc49:	75 07                	jne    cc52 <func_31+0x2ae0>
    cc4b:	ba 01 00 00 00       	mov    $0x1,%edx
    cc50:	eb 05                	jmp    cc57 <func_31+0x2ae5>
    cc52:	ba 00 00 00 00       	mov    $0x0,%edx
    cc57:	48 8b 05 9a 6d 01 00 	mov    0x16d9a(%rip),%rax        # 239f8 <g_645>
    cc5e:	48 8b 00             	mov    (%rax),%rax
    cc61:	0f b7 00             	movzwl (%rax),%eax
    cc64:	0f b7 c0             	movzwl %ax,%eax
    cc67:	31 c2                	xor    %eax,%edx
    cc69:	48 8b 85 90 e2 ff ff 	mov    -0x1d70(%rbp),%rax
    cc70:	89 10                	mov    %edx,(%rax)
    cc72:	8b 00                	mov    (%rax),%eax
    cc74:	89 c2                	mov    %eax,%edx
    cc76:	48 8b 85 58 e1 ff ff 	mov    -0x1ea8(%rbp),%rax
    cc7d:	48 39 c2             	cmp    %rax,%rdx
    cc80:	0f 9c c0             	setl   %al
    cc83:	0f b6 d0             	movzbl %al,%edx
    cc86:	0f b7 85 68 e1 ff ff 	movzwl -0x1e98(%rbp),%eax
    cc8d:	0f b7 c0             	movzwl %ax,%eax
    cc90:	89 d6                	mov    %edx,%esi
    cc92:	89 c7                	mov    %eax,%edi
    cc94:	e8 a4 b0 ff ff       	callq  7d3d <safe_mul_func_uint16_t_u_u>
    cc99:	0f b6 c0             	movzbl %al,%eax
    cc9c:	be 06 00 00 00       	mov    $0x6,%esi
    cca1:	89 c7                	mov    %eax,%edi
    cca3:	e8 5d af ff ff       	callq  7c05 <safe_lshift_func_uint8_t_u_s>
    cca8:	44 0f b6 e8          	movzbl %al,%r13d
    ccac:	8b 85 1c e2 ff ff    	mov    -0x1de4(%rbp),%eax
    ccb2:	0f b6 c0             	movzbl %al,%eax
    ccb5:	be 04 00 00 00       	mov    $0x4,%esi
    ccba:	89 c7                	mov    %eax,%edi
    ccbc:	e8 fd af ff ff       	callq  7cbe <safe_rshift_func_uint8_t_u_u>
    ccc1:	0f b6 c0             	movzbl %al,%eax
    ccc4:	f7 d0                	not    %eax
    ccc6:	98                   	cwtl   
    ccc7:	be 0c 00 00 00       	mov    $0xc,%esi
    cccc:	89 c7                	mov    %eax,%edi
    ccce:	e8 0e a8 ff ff       	callq  74e1 <safe_lshift_func_int16_t_s_u>
    ccd3:	66 3d de 00          	cmp    $0xde,%ax
    ccd7:	0f 9e c0             	setle  %al
    ccda:	0f b6 d0             	movzbl %al,%edx
    ccdd:	8b 85 1c e2 ff ff    	mov    -0x1de4(%rbp),%eax
    cce3:	0f be c0             	movsbl %al,%eax
    cce6:	89 d6                	mov    %edx,%esi
    cce8:	89 c7                	mov    %eax,%edi
    ccea:	e8 7d a6 ff ff       	callq  736c <safe_rshift_func_int8_t_s_u>
    ccef:	48 0f be c0          	movsbq %al,%rax
    ccf3:	4c 89 ee             	mov    %r13,%rsi
    ccf6:	48 89 c7             	mov    %rax,%rdi
    ccf9:	e8 f9 ac ff ff       	callq  79f7 <safe_div_func_int64_t_s_s>
    ccfe:	48 8b 95 d0 e3 ff ff 	mov    -0x1c30(%rbp),%rdx
    cd05:	48 89 02             	mov    %rax,(%rdx)
    cd08:	48 8b 85 d0 e3 ff ff 	mov    -0x1c30(%rbp),%rax
    cd0f:	48 8b 00             	mov    (%rax),%rax
    cd12:	48 be a2 20 eb 64 31 	movabs $0x3aca83164eb20a2,%rsi
    cd19:	a8 ac 03 
    cd1c:	48 89 c7             	mov    %rax,%rdi
    cd1f:	e8 84 ab ff ff       	callq  78a8 <safe_sub_func_int64_t_s_s>
    cd24:	4c 89 e6             	mov    %r12,%rsi
    cd27:	48 89 c7             	mov    %rax,%rdi
    cd2a:	e8 ff b2 ff ff       	callq  802e <safe_add_func_uint64_t_u_u>
    cd2f:	48 8b 95 58 e1 ff ff 	mov    -0x1ea8(%rbp),%rdx
    cd36:	48 39 d0             	cmp    %rdx,%rax
    cd39:	0f 94 c0             	sete   %al
    cd3c:	0f b6 c0             	movzbl %al,%eax
    cd3f:	39 85 20 e2 ff ff    	cmp    %eax,-0x1de0(%rbp)
    cd45:	7f 07                	jg     cd4e <func_31+0x2bdc>
    cd47:	b8 7f 00 00 00       	mov    $0x7f,%eax
    cd4c:	eb 05                	jmp    cd53 <func_31+0x2be1>
    cd4e:	b8 7e 00 00 00       	mov    $0x7e,%eax
    cd53:	be 01 00 00 00       	mov    $0x1,%esi
    cd58:	89 c7                	mov    %eax,%edi
    cd5a:	e8 0b a5 ff ff       	callq  726a <safe_div_func_int8_t_s_s>
    cd5f:	3c 01                	cmp    $0x1,%al
    cd61:	0f 95 c0             	setne  %al
    cd64:	0f b6 c0             	movzbl %al,%eax
    cd67:	48 89 de             	mov    %rbx,%rsi
    cd6a:	48 89 c7             	mov    %rax,%rdi
    cd6d:	e8 0e b3 ff ff       	callq  8080 <safe_mod_func_uint64_t_u_u>
    cd72:	44 89 f6             	mov    %r14d,%esi
    cd75:	89 c7                	mov    %eax,%edi
    cd77:	e8 54 b1 ff ff       	callq  7ed0 <safe_sub_func_uint32_t_u_u>
    cd7c:	0f b7 15 29 d6 00 00 	movzwl 0xd629(%rip),%edx        # 1a3ac <g_647>
    cd83:	0f b7 d2             	movzwl %dx,%edx
    cd86:	39 d0                	cmp    %edx,%eax
    cd88:	0f 97 c0             	seta   %al
    cd8b:	0f b6 c8             	movzbl %al,%ecx
    cd8e:	48 8b 85 58 e2 ff ff 	mov    -0x1da8(%rbp),%rax
    cd95:	8b 10                	mov    (%rax),%edx
    cd97:	48 8b 85 58 e2 ff ff 	mov    -0x1da8(%rbp),%rax
    cd9e:	31 ca                	xor    %ecx,%edx
    cda0:	89 10                	mov    %edx,(%rax)
    cda2:	48 8b 85 58 e2 ff ff 	mov    -0x1da8(%rbp),%rax
    cda9:	8b 08                	mov    (%rax),%ecx
    cdab:	48 83 bd 00 e4 ff ff 	cmpq   $0x0,-0x1c00(%rbp)
    cdb2:	00 
    cdb3:	0f 95 c0             	setne  %al
    cdb6:	0f b6 d0             	movzbl %al,%edx
    cdb9:	48 8b 85 58 e2 ff ff 	mov    -0x1da8(%rbp),%rax
    cdc0:	31 ca                	xor    %ecx,%edx
    cdc2:	89 10                	mov    %edx,(%rax)
    cdc4:	0f b7 05 e1 d5 00 00 	movzwl 0xd5e1(%rip),%eax        # 1a3ac <g_647>
    cdcb:	66 85 c0             	test   %ax,%ax
    cdce:	74 05                	je     cdd5 <func_31+0x2c63>
    cdd0:	e9 6d f3 ff ff       	jmpq   c142 <func_31+0x1fd0>
    cdd5:	0f b6 05 74 47 01 00 	movzbl 0x14774(%rip),%eax        # 21550 <g_2160>
    cddc:	84 c0                	test   %al,%al
    cdde:	74 05                	je     cde5 <func_31+0x2c73>
    cde0:	e9 83 d8 ff ff       	jmpq   a668 <func_31+0x4f6>
    cde5:	8b 05 6d d2 00 00    	mov    0xd26d(%rip),%eax        # 1a058 <g_97>
    cdeb:	98                   	cwtl   
    cdec:	be 06 00 00 00       	mov    $0x6,%esi
    cdf1:	89 c7                	mov    %eax,%edi
    cdf3:	e8 db a5 ff ff       	callq  73d3 <safe_sub_func_int16_t_s_s>
    cdf8:	98                   	cwtl   
    cdf9:	89 05 59 d2 00 00    	mov    %eax,0xd259(%rip)        # 1a058 <g_97>
    cdff:	8b 05 53 d2 00 00    	mov    0xd253(%rip),%eax        # 1a058 <g_97>
    ce05:	83 f8 fb             	cmp    $0xfffffffb,%eax
    ce08:	0f 8c 56 fd ff ff    	jl     cb64 <func_31+0x29f2>
    ce0e:	48 8b 85 58 e2 ff ff 	mov    -0x1da8(%rbp),%rax
    ce15:	8b 00                	mov    (%rax),%eax
    ce17:	66 89 05 74 d3 00 00 	mov    %ax,0xd374(%rip)        # 1a192 <g_174>
    ce1e:	0f b7 05 6d d3 00 00 	movzwl 0xd36d(%rip),%eax        # 1a192 <g_174>
    ce25:	66 3d 64 58          	cmp    $0x5864,%ax
    ce29:	7f 0c                	jg     ce37 <func_31+0x2cc5>
    ce2b:	48 b8 75 9a 13 2e ba 	movabs $0x22b4bfba2e139a75,%rax
    ce32:	bf b4 22 
    ce35:	eb 0a                	jmp    ce41 <func_31+0x2ccf>
    ce37:	48 b8 74 9a 13 2e ba 	movabs $0x22b4bfba2e139a74,%rax
    ce3e:	bf b4 22 
    ce41:	89 c2                	mov    %eax,%edx
    ce43:	8b 85 6c e1 ff ff    	mov    -0x1e94(%rbp),%eax
    ce49:	21 d0                	and    %edx,%eax
    ce4b:	89 85 6c e1 ff ff    	mov    %eax,-0x1e94(%rbp)
    ce51:	e9 95 00 00 00       	jmpq   ceeb <func_31+0x2d79>
    ce56:	c7 85 f0 e1 ff ff 00 	movl   $0x0,-0x1e10(%rbp)
    ce5d:	00 00 00 
    ce60:	eb 1e                	jmp    ce80 <func_31+0x2d0e>
    ce62:	8b 85 f0 e1 ff ff    	mov    -0x1e10(%rbp),%eax
    ce68:	48 98                	cltq   
    ce6a:	48 8d 15 2b d4 00 00 	lea    0xd42b(%rip),%rdx        # 1a29c <g_294+0xc>
    ce71:	48 89 94 c5 b0 e5 ff 	mov    %rdx,-0x1a50(%rbp,%rax,8)
    ce78:	ff 
    ce79:	83 85 f0 e1 ff ff 01 	addl   $0x1,-0x1e10(%rbp)
    ce80:	83 bd f0 e1 ff ff 02 	cmpl   $0x2,-0x1e10(%rbp)
    ce87:	7e d9                	jle    ce62 <func_31+0x2cf0>
    ce89:	c6 05 c0 46 01 00 00 	movb   $0x0,0x146c0(%rip)        # 21550 <g_2160>
    ce90:	eb 1e                	jmp    ceb0 <func_31+0x2d3e>
    ce92:	48 8d 85 6c e1 ff ff 	lea    -0x1e94(%rbp),%rax
    ce99:	48 89 85 c0 e5 ff ff 	mov    %rax,-0x1a40(%rbp)
    cea0:	0f b6 05 a9 46 01 00 	movzbl 0x146a9(%rip),%eax        # 21550 <g_2160>
    cea7:	83 e8 01             	sub    $0x1,%eax
    ceaa:	88 05 a0 46 01 00    	mov    %al,0x146a0(%rip)        # 21550 <g_2160>
    ceb0:	0f b6 05 99 46 01 00 	movzbl 0x14699(%rip),%eax        # 21550 <g_2160>
    ceb7:	3c f8                	cmp    $0xf8,%al
    ceb9:	7d d7                	jge    ce92 <func_31+0x2d20>
    cebb:	48 8b 05 f6 73 01 00 	mov    0x173f6(%rip),%rax        # 242b8 <g_2369>
    cec2:	48 8b 95 20 e3 ff ff 	mov    -0x1ce0(%rbp),%rdx
    cec9:	48 89 10             	mov    %rdx,(%rax)
    cecc:	48 8b 85 58 e2 ff ff 	mov    -0x1da8(%rbp),%rax
    ced3:	8b 95 6c e1 ff ff    	mov    -0x1e94(%rbp),%edx
    ced9:	89 10                	mov    %edx,(%rax)
    cedb:	0f b6 85 76 e1 ff ff 	movzbl -0x1e8a(%rbp),%eax
    cee2:	83 c0 01             	add    $0x1,%eax
    cee5:	88 85 76 e1 ff ff    	mov    %al,-0x1e8a(%rbp)
    ceeb:	48 8b 85 58 e2 ff ff 	mov    -0x1da8(%rbp),%rax
    cef2:	8b 10                	mov    (%rax),%edx
    cef4:	48 8b 85 58 e2 ff ff 	mov    -0x1da8(%rbp),%rax
    cefb:	83 ca 06             	or     $0x6,%edx
    cefe:	89 10                	mov    %edx,(%rax)
    cf00:	eb 3a                	jmp    cf3c <func_31+0x2dca>
    cf02:	48 8b 05 1f 79 01 00 	mov    0x1791f(%rip),%rax        # 24828 <g_64>
    cf09:	0f b6 10             	movzbl (%rax),%edx
    cf0c:	8d 4a 01             	lea    0x1(%rdx),%ecx
    cf0f:	88 08                	mov    %cl,(%rax)
    cf11:	0f b6 c2             	movzbl %dl,%eax
    cf14:	89 c6                	mov    %eax,%esi
    cf16:	bf 77 00 00 00       	mov    $0x77,%edi
    cf1b:	e8 9e ad ff ff       	callq  7cbe <safe_rshift_func_uint8_t_u_u>
    cf20:	84 c0                	test   %al,%al
    cf22:	0f 95 c0             	setne  %al
    cf25:	0f b6 c8             	movzbl %al,%ecx
    cf28:	48 8b 85 58 e2 ff ff 	mov    -0x1da8(%rbp),%rax
    cf2f:	8b 10                	mov    (%rax),%edx
    cf31:	48 8b 85 58 e2 ff ff 	mov    -0x1da8(%rbp),%rax
    cf38:	21 ca                	and    %ecx,%edx
    cf3a:	89 10                	mov    %edx,(%rax)
    cf3c:	c7 05 3e 45 01 00 0e 	movl   $0xe,0x1453e(%rip)        # 21484 <g_1990+0x24>
    cf43:	00 00 00 
    cf46:	90                   	nop
    cf47:	8b 05 37 45 01 00    	mov    0x14537(%rip),%eax        # 21484 <g_1990+0x24>
    cf4d:	83 f8 25             	cmp    $0x25,%eax
    cf50:	0f 85 c6 03 00 00    	jne    d31c <func_31+0x31aa>
    cf56:	c6 85 77 e1 ff ff b7 	movb   $0xb7,-0x1e89(%rbp)
    cf5d:	c7 85 24 e2 ff ff ed 	movl   $0xf8522aed,-0x1ddc(%rbp)
    cf64:	2a 52 f8 
    cf67:	c7 85 f4 e1 ff ff cc 	movl   $0xdc33facc,-0x1e0c(%rbp)
    cf6e:	fa 33 dc 
    cf71:	48 c7 85 08 e4 ff ff 	movq   $0x0,-0x1bf8(%rbp)
    cf78:	00 00 00 00 
    cf7c:	c7 05 ca 46 01 00 00 	movl   $0x0,0x146ca(%rip)        # 21650 <g_2293>
    cf83:	00 00 00 
    cf86:	e9 76 03 00 00       	jmpq   d301 <func_31+0x318f>
    cf8b:	48 8d 05 d6 72 01 00 	lea    0x172d6(%rip),%rax        # 24268 <g_2092+0x8>
    cf92:	48 89 85 10 e4 ff ff 	mov    %rax,-0x1bf0(%rbp)
    cf99:	c7 85 28 e2 ff ff 04 	movl   $0x4,-0x1dd8(%rbp)
    cfa0:	00 00 00 
    cfa3:	c7 85 f8 e1 ff ff 00 	movl   $0x0,-0x1e08(%rbp)
    cfaa:	00 00 00 
    cfad:	eb 14                	jmp    cfc3 <func_31+0x2e51>
    cfaf:	8b 85 f8 e1 ff ff    	mov    -0x1e08(%rbp),%eax
    cfb5:	48 98                	cltq   
    cfb7:	c6 44 05 c1 ff       	movb   $0xff,-0x3f(%rbp,%rax,1)
    cfbc:	83 85 f8 e1 ff ff 01 	addl   $0x1,-0x1e08(%rbp)
    cfc3:	83 bd f8 e1 ff ff 05 	cmpl   $0x5,-0x1e08(%rbp)
    cfca:	7e e3                	jle    cfaf <func_31+0x2e3d>
    cfcc:	c7 85 6c e1 ff ff 06 	movl   $0x6,-0x1e94(%rbp)
    cfd3:	00 00 00 
    cfd6:	e9 09 03 00 00       	jmpq   d2e4 <func_31+0x3172>
    cfdb:	c7 85 2c e2 ff ff ff 	movl   $0xffffffff,-0x1dd4(%rbp)
    cfe2:	ff ff ff 
    cfe5:	c7 85 30 e2 ff ff d2 	movl   $0xea9bd6d2,-0x1dd0(%rbp)
    cfec:	d6 9b ea 
    cfef:	48 c7 85 18 e4 ff ff 	movq   $0x0,-0x1be8(%rbp)
    cff6:	00 00 00 00 
    cffa:	48 8d 85 50 e2 ff ff 	lea    -0x1db0(%rbp),%rax
    d001:	48 89 85 20 e4 ff ff 	mov    %rax,-0x1be0(%rbp)
    d008:	c7 85 fc e1 ff ff 00 	movl   $0x0,-0x1e04(%rbp)
    d00f:	00 00 00 
    d012:	eb 1b                	jmp    d02f <func_31+0x2ebd>
    d014:	8b 85 fc e1 ff ff    	mov    -0x1e04(%rbp),%eax
    d01a:	48 98                	cltq   
    d01c:	48 c7 84 c5 d0 e6 ff 	movq   $0x0,-0x1930(%rbp,%rax,8)
    d023:	ff 00 00 00 00 
    d028:	83 85 fc e1 ff ff 01 	addl   $0x1,-0x1e04(%rbp)
    d02f:	83 bd fc e1 ff ff 04 	cmpl   $0x4,-0x1e04(%rbp)
    d036:	7e dc                	jle    d014 <func_31+0x2ea2>
    d038:	80 ad 77 e1 ff ff 01 	subb   $0x1,-0x1e89(%rbp)
    d03f:	48 8b 05 b2 69 01 00 	mov    0x169b2(%rip),%rax        # 239f8 <g_645>
    d046:	48 8b 00             	mov    (%rax),%rax
    d049:	0f b7 00             	movzwl (%rax),%eax
    d04c:	0f bf d8             	movswl %ax,%ebx
    d04f:	48 8b 85 58 e2 ff ff 	mov    -0x1da8(%rbp),%rax
    d056:	8b 00                	mov    (%rax),%eax
    d058:	44 0f be e0          	movsbl %al,%r12d
    d05c:	8b 85 6c e1 ff ff    	mov    -0x1e94(%rbp),%eax
    d062:	8b 15 e8 45 01 00    	mov    0x145e8(%rip),%edx        # 21650 <g_2293>
    d068:	89 d1                	mov    %edx,%ecx
    d06a:	48 63 d0             	movslq %eax,%rdx
    d06d:	48 89 d0             	mov    %rdx,%rax
    d070:	48 c1 e0 03          	shl    $0x3,%rax
    d074:	48 29 d0             	sub    %rdx,%rax
    d077:	48 01 c8             	add    %rcx,%rax
    d07a:	0f b7 84 45 60 e6 ff 	movzwl -0x19a0(%rbp,%rax,2),%eax
    d081:	ff 
    d082:	0f b7 c0             	movzwl %ax,%eax
    d085:	89 85 b0 e1 ff ff    	mov    %eax,-0x1e50(%rbp)
    d08b:	44 8b ad 6c e1 ff ff 	mov    -0x1e94(%rbp),%r13d
    d092:	48 8b 85 58 e2 ff ff 	mov    -0x1da8(%rbp),%rax
    d099:	8b 00                	mov    (%rax),%eax
    d09b:	4c 63 f0             	movslq %eax,%r14
    d09e:	44 0f b6 bd 77 e1 ff 	movzbl -0x1e89(%rbp),%r15d
    d0a5:	ff 
    d0a6:	0f b7 85 68 e1 ff ff 	movzwl -0x1e98(%rbp),%eax
    d0ad:	98                   	cwtl   
    d0ae:	89 85 4c e1 ff ff    	mov    %eax,-0x1eb4(%rbp)
    d0b4:	8b 05 96 45 01 00    	mov    0x14596(%rip),%eax        # 21650 <g_2293>
    d0ba:	8d 48 02             	lea    0x2(%rax),%ecx
    d0bd:	8b 05 8d 45 01 00    	mov    0x1458d(%rip),%eax        # 21650 <g_2293>
    d0c3:	89 c2                	mov    %eax,%edx
    d0c5:	89 c8                	mov    %ecx,%eax
    d0c7:	48 c1 e0 02          	shl    $0x2,%rax
    d0cb:	48 8d 4d d0          	lea    -0x30(%rbp),%rcx
    d0cf:	48 01 c8             	add    %rcx,%rax
    d0d2:	48 01 d0             	add    %rdx,%rax
    d0d5:	48 2d 00 1b 00 00    	sub    $0x1b00,%rax
    d0db:	0f b6 00             	movzbl (%rax),%eax
    d0de:	0f b6 c8             	movzbl %al,%ecx
    d0e1:	89 8d 48 e1 ff ff    	mov    %ecx,-0x1eb8(%rbp)
    d0e7:	8b 05 63 45 01 00    	mov    0x14563(%rip),%eax        # 21650 <g_2293>
    d0ed:	8d 48 02             	lea    0x2(%rax),%ecx
    d0f0:	8b 05 5a 45 01 00    	mov    0x1455a(%rip),%eax        # 21650 <g_2293>
    d0f6:	89 c2                	mov    %eax,%edx
    d0f8:	89 c8                	mov    %ecx,%eax
    d0fa:	48 c1 e0 02          	shl    $0x2,%rax
    d0fe:	48 8d 7d d0          	lea    -0x30(%rbp),%rdi
    d102:	48 01 f8             	add    %rdi,%rax
    d105:	48 01 d0             	add    %rdx,%rax
    d108:	48 2d 00 1b 00 00    	sub    $0x1b00,%rax
    d10e:	0f b6 00             	movzbl (%rax),%eax
    d111:	0f b6 c0             	movzbl %al,%eax
    d114:	48 8b 95 58 e1 ff ff 	mov    -0x1ea8(%rbp),%rdx
    d11b:	09 95 30 e2 ff ff    	or     %edx,-0x1dd0(%rbp)
    d121:	39 85 30 e2 ff ff    	cmp    %eax,-0x1dd0(%rbp)
    d127:	0f 9e 85 6b e1 ff ff 	setle  -0x1e95(%rbp)
    d12e:	0f b7 85 68 e1 ff ff 	movzwl -0x1e98(%rbp),%eax
    d135:	0f bf d0             	movswl %ax,%edx
    d138:	89 95 44 e1 ff ff    	mov    %edx,-0x1ebc(%rbp)
    d13e:	0f b7 85 68 e1 ff ff 	movzwl -0x1e98(%rbp),%eax
    d145:	48 0f bf d0          	movswq %ax,%rdx
    d149:	48 8d 05 28 71 01 00 	lea    0x17128(%rip),%rax        # 24278 <g_2092+0x18>
    d150:	48 89 85 20 e4 ff ff 	mov    %rax,-0x1be0(%rbp)
    d157:	48 8b 85 58 e1 ff ff 	mov    -0x1ea8(%rbp),%rax
    d15e:	48 89 d6             	mov    %rdx,%rsi
    d161:	48 89 c7             	mov    %rax,%rdi
    d164:	e8 3f a7 ff ff       	callq  78a8 <safe_sub_func_int64_t_s_s>
    d169:	8b b5 44 e1 ff ff    	mov    -0x1ebc(%rbp),%esi
    d16f:	89 c7                	mov    %eax,%edi
    d171:	e8 89 a5 ff ff       	callq  76ff <safe_div_func_int32_t_s_s>
    d176:	89 85 24 e2 ff ff    	mov    %eax,-0x1ddc(%rbp)
    d17c:	8b 85 24 e2 ff ff    	mov    -0x1ddc(%rbp),%eax
    d182:	c1 e8 1f             	shr    $0x1f,%eax
    d185:	0a 85 6b e1 ff ff    	or     -0x1e95(%rbp),%al
    d18b:	0f b6 c0             	movzbl %al,%eax
    d18e:	8b b5 48 e1 ff ff    	mov    -0x1eb8(%rbp),%esi
    d194:	89 c7                	mov    %eax,%edi
    d196:	e8 1d ad ff ff       	callq  7eb8 <safe_add_func_uint32_t_u_u>
    d19b:	48 8b 85 58 e2 ff ff 	mov    -0x1da8(%rbp),%rax
    d1a2:	8b 00                	mov    (%rax),%eax
    d1a4:	8b b5 4c e1 ff ff    	mov    -0x1eb4(%rbp),%esi
    d1aa:	89 c7                	mov    %eax,%edi
    d1ac:	e8 54 a4 ff ff       	callq  7605 <safe_sub_func_int32_t_s_s>
    d1b1:	89 c2                	mov    %eax,%edx
    d1b3:	8b 05 97 44 01 00    	mov    0x14497(%rip),%eax        # 21650 <g_2293>
    d1b9:	8d 70 02             	lea    0x2(%rax),%esi
    d1bc:	8b 05 8e 44 01 00    	mov    0x1448e(%rip),%eax        # 21650 <g_2293>
    d1c2:	89 c1                	mov    %eax,%ecx
    d1c4:	89 f0                	mov    %esi,%eax
    d1c6:	48 c1 e0 02          	shl    $0x2,%rax
    d1ca:	48 8d 75 d0          	lea    -0x30(%rbp),%rsi
    d1ce:	48 01 f0             	add    %rsi,%rax
    d1d1:	48 01 c8             	add    %rcx,%rax
    d1d4:	48 2d 00 1b 00 00    	sub    $0x1b00,%rax
    d1da:	0f b6 00             	movzbl (%rax),%eax
    d1dd:	0f b6 c0             	movzbl %al,%eax
    d1e0:	25 fa 00 00 00       	and    $0xfa,%eax
    d1e5:	89 d6                	mov    %edx,%esi
    d1e7:	89 c7                	mov    %eax,%edi
    d1e9:	e8 d0 aa ff ff       	callq  7cbe <safe_rshift_func_uint8_t_u_u>
    d1ee:	0f b6 d0             	movzbl %al,%edx
    d1f1:	8b 85 6c e1 ff ff    	mov    -0x1e94(%rbp),%eax
    d1f7:	39 c2                	cmp    %eax,%edx
    d1f9:	0f 95 c0             	setne  %al
    d1fc:	0f b6 c0             	movzbl %al,%eax
    d1ff:	44 89 fe             	mov    %r15d,%esi
    d202:	89 c7                	mov    %eax,%edi
    d204:	e8 51 a9 ff ff       	callq  7b5a <safe_add_func_uint8_t_u_u>
    d209:	0f b6 c0             	movzbl %al,%eax
    d20c:	39 85 2c e2 ff ff    	cmp    %eax,-0x1dd4(%rbp)
    d212:	0f 9e c0             	setle  %al
    d215:	0f b6 c0             	movzbl %al,%eax
    d218:	be 07 00 00 00       	mov    $0x7,%esi
    d21d:	89 c7                	mov    %eax,%edi
    d21f:	e8 9a aa ff ff       	callq  7cbe <safe_rshift_func_uint8_t_u_u>
    d224:	0f b6 c0             	movzbl %al,%eax
    d227:	4c 89 f6             	mov    %r14,%rsi
    d22a:	48 89 c7             	mov    %rax,%rdi
    d22d:	e8 0f a6 ff ff       	callq  7841 <safe_add_func_int64_t_s_s>
    d232:	0f b6 c0             	movzbl %al,%eax
    d235:	44 89 ee             	mov    %r13d,%esi
    d238:	89 c7                	mov    %eax,%edi
    d23a:	e8 c6 a9 ff ff       	callq  7c05 <safe_lshift_func_uint8_t_u_s>
    d23f:	0f b6 c0             	movzbl %al,%eax
    d242:	39 85 b0 e1 ff ff    	cmp    %eax,-0x1e50(%rbp)
    d248:	0f 9e c0             	setle  %al
    d24b:	0f b6 d0             	movzbl %al,%edx
    d24e:	48 8b 85 00 e3 ff ff 	mov    -0x1d00(%rbp),%rax
    d255:	0f b6 00             	movzbl (%rax),%eax
    d258:	09 c2                	or     %eax,%edx
    d25a:	48 8b 85 00 e3 ff ff 	mov    -0x1d00(%rbp),%rax
    d261:	88 10                	mov    %dl,(%rax)
    d263:	48 8b 85 00 e3 ff ff 	mov    -0x1d00(%rbp),%rax
    d26a:	0f b6 10             	movzbl (%rax),%edx
    d26d:	0f b6 45 c2          	movzbl -0x3e(%rbp),%eax
    d271:	31 d0                	xor    %edx,%eax
    d273:	88 45 c2             	mov    %al,-0x3e(%rbp)
    d276:	0f b6 45 c2          	movzbl -0x3e(%rbp),%eax
    d27a:	0f be c0             	movsbl %al,%eax
    d27d:	44 89 e6             	mov    %r12d,%esi
    d280:	89 c7                	mov    %eax,%edi
    d282:	e8 4d 9f ff ff       	callq  71d4 <safe_add_func_int8_t_s_s>
    d287:	89 de                	mov    %ebx,%esi
    d289:	bf 01 00 00 00       	mov    $0x1,%edi
    d28e:	e8 c2 a1 ff ff       	callq  7455 <safe_div_func_int16_t_s_s>
    d293:	0f bf d0             	movswl %ax,%edx
    d296:	8b 05 50 d0 00 00    	mov    0xd050(%rip),%eax        # 1a2ec <g_405>
    d29c:	21 d0                	and    %edx,%eax
    d29e:	89 05 48 d0 00 00    	mov    %eax,0xd048(%rip)        # 1a2ec <g_405>
    d2a4:	8b 05 42 d0 00 00    	mov    0xd042(%rip),%eax        # 1a2ec <g_405>
    d2aa:	89 85 28 e2 ff ff    	mov    %eax,-0x1dd8(%rbp)
    d2b0:	48 8b 05 61 41 01 00 	mov    0x14161(%rip),%rax        # 21418 <g_1976+0x78>
    d2b7:	48 c1 e8 20          	shr    $0x20,%rax
    d2bb:	25 ff ff ff 7f       	and    $0x7fffffff,%eax
    d2c0:	89 c7                	mov    %eax,%edi
    d2c2:	e8 df ab ff ff       	callq  7ea6 <safe_unary_minus_func_uint32_t_u>
    d2c7:	8b 95 f4 e1 ff ff    	mov    -0x1e0c(%rbp),%edx
    d2cd:	31 d0                	xor    %edx,%eax
    d2cf:	89 85 f4 e1 ff ff    	mov    %eax,-0x1e0c(%rbp)
    d2d5:	8b 85 6c e1 ff ff    	mov    -0x1e94(%rbp),%eax
    d2db:	83 e8 01             	sub    $0x1,%eax
    d2de:	89 85 6c e1 ff ff    	mov    %eax,-0x1e94(%rbp)
    d2e4:	8b 85 6c e1 ff ff    	mov    -0x1e94(%rbp),%eax
    d2ea:	85 c0                	test   %eax,%eax
    d2ec:	0f 89 e9 fc ff ff    	jns    cfdb <func_31+0x2e69>
    d2f2:	8b 05 58 43 01 00    	mov    0x14358(%rip),%eax        # 21650 <g_2293>
    d2f8:	83 c0 01             	add    $0x1,%eax
    d2fb:	89 05 4f 43 01 00    	mov    %eax,0x1434f(%rip)        # 21650 <g_2293>
    d301:	8b 05 49 43 01 00    	mov    0x14349(%rip),%eax        # 21650 <g_2293>
    d307:	83 f8 03             	cmp    $0x3,%eax
    d30a:	0f 86 7b fc ff ff    	jbe    cf8b <func_31+0x2e19>
    d310:	48 8b 85 08 e4 ff ff 	mov    -0x1bf8(%rbp),%rax
    d317:	e9 1f 02 00 00       	jmpq   d53b <func_31+0x33c9>
    d31c:	48 8b 85 70 e3 ff ff 	mov    -0x1c90(%rbp),%rax
    d323:	48 8b 00             	mov    (%rax),%rax
    d326:	48 8b 00             	mov    (%rax),%rax
    d329:	48 8d 95 6c e1 ff ff 	lea    -0x1e94(%rbp),%rdx
    d330:	48 89 10             	mov    %rdx,(%rax)
    d333:	48 8b 05 fe 6e 01 00 	mov    0x16efe(%rip),%rax        # 24238 <g_1890>
    d33a:	48 8b 85 58 e1 ff ff 	mov    -0x1ea8(%rbp),%rax
    d341:	98                   	cwtl   
    d342:	89 c7                	mov    %eax,%edi
    d344:	e8 54 a0 ff ff       	callq  739d <safe_unary_minus_func_int16_t_s>
    d349:	0f bf d0             	movswl %ax,%edx
    d34c:	8b 85 6c e1 ff ff    	mov    -0x1e94(%rbp),%eax
    d352:	21 c2                	and    %eax,%edx
    d354:	48 8b 85 70 e3 ff ff 	mov    -0x1c90(%rbp),%rax
    d35b:	48 8b 00             	mov    (%rax),%rax
    d35e:	48 8b 00             	mov    (%rax),%rax
    d361:	48 8b 00             	mov    (%rax),%rax
    d364:	8b 00                	mov    (%rax),%eax
    d366:	39 c2                	cmp    %eax,%edx
    d368:	0f 95 c0             	setne  %al
    d36b:	0f b6 c0             	movzbl %al,%eax
    d36e:	be 0f 00 00 00       	mov    $0xf,%esi
    d373:	89 c7                	mov    %eax,%edi
    d375:	e8 44 aa ff ff       	callq  7dbe <safe_lshift_func_uint16_t_u_s>
    d37a:	48 8b 85 58 e2 ff ff 	mov    -0x1da8(%rbp),%rax
    d381:	8b 00                	mov    (%rax),%eax
    d383:	85 c0                	test   %eax,%eax
    d385:	0f 85 09 01 00 00    	jne    d494 <func_31+0x3322>
    d38b:	e9 3b 01 00 00       	jmpq   d4cb <func_31+0x3359>
    d390:	66 c7 85 7a e1 ff ff 	movw   $0xfff9,-0x1e86(%rbp)
    d397:	f9 ff 
    d399:	48 8d 85 60 e2 ff ff 	lea    -0x1da0(%rbp),%rax
    d3a0:	48 89 85 80 e3 ff ff 	mov    %rax,-0x1c80(%rbp)
    d3a7:	66 c7 85 7c e1 ff ff 	movw   $0x809b,-0x1e84(%rbp)
    d3ae:	9b 80 
    d3b0:	c7 85 00 e2 ff ff 7e 	movl   $0x56e26e7e,-0x1e00(%rbp)
    d3b7:	6e e2 56 
    d3ba:	8b 05 04 43 01 00    	mov    0x14304(%rip),%eax        # 216c4 <g_2413+0x24>
    d3c0:	0f be d8             	movsbl %al,%ebx
    d3c3:	0f b7 85 68 e1 ff ff 	movzwl -0x1e98(%rbp),%eax
    d3ca:	0f b7 c0             	movzwl %ax,%eax
    d3cd:	be 0c 00 00 00       	mov    $0xc,%esi
    d3d2:	89 c7                	mov    %eax,%edi
    d3d4:	e8 e5 a9 ff ff       	callq  7dbe <safe_lshift_func_uint16_t_u_s>
    d3d9:	0f b7 d0             	movzwl %ax,%edx
    d3dc:	48 8b 05 fd 65 01 00 	mov    0x165fd(%rip),%rax        # 239e0 <g_586>
    d3e3:	0f b7 00             	movzwl (%rax),%eax
    d3e6:	0f b7 c0             	movzwl %ax,%eax
    d3e9:	89 d6                	mov    %edx,%esi
    d3eb:	89 c7                	mov    %eax,%edi
    d3ed:	e8 9c a9 ff ff       	callq  7d8e <safe_div_func_uint16_t_u_u>
    d3f2:	48 8b 85 50 e1 ff ff 	mov    -0x1eb0(%rbp),%rax
    d3f9:	48 8b 00             	mov    (%rax),%rax
    d3fc:	49 89 c4             	mov    %rax,%r12
    d3ff:	48 8b 85 58 e3 ff ff 	mov    -0x1ca8(%rbp),%rax
    d406:	48 c7 00 00 00 00 00 	movq   $0x0,(%rax)
    d40d:	48 8b 85 58 e3 ff ff 	mov    -0x1ca8(%rbp),%rax
    d414:	48 8b 00             	mov    (%rax),%rax
    d417:	48 39 85 80 e3 ff ff 	cmp    %rax,-0x1c80(%rbp)
    d41e:	0f 94 c0             	sete   %al
    d421:	0f b6 d0             	movzbl %al,%edx
    d424:	48 0f bf 85 7a e1 ff 	movswq -0x1e86(%rbp),%rax
    d42b:	ff 
    d42c:	48 89 d6             	mov    %rdx,%rsi
    d42f:	48 89 c7             	mov    %rax,%rdi
    d432:	e8 0a a4 ff ff       	callq  7841 <safe_add_func_int64_t_s_s>
    d437:	4c 89 e6             	mov    %r12,%rsi
    d43a:	48 89 c7             	mov    %rax,%rdi
    d43d:	e8 b5 a5 ff ff       	callq  79f7 <safe_div_func_int64_t_s_s>
    d442:	0f b7 c0             	movzwl %ax,%eax
    d445:	be 99 89 00 00       	mov    $0x8999,%esi
    d44a:	89 c7                	mov    %eax,%edi
    d44c:	e8 ce a8 ff ff       	callq  7d1f <safe_sub_func_uint16_t_u_u>
    d451:	66 89 85 7c e1 ff ff 	mov    %ax,-0x1e84(%rbp)
    d458:	66 83 bd 7c e1 ff ff 	cmpw   $0x0,-0x1e84(%rbp)
    d45f:	00 
    d460:	0f 95 c0             	setne  %al
    d463:	0f b6 c0             	movzbl %al,%eax
    d466:	89 de                	mov    %ebx,%esi
    d468:	89 c7                	mov    %eax,%edi
    d46a:	e8 c2 9d ff ff       	callq  7231 <safe_mod_func_int8_t_s_s>
    d46f:	89 c2                	mov    %eax,%edx
    d471:	48 8b 85 58 e2 ff ff 	mov    -0x1da8(%rbp),%rax
    d478:	0f be d2             	movsbl %dl,%edx
    d47b:	89 10                	mov    %edx,(%rax)
    d47d:	8b 00                	mov    (%rax),%eax
    d47f:	89 85 00 e2 ff ff    	mov    %eax,-0x1e00(%rbp)
    d485:	48 8b 05 0c 65 01 00 	mov    0x1650c(%rip),%rax        # 23998 <g_445>
    d48c:	48 8b 00             	mov    (%rax),%rax
    d48f:	e9 a7 00 00 00       	jmpq   d53b <func_31+0x33c9>
    d494:	48 8b 05 8d 73 01 00 	mov    0x1738d(%rip),%rax        # 24828 <g_64>
    d49b:	0f b6 10             	movzbl (%rax),%edx
    d49e:	83 ea 01             	sub    $0x1,%edx
    d4a1:	88 10                	mov    %dl,(%rax)
    d4a3:	0f b6 10             	movzbl (%rax),%edx
    d4a6:	48 8b 85 58 e2 ff ff 	mov    -0x1da8(%rbp),%rax
    d4ad:	8b 08                	mov    (%rax),%ecx
    d4af:	0f b6 d2             	movzbl %dl,%edx
    d4b2:	48 8b 85 58 e2 ff ff 	mov    -0x1da8(%rbp),%rax
    d4b9:	09 ca                	or     %ecx,%edx
    d4bb:	89 10                	mov    %edx,(%rax)
    d4bd:	8b 00                	mov    (%rax),%eax
    d4bf:	83 f8 60             	cmp    $0x60,%eax
    d4c2:	74 07                	je     d4cb <func_31+0x3359>
    d4c4:	b8 01 00 00 00       	mov    $0x1,%eax
    d4c9:	eb 05                	jmp    d4d0 <func_31+0x335e>
    d4cb:	b8 00 00 00 00       	mov    $0x0,%eax
    d4d0:	48 63 d0             	movslq %eax,%rdx
    d4d3:	48 8b 85 70 e3 ff ff 	mov    -0x1c90(%rbp),%rax
    d4da:	48 8b 00             	mov    (%rax),%rax
    d4dd:	48 8b 00             	mov    (%rax),%rax
    d4e0:	48 8b 00             	mov    (%rax),%rax
    d4e3:	8b 00                	mov    (%rax),%eax
    d4e5:	48 98                	cltq   
    d4e7:	48 89 d6             	mov    %rdx,%rsi
    d4ea:	48 89 c7             	mov    %rax,%rdi
    d4ed:	e8 3c ab ff ff       	callq  802e <safe_add_func_uint64_t_u_u>
    d4f2:	be 08 00 00 00       	mov    $0x8,%esi
    d4f7:	89 c7                	mov    %eax,%edi
    d4f9:	e8 27 aa ff ff       	callq  7f25 <safe_div_func_uint32_t_u_u>
    d4fe:	83 e0 01             	and    $0x1,%eax
    d501:	89 c2                	mov    %eax,%edx
    d503:	48 8b 85 70 e3 ff ff 	mov    -0x1c90(%rbp),%rax
    d50a:	48 8b 00             	mov    (%rax),%rax
    d50d:	48 8b 00             	mov    (%rax),%rax
    d510:	48 8b 00             	mov    (%rax),%rax
    d513:	8b 00                	mov    (%rax),%eax
    d515:	39 c2                	cmp    %eax,%edx
    d517:	0f 96 c0             	setbe  %al
    d51a:	0f b6 d0             	movzbl %al,%edx
    d51d:	48 8b 85 60 e3 ff ff 	mov    -0x1ca0(%rbp),%rax
    d524:	8b 00                	mov    (%rax),%eax
    d526:	31 c2                	xor    %eax,%edx
    d528:	48 8b 85 60 e3 ff ff 	mov    -0x1ca0(%rbp),%rax
    d52f:	89 10                	mov    %edx,(%rax)
    d531:	48 8b 05 60 64 01 00 	mov    0x16460(%rip),%rax        # 23998 <g_445>
    d538:	48 8b 00             	mov    (%rax),%rax
    d53b:	48 8b 5d c8          	mov    -0x38(%rbp),%rbx
    d53f:	64 48 33 1c 25 28 00 	xor    %fs:0x28,%rbx
    d546:	00 00 
    d548:	74 05                	je     d54f <func_31+0x33dd>
    d54a:	e8 21 9b ff ff       	callq  7070 <__stack_chk_fail@plt>
    d54f:	48 81 c4 98 1e 00 00 	add    $0x1e98,%rsp
    d556:	5b                   	pop    %rbx
    d557:	41 5c                	pop    %r12
    d559:	41 5d                	pop    %r13
    d55b:	41 5e                	pop    %r14
    d55d:	41 5f                	pop    %r15
    d55f:	5d                   	pop    %rbp
    d560:	c3                   	retq   

000000000000d561 <func_49>:
    d561:	f3 0f 1e fa          	endbr64 
    d565:	55                   	push   %rbp
    d566:	48 89 e5             	mov    %rsp,%rbp
    d569:	41 57                	push   %r15
    d56b:	41 56                	push   %r14
    d56d:	41 55                	push   %r13
    d56f:	41 54                	push   %r12
    d571:	53                   	push   %rbx
    d572:	48 81 ec 00 10 00 00 	sub    $0x1000,%rsp
    d579:	48 83 0c 24 00       	orq    $0x0,(%rsp)
    d57e:	48 83 ec 78          	sub    $0x78,%rsp
    d582:	89 bd 6c ef ff ff    	mov    %edi,-0x1094(%rbp)
    d588:	89 f0                	mov    %esi,%eax
    d58a:	48 89 95 60 ef ff ff 	mov    %rdx,-0x10a0(%rbp)
    d591:	66 89 85 68 ef ff ff 	mov    %ax,-0x1098(%rbp)
    d598:	64 48 8b 04 25 28 00 	mov    %fs:0x28,%rax
    d59f:	00 00 
    d5a1:	48 89 45 c8          	mov    %rax,-0x38(%rbp)
    d5a5:	31 c0                	xor    %eax,%eax
    d5a7:	66 c7 85 76 ef ff ff 	movw   $0x0,-0x108a(%rbp)
    d5ae:	00 00 
    d5b0:	c7 85 84 ef ff ff 34 	movl   $0x7ac25d34,-0x107c(%rbp)
    d5b7:	5d c2 7a 
    d5ba:	c7 85 78 ef ff ff 8e 	movl   $0x89c6738e,-0x1088(%rbp)
    d5c1:	73 c6 89 
    d5c4:	48 8d 85 70 f7 ff ff 	lea    -0x890(%rbp),%rax
    d5cb:	48 8d 15 8e 7a 00 00 	lea    0x7a8e(%rip),%rdx        # 15060 <g_243+0x8>
    d5d2:	b9 69 00 00 00       	mov    $0x69,%ecx
    d5d7:	48 89 c7             	mov    %rax,%rdi
    d5da:	48 89 d6             	mov    %rdx,%rsi
    d5dd:	f3 48 a5             	rep movsq %ds:(%rsi),%es:(%rdi)
    d5e0:	66 c7 85 72 ef ff ff 	movw   $0xffff,-0x108e(%rbp)
    d5e7:	ff ff 
    d5e9:	66 c7 85 74 ef ff ff 	movw   $0xfffd,-0x108c(%rbp)
    d5f0:	fd ff 
    d5f2:	48 c7 85 98 ef ff ff 	movq   $0x0,-0x1068(%rbp)
    d5f9:	00 00 00 00 
    d5fd:	48 8d 85 98 ef ff ff 	lea    -0x1068(%rbp),%rax
    d604:	48 89 85 a0 ef ff ff 	mov    %rax,-0x1060(%rbp)
    d60b:	48 8d 85 a0 ef ff ff 	lea    -0x1060(%rbp),%rax
    d612:	48 89 85 f0 f2 ff ff 	mov    %rax,-0xd10(%rbp)
    d619:	48 8d 85 a0 ef ff ff 	lea    -0x1060(%rbp),%rax
    d620:	48 89 85 f8 f2 ff ff 	mov    %rax,-0xd08(%rbp)
    d627:	48 8d 85 a0 ef ff ff 	lea    -0x1060(%rbp),%rax
    d62e:	48 89 85 00 f3 ff ff 	mov    %rax,-0xd00(%rbp)
    d635:	48 8d 85 a0 ef ff ff 	lea    -0x1060(%rbp),%rax
    d63c:	48 89 85 08 f3 ff ff 	mov    %rax,-0xcf8(%rbp)
    d643:	48 8d 85 a0 ef ff ff 	lea    -0x1060(%rbp),%rax
    d64a:	48 89 85 10 f3 ff ff 	mov    %rax,-0xcf0(%rbp)
    d651:	48 8d 85 a0 ef ff ff 	lea    -0x1060(%rbp),%rax
    d658:	48 89 85 18 f3 ff ff 	mov    %rax,-0xce8(%rbp)
    d65f:	48 8d 85 a0 ef ff ff 	lea    -0x1060(%rbp),%rax
    d666:	48 89 85 20 f3 ff ff 	mov    %rax,-0xce0(%rbp)
    d66d:	48 8d 85 a0 ef ff ff 	lea    -0x1060(%rbp),%rax
    d674:	48 89 85 28 f3 ff ff 	mov    %rax,-0xcd8(%rbp)
    d67b:	48 8d 85 a0 ef ff ff 	lea    -0x1060(%rbp),%rax
    d682:	48 89 85 30 f3 ff ff 	mov    %rax,-0xcd0(%rbp)
    d689:	48 8d 85 a0 ef ff ff 	lea    -0x1060(%rbp),%rax
    d690:	48 89 85 38 f3 ff ff 	mov    %rax,-0xcc8(%rbp)
    d697:	48 8d 85 a0 ef ff ff 	lea    -0x1060(%rbp),%rax
    d69e:	48 89 85 40 f3 ff ff 	mov    %rax,-0xcc0(%rbp)
    d6a5:	48 8d 85 a0 ef ff ff 	lea    -0x1060(%rbp),%rax
    d6ac:	48 89 85 48 f3 ff ff 	mov    %rax,-0xcb8(%rbp)
    d6b3:	48 8d 85 a0 ef ff ff 	lea    -0x1060(%rbp),%rax
    d6ba:	48 89 85 50 f3 ff ff 	mov    %rax,-0xcb0(%rbp)
    d6c1:	48 8d 85 a0 ef ff ff 	lea    -0x1060(%rbp),%rax
    d6c8:	48 89 85 58 f3 ff ff 	mov    %rax,-0xca8(%rbp)
    d6cf:	48 8d 85 a0 ef ff ff 	lea    -0x1060(%rbp),%rax
    d6d6:	48 89 85 60 f3 ff ff 	mov    %rax,-0xca0(%rbp)
    d6dd:	48 8d 85 a0 ef ff ff 	lea    -0x1060(%rbp),%rax
    d6e4:	48 89 85 68 f3 ff ff 	mov    %rax,-0xc98(%rbp)
    d6eb:	48 8d 85 a0 ef ff ff 	lea    -0x1060(%rbp),%rax
    d6f2:	48 89 85 70 f3 ff ff 	mov    %rax,-0xc90(%rbp)
    d6f9:	48 8d 85 a0 ef ff ff 	lea    -0x1060(%rbp),%rax
    d700:	48 89 85 78 f3 ff ff 	mov    %rax,-0xc88(%rbp)
    d707:	48 8d 85 a0 ef ff ff 	lea    -0x1060(%rbp),%rax
    d70e:	48 89 85 80 f3 ff ff 	mov    %rax,-0xc80(%rbp)
    d715:	48 8d 85 a0 ef ff ff 	lea    -0x1060(%rbp),%rax
    d71c:	48 89 85 88 f3 ff ff 	mov    %rax,-0xc78(%rbp)
    d723:	48 8d 85 a0 ef ff ff 	lea    -0x1060(%rbp),%rax
    d72a:	48 89 85 90 f3 ff ff 	mov    %rax,-0xc70(%rbp)
    d731:	48 8d 85 a0 ef ff ff 	lea    -0x1060(%rbp),%rax
    d738:	48 89 85 98 f3 ff ff 	mov    %rax,-0xc68(%rbp)
    d73f:	48 8d 85 a0 ef ff ff 	lea    -0x1060(%rbp),%rax
    d746:	48 89 85 a0 f3 ff ff 	mov    %rax,-0xc60(%rbp)
    d74d:	48 8d 85 a0 ef ff ff 	lea    -0x1060(%rbp),%rax
    d754:	48 89 85 a8 f3 ff ff 	mov    %rax,-0xc58(%rbp)
    d75b:	48 8d 85 a0 ef ff ff 	lea    -0x1060(%rbp),%rax
    d762:	48 89 85 b0 f3 ff ff 	mov    %rax,-0xc50(%rbp)
    d769:	48 8d 85 a0 ef ff ff 	lea    -0x1060(%rbp),%rax
    d770:	48 89 85 b8 f3 ff ff 	mov    %rax,-0xc48(%rbp)
    d777:	48 8d 85 a0 ef ff ff 	lea    -0x1060(%rbp),%rax
    d77e:	48 89 85 c0 f3 ff ff 	mov    %rax,-0xc40(%rbp)
    d785:	48 8d 85 a0 ef ff ff 	lea    -0x1060(%rbp),%rax
    d78c:	48 89 85 c8 f3 ff ff 	mov    %rax,-0xc38(%rbp)
    d793:	48 8d 85 a0 ef ff ff 	lea    -0x1060(%rbp),%rax
    d79a:	48 89 85 d0 f3 ff ff 	mov    %rax,-0xc30(%rbp)
    d7a1:	48 8d 85 a0 ef ff ff 	lea    -0x1060(%rbp),%rax
    d7a8:	48 89 85 d8 f3 ff ff 	mov    %rax,-0xc28(%rbp)
    d7af:	48 8d 85 a0 ef ff ff 	lea    -0x1060(%rbp),%rax
    d7b6:	48 89 85 e0 f3 ff ff 	mov    %rax,-0xc20(%rbp)
    d7bd:	48 8d 85 a0 ef ff ff 	lea    -0x1060(%rbp),%rax
    d7c4:	48 89 85 e8 f3 ff ff 	mov    %rax,-0xc18(%rbp)
    d7cb:	48 8d 85 a0 ef ff ff 	lea    -0x1060(%rbp),%rax
    d7d2:	48 89 85 f0 f3 ff ff 	mov    %rax,-0xc10(%rbp)
    d7d9:	48 8d 85 a0 ef ff ff 	lea    -0x1060(%rbp),%rax
    d7e0:	48 89 85 f8 f3 ff ff 	mov    %rax,-0xc08(%rbp)
    d7e7:	48 8d 85 a0 ef ff ff 	lea    -0x1060(%rbp),%rax
    d7ee:	48 89 85 00 f4 ff ff 	mov    %rax,-0xc00(%rbp)
    d7f5:	48 8d 85 a0 ef ff ff 	lea    -0x1060(%rbp),%rax
    d7fc:	48 89 85 08 f4 ff ff 	mov    %rax,-0xbf8(%rbp)
    d803:	48 8d 85 a0 ef ff ff 	lea    -0x1060(%rbp),%rax
    d80a:	48 89 85 10 f4 ff ff 	mov    %rax,-0xbf0(%rbp)
    d811:	48 8d 85 a0 ef ff ff 	lea    -0x1060(%rbp),%rax
    d818:	48 89 85 18 f4 ff ff 	mov    %rax,-0xbe8(%rbp)
    d81f:	48 8d 85 a0 ef ff ff 	lea    -0x1060(%rbp),%rax
    d826:	48 89 85 20 f4 ff ff 	mov    %rax,-0xbe0(%rbp)
    d82d:	48 8d 85 a0 ef ff ff 	lea    -0x1060(%rbp),%rax
    d834:	48 89 85 28 f4 ff ff 	mov    %rax,-0xbd8(%rbp)
    d83b:	48 8d 85 a0 ef ff ff 	lea    -0x1060(%rbp),%rax
    d842:	48 89 85 30 f4 ff ff 	mov    %rax,-0xbd0(%rbp)
    d849:	48 8d 85 a0 ef ff ff 	lea    -0x1060(%rbp),%rax
    d850:	48 89 85 38 f4 ff ff 	mov    %rax,-0xbc8(%rbp)
    d857:	48 8d 85 a0 ef ff ff 	lea    -0x1060(%rbp),%rax
    d85e:	48 89 85 40 f4 ff ff 	mov    %rax,-0xbc0(%rbp)
    d865:	48 8d 85 a0 ef ff ff 	lea    -0x1060(%rbp),%rax
    d86c:	48 89 85 48 f4 ff ff 	mov    %rax,-0xbb8(%rbp)
    d873:	48 8d 85 a0 ef ff ff 	lea    -0x1060(%rbp),%rax
    d87a:	48 89 85 50 f4 ff ff 	mov    %rax,-0xbb0(%rbp)
    d881:	48 8d 85 a0 ef ff ff 	lea    -0x1060(%rbp),%rax
    d888:	48 89 85 58 f4 ff ff 	mov    %rax,-0xba8(%rbp)
    d88f:	48 8d 85 a0 ef ff ff 	lea    -0x1060(%rbp),%rax
    d896:	48 89 85 60 f4 ff ff 	mov    %rax,-0xba0(%rbp)
    d89d:	48 8d 85 a0 ef ff ff 	lea    -0x1060(%rbp),%rax
    d8a4:	48 89 85 68 f4 ff ff 	mov    %rax,-0xb98(%rbp)
    d8ab:	48 8d 85 a0 ef ff ff 	lea    -0x1060(%rbp),%rax
    d8b2:	48 89 85 70 f4 ff ff 	mov    %rax,-0xb90(%rbp)
    d8b9:	48 8d 85 a0 ef ff ff 	lea    -0x1060(%rbp),%rax
    d8c0:	48 89 85 78 f4 ff ff 	mov    %rax,-0xb88(%rbp)
    d8c7:	48 8d 85 a0 ef ff ff 	lea    -0x1060(%rbp),%rax
    d8ce:	48 89 85 80 f4 ff ff 	mov    %rax,-0xb80(%rbp)
    d8d5:	48 8d 85 a0 ef ff ff 	lea    -0x1060(%rbp),%rax
    d8dc:	48 89 85 88 f4 ff ff 	mov    %rax,-0xb78(%rbp)
    d8e3:	48 8d 85 a0 ef ff ff 	lea    -0x1060(%rbp),%rax
    d8ea:	48 89 85 90 f4 ff ff 	mov    %rax,-0xb70(%rbp)
    d8f1:	48 8d 85 a0 ef ff ff 	lea    -0x1060(%rbp),%rax
    d8f8:	48 89 85 98 f4 ff ff 	mov    %rax,-0xb68(%rbp)
    d8ff:	48 8d 85 a0 ef ff ff 	lea    -0x1060(%rbp),%rax
    d906:	48 89 85 a0 f4 ff ff 	mov    %rax,-0xb60(%rbp)
    d90d:	48 8d 85 a0 ef ff ff 	lea    -0x1060(%rbp),%rax
    d914:	48 89 85 a8 f4 ff ff 	mov    %rax,-0xb58(%rbp)
    d91b:	48 8d 85 a0 ef ff ff 	lea    -0x1060(%rbp),%rax
    d922:	48 89 85 b0 f4 ff ff 	mov    %rax,-0xb50(%rbp)
    d929:	48 8d 85 a0 ef ff ff 	lea    -0x1060(%rbp),%rax
    d930:	48 89 85 b8 f4 ff ff 	mov    %rax,-0xb48(%rbp)
    d937:	48 8d 85 a0 ef ff ff 	lea    -0x1060(%rbp),%rax
    d93e:	48 89 85 c0 f4 ff ff 	mov    %rax,-0xb40(%rbp)
    d945:	48 8d 85 a0 ef ff ff 	lea    -0x1060(%rbp),%rax
    d94c:	48 89 85 c8 f4 ff ff 	mov    %rax,-0xb38(%rbp)
    d953:	48 8d 85 a0 ef ff ff 	lea    -0x1060(%rbp),%rax
    d95a:	48 89 85 d0 f4 ff ff 	mov    %rax,-0xb30(%rbp)
    d961:	48 8d 85 a0 ef ff ff 	lea    -0x1060(%rbp),%rax
    d968:	48 89 85 d8 f4 ff ff 	mov    %rax,-0xb28(%rbp)
    d96f:	48 8d 85 a0 ef ff ff 	lea    -0x1060(%rbp),%rax
    d976:	48 89 85 e0 f4 ff ff 	mov    %rax,-0xb20(%rbp)
    d97d:	48 8d 05 44 6f 01 00 	lea    0x16f44(%rip),%rax        # 248c8 <g_1473>
    d984:	48 89 85 08 f0 ff ff 	mov    %rax,-0xff8(%rbp)
    d98b:	48 b8 fe 14 47 ae e4 	movabs $0x212e26e4ae4714fe,%rax
    d992:	26 2e 21 
    d995:	48 89 85 10 f0 ff ff 	mov    %rax,-0xff0(%rbp)
    d99c:	48 8d 85 78 ef ff ff 	lea    -0x1088(%rbp),%rax
    d9a3:	48 89 85 18 f0 ff ff 	mov    %rax,-0xfe8(%rbp)
    d9aa:	48 c7 85 20 f0 ff ff 	movq   $0x0,-0xfe0(%rbp)
    d9b1:	00 00 00 00 
    d9b5:	48 8d 05 b4 2d 01 00 	lea    0x12db4(%rip),%rax        # 20770 <g_1334+0x230>
    d9bc:	48 89 85 28 f0 ff ff 	mov    %rax,-0xfd8(%rbp)
    d9c3:	48 c7 45 1f 00 00 00 	movq   $0x0,0x1f(%rbp)
    d9ca:	00 
    d9cb:	90                   	nop
    d9cc:	48 8b 45 1f          	mov    0x1f(%rbp),%rax
    d9d0:	48 83 f8 1a          	cmp    $0x1a,%rax
    d9d4:	0f 86 15 06 00 00    	jbe    dfef <func_49+0xa8e>
    d9da:	66 c7 85 b0 ef ff ff 	movw   $0x0,-0x1050(%rbp)
    d9e1:	00 00 
    d9e3:	c7 85 88 ef ff ff b8 	movl   $0x9e2c48b8,-0x1078(%rbp)
    d9ea:	48 2c 9e 
    d9ed:	48 c7 85 d0 ef ff ff 	movq   $0x0,-0x1030(%rbp)
    d9f4:	00 00 00 00 
    d9f8:	48 8d 05 d9 6e 01 00 	lea    0x16ed9(%rip),%rax        # 248d8 <g_1530>
    d9ff:	48 89 85 d8 ef ff ff 	mov    %rax,-0x1028(%rbp)
    da06:	48 8d 05 fd 1a 01 00 	lea    0x11afd(%rip),%rax        # 1f50a <g_1243+0x2>
    da0d:	48 89 85 80 f0 ff ff 	mov    %rax,-0xf80(%rbp)
    da14:	48 8d 85 b0 ef ff ff 	lea    -0x1050(%rbp),%rax
    da1b:	48 89 85 88 f0 ff ff 	mov    %rax,-0xf78(%rbp)
    da22:	48 8d 05 e1 1a 01 00 	lea    0x11ae1(%rip),%rax        # 1f50a <g_1243+0x2>
    da29:	48 89 85 90 f0 ff ff 	mov    %rax,-0xf70(%rbp)
    da30:	48 8d 05 d3 1a 01 00 	lea    0x11ad3(%rip),%rax        # 1f50a <g_1243+0x2>
    da37:	48 89 85 98 f0 ff ff 	mov    %rax,-0xf68(%rbp)
    da3e:	48 c7 85 a0 f0 ff ff 	movq   $0x0,-0xf60(%rbp)
    da45:	00 00 00 00 
    da49:	48 8d 05 ba 1a 01 00 	lea    0x11aba(%rip),%rax        # 1f50a <g_1243+0x2>
    da50:	48 89 85 a8 f0 ff ff 	mov    %rax,-0xf58(%rbp)
    da57:	48 8d 05 ac 1a 01 00 	lea    0x11aac(%rip),%rax        # 1f50a <g_1243+0x2>
    da5e:	48 89 85 b0 f0 ff ff 	mov    %rax,-0xf50(%rbp)
    da65:	48 8d 05 e4 1a 01 00 	lea    0x11ae4(%rip),%rax        # 1f550 <g_1281>
    da6c:	48 89 85 b8 f0 ff ff 	mov    %rax,-0xf48(%rbp)
    da73:	48 8d 05 3c 1a 01 00 	lea    0x11a3c(%rip),%rax        # 1f4b6 <g_997+0x36>
    da7a:	48 89 85 c0 f0 ff ff 	mov    %rax,-0xf40(%rbp)
    da81:	48 8d 05 2e 1a 01 00 	lea    0x11a2e(%rip),%rax        # 1f4b6 <g_997+0x36>
    da88:	48 89 85 c8 f0 ff ff 	mov    %rax,-0xf38(%rbp)
    da8f:	48 8d 85 b0 ef ff ff 	lea    -0x1050(%rbp),%rax
    da96:	48 89 85 d0 f0 ff ff 	mov    %rax,-0xf30(%rbp)
    da9d:	48 8d 05 12 1a 01 00 	lea    0x11a12(%rip),%rax        # 1f4b6 <g_997+0x36>
    daa4:	48 89 85 d8 f0 ff ff 	mov    %rax,-0xf28(%rbp)
    daab:	48 8d 05 58 1a 01 00 	lea    0x11a58(%rip),%rax        # 1f50a <g_1243+0x2>
    dab2:	48 89 85 e0 f0 ff ff 	mov    %rax,-0xf20(%rbp)
    dab9:	48 c7 85 e8 f0 ff ff 	movq   $0x0,-0xf18(%rbp)
    dac0:	00 00 00 00 
    dac4:	48 8d 05 3f 1a 01 00 	lea    0x11a3f(%rip),%rax        # 1f50a <g_1243+0x2>
    dacb:	48 89 85 f0 f0 ff ff 	mov    %rax,-0xf10(%rbp)
    dad2:	48 8d 05 dd 19 01 00 	lea    0x119dd(%rip),%rax        # 1f4b6 <g_997+0x36>
    dad9:	48 89 85 f8 f0 ff ff 	mov    %rax,-0xf08(%rbp)
    dae0:	48 8d 85 b0 ef ff ff 	lea    -0x1050(%rbp),%rax
    dae7:	48 89 85 00 f1 ff ff 	mov    %rax,-0xf00(%rbp)
    daee:	48 8d 05 c1 19 01 00 	lea    0x119c1(%rip),%rax        # 1f4b6 <g_997+0x36>
    daf5:	48 89 85 08 f1 ff ff 	mov    %rax,-0xef8(%rbp)
    dafc:	48 8d 05 b3 19 01 00 	lea    0x119b3(%rip),%rax        # 1f4b6 <g_997+0x36>
    db03:	48 89 85 10 f1 ff ff 	mov    %rax,-0xef0(%rbp)
    db0a:	48 8d 05 3f 1a 01 00 	lea    0x11a3f(%rip),%rax        # 1f550 <g_1281>
    db11:	48 89 85 18 f1 ff ff 	mov    %rax,-0xee8(%rbp)
    db18:	48 8d 05 eb 19 01 00 	lea    0x119eb(%rip),%rax        # 1f50a <g_1243+0x2>
    db1f:	48 89 85 20 f1 ff ff 	mov    %rax,-0xee0(%rbp)
    db26:	48 8d 05 dd 19 01 00 	lea    0x119dd(%rip),%rax        # 1f50a <g_1243+0x2>
    db2d:	48 89 85 28 f1 ff ff 	mov    %rax,-0xed8(%rbp)
    db34:	48 c7 85 30 f1 ff ff 	movq   $0x0,-0xed0(%rbp)
    db3b:	00 00 00 00 
    db3f:	48 8d 05 c4 19 01 00 	lea    0x119c4(%rip),%rax        # 1f50a <g_1243+0x2>
    db46:	48 89 85 38 f1 ff ff 	mov    %rax,-0xec8(%rbp)
    db4d:	48 8d 05 b6 19 01 00 	lea    0x119b6(%rip),%rax        # 1f50a <g_1243+0x2>
    db54:	48 89 85 40 f1 ff ff 	mov    %rax,-0xec0(%rbp)
    db5b:	48 8d 85 b0 ef ff ff 	lea    -0x1050(%rbp),%rax
    db62:	48 89 85 48 f1 ff ff 	mov    %rax,-0xeb8(%rbp)
    db69:	48 8d 05 9a 19 01 00 	lea    0x1199a(%rip),%rax        # 1f50a <g_1243+0x2>
    db70:	48 89 85 50 f1 ff ff 	mov    %rax,-0xeb0(%rbp)
    db77:	48 8d 85 b0 ef ff ff 	lea    -0x1050(%rbp),%rax
    db7e:	48 89 85 58 f1 ff ff 	mov    %rax,-0xea8(%rbp)
    db85:	48 8d 05 7e 19 01 00 	lea    0x1197e(%rip),%rax        # 1f50a <g_1243+0x2>
    db8c:	48 89 85 60 f1 ff ff 	mov    %rax,-0xea0(%rbp)
    db93:	48 8d 05 70 19 01 00 	lea    0x11970(%rip),%rax        # 1f50a <g_1243+0x2>
    db9a:	48 89 85 68 f1 ff ff 	mov    %rax,-0xe98(%rbp)
    dba1:	48 c7 85 70 f1 ff ff 	movq   $0x0,-0xe90(%rbp)
    dba8:	00 00 00 00 
    dbac:	48 8d 05 57 19 01 00 	lea    0x11957(%rip),%rax        # 1f50a <g_1243+0x2>
    dbb3:	48 89 85 78 f1 ff ff 	mov    %rax,-0xe88(%rbp)
    dbba:	48 c7 85 b8 ef ff ff 	movq   $0x0,-0x1048(%rbp)
    dbc1:	00 00 00 00 
    dbc5:	48 8d 85 f0 f4 ff ff 	lea    -0xb10(%rbp),%rax
    dbcc:	48 8d 15 ed 77 00 00 	lea    0x77ed(%rip),%rdx        # 153c0 <g_243+0x368>
    dbd3:	b9 50 00 00 00       	mov    $0x50,%ecx
    dbd8:	48 89 c7             	mov    %rax,%rdi
    dbdb:	48 89 d6             	mov    %rdx,%rsi
    dbde:	f3 48 a5             	rep movsq %ds:(%rsi),%es:(%rdi)
    dbe1:	48 8d 05 10 5e 01 00 	lea    0x15e10(%rip),%rax        # 239f8 <g_645>
    dbe8:	48 89 85 c0 ef ff ff 	mov    %rax,-0x1040(%rbp)
    dbef:	48 c7 85 30 f0 ff ff 	movq   $0x0,-0xfd0(%rbp)
    dbf6:	00 00 00 00 
    dbfa:	48 8d 85 a0 ef ff ff 	lea    -0x1060(%rbp),%rax
    dc01:	48 89 85 38 f0 ff ff 	mov    %rax,-0xfc8(%rbp)
    dc08:	48 8d 85 a0 ef ff ff 	lea    -0x1060(%rbp),%rax
    dc0f:	48 89 85 40 f0 ff ff 	mov    %rax,-0xfc0(%rbp)
    dc16:	48 c7 85 48 f0 ff ff 	movq   $0x0,-0xfb8(%rbp)
    dc1d:	00 00 00 00 
    dc21:	48 8d 85 a0 ef ff ff 	lea    -0x1060(%rbp),%rax
    dc28:	48 89 85 50 f0 ff ff 	mov    %rax,-0xfb0(%rbp)
    dc2f:	48 c7 85 58 f0 ff ff 	movq   $0x0,-0xfa8(%rbp)
    dc36:	00 00 00 00 
    dc3a:	48 8d 85 a0 ef ff ff 	lea    -0x1060(%rbp),%rax
    dc41:	48 89 85 60 f0 ff ff 	mov    %rax,-0xfa0(%rbp)
    dc48:	48 8d 85 a0 ef ff ff 	lea    -0x1060(%rbp),%rax
    dc4f:	48 89 85 68 f0 ff ff 	mov    %rax,-0xf98(%rbp)
    dc56:	48 c7 85 70 f0 ff ff 	movq   $0x0,-0xf90(%rbp)
    dc5d:	00 00 00 00 
    dc61:	48 8d 85 a0 ef ff ff 	lea    -0x1060(%rbp),%rax
    dc68:	48 89 85 78 f0 ff ff 	mov    %rax,-0xf88(%rbp)
    dc6f:	c7 85 8c ef ff ff ce 	movl   $0xce35b0ce,-0x1074(%rbp)
    dc76:	b0 35 ce 
    dc79:	c7 85 90 ef ff ff 61 	movl   $0xe6dfe461,-0x1070(%rbp)
    dc80:	e4 df e6 
    dc83:	c6 85 70 ef ff ff a5 	movb   $0xa5,-0x1090(%rbp)
    dc8a:	48 8d 05 97 5a 01 00 	lea    0x15a97(%rip),%rax        # 23728 <g_126>
    dc91:	48 89 85 c8 ef ff ff 	mov    %rax,-0x1038(%rbp)
    dc98:	c7 05 4a c6 00 00 1d 	movl   $0x1d,0xc64a(%rip)        # 1a2ec <g_405>
    dc9f:	00 00 00 
    dca2:	eb 51                	jmp    dcf5 <func_49+0x794>
    dca4:	66 c7 05 47 c6 00 00 	movw   $0x9,0xc647(%rip)        # 1a2f4 <g_486>
    dcab:	09 00 
    dcad:	90                   	nop
    dcae:	0f b7 05 3f c6 00 00 	movzwl 0xc63f(%rip),%eax        # 1a2f4 <g_486>
    dcb5:	66 83 f8 09          	cmp    $0x9,%ax
    dcb9:	7f 0f                	jg     dcca <func_49+0x769>
    dcbb:	48 8b 05 66 6b 01 00 	mov    0x16b66(%rip),%rax        # 24828 <g_64>
    dcc2:	0f b6 00             	movzbl (%rax),%eax
    dcc5:	e9 71 09 00 00       	jmpq   e63b <func_49+0x10da>
    dcca:	48 8b 05 3f 5d 01 00 	mov    0x15d3f(%rip),%rax        # 23a10 <g_926>
    dcd1:	48 8b 00             	mov    (%rax),%rax
    dcd4:	48 c7 00 00 00 00 00 	movq   $0x0,(%rax)
    dcdb:	8b 05 0b c6 00 00    	mov    0xc60b(%rip),%eax        # 1a2ec <g_405>
    dce1:	98                   	cwtl   
    dce2:	be 05 00 00 00       	mov    $0x5,%esi
    dce7:	89 c7                	mov    %eax,%edi
    dce9:	e8 e5 96 ff ff       	callq  73d3 <safe_sub_func_int16_t_s_s>
    dcee:	98                   	cwtl   
    dcef:	89 05 f7 c5 00 00    	mov    %eax,0xc5f7(%rip)        # 1a2ec <g_405>
    dcf5:	8b 05 f1 c5 00 00    	mov    0xc5f1(%rip),%eax        # 1a2ec <g_405>
    dcfb:	83 f8 04             	cmp    $0x4,%eax
    dcfe:	74 a4                	je     dca4 <func_49+0x743>
    dd00:	66 c7 05 eb c5 00 00 	movw   $0x0,0xc5eb(%rip)        # 1a2f4 <g_486>
    dd07:	00 00 
    dd09:	eb 73                	jmp    dd7e <func_49+0x81d>
    dd0b:	be 0c 00 00 00       	mov    $0xc,%esi
    dd10:	bf a1 8e 00 00       	mov    $0x8ea1,%edi
    dd15:	e8 60 a1 ff ff       	callq  7e7a <safe_rshift_func_uint16_t_u_u>
    dd1a:	66 85 c0             	test   %ax,%ax
    dd1d:	74 29                	je     dd48 <func_49+0x7e7>
    dd1f:	0f b7 85 b0 ef ff ff 	movzwl -0x1050(%rbp),%eax
    dd26:	0f b7 d0             	movzwl %ax,%edx
    dd29:	48 0f bf 85 68 ef ff 	movswq -0x1098(%rbp),%rax
    dd30:	ff 
    dd31:	48 89 d6             	mov    %rdx,%rsi
    dd34:	48 89 c7             	mov    %rax,%rdi
    dd37:	e8 73 a3 ff ff       	callq  80af <safe_div_func_uint64_t_u_u>
    dd3c:	48 85 c0             	test   %rax,%rax
    dd3f:	74 07                	je     dd48 <func_49+0x7e7>
    dd41:	b8 01 00 00 00       	mov    $0x1,%eax
    dd46:	eb 05                	jmp    dd4d <func_49+0x7ec>
    dd48:	b8 00 00 00 00       	mov    $0x0,%eax
    dd4d:	3d fa 00 00 00       	cmp    $0xfa,%eax
    dd52:	0f 97 c0             	seta   %al
    dd55:	0f b6 c0             	movzbl %al,%eax
    dd58:	89 85 6c ef ff ff    	mov    %eax,-0x1094(%rbp)
    dd5e:	0f b7 05 8f c5 00 00 	movzwl 0xc58f(%rip),%eax        # 1a2f4 <g_486>
    dd65:	0f b6 c0             	movzbl %al,%eax
    dd68:	be 01 00 00 00       	mov    $0x1,%esi
    dd6d:	89 c7                	mov    %eax,%edi
    dd6f:	e8 04 9e ff ff       	callq  7b78 <safe_sub_func_uint8_t_u_u>
    dd74:	0f b6 c0             	movzbl %al,%eax
    dd77:	66 89 05 76 c5 00 00 	mov    %ax,0xc576(%rip)        # 1a2f4 <g_486>
    dd7e:	0f b7 05 6f c5 00 00 	movzwl 0xc56f(%rip),%eax        # 1a2f4 <g_486>
    dd85:	66 83 f8 ef          	cmp    $0xffef,%ax
    dd89:	7d 80                	jge    dd0b <func_49+0x7aa>
    dd8b:	0f b7 45 1d          	movzwl 0x1d(%rbp),%eax
    dd8f:	0f bf d8             	movswl %ax,%ebx
    dd92:	8b 45 27             	mov    0x27(%rbp),%eax
    dd95:	44 0f bf e0          	movswl %ax,%r12d
    dd99:	4c 0f bf ad 76 ef ff 	movswq -0x108a(%rbp),%r13
    dda0:	ff 
    dda1:	0f b6 05 40 c6 00 00 	movzbl 0xc640(%rip),%eax        # 1a3e8 <g_828+0x28>
    dda8:	01 c0                	add    %eax,%eax
    ddaa:	d0 f8                	sar    %al
    ddac:	0f be c0             	movsbl %al,%eax
    ddaf:	89 c6                	mov    %eax,%esi
    ddb1:	bf d5 15 00 00       	mov    $0x15d5,%edi
    ddb6:	e8 3a 96 ff ff       	callq  73f5 <safe_mul_func_int16_t_s_s>
    ddbb:	98                   	cwtl   
    ddbc:	89 c6                	mov    %eax,%esi
    ddbe:	bf 06 00 00 00       	mov    $0x6,%edi
    ddc3:	e8 26 95 ff ff       	callq  72ee <safe_lshift_func_int8_t_s_u>
    ddc8:	48 0f be c0          	movsbq %al,%rax
    ddcc:	4c 89 ee             	mov    %r13,%rsi
    ddcf:	48 89 c7             	mov    %rax,%rdi
    ddd2:	e8 74 a2 ff ff       	callq  804b <safe_sub_func_uint64_t_u_u>
    ddd7:	98                   	cwtl   
    ddd8:	44 89 e6             	mov    %r12d,%esi
    dddb:	89 c7                	mov    %eax,%edi
    dddd:	e8 34 96 ff ff       	callq  7416 <safe_mod_func_int16_t_s_s>
    dde2:	0f bf d0             	movswl %ax,%edx
    dde5:	48 8b 85 d8 ef ff ff 	mov    -0x1028(%rbp),%rax
    ddec:	89 10                	mov    %edx,(%rax)
    ddee:	48 8b 85 d8 ef ff ff 	mov    -0x1028(%rbp),%rax
    ddf5:	8b 00                	mov    (%rax),%eax
    ddf7:	85 c0                	test   %eax,%eax
    ddf9:	75 0b                	jne    de06 <func_49+0x8a5>
    ddfb:	48 8b 85 d8 ef ff ff 	mov    -0x1028(%rbp),%rax
    de02:	8b 00                	mov    (%rax),%eax
    de04:	85 c0                	test   %eax,%eax
    de06:	0f b7 85 76 ef ff ff 	movzwl -0x108a(%rbp),%eax
    de0d:	0f b7 c0             	movzwl %ax,%eax
    de10:	89 de                	mov    %ebx,%esi
    de12:	89 c7                	mov    %eax,%edi
    de14:	e8 61 a0 ff ff       	callq  7e7a <safe_rshift_func_uint16_t_u_u>
    de19:	0f b7 45 1d          	movzwl 0x1d(%rbp),%eax
    de1d:	0f b7 d0             	movzwl %ax,%edx
    de20:	0f b7 85 b0 ef ff ff 	movzwl -0x1050(%rbp),%eax
    de27:	0f b7 c0             	movzwl %ax,%eax
    de2a:	89 d6                	mov    %edx,%esi
    de2c:	89 c7                	mov    %eax,%edi
    de2e:	e8 0a 9f ff ff       	callq  7d3d <safe_mul_func_uint16_t_u_u>
    de33:	0f b6 d8             	movzbl %al,%ebx
    de36:	48 8b 05 0b ef 00 00 	mov    0xef0b(%rip),%rax        # 1cd48 <g_908+0x8>
    de3d:	48 c1 e0 0d          	shl    $0xd,%rax
    de41:	48 c1 f8 2d          	sar    $0x2d,%rax
    de45:	25 ff ff 07 00       	and    $0x7ffff,%eax
    de4a:	3d ff ff 03 00       	cmp    $0x3ffff,%eax
    de4f:	0f 96 c0             	setbe  %al
    de52:	0f b6 c0             	movzbl %al,%eax
    de55:	09 85 88 ef ff ff    	or     %eax,-0x1078(%rbp)
    de5b:	8b 85 88 ef ff ff    	mov    -0x1078(%rbp),%eax
    de61:	0f b7 d0             	movzwl %ax,%edx
    de64:	48 8b 05 8d 5b 01 00 	mov    0x15b8d(%rip),%rax        # 239f8 <g_645>
    de6b:	48 8b 00             	mov    (%rax),%rax
    de6e:	0f b7 08             	movzwl (%rax),%ecx
    de71:	83 c1 01             	add    $0x1,%ecx
    de74:	66 89 08             	mov    %cx,(%rax)
    de77:	0f b7 00             	movzwl (%rax),%eax
    de7a:	0f b7 c0             	movzwl %ax,%eax
    de7d:	89 d6                	mov    %edx,%esi
    de7f:	89 c7                	mov    %eax,%edi
    de81:	e8 b7 9e ff ff       	callq  7d3d <safe_mul_func_uint16_t_u_u>
    de86:	0f b6 c0             	movzbl %al,%eax
    de89:	89 de                	mov    %ebx,%esi
    de8b:	89 c7                	mov    %eax,%edi
    de8d:	e8 1c 9d ff ff       	callq  7bae <safe_mod_func_uint8_t_u_u>
    de92:	84 c0                	test   %al,%al
    de94:	0f 95 c0             	setne  %al
    de97:	0f b6 c0             	movzbl %al,%eax
    de9a:	66 89 45 10          	mov    %ax,0x10(%rbp)
    de9e:	48 8b 45 10          	mov    0x10(%rbp),%rax
    dea2:	48 c1 e0 1a          	shl    $0x1a,%rax
    dea6:	48 c1 f8 2a          	sar    $0x2a,%rax
    deaa:	83 f8 01             	cmp    $0x1,%eax
    dead:	48 8d 85 80 f1 ff ff 	lea    -0xe80(%rbp),%rax
    deb4:	48 8d 15 45 49 01 00 	lea    0x14945(%rip),%rdx        # 22800 <g_2682+0xa20>
    debb:	b9 2d 00 00 00       	mov    $0x2d,%ecx
    dec0:	48 89 c7             	mov    %rax,%rdi
    dec3:	48 89 d6             	mov    %rdx,%rsi
    dec6:	f3 48 a5             	rep movsq %ds:(%rsi),%es:(%rdi)
    dec9:	48 8d 85 c0 fa ff ff 	lea    -0x540(%rbp),%rax
    ded0:	48 8d 15 a9 4a 01 00 	lea    0x14aa9(%rip),%rdx        # 22980 <g_2682+0xba0>
    ded7:	b9 a0 00 00 00       	mov    $0xa0,%ecx
    dedc:	48 89 c7             	mov    %rax,%rdi
    dedf:	48 89 d6             	mov    %rdx,%rsi
    dee2:	f3 48 a5             	rep movsq %ds:(%rsi),%es:(%rdi)
    dee5:	c7 85 80 ef ff ff 8e 	movl   $0x164b298e,-0x1080(%rbp)
    deec:	29 4b 16 
    deef:	0f bf 85 76 ef ff ff 	movswl -0x108a(%rbp),%eax
    def6:	09 85 84 ef ff ff    	or     %eax,-0x107c(%rbp)
    defc:	48 8b 45 15          	mov    0x15(%rbp),%rax
    df00:	89 c2                	mov    %eax,%edx
    df02:	0f b7 45 10          	movzwl 0x10(%rbp),%eax
    df06:	98                   	cwtl   
    df07:	89 d6                	mov    %edx,%esi
    df09:	89 c7                	mov    %eax,%edi
    df0b:	e8 82 95 ff ff       	callq  7492 <safe_lshift_func_int16_t_s_s>
    df10:	be 0a 00 00 00       	mov    $0xa,%esi
    df15:	bf 05 00 00 00       	mov    $0x5,%edi
    df1a:	e8 e7 9e ff ff       	callq  7e06 <safe_lshift_func_uint16_t_u_u>
    df1f:	0f b7 05 c0 8b 00 00 	movzwl 0x8bc0(%rip),%eax        # 16ae6 <l_1647.4826+0x6>
    df26:	0f bf d8             	movswl %ax,%ebx
    df29:	48 8b 45 10          	mov    0x10(%rbp),%rax
    df2d:	48 c1 e0 1a          	shl    $0x1a,%rax
    df31:	48 c1 f8 2a          	sar    $0x2a,%rax
    df35:	0f b7 d0             	movzwl %ax,%edx
    df38:	48 8b 05 51 58 01 00 	mov    0x15851(%rip),%rax        # 23790 <g_357>
    df3f:	48 8b 00             	mov    (%rax),%rax
    df42:	48 89 85 e8 f1 ff ff 	mov    %rax,-0xe18(%rbp)
    df49:	48 8b 8d e8 f1 ff ff 	mov    -0xe18(%rbp),%rcx
    df50:	48 8b 05 39 58 01 00 	mov    0x15839(%rip),%rax        # 23790 <g_357>
    df57:	48 8b 00             	mov    (%rax),%rax
    df5a:	48 89 05 9f 5a 01 00 	mov    %rax,0x15a9f(%rip)        # 23a00 <g_728>
    df61:	48 8b 05 98 5a 01 00 	mov    0x15a98(%rip),%rax        # 23a00 <g_728>
    df68:	48 39 c1             	cmp    %rax,%rcx
    df6b:	0f 95 c0             	setne  %al
    df6e:	0f b6 c0             	movzbl %al,%eax
    df71:	89 d6                	mov    %edx,%esi
    df73:	89 c7                	mov    %eax,%edi
    df75:	e8 85 9d ff ff       	callq  7cff <safe_add_func_uint16_t_u_u>
    df7a:	48 8b 05 c7 57 01 00 	mov    0x157c7(%rip),%rax        # 23748 <g_359>
    df81:	48 8b 00             	mov    (%rax),%rax
    df84:	0f b6 10             	movzbl (%rax),%edx
    df87:	48 8b 05 9a 68 01 00 	mov    0x1689a(%rip),%rax        # 24828 <g_64>
    df8e:	0f b6 00             	movzbl (%rax),%eax
    df91:	38 c2                	cmp    %al,%dl
    df93:	0f 93 c0             	setae  %al
    df96:	0f b6 c0             	movzbl %al,%eax
    df99:	be 06 00 00 00       	mov    $0x6,%esi
    df9e:	48 89 c7             	mov    %rax,%rdi
    dfa1:	e8 51 9a ff ff       	callq  79f7 <safe_div_func_int64_t_s_s>
    dfa6:	98                   	cwtl   
    dfa7:	89 de                	mov    %ebx,%esi
    dfa9:	89 c7                	mov    %eax,%edi
    dfab:	e8 45 94 ff ff       	callq  73f5 <safe_mul_func_int16_t_s_s>
    dfb0:	98                   	cwtl   
    dfb1:	c1 e0 0a             	shl    $0xa,%eax
    dfb4:	c1 f8 0a             	sar    $0xa,%eax
    dfb7:	48 8b 55 10          	mov    0x10(%rbp),%rdx
    dfbb:	48 c1 e2 1a          	shl    $0x1a,%rdx
    dfbf:	48 c1 fa 2a          	sar    $0x2a,%rdx
    dfc3:	39 d0                	cmp    %edx,%eax
    dfc5:	0f 9e c0             	setle  %al
    dfc8:	0f b6 c0             	movzbl %al,%eax
    dfcb:	48 8b 55 15          	mov    0x15(%rbp),%rdx
    dfcf:	31 c2                	xor    %eax,%edx
    dfd1:	8b 85 84 ef ff ff    	mov    -0x107c(%rbp),%eax
    dfd7:	31 d0                	xor    %edx,%eax
    dfd9:	89 c2                	mov    %eax,%edx
    dfdb:	48 8b 85 d8 ef ff ff 	mov    -0x1028(%rbp),%rax
    dfe2:	89 10                	mov    %edx,(%rax)
    dfe4:	8b 85 80 ef ff ff    	mov    -0x1080(%rbp),%eax
    dfea:	e9 4c 06 00 00       	jmpq   e63b <func_49+0x10da>
    dfef:	48 8b 45 15          	mov    0x15(%rbp),%rax
    dff3:	98                   	cwtl   
    dff4:	89 c6                	mov    %eax,%esi
    dff6:	bf ff ff ff ff       	mov    $0xffffffff,%edi
    dffb:	e8 16 94 ff ff       	callq  7416 <safe_mod_func_int16_t_s_s>
    e000:	8b 9d 78 f8 ff ff    	mov    -0x788(%rbp),%ebx
    e006:	0f b7 45 1d          	movzwl 0x1d(%rbp),%eax
    e00a:	0f b7 c0             	movzwl %ax,%eax
    e00d:	89 c6                	mov    %eax,%esi
    e00f:	bf bd e1 00 00       	mov    $0xe1bd,%edi
    e014:	e8 24 9d ff ff       	callq  7d3d <safe_mul_func_uint16_t_u_u>
    e019:	0f b7 d0             	movzwl %ax,%edx
    e01c:	48 8b 05 62 c1 00 00 	mov    0xc162(%rip),%rax        # 1a185 <g_145+0x45>
    e023:	48 39 c2             	cmp    %rax,%rdx
    e026:	0f 93 c0             	setae  %al
    e029:	0f b6 c0             	movzbl %al,%eax
    e02c:	09 c3                	or     %eax,%ebx
    e02e:	89 da                	mov    %ebx,%edx
    e030:	0f bf 85 76 ef ff ff 	movswl -0x108a(%rbp),%eax
    e037:	39 c2                	cmp    %eax,%edx
    e039:	0f 94 c0             	sete   %al
    e03c:	0f b6 d0             	movzbl %al,%edx
    e03f:	48 83 bd 08 f0 ff ff 	cmpq   $0x0,-0xff8(%rbp)
    e046:	00 
    e047:	0f 94 c0             	sete   %al
    e04a:	0f b6 c0             	movzbl %al,%eax
    e04d:	48 89 d6             	mov    %rdx,%rsi
    e050:	48 89 c7             	mov    %rax,%rdi
    e053:	e8 28 a0 ff ff       	callq  8080 <safe_mod_func_uint64_t_u_u>
    e058:	0f be c0             	movsbl %al,%eax
    e05b:	be 01 00 00 00       	mov    $0x1,%esi
    e060:	89 c7                	mov    %eax,%edi
    e062:	e8 6d 91 ff ff       	callq  71d4 <safe_add_func_int8_t_s_s>
    e067:	8b 85 84 f8 ff ff    	mov    -0x77c(%rbp),%eax
    e06d:	39 85 6c ef ff ff    	cmp    %eax,-0x1094(%rbp)
    e073:	7c 07                	jl     e07c <func_49+0xb1b>
    e075:	b8 01 00 00 00       	mov    $0x1,%eax
    e07a:	eb 05                	jmp    e081 <func_49+0xb20>
    e07c:	b8 00 00 00 00       	mov    $0x0,%eax
    e081:	48 98                	cltq   
    e083:	48 39 85 10 f0 ff ff 	cmp    %rax,-0xff0(%rbp)
    e08a:	0f 92 c0             	setb   %al
    e08d:	0f b6 d0             	movzbl %al,%edx
    e090:	48 8b 85 18 f0 ff ff 	mov    -0xfe8(%rbp),%rax
    e097:	8b 00                	mov    (%rax),%eax
    e099:	09 c2                	or     %eax,%edx
    e09b:	48 8b 85 18 f0 ff ff 	mov    -0xfe8(%rbp),%rax
    e0a2:	89 10                	mov    %edx,(%rax)
    e0a4:	0f b7 45 1d          	movzwl 0x1d(%rbp),%eax
    e0a8:	0f bf d0             	movswl %ax,%edx
    e0ab:	48 8b 85 18 f0 ff ff 	mov    -0xfe8(%rbp),%rax
    e0b2:	89 10                	mov    %edx,(%rax)
    e0b4:	48 8b 45 1f          	mov    0x1f(%rbp),%rax
    e0b8:	41 89 c6             	mov    %eax,%r14d
    e0bb:	48 8b 85 18 f0 ff ff 	mov    -0xfe8(%rbp),%rax
    e0c2:	8b 00                	mov    (%rax),%eax
    e0c4:	41 89 c7             	mov    %eax,%r15d
    e0c7:	0f b7 45 10          	movzwl 0x10(%rbp),%eax
    e0cb:	0f b7 d8             	movzwl %ax,%ebx
    e0ce:	8b 45 27             	mov    0x27(%rbp),%eax
    e0d1:	44 0f bf e0          	movswl %ax,%r12d
    e0d5:	48 8b 85 18 f0 ff ff 	mov    -0xfe8(%rbp),%rax
    e0dc:	44 8b 28             	mov    (%rax),%r13d
    e0df:	48 8b 85 28 f0 ff ff 	mov    -0xfd8(%rbp),%rax
    e0e6:	48 8b 10             	mov    (%rax),%rdx
    e0e9:	48 83 bd 20 f0 ff ff 	cmpq   $0x0,-0xfe0(%rbp)
    e0f0:	00 
    e0f1:	0f 94 c0             	sete   %al
    e0f4:	0f b6 c0             	movzbl %al,%eax
    e0f7:	48 09 c2             	or     %rax,%rdx
    e0fa:	48 8b 85 28 f0 ff ff 	mov    -0xfd8(%rbp),%rax
    e101:	48 89 10             	mov    %rdx,(%rax)
    e104:	48 8b 85 28 f0 ff ff 	mov    -0xfd8(%rbp),%rax
    e10b:	48 8b 00             	mov    (%rax),%rax
    e10e:	48 85 c0             	test   %rax,%rax
    e111:	74 5a                	je     e16d <func_49+0xc0c>
    e113:	8b 45 27             	mov    0x27(%rbp),%eax
    e116:	39 85 6c ef ff ff    	cmp    %eax,-0x1094(%rbp)
    e11c:	0f 95 c0             	setne  %al
    e11f:	0f b6 d0             	movzbl %al,%edx
    e122:	0f b7 45 1d          	movzwl 0x1d(%rbp),%eax
    e126:	98                   	cwtl   
    e127:	39 c2                	cmp    %eax,%edx
    e129:	0f 9e c0             	setle  %al
    e12c:	0f b6 d0             	movzbl %al,%edx
    e12f:	48 8b 85 18 f0 ff ff 	mov    -0xfe8(%rbp),%rax
    e136:	8b 00                	mov    (%rax),%eax
    e138:	0f b7 c0             	movzwl %ax,%eax
    e13b:	89 d6                	mov    %edx,%esi
    e13d:	89 c7                	mov    %eax,%edi
    e13f:	e8 36 9d ff ff       	callq  7e7a <safe_rshift_func_uint16_t_u_u>
    e144:	48 8b 15 95 58 01 00 	mov    0x15895(%rip),%rdx        # 239e0 <g_586>
    e14b:	0f b7 12             	movzwl (%rdx),%edx
    e14e:	66 39 d0             	cmp    %dx,%ax
    e151:	0f 94 c0             	sete   %al
    e154:	0f b6 d0             	movzbl %al,%edx
    e157:	48 8b 85 18 f0 ff ff 	mov    -0xfe8(%rbp),%rax
    e15e:	8b 00                	mov    (%rax),%eax
    e160:	21 d0                	and    %edx,%eax
    e162:	85 c0                	test   %eax,%eax
    e164:	74 07                	je     e16d <func_49+0xc0c>
    e166:	b8 01 00 00 00       	mov    $0x1,%eax
    e16b:	eb 05                	jmp    e172 <func_49+0xc11>
    e16d:	b8 00 00 00 00       	mov    $0x0,%eax
    e172:	83 f8 06             	cmp    $0x6,%eax
    e175:	0f 9f c0             	setg   %al
    e178:	0f b6 c0             	movzbl %al,%eax
    e17b:	44 89 ee             	mov    %r13d,%esi
    e17e:	89 c7                	mov    %eax,%edi
    e180:	e8 39 9c ff ff       	callq  7dbe <safe_lshift_func_uint16_t_u_s>
    e185:	98                   	cwtl   
    e186:	44 89 e6             	mov    %r12d,%esi
    e189:	89 c7                	mov    %eax,%edi
    e18b:	e8 c5 92 ff ff       	callq  7455 <safe_div_func_int16_t_s_s>
    e190:	48 89 de             	mov    %rbx,%rsi
    e193:	bf 00 00 00 00       	mov    $0x0,%edi
    e198:	e8 e3 9e ff ff       	callq  8080 <safe_mod_func_uint64_t_u_u>
    e19d:	0f b6 c0             	movzbl %al,%eax
    e1a0:	44 89 fe             	mov    %r15d,%esi
    e1a3:	89 c7                	mov    %eax,%edi
    e1a5:	e8 a2 9a ff ff       	callq  7c4c <safe_lshift_func_uint8_t_u_u>
    e1aa:	84 c0                	test   %al,%al
    e1ac:	74 14                	je     e1c2 <func_49+0xc61>
    e1ae:	48 8b 05 bb 54 01 00 	mov    0x154bb(%rip),%rax        # 23670 <g_96>
    e1b5:	8b 00                	mov    (%rax),%eax
    e1b7:	85 c0                	test   %eax,%eax
    e1b9:	74 07                	je     e1c2 <func_49+0xc61>
    e1bb:	b8 01 00 00 00       	mov    $0x1,%eax
    e1c0:	eb 05                	jmp    e1c7 <func_49+0xc66>
    e1c2:	b8 00 00 00 00       	mov    $0x0,%eax
    e1c7:	0f be c0             	movsbl %al,%eax
    e1ca:	44 89 f6             	mov    %r14d,%esi
    e1cd:	89 c7                	mov    %eax,%edi
    e1cf:	e8 cd 90 ff ff       	callq  72a1 <safe_lshift_func_int8_t_s_s>
    e1d4:	84 c0                	test   %al,%al
    e1d6:	74 16                	je     e1ee <func_49+0xc8d>
    e1d8:	c7 45 c2 22 22 22 22 	movl   $0x22222222,-0x3e(%rbp)
    e1df:	66 c7 45 c6 22 22    	movw   $0x2222,-0x3a(%rbp)
    e1e5:	0f b6 45 c5          	movzbl -0x3b(%rbp),%eax
    e1e9:	e9 4d 04 00 00       	jmpq   e63b <func_49+0x10da>
    e1ee:	c7 85 7c ef ff ff 6f 	movl   $0x1e64c26f,-0x1084(%rbp)
    e1f5:	c2 64 1e 
    e1f8:	48 8d 05 92 bf 00 00 	lea    0xbf92(%rip),%rax        # 1a191 <g_167>
    e1ff:	48 89 85 e0 ef ff ff 	mov    %rax,-0x1020(%rbp)
    e206:	48 8d 85 98 ef ff ff 	lea    -0x1068(%rbp),%rax
    e20d:	48 89 85 a8 ef ff ff 	mov    %rax,-0x1058(%rbp)
    e214:	48 8d 85 a8 ef ff ff 	lea    -0x1058(%rbp),%rax
    e21b:	48 89 85 b0 ef ff ff 	mov    %rax,-0x1050(%rbp)
    e222:	48 8d 85 b0 ef ff ff 	lea    -0x1050(%rbp),%rax
    e229:	48 89 85 e8 ef ff ff 	mov    %rax,-0x1018(%rbp)
    e230:	c7 85 94 ef ff ff 01 	movl   $0x1,-0x106c(%rbp)
    e237:	00 00 00 
    e23a:	c6 85 71 ef ff ff f4 	movb   $0xf4,-0x108f(%rbp)
    e241:	48 c7 85 f0 ef ff ff 	movq   $0x0,-0x1010(%rbp)
    e248:	00 00 00 00 
    e24c:	48 c7 85 f8 ef ff ff 	movq   $0x0,-0x1008(%rbp)
    e253:	00 00 00 00 
    e257:	48 8d 05 06 c1 00 00 	lea    0xc106(%rip),%rax        # 1a364 <g_546+0x24>
    e25e:	48 89 85 00 f0 ff ff 	mov    %rax,-0x1000(%rbp)
    e265:	48 8b 05 fc c0 00 00 	mov    0xc0fc(%rip),%rax        # 1a368 <g_546+0x28>
    e26c:	c1 e0 02             	shl    $0x2,%eax
    e26f:	c1 f8 02             	sar    $0x2,%eax
    e272:	41 89 c5             	mov    %eax,%r13d
    e275:	48 0f bf 9d 68 ef ff 	movswq -0x1098(%rbp),%rbx
    e27c:	ff 
    e27d:	48 8b 45 10          	mov    0x10(%rbp),%rax
    e281:	48 c1 e0 1a          	shl    $0x1a,%rax
    e285:	48 c1 f8 2a          	sar    $0x2a,%rax
    e289:	41 89 c6             	mov    %eax,%r14d
    e28c:	44 8b a5 7c ef ff ff 	mov    -0x1084(%rbp),%r12d
    e293:	48 8b 85 18 f0 ff ff 	mov    -0xfe8(%rbp),%rax
    e29a:	8b 00                	mov    (%rax),%eax
    e29c:	0f be c0             	movsbl %al,%eax
    e29f:	89 c6                	mov    %eax,%esi
    e2a1:	bf 01 00 00 00       	mov    $0x1,%edi
    e2a6:	e8 47 8f ff ff       	callq  71f2 <safe_sub_func_int8_t_s_s>
    e2ab:	0f be c0             	movsbl %al,%eax
    e2ae:	44 89 e6             	mov    %r12d,%esi
    e2b1:	89 c7                	mov    %eax,%edi
    e2b3:	e8 fe 92 ff ff       	callq  75b6 <safe_add_func_int32_t_s_s>
    e2b8:	89 c2                	mov    %eax,%edx
    e2ba:	48 8b 05 67 65 01 00 	mov    0x16567(%rip),%rax        # 24828 <g_64>
    e2c1:	88 10                	mov    %dl,(%rax)
    e2c3:	0f b6 00             	movzbl (%rax),%eax
    e2c6:	0f b6 c0             	movzbl %al,%eax
    e2c9:	41 39 c6             	cmp    %eax,%r14d
    e2cc:	0f 9c c0             	setl   %al
    e2cf:	0f b6 c0             	movzbl %al,%eax
    e2d2:	48 89 de             	mov    %rbx,%rsi
    e2d5:	48 89 c7             	mov    %rax,%rdi
    e2d8:	e8 51 9d ff ff       	callq  802e <safe_add_func_uint64_t_u_u>
    e2dd:	48 3d 9c ca 00 00    	cmp    $0xca9c,%rax
    e2e3:	0f 97 c0             	seta   %al
    e2e6:	0f b6 d0             	movzbl %al,%edx
    e2e9:	0f b6 05 58 12 01 00 	movzbl 0x11258(%rip),%eax        # 1f548 <g_1246+0x28>
    e2f0:	01 c0                	add    %eax,%eax
    e2f2:	d0 f8                	sar    %al
    e2f4:	0f be c0             	movsbl %al,%eax
    e2f7:	39 c2                	cmp    %eax,%edx
    e2f9:	0f 9f c0             	setg   %al
    e2fc:	0f b6 d0             	movzbl %al,%edx
    e2ff:	48 8b 85 18 f0 ff ff 	mov    -0xfe8(%rbp),%rax
    e306:	8b 00                	mov    (%rax),%eax
    e308:	39 c2                	cmp    %eax,%edx
    e30a:	75 07                	jne    e313 <func_49+0xdb2>
    e30c:	ba df ff ff ff       	mov    $0xffffffdf,%edx
    e311:	eb 05                	jmp    e318 <func_49+0xdb7>
    e313:	ba de ff ff ff       	mov    $0xffffffde,%edx
    e318:	48 8b 85 e0 ef ff ff 	mov    -0x1020(%rbp),%rax
    e31f:	88 10                	mov    %dl,(%rax)
    e321:	48 8b 85 e0 ef ff ff 	mov    -0x1020(%rbp),%rax
    e328:	0f b6 00             	movzbl (%rax),%eax
    e32b:	0f be d0             	movsbl %al,%edx
    e32e:	8b 85 7c ef ff ff    	mov    -0x1084(%rbp),%eax
    e334:	39 c2                	cmp    %eax,%edx
    e336:	0f 9f c0             	setg   %al
    e339:	0f b6 c0             	movzbl %al,%eax
    e33c:	41 39 c5             	cmp    %eax,%r13d
    e33f:	0f 9f c0             	setg   %al
    e342:	0f b6 c0             	movzbl %al,%eax
    e345:	f7 d0                	not    %eax
    e347:	21 85 84 ef ff ff    	and    %eax,-0x107c(%rbp)
    e34d:	48 8b 85 28 f0 ff ff 	mov    -0xfd8(%rbp),%rax
    e354:	48 bb d6 a0 2f 24 e2 	movabs $0x5b3408e2242fa0d6,%rbx
    e35b:	08 34 5b 
    e35e:	48 89 18             	mov    %rbx,(%rax)
    e361:	48 8b 85 28 f0 ff ff 	mov    -0xfd8(%rbp),%rax
    e368:	4c 8b 28             	mov    (%rax),%r13
    e36b:	0f b6 05 56 be 00 00 	movzbl 0xbe56(%rip),%eax        # 1a1c8 <g_186+0x28>
    e372:	01 c0                	add    %eax,%eax
    e374:	d0 f8                	sar    %al
    e376:	44 0f b6 e0          	movzbl %al,%r12d
    e37a:	0f b7 45 10          	movzwl 0x10(%rbp),%eax
    e37e:	66 85 c0             	test   %ax,%ax
    e381:	74 7e                	je     e401 <func_49+0xea0>
    e383:	48 8b 45 10          	mov    0x10(%rbp),%rax
    e387:	48 c1 e0 1a          	shl    $0x1a,%rax
    e38b:	48 c1 f8 2a          	sar    $0x2a,%rax
    e38f:	41 89 c6             	mov    %eax,%r14d
    e392:	48 8b 45 15          	mov    0x15(%rbp),%rax
    e396:	48 83 f8 ff          	cmp    $0xffffffffffffffff,%rax
    e39a:	0f 95 c0             	setne  %al
    e39d:	41 89 c7             	mov    %eax,%r15d
    e3a0:	48 8b 85 18 f0 ff ff 	mov    -0xfe8(%rbp),%rax
    e3a7:	8b 00                	mov    (%rax),%eax
    e3a9:	0f be d8             	movsbl %al,%ebx
    e3ac:	48 8b 05 2d 56 01 00 	mov    0x1562d(%rip),%rax        # 239e0 <g_586>
    e3b3:	0f b7 00             	movzwl (%rax),%eax
    e3b6:	83 c8 01             	or     $0x1,%eax
    e3b9:	98                   	cwtl   
    e3ba:	be fe ff ff ff       	mov    $0xfffffffe,%esi
    e3bf:	89 c7                	mov    %eax,%edi
    e3c1:	e8 0d 90 ff ff       	callq  73d3 <safe_sub_func_int16_t_s_s>
    e3c6:	89 de                	mov    %ebx,%esi
    e3c8:	bf 41 00 00 00       	mov    $0x41,%edi
    e3cd:	e8 20 8e ff ff       	callq  71f2 <safe_sub_func_int8_t_s_s>
    e3d2:	44 21 f8             	and    %r15d,%eax
    e3d5:	0f be c0             	movsbl %al,%eax
    e3d8:	44 89 f6             	mov    %r14d,%esi
    e3db:	89 c7                	mov    %eax,%edi
    e3dd:	e8 bf 8e ff ff       	callq  72a1 <safe_lshift_func_int8_t_s_s>
    e3e2:	48 0f be c0          	movsbq %al,%rax
    e3e6:	48 c7 c6 fe ff ff ff 	mov    $0xfffffffffffffffe,%rsi
    e3ed:	48 89 c7             	mov    %rax,%rdi
    e3f0:	e8 b3 94 ff ff       	callq  78a8 <safe_sub_func_int64_t_s_s>
    e3f5:	48 85 c0             	test   %rax,%rax
    e3f8:	74 07                	je     e401 <func_49+0xea0>
    e3fa:	b8 01 00 00 00       	mov    $0x1,%eax
    e3ff:	eb 05                	jmp    e406 <func_49+0xea5>
    e401:	b8 00 00 00 00       	mov    $0x0,%eax
    e406:	0f b7 c0             	movzwl %ax,%eax
    e409:	48 8b 15 e8 55 01 00 	mov    0x155e8(%rip),%rdx        # 239f8 <g_645>
    e410:	48 8b 1a             	mov    (%rdx),%rbx
    e413:	be 0b 00 00 00       	mov    $0xb,%esi
    e418:	89 c7                	mov    %eax,%edi
    e41a:	e8 29 9a ff ff       	callq  7e48 <safe_rshift_func_uint16_t_u_s>
    e41f:	66 89 03             	mov    %ax,(%rbx)
    e422:	0f b7 03             	movzwl (%rbx),%eax
    e425:	66 85 c0             	test   %ax,%ax
    e428:	74 07                	je     e431 <func_49+0xed0>
    e42a:	b8 01 00 00 00       	mov    $0x1,%eax
    e42f:	eb 05                	jmp    e436 <func_49+0xed5>
    e431:	b8 00 00 00 00       	mov    $0x0,%eax
    e436:	0f b6 c0             	movzbl %al,%eax
    e439:	44 89 e6             	mov    %r12d,%esi
    e43c:	89 c7                	mov    %eax,%edi
    e43e:	e8 50 97 ff ff       	callq  7b93 <safe_mul_func_uint8_t_u_u>
    e443:	0f b6 c0             	movzbl %al,%eax
    e446:	49 39 c5             	cmp    %rax,%r13
    e449:	0f 9c c0             	setl   %al
    e44c:	89 c2                	mov    %eax,%edx
    e44e:	48 8b 85 e0 ef ff ff 	mov    -0x1020(%rbp),%rax
    e455:	88 10                	mov    %dl,(%rax)
    e457:	48 8b 05 aa 55 01 00 	mov    0x155aa(%rip),%rax        # 23a08 <g_927>
    e45e:	48 8d 95 7c ef ff ff 	lea    -0x1084(%rbp),%rdx
    e465:	48 89 10             	mov    %rdx,(%rax)
    e468:	8b 05 a2 2e 01 00    	mov    0x12ea2(%rip),%eax        # 21310 <g_1866>
    e46e:	85 c0                	test   %eax,%eax
    e470:	0f 84 6e 01 00 00    	je     e5e4 <func_49+0x1083>
    e476:	48 83 bd e8 ef ff ff 	cmpq   $0x0,-0x1018(%rbp)
    e47d:	00 
    e47e:	0f 95 c0             	setne  %al
    e481:	44 0f b6 e0          	movzbl %al,%r12d
    e485:	48 8b 05 eb 2d 01 00 	mov    0x12deb(%rip),%rax        # 21277 <g_1812+0x17>
    e48c:	0f be d8             	movsbl %al,%ebx
    e48f:	0f be 95 71 ef ff ff 	movsbl -0x108f(%rbp),%edx
    e496:	8b 85 7c ef ff ff    	mov    -0x1084(%rbp),%eax
    e49c:	f7 d0                	not    %eax
    e49e:	21 85 94 ef ff ff    	and    %eax,-0x106c(%rbp)
    e4a4:	8b 85 94 ef ff ff    	mov    -0x106c(%rbp),%eax
    e4aa:	98                   	cwtl   
    e4ab:	89 d6                	mov    %edx,%esi
    e4ad:	89 c7                	mov    %eax,%edi
    e4af:	e8 ff 8e ff ff       	callq  73b3 <safe_add_func_int16_t_s_s>
    e4b4:	0f be c0             	movsbl %al,%eax
    e4b7:	be 06 00 00 00       	mov    $0x6,%esi
    e4bc:	89 c7                	mov    %eax,%edi
    e4be:	e8 2b 8e ff ff       	callq  72ee <safe_lshift_func_int8_t_s_u>
    e4c3:	84 c0                	test   %al,%al
    e4c5:	48 8b 85 18 f0 ff ff 	mov    -0xfe8(%rbp),%rax
    e4cc:	8b 00                	mov    (%rax),%eax
    e4ce:	0f be c0             	movsbl %al,%eax
    e4d1:	89 de                	mov    %ebx,%esi
    e4d3:	89 c7                	mov    %eax,%edi
    e4d5:	e8 38 8d ff ff       	callq  7212 <safe_mul_func_int8_t_s_s>
    e4da:	0f be c0             	movsbl %al,%eax
    e4dd:	41 39 c4             	cmp    %eax,%r12d
    e4e0:	0f 9c c0             	setl   %al
    e4e3:	0f b6 d0             	movzbl %al,%edx
    e4e6:	48 8b 05 13 55 01 00 	mov    0x15513(%rip),%rax        # 23a00 <g_728>
    e4ed:	48 8b 00             	mov    (%rax),%rax
    e4f0:	48 8b 00             	mov    (%rax),%rax
    e4f3:	0f b6 00             	movzbl (%rax),%eax
    e4f6:	89 c1                	mov    %eax,%ecx
    e4f8:	89 d0                	mov    %edx,%eax
    e4fa:	21 c1                	and    %eax,%ecx
    e4fc:	89 ca                	mov    %ecx,%edx
    e4fe:	48 8b 05 fb 54 01 00 	mov    0x154fb(%rip),%rax        # 23a00 <g_728>
    e505:	48 8b 00             	mov    (%rax),%rax
    e508:	48 8b 00             	mov    (%rax),%rax
    e50b:	88 10                	mov    %dl,(%rax)
    e50d:	0f b6 00             	movzbl (%rax),%eax
    e510:	0f b6 c0             	movzbl %al,%eax
    e513:	be 02 00 00 00       	mov    $0x2,%esi
    e518:	89 c7                	mov    %eax,%edi
    e51a:	e8 9f 97 ff ff       	callq  7cbe <safe_rshift_func_uint8_t_u_u>
    e51f:	84 c0                	test   %al,%al
    e521:	74 07                	je     e52a <func_49+0xfc9>
    e523:	ba 01 00 00 00       	mov    $0x1,%edx
    e528:	eb 05                	jmp    e52f <func_49+0xfce>
    e52a:	ba 00 00 00 00       	mov    $0x0,%edx
    e52f:	0f b7 45 10          	movzwl 0x10(%rbp),%eax
    e533:	0f b7 c0             	movzwl %ax,%eax
    e536:	21 c2                	and    %eax,%edx
    e538:	8b 05 e2 2d 01 00    	mov    0x12de2(%rip),%eax        # 21320 <g_1869>
    e53e:	c1 e0 05             	shl    $0x5,%eax
    e541:	c1 f8 05             	sar    $0x5,%eax
    e544:	39 c2                	cmp    %eax,%edx
    e546:	0f 9c c0             	setl   %al
    e549:	0f b6 d0             	movzbl %al,%edx
    e54c:	8b 85 6c ef ff ff    	mov    -0x1094(%rbp),%eax
    e552:	0f be c0             	movsbl %al,%eax
    e555:	89 d6                	mov    %edx,%esi
    e557:	89 c7                	mov    %eax,%edi
    e559:	e8 76 8c ff ff       	callq  71d4 <safe_add_func_int8_t_s_s>
    e55e:	48 8b 4d 1f          	mov    0x1f(%rbp),%rcx
    e562:	48 8b 95 00 f0 ff ff 	mov    -0x1000(%rbp),%rdx
    e569:	8b 12                	mov    (%rdx),%edx
    e56b:	0f be c0             	movsbl %al,%eax
    e56e:	31 c2                	xor    %eax,%edx
    e570:	48 8b 85 00 f0 ff ff 	mov    -0x1000(%rbp),%rax
    e577:	89 10                	mov    %edx,(%rax)
    e579:	48 8b 85 00 f0 ff ff 	mov    -0x1000(%rbp),%rax
    e580:	8b 00                	mov    (%rax),%eax
    e582:	89 c0                	mov    %eax,%eax
    e584:	48 09 c8             	or     %rcx,%rax
    e587:	48 85 c0             	test   %rax,%rax
    e58a:	74 0e                	je     e59a <func_49+0x1039>
    e58c:	8b 45 27             	mov    0x27(%rbp),%eax
    e58f:	85 c0                	test   %eax,%eax
    e591:	74 07                	je     e59a <func_49+0x1039>
    e593:	b8 01 00 00 00       	mov    $0x1,%eax
    e598:	eb 05                	jmp    e59f <func_49+0x103e>
    e59a:	b8 00 00 00 00       	mov    $0x0,%eax
    e59f:	3b 85 6c ef ff ff    	cmp    -0x1094(%rbp),%eax
    e5a5:	0f 9e c0             	setle  %al
    e5a8:	0f b6 d0             	movzbl %al,%edx
    e5ab:	48 8b 05 46 54 01 00 	mov    0x15446(%rip),%rax        # 239f8 <g_645>
    e5b2:	48 8b 00             	mov    (%rax),%rax
    e5b5:	0f b7 00             	movzwl (%rax),%eax
    e5b8:	89 c1                	mov    %eax,%ecx
    e5ba:	48 8b 85 18 f0 ff ff 	mov    -0xfe8(%rbp),%rax
    e5c1:	8b 00                	mov    (%rax),%eax
    e5c3:	21 c1                	and    %eax,%ecx
    e5c5:	48 8b 05 2c 54 01 00 	mov    0x1542c(%rip),%rax        # 239f8 <g_645>
    e5cc:	48 8b 00             	mov    (%rax),%rax
    e5cf:	66 89 08             	mov    %cx,(%rax)
    e5d2:	0f b7 00             	movzwl (%rax),%eax
    e5d5:	0f b7 c0             	movzwl %ax,%eax
    e5d8:	89 d6                	mov    %edx,%esi
    e5da:	89 c7                	mov    %eax,%edi
    e5dc:	e8 5c 97 ff ff       	callq  7d3d <safe_mul_func_uint16_t_u_u>
    e5e1:	66 85 c0             	test   %ax,%ax
    e5e4:	ba 00 00 00 00       	mov    $0x0,%edx
    e5e9:	48 8b 45 10          	mov    0x10(%rbp),%rax
    e5ed:	48 c1 e0 1a          	shl    $0x1a,%rax
    e5f1:	48 c1 f8 2a          	sar    $0x2a,%rax
    e5f5:	31 d0                	xor    %edx,%eax
    e5f7:	c1 e0 0a             	shl    $0xa,%eax
    e5fa:	c1 f8 0a             	sar    $0xa,%eax
    e5fd:	89 c2                	mov    %eax,%edx
    e5ff:	0f b7 d2             	movzwl %dx,%edx
    e602:	0f b7 4d 12          	movzwl 0x12(%rbp),%ecx
    e606:	83 e1 00             	and    $0x0,%ecx
    e609:	09 ca                	or     %ecx,%edx
    e60b:	66 89 55 12          	mov    %dx,0x12(%rbp)
    e60f:	c1 e8 10             	shr    $0x10,%eax
    e612:	89 c0                	mov    %eax,%eax
    e614:	83 e0 3f             	and    $0x3f,%eax
    e617:	89 c2                	mov    %eax,%edx
    e619:	83 e2 3f             	and    $0x3f,%edx
    e61c:	0f b6 45 14          	movzbl 0x14(%rbp),%eax
    e620:	83 e0 c0             	and    $0xffffffc0,%eax
    e623:	09 d0                	or     %edx,%eax
    e625:	88 45 14             	mov    %al,0x14(%rbp)
    e628:	48 8b 05 61 51 01 00 	mov    0x15161(%rip),%rax        # 23790 <g_357>
    e62f:	48 8b 00             	mov    (%rax),%rax
    e632:	48 8b 00             	mov    (%rax),%rax
    e635:	48 8b 00             	mov    (%rax),%rax
    e638:	0f b6 00             	movzbl (%rax),%eax
    e63b:	48 8b 5d c8          	mov    -0x38(%rbp),%rbx
    e63f:	64 48 33 1c 25 28 00 	xor    %fs:0x28,%rbx
    e646:	00 00 
    e648:	74 05                	je     e64f <func_49+0x10ee>
    e64a:	e8 21 8a ff ff       	callq  7070 <__stack_chk_fail@plt>
    e64f:	48 81 c4 78 10 00 00 	add    $0x1078,%rsp
    e656:	5b                   	pop    %rbx
    e657:	41 5c                	pop    %r12
    e659:	41 5d                	pop    %r13
    e65b:	41 5e                	pop    %r14
    e65d:	41 5f                	pop    %r15
    e65f:	5d                   	pop    %rbp
    e660:	c3                   	retq   

000000000000e661 <func_54>:
    e661:	f3 0f 1e fa          	endbr64 
    e665:	55                   	push   %rbp
    e666:	48 89 e5             	mov    %rsp,%rbp
    e669:	53                   	push   %rbx
    e66a:	48 83 ec 68          	sub    $0x68,%rsp
    e66e:	64 48 8b 04 25 28 00 	mov    %fs:0x28,%rax
    e675:	00 00 
    e677:	48 89 45 e8          	mov    %rax,-0x18(%rbp)
    e67b:	31 c0                	xor    %eax,%eax
    e67d:	48 8d 05 e3 0e 01 00 	lea    0x10ee3(%rip),%rax        # 1f567 <g_1281+0x17>
    e684:	48 89 45 98          	mov    %rax,-0x68(%rbp)
    e688:	48 8d 05 d8 0e 01 00 	lea    0x10ed8(%rip),%rax        # 1f567 <g_1281+0x17>
    e68f:	48 89 45 a0          	mov    %rax,-0x60(%rbp)
    e693:	48 8d 05 3e 62 01 00 	lea    0x1623e(%rip),%rax        # 248d8 <g_1530>
    e69a:	48 89 45 a8          	mov    %rax,-0x58(%rbp)
    e69e:	48 8d 05 f7 bb 00 00 	lea    0xbbf7(%rip),%rax        # 1a29c <g_294+0xc>
    e6a5:	48 89 45 c0          	mov    %rax,-0x40(%rbp)
    e6a9:	48 8d 05 ec bb 00 00 	lea    0xbbec(%rip),%rax        # 1a29c <g_294+0xc>
    e6b0:	48 89 45 c8          	mov    %rax,-0x38(%rbp)
    e6b4:	48 8d 05 e1 bb 00 00 	lea    0xbbe1(%rip),%rax        # 1a29c <g_294+0xc>
    e6bb:	48 89 45 d0          	mov    %rax,-0x30(%rbp)
    e6bf:	48 8d 05 d6 bb 00 00 	lea    0xbbd6(%rip),%rax        # 1a29c <g_294+0xc>
    e6c6:	48 89 45 d8          	mov    %rax,-0x28(%rbp)
    e6ca:	48 8d 05 cb bb 00 00 	lea    0xbbcb(%rip),%rax        # 1a29c <g_294+0xc>
    e6d1:	48 89 45 e0          	mov    %rax,-0x20(%rbp)
    e6d5:	c7 45 94 1c 5c e3 32 	movl   $0x32e35c1c,-0x6c(%rbp)
    e6dc:	c7 45 90 00 00 00 00 	movl   $0x0,-0x70(%rbp)
    e6e3:	eb 15                	jmp    e6fa <func_54+0x99>
    e6e5:	8b 45 90             	mov    -0x70(%rbp),%eax
    e6e8:	48 98                	cltq   
    e6ea:	48 8d 15 bb bc 00 00 	lea    0xbcbb(%rip),%rdx        # 1a3ac <g_647>
    e6f1:	48 89 54 c5 b0       	mov    %rdx,-0x50(%rbp,%rax,8)
    e6f6:	83 45 90 01          	addl   $0x1,-0x70(%rbp)
    e6fa:	83 7d 90 01          	cmpl   $0x1,-0x70(%rbp)
    e6fe:	7e e5                	jle    e6e5 <func_54+0x84>
    e700:	83 6d 94 01          	subl   $0x1,-0x6c(%rbp)
    e704:	48 8b 45 10          	mov    0x10(%rbp),%rax
    e708:	48 c1 e0 1a          	shl    $0x1a,%rax
    e70c:	48 c1 f8 2a          	sar    $0x2a,%rax
    e710:	0f b7 d8             	movzwl %ax,%ebx
    e713:	0f b7 45 1d          	movzwl 0x1d(%rbp),%eax
    e717:	98                   	cwtl   
    e718:	be 00 00 00 00       	mov    $0x0,%esi
    e71d:	89 c7                	mov    %eax,%edi
    e71f:	e8 8f 8c ff ff       	callq  73b3 <safe_add_func_int16_t_s_s>
    e724:	89 de                	mov    %ebx,%esi
    e726:	bf 00 00 00 00       	mov    $0x0,%edi
    e72b:	e8 5e 96 ff ff       	callq  7d8e <safe_div_func_uint16_t_u_u>
    e730:	8b 55 27             	mov    0x27(%rbp),%edx
    e733:	0f b7 c0             	movzwl %ax,%eax
    e736:	31 d0                	xor    %edx,%eax
    e738:	89 45 27             	mov    %eax,0x27(%rbp)
    e73b:	48 8b 05 e6 5a 01 00 	mov    0x15ae6(%rip),%rax        # 24228 <g_1553>
    e742:	48 8d 4d 10          	lea    0x10(%rbp),%rcx
    e746:	48 89 08             	mov    %rcx,(%rax)
    e749:	48 8b 45 10          	mov    0x10(%rbp),%rax
    e74d:	48 c1 e0 1a          	shl    $0x1a,%rax
    e751:	48 c1 f8 2a          	sar    $0x2a,%rax
    e755:	48 8b 4d e8          	mov    -0x18(%rbp),%rcx
    e759:	64 48 33 0c 25 28 00 	xor    %fs:0x28,%rcx
    e760:	00 00 
    e762:	74 05                	je     e769 <func_54+0x108>
    e764:	e8 07 89 ff ff       	callq  7070 <__stack_chk_fail@plt>
    e769:	48 83 c4 68          	add    $0x68,%rsp
    e76d:	5b                   	pop    %rbx
    e76e:	5d                   	pop    %rbp
    e76f:	c3                   	retq   

000000000000e770 <func_56>:
    e770:	f3 0f 1e fa          	endbr64 
    e774:	55                   	push   %rbp
    e775:	48 89 e5             	mov    %rsp,%rbp
    e778:	53                   	push   %rbx
    e779:	48 81 ec a8 0c 00 00 	sub    $0xca8,%rsp
    e780:	48 89 bd 98 f3 ff ff 	mov    %rdi,-0xc68(%rbp)
    e787:	89 f0                	mov    %esi,%eax
    e789:	48 89 95 88 f3 ff ff 	mov    %rdx,-0xc78(%rbp)
    e790:	66 89 85 94 f3 ff ff 	mov    %ax,-0xc6c(%rbp)
    e797:	64 48 8b 04 25 28 00 	mov    %fs:0x28,%rax
    e79e:	00 00 
    e7a0:	48 89 45 e8          	mov    %rax,-0x18(%rbp)
    e7a4:	31 c0                	xor    %eax,%eax
    e7a6:	48 c7 85 28 f4 ff ff 	movq   $0xfffffffffffffffd,-0xbd8(%rbp)
    e7ad:	fd ff ff ff 
    e7b1:	48 8d 05 88 b8 00 00 	lea    0xb888(%rip),%rax        # 1a040 <g_73>
    e7b8:	48 89 85 d8 f3 ff ff 	mov    %rax,-0xc28(%rbp)
    e7bf:	48 8d 05 62 60 01 00 	lea    0x16062(%rip),%rax        # 24828 <g_64>
    e7c6:	48 89 85 30 f4 ff ff 	mov    %rax,-0xbd0(%rbp)
    e7cd:	48 c7 85 e0 f3 ff ff 	movq   $0x0,-0xc20(%rbp)
    e7d4:	00 00 00 00 
    e7d8:	48 8d 85 e0 f3 ff ff 	lea    -0xc20(%rbp),%rax
    e7df:	48 89 85 e8 f3 ff ff 	mov    %rax,-0xc18(%rbp)
    e7e6:	66 c7 85 70 f4 ff ff 	movw   $0x8,-0xb90(%rbp)
    e7ed:	08 00 
    e7ef:	0f b7 85 72 f4 ff ff 	movzwl -0xb8e(%rbp),%eax
    e7f6:	83 e0 00             	and    $0x0,%eax
    e7f9:	66 0d b0 fb          	or     $0xfbb0,%ax
    e7fd:	66 89 85 72 f4 ff ff 	mov    %ax,-0xb8e(%rbp)
    e804:	0f b6 85 74 f4 ff ff 	movzbl -0xb8c(%rbp),%eax
    e80b:	83 c8 3f             	or     $0x3f,%eax
    e80e:	88 85 74 f4 ff ff    	mov    %al,-0xb8c(%rbp)
    e814:	48 c7 85 75 f4 ff ff 	movq   $0xfffffffffffffffc,-0xb8b(%rbp)
    e81b:	fc ff ff ff 
    e81f:	66 c7 85 7d f4 ff ff 	movw   $0xb0b6,-0xb83(%rbp)
    e826:	b6 b0 
    e828:	48 c7 85 7f f4 ff ff 	movq   $0xffffffffffffffff,-0xb81(%rbp)
    e82f:	ff ff ff ff 
    e833:	c7 85 87 f4 ff ff 4e 	movl   $0xc538a04e,-0xb79(%rbp)
    e83a:	a0 38 c5 
    e83d:	48 c7 85 f0 f3 ff ff 	movq   $0x0,-0xc10(%rbp)
    e844:	00 00 00 00 
    e848:	c7 85 b8 f3 ff ff 02 	movl   $0x2,-0xc48(%rbp)
    e84f:	00 00 00 
    e852:	c7 85 bc f3 ff ff c4 	movl   $0x27fc4bc4,-0xc44(%rbp)
    e859:	4b fc 27 
    e85c:	c7 85 c0 f3 ff ff 03 	movl   $0x3,-0xc40(%rbp)
    e863:	00 00 00 
    e866:	c7 85 c4 f3 ff ff 08 	movl   $0x8,-0xc3c(%rbp)
    e86d:	00 00 00 
    e870:	c6 85 a6 f3 ff ff fe 	movb   $0xfe,-0xc5a(%rbp)
    e877:	c7 85 d0 f4 ff ff fd 	movl   $0xfffffffd,-0xb30(%rbp)
    e87e:	ff ff ff 
    e881:	c7 85 d4 f4 ff ff fd 	movl   $0xfffffffd,-0xb2c(%rbp)
    e888:	ff ff ff 
    e88b:	c7 85 d8 f4 ff ff 04 	movl   $0x4,-0xb28(%rbp)
    e892:	00 00 00 
    e895:	c7 85 dc f4 ff ff fd 	movl   $0xfffffffd,-0xb24(%rbp)
    e89c:	ff ff ff 
    e89f:	c7 85 e0 f4 ff ff fd 	movl   $0xfffffffd,-0xb20(%rbp)
    e8a6:	ff ff ff 
    e8a9:	c7 85 e4 f4 ff ff 04 	movl   $0x4,-0xb1c(%rbp)
    e8b0:	00 00 00 
    e8b3:	c6 85 a7 f3 ff ff 04 	movb   $0x4,-0xc59(%rbp)
    e8ba:	66 c7 85 90 f4 ff ff 	movw   $0xfffc,-0xb70(%rbp)
    e8c1:	fc ff 
    e8c3:	0f b7 85 92 f4 ff ff 	movzwl -0xb6e(%rbp),%eax
    e8ca:	83 e0 00             	and    $0x0,%eax
    e8cd:	66 0d 36 fd          	or     $0xfd36,%ax
    e8d1:	66 89 85 92 f4 ff ff 	mov    %ax,-0xb6e(%rbp)
    e8d8:	0f b6 85 94 f4 ff ff 	movzbl -0xb6c(%rbp),%eax
    e8df:	83 c8 3f             	or     $0x3f,%eax
    e8e2:	88 85 94 f4 ff ff    	mov    %al,-0xb6c(%rbp)
    e8e8:	48 b8 6f 76 ba 2e 6d 	movabs $0x133d716d2eba766f,%rax
    e8ef:	71 3d 13 
    e8f2:	48 89 85 95 f4 ff ff 	mov    %rax,-0xb6b(%rbp)
    e8f9:	66 c7 85 9d f4 ff ff 	movw   $0xebb6,-0xb63(%rbp)
    e900:	b6 eb 
    e902:	48 c7 85 9f f4 ff ff 	movq   $0x0,-0xb61(%rbp)
    e909:	00 00 00 00 
    e90d:	c7 85 a7 f4 ff ff 7e 	movl   $0x8a37c07e,-0xb59(%rbp)
    e914:	c0 37 8a 
    e917:	48 8d 05 41 0c 01 00 	lea    0x10c41(%rip),%rax        # 1f55f <g_1281+0xf>
    e91e:	48 89 85 18 f4 ff ff 	mov    %rax,-0xbe8(%rbp)
    e925:	48 8d 85 a6 f3 ff ff 	lea    -0xc5a(%rbp),%rax
    e92c:	48 89 85 20 f4 ff ff 	mov    %rax,-0xbe0(%rbp)
    e933:	c7 85 b4 f3 ff ff 00 	movl   $0x0,-0xc4c(%rbp)
    e93a:	00 00 00 
    e93d:	eb 1a                	jmp    e959 <func_56+0x1e9>
    e93f:	8b 85 b4 f3 ff ff    	mov    -0xc4c(%rbp),%eax
    e945:	48 98                	cltq   
    e947:	c7 84 85 c4 f4 ff ff 	movl   $0x0,-0xb3c(%rbp,%rax,4)
    e94e:	00 00 00 00 
    e952:	83 85 b4 f3 ff ff 01 	addl   $0x1,-0xc4c(%rbp)
    e959:	83 bd b4 f3 ff ff 02 	cmpl   $0x2,-0xc4c(%rbp)
    e960:	7e dd                	jle    e93f <func_56+0x1cf>
    e962:	c7 85 b4 f3 ff ff 00 	movl   $0x0,-0xc4c(%rbp)
    e969:	00 00 00 
    e96c:	e9 81 00 00 00       	jmpq   e9f2 <func_56+0x282>
    e971:	c7 85 cc f3 ff ff 00 	movl   $0x0,-0xc34(%rbp)
    e978:	00 00 00 
    e97b:	eb 65                	jmp    e9e2 <func_56+0x272>
    e97d:	c7 85 d0 f3 ff ff 00 	movl   $0x0,-0xc30(%rbp)
    e984:	00 00 00 
    e987:	eb 49                	jmp    e9d2 <func_56+0x262>
    e989:	8b 85 d0 f3 ff ff    	mov    -0xc30(%rbp),%eax
    e98f:	48 63 f0             	movslq %eax,%rsi
    e992:	8b 85 b4 f3 ff ff    	mov    -0xc4c(%rbp),%eax
    e998:	48 63 d0             	movslq %eax,%rdx
    e99b:	8b 85 cc f3 ff ff    	mov    -0xc34(%rbp),%eax
    e9a1:	48 63 c8             	movslq %eax,%rcx
    e9a4:	48 89 d0             	mov    %rdx,%rax
    e9a7:	48 01 c0             	add    %rax,%rax
    e9aa:	48 01 d0             	add    %rdx,%rax
    e9ad:	48 01 c0             	add    %rax,%rax
    e9b0:	48 89 ca             	mov    %rcx,%rdx
    e9b3:	48 01 d2             	add    %rdx,%rdx
    e9b6:	48 01 ca             	add    %rcx,%rdx
    e9b9:	48 01 d0             	add    %rdx,%rax
    e9bc:	48 01 f0             	add    %rsi,%rax
    e9bf:	48 c7 84 c5 10 f5 ff 	movq   $0x0,-0xaf0(%rbp,%rax,8)
    e9c6:	ff 00 00 00 00 
    e9cb:	83 85 d0 f3 ff ff 01 	addl   $0x1,-0xc30(%rbp)
    e9d2:	83 bd d0 f3 ff ff 02 	cmpl   $0x2,-0xc30(%rbp)
    e9d9:	7e ae                	jle    e989 <func_56+0x219>
    e9db:	83 85 cc f3 ff ff 01 	addl   $0x1,-0xc34(%rbp)
    e9e2:	83 bd cc f3 ff ff 01 	cmpl   $0x1,-0xc34(%rbp)
    e9e9:	7e 92                	jle    e97d <func_56+0x20d>
    e9eb:	83 85 b4 f3 ff ff 01 	addl   $0x1,-0xc4c(%rbp)
    e9f2:	83 bd b4 f3 ff ff 00 	cmpl   $0x0,-0xc4c(%rbp)
    e9f9:	0f 8e 72 ff ff ff    	jle    e971 <func_56+0x201>
    e9ff:	48 8b 95 d8 f3 ff ff 	mov    -0xc28(%rbp),%rdx
    ea06:	48 8b 85 30 f4 ff ff 	mov    -0xbd0(%rbp),%rax
    ea0d:	48 89 10             	mov    %rdx,(%rax)
    ea10:	48 8b 85 30 f4 ff ff 	mov    -0xbd0(%rbp),%rax
    ea17:	48 8b 00             	mov    (%rax),%rax
    ea1a:	48 8b 95 d8 f3 ff ff 	mov    -0xc28(%rbp),%rdx
    ea21:	48 89 95 88 f3 ff ff 	mov    %rdx,-0xc78(%rbp)
    ea28:	48 39 85 88 f3 ff ff 	cmp    %rax,-0xc78(%rbp)
    ea2f:	0f 94 c0             	sete   %al
    ea32:	0f b6 d8             	movzbl %al,%ebx
    ea35:	0f b7 85 94 f3 ff ff 	movzwl -0xc6c(%rbp),%eax
    ea3c:	48 8b 15 25 4c 01 00 	mov    0x14c25(%rip),%rdx        # 23668 <g_81>
    ea43:	89 c6                	mov    %eax,%esi
    ea45:	bf 01 00 00 00       	mov    $0x1,%edi
    ea4a:	e8 43 8a ff ff       	callq  7492 <safe_lshift_func_int16_t_s_s>
    ea4f:	48 0f bf d0          	movswq %ax,%rdx
    ea53:	48 8b 05 c6 5d 01 00 	mov    0x15dc6(%rip),%rax        # 24820 <g_63>
    ea5a:	48 39 c2             	cmp    %rax,%rdx
    ea5d:	7d 13                	jge    ea72 <func_56+0x302>
    ea5f:	48 8b 05 ba 5d 01 00 	mov    0x15dba(%rip),%rax        # 24820 <g_63>
    ea66:	48 85 c0             	test   %rax,%rax
    ea69:	74 07                	je     ea72 <func_56+0x302>
    ea6b:	b8 01 00 00 00       	mov    $0x1,%eax
    ea70:	eb 05                	jmp    ea77 <func_56+0x307>
    ea72:	b8 00 00 00 00       	mov    $0x0,%eax
    ea77:	89 c6                	mov    %eax,%esi
    ea79:	bf 00 00 00 00       	mov    $0x0,%edi
    ea7e:	e8 5e 8a ff ff       	callq  74e1 <safe_lshift_func_int16_t_s_u>
    ea83:	98                   	cwtl   
    ea84:	39 c3                	cmp    %eax,%ebx
    ea86:	0f 9d c0             	setge  %al
    ea89:	0f b6 c0             	movzbl %al,%eax
    ea8c:	be 01 00 00 00       	mov    $0x1,%esi
    ea91:	48 89 c7             	mov    %rax,%rdi
    ea94:	e8 95 95 ff ff       	callq  802e <safe_add_func_uint64_t_u_u>
    ea99:	8b 15 85 b5 00 00    	mov    0xb585(%rip),%edx        # 1a024 <g_2>
    ea9f:	48 63 d2             	movslq %edx,%rdx
    eaa2:	48 21 d0             	and    %rdx,%rax
    eaa5:	48 85 c0             	test   %rax,%rax
    eaa8:	74 13                	je     eabd <func_56+0x34d>
    eaaa:	48 8b 05 87 b5 00 00 	mov    0xb587(%rip),%rax        # 1a038 <g_46>
    eab1:	48 85 c0             	test   %rax,%rax
    eab4:	74 07                	je     eabd <func_56+0x34d>
    eab6:	b9 01 00 00 00       	mov    $0x1,%ecx
    eabb:	eb 05                	jmp    eac2 <func_56+0x352>
    eabd:	b9 00 00 00 00       	mov    $0x0,%ecx
    eac2:	48 8b 85 28 f4 ff ff 	mov    -0xbd8(%rbp),%rax
    eac9:	0f be f0             	movsbl %al,%esi
    eacc:	48 8d 85 50 f3 ff ff 	lea    -0xcb0(%rbp),%rax
    ead3:	48 8b 95 28 f4 ff ff 	mov    -0xbd8(%rbp),%rdx
    eada:	48 89 c7             	mov    %rax,%rdi
    eadd:	e8 59 0a 00 00       	callq  f53b <func_65>
    eae2:	48 8b 05 87 1c 01 00 	mov    0x11c87(%rip),%rax        # 20770 <g_1334+0x230>
    eae9:	48 85 c0             	test   %rax,%rax
    eaec:	0f 84 9b 05 00 00    	je     f08d <func_56+0x91d>
    eaf2:	c7 85 f0 f4 ff ff 52 	movl   $0x1828752,-0xb10(%rbp)
    eaf9:	87 82 01 
    eafc:	c7 85 f4 f4 ff ff 52 	movl   $0x1828752,-0xb0c(%rbp)
    eb03:	87 82 01 
    eb06:	c7 85 f8 f4 ff ff 52 	movl   $0x1828752,-0xb08(%rbp)
    eb0d:	87 82 01 
    eb10:	c7 85 fc f4 ff ff 52 	movl   $0x1828752,-0xb04(%rbp)
    eb17:	87 82 01 
    eb1a:	c7 85 00 f5 ff ff 52 	movl   $0x1828752,-0xb00(%rbp)
    eb21:	87 82 01 
    eb24:	c7 85 04 f5 ff ff 52 	movl   $0x1828752,-0xafc(%rbp)
    eb2b:	87 82 01 
    eb2e:	c7 85 08 f5 ff ff 52 	movl   $0x1828752,-0xaf8(%rbp)
    eb35:	87 82 01 
    eb38:	48 8d 05 59 4e 01 00 	lea    0x14e59(%rip),%rax        # 23998 <g_445>
    eb3f:	48 89 85 40 f4 ff ff 	mov    %rax,-0xbc0(%rbp)
    eb46:	48 8d 85 00 f8 ff ff 	lea    -0x800(%rbp),%rax
    eb4d:	48 8d 15 2c 43 01 00 	lea    0x1432c(%rip),%rdx        # 22e80 <g_2682+0x10a0>
    eb54:	b9 fc 00 00 00       	mov    $0xfc,%ecx
    eb59:	48 89 c7             	mov    %rax,%rdi
    eb5c:	48 89 d6             	mov    %rdx,%rsi
    eb5f:	f3 48 a5             	rep movsq %ds:(%rsi),%es:(%rdi)
    eb62:	48 8d 85 00 f8 ff ff 	lea    -0x800(%rbp),%rax
    eb69:	48 05 70 04 00 00    	add    $0x470,%rax
    eb6f:	48 89 85 48 f4 ff ff 	mov    %rax,-0xbb8(%rbp)
    eb76:	48 c7 85 50 f4 ff ff 	movq   $0xffffffffffffffff,-0xbb0(%rbp)
    eb7d:	ff ff ff ff 
    eb81:	48 c7 85 90 f5 ff ff 	movq   $0x5,-0xa70(%rbp)
    eb88:	05 00 00 00 
    eb8c:	48 c7 85 98 f5 ff ff 	movq   $0x5,-0xa68(%rbp)
    eb93:	05 00 00 00 
    eb97:	48 c7 85 a0 f5 ff ff 	movq   $0x5,-0xa60(%rbp)
    eb9e:	05 00 00 00 
    eba2:	48 c7 85 a8 f5 ff ff 	movq   $0x5,-0xa58(%rbp)
    eba9:	05 00 00 00 
    ebad:	48 c7 85 b0 f5 ff ff 	movq   $0x5,-0xa50(%rbp)
    ebb4:	05 00 00 00 
    ebb8:	48 c7 85 b8 f5 ff ff 	movq   $0x5,-0xa48(%rbp)
    ebbf:	05 00 00 00 
    ebc3:	48 c7 85 c0 f5 ff ff 	movq   $0x5,-0xa40(%rbp)
    ebca:	05 00 00 00 
    ebce:	48 c7 85 c8 f5 ff ff 	movq   $0x5,-0xa38(%rbp)
    ebd5:	05 00 00 00 
    ebd9:	48 c7 85 d0 f5 ff ff 	movq   $0x5,-0xa30(%rbp)
    ebe0:	05 00 00 00 
    ebe4:	48 c7 85 d8 f5 ff ff 	movq   $0x5,-0xa28(%rbp)
    ebeb:	05 00 00 00 
    ebef:	48 b8 7e 0a ff 3f 68 	movabs $0x5e2590683fff0a7e,%rax
    ebf6:	90 25 5e 
    ebf9:	48 89 85 58 f4 ff ff 	mov    %rax,-0xba8(%rbp)
    ec00:	48 8d 85 a6 f3 ff ff 	lea    -0xc5a(%rbp),%rax
    ec07:	48 89 85 e0 f5 ff ff 	mov    %rax,-0xa20(%rbp)
    ec0e:	48 8d 05 7c b5 00 00 	lea    0xb57c(%rip),%rax        # 1a191 <g_167>
    ec15:	48 89 85 e8 f5 ff ff 	mov    %rax,-0xa18(%rbp)
    ec1c:	48 8d 85 a6 f3 ff ff 	lea    -0xc5a(%rbp),%rax
    ec23:	48 89 85 f0 f5 ff ff 	mov    %rax,-0xa10(%rbp)
    ec2a:	48 8d 85 a6 f3 ff ff 	lea    -0xc5a(%rbp),%rax
    ec31:	48 89 85 f8 f5 ff ff 	mov    %rax,-0xa08(%rbp)
    ec38:	48 8d 85 a6 f3 ff ff 	lea    -0xc5a(%rbp),%rax
    ec3f:	48 89 85 00 f6 ff ff 	mov    %rax,-0xa00(%rbp)
    ec46:	48 8d 85 a6 f3 ff ff 	lea    -0xc5a(%rbp),%rax
    ec4d:	48 89 85 08 f6 ff ff 	mov    %rax,-0x9f8(%rbp)
    ec54:	48 8d 85 a6 f3 ff ff 	lea    -0xc5a(%rbp),%rax
    ec5b:	48 89 85 10 f6 ff ff 	mov    %rax,-0x9f0(%rbp)
    ec62:	48 c7 85 18 f6 ff ff 	movq   $0x0,-0x9e8(%rbp)
    ec69:	00 00 00 00 
    ec6d:	48 8d 85 a6 f3 ff ff 	lea    -0xc5a(%rbp),%rax
    ec74:	48 89 85 20 f6 ff ff 	mov    %rax,-0x9e0(%rbp)
    ec7b:	48 c7 85 28 f6 ff ff 	movq   $0x0,-0x9d8(%rbp)
    ec82:	00 00 00 00 
    ec86:	48 8d 05 04 b5 00 00 	lea    0xb504(%rip),%rax        # 1a191 <g_167>
    ec8d:	48 89 85 30 f6 ff ff 	mov    %rax,-0x9d0(%rbp)
    ec94:	48 8d 05 f6 b4 00 00 	lea    0xb4f6(%rip),%rax        # 1a191 <g_167>
    ec9b:	48 89 85 38 f6 ff ff 	mov    %rax,-0x9c8(%rbp)
    eca2:	48 8d 05 e8 b4 00 00 	lea    0xb4e8(%rip),%rax        # 1a191 <g_167>
    eca9:	48 89 85 40 f6 ff ff 	mov    %rax,-0x9c0(%rbp)
    ecb0:	48 8d 05 da b4 00 00 	lea    0xb4da(%rip),%rax        # 1a191 <g_167>
    ecb7:	48 89 85 48 f6 ff ff 	mov    %rax,-0x9b8(%rbp)
    ecbe:	48 c7 85 50 f6 ff ff 	movq   $0x0,-0x9b0(%rbp)
    ecc5:	00 00 00 00 
    ecc9:	48 8d 05 c1 b4 00 00 	lea    0xb4c1(%rip),%rax        # 1a191 <g_167>
    ecd0:	48 89 85 58 f6 ff ff 	mov    %rax,-0x9a8(%rbp)
    ecd7:	48 c7 85 60 f6 ff ff 	movq   $0x0,-0x9a0(%rbp)
    ecde:	00 00 00 00 
    ece2:	48 8d 05 a8 b4 00 00 	lea    0xb4a8(%rip),%rax        # 1a191 <g_167>
    ece9:	48 89 85 68 f6 ff ff 	mov    %rax,-0x998(%rbp)
    ecf0:	48 8d 05 9a b4 00 00 	lea    0xb49a(%rip),%rax        # 1a191 <g_167>
    ecf7:	48 89 85 70 f6 ff ff 	mov    %rax,-0x990(%rbp)
    ecfe:	48 8d 05 8c b4 00 00 	lea    0xb48c(%rip),%rax        # 1a191 <g_167>
    ed05:	48 89 85 78 f6 ff ff 	mov    %rax,-0x988(%rbp)
    ed0c:	48 8d 05 7e b4 00 00 	lea    0xb47e(%rip),%rax        # 1a191 <g_167>
    ed13:	48 89 85 80 f6 ff ff 	mov    %rax,-0x980(%rbp)
    ed1a:	48 c7 85 88 f6 ff ff 	movq   $0x0,-0x978(%rbp)
    ed21:	00 00 00 00 
    ed25:	48 8d 85 a6 f3 ff ff 	lea    -0xc5a(%rbp),%rax
    ed2c:	48 89 85 90 f6 ff ff 	mov    %rax,-0x970(%rbp)
    ed33:	48 c7 85 98 f6 ff ff 	movq   $0x0,-0x968(%rbp)
    ed3a:	00 00 00 00 
    ed3e:	48 8d 85 a6 f3 ff ff 	lea    -0xc5a(%rbp),%rax
    ed45:	48 89 85 a0 f6 ff ff 	mov    %rax,-0x960(%rbp)
    ed4c:	48 8d 85 a6 f3 ff ff 	lea    -0xc5a(%rbp),%rax
    ed53:	48 89 85 a8 f6 ff ff 	mov    %rax,-0x958(%rbp)
    ed5a:	48 8d 85 a6 f3 ff ff 	lea    -0xc5a(%rbp),%rax
    ed61:	48 89 85 b0 f6 ff ff 	mov    %rax,-0x950(%rbp)
    ed68:	48 8d 85 a6 f3 ff ff 	lea    -0xc5a(%rbp),%rax
    ed6f:	48 89 85 b8 f6 ff ff 	mov    %rax,-0x948(%rbp)
    ed76:	48 8d 85 a6 f3 ff ff 	lea    -0xc5a(%rbp),%rax
    ed7d:	48 89 85 c0 f6 ff ff 	mov    %rax,-0x940(%rbp)
    ed84:	48 8d 05 06 b4 00 00 	lea    0xb406(%rip),%rax        # 1a191 <g_167>
    ed8b:	48 89 85 c8 f6 ff ff 	mov    %rax,-0x938(%rbp)
    ed92:	48 8d 85 a6 f3 ff ff 	lea    -0xc5a(%rbp),%rax
    ed99:	48 89 85 d0 f6 ff ff 	mov    %rax,-0x930(%rbp)
    eda0:	48 8d 05 ea b3 00 00 	lea    0xb3ea(%rip),%rax        # 1a191 <g_167>
    eda7:	48 89 85 d8 f6 ff ff 	mov    %rax,-0x928(%rbp)
    edae:	48 b8 f2 b5 95 a3 57 	movabs $0x724a9e57a395b5f2,%rax
    edb5:	9e 4a 72 
    edb8:	48 89 85 60 f4 ff ff 	mov    %rax,-0xba0(%rbp)
    edbf:	48 8d 05 fa 4c 01 00 	lea    0x14cfa(%rip),%rax        # 23ac0 <g_1116>
    edc6:	48 89 85 f8 f3 ff ff 	mov    %rax,-0xc08(%rbp)
    edcd:	48 8d 85 f8 f3 ff ff 	lea    -0xc08(%rbp),%rax
    edd4:	48 89 85 68 f4 ff ff 	mov    %rax,-0xb98(%rbp)
    eddb:	48 8d 85 70 f4 ff ff 	lea    -0xb90(%rbp),%rax
    ede2:	48 83 c0 05          	add    $0x5,%rax
    ede6:	48 89 85 e0 f6 ff ff 	mov    %rax,-0x920(%rbp)
    eded:	48 c7 85 e8 f6 ff ff 	movq   $0x0,-0x918(%rbp)
    edf4:	00 00 00 00 
    edf8:	48 c7 85 f0 f6 ff ff 	movq   $0x0,-0x910(%rbp)
    edff:	00 00 00 00 
    ee03:	48 c7 85 f8 f6 ff ff 	movq   $0x0,-0x908(%rbp)
    ee0a:	00 00 00 00 
    ee0e:	48 c7 85 00 f7 ff ff 	movq   $0x0,-0x900(%rbp)
    ee15:	00 00 00 00 
    ee19:	48 8d 85 70 f4 ff ff 	lea    -0xb90(%rbp),%rax
    ee20:	48 83 c0 05          	add    $0x5,%rax
    ee24:	48 89 85 08 f7 ff ff 	mov    %rax,-0x8f8(%rbp)
    ee2b:	48 c7 85 10 f7 ff ff 	movq   $0x0,-0x8f0(%rbp)
    ee32:	00 00 00 00 
    ee36:	48 8d 05 18 07 01 00 	lea    0x10718(%rip),%rax        # 1f555 <g_1281+0x5>
    ee3d:	48 89 85 18 f7 ff ff 	mov    %rax,-0x8e8(%rbp)
    ee44:	48 8d 85 40 f5 ff ff 	lea    -0xac0(%rbp),%rax
    ee4b:	48 83 c0 08          	add    $0x8,%rax
    ee4f:	48 89 85 20 f7 ff ff 	mov    %rax,-0x8e0(%rbp)
    ee56:	48 8d 85 40 f5 ff ff 	lea    -0xac0(%rbp),%rax
    ee5d:	48 83 c0 08          	add    $0x8,%rax
    ee61:	48 89 85 28 f7 ff ff 	mov    %rax,-0x8d8(%rbp)
    ee68:	48 8d 05 e6 06 01 00 	lea    0x106e6(%rip),%rax        # 1f555 <g_1281+0x5>
    ee6f:	48 89 85 30 f7 ff ff 	mov    %rax,-0x8d0(%rbp)
    ee76:	48 c7 85 38 f7 ff ff 	movq   $0x0,-0x8c8(%rbp)
    ee7d:	00 00 00 00 
    ee81:	48 8d 05 cd 06 01 00 	lea    0x106cd(%rip),%rax        # 1f555 <g_1281+0x5>
    ee88:	48 89 85 40 f7 ff ff 	mov    %rax,-0x8c0(%rbp)
    ee8f:	48 8d 85 40 f5 ff ff 	lea    -0xac0(%rbp),%rax
    ee96:	48 83 c0 08          	add    $0x8,%rax
    ee9a:	48 89 85 48 f7 ff ff 	mov    %rax,-0x8b8(%rbp)
    eea1:	48 8d 05 1d 06 01 00 	lea    0x1061d(%rip),%rax        # 1f4c5 <g_997+0x45>
    eea8:	48 89 85 50 f7 ff ff 	mov    %rax,-0x8b0(%rbp)
    eeaf:	48 8d 05 0f 06 01 00 	lea    0x1060f(%rip),%rax        # 1f4c5 <g_997+0x45>
    eeb6:	48 89 85 58 f7 ff ff 	mov    %rax,-0x8a8(%rbp)
    eebd:	48 8d 85 70 f4 ff ff 	lea    -0xb90(%rbp),%rax
    eec4:	48 83 c0 05          	add    $0x5,%rax
    eec8:	48 89 85 60 f7 ff ff 	mov    %rax,-0x8a0(%rbp)
    eecf:	48 c7 85 68 f7 ff ff 	movq   $0x0,-0x898(%rbp)
    eed6:	00 00 00 00 
    eeda:	48 8d 85 70 f4 ff ff 	lea    -0xb90(%rbp),%rax
    eee1:	48 83 c0 05          	add    $0x5,%rax
    eee5:	48 89 85 70 f7 ff ff 	mov    %rax,-0x890(%rbp)
    eeec:	48 8d 05 d2 05 01 00 	lea    0x105d2(%rip),%rax        # 1f4c5 <g_997+0x45>
    eef3:	48 89 85 78 f7 ff ff 	mov    %rax,-0x888(%rbp)
    eefa:	48 8d 05 c4 05 01 00 	lea    0x105c4(%rip),%rax        # 1f4c5 <g_997+0x45>
    ef01:	48 89 85 80 f7 ff ff 	mov    %rax,-0x880(%rbp)
    ef08:	48 8d 05 29 b1 00 00 	lea    0xb129(%rip),%rax        # 1a038 <g_46>
    ef0f:	48 89 85 88 f7 ff ff 	mov    %rax,-0x878(%rbp)
    ef16:	48 8d 85 40 f5 ff ff 	lea    -0xac0(%rbp),%rax
    ef1d:	48 83 c0 08          	add    $0x8,%rax
    ef21:	48 89 85 90 f7 ff ff 	mov    %rax,-0x870(%rbp)
    ef28:	48 8d 05 8c 05 01 00 	lea    0x1058c(%rip),%rax        # 1f4bb <g_997+0x3b>
    ef2f:	48 89 85 98 f7 ff ff 	mov    %rax,-0x868(%rbp)
    ef36:	48 8d 85 40 f5 ff ff 	lea    -0xac0(%rbp),%rax
    ef3d:	48 83 c0 08          	add    $0x8,%rax
    ef41:	48 89 85 a0 f7 ff ff 	mov    %rax,-0x860(%rbp)
    ef48:	48 8d 05 e9 b0 00 00 	lea    0xb0e9(%rip),%rax        # 1a038 <g_46>
    ef4f:	48 89 85 a8 f7 ff ff 	mov    %rax,-0x858(%rbp)
    ef56:	48 8d 05 db b0 00 00 	lea    0xb0db(%rip),%rax        # 1a038 <g_46>
    ef5d:	48 89 85 b0 f7 ff ff 	mov    %rax,-0x850(%rbp)
    ef64:	48 8d 85 40 f5 ff ff 	lea    -0xac0(%rbp),%rax
    ef6b:	48 83 c0 08          	add    $0x8,%rax
    ef6f:	48 89 85 b8 f7 ff ff 	mov    %rax,-0x848(%rbp)
    ef76:	48 c7 85 c0 f7 ff ff 	movq   $0x0,-0x840(%rbp)
    ef7d:	00 00 00 00 
    ef81:	48 c7 85 c8 f7 ff ff 	movq   $0x0,-0x838(%rbp)
    ef88:	00 00 00 00 
    ef8c:	48 c7 85 d0 f7 ff ff 	movq   $0x0,-0x830(%rbp)
    ef93:	00 00 00 00 
    ef97:	48 8d 85 70 f4 ff ff 	lea    -0xb90(%rbp),%rax
    ef9e:	48 83 c0 05          	add    $0x5,%rax
    efa2:	48 89 85 d8 f7 ff ff 	mov    %rax,-0x828(%rbp)
    efa9:	48 8d 85 70 f4 ff ff 	lea    -0xb90(%rbp),%rax
    efb0:	48 83 c0 05          	add    $0x5,%rax
    efb4:	48 89 85 e0 f7 ff ff 	mov    %rax,-0x820(%rbp)
    efbb:	48 c7 85 e8 f7 ff ff 	movq   $0x0,-0x818(%rbp)
    efc2:	00 00 00 00 
    efc6:	48 c7 85 f0 f7 ff ff 	movq   $0x0,-0x810(%rbp)
    efcd:	00 00 00 00 
    efd1:	c7 85 d4 f3 ff ff 00 	movl   $0x0,-0xc2c(%rbp)
    efd8:	00 00 00 
    efdb:	eb 1e                	jmp    effb <func_56+0x88b>
    efdd:	8b 85 d4 f3 ff ff    	mov    -0xc2c(%rbp),%eax
    efe3:	48 98                	cltq   
    efe5:	48 8d 15 b8 b2 00 00 	lea    0xb2b8(%rip),%rdx        # 1a2a4 <g_294+0x14>
    efec:	48 89 94 c5 b8 f4 ff 	mov    %rdx,-0xb48(%rbp,%rax,8)
    eff3:	ff 
    eff4:	83 85 d4 f3 ff ff 01 	addl   $0x1,-0xc2c(%rbp)
    effb:	83 bd d4 f3 ff ff 00 	cmpl   $0x0,-0xc2c(%rbp)
    f002:	7e d9                	jle    efdd <func_56+0x86d>
    f004:	c7 85 d4 f3 ff ff 00 	movl   $0x0,-0xc2c(%rbp)
    f00b:	00 00 00 
    f00e:	eb 1b                	jmp    f02b <func_56+0x8bb>
    f010:	8b 85 d4 f3 ff ff    	mov    -0xc2c(%rbp),%eax
    f016:	48 98                	cltq   
    f018:	48 c7 84 c5 40 f5 ff 	movq   $0xffffffffffffffff,-0xac0(%rbp,%rax,8)
    f01f:	ff ff ff ff ff 
    f024:	83 85 d4 f3 ff ff 01 	addl   $0x1,-0xc2c(%rbp)
    f02b:	83 bd d4 f3 ff ff 08 	cmpl   $0x8,-0xc2c(%rbp)
    f032:	7e dc                	jle    f010 <func_56+0x8a0>
    f034:	48 8b 05 35 46 01 00 	mov    0x14635(%rip),%rax        # 23670 <g_96>
    f03b:	c7 00 05 00 00 00    	movl   $0x5,(%rax)
    f041:	48 c7 05 44 58 01 00 	movq   $0x0,0x15844(%rip)        # 24890 <g_983>
    f048:	00 00 00 00 
    f04c:	48 8b 85 98 f3 ff ff 	mov    -0xc68(%rbp),%rax
    f053:	48 8b 8d 70 f4 ff ff 	mov    -0xb90(%rbp),%rcx
    f05a:	48 8b 9d 78 f4 ff ff 	mov    -0xb88(%rbp),%rbx
    f061:	48 89 08             	mov    %rcx,(%rax)
    f064:	48 89 58 08          	mov    %rbx,0x8(%rax)
    f068:	48 8b 95 80 f4 ff ff 	mov    -0xb80(%rbp),%rdx
    f06f:	48 89 50 10          	mov    %rdx,0x10(%rax)
    f073:	0f b7 95 88 f4 ff ff 	movzwl -0xb78(%rbp),%edx
    f07a:	66 89 50 18          	mov    %dx,0x18(%rax)
    f07e:	0f b6 95 8a f4 ff ff 	movzbl -0xb76(%rbp),%edx
    f085:	88 50 1a             	mov    %dl,0x1a(%rax)
    f088:	e9 89 04 00 00       	jmpq   f516 <func_56+0xda6>
    f08d:	c7 85 a8 f3 ff ff 64 	movl   $0xddbe5264,-0xc58(%rbp)
    f094:	52 be dd 
    f097:	c7 85 b0 f3 ff ff 00 	movl   $0x0,-0xc50(%rbp)
    f09e:	00 00 00 
    f0a1:	eb 1a                	jmp    f0bd <func_56+0x94d>
    f0a3:	8b 85 b0 f3 ff ff    	mov    -0xc50(%rbp),%eax
    f0a9:	48 98                	cltq   
    f0ab:	c7 84 85 e0 f5 ff ff 	movl   $0x469a8d6b,-0xa20(%rbp,%rax,4)
    f0b2:	6b 8d 9a 46 
    f0b6:	83 85 b0 f3 ff ff 01 	addl   $0x1,-0xc50(%rbp)
    f0bd:	83 bd b0 f3 ff ff 01 	cmpl   $0x1,-0xc50(%rbp)
    f0c4:	7e dd                	jle    f0a3 <func_56+0x933>
    f0c6:	90                   	nop
    f0c7:	48 c7 05 4e 57 01 00 	movq   $0xffffffffffffffec,0x1574e(%rip)        # 24820 <g_63>
    f0ce:	ec ff ff ff 
    f0d2:	e9 f2 03 00 00       	jmpq   f4c9 <func_56+0xd59>
    f0d7:	48 8d 05 12 b2 00 00 	lea    0xb212(%rip),%rax        # 1a2f0 <g_464>
    f0de:	48 89 85 00 f4 ff ff 	mov    %rax,-0xc00(%rbp)
    f0e5:	c7 85 ac f3 ff ff 8e 	movl   $0x12bb628e,-0xc54(%rbp)
    f0ec:	62 bb 12 
    f0ef:	48 8d 85 a8 f3 ff ff 	lea    -0xc58(%rbp),%rax
    f0f6:	48 89 85 08 f4 ff ff 	mov    %rax,-0xbf8(%rbp)
    f0fd:	48 c7 85 10 f4 ff ff 	movq   $0x0,-0xbf0(%rbp)
    f104:	00 00 00 00 
    f108:	48 8d 05 61 49 01 00 	lea    0x14961(%rip),%rax        # 23a70 <g_1075>
    f10f:	48 89 85 f8 f3 ff ff 	mov    %rax,-0xc08(%rbp)
    f116:	48 8d 85 f8 f3 ff ff 	lea    -0xc08(%rbp),%rax
    f11d:	48 89 85 00 f8 ff ff 	mov    %rax,-0x800(%rbp)
    f124:	48 8d 85 f8 f3 ff ff 	lea    -0xc08(%rbp),%rax
    f12b:	48 89 85 08 f8 ff ff 	mov    %rax,-0x7f8(%rbp)
    f132:	48 8d 85 f8 f3 ff ff 	lea    -0xc08(%rbp),%rax
    f139:	48 89 85 10 f8 ff ff 	mov    %rax,-0x7f0(%rbp)
    f140:	48 8d 85 f8 f3 ff ff 	lea    -0xc08(%rbp),%rax
    f147:	48 89 85 18 f8 ff ff 	mov    %rax,-0x7e8(%rbp)
    f14e:	48 8d 85 f8 f3 ff ff 	lea    -0xc08(%rbp),%rax
    f155:	48 89 85 20 f8 ff ff 	mov    %rax,-0x7e0(%rbp)
    f15c:	48 8d 85 f8 f3 ff ff 	lea    -0xc08(%rbp),%rax
    f163:	48 89 85 28 f8 ff ff 	mov    %rax,-0x7d8(%rbp)
    f16a:	48 8d 85 f8 f3 ff ff 	lea    -0xc08(%rbp),%rax
    f171:	48 89 85 30 f8 ff ff 	mov    %rax,-0x7d0(%rbp)
    f178:	48 8d 85 f8 f3 ff ff 	lea    -0xc08(%rbp),%rax
    f17f:	48 89 85 38 f8 ff ff 	mov    %rax,-0x7c8(%rbp)
    f186:	48 8d 85 f8 f3 ff ff 	lea    -0xc08(%rbp),%rax
    f18d:	48 89 85 40 f8 ff ff 	mov    %rax,-0x7c0(%rbp)
    f194:	48 8d 85 f8 f3 ff ff 	lea    -0xc08(%rbp),%rax
    f19b:	48 89 85 48 f8 ff ff 	mov    %rax,-0x7b8(%rbp)
    f1a2:	48 8d 85 f8 f3 ff ff 	lea    -0xc08(%rbp),%rax
    f1a9:	48 89 85 50 f8 ff ff 	mov    %rax,-0x7b0(%rbp)
    f1b0:	48 8d 85 f8 f3 ff ff 	lea    -0xc08(%rbp),%rax
    f1b7:	48 89 85 58 f8 ff ff 	mov    %rax,-0x7a8(%rbp)
    f1be:	48 8d 85 f8 f3 ff ff 	lea    -0xc08(%rbp),%rax
    f1c5:	48 89 85 60 f8 ff ff 	mov    %rax,-0x7a0(%rbp)
    f1cc:	48 8d 85 f8 f3 ff ff 	lea    -0xc08(%rbp),%rax
    f1d3:	48 89 85 68 f8 ff ff 	mov    %rax,-0x798(%rbp)
    f1da:	48 8d 85 f8 f3 ff ff 	lea    -0xc08(%rbp),%rax
    f1e1:	48 89 85 70 f8 ff ff 	mov    %rax,-0x790(%rbp)
    f1e8:	48 8d 85 f8 f3 ff ff 	lea    -0xc08(%rbp),%rax
    f1ef:	48 89 85 78 f8 ff ff 	mov    %rax,-0x788(%rbp)
    f1f6:	48 8d 85 f8 f3 ff ff 	lea    -0xc08(%rbp),%rax
    f1fd:	48 89 85 80 f8 ff ff 	mov    %rax,-0x780(%rbp)
    f204:	48 8d 85 f8 f3 ff ff 	lea    -0xc08(%rbp),%rax
    f20b:	48 89 85 88 f8 ff ff 	mov    %rax,-0x778(%rbp)
    f212:	48 8d 85 f8 f3 ff ff 	lea    -0xc08(%rbp),%rax
    f219:	48 89 85 90 f8 ff ff 	mov    %rax,-0x770(%rbp)
    f220:	48 8d 85 f8 f3 ff ff 	lea    -0xc08(%rbp),%rax
    f227:	48 89 85 98 f8 ff ff 	mov    %rax,-0x768(%rbp)
    f22e:	48 8d 85 f8 f3 ff ff 	lea    -0xc08(%rbp),%rax
    f235:	48 89 85 a0 f8 ff ff 	mov    %rax,-0x760(%rbp)
    f23c:	48 8d 85 f8 f3 ff ff 	lea    -0xc08(%rbp),%rax
    f243:	48 89 85 a8 f8 ff ff 	mov    %rax,-0x758(%rbp)
    f24a:	48 8d 85 f8 f3 ff ff 	lea    -0xc08(%rbp),%rax
    f251:	48 89 85 b0 f8 ff ff 	mov    %rax,-0x750(%rbp)
    f258:	48 8d 85 f8 f3 ff ff 	lea    -0xc08(%rbp),%rax
    f25f:	48 89 85 b8 f8 ff ff 	mov    %rax,-0x748(%rbp)
    f266:	48 8d 85 f8 f3 ff ff 	lea    -0xc08(%rbp),%rax
    f26d:	48 89 85 c0 f8 ff ff 	mov    %rax,-0x740(%rbp)
    f274:	48 8d 85 f8 f3 ff ff 	lea    -0xc08(%rbp),%rax
    f27b:	48 89 85 c8 f8 ff ff 	mov    %rax,-0x738(%rbp)
    f282:	48 8d 85 f8 f3 ff ff 	lea    -0xc08(%rbp),%rax
    f289:	48 89 85 d0 f8 ff ff 	mov    %rax,-0x730(%rbp)
    f290:	48 8d 85 f8 f3 ff ff 	lea    -0xc08(%rbp),%rax
    f297:	48 89 85 d8 f8 ff ff 	mov    %rax,-0x728(%rbp)
    f29e:	48 8d 85 f8 f3 ff ff 	lea    -0xc08(%rbp),%rax
    f2a5:	48 89 85 e0 f8 ff ff 	mov    %rax,-0x720(%rbp)
    f2ac:	48 8d 85 f8 f3 ff ff 	lea    -0xc08(%rbp),%rax
    f2b3:	48 89 85 e8 f8 ff ff 	mov    %rax,-0x718(%rbp)
    f2ba:	48 8d 85 f8 f3 ff ff 	lea    -0xc08(%rbp),%rax
    f2c1:	48 89 85 f0 f8 ff ff 	mov    %rax,-0x710(%rbp)
    f2c8:	48 8d 85 f8 f3 ff ff 	lea    -0xc08(%rbp),%rax
    f2cf:	48 89 85 f8 f8 ff ff 	mov    %rax,-0x708(%rbp)
    f2d6:	48 8d 85 f8 f3 ff ff 	lea    -0xc08(%rbp),%rax
    f2dd:	48 89 85 00 f9 ff ff 	mov    %rax,-0x700(%rbp)
    f2e4:	48 8d 85 f8 f3 ff ff 	lea    -0xc08(%rbp),%rax
    f2eb:	48 89 85 08 f9 ff ff 	mov    %rax,-0x6f8(%rbp)
    f2f2:	48 8d 85 f8 f3 ff ff 	lea    -0xc08(%rbp),%rax
    f2f9:	48 89 85 10 f9 ff ff 	mov    %rax,-0x6f0(%rbp)
    f300:	48 8d 85 f8 f3 ff ff 	lea    -0xc08(%rbp),%rax
    f307:	48 89 85 18 f9 ff ff 	mov    %rax,-0x6e8(%rbp)
    f30e:	48 8d 85 10 f5 ff ff 	lea    -0xaf0(%rbp),%rax
    f315:	48 83 c0 18          	add    $0x18,%rax
    f319:	48 89 85 38 f4 ff ff 	mov    %rax,-0xbc8(%rbp)
    f320:	c7 85 c8 f3 ff ff 00 	movl   $0x0,-0xc38(%rbp)
    f327:	00 00 00 
    f32a:	eb 1e                	jmp    f34a <func_56+0xbda>
    f32c:	8b 85 c8 f3 ff ff    	mov    -0xc38(%rbp),%eax
    f332:	48 98                	cltq   
    f334:	48 8d 15 5d af 00 00 	lea    0xaf5d(%rip),%rdx        # 1a298 <g_294+0x8>
    f33b:	48 89 94 c5 e0 f6 ff 	mov    %rdx,-0x920(%rbp,%rax,8)
    f342:	ff 
    f343:	83 85 c8 f3 ff ff 01 	addl   $0x1,-0xc38(%rbp)
    f34a:	83 bd c8 f3 ff ff 06 	cmpl   $0x6,-0xc38(%rbp)
    f351:	7e d9                	jle    f32c <func_56+0xbbc>
    f353:	48 8d 05 8e 54 01 00 	lea    0x1548e(%rip),%rax        # 247e8 <g_45+0x28>
    f35a:	48 89 05 bf 4e 01 00 	mov    %rax,0x14ebf(%rip)        # 24220 <g_1533>
    f361:	80 bd a7 f3 ff ff 00 	cmpb   $0x0,-0xc59(%rbp)
    f368:	0f 85 3b 01 00 00    	jne    f4a9 <func_56+0xd39>
    f36e:	0f b7 85 94 f3 ff ff 	movzwl -0xc6c(%rbp),%eax
    f375:	39 85 ac f3 ff ff    	cmp    %eax,-0xc54(%rbp)
    f37b:	0f 9f c0             	setg   %al
    f37e:	0f b6 c0             	movzbl %al,%eax
    f381:	89 85 a8 f3 ff ff    	mov    %eax,-0xc58(%rbp)
    f387:	8b 85 a8 f3 ff ff    	mov    -0xc58(%rbp),%eax
    f38d:	89 c2                	mov    %eax,%edx
    f38f:	48 8b 85 00 f4 ff ff 	mov    -0xc00(%rbp),%rax
    f396:	c7 00 d3 7f ea 34    	movl   $0x34ea7fd3,(%rax)
    f39c:	48 8b 85 00 f4 ff ff 	mov    -0xc00(%rbp),%rax
    f3a3:	8b 00                	mov    (%rax),%eax
    f3a5:	89 d6                	mov    %edx,%esi
    f3a7:	89 c7                	mov    %eax,%edi
    f3a9:	e8 22 8b ff ff       	callq  7ed0 <safe_sub_func_uint32_t_u_u>
    f3ae:	85 c0                	test   %eax,%eax
    f3b0:	0f 85 9d 00 00 00    	jne    f453 <func_56+0xce3>
    f3b6:	0f b7 85 94 f3 ff ff 	movzwl -0xc6c(%rbp),%eax
    f3bd:	98                   	cwtl   
    f3be:	89 c7                	mov    %eax,%edi
    f3c0:	e8 d8 7f ff ff       	callq  739d <safe_unary_minus_func_int16_t_s>
    f3c5:	48 8b 95 08 f4 ff ff 	mov    -0xbf8(%rbp),%rdx
    f3cc:	8b 12                	mov    (%rdx),%edx
    f3ce:	98                   	cwtl   
    f3cf:	09 c2                	or     %eax,%edx
    f3d1:	48 8b 85 08 f4 ff ff 	mov    -0xbf8(%rbp),%rax
    f3d8:	89 10                	mov    %edx,(%rax)
    f3da:	48 8d 05 8f 46 01 00 	lea    0x1468f(%rip),%rax        # 23a70 <g_1075>
    f3e1:	48 89 05 40 4e 01 00 	mov    %rax,0x14e40(%rip)        # 24228 <g_1553>
    f3e8:	be 01 00 00 00       	mov    $0x1,%esi
    f3ed:	bf 00 00 00 00       	mov    $0x0,%edi
    f3f2:	e8 aa 7e ff ff       	callq  72a1 <safe_lshift_func_int8_t_s_s>
    f3f7:	0f be c8             	movsbl %al,%ecx
    f3fa:	48 8b 95 28 f5 ff ff 	mov    -0xad8(%rbp),%rdx
    f401:	48 8b 85 38 f4 ff ff 	mov    -0xbc8(%rbp),%rax
    f408:	48 89 10             	mov    %rdx,(%rax)
    f40b:	48 8b 85 38 f4 ff ff 	mov    -0xbc8(%rbp),%rax
    f412:	48 8b 00             	mov    (%rax),%rax
    f415:	48 8d 15 8c 54 01 00 	lea    0x1548c(%rip),%rdx        # 248a8 <g_1331>
    f41c:	48 39 d0             	cmp    %rdx,%rax
    f41f:	0f 95 c0             	setne  %al
    f422:	0f b6 c0             	movzbl %al,%eax
    f425:	39 c1                	cmp    %eax,%ecx
    f427:	7c 0a                	jl     f433 <func_56+0xcc3>
    f429:	66 83 bd 94 f3 ff ff 	cmpw   $0x0,-0xc6c(%rbp)
    f430:	00 
    f431:	74 07                	je     f43a <func_56+0xcca>
    f433:	ba 01 00 00 00       	mov    $0x1,%edx
    f438:	eb 05                	jmp    f43f <func_56+0xccf>
    f43a:	ba 00 00 00 00       	mov    $0x0,%edx
    f43f:	0f b7 85 94 f3 ff ff 	movzwl -0xc6c(%rbp),%eax
    f446:	89 d6                	mov    %edx,%esi
    f448:	89 c7                	mov    %eax,%edi
    f44a:	e8 b6 81 ff ff       	callq  7605 <safe_sub_func_int32_t_s_s>
    f44f:	85 c0                	test   %eax,%eax
    f451:	74 07                	je     f45a <func_56+0xcea>
    f453:	b8 01 00 00 00       	mov    $0x1,%eax
    f458:	eb 05                	jmp    f45f <func_56+0xcef>
    f45a:	b8 00 00 00 00       	mov    $0x0,%eax
    f45f:	0f b7 c0             	movzwl %ax,%eax
    f462:	be b4 9f 00 00       	mov    $0x9fb4,%esi
    f467:	89 c7                	mov    %eax,%edi
    f469:	e8 cf 88 ff ff       	callq  7d3d <safe_mul_func_uint16_t_u_u>
    f46e:	0f b7 d0             	movzwl %ax,%edx
    f471:	8b 85 e4 f5 ff ff    	mov    -0xa1c(%rbp),%eax
    f477:	39 c2                	cmp    %eax,%edx
    f479:	0f 9f c0             	setg   %al
    f47c:	0f b6 c0             	movzbl %al,%eax
    f47f:	89 85 e0 f5 ff ff    	mov    %eax,-0xa20(%rbp)
    f485:	83 bd ac f3 ff ff 00 	cmpl   $0x0,-0xc54(%rbp)
    f48c:	74 05                	je     f493 <func_56+0xd23>
    f48e:	e9 34 fc ff ff       	jmpq   f0c7 <func_56+0x957>
    f493:	48 8b 95 e8 f3 ff ff 	mov    -0xc18(%rbp),%rdx
    f49a:	48 8b 05 67 45 01 00 	mov    0x14567(%rip),%rax        # 23a08 <g_927>
    f4a1:	48 8b 12             	mov    (%rdx),%rdx
    f4a4:	48 89 10             	mov    %rdx,(%rax)
    f4a7:	eb 01                	jmp    f4aa <func_56+0xd3a>
    f4a9:	90                   	nop
    f4aa:	48 8b 05 6f 53 01 00 	mov    0x1536f(%rip),%rax        # 24820 <g_63>
    f4b1:	98                   	cwtl   
    f4b2:	be 06 00 00 00       	mov    $0x6,%esi
    f4b7:	89 c7                	mov    %eax,%edi
    f4b9:	e8 f5 7e ff ff       	callq  73b3 <safe_add_func_int16_t_s_s>
    f4be:	48 0f bf c0          	movswq %ax,%rax
    f4c2:	48 89 05 57 53 01 00 	mov    %rax,0x15357(%rip)        # 24820 <g_63>
    f4c9:	48 8b 05 50 53 01 00 	mov    0x15350(%rip),%rax        # 24820 <g_63>
    f4d0:	48 83 f8 0e          	cmp    $0xe,%rax
    f4d4:	0f 8f fd fb ff ff    	jg     f0d7 <func_56+0x967>
    f4da:	48 8b 85 98 f3 ff ff 	mov    -0xc68(%rbp),%rax
    f4e1:	48 8b 8d 90 f4 ff ff 	mov    -0xb70(%rbp),%rcx
    f4e8:	48 8b 9d 98 f4 ff ff 	mov    -0xb68(%rbp),%rbx
    f4ef:	48 89 08             	mov    %rcx,(%rax)
    f4f2:	48 89 58 08          	mov    %rbx,0x8(%rax)
    f4f6:	48 8b 95 a0 f4 ff ff 	mov    -0xb60(%rbp),%rdx
    f4fd:	48 89 50 10          	mov    %rdx,0x10(%rax)
    f501:	0f b7 95 a8 f4 ff ff 	movzwl -0xb58(%rbp),%edx
    f508:	66 89 50 18          	mov    %dx,0x18(%rax)
    f50c:	0f b6 95 aa f4 ff ff 	movzbl -0xb56(%rbp),%edx
    f513:	88 50 1a             	mov    %dl,0x1a(%rax)
    f516:	48 8b 45 e8          	mov    -0x18(%rbp),%rax
    f51a:	64 48 33 04 25 28 00 	xor    %fs:0x28,%rax
    f521:	00 00 
    f523:	74 05                	je     f52a <func_56+0xdba>
    f525:	e8 46 7b ff ff       	callq  7070 <__stack_chk_fail@plt>
    f52a:	48 8b 85 98 f3 ff ff 	mov    -0xc68(%rbp),%rax
    f531:	48 81 c4 a8 0c 00 00 	add    $0xca8,%rsp
    f538:	5b                   	pop    %rbx
    f539:	5d                   	pop    %rbp
    f53a:	c3                   	retq   

000000000000f53b <func_65>:
    f53b:	f3 0f 1e fa          	endbr64 
    f53f:	55                   	push   %rbp
    f540:	48 89 e5             	mov    %rsp,%rbp
    f543:	53                   	push   %rbx
    f544:	48 81 ec 28 03 00 00 	sub    $0x328,%rsp
    f54b:	48 89 bd e8 fc ff ff 	mov    %rdi,-0x318(%rbp)
    f552:	89 f0                	mov    %esi,%eax
    f554:	48 89 95 d8 fc ff ff 	mov    %rdx,-0x328(%rbp)
    f55b:	89 8d e0 fc ff ff    	mov    %ecx,-0x320(%rbp)
    f561:	88 85 e4 fc ff ff    	mov    %al,-0x31c(%rbp)
    f567:	64 48 8b 04 25 28 00 	mov    %fs:0x28,%rax
    f56e:	00 00 
    f570:	48 89 45 e8          	mov    %rax,-0x18(%rbp)
    f574:	31 c0                	xor    %eax,%eax
    f576:	48 c7 85 f0 fe ff ff 	movq   $0x0,-0x110(%rbp)
    f57d:	00 00 00 00 
    f581:	48 8d 05 c4 aa 00 00 	lea    0xaac4(%rip),%rax        # 1a04c <g_85>
    f588:	48 89 85 f8 fe ff ff 	mov    %rax,-0x108(%rbp)
    f58f:	48 c7 85 00 ff ff ff 	movq   $0x0,-0x100(%rbp)
    f596:	00 00 00 00 
    f59a:	48 8d 05 ab aa 00 00 	lea    0xaaab(%rip),%rax        # 1a04c <g_85>
    f5a1:	48 89 85 08 ff ff ff 	mov    %rax,-0xf8(%rbp)
    f5a8:	48 8d 05 9d aa 00 00 	lea    0xaa9d(%rip),%rax        # 1a04c <g_85>
    f5af:	48 89 85 10 ff ff ff 	mov    %rax,-0xf0(%rbp)
    f5b6:	48 8d 05 8f aa 00 00 	lea    0xaa8f(%rip),%rax        # 1a04c <g_85>
    f5bd:	48 89 85 18 ff ff ff 	mov    %rax,-0xe8(%rbp)
    f5c4:	48 8d 05 81 aa 00 00 	lea    0xaa81(%rip),%rax        # 1a04c <g_85>
    f5cb:	48 89 85 20 ff ff ff 	mov    %rax,-0xe0(%rbp)
    f5d2:	48 c7 85 28 ff ff ff 	movq   $0x0,-0xd8(%rbp)
    f5d9:	00 00 00 00 
    f5dd:	48 c7 85 30 ff ff ff 	movq   $0x0,-0xd0(%rbp)
    f5e4:	00 00 00 00 
    f5e8:	48 8d 05 5d aa 00 00 	lea    0xaa5d(%rip),%rax        # 1a04c <g_85>
    f5ef:	48 89 85 38 ff ff ff 	mov    %rax,-0xc8(%rbp)
    f5f6:	48 8d 05 4f aa 00 00 	lea    0xaa4f(%rip),%rax        # 1a04c <g_85>
    f5fd:	48 89 85 40 ff ff ff 	mov    %rax,-0xc0(%rbp)
    f604:	48 8d 05 41 aa 00 00 	lea    0xaa41(%rip),%rax        # 1a04c <g_85>
    f60b:	48 89 85 48 ff ff ff 	mov    %rax,-0xb8(%rbp)
    f612:	48 c7 85 50 ff ff ff 	movq   $0x0,-0xb0(%rbp)
    f619:	00 00 00 00 
    f61d:	48 c7 85 58 ff ff ff 	movq   $0x0,-0xa8(%rbp)
    f624:	00 00 00 00 
    f628:	48 c7 85 60 ff ff ff 	movq   $0x0,-0xa0(%rbp)
    f62f:	00 00 00 00 
    f633:	48 8d 05 12 aa 00 00 	lea    0xaa12(%rip),%rax        # 1a04c <g_85>
    f63a:	48 89 85 68 ff ff ff 	mov    %rax,-0x98(%rbp)
    f641:	48 8d 05 04 aa 00 00 	lea    0xaa04(%rip),%rax        # 1a04c <g_85>
    f648:	48 89 85 70 ff ff ff 	mov    %rax,-0x90(%rbp)
    f64f:	48 8d 05 f6 a9 00 00 	lea    0xa9f6(%rip),%rax        # 1a04c <g_85>
    f656:	48 89 85 78 ff ff ff 	mov    %rax,-0x88(%rbp)
    f65d:	48 c7 45 80 00 00 00 	movq   $0x0,-0x80(%rbp)
    f664:	00 
    f665:	48 8d 05 e0 a9 00 00 	lea    0xa9e0(%rip),%rax        # 1a04c <g_85>
    f66c:	48 89 45 88          	mov    %rax,-0x78(%rbp)
    f670:	48 c7 45 90 00 00 00 	movq   $0x0,-0x70(%rbp)
    f677:	00 
    f678:	48 8d 05 cd a9 00 00 	lea    0xa9cd(%rip),%rax        # 1a04c <g_85>
    f67f:	48 89 45 98          	mov    %rax,-0x68(%rbp)
    f683:	48 8d 05 c2 a9 00 00 	lea    0xa9c2(%rip),%rax        # 1a04c <g_85>
    f68a:	48 89 45 a0          	mov    %rax,-0x60(%rbp)
    f68e:	48 8d 05 b7 a9 00 00 	lea    0xa9b7(%rip),%rax        # 1a04c <g_85>
    f695:	48 89 45 a8          	mov    %rax,-0x58(%rbp)
    f699:	48 8d 05 ac a9 00 00 	lea    0xa9ac(%rip),%rax        # 1a04c <g_85>
    f6a0:	48 89 45 b0          	mov    %rax,-0x50(%rbp)
    f6a4:	48 8d 05 a1 a9 00 00 	lea    0xa9a1(%rip),%rax        # 1a04c <g_85>
    f6ab:	48 89 45 b8          	mov    %rax,-0x48(%rbp)
    f6af:	48 c7 45 c0 00 00 00 	movq   $0x0,-0x40(%rbp)
    f6b6:	00 
    f6b7:	48 8d 05 8e a9 00 00 	lea    0xa98e(%rip),%rax        # 1a04c <g_85>
    f6be:	48 89 45 c8          	mov    %rax,-0x38(%rbp)
    f6c2:	48 8d 05 83 a9 00 00 	lea    0xa983(%rip),%rax        # 1a04c <g_85>
    f6c9:	48 89 45 d0          	mov    %rax,-0x30(%rbp)
    f6cd:	48 8d 05 78 a9 00 00 	lea    0xa978(%rip),%rax        # 1a04c <g_85>
    f6d4:	48 89 45 d8          	mov    %rax,-0x28(%rbp)
    f6d8:	c7 85 00 fd ff ff 06 	movl   $0x6,-0x300(%rbp)
    f6df:	00 00 00 
    f6e2:	66 c7 85 a0 fd ff ff 	movw   $0x0,-0x260(%rbp)
    f6e9:	00 00 
    f6eb:	0f b7 85 a2 fd ff ff 	movzwl -0x25e(%rbp),%eax
    f6f2:	83 e0 00             	and    $0x0,%eax
    f6f5:	66 0d 7a 02          	or     $0x27a,%ax
    f6f9:	66 89 85 a2 fd ff ff 	mov    %ax,-0x25e(%rbp)
    f700:	0f b6 85 a4 fd ff ff 	movzbl -0x25c(%rbp),%eax
    f707:	83 e0 c0             	and    $0xffffffc0,%eax
    f70a:	88 85 a4 fd ff ff    	mov    %al,-0x25c(%rbp)
    f710:	48 b8 ab 7b a8 b3 8d 	movabs $0x581a1e8db3a87bab,%rax
    f717:	1e 1a 58 
    f71a:	48 89 85 a5 fd ff ff 	mov    %rax,-0x25b(%rbp)
    f721:	66 c7 85 ad fd ff ff 	movw   $0x7f26,-0x253(%rbp)
    f728:	26 7f 
    f72a:	48 c7 85 af fd ff ff 	movq   $0xfffffffffffffff9,-0x251(%rbp)
    f731:	f9 ff ff ff 
    f735:	c7 85 b7 fd ff ff 41 	movl   $0x1466a041,-0x249(%rbp)
    f73c:	a0 66 14 
    f73f:	48 8d 85 a0 fd ff ff 	lea    -0x260(%rbp),%rax
    f746:	48 83 c0 0f          	add    $0xf,%rax
    f74a:	48 89 85 50 fd ff ff 	mov    %rax,-0x2b0(%rbp)
    f751:	48 8d 05 ee a8 00 00 	lea    0xa8ee(%rip),%rax        # 1a046 <g_73+0x6>
    f758:	48 89 85 20 fd ff ff 	mov    %rax,-0x2e0(%rbp)
    f75f:	48 8d 85 20 fd ff ff 	lea    -0x2e0(%rbp),%rax
    f766:	48 89 85 58 fd ff ff 	mov    %rax,-0x2a8(%rbp)
    f76d:	48 8d 85 a0 fd ff ff 	lea    -0x260(%rbp),%rax
    f774:	48 89 85 60 fd ff ff 	mov    %rax,-0x2a0(%rbp)
    f77b:	c7 85 04 fd ff ff f6 	movl   $0xfffffff6,-0x2fc(%rbp)
    f782:	ff ff ff 
    f785:	66 c7 85 f4 fc ff ff 	movw   $0x28ce,-0x30c(%rbp)
    f78c:	ce 28 
    f78e:	c6 85 f0 fc ff ff 49 	movb   $0x49,-0x310(%rbp)
    f795:	c7 85 08 fd ff ff bd 	movl   $0xbfd89fbd,-0x2f8(%rbp)
    f79c:	9f d8 bf 
    f79f:	48 8d 05 d2 3e 01 00 	lea    0x13ed2(%rip),%rax        # 23678 <g_115>
    f7a6:	48 89 85 60 fe ff ff 	mov    %rax,-0x1a0(%rbp)
    f7ad:	48 8d 05 c4 3e 01 00 	lea    0x13ec4(%rip),%rax        # 23678 <g_115>
    f7b4:	48 89 85 68 fe ff ff 	mov    %rax,-0x198(%rbp)
    f7bb:	48 8d 05 b6 3e 01 00 	lea    0x13eb6(%rip),%rax        # 23678 <g_115>
    f7c2:	48 89 85 70 fe ff ff 	mov    %rax,-0x190(%rbp)
    f7c9:	48 8d 05 a8 3e 01 00 	lea    0x13ea8(%rip),%rax        # 23678 <g_115>
    f7d0:	48 89 85 78 fe ff ff 	mov    %rax,-0x188(%rbp)
    f7d7:	48 8d 05 9a 3e 01 00 	lea    0x13e9a(%rip),%rax        # 23678 <g_115>
    f7de:	48 89 85 80 fe ff ff 	mov    %rax,-0x180(%rbp)
    f7e5:	48 8d 05 8c 3e 01 00 	lea    0x13e8c(%rip),%rax        # 23678 <g_115>
    f7ec:	48 89 85 88 fe ff ff 	mov    %rax,-0x178(%rbp)
    f7f3:	48 8d 05 7e 3e 01 00 	lea    0x13e7e(%rip),%rax        # 23678 <g_115>
    f7fa:	48 89 85 90 fe ff ff 	mov    %rax,-0x170(%rbp)
    f801:	48 8d 05 70 3e 01 00 	lea    0x13e70(%rip),%rax        # 23678 <g_115>
    f808:	48 89 85 98 fe ff ff 	mov    %rax,-0x168(%rbp)
    f80f:	48 8d 05 62 3e 01 00 	lea    0x13e62(%rip),%rax        # 23678 <g_115>
    f816:	48 89 85 a0 fe ff ff 	mov    %rax,-0x160(%rbp)
    f81d:	48 8d 05 54 3e 01 00 	lea    0x13e54(%rip),%rax        # 23678 <g_115>
    f824:	48 89 85 a8 fe ff ff 	mov    %rax,-0x158(%rbp)
    f82b:	48 8d 05 46 3e 01 00 	lea    0x13e46(%rip),%rax        # 23678 <g_115>
    f832:	48 89 85 b0 fe ff ff 	mov    %rax,-0x150(%rbp)
    f839:	48 8d 05 38 3e 01 00 	lea    0x13e38(%rip),%rax        # 23678 <g_115>
    f840:	48 89 85 b8 fe ff ff 	mov    %rax,-0x148(%rbp)
    f847:	48 8d 05 2a 3e 01 00 	lea    0x13e2a(%rip),%rax        # 23678 <g_115>
    f84e:	48 89 85 c0 fe ff ff 	mov    %rax,-0x140(%rbp)
    f855:	48 8d 05 1c 3e 01 00 	lea    0x13e1c(%rip),%rax        # 23678 <g_115>
    f85c:	48 89 85 c8 fe ff ff 	mov    %rax,-0x138(%rbp)
    f863:	48 8d 05 0e 3e 01 00 	lea    0x13e0e(%rip),%rax        # 23678 <g_115>
    f86a:	48 89 85 d0 fe ff ff 	mov    %rax,-0x130(%rbp)
    f871:	48 8d 05 00 3e 01 00 	lea    0x13e00(%rip),%rax        # 23678 <g_115>
    f878:	48 89 85 d8 fe ff ff 	mov    %rax,-0x128(%rbp)
    f87f:	48 8d 05 f2 3d 01 00 	lea    0x13df2(%rip),%rax        # 23678 <g_115>
    f886:	48 89 85 e0 fe ff ff 	mov    %rax,-0x120(%rbp)
    f88d:	48 8d 05 e4 3d 01 00 	lea    0x13de4(%rip),%rax        # 23678 <g_115>
    f894:	48 89 85 e8 fe ff ff 	mov    %rax,-0x118(%rbp)
    f89b:	48 8d 85 f0 fc ff ff 	lea    -0x310(%rbp),%rax
    f8a2:	48 89 85 28 fd ff ff 	mov    %rax,-0x2d8(%rbp)
    f8a9:	48 8d 05 d0 4f 01 00 	lea    0x14fd0(%rip),%rax        # 24880 <g_325>
    f8b0:	48 89 85 30 fd ff ff 	mov    %rax,-0x2d0(%rbp)
    f8b7:	48 8d 85 30 fd ff ff 	lea    -0x2d0(%rbp),%rax
    f8be:	48 89 85 68 fd ff ff 	mov    %rax,-0x298(%rbp)
    f8c5:	48 8d 85 60 fe ff ff 	lea    -0x1a0(%rbp),%rax
    f8cc:	48 83 c0 38          	add    $0x38,%rax
    f8d0:	48 89 85 70 fd ff ff 	mov    %rax,-0x290(%rbp)
    f8d7:	c7 85 0c fd ff ff 00 	movl   $0x0,-0x2f4(%rbp)
    f8de:	00 00 00 
    f8e1:	c7 85 10 fd ff ff 08 	movl   $0x8,-0x2f0(%rbp)
    f8e8:	00 00 00 
    f8eb:	66 c7 85 f6 fc ff ff 	movw   $0x1,-0x30a(%rbp)
    f8f2:	01 00 
    f8f4:	c6 85 f1 fc ff ff fc 	movb   $0xfc,-0x30f(%rbp)
    f8fb:	48 c7 85 78 fd ff ff 	movq   $0x0,-0x288(%rbp)
    f902:	00 00 00 00 
    f906:	48 8d 85 28 fd ff ff 	lea    -0x2d8(%rbp),%rax
    f90d:	48 89 85 38 fd ff ff 	mov    %rax,-0x2c8(%rbp)
    f914:	48 8d 85 38 fd ff ff 	lea    -0x2c8(%rbp),%rax
    f91b:	48 89 85 40 fd ff ff 	mov    %rax,-0x2c0(%rbp)
    f922:	48 8d 85 40 fd ff ff 	lea    -0x2c0(%rbp),%rax
    f929:	48 89 85 80 fd ff ff 	mov    %rax,-0x280(%rbp)
    f930:	c7 85 14 fd ff ff ff 	movl   $0xffffffff,-0x2ec(%rbp)
    f937:	ff ff ff 
    f93a:	48 b8 b3 db 92 a2 63 	movabs $0x607b8063a292dbb3,%rax
    f941:	80 7b 60 
    f944:	48 89 85 88 fd ff ff 	mov    %rax,-0x278(%rbp)
    f94b:	c7 85 18 fd ff ff 01 	movl   $0x1,-0x2e8(%rbp)
    f952:	00 00 00 
    f955:	66 c7 85 f8 fc ff ff 	movw   $0xfffd,-0x308(%rbp)
    f95c:	fd ff 
    f95e:	c6 85 f2 fc ff ff c9 	movb   $0xc9,-0x30e(%rbp)
    f965:	48 b8 73 84 57 d9 93 	movabs $0x5203bf93d9578473,%rax
    f96c:	bf 03 52 
    f96f:	48 89 85 90 fd ff ff 	mov    %rax,-0x270(%rbp)
    f976:	c7 85 f0 fd ff ff aa 	movl   $0xaaaa06aa,-0x210(%rbp)
    f97d:	06 aa aa 
    f980:	c7 85 f4 fd ff ff aa 	movl   $0xaa06aaaa,-0x20c(%rbp)
    f987:	aa 06 aa 
    f98a:	c7 85 f8 fd ff ff aa 	movl   $0xaabfbfaa,-0x208(%rbp)
    f991:	bf bf aa 
    f994:	c7 85 fc fd ff ff bf 	movl   $0xbfbfaabf,-0x204(%rbp)
    f99b:	aa bf bf 
    f99e:	c7 85 00 fe ff ff aa 	movl   $0xaa06aaaa,-0x200(%rbp)
    f9a5:	aa 06 aa 
    f9a8:	c7 85 04 fe ff ff aa 	movl   $0xaabfbfaa,-0x1fc(%rbp)
    f9af:	bf bf aa 
    f9b2:	c7 85 08 fe ff ff bf 	movl   $0xbfbfaabf,-0x1f8(%rbp)
    f9b9:	aa bf bf 
    f9bc:	c7 85 0c fe ff ff aa 	movl   $0xaa06aaaa,-0x1f4(%rbp)
    f9c3:	aa 06 aa 
    f9c6:	c7 85 10 fe ff ff aa 	movl   $0xaabfbfaa,-0x1f0(%rbp)
    f9cd:	bf bf aa 
    f9d0:	c6 85 f3 fc ff ff 7a 	movb   $0x7a,-0x30d(%rbp)
    f9d7:	c7 85 1c fd ff ff d2 	movl   $0xff3fb9d2,-0x2e4(%rbp)
    f9de:	b9 3f ff 
    f9e1:	66 c7 85 fa fc ff ff 	movw   $0x0,-0x306(%rbp)
    f9e8:	00 00 
    f9ea:	48 c7 85 48 fd ff ff 	movq   $0x0,-0x2b8(%rbp)
    f9f1:	00 00 00 00 
    f9f5:	48 8d 85 d0 fd ff ff 	lea    -0x230(%rbp),%rax
    f9fc:	48 83 c0 08          	add    $0x8,%rax
    fa00:	48 89 85 98 fd ff ff 	mov    %rax,-0x268(%rbp)
    fa07:	48 8d 05 ea 3f 01 00 	lea    0x13fea(%rip),%rax        # 239f8 <g_645>
    fa0e:	48 89 85 20 fe ff ff 	mov    %rax,-0x1e0(%rbp)
    fa15:	48 8d 05 dc 3f 01 00 	lea    0x13fdc(%rip),%rax        # 239f8 <g_645>
    fa1c:	48 89 85 28 fe ff ff 	mov    %rax,-0x1d8(%rbp)
    fa23:	48 8d 05 ce 3f 01 00 	lea    0x13fce(%rip),%rax        # 239f8 <g_645>
    fa2a:	48 89 85 30 fe ff ff 	mov    %rax,-0x1d0(%rbp)
    fa31:	48 8d 05 c0 3f 01 00 	lea    0x13fc0(%rip),%rax        # 239f8 <g_645>
    fa38:	48 89 85 38 fe ff ff 	mov    %rax,-0x1c8(%rbp)
    fa3f:	48 8d 05 b2 3f 01 00 	lea    0x13fb2(%rip),%rax        # 239f8 <g_645>
    fa46:	48 89 85 40 fe ff ff 	mov    %rax,-0x1c0(%rbp)
    fa4d:	48 8d 05 a4 3f 01 00 	lea    0x13fa4(%rip),%rax        # 239f8 <g_645>
    fa54:	48 89 85 48 fe ff ff 	mov    %rax,-0x1b8(%rbp)
    fa5b:	48 8d 05 96 3f 01 00 	lea    0x13f96(%rip),%rax        # 239f8 <g_645>
    fa62:	48 89 85 50 fe ff ff 	mov    %rax,-0x1b0(%rbp)
    fa69:	48 8d 05 88 3f 01 00 	lea    0x13f88(%rip),%rax        # 239f8 <g_645>
    fa70:	48 89 85 58 fe ff ff 	mov    %rax,-0x1a8(%rbp)
    fa77:	c7 85 fc fc ff ff 00 	movl   $0x0,-0x304(%rbp)
    fa7e:	00 00 00 
    fa81:	eb 1a                	jmp    fa9d <func_65+0x562>
    fa83:	8b 85 fc fc ff ff    	mov    -0x304(%rbp),%eax
    fa89:	48 98                	cltq   
    fa8b:	c7 84 85 c4 fd ff ff 	movl   $0x1,-0x23c(%rbp,%rax,4)
    fa92:	01 00 00 00 
    fa96:	83 85 fc fc ff ff 01 	addl   $0x1,-0x304(%rbp)
    fa9d:	83 bd fc fc ff ff 02 	cmpl   $0x2,-0x304(%rbp)
    faa4:	7e dd                	jle    fa83 <func_65+0x548>
    faa6:	c7 85 fc fc ff ff 00 	movl   $0x0,-0x304(%rbp)
    faad:	00 00 00 
    fab0:	eb 1e                	jmp    fad0 <func_65+0x595>
    fab2:	8b 85 fc fc ff ff    	mov    -0x304(%rbp),%eax
    fab8:	48 98                	cltq   
    faba:	48 8d 95 48 fd ff ff 	lea    -0x2b8(%rbp),%rdx
    fac1:	48 89 94 c5 d0 fd ff 	mov    %rdx,-0x230(%rbp,%rax,8)
    fac8:	ff 
    fac9:	83 85 fc fc ff ff 01 	addl   $0x1,-0x304(%rbp)
    fad0:	83 bd fc fc ff ff 03 	cmpl   $0x3,-0x304(%rbp)
    fad7:	7e d9                	jle    fab2 <func_65+0x577>
    fad9:	48 8b 85 e8 fc ff ff 	mov    -0x318(%rbp),%rax
    fae0:	48 8b 0d 19 0a 01 00 	mov    0x10a19(%rip),%rcx        # 20500 <g_1333>
    fae7:	48 8b 1d 1a 0a 01 00 	mov    0x10a1a(%rip),%rbx        # 20508 <g_1333+0x8>
    faee:	48 89 08             	mov    %rcx,(%rax)
    faf1:	48 89 58 08          	mov    %rbx,0x8(%rax)
    faf5:	48 8b 0d 14 0a 01 00 	mov    0x10a14(%rip),%rcx        # 20510 <g_1333+0x10>
    fafc:	48 8b 1d 15 0a 01 00 	mov    0x10a15(%rip),%rbx        # 20518 <g_1333+0x18>
    fb03:	48 89 48 10          	mov    %rcx,0x10(%rax)
    fb07:	48 89 58 18          	mov    %rbx,0x18(%rax)
    fb0b:	48 8b 15 0e 0a 01 00 	mov    0x10a0e(%rip),%rdx        # 20520 <g_1333+0x20>
    fb12:	48 89 50 20          	mov    %rdx,0x20(%rax)
    fb16:	8b 15 0c 0a 01 00    	mov    0x10a0c(%rip),%edx        # 20528 <g_1333+0x28>
    fb1c:	89 50 28             	mov    %edx,0x28(%rax)
    fb1f:	48 8b 45 e8          	mov    -0x18(%rbp),%rax
    fb23:	64 48 33 04 25 28 00 	xor    %fs:0x28,%rax
    fb2a:	00 00 
    fb2c:	74 05                	je     fb33 <func_65+0x5f8>
    fb2e:	e8 3d 75 ff ff       	callq  7070 <__stack_chk_fail@plt>
    fb33:	48 8b 85 e8 fc ff ff 	mov    -0x318(%rbp),%rax
    fb3a:	48 81 c4 28 03 00 00 	add    $0x328,%rsp
    fb41:	5b                   	pop    %rbx
    fb42:	5d                   	pop    %rbp
    fb43:	c3                   	retq   

000000000000fb44 <main>:
    fb44:	f3 0f 1e fa          	endbr64 
    fb48:	55                   	push   %rbp
    fb49:	48 89 e5             	mov    %rsp,%rbp
    fb4c:	48 83 ec 20          	sub    $0x20,%rsp
    fb50:	89 7d ec             	mov    %edi,-0x14(%rbp)
    fb53:	48 89 75 e0          	mov    %rsi,-0x20(%rbp)
    fb57:	c7 45 fc 00 00 00 00 	movl   $0x0,-0x4(%rbp)
    fb5e:	83 7d ec 02          	cmpl   $0x2,-0x14(%rbp)
    fb62:	75 25                	jne    fb89 <main+0x45>
    fb64:	48 8b 45 e0          	mov    -0x20(%rbp),%rax
    fb68:	48 83 c0 08          	add    $0x8,%rax
    fb6c:	48 8b 00             	mov    (%rax),%rax
    fb6f:	48 8d 35 ca 5a 00 00 	lea    0x5aca(%rip),%rsi        # 15640 <g_243+0x5e8>
    fb76:	48 89 c7             	mov    %rax,%rdi
    fb79:	e8 12 75 ff ff       	callq  7090 <strcmp@plt>
    fb7e:	85 c0                	test   %eax,%eax
    fb80:	75 07                	jne    fb89 <main+0x45>
    fb82:	c7 45 fc 01 00 00 00 	movl   $0x1,-0x4(%rbp)
    fb89:	e8 fb 75 ff ff       	callq  7189 <platform_main_begin>
    fb8e:	e8 05 8a ff ff       	callq  8598 <crc32_gentab>
    fb93:	e8 1d 8c ff ff       	callq  87b5 <func_1>
    fb98:	8b 05 86 a4 00 00    	mov    0xa486(%rip),%eax        # 1a024 <g_2>
    fb9e:	48 98                	cltq   
    fba0:	8b 55 fc             	mov    -0x4(%rbp),%edx
    fba3:	48 8d 35 98 5a 00 00 	lea    0x5a98(%rip),%rsi        # 15642 <g_243+0x5ea>
    fbaa:	48 89 c7             	mov    %rax,%rdi
    fbad:	e8 41 8b ff ff       	callq  86f3 <transparent_crc>
    fbb2:	48 8b 05 6f a4 00 00 	mov    0xa46f(%rip),%rax        # 1a028 <g_12>
    fbb9:	8b 55 fc             	mov    -0x4(%rbp),%edx
    fbbc:	48 8d 35 83 5a 00 00 	lea    0x5a83(%rip),%rsi        # 15646 <g_243+0x5ee>
    fbc3:	48 89 c7             	mov    %rax,%rdi
    fbc6:	e8 28 8b ff ff       	callq  86f3 <transparent_crc>
    fbcb:	0f b6 05 5e a4 00 00 	movzbl 0xa45e(%rip),%eax        # 1a030 <g_41>
    fbd2:	0f b6 c0             	movzbl %al,%eax
    fbd5:	8b 55 fc             	mov    -0x4(%rbp),%edx
    fbd8:	48 8d 35 6c 5a 00 00 	lea    0x5a6c(%rip),%rsi        # 1564b <g_243+0x5f3>
    fbdf:	48 89 c7             	mov    %rax,%rdi
    fbe2:	e8 0c 8b ff ff       	callq  86f3 <transparent_crc>
    fbe7:	0f b6 05 43 a4 00 00 	movzbl 0xa443(%rip),%eax        # 1a031 <g_44>
    fbee:	0f b6 c0             	movzbl %al,%eax
    fbf1:	8b 55 fc             	mov    -0x4(%rbp),%edx
    fbf4:	48 8d 35 55 5a 00 00 	lea    0x5a55(%rip),%rsi        # 15650 <g_243+0x5f8>
    fbfb:	48 89 c7             	mov    %rax,%rdi
    fbfe:	e8 f0 8a ff ff       	callq  86f3 <transparent_crc>
    fc03:	48 8b 05 2e a4 00 00 	mov    0xa42e(%rip),%rax        # 1a038 <g_46>
    fc0a:	8b 55 fc             	mov    -0x4(%rbp),%edx
    fc0d:	48 8d 35 41 5a 00 00 	lea    0x5a41(%rip),%rsi        # 15655 <g_243+0x5fd>
    fc14:	48 89 c7             	mov    %rax,%rdi
    fc17:	e8 d7 8a ff ff       	callq  86f3 <transparent_crc>
    fc1c:	48 8b 05 fd 4b 01 00 	mov    0x14bfd(%rip),%rax        # 24820 <g_63>
    fc23:	48 89 c1             	mov    %rax,%rcx
    fc26:	8b 45 fc             	mov    -0x4(%rbp),%eax
    fc29:	89 c2                	mov    %eax,%edx
    fc2b:	48 8d 35 28 5a 00 00 	lea    0x5a28(%rip),%rsi        # 1565a <g_243+0x602>
    fc32:	48 89 cf             	mov    %rcx,%rdi
    fc35:	e8 b9 8a ff ff       	callq  86f3 <transparent_crc>
    fc3a:	c7 45 f0 00 00 00 00 	movl   $0x0,-0x10(%rbp)
    fc41:	eb 45                	jmp    fc88 <main+0x144>
    fc43:	8b 45 f0             	mov    -0x10(%rbp),%eax
    fc46:	48 98                	cltq   
    fc48:	48 8d 15 f1 a3 00 00 	lea    0xa3f1(%rip),%rdx        # 1a040 <g_73>
    fc4f:	0f b6 04 10          	movzbl (%rax,%rdx,1),%eax
    fc53:	0f b6 c0             	movzbl %al,%eax
    fc56:	8b 55 fc             	mov    -0x4(%rbp),%edx
    fc59:	48 8d 35 ff 59 00 00 	lea    0x59ff(%rip),%rsi        # 1565f <g_243+0x607>
    fc60:	48 89 c7             	mov    %rax,%rdi
    fc63:	e8 8b 8a ff ff       	callq  86f3 <transparent_crc>
    fc68:	83 7d fc 00          	cmpl   $0x0,-0x4(%rbp)
    fc6c:	74 16                	je     fc84 <main+0x140>
    fc6e:	8b 45 f0             	mov    -0x10(%rbp),%eax
    fc71:	89 c6                	mov    %eax,%esi
    fc73:	48 8d 3d ed 59 00 00 	lea    0x59ed(%rip),%rdi        # 15667 <g_243+0x60f>
    fc7a:	b8 00 00 00 00       	mov    $0x0,%eax
    fc7f:	e8 fc 73 ff ff       	callq  7080 <printf@plt>
    fc84:	83 45 f0 01          	addl   $0x1,-0x10(%rbp)
    fc88:	83 7d f0 08          	cmpl   $0x8,-0x10(%rbp)
    fc8c:	7e b5                	jle    fc43 <main+0xff>
    fc8e:	8b 05 b8 a3 00 00    	mov    0xa3b8(%rip),%eax        # 1a04c <g_85>
    fc94:	89 c1                	mov    %eax,%ecx
    fc96:	8b 45 fc             	mov    -0x4(%rbp),%eax
    fc99:	89 c2                	mov    %eax,%edx
    fc9b:	48 8d 35 d3 59 00 00 	lea    0x59d3(%rip),%rsi        # 15675 <g_243+0x61d>
    fca2:	48 89 cf             	mov    %rcx,%rdi
    fca5:	e8 49 8a ff ff       	callq  86f3 <transparent_crc>
    fcaa:	c7 45 f0 00 00 00 00 	movl   $0x0,-0x10(%rbp)
    fcb1:	eb 4a                	jmp    fcfd <main+0x1b9>
    fcb3:	8b 45 f0             	mov    -0x10(%rbp),%eax
    fcb6:	48 98                	cltq   
    fcb8:	48 8d 14 c5 00 00 00 	lea    0x0(,%rax,8),%rdx
    fcbf:	00 
    fcc0:	48 8d 05 89 a3 00 00 	lea    0xa389(%rip),%rax        # 1a050 <g_94>
    fcc7:	48 8b 04 02          	mov    (%rdx,%rax,1),%rax
    fccb:	8b 55 fc             	mov    -0x4(%rbp),%edx
    fcce:	48 8d 35 a5 59 00 00 	lea    0x59a5(%rip),%rsi        # 1567a <g_243+0x622>
    fcd5:	48 89 c7             	mov    %rax,%rdi
    fcd8:	e8 16 8a ff ff       	callq  86f3 <transparent_crc>
    fcdd:	83 7d fc 00          	cmpl   $0x0,-0x4(%rbp)
    fce1:	74 16                	je     fcf9 <main+0x1b5>
    fce3:	8b 45 f0             	mov    -0x10(%rbp),%eax
    fce6:	89 c6                	mov    %eax,%esi
    fce8:	48 8d 3d 78 59 00 00 	lea    0x5978(%rip),%rdi        # 15667 <g_243+0x60f>
    fcef:	b8 00 00 00 00       	mov    $0x0,%eax
    fcf4:	e8 87 73 ff ff       	callq  7080 <printf@plt>
    fcf9:	83 45 f0 01          	addl   $0x1,-0x10(%rbp)
    fcfd:	83 7d f0 00          	cmpl   $0x0,-0x10(%rbp)
    fd01:	7e b0                	jle    fcb3 <main+0x16f>
    fd03:	8b 05 4f a3 00 00    	mov    0xa34f(%rip),%eax        # 1a058 <g_97>
    fd09:	48 98                	cltq   
    fd0b:	8b 55 fc             	mov    -0x4(%rbp),%edx
    fd0e:	48 8d 35 6d 59 00 00 	lea    0x596d(%rip),%rsi        # 15682 <g_243+0x62a>
    fd15:	48 89 c7             	mov    %rax,%rdi
    fd18:	e8 d6 89 ff ff       	callq  86f3 <transparent_crc>
    fd1d:	48 8b 05 3c a3 00 00 	mov    0xa33c(%rip),%rax        # 1a060 <g_99>
    fd24:	c1 e0 05             	shl    $0x5,%eax
    fd27:	c1 f8 05             	sar    $0x5,%eax
    fd2a:	48 98                	cltq   
    fd2c:	8b 55 fc             	mov    -0x4(%rbp),%edx
    fd2f:	48 8d 35 51 59 00 00 	lea    0x5951(%rip),%rsi        # 15687 <g_243+0x62f>
    fd36:	48 89 c7             	mov    %rax,%rdi
    fd39:	e8 b5 89 ff ff       	callq  86f3 <transparent_crc>
    fd3e:	48 8b 05 1b a3 00 00 	mov    0xa31b(%rip),%rax        # 1a060 <g_99>
    fd45:	c1 e0 03             	shl    $0x3,%eax
    fd48:	c1 f8 1e             	sar    $0x1e,%eax
    fd4b:	48 0f be c0          	movsbq %al,%rax
    fd4f:	8b 55 fc             	mov    -0x4(%rbp),%edx
    fd52:	48 8d 35 36 59 00 00 	lea    0x5936(%rip),%rsi        # 1568f <g_243+0x637>
    fd59:	48 89 c7             	mov    %rax,%rdi
    fd5c:	e8 92 89 ff ff       	callq  86f3 <transparent_crc>
    fd61:	48 8b 05 f8 a2 00 00 	mov    0xa2f8(%rip),%rax        # 1a060 <g_99>
    fd68:	48 c1 e8 20          	shr    $0x20,%rax
    fd6c:	25 ff ff ff 1f       	and    $0x1fffffff,%eax
    fd71:	89 c1                	mov    %eax,%ecx
    fd73:	8b 45 fc             	mov    -0x4(%rbp),%eax
    fd76:	89 c2                	mov    %eax,%edx
    fd78:	48 8d 35 18 59 00 00 	lea    0x5918(%rip),%rsi        # 15697 <g_243+0x63f>
    fd7f:	48 89 cf             	mov    %rcx,%rdi
    fd82:	e8 6c 89 ff ff       	callq  86f3 <transparent_crc>
    fd87:	48 8b 05 da a2 00 00 	mov    0xa2da(%rip),%rax        # 1a068 <g_99+0x8>
    fd8e:	c1 e0 07             	shl    $0x7,%eax
    fd91:	c1 f8 07             	sar    $0x7,%eax
    fd94:	48 98                	cltq   
    fd96:	8b 55 fc             	mov    -0x4(%rbp),%edx
    fd99:	48 8d 35 ff 58 00 00 	lea    0x58ff(%rip),%rsi        # 1569f <g_243+0x647>
    fda0:	48 89 c7             	mov    %rax,%rdi
    fda3:	e8 4b 89 ff ff       	callq  86f3 <transparent_crc>
    fda8:	48 8b 05 b9 a2 00 00 	mov    0xa2b9(%rip),%rax        # 1a068 <g_99+0x8>
    fdaf:	48 c1 e0 0d          	shl    $0xd,%rax
    fdb3:	48 c1 f8 2d          	sar    $0x2d,%rax
    fdb7:	48 98                	cltq   
    fdb9:	8b 55 fc             	mov    -0x4(%rbp),%edx
    fdbc:	48 8d 35 e4 58 00 00 	lea    0x58e4(%rip),%rsi        # 156a7 <g_243+0x64f>
    fdc3:	48 89 c7             	mov    %rax,%rdi
    fdc6:	e8 28 89 ff ff       	callq  86f3 <transparent_crc>
    fdcb:	48 8b 05 9e a2 00 00 	mov    0xa29e(%rip),%rax        # 1a070 <g_99+0x10>
    fdd2:	25 ff ff 3f 00       	and    $0x3fffff,%eax
    fdd7:	89 c1                	mov    %eax,%ecx
    fdd9:	8b 45 fc             	mov    -0x4(%rbp),%eax
    fddc:	89 c2                	mov    %eax,%edx
    fdde:	48 8d 35 ca 58 00 00 	lea    0x58ca(%rip),%rsi        # 156af <g_243+0x657>
    fde5:	48 89 cf             	mov    %rcx,%rdi
    fde8:	e8 06 89 ff ff       	callq  86f3 <transparent_crc>
    fded:	48 8b 05 84 a2 00 00 	mov    0xa284(%rip),%rax        # 1a078 <g_99+0x18>
    fdf4:	8b 55 fc             	mov    -0x4(%rbp),%edx
    fdf7:	48 8d 35 b9 58 00 00 	lea    0x58b9(%rip),%rsi        # 156b7 <g_243+0x65f>
    fdfe:	48 89 c7             	mov    %rax,%rdi
    fe01:	e8 ed 88 ff ff       	callq  86f3 <transparent_crc>
    fe06:	48 8b 05 73 a2 00 00 	mov    0xa273(%rip),%rax        # 1a080 <g_99+0x20>
    fe0d:	c1 e0 06             	shl    $0x6,%eax
    fe10:	66 c1 f8 06          	sar    $0x6,%ax
    fe14:	48 0f bf c0          	movswq %ax,%rax
    fe18:	8b 55 fc             	mov    -0x4(%rbp),%edx
    fe1b:	48 8d 35 9d 58 00 00 	lea    0x589d(%rip),%rsi        # 156bf <g_243+0x667>
    fe22:	48 89 c7             	mov    %rax,%rdi
    fe25:	e8 c9 88 ff ff       	callq  86f3 <transparent_crc>
    fe2a:	8b 05 54 a2 00 00    	mov    0xa254(%rip),%eax        # 1a084 <g_99+0x24>
    fe30:	89 c1                	mov    %eax,%ecx
    fe32:	8b 45 fc             	mov    -0x4(%rbp),%eax
    fe35:	89 c2                	mov    %eax,%edx
    fe37:	48 8d 35 89 58 00 00 	lea    0x5889(%rip),%rsi        # 156c7 <g_243+0x66f>
    fe3e:	48 89 cf             	mov    %rcx,%rdi
    fe41:	e8 ad 88 ff ff       	callq  86f3 <transparent_crc>
    fe46:	48 8b 05 3b a2 00 00 	mov    0xa23b(%rip),%rax        # 1a088 <g_99+0x28>
    fe4d:	c1 e0 02             	shl    $0x2,%eax
    fe50:	c1 f8 02             	sar    $0x2,%eax
    fe53:	48 98                	cltq   
    fe55:	8b 55 fc             	mov    -0x4(%rbp),%edx
    fe58:	48 8d 35 70 58 00 00 	lea    0x5870(%rip),%rsi        # 156cf <g_243+0x677>
    fe5f:	48 89 c7             	mov    %rax,%rdi
    fe62:	e8 8c 88 ff ff       	callq  86f3 <transparent_crc>
    fe67:	48 8b 05 32 a2 00 00 	mov    0xa232(%rip),%rax        # 1a0a0 <g_127>
    fe6e:	c1 e0 05             	shl    $0x5,%eax
    fe71:	66 c1 f8 05          	sar    $0x5,%ax
    fe75:	48 0f bf c0          	movswq %ax,%rax
    fe79:	8b 55 fc             	mov    -0x4(%rbp),%edx
    fe7c:	48 8d 35 54 58 00 00 	lea    0x5854(%rip),%rsi        # 156d7 <g_243+0x67f>
    fe83:	48 89 c7             	mov    %rax,%rdi
    fe86:	e8 68 88 ff ff       	callq  86f3 <transparent_crc>
    fe8b:	8b 05 13 a2 00 00    	mov    0xa213(%rip),%eax        # 1a0a4 <g_127+0x4>
    fe91:	25 ff ff ff 0f       	and    $0xfffffff,%eax
    fe96:	89 c1                	mov    %eax,%ecx
    fe98:	8b 45 fc             	mov    -0x4(%rbp),%eax
    fe9b:	89 c2                	mov    %eax,%edx
    fe9d:	48 8d 35 3c 58 00 00 	lea    0x583c(%rip),%rsi        # 156e0 <g_243+0x688>
    fea4:	48 89 cf             	mov    %rcx,%rdi
    fea7:	e8 47 88 ff ff       	callq  86f3 <transparent_crc>
    feac:	0f b7 05 f5 a1 00 00 	movzwl 0xa1f5(%rip),%eax        # 1a0a8 <g_127+0x8>
    feb3:	0f b7 c0             	movzwl %ax,%eax
    feb6:	8b 55 fc             	mov    -0x4(%rbp),%edx
    feb9:	48 8d 35 29 58 00 00 	lea    0x5829(%rip),%rsi        # 156e9 <g_243+0x691>
    fec0:	48 89 c7             	mov    %rax,%rdi
    fec3:	e8 2b 88 ff ff       	callq  86f3 <transparent_crc>
    fec8:	48 8b 05 d9 a1 00 00 	mov    0xa1d9(%rip),%rax        # 1a0a8 <g_127+0x8>
    fecf:	48 c1 e0 1a          	shl    $0x1a,%rax
    fed3:	48 c1 f8 2a          	sar    $0x2a,%rax
    fed7:	48 98                	cltq   
    fed9:	8b 55 fc             	mov    -0x4(%rbp),%edx
    fedc:	48 8d 35 12 58 00 00 	lea    0x5812(%rip),%rsi        # 156f5 <g_243+0x69d>
    fee3:	48 89 c7             	mov    %rax,%rdi
    fee6:	e8 08 88 ff ff       	callq  86f3 <transparent_crc>
    feeb:	48 8b 05 bb a1 00 00 	mov    0xa1bb(%rip),%rax        # 1a0ad <g_127+0xd>
    fef2:	8b 55 fc             	mov    -0x4(%rbp),%edx
    fef5:	48 8d 35 05 58 00 00 	lea    0x5805(%rip),%rsi        # 15701 <g_243+0x6a9>
    fefc:	48 89 c7             	mov    %rax,%rdi
    feff:	e8 ef 87 ff ff       	callq  86f3 <transparent_crc>
    ff04:	0f b7 05 aa a1 00 00 	movzwl 0xa1aa(%rip),%eax        # 1a0b5 <g_127+0x15>
    ff0b:	48 0f bf c0          	movswq %ax,%rax
    ff0f:	8b 55 fc             	mov    -0x4(%rbp),%edx
    ff12:	48 8d 35 f4 57 00 00 	lea    0x57f4(%rip),%rsi        # 1570d <g_243+0x6b5>
    ff19:	48 89 c7             	mov    %rax,%rdi
    ff1c:	e8 d2 87 ff ff       	callq  86f3 <transparent_crc>
    ff21:	48 8b 05 8f a1 00 00 	mov    0xa18f(%rip),%rax        # 1a0b7 <g_127+0x17>
    ff28:	8b 55 fc             	mov    -0x4(%rbp),%edx
    ff2b:	48 8d 35 e7 57 00 00 	lea    0x57e7(%rip),%rsi        # 15719 <g_243+0x6c1>
    ff32:	48 89 c7             	mov    %rax,%rdi
    ff35:	e8 b9 87 ff ff       	callq  86f3 <transparent_crc>
    ff3a:	8b 05 7f a1 00 00    	mov    0xa17f(%rip),%eax        # 1a0bf <g_127+0x1f>
    ff40:	48 98                	cltq   
    ff42:	8b 55 fc             	mov    -0x4(%rbp),%edx
    ff45:	48 8d 35 d9 57 00 00 	lea    0x57d9(%rip),%rsi        # 15725 <g_243+0x6cd>
    ff4c:	48 89 c7             	mov    %rax,%rdi
    ff4f:	e8 9f 87 ff ff       	callq  86f3 <transparent_crc>
    ff54:	8b 05 6a a1 00 00    	mov    0xa16a(%rip),%eax        # 1a0c4 <g_127+0x24>
    ff5a:	25 ff ff ff 7f       	and    $0x7fffffff,%eax
    ff5f:	89 c1                	mov    %eax,%ecx
    ff61:	8b 45 fc             	mov    -0x4(%rbp),%eax
    ff64:	89 c2                	mov    %eax,%edx
    ff66:	48 8d 35 c4 57 00 00 	lea    0x57c4(%rip),%rsi        # 15731 <g_243+0x6d9>
    ff6d:	48 89 cf             	mov    %rcx,%rdi
    ff70:	e8 7e 87 ff ff       	callq  86f3 <transparent_crc>
    ff75:	0f b6 05 4c a1 00 00 	movzbl 0xa14c(%rip),%eax        # 1a0c8 <g_127+0x28>
    ff7c:	01 c0                	add    %eax,%eax
    ff7e:	d0 f8                	sar    %al
    ff80:	48 0f be c0          	movsbq %al,%rax
    ff84:	8b 55 fc             	mov    -0x4(%rbp),%edx
    ff87:	48 8d 35 ac 57 00 00 	lea    0x57ac(%rip),%rsi        # 1573a <g_243+0x6e2>
    ff8e:	48 89 c7             	mov    %rax,%rdi
    ff91:	e8 5d 87 ff ff       	callq  86f3 <transparent_crc>
    ff96:	0f b7 05 33 a1 00 00 	movzwl 0xa133(%rip),%eax        # 1a0d0 <g_130>
    ff9d:	0f b7 c0             	movzwl %ax,%eax
    ffa0:	8b 55 fc             	mov    -0x4(%rbp),%edx
    ffa3:	48 8d 35 99 57 00 00 	lea    0x5799(%rip),%rsi        # 15743 <g_243+0x6eb>
    ffaa:	48 89 c7             	mov    %rax,%rdi
    ffad:	e8 41 87 ff ff       	callq  86f3 <transparent_crc>
    ffb2:	48 8b 05 17 a1 00 00 	mov    0xa117(%rip),%rax        # 1a0d0 <g_130>
    ffb9:	48 c1 e0 1a          	shl    $0x1a,%rax
    ffbd:	48 c1 f8 2a          	sar    $0x2a,%rax
    ffc1:	48 98                	cltq   
    ffc3:	8b 55 fc             	mov    -0x4(%rbp),%edx
    ffc6:	48 8d 35 7f 57 00 00 	lea    0x577f(%rip),%rsi        # 1574c <g_243+0x6f4>
    ffcd:	48 89 c7             	mov    %rax,%rdi
    ffd0:	e8 1e 87 ff ff       	callq  86f3 <transparent_crc>
    ffd5:	48 8b 05 f9 a0 00 00 	mov    0xa0f9(%rip),%rax        # 1a0d5 <g_130+0x5>
    ffdc:	8b 55 fc             	mov    -0x4(%rbp),%edx
    ffdf:	48 8d 35 6f 57 00 00 	lea    0x576f(%rip),%rsi        # 15755 <g_243+0x6fd>
    ffe6:	48 89 c7             	mov    %rax,%rdi
    ffe9:	e8 05 87 ff ff       	callq  86f3 <transparent_crc>
    ffee:	0f b7 05 e8 a0 00 00 	movzwl 0xa0e8(%rip),%eax        # 1a0dd <g_130+0xd>
    fff5:	48 0f bf c0          	movswq %ax,%rax
    fff9:	8b 55 fc             	mov    -0x4(%rbp),%edx
    fffc:	48 8d 35 5b 57 00 00 	lea    0x575b(%rip),%rsi        # 1575e <g_243+0x706>
   10003:	48 89 c7             	mov    %rax,%rdi
   10006:	e8 e8 86 ff ff       	callq  86f3 <transparent_crc>
   1000b:	48 8b 05 cd a0 00 00 	mov    0xa0cd(%rip),%rax        # 1a0df <g_130+0xf>
   10012:	8b 55 fc             	mov    -0x4(%rbp),%edx
   10015:	48 8d 35 4b 57 00 00 	lea    0x574b(%rip),%rsi        # 15767 <g_243+0x70f>
   1001c:	48 89 c7             	mov    %rax,%rdi
   1001f:	e8 cf 86 ff ff       	callq  86f3 <transparent_crc>
   10024:	8b 05 bd a0 00 00    	mov    0xa0bd(%rip),%eax        # 1a0e7 <g_130+0x17>
   1002a:	48 98                	cltq   
   1002c:	8b 55 fc             	mov    -0x4(%rbp),%edx
   1002f:	48 8d 35 3a 57 00 00 	lea    0x573a(%rip),%rsi        # 15770 <g_243+0x718>
   10036:	48 89 c7             	mov    %rax,%rdi
   10039:	e8 b5 86 ff ff       	callq  86f3 <transparent_crc>
   1003e:	48 8b 05 bb a0 00 00 	mov    0xa0bb(%rip),%rax        # 1a100 <g_141>
   10045:	c1 e0 05             	shl    $0x5,%eax
   10048:	66 c1 f8 05          	sar    $0x5,%ax
   1004c:	48 0f bf c0          	movswq %ax,%rax
   10050:	8b 55 fc             	mov    -0x4(%rbp),%edx
   10053:	48 8d 35 1f 57 00 00 	lea    0x571f(%rip),%rsi        # 15779 <g_243+0x721>
   1005a:	48 89 c7             	mov    %rax,%rdi
   1005d:	e8 91 86 ff ff       	callq  86f3 <transparent_crc>
   10062:	48 8b 05 97 a0 00 00 	mov    0xa097(%rip),%rax        # 1a100 <g_141>
   10069:	48 c1 e8 20          	shr    $0x20,%rax
   1006d:	25 ff ff ff 0f       	and    $0xfffffff,%eax
   10072:	89 c1                	mov    %eax,%ecx
   10074:	8b 45 fc             	mov    -0x4(%rbp),%eax
   10077:	89 c2                	mov    %eax,%edx
   10079:	48 8d 35 02 57 00 00 	lea    0x5702(%rip),%rsi        # 15782 <g_243+0x72a>
   10080:	48 89 cf             	mov    %rcx,%rdi
   10083:	e8 6b 86 ff ff       	callq  86f3 <transparent_crc>
   10088:	0f b7 05 79 a0 00 00 	movzwl 0xa079(%rip),%eax        # 1a108 <g_141+0x8>
   1008f:	0f b7 c0             	movzwl %ax,%eax
   10092:	8b 55 fc             	mov    -0x4(%rbp),%edx
   10095:	48 8d 35 ef 56 00 00 	lea    0x56ef(%rip),%rsi        # 1578b <g_243+0x733>
   1009c:	48 89 c7             	mov    %rax,%rdi
   1009f:	e8 4f 86 ff ff       	callq  86f3 <transparent_crc>
   100a4:	48 8b 05 5d a0 00 00 	mov    0xa05d(%rip),%rax        # 1a108 <g_141+0x8>
   100ab:	48 c1 e0 1a          	shl    $0x1a,%rax
   100af:	48 c1 f8 2a          	sar    $0x2a,%rax
   100b3:	48 98                	cltq   
   100b5:	8b 55 fc             	mov    -0x4(%rbp),%edx
   100b8:	48 8d 35 d8 56 00 00 	lea    0x56d8(%rip),%rsi        # 15797 <g_243+0x73f>
   100bf:	48 89 c7             	mov    %rax,%rdi
   100c2:	e8 2c 86 ff ff       	callq  86f3 <transparent_crc>
   100c7:	48 8b 05 3f a0 00 00 	mov    0xa03f(%rip),%rax        # 1a10d <g_141+0xd>
   100ce:	8b 55 fc             	mov    -0x4(%rbp),%edx
   100d1:	48 8d 35 cb 56 00 00 	lea    0x56cb(%rip),%rsi        # 157a3 <g_243+0x74b>
   100d8:	48 89 c7             	mov    %rax,%rdi
   100db:	e8 13 86 ff ff       	callq  86f3 <transparent_crc>
   100e0:	0f b7 05 2e a0 00 00 	movzwl 0xa02e(%rip),%eax        # 1a115 <g_141+0x15>
   100e7:	48 0f bf c0          	movswq %ax,%rax
   100eb:	8b 55 fc             	mov    -0x4(%rbp),%edx
   100ee:	48 8d 35 ba 56 00 00 	lea    0x56ba(%rip),%rsi        # 157af <g_243+0x757>
   100f5:	48 89 c7             	mov    %rax,%rdi
   100f8:	e8 f6 85 ff ff       	callq  86f3 <transparent_crc>
   100fd:	48 8b 05 13 a0 00 00 	mov    0xa013(%rip),%rax        # 1a117 <g_141+0x17>
   10104:	8b 55 fc             	mov    -0x4(%rbp),%edx
   10107:	48 8d 35 ad 56 00 00 	lea    0x56ad(%rip),%rsi        # 157bb <g_243+0x763>
   1010e:	48 89 c7             	mov    %rax,%rdi
   10111:	e8 dd 85 ff ff       	callq  86f3 <transparent_crc>
   10116:	8b 05 03 a0 00 00    	mov    0xa003(%rip),%eax        # 1a11f <g_141+0x1f>
   1011c:	48 98                	cltq   
   1011e:	8b 55 fc             	mov    -0x4(%rbp),%edx
   10121:	48 8d 35 9f 56 00 00 	lea    0x569f(%rip),%rsi        # 157c7 <g_243+0x76f>
   10128:	48 89 c7             	mov    %rax,%rdi
   1012b:	e8 c3 85 ff ff       	callq  86f3 <transparent_crc>
   10130:	48 8b 05 e9 9f 00 00 	mov    0x9fe9(%rip),%rax        # 1a120 <g_141+0x20>
   10137:	48 c1 e8 20          	shr    $0x20,%rax
   1013b:	25 ff ff ff 7f       	and    $0x7fffffff,%eax
   10140:	89 c1                	mov    %eax,%ecx
   10142:	8b 45 fc             	mov    -0x4(%rbp),%eax
   10145:	89 c2                	mov    %eax,%edx
   10147:	48 8d 35 85 56 00 00 	lea    0x5685(%rip),%rsi        # 157d3 <g_243+0x77b>
   1014e:	48 89 cf             	mov    %rcx,%rdi
   10151:	e8 9d 85 ff ff       	callq  86f3 <transparent_crc>
   10156:	48 8b 05 cb 9f 00 00 	mov    0x9fcb(%rip),%rax        # 1a128 <g_141+0x28>
   1015d:	01 c0                	add    %eax,%eax
   1015f:	d0 f8                	sar    %al
   10161:	48 0f be c0          	movsbq %al,%rax
   10165:	8b 55 fc             	mov    -0x4(%rbp),%edx
   10168:	48 8d 35 6d 56 00 00 	lea    0x566d(%rip),%rsi        # 157dc <g_243+0x784>
   1016f:	48 89 c7             	mov    %rax,%rdi
   10172:	e8 7c 85 ff ff       	callq  86f3 <transparent_crc>
   10177:	c7 45 f0 00 00 00 00 	movl   $0x0,-0x10(%rbp)
   1017e:	e9 a6 01 00 00       	jmpq   10329 <main+0x7e5>
   10183:	8b 45 f0             	mov    -0x10(%rbp),%eax
   10186:	48 63 d0             	movslq %eax,%rdx
   10189:	48 89 d0             	mov    %rdx,%rax
   1018c:	48 01 c0             	add    %rax,%rax
   1018f:	48 01 d0             	add    %rdx,%rax
   10192:	48 8d 14 c5 00 00 00 	lea    0x0(,%rax,8),%rdx
   10199:	00 
   1019a:	48 01 c2             	add    %rax,%rdx
   1019d:	48 8d 05 9c 9f 00 00 	lea    0x9f9c(%rip),%rax        # 1a140 <g_145>
   101a4:	0f b7 04 02          	movzwl (%rdx,%rax,1),%eax
   101a8:	0f b7 c0             	movzwl %ax,%eax
   101ab:	8b 55 fc             	mov    -0x4(%rbp),%edx
   101ae:	48 8d 35 30 56 00 00 	lea    0x5630(%rip),%rsi        # 157e5 <g_243+0x78d>
   101b5:	48 89 c7             	mov    %rax,%rdi
   101b8:	e8 36 85 ff ff       	callq  86f3 <transparent_crc>
   101bd:	8b 45 f0             	mov    -0x10(%rbp),%eax
   101c0:	48 63 d0             	movslq %eax,%rdx
   101c3:	48 89 d0             	mov    %rdx,%rax
   101c6:	48 01 c0             	add    %rax,%rax
   101c9:	48 01 d0             	add    %rdx,%rax
   101cc:	48 8d 14 c5 00 00 00 	lea    0x0(,%rax,8),%rdx
   101d3:	00 
   101d4:	48 01 c2             	add    %rax,%rdx
   101d7:	48 8d 05 62 9f 00 00 	lea    0x9f62(%rip),%rax        # 1a140 <g_145>
   101de:	0f b6 4c 02 02       	movzbl 0x2(%rdx,%rax,1),%ecx
   101e3:	0f b6 c9             	movzbl %cl,%ecx
   101e6:	0f b6 74 02 03       	movzbl 0x3(%rdx,%rax,1),%esi
   101eb:	40 0f b6 f6          	movzbl %sil,%esi
   101ef:	48 c1 e6 08          	shl    $0x8,%rsi
   101f3:	48 09 f1             	or     %rsi,%rcx
   101f6:	0f b6 44 02 04       	movzbl 0x4(%rdx,%rax,1),%eax
   101fb:	0f b6 c0             	movzbl %al,%eax
   101fe:	83 e0 3f             	and    $0x3f,%eax
   10201:	48 c1 e0 10          	shl    $0x10,%rax
   10205:	48 09 c8             	or     %rcx,%rax
   10208:	48 c1 e0 2a          	shl    $0x2a,%rax
   1020c:	48 c1 f8 2a          	sar    $0x2a,%rax
   10210:	48 98                	cltq   
   10212:	8b 55 fc             	mov    -0x4(%rbp),%edx
   10215:	48 8d 35 d5 55 00 00 	lea    0x55d5(%rip),%rsi        # 157f1 <g_243+0x799>
   1021c:	48 89 c7             	mov    %rax,%rdi
   1021f:	e8 cf 84 ff ff       	callq  86f3 <transparent_crc>
   10224:	8b 45 f0             	mov    -0x10(%rbp),%eax
   10227:	48 63 d0             	movslq %eax,%rdx
   1022a:	48 89 d0             	mov    %rdx,%rax
   1022d:	48 01 c0             	add    %rax,%rax
   10230:	48 01 d0             	add    %rdx,%rax
   10233:	48 8d 14 c5 00 00 00 	lea    0x0(,%rax,8),%rdx
   1023a:	00 
   1023b:	48 01 c2             	add    %rax,%rdx
   1023e:	48 8d 05 fb 9e 00 00 	lea    0x9efb(%rip),%rax        # 1a140 <g_145>
   10245:	48 8b 44 02 05       	mov    0x5(%rdx,%rax,1),%rax
   1024a:	8b 55 fc             	mov    -0x4(%rbp),%edx
   1024d:	48 8d 35 a9 55 00 00 	lea    0x55a9(%rip),%rsi        # 157fd <g_243+0x7a5>
   10254:	48 89 c7             	mov    %rax,%rdi
   10257:	e8 97 84 ff ff       	callq  86f3 <transparent_crc>
   1025c:	8b 45 f0             	mov    -0x10(%rbp),%eax
   1025f:	48 63 d0             	movslq %eax,%rdx
   10262:	48 89 d0             	mov    %rdx,%rax
   10265:	48 01 c0             	add    %rax,%rax
   10268:	48 01 d0             	add    %rdx,%rax
   1026b:	48 8d 14 c5 00 00 00 	lea    0x0(,%rax,8),%rdx
   10272:	00 
   10273:	48 01 c2             	add    %rax,%rdx
   10276:	48 8d 05 c3 9e 00 00 	lea    0x9ec3(%rip),%rax        # 1a140 <g_145>
   1027d:	0f b7 44 02 0d       	movzwl 0xd(%rdx,%rax,1),%eax
   10282:	48 0f bf c0          	movswq %ax,%rax
   10286:	8b 55 fc             	mov    -0x4(%rbp),%edx
   10289:	48 8d 35 79 55 00 00 	lea    0x5579(%rip),%rsi        # 15809 <g_243+0x7b1>
   10290:	48 89 c7             	mov    %rax,%rdi
   10293:	e8 5b 84 ff ff       	callq  86f3 <transparent_crc>
   10298:	8b 45 f0             	mov    -0x10(%rbp),%eax
   1029b:	48 63 d0             	movslq %eax,%rdx
   1029e:	48 89 d0             	mov    %rdx,%rax
   102a1:	48 01 c0             	add    %rax,%rax
   102a4:	48 01 d0             	add    %rdx,%rax
   102a7:	48 8d 14 c5 00 00 00 	lea    0x0(,%rax,8),%rdx
   102ae:	00 
   102af:	48 01 c2             	add    %rax,%rdx
   102b2:	48 8d 05 87 9e 00 00 	lea    0x9e87(%rip),%rax        # 1a140 <g_145>
   102b9:	48 8b 44 02 0f       	mov    0xf(%rdx,%rax,1),%rax
   102be:	8b 55 fc             	mov    -0x4(%rbp),%edx
   102c1:	48 8d 35 4d 55 00 00 	lea    0x554d(%rip),%rsi        # 15815 <g_243+0x7bd>
   102c8:	48 89 c7             	mov    %rax,%rdi
   102cb:	e8 23 84 ff ff       	callq  86f3 <transparent_crc>
   102d0:	8b 45 f0             	mov    -0x10(%rbp),%eax
   102d3:	48 63 d0             	movslq %eax,%rdx
   102d6:	48 89 d0             	mov    %rdx,%rax
   102d9:	48 01 c0             	add    %rax,%rax
   102dc:	48 01 d0             	add    %rdx,%rax
   102df:	48 8d 14 c5 00 00 00 	lea    0x0(,%rax,8),%rdx
   102e6:	00 
   102e7:	48 01 c2             	add    %rax,%rdx
   102ea:	48 8d 05 5f 9e 00 00 	lea    0x9e5f(%rip),%rax        # 1a150 <g_145+0x10>
   102f1:	8b 44 02 07          	mov    0x7(%rdx,%rax,1),%eax
   102f5:	48 98                	cltq   
   102f7:	8b 55 fc             	mov    -0x4(%rbp),%edx
   102fa:	48 8d 35 20 55 00 00 	lea    0x5520(%rip),%rsi        # 15821 <g_243+0x7c9>
   10301:	48 89 c7             	mov    %rax,%rdi
   10304:	e8 ea 83 ff ff       	callq  86f3 <transparent_crc>
   10309:	83 7d fc 00          	cmpl   $0x0,-0x4(%rbp)
   1030d:	74 16                	je     10325 <main+0x7e1>
   1030f:	8b 45 f0             	mov    -0x10(%rbp),%eax
   10312:	89 c6                	mov    %eax,%esi
   10314:	48 8d 3d 4c 53 00 00 	lea    0x534c(%rip),%rdi        # 15667 <g_243+0x60f>
   1031b:	b8 00 00 00 00       	mov    $0x0,%eax
   10320:	e8 5b 6d ff ff       	callq  7080 <printf@plt>
   10325:	83 45 f0 01          	addl   $0x1,-0x10(%rbp)
   10329:	83 7d f0 02          	cmpl   $0x2,-0x10(%rbp)
   1032d:	0f 8e 50 fe ff ff    	jle    10183 <main+0x63f>
   10333:	0f b6 05 57 9e 00 00 	movzbl 0x9e57(%rip),%eax        # 1a191 <g_167>
   1033a:	48 0f be c0          	movsbq %al,%rax
   1033e:	8b 55 fc             	mov    -0x4(%rbp),%edx
   10341:	48 8d 35 e5 54 00 00 	lea    0x54e5(%rip),%rsi        # 1582d <g_243+0x7d5>
   10348:	48 89 c7             	mov    %rax,%rdi
   1034b:	e8 a3 83 ff ff       	callq  86f3 <transparent_crc>
   10350:	0f b7 05 3b 9e 00 00 	movzwl 0x9e3b(%rip),%eax        # 1a192 <g_174>
   10357:	48 0f bf c0          	movswq %ax,%rax
   1035b:	8b 55 fc             	mov    -0x4(%rbp),%edx
   1035e:	48 8d 35 ce 54 00 00 	lea    0x54ce(%rip),%rsi        # 15833 <g_243+0x7db>
   10365:	48 89 c7             	mov    %rax,%rdi
   10368:	e8 86 83 ff ff       	callq  86f3 <transparent_crc>
   1036d:	48 8b 05 2c 9e 00 00 	mov    0x9e2c(%rip),%rax        # 1a1a0 <g_186>
   10374:	c1 e0 05             	shl    $0x5,%eax
   10377:	66 c1 f8 05          	sar    $0x5,%ax
   1037b:	48 0f bf c0          	movswq %ax,%rax
   1037f:	8b 55 fc             	mov    -0x4(%rbp),%edx
   10382:	48 8d 35 b0 54 00 00 	lea    0x54b0(%rip),%rsi        # 15839 <g_243+0x7e1>
   10389:	48 89 c7             	mov    %rax,%rdi
   1038c:	e8 62 83 ff ff       	callq  86f3 <transparent_crc>
   10391:	8b 05 0d 9e 00 00    	mov    0x9e0d(%rip),%eax        # 1a1a4 <g_186+0x4>
   10397:	25 ff ff ff 0f       	and    $0xfffffff,%eax
   1039c:	89 c1                	mov    %eax,%ecx
   1039e:	8b 45 fc             	mov    -0x4(%rbp),%eax
   103a1:	89 c2                	mov    %eax,%edx
   103a3:	48 8d 35 98 54 00 00 	lea    0x5498(%rip),%rsi        # 15842 <g_243+0x7ea>
   103aa:	48 89 cf             	mov    %rcx,%rdi
   103ad:	e8 41 83 ff ff       	callq  86f3 <transparent_crc>
   103b2:	0f b7 05 ef 9d 00 00 	movzwl 0x9def(%rip),%eax        # 1a1a8 <g_186+0x8>
   103b9:	0f b7 c0             	movzwl %ax,%eax
   103bc:	8b 55 fc             	mov    -0x4(%rbp),%edx
   103bf:	48 8d 35 85 54 00 00 	lea    0x5485(%rip),%rsi        # 1584b <g_243+0x7f3>
   103c6:	48 89 c7             	mov    %rax,%rdi
   103c9:	e8 25 83 ff ff       	callq  86f3 <transparent_crc>
   103ce:	48 8b 05 d3 9d 00 00 	mov    0x9dd3(%rip),%rax        # 1a1a8 <g_186+0x8>
   103d5:	48 c1 e0 1a          	shl    $0x1a,%rax
   103d9:	48 c1 f8 2a          	sar    $0x2a,%rax
   103dd:	48 98                	cltq   
   103df:	8b 55 fc             	mov    -0x4(%rbp),%edx
   103e2:	48 8d 35 6e 54 00 00 	lea    0x546e(%rip),%rsi        # 15857 <g_243+0x7ff>
   103e9:	48 89 c7             	mov    %rax,%rdi
   103ec:	e8 02 83 ff ff       	callq  86f3 <transparent_crc>
   103f1:	48 8b 05 b5 9d 00 00 	mov    0x9db5(%rip),%rax        # 1a1ad <g_186+0xd>
   103f8:	8b 55 fc             	mov    -0x4(%rbp),%edx
   103fb:	48 8d 35 61 54 00 00 	lea    0x5461(%rip),%rsi        # 15863 <g_243+0x80b>
   10402:	48 89 c7             	mov    %rax,%rdi
   10405:	e8 e9 82 ff ff       	callq  86f3 <transparent_crc>
   1040a:	0f b7 05 a4 9d 00 00 	movzwl 0x9da4(%rip),%eax        # 1a1b5 <g_186+0x15>
   10411:	48 0f bf c0          	movswq %ax,%rax
   10415:	8b 55 fc             	mov    -0x4(%rbp),%edx
   10418:	48 8d 35 50 54 00 00 	lea    0x5450(%rip),%rsi        # 1586f <g_243+0x817>
   1041f:	48 89 c7             	mov    %rax,%rdi
   10422:	e8 cc 82 ff ff       	callq  86f3 <transparent_crc>
   10427:	48 8b 05 89 9d 00 00 	mov    0x9d89(%rip),%rax        # 1a1b7 <g_186+0x17>
   1042e:	8b 55 fc             	mov    -0x4(%rbp),%edx
   10431:	48 8d 35 43 54 00 00 	lea    0x5443(%rip),%rsi        # 1587b <g_243+0x823>
   10438:	48 89 c7             	mov    %rax,%rdi
   1043b:	e8 b3 82 ff ff       	callq  86f3 <transparent_crc>
   10440:	8b 05 79 9d 00 00    	mov    0x9d79(%rip),%eax        # 1a1bf <g_186+0x1f>
   10446:	48 98                	cltq   
   10448:	8b 55 fc             	mov    -0x4(%rbp),%edx
   1044b:	48 8d 35 35 54 00 00 	lea    0x5435(%rip),%rsi        # 15887 <g_243+0x82f>
   10452:	48 89 c7             	mov    %rax,%rdi
   10455:	e8 99 82 ff ff       	callq  86f3 <transparent_crc>
   1045a:	8b 05 64 9d 00 00    	mov    0x9d64(%rip),%eax        # 1a1c4 <g_186+0x24>
   10460:	25 ff ff ff 7f       	and    $0x7fffffff,%eax
   10465:	89 c1                	mov    %eax,%ecx
   10467:	8b 45 fc             	mov    -0x4(%rbp),%eax
   1046a:	89 c2                	mov    %eax,%edx
   1046c:	48 8d 35 20 54 00 00 	lea    0x5420(%rip),%rsi        # 15893 <g_243+0x83b>
   10473:	48 89 cf             	mov    %rcx,%rdi
   10476:	e8 78 82 ff ff       	callq  86f3 <transparent_crc>
   1047b:	0f b6 05 46 9d 00 00 	movzbl 0x9d46(%rip),%eax        # 1a1c8 <g_186+0x28>
   10482:	01 c0                	add    %eax,%eax
   10484:	d0 f8                	sar    %al
   10486:	48 0f be c0          	movsbq %al,%rax
   1048a:	8b 55 fc             	mov    -0x4(%rbp),%edx
   1048d:	48 8d 35 08 54 00 00 	lea    0x5408(%rip),%rsi        # 1589c <g_243+0x844>
   10494:	48 89 c7             	mov    %rax,%rdi
   10497:	e8 57 82 ff ff       	callq  86f3 <transparent_crc>
   1049c:	48 c7 c1 fa ff ff ff 	mov    $0xfffffffffffffffa,%rcx
   104a3:	8b 45 fc             	mov    -0x4(%rbp),%eax
   104a6:	89 c2                	mov    %eax,%edx
   104a8:	48 8d 35 f6 53 00 00 	lea    0x53f6(%rip),%rsi        # 158a5 <g_243+0x84d>
   104af:	48 89 cf             	mov    %rcx,%rdi
   104b2:	e8 3c 82 ff ff       	callq  86f3 <transparent_crc>
   104b7:	0f b7 05 12 9d 00 00 	movzwl 0x9d12(%rip),%eax        # 1a1d0 <g_254>
   104be:	0f b7 c0             	movzwl %ax,%eax
   104c1:	8b 55 fc             	mov    -0x4(%rbp),%edx
   104c4:	48 8d 35 e0 53 00 00 	lea    0x53e0(%rip),%rsi        # 158ab <g_243+0x853>
   104cb:	48 89 c7             	mov    %rax,%rdi
   104ce:	e8 20 82 ff ff       	callq  86f3 <transparent_crc>
   104d3:	48 8b 05 f6 9c 00 00 	mov    0x9cf6(%rip),%rax        # 1a1d0 <g_254>
   104da:	48 c1 e0 1a          	shl    $0x1a,%rax
   104de:	48 c1 f8 2a          	sar    $0x2a,%rax
   104e2:	48 98                	cltq   
   104e4:	8b 55 fc             	mov    -0x4(%rbp),%edx
   104e7:	48 8d 35 c6 53 00 00 	lea    0x53c6(%rip),%rsi        # 158b4 <g_243+0x85c>
   104ee:	48 89 c7             	mov    %rax,%rdi
   104f1:	e8 fd 81 ff ff       	callq  86f3 <transparent_crc>
   104f6:	48 8b 05 d8 9c 00 00 	mov    0x9cd8(%rip),%rax        # 1a1d5 <g_254+0x5>
   104fd:	8b 55 fc             	mov    -0x4(%rbp),%edx
   10500:	48 8d 35 b6 53 00 00 	lea    0x53b6(%rip),%rsi        # 158bd <g_243+0x865>
   10507:	48 89 c7             	mov    %rax,%rdi
   1050a:	e8 e4 81 ff ff       	callq  86f3 <transparent_crc>
   1050f:	0f b7 05 c7 9c 00 00 	movzwl 0x9cc7(%rip),%eax        # 1a1dd <g_254+0xd>
   10516:	48 0f bf c0          	movswq %ax,%rax
   1051a:	8b 55 fc             	mov    -0x4(%rbp),%edx
   1051d:	48 8d 35 a2 53 00 00 	lea    0x53a2(%rip),%rsi        # 158c6 <g_243+0x86e>
   10524:	48 89 c7             	mov    %rax,%rdi
   10527:	e8 c7 81 ff ff       	callq  86f3 <transparent_crc>
   1052c:	48 8b 05 ac 9c 00 00 	mov    0x9cac(%rip),%rax        # 1a1df <g_254+0xf>
   10533:	8b 55 fc             	mov    -0x4(%rbp),%edx
   10536:	48 8d 35 92 53 00 00 	lea    0x5392(%rip),%rsi        # 158cf <g_243+0x877>
   1053d:	48 89 c7             	mov    %rax,%rdi
   10540:	e8 ae 81 ff ff       	callq  86f3 <transparent_crc>
   10545:	8b 05 9c 9c 00 00    	mov    0x9c9c(%rip),%eax        # 1a1e7 <g_254+0x17>
   1054b:	48 98                	cltq   
   1054d:	8b 55 fc             	mov    -0x4(%rbp),%edx
   10550:	48 8d 35 81 53 00 00 	lea    0x5381(%rip),%rsi        # 158d8 <g_243+0x880>
   10557:	48 89 c7             	mov    %rax,%rdi
   1055a:	e8 94 81 ff ff       	callq  86f3 <transparent_crc>
   1055f:	c7 45 f0 00 00 00 00 	movl   $0x0,-0x10(%rbp)
   10566:	e9 b4 02 00 00       	jmpq   1081f <main+0xcdb>
   1056b:	8b 45 f0             	mov    -0x10(%rbp),%eax
   1056e:	48 63 d0             	movslq %eax,%rdx
   10571:	48 89 d0             	mov    %rdx,%rax
   10574:	48 c1 e0 02          	shl    $0x2,%rax
   10578:	48 01 d0             	add    %rdx,%rax
   1057b:	48 01 c0             	add    %rax,%rax
   1057e:	48 01 d0             	add    %rdx,%rax
   10581:	48 c1 e0 02          	shl    $0x2,%rax
   10585:	48 89 c2             	mov    %rax,%rdx
   10588:	48 8d 05 71 9c 00 00 	lea    0x9c71(%rip),%rax        # 1a200 <g_283>
   1058f:	8b 04 02             	mov    (%rdx,%rax,1),%eax
   10592:	c1 e0 05             	shl    $0x5,%eax
   10595:	66 c1 f8 05          	sar    $0x5,%ax
   10599:	48 0f bf c0          	movswq %ax,%rax
   1059d:	8b 55 fc             	mov    -0x4(%rbp),%edx
   105a0:	48 8d 35 3a 53 00 00 	lea    0x533a(%rip),%rsi        # 158e1 <g_243+0x889>
   105a7:	48 89 c7             	mov    %rax,%rdi
   105aa:	e8 44 81 ff ff       	callq  86f3 <transparent_crc>
   105af:	8b 45 f0             	mov    -0x10(%rbp),%eax
   105b2:	48 63 d0             	movslq %eax,%rdx
   105b5:	48 89 d0             	mov    %rdx,%rax
   105b8:	48 c1 e0 02          	shl    $0x2,%rax
   105bc:	48 01 d0             	add    %rdx,%rax
   105bf:	48 01 c0             	add    %rax,%rax
   105c2:	48 01 d0             	add    %rdx,%rax
   105c5:	48 c1 e0 02          	shl    $0x2,%rax
   105c9:	48 89 c2             	mov    %rax,%rdx
   105cc:	48 8d 05 2d 9c 00 00 	lea    0x9c2d(%rip),%rax        # 1a200 <g_283>
   105d3:	8b 44 02 04          	mov    0x4(%rdx,%rax,1),%eax
   105d7:	25 ff ff ff 0f       	and    $0xfffffff,%eax
   105dc:	89 c1                	mov    %eax,%ecx
   105de:	8b 45 fc             	mov    -0x4(%rbp),%eax
   105e1:	89 c2                	mov    %eax,%edx
   105e3:	48 8d 35 03 53 00 00 	lea    0x5303(%rip),%rsi        # 158ed <g_243+0x895>
   105ea:	48 89 cf             	mov    %rcx,%rdi
   105ed:	e8 01 81 ff ff       	callq  86f3 <transparent_crc>
   105f2:	8b 45 f0             	mov    -0x10(%rbp),%eax
   105f5:	48 63 d0             	movslq %eax,%rdx
   105f8:	48 89 d0             	mov    %rdx,%rax
   105fb:	48 c1 e0 02          	shl    $0x2,%rax
   105ff:	48 01 d0             	add    %rdx,%rax
   10602:	48 01 c0             	add    %rax,%rax
   10605:	48 01 d0             	add    %rdx,%rax
   10608:	48 c1 e0 02          	shl    $0x2,%rax
   1060c:	48 89 c2             	mov    %rax,%rdx
   1060f:	48 8d 05 f2 9b 00 00 	lea    0x9bf2(%rip),%rax        # 1a208 <g_283+0x8>
   10616:	0f b7 04 02          	movzwl (%rdx,%rax,1),%eax
   1061a:	0f b7 c0             	movzwl %ax,%eax
   1061d:	8b 55 fc             	mov    -0x4(%rbp),%edx
   10620:	48 8d 35 d2 52 00 00 	lea    0x52d2(%rip),%rsi        # 158f9 <g_243+0x8a1>
   10627:	48 89 c7             	mov    %rax,%rdi
   1062a:	e8 c4 80 ff ff       	callq  86f3 <transparent_crc>
   1062f:	8b 45 f0             	mov    -0x10(%rbp),%eax
   10632:	48 63 d0             	movslq %eax,%rdx
   10635:	48 89 d0             	mov    %rdx,%rax
   10638:	48 c1 e0 02          	shl    $0x2,%rax
   1063c:	48 01 d0             	add    %rdx,%rax
   1063f:	48 01 c0             	add    %rax,%rax
   10642:	48 01 d0             	add    %rdx,%rax
   10645:	48 c1 e0 02          	shl    $0x2,%rax
   10649:	48 89 c2             	mov    %rax,%rdx
   1064c:	48 8d 05 ad 9b 00 00 	lea    0x9bad(%rip),%rax        # 1a200 <g_283>
   10653:	8b 4c 02 08          	mov    0x8(%rdx,%rax,1),%ecx
   10657:	c1 e9 10             	shr    $0x10,%ecx
   1065a:	89 c9                	mov    %ecx,%ecx
   1065c:	8b 44 02 0c          	mov    0xc(%rdx,%rax,1),%eax
   10660:	89 c0                	mov    %eax,%eax
   10662:	83 e0 3f             	and    $0x3f,%eax
   10665:	48 c1 e0 10          	shl    $0x10,%rax
   10669:	48 09 c8             	or     %rcx,%rax
   1066c:	48 c1 e0 2a          	shl    $0x2a,%rax
   10670:	48 c1 f8 2a          	sar    $0x2a,%rax
   10674:	48 98                	cltq   
   10676:	8b 55 fc             	mov    -0x4(%rbp),%edx
   10679:	48 8d 35 88 52 00 00 	lea    0x5288(%rip),%rsi        # 15908 <g_243+0x8b0>
   10680:	48 89 c7             	mov    %rax,%rdi
   10683:	e8 6b 80 ff ff       	callq  86f3 <transparent_crc>
   10688:	8b 45 f0             	mov    -0x10(%rbp),%eax
   1068b:	48 63 d0             	movslq %eax,%rdx
   1068e:	48 89 d0             	mov    %rdx,%rax
   10691:	48 c1 e0 02          	shl    $0x2,%rax
   10695:	48 01 d0             	add    %rdx,%rax
   10698:	48 01 c0             	add    %rax,%rax
   1069b:	48 01 d0             	add    %rdx,%rax
   1069e:	48 c1 e0 02          	shl    $0x2,%rax
   106a2:	48 89 c2             	mov    %rax,%rdx
   106a5:	48 8d 05 54 9b 00 00 	lea    0x9b54(%rip),%rax        # 1a200 <g_283>
   106ac:	48 8b 44 02 0d       	mov    0xd(%rdx,%rax,1),%rax
   106b1:	8b 55 fc             	mov    -0x4(%rbp),%edx
   106b4:	48 8d 35 5c 52 00 00 	lea    0x525c(%rip),%rsi        # 15917 <g_243+0x8bf>
   106bb:	48 89 c7             	mov    %rax,%rdi
   106be:	e8 30 80 ff ff       	callq  86f3 <transparent_crc>
   106c3:	8b 45 f0             	mov    -0x10(%rbp),%eax
   106c6:	48 63 d0             	movslq %eax,%rdx
   106c9:	48 89 d0             	mov    %rdx,%rax
   106cc:	48 c1 e0 02          	shl    $0x2,%rax
   106d0:	48 01 d0             	add    %rdx,%rax
   106d3:	48 01 c0             	add    %rax,%rax
   106d6:	48 01 d0             	add    %rdx,%rax
   106d9:	48 c1 e0 02          	shl    $0x2,%rax
   106dd:	48 89 c2             	mov    %rax,%rdx
   106e0:	48 8d 05 19 9b 00 00 	lea    0x9b19(%rip),%rax        # 1a200 <g_283>
   106e7:	0f b7 44 02 15       	movzwl 0x15(%rdx,%rax,1),%eax
   106ec:	48 0f bf c0          	movswq %ax,%rax
   106f0:	8b 55 fc             	mov    -0x4(%rbp),%edx
   106f3:	48 8d 35 2c 52 00 00 	lea    0x522c(%rip),%rsi        # 15926 <g_243+0x8ce>
   106fa:	48 89 c7             	mov    %rax,%rdi
   106fd:	e8 f1 7f ff ff       	callq  86f3 <transparent_crc>
   10702:	8b 45 f0             	mov    -0x10(%rbp),%eax
   10705:	48 63 d0             	movslq %eax,%rdx
   10708:	48 89 d0             	mov    %rdx,%rax
   1070b:	48 c1 e0 02          	shl    $0x2,%rax
   1070f:	48 01 d0             	add    %rdx,%rax
   10712:	48 01 c0             	add    %rax,%rax
   10715:	48 01 d0             	add    %rdx,%rax
   10718:	48 c1 e0 02          	shl    $0x2,%rax
   1071c:	48 89 c2             	mov    %rax,%rdx
   1071f:	48 8d 05 da 9a 00 00 	lea    0x9ada(%rip),%rax        # 1a200 <g_283>
   10726:	48 8b 44 02 17       	mov    0x17(%rdx,%rax,1),%rax
   1072b:	8b 55 fc             	mov    -0x4(%rbp),%edx
   1072e:	48 8d 35 00 52 00 00 	lea    0x5200(%rip),%rsi        # 15935 <g_243+0x8dd>
   10735:	48 89 c7             	mov    %rax,%rdi
   10738:	e8 b6 7f ff ff       	callq  86f3 <transparent_crc>
   1073d:	8b 45 f0             	mov    -0x10(%rbp),%eax
   10740:	48 63 d0             	movslq %eax,%rdx
   10743:	48 89 d0             	mov    %rdx,%rax
   10746:	48 c1 e0 02          	shl    $0x2,%rax
   1074a:	48 01 d0             	add    %rdx,%rax
   1074d:	48 01 c0             	add    %rax,%rax
   10750:	48 01 d0             	add    %rdx,%rax
   10753:	48 c1 e0 02          	shl    $0x2,%rax
   10757:	48 89 c2             	mov    %rax,%rdx
   1075a:	48 8d 05 af 9a 00 00 	lea    0x9aaf(%rip),%rax        # 1a210 <g_283+0x10>
   10761:	8b 44 02 0f          	mov    0xf(%rdx,%rax,1),%eax
   10765:	48 98                	cltq   
   10767:	8b 55 fc             	mov    -0x4(%rbp),%edx
   1076a:	48 8d 35 d3 51 00 00 	lea    0x51d3(%rip),%rsi        # 15944 <g_243+0x8ec>
   10771:	48 89 c7             	mov    %rax,%rdi
   10774:	e8 7a 7f ff ff       	callq  86f3 <transparent_crc>
   10779:	8b 45 f0             	mov    -0x10(%rbp),%eax
   1077c:	48 63 d0             	movslq %eax,%rdx
   1077f:	48 89 d0             	mov    %rdx,%rax
   10782:	48 c1 e0 02          	shl    $0x2,%rax
   10786:	48 01 d0             	add    %rdx,%rax
   10789:	48 01 c0             	add    %rax,%rax
   1078c:	48 01 d0             	add    %rdx,%rax
   1078f:	48 c1 e0 02          	shl    $0x2,%rax
   10793:	48 89 c2             	mov    %rax,%rdx
   10796:	48 8d 05 83 9a 00 00 	lea    0x9a83(%rip),%rax        # 1a220 <g_283+0x20>
   1079d:	8b 44 02 04          	mov    0x4(%rdx,%rax,1),%eax
   107a1:	25 ff ff ff 7f       	and    $0x7fffffff,%eax
   107a6:	89 c1                	mov    %eax,%ecx
   107a8:	8b 45 fc             	mov    -0x4(%rbp),%eax
   107ab:	89 c2                	mov    %eax,%edx
   107ad:	48 8d 35 9f 51 00 00 	lea    0x519f(%rip),%rsi        # 15953 <g_243+0x8fb>
   107b4:	48 89 cf             	mov    %rcx,%rdi
   107b7:	e8 37 7f ff ff       	callq  86f3 <transparent_crc>
   107bc:	8b 45 f0             	mov    -0x10(%rbp),%eax
   107bf:	48 63 d0             	movslq %eax,%rdx
   107c2:	48 89 d0             	mov    %rdx,%rax
   107c5:	48 c1 e0 02          	shl    $0x2,%rax
   107c9:	48 01 d0             	add    %rdx,%rax
   107cc:	48 01 c0             	add    %rax,%rax
   107cf:	48 01 d0             	add    %rdx,%rax
   107d2:	48 c1 e0 02          	shl    $0x2,%rax
   107d6:	48 89 c2             	mov    %rax,%rdx
   107d9:	48 8d 05 40 9a 00 00 	lea    0x9a40(%rip),%rax        # 1a220 <g_283+0x20>
   107e0:	0f b6 44 02 08       	movzbl 0x8(%rdx,%rax,1),%eax
   107e5:	01 c0                	add    %eax,%eax
   107e7:	d0 f8                	sar    %al
   107e9:	48 0f be c0          	movsbq %al,%rax
   107ed:	8b 55 fc             	mov    -0x4(%rbp),%edx
   107f0:	48 8d 35 68 51 00 00 	lea    0x5168(%rip),%rsi        # 1595f <g_243+0x907>
   107f7:	48 89 c7             	mov    %rax,%rdi
   107fa:	e8 f4 7e ff ff       	callq  86f3 <transparent_crc>
   107ff:	83 7d fc 00          	cmpl   $0x0,-0x4(%rbp)
   10803:	74 16                	je     1081b <main+0xcd7>
   10805:	8b 45 f0             	mov    -0x10(%rbp),%eax
   10808:	89 c6                	mov    %eax,%esi
   1080a:	48 8d 3d 56 4e 00 00 	lea    0x4e56(%rip),%rdi        # 15667 <g_243+0x60f>
   10811:	b8 00 00 00 00       	mov    $0x0,%eax
   10816:	e8 65 68 ff ff       	callq  7080 <printf@plt>
   1081b:	83 45 f0 01          	addl   $0x1,-0x10(%rbp)
   1081f:	83 7d f0 02          	cmpl   $0x2,-0x10(%rbp)
   10823:	0f 8e 42 fd ff ff    	jle    1056b <main+0xa27>
   10829:	c7 45 f0 00 00 00 00 	movl   $0x0,-0x10(%rbp)
   10830:	eb 4b                	jmp    1087d <main+0xd39>
   10832:	8b 45 f0             	mov    -0x10(%rbp),%eax
   10835:	48 98                	cltq   
   10837:	48 8d 14 85 00 00 00 	lea    0x0(,%rax,4),%rdx
   1083e:	00 
   1083f:	48 8d 05 4a 9a 00 00 	lea    0x9a4a(%rip),%rax        # 1a290 <g_294>
   10846:	8b 04 02             	mov    (%rdx,%rax,1),%eax
   10849:	48 98                	cltq   
   1084b:	8b 55 fc             	mov    -0x4(%rbp),%edx
   1084e:	48 8d 35 16 51 00 00 	lea    0x5116(%rip),%rsi        # 1596b <g_243+0x913>
   10855:	48 89 c7             	mov    %rax,%rdi
   10858:	e8 96 7e ff ff       	callq  86f3 <transparent_crc>
   1085d:	83 7d fc 00          	cmpl   $0x0,-0x4(%rbp)
   10861:	74 16                	je     10879 <main+0xd35>
   10863:	8b 45 f0             	mov    -0x10(%rbp),%eax
   10866:	89 c6                	mov    %eax,%esi
   10868:	48 8d 3d f8 4d 00 00 	lea    0x4df8(%rip),%rdi        # 15667 <g_243+0x60f>
   1086f:	b8 00 00 00 00       	mov    $0x0,%eax
   10874:	e8 07 68 ff ff       	callq  7080 <printf@plt>
   10879:	83 45 f0 01          	addl   $0x1,-0x10(%rbp)
   1087d:	83 7d f0 05          	cmpl   $0x5,-0x10(%rbp)
   10881:	7e af                	jle    10832 <main+0xcee>
   10883:	48 8b 05 36 9a 00 00 	mov    0x9a36(%rip),%rax        # 1a2c0 <g_404>
   1088a:	c1 e0 05             	shl    $0x5,%eax
   1088d:	66 c1 f8 05          	sar    $0x5,%ax
   10891:	48 0f bf c0          	movswq %ax,%rax
   10895:	8b 55 fc             	mov    -0x4(%rbp),%edx
   10898:	48 8d 35 d5 50 00 00 	lea    0x50d5(%rip),%rsi        # 15974 <g_243+0x91c>
   1089f:	48 89 c7             	mov    %rax,%rdi
   108a2:	e8 4c 7e ff ff       	callq  86f3 <transparent_crc>
   108a7:	48 8b 05 12 9a 00 00 	mov    0x9a12(%rip),%rax        # 1a2c0 <g_404>
   108ae:	48 c1 e8 20          	shr    $0x20,%rax
   108b2:	25 ff ff ff 0f       	and    $0xfffffff,%eax
   108b7:	89 c1                	mov    %eax,%ecx
   108b9:	8b 45 fc             	mov    -0x4(%rbp),%eax
   108bc:	89 c2                	mov    %eax,%edx
   108be:	48 8d 35 b8 50 00 00 	lea    0x50b8(%rip),%rsi        # 1597d <g_243+0x925>
   108c5:	48 89 cf             	mov    %rcx,%rdi
   108c8:	e8 26 7e ff ff       	callq  86f3 <transparent_crc>
   108cd:	0f b7 05 f4 99 00 00 	movzwl 0x99f4(%rip),%eax        # 1a2c8 <g_404+0x8>
   108d4:	0f b7 c0             	movzwl %ax,%eax
   108d7:	8b 55 fc             	mov    -0x4(%rbp),%edx
   108da:	48 8d 35 a5 50 00 00 	lea    0x50a5(%rip),%rsi        # 15986 <g_243+0x92e>
   108e1:	48 89 c7             	mov    %rax,%rdi
   108e4:	e8 0a 7e ff ff       	callq  86f3 <transparent_crc>
   108e9:	48 8b 05 d8 99 00 00 	mov    0x99d8(%rip),%rax        # 1a2c8 <g_404+0x8>
   108f0:	48 c1 e0 1a          	shl    $0x1a,%rax
   108f4:	48 c1 f8 2a          	sar    $0x2a,%rax
   108f8:	48 98                	cltq   
   108fa:	8b 55 fc             	mov    -0x4(%rbp),%edx
   108fd:	48 8d 35 8e 50 00 00 	lea    0x508e(%rip),%rsi        # 15992 <g_243+0x93a>
   10904:	48 89 c7             	mov    %rax,%rdi
   10907:	e8 e7 7d ff ff       	callq  86f3 <transparent_crc>
   1090c:	48 8b 05 ba 99 00 00 	mov    0x99ba(%rip),%rax        # 1a2cd <g_404+0xd>
   10913:	8b 55 fc             	mov    -0x4(%rbp),%edx
   10916:	48 8d 35 81 50 00 00 	lea    0x5081(%rip),%rsi        # 1599e <g_243+0x946>
   1091d:	48 89 c7             	mov    %rax,%rdi
   10920:	e8 ce 7d ff ff       	callq  86f3 <transparent_crc>
   10925:	0f b7 05 a9 99 00 00 	movzwl 0x99a9(%rip),%eax        # 1a2d5 <g_404+0x15>
   1092c:	48 0f bf c0          	movswq %ax,%rax
   10930:	8b 55 fc             	mov    -0x4(%rbp),%edx
   10933:	48 8d 35 70 50 00 00 	lea    0x5070(%rip),%rsi        # 159aa <g_243+0x952>
   1093a:	48 89 c7             	mov    %rax,%rdi
   1093d:	e8 b1 7d ff ff       	callq  86f3 <transparent_crc>
   10942:	48 8b 05 8e 99 00 00 	mov    0x998e(%rip),%rax        # 1a2d7 <g_404+0x17>
   10949:	8b 55 fc             	mov    -0x4(%rbp),%edx
   1094c:	48 8d 35 63 50 00 00 	lea    0x5063(%rip),%rsi        # 159b6 <g_243+0x95e>
   10953:	48 89 c7             	mov    %rax,%rdi
   10956:	e8 98 7d ff ff       	callq  86f3 <transparent_crc>
   1095b:	8b 05 7e 99 00 00    	mov    0x997e(%rip),%eax        # 1a2df <g_404+0x1f>
   10961:	48 98                	cltq   
   10963:	8b 55 fc             	mov    -0x4(%rbp),%edx
   10966:	48 8d 35 55 50 00 00 	lea    0x5055(%rip),%rsi        # 159c2 <g_243+0x96a>
   1096d:	48 89 c7             	mov    %rax,%rdi
   10970:	e8 7e 7d ff ff       	callq  86f3 <transparent_crc>
   10975:	48 8b 05 64 99 00 00 	mov    0x9964(%rip),%rax        # 1a2e0 <g_404+0x20>
   1097c:	48 c1 e8 20          	shr    $0x20,%rax
   10980:	25 ff ff ff 7f       	and    $0x7fffffff,%eax
   10985:	89 c1                	mov    %eax,%ecx
   10987:	8b 45 fc             	mov    -0x4(%rbp),%eax
   1098a:	89 c2                	mov    %eax,%edx
   1098c:	48 8d 35 3b 50 00 00 	lea    0x503b(%rip),%rsi        # 159ce <g_243+0x976>
   10993:	48 89 cf             	mov    %rcx,%rdi
   10996:	e8 58 7d ff ff       	callq  86f3 <transparent_crc>
   1099b:	48 8b 05 46 99 00 00 	mov    0x9946(%rip),%rax        # 1a2e8 <g_404+0x28>
   109a2:	01 c0                	add    %eax,%eax
   109a4:	d0 f8                	sar    %al
   109a6:	48 0f be c0          	movsbq %al,%rax
   109aa:	8b 55 fc             	mov    -0x4(%rbp),%edx
   109ad:	48 8d 35 23 50 00 00 	lea    0x5023(%rip),%rsi        # 159d7 <g_243+0x97f>
   109b4:	48 89 c7             	mov    %rax,%rdi
   109b7:	e8 37 7d ff ff       	callq  86f3 <transparent_crc>
   109bc:	8b 05 2a 99 00 00    	mov    0x992a(%rip),%eax        # 1a2ec <g_405>
   109c2:	89 c1                	mov    %eax,%ecx
   109c4:	8b 45 fc             	mov    -0x4(%rbp),%eax
   109c7:	89 c2                	mov    %eax,%edx
   109c9:	48 8d 35 10 50 00 00 	lea    0x5010(%rip),%rsi        # 159e0 <g_243+0x988>
   109d0:	48 89 cf             	mov    %rcx,%rdi
   109d3:	e8 1b 7d ff ff       	callq  86f3 <transparent_crc>
   109d8:	8b 05 12 99 00 00    	mov    0x9912(%rip),%eax        # 1a2f0 <g_464>
   109de:	89 c1                	mov    %eax,%ecx
   109e0:	8b 45 fc             	mov    -0x4(%rbp),%eax
   109e3:	89 c2                	mov    %eax,%edx
   109e5:	48 8d 35 fa 4f 00 00 	lea    0x4ffa(%rip),%rsi        # 159e6 <g_243+0x98e>
   109ec:	48 89 cf             	mov    %rcx,%rdi
   109ef:	e8 ff 7c ff ff       	callq  86f3 <transparent_crc>
   109f4:	0f b7 05 f9 98 00 00 	movzwl 0x98f9(%rip),%eax        # 1a2f4 <g_486>
   109fb:	48 0f bf c0          	movswq %ax,%rax
   109ff:	8b 55 fc             	mov    -0x4(%rbp),%edx
   10a02:	48 8d 35 e3 4f 00 00 	lea    0x4fe3(%rip),%rsi        # 159ec <g_243+0x994>
   10a09:	48 89 c7             	mov    %rax,%rdi
   10a0c:	e8 e2 7c ff ff       	callq  86f3 <transparent_crc>
   10a11:	48 8b 05 e8 98 00 00 	mov    0x98e8(%rip),%rax        # 1a300 <g_524>
   10a18:	c1 e0 05             	shl    $0x5,%eax
   10a1b:	66 c1 f8 05          	sar    $0x5,%ax
   10a1f:	48 0f bf c0          	movswq %ax,%rax
   10a23:	8b 55 fc             	mov    -0x4(%rbp),%edx
   10a26:	48 8d 35 c5 4f 00 00 	lea    0x4fc5(%rip),%rsi        # 159f2 <g_243+0x99a>
   10a2d:	48 89 c7             	mov    %rax,%rdi
   10a30:	e8 be 7c ff ff       	callq  86f3 <transparent_crc>
   10a35:	48 8b 05 c4 98 00 00 	mov    0x98c4(%rip),%rax        # 1a300 <g_524>
   10a3c:	48 c1 e8 20          	shr    $0x20,%rax
   10a40:	25 ff ff ff 0f       	and    $0xfffffff,%eax
   10a45:	89 c1                	mov    %eax,%ecx
   10a47:	8b 45 fc             	mov    -0x4(%rbp),%eax
   10a4a:	89 c2                	mov    %eax,%edx
   10a4c:	48 8d 35 a8 4f 00 00 	lea    0x4fa8(%rip),%rsi        # 159fb <g_243+0x9a3>
   10a53:	48 89 cf             	mov    %rcx,%rdi
   10a56:	e8 98 7c ff ff       	callq  86f3 <transparent_crc>
   10a5b:	0f b7 05 a6 98 00 00 	movzwl 0x98a6(%rip),%eax        # 1a308 <g_524+0x8>
   10a62:	0f b7 c0             	movzwl %ax,%eax
   10a65:	8b 55 fc             	mov    -0x4(%rbp),%edx
   10a68:	48 8d 35 95 4f 00 00 	lea    0x4f95(%rip),%rsi        # 15a04 <g_243+0x9ac>
   10a6f:	48 89 c7             	mov    %rax,%rdi
   10a72:	e8 7c 7c ff ff       	callq  86f3 <transparent_crc>
   10a77:	48 8b 05 8a 98 00 00 	mov    0x988a(%rip),%rax        # 1a308 <g_524+0x8>
   10a7e:	48 c1 e0 1a          	shl    $0x1a,%rax
   10a82:	48 c1 f8 2a          	sar    $0x2a,%rax
   10a86:	48 98                	cltq   
   10a88:	8b 55 fc             	mov    -0x4(%rbp),%edx
   10a8b:	48 8d 35 7e 4f 00 00 	lea    0x4f7e(%rip),%rsi        # 15a10 <g_243+0x9b8>
   10a92:	48 89 c7             	mov    %rax,%rdi
   10a95:	e8 59 7c ff ff       	callq  86f3 <transparent_crc>
   10a9a:	48 8b 05 6c 98 00 00 	mov    0x986c(%rip),%rax        # 1a30d <g_524+0xd>
   10aa1:	8b 55 fc             	mov    -0x4(%rbp),%edx
   10aa4:	48 8d 35 71 4f 00 00 	lea    0x4f71(%rip),%rsi        # 15a1c <g_243+0x9c4>
   10aab:	48 89 c7             	mov    %rax,%rdi
   10aae:	e8 40 7c ff ff       	callq  86f3 <transparent_crc>
   10ab3:	0f b7 05 5b 98 00 00 	movzwl 0x985b(%rip),%eax        # 1a315 <g_524+0x15>
   10aba:	48 0f bf c0          	movswq %ax,%rax
   10abe:	8b 55 fc             	mov    -0x4(%rbp),%edx
   10ac1:	48 8d 35 60 4f 00 00 	lea    0x4f60(%rip),%rsi        # 15a28 <g_243+0x9d0>
   10ac8:	48 89 c7             	mov    %rax,%rdi
   10acb:	e8 23 7c ff ff       	callq  86f3 <transparent_crc>
   10ad0:	48 8b 05 40 98 00 00 	mov    0x9840(%rip),%rax        # 1a317 <g_524+0x17>
   10ad7:	8b 55 fc             	mov    -0x4(%rbp),%edx
   10ada:	48 8d 35 53 4f 00 00 	lea    0x4f53(%rip),%rsi        # 15a34 <g_243+0x9dc>
   10ae1:	48 89 c7             	mov    %rax,%rdi
   10ae4:	e8 0a 7c ff ff       	callq  86f3 <transparent_crc>
   10ae9:	8b 05 30 98 00 00    	mov    0x9830(%rip),%eax        # 1a31f <g_524+0x1f>
   10aef:	48 98                	cltq   
   10af1:	8b 55 fc             	mov    -0x4(%rbp),%edx
   10af4:	48 8d 35 45 4f 00 00 	lea    0x4f45(%rip),%rsi        # 15a40 <g_243+0x9e8>
   10afb:	48 89 c7             	mov    %rax,%rdi
   10afe:	e8 f0 7b ff ff       	callq  86f3 <transparent_crc>
   10b03:	48 8b 05 16 98 00 00 	mov    0x9816(%rip),%rax        # 1a320 <g_524+0x20>
   10b0a:	48 c1 e8 20          	shr    $0x20,%rax
   10b0e:	25 ff ff ff 7f       	and    $0x7fffffff,%eax
   10b13:	89 c1                	mov    %eax,%ecx
   10b15:	8b 45 fc             	mov    -0x4(%rbp),%eax
   10b18:	89 c2                	mov    %eax,%edx
   10b1a:	48 8d 35 2b 4f 00 00 	lea    0x4f2b(%rip),%rsi        # 15a4c <g_243+0x9f4>
   10b21:	48 89 cf             	mov    %rcx,%rdi
   10b24:	e8 ca 7b ff ff       	callq  86f3 <transparent_crc>
   10b29:	48 8b 05 f8 97 00 00 	mov    0x97f8(%rip),%rax        # 1a328 <g_524+0x28>
   10b30:	01 c0                	add    %eax,%eax
   10b32:	d0 f8                	sar    %al
   10b34:	48 0f be c0          	movsbq %al,%rax
   10b38:	8b 55 fc             	mov    -0x4(%rbp),%edx
   10b3b:	48 8d 35 13 4f 00 00 	lea    0x4f13(%rip),%rsi        # 15a55 <g_243+0x9fd>
   10b42:	48 89 c7             	mov    %rax,%rdi
   10b45:	e8 a9 7b ff ff       	callq  86f3 <transparent_crc>
   10b4a:	8b 05 f0 97 00 00    	mov    0x97f0(%rip),%eax        # 1a340 <g_546>
   10b50:	c1 e0 05             	shl    $0x5,%eax
   10b53:	c1 f8 05             	sar    $0x5,%eax
   10b56:	48 98                	cltq   
   10b58:	8b 55 fc             	mov    -0x4(%rbp),%edx
   10b5b:	48 8d 35 fc 4e 00 00 	lea    0x4efc(%rip),%rsi        # 15a5e <g_243+0xa06>
   10b62:	48 89 c7             	mov    %rax,%rdi
   10b65:	e8 89 7b ff ff       	callq  86f3 <transparent_crc>
   10b6a:	0f b6 05 d2 97 00 00 	movzbl 0x97d2(%rip),%eax        # 1a343 <g_546+0x3>
   10b71:	c1 e0 03             	shl    $0x3,%eax
   10b74:	c0 f8 06             	sar    $0x6,%al
   10b77:	48 0f be c0          	movsbq %al,%rax
   10b7b:	8b 55 fc             	mov    -0x4(%rbp),%edx
   10b7e:	48 8d 35 e2 4e 00 00 	lea    0x4ee2(%rip),%rsi        # 15a67 <g_243+0xa0f>
   10b85:	48 89 c7             	mov    %rax,%rdi
   10b88:	e8 66 7b ff ff       	callq  86f3 <transparent_crc>
   10b8d:	48 8b 05 ac 97 00 00 	mov    0x97ac(%rip),%rax        # 1a340 <g_546>
   10b94:	48 c1 e8 20          	shr    $0x20,%rax
   10b98:	25 ff ff ff 1f       	and    $0x1fffffff,%eax
   10b9d:	89 c1                	mov    %eax,%ecx
   10b9f:	8b 45 fc             	mov    -0x4(%rbp),%eax
   10ba2:	89 c2                	mov    %eax,%edx
   10ba4:	48 8d 35 c5 4e 00 00 	lea    0x4ec5(%rip),%rsi        # 15a70 <g_243+0xa18>
   10bab:	48 89 cf             	mov    %rcx,%rdi
   10bae:	e8 40 7b ff ff       	callq  86f3 <transparent_crc>
   10bb3:	48 8b 05 8e 97 00 00 	mov    0x978e(%rip),%rax        # 1a348 <g_546+0x8>
   10bba:	c1 e0 07             	shl    $0x7,%eax
   10bbd:	c1 f8 07             	sar    $0x7,%eax
   10bc0:	48 98                	cltq   
   10bc2:	8b 55 fc             	mov    -0x4(%rbp),%edx
   10bc5:	48 8d 35 ad 4e 00 00 	lea    0x4ead(%rip),%rsi        # 15a79 <g_243+0xa21>
   10bcc:	48 89 c7             	mov    %rax,%rdi
   10bcf:	e8 1f 7b ff ff       	callq  86f3 <transparent_crc>
   10bd4:	8b 05 72 97 00 00    	mov    0x9772(%rip),%eax        # 1a34c <g_546+0xc>
   10bda:	c1 e0 0d             	shl    $0xd,%eax
   10bdd:	c1 f8 0d             	sar    $0xd,%eax
   10be0:	48 98                	cltq   
   10be2:	8b 55 fc             	mov    -0x4(%rbp),%edx
   10be5:	48 8d 35 96 4e 00 00 	lea    0x4e96(%rip),%rsi        # 15a82 <g_243+0xa2a>
   10bec:	48 89 c7             	mov    %rax,%rdi
   10bef:	e8 ff 7a ff ff       	callq  86f3 <transparent_crc>
   10bf4:	8b 05 56 97 00 00    	mov    0x9756(%rip),%eax        # 1a350 <g_546+0x10>
   10bfa:	25 ff ff 3f 00       	and    $0x3fffff,%eax
   10bff:	89 c1                	mov    %eax,%ecx
   10c01:	8b 45 fc             	mov    -0x4(%rbp),%eax
   10c04:	89 c2                	mov    %eax,%edx
   10c06:	48 8d 35 7e 4e 00 00 	lea    0x4e7e(%rip),%rsi        # 15a8b <g_243+0xa33>
   10c0d:	48 89 cf             	mov    %rcx,%rdi
   10c10:	e8 de 7a ff ff       	callq  86f3 <transparent_crc>
   10c15:	48 8b 05 3c 97 00 00 	mov    0x973c(%rip),%rax        # 1a358 <g_546+0x18>
   10c1c:	8b 55 fc             	mov    -0x4(%rbp),%edx
   10c1f:	48 8d 35 6e 4e 00 00 	lea    0x4e6e(%rip),%rsi        # 15a94 <g_243+0xa3c>
   10c26:	48 89 c7             	mov    %rax,%rdi
   10c29:	e8 c5 7a ff ff       	callq  86f3 <transparent_crc>
   10c2e:	0f b7 05 2b 97 00 00 	movzwl 0x972b(%rip),%eax        # 1a360 <g_546+0x20>
   10c35:	c1 e0 06             	shl    $0x6,%eax
   10c38:	66 c1 f8 06          	sar    $0x6,%ax
   10c3c:	48 0f bf c0          	movswq %ax,%rax
   10c40:	8b 55 fc             	mov    -0x4(%rbp),%edx
   10c43:	48 8d 35 53 4e 00 00 	lea    0x4e53(%rip),%rsi        # 15a9d <g_243+0xa45>
   10c4a:	48 89 c7             	mov    %rax,%rdi
   10c4d:	e8 a1 7a ff ff       	callq  86f3 <transparent_crc>
   10c52:	8b 05 0c 97 00 00    	mov    0x970c(%rip),%eax        # 1a364 <g_546+0x24>
   10c58:	89 c1                	mov    %eax,%ecx
   10c5a:	8b 45 fc             	mov    -0x4(%rbp),%eax
   10c5d:	89 c2                	mov    %eax,%edx
   10c5f:	48 8d 35 40 4e 00 00 	lea    0x4e40(%rip),%rsi        # 15aa6 <g_243+0xa4e>
   10c66:	48 89 cf             	mov    %rcx,%rdi
   10c69:	e8 85 7a ff ff       	callq  86f3 <transparent_crc>
   10c6e:	48 8b 05 f3 96 00 00 	mov    0x96f3(%rip),%rax        # 1a368 <g_546+0x28>
   10c75:	c1 e0 02             	shl    $0x2,%eax
   10c78:	c1 f8 02             	sar    $0x2,%eax
   10c7b:	48 98                	cltq   
   10c7d:	8b 55 fc             	mov    -0x4(%rbp),%edx
   10c80:	48 8d 35 28 4e 00 00 	lea    0x4e28(%rip),%rsi        # 15aaf <g_243+0xa57>
   10c87:	48 89 c7             	mov    %rax,%rdi
   10c8a:	e8 64 7a ff ff       	callq  86f3 <transparent_crc>
   10c8f:	0f b7 05 da 96 00 00 	movzwl 0x96da(%rip),%eax        # 1a370 <g_587>
   10c96:	0f b7 c0             	movzwl %ax,%eax
   10c99:	8b 55 fc             	mov    -0x4(%rbp),%edx
   10c9c:	48 8d 35 15 4e 00 00 	lea    0x4e15(%rip),%rsi        # 15ab8 <g_243+0xa60>
   10ca3:	48 89 c7             	mov    %rax,%rdi
   10ca6:	e8 48 7a ff ff       	callq  86f3 <transparent_crc>
   10cab:	48 8b 05 ce 96 00 00 	mov    0x96ce(%rip),%rax        # 1a380 <g_601>
   10cb2:	c1 e0 05             	shl    $0x5,%eax
   10cb5:	66 c1 f8 05          	sar    $0x5,%ax
   10cb9:	48 0f bf c0          	movswq %ax,%rax
   10cbd:	8b 55 fc             	mov    -0x4(%rbp),%edx
   10cc0:	48 8d 35 f7 4d 00 00 	lea    0x4df7(%rip),%rsi        # 15abe <g_243+0xa66>
   10cc7:	48 89 c7             	mov    %rax,%rdi
   10cca:	e8 24 7a ff ff       	callq  86f3 <transparent_crc>
   10ccf:	8b 05 af 96 00 00    	mov    0x96af(%rip),%eax        # 1a384 <g_601+0x4>
   10cd5:	25 ff ff ff 0f       	and    $0xfffffff,%eax
   10cda:	89 c1                	mov    %eax,%ecx
   10cdc:	8b 45 fc             	mov    -0x4(%rbp),%eax
   10cdf:	89 c2                	mov    %eax,%edx
   10ce1:	48 8d 35 df 4d 00 00 	lea    0x4ddf(%rip),%rsi        # 15ac7 <g_243+0xa6f>
   10ce8:	48 89 cf             	mov    %rcx,%rdi
   10ceb:	e8 03 7a ff ff       	callq  86f3 <transparent_crc>
   10cf0:	0f b7 05 91 96 00 00 	movzwl 0x9691(%rip),%eax        # 1a388 <g_601+0x8>
   10cf7:	0f b7 c0             	movzwl %ax,%eax
   10cfa:	8b 55 fc             	mov    -0x4(%rbp),%edx
   10cfd:	48 8d 35 cc 4d 00 00 	lea    0x4dcc(%rip),%rsi        # 15ad0 <g_243+0xa78>
   10d04:	48 89 c7             	mov    %rax,%rdi
   10d07:	e8 e7 79 ff ff       	callq  86f3 <transparent_crc>
   10d0c:	48 8b 05 75 96 00 00 	mov    0x9675(%rip),%rax        # 1a388 <g_601+0x8>
   10d13:	48 c1 e0 1a          	shl    $0x1a,%rax
   10d17:	48 c1 f8 2a          	sar    $0x2a,%rax
   10d1b:	48 98                	cltq   
   10d1d:	8b 55 fc             	mov    -0x4(%rbp),%edx
   10d20:	48 8d 35 b5 4d 00 00 	lea    0x4db5(%rip),%rsi        # 15adc <g_243+0xa84>
   10d27:	48 89 c7             	mov    %rax,%rdi
   10d2a:	e8 c4 79 ff ff       	callq  86f3 <transparent_crc>
   10d2f:	48 8b 05 57 96 00 00 	mov    0x9657(%rip),%rax        # 1a38d <g_601+0xd>
   10d36:	8b 55 fc             	mov    -0x4(%rbp),%edx
   10d39:	48 8d 35 a8 4d 00 00 	lea    0x4da8(%rip),%rsi        # 15ae8 <g_243+0xa90>
   10d40:	48 89 c7             	mov    %rax,%rdi
   10d43:	e8 ab 79 ff ff       	callq  86f3 <transparent_crc>
   10d48:	0f b7 05 46 96 00 00 	movzwl 0x9646(%rip),%eax        # 1a395 <g_601+0x15>
   10d4f:	48 0f bf c0          	movswq %ax,%rax
   10d53:	8b 55 fc             	mov    -0x4(%rbp),%edx
   10d56:	48 8d 35 97 4d 00 00 	lea    0x4d97(%rip),%rsi        # 15af4 <g_243+0xa9c>
   10d5d:	48 89 c7             	mov    %rax,%rdi
   10d60:	e8 8e 79 ff ff       	callq  86f3 <transparent_crc>
   10d65:	48 8b 05 2b 96 00 00 	mov    0x962b(%rip),%rax        # 1a397 <g_601+0x17>
   10d6c:	8b 55 fc             	mov    -0x4(%rbp),%edx
   10d6f:	48 8d 35 8a 4d 00 00 	lea    0x4d8a(%rip),%rsi        # 15b00 <g_243+0xaa8>
   10d76:	48 89 c7             	mov    %rax,%rdi
   10d79:	e8 75 79 ff ff       	callq  86f3 <transparent_crc>
   10d7e:	8b 05 1b 96 00 00    	mov    0x961b(%rip),%eax        # 1a39f <g_601+0x1f>
   10d84:	48 98                	cltq   
   10d86:	8b 55 fc             	mov    -0x4(%rbp),%edx
   10d89:	48 8d 35 7c 4d 00 00 	lea    0x4d7c(%rip),%rsi        # 15b0c <g_243+0xab4>
   10d90:	48 89 c7             	mov    %rax,%rdi
   10d93:	e8 5b 79 ff ff       	callq  86f3 <transparent_crc>
   10d98:	8b 05 06 96 00 00    	mov    0x9606(%rip),%eax        # 1a3a4 <g_601+0x24>
   10d9e:	25 ff ff ff 7f       	and    $0x7fffffff,%eax
   10da3:	89 c1                	mov    %eax,%ecx
   10da5:	8b 45 fc             	mov    -0x4(%rbp),%eax
   10da8:	89 c2                	mov    %eax,%edx
   10daa:	48 8d 35 67 4d 00 00 	lea    0x4d67(%rip),%rsi        # 15b18 <g_243+0xac0>
   10db1:	48 89 cf             	mov    %rcx,%rdi
   10db4:	e8 3a 79 ff ff       	callq  86f3 <transparent_crc>
   10db9:	0f b6 05 e8 95 00 00 	movzbl 0x95e8(%rip),%eax        # 1a3a8 <g_601+0x28>
   10dc0:	01 c0                	add    %eax,%eax
   10dc2:	d0 f8                	sar    %al
   10dc4:	48 0f be c0          	movsbq %al,%rax
   10dc8:	8b 55 fc             	mov    -0x4(%rbp),%edx
   10dcb:	48 8d 35 4f 4d 00 00 	lea    0x4d4f(%rip),%rsi        # 15b21 <g_243+0xac9>
   10dd2:	48 89 c7             	mov    %rax,%rdi
   10dd5:	e8 19 79 ff ff       	callq  86f3 <transparent_crc>
   10dda:	0f b7 05 cb 95 00 00 	movzwl 0x95cb(%rip),%eax        # 1a3ac <g_647>
   10de1:	0f b7 c0             	movzwl %ax,%eax
   10de4:	8b 55 fc             	mov    -0x4(%rbp),%edx
   10de7:	48 8d 35 3c 4d 00 00 	lea    0x4d3c(%rip),%rsi        # 15b2a <g_243+0xad2>
   10dee:	48 89 c7             	mov    %rax,%rdi
   10df1:	e8 fd 78 ff ff       	callq  86f3 <transparent_crc>
   10df6:	0f b7 05 b1 95 00 00 	movzwl 0x95b1(%rip),%eax        # 1a3ae <g_770>
   10dfd:	48 0f bf c0          	movswq %ax,%rax
   10e01:	8b 55 fc             	mov    -0x4(%rbp),%edx
   10e04:	48 8d 35 25 4d 00 00 	lea    0x4d25(%rip),%rsi        # 15b30 <g_243+0xad8>
   10e0b:	48 89 c7             	mov    %rax,%rdi
   10e0e:	e8 e0 78 ff ff       	callq  86f3 <transparent_crc>
   10e13:	48 8b 05 a6 95 00 00 	mov    0x95a6(%rip),%rax        # 1a3c0 <g_828>
   10e1a:	c1 e0 05             	shl    $0x5,%eax
   10e1d:	66 c1 f8 05          	sar    $0x5,%ax
   10e21:	48 0f bf c0          	movswq %ax,%rax
   10e25:	8b 55 fc             	mov    -0x4(%rbp),%edx
   10e28:	48 8d 35 07 4d 00 00 	lea    0x4d07(%rip),%rsi        # 15b36 <g_243+0xade>
   10e2f:	48 89 c7             	mov    %rax,%rdi
   10e32:	e8 bc 78 ff ff       	callq  86f3 <transparent_crc>
   10e37:	8b 05 87 95 00 00    	mov    0x9587(%rip),%eax        # 1a3c4 <g_828+0x4>
   10e3d:	25 ff ff ff 0f       	and    $0xfffffff,%eax
   10e42:	89 c1                	mov    %eax,%ecx
   10e44:	8b 45 fc             	mov    -0x4(%rbp),%eax
   10e47:	89 c2                	mov    %eax,%edx
   10e49:	48 8d 35 ef 4c 00 00 	lea    0x4cef(%rip),%rsi        # 15b3f <g_243+0xae7>
   10e50:	48 89 cf             	mov    %rcx,%rdi
   10e53:	e8 9b 78 ff ff       	callq  86f3 <transparent_crc>
   10e58:	0f b7 05 69 95 00 00 	movzwl 0x9569(%rip),%eax        # 1a3c8 <g_828+0x8>
   10e5f:	0f b7 c0             	movzwl %ax,%eax
   10e62:	8b 55 fc             	mov    -0x4(%rbp),%edx
   10e65:	48 8d 35 dc 4c 00 00 	lea    0x4cdc(%rip),%rsi        # 15b48 <g_243+0xaf0>
   10e6c:	48 89 c7             	mov    %rax,%rdi
   10e6f:	e8 7f 78 ff ff       	callq  86f3 <transparent_crc>
   10e74:	48 8b 05 4d 95 00 00 	mov    0x954d(%rip),%rax        # 1a3c8 <g_828+0x8>
   10e7b:	48 c1 e0 1a          	shl    $0x1a,%rax
   10e7f:	48 c1 f8 2a          	sar    $0x2a,%rax
   10e83:	48 98                	cltq   
   10e85:	8b 55 fc             	mov    -0x4(%rbp),%edx
   10e88:	48 8d 35 c5 4c 00 00 	lea    0x4cc5(%rip),%rsi        # 15b54 <g_243+0xafc>
   10e8f:	48 89 c7             	mov    %rax,%rdi
   10e92:	e8 5c 78 ff ff       	callq  86f3 <transparent_crc>
   10e97:	48 8b 05 2f 95 00 00 	mov    0x952f(%rip),%rax        # 1a3cd <g_828+0xd>
   10e9e:	8b 55 fc             	mov    -0x4(%rbp),%edx
   10ea1:	48 8d 35 b8 4c 00 00 	lea    0x4cb8(%rip),%rsi        # 15b60 <g_243+0xb08>
   10ea8:	48 89 c7             	mov    %rax,%rdi
   10eab:	e8 43 78 ff ff       	callq  86f3 <transparent_crc>
   10eb0:	0f b7 05 1e 95 00 00 	movzwl 0x951e(%rip),%eax        # 1a3d5 <g_828+0x15>
   10eb7:	48 0f bf c0          	movswq %ax,%rax
   10ebb:	8b 55 fc             	mov    -0x4(%rbp),%edx
   10ebe:	48 8d 35 a7 4c 00 00 	lea    0x4ca7(%rip),%rsi        # 15b6c <g_243+0xb14>
   10ec5:	48 89 c7             	mov    %rax,%rdi
   10ec8:	e8 26 78 ff ff       	callq  86f3 <transparent_crc>
   10ecd:	48 8b 05 03 95 00 00 	mov    0x9503(%rip),%rax        # 1a3d7 <g_828+0x17>
   10ed4:	8b 55 fc             	mov    -0x4(%rbp),%edx
   10ed7:	48 8d 35 9a 4c 00 00 	lea    0x4c9a(%rip),%rsi        # 15b78 <g_243+0xb20>
   10ede:	48 89 c7             	mov    %rax,%rdi
   10ee1:	e8 0d 78 ff ff       	callq  86f3 <transparent_crc>
   10ee6:	8b 05 f3 94 00 00    	mov    0x94f3(%rip),%eax        # 1a3df <g_828+0x1f>
   10eec:	48 98                	cltq   
   10eee:	8b 55 fc             	mov    -0x4(%rbp),%edx
   10ef1:	48 8d 35 8c 4c 00 00 	lea    0x4c8c(%rip),%rsi        # 15b84 <g_243+0xb2c>
   10ef8:	48 89 c7             	mov    %rax,%rdi
   10efb:	e8 f3 77 ff ff       	callq  86f3 <transparent_crc>
   10f00:	8b 05 de 94 00 00    	mov    0x94de(%rip),%eax        # 1a3e4 <g_828+0x24>
   10f06:	25 ff ff ff 7f       	and    $0x7fffffff,%eax
   10f0b:	89 c1                	mov    %eax,%ecx
   10f0d:	8b 45 fc             	mov    -0x4(%rbp),%eax
   10f10:	89 c2                	mov    %eax,%edx
   10f12:	48 8d 35 77 4c 00 00 	lea    0x4c77(%rip),%rsi        # 15b90 <g_243+0xb38>
   10f19:	48 89 cf             	mov    %rcx,%rdi
   10f1c:	e8 d2 77 ff ff       	callq  86f3 <transparent_crc>
   10f21:	0f b6 05 c0 94 00 00 	movzbl 0x94c0(%rip),%eax        # 1a3e8 <g_828+0x28>
   10f28:	01 c0                	add    %eax,%eax
   10f2a:	d0 f8                	sar    %al
   10f2c:	48 0f be c0          	movsbq %al,%rax
   10f30:	8b 55 fc             	mov    -0x4(%rbp),%edx
   10f33:	48 8d 35 5f 4c 00 00 	lea    0x4c5f(%rip),%rsi        # 15b99 <g_243+0xb41>
   10f3a:	48 89 c7             	mov    %rax,%rdi
   10f3d:	e8 b1 77 ff ff       	callq  86f3 <transparent_crc>
   10f42:	c7 45 f0 00 00 00 00 	movl   $0x0,-0x10(%rbp)
   10f49:	e9 15 05 00 00       	jmpq   11463 <main+0x191f>
   10f4e:	c7 45 f4 00 00 00 00 	movl   $0x0,-0xc(%rbp)
   10f55:	e9 fb 04 00 00       	jmpq   11455 <main+0x1911>
   10f5a:	c7 45 f8 00 00 00 00 	movl   $0x0,-0x8(%rbp)
   10f61:	e9 e1 04 00 00       	jmpq   11447 <main+0x1903>
   10f66:	8b 45 f8             	mov    -0x8(%rbp),%eax
   10f69:	48 98                	cltq   
   10f6b:	8b 55 f4             	mov    -0xc(%rbp),%edx
   10f6e:	48 63 ca             	movslq %edx,%rcx
   10f71:	8b 55 f0             	mov    -0x10(%rbp),%edx
   10f74:	48 63 f2             	movslq %edx,%rsi
   10f77:	48 89 c2             	mov    %rax,%rdx
   10f7a:	48 c1 e2 02          	shl    $0x2,%rdx
   10f7e:	48 01 c2             	add    %rax,%rdx
   10f81:	48 01 d2             	add    %rdx,%rdx
   10f84:	48 01 c2             	add    %rax,%rdx
   10f87:	48 8d 04 95 00 00 00 	lea    0x0(,%rdx,4),%rax
   10f8e:	00 
   10f8f:	48 89 c2             	mov    %rax,%rdx
   10f92:	48 89 c8             	mov    %rcx,%rax
   10f95:	48 c1 e0 02          	shl    $0x2,%rax
   10f99:	48 01 c8             	add    %rcx,%rax
   10f9c:	48 01 c0             	add    %rax,%rax
   10f9f:	48 01 c8             	add    %rcx,%rax
   10fa2:	48 c1 e0 05          	shl    $0x5,%rax
   10fa6:	48 01 c2             	add    %rax,%rdx
   10fa9:	48 89 f0             	mov    %rsi,%rax
   10fac:	48 c1 e0 05          	shl    $0x5,%rax
   10fb0:	48 01 f0             	add    %rsi,%rax
   10fb3:	48 c1 e0 05          	shl    $0x5,%rax
   10fb7:	48 01 c2             	add    %rax,%rdx
   10fba:	48 8d 05 3f 94 00 00 	lea    0x943f(%rip),%rax        # 1a400 <g_889>
   10fc1:	48 01 d0             	add    %rdx,%rax
   10fc4:	8b 00                	mov    (%rax),%eax
   10fc6:	c1 e0 05             	shl    $0x5,%eax
   10fc9:	66 c1 f8 05          	sar    $0x5,%ax
   10fcd:	48 0f bf c0          	movswq %ax,%rax
   10fd1:	8b 55 fc             	mov    -0x4(%rbp),%edx
   10fd4:	48 8d 35 c7 4b 00 00 	lea    0x4bc7(%rip),%rsi        # 15ba2 <g_243+0xb4a>
   10fdb:	48 89 c7             	mov    %rax,%rdi
   10fde:	e8 10 77 ff ff       	callq  86f3 <transparent_crc>
   10fe3:	8b 45 f8             	mov    -0x8(%rbp),%eax
   10fe6:	48 98                	cltq   
   10fe8:	8b 55 f4             	mov    -0xc(%rbp),%edx
   10feb:	48 63 ca             	movslq %edx,%rcx
   10fee:	8b 55 f0             	mov    -0x10(%rbp),%edx
   10ff1:	48 63 f2             	movslq %edx,%rsi
   10ff4:	48 89 c2             	mov    %rax,%rdx
   10ff7:	48 c1 e2 02          	shl    $0x2,%rdx
   10ffb:	48 01 c2             	add    %rax,%rdx
   10ffe:	48 01 d2             	add    %rdx,%rdx
   11001:	48 01 c2             	add    %rax,%rdx
   11004:	48 8d 04 95 00 00 00 	lea    0x0(,%rdx,4),%rax
   1100b:	00 
   1100c:	48 89 c2             	mov    %rax,%rdx
   1100f:	48 89 c8             	mov    %rcx,%rax
   11012:	48 c1 e0 02          	shl    $0x2,%rax
   11016:	48 01 c8             	add    %rcx,%rax
   11019:	48 01 c0             	add    %rax,%rax
   1101c:	48 01 c8             	add    %rcx,%rax
   1101f:	48 c1 e0 05          	shl    $0x5,%rax
   11023:	48 01 c2             	add    %rax,%rdx
   11026:	48 89 f0             	mov    %rsi,%rax
   11029:	48 c1 e0 05          	shl    $0x5,%rax
   1102d:	48 01 f0             	add    %rsi,%rax
   11030:	48 c1 e0 05          	shl    $0x5,%rax
   11034:	48 01 c2             	add    %rax,%rdx
   11037:	48 8d 05 c2 93 00 00 	lea    0x93c2(%rip),%rax        # 1a400 <g_889>
   1103e:	48 01 d0             	add    %rdx,%rax
   11041:	8b 40 04             	mov    0x4(%rax),%eax
   11044:	25 ff ff ff 0f       	and    $0xfffffff,%eax
   11049:	89 c1                	mov    %eax,%ecx
   1104b:	8b 45 fc             	mov    -0x4(%rbp),%eax
   1104e:	89 c2                	mov    %eax,%edx
   11050:	48 8d 35 5d 4b 00 00 	lea    0x4b5d(%rip),%rsi        # 15bb4 <g_243+0xb5c>
   11057:	48 89 cf             	mov    %rcx,%rdi
   1105a:	e8 94 76 ff ff       	callq  86f3 <transparent_crc>
   1105f:	8b 45 f8             	mov    -0x8(%rbp),%eax
   11062:	48 98                	cltq   
   11064:	8b 55 f4             	mov    -0xc(%rbp),%edx
   11067:	48 63 ca             	movslq %edx,%rcx
   1106a:	8b 55 f0             	mov    -0x10(%rbp),%edx
   1106d:	48 63 f2             	movslq %edx,%rsi
   11070:	48 89 c2             	mov    %rax,%rdx
   11073:	48 c1 e2 02          	shl    $0x2,%rdx
   11077:	48 01 c2             	add    %rax,%rdx
   1107a:	48 01 d2             	add    %rdx,%rdx
   1107d:	48 01 c2             	add    %rax,%rdx
   11080:	48 8d 04 95 00 00 00 	lea    0x0(,%rdx,4),%rax
   11087:	00 
   11088:	48 89 c2             	mov    %rax,%rdx
   1108b:	48 89 c8             	mov    %rcx,%rax
   1108e:	48 c1 e0 02          	shl    $0x2,%rax
   11092:	48 01 c8             	add    %rcx,%rax
   11095:	48 01 c0             	add    %rax,%rax
   11098:	48 01 c8             	add    %rcx,%rax
   1109b:	48 c1 e0 05          	shl    $0x5,%rax
   1109f:	48 01 c2             	add    %rax,%rdx
   110a2:	48 89 f0             	mov    %rsi,%rax
   110a5:	48 c1 e0 05          	shl    $0x5,%rax
   110a9:	48 01 f0             	add    %rsi,%rax
   110ac:	48 c1 e0 05          	shl    $0x5,%rax
   110b0:	48 01 c2             	add    %rax,%rdx
   110b3:	48 8d 05 4e 93 00 00 	lea    0x934e(%rip),%rax        # 1a408 <g_889+0x8>
   110ba:	48 01 d0             	add    %rdx,%rax
   110bd:	0f b7 00             	movzwl (%rax),%eax
   110c0:	0f b7 c0             	movzwl %ax,%eax
   110c3:	8b 55 fc             	mov    -0x4(%rbp),%edx
   110c6:	48 8d 35 f9 4a 00 00 	lea    0x4af9(%rip),%rsi        # 15bc6 <g_243+0xb6e>
   110cd:	48 89 c7             	mov    %rax,%rdi
   110d0:	e8 1e 76 ff ff       	callq  86f3 <transparent_crc>
   110d5:	8b 45 f8             	mov    -0x8(%rbp),%eax
   110d8:	48 98                	cltq   
   110da:	8b 55 f4             	mov    -0xc(%rbp),%edx
   110dd:	48 63 ca             	movslq %edx,%rcx
   110e0:	8b 55 f0             	mov    -0x10(%rbp),%edx
   110e3:	48 63 f2             	movslq %edx,%rsi
   110e6:	48 89 c2             	mov    %rax,%rdx
   110e9:	48 c1 e2 02          	shl    $0x2,%rdx
   110ed:	48 01 c2             	add    %rax,%rdx
   110f0:	48 01 d2             	add    %rdx,%rdx
   110f3:	48 01 c2             	add    %rax,%rdx
   110f6:	48 8d 04 95 00 00 00 	lea    0x0(,%rdx,4),%rax
   110fd:	00 
   110fe:	48 89 c2             	mov    %rax,%rdx
   11101:	48 89 c8             	mov    %rcx,%rax
   11104:	48 c1 e0 02          	shl    $0x2,%rax
   11108:	48 01 c8             	add    %rcx,%rax
   1110b:	48 01 c0             	add    %rax,%rax
   1110e:	48 01 c8             	add    %rcx,%rax
   11111:	48 c1 e0 05          	shl    $0x5,%rax
   11115:	48 01 c2             	add    %rax,%rdx
   11118:	48 89 f0             	mov    %rsi,%rax
   1111b:	48 c1 e0 05          	shl    $0x5,%rax
   1111f:	48 01 f0             	add    %rsi,%rax
   11122:	48 c1 e0 05          	shl    $0x5,%rax
   11126:	48 01 c2             	add    %rax,%rdx
   11129:	48 8d 05 d0 92 00 00 	lea    0x92d0(%rip),%rax        # 1a400 <g_889>
   11130:	48 01 d0             	add    %rdx,%rax
   11133:	8b 50 08             	mov    0x8(%rax),%edx
   11136:	c1 ea 10             	shr    $0x10,%edx
   11139:	89 d2                	mov    %edx,%edx
   1113b:	8b 40 0c             	mov    0xc(%rax),%eax
   1113e:	89 c0                	mov    %eax,%eax
   11140:	83 e0 3f             	and    $0x3f,%eax
   11143:	48 c1 e0 10          	shl    $0x10,%rax
   11147:	48 09 d0             	or     %rdx,%rax
   1114a:	48 c1 e0 2a          	shl    $0x2a,%rax
   1114e:	48 c1 f8 2a          	sar    $0x2a,%rax
   11152:	48 98                	cltq   
   11154:	8b 55 fc             	mov    -0x4(%rbp),%edx
   11157:	48 8d 35 7d 4a 00 00 	lea    0x4a7d(%rip),%rsi        # 15bdb <g_243+0xb83>
   1115e:	48 89 c7             	mov    %rax,%rdi
   11161:	e8 8d 75 ff ff       	callq  86f3 <transparent_crc>
   11166:	8b 45 f8             	mov    -0x8(%rbp),%eax
   11169:	48 98                	cltq   
   1116b:	8b 55 f4             	mov    -0xc(%rbp),%edx
   1116e:	48 63 ca             	movslq %edx,%rcx
   11171:	8b 55 f0             	mov    -0x10(%rbp),%edx
   11174:	48 63 f2             	movslq %edx,%rsi
   11177:	48 89 c2             	mov    %rax,%rdx
   1117a:	48 c1 e2 02          	shl    $0x2,%rdx
   1117e:	48 01 c2             	add    %rax,%rdx
   11181:	48 01 d2             	add    %rdx,%rdx
   11184:	48 01 c2             	add    %rax,%rdx
   11187:	48 8d 04 95 00 00 00 	lea    0x0(,%rdx,4),%rax
   1118e:	00 
   1118f:	48 89 c2             	mov    %rax,%rdx
   11192:	48 89 c8             	mov    %rcx,%rax
   11195:	48 c1 e0 02          	shl    $0x2,%rax
   11199:	48 01 c8             	add    %rcx,%rax
   1119c:	48 01 c0             	add    %rax,%rax
   1119f:	48 01 c8             	add    %rcx,%rax
   111a2:	48 c1 e0 05          	shl    $0x5,%rax
   111a6:	48 01 c2             	add    %rax,%rdx
   111a9:	48 89 f0             	mov    %rsi,%rax
   111ac:	48 c1 e0 05          	shl    $0x5,%rax
   111b0:	48 01 f0             	add    %rsi,%rax
   111b3:	48 c1 e0 05          	shl    $0x5,%rax
   111b7:	48 01 c2             	add    %rax,%rdx
   111ba:	48 8d 05 3f 92 00 00 	lea    0x923f(%rip),%rax        # 1a400 <g_889>
   111c1:	48 01 d0             	add    %rdx,%rax
   111c4:	48 8b 40 0d          	mov    0xd(%rax),%rax
   111c8:	8b 55 fc             	mov    -0x4(%rbp),%edx
   111cb:	48 8d 35 1e 4a 00 00 	lea    0x4a1e(%rip),%rsi        # 15bf0 <g_243+0xb98>
   111d2:	48 89 c7             	mov    %rax,%rdi
   111d5:	e8 19 75 ff ff       	callq  86f3 <transparent_crc>
   111da:	8b 45 f8             	mov    -0x8(%rbp),%eax
   111dd:	48 98                	cltq   
   111df:	8b 55 f4             	mov    -0xc(%rbp),%edx
   111e2:	48 63 ca             	movslq %edx,%rcx
   111e5:	8b 55 f0             	mov    -0x10(%rbp),%edx
   111e8:	48 63 f2             	movslq %edx,%rsi
   111eb:	48 89 c2             	mov    %rax,%rdx
   111ee:	48 c1 e2 02          	shl    $0x2,%rdx
   111f2:	48 01 c2             	add    %rax,%rdx
   111f5:	48 01 d2             	add    %rdx,%rdx
   111f8:	48 01 c2             	add    %rax,%rdx
   111fb:	48 8d 04 95 00 00 00 	lea    0x0(,%rdx,4),%rax
   11202:	00 
   11203:	48 89 c2             	mov    %rax,%rdx
   11206:	48 89 c8             	mov    %rcx,%rax
   11209:	48 c1 e0 02          	shl    $0x2,%rax
   1120d:	48 01 c8             	add    %rcx,%rax
   11210:	48 01 c0             	add    %rax,%rax
   11213:	48 01 c8             	add    %rcx,%rax
   11216:	48 c1 e0 05          	shl    $0x5,%rax
   1121a:	48 01 c2             	add    %rax,%rdx
   1121d:	48 89 f0             	mov    %rsi,%rax
   11220:	48 c1 e0 05          	shl    $0x5,%rax
   11224:	48 01 f0             	add    %rsi,%rax
   11227:	48 c1 e0 05          	shl    $0x5,%rax
   1122b:	48 01 c2             	add    %rax,%rdx
   1122e:	48 8d 05 cb 91 00 00 	lea    0x91cb(%rip),%rax        # 1a400 <g_889>
   11235:	48 01 d0             	add    %rdx,%rax
   11238:	0f b7 40 15          	movzwl 0x15(%rax),%eax
   1123c:	48 0f bf c0          	movswq %ax,%rax
   11240:	8b 55 fc             	mov    -0x4(%rbp),%edx
   11243:	48 8d 35 bb 49 00 00 	lea    0x49bb(%rip),%rsi        # 15c05 <g_243+0xbad>
   1124a:	48 89 c7             	mov    %rax,%rdi
   1124d:	e8 a1 74 ff ff       	callq  86f3 <transparent_crc>
   11252:	8b 45 f8             	mov    -0x8(%rbp),%eax
   11255:	48 98                	cltq   
   11257:	8b 55 f4             	mov    -0xc(%rbp),%edx
   1125a:	48 63 ca             	movslq %edx,%rcx
   1125d:	8b 55 f0             	mov    -0x10(%rbp),%edx
   11260:	48 63 f2             	movslq %edx,%rsi
   11263:	48 89 c2             	mov    %rax,%rdx
   11266:	48 c1 e2 02          	shl    $0x2,%rdx
   1126a:	48 01 c2             	add    %rax,%rdx
   1126d:	48 01 d2             	add    %rdx,%rdx
   11270:	48 01 c2             	add    %rax,%rdx
   11273:	48 8d 04 95 00 00 00 	lea    0x0(,%rdx,4),%rax
   1127a:	00 
   1127b:	48 89 c2             	mov    %rax,%rdx
   1127e:	48 89 c8             	mov    %rcx,%rax
   11281:	48 c1 e0 02          	shl    $0x2,%rax
   11285:	48 01 c8             	add    %rcx,%rax
   11288:	48 01 c0             	add    %rax,%rax
   1128b:	48 01 c8             	add    %rcx,%rax
   1128e:	48 c1 e0 05          	shl    $0x5,%rax
   11292:	48 01 c2             	add    %rax,%rdx
   11295:	48 89 f0             	mov    %rsi,%rax
   11298:	48 c1 e0 05          	shl    $0x5,%rax
   1129c:	48 01 f0             	add    %rsi,%rax
   1129f:	48 c1 e0 05          	shl    $0x5,%rax
   112a3:	48 01 c2             	add    %rax,%rdx
   112a6:	48 8d 05 53 91 00 00 	lea    0x9153(%rip),%rax        # 1a400 <g_889>
   112ad:	48 01 d0             	add    %rdx,%rax
   112b0:	48 8b 40 17          	mov    0x17(%rax),%rax
   112b4:	8b 55 fc             	mov    -0x4(%rbp),%edx
   112b7:	48 8d 35 5c 49 00 00 	lea    0x495c(%rip),%rsi        # 15c1a <g_243+0xbc2>
   112be:	48 89 c7             	mov    %rax,%rdi
   112c1:	e8 2d 74 ff ff       	callq  86f3 <transparent_crc>
   112c6:	8b 45 f8             	mov    -0x8(%rbp),%eax
   112c9:	48 63 d0             	movslq %eax,%rdx
   112cc:	8b 45 f4             	mov    -0xc(%rbp),%eax
   112cf:	48 63 c8             	movslq %eax,%rcx
   112d2:	8b 45 f0             	mov    -0x10(%rbp),%eax
   112d5:	48 63 f0             	movslq %eax,%rsi
   112d8:	48 89 d0             	mov    %rdx,%rax
   112db:	48 c1 e0 02          	shl    $0x2,%rax
   112df:	48 01 d0             	add    %rdx,%rax
   112e2:	48 01 c0             	add    %rax,%rax
   112e5:	48 01 d0             	add    %rdx,%rax
   112e8:	48 c1 e0 02          	shl    $0x2,%rax
   112ec:	48 89 f2             	mov    %rsi,%rdx
   112ef:	48 c1 e2 05          	shl    $0x5,%rdx
   112f3:	48 01 f2             	add    %rsi,%rdx
   112f6:	48 c1 e2 05          	shl    $0x5,%rdx
   112fa:	48 01 c2             	add    %rax,%rdx
   112fd:	48 89 c8             	mov    %rcx,%rax
   11300:	48 c1 e0 02          	shl    $0x2,%rax
   11304:	48 01 c8             	add    %rcx,%rax
   11307:	48 01 c0             	add    %rax,%rax
   1130a:	48 01 c8             	add    %rcx,%rax
   1130d:	48 c1 e0 05          	shl    $0x5,%rax
   11311:	48 01 c2             	add    %rax,%rdx
   11314:	48 8d 05 f5 90 00 00 	lea    0x90f5(%rip),%rax        # 1a410 <g_889+0x10>
   1131b:	48 01 d0             	add    %rdx,%rax
   1131e:	8b 40 0f             	mov    0xf(%rax),%eax
   11321:	48 98                	cltq   
   11323:	8b 55 fc             	mov    -0x4(%rbp),%edx
   11326:	48 8d 35 02 49 00 00 	lea    0x4902(%rip),%rsi        # 15c2f <g_243+0xbd7>
   1132d:	48 89 c7             	mov    %rax,%rdi
   11330:	e8 be 73 ff ff       	callq  86f3 <transparent_crc>
   11335:	8b 45 f8             	mov    -0x8(%rbp),%eax
   11338:	48 63 d0             	movslq %eax,%rdx
   1133b:	8b 45 f4             	mov    -0xc(%rbp),%eax
   1133e:	48 63 c8             	movslq %eax,%rcx
   11341:	8b 45 f0             	mov    -0x10(%rbp),%eax
   11344:	48 63 f0             	movslq %eax,%rsi
   11347:	48 89 d0             	mov    %rdx,%rax
   1134a:	48 c1 e0 02          	shl    $0x2,%rax
   1134e:	48 01 d0             	add    %rdx,%rax
   11351:	48 01 c0             	add    %rax,%rax
   11354:	48 01 d0             	add    %rdx,%rax
   11357:	48 c1 e0 02          	shl    $0x2,%rax
   1135b:	48 89 f2             	mov    %rsi,%rdx
   1135e:	48 c1 e2 05          	shl    $0x5,%rdx
   11362:	48 01 f2             	add    %rsi,%rdx
   11365:	48 c1 e2 05          	shl    $0x5,%rdx
   11369:	48 01 c2             	add    %rax,%rdx
   1136c:	48 89 c8             	mov    %rcx,%rax
   1136f:	48 c1 e0 02          	shl    $0x2,%rax
   11373:	48 01 c8             	add    %rcx,%rax
   11376:	48 01 c0             	add    %rax,%rax
   11379:	48 01 c8             	add    %rcx,%rax
   1137c:	48 c1 e0 05          	shl    $0x5,%rax
   11380:	48 01 c2             	add    %rax,%rdx
   11383:	48 8d 05 96 90 00 00 	lea    0x9096(%rip),%rax        # 1a420 <g_889+0x20>
   1138a:	48 01 d0             	add    %rdx,%rax
   1138d:	8b 40 04             	mov    0x4(%rax),%eax
   11390:	25 ff ff ff 7f       	and    $0x7fffffff,%eax
   11395:	89 c1                	mov    %eax,%ecx
   11397:	8b 45 fc             	mov    -0x4(%rbp),%eax
   1139a:	89 c2                	mov    %eax,%edx
   1139c:	48 8d 35 a1 48 00 00 	lea    0x48a1(%rip),%rsi        # 15c44 <g_243+0xbec>
   113a3:	48 89 cf             	mov    %rcx,%rdi
   113a6:	e8 48 73 ff ff       	callq  86f3 <transparent_crc>
   113ab:	8b 45 f8             	mov    -0x8(%rbp),%eax
   113ae:	48 63 d0             	movslq %eax,%rdx
   113b1:	8b 45 f4             	mov    -0xc(%rbp),%eax
   113b4:	48 63 c8             	movslq %eax,%rcx
   113b7:	8b 45 f0             	mov    -0x10(%rbp),%eax
   113ba:	48 63 f0             	movslq %eax,%rsi
   113bd:	48 89 d0             	mov    %rdx,%rax
   113c0:	48 c1 e0 02          	shl    $0x2,%rax
   113c4:	48 01 d0             	add    %rdx,%rax
   113c7:	48 01 c0             	add    %rax,%rax
   113ca:	48 01 d0             	add    %rdx,%rax
   113cd:	48 c1 e0 02          	shl    $0x2,%rax
   113d1:	48 89 f2             	mov    %rsi,%rdx
   113d4:	48 c1 e2 05          	shl    $0x5,%rdx
   113d8:	48 01 f2             	add    %rsi,%rdx
   113db:	48 c1 e2 05          	shl    $0x5,%rdx
   113df:	48 01 c2             	add    %rax,%rdx
   113e2:	48 89 c8             	mov    %rcx,%rax
   113e5:	48 c1 e0 02          	shl    $0x2,%rax
   113e9:	48 01 c8             	add    %rcx,%rax
   113ec:	48 01 c0             	add    %rax,%rax
   113ef:	48 01 c8             	add    %rcx,%rax
   113f2:	48 c1 e0 05          	shl    $0x5,%rax
   113f6:	48 01 c2             	add    %rax,%rdx
   113f9:	48 8d 05 20 90 00 00 	lea    0x9020(%rip),%rax        # 1a420 <g_889+0x20>
   11400:	48 01 d0             	add    %rdx,%rax
   11403:	0f b6 40 08          	movzbl 0x8(%rax),%eax
   11407:	01 c0                	add    %eax,%eax
   11409:	d0 f8                	sar    %al
   1140b:	48 0f be c0          	movsbq %al,%rax
   1140f:	8b 55 fc             	mov    -0x4(%rbp),%edx
   11412:	48 8d 35 3d 48 00 00 	lea    0x483d(%rip),%rsi        # 15c56 <g_243+0xbfe>
   11419:	48 89 c7             	mov    %rax,%rdi
   1141c:	e8 d2 72 ff ff       	callq  86f3 <transparent_crc>
   11421:	83 7d fc 00          	cmpl   $0x0,-0x4(%rbp)
   11425:	74 1c                	je     11443 <main+0x18ff>
   11427:	8b 4d f8             	mov    -0x8(%rbp),%ecx
   1142a:	8b 55 f4             	mov    -0xc(%rbp),%edx
   1142d:	8b 45 f0             	mov    -0x10(%rbp),%eax
   11430:	89 c6                	mov    %eax,%esi
   11432:	48 8d 3d 2f 48 00 00 	lea    0x482f(%rip),%rdi        # 15c68 <g_243+0xc10>
   11439:	b8 00 00 00 00       	mov    $0x0,%eax
   1143e:	e8 3d 5c ff ff       	callq  7080 <printf@plt>
   11443:	83 45 f8 01          	addl   $0x1,-0x8(%rbp)
   11447:	83 7d f8 07          	cmpl   $0x7,-0x8(%rbp)
   1144b:	0f 8e 15 fb ff ff    	jle    10f66 <main+0x1422>
   11451:	83 45 f4 01          	addl   $0x1,-0xc(%rbp)
   11455:	83 7d f4 02          	cmpl   $0x2,-0xc(%rbp)
   11459:	0f 8e fb fa ff ff    	jle    10f5a <main+0x1416>
   1145f:	83 45 f0 01          	addl   $0x1,-0x10(%rbp)
   11463:	83 7d f0 09          	cmpl   $0x9,-0x10(%rbp)
   11467:	0f 8e e1 fa ff ff    	jle    10f4e <main+0x140a>
   1146d:	48 8b 05 cc b8 00 00 	mov    0xb8cc(%rip),%rax        # 1cd40 <g_908>
   11474:	c1 e0 05             	shl    $0x5,%eax
   11477:	c1 f8 05             	sar    $0x5,%eax
   1147a:	48 98                	cltq   
   1147c:	8b 55 fc             	mov    -0x4(%rbp),%edx
   1147f:	48 8d 35 f8 47 00 00 	lea    0x47f8(%rip),%rsi        # 15c7e <g_243+0xc26>
   11486:	48 89 c7             	mov    %rax,%rdi
   11489:	e8 65 72 ff ff       	callq  86f3 <transparent_crc>
   1148e:	48 8b 05 ab b8 00 00 	mov    0xb8ab(%rip),%rax        # 1cd40 <g_908>
   11495:	c1 e0 03             	shl    $0x3,%eax
   11498:	c1 f8 1e             	sar    $0x1e,%eax
   1149b:	48 0f be c0          	movsbq %al,%rax
   1149f:	8b 55 fc             	mov    -0x4(%rbp),%edx
   114a2:	48 8d 35 de 47 00 00 	lea    0x47de(%rip),%rsi        # 15c87 <g_243+0xc2f>
   114a9:	48 89 c7             	mov    %rax,%rdi
   114ac:	e8 42 72 ff ff       	callq  86f3 <transparent_crc>
   114b1:	48 8b 05 88 b8 00 00 	mov    0xb888(%rip),%rax        # 1cd40 <g_908>
   114b8:	48 c1 e8 20          	shr    $0x20,%rax
   114bc:	25 ff ff ff 1f       	and    $0x1fffffff,%eax
   114c1:	89 c1                	mov    %eax,%ecx
   114c3:	8b 45 fc             	mov    -0x4(%rbp),%eax
   114c6:	89 c2                	mov    %eax,%edx
   114c8:	48 8d 35 c1 47 00 00 	lea    0x47c1(%rip),%rsi        # 15c90 <g_243+0xc38>
   114cf:	48 89 cf             	mov    %rcx,%rdi
   114d2:	e8 1c 72 ff ff       	callq  86f3 <transparent_crc>
   114d7:	48 8b 05 6a b8 00 00 	mov    0xb86a(%rip),%rax        # 1cd48 <g_908+0x8>
   114de:	c1 e0 07             	shl    $0x7,%eax
   114e1:	c1 f8 07             	sar    $0x7,%eax
   114e4:	48 98                	cltq   
   114e6:	8b 55 fc             	mov    -0x4(%rbp),%edx
   114e9:	48 8d 35 a9 47 00 00 	lea    0x47a9(%rip),%rsi        # 15c99 <g_243+0xc41>
   114f0:	48 89 c7             	mov    %rax,%rdi
   114f3:	e8 fb 71 ff ff       	callq  86f3 <transparent_crc>
   114f8:	48 8b 05 49 b8 00 00 	mov    0xb849(%rip),%rax        # 1cd48 <g_908+0x8>
   114ff:	48 c1 e0 0d          	shl    $0xd,%rax
   11503:	48 c1 f8 2d          	sar    $0x2d,%rax
   11507:	48 98                	cltq   
   11509:	8b 55 fc             	mov    -0x4(%rbp),%edx
   1150c:	48 8d 35 8f 47 00 00 	lea    0x478f(%rip),%rsi        # 15ca2 <g_243+0xc4a>
   11513:	48 89 c7             	mov    %rax,%rdi
   11516:	e8 d8 71 ff ff       	callq  86f3 <transparent_crc>
   1151b:	48 8b 05 2e b8 00 00 	mov    0xb82e(%rip),%rax        # 1cd50 <g_908+0x10>
   11522:	25 ff ff 3f 00       	and    $0x3fffff,%eax
   11527:	89 c1                	mov    %eax,%ecx
   11529:	8b 45 fc             	mov    -0x4(%rbp),%eax
   1152c:	89 c2                	mov    %eax,%edx
   1152e:	48 8d 35 76 47 00 00 	lea    0x4776(%rip),%rsi        # 15cab <g_243+0xc53>
   11535:	48 89 cf             	mov    %rcx,%rdi
   11538:	e8 b6 71 ff ff       	callq  86f3 <transparent_crc>
   1153d:	48 8b 05 14 b8 00 00 	mov    0xb814(%rip),%rax        # 1cd58 <g_908+0x18>
   11544:	8b 55 fc             	mov    -0x4(%rbp),%edx
   11547:	48 8d 35 66 47 00 00 	lea    0x4766(%rip),%rsi        # 15cb4 <g_243+0xc5c>
   1154e:	48 89 c7             	mov    %rax,%rdi
   11551:	e8 9d 71 ff ff       	callq  86f3 <transparent_crc>
   11556:	48 8b 05 03 b8 00 00 	mov    0xb803(%rip),%rax        # 1cd60 <g_908+0x20>
   1155d:	c1 e0 06             	shl    $0x6,%eax
   11560:	66 c1 f8 06          	sar    $0x6,%ax
   11564:	48 0f bf c0          	movswq %ax,%rax
   11568:	8b 55 fc             	mov    -0x4(%rbp),%edx
   1156b:	48 8d 35 4b 47 00 00 	lea    0x474b(%rip),%rsi        # 15cbd <g_243+0xc65>
   11572:	48 89 c7             	mov    %rax,%rdi
   11575:	e8 79 71 ff ff       	callq  86f3 <transparent_crc>
   1157a:	8b 05 e4 b7 00 00    	mov    0xb7e4(%rip),%eax        # 1cd64 <g_908+0x24>
   11580:	89 c1                	mov    %eax,%ecx
   11582:	8b 45 fc             	mov    -0x4(%rbp),%eax
   11585:	89 c2                	mov    %eax,%edx
   11587:	48 8d 35 38 47 00 00 	lea    0x4738(%rip),%rsi        # 15cc6 <g_243+0xc6e>
   1158e:	48 89 cf             	mov    %rcx,%rdi
   11591:	e8 5d 71 ff ff       	callq  86f3 <transparent_crc>
   11596:	48 8b 05 cb b7 00 00 	mov    0xb7cb(%rip),%rax        # 1cd68 <g_908+0x28>
   1159d:	c1 e0 02             	shl    $0x2,%eax
   115a0:	c1 f8 02             	sar    $0x2,%eax
   115a3:	48 98                	cltq   
   115a5:	8b 55 fc             	mov    -0x4(%rbp),%edx
   115a8:	48 8d 35 20 47 00 00 	lea    0x4720(%rip),%rsi        # 15ccf <g_243+0xc77>
   115af:	48 89 c7             	mov    %rax,%rdi
   115b2:	e8 3c 71 ff ff       	callq  86f3 <transparent_crc>
   115b7:	c7 45 f0 00 00 00 00 	movl   $0x0,-0x10(%rbp)
   115be:	e9 23 04 00 00       	jmpq   119e6 <main+0x1ea2>
   115c3:	c7 45 f4 00 00 00 00 	movl   $0x0,-0xc(%rbp)
   115ca:	e9 09 04 00 00       	jmpq   119d8 <main+0x1e94>
   115cf:	c7 45 f8 00 00 00 00 	movl   $0x0,-0x8(%rbp)
   115d6:	e9 ef 03 00 00       	jmpq   119ca <main+0x1e86>
   115db:	8b 45 f8             	mov    -0x8(%rbp),%eax
   115de:	48 63 d0             	movslq %eax,%rdx
   115e1:	8b 45 f4             	mov    -0xc(%rbp),%eax
   115e4:	48 63 f0             	movslq %eax,%rsi
   115e7:	8b 45 f0             	mov    -0x10(%rbp),%eax
   115ea:	48 63 c8             	movslq %eax,%rcx
   115ed:	48 89 d0             	mov    %rdx,%rax
   115f0:	48 c1 e0 02          	shl    $0x2,%rax
   115f4:	48 01 d0             	add    %rdx,%rax
   115f7:	48 01 c0             	add    %rax,%rax
   115fa:	48 01 d0             	add    %rdx,%rax
   115fd:	48 c1 e0 02          	shl    $0x2,%rax
   11601:	48 69 d6 dc 00 00 00 	imul   $0xdc,%rsi,%rdx
   11608:	48 01 c2             	add    %rax,%rdx
   1160b:	48 69 c1 bc 07 00 00 	imul   $0x7bc,%rcx,%rax
   11612:	48 01 c2             	add    %rax,%rdx
   11615:	48 8d 05 64 b7 00 00 	lea    0xb764(%rip),%rax        # 1cd80 <g_936>
   1161c:	48 01 d0             	add    %rdx,%rax
   1161f:	8b 00                	mov    (%rax),%eax
   11621:	c1 e0 05             	shl    $0x5,%eax
   11624:	66 c1 f8 05          	sar    $0x5,%ax
   11628:	48 0f bf c0          	movswq %ax,%rax
   1162c:	8b 55 fc             	mov    -0x4(%rbp),%edx
   1162f:	48 8d 35 a2 46 00 00 	lea    0x46a2(%rip),%rsi        # 15cd8 <g_243+0xc80>
   11636:	48 89 c7             	mov    %rax,%rdi
   11639:	e8 b5 70 ff ff       	callq  86f3 <transparent_crc>
   1163e:	8b 45 f8             	mov    -0x8(%rbp),%eax
   11641:	48 63 d0             	movslq %eax,%rdx
   11644:	8b 45 f4             	mov    -0xc(%rbp),%eax
   11647:	48 63 f0             	movslq %eax,%rsi
   1164a:	8b 45 f0             	mov    -0x10(%rbp),%eax
   1164d:	48 63 c8             	movslq %eax,%rcx
   11650:	48 89 d0             	mov    %rdx,%rax
   11653:	48 c1 e0 02          	shl    $0x2,%rax
   11657:	48 01 d0             	add    %rdx,%rax
   1165a:	48 01 c0             	add    %rax,%rax
   1165d:	48 01 d0             	add    %rdx,%rax
   11660:	48 c1 e0 02          	shl    $0x2,%rax
   11664:	48 69 d6 dc 00 00 00 	imul   $0xdc,%rsi,%rdx
   1166b:	48 01 c2             	add    %rax,%rdx
   1166e:	48 69 c1 bc 07 00 00 	imul   $0x7bc,%rcx,%rax
   11675:	48 01 c2             	add    %rax,%rdx
   11678:	48 8d 05 01 b7 00 00 	lea    0xb701(%rip),%rax        # 1cd80 <g_936>
   1167f:	48 01 d0             	add    %rdx,%rax
   11682:	8b 40 04             	mov    0x4(%rax),%eax
   11685:	25 ff ff ff 0f       	and    $0xfffffff,%eax
   1168a:	89 c1                	mov    %eax,%ecx
   1168c:	8b 45 fc             	mov    -0x4(%rbp),%eax
   1168f:	89 c2                	mov    %eax,%edx
   11691:	48 8d 35 52 46 00 00 	lea    0x4652(%rip),%rsi        # 15cea <g_243+0xc92>
   11698:	48 89 cf             	mov    %rcx,%rdi
   1169b:	e8 53 70 ff ff       	callq  86f3 <transparent_crc>
   116a0:	8b 45 f8             	mov    -0x8(%rbp),%eax
   116a3:	48 63 d0             	movslq %eax,%rdx
   116a6:	8b 45 f4             	mov    -0xc(%rbp),%eax
   116a9:	48 63 f0             	movslq %eax,%rsi
   116ac:	8b 45 f0             	mov    -0x10(%rbp),%eax
   116af:	48 63 c8             	movslq %eax,%rcx
   116b2:	48 89 d0             	mov    %rdx,%rax
   116b5:	48 c1 e0 02          	shl    $0x2,%rax
   116b9:	48 01 d0             	add    %rdx,%rax
   116bc:	48 01 c0             	add    %rax,%rax
   116bf:	48 01 d0             	add    %rdx,%rax
   116c2:	48 c1 e0 02          	shl    $0x2,%rax
   116c6:	48 69 d6 dc 00 00 00 	imul   $0xdc,%rsi,%rdx
   116cd:	48 01 c2             	add    %rax,%rdx
   116d0:	48 69 c1 bc 07 00 00 	imul   $0x7bc,%rcx,%rax
   116d7:	48 01 c2             	add    %rax,%rdx
   116da:	48 8d 05 a7 b6 00 00 	lea    0xb6a7(%rip),%rax        # 1cd88 <g_936+0x8>
   116e1:	48 01 d0             	add    %rdx,%rax
   116e4:	0f b7 00             	movzwl (%rax),%eax
   116e7:	0f b7 c0             	movzwl %ax,%eax
   116ea:	8b 55 fc             	mov    -0x4(%rbp),%edx
   116ed:	48 8d 35 08 46 00 00 	lea    0x4608(%rip),%rsi        # 15cfc <g_243+0xca4>
   116f4:	48 89 c7             	mov    %rax,%rdi
   116f7:	e8 f7 6f ff ff       	callq  86f3 <transparent_crc>
   116fc:	8b 45 f8             	mov    -0x8(%rbp),%eax
   116ff:	48 63 d0             	movslq %eax,%rdx
   11702:	8b 45 f4             	mov    -0xc(%rbp),%eax
   11705:	48 63 f0             	movslq %eax,%rsi
   11708:	8b 45 f0             	mov    -0x10(%rbp),%eax
   1170b:	48 63 c8             	movslq %eax,%rcx
   1170e:	48 89 d0             	mov    %rdx,%rax
   11711:	48 c1 e0 02          	shl    $0x2,%rax
   11715:	48 01 d0             	add    %rdx,%rax
   11718:	48 01 c0             	add    %rax,%rax
   1171b:	48 01 d0             	add    %rdx,%rax
   1171e:	48 c1 e0 02          	shl    $0x2,%rax
   11722:	48 69 d6 dc 00 00 00 	imul   $0xdc,%rsi,%rdx
   11729:	48 01 c2             	add    %rax,%rdx
   1172c:	48 69 c1 bc 07 00 00 	imul   $0x7bc,%rcx,%rax
   11733:	48 01 c2             	add    %rax,%rdx
   11736:	48 8d 05 43 b6 00 00 	lea    0xb643(%rip),%rax        # 1cd80 <g_936>
   1173d:	48 01 d0             	add    %rdx,%rax
   11740:	8b 50 08             	mov    0x8(%rax),%edx
   11743:	c1 ea 10             	shr    $0x10,%edx
   11746:	89 d2                	mov    %edx,%edx
   11748:	8b 40 0c             	mov    0xc(%rax),%eax
   1174b:	89 c0                	mov    %eax,%eax
   1174d:	83 e0 3f             	and    $0x3f,%eax
   11750:	48 c1 e0 10          	shl    $0x10,%rax
   11754:	48 09 d0             	or     %rdx,%rax
   11757:	48 c1 e0 2a          	shl    $0x2a,%rax
   1175b:	48 c1 f8 2a          	sar    $0x2a,%rax
   1175f:	48 98                	cltq   
   11761:	8b 55 fc             	mov    -0x4(%rbp),%edx
   11764:	48 8d 35 a6 45 00 00 	lea    0x45a6(%rip),%rsi        # 15d11 <g_243+0xcb9>
   1176b:	48 89 c7             	mov    %rax,%rdi
   1176e:	e8 80 6f ff ff       	callq  86f3 <transparent_crc>
   11773:	8b 45 f8             	mov    -0x8(%rbp),%eax
   11776:	48 63 d0             	movslq %eax,%rdx
   11779:	8b 45 f4             	mov    -0xc(%rbp),%eax
   1177c:	48 63 f0             	movslq %eax,%rsi
   1177f:	8b 45 f0             	mov    -0x10(%rbp),%eax
   11782:	48 63 c8             	movslq %eax,%rcx
   11785:	48 89 d0             	mov    %rdx,%rax
   11788:	48 c1 e0 02          	shl    $0x2,%rax
   1178c:	48 01 d0             	add    %rdx,%rax
   1178f:	48 01 c0             	add    %rax,%rax
   11792:	48 01 d0             	add    %rdx,%rax
   11795:	48 c1 e0 02          	shl    $0x2,%rax
   11799:	48 69 d6 dc 00 00 00 	imul   $0xdc,%rsi,%rdx
   117a0:	48 01 c2             	add    %rax,%rdx
   117a3:	48 69 c1 bc 07 00 00 	imul   $0x7bc,%rcx,%rax
   117aa:	48 01 c2             	add    %rax,%rdx
   117ad:	48 8d 05 cc b5 00 00 	lea    0xb5cc(%rip),%rax        # 1cd80 <g_936>
   117b4:	48 01 d0             	add    %rdx,%rax
   117b7:	48 8b 40 0d          	mov    0xd(%rax),%rax
   117bb:	8b 55 fc             	mov    -0x4(%rbp),%edx
   117be:	48 8d 35 61 45 00 00 	lea    0x4561(%rip),%rsi        # 15d26 <g_243+0xcce>
   117c5:	48 89 c7             	mov    %rax,%rdi
   117c8:	e8 26 6f ff ff       	callq  86f3 <transparent_crc>
   117cd:	8b 45 f8             	mov    -0x8(%rbp),%eax
   117d0:	48 63 d0             	movslq %eax,%rdx
   117d3:	8b 45 f4             	mov    -0xc(%rbp),%eax
   117d6:	48 63 f0             	movslq %eax,%rsi
   117d9:	8b 45 f0             	mov    -0x10(%rbp),%eax
   117dc:	48 63 c8             	movslq %eax,%rcx
   117df:	48 89 d0             	mov    %rdx,%rax
   117e2:	48 c1 e0 02          	shl    $0x2,%rax
   117e6:	48 01 d0             	add    %rdx,%rax
   117e9:	48 01 c0             	add    %rax,%rax
   117ec:	48 01 d0             	add    %rdx,%rax
   117ef:	48 c1 e0 02          	shl    $0x2,%rax
   117f3:	48 69 d6 dc 00 00 00 	imul   $0xdc,%rsi,%rdx
   117fa:	48 01 c2             	add    %rax,%rdx
   117fd:	48 69 c1 bc 07 00 00 	imul   $0x7bc,%rcx,%rax
   11804:	48 01 c2             	add    %rax,%rdx
   11807:	48 8d 05 72 b5 00 00 	lea    0xb572(%rip),%rax        # 1cd80 <g_936>
   1180e:	48 01 d0             	add    %rdx,%rax
   11811:	0f b7 40 15          	movzwl 0x15(%rax),%eax
   11815:	48 0f bf c0          	movswq %ax,%rax
   11819:	8b 55 fc             	mov    -0x4(%rbp),%edx
   1181c:	48 8d 35 18 45 00 00 	lea    0x4518(%rip),%rsi        # 15d3b <g_243+0xce3>
   11823:	48 89 c7             	mov    %rax,%rdi
   11826:	e8 c8 6e ff ff       	callq  86f3 <transparent_crc>
   1182b:	8b 45 f8             	mov    -0x8(%rbp),%eax
   1182e:	48 63 d0             	movslq %eax,%rdx
   11831:	8b 45 f4             	mov    -0xc(%rbp),%eax
   11834:	48 63 f0             	movslq %eax,%rsi
   11837:	8b 45 f0             	mov    -0x10(%rbp),%eax
   1183a:	48 63 c8             	movslq %eax,%rcx
   1183d:	48 89 d0             	mov    %rdx,%rax
   11840:	48 c1 e0 02          	shl    $0x2,%rax
   11844:	48 01 d0             	add    %rdx,%rax
   11847:	48 01 c0             	add    %rax,%rax
   1184a:	48 01 d0             	add    %rdx,%rax
   1184d:	48 c1 e0 02          	shl    $0x2,%rax
   11851:	48 69 d6 dc 00 00 00 	imul   $0xdc,%rsi,%rdx
   11858:	48 01 c2             	add    %rax,%rdx
   1185b:	48 69 c1 bc 07 00 00 	imul   $0x7bc,%rcx,%rax
   11862:	48 01 c2             	add    %rax,%rdx
   11865:	48 8d 05 14 b5 00 00 	lea    0xb514(%rip),%rax        # 1cd80 <g_936>
   1186c:	48 01 d0             	add    %rdx,%rax
   1186f:	48 8b 40 17          	mov    0x17(%rax),%rax
   11873:	8b 55 fc             	mov    -0x4(%rbp),%edx
   11876:	48 8d 35 d3 44 00 00 	lea    0x44d3(%rip),%rsi        # 15d50 <g_243+0xcf8>
   1187d:	48 89 c7             	mov    %rax,%rdi
   11880:	e8 6e 6e ff ff       	callq  86f3 <transparent_crc>
   11885:	8b 45 f8             	mov    -0x8(%rbp),%eax
   11888:	48 63 d0             	movslq %eax,%rdx
   1188b:	8b 45 f4             	mov    -0xc(%rbp),%eax
   1188e:	48 63 c8             	movslq %eax,%rcx
   11891:	8b 45 f0             	mov    -0x10(%rbp),%eax
   11894:	48 63 f0             	movslq %eax,%rsi
   11897:	48 89 d0             	mov    %rdx,%rax
   1189a:	48 c1 e0 02          	shl    $0x2,%rax
   1189e:	48 01 d0             	add    %rdx,%rax
   118a1:	48 01 c0             	add    %rax,%rax
   118a4:	48 01 d0             	add    %rdx,%rax
   118a7:	48 c1 e0 02          	shl    $0x2,%rax
   118ab:	48 69 d6 bc 07 00 00 	imul   $0x7bc,%rsi,%rdx
   118b2:	48 01 c2             	add    %rax,%rdx
   118b5:	48 69 c1 dc 00 00 00 	imul   $0xdc,%rcx,%rax
   118bc:	48 01 c2             	add    %rax,%rdx
   118bf:	48 8d 05 ca b4 00 00 	lea    0xb4ca(%rip),%rax        # 1cd90 <g_936+0x10>
   118c6:	48 01 d0             	add    %rdx,%rax
   118c9:	8b 40 0f             	mov    0xf(%rax),%eax
   118cc:	48 98                	cltq   
   118ce:	8b 55 fc             	mov    -0x4(%rbp),%edx
   118d1:	48 8d 35 8d 44 00 00 	lea    0x448d(%rip),%rsi        # 15d65 <g_243+0xd0d>
   118d8:	48 89 c7             	mov    %rax,%rdi
   118db:	e8 13 6e ff ff       	callq  86f3 <transparent_crc>
   118e0:	8b 45 f8             	mov    -0x8(%rbp),%eax
   118e3:	48 63 d0             	movslq %eax,%rdx
   118e6:	8b 45 f4             	mov    -0xc(%rbp),%eax
   118e9:	48 63 c8             	movslq %eax,%rcx
   118ec:	8b 45 f0             	mov    -0x10(%rbp),%eax
   118ef:	48 63 f0             	movslq %eax,%rsi
   118f2:	48 89 d0             	mov    %rdx,%rax
   118f5:	48 c1 e0 02          	shl    $0x2,%rax
   118f9:	48 01 d0             	add    %rdx,%rax
   118fc:	48 01 c0             	add    %rax,%rax
   118ff:	48 01 d0             	add    %rdx,%rax
   11902:	48 c1 e0 02          	shl    $0x2,%rax
   11906:	48 69 d6 bc 07 00 00 	imul   $0x7bc,%rsi,%rdx
   1190d:	48 01 c2             	add    %rax,%rdx
   11910:	48 69 c1 dc 00 00 00 	imul   $0xdc,%rcx,%rax
   11917:	48 01 c2             	add    %rax,%rdx
   1191a:	48 8d 05 7f b4 00 00 	lea    0xb47f(%rip),%rax        # 1cda0 <g_936+0x20>
   11921:	48 01 d0             	add    %rdx,%rax
   11924:	8b 40 04             	mov    0x4(%rax),%eax
   11927:	25 ff ff ff 7f       	and    $0x7fffffff,%eax
   1192c:	89 c1                	mov    %eax,%ecx
   1192e:	8b 45 fc             	mov    -0x4(%rbp),%eax
   11931:	89 c2                	mov    %eax,%edx
   11933:	48 8d 35 40 44 00 00 	lea    0x4440(%rip),%rsi        # 15d7a <g_243+0xd22>
   1193a:	48 89 cf             	mov    %rcx,%rdi
   1193d:	e8 b1 6d ff ff       	callq  86f3 <transparent_crc>
   11942:	8b 45 f8             	mov    -0x8(%rbp),%eax
   11945:	48 63 d0             	movslq %eax,%rdx
   11948:	8b 45 f4             	mov    -0xc(%rbp),%eax
   1194b:	48 63 c8             	movslq %eax,%rcx
   1194e:	8b 45 f0             	mov    -0x10(%rbp),%eax
   11951:	48 63 f0             	movslq %eax,%rsi
   11954:	48 89 d0             	mov    %rdx,%rax
   11957:	48 c1 e0 02          	shl    $0x2,%rax
   1195b:	48 01 d0             	add    %rdx,%rax
   1195e:	48 01 c0             	add    %rax,%rax
   11961:	48 01 d0             	add    %rdx,%rax
   11964:	48 c1 e0 02          	shl    $0x2,%rax
   11968:	48 69 d6 bc 07 00 00 	imul   $0x7bc,%rsi,%rdx
   1196f:	48 01 c2             	add    %rax,%rdx
   11972:	48 69 c1 dc 00 00 00 	imul   $0xdc,%rcx,%rax
   11979:	48 01 c2             	add    %rax,%rdx
   1197c:	48 8d 05 1d b4 00 00 	lea    0xb41d(%rip),%rax        # 1cda0 <g_936+0x20>
   11983:	48 01 d0             	add    %rdx,%rax
   11986:	0f b6 40 08          	movzbl 0x8(%rax),%eax
   1198a:	01 c0                	add    %eax,%eax
   1198c:	d0 f8                	sar    %al
   1198e:	48 0f be c0          	movsbq %al,%rax
   11992:	8b 55 fc             	mov    -0x4(%rbp),%edx
   11995:	48 8d 35 f0 43 00 00 	lea    0x43f0(%rip),%rsi        # 15d8c <g_243+0xd34>
   1199c:	48 89 c7             	mov    %rax,%rdi
   1199f:	e8 4f 6d ff ff       	callq  86f3 <transparent_crc>
   119a4:	83 7d fc 00          	cmpl   $0x0,-0x4(%rbp)
   119a8:	74 1c                	je     119c6 <main+0x1e82>
   119aa:	8b 4d f8             	mov    -0x8(%rbp),%ecx
   119ad:	8b 55 f4             	mov    -0xc(%rbp),%edx
   119b0:	8b 45 f0             	mov    -0x10(%rbp),%eax
   119b3:	89 c6                	mov    %eax,%esi
   119b5:	48 8d 3d ac 42 00 00 	lea    0x42ac(%rip),%rdi        # 15c68 <g_243+0xc10>
   119bc:	b8 00 00 00 00       	mov    $0x0,%eax
   119c1:	e8 ba 56 ff ff       	callq  7080 <printf@plt>
   119c6:	83 45 f8 01          	addl   $0x1,-0x8(%rbp)
   119ca:	83 7d f8 04          	cmpl   $0x4,-0x8(%rbp)
   119ce:	0f 8e 07 fc ff ff    	jle    115db <main+0x1a97>
   119d4:	83 45 f4 01          	addl   $0x1,-0xc(%rbp)
   119d8:	83 7d f4 08          	cmpl   $0x8,-0xc(%rbp)
   119dc:	0f 8e ed fb ff ff    	jle    115cf <main+0x1a8b>
   119e2:	83 45 f0 01          	addl   $0x1,-0x10(%rbp)
   119e6:	83 7d f0 04          	cmpl   $0x4,-0x10(%rbp)
   119ea:	0f 8e d3 fb ff ff    	jle    115c3 <main+0x1a7f>
   119f0:	48 8b 05 49 da 00 00 	mov    0xda49(%rip),%rax        # 1f440 <g_965>
   119f7:	c1 e0 05             	shl    $0x5,%eax
   119fa:	66 c1 f8 05          	sar    $0x5,%ax
   119fe:	48 0f bf c0          	movswq %ax,%rax
   11a02:	8b 55 fc             	mov    -0x4(%rbp),%edx
   11a05:	48 8d 35 92 43 00 00 	lea    0x4392(%rip),%rsi        # 15d9e <g_243+0xd46>
   11a0c:	48 89 c7             	mov    %rax,%rdi
   11a0f:	e8 df 6c ff ff       	callq  86f3 <transparent_crc>
   11a14:	8b 05 2a da 00 00    	mov    0xda2a(%rip),%eax        # 1f444 <g_965+0x4>
   11a1a:	25 ff ff ff 0f       	and    $0xfffffff,%eax
   11a1f:	89 c1                	mov    %eax,%ecx
   11a21:	8b 45 fc             	mov    -0x4(%rbp),%eax
   11a24:	89 c2                	mov    %eax,%edx
   11a26:	48 8d 35 7a 43 00 00 	lea    0x437a(%rip),%rsi        # 15da7 <g_243+0xd4f>
   11a2d:	48 89 cf             	mov    %rcx,%rdi
   11a30:	e8 be 6c ff ff       	callq  86f3 <transparent_crc>
   11a35:	0f b7 05 0c da 00 00 	movzwl 0xda0c(%rip),%eax        # 1f448 <g_965+0x8>
   11a3c:	0f b7 c0             	movzwl %ax,%eax
   11a3f:	8b 55 fc             	mov    -0x4(%rbp),%edx
   11a42:	48 8d 35 67 43 00 00 	lea    0x4367(%rip),%rsi        # 15db0 <g_243+0xd58>
   11a49:	48 89 c7             	mov    %rax,%rdi
   11a4c:	e8 a2 6c ff ff       	callq  86f3 <transparent_crc>
   11a51:	48 8b 05 f0 d9 00 00 	mov    0xd9f0(%rip),%rax        # 1f448 <g_965+0x8>
   11a58:	48 c1 e0 1a          	shl    $0x1a,%rax
   11a5c:	48 c1 f8 2a          	sar    $0x2a,%rax
   11a60:	48 98                	cltq   
   11a62:	8b 55 fc             	mov    -0x4(%rbp),%edx
   11a65:	48 8d 35 50 43 00 00 	lea    0x4350(%rip),%rsi        # 15dbc <g_243+0xd64>
   11a6c:	48 89 c7             	mov    %rax,%rdi
   11a6f:	e8 7f 6c ff ff       	callq  86f3 <transparent_crc>
   11a74:	48 8b 05 d2 d9 00 00 	mov    0xd9d2(%rip),%rax        # 1f44d <g_965+0xd>
   11a7b:	8b 55 fc             	mov    -0x4(%rbp),%edx
   11a7e:	48 8d 35 43 43 00 00 	lea    0x4343(%rip),%rsi        # 15dc8 <g_243+0xd70>
   11a85:	48 89 c7             	mov    %rax,%rdi
   11a88:	e8 66 6c ff ff       	callq  86f3 <transparent_crc>
   11a8d:	0f b7 05 c1 d9 00 00 	movzwl 0xd9c1(%rip),%eax        # 1f455 <g_965+0x15>
   11a94:	48 0f bf c0          	movswq %ax,%rax
   11a98:	8b 55 fc             	mov    -0x4(%rbp),%edx
   11a9b:	48 8d 35 32 43 00 00 	lea    0x4332(%rip),%rsi        # 15dd4 <g_243+0xd7c>
   11aa2:	48 89 c7             	mov    %rax,%rdi
   11aa5:	e8 49 6c ff ff       	callq  86f3 <transparent_crc>
   11aaa:	48 8b 05 a6 d9 00 00 	mov    0xd9a6(%rip),%rax        # 1f457 <g_965+0x17>
   11ab1:	8b 55 fc             	mov    -0x4(%rbp),%edx
   11ab4:	48 8d 35 25 43 00 00 	lea    0x4325(%rip),%rsi        # 15de0 <g_243+0xd88>
   11abb:	48 89 c7             	mov    %rax,%rdi
   11abe:	e8 30 6c ff ff       	callq  86f3 <transparent_crc>
   11ac3:	8b 05 96 d9 00 00    	mov    0xd996(%rip),%eax        # 1f45f <g_965+0x1f>
   11ac9:	48 98                	cltq   
   11acb:	8b 55 fc             	mov    -0x4(%rbp),%edx
   11ace:	48 8d 35 17 43 00 00 	lea    0x4317(%rip),%rsi        # 15dec <g_243+0xd94>
   11ad5:	48 89 c7             	mov    %rax,%rdi
   11ad8:	e8 16 6c ff ff       	callq  86f3 <transparent_crc>
   11add:	8b 05 81 d9 00 00    	mov    0xd981(%rip),%eax        # 1f464 <g_965+0x24>
   11ae3:	25 ff ff ff 7f       	and    $0x7fffffff,%eax
   11ae8:	89 c1                	mov    %eax,%ecx
   11aea:	8b 45 fc             	mov    -0x4(%rbp),%eax
   11aed:	89 c2                	mov    %eax,%edx
   11aef:	48 8d 35 02 43 00 00 	lea    0x4302(%rip),%rsi        # 15df8 <g_243+0xda0>
   11af6:	48 89 cf             	mov    %rcx,%rdi
   11af9:	e8 f5 6b ff ff       	callq  86f3 <transparent_crc>
   11afe:	0f b6 05 63 d9 00 00 	movzbl 0xd963(%rip),%eax        # 1f468 <g_965+0x28>
   11b05:	01 c0                	add    %eax,%eax
   11b07:	d0 f8                	sar    %al
   11b09:	48 0f be c0          	movsbq %al,%rax
   11b0d:	8b 55 fc             	mov    -0x4(%rbp),%edx
   11b10:	48 8d 35 ea 42 00 00 	lea    0x42ea(%rip),%rsi        # 15e01 <g_243+0xda9>
   11b17:	48 89 c7             	mov    %rax,%rdi
   11b1a:	e8 d4 6b ff ff       	callq  86f3 <transparent_crc>
   11b1f:	c7 45 f0 00 00 00 00 	movl   $0x0,-0x10(%rbp)
   11b26:	e9 77 02 00 00       	jmpq   11da2 <main+0x225e>
   11b2b:	c7 45 f4 00 00 00 00 	movl   $0x0,-0xc(%rbp)
   11b32:	e9 5d 02 00 00       	jmpq   11d94 <main+0x2250>
   11b37:	8b 45 f4             	mov    -0xc(%rbp),%eax
   11b3a:	48 63 d0             	movslq %eax,%rdx
   11b3d:	8b 45 f0             	mov    -0x10(%rbp),%eax
   11b40:	48 63 c8             	movslq %eax,%rcx
   11b43:	48 89 d0             	mov    %rdx,%rax
   11b46:	48 01 c0             	add    %rax,%rax
   11b49:	48 01 d0             	add    %rdx,%rax
   11b4c:	48 8d 14 c5 00 00 00 	lea    0x0(,%rax,8),%rdx
   11b53:	00 
   11b54:	48 01 d0             	add    %rdx,%rax
   11b57:	48 89 ca             	mov    %rcx,%rdx
   11b5a:	48 c1 e2 03          	shl    $0x3,%rdx
   11b5e:	48 01 ca             	add    %rcx,%rdx
   11b61:	48 89 d1             	mov    %rdx,%rcx
   11b64:	48 c1 e1 04          	shl    $0x4,%rcx
   11b68:	48 29 d1             	sub    %rdx,%rcx
   11b6b:	48 8d 14 08          	lea    (%rax,%rcx,1),%rdx
   11b6f:	48 8d 05 0a d9 00 00 	lea    0xd90a(%rip),%rax        # 1f480 <g_997>
   11b76:	48 01 d0             	add    %rdx,%rax
   11b79:	0f b7 00             	movzwl (%rax),%eax
   11b7c:	0f b7 c0             	movzwl %ax,%eax
   11b7f:	8b 55 fc             	mov    -0x4(%rbp),%edx
   11b82:	48 8d 35 81 42 00 00 	lea    0x4281(%rip),%rsi        # 15e0a <g_243+0xdb2>
   11b89:	48 89 c7             	mov    %rax,%rdi
   11b8c:	e8 62 6b ff ff       	callq  86f3 <transparent_crc>
   11b91:	8b 45 f4             	mov    -0xc(%rbp),%eax
   11b94:	48 63 d0             	movslq %eax,%rdx
   11b97:	8b 45 f0             	mov    -0x10(%rbp),%eax
   11b9a:	48 63 c8             	movslq %eax,%rcx
   11b9d:	48 89 d0             	mov    %rdx,%rax
   11ba0:	48 01 c0             	add    %rax,%rax
   11ba3:	48 01 d0             	add    %rdx,%rax
   11ba6:	48 8d 14 c5 00 00 00 	lea    0x0(,%rax,8),%rdx
   11bad:	00 
   11bae:	48 01 d0             	add    %rdx,%rax
   11bb1:	48 89 ca             	mov    %rcx,%rdx
   11bb4:	48 c1 e2 03          	shl    $0x3,%rdx
   11bb8:	48 01 ca             	add    %rcx,%rdx
   11bbb:	48 89 d1             	mov    %rdx,%rcx
   11bbe:	48 c1 e1 04          	shl    $0x4,%rcx
   11bc2:	48 29 d1             	sub    %rdx,%rcx
   11bc5:	48 8d 14 08          	lea    (%rax,%rcx,1),%rdx
   11bc9:	48 8d 05 b0 d8 00 00 	lea    0xd8b0(%rip),%rax        # 1f480 <g_997>
   11bd0:	48 01 d0             	add    %rdx,%rax
   11bd3:	0f b6 50 02          	movzbl 0x2(%rax),%edx
   11bd7:	0f b6 48 03          	movzbl 0x3(%rax),%ecx
   11bdb:	48 c1 e1 08          	shl    $0x8,%rcx
   11bdf:	48 09 ca             	or     %rcx,%rdx
   11be2:	0f b6 40 04          	movzbl 0x4(%rax),%eax
   11be6:	83 e0 3f             	and    $0x3f,%eax
   11be9:	48 c1 e0 10          	shl    $0x10,%rax
   11bed:	48 09 d0             	or     %rdx,%rax
   11bf0:	48 c1 e0 2a          	shl    $0x2a,%rax
   11bf4:	48 c1 f8 2a          	sar    $0x2a,%rax
   11bf8:	48 98                	cltq   
   11bfa:	8b 55 fc             	mov    -0x4(%rbp),%edx
   11bfd:	48 8d 35 15 42 00 00 	lea    0x4215(%rip),%rsi        # 15e19 <g_243+0xdc1>
   11c04:	48 89 c7             	mov    %rax,%rdi
   11c07:	e8 e7 6a ff ff       	callq  86f3 <transparent_crc>
   11c0c:	8b 45 f4             	mov    -0xc(%rbp),%eax
   11c0f:	48 63 d0             	movslq %eax,%rdx
   11c12:	8b 45 f0             	mov    -0x10(%rbp),%eax
   11c15:	48 63 c8             	movslq %eax,%rcx
   11c18:	48 89 d0             	mov    %rdx,%rax
   11c1b:	48 01 c0             	add    %rax,%rax
   11c1e:	48 01 d0             	add    %rdx,%rax
   11c21:	48 8d 14 c5 00 00 00 	lea    0x0(,%rax,8),%rdx
   11c28:	00 
   11c29:	48 01 d0             	add    %rdx,%rax
   11c2c:	48 89 ca             	mov    %rcx,%rdx
   11c2f:	48 c1 e2 03          	shl    $0x3,%rdx
   11c33:	48 01 ca             	add    %rcx,%rdx
   11c36:	48 89 d1             	mov    %rdx,%rcx
   11c39:	48 c1 e1 04          	shl    $0x4,%rcx
   11c3d:	48 29 d1             	sub    %rdx,%rcx
   11c40:	48 8d 14 08          	lea    (%rax,%rcx,1),%rdx
   11c44:	48 8d 05 35 d8 00 00 	lea    0xd835(%rip),%rax        # 1f480 <g_997>
   11c4b:	48 01 d0             	add    %rdx,%rax
   11c4e:	48 8b 40 05          	mov    0x5(%rax),%rax
   11c52:	8b 55 fc             	mov    -0x4(%rbp),%edx
   11c55:	48 8d 35 cc 41 00 00 	lea    0x41cc(%rip),%rsi        # 15e28 <g_243+0xdd0>
   11c5c:	48 89 c7             	mov    %rax,%rdi
   11c5f:	e8 8f 6a ff ff       	callq  86f3 <transparent_crc>
   11c64:	8b 45 f4             	mov    -0xc(%rbp),%eax
   11c67:	48 63 d0             	movslq %eax,%rdx
   11c6a:	8b 45 f0             	mov    -0x10(%rbp),%eax
   11c6d:	48 63 c8             	movslq %eax,%rcx
   11c70:	48 89 d0             	mov    %rdx,%rax
   11c73:	48 01 c0             	add    %rax,%rax
   11c76:	48 01 d0             	add    %rdx,%rax
   11c79:	48 8d 14 c5 00 00 00 	lea    0x0(,%rax,8),%rdx
   11c80:	00 
   11c81:	48 01 d0             	add    %rdx,%rax
   11c84:	48 89 ca             	mov    %rcx,%rdx
   11c87:	48 c1 e2 03          	shl    $0x3,%rdx
   11c8b:	48 01 ca             	add    %rcx,%rdx
   11c8e:	48 89 d1             	mov    %rdx,%rcx
   11c91:	48 c1 e1 04          	shl    $0x4,%rcx
   11c95:	48 29 d1             	sub    %rdx,%rcx
   11c98:	48 8d 14 08          	lea    (%rax,%rcx,1),%rdx
   11c9c:	48 8d 05 dd d7 00 00 	lea    0xd7dd(%rip),%rax        # 1f480 <g_997>
   11ca3:	48 01 d0             	add    %rdx,%rax
   11ca6:	0f b7 40 0d          	movzwl 0xd(%rax),%eax
   11caa:	48 0f bf c0          	movswq %ax,%rax
   11cae:	8b 55 fc             	mov    -0x4(%rbp),%edx
   11cb1:	48 8d 35 7f 41 00 00 	lea    0x417f(%rip),%rsi        # 15e37 <g_243+0xddf>
   11cb8:	48 89 c7             	mov    %rax,%rdi
   11cbb:	e8 33 6a ff ff       	callq  86f3 <transparent_crc>
   11cc0:	8b 45 f4             	mov    -0xc(%rbp),%eax
   11cc3:	48 63 d0             	movslq %eax,%rdx
   11cc6:	8b 45 f0             	mov    -0x10(%rbp),%eax
   11cc9:	48 63 c8             	movslq %eax,%rcx
   11ccc:	48 89 d0             	mov    %rdx,%rax
   11ccf:	48 01 c0             	add    %rax,%rax
   11cd2:	48 01 d0             	add    %rdx,%rax
   11cd5:	48 8d 14 c5 00 00 00 	lea    0x0(,%rax,8),%rdx
   11cdc:	00 
   11cdd:	48 01 d0             	add    %rdx,%rax
   11ce0:	48 89 ca             	mov    %rcx,%rdx
   11ce3:	48 c1 e2 03          	shl    $0x3,%rdx
   11ce7:	48 01 ca             	add    %rcx,%rdx
   11cea:	48 89 d1             	mov    %rdx,%rcx
   11ced:	48 c1 e1 04          	shl    $0x4,%rcx
   11cf1:	48 29 d1             	sub    %rdx,%rcx
   11cf4:	48 8d 14 08          	lea    (%rax,%rcx,1),%rdx
   11cf8:	48 8d 05 81 d7 00 00 	lea    0xd781(%rip),%rax        # 1f480 <g_997>
   11cff:	48 01 d0             	add    %rdx,%rax
   11d02:	48 8b 40 0f          	mov    0xf(%rax),%rax
   11d06:	8b 55 fc             	mov    -0x4(%rbp),%edx
   11d09:	48 8d 35 36 41 00 00 	lea    0x4136(%rip),%rsi        # 15e46 <g_243+0xdee>
   11d10:	48 89 c7             	mov    %rax,%rdi
   11d13:	e8 db 69 ff ff       	callq  86f3 <transparent_crc>
   11d18:	8b 45 f4             	mov    -0xc(%rbp),%eax
   11d1b:	48 63 d0             	movslq %eax,%rdx
   11d1e:	8b 45 f0             	mov    -0x10(%rbp),%eax
   11d21:	48 63 c8             	movslq %eax,%rcx
   11d24:	48 89 d0             	mov    %rdx,%rax
   11d27:	48 01 c0             	add    %rax,%rax
   11d2a:	48 01 d0             	add    %rdx,%rax
   11d2d:	48 8d 14 c5 00 00 00 	lea    0x0(,%rax,8),%rdx
   11d34:	00 
   11d35:	48 01 d0             	add    %rdx,%rax
   11d38:	48 89 ca             	mov    %rcx,%rdx
   11d3b:	48 c1 e2 03          	shl    $0x3,%rdx
   11d3f:	48 01 ca             	add    %rcx,%rdx
   11d42:	48 89 d1             	mov    %rdx,%rcx
   11d45:	48 c1 e1 04          	shl    $0x4,%rcx
   11d49:	48 29 d1             	sub    %rdx,%rcx
   11d4c:	48 8d 14 08          	lea    (%rax,%rcx,1),%rdx
   11d50:	48 8d 05 39 d7 00 00 	lea    0xd739(%rip),%rax        # 1f490 <g_997+0x10>
   11d57:	48 01 d0             	add    %rdx,%rax
   11d5a:	8b 40 07             	mov    0x7(%rax),%eax
   11d5d:	48 98                	cltq   
   11d5f:	8b 55 fc             	mov    -0x4(%rbp),%edx
   11d62:	48 8d 35 ec 40 00 00 	lea    0x40ec(%rip),%rsi        # 15e55 <g_243+0xdfd>
   11d69:	48 89 c7             	mov    %rax,%rdi
   11d6c:	e8 82 69 ff ff       	callq  86f3 <transparent_crc>
   11d71:	83 7d fc 00          	cmpl   $0x0,-0x4(%rbp)
   11d75:	74 19                	je     11d90 <main+0x224c>
   11d77:	8b 55 f4             	mov    -0xc(%rbp),%edx
   11d7a:	8b 45 f0             	mov    -0x10(%rbp),%eax
   11d7d:	89 c6                	mov    %eax,%esi
   11d7f:	48 8d 3d de 40 00 00 	lea    0x40de(%rip),%rdi        # 15e64 <g_243+0xe0c>
   11d86:	b8 00 00 00 00       	mov    $0x0,%eax
   11d8b:	e8 f0 52 ff ff       	callq  7080 <printf@plt>
   11d90:	83 45 f4 01          	addl   $0x1,-0xc(%rbp)
   11d94:	83 7d f4 04          	cmpl   $0x4,-0xc(%rbp)
   11d98:	0f 8e 99 fd ff ff    	jle    11b37 <main+0x1ff3>
   11d9e:	83 45 f0 01          	addl   $0x1,-0x10(%rbp)
   11da2:	83 7d f0 00          	cmpl   $0x0,-0x10(%rbp)
   11da6:	0f 8e 7f fd ff ff    	jle    11b2b <main+0x1fe7>
   11dac:	c7 45 f0 00 00 00 00 	movl   $0x0,-0x10(%rbp)
   11db3:	eb 49                	jmp    11dfe <main+0x22ba>
   11db5:	8b 45 f0             	mov    -0x10(%rbp),%eax
   11db8:	48 98                	cltq   
   11dba:	48 8d 14 00          	lea    (%rax,%rax,1),%rdx
   11dbe:	48 8d 05 43 d7 00 00 	lea    0xd743(%rip),%rax        # 1f508 <g_1243>
   11dc5:	0f b7 04 02          	movzwl (%rdx,%rax,1),%eax
   11dc9:	0f b7 c0             	movzwl %ax,%eax
   11dcc:	8b 55 fc             	mov    -0x4(%rbp),%edx
   11dcf:	48 8d 35 a0 40 00 00 	lea    0x40a0(%rip),%rsi        # 15e76 <g_243+0xe1e>
   11dd6:	48 89 c7             	mov    %rax,%rdi
   11dd9:	e8 15 69 ff ff       	callq  86f3 <transparent_crc>
   11dde:	83 7d fc 00          	cmpl   $0x0,-0x4(%rbp)
   11de2:	74 16                	je     11dfa <main+0x22b6>
   11de4:	8b 45 f0             	mov    -0x10(%rbp),%eax
   11de7:	89 c6                	mov    %eax,%esi
   11de9:	48 8d 3d 77 38 00 00 	lea    0x3877(%rip),%rdi        # 15667 <g_243+0x60f>
   11df0:	b8 00 00 00 00       	mov    $0x0,%eax
   11df5:	e8 86 52 ff ff       	callq  7080 <printf@plt>
   11dfa:	83 45 f0 01          	addl   $0x1,-0x10(%rbp)
   11dfe:	83 7d f0 01          	cmpl   $0x1,-0x10(%rbp)
   11e02:	7e b1                	jle    11db5 <main+0x2271>
   11e04:	48 8b 05 15 d7 00 00 	mov    0xd715(%rip),%rax        # 1f520 <g_1246>
   11e0b:	c1 e0 05             	shl    $0x5,%eax
   11e0e:	66 c1 f8 05          	sar    $0x5,%ax
   11e12:	48 0f bf c0          	movswq %ax,%rax
   11e16:	8b 55 fc             	mov    -0x4(%rbp),%edx
   11e19:	48 8d 35 60 40 00 00 	lea    0x4060(%rip),%rsi        # 15e80 <g_243+0xe28>
   11e20:	48 89 c7             	mov    %rax,%rdi
   11e23:	e8 cb 68 ff ff       	callq  86f3 <transparent_crc>
   11e28:	8b 05 f6 d6 00 00    	mov    0xd6f6(%rip),%eax        # 1f524 <g_1246+0x4>
   11e2e:	25 ff ff ff 0f       	and    $0xfffffff,%eax
   11e33:	89 c1                	mov    %eax,%ecx
   11e35:	8b 45 fc             	mov    -0x4(%rbp),%eax
   11e38:	89 c2                	mov    %eax,%edx
   11e3a:	48 8d 35 49 40 00 00 	lea    0x4049(%rip),%rsi        # 15e8a <g_243+0xe32>
   11e41:	48 89 cf             	mov    %rcx,%rdi
   11e44:	e8 aa 68 ff ff       	callq  86f3 <transparent_crc>
   11e49:	0f b7 05 d8 d6 00 00 	movzwl 0xd6d8(%rip),%eax        # 1f528 <g_1246+0x8>
   11e50:	0f b7 c0             	movzwl %ax,%eax
   11e53:	8b 55 fc             	mov    -0x4(%rbp),%edx
   11e56:	48 8d 35 37 40 00 00 	lea    0x4037(%rip),%rsi        # 15e94 <g_243+0xe3c>
   11e5d:	48 89 c7             	mov    %rax,%rdi
   11e60:	e8 8e 68 ff ff       	callq  86f3 <transparent_crc>
   11e65:	48 8b 05 bc d6 00 00 	mov    0xd6bc(%rip),%rax        # 1f528 <g_1246+0x8>
   11e6c:	48 c1 e0 1a          	shl    $0x1a,%rax
   11e70:	48 c1 f8 2a          	sar    $0x2a,%rax
   11e74:	48 98                	cltq   
   11e76:	8b 55 fc             	mov    -0x4(%rbp),%edx
   11e79:	48 8d 35 21 40 00 00 	lea    0x4021(%rip),%rsi        # 15ea1 <g_243+0xe49>
   11e80:	48 89 c7             	mov    %rax,%rdi
   11e83:	e8 6b 68 ff ff       	callq  86f3 <transparent_crc>
   11e88:	48 8b 05 9e d6 00 00 	mov    0xd69e(%rip),%rax        # 1f52d <g_1246+0xd>
   11e8f:	8b 55 fc             	mov    -0x4(%rbp),%edx
   11e92:	48 8d 35 15 40 00 00 	lea    0x4015(%rip),%rsi        # 15eae <g_243+0xe56>
   11e99:	48 89 c7             	mov    %rax,%rdi
   11e9c:	e8 52 68 ff ff       	callq  86f3 <transparent_crc>
   11ea1:	0f b7 05 8d d6 00 00 	movzwl 0xd68d(%rip),%eax        # 1f535 <g_1246+0x15>
   11ea8:	48 0f bf c0          	movswq %ax,%rax
   11eac:	8b 55 fc             	mov    -0x4(%rbp),%edx
   11eaf:	48 8d 35 05 40 00 00 	lea    0x4005(%rip),%rsi        # 15ebb <g_243+0xe63>
   11eb6:	48 89 c7             	mov    %rax,%rdi
   11eb9:	e8 35 68 ff ff       	callq  86f3 <transparent_crc>
   11ebe:	48 8b 05 72 d6 00 00 	mov    0xd672(%rip),%rax        # 1f537 <g_1246+0x17>
   11ec5:	8b 55 fc             	mov    -0x4(%rbp),%edx
   11ec8:	48 8d 35 f9 3f 00 00 	lea    0x3ff9(%rip),%rsi        # 15ec8 <g_243+0xe70>
   11ecf:	48 89 c7             	mov    %rax,%rdi
   11ed2:	e8 1c 68 ff ff       	callq  86f3 <transparent_crc>
   11ed7:	8b 05 62 d6 00 00    	mov    0xd662(%rip),%eax        # 1f53f <g_1246+0x1f>
   11edd:	48 98                	cltq   
   11edf:	8b 55 fc             	mov    -0x4(%rbp),%edx
   11ee2:	48 8d 35 ec 3f 00 00 	lea    0x3fec(%rip),%rsi        # 15ed5 <g_243+0xe7d>
   11ee9:	48 89 c7             	mov    %rax,%rdi
   11eec:	e8 02 68 ff ff       	callq  86f3 <transparent_crc>
   11ef1:	8b 05 4d d6 00 00    	mov    0xd64d(%rip),%eax        # 1f544 <g_1246+0x24>
   11ef7:	25 ff ff ff 7f       	and    $0x7fffffff,%eax
   11efc:	89 c1                	mov    %eax,%ecx
   11efe:	8b 45 fc             	mov    -0x4(%rbp),%eax
   11f01:	89 c2                	mov    %eax,%edx
   11f03:	48 8d 35 d8 3f 00 00 	lea    0x3fd8(%rip),%rsi        # 15ee2 <g_243+0xe8a>
   11f0a:	48 89 cf             	mov    %rcx,%rdi
   11f0d:	e8 e1 67 ff ff       	callq  86f3 <transparent_crc>
   11f12:	0f b6 05 2f d6 00 00 	movzbl 0xd62f(%rip),%eax        # 1f548 <g_1246+0x28>
   11f19:	01 c0                	add    %eax,%eax
   11f1b:	d0 f8                	sar    %al
   11f1d:	48 0f be c0          	movsbq %al,%rax
   11f21:	8b 55 fc             	mov    -0x4(%rbp),%edx
   11f24:	48 8d 35 c1 3f 00 00 	lea    0x3fc1(%rip),%rsi        # 15eec <g_243+0xe94>
   11f2b:	48 89 c7             	mov    %rax,%rdi
   11f2e:	e8 c0 67 ff ff       	callq  86f3 <transparent_crc>
   11f33:	0f b7 05 16 d6 00 00 	movzwl 0xd616(%rip),%eax        # 1f550 <g_1281>
   11f3a:	0f b7 c0             	movzwl %ax,%eax
   11f3d:	8b 55 fc             	mov    -0x4(%rbp),%edx
   11f40:	48 8d 35 af 3f 00 00 	lea    0x3faf(%rip),%rsi        # 15ef6 <g_243+0xe9e>
   11f47:	48 89 c7             	mov    %rax,%rdi
   11f4a:	e8 a4 67 ff ff       	callq  86f3 <transparent_crc>
   11f4f:	48 8b 05 fa d5 00 00 	mov    0xd5fa(%rip),%rax        # 1f550 <g_1281>
   11f56:	48 c1 e0 1a          	shl    $0x1a,%rax
   11f5a:	48 c1 f8 2a          	sar    $0x2a,%rax
   11f5e:	48 98                	cltq   
   11f60:	8b 55 fc             	mov    -0x4(%rbp),%edx
   11f63:	48 8d 35 96 3f 00 00 	lea    0x3f96(%rip),%rsi        # 15f00 <g_243+0xea8>
   11f6a:	48 89 c7             	mov    %rax,%rdi
   11f6d:	e8 81 67 ff ff       	callq  86f3 <transparent_crc>
   11f72:	48 8b 05 dc d5 00 00 	mov    0xd5dc(%rip),%rax        # 1f555 <g_1281+0x5>
   11f79:	8b 55 fc             	mov    -0x4(%rbp),%edx
   11f7c:	48 8d 35 87 3f 00 00 	lea    0x3f87(%rip),%rsi        # 15f0a <g_243+0xeb2>
   11f83:	48 89 c7             	mov    %rax,%rdi
   11f86:	e8 68 67 ff ff       	callq  86f3 <transparent_crc>
   11f8b:	0f b7 05 cb d5 00 00 	movzwl 0xd5cb(%rip),%eax        # 1f55d <g_1281+0xd>
   11f92:	48 0f bf c0          	movswq %ax,%rax
   11f96:	8b 55 fc             	mov    -0x4(%rbp),%edx
   11f99:	48 8d 35 74 3f 00 00 	lea    0x3f74(%rip),%rsi        # 15f14 <g_243+0xebc>
   11fa0:	48 89 c7             	mov    %rax,%rdi
   11fa3:	e8 4b 67 ff ff       	callq  86f3 <transparent_crc>
   11fa8:	48 8b 05 b0 d5 00 00 	mov    0xd5b0(%rip),%rax        # 1f55f <g_1281+0xf>
   11faf:	8b 55 fc             	mov    -0x4(%rbp),%edx
   11fb2:	48 8d 35 65 3f 00 00 	lea    0x3f65(%rip),%rsi        # 15f1e <g_243+0xec6>
   11fb9:	48 89 c7             	mov    %rax,%rdi
   11fbc:	e8 32 67 ff ff       	callq  86f3 <transparent_crc>
   11fc1:	8b 05 a0 d5 00 00    	mov    0xd5a0(%rip),%eax        # 1f567 <g_1281+0x17>
   11fc7:	48 98                	cltq   
   11fc9:	8b 55 fc             	mov    -0x4(%rbp),%edx
   11fcc:	48 8d 35 55 3f 00 00 	lea    0x3f55(%rip),%rsi        # 15f28 <g_243+0xed0>
   11fd3:	48 89 c7             	mov    %rax,%rdi
   11fd6:	e8 18 67 ff ff       	callq  86f3 <transparent_crc>
   11fdb:	c7 45 f0 00 00 00 00 	movl   $0x0,-0x10(%rbp)
   11fe2:	e9 66 03 00 00       	jmpq   1234d <main+0x2809>
   11fe7:	c7 45 f4 00 00 00 00 	movl   $0x0,-0xc(%rbp)
   11fee:	e9 4c 03 00 00       	jmpq   1233f <main+0x27fb>
   11ff3:	8b 45 f4             	mov    -0xc(%rbp),%eax
   11ff6:	48 63 d0             	movslq %eax,%rdx
   11ff9:	8b 45 f0             	mov    -0x10(%rbp),%eax
   11ffc:	48 63 c8             	movslq %eax,%rcx
   11fff:	48 89 d0             	mov    %rdx,%rax
   12002:	48 c1 e0 02          	shl    $0x2,%rax
   12006:	48 01 d0             	add    %rdx,%rax
   12009:	48 01 c0             	add    %rax,%rax
   1200c:	48 01 d0             	add    %rdx,%rax
   1200f:	48 c1 e0 02          	shl    $0x2,%rax
   12013:	48 69 d1 b8 01 00 00 	imul   $0x1b8,%rcx,%rdx
   1201a:	48 01 c2             	add    %rax,%rdx
   1201d:	48 8d 05 5c d5 00 00 	lea    0xd55c(%rip),%rax        # 1f580 <g_1332>
   12024:	48 01 d0             	add    %rdx,%rax
   12027:	8b 00                	mov    (%rax),%eax
   12029:	c1 e0 05             	shl    $0x5,%eax
   1202c:	66 c1 f8 05          	sar    $0x5,%ax
   12030:	48 0f bf c0          	movswq %ax,%rax
   12034:	8b 55 fc             	mov    -0x4(%rbp),%edx
   12037:	48 8d 35 f4 3e 00 00 	lea    0x3ef4(%rip),%rsi        # 15f32 <g_243+0xeda>
   1203e:	48 89 c7             	mov    %rax,%rdi
   12041:	e8 ad 66 ff ff       	callq  86f3 <transparent_crc>
   12046:	8b 45 f4             	mov    -0xc(%rbp),%eax
   12049:	48 63 d0             	movslq %eax,%rdx
   1204c:	8b 45 f0             	mov    -0x10(%rbp),%eax
   1204f:	48 63 c8             	movslq %eax,%rcx
   12052:	48 89 d0             	mov    %rdx,%rax
   12055:	48 c1 e0 02          	shl    $0x2,%rax
   12059:	48 01 d0             	add    %rdx,%rax
   1205c:	48 01 c0             	add    %rax,%rax
   1205f:	48 01 d0             	add    %rdx,%rax
   12062:	48 c1 e0 02          	shl    $0x2,%rax
   12066:	48 69 d1 b8 01 00 00 	imul   $0x1b8,%rcx,%rdx
   1206d:	48 01 c2             	add    %rax,%rdx
   12070:	48 8d 05 09 d5 00 00 	lea    0xd509(%rip),%rax        # 1f580 <g_1332>
   12077:	48 01 d0             	add    %rdx,%rax
   1207a:	8b 40 04             	mov    0x4(%rax),%eax
   1207d:	25 ff ff ff 0f       	and    $0xfffffff,%eax
   12082:	89 c1                	mov    %eax,%ecx
   12084:	8b 45 fc             	mov    -0x4(%rbp),%eax
   12087:	89 c2                	mov    %eax,%edx
   12089:	48 8d 35 b2 3e 00 00 	lea    0x3eb2(%rip),%rsi        # 15f42 <g_243+0xeea>
   12090:	48 89 cf             	mov    %rcx,%rdi
   12093:	e8 5b 66 ff ff       	callq  86f3 <transparent_crc>
   12098:	8b 45 f4             	mov    -0xc(%rbp),%eax
   1209b:	48 63 d0             	movslq %eax,%rdx
   1209e:	8b 45 f0             	mov    -0x10(%rbp),%eax
   120a1:	48 63 c8             	movslq %eax,%rcx
   120a4:	48 89 d0             	mov    %rdx,%rax
   120a7:	48 c1 e0 02          	shl    $0x2,%rax
   120ab:	48 01 d0             	add    %rdx,%rax
   120ae:	48 01 c0             	add    %rax,%rax
   120b1:	48 01 d0             	add    %rdx,%rax
   120b4:	48 c1 e0 02          	shl    $0x2,%rax
   120b8:	48 69 d1 b8 01 00 00 	imul   $0x1b8,%rcx,%rdx
   120bf:	48 01 c2             	add    %rax,%rdx
   120c2:	48 8d 05 bf d4 00 00 	lea    0xd4bf(%rip),%rax        # 1f588 <g_1332+0x8>
   120c9:	48 01 d0             	add    %rdx,%rax
   120cc:	0f b7 00             	movzwl (%rax),%eax
   120cf:	0f b7 c0             	movzwl %ax,%eax
   120d2:	8b 55 fc             	mov    -0x4(%rbp),%edx
   120d5:	48 8d 35 76 3e 00 00 	lea    0x3e76(%rip),%rsi        # 15f52 <g_243+0xefa>
   120dc:	48 89 c7             	mov    %rax,%rdi
   120df:	e8 0f 66 ff ff       	callq  86f3 <transparent_crc>
   120e4:	8b 45 f4             	mov    -0xc(%rbp),%eax
   120e7:	48 63 d0             	movslq %eax,%rdx
   120ea:	8b 45 f0             	mov    -0x10(%rbp),%eax
   120ed:	48 63 c8             	movslq %eax,%rcx
   120f0:	48 89 d0             	mov    %rdx,%rax
   120f3:	48 c1 e0 02          	shl    $0x2,%rax
   120f7:	48 01 d0             	add    %rdx,%rax
   120fa:	48 01 c0             	add    %rax,%rax
   120fd:	48 01 d0             	add    %rdx,%rax
   12100:	48 c1 e0 02          	shl    $0x2,%rax
   12104:	48 69 d1 b8 01 00 00 	imul   $0x1b8,%rcx,%rdx
   1210b:	48 01 c2             	add    %rax,%rdx
   1210e:	48 8d 05 6b d4 00 00 	lea    0xd46b(%rip),%rax        # 1f580 <g_1332>
   12115:	48 01 d0             	add    %rdx,%rax
   12118:	8b 50 08             	mov    0x8(%rax),%edx
   1211b:	c1 ea 10             	shr    $0x10,%edx
   1211e:	89 d2                	mov    %edx,%edx
   12120:	8b 40 0c             	mov    0xc(%rax),%eax
   12123:	89 c0                	mov    %eax,%eax
   12125:	83 e0 3f             	and    $0x3f,%eax
   12128:	48 c1 e0 10          	shl    $0x10,%rax
   1212c:	48 09 d0             	or     %rdx,%rax
   1212f:	48 c1 e0 2a          	shl    $0x2a,%rax
   12133:	48 c1 f8 2a          	sar    $0x2a,%rax
   12137:	48 98                	cltq   
   12139:	8b 55 fc             	mov    -0x4(%rbp),%edx
   1213c:	48 8d 35 22 3e 00 00 	lea    0x3e22(%rip),%rsi        # 15f65 <g_243+0xf0d>
   12143:	48 89 c7             	mov    %rax,%rdi
   12146:	e8 a8 65 ff ff       	callq  86f3 <transparent_crc>
   1214b:	8b 45 f4             	mov    -0xc(%rbp),%eax
   1214e:	48 63 d0             	movslq %eax,%rdx
   12151:	8b 45 f0             	mov    -0x10(%rbp),%eax
   12154:	48 63 c8             	movslq %eax,%rcx
   12157:	48 89 d0             	mov    %rdx,%rax
   1215a:	48 c1 e0 02          	shl    $0x2,%rax
   1215e:	48 01 d0             	add    %rdx,%rax
   12161:	48 01 c0             	add    %rax,%rax
   12164:	48 01 d0             	add    %rdx,%rax
   12167:	48 c1 e0 02          	shl    $0x2,%rax
   1216b:	48 69 d1 b8 01 00 00 	imul   $0x1b8,%rcx,%rdx
   12172:	48 01 c2             	add    %rax,%rdx
   12175:	48 8d 05 04 d4 00 00 	lea    0xd404(%rip),%rax        # 1f580 <g_1332>
   1217c:	48 01 d0             	add    %rdx,%rax
   1217f:	48 8b 40 0d          	mov    0xd(%rax),%rax
   12183:	8b 55 fc             	mov    -0x4(%rbp),%edx
   12186:	48 8d 35 eb 3d 00 00 	lea    0x3deb(%rip),%rsi        # 15f78 <g_243+0xf20>
   1218d:	48 89 c7             	mov    %rax,%rdi
   12190:	e8 5e 65 ff ff       	callq  86f3 <transparent_crc>
   12195:	8b 45 f4             	mov    -0xc(%rbp),%eax
   12198:	48 63 d0             	movslq %eax,%rdx
   1219b:	8b 45 f0             	mov    -0x10(%rbp),%eax
   1219e:	48 63 c8             	movslq %eax,%rcx
   121a1:	48 89 d0             	mov    %rdx,%rax
   121a4:	48 c1 e0 02          	shl    $0x2,%rax
   121a8:	48 01 d0             	add    %rdx,%rax
   121ab:	48 01 c0             	add    %rax,%rax
   121ae:	48 01 d0             	add    %rdx,%rax
   121b1:	48 c1 e0 02          	shl    $0x2,%rax
   121b5:	48 69 d1 b8 01 00 00 	imul   $0x1b8,%rcx,%rdx
   121bc:	48 01 c2             	add    %rax,%rdx
   121bf:	48 8d 05 ba d3 00 00 	lea    0xd3ba(%rip),%rax        # 1f580 <g_1332>
   121c6:	48 01 d0             	add    %rdx,%rax
   121c9:	0f b7 40 15          	movzwl 0x15(%rax),%eax
   121cd:	48 0f bf c0          	movswq %ax,%rax
   121d1:	8b 55 fc             	mov    -0x4(%rbp),%edx
   121d4:	48 8d 35 b0 3d 00 00 	lea    0x3db0(%rip),%rsi        # 15f8b <g_243+0xf33>
   121db:	48 89 c7             	mov    %rax,%rdi
   121de:	e8 10 65 ff ff       	callq  86f3 <transparent_crc>
   121e3:	8b 45 f4             	mov    -0xc(%rbp),%eax
   121e6:	48 63 d0             	movslq %eax,%rdx
   121e9:	8b 45 f0             	mov    -0x10(%rbp),%eax
   121ec:	48 63 c8             	movslq %eax,%rcx
   121ef:	48 89 d0             	mov    %rdx,%rax
   121f2:	48 c1 e0 02          	shl    $0x2,%rax
   121f6:	48 01 d0             	add    %rdx,%rax
   121f9:	48 01 c0             	add    %rax,%rax
   121fc:	48 01 d0             	add    %rdx,%rax
   121ff:	48 c1 e0 02          	shl    $0x2,%rax
   12203:	48 69 d1 b8 01 00 00 	imul   $0x1b8,%rcx,%rdx
   1220a:	48 01 c2             	add    %rax,%rdx
   1220d:	48 8d 05 6c d3 00 00 	lea    0xd36c(%rip),%rax        # 1f580 <g_1332>
   12214:	48 01 d0             	add    %rdx,%rax
   12217:	48 8b 40 17          	mov    0x17(%rax),%rax
   1221b:	8b 55 fc             	mov    -0x4(%rbp),%edx
   1221e:	48 8d 35 79 3d 00 00 	lea    0x3d79(%rip),%rsi        # 15f9e <g_243+0xf46>
   12225:	48 89 c7             	mov    %rax,%rdi
   12228:	e8 c6 64 ff ff       	callq  86f3 <transparent_crc>
   1222d:	8b 45 f4             	mov    -0xc(%rbp),%eax
   12230:	48 63 d0             	movslq %eax,%rdx
   12233:	8b 45 f0             	mov    -0x10(%rbp),%eax
   12236:	48 63 c8             	movslq %eax,%rcx
   12239:	48 89 d0             	mov    %rdx,%rax
   1223c:	48 c1 e0 02          	shl    $0x2,%rax
   12240:	48 01 d0             	add    %rdx,%rax
   12243:	48 01 c0             	add    %rax,%rax
   12246:	48 01 d0             	add    %rdx,%rax
   12249:	48 c1 e0 02          	shl    $0x2,%rax
   1224d:	48 69 d1 b8 01 00 00 	imul   $0x1b8,%rcx,%rdx
   12254:	48 01 c2             	add    %rax,%rdx
   12257:	48 8d 05 32 d3 00 00 	lea    0xd332(%rip),%rax        # 1f590 <g_1332+0x10>
   1225e:	48 01 d0             	add    %rdx,%rax
   12261:	8b 40 0f             	mov    0xf(%rax),%eax
   12264:	48 98                	cltq   
   12266:	8b 55 fc             	mov    -0x4(%rbp),%edx
   12269:	48 8d 35 41 3d 00 00 	lea    0x3d41(%rip),%rsi        # 15fb1 <g_243+0xf59>
   12270:	48 89 c7             	mov    %rax,%rdi
   12273:	e8 7b 64 ff ff       	callq  86f3 <transparent_crc>
   12278:	8b 45 f4             	mov    -0xc(%rbp),%eax
   1227b:	48 63 d0             	movslq %eax,%rdx
   1227e:	8b 45 f0             	mov    -0x10(%rbp),%eax
   12281:	48 63 c8             	movslq %eax,%rcx
   12284:	48 89 d0             	mov    %rdx,%rax
   12287:	48 c1 e0 02          	shl    $0x2,%rax
   1228b:	48 01 d0             	add    %rdx,%rax
   1228e:	48 01 c0             	add    %rax,%rax
   12291:	48 01 d0             	add    %rdx,%rax
   12294:	48 c1 e0 02          	shl    $0x2,%rax
   12298:	48 69 d1 b8 01 00 00 	imul   $0x1b8,%rcx,%rdx
   1229f:	48 01 c2             	add    %rax,%rdx
   122a2:	48 8d 05 f7 d2 00 00 	lea    0xd2f7(%rip),%rax        # 1f5a0 <g_1332+0x20>
   122a9:	48 01 d0             	add    %rdx,%rax
   122ac:	8b 40 04             	mov    0x4(%rax),%eax
   122af:	25 ff ff ff 7f       	and    $0x7fffffff,%eax
   122b4:	89 c1                	mov    %eax,%ecx
   122b6:	8b 45 fc             	mov    -0x4(%rbp),%eax
   122b9:	89 c2                	mov    %eax,%edx
   122bb:	48 8d 35 02 3d 00 00 	lea    0x3d02(%rip),%rsi        # 15fc4 <g_243+0xf6c>
   122c2:	48 89 cf             	mov    %rcx,%rdi
   122c5:	e8 29 64 ff ff       	callq  86f3 <transparent_crc>
   122ca:	8b 45 f4             	mov    -0xc(%rbp),%eax
   122cd:	48 63 d0             	movslq %eax,%rdx
   122d0:	8b 45 f0             	mov    -0x10(%rbp),%eax
   122d3:	48 63 c8             	movslq %eax,%rcx
   122d6:	48 89 d0             	mov    %rdx,%rax
   122d9:	48 c1 e0 02          	shl    $0x2,%rax
   122dd:	48 01 d0             	add    %rdx,%rax
   122e0:	48 01 c0             	add    %rax,%rax
   122e3:	48 01 d0             	add    %rdx,%rax
   122e6:	48 c1 e0 02          	shl    $0x2,%rax
   122ea:	48 69 d1 b8 01 00 00 	imul   $0x1b8,%rcx,%rdx
   122f1:	48 01 c2             	add    %rax,%rdx
   122f4:	48 8d 05 a5 d2 00 00 	lea    0xd2a5(%rip),%rax        # 1f5a0 <g_1332+0x20>
   122fb:	48 01 d0             	add    %rdx,%rax
   122fe:	0f b6 40 08          	movzbl 0x8(%rax),%eax
   12302:	01 c0                	add    %eax,%eax
   12304:	d0 f8                	sar    %al
   12306:	48 0f be c0          	movsbq %al,%rax
   1230a:	8b 55 fc             	mov    -0x4(%rbp),%edx
   1230d:	48 8d 35 c0 3c 00 00 	lea    0x3cc0(%rip),%rsi        # 15fd4 <g_243+0xf7c>
   12314:	48 89 c7             	mov    %rax,%rdi
   12317:	e8 d7 63 ff ff       	callq  86f3 <transparent_crc>
   1231c:	83 7d fc 00          	cmpl   $0x0,-0x4(%rbp)
   12320:	74 19                	je     1233b <main+0x27f7>
   12322:	8b 55 f4             	mov    -0xc(%rbp),%edx
   12325:	8b 45 f0             	mov    -0x10(%rbp),%eax
   12328:	89 c6                	mov    %eax,%esi
   1232a:	48 8d 3d 33 3b 00 00 	lea    0x3b33(%rip),%rdi        # 15e64 <g_243+0xe0c>
   12331:	b8 00 00 00 00       	mov    $0x0,%eax
   12336:	e8 45 4d ff ff       	callq  7080 <printf@plt>
   1233b:	83 45 f4 01          	addl   $0x1,-0xc(%rbp)
   1233f:	83 7d f4 09          	cmpl   $0x9,-0xc(%rbp)
   12343:	0f 8e aa fc ff ff    	jle    11ff3 <main+0x24af>
   12349:	83 45 f0 01          	addl   $0x1,-0x10(%rbp)
   1234d:	83 7d f0 08          	cmpl   $0x8,-0x10(%rbp)
   12351:	0f 8e 90 fc ff ff    	jle    11fe7 <main+0x24a3>
   12357:	48 8b 05 a2 e1 00 00 	mov    0xe1a2(%rip),%rax        # 20500 <g_1333>
   1235e:	c1 e0 05             	shl    $0x5,%eax
   12361:	66 c1 f8 05          	sar    $0x5,%ax
   12365:	48 0f bf c0          	movswq %ax,%rax
   12369:	8b 55 fc             	mov    -0x4(%rbp),%edx
   1236c:	48 8d 35 71 3c 00 00 	lea    0x3c71(%rip),%rsi        # 15fe4 <g_243+0xf8c>
   12373:	48 89 c7             	mov    %rax,%rdi
   12376:	e8 78 63 ff ff       	callq  86f3 <transparent_crc>
   1237b:	8b 05 83 e1 00 00    	mov    0xe183(%rip),%eax        # 20504 <g_1333+0x4>
   12381:	25 ff ff ff 0f       	and    $0xfffffff,%eax
   12386:	89 c1                	mov    %eax,%ecx
   12388:	8b 45 fc             	mov    -0x4(%rbp),%eax
   1238b:	89 c2                	mov    %eax,%edx
   1238d:	48 8d 35 5a 3c 00 00 	lea    0x3c5a(%rip),%rsi        # 15fee <g_243+0xf96>
   12394:	48 89 cf             	mov    %rcx,%rdi
   12397:	e8 57 63 ff ff       	callq  86f3 <transparent_crc>
   1239c:	0f b7 05 65 e1 00 00 	movzwl 0xe165(%rip),%eax        # 20508 <g_1333+0x8>
   123a3:	0f b7 c0             	movzwl %ax,%eax
   123a6:	8b 55 fc             	mov    -0x4(%rbp),%edx
   123a9:	48 8d 35 48 3c 00 00 	lea    0x3c48(%rip),%rsi        # 15ff8 <g_243+0xfa0>
   123b0:	48 89 c7             	mov    %rax,%rdi
   123b3:	e8 3b 63 ff ff       	callq  86f3 <transparent_crc>
   123b8:	48 8b 05 49 e1 00 00 	mov    0xe149(%rip),%rax        # 20508 <g_1333+0x8>
   123bf:	48 c1 e0 1a          	shl    $0x1a,%rax
   123c3:	48 c1 f8 2a          	sar    $0x2a,%rax
   123c7:	48 98                	cltq   
   123c9:	8b 55 fc             	mov    -0x4(%rbp),%edx
   123cc:	48 8d 35 32 3c 00 00 	lea    0x3c32(%rip),%rsi        # 16005 <g_243+0xfad>
   123d3:	48 89 c7             	mov    %rax,%rdi
   123d6:	e8 18 63 ff ff       	callq  86f3 <transparent_crc>
   123db:	48 8b 05 2b e1 00 00 	mov    0xe12b(%rip),%rax        # 2050d <g_1333+0xd>
   123e2:	8b 55 fc             	mov    -0x4(%rbp),%edx
   123e5:	48 8d 35 26 3c 00 00 	lea    0x3c26(%rip),%rsi        # 16012 <g_243+0xfba>
   123ec:	48 89 c7             	mov    %rax,%rdi
   123ef:	e8 ff 62 ff ff       	callq  86f3 <transparent_crc>
   123f4:	0f b7 05 1a e1 00 00 	movzwl 0xe11a(%rip),%eax        # 20515 <g_1333+0x15>
   123fb:	48 0f bf c0          	movswq %ax,%rax
   123ff:	8b 55 fc             	mov    -0x4(%rbp),%edx
   12402:	48 8d 35 16 3c 00 00 	lea    0x3c16(%rip),%rsi        # 1601f <g_243+0xfc7>
   12409:	48 89 c7             	mov    %rax,%rdi
   1240c:	e8 e2 62 ff ff       	callq  86f3 <transparent_crc>
   12411:	48 8b 05 ff e0 00 00 	mov    0xe0ff(%rip),%rax        # 20517 <g_1333+0x17>
   12418:	8b 55 fc             	mov    -0x4(%rbp),%edx
   1241b:	48 8d 35 0a 3c 00 00 	lea    0x3c0a(%rip),%rsi        # 1602c <g_243+0xfd4>
   12422:	48 89 c7             	mov    %rax,%rdi
   12425:	e8 c9 62 ff ff       	callq  86f3 <transparent_crc>
   1242a:	8b 05 ef e0 00 00    	mov    0xe0ef(%rip),%eax        # 2051f <g_1333+0x1f>
   12430:	48 98                	cltq   
   12432:	8b 55 fc             	mov    -0x4(%rbp),%edx
   12435:	48 8d 35 fd 3b 00 00 	lea    0x3bfd(%rip),%rsi        # 16039 <g_243+0xfe1>
   1243c:	48 89 c7             	mov    %rax,%rdi
   1243f:	e8 af 62 ff ff       	callq  86f3 <transparent_crc>
   12444:	8b 05 da e0 00 00    	mov    0xe0da(%rip),%eax        # 20524 <g_1333+0x24>
   1244a:	25 ff ff ff 7f       	and    $0x7fffffff,%eax
   1244f:	89 c1                	mov    %eax,%ecx
   12451:	8b 45 fc             	mov    -0x4(%rbp),%eax
   12454:	89 c2                	mov    %eax,%edx
   12456:	48 8d 35 e9 3b 00 00 	lea    0x3be9(%rip),%rsi        # 16046 <g_243+0xfee>
   1245d:	48 89 cf             	mov    %rcx,%rdi
   12460:	e8 8e 62 ff ff       	callq  86f3 <transparent_crc>
   12465:	0f b6 05 bc e0 00 00 	movzbl 0xe0bc(%rip),%eax        # 20528 <g_1333+0x28>
   1246c:	01 c0                	add    %eax,%eax
   1246e:	d0 f8                	sar    %al
   12470:	48 0f be c0          	movsbq %al,%rax
   12474:	8b 55 fc             	mov    -0x4(%rbp),%edx
   12477:	48 8d 35 d2 3b 00 00 	lea    0x3bd2(%rip),%rsi        # 16050 <g_243+0xff8>
   1247e:	48 89 c7             	mov    %rax,%rdi
   12481:	e8 6d 62 ff ff       	callq  86f3 <transparent_crc>
   12486:	c7 45 f0 00 00 00 00 	movl   $0x0,-0x10(%rbp)
   1248d:	e9 a3 00 00 00       	jmpq   12535 <main+0x29f1>
   12492:	c7 45 f4 00 00 00 00 	movl   $0x0,-0xc(%rbp)
   12499:	e9 89 00 00 00       	jmpq   12527 <main+0x29e3>
   1249e:	c7 45 f8 00 00 00 00 	movl   $0x0,-0x8(%rbp)
   124a5:	eb 76                	jmp    1251d <main+0x29d9>
   124a7:	8b 45 f8             	mov    -0x8(%rbp),%eax
   124aa:	48 63 c8             	movslq %eax,%rcx
   124ad:	8b 45 f0             	mov    -0x10(%rbp),%eax
   124b0:	48 63 d0             	movslq %eax,%rdx
   124b3:	8b 45 f4             	mov    -0xc(%rbp),%eax
   124b6:	48 63 f0             	movslq %eax,%rsi
   124b9:	48 89 d0             	mov    %rdx,%rax
   124bc:	48 c1 e0 03          	shl    $0x3,%rax
   124c0:	48 29 d0             	sub    %rdx,%rax
   124c3:	48 01 f0             	add    %rsi,%rax
   124c6:	48 c1 e0 03          	shl    $0x3,%rax
   124ca:	48 01 c8             	add    %rcx,%rax
   124cd:	48 8d 14 c5 00 00 00 	lea    0x0(,%rax,8),%rdx
   124d4:	00 
   124d5:	48 8d 05 64 e0 00 00 	lea    0xe064(%rip),%rax        # 20540 <g_1334>
   124dc:	48 8b 04 02          	mov    (%rdx,%rax,1),%rax
   124e0:	48 89 c1             	mov    %rax,%rcx
   124e3:	8b 45 fc             	mov    -0x4(%rbp),%eax
   124e6:	89 c2                	mov    %eax,%edx
   124e8:	48 8d 35 6b 3b 00 00 	lea    0x3b6b(%rip),%rsi        # 1605a <g_243+0x1002>
   124ef:	48 89 cf             	mov    %rcx,%rdi
   124f2:	e8 fc 61 ff ff       	callq  86f3 <transparent_crc>
   124f7:	83 7d fc 00          	cmpl   $0x0,-0x4(%rbp)
   124fb:	74 1c                	je     12519 <main+0x29d5>
   124fd:	8b 4d f8             	mov    -0x8(%rbp),%ecx
   12500:	8b 55 f4             	mov    -0xc(%rbp),%edx
   12503:	8b 45 f0             	mov    -0x10(%rbp),%eax
   12506:	89 c6                	mov    %eax,%esi
   12508:	48 8d 3d 59 37 00 00 	lea    0x3759(%rip),%rdi        # 15c68 <g_243+0xc10>
   1250f:	b8 00 00 00 00       	mov    $0x0,%eax
   12514:	e8 67 4b ff ff       	callq  7080 <printf@plt>
   12519:	83 45 f8 01          	addl   $0x1,-0x8(%rbp)
   1251d:	83 7d f8 07          	cmpl   $0x7,-0x8(%rbp)
   12521:	7e 84                	jle    124a7 <main+0x2963>
   12523:	83 45 f4 01          	addl   $0x1,-0xc(%rbp)
   12527:	83 7d f4 06          	cmpl   $0x6,-0xc(%rbp)
   1252b:	0f 8e 6d ff ff ff    	jle    1249e <main+0x295a>
   12531:	83 45 f0 01          	addl   $0x1,-0x10(%rbp)
   12535:	83 7d f0 01          	cmpl   $0x1,-0x10(%rbp)
   12539:	0f 8e 53 ff ff ff    	jle    12492 <main+0x294e>
   1253f:	48 8b 05 6a 23 01 00 	mov    0x1236a(%rip),%rax        # 248b0 <g_1342>
   12546:	48 89 c1             	mov    %rax,%rcx
   12549:	8b 45 fc             	mov    -0x4(%rbp),%eax
   1254c:	89 c2                	mov    %eax,%edx
   1254e:	48 8d 35 15 3b 00 00 	lea    0x3b15(%rip),%rsi        # 1606a <g_243+0x1012>
   12555:	48 89 cf             	mov    %rcx,%rdi
   12558:	e8 96 61 ff ff       	callq  86f3 <transparent_crc>
   1255d:	0f b6 05 5c 23 01 00 	movzbl 0x1235c(%rip),%eax        # 248c0 <g_1389>
   12564:	0f b6 c0             	movzbl %al,%eax
   12567:	8b 55 fc             	mov    -0x4(%rbp),%edx
   1256a:	48 8d 35 00 3b 00 00 	lea    0x3b00(%rip),%rsi        # 16071 <g_243+0x1019>
   12571:	48 89 c7             	mov    %rax,%rdi
   12574:	e8 7a 61 ff ff       	callq  86f3 <transparent_crc>
   12579:	48 8b 05 60 e3 00 00 	mov    0xe360(%rip),%rax        # 208e0 <g_1429>
   12580:	c1 e0 05             	shl    $0x5,%eax
   12583:	c1 f8 05             	sar    $0x5,%eax
   12586:	48 98                	cltq   
   12588:	8b 55 fc             	mov    -0x4(%rbp),%edx
   1258b:	48 8d 35 e6 3a 00 00 	lea    0x3ae6(%rip),%rsi        # 16078 <g_243+0x1020>
   12592:	48 89 c7             	mov    %rax,%rdi
   12595:	e8 59 61 ff ff       	callq  86f3 <transparent_crc>
   1259a:	48 8b 05 3f e3 00 00 	mov    0xe33f(%rip),%rax        # 208e0 <g_1429>
   125a1:	c1 e0 03             	shl    $0x3,%eax
   125a4:	c1 f8 1e             	sar    $0x1e,%eax
   125a7:	48 0f be c0          	movsbq %al,%rax
   125ab:	8b 55 fc             	mov    -0x4(%rbp),%edx
   125ae:	48 8d 35 cd 3a 00 00 	lea    0x3acd(%rip),%rsi        # 16082 <g_243+0x102a>
   125b5:	48 89 c7             	mov    %rax,%rdi
   125b8:	e8 36 61 ff ff       	callq  86f3 <transparent_crc>
   125bd:	48 8b 05 1c e3 00 00 	mov    0xe31c(%rip),%rax        # 208e0 <g_1429>
   125c4:	48 c1 e8 20          	shr    $0x20,%rax
   125c8:	25 ff ff ff 1f       	and    $0x1fffffff,%eax
   125cd:	89 c1                	mov    %eax,%ecx
   125cf:	8b 45 fc             	mov    -0x4(%rbp),%eax
   125d2:	89 c2                	mov    %eax,%edx
   125d4:	48 8d 35 b1 3a 00 00 	lea    0x3ab1(%rip),%rsi        # 1608c <g_243+0x1034>
   125db:	48 89 cf             	mov    %rcx,%rdi
   125de:	e8 10 61 ff ff       	callq  86f3 <transparent_crc>
   125e3:	48 8b 05 fe e2 00 00 	mov    0xe2fe(%rip),%rax        # 208e8 <g_1429+0x8>
   125ea:	c1 e0 07             	shl    $0x7,%eax
   125ed:	c1 f8 07             	sar    $0x7,%eax
   125f0:	48 98                	cltq   
   125f2:	8b 55 fc             	mov    -0x4(%rbp),%edx
   125f5:	48 8d 35 9a 3a 00 00 	lea    0x3a9a(%rip),%rsi        # 16096 <g_243+0x103e>
   125fc:	48 89 c7             	mov    %rax,%rdi
   125ff:	e8 ef 60 ff ff       	callq  86f3 <transparent_crc>
   12604:	48 8b 05 dd e2 00 00 	mov    0xe2dd(%rip),%rax        # 208e8 <g_1429+0x8>
   1260b:	48 c1 e0 0d          	shl    $0xd,%rax
   1260f:	48 c1 f8 2d          	sar    $0x2d,%rax
   12613:	48 98                	cltq   
   12615:	8b 55 fc             	mov    -0x4(%rbp),%edx
   12618:	48 8d 35 81 3a 00 00 	lea    0x3a81(%rip),%rsi        # 160a0 <g_243+0x1048>
   1261f:	48 89 c7             	mov    %rax,%rdi
   12622:	e8 cc 60 ff ff       	callq  86f3 <transparent_crc>
   12627:	48 8b 05 c2 e2 00 00 	mov    0xe2c2(%rip),%rax        # 208f0 <g_1429+0x10>
   1262e:	25 ff ff 3f 00       	and    $0x3fffff,%eax
   12633:	89 c1                	mov    %eax,%ecx
   12635:	8b 45 fc             	mov    -0x4(%rbp),%eax
   12638:	89 c2                	mov    %eax,%edx
   1263a:	48 8d 35 69 3a 00 00 	lea    0x3a69(%rip),%rsi        # 160aa <g_243+0x1052>
   12641:	48 89 cf             	mov    %rcx,%rdi
   12644:	e8 aa 60 ff ff       	callq  86f3 <transparent_crc>
   12649:	48 8b 05 a8 e2 00 00 	mov    0xe2a8(%rip),%rax        # 208f8 <g_1429+0x18>
   12650:	8b 55 fc             	mov    -0x4(%rbp),%edx
   12653:	48 8d 35 5a 3a 00 00 	lea    0x3a5a(%rip),%rsi        # 160b4 <g_243+0x105c>
   1265a:	48 89 c7             	mov    %rax,%rdi
   1265d:	e8 91 60 ff ff       	callq  86f3 <transparent_crc>
   12662:	48 8b 05 97 e2 00 00 	mov    0xe297(%rip),%rax        # 20900 <g_1429+0x20>
   12669:	c1 e0 06             	shl    $0x6,%eax
   1266c:	66 c1 f8 06          	sar    $0x6,%ax
   12670:	48 0f bf c0          	movswq %ax,%rax
   12674:	8b 55 fc             	mov    -0x4(%rbp),%edx
   12677:	48 8d 35 40 3a 00 00 	lea    0x3a40(%rip),%rsi        # 160be <g_243+0x1066>
   1267e:	48 89 c7             	mov    %rax,%rdi
   12681:	e8 6d 60 ff ff       	callq  86f3 <transparent_crc>
   12686:	8b 05 78 e2 00 00    	mov    0xe278(%rip),%eax        # 20904 <g_1429+0x24>
   1268c:	89 c1                	mov    %eax,%ecx
   1268e:	8b 45 fc             	mov    -0x4(%rbp),%eax
   12691:	89 c2                	mov    %eax,%edx
   12693:	48 8d 35 2e 3a 00 00 	lea    0x3a2e(%rip),%rsi        # 160c8 <g_243+0x1070>
   1269a:	48 89 cf             	mov    %rcx,%rdi
   1269d:	e8 51 60 ff ff       	callq  86f3 <transparent_crc>
   126a2:	48 8b 05 5f e2 00 00 	mov    0xe25f(%rip),%rax        # 20908 <g_1429+0x28>
   126a9:	c1 e0 02             	shl    $0x2,%eax
   126ac:	c1 f8 02             	sar    $0x2,%eax
   126af:	48 98                	cltq   
   126b1:	8b 55 fc             	mov    -0x4(%rbp),%edx
   126b4:	48 8d 35 17 3a 00 00 	lea    0x3a17(%rip),%rsi        # 160d2 <g_243+0x107a>
   126bb:	48 89 c7             	mov    %rax,%rdi
   126be:	e8 30 60 ff ff       	callq  86f3 <transparent_crc>
   126c3:	8b 05 0f 22 01 00    	mov    0x1220f(%rip),%eax        # 248d8 <g_1530>
   126c9:	48 98                	cltq   
   126cb:	8b 55 fc             	mov    -0x4(%rbp),%edx
   126ce:	48 8d 35 07 3a 00 00 	lea    0x3a07(%rip),%rsi        # 160dc <g_243+0x1084>
   126d5:	48 89 c7             	mov    %rax,%rdi
   126d8:	e8 16 60 ff ff       	callq  86f3 <transparent_crc>
   126dd:	c7 45 f0 00 00 00 00 	movl   $0x0,-0x10(%rbp)
   126e4:	e9 8e 03 00 00       	jmpq   12a77 <main+0x2f33>
   126e9:	c7 45 f4 00 00 00 00 	movl   $0x0,-0xc(%rbp)
   126f0:	e9 74 03 00 00       	jmpq   12a69 <main+0x2f25>
   126f5:	8b 45 f4             	mov    -0xc(%rbp),%eax
   126f8:	48 98                	cltq   
   126fa:	8b 55 f0             	mov    -0x10(%rbp),%edx
   126fd:	48 63 ca             	movslq %edx,%rcx
   12700:	48 89 c2             	mov    %rax,%rdx
   12703:	48 01 d2             	add    %rdx,%rdx
   12706:	48 01 c2             	add    %rax,%rdx
   12709:	48 89 d0             	mov    %rdx,%rax
   1270c:	48 c1 e0 04          	shl    $0x4,%rax
   12710:	48 89 c2             	mov    %rax,%rdx
   12713:	48 89 c8             	mov    %rcx,%rax
   12716:	48 01 c0             	add    %rax,%rax
   12719:	48 01 c8             	add    %rcx,%rax
   1271c:	48 c1 e0 07          	shl    $0x7,%rax
   12720:	48 01 c2             	add    %rax,%rdx
   12723:	48 8d 05 f6 e1 00 00 	lea    0xe1f6(%rip),%rax        # 20920 <g_1608>
   1272a:	48 01 d0             	add    %rdx,%rax
   1272d:	8b 00                	mov    (%rax),%eax
   1272f:	c1 e0 05             	shl    $0x5,%eax
   12732:	c1 f8 05             	sar    $0x5,%eax
   12735:	48 98                	cltq   
   12737:	8b 55 fc             	mov    -0x4(%rbp),%edx
   1273a:	48 8d 35 a2 39 00 00 	lea    0x39a2(%rip),%rsi        # 160e3 <g_243+0x108b>
   12741:	48 89 c7             	mov    %rax,%rdi
   12744:	e8 aa 5f ff ff       	callq  86f3 <transparent_crc>
   12749:	8b 45 f4             	mov    -0xc(%rbp),%eax
   1274c:	48 98                	cltq   
   1274e:	8b 55 f0             	mov    -0x10(%rbp),%edx
   12751:	48 63 ca             	movslq %edx,%rcx
   12754:	48 89 c2             	mov    %rax,%rdx
   12757:	48 01 d2             	add    %rdx,%rdx
   1275a:	48 01 c2             	add    %rax,%rdx
   1275d:	48 89 d0             	mov    %rdx,%rax
   12760:	48 c1 e0 04          	shl    $0x4,%rax
   12764:	48 89 c2             	mov    %rax,%rdx
   12767:	48 89 c8             	mov    %rcx,%rax
   1276a:	48 01 c0             	add    %rax,%rax
   1276d:	48 01 c8             	add    %rcx,%rax
   12770:	48 c1 e0 07          	shl    $0x7,%rax
   12774:	48 01 c2             	add    %rax,%rdx
   12777:	48 8d 05 a2 e1 00 00 	lea    0xe1a2(%rip),%rax        # 20920 <g_1608>
   1277e:	48 01 d0             	add    %rdx,%rax
   12781:	0f b6 40 03          	movzbl 0x3(%rax),%eax
   12785:	c1 e0 03             	shl    $0x3,%eax
   12788:	c0 f8 06             	sar    $0x6,%al
   1278b:	48 0f be c0          	movsbq %al,%rax
   1278f:	8b 55 fc             	mov    -0x4(%rbp),%edx
   12792:	48 8d 35 5a 39 00 00 	lea    0x395a(%rip),%rsi        # 160f3 <g_243+0x109b>
   12799:	48 89 c7             	mov    %rax,%rdi
   1279c:	e8 52 5f ff ff       	callq  86f3 <transparent_crc>
   127a1:	8b 45 f4             	mov    -0xc(%rbp),%eax
   127a4:	48 98                	cltq   
   127a6:	8b 55 f0             	mov    -0x10(%rbp),%edx
   127a9:	48 63 ca             	movslq %edx,%rcx
   127ac:	48 89 c2             	mov    %rax,%rdx
   127af:	48 01 d2             	add    %rdx,%rdx
   127b2:	48 01 c2             	add    %rax,%rdx
   127b5:	48 89 d0             	mov    %rdx,%rax
   127b8:	48 c1 e0 04          	shl    $0x4,%rax
   127bc:	48 89 c2             	mov    %rax,%rdx
   127bf:	48 89 c8             	mov    %rcx,%rax
   127c2:	48 01 c0             	add    %rax,%rax
   127c5:	48 01 c8             	add    %rcx,%rax
   127c8:	48 c1 e0 07          	shl    $0x7,%rax
   127cc:	48 01 c2             	add    %rax,%rdx
   127cf:	48 8d 05 4a e1 00 00 	lea    0xe14a(%rip),%rax        # 20920 <g_1608>
   127d6:	48 01 d0             	add    %rdx,%rax
   127d9:	48 8b 00             	mov    (%rax),%rax
   127dc:	48 c1 e8 20          	shr    $0x20,%rax
   127e0:	25 ff ff ff 1f       	and    $0x1fffffff,%eax
   127e5:	89 c1                	mov    %eax,%ecx
   127e7:	8b 45 fc             	mov    -0x4(%rbp),%eax
   127ea:	89 c2                	mov    %eax,%edx
   127ec:	48 8d 35 10 39 00 00 	lea    0x3910(%rip),%rsi        # 16103 <g_243+0x10ab>
   127f3:	48 89 cf             	mov    %rcx,%rdi
   127f6:	e8 f8 5e ff ff       	callq  86f3 <transparent_crc>
   127fb:	8b 45 f4             	mov    -0xc(%rbp),%eax
   127fe:	48 98                	cltq   
   12800:	8b 55 f0             	mov    -0x10(%rbp),%edx
   12803:	48 63 ca             	movslq %edx,%rcx
   12806:	48 89 c2             	mov    %rax,%rdx
   12809:	48 01 d2             	add    %rdx,%rdx
   1280c:	48 01 c2             	add    %rax,%rdx
   1280f:	48 89 d0             	mov    %rdx,%rax
   12812:	48 c1 e0 04          	shl    $0x4,%rax
   12816:	48 89 c2             	mov    %rax,%rdx
   12819:	48 89 c8             	mov    %rcx,%rax
   1281c:	48 01 c0             	add    %rax,%rax
   1281f:	48 01 c8             	add    %rcx,%rax
   12822:	48 c1 e0 07          	shl    $0x7,%rax
   12826:	48 01 c2             	add    %rax,%rdx
   12829:	48 8d 05 f0 e0 00 00 	lea    0xe0f0(%rip),%rax        # 20920 <g_1608>
   12830:	48 01 d0             	add    %rdx,%rax
   12833:	48 8b 40 08          	mov    0x8(%rax),%rax
   12837:	c1 e0 07             	shl    $0x7,%eax
   1283a:	c1 f8 07             	sar    $0x7,%eax
   1283d:	48 98                	cltq   
   1283f:	8b 55 fc             	mov    -0x4(%rbp),%edx
   12842:	48 8d 35 ca 38 00 00 	lea    0x38ca(%rip),%rsi        # 16113 <g_243+0x10bb>
   12849:	48 89 c7             	mov    %rax,%rdi
   1284c:	e8 a2 5e ff ff       	callq  86f3 <transparent_crc>
   12851:	8b 45 f4             	mov    -0xc(%rbp),%eax
   12854:	48 98                	cltq   
   12856:	8b 55 f0             	mov    -0x10(%rbp),%edx
   12859:	48 63 ca             	movslq %edx,%rcx
   1285c:	48 89 c2             	mov    %rax,%rdx
   1285f:	48 01 d2             	add    %rdx,%rdx
   12862:	48 01 c2             	add    %rax,%rdx
   12865:	48 89 d0             	mov    %rdx,%rax
   12868:	48 c1 e0 04          	shl    $0x4,%rax
   1286c:	48 89 c2             	mov    %rax,%rdx
   1286f:	48 89 c8             	mov    %rcx,%rax
   12872:	48 01 c0             	add    %rax,%rax
   12875:	48 01 c8             	add    %rcx,%rax
   12878:	48 c1 e0 07          	shl    $0x7,%rax
   1287c:	48 01 c2             	add    %rax,%rdx
   1287f:	48 8d 05 9a e0 00 00 	lea    0xe09a(%rip),%rax        # 20920 <g_1608>
   12886:	48 01 d0             	add    %rdx,%rax
   12889:	8b 40 0c             	mov    0xc(%rax),%eax
   1288c:	c1 e0 0d             	shl    $0xd,%eax
   1288f:	c1 f8 0d             	sar    $0xd,%eax
   12892:	48 98                	cltq   
   12894:	8b 55 fc             	mov    -0x4(%rbp),%edx
   12897:	48 8d 35 85 38 00 00 	lea    0x3885(%rip),%rsi        # 16123 <g_243+0x10cb>
   1289e:	48 89 c7             	mov    %rax,%rdi
   128a1:	e8 4d 5e ff ff       	callq  86f3 <transparent_crc>
   128a6:	8b 45 f4             	mov    -0xc(%rbp),%eax
   128a9:	48 98                	cltq   
   128ab:	8b 55 f0             	mov    -0x10(%rbp),%edx
   128ae:	48 63 ca             	movslq %edx,%rcx
   128b1:	48 89 c2             	mov    %rax,%rdx
   128b4:	48 01 d2             	add    %rdx,%rdx
   128b7:	48 01 c2             	add    %rax,%rdx
   128ba:	48 89 d0             	mov    %rdx,%rax
   128bd:	48 c1 e0 04          	shl    $0x4,%rax
   128c1:	48 89 c2             	mov    %rax,%rdx
   128c4:	48 89 c8             	mov    %rcx,%rax
   128c7:	48 01 c0             	add    %rax,%rax
   128ca:	48 01 c8             	add    %rcx,%rax
   128cd:	48 c1 e0 07          	shl    $0x7,%rax
   128d1:	48 01 c2             	add    %rax,%rdx
   128d4:	48 8d 05 55 e0 00 00 	lea    0xe055(%rip),%rax        # 20930 <g_1608+0x10>
   128db:	48 01 d0             	add    %rdx,%rax
   128de:	8b 00                	mov    (%rax),%eax
   128e0:	25 ff ff 3f 00       	and    $0x3fffff,%eax
   128e5:	89 c1                	mov    %eax,%ecx
   128e7:	8b 45 fc             	mov    -0x4(%rbp),%eax
   128ea:	89 c2                	mov    %eax,%edx
   128ec:	48 8d 35 40 38 00 00 	lea    0x3840(%rip),%rsi        # 16133 <g_243+0x10db>
   128f3:	48 89 cf             	mov    %rcx,%rdi
   128f6:	e8 f8 5d ff ff       	callq  86f3 <transparent_crc>
   128fb:	8b 45 f4             	mov    -0xc(%rbp),%eax
   128fe:	48 98                	cltq   
   12900:	8b 55 f0             	mov    -0x10(%rbp),%edx
   12903:	48 63 ca             	movslq %edx,%rcx
   12906:	48 89 c2             	mov    %rax,%rdx
   12909:	48 01 d2             	add    %rdx,%rdx
   1290c:	48 01 c2             	add    %rax,%rdx
   1290f:	48 89 d0             	mov    %rdx,%rax
   12912:	48 c1 e0 04          	shl    $0x4,%rax
   12916:	48 89 c2             	mov    %rax,%rdx
   12919:	48 89 c8             	mov    %rcx,%rax
   1291c:	48 01 c0             	add    %rax,%rax
   1291f:	48 01 c8             	add    %rcx,%rax
   12922:	48 c1 e0 07          	shl    $0x7,%rax
   12926:	48 01 c2             	add    %rax,%rdx
   12929:	48 8d 05 08 e0 00 00 	lea    0xe008(%rip),%rax        # 20938 <g_1608+0x18>
   12930:	48 01 d0             	add    %rdx,%rax
   12933:	48 8b 00             	mov    (%rax),%rax
   12936:	8b 55 fc             	mov    -0x4(%rbp),%edx
   12939:	48 8d 35 03 38 00 00 	lea    0x3803(%rip),%rsi        # 16143 <g_243+0x10eb>
   12940:	48 89 c7             	mov    %rax,%rdi
   12943:	e8 ab 5d ff ff       	callq  86f3 <transparent_crc>
   12948:	8b 45 f4             	mov    -0xc(%rbp),%eax
   1294b:	48 98                	cltq   
   1294d:	8b 55 f0             	mov    -0x10(%rbp),%edx
   12950:	48 63 ca             	movslq %edx,%rcx
   12953:	48 89 c2             	mov    %rax,%rdx
   12956:	48 01 d2             	add    %rdx,%rdx
   12959:	48 01 c2             	add    %rax,%rdx
   1295c:	48 89 d0             	mov    %rdx,%rax
   1295f:	48 c1 e0 04          	shl    $0x4,%rax
   12963:	48 89 c2             	mov    %rax,%rdx
   12966:	48 89 c8             	mov    %rcx,%rax
   12969:	48 01 c0             	add    %rax,%rax
   1296c:	48 01 c8             	add    %rcx,%rax
   1296f:	48 c1 e0 07          	shl    $0x7,%rax
   12973:	48 01 c2             	add    %rax,%rdx
   12976:	48 8d 05 c3 df 00 00 	lea    0xdfc3(%rip),%rax        # 20940 <g_1608+0x20>
   1297d:	48 01 d0             	add    %rdx,%rax
   12980:	0f b7 00             	movzwl (%rax),%eax
   12983:	c1 e0 06             	shl    $0x6,%eax
   12986:	66 c1 f8 06          	sar    $0x6,%ax
   1298a:	48 0f bf c0          	movswq %ax,%rax
   1298e:	8b 55 fc             	mov    -0x4(%rbp),%edx
   12991:	48 8d 35 bb 37 00 00 	lea    0x37bb(%rip),%rsi        # 16153 <g_243+0x10fb>
   12998:	48 89 c7             	mov    %rax,%rdi
   1299b:	e8 53 5d ff ff       	callq  86f3 <transparent_crc>
   129a0:	8b 45 f4             	mov    -0xc(%rbp),%eax
   129a3:	48 98                	cltq   
   129a5:	8b 55 f0             	mov    -0x10(%rbp),%edx
   129a8:	48 63 ca             	movslq %edx,%rcx
   129ab:	48 89 c2             	mov    %rax,%rdx
   129ae:	48 01 d2             	add    %rdx,%rdx
   129b1:	48 01 c2             	add    %rax,%rdx
   129b4:	48 89 d0             	mov    %rdx,%rax
   129b7:	48 c1 e0 04          	shl    $0x4,%rax
   129bb:	48 89 c2             	mov    %rax,%rdx
   129be:	48 89 c8             	mov    %rcx,%rax
   129c1:	48 01 c0             	add    %rax,%rax
   129c4:	48 01 c8             	add    %rcx,%rax
   129c7:	48 c1 e0 07          	shl    $0x7,%rax
   129cb:	48 01 c2             	add    %rax,%rdx
   129ce:	48 8d 05 6f df 00 00 	lea    0xdf6f(%rip),%rax        # 20944 <g_1608+0x24>
   129d5:	48 01 d0             	add    %rdx,%rax
   129d8:	8b 00                	mov    (%rax),%eax
   129da:	89 c1                	mov    %eax,%ecx
   129dc:	8b 45 fc             	mov    -0x4(%rbp),%eax
   129df:	89 c2                	mov    %eax,%edx
   129e1:	48 8d 35 7b 37 00 00 	lea    0x377b(%rip),%rsi        # 16163 <g_243+0x110b>
   129e8:	48 89 cf             	mov    %rcx,%rdi
   129eb:	e8 03 5d ff ff       	callq  86f3 <transparent_crc>
   129f0:	8b 45 f4             	mov    -0xc(%rbp),%eax
   129f3:	48 98                	cltq   
   129f5:	8b 55 f0             	mov    -0x10(%rbp),%edx
   129f8:	48 63 ca             	movslq %edx,%rcx
   129fb:	48 89 c2             	mov    %rax,%rdx
   129fe:	48 01 d2             	add    %rdx,%rdx
   12a01:	48 01 c2             	add    %rax,%rdx
   12a04:	48 89 d0             	mov    %rdx,%rax
   12a07:	48 c1 e0 04          	shl    $0x4,%rax
   12a0b:	48 89 c2             	mov    %rax,%rdx
   12a0e:	48 89 c8             	mov    %rcx,%rax
   12a11:	48 01 c0             	add    %rax,%rax
   12a14:	48 01 c8             	add    %rcx,%rax
   12a17:	48 c1 e0 07          	shl    $0x7,%rax
   12a1b:	48 01 c2             	add    %rax,%rdx
   12a1e:	48 8d 05 1b df 00 00 	lea    0xdf1b(%rip),%rax        # 20940 <g_1608+0x20>
   12a25:	48 01 d0             	add    %rdx,%rax
   12a28:	48 8b 40 08          	mov    0x8(%rax),%rax
   12a2c:	c1 e0 02             	shl    $0x2,%eax
   12a2f:	c1 f8 02             	sar    $0x2,%eax
   12a32:	48 98                	cltq   
   12a34:	8b 55 fc             	mov    -0x4(%rbp),%edx
   12a37:	48 8d 35 35 37 00 00 	lea    0x3735(%rip),%rsi        # 16173 <g_243+0x111b>
   12a3e:	48 89 c7             	mov    %rax,%rdi
   12a41:	e8 ad 5c ff ff       	callq  86f3 <transparent_crc>
   12a46:	83 7d fc 00          	cmpl   $0x0,-0x4(%rbp)
   12a4a:	74 19                	je     12a65 <main+0x2f21>
   12a4c:	8b 55 f4             	mov    -0xc(%rbp),%edx
   12a4f:	8b 45 f0             	mov    -0x10(%rbp),%eax
   12a52:	89 c6                	mov    %eax,%esi
   12a54:	48 8d 3d 09 34 00 00 	lea    0x3409(%rip),%rdi        # 15e64 <g_243+0xe0c>
   12a5b:	b8 00 00 00 00       	mov    $0x0,%eax
   12a60:	e8 1b 46 ff ff       	callq  7080 <printf@plt>
   12a65:	83 45 f4 01          	addl   $0x1,-0xc(%rbp)
   12a69:	83 7d f4 07          	cmpl   $0x7,-0xc(%rbp)
   12a6d:	0f 8e 82 fc ff ff    	jle    126f5 <main+0x2bb1>
   12a73:	83 45 f0 01          	addl   $0x1,-0x10(%rbp)
   12a77:	83 7d f0 05          	cmpl   $0x5,-0x10(%rbp)
   12a7b:	0f 8e 68 fc ff ff    	jle    126e9 <main+0x2ba5>
   12a81:	48 8b 05 98 e7 00 00 	mov    0xe798(%rip),%rax        # 21220 <g_1744>
   12a88:	c1 e0 05             	shl    $0x5,%eax
   12a8b:	c1 f8 05             	sar    $0x5,%eax
   12a8e:	48 98                	cltq   
   12a90:	8b 55 fc             	mov    -0x4(%rbp),%edx
   12a93:	48 8d 35 e9 36 00 00 	lea    0x36e9(%rip),%rsi        # 16183 <g_243+0x112b>
   12a9a:	48 89 c7             	mov    %rax,%rdi
   12a9d:	e8 51 5c ff ff       	callq  86f3 <transparent_crc>
   12aa2:	48 8b 05 77 e7 00 00 	mov    0xe777(%rip),%rax        # 21220 <g_1744>
   12aa9:	c1 e0 03             	shl    $0x3,%eax
   12aac:	c1 f8 1e             	sar    $0x1e,%eax
   12aaf:	48 0f be c0          	movsbq %al,%rax
   12ab3:	8b 55 fc             	mov    -0x4(%rbp),%edx
   12ab6:	48 8d 35 d0 36 00 00 	lea    0x36d0(%rip),%rsi        # 1618d <g_243+0x1135>
   12abd:	48 89 c7             	mov    %rax,%rdi
   12ac0:	e8 2e 5c ff ff       	callq  86f3 <transparent_crc>
   12ac5:	48 8b 05 54 e7 00 00 	mov    0xe754(%rip),%rax        # 21220 <g_1744>
   12acc:	48 c1 e8 20          	shr    $0x20,%rax
   12ad0:	25 ff ff ff 1f       	and    $0x1fffffff,%eax
   12ad5:	89 c1                	mov    %eax,%ecx
   12ad7:	8b 45 fc             	mov    -0x4(%rbp),%eax
   12ada:	89 c2                	mov    %eax,%edx
   12adc:	48 8d 35 b4 36 00 00 	lea    0x36b4(%rip),%rsi        # 16197 <g_243+0x113f>
   12ae3:	48 89 cf             	mov    %rcx,%rdi
   12ae6:	e8 08 5c ff ff       	callq  86f3 <transparent_crc>
   12aeb:	48 8b 05 36 e7 00 00 	mov    0xe736(%rip),%rax        # 21228 <g_1744+0x8>
   12af2:	c1 e0 07             	shl    $0x7,%eax
   12af5:	c1 f8 07             	sar    $0x7,%eax
   12af8:	48 98                	cltq   
   12afa:	8b 55 fc             	mov    -0x4(%rbp),%edx
   12afd:	48 8d 35 9d 36 00 00 	lea    0x369d(%rip),%rsi        # 161a1 <g_243+0x1149>
   12b04:	48 89 c7             	mov    %rax,%rdi
   12b07:	e8 e7 5b ff ff       	callq  86f3 <transparent_crc>
   12b0c:	48 8b 05 15 e7 00 00 	mov    0xe715(%rip),%rax        # 21228 <g_1744+0x8>
   12b13:	48 c1 e0 0d          	shl    $0xd,%rax
   12b17:	48 c1 f8 2d          	sar    $0x2d,%rax
   12b1b:	48 98                	cltq   
   12b1d:	8b 55 fc             	mov    -0x4(%rbp),%edx
   12b20:	48 8d 35 84 36 00 00 	lea    0x3684(%rip),%rsi        # 161ab <g_243+0x1153>
   12b27:	48 89 c7             	mov    %rax,%rdi
   12b2a:	e8 c4 5b ff ff       	callq  86f3 <transparent_crc>
   12b2f:	48 8b 05 fa e6 00 00 	mov    0xe6fa(%rip),%rax        # 21230 <g_1744+0x10>
   12b36:	25 ff ff 3f 00       	and    $0x3fffff,%eax
   12b3b:	89 c1                	mov    %eax,%ecx
   12b3d:	8b 45 fc             	mov    -0x4(%rbp),%eax
   12b40:	89 c2                	mov    %eax,%edx
   12b42:	48 8d 35 6c 36 00 00 	lea    0x366c(%rip),%rsi        # 161b5 <g_243+0x115d>
   12b49:	48 89 cf             	mov    %rcx,%rdi
   12b4c:	e8 a2 5b ff ff       	callq  86f3 <transparent_crc>
   12b51:	48 8b 05 e0 e6 00 00 	mov    0xe6e0(%rip),%rax        # 21238 <g_1744+0x18>
   12b58:	8b 55 fc             	mov    -0x4(%rbp),%edx
   12b5b:	48 8d 35 5d 36 00 00 	lea    0x365d(%rip),%rsi        # 161bf <g_243+0x1167>
   12b62:	48 89 c7             	mov    %rax,%rdi
   12b65:	e8 89 5b ff ff       	callq  86f3 <transparent_crc>
   12b6a:	48 8b 05 cf e6 00 00 	mov    0xe6cf(%rip),%rax        # 21240 <g_1744+0x20>
   12b71:	c1 e0 06             	shl    $0x6,%eax
   12b74:	66 c1 f8 06          	sar    $0x6,%ax
   12b78:	48 0f bf c0          	movswq %ax,%rax
   12b7c:	8b 55 fc             	mov    -0x4(%rbp),%edx
   12b7f:	48 8d 35 43 36 00 00 	lea    0x3643(%rip),%rsi        # 161c9 <g_243+0x1171>
   12b86:	48 89 c7             	mov    %rax,%rdi
   12b89:	e8 65 5b ff ff       	callq  86f3 <transparent_crc>
   12b8e:	8b 05 b0 e6 00 00    	mov    0xe6b0(%rip),%eax        # 21244 <g_1744+0x24>
   12b94:	89 c1                	mov    %eax,%ecx
   12b96:	8b 45 fc             	mov    -0x4(%rbp),%eax
   12b99:	89 c2                	mov    %eax,%edx
   12b9b:	48 8d 35 31 36 00 00 	lea    0x3631(%rip),%rsi        # 161d3 <g_243+0x117b>
   12ba2:	48 89 cf             	mov    %rcx,%rdi
   12ba5:	e8 49 5b ff ff       	callq  86f3 <transparent_crc>
   12baa:	48 8b 05 97 e6 00 00 	mov    0xe697(%rip),%rax        # 21248 <g_1744+0x28>
   12bb1:	c1 e0 02             	shl    $0x2,%eax
   12bb4:	c1 f8 02             	sar    $0x2,%eax
   12bb7:	48 98                	cltq   
   12bb9:	8b 55 fc             	mov    -0x4(%rbp),%edx
   12bbc:	48 8d 35 1a 36 00 00 	lea    0x361a(%rip),%rsi        # 161dd <g_243+0x1185>
   12bc3:	48 89 c7             	mov    %rax,%rdi
   12bc6:	e8 28 5b ff ff       	callq  86f3 <transparent_crc>
   12bcb:	48 8b 05 8e e6 00 00 	mov    0xe68e(%rip),%rax        # 21260 <g_1812>
   12bd2:	c1 e0 05             	shl    $0x5,%eax
   12bd5:	66 c1 f8 05          	sar    $0x5,%ax
   12bd9:	48 0f bf c0          	movswq %ax,%rax
   12bdd:	8b 55 fc             	mov    -0x4(%rbp),%edx
   12be0:	48 8d 35 00 36 00 00 	lea    0x3600(%rip),%rsi        # 161e7 <g_243+0x118f>
   12be7:	48 89 c7             	mov    %rax,%rdi
   12bea:	e8 04 5b ff ff       	callq  86f3 <transparent_crc>
   12bef:	48 8b 05 6a e6 00 00 	mov    0xe66a(%rip),%rax        # 21260 <g_1812>
   12bf6:	48 c1 e8 20          	shr    $0x20,%rax
   12bfa:	25 ff ff ff 0f       	and    $0xfffffff,%eax
   12bff:	89 c1                	mov    %eax,%ecx
   12c01:	8b 45 fc             	mov    -0x4(%rbp),%eax
   12c04:	89 c2                	mov    %eax,%edx
   12c06:	48 8d 35 e4 35 00 00 	lea    0x35e4(%rip),%rsi        # 161f1 <g_243+0x1199>
   12c0d:	48 89 cf             	mov    %rcx,%rdi
   12c10:	e8 de 5a ff ff       	callq  86f3 <transparent_crc>
   12c15:	0f b7 05 4c e6 00 00 	movzwl 0xe64c(%rip),%eax        # 21268 <g_1812+0x8>
   12c1c:	0f b7 c0             	movzwl %ax,%eax
   12c1f:	8b 55 fc             	mov    -0x4(%rbp),%edx
   12c22:	48 8d 35 d2 35 00 00 	lea    0x35d2(%rip),%rsi        # 161fb <g_243+0x11a3>
   12c29:	48 89 c7             	mov    %rax,%rdi
   12c2c:	e8 c2 5a ff ff       	callq  86f3 <transparent_crc>
   12c31:	48 8b 05 30 e6 00 00 	mov    0xe630(%rip),%rax        # 21268 <g_1812+0x8>
   12c38:	48 c1 e0 1a          	shl    $0x1a,%rax
   12c3c:	48 c1 f8 2a          	sar    $0x2a,%rax
   12c40:	48 98                	cltq   
   12c42:	8b 55 fc             	mov    -0x4(%rbp),%edx
   12c45:	48 8d 35 bc 35 00 00 	lea    0x35bc(%rip),%rsi        # 16208 <g_243+0x11b0>
   12c4c:	48 89 c7             	mov    %rax,%rdi
   12c4f:	e8 9f 5a ff ff       	callq  86f3 <transparent_crc>
   12c54:	48 8b 05 12 e6 00 00 	mov    0xe612(%rip),%rax        # 2126d <g_1812+0xd>
   12c5b:	8b 55 fc             	mov    -0x4(%rbp),%edx
   12c5e:	48 8d 35 b0 35 00 00 	lea    0x35b0(%rip),%rsi        # 16215 <g_243+0x11bd>
   12c65:	48 89 c7             	mov    %rax,%rdi
   12c68:	e8 86 5a ff ff       	callq  86f3 <transparent_crc>
   12c6d:	0f b7 05 01 e6 00 00 	movzwl 0xe601(%rip),%eax        # 21275 <g_1812+0x15>
   12c74:	48 0f bf c0          	movswq %ax,%rax
   12c78:	8b 55 fc             	mov    -0x4(%rbp),%edx
   12c7b:	48 8d 35 a0 35 00 00 	lea    0x35a0(%rip),%rsi        # 16222 <g_243+0x11ca>
   12c82:	48 89 c7             	mov    %rax,%rdi
   12c85:	e8 69 5a ff ff       	callq  86f3 <transparent_crc>
   12c8a:	48 8b 05 e6 e5 00 00 	mov    0xe5e6(%rip),%rax        # 21277 <g_1812+0x17>
   12c91:	8b 55 fc             	mov    -0x4(%rbp),%edx
   12c94:	48 8d 35 94 35 00 00 	lea    0x3594(%rip),%rsi        # 1622f <g_243+0x11d7>
   12c9b:	48 89 c7             	mov    %rax,%rdi
   12c9e:	e8 50 5a ff ff       	callq  86f3 <transparent_crc>
   12ca3:	8b 05 d6 e5 00 00    	mov    0xe5d6(%rip),%eax        # 2127f <g_1812+0x1f>
   12ca9:	48 98                	cltq   
   12cab:	8b 55 fc             	mov    -0x4(%rbp),%edx
   12cae:	48 8d 35 87 35 00 00 	lea    0x3587(%rip),%rsi        # 1623c <g_243+0x11e4>
   12cb5:	48 89 c7             	mov    %rax,%rdi
   12cb8:	e8 36 5a ff ff       	callq  86f3 <transparent_crc>
   12cbd:	48 8b 05 bc e5 00 00 	mov    0xe5bc(%rip),%rax        # 21280 <g_1812+0x20>
   12cc4:	48 c1 e8 20          	shr    $0x20,%rax
   12cc8:	25 ff ff ff 7f       	and    $0x7fffffff,%eax
   12ccd:	89 c1                	mov    %eax,%ecx
   12ccf:	8b 45 fc             	mov    -0x4(%rbp),%eax
   12cd2:	89 c2                	mov    %eax,%edx
   12cd4:	48 8d 35 6e 35 00 00 	lea    0x356e(%rip),%rsi        # 16249 <g_243+0x11f1>
   12cdb:	48 89 cf             	mov    %rcx,%rdi
   12cde:	e8 10 5a ff ff       	callq  86f3 <transparent_crc>
   12ce3:	48 8b 05 9e e5 00 00 	mov    0xe59e(%rip),%rax        # 21288 <g_1812+0x28>
   12cea:	01 c0                	add    %eax,%eax
   12cec:	d0 f8                	sar    %al
   12cee:	48 0f be c0          	movsbq %al,%rax
   12cf2:	8b 55 fc             	mov    -0x4(%rbp),%edx
   12cf5:	48 8d 35 57 35 00 00 	lea    0x3557(%rip),%rsi        # 16253 <g_243+0x11fb>
   12cfc:	48 89 c7             	mov    %rax,%rdi
   12cff:	e8 ef 59 ff ff       	callq  86f3 <transparent_crc>
   12d04:	8b 05 96 e5 00 00    	mov    0xe596(%rip),%eax        # 212a0 <g_1853>
   12d0a:	c1 e0 05             	shl    $0x5,%eax
   12d0d:	c1 f8 05             	sar    $0x5,%eax
   12d10:	48 98                	cltq   
   12d12:	8b 55 fc             	mov    -0x4(%rbp),%edx
   12d15:	48 8d 35 41 35 00 00 	lea    0x3541(%rip),%rsi        # 1625d <g_243+0x1205>
   12d1c:	48 89 c7             	mov    %rax,%rdi
   12d1f:	e8 cf 59 ff ff       	callq  86f3 <transparent_crc>
   12d24:	0f b6 05 78 e5 00 00 	movzbl 0xe578(%rip),%eax        # 212a3 <g_1853+0x3>
   12d2b:	c1 e0 03             	shl    $0x3,%eax
   12d2e:	c0 f8 06             	sar    $0x6,%al
   12d31:	48 0f be c0          	movsbq %al,%rax
   12d35:	8b 55 fc             	mov    -0x4(%rbp),%edx
   12d38:	48 8d 35 28 35 00 00 	lea    0x3528(%rip),%rsi        # 16267 <g_243+0x120f>
   12d3f:	48 89 c7             	mov    %rax,%rdi
   12d42:	e8 ac 59 ff ff       	callq  86f3 <transparent_crc>
   12d47:	48 8b 05 52 e5 00 00 	mov    0xe552(%rip),%rax        # 212a0 <g_1853>
   12d4e:	48 c1 e8 20          	shr    $0x20,%rax
   12d52:	25 ff ff ff 1f       	and    $0x1fffffff,%eax
   12d57:	89 c1                	mov    %eax,%ecx
   12d59:	8b 45 fc             	mov    -0x4(%rbp),%eax
   12d5c:	89 c2                	mov    %eax,%edx
   12d5e:	48 8d 35 0c 35 00 00 	lea    0x350c(%rip),%rsi        # 16271 <g_243+0x1219>
   12d65:	48 89 cf             	mov    %rcx,%rdi
   12d68:	e8 86 59 ff ff       	callq  86f3 <transparent_crc>
   12d6d:	48 8b 05 34 e5 00 00 	mov    0xe534(%rip),%rax        # 212a8 <g_1853+0x8>
   12d74:	c1 e0 07             	shl    $0x7,%eax
   12d77:	c1 f8 07             	sar    $0x7,%eax
   12d7a:	48 98                	cltq   
   12d7c:	8b 55 fc             	mov    -0x4(%rbp),%edx
   12d7f:	48 8d 35 f5 34 00 00 	lea    0x34f5(%rip),%rsi        # 1627b <g_243+0x1223>
   12d86:	48 89 c7             	mov    %rax,%rdi
   12d89:	e8 65 59 ff ff       	callq  86f3 <transparent_crc>
   12d8e:	8b 05 18 e5 00 00    	mov    0xe518(%rip),%eax        # 212ac <g_1853+0xc>
   12d94:	c1 e0 0d             	shl    $0xd,%eax
   12d97:	c1 f8 0d             	sar    $0xd,%eax
   12d9a:	48 98                	cltq   
   12d9c:	8b 55 fc             	mov    -0x4(%rbp),%edx
   12d9f:	48 8d 35 df 34 00 00 	lea    0x34df(%rip),%rsi        # 16285 <g_243+0x122d>
   12da6:	48 89 c7             	mov    %rax,%rdi
   12da9:	e8 45 59 ff ff       	callq  86f3 <transparent_crc>
   12dae:	8b 05 fc e4 00 00    	mov    0xe4fc(%rip),%eax        # 212b0 <g_1853+0x10>
   12db4:	25 ff ff 3f 00       	and    $0x3fffff,%eax
   12db9:	89 c1                	mov    %eax,%ecx
   12dbb:	8b 45 fc             	mov    -0x4(%rbp),%eax
   12dbe:	89 c2                	mov    %eax,%edx
   12dc0:	48 8d 35 c8 34 00 00 	lea    0x34c8(%rip),%rsi        # 1628f <g_243+0x1237>
   12dc7:	48 89 cf             	mov    %rcx,%rdi
   12dca:	e8 24 59 ff ff       	callq  86f3 <transparent_crc>
   12dcf:	48 8b 05 e2 e4 00 00 	mov    0xe4e2(%rip),%rax        # 212b8 <g_1853+0x18>
   12dd6:	8b 55 fc             	mov    -0x4(%rbp),%edx
   12dd9:	48 8d 35 b9 34 00 00 	lea    0x34b9(%rip),%rsi        # 16299 <g_243+0x1241>
   12de0:	48 89 c7             	mov    %rax,%rdi
   12de3:	e8 0b 59 ff ff       	callq  86f3 <transparent_crc>
   12de8:	0f b7 05 d1 e4 00 00 	movzwl 0xe4d1(%rip),%eax        # 212c0 <g_1853+0x20>
   12def:	c1 e0 06             	shl    $0x6,%eax
   12df2:	66 c1 f8 06          	sar    $0x6,%ax
   12df6:	48 0f bf c0          	movswq %ax,%rax
   12dfa:	8b 55 fc             	mov    -0x4(%rbp),%edx
   12dfd:	48 8d 35 9f 34 00 00 	lea    0x349f(%rip),%rsi        # 162a3 <g_243+0x124b>
   12e04:	48 89 c7             	mov    %rax,%rdi
   12e07:	e8 e7 58 ff ff       	callq  86f3 <transparent_crc>
   12e0c:	8b 05 b2 e4 00 00    	mov    0xe4b2(%rip),%eax        # 212c4 <g_1853+0x24>
   12e12:	89 c1                	mov    %eax,%ecx
   12e14:	8b 45 fc             	mov    -0x4(%rbp),%eax
   12e17:	89 c2                	mov    %eax,%edx
   12e19:	48 8d 35 8d 34 00 00 	lea    0x348d(%rip),%rsi        # 162ad <g_243+0x1255>
   12e20:	48 89 cf             	mov    %rcx,%rdi
   12e23:	e8 cb 58 ff ff       	callq  86f3 <transparent_crc>
   12e28:	48 8b 05 99 e4 00 00 	mov    0xe499(%rip),%rax        # 212c8 <g_1853+0x28>
   12e2f:	c1 e0 02             	shl    $0x2,%eax
   12e32:	c1 f8 02             	sar    $0x2,%eax
   12e35:	48 98                	cltq   
   12e37:	8b 55 fc             	mov    -0x4(%rbp),%edx
   12e3a:	48 8d 35 76 34 00 00 	lea    0x3476(%rip),%rsi        # 162b7 <g_243+0x125f>
   12e41:	48 89 c7             	mov    %rax,%rdi
   12e44:	e8 aa 58 ff ff       	callq  86f3 <transparent_crc>
   12e49:	8b 05 91 e4 00 00    	mov    0xe491(%rip),%eax        # 212e0 <g_1854>
   12e4f:	c1 e0 05             	shl    $0x5,%eax
   12e52:	c1 f8 05             	sar    $0x5,%eax
   12e55:	48 98                	cltq   
   12e57:	8b 55 fc             	mov    -0x4(%rbp),%edx
   12e5a:	48 8d 35 60 34 00 00 	lea    0x3460(%rip),%rsi        # 162c1 <g_243+0x1269>
   12e61:	48 89 c7             	mov    %rax,%rdi
   12e64:	e8 8a 58 ff ff       	callq  86f3 <transparent_crc>
   12e69:	0f b6 05 73 e4 00 00 	movzbl 0xe473(%rip),%eax        # 212e3 <g_1854+0x3>
   12e70:	c1 e0 03             	shl    $0x3,%eax
   12e73:	c0 f8 06             	sar    $0x6,%al
   12e76:	48 0f be c0          	movsbq %al,%rax
   12e7a:	8b 55 fc             	mov    -0x4(%rbp),%edx
   12e7d:	48 8d 35 47 34 00 00 	lea    0x3447(%rip),%rsi        # 162cb <g_243+0x1273>
   12e84:	48 89 c7             	mov    %rax,%rdi
   12e87:	e8 67 58 ff ff       	callq  86f3 <transparent_crc>
   12e8c:	48 8b 05 4d e4 00 00 	mov    0xe44d(%rip),%rax        # 212e0 <g_1854>
   12e93:	48 c1 e8 20          	shr    $0x20,%rax
   12e97:	25 ff ff ff 1f       	and    $0x1fffffff,%eax
   12e9c:	89 c1                	mov    %eax,%ecx
   12e9e:	8b 45 fc             	mov    -0x4(%rbp),%eax
   12ea1:	89 c2                	mov    %eax,%edx
   12ea3:	48 8d 35 2b 34 00 00 	lea    0x342b(%rip),%rsi        # 162d5 <g_243+0x127d>
   12eaa:	48 89 cf             	mov    %rcx,%rdi
   12ead:	e8 41 58 ff ff       	callq  86f3 <transparent_crc>
   12eb2:	48 8b 05 2f e4 00 00 	mov    0xe42f(%rip),%rax        # 212e8 <g_1854+0x8>
   12eb9:	c1 e0 07             	shl    $0x7,%eax
   12ebc:	c1 f8 07             	sar    $0x7,%eax
   12ebf:	48 98                	cltq   
   12ec1:	8b 55 fc             	mov    -0x4(%rbp),%edx
   12ec4:	48 8d 35 14 34 00 00 	lea    0x3414(%rip),%rsi        # 162df <g_243+0x1287>
   12ecb:	48 89 c7             	mov    %rax,%rdi
   12ece:	e8 20 58 ff ff       	callq  86f3 <transparent_crc>
   12ed3:	8b 05 13 e4 00 00    	mov    0xe413(%rip),%eax        # 212ec <g_1854+0xc>
   12ed9:	c1 e0 0d             	shl    $0xd,%eax
   12edc:	c1 f8 0d             	sar    $0xd,%eax
   12edf:	48 98                	cltq   
   12ee1:	8b 55 fc             	mov    -0x4(%rbp),%edx
   12ee4:	48 8d 35 fe 33 00 00 	lea    0x33fe(%rip),%rsi        # 162e9 <g_243+0x1291>
   12eeb:	48 89 c7             	mov    %rax,%rdi
   12eee:	e8 00 58 ff ff       	callq  86f3 <transparent_crc>
   12ef3:	8b 05 f7 e3 00 00    	mov    0xe3f7(%rip),%eax        # 212f0 <g_1854+0x10>
   12ef9:	25 ff ff 3f 00       	and    $0x3fffff,%eax
   12efe:	89 c1                	mov    %eax,%ecx
   12f00:	8b 45 fc             	mov    -0x4(%rbp),%eax
   12f03:	89 c2                	mov    %eax,%edx
   12f05:	48 8d 35 e7 33 00 00 	lea    0x33e7(%rip),%rsi        # 162f3 <g_243+0x129b>
   12f0c:	48 89 cf             	mov    %rcx,%rdi
   12f0f:	e8 df 57 ff ff       	callq  86f3 <transparent_crc>
   12f14:	48 8b 05 dd e3 00 00 	mov    0xe3dd(%rip),%rax        # 212f8 <g_1854+0x18>
   12f1b:	8b 55 fc             	mov    -0x4(%rbp),%edx
   12f1e:	48 8d 35 d8 33 00 00 	lea    0x33d8(%rip),%rsi        # 162fd <g_243+0x12a5>
   12f25:	48 89 c7             	mov    %rax,%rdi
   12f28:	e8 c6 57 ff ff       	callq  86f3 <transparent_crc>
   12f2d:	0f b7 05 cc e3 00 00 	movzwl 0xe3cc(%rip),%eax        # 21300 <g_1854+0x20>
   12f34:	c1 e0 06             	shl    $0x6,%eax
   12f37:	66 c1 f8 06          	sar    $0x6,%ax
   12f3b:	48 0f bf c0          	movswq %ax,%rax
   12f3f:	8b 55 fc             	mov    -0x4(%rbp),%edx
   12f42:	48 8d 35 be 33 00 00 	lea    0x33be(%rip),%rsi        # 16307 <g_243+0x12af>
   12f49:	48 89 c7             	mov    %rax,%rdi
   12f4c:	e8 a2 57 ff ff       	callq  86f3 <transparent_crc>
   12f51:	8b 05 ad e3 00 00    	mov    0xe3ad(%rip),%eax        # 21304 <g_1854+0x24>
   12f57:	89 c1                	mov    %eax,%ecx
   12f59:	8b 45 fc             	mov    -0x4(%rbp),%eax
   12f5c:	89 c2                	mov    %eax,%edx
   12f5e:	48 8d 35 ac 33 00 00 	lea    0x33ac(%rip),%rsi        # 16311 <g_243+0x12b9>
   12f65:	48 89 cf             	mov    %rcx,%rdi
   12f68:	e8 86 57 ff ff       	callq  86f3 <transparent_crc>
   12f6d:	48 8b 05 94 e3 00 00 	mov    0xe394(%rip),%rax        # 21308 <g_1854+0x28>
   12f74:	c1 e0 02             	shl    $0x2,%eax
   12f77:	c1 f8 02             	sar    $0x2,%eax
   12f7a:	48 98                	cltq   
   12f7c:	8b 55 fc             	mov    -0x4(%rbp),%edx
   12f7f:	48 8d 35 95 33 00 00 	lea    0x3395(%rip),%rsi        # 1631b <g_243+0x12c3>
   12f86:	48 89 c7             	mov    %rax,%rdi
   12f89:	e8 65 57 ff ff       	callq  86f3 <transparent_crc>
   12f8e:	8b 05 7c e3 00 00    	mov    0xe37c(%rip),%eax        # 21310 <g_1866>
   12f94:	89 c1                	mov    %eax,%ecx
   12f96:	8b 45 fc             	mov    -0x4(%rbp),%eax
   12f99:	89 c2                	mov    %eax,%edx
   12f9b:	48 8d 35 83 33 00 00 	lea    0x3383(%rip),%rsi        # 16325 <g_243+0x12cd>
   12fa2:	48 89 cf             	mov    %rcx,%rdi
   12fa5:	e8 49 57 ff ff       	callq  86f3 <transparent_crc>
   12faa:	8b 05 70 e3 00 00    	mov    0xe370(%rip),%eax        # 21320 <g_1869>
   12fb0:	c1 e0 05             	shl    $0x5,%eax
   12fb3:	c1 f8 05             	sar    $0x5,%eax
   12fb6:	48 98                	cltq   
   12fb8:	8b 55 fc             	mov    -0x4(%rbp),%edx
   12fbb:	48 8d 35 6a 33 00 00 	lea    0x336a(%rip),%rsi        # 1632c <g_243+0x12d4>
   12fc2:	48 89 c7             	mov    %rax,%rdi
   12fc5:	e8 29 57 ff ff       	callq  86f3 <transparent_crc>
   12fca:	0f b6 05 52 e3 00 00 	movzbl 0xe352(%rip),%eax        # 21323 <g_1869+0x3>
   12fd1:	c1 e0 03             	shl    $0x3,%eax
   12fd4:	c0 f8 06             	sar    $0x6,%al
   12fd7:	48 0f be c0          	movsbq %al,%rax
   12fdb:	8b 55 fc             	mov    -0x4(%rbp),%edx
   12fde:	48 8d 35 51 33 00 00 	lea    0x3351(%rip),%rsi        # 16336 <g_243+0x12de>
   12fe5:	48 89 c7             	mov    %rax,%rdi
   12fe8:	e8 06 57 ff ff       	callq  86f3 <transparent_crc>
   12fed:	48 8b 05 2c e3 00 00 	mov    0xe32c(%rip),%rax        # 21320 <g_1869>
   12ff4:	48 c1 e8 20          	shr    $0x20,%rax
   12ff8:	25 ff ff ff 1f       	and    $0x1fffffff,%eax
   12ffd:	89 c1                	mov    %eax,%ecx
   12fff:	8b 45 fc             	mov    -0x4(%rbp),%eax
   13002:	89 c2                	mov    %eax,%edx
   13004:	48 8d 35 35 33 00 00 	lea    0x3335(%rip),%rsi        # 16340 <g_243+0x12e8>
   1300b:	48 89 cf             	mov    %rcx,%rdi
   1300e:	e8 e0 56 ff ff       	callq  86f3 <transparent_crc>
   13013:	48 8b 05 0e e3 00 00 	mov    0xe30e(%rip),%rax        # 21328 <g_1869+0x8>
   1301a:	c1 e0 07             	shl    $0x7,%eax
   1301d:	c1 f8 07             	sar    $0x7,%eax
   13020:	48 98                	cltq   
   13022:	8b 55 fc             	mov    -0x4(%rbp),%edx
   13025:	48 8d 35 1e 33 00 00 	lea    0x331e(%rip),%rsi        # 1634a <g_243+0x12f2>
   1302c:	48 89 c7             	mov    %rax,%rdi
   1302f:	e8 bf 56 ff ff       	callq  86f3 <transparent_crc>
   13034:	8b 05 f2 e2 00 00    	mov    0xe2f2(%rip),%eax        # 2132c <g_1869+0xc>
   1303a:	c1 e0 0d             	shl    $0xd,%eax
   1303d:	c1 f8 0d             	sar    $0xd,%eax
   13040:	48 98                	cltq   
   13042:	8b 55 fc             	mov    -0x4(%rbp),%edx
   13045:	48 8d 35 08 33 00 00 	lea    0x3308(%rip),%rsi        # 16354 <g_243+0x12fc>
   1304c:	48 89 c7             	mov    %rax,%rdi
   1304f:	e8 9f 56 ff ff       	callq  86f3 <transparent_crc>
   13054:	8b 05 d6 e2 00 00    	mov    0xe2d6(%rip),%eax        # 21330 <g_1869+0x10>
   1305a:	25 ff ff 3f 00       	and    $0x3fffff,%eax
   1305f:	89 c1                	mov    %eax,%ecx
   13061:	8b 45 fc             	mov    -0x4(%rbp),%eax
   13064:	89 c2                	mov    %eax,%edx
   13066:	48 8d 35 f1 32 00 00 	lea    0x32f1(%rip),%rsi        # 1635e <g_243+0x1306>
   1306d:	48 89 cf             	mov    %rcx,%rdi
   13070:	e8 7e 56 ff ff       	callq  86f3 <transparent_crc>
   13075:	48 8b 05 bc e2 00 00 	mov    0xe2bc(%rip),%rax        # 21338 <g_1869+0x18>
   1307c:	8b 55 fc             	mov    -0x4(%rbp),%edx
   1307f:	48 8d 35 e2 32 00 00 	lea    0x32e2(%rip),%rsi        # 16368 <g_243+0x1310>
   13086:	48 89 c7             	mov    %rax,%rdi
   13089:	e8 65 56 ff ff       	callq  86f3 <transparent_crc>
   1308e:	0f b7 05 ab e2 00 00 	movzwl 0xe2ab(%rip),%eax        # 21340 <g_1869+0x20>
   13095:	c1 e0 06             	shl    $0x6,%eax
   13098:	66 c1 f8 06          	sar    $0x6,%ax
   1309c:	48 0f bf c0          	movswq %ax,%rax
   130a0:	8b 55 fc             	mov    -0x4(%rbp),%edx
   130a3:	48 8d 35 c8 32 00 00 	lea    0x32c8(%rip),%rsi        # 16372 <g_243+0x131a>
   130aa:	48 89 c7             	mov    %rax,%rdi
   130ad:	e8 41 56 ff ff       	callq  86f3 <transparent_crc>
   130b2:	8b 05 8c e2 00 00    	mov    0xe28c(%rip),%eax        # 21344 <g_1869+0x24>
   130b8:	89 c1                	mov    %eax,%ecx
   130ba:	8b 45 fc             	mov    -0x4(%rbp),%eax
   130bd:	89 c2                	mov    %eax,%edx
   130bf:	48 8d 35 b6 32 00 00 	lea    0x32b6(%rip),%rsi        # 1637c <g_243+0x1324>
   130c6:	48 89 cf             	mov    %rcx,%rdi
   130c9:	e8 25 56 ff ff       	callq  86f3 <transparent_crc>
   130ce:	48 8b 05 73 e2 00 00 	mov    0xe273(%rip),%rax        # 21348 <g_1869+0x28>
   130d5:	c1 e0 02             	shl    $0x2,%eax
   130d8:	c1 f8 02             	sar    $0x2,%eax
   130db:	48 98                	cltq   
   130dd:	8b 55 fc             	mov    -0x4(%rbp),%edx
   130e0:	48 8d 35 9f 32 00 00 	lea    0x329f(%rip),%rsi        # 16386 <g_243+0x132e>
   130e7:	48 89 c7             	mov    %rax,%rdi
   130ea:	e8 04 56 ff ff       	callq  86f3 <transparent_crc>
   130ef:	c7 45 f0 00 00 00 00 	movl   $0x0,-0x10(%rbp)
   130f6:	eb 4b                	jmp    13143 <main+0x35ff>
   130f8:	8b 45 f0             	mov    -0x10(%rbp),%eax
   130fb:	48 98                	cltq   
   130fd:	48 8d 14 85 00 00 00 	lea    0x0(,%rax,4),%rdx
   13104:	00 
   13105:	48 8d 05 54 e2 00 00 	lea    0xe254(%rip),%rax        # 21360 <g_1961>
   1310c:	8b 04 02             	mov    (%rdx,%rax,1),%eax
   1310f:	48 98                	cltq   
   13111:	8b 55 fc             	mov    -0x4(%rbp),%edx
   13114:	48 8d 35 75 32 00 00 	lea    0x3275(%rip),%rsi        # 16390 <g_243+0x1338>
   1311b:	48 89 c7             	mov    %rax,%rdi
   1311e:	e8 d0 55 ff ff       	callq  86f3 <transparent_crc>
   13123:	83 7d fc 00          	cmpl   $0x0,-0x4(%rbp)
   13127:	74 16                	je     1313f <main+0x35fb>
   13129:	8b 45 f0             	mov    -0x10(%rbp),%eax
   1312c:	89 c6                	mov    %eax,%esi
   1312e:	48 8d 3d 32 25 00 00 	lea    0x2532(%rip),%rdi        # 15667 <g_243+0x60f>
   13135:	b8 00 00 00 00       	mov    $0x0,%eax
   1313a:	e8 41 3f ff ff       	callq  7080 <printf@plt>
   1313f:	83 45 f0 01          	addl   $0x1,-0x10(%rbp)
   13143:	83 7d f0 09          	cmpl   $0x9,-0x10(%rbp)
   13147:	7e af                	jle    130f8 <main+0x35b4>
   13149:	c7 45 f0 00 00 00 00 	movl   $0x0,-0x10(%rbp)
   13150:	e9 23 04 00 00       	jmpq   13578 <main+0x3a34>
   13155:	c7 45 f4 00 00 00 00 	movl   $0x0,-0xc(%rbp)
   1315c:	e9 09 04 00 00       	jmpq   1356a <main+0x3a26>
   13161:	8b 45 f4             	mov    -0xc(%rbp),%eax
   13164:	48 98                	cltq   
   13166:	8b 55 f0             	mov    -0x10(%rbp),%edx
   13169:	48 63 ca             	movslq %edx,%rcx
   1316c:	48 89 c2             	mov    %rax,%rdx
   1316f:	48 c1 e2 02          	shl    $0x2,%rdx
   13173:	48 01 c2             	add    %rax,%rdx
   13176:	48 01 d2             	add    %rdx,%rdx
   13179:	48 01 c2             	add    %rax,%rdx
   1317c:	48 8d 04 95 00 00 00 	lea    0x0(,%rdx,4),%rax
   13183:	00 
   13184:	48 89 c2             	mov    %rax,%rdx
   13187:	48 89 c8             	mov    %rcx,%rax
   1318a:	48 c1 e0 02          	shl    $0x2,%rax
   1318e:	48 01 c8             	add    %rcx,%rax
   13191:	48 01 c0             	add    %rax,%rax
   13194:	48 01 c8             	add    %rcx,%rax
   13197:	48 c1 e0 03          	shl    $0x3,%rax
   1319b:	48 01 c2             	add    %rax,%rdx
   1319e:	48 8d 05 fb e1 00 00 	lea    0xe1fb(%rip),%rax        # 213a0 <g_1976>
   131a5:	48 01 d0             	add    %rdx,%rax
   131a8:	8b 00                	mov    (%rax),%eax
   131aa:	c1 e0 05             	shl    $0x5,%eax
   131ad:	66 c1 f8 05          	sar    $0x5,%ax
   131b1:	48 0f bf c0          	movswq %ax,%rax
   131b5:	8b 55 fc             	mov    -0x4(%rbp),%edx
   131b8:	48 8d 35 db 31 00 00 	lea    0x31db(%rip),%rsi        # 1639a <g_243+0x1342>
   131bf:	48 89 c7             	mov    %rax,%rdi
   131c2:	e8 2c 55 ff ff       	callq  86f3 <transparent_crc>
   131c7:	8b 45 f4             	mov    -0xc(%rbp),%eax
   131ca:	48 98                	cltq   
   131cc:	8b 55 f0             	mov    -0x10(%rbp),%edx
   131cf:	48 63 ca             	movslq %edx,%rcx
   131d2:	48 89 c2             	mov    %rax,%rdx
   131d5:	48 c1 e2 02          	shl    $0x2,%rdx
   131d9:	48 01 c2             	add    %rax,%rdx
   131dc:	48 01 d2             	add    %rdx,%rdx
   131df:	48 01 c2             	add    %rax,%rdx
   131e2:	48 8d 04 95 00 00 00 	lea    0x0(,%rdx,4),%rax
   131e9:	00 
   131ea:	48 89 c2             	mov    %rax,%rdx
   131ed:	48 89 c8             	mov    %rcx,%rax
   131f0:	48 c1 e0 02          	shl    $0x2,%rax
   131f4:	48 01 c8             	add    %rcx,%rax
   131f7:	48 01 c0             	add    %rax,%rax
   131fa:	48 01 c8             	add    %rcx,%rax
   131fd:	48 c1 e0 03          	shl    $0x3,%rax
   13201:	48 01 c2             	add    %rax,%rdx
   13204:	48 8d 05 95 e1 00 00 	lea    0xe195(%rip),%rax        # 213a0 <g_1976>
   1320b:	48 01 d0             	add    %rdx,%rax
   1320e:	8b 40 04             	mov    0x4(%rax),%eax
   13211:	25 ff ff ff 0f       	and    $0xfffffff,%eax
   13216:	89 c1                	mov    %eax,%ecx
   13218:	8b 45 fc             	mov    -0x4(%rbp),%eax
   1321b:	89 c2                	mov    %eax,%edx
   1321d:	48 8d 35 86 31 00 00 	lea    0x3186(%rip),%rsi        # 163aa <g_243+0x1352>
   13224:	48 89 cf             	mov    %rcx,%rdi
   13227:	e8 c7 54 ff ff       	callq  86f3 <transparent_crc>
   1322c:	8b 45 f4             	mov    -0xc(%rbp),%eax
   1322f:	48 98                	cltq   
   13231:	8b 55 f0             	mov    -0x10(%rbp),%edx
   13234:	48 63 ca             	movslq %edx,%rcx
   13237:	48 89 c2             	mov    %rax,%rdx
   1323a:	48 c1 e2 02          	shl    $0x2,%rdx
   1323e:	48 01 c2             	add    %rax,%rdx
   13241:	48 01 d2             	add    %rdx,%rdx
   13244:	48 01 c2             	add    %rax,%rdx
   13247:	48 8d 04 95 00 00 00 	lea    0x0(,%rdx,4),%rax
   1324e:	00 
   1324f:	48 89 c2             	mov    %rax,%rdx
   13252:	48 89 c8             	mov    %rcx,%rax
   13255:	48 c1 e0 02          	shl    $0x2,%rax
   13259:	48 01 c8             	add    %rcx,%rax
   1325c:	48 01 c0             	add    %rax,%rax
   1325f:	48 01 c8             	add    %rcx,%rax
   13262:	48 c1 e0 03          	shl    $0x3,%rax
   13266:	48 01 c2             	add    %rax,%rdx
   13269:	48 8d 05 38 e1 00 00 	lea    0xe138(%rip),%rax        # 213a8 <g_1976+0x8>
   13270:	48 01 d0             	add    %rdx,%rax
   13273:	0f b7 00             	movzwl (%rax),%eax
   13276:	0f b7 c0             	movzwl %ax,%eax
   13279:	8b 55 fc             	mov    -0x4(%rbp),%edx
   1327c:	48 8d 35 37 31 00 00 	lea    0x3137(%rip),%rsi        # 163ba <g_243+0x1362>
   13283:	48 89 c7             	mov    %rax,%rdi
   13286:	e8 68 54 ff ff       	callq  86f3 <transparent_crc>
   1328b:	8b 45 f4             	mov    -0xc(%rbp),%eax
   1328e:	48 98                	cltq   
   13290:	8b 55 f0             	mov    -0x10(%rbp),%edx
   13293:	48 63 ca             	movslq %edx,%rcx
   13296:	48 89 c2             	mov    %rax,%rdx
   13299:	48 c1 e2 02          	shl    $0x2,%rdx
   1329d:	48 01 c2             	add    %rax,%rdx
   132a0:	48 01 d2             	add    %rdx,%rdx
   132a3:	48 01 c2             	add    %rax,%rdx
   132a6:	48 8d 04 95 00 00 00 	lea    0x0(,%rdx,4),%rax
   132ad:	00 
   132ae:	48 89 c2             	mov    %rax,%rdx
   132b1:	48 89 c8             	mov    %rcx,%rax
   132b4:	48 c1 e0 02          	shl    $0x2,%rax
   132b8:	48 01 c8             	add    %rcx,%rax
   132bb:	48 01 c0             	add    %rax,%rax
   132be:	48 01 c8             	add    %rcx,%rax
   132c1:	48 c1 e0 03          	shl    $0x3,%rax
   132c5:	48 01 c2             	add    %rax,%rdx
   132c8:	48 8d 05 d1 e0 00 00 	lea    0xe0d1(%rip),%rax        # 213a0 <g_1976>
   132cf:	48 01 d0             	add    %rdx,%rax
   132d2:	8b 50 08             	mov    0x8(%rax),%edx
   132d5:	c1 ea 10             	shr    $0x10,%edx
   132d8:	89 d2                	mov    %edx,%edx
   132da:	8b 40 0c             	mov    0xc(%rax),%eax
   132dd:	89 c0                	mov    %eax,%eax
   132df:	83 e0 3f             	and    $0x3f,%eax
   132e2:	48 c1 e0 10          	shl    $0x10,%rax
   132e6:	48 09 d0             	or     %rdx,%rax
   132e9:	48 c1 e0 2a          	shl    $0x2a,%rax
   132ed:	48 c1 f8 2a          	sar    $0x2a,%rax
   132f1:	48 98                	cltq   
   132f3:	8b 55 fc             	mov    -0x4(%rbp),%edx
   132f6:	48 8d 35 d0 30 00 00 	lea    0x30d0(%rip),%rsi        # 163cd <g_243+0x1375>
   132fd:	48 89 c7             	mov    %rax,%rdi
   13300:	e8 ee 53 ff ff       	callq  86f3 <transparent_crc>
   13305:	8b 45 f4             	mov    -0xc(%rbp),%eax
   13308:	48 98                	cltq   
   1330a:	8b 55 f0             	mov    -0x10(%rbp),%edx
   1330d:	48 63 ca             	movslq %edx,%rcx
   13310:	48 89 c2             	mov    %rax,%rdx
   13313:	48 c1 e2 02          	shl    $0x2,%rdx
   13317:	48 01 c2             	add    %rax,%rdx
   1331a:	48 01 d2             	add    %rdx,%rdx
   1331d:	48 01 c2             	add    %rax,%rdx
   13320:	48 8d 04 95 00 00 00 	lea    0x0(,%rdx,4),%rax
   13327:	00 
   13328:	48 89 c2             	mov    %rax,%rdx
   1332b:	48 89 c8             	mov    %rcx,%rax
   1332e:	48 c1 e0 02          	shl    $0x2,%rax
   13332:	48 01 c8             	add    %rcx,%rax
   13335:	48 01 c0             	add    %rax,%rax
   13338:	48 01 c8             	add    %rcx,%rax
   1333b:	48 c1 e0 03          	shl    $0x3,%rax
   1333f:	48 01 c2             	add    %rax,%rdx
   13342:	48 8d 05 57 e0 00 00 	lea    0xe057(%rip),%rax        # 213a0 <g_1976>
   13349:	48 01 d0             	add    %rdx,%rax
   1334c:	48 8b 40 0d          	mov    0xd(%rax),%rax
   13350:	8b 55 fc             	mov    -0x4(%rbp),%edx
   13353:	48 8d 35 86 30 00 00 	lea    0x3086(%rip),%rsi        # 163e0 <g_243+0x1388>
   1335a:	48 89 c7             	mov    %rax,%rdi
   1335d:	e8 91 53 ff ff       	callq  86f3 <transparent_crc>
   13362:	8b 45 f4             	mov    -0xc(%rbp),%eax
   13365:	48 98                	cltq   
   13367:	8b 55 f0             	mov    -0x10(%rbp),%edx
   1336a:	48 63 ca             	movslq %edx,%rcx
   1336d:	48 89 c2             	mov    %rax,%rdx
   13370:	48 c1 e2 02          	shl    $0x2,%rdx
   13374:	48 01 c2             	add    %rax,%rdx
   13377:	48 01 d2             	add    %rdx,%rdx
   1337a:	48 01 c2             	add    %rax,%rdx
   1337d:	48 8d 04 95 00 00 00 	lea    0x0(,%rdx,4),%rax
   13384:	00 
   13385:	48 89 c2             	mov    %rax,%rdx
   13388:	48 89 c8             	mov    %rcx,%rax
   1338b:	48 c1 e0 02          	shl    $0x2,%rax
   1338f:	48 01 c8             	add    %rcx,%rax
   13392:	48 01 c0             	add    %rax,%rax
   13395:	48 01 c8             	add    %rcx,%rax
   13398:	48 c1 e0 03          	shl    $0x3,%rax
   1339c:	48 01 c2             	add    %rax,%rdx
   1339f:	48 8d 05 fa df 00 00 	lea    0xdffa(%rip),%rax        # 213a0 <g_1976>
   133a6:	48 01 d0             	add    %rdx,%rax
   133a9:	0f b7 40 15          	movzwl 0x15(%rax),%eax
   133ad:	48 0f bf c0          	movswq %ax,%rax
   133b1:	8b 55 fc             	mov    -0x4(%rbp),%edx
   133b4:	48 8d 35 38 30 00 00 	lea    0x3038(%rip),%rsi        # 163f3 <g_243+0x139b>
   133bb:	48 89 c7             	mov    %rax,%rdi
   133be:	e8 30 53 ff ff       	callq  86f3 <transparent_crc>
   133c3:	8b 45 f4             	mov    -0xc(%rbp),%eax
   133c6:	48 98                	cltq   
   133c8:	8b 55 f0             	mov    -0x10(%rbp),%edx
   133cb:	48 63 ca             	movslq %edx,%rcx
   133ce:	48 89 c2             	mov    %rax,%rdx
   133d1:	48 c1 e2 02          	shl    $0x2,%rdx
   133d5:	48 01 c2             	add    %rax,%rdx
   133d8:	48 01 d2             	add    %rdx,%rdx
   133db:	48 01 c2             	add    %rax,%rdx
   133de:	48 8d 04 95 00 00 00 	lea    0x0(,%rdx,4),%rax
   133e5:	00 
   133e6:	48 89 c2             	mov    %rax,%rdx
   133e9:	48 89 c8             	mov    %rcx,%rax
   133ec:	48 c1 e0 02          	shl    $0x2,%rax
   133f0:	48 01 c8             	add    %rcx,%rax
   133f3:	48 01 c0             	add    %rax,%rax
   133f6:	48 01 c8             	add    %rcx,%rax
   133f9:	48 c1 e0 03          	shl    $0x3,%rax
   133fd:	48 01 c2             	add    %rax,%rdx
   13400:	48 8d 05 99 df 00 00 	lea    0xdf99(%rip),%rax        # 213a0 <g_1976>
   13407:	48 01 d0             	add    %rdx,%rax
   1340a:	48 8b 40 17          	mov    0x17(%rax),%rax
   1340e:	8b 55 fc             	mov    -0x4(%rbp),%edx
   13411:	48 8d 35 ee 2f 00 00 	lea    0x2fee(%rip),%rsi        # 16406 <g_243+0x13ae>
   13418:	48 89 c7             	mov    %rax,%rdi
   1341b:	e8 d3 52 ff ff       	callq  86f3 <transparent_crc>
   13420:	8b 45 f4             	mov    -0xc(%rbp),%eax
   13423:	48 98                	cltq   
   13425:	8b 55 f0             	mov    -0x10(%rbp),%edx
   13428:	48 63 ca             	movslq %edx,%rcx
   1342b:	48 89 c2             	mov    %rax,%rdx
   1342e:	48 c1 e2 02          	shl    $0x2,%rdx
   13432:	48 01 c2             	add    %rax,%rdx
   13435:	48 01 d2             	add    %rdx,%rdx
   13438:	48 01 c2             	add    %rax,%rdx
   1343b:	48 8d 04 95 00 00 00 	lea    0x0(,%rdx,4),%rax
   13442:	00 
   13443:	48 89 c2             	mov    %rax,%rdx
   13446:	48 89 c8             	mov    %rcx,%rax
   13449:	48 c1 e0 02          	shl    $0x2,%rax
   1344d:	48 01 c8             	add    %rcx,%rax
   13450:	48 01 c0             	add    %rax,%rax
   13453:	48 01 c8             	add    %rcx,%rax
   13456:	48 c1 e0 03          	shl    $0x3,%rax
   1345a:	48 01 c2             	add    %rax,%rdx
   1345d:	48 8d 05 4c df 00 00 	lea    0xdf4c(%rip),%rax        # 213b0 <g_1976+0x10>
   13464:	48 01 d0             	add    %rdx,%rax
   13467:	8b 40 0f             	mov    0xf(%rax),%eax
   1346a:	48 98                	cltq   
   1346c:	8b 55 fc             	mov    -0x4(%rbp),%edx
   1346f:	48 8d 35 a3 2f 00 00 	lea    0x2fa3(%rip),%rsi        # 16419 <g_243+0x13c1>
   13476:	48 89 c7             	mov    %rax,%rdi
   13479:	e8 75 52 ff ff       	callq  86f3 <transparent_crc>
   1347e:	8b 45 f4             	mov    -0xc(%rbp),%eax
   13481:	48 98                	cltq   
   13483:	8b 55 f0             	mov    -0x10(%rbp),%edx
   13486:	48 63 ca             	movslq %edx,%rcx
   13489:	48 89 c2             	mov    %rax,%rdx
   1348c:	48 c1 e2 02          	shl    $0x2,%rdx
   13490:	48 01 c2             	add    %rax,%rdx
   13493:	48 01 d2             	add    %rdx,%rdx
   13496:	48 01 c2             	add    %rax,%rdx
   13499:	48 8d 04 95 00 00 00 	lea    0x0(,%rdx,4),%rax
   134a0:	00 
   134a1:	48 89 c2             	mov    %rax,%rdx
   134a4:	48 89 c8             	mov    %rcx,%rax
   134a7:	48 c1 e0 02          	shl    $0x2,%rax
   134ab:	48 01 c8             	add    %rcx,%rax
   134ae:	48 01 c0             	add    %rax,%rax
   134b1:	48 01 c8             	add    %rcx,%rax
   134b4:	48 c1 e0 03          	shl    $0x3,%rax
   134b8:	48 01 c2             	add    %rax,%rdx
   134bb:	48 8d 05 fe de 00 00 	lea    0xdefe(%rip),%rax        # 213c0 <g_1976+0x20>
   134c2:	48 01 d0             	add    %rdx,%rax
   134c5:	8b 40 04             	mov    0x4(%rax),%eax
   134c8:	25 ff ff ff 7f       	and    $0x7fffffff,%eax
   134cd:	89 c1                	mov    %eax,%ecx
   134cf:	8b 45 fc             	mov    -0x4(%rbp),%eax
   134d2:	89 c2                	mov    %eax,%edx
   134d4:	48 8d 35 51 2f 00 00 	lea    0x2f51(%rip),%rsi        # 1642c <g_243+0x13d4>
   134db:	48 89 cf             	mov    %rcx,%rdi
   134de:	e8 10 52 ff ff       	callq  86f3 <transparent_crc>
   134e3:	8b 45 f4             	mov    -0xc(%rbp),%eax
   134e6:	48 98                	cltq   
   134e8:	8b 55 f0             	mov    -0x10(%rbp),%edx
   134eb:	48 63 ca             	movslq %edx,%rcx
   134ee:	48 89 c2             	mov    %rax,%rdx
   134f1:	48 c1 e2 02          	shl    $0x2,%rdx
   134f5:	48 01 c2             	add    %rax,%rdx
   134f8:	48 01 d2             	add    %rdx,%rdx
   134fb:	48 01 c2             	add    %rax,%rdx
   134fe:	48 8d 04 95 00 00 00 	lea    0x0(,%rdx,4),%rax
   13505:	00 
   13506:	48 89 c2             	mov    %rax,%rdx
   13509:	48 89 c8             	mov    %rcx,%rax
   1350c:	48 c1 e0 02          	shl    $0x2,%rax
   13510:	48 01 c8             	add    %rcx,%rax
   13513:	48 01 c0             	add    %rax,%rax
   13516:	48 01 c8             	add    %rcx,%rax
   13519:	48 c1 e0 03          	shl    $0x3,%rax
   1351d:	48 01 c2             	add    %rax,%rdx
   13520:	48 8d 05 99 de 00 00 	lea    0xde99(%rip),%rax        # 213c0 <g_1976+0x20>
   13527:	48 01 d0             	add    %rdx,%rax
   1352a:	8b 40 08             	mov    0x8(%rax),%eax
   1352d:	01 c0                	add    %eax,%eax
   1352f:	d0 f8                	sar    %al
   13531:	48 0f be c0          	movsbq %al,%rax
   13535:	8b 55 fc             	mov    -0x4(%rbp),%edx
   13538:	48 8d 35 fd 2e 00 00 	lea    0x2efd(%rip),%rsi        # 1643c <g_243+0x13e4>
   1353f:	48 89 c7             	mov    %rax,%rdi
   13542:	e8 ac 51 ff ff       	callq  86f3 <transparent_crc>
   13547:	83 7d fc 00          	cmpl   $0x0,-0x4(%rbp)
   1354b:	74 19                	je     13566 <main+0x3a22>
   1354d:	8b 55 f4             	mov    -0xc(%rbp),%edx
   13550:	8b 45 f0             	mov    -0x10(%rbp),%eax
   13553:	89 c6                	mov    %eax,%esi
   13555:	48 8d 3d 08 29 00 00 	lea    0x2908(%rip),%rdi        # 15e64 <g_243+0xe0c>
   1355c:	b8 00 00 00 00       	mov    $0x0,%eax
   13561:	e8 1a 3b ff ff       	callq  7080 <printf@plt>
   13566:	83 45 f4 01          	addl   $0x1,-0xc(%rbp)
   1356a:	83 7d f4 01          	cmpl   $0x1,-0xc(%rbp)
   1356e:	0f 8e ed fb ff ff    	jle    13161 <main+0x361d>
   13574:	83 45 f0 01          	addl   $0x1,-0x10(%rbp)
   13578:	83 7d f0 01          	cmpl   $0x1,-0x10(%rbp)
   1357c:	0f 8e d3 fb ff ff    	jle    13155 <main+0x3611>
   13582:	8b 05 d8 de 00 00    	mov    0xded8(%rip),%eax        # 21460 <g_1990>
   13588:	c1 e0 05             	shl    $0x5,%eax
   1358b:	c1 f8 05             	sar    $0x5,%eax
   1358e:	48 98                	cltq   
   13590:	8b 55 fc             	mov    -0x4(%rbp),%edx
   13593:	48 8d 35 b2 2e 00 00 	lea    0x2eb2(%rip),%rsi        # 1644c <g_243+0x13f4>
   1359a:	48 89 c7             	mov    %rax,%rdi
   1359d:	e8 51 51 ff ff       	callq  86f3 <transparent_crc>
   135a2:	0f b6 05 ba de 00 00 	movzbl 0xdeba(%rip),%eax        # 21463 <g_1990+0x3>
   135a9:	c1 e0 03             	shl    $0x3,%eax
   135ac:	c0 f8 06             	sar    $0x6,%al
   135af:	48 0f be c0          	movsbq %al,%rax
   135b3:	8b 55 fc             	mov    -0x4(%rbp),%edx
   135b6:	48 8d 35 99 2e 00 00 	lea    0x2e99(%rip),%rsi        # 16456 <g_243+0x13fe>
   135bd:	48 89 c7             	mov    %rax,%rdi
   135c0:	e8 2e 51 ff ff       	callq  86f3 <transparent_crc>
   135c5:	48 8b 05 94 de 00 00 	mov    0xde94(%rip),%rax        # 21460 <g_1990>
   135cc:	48 c1 e8 20          	shr    $0x20,%rax
   135d0:	25 ff ff ff 1f       	and    $0x1fffffff,%eax
   135d5:	89 c1                	mov    %eax,%ecx
   135d7:	8b 45 fc             	mov    -0x4(%rbp),%eax
   135da:	89 c2                	mov    %eax,%edx
   135dc:	48 8d 35 7d 2e 00 00 	lea    0x2e7d(%rip),%rsi        # 16460 <g_243+0x1408>
   135e3:	48 89 cf             	mov    %rcx,%rdi
   135e6:	e8 08 51 ff ff       	callq  86f3 <transparent_crc>
   135eb:	48 8b 05 76 de 00 00 	mov    0xde76(%rip),%rax        # 21468 <g_1990+0x8>
   135f2:	c1 e0 07             	shl    $0x7,%eax
   135f5:	c1 f8 07             	sar    $0x7,%eax
   135f8:	48 98                	cltq   
   135fa:	8b 55 fc             	mov    -0x4(%rbp),%edx
   135fd:	48 8d 35 66 2e 00 00 	lea    0x2e66(%rip),%rsi        # 1646a <g_243+0x1412>
   13604:	48 89 c7             	mov    %rax,%rdi
   13607:	e8 e7 50 ff ff       	callq  86f3 <transparent_crc>
   1360c:	8b 05 5a de 00 00    	mov    0xde5a(%rip),%eax        # 2146c <g_1990+0xc>
   13612:	c1 e0 0d             	shl    $0xd,%eax
   13615:	c1 f8 0d             	sar    $0xd,%eax
   13618:	48 98                	cltq   
   1361a:	8b 55 fc             	mov    -0x4(%rbp),%edx
   1361d:	48 8d 35 50 2e 00 00 	lea    0x2e50(%rip),%rsi        # 16474 <g_243+0x141c>
   13624:	48 89 c7             	mov    %rax,%rdi
   13627:	e8 c7 50 ff ff       	callq  86f3 <transparent_crc>
   1362c:	8b 05 3e de 00 00    	mov    0xde3e(%rip),%eax        # 21470 <g_1990+0x10>
   13632:	25 ff ff 3f 00       	and    $0x3fffff,%eax
   13637:	89 c1                	mov    %eax,%ecx
   13639:	8b 45 fc             	mov    -0x4(%rbp),%eax
   1363c:	89 c2                	mov    %eax,%edx
   1363e:	48 8d 35 39 2e 00 00 	lea    0x2e39(%rip),%rsi        # 1647e <g_243+0x1426>
   13645:	48 89 cf             	mov    %rcx,%rdi
   13648:	e8 a6 50 ff ff       	callq  86f3 <transparent_crc>
   1364d:	48 8b 05 24 de 00 00 	mov    0xde24(%rip),%rax        # 21478 <g_1990+0x18>
   13654:	8b 55 fc             	mov    -0x4(%rbp),%edx
   13657:	48 8d 35 2a 2e 00 00 	lea    0x2e2a(%rip),%rsi        # 16488 <g_243+0x1430>
   1365e:	48 89 c7             	mov    %rax,%rdi
   13661:	e8 8d 50 ff ff       	callq  86f3 <transparent_crc>
   13666:	0f b7 05 13 de 00 00 	movzwl 0xde13(%rip),%eax        # 21480 <g_1990+0x20>
   1366d:	c1 e0 06             	shl    $0x6,%eax
   13670:	66 c1 f8 06          	sar    $0x6,%ax
   13674:	48 0f bf c0          	movswq %ax,%rax
   13678:	8b 55 fc             	mov    -0x4(%rbp),%edx
   1367b:	48 8d 35 10 2e 00 00 	lea    0x2e10(%rip),%rsi        # 16492 <g_243+0x143a>
   13682:	48 89 c7             	mov    %rax,%rdi
   13685:	e8 69 50 ff ff       	callq  86f3 <transparent_crc>
   1368a:	8b 05 f4 dd 00 00    	mov    0xddf4(%rip),%eax        # 21484 <g_1990+0x24>
   13690:	89 c1                	mov    %eax,%ecx
   13692:	8b 45 fc             	mov    -0x4(%rbp),%eax
   13695:	89 c2                	mov    %eax,%edx
   13697:	48 8d 35 fe 2d 00 00 	lea    0x2dfe(%rip),%rsi        # 1649c <g_243+0x1444>
   1369e:	48 89 cf             	mov    %rcx,%rdi
   136a1:	e8 4d 50 ff ff       	callq  86f3 <transparent_crc>
   136a6:	48 8b 05 db dd 00 00 	mov    0xdddb(%rip),%rax        # 21488 <g_1990+0x28>
   136ad:	c1 e0 02             	shl    $0x2,%eax
   136b0:	c1 f8 02             	sar    $0x2,%eax
   136b3:	48 98                	cltq   
   136b5:	8b 55 fc             	mov    -0x4(%rbp),%edx
   136b8:	48 8d 35 e7 2d 00 00 	lea    0x2de7(%rip),%rsi        # 164a6 <g_243+0x144e>
   136bf:	48 89 c7             	mov    %rax,%rdi
   136c2:	e8 2c 50 ff ff       	callq  86f3 <transparent_crc>
   136c7:	48 8b 05 d2 dd 00 00 	mov    0xddd2(%rip),%rax        # 214a0 <g_1993>
   136ce:	c1 e0 05             	shl    $0x5,%eax
   136d1:	c1 f8 05             	sar    $0x5,%eax
   136d4:	48 98                	cltq   
   136d6:	8b 55 fc             	mov    -0x4(%rbp),%edx
   136d9:	48 8d 35 d0 2d 00 00 	lea    0x2dd0(%rip),%rsi        # 164b0 <g_243+0x1458>
   136e0:	48 89 c7             	mov    %rax,%rdi
   136e3:	e8 0b 50 ff ff       	callq  86f3 <transparent_crc>
   136e8:	48 8b 05 b1 dd 00 00 	mov    0xddb1(%rip),%rax        # 214a0 <g_1993>
   136ef:	c1 e0 03             	shl    $0x3,%eax
   136f2:	c1 f8 1e             	sar    $0x1e,%eax
   136f5:	48 0f be c0          	movsbq %al,%rax
   136f9:	8b 55 fc             	mov    -0x4(%rbp),%edx
   136fc:	48 8d 35 b7 2d 00 00 	lea    0x2db7(%rip),%rsi        # 164ba <g_243+0x1462>
   13703:	48 89 c7             	mov    %rax,%rdi
   13706:	e8 e8 4f ff ff       	callq  86f3 <transparent_crc>
   1370b:	48 8b 05 8e dd 00 00 	mov    0xdd8e(%rip),%rax        # 214a0 <g_1993>
   13712:	48 c1 e8 20          	shr    $0x20,%rax
   13716:	25 ff ff ff 1f       	and    $0x1fffffff,%eax
   1371b:	89 c1                	mov    %eax,%ecx
   1371d:	8b 45 fc             	mov    -0x4(%rbp),%eax
   13720:	89 c2                	mov    %eax,%edx
   13722:	48 8d 35 9b 2d 00 00 	lea    0x2d9b(%rip),%rsi        # 164c4 <g_243+0x146c>
   13729:	48 89 cf             	mov    %rcx,%rdi
   1372c:	e8 c2 4f ff ff       	callq  86f3 <transparent_crc>
   13731:	48 8b 05 70 dd 00 00 	mov    0xdd70(%rip),%rax        # 214a8 <g_1993+0x8>
   13738:	c1 e0 07             	shl    $0x7,%eax
   1373b:	c1 f8 07             	sar    $0x7,%eax
   1373e:	48 98                	cltq   
   13740:	8b 55 fc             	mov    -0x4(%rbp),%edx
   13743:	48 8d 35 84 2d 00 00 	lea    0x2d84(%rip),%rsi        # 164ce <g_243+0x1476>
   1374a:	48 89 c7             	mov    %rax,%rdi
   1374d:	e8 a1 4f ff ff       	callq  86f3 <transparent_crc>
   13752:	48 8b 05 4f dd 00 00 	mov    0xdd4f(%rip),%rax        # 214a8 <g_1993+0x8>
   13759:	48 c1 e0 0d          	shl    $0xd,%rax
   1375d:	48 c1 f8 2d          	sar    $0x2d,%rax
   13761:	48 98                	cltq   
   13763:	8b 55 fc             	mov    -0x4(%rbp),%edx
   13766:	48 8d 35 6b 2d 00 00 	lea    0x2d6b(%rip),%rsi        # 164d8 <g_243+0x1480>
   1376d:	48 89 c7             	mov    %rax,%rdi
   13770:	e8 7e 4f ff ff       	callq  86f3 <transparent_crc>
   13775:	48 8b 05 34 dd 00 00 	mov    0xdd34(%rip),%rax        # 214b0 <g_1993+0x10>
   1377c:	25 ff ff 3f 00       	and    $0x3fffff,%eax
   13781:	89 c1                	mov    %eax,%ecx
   13783:	8b 45 fc             	mov    -0x4(%rbp),%eax
   13786:	89 c2                	mov    %eax,%edx
   13788:	48 8d 35 53 2d 00 00 	lea    0x2d53(%rip),%rsi        # 164e2 <g_243+0x148a>
   1378f:	48 89 cf             	mov    %rcx,%rdi
   13792:	e8 5c 4f ff ff       	callq  86f3 <transparent_crc>
   13797:	48 8b 05 1a dd 00 00 	mov    0xdd1a(%rip),%rax        # 214b8 <g_1993+0x18>
   1379e:	8b 55 fc             	mov    -0x4(%rbp),%edx
   137a1:	48 8d 35 44 2d 00 00 	lea    0x2d44(%rip),%rsi        # 164ec <g_243+0x1494>
   137a8:	48 89 c7             	mov    %rax,%rdi
   137ab:	e8 43 4f ff ff       	callq  86f3 <transparent_crc>
   137b0:	48 8b 05 09 dd 00 00 	mov    0xdd09(%rip),%rax        # 214c0 <g_1993+0x20>
   137b7:	c1 e0 06             	shl    $0x6,%eax
   137ba:	66 c1 f8 06          	sar    $0x6,%ax
   137be:	48 0f bf c0          	movswq %ax,%rax
   137c2:	8b 55 fc             	mov    -0x4(%rbp),%edx
   137c5:	48 8d 35 2a 2d 00 00 	lea    0x2d2a(%rip),%rsi        # 164f6 <g_243+0x149e>
   137cc:	48 89 c7             	mov    %rax,%rdi
   137cf:	e8 1f 4f ff ff       	callq  86f3 <transparent_crc>
   137d4:	8b 05 ea dc 00 00    	mov    0xdcea(%rip),%eax        # 214c4 <g_1993+0x24>
   137da:	89 c1                	mov    %eax,%ecx
   137dc:	8b 45 fc             	mov    -0x4(%rbp),%eax
   137df:	89 c2                	mov    %eax,%edx
   137e1:	48 8d 35 18 2d 00 00 	lea    0x2d18(%rip),%rsi        # 16500 <g_243+0x14a8>
   137e8:	48 89 cf             	mov    %rcx,%rdi
   137eb:	e8 03 4f ff ff       	callq  86f3 <transparent_crc>
   137f0:	48 8b 05 d1 dc 00 00 	mov    0xdcd1(%rip),%rax        # 214c8 <g_1993+0x28>
   137f7:	c1 e0 02             	shl    $0x2,%eax
   137fa:	c1 f8 02             	sar    $0x2,%eax
   137fd:	48 98                	cltq   
   137ff:	8b 55 fc             	mov    -0x4(%rbp),%edx
   13802:	48 8d 35 01 2d 00 00 	lea    0x2d01(%rip),%rsi        # 1650a <g_243+0x14b2>
   13809:	48 89 c7             	mov    %rax,%rdi
   1380c:	e8 e2 4e ff ff       	callq  86f3 <transparent_crc>
   13811:	8b 05 c9 dc 00 00    	mov    0xdcc9(%rip),%eax        # 214e0 <g_2013>
   13817:	c1 e0 05             	shl    $0x5,%eax
   1381a:	c1 f8 05             	sar    $0x5,%eax
   1381d:	48 98                	cltq   
   1381f:	8b 55 fc             	mov    -0x4(%rbp),%edx
   13822:	48 8d 35 eb 2c 00 00 	lea    0x2ceb(%rip),%rsi        # 16514 <g_243+0x14bc>
   13829:	48 89 c7             	mov    %rax,%rdi
   1382c:	e8 c2 4e ff ff       	callq  86f3 <transparent_crc>
   13831:	0f b6 05 ab dc 00 00 	movzbl 0xdcab(%rip),%eax        # 214e3 <g_2013+0x3>
   13838:	c1 e0 03             	shl    $0x3,%eax
   1383b:	c0 f8 06             	sar    $0x6,%al
   1383e:	48 0f be c0          	movsbq %al,%rax
   13842:	8b 55 fc             	mov    -0x4(%rbp),%edx
   13845:	48 8d 35 d2 2c 00 00 	lea    0x2cd2(%rip),%rsi        # 1651e <g_243+0x14c6>
   1384c:	48 89 c7             	mov    %rax,%rdi
   1384f:	e8 9f 4e ff ff       	callq  86f3 <transparent_crc>
   13854:	48 8b 05 85 dc 00 00 	mov    0xdc85(%rip),%rax        # 214e0 <g_2013>
   1385b:	48 c1 e8 20          	shr    $0x20,%rax
   1385f:	25 ff ff ff 1f       	and    $0x1fffffff,%eax
   13864:	89 c1                	mov    %eax,%ecx
   13866:	8b 45 fc             	mov    -0x4(%rbp),%eax
   13869:	89 c2                	mov    %eax,%edx
   1386b:	48 8d 35 b6 2c 00 00 	lea    0x2cb6(%rip),%rsi        # 16528 <g_243+0x14d0>
   13872:	48 89 cf             	mov    %rcx,%rdi
   13875:	e8 79 4e ff ff       	callq  86f3 <transparent_crc>
   1387a:	48 8b 05 67 dc 00 00 	mov    0xdc67(%rip),%rax        # 214e8 <g_2013+0x8>
   13881:	c1 e0 07             	shl    $0x7,%eax
   13884:	c1 f8 07             	sar    $0x7,%eax
   13887:	48 98                	cltq   
   13889:	8b 55 fc             	mov    -0x4(%rbp),%edx
   1388c:	48 8d 35 9f 2c 00 00 	lea    0x2c9f(%rip),%rsi        # 16532 <g_243+0x14da>
   13893:	48 89 c7             	mov    %rax,%rdi
   13896:	e8 58 4e ff ff       	callq  86f3 <transparent_crc>
   1389b:	8b 05 4b dc 00 00    	mov    0xdc4b(%rip),%eax        # 214ec <g_2013+0xc>
   138a1:	c1 e0 0d             	shl    $0xd,%eax
   138a4:	c1 f8 0d             	sar    $0xd,%eax
   138a7:	48 98                	cltq   
   138a9:	8b 55 fc             	mov    -0x4(%rbp),%edx
   138ac:	48 8d 35 89 2c 00 00 	lea    0x2c89(%rip),%rsi        # 1653c <g_243+0x14e4>
   138b3:	48 89 c7             	mov    %rax,%rdi
   138b6:	e8 38 4e ff ff       	callq  86f3 <transparent_crc>
   138bb:	8b 05 2f dc 00 00    	mov    0xdc2f(%rip),%eax        # 214f0 <g_2013+0x10>
   138c1:	25 ff ff 3f 00       	and    $0x3fffff,%eax
   138c6:	89 c1                	mov    %eax,%ecx
   138c8:	8b 45 fc             	mov    -0x4(%rbp),%eax
   138cb:	89 c2                	mov    %eax,%edx
   138cd:	48 8d 35 72 2c 00 00 	lea    0x2c72(%rip),%rsi        # 16546 <g_243+0x14ee>
   138d4:	48 89 cf             	mov    %rcx,%rdi
   138d7:	e8 17 4e ff ff       	callq  86f3 <transparent_crc>
   138dc:	48 8b 05 15 dc 00 00 	mov    0xdc15(%rip),%rax        # 214f8 <g_2013+0x18>
   138e3:	8b 55 fc             	mov    -0x4(%rbp),%edx
   138e6:	48 8d 35 63 2c 00 00 	lea    0x2c63(%rip),%rsi        # 16550 <g_243+0x14f8>
   138ed:	48 89 c7             	mov    %rax,%rdi
   138f0:	e8 fe 4d ff ff       	callq  86f3 <transparent_crc>
   138f5:	0f b7 05 04 dc 00 00 	movzwl 0xdc04(%rip),%eax        # 21500 <g_2013+0x20>
   138fc:	c1 e0 06             	shl    $0x6,%eax
   138ff:	66 c1 f8 06          	sar    $0x6,%ax
   13903:	48 0f bf c0          	movswq %ax,%rax
   13907:	8b 55 fc             	mov    -0x4(%rbp),%edx
   1390a:	48 8d 35 49 2c 00 00 	lea    0x2c49(%rip),%rsi        # 1655a <g_243+0x1502>
   13911:	48 89 c7             	mov    %rax,%rdi
   13914:	e8 da 4d ff ff       	callq  86f3 <transparent_crc>
   13919:	8b 05 e5 db 00 00    	mov    0xdbe5(%rip),%eax        # 21504 <g_2013+0x24>
   1391f:	89 c1                	mov    %eax,%ecx
   13921:	8b 45 fc             	mov    -0x4(%rbp),%eax
   13924:	89 c2                	mov    %eax,%edx
   13926:	48 8d 35 37 2c 00 00 	lea    0x2c37(%rip),%rsi        # 16564 <g_243+0x150c>
   1392d:	48 89 cf             	mov    %rcx,%rdi
   13930:	e8 be 4d ff ff       	callq  86f3 <transparent_crc>
   13935:	48 8b 05 cc db 00 00 	mov    0xdbcc(%rip),%rax        # 21508 <g_2013+0x28>
   1393c:	c1 e0 02             	shl    $0x2,%eax
   1393f:	c1 f8 02             	sar    $0x2,%eax
   13942:	48 98                	cltq   
   13944:	8b 55 fc             	mov    -0x4(%rbp),%edx
   13947:	48 8d 35 20 2c 00 00 	lea    0x2c20(%rip),%rsi        # 1656e <g_243+0x1516>
   1394e:	48 89 c7             	mov    %rax,%rdi
   13951:	e8 9d 4d ff ff       	callq  86f3 <transparent_crc>
   13956:	48 8b 05 c3 db 00 00 	mov    0xdbc3(%rip),%rax        # 21520 <g_2159>
   1395d:	c1 e0 05             	shl    $0x5,%eax
   13960:	c1 f8 05             	sar    $0x5,%eax
   13963:	48 98                	cltq   
   13965:	8b 55 fc             	mov    -0x4(%rbp),%edx
   13968:	48 8d 35 09 2c 00 00 	lea    0x2c09(%rip),%rsi        # 16578 <g_243+0x1520>
   1396f:	48 89 c7             	mov    %rax,%rdi
   13972:	e8 7c 4d ff ff       	callq  86f3 <transparent_crc>
   13977:	48 8b 05 a2 db 00 00 	mov    0xdba2(%rip),%rax        # 21520 <g_2159>
   1397e:	c1 e0 03             	shl    $0x3,%eax
   13981:	c1 f8 1e             	sar    $0x1e,%eax
   13984:	48 0f be c0          	movsbq %al,%rax
   13988:	8b 55 fc             	mov    -0x4(%rbp),%edx
   1398b:	48 8d 35 f0 2b 00 00 	lea    0x2bf0(%rip),%rsi        # 16582 <g_243+0x152a>
   13992:	48 89 c7             	mov    %rax,%rdi
   13995:	e8 59 4d ff ff       	callq  86f3 <transparent_crc>
   1399a:	48 8b 05 7f db 00 00 	mov    0xdb7f(%rip),%rax        # 21520 <g_2159>
   139a1:	48 c1 e8 20          	shr    $0x20,%rax
   139a5:	25 ff ff ff 1f       	and    $0x1fffffff,%eax
   139aa:	89 c1                	mov    %eax,%ecx
   139ac:	8b 45 fc             	mov    -0x4(%rbp),%eax
   139af:	89 c2                	mov    %eax,%edx
   139b1:	48 8d 35 d4 2b 00 00 	lea    0x2bd4(%rip),%rsi        # 1658c <g_243+0x1534>
   139b8:	48 89 cf             	mov    %rcx,%rdi
   139bb:	e8 33 4d ff ff       	callq  86f3 <transparent_crc>
   139c0:	48 8b 05 61 db 00 00 	mov    0xdb61(%rip),%rax        # 21528 <g_2159+0x8>
   139c7:	c1 e0 07             	shl    $0x7,%eax
   139ca:	c1 f8 07             	sar    $0x7,%eax
   139cd:	48 98                	cltq   
   139cf:	8b 55 fc             	mov    -0x4(%rbp),%edx
   139d2:	48 8d 35 bd 2b 00 00 	lea    0x2bbd(%rip),%rsi        # 16596 <g_243+0x153e>
   139d9:	48 89 c7             	mov    %rax,%rdi
   139dc:	e8 12 4d ff ff       	callq  86f3 <transparent_crc>
   139e1:	48 8b 05 40 db 00 00 	mov    0xdb40(%rip),%rax        # 21528 <g_2159+0x8>
   139e8:	48 c1 e0 0d          	shl    $0xd,%rax
   139ec:	48 c1 f8 2d          	sar    $0x2d,%rax
   139f0:	48 98                	cltq   
   139f2:	8b 55 fc             	mov    -0x4(%rbp),%edx
   139f5:	48 8d 35 a4 2b 00 00 	lea    0x2ba4(%rip),%rsi        # 165a0 <g_243+0x1548>
   139fc:	48 89 c7             	mov    %rax,%rdi
   139ff:	e8 ef 4c ff ff       	callq  86f3 <transparent_crc>
   13a04:	48 8b 05 25 db 00 00 	mov    0xdb25(%rip),%rax        # 21530 <g_2159+0x10>
   13a0b:	25 ff ff 3f 00       	and    $0x3fffff,%eax
   13a10:	89 c1                	mov    %eax,%ecx
   13a12:	8b 45 fc             	mov    -0x4(%rbp),%eax
   13a15:	89 c2                	mov    %eax,%edx
   13a17:	48 8d 35 8c 2b 00 00 	lea    0x2b8c(%rip),%rsi        # 165aa <g_243+0x1552>
   13a1e:	48 89 cf             	mov    %rcx,%rdi
   13a21:	e8 cd 4c ff ff       	callq  86f3 <transparent_crc>
   13a26:	48 8b 05 0b db 00 00 	mov    0xdb0b(%rip),%rax        # 21538 <g_2159+0x18>
   13a2d:	8b 55 fc             	mov    -0x4(%rbp),%edx
   13a30:	48 8d 35 7d 2b 00 00 	lea    0x2b7d(%rip),%rsi        # 165b4 <g_243+0x155c>
   13a37:	48 89 c7             	mov    %rax,%rdi
   13a3a:	e8 b4 4c ff ff       	callq  86f3 <transparent_crc>
   13a3f:	48 8b 05 fa da 00 00 	mov    0xdafa(%rip),%rax        # 21540 <g_2159+0x20>
   13a46:	c1 e0 06             	shl    $0x6,%eax
   13a49:	66 c1 f8 06          	sar    $0x6,%ax
   13a4d:	48 0f bf c0          	movswq %ax,%rax
   13a51:	8b 55 fc             	mov    -0x4(%rbp),%edx
   13a54:	48 8d 35 63 2b 00 00 	lea    0x2b63(%rip),%rsi        # 165be <g_243+0x1566>
   13a5b:	48 89 c7             	mov    %rax,%rdi
   13a5e:	e8 90 4c ff ff       	callq  86f3 <transparent_crc>
   13a63:	8b 05 db da 00 00    	mov    0xdadb(%rip),%eax        # 21544 <g_2159+0x24>
   13a69:	89 c1                	mov    %eax,%ecx
   13a6b:	8b 45 fc             	mov    -0x4(%rbp),%eax
   13a6e:	89 c2                	mov    %eax,%edx
   13a70:	48 8d 35 51 2b 00 00 	lea    0x2b51(%rip),%rsi        # 165c8 <g_243+0x1570>
   13a77:	48 89 cf             	mov    %rcx,%rdi
   13a7a:	e8 74 4c ff ff       	callq  86f3 <transparent_crc>
   13a7f:	48 8b 05 c2 da 00 00 	mov    0xdac2(%rip),%rax        # 21548 <g_2159+0x28>
   13a86:	c1 e0 02             	shl    $0x2,%eax
   13a89:	c1 f8 02             	sar    $0x2,%eax
   13a8c:	48 98                	cltq   
   13a8e:	8b 55 fc             	mov    -0x4(%rbp),%edx
   13a91:	48 8d 35 3a 2b 00 00 	lea    0x2b3a(%rip),%rsi        # 165d2 <g_243+0x157a>
   13a98:	48 89 c7             	mov    %rax,%rdi
   13a9b:	e8 53 4c ff ff       	callq  86f3 <transparent_crc>
   13aa0:	0f b6 05 a9 da 00 00 	movzbl 0xdaa9(%rip),%eax        # 21550 <g_2160>
   13aa7:	48 0f be c0          	movsbq %al,%rax
   13aab:	8b 55 fc             	mov    -0x4(%rbp),%edx
   13aae:	48 8d 35 27 2b 00 00 	lea    0x2b27(%rip),%rsi        # 165dc <g_243+0x1584>
   13ab5:	48 89 c7             	mov    %rax,%rdi
   13ab8:	e8 36 4c ff ff       	callq  86f3 <transparent_crc>
   13abd:	c7 45 f0 00 00 00 00 	movl   $0x0,-0x10(%rbp)
   13ac4:	e9 b4 02 00 00       	jmpq   13d7d <main+0x4239>
   13ac9:	8b 45 f0             	mov    -0x10(%rbp),%eax
   13acc:	48 63 d0             	movslq %eax,%rdx
   13acf:	48 89 d0             	mov    %rdx,%rax
   13ad2:	48 c1 e0 02          	shl    $0x2,%rax
   13ad6:	48 01 d0             	add    %rdx,%rax
   13ad9:	48 01 c0             	add    %rax,%rax
   13adc:	48 01 d0             	add    %rdx,%rax
   13adf:	48 c1 e0 02          	shl    $0x2,%rax
   13ae3:	48 89 c2             	mov    %rax,%rdx
   13ae6:	48 8d 05 73 da 00 00 	lea    0xda73(%rip),%rax        # 21560 <g_2192>
   13aed:	8b 04 02             	mov    (%rdx,%rax,1),%eax
   13af0:	c1 e0 05             	shl    $0x5,%eax
   13af3:	66 c1 f8 05          	sar    $0x5,%ax
   13af7:	48 0f bf c0          	movswq %ax,%rax
   13afb:	8b 55 fc             	mov    -0x4(%rbp),%edx
   13afe:	48 8d 35 de 2a 00 00 	lea    0x2ade(%rip),%rsi        # 165e3 <g_243+0x158b>
   13b05:	48 89 c7             	mov    %rax,%rdi
   13b08:	e8 e6 4b ff ff       	callq  86f3 <transparent_crc>
   13b0d:	8b 45 f0             	mov    -0x10(%rbp),%eax
   13b10:	48 63 d0             	movslq %eax,%rdx
   13b13:	48 89 d0             	mov    %rdx,%rax
   13b16:	48 c1 e0 02          	shl    $0x2,%rax
   13b1a:	48 01 d0             	add    %rdx,%rax
   13b1d:	48 01 c0             	add    %rax,%rax
   13b20:	48 01 d0             	add    %rdx,%rax
   13b23:	48 c1 e0 02          	shl    $0x2,%rax
   13b27:	48 89 c2             	mov    %rax,%rdx
   13b2a:	48 8d 05 2f da 00 00 	lea    0xda2f(%rip),%rax        # 21560 <g_2192>
   13b31:	8b 44 02 04          	mov    0x4(%rdx,%rax,1),%eax
   13b35:	25 ff ff ff 0f       	and    $0xfffffff,%eax
   13b3a:	89 c1                	mov    %eax,%ecx
   13b3c:	8b 45 fc             	mov    -0x4(%rbp),%eax
   13b3f:	89 c2                	mov    %eax,%edx
   13b41:	48 8d 35 a8 2a 00 00 	lea    0x2aa8(%rip),%rsi        # 165f0 <g_243+0x1598>
   13b48:	48 89 cf             	mov    %rcx,%rdi
   13b4b:	e8 a3 4b ff ff       	callq  86f3 <transparent_crc>
   13b50:	8b 45 f0             	mov    -0x10(%rbp),%eax
   13b53:	48 63 d0             	movslq %eax,%rdx
   13b56:	48 89 d0             	mov    %rdx,%rax
   13b59:	48 c1 e0 02          	shl    $0x2,%rax
   13b5d:	48 01 d0             	add    %rdx,%rax
   13b60:	48 01 c0             	add    %rax,%rax
   13b63:	48 01 d0             	add    %rdx,%rax
   13b66:	48 c1 e0 02          	shl    $0x2,%rax
   13b6a:	48 89 c2             	mov    %rax,%rdx
   13b6d:	48 8d 05 f4 d9 00 00 	lea    0xd9f4(%rip),%rax        # 21568 <g_2192+0x8>
   13b74:	0f b7 04 02          	movzwl (%rdx,%rax,1),%eax
   13b78:	0f b7 c0             	movzwl %ax,%eax
   13b7b:	8b 55 fc             	mov    -0x4(%rbp),%edx
   13b7e:	48 8d 35 78 2a 00 00 	lea    0x2a78(%rip),%rsi        # 165fd <g_243+0x15a5>
   13b85:	48 89 c7             	mov    %rax,%rdi
   13b88:	e8 66 4b ff ff       	callq  86f3 <transparent_crc>
   13b8d:	8b 45 f0             	mov    -0x10(%rbp),%eax
   13b90:	48 63 d0             	movslq %eax,%rdx
   13b93:	48 89 d0             	mov    %rdx,%rax
   13b96:	48 c1 e0 02          	shl    $0x2,%rax
   13b9a:	48 01 d0             	add    %rdx,%rax
   13b9d:	48 01 c0             	add    %rax,%rax
   13ba0:	48 01 d0             	add    %rdx,%rax
   13ba3:	48 c1 e0 02          	shl    $0x2,%rax
   13ba7:	48 89 c2             	mov    %rax,%rdx
   13baa:	48 8d 05 af d9 00 00 	lea    0xd9af(%rip),%rax        # 21560 <g_2192>
   13bb1:	8b 4c 02 08          	mov    0x8(%rdx,%rax,1),%ecx
   13bb5:	c1 e9 10             	shr    $0x10,%ecx
   13bb8:	89 c9                	mov    %ecx,%ecx
   13bba:	8b 44 02 0c          	mov    0xc(%rdx,%rax,1),%eax
   13bbe:	89 c0                	mov    %eax,%eax
   13bc0:	83 e0 3f             	and    $0x3f,%eax
   13bc3:	48 c1 e0 10          	shl    $0x10,%rax
   13bc7:	48 09 c8             	or     %rcx,%rax
   13bca:	48 c1 e0 2a          	shl    $0x2a,%rax
   13bce:	48 c1 f8 2a          	sar    $0x2a,%rax
   13bd2:	48 98                	cltq   
   13bd4:	8b 55 fc             	mov    -0x4(%rbp),%edx
   13bd7:	48 8d 35 2f 2a 00 00 	lea    0x2a2f(%rip),%rsi        # 1660d <g_243+0x15b5>
   13bde:	48 89 c7             	mov    %rax,%rdi
   13be1:	e8 0d 4b ff ff       	callq  86f3 <transparent_crc>
   13be6:	8b 45 f0             	mov    -0x10(%rbp),%eax
   13be9:	48 63 d0             	movslq %eax,%rdx
   13bec:	48 89 d0             	mov    %rdx,%rax
   13bef:	48 c1 e0 02          	shl    $0x2,%rax
   13bf3:	48 01 d0             	add    %rdx,%rax
   13bf6:	48 01 c0             	add    %rax,%rax
   13bf9:	48 01 d0             	add    %rdx,%rax
   13bfc:	48 c1 e0 02          	shl    $0x2,%rax
   13c00:	48 89 c2             	mov    %rax,%rdx
   13c03:	48 8d 05 56 d9 00 00 	lea    0xd956(%rip),%rax        # 21560 <g_2192>
   13c0a:	48 8b 44 02 0d       	mov    0xd(%rdx,%rax,1),%rax
   13c0f:	8b 55 fc             	mov    -0x4(%rbp),%edx
   13c12:	48 8d 35 04 2a 00 00 	lea    0x2a04(%rip),%rsi        # 1661d <g_243+0x15c5>
   13c19:	48 89 c7             	mov    %rax,%rdi
   13c1c:	e8 d2 4a ff ff       	callq  86f3 <transparent_crc>
   13c21:	8b 45 f0             	mov    -0x10(%rbp),%eax
   13c24:	48 63 d0             	movslq %eax,%rdx
   13c27:	48 89 d0             	mov    %rdx,%rax
   13c2a:	48 c1 e0 02          	shl    $0x2,%rax
   13c2e:	48 01 d0             	add    %rdx,%rax
   13c31:	48 01 c0             	add    %rax,%rax
   13c34:	48 01 d0             	add    %rdx,%rax
   13c37:	48 c1 e0 02          	shl    $0x2,%rax
   13c3b:	48 89 c2             	mov    %rax,%rdx
   13c3e:	48 8d 05 1b d9 00 00 	lea    0xd91b(%rip),%rax        # 21560 <g_2192>
   13c45:	0f b7 44 02 15       	movzwl 0x15(%rdx,%rax,1),%eax
   13c4a:	48 0f bf c0          	movswq %ax,%rax
   13c4e:	8b 55 fc             	mov    -0x4(%rbp),%edx
   13c51:	48 8d 35 d5 29 00 00 	lea    0x29d5(%rip),%rsi        # 1662d <g_243+0x15d5>
   13c58:	48 89 c7             	mov    %rax,%rdi
   13c5b:	e8 93 4a ff ff       	callq  86f3 <transparent_crc>
   13c60:	8b 45 f0             	mov    -0x10(%rbp),%eax
   13c63:	48 63 d0             	movslq %eax,%rdx
   13c66:	48 89 d0             	mov    %rdx,%rax
   13c69:	48 c1 e0 02          	shl    $0x2,%rax
   13c6d:	48 01 d0             	add    %rdx,%rax
   13c70:	48 01 c0             	add    %rax,%rax
   13c73:	48 01 d0             	add    %rdx,%rax
   13c76:	48 c1 e0 02          	shl    $0x2,%rax
   13c7a:	48 89 c2             	mov    %rax,%rdx
   13c7d:	48 8d 05 dc d8 00 00 	lea    0xd8dc(%rip),%rax        # 21560 <g_2192>
   13c84:	48 8b 44 02 17       	mov    0x17(%rdx,%rax,1),%rax
   13c89:	8b 55 fc             	mov    -0x4(%rbp),%edx
   13c8c:	48 8d 35 aa 29 00 00 	lea    0x29aa(%rip),%rsi        # 1663d <g_243+0x15e5>
   13c93:	48 89 c7             	mov    %rax,%rdi
   13c96:	e8 58 4a ff ff       	callq  86f3 <transparent_crc>
   13c9b:	8b 45 f0             	mov    -0x10(%rbp),%eax
   13c9e:	48 63 d0             	movslq %eax,%rdx
   13ca1:	48 89 d0             	mov    %rdx,%rax
   13ca4:	48 c1 e0 02          	shl    $0x2,%rax
   13ca8:	48 01 d0             	add    %rdx,%rax
   13cab:	48 01 c0             	add    %rax,%rax
   13cae:	48 01 d0             	add    %rdx,%rax
   13cb1:	48 c1 e0 02          	shl    $0x2,%rax
   13cb5:	48 89 c2             	mov    %rax,%rdx
   13cb8:	48 8d 05 b1 d8 00 00 	lea    0xd8b1(%rip),%rax        # 21570 <g_2192+0x10>
   13cbf:	8b 44 02 0f          	mov    0xf(%rdx,%rax,1),%eax
   13cc3:	48 98                	cltq   
   13cc5:	8b 55 fc             	mov    -0x4(%rbp),%edx
   13cc8:	48 8d 35 7e 29 00 00 	lea    0x297e(%rip),%rsi        # 1664d <g_243+0x15f5>
   13ccf:	48 89 c7             	mov    %rax,%rdi
   13cd2:	e8 1c 4a ff ff       	callq  86f3 <transparent_crc>
   13cd7:	8b 45 f0             	mov    -0x10(%rbp),%eax
   13cda:	48 63 d0             	movslq %eax,%rdx
   13cdd:	48 89 d0             	mov    %rdx,%rax
   13ce0:	48 c1 e0 02          	shl    $0x2,%rax
   13ce4:	48 01 d0             	add    %rdx,%rax
   13ce7:	48 01 c0             	add    %rax,%rax
   13cea:	48 01 d0             	add    %rdx,%rax
   13ced:	48 c1 e0 02          	shl    $0x2,%rax
   13cf1:	48 89 c2             	mov    %rax,%rdx
   13cf4:	48 8d 05 85 d8 00 00 	lea    0xd885(%rip),%rax        # 21580 <g_2192+0x20>
   13cfb:	8b 44 02 04          	mov    0x4(%rdx,%rax,1),%eax
   13cff:	25 ff ff ff 7f       	and    $0x7fffffff,%eax
   13d04:	89 c1                	mov    %eax,%ecx
   13d06:	8b 45 fc             	mov    -0x4(%rbp),%eax
   13d09:	89 c2                	mov    %eax,%edx
   13d0b:	48 8d 35 4b 29 00 00 	lea    0x294b(%rip),%rsi        # 1665d <g_243+0x1605>
   13d12:	48 89 cf             	mov    %rcx,%rdi
   13d15:	e8 d9 49 ff ff       	callq  86f3 <transparent_crc>
   13d1a:	8b 45 f0             	mov    -0x10(%rbp),%eax
   13d1d:	48 63 d0             	movslq %eax,%rdx
   13d20:	48 89 d0             	mov    %rdx,%rax
   13d23:	48 c1 e0 02          	shl    $0x2,%rax
   13d27:	48 01 d0             	add    %rdx,%rax
   13d2a:	48 01 c0             	add    %rax,%rax
   13d2d:	48 01 d0             	add    %rdx,%rax
   13d30:	48 c1 e0 02          	shl    $0x2,%rax
   13d34:	48 89 c2             	mov    %rax,%rdx
   13d37:	48 8d 05 42 d8 00 00 	lea    0xd842(%rip),%rax        # 21580 <g_2192+0x20>
   13d3e:	0f b6 44 02 08       	movzbl 0x8(%rdx,%rax,1),%eax
   13d43:	01 c0                	add    %eax,%eax
   13d45:	d0 f8                	sar    %al
   13d47:	48 0f be c0          	movsbq %al,%rax
   13d4b:	8b 55 fc             	mov    -0x4(%rbp),%edx
   13d4e:	48 8d 35 15 29 00 00 	lea    0x2915(%rip),%rsi        # 1666a <g_243+0x1612>
   13d55:	48 89 c7             	mov    %rax,%rdi
   13d58:	e8 96 49 ff ff       	callq  86f3 <transparent_crc>
   13d5d:	83 7d fc 00          	cmpl   $0x0,-0x4(%rbp)
   13d61:	74 16                	je     13d79 <main+0x4235>
   13d63:	8b 45 f0             	mov    -0x10(%rbp),%eax
   13d66:	89 c6                	mov    %eax,%esi
   13d68:	48 8d 3d f8 18 00 00 	lea    0x18f8(%rip),%rdi        # 15667 <g_243+0x60f>
   13d6f:	b8 00 00 00 00       	mov    $0x0,%eax
   13d74:	e8 07 33 ff ff       	callq  7080 <printf@plt>
   13d79:	83 45 f0 01          	addl   $0x1,-0x10(%rbp)
   13d7d:	83 7d f0 00          	cmpl   $0x0,-0x10(%rbp)
   13d81:	0f 8e 42 fd ff ff    	jle    13ac9 <main+0x3f85>
   13d87:	8b 05 13 d8 00 00    	mov    0xd813(%rip),%eax        # 215a0 <g_2213>
   13d8d:	c1 e0 05             	shl    $0x5,%eax
   13d90:	c1 f8 05             	sar    $0x5,%eax
   13d93:	48 98                	cltq   
   13d95:	8b 55 fc             	mov    -0x4(%rbp),%edx
   13d98:	48 8d 35 d8 28 00 00 	lea    0x28d8(%rip),%rsi        # 16677 <g_243+0x161f>
   13d9f:	48 89 c7             	mov    %rax,%rdi
   13da2:	e8 4c 49 ff ff       	callq  86f3 <transparent_crc>
   13da7:	0f b6 05 f5 d7 00 00 	movzbl 0xd7f5(%rip),%eax        # 215a3 <g_2213+0x3>
   13dae:	c1 e0 03             	shl    $0x3,%eax
   13db1:	c0 f8 06             	sar    $0x6,%al
   13db4:	48 0f be c0          	movsbq %al,%rax
   13db8:	8b 55 fc             	mov    -0x4(%rbp),%edx
   13dbb:	48 8d 35 bf 28 00 00 	lea    0x28bf(%rip),%rsi        # 16681 <g_243+0x1629>
   13dc2:	48 89 c7             	mov    %rax,%rdi
   13dc5:	e8 29 49 ff ff       	callq  86f3 <transparent_crc>
   13dca:	48 8b 05 cf d7 00 00 	mov    0xd7cf(%rip),%rax        # 215a0 <g_2213>
   13dd1:	48 c1 e8 20          	shr    $0x20,%rax
   13dd5:	25 ff ff ff 1f       	and    $0x1fffffff,%eax
   13dda:	89 c1                	mov    %eax,%ecx
   13ddc:	8b 45 fc             	mov    -0x4(%rbp),%eax
   13ddf:	89 c2                	mov    %eax,%edx
   13de1:	48 8d 35 a3 28 00 00 	lea    0x28a3(%rip),%rsi        # 1668b <g_243+0x1633>
   13de8:	48 89 cf             	mov    %rcx,%rdi
   13deb:	e8 03 49 ff ff       	callq  86f3 <transparent_crc>
   13df0:	48 8b 05 b1 d7 00 00 	mov    0xd7b1(%rip),%rax        # 215a8 <g_2213+0x8>
   13df7:	c1 e0 07             	shl    $0x7,%eax
   13dfa:	c1 f8 07             	sar    $0x7,%eax
   13dfd:	48 98                	cltq   
   13dff:	8b 55 fc             	mov    -0x4(%rbp),%edx
   13e02:	48 8d 35 8c 28 00 00 	lea    0x288c(%rip),%rsi        # 16695 <g_243+0x163d>
   13e09:	48 89 c7             	mov    %rax,%rdi
   13e0c:	e8 e2 48 ff ff       	callq  86f3 <transparent_crc>
   13e11:	8b 05 95 d7 00 00    	mov    0xd795(%rip),%eax        # 215ac <g_2213+0xc>
   13e17:	c1 e0 0d             	shl    $0xd,%eax
   13e1a:	c1 f8 0d             	sar    $0xd,%eax
   13e1d:	48 98                	cltq   
   13e1f:	8b 55 fc             	mov    -0x4(%rbp),%edx
   13e22:	48 8d 35 76 28 00 00 	lea    0x2876(%rip),%rsi        # 1669f <g_243+0x1647>
   13e29:	48 89 c7             	mov    %rax,%rdi
   13e2c:	e8 c2 48 ff ff       	callq  86f3 <transparent_crc>
   13e31:	8b 05 79 d7 00 00    	mov    0xd779(%rip),%eax        # 215b0 <g_2213+0x10>
   13e37:	25 ff ff 3f 00       	and    $0x3fffff,%eax
   13e3c:	89 c1                	mov    %eax,%ecx
   13e3e:	8b 45 fc             	mov    -0x4(%rbp),%eax
   13e41:	89 c2                	mov    %eax,%edx
   13e43:	48 8d 35 5f 28 00 00 	lea    0x285f(%rip),%rsi        # 166a9 <g_243+0x1651>
   13e4a:	48 89 cf             	mov    %rcx,%rdi
   13e4d:	e8 a1 48 ff ff       	callq  86f3 <transparent_crc>
   13e52:	48 8b 05 5f d7 00 00 	mov    0xd75f(%rip),%rax        # 215b8 <g_2213+0x18>
   13e59:	8b 55 fc             	mov    -0x4(%rbp),%edx
   13e5c:	48 8d 35 50 28 00 00 	lea    0x2850(%rip),%rsi        # 166b3 <g_243+0x165b>
   13e63:	48 89 c7             	mov    %rax,%rdi
   13e66:	e8 88 48 ff ff       	callq  86f3 <transparent_crc>
   13e6b:	0f b7 05 4e d7 00 00 	movzwl 0xd74e(%rip),%eax        # 215c0 <g_2213+0x20>
   13e72:	c1 e0 06             	shl    $0x6,%eax
   13e75:	66 c1 f8 06          	sar    $0x6,%ax
   13e79:	48 0f bf c0          	movswq %ax,%rax
   13e7d:	8b 55 fc             	mov    -0x4(%rbp),%edx
   13e80:	48 8d 35 36 28 00 00 	lea    0x2836(%rip),%rsi        # 166bd <g_243+0x1665>
   13e87:	48 89 c7             	mov    %rax,%rdi
   13e8a:	e8 64 48 ff ff       	callq  86f3 <transparent_crc>
   13e8f:	8b 05 2f d7 00 00    	mov    0xd72f(%rip),%eax        # 215c4 <g_2213+0x24>
   13e95:	89 c1                	mov    %eax,%ecx
   13e97:	8b 45 fc             	mov    -0x4(%rbp),%eax
   13e9a:	89 c2                	mov    %eax,%edx
   13e9c:	48 8d 35 24 28 00 00 	lea    0x2824(%rip),%rsi        # 166c7 <g_243+0x166f>
   13ea3:	48 89 cf             	mov    %rcx,%rdi
   13ea6:	e8 48 48 ff ff       	callq  86f3 <transparent_crc>
   13eab:	48 8b 05 16 d7 00 00 	mov    0xd716(%rip),%rax        # 215c8 <g_2213+0x28>
   13eb2:	c1 e0 02             	shl    $0x2,%eax
   13eb5:	c1 f8 02             	sar    $0x2,%eax
   13eb8:	48 98                	cltq   
   13eba:	8b 55 fc             	mov    -0x4(%rbp),%edx
   13ebd:	48 8d 35 0d 28 00 00 	lea    0x280d(%rip),%rsi        # 166d1 <g_243+0x1679>
   13ec4:	48 89 c7             	mov    %rax,%rdi
   13ec7:	e8 27 48 ff ff       	callq  86f3 <transparent_crc>
   13ecc:	48 8b 05 0d d7 00 00 	mov    0xd70d(%rip),%rax        # 215e0 <g_2237>
   13ed3:	c1 e0 05             	shl    $0x5,%eax
   13ed6:	c1 f8 05             	sar    $0x5,%eax
   13ed9:	48 98                	cltq   
   13edb:	8b 55 fc             	mov    -0x4(%rbp),%edx
   13ede:	48 8d 35 f6 27 00 00 	lea    0x27f6(%rip),%rsi        # 166db <g_243+0x1683>
   13ee5:	48 89 c7             	mov    %rax,%rdi
   13ee8:	e8 06 48 ff ff       	callq  86f3 <transparent_crc>
   13eed:	48 8b 05 ec d6 00 00 	mov    0xd6ec(%rip),%rax        # 215e0 <g_2237>
   13ef4:	c1 e0 03             	shl    $0x3,%eax
   13ef7:	c1 f8 1e             	sar    $0x1e,%eax
   13efa:	48 0f be c0          	movsbq %al,%rax
   13efe:	8b 55 fc             	mov    -0x4(%rbp),%edx
   13f01:	48 8d 35 dd 27 00 00 	lea    0x27dd(%rip),%rsi        # 166e5 <g_243+0x168d>
   13f08:	48 89 c7             	mov    %rax,%rdi
   13f0b:	e8 e3 47 ff ff       	callq  86f3 <transparent_crc>
   13f10:	48 8b 05 c9 d6 00 00 	mov    0xd6c9(%rip),%rax        # 215e0 <g_2237>
   13f17:	48 c1 e8 20          	shr    $0x20,%rax
   13f1b:	25 ff ff ff 1f       	and    $0x1fffffff,%eax
   13f20:	89 c1                	mov    %eax,%ecx
   13f22:	8b 45 fc             	mov    -0x4(%rbp),%eax
   13f25:	89 c2                	mov    %eax,%edx
   13f27:	48 8d 35 c1 27 00 00 	lea    0x27c1(%rip),%rsi        # 166ef <g_243+0x1697>
   13f2e:	48 89 cf             	mov    %rcx,%rdi
   13f31:	e8 bd 47 ff ff       	callq  86f3 <transparent_crc>
   13f36:	48 8b 05 ab d6 00 00 	mov    0xd6ab(%rip),%rax        # 215e8 <g_2237+0x8>
   13f3d:	c1 e0 07             	shl    $0x7,%eax
   13f40:	c1 f8 07             	sar    $0x7,%eax
   13f43:	48 98                	cltq   
   13f45:	8b 55 fc             	mov    -0x4(%rbp),%edx
   13f48:	48 8d 35 aa 27 00 00 	lea    0x27aa(%rip),%rsi        # 166f9 <g_243+0x16a1>
   13f4f:	48 89 c7             	mov    %rax,%rdi
   13f52:	e8 9c 47 ff ff       	callq  86f3 <transparent_crc>
   13f57:	48 8b 05 8a d6 00 00 	mov    0xd68a(%rip),%rax        # 215e8 <g_2237+0x8>
   13f5e:	48 c1 e0 0d          	shl    $0xd,%rax
   13f62:	48 c1 f8 2d          	sar    $0x2d,%rax
   13f66:	48 98                	cltq   
   13f68:	8b 55 fc             	mov    -0x4(%rbp),%edx
   13f6b:	48 8d 35 91 27 00 00 	lea    0x2791(%rip),%rsi        # 16703 <g_243+0x16ab>
   13f72:	48 89 c7             	mov    %rax,%rdi
   13f75:	e8 79 47 ff ff       	callq  86f3 <transparent_crc>
   13f7a:	48 8b 05 6f d6 00 00 	mov    0xd66f(%rip),%rax        # 215f0 <g_2237+0x10>
   13f81:	25 ff ff 3f 00       	and    $0x3fffff,%eax
   13f86:	89 c1                	mov    %eax,%ecx
   13f88:	8b 45 fc             	mov    -0x4(%rbp),%eax
   13f8b:	89 c2                	mov    %eax,%edx
   13f8d:	48 8d 35 79 27 00 00 	lea    0x2779(%rip),%rsi        # 1670d <g_243+0x16b5>
   13f94:	48 89 cf             	mov    %rcx,%rdi
   13f97:	e8 57 47 ff ff       	callq  86f3 <transparent_crc>
   13f9c:	48 8b 05 55 d6 00 00 	mov    0xd655(%rip),%rax        # 215f8 <g_2237+0x18>
   13fa3:	8b 55 fc             	mov    -0x4(%rbp),%edx
   13fa6:	48 8d 35 6a 27 00 00 	lea    0x276a(%rip),%rsi        # 16717 <g_243+0x16bf>
   13fad:	48 89 c7             	mov    %rax,%rdi
   13fb0:	e8 3e 47 ff ff       	callq  86f3 <transparent_crc>
   13fb5:	48 8b 05 44 d6 00 00 	mov    0xd644(%rip),%rax        # 21600 <g_2237+0x20>
   13fbc:	c1 e0 06             	shl    $0x6,%eax
   13fbf:	66 c1 f8 06          	sar    $0x6,%ax
   13fc3:	48 0f bf c0          	movswq %ax,%rax
   13fc7:	8b 55 fc             	mov    -0x4(%rbp),%edx
   13fca:	48 8d 35 50 27 00 00 	lea    0x2750(%rip),%rsi        # 16721 <g_243+0x16c9>
   13fd1:	48 89 c7             	mov    %rax,%rdi
   13fd4:	e8 1a 47 ff ff       	callq  86f3 <transparent_crc>
   13fd9:	8b 05 25 d6 00 00    	mov    0xd625(%rip),%eax        # 21604 <g_2237+0x24>
   13fdf:	89 c1                	mov    %eax,%ecx
   13fe1:	8b 45 fc             	mov    -0x4(%rbp),%eax
   13fe4:	89 c2                	mov    %eax,%edx
   13fe6:	48 8d 35 3e 27 00 00 	lea    0x273e(%rip),%rsi        # 1672b <g_243+0x16d3>
   13fed:	48 89 cf             	mov    %rcx,%rdi
   13ff0:	e8 fe 46 ff ff       	callq  86f3 <transparent_crc>
   13ff5:	48 8b 05 0c d6 00 00 	mov    0xd60c(%rip),%rax        # 21608 <g_2237+0x28>
   13ffc:	c1 e0 02             	shl    $0x2,%eax
   13fff:	c1 f8 02             	sar    $0x2,%eax
   14002:	48 98                	cltq   
   14004:	8b 55 fc             	mov    -0x4(%rbp),%edx
   14007:	48 8d 35 27 27 00 00 	lea    0x2727(%rip),%rsi        # 16735 <g_243+0x16dd>
   1400e:	48 89 c7             	mov    %rax,%rdi
   14011:	e8 dd 46 ff ff       	callq  86f3 <transparent_crc>
   14016:	48 8b 05 03 d6 00 00 	mov    0xd603(%rip),%rax        # 21620 <g_2271>
   1401d:	c1 e0 05             	shl    $0x5,%eax
   14020:	c1 f8 05             	sar    $0x5,%eax
   14023:	48 98                	cltq   
   14025:	8b 55 fc             	mov    -0x4(%rbp),%edx
   14028:	48 8d 35 10 27 00 00 	lea    0x2710(%rip),%rsi        # 1673f <g_243+0x16e7>
   1402f:	48 89 c7             	mov    %rax,%rdi
   14032:	e8 bc 46 ff ff       	callq  86f3 <transparent_crc>
   14037:	48 8b 05 e2 d5 00 00 	mov    0xd5e2(%rip),%rax        # 21620 <g_2271>
   1403e:	c1 e0 03             	shl    $0x3,%eax
   14041:	c1 f8 1e             	sar    $0x1e,%eax
   14044:	48 0f be c0          	movsbq %al,%rax
   14048:	8b 55 fc             	mov    -0x4(%rbp),%edx
   1404b:	48 8d 35 f7 26 00 00 	lea    0x26f7(%rip),%rsi        # 16749 <g_243+0x16f1>
   14052:	48 89 c7             	mov    %rax,%rdi
   14055:	e8 99 46 ff ff       	callq  86f3 <transparent_crc>
   1405a:	48 8b 05 bf d5 00 00 	mov    0xd5bf(%rip),%rax        # 21620 <g_2271>
   14061:	48 c1 e8 20          	shr    $0x20,%rax
   14065:	25 ff ff ff 1f       	and    $0x1fffffff,%eax
   1406a:	89 c1                	mov    %eax,%ecx
   1406c:	8b 45 fc             	mov    -0x4(%rbp),%eax
   1406f:	89 c2                	mov    %eax,%edx
   14071:	48 8d 35 db 26 00 00 	lea    0x26db(%rip),%rsi        # 16753 <g_243+0x16fb>
   14078:	48 89 cf             	mov    %rcx,%rdi
   1407b:	e8 73 46 ff ff       	callq  86f3 <transparent_crc>
   14080:	48 8b 05 a1 d5 00 00 	mov    0xd5a1(%rip),%rax        # 21628 <g_2271+0x8>
   14087:	c1 e0 07             	shl    $0x7,%eax
   1408a:	c1 f8 07             	sar    $0x7,%eax
   1408d:	48 98                	cltq   
   1408f:	8b 55 fc             	mov    -0x4(%rbp),%edx
   14092:	48 8d 35 c4 26 00 00 	lea    0x26c4(%rip),%rsi        # 1675d <g_243+0x1705>
   14099:	48 89 c7             	mov    %rax,%rdi
   1409c:	e8 52 46 ff ff       	callq  86f3 <transparent_crc>
   140a1:	48 8b 05 80 d5 00 00 	mov    0xd580(%rip),%rax        # 21628 <g_2271+0x8>
   140a8:	48 c1 e0 0d          	shl    $0xd,%rax
   140ac:	48 c1 f8 2d          	sar    $0x2d,%rax
   140b0:	48 98                	cltq   
   140b2:	8b 55 fc             	mov    -0x4(%rbp),%edx
   140b5:	48 8d 35 ab 26 00 00 	lea    0x26ab(%rip),%rsi        # 16767 <g_243+0x170f>
   140bc:	48 89 c7             	mov    %rax,%rdi
   140bf:	e8 2f 46 ff ff       	callq  86f3 <transparent_crc>
   140c4:	48 8b 05 65 d5 00 00 	mov    0xd565(%rip),%rax        # 21630 <g_2271+0x10>
   140cb:	25 ff ff 3f 00       	and    $0x3fffff,%eax
   140d0:	89 c1                	mov    %eax,%ecx
   140d2:	8b 45 fc             	mov    -0x4(%rbp),%eax
   140d5:	89 c2                	mov    %eax,%edx
   140d7:	48 8d 35 93 26 00 00 	lea    0x2693(%rip),%rsi        # 16771 <g_243+0x1719>
   140de:	48 89 cf             	mov    %rcx,%rdi
   140e1:	e8 0d 46 ff ff       	callq  86f3 <transparent_crc>
   140e6:	48 8b 05 4b d5 00 00 	mov    0xd54b(%rip),%rax        # 21638 <g_2271+0x18>
   140ed:	8b 55 fc             	mov    -0x4(%rbp),%edx
   140f0:	48 8d 35 84 26 00 00 	lea    0x2684(%rip),%rsi        # 1677b <g_243+0x1723>
   140f7:	48 89 c7             	mov    %rax,%rdi
   140fa:	e8 f4 45 ff ff       	callq  86f3 <transparent_crc>
   140ff:	48 8b 05 3a d5 00 00 	mov    0xd53a(%rip),%rax        # 21640 <g_2271+0x20>
   14106:	c1 e0 06             	shl    $0x6,%eax
   14109:	66 c1 f8 06          	sar    $0x6,%ax
   1410d:	48 0f bf c0          	movswq %ax,%rax
   14111:	8b 55 fc             	mov    -0x4(%rbp),%edx
   14114:	48 8d 35 6a 26 00 00 	lea    0x266a(%rip),%rsi        # 16785 <g_243+0x172d>
   1411b:	48 89 c7             	mov    %rax,%rdi
   1411e:	e8 d0 45 ff ff       	callq  86f3 <transparent_crc>
   14123:	8b 05 1b d5 00 00    	mov    0xd51b(%rip),%eax        # 21644 <g_2271+0x24>
   14129:	89 c1                	mov    %eax,%ecx
   1412b:	8b 45 fc             	mov    -0x4(%rbp),%eax
   1412e:	89 c2                	mov    %eax,%edx
   14130:	48 8d 35 58 26 00 00 	lea    0x2658(%rip),%rsi        # 1678f <g_243+0x1737>
   14137:	48 89 cf             	mov    %rcx,%rdi
   1413a:	e8 b4 45 ff ff       	callq  86f3 <transparent_crc>
   1413f:	48 8b 05 02 d5 00 00 	mov    0xd502(%rip),%rax        # 21648 <g_2271+0x28>
   14146:	c1 e0 02             	shl    $0x2,%eax
   14149:	c1 f8 02             	sar    $0x2,%eax
   1414c:	48 98                	cltq   
   1414e:	8b 55 fc             	mov    -0x4(%rbp),%edx
   14151:	48 8d 35 41 26 00 00 	lea    0x2641(%rip),%rsi        # 16799 <g_243+0x1741>
   14158:	48 89 c7             	mov    %rax,%rdi
   1415b:	e8 93 45 ff ff       	callq  86f3 <transparent_crc>
   14160:	8b 05 ea d4 00 00    	mov    0xd4ea(%rip),%eax        # 21650 <g_2293>
   14166:	89 c1                	mov    %eax,%ecx
   14168:	8b 45 fc             	mov    -0x4(%rbp),%eax
   1416b:	89 c2                	mov    %eax,%edx
   1416d:	48 8d 35 2f 26 00 00 	lea    0x262f(%rip),%rsi        # 167a3 <g_243+0x174b>
   14174:	48 89 cf             	mov    %rcx,%rdi
   14177:	e8 77 45 ff ff       	callq  86f3 <transparent_crc>
   1417c:	48 8b 05 dd d4 00 00 	mov    0xd4dd(%rip),%rax        # 21660 <g_2385>
   14183:	c1 e0 05             	shl    $0x5,%eax
   14186:	c1 f8 05             	sar    $0x5,%eax
   14189:	48 98                	cltq   
   1418b:	8b 55 fc             	mov    -0x4(%rbp),%edx
   1418e:	48 8d 35 15 26 00 00 	lea    0x2615(%rip),%rsi        # 167aa <g_243+0x1752>
   14195:	48 89 c7             	mov    %rax,%rdi
   14198:	e8 56 45 ff ff       	callq  86f3 <transparent_crc>
   1419d:	48 8b 05 bc d4 00 00 	mov    0xd4bc(%rip),%rax        # 21660 <g_2385>
   141a4:	c1 e0 03             	shl    $0x3,%eax
   141a7:	c1 f8 1e             	sar    $0x1e,%eax
   141aa:	48 0f be c0          	movsbq %al,%rax
   141ae:	8b 55 fc             	mov    -0x4(%rbp),%edx
   141b1:	48 8d 35 fc 25 00 00 	lea    0x25fc(%rip),%rsi        # 167b4 <g_243+0x175c>
   141b8:	48 89 c7             	mov    %rax,%rdi
   141bb:	e8 33 45 ff ff       	callq  86f3 <transparent_crc>
   141c0:	48 8b 05 99 d4 00 00 	mov    0xd499(%rip),%rax        # 21660 <g_2385>
   141c7:	48 c1 e8 20          	shr    $0x20,%rax
   141cb:	25 ff ff ff 1f       	and    $0x1fffffff,%eax
   141d0:	89 c1                	mov    %eax,%ecx
   141d2:	8b 45 fc             	mov    -0x4(%rbp),%eax
   141d5:	89 c2                	mov    %eax,%edx
   141d7:	48 8d 35 e0 25 00 00 	lea    0x25e0(%rip),%rsi        # 167be <g_243+0x1766>
   141de:	48 89 cf             	mov    %rcx,%rdi
   141e1:	e8 0d 45 ff ff       	callq  86f3 <transparent_crc>
   141e6:	48 8b 05 7b d4 00 00 	mov    0xd47b(%rip),%rax        # 21668 <g_2385+0x8>
   141ed:	c1 e0 07             	shl    $0x7,%eax
   141f0:	c1 f8 07             	sar    $0x7,%eax
   141f3:	48 98                	cltq   
   141f5:	8b 55 fc             	mov    -0x4(%rbp),%edx
   141f8:	48 8d 35 c9 25 00 00 	lea    0x25c9(%rip),%rsi        # 167c8 <g_243+0x1770>
   141ff:	48 89 c7             	mov    %rax,%rdi
   14202:	e8 ec 44 ff ff       	callq  86f3 <transparent_crc>
   14207:	48 8b 05 5a d4 00 00 	mov    0xd45a(%rip),%rax        # 21668 <g_2385+0x8>
   1420e:	48 c1 e0 0d          	shl    $0xd,%rax
   14212:	48 c1 f8 2d          	sar    $0x2d,%rax
   14216:	48 98                	cltq   
   14218:	8b 55 fc             	mov    -0x4(%rbp),%edx
   1421b:	48 8d 35 b0 25 00 00 	lea    0x25b0(%rip),%rsi        # 167d2 <g_243+0x177a>
   14222:	48 89 c7             	mov    %rax,%rdi
   14225:	e8 c9 44 ff ff       	callq  86f3 <transparent_crc>
   1422a:	48 8b 05 3f d4 00 00 	mov    0xd43f(%rip),%rax        # 21670 <g_2385+0x10>
   14231:	25 ff ff 3f 00       	and    $0x3fffff,%eax
   14236:	89 c1                	mov    %eax,%ecx
   14238:	8b 45 fc             	mov    -0x4(%rbp),%eax
   1423b:	89 c2                	mov    %eax,%edx
   1423d:	48 8d 35 98 25 00 00 	lea    0x2598(%rip),%rsi        # 167dc <g_243+0x1784>
   14244:	48 89 cf             	mov    %rcx,%rdi
   14247:	e8 a7 44 ff ff       	callq  86f3 <transparent_crc>
   1424c:	48 8b 05 25 d4 00 00 	mov    0xd425(%rip),%rax        # 21678 <g_2385+0x18>
   14253:	8b 55 fc             	mov    -0x4(%rbp),%edx
   14256:	48 8d 35 89 25 00 00 	lea    0x2589(%rip),%rsi        # 167e6 <g_243+0x178e>
   1425d:	48 89 c7             	mov    %rax,%rdi
   14260:	e8 8e 44 ff ff       	callq  86f3 <transparent_crc>
   14265:	48 8b 05 14 d4 00 00 	mov    0xd414(%rip),%rax        # 21680 <g_2385+0x20>
   1426c:	c1 e0 06             	shl    $0x6,%eax
   1426f:	66 c1 f8 06          	sar    $0x6,%ax
   14273:	48 0f bf c0          	movswq %ax,%rax
   14277:	8b 55 fc             	mov    -0x4(%rbp),%edx
   1427a:	48 8d 35 6f 25 00 00 	lea    0x256f(%rip),%rsi        # 167f0 <g_243+0x1798>
   14281:	48 89 c7             	mov    %rax,%rdi
   14284:	e8 6a 44 ff ff       	callq  86f3 <transparent_crc>
   14289:	8b 05 f5 d3 00 00    	mov    0xd3f5(%rip),%eax        # 21684 <g_2385+0x24>
   1428f:	89 c1                	mov    %eax,%ecx
   14291:	8b 45 fc             	mov    -0x4(%rbp),%eax
   14294:	89 c2                	mov    %eax,%edx
   14296:	48 8d 35 5d 25 00 00 	lea    0x255d(%rip),%rsi        # 167fa <g_243+0x17a2>
   1429d:	48 89 cf             	mov    %rcx,%rdi
   142a0:	e8 4e 44 ff ff       	callq  86f3 <transparent_crc>
   142a5:	48 8b 05 dc d3 00 00 	mov    0xd3dc(%rip),%rax        # 21688 <g_2385+0x28>
   142ac:	c1 e0 02             	shl    $0x2,%eax
   142af:	c1 f8 02             	sar    $0x2,%eax
   142b2:	48 98                	cltq   
   142b4:	8b 55 fc             	mov    -0x4(%rbp),%edx
   142b7:	48 8d 35 46 25 00 00 	lea    0x2546(%rip),%rsi        # 16804 <g_243+0x17ac>
   142be:	48 89 c7             	mov    %rax,%rdi
   142c1:	e8 2d 44 ff ff       	callq  86f3 <transparent_crc>
   142c6:	8b 05 d4 d3 00 00    	mov    0xd3d4(%rip),%eax        # 216a0 <g_2413>
   142cc:	c1 e0 05             	shl    $0x5,%eax
   142cf:	c1 f8 05             	sar    $0x5,%eax
   142d2:	48 98                	cltq   
   142d4:	8b 55 fc             	mov    -0x4(%rbp),%edx
   142d7:	48 8d 35 30 25 00 00 	lea    0x2530(%rip),%rsi        # 1680e <g_243+0x17b6>
   142de:	48 89 c7             	mov    %rax,%rdi
   142e1:	e8 0d 44 ff ff       	callq  86f3 <transparent_crc>
   142e6:	0f b6 05 b6 d3 00 00 	movzbl 0xd3b6(%rip),%eax        # 216a3 <g_2413+0x3>
   142ed:	c1 e0 03             	shl    $0x3,%eax
   142f0:	c0 f8 06             	sar    $0x6,%al
   142f3:	48 0f be c0          	movsbq %al,%rax
   142f7:	8b 55 fc             	mov    -0x4(%rbp),%edx
   142fa:	48 8d 35 17 25 00 00 	lea    0x2517(%rip),%rsi        # 16818 <g_243+0x17c0>
   14301:	48 89 c7             	mov    %rax,%rdi
   14304:	e8 ea 43 ff ff       	callq  86f3 <transparent_crc>
   14309:	48 8b 05 90 d3 00 00 	mov    0xd390(%rip),%rax        # 216a0 <g_2413>
   14310:	48 c1 e8 20          	shr    $0x20,%rax
   14314:	25 ff ff ff 1f       	and    $0x1fffffff,%eax
   14319:	89 c1                	mov    %eax,%ecx
   1431b:	8b 45 fc             	mov    -0x4(%rbp),%eax
   1431e:	89 c2                	mov    %eax,%edx
   14320:	48 8d 35 fb 24 00 00 	lea    0x24fb(%rip),%rsi        # 16822 <g_243+0x17ca>
   14327:	48 89 cf             	mov    %rcx,%rdi
   1432a:	e8 c4 43 ff ff       	callq  86f3 <transparent_crc>
   1432f:	48 8b 05 72 d3 00 00 	mov    0xd372(%rip),%rax        # 216a8 <g_2413+0x8>
   14336:	c1 e0 07             	shl    $0x7,%eax
   14339:	c1 f8 07             	sar    $0x7,%eax
   1433c:	48 98                	cltq   
   1433e:	8b 55 fc             	mov    -0x4(%rbp),%edx
   14341:	48 8d 35 e4 24 00 00 	lea    0x24e4(%rip),%rsi        # 1682c <g_243+0x17d4>
   14348:	48 89 c7             	mov    %rax,%rdi
   1434b:	e8 a3 43 ff ff       	callq  86f3 <transparent_crc>
   14350:	8b 05 56 d3 00 00    	mov    0xd356(%rip),%eax        # 216ac <g_2413+0xc>
   14356:	c1 e0 0d             	shl    $0xd,%eax
   14359:	c1 f8 0d             	sar    $0xd,%eax
   1435c:	48 98                	cltq   
   1435e:	8b 55 fc             	mov    -0x4(%rbp),%edx
   14361:	48 8d 35 ce 24 00 00 	lea    0x24ce(%rip),%rsi        # 16836 <g_243+0x17de>
   14368:	48 89 c7             	mov    %rax,%rdi
   1436b:	e8 83 43 ff ff       	callq  86f3 <transparent_crc>
   14370:	8b 05 3a d3 00 00    	mov    0xd33a(%rip),%eax        # 216b0 <g_2413+0x10>
   14376:	25 ff ff 3f 00       	and    $0x3fffff,%eax
   1437b:	89 c1                	mov    %eax,%ecx
   1437d:	8b 45 fc             	mov    -0x4(%rbp),%eax
   14380:	89 c2                	mov    %eax,%edx
   14382:	48 8d 35 b7 24 00 00 	lea    0x24b7(%rip),%rsi        # 16840 <g_243+0x17e8>
   14389:	48 89 cf             	mov    %rcx,%rdi
   1438c:	e8 62 43 ff ff       	callq  86f3 <transparent_crc>
   14391:	48 8b 05 20 d3 00 00 	mov    0xd320(%rip),%rax        # 216b8 <g_2413+0x18>
   14398:	8b 55 fc             	mov    -0x4(%rbp),%edx
   1439b:	48 8d 35 a8 24 00 00 	lea    0x24a8(%rip),%rsi        # 1684a <g_243+0x17f2>
   143a2:	48 89 c7             	mov    %rax,%rdi
   143a5:	e8 49 43 ff ff       	callq  86f3 <transparent_crc>
   143aa:	0f b7 05 0f d3 00 00 	movzwl 0xd30f(%rip),%eax        # 216c0 <g_2413+0x20>
   143b1:	c1 e0 06             	shl    $0x6,%eax
   143b4:	66 c1 f8 06          	sar    $0x6,%ax
   143b8:	48 0f bf c0          	movswq %ax,%rax
   143bc:	8b 55 fc             	mov    -0x4(%rbp),%edx
   143bf:	48 8d 35 8e 24 00 00 	lea    0x248e(%rip),%rsi        # 16854 <g_243+0x17fc>
   143c6:	48 89 c7             	mov    %rax,%rdi
   143c9:	e8 25 43 ff ff       	callq  86f3 <transparent_crc>
   143ce:	8b 05 f0 d2 00 00    	mov    0xd2f0(%rip),%eax        # 216c4 <g_2413+0x24>
   143d4:	89 c1                	mov    %eax,%ecx
   143d6:	8b 45 fc             	mov    -0x4(%rbp),%eax
   143d9:	89 c2                	mov    %eax,%edx
   143db:	48 8d 35 7c 24 00 00 	lea    0x247c(%rip),%rsi        # 1685e <g_243+0x1806>
   143e2:	48 89 cf             	mov    %rcx,%rdi
   143e5:	e8 09 43 ff ff       	callq  86f3 <transparent_crc>
   143ea:	48 8b 05 d7 d2 00 00 	mov    0xd2d7(%rip),%rax        # 216c8 <g_2413+0x28>
   143f1:	c1 e0 02             	shl    $0x2,%eax
   143f4:	c1 f8 02             	sar    $0x2,%eax
   143f7:	48 98                	cltq   
   143f9:	8b 55 fc             	mov    -0x4(%rbp),%edx
   143fc:	48 8d 35 65 24 00 00 	lea    0x2465(%rip),%rsi        # 16868 <g_243+0x1810>
   14403:	48 89 c7             	mov    %rax,%rdi
   14406:	e8 e8 42 ff ff       	callq  86f3 <transparent_crc>
   1440b:	c7 45 f0 00 00 00 00 	movl   $0x0,-0x10(%rbp)
   14412:	e9 24 04 00 00       	jmpq   1483b <main+0x4cf7>
   14417:	c7 45 f4 00 00 00 00 	movl   $0x0,-0xc(%rbp)
   1441e:	e9 0a 04 00 00       	jmpq   1482d <main+0x4ce9>
   14423:	8b 45 f4             	mov    -0xc(%rbp),%eax
   14426:	48 98                	cltq   
   14428:	8b 55 f0             	mov    -0x10(%rbp),%edx
   1442b:	48 63 ca             	movslq %edx,%rcx
   1442e:	48 89 c2             	mov    %rax,%rdx
   14431:	48 c1 e2 02          	shl    $0x2,%rdx
   14435:	48 01 c2             	add    %rax,%rdx
   14438:	48 01 d2             	add    %rdx,%rdx
   1443b:	48 01 c2             	add    %rax,%rdx
   1443e:	48 8d 04 95 00 00 00 	lea    0x0(,%rdx,4),%rax
   14445:	00 
   14446:	48 89 c2             	mov    %rax,%rdx
   14449:	48 89 c8             	mov    %rcx,%rax
   1444c:	48 c1 e0 02          	shl    $0x2,%rax
   14450:	48 01 c8             	add    %rcx,%rax
   14453:	48 01 c0             	add    %rax,%rax
   14456:	48 01 c8             	add    %rcx,%rax
   14459:	48 c1 e0 04          	shl    $0x4,%rax
   1445d:	48 01 c2             	add    %rax,%rdx
   14460:	48 8d 05 79 d2 00 00 	lea    0xd279(%rip),%rax        # 216e0 <g_2510>
   14467:	48 01 d0             	add    %rdx,%rax
   1446a:	8b 00                	mov    (%rax),%eax
   1446c:	c1 e0 05             	shl    $0x5,%eax
   1446f:	66 c1 f8 05          	sar    $0x5,%ax
   14473:	48 0f bf c0          	movswq %ax,%rax
   14477:	8b 55 fc             	mov    -0x4(%rbp),%edx
   1447a:	48 8d 35 f1 23 00 00 	lea    0x23f1(%rip),%rsi        # 16872 <g_243+0x181a>
   14481:	48 89 c7             	mov    %rax,%rdi
   14484:	e8 6a 42 ff ff       	callq  86f3 <transparent_crc>
   14489:	8b 45 f4             	mov    -0xc(%rbp),%eax
   1448c:	48 98                	cltq   
   1448e:	8b 55 f0             	mov    -0x10(%rbp),%edx
   14491:	48 63 ca             	movslq %edx,%rcx
   14494:	48 89 c2             	mov    %rax,%rdx
   14497:	48 c1 e2 02          	shl    $0x2,%rdx
   1449b:	48 01 c2             	add    %rax,%rdx
   1449e:	48 01 d2             	add    %rdx,%rdx
   144a1:	48 01 c2             	add    %rax,%rdx
   144a4:	48 8d 04 95 00 00 00 	lea    0x0(,%rdx,4),%rax
   144ab:	00 
   144ac:	48 89 c2             	mov    %rax,%rdx
   144af:	48 89 c8             	mov    %rcx,%rax
   144b2:	48 c1 e0 02          	shl    $0x2,%rax
   144b6:	48 01 c8             	add    %rcx,%rax
   144b9:	48 01 c0             	add    %rax,%rax
   144bc:	48 01 c8             	add    %rcx,%rax
   144bf:	48 c1 e0 04          	shl    $0x4,%rax
   144c3:	48 01 c2             	add    %rax,%rdx
   144c6:	48 8d 05 13 d2 00 00 	lea    0xd213(%rip),%rax        # 216e0 <g_2510>
   144cd:	48 01 d0             	add    %rdx,%rax
   144d0:	8b 40 04             	mov    0x4(%rax),%eax
   144d3:	25 ff ff ff 0f       	and    $0xfffffff,%eax
   144d8:	89 c1                	mov    %eax,%ecx
   144da:	8b 45 fc             	mov    -0x4(%rbp),%eax
   144dd:	89 c2                	mov    %eax,%edx
   144df:	48 8d 35 9c 23 00 00 	lea    0x239c(%rip),%rsi        # 16882 <g_243+0x182a>
   144e6:	48 89 cf             	mov    %rcx,%rdi
   144e9:	e8 05 42 ff ff       	callq  86f3 <transparent_crc>
   144ee:	8b 45 f4             	mov    -0xc(%rbp),%eax
   144f1:	48 98                	cltq   
   144f3:	8b 55 f0             	mov    -0x10(%rbp),%edx
   144f6:	48 63 ca             	movslq %edx,%rcx
   144f9:	48 89 c2             	mov    %rax,%rdx
   144fc:	48 c1 e2 02          	shl    $0x2,%rdx
   14500:	48 01 c2             	add    %rax,%rdx
   14503:	48 01 d2             	add    %rdx,%rdx
   14506:	48 01 c2             	add    %rax,%rdx
   14509:	48 8d 04 95 00 00 00 	lea    0x0(,%rdx,4),%rax
   14510:	00 
   14511:	48 89 c2             	mov    %rax,%rdx
   14514:	48 89 c8             	mov    %rcx,%rax
   14517:	48 c1 e0 02          	shl    $0x2,%rax
   1451b:	48 01 c8             	add    %rcx,%rax
   1451e:	48 01 c0             	add    %rax,%rax
   14521:	48 01 c8             	add    %rcx,%rax
   14524:	48 c1 e0 04          	shl    $0x4,%rax
   14528:	48 01 c2             	add    %rax,%rdx
   1452b:	48 8d 05 b6 d1 00 00 	lea    0xd1b6(%rip),%rax        # 216e8 <g_2510+0x8>
   14532:	48 01 d0             	add    %rdx,%rax
   14535:	0f b7 00             	movzwl (%rax),%eax
   14538:	0f b7 c0             	movzwl %ax,%eax
   1453b:	8b 55 fc             	mov    -0x4(%rbp),%edx
   1453e:	48 8d 35 4d 23 00 00 	lea    0x234d(%rip),%rsi        # 16892 <g_243+0x183a>
   14545:	48 89 c7             	mov    %rax,%rdi
   14548:	e8 a6 41 ff ff       	callq  86f3 <transparent_crc>
   1454d:	8b 45 f4             	mov    -0xc(%rbp),%eax
   14550:	48 98                	cltq   
   14552:	8b 55 f0             	mov    -0x10(%rbp),%edx
   14555:	48 63 ca             	movslq %edx,%rcx
   14558:	48 89 c2             	mov    %rax,%rdx
   1455b:	48 c1 e2 02          	shl    $0x2,%rdx
   1455f:	48 01 c2             	add    %rax,%rdx
   14562:	48 01 d2             	add    %rdx,%rdx
   14565:	48 01 c2             	add    %rax,%rdx
   14568:	48 8d 04 95 00 00 00 	lea    0x0(,%rdx,4),%rax
   1456f:	00 
   14570:	48 89 c2             	mov    %rax,%rdx
   14573:	48 89 c8             	mov    %rcx,%rax
   14576:	48 c1 e0 02          	shl    $0x2,%rax
   1457a:	48 01 c8             	add    %rcx,%rax
   1457d:	48 01 c0             	add    %rax,%rax
   14580:	48 01 c8             	add    %rcx,%rax
   14583:	48 c1 e0 04          	shl    $0x4,%rax
   14587:	48 01 c2             	add    %rax,%rdx
   1458a:	48 8d 05 4f d1 00 00 	lea    0xd14f(%rip),%rax        # 216e0 <g_2510>
   14591:	48 01 d0             	add    %rdx,%rax
   14594:	8b 50 08             	mov    0x8(%rax),%edx
   14597:	c1 ea 10             	shr    $0x10,%edx
   1459a:	89 d2                	mov    %edx,%edx
   1459c:	8b 40 0c             	mov    0xc(%rax),%eax
   1459f:	89 c0                	mov    %eax,%eax
   145a1:	83 e0 3f             	and    $0x3f,%eax
   145a4:	48 c1 e0 10          	shl    $0x10,%rax
   145a8:	48 09 d0             	or     %rdx,%rax
   145ab:	48 c1 e0 2a          	shl    $0x2a,%rax
   145af:	48 c1 f8 2a          	sar    $0x2a,%rax
   145b3:	48 98                	cltq   
   145b5:	8b 55 fc             	mov    -0x4(%rbp),%edx
   145b8:	48 8d 35 e6 22 00 00 	lea    0x22e6(%rip),%rsi        # 168a5 <g_243+0x184d>
   145bf:	48 89 c7             	mov    %rax,%rdi
   145c2:	e8 2c 41 ff ff       	callq  86f3 <transparent_crc>
   145c7:	8b 45 f4             	mov    -0xc(%rbp),%eax
   145ca:	48 98                	cltq   
   145cc:	8b 55 f0             	mov    -0x10(%rbp),%edx
   145cf:	48 63 ca             	movslq %edx,%rcx
   145d2:	48 89 c2             	mov    %rax,%rdx
   145d5:	48 c1 e2 02          	shl    $0x2,%rdx
   145d9:	48 01 c2             	add    %rax,%rdx
   145dc:	48 01 d2             	add    %rdx,%rdx
   145df:	48 01 c2             	add    %rax,%rdx
   145e2:	48 8d 04 95 00 00 00 	lea    0x0(,%rdx,4),%rax
   145e9:	00 
   145ea:	48 89 c2             	mov    %rax,%rdx
   145ed:	48 89 c8             	mov    %rcx,%rax
   145f0:	48 c1 e0 02          	shl    $0x2,%rax
   145f4:	48 01 c8             	add    %rcx,%rax
   145f7:	48 01 c0             	add    %rax,%rax
   145fa:	48 01 c8             	add    %rcx,%rax
   145fd:	48 c1 e0 04          	shl    $0x4,%rax
   14601:	48 01 c2             	add    %rax,%rdx
   14604:	48 8d 05 d5 d0 00 00 	lea    0xd0d5(%rip),%rax        # 216e0 <g_2510>
   1460b:	48 01 d0             	add    %rdx,%rax
   1460e:	48 8b 40 0d          	mov    0xd(%rax),%rax
   14612:	8b 55 fc             	mov    -0x4(%rbp),%edx
   14615:	48 8d 35 9c 22 00 00 	lea    0x229c(%rip),%rsi        # 168b8 <g_243+0x1860>
   1461c:	48 89 c7             	mov    %rax,%rdi
   1461f:	e8 cf 40 ff ff       	callq  86f3 <transparent_crc>
   14624:	8b 45 f4             	mov    -0xc(%rbp),%eax
   14627:	48 98                	cltq   
   14629:	8b 55 f0             	mov    -0x10(%rbp),%edx
   1462c:	48 63 ca             	movslq %edx,%rcx
   1462f:	48 89 c2             	mov    %rax,%rdx
   14632:	48 c1 e2 02          	shl    $0x2,%rdx
   14636:	48 01 c2             	add    %rax,%rdx
   14639:	48 01 d2             	add    %rdx,%rdx
   1463c:	48 01 c2             	add    %rax,%rdx
   1463f:	48 8d 04 95 00 00 00 	lea    0x0(,%rdx,4),%rax
   14646:	00 
   14647:	48 89 c2             	mov    %rax,%rdx
   1464a:	48 89 c8             	mov    %rcx,%rax
   1464d:	48 c1 e0 02          	shl    $0x2,%rax
   14651:	48 01 c8             	add    %rcx,%rax
   14654:	48 01 c0             	add    %rax,%rax
   14657:	48 01 c8             	add    %rcx,%rax
   1465a:	48 c1 e0 04          	shl    $0x4,%rax
   1465e:	48 01 c2             	add    %rax,%rdx
   14661:	48 8d 05 78 d0 00 00 	lea    0xd078(%rip),%rax        # 216e0 <g_2510>
   14668:	48 01 d0             	add    %rdx,%rax
   1466b:	0f b7 40 15          	movzwl 0x15(%rax),%eax
   1466f:	48 0f bf c0          	movswq %ax,%rax
   14673:	8b 55 fc             	mov    -0x4(%rbp),%edx
   14676:	48 8d 35 4e 22 00 00 	lea    0x224e(%rip),%rsi        # 168cb <g_243+0x1873>
   1467d:	48 89 c7             	mov    %rax,%rdi
   14680:	e8 6e 40 ff ff       	callq  86f3 <transparent_crc>
   14685:	8b 45 f4             	mov    -0xc(%rbp),%eax
   14688:	48 98                	cltq   
   1468a:	8b 55 f0             	mov    -0x10(%rbp),%edx
   1468d:	48 63 ca             	movslq %edx,%rcx
   14690:	48 89 c2             	mov    %rax,%rdx
   14693:	48 c1 e2 02          	shl    $0x2,%rdx
   14697:	48 01 c2             	add    %rax,%rdx
   1469a:	48 01 d2             	add    %rdx,%rdx
   1469d:	48 01 c2             	add    %rax,%rdx
   146a0:	48 8d 04 95 00 00 00 	lea    0x0(,%rdx,4),%rax
   146a7:	00 
   146a8:	48 89 c2             	mov    %rax,%rdx
   146ab:	48 89 c8             	mov    %rcx,%rax
   146ae:	48 c1 e0 02          	shl    $0x2,%rax
   146b2:	48 01 c8             	add    %rcx,%rax
   146b5:	48 01 c0             	add    %rax,%rax
   146b8:	48 01 c8             	add    %rcx,%rax
   146bb:	48 c1 e0 04          	shl    $0x4,%rax
   146bf:	48 01 c2             	add    %rax,%rdx
   146c2:	48 8d 05 17 d0 00 00 	lea    0xd017(%rip),%rax        # 216e0 <g_2510>
   146c9:	48 01 d0             	add    %rdx,%rax
   146cc:	48 8b 40 17          	mov    0x17(%rax),%rax
   146d0:	8b 55 fc             	mov    -0x4(%rbp),%edx
   146d3:	48 8d 35 04 22 00 00 	lea    0x2204(%rip),%rsi        # 168de <g_243+0x1886>
   146da:	48 89 c7             	mov    %rax,%rdi
   146dd:	e8 11 40 ff ff       	callq  86f3 <transparent_crc>
   146e2:	8b 45 f4             	mov    -0xc(%rbp),%eax
   146e5:	48 98                	cltq   
   146e7:	8b 55 f0             	mov    -0x10(%rbp),%edx
   146ea:	48 63 ca             	movslq %edx,%rcx
   146ed:	48 89 c2             	mov    %rax,%rdx
   146f0:	48 c1 e2 02          	shl    $0x2,%rdx
   146f4:	48 01 c2             	add    %rax,%rdx
   146f7:	48 01 d2             	add    %rdx,%rdx
   146fa:	48 01 c2             	add    %rax,%rdx
   146fd:	48 8d 04 95 00 00 00 	lea    0x0(,%rdx,4),%rax
   14704:	00 
   14705:	48 89 c2             	mov    %rax,%rdx
   14708:	48 89 c8             	mov    %rcx,%rax
   1470b:	48 c1 e0 02          	shl    $0x2,%rax
   1470f:	48 01 c8             	add    %rcx,%rax
   14712:	48 01 c0             	add    %rax,%rax
   14715:	48 01 c8             	add    %rcx,%rax
   14718:	48 c1 e0 04          	shl    $0x4,%rax
   1471c:	48 01 c2             	add    %rax,%rdx
   1471f:	48 8d 05 ca cf 00 00 	lea    0xcfca(%rip),%rax        # 216f0 <g_2510+0x10>
   14726:	48 01 d0             	add    %rdx,%rax
   14729:	8b 40 0f             	mov    0xf(%rax),%eax
   1472c:	48 98                	cltq   
   1472e:	8b 55 fc             	mov    -0x4(%rbp),%edx
   14731:	48 8d 35 b9 21 00 00 	lea    0x21b9(%rip),%rsi        # 168f1 <g_243+0x1899>
   14738:	48 89 c7             	mov    %rax,%rdi
   1473b:	e8 b3 3f ff ff       	callq  86f3 <transparent_crc>
   14740:	8b 45 f4             	mov    -0xc(%rbp),%eax
   14743:	48 98                	cltq   
   14745:	8b 55 f0             	mov    -0x10(%rbp),%edx
   14748:	48 63 ca             	movslq %edx,%rcx
   1474b:	48 89 c2             	mov    %rax,%rdx
   1474e:	48 c1 e2 02          	shl    $0x2,%rdx
   14752:	48 01 c2             	add    %rax,%rdx
   14755:	48 01 d2             	add    %rdx,%rdx
   14758:	48 01 c2             	add    %rax,%rdx
   1475b:	48 8d 04 95 00 00 00 	lea    0x0(,%rdx,4),%rax
   14762:	00 
   14763:	48 89 c2             	mov    %rax,%rdx
   14766:	48 89 c8             	mov    %rcx,%rax
   14769:	48 c1 e0 02          	shl    $0x2,%rax
   1476d:	48 01 c8             	add    %rcx,%rax
   14770:	48 01 c0             	add    %rax,%rax
   14773:	48 01 c8             	add    %rcx,%rax
   14776:	48 c1 e0 04          	shl    $0x4,%rax
   1477a:	48 01 c2             	add    %rax,%rdx
   1477d:	48 8d 05 7c cf 00 00 	lea    0xcf7c(%rip),%rax        # 21700 <g_2510+0x20>
   14784:	48 01 d0             	add    %rdx,%rax
   14787:	8b 40 04             	mov    0x4(%rax),%eax
   1478a:	25 ff ff ff 7f       	and    $0x7fffffff,%eax
   1478f:	89 c1                	mov    %eax,%ecx
   14791:	8b 45 fc             	mov    -0x4(%rbp),%eax
   14794:	89 c2                	mov    %eax,%edx
   14796:	48 8d 35 67 21 00 00 	lea    0x2167(%rip),%rsi        # 16904 <g_243+0x18ac>
   1479d:	48 89 cf             	mov    %rcx,%rdi
   147a0:	e8 4e 3f ff ff       	callq  86f3 <transparent_crc>
   147a5:	8b 45 f4             	mov    -0xc(%rbp),%eax
   147a8:	48 98                	cltq   
   147aa:	8b 55 f0             	mov    -0x10(%rbp),%edx
   147ad:	48 63 ca             	movslq %edx,%rcx
   147b0:	48 89 c2             	mov    %rax,%rdx
   147b3:	48 c1 e2 02          	shl    $0x2,%rdx
   147b7:	48 01 c2             	add    %rax,%rdx
   147ba:	48 01 d2             	add    %rdx,%rdx
   147bd:	48 01 c2             	add    %rax,%rdx
   147c0:	48 8d 04 95 00 00 00 	lea    0x0(,%rdx,4),%rax
   147c7:	00 
   147c8:	48 89 c2             	mov    %rax,%rdx
   147cb:	48 89 c8             	mov    %rcx,%rax
   147ce:	48 c1 e0 02          	shl    $0x2,%rax
   147d2:	48 01 c8             	add    %rcx,%rax
   147d5:	48 01 c0             	add    %rax,%rax
   147d8:	48 01 c8             	add    %rcx,%rax
   147db:	48 c1 e0 04          	shl    $0x4,%rax
   147df:	48 01 c2             	add    %rax,%rdx
   147e2:	48 8d 05 17 cf 00 00 	lea    0xcf17(%rip),%rax        # 21700 <g_2510+0x20>
   147e9:	48 01 d0             	add    %rdx,%rax
   147ec:	0f b6 40 08          	movzbl 0x8(%rax),%eax
   147f0:	01 c0                	add    %eax,%eax
   147f2:	d0 f8                	sar    %al
   147f4:	48 0f be c0          	movsbq %al,%rax
   147f8:	8b 55 fc             	mov    -0x4(%rbp),%edx
   147fb:	48 8d 35 12 21 00 00 	lea    0x2112(%rip),%rsi        # 16914 <g_243+0x18bc>
   14802:	48 89 c7             	mov    %rax,%rdi
   14805:	e8 e9 3e ff ff       	callq  86f3 <transparent_crc>
   1480a:	83 7d fc 00          	cmpl   $0x0,-0x4(%rbp)
   1480e:	74 19                	je     14829 <main+0x4ce5>
   14810:	8b 55 f4             	mov    -0xc(%rbp),%edx
   14813:	8b 45 f0             	mov    -0x10(%rbp),%eax
   14816:	89 c6                	mov    %eax,%esi
   14818:	48 8d 3d 45 16 00 00 	lea    0x1645(%rip),%rdi        # 15e64 <g_243+0xe0c>
   1481f:	b8 00 00 00 00       	mov    $0x0,%eax
   14824:	e8 57 28 ff ff       	callq  7080 <printf@plt>
   14829:	83 45 f4 01          	addl   $0x1,-0xc(%rbp)
   1482d:	83 7d f4 03          	cmpl   $0x3,-0xc(%rbp)
   14831:	0f 8e ec fb ff ff    	jle    14423 <main+0x48df>
   14837:	83 45 f0 01          	addl   $0x1,-0x10(%rbp)
   1483b:	83 7d f0 03          	cmpl   $0x3,-0x10(%rbp)
   1483f:	0f 8e d2 fb ff ff    	jle    14417 <main+0x48d3>
   14845:	c7 45 f0 00 00 00 00 	movl   $0x0,-0x10(%rbp)
   1484c:	eb 46                	jmp    14894 <main+0x4d50>
   1484e:	8b 45 f0             	mov    -0x10(%rbp),%eax
   14851:	48 98                	cltq   
   14853:	48 8d 15 46 d1 00 00 	lea    0xd146(%rip),%rdx        # 219a0 <g_2567>
   1485a:	0f b6 04 10          	movzbl (%rax,%rdx,1),%eax
   1485e:	48 0f be c0          	movsbq %al,%rax
   14862:	8b 55 fc             	mov    -0x4(%rbp),%edx
   14865:	48 8d 35 b8 20 00 00 	lea    0x20b8(%rip),%rsi        # 16924 <g_243+0x18cc>
   1486c:	48 89 c7             	mov    %rax,%rdi
   1486f:	e8 7f 3e ff ff       	callq  86f3 <transparent_crc>
   14874:	83 7d fc 00          	cmpl   $0x0,-0x4(%rbp)
   14878:	74 16                	je     14890 <main+0x4d4c>
   1487a:	8b 45 f0             	mov    -0x10(%rbp),%eax
   1487d:	89 c6                	mov    %eax,%esi
   1487f:	48 8d 3d e1 0d 00 00 	lea    0xde1(%rip),%rdi        # 15667 <g_243+0x60f>
   14886:	b8 00 00 00 00       	mov    $0x0,%eax
   1488b:	e8 f0 27 ff ff       	callq  7080 <printf@plt>
   14890:	83 45 f0 01          	addl   $0x1,-0x10(%rbp)
   14894:	83 7d f0 07          	cmpl   $0x7,-0x10(%rbp)
   14898:	7e b4                	jle    1484e <main+0x4d0a>
   1489a:	c7 45 f0 00 00 00 00 	movl   $0x0,-0x10(%rbp)
   148a1:	e9 8e 03 00 00       	jmpq   14c34 <main+0x50f0>
   148a6:	c7 45 f4 00 00 00 00 	movl   $0x0,-0xc(%rbp)
   148ad:	e9 74 03 00 00       	jmpq   14c26 <main+0x50e2>
   148b2:	8b 45 f4             	mov    -0xc(%rbp),%eax
   148b5:	48 98                	cltq   
   148b7:	8b 55 f0             	mov    -0x10(%rbp),%edx
   148ba:	48 63 ca             	movslq %edx,%rcx
   148bd:	48 89 c2             	mov    %rax,%rdx
   148c0:	48 01 d2             	add    %rdx,%rdx
   148c3:	48 01 c2             	add    %rax,%rdx
   148c6:	48 89 d0             	mov    %rdx,%rax
   148c9:	48 c1 e0 04          	shl    $0x4,%rax
   148cd:	48 89 c2             	mov    %rax,%rdx
   148d0:	48 89 c8             	mov    %rcx,%rax
   148d3:	48 01 c0             	add    %rax,%rax
   148d6:	48 01 c8             	add    %rcx,%rax
   148d9:	48 c1 e0 05          	shl    $0x5,%rax
   148dd:	48 01 c2             	add    %rax,%rdx
   148e0:	48 8d 05 d9 d0 00 00 	lea    0xd0d9(%rip),%rax        # 219c0 <g_2599>
   148e7:	48 01 d0             	add    %rdx,%rax
   148ea:	8b 00                	mov    (%rax),%eax
   148ec:	c1 e0 05             	shl    $0x5,%eax
   148ef:	c1 f8 05             	sar    $0x5,%eax
   148f2:	48 98                	cltq   
   148f4:	8b 55 fc             	mov    -0x4(%rbp),%edx
   148f7:	48 8d 35 30 20 00 00 	lea    0x2030(%rip),%rsi        # 1692e <g_243+0x18d6>
   148fe:	48 89 c7             	mov    %rax,%rdi
   14901:	e8 ed 3d ff ff       	callq  86f3 <transparent_crc>
   14906:	8b 45 f4             	mov    -0xc(%rbp),%eax
   14909:	48 98                	cltq   
   1490b:	8b 55 f0             	mov    -0x10(%rbp),%edx
   1490e:	48 63 ca             	movslq %edx,%rcx
   14911:	48 89 c2             	mov    %rax,%rdx
   14914:	48 01 d2             	add    %rdx,%rdx
   14917:	48 01 c2             	add    %rax,%rdx
   1491a:	48 89 d0             	mov    %rdx,%rax
   1491d:	48 c1 e0 04          	shl    $0x4,%rax
   14921:	48 89 c2             	mov    %rax,%rdx
   14924:	48 89 c8             	mov    %rcx,%rax
   14927:	48 01 c0             	add    %rax,%rax
   1492a:	48 01 c8             	add    %rcx,%rax
   1492d:	48 c1 e0 05          	shl    $0x5,%rax
   14931:	48 01 c2             	add    %rax,%rdx
   14934:	48 8d 05 85 d0 00 00 	lea    0xd085(%rip),%rax        # 219c0 <g_2599>
   1493b:	48 01 d0             	add    %rdx,%rax
   1493e:	0f b6 40 03          	movzbl 0x3(%rax),%eax
   14942:	c1 e0 03             	shl    $0x3,%eax
   14945:	c0 f8 06             	sar    $0x6,%al
   14948:	48 0f be c0          	movsbq %al,%rax
   1494c:	8b 55 fc             	mov    -0x4(%rbp),%edx
   1494f:	48 8d 35 e8 1f 00 00 	lea    0x1fe8(%rip),%rsi        # 1693e <g_243+0x18e6>
   14956:	48 89 c7             	mov    %rax,%rdi
   14959:	e8 95 3d ff ff       	callq  86f3 <transparent_crc>
   1495e:	8b 45 f4             	mov    -0xc(%rbp),%eax
   14961:	48 98                	cltq   
   14963:	8b 55 f0             	mov    -0x10(%rbp),%edx
   14966:	48 63 ca             	movslq %edx,%rcx
   14969:	48 89 c2             	mov    %rax,%rdx
   1496c:	48 01 d2             	add    %rdx,%rdx
   1496f:	48 01 c2             	add    %rax,%rdx
   14972:	48 89 d0             	mov    %rdx,%rax
   14975:	48 c1 e0 04          	shl    $0x4,%rax
   14979:	48 89 c2             	mov    %rax,%rdx
   1497c:	48 89 c8             	mov    %rcx,%rax
   1497f:	48 01 c0             	add    %rax,%rax
   14982:	48 01 c8             	add    %rcx,%rax
   14985:	48 c1 e0 05          	shl    $0x5,%rax
   14989:	48 01 c2             	add    %rax,%rdx
   1498c:	48 8d 05 2d d0 00 00 	lea    0xd02d(%rip),%rax        # 219c0 <g_2599>
   14993:	48 01 d0             	add    %rdx,%rax
   14996:	48 8b 00             	mov    (%rax),%rax
   14999:	48 c1 e8 20          	shr    $0x20,%rax
   1499d:	25 ff ff ff 1f       	and    $0x1fffffff,%eax
   149a2:	89 c1                	mov    %eax,%ecx
   149a4:	8b 45 fc             	mov    -0x4(%rbp),%eax
   149a7:	89 c2                	mov    %eax,%edx
   149a9:	48 8d 35 9e 1f 00 00 	lea    0x1f9e(%rip),%rsi        # 1694e <g_243+0x18f6>
   149b0:	48 89 cf             	mov    %rcx,%rdi
   149b3:	e8 3b 3d ff ff       	callq  86f3 <transparent_crc>
   149b8:	8b 45 f4             	mov    -0xc(%rbp),%eax
   149bb:	48 98                	cltq   
   149bd:	8b 55 f0             	mov    -0x10(%rbp),%edx
   149c0:	48 63 ca             	movslq %edx,%rcx
   149c3:	48 89 c2             	mov    %rax,%rdx
   149c6:	48 01 d2             	add    %rdx,%rdx
   149c9:	48 01 c2             	add    %rax,%rdx
   149cc:	48 89 d0             	mov    %rdx,%rax
   149cf:	48 c1 e0 04          	shl    $0x4,%rax
   149d3:	48 89 c2             	mov    %rax,%rdx
   149d6:	48 89 c8             	mov    %rcx,%rax
   149d9:	48 01 c0             	add    %rax,%rax
   149dc:	48 01 c8             	add    %rcx,%rax
   149df:	48 c1 e0 05          	shl    $0x5,%rax
   149e3:	48 01 c2             	add    %rax,%rdx
   149e6:	48 8d 05 d3 cf 00 00 	lea    0xcfd3(%rip),%rax        # 219c0 <g_2599>
   149ed:	48 01 d0             	add    %rdx,%rax
   149f0:	48 8b 40 08          	mov    0x8(%rax),%rax
   149f4:	c1 e0 07             	shl    $0x7,%eax
   149f7:	c1 f8 07             	sar    $0x7,%eax
   149fa:	48 98                	cltq   
   149fc:	8b 55 fc             	mov    -0x4(%rbp),%edx
   149ff:	48 8d 35 58 1f 00 00 	lea    0x1f58(%rip),%rsi        # 1695e <g_243+0x1906>
   14a06:	48 89 c7             	mov    %rax,%rdi
   14a09:	e8 e5 3c ff ff       	callq  86f3 <transparent_crc>
   14a0e:	8b 45 f4             	mov    -0xc(%rbp),%eax
   14a11:	48 98                	cltq   
   14a13:	8b 55 f0             	mov    -0x10(%rbp),%edx
   14a16:	48 63 ca             	movslq %edx,%rcx
   14a19:	48 89 c2             	mov    %rax,%rdx
   14a1c:	48 01 d2             	add    %rdx,%rdx
   14a1f:	48 01 c2             	add    %rax,%rdx
   14a22:	48 89 d0             	mov    %rdx,%rax
   14a25:	48 c1 e0 04          	shl    $0x4,%rax
   14a29:	48 89 c2             	mov    %rax,%rdx
   14a2c:	48 89 c8             	mov    %rcx,%rax
   14a2f:	48 01 c0             	add    %rax,%rax
   14a32:	48 01 c8             	add    %rcx,%rax
   14a35:	48 c1 e0 05          	shl    $0x5,%rax
   14a39:	48 01 c2             	add    %rax,%rdx
   14a3c:	48 8d 05 7d cf 00 00 	lea    0xcf7d(%rip),%rax        # 219c0 <g_2599>
   14a43:	48 01 d0             	add    %rdx,%rax
   14a46:	8b 40 0c             	mov    0xc(%rax),%eax
   14a49:	c1 e0 0d             	shl    $0xd,%eax
   14a4c:	c1 f8 0d             	sar    $0xd,%eax
   14a4f:	48 98                	cltq   
   14a51:	8b 55 fc             	mov    -0x4(%rbp),%edx
   14a54:	48 8d 35 13 1f 00 00 	lea    0x1f13(%rip),%rsi        # 1696e <g_243+0x1916>
   14a5b:	48 89 c7             	mov    %rax,%rdi
   14a5e:	e8 90 3c ff ff       	callq  86f3 <transparent_crc>
   14a63:	8b 45 f4             	mov    -0xc(%rbp),%eax
   14a66:	48 98                	cltq   
   14a68:	8b 55 f0             	mov    -0x10(%rbp),%edx
   14a6b:	48 63 ca             	movslq %edx,%rcx
   14a6e:	48 89 c2             	mov    %rax,%rdx
   14a71:	48 01 d2             	add    %rdx,%rdx
   14a74:	48 01 c2             	add    %rax,%rdx
   14a77:	48 89 d0             	mov    %rdx,%rax
   14a7a:	48 c1 e0 04          	shl    $0x4,%rax
   14a7e:	48 89 c2             	mov    %rax,%rdx
   14a81:	48 89 c8             	mov    %rcx,%rax
   14a84:	48 01 c0             	add    %rax,%rax
   14a87:	48 01 c8             	add    %rcx,%rax
   14a8a:	48 c1 e0 05          	shl    $0x5,%rax
   14a8e:	48 01 c2             	add    %rax,%rdx
   14a91:	48 8d 05 38 cf 00 00 	lea    0xcf38(%rip),%rax        # 219d0 <g_2599+0x10>
   14a98:	48 01 d0             	add    %rdx,%rax
   14a9b:	8b 00                	mov    (%rax),%eax
   14a9d:	25 ff ff 3f 00       	and    $0x3fffff,%eax
   14aa2:	89 c1                	mov    %eax,%ecx
   14aa4:	8b 45 fc             	mov    -0x4(%rbp),%eax
   14aa7:	89 c2                	mov    %eax,%edx
   14aa9:	48 8d 35 ce 1e 00 00 	lea    0x1ece(%rip),%rsi        # 1697e <g_243+0x1926>
   14ab0:	48 89 cf             	mov    %rcx,%rdi
   14ab3:	e8 3b 3c ff ff       	callq  86f3 <transparent_crc>
   14ab8:	8b 45 f4             	mov    -0xc(%rbp),%eax
   14abb:	48 98                	cltq   
   14abd:	8b 55 f0             	mov    -0x10(%rbp),%edx
   14ac0:	48 63 ca             	movslq %edx,%rcx
   14ac3:	48 89 c2             	mov    %rax,%rdx
   14ac6:	48 01 d2             	add    %rdx,%rdx
   14ac9:	48 01 c2             	add    %rax,%rdx
   14acc:	48 89 d0             	mov    %rdx,%rax
   14acf:	48 c1 e0 04          	shl    $0x4,%rax
   14ad3:	48 89 c2             	mov    %rax,%rdx
   14ad6:	48 89 c8             	mov    %rcx,%rax
   14ad9:	48 01 c0             	add    %rax,%rax
   14adc:	48 01 c8             	add    %rcx,%rax
   14adf:	48 c1 e0 05          	shl    $0x5,%rax
   14ae3:	48 01 c2             	add    %rax,%rdx
   14ae6:	48 8d 05 eb ce 00 00 	lea    0xceeb(%rip),%rax        # 219d8 <g_2599+0x18>
   14aed:	48 01 d0             	add    %rdx,%rax
   14af0:	48 8b 00             	mov    (%rax),%rax
   14af3:	8b 55 fc             	mov    -0x4(%rbp),%edx
   14af6:	48 8d 35 91 1e 00 00 	lea    0x1e91(%rip),%rsi        # 1698e <g_243+0x1936>
   14afd:	48 89 c7             	mov    %rax,%rdi
   14b00:	e8 ee 3b ff ff       	callq  86f3 <transparent_crc>
   14b05:	8b 45 f4             	mov    -0xc(%rbp),%eax
   14b08:	48 98                	cltq   
   14b0a:	8b 55 f0             	mov    -0x10(%rbp),%edx
   14b0d:	48 63 ca             	movslq %edx,%rcx
   14b10:	48 89 c2             	mov    %rax,%rdx
   14b13:	48 01 d2             	add    %rdx,%rdx
   14b16:	48 01 c2             	add    %rax,%rdx
   14b19:	48 89 d0             	mov    %rdx,%rax
   14b1c:	48 c1 e0 04          	shl    $0x4,%rax
   14b20:	48 89 c2             	mov    %rax,%rdx
   14b23:	48 89 c8             	mov    %rcx,%rax
   14b26:	48 01 c0             	add    %rax,%rax
   14b29:	48 01 c8             	add    %rcx,%rax
   14b2c:	48 c1 e0 05          	shl    $0x5,%rax
   14b30:	48 01 c2             	add    %rax,%rdx
   14b33:	48 8d 05 a6 ce 00 00 	lea    0xcea6(%rip),%rax        # 219e0 <g_2599+0x20>
   14b3a:	48 01 d0             	add    %rdx,%rax
   14b3d:	0f b7 00             	movzwl (%rax),%eax
   14b40:	c1 e0 06             	shl    $0x6,%eax
   14b43:	66 c1 f8 06          	sar    $0x6,%ax
   14b47:	48 0f bf c0          	movswq %ax,%rax
   14b4b:	8b 55 fc             	mov    -0x4(%rbp),%edx
   14b4e:	48 8d 35 49 1e 00 00 	lea    0x1e49(%rip),%rsi        # 1699e <g_243+0x1946>
   14b55:	48 89 c7             	mov    %rax,%rdi
   14b58:	e8 96 3b ff ff       	callq  86f3 <transparent_crc>
   14b5d:	8b 45 f4             	mov    -0xc(%rbp),%eax
   14b60:	48 98                	cltq   
   14b62:	8b 55 f0             	mov    -0x10(%rbp),%edx
   14b65:	48 63 ca             	movslq %edx,%rcx
   14b68:	48 89 c2             	mov    %rax,%rdx
   14b6b:	48 01 d2             	add    %rdx,%rdx
   14b6e:	48 01 c2             	add    %rax,%rdx
   14b71:	48 89 d0             	mov    %rdx,%rax
   14b74:	48 c1 e0 04          	shl    $0x4,%rax
   14b78:	48 89 c2             	mov    %rax,%rdx
   14b7b:	48 89 c8             	mov    %rcx,%rax
   14b7e:	48 01 c0             	add    %rax,%rax
   14b81:	48 01 c8             	add    %rcx,%rax
   14b84:	48 c1 e0 05          	shl    $0x5,%rax
   14b88:	48 01 c2             	add    %rax,%rdx
   14b8b:	48 8d 05 52 ce 00 00 	lea    0xce52(%rip),%rax        # 219e4 <g_2599+0x24>
   14b92:	48 01 d0             	add    %rdx,%rax
   14b95:	8b 00                	mov    (%rax),%eax
   14b97:	89 c1                	mov    %eax,%ecx
   14b99:	8b 45 fc             	mov    -0x4(%rbp),%eax
   14b9c:	89 c2                	mov    %eax,%edx
   14b9e:	48 8d 35 09 1e 00 00 	lea    0x1e09(%rip),%rsi        # 169ae <g_243+0x1956>
   14ba5:	48 89 cf             	mov    %rcx,%rdi
   14ba8:	e8 46 3b ff ff       	callq  86f3 <transparent_crc>
   14bad:	8b 45 f4             	mov    -0xc(%rbp),%eax
   14bb0:	48 98                	cltq   
   14bb2:	8b 55 f0             	mov    -0x10(%rbp),%edx
   14bb5:	48 63 ca             	movslq %edx,%rcx
   14bb8:	48 89 c2             	mov    %rax,%rdx
   14bbb:	48 01 d2             	add    %rdx,%rdx
   14bbe:	48 01 c2             	add    %rax,%rdx
   14bc1:	48 89 d0             	mov    %rdx,%rax
   14bc4:	48 c1 e0 04          	shl    $0x4,%rax
   14bc8:	48 89 c2             	mov    %rax,%rdx
   14bcb:	48 89 c8             	mov    %rcx,%rax
   14bce:	48 01 c0             	add    %rax,%rax
   14bd1:	48 01 c8             	add    %rcx,%rax
   14bd4:	48 c1 e0 05          	shl    $0x5,%rax
   14bd8:	48 01 c2             	add    %rax,%rdx
   14bdb:	48 8d 05 fe cd 00 00 	lea    0xcdfe(%rip),%rax        # 219e0 <g_2599+0x20>
   14be2:	48 01 d0             	add    %rdx,%rax
   14be5:	48 8b 40 08          	mov    0x8(%rax),%rax
   14be9:	c1 e0 02             	shl    $0x2,%eax
   14bec:	c1 f8 02             	sar    $0x2,%eax
   14bef:	48 98                	cltq   
   14bf1:	8b 55 fc             	mov    -0x4(%rbp),%edx
   14bf4:	48 8d 35 c3 1d 00 00 	lea    0x1dc3(%rip),%rsi        # 169be <g_243+0x1966>
   14bfb:	48 89 c7             	mov    %rax,%rdi
   14bfe:	e8 f0 3a ff ff       	callq  86f3 <transparent_crc>
   14c03:	83 7d fc 00          	cmpl   $0x0,-0x4(%rbp)
   14c07:	74 19                	je     14c22 <main+0x50de>
   14c09:	8b 55 f4             	mov    -0xc(%rbp),%edx
   14c0c:	8b 45 f0             	mov    -0x10(%rbp),%eax
   14c0f:	89 c6                	mov    %eax,%esi
   14c11:	48 8d 3d 4c 12 00 00 	lea    0x124c(%rip),%rdi        # 15e64 <g_243+0xe0c>
   14c18:	b8 00 00 00 00       	mov    $0x0,%eax
   14c1d:	e8 5e 24 ff ff       	callq  7080 <printf@plt>
   14c22:	83 45 f4 01          	addl   $0x1,-0xc(%rbp)
   14c26:	83 7d f4 01          	cmpl   $0x1,-0xc(%rbp)
   14c2a:	0f 8e 82 fc ff ff    	jle    148b2 <main+0x4d6e>
   14c30:	83 45 f0 01          	addl   $0x1,-0x10(%rbp)
   14c34:	83 7d f0 09          	cmpl   $0x9,-0x10(%rbp)
   14c38:	0f 8e 68 fc ff ff    	jle    148a6 <main+0x4d62>
   14c3e:	48 8b 05 3b d1 00 00 	mov    0xd13b(%rip),%rax        # 21d80 <g_2614>
   14c45:	c1 e0 05             	shl    $0x5,%eax
   14c48:	66 c1 f8 05          	sar    $0x5,%ax
   14c4c:	48 0f bf c0          	movswq %ax,%rax
   14c50:	8b 55 fc             	mov    -0x4(%rbp),%edx
   14c53:	48 8d 35 74 1d 00 00 	lea    0x1d74(%rip),%rsi        # 169ce <g_243+0x1976>
   14c5a:	48 89 c7             	mov    %rax,%rdi
   14c5d:	e8 91 3a ff ff       	callq  86f3 <transparent_crc>
   14c62:	8b 05 1c d1 00 00    	mov    0xd11c(%rip),%eax        # 21d84 <g_2614+0x4>
   14c68:	25 ff ff ff 0f       	and    $0xfffffff,%eax
   14c6d:	89 c1                	mov    %eax,%ecx
   14c6f:	8b 45 fc             	mov    -0x4(%rbp),%eax
   14c72:	89 c2                	mov    %eax,%edx
   14c74:	48 8d 35 5d 1d 00 00 	lea    0x1d5d(%rip),%rsi        # 169d8 <g_243+0x1980>
   14c7b:	48 89 cf             	mov    %rcx,%rdi
   14c7e:	e8 70 3a ff ff       	callq  86f3 <transparent_crc>
   14c83:	0f b7 05 fe d0 00 00 	movzwl 0xd0fe(%rip),%eax        # 21d88 <g_2614+0x8>
   14c8a:	0f b7 c0             	movzwl %ax,%eax
   14c8d:	8b 55 fc             	mov    -0x4(%rbp),%edx
   14c90:	48 8d 35 4b 1d 00 00 	lea    0x1d4b(%rip),%rsi        # 169e2 <g_243+0x198a>
   14c97:	48 89 c7             	mov    %rax,%rdi
   14c9a:	e8 54 3a ff ff       	callq  86f3 <transparent_crc>
   14c9f:	48 8b 05 e2 d0 00 00 	mov    0xd0e2(%rip),%rax        # 21d88 <g_2614+0x8>
   14ca6:	48 c1 e0 1a          	shl    $0x1a,%rax
   14caa:	48 c1 f8 2a          	sar    $0x2a,%rax
   14cae:	48 98                	cltq   
   14cb0:	8b 55 fc             	mov    -0x4(%rbp),%edx
   14cb3:	48 8d 35 35 1d 00 00 	lea    0x1d35(%rip),%rsi        # 169ef <g_243+0x1997>
   14cba:	48 89 c7             	mov    %rax,%rdi
   14cbd:	e8 31 3a ff ff       	callq  86f3 <transparent_crc>
   14cc2:	48 8b 05 c4 d0 00 00 	mov    0xd0c4(%rip),%rax        # 21d8d <g_2614+0xd>
   14cc9:	8b 55 fc             	mov    -0x4(%rbp),%edx
   14ccc:	48 8d 35 29 1d 00 00 	lea    0x1d29(%rip),%rsi        # 169fc <g_243+0x19a4>
   14cd3:	48 89 c7             	mov    %rax,%rdi
   14cd6:	e8 18 3a ff ff       	callq  86f3 <transparent_crc>
   14cdb:	0f b7 05 b3 d0 00 00 	movzwl 0xd0b3(%rip),%eax        # 21d95 <g_2614+0x15>
   14ce2:	48 0f bf c0          	movswq %ax,%rax
   14ce6:	8b 55 fc             	mov    -0x4(%rbp),%edx
   14ce9:	48 8d 35 19 1d 00 00 	lea    0x1d19(%rip),%rsi        # 16a09 <g_243+0x19b1>
   14cf0:	48 89 c7             	mov    %rax,%rdi
   14cf3:	e8 fb 39 ff ff       	callq  86f3 <transparent_crc>
   14cf8:	48 8b 05 98 d0 00 00 	mov    0xd098(%rip),%rax        # 21d97 <g_2614+0x17>
   14cff:	8b 55 fc             	mov    -0x4(%rbp),%edx
   14d02:	48 8d 35 0d 1d 00 00 	lea    0x1d0d(%rip),%rsi        # 16a16 <g_243+0x19be>
   14d09:	48 89 c7             	mov    %rax,%rdi
   14d0c:	e8 e2 39 ff ff       	callq  86f3 <transparent_crc>
   14d11:	8b 05 88 d0 00 00    	mov    0xd088(%rip),%eax        # 21d9f <g_2614+0x1f>
   14d17:	48 98                	cltq   
   14d19:	8b 55 fc             	mov    -0x4(%rbp),%edx
   14d1c:	48 8d 35 00 1d 00 00 	lea    0x1d00(%rip),%rsi        # 16a23 <g_243+0x19cb>
   14d23:	48 89 c7             	mov    %rax,%rdi
   14d26:	e8 c8 39 ff ff       	callq  86f3 <transparent_crc>
   14d2b:	8b 05 73 d0 00 00    	mov    0xd073(%rip),%eax        # 21da4 <g_2614+0x24>
   14d31:	25 ff ff ff 7f       	and    $0x7fffffff,%eax
   14d36:	89 c1                	mov    %eax,%ecx
   14d38:	8b 45 fc             	mov    -0x4(%rbp),%eax
   14d3b:	89 c2                	mov    %eax,%edx
   14d3d:	48 8d 35 ec 1c 00 00 	lea    0x1cec(%rip),%rsi        # 16a30 <g_243+0x19d8>
   14d44:	48 89 cf             	mov    %rcx,%rdi
   14d47:	e8 a7 39 ff ff       	callq  86f3 <transparent_crc>
   14d4c:	0f b6 05 55 d0 00 00 	movzbl 0xd055(%rip),%eax        # 21da8 <g_2614+0x28>
   14d53:	01 c0                	add    %eax,%eax
   14d55:	d0 f8                	sar    %al
   14d57:	48 0f be c0          	movsbq %al,%rax
   14d5b:	8b 55 fc             	mov    -0x4(%rbp),%edx
   14d5e:	48 8d 35 d5 1c 00 00 	lea    0x1cd5(%rip),%rsi        # 16a3a <g_243+0x19e2>
   14d65:	48 89 c7             	mov    %rax,%rdi
   14d68:	e8 86 39 ff ff       	callq  86f3 <transparent_crc>
   14d6d:	c7 45 f0 00 00 00 00 	movl   $0x0,-0x10(%rbp)
   14d74:	eb 72                	jmp    14de8 <main+0x52a4>
   14d76:	c7 45 f4 00 00 00 00 	movl   $0x0,-0xc(%rbp)
   14d7d:	eb 5f                	jmp    14dde <main+0x529a>
   14d7f:	8b 45 f4             	mov    -0xc(%rbp),%eax
   14d82:	48 63 c8             	movslq %eax,%rcx
   14d85:	8b 45 f0             	mov    -0x10(%rbp),%eax
   14d88:	48 63 d0             	movslq %eax,%rdx
   14d8b:	48 89 d0             	mov    %rdx,%rax
   14d8e:	48 c1 e0 02          	shl    $0x2,%rax
   14d92:	48 01 d0             	add    %rdx,%rax
   14d95:	48 8d 14 08          	lea    (%rax,%rcx,1),%rdx
   14d99:	48 8d 05 10 d0 00 00 	lea    0xd010(%rip),%rax        # 21db0 <g_2672>
   14da0:	48 01 d0             	add    %rdx,%rax
   14da3:	0f b6 00             	movzbl (%rax),%eax
   14da6:	0f b6 c0             	movzbl %al,%eax
   14da9:	8b 55 fc             	mov    -0x4(%rbp),%edx
   14dac:	48 8d 35 91 1c 00 00 	lea    0x1c91(%rip),%rsi        # 16a44 <g_243+0x19ec>
   14db3:	48 89 c7             	mov    %rax,%rdi
   14db6:	e8 38 39 ff ff       	callq  86f3 <transparent_crc>
   14dbb:	83 7d fc 00          	cmpl   $0x0,-0x4(%rbp)
   14dbf:	74 19                	je     14dda <main+0x5296>
   14dc1:	8b 55 f4             	mov    -0xc(%rbp),%edx
   14dc4:	8b 45 f0             	mov    -0x10(%rbp),%eax
   14dc7:	89 c6                	mov    %eax,%esi
   14dc9:	48 8d 3d 94 10 00 00 	lea    0x1094(%rip),%rdi        # 15e64 <g_243+0xe0c>
   14dd0:	b8 00 00 00 00       	mov    $0x0,%eax
   14dd5:	e8 a6 22 ff ff       	callq  7080 <printf@plt>
   14dda:	83 45 f4 01          	addl   $0x1,-0xc(%rbp)
   14dde:	83 7d f4 04          	cmpl   $0x4,-0xc(%rbp)
   14de2:	7e 9b                	jle    14d7f <main+0x523b>
   14de4:	83 45 f0 01          	addl   $0x1,-0x10(%rbp)
   14de8:	83 7d f0 03          	cmpl   $0x3,-0x10(%rbp)
   14dec:	7e 88                	jle    14d76 <main+0x5232>
   14dee:	48 8b 05 eb cf 00 00 	mov    0xcfeb(%rip),%rax        # 21de0 <g_2682>
   14df5:	c1 e0 05             	shl    $0x5,%eax
   14df8:	c1 f8 05             	sar    $0x5,%eax
   14dfb:	48 98                	cltq   
   14dfd:	8b 55 fc             	mov    -0x4(%rbp),%edx
   14e00:	48 8d 35 4a 1c 00 00 	lea    0x1c4a(%rip),%rsi        # 16a51 <g_243+0x19f9>
   14e07:	48 89 c7             	mov    %rax,%rdi
   14e0a:	e8 e4 38 ff ff       	callq  86f3 <transparent_crc>
   14e0f:	48 8b 05 ca cf 00 00 	mov    0xcfca(%rip),%rax        # 21de0 <g_2682>
   14e16:	c1 e0 03             	shl    $0x3,%eax
   14e19:	c1 f8 1e             	sar    $0x1e,%eax
   14e1c:	48 0f be c0          	movsbq %al,%rax
   14e20:	8b 55 fc             	mov    -0x4(%rbp),%edx
   14e23:	48 8d 35 31 1c 00 00 	lea    0x1c31(%rip),%rsi        # 16a5b <g_243+0x1a03>
   14e2a:	48 89 c7             	mov    %rax,%rdi
   14e2d:	e8 c1 38 ff ff       	callq  86f3 <transparent_crc>
   14e32:	48 8b 05 a7 cf 00 00 	mov    0xcfa7(%rip),%rax        # 21de0 <g_2682>
   14e39:	48 c1 e8 20          	shr    $0x20,%rax
   14e3d:	25 ff ff ff 1f       	and    $0x1fffffff,%eax
   14e42:	89 c1                	mov    %eax,%ecx
   14e44:	8b 45 fc             	mov    -0x4(%rbp),%eax
   14e47:	89 c2                	mov    %eax,%edx
   14e49:	48 8d 35 15 1c 00 00 	lea    0x1c15(%rip),%rsi        # 16a65 <g_243+0x1a0d>
   14e50:	48 89 cf             	mov    %rcx,%rdi
   14e53:	e8 9b 38 ff ff       	callq  86f3 <transparent_crc>
   14e58:	48 8b 05 89 cf 00 00 	mov    0xcf89(%rip),%rax        # 21de8 <g_2682+0x8>
   14e5f:	c1 e0 07             	shl    $0x7,%eax
   14e62:	c1 f8 07             	sar    $0x7,%eax
   14e65:	48 98                	cltq   
   14e67:	8b 55 fc             	mov    -0x4(%rbp),%edx
   14e6a:	48 8d 35 fe 1b 00 00 	lea    0x1bfe(%rip),%rsi        # 16a6f <g_243+0x1a17>
   14e71:	48 89 c7             	mov    %rax,%rdi
   14e74:	e8 7a 38 ff ff       	callq  86f3 <transparent_crc>
   14e79:	48 8b 05 68 cf 00 00 	mov    0xcf68(%rip),%rax        # 21de8 <g_2682+0x8>
   14e80:	48 c1 e0 0d          	shl    $0xd,%rax
   14e84:	48 c1 f8 2d          	sar    $0x2d,%rax
   14e88:	48 98                	cltq   
   14e8a:	8b 55 fc             	mov    -0x4(%rbp),%edx
   14e8d:	48 8d 35 e5 1b 00 00 	lea    0x1be5(%rip),%rsi        # 16a79 <g_243+0x1a21>
   14e94:	48 89 c7             	mov    %rax,%rdi
   14e97:	e8 57 38 ff ff       	callq  86f3 <transparent_crc>
   14e9c:	48 8b 05 4d cf 00 00 	mov    0xcf4d(%rip),%rax        # 21df0 <g_2682+0x10>
   14ea3:	25 ff ff 3f 00       	and    $0x3fffff,%eax
   14ea8:	89 c1                	mov    %eax,%ecx
   14eaa:	8b 45 fc             	mov    -0x4(%rbp),%eax
   14ead:	89 c2                	mov    %eax,%edx
   14eaf:	48 8d 35 cd 1b 00 00 	lea    0x1bcd(%rip),%rsi        # 16a83 <g_243+0x1a2b>
   14eb6:	48 89 cf             	mov    %rcx,%rdi
   14eb9:	e8 35 38 ff ff       	callq  86f3 <transparent_crc>
   14ebe:	48 8b 05 33 cf 00 00 	mov    0xcf33(%rip),%rax        # 21df8 <g_2682+0x18>
   14ec5:	8b 55 fc             	mov    -0x4(%rbp),%edx
   14ec8:	48 8d 35 be 1b 00 00 	lea    0x1bbe(%rip),%rsi        # 16a8d <g_243+0x1a35>
   14ecf:	48 89 c7             	mov    %rax,%rdi
   14ed2:	e8 1c 38 ff ff       	callq  86f3 <transparent_crc>
   14ed7:	48 8b 05 22 cf 00 00 	mov    0xcf22(%rip),%rax        # 21e00 <g_2682+0x20>
   14ede:	c1 e0 06             	shl    $0x6,%eax
   14ee1:	66 c1 f8 06          	sar    $0x6,%ax
   14ee5:	48 0f bf c0          	movswq %ax,%rax
   14ee9:	8b 55 fc             	mov    -0x4(%rbp),%edx
   14eec:	48 8d 35 a4 1b 00 00 	lea    0x1ba4(%rip),%rsi        # 16a97 <g_243+0x1a3f>
   14ef3:	48 89 c7             	mov    %rax,%rdi
   14ef6:	e8 f8 37 ff ff       	callq  86f3 <transparent_crc>
   14efb:	8b 05 03 cf 00 00    	mov    0xcf03(%rip),%eax        # 21e04 <g_2682+0x24>
   14f01:	89 c1                	mov    %eax,%ecx
   14f03:	8b 45 fc             	mov    -0x4(%rbp),%eax
   14f06:	89 c2                	mov    %eax,%edx
   14f08:	48 8d 35 92 1b 00 00 	lea    0x1b92(%rip),%rsi        # 16aa1 <g_243+0x1a49>
   14f0f:	48 89 cf             	mov    %rcx,%rdi
   14f12:	e8 dc 37 ff ff       	callq  86f3 <transparent_crc>
   14f17:	48 8b 05 ea ce 00 00 	mov    0xceea(%rip),%rax        # 21e08 <g_2682+0x28>
   14f1e:	c1 e0 02             	shl    $0x2,%eax
   14f21:	c1 f8 02             	sar    $0x2,%eax
   14f24:	48 98                	cltq   
   14f26:	8b 55 fc             	mov    -0x4(%rbp),%edx
   14f29:	48 8d 35 7b 1b 00 00 	lea    0x1b7b(%rip),%rsi        # 16aab <g_243+0x1a53>
   14f30:	48 89 c7             	mov    %rax,%rdi
   14f33:	e8 bb 37 ff ff       	callq  86f3 <transparent_crc>
   14f38:	8b 05 e2 50 00 00    	mov    0x50e2(%rip),%eax        # 1a020 <crc32_context>
   14f3e:	f7 d0                	not    %eax
   14f40:	89 c2                	mov    %eax,%edx
   14f42:	8b 45 fc             	mov    -0x4(%rbp),%eax
   14f45:	89 c6                	mov    %eax,%esi
   14f47:	89 d7                	mov    %edx,%edi
   14f49:	e8 46 22 ff ff       	callq  7194 <platform_main_end>
   14f4e:	b8 00 00 00 00       	mov    $0x0,%eax
   14f53:	c9                   	leaveq 
   14f54:	c3                   	retq   
   14f55:	66 2e 0f 1f 84 00 00 	nopw   %cs:0x0(%rax,%rax,1)
   14f5c:	00 00 00 
   14f5f:	90                   	nop

0000000000014f60 <__libc_csu_init>:
   14f60:	f3 0f 1e fa          	endbr64 
   14f64:	41 57                	push   %r15
   14f66:	4c 8d 3d 83 46 00 00 	lea    0x4683(%rip),%r15        # 195f0 <__frame_dummy_init_array_entry>
   14f6d:	41 56                	push   %r14
   14f6f:	49 89 d6             	mov    %rdx,%r14
   14f72:	41 55                	push   %r13
   14f74:	49 89 f5             	mov    %rsi,%r13
   14f77:	41 54                	push   %r12
   14f79:	41 89 fc             	mov    %edi,%r12d
   14f7c:	55                   	push   %rbp
   14f7d:	48 8d 2d 74 46 00 00 	lea    0x4674(%rip),%rbp        # 195f8 <__do_global_dtors_aux_fini_array_entry>
   14f84:	53                   	push   %rbx
   14f85:	4c 29 fd             	sub    %r15,%rbp
   14f88:	48 83 ec 08          	sub    $0x8,%rsp
   14f8c:	e8 6f 20 ff ff       	callq  7000 <_init>
   14f91:	48 c1 fd 03          	sar    $0x3,%rbp
   14f95:	74 1f                	je     14fb6 <__libc_csu_init+0x56>
   14f97:	31 db                	xor    %ebx,%ebx
   14f99:	0f 1f 80 00 00 00 00 	nopl   0x0(%rax)
   14fa0:	4c 89 f2             	mov    %r14,%rdx
   14fa3:	4c 89 ee             	mov    %r13,%rsi
   14fa6:	44 89 e7             	mov    %r12d,%edi
   14fa9:	41 ff 14 df          	callq  *(%r15,%rbx,8)
   14fad:	48 83 c3 01          	add    $0x1,%rbx
   14fb1:	48 39 dd             	cmp    %rbx,%rbp
   14fb4:	75 ea                	jne    14fa0 <__libc_csu_init+0x40>
   14fb6:	48 83 c4 08          	add    $0x8,%rsp
   14fba:	5b                   	pop    %rbx
   14fbb:	5d                   	pop    %rbp
   14fbc:	41 5c                	pop    %r12
   14fbe:	41 5d                	pop    %r13
   14fc0:	41 5e                	pop    %r14
   14fc2:	41 5f                	pop    %r15
   14fc4:	c3                   	retq   
   14fc5:	66 66 2e 0f 1f 84 00 	data16 nopw %cs:0x0(%rax,%rax,1)
   14fcc:	00 00 00 00 

0000000000014fd0 <__libc_csu_fini>:
   14fd0:	f3 0f 1e fa          	endbr64 
   14fd4:	c3                   	retq   
