


Disassembly of section .text:

00000000000090a0 <_start>:
    90a0:	f3 0f 1e fa          	endbr64 
    90a4:	31 ed                	xor    %ebp,%ebp
    90a6:	49 89 d1             	mov    %rdx,%r9
    90a9:	5e                   	pop    %rsi
    90aa:	48 89 e2             	mov    %rsp,%rdx
    90ad:	48 83 e4 f0          	and    $0xfffffffffffffff0,%rsp
    90b1:	50                   	push   %rax
    90b2:	54                   	push   %rsp
    90b3:	4c 8d 05 26 0c 01 00 	lea    0x10c26(%rip),%r8        # 19ce0 <__libc_csu_fini>
    90ba:	48 8d 0d af 0b 01 00 	lea    0x10baf(%rip),%rcx        # 19c70 <__libc_csu_init>
    90c1:	48 8d 3d ed fe 00 00 	lea    0xfeed(%rip),%rdi        # 18fb5 <main>
    90c8:	ff 15 0a 5f 01 00    	callq  *0x15f0a(%rip)        # 1efd8 <__libc_start_main@GLIBC_2.2.5>
    90ce:	f4                   	hlt    
    90cf:	90                   	nop

00000000000090d0 <deregister_tm_clones>:
    90d0:	48 8d 3d 81 97 01 00 	lea    0x19781(%rip),%rdi        # 22858 <__TMC_END__>
    90d7:	48 8d 05 7a 97 01 00 	lea    0x1977a(%rip),%rax        # 22858 <__TMC_END__>
    90de:	48 39 f8             	cmp    %rdi,%rax
    90e1:	74 15                	je     90f8 <deregister_tm_clones+0x28>
    90e3:	48 8b 05 e6 5e 01 00 	mov    0x15ee6(%rip),%rax        # 1efd0 <_ITM_deregisterTMCloneTable>
    90ea:	48 85 c0             	test   %rax,%rax
    90ed:	74 09                	je     90f8 <deregister_tm_clones+0x28>
    90ef:	ff e0                	jmpq   *%rax
    90f1:	0f 1f 80 00 00 00 00 	nopl   0x0(%rax)
    90f8:	c3                   	retq   
    90f9:	0f 1f 80 00 00 00 00 	nopl   0x0(%rax)

0000000000009100 <register_tm_clones>:
    9100:	48 8d 3d 51 97 01 00 	lea    0x19751(%rip),%rdi        # 22858 <__TMC_END__>
    9107:	48 8d 35 4a 97 01 00 	lea    0x1974a(%rip),%rsi        # 22858 <__TMC_END__>
    910e:	48 29 fe             	sub    %rdi,%rsi
    9111:	48 89 f0             	mov    %rsi,%rax
    9114:	48 c1 ee 3f          	shr    $0x3f,%rsi
    9118:	48 c1 f8 03          	sar    $0x3,%rax
    911c:	48 01 c6             	add    %rax,%rsi
    911f:	48 d1 fe             	sar    %rsi
    9122:	74 14                	je     9138 <register_tm_clones+0x38>
    9124:	48 8b 05 bd 5e 01 00 	mov    0x15ebd(%rip),%rax        # 1efe8 <_ITM_registerTMCloneTable>
    912b:	48 85 c0             	test   %rax,%rax
    912e:	74 08                	je     9138 <register_tm_clones+0x38>
    9130:	ff e0                	jmpq   *%rax
    9132:	66 0f 1f 44 00 00    	nopw   0x0(%rax,%rax,1)
    9138:	c3                   	retq   
    9139:	0f 1f 80 00 00 00 00 	nopl   0x0(%rax)

0000000000009140 <__do_global_dtors_aux>:
    9140:	f3 0f 1e fa          	endbr64 
    9144:	80 3d 15 97 01 00 00 	cmpb   $0x0,0x19715(%rip)        # 22860 <completed.8061>
    914b:	75 2b                	jne    9178 <__do_global_dtors_aux+0x38>
    914d:	55                   	push   %rbp
    914e:	48 83 3d 9a 5e 01 00 	cmpq   $0x0,0x15e9a(%rip)        # 1eff0 <__cxa_finalize@GLIBC_2.2.5>
    9155:	00 
    9156:	48 89 e5             	mov    %rsp,%rbp
    9159:	74 0c                	je     9167 <__do_global_dtors_aux+0x27>
    915b:	48 8b 3d a6 5e 01 00 	mov    0x15ea6(%rip),%rdi        # 1f008 <__dso_handle>
    9162:	e8 f9 fe ff ff       	callq  9060 <__cxa_finalize@plt>
    9167:	e8 64 ff ff ff       	callq  90d0 <deregister_tm_clones>
    916c:	c6 05 ed 96 01 00 01 	movb   $0x1,0x196ed(%rip)        # 22860 <completed.8061>
    9173:	5d                   	pop    %rbp
    9174:	c3                   	retq   
    9175:	0f 1f 00             	nopl   (%rax)
    9178:	c3                   	retq   
    9179:	0f 1f 80 00 00 00 00 	nopl   0x0(%rax)

0000000000009180 <frame_dummy>:
    9180:	f3 0f 1e fa          	endbr64 
    9184:	e9 77 ff ff ff       	jmpq   9100 <register_tm_clones>

0000000000009189 <platform_main_begin>:
    9189:	f3 0f 1e fa          	endbr64 
    918d:	55                   	push   %rbp
    918e:	48 89 e5             	mov    %rsp,%rbp
    9191:	90                   	nop
    9192:	5d                   	pop    %rbp
    9193:	c3                   	retq   

0000000000009194 <platform_main_end>:
    9194:	f3 0f 1e fa          	endbr64 
    9198:	55                   	push   %rbp
    9199:	48 89 e5             	mov    %rsp,%rbp
    919c:	48 83 ec 10          	sub    $0x10,%rsp
    91a0:	89 7d fc             	mov    %edi,-0x4(%rbp)
    91a3:	89 75 f8             	mov    %esi,-0x8(%rbp)
    91a6:	8b 45 fc             	mov    -0x4(%rbp),%eax
    91a9:	89 c6                	mov    %eax,%esi
    91ab:	48 8d 3d 6e 0e 01 00 	lea    0x10e6e(%rip),%rdi        # 1a020 <_IO_stdin_used+0x20>
    91b2:	b8 00 00 00 00       	mov    $0x0,%eax
    91b7:	e8 c4 fe ff ff       	callq  9080 <printf@plt>
    91bc:	90                   	nop
    91bd:	c9                   	leaveq 
    91be:	c3                   	retq   

00000000000091bf <safe_unary_minus_func_int8_t_s>:
    91bf:	f3 0f 1e fa          	endbr64 
    91c3:	55                   	push   %rbp
    91c4:	48 89 e5             	mov    %rsp,%rbp
    91c7:	89 f8                	mov    %edi,%eax
    91c9:	88 45 fc             	mov    %al,-0x4(%rbp)
    91cc:	0f b6 45 fc          	movzbl -0x4(%rbp),%eax
    91d0:	f7 d8                	neg    %eax
    91d2:	5d                   	pop    %rbp
    91d3:	c3                   	retq   

00000000000091d4 <safe_add_func_int8_t_s_s>:
    91d4:	f3 0f 1e fa          	endbr64 
    91d8:	55                   	push   %rbp
    91d9:	48 89 e5             	mov    %rsp,%rbp
    91dc:	89 fa                	mov    %edi,%edx
    91de:	89 f0                	mov    %esi,%eax
    91e0:	88 55 fc             	mov    %dl,-0x4(%rbp)
    91e3:	88 45 f8             	mov    %al,-0x8(%rbp)
    91e6:	0f b6 55 fc          	movzbl -0x4(%rbp),%edx
    91ea:	0f b6 45 f8          	movzbl -0x8(%rbp),%eax
    91ee:	01 d0                	add    %edx,%eax
    91f0:	5d                   	pop    %rbp
    91f1:	c3                   	retq   

00000000000091f2 <safe_sub_func_int8_t_s_s>:
    91f2:	f3 0f 1e fa          	endbr64 
    91f6:	55                   	push   %rbp
    91f7:	48 89 e5             	mov    %rsp,%rbp
    91fa:	89 fa                	mov    %edi,%edx
    91fc:	89 f0                	mov    %esi,%eax
    91fe:	88 55 fc             	mov    %dl,-0x4(%rbp)
    9201:	88 45 f8             	mov    %al,-0x8(%rbp)
    9204:	0f b6 55 fc          	movzbl -0x4(%rbp),%edx
    9208:	0f b6 45 f8          	movzbl -0x8(%rbp),%eax
    920c:	29 c2                	sub    %eax,%edx
    920e:	89 d0                	mov    %edx,%eax
    9210:	5d                   	pop    %rbp
    9211:	c3                   	retq   

0000000000009212 <safe_mul_func_int8_t_s_s>:
    9212:	f3 0f 1e fa          	endbr64 
    9216:	55                   	push   %rbp
    9217:	48 89 e5             	mov    %rsp,%rbp
    921a:	89 fa                	mov    %edi,%edx
    921c:	89 f0                	mov    %esi,%eax
    921e:	88 55 fc             	mov    %dl,-0x4(%rbp)
    9221:	88 45 f8             	mov    %al,-0x8(%rbp)
    9224:	0f b6 45 fc          	movzbl -0x4(%rbp),%eax
    9228:	0f b6 55 f8          	movzbl -0x8(%rbp),%edx
    922c:	0f af c2             	imul   %edx,%eax
    922f:	5d                   	pop    %rbp
    9230:	c3                   	retq   

0000000000009231 <safe_mod_func_int8_t_s_s>:
    9231:	f3 0f 1e fa          	endbr64 
    9235:	55                   	push   %rbp
    9236:	48 89 e5             	mov    %rsp,%rbp
    9239:	89 fa                	mov    %edi,%edx
    923b:	89 f0                	mov    %esi,%eax
    923d:	88 55 fc             	mov    %dl,-0x4(%rbp)
    9240:	88 45 f8             	mov    %al,-0x8(%rbp)
    9243:	80 7d f8 00          	cmpb   $0x0,-0x8(%rbp)
    9247:	74 1b                	je     9264 <safe_mod_func_int8_t_s_s+0x33>
    9249:	80 7d fc 80          	cmpb   $0x80,-0x4(%rbp)
    924d:	75 06                	jne    9255 <safe_mod_func_int8_t_s_s+0x24>
    924f:	80 7d f8 ff          	cmpb   $0xff,-0x8(%rbp)
    9253:	74 0f                	je     9264 <safe_mod_func_int8_t_s_s+0x33>
    9255:	0f be 45 fc          	movsbl -0x4(%rbp),%eax
    9259:	0f be 4d f8          	movsbl -0x8(%rbp),%ecx
    925d:	99                   	cltd   
    925e:	f7 f9                	idiv   %ecx
    9260:	89 d0                	mov    %edx,%eax
    9262:	eb 04                	jmp    9268 <safe_mod_func_int8_t_s_s+0x37>
    9264:	0f b6 45 fc          	movzbl -0x4(%rbp),%eax
    9268:	5d                   	pop    %rbp
    9269:	c3                   	retq   

000000000000926a <safe_div_func_int8_t_s_s>:
    926a:	f3 0f 1e fa          	endbr64 
    926e:	55                   	push   %rbp
    926f:	48 89 e5             	mov    %rsp,%rbp
    9272:	89 fa                	mov    %edi,%edx
    9274:	89 f0                	mov    %esi,%eax
    9276:	88 55 fc             	mov    %dl,-0x4(%rbp)
    9279:	88 45 f8             	mov    %al,-0x8(%rbp)
    927c:	80 7d f8 00          	cmpb   $0x0,-0x8(%rbp)
    9280:	74 19                	je     929b <safe_div_func_int8_t_s_s+0x31>
    9282:	80 7d fc 80          	cmpb   $0x80,-0x4(%rbp)
    9286:	75 06                	jne    928e <safe_div_func_int8_t_s_s+0x24>
    9288:	80 7d f8 ff          	cmpb   $0xff,-0x8(%rbp)
    928c:	74 0d                	je     929b <safe_div_func_int8_t_s_s+0x31>
    928e:	0f be 45 fc          	movsbl -0x4(%rbp),%eax
    9292:	0f be 4d f8          	movsbl -0x8(%rbp),%ecx
    9296:	99                   	cltd   
    9297:	f7 f9                	idiv   %ecx
    9299:	eb 04                	jmp    929f <safe_div_func_int8_t_s_s+0x35>
    929b:	0f b6 45 fc          	movzbl -0x4(%rbp),%eax
    929f:	5d                   	pop    %rbp
    92a0:	c3                   	retq   

00000000000092a1 <safe_lshift_func_int8_t_s_s>:
    92a1:	f3 0f 1e fa          	endbr64 
    92a5:	55                   	push   %rbp
    92a6:	48 89 e5             	mov    %rsp,%rbp
    92a9:	89 f8                	mov    %edi,%eax
    92ab:	89 75 f8             	mov    %esi,-0x8(%rbp)
    92ae:	88 45 fc             	mov    %al,-0x4(%rbp)
    92b1:	80 7d fc 00          	cmpb   $0x0,-0x4(%rbp)
    92b5:	78 31                	js     92e8 <safe_lshift_func_int8_t_s_s+0x47>
    92b7:	83 7d f8 00          	cmpl   $0x0,-0x8(%rbp)
    92bb:	78 2b                	js     92e8 <safe_lshift_func_int8_t_s_s+0x47>
    92bd:	83 7d f8 1f          	cmpl   $0x1f,-0x8(%rbp)
    92c1:	7f 25                	jg     92e8 <safe_lshift_func_int8_t_s_s+0x47>
    92c3:	0f be 55 fc          	movsbl -0x4(%rbp),%edx
    92c7:	8b 45 f8             	mov    -0x8(%rbp),%eax
    92ca:	be 7f 00 00 00       	mov    $0x7f,%esi
    92cf:	89 c1                	mov    %eax,%ecx
    92d1:	d3 fe                	sar    %cl,%esi
    92d3:	89 f0                	mov    %esi,%eax
    92d5:	39 c2                	cmp    %eax,%edx
    92d7:	7f 0f                	jg     92e8 <safe_lshift_func_int8_t_s_s+0x47>
    92d9:	0f be 55 fc          	movsbl -0x4(%rbp),%edx
    92dd:	8b 45 f8             	mov    -0x8(%rbp),%eax
    92e0:	89 c1                	mov    %eax,%ecx
    92e2:	d3 e2                	shl    %cl,%edx
    92e4:	89 d0                	mov    %edx,%eax
    92e6:	eb 04                	jmp    92ec <safe_lshift_func_int8_t_s_s+0x4b>
    92e8:	0f b6 45 fc          	movzbl -0x4(%rbp),%eax
    92ec:	5d                   	pop    %rbp
    92ed:	c3                   	retq   

00000000000092ee <safe_lshift_func_int8_t_s_u>:
    92ee:	f3 0f 1e fa          	endbr64 
    92f2:	55                   	push   %rbp
    92f3:	48 89 e5             	mov    %rsp,%rbp
    92f6:	89 f8                	mov    %edi,%eax
    92f8:	89 75 f8             	mov    %esi,-0x8(%rbp)
    92fb:	88 45 fc             	mov    %al,-0x4(%rbp)
    92fe:	80 7d fc 00          	cmpb   $0x0,-0x4(%rbp)
    9302:	78 2b                	js     932f <safe_lshift_func_int8_t_s_u+0x41>
    9304:	83 7d f8 1f          	cmpl   $0x1f,-0x8(%rbp)
    9308:	77 25                	ja     932f <safe_lshift_func_int8_t_s_u+0x41>
    930a:	0f be 55 fc          	movsbl -0x4(%rbp),%edx
    930e:	8b 45 f8             	mov    -0x8(%rbp),%eax
    9311:	be 7f 00 00 00       	mov    $0x7f,%esi
    9316:	89 c1                	mov    %eax,%ecx
    9318:	d3 fe                	sar    %cl,%esi
    931a:	89 f0                	mov    %esi,%eax
    931c:	39 c2                	cmp    %eax,%edx
    931e:	7f 0f                	jg     932f <safe_lshift_func_int8_t_s_u+0x41>
    9320:	0f be 55 fc          	movsbl -0x4(%rbp),%edx
    9324:	8b 45 f8             	mov    -0x8(%rbp),%eax
    9327:	89 c1                	mov    %eax,%ecx
    9329:	d3 e2                	shl    %cl,%edx
    932b:	89 d0                	mov    %edx,%eax
    932d:	eb 04                	jmp    9333 <safe_lshift_func_int8_t_s_u+0x45>
    932f:	0f b6 45 fc          	movzbl -0x4(%rbp),%eax
    9333:	5d                   	pop    %rbp
    9334:	c3                   	retq   

0000000000009335 <safe_rshift_func_int8_t_s_s>:
    9335:	f3 0f 1e fa          	endbr64 
    9339:	55                   	push   %rbp
    933a:	48 89 e5             	mov    %rsp,%rbp
    933d:	89 f8                	mov    %edi,%eax
    933f:	89 75 f8             	mov    %esi,-0x8(%rbp)
    9342:	88 45 fc             	mov    %al,-0x4(%rbp)
    9345:	80 7d fc 00          	cmpb   $0x0,-0x4(%rbp)
    9349:	78 1b                	js     9366 <safe_rshift_func_int8_t_s_s+0x31>
    934b:	83 7d f8 00          	cmpl   $0x0,-0x8(%rbp)
    934f:	78 15                	js     9366 <safe_rshift_func_int8_t_s_s+0x31>
    9351:	83 7d f8 1f          	cmpl   $0x1f,-0x8(%rbp)
    9355:	7f 0f                	jg     9366 <safe_rshift_func_int8_t_s_s+0x31>
    9357:	0f be 55 fc          	movsbl -0x4(%rbp),%edx
    935b:	8b 45 f8             	mov    -0x8(%rbp),%eax
    935e:	89 c1                	mov    %eax,%ecx
    9360:	d3 fa                	sar    %cl,%edx
    9362:	89 d0                	mov    %edx,%eax
    9364:	eb 04                	jmp    936a <safe_rshift_func_int8_t_s_s+0x35>
    9366:	0f b6 45 fc          	movzbl -0x4(%rbp),%eax
    936a:	5d                   	pop    %rbp
    936b:	c3                   	retq   

000000000000936c <safe_rshift_func_int8_t_s_u>:
    936c:	f3 0f 1e fa          	endbr64 
    9370:	55                   	push   %rbp
    9371:	48 89 e5             	mov    %rsp,%rbp
    9374:	89 f8                	mov    %edi,%eax
    9376:	89 75 f8             	mov    %esi,-0x8(%rbp)
    9379:	88 45 fc             	mov    %al,-0x4(%rbp)
    937c:	80 7d fc 00          	cmpb   $0x0,-0x4(%rbp)
    9380:	78 15                	js     9397 <safe_rshift_func_int8_t_s_u+0x2b>
    9382:	83 7d f8 1f          	cmpl   $0x1f,-0x8(%rbp)
    9386:	77 0f                	ja     9397 <safe_rshift_func_int8_t_s_u+0x2b>
    9388:	0f be 55 fc          	movsbl -0x4(%rbp),%edx
    938c:	8b 45 f8             	mov    -0x8(%rbp),%eax
    938f:	89 c1                	mov    %eax,%ecx
    9391:	d3 fa                	sar    %cl,%edx
    9393:	89 d0                	mov    %edx,%eax
    9395:	eb 04                	jmp    939b <safe_rshift_func_int8_t_s_u+0x2f>
    9397:	0f b6 45 fc          	movzbl -0x4(%rbp),%eax
    939b:	5d                   	pop    %rbp
    939c:	c3                   	retq   

000000000000939d <safe_unary_minus_func_int16_t_s>:
    939d:	f3 0f 1e fa          	endbr64 
    93a1:	55                   	push   %rbp
    93a2:	48 89 e5             	mov    %rsp,%rbp
    93a5:	89 f8                	mov    %edi,%eax
    93a7:	66 89 45 fc          	mov    %ax,-0x4(%rbp)
    93ab:	0f b7 45 fc          	movzwl -0x4(%rbp),%eax
    93af:	f7 d8                	neg    %eax
    93b1:	5d                   	pop    %rbp
    93b2:	c3                   	retq   

00000000000093b3 <safe_add_func_int16_t_s_s>:
    93b3:	f3 0f 1e fa          	endbr64 
    93b7:	55                   	push   %rbp
    93b8:	48 89 e5             	mov    %rsp,%rbp
    93bb:	89 fa                	mov    %edi,%edx
    93bd:	89 f0                	mov    %esi,%eax
    93bf:	66 89 55 fc          	mov    %dx,-0x4(%rbp)
    93c3:	66 89 45 f8          	mov    %ax,-0x8(%rbp)
    93c7:	0f b7 55 fc          	movzwl -0x4(%rbp),%edx
    93cb:	0f b7 45 f8          	movzwl -0x8(%rbp),%eax
    93cf:	01 d0                	add    %edx,%eax
    93d1:	5d                   	pop    %rbp
    93d2:	c3                   	retq   

00000000000093d3 <safe_sub_func_int16_t_s_s>:
    93d3:	f3 0f 1e fa          	endbr64 
    93d7:	55                   	push   %rbp
    93d8:	48 89 e5             	mov    %rsp,%rbp
    93db:	89 fa                	mov    %edi,%edx
    93dd:	89 f0                	mov    %esi,%eax
    93df:	66 89 55 fc          	mov    %dx,-0x4(%rbp)
    93e3:	66 89 45 f8          	mov    %ax,-0x8(%rbp)
    93e7:	0f b7 55 fc          	movzwl -0x4(%rbp),%edx
    93eb:	0f b7 45 f8          	movzwl -0x8(%rbp),%eax
    93ef:	29 c2                	sub    %eax,%edx
    93f1:	89 d0                	mov    %edx,%eax
    93f3:	5d                   	pop    %rbp
    93f4:	c3                   	retq   

00000000000093f5 <safe_mul_func_int16_t_s_s>:
    93f5:	f3 0f 1e fa          	endbr64 
    93f9:	55                   	push   %rbp
    93fa:	48 89 e5             	mov    %rsp,%rbp
    93fd:	89 fa                	mov    %edi,%edx
    93ff:	89 f0                	mov    %esi,%eax
    9401:	66 89 55 fc          	mov    %dx,-0x4(%rbp)
    9405:	66 89 45 f8          	mov    %ax,-0x8(%rbp)
    9409:	0f b7 55 fc          	movzwl -0x4(%rbp),%edx
    940d:	0f b7 45 f8          	movzwl -0x8(%rbp),%eax
    9411:	0f af c2             	imul   %edx,%eax
    9414:	5d                   	pop    %rbp
    9415:	c3                   	retq   

0000000000009416 <safe_mod_func_int16_t_s_s>:
    9416:	f3 0f 1e fa          	endbr64 
    941a:	55                   	push   %rbp
    941b:	48 89 e5             	mov    %rsp,%rbp
    941e:	89 fa                	mov    %edi,%edx
    9420:	89 f0                	mov    %esi,%eax
    9422:	66 89 55 fc          	mov    %dx,-0x4(%rbp)
    9426:	66 89 45 f8          	mov    %ax,-0x8(%rbp)
    942a:	66 83 7d f8 00       	cmpw   $0x0,-0x8(%rbp)
    942f:	74 1e                	je     944f <safe_mod_func_int16_t_s_s+0x39>
    9431:	66 81 7d fc 00 80    	cmpw   $0x8000,-0x4(%rbp)
    9437:	75 07                	jne    9440 <safe_mod_func_int16_t_s_s+0x2a>
    9439:	66 83 7d f8 ff       	cmpw   $0xffff,-0x8(%rbp)
    943e:	74 0f                	je     944f <safe_mod_func_int16_t_s_s+0x39>
    9440:	0f bf 45 fc          	movswl -0x4(%rbp),%eax
    9444:	0f bf 4d f8          	movswl -0x8(%rbp),%ecx
    9448:	99                   	cltd   
    9449:	f7 f9                	idiv   %ecx
    944b:	89 d0                	mov    %edx,%eax
    944d:	eb 04                	jmp    9453 <safe_mod_func_int16_t_s_s+0x3d>
    944f:	0f b7 45 fc          	movzwl -0x4(%rbp),%eax
    9453:	5d                   	pop    %rbp
    9454:	c3                   	retq   

0000000000009455 <safe_div_func_int16_t_s_s>:
    9455:	f3 0f 1e fa          	endbr64 
    9459:	55                   	push   %rbp
    945a:	48 89 e5             	mov    %rsp,%rbp
    945d:	89 fa                	mov    %edi,%edx
    945f:	89 f0                	mov    %esi,%eax
    9461:	66 89 55 fc          	mov    %dx,-0x4(%rbp)
    9465:	66 89 45 f8          	mov    %ax,-0x8(%rbp)
    9469:	66 83 7d f8 00       	cmpw   $0x0,-0x8(%rbp)
    946e:	74 1c                	je     948c <safe_div_func_int16_t_s_s+0x37>
    9470:	66 81 7d fc 00 80    	cmpw   $0x8000,-0x4(%rbp)
    9476:	75 07                	jne    947f <safe_div_func_int16_t_s_s+0x2a>
    9478:	66 83 7d f8 ff       	cmpw   $0xffff,-0x8(%rbp)
    947d:	74 0d                	je     948c <safe_div_func_int16_t_s_s+0x37>
    947f:	0f bf 45 fc          	movswl -0x4(%rbp),%eax
    9483:	0f bf 4d f8          	movswl -0x8(%rbp),%ecx
    9487:	99                   	cltd   
    9488:	f7 f9                	idiv   %ecx
    948a:	eb 04                	jmp    9490 <safe_div_func_int16_t_s_s+0x3b>
    948c:	0f b7 45 fc          	movzwl -0x4(%rbp),%eax
    9490:	5d                   	pop    %rbp
    9491:	c3                   	retq   

0000000000009492 <safe_lshift_func_int16_t_s_s>:
    9492:	f3 0f 1e fa          	endbr64 
    9496:	55                   	push   %rbp
    9497:	48 89 e5             	mov    %rsp,%rbp
    949a:	89 f8                	mov    %edi,%eax
    949c:	89 75 f8             	mov    %esi,-0x8(%rbp)
    949f:	66 89 45 fc          	mov    %ax,-0x4(%rbp)
    94a3:	66 83 7d fc 00       	cmpw   $0x0,-0x4(%rbp)
    94a8:	78 31                	js     94db <safe_lshift_func_int16_t_s_s+0x49>
    94aa:	83 7d f8 00          	cmpl   $0x0,-0x8(%rbp)
    94ae:	78 2b                	js     94db <safe_lshift_func_int16_t_s_s+0x49>
    94b0:	83 7d f8 1f          	cmpl   $0x1f,-0x8(%rbp)
    94b4:	7f 25                	jg     94db <safe_lshift_func_int16_t_s_s+0x49>
    94b6:	0f bf 55 fc          	movswl -0x4(%rbp),%edx
    94ba:	8b 45 f8             	mov    -0x8(%rbp),%eax
    94bd:	be ff 7f 00 00       	mov    $0x7fff,%esi
    94c2:	89 c1                	mov    %eax,%ecx
    94c4:	d3 fe                	sar    %cl,%esi
    94c6:	89 f0                	mov    %esi,%eax
    94c8:	39 c2                	cmp    %eax,%edx
    94ca:	7f 0f                	jg     94db <safe_lshift_func_int16_t_s_s+0x49>
    94cc:	0f bf 55 fc          	movswl -0x4(%rbp),%edx
    94d0:	8b 45 f8             	mov    -0x8(%rbp),%eax
    94d3:	89 c1                	mov    %eax,%ecx
    94d5:	d3 e2                	shl    %cl,%edx
    94d7:	89 d0                	mov    %edx,%eax
    94d9:	eb 04                	jmp    94df <safe_lshift_func_int16_t_s_s+0x4d>
    94db:	0f b7 45 fc          	movzwl -0x4(%rbp),%eax
    94df:	5d                   	pop    %rbp
    94e0:	c3                   	retq   

00000000000094e1 <safe_lshift_func_int16_t_s_u>:
    94e1:	f3 0f 1e fa          	endbr64 
    94e5:	55                   	push   %rbp
    94e6:	48 89 e5             	mov    %rsp,%rbp
    94e9:	89 f8                	mov    %edi,%eax
    94eb:	89 75 f8             	mov    %esi,-0x8(%rbp)
    94ee:	66 89 45 fc          	mov    %ax,-0x4(%rbp)
    94f2:	66 83 7d fc 00       	cmpw   $0x0,-0x4(%rbp)
    94f7:	78 2b                	js     9524 <safe_lshift_func_int16_t_s_u+0x43>
    94f9:	83 7d f8 1f          	cmpl   $0x1f,-0x8(%rbp)
    94fd:	77 25                	ja     9524 <safe_lshift_func_int16_t_s_u+0x43>
    94ff:	0f bf 55 fc          	movswl -0x4(%rbp),%edx
    9503:	8b 45 f8             	mov    -0x8(%rbp),%eax
    9506:	be ff 7f 00 00       	mov    $0x7fff,%esi
    950b:	89 c1                	mov    %eax,%ecx
    950d:	d3 fe                	sar    %cl,%esi
    950f:	89 f0                	mov    %esi,%eax
    9511:	39 c2                	cmp    %eax,%edx
    9513:	7f 0f                	jg     9524 <safe_lshift_func_int16_t_s_u+0x43>
    9515:	0f bf 55 fc          	movswl -0x4(%rbp),%edx
    9519:	8b 45 f8             	mov    -0x8(%rbp),%eax
    951c:	89 c1                	mov    %eax,%ecx
    951e:	d3 e2                	shl    %cl,%edx
    9520:	89 d0                	mov    %edx,%eax
    9522:	eb 04                	jmp    9528 <safe_lshift_func_int16_t_s_u+0x47>
    9524:	0f b7 45 fc          	movzwl -0x4(%rbp),%eax
    9528:	5d                   	pop    %rbp
    9529:	c3                   	retq   

000000000000952a <safe_rshift_func_int16_t_s_s>:
    952a:	f3 0f 1e fa          	endbr64 
    952e:	55                   	push   %rbp
    952f:	48 89 e5             	mov    %rsp,%rbp
    9532:	89 f8                	mov    %edi,%eax
    9534:	89 75 f8             	mov    %esi,-0x8(%rbp)
    9537:	66 89 45 fc          	mov    %ax,-0x4(%rbp)
    953b:	66 83 7d fc 00       	cmpw   $0x0,-0x4(%rbp)
    9540:	78 1b                	js     955d <safe_rshift_func_int16_t_s_s+0x33>
    9542:	83 7d f8 00          	cmpl   $0x0,-0x8(%rbp)
    9546:	78 15                	js     955d <safe_rshift_func_int16_t_s_s+0x33>
    9548:	83 7d f8 1f          	cmpl   $0x1f,-0x8(%rbp)
    954c:	7f 0f                	jg     955d <safe_rshift_func_int16_t_s_s+0x33>
    954e:	0f bf 55 fc          	movswl -0x4(%rbp),%edx
    9552:	8b 45 f8             	mov    -0x8(%rbp),%eax
    9555:	89 c1                	mov    %eax,%ecx
    9557:	d3 fa                	sar    %cl,%edx
    9559:	89 d0                	mov    %edx,%eax
    955b:	eb 04                	jmp    9561 <safe_rshift_func_int16_t_s_s+0x37>
    955d:	0f b7 45 fc          	movzwl -0x4(%rbp),%eax
    9561:	5d                   	pop    %rbp
    9562:	c3                   	retq   

0000000000009563 <safe_rshift_func_int16_t_s_u>:
    9563:	f3 0f 1e fa          	endbr64 
    9567:	55                   	push   %rbp
    9568:	48 89 e5             	mov    %rsp,%rbp
    956b:	89 f8                	mov    %edi,%eax
    956d:	89 75 f8             	mov    %esi,-0x8(%rbp)
    9570:	66 89 45 fc          	mov    %ax,-0x4(%rbp)
    9574:	66 83 7d fc 00       	cmpw   $0x0,-0x4(%rbp)
    9579:	78 15                	js     9590 <safe_rshift_func_int16_t_s_u+0x2d>
    957b:	83 7d f8 1f          	cmpl   $0x1f,-0x8(%rbp)
    957f:	77 0f                	ja     9590 <safe_rshift_func_int16_t_s_u+0x2d>
    9581:	0f bf 55 fc          	movswl -0x4(%rbp),%edx
    9585:	8b 45 f8             	mov    -0x8(%rbp),%eax
    9588:	89 c1                	mov    %eax,%ecx
    958a:	d3 fa                	sar    %cl,%edx
    958c:	89 d0                	mov    %edx,%eax
    958e:	eb 04                	jmp    9594 <safe_rshift_func_int16_t_s_u+0x31>
    9590:	0f b7 45 fc          	movzwl -0x4(%rbp),%eax
    9594:	5d                   	pop    %rbp
    9595:	c3                   	retq   

0000000000009596 <safe_unary_minus_func_int32_t_s>:
    9596:	f3 0f 1e fa          	endbr64 
    959a:	55                   	push   %rbp
    959b:	48 89 e5             	mov    %rsp,%rbp
    959e:	89 7d fc             	mov    %edi,-0x4(%rbp)
    95a1:	81 7d fc 00 00 00 80 	cmpl   $0x80000000,-0x4(%rbp)
    95a8:	74 07                	je     95b1 <safe_unary_minus_func_int32_t_s+0x1b>
    95aa:	8b 45 fc             	mov    -0x4(%rbp),%eax
    95ad:	f7 d8                	neg    %eax
    95af:	eb 03                	jmp    95b4 <safe_unary_minus_func_int32_t_s+0x1e>
    95b1:	8b 45 fc             	mov    -0x4(%rbp),%eax
    95b4:	5d                   	pop    %rbp
    95b5:	c3                   	retq   

00000000000095b6 <safe_add_func_int32_t_s_s>:
    95b6:	f3 0f 1e fa          	endbr64 
    95ba:	55                   	push   %rbp
    95bb:	48 89 e5             	mov    %rsp,%rbp
    95be:	89 7d fc             	mov    %edi,-0x4(%rbp)
    95c1:	89 75 f8             	mov    %esi,-0x8(%rbp)
    95c4:	83 7d fc 00          	cmpl   $0x0,-0x4(%rbp)
    95c8:	7e 13                	jle    95dd <safe_add_func_int32_t_s_s+0x27>
    95ca:	83 7d f8 00          	cmpl   $0x0,-0x8(%rbp)
    95ce:	7e 0d                	jle    95dd <safe_add_func_int32_t_s_s+0x27>
    95d0:	b8 ff ff ff 7f       	mov    $0x7fffffff,%eax
    95d5:	2b 45 f8             	sub    -0x8(%rbp),%eax
    95d8:	39 45 fc             	cmp    %eax,-0x4(%rbp)
    95db:	7f 23                	jg     9600 <safe_add_func_int32_t_s_s+0x4a>
    95dd:	83 7d fc 00          	cmpl   $0x0,-0x4(%rbp)
    95e1:	79 13                	jns    95f6 <safe_add_func_int32_t_s_s+0x40>
    95e3:	83 7d f8 00          	cmpl   $0x0,-0x8(%rbp)
    95e7:	79 0d                	jns    95f6 <safe_add_func_int32_t_s_s+0x40>
    95e9:	b8 00 00 00 80       	mov    $0x80000000,%eax
    95ee:	2b 45 f8             	sub    -0x8(%rbp),%eax
    95f1:	39 45 fc             	cmp    %eax,-0x4(%rbp)
    95f4:	7c 0a                	jl     9600 <safe_add_func_int32_t_s_s+0x4a>
    95f6:	8b 55 fc             	mov    -0x4(%rbp),%edx
    95f9:	8b 45 f8             	mov    -0x8(%rbp),%eax
    95fc:	01 d0                	add    %edx,%eax
    95fe:	eb 03                	jmp    9603 <safe_add_func_int32_t_s_s+0x4d>
    9600:	8b 45 fc             	mov    -0x4(%rbp),%eax
    9603:	5d                   	pop    %rbp
    9604:	c3                   	retq   

0000000000009605 <safe_sub_func_int32_t_s_s>:
    9605:	f3 0f 1e fa          	endbr64 
    9609:	55                   	push   %rbp
    960a:	48 89 e5             	mov    %rsp,%rbp
    960d:	89 7d fc             	mov    %edi,-0x4(%rbp)
    9610:	89 75 f8             	mov    %esi,-0x8(%rbp)
    9613:	8b 45 fc             	mov    -0x4(%rbp),%eax
    9616:	33 45 f8             	xor    -0x8(%rbp),%eax
    9619:	89 c2                	mov    %eax,%edx
    961b:	8b 45 fc             	mov    -0x4(%rbp),%eax
    961e:	33 45 f8             	xor    -0x8(%rbp),%eax
    9621:	25 00 00 00 80       	and    $0x80000000,%eax
    9626:	33 45 fc             	xor    -0x4(%rbp),%eax
    9629:	2b 45 f8             	sub    -0x8(%rbp),%eax
    962c:	33 45 f8             	xor    -0x8(%rbp),%eax
    962f:	21 d0                	and    %edx,%eax
    9631:	85 c0                	test   %eax,%eax
    9633:	78 08                	js     963d <safe_sub_func_int32_t_s_s+0x38>
    9635:	8b 45 fc             	mov    -0x4(%rbp),%eax
    9638:	2b 45 f8             	sub    -0x8(%rbp),%eax
    963b:	eb 03                	jmp    9640 <safe_sub_func_int32_t_s_s+0x3b>
    963d:	8b 45 fc             	mov    -0x4(%rbp),%eax
    9640:	5d                   	pop    %rbp
    9641:	c3                   	retq   

0000000000009642 <safe_mul_func_int32_t_s_s>:
    9642:	f3 0f 1e fa          	endbr64 
    9646:	55                   	push   %rbp
    9647:	48 89 e5             	mov    %rsp,%rbp
    964a:	89 7d fc             	mov    %edi,-0x4(%rbp)
    964d:	89 75 f8             	mov    %esi,-0x8(%rbp)
    9650:	83 7d fc 00          	cmpl   $0x0,-0x4(%rbp)
    9654:	7e 14                	jle    966a <safe_mul_func_int32_t_s_s+0x28>
    9656:	83 7d f8 00          	cmpl   $0x0,-0x8(%rbp)
    965a:	7e 0e                	jle    966a <safe_mul_func_int32_t_s_s+0x28>
    965c:	b8 ff ff ff 7f       	mov    $0x7fffffff,%eax
    9661:	99                   	cltd   
    9662:	f7 7d f8             	idivl  -0x8(%rbp)
    9665:	39 45 fc             	cmp    %eax,-0x4(%rbp)
    9668:	7f 5d                	jg     96c7 <safe_mul_func_int32_t_s_s+0x85>
    966a:	83 7d fc 00          	cmpl   $0x0,-0x4(%rbp)
    966e:	7e 14                	jle    9684 <safe_mul_func_int32_t_s_s+0x42>
    9670:	83 7d f8 00          	cmpl   $0x0,-0x8(%rbp)
    9674:	7f 0e                	jg     9684 <safe_mul_func_int32_t_s_s+0x42>
    9676:	b8 00 00 00 80       	mov    $0x80000000,%eax
    967b:	99                   	cltd   
    967c:	f7 7d fc             	idivl  -0x4(%rbp)
    967f:	39 45 f8             	cmp    %eax,-0x8(%rbp)
    9682:	7c 43                	jl     96c7 <safe_mul_func_int32_t_s_s+0x85>
    9684:	83 7d fc 00          	cmpl   $0x0,-0x4(%rbp)
    9688:	7f 14                	jg     969e <safe_mul_func_int32_t_s_s+0x5c>
    968a:	83 7d f8 00          	cmpl   $0x0,-0x8(%rbp)
    968e:	7e 0e                	jle    969e <safe_mul_func_int32_t_s_s+0x5c>
    9690:	b8 00 00 00 80       	mov    $0x80000000,%eax
    9695:	99                   	cltd   
    9696:	f7 7d f8             	idivl  -0x8(%rbp)
    9699:	39 45 fc             	cmp    %eax,-0x4(%rbp)
    969c:	7c 29                	jl     96c7 <safe_mul_func_int32_t_s_s+0x85>
    969e:	83 7d fc 00          	cmpl   $0x0,-0x4(%rbp)
    96a2:	7f 1a                	jg     96be <safe_mul_func_int32_t_s_s+0x7c>
    96a4:	83 7d f8 00          	cmpl   $0x0,-0x8(%rbp)
    96a8:	7f 14                	jg     96be <safe_mul_func_int32_t_s_s+0x7c>
    96aa:	83 7d fc 00          	cmpl   $0x0,-0x4(%rbp)
    96ae:	74 0e                	je     96be <safe_mul_func_int32_t_s_s+0x7c>
    96b0:	b8 ff ff ff 7f       	mov    $0x7fffffff,%eax
    96b5:	99                   	cltd   
    96b6:	f7 7d fc             	idivl  -0x4(%rbp)
    96b9:	39 45 f8             	cmp    %eax,-0x8(%rbp)
    96bc:	7c 09                	jl     96c7 <safe_mul_func_int32_t_s_s+0x85>
    96be:	8b 45 fc             	mov    -0x4(%rbp),%eax
    96c1:	0f af 45 f8          	imul   -0x8(%rbp),%eax
    96c5:	eb 03                	jmp    96ca <safe_mul_func_int32_t_s_s+0x88>
    96c7:	8b 45 fc             	mov    -0x4(%rbp),%eax
    96ca:	5d                   	pop    %rbp
    96cb:	c3                   	retq   

00000000000096cc <safe_mod_func_int32_t_s_s>:
    96cc:	f3 0f 1e fa          	endbr64 
    96d0:	55                   	push   %rbp
    96d1:	48 89 e5             	mov    %rsp,%rbp
    96d4:	89 7d fc             	mov    %edi,-0x4(%rbp)
    96d7:	89 75 f8             	mov    %esi,-0x8(%rbp)
    96da:	83 7d f8 00          	cmpl   $0x0,-0x8(%rbp)
    96de:	74 1a                	je     96fa <safe_mod_func_int32_t_s_s+0x2e>
    96e0:	81 7d fc 00 00 00 80 	cmpl   $0x80000000,-0x4(%rbp)
    96e7:	75 06                	jne    96ef <safe_mod_func_int32_t_s_s+0x23>
    96e9:	83 7d f8 ff          	cmpl   $0xffffffff,-0x8(%rbp)
    96ed:	74 0b                	je     96fa <safe_mod_func_int32_t_s_s+0x2e>
    96ef:	8b 45 fc             	mov    -0x4(%rbp),%eax
    96f2:	99                   	cltd   
    96f3:	f7 7d f8             	idivl  -0x8(%rbp)
    96f6:	89 d0                	mov    %edx,%eax
    96f8:	eb 03                	jmp    96fd <safe_mod_func_int32_t_s_s+0x31>
    96fa:	8b 45 fc             	mov    -0x4(%rbp),%eax
    96fd:	5d                   	pop    %rbp
    96fe:	c3                   	retq   

00000000000096ff <safe_div_func_int32_t_s_s>:
    96ff:	f3 0f 1e fa          	endbr64 
    9703:	55                   	push   %rbp
    9704:	48 89 e5             	mov    %rsp,%rbp
    9707:	89 7d fc             	mov    %edi,-0x4(%rbp)
    970a:	89 75 f8             	mov    %esi,-0x8(%rbp)
    970d:	83 7d f8 00          	cmpl   $0x0,-0x8(%rbp)
    9711:	74 18                	je     972b <safe_div_func_int32_t_s_s+0x2c>
    9713:	81 7d fc 00 00 00 80 	cmpl   $0x80000000,-0x4(%rbp)
    971a:	75 06                	jne    9722 <safe_div_func_int32_t_s_s+0x23>
    971c:	83 7d f8 ff          	cmpl   $0xffffffff,-0x8(%rbp)
    9720:	74 09                	je     972b <safe_div_func_int32_t_s_s+0x2c>
    9722:	8b 45 fc             	mov    -0x4(%rbp),%eax
    9725:	99                   	cltd   
    9726:	f7 7d f8             	idivl  -0x8(%rbp)
    9729:	eb 03                	jmp    972e <safe_div_func_int32_t_s_s+0x2f>
    972b:	8b 45 fc             	mov    -0x4(%rbp),%eax
    972e:	5d                   	pop    %rbp
    972f:	c3                   	retq   

0000000000009730 <safe_lshift_func_int32_t_s_s>:
    9730:	f3 0f 1e fa          	endbr64 
    9734:	55                   	push   %rbp
    9735:	48 89 e5             	mov    %rsp,%rbp
    9738:	89 7d fc             	mov    %edi,-0x4(%rbp)
    973b:	89 75 f8             	mov    %esi,-0x8(%rbp)
    973e:	83 7d fc 00          	cmpl   $0x0,-0x4(%rbp)
    9742:	78 2d                	js     9771 <safe_lshift_func_int32_t_s_s+0x41>
    9744:	83 7d f8 00          	cmpl   $0x0,-0x8(%rbp)
    9748:	78 27                	js     9771 <safe_lshift_func_int32_t_s_s+0x41>
    974a:	83 7d f8 1f          	cmpl   $0x1f,-0x8(%rbp)
    974e:	7f 21                	jg     9771 <safe_lshift_func_int32_t_s_s+0x41>
    9750:	8b 45 f8             	mov    -0x8(%rbp),%eax
    9753:	ba ff ff ff 7f       	mov    $0x7fffffff,%edx
    9758:	89 c1                	mov    %eax,%ecx
    975a:	d3 fa                	sar    %cl,%edx
    975c:	89 d0                	mov    %edx,%eax
    975e:	39 45 fc             	cmp    %eax,-0x4(%rbp)
    9761:	7f 0e                	jg     9771 <safe_lshift_func_int32_t_s_s+0x41>
    9763:	8b 45 f8             	mov    -0x8(%rbp),%eax
    9766:	8b 55 fc             	mov    -0x4(%rbp),%edx
    9769:	89 c1                	mov    %eax,%ecx
    976b:	d3 e2                	shl    %cl,%edx
    976d:	89 d0                	mov    %edx,%eax
    976f:	eb 03                	jmp    9774 <safe_lshift_func_int32_t_s_s+0x44>
    9771:	8b 45 fc             	mov    -0x4(%rbp),%eax
    9774:	5d                   	pop    %rbp
    9775:	c3                   	retq   

0000000000009776 <safe_lshift_func_int32_t_s_u>:
    9776:	f3 0f 1e fa          	endbr64 
    977a:	55                   	push   %rbp
    977b:	48 89 e5             	mov    %rsp,%rbp
    977e:	89 7d fc             	mov    %edi,-0x4(%rbp)
    9781:	89 75 f8             	mov    %esi,-0x8(%rbp)
    9784:	83 7d fc 00          	cmpl   $0x0,-0x4(%rbp)
    9788:	78 27                	js     97b1 <safe_lshift_func_int32_t_s_u+0x3b>
    978a:	83 7d f8 1f          	cmpl   $0x1f,-0x8(%rbp)
    978e:	77 21                	ja     97b1 <safe_lshift_func_int32_t_s_u+0x3b>
    9790:	8b 45 f8             	mov    -0x8(%rbp),%eax
    9793:	ba ff ff ff 7f       	mov    $0x7fffffff,%edx
    9798:	89 c1                	mov    %eax,%ecx
    979a:	d3 fa                	sar    %cl,%edx
    979c:	89 d0                	mov    %edx,%eax
    979e:	39 45 fc             	cmp    %eax,-0x4(%rbp)
    97a1:	7f 0e                	jg     97b1 <safe_lshift_func_int32_t_s_u+0x3b>
    97a3:	8b 45 f8             	mov    -0x8(%rbp),%eax
    97a6:	8b 55 fc             	mov    -0x4(%rbp),%edx
    97a9:	89 c1                	mov    %eax,%ecx
    97ab:	d3 e2                	shl    %cl,%edx
    97ad:	89 d0                	mov    %edx,%eax
    97af:	eb 03                	jmp    97b4 <safe_lshift_func_int32_t_s_u+0x3e>
    97b1:	8b 45 fc             	mov    -0x4(%rbp),%eax
    97b4:	5d                   	pop    %rbp
    97b5:	c3                   	retq   

00000000000097b6 <safe_rshift_func_int32_t_s_s>:
    97b6:	f3 0f 1e fa          	endbr64 
    97ba:	55                   	push   %rbp
    97bb:	48 89 e5             	mov    %rsp,%rbp
    97be:	89 7d fc             	mov    %edi,-0x4(%rbp)
    97c1:	89 75 f8             	mov    %esi,-0x8(%rbp)
    97c4:	83 7d fc 00          	cmpl   $0x0,-0x4(%rbp)
    97c8:	78 1a                	js     97e4 <safe_rshift_func_int32_t_s_s+0x2e>
    97ca:	83 7d f8 00          	cmpl   $0x0,-0x8(%rbp)
    97ce:	78 14                	js     97e4 <safe_rshift_func_int32_t_s_s+0x2e>
    97d0:	83 7d f8 1f          	cmpl   $0x1f,-0x8(%rbp)
    97d4:	7f 0e                	jg     97e4 <safe_rshift_func_int32_t_s_s+0x2e>
    97d6:	8b 45 f8             	mov    -0x8(%rbp),%eax
    97d9:	8b 55 fc             	mov    -0x4(%rbp),%edx
    97dc:	89 c1                	mov    %eax,%ecx
    97de:	d3 fa                	sar    %cl,%edx
    97e0:	89 d0                	mov    %edx,%eax
    97e2:	eb 03                	jmp    97e7 <safe_rshift_func_int32_t_s_s+0x31>
    97e4:	8b 45 fc             	mov    -0x4(%rbp),%eax
    97e7:	5d                   	pop    %rbp
    97e8:	c3                   	retq   

00000000000097e9 <safe_rshift_func_int32_t_s_u>:
    97e9:	f3 0f 1e fa          	endbr64 
    97ed:	55                   	push   %rbp
    97ee:	48 89 e5             	mov    %rsp,%rbp
    97f1:	89 7d fc             	mov    %edi,-0x4(%rbp)
    97f4:	89 75 f8             	mov    %esi,-0x8(%rbp)
    97f7:	83 7d fc 00          	cmpl   $0x0,-0x4(%rbp)
    97fb:	78 14                	js     9811 <safe_rshift_func_int32_t_s_u+0x28>
    97fd:	83 7d f8 1f          	cmpl   $0x1f,-0x8(%rbp)
    9801:	77 0e                	ja     9811 <safe_rshift_func_int32_t_s_u+0x28>
    9803:	8b 45 f8             	mov    -0x8(%rbp),%eax
    9806:	8b 55 fc             	mov    -0x4(%rbp),%edx
    9809:	89 c1                	mov    %eax,%ecx
    980b:	d3 fa                	sar    %cl,%edx
    980d:	89 d0                	mov    %edx,%eax
    980f:	eb 03                	jmp    9814 <safe_rshift_func_int32_t_s_u+0x2b>
    9811:	8b 45 fc             	mov    -0x4(%rbp),%eax
    9814:	5d                   	pop    %rbp
    9815:	c3                   	retq   

0000000000009816 <safe_unary_minus_func_int64_t_s>:
    9816:	f3 0f 1e fa          	endbr64 
    981a:	55                   	push   %rbp
    981b:	48 89 e5             	mov    %rsp,%rbp
    981e:	48 89 7d f8          	mov    %rdi,-0x8(%rbp)
    9822:	48 b8 00 00 00 00 00 	movabs $0x8000000000000000,%rax
    9829:	00 00 80 
    982c:	48 39 45 f8          	cmp    %rax,-0x8(%rbp)
    9830:	74 09                	je     983b <safe_unary_minus_func_int64_t_s+0x25>
    9832:	48 8b 45 f8          	mov    -0x8(%rbp),%rax
    9836:	48 f7 d8             	neg    %rax
    9839:	eb 04                	jmp    983f <safe_unary_minus_func_int64_t_s+0x29>
    983b:	48 8b 45 f8          	mov    -0x8(%rbp),%rax
    983f:	5d                   	pop    %rbp
    9840:	c3                   	retq   

0000000000009841 <safe_add_func_int64_t_s_s>:
    9841:	f3 0f 1e fa          	endbr64 
    9845:	55                   	push   %rbp
    9846:	48 89 e5             	mov    %rsp,%rbp
    9849:	48 89 7d f8          	mov    %rdi,-0x8(%rbp)
    984d:	48 89 75 f0          	mov    %rsi,-0x10(%rbp)
    9851:	48 83 7d f8 00       	cmpq   $0x0,-0x8(%rbp)
    9856:	7e 1b                	jle    9873 <safe_add_func_int64_t_s_s+0x32>
    9858:	48 83 7d f0 00       	cmpq   $0x0,-0x10(%rbp)
    985d:	7e 14                	jle    9873 <safe_add_func_int64_t_s_s+0x32>
    985f:	48 b8 ff ff ff ff ff 	movabs $0x7fffffffffffffff,%rax
    9866:	ff ff 7f 
    9869:	48 2b 45 f0          	sub    -0x10(%rbp),%rax
    986d:	48 39 45 f8          	cmp    %rax,-0x8(%rbp)
    9871:	7f 2f                	jg     98a2 <safe_add_func_int64_t_s_s+0x61>
    9873:	48 83 7d f8 00       	cmpq   $0x0,-0x8(%rbp)
    9878:	79 1b                	jns    9895 <safe_add_func_int64_t_s_s+0x54>
    987a:	48 83 7d f0 00       	cmpq   $0x0,-0x10(%rbp)
    987f:	79 14                	jns    9895 <safe_add_func_int64_t_s_s+0x54>
    9881:	48 b8 00 00 00 00 00 	movabs $0x8000000000000000,%rax
    9888:	00 00 80 
    988b:	48 2b 45 f0          	sub    -0x10(%rbp),%rax
    988f:	48 39 45 f8          	cmp    %rax,-0x8(%rbp)
    9893:	7c 0d                	jl     98a2 <safe_add_func_int64_t_s_s+0x61>
    9895:	48 8b 55 f8          	mov    -0x8(%rbp),%rdx
    9899:	48 8b 45 f0          	mov    -0x10(%rbp),%rax
    989d:	48 01 d0             	add    %rdx,%rax
    98a0:	eb 04                	jmp    98a6 <safe_add_func_int64_t_s_s+0x65>
    98a2:	48 8b 45 f8          	mov    -0x8(%rbp),%rax
    98a6:	5d                   	pop    %rbp
    98a7:	c3                   	retq   

00000000000098a8 <safe_sub_func_int64_t_s_s>:
    98a8:	f3 0f 1e fa          	endbr64 
    98ac:	55                   	push   %rbp
    98ad:	48 89 e5             	mov    %rsp,%rbp
    98b0:	48 89 7d f8          	mov    %rdi,-0x8(%rbp)
    98b4:	48 89 75 f0          	mov    %rsi,-0x10(%rbp)
    98b8:	48 8b 45 f8          	mov    -0x8(%rbp),%rax
    98bc:	48 33 45 f0          	xor    -0x10(%rbp),%rax
    98c0:	48 89 c2             	mov    %rax,%rdx
    98c3:	48 8b 45 f8          	mov    -0x8(%rbp),%rax
    98c7:	48 33 45 f0          	xor    -0x10(%rbp),%rax
    98cb:	48 b9 00 00 00 00 00 	movabs $0x8000000000000000,%rcx
    98d2:	00 00 80 
    98d5:	48 21 c8             	and    %rcx,%rax
    98d8:	48 33 45 f8          	xor    -0x8(%rbp),%rax
    98dc:	48 2b 45 f0          	sub    -0x10(%rbp),%rax
    98e0:	48 33 45 f0          	xor    -0x10(%rbp),%rax
    98e4:	48 21 d0             	and    %rdx,%rax
    98e7:	48 85 c0             	test   %rax,%rax
    98ea:	78 0a                	js     98f6 <safe_sub_func_int64_t_s_s+0x4e>
    98ec:	48 8b 45 f8          	mov    -0x8(%rbp),%rax
    98f0:	48 2b 45 f0          	sub    -0x10(%rbp),%rax
    98f4:	eb 04                	jmp    98fa <safe_sub_func_int64_t_s_s+0x52>
    98f6:	48 8b 45 f8          	mov    -0x8(%rbp),%rax
    98fa:	5d                   	pop    %rbp
    98fb:	c3                   	retq   

00000000000098fc <safe_mul_func_int64_t_s_s>:
    98fc:	f3 0f 1e fa          	endbr64 
    9900:	55                   	push   %rbp
    9901:	48 89 e5             	mov    %rsp,%rbp
    9904:	48 89 7d f8          	mov    %rdi,-0x8(%rbp)
    9908:	48 89 75 f0          	mov    %rsi,-0x10(%rbp)
    990c:	48 83 7d f8 00       	cmpq   $0x0,-0x8(%rbp)
    9911:	7e 1d                	jle    9930 <safe_mul_func_int64_t_s_s+0x34>
    9913:	48 83 7d f0 00       	cmpq   $0x0,-0x10(%rbp)
    9918:	7e 16                	jle    9930 <safe_mul_func_int64_t_s_s+0x34>
    991a:	48 b8 ff ff ff ff ff 	movabs $0x7fffffffffffffff,%rax
    9921:	ff ff 7f 
    9924:	48 99                	cqto   
    9926:	48 f7 7d f0          	idivq  -0x10(%rbp)
    992a:	48 39 45 f8          	cmp    %rax,-0x8(%rbp)
    992e:	7f 7e                	jg     99ae <safe_mul_func_int64_t_s_s+0xb2>
    9930:	48 83 7d f8 00       	cmpq   $0x0,-0x8(%rbp)
    9935:	7e 1d                	jle    9954 <safe_mul_func_int64_t_s_s+0x58>
    9937:	48 83 7d f0 00       	cmpq   $0x0,-0x10(%rbp)
    993c:	7f 16                	jg     9954 <safe_mul_func_int64_t_s_s+0x58>
    993e:	48 b8 00 00 00 00 00 	movabs $0x8000000000000000,%rax
    9945:	00 00 80 
    9948:	48 99                	cqto   
    994a:	48 f7 7d f8          	idivq  -0x8(%rbp)
    994e:	48 39 45 f0          	cmp    %rax,-0x10(%rbp)
    9952:	7c 5a                	jl     99ae <safe_mul_func_int64_t_s_s+0xb2>
    9954:	48 83 7d f8 00       	cmpq   $0x0,-0x8(%rbp)
    9959:	7f 1d                	jg     9978 <safe_mul_func_int64_t_s_s+0x7c>
    995b:	48 83 7d f0 00       	cmpq   $0x0,-0x10(%rbp)
    9960:	7e 16                	jle    9978 <safe_mul_func_int64_t_s_s+0x7c>
    9962:	48 b8 00 00 00 00 00 	movabs $0x8000000000000000,%rax
    9969:	00 00 80 
    996c:	48 99                	cqto   
    996e:	48 f7 7d f0          	idivq  -0x10(%rbp)
    9972:	48 39 45 f8          	cmp    %rax,-0x8(%rbp)
    9976:	7c 36                	jl     99ae <safe_mul_func_int64_t_s_s+0xb2>
    9978:	48 83 7d f8 00       	cmpq   $0x0,-0x8(%rbp)
    997d:	7f 24                	jg     99a3 <safe_mul_func_int64_t_s_s+0xa7>
    997f:	48 83 7d f0 00       	cmpq   $0x0,-0x10(%rbp)
    9984:	7f 1d                	jg     99a3 <safe_mul_func_int64_t_s_s+0xa7>
    9986:	48 83 7d f8 00       	cmpq   $0x0,-0x8(%rbp)
    998b:	74 16                	je     99a3 <safe_mul_func_int64_t_s_s+0xa7>
    998d:	48 b8 ff ff ff ff ff 	movabs $0x7fffffffffffffff,%rax
    9994:	ff ff 7f 
    9997:	48 99                	cqto   
    9999:	48 f7 7d f8          	idivq  -0x8(%rbp)
    999d:	48 39 45 f0          	cmp    %rax,-0x10(%rbp)
    99a1:	7c 0b                	jl     99ae <safe_mul_func_int64_t_s_s+0xb2>
    99a3:	48 8b 45 f8          	mov    -0x8(%rbp),%rax
    99a7:	48 0f af 45 f0       	imul   -0x10(%rbp),%rax
    99ac:	eb 04                	jmp    99b2 <safe_mul_func_int64_t_s_s+0xb6>
    99ae:	48 8b 45 f8          	mov    -0x8(%rbp),%rax
    99b2:	5d                   	pop    %rbp
    99b3:	c3                   	retq   

00000000000099b4 <safe_mod_func_int64_t_s_s>:
    99b4:	f3 0f 1e fa          	endbr64 
    99b8:	55                   	push   %rbp
    99b9:	48 89 e5             	mov    %rsp,%rbp
    99bc:	48 89 7d f8          	mov    %rdi,-0x8(%rbp)
    99c0:	48 89 75 f0          	mov    %rsi,-0x10(%rbp)
    99c4:	48 83 7d f0 00       	cmpq   $0x0,-0x10(%rbp)
    99c9:	74 26                	je     99f1 <safe_mod_func_int64_t_s_s+0x3d>
    99cb:	48 b8 00 00 00 00 00 	movabs $0x8000000000000000,%rax
    99d2:	00 00 80 
    99d5:	48 39 45 f8          	cmp    %rax,-0x8(%rbp)
    99d9:	75 07                	jne    99e2 <safe_mod_func_int64_t_s_s+0x2e>
    99db:	48 83 7d f0 ff       	cmpq   $0xffffffffffffffff,-0x10(%rbp)
    99e0:	74 0f                	je     99f1 <safe_mod_func_int64_t_s_s+0x3d>
    99e2:	48 8b 45 f8          	mov    -0x8(%rbp),%rax
    99e6:	48 99                	cqto   
    99e8:	48 f7 7d f0          	idivq  -0x10(%rbp)
    99ec:	48 89 d0             	mov    %rdx,%rax
    99ef:	eb 04                	jmp    99f5 <safe_mod_func_int64_t_s_s+0x41>
    99f1:	48 8b 45 f8          	mov    -0x8(%rbp),%rax
    99f5:	5d                   	pop    %rbp
    99f6:	c3                   	retq   

00000000000099f7 <safe_div_func_int64_t_s_s>:
    99f7:	f3 0f 1e fa          	endbr64 
    99fb:	55                   	push   %rbp
    99fc:	48 89 e5             	mov    %rsp,%rbp
    99ff:	48 89 7d f8          	mov    %rdi,-0x8(%rbp)
    9a03:	48 89 75 f0          	mov    %rsi,-0x10(%rbp)
    9a07:	48 83 7d f0 00       	cmpq   $0x0,-0x10(%rbp)
    9a0c:	74 23                	je     9a31 <safe_div_func_int64_t_s_s+0x3a>
    9a0e:	48 b8 00 00 00 00 00 	movabs $0x8000000000000000,%rax
    9a15:	00 00 80 
    9a18:	48 39 45 f8          	cmp    %rax,-0x8(%rbp)
    9a1c:	75 07                	jne    9a25 <safe_div_func_int64_t_s_s+0x2e>
    9a1e:	48 83 7d f0 ff       	cmpq   $0xffffffffffffffff,-0x10(%rbp)
    9a23:	74 0c                	je     9a31 <safe_div_func_int64_t_s_s+0x3a>
    9a25:	48 8b 45 f8          	mov    -0x8(%rbp),%rax
    9a29:	48 99                	cqto   
    9a2b:	48 f7 7d f0          	idivq  -0x10(%rbp)
    9a2f:	eb 04                	jmp    9a35 <safe_div_func_int64_t_s_s+0x3e>
    9a31:	48 8b 45 f8          	mov    -0x8(%rbp),%rax
    9a35:	5d                   	pop    %rbp
    9a36:	c3                   	retq   

0000000000009a37 <safe_lshift_func_int64_t_s_s>:
    9a37:	f3 0f 1e fa          	endbr64 
    9a3b:	55                   	push   %rbp
    9a3c:	48 89 e5             	mov    %rsp,%rbp
    9a3f:	48 89 7d f8          	mov    %rdi,-0x8(%rbp)
    9a43:	89 75 f4             	mov    %esi,-0xc(%rbp)
    9a46:	48 83 7d f8 00       	cmpq   $0x0,-0x8(%rbp)
    9a4b:	78 38                	js     9a85 <safe_lshift_func_int64_t_s_s+0x4e>
    9a4d:	83 7d f4 00          	cmpl   $0x0,-0xc(%rbp)
    9a51:	78 32                	js     9a85 <safe_lshift_func_int64_t_s_s+0x4e>
    9a53:	83 7d f4 1f          	cmpl   $0x1f,-0xc(%rbp)
    9a57:	7f 2c                	jg     9a85 <safe_lshift_func_int64_t_s_s+0x4e>
    9a59:	8b 45 f4             	mov    -0xc(%rbp),%eax
    9a5c:	48 ba ff ff ff ff ff 	movabs $0x7fffffffffffffff,%rdx
    9a63:	ff ff 7f 
    9a66:	89 c1                	mov    %eax,%ecx
    9a68:	48 d3 fa             	sar    %cl,%rdx
    9a6b:	48 89 d0             	mov    %rdx,%rax
    9a6e:	48 39 45 f8          	cmp    %rax,-0x8(%rbp)
    9a72:	7f 11                	jg     9a85 <safe_lshift_func_int64_t_s_s+0x4e>
    9a74:	8b 45 f4             	mov    -0xc(%rbp),%eax
    9a77:	48 8b 55 f8          	mov    -0x8(%rbp),%rdx
    9a7b:	89 c1                	mov    %eax,%ecx
    9a7d:	48 d3 e2             	shl    %cl,%rdx
    9a80:	48 89 d0             	mov    %rdx,%rax
    9a83:	eb 04                	jmp    9a89 <safe_lshift_func_int64_t_s_s+0x52>
    9a85:	48 8b 45 f8          	mov    -0x8(%rbp),%rax
    9a89:	5d                   	pop    %rbp
    9a8a:	c3                   	retq   

0000000000009a8b <safe_lshift_func_int64_t_s_u>:
    9a8b:	f3 0f 1e fa          	endbr64 
    9a8f:	55                   	push   %rbp
    9a90:	48 89 e5             	mov    %rsp,%rbp
    9a93:	48 89 7d f8          	mov    %rdi,-0x8(%rbp)
    9a97:	89 75 f4             	mov    %esi,-0xc(%rbp)
    9a9a:	48 83 7d f8 00       	cmpq   $0x0,-0x8(%rbp)
    9a9f:	78 32                	js     9ad3 <safe_lshift_func_int64_t_s_u+0x48>
    9aa1:	83 7d f4 1f          	cmpl   $0x1f,-0xc(%rbp)
    9aa5:	77 2c                	ja     9ad3 <safe_lshift_func_int64_t_s_u+0x48>
    9aa7:	8b 45 f4             	mov    -0xc(%rbp),%eax
    9aaa:	48 ba ff ff ff ff ff 	movabs $0x7fffffffffffffff,%rdx
    9ab1:	ff ff 7f 
    9ab4:	89 c1                	mov    %eax,%ecx
    9ab6:	48 d3 fa             	sar    %cl,%rdx
    9ab9:	48 89 d0             	mov    %rdx,%rax
    9abc:	48 39 45 f8          	cmp    %rax,-0x8(%rbp)
    9ac0:	7f 11                	jg     9ad3 <safe_lshift_func_int64_t_s_u+0x48>
    9ac2:	8b 45 f4             	mov    -0xc(%rbp),%eax
    9ac5:	48 8b 55 f8          	mov    -0x8(%rbp),%rdx
    9ac9:	89 c1                	mov    %eax,%ecx
    9acb:	48 d3 e2             	shl    %cl,%rdx
    9ace:	48 89 d0             	mov    %rdx,%rax
    9ad1:	eb 04                	jmp    9ad7 <safe_lshift_func_int64_t_s_u+0x4c>
    9ad3:	48 8b 45 f8          	mov    -0x8(%rbp),%rax
    9ad7:	5d                   	pop    %rbp
    9ad8:	c3                   	retq   

0000000000009ad9 <safe_rshift_func_int64_t_s_s>:
    9ad9:	f3 0f 1e fa          	endbr64 
    9add:	55                   	push   %rbp
    9ade:	48 89 e5             	mov    %rsp,%rbp
    9ae1:	48 89 7d f8          	mov    %rdi,-0x8(%rbp)
    9ae5:	89 75 f4             	mov    %esi,-0xc(%rbp)
    9ae8:	48 83 7d f8 00       	cmpq   $0x0,-0x8(%rbp)
    9aed:	78 1d                	js     9b0c <safe_rshift_func_int64_t_s_s+0x33>
    9aef:	83 7d f4 00          	cmpl   $0x0,-0xc(%rbp)
    9af3:	78 17                	js     9b0c <safe_rshift_func_int64_t_s_s+0x33>
    9af5:	83 7d f4 1f          	cmpl   $0x1f,-0xc(%rbp)
    9af9:	7f 11                	jg     9b0c <safe_rshift_func_int64_t_s_s+0x33>
    9afb:	8b 45 f4             	mov    -0xc(%rbp),%eax
    9afe:	48 8b 55 f8          	mov    -0x8(%rbp),%rdx
    9b02:	89 c1                	mov    %eax,%ecx
    9b04:	48 d3 fa             	sar    %cl,%rdx
    9b07:	48 89 d0             	mov    %rdx,%rax
    9b0a:	eb 04                	jmp    9b10 <safe_rshift_func_int64_t_s_s+0x37>
    9b0c:	48 8b 45 f8          	mov    -0x8(%rbp),%rax
    9b10:	5d                   	pop    %rbp
    9b11:	c3                   	retq   

0000000000009b12 <safe_rshift_func_int64_t_s_u>:
    9b12:	f3 0f 1e fa          	endbr64 
    9b16:	55                   	push   %rbp
    9b17:	48 89 e5             	mov    %rsp,%rbp
    9b1a:	48 89 7d f8          	mov    %rdi,-0x8(%rbp)
    9b1e:	89 75 f4             	mov    %esi,-0xc(%rbp)
    9b21:	48 83 7d f8 00       	cmpq   $0x0,-0x8(%rbp)
    9b26:	78 17                	js     9b3f <safe_rshift_func_int64_t_s_u+0x2d>
    9b28:	83 7d f4 1f          	cmpl   $0x1f,-0xc(%rbp)
    9b2c:	77 11                	ja     9b3f <safe_rshift_func_int64_t_s_u+0x2d>
    9b2e:	8b 45 f4             	mov    -0xc(%rbp),%eax
    9b31:	48 8b 55 f8          	mov    -0x8(%rbp),%rdx
    9b35:	89 c1                	mov    %eax,%ecx
    9b37:	48 d3 fa             	sar    %cl,%rdx
    9b3a:	48 89 d0             	mov    %rdx,%rax
    9b3d:	eb 04                	jmp    9b43 <safe_rshift_func_int64_t_s_u+0x31>
    9b3f:	48 8b 45 f8          	mov    -0x8(%rbp),%rax
    9b43:	5d                   	pop    %rbp
    9b44:	c3                   	retq   

0000000000009b45 <safe_unary_minus_func_uint8_t_u>:
    9b45:	f3 0f 1e fa          	endbr64 
    9b49:	55                   	push   %rbp
    9b4a:	48 89 e5             	mov    %rsp,%rbp
    9b4d:	89 f8                	mov    %edi,%eax
    9b4f:	88 45 fc             	mov    %al,-0x4(%rbp)
    9b52:	0f b6 45 fc          	movzbl -0x4(%rbp),%eax
    9b56:	f7 d8                	neg    %eax
    9b58:	5d                   	pop    %rbp
    9b59:	c3                   	retq   

0000000000009b5a <safe_add_func_uint8_t_u_u>:
    9b5a:	f3 0f 1e fa          	endbr64 
    9b5e:	55                   	push   %rbp
    9b5f:	48 89 e5             	mov    %rsp,%rbp
    9b62:	89 fa                	mov    %edi,%edx
    9b64:	89 f0                	mov    %esi,%eax
    9b66:	88 55 fc             	mov    %dl,-0x4(%rbp)
    9b69:	88 45 f8             	mov    %al,-0x8(%rbp)
    9b6c:	0f b6 55 fc          	movzbl -0x4(%rbp),%edx
    9b70:	0f b6 45 f8          	movzbl -0x8(%rbp),%eax
    9b74:	01 d0                	add    %edx,%eax
    9b76:	5d                   	pop    %rbp
    9b77:	c3                   	retq   

0000000000009b78 <safe_sub_func_uint8_t_u_u>:
    9b78:	f3 0f 1e fa          	endbr64 
    9b7c:	55                   	push   %rbp
    9b7d:	48 89 e5             	mov    %rsp,%rbp
    9b80:	89 fa                	mov    %edi,%edx
    9b82:	89 f0                	mov    %esi,%eax
    9b84:	88 55 fc             	mov    %dl,-0x4(%rbp)
    9b87:	88 45 f8             	mov    %al,-0x8(%rbp)
    9b8a:	0f b6 45 fc          	movzbl -0x4(%rbp),%eax
    9b8e:	2a 45 f8             	sub    -0x8(%rbp),%al
    9b91:	5d                   	pop    %rbp
    9b92:	c3                   	retq   

0000000000009b93 <safe_mul_func_uint8_t_u_u>:
    9b93:	f3 0f 1e fa          	endbr64 
    9b97:	55                   	push   %rbp
    9b98:	48 89 e5             	mov    %rsp,%rbp
    9b9b:	89 fa                	mov    %edi,%edx
    9b9d:	89 f0                	mov    %esi,%eax
    9b9f:	88 55 fc             	mov    %dl,-0x4(%rbp)
    9ba2:	88 45 f8             	mov    %al,-0x8(%rbp)
    9ba5:	0f b6 45 fc          	movzbl -0x4(%rbp),%eax
    9ba9:	f6 65 f8             	mulb   -0x8(%rbp)
    9bac:	5d                   	pop    %rbp
    9bad:	c3                   	retq   

0000000000009bae <safe_mod_func_uint8_t_u_u>:
    9bae:	f3 0f 1e fa          	endbr64 
    9bb2:	55                   	push   %rbp
    9bb3:	48 89 e5             	mov    %rsp,%rbp
    9bb6:	89 fa                	mov    %edi,%edx
    9bb8:	89 f0                	mov    %esi,%eax
    9bba:	88 55 fc             	mov    %dl,-0x4(%rbp)
    9bbd:	88 45 f8             	mov    %al,-0x8(%rbp)
    9bc0:	80 7d f8 00          	cmpb   $0x0,-0x8(%rbp)
    9bc4:	74 0f                	je     9bd5 <safe_mod_func_uint8_t_u_u+0x27>
    9bc6:	0f b6 45 fc          	movzbl -0x4(%rbp),%eax
    9bca:	0f b6 c0             	movzbl %al,%eax
    9bcd:	f6 75 f8             	divb   -0x8(%rbp)
    9bd0:	0f b6 c4             	movzbl %ah,%eax
    9bd3:	eb 04                	jmp    9bd9 <safe_mod_func_uint8_t_u_u+0x2b>
    9bd5:	0f b6 45 fc          	movzbl -0x4(%rbp),%eax
    9bd9:	5d                   	pop    %rbp
    9bda:	c3                   	retq   

0000000000009bdb <safe_div_func_uint8_t_u_u>:
    9bdb:	f3 0f 1e fa          	endbr64 
    9bdf:	55                   	push   %rbp
    9be0:	48 89 e5             	mov    %rsp,%rbp
    9be3:	89 fa                	mov    %edi,%edx
    9be5:	89 f0                	mov    %esi,%eax
    9be7:	88 55 fc             	mov    %dl,-0x4(%rbp)
    9bea:	88 45 f8             	mov    %al,-0x8(%rbp)
    9bed:	80 7d f8 00          	cmpb   $0x0,-0x8(%rbp)
    9bf1:	74 0c                	je     9bff <safe_div_func_uint8_t_u_u+0x24>
    9bf3:	0f b6 45 fc          	movzbl -0x4(%rbp),%eax
    9bf7:	0f b6 c0             	movzbl %al,%eax
    9bfa:	f6 75 f8             	divb   -0x8(%rbp)
    9bfd:	eb 04                	jmp    9c03 <safe_div_func_uint8_t_u_u+0x28>
    9bff:	0f b6 45 fc          	movzbl -0x4(%rbp),%eax
    9c03:	5d                   	pop    %rbp
    9c04:	c3                   	retq   

0000000000009c05 <safe_lshift_func_uint8_t_u_s>:
    9c05:	f3 0f 1e fa          	endbr64 
    9c09:	55                   	push   %rbp
    9c0a:	48 89 e5             	mov    %rsp,%rbp
    9c0d:	89 f8                	mov    %edi,%eax
    9c0f:	89 75 f8             	mov    %esi,-0x8(%rbp)
    9c12:	88 45 fc             	mov    %al,-0x4(%rbp)
    9c15:	83 7d f8 00          	cmpl   $0x0,-0x8(%rbp)
    9c19:	78 2b                	js     9c46 <safe_lshift_func_uint8_t_u_s+0x41>
    9c1b:	83 7d f8 1f          	cmpl   $0x1f,-0x8(%rbp)
    9c1f:	7f 25                	jg     9c46 <safe_lshift_func_uint8_t_u_s+0x41>
    9c21:	0f b6 55 fc          	movzbl -0x4(%rbp),%edx
    9c25:	8b 45 f8             	mov    -0x8(%rbp),%eax
    9c28:	be ff 00 00 00       	mov    $0xff,%esi
    9c2d:	89 c1                	mov    %eax,%ecx
    9c2f:	d3 fe                	sar    %cl,%esi
    9c31:	89 f0                	mov    %esi,%eax
    9c33:	39 c2                	cmp    %eax,%edx
    9c35:	7f 0f                	jg     9c46 <safe_lshift_func_uint8_t_u_s+0x41>
    9c37:	0f b6 55 fc          	movzbl -0x4(%rbp),%edx
    9c3b:	8b 45 f8             	mov    -0x8(%rbp),%eax
    9c3e:	89 c1                	mov    %eax,%ecx
    9c40:	d3 e2                	shl    %cl,%edx
    9c42:	89 d0                	mov    %edx,%eax
    9c44:	eb 04                	jmp    9c4a <safe_lshift_func_uint8_t_u_s+0x45>
    9c46:	0f b6 45 fc          	movzbl -0x4(%rbp),%eax
    9c4a:	5d                   	pop    %rbp
    9c4b:	c3                   	retq   

0000000000009c4c <safe_lshift_func_uint8_t_u_u>:
    9c4c:	f3 0f 1e fa          	endbr64 
    9c50:	55                   	push   %rbp
    9c51:	48 89 e5             	mov    %rsp,%rbp
    9c54:	89 f8                	mov    %edi,%eax
    9c56:	89 75 f8             	mov    %esi,-0x8(%rbp)
    9c59:	88 45 fc             	mov    %al,-0x4(%rbp)
    9c5c:	83 7d f8 1f          	cmpl   $0x1f,-0x8(%rbp)
    9c60:	77 25                	ja     9c87 <safe_lshift_func_uint8_t_u_u+0x3b>
    9c62:	0f b6 55 fc          	movzbl -0x4(%rbp),%edx
    9c66:	8b 45 f8             	mov    -0x8(%rbp),%eax
    9c69:	be ff 00 00 00       	mov    $0xff,%esi
    9c6e:	89 c1                	mov    %eax,%ecx
    9c70:	d3 fe                	sar    %cl,%esi
    9c72:	89 f0                	mov    %esi,%eax
    9c74:	39 c2                	cmp    %eax,%edx
    9c76:	7f 0f                	jg     9c87 <safe_lshift_func_uint8_t_u_u+0x3b>
    9c78:	0f b6 55 fc          	movzbl -0x4(%rbp),%edx
    9c7c:	8b 45 f8             	mov    -0x8(%rbp),%eax
    9c7f:	89 c1                	mov    %eax,%ecx
    9c81:	d3 e2                	shl    %cl,%edx
    9c83:	89 d0                	mov    %edx,%eax
    9c85:	eb 04                	jmp    9c8b <safe_lshift_func_uint8_t_u_u+0x3f>
    9c87:	0f b6 45 fc          	movzbl -0x4(%rbp),%eax
    9c8b:	5d                   	pop    %rbp
    9c8c:	c3                   	retq   

0000000000009c8d <safe_rshift_func_uint8_t_u_s>:
    9c8d:	f3 0f 1e fa          	endbr64 
    9c91:	55                   	push   %rbp
    9c92:	48 89 e5             	mov    %rsp,%rbp
    9c95:	89 f8                	mov    %edi,%eax
    9c97:	89 75 f8             	mov    %esi,-0x8(%rbp)
    9c9a:	88 45 fc             	mov    %al,-0x4(%rbp)
    9c9d:	83 7d f8 00          	cmpl   $0x0,-0x8(%rbp)
    9ca1:	78 15                	js     9cb8 <safe_rshift_func_uint8_t_u_s+0x2b>
    9ca3:	83 7d f8 1f          	cmpl   $0x1f,-0x8(%rbp)
    9ca7:	7f 0f                	jg     9cb8 <safe_rshift_func_uint8_t_u_s+0x2b>
    9ca9:	0f b6 55 fc          	movzbl -0x4(%rbp),%edx
    9cad:	8b 45 f8             	mov    -0x8(%rbp),%eax
    9cb0:	89 c1                	mov    %eax,%ecx
    9cb2:	d3 fa                	sar    %cl,%edx
    9cb4:	89 d0                	mov    %edx,%eax
    9cb6:	eb 04                	jmp    9cbc <safe_rshift_func_uint8_t_u_s+0x2f>
    9cb8:	0f b6 45 fc          	movzbl -0x4(%rbp),%eax
    9cbc:	5d                   	pop    %rbp
    9cbd:	c3                   	retq   

0000000000009cbe <safe_rshift_func_uint8_t_u_u>:
    9cbe:	f3 0f 1e fa          	endbr64 
    9cc2:	55                   	push   %rbp
    9cc3:	48 89 e5             	mov    %rsp,%rbp
    9cc6:	89 f8                	mov    %edi,%eax
    9cc8:	89 75 f8             	mov    %esi,-0x8(%rbp)
    9ccb:	88 45 fc             	mov    %al,-0x4(%rbp)
    9cce:	83 7d f8 1f          	cmpl   $0x1f,-0x8(%rbp)
    9cd2:	77 0f                	ja     9ce3 <safe_rshift_func_uint8_t_u_u+0x25>
    9cd4:	0f b6 55 fc          	movzbl -0x4(%rbp),%edx
    9cd8:	8b 45 f8             	mov    -0x8(%rbp),%eax
    9cdb:	89 c1                	mov    %eax,%ecx
    9cdd:	d3 fa                	sar    %cl,%edx
    9cdf:	89 d0                	mov    %edx,%eax
    9ce1:	eb 04                	jmp    9ce7 <safe_rshift_func_uint8_t_u_u+0x29>
    9ce3:	0f b6 45 fc          	movzbl -0x4(%rbp),%eax
    9ce7:	5d                   	pop    %rbp
    9ce8:	c3                   	retq   

0000000000009ce9 <safe_unary_minus_func_uint16_t_u>:
    9ce9:	f3 0f 1e fa          	endbr64 
    9ced:	55                   	push   %rbp
    9cee:	48 89 e5             	mov    %rsp,%rbp
    9cf1:	89 f8                	mov    %edi,%eax
    9cf3:	66 89 45 fc          	mov    %ax,-0x4(%rbp)
    9cf7:	0f b7 45 fc          	movzwl -0x4(%rbp),%eax
    9cfb:	f7 d8                	neg    %eax
    9cfd:	5d                   	pop    %rbp
    9cfe:	c3                   	retq   

0000000000009cff <safe_add_func_uint16_t_u_u>:
    9cff:	f3 0f 1e fa          	endbr64 
    9d03:	55                   	push   %rbp
    9d04:	48 89 e5             	mov    %rsp,%rbp
    9d07:	89 fa                	mov    %edi,%edx
    9d09:	89 f0                	mov    %esi,%eax
    9d0b:	66 89 55 fc          	mov    %dx,-0x4(%rbp)
    9d0f:	66 89 45 f8          	mov    %ax,-0x8(%rbp)
    9d13:	0f b7 55 fc          	movzwl -0x4(%rbp),%edx
    9d17:	0f b7 45 f8          	movzwl -0x8(%rbp),%eax
    9d1b:	01 d0                	add    %edx,%eax
    9d1d:	5d                   	pop    %rbp
    9d1e:	c3                   	retq   

0000000000009d1f <safe_sub_func_uint16_t_u_u>:
    9d1f:	f3 0f 1e fa          	endbr64 
    9d23:	55                   	push   %rbp
    9d24:	48 89 e5             	mov    %rsp,%rbp
    9d27:	89 fa                	mov    %edi,%edx
    9d29:	89 f0                	mov    %esi,%eax
    9d2b:	66 89 55 fc          	mov    %dx,-0x4(%rbp)
    9d2f:	66 89 45 f8          	mov    %ax,-0x8(%rbp)
    9d33:	0f b7 45 fc          	movzwl -0x4(%rbp),%eax
    9d37:	66 2b 45 f8          	sub    -0x8(%rbp),%ax
    9d3b:	5d                   	pop    %rbp
    9d3c:	c3                   	retq   

0000000000009d3d <safe_mul_func_uint16_t_u_u>:
    9d3d:	f3 0f 1e fa          	endbr64 
    9d41:	55                   	push   %rbp
    9d42:	48 89 e5             	mov    %rsp,%rbp
    9d45:	89 fa                	mov    %edi,%edx
    9d47:	89 f0                	mov    %esi,%eax
    9d49:	66 89 55 fc          	mov    %dx,-0x4(%rbp)
    9d4d:	66 89 45 f8          	mov    %ax,-0x8(%rbp)
    9d51:	0f b7 45 fc          	movzwl -0x4(%rbp),%eax
    9d55:	66 0f af 45 f8       	imul   -0x8(%rbp),%ax
    9d5a:	5d                   	pop    %rbp
    9d5b:	c3                   	retq   

0000000000009d5c <safe_mod_func_uint16_t_u_u>:
    9d5c:	f3 0f 1e fa          	endbr64 
    9d60:	55                   	push   %rbp
    9d61:	48 89 e5             	mov    %rsp,%rbp
    9d64:	89 fa                	mov    %edi,%edx
    9d66:	89 f0                	mov    %esi,%eax
    9d68:	66 89 55 fc          	mov    %dx,-0x4(%rbp)
    9d6c:	66 89 45 f8          	mov    %ax,-0x8(%rbp)
    9d70:	66 83 7d f8 00       	cmpw   $0x0,-0x8(%rbp)
    9d75:	74 11                	je     9d88 <safe_mod_func_uint16_t_u_u+0x2c>
    9d77:	0f b7 45 fc          	movzwl -0x4(%rbp),%eax
    9d7b:	ba 00 00 00 00       	mov    $0x0,%edx
    9d80:	66 f7 75 f8          	divw   -0x8(%rbp)
    9d84:	89 d0                	mov    %edx,%eax
    9d86:	eb 04                	jmp    9d8c <safe_mod_func_uint16_t_u_u+0x30>
    9d88:	0f b7 45 fc          	movzwl -0x4(%rbp),%eax
    9d8c:	5d                   	pop    %rbp
    9d8d:	c3                   	retq   

0000000000009d8e <safe_div_func_uint16_t_u_u>:
    9d8e:	f3 0f 1e fa          	endbr64 
    9d92:	55                   	push   %rbp
    9d93:	48 89 e5             	mov    %rsp,%rbp
    9d96:	89 fa                	mov    %edi,%edx
    9d98:	89 f0                	mov    %esi,%eax
    9d9a:	66 89 55 fc          	mov    %dx,-0x4(%rbp)
    9d9e:	66 89 45 f8          	mov    %ax,-0x8(%rbp)
    9da2:	66 83 7d f8 00       	cmpw   $0x0,-0x8(%rbp)
    9da7:	74 0f                	je     9db8 <safe_div_func_uint16_t_u_u+0x2a>
    9da9:	0f b7 45 fc          	movzwl -0x4(%rbp),%eax
    9dad:	ba 00 00 00 00       	mov    $0x0,%edx
    9db2:	66 f7 75 f8          	divw   -0x8(%rbp)
    9db6:	eb 04                	jmp    9dbc <safe_div_func_uint16_t_u_u+0x2e>
    9db8:	0f b7 45 fc          	movzwl -0x4(%rbp),%eax
    9dbc:	5d                   	pop    %rbp
    9dbd:	c3                   	retq   

0000000000009dbe <safe_lshift_func_uint16_t_u_s>:
    9dbe:	f3 0f 1e fa          	endbr64 
    9dc2:	55                   	push   %rbp
    9dc3:	48 89 e5             	mov    %rsp,%rbp
    9dc6:	89 f8                	mov    %edi,%eax
    9dc8:	89 75 f8             	mov    %esi,-0x8(%rbp)
    9dcb:	66 89 45 fc          	mov    %ax,-0x4(%rbp)
    9dcf:	83 7d f8 00          	cmpl   $0x0,-0x8(%rbp)
    9dd3:	78 2b                	js     9e00 <safe_lshift_func_uint16_t_u_s+0x42>
    9dd5:	83 7d f8 1f          	cmpl   $0x1f,-0x8(%rbp)
    9dd9:	7f 25                	jg     9e00 <safe_lshift_func_uint16_t_u_s+0x42>
    9ddb:	0f b7 55 fc          	movzwl -0x4(%rbp),%edx
    9ddf:	8b 45 f8             	mov    -0x8(%rbp),%eax
    9de2:	be ff ff 00 00       	mov    $0xffff,%esi
    9de7:	89 c1                	mov    %eax,%ecx
    9de9:	d3 fe                	sar    %cl,%esi
    9deb:	89 f0                	mov    %esi,%eax
    9ded:	39 c2                	cmp    %eax,%edx
    9def:	7f 0f                	jg     9e00 <safe_lshift_func_uint16_t_u_s+0x42>
    9df1:	0f b7 55 fc          	movzwl -0x4(%rbp),%edx
    9df5:	8b 45 f8             	mov    -0x8(%rbp),%eax
    9df8:	89 c1                	mov    %eax,%ecx
    9dfa:	d3 e2                	shl    %cl,%edx
    9dfc:	89 d0                	mov    %edx,%eax
    9dfe:	eb 04                	jmp    9e04 <safe_lshift_func_uint16_t_u_s+0x46>
    9e00:	0f b7 45 fc          	movzwl -0x4(%rbp),%eax
    9e04:	5d                   	pop    %rbp
    9e05:	c3                   	retq   

0000000000009e06 <safe_lshift_func_uint16_t_u_u>:
    9e06:	f3 0f 1e fa          	endbr64 
    9e0a:	55                   	push   %rbp
    9e0b:	48 89 e5             	mov    %rsp,%rbp
    9e0e:	89 f8                	mov    %edi,%eax
    9e10:	89 75 f8             	mov    %esi,-0x8(%rbp)
    9e13:	66 89 45 fc          	mov    %ax,-0x4(%rbp)
    9e17:	83 7d f8 1f          	cmpl   $0x1f,-0x8(%rbp)
    9e1b:	77 25                	ja     9e42 <safe_lshift_func_uint16_t_u_u+0x3c>
    9e1d:	0f b7 55 fc          	movzwl -0x4(%rbp),%edx
    9e21:	8b 45 f8             	mov    -0x8(%rbp),%eax
    9e24:	be ff ff 00 00       	mov    $0xffff,%esi
    9e29:	89 c1                	mov    %eax,%ecx
    9e2b:	d3 fe                	sar    %cl,%esi
    9e2d:	89 f0                	mov    %esi,%eax
    9e2f:	39 c2                	cmp    %eax,%edx
    9e31:	7f 0f                	jg     9e42 <safe_lshift_func_uint16_t_u_u+0x3c>
    9e33:	0f b7 55 fc          	movzwl -0x4(%rbp),%edx
    9e37:	8b 45 f8             	mov    -0x8(%rbp),%eax
    9e3a:	89 c1                	mov    %eax,%ecx
    9e3c:	d3 e2                	shl    %cl,%edx
    9e3e:	89 d0                	mov    %edx,%eax
    9e40:	eb 04                	jmp    9e46 <safe_lshift_func_uint16_t_u_u+0x40>
    9e42:	0f b7 45 fc          	movzwl -0x4(%rbp),%eax
    9e46:	5d                   	pop    %rbp
    9e47:	c3                   	retq   

0000000000009e48 <safe_rshift_func_uint16_t_u_s>:
    9e48:	f3 0f 1e fa          	endbr64 
    9e4c:	55                   	push   %rbp
    9e4d:	48 89 e5             	mov    %rsp,%rbp
    9e50:	89 f8                	mov    %edi,%eax
    9e52:	89 75 f8             	mov    %esi,-0x8(%rbp)
    9e55:	66 89 45 fc          	mov    %ax,-0x4(%rbp)
    9e59:	83 7d f8 00          	cmpl   $0x0,-0x8(%rbp)
    9e5d:	78 15                	js     9e74 <safe_rshift_func_uint16_t_u_s+0x2c>
    9e5f:	83 7d f8 1f          	cmpl   $0x1f,-0x8(%rbp)
    9e63:	7f 0f                	jg     9e74 <safe_rshift_func_uint16_t_u_s+0x2c>
    9e65:	0f b7 55 fc          	movzwl -0x4(%rbp),%edx
    9e69:	8b 45 f8             	mov    -0x8(%rbp),%eax
    9e6c:	89 c1                	mov    %eax,%ecx
    9e6e:	d3 fa                	sar    %cl,%edx
    9e70:	89 d0                	mov    %edx,%eax
    9e72:	eb 04                	jmp    9e78 <safe_rshift_func_uint16_t_u_s+0x30>
    9e74:	0f b7 45 fc          	movzwl -0x4(%rbp),%eax
    9e78:	5d                   	pop    %rbp
    9e79:	c3                   	retq   

0000000000009e7a <safe_rshift_func_uint16_t_u_u>:
    9e7a:	f3 0f 1e fa          	endbr64 
    9e7e:	55                   	push   %rbp
    9e7f:	48 89 e5             	mov    %rsp,%rbp
    9e82:	89 f8                	mov    %edi,%eax
    9e84:	89 75 f8             	mov    %esi,-0x8(%rbp)
    9e87:	66 89 45 fc          	mov    %ax,-0x4(%rbp)
    9e8b:	83 7d f8 1f          	cmpl   $0x1f,-0x8(%rbp)
    9e8f:	77 0f                	ja     9ea0 <safe_rshift_func_uint16_t_u_u+0x26>
    9e91:	0f b7 55 fc          	movzwl -0x4(%rbp),%edx
    9e95:	8b 45 f8             	mov    -0x8(%rbp),%eax
    9e98:	89 c1                	mov    %eax,%ecx
    9e9a:	d3 fa                	sar    %cl,%edx
    9e9c:	89 d0                	mov    %edx,%eax
    9e9e:	eb 04                	jmp    9ea4 <safe_rshift_func_uint16_t_u_u+0x2a>
    9ea0:	0f b7 45 fc          	movzwl -0x4(%rbp),%eax
    9ea4:	5d                   	pop    %rbp
    9ea5:	c3                   	retq   

0000000000009ea6 <safe_unary_minus_func_uint32_t_u>:
    9ea6:	f3 0f 1e fa          	endbr64 
    9eaa:	55                   	push   %rbp
    9eab:	48 89 e5             	mov    %rsp,%rbp
    9eae:	89 7d fc             	mov    %edi,-0x4(%rbp)
    9eb1:	8b 45 fc             	mov    -0x4(%rbp),%eax
    9eb4:	f7 d8                	neg    %eax
    9eb6:	5d                   	pop    %rbp
    9eb7:	c3                   	retq   

0000000000009eb8 <safe_add_func_uint32_t_u_u>:
    9eb8:	f3 0f 1e fa          	endbr64 
    9ebc:	55                   	push   %rbp
    9ebd:	48 89 e5             	mov    %rsp,%rbp
    9ec0:	89 7d fc             	mov    %edi,-0x4(%rbp)
    9ec3:	89 75 f8             	mov    %esi,-0x8(%rbp)
    9ec6:	8b 55 fc             	mov    -0x4(%rbp),%edx
    9ec9:	8b 45 f8             	mov    -0x8(%rbp),%eax
    9ecc:	01 d0                	add    %edx,%eax
    9ece:	5d                   	pop    %rbp
    9ecf:	c3                   	retq   

0000000000009ed0 <safe_sub_func_uint32_t_u_u>:
    9ed0:	f3 0f 1e fa          	endbr64 
    9ed4:	55                   	push   %rbp
    9ed5:	48 89 e5             	mov    %rsp,%rbp
    9ed8:	89 7d fc             	mov    %edi,-0x4(%rbp)
    9edb:	89 75 f8             	mov    %esi,-0x8(%rbp)
    9ede:	8b 45 fc             	mov    -0x4(%rbp),%eax
    9ee1:	2b 45 f8             	sub    -0x8(%rbp),%eax
    9ee4:	5d                   	pop    %rbp
    9ee5:	c3                   	retq   

0000000000009ee6 <safe_mul_func_uint32_t_u_u>:
    9ee6:	f3 0f 1e fa          	endbr64 
    9eea:	55                   	push   %rbp
    9eeb:	48 89 e5             	mov    %rsp,%rbp
    9eee:	89 7d fc             	mov    %edi,-0x4(%rbp)
    9ef1:	89 75 f8             	mov    %esi,-0x8(%rbp)
    9ef4:	8b 45 fc             	mov    -0x4(%rbp),%eax
    9ef7:	0f af 45 f8          	imul   -0x8(%rbp),%eax
    9efb:	5d                   	pop    %rbp
    9efc:	c3                   	retq   

0000000000009efd <safe_mod_func_uint32_t_u_u>:
    9efd:	f3 0f 1e fa          	endbr64 
    9f01:	55                   	push   %rbp
    9f02:	48 89 e5             	mov    %rsp,%rbp
    9f05:	89 7d fc             	mov    %edi,-0x4(%rbp)
    9f08:	89 75 f8             	mov    %esi,-0x8(%rbp)
    9f0b:	83 7d f8 00          	cmpl   $0x0,-0x8(%rbp)
    9f0f:	74 0f                	je     9f20 <safe_mod_func_uint32_t_u_u+0x23>
    9f11:	8b 45 fc             	mov    -0x4(%rbp),%eax
    9f14:	ba 00 00 00 00       	mov    $0x0,%edx
    9f19:	f7 75 f8             	divl   -0x8(%rbp)
    9f1c:	89 d0                	mov    %edx,%eax
    9f1e:	eb 03                	jmp    9f23 <safe_mod_func_uint32_t_u_u+0x26>
    9f20:	8b 45 fc             	mov    -0x4(%rbp),%eax
    9f23:	5d                   	pop    %rbp
    9f24:	c3                   	retq   

0000000000009f25 <safe_div_func_uint32_t_u_u>:
    9f25:	f3 0f 1e fa          	endbr64 
    9f29:	55                   	push   %rbp
    9f2a:	48 89 e5             	mov    %rsp,%rbp
    9f2d:	89 7d fc             	mov    %edi,-0x4(%rbp)
    9f30:	89 75 f8             	mov    %esi,-0x8(%rbp)
    9f33:	83 7d f8 00          	cmpl   $0x0,-0x8(%rbp)
    9f37:	74 0d                	je     9f46 <safe_div_func_uint32_t_u_u+0x21>
    9f39:	8b 45 fc             	mov    -0x4(%rbp),%eax
    9f3c:	ba 00 00 00 00       	mov    $0x0,%edx
    9f41:	f7 75 f8             	divl   -0x8(%rbp)
    9f44:	eb 03                	jmp    9f49 <safe_div_func_uint32_t_u_u+0x24>
    9f46:	8b 45 fc             	mov    -0x4(%rbp),%eax
    9f49:	5d                   	pop    %rbp
    9f4a:	c3                   	retq   

0000000000009f4b <safe_lshift_func_uint32_t_u_s>:
    9f4b:	f3 0f 1e fa          	endbr64 
    9f4f:	55                   	push   %rbp
    9f50:	48 89 e5             	mov    %rsp,%rbp
    9f53:	89 7d fc             	mov    %edi,-0x4(%rbp)
    9f56:	89 75 f8             	mov    %esi,-0x8(%rbp)
    9f59:	83 7d f8 00          	cmpl   $0x0,-0x8(%rbp)
    9f5d:	78 27                	js     9f86 <safe_lshift_func_uint32_t_u_s+0x3b>
    9f5f:	83 7d f8 1f          	cmpl   $0x1f,-0x8(%rbp)
    9f63:	7f 21                	jg     9f86 <safe_lshift_func_uint32_t_u_s+0x3b>
    9f65:	8b 45 f8             	mov    -0x8(%rbp),%eax
    9f68:	ba ff ff ff ff       	mov    $0xffffffff,%edx
    9f6d:	89 c1                	mov    %eax,%ecx
    9f6f:	d3 ea                	shr    %cl,%edx
    9f71:	89 d0                	mov    %edx,%eax
    9f73:	39 45 fc             	cmp    %eax,-0x4(%rbp)
    9f76:	77 0e                	ja     9f86 <safe_lshift_func_uint32_t_u_s+0x3b>
    9f78:	8b 45 f8             	mov    -0x8(%rbp),%eax
    9f7b:	8b 55 fc             	mov    -0x4(%rbp),%edx
    9f7e:	89 c1                	mov    %eax,%ecx
    9f80:	d3 e2                	shl    %cl,%edx
    9f82:	89 d0                	mov    %edx,%eax
    9f84:	eb 03                	jmp    9f89 <safe_lshift_func_uint32_t_u_s+0x3e>
    9f86:	8b 45 fc             	mov    -0x4(%rbp),%eax
    9f89:	5d                   	pop    %rbp
    9f8a:	c3                   	retq   

0000000000009f8b <safe_lshift_func_uint32_t_u_u>:
    9f8b:	f3 0f 1e fa          	endbr64 
    9f8f:	55                   	push   %rbp
    9f90:	48 89 e5             	mov    %rsp,%rbp
    9f93:	89 7d fc             	mov    %edi,-0x4(%rbp)
    9f96:	89 75 f8             	mov    %esi,-0x8(%rbp)
    9f99:	83 7d f8 1f          	cmpl   $0x1f,-0x8(%rbp)
    9f9d:	77 21                	ja     9fc0 <safe_lshift_func_uint32_t_u_u+0x35>
    9f9f:	8b 45 f8             	mov    -0x8(%rbp),%eax
    9fa2:	ba ff ff ff ff       	mov    $0xffffffff,%edx
    9fa7:	89 c1                	mov    %eax,%ecx
    9fa9:	d3 ea                	shr    %cl,%edx
    9fab:	89 d0                	mov    %edx,%eax
    9fad:	39 45 fc             	cmp    %eax,-0x4(%rbp)
    9fb0:	77 0e                	ja     9fc0 <safe_lshift_func_uint32_t_u_u+0x35>
    9fb2:	8b 45 f8             	mov    -0x8(%rbp),%eax
    9fb5:	8b 55 fc             	mov    -0x4(%rbp),%edx
    9fb8:	89 c1                	mov    %eax,%ecx
    9fba:	d3 e2                	shl    %cl,%edx
    9fbc:	89 d0                	mov    %edx,%eax
    9fbe:	eb 03                	jmp    9fc3 <safe_lshift_func_uint32_t_u_u+0x38>
    9fc0:	8b 45 fc             	mov    -0x4(%rbp),%eax
    9fc3:	5d                   	pop    %rbp
    9fc4:	c3                   	retq   

0000000000009fc5 <safe_rshift_func_uint32_t_u_s>:
    9fc5:	f3 0f 1e fa          	endbr64 
    9fc9:	55                   	push   %rbp
    9fca:	48 89 e5             	mov    %rsp,%rbp
    9fcd:	89 7d fc             	mov    %edi,-0x4(%rbp)
    9fd0:	89 75 f8             	mov    %esi,-0x8(%rbp)
    9fd3:	83 7d f8 00          	cmpl   $0x0,-0x8(%rbp)
    9fd7:	78 14                	js     9fed <safe_rshift_func_uint32_t_u_s+0x28>
    9fd9:	83 7d f8 1f          	cmpl   $0x1f,-0x8(%rbp)
    9fdd:	7f 0e                	jg     9fed <safe_rshift_func_uint32_t_u_s+0x28>
    9fdf:	8b 45 f8             	mov    -0x8(%rbp),%eax
    9fe2:	8b 55 fc             	mov    -0x4(%rbp),%edx
    9fe5:	89 c1                	mov    %eax,%ecx
    9fe7:	d3 ea                	shr    %cl,%edx
    9fe9:	89 d0                	mov    %edx,%eax
    9feb:	eb 03                	jmp    9ff0 <safe_rshift_func_uint32_t_u_s+0x2b>
    9fed:	8b 45 fc             	mov    -0x4(%rbp),%eax
    9ff0:	5d                   	pop    %rbp
    9ff1:	c3                   	retq   

0000000000009ff2 <safe_rshift_func_uint32_t_u_u>:
    9ff2:	f3 0f 1e fa          	endbr64 
    9ff6:	55                   	push   %rbp
    9ff7:	48 89 e5             	mov    %rsp,%rbp
    9ffa:	89 7d fc             	mov    %edi,-0x4(%rbp)
    9ffd:	89 75 f8             	mov    %esi,-0x8(%rbp)
    a000:	83 7d f8 1f          	cmpl   $0x1f,-0x8(%rbp)
    a004:	77 0e                	ja     a014 <safe_rshift_func_uint32_t_u_u+0x22>
    a006:	8b 45 f8             	mov    -0x8(%rbp),%eax
    a009:	8b 55 fc             	mov    -0x4(%rbp),%edx
    a00c:	89 c1                	mov    %eax,%ecx
    a00e:	d3 ea                	shr    %cl,%edx
    a010:	89 d0                	mov    %edx,%eax
    a012:	eb 03                	jmp    a017 <safe_rshift_func_uint32_t_u_u+0x25>
    a014:	8b 45 fc             	mov    -0x4(%rbp),%eax
    a017:	5d                   	pop    %rbp
    a018:	c3                   	retq   

000000000000a019 <safe_unary_minus_func_uint64_t_u>:
    a019:	f3 0f 1e fa          	endbr64 
    a01d:	55                   	push   %rbp
    a01e:	48 89 e5             	mov    %rsp,%rbp
    a021:	48 89 7d f8          	mov    %rdi,-0x8(%rbp)
    a025:	48 8b 45 f8          	mov    -0x8(%rbp),%rax
    a029:	48 f7 d8             	neg    %rax
    a02c:	5d                   	pop    %rbp
    a02d:	c3                   	retq   

000000000000a02e <safe_add_func_uint64_t_u_u>:
    a02e:	f3 0f 1e fa          	endbr64 
    a032:	55                   	push   %rbp
    a033:	48 89 e5             	mov    %rsp,%rbp
    a036:	48 89 7d f8          	mov    %rdi,-0x8(%rbp)
    a03a:	48 89 75 f0          	mov    %rsi,-0x10(%rbp)
    a03e:	48 8b 55 f8          	mov    -0x8(%rbp),%rdx
    a042:	48 8b 45 f0          	mov    -0x10(%rbp),%rax
    a046:	48 01 d0             	add    %rdx,%rax
    a049:	5d                   	pop    %rbp
    a04a:	c3                   	retq   

000000000000a04b <safe_sub_func_uint64_t_u_u>:
    a04b:	f3 0f 1e fa          	endbr64 
    a04f:	55                   	push   %rbp
    a050:	48 89 e5             	mov    %rsp,%rbp
    a053:	48 89 7d f8          	mov    %rdi,-0x8(%rbp)
    a057:	48 89 75 f0          	mov    %rsi,-0x10(%rbp)
    a05b:	48 8b 45 f8          	mov    -0x8(%rbp),%rax
    a05f:	48 2b 45 f0          	sub    -0x10(%rbp),%rax
    a063:	5d                   	pop    %rbp
    a064:	c3                   	retq   

000000000000a065 <safe_mul_func_uint64_t_u_u>:
    a065:	f3 0f 1e fa          	endbr64 
    a069:	55                   	push   %rbp
    a06a:	48 89 e5             	mov    %rsp,%rbp
    a06d:	48 89 7d f8          	mov    %rdi,-0x8(%rbp)
    a071:	48 89 75 f0          	mov    %rsi,-0x10(%rbp)
    a075:	48 8b 45 f8          	mov    -0x8(%rbp),%rax
    a079:	48 0f af 45 f0       	imul   -0x10(%rbp),%rax
    a07e:	5d                   	pop    %rbp
    a07f:	c3                   	retq   

000000000000a080 <safe_mod_func_uint64_t_u_u>:
    a080:	f3 0f 1e fa          	endbr64 
    a084:	55                   	push   %rbp
    a085:	48 89 e5             	mov    %rsp,%rbp
    a088:	48 89 7d f8          	mov    %rdi,-0x8(%rbp)
    a08c:	48 89 75 f0          	mov    %rsi,-0x10(%rbp)
    a090:	48 83 7d f0 00       	cmpq   $0x0,-0x10(%rbp)
    a095:	74 12                	je     a0a9 <safe_mod_func_uint64_t_u_u+0x29>
    a097:	48 8b 45 f8          	mov    -0x8(%rbp),%rax
    a09b:	ba 00 00 00 00       	mov    $0x0,%edx
    a0a0:	48 f7 75 f0          	divq   -0x10(%rbp)
    a0a4:	48 89 d0             	mov    %rdx,%rax
    a0a7:	eb 04                	jmp    a0ad <safe_mod_func_uint64_t_u_u+0x2d>
    a0a9:	48 8b 45 f8          	mov    -0x8(%rbp),%rax
    a0ad:	5d                   	pop    %rbp
    a0ae:	c3                   	retq   

000000000000a0af <safe_div_func_uint64_t_u_u>:
    a0af:	f3 0f 1e fa          	endbr64 
    a0b3:	55                   	push   %rbp
    a0b4:	48 89 e5             	mov    %rsp,%rbp
    a0b7:	48 89 7d f8          	mov    %rdi,-0x8(%rbp)
    a0bb:	48 89 75 f0          	mov    %rsi,-0x10(%rbp)
    a0bf:	48 83 7d f0 00       	cmpq   $0x0,-0x10(%rbp)
    a0c4:	74 0f                	je     a0d5 <safe_div_func_uint64_t_u_u+0x26>
    a0c6:	48 8b 45 f8          	mov    -0x8(%rbp),%rax
    a0ca:	ba 00 00 00 00       	mov    $0x0,%edx
    a0cf:	48 f7 75 f0          	divq   -0x10(%rbp)
    a0d3:	eb 04                	jmp    a0d9 <safe_div_func_uint64_t_u_u+0x2a>
    a0d5:	48 8b 45 f8          	mov    -0x8(%rbp),%rax
    a0d9:	5d                   	pop    %rbp
    a0da:	c3                   	retq   

000000000000a0db <safe_lshift_func_uint64_t_u_s>:
    a0db:	f3 0f 1e fa          	endbr64 
    a0df:	55                   	push   %rbp
    a0e0:	48 89 e5             	mov    %rsp,%rbp
    a0e3:	48 89 7d f8          	mov    %rdi,-0x8(%rbp)
    a0e7:	89 75 f4             	mov    %esi,-0xc(%rbp)
    a0ea:	83 7d f4 00          	cmpl   $0x0,-0xc(%rbp)
    a0ee:	78 2f                	js     a11f <safe_lshift_func_uint64_t_u_s+0x44>
    a0f0:	83 7d f4 1f          	cmpl   $0x1f,-0xc(%rbp)
    a0f4:	7f 29                	jg     a11f <safe_lshift_func_uint64_t_u_s+0x44>
    a0f6:	8b 45 f4             	mov    -0xc(%rbp),%eax
    a0f9:	48 c7 c2 ff ff ff ff 	mov    $0xffffffffffffffff,%rdx
    a100:	89 c1                	mov    %eax,%ecx
    a102:	48 d3 ea             	shr    %cl,%rdx
    a105:	48 89 d0             	mov    %rdx,%rax
    a108:	48 39 45 f8          	cmp    %rax,-0x8(%rbp)
    a10c:	77 11                	ja     a11f <safe_lshift_func_uint64_t_u_s+0x44>
    a10e:	8b 45 f4             	mov    -0xc(%rbp),%eax
    a111:	48 8b 55 f8          	mov    -0x8(%rbp),%rdx
    a115:	89 c1                	mov    %eax,%ecx
    a117:	48 d3 e2             	shl    %cl,%rdx
    a11a:	48 89 d0             	mov    %rdx,%rax
    a11d:	eb 04                	jmp    a123 <safe_lshift_func_uint64_t_u_s+0x48>
    a11f:	48 8b 45 f8          	mov    -0x8(%rbp),%rax
    a123:	5d                   	pop    %rbp
    a124:	c3                   	retq   

000000000000a125 <safe_lshift_func_uint64_t_u_u>:
    a125:	f3 0f 1e fa          	endbr64 
    a129:	55                   	push   %rbp
    a12a:	48 89 e5             	mov    %rsp,%rbp
    a12d:	48 89 7d f8          	mov    %rdi,-0x8(%rbp)
    a131:	89 75 f4             	mov    %esi,-0xc(%rbp)
    a134:	83 7d f4 1f          	cmpl   $0x1f,-0xc(%rbp)
    a138:	77 29                	ja     a163 <safe_lshift_func_uint64_t_u_u+0x3e>
    a13a:	8b 45 f4             	mov    -0xc(%rbp),%eax
    a13d:	48 c7 c2 ff ff ff ff 	mov    $0xffffffffffffffff,%rdx
    a144:	89 c1                	mov    %eax,%ecx
    a146:	48 d3 ea             	shr    %cl,%rdx
    a149:	48 89 d0             	mov    %rdx,%rax
    a14c:	48 39 45 f8          	cmp    %rax,-0x8(%rbp)
    a150:	77 11                	ja     a163 <safe_lshift_func_uint64_t_u_u+0x3e>
    a152:	8b 45 f4             	mov    -0xc(%rbp),%eax
    a155:	48 8b 55 f8          	mov    -0x8(%rbp),%rdx
    a159:	89 c1                	mov    %eax,%ecx
    a15b:	48 d3 e2             	shl    %cl,%rdx
    a15e:	48 89 d0             	mov    %rdx,%rax
    a161:	eb 04                	jmp    a167 <safe_lshift_func_uint64_t_u_u+0x42>
    a163:	48 8b 45 f8          	mov    -0x8(%rbp),%rax
    a167:	5d                   	pop    %rbp
    a168:	c3                   	retq   

000000000000a169 <safe_rshift_func_uint64_t_u_s>:
    a169:	f3 0f 1e fa          	endbr64 
    a16d:	55                   	push   %rbp
    a16e:	48 89 e5             	mov    %rsp,%rbp
    a171:	48 89 7d f8          	mov    %rdi,-0x8(%rbp)
    a175:	89 75 f4             	mov    %esi,-0xc(%rbp)
    a178:	83 7d f4 00          	cmpl   $0x0,-0xc(%rbp)
    a17c:	78 17                	js     a195 <safe_rshift_func_uint64_t_u_s+0x2c>
    a17e:	83 7d f4 1f          	cmpl   $0x1f,-0xc(%rbp)
    a182:	7f 11                	jg     a195 <safe_rshift_func_uint64_t_u_s+0x2c>
    a184:	8b 45 f4             	mov    -0xc(%rbp),%eax
    a187:	48 8b 55 f8          	mov    -0x8(%rbp),%rdx
    a18b:	89 c1                	mov    %eax,%ecx
    a18d:	48 d3 ea             	shr    %cl,%rdx
    a190:	48 89 d0             	mov    %rdx,%rax
    a193:	eb 04                	jmp    a199 <safe_rshift_func_uint64_t_u_s+0x30>
    a195:	48 8b 45 f8          	mov    -0x8(%rbp),%rax
    a199:	5d                   	pop    %rbp
    a19a:	c3                   	retq   

000000000000a19b <safe_rshift_func_uint64_t_u_u>:
    a19b:	f3 0f 1e fa          	endbr64 
    a19f:	55                   	push   %rbp
    a1a0:	48 89 e5             	mov    %rsp,%rbp
    a1a3:	48 89 7d f8          	mov    %rdi,-0x8(%rbp)
    a1a7:	89 75 f4             	mov    %esi,-0xc(%rbp)
    a1aa:	83 7d f4 1f          	cmpl   $0x1f,-0xc(%rbp)
    a1ae:	77 11                	ja     a1c1 <safe_rshift_func_uint64_t_u_u+0x26>
    a1b0:	8b 45 f4             	mov    -0xc(%rbp),%eax
    a1b3:	48 8b 55 f8          	mov    -0x8(%rbp),%rdx
    a1b7:	89 c1                	mov    %eax,%ecx
    a1b9:	48 d3 ea             	shr    %cl,%rdx
    a1bc:	48 89 d0             	mov    %rdx,%rax
    a1bf:	eb 04                	jmp    a1c5 <safe_rshift_func_uint64_t_u_u+0x2a>
    a1c1:	48 8b 45 f8          	mov    -0x8(%rbp),%rax
    a1c5:	5d                   	pop    %rbp
    a1c6:	c3                   	retq   

000000000000a1c7 <safe_add_func_float_f_f>:
    a1c7:	f3 0f 1e fa          	endbr64 
    a1cb:	55                   	push   %rbp
    a1cc:	48 89 e5             	mov    %rsp,%rbp
    a1cf:	f3 0f 11 45 fc       	movss  %xmm0,-0x4(%rbp)
    a1d4:	f3 0f 11 4d f8       	movss  %xmm1,-0x8(%rbp)
    a1d9:	f3 0f 10 4d fc       	movss  -0x4(%rbp),%xmm1
    a1de:	f3 0f 10 05 ca 1a 01 	movss  0x11aca(%rip),%xmm0        # 1bcb0 <l_1348.5281+0x50>
    a1e5:	00 
    a1e6:	f3 0f 59 c8          	mulss  %xmm0,%xmm1
    a1ea:	f3 0f 10 55 f8       	movss  -0x8(%rbp),%xmm2
    a1ef:	f3 0f 10 05 b9 1a 01 	movss  0x11ab9(%rip),%xmm0        # 1bcb0 <l_1348.5281+0x50>
    a1f6:	00 
    a1f7:	f3 0f 59 c2          	mulss  %xmm2,%xmm0
    a1fb:	f3 0f 58 c1          	addss  %xmm1,%xmm0
    a1ff:	f3 0f 10 0d b9 1a 01 	movss  0x11ab9(%rip),%xmm1        # 1bcc0 <l_1348.5281+0x60>
    a206:	00 
    a207:	0f 54 c1             	andps  %xmm1,%xmm0
    a20a:	0f 2f 05 bf 1a 01 00 	comiss 0x11abf(%rip),%xmm0        # 1bcd0 <l_1348.5281+0x70>
    a211:	76 07                	jbe    a21a <safe_add_func_float_f_f+0x53>
    a213:	f3 0f 10 45 fc       	movss  -0x4(%rbp),%xmm0
    a218:	eb 0a                	jmp    a224 <safe_add_func_float_f_f+0x5d>
    a21a:	f3 0f 10 45 fc       	movss  -0x4(%rbp),%xmm0
    a21f:	f3 0f 58 45 f8       	addss  -0x8(%rbp),%xmm0
    a224:	5d                   	pop    %rbp
    a225:	c3                   	retq   

000000000000a226 <safe_sub_func_float_f_f>:
    a226:	f3 0f 1e fa          	endbr64 
    a22a:	55                   	push   %rbp
    a22b:	48 89 e5             	mov    %rsp,%rbp
    a22e:	f3 0f 11 45 fc       	movss  %xmm0,-0x4(%rbp)
    a233:	f3 0f 11 4d f8       	movss  %xmm1,-0x8(%rbp)
    a238:	f3 0f 10 4d fc       	movss  -0x4(%rbp),%xmm1
    a23d:	f3 0f 10 05 6b 1a 01 	movss  0x11a6b(%rip),%xmm0        # 1bcb0 <l_1348.5281+0x50>
    a244:	00 
    a245:	f3 0f 59 c1          	mulss  %xmm1,%xmm0
    a249:	f3 0f 10 55 f8       	movss  -0x8(%rbp),%xmm2
    a24e:	f3 0f 10 0d 5a 1a 01 	movss  0x11a5a(%rip),%xmm1        # 1bcb0 <l_1348.5281+0x50>
    a255:	00 
    a256:	f3 0f 59 ca          	mulss  %xmm2,%xmm1
    a25a:	f3 0f 5c c1          	subss  %xmm1,%xmm0
    a25e:	f3 0f 10 0d 5a 1a 01 	movss  0x11a5a(%rip),%xmm1        # 1bcc0 <l_1348.5281+0x60>
    a265:	00 
    a266:	0f 54 c1             	andps  %xmm1,%xmm0
    a269:	0f 2f 05 60 1a 01 00 	comiss 0x11a60(%rip),%xmm0        # 1bcd0 <l_1348.5281+0x70>
    a270:	76 07                	jbe    a279 <safe_sub_func_float_f_f+0x53>
    a272:	f3 0f 10 45 fc       	movss  -0x4(%rbp),%xmm0
    a277:	eb 0a                	jmp    a283 <safe_sub_func_float_f_f+0x5d>
    a279:	f3 0f 10 45 fc       	movss  -0x4(%rbp),%xmm0
    a27e:	f3 0f 5c 45 f8       	subss  -0x8(%rbp),%xmm0
    a283:	5d                   	pop    %rbp
    a284:	c3                   	retq   

000000000000a285 <safe_mul_func_float_f_f>:
    a285:	f3 0f 1e fa          	endbr64 
    a289:	55                   	push   %rbp
    a28a:	48 89 e5             	mov    %rsp,%rbp
    a28d:	f3 0f 11 45 fc       	movss  %xmm0,-0x4(%rbp)
    a292:	f3 0f 11 4d f8       	movss  %xmm1,-0x8(%rbp)
    a297:	f3 0f 10 4d fc       	movss  -0x4(%rbp),%xmm1
    a29c:	f3 0f 10 05 30 1a 01 	movss  0x11a30(%rip),%xmm0        # 1bcd4 <l_1348.5281+0x74>
    a2a3:	00 
    a2a4:	f3 0f 59 c8          	mulss  %xmm0,%xmm1
    a2a8:	f3 0f 10 55 f8       	movss  -0x8(%rbp),%xmm2
    a2ad:	f3 0f 10 05 23 1a 01 	movss  0x11a23(%rip),%xmm0        # 1bcd8 <l_1348.5281+0x78>
    a2b4:	00 
    a2b5:	f3 0f 59 c2          	mulss  %xmm2,%xmm0
    a2b9:	f3 0f 59 c1          	mulss  %xmm1,%xmm0
    a2bd:	f3 0f 10 0d fb 19 01 	movss  0x119fb(%rip),%xmm1        # 1bcc0 <l_1348.5281+0x60>
    a2c4:	00 
    a2c5:	0f 54 c1             	andps  %xmm1,%xmm0
    a2c8:	0f 2f 05 0d 1a 01 00 	comiss 0x11a0d(%rip),%xmm0        # 1bcdc <l_1348.5281+0x7c>
    a2cf:	76 07                	jbe    a2d8 <safe_mul_func_float_f_f+0x53>
    a2d1:	f3 0f 10 45 fc       	movss  -0x4(%rbp),%xmm0
    a2d6:	eb 0a                	jmp    a2e2 <safe_mul_func_float_f_f+0x5d>
    a2d8:	f3 0f 10 45 fc       	movss  -0x4(%rbp),%xmm0
    a2dd:	f3 0f 59 45 f8       	mulss  -0x8(%rbp),%xmm0
    a2e2:	5d                   	pop    %rbp
    a2e3:	c3                   	retq   

000000000000a2e4 <safe_div_func_float_f_f>:
    a2e4:	f3 0f 1e fa          	endbr64 
    a2e8:	55                   	push   %rbp
    a2e9:	48 89 e5             	mov    %rsp,%rbp
    a2ec:	f3 0f 11 45 fc       	movss  %xmm0,-0x4(%rbp)
    a2f1:	f3 0f 11 4d f8       	movss  %xmm1,-0x8(%rbp)
    a2f6:	f3 0f 10 45 f8       	movss  -0x8(%rbp),%xmm0
    a2fb:	f3 0f 10 0d bd 19 01 	movss  0x119bd(%rip),%xmm1        # 1bcc0 <l_1348.5281+0x60>
    a302:	00 
    a303:	0f 54 c8             	andps  %xmm0,%xmm1
    a306:	f3 0f 10 05 d2 19 01 	movss  0x119d2(%rip),%xmm0        # 1bce0 <l_1348.5281+0x80>
    a30d:	00 
    a30e:	0f 2f c1             	comiss %xmm1,%xmm0
    a311:	0f 97 c0             	seta   %al
    a314:	83 f0 01             	xor    $0x1,%eax
    a317:	84 c0                	test   %al,%al
    a319:	75 56                	jne    a371 <safe_div_func_float_f_f+0x8d>
    a31b:	66 0f ef c0          	pxor   %xmm0,%xmm0
    a31f:	0f 2e 45 f8          	ucomiss -0x8(%rbp),%xmm0
    a323:	7a 0a                	jp     a32f <safe_div_func_float_f_f+0x4b>
    a325:	66 0f ef c0          	pxor   %xmm0,%xmm0
    a329:	0f 2e 45 f8          	ucomiss -0x8(%rbp),%xmm0
    a32d:	74 4e                	je     a37d <safe_div_func_float_f_f+0x99>
    a32f:	f3 0f 10 4d fc       	movss  -0x4(%rbp),%xmm1
    a334:	f3 0f 10 05 a8 19 01 	movss  0x119a8(%rip),%xmm0        # 1bce4 <l_1348.5281+0x84>
    a33b:	00 
    a33c:	f3 0f 59 c1          	mulss  %xmm1,%xmm0
    a340:	f3 0f 10 55 f8       	movss  -0x8(%rbp),%xmm2
    a345:	f3 0f 10 0d 9b 19 01 	movss  0x1199b(%rip),%xmm1        # 1bce8 <l_1348.5281+0x88>
    a34c:	00 
    a34d:	f3 0f 59 ca          	mulss  %xmm2,%xmm1
    a351:	f3 0f 5e c1          	divss  %xmm1,%xmm0
    a355:	f3 0f 10 0d 63 19 01 	movss  0x11963(%rip),%xmm1        # 1bcc0 <l_1348.5281+0x60>
    a35c:	00 
    a35d:	0f 54 c1             	andps  %xmm1,%xmm0
    a360:	0f 2f 05 85 19 01 00 	comiss 0x11985(%rip),%xmm0        # 1bcec <l_1348.5281+0x8c>
    a367:	0f 97 c0             	seta   %al
    a36a:	83 f0 01             	xor    $0x1,%eax
    a36d:	84 c0                	test   %al,%al
    a36f:	74 0c                	je     a37d <safe_div_func_float_f_f+0x99>
    a371:	f3 0f 10 45 fc       	movss  -0x4(%rbp),%xmm0
    a376:	f3 0f 5e 45 f8       	divss  -0x8(%rbp),%xmm0
    a37b:	eb 05                	jmp    a382 <safe_div_func_float_f_f+0x9e>
    a37d:	f3 0f 10 45 fc       	movss  -0x4(%rbp),%xmm0
    a382:	5d                   	pop    %rbp
    a383:	c3                   	retq   

000000000000a384 <safe_add_func_double_f_f>:
    a384:	f3 0f 1e fa          	endbr64 
    a388:	55                   	push   %rbp
    a389:	48 89 e5             	mov    %rsp,%rbp
    a38c:	f2 0f 11 45 f8       	movsd  %xmm0,-0x8(%rbp)
    a391:	f2 0f 11 4d f0       	movsd  %xmm1,-0x10(%rbp)
    a396:	f2 0f 10 4d f8       	movsd  -0x8(%rbp),%xmm1
    a39b:	f2 0f 10 05 4d 19 01 	movsd  0x1194d(%rip),%xmm0        # 1bcf0 <l_1348.5281+0x90>
    a3a2:	00 
    a3a3:	f2 0f 59 c8          	mulsd  %xmm0,%xmm1
    a3a7:	f2 0f 10 55 f0       	movsd  -0x10(%rbp),%xmm2
    a3ac:	f2 0f 10 05 3c 19 01 	movsd  0x1193c(%rip),%xmm0        # 1bcf0 <l_1348.5281+0x90>
    a3b3:	00 
    a3b4:	f2 0f 59 c2          	mulsd  %xmm2,%xmm0
    a3b8:	f2 0f 58 c1          	addsd  %xmm1,%xmm0
    a3bc:	f3 0f 7e 0d 3c 19 01 	movq   0x1193c(%rip),%xmm1        # 1bd00 <l_1348.5281+0xa0>
    a3c3:	00 
    a3c4:	66 0f 54 c1          	andpd  %xmm1,%xmm0
    a3c8:	66 0f 2f 05 40 19 01 	comisd 0x11940(%rip),%xmm0        # 1bd10 <l_1348.5281+0xb0>
    a3cf:	00 
    a3d0:	76 07                	jbe    a3d9 <safe_add_func_double_f_f+0x55>
    a3d2:	f2 0f 10 45 f8       	movsd  -0x8(%rbp),%xmm0
    a3d7:	eb 0a                	jmp    a3e3 <safe_add_func_double_f_f+0x5f>
    a3d9:	f2 0f 10 45 f8       	movsd  -0x8(%rbp),%xmm0
    a3de:	f2 0f 58 45 f0       	addsd  -0x10(%rbp),%xmm0
    a3e3:	5d                   	pop    %rbp
    a3e4:	c3                   	retq   

000000000000a3e5 <safe_sub_func_double_f_f>:
    a3e5:	f3 0f 1e fa          	endbr64 
    a3e9:	55                   	push   %rbp
    a3ea:	48 89 e5             	mov    %rsp,%rbp
    a3ed:	f2 0f 11 45 f8       	movsd  %xmm0,-0x8(%rbp)
    a3f2:	f2 0f 11 4d f0       	movsd  %xmm1,-0x10(%rbp)
    a3f7:	f2 0f 10 4d f8       	movsd  -0x8(%rbp),%xmm1
    a3fc:	f2 0f 10 05 ec 18 01 	movsd  0x118ec(%rip),%xmm0        # 1bcf0 <l_1348.5281+0x90>
    a403:	00 
    a404:	f2 0f 59 c1          	mulsd  %xmm1,%xmm0
    a408:	f2 0f 10 55 f0       	movsd  -0x10(%rbp),%xmm2
    a40d:	f2 0f 10 0d db 18 01 	movsd  0x118db(%rip),%xmm1        # 1bcf0 <l_1348.5281+0x90>
    a414:	00 
    a415:	f2 0f 59 ca          	mulsd  %xmm2,%xmm1
    a419:	f2 0f 5c c1          	subsd  %xmm1,%xmm0
    a41d:	f3 0f 7e 0d db 18 01 	movq   0x118db(%rip),%xmm1        # 1bd00 <l_1348.5281+0xa0>
    a424:	00 
    a425:	66 0f 54 c1          	andpd  %xmm1,%xmm0
    a429:	66 0f 2f 05 df 18 01 	comisd 0x118df(%rip),%xmm0        # 1bd10 <l_1348.5281+0xb0>
    a430:	00 
    a431:	76 07                	jbe    a43a <safe_sub_func_double_f_f+0x55>
    a433:	f2 0f 10 45 f8       	movsd  -0x8(%rbp),%xmm0
    a438:	eb 0a                	jmp    a444 <safe_sub_func_double_f_f+0x5f>
    a43a:	f2 0f 10 45 f8       	movsd  -0x8(%rbp),%xmm0
    a43f:	f2 0f 5c 45 f0       	subsd  -0x10(%rbp),%xmm0
    a444:	5d                   	pop    %rbp
    a445:	c3                   	retq   

000000000000a446 <safe_mul_func_double_f_f>:
    a446:	f3 0f 1e fa          	endbr64 
    a44a:	55                   	push   %rbp
    a44b:	48 89 e5             	mov    %rsp,%rbp
    a44e:	f2 0f 11 45 f8       	movsd  %xmm0,-0x8(%rbp)
    a453:	f2 0f 11 4d f0       	movsd  %xmm1,-0x10(%rbp)
    a458:	f2 0f 10 4d f8       	movsd  -0x8(%rbp),%xmm1
    a45d:	f2 0f 10 05 b3 18 01 	movsd  0x118b3(%rip),%xmm0        # 1bd18 <l_1348.5281+0xb8>
    a464:	00 
    a465:	f2 0f 59 c8          	mulsd  %xmm0,%xmm1
    a469:	f2 0f 10 55 f0       	movsd  -0x10(%rbp),%xmm2
    a46e:	f2 0f 10 05 aa 18 01 	movsd  0x118aa(%rip),%xmm0        # 1bd20 <l_1348.5281+0xc0>
    a475:	00 
    a476:	f2 0f 59 c2          	mulsd  %xmm2,%xmm0
    a47a:	f2 0f 59 c1          	mulsd  %xmm1,%xmm0
    a47e:	f3 0f 7e 0d 7a 18 01 	movq   0x1187a(%rip),%xmm1        # 1bd00 <l_1348.5281+0xa0>
    a485:	00 
    a486:	66 0f 54 c1          	andpd  %xmm1,%xmm0
    a48a:	66 0f 2f 05 96 18 01 	comisd 0x11896(%rip),%xmm0        # 1bd28 <l_1348.5281+0xc8>
    a491:	00 
    a492:	76 07                	jbe    a49b <safe_mul_func_double_f_f+0x55>
    a494:	f2 0f 10 45 f8       	movsd  -0x8(%rbp),%xmm0
    a499:	eb 0a                	jmp    a4a5 <safe_mul_func_double_f_f+0x5f>
    a49b:	f2 0f 10 45 f8       	movsd  -0x8(%rbp),%xmm0
    a4a0:	f2 0f 59 45 f0       	mulsd  -0x10(%rbp),%xmm0
    a4a5:	5d                   	pop    %rbp
    a4a6:	c3                   	retq   

000000000000a4a7 <safe_div_func_double_f_f>:
    a4a7:	f3 0f 1e fa          	endbr64 
    a4ab:	55                   	push   %rbp
    a4ac:	48 89 e5             	mov    %rsp,%rbp
    a4af:	f2 0f 11 45 f8       	movsd  %xmm0,-0x8(%rbp)
    a4b4:	f2 0f 11 4d f0       	movsd  %xmm1,-0x10(%rbp)
    a4b9:	f2 0f 10 45 f0       	movsd  -0x10(%rbp),%xmm0
    a4be:	f3 0f 7e 0d 3a 18 01 	movq   0x1183a(%rip),%xmm1        # 1bd00 <l_1348.5281+0xa0>
    a4c5:	00 
    a4c6:	66 0f 54 c8          	andpd  %xmm0,%xmm1
    a4ca:	f2 0f 10 05 5e 18 01 	movsd  0x1185e(%rip),%xmm0        # 1bd30 <l_1348.5281+0xd0>
    a4d1:	00 
    a4d2:	66 0f 2f c1          	comisd %xmm1,%xmm0
    a4d6:	0f 97 c0             	seta   %al
    a4d9:	83 f0 01             	xor    $0x1,%eax
    a4dc:	84 c0                	test   %al,%al
    a4de:	75 5a                	jne    a53a <safe_div_func_double_f_f+0x93>
    a4e0:	66 0f ef c0          	pxor   %xmm0,%xmm0
    a4e4:	66 0f 2e 45 f0       	ucomisd -0x10(%rbp),%xmm0
    a4e9:	7a 0b                	jp     a4f6 <safe_div_func_double_f_f+0x4f>
    a4eb:	66 0f ef c0          	pxor   %xmm0,%xmm0
    a4ef:	66 0f 2e 45 f0       	ucomisd -0x10(%rbp),%xmm0
    a4f4:	74 50                	je     a546 <safe_div_func_double_f_f+0x9f>
    a4f6:	f2 0f 10 4d f8       	movsd  -0x8(%rbp),%xmm1
    a4fb:	f2 0f 10 05 35 18 01 	movsd  0x11835(%rip),%xmm0        # 1bd38 <l_1348.5281+0xd8>
    a502:	00 
    a503:	f2 0f 59 c1          	mulsd  %xmm1,%xmm0
    a507:	f2 0f 10 55 f0       	movsd  -0x10(%rbp),%xmm2
    a50c:	f2 0f 10 0d 2c 18 01 	movsd  0x1182c(%rip),%xmm1        # 1bd40 <l_1348.5281+0xe0>
    a513:	00 
    a514:	f2 0f 59 ca          	mulsd  %xmm2,%xmm1
    a518:	f2 0f 5e c1          	divsd  %xmm1,%xmm0
    a51c:	f3 0f 7e 0d dc 17 01 	movq   0x117dc(%rip),%xmm1        # 1bd00 <l_1348.5281+0xa0>
    a523:	00 
    a524:	66 0f 54 c1          	andpd  %xmm1,%xmm0
    a528:	66 0f 2f 05 18 18 01 	comisd 0x11818(%rip),%xmm0        # 1bd48 <l_1348.5281+0xe8>
    a52f:	00 
    a530:	0f 97 c0             	seta   %al
    a533:	83 f0 01             	xor    $0x1,%eax
    a536:	84 c0                	test   %al,%al
    a538:	74 0c                	je     a546 <safe_div_func_double_f_f+0x9f>
    a53a:	f2 0f 10 45 f8       	movsd  -0x8(%rbp),%xmm0
    a53f:	f2 0f 5e 45 f0       	divsd  -0x10(%rbp),%xmm0
    a544:	eb 05                	jmp    a54b <safe_div_func_double_f_f+0xa4>
    a546:	f2 0f 10 45 f8       	movsd  -0x8(%rbp),%xmm0
    a54b:	5d                   	pop    %rbp
    a54c:	c3                   	retq   

000000000000a54d <safe_convert_func_float_to_int32_t>:
    a54d:	f3 0f 1e fa          	endbr64 
    a551:	55                   	push   %rbp
    a552:	48 89 e5             	mov    %rsp,%rbp
    a555:	f3 0f 11 45 fc       	movss  %xmm0,-0x4(%rbp)
    a55a:	f3 0f 10 05 ee 17 01 	movss  0x117ee(%rip),%xmm0        # 1bd50 <l_1348.5281+0xf0>
    a561:	00 
    a562:	0f 2f 45 fc          	comiss -0x4(%rbp),%xmm0
    a566:	0f 93 c0             	setae  %al
    a569:	83 f0 01             	xor    $0x1,%eax
    a56c:	84 c0                	test   %al,%al
    a56e:	74 21                	je     a591 <safe_convert_func_float_to_int32_t+0x44>
    a570:	f3 0f 10 45 fc       	movss  -0x4(%rbp),%xmm0
    a575:	0f 2f 05 d8 17 01 00 	comiss 0x117d8(%rip),%xmm0        # 1bd54 <l_1348.5281+0xf4>
    a57c:	0f 93 c0             	setae  %al
    a57f:	83 f0 01             	xor    $0x1,%eax
    a582:	84 c0                	test   %al,%al
    a584:	74 0b                	je     a591 <safe_convert_func_float_to_int32_t+0x44>
    a586:	f3 0f 10 45 fc       	movss  -0x4(%rbp),%xmm0
    a58b:	f3 0f 2c c0          	cvttss2si %xmm0,%eax
    a58f:	eb 05                	jmp    a596 <safe_convert_func_float_to_int32_t+0x49>
    a591:	b8 ff ff ff 7f       	mov    $0x7fffffff,%eax
    a596:	5d                   	pop    %rbp
    a597:	c3                   	retq   

000000000000a598 <crc32_gentab>:
    a598:	f3 0f 1e fa          	endbr64 
    a59c:	55                   	push   %rbp
    a59d:	48 89 e5             	mov    %rsp,%rbp
    a5a0:	c7 45 fc 20 83 b8 ed 	movl   $0xedb88320,-0x4(%rbp)
    a5a7:	c7 45 f4 00 00 00 00 	movl   $0x0,-0xc(%rbp)
    a5ae:	eb 51                	jmp    a601 <crc32_gentab+0x69>
    a5b0:	8b 45 f4             	mov    -0xc(%rbp),%eax
    a5b3:	89 45 f0             	mov    %eax,-0x10(%rbp)
    a5b6:	c7 45 f8 08 00 00 00 	movl   $0x8,-0x8(%rbp)
    a5bd:	eb 1e                	jmp    a5dd <crc32_gentab+0x45>
    a5bf:	8b 45 f0             	mov    -0x10(%rbp),%eax
    a5c2:	83 e0 01             	and    $0x1,%eax
    a5c5:	85 c0                	test   %eax,%eax
    a5c7:	74 0d                	je     a5d6 <crc32_gentab+0x3e>
    a5c9:	8b 45 f0             	mov    -0x10(%rbp),%eax
    a5cc:	d1 e8                	shr    %eax
    a5ce:	33 45 fc             	xor    -0x4(%rbp),%eax
    a5d1:	89 45 f0             	mov    %eax,-0x10(%rbp)
    a5d4:	eb 03                	jmp    a5d9 <crc32_gentab+0x41>
    a5d6:	d1 6d f0             	shrl   -0x10(%rbp)
    a5d9:	83 6d f8 01          	subl   $0x1,-0x8(%rbp)
    a5dd:	83 7d f8 00          	cmpl   $0x0,-0x8(%rbp)
    a5e1:	7f dc                	jg     a5bf <crc32_gentab+0x27>
    a5e3:	8b 45 f4             	mov    -0xc(%rbp),%eax
    a5e6:	48 98                	cltq   
    a5e8:	48 8d 0c 85 00 00 00 	lea    0x0(,%rax,4),%rcx
    a5ef:	00 
    a5f0:	48 8d 15 89 82 01 00 	lea    0x18289(%rip),%rdx        # 22880 <crc32_tab>
    a5f7:	8b 45 f0             	mov    -0x10(%rbp),%eax
    a5fa:	89 04 11             	mov    %eax,(%rcx,%rdx,1)
    a5fd:	83 45 f4 01          	addl   $0x1,-0xc(%rbp)
    a601:	81 7d f4 ff 00 00 00 	cmpl   $0xff,-0xc(%rbp)
    a608:	7e a6                	jle    a5b0 <crc32_gentab+0x18>
    a60a:	90                   	nop
    a60b:	90                   	nop
    a60c:	5d                   	pop    %rbp
    a60d:	c3                   	retq   

000000000000a60e <crc32_byte>:
    a60e:	f3 0f 1e fa          	endbr64 
    a612:	55                   	push   %rbp
    a613:	48 89 e5             	mov    %rsp,%rbp
    a616:	89 f8                	mov    %edi,%eax
    a618:	88 45 fc             	mov    %al,-0x4(%rbp)
    a61b:	8b 05 ff 49 01 00    	mov    0x149ff(%rip),%eax        # 1f020 <crc32_context>
    a621:	c1 e8 08             	shr    $0x8,%eax
    a624:	89 c1                	mov    %eax,%ecx
    a626:	0f b6 55 fc          	movzbl -0x4(%rbp),%edx
    a62a:	8b 05 f0 49 01 00    	mov    0x149f0(%rip),%eax        # 1f020 <crc32_context>
    a630:	31 d0                	xor    %edx,%eax
    a632:	0f b6 c0             	movzbl %al,%eax
    a635:	89 c0                	mov    %eax,%eax
    a637:	48 8d 14 85 00 00 00 	lea    0x0(,%rax,4),%rdx
    a63e:	00 
    a63f:	48 8d 05 3a 82 01 00 	lea    0x1823a(%rip),%rax        # 22880 <crc32_tab>
    a646:	8b 04 02             	mov    (%rdx,%rax,1),%eax
    a649:	31 c8                	xor    %ecx,%eax
    a64b:	89 05 cf 49 01 00    	mov    %eax,0x149cf(%rip)        # 1f020 <crc32_context>
    a651:	90                   	nop
    a652:	5d                   	pop    %rbp
    a653:	c3                   	retq   

000000000000a654 <crc32_8bytes>:
    a654:	f3 0f 1e fa          	endbr64 
    a658:	55                   	push   %rbp
    a659:	48 89 e5             	mov    %rsp,%rbp
    a65c:	48 83 ec 08          	sub    $0x8,%rsp
    a660:	48 89 7d f8          	mov    %rdi,-0x8(%rbp)
    a664:	48 8b 45 f8          	mov    -0x8(%rbp),%rax
    a668:	0f b6 c0             	movzbl %al,%eax
    a66b:	89 c7                	mov    %eax,%edi
    a66d:	e8 9c ff ff ff       	callq  a60e <crc32_byte>
    a672:	48 8b 45 f8          	mov    -0x8(%rbp),%rax
    a676:	48 c1 e8 08          	shr    $0x8,%rax
    a67a:	0f b6 c0             	movzbl %al,%eax
    a67d:	89 c7                	mov    %eax,%edi
    a67f:	e8 8a ff ff ff       	callq  a60e <crc32_byte>
    a684:	48 8b 45 f8          	mov    -0x8(%rbp),%rax
    a688:	48 c1 e8 10          	shr    $0x10,%rax
    a68c:	0f b6 c0             	movzbl %al,%eax
    a68f:	89 c7                	mov    %eax,%edi
    a691:	e8 78 ff ff ff       	callq  a60e <crc32_byte>
    a696:	48 8b 45 f8          	mov    -0x8(%rbp),%rax
    a69a:	48 c1 e8 18          	shr    $0x18,%rax
    a69e:	0f b6 c0             	movzbl %al,%eax
    a6a1:	89 c7                	mov    %eax,%edi
    a6a3:	e8 66 ff ff ff       	callq  a60e <crc32_byte>
    a6a8:	48 8b 45 f8          	mov    -0x8(%rbp),%rax
    a6ac:	48 c1 e8 20          	shr    $0x20,%rax
    a6b0:	0f b6 c0             	movzbl %al,%eax
    a6b3:	89 c7                	mov    %eax,%edi
    a6b5:	e8 54 ff ff ff       	callq  a60e <crc32_byte>
    a6ba:	48 8b 45 f8          	mov    -0x8(%rbp),%rax
    a6be:	48 c1 e8 28          	shr    $0x28,%rax
    a6c2:	0f b6 c0             	movzbl %al,%eax
    a6c5:	89 c7                	mov    %eax,%edi
    a6c7:	e8 42 ff ff ff       	callq  a60e <crc32_byte>
    a6cc:	48 8b 45 f8          	mov    -0x8(%rbp),%rax
    a6d0:	48 c1 e8 30          	shr    $0x30,%rax
    a6d4:	0f b6 c0             	movzbl %al,%eax
    a6d7:	89 c7                	mov    %eax,%edi
    a6d9:	e8 30 ff ff ff       	callq  a60e <crc32_byte>
    a6de:	48 8b 45 f8          	mov    -0x8(%rbp),%rax
    a6e2:	48 c1 e8 38          	shr    $0x38,%rax
    a6e6:	0f b6 c0             	movzbl %al,%eax
    a6e9:	89 c7                	mov    %eax,%edi
    a6eb:	e8 1e ff ff ff       	callq  a60e <crc32_byte>
    a6f0:	90                   	nop
    a6f1:	c9                   	leaveq 
    a6f2:	c3                   	retq   

000000000000a6f3 <transparent_crc>:
    a6f3:	f3 0f 1e fa          	endbr64 
    a6f7:	55                   	push   %rbp
    a6f8:	48 89 e5             	mov    %rsp,%rbp
    a6fb:	48 83 ec 20          	sub    $0x20,%rsp
    a6ff:	48 89 7d f8          	mov    %rdi,-0x8(%rbp)
    a703:	48 89 75 f0          	mov    %rsi,-0x10(%rbp)
    a707:	89 55 ec             	mov    %edx,-0x14(%rbp)
    a70a:	48 8b 45 f8          	mov    -0x8(%rbp),%rax
    a70e:	48 89 c7             	mov    %rax,%rdi
    a711:	e8 3e ff ff ff       	callq  a654 <crc32_8bytes>
    a716:	83 7d ec 00          	cmpl   $0x0,-0x14(%rbp)
    a71a:	74 22                	je     a73e <transparent_crc+0x4b>
    a71c:	8b 05 fe 48 01 00    	mov    0x148fe(%rip),%eax        # 1f020 <crc32_context>
    a722:	f7 d0                	not    %eax
    a724:	89 c2                	mov    %eax,%edx
    a726:	48 8b 45 f0          	mov    -0x10(%rbp),%rax
    a72a:	48 89 c6             	mov    %rax,%rsi
    a72d:	48 8d 3d fc f8 00 00 	lea    0xf8fc(%rip),%rdi        # 1a030 <_IO_stdin_used+0x30>
    a734:	b8 00 00 00 00       	mov    $0x0,%eax
    a739:	e8 42 e9 ff ff       	callq  9080 <printf@plt>
    a73e:	90                   	nop
    a73f:	c9                   	leaveq 
    a740:	c3                   	retq   

000000000000a741 <transparent_crc_bytes>:
    a741:	f3 0f 1e fa          	endbr64 
    a745:	55                   	push   %rbp
    a746:	48 89 e5             	mov    %rsp,%rbp
    a749:	48 83 ec 30          	sub    $0x30,%rsp
    a74d:	48 89 7d e8          	mov    %rdi,-0x18(%rbp)
    a751:	89 75 e4             	mov    %esi,-0x1c(%rbp)
    a754:	48 89 55 d8          	mov    %rdx,-0x28(%rbp)
    a758:	89 4d e0             	mov    %ecx,-0x20(%rbp)
    a75b:	c7 45 fc 00 00 00 00 	movl   $0x0,-0x4(%rbp)
    a762:	eb 1e                	jmp    a782 <transparent_crc_bytes+0x41>
    a764:	8b 45 fc             	mov    -0x4(%rbp),%eax
    a767:	48 63 d0             	movslq %eax,%rdx
    a76a:	48 8b 45 e8          	mov    -0x18(%rbp),%rax
    a76e:	48 01 d0             	add    %rdx,%rax
    a771:	0f b6 00             	movzbl (%rax),%eax
    a774:	0f b6 c0             	movzbl %al,%eax
    a777:	89 c7                	mov    %eax,%edi
    a779:	e8 90 fe ff ff       	callq  a60e <crc32_byte>
    a77e:	83 45 fc 01          	addl   $0x1,-0x4(%rbp)
    a782:	8b 45 fc             	mov    -0x4(%rbp),%eax
    a785:	3b 45 e4             	cmp    -0x1c(%rbp),%eax
    a788:	7c da                	jl     a764 <transparent_crc_bytes+0x23>
    a78a:	83 7d e0 00          	cmpl   $0x0,-0x20(%rbp)
    a78e:	74 22                	je     a7b2 <transparent_crc_bytes+0x71>
    a790:	8b 05 8a 48 01 00    	mov    0x1488a(%rip),%eax        # 1f020 <crc32_context>
    a796:	f7 d0                	not    %eax
    a798:	89 c2                	mov    %eax,%edx
    a79a:	48 8b 45 d8          	mov    -0x28(%rbp),%rax
    a79e:	48 89 c6             	mov    %rax,%rsi
    a7a1:	48 8d 3d 88 f8 00 00 	lea    0xf888(%rip),%rdi        # 1a030 <_IO_stdin_used+0x30>
    a7a8:	b8 00 00 00 00       	mov    $0x0,%eax
    a7ad:	e8 ce e8 ff ff       	callq  9080 <printf@plt>
    a7b2:	90                   	nop
    a7b3:	c9                   	leaveq 
    a7b4:	c3                   	retq   

000000000000a7b5 <func_1>:
    a7b5:	f3 0f 1e fa          	endbr64 
    a7b9:	55                   	push   %rbp
    a7ba:	48 89 e5             	mov    %rsp,%rbp
    a7bd:	48 81 ec 00 10 00 00 	sub    $0x1000,%rsp
    a7c4:	48 83 0c 24 00       	orq    $0x0,(%rsp)
    a7c9:	48 81 ec 30 07 00 00 	sub    $0x730,%rsp
    a7d0:	64 48 8b 04 25 28 00 	mov    %fs:0x28,%rax
    a7d7:	00 00 
    a7d9:	48 89 45 f8          	mov    %rax,-0x8(%rbp)
    a7dd:	31 c0                	xor    %eax,%eax
    a7df:	48 8d 85 f0 f8 ff ff 	lea    -0x710(%rbp),%rax
    a7e6:	48 8d 15 13 4d 01 00 	lea    0x14d13(%rip),%rdx        # 1f500 <g_5275+0x180>
    a7ed:	b9 e0 00 00 00       	mov    $0xe0,%ecx
    a7f2:	48 89 c7             	mov    %rax,%rdi
    a7f5:	48 89 d6             	mov    %rdx,%rsi
    a7f8:	f3 48 a5             	rep movsq %ds:(%rsi),%es:(%rdi)
    a7fb:	48 8d 85 f0 f8 ff ff 	lea    -0x710(%rbp),%rax
    a802:	48 05 90 06 00 00    	add    $0x690,%rax
    a808:	48 89 85 e8 e9 ff ff 	mov    %rax,-0x1618(%rbp)
    a80f:	48 c7 85 88 e9 ff ff 	movq   $0x0,-0x1678(%rbp)
    a816:	00 00 00 00 
    a81a:	48 8d 85 88 e9 ff ff 	lea    -0x1678(%rbp),%rax
    a821:	48 89 85 90 e9 ff ff 	mov    %rax,-0x1670(%rbp)
    a828:	48 b8 63 d4 c0 72 54 	movabs $0x6637565472c0d463,%rax
    a82f:	56 37 66 
    a832:	48 89 85 f0 e9 ff ff 	mov    %rax,-0x1610(%rbp)
    a839:	48 8d 05 a8 76 01 00 	lea    0x176a8(%rip),%rax        # 21ee8 <g_953+0x128>
    a840:	48 89 85 f8 e9 ff ff 	mov    %rax,-0x1608(%rbp)
    a847:	48 8d 05 6a 49 01 00 	lea    0x1496a(%rip),%rax        # 1f1b8 <g_1284>
    a84e:	48 89 85 00 ea ff ff 	mov    %rax,-0x1600(%rbp)
    a855:	66 c7 85 e0 e8 ff ff 	movw   $0xa2cb,-0x1720(%rbp)
    a85c:	cb a2 
    a85e:	c6 85 d4 e8 ff ff d6 	movb   $0xd6,-0x172c(%rbp)
    a865:	c6 85 d5 e8 ff ff 04 	movb   $0x4,-0x172b(%rbp)
    a86c:	48 8d 05 7d 79 01 00 	lea    0x1797d(%rip),%rax        # 221f0 <g_1569>
    a873:	48 89 85 08 ea ff ff 	mov    %rax,-0x15f8(%rbp)
    a87a:	c7 85 b0 ed ff ff 00 	movl   $0x4000100,-0x1250(%rbp)
    a881:	01 00 04 
    a884:	66 c7 85 b4 ed ff ff 	movw   $0xf900,-0x124c(%rbp)
    a88b:	00 f9 
    a88d:	c6 85 b6 ed ff ff 01 	movb   $0x1,-0x124a(%rbp)
    a894:	c7 85 b7 ed ff ff 00 	movl   $0xff83ce00,-0x1249(%rbp)
    a89b:	ce 83 ff 
    a89e:	66 c7 85 bb ed ff ff 	movw   $0xfe05,-0x1245(%rbp)
    a8a5:	05 fe 
    a8a7:	c6 85 bd ed ff ff fe 	movb   $0xfe,-0x1243(%rbp)
    a8ae:	c7 85 be ed ff ff 01 	movl   $0x1fb0101,-0x1242(%rbp)
    a8b5:	01 fb 01 
    a8b8:	66 c7 85 c2 ed ff ff 	movw   $0x2f01,-0x123e(%rbp)
    a8bf:	01 2f 
    a8c1:	c6 85 c4 ed ff ff 00 	movb   $0x0,-0x123c(%rbp)
    a8c8:	c7 85 c5 ed ff ff 78 	movl   $0x5fc0878,-0x123b(%rbp)
    a8cf:	08 fc 05 
    a8d2:	66 c7 85 c9 ed ff ff 	movw   $0xa883,-0x1237(%rbp)
    a8d9:	83 a8 
    a8db:	c6 85 cb ed ff ff 08 	movb   $0x8,-0x1235(%rbp)
    a8e2:	c7 85 cc ed ff ff 01 	movl   $0xf8820001,-0x1234(%rbp)
    a8e9:	00 82 f8 
    a8ec:	66 c7 85 d0 ed ff ff 	movw   $0x101,-0x1230(%rbp)
    a8f3:	01 01 
    a8f5:	c6 85 d2 ed ff ff 4b 	movb   $0x4b,-0x122e(%rbp)
    a8fc:	c7 85 d3 ed ff ff 78 	movl   $0xfc000578,-0x122d(%rbp)
    a903:	05 00 fc 
    a906:	66 c7 85 d7 ed ff ff 	movw   $0xfc92,-0x1229(%rbp)
    a90d:	92 fc 
    a90f:	c6 85 d9 ed ff ff 00 	movb   $0x0,-0x1227(%rbp)
    a916:	c7 85 da ed ff ff 01 	movl   $0xff010101,-0x1226(%rbp)
    a91d:	01 01 ff 
    a920:	66 c7 85 de ed ff ff 	movw   $0x9100,-0x1222(%rbp)
    a927:	00 91 
    a929:	c6 85 e0 ed ff ff 2f 	movb   $0x2f,-0x1220(%rbp)
    a930:	c7 85 e1 ed ff ff 00 	movl   $0x1278300,-0x121f(%rbp)
    a937:	83 27 01 
    a93a:	66 c7 85 e5 ed ff ff 	movw   $0x6ace,-0x121b(%rbp)
    a941:	ce 6a 
    a943:	c6 85 e7 ed ff ff 05 	movb   $0x5,-0x1219(%rbp)
    a94a:	c7 85 e8 ed ff ff 00 	movl   $0xf7040100,-0x1218(%rbp)
    a951:	01 04 f7 
    a954:	66 c7 85 ec ed ff ff 	movw   $0x0,-0x1214(%rbp)
    a95b:	00 00 
    a95d:	c6 85 ee ed ff ff 01 	movb   $0x1,-0x1212(%rbp)
    a964:	c7 85 ef ed ff ff 00 	movl   $0x9200,-0x1211(%rbp)
    a96b:	92 00 00 
    a96e:	66 c7 85 f3 ed ff ff 	movw   $0x92,-0x120d(%rbp)
    a975:	92 00 
    a977:	c6 85 f5 ed ff ff ff 	movb   $0xff,-0x120b(%rbp)
    a97e:	c7 85 f6 ed ff ff 00 	movl   $0x4f70000,-0x120a(%rbp)
    a985:	00 f7 04 
    a988:	66 c7 85 fa ed ff ff 	movw   $0x1,-0x1206(%rbp)
    a98f:	01 00 
    a991:	c6 85 fc ed ff ff fc 	movb   $0xfc,-0x1204(%rbp)
    a998:	c7 85 fd ed ff ff 6a 	movl   $0x2701ce6a,-0x1203(%rbp)
    a99f:	ce 01 27 
    a9a2:	66 c7 85 01 ee ff ff 	movw   $0x83,-0x11ff(%rbp)
    a9a9:	83 00 
    a9ab:	c6 85 03 ee ff ff fe 	movb   $0xfe,-0x11fd(%rbp)
    a9b2:	c7 85 04 ee ff ff 91 	movl   $0x1ff0091,-0x11fc(%rbp)
    a9b9:	00 ff 01 
    a9bc:	66 c7 85 08 ee ff ff 	movw   $0x101,-0x11f8(%rbp)
    a9c3:	01 01 
    a9c5:	c6 85 0a ee ff ff 01 	movb   $0x1,-0x11f6(%rbp)
    a9cc:	c7 85 0b ee ff ff fc 	movl   $0xfc92fc,-0x11f5(%rbp)
    a9d3:	92 fc 00 
    a9d6:	66 c7 85 0f ee ff ff 	movw   $0x7805,-0x11f1(%rbp)
    a9dd:	05 78 
    a9df:	c6 85 11 ee ff ff 92 	movb   $0x92,-0x11ef(%rbp)
    a9e6:	c7 85 12 ee ff ff 01 	movl   $0x82f80101,-0x11ee(%rbp)
    a9ed:	01 f8 82 
    a9f0:	66 c7 85 16 ee ff ff 	movw   $0x100,-0x11ea(%rbp)
    a9f7:	00 01 
    a9f9:	c6 85 18 ee ff ff 03 	movb   $0x3,-0x11e8(%rbp)
    aa00:	c7 85 19 ee ff ff a8 	movl   $0xfc0583a8,-0x11e7(%rbp)
    aa07:	83 05 fc 
    aa0a:	66 c7 85 1d ee ff ff 	movw   $0x7808,-0x11e3(%rbp)
    aa11:	08 78 
    aa13:	c6 85 1f ee ff ff 01 	movb   $0x1,-0x11e1(%rbp)
    aa1a:	48 8d 05 59 46 01 00 	lea    0x14659(%rip),%rax        # 1f07a <g_159>
    aa21:	48 89 85 98 e9 ff ff 	mov    %rax,-0x1668(%rbp)
    aa28:	48 8d 85 98 e9 ff ff 	lea    -0x1668(%rbp),%rax
    aa2f:	48 89 85 a0 e9 ff ff 	mov    %rax,-0x1660(%rbp)
    aa36:	48 8d 85 a0 e9 ff ff 	lea    -0x1660(%rbp),%rax
    aa3d:	48 89 85 10 ea ff ff 	mov    %rax,-0x15f0(%rbp)
    aa44:	48 c7 85 a8 e9 ff ff 	movq   $0xfffffffffffffff6,-0x1658(%rbp)
    aa4b:	f6 ff ff ff 
    aa4f:	c7 85 50 ec ff ff 01 	movl   $0x1,-0x13b0(%rbp)
    aa56:	00 00 00 
    aa59:	c7 85 54 ec ff ff 01 	movl   $0x1,-0x13ac(%rbp)
    aa60:	00 00 00 
    aa63:	c7 85 58 ec ff ff 79 	movl   $0x50399779,-0x13a8(%rbp)
    aa6a:	97 39 50 
    aa6d:	c7 85 5c ec ff ff 00 	movl   $0x0,-0x13a4(%rbp)
    aa74:	00 00 00 
    aa77:	c7 85 60 ec ff ff 79 	movl   $0x50399779,-0x13a0(%rbp)
    aa7e:	97 39 50 
    aa81:	c7 85 64 ec ff ff 79 	movl   $0x50399779,-0x139c(%rbp)
    aa88:	97 39 50 
    aa8b:	c7 85 68 ec ff ff 79 	movl   $0x50399779,-0x1398(%rbp)
    aa92:	97 39 50 
    aa95:	c7 85 6c ec ff ff 01 	movl   $0x1,-0x1394(%rbp)
    aa9c:	00 00 00 
    aa9f:	c7 85 70 ec ff ff a8 	movl   $0xafd64fa8,-0x1390(%rbp)
    aaa6:	4f d6 af 
    aaa9:	c7 85 74 ec ff ff 00 	movl   $0x0,-0x138c(%rbp)
    aab0:	00 00 00 
    aab3:	c7 85 78 ec ff ff 01 	movl   $0x1,-0x1388(%rbp)
    aaba:	00 00 00 
    aabd:	c7 85 7c ec ff ff 00 	movl   $0x0,-0x1384(%rbp)
    aac4:	00 00 00 
    aac7:	66 c7 85 e2 e8 ff ff 	movw   $0x0,-0x171e(%rbp)
    aace:	00 00 
    aad0:	48 8d 85 80 f0 ff ff 	lea    -0xf80(%rbp),%rax
    aad7:	48 8d 15 a2 f5 00 00 	lea    0xf5a2(%rip),%rdx        # 1a080 <g_5313+0xc>
    aade:	b9 36 00 00 00       	mov    $0x36,%ecx
    aae3:	48 89 c7             	mov    %rax,%rdi
    aae6:	48 89 d6             	mov    %rdx,%rsi
    aae9:	f3 48 a5             	rep movsq %ds:(%rsi),%es:(%rdi)
    aaec:	48 8d 05 a5 77 01 00 	lea    0x177a5(%rip),%rax        # 22298 <g_2189>
    aaf3:	48 89 85 18 ea ff ff 	mov    %rax,-0x15e8(%rbp)
    aafa:	48 8d 05 17 46 01 00 	lea    0x14617(%rip),%rax        # 1f118 <g_675+0x8>
    ab01:	48 89 85 b0 e9 ff ff 	mov    %rax,-0x1650(%rbp)
    ab08:	48 8d 85 b0 e9 ff ff 	lea    -0x1650(%rbp),%rax
    ab0f:	48 89 85 b8 e9 ff ff 	mov    %rax,-0x1648(%rbp)
    ab16:	48 8d 85 b8 e9 ff ff 	lea    -0x1648(%rbp),%rax
    ab1d:	48 89 85 20 ea ff ff 	mov    %rax,-0x15e0(%rbp)
    ab24:	c7 85 10 e9 ff ff ea 	movl   $0xf3b188ea,-0x16f0(%rbp)
    ab2b:	88 b1 f3 
    ab2e:	48 8d 05 73 72 01 00 	lea    0x17273(%rip),%rax        # 21da8 <g_906>
    ab35:	48 89 85 c0 e9 ff ff 	mov    %rax,-0x1640(%rbp)
    ab3c:	48 8d 85 c0 e9 ff ff 	lea    -0x1640(%rbp),%rax
    ab43:	48 89 85 28 ea ff ff 	mov    %rax,-0x15d8(%rbp)
    ab4a:	48 c7 85 30 ea ff ff 	movq   $0x0,-0x15d0(%rbp)
    ab51:	00 00 00 00 
    ab55:	c7 85 14 e9 ff ff 28 	movl   $0xf846e128,-0x16ec(%rbp)
    ab5c:	e1 46 f8 
    ab5f:	48 8d 05 a6 46 01 00 	lea    0x146a6(%rip),%rax        # 1f20c <g_4078>
    ab66:	48 89 85 38 ea ff ff 	mov    %rax,-0x15c8(%rbp)
    ab6d:	c6 85 d6 e8 ff ff df 	movb   $0xdf,-0x172a(%rbp)
    ab74:	c7 85 18 e9 ff ff 01 	movl   $0x1,-0x16e8(%rbp)
    ab7b:	00 00 00 
    ab7e:	48 8d 05 43 79 01 00 	lea    0x17943(%rip),%rax        # 224c8 <g_3661>
    ab85:	48 89 85 20 ee ff ff 	mov    %rax,-0x11e0(%rbp)
    ab8c:	48 8d 05 35 79 01 00 	lea    0x17935(%rip),%rax        # 224c8 <g_3661>
    ab93:	48 89 85 28 ee ff ff 	mov    %rax,-0x11d8(%rbp)
    ab9a:	48 8d 05 27 79 01 00 	lea    0x17927(%rip),%rax        # 224c8 <g_3661>
    aba1:	48 89 85 30 ee ff ff 	mov    %rax,-0x11d0(%rbp)
    aba8:	48 8d 05 19 79 01 00 	lea    0x17919(%rip),%rax        # 224c8 <g_3661>
    abaf:	48 89 85 38 ee ff ff 	mov    %rax,-0x11c8(%rbp)
    abb6:	48 8d 05 0b 79 01 00 	lea    0x1790b(%rip),%rax        # 224c8 <g_3661>
    abbd:	48 89 85 40 ee ff ff 	mov    %rax,-0x11c0(%rbp)
    abc4:	48 8d 05 fd 78 01 00 	lea    0x178fd(%rip),%rax        # 224c8 <g_3661>
    abcb:	48 89 85 48 ee ff ff 	mov    %rax,-0x11b8(%rbp)
    abd2:	48 8d 05 ef 78 01 00 	lea    0x178ef(%rip),%rax        # 224c8 <g_3661>
    abd9:	48 89 85 50 ee ff ff 	mov    %rax,-0x11b0(%rbp)
    abe0:	48 8d 05 e1 78 01 00 	lea    0x178e1(%rip),%rax        # 224c8 <g_3661>
    abe7:	48 89 85 58 ee ff ff 	mov    %rax,-0x11a8(%rbp)
    abee:	48 8d 05 d3 78 01 00 	lea    0x178d3(%rip),%rax        # 224c8 <g_3661>
    abf5:	48 89 85 60 ee ff ff 	mov    %rax,-0x11a0(%rbp)
    abfc:	48 8d 05 c5 78 01 00 	lea    0x178c5(%rip),%rax        # 224c8 <g_3661>
    ac03:	48 89 85 68 ee ff ff 	mov    %rax,-0x1198(%rbp)
    ac0a:	48 8d 05 b7 78 01 00 	lea    0x178b7(%rip),%rax        # 224c8 <g_3661>
    ac11:	48 89 85 70 ee ff ff 	mov    %rax,-0x1190(%rbp)
    ac18:	48 8d 05 a9 78 01 00 	lea    0x178a9(%rip),%rax        # 224c8 <g_3661>
    ac1f:	48 89 85 78 ee ff ff 	mov    %rax,-0x1188(%rbp)
    ac26:	48 8d 05 9b 78 01 00 	lea    0x1789b(%rip),%rax        # 224c8 <g_3661>
    ac2d:	48 89 85 80 ee ff ff 	mov    %rax,-0x1180(%rbp)
    ac34:	48 8d 05 8d 78 01 00 	lea    0x1788d(%rip),%rax        # 224c8 <g_3661>
    ac3b:	48 89 85 88 ee ff ff 	mov    %rax,-0x1178(%rbp)
    ac42:	48 8d 05 7f 78 01 00 	lea    0x1787f(%rip),%rax        # 224c8 <g_3661>
    ac49:	48 89 85 90 ee ff ff 	mov    %rax,-0x1170(%rbp)
    ac50:	48 8d 05 71 78 01 00 	lea    0x17871(%rip),%rax        # 224c8 <g_3661>
    ac57:	48 89 85 98 ee ff ff 	mov    %rax,-0x1168(%rbp)
    ac5e:	48 8d 85 20 ee ff ff 	lea    -0x11e0(%rbp),%rax
    ac65:	48 83 c0 68          	add    $0x68,%rax
    ac69:	48 89 85 40 ea ff ff 	mov    %rax,-0x15c0(%rbp)
    ac70:	48 c7 85 48 ea ff ff 	movq   $0x7,-0x15b8(%rbp)
    ac77:	07 00 00 00 
    ac7b:	48 b8 9b 88 5e cf 09 	movabs $0xfd7c909cf5e889b,%rax
    ac82:	c9 d7 0f 
    ac85:	48 89 85 50 ea ff ff 	mov    %rax,-0x15b0(%rbp)
    ac8c:	66 c7 85 e4 e8 ff ff 	movw   $0x59d9,-0x171c(%rbp)
    ac93:	d9 59 
    ac95:	48 8d 05 14 76 01 00 	lea    0x17614(%rip),%rax        # 222b0 <g_2259>
    ac9c:	48 89 85 58 ea ff ff 	mov    %rax,-0x15a8(%rbp)
    aca3:	48 8d 05 de 7f 01 00 	lea    0x17fde(%rip),%rax        # 22c88 <g_3>
    acaa:	48 89 85 60 ea ff ff 	mov    %rax,-0x15a0(%rbp)
    acb1:	48 b8 55 33 8b b3 6d 	movabs $0xfaa4266db38b3355,%rax
    acb8:	26 a4 fa 
    acbb:	48 89 85 68 ea ff ff 	mov    %rax,-0x1598(%rbp)
    acc2:	48 c7 85 70 ea ff ff 	movq   $0xffffffffffffffff,-0x1590(%rbp)
    acc9:	ff ff ff ff 
    accd:	48 b8 ea a1 14 8e de 	movabs $0xb48e2dde8e14a1ea,%rax
    acd4:	2d 8e b4 
    acd7:	48 89 85 80 ec ff ff 	mov    %rax,-0x1380(%rbp)
    acde:	48 89 85 88 ec ff ff 	mov    %rax,-0x1378(%rbp)
    ace5:	48 c7 85 90 ec ff ff 	movq   $0x5,-0x1370(%rbp)
    acec:	05 00 00 00 
    acf0:	48 89 85 98 ec ff ff 	mov    %rax,-0x1368(%rbp)
    acf7:	48 89 85 a0 ec ff ff 	mov    %rax,-0x1360(%rbp)
    acfe:	48 c7 85 a8 ec ff ff 	movq   $0x5,-0x1358(%rbp)
    ad05:	05 00 00 00 
    ad09:	c7 85 1c e9 ff ff 08 	movl   $0x8,-0x16e4(%rbp)
    ad10:	00 00 00 
    ad13:	c6 85 d7 e8 ff ff a9 	movb   $0xa9,-0x1729(%rbp)
    ad1a:	66 c7 85 e6 e8 ff ff 	movw   $0x1,-0x171a(%rbp)
    ad21:	01 00 
    ad23:	48 c7 85 c8 e9 ff ff 	movq   $0x0,-0x1638(%rbp)
    ad2a:	00 00 00 00 
    ad2e:	48 8d 85 c8 e9 ff ff 	lea    -0x1638(%rbp),%rax
    ad35:	48 89 85 78 ea ff ff 	mov    %rax,-0x1588(%rbp)
    ad3c:	c7 85 20 e9 ff ff 6b 	movl   $0xfa3ed26b,-0x16e0(%rbp)
    ad43:	d2 3e fa 
    ad46:	66 c7 85 e8 e8 ff ff 	movw   $0xdecf,-0x1718(%rbp)
    ad4d:	cf de 
    ad4f:	c7 85 24 e9 ff ff ad 	movl   $0x76c8cbad,-0x16dc(%rbp)
    ad56:	cb c8 76 
    ad59:	48 b8 2e 45 d9 22 e2 	movabs $0x62a91e222d9452e,%rax
    ad60:	91 2a 06 
    ad63:	48 89 85 d0 eb ff ff 	mov    %rax,-0x1430(%rbp)
    ad6a:	48 89 85 d8 eb ff ff 	mov    %rax,-0x1428(%rbp)
    ad71:	48 89 85 e0 eb ff ff 	mov    %rax,-0x1420(%rbp)
    ad78:	48 89 85 e8 eb ff ff 	mov    %rax,-0x1418(%rbp)
    ad7f:	66 c7 85 ea e8 ff ff 	movw   $0x20d8,-0x1716(%rbp)
    ad86:	d8 20 
    ad88:	48 8d 05 f1 42 01 00 	lea    0x142f1(%rip),%rax        # 1f080 <g_237>
    ad8f:	48 89 85 80 ea ff ff 	mov    %rax,-0x1580(%rbp)
    ad96:	48 b8 50 d7 f7 59 5a 	movabs $0x42f5685a59f7d750,%rax
    ad9d:	68 f5 42 
    ada0:	48 89 85 88 ea ff ff 	mov    %rax,-0x1578(%rbp)
    ada7:	48 8d 05 fa 6f 01 00 	lea    0x16ffa(%rip),%rax        # 21da8 <g_906>
    adae:	48 89 85 90 ea ff ff 	mov    %rax,-0x1570(%rbp)
    adb5:	c7 85 28 e9 ff ff f9 	movl   $0xfffffff9,-0x16d8(%rbp)
    adbc:	ff ff ff 
    adbf:	66 c7 85 ec e8 ff ff 	movw   $0x636e,-0x1714(%rbp)
    adc6:	6e 63 
    adc8:	48 c7 85 98 ea ff ff 	movq   $0xfffffffffffffff9,-0x1568(%rbp)
    adcf:	f9 ff ff ff 
    add3:	c7 85 f0 eb ff ff ff 	movl   $0xffffffff,-0x1410(%rbp)
    adda:	ff ff ff 
    addd:	c7 85 f4 eb ff ff ff 	movl   $0xffffffff,-0x140c(%rbp)
    ade4:	ff ff ff 
    ade7:	c7 85 f8 eb ff ff ff 	movl   $0xffffffff,-0x1408(%rbp)
    adee:	ff ff ff 
    adf1:	c7 85 fc eb ff ff ff 	movl   $0xffffffff,-0x1404(%rbp)
    adf8:	ff ff ff 
    adfb:	c7 85 00 ec ff ff ff 	movl   $0xffffffff,-0x1400(%rbp)
    ae02:	ff ff ff 
    ae05:	c7 85 04 ec ff ff ff 	movl   $0xffffffff,-0x13fc(%rbp)
    ae0c:	ff ff ff 
    ae0f:	c7 85 08 ec ff ff ff 	movl   $0xffffffff,-0x13f8(%rbp)
    ae16:	ff ff ff 
    ae19:	c7 85 0c ec ff ff ff 	movl   $0xffffffff,-0x13f4(%rbp)
    ae20:	ff ff ff 
    ae23:	c7 85 10 ec ff ff ff 	movl   $0xffffffff,-0x13f0(%rbp)
    ae2a:	ff ff ff 
    ae2d:	c7 85 14 ec ff ff ff 	movl   $0xffffffff,-0x13ec(%rbp)
    ae34:	ff ff ff 
    ae37:	c7 85 2c e9 ff ff bc 	movl   $0xdb93a7bc,-0x16d4(%rbp)
    ae3e:	a7 93 db 
    ae41:	48 b8 10 2c 3a 98 19 	movabs $0xd5ce2319983a2c10,%rax
    ae48:	23 ce d5 
    ae4b:	48 89 85 a0 ea ff ff 	mov    %rax,-0x1560(%rbp)
    ae52:	c7 85 30 e9 ff ff 59 	movl   $0x7c0bd759,-0x16d0(%rbp)
    ae59:	d7 0b 7c 
    ae5c:	c7 85 34 e9 ff ff 02 	movl   $0xacb0aa02,-0x16cc(%rbp)
    ae63:	aa b0 ac 
    ae66:	c6 85 d8 e8 ff ff df 	movb   $0xdf,-0x1728(%rbp)
    ae6d:	c7 85 38 e9 ff ff 01 	movl   $0x1,-0x16c8(%rbp)
    ae74:	00 00 00 
    ae77:	48 8d 05 ca 7e 01 00 	lea    0x17eca(%rip),%rax        # 22d48 <g_3490>
    ae7e:	48 89 85 a8 ea ff ff 	mov    %rax,-0x1558(%rbp)
    ae85:	48 8d 05 fc 42 01 00 	lea    0x142fc(%rip),%rax        # 1f188 <g_864+0x68>
    ae8c:	48 89 85 b0 ea ff ff 	mov    %rax,-0x1550(%rbp)
    ae93:	c7 85 3c e9 ff ff ff 	movl   $0xffffffff,-0x16c4(%rbp)
    ae9a:	ff ff ff 
    ae9d:	c6 85 d9 e8 ff ff ab 	movb   $0xab,-0x1727(%rbp)
    aea4:	c7 85 80 ef ff ff fe 	movl   $0xfffffffe,-0x1080(%rbp)
    aeab:	ff ff ff 
    aeae:	c7 85 84 ef ff ff c9 	movl   $0x2d24f9c9,-0x107c(%rbp)
    aeb5:	f9 24 2d 
    aeb8:	c7 85 88 ef ff ff 00 	movl   $0xf94c7c00,-0x1078(%rbp)
    aebf:	7c 4c f9 
    aec2:	c7 85 8c ef ff ff 06 	movl   $0x6,-0x1074(%rbp)
    aec9:	00 00 00 
    aecc:	c7 85 90 ef ff ff ff 	movl   $0xffffffff,-0x1070(%rbp)
    aed3:	ff ff ff 
    aed6:	c7 85 94 ef ff ff 01 	movl   $0x1,-0x106c(%rbp)
    aedd:	00 00 00 
    aee0:	c7 85 98 ef ff ff 6a 	movl   $0xb06a696a,-0x1068(%rbp)
    aee7:	69 6a b0 
    aeea:	c7 85 9c ef ff ff f5 	movl   $0x11e70f5,-0x1064(%rbp)
    aef1:	70 1e 01 
    aef4:	c7 85 a0 ef ff ff 35 	movl   $0x13077335,-0x1060(%rbp)
    aefb:	73 07 13 
    aefe:	c7 85 a4 ef ff ff 08 	movl   $0x8,-0x105c(%rbp)
    af05:	00 00 00 
    af08:	c7 85 a8 ef ff ff 06 	movl   $0x6,-0x1058(%rbp)
    af0f:	00 00 00 
    af12:	c7 85 ac ef ff ff ff 	movl   $0xffffffff,-0x1054(%rbp)
    af19:	ff ff ff 
    af1c:	c7 85 b0 ef ff ff fe 	movl   $0xfffffffe,-0x1050(%rbp)
    af23:	ff ff ff 
    af26:	c7 85 b4 ef ff ff f5 	movl   $0x11e70f5,-0x104c(%rbp)
    af2d:	70 1e 01 
    af30:	c7 85 b8 ef ff ff fe 	movl   $0xfffffffe,-0x1048(%rbp)
    af37:	ff ff ff 
    af3a:	c7 85 bc ef ff ff 00 	movl   $0xf94c7c00,-0x1044(%rbp)
    af41:	7c 4c f9 
    af44:	c7 85 c0 ef ff ff c9 	movl   $0x2d24f9c9,-0x1040(%rbp)
    af4b:	f9 24 2d 
    af4e:	c7 85 c4 ef ff ff 29 	movl   $0x93068929,-0x103c(%rbp)
    af55:	89 06 93 
    af58:	c7 85 c8 ef ff ff 90 	movl   $0x3d4ab690,-0x1038(%rbp)
    af5f:	b6 4a 3d 
    af62:	c7 85 cc ef ff ff 35 	movl   $0x13077335,-0x1034(%rbp)
    af69:	73 07 13 
    af6c:	c7 85 d0 ef ff ff 29 	movl   $0x93068929,-0x1030(%rbp)
    af73:	89 06 93 
    af76:	c7 85 d4 ef ff ff 08 	movl   $0x8,-0x102c(%rbp)
    af7d:	00 00 00 
    af80:	c7 85 d8 ef ff ff 00 	movl   $0x0,-0x1028(%rbp)
    af87:	00 00 00 
    af8a:	c7 85 dc ef ff ff 29 	movl   $0x93068929,-0x1024(%rbp)
    af91:	89 06 93 
    af94:	c7 85 e0 ef ff ff 02 	movl   $0x2,-0x1020(%rbp)
    af9b:	00 00 00 
    af9e:	c7 85 e4 ef ff ff ff 	movl   $0xffffffff,-0x101c(%rbp)
    afa5:	ff ff ff 
    afa8:	c7 85 e8 ef ff ff 00 	movl   $0x0,-0x1018(%rbp)
    afaf:	00 00 00 
    afb2:	c7 85 ec ef ff ff 06 	movl   $0x6,-0x1014(%rbp)
    afb9:	00 00 00 
    afbc:	c7 85 f0 ef ff ff 29 	movl   $0x93068929,-0x1010(%rbp)
    afc3:	89 06 93 
    afc6:	c7 85 f4 ef ff ff c1 	movl   $0x37b86ac1,-0x100c(%rbp)
    afcd:	6a b8 37 
    afd0:	c7 85 f8 ef ff ff 90 	movl   $0x3d4ab690,-0x1008(%rbp)
    afd7:	b6 4a 3d 
    afda:	c7 85 fc ef ff ff c9 	movl   $0x2d24f9c9,-0x1004(%rbp)
    afe1:	f9 24 2d 
    afe4:	c7 85 00 f0 ff ff c9 	movl   $0x2d24f9c9,-0x1000(%rbp)
    afeb:	f9 24 2d 
    afee:	c7 85 04 f0 ff ff 00 	movl   $0x0,-0xffc(%rbp)
    aff5:	00 00 00 
    aff8:	c7 85 08 f0 ff ff fe 	movl   $0xfffffffe,-0xff8(%rbp)
    afff:	ff ff ff 
    b002:	c7 85 0c f0 ff ff cb 	movl   $0x27757cb,-0xff4(%rbp)
    b009:	57 77 02 
    b00c:	c7 85 10 f0 ff ff fe 	movl   $0xfffffffe,-0xff0(%rbp)
    b013:	ff ff ff 
    b016:	c7 85 14 f0 ff ff cb 	movl   $0x27757cb,-0xfec(%rbp)
    b01d:	57 77 02 
    b020:	c7 85 18 f0 ff ff 06 	movl   $0x6,-0xfe8(%rbp)
    b027:	00 00 00 
    b02a:	c7 85 1c f0 ff ff 06 	movl   $0x6,-0xfe4(%rbp)
    b031:	00 00 00 
    b034:	c7 85 20 f0 ff ff 35 	movl   $0x13077335,-0xfe0(%rbp)
    b03b:	73 07 13 
    b03e:	c7 85 24 f0 ff ff 35 	movl   $0x13077335,-0xfdc(%rbp)
    b045:	73 07 13 
    b048:	c7 85 28 f0 ff ff 6a 	movl   $0xb06a696a,-0xfd8(%rbp)
    b04f:	69 6a b0 
    b052:	c7 85 2c f0 ff ff 64 	movl   $0x735dbc64,-0xfd4(%rbp)
    b059:	bc 5d 73 
    b05c:	c7 85 30 f0 ff ff ff 	movl   $0xffffffff,-0xfd0(%rbp)
    b063:	ff ff ff 
    b066:	c7 85 34 f0 ff ff 08 	movl   $0x8,-0xfcc(%rbp)
    b06d:	00 00 00 
    b070:	c7 85 38 f0 ff ff 00 	movl   $0xf94c7c00,-0xfc8(%rbp)
    b077:	7c 4c f9 
    b07a:	c7 85 3c f0 ff ff 01 	movl   $0x1,-0xfc4(%rbp)
    b081:	00 00 00 
    b084:	c7 85 40 f0 ff ff fe 	movl   $0xfffffffe,-0xfc0(%rbp)
    b08b:	ff ff ff 
    b08e:	c7 85 44 f0 ff ff 64 	movl   $0x735dbc64,-0xfbc(%rbp)
    b095:	bc 5d 73 
    b098:	c7 85 48 f0 ff ff 4f 	movl   $0x71911b4f,-0xfb8(%rbp)
    b09f:	1b 91 71 
    b0a2:	c7 85 4c f0 ff ff 00 	movl   $0xf94c7c00,-0xfb4(%rbp)
    b0a9:	7c 4c f9 
    b0ac:	c7 85 50 f0 ff ff cb 	movl   $0x27757cb,-0xfb0(%rbp)
    b0b3:	57 77 02 
    b0b6:	c7 85 54 f0 ff ff 64 	movl   $0x735dbc64,-0xfac(%rbp)
    b0bd:	bc 5d 73 
    b0c0:	c7 85 58 f0 ff ff 90 	movl   $0x3d4ab690,-0xfa8(%rbp)
    b0c7:	b6 4a 3d 
    b0ca:	c7 85 5c f0 ff ff 01 	movl   $0x1,-0xfa4(%rbp)
    b0d1:	00 00 00 
    b0d4:	c7 85 60 f0 ff ff 64 	movl   $0x735dbc64,-0xfa0(%rbp)
    b0db:	bc 5d 73 
    b0de:	c7 85 64 f0 ff ff 08 	movl   $0x8,-0xf9c(%rbp)
    b0e5:	00 00 00 
    b0e8:	c7 85 68 f0 ff ff f7 	movl   $0xfffffff7,-0xf98(%rbp)
    b0ef:	ff ff ff 
    b0f2:	c7 85 6c f0 ff ff 64 	movl   $0x735dbc64,-0xf94(%rbp)
    b0f9:	bc 5d 73 
    b0fc:	c7 85 70 f0 ff ff 02 	movl   $0x2,-0xf90(%rbp)
    b103:	00 00 00 
    b106:	c7 85 74 f0 ff ff 35 	movl   $0x13077335,-0xf8c(%rbp)
    b10d:	73 07 13 
    b110:	c7 85 78 f0 ff ff 08 	movl   $0x8,-0xf88(%rbp)
    b117:	00 00 00 
    b11a:	c7 85 7c f0 ff ff 06 	movl   $0x6,-0xf84(%rbp)
    b121:	00 00 00 
    b124:	66 c7 85 ee e8 ff ff 	movw   $0xfffe,-0x1712(%rbp)
    b12b:	fe ff 
    b12d:	48 c7 85 b8 ea ff ff 	movq   $0xfffffffffffffffc,-0x1548(%rbp)
    b134:	fc ff ff ff 
    b138:	c6 85 da e8 ff ff 20 	movb   $0x20,-0x1726(%rbp)
    b13f:	48 b8 ea 3c 3c 22 82 	movabs $0xba55f082223c3cea,%rax
    b146:	f0 55 ba 
    b149:	48 89 85 c0 ea ff ff 	mov    %rax,-0x1540(%rbp)
    b150:	48 b8 53 f1 8f 44 43 	movabs $0x2c6e6243448ff153,%rax
    b157:	62 6e 2c 
    b15a:	48 89 85 c8 ea ff ff 	mov    %rax,-0x1538(%rbp)
    b161:	c7 85 04 e9 ff ff 00 	movl   $0x0,-0x16fc(%rbp)
    b168:	00 00 00 
    b16b:	eb 19                	jmp    b186 <func_1+0x9d1>
    b16d:	8b 85 04 e9 ff ff    	mov    -0x16fc(%rbp),%eax
    b173:	48 98                	cltq   
    b175:	66 c7 84 45 bc eb ff 	movw   $0xffff,-0x1444(%rbp,%rax,2)
    b17c:	ff ff ff 
    b17f:	83 85 04 e9 ff ff 01 	addl   $0x1,-0x16fc(%rbp)
    b186:	83 bd 04 e9 ff ff 00 	cmpl   $0x0,-0x16fc(%rbp)
    b18d:	7e de                	jle    b16d <func_1+0x9b8>
    b18f:	c7 85 04 e9 ff ff 00 	movl   $0x0,-0x16fc(%rbp)
    b196:	00 00 00 
    b199:	eb 1b                	jmp    b1b6 <func_1+0xa01>
    b19b:	8b 85 04 e9 ff ff    	mov    -0x16fc(%rbp),%eax
    b1a1:	48 98                	cltq   
    b1a3:	48 c7 84 c5 b0 ec ff 	movq   $0x6,-0x1350(%rbp,%rax,8)
    b1aa:	ff 06 00 00 00 
    b1af:	83 85 04 e9 ff ff 01 	addl   $0x1,-0x16fc(%rbp)
    b1b6:	83 bd 04 e9 ff ff 05 	cmpl   $0x5,-0x16fc(%rbp)
    b1bd:	7e dc                	jle    b19b <func_1+0x9e6>
    b1bf:	90                   	nop
    b1c0:	48 8b 55 80          	mov    -0x80(%rbp),%rdx
    b1c4:	48 8b 85 e8 e9 ff ff 	mov    -0x1618(%rbp),%rax
    b1cb:	48 89 10             	mov    %rdx,(%rax)
    b1ce:	48 8b 85 90 e9 ff ff 	mov    -0x1670(%rbp),%rax
    b1d5:	48 8b 95 e8 e9 ff ff 	mov    -0x1618(%rbp),%rdx
    b1dc:	48 8b 12             	mov    (%rdx),%rdx
    b1df:	48 89 10             	mov    %rdx,(%rax)
    b1e2:	c7 05 9c 7a 01 00 19 	movl   $0x19,0x17a9c(%rip)        # 22c88 <g_3>
    b1e9:	00 00 00 
    b1ec:	e9 e1 03 00 00       	jmpq   b5d2 <func_1+0xe1d>
    b1f1:	48 8d 05 2c 3e 01 00 	lea    0x13e2c(%rip),%rax        # 1f024 <g_15>
    b1f8:	48 89 85 68 eb ff ff 	mov    %rax,-0x1498(%rbp)
    b1ff:	48 8d 05 22 3e 01 00 	lea    0x13e22(%rip),%rax        # 1f028 <g_35>
    b206:	48 89 85 70 eb ff ff 	mov    %rax,-0x1490(%rbp)
    b20d:	48 8d 85 f0 f3 ff ff 	lea    -0xc10(%rbp),%rax
    b214:	48 8d 15 25 f0 00 00 	lea    0xf025(%rip),%rdx        # 1a240 <g_5313+0x1cc>
    b21b:	b9 3c 00 00 00       	mov    $0x3c,%ecx
    b220:	48 89 c7             	mov    %rax,%rdi
    b223:	48 89 d6             	mov    %rdx,%rsi
    b226:	f3 48 a5             	rep movsq %ds:(%rsi),%es:(%rdi)
    b229:	48 c7 85 78 eb ff ff 	movq   $0x0,-0x1488(%rbp)
    b230:	00 00 00 00 
    b234:	48 8d 05 f5 3d 01 00 	lea    0x13df5(%rip),%rax        # 1f030 <g_39>
    b23b:	48 89 85 80 eb ff ff 	mov    %rax,-0x1480(%rbp)
    b242:	c7 85 74 e9 ff ff 84 	movl   $0xfdd10884,-0x168c(%rbp)
    b249:	08 d1 fd 
    b24c:	48 8d 85 f0 f3 ff ff 	lea    -0xc10(%rbp),%rax
    b253:	48 05 a4 00 00 00    	add    $0xa4,%rax
    b259:	48 89 85 88 eb ff ff 	mov    %rax,-0x1478(%rbp)
    b260:	48 8d 05 91 7a 01 00 	lea    0x17a91(%rip),%rax        # 22cf8 <g_3059>
    b267:	48 89 85 d8 e9 ff ff 	mov    %rax,-0x1628(%rbp)
    b26e:	48 8d 85 d8 e9 ff ff 	lea    -0x1628(%rbp),%rax
    b275:	48 89 85 90 eb ff ff 	mov    %rax,-0x1470(%rbp)
    b27c:	c7 85 78 e9 ff ff d8 	movl   $0x35d6f4d8,-0x1688(%rbp)
    b283:	f4 d6 35 
    b286:	48 8d 05 1b 6b 01 00 	lea    0x16b1b(%rip),%rax        # 21da8 <g_906>
    b28d:	48 89 85 30 f2 ff ff 	mov    %rax,-0xdd0(%rbp)
    b294:	48 8d 05 0d 6b 01 00 	lea    0x16b0d(%rip),%rax        # 21da8 <g_906>
    b29b:	48 89 85 38 f2 ff ff 	mov    %rax,-0xdc8(%rbp)
    b2a2:	48 8d 05 ff 6a 01 00 	lea    0x16aff(%rip),%rax        # 21da8 <g_906>
    b2a9:	48 89 85 40 f2 ff ff 	mov    %rax,-0xdc0(%rbp)
    b2b0:	48 8d 05 f1 6a 01 00 	lea    0x16af1(%rip),%rax        # 21da8 <g_906>
    b2b7:	48 89 85 48 f2 ff ff 	mov    %rax,-0xdb8(%rbp)
    b2be:	48 8d 05 e3 6a 01 00 	lea    0x16ae3(%rip),%rax        # 21da8 <g_906>
    b2c5:	48 89 85 50 f2 ff ff 	mov    %rax,-0xdb0(%rbp)
    b2cc:	48 8d 05 d5 6a 01 00 	lea    0x16ad5(%rip),%rax        # 21da8 <g_906>
    b2d3:	48 89 85 58 f2 ff ff 	mov    %rax,-0xda8(%rbp)
    b2da:	48 8d 05 c7 6a 01 00 	lea    0x16ac7(%rip),%rax        # 21da8 <g_906>
    b2e1:	48 89 85 60 f2 ff ff 	mov    %rax,-0xda0(%rbp)
    b2e8:	48 8d 05 b9 6a 01 00 	lea    0x16ab9(%rip),%rax        # 21da8 <g_906>
    b2ef:	48 89 85 68 f2 ff ff 	mov    %rax,-0xd98(%rbp)
    b2f6:	48 8d 05 ab 6a 01 00 	lea    0x16aab(%rip),%rax        # 21da8 <g_906>
    b2fd:	48 89 85 70 f2 ff ff 	mov    %rax,-0xd90(%rbp)
    b304:	48 8d 05 9d 6a 01 00 	lea    0x16a9d(%rip),%rax        # 21da8 <g_906>
    b30b:	48 89 85 78 f2 ff ff 	mov    %rax,-0xd88(%rbp)
    b312:	48 8d 05 8f 6a 01 00 	lea    0x16a8f(%rip),%rax        # 21da8 <g_906>
    b319:	48 89 85 80 f2 ff ff 	mov    %rax,-0xd80(%rbp)
    b320:	48 8d 05 81 6a 01 00 	lea    0x16a81(%rip),%rax        # 21da8 <g_906>
    b327:	48 89 85 88 f2 ff ff 	mov    %rax,-0xd78(%rbp)
    b32e:	48 8d 05 73 6a 01 00 	lea    0x16a73(%rip),%rax        # 21da8 <g_906>
    b335:	48 89 85 90 f2 ff ff 	mov    %rax,-0xd70(%rbp)
    b33c:	48 8d 05 65 6a 01 00 	lea    0x16a65(%rip),%rax        # 21da8 <g_906>
    b343:	48 89 85 98 f2 ff ff 	mov    %rax,-0xd68(%rbp)
    b34a:	48 8d 05 57 6a 01 00 	lea    0x16a57(%rip),%rax        # 21da8 <g_906>
    b351:	48 89 85 a0 f2 ff ff 	mov    %rax,-0xd60(%rbp)
    b358:	48 8d 05 49 6a 01 00 	lea    0x16a49(%rip),%rax        # 21da8 <g_906>
    b35f:	48 89 85 a8 f2 ff ff 	mov    %rax,-0xd58(%rbp)
    b366:	48 8d 85 30 f2 ff ff 	lea    -0xdd0(%rbp),%rax
    b36d:	48 83 c0 48          	add    $0x48,%rax
    b371:	48 89 85 98 eb ff ff 	mov    %rax,-0x1468(%rbp)
    b378:	48 b8 f0 fd 32 b8 18 	movabs $0x4ce5db18b832fdf0,%rax
    b37f:	db e5 4c 
    b382:	48 89 85 a0 eb ff ff 	mov    %rax,-0x1460(%rbp)
    b389:	48 c7 85 e0 e9 ff ff 	movq   $0xfffffffffffffff8,-0x1620(%rbp)
    b390:	f8 ff ff ff 
    b394:	48 8d 05 15 6a 01 00 	lea    0x16a15(%rip),%rax        # 21db0 <g_954>
    b39b:	48 89 85 a8 eb ff ff 	mov    %rax,-0x1458(%rbp)
    b3a2:	c7 85 a0 ee ff ff 2b 	movl   $0xe046fb2b,-0x1160(%rbp)
    b3a9:	fb 46 e0 
    b3ac:	c7 85 a4 ee ff ff f7 	movl   $0xfffffff7,-0x115c(%rbp)
    b3b3:	ff ff ff 
    b3b6:	c7 85 a8 ee ff ff f7 	movl   $0xfffffff7,-0x1158(%rbp)
    b3bd:	ff ff ff 
    b3c0:	c7 85 ac ee ff ff 2b 	movl   $0xe046fb2b,-0x1154(%rbp)
    b3c7:	fb 46 e0 
    b3ca:	c7 85 b0 ee ff ff f7 	movl   $0xfffffff7,-0x1150(%rbp)
    b3d1:	ff ff ff 
    b3d4:	c7 85 b4 ee ff ff f7 	movl   $0xfffffff7,-0x114c(%rbp)
    b3db:	ff ff ff 
    b3de:	c7 85 b8 ee ff ff 2b 	movl   $0xe046fb2b,-0x1148(%rbp)
    b3e5:	fb 46 e0 
    b3e8:	c7 85 bc ee ff ff f7 	movl   $0xfffffff7,-0x1144(%rbp)
    b3ef:	ff ff ff 
    b3f2:	c7 85 c0 ee ff ff 2b 	movl   $0xe046fb2b,-0x1140(%rbp)
    b3f9:	fb 46 e0 
    b3fc:	c7 85 c4 ee ff ff 2b 	movl   $0xe046fb2b,-0x113c(%rbp)
    b403:	fb 46 e0 
    b406:	c7 85 c8 ee ff ff d2 	movl   $0x1aaff4d2,-0x1138(%rbp)
    b40d:	f4 af 1a 
    b410:	c7 85 cc ee ff ff 2b 	movl   $0xe046fb2b,-0x1134(%rbp)
    b417:	fb 46 e0 
    b41a:	c7 85 d0 ee ff ff 2b 	movl   $0xe046fb2b,-0x1130(%rbp)
    b421:	fb 46 e0 
    b424:	c7 85 d4 ee ff ff d2 	movl   $0x1aaff4d2,-0x112c(%rbp)
    b42b:	f4 af 1a 
    b42e:	c7 85 d8 ee ff ff 2b 	movl   $0xe046fb2b,-0x1128(%rbp)
    b435:	fb 46 e0 
    b438:	c7 85 dc ee ff ff 2b 	movl   $0xe046fb2b,-0x1124(%rbp)
    b43f:	fb 46 e0 
    b442:	c7 85 e0 ee ff ff f7 	movl   $0xfffffff7,-0x1120(%rbp)
    b449:	ff ff ff 
    b44c:	c7 85 e4 ee ff ff 2b 	movl   $0xe046fb2b,-0x111c(%rbp)
    b453:	fb 46 e0 
    b456:	c7 85 e8 ee ff ff f7 	movl   $0xfffffff7,-0x1118(%rbp)
    b45d:	ff ff ff 
    b460:	c7 85 ec ee ff ff f7 	movl   $0xfffffff7,-0x1114(%rbp)
    b467:	ff ff ff 
    b46a:	c7 85 f0 ee ff ff 2b 	movl   $0xe046fb2b,-0x1110(%rbp)
    b471:	fb 46 e0 
    b474:	c7 85 f4 ee ff ff f7 	movl   $0xfffffff7,-0x110c(%rbp)
    b47b:	ff ff ff 
    b47e:	c7 85 f8 ee ff ff f7 	movl   $0xfffffff7,-0x1108(%rbp)
    b485:	ff ff ff 
    b488:	c7 85 fc ee ff ff 2b 	movl   $0xe046fb2b,-0x1104(%rbp)
    b48f:	fb 46 e0 
    b492:	c7 85 7c e9 ff ff 07 	movl   $0x7,-0x1684(%rbp)
    b499:	00 00 00 
    b49c:	c6 85 df e8 ff ff 01 	movb   $0x1,-0x1721(%rbp)
    b4a3:	48 8d 85 e0 e9 ff ff 	lea    -0x1620(%rbp),%rax
    b4aa:	48 89 85 60 ed ff ff 	mov    %rax,-0x12a0(%rbp)
    b4b1:	48 8d 85 e0 e9 ff ff 	lea    -0x1620(%rbp),%rax
    b4b8:	48 89 85 68 ed ff ff 	mov    %rax,-0x1298(%rbp)
    b4bf:	48 8d 85 e0 e9 ff ff 	lea    -0x1620(%rbp),%rax
    b4c6:	48 89 85 70 ed ff ff 	mov    %rax,-0x1290(%rbp)
    b4cd:	48 8d 85 e0 e9 ff ff 	lea    -0x1620(%rbp),%rax
    b4d4:	48 89 85 78 ed ff ff 	mov    %rax,-0x1288(%rbp)
    b4db:	48 8d 85 e0 e9 ff ff 	lea    -0x1620(%rbp),%rax
    b4e2:	48 89 85 80 ed ff ff 	mov    %rax,-0x1280(%rbp)
    b4e9:	c7 85 80 e9 ff ff d9 	movl   $0x218eecd9,-0x1680(%rbp)
    b4f0:	ec 8e 21 
    b4f3:	48 8d 05 fe 6c 01 00 	lea    0x16cfe(%rip),%rax        # 221f8 <g_1568>
    b4fa:	48 89 85 b0 eb ff ff 	mov    %rax,-0x1450(%rbp)
    b501:	c7 85 84 e9 ff ff 52 	movl   $0xe56452,-0x167c(%rbp)
    b508:	64 e5 00 
    b50b:	c7 85 08 e9 ff ff 00 	movl   $0x0,-0x16f8(%rbp)
    b512:	00 00 00 
    b515:	eb 1b                	jmp    b532 <func_1+0xd7d>
    b517:	8b 85 08 e9 ff ff    	mov    -0x16f8(%rbp),%eax
    b51d:	48 98                	cltq   
    b51f:	48 c7 84 c5 10 ed ff 	movq   $0x0,-0x12f0(%rbp,%rax,8)
    b526:	ff 00 00 00 00 
    b52b:	83 85 08 e9 ff ff 01 	addl   $0x1,-0x16f8(%rbp)
    b532:	83 bd 08 e9 ff ff 03 	cmpl   $0x3,-0x16f8(%rbp)
    b539:	7e dc                	jle    b517 <func_1+0xd62>
    b53b:	c7 85 08 e9 ff ff 00 	movl   $0x0,-0x16f8(%rbp)
    b542:	00 00 00 
    b545:	eb 1a                	jmp    b561 <func_1+0xdac>
    b547:	8b 85 08 e9 ff ff    	mov    -0x16f8(%rbp),%eax
    b54d:	48 98                	cltq   
    b54f:	c7 84 85 20 ec ff ff 	movl   $0xe761eb12,-0x13e0(%rbp,%rax,4)
    b556:	12 eb 61 e7 
    b55a:	83 85 08 e9 ff ff 01 	addl   $0x1,-0x16f8(%rbp)
    b561:	83 bd 08 e9 ff ff 01 	cmpl   $0x1,-0x16f8(%rbp)
    b568:	7e dd                	jle    b547 <func_1+0xd92>
    b56a:	c7 85 08 e9 ff ff 00 	movl   $0x0,-0x16f8(%rbp)
    b571:	00 00 00 
    b574:	eb 14                	jmp    b58a <func_1+0xdd5>
    b576:	8b 85 08 e9 ff ff    	mov    -0x16f8(%rbp),%eax
    b57c:	48 98                	cltq   
    b57e:	c6 44 05 f7 ff       	movb   $0xff,-0x9(%rbp,%rax,1)
    b583:	83 85 08 e9 ff ff 01 	addl   $0x1,-0x16f8(%rbp)
    b58a:	83 bd 08 e9 ff ff 00 	cmpl   $0x0,-0x16f8(%rbp)
    b591:	7e e3                	jle    b576 <func_1+0xdc1>
    b593:	c7 85 08 e9 ff ff 00 	movl   $0x0,-0x16f8(%rbp)
    b59a:	00 00 00 
    b59d:	eb 1b                	jmp    b5ba <func_1+0xe05>
    b59f:	8b 85 08 e9 ff ff    	mov    -0x16f8(%rbp),%eax
    b5a5:	48 98                	cltq   
    b5a7:	48 c7 84 c5 e0 ec ff 	movq   $0x0,-0x1320(%rbp,%rax,8)
    b5ae:	ff 00 00 00 00 
    b5b3:	83 85 08 e9 ff ff 01 	addl   $0x1,-0x16f8(%rbp)
    b5ba:	83 bd 08 e9 ff ff 01 	cmpl   $0x1,-0x16f8(%rbp)
    b5c1:	7e dc                	jle    b59f <func_1+0xdea>
    b5c3:	8b 05 bf 76 01 00    	mov    0x176bf(%rip),%eax        # 22c88 <g_3>
    b5c9:	83 e8 01             	sub    $0x1,%eax
    b5cc:	89 05 b6 76 01 00    	mov    %eax,0x176b6(%rip)        # 22c88 <g_3>
    b5d2:	8b 05 b0 76 01 00    	mov    0x176b0(%rip),%eax        # 22c88 <g_3>
    b5d8:	83 f8 f9             	cmp    $0xfffffff9,%eax
    b5db:	0f 8d 10 fc ff ff    	jge    b1f1 <func_1+0xa3c>
    b5e1:	48 8b 05 78 6b 01 00 	mov    0x16b78(%rip),%rax        # 22160 <g_1511>
    b5e8:	48 8b 00             	mov    (%rax),%rax
    b5eb:	48 85 c0             	test   %rax,%rax
    b5ee:	0f 84 30 01 00 00    	je     b724 <func_1+0xf6f>
    b5f4:	c6 05 f9 3b 01 00 00 	movb   $0x0,0x13bf9(%rip)        # 1f1f4 <g_3448>
    b5fb:	90                   	nop
    b5fc:	0f b6 05 f1 3b 01 00 	movzbl 0x13bf1(%rip),%eax        # 1f1f4 <g_3448>
    b603:	3c 15                	cmp    $0x15,%al
    b605:	0f 8e ba 00 00 00    	jle    b6c5 <func_1+0xf10>
    b60b:	66 c7 85 f0 e8 ff ff 	movw   $0x2,-0x1710(%rbp)
    b612:	02 00 
    b614:	c6 05 45 3a 01 00 00 	movb   $0x0,0x13a45(%rip)        # 1f060 <g_56>
    b61b:	e9 88 00 00 00       	jmpq   b6a8 <func_1+0xef3>
    b620:	0f b6 05 39 3a 01 00 	movzbl 0x13a39(%rip),%eax        # 1f060 <g_56>
    b627:	84 c0                	test   %al,%al
    b629:	74 05                	je     b630 <func_1+0xe7b>
    b62b:	e9 90 fb ff ff       	jmpq   b1c0 <func_1+0xa0b>
    b630:	66 c7 05 81 3b 01 00 	movw   $0x0,0x13b81(%rip)        # 1f1ba <g_1470>
    b637:	00 00 
    b639:	eb 50                	jmp    b68b <func_1+0xed6>
    b63b:	66 c7 85 f2 e8 ff ff 	movw   $0x0,-0x170e(%rbp)
    b642:	00 00 
    b644:	48 8b 05 7d 6c 01 00 	mov    0x16c7d(%rip),%rax        # 222c8 <g_2469>
    b64b:	8b 00                	mov    (%rax),%eax
    b64d:	85 c0                	test   %eax,%eax
    b64f:	74 0c                	je     b65d <func_1+0xea8>
    b651:	66 83 bd f2 e8 ff ff 	cmpw   $0x0,-0x170e(%rbp)
    b658:	00 
    b659:	74 0e                	je     b669 <func_1+0xeb4>
    b65b:	eb 3b                	jmp    b698 <func_1+0xee3>
    b65d:	0f bf 85 f0 e8 ff ff 	movswl -0x1710(%rbp),%eax
    b664:	e9 be 05 00 00       	jmpq   bc27 <func_1+0x1472>
    b669:	48 8b 05 50 6e 01 00 	mov    0x16e50(%rip),%rax        # 224c0 <g_3583>
    b670:	48 8b 00             	mov    (%rax),%rax
    b673:	48 89 85 38 ea ff ff 	mov    %rax,-0x15c8(%rbp)
    b67a:	0f b7 05 39 3b 01 00 	movzwl 0x13b39(%rip),%eax        # 1f1ba <g_1470>
    b681:	83 c0 01             	add    $0x1,%eax
    b684:	66 89 05 2f 3b 01 00 	mov    %ax,0x13b2f(%rip)        # 1f1ba <g_1470>
    b68b:	0f b7 05 28 3b 01 00 	movzwl 0x13b28(%rip),%eax        # 1f1ba <g_1470>
    b692:	66 83 f8 19          	cmp    $0x19,%ax
    b696:	75 a3                	jne    b63b <func_1+0xe86>
    b698:	0f b6 05 c1 39 01 00 	movzbl 0x139c1(%rip),%eax        # 1f060 <g_56>
    b69f:	83 c0 01             	add    $0x1,%eax
    b6a2:	88 05 b8 39 01 00    	mov    %al,0x139b8(%rip)        # 1f060 <g_56>
    b6a8:	0f b6 05 b1 39 01 00 	movzbl 0x139b1(%rip),%eax        # 1f060 <g_56>
    b6af:	3c 29                	cmp    $0x29,%al
    b6b1:	0f 87 69 ff ff ff    	ja     b620 <func_1+0xe6b>
    b6b7:	48 8b 05 22 6b 01 00 	mov    0x16b22(%rip),%rax        # 221e0 <g_1549>
    b6be:	8b 00                	mov    (%rax),%eax
    b6c0:	e9 62 05 00 00       	jmpq   bc27 <func_1+0x1472>
    b6c5:	48 8d 05 b4 6d 01 00 	lea    0x16db4(%rip),%rax        # 22480 <g_3060>
    b6cc:	48 89 05 0d 6e 01 00 	mov    %rax,0x16e0d(%rip)        # 224e0 <g_4092>
    b6d3:	48 c7 85 a8 e9 ff ff 	movq   $0x0,-0x1658(%rbp)
    b6da:	00 00 00 00 
    b6de:	eb 23                	jmp    b703 <func_1+0xf4e>
    b6e0:	c7 85 40 e9 ff ff 65 	movl   $0x5e4ae665,-0x16c0(%rbp)
    b6e7:	e6 4a 5e 
    b6ea:	83 8d 40 e9 ff ff 01 	orl    $0x1,-0x16c0(%rbp)
    b6f1:	48 8b 85 a8 e9 ff ff 	mov    -0x1658(%rbp),%rax
    b6f8:	48 83 c0 01          	add    $0x1,%rax
    b6fc:	48 89 85 a8 e9 ff ff 	mov    %rax,-0x1658(%rbp)
    b703:	48 8b 85 a8 e9 ff ff 	mov    -0x1658(%rbp),%rax
    b70a:	48 83 f8 18          	cmp    $0x18,%rax
    b70e:	7f d0                	jg     b6e0 <func_1+0xf2b>
    b710:	48 8b 05 79 6d 01 00 	mov    0x16d79(%rip),%rax        # 22490 <g_3239>
    b717:	48 8b 00             	mov    (%rax),%rax
    b71a:	8b 00                	mov    (%rax),%eax
    b71c:	20 85 d6 e8 ff ff    	and    %al,-0x172a(%rbp)
    b722:	eb 0e                	jmp    b732 <func_1+0xf7d>
    b724:	b8 08 00 00 00       	mov    $0x8,%eax
    b729:	85 c0                	test   %eax,%eax
    b72b:	74 05                	je     b732 <func_1+0xf7d>
    b72d:	e9 b0 fa ff ff       	jmpq   b1e2 <func_1+0xa2d>
    b732:	c6 85 d4 e8 ff ff 00 	movb   $0x0,-0x172c(%rbp)
    b739:	e9 d0 04 00 00       	jmpq   bc0e <func_1+0x1459>
    b73e:	48 8d 05 1b 6b 01 00 	lea    0x16b1b(%rip),%rax        # 22260 <g_2191>
    b745:	48 89 85 d0 e9 ff ff 	mov    %rax,-0x1630(%rbp)
    b74c:	48 c7 85 e0 ec ff ff 	movq   $0x0,-0x1320(%rbp)
    b753:	00 00 00 00 
    b757:	48 c7 85 e8 ec ff ff 	movq   $0x0,-0x1318(%rbp)
    b75e:	00 00 00 00 
    b762:	48 8d 85 d0 e9 ff ff 	lea    -0x1630(%rbp),%rax
    b769:	48 89 85 f0 ec ff ff 	mov    %rax,-0x1310(%rbp)
    b770:	48 c7 85 f8 ec ff ff 	movq   $0x0,-0x1308(%rbp)
    b777:	00 00 00 00 
    b77b:	48 c7 85 00 ed ff ff 	movq   $0x0,-0x1300(%rbp)
    b782:	00 00 00 00 
    b786:	48 8d 85 d0 e9 ff ff 	lea    -0x1630(%rbp),%rax
    b78d:	48 89 85 08 ed ff ff 	mov    %rax,-0x12f8(%rbp)
    b794:	c7 85 44 e9 ff ff f1 	movl   $0x3d45a2f1,-0x16bc(%rbp)
    b79b:	a2 45 3d 
    b79e:	c7 85 20 ec ff ff fa 	movl   $0xfffffffa,-0x13e0(%rbp)
    b7a5:	ff ff ff 
    b7a8:	c7 85 24 ec ff ff 2b 	movl   $0x8ee7b12b,-0x13dc(%rbp)
    b7af:	b1 e7 8e 
    b7b2:	c7 85 28 ec ff ff fa 	movl   $0xfffffffa,-0x13d8(%rbp)
    b7b9:	ff ff ff 
    b7bc:	c7 85 2c ec ff ff 2b 	movl   $0x8ee7b12b,-0x13d4(%rbp)
    b7c3:	b1 e7 8e 
    b7c6:	c7 85 30 ec ff ff fa 	movl   $0xfffffffa,-0x13d0(%rbp)
    b7cd:	ff ff ff 
    b7d0:	c7 85 34 ec ff ff 2b 	movl   $0x8ee7b12b,-0x13cc(%rbp)
    b7d7:	b1 e7 8e 
    b7da:	c7 85 38 ec ff ff fa 	movl   $0xfffffffa,-0x13c8(%rbp)
    b7e1:	ff ff ff 
    b7e4:	c7 85 3c ec ff ff 2b 	movl   $0x8ee7b12b,-0x13c4(%rbp)
    b7eb:	b1 e7 8e 
    b7ee:	c7 85 40 ec ff ff fa 	movl   $0xfffffffa,-0x13c0(%rbp)
    b7f5:	ff ff ff 
    b7f8:	c7 85 44 ec ff ff 2b 	movl   $0x8ee7b12b,-0x13bc(%rbp)
    b7ff:	b1 e7 8e 
    b802:	48 b8 bb e4 f7 64 5d 	movabs $0x7b1b345d64f7e4bb,%rax
    b809:	34 1b 7b 
    b80c:	48 89 85 60 ed ff ff 	mov    %rax,-0x12a0(%rbp)
    b813:	48 c7 85 68 ed ff ff 	movq   $0xfffffffffffffffd,-0x1298(%rbp)
    b81a:	fd ff ff ff 
    b81e:	48 c7 85 70 ed ff ff 	movq   $0xfffffffffffffffd,-0x1290(%rbp)
    b825:	fd ff ff ff 
    b829:	48 89 85 78 ed ff ff 	mov    %rax,-0x1288(%rbp)
    b830:	48 c7 85 80 ed ff ff 	movq   $0xfffffffffffffffd,-0x1280(%rbp)
    b837:	fd ff ff ff 
    b83b:	48 c7 85 88 ed ff ff 	movq   $0xfffffffffffffffd,-0x1278(%rbp)
    b842:	fd ff ff ff 
    b846:	48 89 85 90 ed ff ff 	mov    %rax,-0x1270(%rbp)
    b84d:	48 c7 85 98 ed ff ff 	movq   $0xfffffffffffffffd,-0x1268(%rbp)
    b854:	fd ff ff ff 
    b858:	48 c7 85 a0 ed ff ff 	movq   $0xfffffffffffffffd,-0x1260(%rbp)
    b85f:	fd ff ff ff 
    b863:	48 89 85 a8 ed ff ff 	mov    %rax,-0x1258(%rbp)
    b86a:	48 8d 05 df 74 01 00 	lea    0x174df(%rip),%rax        # 22d50 <g_3681>
    b871:	48 89 85 d0 ea ff ff 	mov    %rax,-0x1530(%rbp)
    b878:	48 8d 85 10 ed ff ff 	lea    -0x12f0(%rbp),%rax
    b87f:	48 83 c0 10          	add    $0x10,%rax
    b883:	48 89 85 d8 ea ff ff 	mov    %rax,-0x1528(%rbp)
    b88a:	c7 85 fc e8 ff ff 0a 	movl   $0x23b7640a,-0x1704(%rbp)
    b891:	64 b7 23 
    b894:	48 c7 85 e0 ea ff ff 	movq   $0xfffffffffffffff6,-0x1520(%rbp)
    b89b:	f6 ff ff ff 
    b89f:	c7 85 48 e9 ff ff 40 	movl   $0x59a17b40,-0x16b8(%rbp)
    b8a6:	7b a1 59 
    b8a9:	48 8d 85 fc e8 ff ff 	lea    -0x1704(%rbp),%rax
    b8b0:	48 89 85 e8 ea ff ff 	mov    %rax,-0x1518(%rbp)
    b8b7:	48 c7 85 f0 ea ff ff 	movq   $0xfffffffffffffff6,-0x1510(%rbp)
    b8be:	f6 ff ff ff 
    b8c2:	66 c7 85 f4 e8 ff ff 	movw   $0x6f9b,-0x170c(%rbp)
    b8c9:	9b 6f 
    b8cb:	c7 85 4c e9 ff ff ff 	movl   $0xffffffff,-0x16b4(%rbp)
    b8d2:	ff ff ff 
    b8d5:	48 8d 85 30 f2 ff ff 	lea    -0xdd0(%rbp),%rax
    b8dc:	48 8d 15 3d eb 00 00 	lea    0xeb3d(%rip),%rdx        # 1a420 <g_5313+0x3ac>
    b8e3:	b9 38 00 00 00       	mov    $0x38,%ecx
    b8e8:	48 89 c7             	mov    %rax,%rdi
    b8eb:	48 89 d6             	mov    %rdx,%rsi
    b8ee:	f3 48 a5             	rep movsq %ds:(%rsi),%es:(%rdi)
    b8f1:	c7 85 00 e9 ff ff fc 	movl   $0xfffffffc,-0x1700(%rbp)
    b8f8:	ff ff ff 
    b8fb:	c7 85 50 e9 ff ff 04 	movl   $0x4,-0x16b0(%rbp)
    b902:	00 00 00 
    b905:	48 b8 3e 0f 7f bd 13 	movabs $0x646fa213bd7f0f3e,%rax
    b90c:	a2 6f 64 
    b90f:	48 89 85 f8 ea ff ff 	mov    %rax,-0x1508(%rbp)
    b916:	48 8d 05 47 37 01 00 	lea    0x13747(%rip),%rax        # 1f064 <g_88>
    b91d:	48 89 85 00 eb ff ff 	mov    %rax,-0x1500(%rbp)
    b924:	c7 85 54 e9 ff ff 43 	movl   $0xa5726543,-0x16ac(%rbp)
    b92b:	65 72 a5 
    b92e:	48 8d 05 6b 69 01 00 	lea    0x1696b(%rip),%rax        # 222a0 <g_2261>
    b935:	48 89 85 08 eb ff ff 	mov    %rax,-0x14f8(%rbp)
    b93c:	c7 85 58 e9 ff ff f7 	movl   $0xfffffff7,-0x16a8(%rbp)
    b943:	ff ff ff 
    b946:	66 c7 85 f6 e8 ff ff 	movw   $0x1,-0x170a(%rbp)
    b94d:	01 00 
    b94f:	c7 85 5c e9 ff ff 01 	movl   $0x1,-0x16a4(%rbp)
    b956:	00 00 00 
    b959:	48 8d 85 00 e9 ff ff 	lea    -0x1700(%rbp),%rax
    b960:	48 89 85 10 eb ff ff 	mov    %rax,-0x14f0(%rbp)
    b967:	48 8d 85 b0 e9 ff ff 	lea    -0x1650(%rbp),%rax
    b96e:	48 89 85 18 eb ff ff 	mov    %rax,-0x14e8(%rbp)
    b975:	48 8d 05 1c 6b 01 00 	lea    0x16b1c(%rip),%rax        # 22498 <g_3369>
    b97c:	48 89 85 20 eb ff ff 	mov    %rax,-0x14e0(%rbp)
    b983:	48 8d 85 90 e9 ff ff 	lea    -0x1670(%rbp),%rax
    b98a:	48 89 85 28 eb ff ff 	mov    %rax,-0x14d8(%rbp)
    b991:	c7 85 60 e9 ff ff 00 	movl   $0x0,-0x16a0(%rbp)
    b998:	00 00 00 
    b99b:	c7 85 64 e9 ff ff 2f 	movl   $0xaf5cd62f,-0x169c(%rbp)
    b9a2:	d6 5c af 
    b9a5:	c6 85 db e8 ff ff 5c 	movb   $0x5c,-0x1725(%rbp)
    b9ac:	c7 85 68 e9 ff ff a7 	movl   $0x7c0cb0a7,-0x1698(%rbp)
    b9b3:	b0 0c 7c 
    b9b6:	c7 85 6c e9 ff ff fb 	movl   $0xfffffffb,-0x1694(%rbp)
    b9bd:	ff ff ff 
    b9c0:	66 c7 85 f8 e8 ff ff 	movw   $0xa95a,-0x1708(%rbp)
    b9c7:	5a a9 
    b9c9:	48 8d 85 f0 f3 ff ff 	lea    -0xc10(%rbp),%rax
    b9d0:	48 8d 15 29 42 01 00 	lea    0x14229(%rip),%rdx        # 1fc00 <g_5275+0x880>
    b9d7:	b9 a0 00 00 00       	mov    $0xa0,%ecx
    b9dc:	48 89 c7             	mov    %rax,%rdi
    b9df:	48 89 d6             	mov    %rdx,%rsi
    b9e2:	f3 48 a5             	rep movsq %ds:(%rsi),%es:(%rdi)
    b9e5:	48 8d 05 ac 63 01 00 	lea    0x163ac(%rip),%rax        # 21d98 <g_895>
    b9ec:	48 89 85 30 eb ff ff 	mov    %rax,-0x14d0(%rbp)
    b9f3:	48 c7 85 a0 ee ff ff 	movq   $0x0,-0x1160(%rbp)
    b9fa:	00 00 00 00 
    b9fe:	48 b8 cc f1 7f 3a f3 	movabs $0xc89d5cf33a7ff1cc,%rax
    ba05:	5c 9d c8 
    ba08:	48 89 85 a8 ee ff ff 	mov    %rax,-0x1158(%rbp)
    ba0f:	48 89 85 b0 ee ff ff 	mov    %rax,-0x1150(%rbp)
    ba16:	48 c7 85 b8 ee ff ff 	movq   $0x0,-0x1148(%rbp)
    ba1d:	00 00 00 00 
    ba21:	48 89 85 c0 ee ff ff 	mov    %rax,-0x1140(%rbp)
    ba28:	48 89 85 c8 ee ff ff 	mov    %rax,-0x1138(%rbp)
    ba2f:	48 c7 85 d0 ee ff ff 	movq   $0x0,-0x1130(%rbp)
    ba36:	00 00 00 00 
    ba3a:	48 89 85 d8 ee ff ff 	mov    %rax,-0x1128(%rbp)
    ba41:	48 89 85 e0 ee ff ff 	mov    %rax,-0x1120(%rbp)
    ba48:	48 c7 85 e8 ee ff ff 	movq   $0x0,-0x1118(%rbp)
    ba4f:	00 00 00 00 
    ba53:	48 89 85 f0 ee ff ff 	mov    %rax,-0x1110(%rbp)
    ba5a:	48 89 85 f8 ee ff ff 	mov    %rax,-0x1108(%rbp)
    ba61:	48 c7 85 00 ef ff ff 	movq   $0x0,-0x1100(%rbp)
    ba68:	00 00 00 00 
    ba6c:	48 89 85 08 ef ff ff 	mov    %rax,-0x10f8(%rbp)
    ba73:	48 89 85 10 ef ff ff 	mov    %rax,-0x10f0(%rbp)
    ba7a:	48 c7 85 18 ef ff ff 	movq   $0x0,-0x10e8(%rbp)
    ba81:	00 00 00 00 
    ba85:	48 89 85 20 ef ff ff 	mov    %rax,-0x10e0(%rbp)
    ba8c:	48 89 85 28 ef ff ff 	mov    %rax,-0x10d8(%rbp)
    ba93:	48 c7 85 30 ef ff ff 	movq   $0x0,-0x10d0(%rbp)
    ba9a:	00 00 00 00 
    ba9e:	48 89 85 38 ef ff ff 	mov    %rax,-0x10c8(%rbp)
    baa5:	48 89 85 40 ef ff ff 	mov    %rax,-0x10c0(%rbp)
    baac:	48 c7 85 48 ef ff ff 	movq   $0x0,-0x10b8(%rbp)
    bab3:	00 00 00 00 
    bab7:	48 89 85 50 ef ff ff 	mov    %rax,-0x10b0(%rbp)
    babe:	48 89 85 58 ef ff ff 	mov    %rax,-0x10a8(%rbp)
    bac5:	48 c7 85 60 ef ff ff 	movq   $0x0,-0x10a0(%rbp)
    bacc:	00 00 00 00 
    bad0:	48 89 85 68 ef ff ff 	mov    %rax,-0x1098(%rbp)
    bad7:	48 89 85 70 ef ff ff 	mov    %rax,-0x1090(%rbp)
    bade:	48 c7 85 38 eb ff ff 	movq   $0xfffffffffffffff8,-0x14c8(%rbp)
    bae5:	f8 ff ff ff 
    bae9:	66 c7 85 fa e8 ff ff 	movw   $0x1,-0x1706(%rbp)
    baf0:	01 00 
    baf2:	c6 85 dc e8 ff ff 00 	movb   $0x0,-0x1724(%rbp)
    baf9:	c7 85 70 e9 ff ff f9 	movl   $0xfffffff9,-0x1690(%rbp)
    bb00:	ff ff ff 
    bb03:	48 8d 05 a6 62 01 00 	lea    0x162a6(%rip),%rax        # 21db0 <g_954>
    bb0a:	48 89 85 40 eb ff ff 	mov    %rax,-0x14c0(%rbp)
    bb11:	48 b8 9e 3e 27 80 d1 	movabs $0x914977d180273e9e,%rax
    bb18:	77 49 91 
    bb1b:	48 89 85 48 eb ff ff 	mov    %rax,-0x14b8(%rbp)
    bb22:	48 c7 85 50 eb ff ff 	movq   $0xfffffffffffffffd,-0x14b0(%rbp)
    bb29:	fd ff ff ff 
    bb2d:	48 b8 40 e9 28 e7 01 	movabs $0xb597cd01e728e940,%rax
    bb34:	cd 97 b5 
    bb37:	48 89 85 58 eb ff ff 	mov    %rax,-0x14a8(%rbp)
    bb3e:	c6 85 dd e8 ff ff 07 	movb   $0x7,-0x1723(%rbp)
    bb45:	48 8d 05 8c 67 01 00 	lea    0x1678c(%rip),%rax        # 222d8 <g_2527>
    bb4c:	48 89 85 d8 e9 ff ff 	mov    %rax,-0x1628(%rbp)
    bb53:	48 8d 85 d8 e9 ff ff 	lea    -0x1628(%rbp),%rax
    bb5a:	48 89 85 e0 e9 ff ff 	mov    %rax,-0x1620(%rbp)
    bb61:	48 8d 85 e0 e9 ff ff 	lea    -0x1620(%rbp),%rax
    bb68:	48 89 85 60 eb ff ff 	mov    %rax,-0x14a0(%rbp)
    bb6f:	c6 85 de e8 ff ff 27 	movb   $0x27,-0x1722(%rbp)
    bb76:	c7 85 0c e9 ff ff 00 	movl   $0x0,-0x16f4(%rbp)
    bb7d:	00 00 00 
    bb80:	eb 1e                	jmp    bba0 <func_1+0x13eb>
    bb82:	8b 85 0c e9 ff ff    	mov    -0x16f4(%rbp),%eax
    bb88:	48 98                	cltq   
    bb8a:	48 8d 15 ff 66 01 00 	lea    0x166ff(%rip),%rdx        # 22290 <g_2190>
    bb91:	48 89 94 c5 10 ed ff 	mov    %rdx,-0x12f0(%rbp,%rax,8)
    bb98:	ff 
    bb99:	83 85 0c e9 ff ff 01 	addl   $0x1,-0x16f4(%rbp)
    bba0:	83 bd 0c e9 ff ff 08 	cmpl   $0x8,-0x16f4(%rbp)
    bba7:	7e d9                	jle    bb82 <func_1+0x13cd>
    bba9:	c7 85 0c e9 ff ff 00 	movl   $0x0,-0x16f4(%rbp)
    bbb0:	00 00 00 
    bbb3:	eb 19                	jmp    bbce <func_1+0x1419>
    bbb5:	8b 85 0c e9 ff ff    	mov    -0x16f4(%rbp),%eax
    bbbb:	48 98                	cltq   
    bbbd:	66 c7 84 45 be eb ff 	movw   $0x0,-0x1442(%rbp,%rax,2)
    bbc4:	ff 00 00 
    bbc7:	83 85 0c e9 ff ff 01 	addl   $0x1,-0x16f4(%rbp)
    bbce:	83 bd 0c e9 ff ff 00 	cmpl   $0x0,-0x16f4(%rbp)
    bbd5:	7e de                	jle    bbb5 <func_1+0x1400>
    bbd7:	c7 85 0c e9 ff ff 00 	movl   $0x0,-0x16f4(%rbp)
    bbde:	00 00 00 
    bbe1:	eb 1b                	jmp    bbfe <func_1+0x1449>
    bbe3:	8b 85 0c e9 ff ff    	mov    -0x16f4(%rbp),%eax
    bbe9:	48 98                	cltq   
    bbeb:	48 c7 84 c5 c0 eb ff 	movq   $0x0,-0x1440(%rbp,%rax,8)
    bbf2:	ff 00 00 00 00 
    bbf7:	83 85 0c e9 ff ff 01 	addl   $0x1,-0x16f4(%rbp)
    bbfe:	83 bd 0c e9 ff ff 01 	cmpl   $0x1,-0x16f4(%rbp)
    bc05:	7e dc                	jle    bbe3 <func_1+0x142e>
    bc07:	80 85 d4 e8 ff ff 01 	addb   $0x1,-0x172c(%rbp)
    bc0e:	80 bd d4 e8 ff ff 03 	cmpb   $0x3,-0x172c(%rbp)
    bc15:	0f 86 23 fb ff ff    	jbe    b73e <func_1+0xf89>
    bc1b:	48 8b 05 e6 68 01 00 	mov    0x168e6(%rip),%rax        # 22508 <g_4336>
    bc22:	48 8b 00             	mov    (%rax),%rax
    bc25:	8b 00                	mov    (%rax),%eax
    bc27:	48 8b 4d f8          	mov    -0x8(%rbp),%rcx
    bc2b:	64 48 33 0c 25 28 00 	xor    %fs:0x28,%rcx
    bc32:	00 00 
    bc34:	74 05                	je     bc3b <func_1+0x1486>
    bc36:	e8 35 d4 ff ff       	callq  9070 <__stack_chk_fail@plt>
    bc3b:	c9                   	leaveq 
    bc3c:	c3                   	retq   

000000000000bc3d <func_11>:
    bc3d:	f3 0f 1e fa          	endbr64 
    bc41:	55                   	push   %rbp
    bc42:	48 89 e5             	mov    %rsp,%rbp
    bc45:	41 55                	push   %r13
    bc47:	41 54                	push   %r12
    bc49:	53                   	push   %rbx
    bc4a:	48 81 ec d8 0e 00 00 	sub    $0xed8,%rsp
    bc51:	89 bd 1c f1 ff ff    	mov    %edi,-0xee4(%rbp)
    bc57:	89 b5 18 f1 ff ff    	mov    %esi,-0xee8(%rbp)
    bc5d:	64 48 8b 04 25 28 00 	mov    %fs:0x28,%rax
    bc64:	00 00 
    bc66:	48 89 45 d8          	mov    %rax,-0x28(%rbp)
    bc6a:	31 c0                	xor    %eax,%eax
    bc6c:	c7 85 40 f1 ff ff 09 	movl   $0x9,-0xec0(%rbp)
    bc73:	00 00 00 
    bc76:	48 8d 05 7b 5a 01 00 	lea    0x15a7b(%rip),%rax        # 216f8 <g_72>
    bc7d:	48 89 85 c8 f1 ff ff 	mov    %rax,-0xe38(%rbp)
    bc84:	48 c7 85 d0 f1 ff ff 	movq   $0x0,-0xe30(%rbp)
    bc8b:	00 00 00 00 
    bc8f:	66 c7 85 30 f1 ff ff 	movw   $0xffff,-0xed0(%rbp)
    bc96:	ff ff 
    bc98:	66 c7 85 32 f1 ff ff 	movw   $0xed68,-0xece(%rbp)
    bc9f:	68 ed 
    bca1:	c7 85 50 f1 ff ff f6 	movl   $0xfffffff6,-0xeb0(%rbp)
    bca8:	ff ff ff 
    bcab:	48 8d 05 66 34 01 00 	lea    0x13466(%rip),%rax        # 1f118 <g_675+0x8>
    bcb2:	48 89 85 d8 f1 ff ff 	mov    %rax,-0xe28(%rbp)
    bcb9:	48 8d 05 b8 60 01 00 	lea    0x160b8(%rip),%rax        # 21d78 <g_844>
    bcc0:	48 89 85 e0 f1 ff ff 	mov    %rax,-0xe20(%rbp)
    bcc7:	48 b8 4c cb 91 6c 91 	movabs $0xf75de9916c91cb4c,%rax
    bcce:	e9 5d f7 
    bcd1:	48 89 85 78 f1 ff ff 	mov    %rax,-0xe88(%rbp)
    bcd8:	c7 85 54 f1 ff ff c5 	movl   $0x713b82c5,-0xeac(%rbp)
    bcdf:	82 3b 71 
    bce2:	c7 85 58 f1 ff ff c1 	movl   $0x512eeac1,-0xea8(%rbp)
    bce9:	ea 2e 51 
    bcec:	48 8d 85 70 fc ff ff 	lea    -0x390(%rbp),%rax
    bcf3:	48 8d 15 e6 e8 00 00 	lea    0xe8e6(%rip),%rdx        # 1a5e0 <g_5313+0x56c>
    bcfa:	b9 6c 00 00 00       	mov    $0x6c,%ecx
    bcff:	48 89 c7             	mov    %rax,%rdi
    bd02:	48 89 d6             	mov    %rdx,%rsi
    bd05:	f3 48 a5             	rep movsq %ds:(%rsi),%es:(%rdi)
    bd08:	c7 85 3c f1 ff ff 76 	movl   $0x9bfe476,-0xec4(%rbp)
    bd0f:	e4 bf 09 
    bd12:	c7 85 5c f1 ff ff 48 	movl   $0xd07d6048,-0xea4(%rbp)
    bd19:	60 7d d0 
    bd1c:	48 8d 05 9d 6f 01 00 	lea    0x16f9d(%rip),%rax        # 22cc0 <g_907>
    bd23:	48 89 85 e8 f1 ff ff 	mov    %rax,-0xe18(%rbp)
    bd2a:	c7 85 60 f1 ff ff f8 	movl   $0xfffffff8,-0xea0(%rbp)
    bd31:	ff ff ff 
    bd34:	48 8d 85 3c f1 ff ff 	lea    -0xec4(%rbp),%rax
    bd3b:	48 89 85 f0 f1 ff ff 	mov    %rax,-0xe10(%rbp)
    bd42:	c7 85 64 f1 ff ff 01 	movl   $0x1,-0xe9c(%rbp)
    bd49:	00 00 00 
    bd4c:	c7 85 68 f1 ff ff 68 	movl   $0x7c304568,-0xe98(%rbp)
    bd53:	45 30 7c 
    bd56:	48 b8 44 d4 c7 34 91 	movabs $0x73f22b9134c7d444,%rax
    bd5d:	2b f2 73 
    bd60:	48 89 85 f8 f1 ff ff 	mov    %rax,-0xe08(%rbp)
    bd67:	c6 85 2c f1 ff ff fe 	movb   $0xfe,-0xed4(%rbp)
    bd6e:	c7 85 6c f1 ff ff 5a 	movl   $0xe772aa5a,-0xe94(%rbp)
    bd75:	aa 72 e7 
    bd78:	48 c7 85 00 f2 ff ff 	movq   $0x0,-0xe00(%rbp)
    bd7f:	00 00 00 00 
    bd83:	c6 85 2d f1 ff ff 9e 	movb   $0x9e,-0xed3(%rbp)
    bd8a:	48 8d 85 f0 f9 ff ff 	lea    -0x610(%rbp),%rax
    bd91:	48 8d 15 68 43 01 00 	lea    0x14368(%rip),%rdx        # 20100 <g_5275+0xd80>
    bd98:	b9 50 00 00 00       	mov    $0x50,%ecx
    bd9d:	48 89 c7             	mov    %rax,%rdi
    bda0:	48 89 d6             	mov    %rdx,%rsi
    bda3:	f3 48 a5             	rep movsq %ds:(%rsi),%es:(%rdi)
    bda6:	48 8d 85 f0 f9 ff ff 	lea    -0x610(%rbp),%rax
    bdad:	48 83 c0 20          	add    $0x20,%rax
    bdb1:	48 89 85 80 f1 ff ff 	mov    %rax,-0xe80(%rbp)
    bdb8:	48 8d 85 80 f1 ff ff 	lea    -0xe80(%rbp),%rax
    bdbf:	48 89 85 08 f2 ff ff 	mov    %rax,-0xdf8(%rbp)
    bdc6:	48 c7 85 10 f2 ff ff 	movq   $0x0,-0xdf0(%rbp)
    bdcd:	00 00 00 00 
    bdd1:	48 c7 85 88 f1 ff ff 	movq   $0x0,-0xe78(%rbp)
    bdd8:	00 00 00 00 
    bddc:	48 8d 85 88 f1 ff ff 	lea    -0xe78(%rbp),%rax
    bde3:	48 89 85 18 f2 ff ff 	mov    %rax,-0xde8(%rbp)
    bdea:	c7 85 70 f1 ff ff 39 	movl   $0xf889f939,-0xe90(%rbp)
    bdf1:	f9 89 f8 
    bdf4:	48 c7 85 20 f2 ff ff 	movq   $0x0,-0xde0(%rbp)
    bdfb:	00 00 00 00 
    bdff:	48 b8 28 d0 ce 7a bb 	movabs $0xd8cae4bb7aced028,%rax
    be06:	e4 ca d8 
    be09:	48 89 85 28 f2 ff ff 	mov    %rax,-0xdd8(%rbp)
    be10:	48 8d 05 11 6f 01 00 	lea    0x16f11(%rip),%rax        # 22d28 <g_3370+0x8>
    be17:	48 89 85 30 f2 ff ff 	mov    %rax,-0xdd0(%rbp)
    be1e:	48 8d 85 30 f3 ff ff 	lea    -0xcd0(%rbp),%rax
    be25:	48 83 c0 28          	add    $0x28,%rax
    be29:	48 89 85 38 f2 ff ff 	mov    %rax,-0xdc8(%rbp)
    be30:	48 8d 85 78 f1 ff ff 	lea    -0xe88(%rbp),%rax
    be37:	48 89 85 90 f1 ff ff 	mov    %rax,-0xe70(%rbp)
    be3e:	48 8d 85 90 f1 ff ff 	lea    -0xe70(%rbp),%rax
    be45:	48 89 85 40 f2 ff ff 	mov    %rax,-0xdc0(%rbp)
    be4c:	c7 85 74 f1 ff ff 8e 	movl   $0x20ded8e,-0xe8c(%rbp)
    be53:	ed 0d 02 
    be56:	66 c7 85 34 f1 ff ff 	movw   $0x6641,-0xecc(%rbp)
    be5d:	41 66 
    be5f:	c6 85 2e f1 ff ff ff 	movb   $0xff,-0xed2(%rbp)
    be66:	48 8d 05 6b 32 01 00 	lea    0x1326b(%rip),%rax        # 1f0d8 <g_423>
    be6d:	48 89 85 48 f2 ff ff 	mov    %rax,-0xdb8(%rbp)
    be74:	66 c7 85 36 f1 ff ff 	movw   $0x7b87,-0xeca(%rbp)
    be7b:	87 7b 
    be7d:	c6 85 2f f1 ff ff 8c 	movb   $0x8c,-0xed1(%rbp)
    be84:	48 8d 85 80 f3 ff ff 	lea    -0xc80(%rbp),%rax
    be8b:	48 8d 15 ae ea 00 00 	lea    0xeaae(%rip),%rdx        # 1a940 <g_5313+0x8cc>
    be92:	b9 24 00 00 00       	mov    $0x24,%ecx
    be97:	48 89 c7             	mov    %rax,%rdi
    be9a:	48 89 d6             	mov    %rdx,%rsi
    be9d:	f3 48 a5             	rep movsq %ds:(%rsi),%es:(%rdi)
    bea0:	48 8d 05 f9 31 01 00 	lea    0x131f9(%rip),%rax        # 1f0a0 <g_240>
    bea7:	48 89 85 50 f2 ff ff 	mov    %rax,-0xdb0(%rbp)
    beae:	66 c7 85 38 f1 ff ff 	movw   $0xc4c0,-0xec8(%rbp)
    beb5:	c0 c4 
    beb7:	c7 85 44 f1 ff ff 00 	movl   $0x0,-0xebc(%rbp)
    bebe:	00 00 00 
    bec1:	eb 14                	jmp    bed7 <func_11+0x29a>
    bec3:	8b 85 44 f1 ff ff    	mov    -0xebc(%rbp),%eax
    bec9:	48 98                	cltq   
    becb:	c6 44 05 d3 00       	movb   $0x0,-0x2d(%rbp,%rax,1)
    bed0:	83 85 44 f1 ff ff 01 	addl   $0x1,-0xebc(%rbp)
    bed7:	83 bd 44 f1 ff ff 04 	cmpl   $0x4,-0xebc(%rbp)
    bede:	7e e3                	jle    bec3 <func_11+0x286>
    bee0:	c7 85 44 f1 ff ff 00 	movl   $0x0,-0xebc(%rbp)
    bee7:	00 00 00 
    beea:	eb 1b                	jmp    bf07 <func_11+0x2ca>
    beec:	8b 85 44 f1 ff ff    	mov    -0xebc(%rbp),%eax
    bef2:	48 98                	cltq   
    bef4:	48 c7 84 c5 30 f3 ff 	movq   $0x0,-0xcd0(%rbp,%rax,8)
    befb:	ff 00 00 00 00 
    bf00:	83 85 44 f1 ff ff 01 	addl   $0x1,-0xebc(%rbp)
    bf07:	83 bd 44 f1 ff ff 08 	cmpl   $0x8,-0xebc(%rbp)
    bf0e:	7e dc                	jle    beec <func_11+0x2af>
    bf10:	48 c7 05 0d 31 01 00 	movq   $0x0,0x1310d(%rip)        # 1f028 <g_35>
    bf17:	00 00 00 00 
    bf1b:	e9 05 0c 00 00       	jmpq   cb25 <func_11+0xee8>
    bf20:	48 8d 85 c0 f7 ff ff 	lea    -0x840(%rbp),%rax
    bf27:	48 8d 15 32 eb 00 00 	lea    0xeb32(%rip),%rdx        # 1aa60 <g_5313+0x9ec>
    bf2e:	b9 46 00 00 00       	mov    $0x46,%ecx
    bf33:	48 89 c7             	mov    %rax,%rdi
    bf36:	48 89 d6             	mov    %rdx,%rsi
    bf39:	f3 48 a5             	rep movsq %ds:(%rsi),%es:(%rdi)
    bf3c:	48 8d 05 4d 6d 01 00 	lea    0x16d4d(%rip),%rax        # 22c90 <g_66>
    bf43:	48 89 85 98 f1 ff ff 	mov    %rax,-0xe68(%rbp)
    bf4a:	48 8d 85 98 f1 ff ff 	lea    -0xe68(%rbp),%rax
    bf51:	48 89 85 a0 f1 ff ff 	mov    %rax,-0xe60(%rbp)
    bf58:	48 c7 85 58 f2 ff ff 	movq   $0x0,-0xda8(%rbp)
    bf5f:	00 00 00 00 
    bf63:	48 c7 85 60 f2 ff ff 	movq   $0x0,-0xda0(%rbp)
    bf6a:	00 00 00 00 
    bf6e:	48 8d 85 a0 f1 ff ff 	lea    -0xe60(%rbp),%rax
    bf75:	48 89 85 68 f2 ff ff 	mov    %rax,-0xd98(%rbp)
    bf7c:	48 8d 05 75 57 01 00 	lea    0x15775(%rip),%rax        # 216f8 <g_72>
    bf83:	48 89 85 70 f2 ff ff 	mov    %rax,-0xd90(%rbp)
    bf8a:	48 8d 05 d3 30 01 00 	lea    0x130d3(%rip),%rax        # 1f064 <g_88>
    bf91:	48 89 85 78 f2 ff ff 	mov    %rax,-0xd88(%rbp)
    bf98:	48 8d 05 39 32 01 00 	lea    0x13239(%rip),%rax        # 1f1d8 <g_2109>
    bf9f:	48 89 85 80 f2 ff ff 	mov    %rax,-0xd80(%rbp)
    bfa6:	48 c7 85 88 f2 ff ff 	movq   $0x0,-0xd78(%rbp)
    bfad:	00 00 00 00 
    bfb1:	48 8d 05 b8 30 01 00 	lea    0x130b8(%rip),%rax        # 1f070 <g_105>
    bfb8:	48 89 85 90 f2 ff ff 	mov    %rax,-0xd70(%rbp)
    bfbf:	48 8d 05 d2 6c 01 00 	lea    0x16cd2(%rip),%rax        # 22c98 <g_109>
    bfc6:	48 89 85 a8 f1 ff ff 	mov    %rax,-0xe58(%rbp)
    bfcd:	48 c7 85 b0 f1 ff ff 	movq   $0x0,-0xe50(%rbp)
    bfd4:	00 00 00 00 
    bfd8:	48 8d 85 b0 f1 ff ff 	lea    -0xe50(%rbp),%rax
    bfdf:	48 89 85 c0 f5 ff ff 	mov    %rax,-0xa40(%rbp)
    bfe6:	48 8d 85 b0 f1 ff ff 	lea    -0xe50(%rbp),%rax
    bfed:	48 89 85 c8 f5 ff ff 	mov    %rax,-0xa38(%rbp)
    bff4:	48 8d 85 b0 f1 ff ff 	lea    -0xe50(%rbp),%rax
    bffb:	48 89 85 d0 f5 ff ff 	mov    %rax,-0xa30(%rbp)
    c002:	48 8d 85 b0 f1 ff ff 	lea    -0xe50(%rbp),%rax
    c009:	48 89 85 d8 f5 ff ff 	mov    %rax,-0xa28(%rbp)
    c010:	48 8d 85 b0 f1 ff ff 	lea    -0xe50(%rbp),%rax
    c017:	48 89 85 e0 f5 ff ff 	mov    %rax,-0xa20(%rbp)
    c01e:	48 8d 85 b0 f1 ff ff 	lea    -0xe50(%rbp),%rax
    c025:	48 89 85 e8 f5 ff ff 	mov    %rax,-0xa18(%rbp)
    c02c:	48 8d 85 b0 f1 ff ff 	lea    -0xe50(%rbp),%rax
    c033:	48 89 85 f0 f5 ff ff 	mov    %rax,-0xa10(%rbp)
    c03a:	48 8d 85 b0 f1 ff ff 	lea    -0xe50(%rbp),%rax
    c041:	48 89 85 f8 f5 ff ff 	mov    %rax,-0xa08(%rbp)
    c048:	48 8d 85 b0 f1 ff ff 	lea    -0xe50(%rbp),%rax
    c04f:	48 89 85 00 f6 ff ff 	mov    %rax,-0xa00(%rbp)
    c056:	48 c7 85 08 f6 ff ff 	movq   $0x0,-0x9f8(%rbp)
    c05d:	00 00 00 00 
    c061:	48 8d 85 b0 f1 ff ff 	lea    -0xe50(%rbp),%rax
    c068:	48 89 85 10 f6 ff ff 	mov    %rax,-0x9f0(%rbp)
    c06f:	48 c7 85 18 f6 ff ff 	movq   $0x0,-0x9e8(%rbp)
    c076:	00 00 00 00 
    c07a:	48 c7 85 20 f6 ff ff 	movq   $0x0,-0x9e0(%rbp)
    c081:	00 00 00 00 
    c085:	48 c7 85 28 f6 ff ff 	movq   $0x0,-0x9d8(%rbp)
    c08c:	00 00 00 00 
    c090:	48 8d 85 b0 f1 ff ff 	lea    -0xe50(%rbp),%rax
    c097:	48 89 85 30 f6 ff ff 	mov    %rax,-0x9d0(%rbp)
    c09e:	48 c7 85 38 f6 ff ff 	movq   $0x0,-0x9c8(%rbp)
    c0a5:	00 00 00 00 
    c0a9:	48 8d 85 b0 f1 ff ff 	lea    -0xe50(%rbp),%rax
    c0b0:	48 89 85 40 f6 ff ff 	mov    %rax,-0x9c0(%rbp)
    c0b7:	48 c7 85 48 f6 ff ff 	movq   $0x0,-0x9b8(%rbp)
    c0be:	00 00 00 00 
    c0c2:	48 8d 85 b0 f1 ff ff 	lea    -0xe50(%rbp),%rax
    c0c9:	48 89 85 50 f6 ff ff 	mov    %rax,-0x9b0(%rbp)
    c0d0:	48 8d 85 b0 f1 ff ff 	lea    -0xe50(%rbp),%rax
    c0d7:	48 89 85 58 f6 ff ff 	mov    %rax,-0x9a8(%rbp)
    c0de:	48 8d 85 b0 f1 ff ff 	lea    -0xe50(%rbp),%rax
    c0e5:	48 89 85 60 f6 ff ff 	mov    %rax,-0x9a0(%rbp)
    c0ec:	48 8d 85 b0 f1 ff ff 	lea    -0xe50(%rbp),%rax
    c0f3:	48 89 85 68 f6 ff ff 	mov    %rax,-0x998(%rbp)
    c0fa:	48 8d 85 b0 f1 ff ff 	lea    -0xe50(%rbp),%rax
    c101:	48 89 85 70 f6 ff ff 	mov    %rax,-0x990(%rbp)
    c108:	48 8d 85 b0 f1 ff ff 	lea    -0xe50(%rbp),%rax
    c10f:	48 89 85 78 f6 ff ff 	mov    %rax,-0x988(%rbp)
    c116:	48 8d 85 b0 f1 ff ff 	lea    -0xe50(%rbp),%rax
    c11d:	48 89 85 80 f6 ff ff 	mov    %rax,-0x980(%rbp)
    c124:	48 8d 85 b0 f1 ff ff 	lea    -0xe50(%rbp),%rax
    c12b:	48 89 85 88 f6 ff ff 	mov    %rax,-0x978(%rbp)
    c132:	48 8d 85 b0 f1 ff ff 	lea    -0xe50(%rbp),%rax
    c139:	48 89 85 90 f6 ff ff 	mov    %rax,-0x970(%rbp)
    c140:	48 c7 85 98 f6 ff ff 	movq   $0x0,-0x968(%rbp)
    c147:	00 00 00 00 
    c14b:	48 8d 85 b0 f1 ff ff 	lea    -0xe50(%rbp),%rax
    c152:	48 89 85 a0 f6 ff ff 	mov    %rax,-0x960(%rbp)
    c159:	48 c7 85 a8 f6 ff ff 	movq   $0x0,-0x958(%rbp)
    c160:	00 00 00 00 
    c164:	48 c7 85 b0 f6 ff ff 	movq   $0x0,-0x950(%rbp)
    c16b:	00 00 00 00 
    c16f:	48 c7 85 b8 f6 ff ff 	movq   $0x0,-0x948(%rbp)
    c176:	00 00 00 00 
    c17a:	48 8d 85 b0 f1 ff ff 	lea    -0xe50(%rbp),%rax
    c181:	48 89 85 c0 f6 ff ff 	mov    %rax,-0x940(%rbp)
    c188:	48 c7 85 c8 f6 ff ff 	movq   $0x0,-0x938(%rbp)
    c18f:	00 00 00 00 
    c193:	48 8d 85 b0 f1 ff ff 	lea    -0xe50(%rbp),%rax
    c19a:	48 89 85 d0 f6 ff ff 	mov    %rax,-0x930(%rbp)
    c1a1:	48 c7 85 d8 f6 ff ff 	movq   $0x0,-0x928(%rbp)
    c1a8:	00 00 00 00 
    c1ac:	48 8d 85 b0 f1 ff ff 	lea    -0xe50(%rbp),%rax
    c1b3:	48 89 85 e0 f6 ff ff 	mov    %rax,-0x920(%rbp)
    c1ba:	48 8d 85 b0 f1 ff ff 	lea    -0xe50(%rbp),%rax
    c1c1:	48 89 85 e8 f6 ff ff 	mov    %rax,-0x918(%rbp)
    c1c8:	48 8d 85 b0 f1 ff ff 	lea    -0xe50(%rbp),%rax
    c1cf:	48 89 85 f0 f6 ff ff 	mov    %rax,-0x910(%rbp)
    c1d6:	48 8d 85 b0 f1 ff ff 	lea    -0xe50(%rbp),%rax
    c1dd:	48 89 85 f8 f6 ff ff 	mov    %rax,-0x908(%rbp)
    c1e4:	48 8d 85 b0 f1 ff ff 	lea    -0xe50(%rbp),%rax
    c1eb:	48 89 85 00 f7 ff ff 	mov    %rax,-0x900(%rbp)
    c1f2:	48 8d 85 b0 f1 ff ff 	lea    -0xe50(%rbp),%rax
    c1f9:	48 89 85 08 f7 ff ff 	mov    %rax,-0x8f8(%rbp)
    c200:	48 8d 85 b0 f1 ff ff 	lea    -0xe50(%rbp),%rax
    c207:	48 89 85 10 f7 ff ff 	mov    %rax,-0x8f0(%rbp)
    c20e:	48 8d 85 b0 f1 ff ff 	lea    -0xe50(%rbp),%rax
    c215:	48 89 85 18 f7 ff ff 	mov    %rax,-0x8e8(%rbp)
    c21c:	48 8d 85 b0 f1 ff ff 	lea    -0xe50(%rbp),%rax
    c223:	48 89 85 20 f7 ff ff 	mov    %rax,-0x8e0(%rbp)
    c22a:	48 c7 85 28 f7 ff ff 	movq   $0x0,-0x8d8(%rbp)
    c231:	00 00 00 00 
    c235:	48 8d 85 b0 f1 ff ff 	lea    -0xe50(%rbp),%rax
    c23c:	48 89 85 30 f7 ff ff 	mov    %rax,-0x8d0(%rbp)
    c243:	48 c7 85 38 f7 ff ff 	movq   $0x0,-0x8c8(%rbp)
    c24a:	00 00 00 00 
    c24e:	48 c7 85 40 f7 ff ff 	movq   $0x0,-0x8c0(%rbp)
    c255:	00 00 00 00 
    c259:	48 c7 85 48 f7 ff ff 	movq   $0x0,-0x8b8(%rbp)
    c260:	00 00 00 00 
    c264:	48 8d 85 b0 f1 ff ff 	lea    -0xe50(%rbp),%rax
    c26b:	48 89 85 50 f7 ff ff 	mov    %rax,-0x8b0(%rbp)
    c272:	48 c7 85 58 f7 ff ff 	movq   $0x0,-0x8a8(%rbp)
    c279:	00 00 00 00 
    c27d:	48 8d 85 b0 f1 ff ff 	lea    -0xe50(%rbp),%rax
    c284:	48 89 85 60 f7 ff ff 	mov    %rax,-0x8a0(%rbp)
    c28b:	48 c7 85 68 f7 ff ff 	movq   $0x0,-0x898(%rbp)
    c292:	00 00 00 00 
    c296:	48 8d 85 b0 f1 ff ff 	lea    -0xe50(%rbp),%rax
    c29d:	48 89 85 70 f7 ff ff 	mov    %rax,-0x890(%rbp)
    c2a4:	48 8d 85 b0 f1 ff ff 	lea    -0xe50(%rbp),%rax
    c2ab:	48 89 85 78 f7 ff ff 	mov    %rax,-0x888(%rbp)
    c2b2:	48 8d 85 b0 f1 ff ff 	lea    -0xe50(%rbp),%rax
    c2b9:	48 89 85 80 f7 ff ff 	mov    %rax,-0x880(%rbp)
    c2c0:	48 8d 85 b0 f1 ff ff 	lea    -0xe50(%rbp),%rax
    c2c7:	48 89 85 88 f7 ff ff 	mov    %rax,-0x878(%rbp)
    c2ce:	48 8d 85 b0 f1 ff ff 	lea    -0xe50(%rbp),%rax
    c2d5:	48 89 85 90 f7 ff ff 	mov    %rax,-0x870(%rbp)
    c2dc:	48 8d 85 b0 f1 ff ff 	lea    -0xe50(%rbp),%rax
    c2e3:	48 89 85 98 f7 ff ff 	mov    %rax,-0x868(%rbp)
    c2ea:	48 8d 85 b0 f1 ff ff 	lea    -0xe50(%rbp),%rax
    c2f1:	48 89 85 a0 f7 ff ff 	mov    %rax,-0x860(%rbp)
    c2f8:	48 8d 85 b0 f1 ff ff 	lea    -0xe50(%rbp),%rax
    c2ff:	48 89 85 a8 f7 ff ff 	mov    %rax,-0x858(%rbp)
    c306:	48 8d 85 b0 f1 ff ff 	lea    -0xe50(%rbp),%rax
    c30d:	48 89 85 b0 f7 ff ff 	mov    %rax,-0x850(%rbp)
    c314:	48 8b 05 ed 53 01 00 	mov    0x153ed(%rip),%rax        # 21708 <g_167>
    c31b:	8b 00                	mov    (%rax),%eax
    c31d:	85 c0                	test   %eax,%eax
    c31f:	0f 84 8a 01 00 00    	je     c4af <func_11+0x872>
    c325:	66 c7 05 8c 2e 01 00 	movw   $0x3,0x12e8c(%rip)        # 1f1ba <g_1470>
    c32c:	03 00 
    c32e:	e9 6a 01 00 00       	jmpq   c49d <func_11+0x860>
    c333:	66 c7 05 a4 2e 01 00 	movw   $0x0,0x12ea4(%rip)        # 1f1e0 <g_2250>
    c33a:	00 00 
    c33c:	e9 03 01 00 00       	jmpq   c444 <func_11+0x807>
    c341:	48 8d 05 00 2d 01 00 	lea    0x12d00(%rip),%rax        # 1f048 <g_43+0x8>
    c348:	48 89 85 98 f2 ff ff 	mov    %rax,-0xd68(%rbp)
    c34f:	48 8d 05 16 2e 01 00 	lea    0x12e16(%rip),%rax        # 1f16c <g_864+0x4c>
    c356:	48 89 85 a0 f2 ff ff 	mov    %rax,-0xd60(%rbp)
    c35d:	48 c7 85 a8 f2 ff ff 	movq   $0x0,-0xd58(%rbp)
    c364:	00 00 00 00 
    c368:	48 8d 05 49 2d 01 00 	lea    0x12d49(%rip),%rax        # 1f0b8 <g_240+0x18>
    c36f:	48 89 85 b0 f2 ff ff 	mov    %rax,-0xd50(%rbp)
    c376:	48 8d 05 ef 2d 01 00 	lea    0x12def(%rip),%rax        # 1f16c <g_864+0x4c>
    c37d:	48 89 85 b8 f2 ff ff 	mov    %rax,-0xd48(%rbp)
    c384:	c6 05 f1 2c 01 00 05 	movb   $0x5,0x12cf1(%rip)        # 1f07c <g_165>
    c38b:	e9 80 00 00 00       	jmpq   c410 <func_11+0x7d3>
    c390:	48 8d 05 41 2e 01 00 	lea    0x12e41(%rip),%rax        # 1f1d8 <g_2109>
    c397:	48 89 85 c0 f2 ff ff 	mov    %rax,-0xd40(%rbp)
    c39e:	8b 95 18 f1 ff ff    	mov    -0xee8(%rbp),%edx
    c3a4:	8b 85 1c f1 ff ff    	mov    -0xee4(%rbp),%eax
    c3aa:	89 d6                	mov    %edx,%esi
    c3ac:	89 c7                	mov    %eax,%edi
    c3ae:	e8 03 d2 ff ff       	callq  95b6 <safe_add_func_int32_t_s_s>
    c3b3:	48 63 d0             	movslq %eax,%rdx
    c3b6:	48 8b 85 c0 f2 ff ff 	mov    -0xd40(%rbp),%rax
    c3bd:	48 89 10             	mov    %rdx,(%rax)
    c3c0:	48 8b 85 c0 f2 ff ff 	mov    -0xd40(%rbp),%rax
    c3c7:	48 8b 00             	mov    (%rax),%rax
    c3ca:	48 89 c2             	mov    %rax,%rdx
    c3cd:	48 b8 76 ee 2f 9c f0 	movabs $0xd30447f09c2fee76,%rax
    c3d4:	47 04 d3 
    c3d7:	48 39 c2             	cmp    %rax,%rdx
    c3da:	0f 96 c0             	setbe  %al
    c3dd:	0f b6 c0             	movzbl %al,%eax
    c3e0:	be 04 00 00 00       	mov    $0x4,%esi
    c3e5:	89 c7                	mov    %eax,%edi
    c3e7:	e8 60 d8 ff ff       	callq  9c4c <safe_lshift_func_uint8_t_u_u>
    c3ec:	0f b6 c0             	movzbl %al,%eax
    c3ef:	0b 85 18 f1 ff ff    	or     -0xee8(%rbp),%eax
    c3f5:	89 c2                	mov    %eax,%edx
    c3f7:	48 8b 05 ca 5e 01 00 	mov    0x15eca(%rip),%rax        # 222c8 <g_2469>
    c3fe:	89 10                	mov    %edx,(%rax)
    c400:	0f b6 05 75 2c 01 00 	movzbl 0x12c75(%rip),%eax        # 1f07c <g_165>
    c407:	83 e8 01             	sub    $0x1,%eax
    c40a:	88 05 6c 2c 01 00    	mov    %al,0x12c6c(%rip)        # 1f07c <g_165>
    c410:	0f b6 05 65 2c 01 00 	movzbl 0x12c65(%rip),%eax        # 1f07c <g_165>
    c417:	84 c0                	test   %al,%al
    c419:	0f 89 71 ff ff ff    	jns    c390 <func_11+0x753>
    c41f:	48 8b 05 ea 5d 01 00 	mov    0x15dea(%rip),%rax        # 22210 <g_1803>
    c426:	8b 00                	mov    (%rax),%eax
    c428:	85 c0                	test   %eax,%eax
    c42a:	75 2b                	jne    c457 <func_11+0x81a>
    c42c:	83 85 40 f1 ff ff 01 	addl   $0x1,-0xec0(%rbp)
    c433:	0f b7 05 a6 2d 01 00 	movzwl 0x12da6(%rip),%eax        # 1f1e0 <g_2250>
    c43a:	83 c0 01             	add    $0x1,%eax
    c43d:	66 89 05 9c 2d 01 00 	mov    %ax,0x12d9c(%rip)        # 1f1e0 <g_2250>
    c444:	0f b7 05 95 2d 01 00 	movzwl 0x12d95(%rip),%eax        # 1f1e0 <g_2250>
    c44b:	66 83 f8 03          	cmp    $0x3,%ax
    c44f:	0f 86 ec fe ff ff    	jbe    c341 <func_11+0x704>
    c455:	eb 01                	jmp    c458 <func_11+0x81b>
    c457:	90                   	nop
    c458:	c6 05 19 2c 01 00 03 	movb   $0x3,0x12c19(%rip)        # 1f078 <g_155>
    c45f:	eb 1d                	jmp    c47e <func_11+0x841>
    c461:	48 8b 05 78 5d 01 00 	mov    0x15d78(%rip),%rax        # 221e0 <g_1549>
    c468:	8b 00                	mov    (%rax),%eax
    c46a:	85 c0                	test   %eax,%eax
    c46c:	75 1d                	jne    c48b <func_11+0x84e>
    c46e:	0f b6 05 03 2c 01 00 	movzbl 0x12c03(%rip),%eax        # 1f078 <g_155>
    c475:	83 c0 01             	add    $0x1,%eax
    c478:	88 05 fa 2b 01 00    	mov    %al,0x12bfa(%rip)        # 1f078 <g_155>
    c47e:	0f b6 05 f3 2b 01 00 	movzbl 0x12bf3(%rip),%eax        # 1f078 <g_155>
    c485:	3c 09                	cmp    $0x9,%al
    c487:	76 d8                	jbe    c461 <func_11+0x824>
    c489:	eb 01                	jmp    c48c <func_11+0x84f>
    c48b:	90                   	nop
    c48c:	0f b7 05 27 2d 01 00 	movzwl 0x12d27(%rip),%eax        # 1f1ba <g_1470>
    c493:	83 e8 01             	sub    $0x1,%eax
    c496:	66 89 05 1d 2d 01 00 	mov    %ax,0x12d1d(%rip)        # 1f1ba <g_1470>
    c49d:	0f b7 05 16 2d 01 00 	movzwl 0x12d16(%rip),%eax        # 1f1ba <g_1470>
    c4a4:	66 85 c0             	test   %ax,%ax
    c4a7:	0f 89 86 fe ff ff    	jns    c333 <func_11+0x6f6>
    c4ad:	eb 56                	jmp    c505 <func_11+0x8c8>
    c4af:	48 8b 05 1a 5e 01 00 	mov    0x15e1a(%rip),%rax        # 222d0 <g_2478>
    c4b6:	8b 95 18 f1 ff ff    	mov    -0xee8(%rbp),%edx
    c4bc:	89 10                	mov    %edx,(%rax)
    c4be:	c6 05 fb 2c 01 00 00 	movb   $0x0,0x12cfb(%rip)        # 1f1c0 <g_1781>
    c4c5:	eb 33                	jmp    c4fa <func_11+0x8bd>
    c4c7:	0f b6 05 f2 2c 01 00 	movzbl 0x12cf2(%rip),%eax        # 1f1c0 <g_1781>
    c4ce:	0f be c0             	movsbl %al,%eax
    c4d1:	48 98                	cltq   
    c4d3:	48 8d 14 c5 00 00 00 	lea    0x0(,%rax,8),%rdx
    c4da:	00 
    c4db:	48 8d 05 3e 5d 01 00 	lea    0x15d3e(%rip),%rax        # 22220 <g_2192>
    c4e2:	48 c7 04 02 00 00 00 	movq   $0x0,(%rdx,%rax,1)
    c4e9:	00 
    c4ea:	0f b6 05 cf 2c 01 00 	movzbl 0x12ccf(%rip),%eax        # 1f1c0 <g_1781>
    c4f1:	83 c0 01             	add    $0x1,%eax
    c4f4:	88 05 c6 2c 01 00    	mov    %al,0x12cc6(%rip)        # 1f1c0 <g_1781>
    c4fa:	0f b6 05 bf 2c 01 00 	movzbl 0x12cbf(%rip),%eax        # 1f1c0 <g_1781>
    c501:	3c 05                	cmp    $0x5,%al
    c503:	7e c2                	jle    c4c7 <func_11+0x88a>
    c505:	8b 9d 1c f1 ff ff    	mov    -0xee4(%rbp),%ebx
    c50b:	48 8b 05 e6 51 01 00 	mov    0x151e6(%rip),%rax        # 216f8 <g_72>
    c512:	48 8b 10             	mov    (%rax),%rdx
    c515:	48 8b 85 a0 f1 ff ff 	mov    -0xe60(%rbp),%rax
    c51c:	48 89 85 d0 f1 ff ff 	mov    %rax,-0xe30(%rbp)
    c523:	48 8b 85 68 f2 ff ff 	mov    -0xd98(%rbp),%rax
    c52a:	48 8b 8d d0 f1 ff ff 	mov    -0xe30(%rbp),%rcx
    c531:	48 89 08             	mov    %rcx,(%rax)
    c534:	48 8b 85 68 f2 ff ff 	mov    -0xd98(%rbp),%rax
    c53b:	48 8b 00             	mov    (%rax),%rax
    c53e:	48 8d 0d 9b 25 01 00 	lea    0x1259b(%rip),%rcx        # 1eae0 <g_65>
    c545:	48 39 c8             	cmp    %rcx,%rax
    c548:	0f 95 c0             	setne  %al
    c54b:	0f b6 c0             	movzbl %al,%eax
    c54e:	48 89 d6             	mov    %rdx,%rsi
    c551:	48 89 c7             	mov    %rax,%rdi
    c554:	e8 56 db ff ff       	callq  a0af <safe_div_func_uint64_t_u_u>
    c559:	98                   	cwtl   
    c55a:	89 de                	mov    %ebx,%esi
    c55c:	89 c7                	mov    %eax,%edi
    c55e:	e8 c7 cf ff ff       	callq  952a <safe_rshift_func_int16_t_s_s>
    c563:	48 8b 05 be 2a 01 00 	mov    0x12abe(%rip),%rax        # 1f028 <g_35>
    c56a:	48 8d 14 c5 00 00 00 	lea    0x0(,%rax,8),%rdx
    c571:	00 
    c572:	48 8d 05 a7 5c 01 00 	lea    0x15ca7(%rip),%rax        # 22220 <g_2192>
    c579:	48 8b 04 02          	mov    (%rdx,%rax,1),%rax
    c57d:	48 85 c0             	test   %rax,%rax
    c580:	0f 95 c0             	setne  %al
    c583:	0f b6 c0             	movzbl %al,%eax
    c586:	be 03 00 00 00       	mov    $0x3,%esi
    c58b:	89 c7                	mov    %eax,%edi
    c58d:	e8 2c d8 ff ff       	callq  9dbe <safe_lshift_func_uint16_t_u_s>
    c592:	0f b6 c0             	movzbl %al,%eax
    c595:	be 00 00 00 00       	mov    $0x0,%esi
    c59a:	89 c7                	mov    %eax,%edi
    c59c:	e8 b9 d5 ff ff       	callq  9b5a <safe_add_func_uint8_t_u_u>
    c5a1:	8b 95 ec f8 ff ff    	mov    -0x714(%rbp),%edx
    c5a7:	8b 85 1c f1 ff ff    	mov    -0xee4(%rbp),%eax
    c5ad:	39 c2                	cmp    %eax,%edx
    c5af:	48 8b 05 b2 57 01 00 	mov    0x157b2(%rip),%rax        # 21d68 <g_586>
    c5b6:	48 8b 95 c8 f1 ff ff 	mov    -0xe38(%rbp),%rdx
    c5bd:	48 89 10             	mov    %rdx,(%rax)
    c5c0:	48 8b 00             	mov    (%rax),%rax
    c5c3:	48 39 85 70 f2 ff ff 	cmp    %rax,-0xd90(%rbp)
    c5ca:	0f 95 c0             	setne  %al
    c5cd:	0f b6 d0             	movzbl %al,%edx
    c5d0:	48 8b 85 78 f2 ff ff 	mov    -0xd88(%rbp),%rax
    c5d7:	89 10                	mov    %edx,(%rax)
    c5d9:	48 8b 85 98 f1 ff ff 	mov    -0xe68(%rbp),%rax
    c5e0:	48 c7 00 00 00 00 00 	movq   $0x0,(%rax)
    c5e7:	0f b7 85 30 f1 ff ff 	movzwl -0xed0(%rbp),%eax
    c5ee:	0f b6 d8             	movzbl %al,%ebx
    c5f1:	8b 85 1c f1 ff ff    	mov    -0xee4(%rbp),%eax
    c5f7:	41 89 c4             	mov    %eax,%r12d
    c5fa:	8b 95 40 f1 ff ff    	mov    -0xec0(%rbp),%edx
    c600:	0f b7 05 73 2a 01 00 	movzwl 0x12a73(%rip),%eax        # 1f07a <g_159>
    c607:	0f b7 c8             	movzwl %ax,%ecx
    c60a:	48 8b 85 80 f2 ff ff 	mov    -0xd80(%rbp),%rax
    c611:	48 8b 30             	mov    (%rax),%rsi
    c614:	8b 85 18 f1 ff ff    	mov    -0xee8(%rbp),%eax
    c61a:	48 21 c6             	and    %rax,%rsi
    c61d:	48 8b 85 80 f2 ff ff 	mov    -0xd80(%rbp),%rax
    c624:	48 89 30             	mov    %rsi,(%rax)
    c627:	48 8b 85 80 f2 ff ff 	mov    -0xd80(%rbp),%rax
    c62e:	48 8b 00             	mov    (%rax),%rax
    c631:	48 39 c1             	cmp    %rax,%rcx
    c634:	0f 95 c0             	setne  %al
    c637:	0f b6 c0             	movzbl %al,%eax
    c63a:	89 d6                	mov    %edx,%esi
    c63c:	89 c7                	mov    %eax,%edi
    c63e:	e8 7b d7 ff ff       	callq  9dbe <safe_lshift_func_uint16_t_u_s>
    c643:	66 85 c0             	test   %ax,%ax
    c646:	74 10                	je     c658 <func_11+0xa1b>
    c648:	83 bd 18 f1 ff ff 00 	cmpl   $0x0,-0xee8(%rbp)
    c64f:	74 07                	je     c658 <func_11+0xa1b>
    c651:	b8 01 00 00 00       	mov    $0x1,%eax
    c656:	eb 05                	jmp    c65d <func_11+0xa20>
    c658:	b8 00 00 00 00       	mov    $0x0,%eax
    c65d:	85 c0                	test   %eax,%eax
    c65f:	0f 95 c0             	setne  %al
    c662:	0f b6 c0             	movzbl %al,%eax
    c665:	48 be 6c e3 51 93 3f 	movabs $0x9d71703f9351e36c,%rsi
    c66c:	70 71 9d 
    c66f:	48 89 c7             	mov    %rax,%rdi
    c672:	e8 80 d3 ff ff       	callq  99f7 <safe_div_func_int64_t_s_s>
    c677:	44 89 e6             	mov    %r12d,%esi
    c67a:	89 c7                	mov    %eax,%edi
    c67c:	e8 7c d8 ff ff       	callq  9efd <safe_mod_func_uint32_t_u_u>
    c681:	3d 1d e2 69 5e       	cmp    $0x5e69e21d,%eax
    c686:	74 07                	je     c68f <func_11+0xa52>
    c688:	ba 91 00 00 00       	mov    $0x91,%edx
    c68d:	eb 05                	jmp    c694 <func_11+0xa57>
    c68f:	ba 90 00 00 00       	mov    $0x90,%edx
    c694:	8b 85 1c f1 ff ff    	mov    -0xee4(%rbp),%eax
    c69a:	48 98                	cltq   
    c69c:	48 39 c2             	cmp    %rax,%rdx
    c69f:	8b 85 18 f1 ff ff    	mov    -0xee8(%rbp),%eax
    c6a5:	0f b6 c0             	movzbl %al,%eax
    c6a8:	89 de                	mov    %ebx,%esi
    c6aa:	89 c7                	mov    %eax,%edi
    c6ac:	e8 fd d4 ff ff       	callq  9bae <safe_mod_func_uint8_t_u_u>
    c6b1:	84 c0                	test   %al,%al
    c6b3:	74 13                	je     c6c8 <func_11+0xa8b>
    c6b5:	0f b7 05 56 2a 01 00 	movzwl 0x12a56(%rip),%eax        # 1f112 <g_675+0x2>
    c6bc:	66 85 c0             	test   %ax,%ax
    c6bf:	74 07                	je     c6c8 <func_11+0xa8b>
    c6c1:	ba 01 00 00 00       	mov    $0x1,%edx
    c6c6:	eb 05                	jmp    c6cd <func_11+0xa90>
    c6c8:	ba 00 00 00 00       	mov    $0x0,%edx
    c6cd:	48 8b 85 90 f2 ff ff 	mov    -0xd70(%rbp),%rax
    c6d4:	0f b6 00             	movzbl (%rax),%eax
    c6d7:	09 c2                	or     %eax,%edx
    c6d9:	48 8b 85 90 f2 ff ff 	mov    -0xd70(%rbp),%rax
    c6e0:	88 10                	mov    %dl,(%rax)
    c6e2:	48 8b 85 90 f2 ff ff 	mov    -0xd70(%rbp),%rax
    c6e9:	0f b6 00             	movzbl (%rax),%eax
    c6ec:	0f b6 d0             	movzbl %al,%edx
    c6ef:	83 bd 18 f1 ff ff 00 	cmpl   $0x0,-0xee8(%rbp)
    c6f6:	75 15                	jne    c70d <func_11+0xad0>
    c6f8:	48 8b 05 f1 5a 01 00 	mov    0x15af1(%rip),%rax        # 221f0 <g_1569>
    c6ff:	48 8b 00             	mov    (%rax),%rax
    c702:	48 8b 00             	mov    (%rax),%rax
    c705:	48 8b 00             	mov    (%rax),%rax
    c708:	48 85 c0             	test   %rax,%rax
    c70b:	74 07                	je     c714 <func_11+0xad7>
    c70d:	b8 01 00 00 00       	mov    $0x1,%eax
    c712:	eb 05                	jmp    c719 <func_11+0xadc>
    c714:	b8 00 00 00 00       	mov    $0x0,%eax
    c719:	0f b6 c0             	movzbl %al,%eax
    c71c:	89 d6                	mov    %edx,%esi
    c71e:	89 c7                	mov    %eax,%edi
    c720:	e8 53 d4 ff ff       	callq  9b78 <safe_sub_func_uint8_t_u_u>
    c725:	83 f0 01             	xor    $0x1,%eax
    c728:	0f b6 c0             	movzbl %al,%eax
    c72b:	89 85 1c f1 ff ff    	mov    %eax,-0xee4(%rbp)
    c731:	48 8b 05 30 5a 01 00 	mov    0x15a30(%rip),%rax        # 22168 <g_1531>
    c738:	8b 95 1c f1 ff ff    	mov    -0xee4(%rbp),%edx
    c73e:	89 10                	mov    %edx,(%rax)
    c740:	c7 05 22 29 01 00 00 	movl   $0x0,0x12922(%rip)        # 1f06c <g_98>
    c747:	00 00 00 
    c74a:	e9 b5 03 00 00       	jmpq   cb04 <func_11+0xec7>
    c74f:	48 8d 05 22 56 01 00 	lea    0x15622(%rip),%rax        # 21d78 <g_844>
    c756:	48 89 85 c8 f2 ff ff 	mov    %rax,-0xd38(%rbp)
    c75d:	48 8d 85 a0 f4 ff ff 	lea    -0xb60(%rbp),%rax
    c764:	48 8d 15 15 3c 01 00 	lea    0x13c15(%rip),%rdx        # 20380 <g_5275+0x1000>
    c76b:	b9 24 00 00 00       	mov    $0x24,%ecx
    c770:	48 89 c7             	mov    %rax,%rdi
    c773:	48 89 d6             	mov    %rdx,%rsi
    c776:	f3 48 a5             	rep movsq %ds:(%rsi),%es:(%rdi)
    c779:	48 8d 05 18 65 01 00 	lea    0x16518(%rip),%rax        # 22c98 <g_109>
    c780:	48 89 85 d0 f2 ff ff 	mov    %rax,-0xd30(%rbp)
    c787:	66 c7 85 3a f1 ff ff 	movw   $0x2745,-0xec6(%rbp)
    c78e:	45 27 
    c790:	48 8d 05 49 2a 01 00 	lea    0x12a49(%rip),%rax        # 1f1e0 <g_2250>
    c797:	48 89 85 b8 f1 ff ff 	mov    %rax,-0xe48(%rbp)
    c79e:	48 8d 85 b8 f1 ff ff 	lea    -0xe48(%rbp),%rax
    c7a5:	48 89 85 c0 f1 ff ff 	mov    %rax,-0xe40(%rbp)
    c7ac:	48 8d 85 c0 f1 ff ff 	lea    -0xe40(%rbp),%rax
    c7b3:	48 89 85 d8 f2 ff ff 	mov    %rax,-0xd28(%rbp)
    c7ba:	48 83 bd c8 f2 ff ff 	cmpq   $0x0,-0xd38(%rbp)
    c7c1:	00 
    c7c2:	0f 95 c2             	setne  %dl
    c7c5:	48 8b 05 34 4f 01 00 	mov    0x14f34(%rip),%rax        # 21700 <g_113>
    c7cc:	0f b6 d2             	movzbl %dl,%edx
    c7cf:	89 10                	mov    %edx,(%rax)
    c7d1:	48 c7 05 fc 29 01 00 	movq   $0x4,0x129fc(%rip)        # 1f1d8 <g_2109>
    c7d8:	04 00 00 00 
    c7dc:	e9 04 03 00 00       	jmpq   cae5 <func_11+0xea8>
    c7e1:	48 8d 05 80 28 01 00 	lea    0x12880(%rip),%rax        # 1f068 <g_91>
    c7e8:	48 89 85 e0 f2 ff ff 	mov    %rax,-0xd20(%rbp)
    c7ef:	48 c7 85 e8 f2 ff ff 	movq   $0x0,-0xd18(%rbp)
    c7f6:	00 00 00 00 
    c7fa:	48 8d 05 a7 55 01 00 	lea    0x155a7(%rip),%rax        # 21da8 <g_906>
    c801:	48 89 85 f0 f2 ff ff 	mov    %rax,-0xd10(%rbp)
    c808:	c7 85 48 f1 ff ff 00 	movl   $0x0,-0xeb8(%rbp)
    c80f:	00 00 00 
    c812:	48 8d 05 b7 64 01 00 	lea    0x164b7(%rip),%rax        # 22cd0 <g_1378>
    c819:	48 89 85 f8 f2 ff ff 	mov    %rax,-0xd08(%rbp)
    c820:	c7 85 4c f1 ff ff 00 	movl   $0x0,-0xeb4(%rbp)
    c827:	00 00 00 
    c82a:	eb 1e                	jmp    c84a <func_11+0xc0d>
    c82c:	8b 85 4c f1 ff ff    	mov    -0xeb4(%rbp),%eax
    c832:	48 98                	cltq   
    c834:	48 8d 95 a8 f1 ff ff 	lea    -0xe58(%rbp),%rdx
    c83b:	48 89 94 c5 00 f3 ff 	mov    %rdx,-0xd00(%rbp,%rax,8)
    c842:	ff 
    c843:	83 85 4c f1 ff ff 01 	addl   $0x1,-0xeb4(%rbp)
    c84a:	83 bd 4c f1 ff ff 05 	cmpl   $0x5,-0xeb4(%rbp)
    c851:	7e d9                	jle    c82c <func_11+0xbef>
    c853:	8b 85 18 f1 ff ff    	mov    -0xee8(%rbp),%eax
    c859:	0f b6 d8             	movzbl %al,%ebx
    c85c:	8b 85 1c f1 ff ff    	mov    -0xee4(%rbp),%eax
    c862:	89 c2                	mov    %eax,%edx
    c864:	48 8b 85 e0 f2 ff ff 	mov    -0xd20(%rbp),%rax
    c86b:	66 89 10             	mov    %dx,(%rax)
    c86e:	48 8b 85 e0 f2 ff ff 	mov    -0xd20(%rbp),%rax
    c875:	44 0f b7 28          	movzwl (%rax),%r13d
    c879:	44 8b a5 50 f1 ff ff 	mov    -0xeb0(%rbp),%r12d
    c880:	8b 85 1c f1 ff ff    	mov    -0xee4(%rbp),%eax
    c886:	0f be d0             	movsbl %al,%edx
    c889:	48 8b 05 20 55 01 00 	mov    0x15520(%rip),%rax        # 21db0 <g_954>
    c890:	8b 00                	mov    (%rax),%eax
    c892:	85 c0                	test   %eax,%eax
    c894:	75 0a                	jne    c8a0 <func_11+0xc63>
    c896:	66 83 bd 3a f1 ff ff 	cmpw   $0x0,-0xec6(%rbp)
    c89d:	00 
    c89e:	74 11                	je     c8b1 <func_11+0xc74>
    c8a0:	8b 85 1c f1 ff ff    	mov    -0xee4(%rbp),%eax
    c8a6:	85 c0                	test   %eax,%eax
    c8a8:	74 07                	je     c8b1 <func_11+0xc74>
    c8aa:	b8 01 00 00 00       	mov    $0x1,%eax
    c8af:	eb 05                	jmp    c8b6 <func_11+0xc79>
    c8b1:	b8 00 00 00 00       	mov    $0x0,%eax
    c8b6:	0f be c0             	movsbl %al,%eax
    c8b9:	89 d6                	mov    %edx,%esi
    c8bb:	89 c7                	mov    %eax,%edi
    c8bd:	e8 30 c9 ff ff       	callq  91f2 <safe_sub_func_int8_t_s_s>
    c8c2:	48 8b 85 f0 f2 ff ff 	mov    -0xd10(%rbp),%rax
    c8c9:	48 3b 85 d8 f2 ff ff 	cmp    -0xd28(%rbp),%rax
    c8d0:	0f 95 c0             	setne  %al
    c8d3:	0f b6 d0             	movzbl %al,%edx
    c8d6:	0f bf 85 32 f1 ff ff 	movswl -0xece(%rbp),%eax
    c8dd:	39 c2                	cmp    %eax,%edx
    c8df:	0f 95 c0             	setne  %al
    c8e2:	0f b6 d0             	movzbl %al,%edx
    c8e5:	48 8b 85 78 f2 ff ff 	mov    -0xd88(%rbp),%rax
    c8ec:	89 10                	mov    %edx,(%rax)
    c8ee:	48 8b 05 f3 58 01 00 	mov    0x158f3(%rip),%rax        # 221e8 <g_1570>
    c8f5:	48 8b 00             	mov    (%rax),%rax
    c8f8:	48 8b 00             	mov    (%rax),%rax
    c8fb:	48 85 c0             	test   %rax,%rax
    c8fe:	74 07                	je     c907 <func_11+0xcca>
    c900:	b8 01 00 00 00       	mov    $0x1,%eax
    c905:	eb 05                	jmp    c90c <func_11+0xccf>
    c907:	b8 00 00 00 00       	mov    $0x0,%eax
    c90c:	0f b7 c0             	movzwl %ax,%eax
    c90f:	be a9 b5 00 00       	mov    $0xb5a9,%esi
    c914:	89 c7                	mov    %eax,%edi
    c916:	e8 73 d4 ff ff       	callq  9d8e <safe_div_func_uint16_t_u_u>
    c91b:	0f b7 c0             	movzwl %ax,%eax
    c91e:	39 85 48 f1 ff ff    	cmp    %eax,-0xeb8(%rbp)
    c924:	0f 9e c0             	setle  %al
    c927:	0f b6 c0             	movzbl %al,%eax
    c92a:	89 c6                	mov    %eax,%esi
    c92c:	bf 00 00 00 00       	mov    $0x0,%edi
    c931:	e8 5d d2 ff ff       	callq  9b93 <safe_mul_func_uint8_t_u_u>
    c936:	44 89 e6             	mov    %r12d,%esi
    c939:	bf 01 00 00 00       	mov    $0x1,%edi
    c93e:	e8 c3 d4 ff ff       	callq  9e06 <safe_lshift_func_uint16_t_u_u>
    c943:	48 8b 05 66 54 01 00 	mov    0x15466(%rip),%rax        # 21db0 <g_954>
    c94a:	c7 00 01 00 00 00    	movl   $0x1,(%rax)
    c950:	8b 10                	mov    (%rax),%edx
    c952:	48 8b 85 f8 f2 ff ff 	mov    -0xd08(%rbp),%rax
    c959:	89 10                	mov    %edx,(%rax)
    c95b:	48 8b 05 06 58 01 00 	mov    0x15806(%rip),%rax        # 22168 <g_1531>
    c962:	8b 10                	mov    (%rax),%edx
    c964:	8b 85 1c f1 ff ff    	mov    -0xee4(%rbp),%eax
    c96a:	39 c2                	cmp    %eax,%edx
    c96c:	0f 95 c0             	setne  %al
    c96f:	0f b6 c0             	movzbl %al,%eax
    c972:	39 85 18 f1 ff ff    	cmp    %eax,-0xee8(%rbp)
    c978:	0f 95 c0             	setne  %al
    c97b:	0f b6 d0             	movzbl %al,%edx
    c97e:	48 8b 85 a8 f1 ff ff 	mov    -0xe58(%rbp),%rax
    c985:	48 89 05 4c 59 01 00 	mov    %rax,0x1594c(%rip)        # 222d8 <g_2527>
    c98c:	48 8b 05 45 59 01 00 	mov    0x15945(%rip),%rax        # 222d8 <g_2527>
    c993:	48 89 85 d0 f2 ff ff 	mov    %rax,-0xd30(%rbp)
    c99a:	48 c7 85 d8 f5 ff ff 	movq   $0x0,-0xa28(%rbp)
    c9a1:	00 00 00 00 
    c9a5:	48 8b 85 d8 f5 ff ff 	mov    -0xa28(%rbp),%rax
    c9ac:	48 85 c0             	test   %rax,%rax
    c9af:	0f 95 c0             	setne  %al
    c9b2:	0f b6 c0             	movzbl %al,%eax
    c9b5:	89 d6                	mov    %edx,%esi
    c9b7:	89 c7                	mov    %eax,%edi
    c9b9:	e8 e3 c8 ff ff       	callq  92a1 <safe_lshift_func_int8_t_s_s>
    c9be:	48 0f be c0          	movsbq %al,%rax
    c9c2:	48 89 c6             	mov    %rax,%rsi
    c9c5:	48 bf 1f cd 7b ac 93 	movabs $0x70242f93ac7bcd1f,%rdi
    c9cc:	2f 24 70 
    c9cf:	e8 db d6 ff ff       	callq  a0af <safe_div_func_uint64_t_u_u>
    c9d4:	be 1e 4b a4 22       	mov    $0x22a44b1e,%esi
    c9d9:	89 c7                	mov    %eax,%edi
    c9db:	e8 1d d5 ff ff       	callq  9efd <safe_mod_func_uint32_t_u_u>
    c9e0:	be 03 00 00 00       	mov    $0x3,%esi
    c9e5:	bf 00 00 00 00       	mov    $0x0,%edi
    c9ea:	e8 7d c9 ff ff       	callq  936c <safe_rshift_func_int8_t_s_u>
    c9ef:	66 98                	cbtw   
    c9f1:	66 41 39 c5          	cmp    %ax,%r13w
    c9f5:	0f 9e c0             	setle  %al
    c9f8:	0f b6 c0             	movzbl %al,%eax
    c9fb:	89 de                	mov    %ebx,%esi
    c9fd:	89 c7                	mov    %eax,%edi
    c9ff:	e8 74 d1 ff ff       	callq  9b78 <safe_sub_func_uint8_t_u_u>
    ca04:	48 8b 05 d5 57 01 00 	mov    0x157d5(%rip),%rax        # 221e0 <g_1549>
    ca0b:	8b 10                	mov    (%rax),%edx
    ca0d:	8b 05 35 26 01 00    	mov    0x12635(%rip),%eax        # 1f048 <g_43+0x8>
    ca13:	09 d0                	or     %edx,%eax
    ca15:	89 05 2d 26 01 00    	mov    %eax,0x1262d(%rip)        # 1f048 <g_43+0x8>
    ca1b:	c7 85 48 f1 ff ff 00 	movl   $0x0,-0xeb8(%rbp)
    ca22:	00 00 00 
    ca25:	eb 34                	jmp    ca5b <func_11+0xe1e>
    ca27:	48 8b 05 fa 25 01 00 	mov    0x125fa(%rip),%rax        # 1f028 <g_35>
    ca2e:	48 8d 48 03          	lea    0x3(%rax),%rcx
    ca32:	48 8b 85 98 f1 ff ff 	mov    -0xe68(%rbp),%rax
    ca39:	8b 95 48 f1 ff ff    	mov    -0xeb8(%rbp),%edx
    ca3f:	48 63 d2             	movslq %edx,%rdx
    ca42:	48 c1 e1 02          	shl    $0x2,%rcx
    ca46:	48 01 ca             	add    %rcx,%rdx
    ca49:	48 8b 94 d5 a0 f4 ff 	mov    -0xb60(%rbp,%rdx,8),%rdx
    ca50:	ff 
    ca51:	48 89 10             	mov    %rdx,(%rax)
    ca54:	83 85 48 f1 ff ff 01 	addl   $0x1,-0xeb8(%rbp)
    ca5b:	83 bd 48 f1 ff ff 03 	cmpl   $0x3,-0xeb8(%rbp)
    ca62:	7e c3                	jle    ca27 <func_11+0xdea>
    ca64:	c7 05 72 26 01 00 09 	movl   $0x9,0x12672(%rip)        # 1f0e0 <g_535>
    ca6b:	00 00 00 
    ca6e:	eb 58                	jmp    cac8 <func_11+0xe8b>
    ca70:	c6 05 e9 25 01 00 00 	movb   $0x0,0x125e9(%rip)        # 1f060 <g_56>
    ca77:	eb 35                	jmp    caae <func_11+0xe71>
    ca79:	48 8b 85 98 f1 ff ff 	mov    -0xe68(%rbp),%rax
    ca80:	48 8d 95 1c f1 ff ff 	lea    -0xee4(%rbp),%rdx
    ca87:	48 89 10             	mov    %rdx,(%rax)
    ca8a:	48 8b 85 a0 f1 ff ff 	mov    -0xe60(%rbp),%rax
    ca91:	48 8b 00             	mov    (%rax),%rax
    ca94:	48 8d 95 1c f1 ff ff 	lea    -0xee4(%rbp),%rdx
    ca9b:	48 89 10             	mov    %rdx,(%rax)
    ca9e:	0f b6 05 bb 25 01 00 	movzbl 0x125bb(%rip),%eax        # 1f060 <g_56>
    caa5:	83 c0 01             	add    $0x1,%eax
    caa8:	88 05 b2 25 01 00    	mov    %al,0x125b2(%rip)        # 1f060 <g_56>
    caae:	0f b6 05 ab 25 01 00 	movzbl 0x125ab(%rip),%eax        # 1f060 <g_56>
    cab5:	3c 09                	cmp    $0x9,%al
    cab7:	76 c0                	jbe    ca79 <func_11+0xe3c>
    cab9:	8b 05 21 26 01 00    	mov    0x12621(%rip),%eax        # 1f0e0 <g_535>
    cabf:	83 e8 01             	sub    $0x1,%eax
    cac2:	89 05 18 26 01 00    	mov    %eax,0x12618(%rip)        # 1f0e0 <g_535>
    cac8:	8b 05 12 26 01 00    	mov    0x12612(%rip),%eax        # 1f0e0 <g_535>
    cace:	83 f8 01             	cmp    $0x1,%eax
    cad1:	7f 9d                	jg     ca70 <func_11+0xe33>
    cad3:	48 8b 05 fe 26 01 00 	mov    0x126fe(%rip),%rax        # 1f1d8 <g_2109>
    cada:	48 83 e8 01          	sub    $0x1,%rax
    cade:	48 89 05 f3 26 01 00 	mov    %rax,0x126f3(%rip)        # 1f1d8 <g_2109>
    cae5:	48 8b 05 ec 26 01 00 	mov    0x126ec(%rip),%rax        # 1f1d8 <g_2109>
    caec:	48 85 c0             	test   %rax,%rax
    caef:	0f 8f ec fc ff ff    	jg     c7e1 <func_11+0xba4>
    caf5:	8b 05 71 25 01 00    	mov    0x12571(%rip),%eax        # 1f06c <g_98>
    cafb:	83 c0 01             	add    $0x1,%eax
    cafe:	89 05 68 25 01 00    	mov    %eax,0x12568(%rip)        # 1f06c <g_98>
    cb04:	8b 05 62 25 01 00    	mov    0x12562(%rip),%eax        # 1f06c <g_98>
    cb0a:	83 f8 09             	cmp    $0x9,%eax
    cb0d:	0f 86 3c fc ff ff    	jbe    c74f <func_11+0xb12>
    cb13:	48 8b 05 0e 25 01 00 	mov    0x1250e(%rip),%rax        # 1f028 <g_35>
    cb1a:	48 83 c0 01          	add    $0x1,%rax
    cb1e:	48 89 05 03 25 01 00 	mov    %rax,0x12503(%rip)        # 1f028 <g_35>
    cb25:	48 8b 05 fc 24 01 00 	mov    0x124fc(%rip),%rax        # 1f028 <g_35>
    cb2c:	48 83 f8 05          	cmp    $0x5,%rax
    cb30:	0f 86 ea f3 ff ff    	jbe    bf20 <func_11+0x2e3>
    cb36:	0f b7 85 38 f1 ff ff 	movzwl -0xec8(%rbp),%eax
    cb3d:	48 8b 5d d8          	mov    -0x28(%rbp),%rbx
    cb41:	64 48 33 1c 25 28 00 	xor    %fs:0x28,%rbx
    cb48:	00 00 
    cb4a:	74 05                	je     cb51 <func_11+0xf14>
    cb4c:	e8 1f c5 ff ff       	callq  9070 <__stack_chk_fail@plt>
    cb51:	48 81 c4 d8 0e 00 00 	add    $0xed8,%rsp
    cb58:	5b                   	pop    %rbx
    cb59:	41 5c                	pop    %r12
    cb5b:	41 5d                	pop    %r13
    cb5d:	5d                   	pop    %rbp
    cb5e:	c3                   	retq   

000000000000cb5f <func_16>:
    cb5f:	f3 0f 1e fa          	endbr64 
    cb63:	55                   	push   %rbp
    cb64:	48 89 e5             	mov    %rsp,%rbp
    cb67:	41 57                	push   %r15
    cb69:	41 56                	push   %r14
    cb6b:	41 55                	push   %r13
    cb6d:	41 54                	push   %r12
    cb6f:	53                   	push   %rbx
    cb70:	48 81 ec 98 0a 00 00 	sub    $0xa98,%rsp
    cb77:	89 f9                	mov    %edi,%ecx
    cb79:	89 d0                	mov    %edx,%eax
    cb7b:	89 ca                	mov    %ecx,%edx
    cb7d:	66 89 95 4c f5 ff ff 	mov    %dx,-0xab4(%rbp)
    cb84:	89 f2                	mov    %esi,%edx
    cb86:	88 95 48 f5 ff ff    	mov    %dl,-0xab8(%rbp)
    cb8c:	66 89 85 44 f5 ff ff 	mov    %ax,-0xabc(%rbp)
    cb93:	64 48 8b 04 25 28 00 	mov    %fs:0x28,%rax
    cb9a:	00 00 
    cb9c:	48 89 45 c8          	mov    %rax,-0x38(%rbp)
    cba0:	31 c0                	xor    %eax,%eax
    cba2:	48 c7 85 80 f5 ff ff 	movq   $0xffffffffffffffff,-0xa80(%rbp)
    cba9:	ff ff ff ff 
    cbad:	48 c7 85 98 f5 ff ff 	movq   $0x0,-0xa68(%rbp)
    cbb4:	00 00 00 00 
    cbb8:	48 8d 05 a9 24 01 00 	lea    0x124a9(%rip),%rax        # 1f068 <g_91>
    cbbf:	48 89 85 a0 f5 ff ff 	mov    %rax,-0xa60(%rbp)
    cbc6:	48 c7 85 a0 f6 ff ff 	movq   $0x0,-0x960(%rbp)
    cbcd:	00 00 00 00 
    cbd1:	48 8d 05 4c 25 01 00 	lea    0x1254c(%rip),%rax        # 1f124 <g_864+0x4>
    cbd8:	48 89 85 a8 f6 ff ff 	mov    %rax,-0x958(%rbp)
    cbdf:	48 8d 05 3e 25 01 00 	lea    0x1253e(%rip),%rax        # 1f124 <g_864+0x4>
    cbe6:	48 89 85 b0 f6 ff ff 	mov    %rax,-0x950(%rbp)
    cbed:	48 c7 85 b8 f6 ff ff 	movq   $0x0,-0x948(%rbp)
    cbf4:	00 00 00 00 
    cbf8:	48 8d 05 25 25 01 00 	lea    0x12525(%rip),%rax        # 1f124 <g_864+0x4>
    cbff:	48 89 85 c0 f6 ff ff 	mov    %rax,-0x940(%rbp)
    cc06:	48 c7 85 c8 f6 ff ff 	movq   $0x0,-0x938(%rbp)
    cc0d:	00 00 00 00 
    cc11:	48 8d 05 0c 25 01 00 	lea    0x1250c(%rip),%rax        # 1f124 <g_864+0x4>
    cc18:	48 89 85 d0 f6 ff ff 	mov    %rax,-0x930(%rbp)
    cc1f:	48 8d 05 fe 24 01 00 	lea    0x124fe(%rip),%rax        # 1f124 <g_864+0x4>
    cc26:	48 89 85 d8 f6 ff ff 	mov    %rax,-0x928(%rbp)
    cc2d:	48 c7 85 e0 f6 ff ff 	movq   $0x0,-0x920(%rbp)
    cc34:	00 00 00 00 
    cc38:	48 c7 85 e8 f6 ff ff 	movq   $0x0,-0x918(%rbp)
    cc3f:	00 00 00 00 
    cc43:	48 c7 85 f0 f6 ff ff 	movq   $0x0,-0x910(%rbp)
    cc4a:	00 00 00 00 
    cc4e:	48 c7 85 f8 f6 ff ff 	movq   $0x0,-0x908(%rbp)
    cc55:	00 00 00 00 
    cc59:	48 c7 85 00 f7 ff ff 	movq   $0x0,-0x900(%rbp)
    cc60:	00 00 00 00 
    cc64:	48 8d 05 b9 24 01 00 	lea    0x124b9(%rip),%rax        # 1f124 <g_864+0x4>
    cc6b:	48 89 85 08 f7 ff ff 	mov    %rax,-0x8f8(%rbp)
    cc72:	48 8d 05 ab 24 01 00 	lea    0x124ab(%rip),%rax        # 1f124 <g_864+0x4>
    cc79:	48 89 85 10 f7 ff ff 	mov    %rax,-0x8f0(%rbp)
    cc80:	48 c7 85 18 f7 ff ff 	movq   $0x0,-0x8e8(%rbp)
    cc87:	00 00 00 00 
    cc8b:	66 c7 85 5a f5 ff ff 	movw   $0x5bea,-0xaa6(%rbp)
    cc92:	ea 5b 
    cc94:	48 8d 05 c5 55 01 00 	lea    0x155c5(%rip),%rax        # 22260 <g_2191>
    cc9b:	48 89 85 a8 f5 ff ff 	mov    %rax,-0xa58(%rbp)
    cca2:	48 8d 05 ff 55 01 00 	lea    0x155ff(%rip),%rax        # 222a8 <g_2260>
    cca9:	48 89 85 20 f7 ff ff 	mov    %rax,-0x8e0(%rbp)
    ccb0:	48 8d 05 f1 55 01 00 	lea    0x155f1(%rip),%rax        # 222a8 <g_2260>
    ccb7:	48 89 85 28 f7 ff ff 	mov    %rax,-0x8d8(%rbp)
    ccbe:	48 8d 05 e3 55 01 00 	lea    0x155e3(%rip),%rax        # 222a8 <g_2260>
    ccc5:	48 89 85 30 f7 ff ff 	mov    %rax,-0x8d0(%rbp)
    cccc:	48 c7 85 38 f7 ff ff 	movq   $0x0,-0x8c8(%rbp)
    ccd3:	00 00 00 00 
    ccd7:	48 8d 05 ca 55 01 00 	lea    0x155ca(%rip),%rax        # 222a8 <g_2260>
    ccde:	48 89 85 40 f7 ff ff 	mov    %rax,-0x8c0(%rbp)
    cce5:	48 8d 05 bc 55 01 00 	lea    0x155bc(%rip),%rax        # 222a8 <g_2260>
    ccec:	48 89 85 48 f7 ff ff 	mov    %rax,-0x8b8(%rbp)
    ccf3:	48 8d 05 ae 55 01 00 	lea    0x155ae(%rip),%rax        # 222a8 <g_2260>
    ccfa:	48 89 85 50 f7 ff ff 	mov    %rax,-0x8b0(%rbp)
    cd01:	48 8d 05 a0 55 01 00 	lea    0x155a0(%rip),%rax        # 222a8 <g_2260>
    cd08:	48 89 85 58 f7 ff ff 	mov    %rax,-0x8a8(%rbp)
    cd0f:	48 8d 05 92 55 01 00 	lea    0x15592(%rip),%rax        # 222a8 <g_2260>
    cd16:	48 89 85 60 f7 ff ff 	mov    %rax,-0x8a0(%rbp)
    cd1d:	48 c7 85 68 f7 ff ff 	movq   $0x0,-0x898(%rbp)
    cd24:	00 00 00 00 
    cd28:	48 c7 85 70 f7 ff ff 	movq   $0x0,-0x890(%rbp)
    cd2f:	00 00 00 00 
    cd33:	48 8d 05 6e 55 01 00 	lea    0x1556e(%rip),%rax        # 222a8 <g_2260>
    cd3a:	48 89 85 78 f7 ff ff 	mov    %rax,-0x888(%rbp)
    cd41:	48 8d 05 60 55 01 00 	lea    0x15560(%rip),%rax        # 222a8 <g_2260>
    cd48:	48 89 85 80 f7 ff ff 	mov    %rax,-0x880(%rbp)
    cd4f:	48 8d 05 52 55 01 00 	lea    0x15552(%rip),%rax        # 222a8 <g_2260>
    cd56:	48 89 85 88 f7 ff ff 	mov    %rax,-0x878(%rbp)
    cd5d:	48 8d 05 44 55 01 00 	lea    0x15544(%rip),%rax        # 222a8 <g_2260>
    cd64:	48 89 85 90 f7 ff ff 	mov    %rax,-0x870(%rbp)
    cd6b:	48 c7 85 98 f7 ff ff 	movq   $0x0,-0x868(%rbp)
    cd72:	00 00 00 00 
    cd76:	48 8d 05 2b 55 01 00 	lea    0x1552b(%rip),%rax        # 222a8 <g_2260>
    cd7d:	48 89 85 a0 f7 ff ff 	mov    %rax,-0x860(%rbp)
    cd84:	48 8d 05 1d 55 01 00 	lea    0x1551d(%rip),%rax        # 222a8 <g_2260>
    cd8b:	48 89 85 a8 f7 ff ff 	mov    %rax,-0x858(%rbp)
    cd92:	c7 85 60 f5 ff ff 00 	movl   $0x0,-0xaa0(%rbp)
    cd99:	00 00 00 
    cd9c:	eb 1a                	jmp    cdb8 <func_16+0x259>
    cd9e:	8b 85 60 f5 ff ff    	mov    -0xaa0(%rbp),%eax
    cda4:	48 98                	cltq   
    cda6:	c7 84 85 10 f6 ff ff 	movl   $0xfffffffd,-0x9f0(%rbp,%rax,4)
    cdad:	fd ff ff ff 
    cdb1:	83 85 60 f5 ff ff 01 	addl   $0x1,-0xaa0(%rbp)
    cdb8:	83 bd 60 f5 ff ff 08 	cmpl   $0x8,-0xaa0(%rbp)
    cdbf:	7e dd                	jle    cd9e <func_16+0x23f>
    cdc1:	0f b7 85 4c f5 ff ff 	movzwl -0xab4(%rbp),%eax
    cdc8:	0f b6 d8             	movzbl %al,%ebx
    cdcb:	66 83 bd 44 f5 ff ff 	cmpw   $0x0,-0xabc(%rbp)
    cdd2:	00 
    cdd3:	0f 85 93 00 00 00    	jne    ce6c <func_16+0x30d>
    cdd9:	48 8b 95 80 f5 ff ff 	mov    -0xa80(%rbp),%rdx
    cde0:	48 8b 05 69 53 01 00 	mov    0x15369(%rip),%rax        # 22150 <g_1387>
    cde7:	89 10                	mov    %edx,(%rax)
    cde9:	44 8b 30             	mov    (%rax),%r14d
    cdec:	0f b6 05 85 22 01 00 	movzbl 0x12285(%rip),%eax        # 1f078 <g_155>
    cdf3:	44 0f b6 e0          	movzbl %al,%r12d
    cdf7:	0f b6 85 48 f5 ff ff 	movzbl -0xab8(%rbp),%eax
    cdfe:	44 0f be e8          	movsbl %al,%r13d
    ce02:	48 8b 05 bf 22 01 00 	mov    0x122bf(%rip),%rax        # 1f0c8 <g_294>
    ce09:	41 89 c7             	mov    %eax,%r15d
    ce0c:	0f b6 85 48 f5 ff ff 	movzbl -0xab8(%rbp),%eax
    ce13:	89 c6                	mov    %eax,%esi
    ce15:	bf ed d4 2e 46       	mov    $0x462ed4ed,%edi
    ce1a:	e8 97 c7 ff ff       	callq  95b6 <safe_add_func_int32_t_s_s>
    ce1f:	0f b6 c0             	movzbl %al,%eax
    ce22:	44 89 fe             	mov    %r15d,%esi
    ce25:	89 c7                	mov    %eax,%edi
    ce27:	e8 61 ce ff ff       	callq  9c8d <safe_rshift_func_uint8_t_u_s>
    ce2c:	84 c0                	test   %al,%al
    ce2e:	74 10                	je     ce40 <func_16+0x2e1>
    ce30:	80 bd 48 f5 ff ff 00 	cmpb   $0x0,-0xab8(%rbp)
    ce37:	74 07                	je     ce40 <func_16+0x2e1>
    ce39:	b8 01 00 00 00       	mov    $0x1,%eax
    ce3e:	eb 05                	jmp    ce45 <func_16+0x2e6>
    ce40:	b8 00 00 00 00       	mov    $0x0,%eax
    ce45:	0f be c0             	movsbl %al,%eax
    ce48:	44 89 ee             	mov    %r13d,%esi
    ce4b:	89 c7                	mov    %eax,%edi
    ce4d:	e8 18 c4 ff ff       	callq  926a <safe_div_func_int8_t_s_s>
    ce52:	0f b6 05 1f 22 01 00 	movzbl 0x1221f(%rip),%eax        # 1f078 <g_155>
    ce59:	0f b6 c0             	movzbl %al,%eax
    ce5c:	44 89 e6             	mov    %r12d,%esi
    ce5f:	89 c7                	mov    %eax,%edi
    ce61:	e8 6d c5 ff ff       	callq  93d3 <safe_sub_func_int16_t_s_s>
    ce66:	98                   	cwtl   
    ce67:	41 39 c6             	cmp    %eax,%r14d
    ce6a:	7f 07                	jg     ce73 <func_16+0x314>
    ce6c:	ba 01 00 00 00       	mov    $0x1,%edx
    ce71:	eb 05                	jmp    ce78 <func_16+0x319>
    ce73:	ba 00 00 00 00       	mov    $0x0,%edx
    ce78:	48 8b 05 91 53 01 00 	mov    0x15391(%rip),%rax        # 22210 <g_1803>
    ce7f:	89 10                	mov    %edx,(%rax)
    ce81:	8b 10                	mov    (%rax),%edx
    ce83:	0f b7 85 44 f5 ff ff 	movzwl -0xabc(%rbp),%eax
    ce8a:	89 d6                	mov    %edx,%esi
    ce8c:	89 c7                	mov    %eax,%edi
    ce8e:	e8 72 c7 ff ff       	callq  9605 <safe_sub_func_int32_t_s_s>
    ce93:	89 c1                	mov    %eax,%ecx
    ce95:	0f b6 95 48 f5 ff ff 	movzbl -0xab8(%rbp),%edx
    ce9c:	48 8b 05 0d 4f 01 00 	mov    0x14f0d(%rip),%rax        # 21db0 <g_954>
    cea3:	c7 00 e8 cf 97 bf    	movl   $0xbf97cfe8,(%rax)
    cea9:	48 8b 85 a0 f5 ff ff 	mov    -0xa60(%rbp),%rax
    ceb0:	66 c7 00 e6 1e       	movw   $0x1ee6,(%rax)
    ceb5:	48 8b 85 a0 f5 ff ff 	mov    -0xa60(%rbp),%rax
    cebc:	0f b7 00             	movzwl (%rax),%eax
    cebf:	98                   	cwtl   
    cec0:	39 c2                	cmp    %eax,%edx
    cec2:	0f 95 c0             	setne  %al
    cec5:	0f b6 c0             	movzbl %al,%eax
    cec8:	89 ce                	mov    %ecx,%esi
    ceca:	89 c7                	mov    %eax,%edi
    cecc:	e8 a9 cf ff ff       	callq  9e7a <safe_rshift_func_uint16_t_u_u>
    ced1:	0f b6 c0             	movzbl %al,%eax
    ced4:	89 de                	mov    %ebx,%esi
    ced6:	89 c7                	mov    %eax,%edi
    ced8:	e8 b6 cc ff ff       	callq  9b93 <safe_mul_func_uint8_t_u_u>
    cedd:	0f b6 d0             	movzbl %al,%edx
    cee0:	0f b6 05 95 21 01 00 	movzbl 0x12195(%rip),%eax        # 1f07c <g_165>
    cee7:	0f be c0             	movsbl %al,%eax
    ceea:	31 d0                	xor    %edx,%eax
    ceec:	3d a0 00 00 00       	cmp    $0xa0,%eax
    cef1:	0f 9e c0             	setle  %al
    cef4:	0f b6 c0             	movzbl %al,%eax
    cef7:	be 00 00 00 00       	mov    $0x0,%esi
    cefc:	89 c7                	mov    %eax,%edi
    cefe:	e8 eb c3 ff ff       	callq  92ee <safe_lshift_func_int8_t_s_u>
    cf03:	48 0f be d0          	movsbq %al,%rdx
    cf07:	48 8b 85 80 f5 ff ff 	mov    -0xa80(%rbp),%rax
    cf0e:	48 39 c2             	cmp    %rax,%rdx
    cf11:	0f 84 45 0c 00 00    	je     db5c <func_16+0xffd>
    cf17:	48 b8 1d af 0a 69 dd 	movabs $0x87bbaedd690aaf1d,%rax
    cf1e:	ae bb 87 
    cf21:	48 89 85 b8 f5 ff ff 	mov    %rax,-0xa48(%rbp)
    cf28:	c7 85 f0 f5 ff ff 01 	movl   $0x1,-0xa10(%rbp)
    cf2f:	00 00 00 
    cf32:	c7 85 f4 f5 ff ff 00 	movl   $0x0,-0xa0c(%rbp)
    cf39:	00 00 00 
    cf3c:	c7 85 f8 f5 ff ff 01 	movl   $0x1,-0xa08(%rbp)
    cf43:	00 00 00 
    cf46:	c7 85 fc f5 ff ff 01 	movl   $0x1,-0xa04(%rbp)
    cf4d:	00 00 00 
    cf50:	c7 85 00 f6 ff ff 00 	movl   $0x0,-0xa00(%rbp)
    cf57:	00 00 00 
    cf5a:	c7 85 04 f6 ff ff 01 	movl   $0x1,-0x9fc(%rbp)
    cf61:	00 00 00 
    cf64:	c7 85 08 f6 ff ff 01 	movl   $0x1,-0x9f8(%rbp)
    cf6b:	00 00 00 
    cf6e:	66 c7 85 58 f5 ff ff 	movw   $0x1,-0xaa8(%rbp)
    cf75:	01 00 
    cf77:	c7 85 6c f5 ff ff fd 	movl   $0xfffffffd,-0xa94(%rbp)
    cf7e:	ff ff ff 
    cf81:	48 b8 8e 5f bf 6f a2 	movabs $0x6a661fa26fbf5f8e,%rax
    cf88:	1f 66 6a 
    cf8b:	48 89 85 c0 f5 ff ff 	mov    %rax,-0xa40(%rbp)
    cf92:	48 c7 05 3b 22 01 00 	movq   $0x0,0x1223b(%rip)        # 1f1d8 <g_2109>
    cf99:	00 00 00 00 
    cf9d:	e9 a0 0b 00 00       	jmpq   db42 <func_16+0xfe3>
    cfa2:	48 8d 05 5f 21 01 00 	lea    0x1215f(%rip),%rax        # 1f108 <g_603>
    cfa9:	48 89 85 c8 f5 ff ff 	mov    %rax,-0xa38(%rbp)
    cfb0:	c7 85 40 f6 ff ff 02 	movl   $0x2,-0x9c0(%rbp)
    cfb7:	00 00 00 
    cfba:	c7 85 44 f6 ff ff f8 	movl   $0xfffffff8,-0x9bc(%rbp)
    cfc1:	ff ff ff 
    cfc4:	c7 85 48 f6 ff ff 02 	movl   $0x2,-0x9b8(%rbp)
    cfcb:	00 00 00 
    cfce:	c7 85 4c f6 ff ff 02 	movl   $0x2,-0x9b4(%rbp)
    cfd5:	00 00 00 
    cfd8:	c7 85 50 f6 ff ff 96 	movl   $0xe17f7596,-0x9b0(%rbp)
    cfdf:	75 7f e1 
    cfe2:	c7 85 54 f6 ff ff f8 	movl   $0xfffffff8,-0x9ac(%rbp)
    cfe9:	ff ff ff 
    cfec:	c7 85 58 f6 ff ff 96 	movl   $0xe17f7596,-0x9a8(%rbp)
    cff3:	75 7f e1 
    cff6:	c7 85 5c f6 ff ff 02 	movl   $0x2,-0x9a4(%rbp)
    cffd:	00 00 00 
    d000:	c7 85 60 f6 ff ff 02 	movl   $0x2,-0x9a0(%rbp)
    d007:	00 00 00 
    d00a:	c7 85 64 f6 ff ff f8 	movl   $0xfffffff8,-0x99c(%rbp)
    d011:	ff ff ff 
    d014:	c7 85 68 f6 ff ff 02 	movl   $0x2,-0x998(%rbp)
    d01b:	00 00 00 
    d01e:	c7 85 6c f6 ff ff 00 	movl   $0x0,-0x994(%rbp)
    d025:	00 00 00 
    d028:	c7 85 70 f6 ff ff 3e 	movl   $0x9c17633e,-0x990(%rbp)
    d02f:	63 17 9c 
    d032:	c7 85 74 f6 ff ff 96 	movl   $0xe17f7596,-0x98c(%rbp)
    d039:	75 7f e1 
    d03c:	c7 85 78 f6 ff ff df 	movl   $0x94643cdf,-0x988(%rbp)
    d043:	3c 64 94 
    d046:	c7 85 7c f6 ff ff f8 	movl   $0xfffffff8,-0x984(%rbp)
    d04d:	ff ff ff 
    d050:	c7 85 80 f6 ff ff f8 	movl   $0xfffffff8,-0x980(%rbp)
    d057:	ff ff ff 
    d05a:	c7 85 84 f6 ff ff df 	movl   $0x94643cdf,-0x97c(%rbp)
    d061:	3c 64 94 
    d064:	c7 85 88 f6 ff ff 96 	movl   $0xe17f7596,-0x978(%rbp)
    d06b:	75 7f e1 
    d06e:	c7 85 8c f6 ff ff 3e 	movl   $0x9c17633e,-0x974(%rbp)
    d075:	63 17 9c 
    d078:	c7 85 90 f6 ff ff 00 	movl   $0x0,-0x970(%rbp)
    d07f:	00 00 00 
    d082:	c7 85 94 f6 ff ff 02 	movl   $0x2,-0x96c(%rbp)
    d089:	00 00 00 
    d08c:	c7 85 98 f6 ff ff f8 	movl   $0xfffffff8,-0x968(%rbp)
    d093:	ff ff ff 
    d096:	c7 85 9c f6 ff ff 02 	movl   $0x2,-0x964(%rbp)
    d09d:	00 00 00 
    d0a0:	48 8d 05 d5 1f 01 00 	lea    0x11fd5(%rip),%rax        # 1f07c <g_165>
    d0a7:	48 89 85 d0 f5 ff ff 	mov    %rax,-0xa30(%rbp)
    d0ae:	c6 85 56 f5 ff ff 05 	movb   $0x5,-0xaaa(%rbp)
    d0b5:	66 c7 85 5c f5 ff ff 	movw   $0x4658,-0xaa4(%rbp)
    d0bc:	58 46 
    d0be:	48 b8 72 4b d3 95 48 	movabs $0xae93ac4895d34b72,%rax
    d0c5:	ac 93 ae 
    d0c8:	48 89 85 90 f5 ff ff 	mov    %rax,-0xa70(%rbp)
    d0cf:	c7 85 64 f5 ff ff 00 	movl   $0x0,-0xa9c(%rbp)
    d0d6:	00 00 00 
    d0d9:	0f b6 9d 48 f5 ff ff 	movzbl -0xab8(%rbp),%ebx
    d0e0:	48 83 bd b8 f5 ff ff 	cmpq   $0x0,-0xa48(%rbp)
    d0e7:	00 
    d0e8:	0f 94 c0             	sete   %al
    d0eb:	0f b6 c0             	movzbl %al,%eax
    d0ee:	89 85 08 f6 ff ff    	mov    %eax,-0x9f8(%rbp)
    d0f4:	0f b7 85 4c f5 ff ff 	movzwl -0xab4(%rbp),%eax
    d0fb:	0f be c0             	movsbl %al,%eax
    d0fe:	89 c6                	mov    %eax,%esi
    d100:	bf ff ff ff ff       	mov    $0xffffffff,%edi
    d105:	e8 60 c1 ff ff       	callq  926a <safe_div_func_int8_t_s_s>
    d10a:	48 8b 85 d8 f6 ff ff 	mov    -0x928(%rbp),%rax
    d111:	48 85 c0             	test   %rax,%rax
    d114:	0f 95 c0             	setne  %al
    d117:	0f b6 d0             	movzbl %al,%edx
    d11a:	0f bf 85 4c f5 ff ff 	movswl -0xab4(%rbp),%eax
    d121:	39 c2                	cmp    %eax,%edx
    d123:	0f 95 c0             	setne  %al
    d126:	89 c2                	mov    %eax,%edx
    d128:	48 8b 85 c8 f5 ff ff 	mov    -0xa38(%rbp),%rax
    d12f:	88 10                	mov    %dl,(%rax)
    d131:	0f b7 85 4c f5 ff ff 	movzwl -0xab4(%rbp),%eax
    d138:	89 c2                	mov    %eax,%edx
    d13a:	48 8b 85 d0 f5 ff ff 	mov    -0xa30(%rbp),%rax
    d141:	88 10                	mov    %dl,(%rax)
    d143:	48 8b 85 d0 f5 ff ff 	mov    -0xa30(%rbp),%rax
    d14a:	0f b6 00             	movzbl (%rax),%eax
    d14d:	0f be d0             	movsbl %al,%edx
    d150:	0f b6 85 48 f5 ff ff 	movzbl -0xab8(%rbp),%eax
    d157:	39 c2                	cmp    %eax,%edx
    d159:	0f 95 c0             	setne  %al
    d15c:	0f b6 c0             	movzbl %al,%eax
    d15f:	39 c3                	cmp    %eax,%ebx
    d161:	74 11                	je     d174 <func_16+0x615>
    d163:	66 83 bd 4c f5 ff ff 	cmpw   $0x0,-0xab4(%rbp)
    d16a:	00 
    d16b:	74 07                	je     d174 <func_16+0x615>
    d16d:	b8 01 00 00 00       	mov    $0x1,%eax
    d172:	eb 05                	jmp    d179 <func_16+0x61a>
    d174:	b8 00 00 00 00       	mov    $0x0,%eax
    d179:	98                   	cwtl   
    d17a:	89 c6                	mov    %eax,%esi
    d17c:	bf d3 1d 00 00       	mov    $0x1dd3,%edi
    d181:	e8 cf c2 ff ff       	callq  9455 <safe_div_func_int16_t_s_s>
    d186:	be ff ff ff ff       	mov    $0xffffffff,%esi
    d18b:	bf 00 00 00 00       	mov    $0x0,%edi
    d190:	e8 9c c0 ff ff       	callq  9231 <safe_mod_func_int8_t_s_s>
    d195:	b9 01 00 00 00       	mov    $0x1,%ecx
    d19a:	48 8b 05 a7 4f 01 00 	mov    0x14fa7(%rip),%rax        # 22148 <g_1353>
    d1a1:	8b 10                	mov    (%rax),%edx
    d1a3:	21 ca                	and    %ecx,%edx
    d1a5:	89 10                	mov    %edx,(%rax)
    d1a7:	c6 05 5a 1f 01 00 00 	movb   $0x0,0x11f5a(%rip)        # 1f108 <g_603>
    d1ae:	e9 1d 07 00 00       	jmpq   d8d0 <func_16+0xd71>
    d1b3:	c7 85 70 f5 ff ff 08 	movl   $0x8,-0xa90(%rbp)
    d1ba:	00 00 00 
    d1bd:	c7 85 74 f5 ff ff 01 	movl   $0x1,-0xa8c(%rbp)
    d1c4:	00 00 00 
    d1c7:	48 8d 85 30 f9 ff ff 	lea    -0x6d0(%rbp),%rax
    d1ce:	48 8d 15 cb 32 01 00 	lea    0x132cb(%rip),%rdx        # 204a0 <g_5275+0x1120>
    d1d5:	b9 d2 00 00 00       	mov    $0xd2,%ecx
    d1da:	48 89 c7             	mov    %rax,%rdi
    d1dd:	48 89 d6             	mov    %rdx,%rsi
    d1e0:	f3 48 a5             	rep movsq %ds:(%rsi),%es:(%rdi)
    d1e3:	c7 85 68 f5 ff ff 00 	movl   $0x0,-0xa98(%rbp)
    d1ea:	00 00 00 
    d1ed:	eb 19                	jmp    d208 <func_16+0x6a9>
    d1ef:	8b 85 68 f5 ff ff    	mov    -0xa98(%rbp),%eax
    d1f5:	48 98                	cltq   
    d1f7:	66 c7 84 45 ee f5 ff 	movw   $0x57a2,-0xa12(%rbp,%rax,2)
    d1fe:	ff a2 57 
    d201:	83 85 68 f5 ff ff 01 	addl   $0x1,-0xa98(%rbp)
    d208:	83 bd 68 f5 ff ff 00 	cmpl   $0x0,-0xa98(%rbp)
    d20f:	7e de                	jle    d1ef <func_16+0x690>
    d211:	48 8b 05 48 4f 01 00 	mov    0x14f48(%rip),%rax        # 22160 <g_1511>
    d218:	48 8b 00             	mov    (%rax),%rax
    d21b:	0f b7 85 ee f5 ff ff 	movzwl -0xa12(%rbp),%eax
    d222:	0f b7 d8             	movzwl %ax,%ebx
    d225:	0f b7 85 ee f5 ff ff 	movzwl -0xa12(%rbp),%eax
    d22c:	66 83 f8 01          	cmp    $0x1,%ax
    d230:	0f 97 c0             	seta   %al
    d233:	0f b6 c0             	movzbl %al,%eax
    d236:	89 85 70 f5 ff ff    	mov    %eax,-0xa90(%rbp)
    d23c:	8b 85 70 f5 ff ff    	mov    -0xa90(%rbp),%eax
    d242:	0f be d0             	movsbl %al,%edx
    d245:	0f b7 85 5a f5 ff ff 	movzwl -0xaa6(%rbp),%eax
    d24c:	0f be c0             	movsbl %al,%eax
    d24f:	89 d6                	mov    %edx,%esi
    d251:	89 c7                	mov    %eax,%edi
    d253:	e8 ba bf ff ff       	callq  9212 <safe_mul_func_int8_t_s_s>
    d258:	0f be c0             	movsbl %al,%eax
    d25b:	89 de                	mov    %ebx,%esi
    d25d:	89 c7                	mov    %eax,%edi
    d25f:	e8 3d c0 ff ff       	callq  92a1 <safe_lshift_func_int8_t_s_s>
    d264:	84 c0                	test   %al,%al
    d266:	75 09                	jne    d271 <func_16+0x712>
    d268:	80 bd 48 f5 ff ff 00 	cmpb   $0x0,-0xab8(%rbp)
    d26f:	74 07                	je     d278 <func_16+0x719>
    d271:	80 bd 48 f5 ff ff 00 	cmpb   $0x0,-0xab8(%rbp)
    d278:	8b 95 fc f5 ff ff    	mov    -0xa04(%rbp),%edx
    d27e:	48 8b 05 c3 4e 01 00 	mov    0x14ec3(%rip),%rax        # 22148 <g_1353>
    d285:	8b 00                	mov    (%rax),%eax
    d287:	39 c2                	cmp    %eax,%edx
    d289:	0f 9c c0             	setl   %al
    d28c:	0f b6 d0             	movzbl %al,%edx
    d28f:	0f be 85 56 f5 ff ff 	movsbl -0xaaa(%rbp),%eax
    d296:	39 c2                	cmp    %eax,%edx
    d298:	0f 9e c0             	setle  %al
    d29b:	89 c2                	mov    %eax,%edx
    d29d:	48 8b 85 d0 f5 ff ff 	mov    -0xa30(%rbp),%rax
    d2a4:	88 10                	mov    %dl,(%rax)
    d2a6:	be 04 00 00 00       	mov    $0x4,%esi
    d2ab:	bf 00 00 00 00       	mov    $0x0,%edi
    d2b0:	e8 39 c0 ff ff       	callq  92ee <safe_lshift_func_int8_t_s_u>
    d2b5:	0f b6 05 4c 1e 01 00 	movzbl 0x11e4c(%rip),%eax        # 1f108 <g_603>
    d2bc:	0f be d0             	movsbl %al,%edx
    d2bf:	0f b6 05 42 1e 01 00 	movzbl 0x11e42(%rip),%eax        # 1f108 <g_603>
    d2c6:	0f be c0             	movsbl %al,%eax
    d2c9:	48 98                	cltq   
    d2cb:	48 63 d2             	movslq %edx,%rdx
    d2ce:	48 c1 e2 02          	shl    $0x2,%rdx
    d2d2:	48 01 d0             	add    %rdx,%rax
    d2d5:	48 8d 14 85 00 00 00 	lea    0x0(,%rax,4),%rdx
    d2dc:	00 
    d2dd:	48 8d 05 3c 1e 01 00 	lea    0x11e3c(%rip),%rax        # 1f120 <g_864>
    d2e4:	8b 04 02             	mov    (%rdx,%rax,1),%eax
    d2e7:	0f b7 c0             	movzwl %ax,%eax
    d2ea:	be 01 00 00 00       	mov    $0x1,%esi
    d2ef:	89 c7                	mov    %eax,%edi
    d2f1:	e8 10 cb ff ff       	callq  9e06 <safe_lshift_func_uint16_t_u_u>
    d2f6:	be 07 00 00 00       	mov    $0x7,%esi
    d2fb:	bf f6 00 00 00       	mov    $0xf6,%edi
    d300:	e8 47 c9 ff ff       	callq  9c4c <safe_lshift_func_uint8_t_u_u>
    d305:	48 8b 05 54 4e 01 00 	mov    0x14e54(%rip),%rax        # 22160 <g_1511>
    d30c:	48 8b 00             	mov    (%rax),%rax
    d30f:	48 85 c0             	test   %rax,%rax
    d312:	0f 95 c0             	setne  %al
    d315:	0f b6 d0             	movzbl %al,%edx
    d318:	48 8b 05 91 4a 01 00 	mov    0x14a91(%rip),%rax        # 21db0 <g_954>
    d31f:	8b 00                	mov    (%rax),%eax
    d321:	09 d0                	or     %edx,%eax
    d323:	85 c0                	test   %eax,%eax
    d325:	0f 84 1e 05 00 00    	je     d849 <func_16+0xcea>
    d32b:	48 8d 05 46 1d 01 00 	lea    0x11d46(%rip),%rax        # 1f078 <g_155>
    d332:	48 89 85 d8 f5 ff ff 	mov    %rax,-0xa28(%rbp)
    d339:	48 8d 05 50 59 01 00 	lea    0x15950(%rip),%rax        # 22c90 <g_66>
    d340:	48 89 85 88 f5 ff ff 	mov    %rax,-0xa78(%rbp)
    d347:	48 8d 85 88 f5 ff ff 	lea    -0xa78(%rbp),%rax
    d34e:	48 89 85 e0 f5 ff ff 	mov    %rax,-0xa20(%rbp)
    d355:	48 8d 85 80 f5 ff ff 	lea    -0xa80(%rbp),%rax
    d35c:	48 89 85 b0 f7 ff ff 	mov    %rax,-0x850(%rbp)
    d363:	48 8d 05 66 1e 01 00 	lea    0x11e66(%rip),%rax        # 1f1d0 <g_1871>
    d36a:	48 89 85 b8 f7 ff ff 	mov    %rax,-0x848(%rbp)
    d371:	48 8d 85 80 f5 ff ff 	lea    -0xa80(%rbp),%rax
    d378:	48 89 85 c0 f7 ff ff 	mov    %rax,-0x840(%rbp)
    d37f:	48 8d 85 80 f5 ff ff 	lea    -0xa80(%rbp),%rax
    d386:	48 89 85 c8 f7 ff ff 	mov    %rax,-0x838(%rbp)
    d38d:	48 8d 85 80 f5 ff ff 	lea    -0xa80(%rbp),%rax
    d394:	48 89 85 d0 f7 ff ff 	mov    %rax,-0x830(%rbp)
    d39b:	48 8d 85 80 f5 ff ff 	lea    -0xa80(%rbp),%rax
    d3a2:	48 89 85 d8 f7 ff ff 	mov    %rax,-0x828(%rbp)
    d3a9:	48 8d 05 20 1e 01 00 	lea    0x11e20(%rip),%rax        # 1f1d0 <g_1871>
    d3b0:	48 89 85 e0 f7 ff ff 	mov    %rax,-0x820(%rbp)
    d3b7:	48 8d 85 80 f5 ff ff 	lea    -0xa80(%rbp),%rax
    d3be:	48 89 85 e8 f7 ff ff 	mov    %rax,-0x818(%rbp)
    d3c5:	48 8d 05 cc 58 01 00 	lea    0x158cc(%rip),%rax        # 22c98 <g_109>
    d3cc:	48 89 85 f0 f7 ff ff 	mov    %rax,-0x810(%rbp)
    d3d3:	48 8d 85 80 f5 ff ff 	lea    -0xa80(%rbp),%rax
    d3da:	48 89 85 f8 f7 ff ff 	mov    %rax,-0x808(%rbp)
    d3e1:	48 8d 05 f0 1d 01 00 	lea    0x11df0(%rip),%rax        # 1f1d8 <g_2109>
    d3e8:	48 89 85 00 f8 ff ff 	mov    %rax,-0x800(%rbp)
    d3ef:	48 8d 85 80 f5 ff ff 	lea    -0xa80(%rbp),%rax
    d3f6:	48 89 85 08 f8 ff ff 	mov    %rax,-0x7f8(%rbp)
    d3fd:	48 8d 05 94 58 01 00 	lea    0x15894(%rip),%rax        # 22c98 <g_109>
    d404:	48 89 85 10 f8 ff ff 	mov    %rax,-0x7f0(%rbp)
    d40b:	48 8d 05 86 58 01 00 	lea    0x15886(%rip),%rax        # 22c98 <g_109>
    d412:	48 89 85 18 f8 ff ff 	mov    %rax,-0x7e8(%rbp)
    d419:	48 8d 85 80 f5 ff ff 	lea    -0xa80(%rbp),%rax
    d420:	48 89 85 20 f8 ff ff 	mov    %rax,-0x7e0(%rbp)
    d427:	48 8d 05 aa 1d 01 00 	lea    0x11daa(%rip),%rax        # 1f1d8 <g_2109>
    d42e:	48 89 85 28 f8 ff ff 	mov    %rax,-0x7d8(%rbp)
    d435:	48 8d 05 5c 58 01 00 	lea    0x1585c(%rip),%rax        # 22c98 <g_109>
    d43c:	48 89 85 30 f8 ff ff 	mov    %rax,-0x7d0(%rbp)
    d443:	48 8d 05 4e 58 01 00 	lea    0x1584e(%rip),%rax        # 22c98 <g_109>
    d44a:	48 89 85 38 f8 ff ff 	mov    %rax,-0x7c8(%rbp)
    d451:	48 8d 85 80 f5 ff ff 	lea    -0xa80(%rbp),%rax
    d458:	48 89 85 40 f8 ff ff 	mov    %rax,-0x7c0(%rbp)
    d45f:	48 8d 05 72 1d 01 00 	lea    0x11d72(%rip),%rax        # 1f1d8 <g_2109>
    d466:	48 89 85 48 f8 ff ff 	mov    %rax,-0x7b8(%rbp)
    d46d:	48 8d 85 80 f5 ff ff 	lea    -0xa80(%rbp),%rax
    d474:	48 89 85 50 f8 ff ff 	mov    %rax,-0x7b0(%rbp)
    d47b:	48 8d 05 16 58 01 00 	lea    0x15816(%rip),%rax        # 22c98 <g_109>
    d482:	48 89 85 58 f8 ff ff 	mov    %rax,-0x7a8(%rbp)
    d489:	48 8d 05 08 58 01 00 	lea    0x15808(%rip),%rax        # 22c98 <g_109>
    d490:	48 89 85 60 f8 ff ff 	mov    %rax,-0x7a0(%rbp)
    d497:	48 8d 85 80 f5 ff ff 	lea    -0xa80(%rbp),%rax
    d49e:	48 89 85 68 f8 ff ff 	mov    %rax,-0x798(%rbp)
    d4a5:	48 8d 85 80 f5 ff ff 	lea    -0xa80(%rbp),%rax
    d4ac:	48 89 85 70 f8 ff ff 	mov    %rax,-0x790(%rbp)
    d4b3:	48 8d 85 80 f5 ff ff 	lea    -0xa80(%rbp),%rax
    d4ba:	48 89 85 78 f8 ff ff 	mov    %rax,-0x788(%rbp)
    d4c1:	48 8d 85 80 f5 ff ff 	lea    -0xa80(%rbp),%rax
    d4c8:	48 89 85 80 f8 ff ff 	mov    %rax,-0x780(%rbp)
    d4cf:	48 8d 85 80 f5 ff ff 	lea    -0xa80(%rbp),%rax
    d4d6:	48 89 85 88 f8 ff ff 	mov    %rax,-0x778(%rbp)
    d4dd:	48 8d 05 ec 1c 01 00 	lea    0x11cec(%rip),%rax        # 1f1d0 <g_1871>
    d4e4:	48 89 85 90 f8 ff ff 	mov    %rax,-0x770(%rbp)
    d4eb:	48 8d 85 80 f5 ff ff 	lea    -0xa80(%rbp),%rax
    d4f2:	48 89 85 98 f8 ff ff 	mov    %rax,-0x768(%rbp)
    d4f9:	48 8d 85 80 f5 ff ff 	lea    -0xa80(%rbp),%rax
    d500:	48 89 85 a0 f8 ff ff 	mov    %rax,-0x760(%rbp)
    d507:	48 8d 85 80 f5 ff ff 	lea    -0xa80(%rbp),%rax
    d50e:	48 89 85 a8 f8 ff ff 	mov    %rax,-0x758(%rbp)
    d515:	48 8d 85 80 f5 ff ff 	lea    -0xa80(%rbp),%rax
    d51c:	48 89 85 b0 f8 ff ff 	mov    %rax,-0x750(%rbp)
    d523:	48 8d 05 a6 1c 01 00 	lea    0x11ca6(%rip),%rax        # 1f1d0 <g_1871>
    d52a:	48 89 85 b8 f8 ff ff 	mov    %rax,-0x748(%rbp)
    d531:	48 8d 05 a0 1c 01 00 	lea    0x11ca0(%rip),%rax        # 1f1d8 <g_2109>
    d538:	48 89 85 c0 f8 ff ff 	mov    %rax,-0x740(%rbp)
    d53f:	48 8d 05 92 1c 01 00 	lea    0x11c92(%rip),%rax        # 1f1d8 <g_2109>
    d546:	48 89 85 c8 f8 ff ff 	mov    %rax,-0x738(%rbp)
    d54d:	48 8d 05 7c 1c 01 00 	lea    0x11c7c(%rip),%rax        # 1f1d0 <g_1871>
    d554:	48 89 85 d0 f8 ff ff 	mov    %rax,-0x730(%rbp)
    d55b:	48 8d 85 80 f5 ff ff 	lea    -0xa80(%rbp),%rax
    d562:	48 89 85 d8 f8 ff ff 	mov    %rax,-0x728(%rbp)
    d569:	48 8d 05 60 1c 01 00 	lea    0x11c60(%rip),%rax        # 1f1d0 <g_1871>
    d570:	48 89 85 e0 f8 ff ff 	mov    %rax,-0x720(%rbp)
    d577:	48 8d 05 5a 1c 01 00 	lea    0x11c5a(%rip),%rax        # 1f1d8 <g_2109>
    d57e:	48 89 85 e8 f8 ff ff 	mov    %rax,-0x718(%rbp)
    d585:	48 8d 85 80 f5 ff ff 	lea    -0xa80(%rbp),%rax
    d58c:	48 89 85 f0 f8 ff ff 	mov    %rax,-0x710(%rbp)
    d593:	48 8d 05 36 1c 01 00 	lea    0x11c36(%rip),%rax        # 1f1d0 <g_1871>
    d59a:	48 89 85 f8 f8 ff ff 	mov    %rax,-0x708(%rbp)
    d5a1:	48 8d 85 80 f5 ff ff 	lea    -0xa80(%rbp),%rax
    d5a8:	48 89 85 00 f9 ff ff 	mov    %rax,-0x700(%rbp)
    d5af:	48 8d 85 80 f5 ff ff 	lea    -0xa80(%rbp),%rax
    d5b6:	48 89 85 08 f9 ff ff 	mov    %rax,-0x6f8(%rbp)
    d5bd:	48 8d 85 80 f5 ff ff 	lea    -0xa80(%rbp),%rax
    d5c4:	48 89 85 10 f9 ff ff 	mov    %rax,-0x6f0(%rbp)
    d5cb:	48 8d 85 80 f5 ff ff 	lea    -0xa80(%rbp),%rax
    d5d2:	48 89 85 18 f9 ff ff 	mov    %rax,-0x6e8(%rbp)
    d5d9:	48 8d 05 f0 1b 01 00 	lea    0x11bf0(%rip),%rax        # 1f1d0 <g_1871>
    d5e0:	48 89 85 20 f9 ff ff 	mov    %rax,-0x6e0(%rbp)
    d5e7:	48 8d 85 80 f5 ff ff 	lea    -0xa80(%rbp),%rax
    d5ee:	48 89 85 28 f9 ff ff 	mov    %rax,-0x6d8(%rbp)
    d5f5:	c7 85 78 f5 ff ff 6a 	movl   $0x2894906a,-0xa88(%rbp)
    d5fc:	90 94 28 
    d5ff:	48 8b 85 90 f5 ff ff 	mov    -0xa70(%rbp),%rax
    d606:	0f bf d8             	movswl %ax,%ebx
    d609:	0f b7 85 44 f5 ff ff 	movzwl -0xabc(%rbp),%eax
    d610:	0f b6 d0             	movzbl %al,%edx
    d613:	80 85 48 f5 ff ff 01 	addb   $0x1,-0xab8(%rbp)
    d61a:	0f b6 8d 48 f5 ff ff 	movzbl -0xab8(%rbp),%ecx
    d621:	48 8b 85 d8 f5 ff ff 	mov    -0xa28(%rbp),%rax
    d628:	0f b6 00             	movzbl (%rax),%eax
    d62b:	09 c1                	or     %eax,%ecx
    d62d:	48 8b 85 d8 f5 ff ff 	mov    -0xa28(%rbp),%rax
    d634:	88 08                	mov    %cl,(%rax)
    d636:	48 8b 85 d8 f5 ff ff 	mov    -0xa28(%rbp),%rax
    d63d:	0f b6 00             	movzbl (%rax),%eax
    d640:	0f b6 c0             	movzbl %al,%eax
    d643:	89 d6                	mov    %edx,%esi
    d645:	89 c7                	mov    %eax,%edi
    d647:	e8 2c c5 ff ff       	callq  9b78 <safe_sub_func_uint8_t_u_u>
    d64c:	84 c0                	test   %al,%al
    d64e:	0f 85 8d 01 00 00    	jne    d7e1 <func_16+0xc82>
    d654:	0f b7 85 4c f5 ff ff 	movzwl -0xab4(%rbp),%eax
    d65b:	44 0f be e0          	movsbl %al,%r12d
    d65f:	44 8b ad 70 f5 ff ff 	mov    -0xa90(%rbp),%r13d
    d666:	48 8b 85 e0 f5 ff ff 	mov    -0xa20(%rbp),%rax
    d66d:	48 8d 15 1c 56 01 00 	lea    0x1561c(%rip),%rdx        # 22c90 <g_66>
    d674:	48 89 10             	mov    %rdx,(%rax)
    d677:	4c 0f bf b5 4c f5 ff 	movswq -0xab4(%rbp),%r14
    d67e:	ff 
    d67f:	0f be 85 56 f5 ff ff 	movsbl -0xaaa(%rbp),%eax
    d686:	89 85 40 f5 ff ff    	mov    %eax,-0xac0(%rbp)
    d68c:	44 0f b7 bd 5c f5 ff 	movzwl -0xaa4(%rbp),%r15d
    d693:	ff 
    d694:	0f b7 85 5c f5 ff ff 	movzwl -0xaa4(%rbp),%eax
    d69b:	0f be d0             	movsbl %al,%edx
    d69e:	48 8b 0d 0b 47 01 00 	mov    0x1470b(%rip),%rcx        # 21db0 <g_954>
    d6a5:	48 8b 05 04 47 01 00 	mov    0x14704(%rip),%rax        # 21db0 <g_954>
    d6ac:	8b 09                	mov    (%rcx),%ecx
    d6ae:	89 08                	mov    %ecx,(%rax)
    d6b0:	8b 00                	mov    (%rax),%eax
    d6b2:	89 c1                	mov    %eax,%ecx
    d6b4:	48 8b 05 55 4b 01 00 	mov    0x14b55(%rip),%rax        # 22210 <g_1803>
    d6bb:	8b 00                	mov    (%rax),%eax
    d6bd:	09 c8                	or     %ecx,%eax
    d6bf:	0f be c0             	movsbl %al,%eax
    d6c2:	89 d6                	mov    %edx,%esi
    d6c4:	89 c7                	mov    %eax,%edi
    d6c6:	e8 27 bb ff ff       	callq  91f2 <safe_sub_func_int8_t_s_s>
    d6cb:	66 98                	cbtw   
    d6cd:	0f b7 c0             	movzwl %ax,%eax
    d6d0:	be 0a 00 00 00       	mov    $0xa,%esi
    d6d5:	89 c7                	mov    %eax,%edi
    d6d7:	e8 6c c7 ff ff       	callq  9e48 <safe_rshift_func_uint16_t_u_s>
    d6dc:	0f b7 c0             	movzwl %ax,%eax
    d6df:	48 89 c7             	mov    %rax,%rdi
    d6e2:	e8 2f c1 ff ff       	callq  9816 <safe_unary_minus_func_int64_t_s>
    d6e7:	66 0b 85 4c f5 ff ff 	or     -0xab4(%rbp),%ax
    d6ee:	0f b7 c0             	movzwl %ax,%eax
    d6f1:	44 89 fe             	mov    %r15d,%esi
    d6f4:	89 c7                	mov    %eax,%edi
    d6f6:	e8 7f c7 ff ff       	callq  9e7a <safe_rshift_func_uint16_t_u_u>
    d6fb:	0f b7 c0             	movzwl %ax,%eax
    d6fe:	48 8b 95 b8 f5 ff ff 	mov    -0xa48(%rbp),%rdx
    d705:	89 c6                	mov    %eax,%esi
    d707:	89 d7                	mov    %edx,%edi
    d709:	e8 be bf ff ff       	callq  96cc <safe_mod_func_int32_t_s_s>
    d70e:	39 85 40 f5 ff ff    	cmp    %eax,-0xac0(%rbp)
    d714:	0f 9e c0             	setle  %al
    d717:	0f b6 c0             	movzbl %al,%eax
    d71a:	89 85 fc f5 ff ff    	mov    %eax,-0xa04(%rbp)
    d720:	8b 85 fc f5 ff ff    	mov    -0xa04(%rbp),%eax
    d726:	48 98                	cltq   
    d728:	4c 89 f6             	mov    %r14,%rsi
    d72b:	48 89 c7             	mov    %rax,%rdi
    d72e:	e8 81 c2 ff ff       	callq  99b4 <safe_mod_func_int64_t_s_s>
    d733:	0f b6 95 48 f5 ff ff 	movzbl -0xab8(%rbp),%edx
    d73a:	0f b7 85 5c f5 ff ff 	movzwl -0xaa4(%rbp),%eax
    d741:	39 c2                	cmp    %eax,%edx
    d743:	0f 9c c0             	setl   %al
    d746:	0f b6 c0             	movzbl %al,%eax
    d749:	48 89 c6             	mov    %rax,%rsi
    d74c:	bf 00 00 00 00       	mov    $0x0,%edi
    d751:	e8 f5 c8 ff ff       	callq  a04b <safe_sub_func_uint64_t_u_u>
    d756:	48 85 c0             	test   %rax,%rax
    d759:	74 34                	je     d78f <func_16+0xc30>
    d75b:	0f b6 05 a6 19 01 00 	movzbl 0x119a6(%rip),%eax        # 1f108 <g_603>
    d762:	0f be d0             	movsbl %al,%edx
    d765:	0f b6 05 9c 19 01 00 	movzbl 0x1199c(%rip),%eax        # 1f108 <g_603>
    d76c:	0f be c0             	movsbl %al,%eax
    d76f:	48 98                	cltq   
    d771:	48 63 d2             	movslq %edx,%rdx
    d774:	48 c1 e2 02          	shl    $0x2,%rdx
    d778:	48 01 d0             	add    %rdx,%rax
    d77b:	48 8d 14 85 00 00 00 	lea    0x0(,%rax,4),%rdx
    d782:	00 
    d783:	48 8d 05 96 19 01 00 	lea    0x11996(%rip),%rax        # 1f120 <g_864>
    d78a:	8b 04 02             	mov    (%rdx,%rax,1),%eax
    d78d:	85 c0                	test   %eax,%eax
    d78f:	8b 85 48 f6 ff ff    	mov    -0x9b8(%rbp),%eax
    d795:	89 c2                	mov    %eax,%edx
    d797:	0f b7 05 dc 18 01 00 	movzwl 0x118dc(%rip),%eax        # 1f07a <g_159>
    d79e:	09 d0                	or     %edx,%eax
    d7a0:	0f b7 c0             	movzwl %ax,%eax
    d7a3:	44 89 ee             	mov    %r13d,%esi
    d7a6:	89 c7                	mov    %eax,%edi
    d7a8:	e8 59 c6 ff ff       	callq  9e06 <safe_lshift_func_uint16_t_u_u>
    d7ad:	66 85 c0             	test   %ax,%ax
    d7b0:	74 08                	je     d7ba <func_16+0xc5b>
    d7b2:	8b 85 5c f6 ff ff    	mov    -0x9a4(%rbp),%eax
    d7b8:	85 c0                	test   %eax,%eax
    d7ba:	0f b7 85 4c f5 ff ff 	movzwl -0xab4(%rbp),%eax
    d7c1:	0f b6 c0             	movzbl %al,%eax
    d7c4:	be 04 00 00 00       	mov    $0x4,%esi
    d7c9:	89 c7                	mov    %eax,%edi
    d7cb:	e8 7c c4 ff ff       	callq  9c4c <safe_lshift_func_uint8_t_u_u>
    d7d0:	0f be c0             	movsbl %al,%eax
    d7d3:	44 89 e6             	mov    %r12d,%esi
    d7d6:	89 c7                	mov    %eax,%edi
    d7d8:	e8 8d ba ff ff       	callq  926a <safe_div_func_int8_t_s_s>
    d7dd:	84 c0                	test   %al,%al
    d7df:	74 07                	je     d7e8 <func_16+0xc89>
    d7e1:	b8 01 00 00 00       	mov    $0x1,%eax
    d7e6:	eb 05                	jmp    d7ed <func_16+0xc8e>
    d7e8:	b8 00 00 00 00       	mov    $0x0,%eax
    d7ed:	98                   	cwtl   
    d7ee:	89 de                	mov    %ebx,%esi
    d7f0:	89 c7                	mov    %eax,%edi
    d7f2:	e8 fe bb ff ff       	callq  93f5 <safe_mul_func_int16_t_s_s>
    d7f7:	66 85 c0             	test   %ax,%ax
    d7fa:	74 0f                	je     d80b <func_16+0xcac>
    d7fc:	66 83 bd 4c f5 ff ff 	cmpw   $0x0,-0xab4(%rbp)
    d803:	00 
    d804:	74 30                	je     d836 <func_16+0xcd7>
    d806:	e9 d4 00 00 00       	jmpq   d8df <func_16+0xd80>
    d80b:	0f bf 95 4c f5 ff ff 	movswl -0xab4(%rbp),%edx
    d812:	0f b7 85 44 f5 ff ff 	movzwl -0xabc(%rbp),%eax
    d819:	39 c2                	cmp    %eax,%edx
    d81b:	0f 9f c0             	setg   %al
    d81e:	0f b6 c0             	movzbl %al,%eax
    d821:	89 c7                	mov    %eax,%edi
    d823:	e8 75 bb ff ff       	callq  939d <safe_unary_minus_func_int16_t_s>
    d828:	89 c2                	mov    %eax,%edx
    d82a:	48 8b 05 cf 3e 01 00 	mov    0x13ecf(%rip),%rax        # 21700 <g_113>
    d831:	0f bf d2             	movswl %dx,%edx
    d834:	89 10                	mov    %edx,(%rax)
    d836:	0f b7 85 58 f5 ff ff 	movzwl -0xaa8(%rbp),%eax
    d83d:	83 c0 01             	add    $0x1,%eax
    d840:	66 89 85 58 f5 ff ff 	mov    %ax,-0xaa8(%rbp)
    d847:	eb 63                	jmp    d8ac <func_16+0xd4d>
    d849:	c6 85 57 f5 ff ff 00 	movb   $0x0,-0xaa9(%rbp)
    d850:	0f b7 85 44 f5 ff ff 	movzwl -0xabc(%rbp),%eax
    d857:	89 85 f4 f5 ff ff    	mov    %eax,-0xa0c(%rbp)
    d85d:	8b 8d f4 f5 ff ff    	mov    -0xa0c(%rbp),%ecx
    d863:	48 8b 85 18 ff ff ff 	mov    -0xe8(%rbp),%rax
    d86a:	48 85 c0             	test   %rax,%rax
    d86d:	0f 95 c0             	setne  %al
    d870:	0f b6 d0             	movzbl %al,%edx
    d873:	0f b6 85 57 f5 ff ff 	movzbl -0xaa9(%rbp),%eax
    d87a:	21 c8                	and    %ecx,%eax
    d87c:	88 85 57 f5 ff ff    	mov    %al,-0xaa9(%rbp)
    d882:	0f b6 85 57 f5 ff ff 	movzbl -0xaa9(%rbp),%eax
    d889:	39 c2                	cmp    %eax,%edx
    d88b:	0f 95 c0             	setne  %al
    d88e:	0f b6 c0             	movzbl %al,%eax
    d891:	89 85 6c f5 ff ff    	mov    %eax,-0xa94(%rbp)
    d897:	8b 95 f4 f5 ff ff    	mov    -0xa0c(%rbp),%edx
    d89d:	0f b6 85 48 f5 ff ff 	movzbl -0xab8(%rbp),%eax
    d8a4:	09 d0                	or     %edx,%eax
    d8a6:	89 85 f4 f5 ff ff    	mov    %eax,-0xa0c(%rbp)
    d8ac:	80 bd 48 f5 ff ff 00 	cmpb   $0x0,-0xab8(%rbp)
    d8b3:	75 0a                	jne    d8bf <func_16+0xd60>
    d8b5:	66 83 bd 44 f5 ff ff 	cmpw   $0x0,-0xabc(%rbp)
    d8bc:	00 
    d8bd:	eb 01                	jmp    d8c0 <func_16+0xd61>
    d8bf:	90                   	nop
    d8c0:	0f b6 05 41 18 01 00 	movzbl 0x11841(%rip),%eax        # 1f108 <g_603>
    d8c7:	83 c0 01             	add    $0x1,%eax
    d8ca:	88 05 38 18 01 00    	mov    %al,0x11838(%rip)        # 1f108 <g_603>
    d8d0:	0f b6 05 31 18 01 00 	movzbl 0x11831(%rip),%eax        # 1f108 <g_603>
    d8d7:	3c 03                	cmp    $0x3,%al
    d8d9:	0f 8e d4 f8 ff ff    	jle    d1b3 <func_16+0x654>
    d8df:	66 c7 85 4c f5 ff ff 	movw   $0x0,-0xab4(%rbp)
    d8e6:	00 00 
    d8e8:	e9 35 02 00 00       	jmpq   db22 <func_16+0xfc3>
    d8ed:	66 c7 85 5e f5 ff ff 	movw   $0x51b4,-0xaa2(%rbp)
    d8f4:	b4 51 
    d8f6:	c7 85 7c f5 ff ff ff 	movl   $0xffffffff,-0xa84(%rbp)
    d8fd:	ff ff ff 
    d900:	48 8b 05 61 48 01 00 	mov    0x14861(%rip),%rax        # 22168 <g_1531>
    d907:	8b 08                	mov    (%rax),%ecx
    d909:	48 8b 05 a8 49 01 00 	mov    0x149a8(%rip),%rax        # 222b8 <g_2297>
    d910:	48 8b 00             	mov    (%rax),%rax
    d913:	48 8b 00             	mov    (%rax),%rax
    d916:	48 8b 10             	mov    (%rax),%rdx
    d919:	48 8b 05 98 49 01 00 	mov    0x14998(%rip),%rax        # 222b8 <g_2297>
    d920:	48 8b 00             	mov    (%rax),%rax
    d923:	48 8b 00             	mov    (%rax),%rax
    d926:	48 8b 00             	mov    (%rax),%rax
    d929:	48 8b 12             	mov    (%rdx),%rdx
    d92c:	48 89 10             	mov    %rdx,(%rax)
    d92f:	48 8b 00             	mov    (%rax),%rax
    d932:	48 85 c0             	test   %rax,%rax
    d935:	0f 95 c0             	setne  %al
    d938:	0f b6 c0             	movzbl %al,%eax
    d93b:	39 c1                	cmp    %eax,%ecx
    d93d:	0f 9c c0             	setl   %al
    d940:	44 0f b6 e8          	movzbl %al,%r13d
    d944:	0f b6 9d 48 f5 ff ff 	movzbl -0xab8(%rbp),%ebx
    d94b:	0f b6 85 48 f5 ff ff 	movzbl -0xab8(%rbp),%eax
    d952:	44 0f be e0          	movsbl %al,%r12d
    d956:	48 0f bf 95 5e f5 ff 	movswq -0xaa2(%rbp),%rdx
    d95d:	ff 
    d95e:	48 8b 85 28 f7 ff ff 	mov    -0x8d8(%rbp),%rax
    d965:	48 8d 0d 3c 49 01 00 	lea    0x1493c(%rip),%rcx        # 222a8 <g_2260>
    d96c:	48 39 c8             	cmp    %rcx,%rax
    d96f:	0f 95 c0             	setne  %al
    d972:	0f b6 c0             	movzbl %al,%eax
    d975:	48 89 d6             	mov    %rdx,%rsi
    d978:	48 89 c7             	mov    %rax,%rdi
    d97b:	e8 cb c6 ff ff       	callq  a04b <safe_sub_func_uint64_t_u_u>
    d980:	0f bf 85 4c f5 ff ff 	movswl -0xab4(%rbp),%eax
    d987:	be 01 00 00 00       	mov    $0x1,%esi
    d98c:	89 c7                	mov    %eax,%edi
    d98e:	e8 ff ba ff ff       	callq  9492 <safe_lshift_func_int16_t_s_s>
    d993:	0f bf d0             	movswl %ax,%edx
    d996:	0f b7 85 44 f5 ff ff 	movzwl -0xabc(%rbp),%eax
    d99d:	39 c2                	cmp    %eax,%edx
    d99f:	0f 9d c0             	setge  %al
    d9a2:	89 c2                	mov    %eax,%edx
    d9a4:	0f b7 85 4c f5 ff ff 	movzwl -0xab4(%rbp),%eax
    d9ab:	21 d0                	and    %edx,%eax
    d9ad:	0f be c0             	movsbl %al,%eax
    d9b0:	44 89 e6             	mov    %r12d,%esi
    d9b3:	89 c7                	mov    %eax,%edi
    d9b5:	e8 58 b8 ff ff       	callq  9212 <safe_mul_func_int8_t_s_s>
    d9ba:	66 98                	cbtw   
    d9bc:	0f b7 c0             	movzwl %ax,%eax
    d9bf:	89 de                	mov    %ebx,%esi
    d9c1:	89 c7                	mov    %eax,%edi
    d9c3:	e8 57 c3 ff ff       	callq  9d1f <safe_sub_func_uint16_t_u_u>
    d9c8:	0f b7 c0             	movzwl %ax,%eax
    d9cb:	41 39 c5             	cmp    %eax,%r13d
    d9ce:	0f b7 85 5e f5 ff ff 	movzwl -0xaa2(%rbp),%eax
    d9d5:	98                   	cwtl   
    d9d6:	31 85 7c f5 ff ff    	xor    %eax,-0xa84(%rbp)
    d9dc:	44 8b a5 20 f6 ff ff 	mov    -0x9e0(%rbp),%r12d
    d9e3:	0f b6 9d 48 f5 ff ff 	movzbl -0xab8(%rbp),%ebx
    d9ea:	48 8b 05 bf 43 01 00 	mov    0x143bf(%rip),%rax        # 21db0 <g_954>
    d9f1:	8b 10                	mov    (%rax),%edx
    d9f3:	83 c2 01             	add    $0x1,%edx
    d9f6:	89 10                	mov    %edx,(%rax)
    d9f8:	44 8b 28             	mov    (%rax),%r13d
    d9fb:	48 8b 05 ee 47 01 00 	mov    0x147ee(%rip),%rax        # 221f0 <g_1569>
    da02:	48 8b 00             	mov    (%rax),%rax
    da05:	48 8b 00             	mov    (%rax),%rax
    da08:	4c 8b 30             	mov    (%rax),%r14
    da0b:	8b 85 9c f6 ff ff    	mov    -0x964(%rbp),%eax
    da11:	09 85 64 f5 ff ff    	or     %eax,-0xa9c(%rbp)
    da17:	8b 95 64 f5 ff ff    	mov    -0xa9c(%rbp),%edx
    da1d:	8b 05 65 52 01 00    	mov    0x15265(%rip),%eax        # 22c88 <g_3>
    da23:	83 c8 01             	or     $0x1,%eax
    da26:	0f b6 c0             	movzbl %al,%eax
    da29:	89 d6                	mov    %edx,%esi
    da2b:	89 c7                	mov    %eax,%edi
    da2d:	e8 1a c2 ff ff       	callq  9c4c <safe_lshift_func_uint8_t_u_u>
    da32:	0f b6 c0             	movzbl %al,%eax
    da35:	f7 d0                	not    %eax
    da37:	89 c2                	mov    %eax,%edx
    da39:	0f bf 85 4c f5 ff ff 	movswl -0xab4(%rbp),%eax
    da40:	39 c2                	cmp    %eax,%edx
    da42:	0f 9f c0             	setg   %al
    da45:	0f b6 c0             	movzbl %al,%eax
    da48:	be 0e 00 00 00       	mov    $0xe,%esi
    da4d:	89 c7                	mov    %eax,%edi
    da4f:	e8 d6 ba ff ff       	callq  952a <safe_rshift_func_int16_t_s_s>
    da54:	98                   	cwtl   
    da55:	39 85 7c f5 ff ff    	cmp    %eax,-0xa84(%rbp)
    da5b:	0f 9e c0             	setle  %al
    da5e:	0f b6 c0             	movzbl %al,%eax
    da61:	be 9c 0b 00 00       	mov    $0xb9c,%esi
    da66:	89 c7                	mov    %eax,%edi
    da68:	e8 92 c2 ff ff       	callq  9cff <safe_add_func_uint16_t_u_u>
    da6d:	66 83 bd 4c f5 ff ff 	cmpw   $0x0,-0xab4(%rbp)
    da74:	00 
    da75:	74 07                	je     da7e <func_16+0xf1f>
    da77:	b8 01 00 00 00       	mov    $0x1,%eax
    da7c:	eb 05                	jmp    da83 <func_16+0xf24>
    da7e:	b8 00 00 00 00       	mov    $0x0,%eax
    da83:	48 98                	cltq   
    da85:	49 39 c6             	cmp    %rax,%r14
    da88:	0f 96 c0             	setbe  %al
    da8b:	0f b6 d0             	movzbl %al,%edx
    da8e:	0f b6 85 48 f5 ff ff 	movzbl -0xab8(%rbp),%eax
    da95:	39 c2                	cmp    %eax,%edx
    da97:	0f 9d c0             	setge  %al
    da9a:	0f b6 c0             	movzbl %al,%eax
    da9d:	41 39 c5             	cmp    %eax,%r13d
    daa0:	0f 95 c0             	setne  %al
    daa3:	0f b6 d0             	movzbl %al,%edx
    daa6:	8b 05 d4 15 01 00    	mov    0x115d4(%rip),%eax        # 1f080 <g_237>
    daac:	39 c2                	cmp    %eax,%edx
    daae:	0f 95 c0             	setne  %al
    dab1:	0f b6 c0             	movzbl %al,%eax
    dab4:	89 de                	mov    %ebx,%esi
    dab6:	89 c7                	mov    %eax,%edi
    dab8:	e8 48 bb ff ff       	callq  9605 <safe_sub_func_int32_t_s_s>
    dabd:	41 39 c4             	cmp    %eax,%r12d
    dac0:	0f 9f c0             	setg   %al
    dac3:	0f b6 c0             	movzbl %al,%eax
    dac6:	48 39 85 c0 f5 ff ff 	cmp    %rax,-0xa40(%rbp)
    dacd:	c7 85 7c f5 ff ff 39 	movl   $0x1ab63e39,-0xa84(%rbp)
    dad4:	3e b6 1a 
    dad7:	48 c7 85 90 f5 ff ff 	movq   $0x0,-0xa70(%rbp)
    dade:	00 00 00 00 
    dae2:	eb 19                	jmp    dafd <func_16+0xf9e>
    dae4:	48 8d 15 a5 51 01 00 	lea    0x151a5(%rip),%rdx        # 22c90 <g_66>
    daeb:	48 8b 85 d0 f6 ff ff 	mov    -0x930(%rbp),%rax
    daf2:	48 89 02             	mov    %rax,(%rdx)
    daf5:	48 83 85 90 f5 ff ff 	addq   $0x1,-0xa70(%rbp)
    dafc:	01 
    dafd:	48 83 bd 90 f5 ff ff 	cmpq   $0x0,-0xa70(%rbp)
    db04:	00 
    db05:	7e dd                	jle    dae4 <func_16+0xf85>
    db07:	c7 85 f4 f5 ff ff ff 	movl   $0xffffffff,-0xa0c(%rbp)
    db0e:	ff ff ff 
    db11:	0f b7 85 4c f5 ff ff 	movzwl -0xab4(%rbp),%eax
    db18:	83 e8 01             	sub    $0x1,%eax
    db1b:	66 89 85 4c f5 ff ff 	mov    %ax,-0xab4(%rbp)
    db22:	66 83 bd 4c f5 ff ff 	cmpw   $0xfffe,-0xab4(%rbp)
    db29:	fe 
    db2a:	0f 8c bd fd ff ff    	jl     d8ed <func_16+0xd8e>
    db30:	48 8b 05 a1 16 01 00 	mov    0x116a1(%rip),%rax        # 1f1d8 <g_2109>
    db37:	48 83 e8 01          	sub    $0x1,%rax
    db3b:	48 89 05 96 16 01 00 	mov    %rax,0x11696(%rip)        # 1f1d8 <g_2109>
    db42:	48 8b 05 8f 16 01 00 	mov    0x1168f(%rip),%rax        # 1f1d8 <g_2109>
    db49:	48 83 f8 e8          	cmp    $0xffffffffffffffe8,%rax
    db4d:	0f 8c 4f f4 ff ff    	jl     cfa2 <func_16+0x443>
    db53:	0f bf 85 4c f5 ff ff 	movswl -0xab4(%rbp),%eax
    db5a:	eb 26                	jmp    db82 <func_16+0x1023>
    db5c:	48 8d 05 e9 14 01 00 	lea    0x114e9(%rip),%rax        # 1f04c <g_43+0xc>
    db63:	48 89 85 b0 f5 ff ff 	mov    %rax,-0xa50(%rbp)
    db6a:	48 8d 15 1f 51 01 00 	lea    0x1511f(%rip),%rdx        # 22c90 <g_66>
    db71:	48 8b 85 b0 f5 ff ff 	mov    -0xa50(%rbp),%rax
    db78:	48 89 02             	mov    %rax,(%rdx)
    db7b:	0f b6 85 48 f5 ff ff 	movzbl -0xab8(%rbp),%eax
    db82:	48 8b 5d c8          	mov    -0x38(%rbp),%rbx
    db86:	64 48 33 1c 25 28 00 	xor    %fs:0x28,%rbx
    db8d:	00 00 
    db8f:	74 05                	je     db96 <func_16+0x1037>
    db91:	e8 da b4 ff ff       	callq  9070 <__stack_chk_fail@plt>
    db96:	48 81 c4 98 0a 00 00 	add    $0xa98,%rsp
    db9d:	5b                   	pop    %rbx
    db9e:	41 5c                	pop    %r12
    dba0:	41 5d                	pop    %r13
    dba2:	41 5e                	pop    %r14
    dba4:	41 5f                	pop    %r15
    dba6:	5d                   	pop    %rbp
    dba7:	c3                   	retq   

000000000000dba8 <func_22>:
    dba8:	f3 0f 1e fa          	endbr64 
    dbac:	55                   	push   %rbp
    dbad:	48 89 e5             	mov    %rsp,%rbp
    dbb0:	41 57                	push   %r15
    dbb2:	41 56                	push   %r14
    dbb4:	41 55                	push   %r13
    dbb6:	41 54                	push   %r12
    dbb8:	53                   	push   %rbx
    dbb9:	48 81 ec 08 0d 00 00 	sub    $0xd08,%rsp
    dbc0:	48 89 b5 e0 f2 ff ff 	mov    %rsi,-0xd20(%rbp)
    dbc7:	89 95 e8 f2 ff ff    	mov    %edx,-0xd18(%rbp)
    dbcd:	89 c8                	mov    %ecx,%eax
    dbcf:	89 fa                	mov    %edi,%edx
    dbd1:	66 89 95 ec f2 ff ff 	mov    %dx,-0xd14(%rbp)
    dbd8:	66 89 85 dc f2 ff ff 	mov    %ax,-0xd24(%rbp)
    dbdf:	64 48 8b 04 25 28 00 	mov    %fs:0x28,%rax
    dbe6:	00 00 
    dbe8:	48 89 45 c8          	mov    %rax,-0x38(%rbp)
    dbec:	31 c0                	xor    %eax,%eax
    dbee:	c6 85 f1 f2 ff ff 05 	movb   $0x5,-0xd0f(%rbp)
    dbf5:	c7 85 10 f3 ff ff 0a 	movl   $0xbca31f0a,-0xcf0(%rbp)
    dbfc:	1f a3 bc 
    dbff:	c7 85 14 f3 ff ff 08 	movl   $0x8,-0xcec(%rbp)
    dc06:	00 00 00 
    dc09:	c7 85 18 f3 ff ff d1 	movl   $0xeb3737d1,-0xce8(%rbp)
    dc10:	37 37 eb 
    dc13:	48 c7 85 38 f3 ff ff 	movq   $0x3,-0xcc8(%rbp)
    dc1a:	03 00 00 00 
    dc1e:	c7 85 1c f3 ff ff e6 	movl   $0x624b1e6,-0xce4(%rbp)
    dc25:	b1 24 06 
    dc28:	c7 85 20 f3 ff ff cd 	movl   $0x3b9fdcd,-0xce0(%rbp)
    dc2f:	fd b9 03 
    dc32:	48 8d 85 c0 f5 ff ff 	lea    -0xa40(%rbp),%rax
    dc39:	48 8d 15 60 d0 00 00 	lea    0xd060(%rip),%rdx        # 1aca0 <g_5313+0xc2c>
    dc40:	b9 50 00 00 00       	mov    $0x50,%ecx
    dc45:	48 89 c7             	mov    %rax,%rdi
    dc48:	48 89 d6             	mov    %rdx,%rsi
    dc4b:	f3 48 a5             	rep movsq %ds:(%rsi),%es:(%rdi)
    dc4e:	c7 85 24 f3 ff ff f6 	movl   $0xfffffff6,-0xcdc(%rbp)
    dc55:	ff ff ff 
    dc58:	48 8d 05 5b 15 01 00 	lea    0x1155b(%rip),%rax        # 1f1ba <g_1470>
    dc5f:	48 89 85 40 f3 ff ff 	mov    %rax,-0xcc0(%rbp)
    dc66:	48 8d 85 40 f3 ff ff 	lea    -0xcc0(%rbp),%rax
    dc6d:	48 89 85 48 f3 ff ff 	mov    %rax,-0xcb8(%rbp)
    dc74:	48 c7 85 78 f3 ff ff 	movq   $0xffffffffffffffff,-0xc88(%rbp)
    dc7b:	ff ff ff ff 
    dc7f:	c6 85 f2 f2 ff ff 05 	movb   $0x5,-0xd0e(%rbp)
    dc86:	66 c7 85 f8 f2 ff ff 	movw   $0x2a00,-0xd08(%rbp)
    dc8d:	00 2a 
    dc8f:	c6 85 f3 f2 ff ff 00 	movb   $0x0,-0xd0d(%rbp)
    dc96:	c6 85 f4 f2 ff ff 7b 	movb   $0x7b,-0xd0c(%rbp)
    dc9d:	66 c7 85 fa f2 ff ff 	movw   $0xa6f9,-0xd06(%rbp)
    dca4:	f9 a6 
    dca6:	48 8d 05 0b 14 01 00 	lea    0x1140b(%rip),%rax        # 1f0b8 <g_240+0x18>
    dcad:	48 89 85 30 f4 ff ff 	mov    %rax,-0xbd0(%rbp)
    dcb4:	48 8d 05 cd 4f 01 00 	lea    0x14fcd(%rip),%rax        # 22c88 <g_3>
    dcbb:	48 89 85 38 f4 ff ff 	mov    %rax,-0xbc8(%rbp)
    dcc2:	48 8d 05 bf 4f 01 00 	lea    0x14fbf(%rip),%rax        # 22c88 <g_3>
    dcc9:	48 89 85 40 f4 ff ff 	mov    %rax,-0xbc0(%rbp)
    dcd0:	48 8d 05 e1 13 01 00 	lea    0x113e1(%rip),%rax        # 1f0b8 <g_240+0x18>
    dcd7:	48 89 85 48 f4 ff ff 	mov    %rax,-0xbb8(%rbp)
    dcde:	48 8d 05 a3 4f 01 00 	lea    0x14fa3(%rip),%rax        # 22c88 <g_3>
    dce5:	48 89 85 50 f4 ff ff 	mov    %rax,-0xbb0(%rbp)
    dcec:	48 8d 05 95 4f 01 00 	lea    0x14f95(%rip),%rax        # 22c88 <g_3>
    dcf3:	48 89 85 58 f4 ff ff 	mov    %rax,-0xba8(%rbp)
    dcfa:	48 8d 05 b7 13 01 00 	lea    0x113b7(%rip),%rax        # 1f0b8 <g_240+0x18>
    dd01:	48 89 85 60 f4 ff ff 	mov    %rax,-0xba0(%rbp)
    dd08:	48 8d 05 79 4f 01 00 	lea    0x14f79(%rip),%rax        # 22c88 <g_3>
    dd0f:	48 89 85 68 f4 ff ff 	mov    %rax,-0xb98(%rbp)
    dd16:	48 8d 05 6b 4f 01 00 	lea    0x14f6b(%rip),%rax        # 22c88 <g_3>
    dd1d:	48 89 85 70 f4 ff ff 	mov    %rax,-0xb90(%rbp)
    dd24:	c7 85 28 f3 ff ff 80 	movl   $0x96f93380,-0xcd8(%rbp)
    dd2b:	33 f9 96 
    dd2e:	c7 85 00 f3 ff ff ff 	movl   $0xffffffff,-0xd00(%rbp)
    dd35:	ff ff ff 
    dd38:	48 8d 05 39 40 01 00 	lea    0x14039(%rip),%rax        # 21d78 <g_844>
    dd3f:	48 89 85 50 f3 ff ff 	mov    %rax,-0xcb0(%rbp)
    dd46:	48 8d 85 50 f3 ff ff 	lea    -0xcb0(%rbp),%rax
    dd4d:	48 89 85 80 f3 ff ff 	mov    %rax,-0xc80(%rbp)
    dd54:	48 8d 05 21 13 01 00 	lea    0x11321(%rip),%rax        # 1f07c <g_165>
    dd5b:	48 89 85 58 f3 ff ff 	mov    %rax,-0xca8(%rbp)
    dd62:	48 8d 85 58 f3 ff ff 	lea    -0xca8(%rbp),%rax
    dd69:	48 89 85 88 f3 ff ff 	mov    %rax,-0xc78(%rbp)
    dd70:	48 8d 05 59 4f 01 00 	lea    0x14f59(%rip),%rax        # 22cd0 <g_1378>
    dd77:	48 89 85 90 f3 ff ff 	mov    %rax,-0xc70(%rbp)
    dd7e:	c6 85 f5 f2 ff ff 00 	movb   $0x0,-0xd0b(%rbp)
    dd85:	c7 85 2c f3 ff ff 06 	movl   $0x6,-0xcd4(%rbp)
    dd8c:	00 00 00 
    dd8f:	c7 85 08 f3 ff ff 00 	movl   $0x0,-0xcf8(%rbp)
    dd96:	00 00 00 
    dd99:	eb 51                	jmp    ddec <func_22+0x244>
    dd9b:	c7 85 0c f3 ff ff 00 	movl   $0x0,-0xcf4(%rbp)
    dda2:	00 00 00 
    dda5:	eb 35                	jmp    dddc <func_22+0x234>
    dda7:	8b 85 0c f3 ff ff    	mov    -0xcf4(%rbp),%eax
    ddad:	48 63 c8             	movslq %eax,%rcx
    ddb0:	8b 85 08 f3 ff ff    	mov    -0xcf8(%rbp),%eax
    ddb6:	48 63 d0             	movslq %eax,%rdx
    ddb9:	48 89 d0             	mov    %rdx,%rax
    ddbc:	48 c1 e0 02          	shl    $0x2,%rax
    ddc0:	48 01 d0             	add    %rdx,%rax
    ddc3:	48 01 c8             	add    %rcx,%rax
    ddc6:	48 8d 15 13 39 01 00 	lea    0x13913(%rip),%rdx        # 216e0 <g_55+0x20>
    ddcd:	48 89 94 c5 00 f4 ff 	mov    %rdx,-0xc00(%rbp,%rax,8)
    ddd4:	ff 
    ddd5:	83 85 0c f3 ff ff 01 	addl   $0x1,-0xcf4(%rbp)
    dddc:	83 bd 0c f3 ff ff 04 	cmpl   $0x4,-0xcf4(%rbp)
    dde3:	7e c2                	jle    dda7 <func_22+0x1ff>
    dde5:	83 85 08 f3 ff ff 01 	addl   $0x1,-0xcf8(%rbp)
    ddec:	83 bd 08 f3 ff ff 00 	cmpl   $0x0,-0xcf8(%rbp)
    ddf3:	7e a6                	jle    dd9b <func_22+0x1f3>
    ddf5:	66 c7 85 ec f2 ff ff 	movw   $0x0,-0xd14(%rbp)
    ddfc:	00 00 
    ddfe:	e9 9a 10 00 00       	jmpq   ee9d <func_22+0x12f5>
    de03:	48 c7 85 c8 f3 ff ff 	movq   $0x0,-0xc38(%rbp)
    de0a:	00 00 00 00 
    de0e:	48 8d 05 13 12 01 00 	lea    0x11213(%rip),%rax        # 1f028 <g_35>
    de15:	48 89 85 60 f3 ff ff 	mov    %rax,-0xca0(%rbp)
    de1c:	48 8d 85 60 f3 ff ff 	lea    -0xca0(%rbp),%rax
    de23:	48 89 85 40 f8 ff ff 	mov    %rax,-0x7c0(%rbp)
    de2a:	48 8d 85 60 f3 ff ff 	lea    -0xca0(%rbp),%rax
    de31:	48 89 85 48 f8 ff ff 	mov    %rax,-0x7b8(%rbp)
    de38:	48 c7 85 50 f8 ff ff 	movq   $0x0,-0x7b0(%rbp)
    de3f:	00 00 00 00 
    de43:	48 8d 85 60 f3 ff ff 	lea    -0xca0(%rbp),%rax
    de4a:	48 89 85 58 f8 ff ff 	mov    %rax,-0x7a8(%rbp)
    de51:	48 8d 85 60 f3 ff ff 	lea    -0xca0(%rbp),%rax
    de58:	48 89 85 60 f8 ff ff 	mov    %rax,-0x7a0(%rbp)
    de5f:	48 8d 85 60 f3 ff ff 	lea    -0xca0(%rbp),%rax
    de66:	48 89 85 68 f8 ff ff 	mov    %rax,-0x798(%rbp)
    de6d:	48 c7 85 70 f8 ff ff 	movq   $0x0,-0x790(%rbp)
    de74:	00 00 00 00 
    de78:	48 8d 85 60 f3 ff ff 	lea    -0xca0(%rbp),%rax
    de7f:	48 89 85 78 f8 ff ff 	mov    %rax,-0x788(%rbp)
    de86:	48 8d 85 60 f3 ff ff 	lea    -0xca0(%rbp),%rax
    de8d:	48 89 85 80 f8 ff ff 	mov    %rax,-0x780(%rbp)
    de94:	48 8d 85 60 f3 ff ff 	lea    -0xca0(%rbp),%rax
    de9b:	48 89 85 88 f8 ff ff 	mov    %rax,-0x778(%rbp)
    dea2:	48 8d 85 60 f3 ff ff 	lea    -0xca0(%rbp),%rax
    dea9:	48 89 85 90 f8 ff ff 	mov    %rax,-0x770(%rbp)
    deb0:	48 8d 85 60 f3 ff ff 	lea    -0xca0(%rbp),%rax
    deb7:	48 89 85 98 f8 ff ff 	mov    %rax,-0x768(%rbp)
    debe:	48 8d 85 60 f3 ff ff 	lea    -0xca0(%rbp),%rax
    dec5:	48 89 85 a0 f8 ff ff 	mov    %rax,-0x760(%rbp)
    decc:	48 8d 85 60 f3 ff ff 	lea    -0xca0(%rbp),%rax
    ded3:	48 89 85 a8 f8 ff ff 	mov    %rax,-0x758(%rbp)
    deda:	48 8d 85 60 f3 ff ff 	lea    -0xca0(%rbp),%rax
    dee1:	48 89 85 b0 f8 ff ff 	mov    %rax,-0x750(%rbp)
    dee8:	48 8d 85 60 f3 ff ff 	lea    -0xca0(%rbp),%rax
    deef:	48 89 85 b8 f8 ff ff 	mov    %rax,-0x748(%rbp)
    def6:	48 8d 85 60 f3 ff ff 	lea    -0xca0(%rbp),%rax
    defd:	48 89 85 c0 f8 ff ff 	mov    %rax,-0x740(%rbp)
    df04:	48 8d 85 60 f3 ff ff 	lea    -0xca0(%rbp),%rax
    df0b:	48 89 85 c8 f8 ff ff 	mov    %rax,-0x738(%rbp)
    df12:	48 8d 85 60 f3 ff ff 	lea    -0xca0(%rbp),%rax
    df19:	48 89 85 d0 f8 ff ff 	mov    %rax,-0x730(%rbp)
    df20:	48 8d 85 60 f3 ff ff 	lea    -0xca0(%rbp),%rax
    df27:	48 89 85 d8 f8 ff ff 	mov    %rax,-0x728(%rbp)
    df2e:	48 8d 85 60 f3 ff ff 	lea    -0xca0(%rbp),%rax
    df35:	48 89 85 e0 f8 ff ff 	mov    %rax,-0x720(%rbp)
    df3c:	48 c7 85 e8 f8 ff ff 	movq   $0x0,-0x718(%rbp)
    df43:	00 00 00 00 
    df47:	48 8d 85 60 f3 ff ff 	lea    -0xca0(%rbp),%rax
    df4e:	48 89 85 f0 f8 ff ff 	mov    %rax,-0x710(%rbp)
    df55:	48 c7 85 f8 f8 ff ff 	movq   $0x0,-0x708(%rbp)
    df5c:	00 00 00 00 
    df60:	48 8d 85 60 f3 ff ff 	lea    -0xca0(%rbp),%rax
    df67:	48 89 85 00 f9 ff ff 	mov    %rax,-0x700(%rbp)
    df6e:	48 8d 85 60 f3 ff ff 	lea    -0xca0(%rbp),%rax
    df75:	48 89 85 08 f9 ff ff 	mov    %rax,-0x6f8(%rbp)
    df7c:	48 8d 85 60 f3 ff ff 	lea    -0xca0(%rbp),%rax
    df83:	48 89 85 10 f9 ff ff 	mov    %rax,-0x6f0(%rbp)
    df8a:	48 8d 85 60 f3 ff ff 	lea    -0xca0(%rbp),%rax
    df91:	48 89 85 18 f9 ff ff 	mov    %rax,-0x6e8(%rbp)
    df98:	48 8d 85 60 f3 ff ff 	lea    -0xca0(%rbp),%rax
    df9f:	48 89 85 20 f9 ff ff 	mov    %rax,-0x6e0(%rbp)
    dfa6:	48 c7 85 28 f9 ff ff 	movq   $0x0,-0x6d8(%rbp)
    dfad:	00 00 00 00 
    dfb1:	48 c7 85 30 f9 ff ff 	movq   $0x0,-0x6d0(%rbp)
    dfb8:	00 00 00 00 
    dfbc:	48 8d 85 60 f3 ff ff 	lea    -0xca0(%rbp),%rax
    dfc3:	48 89 85 38 f9 ff ff 	mov    %rax,-0x6c8(%rbp)
    dfca:	48 8d 85 60 f3 ff ff 	lea    -0xca0(%rbp),%rax
    dfd1:	48 89 85 40 f9 ff ff 	mov    %rax,-0x6c0(%rbp)
    dfd8:	48 8d 85 60 f3 ff ff 	lea    -0xca0(%rbp),%rax
    dfdf:	48 89 85 48 f9 ff ff 	mov    %rax,-0x6b8(%rbp)
    dfe6:	48 8d 85 60 f3 ff ff 	lea    -0xca0(%rbp),%rax
    dfed:	48 89 85 50 f9 ff ff 	mov    %rax,-0x6b0(%rbp)
    dff4:	48 8d 85 60 f3 ff ff 	lea    -0xca0(%rbp),%rax
    dffb:	48 89 85 58 f9 ff ff 	mov    %rax,-0x6a8(%rbp)
    e002:	48 8d 85 60 f3 ff ff 	lea    -0xca0(%rbp),%rax
    e009:	48 89 85 60 f9 ff ff 	mov    %rax,-0x6a0(%rbp)
    e010:	48 c7 85 68 f9 ff ff 	movq   $0x0,-0x698(%rbp)
    e017:	00 00 00 00 
    e01b:	48 8d 85 60 f3 ff ff 	lea    -0xca0(%rbp),%rax
    e022:	48 89 85 70 f9 ff ff 	mov    %rax,-0x690(%rbp)
    e029:	48 c7 85 78 f9 ff ff 	movq   $0x0,-0x688(%rbp)
    e030:	00 00 00 00 
    e034:	48 8d 85 60 f3 ff ff 	lea    -0xca0(%rbp),%rax
    e03b:	48 89 85 80 f9 ff ff 	mov    %rax,-0x680(%rbp)
    e042:	48 8d 85 60 f3 ff ff 	lea    -0xca0(%rbp),%rax
    e049:	48 89 85 88 f9 ff ff 	mov    %rax,-0x678(%rbp)
    e050:	48 8d 85 60 f3 ff ff 	lea    -0xca0(%rbp),%rax
    e057:	48 89 85 90 f9 ff ff 	mov    %rax,-0x670(%rbp)
    e05e:	48 8d 85 60 f3 ff ff 	lea    -0xca0(%rbp),%rax
    e065:	48 89 85 98 f9 ff ff 	mov    %rax,-0x668(%rbp)
    e06c:	48 8d 85 60 f3 ff ff 	lea    -0xca0(%rbp),%rax
    e073:	48 89 85 a0 f9 ff ff 	mov    %rax,-0x660(%rbp)
    e07a:	48 8d 85 60 f3 ff ff 	lea    -0xca0(%rbp),%rax
    e081:	48 89 85 a8 f9 ff ff 	mov    %rax,-0x658(%rbp)
    e088:	48 8d 85 60 f3 ff ff 	lea    -0xca0(%rbp),%rax
    e08f:	48 89 85 b0 f9 ff ff 	mov    %rax,-0x650(%rbp)
    e096:	48 c7 85 b8 f9 ff ff 	movq   $0x0,-0x648(%rbp)
    e09d:	00 00 00 00 
    e0a1:	48 8d 85 60 f3 ff ff 	lea    -0xca0(%rbp),%rax
    e0a8:	48 89 85 c0 f9 ff ff 	mov    %rax,-0x640(%rbp)
    e0af:	48 8d 85 60 f3 ff ff 	lea    -0xca0(%rbp),%rax
    e0b6:	48 89 85 c8 f9 ff ff 	mov    %rax,-0x638(%rbp)
    e0bd:	48 8d 85 60 f3 ff ff 	lea    -0xca0(%rbp),%rax
    e0c4:	48 89 85 d0 f9 ff ff 	mov    %rax,-0x630(%rbp)
    e0cb:	48 c7 85 d8 f9 ff ff 	movq   $0x0,-0x628(%rbp)
    e0d2:	00 00 00 00 
    e0d6:	48 8d 85 60 f3 ff ff 	lea    -0xca0(%rbp),%rax
    e0dd:	48 89 85 e0 f9 ff ff 	mov    %rax,-0x620(%rbp)
    e0e4:	48 8d 85 60 f3 ff ff 	lea    -0xca0(%rbp),%rax
    e0eb:	48 89 85 e8 f9 ff ff 	mov    %rax,-0x618(%rbp)
    e0f2:	48 c7 85 f0 f9 ff ff 	movq   $0x0,-0x610(%rbp)
    e0f9:	00 00 00 00 
    e0fd:	48 8d 85 60 f3 ff ff 	lea    -0xca0(%rbp),%rax
    e104:	48 89 85 f8 f9 ff ff 	mov    %rax,-0x608(%rbp)
    e10b:	48 8d 85 60 f3 ff ff 	lea    -0xca0(%rbp),%rax
    e112:	48 89 85 00 fa ff ff 	mov    %rax,-0x600(%rbp)
    e119:	48 8d 85 60 f3 ff ff 	lea    -0xca0(%rbp),%rax
    e120:	48 89 85 08 fa ff ff 	mov    %rax,-0x5f8(%rbp)
    e127:	48 c7 85 10 fa ff ff 	movq   $0x0,-0x5f0(%rbp)
    e12e:	00 00 00 00 
    e132:	48 c7 85 18 fa ff ff 	movq   $0x0,-0x5e8(%rbp)
    e139:	00 00 00 00 
    e13d:	48 c7 85 20 fa ff ff 	movq   $0x0,-0x5e0(%rbp)
    e144:	00 00 00 00 
    e148:	48 8d 85 60 f3 ff ff 	lea    -0xca0(%rbp),%rax
    e14f:	48 89 85 28 fa ff ff 	mov    %rax,-0x5d8(%rbp)
    e156:	48 c7 85 30 fa ff ff 	movq   $0x0,-0x5d0(%rbp)
    e15d:	00 00 00 00 
    e161:	48 8d 85 60 f3 ff ff 	lea    -0xca0(%rbp),%rax
    e168:	48 89 85 38 fa ff ff 	mov    %rax,-0x5c8(%rbp)
    e16f:	48 c7 85 40 fa ff ff 	movq   $0x0,-0x5c0(%rbp)
    e176:	00 00 00 00 
    e17a:	48 8d 85 60 f3 ff ff 	lea    -0xca0(%rbp),%rax
    e181:	48 89 85 48 fa ff ff 	mov    %rax,-0x5b8(%rbp)
    e188:	48 8d 85 60 f3 ff ff 	lea    -0xca0(%rbp),%rax
    e18f:	48 89 85 50 fa ff ff 	mov    %rax,-0x5b0(%rbp)
    e196:	48 8d 85 60 f3 ff ff 	lea    -0xca0(%rbp),%rax
    e19d:	48 89 85 58 fa ff ff 	mov    %rax,-0x5a8(%rbp)
    e1a4:	48 8d 85 60 f3 ff ff 	lea    -0xca0(%rbp),%rax
    e1ab:	48 89 85 60 fa ff ff 	mov    %rax,-0x5a0(%rbp)
    e1b2:	48 c7 85 68 fa ff ff 	movq   $0x0,-0x598(%rbp)
    e1b9:	00 00 00 00 
    e1bd:	48 8d 85 60 f3 ff ff 	lea    -0xca0(%rbp),%rax
    e1c4:	48 89 85 70 fa ff ff 	mov    %rax,-0x590(%rbp)
    e1cb:	48 8d 85 60 f3 ff ff 	lea    -0xca0(%rbp),%rax
    e1d2:	48 89 85 78 fa ff ff 	mov    %rax,-0x588(%rbp)
    e1d9:	48 8d 85 60 f3 ff ff 	lea    -0xca0(%rbp),%rax
    e1e0:	48 89 85 80 fa ff ff 	mov    %rax,-0x580(%rbp)
    e1e7:	48 8d 85 60 f3 ff ff 	lea    -0xca0(%rbp),%rax
    e1ee:	48 89 85 88 fa ff ff 	mov    %rax,-0x578(%rbp)
    e1f5:	48 8d 85 60 f3 ff ff 	lea    -0xca0(%rbp),%rax
    e1fc:	48 89 85 90 fa ff ff 	mov    %rax,-0x570(%rbp)
    e203:	48 c7 85 98 fa ff ff 	movq   $0x0,-0x568(%rbp)
    e20a:	00 00 00 00 
    e20e:	48 8d 85 60 f3 ff ff 	lea    -0xca0(%rbp),%rax
    e215:	48 89 85 a0 fa ff ff 	mov    %rax,-0x560(%rbp)
    e21c:	48 8d 85 60 f3 ff ff 	lea    -0xca0(%rbp),%rax
    e223:	48 89 85 a8 fa ff ff 	mov    %rax,-0x558(%rbp)
    e22a:	48 c7 85 b0 fa ff ff 	movq   $0x0,-0x550(%rbp)
    e231:	00 00 00 00 
    e235:	48 8d 85 60 f3 ff ff 	lea    -0xca0(%rbp),%rax
    e23c:	48 89 85 b8 fa ff ff 	mov    %rax,-0x548(%rbp)
    e243:	48 8d 85 60 f3 ff ff 	lea    -0xca0(%rbp),%rax
    e24a:	48 89 85 c0 fa ff ff 	mov    %rax,-0x540(%rbp)
    e251:	48 c7 85 c8 fa ff ff 	movq   $0x0,-0x538(%rbp)
    e258:	00 00 00 00 
    e25c:	48 c7 85 d0 fa ff ff 	movq   $0x0,-0x530(%rbp)
    e263:	00 00 00 00 
    e267:	48 8d 85 60 f3 ff ff 	lea    -0xca0(%rbp),%rax
    e26e:	48 89 85 d8 fa ff ff 	mov    %rax,-0x528(%rbp)
    e275:	48 c7 85 e0 fa ff ff 	movq   $0x0,-0x520(%rbp)
    e27c:	00 00 00 00 
    e280:	48 8d 85 60 f3 ff ff 	lea    -0xca0(%rbp),%rax
    e287:	48 89 85 e8 fa ff ff 	mov    %rax,-0x518(%rbp)
    e28e:	48 8d 85 60 f3 ff ff 	lea    -0xca0(%rbp),%rax
    e295:	48 89 85 f0 fa ff ff 	mov    %rax,-0x510(%rbp)
    e29c:	48 8d 85 60 f3 ff ff 	lea    -0xca0(%rbp),%rax
    e2a3:	48 89 85 f8 fa ff ff 	mov    %rax,-0x508(%rbp)
    e2aa:	48 8d 85 60 f3 ff ff 	lea    -0xca0(%rbp),%rax
    e2b1:	48 89 85 00 fb ff ff 	mov    %rax,-0x500(%rbp)
    e2b8:	48 8d 85 60 f3 ff ff 	lea    -0xca0(%rbp),%rax
    e2bf:	48 89 85 08 fb ff ff 	mov    %rax,-0x4f8(%rbp)
    e2c6:	48 c7 85 10 fb ff ff 	movq   $0x0,-0x4f0(%rbp)
    e2cd:	00 00 00 00 
    e2d1:	48 8d 85 60 f3 ff ff 	lea    -0xca0(%rbp),%rax
    e2d8:	48 89 85 18 fb ff ff 	mov    %rax,-0x4e8(%rbp)
    e2df:	48 8d 85 60 f3 ff ff 	lea    -0xca0(%rbp),%rax
    e2e6:	48 89 85 20 fb ff ff 	mov    %rax,-0x4e0(%rbp)
    e2ed:	48 8d 85 60 f3 ff ff 	lea    -0xca0(%rbp),%rax
    e2f4:	48 89 85 28 fb ff ff 	mov    %rax,-0x4d8(%rbp)
    e2fb:	48 c7 85 30 fb ff ff 	movq   $0x0,-0x4d0(%rbp)
    e302:	00 00 00 00 
    e306:	48 8d 85 60 f3 ff ff 	lea    -0xca0(%rbp),%rax
    e30d:	48 89 85 38 fb ff ff 	mov    %rax,-0x4c8(%rbp)
    e314:	48 c7 85 40 fb ff ff 	movq   $0x0,-0x4c0(%rbp)
    e31b:	00 00 00 00 
    e31f:	48 c7 85 48 fb ff ff 	movq   $0x0,-0x4b8(%rbp)
    e326:	00 00 00 00 
    e32a:	48 8d 85 60 f3 ff ff 	lea    -0xca0(%rbp),%rax
    e331:	48 89 85 50 fb ff ff 	mov    %rax,-0x4b0(%rbp)
    e338:	48 8d 85 60 f3 ff ff 	lea    -0xca0(%rbp),%rax
    e33f:	48 89 85 58 fb ff ff 	mov    %rax,-0x4a8(%rbp)
    e346:	48 8d 85 60 f3 ff ff 	lea    -0xca0(%rbp),%rax
    e34d:	48 89 85 60 fb ff ff 	mov    %rax,-0x4a0(%rbp)
    e354:	48 8d 85 60 f3 ff ff 	lea    -0xca0(%rbp),%rax
    e35b:	48 89 85 68 fb ff ff 	mov    %rax,-0x498(%rbp)
    e362:	48 8d 85 60 f3 ff ff 	lea    -0xca0(%rbp),%rax
    e369:	48 89 85 70 fb ff ff 	mov    %rax,-0x490(%rbp)
    e370:	48 8d 85 60 f3 ff ff 	lea    -0xca0(%rbp),%rax
    e377:	48 89 85 78 fb ff ff 	mov    %rax,-0x488(%rbp)
    e37e:	48 8d 85 60 f3 ff ff 	lea    -0xca0(%rbp),%rax
    e385:	48 89 85 80 fb ff ff 	mov    %rax,-0x480(%rbp)
    e38c:	48 c7 85 88 fb ff ff 	movq   $0x0,-0x478(%rbp)
    e393:	00 00 00 00 
    e397:	48 8d 85 60 f3 ff ff 	lea    -0xca0(%rbp),%rax
    e39e:	48 89 85 90 fb ff ff 	mov    %rax,-0x470(%rbp)
    e3a5:	48 c7 85 98 fb ff ff 	movq   $0x0,-0x468(%rbp)
    e3ac:	00 00 00 00 
    e3b0:	48 c7 85 a0 fb ff ff 	movq   $0x0,-0x460(%rbp)
    e3b7:	00 00 00 00 
    e3bb:	48 8d 85 60 f3 ff ff 	lea    -0xca0(%rbp),%rax
    e3c2:	48 89 85 a8 fb ff ff 	mov    %rax,-0x458(%rbp)
    e3c9:	48 8d 85 60 f3 ff ff 	lea    -0xca0(%rbp),%rax
    e3d0:	48 89 85 b0 fb ff ff 	mov    %rax,-0x450(%rbp)
    e3d7:	48 c7 85 b8 fb ff ff 	movq   $0x0,-0x448(%rbp)
    e3de:	00 00 00 00 
    e3e2:	48 8d 85 60 f3 ff ff 	lea    -0xca0(%rbp),%rax
    e3e9:	48 89 85 c0 fb ff ff 	mov    %rax,-0x440(%rbp)
    e3f0:	48 8d 85 60 f3 ff ff 	lea    -0xca0(%rbp),%rax
    e3f7:	48 89 85 c8 fb ff ff 	mov    %rax,-0x438(%rbp)
    e3fe:	48 8d 85 60 f3 ff ff 	lea    -0xca0(%rbp),%rax
    e405:	48 89 85 d0 fb ff ff 	mov    %rax,-0x430(%rbp)
    e40c:	48 8d 85 60 f3 ff ff 	lea    -0xca0(%rbp),%rax
    e413:	48 89 85 d8 fb ff ff 	mov    %rax,-0x428(%rbp)
    e41a:	48 8d 85 60 f3 ff ff 	lea    -0xca0(%rbp),%rax
    e421:	48 89 85 e0 fb ff ff 	mov    %rax,-0x420(%rbp)
    e428:	48 8d 85 60 f3 ff ff 	lea    -0xca0(%rbp),%rax
    e42f:	48 89 85 e8 fb ff ff 	mov    %rax,-0x418(%rbp)
    e436:	48 8d 85 60 f3 ff ff 	lea    -0xca0(%rbp),%rax
    e43d:	48 89 85 f0 fb ff ff 	mov    %rax,-0x410(%rbp)
    e444:	48 8d 85 60 f3 ff ff 	lea    -0xca0(%rbp),%rax
    e44b:	48 89 85 f8 fb ff ff 	mov    %rax,-0x408(%rbp)
    e452:	48 8d 85 60 f3 ff ff 	lea    -0xca0(%rbp),%rax
    e459:	48 89 85 00 fc ff ff 	mov    %rax,-0x400(%rbp)
    e460:	48 8d 85 60 f3 ff ff 	lea    -0xca0(%rbp),%rax
    e467:	48 89 85 08 fc ff ff 	mov    %rax,-0x3f8(%rbp)
    e46e:	48 8d 85 60 f3 ff ff 	lea    -0xca0(%rbp),%rax
    e475:	48 89 85 10 fc ff ff 	mov    %rax,-0x3f0(%rbp)
    e47c:	48 8d 85 60 f3 ff ff 	lea    -0xca0(%rbp),%rax
    e483:	48 89 85 18 fc ff ff 	mov    %rax,-0x3e8(%rbp)
    e48a:	48 8d 85 60 f3 ff ff 	lea    -0xca0(%rbp),%rax
    e491:	48 89 85 20 fc ff ff 	mov    %rax,-0x3e0(%rbp)
    e498:	48 8d 85 60 f3 ff ff 	lea    -0xca0(%rbp),%rax
    e49f:	48 89 85 28 fc ff ff 	mov    %rax,-0x3d8(%rbp)
    e4a6:	48 c7 85 30 fc ff ff 	movq   $0x0,-0x3d0(%rbp)
    e4ad:	00 00 00 00 
    e4b1:	48 8d 85 60 f3 ff ff 	lea    -0xca0(%rbp),%rax
    e4b8:	48 89 85 38 fc ff ff 	mov    %rax,-0x3c8(%rbp)
    e4bf:	48 c7 85 40 fc ff ff 	movq   $0x0,-0x3c0(%rbp)
    e4c6:	00 00 00 00 
    e4ca:	48 8d 85 60 f3 ff ff 	lea    -0xca0(%rbp),%rax
    e4d1:	48 89 85 48 fc ff ff 	mov    %rax,-0x3b8(%rbp)
    e4d8:	48 8d 85 60 f3 ff ff 	lea    -0xca0(%rbp),%rax
    e4df:	48 89 85 50 fc ff ff 	mov    %rax,-0x3b0(%rbp)
    e4e6:	48 8d 85 60 f3 ff ff 	lea    -0xca0(%rbp),%rax
    e4ed:	48 89 85 58 fc ff ff 	mov    %rax,-0x3a8(%rbp)
    e4f4:	48 8d 85 60 f3 ff ff 	lea    -0xca0(%rbp),%rax
    e4fb:	48 89 85 60 fc ff ff 	mov    %rax,-0x3a0(%rbp)
    e502:	48 8d 85 60 f3 ff ff 	lea    -0xca0(%rbp),%rax
    e509:	48 89 85 68 fc ff ff 	mov    %rax,-0x398(%rbp)
    e510:	48 c7 85 70 fc ff ff 	movq   $0x0,-0x390(%rbp)
    e517:	00 00 00 00 
    e51b:	48 c7 85 78 fc ff ff 	movq   $0x0,-0x388(%rbp)
    e522:	00 00 00 00 
    e526:	48 8d 85 60 f3 ff ff 	lea    -0xca0(%rbp),%rax
    e52d:	48 89 85 80 fc ff ff 	mov    %rax,-0x380(%rbp)
    e534:	48 8d 85 60 f3 ff ff 	lea    -0xca0(%rbp),%rax
    e53b:	48 89 85 88 fc ff ff 	mov    %rax,-0x378(%rbp)
    e542:	48 8d 85 60 f3 ff ff 	lea    -0xca0(%rbp),%rax
    e549:	48 89 85 90 fc ff ff 	mov    %rax,-0x370(%rbp)
    e550:	48 8d 85 60 f3 ff ff 	lea    -0xca0(%rbp),%rax
    e557:	48 89 85 98 fc ff ff 	mov    %rax,-0x368(%rbp)
    e55e:	48 8d 85 60 f3 ff ff 	lea    -0xca0(%rbp),%rax
    e565:	48 89 85 a0 fc ff ff 	mov    %rax,-0x360(%rbp)
    e56c:	48 8d 85 60 f3 ff ff 	lea    -0xca0(%rbp),%rax
    e573:	48 89 85 a8 fc ff ff 	mov    %rax,-0x358(%rbp)
    e57a:	48 c7 85 b0 fc ff ff 	movq   $0x0,-0x350(%rbp)
    e581:	00 00 00 00 
    e585:	48 8d 85 60 f3 ff ff 	lea    -0xca0(%rbp),%rax
    e58c:	48 89 85 b8 fc ff ff 	mov    %rax,-0x348(%rbp)
    e593:	48 c7 85 c0 fc ff ff 	movq   $0x0,-0x340(%rbp)
    e59a:	00 00 00 00 
    e59e:	48 8d 85 60 f3 ff ff 	lea    -0xca0(%rbp),%rax
    e5a5:	48 89 85 c8 fc ff ff 	mov    %rax,-0x338(%rbp)
    e5ac:	48 8d 85 60 f3 ff ff 	lea    -0xca0(%rbp),%rax
    e5b3:	48 89 85 d0 fc ff ff 	mov    %rax,-0x330(%rbp)
    e5ba:	48 8d 85 60 f3 ff ff 	lea    -0xca0(%rbp),%rax
    e5c1:	48 89 85 d8 fc ff ff 	mov    %rax,-0x328(%rbp)
    e5c8:	48 8d 85 60 f3 ff ff 	lea    -0xca0(%rbp),%rax
    e5cf:	48 89 85 e0 fc ff ff 	mov    %rax,-0x320(%rbp)
    e5d6:	48 8d 85 60 f3 ff ff 	lea    -0xca0(%rbp),%rax
    e5dd:	48 89 85 e8 fc ff ff 	mov    %rax,-0x318(%rbp)
    e5e4:	48 8d 85 60 f3 ff ff 	lea    -0xca0(%rbp),%rax
    e5eb:	48 89 85 f0 fc ff ff 	mov    %rax,-0x310(%rbp)
    e5f2:	48 8d 85 60 f3 ff ff 	lea    -0xca0(%rbp),%rax
    e5f9:	48 89 85 f8 fc ff ff 	mov    %rax,-0x308(%rbp)
    e600:	48 c7 85 00 fd ff ff 	movq   $0x0,-0x300(%rbp)
    e607:	00 00 00 00 
    e60b:	48 8d 85 60 f3 ff ff 	lea    -0xca0(%rbp),%rax
    e612:	48 89 85 08 fd ff ff 	mov    %rax,-0x2f8(%rbp)
    e619:	48 8d 85 60 f3 ff ff 	lea    -0xca0(%rbp),%rax
    e620:	48 89 85 10 fd ff ff 	mov    %rax,-0x2f0(%rbp)
    e627:	48 8d 85 60 f3 ff ff 	lea    -0xca0(%rbp),%rax
    e62e:	48 89 85 18 fd ff ff 	mov    %rax,-0x2e8(%rbp)
    e635:	48 c7 85 20 fd ff ff 	movq   $0x0,-0x2e0(%rbp)
    e63c:	00 00 00 00 
    e640:	48 8d 85 60 f3 ff ff 	lea    -0xca0(%rbp),%rax
    e647:	48 89 85 28 fd ff ff 	mov    %rax,-0x2d8(%rbp)
    e64e:	48 8d 85 60 f3 ff ff 	lea    -0xca0(%rbp),%rax
    e655:	48 89 85 30 fd ff ff 	mov    %rax,-0x2d0(%rbp)
    e65c:	48 c7 85 38 fd ff ff 	movq   $0x0,-0x2c8(%rbp)
    e663:	00 00 00 00 
    e667:	48 8d 85 60 f3 ff ff 	lea    -0xca0(%rbp),%rax
    e66e:	48 89 85 40 fd ff ff 	mov    %rax,-0x2c0(%rbp)
    e675:	48 8d 85 60 f3 ff ff 	lea    -0xca0(%rbp),%rax
    e67c:	48 89 85 48 fd ff ff 	mov    %rax,-0x2b8(%rbp)
    e683:	48 8d 85 60 f3 ff ff 	lea    -0xca0(%rbp),%rax
    e68a:	48 89 85 50 fd ff ff 	mov    %rax,-0x2b0(%rbp)
    e691:	48 c7 85 58 fd ff ff 	movq   $0x0,-0x2a8(%rbp)
    e698:	00 00 00 00 
    e69c:	48 c7 85 60 fd ff ff 	movq   $0x0,-0x2a0(%rbp)
    e6a3:	00 00 00 00 
    e6a7:	48 c7 85 68 fd ff ff 	movq   $0x0,-0x298(%rbp)
    e6ae:	00 00 00 00 
    e6b2:	48 8d 85 60 f3 ff ff 	lea    -0xca0(%rbp),%rax
    e6b9:	48 89 85 70 fd ff ff 	mov    %rax,-0x290(%rbp)
    e6c0:	48 c7 85 78 fd ff ff 	movq   $0x0,-0x288(%rbp)
    e6c7:	00 00 00 00 
    e6cb:	48 8d 85 60 f3 ff ff 	lea    -0xca0(%rbp),%rax
    e6d2:	48 89 85 80 fd ff ff 	mov    %rax,-0x280(%rbp)
    e6d9:	48 c7 85 88 fd ff ff 	movq   $0x0,-0x278(%rbp)
    e6e0:	00 00 00 00 
    e6e4:	48 8d 85 60 f3 ff ff 	lea    -0xca0(%rbp),%rax
    e6eb:	48 89 85 90 fd ff ff 	mov    %rax,-0x270(%rbp)
    e6f2:	48 8d 85 60 f3 ff ff 	lea    -0xca0(%rbp),%rax
    e6f9:	48 89 85 98 fd ff ff 	mov    %rax,-0x268(%rbp)
    e700:	48 8d 85 60 f3 ff ff 	lea    -0xca0(%rbp),%rax
    e707:	48 89 85 a0 fd ff ff 	mov    %rax,-0x260(%rbp)
    e70e:	48 8d 85 60 f3 ff ff 	lea    -0xca0(%rbp),%rax
    e715:	48 89 85 a8 fd ff ff 	mov    %rax,-0x258(%rbp)
    e71c:	48 c7 85 b0 fd ff ff 	movq   $0x0,-0x250(%rbp)
    e723:	00 00 00 00 
    e727:	48 8d 85 60 f3 ff ff 	lea    -0xca0(%rbp),%rax
    e72e:	48 89 85 b8 fd ff ff 	mov    %rax,-0x248(%rbp)
    e735:	48 8d 85 60 f3 ff ff 	lea    -0xca0(%rbp),%rax
    e73c:	48 89 85 c0 fd ff ff 	mov    %rax,-0x240(%rbp)
    e743:	48 8d 85 60 f3 ff ff 	lea    -0xca0(%rbp),%rax
    e74a:	48 89 85 c8 fd ff ff 	mov    %rax,-0x238(%rbp)
    e751:	48 8d 85 60 f3 ff ff 	lea    -0xca0(%rbp),%rax
    e758:	48 89 85 d0 fd ff ff 	mov    %rax,-0x230(%rbp)
    e75f:	48 8d 85 60 f3 ff ff 	lea    -0xca0(%rbp),%rax
    e766:	48 89 85 d8 fd ff ff 	mov    %rax,-0x228(%rbp)
    e76d:	48 c7 85 e0 fd ff ff 	movq   $0x0,-0x220(%rbp)
    e774:	00 00 00 00 
    e778:	48 8d 85 60 f3 ff ff 	lea    -0xca0(%rbp),%rax
    e77f:	48 89 85 e8 fd ff ff 	mov    %rax,-0x218(%rbp)
    e786:	48 8d 85 60 f3 ff ff 	lea    -0xca0(%rbp),%rax
    e78d:	48 89 85 f0 fd ff ff 	mov    %rax,-0x210(%rbp)
    e794:	48 c7 85 f8 fd ff ff 	movq   $0x0,-0x208(%rbp)
    e79b:	00 00 00 00 
    e79f:	48 8d 85 60 f3 ff ff 	lea    -0xca0(%rbp),%rax
    e7a6:	48 89 85 00 fe ff ff 	mov    %rax,-0x200(%rbp)
    e7ad:	48 8d 85 60 f3 ff ff 	lea    -0xca0(%rbp),%rax
    e7b4:	48 89 85 08 fe ff ff 	mov    %rax,-0x1f8(%rbp)
    e7bb:	48 c7 85 10 fe ff ff 	movq   $0x0,-0x1f0(%rbp)
    e7c2:	00 00 00 00 
    e7c6:	48 c7 85 18 fe ff ff 	movq   $0x0,-0x1e8(%rbp)
    e7cd:	00 00 00 00 
    e7d1:	48 8d 85 60 f3 ff ff 	lea    -0xca0(%rbp),%rax
    e7d8:	48 89 85 20 fe ff ff 	mov    %rax,-0x1e0(%rbp)
    e7df:	48 c7 85 28 fe ff ff 	movq   $0x0,-0x1d8(%rbp)
    e7e6:	00 00 00 00 
    e7ea:	48 8d 85 60 f3 ff ff 	lea    -0xca0(%rbp),%rax
    e7f1:	48 89 85 30 fe ff ff 	mov    %rax,-0x1d0(%rbp)
    e7f8:	48 8d 85 60 f3 ff ff 	lea    -0xca0(%rbp),%rax
    e7ff:	48 89 85 38 fe ff ff 	mov    %rax,-0x1c8(%rbp)
    e806:	48 8d 85 60 f3 ff ff 	lea    -0xca0(%rbp),%rax
    e80d:	48 89 85 40 fe ff ff 	mov    %rax,-0x1c0(%rbp)
    e814:	48 8d 85 60 f3 ff ff 	lea    -0xca0(%rbp),%rax
    e81b:	48 89 85 48 fe ff ff 	mov    %rax,-0x1b8(%rbp)
    e822:	48 8d 85 60 f3 ff ff 	lea    -0xca0(%rbp),%rax
    e829:	48 89 85 50 fe ff ff 	mov    %rax,-0x1b0(%rbp)
    e830:	48 c7 85 58 fe ff ff 	movq   $0x0,-0x1a8(%rbp)
    e837:	00 00 00 00 
    e83b:	48 8d 85 60 f3 ff ff 	lea    -0xca0(%rbp),%rax
    e842:	48 89 85 60 fe ff ff 	mov    %rax,-0x1a0(%rbp)
    e849:	48 8d 85 60 f3 ff ff 	lea    -0xca0(%rbp),%rax
    e850:	48 89 85 68 fe ff ff 	mov    %rax,-0x198(%rbp)
    e857:	48 8d 85 60 f3 ff ff 	lea    -0xca0(%rbp),%rax
    e85e:	48 89 85 70 fe ff ff 	mov    %rax,-0x190(%rbp)
    e865:	48 c7 85 78 fe ff ff 	movq   $0x0,-0x188(%rbp)
    e86c:	00 00 00 00 
    e870:	48 8d 85 60 f3 ff ff 	lea    -0xca0(%rbp),%rax
    e877:	48 89 85 80 fe ff ff 	mov    %rax,-0x180(%rbp)
    e87e:	48 c7 85 88 fe ff ff 	movq   $0x0,-0x178(%rbp)
    e885:	00 00 00 00 
    e889:	48 8d 85 60 f3 ff ff 	lea    -0xca0(%rbp),%rax
    e890:	48 89 85 90 fe ff ff 	mov    %rax,-0x170(%rbp)
    e897:	48 8d 85 60 f3 ff ff 	lea    -0xca0(%rbp),%rax
    e89e:	48 89 85 98 fe ff ff 	mov    %rax,-0x168(%rbp)
    e8a5:	48 8d 85 60 f3 ff ff 	lea    -0xca0(%rbp),%rax
    e8ac:	48 89 85 a0 fe ff ff 	mov    %rax,-0x160(%rbp)
    e8b3:	48 8d 85 60 f3 ff ff 	lea    -0xca0(%rbp),%rax
    e8ba:	48 89 85 a8 fe ff ff 	mov    %rax,-0x158(%rbp)
    e8c1:	48 c7 85 b0 fe ff ff 	movq   $0x0,-0x150(%rbp)
    e8c8:	00 00 00 00 
    e8cc:	48 8d 85 60 f3 ff ff 	lea    -0xca0(%rbp),%rax
    e8d3:	48 89 85 b8 fe ff ff 	mov    %rax,-0x148(%rbp)
    e8da:	48 c7 85 c0 fe ff ff 	movq   $0x0,-0x140(%rbp)
    e8e1:	00 00 00 00 
    e8e5:	48 8d 85 60 f3 ff ff 	lea    -0xca0(%rbp),%rax
    e8ec:	48 89 85 c8 fe ff ff 	mov    %rax,-0x138(%rbp)
    e8f3:	48 8d 85 60 f3 ff ff 	lea    -0xca0(%rbp),%rax
    e8fa:	48 89 85 d0 fe ff ff 	mov    %rax,-0x130(%rbp)
    e901:	48 c7 85 d8 fe ff ff 	movq   $0x0,-0x128(%rbp)
    e908:	00 00 00 00 
    e90c:	48 8d 85 60 f3 ff ff 	lea    -0xca0(%rbp),%rax
    e913:	48 89 85 e0 fe ff ff 	mov    %rax,-0x120(%rbp)
    e91a:	48 8d 85 60 f3 ff ff 	lea    -0xca0(%rbp),%rax
    e921:	48 89 85 e8 fe ff ff 	mov    %rax,-0x118(%rbp)
    e928:	48 8d 85 60 f3 ff ff 	lea    -0xca0(%rbp),%rax
    e92f:	48 89 85 f0 fe ff ff 	mov    %rax,-0x110(%rbp)
    e936:	48 8d 85 60 f3 ff ff 	lea    -0xca0(%rbp),%rax
    e93d:	48 89 85 f8 fe ff ff 	mov    %rax,-0x108(%rbp)
    e944:	48 8d 85 60 f3 ff ff 	lea    -0xca0(%rbp),%rax
    e94b:	48 89 85 00 ff ff ff 	mov    %rax,-0x100(%rbp)
    e952:	48 8d 85 60 f3 ff ff 	lea    -0xca0(%rbp),%rax
    e959:	48 89 85 08 ff ff ff 	mov    %rax,-0xf8(%rbp)
    e960:	48 8d 85 60 f3 ff ff 	lea    -0xca0(%rbp),%rax
    e967:	48 89 85 10 ff ff ff 	mov    %rax,-0xf0(%rbp)
    e96e:	48 8d 85 60 f3 ff ff 	lea    -0xca0(%rbp),%rax
    e975:	48 89 85 18 ff ff ff 	mov    %rax,-0xe8(%rbp)
    e97c:	48 c7 85 20 ff ff ff 	movq   $0x0,-0xe0(%rbp)
    e983:	00 00 00 00 
    e987:	48 c7 85 28 ff ff ff 	movq   $0x0,-0xd8(%rbp)
    e98e:	00 00 00 00 
    e992:	48 8d 85 60 f3 ff ff 	lea    -0xca0(%rbp),%rax
    e999:	48 89 85 30 ff ff ff 	mov    %rax,-0xd0(%rbp)
    e9a0:	48 c7 85 38 ff ff ff 	movq   $0x0,-0xc8(%rbp)
    e9a7:	00 00 00 00 
    e9ab:	48 8d 85 60 f3 ff ff 	lea    -0xca0(%rbp),%rax
    e9b2:	48 89 85 40 ff ff ff 	mov    %rax,-0xc0(%rbp)
    e9b9:	48 8d 85 60 f3 ff ff 	lea    -0xca0(%rbp),%rax
    e9c0:	48 89 85 48 ff ff ff 	mov    %rax,-0xb8(%rbp)
    e9c7:	48 8d 85 60 f3 ff ff 	lea    -0xca0(%rbp),%rax
    e9ce:	48 89 85 50 ff ff ff 	mov    %rax,-0xb0(%rbp)
    e9d5:	48 8d 85 60 f3 ff ff 	lea    -0xca0(%rbp),%rax
    e9dc:	48 89 85 58 ff ff ff 	mov    %rax,-0xa8(%rbp)
    e9e3:	48 8d 85 60 f3 ff ff 	lea    -0xca0(%rbp),%rax
    e9ea:	48 89 85 60 ff ff ff 	mov    %rax,-0xa0(%rbp)
    e9f1:	48 8d 85 60 f3 ff ff 	lea    -0xca0(%rbp),%rax
    e9f8:	48 89 85 68 ff ff ff 	mov    %rax,-0x98(%rbp)
    e9ff:	48 8d 85 60 f3 ff ff 	lea    -0xca0(%rbp),%rax
    ea06:	48 89 85 70 ff ff ff 	mov    %rax,-0x90(%rbp)
    ea0d:	48 8d 85 60 f3 ff ff 	lea    -0xca0(%rbp),%rax
    ea14:	48 89 85 78 ff ff ff 	mov    %rax,-0x88(%rbp)
    ea1b:	48 8d 85 60 f3 ff ff 	lea    -0xca0(%rbp),%rax
    ea22:	48 89 45 80          	mov    %rax,-0x80(%rbp)
    ea26:	48 c7 45 88 00 00 00 	movq   $0x0,-0x78(%rbp)
    ea2d:	00 
    ea2e:	48 8d 85 60 f3 ff ff 	lea    -0xca0(%rbp),%rax
    ea35:	48 89 45 90          	mov    %rax,-0x70(%rbp)
    ea39:	48 c7 45 98 00 00 00 	movq   $0x0,-0x68(%rbp)
    ea40:	00 
    ea41:	48 8d 85 60 f3 ff ff 	lea    -0xca0(%rbp),%rax
    ea48:	48 89 45 a0          	mov    %rax,-0x60(%rbp)
    ea4c:	48 8d 85 60 f3 ff ff 	lea    -0xca0(%rbp),%rax
    ea53:	48 89 45 a8          	mov    %rax,-0x58(%rbp)
    ea57:	48 8d 85 60 f3 ff ff 	lea    -0xca0(%rbp),%rax
    ea5e:	48 89 45 b0          	mov    %rax,-0x50(%rbp)
    ea62:	48 c7 45 b8 00 00 00 	movq   $0x0,-0x48(%rbp)
    ea69:	00 
    ea6a:	48 8d 05 e7 05 01 00 	lea    0x105e7(%rip),%rax        # 1f058 <g_43+0x18>
    ea71:	48 89 85 d0 f3 ff ff 	mov    %rax,-0xc30(%rbp)
    ea78:	c7 85 30 f3 ff ff ee 	movl   $0x8c85c7ee,-0xcd0(%rbp)
    ea7f:	c7 85 8c 
    ea82:	48 8d 05 8b 06 01 00 	lea    0x1068b(%rip),%rax        # 1f114 <g_675+0x4>
    ea89:	48 89 85 68 f3 ff ff 	mov    %rax,-0xc98(%rbp)
    ea90:	48 8d 85 68 f3 ff ff 	lea    -0xc98(%rbp),%rax
    ea97:	48 89 85 d8 f3 ff ff 	mov    %rax,-0xc28(%rbp)
    ea9e:	c7 85 34 f3 ff ff 01 	movl   $0x1,-0xccc(%rbp)
    eaa5:	00 00 00 
    eaa8:	c7 85 e0 f4 ff ff b8 	movl   $0x1e35d5b8,-0xb20(%rbp)
    eaaf:	d5 35 1e 
    eab2:	c7 85 e4 f4 ff ff 50 	movl   $0xa8df4050,-0xb1c(%rbp)
    eab9:	40 df a8 
    eabc:	c7 85 e8 f4 ff ff d6 	movl   $0xd74367d6,-0xb18(%rbp)
    eac3:	67 43 d7 
    eac6:	c7 85 ec f4 ff ff d6 	movl   $0xd74367d6,-0xb14(%rbp)
    eacd:	67 43 d7 
    ead0:	c7 85 f0 f4 ff ff 50 	movl   $0xa8df4050,-0xb10(%rbp)
    ead7:	40 df a8 
    eada:	c7 85 f4 f4 ff ff b8 	movl   $0x1e35d5b8,-0xb0c(%rbp)
    eae1:	d5 35 1e 
    eae4:	c7 85 f8 f4 ff ff 50 	movl   $0xa8df4050,-0xb08(%rbp)
    eaeb:	40 df a8 
    eaee:	c7 85 fc f4 ff ff fb 	movl   $0xfffffffb,-0xb04(%rbp)
    eaf5:	ff ff ff 
    eaf8:	c7 85 00 f5 ff ff b8 	movl   $0x1e35d5b8,-0xb00(%rbp)
    eaff:	d5 35 1e 
    eb02:	c7 85 04 f5 ff ff b8 	movl   $0x1e35d5b8,-0xafc(%rbp)
    eb09:	d5 35 1e 
    eb0c:	c7 85 08 f5 ff ff fb 	movl   $0xfffffffb,-0xaf8(%rbp)
    eb13:	ff ff ff 
    eb16:	c7 85 0c f5 ff ff 50 	movl   $0xa8df4050,-0xaf4(%rbp)
    eb1d:	40 df a8 
    eb20:	c7 85 10 f5 ff ff fb 	movl   $0xfffffffb,-0xaf0(%rbp)
    eb27:	ff ff ff 
    eb2a:	c7 85 14 f5 ff ff b8 	movl   $0x1e35d5b8,-0xaec(%rbp)
    eb31:	d5 35 1e 
    eb34:	c7 85 18 f5 ff ff ff 	movl   $0xffffffff,-0xae8(%rbp)
    eb3b:	ff ff ff 
    eb3e:	c7 85 1c f5 ff ff ff 	movl   $0xffffffff,-0xae4(%rbp)
    eb45:	ff ff ff 
    eb48:	c7 85 20 f5 ff ff b8 	movl   $0x1e35d5b8,-0xae0(%rbp)
    eb4f:	d5 35 1e 
    eb52:	c7 85 24 f5 ff ff d6 	movl   $0xd74367d6,-0xadc(%rbp)
    eb59:	67 43 d7 
    eb5c:	c7 85 28 f5 ff ff b8 	movl   $0x1e35d5b8,-0xad8(%rbp)
    eb63:	d5 35 1e 
    eb66:	c7 85 2c f5 ff ff ff 	movl   $0xffffffff,-0xad4(%rbp)
    eb6d:	ff ff ff 
    eb70:	c7 85 30 f5 ff ff ff 	movl   $0xffffffff,-0xad0(%rbp)
    eb77:	ff ff ff 
    eb7a:	c7 85 34 f5 ff ff ff 	movl   $0xffffffff,-0xacc(%rbp)
    eb81:	ff ff ff 
    eb84:	c7 85 38 f5 ff ff b8 	movl   $0x1e35d5b8,-0xac8(%rbp)
    eb8b:	d5 35 1e 
    eb8e:	c7 85 3c f5 ff ff d6 	movl   $0xd74367d6,-0xac4(%rbp)
    eb95:	67 43 d7 
    eb98:	c7 85 40 f5 ff ff b8 	movl   $0x1e35d5b8,-0xac0(%rbp)
    eb9f:	d5 35 1e 
    eba2:	c7 85 44 f5 ff ff ff 	movl   $0xffffffff,-0xabc(%rbp)
    eba9:	ff ff ff 
    ebac:	c7 85 48 f5 ff ff ff 	movl   $0xffffffff,-0xab8(%rbp)
    ebb3:	ff ff ff 
    ebb6:	c7 85 4c f5 ff ff b8 	movl   $0x1e35d5b8,-0xab4(%rbp)
    ebbd:	d5 35 1e 
    ebc0:	c7 85 50 f5 ff ff fb 	movl   $0xfffffffb,-0xab0(%rbp)
    ebc7:	ff ff ff 
    ebca:	c7 85 54 f5 ff ff 50 	movl   $0xa8df4050,-0xaac(%rbp)
    ebd1:	40 df a8 
    ebd4:	c7 85 58 f5 ff ff fb 	movl   $0xfffffffb,-0xaa8(%rbp)
    ebdb:	ff ff ff 
    ebde:	c7 85 5c f5 ff ff b8 	movl   $0x1e35d5b8,-0xaa4(%rbp)
    ebe5:	d5 35 1e 
    ebe8:	c7 85 60 f5 ff ff b8 	movl   $0x1e35d5b8,-0xaa0(%rbp)
    ebef:	d5 35 1e 
    ebf2:	c7 85 64 f5 ff ff fb 	movl   $0xfffffffb,-0xa9c(%rbp)
    ebf9:	ff ff ff 
    ebfc:	c7 85 68 f5 ff ff 50 	movl   $0xa8df4050,-0xa98(%rbp)
    ec03:	40 df a8 
    ec06:	c7 85 6c f5 ff ff b8 	movl   $0x1e35d5b8,-0xa94(%rbp)
    ec0d:	d5 35 1e 
    ec10:	c7 85 70 f5 ff ff 50 	movl   $0xa8df4050,-0xa90(%rbp)
    ec17:	40 df a8 
    ec1a:	c7 85 74 f5 ff ff d6 	movl   $0xd74367d6,-0xa8c(%rbp)
    ec21:	67 43 d7 
    ec24:	c7 85 78 f5 ff ff d6 	movl   $0xd74367d6,-0xa88(%rbp)
    ec2b:	67 43 d7 
    ec2e:	c7 85 7c f5 ff ff 50 	movl   $0xa8df4050,-0xa84(%rbp)
    ec35:	40 df a8 
    ec38:	c7 85 80 f5 ff ff b8 	movl   $0x1e35d5b8,-0xa80(%rbp)
    ec3f:	d5 35 1e 
    ec42:	c7 85 84 f5 ff ff 50 	movl   $0xa8df4050,-0xa7c(%rbp)
    ec49:	40 df a8 
    ec4c:	c7 85 88 f5 ff ff fb 	movl   $0xfffffffb,-0xa78(%rbp)
    ec53:	ff ff ff 
    ec56:	c7 85 8c f5 ff ff b8 	movl   $0x1e35d5b8,-0xa74(%rbp)
    ec5d:	d5 35 1e 
    ec60:	c7 85 90 f5 ff ff b8 	movl   $0x1e35d5b8,-0xa70(%rbp)
    ec67:	d5 35 1e 
    ec6a:	c7 85 94 f5 ff ff fb 	movl   $0xfffffffb,-0xa6c(%rbp)
    ec71:	ff ff ff 
    ec74:	c7 85 98 f5 ff ff 50 	movl   $0xa8df4050,-0xa68(%rbp)
    ec7b:	40 df a8 
    ec7e:	c7 85 9c f5 ff ff fb 	movl   $0xfffffffb,-0xa64(%rbp)
    ec85:	ff ff ff 
    ec88:	c7 85 a0 f5 ff ff b8 	movl   $0x1e35d5b8,-0xa60(%rbp)
    ec8f:	d5 35 1e 
    ec92:	c7 85 a4 f5 ff ff ff 	movl   $0xffffffff,-0xa5c(%rbp)
    ec99:	ff ff ff 
    ec9c:	c7 85 a8 f5 ff ff ff 	movl   $0xffffffff,-0xa58(%rbp)
    eca3:	ff ff ff 
    eca6:	c7 85 ac f5 ff ff b8 	movl   $0x1e35d5b8,-0xa54(%rbp)
    ecad:	d5 35 1e 
    ecb0:	c7 85 b0 f5 ff ff d6 	movl   $0xd74367d6,-0xa50(%rbp)
    ecb7:	67 43 d7 
    ecba:	c7 85 b4 f5 ff ff b8 	movl   $0x1e35d5b8,-0xa4c(%rbp)
    ecc1:	d5 35 1e 
    ecc4:	c7 85 b8 f5 ff ff ff 	movl   $0xffffffff,-0xa48(%rbp)
    eccb:	ff ff ff 
    ecce:	c7 85 bc f5 ff ff ff 	movl   $0xffffffff,-0xa44(%rbp)
    ecd5:	ff ff ff 
    ecd8:	66 c7 85 fc f2 ff ff 	movw   $0xffff,-0xd04(%rbp)
    ecdf:	ff ff 
    ece1:	48 8d 05 f0 29 01 00 	lea    0x129f0(%rip),%rax        # 216d8 <g_55+0x18>
    ece8:	48 89 85 e0 f3 ff ff 	mov    %rax,-0xc20(%rbp)
    ecef:	66 c7 85 fe f2 ff ff 	movw   $0xffff,-0xd02(%rbp)
    ecf6:	ff ff 
    ecf8:	c6 85 f7 f2 ff ff cf 	movb   $0xcf,-0xd09(%rbp)
    ecff:	48 8d 05 72 03 01 00 	lea    0x10372(%rip),%rax        # 1f078 <g_155>
    ed06:	48 89 85 e8 f3 ff ff 	mov    %rax,-0xc18(%rbp)
    ed0d:	48 c7 85 f0 f3 ff ff 	movq   $0x0,-0xc10(%rbp)
    ed14:	00 00 00 00 
    ed18:	c7 85 80 f4 ff ff 95 	movl   $0xc7ad6b95,-0xb80(%rbp)
    ed1f:	6b ad c7 
    ed22:	c7 85 84 f4 ff ff c3 	movl   $0x2380c3c3,-0xb7c(%rbp)
    ed29:	c3 80 23 
    ed2c:	c7 85 88 f4 ff ff fd 	movl   $0xfffffffd,-0xb78(%rbp)
    ed33:	ff ff ff 
    ed36:	c7 85 8c f4 ff ff c3 	movl   $0x2380c3c3,-0xb74(%rbp)
    ed3d:	c3 80 23 
    ed40:	c7 85 90 f4 ff ff 95 	movl   $0xc7ad6b95,-0xb70(%rbp)
    ed47:	6b ad c7 
    ed4a:	c7 85 94 f4 ff ff 95 	movl   $0xc7ad6b95,-0xb6c(%rbp)
    ed51:	6b ad c7 
    ed54:	c7 85 98 f4 ff ff c3 	movl   $0x2380c3c3,-0xb68(%rbp)
    ed5b:	c3 80 23 
    ed5e:	c7 85 9c f4 ff ff e3 	movl   $0x191d35e3,-0xb64(%rbp)
    ed65:	35 1d 19 
    ed68:	c7 85 a0 f4 ff ff fa 	movl   $0xfffffffa,-0xb60(%rbp)
    ed6f:	ff ff ff 
    ed72:	c7 85 a4 f4 ff ff e3 	movl   $0x191d35e3,-0xb5c(%rbp)
    ed79:	35 1d 19 
    ed7c:	c7 85 a8 f4 ff ff 8d 	movl   $0x2757748d,-0xb58(%rbp)
    ed83:	74 57 27 
    ed86:	c7 85 ac f4 ff ff 8d 	movl   $0x2757748d,-0xb54(%rbp)
    ed8d:	74 57 27 
    ed90:	c7 85 b0 f4 ff ff e3 	movl   $0x191d35e3,-0xb50(%rbp)
    ed97:	35 1d 19 
    ed9a:	c7 85 b4 f4 ff ff fa 	movl   $0xfffffffa,-0xb4c(%rbp)
    eda1:	ff ff ff 
    eda4:	c7 85 b8 f4 ff ff c3 	movl   $0x2380c3c3,-0xb48(%rbp)
    edab:	c3 80 23 
    edae:	c7 85 bc f4 ff ff 5c 	movl   $0x3fd9d15c,-0xb44(%rbp)
    edb5:	d1 d9 3f 
    edb8:	c7 85 c0 f4 ff ff fd 	movl   $0xfffffffd,-0xb40(%rbp)
    edbf:	ff ff ff 
    edc2:	c7 85 c4 f4 ff ff fd 	movl   $0xfffffffd,-0xb3c(%rbp)
    edc9:	ff ff ff 
    edcc:	c7 85 c8 f4 ff ff 5c 	movl   $0x3fd9d15c,-0xb38(%rbp)
    edd3:	d1 d9 3f 
    edd6:	c7 85 cc f4 ff ff c3 	movl   $0x2380c3c3,-0xb34(%rbp)
    eddd:	c3 80 23 
    ede0:	c7 85 d0 f4 ff ff 5c 	movl   $0x3fd9d15c,-0xb30(%rbp)
    ede7:	d1 d9 3f 
    edea:	66 c7 85 dc f2 ff ff 	movw   $0x0,-0xd24(%rbp)
    edf1:	00 00 
    edf3:	eb 7b                	jmp    ee70 <func_22+0x12c8>
    edf5:	48 c7 85 70 f3 ff ff 	movq   $0x0,-0xc90(%rbp)
    edfc:	00 00 00 00 
    ee00:	48 8d 85 70 f3 ff ff 	lea    -0xc90(%rbp),%rax
    ee07:	48 89 85 f8 f3 ff ff 	mov    %rax,-0xc08(%rbp)
    ee0e:	0f bf 85 dc f2 ff ff 	movswl -0xd24(%rbp),%eax
    ee15:	48 98                	cltq   
    ee17:	48 8d 14 85 00 00 00 	lea    0x0(,%rax,4),%rdx
    ee1e:	00 
    ee1f:	48 8d 05 1a 02 01 00 	lea    0x1021a(%rip),%rax        # 1f040 <g_43>
    ee26:	48 01 c2             	add    %rax,%rdx
    ee29:	48 8b 85 f8 f3 ff ff 	mov    -0xc08(%rbp),%rax
    ee30:	48 89 10             	mov    %rdx,(%rax)
    ee33:	be 00 00 00 00       	mov    $0x0,%esi
    ee38:	bf c3 2f 00 00       	mov    $0x2fc3,%edi
    ee3d:	e8 91 a5 ff ff       	callq  93d3 <safe_sub_func_int16_t_s_s>
    ee42:	48 8b 95 f8 f3 ff ff 	mov    -0xc08(%rbp),%rdx
    ee49:	48 8b 12             	mov    (%rdx),%rdx
    ee4c:	8b 0a                	mov    (%rdx),%ecx
    ee4e:	0f bf d0             	movswl %ax,%edx
    ee51:	48 8b 85 f8 f3 ff ff 	mov    -0xc08(%rbp),%rax
    ee58:	48 8b 00             	mov    (%rax),%rax
    ee5b:	09 ca                	or     %ecx,%edx
    ee5d:	89 10                	mov    %edx,(%rax)
    ee5f:	0f b7 85 dc f2 ff ff 	movzwl -0xd24(%rbp),%eax
    ee66:	83 c0 01             	add    $0x1,%eax
    ee69:	66 89 85 dc f2 ff ff 	mov    %ax,-0xd24(%rbp)
    ee70:	66 83 bd dc f2 ff ff 	cmpw   $0x7,-0xd24(%rbp)
    ee77:	07 
    ee78:	0f 8e 77 ff ff ff    	jle    edf5 <func_22+0x124d>
    ee7e:	0f b7 85 ec f2 ff ff 	movzwl -0xd14(%rbp),%eax
    ee85:	48 0f bf c0          	movswq %ax,%rax
    ee89:	be 06 00 00 00       	mov    $0x6,%esi
    ee8e:	48 89 c7             	mov    %rax,%rdi
    ee91:	e8 b5 b1 ff ff       	callq  a04b <safe_sub_func_uint64_t_u_u>
    ee96:	66 89 85 ec f2 ff ff 	mov    %ax,-0xd14(%rbp)
    ee9d:	0f b7 85 ec f2 ff ff 	movzwl -0xd14(%rbp),%eax
    eea4:	66 83 f8 e4          	cmp    $0xffe4,%ax
    eea8:	0f 8d 55 ef ff ff    	jge    de03 <func_22+0x25b>
    eeae:	83 bd 24 f3 ff ff 00 	cmpl   $0x0,-0xcdc(%rbp)
    eeb5:	74 4b                	je     ef02 <func_22+0x135a>
    eeb7:	80 bd f3 f2 ff ff 00 	cmpb   $0x0,-0xd0d(%rbp)
    eebe:	74 10                	je     eed0 <func_22+0x1328>
    eec0:	66 c7 85 fa f2 ff ff 	movw   $0xfff6,-0xd06(%rbp)
    eec7:	f6 ff 
    eec9:	b8 01 00 00 00       	mov    $0x1,%eax
    eece:	eb 05                	jmp    eed5 <func_22+0x132d>
    eed0:	b8 00 00 00 00       	mov    $0x0,%eax
    eed5:	89 c2                	mov    %eax,%edx
    eed7:	8b 85 e8 f2 ff ff    	mov    -0xd18(%rbp),%eax
    eedd:	0f b7 c0             	movzwl %ax,%eax
    eee0:	89 d6                	mov    %edx,%esi
    eee2:	89 c7                	mov    %eax,%edi
    eee4:	e8 91 af ff ff       	callq  9e7a <safe_rshift_func_uint16_t_u_u>
    eee9:	0f b7 c0             	movzwl %ax,%eax
    eeec:	89 85 e8 f2 ff ff    	mov    %eax,-0xd18(%rbp)
    eef2:	83 bd e8 f2 ff ff 00 	cmpl   $0x0,-0xd18(%rbp)
    eef9:	74 07                	je     ef02 <func_22+0x135a>
    eefb:	b8 01 00 00 00       	mov    $0x1,%eax
    ef00:	eb 05                	jmp    ef07 <func_22+0x135f>
    ef02:	b8 00 00 00 00       	mov    $0x0,%eax
    ef07:	89 85 28 f3 ff ff    	mov    %eax,-0xcd8(%rbp)
    ef0d:	c7 05 a5 02 01 00 14 	movl   $0x14,0x102a5(%rip)        # 1f1bc <g_1773>
    ef14:	00 00 00 
    ef17:	e9 72 03 00 00       	jmpq   f28e <func_22+0x16e6>
    ef1c:	48 8d 05 85 2e 01 00 	lea    0x12e85(%rip),%rax        # 21da8 <g_906>
    ef23:	48 89 85 60 f3 ff ff 	mov    %rax,-0xca0(%rbp)
    ef2a:	48 8d 85 60 f3 ff ff 	lea    -0xca0(%rbp),%rax
    ef31:	48 89 85 68 f3 ff ff 	mov    %rax,-0xc98(%rbp)
    ef38:	48 8d 85 68 f3 ff ff 	lea    -0xc98(%rbp),%rax
    ef3f:	48 89 85 98 f3 ff ff 	mov    %rax,-0xc68(%rbp)
    ef46:	c6 85 f6 f2 ff ff 7b 	movb   $0x7b,-0xd0a(%rbp)
    ef4d:	48 c7 85 a0 f3 ff ff 	movq   $0x0,-0xc60(%rbp)
    ef54:	00 00 00 00 
    ef58:	48 8d 05 d1 00 01 00 	lea    0x100d1(%rip),%rax        # 1f030 <g_39>
    ef5f:	48 89 85 a8 f3 ff ff 	mov    %rax,-0xc58(%rbp)
    ef66:	48 8d 05 73 01 01 00 	lea    0x10173(%rip),%rax        # 1f0e0 <g_535>
    ef6d:	48 89 85 70 f3 ff ff 	mov    %rax,-0xc90(%rbp)
    ef74:	48 8d 85 70 f3 ff ff 	lea    -0xc90(%rbp),%rax
    ef7b:	48 89 85 b0 f3 ff ff 	mov    %rax,-0xc50(%rbp)
    ef82:	48 8d 85 48 f3 ff ff 	lea    -0xcb8(%rbp),%rax
    ef89:	48 89 85 b8 f3 ff ff 	mov    %rax,-0xc48(%rbp)
    ef90:	c7 85 04 f3 ff ff ff 	movl   $0xffffffff,-0xcfc(%rbp)
    ef97:	ff ff ff 
    ef9a:	48 8d 05 37 02 01 00 	lea    0x10237(%rip),%rax        # 1f1d8 <g_2109>
    efa1:	48 89 85 e0 f4 ff ff 	mov    %rax,-0xb20(%rbp)
    efa8:	48 8d 05 21 02 01 00 	lea    0x10221(%rip),%rax        # 1f1d0 <g_1871>
    efaf:	48 89 85 e8 f4 ff ff 	mov    %rax,-0xb18(%rbp)
    efb6:	48 8d 05 13 02 01 00 	lea    0x10213(%rip),%rax        # 1f1d0 <g_1871>
    efbd:	48 89 85 f0 f4 ff ff 	mov    %rax,-0xb10(%rbp)
    efc4:	48 8d 05 cd 3c 01 00 	lea    0x13ccd(%rip),%rax        # 22c98 <g_109>
    efcb:	48 89 85 f8 f4 ff ff 	mov    %rax,-0xb08(%rbp)
    efd2:	48 8d 05 f7 01 01 00 	lea    0x101f7(%rip),%rax        # 1f1d0 <g_1871>
    efd9:	48 89 85 00 f5 ff ff 	mov    %rax,-0xb00(%rbp)
    efe0:	48 8d 05 e9 01 01 00 	lea    0x101e9(%rip),%rax        # 1f1d0 <g_1871>
    efe7:	48 89 85 08 f5 ff ff 	mov    %rax,-0xaf8(%rbp)
    efee:	48 8d 05 e3 01 01 00 	lea    0x101e3(%rip),%rax        # 1f1d8 <g_2109>
    eff5:	48 89 85 10 f5 ff ff 	mov    %rax,-0xaf0(%rbp)
    effc:	48 8d 85 38 f3 ff ff 	lea    -0xcc8(%rbp),%rax
    f003:	48 89 85 18 f5 ff ff 	mov    %rax,-0xae8(%rbp)
    f00a:	48 8d 85 38 f3 ff ff 	lea    -0xcc8(%rbp),%rax
    f011:	48 89 85 20 f5 ff ff 	mov    %rax,-0xae0(%rbp)
    f018:	48 8d 85 38 f3 ff ff 	lea    -0xcc8(%rbp),%rax
    f01f:	48 89 85 28 f5 ff ff 	mov    %rax,-0xad8(%rbp)
    f026:	48 8d 05 ab 01 01 00 	lea    0x101ab(%rip),%rax        # 1f1d8 <g_2109>
    f02d:	48 89 85 30 f5 ff ff 	mov    %rax,-0xad0(%rbp)
    f034:	48 8d 05 95 01 01 00 	lea    0x10195(%rip),%rax        # 1f1d0 <g_1871>
    f03b:	48 89 85 38 f5 ff ff 	mov    %rax,-0xac8(%rbp)
    f042:	48 8d 05 87 01 01 00 	lea    0x10187(%rip),%rax        # 1f1d0 <g_1871>
    f049:	48 89 85 40 f5 ff ff 	mov    %rax,-0xac0(%rbp)
    f050:	48 8d 05 41 3c 01 00 	lea    0x13c41(%rip),%rax        # 22c98 <g_109>
    f057:	48 89 85 48 f5 ff ff 	mov    %rax,-0xab8(%rbp)
    f05e:	48 8d 05 6b 01 01 00 	lea    0x1016b(%rip),%rax        # 1f1d0 <g_1871>
    f065:	48 89 85 50 f5 ff ff 	mov    %rax,-0xab0(%rbp)
    f06c:	48 8d 05 5d 01 01 00 	lea    0x1015d(%rip),%rax        # 1f1d0 <g_1871>
    f073:	48 89 85 58 f5 ff ff 	mov    %rax,-0xaa8(%rbp)
    f07a:	48 8d 05 57 01 01 00 	lea    0x10157(%rip),%rax        # 1f1d8 <g_2109>
    f081:	48 89 85 60 f5 ff ff 	mov    %rax,-0xaa0(%rbp)
    f088:	48 8d 85 38 f3 ff ff 	lea    -0xcc8(%rbp),%rax
    f08f:	48 89 85 68 f5 ff ff 	mov    %rax,-0xa98(%rbp)
    f096:	48 8d 85 38 f3 ff ff 	lea    -0xcc8(%rbp),%rax
    f09d:	48 89 85 70 f5 ff ff 	mov    %rax,-0xa90(%rbp)
    f0a4:	48 8d 85 38 f3 ff ff 	lea    -0xcc8(%rbp),%rax
    f0ab:	48 89 85 78 f5 ff ff 	mov    %rax,-0xa88(%rbp)
    f0b2:	48 8d 05 1f 01 01 00 	lea    0x1011f(%rip),%rax        # 1f1d8 <g_2109>
    f0b9:	48 89 85 80 f5 ff ff 	mov    %rax,-0xa80(%rbp)
    f0c0:	48 8d 05 09 01 01 00 	lea    0x10109(%rip),%rax        # 1f1d0 <g_1871>
    f0c7:	48 89 85 88 f5 ff ff 	mov    %rax,-0xa78(%rbp)
    f0ce:	48 8d 05 fb 00 01 00 	lea    0x100fb(%rip),%rax        # 1f1d0 <g_1871>
    f0d5:	48 89 85 90 f5 ff ff 	mov    %rax,-0xa70(%rbp)
    f0dc:	48 8d 05 b5 3b 01 00 	lea    0x13bb5(%rip),%rax        # 22c98 <g_109>
    f0e3:	48 89 85 98 f5 ff ff 	mov    %rax,-0xa68(%rbp)
    f0ea:	48 8d 05 df 00 01 00 	lea    0x100df(%rip),%rax        # 1f1d0 <g_1871>
    f0f1:	48 89 85 a0 f5 ff ff 	mov    %rax,-0xa60(%rbp)
    f0f8:	48 8d 05 d1 00 01 00 	lea    0x100d1(%rip),%rax        # 1f1d0 <g_1871>
    f0ff:	48 89 85 a8 f5 ff ff 	mov    %rax,-0xa58(%rbp)
    f106:	48 8d 05 cb 00 01 00 	lea    0x100cb(%rip),%rax        # 1f1d8 <g_2109>
    f10d:	48 89 85 b0 f5 ff ff 	mov    %rax,-0xa50(%rbp)
    f114:	48 8d 85 38 f3 ff ff 	lea    -0xcc8(%rbp),%rax
    f11b:	48 89 85 b8 f5 ff ff 	mov    %rax,-0xa48(%rbp)
    f122:	48 c7 85 c0 f3 ff ff 	movq   $0x0,-0xc40(%rbp)
    f129:	00 00 00 00 
    f12d:	48 8d 85 40 f8 ff ff 	lea    -0x7c0(%rbp),%rax
    f134:	48 8d 15 e5 bd 00 00 	lea    0xbde5(%rip),%rdx        # 1af20 <g_5313+0xeac>
    f13b:	b9 32 00 00 00       	mov    $0x32,%ecx
    f140:	48 89 c7             	mov    %rax,%rdi
    f143:	48 89 d6             	mov    %rdx,%rsi
    f146:	f3 48 a5             	rep movsq %ds:(%rsi),%es:(%rdi)
    f149:	48 8d 05 78 00 01 00 	lea    0x10078(%rip),%rax        # 1f1c8 <g_1814>
    f150:	48 39 85 98 f3 ff ff 	cmp    %rax,-0xc68(%rbp)
    f157:	0f be 9d f6 f2 ff ff 	movsbl -0xd0a(%rbp),%ebx
    f15e:	44 0f be a5 f6 f2 ff 	movsbl -0xd0a(%rbp),%r12d
    f165:	ff 
    f166:	48 8b 85 a8 f3 ff ff 	mov    -0xc58(%rbp),%rax
    f16d:	0f b6 95 f6 f2 ff ff 	movzbl -0xd0a(%rbp),%edx
    f174:	88 10                	mov    %dl,(%rax)
    f176:	48 8b 85 a8 f3 ff ff 	mov    -0xc58(%rbp),%rax
    f17d:	0f b6 00             	movzbl (%rax),%eax
    f180:	4c 0f be f8          	movsbq %al,%r15
    f184:	4c 0f be ad f6 f2 ff 	movsbq -0xd0a(%rbp),%r13
    f18b:	ff 
    f18c:	8b 85 e8 f2 ff ff    	mov    -0xd18(%rbp),%eax
    f192:	44 0f be f0          	movsbl %al,%r14d
    f196:	48 83 bd b0 f3 ff ff 	cmpq   $0x0,-0xc50(%rbp)
    f19d:	00 
    f19e:	48 8b 05 ab 2f 01 00 	mov    0x12fab(%rip),%rax        # 22150 <g_1387>
    f1a5:	8b 85 04 f3 ff ff    	mov    -0xcfc(%rbp),%eax
    f1ab:	0f b6 d0             	movzbl %al,%edx
    f1ae:	0f b7 85 ec f2 ff ff 	movzwl -0xd14(%rbp),%eax
    f1b5:	0f b6 c0             	movzbl %al,%eax
    f1b8:	89 d6                	mov    %edx,%esi
    f1ba:	89 c7                	mov    %eax,%edi
    f1bc:	e8 1a aa ff ff       	callq  9bdb <safe_div_func_uint8_t_u_u>
    f1c1:	48 8b 85 b8 f3 ff ff 	mov    -0xc48(%rbp),%rax
    f1c8:	48 8d 95 40 f3 ff ff 	lea    -0xcc0(%rbp),%rdx
    f1cf:	48 89 10             	mov    %rdx,(%rax)
    f1d2:	48 8b 85 b8 f3 ff ff 	mov    -0xc48(%rbp),%rax
    f1d9:	48 8b 10             	mov    (%rax),%rdx
    f1dc:	48 8d 85 40 f3 ff ff 	lea    -0xcc0(%rbp),%rax
    f1e3:	48 39 c2             	cmp    %rax,%rdx
    f1e6:	0f 95 c0             	setne  %al
    f1e9:	0f b6 c0             	movzbl %al,%eax
    f1ec:	39 85 e8 f2 ff ff    	cmp    %eax,-0xd18(%rbp)
    f1f2:	0f 9d c0             	setge  %al
    f1f5:	0f b6 c0             	movzbl %al,%eax
    f1f8:	89 85 04 f3 ff ff    	mov    %eax,-0xcfc(%rbp)
    f1fe:	8b 85 04 f3 ff ff    	mov    -0xcfc(%rbp),%eax
    f204:	83 f8 04             	cmp    $0x4,%eax
    f207:	bf f7 ff 00 00       	mov    $0xfff7,%edi
    f20c:	e8 d8 aa ff ff       	callq  9ce9 <safe_unary_minus_func_uint16_t_u>
    f211:	8b 85 00 f3 ff ff    	mov    -0xd00(%rbp),%eax
    f217:	0f be c0             	movsbl %al,%eax
    f21a:	44 89 f6             	mov    %r14d,%esi
    f21d:	89 c7                	mov    %eax,%edi
    f21f:	e8 ce 9f ff ff       	callq  91f2 <safe_sub_func_int8_t_s_s>
    f224:	22 85 f6 f2 ff ff    	and    -0xd0a(%rbp),%al
    f22a:	48 0f be c0          	movsbq %al,%rax
    f22e:	48 ba 85 af d0 49 91 	movabs $0x32f6439149d0af85,%rdx
    f235:	43 f6 32 
    f238:	48 31 d0             	xor    %rdx,%rax
    f23b:	4c 89 ee             	mov    %r13,%rsi
    f23e:	48 89 c7             	mov    %rax,%rdi
    f241:	e8 b1 a7 ff ff       	callq  99f7 <safe_div_func_int64_t_s_s>
    f246:	49 39 c7             	cmp    %rax,%r15
    f249:	0f 9d c0             	setge  %al
    f24c:	0f b6 c0             	movzbl %al,%eax
    f24f:	44 89 e6             	mov    %r12d,%esi
    f252:	89 c7                	mov    %eax,%edi
    f254:	e8 ac a9 ff ff       	callq  9c05 <safe_lshift_func_uint8_t_u_s>
    f259:	0f b6 c0             	movzbl %al,%eax
    f25c:	89 de                	mov    %ebx,%esi
    f25e:	89 c7                	mov    %eax,%edi
    f260:	e8 98 ac ff ff       	callq  9efd <safe_mod_func_uint32_t_u_u>
    f265:	0f be 95 f6 f2 ff ff 	movsbl -0xd0a(%rbp),%edx
    f26c:	39 d0                	cmp    %edx,%eax
    f26e:	48 8d 15 1b 3a 01 00 	lea    0x13a1b(%rip),%rdx        # 22c90 <g_66>
    f275:	48 8d 85 04 f3 ff ff 	lea    -0xcfc(%rbp),%rax
    f27c:	48 89 02             	mov    %rax,(%rdx)
    f27f:	8b 05 37 ff 00 00    	mov    0xff37(%rip),%eax        # 1f1bc <g_1773>
    f285:	83 c0 01             	add    $0x1,%eax
    f288:	89 05 2e ff 00 00    	mov    %eax,0xff2e(%rip)        # 1f1bc <g_1773>
    f28e:	8b 05 28 ff 00 00    	mov    0xff28(%rip),%eax        # 1f1bc <g_1773>
    f294:	83 f8 22             	cmp    $0x22,%eax
    f297:	0f 85 7f fc ff ff    	jne    ef1c <func_22+0x1374>
    f29d:	0f b7 85 ec f2 ff ff 	movzwl -0xd14(%rbp),%eax
    f2a4:	0f bf d8             	movswl %ax,%ebx
    f2a7:	8b 85 e8 f2 ff ff    	mov    -0xd18(%rbp),%eax
    f2ad:	44 0f b6 e0          	movzbl %al,%r12d
    f2b1:	8b 85 2c f3 ff ff    	mov    -0xcd4(%rbp),%eax
    f2b7:	44 0f bf e8          	movswl %ax,%r13d
    f2bb:	44 0f bf b5 dc f2 ff 	movswl -0xd24(%rbp),%r14d
    f2c2:	ff 
    f2c3:	48 8b 15 e6 2a 01 00 	mov    0x12ae6(%rip),%rdx        # 21db0 <g_954>
    f2ca:	8b 02                	mov    (%rdx),%eax
    f2cc:	8d 48 ff             	lea    -0x1(%rax),%ecx
    f2cf:	89 0a                	mov    %ecx,(%rdx)
    f2d1:	48 8b 95 90 f3 ff ff 	mov    -0xc70(%rbp),%rdx
    f2d8:	89 02                	mov    %eax,(%rdx)
    f2da:	0f b7 85 dc f2 ff ff 	movzwl -0xd24(%rbp),%eax
    f2e1:	0f b7 d0             	movzwl %ax,%edx
    f2e4:	0f b6 85 f5 f2 ff ff 	movzbl -0xd0b(%rbp),%eax
    f2eb:	89 d6                	mov    %edx,%esi
    f2ed:	89 c7                	mov    %eax,%edi
    f2ef:	e8 49 aa ff ff       	callq  9d3d <safe_mul_func_uint16_t_u_u>
    f2f4:	0f b7 85 ec f2 ff ff 	movzwl -0xd14(%rbp),%eax
    f2fb:	98                   	cwtl   
    f2fc:	be ff ff ff ff       	mov    $0xffffffff,%esi
    f301:	89 c7                	mov    %eax,%edi
    f303:	e8 ab a0 ff ff       	callq  93b3 <safe_add_func_int16_t_s_s>
    f308:	98                   	cwtl   
    f309:	be 00 00 00 00       	mov    $0x0,%esi
    f30e:	89 c7                	mov    %eax,%edi
    f310:	e8 a3 ab ff ff       	callq  9eb8 <safe_add_func_uint32_t_u_u>
    f315:	41 39 c6             	cmp    %eax,%r14d
    f318:	0f 95 c0             	setne  %al
    f31b:	0f b6 c0             	movzbl %al,%eax
    f31e:	44 89 ee             	mov    %r13d,%esi
    f321:	89 c7                	mov    %eax,%edi
    f323:	e8 cd a0 ff ff       	callq  93f5 <safe_mul_func_int16_t_s_s>
    f328:	66 33 85 dc f2 ff ff 	xor    -0xd24(%rbp),%ax
    f32f:	98                   	cwtl   
    f330:	39 85 e8 f2 ff ff    	cmp    %eax,-0xd18(%rbp)
    f336:	0f 9c c0             	setl   %al
    f339:	0f b6 c0             	movzbl %al,%eax
    f33c:	23 85 e8 f2 ff ff    	and    -0xd18(%rbp),%eax
    f342:	85 c0                	test   %eax,%eax
    f344:	75 0d                	jne    f353 <func_22+0x17ab>
    f346:	48 8b 05 fb 2d 01 00 	mov    0x12dfb(%rip),%rax        # 22148 <g_1353>
    f34d:	8b 00                	mov    (%rax),%eax
    f34f:	85 c0                	test   %eax,%eax
    f351:	74 07                	je     f35a <func_22+0x17b2>
    f353:	b8 01 00 00 00       	mov    $0x1,%eax
    f358:	eb 05                	jmp    f35f <func_22+0x17b7>
    f35a:	b8 00 00 00 00       	mov    $0x0,%eax
    f35f:	0f b6 c0             	movzbl %al,%eax
    f362:	44 89 e6             	mov    %r12d,%esi
    f365:	89 c7                	mov    %eax,%edi
    f367:	e8 42 a8 ff ff       	callq  9bae <safe_mod_func_uint8_t_u_u>
    f36c:	0f b6 c0             	movzbl %al,%eax
    f36f:	89 de                	mov    %ebx,%esi
    f371:	89 c7                	mov    %eax,%edi
    f373:	e8 7d a0 ff ff       	callq  93f5 <safe_mul_func_int16_t_s_s>
    f378:	89 c2                	mov    %eax,%edx
    f37a:	48 8b 85 58 f3 ff ff 	mov    -0xca8(%rbp),%rax
    f381:	88 10                	mov    %dl,(%rax)
    f383:	0f b6 00             	movzbl (%rax),%eax
    f386:	0f be c0             	movsbl %al,%eax
    f389:	0b 85 e8 f2 ff ff    	or     -0xd18(%rbp),%eax
    f38f:	83 f8 ff             	cmp    $0xffffffff,%eax
    f392:	0f 9c c0             	setl   %al
    f395:	0f b6 c0             	movzbl %al,%eax
    f398:	39 85 e8 f2 ff ff    	cmp    %eax,-0xd18(%rbp)
    f39e:	0f 9d c0             	setge  %al
    f3a1:	0f b6 d0             	movzbl %al,%edx
    f3a4:	0f b7 85 dc f2 ff ff 	movzwl -0xd24(%rbp),%eax
    f3ab:	0f b6 c0             	movzbl %al,%eax
    f3ae:	89 d6                	mov    %edx,%esi
    f3b0:	89 c7                	mov    %eax,%edi
    f3b2:	e8 dc a7 ff ff       	callq  9b93 <safe_mul_func_uint8_t_u_u>
    f3b7:	0f b6 c0             	movzbl %al,%eax
    f3ba:	f7 d0                	not    %eax
    f3bc:	89 c2                	mov    %eax,%edx
    f3be:	8b 85 e8 f2 ff ff    	mov    -0xd18(%rbp),%eax
    f3c4:	21 d0                	and    %edx,%eax
    f3c6:	0f bf d0             	movswl %ax,%edx
    f3c9:	48 8b 85 48 f3 ff ff 	mov    -0xcb8(%rbp),%rax
    f3d0:	48 8b 08             	mov    (%rax),%rcx
    f3d3:	48 8d 85 ec f2 ff ff 	lea    -0xd14(%rbp),%rax
    f3da:	48 39 c1             	cmp    %rax,%rcx
    f3dd:	0f 95 c0             	setne  %al
    f3e0:	0f b6 c0             	movzbl %al,%eax
    f3e3:	89 d6                	mov    %edx,%esi
    f3e5:	89 c7                	mov    %eax,%edi
    f3e7:	e8 e7 9f ff ff       	callq  93d3 <safe_sub_func_int16_t_s_s>
    f3ec:	89 c2                	mov    %eax,%edx
    f3ee:	48 8b 05 eb 2d 01 00 	mov    0x12deb(%rip),%rax        # 221e0 <g_1549>
    f3f5:	0f bf d2             	movswl %dx,%edx
    f3f8:	89 10                	mov    %edx,(%rax)
    f3fa:	0f bf 85 dc f2 ff ff 	movswl -0xd24(%rbp),%eax
    f401:	48 8b 5d c8          	mov    -0x38(%rbp),%rbx
    f405:	64 48 33 1c 25 28 00 	xor    %fs:0x28,%rbx
    f40c:	00 00 
    f40e:	74 05                	je     f415 <func_22+0x186d>
    f410:	e8 5b 9c ff ff       	callq  9070 <__stack_chk_fail@plt>
    f415:	48 81 c4 08 0d 00 00 	add    $0xd08,%rsp
    f41c:	5b                   	pop    %rbx
    f41d:	41 5c                	pop    %r12
    f41f:	41 5d                	pop    %r13
    f421:	41 5e                	pop    %r14
    f423:	41 5f                	pop    %r15
    f425:	5d                   	pop    %rbp
    f426:	c3                   	retq   

000000000000f427 <func_48>:
    f427:	f3 0f 1e fa          	endbr64 
    f42b:	55                   	push   %rbp
    f42c:	48 89 e5             	mov    %rsp,%rbp
    f42f:	41 55                	push   %r13
    f431:	41 54                	push   %r12
    f433:	53                   	push   %rbx
    f434:	48 81 ec b8 01 00 00 	sub    $0x1b8,%rsp
    f43b:	89 f8                	mov    %edi,%eax
    f43d:	48 89 b5 50 fe ff ff 	mov    %rsi,-0x1b0(%rbp)
    f444:	48 89 95 48 fe ff ff 	mov    %rdx,-0x1b8(%rbp)
    f44b:	48 89 8d 40 fe ff ff 	mov    %rcx,-0x1c0(%rbp)
    f452:	4c 89 85 38 fe ff ff 	mov    %r8,-0x1c8(%rbp)
    f459:	66 89 85 5c fe ff ff 	mov    %ax,-0x1a4(%rbp)
    f460:	64 48 8b 04 25 28 00 	mov    %fs:0x28,%rax
    f467:	00 00 
    f469:	48 89 45 d8          	mov    %rax,-0x28(%rbp)
    f46d:	31 c0                	xor    %eax,%eax
    f46f:	c6 85 66 fe ff ff 9c 	movb   $0x9c,-0x19a(%rbp)
    f476:	c7 85 78 fe ff ff 07 	movl   $0x7,-0x188(%rbp)
    f47d:	00 00 00 
    f480:	c7 85 7c fe ff ff f7 	movl   $0xfffffff7,-0x184(%rbp)
    f487:	ff ff ff 
    f48a:	48 c7 85 a0 fe ff ff 	movq   $0x1,-0x160(%rbp)
    f491:	01 00 00 00 
    f495:	c7 85 80 fe ff ff f6 	movl   $0x16a4b3f6,-0x180(%rbp)
    f49c:	b3 a4 16 
    f49f:	48 8d 05 da fb 00 00 	lea    0xfbda(%rip),%rax        # 1f080 <g_237>
    f4a6:	48 89 85 f0 fe ff ff 	mov    %rax,-0x110(%rbp)
    f4ad:	48 8d 05 cc fb 00 00 	lea    0xfbcc(%rip),%rax        # 1f080 <g_237>
    f4b4:	48 89 85 f8 fe ff ff 	mov    %rax,-0x108(%rbp)
    f4bb:	48 8d 05 be fb 00 00 	lea    0xfbbe(%rip),%rax        # 1f080 <g_237>
    f4c2:	48 89 85 00 ff ff ff 	mov    %rax,-0x100(%rbp)
    f4c9:	48 8d 05 b0 fb 00 00 	lea    0xfbb0(%rip),%rax        # 1f080 <g_237>
    f4d0:	48 89 85 08 ff ff ff 	mov    %rax,-0xf8(%rbp)
    f4d7:	48 8d 05 a2 fb 00 00 	lea    0xfba2(%rip),%rax        # 1f080 <g_237>
    f4de:	48 89 85 10 ff ff ff 	mov    %rax,-0xf0(%rbp)
    f4e5:	48 8d 05 94 fb 00 00 	lea    0xfb94(%rip),%rax        # 1f080 <g_237>
    f4ec:	48 89 85 18 ff ff ff 	mov    %rax,-0xe8(%rbp)
    f4f3:	48 8d 05 86 fb 00 00 	lea    0xfb86(%rip),%rax        # 1f080 <g_237>
    f4fa:	48 89 85 20 ff ff ff 	mov    %rax,-0xe0(%rbp)
    f501:	48 8d 05 78 fb 00 00 	lea    0xfb78(%rip),%rax        # 1f080 <g_237>
    f508:	48 89 85 28 ff ff ff 	mov    %rax,-0xd8(%rbp)
    f50f:	48 8d 05 6a fb 00 00 	lea    0xfb6a(%rip),%rax        # 1f080 <g_237>
    f516:	48 89 85 30 ff ff ff 	mov    %rax,-0xd0(%rbp)
    f51d:	48 8d 05 84 28 01 00 	lea    0x12884(%rip),%rax        # 21da8 <g_906>
    f524:	48 89 85 a8 fe ff ff 	mov    %rax,-0x158(%rbp)
    f52b:	c7 85 84 fe ff ff 86 	movl   $0xbb772086,-0x17c(%rbp)
    f532:	20 77 bb 
    f535:	c7 85 88 fe ff ff ff 	movl   $0xffffffff,-0x178(%rbp)
    f53c:	ff ff ff 
    f53f:	48 c7 85 b0 fe ff ff 	movq   $0x0,-0x150(%rbp)
    f546:	00 00 00 00 
    f54a:	c7 85 8c fe ff ff fa 	movl   $0xfffffffa,-0x174(%rbp)
    f551:	ff ff ff 
    f554:	48 c7 85 b8 fe ff ff 	movq   $0xffffffffffffffff,-0x148(%rbp)
    f55b:	ff ff ff ff 
    f55f:	48 8d 05 82 21 01 00 	lea    0x12182(%rip),%rax        # 216e8 <g_55+0x28>
    f566:	48 89 85 90 fe ff ff 	mov    %rax,-0x170(%rbp)
    f56d:	48 8d 85 90 fe ff ff 	lea    -0x170(%rbp),%rax
    f574:	48 89 85 98 fe ff ff 	mov    %rax,-0x168(%rbp)
    f57b:	48 8d 85 98 fe ff ff 	lea    -0x168(%rbp),%rax
    f582:	48 89 85 c0 fe ff ff 	mov    %rax,-0x140(%rbp)
    f589:	c7 85 68 fe ff ff 00 	movl   $0x0,-0x198(%rbp)
    f590:	00 00 00 
    f593:	eb 1a                	jmp    f5af <func_48+0x188>
    f595:	8b 85 68 fe ff ff    	mov    -0x198(%rbp),%eax
    f59b:	48 98                	cltq   
    f59d:	c7 84 85 e4 fe ff ff 	movl   $0xfffffff7,-0x11c(%rbp,%rax,4)
    f5a4:	f7 ff ff ff 
    f5a8:	83 85 68 fe ff ff 01 	addl   $0x1,-0x198(%rbp)
    f5af:	83 bd 68 fe ff ff 02 	cmpl   $0x2,-0x198(%rbp)
    f5b6:	7e dd                	jle    f595 <func_48+0x16e>
    f5b8:	48 8b 15 41 21 01 00 	mov    0x12141(%rip),%rdx        # 21700 <g_113>
    f5bf:	48 8b 05 82 2b 01 00 	mov    0x12b82(%rip),%rax        # 22148 <g_1353>
    f5c6:	8b 12                	mov    (%rdx),%edx
    f5c8:	89 10                	mov    %edx,(%rax)
    f5ca:	c7 05 ac fa 00 00 19 	movl   $0x19,0xfaac(%rip)        # 1f080 <g_237>
    f5d1:	00 00 00 
    f5d4:	e9 80 02 00 00       	jmpq   f859 <func_48+0x432>
    f5d9:	48 c7 85 c8 fe ff ff 	movq   $0x8,-0x138(%rbp)
    f5e0:	08 00 00 00 
    f5e4:	c7 85 6c fe ff ff 00 	movl   $0x0,-0x194(%rbp)
    f5eb:	00 00 00 
    f5ee:	c7 05 8c fa 00 00 10 	movl   $0x10,0xfa8c(%rip)        # 1f084 <g_238>
    f5f5:	00 00 00 
    f5f8:	e9 21 02 00 00       	jmpq   f81e <func_48+0x3f7>
    f5fd:	c6 85 67 fe ff ff 5c 	movb   $0x5c,-0x199(%rbp)
    f604:	48 8d 05 11 fb 00 00 	lea    0xfb11(%rip),%rax        # 1f11c <g_854>
    f60b:	48 89 85 d0 fe ff ff 	mov    %rax,-0x130(%rbp)
    f612:	48 8d 05 7f 27 01 00 	lea    0x1277f(%rip),%rax        # 21d98 <g_895>
    f619:	48 89 85 d8 fe ff ff 	mov    %rax,-0x128(%rbp)
    f620:	48 c7 85 50 fe ff ff 	movq   $0x0,-0x1b0(%rbp)
    f627:	00 00 00 00 
    f62b:	e9 88 00 00 00       	jmpq   f6b8 <func_48+0x291>
    f630:	c7 85 70 fe ff ff 00 	movl   $0x0,-0x190(%rbp)
    f637:	00 00 00 
    f63a:	eb 50                	jmp    f68c <func_48+0x265>
    f63c:	c7 85 74 fe ff ff 00 	movl   $0x0,-0x18c(%rbp)
    f643:	00 00 00 
    f646:	eb 34                	jmp    f67c <func_48+0x255>
    f648:	8b 85 74 fe ff ff    	mov    -0x18c(%rbp),%eax
    f64e:	48 63 c8             	movslq %eax,%rcx
    f651:	8b 85 70 fe ff ff    	mov    -0x190(%rbp),%eax
    f657:	48 63 d0             	movslq %eax,%rdx
    f65a:	48 89 d0             	mov    %rdx,%rax
    f65d:	48 01 c0             	add    %rax,%rax
    f660:	48 01 d0             	add    %rdx,%rax
    f663:	48 01 c8             	add    %rcx,%rax
    f666:	48 8d 15 4f fa 00 00 	lea    0xfa4f(%rip),%rdx        # 1f0bc <g_240+0x1c>
    f66d:	48 89 94 c5 40 ff ff 	mov    %rdx,-0xc0(%rbp,%rax,8)
    f674:	ff 
    f675:	83 85 74 fe ff ff 01 	addl   $0x1,-0x18c(%rbp)
    f67c:	83 bd 74 fe ff ff 02 	cmpl   $0x2,-0x18c(%rbp)
    f683:	7e c3                	jle    f648 <func_48+0x221>
    f685:	83 85 70 fe ff ff 01 	addl   $0x1,-0x190(%rbp)
    f68c:	83 bd 70 fe ff ff 05 	cmpl   $0x5,-0x190(%rbp)
    f693:	7e a7                	jle    f63c <func_48+0x215>
    f695:	48 bf 59 a8 c4 f6 61 	movabs $0xbb0f5661f6c4a859,%rdi
    f69c:	56 0f bb 
    f69f:	e8 72 a1 ff ff       	callq  9816 <safe_unary_minus_func_int64_t_s>
    f6a4:	48 89 c2             	mov    %rax,%rdx
    f6a7:	48 8b 05 52 20 01 00 	mov    0x12052(%rip),%rax        # 21700 <g_113>
    f6ae:	89 10                	mov    %edx,(%rax)
    f6b0:	48 83 ad 50 fe ff ff 	subq   $0x1,-0x1b0(%rbp)
    f6b7:	01 
    f6b8:	48 83 bd 50 fe ff ff 	cmpq   $0xfffffffffffffff9,-0x1b0(%rbp)
    f6bf:	f9 
    f6c0:	0f 85 6a ff ff ff    	jne    f630 <func_48+0x209>
    f6c6:	80 bd 67 fe ff ff 00 	cmpb   $0x0,-0x199(%rbp)
    f6cd:	0f 85 32 01 00 00    	jne    f805 <func_48+0x3de>
    f6d3:	0f b6 9d 67 fe ff ff 	movzbl -0x199(%rbp),%ebx
    f6da:	48 8b 85 c8 fe ff ff 	mov    -0x138(%rbp),%rax
    f6e1:	89 c1                	mov    %eax,%ecx
    f6e3:	48 8b 85 d0 fe ff ff 	mov    -0x130(%rbp),%rax
    f6ea:	0f b6 00             	movzbl (%rax),%eax
    f6ed:	8d 50 ff             	lea    -0x1(%rax),%edx
    f6f0:	48 8b 85 d0 fe ff ff 	mov    -0x130(%rbp),%rax
    f6f7:	88 10                	mov    %dl,(%rax)
    f6f9:	48 8b 85 d0 fe ff ff 	mov    -0x130(%rbp),%rax
    f700:	0f b6 00             	movzbl (%rax),%eax
    f703:	0f b6 c0             	movzbl %al,%eax
    f706:	89 ce                	mov    %ecx,%esi
    f708:	89 c7                	mov    %eax,%edi
    f70a:	e8 f6 a4 ff ff       	callq  9c05 <safe_lshift_func_uint8_t_u_s>
    f70f:	48 83 bd 50 fe ff ff 	cmpq   $0x0,-0x1b0(%rbp)
    f716:	00 
    f717:	0f 95 c0             	setne  %al
    f71a:	0f b6 c0             	movzbl %al,%eax
    f71d:	31 85 6c fe ff ff    	xor    %eax,-0x194(%rbp)
    f723:	8b 95 6c fe ff ff    	mov    -0x194(%rbp),%edx
    f729:	8b 05 a1 35 01 00    	mov    0x135a1(%rip),%eax        # 22cd0 <g_1378>
    f72f:	0f b6 c0             	movzbl %al,%eax
    f732:	89 d6                	mov    %edx,%esi
    f734:	89 c7                	mov    %eax,%edi
    f736:	e8 11 a5 ff ff       	callq  9c4c <safe_lshift_func_uint8_t_u_u>
    f73b:	44 0f b6 e8          	movzbl %al,%r13d
    f73f:	48 8b 85 50 fe ff ff 	mov    -0x1b0(%rbp),%rax
    f746:	44 0f b7 e0          	movzwl %ax,%r12d
    f74a:	48 8d 05 47 26 01 00 	lea    0x12647(%rip),%rax        # 21d98 <g_895>
    f751:	48 39 85 d8 fe ff ff 	cmp    %rax,-0x128(%rbp)
    f758:	0f 95 c0             	setne  %al
    f75b:	0f b6 c0             	movzbl %al,%eax
    f75e:	be 00 00 00 00       	mov    $0x0,%esi
    f763:	89 c7                	mov    %eax,%edi
    f765:	e8 84 9b ff ff       	callq  92ee <safe_lshift_func_int8_t_s_u>
    f76a:	48 0f be c0          	movsbq %al,%rax
    f76e:	48 21 85 48 fe ff ff 	and    %rax,-0x1b8(%rbp)
    f775:	48 b8 aa ed 8c 81 33 	movabs $0x6ba0c233818cedaa,%rax
    f77c:	c2 a0 6b 
    f77f:	48 39 85 48 fe ff ff 	cmp    %rax,-0x1b8(%rbp)
    f786:	0f 97 c0             	seta   %al
    f789:	0f b6 c0             	movzbl %al,%eax
    f78c:	44 89 e6             	mov    %r12d,%esi
    f78f:	89 c7                	mov    %eax,%edi
    f791:	e8 89 a5 ff ff       	callq  9d1f <safe_sub_func_uint16_t_u_u>
    f796:	0f b7 d0             	movzwl %ax,%edx
    f799:	48 8b 85 50 fe ff ff 	mov    -0x1b0(%rbp),%rax
    f7a0:	0f b7 c0             	movzwl %ax,%eax
    f7a3:	89 d6                	mov    %edx,%esi
    f7a5:	89 c7                	mov    %eax,%edi
    f7a7:	e8 12 a6 ff ff       	callq  9dbe <safe_lshift_func_uint16_t_u_s>
    f7ac:	66 41 39 c5          	cmp    %ax,%r13w
    f7b0:	0f 95 c0             	setne  %al
    f7b3:	0f b6 d0             	movzbl %al,%edx
    f7b6:	48 8b 85 50 fe ff ff 	mov    -0x1b0(%rbp),%rax
    f7bd:	0f b6 c0             	movzbl %al,%eax
    f7c0:	89 d6                	mov    %edx,%esi
    f7c2:	89 c7                	mov    %eax,%edi
    f7c4:	e8 83 a4 ff ff       	callq  9c4c <safe_lshift_func_uint8_t_u_u>
    f7c9:	0f b6 c0             	movzbl %al,%eax
    f7cc:	89 de                	mov    %ebx,%esi
    f7ce:	89 c7                	mov    %eax,%edi
    f7d0:	e8 87 a5 ff ff       	callq  9d5c <safe_mod_func_uint16_t_u_u>
    f7d5:	0f b7 c0             	movzwl %ax,%eax
    f7d8:	be 04 00 00 00       	mov    $0x4,%esi
    f7dd:	89 c7                	mov    %eax,%edi
    f7df:	e8 da a5 ff ff       	callq  9dbe <safe_lshift_func_uint16_t_u_s>
    f7e4:	98                   	cwtl   
    f7e5:	89 c7                	mov    %eax,%edi
    f7e7:	e8 b1 9b ff ff       	callq  939d <safe_unary_minus_func_int16_t_s>
    f7ec:	66 3d 7c 5e          	cmp    $0x5e7c,%ax
    f7f0:	0f 9e c0             	setle  %al
    f7f3:	0f b6 c8             	movzbl %al,%ecx
    f7f6:	48 8b 05 53 29 01 00 	mov    0x12953(%rip),%rax        # 22150 <g_1387>
    f7fd:	8b 10                	mov    (%rax),%edx
    f7ff:	21 ca                	and    %ecx,%edx
    f801:	89 10                	mov    %edx,(%rax)
    f803:	eb 01                	jmp    f806 <func_48+0x3df>
    f805:	90                   	nop
    f806:	8b 05 78 f8 00 00    	mov    0xf878(%rip),%eax        # 1f084 <g_238>
    f80c:	be 01 00 00 00       	mov    $0x1,%esi
    f811:	89 c7                	mov    %eax,%edi
    f813:	e8 9e 9d ff ff       	callq  95b6 <safe_add_func_int32_t_s_s>
    f818:	89 05 66 f8 00 00    	mov    %eax,0xf866(%rip)        # 1f084 <g_238>
    f81e:	8b 05 60 f8 00 00    	mov    0xf860(%rip),%eax        # 1f084 <g_238>
    f824:	83 f8 13             	cmp    $0x13,%eax
    f827:	0f 85 d0 fd ff ff    	jne    f5fd <func_48+0x1d6>
    f82d:	48 8d 05 3c 25 01 00 	lea    0x1253c(%rip),%rax        # 21d70 <g_821>
    f834:	48 89 05 1d 29 01 00 	mov    %rax,0x1291d(%rip)        # 22158 <g_1388>
    f83b:	8b 05 3f f8 00 00    	mov    0xf83f(%rip),%eax        # 1f080 <g_237>
    f841:	0f b7 c0             	movzwl %ax,%eax
    f844:	be 04 00 00 00       	mov    $0x4,%esi
    f849:	89 c7                	mov    %eax,%edi
    f84b:	e8 af a4 ff ff       	callq  9cff <safe_add_func_uint16_t_u_u>
    f850:	0f b7 c0             	movzwl %ax,%eax
    f853:	89 05 27 f8 00 00    	mov    %eax,0xf827(%rip)        # 1f080 <g_237>
    f859:	8b 05 21 f8 00 00    	mov    0xf821(%rip),%eax        # 1f080 <g_237>
    f85f:	83 f8 21             	cmp    $0x21,%eax
    f862:	0f 86 71 fd ff ff    	jbe    f5d9 <func_48+0x1b2>
    f868:	8b 85 7c fe ff ff    	mov    -0x184(%rbp),%eax
    f86e:	48 8b 5d d8          	mov    -0x28(%rbp),%rbx
    f872:	64 48 33 1c 25 28 00 	xor    %fs:0x28,%rbx
    f879:	00 00 
    f87b:	74 05                	je     f882 <func_48+0x45b>
    f87d:	e8 ee 97 ff ff       	callq  9070 <__stack_chk_fail@plt>
    f882:	48 81 c4 b8 01 00 00 	add    $0x1b8,%rsp
    f889:	5b                   	pop    %rbx
    f88a:	41 5c                	pop    %r12
    f88c:	41 5d                	pop    %r13
    f88e:	5d                   	pop    %rbp
    f88f:	c3                   	retq   

000000000000f890 <func_57>:
    f890:	f3 0f 1e fa          	endbr64 
    f894:	55                   	push   %rbp
    f895:	48 89 e5             	mov    %rsp,%rbp
    f898:	41 57                	push   %r15
    f89a:	41 56                	push   %r14
    f89c:	41 55                	push   %r13
    f89e:	41 54                	push   %r12
    f8a0:	53                   	push   %rbx
    f8a1:	48 81 ec 00 10 00 00 	sub    $0x1000,%rsp
    f8a8:	48 83 0c 24 00       	orq    $0x0,(%rsp)
    f8ad:	48 81 ec 68 0d 00 00 	sub    $0xd68,%rsp
    f8b4:	48 89 bd 98 e2 ff ff 	mov    %rdi,-0x1d68(%rbp)
    f8bb:	89 b5 94 e2 ff ff    	mov    %esi,-0x1d6c(%rbp)
    f8c1:	89 95 90 e2 ff ff    	mov    %edx,-0x1d70(%rbp)
    f8c7:	48 89 8d 88 e2 ff ff 	mov    %rcx,-0x1d78(%rbp)
    f8ce:	4c 89 85 80 e2 ff ff 	mov    %r8,-0x1d80(%rbp)
    f8d5:	64 48 8b 04 25 28 00 	mov    %fs:0x28,%rax
    f8dc:	00 00 
    f8de:	48 89 45 c8          	mov    %rax,-0x38(%rbp)
    f8e2:	31 c0                	xor    %eax,%eax
    f8e4:	c7 85 80 ea ff ff 79 	movl   $0x7a374779,-0x1580(%rbp)
    f8eb:	47 37 7a 
    f8ee:	c7 85 84 ea ff ff 8e 	movl   $0x26bc8b8e,-0x157c(%rbp)
    f8f5:	8b bc 26 
    f8f8:	c7 85 88 ea ff ff 30 	movl   $0x4f81aa30,-0x1578(%rbp)
    f8ff:	aa 81 4f 
    f902:	c7 85 8c ea ff ff 01 	movl   $0x1,-0x1574(%rbp)
    f909:	00 00 00 
    f90c:	c7 85 90 ea ff ff d6 	movl   $0x8a8dc8d6,-0x1570(%rbp)
    f913:	c8 8d 8a 
    f916:	c7 85 94 ea ff ff 8e 	movl   $0x26bc8b8e,-0x156c(%rbp)
    f91d:	8b bc 26 
    f920:	c7 85 98 ea ff ff aa 	movl   $0xc4a2fbaa,-0x1568(%rbp)
    f927:	fb a2 c4 
    f92a:	c7 85 9c ea ff ff 30 	movl   $0x4f81aa30,-0x1564(%rbp)
    f931:	aa 81 4f 
    f934:	c7 85 a0 ea ff ff 01 	movl   $0x1,-0x1560(%rbp)
    f93b:	00 00 00 
    f93e:	c7 85 a4 ea ff ff 30 	movl   $0x4f81aa30,-0x155c(%rbp)
    f945:	aa 81 4f 
    f948:	c7 85 a8 ea ff ff d6 	movl   $0x8a8dc8d6,-0x1558(%rbp)
    f94f:	c8 8d 8a 
    f952:	c7 85 ac ea ff ff d6 	movl   $0x8a8dc8d6,-0x1554(%rbp)
    f959:	c8 8d 8a 
    f95c:	c7 85 b0 ea ff ff aa 	movl   $0xc4a2fbaa,-0x1550(%rbp)
    f963:	fb a2 c4 
    f966:	c7 85 b4 ea ff ff 79 	movl   $0x7a374779,-0x154c(%rbp)
    f96d:	47 37 7a 
    f970:	c7 85 b8 ea ff ff de 	movl   $0x2f50fade,-0x1548(%rbp)
    f977:	fa 50 2f 
    f97a:	c7 85 bc ea ff ff 8e 	movl   $0x26bc8b8e,-0x1544(%rbp)
    f981:	8b bc 26 
    f984:	c7 85 c0 ea ff ff de 	movl   $0x2f50fade,-0x1540(%rbp)
    f98b:	fa 50 2f 
    f98e:	c7 85 c4 ea ff ff 08 	movl   $0x8,-0x153c(%rbp)
    f995:	00 00 00 
    f998:	c7 85 c8 ea ff ff 79 	movl   $0x7a374779,-0x1538(%rbp)
    f99f:	47 37 7a 
    f9a2:	c7 85 cc ea ff ff 79 	movl   $0x7a374779,-0x1534(%rbp)
    f9a9:	47 37 7a 
    f9ac:	c7 85 d0 ea ff ff 79 	movl   $0x7a374779,-0x1530(%rbp)
    f9b3:	47 37 7a 
    f9b6:	c7 85 d4 ea ff ff 06 	movl   $0x6,-0x152c(%rbp)
    f9bd:	00 00 00 
    f9c0:	c7 85 d8 ea ff ff 79 	movl   $0x7a374779,-0x1528(%rbp)
    f9c7:	47 37 7a 
    f9ca:	c7 85 dc ea ff ff 01 	movl   $0x1,-0x1524(%rbp)
    f9d1:	00 00 00 
    f9d4:	c7 85 e0 ea ff ff fa 	movl   $0xfffffffa,-0x1520(%rbp)
    f9db:	ff ff ff 
    f9de:	c7 85 e4 ea ff ff 08 	movl   $0x8,-0x151c(%rbp)
    f9e5:	00 00 00 
    f9e8:	c7 85 e8 ea ff ff de 	movl   $0x2f50fade,-0x1518(%rbp)
    f9ef:	fa 50 2f 
    f9f2:	c7 85 ec ea ff ff 8e 	movl   $0x26bc8b8e,-0x1514(%rbp)
    f9f9:	8b bc 26 
    f9fc:	c7 85 f0 ea ff ff 01 	movl   $0x1,-0x1510(%rbp)
    fa03:	00 00 00 
    fa06:	c7 85 f4 ea ff ff fa 	movl   $0xfffffffa,-0x150c(%rbp)
    fa0d:	ff ff ff 
    fa10:	c7 85 f8 ea ff ff d6 	movl   $0x8a8dc8d6,-0x1508(%rbp)
    fa17:	c8 8d 8a 
    fa1a:	c7 85 fc ea ff ff 01 	movl   $0x1,-0x1504(%rbp)
    fa21:	00 00 00 
    fa24:	c7 85 00 eb ff ff 01 	movl   $0x1,-0x1500(%rbp)
    fa2b:	00 00 00 
    fa2e:	c7 85 04 eb ff ff d6 	movl   $0x8a8dc8d6,-0x14fc(%rbp)
    fa35:	c8 8d 8a 
    fa38:	c7 85 08 eb ff ff 01 	movl   $0x1,-0x14f8(%rbp)
    fa3f:	00 00 00 
    fa42:	c7 85 0c eb ff ff 08 	movl   $0x8,-0x14f4(%rbp)
    fa49:	00 00 00 
    fa4c:	c7 85 10 eb ff ff d6 	movl   $0x8a8dc8d6,-0x14f0(%rbp)
    fa53:	c8 8d 8a 
    fa56:	c7 85 14 eb ff ff 06 	movl   $0x6,-0x14ec(%rbp)
    fa5d:	00 00 00 
    fa60:	c7 85 18 eb ff ff de 	movl   $0x2f50fade,-0x14e8(%rbp)
    fa67:	fa 50 2f 
    fa6a:	c7 85 1c eb ff ff 30 	movl   $0x4f81aa30,-0x14e4(%rbp)
    fa71:	aa 81 4f 
    fa74:	48 8d 85 e0 f7 ff ff 	lea    -0x820(%rbp),%rax
    fa7b:	48 8d 15 be 10 01 00 	lea    0x110be(%rip),%rdx        # 20b40 <g_5275+0x17c0>
    fa82:	b9 fa 00 00 00       	mov    $0xfa,%ecx
    fa87:	48 89 c7             	mov    %rax,%rdi
    fa8a:	48 89 d6             	mov    %rdx,%rsi
    fa8d:	f3 48 a5             	rep movsq %ds:(%rsi),%es:(%rdi)
    fa90:	48 c7 85 80 e4 ff ff 	movq   $0x0,-0x1b80(%rbp)
    fa97:	00 00 00 00 
    fa9b:	48 8d 05 c6 f5 00 00 	lea    0xf5c6(%rip),%rax        # 1f068 <g_91>
    faa2:	48 89 85 88 e4 ff ff 	mov    %rax,-0x1b78(%rbp)
    faa9:	48 c7 85 08 e4 ff ff 	movq   $0x0,-0x1bf8(%rbp)
    fab0:	00 00 00 00 
    fab4:	48 8d 05 b1 f5 00 00 	lea    0xf5b1(%rip),%rax        # 1f06c <g_98>
    fabb:	48 89 85 b0 e7 ff ff 	mov    %rax,-0x1850(%rbp)
    fac2:	48 8d 05 a3 f5 00 00 	lea    0xf5a3(%rip),%rax        # 1f06c <g_98>
    fac9:	48 89 85 b8 e7 ff ff 	mov    %rax,-0x1848(%rbp)
    fad0:	48 8d 05 95 f5 00 00 	lea    0xf595(%rip),%rax        # 1f06c <g_98>
    fad7:	48 89 85 c0 e7 ff ff 	mov    %rax,-0x1840(%rbp)
    fade:	48 8d 05 87 f5 00 00 	lea    0xf587(%rip),%rax        # 1f06c <g_98>
    fae5:	48 89 85 c8 e7 ff ff 	mov    %rax,-0x1838(%rbp)
    faec:	48 8d 05 79 f5 00 00 	lea    0xf579(%rip),%rax        # 1f06c <g_98>
    faf3:	48 89 85 d0 e7 ff ff 	mov    %rax,-0x1830(%rbp)
    fafa:	48 8d 05 6b f5 00 00 	lea    0xf56b(%rip),%rax        # 1f06c <g_98>
    fb01:	48 89 85 d8 e7 ff ff 	mov    %rax,-0x1828(%rbp)
    fb08:	c7 85 60 e9 ff ff 06 	movl   $0x6,-0x16a0(%rbp)
    fb0f:	00 00 00 
    fb12:	c7 85 64 e9 ff ff 00 	movl   $0x0,-0x169c(%rbp)
    fb19:	00 00 00 
    fb1c:	c7 85 68 e9 ff ff d1 	movl   $0xe68117d1,-0x1698(%rbp)
    fb23:	17 81 e6 
    fb26:	c7 85 6c e9 ff ff 00 	movl   $0x0,-0x1694(%rbp)
    fb2d:	00 00 00 
    fb30:	c7 85 70 e9 ff ff 06 	movl   $0x6,-0x1690(%rbp)
    fb37:	00 00 00 
    fb3a:	c7 85 74 e9 ff ff d1 	movl   $0xe68117d1,-0x168c(%rbp)
    fb41:	17 81 e6 
    fb44:	c7 85 78 e9 ff ff 00 	movl   $0xf4cac200,-0x1688(%rbp)
    fb4b:	c2 ca f4 
    fb4e:	c7 85 7c e9 ff ff 00 	movl   $0xf4cac200,-0x1684(%rbp)
    fb55:	c2 ca f4 
    fb58:	c7 85 80 e9 ff ff d1 	movl   $0xe68117d1,-0x1680(%rbp)
    fb5f:	17 81 e6 
    fb62:	c7 85 84 e9 ff ff 06 	movl   $0x6,-0x167c(%rbp)
    fb69:	00 00 00 
    fb6c:	c7 85 88 e9 ff ff 00 	movl   $0x0,-0x1678(%rbp)
    fb73:	00 00 00 
    fb76:	c7 85 8c e9 ff ff d1 	movl   $0xe68117d1,-0x1674(%rbp)
    fb7d:	17 81 e6 
    fb80:	c7 85 90 e9 ff ff 00 	movl   $0x0,-0x1670(%rbp)
    fb87:	00 00 00 
    fb8a:	c7 85 94 e9 ff ff 06 	movl   $0x6,-0x166c(%rbp)
    fb91:	00 00 00 
    fb94:	c7 85 98 e9 ff ff d1 	movl   $0xe68117d1,-0x1668(%rbp)
    fb9b:	17 81 e6 
    fb9e:	c7 85 9c e9 ff ff 00 	movl   $0xf4cac200,-0x1664(%rbp)
    fba5:	c2 ca f4 
    fba8:	c7 85 a0 e9 ff ff 00 	movl   $0xf4cac200,-0x1660(%rbp)
    fbaf:	c2 ca f4 
    fbb2:	c7 85 a4 e9 ff ff d1 	movl   $0xe68117d1,-0x165c(%rbp)
    fbb9:	17 81 e6 
    fbbc:	c7 85 a8 e9 ff ff 06 	movl   $0x6,-0x1658(%rbp)
    fbc3:	00 00 00 
    fbc6:	c7 85 ac e9 ff ff 00 	movl   $0x0,-0x1654(%rbp)
    fbcd:	00 00 00 
    fbd0:	c7 85 b0 e9 ff ff d1 	movl   $0xe68117d1,-0x1650(%rbp)
    fbd7:	17 81 e6 
    fbda:	c7 85 b4 e9 ff ff 00 	movl   $0x0,-0x164c(%rbp)
    fbe1:	00 00 00 
    fbe4:	c7 85 b8 e9 ff ff 06 	movl   $0x6,-0x1648(%rbp)
    fbeb:	00 00 00 
    fbee:	c7 85 bc e9 ff ff d1 	movl   $0xe68117d1,-0x1644(%rbp)
    fbf5:	17 81 e6 
    fbf8:	c7 85 c0 e9 ff ff 00 	movl   $0xf4cac200,-0x1640(%rbp)
    fbff:	c2 ca f4 
    fc02:	c7 85 c4 e9 ff ff 00 	movl   $0xf4cac200,-0x163c(%rbp)
    fc09:	c2 ca f4 
    fc0c:	c7 85 c8 e9 ff ff d1 	movl   $0xe68117d1,-0x1638(%rbp)
    fc13:	17 81 e6 
    fc16:	c7 85 cc e9 ff ff 06 	movl   $0x6,-0x1634(%rbp)
    fc1d:	00 00 00 
    fc20:	c7 85 d0 e9 ff ff 00 	movl   $0x0,-0x1630(%rbp)
    fc27:	00 00 00 
    fc2a:	c7 85 d4 e9 ff ff d1 	movl   $0xe68117d1,-0x162c(%rbp)
    fc31:	17 81 e6 
    fc34:	c7 85 d8 e9 ff ff 00 	movl   $0x0,-0x1628(%rbp)
    fc3b:	00 00 00 
    fc3e:	c7 85 dc e9 ff ff 06 	movl   $0x6,-0x1624(%rbp)
    fc45:	00 00 00 
    fc48:	c7 85 e0 e9 ff ff d1 	movl   $0xe68117d1,-0x1620(%rbp)
    fc4f:	17 81 e6 
    fc52:	c7 85 e4 e9 ff ff 00 	movl   $0xf4cac200,-0x161c(%rbp)
    fc59:	c2 ca f4 
    fc5c:	c7 85 e8 e9 ff ff 00 	movl   $0xf4cac200,-0x1618(%rbp)
    fc63:	c2 ca f4 
    fc66:	c7 85 ec e9 ff ff d1 	movl   $0xe68117d1,-0x1614(%rbp)
    fc6d:	17 81 e6 
    fc70:	48 8d 05 f9 f3 00 00 	lea    0xf3f9(%rip),%rax        # 1f070 <g_105>
    fc77:	48 89 85 10 e4 ff ff 	mov    %rax,-0x1bf0(%rbp)
    fc7e:	c7 85 d4 e2 ff ff 6f 	movl   $0x19bf676f,-0x1d2c(%rbp)
    fc85:	67 bf 19 
    fc88:	48 8d 05 09 30 01 00 	lea    0x13009(%rip),%rax        # 22c98 <g_109>
    fc8f:	48 89 85 90 e4 ff ff 	mov    %rax,-0x1b70(%rbp)
    fc96:	48 c7 85 18 e4 ff ff 	movq   $0x0,-0x1be8(%rbp)
    fc9d:	00 00 00 00 
    fca1:	c7 85 d0 e2 ff ff ff 	movl   $0xffffffff,-0x1d30(%rbp)
    fca8:	ff ff ff 
    fcab:	48 8d 05 cc f3 00 00 	lea    0xf3cc(%rip),%rax        # 1f07e <g_234>
    fcb2:	48 89 85 c0 e8 ff ff 	mov    %rax,-0x1740(%rbp)
    fcb9:	48 8d 05 be f3 00 00 	lea    0xf3be(%rip),%rax        # 1f07e <g_234>
    fcc0:	48 89 85 c8 e8 ff ff 	mov    %rax,-0x1738(%rbp)
    fcc7:	48 8d 05 b0 f3 00 00 	lea    0xf3b0(%rip),%rax        # 1f07e <g_234>
    fcce:	48 89 85 d0 e8 ff ff 	mov    %rax,-0x1730(%rbp)
    fcd5:	48 8d 05 a2 f3 00 00 	lea    0xf3a2(%rip),%rax        # 1f07e <g_234>
    fcdc:	48 89 85 d8 e8 ff ff 	mov    %rax,-0x1728(%rbp)
    fce3:	48 8d 05 94 f3 00 00 	lea    0xf394(%rip),%rax        # 1f07e <g_234>
    fcea:	48 89 85 e0 e8 ff ff 	mov    %rax,-0x1720(%rbp)
    fcf1:	48 8d 05 86 f3 00 00 	lea    0xf386(%rip),%rax        # 1f07e <g_234>
    fcf8:	48 89 85 e8 e8 ff ff 	mov    %rax,-0x1718(%rbp)
    fcff:	48 8d 05 78 f3 00 00 	lea    0xf378(%rip),%rax        # 1f07e <g_234>
    fd06:	48 89 85 f0 e8 ff ff 	mov    %rax,-0x1710(%rbp)
    fd0d:	48 8d 05 6a f3 00 00 	lea    0xf36a(%rip),%rax        # 1f07e <g_234>
    fd14:	48 89 85 f8 e8 ff ff 	mov    %rax,-0x1708(%rbp)
    fd1b:	48 8d 05 5c f3 00 00 	lea    0xf35c(%rip),%rax        # 1f07e <g_234>
    fd22:	48 89 85 00 e9 ff ff 	mov    %rax,-0x1700(%rbp)
    fd29:	48 8d 05 4e f3 00 00 	lea    0xf34e(%rip),%rax        # 1f07e <g_234>
    fd30:	48 89 85 08 e9 ff ff 	mov    %rax,-0x16f8(%rbp)
    fd37:	48 8d 05 ba 19 01 00 	lea    0x119ba(%rip),%rax        # 216f8 <g_72>
    fd3e:	48 89 85 20 e4 ff ff 	mov    %rax,-0x1be0(%rbp)
    fd45:	48 8d 85 20 e4 ff ff 	lea    -0x1be0(%rbp),%rax
    fd4c:	48 89 85 28 e4 ff ff 	mov    %rax,-0x1bd8(%rbp)
    fd53:	48 8d 05 7e f3 00 00 	lea    0xf37e(%rip),%rax        # 1f0d8 <g_423>
    fd5a:	48 89 85 30 e4 ff ff 	mov    %rax,-0x1bd0(%rbp)
    fd61:	48 8d 85 30 e4 ff ff 	lea    -0x1bd0(%rbp),%rax
    fd68:	48 89 85 50 ee ff ff 	mov    %rax,-0x11b0(%rbp)
    fd6f:	48 8d 85 30 e4 ff ff 	lea    -0x1bd0(%rbp),%rax
    fd76:	48 89 85 58 ee ff ff 	mov    %rax,-0x11a8(%rbp)
    fd7d:	48 8d 85 30 e4 ff ff 	lea    -0x1bd0(%rbp),%rax
    fd84:	48 89 85 60 ee ff ff 	mov    %rax,-0x11a0(%rbp)
    fd8b:	48 8d 85 30 e4 ff ff 	lea    -0x1bd0(%rbp),%rax
    fd92:	48 89 85 68 ee ff ff 	mov    %rax,-0x1198(%rbp)
    fd99:	48 8d 85 30 e4 ff ff 	lea    -0x1bd0(%rbp),%rax
    fda0:	48 89 85 70 ee ff ff 	mov    %rax,-0x1190(%rbp)
    fda7:	48 8d 85 30 e4 ff ff 	lea    -0x1bd0(%rbp),%rax
    fdae:	48 89 85 78 ee ff ff 	mov    %rax,-0x1188(%rbp)
    fdb5:	48 c7 85 80 ee ff ff 	movq   $0x0,-0x1180(%rbp)
    fdbc:	00 00 00 00 
    fdc0:	48 c7 85 88 ee ff ff 	movq   $0x0,-0x1178(%rbp)
    fdc7:	00 00 00 00 
    fdcb:	48 8d 85 30 e4 ff ff 	lea    -0x1bd0(%rbp),%rax
    fdd2:	48 89 85 90 ee ff ff 	mov    %rax,-0x1170(%rbp)
    fdd9:	48 8d 85 30 e4 ff ff 	lea    -0x1bd0(%rbp),%rax
    fde0:	48 89 85 98 ee ff ff 	mov    %rax,-0x1168(%rbp)
    fde7:	48 c7 85 a0 ee ff ff 	movq   $0x0,-0x1160(%rbp)
    fdee:	00 00 00 00 
    fdf2:	48 8d 85 30 e4 ff ff 	lea    -0x1bd0(%rbp),%rax
    fdf9:	48 89 85 a8 ee ff ff 	mov    %rax,-0x1158(%rbp)
    fe00:	48 8d 85 30 e4 ff ff 	lea    -0x1bd0(%rbp),%rax
    fe07:	48 89 85 b0 ee ff ff 	mov    %rax,-0x1150(%rbp)
    fe0e:	48 8d 85 30 e4 ff ff 	lea    -0x1bd0(%rbp),%rax
    fe15:	48 89 85 b8 ee ff ff 	mov    %rax,-0x1148(%rbp)
    fe1c:	48 8d 85 30 e4 ff ff 	lea    -0x1bd0(%rbp),%rax
    fe23:	48 89 85 c0 ee ff ff 	mov    %rax,-0x1140(%rbp)
    fe2a:	48 8d 85 30 e4 ff ff 	lea    -0x1bd0(%rbp),%rax
    fe31:	48 89 85 c8 ee ff ff 	mov    %rax,-0x1138(%rbp)
    fe38:	48 c7 85 d0 ee ff ff 	movq   $0x0,-0x1130(%rbp)
    fe3f:	00 00 00 00 
    fe43:	48 8d 85 30 e4 ff ff 	lea    -0x1bd0(%rbp),%rax
    fe4a:	48 89 85 d8 ee ff ff 	mov    %rax,-0x1128(%rbp)
    fe51:	48 c7 85 e0 ee ff ff 	movq   $0x0,-0x1120(%rbp)
    fe58:	00 00 00 00 
    fe5c:	48 8d 85 30 e4 ff ff 	lea    -0x1bd0(%rbp),%rax
    fe63:	48 89 85 e8 ee ff ff 	mov    %rax,-0x1118(%rbp)
    fe6a:	48 8d 85 30 e4 ff ff 	lea    -0x1bd0(%rbp),%rax
    fe71:	48 89 85 f0 ee ff ff 	mov    %rax,-0x1110(%rbp)
    fe78:	48 8d 85 30 e4 ff ff 	lea    -0x1bd0(%rbp),%rax
    fe7f:	48 89 85 f8 ee ff ff 	mov    %rax,-0x1108(%rbp)
    fe86:	48 8d 85 30 e4 ff ff 	lea    -0x1bd0(%rbp),%rax
    fe8d:	48 89 85 00 ef ff ff 	mov    %rax,-0x1100(%rbp)
    fe94:	48 8d 85 30 e4 ff ff 	lea    -0x1bd0(%rbp),%rax
    fe9b:	48 89 85 08 ef ff ff 	mov    %rax,-0x10f8(%rbp)
    fea2:	48 8d 85 30 e4 ff ff 	lea    -0x1bd0(%rbp),%rax
    fea9:	48 89 85 10 ef ff ff 	mov    %rax,-0x10f0(%rbp)
    feb0:	48 8d 85 30 e4 ff ff 	lea    -0x1bd0(%rbp),%rax
    feb7:	48 89 85 18 ef ff ff 	mov    %rax,-0x10e8(%rbp)
    febe:	48 c7 85 20 ef ff ff 	movq   $0x0,-0x10e0(%rbp)
    fec5:	00 00 00 00 
    fec9:	48 8d 85 30 e4 ff ff 	lea    -0x1bd0(%rbp),%rax
    fed0:	48 89 85 28 ef ff ff 	mov    %rax,-0x10d8(%rbp)
    fed7:	48 8d 85 30 e4 ff ff 	lea    -0x1bd0(%rbp),%rax
    fede:	48 89 85 30 ef ff ff 	mov    %rax,-0x10d0(%rbp)
    fee5:	48 8d 85 30 e4 ff ff 	lea    -0x1bd0(%rbp),%rax
    feec:	48 89 85 38 ef ff ff 	mov    %rax,-0x10c8(%rbp)
    fef3:	48 8d 85 30 e4 ff ff 	lea    -0x1bd0(%rbp),%rax
    fefa:	48 89 85 40 ef ff ff 	mov    %rax,-0x10c0(%rbp)
    ff01:	48 8d 85 30 e4 ff ff 	lea    -0x1bd0(%rbp),%rax
    ff08:	48 89 85 48 ef ff ff 	mov    %rax,-0x10b8(%rbp)
    ff0f:	48 8d 85 30 e4 ff ff 	lea    -0x1bd0(%rbp),%rax
    ff16:	48 89 85 50 ef ff ff 	mov    %rax,-0x10b0(%rbp)
    ff1d:	48 8d 85 30 e4 ff ff 	lea    -0x1bd0(%rbp),%rax
    ff24:	48 89 85 58 ef ff ff 	mov    %rax,-0x10a8(%rbp)
    ff2b:	48 8d 85 30 e4 ff ff 	lea    -0x1bd0(%rbp),%rax
    ff32:	48 89 85 60 ef ff ff 	mov    %rax,-0x10a0(%rbp)
    ff39:	48 c7 85 68 ef ff ff 	movq   $0x0,-0x1098(%rbp)
    ff40:	00 00 00 00 
    ff44:	48 c7 85 70 ef ff ff 	movq   $0x0,-0x1090(%rbp)
    ff4b:	00 00 00 00 
    ff4f:	48 c7 85 78 ef ff ff 	movq   $0x0,-0x1088(%rbp)
    ff56:	00 00 00 00 
    ff5a:	48 c7 85 80 ef ff ff 	movq   $0x0,-0x1080(%rbp)
    ff61:	00 00 00 00 
    ff65:	48 8d 85 30 e4 ff ff 	lea    -0x1bd0(%rbp),%rax
    ff6c:	48 89 85 88 ef ff ff 	mov    %rax,-0x1078(%rbp)
    ff73:	48 8d 85 50 ee ff ff 	lea    -0x11b0(%rbp),%rax
    ff7a:	48 05 b0 00 00 00    	add    $0xb0,%rax
    ff80:	48 89 85 38 e4 ff ff 	mov    %rax,-0x1bc8(%rbp)
    ff87:	c6 85 ab e2 ff ff f7 	movb   $0xf7,-0x1d55(%rbp)
    ff8e:	48 8d 05 03 2d 01 00 	lea    0x12d03(%rip),%rax        # 22c98 <g_109>
    ff95:	48 89 85 98 e4 ff ff 	mov    %rax,-0x1b68(%rbp)
    ff9c:	48 c7 85 a0 e4 ff ff 	movq   $0x0,-0x1b60(%rbp)
    ffa3:	00 00 00 00 
    ffa7:	c6 85 ac e2 ff ff 01 	movb   $0x1,-0x1d54(%rbp)
    ffae:	66 c7 85 bc e2 ff ff 	movw   $0xfffb,-0x1d44(%rbp)
    ffb5:	fb ff 
    ffb7:	48 8d 85 80 ea ff ff 	lea    -0x1580(%rbp),%rax
    ffbe:	48 83 c0 6c          	add    $0x6c,%rax
    ffc2:	48 89 85 40 e4 ff ff 	mov    %rax,-0x1bc0(%rbp)
    ffc9:	48 8d 85 40 e4 ff ff 	lea    -0x1bc0(%rbp),%rax
    ffd0:	48 89 85 20 eb ff ff 	mov    %rax,-0x14e0(%rbp)
    ffd7:	48 8d 85 40 e4 ff ff 	lea    -0x1bc0(%rbp),%rax
    ffde:	48 89 85 28 eb ff ff 	mov    %rax,-0x14d8(%rbp)
    ffe5:	48 8d 85 40 e4 ff ff 	lea    -0x1bc0(%rbp),%rax
    ffec:	48 89 85 30 eb ff ff 	mov    %rax,-0x14d0(%rbp)
    fff3:	48 8d 85 40 e4 ff ff 	lea    -0x1bc0(%rbp),%rax
    fffa:	48 89 85 38 eb ff ff 	mov    %rax,-0x14c8(%rbp)
   10001:	48 8d 85 40 e4 ff ff 	lea    -0x1bc0(%rbp),%rax
   10008:	48 89 85 40 eb ff ff 	mov    %rax,-0x14c0(%rbp)
   1000f:	48 8d 85 40 e4 ff ff 	lea    -0x1bc0(%rbp),%rax
   10016:	48 89 85 48 eb ff ff 	mov    %rax,-0x14b8(%rbp)
   1001d:	48 8d 85 40 e4 ff ff 	lea    -0x1bc0(%rbp),%rax
   10024:	48 89 85 50 eb ff ff 	mov    %rax,-0x14b0(%rbp)
   1002b:	48 8d 85 40 e4 ff ff 	lea    -0x1bc0(%rbp),%rax
   10032:	48 89 85 58 eb ff ff 	mov    %rax,-0x14a8(%rbp)
   10039:	48 8d 85 40 e4 ff ff 	lea    -0x1bc0(%rbp),%rax
   10040:	48 89 85 60 eb ff ff 	mov    %rax,-0x14a0(%rbp)
   10047:	48 8d 85 40 e4 ff ff 	lea    -0x1bc0(%rbp),%rax
   1004e:	48 89 85 68 eb ff ff 	mov    %rax,-0x1498(%rbp)
   10055:	48 8d 85 40 e4 ff ff 	lea    -0x1bc0(%rbp),%rax
   1005c:	48 89 85 70 eb ff ff 	mov    %rax,-0x1490(%rbp)
   10063:	48 8d 85 40 e4 ff ff 	lea    -0x1bc0(%rbp),%rax
   1006a:	48 89 85 78 eb ff ff 	mov    %rax,-0x1488(%rbp)
   10071:	48 8d 85 40 e4 ff ff 	lea    -0x1bc0(%rbp),%rax
   10078:	48 89 85 80 eb ff ff 	mov    %rax,-0x1480(%rbp)
   1007f:	48 8d 85 40 e4 ff ff 	lea    -0x1bc0(%rbp),%rax
   10086:	48 89 85 88 eb ff ff 	mov    %rax,-0x1478(%rbp)
   1008d:	48 8d 85 40 e4 ff ff 	lea    -0x1bc0(%rbp),%rax
   10094:	48 89 85 90 eb ff ff 	mov    %rax,-0x1470(%rbp)
   1009b:	48 8d 85 40 e4 ff ff 	lea    -0x1bc0(%rbp),%rax
   100a2:	48 89 85 98 eb ff ff 	mov    %rax,-0x1468(%rbp)
   100a9:	48 8d 85 40 e4 ff ff 	lea    -0x1bc0(%rbp),%rax
   100b0:	48 89 85 a0 eb ff ff 	mov    %rax,-0x1460(%rbp)
   100b7:	48 8d 85 40 e4 ff ff 	lea    -0x1bc0(%rbp),%rax
   100be:	48 89 85 a8 eb ff ff 	mov    %rax,-0x1458(%rbp)
   100c5:	48 8d 85 40 e4 ff ff 	lea    -0x1bc0(%rbp),%rax
   100cc:	48 89 85 b0 eb ff ff 	mov    %rax,-0x1450(%rbp)
   100d3:	48 8d 85 40 e4 ff ff 	lea    -0x1bc0(%rbp),%rax
   100da:	48 89 85 b8 eb ff ff 	mov    %rax,-0x1448(%rbp)
   100e1:	c7 85 6c e3 ff ff 00 	movl   $0x0,-0x1c94(%rbp)
   100e8:	00 00 00 
   100eb:	48 b8 f8 1d 6a 41 59 	movabs $0x38dac59416a1df8,%rax
   100f2:	ac 8d 03 
   100f5:	48 89 85 a8 e4 ff ff 	mov    %rax,-0x1b58(%rbp)
   100fc:	c7 85 d8 e2 ff ff 8b 	movl   $0x9ffdf28b,-0x1d28(%rbp)
   10103:	f2 fd 9f 
   10106:	c7 85 70 ec ff ff e4 	movl   $0x1b0d5ae4,-0x1390(%rbp)
   1010d:	5a 0d 1b 
   10110:	c7 85 74 ec ff ff ff 	movl   $0xffffffff,-0x138c(%rbp)
   10117:	ff ff ff 
   1011a:	c7 85 78 ec ff ff ff 	movl   $0xffffffff,-0x1388(%rbp)
   10121:	ff ff ff 
   10124:	c7 85 7c ec ff ff e4 	movl   $0x1b0d5ae4,-0x1384(%rbp)
   1012b:	5a 0d 1b 
   1012e:	c7 85 80 ec ff ff 00 	movl   $0x0,-0x1380(%rbp)
   10135:	00 00 00 
   10138:	c7 85 84 ec ff ff f4 	movl   $0xa3857af4,-0x137c(%rbp)
   1013f:	7a 85 a3 
   10142:	c7 85 88 ec ff ff 00 	movl   $0x0,-0x1378(%rbp)
   10149:	00 00 00 
   1014c:	c7 85 8c ec ff ff ff 	movl   $0xffffffff,-0x1374(%rbp)
   10153:	ff ff ff 
   10156:	c7 85 90 ec ff ff 00 	movl   $0x0,-0x1370(%rbp)
   1015d:	00 00 00 
   10160:	c7 85 94 ec ff ff f4 	movl   $0xa3857af4,-0x136c(%rbp)
   10167:	7a 85 a3 
   1016a:	c7 85 98 ec ff ff 11 	movl   $0x6cd8fe11,-0x1368(%rbp)
   10171:	fe d8 6c 
   10174:	c7 85 9c ec ff ff 1f 	movl   $0xde920d1f,-0x1364(%rbp)
   1017b:	0d 92 de 
   1017e:	c7 85 a0 ec ff ff 00 	movl   $0x0,-0x1360(%rbp)
   10185:	00 00 00 
   10188:	c7 85 a4 ec ff ff 1f 	movl   $0xde920d1f,-0x135c(%rbp)
   1018f:	0d 92 de 
   10192:	c7 85 a8 ec ff ff fe 	movl   $0xfffffffe,-0x1358(%rbp)
   10199:	ff ff ff 
   1019c:	c7 85 ac ec ff ff 00 	movl   $0x0,-0x1354(%rbp)
   101a3:	00 00 00 
   101a6:	c7 85 b0 ec ff ff 11 	movl   $0x6cd8fe11,-0x1350(%rbp)
   101ad:	fe d8 6c 
   101b0:	c7 85 b4 ec ff ff 11 	movl   $0x6cd8fe11,-0x134c(%rbp)
   101b7:	fe d8 6c 
   101ba:	c7 85 b8 ec ff ff ff 	movl   $0xffffffff,-0x1348(%rbp)
   101c1:	ff ff ff 
   101c4:	c7 85 bc ec ff ff 1f 	movl   $0xde920d1f,-0x1344(%rbp)
   101cb:	0d 92 de 
   101ce:	c7 85 c0 ec ff ff 1f 	movl   $0xde920d1f,-0x1340(%rbp)
   101d5:	0d 92 de 
   101d8:	c7 85 c4 ec ff ff ff 	movl   $0xffffffff,-0x133c(%rbp)
   101df:	ff ff ff 
   101e2:	c7 85 c8 ec ff ff 11 	movl   $0x6cd8fe11,-0x1338(%rbp)
   101e9:	fe d8 6c 
   101ec:	c7 85 cc ec ff ff fe 	movl   $0xfffffffe,-0x1334(%rbp)
   101f3:	ff ff ff 
   101f6:	c7 85 d0 ec ff ff f4 	movl   $0xa3857af4,-0x1330(%rbp)
   101fd:	7a 85 a3 
   10200:	c7 85 d4 ec ff ff 1f 	movl   $0xde920d1f,-0x132c(%rbp)
   10207:	0d 92 de 
   1020a:	c7 85 d8 ec ff ff 11 	movl   $0x6cd8fe11,-0x1328(%rbp)
   10211:	fe d8 6c 
   10214:	c7 85 dc ec ff ff f4 	movl   $0xa3857af4,-0x1324(%rbp)
   1021b:	7a 85 a3 
   1021e:	c7 85 e0 ec ff ff 11 	movl   $0x6cd8fe11,-0x1320(%rbp)
   10225:	fe d8 6c 
   10228:	c7 85 e4 ec ff ff 1f 	movl   $0xde920d1f,-0x131c(%rbp)
   1022f:	0d 92 de 
   10232:	c7 85 e8 ec ff ff 00 	movl   $0x0,-0x1318(%rbp)
   10239:	00 00 00 
   1023c:	c7 85 ec ec ff ff 1f 	movl   $0xde920d1f,-0x1314(%rbp)
   10243:	0d 92 de 
   10246:	c7 85 f0 ec ff ff fe 	movl   $0xfffffffe,-0x1310(%rbp)
   1024d:	ff ff ff 
   10250:	c7 85 f4 ec ff ff 00 	movl   $0x0,-0x130c(%rbp)
   10257:	00 00 00 
   1025a:	c7 85 f8 ec ff ff 11 	movl   $0x6cd8fe11,-0x1308(%rbp)
   10261:	fe d8 6c 
   10264:	c7 85 fc ec ff ff 11 	movl   $0x6cd8fe11,-0x1304(%rbp)
   1026b:	fe d8 6c 
   1026e:	c7 85 00 ed ff ff ff 	movl   $0xffffffff,-0x1300(%rbp)
   10275:	ff ff ff 
   10278:	c7 85 04 ed ff ff 1f 	movl   $0xde920d1f,-0x12fc(%rbp)
   1027f:	0d 92 de 
   10282:	c7 85 08 ed ff ff 1f 	movl   $0xde920d1f,-0x12f8(%rbp)
   10289:	0d 92 de 
   1028c:	c7 85 0c ed ff ff ff 	movl   $0xffffffff,-0x12f4(%rbp)
   10293:	ff ff ff 
   10296:	c7 85 10 ed ff ff 11 	movl   $0x6cd8fe11,-0x12f0(%rbp)
   1029d:	fe d8 6c 
   102a0:	c7 85 14 ed ff ff fe 	movl   $0xfffffffe,-0x12ec(%rbp)
   102a7:	ff ff ff 
   102aa:	c7 85 18 ed ff ff f4 	movl   $0xa3857af4,-0x12e8(%rbp)
   102b1:	7a 85 a3 
   102b4:	c7 85 1c ed ff ff 1f 	movl   $0xde920d1f,-0x12e4(%rbp)
   102bb:	0d 92 de 
   102be:	c7 85 20 ed ff ff 11 	movl   $0x6cd8fe11,-0x12e0(%rbp)
   102c5:	fe d8 6c 
   102c8:	c7 85 24 ed ff ff f4 	movl   $0xa3857af4,-0x12dc(%rbp)
   102cf:	7a 85 a3 
   102d2:	c7 85 28 ed ff ff 11 	movl   $0x6cd8fe11,-0x12d8(%rbp)
   102d9:	fe d8 6c 
   102dc:	c7 85 2c ed ff ff 1f 	movl   $0xde920d1f,-0x12d4(%rbp)
   102e3:	0d 92 de 
   102e6:	66 c7 85 be e2 ff ff 	movw   $0xfffc,-0x1d42(%rbp)
   102ed:	fc ff 
   102ef:	66 c7 85 e0 e7 ff ff 	movw   $0x1,-0x1820(%rbp)
   102f6:	01 00 
   102f8:	66 c7 85 e2 e7 ff ff 	movw   $0xffff,-0x181e(%rbp)
   102ff:	ff ff 
   10301:	66 c7 85 e4 e7 ff ff 	movw   $0x1,-0x181c(%rbp)
   10308:	01 00 
   1030a:	66 c7 85 e6 e7 ff ff 	movw   $0x1867,-0x181a(%rbp)
   10311:	67 18 
   10313:	66 c7 85 e8 e7 ff ff 	movw   $0xd7,-0x1818(%rbp)
   1031a:	d7 00 
   1031c:	66 c7 85 ea e7 ff ff 	movw   $0xfffb,-0x1816(%rbp)
   10323:	fb ff 
   10325:	66 c7 85 ec e7 ff ff 	movw   $0x0,-0x1814(%rbp)
   1032c:	00 00 
   1032e:	66 c7 85 ee e7 ff ff 	movw   $0xfffb,-0x1812(%rbp)
   10335:	fb ff 
   10337:	66 c7 85 f0 e7 ff ff 	movw   $0xd7,-0x1810(%rbp)
   1033e:	d7 00 
   10340:	66 c7 85 f2 e7 ff ff 	movw   $0x1867,-0x180e(%rbp)
   10347:	67 18 
   10349:	66 c7 85 f4 e7 ff ff 	movw   $0x1,-0x180c(%rbp)
   10350:	01 00 
   10352:	66 c7 85 f6 e7 ff ff 	movw   $0xffff,-0x180a(%rbp)
   10359:	ff ff 
   1035b:	66 c7 85 f8 e7 ff ff 	movw   $0x1,-0x1808(%rbp)
   10362:	01 00 
   10364:	66 c7 85 fa e7 ff ff 	movw   $0x1867,-0x1806(%rbp)
   1036b:	67 18 
   1036d:	66 c7 85 fc e7 ff ff 	movw   $0xd7,-0x1804(%rbp)
   10374:	d7 00 
   10376:	66 c7 85 fe e7 ff ff 	movw   $0xfffb,-0x1802(%rbp)
   1037d:	fb ff 
   1037f:	66 c7 85 00 e8 ff ff 	movw   $0x0,-0x1800(%rbp)
   10386:	00 00 
   10388:	66 c7 85 02 e8 ff ff 	movw   $0xfffb,-0x17fe(%rbp)
   1038f:	fb ff 
   10391:	66 c7 85 04 e8 ff ff 	movw   $0xd7,-0x17fc(%rbp)
   10398:	d7 00 
   1039a:	66 c7 85 06 e8 ff ff 	movw   $0x1867,-0x17fa(%rbp)
   103a1:	67 18 
   103a3:	66 c7 85 08 e8 ff ff 	movw   $0x1,-0x17f8(%rbp)
   103aa:	01 00 
   103ac:	66 c7 85 0a e8 ff ff 	movw   $0xffff,-0x17f6(%rbp)
   103b3:	ff ff 
   103b5:	66 c7 85 0c e8 ff ff 	movw   $0x1,-0x17f4(%rbp)
   103bc:	01 00 
   103be:	66 c7 85 0e e8 ff ff 	movw   $0x1867,-0x17f2(%rbp)
   103c5:	67 18 
   103c7:	48 8d 05 1a 13 01 00 	lea    0x1131a(%rip),%rax        # 216e8 <g_55+0x28>
   103ce:	48 89 85 b0 e4 ff ff 	mov    %rax,-0x1b50(%rbp)
   103d5:	c6 85 b0 e2 ff ff 78 	movb   $0x78,-0x1d50(%rbp)
   103dc:	c7 85 dc e2 ff ff 00 	movl   $0x0,-0x1d24(%rbp)
   103e3:	00 00 00 
   103e6:	eb 1a                	jmp    10402 <func_57+0xb72>
   103e8:	8b 85 dc e2 ff ff    	mov    -0x1d24(%rbp),%eax
   103ee:	48 98                	cltq   
   103f0:	c7 84 85 00 e7 ff ff 	movl   $0xffffffff,-0x1900(%rbp,%rax,4)
   103f7:	ff ff ff ff 
   103fb:	83 85 dc e2 ff ff 01 	addl   $0x1,-0x1d24(%rbp)
   10402:	83 bd dc e2 ff ff 04 	cmpl   $0x4,-0x1d24(%rbp)
   10409:	7e dd                	jle    103e8 <func_57+0xb58>
   1040b:	8b 85 94 e2 ff ff    	mov    -0x1d6c(%rbp),%eax
   10411:	41 89 c7             	mov    %eax,%r15d
   10414:	8b 85 7c e9 ff ff    	mov    -0x1684(%rbp),%eax
   1041a:	0f b6 d8             	movzbl %al,%ebx
   1041d:	8b 05 41 ec 00 00    	mov    0xec41(%rip),%eax        # 1f064 <g_88>
   10423:	89 c2                	mov    %eax,%edx
   10425:	48 8b 85 88 e4 ff ff 	mov    -0x1b78(%rbp),%rax
   1042c:	66 89 10             	mov    %dx,(%rax)
   1042f:	48 8b 85 88 e4 ff ff 	mov    -0x1b78(%rbp),%rax
   10436:	0f b7 00             	movzwl (%rax),%eax
   10439:	4c 0f bf e8          	movswq %ax,%r13
   1043d:	48 8b 85 80 e2 ff ff 	mov    -0x1d80(%rbp),%rax
   10444:	48 85 c0             	test   %rax,%rax
   10447:	0f 95 c0             	setne  %al
   1044a:	44 0f b6 f0          	movzbl %al,%r14d
   1044e:	44 8b a5 94 e2 ff ff 	mov    -0x1d6c(%rbp),%r12d
   10455:	8b 05 11 ec 00 00    	mov    0xec11(%rip),%eax        # 1f06c <g_98>
   1045b:	83 c0 01             	add    $0x1,%eax
   1045e:	89 05 08 ec 00 00    	mov    %eax,0xec08(%rip)        # 1f06c <g_98>
   10464:	be cf db 39 96       	mov    $0x9639dbcf,%esi
   10469:	bf fd ff ff ff       	mov    $0xfffffffd,%edi
   1046e:	e8 8c 92 ff ff       	callq  96ff <safe_div_func_int32_t_s_s>
   10473:	44 89 e6             	mov    %r12d,%esi
   10476:	89 c7                	mov    %eax,%edi
   10478:	e8 88 91 ff ff       	callq  9605 <safe_sub_func_int32_t_s_s>
   1047d:	41 39 c6             	cmp    %eax,%r14d
   10480:	0f 9f c0             	setg   %al
   10483:	0f b6 c0             	movzbl %al,%eax
   10486:	48 be 38 c6 34 57 4d 	movabs $0xfe78f14d5734c638,%rsi
   1048d:	f1 78 fe 
   10490:	48 89 c7             	mov    %rax,%rdi
   10493:	e8 5f 95 ff ff       	callq  99f7 <safe_div_func_int64_t_s_s>
   10498:	49 39 c5             	cmp    %rax,%r13
   1049b:	0f 9d c0             	setge  %al
   1049e:	0f b6 c0             	movzbl %al,%eax
   104a1:	89 de                	mov    %ebx,%esi
   104a3:	89 c7                	mov    %eax,%edi
   104a5:	e8 31 97 ff ff       	callq  9bdb <safe_div_func_uint8_t_u_u>
   104aa:	0f b6 d0             	movzbl %al,%edx
   104ad:	8b 05 d5 27 01 00    	mov    0x127d5(%rip),%eax        # 22c88 <g_3>
   104b3:	39 c2                	cmp    %eax,%edx
   104b5:	0f 9d c2             	setge  %dl
   104b8:	48 8b 85 10 e4 ff ff 	mov    -0x1bf0(%rbp),%rax
   104bf:	88 10                	mov    %dl,(%rax)
   104c1:	0f b6 00             	movzbl (%rax),%eax
   104c4:	48 0f be c0          	movsbq %al,%rax
   104c8:	83 e0 05             	and    $0x5,%eax
   104cb:	48 83 f8 01          	cmp    $0x1,%rax
   104cf:	8b 85 90 e2 ff ff    	mov    -0x1d70(%rbp),%eax
   104d5:	0f be c0             	movsbl %al,%eax
   104d8:	8b 95 90 e2 ff ff    	mov    -0x1d70(%rbp),%edx
   104de:	89 d6                	mov    %edx,%esi
   104e0:	89 c7                	mov    %eax,%edi
   104e2:	e8 4e 8e ff ff       	callq  9335 <safe_rshift_func_int8_t_s_s>
   104e7:	0f be d0             	movsbl %al,%edx
   104ea:	8b 05 84 eb 00 00    	mov    0xeb84(%rip),%eax        # 1f074 <g_106>
   104f0:	39 c2                	cmp    %eax,%edx
   104f2:	0f 97 c0             	seta   %al
   104f5:	0f b6 c0             	movzbl %al,%eax
   104f8:	89 85 d4 e2 ff ff    	mov    %eax,-0x1d2c(%rbp)
   104fe:	8b 95 d4 e2 ff ff    	mov    -0x1d2c(%rbp),%edx
   10504:	8b 05 46 eb 00 00    	mov    0xeb46(%rip),%eax        # 1f050 <g_43+0x10>
   1050a:	89 c1                	mov    %eax,%ecx
   1050c:	8b 85 8c ea ff ff    	mov    -0x1574(%rbp),%eax
   10512:	09 c8                	or     %ecx,%eax
   10514:	89 05 36 eb 00 00    	mov    %eax,0xeb36(%rip)        # 1f050 <g_43+0x10>
   1051a:	8b 05 30 eb 00 00    	mov    0xeb30(%rip),%eax        # 1f050 <g_43+0x10>
   10520:	89 d6                	mov    %edx,%esi
   10522:	89 c7                	mov    %eax,%edi
   10524:	e8 dc 90 ff ff       	callq  9605 <safe_sub_func_int32_t_s_s>
   10529:	8b 15 35 eb 00 00    	mov    0xeb35(%rip),%edx        # 1f064 <g_88>
   1052f:	09 d0                	or     %edx,%eax
   10531:	89 c1                	mov    %eax,%ecx
   10533:	48 8b 85 90 e4 ff ff 	mov    -0x1b70(%rbp),%rax
   1053a:	48 8b 10             	mov    (%rax),%rdx
   1053d:	48 63 c1             	movslq %ecx,%rax
   10540:	48 09 c2             	or     %rax,%rdx
   10543:	48 8b 85 90 e4 ff ff 	mov    -0x1b70(%rbp),%rax
   1054a:	48 89 10             	mov    %rdx,(%rax)
   1054d:	48 8b 95 10 e4 ff ff 	mov    -0x1bf0(%rbp),%rdx
   10554:	48 8b 05 cd ea 00 00 	mov    0xeacd(%rip),%rax        # 1f028 <g_35>
   1055b:	0f be c0             	movsbl %al,%eax
   1055e:	8b 8d d0 ea ff ff    	mov    -0x1530(%rbp),%ecx
   10564:	89 cf                	mov    %ecx,%edi
   10566:	44 89 f9             	mov    %r15d,%ecx
   10569:	89 c6                	mov    %eax,%esi
   1056b:	e8 5c 7f 00 00       	callq  184cc <func_75>
   10570:	48 89 c2             	mov    %rax,%rdx
   10573:	48 8b 05 7e 11 01 00 	mov    0x1117e(%rip),%rax        # 216f8 <g_72>
   1057a:	48 8b 00             	mov    (%rax),%rax
   1057d:	48 09 d0             	or     %rdx,%rax
   10580:	48 85 c0             	test   %rax,%rax
   10583:	0f 84 ea 00 00 00    	je     10673 <func_57+0xde3>
   10589:	c7 45 bf 01 01 01 01 	movl   $0x1010101,-0x41(%rbp)
   10590:	48 c7 85 d8 e5 ff ff 	movq   $0x0,-0x1a28(%rbp)
   10597:	00 00 00 00 
   1059b:	48 8d 85 80 ea ff ff 	lea    -0x1580(%rbp),%rax
   105a2:	48 83 c0 50          	add    $0x50,%rax
   105a6:	48 89 85 e0 e5 ff ff 	mov    %rax,-0x1a20(%rbp)
   105ad:	44 8b 2d b8 ea 00 00 	mov    0xeab8(%rip),%r13d        # 1f06c <g_98>
   105b4:	4c 8b a5 10 e4 ff ff 	mov    -0x1bf0(%rbp),%r12
   105bb:	0f b6 45 bf          	movzbl -0x41(%rbp),%eax
   105bf:	0f be d8             	movsbl %al,%ebx
   105c2:	48 8b 85 98 e2 ff ff 	mov    -0x1d68(%rbp),%rax
   105c9:	4c 8b 30             	mov    (%rax),%r14
   105cc:	8b 85 94 e2 ff ff    	mov    -0x1d6c(%rbp),%eax
   105d2:	89 c2                	mov    %eax,%edx
   105d4:	48 8b 85 e0 e5 ff ff 	mov    -0x1a20(%rbp),%rax
   105db:	89 10                	mov    %edx,(%rax)
   105dd:	48 8b 85 e0 e5 ff ff 	mov    -0x1a20(%rbp),%rax
   105e4:	8b 10                	mov    (%rax),%edx
   105e6:	0f b6 05 83 ea 00 00 	movzbl 0xea83(%rip),%eax        # 1f070 <g_105>
   105ed:	0f be f0             	movsbl %al,%esi
   105f0:	0f b6 45 c2          	movzbl -0x3e(%rbp),%eax
   105f4:	0f b6 c0             	movzbl %al,%eax
   105f7:	48 8d 4d bf          	lea    -0x41(%rbp),%rcx
   105fb:	48 8d 79 02          	lea    0x2(%rcx),%rdi
   105ff:	89 d1                	mov    %edx,%ecx
   10601:	48 89 fa             	mov    %rdi,%rdx
   10604:	89 c7                	mov    %eax,%edi
   10606:	e8 c1 7e 00 00       	callq  184cc <func_75>
   1060b:	0f b6 45 bf          	movzbl -0x41(%rbp),%eax
   1060f:	0f b6 c0             	movzbl %al,%eax
   10612:	be 01 00 00 00       	mov    $0x1,%esi
   10617:	89 c7                	mov    %eax,%edi
   10619:	e8 5a 95 ff ff       	callq  9b78 <safe_sub_func_uint8_t_u_u>
   1061e:	3c b1                	cmp    $0xb1,%al
   10620:	0f 96 c0             	setbe  %al
   10623:	0f b6 c0             	movzbl %al,%eax
   10626:	49 39 c6             	cmp    %rax,%r14
   10629:	0f 96 c0             	setbe  %al
   1062c:	0f b6 d0             	movzbl %al,%edx
   1062f:	0f b6 45 c0          	movzbl -0x40(%rbp),%eax
   10633:	0f b6 c0             	movzbl %al,%eax
   10636:	39 c2                	cmp    %eax,%edx
   10638:	0f 9c c0             	setl   %al
   1063b:	0f b6 d0             	movzbl %al,%edx
   1063e:	8b 85 94 e2 ff ff    	mov    -0x1d6c(%rbp),%eax
   10644:	21 d0                	and    %edx,%eax
   10646:	44 89 e9             	mov    %r13d,%ecx
   10649:	4c 89 e2             	mov    %r12,%rdx
   1064c:	89 de                	mov    %ebx,%esi
   1064e:	89 c7                	mov    %eax,%edi
   10650:	e8 77 7e 00 00       	callq  184cc <func_75>
   10655:	48 8b 95 18 e4 ff ff 	mov    -0x1be8(%rbp),%rdx
   1065c:	48 39 d0             	cmp    %rdx,%rax
   1065f:	0f 9d c2             	setge  %dl
   10662:	48 8b 05 97 10 01 00 	mov    0x11097(%rip),%rax        # 21700 <g_113>
   10669:	0f b6 d2             	movzbl %dl,%edx
   1066c:	89 10                	mov    %edx,(%rax)
   1066e:	e9 51 3d 00 00       	jmpq   143c4 <func_57+0x4b34>
   10673:	c7 85 e0 e2 ff ff 01 	movl   $0x1,-0x1d20(%rbp)
   1067a:	00 00 00 
   1067d:	c7 85 48 e4 ff ff 00 	movl   $0x0,-0x1bb8(%rbp)
   10684:	00 00 00 
   10687:	48 8d 05 ea e9 00 00 	lea    0xe9ea(%rip),%rax        # 1f078 <g_155>
   1068e:	48 89 85 50 e4 ff ff 	mov    %rax,-0x1bb0(%rbp)
   10695:	48 8d 05 d0 e9 00 00 	lea    0xe9d0(%rip),%rax        # 1f06c <g_98>
   1069c:	48 89 85 40 e8 ff ff 	mov    %rax,-0x17c0(%rbp)
   106a3:	48 8d 05 c2 e9 00 00 	lea    0xe9c2(%rip),%rax        # 1f06c <g_98>
   106aa:	48 89 85 48 e8 ff ff 	mov    %rax,-0x17b8(%rbp)
   106b1:	48 8d 05 b4 e9 00 00 	lea    0xe9b4(%rip),%rax        # 1f06c <g_98>
   106b8:	48 89 85 50 e8 ff ff 	mov    %rax,-0x17b0(%rbp)
   106bf:	48 8d 05 a6 e9 00 00 	lea    0xe9a6(%rip),%rax        # 1f06c <g_98>
   106c6:	48 89 85 58 e8 ff ff 	mov    %rax,-0x17a8(%rbp)
   106cd:	48 8d 05 98 e9 00 00 	lea    0xe998(%rip),%rax        # 1f06c <g_98>
   106d4:	48 89 85 60 e8 ff ff 	mov    %rax,-0x17a0(%rbp)
   106db:	48 8d 05 8a e9 00 00 	lea    0xe98a(%rip),%rax        # 1f06c <g_98>
   106e2:	48 89 85 68 e8 ff ff 	mov    %rax,-0x1798(%rbp)
   106e9:	48 8d 05 7c e9 00 00 	lea    0xe97c(%rip),%rax        # 1f06c <g_98>
   106f0:	48 89 85 70 e8 ff ff 	mov    %rax,-0x1790(%rbp)
   106f7:	c7 85 80 e7 ff ff 9b 	movl   $0xded6a59b,-0x1880(%rbp)
   106fe:	a5 d6 de 
   10701:	c7 85 84 e7 ff ff 9b 	movl   $0xded6a59b,-0x187c(%rbp)
   10708:	a5 d6 de 
   1070b:	c7 85 88 e7 ff ff 9b 	movl   $0xded6a59b,-0x1878(%rbp)
   10712:	a5 d6 de 
   10715:	c7 85 8c e7 ff ff 9b 	movl   $0xded6a59b,-0x1874(%rbp)
   1071c:	a5 d6 de 
   1071f:	c7 85 90 e7 ff ff 9b 	movl   $0xded6a59b,-0x1870(%rbp)
   10726:	a5 d6 de 
   10729:	c7 85 94 e7 ff ff 9b 	movl   $0xded6a59b,-0x186c(%rbp)
   10730:	a5 d6 de 
   10733:	c7 85 98 e7 ff ff 9b 	movl   $0xded6a59b,-0x1868(%rbp)
   1073a:	a5 d6 de 
   1073d:	c7 85 9c e7 ff ff 9b 	movl   $0xded6a59b,-0x1864(%rbp)
   10744:	a5 d6 de 
   10747:	c7 85 a0 e7 ff ff 9b 	movl   $0xded6a59b,-0x1860(%rbp)
   1074e:	a5 d6 de 
   10751:	c7 85 a4 e7 ff ff 9b 	movl   $0xded6a59b,-0x185c(%rbp)
   10758:	a5 d6 de 
   1075b:	48 c7 85 b8 e4 ff ff 	movq   $0x0,-0x1b48(%rbp)
   10762:	00 00 00 00 
   10766:	66 c7 85 f0 e9 ff ff 	movw   $0xf203,-0x1610(%rbp)
   1076d:	03 f2 
   1076f:	66 c7 85 f2 e9 ff ff 	movw   $0x8,-0x160e(%rbp)
   10776:	08 00 
   10778:	66 c7 85 f4 e9 ff ff 	movw   $0xff,-0x160c(%rbp)
   1077f:	ff 00 
   10781:	66 c7 85 f6 e9 ff ff 	movw   $0xf208,-0x160a(%rbp)
   10788:	08 f2 
   1078a:	66 c7 85 f8 e9 ff ff 	movw   $0x1403,-0x1608(%rbp)
   10791:	03 14 
   10793:	66 c7 85 fa e9 ff ff 	movw   $0x900,-0x1606(%rbp)
   1079a:	00 09 
   1079c:	66 c7 85 fc e9 ff ff 	movw   $0xf6a3,-0x1604(%rbp)
   107a3:	a3 f6 
   107a5:	66 c7 85 fe e9 ff ff 	movw   $0x101,-0x1602(%rbp)
   107ac:	01 01 
   107ae:	66 c7 85 00 ea ff ff 	movw   $0x861,-0x1600(%rbp)
   107b5:	61 08 
   107b7:	66 c7 85 02 ea ff ff 	movw   $0xffff,-0x15fe(%rbp)
   107be:	ff ff 
   107c0:	66 c7 85 04 ea ff ff 	movw   $0xff09,-0x15fc(%rbp)
   107c7:	09 ff 
   107c9:	66 c7 85 06 ea ff ff 	movw   $0xffc9,-0x15fa(%rbp)
   107d0:	c9 ff 
   107d2:	66 c7 85 08 ea ff ff 	movw   $0x2525,-0x15f8(%rbp)
   107d9:	25 25 
   107db:	66 c7 85 0a ea ff ff 	movw   $0x708,-0x15f6(%rbp)
   107e2:	08 07 
   107e4:	66 c7 85 0c ea ff ff 	movw   $0x1,-0x15f4(%rbp)
   107eb:	01 00 
   107ed:	66 c7 85 0e ea ff ff 	movw   $0x83f8,-0x15f2(%rbp)
   107f4:	f8 83 
   107f6:	66 c7 85 10 ea ff ff 	movw   $0xf8f6,-0x15f0(%rbp)
   107fd:	f6 f8 
   107ff:	66 c7 85 12 ea ff ff 	movw   $0xff9f,-0x15ee(%rbp)
   10806:	9f ff 
   10808:	66 c7 85 14 ea ff ff 	movw   $0xf89f,-0x15ec(%rbp)
   1080f:	9f f8 
   10811:	66 c7 85 16 ea ff ff 	movw   $0x83f6,-0x15ea(%rbp)
   10818:	f6 83 
   1081a:	66 c7 85 18 ea ff ff 	movw   $0xf8,-0x15e8(%rbp)
   10821:	f8 00 
   10823:	66 c7 85 1a ea ff ff 	movw   $0x701,-0x15e6(%rbp)
   1082a:	01 07 
   1082c:	66 c7 85 1c ea ff ff 	movw   $0x2508,-0x15e4(%rbp)
   10833:	08 25 
   10835:	66 c7 85 1e ea ff ff 	movw   $0xff25,-0x15e2(%rbp)
   1083c:	25 ff 
   1083e:	66 c7 85 20 ea ff ff 	movw   $0xffc9,-0x15e0(%rbp)
   10845:	c9 ff 
   10847:	66 c7 85 22 ea ff ff 	movw   $0xff09,-0x15de(%rbp)
   1084e:	09 ff 
   10850:	66 c7 85 24 ea ff ff 	movw   $0x8ff,-0x15dc(%rbp)
   10857:	ff 08 
   10859:	66 c7 85 26 ea ff ff 	movw   $0x161,-0x15da(%rbp)
   10860:	61 01 
   10862:	66 c7 85 28 ea ff ff 	movw   $0xf601,-0x15d8(%rbp)
   10869:	01 f6 
   1086b:	66 c7 85 2a ea ff ff 	movw   $0x9a3,-0x15d6(%rbp)
   10872:	a3 09 
   10874:	66 c7 85 2c ea ff ff 	movw   $0x1400,-0x15d4(%rbp)
   1087b:	00 14 
   1087d:	66 c7 85 2e ea ff ff 	movw   $0xf203,-0x15d2(%rbp)
   10884:	03 f2 
   10886:	66 c7 85 30 ea ff ff 	movw   $0x8,-0x15d0(%rbp)
   1088d:	08 00 
   1088f:	66 c7 85 32 ea ff ff 	movw   $0xff,-0x15ce(%rbp)
   10896:	ff 00 
   10898:	66 c7 85 34 ea ff ff 	movw   $0xf208,-0x15cc(%rbp)
   1089f:	08 f2 
   108a1:	66 c7 85 36 ea ff ff 	movw   $0x1403,-0x15ca(%rbp)
   108a8:	03 14 
   108aa:	66 c7 85 38 ea ff ff 	movw   $0x900,-0x15c8(%rbp)
   108b1:	00 09 
   108b3:	66 c7 85 3a ea ff ff 	movw   $0xf6a3,-0x15c6(%rbp)
   108ba:	a3 f6 
   108bc:	66 c7 85 3c ea ff ff 	movw   $0x101,-0x15c4(%rbp)
   108c3:	01 01 
   108c5:	66 c7 85 3e ea ff ff 	movw   $0x861,-0x15c2(%rbp)
   108cc:	61 08 
   108ce:	66 c7 85 40 ea ff ff 	movw   $0xffff,-0x15c0(%rbp)
   108d5:	ff ff 
   108d7:	66 c7 85 42 ea ff ff 	movw   $0xff09,-0x15be(%rbp)
   108de:	09 ff 
   108e0:	66 c7 85 44 ea ff ff 	movw   $0xffc9,-0x15bc(%rbp)
   108e7:	c9 ff 
   108e9:	66 c7 85 46 ea ff ff 	movw   $0x2525,-0x15ba(%rbp)
   108f0:	25 25 
   108f2:	66 c7 85 48 ea ff ff 	movw   $0x708,-0x15b8(%rbp)
   108f9:	08 07 
   108fb:	66 c7 85 4a ea ff ff 	movw   $0x1,-0x15b6(%rbp)
   10902:	01 00 
   10904:	66 c7 85 4c ea ff ff 	movw   $0x83f8,-0x15b4(%rbp)
   1090b:	f8 83 
   1090d:	66 c7 85 4e ea ff ff 	movw   $0xf8f6,-0x15b2(%rbp)
   10914:	f6 f8 
   10916:	66 c7 85 50 ea ff ff 	movw   $0xff9f,-0x15b0(%rbp)
   1091d:	9f ff 
   1091f:	66 c7 85 52 ea ff ff 	movw   $0xf89f,-0x15ae(%rbp)
   10926:	9f f8 
   10928:	66 c7 85 54 ea ff ff 	movw   $0x83f6,-0x15ac(%rbp)
   1092f:	f6 83 
   10931:	66 c7 85 56 ea ff ff 	movw   $0xf8,-0x15aa(%rbp)
   10938:	f8 00 
   1093a:	66 c7 85 58 ea ff ff 	movw   $0x701,-0x15a8(%rbp)
   10941:	01 07 
   10943:	66 c7 85 5a ea ff ff 	movw   $0x108,-0x15a6(%rbp)
   1094a:	08 01 
   1094c:	48 8d 05 55 23 01 00 	lea    0x12355(%rip),%rax        # 22ca8 <g_587>
   10953:	48 89 85 c0 e4 ff ff 	mov    %rax,-0x1b40(%rbp)
   1095a:	48 8d 05 07 14 01 00 	lea    0x11407(%rip),%rax        # 21d68 <g_586>
   10961:	48 89 85 c8 e4 ff ff 	mov    %rax,-0x1b38(%rbp)
   10968:	48 c7 85 58 e4 ff ff 	movq   $0x0,-0x1ba8(%rbp)
   1096f:	00 00 00 00 
   10973:	c7 85 70 e3 ff ff fc 	movl   $0xfffffffc,-0x1c90(%rbp)
   1097a:	ff ff ff 
   1097d:	48 8d 05 8e e7 00 00 	lea    0xe78e(%rip),%rax        # 1f112 <g_675+0x2>
   10984:	48 89 85 d0 e4 ff ff 	mov    %rax,-0x1b30(%rbp)
   1098b:	c7 85 e4 e2 ff ff 00 	movl   $0x0,-0x1d1c(%rbp)
   10992:	00 00 00 
   10995:	eb 1a                	jmp    109b1 <func_57+0x1121>
   10997:	8b 85 e4 e2 ff ff    	mov    -0x1d1c(%rbp),%eax
   1099d:	48 98                	cltq   
   1099f:	c7 84 85 60 e7 ff ff 	movl   $0xfffffffb,-0x18a0(%rbp,%rax,4)
   109a6:	fb ff ff ff 
   109aa:	83 85 e4 e2 ff ff 01 	addl   $0x1,-0x1d1c(%rbp)
   109b1:	83 bd e4 e2 ff ff 07 	cmpl   $0x7,-0x1d1c(%rbp)
   109b8:	7e dd                	jle    10997 <func_57+0x1107>
   109ba:	48 8b 05 3f 0d 01 00 	mov    0x10d3f(%rip),%rax        # 21700 <g_113>
   109c1:	8b 00                	mov    (%rax),%eax
   109c3:	85 c0                	test   %eax,%eax
   109c5:	0f 84 ba 16 00 00    	je     12085 <func_57+0x27f5>
   109cb:	48 8d 05 8e e6 00 00 	lea    0xe68e(%rip),%rax        # 1f060 <g_56>
   109d2:	48 89 85 60 e5 ff ff 	mov    %rax,-0x1aa0(%rbp)
   109d9:	66 c7 85 60 e4 ff ff 	movw   $0xae57,-0x1ba0(%rbp)
   109e0:	57 ae 
   109e2:	48 8d 05 8f e6 00 00 	lea    0xe68f(%rip),%rax        # 1f078 <g_155>
   109e9:	48 89 85 68 e4 ff ff 	mov    %rax,-0x1b98(%rbp)
   109f0:	48 8d 85 68 e4 ff ff 	lea    -0x1b98(%rbp),%rax
   109f7:	48 89 85 68 e5 ff ff 	mov    %rax,-0x1a98(%rbp)
   109fe:	48 8d 05 75 e6 00 00 	lea    0xe675(%rip),%rax        # 1f07a <g_159>
   10a05:	48 89 85 70 e5 ff ff 	mov    %rax,-0x1a90(%rbp)
   10a0c:	c6 85 b4 e2 ff ff 01 	movb   $0x1,-0x1d4c(%rbp)
   10a13:	48 8d 85 b0 e7 ff ff 	lea    -0x1850(%rbp),%rax
   10a1a:	48 83 c0 08          	add    $0x8,%rax
   10a1e:	48 89 85 70 e4 ff ff 	mov    %rax,-0x1b90(%rbp)
   10a25:	c7 85 e8 e2 ff ff ff 	movl   $0xffffffff,-0x1d18(%rbp)
   10a2c:	ff ff ff 
   10a2f:	c7 85 ec e2 ff ff ff 	movl   $0xffffffff,-0x1d14(%rbp)
   10a36:	ff ff ff 
   10a39:	c6 85 b5 e2 ff ff 9d 	movb   $0x9d,-0x1d4b(%rbp)
   10a40:	48 c7 85 78 e5 ff ff 	movq   $0x0,-0x1a88(%rbp)
   10a47:	00 00 00 00 
   10a4b:	48 8d 05 2a e6 00 00 	lea    0xe62a(%rip),%rax        # 1f07c <g_165>
   10a52:	48 89 85 80 e5 ff ff 	mov    %rax,-0x1a80(%rbp)
   10a59:	48 8d 85 70 e4 ff ff 	lea    -0x1b90(%rbp),%rax
   10a60:	48 89 85 88 e5 ff ff 	mov    %rax,-0x1a78(%rbp)
   10a67:	48 8d 85 00 e7 ff ff 	lea    -0x1900(%rbp),%rax
   10a6e:	48 83 c0 10          	add    $0x10,%rax
   10a72:	48 89 85 90 e5 ff ff 	mov    %rax,-0x1a70(%rbp)
   10a79:	48 8d 85 80 ea ff ff 	lea    -0x1580(%rbp),%rax
   10a80:	48 83 c0 38          	add    $0x38,%rax
   10a84:	48 89 85 98 e5 ff ff 	mov    %rax,-0x1a68(%rbp)
   10a8b:	c7 85 f0 e2 ff ff 00 	movl   $0x0,-0x1d10(%rbp)
   10a92:	00 00 00 
   10a95:	eb 1a                	jmp    10ab1 <func_57+0x1221>
   10a97:	8b 85 f0 e2 ff ff    	mov    -0x1d10(%rbp),%eax
   10a9d:	48 98                	cltq   
   10a9f:	c7 84 85 40 e7 ff ff 	movl   $0x0,-0x18c0(%rbp,%rax,4)
   10aa6:	00 00 00 00 
   10aaa:	83 85 f0 e2 ff ff 01 	addl   $0x1,-0x1d10(%rbp)
   10ab1:	83 bd f0 e2 ff ff 01 	cmpl   $0x1,-0x1d10(%rbp)
   10ab8:	7e dd                	jle    10a97 <func_57+0x1207>
   10aba:	8b 85 94 e2 ff ff    	mov    -0x1d6c(%rbp),%eax
   10ac0:	44 0f b7 e0          	movzwl %ax,%r12d
   10ac4:	0f b7 85 60 e4 ff ff 	movzwl -0x1ba0(%rbp),%eax
   10acb:	0f b6 d8             	movzbl %al,%ebx
   10ace:	8b 05 b4 21 01 00    	mov    0x121b4(%rip),%eax        # 22c88 <g_3>
   10ad4:	44 0f bf e8          	movswl %ax,%r13d
   10ad8:	8b 05 66 e5 00 00    	mov    0xe566(%rip),%eax        # 1f044 <g_43+0x4>
   10ade:	4c 63 f0             	movslq %eax,%r14
   10ae1:	0f b7 85 60 e4 ff ff 	movzwl -0x1ba0(%rbp),%eax
   10ae8:	44 0f bf f8          	movswl %ax,%r15d
   10aec:	0f b6 05 3d e5 00 00 	movzbl 0xe53d(%rip),%eax        # 1f030 <g_39>
   10af3:	0f be c0             	movsbl %al,%eax
   10af6:	89 85 7c e2 ff ff    	mov    %eax,-0x1d84(%rbp)
   10afc:	0f b7 85 60 e4 ff ff 	movzwl -0x1ba0(%rbp),%eax
   10b03:	66 85 c0             	test   %ax,%ax
   10b06:	0f 84 e4 00 00 00    	je     10bf0 <func_57+0x1360>
   10b0c:	8b 85 94 e2 ff ff    	mov    -0x1d6c(%rbp),%eax
   10b12:	0f be c0             	movsbl %al,%eax
   10b15:	89 85 78 e2 ff ff    	mov    %eax,-0x1d88(%rbp)
   10b1b:	48 8b 85 70 e5 ff ff 	mov    -0x1a90(%rbp),%rax
   10b22:	0f b7 00             	movzwl (%rax),%eax
   10b25:	8d 50 ff             	lea    -0x1(%rax),%edx
   10b28:	48 8b 85 70 e5 ff ff 	mov    -0x1a90(%rbp),%rax
   10b2f:	66 89 10             	mov    %dx,(%rax)
   10b32:	48 8b 85 70 e5 ff ff 	mov    -0x1a90(%rbp),%rax
   10b39:	0f b7 00             	movzwl (%rax),%eax
   10b3c:	66 3d 3d 98          	cmp    $0x983d,%ax
   10b40:	0f 97 c0             	seta   %al
   10b43:	0f b6 c0             	movzbl %al,%eax
   10b46:	be 03 00 00 00       	mov    $0x3,%esi
   10b4b:	89 c7                	mov    %eax,%edi
   10b4d:	e8 1a 88 ff ff       	callq  936c <safe_rshift_func_int8_t_s_u>
   10b52:	0f b7 85 60 e4 ff ff 	movzwl -0x1ba0(%rbp),%eax
   10b59:	48 0f bf d0          	movswq %ax,%rdx
   10b5d:	48 8b 85 50 e4 ff ff 	mov    -0x1bb0(%rbp),%rax
   10b64:	48 85 c0             	test   %rax,%rax
   10b67:	0f 95 c0             	setne  %al
   10b6a:	0f b6 c8             	movzbl %al,%ecx
   10b6d:	8b 85 94 e2 ff ff    	mov    -0x1d6c(%rbp),%eax
   10b73:	31 c8                	xor    %ecx,%eax
   10b75:	48 98                	cltq   
   10b77:	48 89 d6             	mov    %rdx,%rsi
   10b7a:	48 89 c7             	mov    %rax,%rdi
   10b7d:	e8 2d 95 ff ff       	callq  a0af <safe_div_func_uint64_t_u_u>
   10b82:	48 8b 15 57 0b 01 00 	mov    0x10b57(%rip),%rdx        # 216e0 <g_55+0x20>
   10b89:	48 8b 85 68 e5 ff ff 	mov    -0x1a98(%rbp),%rax
   10b90:	48 89 10             	mov    %rdx,(%rax)
   10b93:	48 8b 85 68 e5 ff ff 	mov    -0x1a98(%rbp),%rax
   10b9a:	48 8b 00             	mov    (%rax),%rax
   10b9d:	48 8d 15 d4 e4 00 00 	lea    0xe4d4(%rip),%rdx        # 1f078 <g_155>
   10ba4:	48 39 d0             	cmp    %rdx,%rax
   10ba7:	0f 95 c0             	setne  %al
   10baa:	0f b6 c0             	movzbl %al,%eax
   10bad:	8b b5 78 e2 ff ff    	mov    -0x1d88(%rbp),%esi
   10bb3:	89 c7                	mov    %eax,%edi
   10bb5:	e8 58 86 ff ff       	callq  9212 <safe_mul_func_int8_t_s_s>
   10bba:	84 c0                	test   %al,%al
   10bbc:	74 13                	je     10bd1 <func_57+0x1341>
   10bbe:	0f b7 85 60 e4 ff ff 	movzwl -0x1ba0(%rbp),%eax
   10bc5:	66 85 c0             	test   %ax,%ax
   10bc8:	74 07                	je     10bd1 <func_57+0x1341>
   10bca:	b8 01 00 00 00       	mov    $0x1,%eax
   10bcf:	eb 05                	jmp    10bd6 <func_57+0x1346>
   10bd1:	b8 00 00 00 00       	mov    $0x0,%eax
   10bd6:	0f be c0             	movsbl %al,%eax
   10bd9:	be c0 ff ff ff       	mov    $0xffffffc0,%esi
   10bde:	89 c7                	mov    %eax,%edi
   10be0:	e8 2d 86 ff ff       	callq  9212 <safe_mul_func_int8_t_s_s>
   10be5:	3c 06                	cmp    $0x6,%al
   10be7:	74 07                	je     10bf0 <func_57+0x1360>
   10be9:	b8 01 00 00 00       	mov    $0x1,%eax
   10bee:	eb 05                	jmp    10bf5 <func_57+0x1365>
   10bf0:	b8 00 00 00 00       	mov    $0x0,%eax
   10bf5:	48 63 d0             	movslq %eax,%rdx
   10bf8:	48 8b 05 f9 0a 01 00 	mov    0x10af9(%rip),%rax        # 216f8 <g_72>
   10bff:	48 8b 00             	mov    (%rax),%rax
   10c02:	48 39 c2             	cmp    %rax,%rdx
   10c05:	0f 96 c0             	setbe  %al
   10c08:	0f b6 c0             	movzbl %al,%eax
   10c0b:	f7 d0                	not    %eax
   10c0d:	48 98                	cltq   
   10c0f:	48 89 c6             	mov    %rax,%rsi
   10c12:	bf 01 00 00 00       	mov    $0x1,%edi
   10c17:	e8 25 8c ff ff       	callq  9841 <safe_add_func_int64_t_s_s>
   10c1c:	48 8b 95 90 e4 ff ff 	mov    -0x1b70(%rbp),%rdx
   10c23:	48 89 02             	mov    %rax,(%rdx)
   10c26:	48 8b 85 90 e4 ff ff 	mov    -0x1b70(%rbp),%rax
   10c2d:	48 8b 00             	mov    (%rax),%rax
   10c30:	48 83 f8 ff          	cmp    $0xffffffffffffffff,%rax
   10c34:	0f 95 c0             	setne  %al
   10c37:	0f b6 c0             	movzbl %al,%eax
   10c3a:	8b b5 7c e2 ff ff    	mov    -0x1d84(%rbp),%esi
   10c40:	89 c7                	mov    %eax,%edi
   10c42:	e8 ae 87 ff ff       	callq  93f5 <safe_mul_func_int16_t_s_s>
   10c47:	98                   	cwtl   
   10c48:	33 85 90 e2 ff ff    	xor    -0x1d70(%rbp),%eax
   10c4e:	be f7 ff ff ff       	mov    $0xfffffff7,%esi
   10c53:	89 c7                	mov    %eax,%edi
   10c55:	e8 72 8a ff ff       	callq  96cc <safe_mod_func_int32_t_s_s>
   10c5a:	89 c2                	mov    %eax,%edx
   10c5c:	48 8b 85 10 e4 ff ff 	mov    -0x1bf0(%rbp),%rax
   10c63:	88 10                	mov    %dl,(%rax)
   10c65:	0f b6 00             	movzbl (%rax),%eax
   10c68:	88 05 0e e4 00 00    	mov    %al,0xe40e(%rip)        # 1f07c <g_165>
   10c6e:	0f b6 05 07 e4 00 00 	movzbl 0xe407(%rip),%eax        # 1f07c <g_165>
   10c75:	0f be d0             	movsbl %al,%edx
   10c78:	0f b7 85 60 e4 ff ff 	movzwl -0x1ba0(%rbp),%eax
   10c7f:	98                   	cwtl   
   10c80:	21 d0                	and    %edx,%eax
   10c82:	3d dd 9e 00 00       	cmp    $0x9edd,%eax
   10c87:	0f 9f c0             	setg   %al
   10c8a:	0f b6 d0             	movzbl %al,%edx
   10c8d:	48 8b 85 88 e4 ff ff 	mov    -0x1b78(%rbp),%rax
   10c94:	66 89 10             	mov    %dx,(%rax)
   10c97:	48 8b 85 88 e4 ff ff 	mov    -0x1b78(%rbp),%rax
   10c9e:	0f b7 00             	movzwl (%rax),%eax
   10ca1:	98                   	cwtl   
   10ca2:	39 85 90 e2 ff ff    	cmp    %eax,-0x1d70(%rbp)
   10ca8:	0f 9f c0             	setg   %al
   10cab:	0f b6 c0             	movzbl %al,%eax
   10cae:	44 89 fe             	mov    %r15d,%esi
   10cb1:	89 c7                	mov    %eax,%edi
   10cb3:	e8 4d 89 ff ff       	callq  9605 <safe_sub_func_int32_t_s_s>
   10cb8:	48 8b 85 60 e5 ff ff 	mov    -0x1aa0(%rbp),%rax
   10cbf:	0f b6 00             	movzbl (%rax),%eax
   10cc2:	8d 50 ff             	lea    -0x1(%rax),%edx
   10cc5:	48 8b 85 60 e5 ff ff 	mov    -0x1aa0(%rbp),%rax
   10ccc:	88 10                	mov    %dl,(%rax)
   10cce:	8b 05 b4 1f 01 00    	mov    0x11fb4(%rip),%eax        # 22c88 <g_3>
   10cd4:	85 c0                	test   %eax,%eax
   10cd6:	0f 9e c0             	setle  %al
   10cd9:	0f b6 c0             	movzbl %al,%eax
   10cdc:	be f6 ff 00 00       	mov    $0xfff6,%esi
   10ce1:	89 c7                	mov    %eax,%edi
   10ce3:	e8 17 90 ff ff       	callq  9cff <safe_add_func_uint16_t_u_u>
   10ce8:	0f b7 85 60 e4 ff ff 	movzwl -0x1ba0(%rbp),%eax
   10cef:	48 0f bf c0          	movswq %ax,%rax
   10cf3:	48 ba 47 26 ac 34 f4 	movabs $0x2b6a97f434ac2647,%rdx
   10cfa:	97 6a 2b 
   10cfd:	48 21 d0             	and    %rdx,%rax
   10d00:	48 83 f0 01          	xor    $0x1,%rax
   10d04:	48 89 c2             	mov    %rax,%rdx
   10d07:	8b 05 57 e3 00 00    	mov    0xe357(%rip),%eax        # 1f064 <g_88>
   10d0d:	48 98                	cltq   
   10d0f:	48 39 c2             	cmp    %rax,%rdx
   10d12:	0f 9e c0             	setle  %al
   10d15:	0f b6 d0             	movzbl %al,%edx
   10d18:	0f b7 85 60 e4 ff ff 	movzwl -0x1ba0(%rbp),%eax
   10d1f:	98                   	cwtl   
   10d20:	39 c2                	cmp    %eax,%edx
   10d22:	0f 9d c0             	setge  %al
   10d25:	0f b6 d0             	movzbl %al,%edx
   10d28:	48 8b 85 98 e2 ff ff 	mov    -0x1d68(%rbp),%rax
   10d2f:	48 89 10             	mov    %rdx,(%rax)
   10d32:	48 8b 85 98 e2 ff ff 	mov    -0x1d68(%rbp),%rax
   10d39:	48 8b 00             	mov    (%rax),%rax
   10d3c:	4c 89 f6             	mov    %r14,%rsi
   10d3f:	48 89 c7             	mov    %rax,%rdi
   10d42:	e8 39 93 ff ff       	callq  a080 <safe_mod_func_uint64_t_u_u>
   10d47:	44 89 ee             	mov    %r13d,%esi
   10d4a:	bf 01 00 00 00       	mov    $0x1,%edi
   10d4f:	e8 a1 86 ff ff       	callq  93f5 <safe_mul_func_int16_t_s_s>
   10d54:	4c 8d 05 35 1f 01 00 	lea    0x11f35(%rip),%r8        # 22c90 <g_66>
   10d5b:	44 89 e1             	mov    %r12d,%ecx
   10d5e:	48 8d 15 93 09 01 00 	lea    0x10993(%rip),%rdx        # 216f8 <g_72>
   10d65:	89 de                	mov    %ebx,%esi
   10d67:	48 8d 3d 8a 09 01 00 	lea    0x1098a(%rip),%rdi        # 216f8 <g_72>
   10d6e:	e8 75 7b 00 00       	callq  188e8 <func_122>
   10d73:	48 89 c7             	mov    %rax,%rdi
   10d76:	e8 9f 78 00 00       	callq  1861a <func_120>
   10d7b:	0f b7 05 e6 e2 00 00 	movzwl 0xe2e6(%rip),%eax        # 1f068 <g_91>
   10d82:	66 83 f8 f6          	cmp    $0xfff6,%ax
   10d86:	0f 84 bc 08 00 00    	je     11648 <func_57+0x1db8>
   10d8c:	48 8d 95 20 f1 ff ff 	lea    -0xee0(%rbp),%rdx
   10d93:	b8 00 00 00 00       	mov    $0x0,%eax
   10d98:	b9 0e 00 00 00       	mov    $0xe,%ecx
   10d9d:	48 89 d7             	mov    %rdx,%rdi
   10da0:	f3 48 ab             	rep stos %rax,%es:(%rdi)
   10da3:	48 c7 85 a8 e5 ff ff 	movq   $0x0,-0x1a58(%rbp)
   10daa:	00 00 00 00 
   10dae:	48 8d 85 60 e4 ff ff 	lea    -0x1ba0(%rbp),%rax
   10db5:	48 89 85 b0 e5 ff ff 	mov    %rax,-0x1a50(%rbp)
   10dbc:	48 b8 e8 6d 8e 79 0e 	movabs $0x939b4c0e798e6de8,%rax
   10dc3:	4c 9b 93 
   10dc6:	48 89 85 30 ed ff ff 	mov    %rax,-0x12d0(%rbp)
   10dcd:	48 89 85 38 ed ff ff 	mov    %rax,-0x12c8(%rbp)
   10dd4:	48 89 85 40 ed ff ff 	mov    %rax,-0x12c0(%rbp)
   10ddb:	48 89 85 48 ed ff ff 	mov    %rax,-0x12b8(%rbp)
   10de2:	48 89 85 50 ed ff ff 	mov    %rax,-0x12b0(%rbp)
   10de9:	48 89 85 58 ed ff ff 	mov    %rax,-0x12a8(%rbp)
   10df0:	48 89 85 60 ed ff ff 	mov    %rax,-0x12a0(%rbp)
   10df7:	48 8d 05 62 e2 00 00 	lea    0xe262(%rip),%rax        # 1f060 <g_56>
   10dfe:	48 89 85 b8 e5 ff ff 	mov    %rax,-0x1a48(%rbp)
   10e05:	c7 85 94 e3 ff ff fe 	movl   $0xcede9dfe,-0x1c6c(%rbp)
   10e0c:	9d de ce 
   10e0f:	c7 85 98 e3 ff ff f9 	movl   $0xfffffff9,-0x1c68(%rbp)
   10e16:	ff ff ff 
   10e19:	c7 85 9c e3 ff ff 4c 	movl   $0x650ae14c,-0x1c64(%rbp)
   10e20:	e1 0a 65 
   10e23:	66 c7 85 c6 e2 ff ff 	movw   $0x1e25,-0x1d3a(%rbp)
   10e2a:	25 1e 
   10e2c:	c7 85 a0 e3 ff ff ff 	movl   $0xffffffff,-0x1c60(%rbp)
   10e33:	ff ff ff 
   10e36:	c7 85 a4 e3 ff ff 09 	movl   $0x9,-0x1c5c(%rbp)
   10e3d:	00 00 00 
   10e40:	0f b6 05 29 e2 00 00 	movzbl 0xe229(%rip),%eax        # 1f070 <g_105>
   10e47:	0f be d8             	movsbl %al,%ebx
   10e4a:	48 c7 85 70 e8 ff ff 	movq   $0x0,-0x1790(%rbp)
   10e51:	00 00 00 00 
   10e55:	0f b7 85 60 e4 ff ff 	movzwl -0x1ba0(%rbp),%eax
   10e5c:	0f bf d0             	movswl %ax,%edx
   10e5f:	48 8b 85 88 e2 ff ff 	mov    -0x1d78(%rbp),%rax
   10e66:	48 85 c0             	test   %rax,%rax
   10e69:	0f 95 c0             	setne  %al
   10e6c:	0f b6 c0             	movzbl %al,%eax
   10e6f:	21 d0                	and    %edx,%eax
   10e71:	89 c2                	mov    %eax,%edx
   10e73:	8b 05 fb e1 00 00    	mov    0xe1fb(%rip),%eax        # 1f074 <g_106>
   10e79:	39 c2                	cmp    %eax,%edx
   10e7b:	41 0f 92 c4          	setb   %r12b
   10e7f:	0f b7 85 60 e4 ff ff 	movzwl -0x1ba0(%rbp),%eax
   10e86:	66 85 c0             	test   %ax,%ax
   10e89:	75 2f                	jne    10eba <func_57+0x162a>
   10e8b:	8b 85 94 e2 ff ff    	mov    -0x1d6c(%rbp),%eax
   10e91:	89 c2                	mov    %eax,%edx
   10e93:	48 8b 05 f6 1d 01 00 	mov    0x11df6(%rip),%rax        # 22c90 <g_66>
   10e9a:	8b 00                	mov    (%rax),%eax
   10e9c:	85 c0                	test   %eax,%eax
   10e9e:	0f 9e c0             	setle  %al
   10ea1:	0f b6 c0             	movzbl %al,%eax
   10ea4:	89 d6                	mov    %edx,%esi
   10ea6:	89 c7                	mov    %eax,%edi
   10ea8:	e8 bf 84 ff ff       	callq  936c <safe_rshift_func_int8_t_s_u>
   10ead:	0f be d0             	movsbl %al,%edx
   10eb0:	8b 05 02 e2 00 00    	mov    0xe202(%rip),%eax        # 1f0b8 <g_240+0x18>
   10eb6:	39 c2                	cmp    %eax,%edx
   10eb8:	74 07                	je     10ec1 <func_57+0x1631>
   10eba:	b8 01 00 00 00       	mov    $0x1,%eax
   10ebf:	eb 05                	jmp    10ec6 <func_57+0x1636>
   10ec1:	b8 00 00 00 00       	mov    $0x0,%eax
   10ec6:	83 e0 01             	and    $0x1,%eax
   10ec9:	44 09 e0             	or     %r12d,%eax
   10ecc:	0f b6 c0             	movzbl %al,%eax
   10ecf:	89 c6                	mov    %eax,%esi
   10ed1:	bf 03 00 00 00       	mov    $0x3,%edi
   10ed6:	e8 7a 85 ff ff       	callq  9455 <safe_div_func_int16_t_s_s>
   10edb:	89 c2                	mov    %eax,%edx
   10edd:	0f b7 85 60 e4 ff ff 	movzwl -0x1ba0(%rbp),%eax
   10ee4:	31 d0                	xor    %edx,%eax
   10ee6:	0f b6 c0             	movzbl %al,%eax
   10ee9:	be ff 00 00 00       	mov    $0xff,%esi
   10eee:	89 c7                	mov    %eax,%edi
   10ef0:	e8 b9 8c ff ff       	callq  9bae <safe_mod_func_uint8_t_u_u>
   10ef5:	84 c0                	test   %al,%al
   10ef7:	74 07                	je     10f00 <func_57+0x1670>
   10ef9:	b8 01 00 00 00       	mov    $0x1,%eax
   10efe:	eb 05                	jmp    10f05 <func_57+0x1675>
   10f00:	b8 00 00 00 00       	mov    $0x0,%eax
   10f05:	89 de                	mov    %ebx,%esi
   10f07:	89 c7                	mov    %eax,%edi
   10f09:	e8 aa 8f ff ff       	callq  9eb8 <safe_add_func_uint32_t_u_u>
   10f0e:	0f be c0             	movsbl %al,%eax
   10f11:	be 02 00 00 00       	mov    $0x2,%esi
   10f16:	89 c7                	mov    %eax,%edi
   10f18:	e8 18 84 ff ff       	callq  9335 <safe_rshift_func_int8_t_s_s>
   10f1d:	48 8b 05 6c 1d 01 00 	mov    0x11d6c(%rip),%rax        # 22c90 <g_66>
   10f24:	c7 00 01 00 00 00    	movl   $0x1,(%rax)
   10f2a:	8b 05 3c e1 00 00    	mov    0xe13c(%rip),%eax        # 1f06c <g_98>
   10f30:	85 c0                	test   %eax,%eax
   10f32:	90                   	nop
   10f33:	f3 0f 1e fa          	endbr64 
   10f37:	66 0f be 85 b4 e2 ff 	movsbw -0x1d4c(%rbp),%ax
   10f3e:	ff 
   10f3f:	0f b7 d0             	movzwl %ax,%edx
   10f42:	0f b7 85 60 e4 ff ff 	movzwl -0x1ba0(%rbp),%eax
   10f49:	0f b7 c0             	movzwl %ax,%eax
   10f4c:	89 d6                	mov    %edx,%esi
   10f4e:	89 c7                	mov    %eax,%edi
   10f50:	e8 07 8e ff ff       	callq  9d5c <safe_mod_func_uint16_t_u_u>
   10f55:	0f b7 c0             	movzwl %ax,%eax
   10f58:	89 05 0e e1 00 00    	mov    %eax,0xe10e(%rip)        # 1f06c <g_98>
   10f5e:	8b 05 08 e1 00 00    	mov    0xe108(%rip),%eax        # 1f06c <g_98>
   10f64:	85 c0                	test   %eax,%eax
   10f66:	0f 84 a9 00 00 00    	je     11015 <func_57+0x1785>
   10f6c:	48 8b 85 b0 e5 ff ff 	mov    -0x1a50(%rbp),%rax
   10f73:	66 c7 00 f9 ff       	movw   $0xfff9,(%rax)
   10f78:	48 8b 05 79 07 01 00 	mov    0x10779(%rip),%rax        # 216f8 <g_72>
   10f7f:	48 8b 00             	mov    (%rax),%rax
   10f82:	48 89 c6             	mov    %rax,%rsi
   10f85:	bf 00 00 00 00       	mov    $0x0,%edi
   10f8a:	e8 19 89 ff ff       	callq  98a8 <safe_sub_func_int64_t_s_s>
   10f8f:	48 89 c2             	mov    %rax,%rdx
   10f92:	48 8d 05 f7 1c 01 00 	lea    0x11cf7(%rip),%rax        # 22c90 <g_66>
   10f99:	48 8b 00             	mov    (%rax),%rax
   10f9c:	89 10                	mov    %edx,(%rax)
   10f9e:	8b 00                	mov    (%rax),%eax
   10fa0:	0f b6 c0             	movzbl %al,%eax
   10fa3:	be 06 00 00 00       	mov    $0x6,%esi
   10fa8:	89 c7                	mov    %eax,%edi
   10faa:	e8 9d 8c ff ff       	callq  9c4c <safe_lshift_func_uint8_t_u_u>
   10faf:	0f b6 c0             	movzbl %al,%eax
   10fb2:	39 85 90 e2 ff ff    	cmp    %eax,-0x1d70(%rbp)
   10fb8:	0f 9e c0             	setle  %al
   10fbb:	0f b6 c0             	movzbl %al,%eax
   10fbe:	be 56 00 00 00       	mov    $0x56,%esi
   10fc3:	89 c7                	mov    %eax,%edi
   10fc5:	e8 90 8b ff ff       	callq  9b5a <safe_add_func_uint8_t_u_u>
   10fca:	0f b6 d0             	movzbl %al,%edx
   10fcd:	8b 05 ad e0 00 00    	mov    0xe0ad(%rip),%eax        # 1f080 <g_237>
   10fd3:	21 d0                	and    %edx,%eax
   10fd5:	89 c3                	mov    %eax,%ebx
   10fd7:	0f b6 05 9a e0 00 00 	movzbl 0xe09a(%rip),%eax        # 1f078 <g_155>
   10fde:	0f b6 d0             	movzbl %al,%edx
   10fe1:	48 8b 85 88 e4 ff ff 	mov    -0x1b78(%rbp),%rax
   10fe8:	66 89 10             	mov    %dx,(%rax)
   10feb:	48 8b 85 88 e4 ff ff 	mov    -0x1b78(%rbp),%rax
   10ff2:	0f b7 00             	movzwl (%rax),%eax
   10ff5:	98                   	cwtl   
   10ff6:	be 0c 00 00 00       	mov    $0xc,%esi
   10ffb:	89 c7                	mov    %eax,%edi
   10ffd:	e8 61 85 ff ff       	callq  9563 <safe_rshift_func_int16_t_s_u>
   11002:	0f b6 c0             	movzbl %al,%eax
   11005:	89 de                	mov    %ebx,%esi
   11007:	89 c7                	mov    %eax,%edi
   11009:	e8 7f 8c ff ff       	callq  9c8d <safe_rshift_func_uint8_t_u_s>
   1100e:	b8 01 00 00 00       	mov    $0x1,%eax
   11013:	eb 05                	jmp    1101a <func_57+0x178a>
   11015:	b8 00 00 00 00       	mov    $0x0,%eax
   1101a:	0f be c0             	movsbl %al,%eax
   1101d:	89 c6                	mov    %eax,%esi
   1101f:	bf ff ff ff ff       	mov    $0xffffffff,%edi
   11024:	e8 08 82 ff ff       	callq  9231 <safe_mod_func_int8_t_s_s>
   11029:	b8 01 00 00 00       	mov    $0x1,%eax
   1102e:	48 8b 95 60 ed ff ff 	mov    -0x12a0(%rbp),%rdx
   11035:	48 98                	cltq   
   11037:	48 21 d0             	and    %rdx,%rax
   1103a:	48 89 85 60 ed ff ff 	mov    %rax,-0x12a0(%rbp)
   11041:	48 c7 05 dc df 00 00 	movq   $0x0,0xdfdc(%rip)        # 1f028 <g_35>
   11048:	00 00 00 00 
   1104c:	e9 cd 05 00 00       	jmpq   1161e <func_57+0x1d8e>
   11051:	c7 85 a8 e3 ff ff 70 	movl   $0x4e5a0070,-0x1c58(%rbp)
   11058:	00 5a 4e 
   1105b:	48 8d 05 16 e0 00 00 	lea    0xe016(%rip),%rax        # 1f078 <g_155>
   11062:	48 89 85 90 ef ff ff 	mov    %rax,-0x1070(%rbp)
   11069:	48 8d 05 f0 df 00 00 	lea    0xdff0(%rip),%rax        # 1f060 <g_56>
   11070:	48 89 85 98 ef ff ff 	mov    %rax,-0x1068(%rbp)
   11077:	48 8d 05 fa df 00 00 	lea    0xdffa(%rip),%rax        # 1f078 <g_155>
   1107e:	48 89 85 a0 ef ff ff 	mov    %rax,-0x1060(%rbp)
   11085:	48 c7 85 a8 ef ff ff 	movq   $0x0,-0x1058(%rbp)
   1108c:	00 00 00 00 
   11090:	48 c7 85 b0 ef ff ff 	movq   $0x0,-0x1050(%rbp)
   11097:	00 00 00 00 
   1109b:	48 8d 05 d6 df 00 00 	lea    0xdfd6(%rip),%rax        # 1f078 <g_155>
   110a2:	48 89 85 b8 ef ff ff 	mov    %rax,-0x1048(%rbp)
   110a9:	48 8d 05 b0 df 00 00 	lea    0xdfb0(%rip),%rax        # 1f060 <g_56>
   110b0:	48 89 85 c0 ef ff ff 	mov    %rax,-0x1040(%rbp)
   110b7:	48 8d 05 ba df 00 00 	lea    0xdfba(%rip),%rax        # 1f078 <g_155>
   110be:	48 89 85 c8 ef ff ff 	mov    %rax,-0x1038(%rbp)
   110c5:	48 c7 85 d0 ef ff ff 	movq   $0x0,-0x1030(%rbp)
   110cc:	00 00 00 00 
   110d0:	48 c7 85 d8 ef ff ff 	movq   $0x0,-0x1028(%rbp)
   110d7:	00 00 00 00 
   110db:	48 c7 85 c0 e5 ff ff 	movq   $0x0,-0x1a40(%rbp)
   110e2:	00 00 00 00 
   110e6:	c7 85 c0 eb ff ff 7c 	movl   $0xd1b4ff7c,-0x1440(%rbp)
   110ed:	ff b4 d1 
   110f0:	c7 85 c4 eb ff ff 01 	movl   $0x1,-0x143c(%rbp)
   110f7:	00 00 00 
   110fa:	c7 85 c8 eb ff ff 7c 	movl   $0xd1b4ff7c,-0x1438(%rbp)
   11101:	ff b4 d1 
   11104:	c7 85 cc eb ff ff 7c 	movl   $0xd1b4ff7c,-0x1434(%rbp)
   1110b:	ff b4 d1 
   1110e:	c7 85 d0 eb ff ff 01 	movl   $0x1,-0x1430(%rbp)
   11115:	00 00 00 
   11118:	c7 85 d4 eb ff ff 7c 	movl   $0xd1b4ff7c,-0x142c(%rbp)
   1111f:	ff b4 d1 
   11122:	c7 85 d8 eb ff ff 7c 	movl   $0xd1b4ff7c,-0x1428(%rbp)
   11129:	ff b4 d1 
   1112c:	c7 85 dc eb ff ff 01 	movl   $0x1,-0x1424(%rbp)
   11133:	00 00 00 
   11136:	48 8b 05 eb de 00 00 	mov    0xdeeb(%rip),%rax        # 1f028 <g_35>
   1113d:	4c 8b a4 c5 30 ed ff 	mov    -0x12d0(%rbp,%rax,8),%r12
   11144:	ff 
   11145:	83 bd 90 e2 ff ff 00 	cmpl   $0x0,-0x1d70(%rbp)
   1114c:	75 16                	jne    11164 <func_57+0x18d4>
   1114e:	48 8b 95 30 ed ff ff 	mov    -0x12d0(%rbp),%rdx
   11155:	48 8b 85 60 ed ff ff 	mov    -0x12a0(%rbp),%rax
   1115c:	48 09 d0             	or     %rdx,%rax
   1115f:	48 85 c0             	test   %rax,%rax
   11162:	74 08                	je     1116c <func_57+0x18dc>
   11164:	41 bd 01 00 00 00    	mov    $0x1,%r13d
   1116a:	eb 06                	jmp    11172 <func_57+0x18e2>
   1116c:	41 bd 00 00 00 00    	mov    $0x0,%r13d
   11172:	8b 85 90 e2 ff ff    	mov    -0x1d70(%rbp),%eax
   11178:	0f b6 d8             	movzbl %al,%ebx
   1117b:	8b 05 f3 de 00 00    	mov    0xdef3(%rip),%eax        # 1f074 <g_106>
   11181:	c7 85 94 e2 ff ff 01 	movl   $0x1,-0x1d6c(%rbp)
   11188:	00 00 00 
   1118b:	8b 95 94 e2 ff ff    	mov    -0x1d6c(%rbp),%edx
   11191:	48 8d 05 f8 1a 01 00 	lea    0x11af8(%rip),%rax        # 22c90 <g_66>
   11198:	48 8b 00             	mov    (%rax),%rax
   1119b:	8b 00                	mov    (%rax),%eax
   1119d:	31 d0                	xor    %edx,%eax
   1119f:	89 c6                	mov    %eax,%esi
   111a1:	bf 00 00 00 00       	mov    $0x0,%edi
   111a6:	e8 21 85 ff ff       	callq  96cc <safe_mod_func_int32_t_s_s>
   111ab:	89 c2                	mov    %eax,%edx
   111ad:	48 8b 85 70 e5 ff ff 	mov    -0x1a90(%rbp),%rax
   111b4:	66 89 10             	mov    %dx,(%rax)
   111b7:	48 8b 85 70 e5 ff ff 	mov    -0x1a90(%rbp),%rax
   111be:	0f b7 00             	movzwl (%rax),%eax
   111c1:	89 c2                	mov    %eax,%edx
   111c3:	8b 85 e0 e2 ff ff    	mov    -0x1d20(%rbp),%eax
   111c9:	09 d0                	or     %edx,%eax
   111cb:	83 c8 ea             	or     $0xffffffea,%eax
   111ce:	0f b6 c0             	movzbl %al,%eax
   111d1:	89 de                	mov    %ebx,%esi
   111d3:	89 c7                	mov    %eax,%edi
   111d5:	e8 b9 89 ff ff       	callq  9b93 <safe_mul_func_uint8_t_u_u>
   111da:	89 c2                	mov    %eax,%edx
   111dc:	48 8b 05 ad 1a 01 00 	mov    0x11aad(%rip),%rax        # 22c90 <g_66>
   111e3:	0f b6 d2             	movzbl %dl,%edx
   111e6:	89 10                	mov    %edx,(%rax)
   111e8:	8b 00                	mov    (%rax),%eax
   111ea:	41 39 c5             	cmp    %eax,%r13d
   111ed:	0f 95 c0             	setne  %al
   111f0:	0f b6 c0             	movzbl %al,%eax
   111f3:	49 39 c4             	cmp    %rax,%r12
   111f6:	48 8d 05 93 1a 01 00 	lea    0x11a93(%rip),%rax        # 22c90 <g_66>
   111fd:	48 8d 15 8c 1a 01 00 	lea    0x11a8c(%rip),%rdx        # 22c90 <g_66>
   11204:	48 8b 00             	mov    (%rax),%rax
   11207:	48 89 02             	mov    %rax,(%rdx)
   1120a:	c7 05 6c de 00 00 02 	movl   $0x2,0xde6c(%rip)        # 1f080 <g_237>
   11211:	00 00 00 
   11214:	e9 3b 02 00 00       	jmpq   11454 <func_57+0x1bc4>
   11219:	48 8d 05 5e de 00 00 	lea    0xde5e(%rip),%rax        # 1f07e <g_234>
   11220:	48 89 85 d0 e5 ff ff 	mov    %rax,-0x1a30(%rbp)
   11227:	8b 85 e0 e2 ff ff    	mov    -0x1d20(%rbp),%eax
   1122d:	0f b6 d8             	movzbl %al,%ebx
   11230:	44 8b 25 71 de 00 00 	mov    0xde71(%rip),%r12d        # 1f0a8 <g_240+0x8>
   11237:	8b 05 43 de 00 00    	mov    0xde43(%rip),%eax        # 1f080 <g_237>
   1123d:	48 8b 15 e4 dd 00 00 	mov    0xdde4(%rip),%rdx        # 1f028 <g_35>
   11244:	89 c1                	mov    %eax,%ecx
   11246:	48 89 c8             	mov    %rcx,%rax
   11249:	48 c1 e0 02          	shl    $0x2,%rax
   1124d:	48 01 c8             	add    %rcx,%rax
   11250:	48 01 d0             	add    %rdx,%rax
   11253:	8b 8c 85 80 ea ff ff 	mov    -0x1580(%rbp,%rax,4),%ecx
   1125a:	48 8b 95 c8 ef ff ff 	mov    -0x1038(%rbp),%rdx
   11261:	48 8b 85 68 e5 ff ff 	mov    -0x1a98(%rbp),%rax
   11268:	48 89 10             	mov    %rdx,(%rax)
   1126b:	48 8b 85 68 e5 ff ff 	mov    -0x1a98(%rbp),%rax
   11272:	48 8b 00             	mov    (%rax),%rax
   11275:	48 39 85 b8 e5 ff ff 	cmp    %rax,-0x1a48(%rbp)
   1127c:	0f 95 c0             	setne  %al
   1127f:	0f b6 c0             	movzbl %al,%eax
   11282:	39 c1                	cmp    %eax,%ecx
   11284:	74 14                	je     1129a <func_57+0x1a0a>
   11286:	48 8b 05 7b 04 01 00 	mov    0x1047b(%rip),%rax        # 21708 <g_167>
   1128d:	8b 00                	mov    (%rax),%eax
   1128f:	85 c0                	test   %eax,%eax
   11291:	74 07                	je     1129a <func_57+0x1a0a>
   11293:	be 01 00 00 00       	mov    $0x1,%esi
   11298:	eb 05                	jmp    1129f <func_57+0x1a0f>
   1129a:	be 00 00 00 00       	mov    $0x0,%esi
   1129f:	48 8b 15 82 dd 00 00 	mov    0xdd82(%rip),%rdx        # 1f028 <g_35>
   112a6:	48 8b 0d 7b dd 00 00 	mov    0xdd7b(%rip),%rcx        # 1f028 <g_35>
   112ad:	48 89 d0             	mov    %rdx,%rax
   112b0:	48 c1 e0 02          	shl    $0x2,%rax
   112b4:	48 01 d0             	add    %rdx,%rax
   112b7:	48 01 c8             	add    %rcx,%rax
   112ba:	8b 84 85 80 ea ff ff 	mov    -0x1580(%rbp,%rax,4),%eax
   112c1:	89 c7                	mov    %eax,%edi
   112c3:	e8 3d 83 ff ff       	callq  9605 <safe_sub_func_int32_t_s_s>
   112c8:	0f be c0             	movsbl %al,%eax
   112cb:	be 0e 00 00 00       	mov    $0xe,%esi
   112d0:	89 c7                	mov    %eax,%edi
   112d2:	e8 fd 7e ff ff       	callq  91d4 <safe_add_func_int8_t_s_s>
   112d7:	80 bd b4 e2 ff ff 51 	cmpb   $0x51,-0x1d4c(%rbp)
   112de:	7f 08                	jg     112e8 <func_57+0x1a58>
   112e0:	8b 05 86 dd 00 00    	mov    0xdd86(%rip),%eax        # 1f06c <g_98>
   112e6:	85 c0                	test   %eax,%eax
   112e8:	8b 85 94 e2 ff ff    	mov    -0x1d6c(%rbp),%eax
   112ee:	89 c2                	mov    %eax,%edx
   112f0:	48 8b 85 70 e5 ff ff 	mov    -0x1a90(%rbp),%rax
   112f7:	66 89 10             	mov    %dx,(%rax)
   112fa:	48 8b 85 70 e5 ff ff 	mov    -0x1a90(%rbp),%rax
   11301:	0f b7 10             	movzwl (%rax),%edx
   11304:	48 8b 85 d0 e5 ff ff 	mov    -0x1a30(%rbp),%rax
   1130b:	0f b7 00             	movzwl (%rax),%eax
   1130e:	31 c2                	xor    %eax,%edx
   11310:	48 8b 85 d0 e5 ff ff 	mov    -0x1a30(%rbp),%rax
   11317:	66 89 10             	mov    %dx,(%rax)
   1131a:	8b 05 68 19 01 00    	mov    0x11968(%rip),%eax        # 22c88 <g_3>
   11320:	83 c8 01             	or     $0x1,%eax
   11323:	89 c2                	mov    %eax,%edx
   11325:	0f b6 05 34 dd 00 00 	movzbl 0xdd34(%rip),%eax        # 1f060 <g_56>
   1132c:	31 d0                	xor    %edx,%eax
   1132e:	0f b6 c0             	movzbl %al,%eax
   11331:	44 89 e6             	mov    %r12d,%esi
   11334:	89 c7                	mov    %eax,%edi
   11336:	e8 ca 88 ff ff       	callq  9c05 <safe_lshift_func_uint8_t_u_s>
   1133b:	48 8b 85 70 e4 ff ff 	mov    -0x1b90(%rbp),%rax
   11342:	48 85 c0             	test   %rax,%rax
   11345:	0f 95 c0             	setne  %al
   11348:	0f b6 d0             	movzbl %al,%edx
   1134b:	48 8b 85 90 e4 ff ff 	mov    -0x1b70(%rbp),%rax
   11352:	48 89 10             	mov    %rdx,(%rax)
   11355:	bf 01 00 00 00       	mov    $0x1,%edi
   1135a:	e8 b7 84 ff ff       	callq  9816 <safe_unary_minus_func_int64_t_s>
   1135f:	48 0f be 95 b4 e2 ff 	movsbq -0x1d4c(%rbp),%rdx
   11366:	ff 
   11367:	48 39 d0             	cmp    %rdx,%rax
   1136a:	80 bd b4 e2 ff ff 00 	cmpb   $0x0,-0x1d4c(%rbp)
   11371:	0f 95 c0             	setne  %al
   11374:	0f b6 c0             	movzbl %al,%eax
   11377:	89 de                	mov    %ebx,%esi
   11379:	89 c7                	mov    %eax,%edi
   1137b:	e8 13 88 ff ff       	callq  9b93 <safe_mul_func_uint8_t_u_u>
   11380:	8b 05 fa dc 00 00    	mov    0xdcfa(%rip),%eax        # 1f080 <g_237>
   11386:	83 c0 01             	add    $0x1,%eax
   11389:	48 8b 15 98 dc 00 00 	mov    0xdc98(%rip),%rdx        # 1f028 <g_35>
   11390:	89 c1                	mov    %eax,%ecx
   11392:	48 89 c8             	mov    %rcx,%rax
   11395:	48 c1 e0 02          	shl    $0x2,%rax
   11399:	48 01 c8             	add    %rcx,%rax
   1139c:	48 01 d0             	add    %rdx,%rax
   1139f:	8b 84 85 80 ea ff ff 	mov    -0x1580(%rbp,%rax,4),%eax
   113a6:	89 c2                	mov    %eax,%edx
   113a8:	48 8b 85 b0 e5 ff ff 	mov    -0x1a50(%rbp),%rax
   113af:	66 89 10             	mov    %dx,(%rax)
   113b2:	48 8b 85 b0 e5 ff ff 	mov    -0x1a50(%rbp),%rax
   113b9:	0f b7 00             	movzwl (%rax),%eax
   113bc:	98                   	cwtl   
   113bd:	89 85 a8 e3 ff ff    	mov    %eax,-0x1c58(%rbp)
   113c3:	83 bd a8 e3 ff ff 00 	cmpl   $0x0,-0x1c58(%rbp)
   113ca:	74 2e                	je     113fa <func_57+0x1b6a>
   113cc:	8b 05 ae dc 00 00    	mov    0xdcae(%rip),%eax        # 1f080 <g_237>
   113d2:	48 8b 15 4f dc 00 00 	mov    0xdc4f(%rip),%rdx        # 1f028 <g_35>
   113d9:	89 c1                	mov    %eax,%ecx
   113db:	48 89 c8             	mov    %rcx,%rax
   113de:	48 c1 e0 02          	shl    $0x2,%rax
   113e2:	48 01 c8             	add    %rcx,%rax
   113e5:	48 01 d0             	add    %rdx,%rax
   113e8:	8b 84 85 80 ea ff ff 	mov    -0x1580(%rbp,%rax,4),%eax
   113ef:	85 c0                	test   %eax,%eax
   113f1:	74 07                	je     113fa <func_57+0x1b6a>
   113f3:	b8 01 00 00 00       	mov    $0x1,%eax
   113f8:	eb 05                	jmp    113ff <func_57+0x1b6f>
   113fa:	b8 00 00 00 00       	mov    $0x0,%eax
   113ff:	0c e3                	or     $0xe3,%al
   11401:	48 63 d0             	movslq %eax,%rdx
   11404:	48 8b 05 bd dc 00 00 	mov    0xdcbd(%rip),%rax        # 1f0c8 <g_294>
   1140b:	48 09 d0             	or     %rdx,%rax
   1140e:	48 89 05 b3 dc 00 00 	mov    %rax,0xdcb3(%rip)        # 1f0c8 <g_294>
   11415:	48 8b 05 e4 02 01 00 	mov    0x102e4(%rip),%rax        # 21700 <g_113>
   1141c:	8b 10                	mov    (%rax),%edx
   1141e:	89 10                	mov    %edx,(%rax)
   11420:	8b 05 5a dc 00 00    	mov    0xdc5a(%rip),%eax        # 1f080 <g_237>
   11426:	48 8b 15 fb db 00 00 	mov    0xdbfb(%rip),%rdx        # 1f028 <g_35>
   1142d:	89 c1                	mov    %eax,%ecx
   1142f:	48 89 c8             	mov    %rcx,%rax
   11432:	48 c1 e0 02          	shl    $0x2,%rax
   11436:	48 01 c8             	add    %rcx,%rax
   11439:	48 01 d0             	add    %rdx,%rax
   1143c:	8b 84 85 80 ea ff ff 	mov    -0x1580(%rbp,%rax,4),%eax
   11443:	85 c0                	test   %eax,%eax
   11445:	8b 05 35 dc 00 00    	mov    0xdc35(%rip),%eax        # 1f080 <g_237>
   1144b:	83 c0 01             	add    $0x1,%eax
   1144e:	89 05 2c dc 00 00    	mov    %eax,0xdc2c(%rip)        # 1f080 <g_237>
   11454:	8b 05 26 dc 00 00    	mov    0xdc26(%rip),%eax        # 1f080 <g_237>
   1145a:	83 f8 06             	cmp    $0x6,%eax
   1145d:	0f 86 b6 fd ff ff    	jbe    11219 <func_57+0x1989>
   11463:	48 8b 85 30 ed ff ff 	mov    -0x12d0(%rbp),%rax
   1146a:	0f b7 c0             	movzwl %ax,%eax
   1146d:	be 03 00 00 00       	mov    $0x3,%esi
   11472:	89 c7                	mov    %eax,%edi
   11474:	e8 45 89 ff ff       	callq  9dbe <safe_lshift_func_uint16_t_u_s>
   11479:	41 89 c5             	mov    %eax,%r13d
   1147c:	48 8b 85 68 e5 ff ff 	mov    -0x1a98(%rbp),%rax
   11483:	48 8b 10             	mov    (%rax),%rdx
   11486:	48 8b 85 80 e2 ff ff 	mov    -0x1d80(%rbp),%rax
   1148d:	48 39 c2             	cmp    %rax,%rdx
   11490:	0f 85 9d 00 00 00    	jne    11533 <func_57+0x1ca3>
   11496:	8b 85 94 e2 ff ff    	mov    -0x1d6c(%rbp),%eax
   1149c:	41 89 c4             	mov    %eax,%r12d
   1149f:	66 0f be 85 b4 e2 ff 	movsbw -0x1d4c(%rbp),%ax
   114a6:	ff 
   114a7:	8b 95 90 e2 ff ff    	mov    -0x1d70(%rbp),%edx
   114ad:	09 d0                	or     %edx,%eax
   114af:	89 c2                	mov    %eax,%edx
   114b1:	48 8b 05 70 db 00 00 	mov    0xdb70(%rip),%rax        # 1f028 <g_35>
   114b8:	21 d0                	and    %edx,%eax
   114ba:	98                   	cwtl   
   114bb:	be 73 31 00 00       	mov    $0x3173,%esi
   114c0:	89 c7                	mov    %eax,%edi
   114c2:	e8 ec 7e ff ff       	callq  93b3 <safe_add_func_int16_t_s_s>
   114c7:	89 c2                	mov    %eax,%edx
   114c9:	48 8b 85 50 e4 ff ff 	mov    -0x1bb0(%rbp),%rax
   114d0:	0f b6 00             	movzbl (%rax),%eax
   114d3:	89 c1                	mov    %eax,%ecx
   114d5:	89 d0                	mov    %edx,%eax
   114d7:	21 c1                	and    %eax,%ecx
   114d9:	89 ca                	mov    %ecx,%edx
   114db:	48 8b 85 50 e4 ff ff 	mov    -0x1bb0(%rbp),%rax
   114e2:	88 10                	mov    %dl,(%rax)
   114e4:	0f b7 05 93 db 00 00 	movzwl 0xdb93(%rip),%eax        # 1f07e <g_234>
   114eb:	0f b7 d8             	movzwl %ax,%ebx
   114ee:	0f b7 85 60 e4 ff ff 	movzwl -0x1ba0(%rbp),%eax
   114f5:	0f be c0             	movsbl %al,%eax
   114f8:	89 c6                	mov    %eax,%esi
   114fa:	bf ff ff ff ff       	mov    $0xffffffff,%edi
   114ff:	e8 0e 7d ff ff       	callq  9212 <safe_mul_func_int8_t_s_s>
   11504:	66 98                	cbtw   
   11506:	0f b7 c0             	movzwl %ax,%eax
   11509:	89 de                	mov    %ebx,%esi
   1150b:	89 c7                	mov    %eax,%edi
   1150d:	e8 7c 88 ff ff       	callq  9d8e <safe_div_func_uint16_t_u_u>
   11512:	0f b7 d0             	movzwl %ax,%edx
   11515:	8b 05 9d db 00 00    	mov    0xdb9d(%rip),%eax        # 1f0b8 <g_240+0x18>
   1151b:	09 d0                	or     %edx,%eax
   1151d:	39 85 e0 e2 ff ff    	cmp    %eax,-0x1d20(%rbp)
   11523:	0f 9f c0             	setg   %al
   11526:	0f b6 c0             	movzbl %al,%eax
   11529:	44 89 e6             	mov    %r12d,%esi
   1152c:	89 c7                	mov    %eax,%edi
   1152e:	e8 39 7e ff ff       	callq  936c <safe_rshift_func_int8_t_s_u>
   11533:	b8 01 00 00 00       	mov    $0x1,%eax
   11538:	0f b7 c0             	movzwl %ax,%eax
   1153b:	be 01 00 00 00       	mov    $0x1,%esi
   11540:	89 c7                	mov    %eax,%edi
   11542:	e8 47 88 ff ff       	callq  9d8e <safe_div_func_uint16_t_u_u>
   11547:	89 c2                	mov    %eax,%edx
   11549:	8b 85 90 e2 ff ff    	mov    -0x1d70(%rbp),%eax
   1154f:	31 d0                	xor    %edx,%eax
   11551:	44 21 e8             	and    %r13d,%eax
   11554:	0f b7 c0             	movzwl %ax,%eax
   11557:	89 c6                	mov    %eax,%esi
   11559:	bf 30 45 00 00       	mov    $0x4530,%edi
   1155e:	e8 da 87 ff ff       	callq  9d3d <safe_mul_func_uint16_t_u_u>
   11563:	48 8b 15 26 17 01 00 	mov    0x11726(%rip),%rdx        # 22c90 <g_66>
   1156a:	8b 0a                	mov    (%rdx),%ecx
   1156c:	0f b7 d0             	movzwl %ax,%edx
   1156f:	48 8b 05 1a 17 01 00 	mov    0x1171a(%rip),%rax        # 22c90 <g_66>
   11576:	09 ca                	or     %ecx,%edx
   11578:	89 10                	mov    %edx,(%rax)
   1157a:	48 8b 05 7f 01 01 00 	mov    0x1017f(%rip),%rax        # 21700 <g_113>
   11581:	8b 00                	mov    (%rax),%eax
   11583:	85 c0                	test   %eax,%eax
   11585:	0f 85 a6 00 00 00    	jne    11631 <func_57+0x1da1>
   1158b:	c7 85 90 e2 ff ff 04 	movl   $0x4,-0x1d70(%rbp)
   11592:	00 00 00 
   11595:	83 bd 90 e2 ff ff 00 	cmpl   $0x0,-0x1d70(%rbp)
   1159c:	78 6e                	js     1160c <func_57+0x1d7c>
   1159e:	c7 85 10 e9 ff ff 68 	movl   $0xb635d168,-0x16f0(%rbp)
   115a5:	d1 35 b6 
   115a8:	c7 85 14 e9 ff ff 68 	movl   $0xb635d168,-0x16ec(%rbp)
   115af:	d1 35 b6 
   115b2:	c7 85 18 e9 ff ff 68 	movl   $0xb635d168,-0x16e8(%rbp)
   115b9:	d1 35 b6 
   115bc:	c7 85 1c e9 ff ff 68 	movl   $0xb635d168,-0x16e4(%rbp)
   115c3:	d1 35 b6 
   115c6:	48 c7 85 c8 e5 ff ff 	movq   $0x8,-0x1a38(%rbp)
   115cd:	08 00 00 00 
   115d1:	0f b6 85 b5 e2 ff ff 	movzbl -0x1d4b(%rbp),%eax
   115d8:	83 c0 01             	add    $0x1,%eax
   115db:	88 85 b5 e2 ff ff    	mov    %al,-0x1d4b(%rbp)
   115e1:	48 8d 85 94 e2 ff ff 	lea    -0x1d6c(%rbp),%rax
   115e8:	48 89 85 88 e2 ff ff 	mov    %rax,-0x1d78(%rbp)
   115ef:	48 8d 15 9a 16 01 00 	lea    0x1169a(%rip),%rdx        # 22c90 <g_66>
   115f6:	48 8b 85 88 e2 ff ff 	mov    -0x1d78(%rbp),%rax
   115fd:	48 89 02             	mov    %rax,(%rdx)
   11600:	48 8d 05 61 da 00 00 	lea    0xda61(%rip),%rax        # 1f068 <g_91>
   11607:	e9 69 6e 00 00       	jmpq   18475 <func_57+0x8be5>
   1160c:	48 8b 05 15 da 00 00 	mov    0xda15(%rip),%rax        # 1f028 <g_35>
   11613:	48 83 c0 01          	add    $0x1,%rax
   11617:	48 89 05 0a da 00 00 	mov    %rax,0xda0a(%rip)        # 1f028 <g_35>
   1161e:	48 8b 05 03 da 00 00 	mov    0xda03(%rip),%rax        # 1f028 <g_35>
   11625:	48 83 f8 04          	cmp    $0x4,%rax
   11629:	0f 86 22 fa ff ff    	jbe    11051 <func_57+0x17c1>
   1162f:	eb 01                	jmp    11632 <func_57+0x1da2>
   11631:	90                   	nop
   11632:	48 8d 15 57 16 01 00 	lea    0x11657(%rip),%rdx        # 22c90 <g_66>
   11639:	48 8d 85 40 e7 ff ff 	lea    -0x18c0(%rbp),%rax
   11640:	48 89 02             	mov    %rax,(%rdx)
   11643:	e9 6b 08 00 00       	jmpq   11eb3 <func_57+0x2623>
   11648:	48 8d 05 21 da 00 00 	lea    0xda21(%rip),%rax        # 1f070 <g_105>
   1164f:	48 89 85 10 e9 ff ff 	mov    %rax,-0x16f0(%rbp)
   11656:	48 8d 05 1f da 00 00 	lea    0xda1f(%rip),%rax        # 1f07c <g_165>
   1165d:	48 89 85 18 e9 ff ff 	mov    %rax,-0x16e8(%rbp)
   11664:	48 8d 05 05 da 00 00 	lea    0xda05(%rip),%rax        # 1f070 <g_105>
   1166b:	48 89 85 20 e9 ff ff 	mov    %rax,-0x16e0(%rbp)
   11672:	48 8d 05 03 da 00 00 	lea    0xda03(%rip),%rax        # 1f07c <g_165>
   11679:	48 89 85 28 e9 ff ff 	mov    %rax,-0x16d8(%rbp)
   11680:	48 8d 05 e9 d9 00 00 	lea    0xd9e9(%rip),%rax        # 1f070 <g_105>
   11687:	48 89 85 30 e9 ff ff 	mov    %rax,-0x16d0(%rbp)
   1168e:	48 8d 05 e7 d9 00 00 	lea    0xd9e7(%rip),%rax        # 1f07c <g_165>
   11695:	48 89 85 38 e9 ff ff 	mov    %rax,-0x16c8(%rbp)
   1169c:	48 8d 05 cd d9 00 00 	lea    0xd9cd(%rip),%rax        # 1f070 <g_105>
   116a3:	48 89 85 40 e9 ff ff 	mov    %rax,-0x16c0(%rbp)
   116aa:	48 8d 05 cb d9 00 00 	lea    0xd9cb(%rip),%rax        # 1f07c <g_165>
   116b1:	48 89 85 48 e9 ff ff 	mov    %rax,-0x16b8(%rbp)
   116b8:	48 8d 05 b1 d9 00 00 	lea    0xd9b1(%rip),%rax        # 1f070 <g_105>
   116bf:	48 89 85 50 e9 ff ff 	mov    %rax,-0x16b0(%rbp)
   116c6:	c7 85 90 e3 ff ff fd 	movl   $0xfffffffd,-0x1c70(%rbp)
   116cd:	ff ff ff 
   116d0:	c7 85 30 ed ff ff ff 	movl   $0x67fe72ff,-0x12d0(%rbp)
   116d7:	72 fe 67 
   116da:	c7 85 34 ed ff ff 01 	movl   $0x6831ed01,-0x12cc(%rbp)
   116e1:	ed 31 68 
   116e4:	c7 85 38 ed ff ff 13 	movl   $0xfe93ef13,-0x12c8(%rbp)
   116eb:	ef 93 fe 
   116ee:	c7 85 3c ed ff ff ff 	movl   $0x67fe72ff,-0x12c4(%rbp)
   116f5:	72 fe 67 
   116f8:	c7 85 40 ed ff ff 13 	movl   $0xfe93ef13,-0x12c0(%rbp)
   116ff:	ef 93 fe 
   11702:	c7 85 44 ed ff ff 01 	movl   $0x6831ed01,-0x12bc(%rbp)
   11709:	ed 31 68 
   1170c:	c7 85 48 ed ff ff ff 	movl   $0x67fe72ff,-0x12b8(%rbp)
   11713:	72 fe 67 
   11716:	c7 85 4c ed ff ff 84 	movl   $0x429bef84,-0x12b4(%rbp)
   1171d:	ef 9b 42 
   11720:	c7 85 50 ed ff ff 84 	movl   $0x429bef84,-0x12b0(%rbp)
   11727:	ef 9b 42 
   1172a:	c7 85 54 ed ff ff ff 	movl   $0x67fe72ff,-0x12ac(%rbp)
   11731:	72 fe 67 
   11734:	c7 85 58 ed ff ff 01 	movl   $0x6831ed01,-0x12a8(%rbp)
   1173b:	ed 31 68 
   1173e:	c7 85 5c ed ff ff 13 	movl   $0xfe93ef13,-0x12a4(%rbp)
   11745:	ef 93 fe 
   11748:	c7 85 60 ed ff ff ff 	movl   $0x67fe72ff,-0x12a0(%rbp)
   1174f:	72 fe 67 
   11752:	c7 85 64 ed ff ff 13 	movl   $0xfe93ef13,-0x129c(%rbp)
   11759:	ef 93 fe 
   1175c:	c7 85 68 ed ff ff 01 	movl   $0x6831ed01,-0x1298(%rbp)
   11763:	ed 31 68 
   11766:	c7 85 6c ed ff ff ff 	movl   $0x67fe72ff,-0x1294(%rbp)
   1176d:	72 fe 67 
   11770:	c7 85 70 ed ff ff 84 	movl   $0x429bef84,-0x1290(%rbp)
   11777:	ef 9b 42 
   1177a:	c7 85 74 ed ff ff 84 	movl   $0x429bef84,-0x128c(%rbp)
   11781:	ef 9b 42 
   11784:	c7 85 78 ed ff ff ff 	movl   $0x67fe72ff,-0x1288(%rbp)
   1178b:	72 fe 67 
   1178e:	c7 85 7c ed ff ff 01 	movl   $0x6831ed01,-0x1284(%rbp)
   11795:	ed 31 68 
   11798:	c7 85 80 ed ff ff 13 	movl   $0xfe93ef13,-0x1280(%rbp)
   1179f:	ef 93 fe 
   117a2:	c7 85 84 ed ff ff ff 	movl   $0x67fe72ff,-0x127c(%rbp)
   117a9:	72 fe 67 
   117ac:	c7 85 88 ed ff ff 13 	movl   $0xfe93ef13,-0x1278(%rbp)
   117b3:	ef 93 fe 
   117b6:	c7 85 8c ed ff ff 01 	movl   $0x6831ed01,-0x1274(%rbp)
   117bd:	ed 31 68 
   117c0:	c7 85 90 ed ff ff ff 	movl   $0x67fe72ff,-0x1270(%rbp)
   117c7:	72 fe 67 
   117ca:	c7 85 94 ed ff ff 84 	movl   $0x429bef84,-0x126c(%rbp)
   117d1:	ef 9b 42 
   117d4:	c7 85 98 ed ff ff 84 	movl   $0x429bef84,-0x1268(%rbp)
   117db:	ef 9b 42 
   117de:	c7 85 9c ed ff ff ff 	movl   $0x67fe72ff,-0x1264(%rbp)
   117e5:	72 fe 67 
   117e8:	c7 85 a0 ed ff ff 01 	movl   $0x6831ed01,-0x1260(%rbp)
   117ef:	ed 31 68 
   117f2:	c7 85 a4 ed ff ff 13 	movl   $0xfe93ef13,-0x125c(%rbp)
   117f9:	ef 93 fe 
   117fc:	c7 85 a8 ed ff ff ff 	movl   $0x67fe72ff,-0x1258(%rbp)
   11803:	72 fe 67 
   11806:	c7 85 ac ed ff ff 13 	movl   $0xfe93ef13,-0x1254(%rbp)
   1180d:	ef 93 fe 
   11810:	c7 85 b0 ed ff ff 01 	movl   $0x6831ed01,-0x1250(%rbp)
   11817:	ed 31 68 
   1181a:	c7 85 b4 ed ff ff ff 	movl   $0x67fe72ff,-0x124c(%rbp)
   11821:	72 fe 67 
   11824:	c7 85 b8 ed ff ff 84 	movl   $0x429bef84,-0x1248(%rbp)
   1182b:	ef 9b 42 
   1182e:	c7 85 f4 e2 ff ff 00 	movl   $0x0,-0x1d0c(%rbp)
   11835:	00 00 00 
   11838:	eb 19                	jmp    11853 <func_57+0x1fc3>
   1183a:	8b 85 f4 e2 ff ff    	mov    -0x1d0c(%rbp),%eax
   11840:	48 98                	cltq   
   11842:	66 c7 84 45 10 e8 ff 	movw   $0xe2b,-0x17f0(%rbp,%rax,2)
   11849:	ff 2b 0e 
   1184c:	83 85 f4 e2 ff ff 01 	addl   $0x1,-0x1d0c(%rbp)
   11853:	83 bd f4 e2 ff ff 05 	cmpl   $0x5,-0x1d0c(%rbp)
   1185a:	7e de                	jle    1183a <func_57+0x1faa>
   1185c:	c7 85 f4 e2 ff ff 00 	movl   $0x0,-0x1d0c(%rbp)
   11863:	00 00 00 
   11866:	eb 76                	jmp    118de <func_57+0x204e>
   11868:	c7 85 f8 e2 ff ff 00 	movl   $0x0,-0x1d08(%rbp)
   1186f:	00 00 00 
   11872:	eb 5a                	jmp    118ce <func_57+0x203e>
   11874:	c7 85 fc e2 ff ff 00 	movl   $0x0,-0x1d04(%rbp)
   1187b:	00 00 00 
   1187e:	eb 3e                	jmp    118be <func_57+0x202e>
   11880:	8b 85 fc e2 ff ff    	mov    -0x1d04(%rbp),%eax
   11886:	48 63 c8             	movslq %eax,%rcx
   11889:	8b 85 f4 e2 ff ff    	mov    -0x1d0c(%rbp),%eax
   1188f:	48 63 d0             	movslq %eax,%rdx
   11892:	8b 85 f8 e2 ff ff    	mov    -0x1d08(%rbp),%eax
   11898:	48 98                	cltq   
   1189a:	48 01 c2             	add    %rax,%rdx
   1189d:	48 89 d0             	mov    %rdx,%rax
   118a0:	48 01 c0             	add    %rax,%rax
   118a3:	48 01 d0             	add    %rdx,%rax
   118a6:	48 01 c0             	add    %rax,%rax
   118a9:	48 01 c8             	add    %rcx,%rax
   118ac:	c7 84 85 c0 eb ff ff 	movl   $0x1,-0x1440(%rbp,%rax,4)
   118b3:	01 00 00 00 
   118b7:	83 85 fc e2 ff ff 01 	addl   $0x1,-0x1d04(%rbp)
   118be:	83 bd fc e2 ff ff 05 	cmpl   $0x5,-0x1d04(%rbp)
   118c5:	7e b9                	jle    11880 <func_57+0x1ff0>
   118c7:	83 85 f8 e2 ff ff 01 	addl   $0x1,-0x1d08(%rbp)
   118ce:	83 bd f8 e2 ff ff 00 	cmpl   $0x0,-0x1d08(%rbp)
   118d5:	7e 9d                	jle    11874 <func_57+0x1fe4>
   118d7:	83 85 f4 e2 ff ff 01 	addl   $0x1,-0x1d0c(%rbp)
   118de:	83 bd f4 e2 ff ff 02 	cmpl   $0x2,-0x1d0c(%rbp)
   118e5:	7e 81                	jle    11868 <func_57+0x1fd8>
   118e7:	c6 85 b5 e2 ff ff 00 	movb   $0x0,-0x1d4b(%rbp)
   118ee:	80 bd b5 e2 ff ff 01 	cmpb   $0x1,-0x1d4b(%rbp)
   118f5:	77 0c                	ja     11903 <func_57+0x2073>
   118f7:	48 8d 05 6a d7 00 00 	lea    0xd76a(%rip),%rax        # 1f068 <g_91>
   118fe:	e9 72 6b 00 00       	jmpq   18475 <func_57+0x8be5>
   11903:	0f b7 15 5e d7 00 00 	movzwl 0xd75e(%rip),%edx        # 1f068 <g_91>
   1190a:	48 8b 85 10 e4 ff ff 	mov    -0x1bf0(%rbp),%rax
   11911:	88 10                	mov    %dl,(%rax)
   11913:	48 8b 85 70 e4 ff ff 	mov    -0x1b90(%rbp),%rax
   1191a:	48 8b 00             	mov    (%rax),%rax
   1191d:	8b 18                	mov    (%rax),%ebx
   1191f:	8d 53 01             	lea    0x1(%rbx),%edx
   11922:	89 10                	mov    %edx,(%rax)
   11924:	8b 85 94 e2 ff ff    	mov    -0x1d6c(%rbp),%eax
   1192a:	89 c2                	mov    %eax,%edx
   1192c:	0f b7 05 4b d7 00 00 	movzwl 0xd74b(%rip),%eax        # 1f07e <g_234>
   11933:	0f b7 c0             	movzwl %ax,%eax
   11936:	89 d6                	mov    %edx,%esi
   11938:	89 c7                	mov    %eax,%edi
   1193a:	e8 be 85 ff ff       	callq  9efd <safe_mod_func_uint32_t_u_u>
   1193f:	8b 95 e0 e2 ff ff    	mov    -0x1d20(%rbp),%edx
   11945:	39 d0                	cmp    %edx,%eax
   11947:	0f 95 c0             	setne  %al
   1194a:	0f b6 d0             	movzbl %al,%edx
   1194d:	8b 85 94 e2 ff ff    	mov    -0x1d6c(%rbp),%eax
   11953:	98                   	cwtl   
   11954:	89 d6                	mov    %edx,%esi
   11956:	89 c7                	mov    %eax,%edi
   11958:	e8 98 7a ff ff       	callq  93f5 <safe_mul_func_int16_t_s_s>
   1195d:	98                   	cwtl   
   1195e:	39 c3                	cmp    %eax,%ebx
   11960:	0f 97 c0             	seta   %al
   11963:	0f b6 c0             	movzbl %al,%eax
   11966:	48 89 c6             	mov    %rax,%rsi
   11969:	bf 01 00 00 00       	mov    $0x1,%edi
   1196e:	e8 d8 86 ff ff       	callq  a04b <safe_sub_func_uint64_t_u_u>
   11973:	ba 93 f5 10 99       	mov    $0x9910f593,%edx
   11978:	48 39 d0             	cmp    %rdx,%rax
   1197b:	b8 01 00 00 00       	mov    $0x1,%eax
   11980:	39 85 e0 e2 ff ff    	cmp    %eax,-0x1d20(%rbp)
   11986:	0f 9c c0             	setl   %al
   11989:	0f b6 c0             	movzbl %al,%eax
   1198c:	be 03 00 00 00       	mov    $0x3,%esi
   11991:	89 c7                	mov    %eax,%edi
   11993:	e8 9d 79 ff ff       	callq  9335 <safe_rshift_func_int8_t_s_s>
   11998:	0f be d0             	movsbl %al,%edx
   1199b:	0f b7 85 16 e8 ff ff 	movzwl -0x17ea(%rbp),%eax
   119a2:	0f b7 c0             	movzwl %ax,%eax
   119a5:	39 c2                	cmp    %eax,%edx
   119a7:	0f 8d 59 04 00 00    	jge    11e06 <func_57+0x2576>
   119ad:	48 8d 85 90 ef ff ff 	lea    -0x1070(%rbp),%rax
   119b4:	48 8d 15 05 97 00 00 	lea    0x9705(%rip),%rdx        # 1b0c0 <g_5313+0x104c>
   119bb:	b9 28 00 00 00       	mov    $0x28,%ecx
   119c0:	48 89 c7             	mov    %rax,%rdi
   119c3:	48 89 d6             	mov    %rdx,%rsi
   119c6:	f3 48 a5             	rep movsq %ds:(%rsi),%es:(%rdi)
   119c9:	48 8d 85 18 e4 ff ff 	lea    -0x1be8(%rbp),%rax
   119d0:	48 89 85 a0 e5 ff ff 	mov    %rax,-0x1a60(%rbp)
   119d7:	48 8d 85 20 f1 ff ff 	lea    -0xee0(%rbp),%rax
   119de:	48 8d 15 1b 98 00 00 	lea    0x981b(%rip),%rdx        # 1b200 <g_5313+0x118c>
   119e5:	b9 5e 00 00 00       	mov    $0x5e,%ecx
   119ea:	48 89 c7             	mov    %rax,%rdi
   119ed:	48 89 d6             	mov    %rdx,%rsi
   119f0:	f3 48 a5             	rep movsq %ds:(%rsi),%es:(%rdi)
   119f3:	48 89 f2             	mov    %rsi,%rdx
   119f6:	48 89 f8             	mov    %rdi,%rax
   119f9:	8b 0a                	mov    (%rdx),%ecx
   119fb:	89 08                	mov    %ecx,(%rax)
   119fd:	48 c7 85 80 e8 ff ff 	movq   $0x0,-0x1780(%rbp)
   11a04:	00 00 00 00 
   11a08:	48 c7 85 88 e8 ff ff 	movq   $0x0,-0x1778(%rbp)
   11a0f:	00 00 00 00 
   11a13:	48 c7 85 90 e8 ff ff 	movq   $0x0,-0x1770(%rbp)
   11a1a:	00 00 00 00 
   11a1e:	48 c7 85 98 e8 ff ff 	movq   $0x0,-0x1768(%rbp)
   11a25:	00 00 00 00 
   11a29:	48 c7 85 a0 e8 ff ff 	movq   $0x0,-0x1760(%rbp)
   11a30:	00 00 00 00 
   11a34:	8b 85 48 e4 ff ff    	mov    -0x1bb8(%rbp),%eax
   11a3a:	0f b7 d8             	movzwl %ax,%ebx
   11a3d:	0f b7 85 60 e4 ff ff 	movzwl -0x1ba0(%rbp),%eax
   11a44:	44 0f bf e0          	movswl %ax,%r12d
   11a48:	8b 85 c8 f0 ff ff    	mov    -0xf38(%rbp),%eax
   11a4e:	44 0f b6 e8          	movzbl %al,%r13d
   11a52:	0f b7 85 16 e8 ff ff 	movzwl -0x17ea(%rbp),%eax
   11a59:	44 0f b7 f0          	movzwl %ax,%r14d
   11a5d:	8b 85 90 e2 ff ff    	mov    -0x1d70(%rbp),%eax
   11a63:	44 0f be f8          	movsbl %al,%r15d
   11a67:	8b 85 dc ef ff ff    	mov    -0x1024(%rbp),%eax
   11a6d:	0f be c0             	movsbl %al,%eax
   11a70:	89 85 7c e2 ff ff    	mov    %eax,-0x1d84(%rbp)
   11a76:	0f b7 85 18 e8 ff ff 	movzwl -0x17e8(%rbp),%eax
   11a7d:	66 85 c0             	test   %ax,%ax
   11a80:	74 5e                	je     11ae0 <func_57+0x2250>
   11a82:	48 8b 95 30 e9 ff ff 	mov    -0x16d0(%rbp),%rdx
   11a89:	48 8b 85 80 e2 ff ff 	mov    -0x1d80(%rbp),%rax
   11a90:	48 39 c2             	cmp    %rax,%rdx
   11a93:	8b 95 dc ef ff ff    	mov    -0x1024(%rbp),%edx
   11a99:	0f b7 85 16 e8 ff ff 	movzwl -0x17ea(%rbp),%eax
   11aa0:	0f b7 c0             	movzwl %ax,%eax
   11aa3:	31 d0                	xor    %edx,%eax
   11aa5:	89 c0                	mov    %eax,%eax
   11aa7:	48 be 5d 1f dc b4 d7 	movabs $0x747392d7b4dc1f5d,%rsi
   11aae:	92 73 74 
   11ab1:	48 89 c7             	mov    %rax,%rdi
   11ab4:	e8 ef 7d ff ff       	callq  98a8 <safe_sub_func_int64_t_s_s>
   11ab9:	48 89 c2             	mov    %rax,%rdx
   11abc:	48 8b 05 35 fc 00 00 	mov    0xfc35(%rip),%rax        # 216f8 <g_72>
   11ac3:	48 8b 00             	mov    (%rax),%rax
   11ac6:	48 39 c2             	cmp    %rax,%rdx
   11ac9:	0f 97 c0             	seta   %al
   11acc:	0f b6 d0             	movzbl %al,%edx
   11acf:	48 8b 85 70 e5 ff ff 	mov    -0x1a90(%rbp),%rax
   11ad6:	66 89 10             	mov    %dx,(%rax)
   11ad9:	b8 01 00 00 00       	mov    $0x1,%eax
   11ade:	eb 05                	jmp    11ae5 <func_57+0x2255>
   11ae0:	b8 00 00 00 00       	mov    $0x0,%eax
   11ae5:	0f b7 c0             	movzwl %ax,%eax
   11ae8:	be 05 00 00 00       	mov    $0x5,%esi
   11aed:	89 c7                	mov    %eax,%edi
   11aef:	e8 ca 82 ff ff       	callq  9dbe <safe_lshift_func_uint16_t_u_s>
   11af4:	48 8b 15 95 11 01 00 	mov    0x11195(%rip),%rdx        # 22c90 <g_66>
   11afb:	48 8d 05 8e 11 01 00 	lea    0x1118e(%rip),%rax        # 22c90 <g_66>
   11b02:	48 8b 00             	mov    (%rax),%rax
   11b05:	8b 12                	mov    (%rdx),%edx
   11b07:	89 10                	mov    %edx,(%rax)
   11b09:	8b 00                	mov    (%rax),%eax
   11b0b:	83 f0 01             	xor    $0x1,%eax
   11b0e:	48 98                	cltq   
   11b10:	48 ba 32 e6 32 3c 2a 	movabs $0xf5c5e2a3c32e632,%rdx
   11b17:	5e 5c 0f 
   11b1a:	48 31 c2             	xor    %rax,%rdx
   11b1d:	48 8b 85 90 e4 ff ff 	mov    -0x1b70(%rbp),%rax
   11b24:	48 89 10             	mov    %rdx,(%rax)
   11b27:	48 8b 85 90 e4 ff ff 	mov    -0x1b70(%rbp),%rax
   11b2e:	48 8b 10             	mov    (%rax),%rdx
   11b31:	48 8b 85 a0 e5 ff ff 	mov    -0x1a60(%rbp),%rax
   11b38:	48 8b 00             	mov    (%rax),%rax
   11b3b:	48 21 c2             	and    %rax,%rdx
   11b3e:	48 8b 85 a0 e5 ff ff 	mov    -0x1a60(%rbp),%rax
   11b45:	48 89 10             	mov    %rdx,(%rax)
   11b48:	be 07 00 00 00       	mov    $0x7,%esi
   11b4d:	bf 00 00 00 00       	mov    $0x0,%edi
   11b52:	e8 f5 80 ff ff       	callq  9c4c <safe_lshift_func_uint8_t_u_u>
   11b57:	8b b5 7c e2 ff ff    	mov    -0x1d84(%rbp),%esi
   11b5d:	bf 01 00 00 00       	mov    $0x1,%edi
   11b62:	e8 ab 76 ff ff       	callq  9212 <safe_mul_func_int8_t_s_s>
   11b67:	0f be c0             	movsbl %al,%eax
   11b6a:	44 89 fe             	mov    %r15d,%esi
   11b6d:	89 c7                	mov    %eax,%edi
   11b6f:	e8 f6 76 ff ff       	callq  926a <safe_div_func_int8_t_s_s>
   11b74:	66 98                	cbtw   
   11b76:	0f b7 c0             	movzwl %ax,%eax
   11b79:	be ff ff 00 00       	mov    $0xffff,%esi
   11b7e:	89 c7                	mov    %eax,%edi
   11b80:	e8 b8 81 ff ff       	callq  9d3d <safe_mul_func_uint16_t_u_u>
   11b85:	44 89 f6             	mov    %r14d,%esi
   11b88:	bf 01 00 00 00       	mov    $0x1,%edi
   11b8d:	e8 4f 79 ff ff       	callq  94e1 <safe_lshift_func_int16_t_s_u>
   11b92:	0f b6 c0             	movzbl %al,%eax
   11b95:	44 89 ee             	mov    %r13d,%esi
   11b98:	89 c7                	mov    %eax,%edi
   11b9a:	e8 bb 7f ff ff       	callq  9b5a <safe_add_func_uint8_t_u_u>
   11b9f:	b8 01 00 00 00       	mov    $0x1,%eax
   11ba4:	09 85 90 e3 ff ff    	or     %eax,-0x1c70(%rbp)
   11baa:	83 bd 90 e3 ff ff 00 	cmpl   $0x0,-0x1c70(%rbp)
   11bb1:	75 0c                	jne    11bbf <func_57+0x232f>
   11bb3:	0f b7 85 16 e8 ff ff 	movzwl -0x17ea(%rbp),%eax
   11bba:	66 85 c0             	test   %ax,%ax
   11bbd:	74 07                	je     11bc6 <func_57+0x2336>
   11bbf:	b8 01 00 00 00       	mov    $0x1,%eax
   11bc4:	eb 05                	jmp    11bcb <func_57+0x233b>
   11bc6:	b8 00 00 00 00       	mov    $0x0,%eax
   11bcb:	0f be c0             	movsbl %al,%eax
   11bce:	44 89 e6             	mov    %r12d,%esi
   11bd1:	89 c7                	mov    %eax,%edi
   11bd3:	e8 c9 76 ff ff       	callq  92a1 <safe_lshift_func_int8_t_s_s>
   11bd8:	8b 85 94 e2 ff ff    	mov    -0x1d6c(%rbp),%eax
   11bde:	0f b7 c0             	movzwl %ax,%eax
   11be1:	89 de                	mov    %ebx,%esi
   11be3:	89 c7                	mov    %eax,%edi
   11be5:	e8 a4 81 ff ff       	callq  9d8e <safe_div_func_uint16_t_u_u>
   11bea:	0f b7 95 60 e4 ff ff 	movzwl -0x1ba0(%rbp),%edx
   11bf1:	48 8b 85 88 e4 ff ff 	mov    -0x1b78(%rbp),%rax
   11bf8:	66 89 10             	mov    %dx,(%rax)
   11bfb:	48 8b 85 88 e4 ff ff 	mov    -0x1b78(%rbp),%rax
   11c02:	0f b7 00             	movzwl (%rax),%eax
   11c05:	98                   	cwtl   
   11c06:	0b 85 90 e2 ff ff    	or     -0x1d70(%rbp),%eax
   11c0c:	85 c0                	test   %eax,%eax
   11c0e:	0f 84 e6 01 00 00    	je     11dfa <func_57+0x256a>
   11c14:	66 c7 85 c4 e2 ff ff 	movw   $0xfffc,-0x1d3c(%rbp)
   11c1b:	fc ff 
   11c1d:	0f b7 85 c4 e2 ff ff 	movzwl -0x1d3c(%rbp),%eax
   11c24:	83 e8 01             	sub    $0x1,%eax
   11c27:	66 89 85 c4 e2 ff ff 	mov    %ax,-0x1d3c(%rbp)
   11c2e:	48 8d 15 5b 10 01 00 	lea    0x1105b(%rip),%rdx        # 22c90 <g_66>
   11c35:	48 8d 85 48 e4 ff ff 	lea    -0x1bb8(%rbp),%rax
   11c3c:	48 89 02             	mov    %rax,(%rdx)
   11c3f:	0f b6 05 32 d4 00 00 	movzbl 0xd432(%rip),%eax        # 1f078 <g_155>
   11c46:	84 c0                	test   %al,%al
   11c48:	90                   	nop
   11c49:	f3 0f 1e fa          	endbr64 
   11c4d:	48 8d 15 3c 10 01 00 	lea    0x1103c(%rip),%rdx        # 22c90 <g_66>
   11c54:	48 8d 85 94 e2 ff ff 	lea    -0x1d6c(%rbp),%rax
   11c5b:	48 89 02             	mov    %rax,(%rdx)
   11c5e:	48 8d 15 2b 10 01 00 	lea    0x1102b(%rip),%rdx        # 22c90 <g_66>
   11c65:	48 8d 85 94 e2 ff ff 	lea    -0x1d6c(%rbp),%rax
   11c6c:	48 89 02             	mov    %rax,(%rdx)
   11c6f:	8b 85 90 e2 ff ff    	mov    -0x1d70(%rbp),%eax
   11c75:	0f b6 d8             	movzbl %al,%ebx
   11c78:	8b 85 90 e2 ff ff    	mov    -0x1d70(%rbp),%eax
   11c7e:	44 0f be e0          	movsbl %al,%r12d
   11c82:	8b 85 48 e4 ff ff    	mov    -0x1bb8(%rbp),%eax
   11c88:	89 c2                	mov    %eax,%edx
   11c8a:	48 8b 85 88 e4 ff ff 	mov    -0x1b78(%rbp),%rax
   11c91:	66 89 10             	mov    %dx,(%rax)
   11c94:	0f b7 05 cd d3 00 00 	movzwl 0xd3cd(%rip),%eax        # 1f068 <g_91>
   11c9b:	44 0f b7 e8          	movzwl %ax,%r13d
   11c9f:	0f b6 05 d2 d3 00 00 	movzbl 0xd3d2(%rip),%eax        # 1f078 <g_155>
   11ca6:	0f b6 d0             	movzbl %al,%edx
   11ca9:	48 8b 05 b0 00 01 00 	mov    0x100b0(%rip),%rax        # 21d60 <g_391>
   11cb0:	48 8d 0d c1 fc 00 00 	lea    0xfcc1(%rip),%rcx        # 21978 <g_392+0x258>
   11cb7:	48 39 c8             	cmp    %rcx,%rax
   11cba:	0f 95 c0             	setne  %al
   11cbd:	0f b6 c0             	movzbl %al,%eax
   11cc0:	89 05 ba d3 00 00    	mov    %eax,0xd3ba(%rip)        # 1f080 <g_237>
   11cc6:	8b 85 40 e7 ff ff    	mov    -0x18c0(%rbp),%eax
   11ccc:	0f b6 c0             	movzbl %al,%eax
   11ccf:	89 d6                	mov    %edx,%esi
   11cd1:	89 c7                	mov    %eax,%edi
   11cd3:	e8 b5 7f ff ff       	callq  9c8d <safe_rshift_func_uint8_t_u_s>
   11cd8:	0f b6 d0             	movzbl %al,%edx
   11cdb:	8b 05 73 d3 00 00    	mov    0xd373(%rip),%eax        # 1f054 <g_43+0x14>
   11ce1:	39 c2                	cmp    %eax,%edx
   11ce3:	0f 95 c0             	setne  %al
   11ce6:	0f b6 c0             	movzbl %al,%eax
   11ce9:	f7 d0                	not    %eax
   11ceb:	48 63 d0             	movslq %eax,%rdx
   11cee:	48 8b 85 a0 e5 ff ff 	mov    -0x1a60(%rbp),%rax
   11cf5:	48 89 10             	mov    %rdx,(%rax)
   11cf8:	48 8b 85 a0 e5 ff ff 	mov    -0x1a60(%rbp),%rax
   11cff:	48 8b 00             	mov    (%rax),%rax
   11d02:	48 be 1b 13 09 68 28 	movabs $0x7062b3286809131b,%rsi
   11d09:	b3 62 70 
   11d0c:	48 89 c7             	mov    %rax,%rdi
   11d0f:	e8 a0 7c ff ff       	callq  99b4 <safe_mod_func_int64_t_s_s>
   11d14:	89 85 ec e2 ff ff    	mov    %eax,-0x1d14(%rbp)
   11d1a:	8b 85 f8 eb ff ff    	mov    -0x1408(%rbp),%eax
   11d20:	0f be c0             	movsbl %al,%eax
   11d23:	be ff ff ff ff       	mov    $0xffffffff,%esi
   11d28:	89 c7                	mov    %eax,%edi
   11d2a:	e8 e3 74 ff ff       	callq  9212 <safe_mul_func_int8_t_s_s>
   11d2f:	8b 85 94 e2 ff ff    	mov    -0x1d6c(%rbp),%eax
   11d35:	83 f8 01             	cmp    $0x1,%eax
   11d38:	0f 96 c0             	setbe  %al
   11d3b:	0f b6 d0             	movzbl %al,%edx
   11d3e:	48 8b 05 bb f9 00 00 	mov    0xf9bb(%rip),%rax        # 21700 <g_113>
   11d45:	8b 00                	mov    (%rax),%eax
   11d47:	c1 e8 1f             	shr    $0x1f,%eax
   11d4a:	0f b6 c0             	movzbl %al,%eax
   11d4d:	39 c2                	cmp    %eax,%edx
   11d4f:	0f 9d c0             	setge  %al
   11d52:	0f b6 c0             	movzbl %al,%eax
   11d55:	44 89 ee             	mov    %r13d,%esi
   11d58:	89 c7                	mov    %eax,%edi
   11d5a:	e8 2f 80 ff ff       	callq  9d8e <safe_div_func_uint16_t_u_u>
   11d5f:	48 8b 85 88 e4 ff ff 	mov    -0x1b78(%rbp),%rax
   11d66:	66 c7 00 59 e4       	movw   $0xe459,(%rax)
   11d6b:	48 8b 85 88 e4 ff ff 	mov    -0x1b78(%rbp),%rax
   11d72:	0f b7 00             	movzwl (%rax),%eax
   11d75:	0f bf d0             	movswl %ax,%edx
   11d78:	8b 05 0a 0f 01 00    	mov    0x10f0a(%rip),%eax        # 22c88 <g_3>
   11d7e:	39 c2                	cmp    %eax,%edx
   11d80:	0f 95 c0             	setne  %al
   11d83:	0f b6 c0             	movzbl %al,%eax
   11d86:	f7 d0                	not    %eax
   11d88:	0f b7 c0             	movzwl %ax,%eax
   11d8b:	be 0c 00 00 00       	mov    $0xc,%esi
   11d90:	89 c7                	mov    %eax,%edi
   11d92:	e8 27 80 ff ff       	callq  9dbe <safe_lshift_func_uint16_t_u_s>
   11d97:	0f b7 d0             	movzwl %ax,%edx
   11d9a:	8b 85 e0 e2 ff ff    	mov    -0x1d20(%rbp),%eax
   11da0:	0f be c0             	movsbl %al,%eax
   11da3:	89 d6                	mov    %edx,%esi
   11da5:	89 c7                	mov    %eax,%edi
   11da7:	e8 c0 75 ff ff       	callq  936c <safe_rshift_func_int8_t_s_u>
   11dac:	0f be c0             	movsbl %al,%eax
   11daf:	44 89 e6             	mov    %r12d,%esi
   11db2:	89 c7                	mov    %eax,%edi
   11db4:	e8 78 74 ff ff       	callq  9231 <safe_mod_func_int8_t_s_s>
   11db9:	66 0f be d0          	movsbw %al,%dx
   11dbd:	48 8b 85 70 e5 ff ff 	mov    -0x1a90(%rbp),%rax
   11dc4:	66 89 10             	mov    %dx,(%rax)
   11dc7:	8b 85 e0 e2 ff ff    	mov    -0x1d20(%rbp),%eax
   11dcd:	89 c2                	mov    %eax,%edx
   11dcf:	48 8b 05 c2 0e 01 00 	mov    0x10ec2(%rip),%rax        # 22c98 <g_109>
   11dd6:	31 d0                	xor    %edx,%eax
   11dd8:	0f b6 c0             	movzbl %al,%eax
   11ddb:	89 de                	mov    %ebx,%esi
   11ddd:	89 c7                	mov    %eax,%edi
   11ddf:	e8 af 7d ff ff       	callq  9b93 <safe_mul_func_uint8_t_u_u>
   11de4:	8b 95 90 e7 ff ff    	mov    -0x1870(%rbp),%edx
   11dea:	0f b6 c0             	movzbl %al,%eax
   11ded:	31 d0                	xor    %edx,%eax
   11def:	89 85 90 e7 ff ff    	mov    %eax,-0x1870(%rbp)
   11df5:	e9 b9 00 00 00       	jmpq   11eb3 <func_57+0x2623>
   11dfa:	48 8b 85 88 e4 ff ff 	mov    -0x1b78(%rbp),%rax
   11e01:	e9 6f 66 00 00       	jmpq   18475 <func_57+0x8be5>
   11e06:	c7 85 00 e3 ff ff 00 	movl   $0x0,-0x1d00(%rbp)
   11e0d:	00 00 00 
   11e10:	eb 1e                	jmp    11e30 <func_57+0x25a0>
   11e12:	8b 85 00 e3 ff ff    	mov    -0x1d00(%rbp),%eax
   11e18:	48 98                	cltq   
   11e1a:	48 8d 15 07 d2 00 00 	lea    0xd207(%rip),%rdx        # 1f028 <g_35>
   11e21:	48 89 94 c5 20 f1 ff 	mov    %rdx,-0xee0(%rbp,%rax,8)
   11e28:	ff 
   11e29:	83 85 00 e3 ff ff 01 	addl   $0x1,-0x1d00(%rbp)
   11e30:	83 bd 00 e3 ff ff 09 	cmpl   $0x9,-0x1d00(%rbp)
   11e37:	7e d9                	jle    11e12 <func_57+0x2582>
   11e39:	48 8b 15 58 0e 01 00 	mov    0x10e58(%rip),%rdx        # 22c98 <g_109>
   11e40:	48 8b 85 90 e4 ff ff 	mov    -0x1b70(%rbp),%rax
   11e47:	48 89 10             	mov    %rdx,(%rax)
   11e4a:	48 8b 85 90 e4 ff ff 	mov    -0x1b70(%rbp),%rax
   11e51:	48 8b 00             	mov    (%rax),%rax
   11e54:	0f b6 d0             	movzbl %al,%edx
   11e57:	0f b7 85 14 e8 ff ff 	movzwl -0x17ec(%rbp),%eax
   11e5e:	0f b6 c0             	movzbl %al,%eax
   11e61:	89 d6                	mov    %edx,%esi
   11e63:	89 c7                	mov    %eax,%edi
   11e65:	e8 f0 7c ff ff       	callq  9b5a <safe_add_func_uint8_t_u_u>
   11e6a:	84 c0                	test   %al,%al
   11e6c:	75 2d                	jne    11e9b <func_57+0x260b>
   11e6e:	c7 85 e8 e2 ff ff 04 	movl   $0x4,-0x1d18(%rbp)
   11e75:	00 00 00 
   11e78:	8b 85 44 e7 ff ff    	mov    -0x18bc(%rbp),%eax
   11e7e:	98                   	cwtl   
   11e7f:	be 01 00 00 00       	mov    $0x1,%esi
   11e84:	89 c7                	mov    %eax,%edi
   11e86:	e8 6a 75 ff ff       	callq  93f5 <safe_mul_func_int16_t_s_s>
   11e8b:	48 8b 85 50 f1 ff ff 	mov    -0xeb0(%rbp),%rax
   11e92:	48 39 85 98 e2 ff ff 	cmp    %rax,-0x1d68(%rbp)
   11e99:	74 07                	je     11ea2 <func_57+0x2612>
   11e9b:	ba 01 00 00 00       	mov    $0x1,%edx
   11ea0:	eb 05                	jmp    11ea7 <func_57+0x2617>
   11ea2:	ba 00 00 00 00       	mov    $0x0,%edx
   11ea7:	48 8d 05 e2 0d 01 00 	lea    0x10de2(%rip),%rax        # 22c90 <g_66>
   11eae:	48 8b 00             	mov    (%rax),%rax
   11eb1:	89 10                	mov    %edx,(%rax)
   11eb3:	48 8b 85 10 e4 ff ff 	mov    -0x1bf0(%rbp),%rax
   11eba:	8b 95 90 e2 ff ff    	mov    -0x1d70(%rbp),%edx
   11ec0:	88 10                	mov    %dl,(%rax)
   11ec2:	0f b6 10             	movzbl (%rax),%edx
   11ec5:	48 8b 85 80 e5 ff ff 	mov    -0x1a80(%rbp),%rax
   11ecc:	88 10                	mov    %dl,(%rax)
   11ece:	48 8b 85 70 e5 ff ff 	mov    -0x1a90(%rbp),%rax
   11ed5:	66 c7 00 01 00       	movw   $0x1,(%rax)
   11eda:	48 8b 05 af 0d 01 00 	mov    0x10daf(%rip),%rax        # 22c90 <g_66>
   11ee1:	8b 00                	mov    (%rax),%eax
   11ee3:	89 85 10 e7 ff ff    	mov    %eax,-0x18f0(%rbp)
   11ee9:	8b 85 10 e7 ff ff    	mov    -0x18f0(%rbp),%eax
   11eef:	3d 74 74 12 82       	cmp    $0x82127474,%eax
   11ef4:	75 08                	jne    11efe <func_57+0x266e>
   11ef6:	8b 05 84 d1 00 00    	mov    0xd184(%rip),%eax        # 1f080 <g_237>
   11efc:	85 c0                	test   %eax,%eax
   11efe:	0f b7 05 63 d1 00 00 	movzwl 0xd163(%rip),%eax        # 1f068 <g_91>
   11f05:	0f b7 c0             	movzwl %ax,%eax
   11f08:	be fe ff 00 00       	mov    $0xfffe,%esi
   11f0d:	89 c7                	mov    %eax,%edi
   11f0f:	e8 7a 7e ff ff       	callq  9d8e <safe_div_func_uint16_t_u_u>
   11f14:	8b 85 48 e4 ff ff    	mov    -0x1bb8(%rbp),%eax
   11f1a:	85 c0                	test   %eax,%eax
   11f1c:	48 8b 85 88 e5 ff ff 	mov    -0x1a78(%rbp),%rax
   11f23:	48 8d 95 40 e8 ff ff 	lea    -0x17c0(%rbp),%rdx
   11f2a:	48 83 c2 30          	add    $0x30,%rdx
   11f2e:	48 89 10             	mov    %rdx,(%rax)
   11f31:	48 8b 85 88 e5 ff ff 	mov    -0x1a78(%rbp),%rax
   11f38:	48 8b 00             	mov    (%rax),%rax
   11f3b:	48 8d 95 40 e8 ff ff 	lea    -0x17c0(%rbp),%rdx
   11f42:	48 83 c2 30          	add    $0x30,%rdx
   11f46:	48 39 d0             	cmp    %rdx,%rax
   11f49:	0f 95 c0             	setne  %al
   11f4c:	0f b6 c0             	movzbl %al,%eax
   11f4f:	be 4a 00 00 00       	mov    $0x4a,%esi
   11f54:	89 c7                	mov    %eax,%edi
   11f56:	e8 1d 7c ff ff       	callq  9b78 <safe_sub_func_uint8_t_u_u>
   11f5b:	0f b6 c0             	movzbl %al,%eax
   11f5e:	21 85 ec e2 ff ff    	and    %eax,-0x1d14(%rbp)
   11f64:	8b 05 02 d1 00 00    	mov    0xd102(%rip),%eax        # 1f06c <g_98>
   11f6a:	0f b7 d8             	movzwl %ax,%ebx
   11f6d:	8b 05 01 d1 00 00    	mov    0xd101(%rip),%eax        # 1f074 <g_106>
   11f73:	8b 85 44 e7 ff ff    	mov    -0x18bc(%rbp),%eax
   11f79:	44 0f be e0          	movsbl %al,%r12d
   11f7d:	48 8d 05 0c 0d 01 00 	lea    0x10d0c(%rip),%rax        # 22c90 <g_66>
   11f84:	48 8b 00             	mov    (%rax),%rax
   11f87:	8b 00                	mov    (%rax),%eax
   11f89:	41 89 c5             	mov    %eax,%r13d
   11f8c:	48 8b 85 88 e5 ff ff 	mov    -0x1a78(%rbp),%rax
   11f93:	48 8b 00             	mov    (%rax),%rax
   11f96:	48 8d 15 db f9 00 00 	lea    0xf9db(%rip),%rdx        # 21978 <g_392+0x258>
   11f9d:	48 39 d0             	cmp    %rdx,%rax
   11fa0:	0f 95 c0             	setne  %al
   11fa3:	0f b6 c0             	movzbl %al,%eax
   11fa6:	89 c6                	mov    %eax,%esi
   11fa8:	bf 4b 9c 00 00       	mov    $0x9c4b,%edi
   11fad:	e8 8b 7d ff ff       	callq  9d3d <safe_mul_func_uint16_t_u_u>
   11fb2:	0f b7 c0             	movzwl %ax,%eax
   11fb5:	48 8b 15 1c d1 00 00 	mov    0xd11c(%rip),%rdx        # 1f0d8 <g_423>
   11fbc:	09 c2                	or     %eax,%edx
   11fbe:	8b 85 48 e4 ff ff    	mov    -0x1bb8(%rbp),%eax
   11fc4:	09 d0                	or     %edx,%eax
   11fc6:	44 89 ee             	mov    %r13d,%esi
   11fc9:	89 c7                	mov    %eax,%edi
   11fcb:	e8 00 7f ff ff       	callq  9ed0 <safe_sub_func_uint32_t_u_u>
   11fd0:	89 c2                	mov    %eax,%edx
   11fd2:	48 8b 85 98 e2 ff ff 	mov    -0x1d68(%rbp),%rax
   11fd9:	48 8b 00             	mov    (%rax),%rax
   11fdc:	21 c2                	and    %eax,%edx
   11fde:	48 8b 85 10 e4 ff ff 	mov    -0x1bf0(%rbp),%rax
   11fe5:	88 10                	mov    %dl,(%rax)
   11fe7:	0f b6 00             	movzbl (%rax),%eax
   11fea:	8b 95 a4 e7 ff ff    	mov    -0x185c(%rbp),%edx
   11ff0:	09 d0                	or     %edx,%eax
   11ff2:	0f be c0             	movsbl %al,%eax
   11ff5:	44 89 e6             	mov    %r12d,%esi
   11ff8:	89 c7                	mov    %eax,%edi
   11ffa:	e8 13 72 ff ff       	callq  9212 <safe_mul_func_int8_t_s_s>
   11fff:	8b 95 e8 e2 ff ff    	mov    -0x1d18(%rbp),%edx
   12005:	48 8b 85 90 e5 ff ff 	mov    -0x1a70(%rbp),%rax
   1200c:	89 10                	mov    %edx,(%rax)
   1200e:	48 8b 85 90 e5 ff ff 	mov    -0x1a70(%rbp),%rax
   12015:	8b 10                	mov    (%rax),%edx
   12017:	48 8b 85 98 e5 ff ff 	mov    -0x1a68(%rbp),%rax
   1201e:	89 10                	mov    %edx,(%rax)
   12020:	8b 85 94 e2 ff ff    	mov    -0x1d6c(%rbp),%eax
   12026:	48 63 d0             	movslq %eax,%rdx
   12029:	8b 85 98 e7 ff ff    	mov    -0x1868(%rbp),%eax
   1202f:	48 98                	cltq   
   12031:	48 89 d6             	mov    %rdx,%rsi
   12034:	48 89 c7             	mov    %rax,%rdi
   12037:	e8 bb 79 ff ff       	callq  99f7 <safe_div_func_int64_t_s_s>
   1203c:	0f b7 c0             	movzwl %ax,%eax
   1203f:	89 de                	mov    %ebx,%esi
   12041:	89 c7                	mov    %eax,%edi
   12043:	e8 f5 7c ff ff       	callq  9d3d <safe_mul_func_uint16_t_u_u>
   12048:	0f b7 d0             	movzwl %ax,%edx
   1204b:	8b 85 94 e2 ff ff    	mov    -0x1d6c(%rbp),%eax
   12051:	39 c2                	cmp    %eax,%edx
   12053:	0f 9d c0             	setge  %al
   12056:	0f b6 c0             	movzbl %al,%eax
   12059:	89 c6                	mov    %eax,%esi
   1205b:	bf 01 00 00 00       	mov    $0x1,%edi
   12060:	e8 4e 73 ff ff       	callq  93b3 <safe_add_func_int16_t_s_s>
   12065:	98                   	cwtl   
   12066:	31 85 e0 e2 ff ff    	xor    %eax,-0x1d20(%rbp)
   1206c:	8b 95 e0 e2 ff ff    	mov    -0x1d20(%rbp),%edx
   12072:	8b 85 68 e7 ff ff    	mov    -0x1898(%rbp),%eax
   12078:	09 d0                	or     %edx,%eax
   1207a:	89 85 68 e7 ff ff    	mov    %eax,-0x1898(%rbp)
   12080:	e9 33 23 00 00       	jmpq   143b8 <func_57+0x4b28>
   12085:	48 8d 85 50 e4 ff ff 	lea    -0x1bb0(%rbp),%rax
   1208c:	48 89 85 d8 e4 ff ff 	mov    %rax,-0x1b28(%rbp)
   12093:	c7 85 04 e3 ff ff 92 	movl   $0x8aaa2d92,-0x1cfc(%rbp)
   1209a:	2d aa 8a 
   1209d:	c7 85 08 e3 ff ff bf 	movl   $0x67a419bf,-0x1cf8(%rbp)
   120a4:	19 a4 67 
   120a7:	c7 85 74 e3 ff ff b6 	movl   $0xf7e1a8b6,-0x1c8c(%rbp)
   120ae:	a8 e1 f7 
   120b1:	c6 85 b1 e2 ff ff a7 	movb   $0xa7,-0x1d4f(%rbp)
   120b8:	66 c7 85 ba e2 ff ff 	movw   $0xfffd,-0x1d46(%rbp)
   120bf:	fd ff 
   120c1:	48 8d 85 08 e4 ff ff 	lea    -0x1bf8(%rbp),%rax
   120c8:	48 89 85 60 e4 ff ff 	mov    %rax,-0x1ba0(%rbp)
   120cf:	48 b8 b1 a1 49 82 9a 	movabs $0xafcd3f9a8249a1b1,%rax
   120d6:	3f cd af 
   120d9:	48 89 85 78 e4 ff ff 	mov    %rax,-0x1b88(%rbp)
   120e0:	c7 85 78 e3 ff ff 02 	movl   $0x2,-0x1c88(%rbp)
   120e7:	00 00 00 
   120ea:	c7 85 f0 e6 ff ff 01 	movl   $0x1,-0x1910(%rbp)
   120f1:	00 00 00 
   120f4:	c7 85 f4 e6 ff ff 01 	movl   $0x1,-0x190c(%rbp)
   120fb:	00 00 00 
   120fe:	c7 85 f8 e6 ff ff 01 	movl   $0x1,-0x1908(%rbp)
   12105:	00 00 00 
   12108:	c7 85 fc e6 ff ff 01 	movl   $0x1,-0x1904(%rbp)
   1210f:	00 00 00 
   12112:	c7 85 0c e3 ff ff 00 	movl   $0x0,-0x1cf4(%rbp)
   12119:	00 00 00 
   1211c:	eb 52                	jmp    12170 <func_57+0x28e0>
   1211e:	c7 85 10 e3 ff ff 00 	movl   $0x0,-0x1cf0(%rbp)
   12125:	00 00 00 
   12128:	eb 36                	jmp    12160 <func_57+0x28d0>
   1212a:	8b 85 10 e3 ff ff    	mov    -0x1cf0(%rbp),%eax
   12130:	48 63 c8             	movslq %eax,%rcx
   12133:	8b 85 0c e3 ff ff    	mov    -0x1cf4(%rbp),%eax
   12139:	48 63 d0             	movslq %eax,%rdx
   1213c:	48 89 d0             	mov    %rdx,%rax
   1213f:	48 c1 e0 02          	shl    $0x2,%rax
   12143:	48 01 d0             	add    %rdx,%rax
   12146:	48 8d 14 08          	lea    (%rax,%rcx,1),%rdx
   1214a:	48 8d 85 20 e4 ff ff 	lea    -0x1be0(%rbp),%rax
   12151:	48 89 84 d5 10 e9 ff 	mov    %rax,-0x16f0(%rbp,%rdx,8)
   12158:	ff 
   12159:	83 85 10 e3 ff ff 01 	addl   $0x1,-0x1cf0(%rbp)
   12160:	83 bd 10 e3 ff ff 04 	cmpl   $0x4,-0x1cf0(%rbp)
   12167:	7e c1                	jle    1212a <func_57+0x289a>
   12169:	83 85 0c e3 ff ff 01 	addl   $0x1,-0x1cf4(%rbp)
   12170:	83 bd 0c e3 ff ff 01 	cmpl   $0x1,-0x1cf4(%rbp)
   12177:	7e a5                	jle    1211e <func_57+0x288e>
   12179:	90                   	nop
   1217a:	0f b6 05 df ce 00 00 	movzbl 0xcedf(%rip),%eax        # 1f060 <g_56>
   12181:	0f b6 d0             	movzbl %al,%edx
   12184:	48 8b 85 90 e4 ff ff 	mov    -0x1b70(%rbp),%rax
   1218b:	48 89 10             	mov    %rdx,(%rax)
   1218e:	b8 01 00 00 00       	mov    $0x1,%eax
   12193:	66 89 05 ce ce 00 00 	mov    %ax,0xcece(%rip)        # 1f068 <g_91>
   1219a:	0f b6 05 db ce 00 00 	movzbl 0xcedb(%rip),%eax        # 1f07c <g_165>
   121a1:	0f be c0             	movsbl %al,%eax
   121a4:	35 fb ff 00 00       	xor    $0xfffb,%eax
   121a9:	89 c2                	mov    %eax,%edx
   121ab:	48 8b 8d 10 e4 ff ff 	mov    -0x1bf0(%rbp),%rcx
   121b2:	48 8b 85 d8 e4 ff ff 	mov    -0x1b28(%rbp),%rax
   121b9:	48 89 08             	mov    %rcx,(%rax)
   121bc:	48 8b 85 d8 e4 ff ff 	mov    -0x1b28(%rbp),%rax
   121c3:	48 8b 00             	mov    (%rax),%rax
   121c6:	48 85 c0             	test   %rax,%rax
   121c9:	0f 95 c0             	setne  %al
   121cc:	0f b6 c0             	movzbl %al,%eax
   121cf:	89 d6                	mov    %edx,%esi
   121d1:	89 c7                	mov    %eax,%edi
   121d3:	e8 8b 73 ff ff       	callq  9563 <safe_rshift_func_int16_t_s_u>
   121d8:	f7 d0                	not    %eax
   121da:	66 c1 e8 0f          	shr    $0xf,%ax
   121de:	0f b6 c0             	movzbl %al,%eax
   121e1:	8b 95 04 e3 ff ff    	mov    -0x1cfc(%rbp),%edx
   121e7:	89 d6                	mov    %edx,%esi
   121e9:	89 c7                	mov    %eax,%edi
   121eb:	e8 dc 74 ff ff       	callq  96cc <safe_mod_func_int32_t_s_s>
   121f0:	89 c2                	mov    %eax,%edx
   121f2:	48 8b 05 07 f5 00 00 	mov    0xf507(%rip),%rax        # 21700 <g_113>
   121f9:	8b 08                	mov    (%rax),%ecx
   121fb:	21 ca                	and    %ecx,%edx
   121fd:	89 10                	mov    %edx,(%rax)
   121ff:	c6 05 76 ce 00 00 02 	movb   $0x2,0xce76(%rip)        # 1f07c <g_165>
   12206:	e9 dd 03 00 00       	jmpq   125e8 <func_57+0x2d58>
   1220b:	48 8d 05 6c ce 00 00 	lea    0xce6c(%rip),%rax        # 1f07e <g_234>
   12212:	48 89 85 70 e4 ff ff 	mov    %rax,-0x1b90(%rbp)
   12219:	48 8d 05 5a ce 00 00 	lea    0xce5a(%rip),%rax        # 1f07a <g_159>
   12220:	48 89 85 48 e5 ff ff 	mov    %rax,-0x1ab8(%rbp)
   12227:	c7 85 68 e4 ff ff ff 	movl   $0xffffffff,-0x1b98(%rbp)
   1222e:	ff ff ff 
   12231:	48 c7 85 50 e5 ff ff 	movq   $0x0,-0x1ab0(%rbp)
   12238:	00 00 00 00 
   1223c:	48 8d 85 70 e4 ff ff 	lea    -0x1b90(%rbp),%rax
   12243:	48 89 85 58 e5 ff ff 	mov    %rax,-0x1aa8(%rbp)
   1224a:	c7 85 14 e3 ff ff 00 	movl   $0x0,-0x1cec(%rbp)
   12251:	00 00 00 
   12254:	eb 14                	jmp    1226a <func_57+0x29da>
   12256:	8b 85 14 e3 ff ff    	mov    -0x1cec(%rbp),%eax
   1225c:	48 98                	cltq   
   1225e:	c6 44 05 bf 8c       	movb   $0x8c,-0x41(%rbp,%rax,1)
   12263:	83 85 14 e3 ff ff 01 	addl   $0x1,-0x1cec(%rbp)
   1226a:	83 bd 14 e3 ff ff 03 	cmpl   $0x3,-0x1cec(%rbp)
   12271:	7e e3                	jle    12256 <func_57+0x29c6>
   12273:	8b 85 04 e3 ff ff    	mov    -0x1cfc(%rbp),%eax
   12279:	0f be d8             	movsbl %al,%ebx
   1227c:	8b 85 90 e2 ff ff    	mov    -0x1d70(%rbp),%eax
   12282:	44 0f bf e0          	movswl %ax,%r12d
   12286:	48 8b 95 70 e4 ff ff 	mov    -0x1b90(%rbp),%rdx
   1228d:	0f b7 02             	movzwl (%rdx),%eax
   12290:	8d 48 ff             	lea    -0x1(%rax),%ecx
   12293:	66 89 0a             	mov    %cx,(%rdx)
   12296:	48 8b 95 48 e5 ff ff 	mov    -0x1ab8(%rbp),%rdx
   1229d:	66 89 02             	mov    %ax,(%rdx)
   122a0:	48 8b 85 48 e5 ff ff 	mov    -0x1ab8(%rbp),%rax
   122a7:	0f b7 00             	movzwl (%rax),%eax
   122aa:	44 0f b7 f0          	movzwl %ax,%r14d
   122ae:	48 8b 05 4b f4 00 00 	mov    0xf44b(%rip),%rax        # 21700 <g_113>
   122b5:	8b 85 94 e2 ff ff    	mov    -0x1d6c(%rbp),%eax
   122bb:	0f be d0             	movsbl %al,%edx
   122be:	48 8b 85 80 e2 ff ff 	mov    -0x1d80(%rbp),%rax
   122c5:	48 85 c0             	test   %rax,%rax
   122c8:	0f 95 c0             	setne  %al
   122cb:	0f b6 c0             	movzbl %al,%eax
   122ce:	39 85 90 e2 ff ff    	cmp    %eax,-0x1d70(%rbp)
   122d4:	0f 95 c0             	setne  %al
   122d7:	0f b6 c0             	movzbl %al,%eax
   122da:	89 d6                	mov    %edx,%esi
   122dc:	89 c7                	mov    %eax,%edi
   122de:	e8 2f 6f ff ff       	callq  9212 <safe_mul_func_int8_t_s_s>
   122e3:	8b 05 6b cd 00 00    	mov    0xcd6b(%rip),%eax        # 1f054 <g_43+0x14>
   122e9:	0f b7 c0             	movzwl %ax,%eax
   122ec:	be 07 00 00 00       	mov    $0x7,%esi
   122f1:	89 c7                	mov    %eax,%edi
   122f3:	e8 82 7b ff ff       	callq  9e7a <safe_rshift_func_uint16_t_u_u>
   122f8:	8b 8d 94 e2 ff ff    	mov    -0x1d6c(%rbp),%ecx
   122fe:	48 8b 85 90 e4 ff ff 	mov    -0x1b70(%rbp),%rax
   12305:	48 8b 10             	mov    (%rax),%rdx
   12308:	48 63 c1             	movslq %ecx,%rax
   1230b:	48 31 c2             	xor    %rax,%rdx
   1230e:	48 8b 85 90 e4 ff ff 	mov    -0x1b70(%rbp),%rax
   12315:	48 89 10             	mov    %rdx,(%rax)
   12318:	48 8b 85 90 e4 ff ff 	mov    -0x1b70(%rbp),%rax
   1231f:	48 8b 00             	mov    (%rax),%rax
   12322:	48 89 c7             	mov    %rax,%rdi
   12325:	e8 ec 74 ff ff       	callq  9816 <safe_unary_minus_func_int64_t_s>
   1232a:	89 85 68 e4 ff ff    	mov    %eax,-0x1b98(%rbp)
   12330:	8b 85 68 e4 ff ff    	mov    -0x1b98(%rbp),%eax
   12336:	0f b6 c0             	movzbl %al,%eax
   12339:	8b 95 90 e2 ff ff    	mov    -0x1d70(%rbp),%edx
   1233f:	89 d6                	mov    %edx,%esi
   12341:	89 c7                	mov    %eax,%edi
   12343:	e8 bd 78 ff ff       	callq  9c05 <safe_lshift_func_uint8_t_u_s>
   12348:	0f b6 15 11 cd 00 00 	movzbl 0xcd11(%rip),%edx        # 1f060 <g_56>
   1234f:	21 d0                	and    %edx,%eax
   12351:	44 0f b6 e8          	movzbl %al,%r13d
   12355:	8b 85 60 e7 ff ff    	mov    -0x18a0(%rbp),%eax
   1235b:	83 f8 47             	cmp    $0x47,%eax
   1235e:	0f 9e c0             	setle  %al
   12361:	0f b6 c0             	movzbl %al,%eax
   12364:	be 07 00 00 00       	mov    $0x7,%esi
   12369:	89 c7                	mov    %eax,%edi
   1236b:	e8 4e 79 ff ff       	callq  9cbe <safe_rshift_func_uint8_t_u_u>
   12370:	0f be c0             	movsbl %al,%eax
   12373:	be 6d 00 00 00       	mov    $0x6d,%esi
   12378:	89 c7                	mov    %eax,%edi
   1237a:	e8 b2 6e ff ff       	callq  9231 <safe_mod_func_int8_t_s_s>
   1237f:	0f be c0             	movsbl %al,%eax
   12382:	44 89 ee             	mov    %r13d,%esi
   12385:	89 c7                	mov    %eax,%edi
   12387:	e8 15 6f ff ff       	callq  92a1 <safe_lshift_func_int8_t_s_s>
   1238c:	0f be c0             	movsbl %al,%eax
   1238f:	be 0e 00 00 00       	mov    $0xe,%esi
   12394:	89 c7                	mov    %eax,%edi
   12396:	e8 8f 71 ff ff       	callq  952a <safe_rshift_func_int16_t_s_s>
   1239b:	98                   	cwtl   
   1239c:	44 31 f0             	xor    %r14d,%eax
   1239f:	83 f8 05             	cmp    $0x5,%eax
   123a2:	0f 9e c0             	setle  %al
   123a5:	0f b6 c0             	movzbl %al,%eax
   123a8:	44 89 e6             	mov    %r12d,%esi
   123ab:	89 c7                	mov    %eax,%edi
   123ad:	e8 64 70 ff ff       	callq  9416 <safe_mod_func_int16_t_s_s>
   123b2:	0f bf d0             	movswl %ax,%edx
   123b5:	0f b6 05 a4 cc 00 00 	movzbl 0xcca4(%rip),%eax        # 1f060 <g_56>
   123bc:	0f b6 c0             	movzbl %al,%eax
   123bf:	39 c2                	cmp    %eax,%edx
   123c1:	0f 95 c0             	setne  %al
   123c4:	0f b6 d0             	movzbl %al,%edx
   123c7:	48 8b 05 2a f3 00 00 	mov    0xf32a(%rip),%rax        # 216f8 <g_72>
   123ce:	48 8b 00             	mov    (%rax),%rax
   123d1:	48 39 c2             	cmp    %rax,%rdx
   123d4:	0f 96 c0             	setbe  %al
   123d7:	0f b6 c0             	movzbl %al,%eax
   123da:	89 de                	mov    %ebx,%esi
   123dc:	89 c7                	mov    %eax,%edi
   123de:	e8 0f 6e ff ff       	callq  91f2 <safe_sub_func_int8_t_s_s>
   123e3:	b8 01 00 00 00       	mov    $0x1,%eax
   123e8:	0f be c0             	movsbl %al,%eax
   123eb:	be 01 00 00 00       	mov    $0x1,%esi
   123f0:	89 c7                	mov    %eax,%edi
   123f2:	e8 1b 6e ff ff       	callq  9212 <safe_mul_func_int8_t_s_s>
   123f7:	84 c0                	test   %al,%al
   123f9:	74 7b                	je     12476 <func_57+0x2be6>
   123fb:	c7 85 90 e2 ff ff 00 	movl   $0x0,-0x1d70(%rbp)
   12402:	00 00 00 
   12405:	eb 64                	jmp    1246b <func_57+0x2bdb>
   12407:	48 8b 05 f2 f2 00 00 	mov    0xf2f2(%rip),%rax        # 21700 <g_113>
   1240e:	c7 00 00 00 00 00    	movl   $0x0,(%rax)
   12414:	8b 85 68 e4 ff ff    	mov    -0x1b98(%rbp),%eax
   1241a:	33 85 90 e2 ff ff    	xor    -0x1d70(%rbp),%eax
   12420:	89 85 68 e4 ff ff    	mov    %eax,-0x1b98(%rbp)
   12426:	48 8d 05 63 08 01 00 	lea    0x10863(%rip),%rax        # 22c90 <g_66>
   1242d:	48 8d 95 60 e7 ff ff 	lea    -0x18a0(%rbp),%rdx
   12434:	48 83 c2 08          	add    $0x8,%rdx
   12438:	48 89 10             	mov    %rdx,(%rax)
   1243b:	48 8d 05 4e 08 01 00 	lea    0x1084e(%rip),%rax        # 22c90 <g_66>
   12442:	48 8d 95 60 e7 ff ff 	lea    -0x18a0(%rbp),%rdx
   12449:	48 83 c2 04          	add    $0x4,%rdx
   1244d:	48 89 10             	mov    %rdx,(%rax)
   12450:	8b 85 90 e2 ff ff    	mov    -0x1d70(%rbp),%eax
   12456:	48 98                	cltq   
   12458:	be 03 00 00 00       	mov    $0x3,%esi
   1245d:	48 89 c7             	mov    %rax,%rdi
   12460:	e8 e6 7b ff ff       	callq  a04b <safe_sub_func_uint64_t_u_u>
   12465:	89 85 90 e2 ff ff    	mov    %eax,-0x1d70(%rbp)
   1246b:	83 bd 90 e2 ff ff f7 	cmpl   $0xfffffff7,-0x1d70(%rbp)
   12472:	75 93                	jne    12407 <func_57+0x2b77>
   12474:	eb 11                	jmp    12487 <func_57+0x2bf7>
   12476:	48 8d 15 13 08 01 00 	lea    0x10813(%rip),%rdx        # 22c90 <g_66>
   1247d:	48 8d 85 68 e4 ff ff 	lea    -0x1b98(%rbp),%rax
   12484:	48 89 02             	mov    %rax,(%rdx)
   12487:	c7 85 d4 e2 ff ff 00 	movl   $0x0,-0x1d2c(%rbp)
   1248e:	00 00 00 
   12491:	eb 18                	jmp    124ab <func_57+0x2c1b>
   12493:	8b 85 d4 e2 ff ff    	mov    -0x1d2c(%rbp),%eax
   12499:	c7 84 85 00 e7 ff ff 	movl   $0x2bd3024c,-0x1900(%rbp,%rax,4)
   124a0:	4c 02 d3 2b 
   124a4:	83 85 d4 e2 ff ff 01 	addl   $0x1,-0x1d2c(%rbp)
   124ab:	83 bd d4 e2 ff ff 04 	cmpl   $0x4,-0x1d2c(%rbp)
   124b2:	76 df                	jbe    12493 <func_57+0x2c03>
   124b4:	44 8b ad 90 e7 ff ff 	mov    -0x1870(%rbp),%r13d
   124bb:	8b 85 90 e2 ff ff    	mov    -0x1d70(%rbp),%eax
   124c1:	0f bf d8             	movswl %ax,%ebx
   124c4:	0f b6 45 c2          	movzbl -0x3e(%rbp),%eax
   124c8:	44 0f be e0          	movsbl %al,%r12d
   124cc:	8b 85 48 e4 ff ff    	mov    -0x1bb8(%rbp),%eax
   124d2:	41 89 c7             	mov    %eax,%r15d
   124d5:	44 8b 35 dc cb 00 00 	mov    0xcbdc(%rip),%r14d        # 1f0b8 <g_240+0x18>
   124dc:	48 8b 85 d8 e4 ff ff 	mov    -0x1b28(%rbp),%rax
   124e3:	48 8b 00             	mov    (%rax),%rax
   124e6:	c6 00 1e             	movb   $0x1e,(%rax)
   124e9:	0f b6 00             	movzbl (%rax),%eax
   124ec:	0f b6 c0             	movzbl %al,%eax
   124ef:	09 85 08 e3 ff ff    	or     %eax,-0x1cf8(%rbp)
   124f5:	48 8b 85 58 e5 ff ff 	mov    -0x1aa8(%rbp),%rax
   124fc:	48 8b 95 48 e5 ff ff 	mov    -0x1ab8(%rbp),%rdx
   12503:	48 89 10             	mov    %rdx,(%rax)
   12506:	48 8b 85 58 e5 ff ff 	mov    -0x1aa8(%rbp),%rax
   1250d:	48 8b 10             	mov    (%rax),%rdx
   12510:	48 8b 85 f8 e8 ff ff 	mov    -0x1708(%rbp),%rax
   12517:	48 39 c2             	cmp    %rax,%rdx
   1251a:	0f 95 c0             	setne  %al
   1251d:	0f b6 c0             	movzbl %al,%eax
   12520:	be 04 00 00 00       	mov    $0x4,%esi
   12525:	89 c7                	mov    %eax,%edi
   12527:	e8 4e 79 ff ff       	callq  9e7a <safe_rshift_func_uint16_t_u_u>
   1252c:	0f b6 05 fd ca 00 00 	movzbl 0xcafd(%rip),%eax        # 1f030 <g_39>
   12533:	84 c0                	test   %al,%al
   12535:	0f 95 c0             	setne  %al
   12538:	0f b6 d0             	movzbl %al,%edx
   1253b:	48 8b 85 88 e4 ff ff 	mov    -0x1b78(%rbp),%rax
   12542:	66 89 10             	mov    %dx,(%rax)
   12545:	48 8b 85 88 e4 ff ff 	mov    -0x1b78(%rbp),%rax
   1254c:	0f b7 00             	movzwl (%rax),%eax
   1254f:	0f bf d0             	movswl %ax,%edx
   12552:	8b 85 d0 e2 ff ff    	mov    -0x1d30(%rbp),%eax
   12558:	98                   	cwtl   
   12559:	89 d6                	mov    %edx,%esi
   1255b:	89 c7                	mov    %eax,%edi
   1255d:	e8 c8 6f ff ff       	callq  952a <safe_rshift_func_int16_t_s_s>
   12562:	66 85 c0             	test   %ax,%ax
   12565:	74 07                	je     1256e <func_57+0x2cde>
   12567:	b8 01 00 00 00       	mov    $0x1,%eax
   1256c:	eb 05                	jmp    12573 <func_57+0x2ce3>
   1256e:	b8 00 00 00 00       	mov    $0x0,%eax
   12573:	44 39 f0             	cmp    %r14d,%eax
   12576:	75 0a                	jne    12582 <func_57+0x2cf2>
   12578:	8b 85 68 e4 ff ff    	mov    -0x1b98(%rbp),%eax
   1257e:	85 c0                	test   %eax,%eax
   12580:	74 07                	je     12589 <func_57+0x2cf9>
   12582:	b8 01 00 00 00       	mov    $0x1,%eax
   12587:	eb 05                	jmp    1258e <func_57+0x2cfe>
   12589:	b8 00 00 00 00       	mov    $0x0,%eax
   1258e:	89 c2                	mov    %eax,%edx
   12590:	8b 85 68 e7 ff ff    	mov    -0x1898(%rbp),%eax
   12596:	89 d6                	mov    %edx,%esi
   12598:	89 c7                	mov    %eax,%edi
   1259a:	e8 5e 79 ff ff       	callq  9efd <safe_mod_func_uint32_t_u_u>
   1259f:	3d ff ff 00 00       	cmp    $0xffff,%eax
   125a4:	8b 85 74 e3 ff ff    	mov    -0x1c8c(%rbp),%eax
   125aa:	44 89 fe             	mov    %r15d,%esi
   125ad:	89 c7                	mov    %eax,%edi
   125af:	e8 71 79 ff ff       	callq  9f25 <safe_div_func_uint32_t_u_u>
   125b4:	44 89 e6             	mov    %r12d,%esi
   125b7:	89 c7                	mov    %eax,%edi
   125b9:	e8 12 79 ff ff       	callq  9ed0 <safe_sub_func_uint32_t_u_u>
   125be:	98                   	cwtl   
   125bf:	89 de                	mov    %ebx,%esi
   125c1:	89 c7                	mov    %eax,%edi
   125c3:	e8 4e 6e ff ff       	callq  9416 <safe_mod_func_int16_t_s_s>
   125c8:	98                   	cwtl   
   125c9:	41 39 c5             	cmp    %eax,%r13d
   125cc:	0f 9f c0             	setg   %al
   125cf:	0f b6 c0             	movzbl %al,%eax
   125d2:	89 85 68 e4 ff ff    	mov    %eax,-0x1b98(%rbp)
   125d8:	0f b6 05 9d ca 00 00 	movzbl 0xca9d(%rip),%eax        # 1f07c <g_165>
   125df:	83 c0 01             	add    $0x1,%eax
   125e2:	88 05 94 ca 00 00    	mov    %al,0xca94(%rip)        # 1f07c <g_165>
   125e8:	0f b6 05 8d ca 00 00 	movzbl 0xca8d(%rip),%eax        # 1f07c <g_165>
   125ef:	3c 03                	cmp    $0x3,%al
   125f1:	0f 8f 14 fc ff ff    	jg     1220b <func_57+0x297b>
   125f7:	8b 9d e0 e2 ff ff    	mov    -0x1d20(%rbp),%ebx
   125fd:	8b 85 94 e2 ff ff    	mov    -0x1d6c(%rbp),%eax
   12603:	44 0f bf e0          	movswl %ax,%r12d
   12607:	48 83 bd 90 e4 ff ff 	cmpq   $0x0,-0x1b70(%rbp)
   1260e:	00 
   1260f:	8b 95 70 e7 ff ff    	mov    -0x1890(%rbp),%edx
   12615:	8b 85 94 e2 ff ff    	mov    -0x1d6c(%rbp),%eax
   1261b:	39 c2                	cmp    %eax,%edx
   1261d:	0f 9e c0             	setle  %al
   12620:	0f b6 c0             	movzbl %al,%eax
   12623:	8b 95 90 e2 ff ff    	mov    -0x1d70(%rbp),%edx
   12629:	89 d6                	mov    %edx,%esi
   1262b:	89 c7                	mov    %eax,%edi
   1262d:	e8 60 6e ff ff       	callq  9492 <safe_lshift_func_int16_t_s_s>
   12632:	8b 85 48 e4 ff ff    	mov    -0x1bb8(%rbp),%eax
   12638:	89 c2                	mov    %eax,%edx
   1263a:	8b 85 90 e2 ff ff    	mov    -0x1d70(%rbp),%eax
   12640:	21 c2                	and    %eax,%edx
   12642:	48 8b 85 50 e4 ff ff 	mov    -0x1bb0(%rbp),%rax
   12649:	88 10                	mov    %dl,(%rax)
   1264b:	0f b6 00             	movzbl (%rax),%eax
   1264e:	0f b6 c0             	movzbl %al,%eax
   12651:	be 00 00 00 00       	mov    $0x0,%esi
   12656:	89 c7                	mov    %eax,%edi
   12658:	e8 36 75 ff ff       	callq  9b93 <safe_mul_func_uint8_t_u_u>
   1265d:	c7 05 05 ca 00 00 00 	movl   $0x0,0xca05(%rip)        # 1f06c <g_98>
   12664:	00 00 00 
   12667:	44 89 e6             	mov    %r12d,%esi
   1266a:	bf 01 00 00 00       	mov    $0x1,%edi
   1266f:	e8 81 6d ff ff       	callq  93f5 <safe_mul_func_int16_t_s_s>
   12674:	0f b6 c0             	movzbl %al,%eax
   12677:	be 10 00 00 00       	mov    $0x10,%esi
   1267c:	89 c7                	mov    %eax,%edi
   1267e:	e8 f5 74 ff ff       	callq  9b78 <safe_sub_func_uint8_t_u_u>
   12683:	0f b6 c0             	movzbl %al,%eax
   12686:	89 c6                	mov    %eax,%esi
   12688:	bf 08 00 00 00       	mov    $0x8,%edi
   1268d:	e8 fc 76 ff ff       	callq  9d8e <safe_div_func_uint16_t_u_u>
   12692:	48 83 bd b8 e4 ff ff 	cmpq   $0x0,-0x1b48(%rbp)
   12699:	00 
   1269a:	0f 95 c0             	setne  %al
   1269d:	0f b6 c0             	movzbl %al,%eax
   126a0:	89 de                	mov    %ebx,%esi
   126a2:	89 c7                	mov    %eax,%edi
   126a4:	e8 c3 6c ff ff       	callq  936c <safe_rshift_func_int8_t_s_u>
   126a9:	be 0a 00 00 00       	mov    $0xa,%esi
   126ae:	bf d8 c6 00 00       	mov    $0xc6d8,%edi
   126b3:	e8 c2 77 ff ff       	callq  9e7a <safe_rshift_func_uint16_t_u_u>
   126b8:	48 8b 05 39 f0 00 00 	mov    0xf039(%rip),%rax        # 216f8 <g_72>
   126bf:	48 8b 00             	mov    (%rax),%rax
   126c2:	48 85 c0             	test   %rax,%rax
   126c5:	0f 94 c0             	sete   %al
   126c8:	89 c2                	mov    %eax,%edx
   126ca:	8b 85 e0 e2 ff ff    	mov    -0x1d20(%rbp),%eax
   126d0:	09 d0                	or     %edx,%eax
   126d2:	0f b6 c0             	movzbl %al,%eax
   126d5:	be 00 00 00 00       	mov    $0x0,%esi
   126da:	89 c7                	mov    %eax,%edi
   126dc:	e8 b2 74 ff ff       	callq  9b93 <safe_mul_func_uint8_t_u_u>
   126e1:	84 c0                	test   %al,%al
   126e3:	0f 84 42 1c 00 00    	je     1432b <func_57+0x4a9b>
   126e9:	c6 85 b2 e2 ff ff d0 	movb   $0xd0,-0x1d4e(%rbp)
   126f0:	c7 85 18 e3 ff ff ae 	movl   $0x7b12d7ae,-0x1ce8(%rbp)
   126f7:	d7 12 7b 
   126fa:	48 8d 05 f7 ef 00 00 	lea    0xeff7(%rip),%rax        # 216f8 <g_72>
   12701:	48 89 85 f0 e4 ff ff 	mov    %rax,-0x1b10(%rbp)
   12708:	c6 85 ae e2 ff ff eb 	movb   $0xeb,-0x1d52(%rbp)
   1270f:	c7 85 1c e3 ff ff 39 	movl   $0xce2c1039,-0x1ce4(%rbp)
   12716:	10 2c ce 
   12719:	48 8d 85 28 e4 ff ff 	lea    -0x1bd8(%rbp),%rax
   12720:	48 89 85 68 e4 ff ff 	mov    %rax,-0x1b98(%rbp)
   12727:	48 8d 85 18 e4 ff ff 	lea    -0x1be8(%rbp),%rax
   1272e:	48 89 85 f8 e4 ff ff 	mov    %rax,-0x1b08(%rbp)
   12735:	c7 85 7c e3 ff ff 48 	movl   $0x6d025548,-0x1c84(%rbp)
   1273c:	55 02 6d 
   1273f:	c7 85 80 e3 ff ff ff 	movl   $0xffffffff,-0x1c80(%rbp)
   12746:	ff ff ff 
   12749:	c7 85 30 ed ff ff f9 	movl   $0xfffffff9,-0x12d0(%rbp)
   12750:	ff ff ff 
   12753:	c7 85 34 ed ff ff 7e 	movl   $0xf6a01c7e,-0x12cc(%rbp)
   1275a:	1c a0 f6 
   1275d:	c7 85 38 ed ff ff 4d 	movl   $0x4288424d,-0x12c8(%rbp)
   12764:	42 88 42 
   12767:	c7 85 3c ed ff ff 02 	movl   $0x2,-0x12c4(%rbp)
   1276e:	00 00 00 
   12771:	c7 85 40 ed ff ff fd 	movl   $0xfffffffd,-0x12c0(%rbp)
   12778:	ff ff ff 
   1277b:	c7 85 44 ed ff ff 02 	movl   $0x2,-0x12bc(%rbp)
   12782:	00 00 00 
   12785:	c7 85 48 ed ff ff 4d 	movl   $0x4288424d,-0x12b8(%rbp)
   1278c:	42 88 42 
   1278f:	c7 85 4c ed ff ff 7e 	movl   $0xf6a01c7e,-0x12b4(%rbp)
   12796:	1c a0 f6 
   12799:	c7 85 50 ed ff ff 4d 	movl   $0x4288424d,-0x12b0(%rbp)
   127a0:	42 88 42 
   127a3:	c7 85 54 ed ff ff ba 	movl   $0xb1e6ddba,-0x12ac(%rbp)
   127aa:	dd e6 b1 
   127ad:	c7 85 58 ed ff ff 48 	movl   $0x7c0f8948,-0x12a8(%rbp)
   127b4:	89 0f 7c 
   127b7:	c7 85 5c ed ff ff 00 	movl   $0x0,-0x12a4(%rbp)
   127be:	00 00 00 
   127c1:	c7 85 60 ed ff ff fd 	movl   $0xfffffffd,-0x12a0(%rbp)
   127c8:	ff ff ff 
   127cb:	c7 85 64 ed ff ff 7e 	movl   $0xf6a01c7e,-0x129c(%rbp)
   127d2:	1c a0 f6 
   127d5:	c7 85 68 ed ff ff fd 	movl   $0xfffffffd,-0x1298(%rbp)
   127dc:	ff ff ff 
   127df:	c7 85 6c ed ff ff ba 	movl   $0xb1e6ddba,-0x1294(%rbp)
   127e6:	dd e6 b1 
   127e9:	c7 85 70 ed ff ff 48 	movl   $0x7c0f8948,-0x1290(%rbp)
   127f0:	89 0f 7c 
   127f3:	c7 85 74 ed ff ff 01 	movl   $0x1,-0x128c(%rbp)
   127fa:	00 00 00 
   127fd:	c7 85 78 ed ff ff 48 	movl   $0x7c0f8948,-0x1288(%rbp)
   12804:	89 0f 7c 
   12807:	c7 85 7c ed ff ff 02 	movl   $0x2,-0x1284(%rbp)
   1280e:	00 00 00 
   12811:	c7 85 80 ed ff ff f9 	movl   $0xfffffff9,-0x1280(%rbp)
   12818:	ff ff ff 
   1281b:	c7 85 84 ed ff ff 00 	movl   $0x0,-0x127c(%rbp)
   12822:	00 00 00 
   12825:	c7 85 88 ed ff ff 00 	movl   $0x0,-0x1278(%rbp)
   1282c:	00 00 00 
   1282f:	c7 85 8c ed ff ff 00 	movl   $0x0,-0x1274(%rbp)
   12836:	00 00 00 
   12839:	c7 85 90 ed ff ff 4d 	movl   $0x4288424d,-0x1270(%rbp)
   12840:	42 88 42 
   12843:	c7 85 94 ed ff ff 02 	movl   $0x2,-0x126c(%rbp)
   1284a:	00 00 00 
   1284d:	c7 85 98 ed ff ff fd 	movl   $0xfffffffd,-0x1268(%rbp)
   12854:	ff ff ff 
   12857:	c7 85 9c ed ff ff 02 	movl   $0x2,-0x1264(%rbp)
   1285e:	00 00 00 
   12861:	c7 85 a0 ed ff ff 4d 	movl   $0x4288424d,-0x1260(%rbp)
   12868:	42 88 42 
   1286b:	c7 85 a4 ed ff ff 7e 	movl   $0xf6a01c7e,-0x125c(%rbp)
   12872:	1c a0 f6 
   12875:	c7 85 a8 ed ff ff f9 	movl   $0xfffffff9,-0x1258(%rbp)
   1287c:	ff ff ff 
   1287f:	c7 85 ac ed ff ff ba 	movl   $0xb1e6ddba,-0x1254(%rbp)
   12886:	dd e6 b1 
   12889:	c7 85 b0 ed ff ff 4d 	movl   $0x4288424d,-0x1250(%rbp)
   12890:	42 88 42 
   12893:	c7 85 b4 ed ff ff 7e 	movl   $0xf6a01c7e,-0x124c(%rbp)
   1289a:	1c a0 f6 
   1289d:	c7 85 b8 ed ff ff f9 	movl   $0xfffffff9,-0x1248(%rbp)
   128a4:	ff ff ff 
   128a7:	c7 85 bc ed ff ff ba 	movl   $0xb1e6ddba,-0x1244(%rbp)
   128ae:	dd e6 b1 
   128b1:	c7 85 c0 ed ff ff f9 	movl   $0xfffffff9,-0x1240(%rbp)
   128b8:	ff ff ff 
   128bb:	c7 85 c4 ed ff ff 7e 	movl   $0xf6a01c7e,-0x123c(%rbp)
   128c2:	1c a0 f6 
   128c5:	c7 85 c8 ed ff ff 4d 	movl   $0x4288424d,-0x1238(%rbp)
   128cc:	42 88 42 
   128cf:	c7 85 cc ed ff ff 02 	movl   $0x2,-0x1234(%rbp)
   128d6:	00 00 00 
   128d9:	c7 85 20 e3 ff ff 00 	movl   $0x0,-0x1ce0(%rbp)
   128e0:	00 00 00 
   128e3:	eb 1e                	jmp    12903 <func_57+0x3073>
   128e5:	8b 85 20 e3 ff ff    	mov    -0x1ce0(%rbp),%eax
   128eb:	48 98                	cltq   
   128ed:	48 8d 15 74 c7 00 00 	lea    0xc774(%rip),%rdx        # 1f068 <g_91>
   128f4:	48 89 94 c5 40 e7 ff 	mov    %rdx,-0x18c0(%rbp,%rax,8)
   128fb:	ff 
   128fc:	83 85 20 e3 ff ff 01 	addl   $0x1,-0x1ce0(%rbp)
   12903:	83 bd 20 e3 ff ff 02 	cmpl   $0x2,-0x1ce0(%rbp)
   1290a:	7e d9                	jle    128e5 <func_57+0x3055>
   1290c:	c7 85 d0 e2 ff ff fc 	movl   $0xfffffffc,-0x1d30(%rbp)
   12913:	ff ff ff 
   12916:	e9 af 01 00 00       	jmpq   12aca <func_57+0x323a>
   1291b:	48 8d 85 b0 e7 ff ff 	lea    -0x1850(%rbp),%rax
   12922:	48 83 c0 10          	add    $0x10,%rax
   12926:	48 89 85 38 e5 ff ff 	mov    %rax,-0x1ac8(%rbp)
   1292d:	48 8d 05 c4 ed 00 00 	lea    0xedc4(%rip),%rax        # 216f8 <g_72>
   12934:	48 89 85 70 e4 ff ff 	mov    %rax,-0x1b90(%rbp)
   1293b:	48 8d 85 70 e4 ff ff 	lea    -0x1b90(%rbp),%rax
   12942:	48 89 85 40 e5 ff ff 	mov    %rax,-0x1ac0(%rbp)
   12949:	c7 85 e0 e2 ff ff 03 	movl   $0x3,-0x1d20(%rbp)
   12950:	00 00 00 
   12953:	eb 17                	jmp    1296c <func_57+0x30dc>
   12955:	0f b6 05 1c c7 00 00 	movzbl 0xc71c(%rip),%eax        # 1f078 <g_155>
   1295c:	84 c0                	test   %al,%al
   1295e:	74 05                	je     12965 <func_57+0x30d5>
   12960:	e9 15 f8 ff ff       	jmpq   1217a <func_57+0x28ea>
   12965:	83 ad e0 e2 ff ff 01 	subl   $0x1,-0x1d20(%rbp)
   1296c:	83 bd e0 e2 ff ff 00 	cmpl   $0x0,-0x1d20(%rbp)
   12973:	79 e0                	jns    12955 <func_57+0x30c5>
   12975:	8b 05 09 c7 00 00    	mov    0xc709(%rip),%eax        # 1f084 <g_238>
   1297b:	89 85 7c e2 ff ff    	mov    %eax,-0x1d84(%rbp)
   12981:	8b 9d 90 e2 ff ff    	mov    -0x1d70(%rbp),%ebx
   12987:	48 8b 05 3a c7 00 00 	mov    0xc73a(%rip),%rax        # 1f0c8 <g_294>
   1298e:	44 0f bf e0          	movswl %ax,%r12d
   12992:	44 0f b6 ad b1 e2 ff 	movzbl -0x1d4f(%rbp),%r13d
   12999:	ff 
   1299a:	8b 85 94 e2 ff ff    	mov    -0x1d6c(%rbp),%eax
   129a0:	44 0f b7 f0          	movzwl %ax,%r14d
   129a4:	8b 85 94 e2 ff ff    	mov    -0x1d6c(%rbp),%eax
   129aa:	0f b7 c0             	movzwl %ax,%eax
   129ad:	be 0a 00 00 00       	mov    $0xa,%esi
   129b2:	89 c7                	mov    %eax,%edi
   129b4:	e8 c1 74 ff ff       	callq  9e7a <safe_rshift_func_uint16_t_u_u>
   129b9:	41 89 c7             	mov    %eax,%r15d
   129bc:	be 09 00 00 00       	mov    $0x9,%esi
   129c1:	bf 1e 00 00 00       	mov    $0x1e,%edi
   129c6:	e8 47 68 ff ff       	callq  9212 <safe_mul_func_int8_t_s_s>
   129cb:	0f be c0             	movsbl %al,%eax
   129ce:	89 c6                	mov    %eax,%esi
   129d0:	bf 00 00 00 00       	mov    $0x0,%edi
   129d5:	e8 89 6b ff ff       	callq  9563 <safe_rshift_func_int16_t_s_u>
   129da:	48 8b 95 88 e4 ff ff 	mov    -0x1b78(%rbp),%rdx
   129e1:	66 89 02             	mov    %ax,(%rdx)
   129e4:	48 8b 85 88 e4 ff ff 	mov    -0x1b78(%rbp),%rax
   129eb:	0f b7 00             	movzwl (%rax),%eax
   129ee:	98                   	cwtl   
   129ef:	be 7e 53 00 00       	mov    $0x537e,%esi
   129f4:	89 c7                	mov    %eax,%edi
   129f6:	e8 1b 6a ff ff       	callq  9416 <safe_mod_func_int16_t_s_s>
   129fb:	8b 95 90 e2 ff ff    	mov    -0x1d70(%rbp),%edx
   12a01:	09 d0                	or     %edx,%eax
   12a03:	89 c2                	mov    %eax,%edx
   12a05:	8b 05 75 c6 00 00    	mov    0xc675(%rip),%eax        # 1f080 <g_237>
   12a0b:	31 d0                	xor    %edx,%eax
   12a0d:	44 09 f8             	or     %r15d,%eax
   12a10:	0f b7 c0             	movzwl %ax,%eax
   12a13:	44 89 f6             	mov    %r14d,%esi
   12a16:	89 c7                	mov    %eax,%edi
   12a18:	e8 02 73 ff ff       	callq  9d1f <safe_sub_func_uint16_t_u_u>
   12a1d:	48 8d 05 84 ef 00 00 	lea    0xef84(%rip),%rax        # 219a8 <g_392+0x288>
   12a24:	48 39 85 38 e5 ff ff 	cmp    %rax,-0x1ac8(%rbp)
   12a2b:	0f 95 c0             	setne  %al
   12a2e:	0f b6 c0             	movzbl %al,%eax
   12a31:	44 89 ee             	mov    %r13d,%esi
   12a34:	89 c7                	mov    %eax,%edi
   12a36:	e8 3d 71 ff ff       	callq  9b78 <safe_sub_func_uint8_t_u_u>
   12a3b:	0f b6 c0             	movzbl %al,%eax
   12a3e:	44 89 e6             	mov    %r12d,%esi
   12a41:	89 c7                	mov    %eax,%edi
   12a43:	e8 6b 69 ff ff       	callq  93b3 <safe_add_func_int16_t_s_s>
   12a48:	ba 01 00 00 00       	mov    $0x1,%edx
   12a4d:	8b 05 8d c6 00 00    	mov    0xc68d(%rip),%eax        # 1f0e0 <g_535>
   12a53:	09 d0                	or     %edx,%eax
   12a55:	89 05 85 c6 00 00    	mov    %eax,0xc685(%rip)        # 1f0e0 <g_535>
   12a5b:	b8 01 00 00 00       	mov    $0x1,%eax
   12a60:	89 c2                	mov    %eax,%edx
   12a62:	48 8b 05 5f c6 00 00 	mov    0xc65f(%rip),%rax        # 1f0c8 <g_294>
   12a69:	89 d6                	mov    %edx,%esi
   12a6b:	89 c7                	mov    %eax,%edi
   12a6d:	e8 5e 74 ff ff       	callq  9ed0 <safe_sub_func_uint32_t_u_u>
   12a72:	89 c2                	mov    %eax,%edx
   12a74:	48 8b 05 85 ec 00 00 	mov    0xec85(%rip),%rax        # 21700 <g_113>
   12a7b:	8b 00                	mov    (%rax),%eax
   12a7d:	89 d6                	mov    %edx,%esi
   12a7f:	89 c7                	mov    %eax,%edi
   12a81:	e8 79 6c ff ff       	callq  96ff <safe_div_func_int32_t_s_s>
   12a86:	98                   	cwtl   
   12a87:	89 de                	mov    %ebx,%esi
   12a89:	89 c7                	mov    %eax,%edi
   12a8b:	e8 d3 6a ff ff       	callq  9563 <safe_rshift_func_int16_t_s_u>
   12a90:	98                   	cwtl   
   12a91:	89 85 18 e3 ff ff    	mov    %eax,-0x1ce8(%rbp)
   12a97:	8b 85 18 e3 ff ff    	mov    -0x1ce8(%rbp),%eax
   12a9d:	0f b6 c0             	movzbl %al,%eax
   12aa0:	8b b5 7c e2 ff ff    	mov    -0x1d84(%rbp),%esi
   12aa6:	89 c7                	mov    %eax,%edi
   12aa8:	e8 e0 71 ff ff       	callq  9c8d <safe_rshift_func_uint8_t_u_s>
   12aad:	48 8b 85 40 e5 ff ff 	mov    -0x1ac0(%rbp),%rax
   12ab4:	48 c7 00 00 00 00 00 	movq   $0x0,(%rax)
   12abb:	8b 85 d0 e2 ff ff    	mov    -0x1d30(%rbp),%eax
   12ac1:	83 c0 01             	add    $0x1,%eax
   12ac4:	89 85 d0 e2 ff ff    	mov    %eax,-0x1d30(%rbp)
   12aca:	8b 85 d0 e2 ff ff    	mov    -0x1d30(%rbp),%eax
   12ad0:	83 f8 30             	cmp    $0x30,%eax
   12ad3:	0f 85 42 fe ff ff    	jne    1291b <func_57+0x308b>
   12ad9:	0f b7 05 20 c6 00 00 	movzwl 0xc620(%rip),%eax        # 1f100 <g_558+0x10>
   12ae0:	0f be d8             	movsbl %al,%ebx
   12ae3:	48 8b 85 28 e4 ff ff 	mov    -0x1bd8(%rbp),%rax
   12aea:	48 8d 15 af 01 01 00 	lea    0x101af(%rip),%rdx        # 22ca0 <g_557>
   12af1:	48 39 d0             	cmp    %rdx,%rax
   12af4:	0f 95 c0             	setne  %al
   12af7:	0f b6 c0             	movzbl %al,%eax
   12afa:	31 85 04 e3 ff ff    	xor    %eax,-0x1cfc(%rbp)
   12b00:	8b 85 04 e3 ff ff    	mov    -0x1cfc(%rbp),%eax
   12b06:	48 63 d0             	movslq %eax,%rdx
   12b09:	48 8b 85 98 e2 ff ff 	mov    -0x1d68(%rbp),%rax
   12b10:	48 8b 00             	mov    (%rax),%rax
   12b13:	48 39 c2             	cmp    %rax,%rdx
   12b16:	0f 92 c0             	setb   %al
   12b19:	0f b6 d0             	movzbl %al,%edx
   12b1c:	0f b6 05 3d c5 00 00 	movzbl 0xc53d(%rip),%eax        # 1f060 <g_56>
   12b23:	0f b6 c0             	movzbl %al,%eax
   12b26:	39 c2                	cmp    %eax,%edx
   12b28:	0f 9d c0             	setge  %al
   12b2b:	0f b6 c0             	movzbl %al,%eax
   12b2e:	be 09 00 00 00       	mov    $0x9,%esi
   12b33:	89 c7                	mov    %eax,%edi
   12b35:	e8 cc 72 ff ff       	callq  9e06 <safe_lshift_func_uint16_t_u_u>
   12b3a:	0f be c0             	movsbl %al,%eax
   12b3d:	89 de                	mov    %ebx,%esi
   12b3f:	89 c7                	mov    %eax,%edi
   12b41:	e8 8e 66 ff ff       	callq  91d4 <safe_add_func_int8_t_s_s>
   12b46:	48 8b 05 bb eb 00 00 	mov    0xebbb(%rip),%rax        # 21708 <g_167>
   12b4d:	8b 95 68 e7 ff ff    	mov    -0x1898(%rbp),%edx
   12b53:	0f b7 05 0e c5 00 00 	movzwl 0xc50e(%rip),%eax        # 1f068 <g_91>
   12b5a:	98                   	cwtl   
   12b5b:	21 d0                	and    %edx,%eax
   12b5d:	85 c0                	test   %eax,%eax
   12b5f:	bf 01 00 00 00       	mov    $0x1,%edi
   12b64:	e8 56 66 ff ff       	callq  91bf <safe_unary_minus_func_int8_t_s>
   12b69:	8b 95 80 e7 ff ff    	mov    -0x1880(%rbp),%edx
   12b6f:	0f be c0             	movsbl %al,%eax
   12b72:	21 d0                	and    %edx,%eax
   12b74:	89 85 80 e7 ff ff    	mov    %eax,-0x1880(%rbp)
   12b7a:	8b 85 94 e2 ff ff    	mov    -0x1d6c(%rbp),%eax
   12b80:	0f be c0             	movsbl %al,%eax
   12b83:	be 02 00 00 00       	mov    $0x2,%esi
   12b88:	89 c7                	mov    %eax,%edi
   12b8a:	e8 5f 67 ff ff       	callq  92ee <safe_lshift_func_int8_t_s_u>
   12b8f:	b9 01 00 00 00       	mov    $0x1,%ecx
   12b94:	48 8b 85 10 e4 ff ff 	mov    -0x1bf0(%rbp),%rax
   12b9b:	0f b6 10             	movzbl (%rax),%edx
   12b9e:	48 8b 85 10 e4 ff ff 	mov    -0x1bf0(%rbp),%rax
   12ba5:	09 ca                	or     %ecx,%edx
   12ba7:	88 10                	mov    %dl,(%rax)
   12ba9:	0f b6 00             	movzbl (%rax),%eax
   12bac:	0f be c0             	movsbl %al,%eax
   12baf:	39 85 74 e3 ff ff    	cmp    %eax,-0x1c8c(%rbp)
   12bb5:	0f 95 c0             	setne  %al
   12bb8:	0f b6 d0             	movzbl %al,%edx
   12bbb:	8b 85 08 e3 ff ff    	mov    -0x1cf8(%rbp),%eax
   12bc1:	48 98                	cltq   
   12bc3:	48 39 c2             	cmp    %rax,%rdx
   12bc6:	48 8b 05 fb c4 00 00 	mov    0xc4fb(%rip),%rax        # 1f0c8 <g_294>
   12bcd:	48 85 c0             	test   %rax,%rax
   12bd0:	0f 94 c0             	sete   %al
   12bd3:	0f b6 d0             	movzbl %al,%edx
   12bd6:	8b 85 94 e2 ff ff    	mov    -0x1d6c(%rbp),%eax
   12bdc:	39 c2                	cmp    %eax,%edx
   12bde:	0f 95 c0             	setne  %al
   12be1:	0f b6 d0             	movzbl %al,%edx
   12be4:	8b 05 d6 c4 00 00    	mov    0xc4d6(%rip),%eax        # 1f0c0 <g_240+0x20>
   12bea:	09 d0                	or     %edx,%eax
   12bec:	89 05 ce c4 00 00    	mov    %eax,0xc4ce(%rip)        # 1f0c0 <g_240+0x20>
   12bf2:	48 8b 85 10 e4 ff ff 	mov    -0x1bf0(%rbp),%rax
   12bf9:	c6 00 00             	movb   $0x0,(%rax)
   12bfc:	be 01 00 00 00       	mov    $0x1,%esi
   12c01:	bf 00 00 00 00       	mov    $0x0,%edi
   12c06:	e8 96 66 ff ff       	callq  92a1 <safe_lshift_func_int8_t_s_s>
   12c0b:	0f be c0             	movsbl %al,%eax
   12c0e:	89 c6                	mov    %eax,%esi
   12c10:	bf d6 7b 00 00       	mov    $0x7bd6,%edi
   12c15:	e8 db 67 ff ff       	callq  93f5 <safe_mul_func_int16_t_s_s>
   12c1a:	66 85 c0             	test   %ax,%ax
   12c1d:	0f 84 1a 03 00 00    	je     12f3d <func_57+0x36ad>
   12c23:	48 8d 05 56 c4 00 00 	lea    0xc456(%rip),%rax        # 1f080 <g_237>
   12c2a:	48 89 85 00 e5 ff ff 	mov    %rax,-0x1b00(%rbp)
   12c31:	c7 85 84 e3 ff ff 01 	movl   $0x1,-0x1c7c(%rbp)
   12c38:	00 00 00 
   12c3b:	48 c7 85 08 e5 ff ff 	movq   $0x0,-0x1af8(%rbp)
   12c42:	00 00 00 00 
   12c46:	48 8d 85 38 e4 ff ff 	lea    -0x1bc8(%rbp),%rax
   12c4d:	48 89 85 10 e5 ff ff 	mov    %rax,-0x1af0(%rbp)
   12c54:	48 c7 85 18 e5 ff ff 	movq   $0x0,-0x1ae8(%rbp)
   12c5b:	00 00 00 00 
   12c5f:	0f b6 85 b1 e2 ff ff 	movzbl -0x1d4f(%rbp),%eax
   12c66:	be 01 00 00 00       	mov    $0x1,%esi
   12c6b:	89 c7                	mov    %eax,%edi
   12c6d:	e8 3c 6f ff ff       	callq  9bae <safe_mod_func_uint8_t_u_u>
   12c72:	0f b6 d0             	movzbl %al,%edx
   12c75:	8b 05 3d c4 00 00    	mov    0xc43d(%rip),%eax        # 1f0b8 <g_240+0x18>
   12c7b:	0f b7 c0             	movzwl %ax,%eax
   12c7e:	89 d6                	mov    %edx,%esi
   12c80:	89 c7                	mov    %eax,%edi
   12c82:	e8 b6 70 ff ff       	callq  9d3d <safe_mul_func_uint16_t_u_u>
   12c87:	8b 05 df c3 00 00    	mov    0xc3df(%rip),%eax        # 1f06c <g_98>
   12c8d:	41 89 c5             	mov    %eax,%r13d
   12c90:	8b 85 94 e2 ff ff    	mov    -0x1d6c(%rbp),%eax
   12c96:	0f b7 d8             	movzwl %ax,%ebx
   12c99:	44 8b a5 94 e2 ff ff 	mov    -0x1d6c(%rbp),%r12d
   12ca0:	8b 85 70 e7 ff ff    	mov    -0x1890(%rbp),%eax
   12ca6:	83 f8 01             	cmp    $0x1,%eax
   12ca9:	0f 9f c0             	setg   %al
   12cac:	0f b6 c0             	movzbl %al,%eax
   12caf:	be 00 00 00 00       	mov    $0x0,%esi
   12cb4:	89 c7                	mov    %eax,%edi
   12cb6:	e8 e6 65 ff ff       	callq  92a1 <safe_lshift_func_int8_t_s_s>
   12cbb:	0f be d0             	movsbl %al,%edx
   12cbe:	48 8b 85 00 e5 ff ff 	mov    -0x1b00(%rbp),%rax
   12cc5:	89 10                	mov    %edx,(%rax)
   12cc7:	8b 85 04 e3 ff ff    	mov    -0x1cfc(%rbp),%eax
   12ccd:	23 85 90 e2 ff ff    	and    -0x1d70(%rbp),%eax
   12cd3:	44 89 e6             	mov    %r12d,%esi
   12cd6:	89 c7                	mov    %eax,%edi
   12cd8:	e8 22 6a ff ff       	callq  96ff <safe_div_func_int32_t_s_s>
   12cdd:	83 bd 90 e2 ff ff 01 	cmpl   $0x1,-0x1d70(%rbp)
   12ce4:	0f 9f c0             	setg   %al
   12ce7:	0f b6 c0             	movzbl %al,%eax
   12cea:	89 de                	mov    %ebx,%esi
   12cec:	89 c7                	mov    %eax,%edi
   12cee:	e8 4a 70 ff ff       	callq  9d3d <safe_mul_func_uint16_t_u_u>
   12cf3:	0f b7 c0             	movzwl %ax,%eax
   12cf6:	4c 89 ee             	mov    %r13,%rsi
   12cf9:	48 89 c7             	mov    %rax,%rdi
   12cfc:	e8 4a 73 ff ff       	callq  a04b <safe_sub_func_uint64_t_u_u>
   12d01:	ba 9e 0d d2 b0       	mov    $0xb0d20d9e,%edx
   12d06:	48 09 c2             	or     %rax,%rdx
   12d09:	48 8b 05 e8 e9 00 00 	mov    0xe9e8(%rip),%rax        # 216f8 <g_72>
   12d10:	48 8b 00             	mov    (%rax),%rax
   12d13:	48 31 c2             	xor    %rax,%rdx
   12d16:	48 8b 85 98 e2 ff ff 	mov    -0x1d68(%rbp),%rax
   12d1d:	48 8b 00             	mov    (%rax),%rax
   12d20:	48 89 d6             	mov    %rdx,%rsi
   12d23:	48 89 c7             	mov    %rax,%rdi
   12d26:	e8 03 73 ff ff       	callq  a02e <safe_add_func_uint64_t_u_u>
   12d2b:	48 83 f8 f6          	cmp    $0xfffffffffffffff6,%rax
   12d2f:	76 10                	jbe    12d41 <func_57+0x34b1>
   12d31:	83 bd 90 e2 ff ff 00 	cmpl   $0x0,-0x1d70(%rbp)
   12d38:	74 07                	je     12d41 <func_57+0x34b1>
   12d3a:	ba 01 00 00 00       	mov    $0x1,%edx
   12d3f:	eb 05                	jmp    12d46 <func_57+0x34b6>
   12d41:	ba 00 00 00 00       	mov    $0x0,%edx
   12d46:	8b 85 18 e3 ff ff    	mov    -0x1ce8(%rbp),%eax
   12d4c:	0f b6 c0             	movzbl %al,%eax
   12d4f:	89 d6                	mov    %edx,%esi
   12d51:	89 c7                	mov    %eax,%edi
   12d53:	e8 35 6f ff ff       	callq  9c8d <safe_rshift_func_uint8_t_u_s>
   12d58:	0f b6 d0             	movzbl %al,%edx
   12d5b:	48 8b 05 66 c3 00 00 	mov    0xc366(%rip),%rax        # 1f0c8 <g_294>
   12d62:	48 39 c2             	cmp    %rax,%rdx
   12d65:	74 11                	je     12d78 <func_57+0x34e8>
   12d67:	8b 05 d3 c2 00 00    	mov    0xc2d3(%rip),%eax        # 1f040 <g_43>
   12d6d:	85 c0                	test   %eax,%eax
   12d6f:	74 07                	je     12d78 <func_57+0x34e8>
   12d71:	ba 01 00 00 00       	mov    $0x1,%edx
   12d76:	eb 05                	jmp    12d7d <func_57+0x34ed>
   12d78:	ba 00 00 00 00       	mov    $0x0,%edx
   12d7d:	8b 85 48 e4 ff ff    	mov    -0x1bb8(%rbp),%eax
   12d83:	39 c2                	cmp    %eax,%edx
   12d85:	0f 9c c0             	setl   %al
   12d88:	0f b6 d0             	movzbl %al,%edx
   12d8b:	8b 05 db c2 00 00    	mov    0xc2db(%rip),%eax        # 1f06c <g_98>
   12d91:	39 c2                	cmp    %eax,%edx
   12d93:	0f 92 c0             	setb   %al
   12d96:	0f b6 c0             	movzbl %al,%eax
   12d99:	f7 d0                	not    %eax
   12d9b:	89 c2                	mov    %eax,%edx
   12d9d:	48 8b 05 5c e9 00 00 	mov    0xe95c(%rip),%rax        # 21700 <g_113>
   12da4:	8b 00                	mov    (%rax),%eax
   12da6:	39 c2                	cmp    %eax,%edx
   12da8:	0f 9f c2             	setg   %dl
   12dab:	48 8b 05 4e e9 00 00 	mov    0xe94e(%rip),%rax        # 21700 <g_113>
   12db2:	0f b6 d2             	movzbl %dl,%edx
   12db5:	89 10                	mov    %edx,(%rax)
   12db7:	8b 00                	mov    (%rax),%eax
   12db9:	89 85 84 e3 ff ff    	mov    %eax,-0x1c7c(%rbp)
   12dbf:	48 8b 05 a2 ef 00 00 	mov    0xefa2(%rip),%rax        # 21d68 <g_586>
   12dc6:	48 89 85 c0 e4 ff ff 	mov    %rax,-0x1b40(%rbp)
   12dcd:	48 8b 95 38 e4 ff ff 	mov    -0x1bc8(%rbp),%rdx
   12dd4:	48 8b 85 10 e5 ff ff 	mov    -0x1af0(%rbp),%rax
   12ddb:	48 89 10             	mov    %rdx,(%rax)
   12dde:	48 8b 85 98 e2 ff ff 	mov    -0x1d68(%rbp),%rax
   12de5:	48 8b 00             	mov    (%rax),%rax
   12de8:	48 83 f8 01          	cmp    $0x1,%rax
   12dec:	76 11                	jbe    12dff <func_57+0x356f>
   12dee:	8b 85 94 e2 ff ff    	mov    -0x1d6c(%rbp),%eax
   12df4:	85 c0                	test   %eax,%eax
   12df6:	74 07                	je     12dff <func_57+0x356f>
   12df8:	b8 01 00 00 00       	mov    $0x1,%eax
   12dfd:	eb 05                	jmp    12e04 <func_57+0x3574>
   12dff:	b8 00 00 00 00       	mov    $0x0,%eax
   12e04:	08 85 ae e2 ff ff    	or     %al,-0x1d52(%rbp)
   12e0a:	c7 85 18 e3 ff ff 00 	movl   $0x0,-0x1ce8(%rbp)
   12e11:	00 00 00 
   12e14:	83 bd 18 e3 ff ff 00 	cmpl   $0x0,-0x1ce8(%rbp)
   12e1b:	0f 88 f5 01 00 00    	js     13016 <func_57+0x3786>
   12e21:	48 8d 05 54 c2 00 00 	lea    0xc254(%rip),%rax        # 1f07c <g_165>
   12e28:	48 89 85 30 e5 ff ff 	mov    %rax,-0x1ad0(%rbp)
   12e2f:	c7 85 8c e3 ff ff 01 	movl   $0x1,-0x1c74(%rbp)
   12e36:	00 00 00 
   12e39:	8b 85 08 e3 ff ff    	mov    -0x1cf8(%rbp),%eax
   12e3f:	89 c2                	mov    %eax,%edx
   12e41:	48 8b 85 30 e5 ff ff 	mov    -0x1ad0(%rbp),%rax
   12e48:	88 10                	mov    %dl,(%rax)
   12e4a:	8b 85 90 e2 ff ff    	mov    -0x1d70(%rbp),%eax
   12e50:	0f be c0             	movsbl %al,%eax
   12e53:	89 c6                	mov    %eax,%esi
   12e55:	bf 6e 00 00 00       	mov    $0x6e,%edi
   12e5a:	e8 b3 63 ff ff       	callq  9212 <safe_mul_func_int8_t_s_s>
   12e5f:	0f b6 c8             	movzbl %al,%ecx
   12e62:	48 8b 85 50 e4 ff ff 	mov    -0x1bb0(%rbp),%rax
   12e69:	0f b6 10             	movzbl (%rax),%edx
   12e6c:	8d 72 01             	lea    0x1(%rdx),%esi
   12e6f:	40 88 30             	mov    %sil,(%rax)
   12e72:	0f b6 c2             	movzbl %dl,%eax
   12e75:	89 ce                	mov    %ecx,%esi
   12e77:	89 c7                	mov    %eax,%edi
   12e79:	e8 30 6d ff ff       	callq  9bae <safe_mod_func_uint8_t_u_u>
   12e7e:	88 85 ab e2 ff ff    	mov    %al,-0x1d55(%rbp)
   12e84:	0f b6 95 ab e2 ff ff 	movzbl -0x1d55(%rbp),%edx
   12e8b:	0f b6 05 76 c2 00 00 	movzbl 0xc276(%rip),%eax        # 1f108 <g_603>
   12e92:	21 d0                	and    %edx,%eax
   12e94:	88 05 6e c2 00 00    	mov    %al,0xc26e(%rip)        # 1f108 <g_603>
   12e9a:	0f b6 85 54 ea ff ff 	movzbl -0x15ac(%rbp),%eax
   12ea1:	0f be c0             	movsbl %al,%eax
   12ea4:	be 08 00 00 00       	mov    $0x8,%esi
   12ea9:	89 c7                	mov    %eax,%edi
   12eab:	e8 31 66 ff ff       	callq  94e1 <safe_lshift_func_int16_t_s_u>
   12eb0:	98                   	cwtl   
   12eb1:	8b 95 04 e3 ff ff    	mov    -0x1cfc(%rbp),%edx
   12eb7:	89 d6                	mov    %edx,%esi
   12eb9:	89 c7                	mov    %eax,%edi
   12ebb:	e8 0c 68 ff ff       	callq  96cc <safe_mod_func_int32_t_s_s>
   12ec0:	0f b6 05 99 c1 00 00 	movzbl 0xc199(%rip),%eax        # 1f060 <g_56>
   12ec7:	0f b6 d8             	movzbl %al,%ebx
   12eca:	48 8b 05 c7 fd 00 00 	mov    0xfdc7(%rip),%rax        # 22c98 <g_109>
   12ed1:	89 c2                	mov    %eax,%edx
   12ed3:	48 83 bd 98 e2 ff ff 	cmpq   $0x0,-0x1d68(%rbp)
   12eda:	00 
   12edb:	48 8b 85 30 e5 ff ff 	mov    -0x1ad0(%rbp),%rax
   12ee2:	c6 00 15             	movb   $0x15,(%rax)
   12ee5:	48 8b 85 30 e5 ff ff 	mov    -0x1ad0(%rbp),%rax
   12eec:	0f b6 00             	movzbl (%rax),%eax
   12eef:	0f be c0             	movsbl %al,%eax
   12ef2:	89 d6                	mov    %edx,%esi
   12ef4:	89 c7                	mov    %eax,%edi
   12ef6:	e8 3a 64 ff ff       	callq  9335 <safe_rshift_func_int8_t_s_s>
   12efb:	0f be c0             	movsbl %al,%eax
   12efe:	89 85 1c e3 ff ff    	mov    %eax,-0x1ce4(%rbp)
   12f04:	39 9d 1c e3 ff ff    	cmp    %ebx,-0x1ce4(%rbp)
   12f0a:	83 bd 8c e3 ff ff 00 	cmpl   $0x0,-0x1c74(%rbp)
   12f11:	75 0c                	jne    12f1f <func_57+0x368f>
   12f13:	0f b7 85 ba e2 ff ff 	movzwl -0x1d46(%rbp),%eax
   12f1a:	66 85 c0             	test   %ax,%ax
   12f1d:	74 07                	je     12f26 <func_57+0x3696>
   12f1f:	b8 01 00 00 00       	mov    $0x1,%eax
   12f24:	eb 05                	jmp    12f2b <func_57+0x369b>
   12f26:	b8 00 00 00 00       	mov    $0x0,%eax
   12f2b:	89 85 94 e2 ff ff    	mov    %eax,-0x1d6c(%rbp)
   12f31:	48 8b 85 18 e5 ff ff 	mov    -0x1ae8(%rbp),%rax
   12f38:	e9 38 55 00 00       	jmpq   18475 <func_57+0x8be5>
   12f3d:	c7 85 24 e3 ff ff 00 	movl   $0x0,-0x1cdc(%rbp)
   12f44:	00 00 00 
   12f47:	eb 1b                	jmp    12f64 <func_57+0x36d4>
   12f49:	8b 85 24 e3 ff ff    	mov    -0x1cdc(%rbp),%eax
   12f4f:	48 98                	cltq   
   12f51:	48 c7 84 c5 20 f1 ff 	movq   $0x0,-0xee0(%rbp,%rax,8)
   12f58:	ff 00 00 00 00 
   12f5d:	83 85 24 e3 ff ff 01 	addl   $0x1,-0x1cdc(%rbp)
   12f64:	83 bd 24 e3 ff ff 01 	cmpl   $0x1,-0x1cdc(%rbp)
   12f6b:	7e dc                	jle    12f49 <func_57+0x36b9>
   12f6d:	48 8b 05 84 e7 00 00 	mov    0xe784(%rip),%rax        # 216f8 <g_72>
   12f74:	48 8b 00             	mov    (%rax),%rax
   12f77:	89 c2                	mov    %eax,%edx
   12f79:	83 bd 08 e3 ff ff 00 	cmpl   $0x0,-0x1cf8(%rbp)
   12f80:	75 0d                	jne    12f8f <func_57+0x36ff>
   12f82:	48 8b 05 77 e7 00 00 	mov    0xe777(%rip),%rax        # 21700 <g_113>
   12f89:	8b 00                	mov    (%rax),%eax
   12f8b:	85 c0                	test   %eax,%eax
   12f8d:	74 07                	je     12f96 <func_57+0x3706>
   12f8f:	b8 01 00 00 00       	mov    $0x1,%eax
   12f94:	eb 05                	jmp    12f9b <func_57+0x370b>
   12f96:	b8 00 00 00 00       	mov    $0x0,%eax
   12f9b:	21 d0                	and    %edx,%eax
   12f9d:	89 85 18 e3 ff ff    	mov    %eax,-0x1ce8(%rbp)
   12fa3:	8b 85 18 e3 ff ff    	mov    -0x1ce8(%rbp),%eax
   12fa9:	0f b7 c0             	movzwl %ax,%eax
   12fac:	be 06 00 00 00       	mov    $0x6,%esi
   12fb1:	89 c7                	mov    %eax,%edi
   12fb3:	e8 d6 6d ff ff       	callq  9d8e <safe_div_func_uint16_t_u_u>
   12fb8:	0f b7 d0             	movzwl %ax,%edx
   12fbb:	8b 85 94 e2 ff ff    	mov    -0x1d6c(%rbp),%eax
   12fc1:	39 c2                	cmp    %eax,%edx
   12fc3:	7c 21                	jl     12fe6 <func_57+0x3756>
   12fc5:	48 8d 15 c4 fc 00 00 	lea    0xfcc4(%rip),%rdx        # 22c90 <g_66>
   12fcc:	48 8b 85 28 f1 ff ff 	mov    -0xed8(%rbp),%rax
   12fd3:	48 89 02             	mov    %rax,(%rdx)
   12fd6:	0f b7 85 ba e2 ff ff 	movzwl -0x1d46(%rbp),%eax
   12fdd:	98                   	cwtl   
   12fde:	89 85 48 e4 ff ff    	mov    %eax,-0x1bb8(%rbp)
   12fe4:	eb 0f                	jmp    12ff5 <func_57+0x3765>
   12fe6:	48 8b 05 13 e7 00 00 	mov    0xe713(%rip),%rax        # 21700 <g_113>
   12fed:	8b 00                	mov    (%rax),%eax
   12fef:	89 85 04 e3 ff ff    	mov    %eax,-0x1cfc(%rbp)
   12ff5:	48 8d 05 94 fc 00 00 	lea    0xfc94(%rip),%rax        # 22c90 <g_66>
   12ffc:	48 8d 95 80 e7 ff ff 	lea    -0x1880(%rbp),%rdx
   13003:	48 83 c2 20          	add    $0x20,%rdx
   13007:	48 89 10             	mov    %rdx,(%rax)
   1300a:	48 8b 85 48 e7 ff ff 	mov    -0x18b8(%rbp),%rax
   13011:	e9 5f 54 00 00       	jmpq   18475 <func_57+0x8be5>
   13016:	c7 05 64 c0 00 00 00 	movl   $0x0,0xc064(%rip)        # 1f084 <g_238>
   1301d:	00 00 00 
   13020:	e9 f2 12 00 00       	jmpq   14317 <func_57+0x4a87>
   13025:	48 8d 85 68 e4 ff ff 	lea    -0x1b98(%rbp),%rax
   1302c:	48 89 85 20 e5 ff ff 	mov    %rax,-0x1ae0(%rbp)
   13033:	48 c7 85 10 e8 ff ff 	movq   $0x0,-0x17f0(%rbp)
   1303a:	00 00 00 00 
   1303e:	48 8d 85 28 e4 ff ff 	lea    -0x1bd8(%rbp),%rax
   13045:	48 89 85 18 e8 ff ff 	mov    %rax,-0x17e8(%rbp)
   1304c:	48 8d 85 28 e4 ff ff 	lea    -0x1bd8(%rbp),%rax
   13053:	48 89 85 20 e8 ff ff 	mov    %rax,-0x17e0(%rbp)
   1305a:	48 c7 85 28 e8 ff ff 	movq   $0x0,-0x17d8(%rbp)
   13061:	00 00 00 00 
   13065:	48 8d 85 28 e4 ff ff 	lea    -0x1bd8(%rbp),%rax
   1306c:	48 89 85 30 e8 ff ff 	mov    %rax,-0x17d0(%rbp)
   13073:	48 8d 85 28 e4 ff ff 	lea    -0x1bd8(%rbp),%rax
   1307a:	48 89 85 38 e8 ff ff 	mov    %rax,-0x17c8(%rbp)
   13081:	48 8d 85 10 e8 ff ff 	lea    -0x17f0(%rbp),%rax
   13088:	48 89 85 20 f1 ff ff 	mov    %rax,-0xee0(%rbp)
   1308f:	48 8d 85 10 e8 ff ff 	lea    -0x17f0(%rbp),%rax
   13096:	48 89 85 28 f1 ff ff 	mov    %rax,-0xed8(%rbp)
   1309d:	48 c7 85 30 f1 ff ff 	movq   $0x0,-0xed0(%rbp)
   130a4:	00 00 00 00 
   130a8:	48 8d 85 10 e8 ff ff 	lea    -0x17f0(%rbp),%rax
   130af:	48 83 c0 10          	add    $0x10,%rax
   130b3:	48 89 85 38 f1 ff ff 	mov    %rax,-0xec8(%rbp)
   130ba:	48 8d 85 10 e8 ff ff 	lea    -0x17f0(%rbp),%rax
   130c1:	48 83 c0 18          	add    $0x18,%rax
   130c5:	48 89 85 40 f1 ff ff 	mov    %rax,-0xec0(%rbp)
   130cc:	48 c7 85 48 f1 ff ff 	movq   $0x0,-0xeb8(%rbp)
   130d3:	00 00 00 00 
   130d7:	48 c7 85 50 f1 ff ff 	movq   $0x0,-0xeb0(%rbp)
   130de:	00 00 00 00 
   130e2:	48 8d 85 10 e8 ff ff 	lea    -0x17f0(%rbp),%rax
   130e9:	48 83 c0 20          	add    $0x20,%rax
   130ed:	48 89 85 58 f1 ff ff 	mov    %rax,-0xea8(%rbp)
   130f4:	48 8d 85 10 e8 ff ff 	lea    -0x17f0(%rbp),%rax
   130fb:	48 83 c0 08          	add    $0x8,%rax
   130ff:	48 89 85 60 f1 ff ff 	mov    %rax,-0xea0(%rbp)
   13106:	48 8d 85 10 e8 ff ff 	lea    -0x17f0(%rbp),%rax
   1310d:	48 83 c0 20          	add    $0x20,%rax
   13111:	48 89 85 68 f1 ff ff 	mov    %rax,-0xe98(%rbp)
   13118:	48 8d 85 10 e8 ff ff 	lea    -0x17f0(%rbp),%rax
   1311f:	48 83 c0 18          	add    $0x18,%rax
   13123:	48 89 85 70 f1 ff ff 	mov    %rax,-0xe90(%rbp)
   1312a:	48 8d 85 10 e8 ff ff 	lea    -0x17f0(%rbp),%rax
   13131:	48 83 c0 18          	add    $0x18,%rax
   13135:	48 89 85 78 f1 ff ff 	mov    %rax,-0xe88(%rbp)
   1313c:	48 8d 85 10 e8 ff ff 	lea    -0x17f0(%rbp),%rax
   13143:	48 83 c0 08          	add    $0x8,%rax
   13147:	48 89 85 80 f1 ff ff 	mov    %rax,-0xe80(%rbp)
   1314e:	48 8d 85 10 e8 ff ff 	lea    -0x17f0(%rbp),%rax
   13155:	48 89 85 88 f1 ff ff 	mov    %rax,-0xe78(%rbp)
   1315c:	48 8d 85 10 e8 ff ff 	lea    -0x17f0(%rbp),%rax
   13163:	48 83 c0 10          	add    $0x10,%rax
   13167:	48 89 85 90 f1 ff ff 	mov    %rax,-0xe70(%rbp)
   1316e:	48 c7 85 98 f1 ff ff 	movq   $0x0,-0xe68(%rbp)
   13175:	00 00 00 00 
   13179:	48 c7 85 a0 f1 ff ff 	movq   $0x0,-0xe60(%rbp)
   13180:	00 00 00 00 
   13184:	48 8d 85 10 e8 ff ff 	lea    -0x17f0(%rbp),%rax
   1318b:	48 83 c0 08          	add    $0x8,%rax
   1318f:	48 89 85 a8 f1 ff ff 	mov    %rax,-0xe58(%rbp)
   13196:	48 8d 85 10 e8 ff ff 	lea    -0x17f0(%rbp),%rax
   1319d:	48 83 c0 20          	add    $0x20,%rax
   131a1:	48 89 85 b0 f1 ff ff 	mov    %rax,-0xe50(%rbp)
   131a8:	48 8d 85 10 e8 ff ff 	lea    -0x17f0(%rbp),%rax
   131af:	48 83 c0 28          	add    $0x28,%rax
   131b3:	48 89 85 b8 f1 ff ff 	mov    %rax,-0xe48(%rbp)
   131ba:	48 c7 85 c0 f1 ff ff 	movq   $0x0,-0xe40(%rbp)
   131c1:	00 00 00 00 
   131c5:	48 8d 85 10 e8 ff ff 	lea    -0x17f0(%rbp),%rax
   131cc:	48 83 c0 10          	add    $0x10,%rax
   131d0:	48 89 85 c8 f1 ff ff 	mov    %rax,-0xe38(%rbp)
   131d7:	48 8d 85 10 e8 ff ff 	lea    -0x17f0(%rbp),%rax
   131de:	48 83 c0 20          	add    $0x20,%rax
   131e2:	48 89 85 d0 f1 ff ff 	mov    %rax,-0xe30(%rbp)
   131e9:	48 8d 85 10 e8 ff ff 	lea    -0x17f0(%rbp),%rax
   131f0:	48 83 c0 28          	add    $0x28,%rax
   131f4:	48 89 85 d8 f1 ff ff 	mov    %rax,-0xe28(%rbp)
   131fb:	48 c7 85 e0 f1 ff ff 	movq   $0x0,-0xe20(%rbp)
   13202:	00 00 00 00 
   13206:	48 8d 85 10 e8 ff ff 	lea    -0x17f0(%rbp),%rax
   1320d:	48 83 c0 28          	add    $0x28,%rax
   13211:	48 89 85 e8 f1 ff ff 	mov    %rax,-0xe18(%rbp)
   13218:	48 8d 85 10 e8 ff ff 	lea    -0x17f0(%rbp),%rax
   1321f:	48 83 c0 08          	add    $0x8,%rax
   13223:	48 89 85 f0 f1 ff ff 	mov    %rax,-0xe10(%rbp)
   1322a:	48 c7 85 f8 f1 ff ff 	movq   $0x0,-0xe08(%rbp)
   13231:	00 00 00 00 
   13235:	48 c7 85 00 f2 ff ff 	movq   $0x0,-0xe00(%rbp)
   1323c:	00 00 00 00 
   13240:	48 c7 85 08 f2 ff ff 	movq   $0x0,-0xdf8(%rbp)
   13247:	00 00 00 00 
   1324b:	48 8d 85 10 e8 ff ff 	lea    -0x17f0(%rbp),%rax
   13252:	48 83 c0 18          	add    $0x18,%rax
   13256:	48 89 85 10 f2 ff ff 	mov    %rax,-0xdf0(%rbp)
   1325d:	48 8d 85 10 e8 ff ff 	lea    -0x17f0(%rbp),%rax
   13264:	48 89 85 18 f2 ff ff 	mov    %rax,-0xde8(%rbp)
   1326b:	48 8d 85 10 e8 ff ff 	lea    -0x17f0(%rbp),%rax
   13272:	48 83 c0 10          	add    $0x10,%rax
   13276:	48 89 85 20 f2 ff ff 	mov    %rax,-0xde0(%rbp)
   1327d:	48 8d 85 10 e8 ff ff 	lea    -0x17f0(%rbp),%rax
   13284:	48 83 c0 20          	add    $0x20,%rax
   13288:	48 89 85 28 f2 ff ff 	mov    %rax,-0xdd8(%rbp)
   1328f:	48 8d 85 10 e8 ff ff 	lea    -0x17f0(%rbp),%rax
   13296:	48 83 c0 18          	add    $0x18,%rax
   1329a:	48 89 85 30 f2 ff ff 	mov    %rax,-0xdd0(%rbp)
   132a1:	48 8d 85 10 e8 ff ff 	lea    -0x17f0(%rbp),%rax
   132a8:	48 83 c0 20          	add    $0x20,%rax
   132ac:	48 89 85 38 f2 ff ff 	mov    %rax,-0xdc8(%rbp)
   132b3:	48 8d 85 10 e8 ff ff 	lea    -0x17f0(%rbp),%rax
   132ba:	48 83 c0 20          	add    $0x20,%rax
   132be:	48 89 85 40 f2 ff ff 	mov    %rax,-0xdc0(%rbp)
   132c5:	48 8d 85 10 e8 ff ff 	lea    -0x17f0(%rbp),%rax
   132cc:	48 83 c0 20          	add    $0x20,%rax
   132d0:	48 89 85 48 f2 ff ff 	mov    %rax,-0xdb8(%rbp)
   132d7:	48 8d 85 10 e8 ff ff 	lea    -0x17f0(%rbp),%rax
   132de:	48 83 c0 28          	add    $0x28,%rax
   132e2:	48 89 85 50 f2 ff ff 	mov    %rax,-0xdb0(%rbp)
   132e9:	48 8d 85 10 e8 ff ff 	lea    -0x17f0(%rbp),%rax
   132f0:	48 83 c0 20          	add    $0x20,%rax
   132f4:	48 89 85 58 f2 ff ff 	mov    %rax,-0xda8(%rbp)
   132fb:	48 8d 85 10 e8 ff ff 	lea    -0x17f0(%rbp),%rax
   13302:	48 83 c0 18          	add    $0x18,%rax
   13306:	48 89 85 60 f2 ff ff 	mov    %rax,-0xda0(%rbp)
   1330d:	48 8d 85 10 e8 ff ff 	lea    -0x17f0(%rbp),%rax
   13314:	48 83 c0 28          	add    $0x28,%rax
   13318:	48 89 85 68 f2 ff ff 	mov    %rax,-0xd98(%rbp)
   1331f:	48 8d 85 10 e8 ff ff 	lea    -0x17f0(%rbp),%rax
   13326:	48 83 c0 20          	add    $0x20,%rax
   1332a:	48 89 85 70 f2 ff ff 	mov    %rax,-0xd90(%rbp)
   13331:	48 8d 85 10 e8 ff ff 	lea    -0x17f0(%rbp),%rax
   13338:	48 89 85 78 f2 ff ff 	mov    %rax,-0xd88(%rbp)
   1333f:	48 8d 85 10 e8 ff ff 	lea    -0x17f0(%rbp),%rax
   13346:	48 89 85 80 f2 ff ff 	mov    %rax,-0xd80(%rbp)
   1334d:	48 8d 85 10 e8 ff ff 	lea    -0x17f0(%rbp),%rax
   13354:	48 83 c0 20          	add    $0x20,%rax
   13358:	48 89 85 88 f2 ff ff 	mov    %rax,-0xd78(%rbp)
   1335f:	48 c7 85 90 f2 ff ff 	movq   $0x0,-0xd70(%rbp)
   13366:	00 00 00 00 
   1336a:	48 8d 85 10 e8 ff ff 	lea    -0x17f0(%rbp),%rax
   13371:	48 83 c0 20          	add    $0x20,%rax
   13375:	48 89 85 98 f2 ff ff 	mov    %rax,-0xd68(%rbp)
   1337c:	48 c7 85 a0 f2 ff ff 	movq   $0x0,-0xd60(%rbp)
   13383:	00 00 00 00 
   13387:	48 8d 85 10 e8 ff ff 	lea    -0x17f0(%rbp),%rax
   1338e:	48 83 c0 28          	add    $0x28,%rax
   13392:	48 89 85 a8 f2 ff ff 	mov    %rax,-0xd58(%rbp)
   13399:	48 8d 85 10 e8 ff ff 	lea    -0x17f0(%rbp),%rax
   133a0:	48 83 c0 10          	add    $0x10,%rax
   133a4:	48 89 85 b0 f2 ff ff 	mov    %rax,-0xd50(%rbp)
   133ab:	48 8d 85 10 e8 ff ff 	lea    -0x17f0(%rbp),%rax
   133b2:	48 83 c0 20          	add    $0x20,%rax
   133b6:	48 89 85 b8 f2 ff ff 	mov    %rax,-0xd48(%rbp)
   133bd:	48 8d 85 10 e8 ff ff 	lea    -0x17f0(%rbp),%rax
   133c4:	48 83 c0 20          	add    $0x20,%rax
   133c8:	48 89 85 c0 f2 ff ff 	mov    %rax,-0xd40(%rbp)
   133cf:	48 8d 85 10 e8 ff ff 	lea    -0x17f0(%rbp),%rax
   133d6:	48 83 c0 20          	add    $0x20,%rax
   133da:	48 89 85 c8 f2 ff ff 	mov    %rax,-0xd38(%rbp)
   133e1:	48 8d 85 10 e8 ff ff 	lea    -0x17f0(%rbp),%rax
   133e8:	48 89 85 d0 f2 ff ff 	mov    %rax,-0xd30(%rbp)
   133ef:	48 8d 85 10 e8 ff ff 	lea    -0x17f0(%rbp),%rax
   133f6:	48 83 c0 28          	add    $0x28,%rax
   133fa:	48 89 85 d8 f2 ff ff 	mov    %rax,-0xd28(%rbp)
   13401:	48 8d 85 10 e8 ff ff 	lea    -0x17f0(%rbp),%rax
   13408:	48 83 c0 28          	add    $0x28,%rax
   1340c:	48 89 85 e0 f2 ff ff 	mov    %rax,-0xd20(%rbp)
   13413:	48 8d 85 10 e8 ff ff 	lea    -0x17f0(%rbp),%rax
   1341a:	48 83 c0 10          	add    $0x10,%rax
   1341e:	48 89 85 e8 f2 ff ff 	mov    %rax,-0xd18(%rbp)
   13425:	48 c7 85 f0 f2 ff ff 	movq   $0x0,-0xd10(%rbp)
   1342c:	00 00 00 00 
   13430:	48 c7 85 f8 f2 ff ff 	movq   $0x0,-0xd08(%rbp)
   13437:	00 00 00 00 
   1343b:	48 c7 85 00 f3 ff ff 	movq   $0x0,-0xd00(%rbp)
   13442:	00 00 00 00 
   13446:	48 8d 85 10 e8 ff ff 	lea    -0x17f0(%rbp),%rax
   1344d:	48 89 85 08 f3 ff ff 	mov    %rax,-0xcf8(%rbp)
   13454:	48 8d 85 10 e8 ff ff 	lea    -0x17f0(%rbp),%rax
   1345b:	48 83 c0 20          	add    $0x20,%rax
   1345f:	48 89 85 10 f3 ff ff 	mov    %rax,-0xcf0(%rbp)
   13466:	48 8d 85 10 e8 ff ff 	lea    -0x17f0(%rbp),%rax
   1346d:	48 83 c0 20          	add    $0x20,%rax
   13471:	48 89 85 18 f3 ff ff 	mov    %rax,-0xce8(%rbp)
   13478:	48 8d 85 10 e8 ff ff 	lea    -0x17f0(%rbp),%rax
   1347f:	48 83 c0 18          	add    $0x18,%rax
   13483:	48 89 85 20 f3 ff ff 	mov    %rax,-0xce0(%rbp)
   1348a:	48 c7 85 28 f3 ff ff 	movq   $0x0,-0xcd8(%rbp)
   13491:	00 00 00 00 
   13495:	48 c7 85 30 f3 ff ff 	movq   $0x0,-0xcd0(%rbp)
   1349c:	00 00 00 00 
   134a0:	48 8d 85 10 e8 ff ff 	lea    -0x17f0(%rbp),%rax
   134a7:	48 83 c0 20          	add    $0x20,%rax
   134ab:	48 89 85 38 f3 ff ff 	mov    %rax,-0xcc8(%rbp)
   134b2:	48 8d 85 10 e8 ff ff 	lea    -0x17f0(%rbp),%rax
   134b9:	48 83 c0 20          	add    $0x20,%rax
   134bd:	48 89 85 40 f3 ff ff 	mov    %rax,-0xcc0(%rbp)
   134c4:	48 c7 85 48 f3 ff ff 	movq   $0x0,-0xcb8(%rbp)
   134cb:	00 00 00 00 
   134cf:	48 8d 85 10 e8 ff ff 	lea    -0x17f0(%rbp),%rax
   134d6:	48 83 c0 18          	add    $0x18,%rax
   134da:	48 89 85 50 f3 ff ff 	mov    %rax,-0xcb0(%rbp)
   134e1:	48 8d 85 10 e8 ff ff 	lea    -0x17f0(%rbp),%rax
   134e8:	48 83 c0 20          	add    $0x20,%rax
   134ec:	48 89 85 58 f3 ff ff 	mov    %rax,-0xca8(%rbp)
   134f3:	48 8d 85 10 e8 ff ff 	lea    -0x17f0(%rbp),%rax
   134fa:	48 83 c0 28          	add    $0x28,%rax
   134fe:	48 89 85 60 f3 ff ff 	mov    %rax,-0xca0(%rbp)
   13505:	48 8d 85 10 e8 ff ff 	lea    -0x17f0(%rbp),%rax
   1350c:	48 89 85 68 f3 ff ff 	mov    %rax,-0xc98(%rbp)
   13513:	48 c7 85 70 f3 ff ff 	movq   $0x0,-0xc90(%rbp)
   1351a:	00 00 00 00 
   1351e:	48 8d 85 10 e8 ff ff 	lea    -0x17f0(%rbp),%rax
   13525:	48 83 c0 20          	add    $0x20,%rax
   13529:	48 89 85 78 f3 ff ff 	mov    %rax,-0xc88(%rbp)
   13530:	48 c7 85 80 f3 ff ff 	movq   $0x0,-0xc80(%rbp)
   13537:	00 00 00 00 
   1353b:	48 c7 85 88 f3 ff ff 	movq   $0x0,-0xc78(%rbp)
   13542:	00 00 00 00 
   13546:	48 c7 85 90 f3 ff ff 	movq   $0x0,-0xc70(%rbp)
   1354d:	00 00 00 00 
   13551:	48 8d 85 10 e8 ff ff 	lea    -0x17f0(%rbp),%rax
   13558:	48 83 c0 28          	add    $0x28,%rax
   1355c:	48 89 85 98 f3 ff ff 	mov    %rax,-0xc68(%rbp)
   13563:	48 8d 85 10 e8 ff ff 	lea    -0x17f0(%rbp),%rax
   1356a:	48 89 85 a0 f3 ff ff 	mov    %rax,-0xc60(%rbp)
   13571:	48 8d 85 10 e8 ff ff 	lea    -0x17f0(%rbp),%rax
   13578:	48 83 c0 20          	add    $0x20,%rax
   1357c:	48 89 85 a8 f3 ff ff 	mov    %rax,-0xc58(%rbp)
   13583:	48 8d 85 10 e8 ff ff 	lea    -0x17f0(%rbp),%rax
   1358a:	48 83 c0 20          	add    $0x20,%rax
   1358e:	48 89 85 b0 f3 ff ff 	mov    %rax,-0xc50(%rbp)
   13595:	48 8d 85 10 e8 ff ff 	lea    -0x17f0(%rbp),%rax
   1359c:	48 83 c0 18          	add    $0x18,%rax
   135a0:	48 89 85 b8 f3 ff ff 	mov    %rax,-0xc48(%rbp)
   135a7:	48 8d 85 10 e8 ff ff 	lea    -0x17f0(%rbp),%rax
   135ae:	48 83 c0 18          	add    $0x18,%rax
   135b2:	48 89 85 c0 f3 ff ff 	mov    %rax,-0xc40(%rbp)
   135b9:	48 8d 85 10 e8 ff ff 	lea    -0x17f0(%rbp),%rax
   135c0:	48 83 c0 28          	add    $0x28,%rax
   135c4:	48 89 85 c8 f3 ff ff 	mov    %rax,-0xc38(%rbp)
   135cb:	48 8d 85 10 e8 ff ff 	lea    -0x17f0(%rbp),%rax
   135d2:	48 83 c0 20          	add    $0x20,%rax
   135d6:	48 89 85 d0 f3 ff ff 	mov    %rax,-0xc30(%rbp)
   135dd:	48 c7 85 d8 f3 ff ff 	movq   $0x0,-0xc28(%rbp)
   135e4:	00 00 00 00 
   135e8:	48 c7 85 e0 f3 ff ff 	movq   $0x0,-0xc20(%rbp)
   135ef:	00 00 00 00 
   135f3:	48 8d 85 10 e8 ff ff 	lea    -0x17f0(%rbp),%rax
   135fa:	48 83 c0 20          	add    $0x20,%rax
   135fe:	48 89 85 e8 f3 ff ff 	mov    %rax,-0xc18(%rbp)
   13605:	48 8d 85 10 e8 ff ff 	lea    -0x17f0(%rbp),%rax
   1360c:	48 89 85 f0 f3 ff ff 	mov    %rax,-0xc10(%rbp)
   13613:	48 8d 85 10 e8 ff ff 	lea    -0x17f0(%rbp),%rax
   1361a:	48 89 85 f8 f3 ff ff 	mov    %rax,-0xc08(%rbp)
   13621:	48 c7 85 00 f4 ff ff 	movq   $0x0,-0xc00(%rbp)
   13628:	00 00 00 00 
   1362c:	48 8d 85 10 e8 ff ff 	lea    -0x17f0(%rbp),%rax
   13633:	48 83 c0 10          	add    $0x10,%rax
   13637:	48 89 85 08 f4 ff ff 	mov    %rax,-0xbf8(%rbp)
   1363e:	48 8d 85 10 e8 ff ff 	lea    -0x17f0(%rbp),%rax
   13645:	48 83 c0 18          	add    $0x18,%rax
   13649:	48 89 85 10 f4 ff ff 	mov    %rax,-0xbf0(%rbp)
   13650:	48 c7 85 18 f4 ff ff 	movq   $0x0,-0xbe8(%rbp)
   13657:	00 00 00 00 
   1365b:	48 c7 85 20 f4 ff ff 	movq   $0x0,-0xbe0(%rbp)
   13662:	00 00 00 00 
   13666:	48 8d 85 10 e8 ff ff 	lea    -0x17f0(%rbp),%rax
   1366d:	48 83 c0 20          	add    $0x20,%rax
   13671:	48 89 85 28 f4 ff ff 	mov    %rax,-0xbd8(%rbp)
   13678:	48 8d 85 10 e8 ff ff 	lea    -0x17f0(%rbp),%rax
   1367f:	48 83 c0 08          	add    $0x8,%rax
   13683:	48 89 85 30 f4 ff ff 	mov    %rax,-0xbd0(%rbp)
   1368a:	48 8d 85 10 e8 ff ff 	lea    -0x17f0(%rbp),%rax
   13691:	48 83 c0 20          	add    $0x20,%rax
   13695:	48 89 85 38 f4 ff ff 	mov    %rax,-0xbc8(%rbp)
   1369c:	48 8d 85 10 e8 ff ff 	lea    -0x17f0(%rbp),%rax
   136a3:	48 83 c0 18          	add    $0x18,%rax
   136a7:	48 89 85 40 f4 ff ff 	mov    %rax,-0xbc0(%rbp)
   136ae:	48 8d 85 10 e8 ff ff 	lea    -0x17f0(%rbp),%rax
   136b5:	48 83 c0 18          	add    $0x18,%rax
   136b9:	48 89 85 48 f4 ff ff 	mov    %rax,-0xbb8(%rbp)
   136c0:	48 8d 85 10 e8 ff ff 	lea    -0x17f0(%rbp),%rax
   136c7:	48 83 c0 08          	add    $0x8,%rax
   136cb:	48 89 85 50 f4 ff ff 	mov    %rax,-0xbb0(%rbp)
   136d2:	48 8d 85 10 e8 ff ff 	lea    -0x17f0(%rbp),%rax
   136d9:	48 89 85 58 f4 ff ff 	mov    %rax,-0xba8(%rbp)
   136e0:	48 8d 85 10 e8 ff ff 	lea    -0x17f0(%rbp),%rax
   136e7:	48 83 c0 10          	add    $0x10,%rax
   136eb:	48 89 85 60 f4 ff ff 	mov    %rax,-0xba0(%rbp)
   136f2:	48 c7 85 68 f4 ff ff 	movq   $0x0,-0xb98(%rbp)
   136f9:	00 00 00 00 
   136fd:	48 c7 85 70 f4 ff ff 	movq   $0x0,-0xb90(%rbp)
   13704:	00 00 00 00 
   13708:	48 8d 85 10 e8 ff ff 	lea    -0x17f0(%rbp),%rax
   1370f:	48 83 c0 08          	add    $0x8,%rax
   13713:	48 89 85 78 f4 ff ff 	mov    %rax,-0xb88(%rbp)
   1371a:	48 8d 85 10 e8 ff ff 	lea    -0x17f0(%rbp),%rax
   13721:	48 83 c0 20          	add    $0x20,%rax
   13725:	48 89 85 80 f4 ff ff 	mov    %rax,-0xb80(%rbp)
   1372c:	48 8d 85 10 e8 ff ff 	lea    -0x17f0(%rbp),%rax
   13733:	48 83 c0 28          	add    $0x28,%rax
   13737:	48 89 85 88 f4 ff ff 	mov    %rax,-0xb78(%rbp)
   1373e:	48 c7 85 90 f4 ff ff 	movq   $0x0,-0xb70(%rbp)
   13745:	00 00 00 00 
   13749:	48 8d 85 10 e8 ff ff 	lea    -0x17f0(%rbp),%rax
   13750:	48 83 c0 10          	add    $0x10,%rax
   13754:	48 89 85 98 f4 ff ff 	mov    %rax,-0xb68(%rbp)
   1375b:	48 8d 85 10 e8 ff ff 	lea    -0x17f0(%rbp),%rax
   13762:	48 83 c0 20          	add    $0x20,%rax
   13766:	48 89 85 a0 f4 ff ff 	mov    %rax,-0xb60(%rbp)
   1376d:	48 8d 85 10 e8 ff ff 	lea    -0x17f0(%rbp),%rax
   13774:	48 83 c0 28          	add    $0x28,%rax
   13778:	48 89 85 a8 f4 ff ff 	mov    %rax,-0xb58(%rbp)
   1377f:	48 c7 85 b0 f4 ff ff 	movq   $0x0,-0xb50(%rbp)
   13786:	00 00 00 00 
   1378a:	48 8d 85 10 e8 ff ff 	lea    -0x17f0(%rbp),%rax
   13791:	48 83 c0 28          	add    $0x28,%rax
   13795:	48 89 85 b8 f4 ff ff 	mov    %rax,-0xb48(%rbp)
   1379c:	48 8d 85 10 e8 ff ff 	lea    -0x17f0(%rbp),%rax
   137a3:	48 83 c0 08          	add    $0x8,%rax
   137a7:	48 89 85 c0 f4 ff ff 	mov    %rax,-0xb40(%rbp)
   137ae:	48 c7 85 c8 f4 ff ff 	movq   $0x0,-0xb38(%rbp)
   137b5:	00 00 00 00 
   137b9:	48 c7 85 d0 f4 ff ff 	movq   $0x0,-0xb30(%rbp)
   137c0:	00 00 00 00 
   137c4:	48 c7 85 d8 f4 ff ff 	movq   $0x0,-0xb28(%rbp)
   137cb:	00 00 00 00 
   137cf:	48 8d 85 10 e8 ff ff 	lea    -0x17f0(%rbp),%rax
   137d6:	48 83 c0 18          	add    $0x18,%rax
   137da:	48 89 85 e0 f4 ff ff 	mov    %rax,-0xb20(%rbp)
   137e1:	48 8d 85 10 e8 ff ff 	lea    -0x17f0(%rbp),%rax
   137e8:	48 89 85 e8 f4 ff ff 	mov    %rax,-0xb18(%rbp)
   137ef:	48 8d 85 10 e8 ff ff 	lea    -0x17f0(%rbp),%rax
   137f6:	48 83 c0 10          	add    $0x10,%rax
   137fa:	48 89 85 f0 f4 ff ff 	mov    %rax,-0xb10(%rbp)
   13801:	48 8d 85 10 e8 ff ff 	lea    -0x17f0(%rbp),%rax
   13808:	48 83 c0 20          	add    $0x20,%rax
   1380c:	48 89 85 f8 f4 ff ff 	mov    %rax,-0xb08(%rbp)
   13813:	48 8d 85 10 e8 ff ff 	lea    -0x17f0(%rbp),%rax
   1381a:	48 83 c0 18          	add    $0x18,%rax
   1381e:	48 89 85 00 f5 ff ff 	mov    %rax,-0xb00(%rbp)
   13825:	48 8d 85 10 e8 ff ff 	lea    -0x17f0(%rbp),%rax
   1382c:	48 83 c0 20          	add    $0x20,%rax
   13830:	48 89 85 08 f5 ff ff 	mov    %rax,-0xaf8(%rbp)
   13837:	48 8d 85 10 e8 ff ff 	lea    -0x17f0(%rbp),%rax
   1383e:	48 83 c0 20          	add    $0x20,%rax
   13842:	48 89 85 10 f5 ff ff 	mov    %rax,-0xaf0(%rbp)
   13849:	48 8d 85 10 e8 ff ff 	lea    -0x17f0(%rbp),%rax
   13850:	48 83 c0 20          	add    $0x20,%rax
   13854:	48 89 85 18 f5 ff ff 	mov    %rax,-0xae8(%rbp)
   1385b:	48 8d 85 10 e8 ff ff 	lea    -0x17f0(%rbp),%rax
   13862:	48 83 c0 28          	add    $0x28,%rax
   13866:	48 89 85 20 f5 ff ff 	mov    %rax,-0xae0(%rbp)
   1386d:	48 8d 85 10 e8 ff ff 	lea    -0x17f0(%rbp),%rax
   13874:	48 83 c0 20          	add    $0x20,%rax
   13878:	48 89 85 28 f5 ff ff 	mov    %rax,-0xad8(%rbp)
   1387f:	48 8d 85 10 e8 ff ff 	lea    -0x17f0(%rbp),%rax
   13886:	48 83 c0 18          	add    $0x18,%rax
   1388a:	48 89 85 30 f5 ff ff 	mov    %rax,-0xad0(%rbp)
   13891:	48 8d 85 10 e8 ff ff 	lea    -0x17f0(%rbp),%rax
   13898:	48 83 c0 28          	add    $0x28,%rax
   1389c:	48 89 85 38 f5 ff ff 	mov    %rax,-0xac8(%rbp)
   138a3:	48 8d 85 10 e8 ff ff 	lea    -0x17f0(%rbp),%rax
   138aa:	48 83 c0 20          	add    $0x20,%rax
   138ae:	48 89 85 40 f5 ff ff 	mov    %rax,-0xac0(%rbp)
   138b5:	48 8d 85 10 e8 ff ff 	lea    -0x17f0(%rbp),%rax
   138bc:	48 89 85 48 f5 ff ff 	mov    %rax,-0xab8(%rbp)
   138c3:	48 8d 85 10 e8 ff ff 	lea    -0x17f0(%rbp),%rax
   138ca:	48 89 85 50 f5 ff ff 	mov    %rax,-0xab0(%rbp)
   138d1:	48 8d 85 10 e8 ff ff 	lea    -0x17f0(%rbp),%rax
   138d8:	48 83 c0 20          	add    $0x20,%rax
   138dc:	48 89 85 58 f5 ff ff 	mov    %rax,-0xaa8(%rbp)
   138e3:	48 c7 85 60 f5 ff ff 	movq   $0x0,-0xaa0(%rbp)
   138ea:	00 00 00 00 
   138ee:	48 8d 85 10 e8 ff ff 	lea    -0x17f0(%rbp),%rax
   138f5:	48 83 c0 20          	add    $0x20,%rax
   138f9:	48 89 85 68 f5 ff ff 	mov    %rax,-0xa98(%rbp)
   13900:	48 c7 85 70 f5 ff ff 	movq   $0x0,-0xa90(%rbp)
   13907:	00 00 00 00 
   1390b:	48 8d 85 10 e8 ff ff 	lea    -0x17f0(%rbp),%rax
   13912:	48 83 c0 28          	add    $0x28,%rax
   13916:	48 89 85 78 f5 ff ff 	mov    %rax,-0xa88(%rbp)
   1391d:	48 8d 85 10 e8 ff ff 	lea    -0x17f0(%rbp),%rax
   13924:	48 83 c0 10          	add    $0x10,%rax
   13928:	48 89 85 80 f5 ff ff 	mov    %rax,-0xa80(%rbp)
   1392f:	48 8d 85 10 e8 ff ff 	lea    -0x17f0(%rbp),%rax
   13936:	48 83 c0 20          	add    $0x20,%rax
   1393a:	48 89 85 88 f5 ff ff 	mov    %rax,-0xa78(%rbp)
   13941:	48 8d 85 10 e8 ff ff 	lea    -0x17f0(%rbp),%rax
   13948:	48 83 c0 20          	add    $0x20,%rax
   1394c:	48 89 85 90 f5 ff ff 	mov    %rax,-0xa70(%rbp)
   13953:	48 8d 85 10 e8 ff ff 	lea    -0x17f0(%rbp),%rax
   1395a:	48 83 c0 20          	add    $0x20,%rax
   1395e:	48 89 85 98 f5 ff ff 	mov    %rax,-0xa68(%rbp)
   13965:	48 8d 85 10 e8 ff ff 	lea    -0x17f0(%rbp),%rax
   1396c:	48 89 85 a0 f5 ff ff 	mov    %rax,-0xa60(%rbp)
   13973:	48 8d 85 10 e8 ff ff 	lea    -0x17f0(%rbp),%rax
   1397a:	48 83 c0 28          	add    $0x28,%rax
   1397e:	48 89 85 a8 f5 ff ff 	mov    %rax,-0xa58(%rbp)
   13985:	48 8d 85 10 e8 ff ff 	lea    -0x17f0(%rbp),%rax
   1398c:	48 83 c0 28          	add    $0x28,%rax
   13990:	48 89 85 b0 f5 ff ff 	mov    %rax,-0xa50(%rbp)
   13997:	48 8d 85 10 e8 ff ff 	lea    -0x17f0(%rbp),%rax
   1399e:	48 83 c0 10          	add    $0x10,%rax
   139a2:	48 89 85 b8 f5 ff ff 	mov    %rax,-0xa48(%rbp)
   139a9:	48 c7 85 c0 f5 ff ff 	movq   $0x0,-0xa40(%rbp)
   139b0:	00 00 00 00 
   139b4:	48 c7 85 c8 f5 ff ff 	movq   $0x0,-0xa38(%rbp)
   139bb:	00 00 00 00 
   139bf:	48 c7 85 d0 f5 ff ff 	movq   $0x0,-0xa30(%rbp)
   139c6:	00 00 00 00 
   139ca:	48 8d 85 10 e8 ff ff 	lea    -0x17f0(%rbp),%rax
   139d1:	48 89 85 d8 f5 ff ff 	mov    %rax,-0xa28(%rbp)
   139d8:	48 8d 85 10 e8 ff ff 	lea    -0x17f0(%rbp),%rax
   139df:	48 83 c0 20          	add    $0x20,%rax
   139e3:	48 89 85 e0 f5 ff ff 	mov    %rax,-0xa20(%rbp)
   139ea:	48 8d 85 10 e8 ff ff 	lea    -0x17f0(%rbp),%rax
   139f1:	48 83 c0 20          	add    $0x20,%rax
   139f5:	48 89 85 e8 f5 ff ff 	mov    %rax,-0xa18(%rbp)
   139fc:	48 8d 85 10 e8 ff ff 	lea    -0x17f0(%rbp),%rax
   13a03:	48 83 c0 18          	add    $0x18,%rax
   13a07:	48 89 85 f0 f5 ff ff 	mov    %rax,-0xa10(%rbp)
   13a0e:	48 c7 85 f8 f5 ff ff 	movq   $0x0,-0xa08(%rbp)
   13a15:	00 00 00 00 
   13a19:	48 c7 85 00 f6 ff ff 	movq   $0x0,-0xa00(%rbp)
   13a20:	00 00 00 00 
   13a24:	48 8d 85 10 e8 ff ff 	lea    -0x17f0(%rbp),%rax
   13a2b:	48 83 c0 20          	add    $0x20,%rax
   13a2f:	48 89 85 08 f6 ff ff 	mov    %rax,-0x9f8(%rbp)
   13a36:	48 8d 85 10 e8 ff ff 	lea    -0x17f0(%rbp),%rax
   13a3d:	48 83 c0 20          	add    $0x20,%rax
   13a41:	48 89 85 10 f6 ff ff 	mov    %rax,-0x9f0(%rbp)
   13a48:	48 c7 85 18 f6 ff ff 	movq   $0x0,-0x9e8(%rbp)
   13a4f:	00 00 00 00 
   13a53:	48 8d 85 10 e8 ff ff 	lea    -0x17f0(%rbp),%rax
   13a5a:	48 83 c0 20          	add    $0x20,%rax
   13a5e:	48 89 85 20 f6 ff ff 	mov    %rax,-0x9e0(%rbp)
   13a65:	48 8d 85 10 e8 ff ff 	lea    -0x17f0(%rbp),%rax
   13a6c:	48 83 c0 20          	add    $0x20,%rax
   13a70:	48 89 85 28 f6 ff ff 	mov    %rax,-0x9d8(%rbp)
   13a77:	48 c7 85 30 f6 ff ff 	movq   $0x0,-0x9d0(%rbp)
   13a7e:	00 00 00 00 
   13a82:	48 8d 85 10 e8 ff ff 	lea    -0x17f0(%rbp),%rax
   13a89:	48 83 c0 20          	add    $0x20,%rax
   13a8d:	48 89 85 38 f6 ff ff 	mov    %rax,-0x9c8(%rbp)
   13a94:	48 8d 85 10 e8 ff ff 	lea    -0x17f0(%rbp),%rax
   13a9b:	48 89 85 40 f6 ff ff 	mov    %rax,-0x9c0(%rbp)
   13aa2:	48 8d 85 10 e8 ff ff 	lea    -0x17f0(%rbp),%rax
   13aa9:	48 83 c0 20          	add    $0x20,%rax
   13aad:	48 89 85 48 f6 ff ff 	mov    %rax,-0x9b8(%rbp)
   13ab4:	48 8d 85 10 e8 ff ff 	lea    -0x17f0(%rbp),%rax
   13abb:	48 83 c0 20          	add    $0x20,%rax
   13abf:	48 89 85 50 f6 ff ff 	mov    %rax,-0x9b0(%rbp)
   13ac6:	48 8d 85 10 e8 ff ff 	lea    -0x17f0(%rbp),%rax
   13acd:	48 83 c0 08          	add    $0x8,%rax
   13ad1:	48 89 85 58 f6 ff ff 	mov    %rax,-0x9a8(%rbp)
   13ad8:	48 8d 85 10 e8 ff ff 	lea    -0x17f0(%rbp),%rax
   13adf:	48 83 c0 20          	add    $0x20,%rax
   13ae3:	48 89 85 60 f6 ff ff 	mov    %rax,-0x9a0(%rbp)
   13aea:	48 8d 85 10 e8 ff ff 	lea    -0x17f0(%rbp),%rax
   13af1:	48 83 c0 20          	add    $0x20,%rax
   13af5:	48 89 85 68 f6 ff ff 	mov    %rax,-0x998(%rbp)
   13afc:	48 8d 85 10 e8 ff ff 	lea    -0x17f0(%rbp),%rax
   13b03:	48 83 c0 20          	add    $0x20,%rax
   13b07:	48 89 85 70 f6 ff ff 	mov    %rax,-0x990(%rbp)
   13b0e:	48 8d 85 10 e8 ff ff 	lea    -0x17f0(%rbp),%rax
   13b15:	48 83 c0 18          	add    $0x18,%rax
   13b19:	48 89 85 78 f6 ff ff 	mov    %rax,-0x988(%rbp)
   13b20:	48 8d 85 10 e8 ff ff 	lea    -0x17f0(%rbp),%rax
   13b27:	48 83 c0 20          	add    $0x20,%rax
   13b2b:	48 89 85 80 f6 ff ff 	mov    %rax,-0x980(%rbp)
   13b32:	48 8d 85 10 e8 ff ff 	lea    -0x17f0(%rbp),%rax
   13b39:	48 83 c0 20          	add    $0x20,%rax
   13b3d:	48 89 85 88 f6 ff ff 	mov    %rax,-0x978(%rbp)
   13b44:	48 8d 85 10 e8 ff ff 	lea    -0x17f0(%rbp),%rax
   13b4b:	48 89 85 90 f6 ff ff 	mov    %rax,-0x970(%rbp)
   13b52:	48 8d 85 10 e8 ff ff 	lea    -0x17f0(%rbp),%rax
   13b59:	48 83 c0 20          	add    $0x20,%rax
   13b5d:	48 89 85 98 f6 ff ff 	mov    %rax,-0x968(%rbp)
   13b64:	48 8d 85 10 e8 ff ff 	lea    -0x17f0(%rbp),%rax
   13b6b:	48 83 c0 20          	add    $0x20,%rax
   13b6f:	48 89 85 a0 f6 ff ff 	mov    %rax,-0x960(%rbp)
   13b76:	48 c7 85 a8 f6 ff ff 	movq   $0x0,-0x958(%rbp)
   13b7d:	00 00 00 00 
   13b81:	48 8d 85 10 e8 ff ff 	lea    -0x17f0(%rbp),%rax
   13b88:	48 83 c0 20          	add    $0x20,%rax
   13b8c:	48 89 85 b0 f6 ff ff 	mov    %rax,-0x950(%rbp)
   13b93:	48 c7 85 b8 f6 ff ff 	movq   $0x0,-0x948(%rbp)
   13b9a:	00 00 00 00 
   13b9e:	48 c7 85 c0 f6 ff ff 	movq   $0x0,-0x940(%rbp)
   13ba5:	00 00 00 00 
   13ba9:	48 8d 85 10 e8 ff ff 	lea    -0x17f0(%rbp),%rax
   13bb0:	48 83 c0 20          	add    $0x20,%rax
   13bb4:	48 89 85 c8 f6 ff ff 	mov    %rax,-0x938(%rbp)
   13bbb:	48 c7 85 d0 f6 ff ff 	movq   $0x0,-0x930(%rbp)
   13bc2:	00 00 00 00 
   13bc6:	48 8d 85 10 e8 ff ff 	lea    -0x17f0(%rbp),%rax
   13bcd:	48 83 c0 20          	add    $0x20,%rax
   13bd1:	48 89 85 d8 f6 ff ff 	mov    %rax,-0x928(%rbp)
   13bd8:	48 8d 85 10 e8 ff ff 	lea    -0x17f0(%rbp),%rax
   13bdf:	48 83 c0 20          	add    $0x20,%rax
   13be3:	48 89 85 e0 f6 ff ff 	mov    %rax,-0x920(%rbp)
   13bea:	48 8d 85 10 e8 ff ff 	lea    -0x17f0(%rbp),%rax
   13bf1:	48 83 c0 20          	add    $0x20,%rax
   13bf5:	48 89 85 e8 f6 ff ff 	mov    %rax,-0x918(%rbp)
   13bfc:	48 8d 85 10 e8 ff ff 	lea    -0x17f0(%rbp),%rax
   13c03:	48 83 c0 20          	add    $0x20,%rax
   13c07:	48 89 85 f0 f6 ff ff 	mov    %rax,-0x910(%rbp)
   13c0e:	48 8d 85 10 e8 ff ff 	lea    -0x17f0(%rbp),%rax
   13c15:	48 83 c0 10          	add    $0x10,%rax
   13c19:	48 89 85 f8 f6 ff ff 	mov    %rax,-0x908(%rbp)
   13c20:	48 8d 85 10 e8 ff ff 	lea    -0x17f0(%rbp),%rax
   13c27:	48 83 c0 20          	add    $0x20,%rax
   13c2b:	48 89 85 00 f7 ff ff 	mov    %rax,-0x900(%rbp)
   13c32:	48 c7 85 08 f7 ff ff 	movq   $0x0,-0x8f8(%rbp)
   13c39:	00 00 00 00 
   13c3d:	48 8d 85 10 e8 ff ff 	lea    -0x17f0(%rbp),%rax
   13c44:	48 83 c0 20          	add    $0x20,%rax
   13c48:	48 89 85 10 f7 ff ff 	mov    %rax,-0x8f0(%rbp)
   13c4f:	48 8d 85 10 e8 ff ff 	lea    -0x17f0(%rbp),%rax
   13c56:	48 83 c0 20          	add    $0x20,%rax
   13c5a:	48 89 85 18 f7 ff ff 	mov    %rax,-0x8e8(%rbp)
   13c61:	48 8d 85 10 e8 ff ff 	lea    -0x17f0(%rbp),%rax
   13c68:	48 83 c0 20          	add    $0x20,%rax
   13c6c:	48 89 85 20 f7 ff ff 	mov    %rax,-0x8e0(%rbp)
   13c73:	48 8d 85 10 e8 ff ff 	lea    -0x17f0(%rbp),%rax
   13c7a:	48 83 c0 20          	add    $0x20,%rax
   13c7e:	48 89 85 28 f7 ff ff 	mov    %rax,-0x8d8(%rbp)
   13c85:	48 8d 85 10 e8 ff ff 	lea    -0x17f0(%rbp),%rax
   13c8c:	48 83 c0 10          	add    $0x10,%rax
   13c90:	48 89 85 30 f7 ff ff 	mov    %rax,-0x8d0(%rbp)
   13c97:	48 c7 85 38 f7 ff ff 	movq   $0x0,-0x8c8(%rbp)
   13c9e:	00 00 00 00 
   13ca2:	48 8d 85 10 e8 ff ff 	lea    -0x17f0(%rbp),%rax
   13ca9:	48 83 c0 20          	add    $0x20,%rax
   13cad:	48 89 85 40 f7 ff ff 	mov    %rax,-0x8c0(%rbp)
   13cb4:	48 8d 85 10 e8 ff ff 	lea    -0x17f0(%rbp),%rax
   13cbb:	48 83 c0 20          	add    $0x20,%rax
   13cbf:	48 89 85 48 f7 ff ff 	mov    %rax,-0x8b8(%rbp)
   13cc6:	48 8d 85 10 e8 ff ff 	lea    -0x17f0(%rbp),%rax
   13ccd:	48 83 c0 28          	add    $0x28,%rax
   13cd1:	48 89 85 50 f7 ff ff 	mov    %rax,-0x8b0(%rbp)
   13cd8:	48 8d 85 10 e8 ff ff 	lea    -0x17f0(%rbp),%rax
   13cdf:	48 83 c0 20          	add    $0x20,%rax
   13ce3:	48 89 85 58 f7 ff ff 	mov    %rax,-0x8a8(%rbp)
   13cea:	48 8d 85 10 e8 ff ff 	lea    -0x17f0(%rbp),%rax
   13cf1:	48 89 85 60 f7 ff ff 	mov    %rax,-0x8a0(%rbp)
   13cf8:	48 8d 85 10 e8 ff ff 	lea    -0x17f0(%rbp),%rax
   13cff:	48 83 c0 20          	add    $0x20,%rax
   13d03:	48 89 85 68 f7 ff ff 	mov    %rax,-0x898(%rbp)
   13d0a:	48 8d 85 10 e8 ff ff 	lea    -0x17f0(%rbp),%rax
   13d11:	48 83 c0 20          	add    $0x20,%rax
   13d15:	48 89 85 70 f7 ff ff 	mov    %rax,-0x890(%rbp)
   13d1c:	48 8d 85 10 e8 ff ff 	lea    -0x17f0(%rbp),%rax
   13d23:	48 83 c0 18          	add    $0x18,%rax
   13d27:	48 89 85 78 f7 ff ff 	mov    %rax,-0x888(%rbp)
   13d2e:	48 8d 85 10 e8 ff ff 	lea    -0x17f0(%rbp),%rax
   13d35:	48 83 c0 10          	add    $0x10,%rax
   13d39:	48 89 85 80 f7 ff ff 	mov    %rax,-0x880(%rbp)
   13d40:	48 8d 85 10 e8 ff ff 	lea    -0x17f0(%rbp),%rax
   13d47:	48 83 c0 20          	add    $0x20,%rax
   13d4b:	48 89 85 88 f7 ff ff 	mov    %rax,-0x878(%rbp)
   13d52:	48 8d 85 10 e8 ff ff 	lea    -0x17f0(%rbp),%rax
   13d59:	48 83 c0 20          	add    $0x20,%rax
   13d5d:	48 89 85 90 f7 ff ff 	mov    %rax,-0x870(%rbp)
   13d64:	48 8d 85 10 e8 ff ff 	lea    -0x17f0(%rbp),%rax
   13d6b:	48 83 c0 20          	add    $0x20,%rax
   13d6f:	48 89 85 98 f7 ff ff 	mov    %rax,-0x868(%rbp)
   13d76:	48 8d 85 10 e8 ff ff 	lea    -0x17f0(%rbp),%rax
   13d7d:	48 83 c0 20          	add    $0x20,%rax
   13d81:	48 89 85 a0 f7 ff ff 	mov    %rax,-0x860(%rbp)
   13d88:	48 c7 85 a8 f7 ff ff 	movq   $0x0,-0x858(%rbp)
   13d8f:	00 00 00 00 
   13d93:	48 8d 85 10 e8 ff ff 	lea    -0x17f0(%rbp),%rax
   13d9a:	48 89 85 b0 f7 ff ff 	mov    %rax,-0x850(%rbp)
   13da1:	48 8d 85 10 e8 ff ff 	lea    -0x17f0(%rbp),%rax
   13da8:	48 83 c0 20          	add    $0x20,%rax
   13dac:	48 89 85 b8 f7 ff ff 	mov    %rax,-0x848(%rbp)
   13db3:	48 c7 85 c0 f7 ff ff 	movq   $0x0,-0x840(%rbp)
   13dba:	00 00 00 00 
   13dbe:	48 8d 85 10 e8 ff ff 	lea    -0x17f0(%rbp),%rax
   13dc5:	48 83 c0 28          	add    $0x28,%rax
   13dc9:	48 89 85 c8 f7 ff ff 	mov    %rax,-0x838(%rbp)
   13dd0:	48 8d 85 10 e8 ff ff 	lea    -0x17f0(%rbp),%rax
   13dd7:	48 83 c0 20          	add    $0x20,%rax
   13ddb:	48 89 85 d0 f7 ff ff 	mov    %rax,-0x830(%rbp)
   13de2:	48 c7 85 d8 f7 ff ff 	movq   $0x0,-0x828(%rbp)
   13de9:	00 00 00 00 
   13ded:	c6 85 b3 e2 ff ff 01 	movb   $0x1,-0x1d4d(%rbp)
   13df4:	66 c7 85 c0 e2 ff ff 	movw   $0x49e8,-0x1d40(%rbp)
   13dfb:	e8 49 
   13dfd:	c7 85 c0 eb ff ff 01 	movl   $0x1,-0x1440(%rbp)
   13e04:	00 00 00 
   13e07:	c7 85 c4 eb ff ff ff 	movl   $0xffffffff,-0x143c(%rbp)
   13e0e:	ff ff ff 
   13e11:	c7 85 c8 eb ff ff ff 	movl   $0xffffffff,-0x1438(%rbp)
   13e18:	ff ff ff 
   13e1b:	c7 85 cc eb ff ff 01 	movl   $0x1,-0x1434(%rbp)
   13e22:	00 00 00 
   13e25:	c7 85 d0 eb ff ff 47 	movl   $0xb2789d47,-0x1430(%rbp)
   13e2c:	9d 78 b2 
   13e2f:	c7 85 d4 eb ff ff 01 	movl   $0x1,-0x142c(%rbp)
   13e36:	00 00 00 
   13e39:	c7 85 d8 eb ff ff 01 	movl   $0x1,-0x1428(%rbp)
   13e40:	00 00 00 
   13e43:	c7 85 dc eb ff ff 77 	movl   $0xd4948a77,-0x1424(%rbp)
   13e4a:	8a 94 d4 
   13e4d:	c7 85 e0 eb ff ff 02 	movl   $0x2,-0x1420(%rbp)
   13e54:	00 00 00 
   13e57:	c7 85 e4 eb ff ff 02 	movl   $0x2,-0x141c(%rbp)
   13e5e:	00 00 00 
   13e61:	c7 85 e8 eb ff ff 0f 	movl   $0x56941a0f,-0x1418(%rbp)
   13e68:	1a 94 56 
   13e6b:	c7 85 ec eb ff ff 01 	movl   $0x1,-0x1414(%rbp)
   13e72:	00 00 00 
   13e75:	c7 85 f0 eb ff ff 0f 	movl   $0x56941a0f,-0x1410(%rbp)
   13e7c:	1a 94 56 
   13e7f:	c7 85 f4 eb ff ff 47 	movl   $0xb2789d47,-0x140c(%rbp)
   13e86:	9d 78 b2 
   13e89:	c7 85 f8 eb ff ff 01 	movl   $0x1,-0x1408(%rbp)
   13e90:	00 00 00 
   13e93:	c7 85 fc eb ff ff 02 	movl   $0x2,-0x1404(%rbp)
   13e9a:	00 00 00 
   13e9d:	c7 85 00 ec ff ff ff 	movl   $0xffffffff,-0x1400(%rbp)
   13ea4:	ff ff ff 
   13ea7:	c7 85 04 ec ff ff 47 	movl   $0xb2789d47,-0x13fc(%rbp)
   13eae:	9d 78 b2 
   13eb1:	c7 85 08 ec ff ff 02 	movl   $0x2,-0x13f8(%rbp)
   13eb8:	00 00 00 
   13ebb:	c7 85 0c ec ff ff 47 	movl   $0xb2789d47,-0x13f4(%rbp)
   13ec2:	9d 78 b2 
   13ec5:	c7 85 10 ec ff ff 02 	movl   $0x2,-0x13f0(%rbp)
   13ecc:	00 00 00 
   13ecf:	c7 85 14 ec ff ff 02 	movl   $0x2,-0x13ec(%rbp)
   13ed6:	00 00 00 
   13ed9:	c7 85 18 ec ff ff 77 	movl   $0xd4948a77,-0x13e8(%rbp)
   13ee0:	8a 94 d4 
   13ee3:	c7 85 1c ec ff ff 01 	movl   $0x1,-0x13e4(%rbp)
   13eea:	00 00 00 
   13eed:	c7 85 20 ec ff ff 01 	movl   $0x1,-0x13e0(%rbp)
   13ef4:	00 00 00 
   13ef7:	c7 85 24 ec ff ff 0f 	movl   $0x56941a0f,-0x13dc(%rbp)
   13efe:	1a 94 56 
   13f01:	c7 85 28 ec ff ff 01 	movl   $0x1,-0x13d8(%rbp)
   13f08:	00 00 00 
   13f0b:	c7 85 2c ec ff ff 47 	movl   $0xb2789d47,-0x13d4(%rbp)
   13f12:	9d 78 b2 
   13f15:	c7 85 30 ec ff ff 47 	movl   $0xb2789d47,-0x13d0(%rbp)
   13f1c:	9d 78 b2 
   13f1f:	c7 85 34 ec ff ff 01 	movl   $0x1,-0x13cc(%rbp)
   13f26:	00 00 00 
   13f29:	48 8d 05 60 ed 00 00 	lea    0xed60(%rip),%rax        # 22c90 <g_66>
   13f30:	48 c7 00 00 00 00 00 	movq   $0x0,(%rax)
   13f37:	c7 85 90 e7 ff ff fc 	movl   $0xfffffffc,-0x1870(%rbp)
   13f3e:	ff ff ff 
   13f41:	8b 1d 3d b1 00 00    	mov    0xb13d(%rip),%ebx        # 1f084 <g_238>
   13f47:	48 8b 05 aa d7 00 00 	mov    0xd7aa(%rip),%rax        # 216f8 <g_72>
   13f4e:	48 8b 10             	mov    (%rax),%rdx
   13f51:	48 8b 05 a0 d7 00 00 	mov    0xd7a0(%rip),%rax        # 216f8 <g_72>
   13f58:	48 b9 3d c7 0f 96 69 	movabs $0xfaf80469960fc73d,%rcx
   13f5f:	04 f8 fa 
   13f62:	48 09 ca             	or     %rcx,%rdx
   13f65:	48 89 10             	mov    %rdx,(%rax)
   13f68:	8b 85 90 e2 ff ff    	mov    -0x1d70(%rbp),%eax
   13f6e:	0f b6 c0             	movzbl %al,%eax
   13f71:	be 02 00 00 00       	mov    $0x2,%esi
   13f76:	89 c7                	mov    %eax,%edi
   13f78:	e8 10 5d ff ff       	callq  9c8d <safe_rshift_func_uint8_t_u_s>
   13f7d:	48 8b 95 68 e4 ff ff 	mov    -0x1b98(%rbp),%rdx
   13f84:	48 8b 85 20 e5 ff ff 	mov    -0x1ae0(%rbp),%rax
   13f8b:	48 89 10             	mov    %rdx,(%rax)
   13f8e:	48 8b 85 20 e5 ff ff 	mov    -0x1ae0(%rbp),%rax
   13f95:	48 8b 00             	mov    (%rax),%rax
   13f98:	48 89 85 c8 e4 ff ff 	mov    %rax,-0x1b38(%rbp)
   13f9f:	48 83 bd c8 e4 ff ff 	cmpq   $0x0,-0x1b38(%rbp)
   13fa6:	00 
   13fa7:	0f 94 c0             	sete   %al
   13faa:	0f b6 c0             	movzbl %al,%eax
   13fad:	89 85 48 e4 ff ff    	mov    %eax,-0x1bb8(%rbp)
   13fb3:	8b 85 48 e4 ff ff    	mov    -0x1bb8(%rbp),%eax
   13fb9:	89 de                	mov    %ebx,%esi
   13fbb:	89 c7                	mov    %eax,%edi
   13fbd:	e8 63 5f ff ff       	callq  9f25 <safe_div_func_uint32_t_u_u>
   13fc2:	0f b7 c0             	movzwl %ax,%eax
   13fc5:	89 c6                	mov    %eax,%esi
   13fc7:	bf 00 00 00 00       	mov    $0x0,%edi
   13fcc:	e8 6c 5d ff ff       	callq  9d3d <safe_mul_func_uint16_t_u_u>
   13fd1:	66 85 c0             	test   %ax,%ax
   13fd4:	75 09                	jne    13fdf <func_57+0x474f>
   13fd6:	83 bd 90 e2 ff ff 00 	cmpl   $0x0,-0x1d70(%rbp)
   13fdd:	74 29                	je     14008 <func_57+0x4778>
   13fdf:	48 8b 15 82 dd 00 00 	mov    0xdd82(%rip),%rdx        # 21d68 <g_586>
   13fe6:	48 8b 85 c8 e4 ff ff 	mov    -0x1b38(%rbp),%rax
   13fed:	48 8b 00             	mov    (%rax),%rax
   13ff0:	48 8b 12             	mov    (%rdx),%rdx
   13ff3:	48 89 10             	mov    %rdx,(%rax)
   13ff6:	83 bd 90 e2 ff ff 00 	cmpl   $0x0,-0x1d70(%rbp)
   13ffd:	0f 84 19 01 00 00    	je     1411c <func_57+0x488c>
   14003:	e9 b0 03 00 00       	jmpq   143b8 <func_57+0x4b28>
   14008:	66 c7 85 c2 e2 ff ff 	movw   $0x1,-0x1d3e(%rbp)
   1400f:	01 00 
   14011:	48 8d 85 58 e4 ff ff 	lea    -0x1ba8(%rbp),%rax
   14018:	48 89 85 28 e5 ff ff 	mov    %rax,-0x1ad8(%rbp)
   1401f:	48 8b 95 58 e4 ff ff 	mov    -0x1ba8(%rbp),%rdx
   14026:	48 8b 85 28 e5 ff ff 	mov    -0x1ad8(%rbp),%rax
   1402d:	48 89 10             	mov    %rdx,(%rax)
   14030:	48 8b 85 28 e5 ff ff 	mov    -0x1ad8(%rbp),%rax
   14037:	48 8b 00             	mov    (%rax),%rax
   1403a:	48 85 c0             	test   %rax,%rax
   1403d:	0f 95 c0             	setne  %al
   14040:	0f b6 c0             	movzbl %al,%eax
   14043:	48 89 c7             	mov    %rax,%rdi
   14046:	e8 ce 5f ff ff       	callq  a019 <safe_unary_minus_func_uint64_t_u>
   1404b:	0f b6 d8             	movzbl %al,%ebx
   1404e:	44 0f b7 ad c2 e2 ff 	movzwl -0x1d3e(%rbp),%r13d
   14055:	ff 
   14056:	4c 0f be a5 b3 e2 ff 	movsbq -0x1d4d(%rbp),%r12
   1405d:	ff 
   1405e:	be 00 00 00 00       	mov    $0x0,%esi
   14063:	bf 01 00 00 00       	mov    $0x1,%edi
   14068:	e8 df 5b ff ff       	callq  9c4c <safe_lshift_func_uint8_t_u_u>
   1406d:	0f b6 d0             	movzbl %al,%edx
   14070:	8b 05 5a b0 00 00    	mov    0xb05a(%rip),%eax        # 1f0d0 <g_393>
   14076:	39 c2                	cmp    %eax,%edx
   14078:	0f 95 c0             	setne  %al
   1407b:	0f b6 c0             	movzbl %al,%eax
   1407e:	4c 89 e6             	mov    %r12,%rsi
   14081:	48 89 c7             	mov    %rax,%rdi
   14084:	e8 1f 58 ff ff       	callq  98a8 <safe_sub_func_int64_t_s_s>
   14089:	48 8b 95 88 e4 ff ff 	mov    -0x1b78(%rbp),%rdx
   14090:	0f b7 12             	movzwl (%rdx),%edx
   14093:	09 c2                	or     %eax,%edx
   14095:	48 8b 85 88 e4 ff ff 	mov    -0x1b78(%rbp),%rax
   1409c:	66 89 10             	mov    %dx,(%rax)
   1409f:	48 8b 85 88 e4 ff ff 	mov    -0x1b78(%rbp),%rax
   140a6:	0f b7 00             	movzwl (%rax),%eax
   140a9:	0f b7 d0             	movzwl %ax,%edx
   140ac:	0f b7 85 c2 e2 ff ff 	movzwl -0x1d3e(%rbp),%eax
   140b3:	89 d6                	mov    %edx,%esi
   140b5:	89 c7                	mov    %eax,%edi
   140b7:	e8 63 5c ff ff       	callq  9d1f <safe_sub_func_uint16_t_u_u>
   140bc:	0f b7 c0             	movzwl %ax,%eax
   140bf:	83 e0 01             	and    $0x1,%eax
   140c2:	41 39 c5             	cmp    %eax,%r13d
   140c5:	0f 95 c0             	setne  %al
   140c8:	0f b6 d0             	movzbl %al,%edx
   140cb:	48 8b 85 50 e4 ff ff 	mov    -0x1bb0(%rbp),%rax
   140d2:	0f b6 00             	movzbl (%rax),%eax
   140d5:	89 c1                	mov    %eax,%ecx
   140d7:	89 d0                	mov    %edx,%eax
   140d9:	09 c1                	or     %eax,%ecx
   140db:	89 ca                	mov    %ecx,%edx
   140dd:	48 8b 85 50 e4 ff ff 	mov    -0x1bb0(%rbp),%rax
   140e4:	88 10                	mov    %dl,(%rax)
   140e6:	0f b6 00             	movzbl (%rax),%eax
   140e9:	0f b6 c0             	movzbl %al,%eax
   140ec:	89 de                	mov    %ebx,%esi
   140ee:	89 c7                	mov    %eax,%edi
   140f0:	e8 65 5a ff ff       	callq  9b5a <safe_add_func_uint8_t_u_u>
   140f5:	48 8b 85 f8 e4 ff ff 	mov    -0x1b08(%rbp),%rax
   140fc:	48 3b 85 98 e4 ff ff 	cmp    -0x1b68(%rbp),%rax
   14103:	0f 95 c0             	setne  %al
   14106:	0f b6 c0             	movzbl %al,%eax
   14109:	09 85 1c e3 ff ff    	or     %eax,-0x1ce4(%rbp)
   1410f:	80 bd ae e2 ff ff 00 	cmpb   $0x0,-0x1d52(%rbp)
   14116:	0f 85 eb 01 00 00    	jne    14307 <func_57+0x4a77>
   1411c:	c7 85 08 e3 ff ff 00 	movl   $0x0,-0x1cf8(%rbp)
   14123:	00 00 00 
   14126:	e9 b0 01 00 00       	jmpq   142db <func_57+0x4a4b>
   1412b:	c7 85 20 e7 ff ff de 	movl   $0xe3eea7de,-0x18e0(%rbp)
   14132:	a7 ee e3 
   14135:	c7 85 24 e7 ff ff de 	movl   $0xe3eea7de,-0x18dc(%rbp)
   1413c:	a7 ee e3 
   1413f:	c7 85 28 e7 ff ff de 	movl   $0xe3eea7de,-0x18d8(%rbp)
   14146:	a7 ee e3 
   14149:	c7 85 2c e7 ff ff de 	movl   $0xe3eea7de,-0x18d4(%rbp)
   14150:	a7 ee e3 
   14153:	c7 85 30 e7 ff ff de 	movl   $0xe3eea7de,-0x18d0(%rbp)
   1415a:	a7 ee e3 
   1415d:	48 c7 85 80 e8 ff ff 	movq   $0x0,-0x1780(%rbp)
   14164:	00 00 00 00 
   14168:	48 c7 85 88 e8 ff ff 	movq   $0x0,-0x1778(%rbp)
   1416f:	00 00 00 00 
   14173:	48 c7 85 90 e8 ff ff 	movq   $0x0,-0x1770(%rbp)
   1417a:	00 00 00 00 
   1417e:	48 c7 85 98 e8 ff ff 	movq   $0x0,-0x1768(%rbp)
   14185:	00 00 00 00 
   14189:	48 c7 85 a0 e8 ff ff 	movq   $0x0,-0x1760(%rbp)
   14190:	00 00 00 00 
   14194:	48 c7 85 a8 e8 ff ff 	movq   $0x0,-0x1758(%rbp)
   1419b:	00 00 00 00 
   1419f:	48 c7 85 b0 e8 ff ff 	movq   $0x0,-0x1750(%rbp)
   141a6:	00 00 00 00 
   141aa:	48 c7 85 b8 e8 ff ff 	movq   $0x0,-0x1748(%rbp)
   141b1:	00 00 00 00 
   141b5:	c7 85 88 e3 ff ff a6 	movl   $0x459c89a6,-0x1c78(%rbp)
   141bc:	89 9c 45 
   141bf:	c7 85 28 e3 ff ff 00 	movl   $0x0,-0x1cd8(%rbp)
   141c6:	00 00 00 
   141c9:	eb 49                	jmp    14214 <func_57+0x4984>
   141cb:	c7 85 2c e3 ff ff 00 	movl   $0x0,-0x1cd4(%rbp)
   141d2:	00 00 00 
   141d5:	eb 2d                	jmp    14204 <func_57+0x4974>
   141d7:	8b 85 2c e3 ff ff    	mov    -0x1cd4(%rbp),%eax
   141dd:	48 98                	cltq   
   141df:	8b 95 28 e3 ff ff    	mov    -0x1cd8(%rbp),%edx
   141e5:	48 63 d2             	movslq %edx,%rdx
   141e8:	48 01 d2             	add    %rdx,%rdx
   141eb:	48 01 c2             	add    %rax,%rdx
   141ee:	48 8d 85 60 e4 ff ff 	lea    -0x1ba0(%rbp),%rax
   141f5:	48 89 84 d5 90 ef ff 	mov    %rax,-0x1070(%rbp,%rdx,8)
   141fc:	ff 
   141fd:	83 85 2c e3 ff ff 01 	addl   $0x1,-0x1cd4(%rbp)
   14204:	83 bd 2c e3 ff ff 01 	cmpl   $0x1,-0x1cd4(%rbp)
   1420b:	7e ca                	jle    141d7 <func_57+0x4947>
   1420d:	83 85 28 e3 ff ff 01 	addl   $0x1,-0x1cd8(%rbp)
   14214:	83 bd 28 e3 ff ff 09 	cmpl   $0x9,-0x1cd8(%rbp)
   1421b:	7e ae                	jle    141cb <func_57+0x493b>
   1421d:	80 bd b3 e2 ff ff 00 	cmpb   $0x0,-0x1d4d(%rbp)
   14224:	0f 85 c0 00 00 00    	jne    142ea <func_57+0x4a5a>
   1422a:	48 8b 85 60 e4 ff ff 	mov    -0x1ba0(%rbp),%rax
   14231:	48 89 85 60 e4 ff ff 	mov    %rax,-0x1ba0(%rbp)
   14238:	48 8b 85 60 e4 ff ff 	mov    -0x1ba0(%rbp),%rax
   1423f:	48 85 c0             	test   %rax,%rax
   14242:	0f 95 c0             	setne  %al
   14245:	0f b6 c0             	movzbl %al,%eax
   14248:	f7 d0                	not    %eax
   1424a:	39 85 70 e3 ff ff    	cmp    %eax,-0x1c90(%rbp)
   14250:	0f 96 c0             	setbe  %al
   14253:	0f b6 d0             	movzbl %al,%edx
   14256:	8b 85 28 e7 ff ff    	mov    -0x18d8(%rbp),%eax
   1425c:	39 c2                	cmp    %eax,%edx
   1425e:	75 09                	jne    14269 <func_57+0x49d9>
   14260:	83 bd 08 e3 ff ff 00 	cmpl   $0x0,-0x1cf8(%rbp)
   14267:	74 07                	je     14270 <func_57+0x49e0>
   14269:	b8 01 00 00 00       	mov    $0x1,%eax
   1426e:	eb 05                	jmp    14275 <func_57+0x49e5>
   14270:	b8 00 00 00 00       	mov    $0x0,%eax
   14275:	85 c0                	test   %eax,%eax
   14277:	0f 95 c0             	setne  %al
   1427a:	0f b6 d0             	movzbl %al,%edx
   1427d:	8b 05 f1 ad 00 00    	mov    0xadf1(%rip),%eax        # 1f074 <g_106>
   14283:	31 c2                	xor    %eax,%edx
   14285:	8b 85 90 e2 ff ff    	mov    -0x1d70(%rbp),%eax
   1428b:	31 d0                	xor    %edx,%eax
   1428d:	89 85 90 e2 ff ff    	mov    %eax,-0x1d70(%rbp)
   14293:	66 83 bd c0 e2 ff ff 	cmpw   $0x0,-0x1d40(%rbp)
   1429a:	00 
   1429b:	8b 85 94 e2 ff ff    	mov    -0x1d6c(%rbp),%eax
   142a1:	48 63 d0             	movslq %eax,%rdx
   142a4:	48 8b 85 98 e2 ff ff 	mov    -0x1d68(%rbp),%rax
   142ab:	48 8b 00             	mov    (%rax),%rax
   142ae:	48 39 c2             	cmp    %rax,%rdx
   142b1:	0f 96 c0             	setbe  %al
   142b4:	0f b6 c0             	movzbl %al,%eax
   142b7:	48 98                	cltq   
   142b9:	48 09 85 78 e4 ff ff 	or     %rax,-0x1b88(%rbp)
   142c0:	0f be 85 b2 e2 ff ff 	movsbl -0x1d4e(%rbp),%eax
   142c7:	09 85 04 e3 ff ff    	or     %eax,-0x1cfc(%rbp)
   142cd:	83 85 88 e3 ff ff 01 	addl   $0x1,-0x1c78(%rbp)
   142d4:	83 85 08 e3 ff ff 01 	addl   $0x1,-0x1cf8(%rbp)
   142db:	83 bd 08 e3 ff ff 04 	cmpl   $0x4,-0x1cf8(%rbp)
   142e2:	0f 8e 43 fe ff ff    	jle    1412b <func_57+0x489b>
   142e8:	eb 01                	jmp    142eb <func_57+0x4a5b>
   142ea:	90                   	nop
   142eb:	c6 85 ae e2 ff ff 00 	movb   $0x0,-0x1d52(%rbp)
   142f2:	80 bd ae e2 ff ff 04 	cmpb   $0x4,-0x1d52(%rbp)
   142f9:	7f 0d                	jg     14308 <func_57+0x4a78>
   142fb:	48 8b 85 80 e4 ff ff 	mov    -0x1b80(%rbp),%rax
   14302:	e9 6e 41 00 00       	jmpq   18475 <func_57+0x8be5>
   14307:	90                   	nop
   14308:	8b 05 76 ad 00 00    	mov    0xad76(%rip),%eax        # 1f084 <g_238>
   1430e:	83 c0 01             	add    $0x1,%eax
   14311:	89 05 6d ad 00 00    	mov    %eax,0xad6d(%rip)        # 1f084 <g_238>
   14317:	8b 05 67 ad 00 00    	mov    0xad67(%rip),%eax        # 1f084 <g_238>
   1431d:	83 f8 09             	cmp    $0x9,%eax
   14320:	0f 86 ff ec ff ff    	jbe    13025 <func_57+0x3795>
   14326:	e9 8d 00 00 00       	jmpq   143b8 <func_57+0x4b28>
   1432b:	48 c7 85 70 e4 ff ff 	movq   $0x0,-0x1b90(%rbp)
   14332:	00 00 00 00 
   14336:	48 8d 85 70 e4 ff ff 	lea    -0x1b90(%rbp),%rax
   1433d:	48 89 85 e0 e4 ff ff 	mov    %rax,-0x1b20(%rbp)
   14344:	48 8d 85 20 f1 ff ff 	lea    -0xee0(%rbp),%rax
   1434b:	48 8d 15 ae 71 00 00 	lea    0x71ae(%rip),%rdx        # 1b500 <g_5313+0x148c>
   14352:	b9 69 00 00 00       	mov    $0x69,%ecx
   14357:	48 89 c7             	mov    %rax,%rdi
   1435a:	48 89 d6             	mov    %rdx,%rsi
   1435d:	f3 48 a5             	rep movsq %ds:(%rsi),%es:(%rdi)
   14360:	48 8d 85 ba e2 ff ff 	lea    -0x1d46(%rbp),%rax
   14367:	48 89 85 e8 e4 ff ff 	mov    %rax,-0x1b18(%rbp)
   1436e:	48 8b 95 70 e4 ff ff 	mov    -0x1b90(%rbp),%rdx
   14375:	48 8b 85 e0 e4 ff ff 	mov    -0x1b20(%rbp),%rax
   1437c:	48 89 10             	mov    %rdx,(%rax)
   1437f:	c7 85 40 f4 ff ff ff 	movl   $0xffffffff,-0xbc0(%rbp)
   14386:	ff ff ff 
   14389:	8b 85 94 e2 ff ff    	mov    -0x1d6c(%rbp),%eax
   1438f:	23 85 90 e2 ff ff    	and    -0x1d70(%rbp),%eax
   14395:	3d db 00 00 00       	cmp    $0xdb,%eax
   1439a:	74 11                	je     143ad <func_57+0x4b1d>
   1439c:	8b 85 28 f1 ff ff    	mov    -0xed8(%rbp),%eax
   143a2:	85 c0                	test   %eax,%eax
   143a4:	74 07                	je     143ad <func_57+0x4b1d>
   143a6:	b8 01 00 00 00       	mov    $0x1,%eax
   143ab:	eb 05                	jmp    143b2 <func_57+0x4b22>
   143ad:	b8 00 00 00 00       	mov    $0x0,%eax
   143b2:	09 85 e0 e2 ff ff    	or     %eax,-0x1d20(%rbp)
   143b8:	48 8b 85 d0 e4 ff ff 	mov    -0x1b30(%rbp),%rax
   143bf:	e9 b1 40 00 00       	jmpq   18475 <func_57+0x8be5>
   143c4:	c6 05 a5 ac 00 00 00 	movb   $0x0,0xaca5(%rip)        # 1f070 <g_105>
   143cb:	e9 97 0a 00 00       	jmpq   14e67 <func_57+0x55d7>
   143d0:	48 8d 85 ab e2 ff ff 	lea    -0x1d55(%rbp),%rax
   143d7:	48 89 85 20 f1 ff ff 	mov    %rax,-0xee0(%rbp)
   143de:	48 8d 05 97 ac 00 00 	lea    0xac97(%rip),%rax        # 1f07c <g_165>
   143e5:	48 89 85 28 f1 ff ff 	mov    %rax,-0xed8(%rbp)
   143ec:	48 8d 05 3d ac 00 00 	lea    0xac3d(%rip),%rax        # 1f030 <g_39>
   143f3:	48 89 85 30 f1 ff ff 	mov    %rax,-0xed0(%rbp)
   143fa:	48 8d 05 6f ac 00 00 	lea    0xac6f(%rip),%rax        # 1f070 <g_105>
   14401:	48 89 85 38 f1 ff ff 	mov    %rax,-0xec8(%rbp)
   14408:	48 8d 05 6d ac 00 00 	lea    0xac6d(%rip),%rax        # 1f07c <g_165>
   1440f:	48 89 85 40 f1 ff ff 	mov    %rax,-0xec0(%rbp)
   14416:	48 c7 85 48 f1 ff ff 	movq   $0x0,-0xeb8(%rbp)
   1441d:	00 00 00 00 
   14421:	48 8d 85 ab e2 ff ff 	lea    -0x1d55(%rbp),%rax
   14428:	48 89 85 50 f1 ff ff 	mov    %rax,-0xeb0(%rbp)
   1442f:	48 8d 05 fa ab 00 00 	lea    0xabfa(%rip),%rax        # 1f030 <g_39>
   14436:	48 89 85 58 f1 ff ff 	mov    %rax,-0xea8(%rbp)
   1443d:	48 c7 85 60 f1 ff ff 	movq   $0x0,-0xea0(%rbp)
   14444:	00 00 00 00 
   14448:	48 c7 85 68 f1 ff ff 	movq   $0x0,-0xe98(%rbp)
   1444f:	00 00 00 00 
   14453:	48 8d 05 d6 ab 00 00 	lea    0xabd6(%rip),%rax        # 1f030 <g_39>
   1445a:	48 89 85 70 f1 ff ff 	mov    %rax,-0xe90(%rbp)
   14461:	48 8d 05 08 ac 00 00 	lea    0xac08(%rip),%rax        # 1f070 <g_105>
   14468:	48 89 85 78 f1 ff ff 	mov    %rax,-0xe88(%rbp)
   1446f:	48 8d 05 06 ac 00 00 	lea    0xac06(%rip),%rax        # 1f07c <g_165>
   14476:	48 89 85 80 f1 ff ff 	mov    %rax,-0xe80(%rbp)
   1447d:	48 8d 05 ec ab 00 00 	lea    0xabec(%rip),%rax        # 1f070 <g_105>
   14484:	48 89 85 88 f1 ff ff 	mov    %rax,-0xe78(%rbp)
   1448b:	48 8d 05 9e ab 00 00 	lea    0xab9e(%rip),%rax        # 1f030 <g_39>
   14492:	48 89 85 90 f1 ff ff 	mov    %rax,-0xe70(%rbp)
   14499:	48 c7 85 98 f1 ff ff 	movq   $0x0,-0xe68(%rbp)
   144a0:	00 00 00 00 
   144a4:	48 c7 85 a0 f1 ff ff 	movq   $0x0,-0xe60(%rbp)
   144ab:	00 00 00 00 
   144af:	48 8d 05 7a ab 00 00 	lea    0xab7a(%rip),%rax        # 1f030 <g_39>
   144b6:	48 89 85 a8 f1 ff ff 	mov    %rax,-0xe58(%rbp)
   144bd:	48 8d 85 ab e2 ff ff 	lea    -0x1d55(%rbp),%rax
   144c4:	48 89 85 b0 f1 ff ff 	mov    %rax,-0xe50(%rbp)
   144cb:	48 c7 85 b8 f1 ff ff 	movq   $0x0,-0xe48(%rbp)
   144d2:	00 00 00 00 
   144d6:	48 8d 05 9f ab 00 00 	lea    0xab9f(%rip),%rax        # 1f07c <g_165>
   144dd:	48 89 85 c0 f1 ff ff 	mov    %rax,-0xe40(%rbp)
   144e4:	48 8d 05 85 ab 00 00 	lea    0xab85(%rip),%rax        # 1f070 <g_105>
   144eb:	48 89 85 c8 f1 ff ff 	mov    %rax,-0xe38(%rbp)
   144f2:	48 8d 05 37 ab 00 00 	lea    0xab37(%rip),%rax        # 1f030 <g_39>
   144f9:	48 89 85 d0 f1 ff ff 	mov    %rax,-0xe30(%rbp)
   14500:	48 8d 05 75 ab 00 00 	lea    0xab75(%rip),%rax        # 1f07c <g_165>
   14507:	48 89 85 d8 f1 ff ff 	mov    %rax,-0xe28(%rbp)
   1450e:	48 8d 85 ab e2 ff ff 	lea    -0x1d55(%rbp),%rax
   14515:	48 89 85 e0 f1 ff ff 	mov    %rax,-0xe20(%rbp)
   1451c:	48 8d 05 0d ab 00 00 	lea    0xab0d(%rip),%rax        # 1f030 <g_39>
   14523:	48 89 85 e8 f1 ff ff 	mov    %rax,-0xe18(%rbp)
   1452a:	48 8d 05 4b ab 00 00 	lea    0xab4b(%rip),%rax        # 1f07c <g_165>
   14531:	48 89 85 f0 f1 ff ff 	mov    %rax,-0xe10(%rbp)
   14538:	48 c7 85 f8 f1 ff ff 	movq   $0x0,-0xe08(%rbp)
   1453f:	00 00 00 00 
   14543:	48 c7 85 00 f2 ff ff 	movq   $0x0,-0xe00(%rbp)
   1454a:	00 00 00 00 
   1454e:	48 c7 85 08 f2 ff ff 	movq   $0x0,-0xdf8(%rbp)
   14555:	00 00 00 00 
   14559:	48 8d 05 1c ab 00 00 	lea    0xab1c(%rip),%rax        # 1f07c <g_165>
   14560:	48 89 85 10 f2 ff ff 	mov    %rax,-0xdf0(%rbp)
   14567:	48 8d 05 c2 aa 00 00 	lea    0xaac2(%rip),%rax        # 1f030 <g_39>
   1456e:	48 89 85 18 f2 ff ff 	mov    %rax,-0xde8(%rbp)
   14575:	48 8d 05 f4 aa 00 00 	lea    0xaaf4(%rip),%rax        # 1f070 <g_105>
   1457c:	48 89 85 20 f2 ff ff 	mov    %rax,-0xde0(%rbp)
   14583:	48 c7 85 28 f2 ff ff 	movq   $0x0,-0xdd8(%rbp)
   1458a:	00 00 00 00 
   1458e:	48 c7 85 30 f2 ff ff 	movq   $0x0,-0xdd0(%rbp)
   14595:	00 00 00 00 
   14599:	48 8d 05 dc aa 00 00 	lea    0xaadc(%rip),%rax        # 1f07c <g_165>
   145a0:	48 89 85 38 f2 ff ff 	mov    %rax,-0xdc8(%rbp)
   145a7:	48 8d 85 ab e2 ff ff 	lea    -0x1d55(%rbp),%rax
   145ae:	48 89 85 40 f2 ff ff 	mov    %rax,-0xdc0(%rbp)
   145b5:	48 c7 85 48 f2 ff ff 	movq   $0x0,-0xdb8(%rbp)
   145bc:	00 00 00 00 
   145c0:	48 8d 05 69 aa 00 00 	lea    0xaa69(%rip),%rax        # 1f030 <g_39>
   145c7:	48 89 85 50 f2 ff ff 	mov    %rax,-0xdb0(%rbp)
   145ce:	48 8d 05 9b aa 00 00 	lea    0xaa9b(%rip),%rax        # 1f070 <g_105>
   145d5:	48 89 85 58 f2 ff ff 	mov    %rax,-0xda8(%rbp)
   145dc:	48 8d 05 4d aa 00 00 	lea    0xaa4d(%rip),%rax        # 1f030 <g_39>
   145e3:	48 89 85 60 f2 ff ff 	mov    %rax,-0xda0(%rbp)
   145ea:	48 c7 85 68 f2 ff ff 	movq   $0x0,-0xd98(%rbp)
   145f1:	00 00 00 00 
   145f5:	48 8d 85 ab e2 ff ff 	lea    -0x1d55(%rbp),%rax
   145fc:	48 89 85 70 f2 ff ff 	mov    %rax,-0xd90(%rbp)
   14603:	48 8d 05 72 aa 00 00 	lea    0xaa72(%rip),%rax        # 1f07c <g_165>
   1460a:	48 89 85 78 f2 ff ff 	mov    %rax,-0xd88(%rbp)
   14611:	48 c7 85 80 f2 ff ff 	movq   $0x0,-0xd80(%rbp)
   14618:	00 00 00 00 
   1461c:	48 c7 85 88 f2 ff ff 	movq   $0x0,-0xd78(%rbp)
   14623:	00 00 00 00 
   14627:	48 8d 05 42 aa 00 00 	lea    0xaa42(%rip),%rax        # 1f070 <g_105>
   1462e:	48 89 85 90 f2 ff ff 	mov    %rax,-0xd70(%rbp)
   14635:	48 8d 05 f4 a9 00 00 	lea    0xa9f4(%rip),%rax        # 1f030 <g_39>
   1463c:	48 89 85 98 f2 ff ff 	mov    %rax,-0xd68(%rbp)
   14643:	48 8d 05 32 aa 00 00 	lea    0xaa32(%rip),%rax        # 1f07c <g_165>
   1464a:	48 89 85 a0 f2 ff ff 	mov    %rax,-0xd60(%rbp)
   14651:	48 c7 85 a8 f2 ff ff 	movq   $0x0,-0xd58(%rbp)
   14658:	00 00 00 00 
   1465c:	48 c7 85 b0 f2 ff ff 	movq   $0x0,-0xd50(%rbp)
   14663:	00 00 00 00 
   14667:	48 c7 85 b8 f2 ff ff 	movq   $0x0,-0xd48(%rbp)
   1466e:	00 00 00 00 
   14672:	48 8d 05 03 aa 00 00 	lea    0xaa03(%rip),%rax        # 1f07c <g_165>
   14679:	48 89 85 c0 f2 ff ff 	mov    %rax,-0xd40(%rbp)
   14680:	48 8d 05 a9 a9 00 00 	lea    0xa9a9(%rip),%rax        # 1f030 <g_39>
   14687:	48 89 85 c8 f2 ff ff 	mov    %rax,-0xd38(%rbp)
   1468e:	48 8d 85 ab e2 ff ff 	lea    -0x1d55(%rbp),%rax
   14695:	48 89 85 d0 f2 ff ff 	mov    %rax,-0xd30(%rbp)
   1469c:	48 8d 05 d9 a9 00 00 	lea    0xa9d9(%rip),%rax        # 1f07c <g_165>
   146a3:	48 89 85 d8 f2 ff ff 	mov    %rax,-0xd28(%rbp)
   146aa:	48 8d 05 7f a9 00 00 	lea    0xa97f(%rip),%rax        # 1f030 <g_39>
   146b1:	48 89 85 e0 f2 ff ff 	mov    %rax,-0xd20(%rbp)
   146b8:	48 8d 05 b1 a9 00 00 	lea    0xa9b1(%rip),%rax        # 1f070 <g_105>
   146bf:	48 89 85 e8 f2 ff ff 	mov    %rax,-0xd18(%rbp)
   146c6:	48 8d 05 af a9 00 00 	lea    0xa9af(%rip),%rax        # 1f07c <g_165>
   146cd:	48 89 85 f0 f2 ff ff 	mov    %rax,-0xd10(%rbp)
   146d4:	48 c7 85 f8 f2 ff ff 	movq   $0x0,-0xd08(%rbp)
   146db:	00 00 00 00 
   146df:	48 8d 85 ab e2 ff ff 	lea    -0x1d55(%rbp),%rax
   146e6:	48 89 85 00 f3 ff ff 	mov    %rax,-0xd00(%rbp)
   146ed:	48 8d 05 3c a9 00 00 	lea    0xa93c(%rip),%rax        # 1f030 <g_39>
   146f4:	48 89 85 08 f3 ff ff 	mov    %rax,-0xcf8(%rbp)
   146fb:	48 c7 85 10 f3 ff ff 	movq   $0x0,-0xcf0(%rbp)
   14702:	00 00 00 00 
   14706:	48 c7 85 18 f3 ff ff 	movq   $0x0,-0xce8(%rbp)
   1470d:	00 00 00 00 
   14711:	48 8d 05 18 a9 00 00 	lea    0xa918(%rip),%rax        # 1f030 <g_39>
   14718:	48 89 85 20 f3 ff ff 	mov    %rax,-0xce0(%rbp)
   1471f:	48 8d 05 4a a9 00 00 	lea    0xa94a(%rip),%rax        # 1f070 <g_105>
   14726:	48 89 85 28 f3 ff ff 	mov    %rax,-0xcd8(%rbp)
   1472d:	48 8d 05 48 a9 00 00 	lea    0xa948(%rip),%rax        # 1f07c <g_165>
   14734:	48 89 85 30 f3 ff ff 	mov    %rax,-0xcd0(%rbp)
   1473b:	48 8d 05 2e a9 00 00 	lea    0xa92e(%rip),%rax        # 1f070 <g_105>
   14742:	48 89 85 38 f3 ff ff 	mov    %rax,-0xcc8(%rbp)
   14749:	48 8d 05 e0 a8 00 00 	lea    0xa8e0(%rip),%rax        # 1f030 <g_39>
   14750:	48 89 85 40 f3 ff ff 	mov    %rax,-0xcc0(%rbp)
   14757:	48 c7 85 48 f3 ff ff 	movq   $0x0,-0xcb8(%rbp)
   1475e:	00 00 00 00 
   14762:	48 c7 85 50 f3 ff ff 	movq   $0x0,-0xcb0(%rbp)
   14769:	00 00 00 00 
   1476d:	48 8d 05 bc a8 00 00 	lea    0xa8bc(%rip),%rax        # 1f030 <g_39>
   14774:	48 89 85 58 f3 ff ff 	mov    %rax,-0xca8(%rbp)
   1477b:	48 c7 85 60 f3 ff ff 	movq   $0x0,-0xca0(%rbp)
   14782:	00 00 00 00 
   14786:	48 8d 05 e3 a8 00 00 	lea    0xa8e3(%rip),%rax        # 1f070 <g_105>
   1478d:	48 89 85 68 f3 ff ff 	mov    %rax,-0xc98(%rbp)
   14794:	48 8d 05 95 a8 00 00 	lea    0xa895(%rip),%rax        # 1f030 <g_39>
   1479b:	48 89 85 70 f3 ff ff 	mov    %rax,-0xc90(%rbp)
   147a2:	48 8d 05 5f a9 00 00 	lea    0xa95f(%rip),%rax        # 1f108 <g_603>
   147a9:	48 89 85 78 f3 ff ff 	mov    %rax,-0xc88(%rbp)
   147b0:	48 8d 05 51 a9 00 00 	lea    0xa951(%rip),%rax        # 1f108 <g_603>
   147b7:	48 89 85 80 f3 ff ff 	mov    %rax,-0xc80(%rbp)
   147be:	48 c7 85 88 f3 ff ff 	movq   $0x0,-0xc78(%rbp)
   147c5:	00 00 00 00 
   147c9:	48 c7 85 90 f3 ff ff 	movq   $0x0,-0xc70(%rbp)
   147d0:	00 00 00 00 
   147d4:	48 8d 05 2d a9 00 00 	lea    0xa92d(%rip),%rax        # 1f108 <g_603>
   147db:	48 89 85 98 f3 ff ff 	mov    %rax,-0xc68(%rbp)
   147e2:	48 c7 85 a0 f3 ff ff 	movq   $0x0,-0xc60(%rbp)
   147e9:	00 00 00 00 
   147ed:	48 c7 85 a8 f3 ff ff 	movq   $0x0,-0xc58(%rbp)
   147f4:	00 00 00 00 
   147f8:	48 8d 05 71 a8 00 00 	lea    0xa871(%rip),%rax        # 1f070 <g_105>
   147ff:	48 89 85 b0 f3 ff ff 	mov    %rax,-0xc50(%rbp)
   14806:	48 8d 05 63 a8 00 00 	lea    0xa863(%rip),%rax        # 1f070 <g_105>
   1480d:	48 89 85 b8 f3 ff ff 	mov    %rax,-0xc48(%rbp)
   14814:	48 c7 85 c0 f3 ff ff 	movq   $0x0,-0xc40(%rbp)
   1481b:	00 00 00 00 
   1481f:	48 8d 85 ab e2 ff ff 	lea    -0x1d55(%rbp),%rax
   14826:	48 89 85 c8 f3 ff ff 	mov    %rax,-0xc38(%rbp)
   1482d:	48 8d 05 48 a8 00 00 	lea    0xa848(%rip),%rax        # 1f07c <g_165>
   14834:	48 89 85 d0 f3 ff ff 	mov    %rax,-0xc30(%rbp)
   1483b:	48 c7 85 d8 f3 ff ff 	movq   $0x0,-0xc28(%rbp)
   14842:	00 00 00 00 
   14846:	48 c7 85 e0 f3 ff ff 	movq   $0x0,-0xc20(%rbp)
   1484d:	00 00 00 00 
   14851:	48 8d 05 d8 a7 00 00 	lea    0xa7d8(%rip),%rax        # 1f030 <g_39>
   14858:	48 89 85 e8 f3 ff ff 	mov    %rax,-0xc18(%rbp)
   1485f:	48 c7 85 f0 f3 ff ff 	movq   $0x0,-0xc10(%rbp)
   14866:	00 00 00 00 
   1486a:	48 c7 85 f8 f3 ff ff 	movq   $0x0,-0xc08(%rbp)
   14871:	00 00 00 00 
   14875:	48 8d 05 8c a8 00 00 	lea    0xa88c(%rip),%rax        # 1f108 <g_603>
   1487c:	48 89 85 00 f4 ff ff 	mov    %rax,-0xc00(%rbp)
   14883:	48 8d 05 7e a8 00 00 	lea    0xa87e(%rip),%rax        # 1f108 <g_603>
   1488a:	48 89 85 08 f4 ff ff 	mov    %rax,-0xbf8(%rbp)
   14891:	48 8d 05 70 a8 00 00 	lea    0xa870(%rip),%rax        # 1f108 <g_603>
   14898:	48 89 85 10 f4 ff ff 	mov    %rax,-0xbf0(%rbp)
   1489f:	48 c7 85 18 f4 ff ff 	movq   $0x0,-0xbe8(%rbp)
   148a6:	00 00 00 00 
   148aa:	48 c7 85 20 f4 ff ff 	movq   $0x0,-0xbe0(%rbp)
   148b1:	00 00 00 00 
   148b5:	48 8d 05 74 a7 00 00 	lea    0xa774(%rip),%rax        # 1f030 <g_39>
   148bc:	48 89 85 28 f4 ff ff 	mov    %rax,-0xbd8(%rbp)
   148c3:	48 c7 85 30 f4 ff ff 	movq   $0x0,-0xbd0(%rbp)
   148ca:	00 00 00 00 
   148ce:	48 c7 85 38 f4 ff ff 	movq   $0x0,-0xbc8(%rbp)
   148d5:	00 00 00 00 
   148d9:	48 8d 05 9c a7 00 00 	lea    0xa79c(%rip),%rax        # 1f07c <g_165>
   148e0:	48 89 85 40 f4 ff ff 	mov    %rax,-0xbc0(%rbp)
   148e7:	48 8d 85 ab e2 ff ff 	lea    -0x1d55(%rbp),%rax
   148ee:	48 89 85 48 f4 ff ff 	mov    %rax,-0xbb8(%rbp)
   148f5:	48 c7 85 50 f4 ff ff 	movq   $0x0,-0xbb0(%rbp)
   148fc:	00 00 00 00 
   14900:	48 8d 05 69 a7 00 00 	lea    0xa769(%rip),%rax        # 1f070 <g_105>
   14907:	48 89 85 58 f4 ff ff 	mov    %rax,-0xba8(%rbp)
   1490e:	48 8d 05 5b a7 00 00 	lea    0xa75b(%rip),%rax        # 1f070 <g_105>
   14915:	48 89 85 60 f4 ff ff 	mov    %rax,-0xba0(%rbp)
   1491c:	48 c7 85 68 f4 ff ff 	movq   $0x0,-0xb98(%rbp)
   14923:	00 00 00 00 
   14927:	48 c7 85 70 f4 ff ff 	movq   $0x0,-0xb90(%rbp)
   1492e:	00 00 00 00 
   14932:	48 8d 05 cf a7 00 00 	lea    0xa7cf(%rip),%rax        # 1f108 <g_603>
   14939:	48 89 85 78 f4 ff ff 	mov    %rax,-0xb88(%rbp)
   14940:	48 8d 85 10 e4 ff ff 	lea    -0x1bf0(%rbp),%rax
   14947:	48 89 85 c8 e6 ff ff 	mov    %rax,-0x1938(%rbp)
   1494e:	c7 85 f8 e3 ff ff 44 	movl   $0x45e3fe44,-0x1c08(%rbp)
   14955:	fe e3 45 
   14958:	48 8d 05 99 cd 00 00 	lea    0xcd99(%rip),%rax        # 216f8 <g_72>
   1495f:	48 89 85 d0 e6 ff ff 	mov    %rax,-0x1930(%rbp)
   14966:	48 c7 85 90 ef ff ff 	movq   $0x0,-0x1070(%rbp)
   1496d:	00 00 00 00 
   14971:	48 c7 85 98 ef ff ff 	movq   $0x0,-0x1068(%rbp)
   14978:	00 00 00 00 
   1497c:	48 c7 85 a0 ef ff ff 	movq   $0x0,-0x1060(%rbp)
   14983:	00 00 00 00 
   14987:	48 c7 85 a8 ef ff ff 	movq   $0x0,-0x1058(%rbp)
   1498e:	00 00 00 00 
   14992:	48 c7 85 b0 ef ff ff 	movq   $0x0,-0x1050(%rbp)
   14999:	00 00 00 00 
   1499d:	48 c7 85 b8 ef ff ff 	movq   $0x0,-0x1048(%rbp)
   149a4:	00 00 00 00 
   149a8:	48 8d 05 31 a7 00 00 	lea    0xa731(%rip),%rax        # 1f0e0 <g_535>
   149af:	48 89 85 70 e4 ff ff 	mov    %rax,-0x1b90(%rbp)
   149b6:	48 8d 85 70 e4 ff ff 	lea    -0x1b90(%rbp),%rax
   149bd:	48 89 85 d8 e6 ff ff 	mov    %rax,-0x1928(%rbp)
   149c4:	c7 85 fc e3 ff ff 04 	movl   $0x4,-0x1c04(%rbp)
   149cb:	00 00 00 
   149ce:	48 8d 05 ab a6 00 00 	lea    0xa6ab(%rip),%rax        # 1f080 <g_237>
   149d5:	48 89 85 e0 e6 ff ff 	mov    %rax,-0x1920(%rbp)
   149dc:	c7 85 00 e4 ff ff 9b 	movl   $0x9daadd9b,-0x1c00(%rbp)
   149e3:	dd aa 9d 
   149e6:	0f b7 05 25 a7 00 00 	movzwl 0xa725(%rip),%eax        # 1f112 <g_675+0x2>
   149ed:	0f b6 d8             	movzbl %al,%ebx
   149f0:	8b 05 8a a6 00 00    	mov    0xa68a(%rip),%eax        # 1f080 <g_237>
   149f6:	41 89 c4             	mov    %eax,%r12d
   149f9:	48 8b 05 68 d3 00 00 	mov    0xd368(%rip),%rax        # 21d68 <g_586>
   14a00:	48 8b 95 d0 e6 ff ff 	mov    -0x1930(%rbp),%rdx
   14a07:	48 89 10             	mov    %rdx,(%rax)
   14a0a:	48 8b 85 28 e4 ff ff 	mov    -0x1bd8(%rbp),%rax
   14a11:	48 8b 95 d0 e6 ff ff 	mov    -0x1930(%rbp),%rdx
   14a18:	48 89 10             	mov    %rdx,(%rax)
   14a1b:	0f b7 05 f8 a6 00 00 	movzwl 0xa6f8(%rip),%eax        # 1f11a <g_695>
   14a22:	8b 85 94 e2 ff ff    	mov    -0x1d6c(%rbp),%eax
   14a28:	be ff ff ff ff       	mov    $0xffffffff,%esi
   14a2d:	89 c7                	mov    %eax,%edi
   14a2f:	e8 f1 54 ff ff       	callq  9f25 <safe_div_func_uint32_t_u_u>
   14a34:	be 7a fc 75 f5       	mov    $0xf575fc7a,%esi
   14a39:	89 c7                	mov    %eax,%edi
   14a3b:	e8 76 4b ff ff       	callq  95b6 <safe_add_func_int32_t_s_s>
   14a40:	89 c2                	mov    %eax,%edx
   14a42:	8b 85 f8 e3 ff ff    	mov    -0x1c08(%rbp),%eax
   14a48:	89 c6                	mov    %eax,%esi
   14a4a:	89 d7                	mov    %edx,%edi
   14a4c:	e8 65 4b ff ff       	callq  95b6 <safe_add_func_int32_t_s_s>
   14a51:	4c 89 e6             	mov    %r12,%rsi
   14a54:	48 bf a1 cd 8a 16 ba 	movabs $0x445f3bba168acda1,%rdi
   14a5b:	3b 5f 44 
   14a5e:	e8 45 4e ff ff       	callq  98a8 <safe_sub_func_int64_t_s_s>
   14a63:	66 89 05 10 a6 00 00 	mov    %ax,0xa610(%rip)        # 1f07a <g_159>
   14a6a:	0f b7 05 09 a6 00 00 	movzwl 0xa609(%rip),%eax        # 1f07a <g_159>
   14a71:	0f b7 d0             	movzwl %ax,%edx
   14a74:	8b 85 94 e2 ff ff    	mov    -0x1d6c(%rbp),%eax
   14a7a:	0f b7 c0             	movzwl %ax,%eax
   14a7d:	89 d6                	mov    %edx,%esi
   14a7f:	89 c7                	mov    %eax,%edi
   14a81:	e8 80 53 ff ff       	callq  9e06 <safe_lshift_func_uint16_t_u_u>
   14a86:	0f b7 d0             	movzwl %ax,%edx
   14a89:	48 8b 05 68 cc 00 00 	mov    0xcc68(%rip),%rax        # 216f8 <g_72>
   14a90:	48 8b 00             	mov    (%rax),%rax
   14a93:	48 39 c2             	cmp    %rax,%rdx
   14a96:	0f 96 c0             	setbe  %al
   14a99:	0f b6 d0             	movzbl %al,%edx
   14a9c:	8b 85 f8 e3 ff ff    	mov    -0x1c08(%rbp),%eax
   14aa2:	0f b7 c0             	movzwl %ax,%eax
   14aa5:	89 d6                	mov    %edx,%esi
   14aa7:	89 c7                	mov    %eax,%edi
   14aa9:	e8 8f 52 ff ff       	callq  9d3d <safe_mul_func_uint16_t_u_u>
   14aae:	0f b6 c0             	movzbl %al,%eax
   14ab1:	89 de                	mov    %ebx,%esi
   14ab3:	89 c7                	mov    %eax,%edi
   14ab5:	e8 f4 50 ff ff       	callq  9bae <safe_mod_func_uint8_t_u_u>
   14aba:	0f b6 c0             	movzbl %al,%eax
   14abd:	66 89 05 ba a5 00 00 	mov    %ax,0xa5ba(%rip)        # 1f07e <g_234>
   14ac4:	0f b7 05 b3 a5 00 00 	movzwl 0xa5b3(%rip),%eax        # 1f07e <g_234>
   14acb:	0f b7 d0             	movzwl %ax,%edx
   14ace:	48 8b 8d b8 f2 ff ff 	mov    -0xd48(%rbp),%rcx
   14ad5:	48 8b 85 c8 e6 ff ff 	mov    -0x1938(%rbp),%rax
   14adc:	48 89 08             	mov    %rcx,(%rax)
   14adf:	48 8b 85 c8 e6 ff ff 	mov    -0x1938(%rbp),%rax
   14ae6:	48 8b 00             	mov    (%rax),%rax
   14ae9:	48 85 c0             	test   %rax,%rax
   14aec:	0f 95 c0             	setne  %al
   14aef:	0f b6 c0             	movzbl %al,%eax
   14af2:	89 d6                	mov    %edx,%esi
   14af4:	89 c7                	mov    %eax,%edi
   14af6:	e8 68 4a ff ff       	callq  9563 <safe_rshift_func_int16_t_s_u>
   14afb:	0f b7 c0             	movzwl %ax,%eax
   14afe:	be b2 78 00 00       	mov    $0x78b2,%esi
   14b03:	89 c7                	mov    %eax,%edi
   14b05:	e8 33 52 ff ff       	callq  9d3d <safe_mul_func_uint16_t_u_u>
   14b0a:	48 8b 05 ef cb 00 00 	mov    0xcbef(%rip),%rax        # 21700 <g_113>
   14b11:	8b 95 f8 e3 ff ff    	mov    -0x1c08(%rbp),%edx
   14b17:	89 10                	mov    %edx,(%rax)
   14b19:	8b 00                	mov    (%rax),%eax
   14b1b:	89 85 94 e2 ff ff    	mov    %eax,-0x1d6c(%rbp)
   14b21:	48 8b 05 e0 cb 00 00 	mov    0xcbe0(%rip),%rax        # 21708 <g_167>
   14b28:	44 8b 28             	mov    (%rax),%r13d
   14b2b:	8b 85 fc e3 ff ff    	mov    -0x1c04(%rbp),%eax
   14b31:	48 63 d8             	movslq %eax,%rbx
   14b34:	8b 85 fc e3 ff ff    	mov    -0x1c04(%rbp),%eax
   14b3a:	44 0f b6 e0          	movzbl %al,%r12d
   14b3e:	48 8b 95 70 e4 ff ff 	mov    -0x1b90(%rbp),%rdx
   14b45:	48 8b 85 d8 e6 ff ff 	mov    -0x1928(%rbp),%rax
   14b4c:	48 89 10             	mov    %rdx,(%rax)
   14b4f:	8b 85 94 e2 ff ff    	mov    -0x1d6c(%rbp),%eax
   14b55:	0f be c0             	movsbl %al,%eax
   14b58:	89 c6                	mov    %eax,%esi
   14b5a:	bf 8c ff ff ff       	mov    $0xffffff8c,%edi
   14b5f:	e8 ae 46 ff ff       	callq  9212 <safe_mul_func_int8_t_s_s>
   14b64:	0f be d0             	movsbl %al,%edx
   14b67:	0f b6 05 0a a5 00 00 	movzbl 0xa50a(%rip),%eax        # 1f078 <g_155>
   14b6e:	3c 01                	cmp    $0x1,%al
   14b70:	0f 97 c0             	seta   %al
   14b73:	0f b6 c0             	movzbl %al,%eax
   14b76:	39 c2                	cmp    %eax,%edx
   14b78:	0f 9f c0             	setg   %al
   14b7b:	89 c2                	mov    %eax,%edx
   14b7d:	8b 85 fc e3 ff ff    	mov    -0x1c04(%rbp),%eax
   14b83:	31 d0                	xor    %edx,%eax
   14b85:	0f b6 c0             	movzbl %al,%eax
   14b88:	44 89 e6             	mov    %r12d,%esi
   14b8b:	89 c7                	mov    %eax,%edi
   14b8d:	e8 01 50 ff ff       	callq  9b93 <safe_mul_func_uint8_t_u_u>
   14b92:	0f b6 c0             	movzbl %al,%eax
   14b95:	48 89 de             	mov    %rbx,%rsi
   14b98:	48 89 c7             	mov    %rax,%rdi
   14b9b:	e8 ab 54 ff ff       	callq  a04b <safe_sub_func_uint64_t_u_u>
   14ba0:	ba 01 00 00 00       	mov    $0x1,%edx
   14ba5:	48 63 d2             	movslq %edx,%rdx
   14ba8:	48 31 c2             	xor    %rax,%rdx
   14bab:	8b 85 fc e3 ff ff    	mov    -0x1c04(%rbp),%eax
   14bb1:	48 98                	cltq   
   14bb3:	48 39 c2             	cmp    %rax,%rdx
   14bb6:	0f 96 c0             	setbe  %al
   14bb9:	0f b6 d0             	movzbl %al,%edx
   14bbc:	8b 85 94 e2 ff ff    	mov    -0x1d6c(%rbp),%eax
   14bc2:	48 98                	cltq   
   14bc4:	48 39 c2             	cmp    %rax,%rdx
   14bc7:	0f 96 c0             	setbe  %al
   14bca:	0f b6 d0             	movzbl %al,%edx
   14bcd:	48 8b 85 88 e4 ff ff 	mov    -0x1b78(%rbp),%rax
   14bd4:	66 89 10             	mov    %dx,(%rax)
   14bd7:	48 8b 85 88 e4 ff ff 	mov    -0x1b78(%rbp),%rax
   14bde:	0f b7 00             	movzwl (%rax),%eax
   14be1:	0f bf d8             	movswl %ax,%ebx
   14be4:	8b 05 96 a4 00 00    	mov    0xa496(%rip),%eax        # 1f080 <g_237>
   14bea:	0f be c0             	movsbl %al,%eax
   14bed:	be 06 00 00 00       	mov    $0x6,%esi
   14bf2:	89 c7                	mov    %eax,%edi
   14bf4:	e8 3c 47 ff ff       	callq  9335 <safe_rshift_func_int8_t_s_s>
   14bf9:	0f b6 85 ac e2 ff ff 	movzbl -0x1d54(%rbp),%eax
   14c00:	44 0f be e0          	movsbl %al,%r12d
   14c04:	8b 85 94 e2 ff ff    	mov    -0x1d6c(%rbp),%eax
   14c0a:	0f b6 d0             	movzbl %al,%edx
   14c0d:	8b 85 94 e2 ff ff    	mov    -0x1d6c(%rbp),%eax
   14c13:	0f b6 c0             	movzbl %al,%eax
   14c16:	89 d6                	mov    %edx,%esi
   14c18:	89 c7                	mov    %eax,%edi
   14c1a:	e8 74 4f ff ff       	callq  9b93 <safe_mul_func_uint8_t_u_u>
   14c1f:	0f be c0             	movsbl %al,%eax
   14c22:	44 89 e6             	mov    %r12d,%esi
   14c25:	89 c7                	mov    %eax,%edi
   14c27:	e8 a8 45 ff ff       	callq  91d4 <safe_add_func_int8_t_s_s>
   14c2c:	0f be c0             	movsbl %al,%eax
   14c2f:	89 de                	mov    %ebx,%esi
   14c31:	89 c7                	mov    %eax,%edi
   14c33:	e8 5a 48 ff ff       	callq  9492 <safe_lshift_func_int16_t_s_s>
   14c38:	98                   	cwtl   
   14c39:	41 39 c5             	cmp    %eax,%r13d
   14c3c:	0f 9e c0             	setle  %al
   14c3f:	0f b6 d0             	movzbl %al,%edx
   14c42:	48 8b 85 e0 e6 ff ff 	mov    -0x1920(%rbp),%rax
   14c49:	89 10                	mov    %edx,(%rax)
   14c4b:	be 01 00 00 00       	mov    $0x1,%esi
   14c50:	bf 70 b3 ff ff       	mov    $0xffffb370,%edi
   14c55:	e8 d0 48 ff ff       	callq  952a <safe_rshift_func_int16_t_s_s>
   14c5a:	98                   	cwtl   
   14c5b:	8b 95 fc e3 ff ff    	mov    -0x1c04(%rbp),%edx
   14c61:	89 d6                	mov    %edx,%esi
   14c63:	89 c7                	mov    %eax,%edi
   14c65:	e8 95 4a ff ff       	callq  96ff <safe_div_func_int32_t_s_s>
   14c6a:	48 8d 05 1f e0 00 00 	lea    0xe01f(%rip),%rax        # 22c90 <g_66>
   14c71:	48 c7 00 00 00 00 00 	movq   $0x0,(%rax)
   14c78:	48 8b 85 88 e2 ff ff 	mov    -0x1d78(%rbp),%rax
   14c7f:	48 85 c0             	test   %rax,%rax
   14c82:	0f 95 c0             	setne  %al
   14c85:	0f b6 d8             	movzbl %al,%ebx
   14c88:	8b 85 94 e2 ff ff    	mov    -0x1d6c(%rbp),%eax
   14c8e:	98                   	cwtl   
   14c8f:	89 c6                	mov    %eax,%esi
   14c91:	bf 01 00 00 00       	mov    $0x1,%edi
   14c96:	e8 18 47 ff ff       	callq  93b3 <safe_add_func_int16_t_s_s>
   14c9b:	0f b7 05 70 a4 00 00 	movzwl 0xa470(%rip),%eax        # 1f112 <g_675+0x2>
   14ca2:	98                   	cwtl   
   14ca3:	89 85 f8 e3 ff ff    	mov    %eax,-0x1c08(%rbp)
   14ca9:	0f b7 05 50 a4 00 00 	movzwl 0xa450(%rip),%eax        # 1f100 <g_558+0x10>
   14cb0:	66 85 c0             	test   %ax,%ax
   14cb3:	0f 94 c0             	sete   %al
   14cb6:	0f b6 c0             	movzbl %al,%eax
   14cb9:	48 89 de             	mov    %rbx,%rsi
   14cbc:	48 89 c7             	mov    %rax,%rdi
   14cbf:	e8 6a 53 ff ff       	callq  a02e <safe_add_func_uint64_t_u_u>
   14cc4:	be 05 00 00 00       	mov    $0x5,%esi
   14cc9:	89 c7                	mov    %eax,%edi
   14ccb:	e8 35 49 ff ff       	callq  9605 <safe_sub_func_int32_t_s_s>
   14cd0:	48 c7 85 e8 e6 ff ff 	movq   $0xfffffffffffffffb,-0x1918(%rbp)
   14cd7:	fb ff ff ff 
   14cdb:	c7 85 04 e4 ff ff ff 	movl   $0xffffffff,-0x1bfc(%rbp)
   14ce2:	ff ff ff 
   14ce5:	48 83 8d e8 e6 ff ff 	orq    $0xfffffffffffffff9,-0x1918(%rbp)
   14cec:	f9 
   14ced:	48 8b 85 e8 e6 ff ff 	mov    -0x1918(%rbp),%rax
   14cf4:	41 89 c5             	mov    %eax,%r13d
   14cf7:	be 0c 00 00 00       	mov    $0xc,%esi
   14cfc:	bf 00 00 00 00       	mov    $0x0,%edi
   14d01:	e8 db 47 ff ff       	callq  94e1 <safe_lshift_func_int16_t_s_u>
   14d06:	98                   	cwtl   
   14d07:	48 8b 95 e8 e6 ff ff 	mov    -0x1918(%rbp),%rdx
   14d0e:	89 c6                	mov    %eax,%esi
   14d10:	89 d7                	mov    %edx,%edi
   14d12:	e8 a1 51 ff ff       	callq  9eb8 <safe_add_func_uint32_t_u_u>
   14d17:	85 c0                	test   %eax,%eax
   14d19:	75 0a                	jne    14d25 <func_57+0x5495>
   14d1b:	48 83 bd e8 e6 ff ff 	cmpq   $0x0,-0x1918(%rbp)
   14d22:	00 
   14d23:	74 07                	je     14d2c <func_57+0x549c>
   14d25:	bb 01 00 00 00       	mov    $0x1,%ebx
   14d2a:	eb 05                	jmp    14d31 <func_57+0x54a1>
   14d2c:	bb 00 00 00 00       	mov    $0x0,%ebx
   14d31:	8b 85 fc e3 ff ff    	mov    -0x1c04(%rbp),%eax
   14d37:	88 05 cb a3 00 00    	mov    %al,0xa3cb(%rip)        # 1f108 <g_603>
   14d3d:	0f b6 05 c4 a3 00 00 	movzbl 0xa3c4(%rip),%eax        # 1f108 <g_603>
   14d44:	0f b6 d0             	movzbl %al,%edx
   14d47:	48 8b 85 e8 e6 ff ff 	mov    -0x1918(%rbp),%rax
   14d4e:	0f b6 c0             	movzbl %al,%eax
   14d51:	89 d6                	mov    %edx,%esi
   14d53:	89 c7                	mov    %eax,%edi
   14d55:	e8 39 4e ff ff       	callq  9b93 <safe_mul_func_uint8_t_u_u>
   14d5a:	0f b6 c0             	movzbl %al,%eax
   14d5d:	89 de                	mov    %ebx,%esi
   14d5f:	89 c7                	mov    %eax,%edi
   14d61:	e8 66 49 ff ff       	callq  96cc <safe_mod_func_int32_t_s_s>
   14d66:	4c 63 e0             	movslq %eax,%r12
   14d69:	8b 85 90 e2 ff ff    	mov    -0x1d70(%rbp),%eax
   14d6f:	0f b6 d8             	movzbl %al,%ebx
   14d72:	48 8b 05 1f df 00 00 	mov    0xdf1f(%rip),%rax        # 22c98 <g_109>
   14d79:	48 89 c6             	mov    %rax,%rsi
   14d7c:	bf 01 00 00 00       	mov    $0x1,%edi
   14d81:	e8 2e 4c ff ff       	callq  99b4 <safe_mod_func_int64_t_s_s>
   14d86:	8b 85 00 e4 ff ff    	mov    -0x1c00(%rbp),%eax
   14d8c:	0f be d0             	movsbl %al,%edx
   14d8f:	8b 85 90 e2 ff ff    	mov    -0x1d70(%rbp),%eax
   14d95:	0f be c0             	movsbl %al,%eax
   14d98:	89 d6                	mov    %edx,%esi
   14d9a:	89 c7                	mov    %eax,%edi
   14d9c:	e8 71 44 ff ff       	callq  9212 <safe_mul_func_int8_t_s_s>
   14da1:	66 98                	cbtw   
   14da3:	0f b7 c0             	movzwl %ax,%eax
   14da6:	be 0b 00 00 00       	mov    $0xb,%esi
   14dab:	89 c7                	mov    %eax,%edi
   14dad:	e8 54 50 ff ff       	callq  9e06 <safe_lshift_func_uint16_t_u_u>
   14db2:	0f b6 c0             	movzbl %al,%eax
   14db5:	89 de                	mov    %ebx,%esi
   14db7:	89 c7                	mov    %eax,%edi
   14db9:	e8 1d 4e ff ff       	callq  9bdb <safe_div_func_uint8_t_u_u>
   14dbe:	0f b6 c0             	movzbl %al,%eax
   14dc1:	ba df fa 74 a1       	mov    $0xa174fadf,%edx
   14dc6:	48 31 d0             	xor    %rdx,%rax
   14dc9:	4c 89 e2             	mov    %r12,%rdx
   14dcc:	48 31 c2             	xor    %rax,%rdx
   14dcf:	b8 4f 16 a1 e1       	mov    $0xe1a1164f,%eax
   14dd4:	48 09 d0             	or     %rdx,%rax
   14dd7:	31 85 f8 e3 ff ff    	xor    %eax,-0x1c08(%rbp)
   14ddd:	8b 85 f8 e3 ff ff    	mov    -0x1c08(%rbp),%eax
   14de3:	f7 d0                	not    %eax
   14de5:	0f b6 c0             	movzbl %al,%eax
   14de8:	44 89 ee             	mov    %r13d,%esi
   14deb:	89 c7                	mov    %eax,%edi
   14ded:	e8 cc 4e ff ff       	callq  9cbe <safe_rshift_func_uint8_t_u_u>
   14df2:	0f b6 c0             	movzbl %al,%eax
   14df5:	be c0 8b 00 00       	mov    $0x8bc0,%esi
   14dfa:	89 c7                	mov    %eax,%edi
   14dfc:	e8 5b 4f ff ff       	callq  9d5c <safe_mod_func_uint16_t_u_u>
   14e01:	0f be c0             	movsbl %al,%eax
   14e04:	be 05 00 00 00       	mov    $0x5,%esi
   14e09:	89 c7                	mov    %eax,%edi
   14e0b:	e8 de 44 ff ff       	callq  92ee <safe_lshift_func_int8_t_s_u>
   14e10:	0f be c0             	movsbl %al,%eax
   14e13:	39 85 90 e2 ff ff    	cmp    %eax,-0x1d70(%rbp)
   14e19:	0f 9d c0             	setge  %al
   14e1c:	0f b6 c8             	movzbl %al,%ecx
   14e1f:	48 8b 05 da c8 00 00 	mov    0xc8da(%rip),%rax        # 21700 <g_113>
   14e26:	8b 10                	mov    (%rax),%edx
   14e28:	09 ca                	or     %ecx,%edx
   14e2a:	89 10                	mov    %edx,(%rax)
   14e2c:	48 8b 85 e8 e6 ff ff 	mov    -0x1918(%rbp),%rax
   14e33:	89 c2                	mov    %eax,%edx
   14e35:	8b 85 04 e4 ff ff    	mov    -0x1bfc(%rbp),%eax
   14e3b:	21 d0                	and    %edx,%eax
   14e3d:	89 85 04 e4 ff ff    	mov    %eax,-0x1bfc(%rbp)
   14e43:	8b 85 94 e2 ff ff    	mov    -0x1d6c(%rbp),%eax
   14e49:	85 c0                	test   %eax,%eax
   14e4b:	0f b6 05 1e a2 00 00 	movzbl 0xa21e(%rip),%eax        # 1f070 <g_105>
   14e52:	0f be c0             	movsbl %al,%eax
   14e55:	be 09 00 00 00       	mov    $0x9,%esi
   14e5a:	89 c7                	mov    %eax,%edi
   14e5c:	e8 73 43 ff ff       	callq  91d4 <safe_add_func_int8_t_s_s>
   14e61:	88 05 09 a2 00 00    	mov    %al,0xa209(%rip)        # 1f070 <g_105>
   14e67:	0f b6 05 02 a2 00 00 	movzbl 0xa202(%rip),%eax        # 1f070 <g_105>
   14e6e:	84 c0                	test   %al,%al
   14e70:	0f 85 5a f5 ff ff    	jne    143d0 <func_57+0x4b40>
   14e76:	66 c7 05 e9 a1 00 00 	movw   $0x0,0xa1e9(%rip)        # 1f068 <g_91>
   14e7d:	00 00 
   14e7f:	e9 5f 04 00 00       	jmpq   152e3 <func_57+0x5a53>
   14e84:	c7 85 68 e4 ff ff db 	movl   $0xb3f77db,-0x1b98(%rbp)
   14e8b:	77 3f 0b 
   14e8e:	48 8d 05 13 de 00 00 	lea    0xde13(%rip),%rax        # 22ca8 <g_587>
   14e95:	48 89 85 30 ed ff ff 	mov    %rax,-0x12d0(%rbp)
   14e9c:	48 8d 85 20 e4 ff ff 	lea    -0x1be0(%rbp),%rax
   14ea3:	48 89 85 38 ed ff ff 	mov    %rax,-0x12c8(%rbp)
   14eaa:	48 8d 05 f7 dd 00 00 	lea    0xddf7(%rip),%rax        # 22ca8 <g_587>
   14eb1:	48 89 85 40 ed ff ff 	mov    %rax,-0x12c0(%rbp)
   14eb8:	48 8d 85 20 e4 ff ff 	lea    -0x1be0(%rbp),%rax
   14ebf:	48 89 85 48 ed ff ff 	mov    %rax,-0x12b8(%rbp)
   14ec6:	48 8d 05 db dd 00 00 	lea    0xdddb(%rip),%rax        # 22ca8 <g_587>
   14ecd:	48 89 85 50 ed ff ff 	mov    %rax,-0x12b0(%rbp)
   14ed4:	48 8d 85 20 e4 ff ff 	lea    -0x1be0(%rbp),%rax
   14edb:	48 89 85 58 ed ff ff 	mov    %rax,-0x12a8(%rbp)
   14ee2:	48 8d 05 bf dd 00 00 	lea    0xddbf(%rip),%rax        # 22ca8 <g_587>
   14ee9:	48 89 85 60 ed ff ff 	mov    %rax,-0x12a0(%rbp)
   14ef0:	48 8d 85 20 e4 ff ff 	lea    -0x1be0(%rbp),%rax
   14ef7:	48 89 85 68 ed ff ff 	mov    %rax,-0x1298(%rbp)
   14efe:	48 8d 85 30 ed ff ff 	lea    -0x12d0(%rbp),%rax
   14f05:	48 83 c0 08          	add    $0x8,%rax
   14f09:	48 89 85 c0 eb ff ff 	mov    %rax,-0x1440(%rbp)
   14f10:	48 8d 85 30 ed ff ff 	lea    -0x12d0(%rbp),%rax
   14f17:	48 83 c0 08          	add    $0x8,%rax
   14f1b:	48 89 85 c8 eb ff ff 	mov    %rax,-0x1438(%rbp)
   14f22:	48 8d 85 30 ed ff ff 	lea    -0x12d0(%rbp),%rax
   14f29:	48 83 c0 08          	add    $0x8,%rax
   14f2d:	48 89 85 d0 eb ff ff 	mov    %rax,-0x1430(%rbp)
   14f34:	48 8d 85 30 ed ff ff 	lea    -0x12d0(%rbp),%rax
   14f3b:	48 83 c0 08          	add    $0x8,%rax
   14f3f:	48 89 85 d8 eb ff ff 	mov    %rax,-0x1428(%rbp)
   14f46:	48 8d 85 30 ed ff ff 	lea    -0x12d0(%rbp),%rax
   14f4d:	48 83 c0 08          	add    $0x8,%rax
   14f51:	48 89 85 e0 eb ff ff 	mov    %rax,-0x1420(%rbp)
   14f58:	c7 85 30 e3 ff ff 00 	movl   $0x0,-0x1cd0(%rbp)
   14f5f:	00 00 00 
   14f62:	66 c7 85 c8 e2 ff ff 	movw   $0xfde3,-0x1d38(%rbp)
   14f69:	e3 fd 
   14f6b:	48 8d 85 20 f1 ff ff 	lea    -0xee0(%rbp),%rax
   14f72:	48 8d 15 a7 c3 00 00 	lea    0xc3a7(%rip),%rdx        # 21320 <g_5275+0x1fa0>
   14f79:	b9 48 00 00 00       	mov    $0x48,%ecx
   14f7e:	48 89 c7             	mov    %rax,%rdi
   14f81:	48 89 d6             	mov    %rdx,%rsi
   14f84:	f3 48 a5             	rep movsq %ds:(%rsi),%es:(%rdi)
   14f87:	48 c7 85 e8 e5 ff ff 	movq   $0x0,-0x1a18(%rbp)
   14f8e:	00 00 00 00 
   14f92:	c7 85 ac e3 ff ff 76 	movl   $0xbe704c76,-0x1c54(%rbp)
   14f99:	4c 70 be 
   14f9c:	c7 85 34 e3 ff ff 00 	movl   $0x0,-0x1ccc(%rbp)
   14fa3:	00 00 00 
   14fa6:	eb 1a                	jmp    14fc2 <func_57+0x5732>
   14fa8:	8b 85 34 e3 ff ff    	mov    -0x1ccc(%rbp),%eax
   14fae:	48 98                	cltq   
   14fb0:	c7 84 85 f0 e9 ff ff 	movl   $0xe3f296bf,-0x1610(%rbp,%rax,4)
   14fb7:	bf 96 f2 e3 
   14fbb:	83 85 34 e3 ff ff 01 	addl   $0x1,-0x1ccc(%rbp)
   14fc2:	83 bd 34 e3 ff ff 01 	cmpl   $0x1,-0x1ccc(%rbp)
   14fc9:	7e dd                	jle    14fa8 <func_57+0x5718>
   14fcb:	48 8b 05 36 c7 00 00 	mov    0xc736(%rip),%rax        # 21708 <g_167>
   14fd2:	8b 00                	mov    (%rax),%eax
   14fd4:	85 c0                	test   %eax,%eax
   14fd6:	0f 85 1a 03 00 00    	jne    152f6 <func_57+0x5a66>
   14fdc:	c7 85 d0 e2 ff ff 01 	movl   $0x1,-0x1d30(%rbp)
   14fe3:	00 00 00 
   14fe6:	e9 d8 02 00 00       	jmpq   152c3 <func_57+0x5a33>
   14feb:	c6 85 b6 e2 ff ff 07 	movb   $0x7,-0x1d4a(%rbp)
   14ff2:	48 8d 85 08 e4 ff ff 	lea    -0x1bf8(%rbp),%rax
   14ff9:	48 89 85 f0 e5 ff ff 	mov    %rax,-0x1a10(%rbp)
   15000:	48 c7 85 f8 e5 ff ff 	movq   $0x0,-0x1a08(%rbp)
   15007:	00 00 00 00 
   1500b:	48 8d 85 90 ef ff ff 	lea    -0x1070(%rbp),%rax
   15012:	48 8d 15 47 c5 00 00 	lea    0xc547(%rip),%rdx        # 21560 <g_5275+0x21e0>
   15019:	b9 2a 00 00 00       	mov    $0x2a,%ecx
   1501e:	48 89 c7             	mov    %rax,%rdi
   15021:	48 89 d6             	mov    %rdx,%rsi
   15024:	f3 48 a5             	rep movsq %ds:(%rsi),%es:(%rdi)
   15027:	48 8d 05 da a0 00 00 	lea    0xa0da(%rip),%rax        # 1f108 <g_603>
   1502e:	48 89 85 00 e6 ff ff 	mov    %rax,-0x1a00(%rbp)
   15035:	48 8d 05 24 a0 00 00 	lea    0xa024(%rip),%rax        # 1f060 <g_56>
   1503c:	48 89 85 08 e6 ff ff 	mov    %rax,-0x19f8(%rbp)
   15043:	c7 85 b0 e3 ff ff f9 	movl   $0xfffffff9,-0x1c50(%rbp)
   1504a:	ff ff ff 
   1504d:	c7 85 b4 e3 ff ff 9f 	movl   $0x360cc79f,-0x1c4c(%rbp)
   15054:	c7 0c 36 
   15057:	48 c7 85 70 e4 ff ff 	movq   $0x0,-0x1b90(%rbp)
   1505e:	00 00 00 00 
   15062:	48 8d 85 70 e4 ff ff 	lea    -0x1b90(%rbp),%rax
   15069:	48 89 85 10 e6 ff ff 	mov    %rax,-0x19f0(%rbp)
   15070:	c6 85 b7 e2 ff ff 4d 	movb   $0x4d,-0x1d49(%rbp)
   15077:	8b 85 f4 e9 ff ff    	mov    -0x160c(%rbp),%eax
   1507d:	83 c0 01             	add    $0x1,%eax
   15080:	89 85 f4 e9 ff ff    	mov    %eax,-0x160c(%rbp)
   15086:	8b 9d 90 e2 ff ff    	mov    -0x1d70(%rbp),%ebx
   1508c:	8b 85 94 e2 ff ff    	mov    -0x1d6c(%rbp),%eax
   15092:	41 89 c7             	mov    %eax,%r15d
   15095:	8b 85 94 e2 ff ff    	mov    -0x1d6c(%rbp),%eax
   1509b:	44 0f bf e0          	movswl %ax,%r12d
   1509f:	8b 05 13 a0 00 00    	mov    0xa013(%rip),%eax        # 1f0b8 <g_240+0x18>
   150a5:	44 0f be e8          	movsbl %al,%r13d
   150a9:	0f b6 85 b6 e2 ff ff 	movzbl -0x1d4a(%rbp),%eax
   150b0:	44 0f be f0          	movsbl %al,%r14d
   150b4:	8b 85 68 e4 ff ff    	mov    -0x1b98(%rbp),%eax
   150ba:	89 85 7c e2 ff ff    	mov    %eax,-0x1d84(%rbp)
   150c0:	8b 05 9e 9f 00 00    	mov    0x9f9e(%rip),%eax        # 1f064 <g_88>
   150c6:	0f b7 c0             	movzwl %ax,%eax
   150c9:	89 c6                	mov    %eax,%esi
   150cb:	bf ed a1 00 00       	mov    $0xa1ed,%edi
   150d0:	e8 2a 4c ff ff       	callq  9cff <safe_add_func_uint16_t_u_u>
   150d5:	66 85 c0             	test   %ax,%ax
   150d8:	75 0a                	jne    150e4 <func_57+0x5854>
   150da:	48 83 bd f8 e5 ff ff 	cmpq   $0x0,-0x1a08(%rbp)
   150e1:	00 
   150e2:	74 07                	je     150eb <func_57+0x585b>
   150e4:	b8 01 00 00 00       	mov    $0x1,%eax
   150e9:	eb 05                	jmp    150f0 <func_57+0x5860>
   150eb:	b8 00 00 00 00       	mov    $0x0,%eax
   150f0:	0f be c0             	movsbl %al,%eax
   150f3:	8b b5 7c e2 ff ff    	mov    -0x1d84(%rbp),%esi
   150f9:	89 c7                	mov    %eax,%edi
   150fb:	e8 6c 42 ff ff       	callq  936c <safe_rshift_func_int8_t_s_u>
   15100:	b8 01 00 00 00       	mov    $0x1,%eax
   15105:	48 98                	cltq   
   15107:	48 39 85 f8 e5 ff ff 	cmp    %rax,-0x1a08(%rbp)
   1510e:	0f 95 c0             	setne  %al
   15111:	0f b6 c0             	movzbl %al,%eax
   15114:	be 00 00 00 00       	mov    $0x0,%esi
   15119:	89 c7                	mov    %eax,%edi
   1511b:	e8 ff 4b ff ff       	callq  9d1f <safe_sub_func_uint16_t_u_u>
   15120:	0f be c0             	movsbl %al,%eax
   15123:	44 89 f6             	mov    %r14d,%esi
   15126:	89 c7                	mov    %eax,%edi
   15128:	e8 c5 40 ff ff       	callq  91f2 <safe_sub_func_int8_t_s_s>
   1512d:	66 98                	cbtw   
   1512f:	66 89 05 e0 9f 00 00 	mov    %ax,0x9fe0(%rip)        # 1f116 <g_675+0x6>
   15136:	0f b7 05 d9 9f 00 00 	movzwl 0x9fd9(%rip),%eax        # 1f116 <g_675+0x6>
   1513d:	0f bf d0             	movswl %ax,%edx
   15140:	0f b6 85 b6 e2 ff ff 	movzbl -0x1d4a(%rbp),%eax
   15147:	39 c2                	cmp    %eax,%edx
   15149:	0f 9f c0             	setg   %al
   1514c:	89 c2                	mov    %eax,%edx
   1514e:	48 8b 85 00 e6 ff ff 	mov    -0x1a00(%rbp),%rax
   15155:	88 10                	mov    %dl,(%rax)
   15157:	48 8b 85 00 e6 ff ff 	mov    -0x1a00(%rbp),%rax
   1515e:	0f b6 00             	movzbl (%rax),%eax
   15161:	88 05 15 9f 00 00    	mov    %al,0x9f15(%rip)        # 1f07c <g_165>
   15167:	0f b6 05 0e 9f 00 00 	movzbl 0x9f0e(%rip),%eax        # 1f07c <g_165>
   1516e:	0f be c0             	movsbl %al,%eax
   15171:	44 89 ee             	mov    %r13d,%esi
   15174:	89 c7                	mov    %eax,%edi
   15176:	e8 59 40 ff ff       	callq  91d4 <safe_add_func_int8_t_s_s>
   1517b:	84 c0                	test   %al,%al
   1517d:	74 09                	je     15188 <func_57+0x58f8>
   1517f:	83 bd 90 e2 ff ff 00 	cmpl   $0x0,-0x1d70(%rbp)
   15186:	75 07                	jne    1518f <func_57+0x58ff>
   15188:	b8 01 00 00 00       	mov    $0x1,%eax
   1518d:	eb 05                	jmp    15194 <func_57+0x5904>
   1518f:	b8 00 00 00 00       	mov    $0x0,%eax
   15194:	89 c2                	mov    %eax,%edx
   15196:	48 8b 85 08 e6 ff ff 	mov    -0x19f8(%rbp),%rax
   1519d:	88 10                	mov    %dl,(%rax)
   1519f:	48 8b 85 f0 e5 ff ff 	mov    -0x1a10(%rbp),%rax
   151a6:	48 8d 95 d0 e2 ff ff 	lea    -0x1d30(%rbp),%rdx
   151ad:	48 89 10             	mov    %rdx,(%rax)
   151b0:	48 8b 85 f0 e5 ff ff 	mov    -0x1a10(%rbp),%rax
   151b7:	48 8b 10             	mov    (%rax),%rdx
   151ba:	48 8b 05 9f cb 00 00 	mov    0xcb9f(%rip),%rax        # 21d60 <g_391>
   151c1:	48 8b 00             	mov    (%rax),%rax
   151c4:	48 39 c2             	cmp    %rax,%rdx
   151c7:	0f 95 c0             	setne  %al
   151ca:	0f b6 c0             	movzbl %al,%eax
   151cd:	89 c6                	mov    %eax,%esi
   151cf:	bf 06 00 00 00       	mov    $0x6,%edi
   151d4:	e8 b4 4a ff ff       	callq  9c8d <safe_rshift_func_uint8_t_u_s>
   151d9:	0f b6 d0             	movzbl %al,%edx
   151dc:	48 8b 05 1d c5 00 00 	mov    0xc51d(%rip),%rax        # 21700 <g_113>
   151e3:	8b 00                	mov    (%rax),%eax
   151e5:	39 c2                	cmp    %eax,%edx
   151e7:	0f 9f c0             	setg   %al
   151ea:	0f b6 d0             	movzbl %al,%edx
   151ed:	0f b6 8d b6 e2 ff ff 	movzbl -0x1d4a(%rbp),%ecx
   151f4:	8b 85 68 e4 ff ff    	mov    -0x1b98(%rbp),%eax
   151fa:	85 c0                	test   %eax,%eax
   151fc:	74 13                	je     15211 <func_57+0x5981>
   151fe:	48 8b 85 c8 eb ff ff 	mov    -0x1438(%rbp),%rax
   15205:	48 85 c0             	test   %rax,%rax
   15208:	74 07                	je     15211 <func_57+0x5981>
   1520a:	b8 01 00 00 00       	mov    $0x1,%eax
   1520f:	eb 05                	jmp    15216 <func_57+0x5986>
   15211:	b8 00 00 00 00       	mov    $0x0,%eax
   15216:	39 c8                	cmp    %ecx,%eax
   15218:	0f 9d c0             	setge  %al
   1521b:	0f b6 c0             	movzbl %al,%eax
   1521e:	31 95 30 e3 ff ff    	xor    %edx,-0x1cd0(%rbp)
   15224:	39 85 30 e3 ff ff    	cmp    %eax,-0x1cd0(%rbp)
   1522a:	0f 9f c0             	setg   %al
   1522d:	0f b6 c0             	movzbl %al,%eax
   15230:	be 00 00 00 00       	mov    $0x0,%esi
   15235:	89 c7                	mov    %eax,%edi
   15237:	e8 06 44 ff ff       	callq  9642 <safe_mul_func_int32_t_s_s>
   1523c:	98                   	cwtl   
   1523d:	44 89 e6             	mov    %r12d,%esi
   15240:	89 c7                	mov    %eax,%edi
   15242:	e8 8c 41 ff ff       	callq  93d3 <safe_sub_func_int16_t_s_s>
   15247:	0f b6 c0             	movzbl %al,%eax
   1524a:	44 89 fe             	mov    %r15d,%esi
   1524d:	89 c7                	mov    %eax,%edi
   1524f:	e8 6a 4a ff ff       	callq  9cbe <safe_rshift_func_uint8_t_u_u>
   15254:	0f b6 d0             	movzbl %al,%edx
   15257:	8b 05 27 9e 00 00    	mov    0x9e27(%rip),%eax        # 1f084 <g_238>
   1525d:	31 d0                	xor    %edx,%eax
   1525f:	89 05 1f 9e 00 00    	mov    %eax,0x9e1f(%rip)        # 1f084 <g_238>
   15265:	8b 05 19 9e 00 00    	mov    0x9e19(%rip),%eax        # 1f084 <g_238>
   1526b:	89 de                	mov    %ebx,%esi
   1526d:	89 c7                	mov    %eax,%edi
   1526f:	e8 b1 4c ff ff       	callq  9f25 <safe_div_func_uint32_t_u_u>
   15274:	8b 85 68 e4 ff ff    	mov    -0x1b98(%rbp),%eax
   1527a:	0f be c0             	movsbl %al,%eax
   1527d:	be 06 00 00 00       	mov    $0x6,%esi
   15282:	89 c7                	mov    %eax,%edi
   15284:	e8 ac 40 ff ff       	callq  9335 <safe_rshift_func_int8_t_s_s>
   15289:	0f be c0             	movsbl %al,%eax
   1528c:	89 85 b0 e3 ff ff    	mov    %eax,-0x1c50(%rbp)
   15292:	48 8d 15 f7 d9 00 00 	lea    0xd9f7(%rip),%rdx        # 22c90 <g_66>
   15299:	48 8d 85 68 e4 ff ff 	lea    -0x1b98(%rbp),%rax
   152a0:	48 89 02             	mov    %rax,(%rdx)
   152a3:	0f b7 85 bc e2 ff ff 	movzwl -0x1d44(%rbp),%eax
   152aa:	83 c0 01             	add    $0x1,%eax
   152ad:	66 89 85 bc e2 ff ff 	mov    %ax,-0x1d44(%rbp)
   152b4:	8b 85 d0 e2 ff ff    	mov    -0x1d30(%rbp),%eax
   152ba:	83 c0 01             	add    $0x1,%eax
   152bd:	89 85 d0 e2 ff ff    	mov    %eax,-0x1d30(%rbp)
   152c3:	8b 85 d0 e2 ff ff    	mov    -0x1d30(%rbp),%eax
   152c9:	83 f8 04             	cmp    $0x4,%eax
   152cc:	0f 86 19 fd ff ff    	jbe    14feb <func_57+0x575b>
   152d2:	0f b7 05 8f 9d 00 00 	movzwl 0x9d8f(%rip),%eax        # 1f068 <g_91>
   152d9:	83 c0 01             	add    $0x1,%eax
   152dc:	66 89 05 85 9d 00 00 	mov    %ax,0x9d85(%rip)        # 1f068 <g_91>
   152e3:	0f b7 05 7e 9d 00 00 	movzwl 0x9d7e(%rip),%eax        # 1f068 <g_91>
   152ea:	66 83 f8 04          	cmp    $0x4,%ax
   152ee:	0f 8e 90 fb ff ff    	jle    14e84 <func_57+0x55f4>
   152f4:	eb 01                	jmp    152f7 <func_57+0x5a67>
   152f6:	90                   	nop
   152f7:	c7 85 d4 e2 ff ff 00 	movl   $0x0,-0x1d2c(%rbp)
   152fe:	00 00 00 
   15301:	e9 5b 31 00 00       	jmpq   18461 <func_57+0x8bd1>
   15306:	c7 85 b8 e3 ff ff 01 	movl   $0x1,-0x1c48(%rbp)
   1530d:	00 00 00 
   15310:	c7 85 bc e3 ff ff 0b 	movl   $0x46d5610b,-0x1c44(%rbp)
   15317:	61 d5 46 
   1531a:	48 8d 05 43 9d 00 00 	lea    0x9d43(%rip),%rax        # 1f064 <g_88>
   15321:	48 89 85 48 e4 ff ff 	mov    %rax,-0x1bb8(%rbp)
   15328:	48 8d 85 48 e4 ff ff 	lea    -0x1bb8(%rbp),%rax
   1532f:	48 89 85 50 e4 ff ff 	mov    %rax,-0x1bb0(%rbp)
   15336:	48 8d 85 50 e4 ff ff 	lea    -0x1bb0(%rbp),%rax
   1533d:	48 89 85 c0 eb ff ff 	mov    %rax,-0x1440(%rbp)
   15344:	48 c7 85 c8 eb ff ff 	movq   $0x0,-0x1438(%rbp)
   1534b:	00 00 00 00 
   1534f:	48 c7 85 d0 eb ff ff 	movq   $0x0,-0x1430(%rbp)
   15356:	00 00 00 00 
   1535a:	48 8d 85 50 e4 ff ff 	lea    -0x1bb0(%rbp),%rax
   15361:	48 89 85 d8 eb ff ff 	mov    %rax,-0x1428(%rbp)
   15368:	48 8d 85 50 e4 ff ff 	lea    -0x1bb0(%rbp),%rax
   1536f:	48 89 85 e0 eb ff ff 	mov    %rax,-0x1420(%rbp)
   15376:	48 8d 85 50 e4 ff ff 	lea    -0x1bb0(%rbp),%rax
   1537d:	48 89 85 e8 eb ff ff 	mov    %rax,-0x1418(%rbp)
   15384:	48 c7 85 f0 eb ff ff 	movq   $0x0,-0x1410(%rbp)
   1538b:	00 00 00 00 
   1538f:	48 c7 85 f8 eb ff ff 	movq   $0x0,-0x1408(%rbp)
   15396:	00 00 00 00 
   1539a:	48 c7 85 00 ec ff ff 	movq   $0x0,-0x1400(%rbp)
   153a1:	00 00 00 00 
   153a5:	48 c7 85 08 ec ff ff 	movq   $0x0,-0x13f8(%rbp)
   153ac:	00 00 00 00 
   153b0:	48 8d 85 50 e4 ff ff 	lea    -0x1bb0(%rbp),%rax
   153b7:	48 89 85 10 ec ff ff 	mov    %rax,-0x13f0(%rbp)
   153be:	48 c7 85 18 ec ff ff 	movq   $0x0,-0x13e8(%rbp)
   153c5:	00 00 00 00 
   153c9:	48 c7 85 20 ec ff ff 	movq   $0x0,-0x13e0(%rbp)
   153d0:	00 00 00 00 
   153d4:	48 c7 85 28 ec ff ff 	movq   $0x0,-0x13d8(%rbp)
   153db:	00 00 00 00 
   153df:	48 c7 85 30 ec ff ff 	movq   $0x0,-0x13d0(%rbp)
   153e6:	00 00 00 00 
   153ea:	48 8d 85 50 e4 ff ff 	lea    -0x1bb0(%rbp),%rax
   153f1:	48 89 85 38 ec ff ff 	mov    %rax,-0x13c8(%rbp)
   153f8:	48 8d 85 50 e4 ff ff 	lea    -0x1bb0(%rbp),%rax
   153ff:	48 89 85 40 ec ff ff 	mov    %rax,-0x13c0(%rbp)
   15406:	48 8d 85 50 e4 ff ff 	lea    -0x1bb0(%rbp),%rax
   1540d:	48 89 85 48 ec ff ff 	mov    %rax,-0x13b8(%rbp)
   15414:	48 c7 85 50 ec ff ff 	movq   $0x0,-0x13b0(%rbp)
   1541b:	00 00 00 00 
   1541f:	48 c7 85 58 ec ff ff 	movq   $0x0,-0x13a8(%rbp)
   15426:	00 00 00 00 
   1542a:	48 8d 85 50 e4 ff ff 	lea    -0x1bb0(%rbp),%rax
   15431:	48 89 85 60 ec ff ff 	mov    %rax,-0x13a0(%rbp)
   15438:	c7 85 38 e3 ff ff 07 	movl   $0x7,-0x1cc8(%rbp)
   1543f:	00 00 00 
   15442:	c7 85 c0 e3 ff ff 01 	movl   $0x1,-0x1c40(%rbp)
   15449:	00 00 00 
   1544c:	c7 85 3c e3 ff ff a5 	movl   $0xdbb56aa5,-0x1cc4(%rbp)
   15453:	6a b5 db 
   15456:	66 c7 85 ba e2 ff ff 	movw   $0x1ecb,-0x1d46(%rbp)
   1545d:	cb 1e 
   1545f:	c6 85 af e2 ff ff a1 	movb   $0xa1,-0x1d51(%rbp)
   15466:	c7 45 ba 1b 1b 1b 1b 	movl   $0x1b1b1b1b,-0x46(%rbp)
   1546d:	c6 45 be 1b          	movb   $0x1b,-0x42(%rbp)
   15471:	48 c7 85 18 e6 ff ff 	movq   $0x0,-0x19e8(%rbp)
   15478:	00 00 00 00 
   1547c:	c7 85 c4 e3 ff ff 12 	movl   $0x14de9c12,-0x1c3c(%rbp)
   15483:	9c de 14 
   15486:	c6 85 b8 e2 ff ff f8 	movb   $0xf8,-0x1d48(%rbp)
   1548d:	48 8d 85 30 ed ff ff 	lea    -0x12d0(%rbp),%rax
   15494:	48 8d 15 c5 63 00 00 	lea    0x63c5(%rip),%rdx        # 1b860 <g_5313+0x17ec>
   1549b:	b9 24 00 00 00       	mov    $0x24,%ecx
   154a0:	48 89 c7             	mov    %rax,%rdi
   154a3:	48 89 d6             	mov    %rdx,%rsi
   154a6:	f3 48 a5             	rep movsq %ds:(%rsi),%es:(%rdi)
   154a9:	48 c7 85 20 e6 ff ff 	movq   $0xffffffffffffffff,-0x19e0(%rbp)
   154b0:	ff ff ff ff 
   154b4:	48 8d 05 b1 9b 00 00 	lea    0x9bb1(%rip),%rax        # 1f06c <g_98>
   154bb:	48 89 85 28 e6 ff ff 	mov    %rax,-0x19d8(%rbp)
   154c2:	66 c7 85 ca e2 ff ff 	movw   $0x8db1,-0x1d36(%rbp)
   154c9:	b1 8d 
   154cb:	c6 85 ab e2 ff ff 00 	movb   $0x0,-0x1d55(%rbp)
   154d2:	e9 b6 1f 00 00       	jmpq   1748d <func_57+0x7bfd>
   154d7:	c7 85 80 e7 ff ff a4 	movl   $0xcafb0aa4,-0x1880(%rbp)
   154de:	0a fb ca 
   154e1:	c7 85 84 e7 ff ff a4 	movl   $0xcafb0aa4,-0x187c(%rbp)
   154e8:	0a fb ca 
   154eb:	c7 85 88 e7 ff ff a4 	movl   $0xcafb0aa4,-0x1878(%rbp)
   154f2:	0a fb ca 
   154f5:	c7 85 8c e7 ff ff a4 	movl   $0xcafb0aa4,-0x1874(%rbp)
   154fc:	0a fb ca 
   154ff:	c7 85 90 e7 ff ff a4 	movl   $0xcafb0aa4,-0x1870(%rbp)
   15506:	0a fb ca 
   15509:	c7 85 40 e3 ff ff 8f 	movl   $0xe20f6f8f,-0x1cc0(%rbp)
   15510:	6f 0f e2 
   15513:	c7 85 e8 e3 ff ff ff 	movl   $0xffffffff,-0x1c18(%rbp)
   1551a:	ff ff ff 
   1551d:	c7 85 44 e3 ff ff af 	movl   $0x7501d6af,-0x1cbc(%rbp)
   15524:	d6 01 75 
   15527:	c7 85 48 e3 ff ff 00 	movl   $0x0,-0x1cb8(%rbp)
   1552e:	00 00 00 
   15531:	eb 79                	jmp    155ac <func_57+0x5d1c>
   15533:	c7 85 4c e3 ff ff 00 	movl   $0x0,-0x1cb4(%rbp)
   1553a:	00 00 00 
   1553d:	eb 5d                	jmp    1559c <func_57+0x5d0c>
   1553f:	c7 85 50 e3 ff ff 00 	movl   $0x0,-0x1cb0(%rbp)
   15546:	00 00 00 
   15549:	eb 41                	jmp    1558c <func_57+0x5cfc>
   1554b:	8b 85 50 e3 ff ff    	mov    -0x1cb0(%rbp),%eax
   15551:	48 63 f0             	movslq %eax,%rsi
   15554:	8b 85 4c e3 ff ff    	mov    -0x1cb4(%rbp),%eax
   1555a:	48 63 c8             	movslq %eax,%rcx
   1555d:	8b 85 48 e3 ff ff    	mov    -0x1cb8(%rbp),%eax
   15563:	48 63 d0             	movslq %eax,%rdx
   15566:	48 89 d0             	mov    %rdx,%rax
   15569:	48 c1 e0 03          	shl    $0x3,%rax
   1556d:	48 01 d0             	add    %rdx,%rax
   15570:	48 01 f0             	add    %rsi,%rax
   15573:	48 01 c8             	add    %rcx,%rax
   15576:	48 8d 15 fb c7 00 00 	lea    0xc7fb(%rip),%rdx        # 21d78 <g_844>
   1557d:	48 89 94 c5 f0 e9 ff 	mov    %rdx,-0x1610(%rbp,%rax,8)
   15584:	ff 
   15585:	83 85 50 e3 ff ff 01 	addl   $0x1,-0x1cb0(%rbp)
   1558c:	83 bd 50 e3 ff ff 00 	cmpl   $0x0,-0x1cb0(%rbp)
   15593:	7e b6                	jle    1554b <func_57+0x5cbb>
   15595:	83 85 4c e3 ff ff 01 	addl   $0x1,-0x1cb4(%rbp)
   1559c:	83 bd 4c e3 ff ff 08 	cmpl   $0x8,-0x1cb4(%rbp)
   155a3:	7e 9a                	jle    1553f <func_57+0x5caf>
   155a5:	83 85 48 e3 ff ff 01 	addl   $0x1,-0x1cb8(%rbp)
   155ac:	83 bd 48 e3 ff ff 01 	cmpl   $0x1,-0x1cb8(%rbp)
   155b3:	0f 8e 7a ff ff ff    	jle    15533 <func_57+0x5ca3>
   155b9:	c7 85 48 e3 ff ff 00 	movl   $0x0,-0x1cb8(%rbp)
   155c0:	00 00 00 
   155c3:	eb 4a                	jmp    1560f <func_57+0x5d7f>
   155c5:	c7 85 4c e3 ff ff 00 	movl   $0x0,-0x1cb4(%rbp)
   155cc:	00 00 00 
   155cf:	eb 2e                	jmp    155ff <func_57+0x5d6f>
   155d1:	8b 85 4c e3 ff ff    	mov    -0x1cb4(%rbp),%eax
   155d7:	48 98                	cltq   
   155d9:	8b 95 48 e3 ff ff    	mov    -0x1cb8(%rbp),%edx
   155df:	48 63 d2             	movslq %edx,%rdx
   155e2:	48 c1 e2 02          	shl    $0x2,%rdx
   155e6:	48 01 d0             	add    %rdx,%rax
   155e9:	48 8d 15 f8 c8 00 00 	lea    0xc8f8(%rip),%rdx        # 21ee8 <g_953+0x128>
   155f0:	48 89 94 c5 80 e8 ff 	mov    %rdx,-0x1780(%rbp,%rax,8)
   155f7:	ff 
   155f8:	83 85 4c e3 ff ff 01 	addl   $0x1,-0x1cb4(%rbp)
   155ff:	83 bd 4c e3 ff ff 03 	cmpl   $0x3,-0x1cb4(%rbp)
   15606:	7e c9                	jle    155d1 <func_57+0x5d41>
   15608:	83 85 48 e3 ff ff 01 	addl   $0x1,-0x1cb8(%rbp)
   1560f:	83 bd 48 e3 ff ff 01 	cmpl   $0x1,-0x1cb8(%rbp)
   15616:	7e ad                	jle    155c5 <func_57+0x5d35>
   15618:	c7 85 48 e3 ff ff 00 	movl   $0x0,-0x1cb8(%rbp)
   1561f:	00 00 00 
   15622:	eb 74                	jmp    15698 <func_57+0x5e08>
   15624:	c7 85 4c e3 ff ff 00 	movl   $0x0,-0x1cb4(%rbp)
   1562b:	00 00 00 
   1562e:	eb 58                	jmp    15688 <func_57+0x5df8>
   15630:	c7 85 50 e3 ff ff 00 	movl   $0x0,-0x1cb0(%rbp)
   15637:	00 00 00 
   1563a:	eb 3c                	jmp    15678 <func_57+0x5de8>
   1563c:	8b 85 50 e3 ff ff    	mov    -0x1cb0(%rbp),%eax
   15642:	48 63 f0             	movslq %eax,%rsi
   15645:	8b 85 4c e3 ff ff    	mov    -0x1cb4(%rbp),%eax
   1564b:	48 63 c8             	movslq %eax,%rcx
   1564e:	8b 85 48 e3 ff ff    	mov    -0x1cb8(%rbp),%eax
   15654:	48 63 d0             	movslq %eax,%rdx
   15657:	48 89 d0             	mov    %rdx,%rax
   1565a:	48 01 c0             	add    %rax,%rax
   1565d:	48 01 d0             	add    %rdx,%rax
   15660:	48 01 f0             	add    %rsi,%rax
   15663:	48 01 c8             	add    %rcx,%rax
   15666:	c7 84 85 60 e7 ff ff 	movl   $0xffffffff,-0x18a0(%rbp,%rax,4)
   1566d:	ff ff ff ff 
   15671:	83 85 50 e3 ff ff 01 	addl   $0x1,-0x1cb0(%rbp)
   15678:	83 bd 50 e3 ff ff 00 	cmpl   $0x0,-0x1cb0(%rbp)
   1567f:	7e bb                	jle    1563c <func_57+0x5dac>
   15681:	83 85 4c e3 ff ff 01 	addl   $0x1,-0x1cb4(%rbp)
   15688:	83 bd 4c e3 ff ff 02 	cmpl   $0x2,-0x1cb4(%rbp)
   1568f:	7e 9f                	jle    15630 <func_57+0x5da0>
   15691:	83 85 48 e3 ff ff 01 	addl   $0x1,-0x1cb8(%rbp)
   15698:	83 bd 48 e3 ff ff 00 	cmpl   $0x0,-0x1cb8(%rbp)
   1569f:	7e 83                	jle    15624 <func_57+0x5d94>
   156a1:	83 ad d8 e2 ff ff 01 	subl   $0x1,-0x1d28(%rbp)
   156a8:	48 8b 85 88 e4 ff ff 	mov    -0x1b78(%rbp),%rax
   156af:	66 c7 00 ff ff       	movw   $0xffff,(%rax)
   156b4:	8b 9d b8 e3 ff ff    	mov    -0x1c48(%rbp),%ebx
   156ba:	8b 85 94 e2 ff ff    	mov    -0x1d6c(%rbp),%eax
   156c0:	98                   	cwtl   
   156c1:	89 c7                	mov    %eax,%edi
   156c3:	e8 d5 3c ff ff       	callq  939d <safe_unary_minus_func_int16_t_s>
   156c8:	98                   	cwtl   
   156c9:	23 85 90 e2 ff ff    	and    -0x1d70(%rbp),%eax
   156cf:	85 c0                	test   %eax,%eax
   156d1:	74 10                	je     156e3 <func_57+0x5e53>
   156d3:	83 bd 90 e2 ff ff 00 	cmpl   $0x0,-0x1d70(%rbp)
   156da:	74 07                	je     156e3 <func_57+0x5e53>
   156dc:	b8 01 00 00 00       	mov    $0x1,%eax
   156e1:	eb 05                	jmp    156e8 <func_57+0x5e58>
   156e3:	b8 00 00 00 00       	mov    $0x0,%eax
   156e8:	83 f0 7d             	xor    $0x7d,%eax
   156eb:	89 de                	mov    %ebx,%esi
   156ed:	89 c7                	mov    %eax,%edi
   156ef:	e8 0b 40 ff ff       	callq  96ff <safe_div_func_int32_t_s_s>
   156f4:	83 f8 ff             	cmp    $0xffffffff,%eax
   156f7:	8b 85 90 e7 ff ff    	mov    -0x1870(%rbp),%eax
   156fd:	48 98                	cltq   
   156ff:	48 89 c6             	mov    %rax,%rsi
   15702:	48 bf 5d e4 33 44 6e 	movabs $0x2571d86e4433e45d,%rdi
   15709:	d8 71 25 
   1570c:	e8 30 41 ff ff       	callq  9841 <safe_add_func_int64_t_s_s>
   15711:	8b 85 88 e7 ff ff    	mov    -0x1878(%rbp),%eax
   15717:	85 c0                	test   %eax,%eax
   15719:	0f 8e 35 1d 00 00    	jle    17454 <func_57+0x7bc4>
   1571f:	48 c7 85 68 e6 ff ff 	movq   $0xffffffffffffffff,-0x1998(%rbp)
   15726:	ff ff ff ff 
   1572a:	c7 85 54 e3 ff ff 1c 	movl   $0xa048571c,-0x1cac(%rbp)
   15731:	57 48 a0 
   15734:	c6 85 ad e2 ff ff 06 	movb   $0x6,-0x1d53(%rbp)
   1573b:	48 8d 85 80 e7 ff ff 	lea    -0x1880(%rbp),%rax
   15742:	48 83 c0 10          	add    $0x10,%rax
   15746:	48 89 85 90 ef ff ff 	mov    %rax,-0x1070(%rbp)
   1574d:	48 8d 85 80 e7 ff ff 	lea    -0x1880(%rbp),%rax
   15754:	48 83 c0 10          	add    $0x10,%rax
   15758:	48 89 85 98 ef ff ff 	mov    %rax,-0x1068(%rbp)
   1575f:	48 8d 85 80 e7 ff ff 	lea    -0x1880(%rbp),%rax
   15766:	48 83 c0 10          	add    $0x10,%rax
   1576a:	48 89 85 a0 ef ff ff 	mov    %rax,-0x1060(%rbp)
   15771:	48 8d 85 80 e7 ff ff 	lea    -0x1880(%rbp),%rax
   15778:	48 83 c0 10          	add    $0x10,%rax
   1577c:	48 89 85 a8 ef ff ff 	mov    %rax,-0x1058(%rbp)
   15783:	48 8d 85 80 e7 ff ff 	lea    -0x1880(%rbp),%rax
   1578a:	48 83 c0 10          	add    $0x10,%rax
   1578e:	48 89 85 b0 ef ff ff 	mov    %rax,-0x1050(%rbp)
   15795:	48 8d 85 80 e7 ff ff 	lea    -0x1880(%rbp),%rax
   1579c:	48 83 c0 10          	add    $0x10,%rax
   157a0:	48 89 85 b8 ef ff ff 	mov    %rax,-0x1048(%rbp)
   157a7:	48 8d 85 80 e7 ff ff 	lea    -0x1880(%rbp),%rax
   157ae:	48 83 c0 10          	add    $0x10,%rax
   157b2:	48 89 85 c0 ef ff ff 	mov    %rax,-0x1040(%rbp)
   157b9:	48 8d 85 80 e7 ff ff 	lea    -0x1880(%rbp),%rax
   157c0:	48 83 c0 10          	add    $0x10,%rax
   157c4:	48 89 85 c8 ef ff ff 	mov    %rax,-0x1038(%rbp)
   157cb:	48 8d 85 80 e7 ff ff 	lea    -0x1880(%rbp),%rax
   157d2:	48 83 c0 10          	add    $0x10,%rax
   157d6:	48 89 85 d0 ef ff ff 	mov    %rax,-0x1030(%rbp)
   157dd:	48 8d 85 80 e7 ff ff 	lea    -0x1880(%rbp),%rax
   157e4:	48 83 c0 10          	add    $0x10,%rax
   157e8:	48 89 85 d8 ef ff ff 	mov    %rax,-0x1028(%rbp)
   157ef:	48 8d 85 80 e7 ff ff 	lea    -0x1880(%rbp),%rax
   157f6:	48 83 c0 10          	add    $0x10,%rax
   157fa:	48 89 85 e0 ef ff ff 	mov    %rax,-0x1020(%rbp)
   15801:	48 8d 85 80 e7 ff ff 	lea    -0x1880(%rbp),%rax
   15808:	48 83 c0 10          	add    $0x10,%rax
   1580c:	48 89 85 e8 ef ff ff 	mov    %rax,-0x1018(%rbp)
   15813:	48 8d 85 80 e7 ff ff 	lea    -0x1880(%rbp),%rax
   1581a:	48 83 c0 10          	add    $0x10,%rax
   1581e:	48 89 85 f0 ef ff ff 	mov    %rax,-0x1010(%rbp)
   15825:	48 8d 85 80 e7 ff ff 	lea    -0x1880(%rbp),%rax
   1582c:	48 83 c0 10          	add    $0x10,%rax
   15830:	48 89 85 f8 ef ff ff 	mov    %rax,-0x1008(%rbp)
   15837:	48 8d 85 80 e7 ff ff 	lea    -0x1880(%rbp),%rax
   1583e:	48 83 c0 10          	add    $0x10,%rax
   15842:	48 89 85 00 f0 ff ff 	mov    %rax,-0x1000(%rbp)
   15849:	48 8d 85 80 e7 ff ff 	lea    -0x1880(%rbp),%rax
   15850:	48 83 c0 10          	add    $0x10,%rax
   15854:	48 89 85 08 f0 ff ff 	mov    %rax,-0xff8(%rbp)
   1585b:	48 8d 85 80 e7 ff ff 	lea    -0x1880(%rbp),%rax
   15862:	48 83 c0 10          	add    $0x10,%rax
   15866:	48 89 85 10 f0 ff ff 	mov    %rax,-0xff0(%rbp)
   1586d:	48 8d 85 80 e7 ff ff 	lea    -0x1880(%rbp),%rax
   15874:	48 83 c0 10          	add    $0x10,%rax
   15878:	48 89 85 18 f0 ff ff 	mov    %rax,-0xfe8(%rbp)
   1587f:	48 8d 85 80 e7 ff ff 	lea    -0x1880(%rbp),%rax
   15886:	48 83 c0 10          	add    $0x10,%rax
   1588a:	48 89 85 20 f0 ff ff 	mov    %rax,-0xfe0(%rbp)
   15891:	48 8d 85 80 e7 ff ff 	lea    -0x1880(%rbp),%rax
   15898:	48 83 c0 10          	add    $0x10,%rax
   1589c:	48 89 85 28 f0 ff ff 	mov    %rax,-0xfd8(%rbp)
   158a3:	48 8d 85 80 e7 ff ff 	lea    -0x1880(%rbp),%rax
   158aa:	48 83 c0 10          	add    $0x10,%rax
   158ae:	48 89 85 30 f0 ff ff 	mov    %rax,-0xfd0(%rbp)
   158b5:	48 8d 85 80 e7 ff ff 	lea    -0x1880(%rbp),%rax
   158bc:	48 83 c0 10          	add    $0x10,%rax
   158c0:	48 89 85 38 f0 ff ff 	mov    %rax,-0xfc8(%rbp)
   158c7:	48 8d 85 80 e7 ff ff 	lea    -0x1880(%rbp),%rax
   158ce:	48 83 c0 10          	add    $0x10,%rax
   158d2:	48 89 85 40 f0 ff ff 	mov    %rax,-0xfc0(%rbp)
   158d9:	48 8d 85 80 e7 ff ff 	lea    -0x1880(%rbp),%rax
   158e0:	48 83 c0 10          	add    $0x10,%rax
   158e4:	48 89 85 48 f0 ff ff 	mov    %rax,-0xfb8(%rbp)
   158eb:	48 8d 85 80 e7 ff ff 	lea    -0x1880(%rbp),%rax
   158f2:	48 83 c0 10          	add    $0x10,%rax
   158f6:	48 89 85 50 f0 ff ff 	mov    %rax,-0xfb0(%rbp)
   158fd:	48 8d 85 80 e7 ff ff 	lea    -0x1880(%rbp),%rax
   15904:	48 83 c0 10          	add    $0x10,%rax
   15908:	48 89 85 58 f0 ff ff 	mov    %rax,-0xfa8(%rbp)
   1590f:	48 8d 85 80 e7 ff ff 	lea    -0x1880(%rbp),%rax
   15916:	48 83 c0 10          	add    $0x10,%rax
   1591a:	48 89 85 60 f0 ff ff 	mov    %rax,-0xfa0(%rbp)
   15921:	48 8d 85 80 e7 ff ff 	lea    -0x1880(%rbp),%rax
   15928:	48 83 c0 10          	add    $0x10,%rax
   1592c:	48 89 85 68 f0 ff ff 	mov    %rax,-0xf98(%rbp)
   15933:	48 8d 85 80 e7 ff ff 	lea    -0x1880(%rbp),%rax
   1593a:	48 83 c0 10          	add    $0x10,%rax
   1593e:	48 89 85 70 f0 ff ff 	mov    %rax,-0xf90(%rbp)
   15945:	48 8d 85 80 e7 ff ff 	lea    -0x1880(%rbp),%rax
   1594c:	48 83 c0 10          	add    $0x10,%rax
   15950:	48 89 85 78 f0 ff ff 	mov    %rax,-0xf88(%rbp)
   15957:	48 8d 85 80 e7 ff ff 	lea    -0x1880(%rbp),%rax
   1595e:	48 83 c0 10          	add    $0x10,%rax
   15962:	48 89 85 80 f0 ff ff 	mov    %rax,-0xf80(%rbp)
   15969:	48 8d 85 80 e7 ff ff 	lea    -0x1880(%rbp),%rax
   15970:	48 83 c0 10          	add    $0x10,%rax
   15974:	48 89 85 88 f0 ff ff 	mov    %rax,-0xf78(%rbp)
   1597b:	48 8d 85 80 e7 ff ff 	lea    -0x1880(%rbp),%rax
   15982:	48 83 c0 10          	add    $0x10,%rax
   15986:	48 89 85 90 f0 ff ff 	mov    %rax,-0xf70(%rbp)
   1598d:	48 8d 85 80 e7 ff ff 	lea    -0x1880(%rbp),%rax
   15994:	48 83 c0 10          	add    $0x10,%rax
   15998:	48 89 85 98 f0 ff ff 	mov    %rax,-0xf68(%rbp)
   1599f:	48 8d 85 80 e7 ff ff 	lea    -0x1880(%rbp),%rax
   159a6:	48 83 c0 10          	add    $0x10,%rax
   159aa:	48 89 85 a0 f0 ff ff 	mov    %rax,-0xf60(%rbp)
   159b1:	48 8d 85 80 e7 ff ff 	lea    -0x1880(%rbp),%rax
   159b8:	48 83 c0 10          	add    $0x10,%rax
   159bc:	48 89 85 a8 f0 ff ff 	mov    %rax,-0xf58(%rbp)
   159c3:	48 8d 85 80 e7 ff ff 	lea    -0x1880(%rbp),%rax
   159ca:	48 83 c0 10          	add    $0x10,%rax
   159ce:	48 89 85 b0 f0 ff ff 	mov    %rax,-0xf50(%rbp)
   159d5:	48 8d 85 80 e7 ff ff 	lea    -0x1880(%rbp),%rax
   159dc:	48 83 c0 10          	add    $0x10,%rax
   159e0:	48 89 85 b8 f0 ff ff 	mov    %rax,-0xf48(%rbp)
   159e7:	48 8d 85 80 e7 ff ff 	lea    -0x1880(%rbp),%rax
   159ee:	48 83 c0 10          	add    $0x10,%rax
   159f2:	48 89 85 c0 f0 ff ff 	mov    %rax,-0xf40(%rbp)
   159f9:	48 8d 85 80 e7 ff ff 	lea    -0x1880(%rbp),%rax
   15a00:	48 83 c0 10          	add    $0x10,%rax
   15a04:	48 89 85 c8 f0 ff ff 	mov    %rax,-0xf38(%rbp)
   15a0b:	48 8d 85 80 e7 ff ff 	lea    -0x1880(%rbp),%rax
   15a12:	48 83 c0 10          	add    $0x10,%rax
   15a16:	48 89 85 d0 f0 ff ff 	mov    %rax,-0xf30(%rbp)
   15a1d:	48 8d 85 80 e7 ff ff 	lea    -0x1880(%rbp),%rax
   15a24:	48 83 c0 10          	add    $0x10,%rax
   15a28:	48 89 85 d8 f0 ff ff 	mov    %rax,-0xf28(%rbp)
   15a2f:	48 8d 85 80 e7 ff ff 	lea    -0x1880(%rbp),%rax
   15a36:	48 83 c0 10          	add    $0x10,%rax
   15a3a:	48 89 85 e0 f0 ff ff 	mov    %rax,-0xf20(%rbp)
   15a41:	48 8d 85 80 e7 ff ff 	lea    -0x1880(%rbp),%rax
   15a48:	48 83 c0 10          	add    $0x10,%rax
   15a4c:	48 89 85 e8 f0 ff ff 	mov    %rax,-0xf18(%rbp)
   15a53:	48 8d 85 80 e7 ff ff 	lea    -0x1880(%rbp),%rax
   15a5a:	48 83 c0 10          	add    $0x10,%rax
   15a5e:	48 89 85 f0 f0 ff ff 	mov    %rax,-0xf10(%rbp)
   15a65:	48 8d 85 80 e7 ff ff 	lea    -0x1880(%rbp),%rax
   15a6c:	48 83 c0 10          	add    $0x10,%rax
   15a70:	48 89 85 f8 f0 ff ff 	mov    %rax,-0xf08(%rbp)
   15a77:	48 8d 85 80 e7 ff ff 	lea    -0x1880(%rbp),%rax
   15a7e:	48 83 c0 10          	add    $0x10,%rax
   15a82:	48 89 85 00 f1 ff ff 	mov    %rax,-0xf00(%rbp)
   15a89:	48 8d 85 80 e7 ff ff 	lea    -0x1880(%rbp),%rax
   15a90:	48 83 c0 10          	add    $0x10,%rax
   15a94:	48 89 85 08 f1 ff ff 	mov    %rax,-0xef8(%rbp)
   15a9b:	48 8d 85 80 e7 ff ff 	lea    -0x1880(%rbp),%rax
   15aa2:	48 83 c0 10          	add    $0x10,%rax
   15aa6:	48 89 85 10 f1 ff ff 	mov    %rax,-0xef0(%rbp)
   15aad:	48 8d 85 80 e7 ff ff 	lea    -0x1880(%rbp),%rax
   15ab4:	48 83 c0 10          	add    $0x10,%rax
   15ab8:	48 89 85 18 f1 ff ff 	mov    %rax,-0xee8(%rbp)
   15abf:	48 8d 85 90 ef ff ff 	lea    -0x1070(%rbp),%rax
   15ac6:	48 05 f0 00 00 00    	add    $0xf0,%rax
   15acc:	48 89 85 58 e4 ff ff 	mov    %rax,-0x1ba8(%rbp)
   15ad3:	48 8d 85 58 e4 ff ff 	lea    -0x1ba8(%rbp),%rax
   15ada:	48 89 85 70 e6 ff ff 	mov    %rax,-0x1990(%rbp)
   15ae1:	48 8d 85 40 e4 ff ff 	lea    -0x1bc0(%rbp),%rax
   15ae8:	48 89 85 78 e6 ff ff 	mov    %rax,-0x1988(%rbp)
   15aef:	66 c7 85 ce e2 ff ff 	movw   $0x3f6f,-0x1d32(%rbp)
   15af6:	6f 3f 
   15af8:	48 c7 85 10 e9 ff ff 	movq   $0x0,-0x16f0(%rbp)
   15aff:	00 00 00 00 
   15b03:	48 c7 85 18 e9 ff ff 	movq   $0x0,-0x16e8(%rbp)
   15b0a:	00 00 00 00 
   15b0e:	48 c7 85 20 e9 ff ff 	movq   $0x0,-0x16e0(%rbp)
   15b15:	00 00 00 00 
   15b19:	48 c7 85 28 e9 ff ff 	movq   $0x0,-0x16d8(%rbp)
   15b20:	00 00 00 00 
   15b24:	48 c7 85 30 e9 ff ff 	movq   $0x0,-0x16d0(%rbp)
   15b2b:	00 00 00 00 
   15b2f:	48 c7 85 38 e9 ff ff 	movq   $0x0,-0x16c8(%rbp)
   15b36:	00 00 00 00 
   15b3a:	48 c7 85 40 e9 ff ff 	movq   $0x0,-0x16c0(%rbp)
   15b41:	00 00 00 00 
   15b45:	48 c7 85 48 e9 ff ff 	movq   $0x0,-0x16b8(%rbp)
   15b4c:	00 00 00 00 
   15b50:	c7 85 58 e3 ff ff 00 	movl   $0x0,-0x1ca8(%rbp)
   15b57:	00 00 00 
   15b5a:	eb 1e                	jmp    15b7a <func_57+0x62ea>
   15b5c:	8b 85 58 e3 ff ff    	mov    -0x1ca8(%rbp),%eax
   15b62:	48 98                	cltq   
   15b64:	48 8d 15 3d d1 00 00 	lea    0xd13d(%rip),%rdx        # 22ca8 <g_587>
   15b6b:	48 89 94 c5 10 e8 ff 	mov    %rdx,-0x17f0(%rbp,%rax,8)
   15b72:	ff 
   15b73:	83 85 58 e3 ff ff 01 	addl   $0x1,-0x1ca8(%rbp)
   15b7a:	83 bd 58 e3 ff ff 02 	cmpl   $0x2,-0x1ca8(%rbp)
   15b81:	7e d9                	jle    15b5c <func_57+0x62cc>
   15b83:	66 c7 05 ee 94 00 00 	movw   $0x0,0x94ee(%rip)        # 1f07a <g_159>
   15b8a:	00 00 
   15b8c:	e9 24 07 00 00       	jmpq   162b5 <func_57+0x6a25>
   15b91:	48 c7 85 80 e6 ff ff 	movq   $0xfffffffffffffffd,-0x1980(%rbp)
   15b98:	fd ff ff ff 
   15b9c:	c7 85 f0 e3 ff ff ff 	movl   $0xffffffff,-0x1c10(%rbp)
   15ba3:	ff ff ff 
   15ba6:	48 b8 eb fb ee df 1d 	movabs $0xdd7e3d1ddfeefbeb,%rax
   15bad:	3d 7e dd 
   15bb0:	48 89 85 88 e6 ff ff 	mov    %rax,-0x1978(%rbp)
   15bb7:	48 8b 85 98 e2 ff ff 	mov    -0x1d68(%rbp),%rax
   15bbe:	48 8b 18             	mov    (%rax),%rbx
   15bc1:	0f b7 05 b6 94 00 00 	movzwl 0x94b6(%rip),%eax        # 1f07e <g_234>
   15bc8:	83 c0 01             	add    $0x1,%eax
   15bcb:	66 89 05 ac 94 00 00 	mov    %ax,0x94ac(%rip)        # 1f07e <g_234>
   15bd2:	44 8b a5 94 e2 ff ff 	mov    -0x1d6c(%rbp),%r12d
   15bd9:	0f b7 05 88 94 00 00 	movzwl 0x9488(%rip),%eax        # 1f068 <g_91>
   15be0:	4c 0f bf e8          	movswq %ax,%r13
   15be4:	48 8b 05 95 c1 00 00 	mov    0xc195(%rip),%rax        # 21d80 <g_843>
   15beb:	44 8b b5 90 e7 ff ff 	mov    -0x1870(%rbp),%r14d
   15bf2:	8b 85 f0 e3 ff ff    	mov    -0x1c10(%rbp),%eax
   15bf8:	48 98                	cltq   
   15bfa:	be 01 00 00 00       	mov    $0x1,%esi
   15bff:	48 89 c7             	mov    %rax,%rdi
   15c02:	e8 44 44 ff ff       	callq  a04b <safe_sub_func_uint64_t_u_u>
   15c07:	8b 95 b8 e3 ff ff    	mov    -0x1c48(%rbp),%edx
   15c0d:	48 39 d0             	cmp    %rdx,%rax
   15c10:	0f 93 c0             	setae  %al
   15c13:	89 c2                	mov    %eax,%edx
   15c15:	8b 85 94 e2 ff ff    	mov    -0x1d6c(%rbp),%eax
   15c1b:	31 d0                	xor    %edx,%eax
   15c1d:	0f b6 c0             	movzbl %al,%eax
   15c20:	44 89 f6             	mov    %r14d,%esi
   15c23:	89 c7                	mov    %eax,%edi
   15c25:	e8 63 40 ff ff       	callq  9c8d <safe_rshift_func_uint8_t_u_s>
   15c2a:	0f b6 c0             	movzbl %al,%eax
   15c2d:	0b 85 54 e3 ff ff    	or     -0x1cac(%rbp),%eax
   15c33:	89 c2                	mov    %eax,%edx
   15c35:	8b 85 90 e7 ff ff    	mov    -0x1870(%rbp),%eax
   15c3b:	09 d0                	or     %edx,%eax
   15c3d:	39 85 f0 e3 ff ff    	cmp    %eax,-0x1c10(%rbp)
   15c43:	0f 9f c0             	setg   %al
   15c46:	0f b6 c0             	movzbl %al,%eax
   15c49:	be 09 00 00 00       	mov    $0x9,%esi
   15c4e:	89 c7                	mov    %eax,%edi
   15c50:	e8 3e 3f ff ff       	callq  9b93 <safe_mul_func_uint8_t_u_u>
   15c55:	84 c0                	test   %al,%al
   15c57:	74 10                	je     15c69 <func_57+0x63d9>
   15c59:	83 bd 90 e2 ff ff 00 	cmpl   $0x0,-0x1d70(%rbp)
   15c60:	74 07                	je     15c69 <func_57+0x63d9>
   15c62:	b8 01 00 00 00       	mov    $0x1,%eax
   15c67:	eb 05                	jmp    15c6e <func_57+0x63de>
   15c69:	b8 00 00 00 00       	mov    $0x0,%eax
   15c6e:	0f bf d0             	movswl %ax,%edx
   15c71:	8b 85 84 e7 ff ff    	mov    -0x187c(%rbp),%eax
   15c77:	98                   	cwtl   
   15c78:	89 d6                	mov    %edx,%esi
   15c7a:	89 c7                	mov    %eax,%edi
   15c7c:	e8 74 37 ff ff       	callq  93f5 <safe_mul_func_int16_t_s_s>
   15c81:	98                   	cwtl   
   15c82:	89 85 54 e3 ff ff    	mov    %eax,-0x1cac(%rbp)
   15c88:	8b 85 54 e3 ff ff    	mov    -0x1cac(%rbp),%eax
   15c8e:	0f b7 c0             	movzwl %ax,%eax
   15c91:	be fb ff 00 00       	mov    $0xfffb,%esi
   15c96:	89 c7                	mov    %eax,%edi
   15c98:	e8 bf 40 ff ff       	callq  9d5c <safe_mod_func_uint16_t_u_u>
   15c9d:	0f b7 c0             	movzwl %ax,%eax
   15ca0:	89 c6                	mov    %eax,%esi
   15ca2:	bf b1 5c 00 00       	mov    $0x5cb1,%edi
   15ca7:	e8 b0 40 ff ff       	callq  9d5c <safe_mod_func_uint16_t_u_u>
   15cac:	0f b7 d0             	movzwl %ax,%edx
   15caf:	48 8b 05 fa c0 00 00 	mov    0xc0fa(%rip),%rax        # 21db0 <g_954>
   15cb6:	8b 08                	mov    (%rax),%ecx
   15cb8:	8d 71 ff             	lea    -0x1(%rcx),%esi
   15cbb:	89 30                	mov    %esi,(%rax)
   15cbd:	89 c8                	mov    %ecx,%eax
   15cbf:	48 21 85 80 e6 ff ff 	and    %rax,-0x1980(%rbp)
   15cc6:	48 8b 85 80 e6 ff ff 	mov    -0x1980(%rbp),%rax
   15ccd:	89 d6                	mov    %edx,%esi
   15ccf:	89 c7                	mov    %eax,%edi
   15cd1:	e8 e2 41 ff ff       	callq  9eb8 <safe_add_func_uint32_t_u_u>
   15cd6:	85 c0                	test   %eax,%eax
   15cd8:	74 07                	je     15ce1 <func_57+0x6451>
   15cda:	b8 01 00 00 00       	mov    $0x1,%eax
   15cdf:	eb 05                	jmp    15ce6 <func_57+0x6456>
   15ce1:	b8 00 00 00 00       	mov    $0x0,%eax
   15ce6:	83 f0 05             	xor    $0x5,%eax
   15ce9:	0f b6 c0             	movzbl %al,%eax
   15cec:	be 06 00 00 00       	mov    $0x6,%esi
   15cf1:	89 c7                	mov    %eax,%edi
   15cf3:	e8 95 3f ff ff       	callq  9c8d <safe_rshift_func_uint8_t_u_s>
   15cf8:	0f b6 c0             	movzbl %al,%eax
   15cfb:	4c 89 ee             	mov    %r13,%rsi
   15cfe:	48 89 c7             	mov    %rax,%rdi
   15d01:	e8 f1 3c ff ff       	callq  99f7 <safe_div_func_int64_t_s_s>
   15d06:	89 c2                	mov    %eax,%edx
   15d08:	8b 85 e8 e3 ff ff    	mov    -0x1c18(%rbp),%eax
   15d0e:	89 c6                	mov    %eax,%esi
   15d10:	89 d7                	mov    %edx,%edi
   15d12:	e8 b5 39 ff ff       	callq  96cc <safe_mod_func_int32_t_s_s>
   15d17:	0f b6 d0             	movzbl %al,%edx
   15d1a:	8b 85 bc e3 ff ff    	mov    -0x1c44(%rbp),%eax
   15d20:	0f b6 c0             	movzbl %al,%eax
   15d23:	89 d6                	mov    %edx,%esi
   15d25:	89 c7                	mov    %eax,%edi
   15d27:	e8 82 3e ff ff       	callq  9bae <safe_mod_func_uint8_t_u_u>
   15d2c:	0f b6 d0             	movzbl %al,%edx
   15d2f:	48 8b 05 52 c0 00 00 	mov    0xc052(%rip),%rax        # 21d88 <g_882>
   15d36:	8b 00                	mov    (%rax),%eax
   15d38:	39 c2                	cmp    %eax,%edx
   15d3a:	7c 07                	jl     15d43 <func_57+0x64b3>
   15d3c:	b8 01 00 00 00       	mov    $0x1,%eax
   15d41:	eb 05                	jmp    15d48 <func_57+0x64b8>
   15d43:	b8 00 00 00 00       	mov    $0x0,%eax
   15d48:	33 85 b8 e3 ff ff    	xor    -0x1c48(%rbp),%eax
   15d4e:	44 89 e6             	mov    %r12d,%esi
   15d51:	89 c7                	mov    %eax,%edi
   15d53:	e8 74 39 ff ff       	callq  96cc <safe_mod_func_int32_t_s_s>
   15d58:	f7 d0                	not    %eax
   15d5a:	c1 e8 1f             	shr    $0x1f,%eax
   15d5d:	0f b6 c0             	movzbl %al,%eax
   15d60:	39 85 b8 e3 ff ff    	cmp    %eax,-0x1c48(%rbp)
   15d66:	0f 97 c0             	seta   %al
   15d69:	0f b6 c0             	movzbl %al,%eax
   15d6c:	48 39 85 68 e6 ff ff 	cmp    %rax,-0x1998(%rbp)
   15d73:	73 07                	jae    15d7c <func_57+0x64ec>
   15d75:	b8 01 00 00 00       	mov    $0x1,%eax
   15d7a:	eb 05                	jmp    15d81 <func_57+0x64f1>
   15d7c:	b8 00 00 00 00       	mov    $0x0,%eax
   15d81:	98                   	cwtl   
   15d82:	be d9 4d 00 00       	mov    $0x4dd9,%esi
   15d87:	89 c7                	mov    %eax,%edi
   15d89:	e8 88 36 ff ff       	callq  9416 <safe_mod_func_int16_t_s_s>
   15d8e:	98                   	cwtl   
   15d8f:	be 0d 00 00 00       	mov    $0xd,%esi
   15d94:	89 c7                	mov    %eax,%edi
   15d96:	e8 46 37 ff ff       	callq  94e1 <safe_lshift_func_int16_t_s_u>
   15d9b:	98                   	cwtl   
   15d9c:	89 85 40 e3 ff ff    	mov    %eax,-0x1cc0(%rbp)
   15da2:	be 07 00 00 00       	mov    $0x7,%esi
   15da7:	bf 00 00 00 00       	mov    $0x0,%edi
   15dac:	e8 54 3e ff ff       	callq  9c05 <safe_lshift_func_uint8_t_u_s>
   15db1:	0f b6 c0             	movzbl %al,%eax
   15db4:	39 85 90 e2 ff ff    	cmp    %eax,-0x1d70(%rbp)
   15dba:	0f 9f c0             	setg   %al
   15dbd:	0f b6 c0             	movzbl %al,%eax
   15dc0:	be 04 00 00 00       	mov    $0x4,%esi
   15dc5:	89 c7                	mov    %eax,%edi
   15dc7:	e8 f2 3e ff ff       	callq  9cbe <safe_rshift_func_uint8_t_u_u>
   15dcc:	0f be c0             	movsbl %al,%eax
   15dcf:	be a8 ff ff ff       	mov    $0xffffffa8,%esi
   15dd4:	89 c7                	mov    %eax,%edi
   15dd6:	e8 37 34 ff ff       	callq  9212 <safe_mul_func_int8_t_s_s>
   15ddb:	48 0f be c0          	movsbq %al,%rax
   15ddf:	48 89 de             	mov    %rbx,%rsi
   15de2:	48 89 c7             	mov    %rax,%rdi
   15de5:	e8 c5 42 ff ff       	callq  a0af <safe_div_func_uint64_t_u_u>
   15dea:	88 85 ad e2 ff ff    	mov    %al,-0x1d53(%rbp)
   15df0:	83 bd 90 e2 ff ff 00 	cmpl   $0x0,-0x1d70(%rbp)
   15df7:	0f 85 cb 04 00 00    	jne    162c8 <func_57+0x6a38>
   15dfd:	8b 85 90 e7 ff ff    	mov    -0x1870(%rbp),%eax
   15e03:	41 89 c4             	mov    %eax,%r12d
   15e06:	8b 85 f0 e3 ff ff    	mov    -0x1c10(%rbp),%eax
   15e0c:	48 98                	cltq   
   15e0e:	48 0b 85 88 e6 ff ff 	or     -0x1978(%rbp),%rax
   15e15:	48 85 c0             	test   %rax,%rax
   15e18:	0f 84 93 00 00 00    	je     15eb1 <func_57+0x6621>
   15e1e:	48 8b 85 40 e4 ff ff 	mov    -0x1bc0(%rbp),%rax
   15e25:	8b 10                	mov    (%rax),%edx
   15e27:	48 8b 85 40 e4 ff ff 	mov    -0x1bc0(%rbp),%rax
   15e2e:	83 ca 03             	or     $0x3,%edx
   15e31:	89 10                	mov    %edx,(%rax)
   15e33:	8b 85 90 e2 ff ff    	mov    -0x1d70(%rbp),%eax
   15e39:	0f b6 c0             	movzbl %al,%eax
   15e3c:	89 c6                	mov    %eax,%esi
   15e3e:	bf fd 00 00 00       	mov    $0xfd,%edi
   15e43:	e8 93 3d ff ff       	callq  9bdb <safe_div_func_uint8_t_u_u>
   15e48:	0f b6 d8             	movzbl %al,%ebx
   15e4b:	8b 85 94 e2 ff ff    	mov    -0x1d6c(%rbp),%eax
   15e51:	89 c2                	mov    %eax,%edx
   15e53:	8b 85 90 e2 ff ff    	mov    -0x1d70(%rbp),%eax
   15e59:	98                   	cwtl   
   15e5a:	89 d6                	mov    %edx,%esi
   15e5c:	89 c7                	mov    %eax,%edi
   15e5e:	e8 7e 36 ff ff       	callq  94e1 <safe_lshift_func_int16_t_s_u>
   15e63:	98                   	cwtl   
   15e64:	39 c3                	cmp    %eax,%ebx
   15e66:	0f 9f c0             	setg   %al
   15e69:	0f b6 c0             	movzbl %al,%eax
   15e6c:	89 c6                	mov    %eax,%esi
   15e6e:	bf fa ff ff ff       	mov    $0xfffffffa,%edi
   15e73:	e8 5c 33 ff ff       	callq  91d4 <safe_add_func_int8_t_s_s>
   15e78:	66 98                	cbtw   
   15e7a:	66 89 05 fd 91 00 00 	mov    %ax,0x91fd(%rip)        # 1f07e <g_234>
   15e81:	0f b7 05 f6 91 00 00 	movzwl 0x91f6(%rip),%eax        # 1f07e <g_234>
   15e88:	0f b7 c0             	movzwl %ax,%eax
   15e8b:	48 33 85 88 e6 ff ff 	xor    -0x1978(%rbp),%rax
   15e92:	48 89 c2             	mov    %rax,%rdx
   15e95:	8b 85 b8 e3 ff ff    	mov    -0x1c48(%rbp),%eax
   15e9b:	48 39 c2             	cmp    %rax,%rdx
   15e9e:	76 0a                	jbe    15eaa <func_57+0x661a>
   15ea0:	8b 05 e6 92 00 00    	mov    0x92e6(%rip),%eax        # 1f18c <g_864+0x6c>
   15ea6:	85 c0                	test   %eax,%eax
   15ea8:	74 07                	je     15eb1 <func_57+0x6621>
   15eaa:	b8 01 00 00 00       	mov    $0x1,%eax
   15eaf:	eb 05                	jmp    15eb6 <func_57+0x6626>
   15eb1:	b8 00 00 00 00       	mov    $0x0,%eax
   15eb6:	48 98                	cltq   
   15eb8:	48 be b6 72 01 ab 54 	movabs $0xbf4e4654ab0172b6,%rsi
   15ebf:	46 4e bf 
   15ec2:	48 89 c7             	mov    %rax,%rdi
   15ec5:	e8 2d 3b ff ff       	callq  99f7 <safe_div_func_int64_t_s_s>
   15eca:	48 89 c2             	mov    %rax,%rdx
   15ecd:	48 8b 05 24 b8 00 00 	mov    0xb824(%rip),%rax        # 216f8 <g_72>
   15ed4:	83 e2 01             	and    $0x1,%edx
   15ed7:	48 89 10             	mov    %rdx,(%rax)
   15eda:	48 8b 00             	mov    (%rax),%rax
   15edd:	48 ba 5e d7 82 14 c6 	movabs $0xbe38e2c61482d75e,%rdx
   15ee4:	e2 38 be 
   15ee7:	48 39 d0             	cmp    %rdx,%rax
   15eea:	0f 95 c0             	setne  %al
   15eed:	0f b6 c0             	movzbl %al,%eax
   15ef0:	89 85 94 e2 ff ff    	mov    %eax,-0x1d6c(%rbp)
   15ef6:	8b 85 94 e2 ff ff    	mov    -0x1d6c(%rbp),%eax
   15efc:	3d 93 01 1c 5c       	cmp    $0x5c1c0193,%eax
   15f01:	0f 9f c0             	setg   %al
   15f04:	0f b6 c8             	movzbl %al,%ecx
   15f07:	48 8b 05 a2 be 00 00 	mov    0xbea2(%rip),%rax        # 21db0 <g_954>
   15f0e:	8b 10                	mov    (%rax),%edx
   15f10:	48 8b 05 99 be 00 00 	mov    0xbe99(%rip),%rax        # 21db0 <g_954>
   15f17:	21 ca                	and    %ecx,%edx
   15f19:	89 10                	mov    %edx,(%rax)
   15f1b:	8b 00                	mov    (%rax),%eax
   15f1d:	44 89 e6             	mov    %r12d,%esi
   15f20:	89 c7                	mov    %eax,%edi
   15f22:	e8 d6 3f ff ff       	callq  9efd <safe_mod_func_uint32_t_u_u>
   15f27:	8b 95 84 e7 ff ff    	mov    -0x187c(%rbp),%edx
   15f2d:	48 8b 05 6c be 00 00 	mov    0xbe6c(%rip),%rax        # 21da0 <g_894>
   15f34:	48 8b 00             	mov    (%rax),%rax
   15f37:	48 8b 8d 18 e8 ff ff 	mov    -0x17e8(%rbp),%rcx
   15f3e:	48 89 08             	mov    %rcx,(%rax)
   15f41:	48 8b 00             	mov    (%rax),%rax
   15f44:	48 85 c0             	test   %rax,%rax
   15f47:	0f 95 c0             	setne  %al
   15f4a:	0f b6 c0             	movzbl %al,%eax
   15f4d:	89 d6                	mov    %edx,%esi
   15f4f:	89 c7                	mov    %eax,%edi
   15f51:	e8 af 36 ff ff       	callq  9605 <safe_sub_func_int32_t_s_s>
   15f56:	85 c0                	test   %eax,%eax
   15f58:	0f 84 6e 01 00 00    	je     160cc <func_57+0x683c>
   15f5e:	48 c7 85 60 e4 ff ff 	movq   $0x0,-0x1ba0(%rbp)
   15f65:	00 00 00 00 
   15f69:	48 8d 85 60 e4 ff ff 	lea    -0x1ba0(%rbp),%rax
   15f70:	48 89 85 68 e4 ff ff 	mov    %rax,-0x1b98(%rbp)
   15f77:	48 8d 85 68 e4 ff ff 	lea    -0x1b98(%rbp),%rax
   15f7e:	48 89 85 70 e4 ff ff 	mov    %rax,-0x1b90(%rbp)
   15f85:	48 c7 85 20 f1 ff ff 	movq   $0x0,-0xee0(%rbp)
   15f8c:	00 00 00 00 
   15f90:	48 c7 85 28 f1 ff ff 	movq   $0x0,-0xed8(%rbp)
   15f97:	00 00 00 00 
   15f9b:	48 8d 85 70 e4 ff ff 	lea    -0x1b90(%rbp),%rax
   15fa2:	48 89 85 30 f1 ff ff 	mov    %rax,-0xed0(%rbp)
   15fa9:	48 8d 85 70 e4 ff ff 	lea    -0x1b90(%rbp),%rax
   15fb0:	48 89 85 38 f1 ff ff 	mov    %rax,-0xec8(%rbp)
   15fb7:	48 c7 85 40 f1 ff ff 	movq   $0x0,-0xec0(%rbp)
   15fbe:	00 00 00 00 
   15fc2:	48 c7 85 48 f1 ff ff 	movq   $0x0,-0xeb8(%rbp)
   15fc9:	00 00 00 00 
   15fcd:	48 c7 85 50 f1 ff ff 	movq   $0x0,-0xeb0(%rbp)
   15fd4:	00 00 00 00 
   15fd8:	48 c7 85 58 f1 ff ff 	movq   $0x0,-0xea8(%rbp)
   15fdf:	00 00 00 00 
   15fe3:	48 c7 85 60 f1 ff ff 	movq   $0x0,-0xea0(%rbp)
   15fea:	00 00 00 00 
   15fee:	48 8d 85 70 e4 ff ff 	lea    -0x1b90(%rbp),%rax
   15ff5:	48 89 85 68 f1 ff ff 	mov    %rax,-0xe98(%rbp)
   15ffc:	48 8d 85 70 e4 ff ff 	lea    -0x1b90(%rbp),%rax
   16003:	48 89 85 70 f1 ff ff 	mov    %rax,-0xe90(%rbp)
   1600a:	48 c7 85 78 f1 ff ff 	movq   $0x0,-0xe88(%rbp)
   16011:	00 00 00 00 
   16015:	48 8d 85 70 e4 ff ff 	lea    -0x1b90(%rbp),%rax
   1601c:	48 89 85 80 f1 ff ff 	mov    %rax,-0xe80(%rbp)
   16023:	48 c7 85 88 f1 ff ff 	movq   $0x0,-0xe78(%rbp)
   1602a:	00 00 00 00 
   1602e:	48 8d 85 70 e4 ff ff 	lea    -0x1b90(%rbp),%rax
   16035:	48 89 85 90 f1 ff ff 	mov    %rax,-0xe70(%rbp)
   1603c:	48 c7 85 98 f1 ff ff 	movq   $0x0,-0xe68(%rbp)
   16043:	00 00 00 00 
   16047:	48 8d 85 70 e4 ff ff 	lea    -0x1b90(%rbp),%rax
   1604e:	48 89 85 a0 f1 ff ff 	mov    %rax,-0xe60(%rbp)
   16055:	48 c7 85 a8 f1 ff ff 	movq   $0x0,-0xe58(%rbp)
   1605c:	00 00 00 00 
   16060:	48 8d 85 70 e4 ff ff 	lea    -0x1b90(%rbp),%rax
   16067:	48 89 85 b0 f1 ff ff 	mov    %rax,-0xe50(%rbp)
   1606e:	48 8d 85 70 e4 ff ff 	lea    -0x1b90(%rbp),%rax
   16075:	48 89 85 b8 f1 ff ff 	mov    %rax,-0xe48(%rbp)
   1607c:	48 8d 85 70 e4 ff ff 	lea    -0x1b90(%rbp),%rax
   16083:	48 89 85 c0 f1 ff ff 	mov    %rax,-0xe40(%rbp)
   1608a:	48 c7 85 c8 f1 ff ff 	movq   $0x0,-0xe38(%rbp)
   16091:	00 00 00 00 
   16095:	48 c7 85 d0 f1 ff ff 	movq   $0x0,-0xe30(%rbp)
   1609c:	00 00 00 00 
   160a0:	48 8d 85 70 e4 ff ff 	lea    -0x1b90(%rbp),%rax
   160a7:	48 89 85 d8 f1 ff ff 	mov    %rax,-0xe28(%rbp)
   160ae:	48 8d 85 70 e4 ff ff 	lea    -0x1b90(%rbp),%rax
   160b5:	48 89 85 e0 f1 ff ff 	mov    %rax,-0xe20(%rbp)
   160bc:	48 c7 85 70 e6 ff ff 	movq   $0x0,-0x1990(%rbp)
   160c3:	00 00 00 00 
   160c7:	e9 d8 01 00 00       	jmpq   162a4 <func_57+0x6a14>
   160cc:	48 c7 85 90 e6 ff ff 	movq   $0x1,-0x1970(%rbp)
   160d3:	01 00 00 00 
   160d7:	48 8d 85 c0 eb ff ff 	lea    -0x1440(%rbp),%rax
   160de:	48 83 e8 80          	sub    $0xffffffffffffff80,%rax
   160e2:	48 89 85 98 e6 ff ff 	mov    %rax,-0x1968(%rbp)
   160e9:	48 8d 05 80 8f 00 00 	lea    0x8f80(%rip),%rax        # 1f070 <g_105>
   160f0:	48 89 85 a0 e6 ff ff 	mov    %rax,-0x1960(%rbp)
   160f7:	48 8b 05 8a bc 00 00 	mov    0xbc8a(%rip),%rax        # 21d88 <g_882>
   160fe:	8b 00                	mov    (%rax),%eax
   16100:	85 c0                	test   %eax,%eax
   16102:	0f 85 c3 01 00 00    	jne    162cb <func_57+0x6a3b>
   16108:	c7 85 f0 e3 ff ff 00 	movl   $0x0,-0x1c10(%rbp)
   1610f:	00 00 00 
   16112:	8b 05 68 8f 00 00    	mov    0x8f68(%rip),%eax        # 1f080 <g_237>
   16118:	89 85 54 e3 ff ff    	mov    %eax,-0x1cac(%rbp)
   1611e:	8b 85 54 e3 ff ff    	mov    -0x1cac(%rbp),%eax
   16124:	48 98                	cltq   
   16126:	48 09 85 90 e6 ff ff 	or     %rax,-0x1970(%rbp)
   1612d:	8b 85 b8 e3 ff ff    	mov    -0x1c48(%rbp),%eax
   16133:	0f be d8             	movsbl %al,%ebx
   16136:	8b 85 94 e2 ff ff    	mov    -0x1d6c(%rbp),%eax
   1613c:	44 0f b7 e0          	movzwl %ax,%r12d
   16140:	0f b6 85 ad e2 ff ff 	movzbl -0x1d53(%rbp),%eax
   16147:	44 0f be e8          	movsbl %al,%r13d
   1614b:	8b 85 94 e2 ff ff    	mov    -0x1d6c(%rbp),%eax
   16151:	89 85 7c e2 ff ff    	mov    %eax,-0x1d84(%rbp)
   16157:	8b 85 94 e2 ff ff    	mov    -0x1d6c(%rbp),%eax
   1615d:	44 0f bf f0          	movswl %ax,%r14d
   16161:	8b 85 bc e3 ff ff    	mov    -0x1c44(%rbp),%eax
   16167:	44 0f be f8          	movsbl %al,%r15d
   1616b:	0f b6 85 ad e2 ff ff 	movzbl -0x1d53(%rbp),%eax
   16172:	0f b6 d0             	movzbl %al,%edx
   16175:	8b 85 40 e3 ff ff    	mov    -0x1cc0(%rbp),%eax
   1617b:	48 63 c8             	movslq %eax,%rcx
   1617e:	48 8b 85 98 e4 ff ff 	mov    -0x1b68(%rbp),%rax
   16185:	48 89 08             	mov    %rcx,(%rax)
   16188:	48 8b 85 98 e4 ff ff 	mov    -0x1b68(%rbp),%rax
   1618f:	48 8b 00             	mov    (%rax),%rax
   16192:	48 85 c0             	test   %rax,%rax
   16195:	0f 9e c0             	setle  %al
   16198:	89 c1                	mov    %eax,%ecx
   1619a:	48 8b 85 a0 e6 ff ff 	mov    -0x1960(%rbp),%rax
   161a1:	88 08                	mov    %cl,(%rax)
   161a3:	83 bd 54 e3 ff ff 00 	cmpl   $0x0,-0x1cac(%rbp)
   161aa:	0f 95 c0             	setne  %al
   161ad:	0f b6 c0             	movzbl %al,%eax
   161b0:	48 8b 8d 90 e6 ff ff 	mov    -0x1970(%rbp),%rcx
   161b7:	21 c8                	and    %ecx,%eax
   161b9:	98                   	cwtl   
   161ba:	89 d6                	mov    %edx,%esi
   161bc:	89 c7                	mov    %eax,%edi
   161be:	e8 cf 32 ff ff       	callq  9492 <safe_lshift_func_int16_t_s_s>
   161c3:	0f be c0             	movsbl %al,%eax
   161c6:	44 89 fe             	mov    %r15d,%esi
   161c9:	89 c7                	mov    %eax,%edi
   161cb:	e8 22 30 ff ff       	callq  91f2 <safe_sub_func_int8_t_s_s>
   161d0:	48 8b 95 30 ec ff ff 	mov    -0x13d0(%rbp),%rdx
   161d7:	48 8b 85 98 e6 ff ff 	mov    -0x1968(%rbp),%rax
   161de:	48 89 10             	mov    %rdx,(%rax)
   161e1:	48 8b 85 98 e6 ff ff 	mov    -0x1968(%rbp),%rax
   161e8:	48 8b 00             	mov    (%rax),%rax
   161eb:	48 8d 15 d6 be 00 00 	lea    0xbed6(%rip),%rdx        # 220c8 <g_1122+0x68>
   161f2:	48 39 d0             	cmp    %rdx,%rax
   161f5:	0f 95 c0             	setne  %al
   161f8:	0f b6 c0             	movzbl %al,%eax
   161fb:	44 89 f6             	mov    %r14d,%esi
   161fe:	89 c7                	mov    %eax,%edi
   16200:	e8 f0 31 ff ff       	callq  93f5 <safe_mul_func_int16_t_s_s>
   16205:	66 83 f8 01          	cmp    $0x1,%ax
   16209:	0f 95 c0             	setne  %al
   1620c:	0f b6 c0             	movzbl %al,%eax
   1620f:	89 85 54 e3 ff ff    	mov    %eax,-0x1cac(%rbp)
   16215:	8b 85 54 e3 ff ff    	mov    -0x1cac(%rbp),%eax
   1621b:	0f b6 c0             	movzbl %al,%eax
   1621e:	8b b5 7c e2 ff ff    	mov    -0x1d84(%rbp),%esi
   16224:	89 c7                	mov    %eax,%edi
   16226:	e8 21 3a ff ff       	callq  9c4c <safe_lshift_func_uint8_t_u_u>
   1622b:	0f b6 c0             	movzbl %al,%eax
   1622e:	89 85 74 ec ff ff    	mov    %eax,-0x138c(%rbp)
   16234:	8b 85 74 ec ff ff    	mov    -0x138c(%rbp),%eax
   1623a:	0f be c0             	movsbl %al,%eax
   1623d:	44 89 ee             	mov    %r13d,%esi
   16240:	89 c7                	mov    %eax,%edi
   16242:	e8 ea 2f ff ff       	callq  9231 <safe_mod_func_int8_t_s_s>
   16247:	48 0f be d0          	movsbq %al,%rdx
   1624b:	48 8b 85 90 e6 ff ff 	mov    -0x1970(%rbp),%rax
   16252:	48 89 d6             	mov    %rdx,%rsi
   16255:	48 89 c7             	mov    %rax,%rdi
   16258:	e8 23 3e ff ff       	callq  a080 <safe_mod_func_uint64_t_u_u>
   1625d:	0f b7 c0             	movzwl %ax,%eax
   16260:	44 89 e6             	mov    %r12d,%esi
   16263:	89 c7                	mov    %eax,%edi
   16265:	e8 d3 3a ff ff       	callq  9d3d <safe_mul_func_uint16_t_u_u>
   1626a:	0f be c0             	movsbl %al,%eax
   1626d:	89 de                	mov    %ebx,%esi
   1626f:	89 c7                	mov    %eax,%edi
   16271:	e8 f4 2f ff ff       	callq  926a <safe_div_func_int8_t_s_s>
   16276:	be 03 00 00 00       	mov    $0x3,%esi
   1627b:	bf 01 00 00 00       	mov    $0x1,%edi
   16280:	e8 1c 30 ff ff       	callq  92a1 <safe_lshift_func_int8_t_s_s>
   16285:	0f b6 c0             	movzbl %al,%eax
   16288:	89 c6                	mov    %eax,%esi
   1628a:	bf ff 00 00 00       	mov    $0xff,%edi
   1628f:	e8 1a 39 ff ff       	callq  9bae <safe_mod_func_uint8_t_u_u>
   16294:	0f b6 c0             	movzbl %al,%eax
   16297:	48 33 85 90 e6 ff ff 	xor    -0x1970(%rbp),%rax
   1629e:	21 85 44 e3 ff ff    	and    %eax,-0x1cbc(%rbp)
   162a4:	0f b7 05 cf 8d 00 00 	movzwl 0x8dcf(%rip),%eax        # 1f07a <g_159>
   162ab:	83 c0 01             	add    $0x1,%eax
   162ae:	66 89 05 c5 8d 00 00 	mov    %ax,0x8dc5(%rip)        # 1f07a <g_159>
   162b5:	0f b7 05 be 8d 00 00 	movzwl 0x8dbe(%rip),%eax        # 1f07a <g_159>
   162bc:	66 83 f8 35          	cmp    $0x35,%ax
   162c0:	0f 87 cb f8 ff ff    	ja     15b91 <func_57+0x6301>
   162c6:	eb 04                	jmp    162cc <func_57+0x6a3c>
   162c8:	90                   	nop
   162c9:	eb 01                	jmp    162cc <func_57+0x6a3c>
   162cb:	90                   	nop
   162cc:	66 c7 05 a5 8d 00 00 	movw   $0x0,0x8da5(%rip)        # 1f07a <g_159>
   162d3:	00 00 
   162d5:	e9 28 10 00 00       	jmpq   17302 <func_57+0x7a72>
   162da:	48 8d 85 ad e2 ff ff 	lea    -0x1d53(%rbp),%rax
   162e1:	48 89 85 a8 e6 ff ff 	mov    %rax,-0x1958(%rbp)
   162e8:	c7 85 f4 e3 ff ff fb 	movl   $0xfffffffb,-0x1c0c(%rbp)
   162ef:	ff ff ff 
   162f2:	48 8b 05 b7 ba 00 00 	mov    0xbab7(%rip),%rax        # 21db0 <g_954>
   162f9:	8b 00                	mov    (%rax),%eax
   162fb:	8b 95 94 e2 ff ff    	mov    -0x1d6c(%rbp),%edx
   16301:	31 d0                	xor    %edx,%eax
   16303:	f7 d0                	not    %eax
   16305:	89 85 94 e2 ff ff    	mov    %eax,-0x1d6c(%rbp)
   1630b:	8b 85 94 e2 ff ff    	mov    -0x1d6c(%rbp),%eax
   16311:	85 c0                	test   %eax,%eax
   16313:	74 16                	je     1632b <func_57+0x6a9b>
   16315:	48 8b 05 dc b3 00 00 	mov    0xb3dc(%rip),%rax        # 216f8 <g_72>
   1631c:	48 8b 00             	mov    (%rax),%rax
   1631f:	48 85 c0             	test   %rax,%rax
   16322:	74 07                	je     1632b <func_57+0x6a9b>
   16324:	b8 01 00 00 00       	mov    $0x1,%eax
   16329:	eb 05                	jmp    16330 <func_57+0x6aa0>
   1632b:	b8 00 00 00 00       	mov    $0x0,%eax
   16330:	89 c2                	mov    %eax,%edx
   16332:	48 8b 05 cf b3 00 00 	mov    0xb3cf(%rip),%rax        # 21708 <g_167>
   16339:	8b 00                	mov    (%rax),%eax
   1633b:	31 d0                	xor    %edx,%eax
   1633d:	89 c2                	mov    %eax,%edx
   1633f:	48 8b 85 a8 e6 ff ff 	mov    -0x1958(%rbp),%rax
   16346:	88 10                	mov    %dl,(%rax)
   16348:	48 8b 85 98 e2 ff ff 	mov    -0x1d68(%rbp),%rax
   1634f:	48 8b 00             	mov    (%rax),%rax
   16352:	49 89 c5             	mov    %rax,%r13
   16355:	8b 85 90 e2 ff ff    	mov    -0x1d70(%rbp),%eax
   1635b:	0f b7 d8             	movzwl %ax,%ebx
   1635e:	8b 85 94 e2 ff ff    	mov    -0x1d6c(%rbp),%eax
   16364:	39 85 90 e2 ff ff    	cmp    %eax,-0x1d70(%rbp)
   1636a:	0f 95 c0             	setne  %al
   1636d:	44 0f b6 e0          	movzbl %al,%r12d
   16371:	8b 85 b8 e3 ff ff    	mov    -0x1c48(%rbp),%eax
   16377:	0f b6 d0             	movzbl %al,%edx
   1637a:	8b 85 8c e7 ff ff    	mov    -0x1874(%rbp),%eax
   16380:	0f b6 c0             	movzbl %al,%eax
   16383:	89 d6                	mov    %edx,%esi
   16385:	89 c7                	mov    %eax,%edi
   16387:	e8 4f 38 ff ff       	callq  9bdb <safe_div_func_uint8_t_u_u>
   1638c:	3c 01                	cmp    $0x1,%al
   1638e:	0f 96 c0             	setbe  %al
   16391:	0f b6 c0             	movzbl %al,%eax
   16394:	41 39 c4             	cmp    %eax,%r12d
   16397:	0f 9d c0             	setge  %al
   1639a:	0f b6 c0             	movzbl %al,%eax
   1639d:	89 de                	mov    %ebx,%esi
   1639f:	89 c7                	mov    %eax,%edi
   163a1:	e8 97 39 ff ff       	callq  9d3d <safe_mul_func_uint16_t_u_u>
   163a6:	0f b7 d8             	movzwl %ax,%ebx
   163a9:	be 01 00 00 00       	mov    $0x1,%esi
   163ae:	bf 07 00 00 00       	mov    $0x7,%edi
   163b3:	e8 7d 2f ff ff       	callq  9335 <safe_rshift_func_int8_t_s_s>
   163b8:	0f be c0             	movsbl %al,%eax
   163bb:	89 de                	mov    %ebx,%esi
   163bd:	89 c7                	mov    %eax,%edi
   163bf:	e8 39 3b ff ff       	callq  9efd <safe_mod_func_uint32_t_u_u>
   163c4:	89 c0                	mov    %eax,%eax
   163c6:	4c 89 ee             	mov    %r13,%rsi
   163c9:	48 89 c7             	mov    %rax,%rdi
   163cc:	e8 26 36 ff ff       	callq  99f7 <safe_div_func_int64_t_s_s>
   163d1:	8b 85 bc e3 ff ff    	mov    -0x1c44(%rbp),%eax
   163d7:	89 c6                	mov    %eax,%esi
   163d9:	bf 00 00 00 00       	mov    $0x0,%edi
   163de:	e8 69 38 ff ff       	callq  9c4c <safe_lshift_func_uint8_t_u_u>
   163e3:	48 8b 05 9e b9 00 00 	mov    0xb99e(%rip),%rax        # 21d88 <g_882>
   163ea:	8b 00                	mov    (%rax),%eax
   163ec:	85 c0                	test   %eax,%eax
   163ee:	0f 84 29 0d 00 00    	je     1711d <func_57+0x788d>
   163f4:	48 c7 85 b8 e6 ff ff 	movq   $0x0,-0x1948(%rbp)
   163fb:	00 00 00 00 
   163ff:	48 8d 05 76 8c 00 00 	lea    0x8c76(%rip),%rax        # 1f07c <g_165>
   16406:	48 89 85 c0 e6 ff ff 	mov    %rax,-0x1940(%rbp)
   1640d:	48 8d 05 1c 8c 00 00 	lea    0x8c1c(%rip),%rax        # 1f030 <g_39>
   16414:	48 89 85 20 f1 ff ff 	mov    %rax,-0xee0(%rbp)
   1641b:	48 8d 05 0e 8c 00 00 	lea    0x8c0e(%rip),%rax        # 1f030 <g_39>
   16422:	48 89 85 28 f1 ff ff 	mov    %rax,-0xed8(%rbp)
   16429:	48 8d 85 ab e2 ff ff 	lea    -0x1d55(%rbp),%rax
   16430:	48 89 85 30 f1 ff ff 	mov    %rax,-0xed0(%rbp)
   16437:	48 8d 05 ca 8c 00 00 	lea    0x8cca(%rip),%rax        # 1f108 <g_603>
   1643e:	48 89 85 38 f1 ff ff 	mov    %rax,-0xec8(%rbp)
   16445:	48 8d 05 e4 8b 00 00 	lea    0x8be4(%rip),%rax        # 1f030 <g_39>
   1644c:	48 89 85 40 f1 ff ff 	mov    %rax,-0xec0(%rbp)
   16453:	48 8d 05 ae 8c 00 00 	lea    0x8cae(%rip),%rax        # 1f108 <g_603>
   1645a:	48 89 85 48 f1 ff ff 	mov    %rax,-0xeb8(%rbp)
   16461:	48 8d 05 c8 8b 00 00 	lea    0x8bc8(%rip),%rax        # 1f030 <g_39>
   16468:	48 89 85 50 f1 ff ff 	mov    %rax,-0xeb0(%rbp)
   1646f:	48 8d 05 ba 8b 00 00 	lea    0x8bba(%rip),%rax        # 1f030 <g_39>
   16476:	48 89 85 58 f1 ff ff 	mov    %rax,-0xea8(%rbp)
   1647d:	48 8d 05 ac 8b 00 00 	lea    0x8bac(%rip),%rax        # 1f030 <g_39>
   16484:	48 89 85 60 f1 ff ff 	mov    %rax,-0xea0(%rbp)
   1648b:	48 8d 05 9e 8b 00 00 	lea    0x8b9e(%rip),%rax        # 1f030 <g_39>
   16492:	48 89 85 68 f1 ff ff 	mov    %rax,-0xe98(%rbp)
   16499:	48 8d 05 d0 8b 00 00 	lea    0x8bd0(%rip),%rax        # 1f070 <g_105>
   164a0:	48 89 85 70 f1 ff ff 	mov    %rax,-0xe90(%rbp)
   164a7:	48 8d 05 c2 8b 00 00 	lea    0x8bc2(%rip),%rax        # 1f070 <g_105>
   164ae:	48 89 85 78 f1 ff ff 	mov    %rax,-0xe88(%rbp)
   164b5:	48 8d 85 ac e2 ff ff 	lea    -0x1d54(%rbp),%rax
   164bc:	48 89 85 80 f1 ff ff 	mov    %rax,-0xe80(%rbp)
   164c3:	48 8d 05 3e 8c 00 00 	lea    0x8c3e(%rip),%rax        # 1f108 <g_603>
   164ca:	48 89 85 88 f1 ff ff 	mov    %rax,-0xe78(%rbp)
   164d1:	48 8d 05 58 8b 00 00 	lea    0x8b58(%rip),%rax        # 1f030 <g_39>
   164d8:	48 89 85 90 f1 ff ff 	mov    %rax,-0xe70(%rbp)
   164df:	48 8d 05 4a 8b 00 00 	lea    0x8b4a(%rip),%rax        # 1f030 <g_39>
   164e6:	48 89 85 98 f1 ff ff 	mov    %rax,-0xe68(%rbp)
   164ed:	48 8d 05 3c 8b 00 00 	lea    0x8b3c(%rip),%rax        # 1f030 <g_39>
   164f4:	48 89 85 a0 f1 ff ff 	mov    %rax,-0xe60(%rbp)
   164fb:	48 c7 85 a8 f1 ff ff 	movq   $0x0,-0xe58(%rbp)
   16502:	00 00 00 00 
   16506:	48 8d 05 23 8b 00 00 	lea    0x8b23(%rip),%rax        # 1f030 <g_39>
   1650d:	48 89 85 b0 f1 ff ff 	mov    %rax,-0xe50(%rbp)
   16514:	48 c7 85 b8 f1 ff ff 	movq   $0x0,-0xe48(%rbp)
   1651b:	00 00 00 00 
   1651f:	48 8d 85 ac e2 ff ff 	lea    -0x1d54(%rbp),%rax
   16526:	48 89 85 c0 f1 ff ff 	mov    %rax,-0xe40(%rbp)
   1652d:	48 c7 85 c8 f1 ff ff 	movq   $0x0,-0xe38(%rbp)
   16534:	00 00 00 00 
   16538:	48 8d 05 31 8b 00 00 	lea    0x8b31(%rip),%rax        # 1f070 <g_105>
   1653f:	48 89 85 d0 f1 ff ff 	mov    %rax,-0xe30(%rbp)
   16546:	48 8d 85 ac e2 ff ff 	lea    -0x1d54(%rbp),%rax
   1654d:	48 89 85 d8 f1 ff ff 	mov    %rax,-0xe28(%rbp)
   16554:	48 8d 05 d5 8a 00 00 	lea    0x8ad5(%rip),%rax        # 1f030 <g_39>
   1655b:	48 89 85 e0 f1 ff ff 	mov    %rax,-0xe20(%rbp)
   16562:	48 8d 05 c7 8a 00 00 	lea    0x8ac7(%rip),%rax        # 1f030 <g_39>
   16569:	48 89 85 e8 f1 ff ff 	mov    %rax,-0xe18(%rbp)
   16570:	48 8d 05 b9 8a 00 00 	lea    0x8ab9(%rip),%rax        # 1f030 <g_39>
   16577:	48 89 85 f0 f1 ff ff 	mov    %rax,-0xe10(%rbp)
   1657e:	48 8d 85 ab e2 ff ff 	lea    -0x1d55(%rbp),%rax
   16585:	48 89 85 f8 f1 ff ff 	mov    %rax,-0xe08(%rbp)
   1658c:	48 8d 05 9d 8a 00 00 	lea    0x8a9d(%rip),%rax        # 1f030 <g_39>
   16593:	48 89 85 00 f2 ff ff 	mov    %rax,-0xe00(%rbp)
   1659a:	48 8d 85 ab e2 ff ff 	lea    -0x1d55(%rbp),%rax
   165a1:	48 89 85 08 f2 ff ff 	mov    %rax,-0xdf8(%rbp)
   165a8:	48 8d 85 ab e2 ff ff 	lea    -0x1d55(%rbp),%rax
   165af:	48 89 85 10 f2 ff ff 	mov    %rax,-0xdf0(%rbp)
   165b6:	48 8d 85 ab e2 ff ff 	lea    -0x1d55(%rbp),%rax
   165bd:	48 89 85 18 f2 ff ff 	mov    %rax,-0xde8(%rbp)
   165c4:	48 8d 05 65 8a 00 00 	lea    0x8a65(%rip),%rax        # 1f030 <g_39>
   165cb:	48 89 85 20 f2 ff ff 	mov    %rax,-0xde0(%rbp)
   165d2:	48 8d 05 97 8a 00 00 	lea    0x8a97(%rip),%rax        # 1f070 <g_105>
   165d9:	48 89 85 28 f2 ff ff 	mov    %rax,-0xdd8(%rbp)
   165e0:	48 8d 85 ac e2 ff ff 	lea    -0x1d54(%rbp),%rax
   165e7:	48 89 85 30 f2 ff ff 	mov    %rax,-0xdd0(%rbp)
   165ee:	48 c7 85 38 f2 ff ff 	movq   $0x0,-0xdc8(%rbp)
   165f5:	00 00 00 00 
   165f9:	48 8d 05 70 8a 00 00 	lea    0x8a70(%rip),%rax        # 1f070 <g_105>
   16600:	48 89 85 40 f2 ff ff 	mov    %rax,-0xdc0(%rbp)
   16607:	48 c7 85 48 f2 ff ff 	movq   $0x0,-0xdb8(%rbp)
   1660e:	00 00 00 00 
   16612:	48 c7 85 50 f2 ff ff 	movq   $0x0,-0xdb0(%rbp)
   16619:	00 00 00 00 
   1661d:	48 8d 85 ab e2 ff ff 	lea    -0x1d55(%rbp),%rax
   16624:	48 89 85 58 f2 ff ff 	mov    %rax,-0xda8(%rbp)
   1662b:	48 8d 05 fe 89 00 00 	lea    0x89fe(%rip),%rax        # 1f030 <g_39>
   16632:	48 89 85 60 f2 ff ff 	mov    %rax,-0xda0(%rbp)
   16639:	48 8d 05 c8 8a 00 00 	lea    0x8ac8(%rip),%rax        # 1f108 <g_603>
   16640:	48 89 85 68 f2 ff ff 	mov    %rax,-0xd98(%rbp)
   16647:	48 c7 85 70 f2 ff ff 	movq   $0x0,-0xd90(%rbp)
   1664e:	00 00 00 00 
   16652:	48 8d 05 17 8a 00 00 	lea    0x8a17(%rip),%rax        # 1f070 <g_105>
   16659:	48 89 85 78 f2 ff ff 	mov    %rax,-0xd88(%rbp)
   16660:	48 8d 05 c9 89 00 00 	lea    0x89c9(%rip),%rax        # 1f030 <g_39>
   16667:	48 89 85 80 f2 ff ff 	mov    %rax,-0xd80(%rbp)
   1666e:	48 c7 85 88 f2 ff ff 	movq   $0x0,-0xd78(%rbp)
   16675:	00 00 00 00 
   16679:	48 8d 05 88 8a 00 00 	lea    0x8a88(%rip),%rax        # 1f108 <g_603>
   16680:	48 89 85 90 f2 ff ff 	mov    %rax,-0xd70(%rbp)
   16687:	48 8d 85 ab e2 ff ff 	lea    -0x1d55(%rbp),%rax
   1668e:	48 89 85 98 f2 ff ff 	mov    %rax,-0xd68(%rbp)
   16695:	48 8d 05 d4 89 00 00 	lea    0x89d4(%rip),%rax        # 1f070 <g_105>
   1669c:	48 89 85 a0 f2 ff ff 	mov    %rax,-0xd60(%rbp)
   166a3:	48 8d 05 c6 89 00 00 	lea    0x89c6(%rip),%rax        # 1f070 <g_105>
   166aa:	48 89 85 a8 f2 ff ff 	mov    %rax,-0xd58(%rbp)
   166b1:	48 8d 05 50 8a 00 00 	lea    0x8a50(%rip),%rax        # 1f108 <g_603>
   166b8:	48 89 85 b0 f2 ff ff 	mov    %rax,-0xd50(%rbp)
   166bf:	48 c7 85 b8 f2 ff ff 	movq   $0x0,-0xd48(%rbp)
   166c6:	00 00 00 00 
   166ca:	48 8d 05 9f 89 00 00 	lea    0x899f(%rip),%rax        # 1f070 <g_105>
   166d1:	48 89 85 c0 f2 ff ff 	mov    %rax,-0xd40(%rbp)
   166d8:	48 8d 85 ac e2 ff ff 	lea    -0x1d54(%rbp),%rax
   166df:	48 89 85 c8 f2 ff ff 	mov    %rax,-0xd38(%rbp)
   166e6:	48 8d 85 ac e2 ff ff 	lea    -0x1d54(%rbp),%rax
   166ed:	48 89 85 d0 f2 ff ff 	mov    %rax,-0xd30(%rbp)
   166f4:	48 8d 85 ac e2 ff ff 	lea    -0x1d54(%rbp),%rax
   166fb:	48 89 85 d8 f2 ff ff 	mov    %rax,-0xd28(%rbp)
   16702:	48 c7 85 e0 f2 ff ff 	movq   $0x0,-0xd20(%rbp)
   16709:	00 00 00 00 
   1670d:	48 c7 85 e8 f2 ff ff 	movq   $0x0,-0xd18(%rbp)
   16714:	00 00 00 00 
   16718:	48 c7 85 f0 f2 ff ff 	movq   $0x0,-0xd10(%rbp)
   1671f:	00 00 00 00 
   16723:	48 8d 05 de 89 00 00 	lea    0x89de(%rip),%rax        # 1f108 <g_603>
   1672a:	48 89 85 f8 f2 ff ff 	mov    %rax,-0xd08(%rbp)
   16731:	48 8d 05 f8 88 00 00 	lea    0x88f8(%rip),%rax        # 1f030 <g_39>
   16738:	48 89 85 00 f3 ff ff 	mov    %rax,-0xd00(%rbp)
   1673f:	48 8d 05 ea 88 00 00 	lea    0x88ea(%rip),%rax        # 1f030 <g_39>
   16746:	48 89 85 08 f3 ff ff 	mov    %rax,-0xcf8(%rbp)
   1674d:	48 c7 85 10 f3 ff ff 	movq   $0x0,-0xcf0(%rbp)
   16754:	00 00 00 00 
   16758:	48 8d 05 11 89 00 00 	lea    0x8911(%rip),%rax        # 1f070 <g_105>
   1675f:	48 89 85 18 f3 ff ff 	mov    %rax,-0xce8(%rbp)
   16766:	48 8d 85 ac e2 ff ff 	lea    -0x1d54(%rbp),%rax
   1676d:	48 89 85 20 f3 ff ff 	mov    %rax,-0xce0(%rbp)
   16774:	48 c7 85 28 f3 ff ff 	movq   $0x0,-0xcd8(%rbp)
   1677b:	00 00 00 00 
   1677f:	48 8d 05 aa 88 00 00 	lea    0x88aa(%rip),%rax        # 1f030 <g_39>
   16786:	48 89 85 30 f3 ff ff 	mov    %rax,-0xcd0(%rbp)
   1678d:	48 c7 85 38 f3 ff ff 	movq   $0x0,-0xcc8(%rbp)
   16794:	00 00 00 00 
   16798:	48 8d 05 91 88 00 00 	lea    0x8891(%rip),%rax        # 1f030 <g_39>
   1679f:	48 89 85 40 f3 ff ff 	mov    %rax,-0xcc0(%rbp)
   167a6:	48 c7 85 48 f3 ff ff 	movq   $0x0,-0xcb8(%rbp)
   167ad:	00 00 00 00 
   167b1:	48 8d 05 78 88 00 00 	lea    0x8878(%rip),%rax        # 1f030 <g_39>
   167b8:	48 89 85 50 f3 ff ff 	mov    %rax,-0xcb0(%rbp)
   167bf:	48 8d 05 aa 88 00 00 	lea    0x88aa(%rip),%rax        # 1f070 <g_105>
   167c6:	48 89 85 58 f3 ff ff 	mov    %rax,-0xca8(%rbp)
   167cd:	48 c7 85 60 f3 ff ff 	movq   $0x0,-0xca0(%rbp)
   167d4:	00 00 00 00 
   167d8:	48 8d 05 51 88 00 00 	lea    0x8851(%rip),%rax        # 1f030 <g_39>
   167df:	48 89 85 68 f3 ff ff 	mov    %rax,-0xc98(%rbp)
   167e6:	48 8d 85 ab e2 ff ff 	lea    -0x1d55(%rbp),%rax
   167ed:	48 89 85 70 f3 ff ff 	mov    %rax,-0xc90(%rbp)
   167f4:	48 8d 05 0d 89 00 00 	lea    0x890d(%rip),%rax        # 1f108 <g_603>
   167fb:	48 89 85 78 f3 ff ff 	mov    %rax,-0xc88(%rbp)
   16802:	48 8d 05 67 88 00 00 	lea    0x8867(%rip),%rax        # 1f070 <g_105>
   16809:	48 89 85 80 f3 ff ff 	mov    %rax,-0xc80(%rbp)
   16810:	48 c7 85 88 f3 ff ff 	movq   $0x0,-0xc78(%rbp)
   16817:	00 00 00 00 
   1681b:	48 8d 85 ac e2 ff ff 	lea    -0x1d54(%rbp),%rax
   16822:	48 89 85 90 f3 ff ff 	mov    %rax,-0xc70(%rbp)
   16829:	48 8d 85 ac e2 ff ff 	lea    -0x1d54(%rbp),%rax
   16830:	48 89 85 98 f3 ff ff 	mov    %rax,-0xc68(%rbp)
   16837:	48 8d 05 f2 87 00 00 	lea    0x87f2(%rip),%rax        # 1f030 <g_39>
   1683e:	48 89 85 a0 f3 ff ff 	mov    %rax,-0xc60(%rbp)
   16845:	48 8d 85 ac e2 ff ff 	lea    -0x1d54(%rbp),%rax
   1684c:	48 89 85 a8 f3 ff ff 	mov    %rax,-0xc58(%rbp)
   16853:	48 8d 05 d6 87 00 00 	lea    0x87d6(%rip),%rax        # 1f030 <g_39>
   1685a:	48 89 85 b0 f3 ff ff 	mov    %rax,-0xc50(%rbp)
   16861:	48 c7 85 b8 f3 ff ff 	movq   $0x0,-0xc48(%rbp)
   16868:	00 00 00 00 
   1686c:	48 8d 05 fd 87 00 00 	lea    0x87fd(%rip),%rax        # 1f070 <g_105>
   16873:	48 89 85 c0 f3 ff ff 	mov    %rax,-0xc40(%rbp)
   1687a:	48 8d 05 ef 87 00 00 	lea    0x87ef(%rip),%rax        # 1f070 <g_105>
   16881:	48 89 85 c8 f3 ff ff 	mov    %rax,-0xc38(%rbp)
   16888:	48 c7 85 d0 f3 ff ff 	movq   $0x0,-0xc30(%rbp)
   1688f:	00 00 00 00 
   16893:	48 8d 05 d6 87 00 00 	lea    0x87d6(%rip),%rax        # 1f070 <g_105>
   1689a:	48 89 85 d8 f3 ff ff 	mov    %rax,-0xc28(%rbp)
   168a1:	48 8d 85 ab e2 ff ff 	lea    -0x1d55(%rbp),%rax
   168a8:	48 89 85 e0 f3 ff ff 	mov    %rax,-0xc20(%rbp)
   168af:	48 8d 05 ba 87 00 00 	lea    0x87ba(%rip),%rax        # 1f070 <g_105>
   168b6:	48 89 85 e8 f3 ff ff 	mov    %rax,-0xc18(%rbp)
   168bd:	48 8d 85 ac e2 ff ff 	lea    -0x1d54(%rbp),%rax
   168c4:	48 89 85 f0 f3 ff ff 	mov    %rax,-0xc10(%rbp)
   168cb:	48 8d 85 ab e2 ff ff 	lea    -0x1d55(%rbp),%rax
   168d2:	48 89 85 f8 f3 ff ff 	mov    %rax,-0xc08(%rbp)
   168d9:	48 8d 85 ac e2 ff ff 	lea    -0x1d54(%rbp),%rax
   168e0:	48 89 85 00 f4 ff ff 	mov    %rax,-0xc00(%rbp)
   168e7:	48 8d 05 82 87 00 00 	lea    0x8782(%rip),%rax        # 1f070 <g_105>
   168ee:	48 89 85 08 f4 ff ff 	mov    %rax,-0xbf8(%rbp)
   168f5:	48 8d 85 ac e2 ff ff 	lea    -0x1d54(%rbp),%rax
   168fc:	48 89 85 10 f4 ff ff 	mov    %rax,-0xbf0(%rbp)
   16903:	48 8d 85 ab e2 ff ff 	lea    -0x1d55(%rbp),%rax
   1690a:	48 89 85 18 f4 ff ff 	mov    %rax,-0xbe8(%rbp)
   16911:	48 c7 85 20 f4 ff ff 	movq   $0x0,-0xbe0(%rbp)
   16918:	00 00 00 00 
   1691c:	48 8d 85 ac e2 ff ff 	lea    -0x1d54(%rbp),%rax
   16923:	48 89 85 28 f4 ff ff 	mov    %rax,-0xbd8(%rbp)
   1692a:	48 8d 85 ab e2 ff ff 	lea    -0x1d55(%rbp),%rax
   16931:	48 89 85 30 f4 ff ff 	mov    %rax,-0xbd0(%rbp)
   16938:	48 c7 85 38 f4 ff ff 	movq   $0x0,-0xbc8(%rbp)
   1693f:	00 00 00 00 
   16943:	48 c7 85 40 f4 ff ff 	movq   $0x0,-0xbc0(%rbp)
   1694a:	00 00 00 00 
   1694e:	48 c7 85 48 f4 ff ff 	movq   $0x0,-0xbb8(%rbp)
   16955:	00 00 00 00 
   16959:	48 8d 05 d0 86 00 00 	lea    0x86d0(%rip),%rax        # 1f030 <g_39>
   16960:	48 89 85 50 f4 ff ff 	mov    %rax,-0xbb0(%rbp)
   16967:	48 8d 05 02 87 00 00 	lea    0x8702(%rip),%rax        # 1f070 <g_105>
   1696e:	48 89 85 58 f4 ff ff 	mov    %rax,-0xba8(%rbp)
   16975:	48 8d 05 b4 86 00 00 	lea    0x86b4(%rip),%rax        # 1f030 <g_39>
   1697c:	48 89 85 60 f4 ff ff 	mov    %rax,-0xba0(%rbp)
   16983:	48 8d 85 ab e2 ff ff 	lea    -0x1d55(%rbp),%rax
   1698a:	48 89 85 68 f4 ff ff 	mov    %rax,-0xb98(%rbp)
   16991:	48 8d 05 70 87 00 00 	lea    0x8770(%rip),%rax        # 1f108 <g_603>
   16998:	48 89 85 70 f4 ff ff 	mov    %rax,-0xb90(%rbp)
   1699f:	48 8d 85 ab e2 ff ff 	lea    -0x1d55(%rbp),%rax
   169a6:	48 89 85 78 f4 ff ff 	mov    %rax,-0xb88(%rbp)
   169ad:	48 8d 05 7c 86 00 00 	lea    0x867c(%rip),%rax        # 1f030 <g_39>
   169b4:	48 89 85 80 f4 ff ff 	mov    %rax,-0xb80(%rbp)
   169bb:	48 8d 05 6e 86 00 00 	lea    0x866e(%rip),%rax        # 1f030 <g_39>
   169c2:	48 89 85 88 f4 ff ff 	mov    %rax,-0xb78(%rbp)
   169c9:	48 8d 05 60 86 00 00 	lea    0x8660(%rip),%rax        # 1f030 <g_39>
   169d0:	48 89 85 90 f4 ff ff 	mov    %rax,-0xb70(%rbp)
   169d7:	48 8d 05 52 86 00 00 	lea    0x8652(%rip),%rax        # 1f030 <g_39>
   169de:	48 89 85 98 f4 ff ff 	mov    %rax,-0xb68(%rbp)
   169e5:	48 8d 85 ab e2 ff ff 	lea    -0x1d55(%rbp),%rax
   169ec:	48 89 85 a0 f4 ff ff 	mov    %rax,-0xb60(%rbp)
   169f3:	48 8d 05 76 86 00 00 	lea    0x8676(%rip),%rax        # 1f070 <g_105>
   169fa:	48 89 85 a8 f4 ff ff 	mov    %rax,-0xb58(%rbp)
   16a01:	48 8d 85 ac e2 ff ff 	lea    -0x1d54(%rbp),%rax
   16a08:	48 89 85 b0 f4 ff ff 	mov    %rax,-0xb50(%rbp)
   16a0f:	48 8d 05 f2 86 00 00 	lea    0x86f2(%rip),%rax        # 1f108 <g_603>
   16a16:	48 89 85 b8 f4 ff ff 	mov    %rax,-0xb48(%rbp)
   16a1d:	48 c7 85 c0 f4 ff ff 	movq   $0x0,-0xb40(%rbp)
   16a24:	00 00 00 00 
   16a28:	48 c7 85 c8 f4 ff ff 	movq   $0x0,-0xb38(%rbp)
   16a2f:	00 00 00 00 
   16a33:	48 8d 05 36 86 00 00 	lea    0x8636(%rip),%rax        # 1f070 <g_105>
   16a3a:	48 89 85 d0 f4 ff ff 	mov    %rax,-0xb30(%rbp)
   16a41:	48 c7 85 d8 f4 ff ff 	movq   $0x0,-0xb28(%rbp)
   16a48:	00 00 00 00 
   16a4c:	48 c7 85 e0 f4 ff ff 	movq   $0x0,-0xb20(%rbp)
   16a53:	00 00 00 00 
   16a57:	48 8d 05 12 86 00 00 	lea    0x8612(%rip),%rax        # 1f070 <g_105>
   16a5e:	48 89 85 e8 f4 ff ff 	mov    %rax,-0xb18(%rbp)
   16a65:	48 8d 85 ac e2 ff ff 	lea    -0x1d54(%rbp),%rax
   16a6c:	48 89 85 f0 f4 ff ff 	mov    %rax,-0xb10(%rbp)
   16a73:	48 8d 05 b6 85 00 00 	lea    0x85b6(%rip),%rax        # 1f030 <g_39>
   16a7a:	48 89 85 f8 f4 ff ff 	mov    %rax,-0xb08(%rbp)
   16a81:	48 8d 85 ab e2 ff ff 	lea    -0x1d55(%rbp),%rax
   16a88:	48 89 85 00 f5 ff ff 	mov    %rax,-0xb00(%rbp)
   16a8f:	48 c7 85 08 f5 ff ff 	movq   $0x0,-0xaf8(%rbp)
   16a96:	00 00 00 00 
   16a9a:	48 8d 05 8f 85 00 00 	lea    0x858f(%rip),%rax        # 1f030 <g_39>
   16aa1:	48 89 85 10 f5 ff ff 	mov    %rax,-0xaf0(%rbp)
   16aa8:	48 c7 85 18 f5 ff ff 	movq   $0x0,-0xae8(%rbp)
   16aaf:	00 00 00 00 
   16ab3:	48 8d 05 76 85 00 00 	lea    0x8576(%rip),%rax        # 1f030 <g_39>
   16aba:	48 89 85 20 f5 ff ff 	mov    %rax,-0xae0(%rbp)
   16ac1:	48 8d 85 ab e2 ff ff 	lea    -0x1d55(%rbp),%rax
   16ac8:	48 89 85 28 f5 ff ff 	mov    %rax,-0xad8(%rbp)
   16acf:	48 8d 05 32 86 00 00 	lea    0x8632(%rip),%rax        # 1f108 <g_603>
   16ad6:	48 89 85 30 f5 ff ff 	mov    %rax,-0xad0(%rbp)
   16add:	48 8d 05 8c 85 00 00 	lea    0x858c(%rip),%rax        # 1f070 <g_105>
   16ae4:	48 89 85 38 f5 ff ff 	mov    %rax,-0xac8(%rbp)
   16aeb:	48 8d 05 3e 85 00 00 	lea    0x853e(%rip),%rax        # 1f030 <g_39>
   16af2:	48 89 85 40 f5 ff ff 	mov    %rax,-0xac0(%rbp)
   16af9:	48 8d 85 ab e2 ff ff 	lea    -0x1d55(%rbp),%rax
   16b00:	48 89 85 48 f5 ff ff 	mov    %rax,-0xab8(%rbp)
   16b07:	48 8d 05 22 85 00 00 	lea    0x8522(%rip),%rax        # 1f030 <g_39>
   16b0e:	48 89 85 50 f5 ff ff 	mov    %rax,-0xab0(%rbp)
   16b15:	48 8d 05 14 85 00 00 	lea    0x8514(%rip),%rax        # 1f030 <g_39>
   16b1c:	48 89 85 58 f5 ff ff 	mov    %rax,-0xaa8(%rbp)
   16b23:	48 c7 85 60 f5 ff ff 	movq   $0x0,-0xaa0(%rbp)
   16b2a:	00 00 00 00 
   16b2e:	48 c7 85 68 f5 ff ff 	movq   $0x0,-0xa98(%rbp)
   16b35:	00 00 00 00 
   16b39:	48 8d 85 ab e2 ff ff 	lea    -0x1d55(%rbp),%rax
   16b40:	48 89 85 70 f5 ff ff 	mov    %rax,-0xa90(%rbp)
   16b47:	48 8d 05 e2 84 00 00 	lea    0x84e2(%rip),%rax        # 1f030 <g_39>
   16b4e:	48 89 85 78 f5 ff ff 	mov    %rax,-0xa88(%rbp)
   16b55:	48 c7 85 80 f5 ff ff 	movq   $0x0,-0xa80(%rbp)
   16b5c:	00 00 00 00 
   16b60:	48 8d 85 ab e2 ff ff 	lea    -0x1d55(%rbp),%rax
   16b67:	48 89 85 88 f5 ff ff 	mov    %rax,-0xa78(%rbp)
   16b6e:	48 8d 85 ac e2 ff ff 	lea    -0x1d54(%rbp),%rax
   16b75:	48 89 85 90 f5 ff ff 	mov    %rax,-0xa70(%rbp)
   16b7c:	48 8d 05 85 85 00 00 	lea    0x8585(%rip),%rax        # 1f108 <g_603>
   16b83:	48 89 85 98 f5 ff ff 	mov    %rax,-0xa68(%rbp)
   16b8a:	48 8d 85 ac e2 ff ff 	lea    -0x1d54(%rbp),%rax
   16b91:	48 89 85 a0 f5 ff ff 	mov    %rax,-0xa60(%rbp)
   16b98:	48 8d 85 ab e2 ff ff 	lea    -0x1d55(%rbp),%rax
   16b9f:	48 89 85 a8 f5 ff ff 	mov    %rax,-0xa58(%rbp)
   16ba6:	48 8d 85 ac e2 ff ff 	lea    -0x1d54(%rbp),%rax
   16bad:	48 89 85 b0 f5 ff ff 	mov    %rax,-0xa50(%rbp)
   16bb4:	48 8d 05 75 84 00 00 	lea    0x8475(%rip),%rax        # 1f030 <g_39>
   16bbb:	48 89 85 b8 f5 ff ff 	mov    %rax,-0xa48(%rbp)
   16bc2:	48 8d 85 ab e2 ff ff 	lea    -0x1d55(%rbp),%rax
   16bc9:	48 89 85 c0 f5 ff ff 	mov    %rax,-0xa40(%rbp)
   16bd0:	48 8d 85 ac e2 ff ff 	lea    -0x1d54(%rbp),%rax
   16bd7:	48 89 85 c8 f5 ff ff 	mov    %rax,-0xa38(%rbp)
   16bde:	48 c7 85 d0 f5 ff ff 	movq   $0x0,-0xa30(%rbp)
   16be5:	00 00 00 00 
   16be9:	48 8d 85 ab e2 ff ff 	lea    -0x1d55(%rbp),%rax
   16bf0:	48 89 85 d8 f5 ff ff 	mov    %rax,-0xa28(%rbp)
   16bf7:	48 8d 05 72 84 00 00 	lea    0x8472(%rip),%rax        # 1f070 <g_105>
   16bfe:	48 89 85 e0 f5 ff ff 	mov    %rax,-0xa20(%rbp)
   16c05:	48 c7 85 e8 f5 ff ff 	movq   $0x0,-0xa18(%rbp)
   16c0c:	00 00 00 00 
   16c10:	48 8d 05 19 84 00 00 	lea    0x8419(%rip),%rax        # 1f030 <g_39>
   16c17:	48 89 85 f0 f5 ff ff 	mov    %rax,-0xa10(%rbp)
   16c1e:	48 8d 05 4b 84 00 00 	lea    0x844b(%rip),%rax        # 1f070 <g_105>
   16c25:	48 89 85 f8 f5 ff ff 	mov    %rax,-0xa08(%rbp)
   16c2c:	48 8d 05 fd 83 00 00 	lea    0x83fd(%rip),%rax        # 1f030 <g_39>
   16c33:	48 89 85 00 f6 ff ff 	mov    %rax,-0xa00(%rbp)
   16c3a:	48 8d 85 ac e2 ff ff 	lea    -0x1d54(%rbp),%rax
   16c41:	48 89 85 08 f6 ff ff 	mov    %rax,-0x9f8(%rbp)
   16c48:	48 8d 85 ac e2 ff ff 	lea    -0x1d54(%rbp),%rax
   16c4f:	48 89 85 10 f6 ff ff 	mov    %rax,-0x9f0(%rbp)
   16c56:	48 8d 05 d3 83 00 00 	lea    0x83d3(%rip),%rax        # 1f030 <g_39>
   16c5d:	48 89 85 18 f6 ff ff 	mov    %rax,-0x9e8(%rbp)
   16c64:	48 8d 05 05 84 00 00 	lea    0x8405(%rip),%rax        # 1f070 <g_105>
   16c6b:	48 89 85 20 f6 ff ff 	mov    %rax,-0x9e0(%rbp)
   16c72:	48 8d 05 f7 83 00 00 	lea    0x83f7(%rip),%rax        # 1f070 <g_105>
   16c79:	48 89 85 28 f6 ff ff 	mov    %rax,-0x9d8(%rbp)
   16c80:	48 8d 85 ab e2 ff ff 	lea    -0x1d55(%rbp),%rax
   16c87:	48 89 85 30 f6 ff ff 	mov    %rax,-0x9d0(%rbp)
   16c8e:	48 8d 85 ac e2 ff ff 	lea    -0x1d54(%rbp),%rax
   16c95:	48 89 85 38 f6 ff ff 	mov    %rax,-0x9c8(%rbp)
   16c9c:	48 c7 85 40 f6 ff ff 	movq   $0x0,-0x9c0(%rbp)
   16ca3:	00 00 00 00 
   16ca7:	48 8d 85 ab e2 ff ff 	lea    -0x1d55(%rbp),%rax
   16cae:	48 89 85 48 f6 ff ff 	mov    %rax,-0x9b8(%rbp)
   16cb5:	48 8d 05 74 83 00 00 	lea    0x8374(%rip),%rax        # 1f030 <g_39>
   16cbc:	48 89 85 50 f6 ff ff 	mov    %rax,-0x9b0(%rbp)
   16cc3:	48 c7 85 58 f6 ff ff 	movq   $0x0,-0x9a8(%rbp)
   16cca:	00 00 00 00 
   16cce:	48 8d 05 5b 83 00 00 	lea    0x835b(%rip),%rax        # 1f030 <g_39>
   16cd5:	48 89 85 60 f6 ff ff 	mov    %rax,-0x9a0(%rbp)
   16cdc:	48 8d 05 8d 83 00 00 	lea    0x838d(%rip),%rax        # 1f070 <g_105>
   16ce3:	48 89 85 68 f6 ff ff 	mov    %rax,-0x998(%rbp)
   16cea:	48 8d 05 3f 83 00 00 	lea    0x833f(%rip),%rax        # 1f030 <g_39>
   16cf1:	48 89 85 70 f6 ff ff 	mov    %rax,-0x990(%rbp)
   16cf8:	48 c7 85 78 f6 ff ff 	movq   $0x0,-0x988(%rbp)
   16cff:	00 00 00 00 
   16d03:	48 8d 85 ac e2 ff ff 	lea    -0x1d54(%rbp),%rax
   16d0a:	48 89 85 80 f6 ff ff 	mov    %rax,-0x980(%rbp)
   16d11:	48 8d 85 ab e2 ff ff 	lea    -0x1d55(%rbp),%rax
   16d18:	48 89 85 88 f6 ff ff 	mov    %rax,-0x978(%rbp)
   16d1f:	48 c7 85 90 f6 ff ff 	movq   $0x0,-0x970(%rbp)
   16d26:	00 00 00 00 
   16d2a:	48 8d 85 ac e2 ff ff 	lea    -0x1d54(%rbp),%rax
   16d31:	48 89 85 98 f6 ff ff 	mov    %rax,-0x968(%rbp)
   16d38:	48 8d 05 f1 82 00 00 	lea    0x82f1(%rip),%rax        # 1f030 <g_39>
   16d3f:	48 89 85 a0 f6 ff ff 	mov    %rax,-0x960(%rbp)
   16d46:	48 8d 05 23 83 00 00 	lea    0x8323(%rip),%rax        # 1f070 <g_105>
   16d4d:	48 89 85 a8 f6 ff ff 	mov    %rax,-0x958(%rbp)
   16d54:	48 c7 85 b0 f6 ff ff 	movq   $0x0,-0x950(%rbp)
   16d5b:	00 00 00 00 
   16d5f:	48 8d 05 ca 82 00 00 	lea    0x82ca(%rip),%rax        # 1f030 <g_39>
   16d66:	48 89 85 b8 f6 ff ff 	mov    %rax,-0x948(%rbp)
   16d6d:	48 c7 85 c0 f6 ff ff 	movq   $0x0,-0x940(%rbp)
   16d74:	00 00 00 00 
   16d78:	48 8d 85 ac e2 ff ff 	lea    -0x1d54(%rbp),%rax
   16d7f:	48 89 85 c8 f6 ff ff 	mov    %rax,-0x938(%rbp)
   16d86:	48 8d 85 ac e2 ff ff 	lea    -0x1d54(%rbp),%rax
   16d8d:	48 89 85 d0 f6 ff ff 	mov    %rax,-0x930(%rbp)
   16d94:	48 8d 05 d5 82 00 00 	lea    0x82d5(%rip),%rax        # 1f070 <g_105>
   16d9b:	48 89 85 d8 f6 ff ff 	mov    %rax,-0x928(%rbp)
   16da2:	48 8d 05 c7 82 00 00 	lea    0x82c7(%rip),%rax        # 1f070 <g_105>
   16da9:	48 89 85 e0 f6 ff ff 	mov    %rax,-0x920(%rbp)
   16db0:	48 c7 85 e8 f6 ff ff 	movq   $0x0,-0x918(%rbp)
   16db7:	00 00 00 00 
   16dbb:	48 8d 05 46 83 00 00 	lea    0x8346(%rip),%rax        # 1f108 <g_603>
   16dc2:	48 89 85 f0 f6 ff ff 	mov    %rax,-0x910(%rbp)
   16dc9:	48 8d 85 ab e2 ff ff 	lea    -0x1d55(%rbp),%rax
   16dd0:	48 89 85 f8 f6 ff ff 	mov    %rax,-0x908(%rbp)
   16dd7:	48 c7 85 00 f7 ff ff 	movq   $0x0,-0x900(%rbp)
   16dde:	00 00 00 00 
   16de2:	48 8d 85 ac e2 ff ff 	lea    -0x1d54(%rbp),%rax
   16de9:	48 89 85 08 f7 ff ff 	mov    %rax,-0x8f8(%rbp)
   16df0:	48 c7 85 10 f7 ff ff 	movq   $0x0,-0x8f0(%rbp)
   16df7:	00 00 00 00 
   16dfb:	48 8d 05 2e 82 00 00 	lea    0x822e(%rip),%rax        # 1f030 <g_39>
   16e02:	48 89 85 18 f7 ff ff 	mov    %rax,-0x8e8(%rbp)
   16e09:	48 c7 85 20 f7 ff ff 	movq   $0x0,-0x8e0(%rbp)
   16e10:	00 00 00 00 
   16e14:	48 8d 85 ab e2 ff ff 	lea    -0x1d55(%rbp),%rax
   16e1b:	48 89 85 28 f7 ff ff 	mov    %rax,-0x8d8(%rbp)
   16e22:	48 8d 05 07 82 00 00 	lea    0x8207(%rip),%rax        # 1f030 <g_39>
   16e29:	48 89 85 30 f7 ff ff 	mov    %rax,-0x8d0(%rbp)
   16e30:	48 8d 05 d1 82 00 00 	lea    0x82d1(%rip),%rax        # 1f108 <g_603>
   16e37:	48 89 85 38 f7 ff ff 	mov    %rax,-0x8c8(%rbp)
   16e3e:	48 8d 85 ab e2 ff ff 	lea    -0x1d55(%rbp),%rax
   16e45:	48 89 85 40 f7 ff ff 	mov    %rax,-0x8c0(%rbp)
   16e4c:	48 8d 85 ab e2 ff ff 	lea    -0x1d55(%rbp),%rax
   16e53:	48 89 85 48 f7 ff ff 	mov    %rax,-0x8b8(%rbp)
   16e5a:	48 c7 85 50 f7 ff ff 	movq   $0x0,-0x8b0(%rbp)
   16e61:	00 00 00 00 
   16e65:	48 8d 05 c4 81 00 00 	lea    0x81c4(%rip),%rax        # 1f030 <g_39>
   16e6c:	48 89 85 58 f7 ff ff 	mov    %rax,-0x8a8(%rbp)
   16e73:	48 8d 05 b6 81 00 00 	lea    0x81b6(%rip),%rax        # 1f030 <g_39>
   16e7a:	48 89 85 60 f7 ff ff 	mov    %rax,-0x8a0(%rbp)
   16e81:	48 c7 85 68 f7 ff ff 	movq   $0x0,-0x898(%rbp)
   16e88:	00 00 00 00 
   16e8c:	48 8d 85 ab e2 ff ff 	lea    -0x1d55(%rbp),%rax
   16e93:	48 89 85 70 f7 ff ff 	mov    %rax,-0x890(%rbp)
   16e9a:	48 8d 05 8f 81 00 00 	lea    0x818f(%rip),%rax        # 1f030 <g_39>
   16ea1:	48 89 85 78 f7 ff ff 	mov    %rax,-0x888(%rbp)
   16ea8:	48 8d 05 81 81 00 00 	lea    0x8181(%rip),%rax        # 1f030 <g_39>
   16eaf:	48 89 85 80 f7 ff ff 	mov    %rax,-0x880(%rbp)
   16eb6:	48 8d 85 ab e2 ff ff 	lea    -0x1d55(%rbp),%rax
   16ebd:	48 89 85 88 f7 ff ff 	mov    %rax,-0x878(%rbp)
   16ec4:	48 8d 85 ab e2 ff ff 	lea    -0x1d55(%rbp),%rax
   16ecb:	48 89 85 90 f7 ff ff 	mov    %rax,-0x870(%rbp)
   16ed2:	48 8d 05 97 81 00 00 	lea    0x8197(%rip),%rax        # 1f070 <g_105>
   16ed9:	48 89 85 98 f7 ff ff 	mov    %rax,-0x868(%rbp)
   16ee0:	48 8d 85 ab e2 ff ff 	lea    -0x1d55(%rbp),%rax
   16ee7:	48 89 85 a0 f7 ff ff 	mov    %rax,-0x860(%rbp)
   16eee:	48 8d 85 ab e2 ff ff 	lea    -0x1d55(%rbp),%rax
   16ef5:	48 89 85 a8 f7 ff ff 	mov    %rax,-0x858(%rbp)
   16efc:	48 8d 85 ab e2 ff ff 	lea    -0x1d55(%rbp),%rax
   16f03:	48 89 85 b0 f7 ff ff 	mov    %rax,-0x850(%rbp)
   16f0a:	48 c7 85 b8 f7 ff ff 	movq   $0x0,-0x848(%rbp)
   16f11:	00 00 00 00 
   16f15:	48 8d 85 ac e2 ff ff 	lea    -0x1d54(%rbp),%rax
   16f1c:	48 89 85 c0 f7 ff ff 	mov    %rax,-0x840(%rbp)
   16f23:	48 c7 85 c8 f7 ff ff 	movq   $0x0,-0x838(%rbp)
   16f2a:	00 00 00 00 
   16f2e:	48 8d 05 3b 81 00 00 	lea    0x813b(%rip),%rax        # 1f070 <g_105>
   16f35:	48 89 85 d0 f7 ff ff 	mov    %rax,-0x830(%rbp)
   16f3c:	48 8d 05 ed 80 00 00 	lea    0x80ed(%rip),%rax        # 1f030 <g_39>
   16f43:	48 89 85 d8 f7 ff ff 	mov    %rax,-0x828(%rbp)
   16f4a:	c7 85 40 e8 ff ff ae 	movl   $0xadbf2eae,-0x17c0(%rbp)
   16f51:	2e bf ad 
   16f54:	c7 85 44 e8 ff ff ae 	movl   $0xadbf2eae,-0x17bc(%rbp)
   16f5b:	2e bf ad 
   16f5e:	c7 85 48 e8 ff ff ae 	movl   $0xadbf2eae,-0x17b8(%rbp)
   16f65:	2e bf ad 
   16f68:	c7 85 4c e8 ff ff ae 	movl   $0xadbf2eae,-0x17b4(%rbp)
   16f6f:	2e bf ad 
   16f72:	c7 85 50 e8 ff ff ae 	movl   $0xadbf2eae,-0x17b0(%rbp)
   16f79:	2e bf ad 
   16f7c:	c7 85 54 e8 ff ff ae 	movl   $0xadbf2eae,-0x17ac(%rbp)
   16f83:	2e bf ad 
   16f86:	c7 85 58 e8 ff ff ae 	movl   $0xadbf2eae,-0x17a8(%rbp)
   16f8d:	2e bf ad 
   16f90:	48 83 bd 78 e6 ff ff 	cmpq   $0x0,-0x1988(%rbp)
   16f97:	00 
   16f98:	74 1f                	je     16fb9 <func_57+0x7729>
   16f9a:	48 8b 85 98 e2 ff ff 	mov    -0x1d68(%rbp),%rax
   16fa1:	48 8b 10             	mov    (%rax),%rdx
   16fa4:	8b 85 bc e3 ff ff    	mov    -0x1c44(%rbp),%eax
   16faa:	48 09 d0             	or     %rdx,%rax
   16fad:	48 85 c0             	test   %rax,%rax
   16fb0:	74 07                	je     16fb9 <func_57+0x7729>
   16fb2:	b8 01 00 00 00       	mov    $0x1,%eax
   16fb7:	eb 05                	jmp    16fbe <func_57+0x772e>
   16fb9:	b8 00 00 00 00       	mov    $0x0,%eax
   16fbe:	0f be d0             	movsbl %al,%edx
   16fc1:	83 8d 38 e3 ff ff 05 	orl    $0x5,-0x1cc8(%rbp)
   16fc8:	8b 85 38 e3 ff ff    	mov    -0x1cc8(%rbp),%eax
   16fce:	89 c1                	mov    %eax,%ecx
   16fd0:	48 8b 85 c0 e6 ff ff 	mov    -0x1940(%rbp),%rax
   16fd7:	88 08                	mov    %cl,(%rax)
   16fd9:	48 8b 85 c0 e6 ff ff 	mov    -0x1940(%rbp),%rax
   16fe0:	0f b6 00             	movzbl (%rax),%eax
   16fe3:	0f be c0             	movsbl %al,%eax
   16fe6:	89 85 c0 e3 ff ff    	mov    %eax,-0x1c40(%rbp)
   16fec:	8b 85 c0 e3 ff ff    	mov    -0x1c40(%rbp),%eax
   16ff2:	89 85 3c e3 ff ff    	mov    %eax,-0x1cc4(%rbp)
   16ff8:	8b 85 3c e3 ff ff    	mov    -0x1cc4(%rbp),%eax
   16ffe:	0f be c0             	movsbl %al,%eax
   17001:	89 d6                	mov    %edx,%esi
   17003:	89 c7                	mov    %eax,%edi
   17005:	e8 08 22 ff ff       	callq  9212 <safe_mul_func_int8_t_s_s>
   1700a:	44 0f be e8          	movsbl %al,%r13d
   1700e:	48 8b 85 68 e6 ff ff 	mov    -0x1998(%rbp),%rax
   17015:	0f b7 d8             	movzwl %ax,%ebx
   17018:	8b 85 4c e8 ff ff    	mov    -0x17b4(%rbp),%eax
   1701e:	41 89 c4             	mov    %eax,%r12d
   17021:	48 8b 05 00 80 00 00 	mov    0x8000(%rip),%rax        # 1f028 <g_35>
   17028:	89 c6                	mov    %eax,%esi
   1702a:	bf 27 c0 ff ff       	mov    $0xffffc027,%edi
   1702f:	e8 f6 24 ff ff       	callq  952a <safe_rshift_func_int16_t_s_s>
   17034:	83 bd f4 e3 ff ff 00 	cmpl   $0x0,-0x1c0c(%rbp)
   1703b:	b8 01 00 00 00       	mov    $0x1,%eax
   17040:	83 f8 01             	cmp    $0x1,%eax
   17043:	74 07                	je     1704c <func_57+0x77bc>
   17045:	b8 fa 00 00 00       	mov    $0xfa,%eax
   1704a:	eb 05                	jmp    17051 <func_57+0x77c1>
   1704c:	b8 fb 00 00 00       	mov    $0xfb,%eax
   17051:	44 89 e6             	mov    %r12d,%esi
   17054:	89 c7                	mov    %eax,%edi
   17056:	e8 63 2c ff ff       	callq  9cbe <safe_rshift_func_uint8_t_u_u>
   1705b:	84 c0                	test   %al,%al
   1705d:	74 07                	je     17066 <func_57+0x77d6>
   1705f:	b8 01 00 00 00       	mov    $0x1,%eax
   17064:	eb 05                	jmp    1706b <func_57+0x77db>
   17066:	b8 00 00 00 00       	mov    $0x0,%eax
   1706b:	0f b6 c0             	movzbl %al,%eax
   1706e:	be 05 00 00 00       	mov    $0x5,%esi
   17073:	89 c7                	mov    %eax,%edi
   17075:	e8 13 2c ff ff       	callq  9c8d <safe_rshift_func_uint8_t_u_s>
   1707a:	44 0f b6 e0          	movzbl %al,%r12d
   1707e:	8b 85 90 e2 ff ff    	mov    -0x1d70(%rbp),%eax
   17084:	0f b7 c0             	movzwl %ax,%eax
   17087:	be 02 00 00 00       	mov    $0x2,%esi
   1708c:	89 c7                	mov    %eax,%edi
   1708e:	e8 2b 2d ff ff       	callq  9dbe <safe_lshift_func_uint16_t_u_s>
   17093:	98                   	cwtl   
   17094:	44 89 e6             	mov    %r12d,%esi
   17097:	89 c7                	mov    %eax,%edi
   17099:	e8 78 23 ff ff       	callq  9416 <safe_mod_func_int16_t_s_s>
   1709e:	66 85 c0             	test   %ax,%ax
   170a1:	74 13                	je     170b6 <func_57+0x7826>
   170a3:	0f b7 05 70 80 00 00 	movzwl 0x8070(%rip),%eax        # 1f11a <g_695>
   170aa:	66 85 c0             	test   %ax,%ax
   170ad:	74 07                	je     170b6 <func_57+0x7826>
   170af:	b8 01 00 00 00       	mov    $0x1,%eax
   170b4:	eb 05                	jmp    170bb <func_57+0x782b>
   170b6:	b8 00 00 00 00       	mov    $0x0,%eax
   170bb:	0f b7 c0             	movzwl %ax,%eax
   170be:	89 de                	mov    %ebx,%esi
   170c0:	89 c7                	mov    %eax,%edi
   170c2:	e8 c7 2c ff ff       	callq  9d8e <safe_div_func_uint16_t_u_u>
   170c7:	0f b7 c0             	movzwl %ax,%eax
   170ca:	39 85 90 e2 ff ff    	cmp    %eax,-0x1d70(%rbp)
   170d0:	0f 9e c0             	setle  %al
   170d3:	0f b6 c0             	movzbl %al,%eax
   170d6:	be 0c 00 00 00       	mov    $0xc,%esi
   170db:	89 c7                	mov    %eax,%edi
   170dd:	e8 48 24 ff ff       	callq  952a <safe_rshift_func_int16_t_s_s>
   170e2:	98                   	cwtl   
   170e3:	44 21 e8             	and    %r13d,%eax
   170e6:	39 85 f4 e3 ff ff    	cmp    %eax,-0x1c0c(%rbp)
   170ec:	8b 85 54 e8 ff ff    	mov    -0x17ac(%rbp),%eax
   170f2:	39 85 90 e2 ff ff    	cmp    %eax,-0x1d70(%rbp)
   170f8:	48 8b 15 51 4b 00 00 	mov    0x4b51(%rip),%rdx        # 1bc50 <l_1170.5201+0x10>
   170ff:	48 8b 05 02 a6 00 00 	mov    0xa602(%rip),%rax        # 21708 <g_167>
   17106:	89 10                	mov    %edx,(%rax)
   17108:	48 8b 05 f9 a5 00 00 	mov    0xa5f9(%rip),%rax        # 21708 <g_167>
   1710f:	0f b7 95 ce e2 ff ff 	movzwl -0x1d32(%rbp),%edx
   17116:	89 10                	mov    %edx,(%rax)
   17118:	e9 c6 01 00 00       	jmpq   172e3 <func_57+0x7a53>
   1711d:	48 8d 05 b4 ac 00 00 	lea    0xacb4(%rip),%rax        # 21dd8 <g_953+0x18>
   17124:	48 89 85 b0 e6 ff ff 	mov    %rax,-0x1950(%rbp)
   1712b:	48 8b 05 0e b0 00 00 	mov    0xb00e(%rip),%rax        # 22140 <g_1172>
   17132:	48 8d 95 c0 e8 ff ff 	lea    -0x1740(%rbp),%rdx
   17139:	48 83 c2 40          	add    $0x40,%rdx
   1713d:	48 89 10             	mov    %rdx,(%rax)
   17140:	8b 85 94 e2 ff ff    	mov    -0x1d6c(%rbp),%eax
   17146:	48 63 d8             	movslq %eax,%rbx
   17149:	48 8b 05 00 4b 00 00 	mov    0x4b00(%rip),%rax        # 1bc50 <l_1170.5201+0x10>
   17150:	89 c2                	mov    %eax,%edx
   17152:	8b 05 0c 7f 00 00    	mov    0x7f0c(%rip),%eax        # 1f064 <g_88>
   17158:	09 d0                	or     %edx,%eax
   1715a:	89 05 04 7f 00 00    	mov    %eax,0x7f04(%rip)        # 1f064 <g_88>
   17160:	8b 85 94 e2 ff ff    	mov    -0x1d6c(%rbp),%eax
   17166:	89 c6                	mov    %eax,%esi
   17168:	bf 0b 70 b4 f6       	mov    $0xf6b4700b,%edi
   1716d:	e8 5a 25 ff ff       	callq  96cc <safe_mod_func_int32_t_s_s>
   17172:	48 8b 15 e7 ab 00 00 	mov    0xabe7(%rip),%rdx        # 21d60 <g_391>
   17179:	48 8b 0a             	mov    (%rdx),%rcx
   1717c:	48 8b 95 88 e2 ff ff 	mov    -0x1d78(%rbp),%rdx
   17183:	48 39 d1             	cmp    %rdx,%rcx
   17186:	0f 95 c2             	setne  %dl
   17189:	0f b6 d2             	movzbl %dl,%edx
   1718c:	31 d0                	xor    %edx,%eax
   1718e:	48 98                	cltq   
   17190:	48 89 de             	mov    %rbx,%rsi
   17193:	48 89 c7             	mov    %rax,%rdi
   17196:	e8 a6 26 ff ff       	callq  9841 <safe_add_func_int64_t_s_s>
   1719b:	48 85 c0             	test   %rax,%rax
   1719e:	75 5f                	jne    171ff <func_57+0x796f>
   171a0:	48 8b 05 01 ac 00 00 	mov    0xac01(%rip),%rax        # 21da8 <g_906>
   171a7:	48 8b 00             	mov    (%rax),%rax
   171aa:	0f b7 00             	movzwl (%rax),%eax
   171ad:	0f b7 d8             	movzwl %ax,%ebx
   171b0:	be 08 00 00 00       	mov    $0x8,%esi
   171b5:	bf 00 00 00 00       	mov    $0x0,%edi
   171ba:	e8 a4 23 ff ff       	callq  9563 <safe_rshift_func_int16_t_s_u>
   171bf:	8b 95 90 e2 ff ff    	mov    -0x1d70(%rbp),%edx
   171c5:	09 d0                	or     %edx,%eax
   171c7:	0f b7 d0             	movzwl %ax,%edx
   171ca:	8b 85 90 e2 ff ff    	mov    -0x1d70(%rbp),%eax
   171d0:	0f b7 c0             	movzwl %ax,%eax
   171d3:	89 d6                	mov    %edx,%esi
   171d5:	89 c7                	mov    %eax,%edi
   171d7:	e8 23 2b ff ff       	callq  9cff <safe_add_func_uint16_t_u_u>
   171dc:	0f be d0             	movsbl %al,%edx
   171df:	8b 85 94 e2 ff ff    	mov    -0x1d6c(%rbp),%eax
   171e5:	0f be c0             	movsbl %al,%eax
   171e8:	89 d6                	mov    %edx,%esi
   171ea:	89 c7                	mov    %eax,%edi
   171ec:	e8 01 20 ff ff       	callq  91f2 <safe_sub_func_int8_t_s_s>
   171f1:	66 98                	cbtw   
   171f3:	0f b7 c0             	movzwl %ax,%eax
   171f6:	89 de                	mov    %ebx,%esi
   171f8:	89 c7                	mov    %eax,%edi
   171fa:	e8 5d 2b ff ff       	callq  9d5c <safe_mod_func_uint16_t_u_u>
   171ff:	b8 01 00 00 00       	mov    $0x1,%eax
   17204:	89 85 54 e3 ff ff    	mov    %eax,-0x1cac(%rbp)
   1720a:	48 8b 05 ef a4 00 00 	mov    0xa4ef(%rip),%rax        # 21700 <g_113>
   17211:	8b 10                	mov    (%rax),%edx
   17213:	0b 95 3c e3 ff ff    	or     -0x1cc4(%rbp),%edx
   17219:	89 10                	mov    %edx,(%rax)
   1721b:	0f b6 85 ad e2 ff ff 	movzbl -0x1d53(%rbp),%eax
   17222:	0f b6 d8             	movzbl %al,%ebx
   17225:	0f b6 85 ad e2 ff ff 	movzbl -0x1d53(%rbp),%eax
   1722c:	84 c0                	test   %al,%al
   1722e:	74 28                	je     17258 <func_57+0x79c8>
   17230:	8b 85 94 e2 ff ff    	mov    -0x1d6c(%rbp),%eax
   17236:	98                   	cwtl   
   17237:	be 0d 00 00 00       	mov    $0xd,%esi
   1723c:	89 c7                	mov    %eax,%edi
   1723e:	e8 9e 22 ff ff       	callq  94e1 <safe_lshift_func_int16_t_s_u>
   17243:	66 85 c0             	test   %ax,%ax
   17246:	74 07                	je     1724f <func_57+0x79bf>
   17248:	83 bd 54 e3 ff ff 00 	cmpl   $0x0,-0x1cac(%rbp)
   1724f:	83 bd 44 e3 ff ff 00 	cmpl   $0x0,-0x1cbc(%rbp)
   17256:	74 07                	je     1725f <func_57+0x79cf>
   17258:	b8 01 00 00 00       	mov    $0x1,%eax
   1725d:	eb 05                	jmp    17264 <func_57+0x79d4>
   1725f:	b8 00 00 00 00       	mov    $0x0,%eax
   17264:	0f be c0             	movsbl %al,%eax
   17267:	89 de                	mov    %ebx,%esi
   17269:	89 c7                	mov    %eax,%edi
   1726b:	e8 fc 20 ff ff       	callq  936c <safe_rshift_func_int8_t_s_u>
   17270:	0f be d0             	movsbl %al,%edx
   17273:	8b 85 90 e2 ff ff    	mov    -0x1d70(%rbp),%eax
   17279:	0f b6 c0             	movzbl %al,%eax
   1727c:	89 d6                	mov    %edx,%esi
   1727e:	89 c7                	mov    %eax,%edi
   17280:	e8 39 2a ff ff       	callq  9cbe <safe_rshift_func_uint8_t_u_u>
   17285:	0f b6 c0             	movzbl %al,%eax
   17288:	89 c7                	mov    %eax,%edi
   1728a:	e8 17 2c ff ff       	callq  9ea6 <safe_unary_minus_func_uint32_t_u>
   1728f:	89 c2                	mov    %eax,%edx
   17291:	48 8b 85 40 e4 ff ff 	mov    -0x1bc0(%rbp),%rax
   17298:	8b 08                	mov    (%rax),%ecx
   1729a:	48 8b 85 40 e4 ff ff 	mov    -0x1bc0(%rbp),%rax
   172a1:	31 ca                	xor    %ecx,%edx
   172a3:	89 10                	mov    %edx,(%rax)
   172a5:	48 8b 15 d4 aa 00 00 	mov    0xaad4(%rip),%rdx        # 21d80 <g_843>
   172ac:	48 8b 12             	mov    (%rdx),%rdx
   172af:	8b 00                	mov    (%rax),%eax
   172b1:	89 02                	mov    %eax,(%rdx)
   172b3:	8b 85 94 e2 ff ff    	mov    -0x1d6c(%rbp),%eax
   172b9:	85 c0                	test   %eax,%eax
   172bb:	0f 9f c0             	setg   %al
   172be:	0f b6 c0             	movzbl %al,%eax
   172c1:	39 85 90 e2 ff ff    	cmp    %eax,-0x1d70(%rbp)
   172c7:	0f 9e c0             	setle  %al
   172ca:	0f b6 c0             	movzbl %al,%eax
   172cd:	0b 85 44 e3 ff ff    	or     -0x1cbc(%rbp),%eax
   172d3:	48 98                	cltq   
   172d5:	48 89 c7             	mov    %rax,%rdi
   172d8:	e8 39 25 ff ff       	callq  9816 <safe_unary_minus_func_int64_t_s>
   172dd:	31 85 f4 e3 ff ff    	xor    %eax,-0x1c0c(%rbp)
   172e3:	0f b7 05 90 7d 00 00 	movzwl 0x7d90(%rip),%eax        # 1f07a <g_159>
   172ea:	0f be c0             	movsbl %al,%eax
   172ed:	be 07 00 00 00       	mov    $0x7,%esi
   172f2:	89 c7                	mov    %eax,%edi
   172f4:	e8 db 1e ff ff       	callq  91d4 <safe_add_func_int8_t_s_s>
   172f9:	66 98                	cbtw   
   172fb:	66 89 05 78 7d 00 00 	mov    %ax,0x7d78(%rip)        # 1f07a <g_159>
   17302:	0f b7 05 71 7d 00 00 	movzwl 0x7d71(%rip),%eax        # 1f07a <g_159>
   17309:	66 83 f8 11          	cmp    $0x11,%ax
   1730d:	0f 85 c7 ef ff ff    	jne    162da <func_57+0x6a4a>
   17313:	8b 85 90 e7 ff ff    	mov    -0x1870(%rbp),%eax
   17319:	0f b6 d8             	movzbl %al,%ebx
   1731c:	8b 85 b8 e3 ff ff    	mov    -0x1c48(%rbp),%eax
   17322:	44 0f b7 e0          	movzwl %ax,%r12d
   17326:	8b 85 94 e2 ff ff    	mov    -0x1d6c(%rbp),%eax
   1732c:	be f7 ff ff ff       	mov    $0xfffffff7,%esi
   17331:	89 c7                	mov    %eax,%edi
   17333:	e8 ed 2b ff ff       	callq  9f25 <safe_div_func_uint32_t_u_u>
   17338:	be 8e 0a dd 44       	mov    $0x44dd0a8e,%esi
   1733d:	89 c7                	mov    %eax,%edi
   1733f:	e8 74 2b ff ff       	callq  9eb8 <safe_add_func_uint32_t_u_u>
   17344:	41 89 c5             	mov    %eax,%r13d
   17347:	8b 85 68 e7 ff ff    	mov    -0x1898(%rbp),%eax
   1734d:	89 c0                	mov    %eax,%eax
   1734f:	be 02 00 00 00       	mov    $0x2,%esi
   17354:	48 89 c7             	mov    %rax,%rdi
   17357:	e8 e5 24 ff ff       	callq  9841 <safe_add_func_int64_t_s_s>
   1735c:	44 89 ea             	mov    %r13d,%edx
   1735f:	09 c2                	or     %eax,%edx
   17361:	8b 85 b8 e3 ff ff    	mov    -0x1c48(%rbp),%eax
   17367:	31 c2                	xor    %eax,%edx
   17369:	41 89 d5             	mov    %edx,%r13d
   1736c:	48 8b 05 55 b9 00 00 	mov    0xb955(%rip),%rax        # 22cc8 <g_1219>
   17373:	48 89 05 4e b9 00 00 	mov    %rax,0xb94e(%rip)        # 22cc8 <g_1219>
   1737a:	48 8b 05 47 b9 00 00 	mov    0xb947(%rip),%rax        # 22cc8 <g_1219>
   17381:	48 85 c0             	test   %rax,%rax
   17384:	74 07                	je     1738d <func_57+0x7afd>
   17386:	b8 01 00 00 00       	mov    $0x1,%eax
   1738b:	eb 05                	jmp    17392 <func_57+0x7b02>
   1738d:	b8 00 00 00 00       	mov    $0x0,%eax
   17392:	48 63 d0             	movslq %eax,%rdx
   17395:	48 8b 85 90 e4 ff ff 	mov    -0x1b70(%rbp),%rax
   1739c:	48 89 10             	mov    %rdx,(%rax)
   1739f:	8b 85 90 e2 ff ff    	mov    -0x1d70(%rbp),%eax
   173a5:	0b 85 40 e3 ff ff    	or     -0x1cc0(%rbp),%eax
   173ab:	85 c0                	test   %eax,%eax
   173ad:	0f 9f c0             	setg   %al
   173b0:	0f b6 c0             	movzbl %al,%eax
   173b3:	be ab 2b 00 00       	mov    $0x2bab,%esi
   173b8:	89 c7                	mov    %eax,%edi
   173ba:	e8 cf 29 ff ff       	callq  9d8e <safe_div_func_uint16_t_u_u>
   173bf:	0f b7 c0             	movzwl %ax,%eax
   173c2:	be 02 00 00 00       	mov    $0x2,%esi
   173c7:	89 c7                	mov    %eax,%edi
   173c9:	e8 fe 22 ff ff       	callq  96cc <safe_mod_func_int32_t_s_s>
   173ce:	48 98                	cltq   
   173d0:	48 c7 c6 ff ff ff ff 	mov    $0xffffffffffffffff,%rsi
   173d7:	48 89 c7             	mov    %rax,%rdi
   173da:	e8 62 24 ff ff       	callq  9841 <safe_add_func_int64_t_s_s>
   173df:	44 89 ea             	mov    %r13d,%edx
   173e2:	31 c2                	xor    %eax,%edx
   173e4:	8b 85 90 e2 ff ff    	mov    -0x1d70(%rbp),%eax
   173ea:	31 d0                	xor    %edx,%eax
   173ec:	0f be c0             	movsbl %al,%eax
   173ef:	be 01 00 00 00       	mov    $0x1,%esi
   173f4:	89 c7                	mov    %eax,%edi
   173f6:	e8 a6 1e ff ff       	callq  92a1 <safe_lshift_func_int8_t_s_s>
   173fb:	8b 85 40 e3 ff ff    	mov    -0x1cc0(%rbp),%eax
   17401:	0b 85 90 e2 ff ff    	or     -0x1d70(%rbp),%eax
   17407:	89 85 c0 e3 ff ff    	mov    %eax,-0x1c40(%rbp)
   1740d:	8b 85 c0 e3 ff ff    	mov    -0x1c40(%rbp),%eax
   17413:	0f b7 c0             	movzwl %ax,%eax
   17416:	44 89 e6             	mov    %r12d,%esi
   17419:	89 c7                	mov    %eax,%edi
   1741b:	e8 6e 29 ff ff       	callq  9d8e <safe_div_func_uint16_t_u_u>
   17420:	89 de                	mov    %ebx,%esi
   17422:	bf 01 00 00 00       	mov    $0x1,%edi
   17427:	e8 4c 27 ff ff       	callq  9b78 <safe_sub_func_uint8_t_u_u>
   1742c:	be 00 00 00 00       	mov    $0x0,%esi
   17431:	bf 01 00 00 00       	mov    $0x1,%edi
   17436:	e8 95 2a ff ff       	callq  9ed0 <safe_sub_func_uint32_t_u_u>
   1743b:	0f b7 95 ce e2 ff ff 	movzwl -0x1d32(%rbp),%edx
   17442:	21 c2                	and    %eax,%edx
   17444:	8b 85 54 e3 ff ff    	mov    -0x1cac(%rbp),%eax
   1744a:	09 d0                	or     %edx,%eax
   1744c:	89 85 54 e3 ff ff    	mov    %eax,-0x1cac(%rbp)
   17452:	eb 29                	jmp    1747d <func_57+0x7bed>
   17454:	66 c7 85 cc e2 ff ff 	movw   $0x5134,-0x1d34(%rbp)
   1745b:	34 51 
   1745d:	c7 85 ec e3 ff ff b9 	movl   $0x3b2e98b9,-0x1c14(%rbp)
   17464:	98 2e 3b 
   17467:	0f b7 85 ba e2 ff ff 	movzwl -0x1d46(%rbp),%eax
   1746e:	98                   	cwtl   
   1746f:	89 85 44 e3 ff ff    	mov    %eax,-0x1cbc(%rbp)
   17475:	66 83 85 be e2 ff ff 	addw   $0x1,-0x1d42(%rbp)
   1747c:	01 
   1747d:	0f b6 85 ab e2 ff ff 	movzbl -0x1d55(%rbp),%eax
   17484:	83 c0 01             	add    $0x1,%eax
   17487:	88 85 ab e2 ff ff    	mov    %al,-0x1d55(%rbp)
   1748d:	0f b6 85 ab e2 ff ff 	movzbl -0x1d55(%rbp),%eax
   17494:	3c 06                	cmp    $0x6,%al
   17496:	0f 8e 3b e0 ff ff    	jle    154d7 <func_57+0x5c47>
   1749c:	8b 85 90 e2 ff ff    	mov    -0x1d70(%rbp),%eax
   174a2:	48 63 d8             	movslq %eax,%rbx
   174a5:	8b 85 90 e2 ff ff    	mov    -0x1d70(%rbp),%eax
   174ab:	f7 d0                	not    %eax
   174ad:	48 63 d0             	movslq %eax,%rdx
   174b0:	48 8b 85 98 e2 ff ff 	mov    -0x1d68(%rbp),%rax
   174b7:	48 8b 00             	mov    (%rax),%rax
   174ba:	48 89 d6             	mov    %rdx,%rsi
   174bd:	48 89 c7             	mov    %rax,%rdi
   174c0:	e8 86 2b ff ff       	callq  a04b <safe_sub_func_uint64_t_u_u>
   174c5:	0f b7 95 f4 e7 ff ff 	movzwl -0x180c(%rbp),%edx
   174cc:	0f b7 d2             	movzwl %dx,%edx
   174cf:	48 39 d0             	cmp    %rdx,%rax
   174d2:	72 06                	jb     174da <func_57+0x7c4a>
   174d4:	0f b6 45 bc          	movzbl -0x44(%rbp),%eax
   174d8:	84 c0                	test   %al,%al
   174da:	48 8d 05 cf a8 00 00 	lea    0xa8cf(%rip),%rax        # 21db0 <g_954>
   174e1:	48 89 05 00 aa 00 00 	mov    %rax,0xaa00(%rip)        # 21ee8 <g_953+0x128>
   174e8:	c7 85 c0 e3 ff ff 00 	movl   $0x0,-0x1c40(%rbp)
   174ef:	00 00 00 
   174f2:	8b 85 94 e2 ff ff    	mov    -0x1d6c(%rbp),%eax
   174f8:	0f b7 c0             	movzwl %ax,%eax
   174fb:	be 0e 00 00 00       	mov    $0xe,%esi
   17500:	89 c7                	mov    %eax,%edi
   17502:	e8 73 29 ff ff       	callq  9e7a <safe_rshift_func_uint16_t_u_u>
   17507:	8b 85 c4 e3 ff ff    	mov    -0x1c3c(%rbp),%eax
   1750d:	0f b7 c0             	movzwl %ax,%eax
   17510:	be 2f de 00 00       	mov    $0xde2f,%esi
   17515:	89 c7                	mov    %eax,%edi
   17517:	e8 21 28 ff ff       	callq  9d3d <safe_mul_func_uint16_t_u_u>
   1751c:	48 0f be 8d af e2 ff 	movsbq -0x1d51(%rbp),%rcx
   17523:	ff 
   17524:	48 8b 15 cd a1 00 00 	mov    0xa1cd(%rip),%rdx        # 216f8 <g_72>
   1752b:	48 8b 32             	mov    (%rdx),%rsi
   1752e:	0f b7 d0             	movzwl %ax,%edx
   17531:	48 8b 05 c0 a1 00 00 	mov    0xa1c0(%rip),%rax        # 216f8 <g_72>
   17538:	48 21 f2             	and    %rsi,%rdx
   1753b:	48 89 10             	mov    %rdx,(%rax)
   1753e:	48 8b 10             	mov    (%rax),%rdx
   17541:	8b 85 c4 e3 ff ff    	mov    -0x1c3c(%rbp),%eax
   17547:	48 98                	cltq   
   17549:	48 09 d0             	or     %rdx,%rax
   1754c:	48 39 c1             	cmp    %rax,%rcx
   1754f:	73 07                	jae    17558 <func_57+0x7cc8>
   17551:	83 bd bc e3 ff ff 00 	cmpl   $0x0,-0x1c44(%rbp)
   17558:	48 83 bd b0 e4 ff ff 	cmpq   $0x0,-0x1b50(%rbp)
   1755f:	00 
   17560:	0f 95 c0             	setne  %al
   17563:	0f b6 c0             	movzbl %al,%eax
   17566:	23 85 38 e3 ff ff    	and    -0x1cc8(%rbp),%eax
   1756c:	48 98                	cltq   
   1756e:	48 89 de             	mov    %rbx,%rsi
   17571:	48 89 c7             	mov    %rax,%rdi
   17574:	e8 07 2b ff ff       	callq  a080 <safe_mod_func_uint64_t_u_u>
   17579:	0f b6 c0             	movzbl %al,%eax
   1757c:	8b 95 90 e2 ff ff    	mov    -0x1d70(%rbp),%edx
   17582:	89 d6                	mov    %edx,%esi
   17584:	89 c7                	mov    %eax,%edi
   17586:	e8 02 27 ff ff       	callq  9c8d <safe_rshift_func_uint8_t_u_s>
   1758b:	0f b6 c0             	movzbl %al,%eax
   1758e:	39 85 90 e2 ff ff    	cmp    %eax,-0x1d70(%rbp)
   17594:	0f 9f c0             	setg   %al
   17597:	0f b6 c8             	movzbl %al,%ecx
   1759a:	48 8b 05 67 a1 00 00 	mov    0xa167(%rip),%rax        # 21708 <g_167>
   175a1:	8b 10                	mov    (%rax),%edx
   175a3:	09 ca                	or     %ecx,%edx
   175a5:	89 10                	mov    %edx,(%rax)
   175a7:	48 8b 05 da a7 00 00 	mov    0xa7da(%rip),%rax        # 21d88 <g_882>
   175ae:	8b 00                	mov    (%rax),%eax
   175b0:	85 c0                	test   %eax,%eax
   175b2:	0f 84 b7 07 00 00    	je     17d6f <func_57+0x84df>
   175b8:	c7 85 c8 e3 ff ff fd 	movl   $0xfffffffd,-0x1c38(%rbp)
   175bf:	ff ff ff 
   175c2:	48 8d 85 ba e2 ff ff 	lea    -0x1d46(%rbp),%rax
   175c9:	48 89 85 38 e6 ff ff 	mov    %rax,-0x19c8(%rbp)
   175d0:	c7 85 5c e3 ff ff 00 	movl   $0x0,-0x1ca4(%rbp)
   175d7:	00 00 00 
   175da:	eb 1e                	jmp    175fa <func_57+0x7d6a>
   175dc:	8b 85 5c e3 ff ff    	mov    -0x1ca4(%rbp),%eax
   175e2:	48 98                	cltq   
   175e4:	48 8d 15 4d 7b 00 00 	lea    0x7b4d(%rip),%rdx        # 1f138 <g_864+0x18>
   175eb:	48 89 94 c5 10 e9 ff 	mov    %rdx,-0x16f0(%rbp,%rax,8)
   175f2:	ff 
   175f3:	83 85 5c e3 ff ff 01 	addl   $0x1,-0x1ca4(%rbp)
   175fa:	83 bd 5c e3 ff ff 02 	cmpl   $0x2,-0x1ca4(%rbp)
   17601:	7e d9                	jle    175dc <func_57+0x7d4c>
   17603:	c6 05 66 7a 00 00 00 	movb   $0x0,0x7a66(%rip)        # 1f070 <g_105>
   1760a:	e9 5a 04 00 00       	jmpq   17a69 <func_57+0x81d9>
   1760f:	c7 85 cc e3 ff ff fb 	movl   $0xfffffffb,-0x1c34(%rbp)
   17616:	ff ff ff 
   17619:	48 8d 85 c0 eb ff ff 	lea    -0x1440(%rbp),%rax
   17620:	48 83 c0 70          	add    $0x70,%rax
   17624:	48 89 85 90 ef ff ff 	mov    %rax,-0x1070(%rbp)
   1762b:	48 8d 85 c0 eb ff ff 	lea    -0x1440(%rbp),%rax
   17632:	48 83 c0 70          	add    $0x70,%rax
   17636:	48 89 85 98 ef ff ff 	mov    %rax,-0x1068(%rbp)
   1763d:	48 8d 85 c0 eb ff ff 	lea    -0x1440(%rbp),%rax
   17644:	48 83 c0 70          	add    $0x70,%rax
   17648:	48 89 85 a0 ef ff ff 	mov    %rax,-0x1060(%rbp)
   1764f:	48 8d 85 c0 eb ff ff 	lea    -0x1440(%rbp),%rax
   17656:	48 83 c0 70          	add    $0x70,%rax
   1765a:	48 89 85 a8 ef ff ff 	mov    %rax,-0x1058(%rbp)
   17661:	48 8d 85 c0 eb ff ff 	lea    -0x1440(%rbp),%rax
   17668:	48 83 c0 70          	add    $0x70,%rax
   1766c:	48 89 85 b0 ef ff ff 	mov    %rax,-0x1050(%rbp)
   17673:	c7 85 d0 e3 ff ff 08 	movl   $0x8,-0x1c30(%rbp)
   1767a:	00 00 00 
   1767d:	c6 85 af e2 ff ff 00 	movb   $0x0,-0x1d51(%rbp)
   17684:	e9 7a 03 00 00       	jmpq   17a03 <func_57+0x8173>
   17689:	c7 85 d4 e3 ff ff 08 	movl   $0x8,-0x1c2c(%rbp)
   17690:	00 00 00 
   17693:	48 8d 05 0e a7 00 00 	lea    0xa70e(%rip),%rax        # 21da8 <g_906>
   1769a:	48 89 85 20 f1 ff ff 	mov    %rax,-0xee0(%rbp)
   176a1:	48 8d 05 00 a7 00 00 	lea    0xa700(%rip),%rax        # 21da8 <g_906>
   176a8:	48 89 85 28 f1 ff ff 	mov    %rax,-0xed8(%rbp)
   176af:	48 8d 05 f2 a6 00 00 	lea    0xa6f2(%rip),%rax        # 21da8 <g_906>
   176b6:	48 89 85 30 f1 ff ff 	mov    %rax,-0xed0(%rbp)
   176bd:	48 8d 05 e4 a6 00 00 	lea    0xa6e4(%rip),%rax        # 21da8 <g_906>
   176c4:	48 89 85 38 f1 ff ff 	mov    %rax,-0xec8(%rbp)
   176cb:	48 8d 05 d6 a6 00 00 	lea    0xa6d6(%rip),%rax        # 21da8 <g_906>
   176d2:	48 89 85 40 f1 ff ff 	mov    %rax,-0xec0(%rbp)
   176d9:	48 c7 85 48 f1 ff ff 	movq   $0x0,-0xeb8(%rbp)
   176e0:	00 00 00 00 
   176e4:	48 8d 05 bd a6 00 00 	lea    0xa6bd(%rip),%rax        # 21da8 <g_906>
   176eb:	48 89 85 50 f1 ff ff 	mov    %rax,-0xeb0(%rbp)
   176f2:	48 c7 85 58 f1 ff ff 	movq   $0x0,-0xea8(%rbp)
   176f9:	00 00 00 00 
   176fd:	48 8d 05 a4 a6 00 00 	lea    0xa6a4(%rip),%rax        # 21da8 <g_906>
   17704:	48 89 85 60 f1 ff ff 	mov    %rax,-0xea0(%rbp)
   1770b:	48 8d 05 96 a6 00 00 	lea    0xa696(%rip),%rax        # 21da8 <g_906>
   17712:	48 89 85 68 f1 ff ff 	mov    %rax,-0xe98(%rbp)
   17719:	48 8d 05 88 a6 00 00 	lea    0xa688(%rip),%rax        # 21da8 <g_906>
   17720:	48 89 85 70 f1 ff ff 	mov    %rax,-0xe90(%rbp)
   17727:	48 8d 05 7a a6 00 00 	lea    0xa67a(%rip),%rax        # 21da8 <g_906>
   1772e:	48 89 85 78 f1 ff ff 	mov    %rax,-0xe88(%rbp)
   17735:	48 8d 05 6c a6 00 00 	lea    0xa66c(%rip),%rax        # 21da8 <g_906>
   1773c:	48 89 85 80 f1 ff ff 	mov    %rax,-0xe80(%rbp)
   17743:	48 8d 05 5e a6 00 00 	lea    0xa65e(%rip),%rax        # 21da8 <g_906>
   1774a:	48 89 85 88 f1 ff ff 	mov    %rax,-0xe78(%rbp)
   17751:	48 c7 85 90 f1 ff ff 	movq   $0x0,-0xe70(%rbp)
   17758:	00 00 00 00 
   1775c:	48 8d 05 45 a6 00 00 	lea    0xa645(%rip),%rax        # 21da8 <g_906>
   17763:	48 89 85 98 f1 ff ff 	mov    %rax,-0xe68(%rbp)
   1776a:	48 8d 05 37 a6 00 00 	lea    0xa637(%rip),%rax        # 21da8 <g_906>
   17771:	48 89 85 a0 f1 ff ff 	mov    %rax,-0xe60(%rbp)
   17778:	48 8d 05 29 a6 00 00 	lea    0xa629(%rip),%rax        # 21da8 <g_906>
   1777f:	48 89 85 a8 f1 ff ff 	mov    %rax,-0xe58(%rbp)
   17786:	48 c7 85 b0 f1 ff ff 	movq   $0x0,-0xe50(%rbp)
   1778d:	00 00 00 00 
   17791:	48 8d 05 10 a6 00 00 	lea    0xa610(%rip),%rax        # 21da8 <g_906>
   17798:	48 89 85 b8 f1 ff ff 	mov    %rax,-0xe48(%rbp)
   1779f:	48 8d 85 20 f1 ff ff 	lea    -0xee0(%rbp),%rax
   177a6:	48 83 c0 70          	add    $0x70,%rax
   177aa:	48 89 85 60 e4 ff ff 	mov    %rax,-0x1ba0(%rbp)
   177b1:	48 8b 05 48 9f 00 00 	mov    0x9f48(%rip),%rax        # 21700 <g_113>
   177b8:	8b 10                	mov    (%rax),%edx
   177ba:	8b 05 ac 79 00 00    	mov    0x79ac(%rip),%eax        # 1f16c <g_864+0x4c>
   177c0:	31 d0                	xor    %edx,%eax
   177c2:	89 05 a4 79 00 00    	mov    %eax,0x79a4(%rip)        # 1f16c <g_864+0x4c>
   177c8:	c6 05 4d 79 00 00 00 	movb   $0x0,0x794d(%rip)        # 1f11c <g_854>
   177cf:	e9 c7 01 00 00       	jmpq   1799b <func_57+0x810b>
   177d4:	c7 85 e0 e3 ff ff f8 	movl   $0xfffffff8,-0x1c20(%rbp)
   177db:	ff ff ff 
   177de:	48 8d 85 90 ef ff ff 	lea    -0x1070(%rbp),%rax
   177e5:	48 83 c0 20          	add    $0x20,%rax
   177e9:	48 89 85 48 e6 ff ff 	mov    %rax,-0x19b8(%rbp)
   177f0:	c7 85 e4 e3 ff ff ff 	movl   $0xffffffff,-0x1c1c(%rbp)
   177f7:	ff ff ff 
   177fa:	48 8d 85 60 e4 ff ff 	lea    -0x1ba0(%rbp),%rax
   17801:	48 89 85 50 e6 ff ff 	mov    %rax,-0x19b0(%rbp)
   17808:	48 8d 85 20 f1 ff ff 	lea    -0xee0(%rbp),%rax
   1780f:	48 83 c0 70          	add    $0x70,%rax
   17813:	48 89 85 68 e4 ff ff 	mov    %rax,-0x1b98(%rbp)
   1781a:	48 8d 85 68 e4 ff ff 	lea    -0x1b98(%rbp),%rax
   17821:	48 89 85 58 e6 ff ff 	mov    %rax,-0x19a8(%rbp)
   17828:	48 8d 85 20 f1 ff ff 	lea    -0xee0(%rbp),%rax
   1782f:	48 83 c0 70          	add    $0x70,%rax
   17833:	48 89 85 70 e4 ff ff 	mov    %rax,-0x1b90(%rbp)
   1783a:	48 8d 85 70 e4 ff ff 	lea    -0x1b90(%rbp),%rax
   17841:	48 89 85 60 e6 ff ff 	mov    %rax,-0x19a0(%rbp)
   17848:	c7 85 60 e3 ff ff 00 	movl   $0x0,-0x1ca0(%rbp)
   1784f:	00 00 00 
   17852:	eb 1e                	jmp    17872 <func_57+0x7fe2>
   17854:	8b 85 60 e3 ff ff    	mov    -0x1ca0(%rbp),%eax
   1785a:	48 98                	cltq   
   1785c:	48 8d 15 15 78 00 00 	lea    0x7815(%rip),%rdx        # 1f078 <g_155>
   17863:	48 89 94 c5 f0 e9 ff 	mov    %rdx,-0x1610(%rbp,%rax,8)
   1786a:	ff 
   1786b:	83 85 60 e3 ff ff 01 	addl   $0x1,-0x1ca0(%rbp)
   17872:	83 bd 60 e3 ff ff 03 	cmpl   $0x3,-0x1ca0(%rbp)
   17879:	7e d9                	jle    17854 <func_57+0x7fc4>
   1787b:	c7 85 cc e3 ff ff f2 	movl   $0x241ff3f2,-0x1c34(%rbp)
   17882:	f3 1f 24 
   17885:	0f be 9d b8 e2 ff ff 	movsbl -0x1d48(%rbp),%ebx
   1788c:	8b 85 e0 e3 ff ff    	mov    -0x1c20(%rbp),%eax
   17892:	0f b6 c0             	movzbl %al,%eax
   17895:	be 03 00 00 00       	mov    $0x3,%esi
   1789a:	89 c7                	mov    %eax,%edi
   1789c:	e8 1d 24 ff ff       	callq  9cbe <safe_rshift_func_uint8_t_u_u>
   178a1:	48 8b 95 b0 ef ff ff 	mov    -0x1050(%rbp),%rdx
   178a8:	48 8b 85 48 e6 ff ff 	mov    -0x19b8(%rbp),%rax
   178af:	48 89 10             	mov    %rdx,(%rax)
   178b2:	8b 85 cc e3 ff ff    	mov    -0x1c34(%rbp),%eax
   178b8:	89 c6                	mov    %eax,%esi
   178ba:	bf 00 00 00 00       	mov    $0x0,%edi
   178bf:	e8 66 1c ff ff       	callq  952a <safe_rshift_func_int16_t_s_s>
   178c4:	0f be c0             	movsbl %al,%eax
   178c7:	be 04 00 00 00       	mov    $0x4,%esi
   178cc:	89 c7                	mov    %eax,%edi
   178ce:	e8 1b 1a ff ff       	callq  92ee <safe_lshift_func_int8_t_s_u>
   178d3:	0f be c0             	movsbl %al,%eax
   178d6:	be 08 00 00 00       	mov    $0x8,%esi
   178db:	89 c7                	mov    %eax,%edi
   178dd:	e8 30 19 ff ff       	callq  9212 <safe_mul_func_int8_t_s_s>
   178e2:	0f be c0             	movsbl %al,%eax
   178e5:	39 85 90 e2 ff ff    	cmp    %eax,-0x1d70(%rbp)
   178eb:	be 01 00 00 00       	mov    $0x1,%esi
   178f0:	bf 01 00 00 00       	mov    $0x1,%edi
   178f5:	e8 e7 1b ff ff       	callq  94e1 <safe_lshift_func_int16_t_s_u>
   178fa:	0f bf d0             	movswl %ax,%edx
   178fd:	8b 85 94 e2 ff ff    	mov    -0x1d6c(%rbp),%eax
   17903:	98                   	cwtl   
   17904:	89 d6                	mov    %edx,%esi
   17906:	89 c7                	mov    %eax,%edi
   17908:	e8 56 1c ff ff       	callq  9563 <safe_rshift_func_int16_t_s_u>
   1790d:	0f bf d0             	movswl %ax,%edx
   17910:	8b 85 e4 e3 ff ff    	mov    -0x1c1c(%rbp),%eax
   17916:	c1 e8 1f             	shr    $0x1f,%eax
   17919:	0f b6 c0             	movzbl %al,%eax
   1791c:	39 c2                	cmp    %eax,%edx
   1791e:	0f 95 c0             	setne  %al
   17921:	f7 d0                	not    %eax
   17923:	0f be c0             	movsbl %al,%eax
   17926:	89 de                	mov    %ebx,%esi
   17928:	89 c7                	mov    %eax,%edi
   1792a:	e8 02 19 ff ff       	callq  9231 <safe_mod_func_int8_t_s_s>
   1792f:	8b 85 3c e3 ff ff    	mov    -0x1cc4(%rbp),%eax
   17935:	0f b6 c0             	movzbl %al,%eax
   17938:	89 c6                	mov    %eax,%esi
   1793a:	bf 02 00 00 00       	mov    $0x2,%edi
   1793f:	e8 16 22 ff ff       	callq  9b5a <safe_add_func_uint8_t_u_u>
   17944:	89 c2                	mov    %eax,%edx
   17946:	48 8b 05 b3 9d 00 00 	mov    0x9db3(%rip),%rax        # 21700 <g_113>
   1794d:	0f b6 d2             	movzbl %dl,%edx
   17950:	89 10                	mov    %edx,(%rax)
   17952:	48 8b 95 60 e4 ff ff 	mov    -0x1ba0(%rbp),%rdx
   17959:	48 8b 85 50 e6 ff ff 	mov    -0x19b0(%rbp),%rax
   17960:	48 89 10             	mov    %rdx,(%rax)
   17963:	48 8b 85 50 e6 ff ff 	mov    -0x19b0(%rbp),%rax
   1796a:	48 8b 10             	mov    (%rax),%rdx
   1796d:	48 8b 85 58 e6 ff ff 	mov    -0x19a8(%rbp),%rax
   17974:	48 89 10             	mov    %rdx,(%rax)
   17977:	48 8b 85 58 e6 ff ff 	mov    -0x19a8(%rbp),%rax
   1797e:	48 8b 10             	mov    (%rax),%rdx
   17981:	48 8b 85 60 e6 ff ff 	mov    -0x19a0(%rbp),%rax
   17988:	48 89 10             	mov    %rdx,(%rax)
   1798b:	0f b6 05 8a 77 00 00 	movzbl 0x778a(%rip),%eax        # 1f11c <g_854>
   17992:	83 c0 01             	add    $0x1,%eax
   17995:	88 05 81 77 00 00    	mov    %al,0x7781(%rip)        # 1f11c <g_854>
   1799b:	0f b6 05 7a 77 00 00 	movzbl 0x777a(%rip),%eax        # 1f11c <g_854>
   179a2:	84 c0                	test   %al,%al
   179a4:	0f 84 2a fe ff ff    	je     177d4 <func_57+0x7f44>
   179aa:	48 8b 05 57 9d 00 00 	mov    0x9d57(%rip),%rax        # 21708 <g_167>
   179b1:	8b 95 90 e2 ff ff    	mov    -0x1d70(%rbp),%edx
   179b7:	89 10                	mov    %edx,(%rax)
   179b9:	8b 00                	mov    (%rax),%eax
   179bb:	85 c0                	test   %eax,%eax
   179bd:	74 27                	je     179e6 <func_57+0x8156>
   179bf:	c7 85 d8 e3 ff ff 00 	movl   $0x0,-0x1c28(%rbp)
   179c6:	00 00 00 
   179c9:	c7 85 dc e3 ff ff 01 	movl   $0x1,-0x1c24(%rbp)
   179d0:	00 00 00 
   179d3:	0f b7 05 de 77 00 00 	movzwl 0x77de(%rip),%eax        # 1f1b8 <g_1284>
   179da:	83 c0 01             	add    $0x1,%eax
   179dd:	66 89 05 d4 77 00 00 	mov    %ax,0x77d4(%rip)        # 1f1b8 <g_1284>
   179e4:	eb 0d                	jmp    179f3 <func_57+0x8163>
   179e6:	48 8b 05 1b 9d 00 00 	mov    0x9d1b(%rip),%rax        # 21708 <g_167>
   179ed:	8b 00                	mov    (%rax),%eax
   179ef:	85 c0                	test   %eax,%eax
   179f1:	75 1f                	jne    17a12 <func_57+0x8182>
   179f3:	0f b6 85 af e2 ff ff 	movzbl -0x1d51(%rbp),%eax
   179fa:	83 c0 01             	add    $0x1,%eax
   179fd:	88 85 af e2 ff ff    	mov    %al,-0x1d51(%rbp)
   17a03:	80 bd af e2 ff ff 05 	cmpb   $0x5,-0x1d51(%rbp)
   17a0a:	0f 8e 79 fc ff ff    	jle    17689 <func_57+0x7df9>
   17a10:	eb 01                	jmp    17a13 <func_57+0x8183>
   17a12:	90                   	nop
   17a13:	c7 05 4f 76 00 00 00 	movl   $0x0,0x764f(%rip)        # 1f06c <g_98>
   17a1a:	00 00 00 
   17a1d:	eb 30                	jmp    17a4f <func_57+0x81bf>
   17a1f:	0f b6 05 3a 76 00 00 	movzbl 0x763a(%rip),%eax        # 1f060 <g_56>
   17a26:	84 c0                	test   %al,%al
   17a28:	74 05                	je     17a2f <func_57+0x819f>
   17a2a:	e9 95 c9 ff ff       	jmpq   143c4 <func_57+0x4b34>
   17a2f:	0f b7 05 e4 76 00 00 	movzwl 0x76e4(%rip),%eax        # 1f11a <g_695>
   17a36:	c7 85 3c e3 ff ff 00 	movl   $0x0,-0x1cc4(%rbp)
   17a3d:	00 00 00 
   17a40:	8b 05 26 76 00 00    	mov    0x7626(%rip),%eax        # 1f06c <g_98>
   17a46:	83 c0 01             	add    $0x1,%eax
   17a49:	89 05 1d 76 00 00    	mov    %eax,0x761d(%rip)        # 1f06c <g_98>
   17a4f:	8b 05 17 76 00 00    	mov    0x7617(%rip),%eax        # 1f06c <g_98>
   17a55:	85 c0                	test   %eax,%eax
   17a57:	74 c6                	je     17a1f <func_57+0x818f>
   17a59:	0f b6 05 10 76 00 00 	movzbl 0x7610(%rip),%eax        # 1f070 <g_105>
   17a60:	83 e8 01             	sub    $0x1,%eax
   17a63:	88 05 07 76 00 00    	mov    %al,0x7607(%rip)        # 1f070 <g_105>
   17a69:	0f b6 05 00 76 00 00 	movzbl 0x7600(%rip),%eax        # 1f070 <g_105>
   17a70:	84 c0                	test   %al,%al
   17a72:	0f 89 97 fb ff ff    	jns    1760f <func_57+0x7d7f>
   17a78:	66 c7 85 bc e2 ff ff 	movw   $0xffec,-0x1d44(%rbp)
   17a7f:	ec ff 
   17a81:	66 83 bd bc e2 ff ff 	cmpw   $0x2e,-0x1d44(%rbp)
   17a88:	2e 
   17a89:	0f 87 c1 09 00 00    	ja     18450 <func_57+0x8bc0>
   17a8f:	c7 85 20 f1 ff ff 01 	movl   $0x1,-0xee0(%rbp)
   17a96:	00 00 00 
   17a99:	c7 85 24 f1 ff ff 01 	movl   $0x1,-0xedc(%rbp)
   17aa0:	00 00 00 
   17aa3:	c7 85 28 f1 ff ff 78 	movl   $0xe54d2378,-0xed8(%rbp)
   17aaa:	23 4d e5 
   17aad:	c7 85 2c f1 ff ff 01 	movl   $0x1,-0xed4(%rbp)
   17ab4:	00 00 00 
   17ab7:	c7 85 30 f1 ff ff 01 	movl   $0x1,-0xed0(%rbp)
   17abe:	00 00 00 
   17ac1:	c7 85 34 f1 ff ff 78 	movl   $0xe54d2378,-0xecc(%rbp)
   17ac8:	23 4d e5 
   17acb:	48 8d 05 4a 76 00 00 	lea    0x764a(%rip),%rax        # 1f11c <g_854>
   17ad2:	48 89 85 40 e6 ff ff 	mov    %rax,-0x19c0(%rbp)
   17ad9:	c6 85 b9 e2 ff ff f6 	movb   $0xf6,-0x1d47(%rbp)
   17ae0:	c7 85 64 e3 ff ff 00 	movl   $0x0,-0x1c9c(%rbp)
   17ae7:	00 00 00 
   17aea:	eb 1a                	jmp    17b06 <func_57+0x8276>
   17aec:	8b 85 64 e3 ff ff    	mov    -0x1c9c(%rbp),%eax
   17af2:	48 98                	cltq   
   17af4:	c7 84 85 90 ef ff ff 	movl   $0x8,-0x1070(%rbp,%rax,4)
   17afb:	08 00 00 00 
   17aff:	83 85 64 e3 ff ff 01 	addl   $0x1,-0x1c9c(%rbp)
   17b06:	83 bd 64 e3 ff ff 02 	cmpl   $0x2,-0x1c9c(%rbp)
   17b0d:	7e dd                	jle    17aec <func_57+0x825c>
   17b0f:	8b 85 90 e2 ff ff    	mov    -0x1d70(%rbp),%eax
   17b15:	0f b6 d8             	movzbl %al,%ebx
   17b18:	48 8b 85 e8 ed ff ff 	mov    -0x1218(%rbp),%rax
   17b1f:	48 85 c0             	test   %rax,%rax
   17b22:	75 3d                	jne    17b61 <func_57+0x82d1>
   17b24:	0f b6 05 4d 75 00 00 	movzbl 0x754d(%rip),%eax        # 1f078 <g_155>
   17b2b:	0f b6 c0             	movzbl %al,%eax
   17b2e:	8b 95 c8 e3 ff ff    	mov    -0x1c38(%rbp),%edx
   17b34:	48 63 d2             	movslq %edx,%rdx
   17b37:	83 e2 01             	and    $0x1,%edx
   17b3a:	48 89 c6             	mov    %rax,%rsi
   17b3d:	48 89 d7             	mov    %rdx,%rdi
   17b40:	e8 3b 25 ff ff       	callq  a080 <safe_mod_func_uint64_t_u_u>
   17b45:	8b 95 94 e2 ff ff    	mov    -0x1d6c(%rbp),%edx
   17b4b:	48 63 d2             	movslq %edx,%rdx
   17b4e:	48 39 d0             	cmp    %rdx,%rax
   17b51:	0f 97 c0             	seta   %al
   17b54:	0f b6 d0             	movzbl %al,%edx
   17b57:	8b 85 94 e2 ff ff    	mov    -0x1d6c(%rbp),%eax
   17b5d:	39 c2                	cmp    %eax,%edx
   17b5f:	74 07                	je     17b68 <func_57+0x82d8>
   17b61:	b8 01 00 00 00       	mov    $0x1,%eax
   17b66:	eb 05                	jmp    17b6d <func_57+0x82dd>
   17b68:	b8 00 00 00 00       	mov    $0x0,%eax
   17b6d:	89 c2                	mov    %eax,%edx
   17b6f:	48 8b 85 40 e6 ff ff 	mov    -0x19c0(%rbp),%rax
   17b76:	88 10                	mov    %dl,(%rax)
   17b78:	8b 85 94 e2 ff ff    	mov    -0x1d6c(%rbp),%eax
   17b7e:	0f be c0             	movsbl %al,%eax
   17b81:	89 c7                	mov    %eax,%edi
   17b83:	e8 37 16 ff ff       	callq  91bf <safe_unary_minus_func_int8_t_s>
   17b88:	8b 85 20 f1 ff ff    	mov    -0xee0(%rbp),%eax
   17b8e:	39 85 90 e2 ff ff    	cmp    %eax,-0x1d70(%rbp)
   17b94:	0f 9f c0             	setg   %al
   17b97:	0f b6 c0             	movzbl %al,%eax
   17b9a:	be 0a 00 00 00       	mov    $0xa,%esi
   17b9f:	89 c7                	mov    %eax,%edi
   17ba1:	e8 18 22 ff ff       	callq  9dbe <safe_lshift_func_uint16_t_u_s>
   17ba6:	0f b7 d0             	movzwl %ax,%edx
   17ba9:	48 8b 85 e8 ed ff ff 	mov    -0x1218(%rbp),%rax
   17bb0:	48 39 c2             	cmp    %rax,%rdx
   17bb3:	0f 92 c0             	setb   %al
   17bb6:	0f b6 d0             	movzbl %al,%edx
   17bb9:	48 8b 05 d8 b0 00 00 	mov    0xb0d8(%rip),%rax        # 22c98 <g_109>
   17bc0:	48 39 c2             	cmp    %rax,%rdx
   17bc3:	0f 95 c0             	setne  %al
   17bc6:	0f b6 c0             	movzbl %al,%eax
   17bc9:	89 de                	mov    %ebx,%esi
   17bcb:	89 c7                	mov    %eax,%edi
   17bcd:	e8 a6 1f ff ff       	callq  9b78 <safe_sub_func_uint8_t_u_u>
   17bd2:	0f b6 c0             	movzbl %al,%eax
   17bd5:	be 7c c4 00 00       	mov    $0xc47c,%esi
   17bda:	89 c7                	mov    %eax,%edi
   17bdc:	e8 3e 21 ff ff       	callq  9d1f <safe_sub_func_uint16_t_u_u>
   17be1:	0f b7 d0             	movzwl %ax,%edx
   17be4:	8b 85 94 e2 ff ff    	mov    -0x1d6c(%rbp),%eax
   17bea:	39 c2                	cmp    %eax,%edx
   17bec:	0f 9c c0             	setl   %al
   17bef:	0f b6 d0             	movzbl %al,%edx
   17bf2:	8b 85 30 f1 ff ff    	mov    -0xed0(%rbp),%eax
   17bf8:	39 c2                	cmp    %eax,%edx
   17bfa:	7d 13                	jge    17c0f <func_57+0x837f>
   17bfc:	8b 85 20 f1 ff ff    	mov    -0xee0(%rbp),%eax
   17c02:	85 c0                	test   %eax,%eax
   17c04:	0f 84 59 01 00 00    	je     17d63 <func_57+0x84d3>
   17c0a:	e9 41 08 00 00       	jmpq   18450 <func_57+0x8bc0>
   17c0f:	c7 85 68 e3 ff ff 00 	movl   $0x0,-0x1c98(%rbp)
   17c16:	00 00 00 
   17c19:	eb 14                	jmp    17c2f <func_57+0x839f>
   17c1b:	8b 85 68 e3 ff ff    	mov    -0x1c98(%rbp),%eax
   17c21:	48 98                	cltq   
   17c23:	c6 44 05 bf 01       	movb   $0x1,-0x41(%rbp,%rax,1)
   17c28:	83 85 68 e3 ff ff 01 	addl   $0x1,-0x1c98(%rbp)
   17c2f:	83 bd 68 e3 ff ff 08 	cmpl   $0x8,-0x1c98(%rbp)
   17c36:	7e e3                	jle    17c1b <func_57+0x838b>
   17c38:	8b 85 98 ef ff ff    	mov    -0x1068(%rbp),%eax
   17c3e:	0f b7 c0             	movzwl %ax,%eax
   17c41:	be 06 00 00 00       	mov    $0x6,%esi
   17c46:	89 c7                	mov    %eax,%edi
   17c48:	e8 2d 22 ff ff       	callq  9e7a <safe_rshift_func_uint16_t_u_u>
   17c4d:	0f b7 c0             	movzwl %ax,%eax
   17c50:	39 85 3c e3 ff ff    	cmp    %eax,-0x1cc4(%rbp)
   17c56:	0f 9e c0             	setle  %al
   17c59:	88 85 7c e2 ff ff    	mov    %al,-0x1d84(%rbp)
   17c5f:	8b 85 38 e3 ff ff    	mov    -0x1cc8(%rbp),%eax
   17c65:	0f b7 d8             	movzwl %ax,%ebx
   17c68:	48 8b 85 98 e2 ff ff 	mov    -0x1d68(%rbp),%rax
   17c6f:	4c 8b 20             	mov    (%rax),%r12
   17c72:	8b 85 90 e2 ff ff    	mov    -0x1d70(%rbp),%eax
   17c78:	44 0f be e8          	movsbl %al,%r13d
   17c7c:	8b 05 2a 74 00 00    	mov    0x742a(%rip),%eax        # 1f0ac <g_240+0xc>
   17c82:	44 0f bf f0          	movswl %ax,%r14d
   17c86:	48 8b 05 3b 74 00 00 	mov    0x743b(%rip),%rax        # 1f0c8 <g_294>
   17c8d:	44 0f bf f8          	movswl %ax,%r15d
   17c91:	8b 95 b8 e3 ff ff    	mov    -0x1c48(%rbp),%edx
   17c97:	0f b7 05 72 74 00 00 	movzwl 0x7472(%rip),%eax        # 1f110 <g_675>
   17c9e:	48 0f bf c0          	movswq %ax,%rax
   17ca2:	48 89 d6             	mov    %rdx,%rsi
   17ca5:	48 89 c7             	mov    %rax,%rdi
   17ca8:	e8 4a 1d ff ff       	callq  99f7 <safe_div_func_int64_t_s_s>
   17cad:	98                   	cwtl   
   17cae:	44 89 fe             	mov    %r15d,%esi
   17cb1:	89 c7                	mov    %eax,%edi
   17cb3:	e8 5e 17 ff ff       	callq  9416 <safe_mod_func_int16_t_s_s>
   17cb8:	98                   	cwtl   
   17cb9:	44 89 f6             	mov    %r14d,%esi
   17cbc:	89 c7                	mov    %eax,%edi
   17cbe:	e8 32 17 ff ff       	callq  93f5 <safe_mul_func_int16_t_s_s>
   17cc3:	0f bf d0             	movswl %ax,%edx
   17cc6:	8b 85 94 ef ff ff    	mov    -0x106c(%rbp),%eax
   17ccc:	39 c2                	cmp    %eax,%edx
   17cce:	0f 97 c0             	seta   %al
   17cd1:	44 0f b6 f0          	movzbl %al,%r14d
   17cd5:	8b 85 94 e2 ff ff    	mov    -0x1d6c(%rbp),%eax
   17cdb:	88 45 c2             	mov    %al,-0x3e(%rbp)
   17cde:	0f b6 45 c2          	movzbl -0x3e(%rbp),%eax
   17ce2:	0f be c0             	movsbl %al,%eax
   17ce5:	be 05 00 00 00       	mov    $0x5,%esi
   17cea:	89 c7                	mov    %eax,%edi
   17cec:	e8 7b 16 ff ff       	callq  936c <safe_rshift_func_int8_t_s_u>
   17cf1:	66 98                	cbtw   
   17cf3:	0f b7 c0             	movzwl %ax,%eax
   17cf6:	44 89 f6             	mov    %r14d,%esi
   17cf9:	89 c7                	mov    %eax,%edi
   17cfb:	e8 3d 20 ff ff       	callq  9d3d <safe_mul_func_uint16_t_u_u>
   17d00:	0f be c0             	movsbl %al,%eax
   17d03:	44 89 ee             	mov    %r13d,%esi
   17d06:	89 c7                	mov    %eax,%edi
   17d08:	e8 e5 14 ff ff       	callq  91f2 <safe_sub_func_int8_t_s_s>
   17d0d:	44 0f b6 e8          	movzbl %al,%r13d
   17d11:	be 2a d9 9a 9d       	mov    $0x9d9ad92a,%esi
   17d16:	bf 08 00 00 00       	mov    $0x8,%edi
   17d1b:	e8 05 22 ff ff       	callq  9f25 <safe_div_func_uint32_t_u_u>
   17d20:	0f b6 c0             	movzbl %al,%eax
   17d23:	44 89 ee             	mov    %r13d,%esi
   17d26:	89 c7                	mov    %eax,%edi
   17d28:	e8 66 1e ff ff       	callq  9b93 <safe_mul_func_uint8_t_u_u>
   17d2d:	84 c0                	test   %al,%al
   17d2f:	0f 94 c0             	sete   %al
   17d32:	0f b6 c0             	movzbl %al,%eax
   17d35:	4c 89 e6             	mov    %r12,%rsi
   17d38:	48 89 c7             	mov    %rax,%rdi
   17d3b:	e8 0b 23 ff ff       	callq  a04b <safe_sub_func_uint64_t_u_u>
   17d40:	0f b7 c0             	movzwl %ax,%eax
   17d43:	89 de                	mov    %ebx,%esi
   17d45:	89 c7                	mov    %eax,%edi
   17d47:	e8 b3 1f ff ff       	callq  9cff <safe_add_func_uint16_t_u_u>
   17d4c:	89 c2                	mov    %eax,%edx
   17d4e:	0f b7 05 c5 73 00 00 	movzwl 0x73c5(%rip),%eax        # 1f11a <g_695>
   17d55:	31 d0                	xor    %edx,%eax
   17d57:	22 85 7c e2 ff ff    	and    -0x1d84(%rbp),%al
   17d5d:	88 85 b9 e2 ff ff    	mov    %al,-0x1d47(%rbp)
   17d63:	48 8d 05 a8 73 00 00 	lea    0x73a8(%rip),%rax        # 1f112 <g_675+0x2>
   17d6a:	e9 06 07 00 00       	jmpq   18475 <func_57+0x8be5>
   17d6f:	48 8d 05 3a a0 00 00 	lea    0xa03a(%rip),%rax        # 21db0 <g_954>
   17d76:	48 89 85 20 f1 ff ff 	mov    %rax,-0xee0(%rbp)
   17d7d:	48 8d 85 b0 e7 ff ff 	lea    -0x1850(%rbp),%rax
   17d84:	48 89 85 28 f1 ff ff 	mov    %rax,-0xed8(%rbp)
   17d8b:	48 8d 85 b0 e7 ff ff 	lea    -0x1850(%rbp),%rax
   17d92:	48 83 c0 08          	add    $0x8,%rax
   17d96:	48 89 85 30 f1 ff ff 	mov    %rax,-0xed0(%rbp)
   17d9d:	48 8d 85 b0 e7 ff ff 	lea    -0x1850(%rbp),%rax
   17da4:	48 83 c0 08          	add    $0x8,%rax
   17da8:	48 89 85 38 f1 ff ff 	mov    %rax,-0xec8(%rbp)
   17daf:	48 8d 85 08 e4 ff ff 	lea    -0x1bf8(%rbp),%rax
   17db6:	48 89 85 40 f1 ff ff 	mov    %rax,-0xec0(%rbp)
   17dbd:	48 8d 05 ec 9f 00 00 	lea    0x9fec(%rip),%rax        # 21db0 <g_954>
   17dc4:	48 89 85 48 f1 ff ff 	mov    %rax,-0xeb8(%rbp)
   17dcb:	48 8d 05 de 9f 00 00 	lea    0x9fde(%rip),%rax        # 21db0 <g_954>
   17dd2:	48 89 85 50 f1 ff ff 	mov    %rax,-0xeb0(%rbp)
   17dd9:	48 c7 85 58 f1 ff ff 	movq   $0x0,-0xea8(%rbp)
   17de0:	00 00 00 00 
   17de4:	48 8d 85 b0 e7 ff ff 	lea    -0x1850(%rbp),%rax
   17deb:	48 83 c0 08          	add    $0x8,%rax
   17def:	48 89 85 60 f1 ff ff 	mov    %rax,-0xea0(%rbp)
   17df6:	48 8d 05 b3 9f 00 00 	lea    0x9fb3(%rip),%rax        # 21db0 <g_954>
   17dfd:	48 89 85 68 f1 ff ff 	mov    %rax,-0xe98(%rbp)
   17e04:	48 8d 05 a5 9f 00 00 	lea    0x9fa5(%rip),%rax        # 21db0 <g_954>
   17e0b:	48 89 85 70 f1 ff ff 	mov    %rax,-0xe90(%rbp)
   17e12:	48 8d 05 97 9f 00 00 	lea    0x9f97(%rip),%rax        # 21db0 <g_954>
   17e19:	48 89 85 78 f1 ff ff 	mov    %rax,-0xe88(%rbp)
   17e20:	48 8d 85 08 e4 ff ff 	lea    -0x1bf8(%rbp),%rax
   17e27:	48 89 85 80 f1 ff ff 	mov    %rax,-0xe80(%rbp)
   17e2e:	48 8d 85 b0 e7 ff ff 	lea    -0x1850(%rbp),%rax
   17e35:	48 83 c0 08          	add    $0x8,%rax
   17e39:	48 89 85 88 f1 ff ff 	mov    %rax,-0xe78(%rbp)
   17e40:	48 8d 85 b0 e7 ff ff 	lea    -0x1850(%rbp),%rax
   17e47:	48 83 c0 28          	add    $0x28,%rax
   17e4b:	48 89 85 90 f1 ff ff 	mov    %rax,-0xe70(%rbp)
   17e52:	48 c7 85 98 f1 ff ff 	movq   $0x0,-0xe68(%rbp)
   17e59:	00 00 00 00 
   17e5d:	48 8d 85 08 e4 ff ff 	lea    -0x1bf8(%rbp),%rax
   17e64:	48 89 85 a0 f1 ff ff 	mov    %rax,-0xe60(%rbp)
   17e6b:	48 8d 85 b0 e7 ff ff 	lea    -0x1850(%rbp),%rax
   17e72:	48 83 c0 08          	add    $0x8,%rax
   17e76:	48 89 85 a8 f1 ff ff 	mov    %rax,-0xe58(%rbp)
   17e7d:	48 c7 85 b0 f1 ff ff 	movq   $0x0,-0xe50(%rbp)
   17e84:	00 00 00 00 
   17e88:	48 8d 85 b0 e7 ff ff 	lea    -0x1850(%rbp),%rax
   17e8f:	48 83 c0 08          	add    $0x8,%rax
   17e93:	48 89 85 b8 f1 ff ff 	mov    %rax,-0xe48(%rbp)
   17e9a:	48 8d 85 b0 e7 ff ff 	lea    -0x1850(%rbp),%rax
   17ea1:	48 83 c0 08          	add    $0x8,%rax
   17ea5:	48 89 85 c0 f1 ff ff 	mov    %rax,-0xe40(%rbp)
   17eac:	48 8d 05 fd 9e 00 00 	lea    0x9efd(%rip),%rax        # 21db0 <g_954>
   17eb3:	48 89 85 c8 f1 ff ff 	mov    %rax,-0xe38(%rbp)
   17eba:	48 c7 85 d0 f1 ff ff 	movq   $0x0,-0xe30(%rbp)
   17ec1:	00 00 00 00 
   17ec5:	48 c7 85 d8 f1 ff ff 	movq   $0x0,-0xe28(%rbp)
   17ecc:	00 00 00 00 
   17ed0:	48 8d 85 08 e4 ff ff 	lea    -0x1bf8(%rbp),%rax
   17ed7:	48 89 85 e0 f1 ff ff 	mov    %rax,-0xe20(%rbp)
   17ede:	48 8d 85 08 e4 ff ff 	lea    -0x1bf8(%rbp),%rax
   17ee5:	48 89 85 e8 f1 ff ff 	mov    %rax,-0xe18(%rbp)
   17eec:	48 8d 05 bd 9e 00 00 	lea    0x9ebd(%rip),%rax        # 21db0 <g_954>
   17ef3:	48 89 85 f0 f1 ff ff 	mov    %rax,-0xe10(%rbp)
   17efa:	48 8d 85 b0 e7 ff ff 	lea    -0x1850(%rbp),%rax
   17f01:	48 83 c0 08          	add    $0x8,%rax
   17f05:	48 89 85 f8 f1 ff ff 	mov    %rax,-0xe08(%rbp)
   17f0c:	48 8d 85 b0 e7 ff ff 	lea    -0x1850(%rbp),%rax
   17f13:	48 83 c0 08          	add    $0x8,%rax
   17f17:	48 89 85 00 f2 ff ff 	mov    %rax,-0xe00(%rbp)
   17f1e:	48 8d 85 b0 e7 ff ff 	lea    -0x1850(%rbp),%rax
   17f25:	48 89 85 08 f2 ff ff 	mov    %rax,-0xdf8(%rbp)
   17f2c:	48 8d 85 08 e4 ff ff 	lea    -0x1bf8(%rbp),%rax
   17f33:	48 89 85 10 f2 ff ff 	mov    %rax,-0xdf0(%rbp)
   17f3a:	48 8d 05 6f 9e 00 00 	lea    0x9e6f(%rip),%rax        # 21db0 <g_954>
   17f41:	48 89 85 18 f2 ff ff 	mov    %rax,-0xde8(%rbp)
   17f48:	48 8d 85 b0 e7 ff ff 	lea    -0x1850(%rbp),%rax
   17f4f:	48 83 c0 08          	add    $0x8,%rax
   17f53:	48 89 85 20 f2 ff ff 	mov    %rax,-0xde0(%rbp)
   17f5a:	48 8d 85 b0 e7 ff ff 	lea    -0x1850(%rbp),%rax
   17f61:	48 83 c0 08          	add    $0x8,%rax
   17f65:	48 89 85 28 f2 ff ff 	mov    %rax,-0xdd8(%rbp)
   17f6c:	48 8d 05 3d 9e 00 00 	lea    0x9e3d(%rip),%rax        # 21db0 <g_954>
   17f73:	48 89 85 30 f2 ff ff 	mov    %rax,-0xdd0(%rbp)
   17f7a:	48 8d 05 2f 9e 00 00 	lea    0x9e2f(%rip),%rax        # 21db0 <g_954>
   17f81:	48 89 85 38 f2 ff ff 	mov    %rax,-0xdc8(%rbp)
   17f88:	48 8d 85 08 e4 ff ff 	lea    -0x1bf8(%rbp),%rax
   17f8f:	48 89 85 40 f2 ff ff 	mov    %rax,-0xdc0(%rbp)
   17f96:	48 8d 05 13 9e 00 00 	lea    0x9e13(%rip),%rax        # 21db0 <g_954>
   17f9d:	48 89 85 48 f2 ff ff 	mov    %rax,-0xdb8(%rbp)
   17fa4:	48 c7 85 50 f2 ff ff 	movq   $0x0,-0xdb0(%rbp)
   17fab:	00 00 00 00 
   17faf:	48 8d 05 fa 9d 00 00 	lea    0x9dfa(%rip),%rax        # 21db0 <g_954>
   17fb6:	48 89 85 58 f2 ff ff 	mov    %rax,-0xda8(%rbp)
   17fbd:	48 8d 85 b0 e7 ff ff 	lea    -0x1850(%rbp),%rax
   17fc4:	48 83 c0 08          	add    $0x8,%rax
   17fc8:	48 89 85 60 f2 ff ff 	mov    %rax,-0xda0(%rbp)
   17fcf:	48 8d 85 b0 e7 ff ff 	lea    -0x1850(%rbp),%rax
   17fd6:	48 83 c0 08          	add    $0x8,%rax
   17fda:	48 89 85 68 f2 ff ff 	mov    %rax,-0xd98(%rbp)
   17fe1:	48 c7 85 70 f2 ff ff 	movq   $0x0,-0xd90(%rbp)
   17fe8:	00 00 00 00 
   17fec:	48 8d 85 b0 e7 ff ff 	lea    -0x1850(%rbp),%rax
   17ff3:	48 83 c0 08          	add    $0x8,%rax
   17ff7:	48 89 85 78 f2 ff ff 	mov    %rax,-0xd88(%rbp)
   17ffe:	48 8d 85 08 e4 ff ff 	lea    -0x1bf8(%rbp),%rax
   18005:	48 89 85 80 f2 ff ff 	mov    %rax,-0xd80(%rbp)
   1800c:	48 8d 85 08 e4 ff ff 	lea    -0x1bf8(%rbp),%rax
   18013:	48 89 85 88 f2 ff ff 	mov    %rax,-0xd78(%rbp)
   1801a:	48 8d 85 b0 e7 ff ff 	lea    -0x1850(%rbp),%rax
   18021:	48 83 c0 28          	add    $0x28,%rax
   18025:	48 89 85 90 f2 ff ff 	mov    %rax,-0xd70(%rbp)
   1802c:	48 8d 85 b0 e7 ff ff 	lea    -0x1850(%rbp),%rax
   18033:	48 83 c0 08          	add    $0x8,%rax
   18037:	48 89 85 98 f2 ff ff 	mov    %rax,-0xd68(%rbp)
   1803e:	48 8d 85 08 e4 ff ff 	lea    -0x1bf8(%rbp),%rax
   18045:	48 89 85 a0 f2 ff ff 	mov    %rax,-0xd60(%rbp)
   1804c:	48 8d 05 5d 9d 00 00 	lea    0x9d5d(%rip),%rax        # 21db0 <g_954>
   18053:	48 89 85 a8 f2 ff ff 	mov    %rax,-0xd58(%rbp)
   1805a:	48 8d 05 4f 9d 00 00 	lea    0x9d4f(%rip),%rax        # 21db0 <g_954>
   18061:	48 89 85 b0 f2 ff ff 	mov    %rax,-0xd50(%rbp)
   18068:	48 8d 85 b0 e7 ff ff 	lea    -0x1850(%rbp),%rax
   1806f:	48 83 c0 28          	add    $0x28,%rax
   18073:	48 89 85 b8 f2 ff ff 	mov    %rax,-0xd48(%rbp)
   1807a:	48 8d 85 b0 e7 ff ff 	lea    -0x1850(%rbp),%rax
   18081:	48 83 c0 08          	add    $0x8,%rax
   18085:	48 89 85 c0 f2 ff ff 	mov    %rax,-0xd40(%rbp)
   1808c:	48 8d 05 1d 9d 00 00 	lea    0x9d1d(%rip),%rax        # 21db0 <g_954>
   18093:	48 89 85 c8 f2 ff ff 	mov    %rax,-0xd38(%rbp)
   1809a:	48 8d 05 0f 9d 00 00 	lea    0x9d0f(%rip),%rax        # 21db0 <g_954>
   180a1:	48 89 85 d0 f2 ff ff 	mov    %rax,-0xd30(%rbp)
   180a8:	48 8d 85 b0 e7 ff ff 	lea    -0x1850(%rbp),%rax
   180af:	48 83 c0 08          	add    $0x8,%rax
   180b3:	48 89 85 d8 f2 ff ff 	mov    %rax,-0xd28(%rbp)
   180ba:	48 8d 85 08 e4 ff ff 	lea    -0x1bf8(%rbp),%rax
   180c1:	48 89 85 e0 f2 ff ff 	mov    %rax,-0xd20(%rbp)
   180c8:	48 8d 85 b0 e7 ff ff 	lea    -0x1850(%rbp),%rax
   180cf:	48 83 c0 08          	add    $0x8,%rax
   180d3:	48 89 85 e8 f2 ff ff 	mov    %rax,-0xd18(%rbp)
   180da:	48 8d 85 b0 e7 ff ff 	lea    -0x1850(%rbp),%rax
   180e1:	48 83 c0 08          	add    $0x8,%rax
   180e5:	48 89 85 f0 f2 ff ff 	mov    %rax,-0xd10(%rbp)
   180ec:	48 8d 05 bd 9c 00 00 	lea    0x9cbd(%rip),%rax        # 21db0 <g_954>
   180f3:	48 89 85 f8 f2 ff ff 	mov    %rax,-0xd08(%rbp)
   180fa:	48 8d 05 af 9c 00 00 	lea    0x9caf(%rip),%rax        # 21db0 <g_954>
   18101:	48 89 85 00 f3 ff ff 	mov    %rax,-0xd00(%rbp)
   18108:	48 8d 85 b0 e7 ff ff 	lea    -0x1850(%rbp),%rax
   1810f:	48 83 c0 08          	add    $0x8,%rax
   18113:	48 89 85 08 f3 ff ff 	mov    %rax,-0xcf8(%rbp)
   1811a:	48 8d 85 b0 e7 ff ff 	lea    -0x1850(%rbp),%rax
   18121:	48 83 c0 08          	add    $0x8,%rax
   18125:	48 89 85 10 f3 ff ff 	mov    %rax,-0xcf0(%rbp)
   1812c:	48 c7 85 18 f3 ff ff 	movq   $0x0,-0xce8(%rbp)
   18133:	00 00 00 00 
   18137:	48 8d 85 08 e4 ff ff 	lea    -0x1bf8(%rbp),%rax
   1813e:	48 89 85 20 f3 ff ff 	mov    %rax,-0xce0(%rbp)
   18145:	48 8d 85 08 e4 ff ff 	lea    -0x1bf8(%rbp),%rax
   1814c:	48 89 85 28 f3 ff ff 	mov    %rax,-0xcd8(%rbp)
   18153:	48 8d 05 56 9c 00 00 	lea    0x9c56(%rip),%rax        # 21db0 <g_954>
   1815a:	48 89 85 30 f3 ff ff 	mov    %rax,-0xcd0(%rbp)
   18161:	48 c7 85 38 f3 ff ff 	movq   $0x0,-0xcc8(%rbp)
   18168:	00 00 00 00 
   1816c:	48 8d 85 08 e4 ff ff 	lea    -0x1bf8(%rbp),%rax
   18173:	48 89 85 40 f3 ff ff 	mov    %rax,-0xcc0(%rbp)
   1817a:	48 8d 85 b0 e7 ff ff 	lea    -0x1850(%rbp),%rax
   18181:	48 83 c0 08          	add    $0x8,%rax
   18185:	48 89 85 48 f3 ff ff 	mov    %rax,-0xcb8(%rbp)
   1818c:	48 8d 85 b0 e7 ff ff 	lea    -0x1850(%rbp),%rax
   18193:	48 83 c0 10          	add    $0x10,%rax
   18197:	48 89 85 50 f3 ff ff 	mov    %rax,-0xcb0(%rbp)
   1819e:	48 8d 05 0b 9c 00 00 	lea    0x9c0b(%rip),%rax        # 21db0 <g_954>
   181a5:	48 89 85 58 f3 ff ff 	mov    %rax,-0xca8(%rbp)
   181ac:	48 c7 85 60 f3 ff ff 	movq   $0x0,-0xca0(%rbp)
   181b3:	00 00 00 00 
   181b7:	48 8d 85 b0 e7 ff ff 	lea    -0x1850(%rbp),%rax
   181be:	48 83 c0 08          	add    $0x8,%rax
   181c2:	48 89 85 68 f3 ff ff 	mov    %rax,-0xc98(%rbp)
   181c9:	48 8d 85 b0 e7 ff ff 	lea    -0x1850(%rbp),%rax
   181d0:	48 83 c0 28          	add    $0x28,%rax
   181d4:	48 89 85 70 f3 ff ff 	mov    %rax,-0xc90(%rbp)
   181db:	48 8d 85 b0 e7 ff ff 	lea    -0x1850(%rbp),%rax
   181e2:	48 83 c0 08          	add    $0x8,%rax
   181e6:	48 89 85 78 f3 ff ff 	mov    %rax,-0xc88(%rbp)
   181ed:	48 8d 05 bc 9b 00 00 	lea    0x9bbc(%rip),%rax        # 21db0 <g_954>
   181f4:	48 89 85 80 f3 ff ff 	mov    %rax,-0xc80(%rbp)
   181fb:	48 8d 05 ae 9b 00 00 	lea    0x9bae(%rip),%rax        # 21db0 <g_954>
   18202:	48 89 85 88 f3 ff ff 	mov    %rax,-0xc78(%rbp)
   18209:	48 c7 85 90 f3 ff ff 	movq   $0x0,-0xc70(%rbp)
   18210:	00 00 00 00 
   18214:	48 8d 85 b0 e7 ff ff 	lea    -0x1850(%rbp),%rax
   1821b:	48 83 c0 28          	add    $0x28,%rax
   1821f:	48 89 85 98 f3 ff ff 	mov    %rax,-0xc68(%rbp)
   18226:	48 8d 85 b0 e7 ff ff 	lea    -0x1850(%rbp),%rax
   1822d:	48 83 c0 08          	add    $0x8,%rax
   18231:	48 89 85 a0 f3 ff ff 	mov    %rax,-0xc60(%rbp)
   18238:	48 8d 05 71 9b 00 00 	lea    0x9b71(%rip),%rax        # 21db0 <g_954>
   1823f:	48 89 85 a8 f3 ff ff 	mov    %rax,-0xc58(%rbp)
   18246:	48 8d 85 b0 e7 ff ff 	lea    -0x1850(%rbp),%rax
   1824d:	48 83 c0 08          	add    $0x8,%rax
   18251:	48 89 85 b0 f3 ff ff 	mov    %rax,-0xc50(%rbp)
   18258:	48 8d 85 b0 e7 ff ff 	lea    -0x1850(%rbp),%rax
   1825f:	48 83 c0 08          	add    $0x8,%rax
   18263:	48 89 85 b8 f3 ff ff 	mov    %rax,-0xc48(%rbp)
   1826a:	48 8d 85 08 e4 ff ff 	lea    -0x1bf8(%rbp),%rax
   18271:	48 89 85 c0 f3 ff ff 	mov    %rax,-0xc40(%rbp)
   18278:	48 8d 85 08 e4 ff ff 	lea    -0x1bf8(%rbp),%rax
   1827f:	48 89 85 c8 f3 ff ff 	mov    %rax,-0xc38(%rbp)
   18286:	48 8d 85 b0 e7 ff ff 	lea    -0x1850(%rbp),%rax
   1828d:	48 83 c0 08          	add    $0x8,%rax
   18291:	48 89 85 d0 f3 ff ff 	mov    %rax,-0xc30(%rbp)
   18298:	48 8d 85 b0 e7 ff ff 	lea    -0x1850(%rbp),%rax
   1829f:	48 83 c0 08          	add    $0x8,%rax
   182a3:	48 89 85 d8 f3 ff ff 	mov    %rax,-0xc28(%rbp)
   182aa:	48 8d 85 b0 e7 ff ff 	lea    -0x1850(%rbp),%rax
   182b1:	48 83 c0 08          	add    $0x8,%rax
   182b5:	48 89 85 e0 f3 ff ff 	mov    %rax,-0xc20(%rbp)
   182bc:	48 8d 85 b0 e7 ff ff 	lea    -0x1850(%rbp),%rax
   182c3:	48 83 c0 08          	add    $0x8,%rax
   182c7:	48 89 85 e8 f3 ff ff 	mov    %rax,-0xc18(%rbp)
   182ce:	48 8d 85 b0 e7 ff ff 	lea    -0x1850(%rbp),%rax
   182d5:	48 83 c0 08          	add    $0x8,%rax
   182d9:	48 89 85 f0 f3 ff ff 	mov    %rax,-0xc10(%rbp)
   182e0:	48 8d 05 c9 9a 00 00 	lea    0x9ac9(%rip),%rax        # 21db0 <g_954>
   182e7:	48 89 85 f8 f3 ff ff 	mov    %rax,-0xc08(%rbp)
   182ee:	48 8d 85 b0 e7 ff ff 	lea    -0x1850(%rbp),%rax
   182f5:	48 83 c0 08          	add    $0x8,%rax
   182f9:	48 89 85 00 f4 ff ff 	mov    %rax,-0xc00(%rbp)
   18300:	48 8d 05 a9 9a 00 00 	lea    0x9aa9(%rip),%rax        # 21db0 <g_954>
   18307:	48 89 85 08 f4 ff ff 	mov    %rax,-0xbf8(%rbp)
   1830e:	48 8d 05 9b 9a 00 00 	lea    0x9a9b(%rip),%rax        # 21db0 <g_954>
   18315:	48 89 85 10 f4 ff ff 	mov    %rax,-0xbf0(%rbp)
   1831c:	48 8d 05 8d 9a 00 00 	lea    0x9a8d(%rip),%rax        # 21db0 <g_954>
   18323:	48 89 85 18 f4 ff ff 	mov    %rax,-0xbe8(%rbp)
   1832a:	48 8d 05 e7 6d 00 00 	lea    0x6de7(%rip),%rax        # 1f118 <g_675+0x8>
   18331:	48 89 85 30 e6 ff ff 	mov    %rax,-0x19d0(%rbp)
   18338:	8b 05 56 39 00 00    	mov    0x3956(%rip),%eax        # 1bc94 <l_1348.5281+0x34>
   1833e:	0f b7 d8             	movzwl %ax,%ebx
   18341:	44 8b 2d 70 6d 00 00 	mov    0x6d70(%rip),%r13d        # 1f0b8 <g_240+0x18>
   18348:	8b 85 94 e2 ff ff    	mov    -0x1d6c(%rbp),%eax
   1834e:	85 c0                	test   %eax,%eax
   18350:	75 64                	jne    183b6 <func_57+0x8b26>
   18352:	44 0f b6 a5 b0 e2 ff 	movzbl -0x1d50(%rbp),%r12d
   18359:	ff 
   1835a:	8b 85 94 e2 ff ff    	mov    -0x1d6c(%rbp),%eax
   18360:	89 c1                	mov    %eax,%ecx
   18362:	48 8b 05 07 9a 00 00 	mov    0x9a07(%rip),%rax        # 21d70 <g_821>
   18369:	48 8b 10             	mov    (%rax),%rdx
   1836c:	48 8b 85 80 e2 ff ff 	mov    -0x1d80(%rbp),%rax
   18373:	48 39 c2             	cmp    %rax,%rdx
   18376:	0f 95 c0             	setne  %al
   18379:	0f b6 c0             	movzbl %al,%eax
   1837c:	89 ce                	mov    %ecx,%esi
   1837e:	89 c7                	mov    %eax,%edi
   18380:	e8 69 0f ff ff       	callq  92ee <safe_lshift_func_int8_t_s_u>
   18385:	84 c0                	test   %al,%al
   18387:	75 07                	jne    18390 <func_57+0x8b00>
   18389:	83 bd 90 e2 ff ff 00 	cmpl   $0x0,-0x1d70(%rbp)
   18390:	be 45 00 00 00       	mov    $0x45,%esi
   18395:	bf 00 00 00 00       	mov    $0x0,%edi
   1839a:	e8 f4 17 ff ff       	callq  9b93 <safe_mul_func_uint8_t_u_u>
   1839f:	0f b6 c0             	movzbl %al,%eax
   183a2:	89 c7                	mov    %eax,%edi
   183a4:	e8 ed 11 ff ff       	callq  9596 <safe_unary_minus_func_int32_t_s>
   183a9:	0f b6 c0             	movzbl %al,%eax
   183ac:	44 89 e6             	mov    %r12d,%esi
   183af:	89 c7                	mov    %eax,%edi
   183b1:	e8 25 18 ff ff       	callq  9bdb <safe_div_func_uint8_t_u_u>
   183b6:	ba 01 00 00 00       	mov    $0x1,%edx
   183bb:	0f b7 85 ca e2 ff ff 	movzwl -0x1d36(%rbp),%eax
   183c2:	39 c2                	cmp    %eax,%edx
   183c4:	0f 9d c0             	setge  %al
   183c7:	0f b6 c0             	movzbl %al,%eax
   183ca:	41 39 c5             	cmp    %eax,%r13d
   183cd:	0f 9c c0             	setl   %al
   183d0:	0f b6 c0             	movzbl %al,%eax
   183d3:	89 de                	mov    %ebx,%esi
   183d5:	89 c7                	mov    %eax,%edi
   183d7:	e8 61 19 ff ff       	callq  9d3d <safe_mul_func_uint16_t_u_u>
   183dc:	48 8b 85 88 e2 ff ff 	mov    -0x1d78(%rbp),%rax
   183e3:	48 89 85 28 e6 ff ff 	mov    %rax,-0x19d8(%rbp)
   183ea:	48 8b 85 28 e6 ff ff 	mov    -0x19d8(%rbp),%rax
   183f1:	48 89 85 c0 e7 ff ff 	mov    %rax,-0x1840(%rbp)
   183f8:	48 8b 95 c0 e7 ff ff 	mov    -0x1840(%rbp),%rdx
   183ff:	48 8b 85 88 e2 ff ff 	mov    -0x1d78(%rbp),%rax
   18406:	48 39 c2             	cmp    %rax,%rdx
   18409:	0f 95 c0             	setne  %al
   1840c:	0f b6 d0             	movzbl %al,%edx
   1840f:	8b 85 94 e2 ff ff    	mov    -0x1d6c(%rbp),%eax
   18415:	39 c2                	cmp    %eax,%edx
   18417:	74 08                	je     18421 <func_57+0x8b91>
   18419:	48 83 bd 20 e6 ff ff 	cmpq   $0x0,-0x19e0(%rbp)
   18420:	00 
   18421:	c7 85 94 e2 ff ff 01 	movl   $0x1,-0x1d6c(%rbp)
   18428:	00 00 00 
   1842b:	48 8b 85 98 e2 ff ff 	mov    -0x1d68(%rbp),%rax
   18432:	48 8b 10             	mov    (%rax),%rdx
   18435:	48 8b 85 98 e2 ff ff 	mov    -0x1d68(%rbp),%rax
   1843c:	48 8b 00             	mov    (%rax),%rax
   1843f:	48 89 d6             	mov    %rdx,%rsi
   18442:	48 89 c7             	mov    %rax,%rdi
   18445:	e8 01 1c ff ff       	callq  a04b <safe_sub_func_uint64_t_u_u>
   1844a:	89 85 94 e2 ff ff    	mov    %eax,-0x1d6c(%rbp)
   18450:	c7 85 94 e2 ff ff 09 	movl   $0x9,-0x1d6c(%rbp)
   18457:	00 00 00 
   1845a:	83 85 d4 e2 ff ff 01 	addl   $0x1,-0x1d2c(%rbp)
   18461:	83 bd d4 e2 ff ff 38 	cmpl   $0x38,-0x1d2c(%rbp)
   18468:	0f 87 98 ce ff ff    	ja     15306 <func_57+0x5a76>
   1846e:	48 8d 05 9d 6c 00 00 	lea    0x6c9d(%rip),%rax        # 1f112 <g_675+0x2>
   18475:	48 8b 5d c8          	mov    -0x38(%rbp),%rbx
   18479:	64 48 33 1c 25 28 00 	xor    %fs:0x28,%rbx
   18480:	00 00 
   18482:	74 05                	je     18489 <func_57+0x8bf9>
   18484:	e8 e7 0b ff ff       	callq  9070 <__stack_chk_fail@plt>
   18489:	48 81 c4 68 1d 00 00 	add    $0x1d68,%rsp
   18490:	5b                   	pop    %rbx
   18491:	41 5c                	pop    %r12
   18493:	41 5d                	pop    %r13
   18495:	41 5e                	pop    %r14
   18497:	41 5f                	pop    %r15
   18499:	5d                   	pop    %rbp
   1849a:	c3                   	retq   

000000000001849b <func_63>:
   1849b:	f3 0f 1e fa          	endbr64 
   1849f:	55                   	push   %rbp
   184a0:	48 89 e5             	mov    %rsp,%rbp
   184a3:	48 89 7d f8          	mov    %rdi,-0x8(%rbp)
   184a7:	c6 05 b2 6b 00 00 00 	movb   $0x0,0x6bb2(%rip)        # 1f060 <g_56>
   184ae:	90                   	nop
   184af:	0f b6 05 aa 6b 00 00 	movzbl 0x6baa(%rip),%eax        # 1f060 <g_56>
   184b6:	3c 29                	cmp    $0x29,%al
   184b8:	76 09                	jbe    184c3 <func_63+0x28>
   184ba:	48 8d 05 67 6b 00 00 	lea    0x6b67(%rip),%rax        # 1f028 <g_35>
   184c1:	eb 07                	jmp    184ca <func_63+0x2f>
   184c3:	48 8d 05 5e 6b 00 00 	lea    0x6b5e(%rip),%rax        # 1f028 <g_35>
   184ca:	5d                   	pop    %rbp
   184cb:	c3                   	retq   

00000000000184cc <func_75>:
   184cc:	f3 0f 1e fa          	endbr64 
   184d0:	55                   	push   %rbp
   184d1:	48 89 e5             	mov    %rsp,%rbp
   184d4:	48 81 ec c0 00 00 00 	sub    $0xc0,%rsp
   184db:	89 bd 5c ff ff ff    	mov    %edi,-0xa4(%rbp)
   184e1:	89 f0                	mov    %esi,%eax
   184e3:	48 89 95 50 ff ff ff 	mov    %rdx,-0xb0(%rbp)
   184ea:	89 8d 4c ff ff ff    	mov    %ecx,-0xb4(%rbp)
   184f0:	88 85 58 ff ff ff    	mov    %al,-0xa8(%rbp)
   184f6:	64 48 8b 04 25 28 00 	mov    %fs:0x28,%rax
   184fd:	00 00 
   184ff:	48 89 45 f8          	mov    %rax,-0x8(%rbp)
   18503:	31 c0                	xor    %eax,%eax
   18505:	48 c7 85 68 ff ff ff 	movq   $0x0,-0x98(%rbp)
   1850c:	00 00 00 00 
   18510:	48 8d 05 55 6b 00 00 	lea    0x6b55(%rip),%rax        # 1f06c <g_98>
   18517:	48 89 85 70 ff ff ff 	mov    %rax,-0x90(%rbp)
   1851e:	48 8d 05 47 6b 00 00 	lea    0x6b47(%rip),%rax        # 1f06c <g_98>
   18525:	48 89 85 78 ff ff ff 	mov    %rax,-0x88(%rbp)
   1852c:	48 8d 05 39 6b 00 00 	lea    0x6b39(%rip),%rax        # 1f06c <g_98>
   18533:	48 89 45 80          	mov    %rax,-0x80(%rbp)
   18537:	48 8d 05 2e 6b 00 00 	lea    0x6b2e(%rip),%rax        # 1f06c <g_98>
   1853e:	48 89 45 88          	mov    %rax,-0x78(%rbp)
   18542:	48 8d 05 23 6b 00 00 	lea    0x6b23(%rip),%rax        # 1f06c <g_98>
   18549:	48 89 45 90          	mov    %rax,-0x70(%rbp)
   1854d:	48 8d 05 18 6b 00 00 	lea    0x6b18(%rip),%rax        # 1f06c <g_98>
   18554:	48 89 45 98          	mov    %rax,-0x68(%rbp)
   18558:	48 8d 05 0d 6b 00 00 	lea    0x6b0d(%rip),%rax        # 1f06c <g_98>
   1855f:	48 89 45 a0          	mov    %rax,-0x60(%rbp)
   18563:	48 8d 05 02 6b 00 00 	lea    0x6b02(%rip),%rax        # 1f06c <g_98>
   1856a:	48 89 45 a8          	mov    %rax,-0x58(%rbp)
   1856e:	48 8d 05 f7 6a 00 00 	lea    0x6af7(%rip),%rax        # 1f06c <g_98>
   18575:	48 89 45 b0          	mov    %rax,-0x50(%rbp)
   18579:	48 8d 05 ec 6a 00 00 	lea    0x6aec(%rip),%rax        # 1f06c <g_98>
   18580:	48 89 45 b8          	mov    %rax,-0x48(%rbp)
   18584:	48 8d 05 e1 6a 00 00 	lea    0x6ae1(%rip),%rax        # 1f06c <g_98>
   1858b:	48 89 45 c0          	mov    %rax,-0x40(%rbp)
   1858f:	48 8d 05 d6 6a 00 00 	lea    0x6ad6(%rip),%rax        # 1f06c <g_98>
   18596:	48 89 45 c8          	mov    %rax,-0x38(%rbp)
   1859a:	48 8d 05 cb 6a 00 00 	lea    0x6acb(%rip),%rax        # 1f06c <g_98>
   185a1:	48 89 45 d0          	mov    %rax,-0x30(%rbp)
   185a5:	48 8d 05 c0 6a 00 00 	lea    0x6ac0(%rip),%rax        # 1f06c <g_98>
   185ac:	48 89 45 d8          	mov    %rax,-0x28(%rbp)
   185b0:	48 8d 05 b5 6a 00 00 	lea    0x6ab5(%rip),%rax        # 1f06c <g_98>
   185b7:	48 89 45 e0          	mov    %rax,-0x20(%rbp)
   185bb:	48 8d 05 aa 6a 00 00 	lea    0x6aaa(%rip),%rax        # 1f06c <g_98>
   185c2:	48 89 45 e8          	mov    %rax,-0x18(%rbp)
   185c6:	c7 85 64 ff ff ff aa 	movl   $0x645ebeaa,-0x9c(%rbp)
   185cd:	be 5e 64 
   185d0:	8b 85 64 ff ff ff    	mov    -0x9c(%rbp),%eax
   185d6:	33 85 4c ff ff ff    	xor    -0xb4(%rbp),%eax
   185dc:	89 85 64 ff ff ff    	mov    %eax,-0x9c(%rbp)
   185e2:	83 bd 64 ff ff ff 01 	cmpl   $0x1,-0x9c(%rbp)
   185e9:	0f 95 c0             	setne  %al
   185ec:	0f b6 c8             	movzbl %al,%ecx
   185ef:	48 8b 05 0a 91 00 00 	mov    0x910a(%rip),%rax        # 21700 <g_113>
   185f6:	8b 10                	mov    (%rax),%edx
   185f8:	31 ca                	xor    %ecx,%edx
   185fa:	89 10                	mov    %edx,(%rax)
   185fc:	8b 05 62 6a 00 00    	mov    0x6a62(%rip),%eax        # 1f064 <g_88>
   18602:	48 98                	cltq   
   18604:	48 8b 75 f8          	mov    -0x8(%rbp),%rsi
   18608:	64 48 33 34 25 28 00 	xor    %fs:0x28,%rsi
   1860f:	00 00 
   18611:	74 05                	je     18618 <func_75+0x14c>
   18613:	e8 58 0a ff ff       	callq  9070 <__stack_chk_fail@plt>
   18618:	c9                   	leaveq 
   18619:	c3                   	retq   

000000000001861a <func_120>:
   1861a:	f3 0f 1e fa          	endbr64 
   1861e:	55                   	push   %rbp
   1861f:	48 89 e5             	mov    %rsp,%rbp
   18622:	41 57                	push   %r15
   18624:	41 56                	push   %r14
   18626:	41 55                	push   %r13
   18628:	41 54                	push   %r12
   1862a:	53                   	push   %rbx
   1862b:	48 81 ec a8 00 00 00 	sub    $0xa8,%rsp
   18632:	48 89 bd 38 ff ff ff 	mov    %rdi,-0xc8(%rbp)
   18639:	64 48 8b 04 25 28 00 	mov    %fs:0x28,%rax
   18640:	00 00 
   18642:	48 89 45 c8          	mov    %rax,-0x38(%rbp)
   18646:	31 c0                	xor    %eax,%eax
   18648:	48 8d 05 f9 69 00 00 	lea    0x69f9(%rip),%rax        # 1f048 <g_43+0x8>
   1864f:	48 89 85 50 ff ff ff 	mov    %rax,-0xb0(%rbp)
   18656:	48 8d 05 1d 6a 00 00 	lea    0x6a1d(%rip),%rax        # 1f07a <g_159>
   1865d:	48 89 85 58 ff ff ff 	mov    %rax,-0xa8(%rbp)
   18664:	48 8d 05 01 6a 00 00 	lea    0x6a01(%rip),%rax        # 1f06c <g_98>
   1866b:	48 89 85 60 ff ff ff 	mov    %rax,-0xa0(%rbp)
   18672:	48 8d 05 05 6a 00 00 	lea    0x6a05(%rip),%rax        # 1f07e <g_234>
   18679:	48 89 85 68 ff ff ff 	mov    %rax,-0x98(%rbp)
   18680:	48 8d 05 d9 69 00 00 	lea    0x69d9(%rip),%rax        # 1f060 <g_56>
   18687:	48 89 85 70 ff ff ff 	mov    %rax,-0x90(%rbp)
   1868e:	48 8d 05 eb 69 00 00 	lea    0x69eb(%rip),%rax        # 1f080 <g_237>
   18695:	48 89 85 78 ff ff ff 	mov    %rax,-0x88(%rbp)
   1869c:	48 8d 05 15 6a 00 00 	lea    0x6a15(%rip),%rax        # 1f0b8 <g_240+0x18>
   186a3:	48 89 45 80          	mov    %rax,-0x80(%rbp)
   186a7:	48 8d 05 0a 6a 00 00 	lea    0x6a0a(%rip),%rax        # 1f0b8 <g_240+0x18>
   186ae:	48 89 45 88          	mov    %rax,-0x78(%rbp)
   186b2:	48 c7 45 90 00 00 00 	movq   $0x0,-0x70(%rbp)
   186b9:	00 
   186ba:	48 8d 05 f7 69 00 00 	lea    0x69f7(%rip),%rax        # 1f0b8 <g_240+0x18>
   186c1:	48 89 45 98          	mov    %rax,-0x68(%rbp)
   186c5:	48 8d 05 ec 69 00 00 	lea    0x69ec(%rip),%rax        # 1f0b8 <g_240+0x18>
   186cc:	48 89 45 a0          	mov    %rax,-0x60(%rbp)
   186d0:	48 c7 45 a8 00 00 00 	movq   $0x0,-0x58(%rbp)
   186d7:	00 
   186d8:	48 8d 05 d9 69 00 00 	lea    0x69d9(%rip),%rax        # 1f0b8 <g_240+0x18>
   186df:	48 89 45 b0          	mov    %rax,-0x50(%rbp)
   186e3:	48 8d 05 ce 69 00 00 	lea    0x69ce(%rip),%rax        # 1f0b8 <g_240+0x18>
   186ea:	48 89 45 b8          	mov    %rax,-0x48(%rbp)
   186ee:	48 c7 45 c0 00 00 00 	movq   $0x0,-0x40(%rbp)
   186f5:	00 
   186f6:	66 c7 85 4e ff ff ff 	movw   $0x0,-0xb2(%rbp)
   186fd:	00 00 
   186ff:	48 8d 15 8a a5 00 00 	lea    0xa58a(%rip),%rdx        # 22c90 <g_66>
   18706:	48 8b 85 50 ff ff ff 	mov    -0xb0(%rbp),%rax
   1870d:	48 89 02             	mov    %rax,(%rdx)
   18710:	48 8b 85 50 ff ff ff 	mov    -0xb0(%rbp),%rax
   18717:	48 89 85 50 ff ff ff 	mov    %rax,-0xb0(%rbp)
   1871e:	48 8d 15 6b a5 00 00 	lea    0xa56b(%rip),%rdx        # 22c90 <g_66>
   18725:	48 8b 85 50 ff ff ff 	mov    -0xb0(%rbp),%rax
   1872c:	48 89 02             	mov    %rax,(%rdx)
   1872f:	48 8b 85 50 ff ff ff 	mov    -0xb0(%rbp),%rax
   18736:	44 8b 30             	mov    (%rax),%r14d
   18739:	48 8b 85 50 ff ff ff 	mov    -0xb0(%rbp),%rax
   18740:	8b 00                	mov    (%rax),%eax
   18742:	0f bf d8             	movswl %ax,%ebx
   18745:	48 8b 85 50 ff ff ff 	mov    -0xb0(%rbp),%rax
   1874c:	8b 00                	mov    (%rax),%eax
   1874e:	44 0f b6 e0          	movzbl %al,%r12d
   18752:	48 8b 85 50 ff ff ff 	mov    -0xb0(%rbp),%rax
   18759:	44 8b 28             	mov    (%rax),%r13d
   1875c:	48 8b 85 58 ff ff ff 	mov    -0xa8(%rbp),%rax
   18763:	0f b7 00             	movzwl (%rax),%eax
   18766:	8d 48 01             	lea    0x1(%rax),%ecx
   18769:	48 8b 95 58 ff ff ff 	mov    -0xa8(%rbp),%rdx
   18770:	66 89 0a             	mov    %cx,(%rdx)
   18773:	41 89 c7             	mov    %eax,%r15d
   18776:	48 8b 85 50 ff ff ff 	mov    -0xb0(%rbp),%rax
   1877d:	8b 00                	mov    (%rax),%eax
   1877f:	48 98                	cltq   
   18781:	48 89 c6             	mov    %rax,%rsi
   18784:	bf 01 00 00 00       	mov    $0x1,%edi
   18789:	e8 69 12 ff ff       	callq  99f7 <safe_div_func_int64_t_s_s>
   1878e:	89 c1                	mov    %eax,%ecx
   18790:	48 8b 85 58 ff ff ff 	mov    -0xa8(%rbp),%rax
   18797:	48 89 85 68 ff ff ff 	mov    %rax,-0x98(%rbp)
   1879e:	48 8b 85 68 ff ff ff 	mov    -0x98(%rbp),%rax
   187a5:	48 3b 85 58 ff ff ff 	cmp    -0xa8(%rbp),%rax
   187ac:	0f 95 c0             	setne  %al
   187af:	0f b6 d0             	movzbl %al,%edx
   187b2:	48 8b 85 50 ff ff ff 	mov    -0xb0(%rbp),%rax
   187b9:	8b 00                	mov    (%rax),%eax
   187bb:	09 d0                	or     %edx,%eax
   187bd:	21 c8                	and    %ecx,%eax
   187bf:	0f b7 c0             	movzwl %ax,%eax
   187c2:	89 c6                	mov    %eax,%esi
   187c4:	bf 01 00 00 00       	mov    $0x1,%edi
   187c9:	e8 6f 15 ff ff       	callq  9d3d <safe_mul_func_uint16_t_u_u>
   187ce:	48 8b 85 50 ff ff ff 	mov    -0xb0(%rbp),%rax
   187d5:	8b 00                	mov    (%rax),%eax
   187d7:	89 c2                	mov    %eax,%edx
   187d9:	48 8b 85 60 ff ff ff 	mov    -0xa0(%rbp),%rax
   187e0:	89 10                	mov    %edx,(%rax)
   187e2:	48 8b 85 60 ff ff ff 	mov    -0xa0(%rbp),%rax
   187e9:	8b 00                	mov    (%rax),%eax
   187eb:	be 01 00 00 00       	mov    $0x1,%esi
   187f0:	89 c7                	mov    %eax,%edi
   187f2:	e8 c1 16 ff ff       	callq  9eb8 <safe_add_func_uint32_t_u_u>
   187f7:	44 21 f8             	and    %r15d,%eax
   187fa:	0f b6 c0             	movzbl %al,%eax
   187fd:	be 04 00 00 00       	mov    $0x4,%esi
   18802:	89 c7                	mov    %eax,%edi
   18804:	e8 b5 14 ff ff       	callq  9cbe <safe_rshift_func_uint8_t_u_u>
   18809:	44 89 ee             	mov    %r13d,%esi
   1880c:	bf 01 00 00 00       	mov    $0x1,%edi
   18811:	e8 ef 0d ff ff       	callq  9605 <safe_sub_func_int32_t_s_s>
   18816:	0f b6 c0             	movzbl %al,%eax
   18819:	44 89 e6             	mov    %r12d,%esi
   1881c:	89 c7                	mov    %eax,%edi
   1881e:	e8 37 13 ff ff       	callq  9b5a <safe_add_func_uint8_t_u_u>
   18823:	be 59 00 00 00       	mov    $0x59,%esi
   18828:	bf 00 00 00 00       	mov    $0x0,%edi
   1882d:	e8 e0 09 ff ff       	callq  9212 <safe_mul_func_int8_t_s_s>
   18832:	0f be d0             	movsbl %al,%edx
   18835:	48 8b 85 50 ff ff ff 	mov    -0xb0(%rbp),%rax
   1883c:	8b 00                	mov    (%rax),%eax
   1883e:	39 c2                	cmp    %eax,%edx
   18840:	0f 9d c0             	setge  %al
   18843:	89 c2                	mov    %eax,%edx
   18845:	48 8b 85 70 ff ff ff 	mov    -0x90(%rbp),%rax
   1884c:	88 10                	mov    %dl,(%rax)
   1884e:	48 8b 85 70 ff ff ff 	mov    -0x90(%rbp),%rax
   18855:	0f b6 00             	movzbl (%rax),%eax
   18858:	0f b6 c0             	movzbl %al,%eax
   1885b:	be 01 00 00 00       	mov    $0x1,%esi
   18860:	89 c7                	mov    %eax,%edi
   18862:	e8 2c 13 ff ff       	callq  9b93 <safe_mul_func_uint8_t_u_u>
   18867:	89 de                	mov    %ebx,%esi
   18869:	bf 01 00 00 00       	mov    $0x1,%edi
   1886e:	e8 82 0b ff ff       	callq  93f5 <safe_mul_func_int16_t_s_s>
   18873:	98                   	cwtl   
   18874:	41 39 c6             	cmp    %eax,%r14d
   18877:	48 83 bd 70 ff ff ff 	cmpq   $0x0,-0x90(%rbp)
   1887e:	00 
   1887f:	0f 95 c0             	setne  %al
   18882:	0f b6 d0             	movzbl %al,%edx
   18885:	48 8b 85 78 ff ff ff 	mov    -0x88(%rbp),%rax
   1888c:	8b 00                	mov    (%rax),%eax
   1888e:	21 c2                	and    %eax,%edx
   18890:	48 8b 85 78 ff ff ff 	mov    -0x88(%rbp),%rax
   18897:	89 10                	mov    %edx,(%rax)
   18899:	48 8b 85 78 ff ff ff 	mov    -0x88(%rbp),%rax
   188a0:	8b 00                	mov    (%rax),%eax
   188a2:	89 05 dc 67 00 00    	mov    %eax,0x67dc(%rip)        # 1f084 <g_238>
   188a8:	ba 00 00 00 00       	mov    $0x0,%edx
   188ad:	8b 05 05 68 00 00    	mov    0x6805(%rip),%eax        # 1f0b8 <g_240+0x18>
   188b3:	09 d0                	or     %edx,%eax
   188b5:	89 05 fd 67 00 00    	mov    %eax,0x67fd(%rip)        # 1f0b8 <g_240+0x18>
   188bb:	0f b7 85 4e ff ff ff 	movzwl -0xb2(%rbp),%eax
   188c2:	48 8b 5d c8          	mov    -0x38(%rbp),%rbx
   188c6:	64 48 33 1c 25 28 00 	xor    %fs:0x28,%rbx
   188cd:	00 00 
   188cf:	74 05                	je     188d6 <func_120+0x2bc>
   188d1:	e8 9a 07 ff ff       	callq  9070 <__stack_chk_fail@plt>
   188d6:	48 81 c4 a8 00 00 00 	add    $0xa8,%rsp
   188dd:	5b                   	pop    %rbx
   188de:	41 5c                	pop    %r12
   188e0:	41 5d                	pop    %r13
   188e2:	41 5e                	pop    %r14
   188e4:	41 5f                	pop    %r15
   188e6:	5d                   	pop    %rbp
   188e7:	c3                   	retq   

00000000000188e8 <func_122>:
   188e8:	f3 0f 1e fa          	endbr64 
   188ec:	55                   	push   %rbp
   188ed:	48 89 e5             	mov    %rsp,%rbp
   188f0:	41 54                	push   %r12
   188f2:	53                   	push   %rbx
   188f3:	48 81 ec 80 02 00 00 	sub    $0x280,%rsp
   188fa:	48 89 bd 88 fd ff ff 	mov    %rdi,-0x278(%rbp)
   18901:	48 89 95 78 fd ff ff 	mov    %rdx,-0x288(%rbp)
   18908:	89 c8                	mov    %ecx,%eax
   1890a:	4c 89 85 70 fd ff ff 	mov    %r8,-0x290(%rbp)
   18911:	89 f2                	mov    %esi,%edx
   18913:	88 95 84 fd ff ff    	mov    %dl,-0x27c(%rbp)
   18919:	66 89 85 80 fd ff ff 	mov    %ax,-0x280(%rbp)
   18920:	64 48 8b 04 25 28 00 	mov    %fs:0x28,%rax
   18927:	00 00 
   18929:	48 89 45 e8          	mov    %rax,-0x18(%rbp)
   1892d:	31 c0                	xor    %eax,%eax
   1892f:	c6 85 9c fd ff ff a9 	movb   $0xa9,-0x264(%rbp)
   18936:	c6 85 9d fd ff ff 8c 	movb   $0x8c,-0x263(%rbp)
   1893d:	c7 85 a4 fd ff ff fa 	movl   $0xfffffffa,-0x25c(%rbp)
   18944:	ff ff ff 
   18947:	c7 85 90 fe ff ff 00 	movl   $0x0,-0x170(%rbp)
   1894e:	00 00 00 
   18951:	c7 85 94 fe ff ff 00 	movl   $0x0,-0x16c(%rbp)
   18958:	00 00 00 
   1895b:	c7 85 98 fe ff ff 01 	movl   $0x1,-0x168(%rbp)
   18962:	00 00 00 
   18965:	c7 85 9c fe ff ff 00 	movl   $0x0,-0x164(%rbp)
   1896c:	00 00 00 
   1896f:	c7 85 a0 fe ff ff 00 	movl   $0x0,-0x160(%rbp)
   18976:	00 00 00 
   18979:	c7 85 a4 fe ff ff 00 	movl   $0x0,-0x15c(%rbp)
   18980:	00 00 00 
   18983:	c7 85 a8 fe ff ff 00 	movl   $0x0,-0x158(%rbp)
   1898a:	00 00 00 
   1898d:	c7 85 ac fe ff ff 00 	movl   $0x0,-0x154(%rbp)
   18994:	00 00 00 
   18997:	c7 85 b0 fe ff ff 6b 	movl   $0x48530e6b,-0x150(%rbp)
   1899e:	0e 53 48 
   189a1:	c7 85 b4 fe ff ff 00 	movl   $0x0,-0x14c(%rbp)
   189a8:	00 00 00 
   189ab:	c7 85 b8 fe ff ff 8e 	movl   $0xf174fa8e,-0x148(%rbp)
   189b2:	fa 74 f1 
   189b5:	c7 85 bc fe ff ff 8e 	movl   $0xf174fa8e,-0x144(%rbp)
   189bc:	fa 74 f1 
   189bf:	c7 85 c0 fe ff ff 00 	movl   $0x0,-0x140(%rbp)
   189c6:	00 00 00 
   189c9:	c7 85 c4 fe ff ff 6b 	movl   $0x48530e6b,-0x13c(%rbp)
   189d0:	0e 53 48 
   189d3:	c7 85 c8 fe ff ff 00 	movl   $0x0,-0x138(%rbp)
   189da:	00 00 00 
   189dd:	c7 85 cc fe ff ff 26 	movl   $0x7dcf5926,-0x134(%rbp)
   189e4:	59 cf 7d 
   189e7:	c7 85 d0 fe ff ff 01 	movl   $0x1,-0x130(%rbp)
   189ee:	00 00 00 
   189f1:	c7 85 d4 fe ff ff 01 	movl   $0x1,-0x12c(%rbp)
   189f8:	00 00 00 
   189fb:	c7 85 d8 fe ff ff 26 	movl   $0x7dcf5926,-0x128(%rbp)
   18a02:	59 cf 7d 
   18a05:	c7 85 dc fe ff ff 00 	movl   $0x0,-0x124(%rbp)
   18a0c:	00 00 00 
   18a0f:	c7 85 e0 fe ff ff 26 	movl   $0x7dcf5926,-0x120(%rbp)
   18a16:	59 cf 7d 
   18a19:	c7 85 e4 fe ff ff 00 	movl   $0x0,-0x11c(%rbp)
   18a20:	00 00 00 
   18a23:	c7 85 e8 fe ff ff 8e 	movl   $0xf174fa8e,-0x118(%rbp)
   18a2a:	fa 74 f1 
   18a2d:	c7 85 ec fe ff ff 8e 	movl   $0xf174fa8e,-0x114(%rbp)
   18a34:	fa 74 f1 
   18a37:	c7 85 f0 fe ff ff 00 	movl   $0x0,-0x110(%rbp)
   18a3e:	00 00 00 
   18a41:	c7 85 f4 fe ff ff 6b 	movl   $0x48530e6b,-0x10c(%rbp)
   18a48:	0e 53 48 
   18a4b:	c7 85 f8 fe ff ff 00 	movl   $0x0,-0x108(%rbp)
   18a52:	00 00 00 
   18a55:	c7 85 fc fe ff ff 8e 	movl   $0xf174fa8e,-0x104(%rbp)
   18a5c:	fa 74 f1 
   18a5f:	c7 85 f0 fd ff ff d5 	movl   $0x6e8acdd5,-0x210(%rbp)
   18a66:	cd 8a 6e 
   18a69:	c7 85 f4 fd ff ff 09 	movl   $0x9,-0x20c(%rbp)
   18a70:	00 00 00 
   18a73:	c7 85 f8 fd ff ff d5 	movl   $0x6e8acdd5,-0x208(%rbp)
   18a7a:	cd 8a 6e 
   18a7d:	c7 85 fc fd ff ff 09 	movl   $0x9,-0x204(%rbp)
   18a84:	00 00 00 
   18a87:	c7 85 00 fe ff ff d5 	movl   $0x6e8acdd5,-0x200(%rbp)
   18a8e:	cd 8a 6e 
   18a91:	c7 85 04 fe ff ff 09 	movl   $0x9,-0x1fc(%rbp)
   18a98:	00 00 00 
   18a9b:	c7 85 08 fe ff ff d5 	movl   $0x6e8acdd5,-0x1f8(%rbp)
   18aa2:	cd 8a 6e 
   18aa5:	c7 85 0c fe ff ff 09 	movl   $0x9,-0x1f4(%rbp)
   18aac:	00 00 00 
   18aaf:	66 c7 85 10 fe ff ff 	movw   $0x1,-0x1f0(%rbp)
   18ab6:	01 00 
   18ab8:	66 c7 85 12 fe ff ff 	movw   $0x1,-0x1ee(%rbp)
   18abf:	01 00 
   18ac1:	66 c7 85 14 fe ff ff 	movw   $0x1,-0x1ec(%rbp)
   18ac8:	01 00 
   18aca:	66 c7 85 16 fe ff ff 	movw   $0x1,-0x1ea(%rbp)
   18ad1:	01 00 
   18ad3:	66 c7 85 18 fe ff ff 	movw   $0x1,-0x1e8(%rbp)
   18ada:	01 00 
   18adc:	66 c7 85 1a fe ff ff 	movw   $0x0,-0x1e6(%rbp)
   18ae3:	00 00 
   18ae5:	66 c7 85 1c fe ff ff 	movw   $0x0,-0x1e4(%rbp)
   18aec:	00 00 
   18aee:	66 c7 85 1e fe ff ff 	movw   $0x0,-0x1e2(%rbp)
   18af5:	00 00 
   18af7:	66 c7 85 20 fe ff ff 	movw   $0x0,-0x1e0(%rbp)
   18afe:	00 00 
   18b00:	66 c7 85 22 fe ff ff 	movw   $0x0,-0x1de(%rbp)
   18b07:	00 00 
   18b09:	66 c7 85 24 fe ff ff 	movw   $0x1,-0x1dc(%rbp)
   18b10:	01 00 
   18b12:	66 c7 85 26 fe ff ff 	movw   $0x1,-0x1da(%rbp)
   18b19:	01 00 
   18b1b:	66 c7 85 28 fe ff ff 	movw   $0x1,-0x1d8(%rbp)
   18b22:	01 00 
   18b24:	66 c7 85 2a fe ff ff 	movw   $0x1,-0x1d6(%rbp)
   18b2b:	01 00 
   18b2d:	66 c7 85 2c fe ff ff 	movw   $0x1,-0x1d4(%rbp)
   18b34:	01 00 
   18b36:	66 c7 85 2e fe ff ff 	movw   $0x0,-0x1d2(%rbp)
   18b3d:	00 00 
   18b3f:	66 c7 85 30 fe ff ff 	movw   $0x0,-0x1d0(%rbp)
   18b46:	00 00 
   18b48:	66 c7 85 32 fe ff ff 	movw   $0x0,-0x1ce(%rbp)
   18b4f:	00 00 
   18b51:	66 c7 85 34 fe ff ff 	movw   $0x0,-0x1cc(%rbp)
   18b58:	00 00 
   18b5a:	66 c7 85 36 fe ff ff 	movw   $0x0,-0x1ca(%rbp)
   18b61:	00 00 
   18b63:	48 8d 05 0e 65 00 00 	lea    0x650e(%rip),%rax        # 1f078 <g_155>
   18b6a:	48 89 85 b0 fd ff ff 	mov    %rax,-0x250(%rbp)
   18b71:	48 c7 85 b8 fd ff ff 	movq   $0x7,-0x248(%rbp)
   18b78:	07 00 00 00 
   18b7c:	48 8d 05 e9 64 00 00 	lea    0x64e9(%rip),%rax        # 1f06c <g_98>
   18b83:	48 89 85 c0 fd ff ff 	mov    %rax,-0x240(%rbp)
   18b8a:	c7 85 a8 fd ff ff 04 	movl   $0x4,-0x258(%rbp)
   18b91:	00 00 00 
   18b94:	48 8d 85 90 fe ff ff 	lea    -0x170(%rbp),%rax
   18b9b:	48 83 c0 24          	add    $0x24,%rax
   18b9f:	48 89 85 c8 fd ff ff 	mov    %rax,-0x238(%rbp)
   18ba6:	c7 85 ac fd ff ff ff 	movl   $0xffffffff,-0x254(%rbp)
   18bad:	ff ff ff 
   18bb0:	c7 85 a0 fd ff ff 00 	movl   $0x0,-0x260(%rbp)
   18bb7:	00 00 00 
   18bba:	eb 22                	jmp    18bde <func_122+0x2f6>
   18bbc:	8b 85 a0 fd ff ff    	mov    -0x260(%rbp),%eax
   18bc2:	48 98                	cltq   
   18bc4:	48 8d 95 90 fe ff ff 	lea    -0x170(%rbp),%rdx
   18bcb:	48 83 c2 24          	add    $0x24,%rdx
   18bcf:	48 89 94 c5 40 fe ff 	mov    %rdx,-0x1c0(%rbp,%rax,8)
   18bd6:	ff 
   18bd7:	83 85 a0 fd ff ff 01 	addl   $0x1,-0x260(%rbp)
   18bde:	83 bd a0 fd ff ff 08 	cmpl   $0x8,-0x260(%rbp)
   18be5:	7e d5                	jle    18bbc <func_122+0x2d4>
   18be7:	80 bd 9c fd ff ff 00 	cmpb   $0x0,-0x264(%rbp)
   18bee:	74 19                	je     18c09 <func_122+0x321>
   18bf0:	48 8d 15 99 a0 00 00 	lea    0xa099(%rip),%rdx        # 22c90 <g_66>
   18bf7:	48 8b 85 70 fd ff ff 	mov    -0x290(%rbp),%rax
   18bfe:	48 8b 00             	mov    (%rax),%rax
   18c01:	48 89 02             	mov    %rax,(%rdx)
   18c04:	e9 05 02 00 00       	jmpq   18e0e <func_122+0x526>
   18c09:	66 c7 85 9e fd ff ff 	movw   $0xe29d,-0x262(%rbp)
   18c10:	9d e2 
   18c12:	48 8d 05 2f 64 00 00 	lea    0x642f(%rip),%rax        # 1f048 <g_43+0x8>
   18c19:	48 89 85 d0 fd ff ff 	mov    %rax,-0x230(%rbp)
   18c20:	48 c7 85 d8 fd ff ff 	movq   $0x0,-0x228(%rbp)
   18c27:	00 00 00 00 
   18c2b:	48 8d 05 16 64 00 00 	lea    0x6416(%rip),%rax        # 1f048 <g_43+0x8>
   18c32:	48 89 85 e0 fd ff ff 	mov    %rax,-0x220(%rbp)
   18c39:	48 8d 05 48 a0 00 00 	lea    0xa048(%rip),%rax        # 22c88 <g_3>
   18c40:	48 89 85 00 ff ff ff 	mov    %rax,-0x100(%rbp)
   18c47:	48 8d 05 3a a0 00 00 	lea    0xa03a(%rip),%rax        # 22c88 <g_3>
   18c4e:	48 89 85 08 ff ff ff 	mov    %rax,-0xf8(%rbp)
   18c55:	48 8d 05 2c a0 00 00 	lea    0xa02c(%rip),%rax        # 22c88 <g_3>
   18c5c:	48 89 85 10 ff ff ff 	mov    %rax,-0xf0(%rbp)
   18c63:	48 8d 05 1e a0 00 00 	lea    0xa01e(%rip),%rax        # 22c88 <g_3>
   18c6a:	48 89 85 18 ff ff ff 	mov    %rax,-0xe8(%rbp)
   18c71:	48 8d 05 10 a0 00 00 	lea    0xa010(%rip),%rax        # 22c88 <g_3>
   18c78:	48 89 85 20 ff ff ff 	mov    %rax,-0xe0(%rbp)
   18c7f:	48 8d 05 ca 63 00 00 	lea    0x63ca(%rip),%rax        # 1f050 <g_43+0x10>
   18c86:	48 89 85 28 ff ff ff 	mov    %rax,-0xd8(%rbp)
   18c8d:	48 8d 05 bc 63 00 00 	lea    0x63bc(%rip),%rax        # 1f050 <g_43+0x10>
   18c94:	48 89 85 30 ff ff ff 	mov    %rax,-0xd0(%rbp)
   18c9b:	48 8d 05 e6 9f 00 00 	lea    0x9fe6(%rip),%rax        # 22c88 <g_3>
   18ca2:	48 89 85 38 ff ff ff 	mov    %rax,-0xc8(%rbp)
   18ca9:	48 8d 05 a0 63 00 00 	lea    0x63a0(%rip),%rax        # 1f050 <g_43+0x10>
   18cb0:	48 89 85 40 ff ff ff 	mov    %rax,-0xc0(%rbp)
   18cb7:	48 c7 85 48 ff ff ff 	movq   $0x0,-0xb8(%rbp)
   18cbe:	00 00 00 00 
   18cc2:	48 8d 05 87 63 00 00 	lea    0x6387(%rip),%rax        # 1f050 <g_43+0x10>
   18cc9:	48 89 85 50 ff ff ff 	mov    %rax,-0xb0(%rbp)
   18cd0:	48 8d 05 b1 9f 00 00 	lea    0x9fb1(%rip),%rax        # 22c88 <g_3>
   18cd7:	48 89 85 58 ff ff ff 	mov    %rax,-0xa8(%rbp)
   18cde:	48 c7 85 60 ff ff ff 	movq   $0x0,-0xa0(%rbp)
   18ce5:	00 00 00 00 
   18ce9:	48 8d 05 98 9f 00 00 	lea    0x9f98(%rip),%rax        # 22c88 <g_3>
   18cf0:	48 89 85 68 ff ff ff 	mov    %rax,-0x98(%rbp)
   18cf7:	48 8d 05 8a 9f 00 00 	lea    0x9f8a(%rip),%rax        # 22c88 <g_3>
   18cfe:	48 89 85 70 ff ff ff 	mov    %rax,-0x90(%rbp)
   18d05:	48 8d 05 44 63 00 00 	lea    0x6344(%rip),%rax        # 1f050 <g_43+0x10>
   18d0c:	48 89 85 78 ff ff ff 	mov    %rax,-0x88(%rbp)
   18d13:	48 8d 05 6e 9f 00 00 	lea    0x9f6e(%rip),%rax        # 22c88 <g_3>
   18d1a:	48 89 45 80          	mov    %rax,-0x80(%rbp)
   18d1e:	48 8d 05 63 9f 00 00 	lea    0x9f63(%rip),%rax        # 22c88 <g_3>
   18d25:	48 89 45 88          	mov    %rax,-0x78(%rbp)
   18d29:	48 8d 05 58 9f 00 00 	lea    0x9f58(%rip),%rax        # 22c88 <g_3>
   18d30:	48 89 45 90          	mov    %rax,-0x70(%rbp)
   18d34:	48 8d 05 15 63 00 00 	lea    0x6315(%rip),%rax        # 1f050 <g_43+0x10>
   18d3b:	48 89 45 98          	mov    %rax,-0x68(%rbp)
   18d3f:	48 8d 05 42 9f 00 00 	lea    0x9f42(%rip),%rax        # 22c88 <g_3>
   18d46:	48 89 45 a0          	mov    %rax,-0x60(%rbp)
   18d4a:	48 8d 05 37 9f 00 00 	lea    0x9f37(%rip),%rax        # 22c88 <g_3>
   18d51:	48 89 45 a8          	mov    %rax,-0x58(%rbp)
   18d55:	48 8d 05 2c 9f 00 00 	lea    0x9f2c(%rip),%rax        # 22c88 <g_3>
   18d5c:	48 89 45 b0          	mov    %rax,-0x50(%rbp)
   18d60:	48 8d 05 e9 62 00 00 	lea    0x62e9(%rip),%rax        # 1f050 <g_43+0x10>
   18d67:	48 89 45 b8          	mov    %rax,-0x48(%rbp)
   18d6b:	48 8d 05 16 9f 00 00 	lea    0x9f16(%rip),%rax        # 22c88 <g_3>
   18d72:	48 89 45 c0          	mov    %rax,-0x40(%rbp)
   18d76:	48 8d 05 0b 9f 00 00 	lea    0x9f0b(%rip),%rax        # 22c88 <g_3>
   18d7d:	48 89 45 c8          	mov    %rax,-0x38(%rbp)
   18d81:	48 8d 05 00 9f 00 00 	lea    0x9f00(%rip),%rax        # 22c88 <g_3>
   18d88:	48 89 45 d0          	mov    %rax,-0x30(%rbp)
   18d8c:	48 8d 05 bd 62 00 00 	lea    0x62bd(%rip),%rax        # 1f050 <g_43+0x10>
   18d93:	48 89 45 d8          	mov    %rax,-0x28(%rbp)
   18d97:	48 b8 7c 58 ac a6 d3 	movabs $0x27e3e6d3a6ac587c,%rax
   18d9e:	e6 e3 27 
   18da1:	48 89 85 e8 fd ff ff 	mov    %rax,-0x218(%rbp)
   18da8:	48 8b 05 59 89 00 00 	mov    0x8959(%rip),%rax        # 21708 <g_167>
   18daf:	0f b6 95 9c fd ff ff 	movzbl -0x264(%rbp),%edx
   18db6:	89 10                	mov    %edx,(%rax)
   18db8:	0f b6 85 9c fd ff ff 	movzbl -0x264(%rbp),%eax
   18dbf:	30 85 9d fd ff ff    	xor    %al,-0x263(%rbp)
   18dc5:	0f b7 85 28 fe ff ff 	movzwl -0x1d8(%rbp),%eax
   18dcc:	83 e8 01             	sub    $0x1,%eax
   18dcf:	66 89 85 28 fe ff ff 	mov    %ax,-0x1d8(%rbp)
   18dd6:	0f b6 05 53 62 00 00 	movzbl 0x6253(%rip),%eax        # 1f030 <g_39>
   18ddd:	66 98                	cbtw   
   18ddf:	0f b7 c0             	movzwl %ax,%eax
   18de2:	be 42 42 00 00       	mov    $0x4242,%esi
   18de7:	89 c7                	mov    %eax,%edi
   18de9:	e8 4f 0f ff ff       	callq  9d3d <safe_mul_func_uint16_t_u_u>
   18dee:	0f b7 c0             	movzwl %ax,%eax
   18df1:	48 be 84 f4 53 26 3f 	movabs $0x22f18e3f2653f484,%rsi
   18df8:	8e f1 22 
   18dfb:	48 89 c7             	mov    %rax,%rdi
   18dfe:	e8 f4 0b ff ff       	callq  99f7 <safe_div_func_int64_t_s_s>
   18e03:	89 c2                	mov    %eax,%edx
   18e05:	48 8b 85 e0 fd ff ff 	mov    -0x220(%rbp),%rax
   18e0c:	89 10                	mov    %edx,(%rax)
   18e0e:	0f b7 85 28 fe ff ff 	movzwl -0x1d8(%rbp),%eax
   18e15:	44 0f b7 e0          	movzwl %ax,%r12d
   18e19:	48 8b 85 88 fd ff ff 	mov    -0x278(%rbp),%rax
   18e20:	48 8b 00             	mov    (%rax),%rax
   18e23:	48 8b 18             	mov    (%rax),%rbx
   18e26:	0f b6 95 9c fd ff ff 	movzbl -0x264(%rbp),%edx
   18e2d:	8b 85 b4 fe ff ff    	mov    -0x14c(%rbp),%eax
   18e33:	89 d6                	mov    %edx,%esi
   18e35:	89 c7                	mov    %eax,%edi
   18e37:	e8 c9 07 ff ff       	callq  9605 <safe_sub_func_int32_t_s_s>
   18e3c:	0f b6 95 84 fd ff ff 	movzbl -0x27c(%rbp),%edx
   18e43:	21 c2                	and    %eax,%edx
   18e45:	8b 05 19 62 00 00    	mov    0x6219(%rip),%eax        # 1f064 <g_88>
   18e4b:	39 c2                	cmp    %eax,%edx
   18e4d:	0f 9f c0             	setg   %al
   18e50:	0f b6 c0             	movzbl %al,%eax
   18e53:	be 0a 00 00 00       	mov    $0xa,%esi
   18e58:	89 c7                	mov    %eax,%edi
   18e5a:	e8 82 06 ff ff       	callq  94e1 <safe_lshift_func_int16_t_s_u>
   18e5f:	89 c2                	mov    %eax,%edx
   18e61:	48 8b 85 b0 fd ff ff 	mov    -0x250(%rbp),%rax
   18e68:	0f b6 00             	movzbl (%rax),%eax
   18e6b:	8d 70 ff             	lea    -0x1(%rax),%esi
   18e6e:	48 8b 8d b0 fd ff ff 	mov    -0x250(%rbp),%rcx
   18e75:	40 88 31             	mov    %sil,(%rcx)
   18e78:	0f b6 c0             	movzbl %al,%eax
   18e7b:	0f bf d2             	movswl %dx,%edx
   18e7e:	09 95 a4 fd ff ff    	or     %edx,-0x25c(%rbp)
   18e84:	33 85 a4 fd ff ff    	xor    -0x25c(%rbp),%eax
   18e8a:	89 c2                	mov    %eax,%edx
   18e8c:	0f b6 85 9c fd ff ff 	movzbl -0x264(%rbp),%eax
   18e93:	39 c2                	cmp    %eax,%edx
   18e95:	0f 95 c0             	setne  %al
   18e98:	0f b6 d0             	movzbl %al,%edx
   18e9b:	0f b7 85 28 fe ff ff 	movzwl -0x1d8(%rbp),%eax
   18ea2:	0f b6 c0             	movzbl %al,%eax
   18ea5:	89 d6                	mov    %edx,%esi
   18ea7:	89 c7                	mov    %eax,%edi
   18ea9:	e8 e5 0c ff ff       	callq  9b93 <safe_mul_func_uint8_t_u_u>
   18eae:	3c c7                	cmp    $0xc7,%al
   18eb0:	0f 95 c0             	setne  %al
   18eb3:	0f b6 d0             	movzbl %al,%edx
   18eb6:	0f b7 85 18 fe ff ff 	movzwl -0x1e8(%rbp),%eax
   18ebd:	0f b7 c0             	movzwl %ax,%eax
   18ec0:	39 c2                	cmp    %eax,%edx
   18ec2:	0f 9c c0             	setl   %al
   18ec5:	0f b6 c0             	movzbl %al,%eax
   18ec8:	48 33 85 b8 fd ff ff 	xor    -0x248(%rbp),%rax
   18ecf:	48 89 c2             	mov    %rax,%rdx
   18ed2:	0f b6 85 84 fd ff ff 	movzbl -0x27c(%rbp),%eax
   18ed9:	48 39 c2             	cmp    %rax,%rdx
   18edc:	0f 9e c0             	setle  %al
   18edf:	0f b6 c0             	movzbl %al,%eax
   18ee2:	48 89 de             	mov    %rbx,%rsi
   18ee5:	48 89 c7             	mov    %rax,%rdi
   18ee8:	e8 5e 11 ff ff       	callq  a04b <safe_sub_func_uint64_t_u_u>
   18eed:	89 c2                	mov    %eax,%edx
   18eef:	8b 05 7f 61 00 00    	mov    0x617f(%rip),%eax        # 1f074 <g_106>
   18ef5:	0f be c0             	movsbl %al,%eax
   18ef8:	89 d6                	mov    %edx,%esi
   18efa:	89 c7                	mov    %eax,%edi
   18efc:	e8 6b 04 ff ff       	callq  936c <safe_rshift_func_int8_t_s_u>
   18f01:	48 8b 85 c0 fd ff ff 	mov    -0x240(%rbp),%rax
   18f08:	c7 00 b8 9c 45 bf    	movl   $0xbf459cb8,(%rax)
   18f0e:	48 8b 85 c0 fd ff ff 	mov    -0x240(%rbp),%rax
   18f15:	8b 00                	mov    (%rax),%eax
   18f17:	83 f8 ff             	cmp    $0xffffffff,%eax
   18f1a:	0f 95 c0             	setne  %al
   18f1d:	0f b6 d0             	movzbl %al,%edx
   18f20:	0f b6 85 9c fd ff ff 	movzbl -0x264(%rbp),%eax
   18f27:	39 c2                	cmp    %eax,%edx
   18f29:	0f 9e c0             	setle  %al
   18f2c:	0f b6 c0             	movzbl %al,%eax
   18f2f:	41 39 c4             	cmp    %eax,%r12d
   18f32:	0f 95 c0             	setne  %al
   18f35:	0f b6 d0             	movzbl %al,%edx
   18f38:	0f b6 85 84 fd ff ff 	movzbl -0x27c(%rbp),%eax
   18f3f:	89 d6                	mov    %edx,%esi
   18f41:	89 c7                	mov    %eax,%edi
   18f43:	e8 32 0f ff ff       	callq  9e7a <safe_rshift_func_uint16_t_u_u>
   18f48:	66 85 c0             	test   %ax,%ax
   18f4b:	0f b6 05 26 61 00 00 	movzbl 0x6126(%rip),%eax        # 1f078 <g_155>
   18f52:	84 c0                	test   %al,%al
   18f54:	74 07                	je     18f5d <func_122+0x675>
   18f56:	b8 01 00 00 00       	mov    $0x1,%eax
   18f5b:	eb 05                	jmp    18f62 <func_122+0x67a>
   18f5d:	b8 00 00 00 00       	mov    $0x0,%eax
   18f62:	0f b6 c0             	movzbl %al,%eax
   18f65:	be 01 00 00 00       	mov    $0x1,%esi
   18f6a:	89 c7                	mov    %eax,%edi
   18f6c:	e8 22 0c ff ff       	callq  9b93 <safe_mul_func_uint8_t_u_u>
   18f71:	8b 85 a8 fd ff ff    	mov    -0x258(%rbp),%eax
   18f77:	0d 67 03 d3 61       	or     $0x61d30367,%eax
   18f7c:	89 c2                	mov    %eax,%edx
   18f7e:	48 8b 85 c8 fd ff ff 	mov    -0x238(%rbp),%rax
   18f85:	89 10                	mov    %edx,(%rax)
   18f87:	83 ad ac fd ff ff 01 	subl   $0x1,-0x254(%rbp)
   18f8e:	48 8d 05 03 9d 00 00 	lea    0x9d03(%rip),%rax        # 22c98 <g_109>
   18f95:	48 8b 5d e8          	mov    -0x18(%rbp),%rbx
   18f99:	64 48 33 1c 25 28 00 	xor    %fs:0x28,%rbx
   18fa0:	00 00 
   18fa2:	74 05                	je     18fa9 <func_122+0x6c1>
   18fa4:	e8 c7 00 ff ff       	callq  9070 <__stack_chk_fail@plt>
   18fa9:	48 81 c4 80 02 00 00 	add    $0x280,%rsp
   18fb0:	5b                   	pop    %rbx
   18fb1:	41 5c                	pop    %r12
   18fb3:	5d                   	pop    %rbp
   18fb4:	c3                   	retq   

0000000000018fb5 <main>:
   18fb5:	f3 0f 1e fa          	endbr64 
   18fb9:	55                   	push   %rbp
   18fba:	48 89 e5             	mov    %rsp,%rbp
   18fbd:	48 83 ec 20          	sub    $0x20,%rsp
   18fc1:	89 7d ec             	mov    %edi,-0x14(%rbp)
   18fc4:	48 89 75 e0          	mov    %rsi,-0x20(%rbp)
   18fc8:	c7 45 fc 00 00 00 00 	movl   $0x0,-0x4(%rbp)
   18fcf:	83 7d ec 02          	cmpl   $0x2,-0x14(%rbp)
   18fd3:	74 25                	je     18ffa <main+0x45>
   18fd5:	48 8b 45 e0          	mov    -0x20(%rbp),%rax
   18fd9:	48 83 c0 08          	add    $0x8,%rax
   18fdd:	48 8b 00             	mov    (%rax),%rax
   18fe0:	48 8d 35 99 29 00 00 	lea    0x2999(%rip),%rsi        # 1b980 <g_5313+0x190c>
   18fe7:	48 89 c7             	mov    %rax,%rdi
   18fea:	e8 a1 00 ff ff       	callq  9090 <strcmp@plt>
   18fef:	85 c0                	test   %eax,%eax
   18ff1:	74 07                	je     18ffa <main+0x45>
   18ff3:	c7 45 fc 01 00 00 00 	movl   $0x1,-0x4(%rbp)
   18ffa:	e8 8a 01 ff ff       	callq  9189 <platform_main_begin>
   18fff:	e8 94 15 ff ff       	callq  a598 <crc32_gentab>
   19004:	e8 ac 17 ff ff       	callq  a7b5 <func_1>
   19009:	8b 05 79 9c 00 00    	mov    0x9c79(%rip),%eax        # 22c88 <g_3>
   1900f:	48 98                	cltq   
   19011:	8b 55 fc             	mov    -0x4(%rbp),%edx
   19014:	48 8d 35 67 29 00 00 	lea    0x2967(%rip),%rsi        # 1b982 <g_5313+0x190e>
   1901b:	48 89 c7             	mov    %rax,%rdi
   1901e:	e8 d0 16 ff ff       	callq  a6f3 <transparent_crc>
   19023:	0f b6 05 fa 5f 00 00 	movzbl 0x5ffa(%rip),%eax        # 1f024 <g_15>
   1902a:	0f b6 c0             	movzbl %al,%eax
   1902d:	8b 55 fc             	mov    -0x4(%rbp),%edx
   19030:	48 8d 35 4f 29 00 00 	lea    0x294f(%rip),%rsi        # 1b986 <g_5313+0x1912>
   19037:	48 89 c7             	mov    %rax,%rdi
   1903a:	e8 b4 16 ff ff       	callq  a6f3 <transparent_crc>
   1903f:	48 8b 05 e2 5f 00 00 	mov    0x5fe2(%rip),%rax        # 1f028 <g_35>
   19046:	8b 55 fc             	mov    -0x4(%rbp),%edx
   19049:	48 8d 35 3b 29 00 00 	lea    0x293b(%rip),%rsi        # 1b98b <g_5313+0x1917>
   19050:	48 89 c7             	mov    %rax,%rdi
   19053:	e8 9b 16 ff ff       	callq  a6f3 <transparent_crc>
   19058:	0f b6 05 d1 5f 00 00 	movzbl 0x5fd1(%rip),%eax        # 1f030 <g_39>
   1905f:	48 0f be c0          	movsbq %al,%rax
   19063:	8b 55 fc             	mov    -0x4(%rbp),%edx
   19066:	48 8d 35 23 29 00 00 	lea    0x2923(%rip),%rsi        # 1b990 <g_5313+0x191c>
   1906d:	48 89 c7             	mov    %rax,%rdi
   19070:	e8 7e 16 ff ff       	callq  a6f3 <transparent_crc>
   19075:	c7 45 f4 00 00 00 00 	movl   $0x0,-0xc(%rbp)
   1907c:	eb 4b                	jmp    190c9 <main+0x114>
   1907e:	8b 45 f4             	mov    -0xc(%rbp),%eax
   19081:	48 98                	cltq   
   19083:	48 8d 14 85 00 00 00 	lea    0x0(,%rax,4),%rdx
   1908a:	00 
   1908b:	48 8d 05 ae 5f 00 00 	lea    0x5fae(%rip),%rax        # 1f040 <g_43>
   19092:	8b 04 02             	mov    (%rdx,%rax,1),%eax
   19095:	48 98                	cltq   
   19097:	8b 55 fc             	mov    -0x4(%rbp),%edx
   1909a:	48 8d 35 f4 28 00 00 	lea    0x28f4(%rip),%rsi        # 1b995 <g_5313+0x1921>
   190a1:	48 89 c7             	mov    %rax,%rdi
   190a4:	e8 4a 16 ff ff       	callq  a6f3 <transparent_crc>
   190a9:	83 7d fc 00          	cmpl   $0x0,-0x4(%rbp)
   190ad:	74 16                	je     190c5 <main+0x110>
   190af:	8b 45 f4             	mov    -0xc(%rbp),%eax
   190b2:	89 c6                	mov    %eax,%esi
   190b4:	48 8d 3d e2 28 00 00 	lea    0x28e2(%rip),%rdi        # 1b99d <g_5313+0x1929>
   190bb:	b8 00 00 00 00       	mov    $0x0,%eax
   190c0:	e8 bb ff fe ff       	callq  9080 <printf@plt>
   190c5:	83 45 f4 01          	addl   $0x1,-0xc(%rbp)
   190c9:	83 7d f4 07          	cmpl   $0x7,-0xc(%rbp)
   190cd:	7e af                	jle    1907e <main+0xc9>
   190cf:	0f b6 05 8a 5f 00 00 	movzbl 0x5f8a(%rip),%eax        # 1f060 <g_56>
   190d6:	0f b6 c0             	movzbl %al,%eax
   190d9:	8b 55 fc             	mov    -0x4(%rbp),%edx
   190dc:	48 8d 35 c8 28 00 00 	lea    0x28c8(%rip),%rsi        # 1b9ab <g_5313+0x1937>
   190e3:	48 89 c7             	mov    %rax,%rdi
   190e6:	e8 08 16 ff ff       	callq  a6f3 <transparent_crc>
   190eb:	8b 05 73 5f 00 00    	mov    0x5f73(%rip),%eax        # 1f064 <g_88>
   190f1:	48 98                	cltq   
   190f3:	8b 55 fc             	mov    -0x4(%rbp),%edx
   190f6:	48 8d 35 b3 28 00 00 	lea    0x28b3(%rip),%rsi        # 1b9b0 <g_5313+0x193c>
   190fd:	48 89 c7             	mov    %rax,%rdi
   19100:	e8 ee 15 ff ff       	callq  a6f3 <transparent_crc>
   19105:	0f b7 05 5c 5f 00 00 	movzwl 0x5f5c(%rip),%eax        # 1f068 <g_91>
   1910c:	48 0f bf c0          	movswq %ax,%rax
   19110:	8b 55 fc             	mov    -0x4(%rbp),%edx
   19113:	48 8d 35 9b 28 00 00 	lea    0x289b(%rip),%rsi        # 1b9b5 <g_5313+0x1941>
   1911a:	48 89 c7             	mov    %rax,%rdi
   1911d:	e8 d1 15 ff ff       	callq  a6f3 <transparent_crc>
   19122:	8b 05 44 5f 00 00    	mov    0x5f44(%rip),%eax        # 1f06c <g_98>
   19128:	89 c1                	mov    %eax,%ecx
   1912a:	8b 45 fc             	mov    -0x4(%rbp),%eax
   1912d:	89 c2                	mov    %eax,%edx
   1912f:	48 8d 35 84 28 00 00 	lea    0x2884(%rip),%rsi        # 1b9ba <g_5313+0x1946>
   19136:	48 89 cf             	mov    %rcx,%rdi
   19139:	e8 b5 15 ff ff       	callq  a6f3 <transparent_crc>
   1913e:	0f b6 05 2b 5f 00 00 	movzbl 0x5f2b(%rip),%eax        # 1f070 <g_105>
   19145:	48 0f be c0          	movsbq %al,%rax
   19149:	8b 55 fc             	mov    -0x4(%rbp),%edx
   1914c:	48 8d 35 6c 28 00 00 	lea    0x286c(%rip),%rsi        # 1b9bf <g_5313+0x194b>
   19153:	48 89 c7             	mov    %rax,%rdi
   19156:	e8 98 15 ff ff       	callq  a6f3 <transparent_crc>
   1915b:	8b 05 13 5f 00 00    	mov    0x5f13(%rip),%eax        # 1f074 <g_106>
   19161:	89 c1                	mov    %eax,%ecx
   19163:	8b 45 fc             	mov    -0x4(%rbp),%eax
   19166:	89 c2                	mov    %eax,%edx
   19168:	48 8d 35 56 28 00 00 	lea    0x2856(%rip),%rsi        # 1b9c5 <g_5313+0x1951>
   1916f:	48 89 cf             	mov    %rcx,%rdi
   19172:	e8 7c 15 ff ff       	callq  a6f3 <transparent_crc>
   19177:	48 8b 05 1a 9b 00 00 	mov    0x9b1a(%rip),%rax        # 22c98 <g_109>
   1917e:	48 89 c1             	mov    %rax,%rcx
   19181:	8b 45 fc             	mov    -0x4(%rbp),%eax
   19184:	89 c2                	mov    %eax,%edx
   19186:	48 8d 35 3e 28 00 00 	lea    0x283e(%rip),%rsi        # 1b9cb <g_5313+0x1957>
   1918d:	48 89 cf             	mov    %rcx,%rdi
   19190:	e8 5e 15 ff ff       	callq  a6f3 <transparent_crc>
   19195:	0f b6 05 dc 5e 00 00 	movzbl 0x5edc(%rip),%eax        # 1f078 <g_155>
   1919c:	0f b6 c0             	movzbl %al,%eax
   1919f:	8b 55 fc             	mov    -0x4(%rbp),%edx
   191a2:	48 8d 35 28 28 00 00 	lea    0x2828(%rip),%rsi        # 1b9d1 <g_5313+0x195d>
   191a9:	48 89 c7             	mov    %rax,%rdi
   191ac:	e8 42 15 ff ff       	callq  a6f3 <transparent_crc>
   191b1:	0f b7 05 c2 5e 00 00 	movzwl 0x5ec2(%rip),%eax        # 1f07a <g_159>
   191b8:	0f b7 c0             	movzwl %ax,%eax
   191bb:	8b 55 fc             	mov    -0x4(%rbp),%edx
   191be:	48 8d 35 12 28 00 00 	lea    0x2812(%rip),%rsi        # 1b9d7 <g_5313+0x1963>
   191c5:	48 89 c7             	mov    %rax,%rdi
   191c8:	e8 26 15 ff ff       	callq  a6f3 <transparent_crc>
   191cd:	0f b6 05 a8 5e 00 00 	movzbl 0x5ea8(%rip),%eax        # 1f07c <g_165>
   191d4:	48 0f be c0          	movsbq %al,%rax
   191d8:	8b 55 fc             	mov    -0x4(%rbp),%edx
   191db:	48 8d 35 fb 27 00 00 	lea    0x27fb(%rip),%rsi        # 1b9dd <g_5313+0x1969>
   191e2:	48 89 c7             	mov    %rax,%rdi
   191e5:	e8 09 15 ff ff       	callq  a6f3 <transparent_crc>
   191ea:	0f b7 05 8d 5e 00 00 	movzwl 0x5e8d(%rip),%eax        # 1f07e <g_234>
   191f1:	0f b7 c0             	movzwl %ax,%eax
   191f4:	8b 55 fc             	mov    -0x4(%rbp),%edx
   191f7:	48 8d 35 e5 27 00 00 	lea    0x27e5(%rip),%rsi        # 1b9e3 <g_5313+0x196f>
   191fe:	48 89 c7             	mov    %rax,%rdi
   19201:	e8 ed 14 ff ff       	callq  a6f3 <transparent_crc>
   19206:	8b 05 74 5e 00 00    	mov    0x5e74(%rip),%eax        # 1f080 <g_237>
   1920c:	89 c1                	mov    %eax,%ecx
   1920e:	8b 45 fc             	mov    -0x4(%rbp),%eax
   19211:	89 c2                	mov    %eax,%edx
   19213:	48 8d 35 cf 27 00 00 	lea    0x27cf(%rip),%rsi        # 1b9e9 <g_5313+0x1975>
   1921a:	48 89 cf             	mov    %rcx,%rdi
   1921d:	e8 d1 14 ff ff       	callq  a6f3 <transparent_crc>
   19222:	8b 05 5c 5e 00 00    	mov    0x5e5c(%rip),%eax        # 1f084 <g_238>
   19228:	89 c1                	mov    %eax,%ecx
   1922a:	8b 45 fc             	mov    -0x4(%rbp),%eax
   1922d:	89 c2                	mov    %eax,%edx
   1922f:	48 8d 35 b9 27 00 00 	lea    0x27b9(%rip),%rsi        # 1b9ef <g_5313+0x197b>
   19236:	48 89 cf             	mov    %rcx,%rdi
   19239:	e8 b5 14 ff ff       	callq  a6f3 <transparent_crc>
   1923e:	c7 45 f4 00 00 00 00 	movl   $0x0,-0xc(%rbp)
   19245:	eb 4b                	jmp    19292 <main+0x2dd>
   19247:	8b 45 f4             	mov    -0xc(%rbp),%eax
   1924a:	48 98                	cltq   
   1924c:	48 8d 14 85 00 00 00 	lea    0x0(,%rax,4),%rdx
   19253:	00 
   19254:	48 8d 05 45 5e 00 00 	lea    0x5e45(%rip),%rax        # 1f0a0 <g_240>
   1925b:	8b 04 02             	mov    (%rdx,%rax,1),%eax
   1925e:	48 98                	cltq   
   19260:	8b 55 fc             	mov    -0x4(%rbp),%edx
   19263:	48 8d 35 8b 27 00 00 	lea    0x278b(%rip),%rsi        # 1b9f5 <g_5313+0x1981>
   1926a:	48 89 c7             	mov    %rax,%rdi
   1926d:	e8 81 14 ff ff       	callq  a6f3 <transparent_crc>
   19272:	83 7d fc 00          	cmpl   $0x0,-0x4(%rbp)
   19276:	74 16                	je     1928e <main+0x2d9>
   19278:	8b 45 f4             	mov    -0xc(%rbp),%eax
   1927b:	89 c6                	mov    %eax,%esi
   1927d:	48 8d 3d 19 27 00 00 	lea    0x2719(%rip),%rdi        # 1b99d <g_5313+0x1929>
   19284:	b8 00 00 00 00       	mov    $0x0,%eax
   19289:	e8 f2 fd fe ff       	callq  9080 <printf@plt>
   1928e:	83 45 f4 01          	addl   $0x1,-0xc(%rbp)
   19292:	83 7d f4 09          	cmpl   $0x9,-0xc(%rbp)
   19296:	7e af                	jle    19247 <main+0x292>
   19298:	c7 45 f4 00 00 00 00 	movl   $0x0,-0xc(%rbp)
   1929f:	eb 4a                	jmp    192eb <main+0x336>
   192a1:	8b 45 f4             	mov    -0xc(%rbp),%eax
   192a4:	48 98                	cltq   
   192a6:	48 8d 14 c5 00 00 00 	lea    0x0(,%rax,8),%rdx
   192ad:	00 
   192ae:	48 8d 05 13 5e 00 00 	lea    0x5e13(%rip),%rax        # 1f0c8 <g_294>
   192b5:	48 8b 04 02          	mov    (%rdx,%rax,1),%rax
   192b9:	8b 55 fc             	mov    -0x4(%rbp),%edx
   192bc:	48 8d 35 3b 27 00 00 	lea    0x273b(%rip),%rsi        # 1b9fe <g_5313+0x198a>
   192c3:	48 89 c7             	mov    %rax,%rdi
   192c6:	e8 28 14 ff ff       	callq  a6f3 <transparent_crc>
   192cb:	83 7d fc 00          	cmpl   $0x0,-0x4(%rbp)
   192cf:	74 16                	je     192e7 <main+0x332>
   192d1:	8b 45 f4             	mov    -0xc(%rbp),%eax
   192d4:	89 c6                	mov    %eax,%esi
   192d6:	48 8d 3d c0 26 00 00 	lea    0x26c0(%rip),%rdi        # 1b99d <g_5313+0x1929>
   192dd:	b8 00 00 00 00       	mov    $0x0,%eax
   192e2:	e8 99 fd fe ff       	callq  9080 <printf@plt>
   192e7:	83 45 f4 01          	addl   $0x1,-0xc(%rbp)
   192eb:	83 7d f4 00          	cmpl   $0x0,-0xc(%rbp)
   192ef:	7e b0                	jle    192a1 <main+0x2ec>
   192f1:	b8 01 00 00 00       	mov    $0x1,%eax
   192f6:	48 98                	cltq   
   192f8:	8b 55 fc             	mov    -0x4(%rbp),%edx
   192fb:	48 8d 35 05 27 00 00 	lea    0x2705(%rip),%rsi        # 1ba07 <g_5313+0x1993>
   19302:	48 89 c7             	mov    %rax,%rdi
   19305:	e8 e9 13 ff ff       	callq  a6f3 <transparent_crc>
   1930a:	8b 05 c0 5d 00 00    	mov    0x5dc0(%rip),%eax        # 1f0d0 <g_393>
   19310:	89 c1                	mov    %eax,%ecx
   19312:	8b 45 fc             	mov    -0x4(%rbp),%eax
   19315:	89 c2                	mov    %eax,%edx
   19317:	48 8d 35 ef 26 00 00 	lea    0x26ef(%rip),%rsi        # 1ba0d <g_5313+0x1999>
   1931e:	48 89 cf             	mov    %rcx,%rdi
   19321:	e8 cd 13 ff ff       	callq  a6f3 <transparent_crc>
   19326:	48 8b 05 ab 5d 00 00 	mov    0x5dab(%rip),%rax        # 1f0d8 <g_423>
   1932d:	8b 55 fc             	mov    -0x4(%rbp),%edx
   19330:	48 8d 35 dc 26 00 00 	lea    0x26dc(%rip),%rsi        # 1ba13 <g_5313+0x199f>
   19337:	48 89 c7             	mov    %rax,%rdi
   1933a:	e8 b4 13 ff ff       	callq  a6f3 <transparent_crc>
   1933f:	8b 05 9b 5d 00 00    	mov    0x5d9b(%rip),%eax        # 1f0e0 <g_535>
   19345:	48 98                	cltq   
   19347:	8b 55 fc             	mov    -0x4(%rbp),%edx
   1934a:	48 8d 35 c8 26 00 00 	lea    0x26c8(%rip),%rsi        # 1ba19 <g_5313+0x19a5>
   19351:	48 89 c7             	mov    %rax,%rdi
   19354:	e8 9a 13 ff ff       	callq  a6f3 <transparent_crc>
   19359:	c7 45 f4 00 00 00 00 	movl   $0x0,-0xc(%rbp)
   19360:	eb 76                	jmp    193d8 <main+0x423>
   19362:	c7 45 f8 00 00 00 00 	movl   $0x0,-0x8(%rbp)
   19369:	eb 63                	jmp    193ce <main+0x419>
   1936b:	8b 45 f8             	mov    -0x8(%rbp),%eax
   1936e:	48 63 c8             	movslq %eax,%rcx
   19371:	8b 45 f4             	mov    -0xc(%rbp),%eax
   19374:	48 63 d0             	movslq %eax,%rdx
   19377:	48 89 d0             	mov    %rdx,%rax
   1937a:	48 01 c0             	add    %rax,%rax
   1937d:	48 01 d0             	add    %rdx,%rax
   19380:	48 01 c0             	add    %rax,%rax
   19383:	48 01 c8             	add    %rcx,%rax
   19386:	48 8d 14 00          	lea    (%rax,%rax,1),%rdx
   1938a:	48 8d 05 5f 5d 00 00 	lea    0x5d5f(%rip),%rax        # 1f0f0 <g_558>
   19391:	0f b7 04 02          	movzwl (%rdx,%rax,1),%eax
   19395:	48 0f bf c0          	movswq %ax,%rax
   19399:	8b 55 fc             	mov    -0x4(%rbp),%edx
   1939c:	48 8d 35 7c 26 00 00 	lea    0x267c(%rip),%rsi        # 1ba1f <g_5313+0x19ab>
   193a3:	48 89 c7             	mov    %rax,%rdi
   193a6:	e8 48 13 ff ff       	callq  a6f3 <transparent_crc>
   193ab:	83 7d fc 00          	cmpl   $0x0,-0x4(%rbp)
   193af:	74 19                	je     193ca <main+0x415>
   193b1:	8b 55 f8             	mov    -0x8(%rbp),%edx
   193b4:	8b 45 f4             	mov    -0xc(%rbp),%eax
   193b7:	89 c6                	mov    %eax,%esi
   193b9:	48 8d 3d 6b 26 00 00 	lea    0x266b(%rip),%rdi        # 1ba2b <g_5313+0x19b7>
   193c0:	b8 00 00 00 00       	mov    $0x0,%eax
   193c5:	e8 b6 fc fe ff       	callq  9080 <printf@plt>
   193ca:	83 45 f8 01          	addl   $0x1,-0x8(%rbp)
   193ce:	83 7d f8 05          	cmpl   $0x5,-0x8(%rbp)
   193d2:	7e 97                	jle    1936b <main+0x3b6>
   193d4:	83 45 f4 01          	addl   $0x1,-0xc(%rbp)
   193d8:	83 7d f4 01          	cmpl   $0x1,-0xc(%rbp)
   193dc:	7e 84                	jle    19362 <main+0x3ad>
   193de:	0f b6 05 23 5d 00 00 	movzbl 0x5d23(%rip),%eax        # 1f108 <g_603>
   193e5:	48 0f be c0          	movsbq %al,%rax
   193e9:	8b 55 fc             	mov    -0x4(%rbp),%edx
   193ec:	48 8d 35 4a 26 00 00 	lea    0x264a(%rip),%rsi        # 1ba3d <g_5313+0x19c9>
   193f3:	48 89 c7             	mov    %rax,%rdi
   193f6:	e8 f8 12 ff ff       	callq  a6f3 <transparent_crc>
   193fb:	c7 45 f4 00 00 00 00 	movl   $0x0,-0xc(%rbp)
   19402:	eb 4a                	jmp    1944e <main+0x499>
   19404:	8b 45 f4             	mov    -0xc(%rbp),%eax
   19407:	48 98                	cltq   
   19409:	48 8d 14 00          	lea    (%rax,%rax,1),%rdx
   1940d:	48 8d 05 fc 5c 00 00 	lea    0x5cfc(%rip),%rax        # 1f110 <g_675>
   19414:	0f b7 04 02          	movzwl (%rdx,%rax,1),%eax
   19418:	48 0f bf c0          	movswq %ax,%rax
   1941c:	8b 55 fc             	mov    -0x4(%rbp),%edx
   1941f:	48 8d 35 1d 26 00 00 	lea    0x261d(%rip),%rsi        # 1ba43 <g_5313+0x19cf>
   19426:	48 89 c7             	mov    %rax,%rdi
   19429:	e8 c5 12 ff ff       	callq  a6f3 <transparent_crc>
   1942e:	83 7d fc 00          	cmpl   $0x0,-0x4(%rbp)
   19432:	74 16                	je     1944a <main+0x495>
   19434:	8b 45 f4             	mov    -0xc(%rbp),%eax
   19437:	89 c6                	mov    %eax,%esi
   19439:	48 8d 3d 5d 25 00 00 	lea    0x255d(%rip),%rdi        # 1b99d <g_5313+0x1929>
   19440:	b8 00 00 00 00       	mov    $0x0,%eax
   19445:	e8 36 fc fe ff       	callq  9080 <printf@plt>
   1944a:	83 45 f4 01          	addl   $0x1,-0xc(%rbp)
   1944e:	83 7d f4 04          	cmpl   $0x4,-0xc(%rbp)
   19452:	7e b0                	jle    19404 <main+0x44f>
   19454:	0f b7 05 bf 5c 00 00 	movzwl 0x5cbf(%rip),%eax        # 1f11a <g_695>
   1945b:	0f b7 c0             	movzwl %ax,%eax
   1945e:	8b 55 fc             	mov    -0x4(%rbp),%edx
   19461:	48 8d 35 e4 25 00 00 	lea    0x25e4(%rip),%rsi        # 1ba4c <g_5313+0x19d8>
   19468:	48 89 c7             	mov    %rax,%rdi
   1946b:	e8 83 12 ff ff       	callq  a6f3 <transparent_crc>
   19470:	0f b6 05 a5 5c 00 00 	movzbl 0x5ca5(%rip),%eax        # 1f11c <g_854>
   19477:	0f b6 c0             	movzbl %al,%eax
   1947a:	8b 55 fc             	mov    -0x4(%rbp),%edx
   1947d:	48 8d 35 ce 25 00 00 	lea    0x25ce(%rip),%rsi        # 1ba52 <g_5313+0x19de>
   19484:	48 89 c7             	mov    %rax,%rdi
   19487:	e8 67 12 ff ff       	callq  a6f3 <transparent_crc>
   1948c:	c7 45 f4 00 00 00 00 	movl   $0x0,-0xc(%rbp)
   19493:	eb 6e                	jmp    19503 <main+0x54e>
   19495:	c7 45 f8 00 00 00 00 	movl   $0x0,-0x8(%rbp)
   1949c:	eb 5b                	jmp    194f9 <main+0x544>
   1949e:	8b 45 f8             	mov    -0x8(%rbp),%eax
   194a1:	48 98                	cltq   
   194a3:	8b 55 f4             	mov    -0xc(%rbp),%edx
   194a6:	48 63 d2             	movslq %edx,%rdx
   194a9:	48 c1 e2 02          	shl    $0x2,%rdx
   194ad:	48 01 d0             	add    %rdx,%rax
   194b0:	48 8d 14 85 00 00 00 	lea    0x0(,%rax,4),%rdx
   194b7:	00 
   194b8:	48 8d 05 61 5c 00 00 	lea    0x5c61(%rip),%rax        # 1f120 <g_864>
   194bf:	8b 04 02             	mov    (%rdx,%rax,1),%eax
   194c2:	48 98                	cltq   
   194c4:	8b 55 fc             	mov    -0x4(%rbp),%edx
   194c7:	48 8d 35 8a 25 00 00 	lea    0x258a(%rip),%rsi        # 1ba58 <g_5313+0x19e4>
   194ce:	48 89 c7             	mov    %rax,%rdi
   194d1:	e8 1d 12 ff ff       	callq  a6f3 <transparent_crc>
   194d6:	83 7d fc 00          	cmpl   $0x0,-0x4(%rbp)
   194da:	74 19                	je     194f5 <main+0x540>
   194dc:	8b 55 f8             	mov    -0x8(%rbp),%edx
   194df:	8b 45 f4             	mov    -0xc(%rbp),%eax
   194e2:	89 c6                	mov    %eax,%esi
   194e4:	48 8d 3d 40 25 00 00 	lea    0x2540(%rip),%rdi        # 1ba2b <g_5313+0x19b7>
   194eb:	b8 00 00 00 00       	mov    $0x0,%eax
   194f0:	e8 8b fb fe ff       	callq  9080 <printf@plt>
   194f5:	83 45 f8 01          	addl   $0x1,-0x8(%rbp)
   194f9:	83 7d f8 03          	cmpl   $0x3,-0x8(%rbp)
   194fd:	7e 9f                	jle    1949e <main+0x4e9>
   194ff:	83 45 f4 01          	addl   $0x1,-0xc(%rbp)
   19503:	83 7d f4 08          	cmpl   $0x8,-0xc(%rbp)
   19507:	7e 8c                	jle    19495 <main+0x4e0>
   19509:	b8 08 00 00 00       	mov    $0x8,%eax
   1950e:	48 98                	cltq   
   19510:	8b 55 fc             	mov    -0x4(%rbp),%edx
   19513:	48 8d 35 4a 25 00 00 	lea    0x254a(%rip),%rsi        # 1ba64 <g_5313+0x19f0>
   1951a:	48 89 c7             	mov    %rax,%rdi
   1951d:	e8 d1 11 ff ff       	callq  a6f3 <transparent_crc>
   19522:	0f b7 05 87 5c 00 00 	movzwl 0x5c87(%rip),%eax        # 1f1b0 <g_927>
   19529:	0f b7 c0             	movzwl %ax,%eax
   1952c:	8b 55 fc             	mov    -0x4(%rbp),%edx
   1952f:	48 8d 35 34 25 00 00 	lea    0x2534(%rip),%rsi        # 1ba6a <g_5313+0x19f6>
   19536:	48 89 c7             	mov    %rax,%rdi
   19539:	e8 b5 11 ff ff       	callq  a6f3 <transparent_crc>
   1953e:	8b 05 70 5c 00 00    	mov    0x5c70(%rip),%eax        # 1f1b4 <g_1124>
   19544:	48 98                	cltq   
   19546:	8b 55 fc             	mov    -0x4(%rbp),%edx
   19549:	48 8d 35 20 25 00 00 	lea    0x2520(%rip),%rsi        # 1ba70 <g_5313+0x19fc>
   19550:	48 89 c7             	mov    %rax,%rdi
   19553:	e8 9b 11 ff ff       	callq  a6f3 <transparent_crc>
   19558:	0f b7 05 59 5c 00 00 	movzwl 0x5c59(%rip),%eax        # 1f1b8 <g_1284>
   1955f:	0f b7 c0             	movzwl %ax,%eax
   19562:	8b 55 fc             	mov    -0x4(%rbp),%edx
   19565:	48 8d 35 0b 25 00 00 	lea    0x250b(%rip),%rsi        # 1ba77 <g_5313+0x1a03>
   1956c:	48 89 c7             	mov    %rax,%rdi
   1956f:	e8 7f 11 ff ff       	callq  a6f3 <transparent_crc>
   19574:	8b 05 56 97 00 00    	mov    0x9756(%rip),%eax        # 22cd0 <g_1378>
   1957a:	89 c1                	mov    %eax,%ecx
   1957c:	8b 45 fc             	mov    -0x4(%rbp),%eax
   1957f:	89 c2                	mov    %eax,%edx
   19581:	48 8d 35 f6 24 00 00 	lea    0x24f6(%rip),%rsi        # 1ba7e <g_5313+0x1a0a>
   19588:	48 89 cf             	mov    %rcx,%rdi
   1958b:	e8 63 11 ff ff       	callq  a6f3 <transparent_crc>
   19590:	0f b7 05 23 5c 00 00 	movzwl 0x5c23(%rip),%eax        # 1f1ba <g_1470>
   19597:	48 0f bf c0          	movswq %ax,%rax
   1959b:	8b 55 fc             	mov    -0x4(%rbp),%edx
   1959e:	48 8d 35 e0 24 00 00 	lea    0x24e0(%rip),%rsi        # 1ba85 <g_5313+0x1a11>
   195a5:	48 89 c7             	mov    %rax,%rdi
   195a8:	e8 46 11 ff ff       	callq  a6f3 <transparent_crc>
   195ad:	8b 05 09 5c 00 00    	mov    0x5c09(%rip),%eax        # 1f1bc <g_1773>
   195b3:	89 c1                	mov    %eax,%ecx
   195b5:	8b 45 fc             	mov    -0x4(%rbp),%eax
   195b8:	89 c2                	mov    %eax,%edx
   195ba:	48 8d 35 cb 24 00 00 	lea    0x24cb(%rip),%rsi        # 1ba8c <g_5313+0x1a18>
   195c1:	48 89 cf             	mov    %rcx,%rdi
   195c4:	e8 2a 11 ff ff       	callq  a6f3 <transparent_crc>
   195c9:	0f b6 05 f0 5b 00 00 	movzbl 0x5bf0(%rip),%eax        # 1f1c0 <g_1781>
   195d0:	48 0f be c0          	movsbq %al,%rax
   195d4:	8b 55 fc             	mov    -0x4(%rbp),%edx
   195d7:	48 8d 35 b5 24 00 00 	lea    0x24b5(%rip),%rsi        # 1ba93 <g_5313+0x1a1f>
   195de:	48 89 c7             	mov    %rax,%rdi
   195e1:	e8 0d 11 ff ff       	callq  a6f3 <transparent_crc>
   195e6:	48 8b 05 e3 5b 00 00 	mov    0x5be3(%rip),%rax        # 1f1d0 <g_1871>
   195ed:	48 89 c1             	mov    %rax,%rcx
   195f0:	8b 45 fc             	mov    -0x4(%rbp),%eax
   195f3:	89 c2                	mov    %eax,%edx
   195f5:	48 8d 35 9e 24 00 00 	lea    0x249e(%rip),%rsi        # 1ba9a <g_5313+0x1a26>
   195fc:	48 89 cf             	mov    %rcx,%rdi
   195ff:	e8 ef 10 ff ff       	callq  a6f3 <transparent_crc>
   19604:	48 8b 05 cd 5b 00 00 	mov    0x5bcd(%rip),%rax        # 1f1d8 <g_2109>
   1960b:	48 89 c1             	mov    %rax,%rcx
   1960e:	8b 45 fc             	mov    -0x4(%rbp),%eax
   19611:	89 c2                	mov    %eax,%edx
   19613:	48 8d 35 87 24 00 00 	lea    0x2487(%rip),%rsi        # 1baa1 <g_5313+0x1a2d>
   1961a:	48 89 cf             	mov    %rcx,%rdi
   1961d:	e8 d1 10 ff ff       	callq  a6f3 <transparent_crc>
   19622:	0f b7 05 b7 5b 00 00 	movzwl 0x5bb7(%rip),%eax        # 1f1e0 <g_2250>
   19629:	0f b7 c0             	movzwl %ax,%eax
   1962c:	8b 55 fc             	mov    -0x4(%rbp),%edx
   1962f:	48 8d 35 72 24 00 00 	lea    0x2472(%rip),%rsi        # 1baa8 <g_5313+0x1a34>
   19636:	48 89 c7             	mov    %rax,%rdi
   19639:	e8 b5 10 ff ff       	callq  a6f3 <transparent_crc>
   1963e:	8b 05 ac 96 00 00    	mov    0x96ac(%rip),%eax        # 22cf0 <g_2679>
   19644:	89 c1                	mov    %eax,%ecx
   19646:	8b 45 fc             	mov    -0x4(%rbp),%eax
   19649:	89 c2                	mov    %eax,%edx
   1964b:	48 8d 35 5d 24 00 00 	lea    0x245d(%rip),%rsi        # 1baaf <g_5313+0x1a3b>
   19652:	48 89 cf             	mov    %rcx,%rdi
   19655:	e8 99 10 ff ff       	callq  a6f3 <transparent_crc>
   1965a:	0f b7 05 81 5b 00 00 	movzwl 0x5b81(%rip),%eax        # 1f1e2 <g_2753>
   19661:	48 0f bf c0          	movswq %ax,%rax
   19665:	8b 55 fc             	mov    -0x4(%rbp),%edx
   19668:	48 8d 35 47 24 00 00 	lea    0x2447(%rip),%rsi        # 1bab6 <g_5313+0x1a42>
   1966f:	48 89 c7             	mov    %rax,%rdi
   19672:	e8 7c 10 ff ff       	callq  a6f3 <transparent_crc>
   19677:	8b 05 67 5b 00 00    	mov    0x5b67(%rip),%eax        # 1f1e4 <g_2898>
   1967d:	48 98                	cltq   
   1967f:	8b 55 fc             	mov    -0x4(%rbp),%edx
   19682:	48 8d 35 34 24 00 00 	lea    0x2434(%rip),%rsi        # 1babd <g_5313+0x1a49>
   19689:	48 89 c7             	mov    %rax,%rdi
   1968c:	e8 62 10 ff ff       	callq  a6f3 <transparent_crc>
   19691:	0f b6 05 50 5b 00 00 	movzbl 0x5b50(%rip),%eax        # 1f1e8 <g_2990>
   19698:	48 0f be c0          	movsbq %al,%rax
   1969c:	8b 55 fc             	mov    -0x4(%rbp),%edx
   1969f:	48 8d 35 1e 24 00 00 	lea    0x241e(%rip),%rsi        # 1bac4 <g_5313+0x1a50>
   196a6:	48 89 c7             	mov    %rax,%rdi
   196a9:	e8 45 10 ff ff       	callq  a6f3 <transparent_crc>
   196ae:	0f b6 05 34 5b 00 00 	movzbl 0x5b34(%rip),%eax        # 1f1e9 <g_3212>
   196b5:	0f b6 c0             	movzbl %al,%eax
   196b8:	8b 55 fc             	mov    -0x4(%rbp),%edx
   196bb:	48 8d 35 09 24 00 00 	lea    0x2409(%rip),%rsi        # 1bacb <g_5313+0x1a57>
   196c2:	48 89 c7             	mov    %rax,%rdi
   196c5:	e8 29 10 ff ff       	callq  a6f3 <transparent_crc>
   196ca:	8b 05 1c 5b 00 00    	mov    0x5b1c(%rip),%eax        # 1f1ec <g_3213>
   196d0:	89 c1                	mov    %eax,%ecx
   196d2:	8b 45 fc             	mov    -0x4(%rbp),%eax
   196d5:	89 c2                	mov    %eax,%edx
   196d7:	48 8d 35 f4 23 00 00 	lea    0x23f4(%rip),%rsi        # 1bad2 <g_5313+0x1a5e>
   196de:	48 89 cf             	mov    %rcx,%rdi
   196e1:	e8 0d 10 ff ff       	callq  a6f3 <transparent_crc>
   196e6:	8b 05 04 5b 00 00    	mov    0x5b04(%rip),%eax        # 1f1f0 <g_3398>
   196ec:	89 c1                	mov    %eax,%ecx
   196ee:	8b 45 fc             	mov    -0x4(%rbp),%eax
   196f1:	89 c2                	mov    %eax,%edx
   196f3:	48 8d 35 df 23 00 00 	lea    0x23df(%rip),%rsi        # 1bad9 <g_5313+0x1a65>
   196fa:	48 89 cf             	mov    %rcx,%rdi
   196fd:	e8 f1 0f ff ff       	callq  a6f3 <transparent_crc>
   19702:	0f b6 05 eb 5a 00 00 	movzbl 0x5aeb(%rip),%eax        # 1f1f4 <g_3448>
   19709:	48 0f be c0          	movsbq %al,%rax
   1970d:	8b 55 fc             	mov    -0x4(%rbp),%edx
   19710:	48 8d 35 c9 23 00 00 	lea    0x23c9(%rip),%rsi        # 1bae0 <g_5313+0x1a6c>
   19717:	48 89 c7             	mov    %rax,%rdi
   1971a:	e8 d4 0f ff ff       	callq  a6f3 <transparent_crc>
   1971f:	c7 45 f4 00 00 00 00 	movl   $0x0,-0xc(%rbp)
   19726:	eb 45                	jmp    1976d <main+0x7b8>
   19728:	8b 45 f4             	mov    -0xc(%rbp),%eax
   1972b:	48 98                	cltq   
   1972d:	48 8d 15 c1 5a 00 00 	lea    0x5ac1(%rip),%rdx        # 1f1f5 <g_3481>
   19734:	0f b6 04 10          	movzbl (%rax,%rdx,1),%eax
   19738:	0f b6 c0             	movzbl %al,%eax
   1973b:	8b 55 fc             	mov    -0x4(%rbp),%edx
   1973e:	48 8d 35 a2 23 00 00 	lea    0x23a2(%rip),%rsi        # 1bae7 <g_5313+0x1a73>
   19745:	48 89 c7             	mov    %rax,%rdi
   19748:	e8 a6 0f ff ff       	callq  a6f3 <transparent_crc>
   1974d:	83 7d fc 00          	cmpl   $0x0,-0x4(%rbp)
   19751:	74 16                	je     19769 <main+0x7b4>
   19753:	8b 45 f4             	mov    -0xc(%rbp),%eax
   19756:	89 c6                	mov    %eax,%esi
   19758:	48 8d 3d 3e 22 00 00 	lea    0x223e(%rip),%rdi        # 1b99d <g_5313+0x1929>
   1975f:	b8 00 00 00 00       	mov    $0x0,%eax
   19764:	e8 17 f9 fe ff       	callq  9080 <printf@plt>
   19769:	83 45 f4 01          	addl   $0x1,-0xc(%rbp)
   1976d:	83 7d f4 01          	cmpl   $0x1,-0xc(%rbp)
   19771:	7e b5                	jle    19728 <main+0x773>
   19773:	c7 45 f4 00 00 00 00 	movl   $0x0,-0xc(%rbp)
   1977a:	eb 66                	jmp    197e2 <main+0x82d>
   1977c:	c7 45 f8 00 00 00 00 	movl   $0x0,-0x8(%rbp)
   19783:	eb 53                	jmp    197d8 <main+0x823>
   19785:	8b 45 f8             	mov    -0x8(%rbp),%eax
   19788:	48 63 d0             	movslq %eax,%rdx
   1978b:	8b 45 f4             	mov    -0xc(%rbp),%eax
   1978e:	48 98                	cltq   
   19790:	48 01 c2             	add    %rax,%rdx
   19793:	48 8d 05 5d 5a 00 00 	lea    0x5a5d(%rip),%rax        # 1f1f7 <g_3554>
   1979a:	48 01 d0             	add    %rdx,%rax
   1979d:	0f b6 00             	movzbl (%rax),%eax
   197a0:	0f b6 c0             	movzbl %al,%eax
   197a3:	8b 55 fc             	mov    -0x4(%rbp),%edx
   197a6:	48 8d 35 44 23 00 00 	lea    0x2344(%rip),%rsi        # 1baf1 <g_5313+0x1a7d>
   197ad:	48 89 c7             	mov    %rax,%rdi
   197b0:	e8 3e 0f ff ff       	callq  a6f3 <transparent_crc>
   197b5:	83 7d fc 00          	cmpl   $0x0,-0x4(%rbp)
   197b9:	74 19                	je     197d4 <main+0x81f>
   197bb:	8b 55 f8             	mov    -0x8(%rbp),%edx
   197be:	8b 45 f4             	mov    -0xc(%rbp),%eax
   197c1:	89 c6                	mov    %eax,%esi
   197c3:	48 8d 3d 61 22 00 00 	lea    0x2261(%rip),%rdi        # 1ba2b <g_5313+0x19b7>
   197ca:	b8 00 00 00 00       	mov    $0x0,%eax
   197cf:	e8 ac f8 fe ff       	callq  9080 <printf@plt>
   197d4:	83 45 f8 01          	addl   $0x1,-0x8(%rbp)
   197d8:	83 7d f8 00          	cmpl   $0x0,-0x8(%rbp)
   197dc:	7e a7                	jle    19785 <main+0x7d0>
   197de:	83 45 f4 01          	addl   $0x1,-0xc(%rbp)
   197e2:	83 7d f4 00          	cmpl   $0x0,-0xc(%rbp)
   197e6:	7e 94                	jle    1977c <main+0x7c7>
   197e8:	0f b6 05 09 5a 00 00 	movzbl 0x5a09(%rip),%eax        # 1f1f8 <g_3604>
   197ef:	0f b6 c0             	movzbl %al,%eax
   197f2:	8b 55 fc             	mov    -0x4(%rbp),%edx
   197f5:	48 8d 35 02 23 00 00 	lea    0x2302(%rip),%rsi        # 1bafe <g_5313+0x1a8a>
   197fc:	48 89 c7             	mov    %rax,%rdi
   197ff:	e8 ef 0e ff ff       	callq  a6f3 <transparent_crc>
   19804:	0f b6 05 ee 59 00 00 	movzbl 0x59ee(%rip),%eax        # 1f1f9 <g_3608>
   1980b:	0f b6 c0             	movzbl %al,%eax
   1980e:	8b 55 fc             	mov    -0x4(%rbp),%edx
   19811:	48 8d 35 ed 22 00 00 	lea    0x22ed(%rip),%rsi        # 1bb05 <g_5313+0x1a91>
   19818:	48 89 c7             	mov    %rax,%rdi
   1981b:	e8 d3 0e ff ff       	callq  a6f3 <transparent_crc>
   19820:	0f b6 05 d3 59 00 00 	movzbl 0x59d3(%rip),%eax        # 1f1fa <g_3802>
   19827:	48 0f be c0          	movsbq %al,%rax
   1982b:	8b 55 fc             	mov    -0x4(%rbp),%edx
   1982e:	48 8d 35 d7 22 00 00 	lea    0x22d7(%rip),%rsi        # 1bb0c <g_5313+0x1a98>
   19835:	48 89 c7             	mov    %rax,%rdi
   19838:	e8 b6 0e ff ff       	callq  a6f3 <transparent_crc>
   1983d:	0f b6 05 c4 59 00 00 	movzbl 0x59c4(%rip),%eax        # 1f208 <g_3836>
   19844:	48 0f be c0          	movsbq %al,%rax
   19848:	8b 55 fc             	mov    -0x4(%rbp),%edx
   1984b:	48 8d 35 c1 22 00 00 	lea    0x22c1(%rip),%rsi        # 1bb13 <g_5313+0x1a9f>
   19852:	48 89 c7             	mov    %rax,%rdi
   19855:	e8 99 0e ff ff       	callq  a6f3 <transparent_crc>
   1985a:	8b 05 ac 59 00 00    	mov    0x59ac(%rip),%eax        # 1f20c <g_4078>
   19860:	48 98                	cltq   
   19862:	8b 55 fc             	mov    -0x4(%rbp),%edx
   19865:	48 8d 35 ae 22 00 00 	lea    0x22ae(%rip),%rsi        # 1bb1a <g_5313+0x1aa6>
   1986c:	48 89 c7             	mov    %rax,%rdi
   1986f:	e8 7f 0e ff ff       	callq  a6f3 <transparent_crc>
   19874:	0f b7 05 95 59 00 00 	movzwl 0x5995(%rip),%eax        # 1f210 <g_4135>
   1987b:	48 0f bf c0          	movswq %ax,%rax
   1987f:	8b 55 fc             	mov    -0x4(%rbp),%edx
   19882:	48 8d 35 98 22 00 00 	lea    0x2298(%rip),%rsi        # 1bb21 <g_5313+0x1aad>
   19889:	48 89 c7             	mov    %rax,%rdi
   1988c:	e8 62 0e ff ff       	callq  a6f3 <transparent_crc>
   19891:	0f b6 05 7a 59 00 00 	movzbl 0x597a(%rip),%eax        # 1f212 <g_4149>
   19898:	0f b6 c0             	movzbl %al,%eax
   1989b:	8b 55 fc             	mov    -0x4(%rbp),%edx
   1989e:	48 8d 35 83 22 00 00 	lea    0x2283(%rip),%rsi        # 1bb28 <g_5313+0x1ab4>
   198a5:	48 89 c7             	mov    %rax,%rdi
   198a8:	e8 46 0e ff ff       	callq  a6f3 <transparent_crc>
   198ad:	48 b9 e1 41 10 24 3b 	movabs $0xe0ff03b241041e1,%rcx
   198b4:	f0 0f 0e 
   198b7:	8b 45 fc             	mov    -0x4(%rbp),%eax
   198ba:	89 c2                	mov    %eax,%edx
   198bc:	48 8d 35 6c 22 00 00 	lea    0x226c(%rip),%rsi        # 1bb2f <g_5313+0x1abb>
   198c3:	48 89 cf             	mov    %rcx,%rdi
   198c6:	e8 28 0e ff ff       	callq  a6f3 <transparent_crc>
   198cb:	0f b7 05 42 59 00 00 	movzwl 0x5942(%rip),%eax        # 1f214 <g_4481>
   198d2:	48 0f bf c0          	movswq %ax,%rax
   198d6:	8b 55 fc             	mov    -0x4(%rbp),%edx
   198d9:	48 8d 35 56 22 00 00 	lea    0x2256(%rip),%rsi        # 1bb36 <g_5313+0x1ac2>
   198e0:	48 89 c7             	mov    %rax,%rdi
   198e3:	e8 0b 0e ff ff       	callq  a6f3 <transparent_crc>
   198e8:	8b 05 2a 59 00 00    	mov    0x592a(%rip),%eax        # 1f218 <g_4508>
   198ee:	89 c1                	mov    %eax,%ecx
   198f0:	8b 45 fc             	mov    -0x4(%rbp),%eax
   198f3:	89 c2                	mov    %eax,%edx
   198f5:	48 8d 35 41 22 00 00 	lea    0x2241(%rip),%rsi        # 1bb3d <g_5313+0x1ac9>
   198fc:	48 89 cf             	mov    %rcx,%rdi
   198ff:	e8 ef 0d ff ff       	callq  a6f3 <transparent_crc>
   19904:	48 8b 05 15 59 00 00 	mov    0x5915(%rip),%rax        # 1f220 <g_4527>
   1990b:	48 89 c1             	mov    %rax,%rcx
   1990e:	8b 45 fc             	mov    -0x4(%rbp),%eax
   19911:	89 c2                	mov    %eax,%edx
   19913:	48 8d 35 2a 22 00 00 	lea    0x222a(%rip),%rsi        # 1bb44 <g_5313+0x1ad0>
   1991a:	48 89 cf             	mov    %rcx,%rdi
   1991d:	e8 d1 0d ff ff       	callq  a6f3 <transparent_crc>
   19922:	0f b6 05 ff 58 00 00 	movzbl 0x58ff(%rip),%eax        # 1f228 <g_4531>
   19929:	0f b6 c0             	movzbl %al,%eax
   1992c:	8b 55 fc             	mov    -0x4(%rbp),%edx
   1992f:	48 8d 35 15 22 00 00 	lea    0x2215(%rip),%rsi        # 1bb4b <g_5313+0x1ad7>
   19936:	48 89 c7             	mov    %rax,%rdi
   19939:	e8 b5 0d ff ff       	callq  a6f3 <transparent_crc>
   1993e:	48 8b 05 eb 58 00 00 	mov    0x58eb(%rip),%rax        # 1f230 <g_4551>
   19945:	48 89 c1             	mov    %rax,%rcx
   19948:	8b 45 fc             	mov    -0x4(%rbp),%eax
   1994b:	89 c2                	mov    %eax,%edx
   1994d:	48 8d 35 fe 21 00 00 	lea    0x21fe(%rip),%rsi        # 1bb52 <g_5313+0x1ade>
   19954:	48 89 cf             	mov    %rcx,%rdi
   19957:	e8 97 0d ff ff       	callq  a6f3 <transparent_crc>
   1995c:	48 8b 05 d5 58 00 00 	mov    0x58d5(%rip),%rax        # 1f238 <g_4583>
   19963:	8b 55 fc             	mov    -0x4(%rbp),%edx
   19966:	48 8d 35 ec 21 00 00 	lea    0x21ec(%rip),%rsi        # 1bb59 <g_5313+0x1ae5>
   1996d:	48 89 c7             	mov    %rax,%rdi
   19970:	e8 7e 0d ff ff       	callq  a6f3 <transparent_crc>
   19975:	8b 05 c5 58 00 00    	mov    0x58c5(%rip),%eax        # 1f240 <g_4596>
   1997b:	48 98                	cltq   
   1997d:	8b 55 fc             	mov    -0x4(%rbp),%edx
   19980:	48 8d 35 d9 21 00 00 	lea    0x21d9(%rip),%rsi        # 1bb60 <g_5313+0x1aec>
   19987:	48 89 c7             	mov    %rax,%rdi
   1998a:	e8 64 0d ff ff       	callq  a6f3 <transparent_crc>
   1998f:	48 8b 05 b2 58 00 00 	mov    0x58b2(%rip),%rax        # 1f248 <g_4631>
   19996:	48 89 c1             	mov    %rax,%rcx
   19999:	8b 45 fc             	mov    -0x4(%rbp),%eax
   1999c:	89 c2                	mov    %eax,%edx
   1999e:	48 8d 35 c2 21 00 00 	lea    0x21c2(%rip),%rsi        # 1bb67 <g_5313+0x1af3>
   199a5:	48 89 cf             	mov    %rcx,%rdi
   199a8:	e8 46 0d ff ff       	callq  a6f3 <transparent_crc>
   199ad:	48 b9 ca e7 5b b3 17 	movabs $0xa15aea17b35be7ca,%rcx
   199b4:	ea 5a a1 
   199b7:	8b 45 fc             	mov    -0x4(%rbp),%eax
   199ba:	89 c2                	mov    %eax,%edx
   199bc:	48 8d 35 ab 21 00 00 	lea    0x21ab(%rip),%rsi        # 1bb6e <g_5313+0x1afa>
   199c3:	48 89 cf             	mov    %rcx,%rdi
   199c6:	e8 28 0d ff ff       	callq  a6f3 <transparent_crc>
   199cb:	b8 05 00 00 00       	mov    $0x5,%eax
   199d0:	48 98                	cltq   
   199d2:	8b 55 fc             	mov    -0x4(%rbp),%edx
   199d5:	48 8d 35 99 21 00 00 	lea    0x2199(%rip),%rsi        # 1bb75 <g_5313+0x1b01>
   199dc:	48 89 c7             	mov    %rax,%rdi
   199df:	e8 0f 0d ff ff       	callq  a6f3 <transparent_crc>
   199e4:	c7 45 f4 00 00 00 00 	movl   $0x0,-0xc(%rbp)
   199eb:	eb 7b                	jmp    19a68 <main+0xab3>
   199ed:	c7 45 f8 00 00 00 00 	movl   $0x0,-0x8(%rbp)
   199f4:	eb 68                	jmp    19a5e <main+0xaa9>
   199f6:	8b 45 f8             	mov    -0x8(%rbp),%eax
   199f9:	48 63 c8             	movslq %eax,%rcx
   199fc:	8b 45 f4             	mov    -0xc(%rbp),%eax
   199ff:	48 63 d0             	movslq %eax,%rdx
   19a02:	48 89 d0             	mov    %rdx,%rax
   19a05:	48 01 c0             	add    %rax,%rax
   19a08:	48 01 d0             	add    %rdx,%rax
   19a0b:	48 01 c0             	add    %rax,%rax
   19a0e:	48 01 c8             	add    %rcx,%rax
   19a11:	48 8d 14 c5 00 00 00 	lea    0x0(,%rax,8),%rdx
   19a18:	00 
   19a19:	48 8d 05 40 58 00 00 	lea    0x5840(%rip),%rax        # 1f260 <g_4666>
   19a20:	48 8b 04 02          	mov    (%rdx,%rax,1),%rax
   19a24:	48 89 c1             	mov    %rax,%rcx
   19a27:	8b 45 fc             	mov    -0x4(%rbp),%eax
   19a2a:	89 c2                	mov    %eax,%edx
   19a2c:	48 8d 35 49 21 00 00 	lea    0x2149(%rip),%rsi        # 1bb7c <g_5313+0x1b08>
   19a33:	48 89 cf             	mov    %rcx,%rdi
   19a36:	e8 b8 0c ff ff       	callq  a6f3 <transparent_crc>
   19a3b:	83 7d fc 00          	cmpl   $0x0,-0x4(%rbp)
   19a3f:	74 19                	je     19a5a <main+0xaa5>
   19a41:	8b 55 f8             	mov    -0x8(%rbp),%edx
   19a44:	8b 45 f4             	mov    -0xc(%rbp),%eax
   19a47:	89 c6                	mov    %eax,%esi
   19a49:	48 8d 3d db 1f 00 00 	lea    0x1fdb(%rip),%rdi        # 1ba2b <g_5313+0x19b7>
   19a50:	b8 00 00 00 00       	mov    $0x0,%eax
   19a55:	e8 26 f6 fe ff       	callq  9080 <printf@plt>
   19a5a:	83 45 f8 01          	addl   $0x1,-0x8(%rbp)
   19a5e:	83 7d f8 05          	cmpl   $0x5,-0x8(%rbp)
   19a62:	7e 92                	jle    199f6 <main+0xa41>
   19a64:	83 45 f4 01          	addl   $0x1,-0xc(%rbp)
   19a68:	83 7d f4 04          	cmpl   $0x4,-0xc(%rbp)
   19a6c:	0f 8e 7b ff ff ff    	jle    199ed <main+0xa38>
   19a72:	48 8b 05 d7 58 00 00 	mov    0x58d7(%rip),%rax        # 1f350 <g_4799>
   19a79:	8b 55 fc             	mov    -0x4(%rbp),%edx
   19a7c:	48 8d 35 06 21 00 00 	lea    0x2106(%rip),%rsi        # 1bb89 <g_5313+0x1b15>
   19a83:	48 89 c7             	mov    %rax,%rdi
   19a86:	e8 68 0c ff ff       	callq  a6f3 <transparent_crc>
   19a8b:	48 8b 05 c6 58 00 00 	mov    0x58c6(%rip),%rax        # 1f358 <g_4879>
   19a92:	8b 55 fc             	mov    -0x4(%rbp),%edx
   19a95:	48 8d 35 f4 20 00 00 	lea    0x20f4(%rip),%rsi        # 1bb90 <g_5313+0x1b1c>
   19a9c:	48 89 c7             	mov    %rax,%rdi
   19a9f:	e8 4f 0c ff ff       	callq  a6f3 <transparent_crc>
   19aa4:	8b 05 b6 58 00 00    	mov    0x58b6(%rip),%eax        # 1f360 <g_5007>
   19aaa:	48 98                	cltq   
   19aac:	8b 55 fc             	mov    -0x4(%rbp),%edx
   19aaf:	48 8d 35 e1 20 00 00 	lea    0x20e1(%rip),%rsi        # 1bb97 <g_5313+0x1b23>
   19ab6:	48 89 c7             	mov    %rax,%rdi
   19ab9:	e8 35 0c ff ff       	callq  a6f3 <transparent_crc>
   19abe:	0f b7 05 9f 58 00 00 	movzwl 0x589f(%rip),%eax        # 1f364 <g_5122>
   19ac5:	0f b7 c0             	movzwl %ax,%eax
   19ac8:	8b 55 fc             	mov    -0x4(%rbp),%edx
   19acb:	48 8d 35 cc 20 00 00 	lea    0x20cc(%rip),%rsi        # 1bb9e <g_5313+0x1b2a>
   19ad2:	48 89 c7             	mov    %rax,%rdi
   19ad5:	e8 19 0c ff ff       	callq  a6f3 <transparent_crc>
   19ada:	c7 45 f4 00 00 00 00 	movl   $0x0,-0xc(%rbp)
   19ae1:	eb 4b                	jmp    19b2e <main+0xb79>
   19ae3:	8b 45 f4             	mov    -0xc(%rbp),%eax
   19ae6:	48 98                	cltq   
   19ae8:	48 8d 14 85 00 00 00 	lea    0x0(,%rax,4),%rdx
   19aef:	00 
   19af0:	48 8d 05 71 58 00 00 	lea    0x5871(%rip),%rax        # 1f368 <g_5159>
   19af7:	8b 04 02             	mov    (%rdx,%rax,1),%eax
   19afa:	48 98                	cltq   
   19afc:	8b 55 fc             	mov    -0x4(%rbp),%edx
   19aff:	48 8d 35 9f 20 00 00 	lea    0x209f(%rip),%rsi        # 1bba5 <g_5313+0x1b31>
   19b06:	48 89 c7             	mov    %rax,%rdi
   19b09:	e8 e5 0b ff ff       	callq  a6f3 <transparent_crc>
   19b0e:	83 7d fc 00          	cmpl   $0x0,-0x4(%rbp)
   19b12:	74 16                	je     19b2a <main+0xb75>
   19b14:	8b 45 f4             	mov    -0xc(%rbp),%eax
   19b17:	89 c6                	mov    %eax,%esi
   19b19:	48 8d 3d 7d 1e 00 00 	lea    0x1e7d(%rip),%rdi        # 1b99d <g_5313+0x1929>
   19b20:	b8 00 00 00 00       	mov    $0x0,%eax
   19b25:	e8 56 f5 fe ff       	callq  9080 <printf@plt>
   19b2a:	83 45 f4 01          	addl   $0x1,-0xc(%rbp)
   19b2e:	83 7d f4 00          	cmpl   $0x0,-0xc(%rbp)
   19b32:	7e af                	jle    19ae3 <main+0xb2e>
   19b34:	0f b7 05 31 58 00 00 	movzwl 0x5831(%rip),%eax        # 1f36c <g_5168>
   19b3b:	48 0f bf c0          	movswq %ax,%rax
   19b3f:	8b 55 fc             	mov    -0x4(%rbp),%edx
   19b42:	48 8d 35 66 20 00 00 	lea    0x2066(%rip),%rsi        # 1bbaf <g_5313+0x1b3b>
   19b49:	48 89 c7             	mov    %rax,%rdi
   19b4c:	e8 a2 0b ff ff       	callq  a6f3 <transparent_crc>
   19b51:	48 8b 05 18 58 00 00 	mov    0x5818(%rip),%rax        # 1f370 <g_5239>
   19b58:	48 89 c1             	mov    %rax,%rcx
   19b5b:	8b 45 fc             	mov    -0x4(%rbp),%eax
   19b5e:	89 c2                	mov    %eax,%edx
   19b60:	48 8d 35 4f 20 00 00 	lea    0x204f(%rip),%rsi        # 1bbb6 <g_5313+0x1b42>
   19b67:	48 89 cf             	mov    %rcx,%rdi
   19b6a:	e8 84 0b ff ff       	callq  a6f3 <transparent_crc>
   19b6f:	c7 45 f4 00 00 00 00 	movl   $0x0,-0xc(%rbp)
   19b76:	eb 79                	jmp    19bf1 <main+0xc3c>
   19b78:	c7 45 f8 00 00 00 00 	movl   $0x0,-0x8(%rbp)
   19b7f:	eb 66                	jmp    19be7 <main+0xc32>
   19b81:	8b 45 f8             	mov    -0x8(%rbp),%eax
   19b84:	48 63 c8             	movslq %eax,%rcx
   19b87:	8b 45 f4             	mov    -0xc(%rbp),%eax
   19b8a:	48 63 d0             	movslq %eax,%rdx
   19b8d:	48 89 d0             	mov    %rdx,%rax
   19b90:	48 c1 e0 02          	shl    $0x2,%rax
   19b94:	48 01 d0             	add    %rdx,%rax
   19b97:	48 01 c8             	add    %rcx,%rax
   19b9a:	48 8d 14 c5 00 00 00 	lea    0x0(,%rax,8),%rdx
   19ba1:	00 
   19ba2:	48 8d 05 d7 57 00 00 	lea    0x57d7(%rip),%rax        # 1f380 <g_5275>
   19ba9:	48 8b 04 02          	mov    (%rdx,%rax,1),%rax
   19bad:	48 89 c1             	mov    %rax,%rcx
   19bb0:	8b 45 fc             	mov    -0x4(%rbp),%eax
   19bb3:	89 c2                	mov    %eax,%edx
   19bb5:	48 8d 35 01 20 00 00 	lea    0x2001(%rip),%rsi        # 1bbbd <g_5313+0x1b49>
   19bbc:	48 89 cf             	mov    %rcx,%rdi
   19bbf:	e8 2f 0b ff ff       	callq  a6f3 <transparent_crc>
   19bc4:	83 7d fc 00          	cmpl   $0x0,-0x4(%rbp)
   19bc8:	74 19                	je     19be3 <main+0xc2e>
   19bca:	8b 55 f8             	mov    -0x8(%rbp),%edx
   19bcd:	8b 45 f4             	mov    -0xc(%rbp),%eax
   19bd0:	89 c6                	mov    %eax,%esi
   19bd2:	48 8d 3d 52 1e 00 00 	lea    0x1e52(%rip),%rdi        # 1ba2b <g_5313+0x19b7>
   19bd9:	b8 00 00 00 00       	mov    $0x0,%eax
   19bde:	e8 9d f4 fe ff       	callq  9080 <printf@plt>
   19be3:	83 45 f8 01          	addl   $0x1,-0x8(%rbp)
   19be7:	83 7d f8 04          	cmpl   $0x4,-0x8(%rbp)
   19beb:	7e 94                	jle    19b81 <main+0xbcc>
   19bed:	83 45 f4 01          	addl   $0x1,-0xc(%rbp)
   19bf1:	83 7d f4 08          	cmpl   $0x8,-0xc(%rbp)
   19bf5:	7e 81                	jle    19b78 <main+0xbc3>
   19bf7:	c7 45 f4 00 00 00 00 	movl   $0x0,-0xc(%rbp)
   19bfe:	eb 46                	jmp    19c46 <main+0xc91>
   19c00:	8b 45 f4             	mov    -0xc(%rbp),%eax
   19c03:	48 98                	cltq   
   19c05:	48 8d 15 68 04 00 00 	lea    0x468(%rip),%rdx        # 1a074 <g_5313>
   19c0c:	0f b6 04 10          	movzbl (%rax,%rdx,1),%eax
   19c10:	48 0f be c0          	movsbq %al,%rax
   19c14:	8b 55 fc             	mov    -0x4(%rbp),%edx
   19c17:	48 8d 35 ac 1f 00 00 	lea    0x1fac(%rip),%rsi        # 1bbca <g_5313+0x1b56>
   19c1e:	48 89 c7             	mov    %rax,%rdi
   19c21:	e8 cd 0a ff ff       	callq  a6f3 <transparent_crc>
   19c26:	83 7d fc 00          	cmpl   $0x0,-0x4(%rbp)
   19c2a:	74 16                	je     19c42 <main+0xc8d>
   19c2c:	8b 45 f4             	mov    -0xc(%rbp),%eax
   19c2f:	89 c6                	mov    %eax,%esi
   19c31:	48 8d 3d 65 1d 00 00 	lea    0x1d65(%rip),%rdi        # 1b99d <g_5313+0x1929>
   19c38:	b8 00 00 00 00       	mov    $0x0,%eax
   19c3d:	e8 3e f4 fe ff       	callq  9080 <printf@plt>
   19c42:	83 45 f4 01          	addl   $0x1,-0xc(%rbp)
   19c46:	83 7d f4 01          	cmpl   $0x1,-0xc(%rbp)
   19c4a:	7e b4                	jle    19c00 <main+0xc4b>
   19c4c:	8b 05 ce 53 00 00    	mov    0x53ce(%rip),%eax        # 1f020 <crc32_context>
   19c52:	f7 d0                	not    %eax
   19c54:	89 c2                	mov    %eax,%edx
   19c56:	8b 45 fc             	mov    -0x4(%rbp),%eax
   19c59:	89 c6                	mov    %eax,%esi
   19c5b:	89 d7                	mov    %edx,%edi
   19c5d:	e8 32 f5 fe ff       	callq  9194 <platform_main_end>
   19c62:	b8 00 00 00 00       	mov    $0x0,%eax
   19c67:	c9                   	leaveq 
   19c68:	c3                   	retq   
   19c69:	0f 1f 80 00 00 00 00 	nopl   0x0(%rax)

0000000000019c70 <__libc_csu_init>:
   19c70:	f3 0f 1e fa          	endbr64 
   19c74:	41 57                	push   %r15
   19c76:	4c 8d 3d 53 4e 00 00 	lea    0x4e53(%rip),%r15        # 1ead0 <__frame_dummy_init_array_entry>
   19c7d:	41 56                	push   %r14
   19c7f:	49 89 d6             	mov    %rdx,%r14
   19c82:	41 55                	push   %r13
   19c84:	49 89 f5             	mov    %rsi,%r13
   19c87:	41 54                	push   %r12
   19c89:	41 89 fc             	mov    %edi,%r12d
   19c8c:	55                   	push   %rbp
   19c8d:	48 8d 2d 44 4e 00 00 	lea    0x4e44(%rip),%rbp        # 1ead8 <__do_global_dtors_aux_fini_array_entry>
   19c94:	53                   	push   %rbx
   19c95:	4c 29 fd             	sub    %r15,%rbp
   19c98:	48 83 ec 08          	sub    $0x8,%rsp
   19c9c:	e8 5f f3 fe ff       	callq  9000 <_init>
   19ca1:	48 c1 fd 03          	sar    $0x3,%rbp
   19ca5:	74 1f                	je     19cc6 <__libc_csu_init+0x56>
   19ca7:	31 db                	xor    %ebx,%ebx
   19ca9:	0f 1f 80 00 00 00 00 	nopl   0x0(%rax)
   19cb0:	4c 89 f2             	mov    %r14,%rdx
   19cb3:	4c 89 ee             	mov    %r13,%rsi
   19cb6:	44 89 e7             	mov    %r12d,%edi
   19cb9:	41 ff 14 df          	callq  *(%r15,%rbx,8)
   19cbd:	48 83 c3 01          	add    $0x1,%rbx
   19cc1:	48 39 dd             	cmp    %rbx,%rbp
   19cc4:	75 ea                	jne    19cb0 <__libc_csu_init+0x40>
   19cc6:	48 83 c4 08          	add    $0x8,%rsp
   19cca:	5b                   	pop    %rbx
   19ccb:	5d                   	pop    %rbp
   19ccc:	41 5c                	pop    %r12
   19cce:	41 5d                	pop    %r13
   19cd0:	41 5e                	pop    %r14
   19cd2:	41 5f                	pop    %r15
   19cd4:	c3                   	retq   
   19cd5:	66 66 2e 0f 1f 84 00 	data16 nopw %cs:0x0(%rax,%rax,1)
   19cdc:	00 00 00 00 

0000000000019ce0 <__libc_csu_fini>:
   19ce0:	f3 0f 1e fa          	endbr64 
   19ce4:	c3                   	retq   
