


Disassembly of section .text:

00000000000050a0 <_start>:
    50a0:	f3 0f 1e fa          	endbr64 
    50a4:	31 ed                	xor    %ebp,%ebp
    50a6:	49 89 d1             	mov    %rdx,%r9
    50a9:	5e                   	pop    %rsi
    50aa:	48 89 e2             	mov    %rsp,%rdx
    50ad:	48 83 e4 f0          	and    $0xfffffffffffffff0,%rsp
    50b1:	50                   	push   %rax
    50b2:	54                   	push   %rsp
    50b3:	4c 8d 05 06 ae 00 00 	lea    0xae06(%rip),%r8        # fec0 <__libc_csu_fini>
    50ba:	48 8d 0d 8f ad 00 00 	lea    0xad8f(%rip),%rcx        # fe50 <__libc_csu_init>
    50c1:	48 8d 3d a3 6b 00 00 	lea    0x6ba3(%rip),%rdi        # bc6b <main>
    50c8:	ff 15 0a 1f 01 00    	callq  *0x11f0a(%rip)        # 16fd8 <__libc_start_main@GLIBC_2.2.5>
    50ce:	f4                   	hlt    
    50cf:	90                   	nop

00000000000050d0 <deregister_tm_clones>:
    50d0:	48 8d 3d 99 42 01 00 	lea    0x14299(%rip),%rdi        # 19370 <__TMC_END__>
    50d7:	48 8d 05 92 42 01 00 	lea    0x14292(%rip),%rax        # 19370 <__TMC_END__>
    50de:	48 39 f8             	cmp    %rdi,%rax
    50e1:	74 15                	je     50f8 <deregister_tm_clones+0x28>
    50e3:	48 8b 05 e6 1e 01 00 	mov    0x11ee6(%rip),%rax        # 16fd0 <_ITM_deregisterTMCloneTable>
    50ea:	48 85 c0             	test   %rax,%rax
    50ed:	74 09                	je     50f8 <deregister_tm_clones+0x28>
    50ef:	ff e0                	jmpq   *%rax
    50f1:	0f 1f 80 00 00 00 00 	nopl   0x0(%rax)
    50f8:	c3                   	retq   
    50f9:	0f 1f 80 00 00 00 00 	nopl   0x0(%rax)

0000000000005100 <register_tm_clones>:
    5100:	48 8d 3d 69 42 01 00 	lea    0x14269(%rip),%rdi        # 19370 <__TMC_END__>
    5107:	48 8d 35 62 42 01 00 	lea    0x14262(%rip),%rsi        # 19370 <__TMC_END__>
    510e:	48 29 fe             	sub    %rdi,%rsi
    5111:	48 89 f0             	mov    %rsi,%rax
    5114:	48 c1 ee 3f          	shr    $0x3f,%rsi
    5118:	48 c1 f8 03          	sar    $0x3,%rax
    511c:	48 01 c6             	add    %rax,%rsi
    511f:	48 d1 fe             	sar    %rsi
    5122:	74 14                	je     5138 <register_tm_clones+0x38>
    5124:	48 8b 05 bd 1e 01 00 	mov    0x11ebd(%rip),%rax        # 16fe8 <_ITM_registerTMCloneTable>
    512b:	48 85 c0             	test   %rax,%rax
    512e:	74 08                	je     5138 <register_tm_clones+0x38>
    5130:	ff e0                	jmpq   *%rax
    5132:	66 0f 1f 44 00 00    	nopw   0x0(%rax,%rax,1)
    5138:	c3                   	retq   
    5139:	0f 1f 80 00 00 00 00 	nopl   0x0(%rax)

0000000000005140 <__do_global_dtors_aux>:
    5140:	f3 0f 1e fa          	endbr64 
    5144:	80 3d 35 42 01 00 00 	cmpb   $0x0,0x14235(%rip)        # 19380 <completed.8061>
    514b:	75 2b                	jne    5178 <__do_global_dtors_aux+0x38>
    514d:	55                   	push   %rbp
    514e:	48 83 3d 9a 1e 01 00 	cmpq   $0x0,0x11e9a(%rip)        # 16ff0 <__cxa_finalize@GLIBC_2.2.5>
    5155:	00 
    5156:	48 89 e5             	mov    %rsp,%rbp
    5159:	74 0c                	je     5167 <__do_global_dtors_aux+0x27>
    515b:	48 8b 3d a6 1e 01 00 	mov    0x11ea6(%rip),%rdi        # 17008 <__dso_handle>
    5162:	e8 f9 fe ff ff       	callq  5060 <__cxa_finalize@plt>
    5167:	e8 64 ff ff ff       	callq  50d0 <deregister_tm_clones>
    516c:	c6 05 0d 42 01 00 01 	movb   $0x1,0x1420d(%rip)        # 19380 <completed.8061>
    5173:	5d                   	pop    %rbp
    5174:	c3                   	retq   
    5175:	0f 1f 00             	nopl   (%rax)
    5178:	c3                   	retq   
    5179:	0f 1f 80 00 00 00 00 	nopl   0x0(%rax)

0000000000005180 <frame_dummy>:
    5180:	f3 0f 1e fa          	endbr64 
    5184:	e9 77 ff ff ff       	jmpq   5100 <register_tm_clones>

0000000000005189 <platform_main_begin>:
    5189:	f3 0f 1e fa          	endbr64 
    518d:	55                   	push   %rbp
    518e:	48 89 e5             	mov    %rsp,%rbp
    5191:	90                   	nop
    5192:	5d                   	pop    %rbp
    5193:	c3                   	retq   

0000000000005194 <platform_main_end>:
    5194:	f3 0f 1e fa          	endbr64 
    5198:	55                   	push   %rbp
    5199:	48 89 e5             	mov    %rsp,%rbp
    519c:	48 83 ec 10          	sub    $0x10,%rsp
    51a0:	89 7d fc             	mov    %edi,-0x4(%rbp)
    51a3:	89 75 f8             	mov    %esi,-0x8(%rbp)
    51a6:	8b 45 fc             	mov    -0x4(%rbp),%eax
    51a9:	89 c6                	mov    %eax,%esi
    51ab:	48 8d 3d 6e ae 00 00 	lea    0xae6e(%rip),%rdi        # 10020 <_IO_stdin_used+0x20>
    51b2:	b8 00 00 00 00       	mov    $0x0,%eax
    51b7:	e8 c4 fe ff ff       	callq  5080 <printf@plt>
    51bc:	90                   	nop
    51bd:	c9                   	leaveq 
    51be:	c3                   	retq   

00000000000051bf <safe_unary_minus_func_int8_t_s>:
    51bf:	f3 0f 1e fa          	endbr64 
    51c3:	55                   	push   %rbp
    51c4:	48 89 e5             	mov    %rsp,%rbp
    51c7:	89 f8                	mov    %edi,%eax
    51c9:	88 45 fc             	mov    %al,-0x4(%rbp)
    51cc:	0f b6 45 fc          	movzbl -0x4(%rbp),%eax
    51d0:	f7 d8                	neg    %eax
    51d2:	5d                   	pop    %rbp
    51d3:	c3                   	retq   

00000000000051d4 <safe_add_func_int8_t_s_s>:
    51d4:	f3 0f 1e fa          	endbr64 
    51d8:	55                   	push   %rbp
    51d9:	48 89 e5             	mov    %rsp,%rbp
    51dc:	89 fa                	mov    %edi,%edx
    51de:	89 f0                	mov    %esi,%eax
    51e0:	88 55 fc             	mov    %dl,-0x4(%rbp)
    51e3:	88 45 f8             	mov    %al,-0x8(%rbp)
    51e6:	0f b6 55 fc          	movzbl -0x4(%rbp),%edx
    51ea:	0f b6 45 f8          	movzbl -0x8(%rbp),%eax
    51ee:	01 d0                	add    %edx,%eax
    51f0:	5d                   	pop    %rbp
    51f1:	c3                   	retq   

00000000000051f2 <safe_sub_func_int8_t_s_s>:
    51f2:	f3 0f 1e fa          	endbr64 
    51f6:	55                   	push   %rbp
    51f7:	48 89 e5             	mov    %rsp,%rbp
    51fa:	89 fa                	mov    %edi,%edx
    51fc:	89 f0                	mov    %esi,%eax
    51fe:	88 55 fc             	mov    %dl,-0x4(%rbp)
    5201:	88 45 f8             	mov    %al,-0x8(%rbp)
    5204:	0f b6 55 fc          	movzbl -0x4(%rbp),%edx
    5208:	0f b6 45 f8          	movzbl -0x8(%rbp),%eax
    520c:	29 c2                	sub    %eax,%edx
    520e:	89 d0                	mov    %edx,%eax
    5210:	5d                   	pop    %rbp
    5211:	c3                   	retq   

0000000000005212 <safe_mul_func_int8_t_s_s>:
    5212:	f3 0f 1e fa          	endbr64 
    5216:	55                   	push   %rbp
    5217:	48 89 e5             	mov    %rsp,%rbp
    521a:	89 fa                	mov    %edi,%edx
    521c:	89 f0                	mov    %esi,%eax
    521e:	88 55 fc             	mov    %dl,-0x4(%rbp)
    5221:	88 45 f8             	mov    %al,-0x8(%rbp)
    5224:	0f b6 45 fc          	movzbl -0x4(%rbp),%eax
    5228:	0f b6 55 f8          	movzbl -0x8(%rbp),%edx
    522c:	0f af c2             	imul   %edx,%eax
    522f:	5d                   	pop    %rbp
    5230:	c3                   	retq   

0000000000005231 <safe_mod_func_int8_t_s_s>:
    5231:	f3 0f 1e fa          	endbr64 
    5235:	55                   	push   %rbp
    5236:	48 89 e5             	mov    %rsp,%rbp
    5239:	89 fa                	mov    %edi,%edx
    523b:	89 f0                	mov    %esi,%eax
    523d:	88 55 fc             	mov    %dl,-0x4(%rbp)
    5240:	88 45 f8             	mov    %al,-0x8(%rbp)
    5243:	80 7d f8 00          	cmpb   $0x0,-0x8(%rbp)
    5247:	74 1b                	je     5264 <safe_mod_func_int8_t_s_s+0x33>
    5249:	80 7d fc 80          	cmpb   $0x80,-0x4(%rbp)
    524d:	75 06                	jne    5255 <safe_mod_func_int8_t_s_s+0x24>
    524f:	80 7d f8 ff          	cmpb   $0xff,-0x8(%rbp)
    5253:	74 0f                	je     5264 <safe_mod_func_int8_t_s_s+0x33>
    5255:	0f be 45 fc          	movsbl -0x4(%rbp),%eax
    5259:	0f be 4d f8          	movsbl -0x8(%rbp),%ecx
    525d:	99                   	cltd   
    525e:	f7 f9                	idiv   %ecx
    5260:	89 d0                	mov    %edx,%eax
    5262:	eb 04                	jmp    5268 <safe_mod_func_int8_t_s_s+0x37>
    5264:	0f b6 45 fc          	movzbl -0x4(%rbp),%eax
    5268:	5d                   	pop    %rbp
    5269:	c3                   	retq   

000000000000526a <safe_div_func_int8_t_s_s>:
    526a:	f3 0f 1e fa          	endbr64 
    526e:	55                   	push   %rbp
    526f:	48 89 e5             	mov    %rsp,%rbp
    5272:	89 fa                	mov    %edi,%edx
    5274:	89 f0                	mov    %esi,%eax
    5276:	88 55 fc             	mov    %dl,-0x4(%rbp)
    5279:	88 45 f8             	mov    %al,-0x8(%rbp)
    527c:	80 7d f8 00          	cmpb   $0x0,-0x8(%rbp)
    5280:	74 19                	je     529b <safe_div_func_int8_t_s_s+0x31>
    5282:	80 7d fc 80          	cmpb   $0x80,-0x4(%rbp)
    5286:	75 06                	jne    528e <safe_div_func_int8_t_s_s+0x24>
    5288:	80 7d f8 ff          	cmpb   $0xff,-0x8(%rbp)
    528c:	74 0d                	je     529b <safe_div_func_int8_t_s_s+0x31>
    528e:	0f be 45 fc          	movsbl -0x4(%rbp),%eax
    5292:	0f be 4d f8          	movsbl -0x8(%rbp),%ecx
    5296:	99                   	cltd   
    5297:	f7 f9                	idiv   %ecx
    5299:	eb 04                	jmp    529f <safe_div_func_int8_t_s_s+0x35>
    529b:	0f b6 45 fc          	movzbl -0x4(%rbp),%eax
    529f:	5d                   	pop    %rbp
    52a0:	c3                   	retq   

00000000000052a1 <safe_lshift_func_int8_t_s_s>:
    52a1:	f3 0f 1e fa          	endbr64 
    52a5:	55                   	push   %rbp
    52a6:	48 89 e5             	mov    %rsp,%rbp
    52a9:	89 f8                	mov    %edi,%eax
    52ab:	89 75 f8             	mov    %esi,-0x8(%rbp)
    52ae:	88 45 fc             	mov    %al,-0x4(%rbp)
    52b1:	80 7d fc 00          	cmpb   $0x0,-0x4(%rbp)
    52b5:	78 31                	js     52e8 <safe_lshift_func_int8_t_s_s+0x47>
    52b7:	83 7d f8 00          	cmpl   $0x0,-0x8(%rbp)
    52bb:	78 2b                	js     52e8 <safe_lshift_func_int8_t_s_s+0x47>
    52bd:	83 7d f8 1f          	cmpl   $0x1f,-0x8(%rbp)
    52c1:	7f 25                	jg     52e8 <safe_lshift_func_int8_t_s_s+0x47>
    52c3:	0f be 55 fc          	movsbl -0x4(%rbp),%edx
    52c7:	8b 45 f8             	mov    -0x8(%rbp),%eax
    52ca:	be 7f 00 00 00       	mov    $0x7f,%esi
    52cf:	89 c1                	mov    %eax,%ecx
    52d1:	d3 fe                	sar    %cl,%esi
    52d3:	89 f0                	mov    %esi,%eax
    52d5:	39 c2                	cmp    %eax,%edx
    52d7:	7f 0f                	jg     52e8 <safe_lshift_func_int8_t_s_s+0x47>
    52d9:	0f be 55 fc          	movsbl -0x4(%rbp),%edx
    52dd:	8b 45 f8             	mov    -0x8(%rbp),%eax
    52e0:	89 c1                	mov    %eax,%ecx
    52e2:	d3 e2                	shl    %cl,%edx
    52e4:	89 d0                	mov    %edx,%eax
    52e6:	eb 04                	jmp    52ec <safe_lshift_func_int8_t_s_s+0x4b>
    52e8:	0f b6 45 fc          	movzbl -0x4(%rbp),%eax
    52ec:	5d                   	pop    %rbp
    52ed:	c3                   	retq   

00000000000052ee <safe_lshift_func_int8_t_s_u>:
    52ee:	f3 0f 1e fa          	endbr64 
    52f2:	55                   	push   %rbp
    52f3:	48 89 e5             	mov    %rsp,%rbp
    52f6:	89 f8                	mov    %edi,%eax
    52f8:	89 75 f8             	mov    %esi,-0x8(%rbp)
    52fb:	88 45 fc             	mov    %al,-0x4(%rbp)
    52fe:	80 7d fc 00          	cmpb   $0x0,-0x4(%rbp)
    5302:	78 2b                	js     532f <safe_lshift_func_int8_t_s_u+0x41>
    5304:	83 7d f8 1f          	cmpl   $0x1f,-0x8(%rbp)
    5308:	77 25                	ja     532f <safe_lshift_func_int8_t_s_u+0x41>
    530a:	0f be 55 fc          	movsbl -0x4(%rbp),%edx
    530e:	8b 45 f8             	mov    -0x8(%rbp),%eax
    5311:	be 7f 00 00 00       	mov    $0x7f,%esi
    5316:	89 c1                	mov    %eax,%ecx
    5318:	d3 fe                	sar    %cl,%esi
    531a:	89 f0                	mov    %esi,%eax
    531c:	39 c2                	cmp    %eax,%edx
    531e:	7f 0f                	jg     532f <safe_lshift_func_int8_t_s_u+0x41>
    5320:	0f be 55 fc          	movsbl -0x4(%rbp),%edx
    5324:	8b 45 f8             	mov    -0x8(%rbp),%eax
    5327:	89 c1                	mov    %eax,%ecx
    5329:	d3 e2                	shl    %cl,%edx
    532b:	89 d0                	mov    %edx,%eax
    532d:	eb 04                	jmp    5333 <safe_lshift_func_int8_t_s_u+0x45>
    532f:	0f b6 45 fc          	movzbl -0x4(%rbp),%eax
    5333:	5d                   	pop    %rbp
    5334:	c3                   	retq   

0000000000005335 <safe_rshift_func_int8_t_s_s>:
    5335:	f3 0f 1e fa          	endbr64 
    5339:	55                   	push   %rbp
    533a:	48 89 e5             	mov    %rsp,%rbp
    533d:	89 f8                	mov    %edi,%eax
    533f:	89 75 f8             	mov    %esi,-0x8(%rbp)
    5342:	88 45 fc             	mov    %al,-0x4(%rbp)
    5345:	80 7d fc 00          	cmpb   $0x0,-0x4(%rbp)
    5349:	78 1b                	js     5366 <safe_rshift_func_int8_t_s_s+0x31>
    534b:	83 7d f8 00          	cmpl   $0x0,-0x8(%rbp)
    534f:	78 15                	js     5366 <safe_rshift_func_int8_t_s_s+0x31>
    5351:	83 7d f8 1f          	cmpl   $0x1f,-0x8(%rbp)
    5355:	7f 0f                	jg     5366 <safe_rshift_func_int8_t_s_s+0x31>
    5357:	0f be 55 fc          	movsbl -0x4(%rbp),%edx
    535b:	8b 45 f8             	mov    -0x8(%rbp),%eax
    535e:	89 c1                	mov    %eax,%ecx
    5360:	d3 fa                	sar    %cl,%edx
    5362:	89 d0                	mov    %edx,%eax
    5364:	eb 04                	jmp    536a <safe_rshift_func_int8_t_s_s+0x35>
    5366:	0f b6 45 fc          	movzbl -0x4(%rbp),%eax
    536a:	5d                   	pop    %rbp
    536b:	c3                   	retq   

000000000000536c <safe_rshift_func_int8_t_s_u>:
    536c:	f3 0f 1e fa          	endbr64 
    5370:	55                   	push   %rbp
    5371:	48 89 e5             	mov    %rsp,%rbp
    5374:	89 f8                	mov    %edi,%eax
    5376:	89 75 f8             	mov    %esi,-0x8(%rbp)
    5379:	88 45 fc             	mov    %al,-0x4(%rbp)
    537c:	80 7d fc 00          	cmpb   $0x0,-0x4(%rbp)
    5380:	78 15                	js     5397 <safe_rshift_func_int8_t_s_u+0x2b>
    5382:	83 7d f8 1f          	cmpl   $0x1f,-0x8(%rbp)
    5386:	77 0f                	ja     5397 <safe_rshift_func_int8_t_s_u+0x2b>
    5388:	0f be 55 fc          	movsbl -0x4(%rbp),%edx
    538c:	8b 45 f8             	mov    -0x8(%rbp),%eax
    538f:	89 c1                	mov    %eax,%ecx
    5391:	d3 fa                	sar    %cl,%edx
    5393:	89 d0                	mov    %edx,%eax
    5395:	eb 04                	jmp    539b <safe_rshift_func_int8_t_s_u+0x2f>
    5397:	0f b6 45 fc          	movzbl -0x4(%rbp),%eax
    539b:	5d                   	pop    %rbp
    539c:	c3                   	retq   

000000000000539d <safe_unary_minus_func_int16_t_s>:
    539d:	f3 0f 1e fa          	endbr64 
    53a1:	55                   	push   %rbp
    53a2:	48 89 e5             	mov    %rsp,%rbp
    53a5:	89 f8                	mov    %edi,%eax
    53a7:	66 89 45 fc          	mov    %ax,-0x4(%rbp)
    53ab:	0f b7 45 fc          	movzwl -0x4(%rbp),%eax
    53af:	f7 d8                	neg    %eax
    53b1:	5d                   	pop    %rbp
    53b2:	c3                   	retq   

00000000000053b3 <safe_add_func_int16_t_s_s>:
    53b3:	f3 0f 1e fa          	endbr64 
    53b7:	55                   	push   %rbp
    53b8:	48 89 e5             	mov    %rsp,%rbp
    53bb:	89 fa                	mov    %edi,%edx
    53bd:	89 f0                	mov    %esi,%eax
    53bf:	66 89 55 fc          	mov    %dx,-0x4(%rbp)
    53c3:	66 89 45 f8          	mov    %ax,-0x8(%rbp)
    53c7:	0f b7 55 fc          	movzwl -0x4(%rbp),%edx
    53cb:	0f b7 45 f8          	movzwl -0x8(%rbp),%eax
    53cf:	01 d0                	add    %edx,%eax
    53d1:	5d                   	pop    %rbp
    53d2:	c3                   	retq   

00000000000053d3 <safe_sub_func_int16_t_s_s>:
    53d3:	f3 0f 1e fa          	endbr64 
    53d7:	55                   	push   %rbp
    53d8:	48 89 e5             	mov    %rsp,%rbp
    53db:	89 fa                	mov    %edi,%edx
    53dd:	89 f0                	mov    %esi,%eax
    53df:	66 89 55 fc          	mov    %dx,-0x4(%rbp)
    53e3:	66 89 45 f8          	mov    %ax,-0x8(%rbp)
    53e7:	0f b7 55 fc          	movzwl -0x4(%rbp),%edx
    53eb:	0f b7 45 f8          	movzwl -0x8(%rbp),%eax
    53ef:	29 c2                	sub    %eax,%edx
    53f1:	89 d0                	mov    %edx,%eax
    53f3:	5d                   	pop    %rbp
    53f4:	c3                   	retq   

00000000000053f5 <safe_mul_func_int16_t_s_s>:
    53f5:	f3 0f 1e fa          	endbr64 
    53f9:	55                   	push   %rbp
    53fa:	48 89 e5             	mov    %rsp,%rbp
    53fd:	89 fa                	mov    %edi,%edx
    53ff:	89 f0                	mov    %esi,%eax
    5401:	66 89 55 fc          	mov    %dx,-0x4(%rbp)
    5405:	66 89 45 f8          	mov    %ax,-0x8(%rbp)
    5409:	0f b7 55 fc          	movzwl -0x4(%rbp),%edx
    540d:	0f b7 45 f8          	movzwl -0x8(%rbp),%eax
    5411:	0f af c2             	imul   %edx,%eax
    5414:	5d                   	pop    %rbp
    5415:	c3                   	retq   

0000000000005416 <safe_mod_func_int16_t_s_s>:
    5416:	f3 0f 1e fa          	endbr64 
    541a:	55                   	push   %rbp
    541b:	48 89 e5             	mov    %rsp,%rbp
    541e:	89 fa                	mov    %edi,%edx
    5420:	89 f0                	mov    %esi,%eax
    5422:	66 89 55 fc          	mov    %dx,-0x4(%rbp)
    5426:	66 89 45 f8          	mov    %ax,-0x8(%rbp)
    542a:	66 83 7d f8 00       	cmpw   $0x0,-0x8(%rbp)
    542f:	74 1e                	je     544f <safe_mod_func_int16_t_s_s+0x39>
    5431:	66 81 7d fc 00 80    	cmpw   $0x8000,-0x4(%rbp)
    5437:	75 07                	jne    5440 <safe_mod_func_int16_t_s_s+0x2a>
    5439:	66 83 7d f8 ff       	cmpw   $0xffff,-0x8(%rbp)
    543e:	74 0f                	je     544f <safe_mod_func_int16_t_s_s+0x39>
    5440:	0f bf 45 fc          	movswl -0x4(%rbp),%eax
    5444:	0f bf 4d f8          	movswl -0x8(%rbp),%ecx
    5448:	99                   	cltd   
    5449:	f7 f9                	idiv   %ecx
    544b:	89 d0                	mov    %edx,%eax
    544d:	eb 04                	jmp    5453 <safe_mod_func_int16_t_s_s+0x3d>
    544f:	0f b7 45 fc          	movzwl -0x4(%rbp),%eax
    5453:	5d                   	pop    %rbp
    5454:	c3                   	retq   

0000000000005455 <safe_div_func_int16_t_s_s>:
    5455:	f3 0f 1e fa          	endbr64 
    5459:	55                   	push   %rbp
    545a:	48 89 e5             	mov    %rsp,%rbp
    545d:	89 fa                	mov    %edi,%edx
    545f:	89 f0                	mov    %esi,%eax
    5461:	66 89 55 fc          	mov    %dx,-0x4(%rbp)
    5465:	66 89 45 f8          	mov    %ax,-0x8(%rbp)
    5469:	66 83 7d f8 00       	cmpw   $0x0,-0x8(%rbp)
    546e:	74 1c                	je     548c <safe_div_func_int16_t_s_s+0x37>
    5470:	66 81 7d fc 00 80    	cmpw   $0x8000,-0x4(%rbp)
    5476:	75 07                	jne    547f <safe_div_func_int16_t_s_s+0x2a>
    5478:	66 83 7d f8 ff       	cmpw   $0xffff,-0x8(%rbp)
    547d:	74 0d                	je     548c <safe_div_func_int16_t_s_s+0x37>
    547f:	0f bf 45 fc          	movswl -0x4(%rbp),%eax
    5483:	0f bf 4d f8          	movswl -0x8(%rbp),%ecx
    5487:	99                   	cltd   
    5488:	f7 f9                	idiv   %ecx
    548a:	eb 04                	jmp    5490 <safe_div_func_int16_t_s_s+0x3b>
    548c:	0f b7 45 fc          	movzwl -0x4(%rbp),%eax
    5490:	5d                   	pop    %rbp
    5491:	c3                   	retq   

0000000000005492 <safe_lshift_func_int16_t_s_s>:
    5492:	f3 0f 1e fa          	endbr64 
    5496:	55                   	push   %rbp
    5497:	48 89 e5             	mov    %rsp,%rbp
    549a:	89 f8                	mov    %edi,%eax
    549c:	89 75 f8             	mov    %esi,-0x8(%rbp)
    549f:	66 89 45 fc          	mov    %ax,-0x4(%rbp)
    54a3:	66 83 7d fc 00       	cmpw   $0x0,-0x4(%rbp)
    54a8:	78 31                	js     54db <safe_lshift_func_int16_t_s_s+0x49>
    54aa:	83 7d f8 00          	cmpl   $0x0,-0x8(%rbp)
    54ae:	78 2b                	js     54db <safe_lshift_func_int16_t_s_s+0x49>
    54b0:	83 7d f8 1f          	cmpl   $0x1f,-0x8(%rbp)
    54b4:	7f 25                	jg     54db <safe_lshift_func_int16_t_s_s+0x49>
    54b6:	0f bf 55 fc          	movswl -0x4(%rbp),%edx
    54ba:	8b 45 f8             	mov    -0x8(%rbp),%eax
    54bd:	be ff 7f 00 00       	mov    $0x7fff,%esi
    54c2:	89 c1                	mov    %eax,%ecx
    54c4:	d3 fe                	sar    %cl,%esi
    54c6:	89 f0                	mov    %esi,%eax
    54c8:	39 c2                	cmp    %eax,%edx
    54ca:	7f 0f                	jg     54db <safe_lshift_func_int16_t_s_s+0x49>
    54cc:	0f bf 55 fc          	movswl -0x4(%rbp),%edx
    54d0:	8b 45 f8             	mov    -0x8(%rbp),%eax
    54d3:	89 c1                	mov    %eax,%ecx
    54d5:	d3 e2                	shl    %cl,%edx
    54d7:	89 d0                	mov    %edx,%eax
    54d9:	eb 04                	jmp    54df <safe_lshift_func_int16_t_s_s+0x4d>
    54db:	0f b7 45 fc          	movzwl -0x4(%rbp),%eax
    54df:	5d                   	pop    %rbp
    54e0:	c3                   	retq   

00000000000054e1 <safe_lshift_func_int16_t_s_u>:
    54e1:	f3 0f 1e fa          	endbr64 
    54e5:	55                   	push   %rbp
    54e6:	48 89 e5             	mov    %rsp,%rbp
    54e9:	89 f8                	mov    %edi,%eax
    54eb:	89 75 f8             	mov    %esi,-0x8(%rbp)
    54ee:	66 89 45 fc          	mov    %ax,-0x4(%rbp)
    54f2:	66 83 7d fc 00       	cmpw   $0x0,-0x4(%rbp)
    54f7:	78 2b                	js     5524 <safe_lshift_func_int16_t_s_u+0x43>
    54f9:	83 7d f8 1f          	cmpl   $0x1f,-0x8(%rbp)
    54fd:	77 25                	ja     5524 <safe_lshift_func_int16_t_s_u+0x43>
    54ff:	0f bf 55 fc          	movswl -0x4(%rbp),%edx
    5503:	8b 45 f8             	mov    -0x8(%rbp),%eax
    5506:	be ff 7f 00 00       	mov    $0x7fff,%esi
    550b:	89 c1                	mov    %eax,%ecx
    550d:	d3 fe                	sar    %cl,%esi
    550f:	89 f0                	mov    %esi,%eax
    5511:	39 c2                	cmp    %eax,%edx
    5513:	7f 0f                	jg     5524 <safe_lshift_func_int16_t_s_u+0x43>
    5515:	0f bf 55 fc          	movswl -0x4(%rbp),%edx
    5519:	8b 45 f8             	mov    -0x8(%rbp),%eax
    551c:	89 c1                	mov    %eax,%ecx
    551e:	d3 e2                	shl    %cl,%edx
    5520:	89 d0                	mov    %edx,%eax
    5522:	eb 04                	jmp    5528 <safe_lshift_func_int16_t_s_u+0x47>
    5524:	0f b7 45 fc          	movzwl -0x4(%rbp),%eax
    5528:	5d                   	pop    %rbp
    5529:	c3                   	retq   

000000000000552a <safe_rshift_func_int16_t_s_s>:
    552a:	f3 0f 1e fa          	endbr64 
    552e:	55                   	push   %rbp
    552f:	48 89 e5             	mov    %rsp,%rbp
    5532:	89 f8                	mov    %edi,%eax
    5534:	89 75 f8             	mov    %esi,-0x8(%rbp)
    5537:	66 89 45 fc          	mov    %ax,-0x4(%rbp)
    553b:	66 83 7d fc 00       	cmpw   $0x0,-0x4(%rbp)
    5540:	78 1b                	js     555d <safe_rshift_func_int16_t_s_s+0x33>
    5542:	83 7d f8 00          	cmpl   $0x0,-0x8(%rbp)
    5546:	78 15                	js     555d <safe_rshift_func_int16_t_s_s+0x33>
    5548:	83 7d f8 1f          	cmpl   $0x1f,-0x8(%rbp)
    554c:	7f 0f                	jg     555d <safe_rshift_func_int16_t_s_s+0x33>
    554e:	0f bf 55 fc          	movswl -0x4(%rbp),%edx
    5552:	8b 45 f8             	mov    -0x8(%rbp),%eax
    5555:	89 c1                	mov    %eax,%ecx
    5557:	d3 fa                	sar    %cl,%edx
    5559:	89 d0                	mov    %edx,%eax
    555b:	eb 04                	jmp    5561 <safe_rshift_func_int16_t_s_s+0x37>
    555d:	0f b7 45 fc          	movzwl -0x4(%rbp),%eax
    5561:	5d                   	pop    %rbp
    5562:	c3                   	retq   

0000000000005563 <safe_rshift_func_int16_t_s_u>:
    5563:	f3 0f 1e fa          	endbr64 
    5567:	55                   	push   %rbp
    5568:	48 89 e5             	mov    %rsp,%rbp
    556b:	89 f8                	mov    %edi,%eax
    556d:	89 75 f8             	mov    %esi,-0x8(%rbp)
    5570:	66 89 45 fc          	mov    %ax,-0x4(%rbp)
    5574:	66 83 7d fc 00       	cmpw   $0x0,-0x4(%rbp)
    5579:	78 15                	js     5590 <safe_rshift_func_int16_t_s_u+0x2d>
    557b:	83 7d f8 1f          	cmpl   $0x1f,-0x8(%rbp)
    557f:	77 0f                	ja     5590 <safe_rshift_func_int16_t_s_u+0x2d>
    5581:	0f bf 55 fc          	movswl -0x4(%rbp),%edx
    5585:	8b 45 f8             	mov    -0x8(%rbp),%eax
    5588:	89 c1                	mov    %eax,%ecx
    558a:	d3 fa                	sar    %cl,%edx
    558c:	89 d0                	mov    %edx,%eax
    558e:	eb 04                	jmp    5594 <safe_rshift_func_int16_t_s_u+0x31>
    5590:	0f b7 45 fc          	movzwl -0x4(%rbp),%eax
    5594:	5d                   	pop    %rbp
    5595:	c3                   	retq   

0000000000005596 <safe_unary_minus_func_int32_t_s>:
    5596:	f3 0f 1e fa          	endbr64 
    559a:	55                   	push   %rbp
    559b:	48 89 e5             	mov    %rsp,%rbp
    559e:	89 7d fc             	mov    %edi,-0x4(%rbp)
    55a1:	81 7d fc 00 00 00 80 	cmpl   $0x80000000,-0x4(%rbp)
    55a8:	74 07                	je     55b1 <safe_unary_minus_func_int32_t_s+0x1b>
    55aa:	8b 45 fc             	mov    -0x4(%rbp),%eax
    55ad:	f7 d8                	neg    %eax
    55af:	eb 03                	jmp    55b4 <safe_unary_minus_func_int32_t_s+0x1e>
    55b1:	8b 45 fc             	mov    -0x4(%rbp),%eax
    55b4:	5d                   	pop    %rbp
    55b5:	c3                   	retq   

00000000000055b6 <safe_add_func_int32_t_s_s>:
    55b6:	f3 0f 1e fa          	endbr64 
    55ba:	55                   	push   %rbp
    55bb:	48 89 e5             	mov    %rsp,%rbp
    55be:	89 7d fc             	mov    %edi,-0x4(%rbp)
    55c1:	89 75 f8             	mov    %esi,-0x8(%rbp)
    55c4:	83 7d fc 00          	cmpl   $0x0,-0x4(%rbp)
    55c8:	7e 13                	jle    55dd <safe_add_func_int32_t_s_s+0x27>
    55ca:	83 7d f8 00          	cmpl   $0x0,-0x8(%rbp)
    55ce:	7e 0d                	jle    55dd <safe_add_func_int32_t_s_s+0x27>
    55d0:	b8 ff ff ff 7f       	mov    $0x7fffffff,%eax
    55d5:	2b 45 f8             	sub    -0x8(%rbp),%eax
    55d8:	39 45 fc             	cmp    %eax,-0x4(%rbp)
    55db:	7f 23                	jg     5600 <safe_add_func_int32_t_s_s+0x4a>
    55dd:	83 7d fc 00          	cmpl   $0x0,-0x4(%rbp)
    55e1:	79 13                	jns    55f6 <safe_add_func_int32_t_s_s+0x40>
    55e3:	83 7d f8 00          	cmpl   $0x0,-0x8(%rbp)
    55e7:	79 0d                	jns    55f6 <safe_add_func_int32_t_s_s+0x40>
    55e9:	b8 00 00 00 80       	mov    $0x80000000,%eax
    55ee:	2b 45 f8             	sub    -0x8(%rbp),%eax
    55f1:	39 45 fc             	cmp    %eax,-0x4(%rbp)
    55f4:	7c 0a                	jl     5600 <safe_add_func_int32_t_s_s+0x4a>
    55f6:	8b 55 fc             	mov    -0x4(%rbp),%edx
    55f9:	8b 45 f8             	mov    -0x8(%rbp),%eax
    55fc:	01 d0                	add    %edx,%eax
    55fe:	eb 03                	jmp    5603 <safe_add_func_int32_t_s_s+0x4d>
    5600:	8b 45 fc             	mov    -0x4(%rbp),%eax
    5603:	5d                   	pop    %rbp
    5604:	c3                   	retq   

0000000000005605 <safe_sub_func_int32_t_s_s>:
    5605:	f3 0f 1e fa          	endbr64 
    5609:	55                   	push   %rbp
    560a:	48 89 e5             	mov    %rsp,%rbp
    560d:	89 7d fc             	mov    %edi,-0x4(%rbp)
    5610:	89 75 f8             	mov    %esi,-0x8(%rbp)
    5613:	8b 45 fc             	mov    -0x4(%rbp),%eax
    5616:	33 45 f8             	xor    -0x8(%rbp),%eax
    5619:	89 c2                	mov    %eax,%edx
    561b:	8b 45 fc             	mov    -0x4(%rbp),%eax
    561e:	33 45 f8             	xor    -0x8(%rbp),%eax
    5621:	25 00 00 00 80       	and    $0x80000000,%eax
    5626:	33 45 fc             	xor    -0x4(%rbp),%eax
    5629:	2b 45 f8             	sub    -0x8(%rbp),%eax
    562c:	33 45 f8             	xor    -0x8(%rbp),%eax
    562f:	21 d0                	and    %edx,%eax
    5631:	85 c0                	test   %eax,%eax
    5633:	78 08                	js     563d <safe_sub_func_int32_t_s_s+0x38>
    5635:	8b 45 fc             	mov    -0x4(%rbp),%eax
    5638:	2b 45 f8             	sub    -0x8(%rbp),%eax
    563b:	eb 03                	jmp    5640 <safe_sub_func_int32_t_s_s+0x3b>
    563d:	8b 45 fc             	mov    -0x4(%rbp),%eax
    5640:	5d                   	pop    %rbp
    5641:	c3                   	retq   

0000000000005642 <safe_mul_func_int32_t_s_s>:
    5642:	f3 0f 1e fa          	endbr64 
    5646:	55                   	push   %rbp
    5647:	48 89 e5             	mov    %rsp,%rbp
    564a:	89 7d fc             	mov    %edi,-0x4(%rbp)
    564d:	89 75 f8             	mov    %esi,-0x8(%rbp)
    5650:	83 7d fc 00          	cmpl   $0x0,-0x4(%rbp)
    5654:	7e 14                	jle    566a <safe_mul_func_int32_t_s_s+0x28>
    5656:	83 7d f8 00          	cmpl   $0x0,-0x8(%rbp)
    565a:	7e 0e                	jle    566a <safe_mul_func_int32_t_s_s+0x28>
    565c:	b8 ff ff ff 7f       	mov    $0x7fffffff,%eax
    5661:	99                   	cltd   
    5662:	f7 7d f8             	idivl  -0x8(%rbp)
    5665:	39 45 fc             	cmp    %eax,-0x4(%rbp)
    5668:	7f 5d                	jg     56c7 <safe_mul_func_int32_t_s_s+0x85>
    566a:	83 7d fc 00          	cmpl   $0x0,-0x4(%rbp)
    566e:	7e 14                	jle    5684 <safe_mul_func_int32_t_s_s+0x42>
    5670:	83 7d f8 00          	cmpl   $0x0,-0x8(%rbp)
    5674:	7f 0e                	jg     5684 <safe_mul_func_int32_t_s_s+0x42>
    5676:	b8 00 00 00 80       	mov    $0x80000000,%eax
    567b:	99                   	cltd   
    567c:	f7 7d fc             	idivl  -0x4(%rbp)
    567f:	39 45 f8             	cmp    %eax,-0x8(%rbp)
    5682:	7c 43                	jl     56c7 <safe_mul_func_int32_t_s_s+0x85>
    5684:	83 7d fc 00          	cmpl   $0x0,-0x4(%rbp)
    5688:	7f 14                	jg     569e <safe_mul_func_int32_t_s_s+0x5c>
    568a:	83 7d f8 00          	cmpl   $0x0,-0x8(%rbp)
    568e:	7e 0e                	jle    569e <safe_mul_func_int32_t_s_s+0x5c>
    5690:	b8 00 00 00 80       	mov    $0x80000000,%eax
    5695:	99                   	cltd   
    5696:	f7 7d f8             	idivl  -0x8(%rbp)
    5699:	39 45 fc             	cmp    %eax,-0x4(%rbp)
    569c:	7c 29                	jl     56c7 <safe_mul_func_int32_t_s_s+0x85>
    569e:	83 7d fc 00          	cmpl   $0x0,-0x4(%rbp)
    56a2:	7f 1a                	jg     56be <safe_mul_func_int32_t_s_s+0x7c>
    56a4:	83 7d f8 00          	cmpl   $0x0,-0x8(%rbp)
    56a8:	7f 14                	jg     56be <safe_mul_func_int32_t_s_s+0x7c>
    56aa:	83 7d fc 00          	cmpl   $0x0,-0x4(%rbp)
    56ae:	74 0e                	je     56be <safe_mul_func_int32_t_s_s+0x7c>
    56b0:	b8 ff ff ff 7f       	mov    $0x7fffffff,%eax
    56b5:	99                   	cltd   
    56b6:	f7 7d fc             	idivl  -0x4(%rbp)
    56b9:	39 45 f8             	cmp    %eax,-0x8(%rbp)
    56bc:	7c 09                	jl     56c7 <safe_mul_func_int32_t_s_s+0x85>
    56be:	8b 45 fc             	mov    -0x4(%rbp),%eax
    56c1:	0f af 45 f8          	imul   -0x8(%rbp),%eax
    56c5:	eb 03                	jmp    56ca <safe_mul_func_int32_t_s_s+0x88>
    56c7:	8b 45 fc             	mov    -0x4(%rbp),%eax
    56ca:	5d                   	pop    %rbp
    56cb:	c3                   	retq   

00000000000056cc <safe_mod_func_int32_t_s_s>:
    56cc:	f3 0f 1e fa          	endbr64 
    56d0:	55                   	push   %rbp
    56d1:	48 89 e5             	mov    %rsp,%rbp
    56d4:	89 7d fc             	mov    %edi,-0x4(%rbp)
    56d7:	89 75 f8             	mov    %esi,-0x8(%rbp)
    56da:	83 7d f8 00          	cmpl   $0x0,-0x8(%rbp)
    56de:	74 1a                	je     56fa <safe_mod_func_int32_t_s_s+0x2e>
    56e0:	81 7d fc 00 00 00 80 	cmpl   $0x80000000,-0x4(%rbp)
    56e7:	75 06                	jne    56ef <safe_mod_func_int32_t_s_s+0x23>
    56e9:	83 7d f8 ff          	cmpl   $0xffffffff,-0x8(%rbp)
    56ed:	74 0b                	je     56fa <safe_mod_func_int32_t_s_s+0x2e>
    56ef:	8b 45 fc             	mov    -0x4(%rbp),%eax
    56f2:	99                   	cltd   
    56f3:	f7 7d f8             	idivl  -0x8(%rbp)
    56f6:	89 d0                	mov    %edx,%eax
    56f8:	eb 03                	jmp    56fd <safe_mod_func_int32_t_s_s+0x31>
    56fa:	8b 45 fc             	mov    -0x4(%rbp),%eax
    56fd:	5d                   	pop    %rbp
    56fe:	c3                   	retq   

00000000000056ff <safe_div_func_int32_t_s_s>:
    56ff:	f3 0f 1e fa          	endbr64 
    5703:	55                   	push   %rbp
    5704:	48 89 e5             	mov    %rsp,%rbp
    5707:	89 7d fc             	mov    %edi,-0x4(%rbp)
    570a:	89 75 f8             	mov    %esi,-0x8(%rbp)
    570d:	83 7d f8 00          	cmpl   $0x0,-0x8(%rbp)
    5711:	74 18                	je     572b <safe_div_func_int32_t_s_s+0x2c>
    5713:	81 7d fc 00 00 00 80 	cmpl   $0x80000000,-0x4(%rbp)
    571a:	75 06                	jne    5722 <safe_div_func_int32_t_s_s+0x23>
    571c:	83 7d f8 ff          	cmpl   $0xffffffff,-0x8(%rbp)
    5720:	74 09                	je     572b <safe_div_func_int32_t_s_s+0x2c>
    5722:	8b 45 fc             	mov    -0x4(%rbp),%eax
    5725:	99                   	cltd   
    5726:	f7 7d f8             	idivl  -0x8(%rbp)
    5729:	eb 03                	jmp    572e <safe_div_func_int32_t_s_s+0x2f>
    572b:	8b 45 fc             	mov    -0x4(%rbp),%eax
    572e:	5d                   	pop    %rbp
    572f:	c3                   	retq   

0000000000005730 <safe_lshift_func_int32_t_s_s>:
    5730:	f3 0f 1e fa          	endbr64 
    5734:	55                   	push   %rbp
    5735:	48 89 e5             	mov    %rsp,%rbp
    5738:	89 7d fc             	mov    %edi,-0x4(%rbp)
    573b:	89 75 f8             	mov    %esi,-0x8(%rbp)
    573e:	83 7d fc 00          	cmpl   $0x0,-0x4(%rbp)
    5742:	78 2d                	js     5771 <safe_lshift_func_int32_t_s_s+0x41>
    5744:	83 7d f8 00          	cmpl   $0x0,-0x8(%rbp)
    5748:	78 27                	js     5771 <safe_lshift_func_int32_t_s_s+0x41>
    574a:	83 7d f8 1f          	cmpl   $0x1f,-0x8(%rbp)
    574e:	7f 21                	jg     5771 <safe_lshift_func_int32_t_s_s+0x41>
    5750:	8b 45 f8             	mov    -0x8(%rbp),%eax
    5753:	ba ff ff ff 7f       	mov    $0x7fffffff,%edx
    5758:	89 c1                	mov    %eax,%ecx
    575a:	d3 fa                	sar    %cl,%edx
    575c:	89 d0                	mov    %edx,%eax
    575e:	39 45 fc             	cmp    %eax,-0x4(%rbp)
    5761:	7f 0e                	jg     5771 <safe_lshift_func_int32_t_s_s+0x41>
    5763:	8b 45 f8             	mov    -0x8(%rbp),%eax
    5766:	8b 55 fc             	mov    -0x4(%rbp),%edx
    5769:	89 c1                	mov    %eax,%ecx
    576b:	d3 e2                	shl    %cl,%edx
    576d:	89 d0                	mov    %edx,%eax
    576f:	eb 03                	jmp    5774 <safe_lshift_func_int32_t_s_s+0x44>
    5771:	8b 45 fc             	mov    -0x4(%rbp),%eax
    5774:	5d                   	pop    %rbp
    5775:	c3                   	retq   

0000000000005776 <safe_lshift_func_int32_t_s_u>:
    5776:	f3 0f 1e fa          	endbr64 
    577a:	55                   	push   %rbp
    577b:	48 89 e5             	mov    %rsp,%rbp
    577e:	89 7d fc             	mov    %edi,-0x4(%rbp)
    5781:	89 75 f8             	mov    %esi,-0x8(%rbp)
    5784:	83 7d fc 00          	cmpl   $0x0,-0x4(%rbp)
    5788:	78 27                	js     57b1 <safe_lshift_func_int32_t_s_u+0x3b>
    578a:	83 7d f8 1f          	cmpl   $0x1f,-0x8(%rbp)
    578e:	77 21                	ja     57b1 <safe_lshift_func_int32_t_s_u+0x3b>
    5790:	8b 45 f8             	mov    -0x8(%rbp),%eax
    5793:	ba ff ff ff 7f       	mov    $0x7fffffff,%edx
    5798:	89 c1                	mov    %eax,%ecx
    579a:	d3 fa                	sar    %cl,%edx
    579c:	89 d0                	mov    %edx,%eax
    579e:	39 45 fc             	cmp    %eax,-0x4(%rbp)
    57a1:	7f 0e                	jg     57b1 <safe_lshift_func_int32_t_s_u+0x3b>
    57a3:	8b 45 f8             	mov    -0x8(%rbp),%eax
    57a6:	8b 55 fc             	mov    -0x4(%rbp),%edx
    57a9:	89 c1                	mov    %eax,%ecx
    57ab:	d3 e2                	shl    %cl,%edx
    57ad:	89 d0                	mov    %edx,%eax
    57af:	eb 03                	jmp    57b4 <safe_lshift_func_int32_t_s_u+0x3e>
    57b1:	8b 45 fc             	mov    -0x4(%rbp),%eax
    57b4:	5d                   	pop    %rbp
    57b5:	c3                   	retq   

00000000000057b6 <safe_rshift_func_int32_t_s_s>:
    57b6:	f3 0f 1e fa          	endbr64 
    57ba:	55                   	push   %rbp
    57bb:	48 89 e5             	mov    %rsp,%rbp
    57be:	89 7d fc             	mov    %edi,-0x4(%rbp)
    57c1:	89 75 f8             	mov    %esi,-0x8(%rbp)
    57c4:	83 7d fc 00          	cmpl   $0x0,-0x4(%rbp)
    57c8:	78 1a                	js     57e4 <safe_rshift_func_int32_t_s_s+0x2e>
    57ca:	83 7d f8 00          	cmpl   $0x0,-0x8(%rbp)
    57ce:	78 14                	js     57e4 <safe_rshift_func_int32_t_s_s+0x2e>
    57d0:	83 7d f8 1f          	cmpl   $0x1f,-0x8(%rbp)
    57d4:	7f 0e                	jg     57e4 <safe_rshift_func_int32_t_s_s+0x2e>
    57d6:	8b 45 f8             	mov    -0x8(%rbp),%eax
    57d9:	8b 55 fc             	mov    -0x4(%rbp),%edx
    57dc:	89 c1                	mov    %eax,%ecx
    57de:	d3 fa                	sar    %cl,%edx
    57e0:	89 d0                	mov    %edx,%eax
    57e2:	eb 03                	jmp    57e7 <safe_rshift_func_int32_t_s_s+0x31>
    57e4:	8b 45 fc             	mov    -0x4(%rbp),%eax
    57e7:	5d                   	pop    %rbp
    57e8:	c3                   	retq   

00000000000057e9 <safe_rshift_func_int32_t_s_u>:
    57e9:	f3 0f 1e fa          	endbr64 
    57ed:	55                   	push   %rbp
    57ee:	48 89 e5             	mov    %rsp,%rbp
    57f1:	89 7d fc             	mov    %edi,-0x4(%rbp)
    57f4:	89 75 f8             	mov    %esi,-0x8(%rbp)
    57f7:	83 7d fc 00          	cmpl   $0x0,-0x4(%rbp)
    57fb:	78 14                	js     5811 <safe_rshift_func_int32_t_s_u+0x28>
    57fd:	83 7d f8 1f          	cmpl   $0x1f,-0x8(%rbp)
    5801:	77 0e                	ja     5811 <safe_rshift_func_int32_t_s_u+0x28>
    5803:	8b 45 f8             	mov    -0x8(%rbp),%eax
    5806:	8b 55 fc             	mov    -0x4(%rbp),%edx
    5809:	89 c1                	mov    %eax,%ecx
    580b:	d3 fa                	sar    %cl,%edx
    580d:	89 d0                	mov    %edx,%eax
    580f:	eb 03                	jmp    5814 <safe_rshift_func_int32_t_s_u+0x2b>
    5811:	8b 45 fc             	mov    -0x4(%rbp),%eax
    5814:	5d                   	pop    %rbp
    5815:	c3                   	retq   

0000000000005816 <safe_unary_minus_func_int64_t_s>:
    5816:	f3 0f 1e fa          	endbr64 
    581a:	55                   	push   %rbp
    581b:	48 89 e5             	mov    %rsp,%rbp
    581e:	48 89 7d f8          	mov    %rdi,-0x8(%rbp)
    5822:	48 b8 00 00 00 00 00 	movabs $0x8000000000000000,%rax
    5829:	00 00 80 
    582c:	48 39 45 f8          	cmp    %rax,-0x8(%rbp)
    5830:	74 09                	je     583b <safe_unary_minus_func_int64_t_s+0x25>
    5832:	48 8b 45 f8          	mov    -0x8(%rbp),%rax
    5836:	48 f7 d8             	neg    %rax
    5839:	eb 04                	jmp    583f <safe_unary_minus_func_int64_t_s+0x29>
    583b:	48 8b 45 f8          	mov    -0x8(%rbp),%rax
    583f:	5d                   	pop    %rbp
    5840:	c3                   	retq   

0000000000005841 <safe_add_func_int64_t_s_s>:
    5841:	f3 0f 1e fa          	endbr64 
    5845:	55                   	push   %rbp
    5846:	48 89 e5             	mov    %rsp,%rbp
    5849:	48 89 7d f8          	mov    %rdi,-0x8(%rbp)
    584d:	48 89 75 f0          	mov    %rsi,-0x10(%rbp)
    5851:	48 83 7d f8 00       	cmpq   $0x0,-0x8(%rbp)
    5856:	7e 1b                	jle    5873 <safe_add_func_int64_t_s_s+0x32>
    5858:	48 83 7d f0 00       	cmpq   $0x0,-0x10(%rbp)
    585d:	7e 14                	jle    5873 <safe_add_func_int64_t_s_s+0x32>
    585f:	48 b8 ff ff ff ff ff 	movabs $0x7fffffffffffffff,%rax
    5866:	ff ff 7f 
    5869:	48 2b 45 f0          	sub    -0x10(%rbp),%rax
    586d:	48 39 45 f8          	cmp    %rax,-0x8(%rbp)
    5871:	7f 2f                	jg     58a2 <safe_add_func_int64_t_s_s+0x61>
    5873:	48 83 7d f8 00       	cmpq   $0x0,-0x8(%rbp)
    5878:	79 1b                	jns    5895 <safe_add_func_int64_t_s_s+0x54>
    587a:	48 83 7d f0 00       	cmpq   $0x0,-0x10(%rbp)
    587f:	79 14                	jns    5895 <safe_add_func_int64_t_s_s+0x54>
    5881:	48 b8 00 00 00 00 00 	movabs $0x8000000000000000,%rax
    5888:	00 00 80 
    588b:	48 2b 45 f0          	sub    -0x10(%rbp),%rax
    588f:	48 39 45 f8          	cmp    %rax,-0x8(%rbp)
    5893:	7c 0d                	jl     58a2 <safe_add_func_int64_t_s_s+0x61>
    5895:	48 8b 55 f8          	mov    -0x8(%rbp),%rdx
    5899:	48 8b 45 f0          	mov    -0x10(%rbp),%rax
    589d:	48 01 d0             	add    %rdx,%rax
    58a0:	eb 04                	jmp    58a6 <safe_add_func_int64_t_s_s+0x65>
    58a2:	48 8b 45 f8          	mov    -0x8(%rbp),%rax
    58a6:	5d                   	pop    %rbp
    58a7:	c3                   	retq   

00000000000058a8 <safe_sub_func_int64_t_s_s>:
    58a8:	f3 0f 1e fa          	endbr64 
    58ac:	55                   	push   %rbp
    58ad:	48 89 e5             	mov    %rsp,%rbp
    58b0:	48 89 7d f8          	mov    %rdi,-0x8(%rbp)
    58b4:	48 89 75 f0          	mov    %rsi,-0x10(%rbp)
    58b8:	48 8b 45 f8          	mov    -0x8(%rbp),%rax
    58bc:	48 33 45 f0          	xor    -0x10(%rbp),%rax
    58c0:	48 89 c2             	mov    %rax,%rdx
    58c3:	48 8b 45 f8          	mov    -0x8(%rbp),%rax
    58c7:	48 33 45 f0          	xor    -0x10(%rbp),%rax
    58cb:	48 b9 00 00 00 00 00 	movabs $0x8000000000000000,%rcx
    58d2:	00 00 80 
    58d5:	48 21 c8             	and    %rcx,%rax
    58d8:	48 33 45 f8          	xor    -0x8(%rbp),%rax
    58dc:	48 2b 45 f0          	sub    -0x10(%rbp),%rax
    58e0:	48 33 45 f0          	xor    -0x10(%rbp),%rax
    58e4:	48 21 d0             	and    %rdx,%rax
    58e7:	48 85 c0             	test   %rax,%rax
    58ea:	78 0a                	js     58f6 <safe_sub_func_int64_t_s_s+0x4e>
    58ec:	48 8b 45 f8          	mov    -0x8(%rbp),%rax
    58f0:	48 2b 45 f0          	sub    -0x10(%rbp),%rax
    58f4:	eb 04                	jmp    58fa <safe_sub_func_int64_t_s_s+0x52>
    58f6:	48 8b 45 f8          	mov    -0x8(%rbp),%rax
    58fa:	5d                   	pop    %rbp
    58fb:	c3                   	retq   

00000000000058fc <safe_mul_func_int64_t_s_s>:
    58fc:	f3 0f 1e fa          	endbr64 
    5900:	55                   	push   %rbp
    5901:	48 89 e5             	mov    %rsp,%rbp
    5904:	48 89 7d f8          	mov    %rdi,-0x8(%rbp)
    5908:	48 89 75 f0          	mov    %rsi,-0x10(%rbp)
    590c:	48 83 7d f8 00       	cmpq   $0x0,-0x8(%rbp)
    5911:	7e 1d                	jle    5930 <safe_mul_func_int64_t_s_s+0x34>
    5913:	48 83 7d f0 00       	cmpq   $0x0,-0x10(%rbp)
    5918:	7e 16                	jle    5930 <safe_mul_func_int64_t_s_s+0x34>
    591a:	48 b8 ff ff ff ff ff 	movabs $0x7fffffffffffffff,%rax
    5921:	ff ff 7f 
    5924:	48 99                	cqto   
    5926:	48 f7 7d f0          	idivq  -0x10(%rbp)
    592a:	48 39 45 f8          	cmp    %rax,-0x8(%rbp)
    592e:	7f 7e                	jg     59ae <safe_mul_func_int64_t_s_s+0xb2>
    5930:	48 83 7d f8 00       	cmpq   $0x0,-0x8(%rbp)
    5935:	7e 1d                	jle    5954 <safe_mul_func_int64_t_s_s+0x58>
    5937:	48 83 7d f0 00       	cmpq   $0x0,-0x10(%rbp)
    593c:	7f 16                	jg     5954 <safe_mul_func_int64_t_s_s+0x58>
    593e:	48 b8 00 00 00 00 00 	movabs $0x8000000000000000,%rax
    5945:	00 00 80 
    5948:	48 99                	cqto   
    594a:	48 f7 7d f8          	idivq  -0x8(%rbp)
    594e:	48 39 45 f0          	cmp    %rax,-0x10(%rbp)
    5952:	7c 5a                	jl     59ae <safe_mul_func_int64_t_s_s+0xb2>
    5954:	48 83 7d f8 00       	cmpq   $0x0,-0x8(%rbp)
    5959:	7f 1d                	jg     5978 <safe_mul_func_int64_t_s_s+0x7c>
    595b:	48 83 7d f0 00       	cmpq   $0x0,-0x10(%rbp)
    5960:	7e 16                	jle    5978 <safe_mul_func_int64_t_s_s+0x7c>
    5962:	48 b8 00 00 00 00 00 	movabs $0x8000000000000000,%rax
    5969:	00 00 80 
    596c:	48 99                	cqto   
    596e:	48 f7 7d f0          	idivq  -0x10(%rbp)
    5972:	48 39 45 f8          	cmp    %rax,-0x8(%rbp)
    5976:	7c 36                	jl     59ae <safe_mul_func_int64_t_s_s+0xb2>
    5978:	48 83 7d f8 00       	cmpq   $0x0,-0x8(%rbp)
    597d:	7f 24                	jg     59a3 <safe_mul_func_int64_t_s_s+0xa7>
    597f:	48 83 7d f0 00       	cmpq   $0x0,-0x10(%rbp)
    5984:	7f 1d                	jg     59a3 <safe_mul_func_int64_t_s_s+0xa7>
    5986:	48 83 7d f8 00       	cmpq   $0x0,-0x8(%rbp)
    598b:	74 16                	je     59a3 <safe_mul_func_int64_t_s_s+0xa7>
    598d:	48 b8 ff ff ff ff ff 	movabs $0x7fffffffffffffff,%rax
    5994:	ff ff 7f 
    5997:	48 99                	cqto   
    5999:	48 f7 7d f8          	idivq  -0x8(%rbp)
    599d:	48 39 45 f0          	cmp    %rax,-0x10(%rbp)
    59a1:	7c 0b                	jl     59ae <safe_mul_func_int64_t_s_s+0xb2>
    59a3:	48 8b 45 f8          	mov    -0x8(%rbp),%rax
    59a7:	48 0f af 45 f0       	imul   -0x10(%rbp),%rax
    59ac:	eb 04                	jmp    59b2 <safe_mul_func_int64_t_s_s+0xb6>
    59ae:	48 8b 45 f8          	mov    -0x8(%rbp),%rax
    59b2:	5d                   	pop    %rbp
    59b3:	c3                   	retq   

00000000000059b4 <safe_mod_func_int64_t_s_s>:
    59b4:	f3 0f 1e fa          	endbr64 
    59b8:	55                   	push   %rbp
    59b9:	48 89 e5             	mov    %rsp,%rbp
    59bc:	48 89 7d f8          	mov    %rdi,-0x8(%rbp)
    59c0:	48 89 75 f0          	mov    %rsi,-0x10(%rbp)
    59c4:	48 83 7d f0 00       	cmpq   $0x0,-0x10(%rbp)
    59c9:	74 26                	je     59f1 <safe_mod_func_int64_t_s_s+0x3d>
    59cb:	48 b8 00 00 00 00 00 	movabs $0x8000000000000000,%rax
    59d2:	00 00 80 
    59d5:	48 39 45 f8          	cmp    %rax,-0x8(%rbp)
    59d9:	75 07                	jne    59e2 <safe_mod_func_int64_t_s_s+0x2e>
    59db:	48 83 7d f0 ff       	cmpq   $0xffffffffffffffff,-0x10(%rbp)
    59e0:	74 0f                	je     59f1 <safe_mod_func_int64_t_s_s+0x3d>
    59e2:	48 8b 45 f8          	mov    -0x8(%rbp),%rax
    59e6:	48 99                	cqto   
    59e8:	48 f7 7d f0          	idivq  -0x10(%rbp)
    59ec:	48 89 d0             	mov    %rdx,%rax
    59ef:	eb 04                	jmp    59f5 <safe_mod_func_int64_t_s_s+0x41>
    59f1:	48 8b 45 f8          	mov    -0x8(%rbp),%rax
    59f5:	5d                   	pop    %rbp
    59f6:	c3                   	retq   

00000000000059f7 <safe_div_func_int64_t_s_s>:
    59f7:	f3 0f 1e fa          	endbr64 
    59fb:	55                   	push   %rbp
    59fc:	48 89 e5             	mov    %rsp,%rbp
    59ff:	48 89 7d f8          	mov    %rdi,-0x8(%rbp)
    5a03:	48 89 75 f0          	mov    %rsi,-0x10(%rbp)
    5a07:	48 83 7d f0 00       	cmpq   $0x0,-0x10(%rbp)
    5a0c:	74 23                	je     5a31 <safe_div_func_int64_t_s_s+0x3a>
    5a0e:	48 b8 00 00 00 00 00 	movabs $0x8000000000000000,%rax
    5a15:	00 00 80 
    5a18:	48 39 45 f8          	cmp    %rax,-0x8(%rbp)
    5a1c:	75 07                	jne    5a25 <safe_div_func_int64_t_s_s+0x2e>
    5a1e:	48 83 7d f0 ff       	cmpq   $0xffffffffffffffff,-0x10(%rbp)
    5a23:	74 0c                	je     5a31 <safe_div_func_int64_t_s_s+0x3a>
    5a25:	48 8b 45 f8          	mov    -0x8(%rbp),%rax
    5a29:	48 99                	cqto   
    5a2b:	48 f7 7d f0          	idivq  -0x10(%rbp)
    5a2f:	eb 04                	jmp    5a35 <safe_div_func_int64_t_s_s+0x3e>
    5a31:	48 8b 45 f8          	mov    -0x8(%rbp),%rax
    5a35:	5d                   	pop    %rbp
    5a36:	c3                   	retq   

0000000000005a37 <safe_lshift_func_int64_t_s_s>:
    5a37:	f3 0f 1e fa          	endbr64 
    5a3b:	55                   	push   %rbp
    5a3c:	48 89 e5             	mov    %rsp,%rbp
    5a3f:	48 89 7d f8          	mov    %rdi,-0x8(%rbp)
    5a43:	89 75 f4             	mov    %esi,-0xc(%rbp)
    5a46:	48 83 7d f8 00       	cmpq   $0x0,-0x8(%rbp)
    5a4b:	78 38                	js     5a85 <safe_lshift_func_int64_t_s_s+0x4e>
    5a4d:	83 7d f4 00          	cmpl   $0x0,-0xc(%rbp)
    5a51:	78 32                	js     5a85 <safe_lshift_func_int64_t_s_s+0x4e>
    5a53:	83 7d f4 1f          	cmpl   $0x1f,-0xc(%rbp)
    5a57:	7f 2c                	jg     5a85 <safe_lshift_func_int64_t_s_s+0x4e>
    5a59:	8b 45 f4             	mov    -0xc(%rbp),%eax
    5a5c:	48 ba ff ff ff ff ff 	movabs $0x7fffffffffffffff,%rdx
    5a63:	ff ff 7f 
    5a66:	89 c1                	mov    %eax,%ecx
    5a68:	48 d3 fa             	sar    %cl,%rdx
    5a6b:	48 89 d0             	mov    %rdx,%rax
    5a6e:	48 39 45 f8          	cmp    %rax,-0x8(%rbp)
    5a72:	7f 11                	jg     5a85 <safe_lshift_func_int64_t_s_s+0x4e>
    5a74:	8b 45 f4             	mov    -0xc(%rbp),%eax
    5a77:	48 8b 55 f8          	mov    -0x8(%rbp),%rdx
    5a7b:	89 c1                	mov    %eax,%ecx
    5a7d:	48 d3 e2             	shl    %cl,%rdx
    5a80:	48 89 d0             	mov    %rdx,%rax
    5a83:	eb 04                	jmp    5a89 <safe_lshift_func_int64_t_s_s+0x52>
    5a85:	48 8b 45 f8          	mov    -0x8(%rbp),%rax
    5a89:	5d                   	pop    %rbp
    5a8a:	c3                   	retq   

0000000000005a8b <safe_lshift_func_int64_t_s_u>:
    5a8b:	f3 0f 1e fa          	endbr64 
    5a8f:	55                   	push   %rbp
    5a90:	48 89 e5             	mov    %rsp,%rbp
    5a93:	48 89 7d f8          	mov    %rdi,-0x8(%rbp)
    5a97:	89 75 f4             	mov    %esi,-0xc(%rbp)
    5a9a:	48 83 7d f8 00       	cmpq   $0x0,-0x8(%rbp)
    5a9f:	78 32                	js     5ad3 <safe_lshift_func_int64_t_s_u+0x48>
    5aa1:	83 7d f4 1f          	cmpl   $0x1f,-0xc(%rbp)
    5aa5:	77 2c                	ja     5ad3 <safe_lshift_func_int64_t_s_u+0x48>
    5aa7:	8b 45 f4             	mov    -0xc(%rbp),%eax
    5aaa:	48 ba ff ff ff ff ff 	movabs $0x7fffffffffffffff,%rdx
    5ab1:	ff ff 7f 
    5ab4:	89 c1                	mov    %eax,%ecx
    5ab6:	48 d3 fa             	sar    %cl,%rdx
    5ab9:	48 89 d0             	mov    %rdx,%rax
    5abc:	48 39 45 f8          	cmp    %rax,-0x8(%rbp)
    5ac0:	7f 11                	jg     5ad3 <safe_lshift_func_int64_t_s_u+0x48>
    5ac2:	8b 45 f4             	mov    -0xc(%rbp),%eax
    5ac5:	48 8b 55 f8          	mov    -0x8(%rbp),%rdx
    5ac9:	89 c1                	mov    %eax,%ecx
    5acb:	48 d3 e2             	shl    %cl,%rdx
    5ace:	48 89 d0             	mov    %rdx,%rax
    5ad1:	eb 04                	jmp    5ad7 <safe_lshift_func_int64_t_s_u+0x4c>
    5ad3:	48 8b 45 f8          	mov    -0x8(%rbp),%rax
    5ad7:	5d                   	pop    %rbp
    5ad8:	c3                   	retq   

0000000000005ad9 <safe_rshift_func_int64_t_s_s>:
    5ad9:	f3 0f 1e fa          	endbr64 
    5add:	55                   	push   %rbp
    5ade:	48 89 e5             	mov    %rsp,%rbp
    5ae1:	48 89 7d f8          	mov    %rdi,-0x8(%rbp)
    5ae5:	89 75 f4             	mov    %esi,-0xc(%rbp)
    5ae8:	48 83 7d f8 00       	cmpq   $0x0,-0x8(%rbp)
    5aed:	78 1d                	js     5b0c <safe_rshift_func_int64_t_s_s+0x33>
    5aef:	83 7d f4 00          	cmpl   $0x0,-0xc(%rbp)
    5af3:	78 17                	js     5b0c <safe_rshift_func_int64_t_s_s+0x33>
    5af5:	83 7d f4 1f          	cmpl   $0x1f,-0xc(%rbp)
    5af9:	7f 11                	jg     5b0c <safe_rshift_func_int64_t_s_s+0x33>
    5afb:	8b 45 f4             	mov    -0xc(%rbp),%eax
    5afe:	48 8b 55 f8          	mov    -0x8(%rbp),%rdx
    5b02:	89 c1                	mov    %eax,%ecx
    5b04:	48 d3 fa             	sar    %cl,%rdx
    5b07:	48 89 d0             	mov    %rdx,%rax
    5b0a:	eb 04                	jmp    5b10 <safe_rshift_func_int64_t_s_s+0x37>
    5b0c:	48 8b 45 f8          	mov    -0x8(%rbp),%rax
    5b10:	5d                   	pop    %rbp
    5b11:	c3                   	retq   

0000000000005b12 <safe_rshift_func_int64_t_s_u>:
    5b12:	f3 0f 1e fa          	endbr64 
    5b16:	55                   	push   %rbp
    5b17:	48 89 e5             	mov    %rsp,%rbp
    5b1a:	48 89 7d f8          	mov    %rdi,-0x8(%rbp)
    5b1e:	89 75 f4             	mov    %esi,-0xc(%rbp)
    5b21:	48 83 7d f8 00       	cmpq   $0x0,-0x8(%rbp)
    5b26:	78 17                	js     5b3f <safe_rshift_func_int64_t_s_u+0x2d>
    5b28:	83 7d f4 1f          	cmpl   $0x1f,-0xc(%rbp)
    5b2c:	77 11                	ja     5b3f <safe_rshift_func_int64_t_s_u+0x2d>
    5b2e:	8b 45 f4             	mov    -0xc(%rbp),%eax
    5b31:	48 8b 55 f8          	mov    -0x8(%rbp),%rdx
    5b35:	89 c1                	mov    %eax,%ecx
    5b37:	48 d3 fa             	sar    %cl,%rdx
    5b3a:	48 89 d0             	mov    %rdx,%rax
    5b3d:	eb 04                	jmp    5b43 <safe_rshift_func_int64_t_s_u+0x31>
    5b3f:	48 8b 45 f8          	mov    -0x8(%rbp),%rax
    5b43:	5d                   	pop    %rbp
    5b44:	c3                   	retq   

0000000000005b45 <safe_unary_minus_func_uint8_t_u>:
    5b45:	f3 0f 1e fa          	endbr64 
    5b49:	55                   	push   %rbp
    5b4a:	48 89 e5             	mov    %rsp,%rbp
    5b4d:	89 f8                	mov    %edi,%eax
    5b4f:	88 45 fc             	mov    %al,-0x4(%rbp)
    5b52:	0f b6 45 fc          	movzbl -0x4(%rbp),%eax
    5b56:	f7 d8                	neg    %eax
    5b58:	5d                   	pop    %rbp
    5b59:	c3                   	retq   

0000000000005b5a <safe_add_func_uint8_t_u_u>:
    5b5a:	f3 0f 1e fa          	endbr64 
    5b5e:	55                   	push   %rbp
    5b5f:	48 89 e5             	mov    %rsp,%rbp
    5b62:	89 fa                	mov    %edi,%edx
    5b64:	89 f0                	mov    %esi,%eax
    5b66:	88 55 fc             	mov    %dl,-0x4(%rbp)
    5b69:	88 45 f8             	mov    %al,-0x8(%rbp)
    5b6c:	0f b6 55 fc          	movzbl -0x4(%rbp),%edx
    5b70:	0f b6 45 f8          	movzbl -0x8(%rbp),%eax
    5b74:	01 d0                	add    %edx,%eax
    5b76:	5d                   	pop    %rbp
    5b77:	c3                   	retq   

0000000000005b78 <safe_sub_func_uint8_t_u_u>:
    5b78:	f3 0f 1e fa          	endbr64 
    5b7c:	55                   	push   %rbp
    5b7d:	48 89 e5             	mov    %rsp,%rbp
    5b80:	89 fa                	mov    %edi,%edx
    5b82:	89 f0                	mov    %esi,%eax
    5b84:	88 55 fc             	mov    %dl,-0x4(%rbp)
    5b87:	88 45 f8             	mov    %al,-0x8(%rbp)
    5b8a:	0f b6 45 fc          	movzbl -0x4(%rbp),%eax
    5b8e:	2a 45 f8             	sub    -0x8(%rbp),%al
    5b91:	5d                   	pop    %rbp
    5b92:	c3                   	retq   

0000000000005b93 <safe_mul_func_uint8_t_u_u>:
    5b93:	f3 0f 1e fa          	endbr64 
    5b97:	55                   	push   %rbp
    5b98:	48 89 e5             	mov    %rsp,%rbp
    5b9b:	89 fa                	mov    %edi,%edx
    5b9d:	89 f0                	mov    %esi,%eax
    5b9f:	88 55 fc             	mov    %dl,-0x4(%rbp)
    5ba2:	88 45 f8             	mov    %al,-0x8(%rbp)
    5ba5:	0f b6 45 fc          	movzbl -0x4(%rbp),%eax
    5ba9:	f6 65 f8             	mulb   -0x8(%rbp)
    5bac:	5d                   	pop    %rbp
    5bad:	c3                   	retq   

0000000000005bae <safe_mod_func_uint8_t_u_u>:
    5bae:	f3 0f 1e fa          	endbr64 
    5bb2:	55                   	push   %rbp
    5bb3:	48 89 e5             	mov    %rsp,%rbp
    5bb6:	89 fa                	mov    %edi,%edx
    5bb8:	89 f0                	mov    %esi,%eax
    5bba:	88 55 fc             	mov    %dl,-0x4(%rbp)
    5bbd:	88 45 f8             	mov    %al,-0x8(%rbp)
    5bc0:	80 7d f8 00          	cmpb   $0x0,-0x8(%rbp)
    5bc4:	74 0f                	je     5bd5 <safe_mod_func_uint8_t_u_u+0x27>
    5bc6:	0f b6 45 fc          	movzbl -0x4(%rbp),%eax
    5bca:	0f b6 c0             	movzbl %al,%eax
    5bcd:	f6 75 f8             	divb   -0x8(%rbp)
    5bd0:	0f b6 c4             	movzbl %ah,%eax
    5bd3:	eb 04                	jmp    5bd9 <safe_mod_func_uint8_t_u_u+0x2b>
    5bd5:	0f b6 45 fc          	movzbl -0x4(%rbp),%eax
    5bd9:	5d                   	pop    %rbp
    5bda:	c3                   	retq   

0000000000005bdb <safe_div_func_uint8_t_u_u>:
    5bdb:	f3 0f 1e fa          	endbr64 
    5bdf:	55                   	push   %rbp
    5be0:	48 89 e5             	mov    %rsp,%rbp
    5be3:	89 fa                	mov    %edi,%edx
    5be5:	89 f0                	mov    %esi,%eax
    5be7:	88 55 fc             	mov    %dl,-0x4(%rbp)
    5bea:	88 45 f8             	mov    %al,-0x8(%rbp)
    5bed:	80 7d f8 00          	cmpb   $0x0,-0x8(%rbp)
    5bf1:	74 0c                	je     5bff <safe_div_func_uint8_t_u_u+0x24>
    5bf3:	0f b6 45 fc          	movzbl -0x4(%rbp),%eax
    5bf7:	0f b6 c0             	movzbl %al,%eax
    5bfa:	f6 75 f8             	divb   -0x8(%rbp)
    5bfd:	eb 04                	jmp    5c03 <safe_div_func_uint8_t_u_u+0x28>
    5bff:	0f b6 45 fc          	movzbl -0x4(%rbp),%eax
    5c03:	5d                   	pop    %rbp
    5c04:	c3                   	retq   

0000000000005c05 <safe_lshift_func_uint8_t_u_s>:
    5c05:	f3 0f 1e fa          	endbr64 
    5c09:	55                   	push   %rbp
    5c0a:	48 89 e5             	mov    %rsp,%rbp
    5c0d:	89 f8                	mov    %edi,%eax
    5c0f:	89 75 f8             	mov    %esi,-0x8(%rbp)
    5c12:	88 45 fc             	mov    %al,-0x4(%rbp)
    5c15:	83 7d f8 00          	cmpl   $0x0,-0x8(%rbp)
    5c19:	78 2b                	js     5c46 <safe_lshift_func_uint8_t_u_s+0x41>
    5c1b:	83 7d f8 1f          	cmpl   $0x1f,-0x8(%rbp)
    5c1f:	7f 25                	jg     5c46 <safe_lshift_func_uint8_t_u_s+0x41>
    5c21:	0f b6 55 fc          	movzbl -0x4(%rbp),%edx
    5c25:	8b 45 f8             	mov    -0x8(%rbp),%eax
    5c28:	be ff 00 00 00       	mov    $0xff,%esi
    5c2d:	89 c1                	mov    %eax,%ecx
    5c2f:	d3 fe                	sar    %cl,%esi
    5c31:	89 f0                	mov    %esi,%eax
    5c33:	39 c2                	cmp    %eax,%edx
    5c35:	7f 0f                	jg     5c46 <safe_lshift_func_uint8_t_u_s+0x41>
    5c37:	0f b6 55 fc          	movzbl -0x4(%rbp),%edx
    5c3b:	8b 45 f8             	mov    -0x8(%rbp),%eax
    5c3e:	89 c1                	mov    %eax,%ecx
    5c40:	d3 e2                	shl    %cl,%edx
    5c42:	89 d0                	mov    %edx,%eax
    5c44:	eb 04                	jmp    5c4a <safe_lshift_func_uint8_t_u_s+0x45>
    5c46:	0f b6 45 fc          	movzbl -0x4(%rbp),%eax
    5c4a:	5d                   	pop    %rbp
    5c4b:	c3                   	retq   

0000000000005c4c <safe_lshift_func_uint8_t_u_u>:
    5c4c:	f3 0f 1e fa          	endbr64 
    5c50:	55                   	push   %rbp
    5c51:	48 89 e5             	mov    %rsp,%rbp
    5c54:	89 f8                	mov    %edi,%eax
    5c56:	89 75 f8             	mov    %esi,-0x8(%rbp)
    5c59:	88 45 fc             	mov    %al,-0x4(%rbp)
    5c5c:	83 7d f8 1f          	cmpl   $0x1f,-0x8(%rbp)
    5c60:	77 25                	ja     5c87 <safe_lshift_func_uint8_t_u_u+0x3b>
    5c62:	0f b6 55 fc          	movzbl -0x4(%rbp),%edx
    5c66:	8b 45 f8             	mov    -0x8(%rbp),%eax
    5c69:	be ff 00 00 00       	mov    $0xff,%esi
    5c6e:	89 c1                	mov    %eax,%ecx
    5c70:	d3 fe                	sar    %cl,%esi
    5c72:	89 f0                	mov    %esi,%eax
    5c74:	39 c2                	cmp    %eax,%edx
    5c76:	7f 0f                	jg     5c87 <safe_lshift_func_uint8_t_u_u+0x3b>
    5c78:	0f b6 55 fc          	movzbl -0x4(%rbp),%edx
    5c7c:	8b 45 f8             	mov    -0x8(%rbp),%eax
    5c7f:	89 c1                	mov    %eax,%ecx
    5c81:	d3 e2                	shl    %cl,%edx
    5c83:	89 d0                	mov    %edx,%eax
    5c85:	eb 04                	jmp    5c8b <safe_lshift_func_uint8_t_u_u+0x3f>
    5c87:	0f b6 45 fc          	movzbl -0x4(%rbp),%eax
    5c8b:	5d                   	pop    %rbp
    5c8c:	c3                   	retq   

0000000000005c8d <safe_rshift_func_uint8_t_u_s>:
    5c8d:	f3 0f 1e fa          	endbr64 
    5c91:	55                   	push   %rbp
    5c92:	48 89 e5             	mov    %rsp,%rbp
    5c95:	89 f8                	mov    %edi,%eax
    5c97:	89 75 f8             	mov    %esi,-0x8(%rbp)
    5c9a:	88 45 fc             	mov    %al,-0x4(%rbp)
    5c9d:	83 7d f8 00          	cmpl   $0x0,-0x8(%rbp)
    5ca1:	78 15                	js     5cb8 <safe_rshift_func_uint8_t_u_s+0x2b>
    5ca3:	83 7d f8 1f          	cmpl   $0x1f,-0x8(%rbp)
    5ca7:	7f 0f                	jg     5cb8 <safe_rshift_func_uint8_t_u_s+0x2b>
    5ca9:	0f b6 55 fc          	movzbl -0x4(%rbp),%edx
    5cad:	8b 45 f8             	mov    -0x8(%rbp),%eax
    5cb0:	89 c1                	mov    %eax,%ecx
    5cb2:	d3 fa                	sar    %cl,%edx
    5cb4:	89 d0                	mov    %edx,%eax
    5cb6:	eb 04                	jmp    5cbc <safe_rshift_func_uint8_t_u_s+0x2f>
    5cb8:	0f b6 45 fc          	movzbl -0x4(%rbp),%eax
    5cbc:	5d                   	pop    %rbp
    5cbd:	c3                   	retq   

0000000000005cbe <safe_rshift_func_uint8_t_u_u>:
    5cbe:	f3 0f 1e fa          	endbr64 
    5cc2:	55                   	push   %rbp
    5cc3:	48 89 e5             	mov    %rsp,%rbp
    5cc6:	89 f8                	mov    %edi,%eax
    5cc8:	89 75 f8             	mov    %esi,-0x8(%rbp)
    5ccb:	88 45 fc             	mov    %al,-0x4(%rbp)
    5cce:	83 7d f8 1f          	cmpl   $0x1f,-0x8(%rbp)
    5cd2:	77 0f                	ja     5ce3 <safe_rshift_func_uint8_t_u_u+0x25>
    5cd4:	0f b6 55 fc          	movzbl -0x4(%rbp),%edx
    5cd8:	8b 45 f8             	mov    -0x8(%rbp),%eax
    5cdb:	89 c1                	mov    %eax,%ecx
    5cdd:	d3 fa                	sar    %cl,%edx
    5cdf:	89 d0                	mov    %edx,%eax
    5ce1:	eb 04                	jmp    5ce7 <safe_rshift_func_uint8_t_u_u+0x29>
    5ce3:	0f b6 45 fc          	movzbl -0x4(%rbp),%eax
    5ce7:	5d                   	pop    %rbp
    5ce8:	c3                   	retq   

0000000000005ce9 <safe_unary_minus_func_uint16_t_u>:
    5ce9:	f3 0f 1e fa          	endbr64 
    5ced:	55                   	push   %rbp
    5cee:	48 89 e5             	mov    %rsp,%rbp
    5cf1:	89 f8                	mov    %edi,%eax
    5cf3:	66 89 45 fc          	mov    %ax,-0x4(%rbp)
    5cf7:	0f b7 45 fc          	movzwl -0x4(%rbp),%eax
    5cfb:	f7 d8                	neg    %eax
    5cfd:	5d                   	pop    %rbp
    5cfe:	c3                   	retq   

0000000000005cff <safe_add_func_uint16_t_u_u>:
    5cff:	f3 0f 1e fa          	endbr64 
    5d03:	55                   	push   %rbp
    5d04:	48 89 e5             	mov    %rsp,%rbp
    5d07:	89 fa                	mov    %edi,%edx
    5d09:	89 f0                	mov    %esi,%eax
    5d0b:	66 89 55 fc          	mov    %dx,-0x4(%rbp)
    5d0f:	66 89 45 f8          	mov    %ax,-0x8(%rbp)
    5d13:	0f b7 55 fc          	movzwl -0x4(%rbp),%edx
    5d17:	0f b7 45 f8          	movzwl -0x8(%rbp),%eax
    5d1b:	01 d0                	add    %edx,%eax
    5d1d:	5d                   	pop    %rbp
    5d1e:	c3                   	retq   

0000000000005d1f <safe_sub_func_uint16_t_u_u>:
    5d1f:	f3 0f 1e fa          	endbr64 
    5d23:	55                   	push   %rbp
    5d24:	48 89 e5             	mov    %rsp,%rbp
    5d27:	89 fa                	mov    %edi,%edx
    5d29:	89 f0                	mov    %esi,%eax
    5d2b:	66 89 55 fc          	mov    %dx,-0x4(%rbp)
    5d2f:	66 89 45 f8          	mov    %ax,-0x8(%rbp)
    5d33:	0f b7 45 fc          	movzwl -0x4(%rbp),%eax
    5d37:	66 2b 45 f8          	sub    -0x8(%rbp),%ax
    5d3b:	5d                   	pop    %rbp
    5d3c:	c3                   	retq   

0000000000005d3d <safe_mul_func_uint16_t_u_u>:
    5d3d:	f3 0f 1e fa          	endbr64 
    5d41:	55                   	push   %rbp
    5d42:	48 89 e5             	mov    %rsp,%rbp
    5d45:	89 fa                	mov    %edi,%edx
    5d47:	89 f0                	mov    %esi,%eax
    5d49:	66 89 55 fc          	mov    %dx,-0x4(%rbp)
    5d4d:	66 89 45 f8          	mov    %ax,-0x8(%rbp)
    5d51:	0f b7 45 fc          	movzwl -0x4(%rbp),%eax
    5d55:	66 0f af 45 f8       	imul   -0x8(%rbp),%ax
    5d5a:	5d                   	pop    %rbp
    5d5b:	c3                   	retq   

0000000000005d5c <safe_mod_func_uint16_t_u_u>:
    5d5c:	f3 0f 1e fa          	endbr64 
    5d60:	55                   	push   %rbp
    5d61:	48 89 e5             	mov    %rsp,%rbp
    5d64:	89 fa                	mov    %edi,%edx
    5d66:	89 f0                	mov    %esi,%eax
    5d68:	66 89 55 fc          	mov    %dx,-0x4(%rbp)
    5d6c:	66 89 45 f8          	mov    %ax,-0x8(%rbp)
    5d70:	66 83 7d f8 00       	cmpw   $0x0,-0x8(%rbp)
    5d75:	74 11                	je     5d88 <safe_mod_func_uint16_t_u_u+0x2c>
    5d77:	0f b7 45 fc          	movzwl -0x4(%rbp),%eax
    5d7b:	ba 00 00 00 00       	mov    $0x0,%edx
    5d80:	66 f7 75 f8          	divw   -0x8(%rbp)
    5d84:	89 d0                	mov    %edx,%eax
    5d86:	eb 04                	jmp    5d8c <safe_mod_func_uint16_t_u_u+0x30>
    5d88:	0f b7 45 fc          	movzwl -0x4(%rbp),%eax
    5d8c:	5d                   	pop    %rbp
    5d8d:	c3                   	retq   

0000000000005d8e <safe_div_func_uint16_t_u_u>:
    5d8e:	f3 0f 1e fa          	endbr64 
    5d92:	55                   	push   %rbp
    5d93:	48 89 e5             	mov    %rsp,%rbp
    5d96:	89 fa                	mov    %edi,%edx
    5d98:	89 f0                	mov    %esi,%eax
    5d9a:	66 89 55 fc          	mov    %dx,-0x4(%rbp)
    5d9e:	66 89 45 f8          	mov    %ax,-0x8(%rbp)
    5da2:	66 83 7d f8 00       	cmpw   $0x0,-0x8(%rbp)
    5da7:	74 0f                	je     5db8 <safe_div_func_uint16_t_u_u+0x2a>
    5da9:	0f b7 45 fc          	movzwl -0x4(%rbp),%eax
    5dad:	ba 00 00 00 00       	mov    $0x0,%edx
    5db2:	66 f7 75 f8          	divw   -0x8(%rbp)
    5db6:	eb 04                	jmp    5dbc <safe_div_func_uint16_t_u_u+0x2e>
    5db8:	0f b7 45 fc          	movzwl -0x4(%rbp),%eax
    5dbc:	5d                   	pop    %rbp
    5dbd:	c3                   	retq   

0000000000005dbe <safe_lshift_func_uint16_t_u_s>:
    5dbe:	f3 0f 1e fa          	endbr64 
    5dc2:	55                   	push   %rbp
    5dc3:	48 89 e5             	mov    %rsp,%rbp
    5dc6:	89 f8                	mov    %edi,%eax
    5dc8:	89 75 f8             	mov    %esi,-0x8(%rbp)
    5dcb:	66 89 45 fc          	mov    %ax,-0x4(%rbp)
    5dcf:	83 7d f8 00          	cmpl   $0x0,-0x8(%rbp)
    5dd3:	78 2b                	js     5e00 <safe_lshift_func_uint16_t_u_s+0x42>
    5dd5:	83 7d f8 1f          	cmpl   $0x1f,-0x8(%rbp)
    5dd9:	7f 25                	jg     5e00 <safe_lshift_func_uint16_t_u_s+0x42>
    5ddb:	0f b7 55 fc          	movzwl -0x4(%rbp),%edx
    5ddf:	8b 45 f8             	mov    -0x8(%rbp),%eax
    5de2:	be ff ff 00 00       	mov    $0xffff,%esi
    5de7:	89 c1                	mov    %eax,%ecx
    5de9:	d3 fe                	sar    %cl,%esi
    5deb:	89 f0                	mov    %esi,%eax
    5ded:	39 c2                	cmp    %eax,%edx
    5def:	7f 0f                	jg     5e00 <safe_lshift_func_uint16_t_u_s+0x42>
    5df1:	0f b7 55 fc          	movzwl -0x4(%rbp),%edx
    5df5:	8b 45 f8             	mov    -0x8(%rbp),%eax
    5df8:	89 c1                	mov    %eax,%ecx
    5dfa:	d3 e2                	shl    %cl,%edx
    5dfc:	89 d0                	mov    %edx,%eax
    5dfe:	eb 04                	jmp    5e04 <safe_lshift_func_uint16_t_u_s+0x46>
    5e00:	0f b7 45 fc          	movzwl -0x4(%rbp),%eax
    5e04:	5d                   	pop    %rbp
    5e05:	c3                   	retq   

0000000000005e06 <safe_lshift_func_uint16_t_u_u>:
    5e06:	f3 0f 1e fa          	endbr64 
    5e0a:	55                   	push   %rbp
    5e0b:	48 89 e5             	mov    %rsp,%rbp
    5e0e:	89 f8                	mov    %edi,%eax
    5e10:	89 75 f8             	mov    %esi,-0x8(%rbp)
    5e13:	66 89 45 fc          	mov    %ax,-0x4(%rbp)
    5e17:	83 7d f8 1f          	cmpl   $0x1f,-0x8(%rbp)
    5e1b:	77 25                	ja     5e42 <safe_lshift_func_uint16_t_u_u+0x3c>
    5e1d:	0f b7 55 fc          	movzwl -0x4(%rbp),%edx
    5e21:	8b 45 f8             	mov    -0x8(%rbp),%eax
    5e24:	be ff ff 00 00       	mov    $0xffff,%esi
    5e29:	89 c1                	mov    %eax,%ecx
    5e2b:	d3 fe                	sar    %cl,%esi
    5e2d:	89 f0                	mov    %esi,%eax
    5e2f:	39 c2                	cmp    %eax,%edx
    5e31:	7f 0f                	jg     5e42 <safe_lshift_func_uint16_t_u_u+0x3c>
    5e33:	0f b7 55 fc          	movzwl -0x4(%rbp),%edx
    5e37:	8b 45 f8             	mov    -0x8(%rbp),%eax
    5e3a:	89 c1                	mov    %eax,%ecx
    5e3c:	d3 e2                	shl    %cl,%edx
    5e3e:	89 d0                	mov    %edx,%eax
    5e40:	eb 04                	jmp    5e46 <safe_lshift_func_uint16_t_u_u+0x40>
    5e42:	0f b7 45 fc          	movzwl -0x4(%rbp),%eax
    5e46:	5d                   	pop    %rbp
    5e47:	c3                   	retq   

0000000000005e48 <safe_rshift_func_uint16_t_u_s>:
    5e48:	f3 0f 1e fa          	endbr64 
    5e4c:	55                   	push   %rbp
    5e4d:	48 89 e5             	mov    %rsp,%rbp
    5e50:	89 f8                	mov    %edi,%eax
    5e52:	89 75 f8             	mov    %esi,-0x8(%rbp)
    5e55:	66 89 45 fc          	mov    %ax,-0x4(%rbp)
    5e59:	83 7d f8 00          	cmpl   $0x0,-0x8(%rbp)
    5e5d:	78 15                	js     5e74 <safe_rshift_func_uint16_t_u_s+0x2c>
    5e5f:	83 7d f8 1f          	cmpl   $0x1f,-0x8(%rbp)
    5e63:	7f 0f                	jg     5e74 <safe_rshift_func_uint16_t_u_s+0x2c>
    5e65:	0f b7 55 fc          	movzwl -0x4(%rbp),%edx
    5e69:	8b 45 f8             	mov    -0x8(%rbp),%eax
    5e6c:	89 c1                	mov    %eax,%ecx
    5e6e:	d3 fa                	sar    %cl,%edx
    5e70:	89 d0                	mov    %edx,%eax
    5e72:	eb 04                	jmp    5e78 <safe_rshift_func_uint16_t_u_s+0x30>
    5e74:	0f b7 45 fc          	movzwl -0x4(%rbp),%eax
    5e78:	5d                   	pop    %rbp
    5e79:	c3                   	retq   

0000000000005e7a <safe_rshift_func_uint16_t_u_u>:
    5e7a:	f3 0f 1e fa          	endbr64 
    5e7e:	55                   	push   %rbp
    5e7f:	48 89 e5             	mov    %rsp,%rbp
    5e82:	89 f8                	mov    %edi,%eax
    5e84:	89 75 f8             	mov    %esi,-0x8(%rbp)
    5e87:	66 89 45 fc          	mov    %ax,-0x4(%rbp)
    5e8b:	83 7d f8 1f          	cmpl   $0x1f,-0x8(%rbp)
    5e8f:	77 0f                	ja     5ea0 <safe_rshift_func_uint16_t_u_u+0x26>
    5e91:	0f b7 55 fc          	movzwl -0x4(%rbp),%edx
    5e95:	8b 45 f8             	mov    -0x8(%rbp),%eax
    5e98:	89 c1                	mov    %eax,%ecx
    5e9a:	d3 fa                	sar    %cl,%edx
    5e9c:	89 d0                	mov    %edx,%eax
    5e9e:	eb 04                	jmp    5ea4 <safe_rshift_func_uint16_t_u_u+0x2a>
    5ea0:	0f b7 45 fc          	movzwl -0x4(%rbp),%eax
    5ea4:	5d                   	pop    %rbp
    5ea5:	c3                   	retq   

0000000000005ea6 <safe_unary_minus_func_uint32_t_u>:
    5ea6:	f3 0f 1e fa          	endbr64 
    5eaa:	55                   	push   %rbp
    5eab:	48 89 e5             	mov    %rsp,%rbp
    5eae:	89 7d fc             	mov    %edi,-0x4(%rbp)
    5eb1:	8b 45 fc             	mov    -0x4(%rbp),%eax
    5eb4:	f7 d8                	neg    %eax
    5eb6:	5d                   	pop    %rbp
    5eb7:	c3                   	retq   

0000000000005eb8 <safe_add_func_uint32_t_u_u>:
    5eb8:	f3 0f 1e fa          	endbr64 
    5ebc:	55                   	push   %rbp
    5ebd:	48 89 e5             	mov    %rsp,%rbp
    5ec0:	89 7d fc             	mov    %edi,-0x4(%rbp)
    5ec3:	89 75 f8             	mov    %esi,-0x8(%rbp)
    5ec6:	8b 55 fc             	mov    -0x4(%rbp),%edx
    5ec9:	8b 45 f8             	mov    -0x8(%rbp),%eax
    5ecc:	01 d0                	add    %edx,%eax
    5ece:	5d                   	pop    %rbp
    5ecf:	c3                   	retq   

0000000000005ed0 <safe_sub_func_uint32_t_u_u>:
    5ed0:	f3 0f 1e fa          	endbr64 
    5ed4:	55                   	push   %rbp
    5ed5:	48 89 e5             	mov    %rsp,%rbp
    5ed8:	89 7d fc             	mov    %edi,-0x4(%rbp)
    5edb:	89 75 f8             	mov    %esi,-0x8(%rbp)
    5ede:	8b 45 fc             	mov    -0x4(%rbp),%eax
    5ee1:	2b 45 f8             	sub    -0x8(%rbp),%eax
    5ee4:	5d                   	pop    %rbp
    5ee5:	c3                   	retq   

0000000000005ee6 <safe_mul_func_uint32_t_u_u>:
    5ee6:	f3 0f 1e fa          	endbr64 
    5eea:	55                   	push   %rbp
    5eeb:	48 89 e5             	mov    %rsp,%rbp
    5eee:	89 7d fc             	mov    %edi,-0x4(%rbp)
    5ef1:	89 75 f8             	mov    %esi,-0x8(%rbp)
    5ef4:	8b 45 fc             	mov    -0x4(%rbp),%eax
    5ef7:	0f af 45 f8          	imul   -0x8(%rbp),%eax
    5efb:	5d                   	pop    %rbp
    5efc:	c3                   	retq   

0000000000005efd <safe_mod_func_uint32_t_u_u>:
    5efd:	f3 0f 1e fa          	endbr64 
    5f01:	55                   	push   %rbp
    5f02:	48 89 e5             	mov    %rsp,%rbp
    5f05:	89 7d fc             	mov    %edi,-0x4(%rbp)
    5f08:	89 75 f8             	mov    %esi,-0x8(%rbp)
    5f0b:	83 7d f8 00          	cmpl   $0x0,-0x8(%rbp)
    5f0f:	74 0f                	je     5f20 <safe_mod_func_uint32_t_u_u+0x23>
    5f11:	8b 45 fc             	mov    -0x4(%rbp),%eax
    5f14:	ba 00 00 00 00       	mov    $0x0,%edx
    5f19:	f7 75 f8             	divl   -0x8(%rbp)
    5f1c:	89 d0                	mov    %edx,%eax
    5f1e:	eb 03                	jmp    5f23 <safe_mod_func_uint32_t_u_u+0x26>
    5f20:	8b 45 fc             	mov    -0x4(%rbp),%eax
    5f23:	5d                   	pop    %rbp
    5f24:	c3                   	retq   

0000000000005f25 <safe_div_func_uint32_t_u_u>:
    5f25:	f3 0f 1e fa          	endbr64 
    5f29:	55                   	push   %rbp
    5f2a:	48 89 e5             	mov    %rsp,%rbp
    5f2d:	89 7d fc             	mov    %edi,-0x4(%rbp)
    5f30:	89 75 f8             	mov    %esi,-0x8(%rbp)
    5f33:	83 7d f8 00          	cmpl   $0x0,-0x8(%rbp)
    5f37:	74 0d                	je     5f46 <safe_div_func_uint32_t_u_u+0x21>
    5f39:	8b 45 fc             	mov    -0x4(%rbp),%eax
    5f3c:	ba 00 00 00 00       	mov    $0x0,%edx
    5f41:	f7 75 f8             	divl   -0x8(%rbp)
    5f44:	eb 03                	jmp    5f49 <safe_div_func_uint32_t_u_u+0x24>
    5f46:	8b 45 fc             	mov    -0x4(%rbp),%eax
    5f49:	5d                   	pop    %rbp
    5f4a:	c3                   	retq   

0000000000005f4b <safe_lshift_func_uint32_t_u_s>:
    5f4b:	f3 0f 1e fa          	endbr64 
    5f4f:	55                   	push   %rbp
    5f50:	48 89 e5             	mov    %rsp,%rbp
    5f53:	89 7d fc             	mov    %edi,-0x4(%rbp)
    5f56:	89 75 f8             	mov    %esi,-0x8(%rbp)
    5f59:	83 7d f8 00          	cmpl   $0x0,-0x8(%rbp)
    5f5d:	78 27                	js     5f86 <safe_lshift_func_uint32_t_u_s+0x3b>
    5f5f:	83 7d f8 1f          	cmpl   $0x1f,-0x8(%rbp)
    5f63:	7f 21                	jg     5f86 <safe_lshift_func_uint32_t_u_s+0x3b>
    5f65:	8b 45 f8             	mov    -0x8(%rbp),%eax
    5f68:	ba ff ff ff ff       	mov    $0xffffffff,%edx
    5f6d:	89 c1                	mov    %eax,%ecx
    5f6f:	d3 ea                	shr    %cl,%edx
    5f71:	89 d0                	mov    %edx,%eax
    5f73:	39 45 fc             	cmp    %eax,-0x4(%rbp)
    5f76:	77 0e                	ja     5f86 <safe_lshift_func_uint32_t_u_s+0x3b>
    5f78:	8b 45 f8             	mov    -0x8(%rbp),%eax
    5f7b:	8b 55 fc             	mov    -0x4(%rbp),%edx
    5f7e:	89 c1                	mov    %eax,%ecx
    5f80:	d3 e2                	shl    %cl,%edx
    5f82:	89 d0                	mov    %edx,%eax
    5f84:	eb 03                	jmp    5f89 <safe_lshift_func_uint32_t_u_s+0x3e>
    5f86:	8b 45 fc             	mov    -0x4(%rbp),%eax
    5f89:	5d                   	pop    %rbp
    5f8a:	c3                   	retq   

0000000000005f8b <safe_lshift_func_uint32_t_u_u>:
    5f8b:	f3 0f 1e fa          	endbr64 
    5f8f:	55                   	push   %rbp
    5f90:	48 89 e5             	mov    %rsp,%rbp
    5f93:	89 7d fc             	mov    %edi,-0x4(%rbp)
    5f96:	89 75 f8             	mov    %esi,-0x8(%rbp)
    5f99:	83 7d f8 1f          	cmpl   $0x1f,-0x8(%rbp)
    5f9d:	77 21                	ja     5fc0 <safe_lshift_func_uint32_t_u_u+0x35>
    5f9f:	8b 45 f8             	mov    -0x8(%rbp),%eax
    5fa2:	ba ff ff ff ff       	mov    $0xffffffff,%edx
    5fa7:	89 c1                	mov    %eax,%ecx
    5fa9:	d3 ea                	shr    %cl,%edx
    5fab:	89 d0                	mov    %edx,%eax
    5fad:	39 45 fc             	cmp    %eax,-0x4(%rbp)
    5fb0:	77 0e                	ja     5fc0 <safe_lshift_func_uint32_t_u_u+0x35>
    5fb2:	8b 45 f8             	mov    -0x8(%rbp),%eax
    5fb5:	8b 55 fc             	mov    -0x4(%rbp),%edx
    5fb8:	89 c1                	mov    %eax,%ecx
    5fba:	d3 e2                	shl    %cl,%edx
    5fbc:	89 d0                	mov    %edx,%eax
    5fbe:	eb 03                	jmp    5fc3 <safe_lshift_func_uint32_t_u_u+0x38>
    5fc0:	8b 45 fc             	mov    -0x4(%rbp),%eax
    5fc3:	5d                   	pop    %rbp
    5fc4:	c3                   	retq   

0000000000005fc5 <safe_rshift_func_uint32_t_u_s>:
    5fc5:	f3 0f 1e fa          	endbr64 
    5fc9:	55                   	push   %rbp
    5fca:	48 89 e5             	mov    %rsp,%rbp
    5fcd:	89 7d fc             	mov    %edi,-0x4(%rbp)
    5fd0:	89 75 f8             	mov    %esi,-0x8(%rbp)
    5fd3:	83 7d f8 00          	cmpl   $0x0,-0x8(%rbp)
    5fd7:	78 14                	js     5fed <safe_rshift_func_uint32_t_u_s+0x28>
    5fd9:	83 7d f8 1f          	cmpl   $0x1f,-0x8(%rbp)
    5fdd:	7f 0e                	jg     5fed <safe_rshift_func_uint32_t_u_s+0x28>
    5fdf:	8b 45 f8             	mov    -0x8(%rbp),%eax
    5fe2:	8b 55 fc             	mov    -0x4(%rbp),%edx
    5fe5:	89 c1                	mov    %eax,%ecx
    5fe7:	d3 ea                	shr    %cl,%edx
    5fe9:	89 d0                	mov    %edx,%eax
    5feb:	eb 03                	jmp    5ff0 <safe_rshift_func_uint32_t_u_s+0x2b>
    5fed:	8b 45 fc             	mov    -0x4(%rbp),%eax
    5ff0:	5d                   	pop    %rbp
    5ff1:	c3                   	retq   

0000000000005ff2 <safe_rshift_func_uint32_t_u_u>:
    5ff2:	f3 0f 1e fa          	endbr64 
    5ff6:	55                   	push   %rbp
    5ff7:	48 89 e5             	mov    %rsp,%rbp
    5ffa:	89 7d fc             	mov    %edi,-0x4(%rbp)
    5ffd:	89 75 f8             	mov    %esi,-0x8(%rbp)
    6000:	83 7d f8 1f          	cmpl   $0x1f,-0x8(%rbp)
    6004:	77 0e                	ja     6014 <safe_rshift_func_uint32_t_u_u+0x22>
    6006:	8b 45 f8             	mov    -0x8(%rbp),%eax
    6009:	8b 55 fc             	mov    -0x4(%rbp),%edx
    600c:	89 c1                	mov    %eax,%ecx
    600e:	d3 ea                	shr    %cl,%edx
    6010:	89 d0                	mov    %edx,%eax
    6012:	eb 03                	jmp    6017 <safe_rshift_func_uint32_t_u_u+0x25>
    6014:	8b 45 fc             	mov    -0x4(%rbp),%eax
    6017:	5d                   	pop    %rbp
    6018:	c3                   	retq   

0000000000006019 <safe_unary_minus_func_uint64_t_u>:
    6019:	f3 0f 1e fa          	endbr64 
    601d:	55                   	push   %rbp
    601e:	48 89 e5             	mov    %rsp,%rbp
    6021:	48 89 7d f8          	mov    %rdi,-0x8(%rbp)
    6025:	48 8b 45 f8          	mov    -0x8(%rbp),%rax
    6029:	48 f7 d8             	neg    %rax
    602c:	5d                   	pop    %rbp
    602d:	c3                   	retq   

000000000000602e <safe_add_func_uint64_t_u_u>:
    602e:	f3 0f 1e fa          	endbr64 
    6032:	55                   	push   %rbp
    6033:	48 89 e5             	mov    %rsp,%rbp
    6036:	48 89 7d f8          	mov    %rdi,-0x8(%rbp)
    603a:	48 89 75 f0          	mov    %rsi,-0x10(%rbp)
    603e:	48 8b 55 f8          	mov    -0x8(%rbp),%rdx
    6042:	48 8b 45 f0          	mov    -0x10(%rbp),%rax
    6046:	48 01 d0             	add    %rdx,%rax
    6049:	5d                   	pop    %rbp
    604a:	c3                   	retq   

000000000000604b <safe_sub_func_uint64_t_u_u>:
    604b:	f3 0f 1e fa          	endbr64 
    604f:	55                   	push   %rbp
    6050:	48 89 e5             	mov    %rsp,%rbp
    6053:	48 89 7d f8          	mov    %rdi,-0x8(%rbp)
    6057:	48 89 75 f0          	mov    %rsi,-0x10(%rbp)
    605b:	48 8b 45 f8          	mov    -0x8(%rbp),%rax
    605f:	48 2b 45 f0          	sub    -0x10(%rbp),%rax
    6063:	5d                   	pop    %rbp
    6064:	c3                   	retq   

0000000000006065 <safe_mul_func_uint64_t_u_u>:
    6065:	f3 0f 1e fa          	endbr64 
    6069:	55                   	push   %rbp
    606a:	48 89 e5             	mov    %rsp,%rbp
    606d:	48 89 7d f8          	mov    %rdi,-0x8(%rbp)
    6071:	48 89 75 f0          	mov    %rsi,-0x10(%rbp)
    6075:	48 8b 45 f8          	mov    -0x8(%rbp),%rax
    6079:	48 0f af 45 f0       	imul   -0x10(%rbp),%rax
    607e:	5d                   	pop    %rbp
    607f:	c3                   	retq   

0000000000006080 <safe_mod_func_uint64_t_u_u>:
    6080:	f3 0f 1e fa          	endbr64 
    6084:	55                   	push   %rbp
    6085:	48 89 e5             	mov    %rsp,%rbp
    6088:	48 89 7d f8          	mov    %rdi,-0x8(%rbp)
    608c:	48 89 75 f0          	mov    %rsi,-0x10(%rbp)
    6090:	48 83 7d f0 00       	cmpq   $0x0,-0x10(%rbp)
    6095:	74 12                	je     60a9 <safe_mod_func_uint64_t_u_u+0x29>
    6097:	48 8b 45 f8          	mov    -0x8(%rbp),%rax
    609b:	ba 00 00 00 00       	mov    $0x0,%edx
    60a0:	48 f7 75 f0          	divq   -0x10(%rbp)
    60a4:	48 89 d0             	mov    %rdx,%rax
    60a7:	eb 04                	jmp    60ad <safe_mod_func_uint64_t_u_u+0x2d>
    60a9:	48 8b 45 f8          	mov    -0x8(%rbp),%rax
    60ad:	5d                   	pop    %rbp
    60ae:	c3                   	retq   

00000000000060af <safe_div_func_uint64_t_u_u>:
    60af:	f3 0f 1e fa          	endbr64 
    60b3:	55                   	push   %rbp
    60b4:	48 89 e5             	mov    %rsp,%rbp
    60b7:	48 89 7d f8          	mov    %rdi,-0x8(%rbp)
    60bb:	48 89 75 f0          	mov    %rsi,-0x10(%rbp)
    60bf:	48 83 7d f0 00       	cmpq   $0x0,-0x10(%rbp)
    60c4:	74 0f                	je     60d5 <safe_div_func_uint64_t_u_u+0x26>
    60c6:	48 8b 45 f8          	mov    -0x8(%rbp),%rax
    60ca:	ba 00 00 00 00       	mov    $0x0,%edx
    60cf:	48 f7 75 f0          	divq   -0x10(%rbp)
    60d3:	eb 04                	jmp    60d9 <safe_div_func_uint64_t_u_u+0x2a>
    60d5:	48 8b 45 f8          	mov    -0x8(%rbp),%rax
    60d9:	5d                   	pop    %rbp
    60da:	c3                   	retq   

00000000000060db <safe_lshift_func_uint64_t_u_s>:
    60db:	f3 0f 1e fa          	endbr64 
    60df:	55                   	push   %rbp
    60e0:	48 89 e5             	mov    %rsp,%rbp
    60e3:	48 89 7d f8          	mov    %rdi,-0x8(%rbp)
    60e7:	89 75 f4             	mov    %esi,-0xc(%rbp)
    60ea:	83 7d f4 00          	cmpl   $0x0,-0xc(%rbp)
    60ee:	78 2f                	js     611f <safe_lshift_func_uint64_t_u_s+0x44>
    60f0:	83 7d f4 1f          	cmpl   $0x1f,-0xc(%rbp)
    60f4:	7f 29                	jg     611f <safe_lshift_func_uint64_t_u_s+0x44>
    60f6:	8b 45 f4             	mov    -0xc(%rbp),%eax
    60f9:	48 c7 c2 ff ff ff ff 	mov    $0xffffffffffffffff,%rdx
    6100:	89 c1                	mov    %eax,%ecx
    6102:	48 d3 ea             	shr    %cl,%rdx
    6105:	48 89 d0             	mov    %rdx,%rax
    6108:	48 39 45 f8          	cmp    %rax,-0x8(%rbp)
    610c:	77 11                	ja     611f <safe_lshift_func_uint64_t_u_s+0x44>
    610e:	8b 45 f4             	mov    -0xc(%rbp),%eax
    6111:	48 8b 55 f8          	mov    -0x8(%rbp),%rdx
    6115:	89 c1                	mov    %eax,%ecx
    6117:	48 d3 e2             	shl    %cl,%rdx
    611a:	48 89 d0             	mov    %rdx,%rax
    611d:	eb 04                	jmp    6123 <safe_lshift_func_uint64_t_u_s+0x48>
    611f:	48 8b 45 f8          	mov    -0x8(%rbp),%rax
    6123:	5d                   	pop    %rbp
    6124:	c3                   	retq   

0000000000006125 <safe_lshift_func_uint64_t_u_u>:
    6125:	f3 0f 1e fa          	endbr64 
    6129:	55                   	push   %rbp
    612a:	48 89 e5             	mov    %rsp,%rbp
    612d:	48 89 7d f8          	mov    %rdi,-0x8(%rbp)
    6131:	89 75 f4             	mov    %esi,-0xc(%rbp)
    6134:	83 7d f4 1f          	cmpl   $0x1f,-0xc(%rbp)
    6138:	77 29                	ja     6163 <safe_lshift_func_uint64_t_u_u+0x3e>
    613a:	8b 45 f4             	mov    -0xc(%rbp),%eax
    613d:	48 c7 c2 ff ff ff ff 	mov    $0xffffffffffffffff,%rdx
    6144:	89 c1                	mov    %eax,%ecx
    6146:	48 d3 ea             	shr    %cl,%rdx
    6149:	48 89 d0             	mov    %rdx,%rax
    614c:	48 39 45 f8          	cmp    %rax,-0x8(%rbp)
    6150:	77 11                	ja     6163 <safe_lshift_func_uint64_t_u_u+0x3e>
    6152:	8b 45 f4             	mov    -0xc(%rbp),%eax
    6155:	48 8b 55 f8          	mov    -0x8(%rbp),%rdx
    6159:	89 c1                	mov    %eax,%ecx
    615b:	48 d3 e2             	shl    %cl,%rdx
    615e:	48 89 d0             	mov    %rdx,%rax
    6161:	eb 04                	jmp    6167 <safe_lshift_func_uint64_t_u_u+0x42>
    6163:	48 8b 45 f8          	mov    -0x8(%rbp),%rax
    6167:	5d                   	pop    %rbp
    6168:	c3                   	retq   

0000000000006169 <safe_rshift_func_uint64_t_u_s>:
    6169:	f3 0f 1e fa          	endbr64 
    616d:	55                   	push   %rbp
    616e:	48 89 e5             	mov    %rsp,%rbp
    6171:	48 89 7d f8          	mov    %rdi,-0x8(%rbp)
    6175:	89 75 f4             	mov    %esi,-0xc(%rbp)
    6178:	83 7d f4 00          	cmpl   $0x0,-0xc(%rbp)
    617c:	78 17                	js     6195 <safe_rshift_func_uint64_t_u_s+0x2c>
    617e:	83 7d f4 1f          	cmpl   $0x1f,-0xc(%rbp)
    6182:	7f 11                	jg     6195 <safe_rshift_func_uint64_t_u_s+0x2c>
    6184:	8b 45 f4             	mov    -0xc(%rbp),%eax
    6187:	48 8b 55 f8          	mov    -0x8(%rbp),%rdx
    618b:	89 c1                	mov    %eax,%ecx
    618d:	48 d3 ea             	shr    %cl,%rdx
    6190:	48 89 d0             	mov    %rdx,%rax
    6193:	eb 04                	jmp    6199 <safe_rshift_func_uint64_t_u_s+0x30>
    6195:	48 8b 45 f8          	mov    -0x8(%rbp),%rax
    6199:	5d                   	pop    %rbp
    619a:	c3                   	retq   

000000000000619b <safe_rshift_func_uint64_t_u_u>:
    619b:	f3 0f 1e fa          	endbr64 
    619f:	55                   	push   %rbp
    61a0:	48 89 e5             	mov    %rsp,%rbp
    61a3:	48 89 7d f8          	mov    %rdi,-0x8(%rbp)
    61a7:	89 75 f4             	mov    %esi,-0xc(%rbp)
    61aa:	83 7d f4 1f          	cmpl   $0x1f,-0xc(%rbp)
    61ae:	77 11                	ja     61c1 <safe_rshift_func_uint64_t_u_u+0x26>
    61b0:	8b 45 f4             	mov    -0xc(%rbp),%eax
    61b3:	48 8b 55 f8          	mov    -0x8(%rbp),%rdx
    61b7:	89 c1                	mov    %eax,%ecx
    61b9:	48 d3 ea             	shr    %cl,%rdx
    61bc:	48 89 d0             	mov    %rdx,%rax
    61bf:	eb 04                	jmp    61c5 <safe_rshift_func_uint64_t_u_u+0x2a>
    61c1:	48 8b 45 f8          	mov    -0x8(%rbp),%rax
    61c5:	5d                   	pop    %rbp
    61c6:	c3                   	retq   

00000000000061c7 <safe_add_func_float_f_f>:
    61c7:	f3 0f 1e fa          	endbr64 
    61cb:	55                   	push   %rbp
    61cc:	48 89 e5             	mov    %rsp,%rbp
    61cf:	f3 0f 11 45 fc       	movss  %xmm0,-0x4(%rbp)
    61d4:	f3 0f 11 4d f8       	movss  %xmm1,-0x8(%rbp)
    61d9:	f3 0f 10 4d fc       	movss  -0x4(%rbp),%xmm1
    61de:	f3 0f 10 05 ea e6 00 	movss  0xe6ea(%rip),%xmm0        # 148d0 <l_2533.4312+0x3f0>
    61e5:	00 
    61e6:	f3 0f 59 c8          	mulss  %xmm0,%xmm1
    61ea:	f3 0f 10 55 f8       	movss  -0x8(%rbp),%xmm2
    61ef:	f3 0f 10 05 d9 e6 00 	movss  0xe6d9(%rip),%xmm0        # 148d0 <l_2533.4312+0x3f0>
    61f6:	00 
    61f7:	f3 0f 59 c2          	mulss  %xmm2,%xmm0
    61fb:	f3 0f 58 c1          	addss  %xmm1,%xmm0
    61ff:	f3 0f 10 0d d9 e6 00 	movss  0xe6d9(%rip),%xmm1        # 148e0 <l_2533.4312+0x400>
    6206:	00 
    6207:	0f 54 c1             	andps  %xmm1,%xmm0
    620a:	0f 2f 05 df e6 00 00 	comiss 0xe6df(%rip),%xmm0        # 148f0 <l_2533.4312+0x410>
    6211:	76 07                	jbe    621a <safe_add_func_float_f_f+0x53>
    6213:	f3 0f 10 45 fc       	movss  -0x4(%rbp),%xmm0
    6218:	eb 0a                	jmp    6224 <safe_add_func_float_f_f+0x5d>
    621a:	f3 0f 10 45 fc       	movss  -0x4(%rbp),%xmm0
    621f:	f3 0f 58 45 f8       	addss  -0x8(%rbp),%xmm0
    6224:	5d                   	pop    %rbp
    6225:	c3                   	retq   

0000000000006226 <safe_sub_func_float_f_f>:
    6226:	f3 0f 1e fa          	endbr64 
    622a:	55                   	push   %rbp
    622b:	48 89 e5             	mov    %rsp,%rbp
    622e:	f3 0f 11 45 fc       	movss  %xmm0,-0x4(%rbp)
    6233:	f3 0f 11 4d f8       	movss  %xmm1,-0x8(%rbp)
    6238:	f3 0f 10 4d fc       	movss  -0x4(%rbp),%xmm1
    623d:	f3 0f 10 05 8b e6 00 	movss  0xe68b(%rip),%xmm0        # 148d0 <l_2533.4312+0x3f0>
    6244:	00 
    6245:	f3 0f 59 c1          	mulss  %xmm1,%xmm0
    6249:	f3 0f 10 55 f8       	movss  -0x8(%rbp),%xmm2
    624e:	f3 0f 10 0d 7a e6 00 	movss  0xe67a(%rip),%xmm1        # 148d0 <l_2533.4312+0x3f0>
    6255:	00 
    6256:	f3 0f 59 ca          	mulss  %xmm2,%xmm1
    625a:	f3 0f 5c c1          	subss  %xmm1,%xmm0
    625e:	f3 0f 10 0d 7a e6 00 	movss  0xe67a(%rip),%xmm1        # 148e0 <l_2533.4312+0x400>
    6265:	00 
    6266:	0f 54 c1             	andps  %xmm1,%xmm0
    6269:	0f 2f 05 80 e6 00 00 	comiss 0xe680(%rip),%xmm0        # 148f0 <l_2533.4312+0x410>
    6270:	76 07                	jbe    6279 <safe_sub_func_float_f_f+0x53>
    6272:	f3 0f 10 45 fc       	movss  -0x4(%rbp),%xmm0
    6277:	eb 0a                	jmp    6283 <safe_sub_func_float_f_f+0x5d>
    6279:	f3 0f 10 45 fc       	movss  -0x4(%rbp),%xmm0
    627e:	f3 0f 5c 45 f8       	subss  -0x8(%rbp),%xmm0
    6283:	5d                   	pop    %rbp
    6284:	c3                   	retq   

0000000000006285 <safe_mul_func_float_f_f>:
    6285:	f3 0f 1e fa          	endbr64 
    6289:	55                   	push   %rbp
    628a:	48 89 e5             	mov    %rsp,%rbp
    628d:	f3 0f 11 45 fc       	movss  %xmm0,-0x4(%rbp)
    6292:	f3 0f 11 4d f8       	movss  %xmm1,-0x8(%rbp)
    6297:	f3 0f 10 4d fc       	movss  -0x4(%rbp),%xmm1
    629c:	f3 0f 10 05 50 e6 00 	movss  0xe650(%rip),%xmm0        # 148f4 <l_2533.4312+0x414>
    62a3:	00 
    62a4:	f3 0f 59 c8          	mulss  %xmm0,%xmm1
    62a8:	f3 0f 10 55 f8       	movss  -0x8(%rbp),%xmm2
    62ad:	f3 0f 10 05 43 e6 00 	movss  0xe643(%rip),%xmm0        # 148f8 <l_2533.4312+0x418>
    62b4:	00 
    62b5:	f3 0f 59 c2          	mulss  %xmm2,%xmm0
    62b9:	f3 0f 59 c1          	mulss  %xmm1,%xmm0
    62bd:	f3 0f 10 0d 1b e6 00 	movss  0xe61b(%rip),%xmm1        # 148e0 <l_2533.4312+0x400>
    62c4:	00 
    62c5:	0f 54 c1             	andps  %xmm1,%xmm0
    62c8:	0f 2f 05 2d e6 00 00 	comiss 0xe62d(%rip),%xmm0        # 148fc <l_2533.4312+0x41c>
    62cf:	76 07                	jbe    62d8 <safe_mul_func_float_f_f+0x53>
    62d1:	f3 0f 10 45 fc       	movss  -0x4(%rbp),%xmm0
    62d6:	eb 0a                	jmp    62e2 <safe_mul_func_float_f_f+0x5d>
    62d8:	f3 0f 10 45 fc       	movss  -0x4(%rbp),%xmm0
    62dd:	f3 0f 59 45 f8       	mulss  -0x8(%rbp),%xmm0
    62e2:	5d                   	pop    %rbp
    62e3:	c3                   	retq   

00000000000062e4 <safe_div_func_float_f_f>:
    62e4:	f3 0f 1e fa          	endbr64 
    62e8:	55                   	push   %rbp
    62e9:	48 89 e5             	mov    %rsp,%rbp
    62ec:	f3 0f 11 45 fc       	movss  %xmm0,-0x4(%rbp)
    62f1:	f3 0f 11 4d f8       	movss  %xmm1,-0x8(%rbp)
    62f6:	f3 0f 10 45 f8       	movss  -0x8(%rbp),%xmm0
    62fb:	f3 0f 10 0d dd e5 00 	movss  0xe5dd(%rip),%xmm1        # 148e0 <l_2533.4312+0x400>
    6302:	00 
    6303:	0f 54 c8             	andps  %xmm0,%xmm1
    6306:	f3 0f 10 05 f2 e5 00 	movss  0xe5f2(%rip),%xmm0        # 14900 <l_2533.4312+0x420>
    630d:	00 
    630e:	0f 2f c1             	comiss %xmm1,%xmm0
    6311:	0f 97 c0             	seta   %al
    6314:	83 f0 01             	xor    $0x1,%eax
    6317:	84 c0                	test   %al,%al
    6319:	75 56                	jne    6371 <safe_div_func_float_f_f+0x8d>
    631b:	66 0f ef c0          	pxor   %xmm0,%xmm0
    631f:	0f 2e 45 f8          	ucomiss -0x8(%rbp),%xmm0
    6323:	7a 0a                	jp     632f <safe_div_func_float_f_f+0x4b>
    6325:	66 0f ef c0          	pxor   %xmm0,%xmm0
    6329:	0f 2e 45 f8          	ucomiss -0x8(%rbp),%xmm0
    632d:	74 4e                	je     637d <safe_div_func_float_f_f+0x99>
    632f:	f3 0f 10 4d fc       	movss  -0x4(%rbp),%xmm1
    6334:	f3 0f 10 05 c8 e5 00 	movss  0xe5c8(%rip),%xmm0        # 14904 <l_2533.4312+0x424>
    633b:	00 
    633c:	f3 0f 59 c1          	mulss  %xmm1,%xmm0
    6340:	f3 0f 10 55 f8       	movss  -0x8(%rbp),%xmm2
    6345:	f3 0f 10 0d bb e5 00 	movss  0xe5bb(%rip),%xmm1        # 14908 <l_2533.4312+0x428>
    634c:	00 
    634d:	f3 0f 59 ca          	mulss  %xmm2,%xmm1
    6351:	f3 0f 5e c1          	divss  %xmm1,%xmm0
    6355:	f3 0f 10 0d 83 e5 00 	movss  0xe583(%rip),%xmm1        # 148e0 <l_2533.4312+0x400>
    635c:	00 
    635d:	0f 54 c1             	andps  %xmm1,%xmm0
    6360:	0f 2f 05 a5 e5 00 00 	comiss 0xe5a5(%rip),%xmm0        # 1490c <l_2533.4312+0x42c>
    6367:	0f 97 c0             	seta   %al
    636a:	83 f0 01             	xor    $0x1,%eax
    636d:	84 c0                	test   %al,%al
    636f:	74 0c                	je     637d <safe_div_func_float_f_f+0x99>
    6371:	f3 0f 10 45 fc       	movss  -0x4(%rbp),%xmm0
    6376:	f3 0f 5e 45 f8       	divss  -0x8(%rbp),%xmm0
    637b:	eb 05                	jmp    6382 <safe_div_func_float_f_f+0x9e>
    637d:	f3 0f 10 45 fc       	movss  -0x4(%rbp),%xmm0
    6382:	5d                   	pop    %rbp
    6383:	c3                   	retq   

0000000000006384 <safe_add_func_double_f_f>:
    6384:	f3 0f 1e fa          	endbr64 
    6388:	55                   	push   %rbp
    6389:	48 89 e5             	mov    %rsp,%rbp
    638c:	f2 0f 11 45 f8       	movsd  %xmm0,-0x8(%rbp)
    6391:	f2 0f 11 4d f0       	movsd  %xmm1,-0x10(%rbp)
    6396:	f2 0f 10 4d f8       	movsd  -0x8(%rbp),%xmm1
    639b:	f2 0f 10 05 6d e5 00 	movsd  0xe56d(%rip),%xmm0        # 14910 <l_2533.4312+0x430>
    63a2:	00 
    63a3:	f2 0f 59 c8          	mulsd  %xmm0,%xmm1
    63a7:	f2 0f 10 55 f0       	movsd  -0x10(%rbp),%xmm2
    63ac:	f2 0f 10 05 5c e5 00 	movsd  0xe55c(%rip),%xmm0        # 14910 <l_2533.4312+0x430>
    63b3:	00 
    63b4:	f2 0f 59 c2          	mulsd  %xmm2,%xmm0
    63b8:	f2 0f 58 c1          	addsd  %xmm1,%xmm0
    63bc:	f3 0f 7e 0d 5c e5 00 	movq   0xe55c(%rip),%xmm1        # 14920 <l_2533.4312+0x440>
    63c3:	00 
    63c4:	66 0f 54 c1          	andpd  %xmm1,%xmm0
    63c8:	66 0f 2f 05 60 e5 00 	comisd 0xe560(%rip),%xmm0        # 14930 <l_2533.4312+0x450>
    63cf:	00 
    63d0:	76 07                	jbe    63d9 <safe_add_func_double_f_f+0x55>
    63d2:	f2 0f 10 45 f8       	movsd  -0x8(%rbp),%xmm0
    63d7:	eb 0a                	jmp    63e3 <safe_add_func_double_f_f+0x5f>
    63d9:	f2 0f 10 45 f8       	movsd  -0x8(%rbp),%xmm0
    63de:	f2 0f 58 45 f0       	addsd  -0x10(%rbp),%xmm0
    63e3:	5d                   	pop    %rbp
    63e4:	c3                   	retq   

00000000000063e5 <safe_sub_func_double_f_f>:
    63e5:	f3 0f 1e fa          	endbr64 
    63e9:	55                   	push   %rbp
    63ea:	48 89 e5             	mov    %rsp,%rbp
    63ed:	f2 0f 11 45 f8       	movsd  %xmm0,-0x8(%rbp)
    63f2:	f2 0f 11 4d f0       	movsd  %xmm1,-0x10(%rbp)
    63f7:	f2 0f 10 4d f8       	movsd  -0x8(%rbp),%xmm1
    63fc:	f2 0f 10 05 0c e5 00 	movsd  0xe50c(%rip),%xmm0        # 14910 <l_2533.4312+0x430>
    6403:	00 
    6404:	f2 0f 59 c1          	mulsd  %xmm1,%xmm0
    6408:	f2 0f 10 55 f0       	movsd  -0x10(%rbp),%xmm2
    640d:	f2 0f 10 0d fb e4 00 	movsd  0xe4fb(%rip),%xmm1        # 14910 <l_2533.4312+0x430>
    6414:	00 
    6415:	f2 0f 59 ca          	mulsd  %xmm2,%xmm1
    6419:	f2 0f 5c c1          	subsd  %xmm1,%xmm0
    641d:	f3 0f 7e 0d fb e4 00 	movq   0xe4fb(%rip),%xmm1        # 14920 <l_2533.4312+0x440>
    6424:	00 
    6425:	66 0f 54 c1          	andpd  %xmm1,%xmm0
    6429:	66 0f 2f 05 ff e4 00 	comisd 0xe4ff(%rip),%xmm0        # 14930 <l_2533.4312+0x450>
    6430:	00 
    6431:	76 07                	jbe    643a <safe_sub_func_double_f_f+0x55>
    6433:	f2 0f 10 45 f8       	movsd  -0x8(%rbp),%xmm0
    6438:	eb 0a                	jmp    6444 <safe_sub_func_double_f_f+0x5f>
    643a:	f2 0f 10 45 f8       	movsd  -0x8(%rbp),%xmm0
    643f:	f2 0f 5c 45 f0       	subsd  -0x10(%rbp),%xmm0
    6444:	5d                   	pop    %rbp
    6445:	c3                   	retq   

0000000000006446 <safe_mul_func_double_f_f>:
    6446:	f3 0f 1e fa          	endbr64 
    644a:	55                   	push   %rbp
    644b:	48 89 e5             	mov    %rsp,%rbp
    644e:	f2 0f 11 45 f8       	movsd  %xmm0,-0x8(%rbp)
    6453:	f2 0f 11 4d f0       	movsd  %xmm1,-0x10(%rbp)
    6458:	f2 0f 10 4d f8       	movsd  -0x8(%rbp),%xmm1
    645d:	f2 0f 10 05 d3 e4 00 	movsd  0xe4d3(%rip),%xmm0        # 14938 <l_2533.4312+0x458>
    6464:	00 
    6465:	f2 0f 59 c8          	mulsd  %xmm0,%xmm1
    6469:	f2 0f 10 55 f0       	movsd  -0x10(%rbp),%xmm2
    646e:	f2 0f 10 05 ca e4 00 	movsd  0xe4ca(%rip),%xmm0        # 14940 <l_2533.4312+0x460>
    6475:	00 
    6476:	f2 0f 59 c2          	mulsd  %xmm2,%xmm0
    647a:	f2 0f 59 c1          	mulsd  %xmm1,%xmm0
    647e:	f3 0f 7e 0d 9a e4 00 	movq   0xe49a(%rip),%xmm1        # 14920 <l_2533.4312+0x440>
    6485:	00 
    6486:	66 0f 54 c1          	andpd  %xmm1,%xmm0
    648a:	66 0f 2f 05 b6 e4 00 	comisd 0xe4b6(%rip),%xmm0        # 14948 <l_2533.4312+0x468>
    6491:	00 
    6492:	76 07                	jbe    649b <safe_mul_func_double_f_f+0x55>
    6494:	f2 0f 10 45 f8       	movsd  -0x8(%rbp),%xmm0
    6499:	eb 0a                	jmp    64a5 <safe_mul_func_double_f_f+0x5f>
    649b:	f2 0f 10 45 f8       	movsd  -0x8(%rbp),%xmm0
    64a0:	f2 0f 59 45 f0       	mulsd  -0x10(%rbp),%xmm0
    64a5:	5d                   	pop    %rbp
    64a6:	c3                   	retq   

00000000000064a7 <safe_div_func_double_f_f>:
    64a7:	f3 0f 1e fa          	endbr64 
    64ab:	55                   	push   %rbp
    64ac:	48 89 e5             	mov    %rsp,%rbp
    64af:	f2 0f 11 45 f8       	movsd  %xmm0,-0x8(%rbp)
    64b4:	f2 0f 11 4d f0       	movsd  %xmm1,-0x10(%rbp)
    64b9:	f2 0f 10 45 f0       	movsd  -0x10(%rbp),%xmm0
    64be:	f3 0f 7e 0d 5a e4 00 	movq   0xe45a(%rip),%xmm1        # 14920 <l_2533.4312+0x440>
    64c5:	00 
    64c6:	66 0f 54 c8          	andpd  %xmm0,%xmm1
    64ca:	f2 0f 10 05 7e e4 00 	movsd  0xe47e(%rip),%xmm0        # 14950 <l_2533.4312+0x470>
    64d1:	00 
    64d2:	66 0f 2f c1          	comisd %xmm1,%xmm0
    64d6:	0f 97 c0             	seta   %al
    64d9:	83 f0 01             	xor    $0x1,%eax
    64dc:	84 c0                	test   %al,%al
    64de:	75 5a                	jne    653a <safe_div_func_double_f_f+0x93>
    64e0:	66 0f ef c0          	pxor   %xmm0,%xmm0
    64e4:	66 0f 2e 45 f0       	ucomisd -0x10(%rbp),%xmm0
    64e9:	7a 0b                	jp     64f6 <safe_div_func_double_f_f+0x4f>
    64eb:	66 0f ef c0          	pxor   %xmm0,%xmm0
    64ef:	66 0f 2e 45 f0       	ucomisd -0x10(%rbp),%xmm0
    64f4:	74 50                	je     6546 <safe_div_func_double_f_f+0x9f>
    64f6:	f2 0f 10 4d f8       	movsd  -0x8(%rbp),%xmm1
    64fb:	f2 0f 10 05 55 e4 00 	movsd  0xe455(%rip),%xmm0        # 14958 <l_2533.4312+0x478>
    6502:	00 
    6503:	f2 0f 59 c1          	mulsd  %xmm1,%xmm0
    6507:	f2 0f 10 55 f0       	movsd  -0x10(%rbp),%xmm2
    650c:	f2 0f 10 0d 4c e4 00 	movsd  0xe44c(%rip),%xmm1        # 14960 <l_2533.4312+0x480>
    6513:	00 
    6514:	f2 0f 59 ca          	mulsd  %xmm2,%xmm1
    6518:	f2 0f 5e c1          	divsd  %xmm1,%xmm0
    651c:	f3 0f 7e 0d fc e3 00 	movq   0xe3fc(%rip),%xmm1        # 14920 <l_2533.4312+0x440>
    6523:	00 
    6524:	66 0f 54 c1          	andpd  %xmm1,%xmm0
    6528:	66 0f 2f 05 38 e4 00 	comisd 0xe438(%rip),%xmm0        # 14968 <l_2533.4312+0x488>
    652f:	00 
    6530:	0f 97 c0             	seta   %al
    6533:	83 f0 01             	xor    $0x1,%eax
    6536:	84 c0                	test   %al,%al
    6538:	74 0c                	je     6546 <safe_div_func_double_f_f+0x9f>
    653a:	f2 0f 10 45 f8       	movsd  -0x8(%rbp),%xmm0
    653f:	f2 0f 5e 45 f0       	divsd  -0x10(%rbp),%xmm0
    6544:	eb 05                	jmp    654b <safe_div_func_double_f_f+0xa4>
    6546:	f2 0f 10 45 f8       	movsd  -0x8(%rbp),%xmm0
    654b:	5d                   	pop    %rbp
    654c:	c3                   	retq   

000000000000654d <safe_convert_func_float_to_int32_t>:
    654d:	f3 0f 1e fa          	endbr64 
    6551:	55                   	push   %rbp
    6552:	48 89 e5             	mov    %rsp,%rbp
    6555:	f3 0f 11 45 fc       	movss  %xmm0,-0x4(%rbp)
    655a:	f3 0f 10 05 0e e4 00 	movss  0xe40e(%rip),%xmm0        # 14970 <l_2533.4312+0x490>
    6561:	00 
    6562:	0f 2f 45 fc          	comiss -0x4(%rbp),%xmm0
    6566:	0f 93 c0             	setae  %al
    6569:	83 f0 01             	xor    $0x1,%eax
    656c:	84 c0                	test   %al,%al
    656e:	74 21                	je     6591 <safe_convert_func_float_to_int32_t+0x44>
    6570:	f3 0f 10 45 fc       	movss  -0x4(%rbp),%xmm0
    6575:	0f 2f 05 f8 e3 00 00 	comiss 0xe3f8(%rip),%xmm0        # 14974 <l_2533.4312+0x494>
    657c:	0f 93 c0             	setae  %al
    657f:	83 f0 01             	xor    $0x1,%eax
    6582:	84 c0                	test   %al,%al
    6584:	74 0b                	je     6591 <safe_convert_func_float_to_int32_t+0x44>
    6586:	f3 0f 10 45 fc       	movss  -0x4(%rbp),%xmm0
    658b:	f3 0f 2c c0          	cvttss2si %xmm0,%eax
    658f:	eb 05                	jmp    6596 <safe_convert_func_float_to_int32_t+0x49>
    6591:	b8 ff ff ff 7f       	mov    $0x7fffffff,%eax
    6596:	5d                   	pop    %rbp
    6597:	c3                   	retq   

0000000000006598 <crc32_gentab>:
    6598:	f3 0f 1e fa          	endbr64 
    659c:	55                   	push   %rbp
    659d:	48 89 e5             	mov    %rsp,%rbp
    65a0:	c7 45 fc 20 83 b8 ed 	movl   $0xedb88320,-0x4(%rbp)
    65a7:	c7 45 f4 00 00 00 00 	movl   $0x0,-0xc(%rbp)
    65ae:	eb 51                	jmp    6601 <crc32_gentab+0x69>
    65b0:	8b 45 f4             	mov    -0xc(%rbp),%eax
    65b3:	89 45 f0             	mov    %eax,-0x10(%rbp)
    65b6:	c7 45 f8 08 00 00 00 	movl   $0x8,-0x8(%rbp)
    65bd:	eb 1e                	jmp    65dd <crc32_gentab+0x45>
    65bf:	8b 45 f0             	mov    -0x10(%rbp),%eax
    65c2:	83 e0 01             	and    $0x1,%eax
    65c5:	85 c0                	test   %eax,%eax
    65c7:	74 0d                	je     65d6 <crc32_gentab+0x3e>
    65c9:	8b 45 f0             	mov    -0x10(%rbp),%eax
    65cc:	d1 e8                	shr    %eax
    65ce:	33 45 fc             	xor    -0x4(%rbp),%eax
    65d1:	89 45 f0             	mov    %eax,-0x10(%rbp)
    65d4:	eb 03                	jmp    65d9 <crc32_gentab+0x41>
    65d6:	d1 6d f0             	shrl   -0x10(%rbp)
    65d9:	83 6d f8 01          	subl   $0x1,-0x8(%rbp)
    65dd:	83 7d f8 00          	cmpl   $0x0,-0x8(%rbp)
    65e1:	7f dc                	jg     65bf <crc32_gentab+0x27>
    65e3:	8b 45 f4             	mov    -0xc(%rbp),%eax
    65e6:	48 98                	cltq   
    65e8:	48 8d 0c 85 00 00 00 	lea    0x0(,%rax,4),%rcx
    65ef:	00 
    65f0:	48 8d 15 a9 2d 01 00 	lea    0x12da9(%rip),%rdx        # 193a0 <crc32_tab>
    65f7:	8b 45 f0             	mov    -0x10(%rbp),%eax
    65fa:	89 04 11             	mov    %eax,(%rcx,%rdx,1)
    65fd:	83 45 f4 01          	addl   $0x1,-0xc(%rbp)
    6601:	81 7d f4 ff 00 00 00 	cmpl   $0xff,-0xc(%rbp)
    6608:	7e a6                	jle    65b0 <crc32_gentab+0x18>
    660a:	90                   	nop
    660b:	90                   	nop
    660c:	5d                   	pop    %rbp
    660d:	c3                   	retq   

000000000000660e <crc32_byte>:
    660e:	f3 0f 1e fa          	endbr64 
    6612:	55                   	push   %rbp
    6613:	48 89 e5             	mov    %rsp,%rbp
    6616:	89 f8                	mov    %edi,%eax
    6618:	88 45 fc             	mov    %al,-0x4(%rbp)
    661b:	8b 05 ff 09 01 00    	mov    0x109ff(%rip),%eax        # 17020 <crc32_context>
    6621:	c1 e8 08             	shr    $0x8,%eax
    6624:	89 c1                	mov    %eax,%ecx
    6626:	0f b6 55 fc          	movzbl -0x4(%rbp),%edx
    662a:	8b 05 f0 09 01 00    	mov    0x109f0(%rip),%eax        # 17020 <crc32_context>
    6630:	31 d0                	xor    %edx,%eax
    6632:	0f b6 c0             	movzbl %al,%eax
    6635:	89 c0                	mov    %eax,%eax
    6637:	48 8d 14 85 00 00 00 	lea    0x0(,%rax,4),%rdx
    663e:	00 
    663f:	48 8d 05 5a 2d 01 00 	lea    0x12d5a(%rip),%rax        # 193a0 <crc32_tab>
    6646:	8b 04 02             	mov    (%rdx,%rax,1),%eax
    6649:	31 c8                	xor    %ecx,%eax
    664b:	89 05 cf 09 01 00    	mov    %eax,0x109cf(%rip)        # 17020 <crc32_context>
    6651:	90                   	nop
    6652:	5d                   	pop    %rbp
    6653:	c3                   	retq   

0000000000006654 <crc32_8bytes>:
    6654:	f3 0f 1e fa          	endbr64 
    6658:	55                   	push   %rbp
    6659:	48 89 e5             	mov    %rsp,%rbp
    665c:	48 83 ec 08          	sub    $0x8,%rsp
    6660:	48 89 7d f8          	mov    %rdi,-0x8(%rbp)
    6664:	48 8b 45 f8          	mov    -0x8(%rbp),%rax
    6668:	0f b6 c0             	movzbl %al,%eax
    666b:	89 c7                	mov    %eax,%edi
    666d:	e8 9c ff ff ff       	callq  660e <crc32_byte>
    6672:	48 8b 45 f8          	mov    -0x8(%rbp),%rax
    6676:	48 c1 e8 08          	shr    $0x8,%rax
    667a:	0f b6 c0             	movzbl %al,%eax
    667d:	89 c7                	mov    %eax,%edi
    667f:	e8 8a ff ff ff       	callq  660e <crc32_byte>
    6684:	48 8b 45 f8          	mov    -0x8(%rbp),%rax
    6688:	48 c1 e8 10          	shr    $0x10,%rax
    668c:	0f b6 c0             	movzbl %al,%eax
    668f:	89 c7                	mov    %eax,%edi
    6691:	e8 78 ff ff ff       	callq  660e <crc32_byte>
    6696:	48 8b 45 f8          	mov    -0x8(%rbp),%rax
    669a:	48 c1 e8 18          	shr    $0x18,%rax
    669e:	0f b6 c0             	movzbl %al,%eax
    66a1:	89 c7                	mov    %eax,%edi
    66a3:	e8 66 ff ff ff       	callq  660e <crc32_byte>
    66a8:	48 8b 45 f8          	mov    -0x8(%rbp),%rax
    66ac:	48 c1 e8 20          	shr    $0x20,%rax
    66b0:	0f b6 c0             	movzbl %al,%eax
    66b3:	89 c7                	mov    %eax,%edi
    66b5:	e8 54 ff ff ff       	callq  660e <crc32_byte>
    66ba:	48 8b 45 f8          	mov    -0x8(%rbp),%rax
    66be:	48 c1 e8 28          	shr    $0x28,%rax
    66c2:	0f b6 c0             	movzbl %al,%eax
    66c5:	89 c7                	mov    %eax,%edi
    66c7:	e8 42 ff ff ff       	callq  660e <crc32_byte>
    66cc:	48 8b 45 f8          	mov    -0x8(%rbp),%rax
    66d0:	48 c1 e8 30          	shr    $0x30,%rax
    66d4:	0f b6 c0             	movzbl %al,%eax
    66d7:	89 c7                	mov    %eax,%edi
    66d9:	e8 30 ff ff ff       	callq  660e <crc32_byte>
    66de:	48 8b 45 f8          	mov    -0x8(%rbp),%rax
    66e2:	48 c1 e8 38          	shr    $0x38,%rax
    66e6:	0f b6 c0             	movzbl %al,%eax
    66e9:	89 c7                	mov    %eax,%edi
    66eb:	e8 1e ff ff ff       	callq  660e <crc32_byte>
    66f0:	90                   	nop
    66f1:	c9                   	leaveq 
    66f2:	c3                   	retq   

00000000000066f3 <transparent_crc>:
    66f3:	f3 0f 1e fa          	endbr64 
    66f7:	55                   	push   %rbp
    66f8:	48 89 e5             	mov    %rsp,%rbp
    66fb:	48 83 ec 20          	sub    $0x20,%rsp
    66ff:	48 89 7d f8          	mov    %rdi,-0x8(%rbp)
    6703:	48 89 75 f0          	mov    %rsi,-0x10(%rbp)
    6707:	89 55 ec             	mov    %edx,-0x14(%rbp)
    670a:	48 8b 45 f8          	mov    -0x8(%rbp),%rax
    670e:	48 89 c7             	mov    %rax,%rdi
    6711:	e8 3e ff ff ff       	callq  6654 <crc32_8bytes>
    6716:	83 7d ec 00          	cmpl   $0x0,-0x14(%rbp)
    671a:	74 22                	je     673e <transparent_crc+0x4b>
    671c:	8b 05 fe 08 01 00    	mov    0x108fe(%rip),%eax        # 17020 <crc32_context>
    6722:	f7 d0                	not    %eax
    6724:	89 c2                	mov    %eax,%edx
    6726:	48 8b 45 f0          	mov    -0x10(%rbp),%rax
    672a:	48 89 c6             	mov    %rax,%rsi
    672d:	48 8d 3d fc 98 00 00 	lea    0x98fc(%rip),%rdi        # 10030 <_IO_stdin_used+0x30>
    6734:	b8 00 00 00 00       	mov    $0x0,%eax
    6739:	e8 42 e9 ff ff       	callq  5080 <printf@plt>
    673e:	90                   	nop
    673f:	c9                   	leaveq 
    6740:	c3                   	retq   

0000000000006741 <transparent_crc_bytes>:
    6741:	f3 0f 1e fa          	endbr64 
    6745:	55                   	push   %rbp
    6746:	48 89 e5             	mov    %rsp,%rbp
    6749:	48 83 ec 30          	sub    $0x30,%rsp
    674d:	48 89 7d e8          	mov    %rdi,-0x18(%rbp)
    6751:	89 75 e4             	mov    %esi,-0x1c(%rbp)
    6754:	48 89 55 d8          	mov    %rdx,-0x28(%rbp)
    6758:	89 4d e0             	mov    %ecx,-0x20(%rbp)
    675b:	c7 45 fc 00 00 00 00 	movl   $0x0,-0x4(%rbp)
    6762:	eb 1e                	jmp    6782 <transparent_crc_bytes+0x41>
    6764:	8b 45 fc             	mov    -0x4(%rbp),%eax
    6767:	48 63 d0             	movslq %eax,%rdx
    676a:	48 8b 45 e8          	mov    -0x18(%rbp),%rax
    676e:	48 01 d0             	add    %rdx,%rax
    6771:	0f b6 00             	movzbl (%rax),%eax
    6774:	0f b6 c0             	movzbl %al,%eax
    6777:	89 c7                	mov    %eax,%edi
    6779:	e8 90 fe ff ff       	callq  660e <crc32_byte>
    677e:	83 45 fc 01          	addl   $0x1,-0x4(%rbp)
    6782:	8b 45 fc             	mov    -0x4(%rbp),%eax
    6785:	3b 45 e4             	cmp    -0x1c(%rbp),%eax
    6788:	7c da                	jl     6764 <transparent_crc_bytes+0x23>
    678a:	83 7d e0 00          	cmpl   $0x0,-0x20(%rbp)
    678e:	74 22                	je     67b2 <transparent_crc_bytes+0x71>
    6790:	8b 05 8a 08 01 00    	mov    0x1088a(%rip),%eax        # 17020 <crc32_context>
    6796:	f7 d0                	not    %eax
    6798:	89 c2                	mov    %eax,%edx
    679a:	48 8b 45 d8          	mov    -0x28(%rbp),%rax
    679e:	48 89 c6             	mov    %rax,%rsi
    67a1:	48 8d 3d 88 98 00 00 	lea    0x9888(%rip),%rdi        # 10030 <_IO_stdin_used+0x30>
    67a8:	b8 00 00 00 00       	mov    $0x0,%eax
    67ad:	e8 ce e8 ff ff       	callq  5080 <printf@plt>
    67b2:	90                   	nop
    67b3:	c9                   	leaveq 
    67b4:	c3                   	retq   

00000000000067b5 <func_1>:
    67b5:	f3 0f 1e fa          	endbr64 
    67b9:	55                   	push   %rbp
    67ba:	48 89 e5             	mov    %rsp,%rbp
    67bd:	41 57                	push   %r15
    67bf:	41 56                	push   %r14
    67c1:	41 55                	push   %r13
    67c3:	41 54                	push   %r12
    67c5:	53                   	push   %rbx
    67c6:	48 81 ec 98 06 00 00 	sub    $0x698,%rsp
    67cd:	64 48 8b 04 25 28 00 	mov    %fs:0x28,%rax
    67d4:	00 00 
    67d6:	48 89 45 c8          	mov    %rax,-0x38(%rbp)
    67da:	31 c0                	xor    %eax,%eax
    67dc:	c6 85 46 f9 ff ff f6 	movb   $0xf6,-0x6ba(%rbp)
    67e3:	48 8d 05 c6 2a 01 00 	lea    0x12ac6(%rip),%rax        # 192b0 <g_2258>
    67ea:	48 89 85 f8 f9 ff ff 	mov    %rax,-0x608(%rbp)
    67f1:	c7 85 50 f9 ff ff 86 	movl   $0xc02a0d86,-0x6b0(%rbp)
    67f8:	0d 2a c0 
    67fb:	c6 85 47 f9 ff ff fa 	movb   $0xfa,-0x6b9(%rbp)
    6802:	c7 85 f0 fa ff ff e1 	movl   $0x329542e1,-0x510(%rbp)
    6809:	42 95 32 
    680c:	c7 85 f4 fa ff ff e1 	movl   $0x329542e1,-0x50c(%rbp)
    6813:	42 95 32 
    6816:	c7 85 f8 fa ff ff 00 	movl   $0x0,-0x508(%rbp)
    681d:	00 00 00 
    6820:	c7 85 fc fa ff ff e1 	movl   $0x329542e1,-0x504(%rbp)
    6827:	42 95 32 
    682a:	c7 85 00 fb ff ff e1 	movl   $0x329542e1,-0x500(%rbp)
    6831:	42 95 32 
    6834:	c7 85 04 fb ff ff 00 	movl   $0x0,-0x4fc(%rbp)
    683b:	00 00 00 
    683e:	c7 85 08 fb ff ff e1 	movl   $0x329542e1,-0x4f8(%rbp)
    6845:	42 95 32 
    6848:	c7 85 0c fb ff ff e1 	movl   $0x329542e1,-0x4f4(%rbp)
    684f:	42 95 32 
    6852:	c7 85 10 fb ff ff 00 	movl   $0x0,-0x4f0(%rbp)
    6859:	00 00 00 
    685c:	c7 85 14 fb ff ff e1 	movl   $0x329542e1,-0x4ec(%rbp)
    6863:	42 95 32 
    6866:	c7 85 68 f9 ff ff fd 	movl   $0xa0691bfd,-0x698(%rbp)
    686d:	1b 69 a0 
    6870:	48 8d 85 d0 fb ff ff 	lea    -0x430(%rbp),%rax
    6877:	48 8d 15 22 c2 00 00 	lea    0xc222(%rip),%rdx        # 12aa0 <g_1312+0xc0>
    687e:	b9 3c 00 00 00       	mov    $0x3c,%ecx
    6883:	48 89 c7             	mov    %rax,%rdi
    6886:	48 89 d6             	mov    %rdx,%rsi
    6889:	f3 48 a5             	rep movsq %ds:(%rsi),%es:(%rdi)
    688c:	c7 85 6c f9 ff ff ff 	movl   $0xffffffff,-0x694(%rbp)
    6893:	ff ff ff 
    6896:	48 8d 05 a3 29 01 00 	lea    0x129a3(%rip),%rax        # 19240 <g_1977>
    689d:	48 89 85 00 fa ff ff 	mov    %rax,-0x600(%rbp)
    68a4:	c7 85 70 f9 ff ff 00 	movl   $0x0,-0x690(%rbp)
    68ab:	00 00 00 
    68ae:	eb 1e                	jmp    68ce <func_1+0x119>
    68b0:	8b 85 70 f9 ff ff    	mov    -0x690(%rbp),%eax
    68b6:	48 98                	cltq   
    68b8:	48 8d 15 91 2f 01 00 	lea    0x12f91(%rip),%rdx        # 19850 <g_2144>
    68bf:	48 89 94 c5 90 fa ff 	mov    %rdx,-0x570(%rbp,%rax,8)
    68c6:	ff 
    68c7:	83 85 70 f9 ff ff 01 	addl   $0x1,-0x690(%rbp)
    68ce:	83 bd 70 f9 ff ff 04 	cmpl   $0x4,-0x690(%rbp)
    68d5:	7e d9                	jle    68b0 <func_1+0xfb>
    68d7:	c7 85 70 f9 ff ff 00 	movl   $0x0,-0x690(%rbp)
    68de:	00 00 00 
    68e1:	eb 1e                	jmp    6901 <func_1+0x14c>
    68e3:	8b 85 70 f9 ff ff    	mov    -0x690(%rbp),%eax
    68e9:	48 98                	cltq   
    68eb:	48 8d 15 de 23 01 00 	lea    0x123de(%rip),%rdx        # 18cd0 <g_802>
    68f2:	48 89 94 c5 c0 fa ff 	mov    %rdx,-0x540(%rbp,%rax,8)
    68f9:	ff 
    68fa:	83 85 70 f9 ff ff 01 	addl   $0x1,-0x690(%rbp)
    6901:	83 bd 70 f9 ff ff 04 	cmpl   $0x4,-0x690(%rbp)
    6908:	7e d9                	jle    68e3 <func_1+0x12e>
    690a:	ba a0 ff ff ff       	mov    $0xffffffa0,%edx
    690f:	0f b6 85 46 f9 ff ff 	movzbl -0x6ba(%rbp),%eax
    6916:	38 c2                	cmp    %al,%dl
    6918:	0f 92 c0             	setb   %al
    691b:	0f b6 d0             	movzbl %al,%edx
    691e:	b8 a0 ff ff ff       	mov    $0xffffffa0,%eax
    6923:	0f b6 c0             	movzbl %al,%eax
    6926:	89 d6                	mov    %edx,%esi
    6928:	89 c7                	mov    %eax,%edi
    692a:	e8 84 ea ff ff       	callq  53b3 <safe_add_func_int16_t_s_s>
    692f:	66 85 c0             	test   %ax,%ax
    6932:	74 45                	je     6979 <func_1+0x1c4>
    6934:	c7 85 a4 f9 ff ff 04 	movl   $0xf2d3f504,-0x65c(%rbp)
    693b:	f5 d3 f2 
    693e:	b8 a0 ff ff ff       	mov    $0xffffffa0,%eax
    6943:	0f b6 d0             	movzbl %al,%edx
    6946:	48 8b 1d ab 22 01 00 	mov    0x122ab(%rip),%rbx        # 18bf8 <g_346>
    694d:	8b 85 a4 f9 ff ff    	mov    -0x65c(%rbp),%eax
    6953:	89 d6                	mov    %edx,%esi
    6955:	89 c7                	mov    %eax,%edi
    6957:	e8 22 09 00 00       	callq  727e <func_6>
    695c:	48 89 03             	mov    %rax,(%rbx)
    695f:	48 8b 05 52 22 01 00 	mov    0x12252(%rip),%rax        # 18bb8 <g_191>
    6966:	8b 10                	mov    (%rax),%edx
    6968:	48 8b 05 49 22 01 00 	mov    0x12249(%rip),%rax        # 18bb8 <g_191>
    696f:	83 f2 03             	xor    $0x3,%edx
    6972:	89 10                	mov    %edx,(%rax)
    6974:	e9 d3 08 00 00       	jmpq   724c <func_1+0xa97>
    6979:	48 c7 85 08 fa ff ff 	movq   $0x0,-0x5f8(%rbp)
    6980:	00 00 00 00 
    6984:	c7 85 74 f9 ff ff c6 	movl   $0xd3396ac6,-0x68c(%rbp)
    698b:	6a 39 d3 
    698e:	48 8d 05 0b 07 01 00 	lea    0x1070b(%rip),%rax        # 170a0 <g_124+0x8>
    6995:	48 89 85 10 fa ff ff 	mov    %rax,-0x5f0(%rbp)
    699c:	66 c7 85 4c f9 ff ff 	movw   $0x0,-0x6b4(%rbp)
    69a3:	00 00 
    69a5:	48 8d 05 70 10 01 00 	lea    0x11070(%rip),%rax        # 17a1c <g_2282>
    69ac:	48 89 85 50 fb ff ff 	mov    %rax,-0x4b0(%rbp)
    69b3:	48 8d 05 62 10 01 00 	lea    0x11062(%rip),%rax        # 17a1c <g_2282>
    69ba:	48 89 85 58 fb ff ff 	mov    %rax,-0x4a8(%rbp)
    69c1:	48 8d 05 54 10 01 00 	lea    0x11054(%rip),%rax        # 17a1c <g_2282>
    69c8:	48 89 85 60 fb ff ff 	mov    %rax,-0x4a0(%rbp)
    69cf:	48 8d 05 46 10 01 00 	lea    0x11046(%rip),%rax        # 17a1c <g_2282>
    69d6:	48 89 85 68 fb ff ff 	mov    %rax,-0x498(%rbp)
    69dd:	48 8d 05 38 10 01 00 	lea    0x11038(%rip),%rax        # 17a1c <g_2282>
    69e4:	48 89 85 70 fb ff ff 	mov    %rax,-0x490(%rbp)
    69eb:	48 8d 05 2a 10 01 00 	lea    0x1102a(%rip),%rax        # 17a1c <g_2282>
    69f2:	48 89 85 78 fb ff ff 	mov    %rax,-0x488(%rbp)
    69f9:	48 8d 05 50 22 01 00 	lea    0x12250(%rip),%rax        # 18c50 <g_528>
    6a00:	48 89 85 a8 f9 ff ff 	mov    %rax,-0x658(%rbp)
    6a07:	48 8d 85 a8 f9 ff ff 	lea    -0x658(%rbp),%rax
    6a0e:	48 89 85 b0 f9 ff ff 	mov    %rax,-0x650(%rbp)
    6a15:	48 8d 05 ac 27 01 00 	lea    0x127ac(%rip),%rax        # 191c8 <g_1236+0x8>
    6a1c:	48 89 85 b8 f9 ff ff 	mov    %rax,-0x648(%rbp)
    6a23:	48 8d 85 b8 f9 ff ff 	lea    -0x648(%rbp),%rax
    6a2a:	48 89 85 e8 f9 ff ff 	mov    %rax,-0x618(%rbp)
    6a31:	66 c7 85 48 f9 ff ff 	movw   $0xa755,-0x6b8(%rbp)
    6a38:	55 a7 
    6a3a:	66 c7 85 4a f9 ff ff 	movw   $0xffff,-0x6b6(%rbp)
    6a41:	ff ff 
    6a43:	48 b8 25 30 7e 17 e4 	movabs $0xfe0297e4177e3025,%rax
    6a4a:	97 02 fe 
    6a4d:	48 89 85 f0 f9 ff ff 	mov    %rax,-0x610(%rbp)
    6a54:	c7 85 64 f9 ff ff 00 	movl   $0x0,-0x69c(%rbp)
    6a5b:	00 00 00 
    6a5e:	eb 1b                	jmp    6a7b <func_1+0x2c6>
    6a60:	8b 85 64 f9 ff ff    	mov    -0x69c(%rbp),%eax
    6a66:	48 98                	cltq   
    6a68:	48 c7 84 c5 80 fb ff 	movq   $0x0,-0x480(%rbp,%rax,8)
    6a6f:	ff 00 00 00 00 
    6a74:	83 85 64 f9 ff ff 01 	addl   $0x1,-0x69c(%rbp)
    6a7b:	83 bd 64 f9 ff ff 08 	cmpl   $0x8,-0x69c(%rbp)
    6a82:	7e dc                	jle    6a60 <func_1+0x2ab>
    6a84:	0f b6 85 46 f9 ff ff 	movzbl -0x6ba(%rbp),%eax
    6a8b:	0f b6 d8             	movzbl %al,%ebx
    6a8e:	8b 85 74 f9 ff ff    	mov    -0x68c(%rbp),%eax
    6a94:	0f b7 c0             	movzwl %ax,%eax
    6a97:	be fa ff 00 00       	mov    $0xfffa,%esi
    6a9c:	89 c7                	mov    %eax,%edi
    6a9e:	e8 7c f2 ff ff       	callq  5d1f <safe_sub_func_uint16_t_u_u>
    6aa3:	8b 85 74 f9 ff ff    	mov    -0x68c(%rbp),%eax
    6aa9:	0f bf d0             	movswl %ax,%edx
    6aac:	48 8b 0d 9d 26 01 00 	mov    0x1269d(%rip),%rcx        # 19150 <g_1087>
    6ab3:	48 8b 05 96 26 01 00 	mov    0x12696(%rip),%rax        # 19150 <g_1087>
    6aba:	0f b7 09             	movzwl (%rcx),%ecx
    6abd:	66 89 08             	mov    %cx,(%rax)
    6ac0:	0f b7 00             	movzwl (%rax),%eax
    6ac3:	98                   	cwtl   
    6ac4:	89 d6                	mov    %edx,%esi
    6ac6:	89 c7                	mov    %eax,%edi
    6ac8:	e8 49 e9 ff ff       	callq  5416 <safe_mod_func_int16_t_s_s>
    6acd:	48 8b 05 e4 27 01 00 	mov    0x127e4(%rip),%rax        # 192b8 <g_2257>
    6ad4:	48 89 85 f8 f9 ff ff 	mov    %rax,-0x608(%rbp)
    6adb:	48 8d 05 ce 27 01 00 	lea    0x127ce(%rip),%rax        # 192b0 <g_2258>
    6ae2:	48 39 85 f8 f9 ff ff 	cmp    %rax,-0x608(%rbp)
    6ae9:	0f 95 c0             	setne  %al
    6aec:	0f b6 d0             	movzbl %al,%edx
    6aef:	48 8d 05 b6 2c 01 00 	lea    0x12cb6(%rip),%rax        # 197ac <g_120>
    6af6:	48 39 85 08 fa ff ff 	cmp    %rax,-0x5f8(%rbp)
    6afd:	40 0f 94 c6          	sete   %sil
    6b01:	48 8b 85 a0 fa ff ff 	mov    -0x560(%rbp),%rax
    6b08:	48 8d 0d 41 2d 01 00 	lea    0x12d41(%rip),%rcx        # 19850 <g_2144>
    6b0f:	48 39 c8             	cmp    %rcx,%rax
    6b12:	0f 94 c0             	sete   %al
    6b15:	31 f0                	xor    %esi,%eax
    6b17:	0f b6 c0             	movzbl %al,%eax
    6b1a:	39 c2                	cmp    %eax,%edx
    6b1c:	0f 9f c0             	setg   %al
    6b1f:	0f b6 d0             	movzbl %al,%edx
    6b22:	0f b7 05 38 9a 00 00 	movzwl 0x9a38(%rip),%eax        # 10561 <g_1295+0x1>
    6b29:	0f b6 c0             	movzbl %al,%eax
    6b2c:	89 d6                	mov    %edx,%esi
    6b2e:	89 c7                	mov    %eax,%edi
    6b30:	e8 5e f0 ff ff       	callq  5b93 <safe_mul_func_uint8_t_u_u>
    6b35:	0f b6 c0             	movzbl %al,%eax
    6b38:	23 85 74 f9 ff ff    	and    -0x68c(%rbp),%eax
    6b3e:	85 c0                	test   %eax,%eax
    6b40:	74 07                	je     6b49 <func_1+0x394>
    6b42:	b8 01 00 00 00       	mov    $0x1,%eax
    6b47:	eb 05                	jmp    6b4e <func_1+0x399>
    6b49:	b8 00 00 00 00       	mov    $0x0,%eax
    6b4e:	4c 8b 25 53 27 01 00 	mov    0x12753(%rip),%r12        # 192a8 <g_2259>
    6b55:	89 de                	mov    %ebx,%esi
    6b57:	89 c7                	mov    %eax,%edi
    6b59:	e8 20 07 00 00       	callq  727e <func_6>
    6b5e:	49 89 04 24          	mov    %rax,(%r12)
    6b62:	48 8b 15 77 21 01 00 	mov    0x12177(%rip),%rdx        # 18ce0 <g_800>
    6b69:	48 8b 05 70 21 01 00 	mov    0x12170(%rip),%rax        # 18ce0 <g_800>
    6b70:	48 8b 12             	mov    (%rdx),%rdx
    6b73:	48 89 10             	mov    %rdx,(%rax)
    6b76:	48 8b 10             	mov    (%rax),%rdx
    6b79:	48 8b 85 e0 fa ff ff 	mov    -0x520(%rbp),%rax
    6b80:	48 39 c2             	cmp    %rax,%rdx
    6b83:	0f 95 c0             	setne  %al
    6b86:	0f b6 c0             	movzbl %al,%eax
    6b89:	be 04 00 00 00       	mov    $0x4,%esi
    6b8e:	89 c7                	mov    %eax,%edi
    6b90:	e8 71 f2 ff ff       	callq  5e06 <safe_lshift_func_uint16_t_u_u>
    6b95:	89 c2                	mov    %eax,%edx
    6b97:	48 8b 05 0a 20 01 00 	mov    0x1200a(%rip),%rax        # 18ba8 <g_106>
    6b9e:	0f b7 d2             	movzwl %dx,%edx
    6ba1:	48 89 10             	mov    %rdx,(%rax)
    6ba4:	48 8b 05 a5 25 01 00 	mov    0x125a5(%rip),%rax        # 19150 <g_1087>
    6bab:	0f b7 00             	movzwl (%rax),%eax
    6bae:	0f b7 d8             	movzwl %ax,%ebx
    6bb1:	48 8b 05 78 26 01 00 	mov    0x12678(%rip),%rax        # 19230 <g_1936>
    6bb8:	48 8b 00             	mov    (%rax),%rax
    6bbb:	48 8b 00             	mov    (%rax),%rax
    6bbe:	48 85 c0             	test   %rax,%rax
    6bc1:	74 19                	je     6bdc <func_1+0x427>
    6bc3:	48 8b 05 6e 20 01 00 	mov    0x1206e(%rip),%rax        # 18c38 <g_471>
    6bca:	48 8b 00             	mov    (%rax),%rax
    6bcd:	48 8b 00             	mov    (%rax),%rax
    6bd0:	48 85 c0             	test   %rax,%rax
    6bd3:	74 07                	je     6bdc <func_1+0x427>
    6bd5:	b8 01 00 00 00       	mov    $0x1,%eax
    6bda:	eb 05                	jmp    6be1 <func_1+0x42c>
    6bdc:	b8 00 00 00 00       	mov    $0x0,%eax
    6be1:	0f b7 d0             	movzwl %ax,%edx
    6be4:	8b 85 74 f9 ff ff    	mov    -0x68c(%rbp),%eax
    6bea:	89 c1                	mov    %eax,%ecx
    6bec:	48 8b 85 10 fa ff ff 	mov    -0x5f0(%rbp),%rax
    6bf3:	66 89 08             	mov    %cx,(%rax)
    6bf6:	48 8b 85 10 fa ff ff 	mov    -0x5f0(%rbp),%rax
    6bfd:	0f b7 00             	movzwl (%rax),%eax
    6c00:	0f b7 c0             	movzwl %ax,%eax
    6c03:	89 d6                	mov    %edx,%esi
    6c05:	89 c7                	mov    %eax,%edi
    6c07:	e8 f3 f0 ff ff       	callq  5cff <safe_add_func_uint16_t_u_u>
    6c0c:	66 85 c0             	test   %ax,%ax
    6c0f:	74 10                	je     6c21 <func_1+0x46c>
    6c11:	83 bd 74 f9 ff ff 00 	cmpl   $0x0,-0x68c(%rbp)
    6c18:	74 07                	je     6c21 <func_1+0x46c>
    6c1a:	ba 01 00 00 00       	mov    $0x1,%edx
    6c1f:	eb 05                	jmp    6c26 <func_1+0x471>
    6c21:	ba 00 00 00 00       	mov    $0x0,%edx
    6c26:	48 8b 05 13 20 01 00 	mov    0x12013(%rip),%rax        # 18c40 <g_510>
    6c2d:	89 10                	mov    %edx,(%rax)
    6c2f:	8b 00                	mov    (%rax),%eax
    6c31:	89 05 3c 0d 01 00    	mov    %eax,0x10d3c(%rip)        # 17973 <g_1769+0x3>
    6c37:	0f bf 85 4c f9 ff ff 	movswl -0x6b4(%rbp),%eax
    6c3e:	39 85 74 f9 ff ff    	cmp    %eax,-0x68c(%rbp)
    6c44:	0f 9e c0             	setle  %al
    6c47:	0f b6 c0             	movzbl %al,%eax
    6c4a:	89 de                	mov    %ebx,%esi
    6c4c:	89 c7                	mov    %eax,%edi
    6c4e:	e8 cc f0 ff ff       	callq  5d1f <safe_sub_func_uint16_t_u_u>
    6c53:	0f b7 c0             	movzwl %ax,%eax
    6c56:	be 7d 0b a1 94       	mov    $0x94a10b7d,%esi
    6c5b:	89 c7                	mov    %eax,%edi
    6c5d:	e8 6a ea ff ff       	callq  56cc <safe_mod_func_int32_t_s_s>
    6c62:	b8 00 00 00 00       	mov    $0x0,%eax
    6c67:	21 85 50 f9 ff ff    	and    %eax,-0x6b0(%rbp)
    6c6d:	c6 85 46 f9 ff ff 00 	movb   $0x0,-0x6ba(%rbp)
    6c74:	e9 69 02 00 00       	jmpq   6ee2 <func_1+0x72d>
    6c79:	66 c7 85 4e f9 ff ff 	movw   $0x0,-0x6b2(%rbp)
    6c80:	00 00 
    6c82:	48 c7 85 18 fa ff ff 	movq   $0x0,-0x5e8(%rbp)
    6c89:	00 00 00 00 
    6c8d:	48 8d 85 b0 f9 ff ff 	lea    -0x650(%rbp),%rax
    6c94:	48 89 85 20 fa ff ff 	mov    %rax,-0x5e0(%rbp)
    6c9b:	c7 85 78 f9 ff ff 78 	movl   $0xc6c14278,-0x688(%rbp)
    6ca2:	42 c1 c6 
    6ca5:	c7 85 20 fb ff ff 34 	movl   $0x2c52d834,-0x4e0(%rbp)
    6cac:	d8 52 2c 
    6caf:	c7 85 24 fb ff ff a9 	movl   $0xdeaf15a9,-0x4dc(%rbp)
    6cb6:	15 af de 
    6cb9:	c7 85 28 fb ff ff a9 	movl   $0xdeaf15a9,-0x4d8(%rbp)
    6cc0:	15 af de 
    6cc3:	c7 85 2c fb ff ff 34 	movl   $0x2c52d834,-0x4d4(%rbp)
    6cca:	d8 52 2c 
    6ccd:	c7 85 30 fb ff ff a9 	movl   $0xdeaf15a9,-0x4d0(%rbp)
    6cd4:	15 af de 
    6cd7:	c7 85 34 fb ff ff a9 	movl   $0xdeaf15a9,-0x4cc(%rbp)
    6cde:	15 af de 
    6ce1:	c7 85 38 fb ff ff 34 	movl   $0x2c52d834,-0x4c8(%rbp)
    6ce8:	d8 52 2c 
    6ceb:	c7 85 7c f9 ff ff ff 	movl   $0xffffffff,-0x684(%rbp)
    6cf2:	ff ff ff 
    6cf5:	c7 85 80 f9 ff ff 00 	movl   $0x0,-0x680(%rbp)
    6cfc:	00 00 00 
    6cff:	c7 85 84 f9 ff ff 73 	movl   $0x58f62873,-0x67c(%rbp)
    6d06:	28 f6 58 
    6d09:	c7 85 88 f9 ff ff 01 	movl   $0x1,-0x678(%rbp)
    6d10:	00 00 00 
    6d13:	c7 85 8c f9 ff ff 00 	movl   $0x0,-0x674(%rbp)
    6d1a:	00 00 00 
    6d1d:	48 8d 05 c4 24 01 00 	lea    0x124c4(%rip),%rax        # 191e8 <g_1349>
    6d24:	48 89 85 28 fa ff ff 	mov    %rax,-0x5d8(%rbp)
    6d2b:	48 8b 05 a6 1f 01 00 	mov    0x11fa6(%rip),%rax        # 18cd8 <g_801>
    6d32:	48 8b 00             	mov    (%rax),%rax
    6d35:	48 85 c0             	test   %rax,%rax
    6d38:	0f 94 c0             	sete   %al
    6d3b:	0f b6 d8             	movzbl %al,%ebx
    6d3e:	48 8b 05 c3 1e 01 00 	mov    0x11ec3(%rip),%rax        # 18c08 <g_380>
    6d45:	48 8b 10             	mov    (%rax),%rdx
    6d48:	48 8b 05 b9 1e 01 00 	mov    0x11eb9(%rip),%rax        # 18c08 <g_380>
    6d4f:	48 8b 00             	mov    (%rax),%rax
    6d52:	0f b6 12             	movzbl (%rdx),%edx
    6d55:	88 10                	mov    %dl,(%rax)
    6d57:	0f b6 00             	movzbl (%rax),%eax
    6d5a:	0f b6 d0             	movzbl %al,%edx
    6d5d:	48 8b 8d b0 f9 ff ff 	mov    -0x650(%rbp),%rcx
    6d64:	48 8b 85 20 fa ff ff 	mov    -0x5e0(%rbp),%rax
    6d6b:	48 89 08             	mov    %rcx,(%rax)
    6d6e:	66 81 bd 4e f9 ff ff 	cmpw   $0xa2ca,-0x6b2(%rbp)
    6d75:	ca a2 
    6d77:	0f 94 c0             	sete   %al
    6d7a:	0f b6 c0             	movzbl %al,%eax
    6d7d:	89 d6                	mov    %edx,%esi
    6d7f:	89 c7                	mov    %eax,%edi
    6d81:	e8 0d ee ff ff       	callq  5b93 <safe_mul_func_uint8_t_u_u>
    6d86:	0f b6 c0             	movzbl %al,%eax
    6d89:	21 c3                	and    %eax,%ebx
    6d8b:	89 d9                	mov    %ebx,%ecx
    6d8d:	48 8b 05 24 1e 01 00 	mov    0x11e24(%rip),%rax        # 18bb8 <g_191>
    6d94:	8b 10                	mov    (%rax),%edx
    6d96:	48 8b 05 1b 1e 01 00 	mov    0x11e1b(%rip),%rax        # 18bb8 <g_191>
    6d9d:	31 ca                	xor    %ecx,%edx
    6d9f:	89 10                	mov    %edx,(%rax)
    6da1:	66 83 bd 4c f9 ff ff 	cmpw   $0x0,-0x6b4(%rbp)
    6da8:	00 
    6da9:	74 05                	je     6db0 <func_1+0x5fb>
    6dab:	e9 b2 fd ff ff       	jmpq   6b62 <func_1+0x3ad>
    6db0:	66 c7 05 db 02 01 00 	movw   $0x1d,0x102db(%rip)        # 17094 <g_122>
    6db7:	1d 00 
    6db9:	e9 dd 00 00 00       	jmpq   6e9b <func_1+0x6e6>
    6dbe:	c7 85 90 f9 ff ff ff 	movl   $0xffffffff,-0x670(%rbp)
    6dc5:	ff ff ff 
    6dc8:	c7 85 94 f9 ff ff fb 	movl   $0xfffffffb,-0x66c(%rbp)
    6dcf:	ff ff ff 
    6dd2:	c7 85 98 f9 ff ff a7 	movl   $0xcf7814a7,-0x668(%rbp)
    6dd9:	14 78 cf 
    6ddc:	c7 85 9c f9 ff ff 01 	movl   $0x1,-0x664(%rbp)
    6de3:	00 00 00 
    6de6:	48 8d 05 73 0b 01 00 	lea    0x10b73(%rip),%rax        # 17960 <g_1750>
    6ded:	48 89 85 30 fa ff ff 	mov    %rax,-0x5d0(%rbp)
    6df4:	48 b8 b8 7a d1 64 03 	movabs $0xbff0220364d17ab8,%rax
    6dfb:	22 f0 bf 
    6dfe:	48 89 85 38 fa ff ff 	mov    %rax,-0x5c8(%rbp)
    6e05:	48 8d 05 44 1e 01 00 	lea    0x11e44(%rip),%rax        # 18c50 <g_528>
    6e0c:	48 89 85 40 fa ff ff 	mov    %rax,-0x5c0(%rbp)
    6e13:	48 8d 05 ce 23 01 00 	lea    0x123ce(%rip),%rax        # 191e8 <g_1349>
    6e1a:	48 89 85 48 fa ff ff 	mov    %rax,-0x5b8(%rbp)
    6e21:	48 8d 05 7b 0a 01 00 	lea    0x10a7b(%rip),%rax        # 178a3 <g_1311+0x3>
    6e28:	48 89 85 c0 f9 ff ff 	mov    %rax,-0x640(%rbp)
    6e2f:	48 8d 85 c0 f9 ff ff 	lea    -0x640(%rbp),%rax
    6e36:	48 89 85 c8 f9 ff ff 	mov    %rax,-0x638(%rbp)
    6e3d:	48 8d 85 c8 f9 ff ff 	lea    -0x638(%rbp),%rax
    6e44:	48 89 85 d0 f9 ff ff 	mov    %rax,-0x630(%rbp)
    6e4b:	48 8d 85 d0 f9 ff ff 	lea    -0x630(%rbp),%rax
    6e52:	48 89 85 50 fa ff ff 	mov    %rax,-0x5b0(%rbp)
    6e59:	48 c7 85 58 fa ff ff 	movq   $0x0,-0x5a8(%rbp)
    6e60:	00 00 00 00 
    6e64:	48 8d 05 dd 1d 01 00 	lea    0x11ddd(%rip),%rax        # 18c48 <g_509>
    6e6b:	48 89 85 d8 f9 ff ff 	mov    %rax,-0x628(%rbp)
    6e72:	48 8d 85 d8 f9 ff ff 	lea    -0x628(%rbp),%rax
    6e79:	48 89 85 60 fa ff ff 	mov    %rax,-0x5a0(%rbp)
    6e80:	c7 85 a0 f9 ff ff 67 	movl   $0x5d12af67,-0x660(%rbp)
    6e87:	af 12 5d 
    6e8a:	0f b7 05 03 02 01 00 	movzwl 0x10203(%rip),%eax        # 17094 <g_122>
    6e91:	83 c0 01             	add    $0x1,%eax
    6e94:	66 89 05 f9 01 01 00 	mov    %ax,0x101f9(%rip)        # 17094 <g_122>
    6e9b:	0f b7 05 f2 01 01 00 	movzwl 0x101f2(%rip),%eax        # 17094 <g_122>
    6ea2:	66 83 f8 33          	cmp    $0x33,%ax
    6ea6:	0f 87 12 ff ff ff    	ja     6dbe <func_1+0x609>
    6eac:	48 8b 05 5d 23 01 00 	mov    0x1235d(%rip),%rax        # 19210 <g_1555>
    6eb3:	48 8b 00             	mov    (%rax),%rax
    6eb6:	8b 08                	mov    (%rax),%ecx
    6eb8:	48 8b 05 39 1d 01 00 	mov    0x11d39(%rip),%rax        # 18bf8 <g_346>
    6ebf:	48 8b 00             	mov    (%rax),%rax
    6ec2:	8b 10                	mov    (%rax),%edx
    6ec4:	48 8b 05 2d 1d 01 00 	mov    0x11d2d(%rip),%rax        # 18bf8 <g_346>
    6ecb:	48 8b 00             	mov    (%rax),%rax
    6ece:	31 ca                	xor    %ecx,%edx
    6ed0:	89 10                	mov    %edx,(%rax)
    6ed2:	0f b6 85 46 f9 ff ff 	movzbl -0x6ba(%rbp),%eax
    6ed9:	83 c0 01             	add    $0x1,%eax
    6edc:	88 85 46 f9 ff ff    	mov    %al,-0x6ba(%rbp)
    6ee2:	0f b6 85 46 f9 ff ff 	movzbl -0x6ba(%rbp),%eax
    6ee9:	3c 0a                	cmp    $0xa,%al
    6eeb:	0f 84 88 fd ff ff    	je     6c79 <func_1+0x4c4>
    6ef1:	0f b6 05 59 03 01 00 	movzbl 0x10359(%rip),%eax        # 17251 <g_896+0x11>
    6ef8:	0f b6 d0             	movzbl %al,%edx
    6efb:	48 8b 85 f8 f9 ff ff 	mov    -0x608(%rbp),%rax
    6f02:	48 8b 00             	mov    (%rax),%rax
    6f05:	48 8b 00             	mov    (%rax),%rax
    6f08:	48 8b 00             	mov    (%rax),%rax
    6f0b:	8b 00                	mov    (%rax),%eax
    6f0d:	0f b6 c0             	movzbl %al,%eax
    6f10:	89 d6                	mov    %edx,%esi
    6f12:	89 c7                	mov    %eax,%edi
    6f14:	e8 41 ec ff ff       	callq  5b5a <safe_add_func_uint8_t_u_u>
    6f19:	c7 85 70 fa ff ff 04 	movl   $0x4,-0x590(%rbp)
    6f20:	00 00 00 
    6f23:	c7 85 74 fa ff ff 04 	movl   $0x4,-0x58c(%rbp)
    6f2a:	00 00 00 
    6f2d:	c7 85 78 fa ff ff 04 	movl   $0x4,-0x588(%rbp)
    6f34:	00 00 00 
    6f37:	c7 85 7c fa ff ff 04 	movl   $0x4,-0x584(%rbp)
    6f3e:	00 00 00 
    6f41:	c7 85 80 fa ff ff 04 	movl   $0x4,-0x580(%rbp)
    6f48:	00 00 00 
    6f4b:	c7 85 84 fa ff ff 04 	movl   $0x4,-0x57c(%rbp)
    6f52:	00 00 00 
    6f55:	c7 85 88 fa ff ff 04 	movl   $0x4,-0x578(%rbp)
    6f5c:	00 00 00 
    6f5f:	c7 85 54 f9 ff ff 03 	movl   $0x3,-0x6ac(%rbp)
    6f66:	00 00 00 
    6f69:	c7 85 58 f9 ff ff 58 	movl   $0x5ed15d58,-0x6a8(%rbp)
    6f70:	5d d1 5e 
    6f73:	48 b8 df 2b 2f 51 db 	movabs $0x696564db512f2bdf,%rax
    6f7a:	64 65 69 
    6f7d:	48 89 85 e0 f9 ff ff 	mov    %rax,-0x620(%rbp)
    6f84:	c7 85 5c f9 ff ff 00 	movl   $0x0,-0x6a4(%rbp)
    6f8b:	00 00 00 
    6f8e:	eb 1a                	jmp    6faa <func_1+0x7f5>
    6f90:	8b 85 5c f9 ff ff    	mov    -0x6a4(%rbp),%eax
    6f96:	48 98                	cltq   
    6f98:	c7 84 85 6c fa ff ff 	movl   $0x1,-0x594(%rbp,%rax,4)
    6f9f:	01 00 00 00 
    6fa3:	83 85 5c f9 ff ff 01 	addl   $0x1,-0x6a4(%rbp)
    6faa:	83 bd 5c f9 ff ff 00 	cmpl   $0x0,-0x6a4(%rbp)
    6fb1:	7e dd                	jle    6f90 <func_1+0x7db>
    6fb3:	c7 05 ef 27 01 00 f6 	movl   $0xfffffff6,0x127ef(%rip)        # 197ac <g_120>
    6fba:	ff ff ff 
    6fbd:	e9 7b 02 00 00       	jmpq   723d <func_1+0xa88>
    6fc2:	c7 85 20 fb ff ff 09 	movl   $0x9,-0x4e0(%rbp)
    6fc9:	00 00 00 
    6fcc:	c7 85 24 fb ff ff 09 	movl   $0x9,-0x4dc(%rbp)
    6fd3:	00 00 00 
    6fd6:	c7 85 28 fb ff ff 00 	movl   $0x0,-0x4d8(%rbp)
    6fdd:	00 00 00 
    6fe0:	c7 85 2c fb ff ff 01 	movl   $0x12c97c01,-0x4d4(%rbp)
    6fe7:	7c c9 12 
    6fea:	c7 85 30 fb ff ff 00 	movl   $0x0,-0x4d0(%rbp)
    6ff1:	00 00 00 
    6ff4:	c7 85 34 fb ff ff 09 	movl   $0x9,-0x4cc(%rbp)
    6ffb:	00 00 00 
    6ffe:	c7 85 38 fb ff ff 09 	movl   $0x9,-0x4c8(%rbp)
    7005:	00 00 00 
    7008:	c7 85 3c fb ff ff 00 	movl   $0x0,-0x4c4(%rbp)
    700f:	00 00 00 
    7012:	c7 85 40 fb ff ff 01 	movl   $0x12c97c01,-0x4c0(%rbp)
    7019:	7c c9 12 
    701c:	c7 85 44 fb ff ff 00 	movl   $0x0,-0x4bc(%rbp)
    7023:	00 00 00 
    7026:	c7 85 60 f9 ff ff 08 	movl   $0x8,-0x6a0(%rbp)
    702d:	00 00 00 
    7030:	48 8b 05 81 1b 01 00 	mov    0x11b81(%rip),%rax        # 18bb8 <g_191>
    7037:	c7 00 fd ff ff ff    	movl   $0xfffffffd,(%rax)
    703d:	48 8b 05 9c 1c 01 00 	mov    0x11c9c(%rip),%rax        # 18ce0 <g_800>
    7044:	48 8b 00             	mov    (%rax),%rax
    7047:	48 8b 00             	mov    (%rax),%rax
    704a:	8b 18                	mov    (%rax),%ebx
    704c:	48 8b 05 ad 1b 01 00 	mov    0x11bad(%rip),%rax        # 18c00 <g_381>
    7053:	0f b6 00             	movzbl (%rax),%eax
    7056:	44 0f b6 e0          	movzbl %al,%r12d
    705a:	48 8b 05 47 1b 01 00 	mov    0x11b47(%rip),%rax        # 18ba8 <g_106>
    7061:	48 8b 10             	mov    (%rax),%rdx
    7064:	48 8b 05 3d 1b 01 00 	mov    0x11b3d(%rip),%rax        # 18ba8 <g_106>
    706b:	48 83 e2 fc          	and    $0xfffffffffffffffc,%rdx
    706f:	48 89 10             	mov    %rdx,(%rax)
    7072:	4c 8b 38             	mov    (%rax),%r15
    7075:	8b 85 7c fa ff ff    	mov    -0x584(%rbp),%eax
    707b:	85 c0                	test   %eax,%eax
    707d:	0f 85 e7 00 00 00    	jne    716a <func_1+0x9b5>
    7083:	48 8b 05 3e 09 01 00 	mov    0x1093e(%rip),%rax        # 179c8 <g_2037+0x8>
    708a:	48 c1 e0 06          	shl    $0x6,%rax
    708e:	48 c1 f8 3e          	sar    $0x3e,%rax
    7092:	44 0f be e8          	movsbl %al,%r13d
    7096:	48 8b 85 f8 f9 ff ff 	mov    -0x608(%rbp),%rax
    709d:	48 8b 00             	mov    (%rax),%rax
    70a0:	48 8b 00             	mov    (%rax),%rax
    70a3:	48 8b 00             	mov    (%rax),%rax
    70a6:	8b 00                	mov    (%rax),%eax
    70a8:	48 98                	cltq   
    70aa:	48 89 c6             	mov    %rax,%rsi
    70ad:	48 bf 2f f2 fb 69 33 	movabs $0xc065f73369fbf22f,%rdi
    70b4:	f7 65 c0 
    70b7:	e8 85 e7 ff ff       	callq  5841 <safe_add_func_int64_t_s_s>
    70bc:	49 89 c6             	mov    %rax,%r14
    70bf:	48 8b 05 8a 20 01 00 	mov    0x1208a(%rip),%rax        # 19150 <g_1087>
    70c6:	0f b7 00             	movzwl (%rax),%eax
    70c9:	0f bf d0             	movswl %ax,%edx
    70cc:	8b 85 54 f9 ff ff    	mov    -0x6ac(%rbp),%eax
    70d2:	0f b7 c0             	movzwl %ax,%eax
    70d5:	89 d6                	mov    %edx,%esi
    70d7:	89 c7                	mov    %eax,%edi
    70d9:	e8 6a ed ff ff       	callq  5e48 <safe_rshift_func_uint16_t_u_s>
    70de:	0f b7 c0             	movzwl %ax,%eax
    70e1:	49 39 c6             	cmp    %rax,%r14
    70e4:	0f 94 c0             	sete   %al
    70e7:	0f b6 c0             	movzbl %al,%eax
    70ea:	44 89 ee             	mov    %r13d,%esi
    70ed:	89 c7                	mov    %eax,%edi
    70ef:	e8 ca eb ff ff       	callq  5cbe <safe_rshift_func_uint8_t_u_u>
    70f4:	41 bd 01 00 00 00    	mov    $0x1,%r13d
    70fa:	48 8b 85 f8 f9 ff ff 	mov    -0x608(%rbp),%rax
    7101:	48 8b 00             	mov    (%rax),%rax
    7104:	48 8b 00             	mov    (%rax),%rax
    7107:	48 8b 00             	mov    (%rax),%rax
    710a:	8b 00                	mov    (%rax),%eax
    710c:	0f be c0             	movsbl %al,%eax
    710f:	be 04 00 00 00       	mov    $0x4,%esi
    7114:	89 c7                	mov    %eax,%edi
    7116:	e8 51 e2 ff ff       	callq  536c <safe_rshift_func_int8_t_s_u>
    711b:	84 c0                	test   %al,%al
    711d:	75 13                	jne    7132 <func_1+0x97d>
    711f:	48 8b 05 ba 1b 01 00 	mov    0x11bba(%rip),%rax        # 18ce0 <g_800>
    7126:	48 8b 00             	mov    (%rax),%rax
    7129:	48 8b 00             	mov    (%rax),%rax
    712c:	8b 00                	mov    (%rax),%eax
    712e:	85 c0                	test   %eax,%eax
    7130:	74 07                	je     7139 <func_1+0x984>
    7132:	ba 01 00 00 00       	mov    $0x1,%edx
    7137:	eb 05                	jmp    713e <func_1+0x989>
    7139:	ba 00 00 00 00       	mov    $0x0,%edx
    713e:	44 89 e9             	mov    %r13d,%ecx
    7141:	0f b7 05 12 08 01 00 	movzwl 0x10812(%rip),%eax        # 1795a <g_1749>
    7148:	31 c8                	xor    %ecx,%eax
    714a:	66 89 05 09 08 01 00 	mov    %ax,0x10809(%rip)        # 1795a <g_1749>
    7151:	0f b7 05 02 08 01 00 	movzwl 0x10802(%rip),%eax        # 1795a <g_1749>
    7158:	98                   	cwtl   
    7159:	09 d0                	or     %edx,%eax
    715b:	31 85 58 f9 ff ff    	xor    %eax,-0x6a8(%rbp)
    7161:	83 bd 58 f9 ff ff 00 	cmpl   $0x0,-0x6a8(%rbp)
    7168:	74 07                	je     7171 <func_1+0x9bc>
    716a:	b8 01 00 00 00       	mov    $0x1,%eax
    716f:	eb 05                	jmp    7176 <func_1+0x9c1>
    7171:	b8 00 00 00 00       	mov    $0x0,%eax
    7176:	48 98                	cltq   
    7178:	49 39 c7             	cmp    %rax,%r15
    717b:	0f 94 c2             	sete   %dl
    717e:	48 8b 05 ab 1a 01 00 	mov    0x11aab(%rip),%rax        # 18c30 <g_472>
    7185:	0f b6 d2             	movzbl %dl,%edx
    7188:	48 89 10             	mov    %rdx,(%rax)
    718b:	48 8b 00             	mov    (%rax),%rax
    718e:	48 39 85 e0 f9 ff ff 	cmp    %rax,-0x620(%rbp)
    7195:	0f 97 c0             	seta   %al
    7198:	0f b6 c0             	movzbl %al,%eax
    719b:	44 89 e6             	mov    %r12d,%esi
    719e:	89 c7                	mov    %eax,%edi
    71a0:	e8 b5 e9 ff ff       	callq  5b5a <safe_add_func_uint8_t_u_u>
    71a5:	84 c0                	test   %al,%al
    71a7:	75 16                	jne    71bf <func_1+0xa0a>
    71a9:	48 8b 85 f8 f9 ff ff 	mov    -0x608(%rbp),%rax
    71b0:	48 8b 00             	mov    (%rax),%rax
    71b3:	48 8b 00             	mov    (%rax),%rax
    71b6:	48 8b 00             	mov    (%rax),%rax
    71b9:	8b 00                	mov    (%rax),%eax
    71bb:	85 c0                	test   %eax,%eax
    71bd:	74 07                	je     71c6 <func_1+0xa11>
    71bf:	b8 01 00 00 00       	mov    $0x1,%eax
    71c4:	eb 05                	jmp    71cb <func_1+0xa16>
    71c6:	b8 00 00 00 00       	mov    $0x0,%eax
    71cb:	89 de                	mov    %ebx,%esi
    71cd:	89 c7                	mov    %eax,%edi
    71cf:	e8 51 ed ff ff       	callq  5f25 <safe_div_func_uint32_t_u_u>
    71d4:	89 c3                	mov    %eax,%ebx
    71d6:	be 5f 38 00 00       	mov    $0x385f,%esi
    71db:	bf 4b 45 00 00       	mov    $0x454b,%edi
    71e0:	e8 ce e1 ff ff       	callq  53b3 <safe_add_func_int16_t_s_s>
    71e5:	8b 85 6c fa ff ff    	mov    -0x594(%rbp),%eax
    71eb:	21 d8                	and    %ebx,%eax
    71ed:	89 85 6c fa ff ff    	mov    %eax,-0x594(%rbp)
    71f3:	48 8b 05 6e fb 00 00 	mov    0xfb6e(%rip),%rax        # 16d68 <l_2512.4300+0x8>
    71fa:	48 8d 15 af fe 00 00 	lea    0xfeaf(%rip),%rdx        # 170b0 <g_177>
    7201:	48 39 d0             	cmp    %rdx,%rax
    7204:	75 11                	jne    7217 <func_1+0xa62>
    7206:	8b 85 3c fb ff ff    	mov    -0x4c4(%rbp),%eax
    720c:	85 c0                	test   %eax,%eax
    720e:	74 07                	je     7217 <func_1+0xa62>
    7210:	b8 01 00 00 00       	mov    $0x1,%eax
    7215:	eb 05                	jmp    721c <func_1+0xa67>
    7217:	b8 00 00 00 00       	mov    $0x0,%eax
    721c:	21 85 60 f9 ff ff    	and    %eax,-0x6a0(%rbp)
    7222:	8b 05 84 25 01 00    	mov    0x12584(%rip),%eax        # 197ac <g_120>
    7228:	48 98                	cltq   
    722a:	be 04 00 00 00       	mov    $0x4,%esi
    722f:	48 89 c7             	mov    %rax,%rdi
    7232:	e8 71 e6 ff ff       	callq  58a8 <safe_sub_func_int64_t_s_s>
    7237:	89 05 6f 25 01 00    	mov    %eax,0x1256f(%rip)        # 197ac <g_120>
    723d:	8b 05 69 25 01 00    	mov    0x12569(%rip),%eax        # 197ac <g_120>
    7243:	83 f8 e8             	cmp    $0xffffffe8,%eax
    7246:	0f 8c 76 fd ff ff    	jl     6fc2 <func_1+0x80d>
    724c:	48 8b 05 f5 19 01 00 	mov    0x119f5(%rip),%rax        # 18c48 <g_509>
    7253:	48 8b 00             	mov    (%rax),%rax
    7256:	8b 00                	mov    (%rax),%eax
    7258:	48 8b 5d c8          	mov    -0x38(%rbp),%rbx
    725c:	64 48 33 1c 25 28 00 	xor    %fs:0x28,%rbx
    7263:	00 00 
    7265:	74 05                	je     726c <func_1+0xab7>
    7267:	e8 04 de ff ff       	callq  5070 <__stack_chk_fail@plt>
    726c:	48 81 c4 98 06 00 00 	add    $0x698,%rsp
    7273:	5b                   	pop    %rbx
    7274:	41 5c                	pop    %r12
    7276:	41 5d                	pop    %r13
    7278:	41 5e                	pop    %r14
    727a:	41 5f                	pop    %r15
    727c:	5d                   	pop    %rbp
    727d:	c3                   	retq   

000000000000727e <func_6>:
    727e:	f3 0f 1e fa          	endbr64 
    7282:	55                   	push   %rbp
    7283:	48 89 e5             	mov    %rsp,%rbp
    7286:	48 81 ec f0 03 00 00 	sub    $0x3f0,%rsp
    728d:	89 bd 1c fc ff ff    	mov    %edi,-0x3e4(%rbp)
    7293:	89 f0                	mov    %esi,%eax
    7295:	88 85 18 fc ff ff    	mov    %al,-0x3e8(%rbp)
    729b:	64 48 8b 04 25 28 00 	mov    %fs:0x28,%rax
    72a2:	00 00 
    72a4:	48 89 45 f8          	mov    %rax,-0x8(%rbp)
    72a8:	31 c0                	xor    %eax,%eax
    72aa:	48 c7 85 58 fc ff ff 	movq   $0x0,-0x3a8(%rbp)
    72b1:	00 00 00 00 
    72b5:	c7 85 28 fc ff ff 06 	movl   $0x6eea5306,-0x3d8(%rbp)
    72bc:	53 ea 6e 
    72bf:	66 c7 85 22 fc ff ff 	movw   $0xd9cb,-0x3de(%rbp)
    72c6:	cb d9 
    72c8:	c7 85 2c fc ff ff c8 	movl   $0xb5ddd8c8,-0x3d4(%rbp)
    72cf:	d8 dd b5 
    72d2:	48 8d 85 10 fe ff ff 	lea    -0x1f0(%rbp),%rax
    72d9:	48 8d 15 c0 07 01 00 	lea    0x107c0(%rip),%rdx        # 17aa0 <g_2524+0x4>
    72e0:	b9 3c 00 00 00       	mov    $0x3c,%ecx
    72e5:	48 89 c7             	mov    %rax,%rdi
    72e8:	48 89 d6             	mov    %rdx,%rsi
    72eb:	f3 48 a5             	rep movsq %ds:(%rsi),%es:(%rdi)
    72ee:	48 8d 85 10 fe ff ff 	lea    -0x1f0(%rbp),%rax
    72f5:	48 05 d0 00 00 00    	add    $0xd0,%rax
    72fb:	48 89 85 48 fc ff ff 	mov    %rax,-0x3b8(%rbp)
    7302:	48 8d 85 48 fc ff ff 	lea    -0x3b8(%rbp),%rax
    7309:	48 89 85 50 fc ff ff 	mov    %rax,-0x3b0(%rbp)
    7310:	c7 85 30 fc ff ff 0b 	movl   $0xa060fe0b,-0x3d0(%rbp)
    7317:	fe 60 a0 
    731a:	c7 85 34 fc ff ff fa 	movl   $0xfffffffa,-0x3cc(%rbp)
    7321:	ff ff ff 
    7324:	c7 85 38 fc ff ff 01 	movl   $0x1,-0x3c8(%rbp)
    732b:	00 00 00 
    732e:	c7 85 3c fc ff ff 01 	movl   $0x1,-0x3c4(%rbp)
    7335:	00 00 00 
    7338:	c7 85 40 fc ff ff fd 	movl   $0xfffffffd,-0x3c0(%rbp)
    733f:	ff ff ff 
    7342:	c7 85 44 fc ff ff 92 	movl   $0xcac4ed92,-0x3bc(%rbp)
    7349:	ed c4 ca 
    734c:	48 c7 85 60 fc ff ff 	movq   $0x0,-0x3a0(%rbp)
    7353:	00 00 00 00 
    7357:	48 c7 85 68 fc ff ff 	movq   $0xfffffffffffffff8,-0x398(%rbp)
    735e:	f8 ff ff ff 
    7362:	48 8d 85 50 fc ff ff 	lea    -0x3b0(%rbp),%rax
    7369:	48 89 85 70 fc ff ff 	mov    %rax,-0x390(%rbp)
    7370:	48 8d 85 80 fc ff ff 	lea    -0x380(%rbp),%rax
    7377:	48 8d 15 02 09 01 00 	lea    0x10902(%rip),%rdx        # 17c80 <g_2524+0x1e4>
    737e:	b9 32 00 00 00       	mov    $0x32,%ecx
    7383:	48 89 c7             	mov    %rax,%rdi
    7386:	48 89 d6             	mov    %rdx,%rsi
    7389:	f3 48 a5             	rep movsq %ds:(%rsi),%es:(%rdi)
    738c:	c7 85 24 fc ff ff 00 	movl   $0x0,-0x3dc(%rbp)
    7393:	00 00 00 
    7396:	eb 1a                	jmp    73b2 <func_6+0x134>
    7398:	8b 85 24 fc ff ff    	mov    -0x3dc(%rbp),%eax
    739e:	48 98                	cltq   
    73a0:	c7 84 85 7c fc ff ff 	movl   $0xa766c30f,-0x384(%rbp,%rax,4)
    73a7:	0f c3 66 a7 
    73ab:	83 85 24 fc ff ff 01 	addl   $0x1,-0x3dc(%rbp)
    73b2:	83 bd 24 fc ff ff 00 	cmpl   $0x0,-0x3dc(%rbp)
    73b9:	7e dd                	jle    7398 <func_6+0x11a>
    73bb:	48 83 bd 58 fc ff ff 	cmpq   $0x0,-0x3a8(%rbp)
    73c2:	00 
    73c3:	0f 94 c0             	sete   %al
    73c6:	0f b6 c0             	movzbl %al,%eax
    73c9:	09 85 28 fc ff ff    	or     %eax,-0x3d8(%rbp)
    73cf:	48 8b 05 da 18 01 00 	mov    0x118da(%rip),%rax        # 18cb0 <g_532>
    73d6:	48 8b 00             	mov    (%rax),%rax
    73d9:	48 8b 55 f8          	mov    -0x8(%rbp),%rdx
    73dd:	64 48 33 14 25 28 00 	xor    %fs:0x28,%rdx
    73e4:	00 00 
    73e6:	74 05                	je     73ed <func_6+0x16f>
    73e8:	e8 83 dc ff ff       	callq  5070 <__stack_chk_fail@plt>
    73ed:	c9                   	leaveq 
    73ee:	c3                   	retq   

00000000000073ef <func_19>:
    73ef:	f3 0f 1e fa          	endbr64 
    73f3:	55                   	push   %rbp
    73f4:	48 89 e5             	mov    %rsp,%rbp
    73f7:	41 56                	push   %r14
    73f9:	41 55                	push   %r13
    73fb:	41 54                	push   %r12
    73fd:	53                   	push   %rbx
    73fe:	48 81 ec 10 02 00 00 	sub    $0x210,%rsp
    7405:	48 89 bd f8 fd ff ff 	mov    %rdi,-0x208(%rbp)
    740c:	48 89 b5 f0 fd ff ff 	mov    %rsi,-0x210(%rbp)
    7413:	89 d0                	mov    %edx,%eax
    7415:	48 89 8d e0 fd ff ff 	mov    %rcx,-0x220(%rbp)
    741c:	4c 89 85 d8 fd ff ff 	mov    %r8,-0x228(%rbp)
    7423:	88 85 ec fd ff ff    	mov    %al,-0x214(%rbp)
    7429:	64 48 8b 04 25 28 00 	mov    %fs:0x28,%rax
    7430:	00 00 
    7432:	48 89 45 d8          	mov    %rax,-0x28(%rbp)
    7436:	31 c0                	xor    %eax,%eax
    7438:	48 8d 05 39 fc 00 00 	lea    0xfc39(%rip),%rax        # 17078 <g_43>
    743f:	48 89 85 28 fe ff ff 	mov    %rax,-0x1d8(%rbp)
    7446:	48 8d 05 2b fc 00 00 	lea    0xfc2b(%rip),%rax        # 17078 <g_43>
    744d:	48 89 85 30 fe ff ff 	mov    %rax,-0x1d0(%rbp)
    7454:	48 8d 05 01 ff 00 00 	lea    0xff01(%rip),%rax        # 1735c <g_1172>
    745b:	48 89 85 38 fe ff ff 	mov    %rax,-0x1c8(%rbp)
    7462:	48 8d 85 b0 fe ff ff 	lea    -0x150(%rbp),%rax
    7469:	48 8d 15 b0 09 01 00 	lea    0x109b0(%rip),%rdx        # 17e20 <g_2524+0x384>
    7470:	b9 24 00 00 00       	mov    $0x24,%ecx
    7475:	48 89 c7             	mov    %rax,%rdi
    7478:	48 89 d6             	mov    %rdx,%rsi
    747b:	f3 48 a5             	rep movsq %ds:(%rsi),%es:(%rdi)
    747e:	c7 85 10 fe ff ff 08 	movl   $0x8,-0x1f0(%rbp)
    7485:	00 00 00 
    7488:	c7 85 14 fe ff ff 99 	movl   $0x63284c99,-0x1ec(%rbp)
    748f:	4c 28 63 
    7492:	c7 85 18 fe ff ff 05 	movl   $0x5,-0x1e8(%rbp)
    7499:	00 00 00 
    749c:	48 c7 85 40 fe ff ff 	movq   $0x0,-0x1c0(%rbp)
    74a3:	00 00 00 00 
    74a7:	48 8d 05 32 18 01 00 	lea    0x11832(%rip),%rax        # 18ce0 <g_800>
    74ae:	48 89 85 48 fe ff ff 	mov    %rax,-0x1b8(%rbp)
    74b5:	66 c7 85 0e fe ff ff 	movw   $0xfff6,-0x1f2(%rbp)
    74bc:	f6 ff 
    74be:	83 85 18 fe ff ff 01 	addl   $0x1,-0x1e8(%rbp)
    74c5:	48 8b 85 d8 fd ff ff 	mov    -0x228(%rbp),%rax
    74cc:	0f be c0             	movsbl %al,%eax
    74cf:	be 06 00 00 00       	mov    $0x6,%esi
    74d4:	89 c7                	mov    %eax,%edi
    74d6:	e8 c6 dd ff ff       	callq  52a1 <safe_lshift_func_int8_t_s_s>
    74db:	84 c0                	test   %al,%al
    74dd:	0f 84 bf 01 00 00    	je     76a2 <func_19+0x2b3>
    74e3:	48 8d 05 9e fb 00 00 	lea    0xfb9e(%rip),%rax        # 17088 <g_115>
    74ea:	48 89 85 80 fe ff ff 	mov    %rax,-0x180(%rbp)
    74f1:	48 8d 05 90 fb 00 00 	lea    0xfb90(%rip),%rax        # 17088 <g_115>
    74f8:	48 89 85 88 fe ff ff 	mov    %rax,-0x178(%rbp)
    74ff:	48 8d 05 82 fb 00 00 	lea    0xfb82(%rip),%rax        # 17088 <g_115>
    7506:	48 89 85 90 fe ff ff 	mov    %rax,-0x170(%rbp)
    750d:	48 8d 05 74 fb 00 00 	lea    0xfb74(%rip),%rax        # 17088 <g_115>
    7514:	48 89 85 98 fe ff ff 	mov    %rax,-0x168(%rbp)
    751b:	48 8d 05 66 fb 00 00 	lea    0xfb66(%rip),%rax        # 17088 <g_115>
    7522:	48 89 85 a0 fe ff ff 	mov    %rax,-0x160(%rbp)
    7529:	48 8d 05 58 fb 00 00 	lea    0xfb58(%rip),%rax        # 17088 <g_115>
    7530:	48 89 85 a8 fe ff ff 	mov    %rax,-0x158(%rbp)
    7537:	c7 85 20 fe ff ff 03 	movl   $0x3,-0x1e0(%rbp)
    753e:	00 00 00 
    7541:	48 8d 05 12 04 01 00 	lea    0x10412(%rip),%rax        # 1795a <g_1749>
    7548:	48 89 85 68 fe ff ff 	mov    %rax,-0x198(%rbp)
    754f:	48 8b 05 a2 16 01 00 	mov    0x116a2(%rip),%rax        # 18bf8 <g_346>
    7556:	48 8b 95 f0 fd ff ff 	mov    -0x210(%rbp),%rdx
    755d:	48 89 10             	mov    %rdx,(%rax)
    7560:	48 8b 05 d1 16 01 00 	mov    0x116d1(%rip),%rax        # 18c38 <g_471>
    7567:	48 8b 10             	mov    (%rax),%rdx
    756a:	48 8b 85 40 fe ff ff 	mov    -0x1c0(%rbp),%rax
    7571:	48 89 85 88 fe ff ff 	mov    %rax,-0x178(%rbp)
    7578:	48 8b 85 88 fe ff ff 	mov    -0x178(%rbp),%rax
    757f:	48 39 c2             	cmp    %rax,%rdx
    7582:	0f 84 f4 00 00 00    	je     767c <func_19+0x28d>
    7588:	0f b6 9d ec fd ff ff 	movzbl -0x214(%rbp),%ebx
    758f:	48 8b 05 ba 1b 01 00 	mov    0x11bba(%rip),%rax        # 19150 <g_1087>
    7596:	0f b7 10             	movzwl (%rax),%edx
    7599:	8b 85 20 fe ff ff    	mov    -0x1e0(%rbp),%eax
    759f:	89 c1                	mov    %eax,%ecx
    75a1:	48 8b 05 a8 1b 01 00 	mov    0x11ba8(%rip),%rax        # 19150 <g_1087>
    75a8:	21 ca                	and    %ecx,%edx
    75aa:	66 89 10             	mov    %dx,(%rax)
    75ad:	0f b7 00             	movzwl (%rax),%eax
    75b0:	44 0f bf e8          	movswl %ax,%r13d
    75b4:	48 8b 05 4d 16 01 00 	mov    0x1164d(%rip),%rax        # 18c08 <g_380>
    75bb:	48 8b 00             	mov    (%rax),%rax
    75be:	0f b6 00             	movzbl (%rax),%eax
    75c1:	44 0f be e0          	movsbl %al,%r12d
    75c5:	48 8b 85 d8 fd ff ff 	mov    -0x228(%rbp),%rax
    75cc:	41 89 c6             	mov    %eax,%r14d
    75cf:	48 8b 05 d2 15 01 00 	mov    0x115d2(%rip),%rax        # 18ba8 <g_106>
    75d6:	48 8b 00             	mov    (%rax),%rax
    75d9:	89 c2                	mov    %eax,%edx
    75db:	8b 85 20 fe ff ff    	mov    -0x1e0(%rbp),%eax
    75e1:	31 d0                	xor    %edx,%eax
    75e3:	89 c2                	mov    %eax,%edx
    75e5:	8b 85 20 fe ff ff    	mov    -0x1e0(%rbp),%eax
    75eb:	0f b7 c0             	movzwl %ax,%eax
    75ee:	89 d6                	mov    %edx,%esi
    75f0:	89 c7                	mov    %eax,%edi
    75f2:	e8 51 e8 ff ff       	callq  5e48 <safe_rshift_func_uint16_t_u_s>
    75f7:	0f b6 c0             	movzbl %al,%eax
    75fa:	44 89 f6             	mov    %r14d,%esi
    75fd:	89 c7                	mov    %eax,%edi
    75ff:	e8 01 e6 ff ff       	callq  5c05 <safe_lshift_func_uint8_t_u_s>
    7604:	0f b6 d0             	movzbl %al,%edx
    7607:	48 8b 85 68 fe ff ff 	mov    -0x198(%rbp),%rax
    760e:	66 89 10             	mov    %dx,(%rax)
    7611:	48 be bc db 8e 1a 07 	movabs $0x9f586b071a8edbbc,%rsi
    7618:	6b 58 9f 
    761b:	48 bf 15 0d 4b 03 e9 	movabs $0x9cb4ace9034b0d15,%rdi
    7622:	ac b4 9c 
    7625:	e8 56 ea ff ff       	callq  6080 <safe_mod_func_uint64_t_u_u>
    762a:	0f b6 c0             	movzbl %al,%eax
    762d:	44 89 e6             	mov    %r12d,%esi
    7630:	89 c7                	mov    %eax,%edi
    7632:	e8 ce e5 ff ff       	callq  5c05 <safe_lshift_func_uint8_t_u_s>
    7637:	0f b6 c0             	movzbl %al,%eax
    763a:	41 39 c5             	cmp    %eax,%r13d
    763d:	0f 9f c0             	setg   %al
    7640:	0f b6 c0             	movzbl %al,%eax
    7643:	89 de                	mov    %ebx,%esi
    7645:	89 c7                	mov    %eax,%edi
    7647:	e8 b9 e5 ff ff       	callq  5c05 <safe_lshift_func_uint8_t_u_s>
    764c:	0f b6 d0             	movzbl %al,%edx
    764f:	48 8b 85 e0 fd ff ff 	mov    -0x220(%rbp),%rax
    7656:	89 c1                	mov    %eax,%ecx
    7658:	48 8b 85 38 fe ff ff 	mov    -0x1c8(%rbp),%rax
    765f:	89 08                	mov    %ecx,(%rax)
    7661:	48 8b 85 38 fe ff ff 	mov    -0x1c8(%rbp),%rax
    7668:	8b 00                	mov    (%rax),%eax
    766a:	0f b7 c0             	movzwl %ax,%eax
    766d:	89 d6                	mov    %edx,%esi
    766f:	89 c7                	mov    %eax,%edi
    7671:	e8 18 e7 ff ff       	callq  5d8e <safe_div_func_uint16_t_u_u>
    7676:	66 83 f8 01          	cmp    $0x1,%ax
    767a:	74 07                	je     7683 <func_19+0x294>
    767c:	ba 01 00 00 00       	mov    $0x1,%edx
    7681:	eb 05                	jmp    7688 <func_19+0x299>
    7683:	ba 00 00 00 00       	mov    $0x0,%edx
    7688:	48 8b 05 29 15 01 00 	mov    0x11529(%rip),%rax        # 18bb8 <g_191>
    768f:	89 10                	mov    %edx,(%rax)
    7691:	48 8b 05 20 15 01 00 	mov    0x11520(%rip),%rax        # 18bb8 <g_191>
    7698:	8b 95 20 fe ff ff    	mov    -0x1e0(%rbp),%edx
    769e:	89 10                	mov    %edx,(%rax)
    76a0:	eb 7a                	jmp    771c <func_19+0x32d>
    76a2:	48 8d 05 37 16 01 00 	lea    0x11637(%rip),%rax        # 18ce0 <g_800>
    76a9:	48 89 85 50 fe ff ff 	mov    %rax,-0x1b0(%rbp)
    76b0:	c7 85 1c fe ff ff 00 	movl   $0x0,-0x1e4(%rbp)
    76b7:	00 00 00 
    76ba:	48 c7 85 58 fe ff ff 	movq   $0x0,-0x1a8(%rbp)
    76c1:	00 00 00 00 
    76c5:	48 8d 05 dc 20 01 00 	lea    0x120dc(%rip),%rax        # 197a8 <g_97>
    76cc:	48 89 85 60 fe ff ff 	mov    %rax,-0x1a0(%rbp)
    76d3:	48 8b 85 60 fe ff ff 	mov    -0x1a0(%rbp),%rax
    76da:	c6 00 01             	movb   $0x1,(%rax)
    76dd:	83 bd 1c fe ff ff 00 	cmpl   $0x0,-0x1e4(%rbp)
    76e4:	48 8b 85 48 fe ff ff 	mov    -0x1b8(%rbp),%rax
    76eb:	48 3b 85 50 fe ff ff 	cmp    -0x1b0(%rbp),%rax
    76f2:	0f 95 c0             	setne  %al
    76f5:	0f b6 c0             	movzbl %al,%eax
    76f8:	48 39 85 d8 fd ff ff 	cmp    %rax,-0x228(%rbp)
    76ff:	0f 92 c0             	setb   %al
    7702:	0f b6 d0             	movzbl %al,%edx
    7705:	8b 05 3d 21 01 00    	mov    0x1213d(%rip),%eax        # 19848 <g_1882>
    770b:	39 c2                	cmp    %eax,%edx
    770d:	0f 9d c0             	setge  %al
    7710:	0f b6 d0             	movzbl %al,%edx
    7713:	48 8b 85 28 fe ff ff 	mov    -0x1d8(%rbp),%rax
    771a:	89 10                	mov    %edx,(%rax)
    771c:	66 c7 05 a3 f9 00 00 	movw   $0x0,0xf9a3(%rip)        # 170c8 <g_224>
    7723:	00 00 
    7725:	e9 a2 01 00 00       	jmpq   78cc <func_19+0x4dd>
    772a:	c6 85 0d fe ff ff 8d 	movb   $0x8d,-0x1f3(%rbp)
    7731:	48 8d 05 22 02 01 00 	lea    0x10222(%rip),%rax        # 1795a <g_1749>
    7738:	48 89 85 70 fe ff ff 	mov    %rax,-0x190(%rbp)
    773f:	c7 85 24 fe ff ff 01 	movl   $0x1,-0x1dc(%rbp)
    7746:	00 00 00 
    7749:	48 8d 85 0e fe ff ff 	lea    -0x1f2(%rbp),%rax
    7750:	48 89 85 78 fe ff ff 	mov    %rax,-0x188(%rbp)
    7757:	80 ad 0d fe ff ff 01 	subb   $0x1,-0x1f3(%rbp)
    775e:	48 8b 85 e0 fd ff ff 	mov    -0x220(%rbp),%rax
    7765:	41 89 c5             	mov    %eax,%r13d
    7768:	0f b6 9d ec fd ff ff 	movzbl -0x214(%rbp),%ebx
    776f:	44 0f b6 a5 0d fe ff 	movzbl -0x1f3(%rbp),%r12d
    7776:	ff 
    7777:	be 04 00 00 00       	mov    $0x4,%esi
    777c:	bf 01 00 00 00       	mov    $0x1,%edi
    7781:	e8 7f e4 ff ff       	callq  5c05 <safe_lshift_func_uint8_t_u_s>
    7786:	48 8b 05 a3 14 01 00 	mov    0x114a3(%rip),%rax        # 18c30 <g_472>
    778d:	48 8b 08             	mov    (%rax),%rcx
    7790:	0f b7 85 0e fe ff ff 	movzwl -0x1f2(%rbp),%eax
    7797:	48 0f bf d0          	movswq %ax,%rdx
    779b:	48 8b 05 8e 14 01 00 	mov    0x1148e(%rip),%rax        # 18c30 <g_472>
    77a2:	48 31 ca             	xor    %rcx,%rdx
    77a5:	48 89 10             	mov    %rdx,(%rax)
    77a8:	48 8b 00             	mov    (%rax),%rax
    77ab:	48 89 c1             	mov    %rax,%rcx
    77ae:	48 8b 05 f3 13 01 00 	mov    0x113f3(%rip),%rax        # 18ba8 <g_106>
    77b5:	48 8b 95 d8 fd ff ff 	mov    -0x228(%rbp),%rdx
    77bc:	48 89 10             	mov    %rdx,(%rax)
    77bf:	48 8b 00             	mov    (%rax),%rax
    77c2:	48 39 c1             	cmp    %rax,%rcx
    77c5:	0f 95 c0             	setne  %al
    77c8:	0f b6 c0             	movzbl %al,%eax
    77cb:	89 c6                	mov    %eax,%esi
    77cd:	bf 7b 16 3d ea       	mov    $0xea3d167b,%edi
    77d2:	e8 df dd ff ff       	callq  55b6 <safe_add_func_int32_t_s_s>
    77d7:	0f b6 85 0d fe ff ff 	movzbl -0x1f3(%rbp),%eax
    77de:	0f be c0             	movsbl %al,%eax
    77e1:	be 01 00 00 00       	mov    $0x1,%esi
    77e6:	89 c7                	mov    %eax,%edi
    77e8:	e8 7f db ff ff       	callq  536c <safe_rshift_func_int8_t_s_u>
    77ed:	48 8b 05 5c 19 01 00 	mov    0x1195c(%rip),%rax        # 19150 <g_1087>
    77f4:	0f b7 00             	movzwl (%rax),%eax
    77f7:	0f bf d0             	movswl %ax,%edx
    77fa:	48 8b 85 70 fe ff ff 	mov    -0x190(%rbp),%rax
    7801:	0f b7 00             	movzwl (%rax),%eax
    7804:	66 35 3d 9a          	xor    $0x9a3d,%ax
    7808:	89 c1                	mov    %eax,%ecx
    780a:	48 8b 85 70 fe ff ff 	mov    -0x190(%rbp),%rax
    7811:	66 89 08             	mov    %cx,(%rax)
    7814:	48 8b 85 70 fe ff ff 	mov    -0x190(%rbp),%rax
    781b:	0f b7 00             	movzwl (%rax),%eax
    781e:	98                   	cwtl   
    781f:	89 d6                	mov    %edx,%esi
    7821:	89 c7                	mov    %eax,%edi
    7823:	e8 cd db ff ff       	callq  53f5 <safe_mul_func_int16_t_s_s>
    7828:	98                   	cwtl   
    7829:	44 89 e6             	mov    %r12d,%esi
    782c:	89 c7                	mov    %eax,%edi
    782e:	e8 a0 db ff ff       	callq  53d3 <safe_sub_func_int16_t_s_s>
    7833:	0f be c0             	movsbl %al,%eax
    7836:	89 c6                	mov    %eax,%esi
    7838:	bf 01 00 00 00       	mov    $0x1,%edi
    783d:	e8 ef d9 ff ff       	callq  5231 <safe_mod_func_int8_t_s_s>
    7842:	0f be c0             	movsbl %al,%eax
    7845:	89 85 24 fe ff ff    	mov    %eax,-0x1dc(%rbp)
    784b:	8b 85 24 fe ff ff    	mov    -0x1dc(%rbp),%eax
    7851:	0f b7 c0             	movzwl %ax,%eax
    7854:	89 de                	mov    %ebx,%esi
    7856:	89 c7                	mov    %eax,%edi
    7858:	e8 e0 e4 ff ff       	callq  5d3d <safe_mul_func_uint16_t_u_u>
    785d:	0f b7 c0             	movzwl %ax,%eax
    7860:	48 33 85 e0 fd ff ff 	xor    -0x220(%rbp),%rax
    7867:	48 89 c2             	mov    %rax,%rdx
    786a:	0f b6 05 4f 00 01 00 	movzbl 0x1004f(%rip),%eax        # 178c0 <g_1313>
    7871:	0f b6 c0             	movzbl %al,%eax
    7874:	48 39 c2             	cmp    %rax,%rdx
    7877:	73 07                	jae    7880 <func_19+0x491>
    7879:	b8 01 00 00 00       	mov    $0x1,%eax
    787e:	eb 05                	jmp    7885 <func_19+0x496>
    7880:	b8 00 00 00 00       	mov    $0x0,%eax
    7885:	89 c2                	mov    %eax,%edx
    7887:	48 8b 85 78 fe ff ff 	mov    -0x188(%rbp),%rax
    788e:	66 89 10             	mov    %dx,(%rax)
    7891:	44 89 ee             	mov    %r13d,%esi
    7894:	bf 00 00 00 00       	mov    $0x0,%edi
    7899:	e8 aa e5 ff ff       	callq  5e48 <safe_rshift_func_uint16_t_u_s>
    789e:	89 c2                	mov    %eax,%edx
    78a0:	48 8b 05 11 13 01 00 	mov    0x11311(%rip),%rax        # 18bb8 <g_191>
    78a7:	0f b7 d2             	movzwl %dx,%edx
    78aa:	89 10                	mov    %edx,(%rax)
    78ac:	0f b7 05 15 f8 00 00 	movzwl 0xf815(%rip),%eax        # 170c8 <g_224>
    78b3:	0f b6 c0             	movzbl %al,%eax
    78b6:	be 01 00 00 00       	mov    $0x1,%esi
    78bb:	89 c7                	mov    %eax,%edi
    78bd:	e8 b6 e2 ff ff       	callq  5b78 <safe_sub_func_uint8_t_u_u>
    78c2:	0f b6 c0             	movzbl %al,%eax
    78c5:	66 89 05 fc f7 00 00 	mov    %ax,0xf7fc(%rip)        # 170c8 <g_224>
    78cc:	0f b7 05 f5 f7 00 00 	movzwl 0xf7f5(%rip),%eax        # 170c8 <g_224>
    78d3:	66 83 f8 fe          	cmp    $0xfffe,%ax
    78d7:	0f 85 4d fe ff ff    	jne    772a <func_19+0x33b>
    78dd:	48 8b 05 7c 13 01 00 	mov    0x1137c(%rip),%rax        # 18c60 <g_531>
    78e4:	8b 00                	mov    (%rax),%eax
    78e6:	48 8b 5d d8          	mov    -0x28(%rbp),%rbx
    78ea:	64 48 33 1c 25 28 00 	xor    %fs:0x28,%rbx
    78f1:	00 00 
    78f3:	74 05                	je     78fa <func_19+0x50b>
    78f5:	e8 76 d7 ff ff       	callq  5070 <__stack_chk_fail@plt>
    78fa:	48 81 c4 10 02 00 00 	add    $0x210,%rsp
    7901:	5b                   	pop    %rbx
    7902:	41 5c                	pop    %r12
    7904:	41 5d                	pop    %r13
    7906:	41 5e                	pop    %r14
    7908:	5d                   	pop    %rbp
    7909:	c3                   	retq   

000000000000790a <func_25>:
    790a:	f3 0f 1e fa          	endbr64 
    790e:	55                   	push   %rbp
    790f:	48 89 e5             	mov    %rsp,%rbp
    7912:	48 81 ec 40 07 00 00 	sub    $0x740,%rsp
    7919:	48 89 bd d8 f8 ff ff 	mov    %rdi,-0x728(%rbp)
    7920:	89 b5 d4 f8 ff ff    	mov    %esi,-0x72c(%rbp)
    7926:	48 89 95 c8 f8 ff ff 	mov    %rdx,-0x738(%rbp)
    792d:	89 8d d0 f8 ff ff    	mov    %ecx,-0x730(%rbp)
    7933:	44 89 c0             	mov    %r8d,%eax
    7936:	88 85 c4 f8 ff ff    	mov    %al,-0x73c(%rbp)
    793c:	64 48 8b 04 25 28 00 	mov    %fs:0x28,%rax
    7943:	00 00 
    7945:	48 89 45 f8          	mov    %rax,-0x8(%rbp)
    7949:	31 c0                	xor    %eax,%eax
    794b:	c7 85 f4 f8 ff ff 07 	movl   $0x7,-0x70c(%rbp)
    7952:	00 00 00 
    7955:	c7 85 e4 f8 ff ff b9 	movl   $0x1c15fdb9,-0x71c(%rbp)
    795c:	fd 15 1c 
    795f:	c7 85 e8 f8 ff ff bb 	movl   $0xe6ae94bb,-0x718(%rbp)
    7966:	94 ae e6 
    7969:	c7 85 f8 f8 ff ff 30 	movl   $0x7fe5b830,-0x708(%rbp)
    7970:	b8 e5 7f 
    7973:	c7 85 fc f8 ff ff d3 	movl   $0x20df0ed3,-0x704(%rbp)
    797a:	0e df 20 
    797d:	c7 85 00 f9 ff ff ff 	movl   $0xffffffff,-0x700(%rbp)
    7984:	ff ff ff 
    7987:	c7 85 00 fa ff ff 30 	movl   $0xd57d2930,-0x600(%rbp)
    798e:	29 7d d5 
    7991:	c7 85 04 fa ff ff 30 	movl   $0xd57d2930,-0x5fc(%rbp)
    7998:	29 7d d5 
    799b:	c7 85 08 fa ff ff 01 	movl   $0x1,-0x5f8(%rbp)
    79a2:	00 00 00 
    79a5:	c7 85 0c fa ff ff 30 	movl   $0xd57d2930,-0x5f4(%rbp)
    79ac:	29 7d d5 
    79af:	c7 85 10 fa ff ff 30 	movl   $0xd57d2930,-0x5f0(%rbp)
    79b6:	29 7d d5 
    79b9:	c7 85 14 fa ff ff 01 	movl   $0x1,-0x5ec(%rbp)
    79c0:	00 00 00 
    79c3:	c7 85 18 fa ff ff 30 	movl   $0xd57d2930,-0x5e8(%rbp)
    79ca:	29 7d d5 
    79cd:	c7 85 1c fa ff ff 30 	movl   $0xd57d2930,-0x5e4(%rbp)
    79d4:	29 7d d5 
    79d7:	48 8d 05 72 17 01 00 	lea    0x11772(%rip),%rax        # 19150 <g_1087>
    79de:	48 89 85 18 f9 ff ff 	mov    %rax,-0x6e8(%rbp)
    79e5:	48 c7 85 20 f9 ff ff 	movq   $0x0,-0x6e0(%rbp)
    79ec:	00 00 00 00 
    79f0:	48 c7 85 28 f9 ff ff 	movq   $0x0,-0x6d8(%rbp)
    79f7:	00 00 00 00 
    79fb:	48 8d 05 86 f6 00 00 	lea    0xf686(%rip),%rax        # 17088 <g_115>
    7a02:	48 89 85 30 f9 ff ff 	mov    %rax,-0x6d0(%rbp)
    7a09:	48 8d 85 e4 f8 ff ff 	lea    -0x71c(%rbp),%rax
    7a10:	48 89 85 38 f9 ff ff 	mov    %rax,-0x6c8(%rbp)
    7a17:	48 c7 85 40 f9 ff ff 	movq   $0x0,-0x6c0(%rbp)
    7a1e:	00 00 00 00 
    7a22:	48 c7 85 48 f9 ff ff 	movq   $0x3,-0x6b8(%rbp)
    7a29:	03 00 00 00 
    7a2d:	48 c7 85 50 f9 ff ff 	movq   $0x0,-0x6b0(%rbp)
    7a34:	00 00 00 00 
    7a38:	48 c7 85 58 f9 ff ff 	movq   $0x0,-0x6a8(%rbp)
    7a3f:	00 00 00 00 
    7a43:	48 8d 05 5e 1d 01 00 	lea    0x11d5e(%rip),%rax        # 197a8 <g_97>
    7a4a:	48 89 85 60 f9 ff ff 	mov    %rax,-0x6a0(%rbp)
    7a51:	48 b8 23 b4 f6 de f9 	movabs $0xcfe2f2f9def6b423,%rax
    7a58:	f2 e2 cf 
    7a5b:	48 89 85 68 f9 ff ff 	mov    %rax,-0x698(%rbp)
    7a62:	48 c7 85 70 f9 ff ff 	movq   $0x0,-0x690(%rbp)
    7a69:	00 00 00 00 
    7a6d:	48 b8 c9 8e 78 22 6b 	movabs $0x9e9b856b22788ec9,%rax
    7a74:	85 9b 9e 
    7a77:	48 89 85 78 f9 ff ff 	mov    %rax,-0x688(%rbp)
    7a7e:	48 8d 05 53 17 01 00 	lea    0x11753(%rip),%rax        # 191d8 <g_1236+0x18>
    7a85:	48 89 85 80 f9 ff ff 	mov    %rax,-0x680(%rbp)
    7a8c:	c7 85 ec f8 ff ff 00 	movl   $0x0,-0x714(%rbp)
    7a93:	00 00 00 
    7a96:	eb 1a                	jmp    7ab2 <func_25+0x1a8>
    7a98:	8b 85 ec f8 ff ff    	mov    -0x714(%rbp),%eax
    7a9e:	48 98                	cltq   
    7aa0:	c7 84 85 f8 f9 ff ff 	movl   $0x99ed61cb,-0x608(%rbp,%rax,4)
    7aa7:	cb 61 ed 99 
    7aab:	83 85 ec f8 ff ff 01 	addl   $0x1,-0x714(%rbp)
    7ab2:	83 bd ec f8 ff ff 01 	cmpl   $0x1,-0x714(%rbp)
    7ab9:	7e dd                	jle    7a98 <func_25+0x18e>
    7abb:	c7 85 d0 f8 ff ff fe 	movl   $0xfffffffe,-0x730(%rbp)
    7ac2:	ff ff ff 
    7ac5:	e9 7e 01 00 00       	jmpq   7c48 <func_25+0x33e>
    7aca:	48 8d 05 a7 f5 00 00 	lea    0xf5a7(%rip),%rax        # 17078 <g_43>
    7ad1:	48 89 85 b8 f9 ff ff 	mov    %rax,-0x648(%rbp)
    7ad8:	48 8d 05 91 f5 00 00 	lea    0xf591(%rip),%rax        # 17070 <g_33>
    7adf:	48 89 85 c0 f9 ff ff 	mov    %rax,-0x640(%rbp)
    7ae6:	48 8d 05 53 f5 00 00 	lea    0xf553(%rip),%rax        # 17040 <g_14>
    7aed:	48 89 85 c8 f9 ff ff 	mov    %rax,-0x638(%rbp)
    7af4:	48 8d 05 d5 f6 00 00 	lea    0xf6d5(%rip),%rax        # 171d0 <g_608>
    7afb:	48 89 85 d0 f9 ff ff 	mov    %rax,-0x630(%rbp)
    7b02:	48 8d 05 9f 11 01 00 	lea    0x1119f(%rip),%rax        # 18ca8 <g_533+0x28>
    7b09:	48 89 85 d8 f9 ff ff 	mov    %rax,-0x628(%rbp)
    7b10:	48 8d 05 45 f8 00 00 	lea    0xf845(%rip),%rax        # 1735c <g_1172>
    7b17:	48 89 85 d0 fc ff ff 	mov    %rax,-0x330(%rbp)
    7b1e:	48 8d 05 37 f8 00 00 	lea    0xf837(%rip),%rax        # 1735c <g_1172>
    7b25:	48 89 85 d8 fc ff ff 	mov    %rax,-0x328(%rbp)
    7b2c:	48 8d 05 29 f8 00 00 	lea    0xf829(%rip),%rax        # 1735c <g_1172>
    7b33:	48 89 85 e0 fc ff ff 	mov    %rax,-0x320(%rbp)
    7b3a:	48 8d 05 1b f8 00 00 	lea    0xf81b(%rip),%rax        # 1735c <g_1172>
    7b41:	48 89 85 e8 fc ff ff 	mov    %rax,-0x318(%rbp)
    7b48:	48 8d 05 0d f8 00 00 	lea    0xf80d(%rip),%rax        # 1735c <g_1172>
    7b4f:	48 89 85 f0 fc ff ff 	mov    %rax,-0x310(%rbp)
    7b56:	48 8d 05 ff f7 00 00 	lea    0xf7ff(%rip),%rax        # 1735c <g_1172>
    7b5d:	48 89 85 f8 fc ff ff 	mov    %rax,-0x308(%rbp)
    7b64:	48 8d 05 f1 f7 00 00 	lea    0xf7f1(%rip),%rax        # 1735c <g_1172>
    7b6b:	48 89 85 00 fd ff ff 	mov    %rax,-0x300(%rbp)
    7b72:	c7 85 04 f9 ff ff 5d 	movl   $0x293d375d,-0x6fc(%rbp)
    7b79:	37 3d 29 
    7b7c:	48 c7 85 10 f9 ff ff 	movq   $0x0,-0x6f0(%rbp)
    7b83:	00 00 00 00 
    7b87:	48 8d 85 10 f9 ff ff 	lea    -0x6f0(%rbp),%rax
    7b8e:	48 89 85 e0 f9 ff ff 	mov    %rax,-0x620(%rbp)
    7b95:	48 8d 05 a4 10 01 00 	lea    0x110a4(%rip),%rax        # 18c40 <g_510>
    7b9c:	48 89 85 e8 f9 ff ff 	mov    %rax,-0x618(%rbp)
    7ba3:	c7 85 d4 f8 ff ff 00 	movl   $0x0,-0x72c(%rbp)
    7baa:	00 00 00 
    7bad:	eb 72                	jmp    7c21 <func_25+0x317>
    7baf:	c7 85 f0 f8 ff ff 00 	movl   $0x0,-0x710(%rbp)
    7bb6:	00 00 00 
    7bb9:	eb 19                	jmp    7bd4 <func_25+0x2ca>
    7bbb:	8b 85 f0 f8 ff ff    	mov    -0x710(%rbp),%eax
    7bc1:	48 98                	cltq   
    7bc3:	66 c7 84 45 90 fa ff 	movw   $0x0,-0x570(%rbp,%rax,2)
    7bca:	ff 00 00 
    7bcd:	83 85 f0 f8 ff ff 01 	addl   $0x1,-0x710(%rbp)
    7bd4:	83 bd f0 f8 ff ff 09 	cmpl   $0x9,-0x710(%rbp)
    7bdb:	7e de                	jle    7bbb <func_25+0x2b1>
    7bdd:	c6 85 c4 f8 ff ff 0d 	movb   $0xd,-0x73c(%rbp)
    7be4:	80 bd c4 f8 ff ff 22 	cmpb   $0x22,-0x73c(%rbp)
    7beb:	75 2d                	jne    7c1a <func_25+0x310>
    7bed:	48 8d 05 84 f4 00 00 	lea    0xf484(%rip),%rax        # 17078 <g_43>
    7bf4:	48 89 85 f0 f9 ff ff 	mov    %rax,-0x610(%rbp)
    7bfb:	0f b7 85 96 fa ff ff 	movzwl -0x56a(%rbp),%eax
    7c02:	0f b7 d0             	movzwl %ax,%edx
    7c05:	48 8b 85 f0 f9 ff ff 	mov    -0x610(%rbp),%rax
    7c0c:	89 10                	mov    %edx,(%rax)
    7c0e:	48 8d 05 63 f4 00 00 	lea    0xf463(%rip),%rax        # 17078 <g_43>
    7c15:	e9 9d 02 00 00       	jmpq   7eb7 <func_25+0x5ad>
    7c1a:	83 85 d4 f8 ff ff 01 	addl   $0x1,-0x72c(%rbp)
    7c21:	83 bd d4 f8 ff ff 0c 	cmpl   $0xc,-0x72c(%rbp)
    7c28:	76 85                	jbe    7baf <func_25+0x2a5>
    7c2a:	8b 85 d0 f8 ff ff    	mov    -0x730(%rbp),%eax
    7c30:	0f be c0             	movsbl %al,%eax
    7c33:	be 06 00 00 00       	mov    $0x6,%esi
    7c38:	89 c7                	mov    %eax,%edi
    7c3a:	e8 95 d5 ff ff       	callq  51d4 <safe_add_func_int8_t_s_s>
    7c3f:	0f be c0             	movsbl %al,%eax
    7c42:	89 85 d0 f8 ff ff    	mov    %eax,-0x730(%rbp)
    7c48:	83 bd d0 f8 ff ff 07 	cmpl   $0x7,-0x730(%rbp)
    7c4f:	0f 8f 75 fe ff ff    	jg     7aca <func_25+0x1c0>
    7c55:	48 8d 85 e8 f8 ff ff 	lea    -0x718(%rbp),%rax
    7c5c:	48 89 85 38 f9 ff ff 	mov    %rax,-0x6c8(%rbp)
    7c63:	66 c7 05 28 f4 00 00 	movw   $0x0,0xf428(%rip)        # 17094 <g_122>
    7c6a:	00 00 
    7c6c:	e9 2e 02 00 00       	jmpq   7e9f <func_25+0x595>
    7c71:	48 8d 05 30 f4 00 00 	lea    0xf430(%rip),%rax        # 170a8 <g_175>
    7c78:	48 89 85 88 f9 ff ff 	mov    %rax,-0x678(%rbp)
    7c7f:	48 8d 85 90 fa ff ff 	lea    -0x570(%rbp),%rax
    7c86:	48 8d 15 f3 af 00 00 	lea    0xaff3(%rip),%rdx        # 12c80 <g_1312+0x2a0>
    7c8d:	b9 48 00 00 00       	mov    $0x48,%ecx
    7c92:	48 89 c7             	mov    %rax,%rdi
    7c95:	48 89 d6             	mov    %rdx,%rsi
    7c98:	f3 48 a5             	rep movsq %ds:(%rsi),%es:(%rdi)
    7c9b:	48 8d 05 56 0f 01 00 	lea    0x10f56(%rip),%rax        # 18bf8 <g_346>
    7ca2:	48 89 85 08 f9 ff ff 	mov    %rax,-0x6f8(%rbp)
    7ca9:	48 8d 85 08 f9 ff ff 	lea    -0x6f8(%rbp),%rax
    7cb0:	48 89 85 10 f9 ff ff 	mov    %rax,-0x6f0(%rbp)
    7cb7:	48 8d 85 10 f9 ff ff 	lea    -0x6f0(%rbp),%rax
    7cbe:	48 89 85 90 f9 ff ff 	mov    %rax,-0x670(%rbp)
    7cc5:	48 8d 85 d0 fc ff ff 	lea    -0x330(%rbp),%rax
    7ccc:	48 8d 15 6d 02 01 00 	lea    0x1026d(%rip),%rdx        # 17f40 <g_2524+0x4a4>
    7cd3:	b9 64 00 00 00       	mov    $0x64,%ecx
    7cd8:	48 89 c7             	mov    %rax,%rdi
    7cdb:	48 89 d6             	mov    %rdx,%rsi
    7cde:	f3 48 a5             	rep movsq %ds:(%rsi),%es:(%rdi)
    7ce1:	66 c7 85 50 fa ff ff 	movw   $0x4575,-0x5b0(%rbp)
    7ce8:	75 45 
    7cea:	66 c7 85 52 fa ff ff 	movw   $0xe305,-0x5ae(%rbp)
    7cf1:	05 e3 
    7cf3:	66 c7 85 54 fa ff ff 	movw   $0xe305,-0x5ac(%rbp)
    7cfa:	05 e3 
    7cfc:	66 c7 85 56 fa ff ff 	movw   $0x4575,-0x5aa(%rbp)
    7d03:	75 45 
    7d05:	66 c7 85 58 fa ff ff 	movw   $0xeea7,-0x5a8(%rbp)
    7d0c:	a7 ee 
    7d0e:	66 c7 85 5a fa ff ff 	movw   $0xffff,-0x5a6(%rbp)
    7d15:	ff ff 
    7d17:	66 c7 85 5c fa ff ff 	movw   $0x5,-0x5a4(%rbp)
    7d1e:	05 00 
    7d20:	66 c7 85 5e fa ff ff 	movw   $0xe305,-0x5a2(%rbp)
    7d27:	05 e3 
    7d29:	66 c7 85 60 fa ff ff 	movw   $0x5,-0x5a0(%rbp)
    7d30:	05 00 
    7d32:	66 c7 85 62 fa ff ff 	movw   $0x1,-0x59e(%rbp)
    7d39:	01 00 
    7d3b:	66 c7 85 64 fa ff ff 	movw   $0x7,-0x59c(%rbp)
    7d42:	07 00 
    7d44:	66 c7 85 66 fa ff ff 	movw   $0x0,-0x59a(%rbp)
    7d4b:	00 00 
    7d4d:	66 c7 85 68 fa ff ff 	movw   $0x1,-0x598(%rbp)
    7d54:	01 00 
    7d56:	66 c7 85 6a fa ff ff 	movw   $0xfff8,-0x596(%rbp)
    7d5d:	f8 ff 
    7d5f:	66 c7 85 6c fa ff ff 	movw   $0x1,-0x594(%rbp)
    7d66:	01 00 
    7d68:	66 c7 85 6e fa ff ff 	movw   $0x0,-0x592(%rbp)
    7d6f:	00 00 
    7d71:	66 c7 85 70 fa ff ff 	movw   $0xffff,-0x590(%rbp)
    7d78:	ff ff 
    7d7a:	66 c7 85 72 fa ff ff 	movw   $0x1,-0x58e(%rbp)
    7d81:	01 00 
    7d83:	66 c7 85 74 fa ff ff 	movw   $0xffff,-0x58c(%rbp)
    7d8a:	ff ff 
    7d8c:	66 c7 85 76 fa ff ff 	movw   $0xe305,-0x58a(%rbp)
    7d93:	05 e3 
    7d95:	66 c7 85 78 fa ff ff 	movw   $0x5,-0x588(%rbp)
    7d9c:	05 00 
    7d9e:	66 c7 85 7a fa ff ff 	movw   $0xffff,-0x586(%rbp)
    7da5:	ff ff 
    7da7:	66 c7 85 7c fa ff ff 	movw   $0xeea7,-0x584(%rbp)
    7dae:	a7 ee 
    7db0:	66 c7 85 7e fa ff ff 	movw   $0x4575,-0x582(%rbp)
    7db7:	75 45 
    7db9:	66 c7 85 80 fa ff ff 	movw   $0x5,-0x580(%rbp)
    7dc0:	05 00 
    7dc2:	66 c7 85 82 fa ff ff 	movw   $0xe305,-0x57e(%rbp)
    7dc9:	05 e3 
    7dcb:	66 c7 85 84 fa ff ff 	movw   $0x0,-0x57c(%rbp)
    7dd2:	00 00 
    7dd4:	66 c7 85 86 fa ff ff 	movw   $0x5,-0x57a(%rbp)
    7ddb:	05 00 
    7ddd:	66 c7 85 88 fa ff ff 	movw   $0x0,-0x578(%rbp)
    7de4:	00 00 
    7de6:	66 c7 85 8a fa ff ff 	movw   $0x0,-0x576(%rbp)
    7ded:	00 00 
    7def:	66 c7 85 8c fa ff ff 	movw   $0x5,-0x574(%rbp)
    7df6:	05 00 
    7df8:	66 c7 85 8e fa ff ff 	movw   $0x0,-0x572(%rbp)
    7dff:	00 00 
    7e01:	48 b8 48 84 64 ea 26 	movabs $0xbf986b26ea648448,%rax
    7e08:	6b 98 bf 
    7e0b:	48 89 85 98 f9 ff ff 	mov    %rax,-0x668(%rbp)
    7e12:	48 8d 05 37 0e 01 00 	lea    0x10e37(%rip),%rax        # 18c50 <g_528>
    7e19:	48 89 85 a0 f9 ff ff 	mov    %rax,-0x660(%rbp)
    7e20:	48 8d 05 b1 13 01 00 	lea    0x113b1(%rip),%rax        # 191d8 <g_1236+0x18>
    7e27:	48 89 85 a8 f9 ff ff 	mov    %rax,-0x658(%rbp)
    7e2e:	48 8d 05 ab 0e 01 00 	lea    0x10eab(%rip),%rax        # 18ce0 <g_800>
    7e35:	48 89 85 b0 f9 ff ff 	mov    %rax,-0x650(%rbp)
    7e3c:	48 8d 05 15 f5 00 00 	lea    0xf515(%rip),%rax        # 17358 <g_1165>
    7e43:	48 89 85 20 fa ff ff 	mov    %rax,-0x5e0(%rbp)
    7e4a:	48 8d 05 07 f5 00 00 	lea    0xf507(%rip),%rax        # 17358 <g_1165>
    7e51:	48 89 85 28 fa ff ff 	mov    %rax,-0x5d8(%rbp)
    7e58:	48 8d 05 f9 f4 00 00 	lea    0xf4f9(%rip),%rax        # 17358 <g_1165>
    7e5f:	48 89 85 30 fa ff ff 	mov    %rax,-0x5d0(%rbp)
    7e66:	48 8d 05 eb f4 00 00 	lea    0xf4eb(%rip),%rax        # 17358 <g_1165>
    7e6d:	48 89 85 38 fa ff ff 	mov    %rax,-0x5c8(%rbp)
    7e74:	48 8d 05 dd f4 00 00 	lea    0xf4dd(%rip),%rax        # 17358 <g_1165>
    7e7b:	48 89 85 40 fa ff ff 	mov    %rax,-0x5c0(%rbp)
    7e82:	0f b7 05 0b f2 00 00 	movzwl 0xf20b(%rip),%eax        # 17094 <g_122>
    7e89:	0f b7 c0             	movzwl %ax,%eax
    7e8c:	be 01 00 00 00       	mov    $0x1,%esi
    7e91:	89 c7                	mov    %eax,%edi
    7e93:	e8 20 e0 ff ff       	callq  5eb8 <safe_add_func_uint32_t_u_u>
    7e98:	66 89 05 f5 f1 00 00 	mov    %ax,0xf1f5(%rip)        # 17094 <g_122>
    7e9f:	0f b7 05 ee f1 00 00 	movzwl 0xf1ee(%rip),%eax        # 17094 <g_122>
    7ea6:	66 83 f8 0c          	cmp    $0xc,%ax
    7eaa:	0f 85 c1 fd ff ff    	jne    7c71 <func_25+0x367>
    7eb0:	48 8b 85 c8 f8 ff ff 	mov    -0x738(%rbp),%rax
    7eb7:	48 8b 4d f8          	mov    -0x8(%rbp),%rcx
    7ebb:	64 48 33 0c 25 28 00 	xor    %fs:0x28,%rcx
    7ec2:	00 00 
    7ec4:	74 05                	je     7ecb <func_25+0x5c1>
    7ec6:	e8 a5 d1 ff ff       	callq  5070 <__stack_chk_fail@plt>
    7ecb:	c9                   	leaveq 
    7ecc:	c3                   	retq   

0000000000007ecd <func_44>:
    7ecd:	f3 0f 1e fa          	endbr64 
    7ed1:	55                   	push   %rbp
    7ed2:	48 89 e5             	mov    %rsp,%rbp
    7ed5:	48 81 ec a0 00 00 00 	sub    $0xa0,%rsp
    7edc:	48 89 bd 78 ff ff ff 	mov    %rdi,-0x88(%rbp)
    7ee3:	89 b5 74 ff ff ff    	mov    %esi,-0x8c(%rbp)
    7ee9:	89 95 70 ff ff ff    	mov    %edx,-0x90(%rbp)
    7eef:	89 8d 6c ff ff ff    	mov    %ecx,-0x94(%rbp)
    7ef5:	4c 89 85 60 ff ff ff 	mov    %r8,-0xa0(%rbp)
    7efc:	64 48 8b 04 25 28 00 	mov    %fs:0x28,%rax
    7f03:	00 00 
    7f05:	48 89 45 f8          	mov    %rax,-0x8(%rbp)
    7f09:	31 c0                	xor    %eax,%eax
    7f0b:	48 8d 05 ee 0c 01 00 	lea    0x10cee(%rip),%rax        # 18c00 <g_381>
    7f12:	48 89 45 90          	mov    %rax,-0x70(%rbp)
    7f16:	48 8d 45 90          	lea    -0x70(%rbp),%rax
    7f1a:	48 89 45 98          	mov    %rax,-0x68(%rbp)
    7f1e:	48 8d 45 98          	lea    -0x68(%rbp),%rax
    7f22:	48 89 45 a0          	mov    %rax,-0x60(%rbp)
    7f26:	48 8d 45 a0          	lea    -0x60(%rbp),%rax
    7f2a:	48 89 45 a8          	mov    %rax,-0x58(%rbp)
    7f2e:	48 8d 45 a0          	lea    -0x60(%rbp),%rax
    7f32:	48 89 45 b0          	mov    %rax,-0x50(%rbp)
    7f36:	48 8d 05 3b f1 00 00 	lea    0xf13b(%rip),%rax        # 17078 <g_43>
    7f3d:	48 89 45 b8          	mov    %rax,-0x48(%rbp)
    7f41:	48 8d 45 ec          	lea    -0x14(%rbp),%rax
    7f45:	48 83 c0 04          	add    $0x4,%rax
    7f49:	48 89 45 c0          	mov    %rax,-0x40(%rbp)
    7f4d:	48 8d 45 ec          	lea    -0x14(%rbp),%rax
    7f51:	48 83 c0 04          	add    $0x4,%rax
    7f55:	48 89 45 c8          	mov    %rax,-0x38(%rbp)
    7f59:	48 c7 45 d0 00 00 00 	movq   $0x0,-0x30(%rbp)
    7f60:	00 
    7f61:	48 8d 45 ec          	lea    -0x14(%rbp),%rax
    7f65:	48 83 c0 08          	add    $0x8,%rax
    7f69:	48 89 45 d8          	mov    %rax,-0x28(%rbp)
    7f6d:	48 c7 45 e0 00 00 00 	movq   $0x0,-0x20(%rbp)
    7f74:	00 
    7f75:	c7 45 8c 00 00 00 00 	movl   $0x0,-0x74(%rbp)
    7f7c:	eb 11                	jmp    7f8f <func_44+0xc2>
    7f7e:	8b 45 8c             	mov    -0x74(%rbp),%eax
    7f81:	48 98                	cltq   
    7f83:	c7 44 85 ec 06 35 df 	movl   $0xd5df3506,-0x14(%rbp,%rax,4)
    7f8a:	d5 
    7f8b:	83 45 8c 01          	addl   $0x1,-0x74(%rbp)
    7f8f:	83 7d 8c 02          	cmpl   $0x2,-0x74(%rbp)
    7f93:	7e e9                	jle    7f7e <func_44+0xb1>
    7f95:	48 8b 45 a8          	mov    -0x58(%rbp),%rax
    7f99:	48 89 45 b0          	mov    %rax,-0x50(%rbp)
    7f9d:	0f b7 05 b4 f3 00 00 	movzwl 0xf3b4(%rip),%eax        # 17358 <g_1165>
    7fa4:	83 c0 01             	add    $0x1,%eax
    7fa7:	66 89 05 aa f3 00 00 	mov    %ax,0xf3aa(%rip)        # 17358 <g_1165>
    7fae:	48 8b 05 b3 11 01 00 	mov    0x111b3(%rip),%rax        # 19168 <g_1169>
    7fb5:	48 8b 55 e0          	mov    -0x20(%rbp),%rdx
    7fb9:	48 89 10             	mov    %rdx,(%rax)
    7fbc:	48 8b 05 f5 0b 01 00 	mov    0x10bf5(%rip),%rax        # 18bb8 <g_191>
    7fc3:	8b 00                	mov    (%rax),%eax
    7fc5:	48 8b 4d f8          	mov    -0x8(%rbp),%rcx
    7fc9:	64 48 33 0c 25 28 00 	xor    %fs:0x28,%rcx
    7fd0:	00 00 
    7fd2:	74 05                	je     7fd9 <func_44+0x10c>
    7fd4:	e8 97 d0 ff ff       	callq  5070 <__stack_chk_fail@plt>
    7fd9:	c9                   	leaveq 
    7fda:	c3                   	retq   

0000000000007fdb <func_50>:
    7fdb:	f3 0f 1e fa          	endbr64 
    7fdf:	55                   	push   %rbp
    7fe0:	48 89 e5             	mov    %rsp,%rbp
    7fe3:	48 81 ec a0 00 00 00 	sub    $0xa0,%rsp
    7fea:	48 89 95 70 ff ff ff 	mov    %rdx,-0x90(%rbp)
    7ff1:	89 c8                	mov    %ecx,%eax
    7ff3:	44 89 c2             	mov    %r8d,%edx
    7ff6:	89 f9                	mov    %edi,%ecx
    7ff8:	88 8d 7c ff ff ff    	mov    %cl,-0x84(%rbp)
    7ffe:	89 f1                	mov    %esi,%ecx
    8000:	66 89 8d 78 ff ff ff 	mov    %cx,-0x88(%rbp)
    8007:	66 89 85 6c ff ff ff 	mov    %ax,-0x94(%rbp)
    800e:	89 d0                	mov    %edx,%eax
    8010:	66 89 85 68 ff ff ff 	mov    %ax,-0x98(%rbp)
    8017:	64 48 8b 04 25 28 00 	mov    %fs:0x28,%rax
    801e:	00 00 
    8020:	48 89 45 f8          	mov    %rax,-0x8(%rbp)
    8024:	31 c0                	xor    %eax,%eax
    8026:	48 8d 05 4b f0 00 00 	lea    0xf04b(%rip),%rax        # 17078 <g_43>
    802d:	48 89 45 90          	mov    %rax,-0x70(%rbp)
    8031:	48 c7 45 98 00 00 00 	movq   $0x0,-0x68(%rbp)
    8038:	00 
    8039:	48 8d 05 38 f0 00 00 	lea    0xf038(%rip),%rax        # 17078 <g_43>
    8040:	48 89 45 a0          	mov    %rax,-0x60(%rbp)
    8044:	48 c7 45 a8 00 00 00 	movq   $0x0,-0x58(%rbp)
    804b:	00 
    804c:	48 8d 05 25 f0 00 00 	lea    0xf025(%rip),%rax        # 17078 <g_43>
    8053:	48 89 45 b0          	mov    %rax,-0x50(%rbp)
    8057:	48 c7 45 b8 00 00 00 	movq   $0x0,-0x48(%rbp)
    805e:	00 
    805f:	48 8d 05 12 f0 00 00 	lea    0xf012(%rip),%rax        # 17078 <g_43>
    8066:	48 89 45 c0          	mov    %rax,-0x40(%rbp)
    806a:	48 c7 45 c8 00 00 00 	movq   $0x0,-0x38(%rbp)
    8071:	00 
    8072:	48 8d 05 ff ef 00 00 	lea    0xefff(%rip),%rax        # 17078 <g_43>
    8079:	48 89 45 d0          	mov    %rax,-0x30(%rbp)
    807d:	48 c7 45 d8 00 00 00 	movq   $0x0,-0x28(%rbp)
    8084:	00 
    8085:	48 8d 05 ec ef 00 00 	lea    0xefec(%rip),%rax        # 17078 <g_43>
    808c:	48 89 45 e0          	mov    %rax,-0x20(%rbp)
    8090:	48 c7 45 e8 00 00 00 	movq   $0x0,-0x18(%rbp)
    8097:	00 
    8098:	c7 45 84 e8 59 83 d6 	movl   $0xd68359e8,-0x7c(%rbp)
    809f:	48 8d 05 02 0c 01 00 	lea    0x10c02(%rip),%rax        # 18ca8 <g_533+0x28>
    80a6:	48 89 45 88          	mov    %rax,-0x78(%rbp)
    80aa:	48 8b 05 47 0b 01 00 	mov    0x10b47(%rip),%rax        # 18bf8 <g_346>
    80b1:	48 8b 55 98          	mov    -0x68(%rbp),%rdx
    80b5:	48 89 10             	mov    %rdx,(%rax)
    80b8:	8b 05 96 f2 00 00    	mov    0xf296(%rip),%eax        # 17354 <g_1141>
    80be:	83 e8 01             	sub    $0x1,%eax
    80c1:	89 05 8d f2 00 00    	mov    %eax,0xf28d(%rip)        # 17354 <g_1141>
    80c7:	0f b7 95 6c ff ff ff 	movzwl -0x94(%rbp),%edx
    80ce:	0f b6 85 7c ff ff ff 	movzbl -0x84(%rbp),%eax
    80d5:	48 89 d6             	mov    %rdx,%rsi
    80d8:	48 89 c7             	mov    %rax,%rdi
    80db:	e8 6b df ff ff       	callq  604b <safe_sub_func_uint64_t_u_u>
    80e0:	0f b7 d0             	movzwl %ax,%edx
    80e3:	48 8b 05 0e 0b 01 00 	mov    0x10b0e(%rip),%rax        # 18bf8 <g_346>
    80ea:	48 8b 4d 98          	mov    -0x68(%rbp),%rcx
    80ee:	48 89 08             	mov    %rcx,(%rax)
    80f1:	48 8b 08             	mov    (%rax),%rcx
    80f4:	48 8b 45 88          	mov    -0x78(%rbp),%rax
    80f8:	48 89 08             	mov    %rcx,(%rax)
    80fb:	0f b7 85 78 ff ff ff 	movzwl -0x88(%rbp),%eax
    8102:	0f b7 c0             	movzwl %ax,%eax
    8105:	89 d6                	mov    %edx,%esi
    8107:	89 c7                	mov    %eax,%edi
    8109:	e8 11 dc ff ff       	callq  5d1f <safe_sub_func_uint16_t_u_u>
    810e:	48 be 93 37 d8 96 55 	movabs $0x3dc29e5596d83793,%rsi
    8115:	9e c2 3d 
    8118:	bf 00 00 00 00       	mov    $0x0,%edi
    811d:	e8 0c df ff ff       	callq  602e <safe_add_func_uint64_t_u_u>
    8122:	0f b6 d0             	movzbl %al,%edx
    8125:	48 8b 85 70 ff ff ff 	mov    -0x90(%rbp),%rax
    812c:	8b 00                	mov    (%rax),%eax
    812e:	3d a9 32 4d 49       	cmp    $0x494d32a9,%eax
    8133:	0f 95 c0             	setne  %al
    8136:	0f b6 c0             	movzbl %al,%eax
    8139:	89 d6                	mov    %edx,%esi
    813b:	89 c7                	mov    %eax,%edi
    813d:	e8 51 da ff ff       	callq  5b93 <safe_mul_func_uint8_t_u_u>
    8142:	0f b6 d0             	movzbl %al,%edx
    8145:	48 8b 85 70 ff ff ff 	mov    -0x90(%rbp),%rax
    814c:	89 10                	mov    %edx,(%rax)
    814e:	48 8b 45 88          	mov    -0x78(%rbp),%rax
    8152:	48 8b 00             	mov    (%rax),%rax
    8155:	48 8b 75 f8          	mov    -0x8(%rbp),%rsi
    8159:	64 48 33 34 25 28 00 	xor    %fs:0x28,%rsi
    8160:	00 00 
    8162:	74 05                	je     8169 <func_50+0x18e>
    8164:	e8 07 cf ff ff       	callq  5070 <__stack_chk_fail@plt>
    8169:	c9                   	leaveq 
    816a:	c3                   	retq   

000000000000816b <func_65>:
    816b:	f3 0f 1e fa          	endbr64 
    816f:	55                   	push   %rbp
    8170:	48 89 e5             	mov    %rsp,%rbp
    8173:	41 54                	push   %r12
    8175:	53                   	push   %rbx
    8176:	48 81 ec 00 02 00 00 	sub    $0x200,%rsp
    817d:	48 89 b5 00 fe ff ff 	mov    %rsi,-0x200(%rbp)
    8184:	48 89 95 f8 fd ff ff 	mov    %rdx,-0x208(%rbp)
    818b:	89 c8                	mov    %ecx,%eax
    818d:	89 fa                	mov    %edi,%edx
    818f:	66 89 95 0c fe ff ff 	mov    %dx,-0x1f4(%rbp)
    8196:	66 89 85 08 fe ff ff 	mov    %ax,-0x1f8(%rbp)
    819d:	64 48 8b 04 25 28 00 	mov    %fs:0x28,%rax
    81a4:	00 00 
    81a6:	48 89 45 e8          	mov    %rax,-0x18(%rbp)
    81aa:	31 c0                	xor    %eax,%eax
    81ac:	48 8d 05 f5 0a 01 00 	lea    0x10af5(%rip),%rax        # 18ca8 <g_533+0x28>
    81b3:	48 89 85 60 fe ff ff 	mov    %rax,-0x1a0(%rbp)
    81ba:	48 8d 05 df f0 00 00 	lea    0xf0df(%rip),%rax        # 172a0 <g_902>
    81c1:	48 89 85 30 fe ff ff 	mov    %rax,-0x1d0(%rbp)
    81c8:	48 8d 85 30 fe ff ff 	lea    -0x1d0(%rbp),%rax
    81cf:	48 89 85 38 fe ff ff 	mov    %rax,-0x1c8(%rbp)
    81d6:	48 8d 05 a3 ef 00 00 	lea    0xefa3(%rip),%rax        # 17180 <g_607>
    81dd:	48 89 85 40 fe ff ff 	mov    %rax,-0x1c0(%rbp)
    81e4:	48 8d 85 40 fe ff ff 	lea    -0x1c0(%rbp),%rax
    81eb:	48 89 85 68 fe ff ff 	mov    %rax,-0x198(%rbp)
    81f2:	48 c7 85 40 ff ff ff 	movq   $0x0,-0xc0(%rbp)
    81f9:	00 00 00 00 
    81fd:	48 c7 85 48 ff ff ff 	movq   $0x0,-0xb8(%rbp)
    8204:	00 00 00 00 
    8208:	48 c7 85 50 ff ff ff 	movq   $0x0,-0xb0(%rbp)
    820f:	00 00 00 00 
    8213:	48 c7 85 58 ff ff ff 	movq   $0x0,-0xa8(%rbp)
    821a:	00 00 00 00 
    821e:	48 8d 85 40 ff ff ff 	lea    -0xc0(%rbp),%rax
    8225:	48 83 c0 10          	add    $0x10,%rax
    8229:	48 89 85 48 fe ff ff 	mov    %rax,-0x1b8(%rbp)
    8230:	48 8d 05 b9 15 01 00 	lea    0x115b9(%rip),%rax        # 197f0 <g_529+0x10>
    8237:	48 89 85 70 fe ff ff 	mov    %rax,-0x190(%rbp)
    823e:	48 c7 85 78 fe ff ff 	movq   $0x0,-0x188(%rbp)
    8245:	00 00 00 00 
    8249:	c6 85 12 fe ff ff 6f 	movb   $0x6f,-0x1ee(%rbp)
    8250:	c7 85 14 fe ff ff 00 	movl   $0x0,-0x1ec(%rbp)
    8257:	00 00 00 
    825a:	eb 1a                	jmp    8276 <func_65+0x10b>
    825c:	8b 85 14 fe ff ff    	mov    -0x1ec(%rbp),%eax
    8262:	48 98                	cltq   
    8264:	c7 84 85 00 ff ff ff 	movl   $0xfffffffb,-0x100(%rbp,%rax,4)
    826b:	fb ff ff ff 
    826f:	83 85 14 fe ff ff 01 	addl   $0x1,-0x1ec(%rbp)
    8276:	83 bd 14 fe ff ff 05 	cmpl   $0x5,-0x1ec(%rbp)
    827d:	7e dd                	jle    825c <func_65+0xf1>
    827f:	c7 85 14 fe ff ff 00 	movl   $0x0,-0x1ec(%rbp)
    8286:	00 00 00 
    8289:	eb 1e                	jmp    82a9 <func_65+0x13e>
    828b:	8b 85 14 fe ff ff    	mov    -0x1ec(%rbp),%eax
    8291:	48 98                	cltq   
    8293:	48 8d 95 38 fe ff ff 	lea    -0x1c8(%rbp),%rdx
    829a:	48 89 94 c5 60 ff ff 	mov    %rdx,-0xa0(%rbp,%rax,8)
    82a1:	ff 
    82a2:	83 85 14 fe ff ff 01 	addl   $0x1,-0x1ec(%rbp)
    82a9:	83 bd 14 fe ff ff 07 	cmpl   $0x7,-0x1ec(%rbp)
    82b0:	7e d9                	jle    828b <func_65+0x120>
    82b2:	48 8b 15 3f 09 01 00 	mov    0x1093f(%rip),%rdx        # 18bf8 <g_346>
    82b9:	48 8b 05 38 09 01 00 	mov    0x10938(%rip),%rax        # 18bf8 <g_346>
    82c0:	48 8b 12             	mov    (%rdx),%rdx
    82c3:	48 89 10             	mov    %rdx,(%rax)
    82c6:	48 8b 10             	mov    (%rax),%rdx
    82c9:	48 8b 85 60 fe ff ff 	mov    -0x1a0(%rbp),%rax
    82d0:	48 89 10             	mov    %rdx,(%rax)
    82d3:	0f b6 05 77 ee 00 00 	movzbl 0xee77(%rip),%eax        # 17151 <g_565+0x11>
    82da:	66 83 85 08 fe ff ff 	addw   $0x1,-0x1f8(%rbp)
    82e1:	01 
    82e2:	48 8b 05 bf 08 01 00 	mov    0x108bf(%rip),%rax        # 18ba8 <g_106>
    82e9:	48 8b 10             	mov    (%rax),%rdx
    82ec:	48 83 ea 01          	sub    $0x1,%rdx
    82f0:	48 89 10             	mov    %rdx,(%rax)
    82f3:	48 8b 00             	mov    (%rax),%rax
    82f6:	48 8b 95 00 fe ff ff 	mov    -0x200(%rbp),%rdx
    82fd:	48 f7 d2             	not    %rdx
    8300:	48 39 d0             	cmp    %rdx,%rax
    8303:	0f 93 c2             	setae  %dl
    8306:	48 8b 05 d3 09 01 00 	mov    0x109d3(%rip),%rax        # 18ce0 <g_800>
    830d:	48 8b 00             	mov    (%rax),%rax
    8310:	48 8b 00             	mov    (%rax),%rax
    8313:	0f b6 d2             	movzbl %dl,%edx
    8316:	89 10                	mov    %edx,(%rax)
    8318:	66 83 bd 0c fe ff ff 	cmpw   $0x1,-0x1f4(%rbp)
    831f:	01 
    8320:	0f 95 c0             	setne  %al
    8323:	0f b6 d0             	movzbl %al,%edx
    8326:	8b 85 0c ff ff ff    	mov    -0xf4(%rbp),%eax
    832c:	39 c2                	cmp    %eax,%edx
    832e:	0f 9c c2             	setl   %dl
    8331:	48 8b 05 80 08 01 00 	mov    0x10880(%rip),%rax        # 18bb8 <g_191>
    8338:	0f b6 d2             	movzbl %dl,%edx
    833b:	89 10                	mov    %edx,(%rax)
    833d:	c7 05 1c ee 00 00 10 	movl   $0x10,0xee1c(%rip)        # 17163 <g_604+0x3>
    8344:	00 00 00 
    8347:	e9 0f 06 00 00       	jmpq   895b <func_65+0x7f0>
    834c:	c6 85 13 fe ff ff ff 	movb   $0xff,-0x1ed(%rbp)
    8353:	48 8d 05 66 ef 00 00 	lea    0xef66(%rip),%rax        # 172c0 <g_918>
    835a:	48 89 85 80 fe ff ff 	mov    %rax,-0x180(%rbp)
    8361:	c7 85 28 fe ff ff fb 	movl   $0xfffffffb,-0x1d8(%rbp)
    8368:	ff ff ff 
    836b:	48 8d 05 8a ed 00 00 	lea    0xed8a(%rip),%rax        # 170fc <g_315>
    8372:	48 89 85 88 fe ff ff 	mov    %rax,-0x178(%rbp)
    8379:	c7 45 a0 05 00 00 00 	movl   $0x5,-0x60(%rbp)
    8380:	c7 45 a4 05 00 00 00 	movl   $0x5,-0x5c(%rbp)
    8387:	c7 45 a8 c8 05 66 5a 	movl   $0x5a6605c8,-0x58(%rbp)
    838e:	c7 45 ac ec 02 7a b0 	movl   $0xb07a02ec,-0x54(%rbp)
    8395:	c7 45 b0 01 00 00 00 	movl   $0x1,-0x50(%rbp)
    839c:	c7 45 b4 c8 05 66 5a 	movl   $0x5a6605c8,-0x4c(%rbp)
    83a3:	c7 45 b8 ec 02 7a b0 	movl   $0xb07a02ec,-0x48(%rbp)
    83aa:	c7 45 bc 01 00 00 00 	movl   $0x1,-0x44(%rbp)
    83b1:	c7 45 c0 c8 05 66 5a 	movl   $0x5a6605c8,-0x40(%rbp)
    83b8:	c7 45 c4 01 00 00 00 	movl   $0x1,-0x3c(%rbp)
    83bf:	c7 45 c8 ec 02 7a b0 	movl   $0xb07a02ec,-0x38(%rbp)
    83c6:	c7 45 cc c8 05 66 5a 	movl   $0x5a6605c8,-0x34(%rbp)
    83cd:	c7 45 d0 01 00 00 00 	movl   $0x1,-0x30(%rbp)
    83d4:	c7 45 d4 ec 02 7a b0 	movl   $0xb07a02ec,-0x2c(%rbp)
    83db:	c7 45 d8 c8 05 66 5a 	movl   $0x5a6605c8,-0x28(%rbp)
    83e2:	c7 45 dc 05 00 00 00 	movl   $0x5,-0x24(%rbp)
    83e9:	c7 45 e0 05 00 00 00 	movl   $0x5,-0x20(%rbp)
    83f0:	c7 45 e4 c8 05 66 5a 	movl   $0x5a6605c8,-0x1c(%rbp)
    83f7:	48 8d 05 aa 08 01 00 	lea    0x108aa(%rip),%rax        # 18ca8 <g_533+0x28>
    83fe:	48 89 85 90 fe ff ff 	mov    %rax,-0x170(%rbp)
    8405:	48 8d 85 48 fe ff ff 	lea    -0x1b8(%rbp),%rax
    840c:	48 89 85 98 fe ff ff 	mov    %rax,-0x168(%rbp)
    8413:	48 8d 05 d6 13 01 00 	lea    0x113d6(%rip),%rax        # 197f0 <g_529+0x10>
    841a:	48 89 85 a0 fe ff ff 	mov    %rax,-0x160(%rbp)
    8421:	48 8d 05 80 13 01 00 	lea    0x11380(%rip),%rax        # 197a8 <g_97>
    8428:	48 89 85 a8 fe ff ff 	mov    %rax,-0x158(%rbp)
    842f:	48 c7 85 50 fe ff ff 	movq   $0x0,-0x1b0(%rbp)
    8436:	00 00 00 00 
    843a:	48 8d 85 50 fe ff ff 	lea    -0x1b0(%rbp),%rax
    8441:	48 89 85 b0 fe ff ff 	mov    %rax,-0x150(%rbp)
    8448:	48 8d 05 29 ec 00 00 	lea    0xec29(%rip),%rax        # 17078 <g_43>
    844f:	48 89 85 b8 fe ff ff 	mov    %rax,-0x148(%rbp)
    8456:	c7 85 18 fe ff ff 00 	movl   $0x0,-0x1e8(%rbp)
    845d:	00 00 00 
    8460:	eb 1a                	jmp    847c <func_65+0x311>
    8462:	8b 85 18 fe ff ff    	mov    -0x1e8(%rbp),%eax
    8468:	48 98                	cltq   
    846a:	c7 84 85 f4 fe ff ff 	movl   $0xfffffffc,-0x10c(%rbp,%rax,4)
    8471:	fc ff ff ff 
    8475:	83 85 18 fe ff ff 01 	addl   $0x1,-0x1e8(%rbp)
    847c:	83 bd 18 fe ff ff 02 	cmpl   $0x2,-0x1e8(%rbp)
    8483:	7e dd                	jle    8462 <func_65+0x2f7>
    8485:	0f bf 9d 0c fe ff ff 	movswl -0x1f4(%rbp),%ebx
    848c:	66 0f be 95 13 fe ff 	movsbw -0x1ed(%rbp),%dx
    8493:	ff 
    8494:	48 8b 05 85 07 01 00 	mov    0x10785(%rip),%rax        # 18c20 <g_449>
    849b:	48 8b 00             	mov    (%rax),%rax
    849e:	48 8d 0d 6b 07 01 00 	lea    0x1076b(%rip),%rcx        # 18c10 <g_451>
    84a5:	48 39 c8             	cmp    %rcx,%rax
    84a8:	0f 94 c1             	sete   %cl
    84ab:	48 8b 05 06 08 01 00 	mov    0x10806(%rip),%rax        # 18cb8 <g_707>
    84b2:	48 39 85 80 fe ff ff 	cmp    %rax,-0x180(%rbp)
    84b9:	0f 94 c0             	sete   %al
    84bc:	21 c8                	and    %ecx,%eax
    84be:	0f b6 c0             	movzbl %al,%eax
    84c1:	21 d0                	and    %edx,%eax
    84c3:	0f b7 c0             	movzwl %ax,%eax
    84c6:	be 0c 00 00 00       	mov    $0xc,%esi
    84cb:	89 c7                	mov    %eax,%edi
    84cd:	e8 ec d8 ff ff       	callq  5dbe <safe_lshift_func_uint16_t_u_s>
    84d2:	0f be 95 13 fe ff ff 	movsbl -0x1ed(%rbp),%edx
    84d9:	83 bd 28 fe ff ff 01 	cmpl   $0x1,-0x1d8(%rbp)
    84e0:	0f 95 c0             	setne  %al
    84e3:	0f b6 c0             	movzbl %al,%eax
    84e6:	39 c2                	cmp    %eax,%edx
    84e8:	0f 9d c0             	setge  %al
    84eb:	0f b6 d0             	movzbl %al,%edx
    84ee:	48 8b 85 88 fe ff ff 	mov    -0x178(%rbp),%rax
    84f5:	89 10                	mov    %edx,(%rax)
    84f7:	48 8b 05 aa 06 01 00 	mov    0x106aa(%rip),%rax        # 18ba8 <g_106>
    84fe:	48 8b 00             	mov    (%rax),%rax
    8501:	be 01 00 00 00       	mov    $0x1,%esi
    8506:	48 89 c7             	mov    %rax,%rdi
    8509:	e8 20 db ff ff       	callq  602e <safe_add_func_uint64_t_u_u>
    850e:	8b 95 28 fe ff ff    	mov    -0x1d8(%rbp),%edx
    8514:	48 63 d2             	movslq %edx,%rdx
    8517:	48 39 d0             	cmp    %rdx,%rax
    851a:	48 8b 85 f8 fd ff ff 	mov    -0x208(%rbp),%rax
    8521:	48 8b 00             	mov    (%rax),%rax
    8524:	89 c2                	mov    %eax,%edx
    8526:	48 8b 05 03 07 01 00 	mov    0x10703(%rip),%rax        # 18c30 <g_472>
    852d:	48 8b 00             	mov    (%rax),%rax
    8530:	21 d0                	and    %edx,%eax
    8532:	98                   	cwtl   
    8533:	be fb ff ff ff       	mov    $0xfffffffb,%esi
    8538:	89 c7                	mov    %eax,%edi
    853a:	e8 b6 ce ff ff       	callq  53f5 <safe_mul_func_int16_t_s_s>
    853f:	98                   	cwtl   
    8540:	89 de                	mov    %ebx,%esi
    8542:	89 c7                	mov    %eax,%edi
    8544:	e8 1a d0 ff ff       	callq  5563 <safe_rshift_func_int16_t_s_u>
    8549:	0f be 95 13 fe ff ff 	movsbl -0x1ed(%rbp),%edx
    8550:	48 8b 05 81 07 01 00 	mov    0x10781(%rip),%rax        # 18cd8 <g_801>
    8557:	48 8b 00             	mov    (%rax),%rax
    855a:	8b 08                	mov    (%rax),%ecx
    855c:	0f b7 85 08 fe ff ff 	movzwl -0x1f8(%rbp),%eax
    8563:	39 c1                	cmp    %eax,%ecx
    8565:	0f 96 c0             	setbe  %al
    8568:	0f b6 c0             	movzbl %al,%eax
    856b:	39 c2                	cmp    %eax,%edx
    856d:	0f 95 c0             	setne  %al
    8570:	0f b6 d0             	movzbl %al,%edx
    8573:	8b 85 0c ff ff ff    	mov    -0xf4(%rbp),%eax
    8579:	09 d0                	or     %edx,%eax
    857b:	89 85 0c ff ff ff    	mov    %eax,-0xf4(%rbp)
    8581:	48 c7 05 24 eb 00 00 	movq   $0x0,0xeb24(%rip)        # 170b0 <g_177>
    8588:	00 00 00 00 
    858c:	e9 95 01 00 00       	jmpq   8726 <func_65+0x5bb>
    8591:	48 8d 05 10 12 01 00 	lea    0x11210(%rip),%rax        # 197a8 <g_97>
    8598:	48 89 85 e0 fe ff ff 	mov    %rax,-0x120(%rbp)
    859f:	c7 85 1c fe ff ff 00 	movl   $0x0,-0x1e4(%rbp)
    85a6:	00 00 00 
    85a9:	eb 1b                	jmp    85c6 <func_65+0x45b>
    85ab:	8b 85 1c fe ff ff    	mov    -0x1e4(%rbp),%eax
    85b1:	48 98                	cltq   
    85b3:	48 c7 84 c5 20 ff ff 	movq   $0x0,-0xe0(%rbp,%rax,8)
    85ba:	ff 00 00 00 00 
    85bf:	83 85 1c fe ff ff 01 	addl   $0x1,-0x1e4(%rbp)
    85c6:	83 bd 1c fe ff ff 01 	cmpl   $0x1,-0x1e4(%rbp)
    85cd:	7e dc                	jle    85ab <func_65+0x440>
    85cf:	48 8b 05 da ea 00 00 	mov    0xeada(%rip),%rax        # 170b0 <g_177>
    85d6:	48 85 c0             	test   %rax,%rax
    85d9:	74 05                	je     85e0 <func_65+0x475>
    85db:	e9 f3 fc ff ff       	jmpq   82d3 <func_65+0x168>
    85e0:	48 8b 05 c9 ea 00 00 	mov    0xeac9(%rip),%rax        # 170b0 <g_177>
    85e7:	48 8d 48 01          	lea    0x1(%rax),%rcx
    85eb:	48 8b 15 be ea 00 00 	mov    0xeabe(%rip),%rdx        # 170b0 <g_177>
    85f2:	48 8b 85 20 ff ff ff 	mov    -0xe0(%rbp),%rax
    85f9:	48 01 ca             	add    %rcx,%rdx
    85fc:	48 8d 0c d5 00 00 00 	lea    0x0(,%rdx,8),%rcx
    8603:	00 
    8604:	48 8d 15 75 06 01 00 	lea    0x10675(%rip),%rdx        # 18c80 <g_533>
    860b:	48 89 04 11          	mov    %rax,(%rcx,%rdx,1)
    860f:	8b 85 0c ff ff ff    	mov    -0xf4(%rbp),%eax
    8615:	48 63 d8             	movslq %eax,%rbx
    8618:	48 8d 05 c9 05 01 00 	lea    0x105c9(%rip),%rax        # 18be8 <g_201>
    861f:	48 89 05 d2 05 01 00 	mov    %rax,0x105d2(%rip)        # 18bf8 <g_346>
    8626:	48 8b 05 cb 05 01 00 	mov    0x105cb(%rip),%rax        # 18bf8 <g_346>
    862d:	48 39 85 90 fe ff ff 	cmp    %rax,-0x170(%rbp)
    8634:	4c 8b 25 0c ec 00 00 	mov    0xec0c(%rip),%r12        # 17247 <g_896+0x7>
    863b:	8b 95 14 ff ff ff    	mov    -0xec(%rbp),%edx
    8641:	48 8b 0d 38 eb 00 00 	mov    0xeb38(%rip),%rcx        # 17180 <g_607>
    8648:	48 8b 85 00 fe ff ff 	mov    -0x200(%rbp),%rax
    864f:	48 39 c1             	cmp    %rax,%rcx
    8652:	0f 94 c0             	sete   %al
    8655:	0f b6 c0             	movzbl %al,%eax
    8658:	89 d6                	mov    %edx,%esi
    865a:	89 c7                	mov    %eax,%edi
    865c:	e8 2c d6 ff ff       	callq  5c8d <safe_rshift_func_uint8_t_u_s>
    8661:	0f b6 c0             	movzbl %al,%eax
    8664:	49 39 c4             	cmp    %rax,%r12
    8667:	48 8b 85 f8 fd ff ff 	mov    -0x208(%rbp),%rax
    866e:	48 c7 00 00 00 00 00 	movq   $0x0,(%rax)
    8675:	48 8b 85 f8 fd ff ff 	mov    -0x208(%rbp),%rax
    867c:	48 8b 00             	mov    (%rax),%rax
    867f:	48 89 de             	mov    %rbx,%rsi
    8682:	48 89 c7             	mov    %rax,%rdi
    8685:	e8 2a d3 ff ff       	callq  59b4 <safe_mod_func_int64_t_s_s>
    868a:	48 f7 d0             	not    %rax
    868d:	48 89 c2             	mov    %rax,%rdx
    8690:	0f b7 85 08 fe ff ff 	movzwl -0x1f8(%rbp),%eax
    8697:	48 39 c2             	cmp    %rax,%rdx
    869a:	0f 9c c0             	setl   %al
    869d:	0f b6 d0             	movzbl %al,%edx
    86a0:	8b 85 f4 fe ff ff    	mov    -0x10c(%rbp),%eax
    86a6:	21 d0                	and    %edx,%eax
    86a8:	89 85 f4 fe ff ff    	mov    %eax,-0x10c(%rbp)
    86ae:	8b 85 f4 fe ff ff    	mov    -0x10c(%rbp),%eax
    86b4:	89 c2                	mov    %eax,%edx
    86b6:	48 8b 05 13 06 01 00 	mov    0x10613(%rip),%rax        # 18cd0 <g_802>
    86bd:	8b 00                	mov    (%rax),%eax
    86bf:	31 d0                	xor    %edx,%eax
    86c1:	0f be c0             	movsbl %al,%eax
    86c4:	be 0d 00 00 00       	mov    $0xd,%esi
    86c9:	89 c7                	mov    %eax,%edi
    86cb:	e8 61 cb ff ff       	callq  5231 <safe_mod_func_int8_t_s_s>
    86d0:	0f be c0             	movsbl %al,%eax
    86d3:	be d2 ff ff ff       	mov    $0xffffffd2,%esi
    86d8:	89 c7                	mov    %eax,%edi
    86da:	e8 8b cb ff ff       	callq  526a <safe_div_func_int8_t_s_s>
    86df:	ba 00 00 00 00       	mov    $0x0,%edx
    86e4:	8b 05 02 ec 00 00    	mov    0xec02(%rip),%eax        # 172ec <g_936+0xc>
    86ea:	21 d0                	and    %edx,%eax
    86ec:	89 05 fa eb 00 00    	mov    %eax,0xebfa(%rip)        # 172ec <g_936+0xc>
    86f2:	c6 05 af 10 01 00 01 	movb   $0x1,0x110af(%rip)        # 197a8 <g_97>
    86f9:	90                   	nop
    86fa:	0f b6 05 a7 10 01 00 	movzbl 0x110a7(%rip),%eax        # 197a8 <g_97>
    8701:	3c 04                	cmp    $0x4,%al
    8703:	77 0f                	ja     8714 <func_65+0x5a9>
    8705:	48 8b 85 f8 fd ff ff 	mov    -0x208(%rbp),%rax
    870c:	48 8b 00             	mov    (%rax),%rax
    870f:	e9 63 02 00 00       	jmpq   8977 <func_65+0x80c>
    8714:	48 8b 05 95 e9 00 00 	mov    0xe995(%rip),%rax        # 170b0 <g_177>
    871b:	48 83 c0 01          	add    $0x1,%rax
    871f:	48 89 05 8a e9 00 00 	mov    %rax,0xe98a(%rip)        # 170b0 <g_177>
    8726:	48 8b 05 83 e9 00 00 	mov    0xe983(%rip),%rax        # 170b0 <g_177>
    872d:	48 85 c0             	test   %rax,%rax
    8730:	0f 84 5b fe ff ff    	je     8591 <func_65+0x426>
    8736:	48 c7 05 2f e9 00 00 	movq   $0x0,0xe92f(%rip)        # 17070 <g_33>
    873d:	00 00 00 00 
    8741:	e9 38 01 00 00       	jmpq   887e <func_65+0x713>
    8746:	48 8d 05 e3 04 01 00 	lea    0x104e3(%rip),%rax        # 18c30 <g_472>
    874d:	48 89 85 c0 fe ff ff 	mov    %rax,-0x140(%rbp)
    8754:	c7 85 2c fe ff ff 01 	movl   $0x1,-0x1d4(%rbp)
    875b:	00 00 00 
    875e:	48 8d 05 9b 04 01 00 	lea    0x1049b(%rip),%rax        # 18c00 <g_381>
    8765:	48 89 85 58 fe ff ff 	mov    %rax,-0x1a8(%rbp)
    876c:	48 8d 85 58 fe ff ff 	lea    -0x1a8(%rbp),%rax
    8773:	48 89 85 c8 fe ff ff 	mov    %rax,-0x138(%rbp)
    877a:	48 c7 85 d0 fe ff ff 	movq   $0x1,-0x130(%rbp)
    8781:	01 00 00 00 
    8785:	48 c7 85 d8 fe ff ff 	movq   $0x0,-0x128(%rbp)
    878c:	00 00 00 00 
    8790:	c7 85 20 fe ff ff 00 	movl   $0x0,-0x1e0(%rbp)
    8797:	00 00 00 
    879a:	eb 42                	jmp    87de <func_65+0x673>
    879c:	c7 85 24 fe ff ff 00 	movl   $0x0,-0x1dc(%rbp)
    87a3:	00 00 00 
    87a6:	eb 26                	jmp    87ce <func_65+0x663>
    87a8:	8b 85 24 fe ff ff    	mov    -0x1dc(%rbp),%eax
    87ae:	48 63 d0             	movslq %eax,%rdx
    87b1:	8b 85 20 fe ff ff    	mov    -0x1e0(%rbp),%eax
    87b7:	48 98                	cltq   
    87b9:	48 01 d0             	add    %rdx,%rax
    87bc:	c7 84 85 20 ff ff ff 	movl   $0x67f6cd6f,-0xe0(%rbp,%rax,4)
    87c3:	6f cd f6 67 
    87c7:	83 85 24 fe ff ff 01 	addl   $0x1,-0x1dc(%rbp)
    87ce:	83 bd 24 fe ff ff 00 	cmpl   $0x0,-0x1dc(%rbp)
    87d5:	7e d1                	jle    87a8 <func_65+0x63d>
    87d7:	83 85 20 fe ff ff 01 	addl   $0x1,-0x1e0(%rbp)
    87de:	83 bd 20 fe ff ff 06 	cmpl   $0x6,-0x1e0(%rbp)
    87e5:	7e b5                	jle    879c <func_65+0x631>
    87e7:	c7 85 20 fe ff ff 00 	movl   $0x0,-0x1e0(%rbp)
    87ee:	00 00 00 
    87f1:	eb 1e                	jmp    8811 <func_65+0x6a6>
    87f3:	8b 85 20 fe ff ff    	mov    -0x1e0(%rbp),%eax
    87f9:	48 98                	cltq   
    87fb:	48 8d 15 a6 0f 01 00 	lea    0x10fa6(%rip),%rdx        # 197a8 <g_97>
    8802:	48 89 94 c5 e8 fe ff 	mov    %rdx,-0x118(%rbp,%rax,8)
    8809:	ff 
    880a:	83 85 20 fe ff ff 01 	addl   $0x1,-0x1e0(%rbp)
    8811:	83 bd 20 fe ff ff 00 	cmpl   $0x0,-0x1e0(%rbp)
    8818:	7e d9                	jle    87f3 <func_65+0x688>
    881a:	48 8b 05 97 03 01 00 	mov    0x10397(%rip),%rax        # 18bb8 <g_191>
    8821:	c7 00 fc ff ff ff    	movl   $0xfffffffc,(%rax)
    8827:	48 8b 05 12 04 01 00 	mov    0x10412(%rip),%rax        # 18c40 <g_510>
    882e:	8b 10                	mov    (%rax),%edx
    8830:	83 ea 01             	sub    $0x1,%edx
    8833:	89 10                	mov    %edx,(%rax)
    8835:	48 8b 15 6c 03 01 00 	mov    0x1036c(%rip),%rdx        # 18ba8 <g_106>
    883c:	48 8b 02             	mov    (%rdx),%rax
    883f:	48 8d 48 ff          	lea    -0x1(%rax),%rcx
    8843:	48 89 0a             	mov    %rcx,(%rdx)
    8846:	48 be e9 43 3c 54 30 	movabs $0x28697630543c43e9,%rsi
    884d:	76 69 28 
    8850:	48 89 c7             	mov    %rax,%rdi
    8853:	e8 28 d8 ff ff       	callq  6080 <safe_mod_func_uint64_t_u_u>
    8858:	48 8b 15 59 03 01 00 	mov    0x10359(%rip),%rdx        # 18bb8 <g_191>
    885f:	8b 12                	mov    (%rdx),%edx
    8861:	09 c2                	or     %eax,%edx
    8863:	48 8b 05 4e 03 01 00 	mov    0x1034e(%rip),%rax        # 18bb8 <g_191>
    886a:	89 10                	mov    %edx,(%rax)
    886c:	48 8b 05 fd e7 00 00 	mov    0xe7fd(%rip),%rax        # 17070 <g_33>
    8873:	48 83 c0 01          	add    $0x1,%rax
    8877:	48 89 05 f2 e7 00 00 	mov    %rax,0xe7f2(%rip)        # 17070 <g_33>
    887e:	48 8b 05 eb e7 00 00 	mov    0xe7eb(%rip),%rax        # 17070 <g_33>
    8885:	48 83 f8 02          	cmp    $0x2,%rax
    8889:	0f 8e b7 fe ff ff    	jle    8746 <func_65+0x5db>
    888f:	0f bf 9d 0c fe ff ff 	movswl -0x1f4(%rbp),%ebx
    8896:	0f b6 85 12 fe ff ff 	movzbl -0x1ee(%rbp),%eax
    889d:	be 05 00 00 00       	mov    $0x5,%esi
    88a2:	89 c7                	mov    %eax,%edi
    88a4:	e8 15 d5 ff ff       	callq  5dbe <safe_lshift_func_uint16_t_u_s>
    88a9:	0f b6 05 80 e8 00 00 	movzbl 0xe880(%rip),%eax        # 17130 <g_490+0x10>
    88b0:	66 83 bd 08 fe ff ff 	cmpw   $0x0,-0x1f8(%rbp)
    88b7:	00 
    88b8:	41 0f 94 c4          	sete   %r12b
    88bc:	be 02 00 00 00       	mov    $0x2,%esi
    88c1:	bf 00 00 00 00       	mov    $0x0,%edi
    88c6:	e8 6a ca ff ff       	callq  5335 <safe_rshift_func_int8_t_s_s>
    88cb:	89 c2                	mov    %eax,%edx
    88cd:	48 8b 85 a8 fe ff ff 	mov    -0x158(%rbp),%rax
    88d4:	88 10                	mov    %dl,(%rax)
    88d6:	48 8b 85 a8 fe ff ff 	mov    -0x158(%rbp),%rax
    88dd:	0f b6 00             	movzbl (%rax),%eax
    88e0:	0f b6 d0             	movzbl %al,%edx
    88e3:	8b 85 0c ff ff ff    	mov    -0xf4(%rbp),%eax
    88e9:	09 d0                	or     %edx,%eax
    88eb:	48 98                	cltq   
    88ed:	48 89 c6             	mov    %rax,%rsi
    88f0:	48 bf 07 e1 b9 3a e4 	movabs $0x572f9ae43ab9e107,%rdi
    88f7:	9a 2f 57 
    88fa:	e8 a9 cf ff ff       	callq  58a8 <safe_sub_func_int64_t_s_s>
    88ff:	48 0f bf 95 0c fe ff 	movswq -0x1f4(%rbp),%rdx
    8906:	ff 
    8907:	48 39 d0             	cmp    %rdx,%rax
    890a:	0f 9e c0             	setle  %al
    890d:	44 21 e0             	and    %r12d,%eax
    8910:	0f b6 c0             	movzbl %al,%eax
    8913:	83 c8 02             	or     $0x2,%eax
    8916:	89 c2                	mov    %eax,%edx
    8918:	48 8b 85 b8 fe ff ff 	mov    -0x148(%rbp),%rax
    891f:	89 10                	mov    %edx,(%rax)
    8921:	48 8b 85 b8 fe ff ff 	mov    -0x148(%rbp),%rax
    8928:	8b 00                	mov    (%rax),%eax
    892a:	31 c3                	xor    %eax,%ebx
    892c:	89 d9                	mov    %ebx,%ecx
    892e:	0f bf 95 0c fe ff ff 	movswl -0x1f4(%rbp),%edx
    8935:	48 8b 05 7c 02 01 00 	mov    0x1027c(%rip),%rax        # 18bb8 <g_191>
    893c:	21 ca                	and    %ecx,%edx
    893e:	89 10                	mov    %edx,(%rax)
    8940:	8b 05 1d e8 00 00    	mov    0xe81d(%rip),%eax        # 17163 <g_604+0x3>
    8946:	89 c0                	mov    %eax,%eax
    8948:	be 04 00 00 00       	mov    $0x4,%esi
    894d:	48 89 c7             	mov    %rax,%rdi
    8950:	e8 ec ce ff ff       	callq  5841 <safe_add_func_int64_t_s_s>
    8955:	89 05 08 e8 00 00    	mov    %eax,0xe808(%rip)        # 17163 <g_604+0x3>
    895b:	8b 05 02 e8 00 00    	mov    0xe802(%rip),%eax        # 17163 <g_604+0x3>
    8961:	83 f8 15             	cmp    $0x15,%eax
    8964:	0f 86 e2 f9 ff ff    	jbe    834c <func_65+0x1e1>
    896a:	48 8b 05 c7 02 01 00 	mov    0x102c7(%rip),%rax        # 18c38 <g_471>
    8971:	48 8b 00             	mov    (%rax),%rax
    8974:	48 8b 00             	mov    (%rax),%rax
    8977:	48 8b 5d e8          	mov    -0x18(%rbp),%rbx
    897b:	64 48 33 1c 25 28 00 	xor    %fs:0x28,%rbx
    8982:	00 00 
    8984:	74 05                	je     898b <func_65+0x820>
    8986:	e8 e5 c6 ff ff       	callq  5070 <__stack_chk_fail@plt>
    898b:	48 81 c4 00 02 00 00 	add    $0x200,%rsp
    8992:	5b                   	pop    %rbx
    8993:	41 5c                	pop    %r12
    8995:	5d                   	pop    %rbp
    8996:	c3                   	retq   

0000000000008997 <func_74>:
    8997:	f3 0f 1e fa          	endbr64 
    899b:	55                   	push   %rbp
    899c:	48 89 e5             	mov    %rsp,%rbp
    899f:	41 56                	push   %r14
    89a1:	41 55                	push   %r13
    89a3:	41 54                	push   %r12
    89a5:	53                   	push   %rbx
    89a6:	48 81 ec 90 00 00 00 	sub    $0x90,%rsp
    89ad:	89 bd 6c ff ff ff    	mov    %edi,-0x94(%rbp)
    89b3:	48 89 b5 60 ff ff ff 	mov    %rsi,-0xa0(%rbp)
    89ba:	89 d0                	mov    %edx,%eax
    89bc:	48 89 8d 58 ff ff ff 	mov    %rcx,-0xa8(%rbp)
    89c3:	44 89 85 54 ff ff ff 	mov    %r8d,-0xac(%rbp)
    89ca:	88 85 68 ff ff ff    	mov    %al,-0x98(%rbp)
    89d0:	64 48 8b 04 25 28 00 	mov    %fs:0x28,%rax
    89d7:	00 00 
    89d9:	48 89 45 d8          	mov    %rax,-0x28(%rbp)
    89dd:	31 c0                	xor    %eax,%eax
    89df:	48 8d 05 c2 0d 01 00 	lea    0x10dc2(%rip),%rax        # 197a8 <g_97>
    89e6:	48 89 45 98          	mov    %rax,-0x68(%rbp)
    89ea:	48 8d 05 ef 02 01 00 	lea    0x102ef(%rip),%rax        # 18ce0 <g_800>
    89f1:	48 89 45 a0          	mov    %rax,-0x60(%rbp)
    89f5:	48 c7 45 a8 00 00 00 	movq   $0x0,-0x58(%rbp)
    89fc:	00 
    89fd:	c7 85 7c ff ff ff 46 	movl   $0xe1e22846,-0x84(%rbp)
    8a04:	28 e2 e1 
    8a07:	48 8d 05 06 e8 00 00 	lea    0xe806(%rip),%rax        # 17214 <g_813>
    8a0e:	48 89 45 b0          	mov    %rax,-0x50(%rbp)
    8a12:	48 8d 05 8f e6 00 00 	lea    0xe68f(%rip),%rax        # 170a8 <g_175>
    8a19:	48 89 45 88          	mov    %rax,-0x78(%rbp)
    8a1d:	48 8d 45 88          	lea    -0x78(%rbp),%rax
    8a21:	48 89 45 b8          	mov    %rax,-0x48(%rbp)
    8a25:	48 8d 05 74 e6 00 00 	lea    0xe674(%rip),%rax        # 170a0 <g_124+0x8>
    8a2c:	48 89 45 c0          	mov    %rax,-0x40(%rbp)
    8a30:	c7 45 80 47 62 5f 55 	movl   $0x555f6247,-0x80(%rbp)
    8a37:	48 c7 45 c8 06 00 00 	movq   $0x6,-0x38(%rbp)
    8a3e:	00 
    8a3f:	c7 45 84 07 f0 a4 4f 	movl   $0x4fa4f007,-0x7c(%rbp)
    8a46:	c6 85 68 ff ff ff 19 	movb   $0x19,-0x98(%rbp)
    8a4d:	eb 4a                	jmp    8a99 <func_74+0x102>
    8a4f:	48 8d 05 22 e6 00 00 	lea    0xe622(%rip),%rax        # 17078 <g_43>
    8a56:	48 89 45 90          	mov    %rax,-0x70(%rbp)
    8a5a:	c7 85 78 ff ff ff 00 	movl   $0x0,-0x88(%rbp)
    8a61:	00 00 00 
    8a64:	eb 18                	jmp    8a7e <func_74+0xe7>
    8a66:	8b 85 78 ff ff ff    	mov    -0x88(%rbp),%eax
    8a6c:	48 98                	cltq   
    8a6e:	48 8d 55 90          	lea    -0x70(%rbp),%rdx
    8a72:	48 89 54 c5 d0       	mov    %rdx,-0x30(%rbp,%rax,8)
    8a77:	83 85 78 ff ff ff 01 	addl   $0x1,-0x88(%rbp)
    8a7e:	83 bd 78 ff ff ff 00 	cmpl   $0x0,-0x88(%rbp)
    8a85:	7e df                	jle    8a66 <func_74+0xcf>
    8a87:	48 c7 05 0e 01 01 00 	movq   $0x0,0x1010e(%rip)        # 18ba0 <g_84>
    8a8e:	00 00 00 00 
    8a92:	80 ad 68 ff ff ff 01 	subb   $0x1,-0x98(%rbp)
    8a99:	80 bd 68 ff ff ff 03 	cmpb   $0x3,-0x98(%rbp)
    8aa0:	77 ad                	ja     8a4f <func_74+0xb8>
    8aa2:	44 8b 65 80          	mov    -0x80(%rbp),%r12d
    8aa6:	8b 85 6c ff ff ff    	mov    -0x94(%rbp),%eax
    8aac:	44 0f bf e8          	movswl %ax,%r13d
    8ab0:	8b 45 80             	mov    -0x80(%rbp),%eax
    8ab3:	44 0f b7 f0          	movzwl %ax,%r14d
    8ab7:	b8 a0 ff ff ff       	mov    $0xffffffa0,%eax
    8abc:	0f b6 d0             	movzbl %al,%edx
    8abf:	8b 05 b3 e5 00 00    	mov    0xe5b3(%rip),%eax        # 17078 <g_43>
    8ac5:	48 98                	cltq   
    8ac7:	48 8b 1d da 00 01 00 	mov    0x100da(%rip),%rbx        # 18ba8 <g_106>
    8ace:	89 d6                	mov    %edx,%esi
    8ad0:	48 89 c7             	mov    %rax,%rdi
    8ad3:	e8 27 07 00 00       	callq  91ff <func_100>
    8ad8:	48 89 03             	mov    %rax,(%rbx)
    8adb:	48 8b 13             	mov    (%rbx),%rdx
    8ade:	8b 85 54 ff ff ff    	mov    -0xac(%rbp),%eax
    8ae4:	f7 d0                	not    %eax
    8ae6:	c1 e8 1f             	shr    $0x1f,%eax
    8ae9:	0f b6 c0             	movzbl %al,%eax
    8aec:	48 39 c2             	cmp    %rax,%rdx
    8aef:	0f 97 c0             	seta   %al
    8af2:	0f b6 c0             	movzbl %al,%eax
    8af5:	89 85 7c ff ff ff    	mov    %eax,-0x84(%rbp)
    8afb:	8b 95 7c ff ff ff    	mov    -0x84(%rbp),%edx
    8b01:	48 8b 45 b0          	mov    -0x50(%rbp),%rax
    8b05:	8b 00                	mov    (%rax),%eax
    8b07:	21 c2                	and    %eax,%edx
    8b09:	48 8b 45 b0          	mov    -0x50(%rbp),%rax
    8b0d:	89 10                	mov    %edx,(%rax)
    8b0f:	48 8b 05 aa 01 01 00 	mov    0x101aa(%rip),%rax        # 18cc0 <g_706>
    8b16:	48 8b 45 b8          	mov    -0x48(%rbp),%rax
    8b1a:	48 8b 55 98          	mov    -0x68(%rbp),%rdx
    8b1e:	48 89 10             	mov    %rdx,(%rax)
    8b21:	48 8b 45 b8          	mov    -0x48(%rbp),%rax
    8b25:	48 8b 00             	mov    (%rax),%rax
    8b28:	48 85 c0             	test   %rax,%rax
    8b2b:	0f 95 c0             	setne  %al
    8b2e:	0f b6 d0             	movzbl %al,%edx
    8b31:	48 8b 45 c0          	mov    -0x40(%rbp),%rax
    8b35:	66 89 10             	mov    %dx,(%rax)
    8b38:	48 8b 45 c0          	mov    -0x40(%rbp),%rax
    8b3c:	0f b7 00             	movzwl (%rax),%eax
    8b3f:	0f b7 c0             	movzwl %ax,%eax
    8b42:	44 89 f6             	mov    %r14d,%esi
    8b45:	89 c7                	mov    %eax,%edi
    8b47:	e8 d3 d1 ff ff       	callq  5d1f <safe_sub_func_uint16_t_u_u>
    8b4c:	0f b7 d0             	movzwl %ax,%edx
    8b4f:	48 8b 05 42 e6 00 00 	mov    0xe642(%rip),%rax        # 17198 <g_607+0x18>
    8b56:	48 21 d0             	and    %rdx,%rax
    8b59:	48 89 c1             	mov    %rax,%rcx
    8b5c:	48 8b 45 98          	mov    -0x68(%rbp),%rax
    8b60:	0f b6 00             	movzbl (%rax),%eax
    8b63:	83 f0 07             	xor    $0x7,%eax
    8b66:	89 c2                	mov    %eax,%edx
    8b68:	48 8b 45 98          	mov    -0x68(%rbp),%rax
    8b6c:	88 10                	mov    %dl,(%rax)
    8b6e:	0f b6 05 33 0c 01 00 	movzbl 0x10c33(%rip),%eax        # 197a8 <g_97>
    8b75:	0f b6 c0             	movzbl %al,%eax
    8b78:	8b 55 80             	mov    -0x80(%rbp),%edx
    8b7b:	48 89 ce             	mov    %rcx,%rsi
    8b7e:	89 c7                	mov    %eax,%edi
    8b80:	e8 87 00 00 00       	callq  8c0c <func_92>
    8b85:	8b 95 54 ff ff ff    	mov    -0xac(%rbp),%edx
    8b8b:	48 63 d2             	movslq %edx,%rdx
    8b8e:	48 39 d0             	cmp    %rdx,%rax
    8b91:	0f 97 c0             	seta   %al
    8b94:	0f b6 c0             	movzbl %al,%eax
    8b97:	44 89 ee             	mov    %r13d,%esi
    8b9a:	89 c7                	mov    %eax,%edi
    8b9c:	e8 54 c8 ff ff       	callq  53f5 <safe_mul_func_int16_t_s_s>
    8ba1:	0f b7 c0             	movzwl %ax,%eax
    8ba4:	be 30 ae 00 00       	mov    $0xae30,%esi
    8ba9:	89 c7                	mov    %eax,%edi
    8bab:	e8 ac d1 ff ff       	callq  5d5c <safe_mod_func_uint16_t_u_u>
    8bb0:	48 8b 45 c8          	mov    -0x38(%rbp),%rax
    8bb4:	0f b7 c0             	movzwl %ax,%eax
    8bb7:	44 89 e6             	mov    %r12d,%esi
    8bba:	89 c7                	mov    %eax,%edi
    8bbc:	e8 87 d2 ff ff       	callq  5e48 <safe_rshift_func_uint16_t_u_s>
    8bc1:	66 85 c0             	test   %ax,%ax
    8bc4:	75 09                	jne    8bcf <func_74+0x238>
    8bc6:	83 bd 54 ff ff ff 00 	cmpl   $0x0,-0xac(%rbp)
    8bcd:	74 07                	je     8bd6 <func_74+0x23f>
    8bcf:	b8 01 00 00 00       	mov    $0x1,%eax
    8bd4:	eb 05                	jmp    8bdb <func_74+0x244>
    8bd6:	b8 00 00 00 00       	mov    $0x0,%eax
    8bdb:	09 45 84             	or     %eax,-0x7c(%rbp)
    8bde:	48 8b 05 c3 ff 00 00 	mov    0xffc3(%rip),%rax        # 18ba8 <g_106>
    8be5:	48 8b 00             	mov    (%rax),%rax
    8be8:	48 8b 4d d8          	mov    -0x28(%rbp),%rcx
    8bec:	64 48 33 0c 25 28 00 	xor    %fs:0x28,%rcx
    8bf3:	00 00 
    8bf5:	74 05                	je     8bfc <func_74+0x265>
    8bf7:	e8 74 c4 ff ff       	callq  5070 <__stack_chk_fail@plt>
    8bfc:	48 81 c4 90 00 00 00 	add    $0x90,%rsp
    8c03:	5b                   	pop    %rbx
    8c04:	41 5c                	pop    %r12
    8c06:	41 5d                	pop    %r13
    8c08:	41 5e                	pop    %r14
    8c0a:	5d                   	pop    %rbp
    8c0b:	c3                   	retq   

0000000000008c0c <func_92>:
    8c0c:	f3 0f 1e fa          	endbr64 
    8c10:	55                   	push   %rbp
    8c11:	48 89 e5             	mov    %rsp,%rbp
    8c14:	41 55                	push   %r13
    8c16:	41 54                	push   %r12
    8c18:	53                   	push   %rbx
    8c19:	48 81 ec e8 02 00 00 	sub    $0x2e8,%rsp
    8c20:	89 bd 0c fd ff ff    	mov    %edi,-0x2f4(%rbp)
    8c26:	48 89 b5 00 fd ff ff 	mov    %rsi,-0x300(%rbp)
    8c2d:	89 95 08 fd ff ff    	mov    %edx,-0x2f8(%rbp)
    8c33:	64 48 8b 04 25 28 00 	mov    %fs:0x28,%rax
    8c3a:	00 00 
    8c3c:	48 89 45 d8          	mov    %rax,-0x28(%rbp)
    8c40:	31 c0                	xor    %eax,%eax
    8c42:	c7 85 00 fe ff ff 1d 	movl   $0x3724391d,-0x200(%rbp)
    8c49:	39 24 37 
    8c4c:	c7 85 04 fe ff ff 09 	movl   $0x9,-0x1fc(%rbp)
    8c53:	00 00 00 
    8c56:	c7 85 08 fe ff ff 1d 	movl   $0x3724391d,-0x1f8(%rbp)
    8c5d:	39 24 37 
    8c60:	c7 85 0c fe ff ff 09 	movl   $0x9,-0x1f4(%rbp)
    8c67:	00 00 00 
    8c6a:	c7 85 10 fe ff ff 1d 	movl   $0x3724391d,-0x1f0(%rbp)
    8c71:	39 24 37 
    8c74:	c7 85 14 fe ff ff 09 	movl   $0x9,-0x1ec(%rbp)
    8c7b:	00 00 00 
    8c7e:	c7 85 18 fe ff ff 1d 	movl   $0x3724391d,-0x1e8(%rbp)
    8c85:	39 24 37 
    8c88:	c7 85 1c fe ff ff 09 	movl   $0x9,-0x1e4(%rbp)
    8c8f:	00 00 00 
    8c92:	c7 85 20 fe ff ff 1d 	movl   $0x3724391d,-0x1e0(%rbp)
    8c99:	39 24 37 
    8c9c:	c7 85 20 fd ff ff cf 	movl   $0xadf35cf,-0x2e0(%rbp)
    8ca3:	35 df 0a 
    8ca6:	66 c7 85 16 fd ff ff 	movw   $0x1,-0x2ea(%rbp)
    8cad:	01 00 
    8caf:	48 8d 85 b0 fe ff ff 	lea    -0x150(%rbp),%rax
    8cb6:	48 8d 15 a3 f5 00 00 	lea    0xf5a3(%rip),%rdx        # 18260 <g_2524+0x7c4>
    8cbd:	b9 24 00 00 00       	mov    $0x24,%ecx
    8cc2:	48 89 c7             	mov    %rax,%rdi
    8cc5:	48 89 d6             	mov    %rdx,%rsi
    8cc8:	f3 48 a5             	rep movsq %ds:(%rsi),%es:(%rdi)
    8ccb:	48 8d 05 ce fe 00 00 	lea    0xfece(%rip),%rax        # 18ba0 <g_84>
    8cd2:	48 89 85 50 fd ff ff 	mov    %rax,-0x2b0(%rbp)
    8cd9:	c7 85 18 fd ff ff 00 	movl   $0x0,-0x2e8(%rbp)
    8ce0:	00 00 00 
    8ce3:	eb 1a                	jmp    8cff <func_92+0xf3>
    8ce5:	8b 85 18 fd ff ff    	mov    -0x2e8(%rbp),%eax
    8ceb:	48 98                	cltq   
    8ced:	c7 84 85 e4 fd ff ff 	movl   $0x6,-0x21c(%rbp,%rax,4)
    8cf4:	06 00 00 00 
    8cf8:	83 85 18 fd ff ff 01 	addl   $0x1,-0x2e8(%rbp)
    8cff:	83 bd 18 fd ff ff 02 	cmpl   $0x2,-0x2e8(%rbp)
    8d06:	7e dd                	jle    8ce5 <func_92+0xd9>
    8d08:	c7 85 18 fd ff ff 00 	movl   $0x0,-0x2e8(%rbp)
    8d0f:	00 00 00 
    8d12:	eb 1e                	jmp    8d32 <func_92+0x126>
    8d14:	8b 85 18 fd ff ff    	mov    -0x2e8(%rbp),%eax
    8d1a:	48 98                	cltq   
    8d1c:	48 8d 15 95 ff 00 00 	lea    0xff95(%rip),%rdx        # 18cb8 <g_707>
    8d23:	48 89 94 c5 f0 fd ff 	mov    %rdx,-0x210(%rbp,%rax,8)
    8d2a:	ff 
    8d2b:	83 85 18 fd ff ff 01 	addl   $0x1,-0x2e8(%rbp)
    8d32:	83 bd 18 fd ff ff 01 	cmpl   $0x1,-0x2e8(%rbp)
    8d39:	7e d9                	jle    8d14 <func_92+0x108>
    8d3b:	90                   	nop
    8d3c:	8b 85 04 fe ff ff    	mov    -0x1fc(%rbp),%eax
    8d42:	83 c0 01             	add    $0x1,%eax
    8d45:	89 85 04 fe ff ff    	mov    %eax,-0x1fc(%rbp)
    8d4b:	c7 05 0e e4 00 00 00 	movl   $0x0,0xe40e(%rip)        # 17163 <g_604+0x3>
    8d52:	00 00 00 
    8d55:	e9 0d 04 00 00       	jmpq   9167 <func_92+0x55b>
    8d5a:	48 8d 05 17 e3 00 00 	lea    0xe317(%rip),%rax        # 17078 <g_43>
    8d61:	48 89 85 60 fd ff ff 	mov    %rax,-0x2a0(%rbp)
    8d68:	48 c7 85 68 fd ff ff 	movq   $0x0,-0x298(%rbp)
    8d6f:	00 00 00 00 
    8d73:	48 8d 05 fe e2 00 00 	lea    0xe2fe(%rip),%rax        # 17078 <g_43>
    8d7a:	48 89 85 70 fd ff ff 	mov    %rax,-0x290(%rbp)
    8d81:	48 8d 05 f0 e2 00 00 	lea    0xe2f0(%rip),%rax        # 17078 <g_43>
    8d88:	48 89 85 78 fd ff ff 	mov    %rax,-0x288(%rbp)
    8d8f:	48 8d 05 e2 e2 00 00 	lea    0xe2e2(%rip),%rax        # 17078 <g_43>
    8d96:	48 89 85 80 fd ff ff 	mov    %rax,-0x280(%rbp)
    8d9d:	48 c7 85 88 fd ff ff 	movq   $0x0,-0x278(%rbp)
    8da4:	00 00 00 00 
    8da8:	48 8d 05 c9 e2 00 00 	lea    0xe2c9(%rip),%rax        # 17078 <g_43>
    8daf:	48 89 85 90 fd ff ff 	mov    %rax,-0x270(%rbp)
    8db6:	c7 85 24 fd ff ff 12 	movl   $0xf8cc12,-0x2dc(%rbp)
    8dbd:	cc f8 00 
    8dc0:	48 c7 85 98 fd ff ff 	movq   $0x0,-0x268(%rbp)
    8dc7:	00 00 00 00 
    8dcb:	48 8d 05 4e e4 00 00 	lea    0xe44e(%rip),%rax        # 17220 <g_842>
    8dd2:	48 89 85 28 fd ff ff 	mov    %rax,-0x2d8(%rbp)
    8dd9:	48 8d 85 28 fd ff ff 	lea    -0x2d8(%rbp),%rax
    8de0:	48 89 85 30 fd ff ff 	mov    %rax,-0x2d0(%rbp)
    8de7:	48 8d 85 30 fd ff ff 	lea    -0x2d0(%rbp),%rax
    8dee:	48 89 85 a0 fd ff ff 	mov    %rax,-0x260(%rbp)
    8df5:	48 8d 05 54 fe 00 00 	lea    0xfe54(%rip),%rax        # 18c50 <g_528>
    8dfc:	48 89 85 38 fd ff ff 	mov    %rax,-0x2c8(%rbp)
    8e03:	48 8d 85 38 fd ff ff 	lea    -0x2c8(%rbp),%rax
    8e0a:	48 89 85 60 fe ff ff 	mov    %rax,-0x1a0(%rbp)
    8e11:	48 8d 85 38 fd ff ff 	lea    -0x2c8(%rbp),%rax
    8e18:	48 89 85 68 fe ff ff 	mov    %rax,-0x198(%rbp)
    8e1f:	48 8d 85 38 fd ff ff 	lea    -0x2c8(%rbp),%rax
    8e26:	48 89 85 70 fe ff ff 	mov    %rax,-0x190(%rbp)
    8e2d:	48 8d 85 38 fd ff ff 	lea    -0x2c8(%rbp),%rax
    8e34:	48 89 85 78 fe ff ff 	mov    %rax,-0x188(%rbp)
    8e3b:	48 8d 85 38 fd ff ff 	lea    -0x2c8(%rbp),%rax
    8e42:	48 89 85 80 fe ff ff 	mov    %rax,-0x180(%rbp)
    8e49:	48 8d 85 38 fd ff ff 	lea    -0x2c8(%rbp),%rax
    8e50:	48 89 85 88 fe ff ff 	mov    %rax,-0x178(%rbp)
    8e57:	48 8d 85 38 fd ff ff 	lea    -0x2c8(%rbp),%rax
    8e5e:	48 89 85 90 fe ff ff 	mov    %rax,-0x170(%rbp)
    8e65:	48 8d 85 38 fd ff ff 	lea    -0x2c8(%rbp),%rax
    8e6c:	48 89 85 98 fe ff ff 	mov    %rax,-0x168(%rbp)
    8e73:	48 8d 85 38 fd ff ff 	lea    -0x2c8(%rbp),%rax
    8e7a:	48 89 85 a0 fe ff ff 	mov    %rax,-0x160(%rbp)
    8e81:	48 8d 85 38 fd ff ff 	lea    -0x2c8(%rbp),%rax
    8e88:	48 89 85 a8 fe ff ff 	mov    %rax,-0x158(%rbp)
    8e8f:	c7 85 1c fd ff ff 00 	movl   $0x0,-0x2e4(%rbp)
    8e96:	00 00 00 
    8e99:	eb 1e                	jmp    8eb9 <func_92+0x2ad>
    8e9b:	8b 85 1c fd ff ff    	mov    -0x2e4(%rbp),%eax
    8ea1:	48 98                	cltq   
    8ea3:	48 8d 15 ce e1 00 00 	lea    0xe1ce(%rip),%rdx        # 17078 <g_43>
    8eaa:	48 89 94 c5 30 fe ff 	mov    %rdx,-0x1d0(%rbp,%rax,8)
    8eb1:	ff 
    8eb2:	83 85 1c fd ff ff 01 	addl   $0x1,-0x2e4(%rbp)
    8eb9:	83 bd 1c fd ff ff 05 	cmpl   $0x5,-0x2e4(%rbp)
    8ec0:	7e d9                	jle    8e9b <func_92+0x28f>
    8ec2:	48 8b 05 e7 fd 00 00 	mov    0xfde7(%rip),%rax        # 18cb0 <g_532>
    8ec9:	48 8b 00             	mov    (%rax),%rax
    8ecc:	8b 10                	mov    (%rax),%edx
    8ece:	81 f2 d7 de e4 c4    	xor    $0xc4e4ded7,%edx
    8ed4:	89 10                	mov    %edx,(%rax)
    8ed6:	0f b7 85 16 fd ff ff 	movzwl -0x2ea(%rbp),%eax
    8edd:	83 c0 01             	add    $0x1,%eax
    8ee0:	66 89 85 16 fd ff ff 	mov    %ax,-0x2ea(%rbp)
    8ee7:	48 8b 95 f8 fd ff ff 	mov    -0x208(%rbp),%rdx
    8eee:	48 8b 85 a0 fd ff ff 	mov    -0x260(%rbp),%rax
    8ef5:	48 c7 00 00 00 00 00 	movq   $0x0,(%rax)
    8efc:	48 8b 85 a0 fd ff ff 	mov    -0x260(%rbp),%rax
    8f03:	48 8b 00             	mov    (%rax),%rax
    8f06:	48 39 c2             	cmp    %rax,%rdx
    8f09:	0f 85 c7 00 00 00    	jne    8fd6 <func_92+0x3ca>
    8f0f:	48 b8 be 7a ac 6a 88 	movabs $0x92ca7c886aac7abe,%rax
    8f16:	7c ca 92 
    8f19:	48 89 85 b0 fd ff ff 	mov    %rax,-0x250(%rbp)
    8f20:	48 8d 05 ed e2 00 00 	lea    0xe2ed(%rip),%rax        # 17214 <g_813>
    8f27:	48 89 85 40 fd ff ff 	mov    %rax,-0x2c0(%rbp)
    8f2e:	48 8d 85 40 fd ff ff 	lea    -0x2c0(%rbp),%rax
    8f35:	48 89 85 b8 fd ff ff 	mov    %rax,-0x248(%rbp)
    8f3c:	48 c7 85 c0 fd ff ff 	movq   $0x0,-0x240(%rbp)
    8f43:	00 00 00 00 
    8f47:	48 8d 05 c6 e2 00 00 	lea    0xe2c6(%rip),%rax        # 17214 <g_813>
    8f4e:	48 89 85 48 fd ff ff 	mov    %rax,-0x2b8(%rbp)
    8f55:	48 8d 85 48 fd ff ff 	lea    -0x2b8(%rbp),%rax
    8f5c:	48 89 85 c8 fd ff ff 	mov    %rax,-0x238(%rbp)
    8f63:	48 8b 05 56 fd 00 00 	mov    0xfd56(%rip),%rax        # 18cc0 <g_706>
    8f6a:	48 83 bd b0 fd ff ff 	cmpq   $0x0,-0x250(%rbp)
    8f71:	00 
    8f72:	74 4d                	je     8fc1 <func_92+0x3b5>
    8f74:	8b 85 08 fd ff ff    	mov    -0x2f8(%rbp),%eax
    8f7a:	0f b7 d0             	movzwl %ax,%edx
    8f7d:	48 8b 85 b8 fd ff ff 	mov    -0x248(%rbp),%rax
    8f84:	48 8d 0d 21 08 01 00 	lea    0x10821(%rip),%rcx        # 197ac <g_120>
    8f8b:	48 89 08             	mov    %rcx,(%rax)
    8f8e:	48 8b 85 c8 fd ff ff 	mov    -0x238(%rbp),%rax
    8f95:	48 8b 8d 78 fd ff ff 	mov    -0x288(%rbp),%rcx
    8f9c:	48 89 08             	mov    %rcx,(%rax)
    8f9f:	48 8b 05 02 fc 00 00 	mov    0xfc02(%rip),%rax        # 18ba8 <g_106>
    8fa6:	48 8b 8d 00 fd ff ff 	mov    -0x300(%rbp),%rcx
    8fad:	48 89 08             	mov    %rcx,(%rax)
    8fb0:	48 8b 00             	mov    (%rax),%rax
    8fb3:	f7 d0                	not    %eax
    8fb5:	0f b7 c0             	movzwl %ax,%eax
    8fb8:	89 d6                	mov    %edx,%esi
    8fba:	89 c7                	mov    %eax,%edi
    8fbc:	e8 5e cd ff ff       	callq  5d1f <safe_sub_func_uint16_t_u_u>
    8fc1:	ba 00 00 00 00       	mov    $0x0,%edx
    8fc6:	8b 85 e8 fd ff ff    	mov    -0x218(%rbp),%eax
    8fcc:	21 d0                	and    %edx,%eax
    8fce:	89 85 e8 fd ff ff    	mov    %eax,-0x218(%rbp)
    8fd4:	eb 19                	jmp    8fef <func_92+0x3e3>
    8fd6:	48 b8 3d fd 1c 84 a7 	movabs $0x9d2504a7841cfd3d,%rax
    8fdd:	04 25 9d 
    8fe0:	48 89 85 a8 fd ff ff 	mov    %rax,-0x258(%rbp)
    8fe7:	48 83 ad a8 fd ff ff 	subq   $0x1,-0x258(%rbp)
    8fee:	01 
    8fef:	c7 05 97 e0 00 00 eb 	movl   $0xffffffeb,0xe097(%rip)        # 17090 <g_118>
    8ff6:	ff ff ff 
    8ff9:	e9 4b 01 00 00       	jmpq   9149 <func_92+0x53d>
    8ffe:	48 8d 05 a3 e0 00 00 	lea    0xe0a3(%rip),%rax        # 170a8 <g_175>
    9005:	48 89 85 d0 fd ff ff 	mov    %rax,-0x230(%rbp)
    900c:	48 8d 05 e5 fb 00 00 	lea    0xfbe5(%rip),%rax        # 18bf8 <g_346>
    9013:	48 89 85 48 fd ff ff 	mov    %rax,-0x2b8(%rbp)
    901a:	48 8d 85 48 fd ff ff 	lea    -0x2b8(%rbp),%rax
    9021:	48 89 85 d8 fd ff ff 	mov    %rax,-0x228(%rbp)
    9028:	48 8b 05 f1 fb 00 00 	mov    0xfbf1(%rip),%rax        # 18c20 <g_449>
    902f:	48 8b 00             	mov    (%rax),%rax
    9032:	48 8b 10             	mov    (%rax),%rdx
    9035:	48 8b 05 2c fc 00 00 	mov    0xfc2c(%rip),%rax        # 18c68 <g_530>
    903c:	48 8b 12             	mov    (%rdx),%rdx
    903f:	48 89 10             	mov    %rdx,(%rax)
    9042:	0f b7 05 51 e0 00 00 	movzwl 0xe051(%rip),%eax        # 1709a <g_124+0x2>
    9049:	0f b7 d8             	movzwl %ax,%ebx
    904c:	48 8b 85 00 fd ff ff 	mov    -0x300(%rbp),%rax
    9053:	0f b7 c0             	movzwl %ax,%eax
    9056:	89 c7                	mov    %eax,%edi
    9058:	e8 8c cc ff ff       	callq  5ce9 <safe_unary_minus_func_uint16_t_u>
    905d:	66 85 c0             	test   %ax,%ax
    9060:	0f 94 c0             	sete   %al
    9063:	44 0f b6 e8          	movzbl %al,%r13d
    9067:	48 8b 45 88          	mov    -0x78(%rbp),%rax
    906b:	48 8d 15 8e fb 00 00 	lea    0xfb8e(%rip),%rdx        # 18c00 <g_381>
    9072:	48 39 d0             	cmp    %rdx,%rax
    9075:	75 2e                	jne    90a5 <func_92+0x499>
    9077:	48 8b 95 48 fd ff ff 	mov    -0x2b8(%rbp),%rdx
    907e:	48 8b 85 d8 fd ff ff 	mov    -0x228(%rbp),%rax
    9085:	48 89 10             	mov    %rdx,(%rax)
    9088:	48 8b 85 d8 fd ff ff 	mov    -0x228(%rbp),%rax
    908f:	48 8b 10             	mov    (%rax),%rdx
    9092:	48 8b 05 07 dd 00 00 	mov    0xdd07(%rip),%rax        # 16da0 <l_875.4646>
    9099:	48 39 c2             	cmp    %rax,%rdx
    909c:	75 07                	jne    90a5 <func_92+0x499>
    909e:	b8 01 00 00 00       	mov    $0x1,%eax
    90a3:	eb 05                	jmp    90aa <func_92+0x49e>
    90a5:	b8 00 00 00 00       	mov    $0x0,%eax
    90aa:	89 c7                	mov    %eax,%edi
    90ac:	e8 e5 c4 ff ff       	callq  5596 <safe_unary_minus_func_int32_t_s>
    90b1:	44 0f b6 e0          	movzbl %al,%r12d
    90b5:	be 07 00 00 00       	mov    $0x7,%esi
    90ba:	bf c4 ff ff ff       	mov    $0xffffffc4,%edi
    90bf:	e8 2a c2 ff ff       	callq  52ee <safe_lshift_func_int8_t_s_u>
    90c4:	89 c2                	mov    %eax,%edx
    90c6:	48 8b 85 70 fe ff ff 	mov    -0x190(%rbp),%rax
    90cd:	48 85 c0             	test   %rax,%rax
    90d0:	0f 95 c0             	setne  %al
    90d3:	31 d0                	xor    %edx,%eax
    90d5:	89 c2                	mov    %eax,%edx
    90d7:	48 8b 85 d0 fd ff ff 	mov    -0x230(%rbp),%rax
    90de:	88 10                	mov    %dl,(%rax)
    90e0:	48 8b 85 d0 fd ff ff 	mov    -0x230(%rbp),%rax
    90e7:	0f b6 00             	movzbl (%rax),%eax
    90ea:	0f b6 c0             	movzbl %al,%eax
    90ed:	44 89 e6             	mov    %r12d,%esi
    90f0:	89 c7                	mov    %eax,%edi
    90f2:	e8 63 ca ff ff       	callq  5b5a <safe_add_func_uint8_t_u_u>
    90f7:	0f b6 c0             	movzbl %al,%eax
    90fa:	41 39 c5             	cmp    %eax,%r13d
    90fd:	0f 9d c0             	setge  %al
    9100:	0f b6 c0             	movzbl %al,%eax
    9103:	89 de                	mov    %ebx,%esi
    9105:	89 c7                	mov    %eax,%edi
    9107:	e8 3c cd ff ff       	callq  5e48 <safe_rshift_func_uint16_t_u_s>
    910c:	0f b7 d0             	movzwl %ax,%edx
    910f:	48 8b 05 1a fb 00 00 	mov    0xfb1a(%rip),%rax        # 18c30 <g_472>
    9116:	48 8b 00             	mov    (%rax),%rax
    9119:	48 39 c2             	cmp    %rax,%rdx
    911c:	0f 95 c0             	setne  %al
    911f:	0f b6 d0             	movzbl %al,%edx
    9122:	48 8b 85 60 fd ff ff 	mov    -0x2a0(%rbp),%rax
    9129:	89 10                	mov    %edx,(%rax)
    912b:	48 83 bd 00 fd ff ff 	cmpq   $0x0,-0x300(%rbp)
    9132:	00 
    9133:	74 05                	je     913a <func_92+0x52e>
    9135:	e9 02 fc ff ff       	jmpq   8d3c <func_92+0x130>
    913a:	8b 05 50 df 00 00    	mov    0xdf50(%rip),%eax        # 17090 <g_118>
    9140:	83 c0 01             	add    $0x1,%eax
    9143:	89 05 47 df 00 00    	mov    %eax,0xdf47(%rip)        # 17090 <g_118>
    9149:	8b 05 41 df 00 00    	mov    0xdf41(%rip),%eax        # 17090 <g_118>
    914f:	83 f8 34             	cmp    $0x34,%eax
    9152:	0f 87 a6 fe ff ff    	ja     8ffe <func_92+0x3f2>
    9158:	8b 05 05 e0 00 00    	mov    0xe005(%rip),%eax        # 17163 <g_604+0x3>
    915e:	83 c0 01             	add    $0x1,%eax
    9161:	89 05 fc df 00 00    	mov    %eax,0xdffc(%rip)        # 17163 <g_604+0x3>
    9167:	8b 05 f6 df 00 00    	mov    0xdff6(%rip),%eax        # 17163 <g_604+0x3>
    916d:	83 f8 38             	cmp    $0x38,%eax
    9170:	0f 86 e4 fb ff ff    	jbe    8d5a <func_92+0x14e>
    9176:	66 c7 85 16 fd ff ff 	movw   $0x9,-0x2ea(%rbp)
    917d:	09 00 
    917f:	eb 3b                	jmp    91bc <func_92+0x5b0>
    9181:	48 c7 85 58 fd ff ff 	movq   $0x0,-0x2a8(%rbp)
    9188:	00 00 00 00 
    918c:	48 8b 05 65 fa 00 00 	mov    0xfa65(%rip),%rax        # 18bf8 <g_346>
    9193:	48 8b 95 58 fd ff ff 	mov    -0x2a8(%rbp),%rdx
    919a:	48 89 10             	mov    %rdx,(%rax)
    919d:	0f b7 85 16 fd ff ff 	movzwl -0x2ea(%rbp),%eax
    91a4:	0f be c0             	movsbl %al,%eax
    91a7:	be 03 00 00 00       	mov    $0x3,%esi
    91ac:	89 c7                	mov    %eax,%edi
    91ae:	e8 21 c0 ff ff       	callq  51d4 <safe_add_func_int8_t_s_s>
    91b3:	66 98                	cbtw   
    91b5:	66 89 85 16 fd ff ff 	mov    %ax,-0x2ea(%rbp)
    91bc:	66 83 bd 16 fd ff ff 	cmpw   $0x36,-0x2ea(%rbp)
    91c3:	36 
    91c4:	74 bb                	je     9181 <func_92+0x575>
    91c6:	48 8b 15 63 fc 00 00 	mov    0xfc63(%rip),%rdx        # 18e30 <g_880+0x130>
    91cd:	48 8b 85 50 fd ff ff 	mov    -0x2b0(%rbp),%rax
    91d4:	48 89 10             	mov    %rdx,(%rax)
    91d7:	8b 85 08 fd ff ff    	mov    -0x2f8(%rbp),%eax
    91dd:	48 8b 5d d8          	mov    -0x28(%rbp),%rbx
    91e1:	64 48 33 1c 25 28 00 	xor    %fs:0x28,%rbx
    91e8:	00 00 
    91ea:	74 05                	je     91f1 <func_92+0x5e5>
    91ec:	e8 7f be ff ff       	callq  5070 <__stack_chk_fail@plt>
    91f1:	48 81 c4 e8 02 00 00 	add    $0x2e8,%rsp
    91f8:	5b                   	pop    %rbx
    91f9:	41 5c                	pop    %r12
    91fb:	41 5d                	pop    %r13
    91fd:	5d                   	pop    %rbp
    91fe:	c3                   	retq   

00000000000091ff <func_100>:
    91ff:	f3 0f 1e fa          	endbr64 
    9203:	55                   	push   %rbp
    9204:	48 89 e5             	mov    %rsp,%rbp
    9207:	41 57                	push   %r15
    9209:	41 56                	push   %r14
    920b:	41 55                	push   %r13
    920d:	41 54                	push   %r12
    920f:	53                   	push   %rbx
    9210:	48 81 ec 00 10 00 00 	sub    $0x1000,%rsp
    9217:	48 83 0c 24 00       	orq    $0x0,(%rsp)
    921c:	48 81 ec a8 01 00 00 	sub    $0x1a8,%rsp
    9223:	48 89 bd 38 ee ff ff 	mov    %rdi,-0x11c8(%rbp)
    922a:	89 f0                	mov    %esi,%eax
    922c:	88 85 34 ee ff ff    	mov    %al,-0x11cc(%rbp)
    9232:	64 48 8b 04 25 28 00 	mov    %fs:0x28,%rax
    9239:	00 00 
    923b:	48 89 45 c8          	mov    %rax,-0x38(%rbp)
    923f:	31 c0                	xor    %eax,%eax
    9241:	c7 45 c4 00 00 00 00 	movl   $0x0,-0x3c(%rbp)
    9248:	48 8d 05 39 de 00 00 	lea    0xde39(%rip),%rax        # 17088 <g_115>
    924f:	48 89 85 70 ef ff ff 	mov    %rax,-0x1090(%rbp)
    9256:	c7 85 74 ee ff ff 07 	movl   $0x7,-0x118c(%rbp)
    925d:	00 00 00 
    9260:	48 8d 05 29 de 00 00 	lea    0xde29(%rip),%rax        # 17090 <g_118>
    9267:	48 89 85 28 ef ff ff 	mov    %rax,-0x10d8(%rbp)
    926e:	48 8d 05 1f de 00 00 	lea    0xde1f(%rip),%rax        # 17094 <g_122>
    9275:	48 89 85 78 ef ff ff 	mov    %rax,-0x1088(%rbp)
    927c:	48 8d 85 a0 f2 ff ff 	lea    -0xd60(%rbp),%rax
    9283:	48 8d 15 f6 f0 00 00 	lea    0xf0f6(%rip),%rdx        # 18380 <g_2524+0x8e4>
    928a:	b9 64 00 00 00       	mov    $0x64,%ecx
    928f:	48 89 c7             	mov    %rax,%rdi
    9292:	48 89 d6             	mov    %rdx,%rsi
    9295:	f3 48 a5             	rep movsq %ds:(%rsi),%es:(%rdi)
    9298:	48 8d 05 11 05 01 00 	lea    0x10511(%rip),%rax        # 197b0 <g_126>
    929f:	48 89 85 80 ef ff ff 	mov    %rax,-0x1080(%rbp)
    92a6:	c7 85 4c ee ff ff f9 	movl   $0xfffffff9,-0x11b4(%rbp)
    92ad:	ff ff ff 
    92b0:	48 8d 85 4c ee ff ff 	lea    -0x11b4(%rbp),%rax
    92b7:	48 89 85 88 ef ff ff 	mov    %rax,-0x1078(%rbp)
    92be:	48 8d 85 c0 f0 ff ff 	lea    -0xf40(%rbp),%rax
    92c5:	48 89 85 90 ef ff ff 	mov    %rax,-0x1070(%rbp)
    92cc:	48 8d 85 c0 f5 ff ff 	lea    -0xa40(%rbp),%rax
    92d3:	48 8d 15 c6 f3 00 00 	lea    0xf3c6(%rip),%rdx        # 186a0 <g_2524+0xc04>
    92da:	b9 a0 00 00 00       	mov    $0xa0,%ecx
    92df:	48 89 c7             	mov    %rax,%rdi
    92e2:	48 89 d6             	mov    %rdx,%rsi
    92e5:	f3 48 a5             	rep movsq %ds:(%rsi),%es:(%rdi)
    92e8:	48 8d 05 c1 dd 00 00 	lea    0xddc1(%rip),%rax        # 170b0 <g_177>
    92ef:	48 89 85 60 f1 ff ff 	mov    %rax,-0xea0(%rbp)
    92f6:	48 8d 05 b3 dd 00 00 	lea    0xddb3(%rip),%rax        # 170b0 <g_177>
    92fd:	48 89 85 68 f1 ff ff 	mov    %rax,-0xe98(%rbp)
    9304:	48 8d 05 a5 dd 00 00 	lea    0xdda5(%rip),%rax        # 170b0 <g_177>
    930b:	48 89 85 70 f1 ff ff 	mov    %rax,-0xe90(%rbp)
    9312:	48 8d 05 97 dd 00 00 	lea    0xdd97(%rip),%rax        # 170b0 <g_177>
    9319:	48 89 85 78 f1 ff ff 	mov    %rax,-0xe88(%rbp)
    9320:	48 8d 05 89 dd 00 00 	lea    0xdd89(%rip),%rax        # 170b0 <g_177>
    9327:	48 89 85 80 f1 ff ff 	mov    %rax,-0xe80(%rbp)
    932e:	48 8d 05 7b dd 00 00 	lea    0xdd7b(%rip),%rax        # 170b0 <g_177>
    9335:	48 89 85 88 f1 ff ff 	mov    %rax,-0xe78(%rbp)
    933c:	48 8d 05 6d dd 00 00 	lea    0xdd6d(%rip),%rax        # 170b0 <g_177>
    9343:	48 89 85 90 f1 ff ff 	mov    %rax,-0xe70(%rbp)
    934a:	48 8d 05 5f dd 00 00 	lea    0xdd5f(%rip),%rax        # 170b0 <g_177>
    9351:	48 89 85 98 f1 ff ff 	mov    %rax,-0xe68(%rbp)
    9358:	c7 85 78 ee ff ff 01 	movl   $0x1,-0x1188(%rbp)
    935f:	00 00 00 
    9362:	48 c7 85 30 ef ff ff 	movq   $0x8,-0x10d0(%rbp)
    9369:	08 00 00 00 
    936d:	48 c7 85 98 ef ff ff 	movq   $0x0,-0x1068(%rbp)
    9374:	00 00 00 00 
    9378:	c6 85 40 ee ff ff 01 	movb   $0x1,-0x11c0(%rbp)
    937f:	c6 85 41 ee ff ff 37 	movb   $0x37,-0x11bf(%rbp)
    9386:	66 c7 85 44 ee ff ff 	movw   $0xcaf7,-0x11bc(%rbp)
    938d:	f7 ca 
    938f:	c7 85 7c ee ff ff 08 	movl   $0x8,-0x1184(%rbp)
    9396:	00 00 00 
    9399:	c7 85 58 ee ff ff 00 	movl   $0x0,-0x11a8(%rbp)
    93a0:	00 00 00 
    93a3:	eb 1b                	jmp    93c0 <func_100+0x1c1>
    93a5:	8b 85 58 ee ff ff    	mov    -0x11a8(%rbp),%eax
    93ab:	48 98                	cltq   
    93ad:	48 c7 84 c5 c0 f0 ff 	movq   $0x0,-0xf40(%rbp,%rax,8)
    93b4:	ff 00 00 00 00 
    93b9:	83 85 58 ee ff ff 01 	addl   $0x1,-0x11a8(%rbp)
    93c0:	83 bd 58 ee ff ff 00 	cmpl   $0x0,-0x11a8(%rbp)
    93c7:	7e dc                	jle    93a5 <func_100+0x1a6>
    93c9:	c7 85 58 ee ff ff 00 	movl   $0x0,-0x11a8(%rbp)
    93d0:	00 00 00 
    93d3:	eb 1b                	jmp    93f0 <func_100+0x1f1>
    93d5:	8b 85 58 ee ff ff    	mov    -0x11a8(%rbp),%eax
    93db:	48 98                	cltq   
    93dd:	48 c7 84 c5 d0 f0 ff 	movq   $0x0,-0xf30(%rbp,%rax,8)
    93e4:	ff 00 00 00 00 
    93e9:	83 85 58 ee ff ff 01 	addl   $0x1,-0x11a8(%rbp)
    93f0:	83 bd 58 ee ff ff 01 	cmpl   $0x1,-0x11a8(%rbp)
    93f7:	7e dc                	jle    93d5 <func_100+0x1d6>
    93f9:	c7 85 58 ee ff ff 00 	movl   $0x0,-0x11a8(%rbp)
    9400:	00 00 00 
    9403:	eb 1a                	jmp    941f <func_100+0x220>
    9405:	8b 85 58 ee ff ff    	mov    -0x11a8(%rbp),%eax
    940b:	48 98                	cltq   
    940d:	c7 84 85 c8 f0 ff ff 	movl   $0x5b57aef3,-0xf38(%rbp,%rax,4)
    9414:	f3 ae 57 5b 
    9418:	83 85 58 ee ff ff 01 	addl   $0x1,-0x11a8(%rbp)
    941f:	83 bd 58 ee ff ff 01 	cmpl   $0x1,-0x11a8(%rbp)
    9426:	7e dd                	jle    9405 <func_100+0x206>
    9428:	48 8b 15 79 f7 00 00 	mov    0xf779(%rip),%rdx        # 18ba8 <g_106>
    942f:	48 8d 85 38 ee ff ff 	lea    -0x11c8(%rbp),%rax
    9436:	48 39 c2             	cmp    %rax,%rdx
    9439:	0f 94 c0             	sete   %al
    943c:	0f b6 d0             	movzbl %al,%edx
    943f:	0f b6 85 34 ee ff ff 	movzbl -0x11cc(%rbp),%eax
    9446:	0f b6 c0             	movzbl %al,%eax
    9449:	39 c2                	cmp    %eax,%edx
    944b:	0f 8f 29 01 00 00    	jg     957a <func_100+0x37b>
    9451:	0f b6 45 c7          	movzbl -0x39(%rbp),%eax
    9455:	0f b6 d8             	movzbl %al,%ebx
    9458:	8b 05 1e dc 00 00    	mov    0xdc1e(%rip),%eax        # 1707c <g_85>
    945e:	48 98                	cltq   
    9460:	48 c7 c6 ff ff ff ff 	mov    $0xffffffffffffffff,%rsi
    9467:	48 89 c7             	mov    %rax,%rdi
    946a:	e8 45 c5 ff ff       	callq  59b4 <safe_mod_func_int64_t_s_s>
    946f:	49 89 c4             	mov    %rax,%r12
    9472:	48 8b 05 07 dc 00 00 	mov    0xdc07(%rip),%rax        # 17080 <g_107>
    9479:	48 89 c6             	mov    %rax,%rsi
    947c:	48 bf 61 3a 4d 2b 37 	movabs $0x125bec372b4d3a61,%rdi
    9483:	ec 5b 12 
    9486:	e8 24 cc ff ff       	callq  60af <safe_div_func_uint64_t_u_u>
    948b:	0f b6 55 c7          	movzbl -0x39(%rbp),%edx
    948f:	0f b6 d2             	movzbl %dl,%edx
    9492:	48 21 d0             	and    %rdx,%rax
    9495:	83 e0 06             	and    $0x6,%eax
    9498:	48 89 c2             	mov    %rax,%rdx
    949b:	48 8b 05 06 f7 00 00 	mov    0xf706(%rip),%rax        # 18ba8 <g_106>
    94a2:	48 8b 00             	mov    (%rax),%rax
    94a5:	48 39 c2             	cmp    %rax,%rdx
    94a8:	0f 93 c0             	setae  %al
    94ab:	0f b6 d0             	movzbl %al,%edx
    94ae:	0f b6 45 c7          	movzbl -0x39(%rbp),%eax
    94b2:	0f b6 c0             	movzbl %al,%eax
    94b5:	39 c2                	cmp    %eax,%edx
    94b7:	0f 9f c0             	setg   %al
    94ba:	0f b6 d0             	movzbl %al,%edx
    94bd:	48 8b 85 70 ef ff ff 	mov    -0x1090(%rbp),%rax
    94c4:	48 89 10             	mov    %rdx,(%rax)
    94c7:	48 8b 85 70 ef ff ff 	mov    -0x1090(%rbp),%rax
    94ce:	48 8b 00             	mov    (%rax),%rax
    94d1:	49 39 c4             	cmp    %rax,%r12
    94d4:	75 0a                	jne    94e0 <func_100+0x2e1>
    94d6:	48 8b 05 ab db 00 00 	mov    0xdbab(%rip),%rax        # 17088 <g_115>
    94dd:	48 85 c0             	test   %rax,%rax
    94e0:	48 89 de             	mov    %rbx,%rsi
    94e3:	48 bf 60 a7 8f bb ae 	movabs $0x980df3aebb8fa760,%rdi
    94ea:	f3 0d 98 
    94ed:	e8 b6 c3 ff ff       	callq  58a8 <safe_sub_func_int64_t_s_s>
    94f2:	0f b6 95 34 ee ff ff 	movzbl -0x11cc(%rbp),%edx
    94f9:	48 8b 85 28 ef ff ff 	mov    -0x10d8(%rbp),%rax
    9500:	0f b6 d2             	movzbl %dl,%edx
    9503:	89 10                	mov    %edx,(%rax)
    9505:	8b 10                	mov    (%rax),%edx
    9507:	8b 85 74 ee ff ff    	mov    -0x118c(%rbp),%eax
    950d:	09 d0                	or     %edx,%eax
    950f:	89 05 97 02 01 00    	mov    %eax,0x10297(%rip)        # 197ac <g_120>
    9515:	48 8b 85 78 ef ff ff 	mov    -0x1088(%rbp),%rax
    951c:	66 c7 00 09 97       	movw   $0x9709,(%rax)
    9521:	48 8b 85 78 ef ff ff 	mov    -0x1088(%rbp),%rax
    9528:	0f b7 00             	movzwl (%rax),%eax
    952b:	66 89 05 6e db 00 00 	mov    %ax,0xdb6e(%rip)        # 170a0 <g_124+0x8>
    9532:	0f b7 05 67 db 00 00 	movzwl 0xdb67(%rip),%eax        # 170a0 <g_124+0x8>
    9539:	0f b7 c0             	movzwl %ax,%eax
    953c:	39 85 74 ee ff ff    	cmp    %eax,-0x118c(%rbp)
    9542:	0f 9d c0             	setge  %al
    9545:	0f b6 c8             	movzbl %al,%ecx
    9548:	48 8b 85 80 ef ff ff 	mov    -0x1080(%rbp),%rax
    954f:	48 8b 10             	mov    (%rax),%rdx
    9552:	48 63 c1             	movslq %ecx,%rax
    9555:	48 21 c2             	and    %rax,%rdx
    9558:	48 8b 85 80 ef ff ff 	mov    -0x1080(%rbp),%rax
    955f:	48 89 10             	mov    %rdx,(%rax)
    9562:	48 8b 85 80 ef ff ff 	mov    -0x1080(%rbp),%rax
    9569:	48 8b 00             	mov    (%rax),%rax
    956c:	89 85 4c ee ff ff    	mov    %eax,-0x11b4(%rbp)
    9572:	8b 85 4c ee ff ff    	mov    -0x11b4(%rbp),%eax
    9578:	85 c0                	test   %eax,%eax
    957a:	0f b6 45 c6          	movzbl -0x3a(%rbp),%eax
    957e:	3c c0                	cmp    $0xc0,%al
    9580:	0f 97 c0             	seta   %al
    9583:	0f b6 d0             	movzbl %al,%edx
    9586:	0f b6 45 c7          	movzbl -0x39(%rbp),%eax
    958a:	0f b6 c0             	movzbl %al,%eax
    958d:	89 d6                	mov    %edx,%esi
    958f:	89 c7                	mov    %eax,%edi
    9591:	e8 22 c9 ff ff       	callq  5eb8 <safe_add_func_uint32_t_u_u>
    9596:	3d f7 ff 00 00       	cmp    $0xfff7,%eax
    959b:	0f 96 c0             	setbe  %al
    959e:	0f b6 d0             	movzbl %al,%edx
    95a1:	0f b6 45 c4          	movzbl -0x3c(%rbp),%eax
    95a5:	0f b6 c0             	movzbl %al,%eax
    95a8:	09 d0                	or     %edx,%eax
    95aa:	85 c0                	test   %eax,%eax
    95ac:	0f 84 5e 03 00 00    	je     9910 <func_100+0x711>
    95b2:	8b 05 c0 da 00 00    	mov    0xdac0(%rip),%eax        # 17078 <g_43>
    95b8:	85 c0                	test   %eax,%eax
    95ba:	0f 84 50 03 00 00    	je     9910 <func_100+0x711>
    95c0:	48 b8 05 af cc ff 3d 	movabs $0xf9013dffccaf05,%rax
    95c7:	01 f9 00 
    95ca:	48 89 85 c0 fa ff ff 	mov    %rax,-0x540(%rbp)
    95d1:	c6 85 c8 fa ff ff 03 	movb   $0x3,-0x538(%rbp)
    95d8:	48 b8 1d fa ff 6f f7 	movabs $0x52fbf9f76ffffa1d,%rax
    95df:	f9 fb 52 
    95e2:	48 89 85 c9 fa ff ff 	mov    %rax,-0x537(%rbp)
    95e9:	c6 85 d1 fa ff ff 52 	movb   $0x52,-0x52f(%rbp)
    95f0:	48 b8 fb 08 00 cc 00 	movabs $0x1fb0800cc0008fb,%rax
    95f7:	08 fb 01 
    95fa:	48 89 85 d2 fa ff ff 	mov    %rax,-0x52e(%rbp)
    9601:	c6 85 da fa ff ff f7 	movb   $0xf7,-0x526(%rbp)
    9608:	48 b8 40 9e 00 ff de 	movabs $0xfc0859deff009e40,%rax
    960f:	59 08 fc 
    9612:	48 89 85 db fa ff ff 	mov    %rax,-0x525(%rbp)
    9619:	c6 85 e3 fa ff ff ff 	movb   $0xff,-0x51d(%rbp)
    9620:	48 b8 a4 2a b3 cb 6f 	movabs $0xf9f9f86fcbb32aa4,%rax
    9627:	f8 f9 f9 
    962a:	48 89 85 e4 fa ff ff 	mov    %rax,-0x51c(%rbp)
    9631:	c6 85 ec fa ff ff 83 	movb   $0x83,-0x514(%rbp)
    9638:	48 b8 1d 00 01 01 26 	movabs $0x12a6f260101001d,%rax
    963f:	6f 2a 01 
    9642:	48 89 85 ed fa ff ff 	mov    %rax,-0x513(%rbp)
    9649:	c6 85 f5 fa ff ff a4 	movb   $0xa4,-0x50b(%rbp)
    9650:	48 b8 00 01 2a 00 f8 	movabs $0x6eff08f8002a0100,%rax
    9657:	08 ff 6e 
    965a:	48 89 85 f6 fa ff ff 	mov    %rax,-0x50a(%rbp)
    9661:	c6 85 fe fa ff ff 83 	movb   $0x83,-0x502(%rbp)
    9668:	48 b8 cb f8 52 01 fc 	movabs $0x8be09fc0152f8cb,%rax
    966f:	09 be 08 
    9672:	48 89 85 ff fa ff ff 	mov    %rax,-0x501(%rbp)
    9679:	c6 85 07 fb ff ff 01 	movb   $0x1,-0x4f9(%rbp)
    9680:	48 b8 f7 01 ff 5d 01 	movabs $0xb500ff015dff01f7,%rax
    9687:	ff 00 b5 
    968a:	48 89 85 08 fb ff ff 	mov    %rax,-0x4f8(%rbp)
    9691:	c6 85 10 fb ff ff 01 	movb   $0x1,-0x4f0(%rbp)
    9698:	48 b8 9e fb 1d 04 f8 	movabs $0x1b35df8041dfb9e,%rax
    969f:	5d b3 01 
    96a2:	48 89 85 11 fb ff ff 	mov    %rax,-0x4ef(%rbp)
    96a9:	c6 85 19 fb ff ff 83 	movb   $0x83,-0x4e7(%rbp)
    96b0:	48 b8 ff f7 6e 03 c4 	movabs $0xf801ffc4036ef7ff,%rax
    96b7:	ff 01 f8 
    96ba:	48 89 85 1a fb ff ff 	mov    %rax,-0x4e6(%rbp)
    96c1:	c6 85 22 fb ff ff a4 	movb   $0xa4,-0x4de(%rbp)
    96c8:	48 b8 83 fd 9e 00 40 	movabs $0xfd9e0040009efd83,%rax
    96cf:	00 9e fd 
    96d2:	48 89 85 23 fb ff ff 	mov    %rax,-0x4dd(%rbp)
    96d9:	c6 85 2b fb ff ff 83 	movb   $0x83,-0x4d5(%rbp)
    96e0:	48 b8 3a ff fa de 1d 	movabs $0x9a00321ddefaff3a,%rax
    96e7:	32 00 9a 
    96ea:	48 89 85 2c fb ff ff 	mov    %rax,-0x4d4(%rbp)
    96f1:	c6 85 34 fb ff ff ff 	movb   $0xff,-0x4cc(%rbp)
    96f8:	48 b8 79 de 01 f5 fe 	movabs $0x2601fffef501de79,%rax
    96ff:	ff 01 26 
    9702:	48 89 85 35 fb ff ff 	mov    %rax,-0x4cb(%rbp)
    9709:	c6 85 3d fb ff ff ff 	movb   $0xff,-0x4c3(%rbp)
    9710:	48 b8 3a 1d 00 01 01 	movabs $0x2a6f260101001d3a,%rax
    9717:	26 6f 2a 
    971a:	48 89 85 3e fb ff ff 	mov    %rax,-0x4c2(%rbp)
    9721:	c6 85 46 fb ff ff 01 	movb   $0x1,-0x4ba(%rbp)
    9728:	48 b8 83 08 fe 83 00 	movabs $0xff00ff0083fe0883,%rax
    972f:	ff 00 ff 
    9732:	48 89 85 47 fb ff ff 	mov    %rax,-0x4b9(%rbp)
    9739:	c6 85 4f fb ff ff ff 	movb   $0xff,-0x4b1(%rbp)
    9740:	48 b8 ff 32 01 b5 fd 	movabs $0x79fffdb50132ff,%rax
    9747:	ff 79 00 
    974a:	48 89 85 50 fb ff ff 	mov    %rax,-0x4b0(%rbp)
    9751:	c6 85 58 fb ff ff 1d 	movb   $0x1d,-0x4a8(%rbp)
    9758:	48 b8 9e f8 3d fb 09 	movabs $0x59cb0009fb3df89e,%rax
    975f:	00 cb 59 
    9762:	48 89 85 59 fb ff ff 	mov    %rax,-0x4a7(%rbp)
    9769:	c6 85 61 fb ff ff ff 	movb   $0xff,-0x49f(%rbp)
    9770:	48 b8 f7 f8 83 6f 5d 	movabs $0x509705d6f83f8f7,%rax
    9777:	70 09 05 
    977a:	48 89 85 62 fb ff ff 	mov    %rax,-0x49e(%rbp)
    9781:	c6 85 6a fb ff ff 00 	movb   $0x0,-0x496(%rbp)
    9788:	48 b8 cb 32 01 3a 01 	movabs $0x52f935013a0132cb,%rax
    978f:	35 f9 52 
    9792:	48 89 85 6b fb ff ff 	mov    %rax,-0x495(%rbp)
    9799:	c6 85 73 fb ff ff fb 	movb   $0xfb,-0x48d(%rbp)
    97a0:	48 b8 00 08 09 01 fb 	movabs $0x1fb09fb01090800,%rax
    97a7:	09 fb 01 
    97aa:	48 89 85 74 fb ff ff 	mov    %rax,-0x48c(%rbp)
    97b1:	c6 85 7c fb ff ff 09 	movb   $0x9,-0x484(%rbp)
    97b8:	48 8d 05 e5 d8 00 00 	lea    0xd8e5(%rip),%rax        # 170a4 <g_146>
    97bf:	48 89 85 a0 ef ff ff 	mov    %rax,-0x1060(%rbp)
    97c6:	48 c7 85 a8 ef ff ff 	movq   $0x0,-0x1058(%rbp)
    97cd:	00 00 00 00 
    97d1:	48 c7 85 b0 ef ff ff 	movq   $0x0,-0x1050(%rbp)
    97d8:	00 00 00 00 
    97dc:	48 8d 85 c0 f0 ff ff 	lea    -0xf40(%rbp),%rax
    97e3:	48 89 85 b8 ef ff ff 	mov    %rax,-0x1048(%rbp)
    97ea:	48 8d 05 87 d8 00 00 	lea    0xd887(%rip),%rax        # 17078 <g_43>
    97f1:	48 89 85 60 ef ff ff 	mov    %rax,-0x10a0(%rbp)
    97f8:	c7 85 80 ee ff ff fc 	movl   $0x16568bfc,-0x1180(%rbp)
    97ff:	8b 56 16 
    9802:	0f b6 85 1c fb ff ff 	movzbl -0x4e4(%rbp),%eax
    9809:	66 44 0f be f0       	movsbw %al,%r14w
    980e:	48 8b 85 38 ee ff ff 	mov    -0x11c8(%rbp),%rax
    9815:	0f bf d8             	movswl %ax,%ebx
    9818:	48 8b 85 78 ef ff ff 	mov    -0x1088(%rbp),%rax
    981f:	0f b7 00             	movzwl (%rax),%eax
    9822:	8d 50 01             	lea    0x1(%rax),%edx
    9825:	48 8b 85 78 ef ff ff 	mov    -0x1088(%rbp),%rax
    982c:	66 89 10             	mov    %dx,(%rax)
    982f:	0f b6 45 c5          	movzbl -0x3b(%rbp),%eax
    9833:	44 0f b6 e0          	movzbl %al,%r12d
    9837:	48 8b 85 38 ee ff ff 	mov    -0x11c8(%rbp),%rax
    983e:	44 0f b6 e8          	movzbl %al,%r13d
    9842:	48 8b 85 38 ee ff ff 	mov    -0x11c8(%rbp),%rax
    9849:	0f bf d0             	movswl %ax,%edx
    984c:	48 8b 8d 28 ef ff ff 	mov    -0x10d8(%rbp),%rcx
    9853:	48 8b 85 b8 ef ff ff 	mov    -0x1048(%rbp),%rax
    985a:	48 89 08             	mov    %rcx,(%rax)
    985d:	48 8b 85 b8 ef ff ff 	mov    -0x1048(%rbp),%rax
    9864:	48 8b 00             	mov    (%rax),%rax
    9867:	48 39 85 a0 ef ff ff 	cmp    %rax,-0x1060(%rbp)
    986e:	0f 95 c0             	setne  %al
    9871:	0f b6 c8             	movzbl %al,%ecx
    9874:	48 8b 85 60 ef ff ff 	mov    -0x10a0(%rbp),%rax
    987b:	c7 00 ff ff ff ff    	movl   $0xffffffff,(%rax)
    9881:	8b 00                	mov    (%rax),%eax
    9883:	39 85 74 ee ff ff    	cmp    %eax,-0x118c(%rbp)
    9889:	7d 0b                	jge    9896 <func_100+0x697>
    988b:	0f b6 85 34 ee ff ff 	movzbl -0x11cc(%rbp),%eax
    9892:	84 c0                	test   %al,%al
    9894:	74 07                	je     989d <func_100+0x69e>
    9896:	b8 01 00 00 00       	mov    $0x1,%eax
    989b:	eb 05                	jmp    98a2 <func_100+0x6a3>
    989d:	b8 00 00 00 00       	mov    $0x0,%eax
    98a2:	89 c6                	mov    %eax,%esi
    98a4:	b8 a0 ff ff ff       	mov    $0xffffffa0,%eax
    98a9:	0f b6 c0             	movzbl %al,%eax
    98ac:	31 f0                	xor    %esi,%eax
    98ae:	21 c8                	and    %ecx,%eax
    98b0:	98                   	cwtl   
    98b1:	89 d6                	mov    %edx,%esi
    98b3:	89 c7                	mov    %eax,%edi
    98b5:	e8 9b bb ff ff       	callq  5455 <safe_div_func_int16_t_s_s>
    98ba:	44 89 ee             	mov    %r13d,%esi
    98bd:	bf 83 00 00 00       	mov    $0x83,%edi
    98c2:	e8 cc c2 ff ff       	callq  5b93 <safe_mul_func_uint8_t_u_u>
    98c7:	0f b6 c0             	movzbl %al,%eax
    98ca:	44 89 e6             	mov    %r12d,%esi
    98cd:	89 c7                	mov    %eax,%edi
    98cf:	e8 bf c2 ff ff       	callq  5b93 <safe_mul_func_uint8_t_u_u>
    98d4:	0f be c0             	movsbl %al,%eax
    98d7:	be c9 ff ff ff       	mov    $0xffffffc9,%esi
    98dc:	89 c7                	mov    %eax,%edi
    98de:	e8 f1 b8 ff ff       	callq  51d4 <safe_add_func_int8_t_s_s>
    98e3:	0f be c0             	movsbl %al,%eax
    98e6:	89 c6                	mov    %eax,%esi
    98e8:	bf 01 00 00 00       	mov    $0x1,%edi
    98ed:	e8 7a ba ff ff       	callq  536c <safe_rshift_func_int8_t_s_u>
    98f2:	89 de                	mov    %ebx,%esi
    98f4:	bf 01 00 00 00       	mov    $0x1,%edi
    98f9:	e8 f7 ba ff ff       	callq  53f5 <safe_mul_func_int16_t_s_s>
    98fe:	66 41 39 c6          	cmp    %ax,%r14w
    9902:	0f 94 c0             	sete   %al
    9905:	0f b6 c0             	movzbl %al,%eax
    9908:	09 85 80 ee ff ff    	or     %eax,-0x1180(%rbp)
    990e:	eb 19                	jmp    9929 <func_100+0x72a>
    9910:	8b 85 74 ee ff ff    	mov    -0x118c(%rbp),%eax
    9916:	f7 d0                	not    %eax
    9918:	c1 e8 1f             	shr    $0x1f,%eax
    991b:	89 c2                	mov    %eax,%edx
    991d:	48 8b 05 8c f2 00 00 	mov    0xf28c(%rip),%rax        # 18bb0 <g_152>
    9924:	0f b6 d2             	movzbl %dl,%edx
    9927:	89 10                	mov    %edx,(%rax)
    9929:	48 8b 85 38 ee ff ff 	mov    -0x11c8(%rbp),%rax
    9930:	89 c2                	mov    %eax,%edx
    9932:	48 8b 85 88 ef ff ff 	mov    -0x1078(%rbp),%rax
    9939:	89 10                	mov    %edx,(%rax)
    993b:	48 8b 05 66 f2 00 00 	mov    0xf266(%rip),%rax        # 18ba8 <g_106>
    9942:	4c 8b 20             	mov    (%rax),%r12
    9945:	48 8b 05 3c d7 00 00 	mov    0xd73c(%rip),%rax        # 17088 <g_115>
    994c:	0f b7 d8             	movzwl %ax,%ebx
    994f:	48 8b 85 88 ef ff ff 	mov    -0x1078(%rbp),%rax
    9956:	8b 00                	mov    (%rax),%eax
    9958:	85 c0                	test   %eax,%eax
    995a:	74 58                	je     99b4 <func_100+0x7b5>
    995c:	48 8b 85 88 ef ff ff 	mov    -0x1078(%rbp),%rax
    9963:	8b 10                	mov    (%rax),%edx
    9965:	0f b6 05 3c d7 00 00 	movzbl 0xd73c(%rip),%eax        # 170a8 <g_175>
    996c:	83 e0 fa             	and    $0xfffffffa,%eax
    996f:	88 05 33 d7 00 00    	mov    %al,0xd733(%rip)        # 170a8 <g_175>
    9975:	0f b6 05 2c d7 00 00 	movzbl 0xd72c(%rip),%eax        # 170a8 <g_175>
    997c:	0f b6 c0             	movzbl %al,%eax
    997f:	89 d6                	mov    %edx,%esi
    9981:	89 c7                	mov    %eax,%edi
    9983:	e8 05 c3 ff ff       	callq  5c8d <safe_rshift_func_uint8_t_u_s>
    9988:	48 8b 85 88 ef ff ff 	mov    -0x1078(%rbp),%rax
    998f:	c7 00 00 00 00 00    	movl   $0x0,(%rax)
    9995:	8b 05 f5 d6 00 00    	mov    0xd6f5(%rip),%eax        # 17090 <g_118>
    999b:	98                   	cwtl   
    999c:	be 01 00 00 00       	mov    $0x1,%esi
    99a1:	89 c7                	mov    %eax,%edi
    99a3:	e8 4d ba ff ff       	callq  53f5 <safe_mul_func_int16_t_s_s>
    99a8:	66 85 c0             	test   %ax,%ax
    99ab:	74 07                	je     99b4 <func_100+0x7b5>
    99ad:	b8 01 00 00 00       	mov    $0x1,%eax
    99b2:	eb 05                	jmp    99b9 <func_100+0x7ba>
    99b4:	b8 00 00 00 00       	mov    $0x0,%eax
    99b9:	0f b7 c0             	movzwl %ax,%eax
    99bc:	89 de                	mov    %ebx,%esi
    99be:	89 c7                	mov    %eax,%edi
    99c0:	e8 97 c3 ff ff       	callq  5d5c <safe_mod_func_uint16_t_u_u>
    99c5:	48 8b 95 80 ef ff ff 	mov    -0x1080(%rbp),%rdx
    99cc:	48 8b 12             	mov    (%rdx),%rdx
    99cf:	0f b7 c0             	movzwl %ax,%eax
    99d2:	48 09 c2             	or     %rax,%rdx
    99d5:	48 8b 85 80 ef ff ff 	mov    -0x1080(%rbp),%rax
    99dc:	48 89 10             	mov    %rdx,(%rax)
    99df:	48 8b 85 80 ef ff ff 	mov    -0x1080(%rbp),%rax
    99e6:	48 8b 10             	mov    (%rax),%rdx
    99e9:	48 8b 05 c0 d6 00 00 	mov    0xd6c0(%rip),%rax        # 170b0 <g_177>
    99f0:	48 31 d0             	xor    %rdx,%rax
    99f3:	48 89 05 b6 d6 00 00 	mov    %rax,0xd6b6(%rip)        # 170b0 <g_177>
    99fa:	48 8b 05 af d6 00 00 	mov    0xd6af(%rip),%rax        # 170b0 <g_177>
    9a01:	88 05 b1 d6 00 00    	mov    %al,0xd6b1(%rip)        # 170b8 <g_178>
    9a07:	48 8b 95 c0 f0 ff ff 	mov    -0xf40(%rbp),%rdx
    9a0e:	48 8b 85 90 ef ff ff 	mov    -0x1070(%rbp),%rax
    9a15:	48 89 10             	mov    %rdx,(%rax)
    9a18:	48 8b 85 90 ef ff ff 	mov    -0x1070(%rbp),%rax
    9a1f:	48 8b 00             	mov    (%rax),%rax
    9a22:	48 8d 15 7b d6 00 00 	lea    0xd67b(%rip),%rdx        # 170a4 <g_146>
    9a29:	48 39 d0             	cmp    %rdx,%rax
    9a2c:	0f 94 c0             	sete   %al
    9a2f:	0f b6 c0             	movzbl %al,%eax
    9a32:	be f9 ff ff ff       	mov    $0xfffffff9,%esi
    9a37:	89 c7                	mov    %eax,%edi
    9a39:	e8 78 bb ff ff       	callq  55b6 <safe_add_func_int32_t_s_s>
    9a3e:	0f b7 c0             	movzwl %ax,%eax
    9a41:	be 09 00 00 00       	mov    $0x9,%esi
    9a46:	89 c7                	mov    %eax,%edi
    9a48:	e8 2d c4 ff ff       	callq  5e7a <safe_rshift_func_uint16_t_u_u>
    9a4d:	66 85 c0             	test   %ax,%ax
    9a50:	75 0f                	jne    9a61 <func_100+0x862>
    9a52:	48 8b 05 4f f1 00 00 	mov    0xf14f(%rip),%rax        # 18ba8 <g_106>
    9a59:	48 8b 00             	mov    (%rax),%rax
    9a5c:	48 85 c0             	test   %rax,%rax
    9a5f:	74 07                	je     9a68 <func_100+0x869>
    9a61:	b8 01 00 00 00       	mov    $0x1,%eax
    9a66:	eb 05                	jmp    9a6d <func_100+0x86e>
    9a68:	b8 00 00 00 00       	mov    $0x0,%eax
    9a6d:	48 98                	cltq   
    9a6f:	49 39 c4             	cmp    %rax,%r12
    9a72:	0f b7 15 21 d6 00 00 	movzwl 0xd621(%rip),%edx        # 1709a <g_124+0x2>
    9a79:	0f b7 05 14 d6 00 00 	movzwl 0xd614(%rip),%eax        # 17094 <g_122>
    9a80:	66 39 c2             	cmp    %ax,%dx
    9a83:	0f 96 c0             	setbe  %al
    9a86:	0f b6 d0             	movzbl %al,%edx
    9a89:	0f b6 85 34 ee ff ff 	movzbl -0x11cc(%rbp),%eax
    9a90:	0f b6 c8             	movzbl %al,%ecx
    9a93:	8b 05 df d5 00 00    	mov    0xd5df(%rip),%eax        # 17078 <g_43>
    9a99:	39 c1                	cmp    %eax,%ecx
    9a9b:	0f 94 c0             	sete   %al
    9a9e:	0f b6 c0             	movzbl %al,%eax
    9aa1:	39 c2                	cmp    %eax,%edx
    9aa3:	0f 9d c2             	setge  %dl
    9aa6:	48 8b 05 03 f1 00 00 	mov    0xf103(%rip),%rax        # 18bb0 <g_152>
    9aad:	0f b6 d2             	movzbl %dl,%edx
    9ab0:	89 10                	mov    %edx,(%rax)
    9ab2:	8b 00                	mov    (%rax),%eax
    9ab4:	89 c2                	mov    %eax,%edx
    9ab6:	48 8b 05 cb d5 00 00 	mov    0xd5cb(%rip),%rax        # 17088 <g_115>
    9abd:	31 d0                	xor    %edx,%eax
    9abf:	98                   	cwtl   
    9ac0:	be 65 91 ff ff       	mov    $0xffff9165,%esi
    9ac5:	89 c7                	mov    %eax,%edi
    9ac7:	e8 29 b9 ff ff       	callq  53f5 <safe_mul_func_int16_t_s_s>
    9acc:	66 85 c0             	test   %ax,%ax
    9acf:	0f 84 bc 01 00 00    	je     9c91 <func_100+0xa92>
    9ad5:	c6 85 43 ee ff ff ff 	movb   $0xff,-0x11bd(%rbp)
    9adc:	c7 05 c6 fc 00 00 00 	movl   $0x0,0xfcc6(%rip)        # 197ac <g_120>
    9ae3:	00 00 00 
    9ae6:	e9 78 01 00 00       	jmpq   9c63 <func_100+0xa64>
    9aeb:	c7 85 24 ef ff ff 75 	movl   $0x24aecf75,-0x10dc(%rbp)
    9af2:	cf ae 24 
    9af5:	48 8d 85 4c ee ff ff 	lea    -0x11b4(%rbp),%rax
    9afc:	48 89 85 60 ef ff ff 	mov    %rax,-0x10a0(%rbp)
    9b03:	48 8b 85 88 ef ff ff 	mov    -0x1078(%rbp),%rax
    9b0a:	c7 00 ff ff ff ff    	movl   $0xffffffff,(%rax)
    9b10:	48 8b 85 88 ef ff ff 	mov    -0x1078(%rbp),%rax
    9b17:	8b 00                	mov    (%rax),%eax
    9b19:	21 85 24 ef ff ff    	and    %eax,-0x10dc(%rbp)
    9b1f:	c7 05 7b d5 00 00 00 	movl   $0x0,0xd57b(%rip)        # 170a4 <g_146>
    9b26:	00 00 00 
    9b29:	e9 ea 00 00 00       	jmpq   9c18 <func_100+0xa19>
    9b2e:	48 8d 85 4c ee ff ff 	lea    -0x11b4(%rbp),%rax
    9b35:	48 89 05 84 fc 00 00 	mov    %rax,0xfc84(%rip)        # 197c0 <g_154>
    9b3c:	0f b6 85 34 ee ff ff 	movzbl -0x11cc(%rbp),%eax
    9b43:	84 c0                	test   %al,%al
    9b45:	0f 85 bd 00 00 00    	jne    9c08 <func_100+0xa09>
    9b4b:	48 c7 85 38 ee ff ff 	movq   $0xffffffffffffffe5,-0x11c8(%rbp)
    9b52:	e5 ff ff ff 
    9b56:	e9 9a 00 00 00       	jmpq   9bf5 <func_100+0x9f6>
    9b5b:	48 8d 85 60 ef ff ff 	lea    -0x10a0(%rbp),%rax
    9b62:	48 89 85 b8 f0 ff ff 	mov    %rax,-0xf48(%rbp)
    9b69:	48 8b 95 60 ef ff ff 	mov    -0x10a0(%rbp),%rdx
    9b70:	48 8b 85 b8 f0 ff ff 	mov    -0xf48(%rbp),%rax
    9b77:	48 89 10             	mov    %rdx,(%rax)
    9b7a:	48 8b 05 5f f0 00 00 	mov    0xf05f(%rip),%rax        # 18be0 <g_192>
    9b81:	48 8d 15 f4 d4 00 00 	lea    0xd4f4(%rip),%rdx        # 1707c <g_85>
    9b88:	48 89 10             	mov    %rdx,(%rax)
    9b8b:	c6 85 34 ee ff ff 00 	movb   $0x0,-0x11cc(%rbp)
    9b92:	eb 33                	jmp    9bc7 <func_100+0x9c8>
    9b94:	48 8b 85 38 ee ff ff 	mov    -0x11c8(%rbp),%rax
    9b9b:	48 85 c0             	test   %rax,%rax
    9b9e:	75 34                	jne    9bd4 <func_100+0x9d5>
    9ba0:	48 8b 05 09 f0 00 00 	mov    0xf009(%rip),%rax        # 18bb0 <g_152>
    9ba7:	8b 00                	mov    (%rax),%eax
    9ba9:	85 c0                	test   %eax,%eax
    9bab:	0f b6 85 34 ee ff ff 	movzbl -0x11cc(%rbp),%eax
    9bb2:	0f be c0             	movsbl %al,%eax
    9bb5:	be 01 00 00 00       	mov    $0x1,%esi
    9bba:	89 c7                	mov    %eax,%edi
    9bbc:	e8 13 b6 ff ff       	callq  51d4 <safe_add_func_int8_t_s_s>
    9bc1:	88 85 34 ee ff ff    	mov    %al,-0x11cc(%rbp)
    9bc7:	0f b6 85 34 ee ff ff 	movzbl -0x11cc(%rbp),%eax
    9bce:	3c 30                	cmp    $0x30,%al
    9bd0:	77 c2                	ja     9b94 <func_100+0x995>
    9bd2:	eb 01                	jmp    9bd5 <func_100+0x9d6>
    9bd4:	90                   	nop
    9bd5:	48 8b 85 38 ee ff ff 	mov    -0x11c8(%rbp),%rax
    9bdc:	0f b7 c0             	movzwl %ax,%eax
    9bdf:	be 03 00 00 00       	mov    $0x3,%esi
    9be4:	89 c7                	mov    %eax,%edi
    9be6:	e8 14 c1 ff ff       	callq  5cff <safe_add_func_uint16_t_u_u>
    9beb:	0f b7 c0             	movzwl %ax,%eax
    9bee:	48 89 85 38 ee ff ff 	mov    %rax,-0x11c8(%rbp)
    9bf5:	48 8b 85 38 ee ff ff 	mov    -0x11c8(%rbp),%rax
    9bfc:	48 83 f8 1e          	cmp    $0x1e,%rax
    9c00:	0f 87 55 ff ff ff    	ja     9b5b <func_100+0x95c>
    9c06:	eb 01                	jmp    9c09 <func_100+0xa0a>
    9c08:	90                   	nop
    9c09:	8b 05 95 d4 00 00    	mov    0xd495(%rip),%eax        # 170a4 <g_146>
    9c0f:	83 c0 01             	add    $0x1,%eax
    9c12:	89 05 8c d4 00 00    	mov    %eax,0xd48c(%rip)        # 170a4 <g_146>
    9c18:	8b 05 86 d4 00 00    	mov    0xd486(%rip),%eax        # 170a4 <g_146>
    9c1e:	83 f8 3a             	cmp    $0x3a,%eax
    9c21:	0f 87 07 ff ff ff    	ja     9b2e <func_100+0x92f>
    9c27:	48 8b 85 88 ef ff ff 	mov    -0x1078(%rbp),%rax
    9c2e:	8b 10                	mov    (%rax),%edx
    9c30:	0f b6 85 34 ee ff ff 	movzbl -0x11cc(%rbp),%eax
    9c37:	0f b6 c0             	movzbl %al,%eax
    9c3a:	21 c2                	and    %eax,%edx
    9c3c:	48 8b 85 88 ef ff ff 	mov    -0x1078(%rbp),%rax
    9c43:	89 10                	mov    %edx,(%rax)
    9c45:	8b 05 61 fb 00 00    	mov    0xfb61(%rip),%eax        # 197ac <g_120>
    9c4b:	0f b7 c0             	movzwl %ax,%eax
    9c4e:	be 05 00 00 00       	mov    $0x5,%esi
    9c53:	89 c7                	mov    %eax,%edi
    9c55:	e8 c5 c0 ff ff       	callq  5d1f <safe_sub_func_uint16_t_u_u>
    9c5a:	0f b7 c0             	movzwl %ax,%eax
    9c5d:	89 05 49 fb 00 00    	mov    %eax,0xfb49(%rip)        # 197ac <g_120>
    9c63:	8b 05 43 fb 00 00    	mov    0xfb43(%rip),%eax        # 197ac <g_120>
    9c69:	83 f8 fb             	cmp    $0xfffffffb,%eax
    9c6c:	0f 85 79 fe ff ff    	jne    9aeb <func_100+0x8ec>
    9c72:	48 8b 05 47 d4 00 00 	mov    0xd447(%rip),%rax        # 170c0 <g_195>
    9c79:	48 83 e8 01          	sub    $0x1,%rax
    9c7d:	48 89 05 3c d4 00 00 	mov    %rax,0xd43c(%rip)        # 170c0 <g_195>
    9c84:	48 0f be 85 43 ee ff 	movsbq -0x11bd(%rbp),%rax
    9c8b:	ff 
    9c8c:	e9 b4 1f 00 00       	jmpq   bc45 <func_100+0x2a46>
    9c91:	48 8d 05 e0 d3 00 00 	lea    0xd3e0(%rip),%rax        # 17078 <g_43>
    9c98:	48 89 85 38 ef ff ff 	mov    %rax,-0x10c8(%rbp)
    9c9f:	c7 85 50 ee ff ff 00 	movl   $0x0,-0x11b0(%rbp)
    9ca6:	00 00 00 
    9ca9:	c7 85 84 ee ff ff 08 	movl   $0x8,-0x117c(%rbp)
    9cb0:	00 00 00 
    9cb3:	c7 85 5c ee ff ff 04 	movl   $0x4,-0x11a4(%rbp)
    9cba:	00 00 00 
    9cbd:	c7 85 88 ee ff ff 14 	movl   $0x325b1714,-0x1178(%rbp)
    9cc4:	17 5b 32 
    9cc7:	c7 85 54 ee ff ff bf 	movl   $0xeb2a7dbf,-0x11ac(%rbp)
    9cce:	7d 2a eb 
    9cd1:	c7 85 8c ee ff ff bf 	movl   $0x7d0b9abf,-0x1174(%rbp)
    9cd8:	9a 0b 7d 
    9cdb:	c7 85 90 ee ff ff d3 	movl   $0xe90106d3,-0x1170(%rbp)
    9ce2:	06 01 e9 
    9ce5:	c7 85 94 ee ff ff 01 	movl   $0x1,-0x116c(%rbp)
    9cec:	00 00 00 
    9cef:	c7 85 98 ee ff ff ff 	movl   $0xffffffff,-0x1168(%rbp)
    9cf6:	ff ff ff 
    9cf9:	c7 85 9c ee ff ff 03 	movl   $0x3,-0x1164(%rbp)
    9d00:	00 00 00 
    9d03:	c7 85 a0 ee ff ff 00 	movl   $0x0,-0x1160(%rbp)
    9d0a:	00 00 00 
    9d0d:	c7 85 a4 ee ff ff 00 	movl   $0x0,-0x115c(%rbp)
    9d14:	00 00 00 
    9d17:	c7 85 60 ee ff ff 50 	movl   $0x764b8550,-0x11a0(%rbp)
    9d1e:	85 4b 76 
    9d21:	c7 85 64 ee ff ff f6 	movl   $0xfffffff6,-0x119c(%rbp)
    9d28:	ff ff ff 
    9d2b:	c7 85 a8 ee ff ff 21 	movl   $0xfc341c21,-0x1158(%rbp)
    9d32:	1c 34 fc 
    9d35:	48 8d 05 74 fa 00 00 	lea    0xfa74(%rip),%rax        # 197b0 <g_126>
    9d3c:	48 89 85 c0 ef ff ff 	mov    %rax,-0x1040(%rbp)
    9d43:	48 8d 85 38 ef ff ff 	lea    -0x10c8(%rbp),%rax
    9d4a:	48 89 85 40 ef ff ff 	mov    %rax,-0x10c0(%rbp)
    9d51:	48 c7 85 48 ef ff ff 	movq   $0x0,-0x10b8(%rbp)
    9d58:	00 00 00 00 
    9d5c:	48 8d 85 54 ee ff ff 	lea    -0x11ac(%rbp),%rax
    9d63:	48 89 85 c8 ef ff ff 	mov    %rax,-0x1038(%rbp)
    9d6a:	48 8d 05 8f ee 00 00 	lea    0xee8f(%rip),%rax        # 18c00 <g_381>
    9d71:	48 89 85 d0 ef ff ff 	mov    %rax,-0x1030(%rbp)
    9d78:	48 c7 05 2d fa 00 00 	movq   $0x0,0xfa2d(%rip)        # 197b0 <g_126>
    9d7f:	00 00 00 00 
    9d83:	e9 83 09 00 00       	jmpq   a70b <func_100+0x150c>
    9d88:	66 c7 85 46 ee ff ff 	movw   $0x4a24,-0x11ba(%rbp)
    9d8f:	24 4a 
    9d91:	c7 85 d0 ee ff ff 71 	movl   $0xb7a9b271,-0x1130(%rbp)
    9d98:	b2 a9 b7 
    9d9b:	c7 85 e0 f0 ff ff 02 	movl   $0x2,-0xf20(%rbp)
    9da2:	00 00 00 
    9da5:	c7 85 e4 f0 ff ff 01 	movl   $0x1,-0xf1c(%rbp)
    9dac:	00 00 00 
    9daf:	c7 85 e8 f0 ff ff 01 	movl   $0x1,-0xf18(%rbp)
    9db6:	00 00 00 
    9db9:	c7 85 ec f0 ff ff 02 	movl   $0x2,-0xf14(%rbp)
    9dc0:	00 00 00 
    9dc3:	c7 85 f0 f0 ff ff 01 	movl   $0x1,-0xf10(%rbp)
    9dca:	00 00 00 
    9dcd:	c7 85 f4 f0 ff ff 01 	movl   $0x1,-0xf0c(%rbp)
    9dd4:	00 00 00 
    9dd7:	c7 85 f8 f0 ff ff 02 	movl   $0x2,-0xf08(%rbp)
    9dde:	00 00 00 
    9de1:	c7 85 d4 ee ff ff 11 	movl   $0x3f117c11,-0x112c(%rbp)
    9de8:	7c 11 3f 
    9deb:	48 8d 05 de d2 00 00 	lea    0xd2de(%rip),%rax        # 170d0 <g_226>
    9df2:	48 89 85 78 f0 ff ff 	mov    %rax,-0xf88(%rbp)
    9df9:	48 c7 85 38 ee ff ff 	movq   $0x0,-0x11c8(%rbp)
    9e00:	00 00 00 00 
    9e04:	e9 ac 08 00 00       	jmpq   a6b5 <func_100+0x14b6>
    9e09:	48 8d 05 90 d2 00 00 	lea    0xd290(%rip),%rax        # 170a0 <g_124+0x8>
    9e10:	48 89 85 80 f0 ff ff 	mov    %rax,-0xf80(%rbp)
    9e17:	48 c7 85 88 f0 ff ff 	movq   $0xffffffffffffffff,-0xf78(%rbp)
    9e1e:	ff ff ff ff 
    9e22:	48 8d 05 9f d2 00 00 	lea    0xd29f(%rip),%rax        # 170c8 <g_224>
    9e29:	48 89 85 20 f1 ff ff 	mov    %rax,-0xee0(%rbp)
    9e30:	48 8d 05 91 d2 00 00 	lea    0xd291(%rip),%rax        # 170c8 <g_224>
    9e37:	48 89 85 28 f1 ff ff 	mov    %rax,-0xed8(%rbp)
    9e3e:	48 8d 05 83 d2 00 00 	lea    0xd283(%rip),%rax        # 170c8 <g_224>
    9e45:	48 89 85 30 f1 ff ff 	mov    %rax,-0xed0(%rbp)
    9e4c:	48 8d 05 75 d2 00 00 	lea    0xd275(%rip),%rax        # 170c8 <g_224>
    9e53:	48 89 85 38 f1 ff ff 	mov    %rax,-0xec8(%rbp)
    9e5a:	48 8d 05 67 d2 00 00 	lea    0xd267(%rip),%rax        # 170c8 <g_224>
    9e61:	48 89 85 40 f1 ff ff 	mov    %rax,-0xec0(%rbp)
    9e68:	48 8d 05 59 d2 00 00 	lea    0xd259(%rip),%rax        # 170c8 <g_224>
    9e6f:	48 89 85 48 f1 ff ff 	mov    %rax,-0xeb8(%rbp)
    9e76:	48 8d 05 4b d2 00 00 	lea    0xd24b(%rip),%rax        # 170c8 <g_224>
    9e7d:	48 89 85 50 f1 ff ff 	mov    %rax,-0xeb0(%rbp)
    9e84:	48 8d 05 21 f9 00 00 	lea    0xf921(%rip),%rax        # 197ac <g_120>
    9e8b:	48 89 85 90 f0 ff ff 	mov    %rax,-0xf70(%rbp)
    9e92:	c7 85 d8 ee ff ff fe 	movl   $0xfffffffe,-0x1128(%rbp)
    9e99:	ff ff ff 
    9e9c:	c7 85 dc ee ff ff 6a 	movl   $0x1bc32f6a,-0x1124(%rbp)
    9ea3:	2f c3 1b 
    9ea6:	c7 85 e0 ee ff ff 01 	movl   $0x1,-0x1120(%rbp)
    9ead:	00 00 00 
    9eb0:	c7 85 e4 ee ff ff 5c 	movl   $0x76fef85c,-0x111c(%rbp)
    9eb7:	f8 fe 76 
    9eba:	c7 85 e8 ee ff ff 7a 	movl   $0x9419de7a,-0x1118(%rbp)
    9ec1:	de 19 94 
    9ec4:	c7 85 ec ee ff ff ea 	movl   $0x602debea,-0x1114(%rbp)
    9ecb:	eb 2d 60 
    9ece:	c7 85 f0 ee ff ff fd 	movl   $0xffcc7cfd,-0x1110(%rbp)
    9ed5:	7c cc ff 
    9ed8:	c7 85 f4 ee ff ff bf 	movl   $0x331c18bf,-0x110c(%rbp)
    9edf:	18 1c 33 
    9ee2:	c7 85 68 ee ff ff 1b 	movl   $0xde08ac1b,-0x1198(%rbp)
    9ee9:	ac 08 de 
    9eec:	c7 85 f8 ee ff ff 01 	movl   $0x1,-0x1108(%rbp)
    9ef3:	00 00 00 
    9ef6:	c7 85 fc ee ff ff c7 	movl   $0x2b06d5c7,-0x1104(%rbp)
    9efd:	d5 06 2b 
    9f00:	c7 85 00 f1 ff ff f9 	movl   $0xfffffff9,-0xf00(%rbp)
    9f07:	ff ff ff 
    9f0a:	c7 85 04 f1 ff ff f9 	movl   $0xfffffff9,-0xefc(%rbp)
    9f11:	ff ff ff 
    9f14:	c7 85 08 f1 ff ff 04 	movl   $0x4,-0xef8(%rbp)
    9f1b:	00 00 00 
    9f1e:	c7 85 0c f1 ff ff f9 	movl   $0xfffffff9,-0xef4(%rbp)
    9f25:	ff ff ff 
    9f28:	c7 85 10 f1 ff ff f9 	movl   $0xfffffff9,-0xef0(%rbp)
    9f2f:	ff ff ff 
    9f32:	c7 85 14 f1 ff ff 04 	movl   $0x4,-0xeec(%rbp)
    9f39:	00 00 00 
    9f3c:	c7 85 18 f1 ff ff f9 	movl   $0xfffffff9,-0xee8(%rbp)
    9f43:	ff ff ff 
    9f46:	48 8d 85 a0 f1 ff ff 	lea    -0xe60(%rbp),%rax
    9f4d:	48 8d 15 6c 8f 00 00 	lea    0x8f6c(%rip),%rdx        # 12ec0 <g_1312+0x4e0>
    9f54:	b9 1f 00 00 00       	mov    $0x1f,%ecx
    9f59:	48 89 c7             	mov    %rax,%rdi
    9f5c:	48 89 d6             	mov    %rdx,%rsi
    9f5f:	f3 48 a5             	rep movsq %ds:(%rsi),%es:(%rdi)
    9f62:	48 89 f2             	mov    %rsi,%rdx
    9f65:	48 89 f8             	mov    %rdi,%rax
    9f68:	0f b7 0a             	movzwl (%rdx),%ecx
    9f6b:	66 89 08             	mov    %cx,(%rax)
    9f6e:	48 8d 40 02          	lea    0x2(%rax),%rax
    9f72:	48 8d 52 02          	lea    0x2(%rdx),%rdx
    9f76:	48 8d 85 d0 f0 ff ff 	lea    -0xf30(%rbp),%rax
    9f7d:	48 83 c0 08          	add    $0x8,%rax
    9f81:	48 89 85 58 ef ff ff 	mov    %rax,-0x10a8(%rbp)
    9f88:	48 8b 05 61 ec 00 00 	mov    0xec61(%rip),%rax        # 18bf0 <g_200>
    9f8f:	48 8b 95 38 ef ff ff 	mov    -0x10c8(%rbp),%rdx
    9f96:	48 89 10             	mov    %rdx,(%rax)
    9f99:	0f b6 85 34 ee ff ff 	movzbl -0x11cc(%rbp),%eax
    9fa0:	0f be d8             	movsbl %al,%ebx
    9fa3:	0f b6 95 34 ee ff ff 	movzbl -0x11cc(%rbp),%edx
    9faa:	48 8b 85 38 ef ff ff 	mov    -0x10c8(%rbp),%rax
    9fb1:	0f b6 d2             	movzbl %dl,%edx
    9fb4:	89 10                	mov    %edx,(%rax)
    9fb6:	8b 00                	mov    (%rax),%eax
    9fb8:	85 c0                	test   %eax,%eax
    9fba:	0f 94 c0             	sete   %al
    9fbd:	44 0f b6 f0          	movzbl %al,%r14d
    9fc1:	48 8b 85 38 ee ff ff 	mov    -0x11c8(%rbp),%rax
    9fc8:	48 85 c0             	test   %rax,%rax
    9fcb:	0f 85 4c 01 00 00    	jne    a11d <func_100+0xf1e>
    9fd1:	48 8b 85 38 ee ff ff 	mov    -0x11c8(%rbp),%rax
    9fd8:	41 89 c7             	mov    %eax,%r15d
    9fdb:	48 8b 05 ce d0 00 00 	mov    0xd0ce(%rip),%rax        # 170b0 <g_177>
    9fe2:	44 0f b7 e0          	movzwl %ax,%r12d
    9fe6:	48 8b 85 38 ee ff ff 	mov    -0x11c8(%rbp),%rax
    9fed:	44 0f b6 e8          	movzbl %al,%r13d
    9ff1:	48 8d 05 a8 d0 00 00 	lea    0xd0a8(%rip),%rax        # 170a0 <g_124+0x8>
    9ff8:	48 39 85 80 f0 ff ff 	cmp    %rax,-0xf80(%rbp)
    9fff:	0f 95 c0             	setne  %al
    a002:	0f b6 c0             	movzbl %al,%eax
    a005:	89 05 99 d0 00 00    	mov    %eax,0xd099(%rip)        # 170a4 <g_146>
    a00b:	48 8b 85 38 ee ff ff 	mov    -0x11c8(%rbp),%rax
    a012:	89 c7                	mov    %eax,%edi
    a014:	e8 7d b5 ff ff       	callq  5596 <safe_unary_minus_func_int32_t_s>
    a019:	85 c0                	test   %eax,%eax
    a01b:	0f 95 c0             	setne  %al
    a01e:	0f b6 c0             	movzbl %al,%eax
    a021:	48 39 85 88 f0 ff ff 	cmp    %rax,-0xf78(%rbp)
    a028:	0f 94 c0             	sete   %al
    a02b:	0f b6 c0             	movzbl %al,%eax
    a02e:	be 03 00 00 00       	mov    $0x3,%esi
    a033:	89 c7                	mov    %eax,%edi
    a035:	e8 53 bc ff ff       	callq  5c8d <safe_rshift_func_uint8_t_u_s>
    a03a:	0f b6 d0             	movzbl %al,%edx
    a03d:	48 8b 05 64 eb 00 00 	mov    0xeb64(%rip),%rax        # 18ba8 <g_106>
    a044:	48 8b 00             	mov    (%rax),%rax
    a047:	48 39 c2             	cmp    %rax,%rdx
    a04a:	0f 97 c0             	seta   %al
    a04d:	0f b6 c0             	movzbl %al,%eax
    a050:	be 00 00 00 00       	mov    $0x0,%esi
    a055:	89 c7                	mov    %eax,%edi
    a057:	e8 d9 b2 ff ff       	callq  5335 <safe_rshift_func_int8_t_s_s>
    a05c:	8b 05 42 d0 00 00    	mov    0xd042(%rip),%eax        # 170a4 <g_146>
    a062:	0f b6 c0             	movzbl %al,%eax
    a065:	44 89 ee             	mov    %r13d,%esi
    a068:	89 c7                	mov    %eax,%edi
    a06a:	e8 09 bb ff ff       	callq  5b78 <safe_sub_func_uint8_t_u_u>
    a06f:	0f b6 c0             	movzbl %al,%eax
    a072:	66 89 85 46 ee ff ff 	mov    %ax,-0x11ba(%rbp)
    a079:	0f b7 85 46 ee ff ff 	movzwl -0x11ba(%rbp),%eax
    a080:	0f bf d0             	movswl %ax,%edx
    a083:	0f b7 05 14 d0 00 00 	movzwl 0xd014(%rip),%eax        # 1709e <g_124+0x6>
    a08a:	98                   	cwtl   
    a08b:	89 d6                	mov    %edx,%esi
    a08d:	89 c7                	mov    %eax,%edi
    a08f:	e8 1f b3 ff ff       	callq  53b3 <safe_add_func_int16_t_s_s>
    a094:	98                   	cwtl   
    a095:	be 01 00 00 00       	mov    $0x1,%esi
    a09a:	89 c7                	mov    %eax,%edi
    a09c:	e8 84 be ff ff       	callq  5f25 <safe_div_func_uint32_t_u_u>
    a0a1:	89 c2                	mov    %eax,%edx
    a0a3:	48 8b 05 26 d0 00 00 	mov    0xd026(%rip),%rax        # 170d0 <g_226>
    a0aa:	48 31 d0             	xor    %rdx,%rax
    a0ad:	48 89 05 1c d0 00 00 	mov    %rax,0xd01c(%rip)        # 170d0 <g_226>
    a0b4:	48 8b 05 ed ea 00 00 	mov    0xeaed(%rip),%rax        # 18ba8 <g_106>
    a0bb:	48 8b 00             	mov    (%rax),%rax
    a0be:	66 0d 46 b7          	or     $0xb746,%ax
    a0c2:	0f b7 c0             	movzwl %ax,%eax
    a0c5:	44 89 e6             	mov    %r12d,%esi
    a0c8:	89 c7                	mov    %eax,%edi
    a0ca:	e8 30 bc ff ff       	callq  5cff <safe_add_func_uint16_t_u_u>
    a0cf:	88 05 d3 cf 00 00    	mov    %al,0xcfd3(%rip)        # 170a8 <g_175>
    a0d5:	0f b6 05 cc cf 00 00 	movzbl 0xcfcc(%rip),%eax        # 170a8 <g_175>
    a0dc:	83 c8 f8             	or     $0xfffffff8,%eax
    a0df:	0f b6 c0             	movzbl %al,%eax
    a0e2:	66 25 31 6e          	and    $0x6e31,%ax
    a0e6:	89 c2                	mov    %eax,%edx
    a0e8:	48 8b 85 88 f0 ff ff 	mov    -0xf78(%rbp),%rax
    a0ef:	09 d0                	or     %edx,%eax
    a0f1:	0f b7 c0             	movzwl %ax,%eax
    a0f4:	44 89 fe             	mov    %r15d,%esi
    a0f7:	89 c7                	mov    %eax,%edi
    a0f9:	e8 08 bd ff ff       	callq  5e06 <safe_lshift_func_uint16_t_u_u>
    a0fe:	0f b7 d0             	movzwl %ax,%edx
    a101:	48 8b 85 90 f0 ff ff 	mov    -0xf70(%rbp),%rax
    a108:	89 10                	mov    %edx,(%rax)
    a10a:	48 8b 15 9f f6 00 00 	mov    0xf69f(%rip),%rdx        # 197b0 <g_126>
    a111:	48 8b 05 98 cf 00 00 	mov    0xcf98(%rip),%rax        # 170b0 <g_177>
    a118:	48 39 c2             	cmp    %rax,%rdx
    a11b:	75 07                	jne    a124 <func_100+0xf25>
    a11d:	b8 01 00 00 00       	mov    $0x1,%eax
    a122:	eb 05                	jmp    a129 <func_100+0xf2a>
    a124:	b8 00 00 00 00       	mov    $0x0,%eax
    a129:	44 31 f0             	xor    %r14d,%eax
    a12c:	89 c2                	mov    %eax,%edx
    a12e:	0f b7 05 5f cf 00 00 	movzwl 0xcf5f(%rip),%eax        # 17094 <g_122>
    a135:	0f b7 c0             	movzwl %ax,%eax
    a138:	39 c2                	cmp    %eax,%edx
    a13a:	0f 9d c0             	setge  %al
    a13d:	0f b6 c0             	movzbl %al,%eax
    a140:	89 de                	mov    %ebx,%esi
    a142:	89 c7                	mov    %eax,%edi
    a144:	e8 c9 b0 ff ff       	callq  5212 <safe_mul_func_int8_t_s_s>
    a149:	84 c0                	test   %al,%al
    a14b:	0f 84 4c 01 00 00    	je     a29d <func_100+0x109e>
    a151:	48 b8 b4 fe e9 58 d3 	movabs $0xd98822d358e9feb4,%rax
    a158:	22 88 d9 
    a15b:	48 89 85 b0 f0 ff ff 	mov    %rax,-0xf50(%rbp)
    a162:	c7 85 1c ef ff ff 09 	movl   $0x9,-0x10e4(%rbp)
    a169:	00 00 00 
    a16c:	c7 85 20 ef ff ff 2d 	movl   $0x7224a2d,-0x10e0(%rbp)
    a173:	4a 22 07 
    a176:	48 8d 85 c0 fa ff ff 	lea    -0x540(%rbp),%rax
    a17d:	48 8d 15 3c 8e 00 00 	lea    0x8e3c(%rip),%rdx        # 12fc0 <g_1312+0x5e0>
    a184:	b9 7a 00 00 00       	mov    $0x7a,%ecx
    a189:	48 89 c7             	mov    %rax,%rdi
    a18c:	48 89 d6             	mov    %rdx,%rsi
    a18f:	f3 48 a5             	rep movsq %ds:(%rsi),%es:(%rdi)
    a192:	48 89 f2             	mov    %rsi,%rdx
    a195:	48 89 f8             	mov    %rdi,%rax
    a198:	8b 0a                	mov    (%rdx),%ecx
    a19a:	89 08                	mov    %ecx,(%rax)
    a19c:	48 8d 40 04          	lea    0x4(%rax),%rax
    a1a0:	48 8d 52 04          	lea    0x4(%rdx),%rdx
    a1a4:	48 8b 85 38 ef ff ff 	mov    -0x10c8(%rbp),%rax
    a1ab:	c7 00 00 00 00 00    	movl   $0x0,(%rax)
    a1b1:	48 8b 05 18 cf 00 00 	mov    0xcf18(%rip),%rax        # 170d0 <g_226>
    a1b8:	48 83 c0 01          	add    $0x1,%rax
    a1bc:	48 89 05 0d cf 00 00 	mov    %rax,0xcf0d(%rip)        # 170d0 <g_226>
    a1c3:	48 8b 05 06 cf 00 00 	mov    0xcf06(%rip),%rax        # 170d0 <g_226>
    a1ca:	89 c2                	mov    %eax,%edx
    a1cc:	8b 85 d8 ee ff ff    	mov    -0x1128(%rbp),%eax
    a1d2:	21 d0                	and    %edx,%eax
    a1d4:	89 85 d8 ee ff ff    	mov    %eax,-0x1128(%rbp)
    a1da:	0f b7 05 bf ce 00 00 	movzwl 0xcebf(%rip),%eax        # 170a0 <g_124+0x8>
    a1e1:	44 0f b7 e0          	movzwl %ax,%r12d
    a1e5:	bf ca 45 ee 1a       	mov    $0x1aee45ca,%edi
    a1ea:	e8 a7 b3 ff ff       	callq  5596 <safe_unary_minus_func_int32_t_s>
    a1ef:	48 8b 85 28 ef ff ff 	mov    -0x10d8(%rbp),%rax
    a1f6:	8b 18                	mov    (%rax),%ebx
    a1f8:	8d 53 01             	lea    0x1(%rbx),%edx
    a1fb:	89 10                	mov    %edx,(%rax)
    a1fd:	0f b6 05 a4 ce 00 00 	movzbl 0xcea4(%rip),%eax        # 170a8 <g_175>
    a204:	83 c8 35             	or     $0x35,%eax
    a207:	88 05 9b ce 00 00    	mov    %al,0xce9b(%rip)        # 170a8 <g_175>
    a20d:	b8 a0 ff ff ff       	mov    $0xffffffa0,%eax
    a212:	0f b6 c0             	movzbl %al,%eax
    a215:	48 8b 15 94 f5 00 00 	mov    0xf594(%rip),%rdx        # 197b0 <g_126>
    a21c:	31 d0                	xor    %edx,%eax
    a21e:	be 06 00 00 00       	mov    $0x6,%esi
    a223:	89 c7                	mov    %eax,%edi
    a225:	e8 d3 bc ff ff       	callq  5efd <safe_mod_func_uint32_t_u_u>
    a22a:	09 d8                	or     %ebx,%eax
    a22c:	89 c2                	mov    %eax,%edx
    a22e:	48 8b 05 53 ce 00 00 	mov    0xce53(%rip),%rax        # 17088 <g_115>
    a235:	98                   	cwtl   
    a236:	89 d6                	mov    %edx,%esi
    a238:	89 c7                	mov    %eax,%edi
    a23a:	e8 53 b2 ff ff       	callq  5492 <safe_lshift_func_int16_t_s_s>
    a23f:	0f bf d0             	movswl %ax,%edx
    a242:	0f b6 05 6f ce 00 00 	movzbl 0xce6f(%rip),%eax        # 170b8 <g_178>
    a249:	0f be c0             	movsbl %al,%eax
    a24c:	09 d0                	or     %edx,%eax
    a24e:	41 39 c4             	cmp    %eax,%r12d
    a251:	0f 9e c0             	setle  %al
    a254:	0f b6 d0             	movzbl %al,%edx
    a257:	48 8b 85 38 ee ff ff 	mov    -0x11c8(%rbp),%rax
    a25e:	48 39 c2             	cmp    %rax,%rdx
    a261:	75 08                	jne    a26b <func_100+0x106c>
    a263:	48 83 bd 88 f0 ff ff 	cmpq   $0x0,-0xf78(%rbp)
    a26a:	00 
    a26b:	be 01 00 00 00       	mov    $0x1,%esi
    a270:	bf 01 00 00 00       	mov    $0x1,%edi
    a275:	e8 a5 ba ff ff       	callq  5d1f <safe_sub_func_uint16_t_u_u>
    a27a:	48 8b 95 88 ef ff ff 	mov    -0x1078(%rbp),%rdx
    a281:	8b 12                	mov    (%rdx),%edx
    a283:	0f b7 c0             	movzwl %ax,%eax
    a286:	21 c2                	and    %eax,%edx
    a288:	48 8b 85 88 ef ff ff 	mov    -0x1078(%rbp),%rax
    a28f:	89 10                	mov    %edx,(%rax)
    a291:	83 85 64 ee ff ff 01 	addl   $0x1,-0x119c(%rbp)
    a298:	e9 06 04 00 00       	jmpq   a6a3 <func_100+0x14a4>
    a29d:	66 c7 85 48 ee ff ff 	movw   $0xffff,-0x11b8(%rbp)
    a2a4:	ff ff 
    a2a6:	c7 85 00 ef ff ff fa 	movl   $0xfffffffa,-0x1100(%rbp)
    a2ad:	ff ff ff 
    a2b0:	c7 85 04 ef ff ff f8 	movl   $0xfffffff8,-0x10fc(%rbp)
    a2b7:	ff ff ff 
    a2ba:	c7 85 08 ef ff ff 01 	movl   $0x1,-0x10f8(%rbp)
    a2c1:	00 00 00 
    a2c4:	c7 85 0c ef ff ff 00 	movl   $0x0,-0x10f4(%rbp)
    a2cb:	00 00 00 
    a2ce:	66 c7 85 4a ee ff ff 	movw   $0x88ab,-0x11b6(%rbp)
    a2d5:	ab 88 
    a2d7:	c7 85 10 ef ff ff f9 	movl   $0xfffffff9,-0x10f0(%rbp)
    a2de:	ff ff ff 
    a2e1:	48 8d 85 58 ef ff ff 	lea    -0x10a8(%rbp),%rax
    a2e8:	48 89 85 98 f0 ff ff 	mov    %rax,-0xf68(%rbp)
    a2ef:	48 c7 85 60 ef ff ff 	movq   $0x0,-0x10a0(%rbp)
    a2f6:	00 00 00 00 
    a2fa:	48 8d 85 60 ef ff ff 	lea    -0x10a0(%rbp),%rax
    a301:	48 89 85 a0 f0 ff ff 	mov    %rax,-0xf60(%rbp)
    a308:	83 bd d4 ee ff ff 00 	cmpl   $0x0,-0x112c(%rbp)
    a30f:	0f 85 b0 03 00 00    	jne    a6c5 <func_100+0x14c6>
    a315:	c7 85 68 ee ff ff 00 	movl   $0x0,-0x1198(%rbp)
    a31c:	00 00 00 
    a31f:	e9 49 02 00 00       	jmpq   a56d <func_100+0x136e>
    a324:	48 b8 d9 50 e0 95 90 	movabs $0xa4b3db9095e050d9,%rax
    a32b:	db b3 a4 
    a32e:	48 89 85 a8 f0 ff ff 	mov    %rax,-0xf58(%rbp)
    a335:	c7 85 14 ef ff ff fc 	movl   $0xfffffffc,-0x10ec(%rbp)
    a33c:	ff ff ff 
    a33f:	c7 85 18 ef ff ff be 	movl   $0x8790d6be,-0x10e8(%rbp)
    a346:	d6 90 87 
    a349:	48 8b 85 30 ef ff ff 	mov    -0x10d0(%rbp),%rax
    a350:	49 89 c4             	mov    %rax,%r12
    a353:	0f b6 85 34 ee ff ff 	movzbl -0x11cc(%rbp),%eax
    a35a:	0f b6 d8             	movzbl %al,%ebx
    a35d:	48 8b 85 38 ee ff ff 	mov    -0x11c8(%rbp),%rax
    a364:	49 89 c5             	mov    %rax,%r13
    a367:	0f b7 85 48 ee ff ff 	movzwl -0x11b8(%rbp),%eax
    a36e:	98                   	cwtl   
    a36f:	be 0a 00 00 00       	mov    $0xa,%esi
    a374:	89 c7                	mov    %eax,%edi
    a376:	e8 af b1 ff ff       	callq  552a <safe_rshift_func_int16_t_s_s>
    a37b:	66 85 c0             	test   %ax,%ax
    a37e:	74 11                	je     a391 <func_100+0x1192>
    a380:	48 83 bd a8 f0 ff ff 	cmpq   $0x0,-0xf58(%rbp)
    a387:	00 
    a388:	74 07                	je     a391 <func_100+0x1192>
    a38a:	b8 01 00 00 00       	mov    $0x1,%eax
    a38f:	eb 05                	jmp    a396 <func_100+0x1197>
    a391:	b8 00 00 00 00       	mov    $0x0,%eax
    a396:	48 98                	cltq   
    a398:	be 00 00 00 00       	mov    $0x0,%esi
    a39d:	48 89 c7             	mov    %rax,%rdi
    a3a0:	e8 03 b5 ff ff       	callq  58a8 <safe_sub_func_int64_t_s_s>
    a3a5:	4c 89 ee             	mov    %r13,%rsi
    a3a8:	bf 00 00 00 00       	mov    $0x0,%edi
    a3ad:	e8 02 b6 ff ff       	callq  59b4 <safe_mod_func_int64_t_s_s>
    a3b2:	0f be c0             	movsbl %al,%eax
    a3b5:	be d9 ff ff ff       	mov    $0xffffffd9,%esi
    a3ba:	89 c7                	mov    %eax,%edi
    a3bc:	e8 51 ae ff ff       	callq  5212 <safe_mul_func_int8_t_s_s>
    a3c1:	48 83 bd a8 f0 ff ff 	cmpq   $0x0,-0xf58(%rbp)
    a3c8:	00 
    a3c9:	74 07                	je     a3d2 <func_100+0x11d3>
    a3cb:	ba 01 00 00 00       	mov    $0x1,%edx
    a3d0:	eb 05                	jmp    a3d7 <func_100+0x11d8>
    a3d2:	ba 00 00 00 00       	mov    $0x0,%edx
    a3d7:	48 8b 85 38 ef ff ff 	mov    -0x10c8(%rbp),%rax
    a3de:	8b 00                	mov    (%rax),%eax
    a3e0:	39 c2                	cmp    %eax,%edx
    a3e2:	0f 95 c0             	setne  %al
    a3e5:	0f b6 c0             	movzbl %al,%eax
    a3e8:	48 39 85 88 f0 ff ff 	cmp    %rax,-0xf78(%rbp)
    a3ef:	83 bd e4 ee ff ff fb 	cmpl   $0xfffffffb,-0x111c(%rbp)
    a3f6:	0f 94 c0             	sete   %al
    a3f9:	0f b6 d0             	movzbl %al,%edx
    a3fc:	8b 05 aa f3 00 00    	mov    0xf3aa(%rip),%eax        # 197ac <g_120>
    a402:	0f b6 c0             	movzbl %al,%eax
    a405:	89 d6                	mov    %edx,%esi
    a407:	89 c7                	mov    %eax,%edi
    a409:	e8 f7 b7 ff ff       	callq  5c05 <safe_lshift_func_uint8_t_u_s>
    a40e:	0f b6 c0             	movzbl %al,%eax
    a411:	89 de                	mov    %ebx,%esi
    a413:	89 c7                	mov    %eax,%edi
    a415:	e8 c1 b7 ff ff       	callq  5bdb <safe_div_func_uint8_t_u_u>
    a41a:	84 c0                	test   %al,%al
    a41c:	74 07                	je     a425 <func_100+0x1226>
    a41e:	b8 01 00 00 00       	mov    $0x1,%eax
    a423:	eb 05                	jmp    a42a <func_100+0x122b>
    a425:	b8 00 00 00 00       	mov    $0x0,%eax
    a42a:	0f be d0             	movsbl %al,%edx
    a42d:	0f b7 05 ad cc 00 00 	movzwl 0xccad(%rip),%eax        # 170e1 <g_241+0x1>
    a434:	0f be c0             	movsbl %al,%eax
    a437:	89 d6                	mov    %edx,%esi
    a439:	89 c7                	mov    %eax,%edi
    a43b:	e8 2a ae ff ff       	callq  526a <safe_div_func_int8_t_s_s>
    a440:	48 0f be c0          	movsbq %al,%rax
    a444:	48 89 c7             	mov    %rax,%rdi
    a447:	e8 cd bb ff ff       	callq  6019 <safe_unary_minus_func_uint64_t_u>
    a44c:	8b 95 a8 ee ff ff    	mov    -0x1158(%rbp),%edx
    a452:	48 39 d0             	cmp    %rdx,%rax
    a455:	0f 96 c0             	setbe  %al
    a458:	0f b6 c0             	movzbl %al,%eax
    a45b:	4c 89 e6             	mov    %r12,%rsi
    a45e:	48 89 c7             	mov    %rax,%rdi
    a461:	e8 49 bc ff ff       	callq  60af <safe_div_func_uint64_t_u_u>
    a466:	48 3d 87 00 00 00    	cmp    $0x87,%rax
    a46c:	76 13                	jbe    a481 <func_100+0x1282>
    a46e:	48 8b 85 38 ee ff ff 	mov    -0x11c8(%rbp),%rax
    a475:	48 85 c0             	test   %rax,%rax
    a478:	74 07                	je     a481 <func_100+0x1282>
    a47a:	ba 01 00 00 00       	mov    $0x1,%edx
    a47f:	eb 05                	jmp    a486 <func_100+0x1287>
    a481:	ba 00 00 00 00       	mov    $0x0,%edx
    a486:	48 8b 85 38 ef ff ff 	mov    -0x10c8(%rbp),%rax
    a48d:	89 10                	mov    %edx,(%rax)
    a48f:	8b 85 0c f1 ff ff    	mov    -0xef4(%rbp),%eax
    a495:	0f b6 d8             	movzbl %al,%ebx
    a498:	48 8b 85 38 ee ff ff 	mov    -0x11c8(%rbp),%rax
    a49f:	44 0f b7 e0          	movzwl %ax,%r12d
    a4a3:	0f b6 85 34 ee ff ff 	movzbl -0x11cc(%rbp),%eax
    a4aa:	44 0f b6 e8          	movzbl %al,%r13d
    a4ae:	8b 85 d0 ee ff ff    	mov    -0x1130(%rbp),%eax
    a4b4:	4c 63 f0             	movslq %eax,%r14
    a4b7:	8b 05 bf cb 00 00    	mov    0xcbbf(%rip),%eax        # 1707c <g_85>
    a4bd:	48 63 d0             	movslq %eax,%rdx
    a4c0:	8b 85 00 ef ff ff    	mov    -0x1100(%rbp),%eax
    a4c6:	48 89 d6             	mov    %rdx,%rsi
    a4c9:	48 89 c7             	mov    %rax,%rdi
    a4cc:	e8 70 b3 ff ff       	callq  5841 <safe_add_func_int64_t_s_s>
    a4d1:	48 8d 85 38 ee ff ff 	lea    -0x11c8(%rbp),%rax
    a4d8:	48 39 85 78 f0 ff ff 	cmp    %rax,-0xf88(%rbp)
    a4df:	0f 95 c0             	setne  %al
    a4e2:	0f b6 c0             	movzbl %al,%eax
    a4e5:	4c 89 f6             	mov    %r14,%rsi
    a4e8:	48 89 c7             	mov    %rax,%rdi
    a4eb:	e8 5b bb ff ff       	callq  604b <safe_sub_func_uint64_t_u_u>
    a4f0:	0f be c0             	movsbl %al,%eax
    a4f3:	be fe ff ff ff       	mov    $0xfffffffe,%esi
    a4f8:	89 c7                	mov    %eax,%edi
    a4fa:	e8 13 ad ff ff       	callq  5212 <safe_mul_func_int8_t_s_s>
    a4ff:	66 98                	cbtw   
    a501:	0f b7 c0             	movzwl %ax,%eax
    a504:	44 89 ee             	mov    %r13d,%esi
    a507:	89 c7                	mov    %eax,%edi
    a509:	e8 f1 b7 ff ff       	callq  5cff <safe_add_func_uint16_t_u_u>
    a50e:	44 89 e6             	mov    %r12d,%esi
    a511:	bf 00 00 00 00       	mov    $0x0,%edi
    a516:	e8 04 b8 ff ff       	callq  5d1f <safe_sub_func_uint16_t_u_u>
    a51b:	48 8b 05 9e cb 00 00 	mov    0xcb9e(%rip),%rax        # 170c0 <g_195>
    a522:	0f bf d0             	movswl %ax,%edx
    a525:	8b 85 f4 f0 ff ff    	mov    -0xf0c(%rbp),%eax
    a52b:	98                   	cwtl   
    a52c:	89 d6                	mov    %edx,%esi
    a52e:	89 c7                	mov    %eax,%edi
    a530:	e8 9e ae ff ff       	callq  53d3 <safe_sub_func_int16_t_s_s>
    a535:	0f b6 c0             	movzbl %al,%eax
    a538:	89 de                	mov    %ebx,%esi
    a53a:	89 c7                	mov    %eax,%edi
    a53c:	e8 37 b6 ff ff       	callq  5b78 <safe_sub_func_uint8_t_u_u>
    a541:	48 8b 05 38 cb 00 00 	mov    0xcb38(%rip),%rax        # 17080 <g_107>
    a548:	83 f0 01             	xor    $0x1,%eax
    a54b:	89 c2                	mov    %eax,%edx
    a54d:	48 8b 05 64 e6 00 00 	mov    0xe664(%rip),%rax        # 18bb8 <g_191>
    a554:	89 10                	mov    %edx,(%rax)
    a556:	0f b6 85 14 f2 ff ff 	movzbl -0xdec(%rbp),%eax
    a55d:	83 c0 01             	add    $0x1,%eax
    a560:	88 85 14 f2 ff ff    	mov    %al,-0xdec(%rbp)
    a566:	83 ad 68 ee ff ff 01 	subl   $0x1,-0x1198(%rbp)
    a56d:	83 bd 68 ee ff ff 00 	cmpl   $0x0,-0x1198(%rbp)
    a574:	0f 89 aa fd ff ff    	jns    a324 <func_100+0x1125>
    a57a:	8b 85 f4 f0 ff ff    	mov    -0xf0c(%rbp),%eax
    a580:	0f b6 d8             	movzbl %al,%ebx
    a583:	48 83 bd c8 ef ff ff 	cmpq   $0x0,-0x1038(%rbp)
    a58a:	00 
    a58b:	0f 95 c0             	setne  %al
    a58e:	0f b6 d0             	movzbl %al,%edx
    a591:	0f b6 05 59 cb 00 00 	movzbl 0xcb59(%rip),%eax        # 170f1 <g_241+0x11>
    a598:	0f be c0             	movsbl %al,%eax
    a59b:	39 c2                	cmp    %eax,%edx
    a59d:	0f 95 c0             	setne  %al
    a5a0:	0f b6 c0             	movzbl %al,%eax
    a5a3:	be 8f 71 00 00       	mov    $0x718f,%esi
    a5a8:	89 c7                	mov    %eax,%edi
    a5aa:	e8 46 ae ff ff       	callq  53f5 <safe_mul_func_int16_t_s_s>
    a5af:	8b 05 c3 ca 00 00    	mov    0xcac3(%rip),%eax        # 17078 <g_43>
    a5b5:	f7 d0                	not    %eax
    a5b7:	0f b7 d0             	movzwl %ax,%edx
    a5ba:	48 8b 8d 58 ef ff ff 	mov    -0x10a8(%rbp),%rcx
    a5c1:	48 8b 85 98 f0 ff ff 	mov    -0xf68(%rbp),%rax
    a5c8:	48 89 08             	mov    %rcx,(%rax)
    a5cb:	48 8b 85 98 f0 ff ff 	mov    -0xf68(%rbp),%rax
    a5d2:	48 8b 08             	mov    (%rax),%rcx
    a5d5:	48 8b 85 a0 f0 ff ff 	mov    -0xf60(%rbp),%rax
    a5dc:	48 89 08             	mov    %rcx,(%rax)
    a5df:	48 8b 85 a0 f0 ff ff 	mov    -0xf60(%rbp),%rax
    a5e6:	48 8b 08             	mov    (%rax),%rcx
    a5e9:	48 8d 05 f8 e5 00 00 	lea    0xe5f8(%rip),%rax        # 18be8 <g_201>
    a5f0:	48 89 05 01 e6 00 00 	mov    %rax,0xe601(%rip)        # 18bf8 <g_346>
    a5f7:	48 8b 05 fa e5 00 00 	mov    0xe5fa(%rip),%rax        # 18bf8 <g_346>
    a5fe:	48 89 85 40 ef ff ff 	mov    %rax,-0x10c0(%rbp)
    a605:	48 8b 85 40 ef ff ff 	mov    -0x10c0(%rbp),%rax
    a60c:	48 39 c1             	cmp    %rax,%rcx
    a60f:	0f 94 c0             	sete   %al
    a612:	0f b6 c0             	movzbl %al,%eax
    a615:	39 85 d0 ee ff ff    	cmp    %eax,-0x1130(%rbp)
    a61b:	0f 9e c0             	setle  %al
    a61e:	0f b6 c0             	movzbl %al,%eax
    a621:	89 d6                	mov    %edx,%esi
    a623:	89 c7                	mov    %eax,%edi
    a625:	e8 13 b7 ff ff       	callq  5d3d <safe_mul_func_uint16_t_u_u>
    a62a:	0f b7 c0             	movzwl %ax,%eax
    a62d:	48 be 15 e9 a2 21 6a 	movabs $0xec23776a21a2e915,%rsi
    a634:	77 23 ec 
    a637:	48 89 c7             	mov    %rax,%rdi
    a63a:	e8 ef b9 ff ff       	callq  602e <safe_add_func_uint64_t_u_u>
    a63f:	89 c6                	mov    %eax,%esi
    a641:	bf f6 ff ff ff       	mov    $0xfffffff6,%edi
    a646:	e8 47 ae ff ff       	callq  5492 <safe_lshift_func_int16_t_s_s>
    a64b:	48 8b 05 2e ca 00 00 	mov    0xca2e(%rip),%rax        # 17080 <g_107>
    a652:	0f b7 c0             	movzwl %ax,%eax
    a655:	be 00 00 00 00       	mov    $0x0,%esi
    a65a:	89 c7                	mov    %eax,%edi
    a65c:	e8 9e b6 ff ff       	callq  5cff <safe_add_func_uint16_t_u_u>
    a661:	0f b6 c0             	movzbl %al,%eax
    a664:	89 de                	mov    %ebx,%esi
    a666:	89 c7                	mov    %eax,%edi
    a668:	e8 6e b5 ff ff       	callq  5bdb <safe_div_func_uint8_t_u_u>
    a66d:	0f b6 05 8c ca 00 00 	movzbl 0xca8c(%rip),%eax        # 17100 <g_330>
    a674:	48 8b 85 38 ee ff ff 	mov    -0x11c8(%rbp),%rax
    a67b:	48 be fc 3f e8 2b c0 	movabs $0x3d12f7c02be83ffc,%rsi
    a682:	f7 12 3d 
    a685:	48 89 c7             	mov    %rax,%rdi
    a688:	e8 be b9 ff ff       	callq  604b <safe_sub_func_uint64_t_u_u>
    a68d:	48 8b 95 c8 ef ff ff 	mov    -0x1038(%rbp),%rdx
    a694:	8b 12                	mov    (%rdx),%edx
    a696:	09 d0                	or     %edx,%eax
    a698:	89 c2                	mov    %eax,%edx
    a69a:	48 8b 85 c8 ef ff ff 	mov    -0x1038(%rbp),%rax
    a6a1:	89 10                	mov    %edx,(%rax)
    a6a3:	48 8b 85 38 ee ff ff 	mov    -0x11c8(%rbp),%rax
    a6aa:	48 83 c0 01          	add    $0x1,%rax
    a6ae:	48 89 85 38 ee ff ff 	mov    %rax,-0x11c8(%rbp)
    a6b5:	48 8b 85 38 ee ff ff 	mov    -0x11c8(%rbp),%rax
    a6bc:	48 85 c0             	test   %rax,%rax
    a6bf:	0f 84 44 f7 ff ff    	je     9e09 <func_100+0xc0a>
    a6c5:	c7 85 9c ee ff ff 00 	movl   $0x0,-0x1164(%rbp)
    a6cc:	00 00 00 
    a6cf:	83 bd 9c ee ff ff 00 	cmpl   $0x0,-0x1164(%rbp)
    a6d6:	7f 0f                	jg     a6e7 <func_100+0x14e8>
    a6d8:	0f b6 85 34 ee ff ff 	movzbl -0x11cc(%rbp),%eax
    a6df:	0f b6 c0             	movzbl %al,%eax
    a6e2:	e9 5e 15 00 00       	jmpq   bc45 <func_100+0x2a46>
    a6e7:	48 8b 05 1a ca 00 00 	mov    0xca1a(%rip),%rax        # 17108 <g_353>
    a6ee:	48 83 e8 01          	sub    $0x1,%rax
    a6f2:	48 89 05 0f ca 00 00 	mov    %rax,0xca0f(%rip)        # 17108 <g_353>
    a6f9:	48 8b 05 b0 f0 00 00 	mov    0xf0b0(%rip),%rax        # 197b0 <g_126>
    a700:	48 83 c0 01          	add    $0x1,%rax
    a704:	48 89 05 a5 f0 00 00 	mov    %rax,0xf0a5(%rip)        # 197b0 <g_126>
    a70b:	48 8b 05 9e f0 00 00 	mov    0xf09e(%rip),%rax        # 197b0 <g_126>
    a712:	48 85 c0             	test   %rax,%rax
    a715:	0f 84 6d f6 ff ff    	je     9d88 <func_100+0xb89>
    a71b:	48 8b 05 96 e4 00 00 	mov    0xe496(%rip),%rax        # 18bb8 <g_191>
    a722:	8b 00                	mov    (%rax),%eax
    a724:	85 c0                	test   %eax,%eax
    a726:	0f 84 9a 01 00 00    	je     a8c6 <func_100+0x16c7>
    a72c:	48 8d 05 c5 e4 00 00 	lea    0xe4c5(%rip),%rax        # 18bf8 <g_346>
    a733:	48 89 85 20 f0 ff ff 	mov    %rax,-0xfe0(%rbp)
    a73a:	48 8d 05 87 c9 00 00 	lea    0xc987(%rip),%rax        # 170c8 <g_224>
    a741:	48 89 85 28 f0 ff ff 	mov    %rax,-0xfd8(%rbp)
    a748:	48 8d 05 69 c9 00 00 	lea    0xc969(%rip),%rax        # 170b8 <g_178>
    a74f:	48 89 85 30 f0 ff ff 	mov    %rax,-0xfd0(%rbp)
    a756:	c7 85 c0 ee ff ff fb 	movl   $0xfffffffb,-0x1140(%rbp)
    a75d:	ff ff ff 
    a760:	48 8b 85 20 f0 ff ff 	mov    -0xfe0(%rbp),%rax
    a767:	48 8b 00             	mov    (%rax),%rax
    a76a:	48 8b 00             	mov    (%rax),%rax
    a76d:	8b 00                	mov    (%rax),%eax
    a76f:	0f b6 d8             	movzbl %al,%ebx
    a772:	48 8b 85 40 ef ff ff 	mov    -0x10c0(%rbp),%rax
    a779:	48 8b 00             	mov    (%rax),%rax
    a77c:	8b 00                	mov    (%rax),%eax
    a77e:	41 89 c5             	mov    %eax,%r13d
    a781:	48 8b 05 f8 c8 00 00 	mov    0xc8f8(%rip),%rax        # 17080 <g_107>
    a788:	48 83 f0 01          	xor    $0x1,%rax
    a78c:	48 be 99 c7 96 53 68 	movabs $0x70e87a685396c799,%rsi
    a793:	7a e8 70 
    a796:	48 89 c7             	mov    %rax,%rdi
    a799:	e8 e2 b8 ff ff       	callq  6080 <safe_mod_func_uint64_t_u_u>
    a79e:	0f b6 15 4c c9 00 00 	movzbl 0xc94c(%rip),%edx        # 170f1 <g_241+0x11>
    a7a5:	48 0f be d2          	movsbq %dl,%rdx
    a7a9:	48 39 d0             	cmp    %rdx,%rax
    a7ac:	0f 94 c0             	sete   %al
    a7af:	89 c2                	mov    %eax,%edx
    a7b1:	8b 85 c0 ee ff ff    	mov    -0x1140(%rbp),%eax
    a7b7:	31 d0                	xor    %edx,%eax
    a7b9:	0f be d0             	movsbl %al,%edx
    a7bc:	0f b6 85 34 ee ff ff 	movzbl -0x11cc(%rbp),%eax
    a7c3:	0f b6 c8             	movzbl %al,%ecx
    a7c6:	48 8b 85 20 f0 ff ff 	mov    -0xfe0(%rbp),%rax
    a7cd:	48 8b 00             	mov    (%rax),%rax
    a7d0:	48 8b 00             	mov    (%rax),%rax
    a7d3:	8b 00                	mov    (%rax),%eax
    a7d5:	39 c1                	cmp    %eax,%ecx
    a7d7:	0f 95 c0             	setne  %al
    a7da:	89 c1                	mov    %eax,%ecx
    a7dc:	48 8b 85 30 f0 ff ff 	mov    -0xfd0(%rbp),%rax
    a7e3:	88 08                	mov    %cl,(%rax)
    a7e5:	48 8b 85 30 f0 ff ff 	mov    -0xfd0(%rbp),%rax
    a7ec:	0f b6 00             	movzbl (%rax),%eax
    a7ef:	0f be c0             	movsbl %al,%eax
    a7f2:	89 d6                	mov    %edx,%esi
    a7f4:	89 c7                	mov    %eax,%edi
    a7f6:	e8 17 aa ff ff       	callq  5212 <safe_mul_func_int8_t_s_s>
    a7fb:	84 c0                	test   %al,%al
    a7fd:	75 09                	jne    a808 <func_100+0x1609>
    a7ff:	0f b6 05 fa c8 00 00 	movzbl 0xc8fa(%rip),%eax        # 17100 <g_330>
    a806:	84 c0                	test   %al,%al
    a808:	48 8b 85 38 ee ff ff 	mov    -0x11c8(%rbp),%rax
    a80f:	0f bf d0             	movswl %ax,%edx
    a812:	48 8b 85 88 ef ff ff 	mov    -0x1078(%rbp),%rax
    a819:	8b 00                	mov    (%rax),%eax
    a81b:	98                   	cwtl   
    a81c:	89 d6                	mov    %edx,%esi
    a81e:	89 c7                	mov    %eax,%edi
    a820:	e8 8e ab ff ff       	callq  53b3 <safe_add_func_int16_t_s_s>
    a825:	44 0f be e0          	movsbl %al,%r12d
    a829:	48 8b 85 38 ee ff ff 	mov    -0x11c8(%rbp),%rax
    a830:	0f b6 c0             	movzbl %al,%eax
    a833:	be 05 00 00 00       	mov    $0x5,%esi
    a838:	89 c7                	mov    %eax,%edi
    a83a:	e8 7f b4 ff ff       	callq  5cbe <safe_rshift_func_uint8_t_u_u>
    a83f:	0f b6 d0             	movzbl %al,%edx
    a842:	48 8b 85 28 f0 ff ff 	mov    -0xfd8(%rbp),%rax
    a849:	0f b7 08             	movzwl (%rax),%ecx
    a84c:	48 83 bd 20 f0 ff ff 	cmpq   $0x0,-0xfe0(%rbp)
    a853:	00 
    a854:	0f 95 c0             	setne  %al
    a857:	0f b6 c0             	movzbl %al,%eax
    a85a:	31 c1                	xor    %eax,%ecx
    a85c:	48 8b 85 28 f0 ff ff 	mov    -0xfd8(%rbp),%rax
    a863:	66 89 08             	mov    %cx,(%rax)
    a866:	48 8b 85 28 f0 ff ff 	mov    -0xfd8(%rbp),%rax
    a86d:	0f b7 00             	movzwl (%rax),%eax
    a870:	98                   	cwtl   
    a871:	39 c2                	cmp    %eax,%edx
    a873:	0f 94 c0             	sete   %al
    a876:	0f b6 c0             	movzbl %al,%eax
    a879:	44 89 e6             	mov    %r12d,%esi
    a87c:	89 c7                	mov    %eax,%edi
    a87e:	e8 e7 a9 ff ff       	callq  526a <safe_div_func_int8_t_s_s>
    a883:	89 c2                	mov    %eax,%edx
    a885:	48 8b 85 38 ee ff ff 	mov    -0x11c8(%rbp),%rax
    a88c:	31 d0                	xor    %edx,%eax
    a88e:	44 31 e8             	xor    %r13d,%eax
    a891:	83 f0 5e             	xor    $0x5e,%eax
    a894:	0f b6 c0             	movzbl %al,%eax
    a897:	89 de                	mov    %ebx,%esi
    a899:	89 c7                	mov    %eax,%edi
    a89b:	e8 ba b2 ff ff       	callq  5b5a <safe_add_func_uint8_t_u_u>
    a8a0:	48 8b 95 38 ee ff ff 	mov    -0x11c8(%rbp),%rdx
    a8a7:	48 8b 85 c8 ef ff ff 	mov    -0x1038(%rbp),%rax
    a8ae:	8b 00                	mov    (%rax),%eax
    a8b0:	89 c1                	mov    %eax,%ecx
    a8b2:	89 d0                	mov    %edx,%eax
    a8b4:	09 c8                	or     %ecx,%eax
    a8b6:	89 c2                	mov    %eax,%edx
    a8b8:	48 8b 85 c8 ef ff ff 	mov    -0x1038(%rbp),%rax
    a8bf:	89 10                	mov    %edx,(%rax)
    a8c1:	e9 ec 0e 00 00       	jmpq   b7b2 <func_100+0x25b3>
    a8c6:	48 8d 85 54 ee ff ff 	lea    -0x11ac(%rbp),%rax
    a8cd:	48 89 85 d8 ef ff ff 	mov    %rax,-0x1028(%rbp)
    a8d4:	48 8d 85 48 ef ff ff 	lea    -0x10b8(%rbp),%rax
    a8db:	48 89 85 e0 ef ff ff 	mov    %rax,-0x1020(%rbp)
    a8e2:	c7 85 5c ee ff ff f1 	movl   $0xfffffff1,-0x11a4(%rbp)
    a8e9:	ff ff ff 
    a8ec:	e9 b4 0e 00 00       	jmpq   b7a5 <func_100+0x25a6>
    a8f1:	48 8d 85 30 ef ff ff 	lea    -0x10d0(%rbp),%rax
    a8f8:	48 89 85 50 ef ff ff 	mov    %rax,-0x10b0(%rbp)
    a8ff:	c7 85 ac ee ff ff 7c 	movl   $0xbf76f57c,-0x1154(%rbp)
    a906:	f5 76 bf 
    a909:	48 8d 85 48 ef ff ff 	lea    -0x10b8(%rbp),%rax
    a910:	48 89 85 58 ef ff ff 	mov    %rax,-0x10a8(%rbp)
    a917:	48 8d 85 58 ef ff ff 	lea    -0x10a8(%rbp),%rax
    a91e:	48 89 85 60 ef ff ff 	mov    %rax,-0x10a0(%rbp)
    a925:	48 8d 85 60 ef ff ff 	lea    -0x10a0(%rbp),%rax
    a92c:	48 89 85 a0 f1 ff ff 	mov    %rax,-0xe60(%rbp)
    a933:	48 8d 85 60 ef ff ff 	lea    -0x10a0(%rbp),%rax
    a93a:	48 89 85 a8 f1 ff ff 	mov    %rax,-0xe58(%rbp)
    a941:	48 8d 85 60 ef ff ff 	lea    -0x10a0(%rbp),%rax
    a948:	48 89 85 b0 f1 ff ff 	mov    %rax,-0xe50(%rbp)
    a94f:	48 8d 85 60 ef ff ff 	lea    -0x10a0(%rbp),%rax
    a956:	48 89 85 b8 f1 ff ff 	mov    %rax,-0xe48(%rbp)
    a95d:	48 8d 85 60 ef ff ff 	lea    -0x10a0(%rbp),%rax
    a964:	48 89 85 c0 f1 ff ff 	mov    %rax,-0xe40(%rbp)
    a96b:	48 8d 85 60 ef ff ff 	lea    -0x10a0(%rbp),%rax
    a972:	48 89 85 c8 f1 ff ff 	mov    %rax,-0xe38(%rbp)
    a979:	48 8d 85 60 ef ff ff 	lea    -0x10a0(%rbp),%rax
    a980:	48 89 85 d0 f1 ff ff 	mov    %rax,-0xe30(%rbp)
    a987:	48 8d 85 60 ef ff ff 	lea    -0x10a0(%rbp),%rax
    a98e:	48 89 85 d8 f1 ff ff 	mov    %rax,-0xe28(%rbp)
    a995:	48 8d 85 60 ef ff ff 	lea    -0x10a0(%rbp),%rax
    a99c:	48 89 85 e0 f1 ff ff 	mov    %rax,-0xe20(%rbp)
    a9a3:	48 8d 85 60 ef ff ff 	lea    -0x10a0(%rbp),%rax
    a9aa:	48 89 85 e8 f1 ff ff 	mov    %rax,-0xe18(%rbp)
    a9b1:	c7 05 28 c7 00 00 e5 	movl   $0xffffffe5,0xc728(%rip)        # 170e3 <g_241+0x3>
    a9b8:	ff ff ff 
    a9bb:	eb 50                	jmp    aa0d <func_100+0x180e>
    a9bd:	48 c7 85 68 ef ff ff 	movq   $0x0,-0x1098(%rbp)
    a9c4:	00 00 00 00 
    a9c8:	c7 85 60 ee ff ff 03 	movl   $0x3,-0x11a0(%rbp)
    a9cf:	00 00 00 
    a9d2:	eb 12                	jmp    a9e6 <func_100+0x17e7>
    a9d4:	48 c7 85 18 f0 ff ff 	movq   $0x0,-0xfe8(%rbp)
    a9db:	00 00 00 00 
    a9df:	83 ad 60 ee ff ff 01 	subl   $0x1,-0x11a0(%rbp)
    a9e6:	83 bd 60 ee ff ff 00 	cmpl   $0x0,-0x11a0(%rbp)
    a9ed:	79 e5                	jns    a9d4 <func_100+0x17d5>
    a9ef:	8b 05 ee c6 00 00    	mov    0xc6ee(%rip),%eax        # 170e3 <g_241+0x3>
    a9f5:	0f b6 c0             	movzbl %al,%eax
    a9f8:	be 08 00 00 00       	mov    $0x8,%esi
    a9fd:	89 c7                	mov    %eax,%edi
    a9ff:	e8 56 b1 ff ff       	callq  5b5a <safe_add_func_uint8_t_u_u>
    aa04:	0f b6 c0             	movzbl %al,%eax
    aa07:	89 05 d6 c6 00 00    	mov    %eax,0xc6d6(%rip)        # 170e3 <g_241+0x3>
    aa0d:	8b 05 d0 c6 00 00    	mov    0xc6d0(%rip),%eax        # 170e3 <g_241+0x3>
    aa13:	83 f8 1c             	cmp    $0x1c,%eax
    aa16:	74 a5                	je     a9bd <func_100+0x17be>
    aa18:	48 c7 85 d8 ef ff ff 	movq   $0x0,-0x1028(%rbp)
    aa1f:	00 00 00 00 
    aa23:	48 8b 85 c8 ef ff ff 	mov    -0x1038(%rbp),%rax
    aa2a:	c7 00 01 00 00 00    	movl   $0x1,(%rax)
    aa30:	48 8b 05 81 e1 00 00 	mov    0xe181(%rip),%rax        # 18bb8 <g_191>
    aa37:	48 8b 95 c8 ef ff ff 	mov    -0x1038(%rbp),%rdx
    aa3e:	8b 12                	mov    (%rdx),%edx
    aa40:	89 10                	mov    %edx,(%rax)
    aa42:	c6 05 6f c6 00 00 00 	movb   $0x0,0xc66f(%rip)        # 170b8 <g_178>
    aa49:	e9 2a 0d 00 00       	jmpq   b778 <func_100+0x2579>
    aa4e:	48 8d 05 bb c6 00 00 	lea    0xc6bb(%rip),%rax        # 17110 <g_394>
    aa55:	48 89 85 e8 ef ff ff 	mov    %rax,-0x1018(%rbp)
    aa5c:	48 8d 05 ae c6 00 00 	lea    0xc6ae(%rip),%rax        # 17111 <g_396>
    aa63:	48 89 85 f0 ef ff ff 	mov    %rax,-0x1010(%rbp)
    aa6a:	48 8d 85 50 ef ff ff 	lea    -0x10b0(%rbp),%rax
    aa71:	48 89 85 f8 ef ff ff 	mov    %rax,-0x1008(%rbp)
    aa78:	c7 85 b0 ee ff ff f6 	movl   $0xfffffff6,-0x1150(%rbp)
    aa7f:	ff ff ff 
    aa82:	48 8d 05 0b c6 00 00 	lea    0xc60b(%rip),%rax        # 17094 <g_122>
    aa89:	48 89 85 00 f1 ff ff 	mov    %rax,-0xf00(%rbp)
    aa90:	48 8d 05 fd c5 00 00 	lea    0xc5fd(%rip),%rax        # 17094 <g_122>
    aa97:	48 89 85 08 f1 ff ff 	mov    %rax,-0xef8(%rbp)
    aa9e:	48 8d 05 ef c5 00 00 	lea    0xc5ef(%rip),%rax        # 17094 <g_122>
    aaa5:	48 89 85 10 f1 ff ff 	mov    %rax,-0xef0(%rbp)
    aaac:	48 8d 05 e1 c5 00 00 	lea    0xc5e1(%rip),%rax        # 17094 <g_122>
    aab3:	48 89 85 18 f1 ff ff 	mov    %rax,-0xee8(%rbp)
    aaba:	48 c7 85 20 f1 ff ff 	movq   $0x0,-0xee0(%rbp)
    aac1:	00 00 00 00 
    aac5:	48 c7 85 28 f1 ff ff 	movq   $0x0,-0xed8(%rbp)
    aacc:	00 00 00 00 
    aad0:	48 8d 05 f1 c5 00 00 	lea    0xc5f1(%rip),%rax        # 170c8 <g_224>
    aad7:	48 89 85 30 f1 ff ff 	mov    %rax,-0xed0(%rbp)
    aade:	48 c7 85 38 f1 ff ff 	movq   $0x0,-0xec8(%rbp)
    aae5:	00 00 00 00 
    aae9:	48 c7 85 40 f1 ff ff 	movq   $0x0,-0xec0(%rbp)
    aaf0:	00 00 00 00 
    aaf4:	48 8d 05 cd c5 00 00 	lea    0xc5cd(%rip),%rax        # 170c8 <g_224>
    aafb:	48 89 85 48 f1 ff ff 	mov    %rax,-0xeb8(%rbp)
    ab02:	48 c7 85 00 f0 ff ff 	movq   $0x0,-0x1000(%rbp)
    ab09:	00 00 00 00 
    ab0d:	48 8d 85 40 ef ff ff 	lea    -0x10c0(%rbp),%rax
    ab14:	48 89 85 c0 fa ff ff 	mov    %rax,-0x540(%rbp)
    ab1b:	48 8d 85 48 ef ff ff 	lea    -0x10b8(%rbp),%rax
    ab22:	48 89 85 c8 fa ff ff 	mov    %rax,-0x538(%rbp)
    ab29:	48 8d 85 40 ef ff ff 	lea    -0x10c0(%rbp),%rax
    ab30:	48 89 85 d0 fa ff ff 	mov    %rax,-0x530(%rbp)
    ab37:	48 8d 85 48 ef ff ff 	lea    -0x10b8(%rbp),%rax
    ab3e:	48 89 85 d8 fa ff ff 	mov    %rax,-0x528(%rbp)
    ab45:	48 8d 85 48 ef ff ff 	lea    -0x10b8(%rbp),%rax
    ab4c:	48 89 85 e0 fa ff ff 	mov    %rax,-0x520(%rbp)
    ab53:	48 8d 85 48 ef ff ff 	lea    -0x10b8(%rbp),%rax
    ab5a:	48 89 85 e8 fa ff ff 	mov    %rax,-0x518(%rbp)
    ab61:	48 8d 05 90 e0 00 00 	lea    0xe090(%rip),%rax        # 18bf8 <g_346>
    ab68:	48 89 85 f0 fa ff ff 	mov    %rax,-0x510(%rbp)
    ab6f:	48 8d 05 82 e0 00 00 	lea    0xe082(%rip),%rax        # 18bf8 <g_346>
    ab76:	48 89 85 f8 fa ff ff 	mov    %rax,-0x508(%rbp)
    ab7d:	48 c7 85 00 fb ff ff 	movq   $0x0,-0x500(%rbp)
    ab84:	00 00 00 00 
    ab88:	48 8d 05 69 e0 00 00 	lea    0xe069(%rip),%rax        # 18bf8 <g_346>
    ab8f:	48 89 85 08 fb ff ff 	mov    %rax,-0x4f8(%rbp)
    ab96:	48 8d 85 48 ef ff ff 	lea    -0x10b8(%rbp),%rax
    ab9d:	48 89 85 10 fb ff ff 	mov    %rax,-0x4f0(%rbp)
    aba4:	48 8d 85 48 ef ff ff 	lea    -0x10b8(%rbp),%rax
    abab:	48 89 85 18 fb ff ff 	mov    %rax,-0x4e8(%rbp)
    abb2:	48 8d 85 48 ef ff ff 	lea    -0x10b8(%rbp),%rax
    abb9:	48 89 85 20 fb ff ff 	mov    %rax,-0x4e0(%rbp)
    abc0:	48 8d 85 40 ef ff ff 	lea    -0x10c0(%rbp),%rax
    abc7:	48 89 85 28 fb ff ff 	mov    %rax,-0x4d8(%rbp)
    abce:	48 8d 85 48 ef ff ff 	lea    -0x10b8(%rbp),%rax
    abd5:	48 89 85 30 fb ff ff 	mov    %rax,-0x4d0(%rbp)
    abdc:	48 8d 85 48 ef ff ff 	lea    -0x10b8(%rbp),%rax
    abe3:	48 89 85 38 fb ff ff 	mov    %rax,-0x4c8(%rbp)
    abea:	48 c7 85 40 fb ff ff 	movq   $0x0,-0x4c0(%rbp)
    abf1:	00 00 00 00 
    abf5:	48 8d 05 fc df 00 00 	lea    0xdffc(%rip),%rax        # 18bf8 <g_346>
    abfc:	48 89 85 48 fb ff ff 	mov    %rax,-0x4b8(%rbp)
    ac03:	48 8d 85 40 ef ff ff 	lea    -0x10c0(%rbp),%rax
    ac0a:	48 89 85 50 fb ff ff 	mov    %rax,-0x4b0(%rbp)
    ac11:	48 8d 85 48 ef ff ff 	lea    -0x10b8(%rbp),%rax
    ac18:	48 89 85 58 fb ff ff 	mov    %rax,-0x4a8(%rbp)
    ac1f:	48 8d 85 48 ef ff ff 	lea    -0x10b8(%rbp),%rax
    ac26:	48 89 85 60 fb ff ff 	mov    %rax,-0x4a0(%rbp)
    ac2d:	48 8d 85 48 ef ff ff 	lea    -0x10b8(%rbp),%rax
    ac34:	48 89 85 68 fb ff ff 	mov    %rax,-0x498(%rbp)
    ac3b:	48 8d 85 48 ef ff ff 	lea    -0x10b8(%rbp),%rax
    ac42:	48 89 85 70 fb ff ff 	mov    %rax,-0x490(%rbp)
    ac49:	48 8d 85 40 ef ff ff 	lea    -0x10c0(%rbp),%rax
    ac50:	48 89 85 78 fb ff ff 	mov    %rax,-0x488(%rbp)
    ac57:	48 8d 85 40 ef ff ff 	lea    -0x10c0(%rbp),%rax
    ac5e:	48 89 85 80 fb ff ff 	mov    %rax,-0x480(%rbp)
    ac65:	48 8d 85 40 ef ff ff 	lea    -0x10c0(%rbp),%rax
    ac6c:	48 89 85 88 fb ff ff 	mov    %rax,-0x478(%rbp)
    ac73:	48 8d 85 40 ef ff ff 	lea    -0x10c0(%rbp),%rax
    ac7a:	48 89 85 90 fb ff ff 	mov    %rax,-0x470(%rbp)
    ac81:	48 8d 85 48 ef ff ff 	lea    -0x10b8(%rbp),%rax
    ac88:	48 89 85 98 fb ff ff 	mov    %rax,-0x468(%rbp)
    ac8f:	48 8d 05 62 df 00 00 	lea    0xdf62(%rip),%rax        # 18bf8 <g_346>
    ac96:	48 89 85 a0 fb ff ff 	mov    %rax,-0x460(%rbp)
    ac9d:	48 8d 05 54 df 00 00 	lea    0xdf54(%rip),%rax        # 18bf8 <g_346>
    aca4:	48 89 85 a8 fb ff ff 	mov    %rax,-0x458(%rbp)
    acab:	48 8d 85 48 ef ff ff 	lea    -0x10b8(%rbp),%rax
    acb2:	48 89 85 b0 fb ff ff 	mov    %rax,-0x450(%rbp)
    acb9:	48 8d 85 40 ef ff ff 	lea    -0x10c0(%rbp),%rax
    acc0:	48 89 85 b8 fb ff ff 	mov    %rax,-0x448(%rbp)
    acc7:	48 8d 05 2a df 00 00 	lea    0xdf2a(%rip),%rax        # 18bf8 <g_346>
    acce:	48 89 85 c0 fb ff ff 	mov    %rax,-0x440(%rbp)
    acd5:	48 8d 85 48 ef ff ff 	lea    -0x10b8(%rbp),%rax
    acdc:	48 89 85 c8 fb ff ff 	mov    %rax,-0x438(%rbp)
    ace3:	48 8d 85 48 ef ff ff 	lea    -0x10b8(%rbp),%rax
    acea:	48 89 85 d0 fb ff ff 	mov    %rax,-0x430(%rbp)
    acf1:	48 8d 05 00 df 00 00 	lea    0xdf00(%rip),%rax        # 18bf8 <g_346>
    acf8:	48 89 85 d8 fb ff ff 	mov    %rax,-0x428(%rbp)
    acff:	48 8d 85 48 ef ff ff 	lea    -0x10b8(%rbp),%rax
    ad06:	48 89 85 e0 fb ff ff 	mov    %rax,-0x420(%rbp)
    ad0d:	48 8d 85 48 ef ff ff 	lea    -0x10b8(%rbp),%rax
    ad14:	48 89 85 e8 fb ff ff 	mov    %rax,-0x418(%rbp)
    ad1b:	48 8d 85 48 ef ff ff 	lea    -0x10b8(%rbp),%rax
    ad22:	48 89 85 f0 fb ff ff 	mov    %rax,-0x410(%rbp)
    ad29:	48 8d 85 40 ef ff ff 	lea    -0x10c0(%rbp),%rax
    ad30:	48 89 85 f8 fb ff ff 	mov    %rax,-0x408(%rbp)
    ad37:	48 8d 85 48 ef ff ff 	lea    -0x10b8(%rbp),%rax
    ad3e:	48 89 85 00 fc ff ff 	mov    %rax,-0x400(%rbp)
    ad45:	48 8d 85 40 ef ff ff 	lea    -0x10c0(%rbp),%rax
    ad4c:	48 89 85 08 fc ff ff 	mov    %rax,-0x3f8(%rbp)
    ad53:	48 8d 85 48 ef ff ff 	lea    -0x10b8(%rbp),%rax
    ad5a:	48 89 85 10 fc ff ff 	mov    %rax,-0x3f0(%rbp)
    ad61:	48 8d 85 48 ef ff ff 	lea    -0x10b8(%rbp),%rax
    ad68:	48 89 85 18 fc ff ff 	mov    %rax,-0x3e8(%rbp)
    ad6f:	48 c7 85 20 fc ff ff 	movq   $0x0,-0x3e0(%rbp)
    ad76:	00 00 00 00 
    ad7a:	48 8d 85 48 ef ff ff 	lea    -0x10b8(%rbp),%rax
    ad81:	48 89 85 28 fc ff ff 	mov    %rax,-0x3d8(%rbp)
    ad88:	48 8d 85 48 ef ff ff 	lea    -0x10b8(%rbp),%rax
    ad8f:	48 89 85 30 fc ff ff 	mov    %rax,-0x3d0(%rbp)
    ad96:	48 8d 85 40 ef ff ff 	lea    -0x10c0(%rbp),%rax
    ad9d:	48 89 85 38 fc ff ff 	mov    %rax,-0x3c8(%rbp)
    ada4:	48 8d 05 4d de 00 00 	lea    0xde4d(%rip),%rax        # 18bf8 <g_346>
    adab:	48 89 85 40 fc ff ff 	mov    %rax,-0x3c0(%rbp)
    adb2:	48 8d 85 40 ef ff ff 	lea    -0x10c0(%rbp),%rax
    adb9:	48 89 85 48 fc ff ff 	mov    %rax,-0x3b8(%rbp)
    adc0:	48 c7 85 50 fc ff ff 	movq   $0x0,-0x3b0(%rbp)
    adc7:	00 00 00 00 
    adcb:	48 8d 85 48 ef ff ff 	lea    -0x10b8(%rbp),%rax
    add2:	48 89 85 58 fc ff ff 	mov    %rax,-0x3a8(%rbp)
    add9:	48 8d 85 48 ef ff ff 	lea    -0x10b8(%rbp),%rax
    ade0:	48 89 85 60 fc ff ff 	mov    %rax,-0x3a0(%rbp)
    ade7:	48 8d 85 48 ef ff ff 	lea    -0x10b8(%rbp),%rax
    adee:	48 89 85 68 fc ff ff 	mov    %rax,-0x398(%rbp)
    adf5:	48 8d 85 40 ef ff ff 	lea    -0x10c0(%rbp),%rax
    adfc:	48 89 85 70 fc ff ff 	mov    %rax,-0x390(%rbp)
    ae03:	48 8d 85 48 ef ff ff 	lea    -0x10b8(%rbp),%rax
    ae0a:	48 89 85 78 fc ff ff 	mov    %rax,-0x388(%rbp)
    ae11:	48 8d 85 48 ef ff ff 	lea    -0x10b8(%rbp),%rax
    ae18:	48 89 85 80 fc ff ff 	mov    %rax,-0x380(%rbp)
    ae1f:	48 8d 85 48 ef ff ff 	lea    -0x10b8(%rbp),%rax
    ae26:	48 89 85 88 fc ff ff 	mov    %rax,-0x378(%rbp)
    ae2d:	48 8d 85 40 ef ff ff 	lea    -0x10c0(%rbp),%rax
    ae34:	48 89 85 90 fc ff ff 	mov    %rax,-0x370(%rbp)
    ae3b:	48 8d 85 48 ef ff ff 	lea    -0x10b8(%rbp),%rax
    ae42:	48 89 85 98 fc ff ff 	mov    %rax,-0x368(%rbp)
    ae49:	48 8d 05 a8 dd 00 00 	lea    0xdda8(%rip),%rax        # 18bf8 <g_346>
    ae50:	48 89 85 a0 fc ff ff 	mov    %rax,-0x360(%rbp)
    ae57:	48 c7 85 a8 fc ff ff 	movq   $0x0,-0x358(%rbp)
    ae5e:	00 00 00 00 
    ae62:	48 8d 85 40 ef ff ff 	lea    -0x10c0(%rbp),%rax
    ae69:	48 89 85 b0 fc ff ff 	mov    %rax,-0x350(%rbp)
    ae70:	48 8d 05 81 dd 00 00 	lea    0xdd81(%rip),%rax        # 18bf8 <g_346>
    ae77:	48 89 85 b8 fc ff ff 	mov    %rax,-0x348(%rbp)
    ae7e:	48 8d 85 48 ef ff ff 	lea    -0x10b8(%rbp),%rax
    ae85:	48 89 85 c0 fc ff ff 	mov    %rax,-0x340(%rbp)
    ae8c:	48 8d 85 48 ef ff ff 	lea    -0x10b8(%rbp),%rax
    ae93:	48 89 85 c8 fc ff ff 	mov    %rax,-0x338(%rbp)
    ae9a:	48 c7 85 d0 fc ff ff 	movq   $0x0,-0x330(%rbp)
    aea1:	00 00 00 00 
    aea5:	48 8d 85 48 ef ff ff 	lea    -0x10b8(%rbp),%rax
    aeac:	48 89 85 d8 fc ff ff 	mov    %rax,-0x328(%rbp)
    aeb3:	48 8d 05 3e dd 00 00 	lea    0xdd3e(%rip),%rax        # 18bf8 <g_346>
    aeba:	48 89 85 e0 fc ff ff 	mov    %rax,-0x320(%rbp)
    aec1:	48 8d 85 48 ef ff ff 	lea    -0x10b8(%rbp),%rax
    aec8:	48 89 85 e8 fc ff ff 	mov    %rax,-0x318(%rbp)
    aecf:	48 8d 85 48 ef ff ff 	lea    -0x10b8(%rbp),%rax
    aed6:	48 89 85 f0 fc ff ff 	mov    %rax,-0x310(%rbp)
    aedd:	48 8d 85 48 ef ff ff 	lea    -0x10b8(%rbp),%rax
    aee4:	48 89 85 f8 fc ff ff 	mov    %rax,-0x308(%rbp)
    aeeb:	48 8d 05 06 dd 00 00 	lea    0xdd06(%rip),%rax        # 18bf8 <g_346>
    aef2:	48 89 85 00 fd ff ff 	mov    %rax,-0x300(%rbp)
    aef9:	48 8d 85 48 ef ff ff 	lea    -0x10b8(%rbp),%rax
    af00:	48 89 85 08 fd ff ff 	mov    %rax,-0x2f8(%rbp)
    af07:	48 8d 85 48 ef ff ff 	lea    -0x10b8(%rbp),%rax
    af0e:	48 89 85 10 fd ff ff 	mov    %rax,-0x2f0(%rbp)
    af15:	48 8d 85 48 ef ff ff 	lea    -0x10b8(%rbp),%rax
    af1c:	48 89 85 18 fd ff ff 	mov    %rax,-0x2e8(%rbp)
    af23:	48 8d 85 48 ef ff ff 	lea    -0x10b8(%rbp),%rax
    af2a:	48 89 85 20 fd ff ff 	mov    %rax,-0x2e0(%rbp)
    af31:	48 8d 85 48 ef ff ff 	lea    -0x10b8(%rbp),%rax
    af38:	48 89 85 28 fd ff ff 	mov    %rax,-0x2d8(%rbp)
    af3f:	48 8d 05 b2 dc 00 00 	lea    0xdcb2(%rip),%rax        # 18bf8 <g_346>
    af46:	48 89 85 30 fd ff ff 	mov    %rax,-0x2d0(%rbp)
    af4d:	48 8d 85 48 ef ff ff 	lea    -0x10b8(%rbp),%rax
    af54:	48 89 85 38 fd ff ff 	mov    %rax,-0x2c8(%rbp)
    af5b:	48 8d 85 48 ef ff ff 	lea    -0x10b8(%rbp),%rax
    af62:	48 89 85 40 fd ff ff 	mov    %rax,-0x2c0(%rbp)
    af69:	48 8d 05 88 dc 00 00 	lea    0xdc88(%rip),%rax        # 18bf8 <g_346>
    af70:	48 89 85 48 fd ff ff 	mov    %rax,-0x2b8(%rbp)
    af77:	48 8d 85 40 ef ff ff 	lea    -0x10c0(%rbp),%rax
    af7e:	48 89 85 50 fd ff ff 	mov    %rax,-0x2b0(%rbp)
    af85:	48 8d 05 6c dc 00 00 	lea    0xdc6c(%rip),%rax        # 18bf8 <g_346>
    af8c:	48 89 85 58 fd ff ff 	mov    %rax,-0x2a8(%rbp)
    af93:	48 8d 85 48 ef ff ff 	lea    -0x10b8(%rbp),%rax
    af9a:	48 89 85 60 fd ff ff 	mov    %rax,-0x2a0(%rbp)
    afa1:	48 8d 85 48 ef ff ff 	lea    -0x10b8(%rbp),%rax
    afa8:	48 89 85 68 fd ff ff 	mov    %rax,-0x298(%rbp)
    afaf:	48 8d 05 42 dc 00 00 	lea    0xdc42(%rip),%rax        # 18bf8 <g_346>
    afb6:	48 89 85 70 fd ff ff 	mov    %rax,-0x290(%rbp)
    afbd:	48 8d 85 40 ef ff ff 	lea    -0x10c0(%rbp),%rax
    afc4:	48 89 85 78 fd ff ff 	mov    %rax,-0x288(%rbp)
    afcb:	48 8d 85 48 ef ff ff 	lea    -0x10b8(%rbp),%rax
    afd2:	48 89 85 80 fd ff ff 	mov    %rax,-0x280(%rbp)
    afd9:	48 8d 85 48 ef ff ff 	lea    -0x10b8(%rbp),%rax
    afe0:	48 89 85 88 fd ff ff 	mov    %rax,-0x278(%rbp)
    afe7:	48 8d 85 40 ef ff ff 	lea    -0x10c0(%rbp),%rax
    afee:	48 89 85 90 fd ff ff 	mov    %rax,-0x270(%rbp)
    aff5:	48 c7 85 98 fd ff ff 	movq   $0x0,-0x268(%rbp)
    affc:	00 00 00 00 
    b000:	48 8d 85 40 ef ff ff 	lea    -0x10c0(%rbp),%rax
    b007:	48 89 85 a0 fd ff ff 	mov    %rax,-0x260(%rbp)
    b00e:	48 8d 85 48 ef ff ff 	lea    -0x10b8(%rbp),%rax
    b015:	48 89 85 a8 fd ff ff 	mov    %rax,-0x258(%rbp)
    b01c:	48 8d 85 48 ef ff ff 	lea    -0x10b8(%rbp),%rax
    b023:	48 89 85 b0 fd ff ff 	mov    %rax,-0x250(%rbp)
    b02a:	48 8d 85 48 ef ff ff 	lea    -0x10b8(%rbp),%rax
    b031:	48 89 85 b8 fd ff ff 	mov    %rax,-0x248(%rbp)
    b038:	48 8d 85 40 ef ff ff 	lea    -0x10c0(%rbp),%rax
    b03f:	48 89 85 c0 fd ff ff 	mov    %rax,-0x240(%rbp)
    b046:	48 8d 85 48 ef ff ff 	lea    -0x10b8(%rbp),%rax
    b04d:	48 89 85 c8 fd ff ff 	mov    %rax,-0x238(%rbp)
    b054:	48 8d 85 48 ef ff ff 	lea    -0x10b8(%rbp),%rax
    b05b:	48 89 85 d0 fd ff ff 	mov    %rax,-0x230(%rbp)
    b062:	48 8d 85 48 ef ff ff 	lea    -0x10b8(%rbp),%rax
    b069:	48 89 85 d8 fd ff ff 	mov    %rax,-0x228(%rbp)
    b070:	48 8d 05 81 db 00 00 	lea    0xdb81(%rip),%rax        # 18bf8 <g_346>
    b077:	48 89 85 e0 fd ff ff 	mov    %rax,-0x220(%rbp)
    b07e:	48 8d 05 73 db 00 00 	lea    0xdb73(%rip),%rax        # 18bf8 <g_346>
    b085:	48 89 85 e8 fd ff ff 	mov    %rax,-0x218(%rbp)
    b08c:	48 8d 85 40 ef ff ff 	lea    -0x10c0(%rbp),%rax
    b093:	48 89 85 f0 fd ff ff 	mov    %rax,-0x210(%rbp)
    b09a:	48 8d 85 48 ef ff ff 	lea    -0x10b8(%rbp),%rax
    b0a1:	48 89 85 f8 fd ff ff 	mov    %rax,-0x208(%rbp)
    b0a8:	48 8d 85 40 ef ff ff 	lea    -0x10c0(%rbp),%rax
    b0af:	48 89 85 00 fe ff ff 	mov    %rax,-0x200(%rbp)
    b0b6:	48 8d 85 40 ef ff ff 	lea    -0x10c0(%rbp),%rax
    b0bd:	48 89 85 08 fe ff ff 	mov    %rax,-0x1f8(%rbp)
    b0c4:	48 8d 85 48 ef ff ff 	lea    -0x10b8(%rbp),%rax
    b0cb:	48 89 85 10 fe ff ff 	mov    %rax,-0x1f0(%rbp)
    b0d2:	48 8d 85 48 ef ff ff 	lea    -0x10b8(%rbp),%rax
    b0d9:	48 89 85 18 fe ff ff 	mov    %rax,-0x1e8(%rbp)
    b0e0:	48 8d 05 11 db 00 00 	lea    0xdb11(%rip),%rax        # 18bf8 <g_346>
    b0e7:	48 89 85 20 fe ff ff 	mov    %rax,-0x1e0(%rbp)
    b0ee:	48 8d 05 03 db 00 00 	lea    0xdb03(%rip),%rax        # 18bf8 <g_346>
    b0f5:	48 89 85 28 fe ff ff 	mov    %rax,-0x1d8(%rbp)
    b0fc:	48 c7 85 30 fe ff ff 	movq   $0x0,-0x1d0(%rbp)
    b103:	00 00 00 00 
    b107:	48 c7 85 38 fe ff ff 	movq   $0x0,-0x1c8(%rbp)
    b10e:	00 00 00 00 
    b112:	48 8d 85 40 ef ff ff 	lea    -0x10c0(%rbp),%rax
    b119:	48 89 85 40 fe ff ff 	mov    %rax,-0x1c0(%rbp)
    b120:	48 8d 85 40 ef ff ff 	lea    -0x10c0(%rbp),%rax
    b127:	48 89 85 48 fe ff ff 	mov    %rax,-0x1b8(%rbp)
    b12e:	48 8d 85 48 ef ff ff 	lea    -0x10b8(%rbp),%rax
    b135:	48 89 85 50 fe ff ff 	mov    %rax,-0x1b0(%rbp)
    b13c:	48 8d 85 48 ef ff ff 	lea    -0x10b8(%rbp),%rax
    b143:	48 89 85 58 fe ff ff 	mov    %rax,-0x1a8(%rbp)
    b14a:	48 8d 85 40 ef ff ff 	lea    -0x10c0(%rbp),%rax
    b151:	48 89 85 60 fe ff ff 	mov    %rax,-0x1a0(%rbp)
    b158:	48 8d 85 40 ef ff ff 	lea    -0x10c0(%rbp),%rax
    b15f:	48 89 85 68 fe ff ff 	mov    %rax,-0x198(%rbp)
    b166:	48 8d 85 48 ef ff ff 	lea    -0x10b8(%rbp),%rax
    b16d:	48 89 85 70 fe ff ff 	mov    %rax,-0x190(%rbp)
    b174:	48 8d 85 40 ef ff ff 	lea    -0x10c0(%rbp),%rax
    b17b:	48 89 85 78 fe ff ff 	mov    %rax,-0x188(%rbp)
    b182:	48 8d 85 48 ef ff ff 	lea    -0x10b8(%rbp),%rax
    b189:	48 89 85 80 fe ff ff 	mov    %rax,-0x180(%rbp)
    b190:	48 8d 85 48 ef ff ff 	lea    -0x10b8(%rbp),%rax
    b197:	48 89 85 88 fe ff ff 	mov    %rax,-0x178(%rbp)
    b19e:	48 8d 85 40 ef ff ff 	lea    -0x10c0(%rbp),%rax
    b1a5:	48 89 85 90 fe ff ff 	mov    %rax,-0x170(%rbp)
    b1ac:	48 8d 85 48 ef ff ff 	lea    -0x10b8(%rbp),%rax
    b1b3:	48 89 85 98 fe ff ff 	mov    %rax,-0x168(%rbp)
    b1ba:	48 8d 85 48 ef ff ff 	lea    -0x10b8(%rbp),%rax
    b1c1:	48 89 85 a0 fe ff ff 	mov    %rax,-0x160(%rbp)
    b1c8:	48 8d 85 48 ef ff ff 	lea    -0x10b8(%rbp),%rax
    b1cf:	48 89 85 a8 fe ff ff 	mov    %rax,-0x158(%rbp)
    b1d6:	48 8d 05 1b da 00 00 	lea    0xda1b(%rip),%rax        # 18bf8 <g_346>
    b1dd:	48 89 85 b0 fe ff ff 	mov    %rax,-0x150(%rbp)
    b1e4:	48 c7 85 b8 fe ff ff 	movq   $0x0,-0x148(%rbp)
    b1eb:	00 00 00 00 
    b1ef:	48 8d 85 48 ef ff ff 	lea    -0x10b8(%rbp),%rax
    b1f6:	48 89 85 c0 fe ff ff 	mov    %rax,-0x140(%rbp)
    b1fd:	48 8d 85 48 ef ff ff 	lea    -0x10b8(%rbp),%rax
    b204:	48 89 85 c8 fe ff ff 	mov    %rax,-0x138(%rbp)
    b20b:	48 8d 85 48 ef ff ff 	lea    -0x10b8(%rbp),%rax
    b212:	48 89 85 d0 fe ff ff 	mov    %rax,-0x130(%rbp)
    b219:	48 8d 85 48 ef ff ff 	lea    -0x10b8(%rbp),%rax
    b220:	48 89 85 d8 fe ff ff 	mov    %rax,-0x128(%rbp)
    b227:	48 8d 85 48 ef ff ff 	lea    -0x10b8(%rbp),%rax
    b22e:	48 89 85 e0 fe ff ff 	mov    %rax,-0x120(%rbp)
    b235:	48 8d 85 40 ef ff ff 	lea    -0x10c0(%rbp),%rax
    b23c:	48 89 85 e8 fe ff ff 	mov    %rax,-0x118(%rbp)
    b243:	48 8d 05 ae d9 00 00 	lea    0xd9ae(%rip),%rax        # 18bf8 <g_346>
    b24a:	48 89 85 f0 fe ff ff 	mov    %rax,-0x110(%rbp)
    b251:	48 8d 85 40 ef ff ff 	lea    -0x10c0(%rbp),%rax
    b258:	48 89 85 f8 fe ff ff 	mov    %rax,-0x108(%rbp)
    b25f:	48 8d 05 92 d9 00 00 	lea    0xd992(%rip),%rax        # 18bf8 <g_346>
    b266:	48 89 85 00 ff ff ff 	mov    %rax,-0x100(%rbp)
    b26d:	48 8d 85 48 ef ff ff 	lea    -0x10b8(%rbp),%rax
    b274:	48 89 85 08 ff ff ff 	mov    %rax,-0xf8(%rbp)
    b27b:	48 8d 05 76 d9 00 00 	lea    0xd976(%rip),%rax        # 18bf8 <g_346>
    b282:	48 89 85 10 ff ff ff 	mov    %rax,-0xf0(%rbp)
    b289:	48 8d 85 48 ef ff ff 	lea    -0x10b8(%rbp),%rax
    b290:	48 89 85 18 ff ff ff 	mov    %rax,-0xe8(%rbp)
    b297:	48 8d 05 5a d9 00 00 	lea    0xd95a(%rip),%rax        # 18bf8 <g_346>
    b29e:	48 89 85 20 ff ff ff 	mov    %rax,-0xe0(%rbp)
    b2a5:	48 8d 85 40 ef ff ff 	lea    -0x10c0(%rbp),%rax
    b2ac:	48 89 85 28 ff ff ff 	mov    %rax,-0xd8(%rbp)
    b2b3:	48 8d 85 48 ef ff ff 	lea    -0x10b8(%rbp),%rax
    b2ba:	48 89 85 30 ff ff ff 	mov    %rax,-0xd0(%rbp)
    b2c1:	48 c7 85 38 ff ff ff 	movq   $0x0,-0xc8(%rbp)
    b2c8:	00 00 00 00 
    b2cc:	48 8d 85 48 ef ff ff 	lea    -0x10b8(%rbp),%rax
    b2d3:	48 89 85 40 ff ff ff 	mov    %rax,-0xc0(%rbp)
    b2da:	48 8d 85 40 ef ff ff 	lea    -0x10c0(%rbp),%rax
    b2e1:	48 89 85 48 ff ff ff 	mov    %rax,-0xb8(%rbp)
    b2e8:	48 8d 85 48 ef ff ff 	lea    -0x10b8(%rbp),%rax
    b2ef:	48 89 85 50 ff ff ff 	mov    %rax,-0xb0(%rbp)
    b2f6:	48 8d 85 48 ef ff ff 	lea    -0x10b8(%rbp),%rax
    b2fd:	48 89 85 58 ff ff ff 	mov    %rax,-0xa8(%rbp)
    b304:	48 c7 85 60 ff ff ff 	movq   $0x0,-0xa0(%rbp)
    b30b:	00 00 00 00 
    b30f:	48 8d 85 48 ef ff ff 	lea    -0x10b8(%rbp),%rax
    b316:	48 89 85 68 ff ff ff 	mov    %rax,-0x98(%rbp)
    b31d:	48 8d 85 40 ef ff ff 	lea    -0x10c0(%rbp),%rax
    b324:	48 89 85 70 ff ff ff 	mov    %rax,-0x90(%rbp)
    b32b:	48 8d 85 48 ef ff ff 	lea    -0x10b8(%rbp),%rax
    b332:	48 89 85 78 ff ff ff 	mov    %rax,-0x88(%rbp)
    b339:	48 8d 05 b8 d8 00 00 	lea    0xd8b8(%rip),%rax        # 18bf8 <g_346>
    b340:	48 89 45 80          	mov    %rax,-0x80(%rbp)
    b344:	48 8d 85 48 ef ff ff 	lea    -0x10b8(%rbp),%rax
    b34b:	48 89 45 88          	mov    %rax,-0x78(%rbp)
    b34f:	48 8d 85 48 ef ff ff 	lea    -0x10b8(%rbp),%rax
    b356:	48 89 45 90          	mov    %rax,-0x70(%rbp)
    b35a:	48 8d 85 48 ef ff ff 	lea    -0x10b8(%rbp),%rax
    b361:	48 89 45 98          	mov    %rax,-0x68(%rbp)
    b365:	48 8d 85 48 ef ff ff 	lea    -0x10b8(%rbp),%rax
    b36c:	48 89 45 a0          	mov    %rax,-0x60(%rbp)
    b370:	48 8d 85 48 ef ff ff 	lea    -0x10b8(%rbp),%rax
    b377:	48 89 45 a8          	mov    %rax,-0x58(%rbp)
    b37b:	48 8d 85 48 ef ff ff 	lea    -0x10b8(%rbp),%rax
    b382:	48 89 45 b0          	mov    %rax,-0x50(%rbp)
    b386:	48 8d 85 48 ef ff ff 	lea    -0x10b8(%rbp),%rax
    b38d:	48 89 45 b8          	mov    %rax,-0x48(%rbp)
    b391:	48 8d 85 c0 fa ff ff 	lea    -0x540(%rbp),%rax
    b398:	48 05 70 03 00 00    	add    $0x370,%rax
    b39e:	48 89 85 08 f0 ff ff 	mov    %rax,-0xff8(%rbp)
    b3a5:	48 8b 85 40 ef ff ff 	mov    -0x10c0(%rbp),%rax
    b3ac:	48 c7 00 00 00 00 00 	movq   $0x0,(%rax)
    b3b3:	48 8b 85 38 ee ff ff 	mov    -0x11c8(%rbp),%rax
    b3ba:	0f bf d8             	movswl %ax,%ebx
    b3bd:	48 8b 05 44 d8 00 00 	mov    0xd844(%rip),%rax        # 18c08 <g_380>
    b3c4:	48 8b 00             	mov    (%rax),%rax
    b3c7:	0f b6 00             	movzbl (%rax),%eax
    b3ca:	44 0f be e0          	movsbl %al,%r12d
    b3ce:	48 8b 05 33 d8 00 00 	mov    0xd833(%rip),%rax        # 18c08 <g_380>
    b3d5:	48 8b 00             	mov    (%rax),%rax
    b3d8:	0f b6 10             	movzbl (%rax),%edx
    b3db:	48 8b 85 e8 ef ff ff 	mov    -0x1018(%rbp),%rax
    b3e2:	88 10                	mov    %dl,(%rax)
    b3e4:	48 8b 85 e8 ef ff ff 	mov    -0x1018(%rbp),%rax
    b3eb:	0f b6 10             	movzbl (%rax),%edx
    b3ee:	48 8b 85 f0 ef ff ff 	mov    -0x1010(%rbp),%rax
    b3f5:	88 10                	mov    %dl,(%rax)
    b3f7:	48 8b 85 f0 ef ff ff 	mov    -0x1010(%rbp),%rax
    b3fe:	0f b6 00             	movzbl (%rax),%eax
    b401:	44 0f be e8          	movsbl %al,%r13d
    b405:	48 8b 05 fc d7 00 00 	mov    0xd7fc(%rip),%rax        # 18c08 <g_380>
    b40c:	48 8b 00             	mov    (%rax),%rax
    b40f:	0f b6 00             	movzbl (%rax),%eax
    b412:	0f b6 d0             	movzbl %al,%edx
    b415:	48 8b 8d 50 ef ff ff 	mov    -0x10b0(%rbp),%rcx
    b41c:	48 8b 85 f8 ef ff ff 	mov    -0x1008(%rbp),%rax
    b423:	48 89 08             	mov    %rcx,(%rax)
    b426:	48 8b 85 f8 ef ff ff 	mov    -0x1008(%rbp),%rax
    b42d:	48 8b 00             	mov    (%rax),%rax
    b430:	48 85 c0             	test   %rax,%rax
    b433:	0f 95 c0             	setne  %al
    b436:	0f b6 c0             	movzbl %al,%eax
    b439:	89 d6                	mov    %edx,%esi
    b43b:	89 c7                	mov    %eax,%edi
    b43d:	e8 51 a7 ff ff       	callq  5b93 <safe_mul_func_uint8_t_u_u>
    b442:	0f b6 c0             	movzbl %al,%eax
    b445:	0b 85 b0 ee ff ff    	or     -0x1150(%rbp),%eax
    b44b:	85 c0                	test   %eax,%eax
    b44d:	75 23                	jne    b472 <func_100+0x2273>
    b44f:	48 8b 85 18 f1 ff ff 	mov    -0xee8(%rbp),%rax
    b456:	48 85 c0             	test   %rax,%rax
    b459:	0f 95 c0             	setne  %al
    b45c:	0f b6 c0             	movzbl %al,%eax
    b45f:	be 07 00 00 00       	mov    $0x7,%esi
    b464:	89 c7                	mov    %eax,%edi
    b466:	e8 53 a8 ff ff       	callq  5cbe <safe_rshift_func_uint8_t_u_u>
    b46b:	83 bd b0 ee ff ff 00 	cmpl   $0x0,-0x1150(%rbp)
    b472:	48 8b 85 88 ef ff ff 	mov    -0x1078(%rbp),%rax
    b479:	c7 00 00 00 00 00    	movl   $0x0,(%rax)
    b47f:	48 8b 85 88 ef ff ff 	mov    -0x1078(%rbp),%rax
    b486:	8b 00                	mov    (%rax),%eax
    b488:	48 63 d0             	movslq %eax,%rdx
    b48b:	48 8b 85 38 ee ff ff 	mov    -0x11c8(%rbp),%rax
    b492:	48 31 d0             	xor    %rdx,%rax
    b495:	48 83 f8 01          	cmp    $0x1,%rax
    b499:	0f 96 c0             	setbe  %al
    b49c:	0f b6 c0             	movzbl %al,%eax
    b49f:	41 39 c5             	cmp    %eax,%r13d
    b4a2:	0f 9c c0             	setl   %al
    b4a5:	0f b6 d0             	movzbl %al,%edx
    b4a8:	48 8b 85 70 ef ff ff 	mov    -0x1090(%rbp),%rax
    b4af:	48 89 10             	mov    %rdx,(%rax)
    b4b2:	48 8b 85 88 ef ff ff 	mov    -0x1078(%rbp),%rax
    b4b9:	8b 00                	mov    (%rax),%eax
    b4bb:	85 c0                	test   %eax,%eax
    b4bd:	0f b6 85 34 ee ff ff 	movzbl -0x11cc(%rbp),%eax
    b4c4:	0f be c0             	movsbl %al,%eax
    b4c7:	44 89 e6             	mov    %r12d,%esi
    b4ca:	89 c7                	mov    %eax,%edi
    b4cc:	e8 41 9d ff ff       	callq  5212 <safe_mul_func_int8_t_s_s>
    b4d1:	0f be c0             	movsbl %al,%eax
    b4d4:	89 de                	mov    %ebx,%esi
    b4d6:	89 c7                	mov    %eax,%edi
    b4d8:	e8 18 9f ff ff       	callq  53f5 <safe_mul_func_int16_t_s_s>
    b4dd:	0f bf d0             	movswl %ax,%edx
    b4e0:	0f b6 85 34 ee ff ff 	movzbl -0x11cc(%rbp),%eax
    b4e7:	0f b6 c0             	movzbl %al,%eax
    b4ea:	89 d6                	mov    %edx,%esi
    b4ec:	89 c7                	mov    %eax,%edi
    b4ee:	e8 c5 a9 ff ff       	callq  5eb8 <safe_add_func_uint32_t_u_u>
    b4f3:	85 c0                	test   %eax,%eax
    b4f5:	0f 84 a9 01 00 00    	je     b6a4 <func_100+0x24a5>
    b4fb:	c7 85 b4 ee ff ff 00 	movl   $0x0,-0x114c(%rbp)
    b502:	00 00 00 
    b505:	c7 85 b8 ee ff ff ff 	movl   $0xffffffff,-0x1148(%rbp)
    b50c:	ff ff ff 
    b50f:	0f b7 05 cb bb 00 00 	movzwl 0xbbcb(%rip),%eax        # 170e1 <g_241+0x1>
    b516:	f7 d0                	not    %eax
    b518:	0f b7 d0             	movzwl %ax,%edx
    b51b:	8b 85 ac ee ff ff    	mov    -0x1154(%rbp),%eax
    b521:	0f b7 c0             	movzwl %ax,%eax
    b524:	89 d6                	mov    %edx,%esi
    b526:	89 c7                	mov    %eax,%edi
    b528:	e8 10 a8 ff ff       	callq  5d3d <safe_mul_func_uint16_t_u_u>
    b52d:	48 8b 95 c8 ef ff ff 	mov    -0x1038(%rbp),%rdx
    b534:	8b 12                	mov    (%rdx),%edx
    b536:	0f b7 c0             	movzwl %ax,%eax
    b539:	31 c2                	xor    %eax,%edx
    b53b:	48 8b 85 c8 ef ff ff 	mov    -0x1038(%rbp),%rax
    b542:	89 10                	mov    %edx,(%rax)
    b544:	8b 05 99 bb 00 00    	mov    0xbb99(%rip),%eax        # 170e3 <g_241+0x3>
    b54a:	0f be d8             	movsbl %al,%ebx
    b54d:	8b 05 3d bb 00 00    	mov    0xbb3d(%rip),%eax        # 17090 <g_118>
    b553:	0f b7 c0             	movzwl %ax,%eax
    b556:	be 01 00 00 00       	mov    $0x1,%esi
    b55b:	89 c7                	mov    %eax,%edi
    b55d:	e8 db a7 ff ff       	callq  5d3d <safe_mul_func_uint16_t_u_u>
    b562:	83 bd b0 ee ff ff 00 	cmpl   $0x0,-0x1150(%rbp)
    b569:	0f 95 c0             	setne  %al
    b56c:	0f b6 c0             	movzbl %al,%eax
    b56f:	39 85 b4 ee ff ff    	cmp    %eax,-0x114c(%rbp)
    b575:	0f 94 c0             	sete   %al
    b578:	0f b6 c0             	movzbl %al,%eax
    b57b:	39 85 b0 ee ff ff    	cmp    %eax,-0x1150(%rbp)
    b581:	0f 95 c0             	setne  %al
    b584:	0f b6 c0             	movzbl %al,%eax
    b587:	be 86 ff ff ff       	mov    $0xffffff86,%esi
    b58c:	89 c7                	mov    %eax,%edi
    b58e:	e8 7f 9c ff ff       	callq  5212 <safe_mul_func_int8_t_s_s>
    b593:	89 c2                	mov    %eax,%edx
    b595:	0f b6 05 53 bb 00 00 	movzbl 0xbb53(%rip),%eax        # 170ef <g_241+0xf>
    b59c:	c1 e0 06             	shl    $0x6,%eax
    b59f:	c0 f8 06             	sar    $0x6,%al
    b5a2:	38 c2                	cmp    %al,%dl
    b5a4:	0f 94 c0             	sete   %al
    b5a7:	0f b6 c0             	movzbl %al,%eax
    b5aa:	48 8b 95 38 ee ff ff 	mov    -0x11c8(%rbp),%rdx
    b5b1:	31 d0                	xor    %edx,%eax
    b5b3:	89 c6                	mov    %eax,%esi
    b5b5:	bf f7 ff ff ff       	mov    $0xfffffff7,%edi
    b5ba:	e8 40 a1 ff ff       	callq  56ff <safe_div_func_int32_t_s_s>
    b5bf:	83 f8 04             	cmp    $0x4,%eax
    b5c2:	0f 94 c0             	sete   %al
    b5c5:	0f b6 c0             	movzbl %al,%eax
    b5c8:	89 de                	mov    %ebx,%esi
    b5ca:	89 c7                	mov    %eax,%edi
    b5cc:	e8 99 9c ff ff       	callq  526a <safe_div_func_int8_t_s_s>
    b5d1:	c7 85 b8 ee ff ff 26 	movl   $0x203ce926,-0x1148(%rbp)
    b5d8:	e9 3c 20 
    b5db:	48 83 bd d0 ef ff ff 	cmpq   $0x0,-0x1030(%rbp)
    b5e2:	00 
    b5e3:	0f 94 c0             	sete   %al
    b5e6:	0f b6 d0             	movzbl %al,%edx
    b5e9:	0f b6 85 34 ee ff ff 	movzbl -0x11cc(%rbp),%eax
    b5f0:	0f b6 c0             	movzbl %al,%eax
    b5f3:	21 d0                	and    %edx,%eax
    b5f5:	85 c0                	test   %eax,%eax
    b5f7:	74 10                	je     b609 <func_100+0x240a>
    b5f9:	83 bd b4 ee ff ff 00 	cmpl   $0x0,-0x114c(%rbp)
    b600:	74 07                	je     b609 <func_100+0x240a>
    b602:	b8 01 00 00 00       	mov    $0x1,%eax
    b607:	eb 05                	jmp    b60e <func_100+0x240f>
    b609:	b8 00 00 00 00       	mov    $0x0,%eax
    b60e:	0f b6 c0             	movzbl %al,%eax
    b611:	be 02 00 00 00       	mov    $0x2,%esi
    b616:	89 c7                	mov    %eax,%edi
    b618:	e8 2f a6 ff ff       	callq  5c4c <safe_lshift_func_uint8_t_u_u>
    b61d:	8b 85 b8 ee ff ff    	mov    -0x1148(%rbp),%eax
    b623:	0f be c0             	movsbl %al,%eax
    b626:	be 1a 00 00 00       	mov    $0x1a,%esi
    b62b:	89 c7                	mov    %eax,%edi
    b62d:	e8 38 9c ff ff       	callq  526a <safe_div_func_int8_t_s_s>
    b632:	66 98                	cbtw   
    b634:	0f b7 c0             	movzwl %ax,%eax
    b637:	be 0a 00 00 00       	mov    $0xa,%esi
    b63c:	89 c7                	mov    %eax,%edi
    b63e:	e8 37 a8 ff ff       	callq  5e7a <safe_rshift_func_uint16_t_u_u>
    b643:	0f b7 d0             	movzwl %ax,%edx
    b646:	48 8b 85 88 ef ff ff 	mov    -0x1078(%rbp),%rax
    b64d:	89 10                	mov    %edx,(%rax)
    b64f:	48 8b 85 88 ef ff ff 	mov    -0x1078(%rbp),%rax
    b656:	8b 00                	mov    (%rax),%eax
    b658:	89 85 b8 ee ff ff    	mov    %eax,-0x1148(%rbp)
    b65e:	48 8b 95 58 ef ff ff 	mov    -0x10a8(%rbp),%rdx
    b665:	48 8b 85 08 f0 ff ff 	mov    -0xff8(%rbp),%rax
    b66c:	48 89 10             	mov    %rdx,(%rax)
    b66f:	48 8b 85 08 f0 ff ff 	mov    -0xff8(%rbp),%rax
    b676:	48 8b 00             	mov    (%rax),%rax
    b679:	48 89 85 e0 ef ff ff 	mov    %rax,-0x1020(%rbp)
    b680:	48 8b 85 58 ef ff ff 	mov    -0x10a8(%rbp),%rax
    b687:	48 39 85 e0 ef ff ff 	cmp    %rax,-0x1020(%rbp)
    b68e:	0f 94 c0             	sete   %al
    b691:	0f b6 d0             	movzbl %al,%edx
    b694:	0f b6 85 34 ee ff ff 	movzbl -0x11cc(%rbp),%eax
    b69b:	0f b6 c0             	movzbl %al,%eax
    b69e:	39 c2                	cmp    %eax,%edx
    b6a0:	7c 29                	jl     b6cb <func_100+0x24cc>
    b6a2:	eb 0c                	jmp    b6b0 <func_100+0x24b1>
    b6a4:	48 8b 85 38 ee ff ff 	mov    -0x11c8(%rbp),%rax
    b6ab:	e9 95 05 00 00       	jmpq   bc45 <func_100+0x2a46>
    b6b0:	48 c7 85 10 f0 ff ff 	movq   $0x0,-0xff0(%rbp)
    b6b7:	00 00 00 00 
    b6bb:	48 8b 85 10 f0 ff ff 	mov    -0xff0(%rbp),%rax
    b6c2:	48 89 85 d8 f1 ff ff 	mov    %rax,-0xe28(%rbp)
    b6c9:	eb 2f                	jmp    b6fa <func_100+0x24fb>
    b6cb:	c7 85 bc ee ff ff d5 	movl   $0x2d1336d5,-0x1144(%rbp)
    b6d2:	36 13 2d 
    b6d5:	48 8b 85 38 ee ff ff 	mov    -0x11c8(%rbp),%rax
    b6dc:	48 85 c0             	test   %rax,%rax
    b6df:	0f 85 a4 00 00 00    	jne    b789 <func_100+0x258a>
    b6e5:	83 85 bc ee ff ff 01 	addl   $0x1,-0x1144(%rbp)
    b6ec:	48 8b 85 40 ef ff ff 	mov    -0x10c0(%rbp),%rax
    b6f3:	48 c7 00 00 00 00 00 	movq   $0x0,(%rax)
    b6fa:	0f b6 05 b7 b9 00 00 	movzbl 0xb9b7(%rip),%eax        # 170b8 <g_178>
    b701:	0f be d8             	movsbl %al,%ebx
    b704:	48 8b 85 38 ee ff ff 	mov    -0x11c8(%rbp),%rax
    b70b:	89 c6                	mov    %eax,%esi
    b70d:	bf 00 00 00 00       	mov    $0x0,%edi
    b712:	e8 a7 a5 ff ff       	callq  5cbe <safe_rshift_func_uint8_t_u_u>
    b717:	0f b6 c0             	movzbl %al,%eax
    b71a:	89 de                	mov    %ebx,%esi
    b71c:	89 c7                	mov    %eax,%edi
    b71e:	e8 b0 9c ff ff       	callq  53d3 <safe_sub_func_int16_t_s_s>
    b723:	48 0f bf d0          	movswq %ax,%rdx
    b727:	48 8b 85 38 ee ff ff 	mov    -0x11c8(%rbp),%rax
    b72e:	48 39 c2             	cmp    %rax,%rdx
    b731:	0f 94 c0             	sete   %al
    b734:	0f b6 c0             	movzbl %al,%eax
    b737:	89 c6                	mov    %eax,%esi
    b739:	bf 84 ff ff ff       	mov    $0xffffff84,%edi
    b73e:	e8 cf 9a ff ff       	callq  5212 <safe_mul_func_int8_t_s_s>
    b743:	b9 00 00 00 00       	mov    $0x0,%ecx
    b748:	48 8b 05 69 d4 00 00 	mov    0xd469(%rip),%rax        # 18bb8 <g_191>
    b74f:	8b 10                	mov    (%rax),%edx
    b751:	48 8b 05 60 d4 00 00 	mov    0xd460(%rip),%rax        # 18bb8 <g_191>
    b758:	09 ca                	or     %ecx,%edx
    b75a:	89 10                	mov    %edx,(%rax)
    b75c:	0f b6 05 55 b9 00 00 	movzbl 0xb955(%rip),%eax        # 170b8 <g_178>
    b763:	0f be c0             	movsbl %al,%eax
    b766:	be 09 00 00 00       	mov    $0x9,%esi
    b76b:	89 c7                	mov    %eax,%edi
    b76d:	e8 62 9a ff ff       	callq  51d4 <safe_add_func_int8_t_s_s>
    b772:	88 05 40 b9 00 00    	mov    %al,0xb940(%rip)        # 170b8 <g_178>
    b778:	0f b6 05 39 b9 00 00 	movzbl 0xb939(%rip),%eax        # 170b8 <g_178>
    b77f:	3c 14                	cmp    $0x14,%al
    b781:	0f 8e c7 f2 ff ff    	jle    aa4e <func_100+0x184f>
    b787:	eb 01                	jmp    b78a <func_100+0x258b>
    b789:	90                   	nop
    b78a:	8b 85 5c ee ff ff    	mov    -0x11a4(%rbp),%eax
    b790:	48 98                	cltq   
    b792:	be 01 00 00 00       	mov    $0x1,%esi
    b797:	48 89 c7             	mov    %rax,%rdi
    b79a:	e8 ac a8 ff ff       	callq  604b <safe_sub_func_uint64_t_u_u>
    b79f:	89 85 5c ee ff ff    	mov    %eax,-0x11a4(%rbp)
    b7a5:	83 bd 5c ee ff ff ec 	cmpl   $0xffffffec,-0x11a4(%rbp)
    b7ac:	0f 8d 3f f1 ff ff    	jge    a8f1 <func_100+0x16f2>
    b7b2:	48 c7 05 c3 b8 00 00 	movq   $0x0,0xb8c3(%rip)        # 17080 <g_107>
    b7b9:	00 00 00 00 
    b7bd:	e9 68 04 00 00       	jmpq   bc2a <func_100+0x2a2b>
    b7c2:	48 8d 85 28 ef ff ff 	lea    -0x10d8(%rbp),%rax
    b7c9:	48 89 85 38 f0 ff ff 	mov    %rax,-0xfc8(%rbp)
    b7d0:	48 8d 05 09 e0 00 00 	lea    0xe009(%rip),%rax        # 197e0 <g_529>
    b7d7:	48 89 85 40 f0 ff ff 	mov    %rax,-0xfc0(%rbp)
    b7de:	48 8d 05 b3 d4 00 00 	lea    0xd4b3(%rip),%rax        # 18c98 <g_533+0x18>
    b7e5:	48 89 85 58 ef ff ff 	mov    %rax,-0x10a8(%rbp)
    b7ec:	48 8d 85 58 ef ff ff 	lea    -0x10a8(%rbp),%rax
    b7f3:	48 89 85 60 ef ff ff 	mov    %rax,-0x10a0(%rbp)
    b7fa:	48 8d 85 60 ef ff ff 	lea    -0x10a0(%rbp),%rax
    b801:	48 89 85 48 f0 ff ff 	mov    %rax,-0xfb8(%rbp)
    b808:	48 8d 85 60 ef ff ff 	lea    -0x10a0(%rbp),%rax
    b80f:	48 89 85 c0 fa ff ff 	mov    %rax,-0x540(%rbp)
    b816:	48 8d 85 60 ef ff ff 	lea    -0x10a0(%rbp),%rax
    b81d:	48 89 85 c8 fa ff ff 	mov    %rax,-0x538(%rbp)
    b824:	48 8d 85 60 ef ff ff 	lea    -0x10a0(%rbp),%rax
    b82b:	48 89 85 d0 fa ff ff 	mov    %rax,-0x530(%rbp)
    b832:	48 8d 85 60 ef ff ff 	lea    -0x10a0(%rbp),%rax
    b839:	48 89 85 d8 fa ff ff 	mov    %rax,-0x528(%rbp)
    b840:	48 8d 85 60 ef ff ff 	lea    -0x10a0(%rbp),%rax
    b847:	48 89 85 e0 fa ff ff 	mov    %rax,-0x520(%rbp)
    b84e:	48 8d 85 60 ef ff ff 	lea    -0x10a0(%rbp),%rax
    b855:	48 89 85 e8 fa ff ff 	mov    %rax,-0x518(%rbp)
    b85c:	48 8d 85 60 ef ff ff 	lea    -0x10a0(%rbp),%rax
    b863:	48 89 85 f0 fa ff ff 	mov    %rax,-0x510(%rbp)
    b86a:	48 8d 85 60 ef ff ff 	lea    -0x10a0(%rbp),%rax
    b871:	48 89 85 f8 fa ff ff 	mov    %rax,-0x508(%rbp)
    b878:	48 8d 85 60 ef ff ff 	lea    -0x10a0(%rbp),%rax
    b87f:	48 89 85 00 fb ff ff 	mov    %rax,-0x500(%rbp)
    b886:	48 8d 85 60 ef ff ff 	lea    -0x10a0(%rbp),%rax
    b88d:	48 89 85 08 fb ff ff 	mov    %rax,-0x4f8(%rbp)
    b894:	48 8d 85 60 ef ff ff 	lea    -0x10a0(%rbp),%rax
    b89b:	48 89 85 10 fb ff ff 	mov    %rax,-0x4f0(%rbp)
    b8a2:	48 8d 85 60 ef ff ff 	lea    -0x10a0(%rbp),%rax
    b8a9:	48 89 85 18 fb ff ff 	mov    %rax,-0x4e8(%rbp)
    b8b0:	48 8d 85 60 ef ff ff 	lea    -0x10a0(%rbp),%rax
    b8b7:	48 89 85 20 fb ff ff 	mov    %rax,-0x4e0(%rbp)
    b8be:	48 8d 85 60 ef ff ff 	lea    -0x10a0(%rbp),%rax
    b8c5:	48 89 85 28 fb ff ff 	mov    %rax,-0x4d8(%rbp)
    b8cc:	48 8d 85 60 ef ff ff 	lea    -0x10a0(%rbp),%rax
    b8d3:	48 89 85 30 fb ff ff 	mov    %rax,-0x4d0(%rbp)
    b8da:	48 8d 85 60 ef ff ff 	lea    -0x10a0(%rbp),%rax
    b8e1:	48 89 85 38 fb ff ff 	mov    %rax,-0x4c8(%rbp)
    b8e8:	48 8d 85 60 ef ff ff 	lea    -0x10a0(%rbp),%rax
    b8ef:	48 89 85 40 fb ff ff 	mov    %rax,-0x4c0(%rbp)
    b8f6:	48 8d 85 60 ef ff ff 	lea    -0x10a0(%rbp),%rax
    b8fd:	48 89 85 48 fb ff ff 	mov    %rax,-0x4b8(%rbp)
    b904:	48 8d 85 60 ef ff ff 	lea    -0x10a0(%rbp),%rax
    b90b:	48 89 85 50 fb ff ff 	mov    %rax,-0x4b0(%rbp)
    b912:	48 8d 85 60 ef ff ff 	lea    -0x10a0(%rbp),%rax
    b919:	48 89 85 58 fb ff ff 	mov    %rax,-0x4a8(%rbp)
    b920:	48 8d 85 60 ef ff ff 	lea    -0x10a0(%rbp),%rax
    b927:	48 89 85 60 fb ff ff 	mov    %rax,-0x4a0(%rbp)
    b92e:	48 8d 85 60 ef ff ff 	lea    -0x10a0(%rbp),%rax
    b935:	48 89 85 68 fb ff ff 	mov    %rax,-0x498(%rbp)
    b93c:	48 8d 85 60 ef ff ff 	lea    -0x10a0(%rbp),%rax
    b943:	48 89 85 70 fb ff ff 	mov    %rax,-0x490(%rbp)
    b94a:	48 8d 85 60 ef ff ff 	lea    -0x10a0(%rbp),%rax
    b951:	48 89 85 78 fb ff ff 	mov    %rax,-0x488(%rbp)
    b958:	48 8d 85 60 ef ff ff 	lea    -0x10a0(%rbp),%rax
    b95f:	48 89 85 80 fb ff ff 	mov    %rax,-0x480(%rbp)
    b966:	48 8d 85 60 ef ff ff 	lea    -0x10a0(%rbp),%rax
    b96d:	48 89 85 88 fb ff ff 	mov    %rax,-0x478(%rbp)
    b974:	48 8d 85 60 ef ff ff 	lea    -0x10a0(%rbp),%rax
    b97b:	48 89 85 90 fb ff ff 	mov    %rax,-0x470(%rbp)
    b982:	48 8d 85 60 ef ff ff 	lea    -0x10a0(%rbp),%rax
    b989:	48 89 85 98 fb ff ff 	mov    %rax,-0x468(%rbp)
    b990:	48 8d 85 60 ef ff ff 	lea    -0x10a0(%rbp),%rax
    b997:	48 89 85 a0 fb ff ff 	mov    %rax,-0x460(%rbp)
    b99e:	48 8d 85 60 ef ff ff 	lea    -0x10a0(%rbp),%rax
    b9a5:	48 89 85 a8 fb ff ff 	mov    %rax,-0x458(%rbp)
    b9ac:	48 8d 85 60 ef ff ff 	lea    -0x10a0(%rbp),%rax
    b9b3:	48 89 85 b0 fb ff ff 	mov    %rax,-0x450(%rbp)
    b9ba:	48 8d 85 60 ef ff ff 	lea    -0x10a0(%rbp),%rax
    b9c1:	48 89 85 b8 fb ff ff 	mov    %rax,-0x448(%rbp)
    b9c8:	48 8d 85 60 ef ff ff 	lea    -0x10a0(%rbp),%rax
    b9cf:	48 89 85 c0 fb ff ff 	mov    %rax,-0x440(%rbp)
    b9d6:	48 8d 85 60 ef ff ff 	lea    -0x10a0(%rbp),%rax
    b9dd:	48 89 85 c8 fb ff ff 	mov    %rax,-0x438(%rbp)
    b9e4:	48 8d 85 60 ef ff ff 	lea    -0x10a0(%rbp),%rax
    b9eb:	48 89 85 d0 fb ff ff 	mov    %rax,-0x430(%rbp)
    b9f2:	48 8d 85 60 ef ff ff 	lea    -0x10a0(%rbp),%rax
    b9f9:	48 89 85 d8 fb ff ff 	mov    %rax,-0x428(%rbp)
    ba00:	48 8d 85 60 ef ff ff 	lea    -0x10a0(%rbp),%rax
    ba07:	48 89 85 e0 fb ff ff 	mov    %rax,-0x420(%rbp)
    ba0e:	48 8d 85 60 ef ff ff 	lea    -0x10a0(%rbp),%rax
    ba15:	48 89 85 e8 fb ff ff 	mov    %rax,-0x418(%rbp)
    ba1c:	48 8d 85 60 ef ff ff 	lea    -0x10a0(%rbp),%rax
    ba23:	48 89 85 f0 fb ff ff 	mov    %rax,-0x410(%rbp)
    ba2a:	48 8d 85 60 ef ff ff 	lea    -0x10a0(%rbp),%rax
    ba31:	48 89 85 f8 fb ff ff 	mov    %rax,-0x408(%rbp)
    ba38:	48 8d 85 60 ef ff ff 	lea    -0x10a0(%rbp),%rax
    ba3f:	48 89 85 00 fc ff ff 	mov    %rax,-0x400(%rbp)
    ba46:	48 8d 85 60 ef ff ff 	lea    -0x10a0(%rbp),%rax
    ba4d:	48 89 85 08 fc ff ff 	mov    %rax,-0x3f8(%rbp)
    ba54:	48 8d 85 60 ef ff ff 	lea    -0x10a0(%rbp),%rax
    ba5b:	48 89 85 10 fc ff ff 	mov    %rax,-0x3f0(%rbp)
    ba62:	48 8d 85 60 ef ff ff 	lea    -0x10a0(%rbp),%rax
    ba69:	48 89 85 18 fc ff ff 	mov    %rax,-0x3e8(%rbp)
    ba70:	48 8d 85 60 ef ff ff 	lea    -0x10a0(%rbp),%rax
    ba77:	48 89 85 20 fc ff ff 	mov    %rax,-0x3e0(%rbp)
    ba7e:	48 8d 85 60 ef ff ff 	lea    -0x10a0(%rbp),%rax
    ba85:	48 89 85 28 fc ff ff 	mov    %rax,-0x3d8(%rbp)
    ba8c:	48 8d 85 60 ef ff ff 	lea    -0x10a0(%rbp),%rax
    ba93:	48 89 85 30 fc ff ff 	mov    %rax,-0x3d0(%rbp)
    ba9a:	48 8d 85 60 ef ff ff 	lea    -0x10a0(%rbp),%rax
    baa1:	48 89 85 38 fc ff ff 	mov    %rax,-0x3c8(%rbp)
    baa8:	48 8d 05 91 b6 00 00 	lea    0xb691(%rip),%rax        # 17140 <g_565>
    baaf:	48 89 85 50 f0 ff ff 	mov    %rax,-0xfb0(%rbp)
    bab6:	48 b8 ce 15 f0 73 37 	movabs $0x7fdce63773f015ce,%rax
    babd:	e6 dc 7f 
    bac0:	48 89 85 58 f0 ff ff 	mov    %rax,-0xfa8(%rbp)
    bac7:	66 c7 85 00 f1 ff ff 	movw   $0xfff7,-0xf00(%rbp)
    bace:	f7 ff 
    bad0:	66 c7 85 02 f1 ff ff 	movw   $0xfff7,-0xefe(%rbp)
    bad7:	f7 ff 
    bad9:	66 c7 85 04 f1 ff ff 	movw   $0xfff7,-0xefc(%rbp)
    bae0:	f7 ff 
    bae2:	66 c7 85 06 f1 ff ff 	movw   $0xfff7,-0xefa(%rbp)
    bae9:	f7 ff 
    baeb:	66 c7 85 08 f1 ff ff 	movw   $0xfff7,-0xef8(%rbp)
    baf2:	f7 ff 
    baf4:	66 c7 85 0a f1 ff ff 	movw   $0xfff7,-0xef6(%rbp)
    bafb:	f7 ff 
    bafd:	66 c7 85 0c f1 ff ff 	movw   $0xfff7,-0xef4(%rbp)
    bb04:	f7 ff 
    bb06:	c7 85 c4 ee ff ff f6 	movl   $0xfffffff6,-0x113c(%rbp)
    bb0d:	ff ff ff 
    bb10:	48 c7 85 60 f0 ff ff 	movq   $0x0,-0xfa0(%rbp)
    bb17:	00 00 00 00 
    bb1b:	48 8d 85 00 f1 ff ff 	lea    -0xf00(%rbp),%rax
    bb22:	48 83 c0 02          	add    $0x2,%rax
    bb26:	48 89 85 20 f1 ff ff 	mov    %rax,-0xee0(%rbp)
    bb2d:	48 8d 05 94 b5 00 00 	lea    0xb594(%rip),%rax        # 170c8 <g_224>
    bb34:	48 89 85 28 f1 ff ff 	mov    %rax,-0xed8(%rbp)
    bb3b:	48 8d 85 00 f1 ff ff 	lea    -0xf00(%rbp),%rax
    bb42:	48 83 c0 02          	add    $0x2,%rax
    bb46:	48 89 85 30 f1 ff ff 	mov    %rax,-0xed0(%rbp)
    bb4d:	48 8d 85 00 f1 ff ff 	lea    -0xf00(%rbp),%rax
    bb54:	48 83 c0 02          	add    $0x2,%rax
    bb58:	48 89 85 38 f1 ff ff 	mov    %rax,-0xec8(%rbp)
    bb5f:	48 8d 05 62 b5 00 00 	lea    0xb562(%rip),%rax        # 170c8 <g_224>
    bb66:	48 89 85 40 f1 ff ff 	mov    %rax,-0xec0(%rbp)
    bb6d:	48 8d 85 00 f1 ff ff 	lea    -0xf00(%rbp),%rax
    bb74:	48 83 c0 02          	add    $0x2,%rax
    bb78:	48 89 85 48 f1 ff ff 	mov    %rax,-0xeb8(%rbp)
    bb7f:	48 8d 05 5d b5 00 00 	lea    0xb55d(%rip),%rax        # 170e3 <g_241+0x3>
    bb86:	48 89 85 68 f0 ff ff 	mov    %rax,-0xf98(%rbp)
    bb8d:	c7 85 c8 ee ff ff 00 	movl   $0x0,-0x1138(%rbp)
    bb94:	00 00 00 
    bb97:	c7 85 cc ee ff ff 7f 	movl   $0x7314407f,-0x1134(%rbp)
    bb9e:	40 14 73 
    bba1:	48 8d 05 88 d0 00 00 	lea    0xd088(%rip),%rax        # 18c30 <g_472>
    bba8:	48 89 85 70 f0 ff ff 	mov    %rax,-0xf90(%rbp)
    bbaf:	c6 85 42 ee ff ff fb 	movb   $0xfb,-0x11be(%rbp)
    bbb6:	c7 85 6c ee ff ff 00 	movl   $0x0,-0x1194(%rbp)
    bbbd:	00 00 00 
    bbc0:	eb 4d                	jmp    bc0f <func_100+0x2a10>
    bbc2:	c7 85 70 ee ff ff 00 	movl   $0x0,-0x1190(%rbp)
    bbc9:	00 00 00 
    bbcc:	eb 31                	jmp    bbff <func_100+0x2a00>
    bbce:	8b 85 70 ee ff ff    	mov    -0x1190(%rbp),%eax
    bbd4:	48 63 c8             	movslq %eax,%rcx
    bbd7:	8b 85 6c ee ff ff    	mov    -0x1194(%rbp),%eax
    bbdd:	48 63 d0             	movslq %eax,%rdx
    bbe0:	48 89 d0             	mov    %rdx,%rax
    bbe3:	48 c1 e0 02          	shl    $0x2,%rax
    bbe7:	48 01 d0             	add    %rdx,%rax
    bbea:	48 01 c8             	add    %rcx,%rax
    bbed:	c7 84 85 a0 f1 ff ff 	movl   $0x4,-0xe60(%rbp,%rax,4)
    bbf4:	04 00 00 00 
    bbf8:	83 85 70 ee ff ff 01 	addl   $0x1,-0x1190(%rbp)
    bbff:	83 bd 70 ee ff ff 04 	cmpl   $0x4,-0x1190(%rbp)
    bc06:	7e c6                	jle    bbce <func_100+0x29cf>
    bc08:	83 85 6c ee ff ff 01 	addl   $0x1,-0x1194(%rbp)
    bc0f:	83 bd 6c ee ff ff 02 	cmpl   $0x2,-0x1194(%rbp)
    bc16:	7e aa                	jle    bbc2 <func_100+0x29c3>
    bc18:	48 8b 05 61 b4 00 00 	mov    0xb461(%rip),%rax        # 17080 <g_107>
    bc1f:	48 83 c0 01          	add    $0x1,%rax
    bc23:	48 89 05 56 b4 00 00 	mov    %rax,0xb456(%rip)        # 17080 <g_107>
    bc2a:	48 8b 05 4f b4 00 00 	mov    0xb44f(%rip),%rax        # 17080 <g_107>
    bc31:	48 83 f8 03          	cmp    $0x3,%rax
    bc35:	0f 86 87 fb ff ff    	jbe    b7c2 <func_100+0x25c3>
    bc3b:	0f b6 85 34 ee ff ff 	movzbl -0x11cc(%rbp),%eax
    bc42:	0f b6 c0             	movzbl %al,%eax
    bc45:	48 8b 5d c8          	mov    -0x38(%rbp),%rbx
    bc49:	64 48 33 1c 25 28 00 	xor    %fs:0x28,%rbx
    bc50:	00 00 
    bc52:	74 05                	je     bc59 <func_100+0x2a5a>
    bc54:	e8 17 94 ff ff       	callq  5070 <__stack_chk_fail@plt>
    bc59:	48 81 c4 a8 11 00 00 	add    $0x11a8,%rsp
    bc60:	5b                   	pop    %rbx
    bc61:	41 5c                	pop    %r12
    bc63:	41 5d                	pop    %r13
    bc65:	41 5e                	pop    %r14
    bc67:	41 5f                	pop    %r15
    bc69:	5d                   	pop    %rbp
    bc6a:	c3                   	retq   

000000000000bc6b <main>:
    bc6b:	f3 0f 1e fa          	endbr64 
    bc6f:	55                   	push   %rbp
    bc70:	48 89 e5             	mov    %rsp,%rbp
    bc73:	48 83 ec 20          	sub    $0x20,%rsp
    bc77:	89 7d ec             	mov    %edi,-0x14(%rbp)
    bc7a:	48 89 75 e0          	mov    %rsi,-0x20(%rbp)
    bc7e:	c7 45 fc 00 00 00 00 	movl   $0x0,-0x4(%rbp)
    bc85:	83 7d ec 02          	cmpl   $0x2,-0x14(%rbp)
    bc89:	75 25                	jne    bcb0 <main+0x45>
    bc8b:	48 8b 45 e0          	mov    -0x20(%rbp),%rax
    bc8f:	48 83 c0 08          	add    $0x8,%rax
    bc93:	48 8b 00             	mov    (%rax),%rax
    bc96:	48 8d 35 f7 76 00 00 	lea    0x76f7(%rip),%rsi        # 13394 <g_1312+0x9b4>
    bc9d:	48 89 c7             	mov    %rax,%rdi
    bca0:	e8 eb 93 ff ff       	callq  5090 <strcmp@plt>
    bca5:	85 c0                	test   %eax,%eax
    bca7:	75 07                	jne    bcb0 <main+0x45>
    bca9:	c7 45 fc 01 00 00 00 	movl   $0x1,-0x4(%rbp)
    bcb0:	e8 d4 94 ff ff       	callq  5189 <platform_main_begin>
    bcb5:	e8 de a8 ff ff       	callq  6598 <crc32_gentab>
    bcba:	e8 f6 aa ff ff       	callq  67b5 <func_1>
    bcbf:	b8 a0 ff ff ff       	mov    $0xffffffa0,%eax
    bcc4:	0f b6 c0             	movzbl %al,%eax
    bcc7:	8b 55 fc             	mov    -0x4(%rbp),%edx
    bcca:	48 8d 35 c5 76 00 00 	lea    0x76c5(%rip),%rsi        # 13396 <g_1312+0x9b6>
    bcd1:	48 89 c7             	mov    %rax,%rdi
    bcd4:	e8 1a aa ff ff       	callq  66f3 <transparent_crc>
    bcd9:	c7 45 f0 00 00 00 00 	movl   $0x0,-0x10(%rbp)
    bce0:	eb 6c                	jmp    bd4e <main+0xe3>
    bce2:	c7 45 f4 00 00 00 00 	movl   $0x0,-0xc(%rbp)
    bce9:	eb 59                	jmp    bd44 <main+0xd9>
    bceb:	8b 45 f4             	mov    -0xc(%rbp),%eax
    bcee:	48 98                	cltq   
    bcf0:	8b 55 f0             	mov    -0x10(%rbp),%edx
    bcf3:	48 63 d2             	movslq %edx,%rdx
    bcf6:	48 01 d2             	add    %rdx,%rdx
    bcf9:	48 01 d0             	add    %rdx,%rax
    bcfc:	48 8d 14 c5 00 00 00 	lea    0x0(,%rax,8),%rdx
    bd03:	00 
    bd04:	48 8d 05 35 b3 00 00 	lea    0xb335(%rip),%rax        # 17040 <g_14>
    bd0b:	48 8b 04 02          	mov    (%rdx,%rax,1),%rax
    bd0f:	8b 55 fc             	mov    -0x4(%rbp),%edx
    bd12:	48 8d 35 81 76 00 00 	lea    0x7681(%rip),%rsi        # 1339a <g_1312+0x9ba>
    bd19:	48 89 c7             	mov    %rax,%rdi
    bd1c:	e8 d2 a9 ff ff       	callq  66f3 <transparent_crc>
    bd21:	83 7d fc 00          	cmpl   $0x0,-0x4(%rbp)
    bd25:	74 19                	je     bd40 <main+0xd5>
    bd27:	8b 55 f4             	mov    -0xc(%rbp),%edx
    bd2a:	8b 45 f0             	mov    -0x10(%rbp),%eax
    bd2d:	89 c6                	mov    %eax,%esi
    bd2f:	48 8d 3d 6f 76 00 00 	lea    0x766f(%rip),%rdi        # 133a5 <g_1312+0x9c5>
    bd36:	b8 00 00 00 00       	mov    $0x0,%eax
    bd3b:	e8 40 93 ff ff       	callq  5080 <printf@plt>
    bd40:	83 45 f4 01          	addl   $0x1,-0xc(%rbp)
    bd44:	83 7d f4 01          	cmpl   $0x1,-0xc(%rbp)
    bd48:	7e a1                	jle    bceb <main+0x80>
    bd4a:	83 45 f0 01          	addl   $0x1,-0x10(%rbp)
    bd4e:	83 7d f0 02          	cmpl   $0x2,-0x10(%rbp)
    bd52:	7e 8e                	jle    bce2 <main+0x77>
    bd54:	48 8b 05 15 b3 00 00 	mov    0xb315(%rip),%rax        # 17070 <g_33>
    bd5b:	48 89 c1             	mov    %rax,%rcx
    bd5e:	8b 45 fc             	mov    -0x4(%rbp),%eax
    bd61:	89 c2                	mov    %eax,%edx
    bd63:	48 8d 35 4d 76 00 00 	lea    0x764d(%rip),%rsi        # 133b7 <g_1312+0x9d7>
    bd6a:	48 89 cf             	mov    %rcx,%rdi
    bd6d:	e8 81 a9 ff ff       	callq  66f3 <transparent_crc>
    bd72:	8b 05 00 b3 00 00    	mov    0xb300(%rip),%eax        # 17078 <g_43>
    bd78:	48 98                	cltq   
    bd7a:	8b 55 fc             	mov    -0x4(%rbp),%edx
    bd7d:	48 8d 35 38 76 00 00 	lea    0x7638(%rip),%rsi        # 133bc <g_1312+0x9dc>
    bd84:	48 89 c7             	mov    %rax,%rdi
    bd87:	e8 67 a9 ff ff       	callq  66f3 <transparent_crc>
    bd8c:	8b 05 ea b2 00 00    	mov    0xb2ea(%rip),%eax        # 1707c <g_85>
    bd92:	48 98                	cltq   
    bd94:	8b 55 fc             	mov    -0x4(%rbp),%edx
    bd97:	48 8d 35 23 76 00 00 	lea    0x7623(%rip),%rsi        # 133c1 <g_1312+0x9e1>
    bd9e:	48 89 c7             	mov    %rax,%rdi
    bda1:	e8 4d a9 ff ff       	callq  66f3 <transparent_crc>
    bda6:	0f b6 05 fb d9 00 00 	movzbl 0xd9fb(%rip),%eax        # 197a8 <g_97>
    bdad:	0f b6 c0             	movzbl %al,%eax
    bdb0:	8b 55 fc             	mov    -0x4(%rbp),%edx
    bdb3:	48 8d 35 0c 76 00 00 	lea    0x760c(%rip),%rsi        # 133c6 <g_1312+0x9e6>
    bdba:	48 89 c7             	mov    %rax,%rdi
    bdbd:	e8 31 a9 ff ff       	callq  66f3 <transparent_crc>
    bdc2:	48 8b 05 b7 b2 00 00 	mov    0xb2b7(%rip),%rax        # 17080 <g_107>
    bdc9:	8b 55 fc             	mov    -0x4(%rbp),%edx
    bdcc:	48 8d 35 f8 75 00 00 	lea    0x75f8(%rip),%rsi        # 133cb <g_1312+0x9eb>
    bdd3:	48 89 c7             	mov    %rax,%rdi
    bdd6:	e8 18 a9 ff ff       	callq  66f3 <transparent_crc>
    bddb:	48 8b 05 a6 b2 00 00 	mov    0xb2a6(%rip),%rax        # 17088 <g_115>
    bde2:	48 89 c1             	mov    %rax,%rcx
    bde5:	8b 45 fc             	mov    -0x4(%rbp),%eax
    bde8:	89 c2                	mov    %eax,%edx
    bdea:	48 8d 35 e0 75 00 00 	lea    0x75e0(%rip),%rsi        # 133d1 <g_1312+0x9f1>
    bdf1:	48 89 cf             	mov    %rcx,%rdi
    bdf4:	e8 fa a8 ff ff       	callq  66f3 <transparent_crc>
    bdf9:	8b 05 91 b2 00 00    	mov    0xb291(%rip),%eax        # 17090 <g_118>
    bdff:	89 c1                	mov    %eax,%ecx
    be01:	8b 45 fc             	mov    -0x4(%rbp),%eax
    be04:	89 c2                	mov    %eax,%edx
    be06:	48 8d 35 ca 75 00 00 	lea    0x75ca(%rip),%rsi        # 133d7 <g_1312+0x9f7>
    be0d:	48 89 cf             	mov    %rcx,%rdi
    be10:	e8 de a8 ff ff       	callq  66f3 <transparent_crc>
    be15:	8b 05 91 d9 00 00    	mov    0xd991(%rip),%eax        # 197ac <g_120>
    be1b:	48 98                	cltq   
    be1d:	8b 55 fc             	mov    -0x4(%rbp),%edx
    be20:	48 8d 35 b6 75 00 00 	lea    0x75b6(%rip),%rsi        # 133dd <g_1312+0x9fd>
    be27:	48 89 c7             	mov    %rax,%rdi
    be2a:	e8 c4 a8 ff ff       	callq  66f3 <transparent_crc>
    be2f:	0f b7 05 5e b2 00 00 	movzwl 0xb25e(%rip),%eax        # 17094 <g_122>
    be36:	0f b7 c0             	movzwl %ax,%eax
    be39:	8b 55 fc             	mov    -0x4(%rbp),%edx
    be3c:	48 8d 35 a0 75 00 00 	lea    0x75a0(%rip),%rsi        # 133e3 <g_1312+0xa03>
    be43:	48 89 c7             	mov    %rax,%rdi
    be46:	e8 a8 a8 ff ff       	callq  66f3 <transparent_crc>
    be4b:	c7 45 f0 00 00 00 00 	movl   $0x0,-0x10(%rbp)
    be52:	eb 49                	jmp    be9d <main+0x232>
    be54:	8b 45 f0             	mov    -0x10(%rbp),%eax
    be57:	48 98                	cltq   
    be59:	48 8d 14 00          	lea    (%rax,%rax,1),%rdx
    be5d:	48 8d 05 34 b2 00 00 	lea    0xb234(%rip),%rax        # 17098 <g_124>
    be64:	0f b7 04 02          	movzwl (%rdx,%rax,1),%eax
    be68:	0f b7 c0             	movzwl %ax,%eax
    be6b:	8b 55 fc             	mov    -0x4(%rbp),%edx
    be6e:	48 8d 35 74 75 00 00 	lea    0x7574(%rip),%rsi        # 133e9 <g_1312+0xa09>
    be75:	48 89 c7             	mov    %rax,%rdi
    be78:	e8 76 a8 ff ff       	callq  66f3 <transparent_crc>
    be7d:	83 7d fc 00          	cmpl   $0x0,-0x4(%rbp)
    be81:	74 16                	je     be99 <main+0x22e>
    be83:	8b 45 f0             	mov    -0x10(%rbp),%eax
    be86:	89 c6                	mov    %eax,%esi
    be88:	48 8d 3d 63 75 00 00 	lea    0x7563(%rip),%rdi        # 133f2 <g_1312+0xa12>
    be8f:	b8 00 00 00 00       	mov    $0x0,%eax
    be94:	e8 e7 91 ff ff       	callq  5080 <printf@plt>
    be99:	83 45 f0 01          	addl   $0x1,-0x10(%rbp)
    be9d:	83 7d f0 04          	cmpl   $0x4,-0x10(%rbp)
    bea1:	7e b1                	jle    be54 <main+0x1e9>
    bea3:	48 8b 05 06 d9 00 00 	mov    0xd906(%rip),%rax        # 197b0 <g_126>
    beaa:	8b 55 fc             	mov    -0x4(%rbp),%edx
    bead:	48 8d 35 4c 75 00 00 	lea    0x754c(%rip),%rsi        # 13400 <g_1312+0xa20>
    beb4:	48 89 c7             	mov    %rax,%rdi
    beb7:	e8 37 a8 ff ff       	callq  66f3 <transparent_crc>
    bebc:	8b 05 e2 b1 00 00    	mov    0xb1e2(%rip),%eax        # 170a4 <g_146>
    bec2:	89 c1                	mov    %eax,%ecx
    bec4:	8b 45 fc             	mov    -0x4(%rbp),%eax
    bec7:	89 c2                	mov    %eax,%edx
    bec9:	48 8d 35 36 75 00 00 	lea    0x7536(%rip),%rsi        # 13406 <g_1312+0xa26>
    bed0:	48 89 cf             	mov    %rcx,%rdi
    bed3:	e8 1b a8 ff ff       	callq  66f3 <transparent_crc>
    bed8:	0f b6 05 c9 b1 00 00 	movzbl 0xb1c9(%rip),%eax        # 170a8 <g_175>
    bedf:	0f b6 c0             	movzbl %al,%eax
    bee2:	8b 55 fc             	mov    -0x4(%rbp),%edx
    bee5:	48 8d 35 20 75 00 00 	lea    0x7520(%rip),%rsi        # 1340c <g_1312+0xa2c>
    beec:	48 89 c7             	mov    %rax,%rdi
    beef:	e8 ff a7 ff ff       	callq  66f3 <transparent_crc>
    bef4:	48 8b 05 b5 b1 00 00 	mov    0xb1b5(%rip),%rax        # 170b0 <g_177>
    befb:	8b 55 fc             	mov    -0x4(%rbp),%edx
    befe:	48 8d 35 0d 75 00 00 	lea    0x750d(%rip),%rsi        # 13412 <g_1312+0xa32>
    bf05:	48 89 c7             	mov    %rax,%rdi
    bf08:	e8 e6 a7 ff ff       	callq  66f3 <transparent_crc>
    bf0d:	0f b6 05 a4 b1 00 00 	movzbl 0xb1a4(%rip),%eax        # 170b8 <g_178>
    bf14:	48 0f be c0          	movsbq %al,%rax
    bf18:	8b 55 fc             	mov    -0x4(%rbp),%edx
    bf1b:	48 8d 35 f6 74 00 00 	lea    0x74f6(%rip),%rsi        # 13418 <g_1312+0xa38>
    bf22:	48 89 c7             	mov    %rax,%rdi
    bf25:	e8 c9 a7 ff ff       	callq  66f3 <transparent_crc>
    bf2a:	48 8b 05 8f b1 00 00 	mov    0xb18f(%rip),%rax        # 170c0 <g_195>
    bf31:	8b 55 fc             	mov    -0x4(%rbp),%edx
    bf34:	48 8d 35 e3 74 00 00 	lea    0x74e3(%rip),%rsi        # 1341e <g_1312+0xa3e>
    bf3b:	48 89 c7             	mov    %rax,%rdi
    bf3e:	e8 b0 a7 ff ff       	callq  66f3 <transparent_crc>
    bf43:	0f b7 05 7e b1 00 00 	movzwl 0xb17e(%rip),%eax        # 170c8 <g_224>
    bf4a:	48 0f bf c0          	movswq %ax,%rax
    bf4e:	8b 55 fc             	mov    -0x4(%rbp),%edx
    bf51:	48 8d 35 cc 74 00 00 	lea    0x74cc(%rip),%rsi        # 13424 <g_1312+0xa44>
    bf58:	48 89 c7             	mov    %rax,%rdi
    bf5b:	e8 93 a7 ff ff       	callq  66f3 <transparent_crc>
    bf60:	48 8b 05 69 b1 00 00 	mov    0xb169(%rip),%rax        # 170d0 <g_226>
    bf67:	8b 55 fc             	mov    -0x4(%rbp),%edx
    bf6a:	48 8d 35 b9 74 00 00 	lea    0x74b9(%rip),%rsi        # 1342a <g_1312+0xa4a>
    bf71:	48 89 c7             	mov    %rax,%rdi
    bf74:	e8 7a a7 ff ff       	callq  66f3 <transparent_crc>
    bf79:	0f b6 05 60 b1 00 00 	movzbl 0xb160(%rip),%eax        # 170e0 <g_241>
    bf80:	0f b6 c0             	movzbl %al,%eax
    bf83:	8b 55 fc             	mov    -0x4(%rbp),%edx
    bf86:	48 8d 35 a3 74 00 00 	lea    0x74a3(%rip),%rsi        # 13430 <g_1312+0xa50>
    bf8d:	48 89 c7             	mov    %rax,%rdi
    bf90:	e8 5e a7 ff ff       	callq  66f3 <transparent_crc>
    bf95:	0f b7 05 45 b1 00 00 	movzwl 0xb145(%rip),%eax        # 170e1 <g_241+0x1>
    bf9c:	0f b7 c0             	movzwl %ax,%eax
    bf9f:	8b 55 fc             	mov    -0x4(%rbp),%edx
    bfa2:	48 8d 35 90 74 00 00 	lea    0x7490(%rip),%rsi        # 13439 <g_1312+0xa59>
    bfa9:	48 89 c7             	mov    %rax,%rdi
    bfac:	e8 42 a7 ff ff       	callq  66f3 <transparent_crc>
    bfb1:	8b 05 2c b1 00 00    	mov    0xb12c(%rip),%eax        # 170e3 <g_241+0x3>
    bfb7:	89 c1                	mov    %eax,%ecx
    bfb9:	8b 45 fc             	mov    -0x4(%rbp),%eax
    bfbc:	89 c2                	mov    %eax,%edx
    bfbe:	48 8d 35 7d 74 00 00 	lea    0x747d(%rip),%rsi        # 13442 <g_1312+0xa62>
    bfc5:	48 89 cf             	mov    %rcx,%rdi
    bfc8:	e8 26 a7 ff ff       	callq  66f3 <transparent_crc>
    bfcd:	48 8b 05 13 b1 00 00 	mov    0xb113(%rip),%rax        # 170e7 <g_241+0x7>
    bfd4:	8b 55 fc             	mov    -0x4(%rbp),%edx
    bfd7:	48 8d 35 6d 74 00 00 	lea    0x746d(%rip),%rsi        # 1344b <g_1312+0xa6b>
    bfde:	48 89 c7             	mov    %rax,%rdi
    bfe1:	e8 0d a7 ff ff       	callq  66f3 <transparent_crc>
    bfe6:	0f b6 05 02 b1 00 00 	movzbl 0xb102(%rip),%eax        # 170ef <g_241+0xf>
    bfed:	c1 e0 06             	shl    $0x6,%eax
    bff0:	c0 f8 06             	sar    $0x6,%al
    bff3:	48 0f be c0          	movsbq %al,%rax
    bff7:	8b 55 fc             	mov    -0x4(%rbp),%edx
    bffa:	48 8d 35 53 74 00 00 	lea    0x7453(%rip),%rsi        # 13454 <g_1312+0xa74>
    c001:	48 89 c7             	mov    %rax,%rdi
    c004:	e8 ea a6 ff ff       	callq  66f3 <transparent_crc>
    c009:	0f b6 05 e0 b0 00 00 	movzbl 0xb0e0(%rip),%eax        # 170f0 <g_241+0x10>
    c010:	48 0f be c0          	movsbq %al,%rax
    c014:	8b 55 fc             	mov    -0x4(%rbp),%edx
    c017:	48 8d 35 3f 74 00 00 	lea    0x743f(%rip),%rsi        # 1345d <g_1312+0xa7d>
    c01e:	48 89 c7             	mov    %rax,%rdi
    c021:	e8 cd a6 ff ff       	callq  66f3 <transparent_crc>
    c026:	0f b6 05 c4 b0 00 00 	movzbl 0xb0c4(%rip),%eax        # 170f1 <g_241+0x11>
    c02d:	48 0f be c0          	movsbq %al,%rax
    c031:	8b 55 fc             	mov    -0x4(%rbp),%edx
    c034:	48 8d 35 2b 74 00 00 	lea    0x742b(%rip),%rsi        # 13466 <g_1312+0xa86>
    c03b:	48 89 c7             	mov    %rax,%rdi
    c03e:	e8 b0 a6 ff ff       	callq  66f3 <transparent_crc>
    c043:	48 8b 05 a8 b0 00 00 	mov    0xb0a8(%rip),%rax        # 170f2 <g_241+0x12>
    c04a:	8b 55 fc             	mov    -0x4(%rbp),%edx
    c04d:	48 8d 35 1b 74 00 00 	lea    0x741b(%rip),%rsi        # 1346f <g_1312+0xa8f>
    c054:	48 89 c7             	mov    %rax,%rdi
    c057:	e8 97 a6 ff ff       	callq  66f3 <transparent_crc>
    c05c:	8b 05 9a b0 00 00    	mov    0xb09a(%rip),%eax        # 170fc <g_315>
    c062:	89 c1                	mov    %eax,%ecx
    c064:	8b 45 fc             	mov    -0x4(%rbp),%eax
    c067:	89 c2                	mov    %eax,%edx
    c069:	48 8d 35 08 74 00 00 	lea    0x7408(%rip),%rsi        # 13478 <g_1312+0xa98>
    c070:	48 89 cf             	mov    %rcx,%rdi
    c073:	e8 7b a6 ff ff       	callq  66f3 <transparent_crc>
    c078:	0f b6 05 81 b0 00 00 	movzbl 0xb081(%rip),%eax        # 17100 <g_330>
    c07f:	0f b6 c0             	movzbl %al,%eax
    c082:	8b 55 fc             	mov    -0x4(%rbp),%edx
    c085:	48 8d 35 f2 73 00 00 	lea    0x73f2(%rip),%rsi        # 1347e <g_1312+0xa9e>
    c08c:	48 89 c7             	mov    %rax,%rdi
    c08f:	e8 5f a6 ff ff       	callq  66f3 <transparent_crc>
    c094:	48 8b 05 6d b0 00 00 	mov    0xb06d(%rip),%rax        # 17108 <g_353>
    c09b:	8b 55 fc             	mov    -0x4(%rbp),%edx
    c09e:	48 8d 35 df 73 00 00 	lea    0x73df(%rip),%rsi        # 13484 <g_1312+0xaa4>
    c0a5:	48 89 c7             	mov    %rax,%rdi
    c0a8:	e8 46 a6 ff ff       	callq  66f3 <transparent_crc>
    c0ad:	c7 45 f0 00 00 00 00 	movl   $0x0,-0x10(%rbp)
    c0b4:	eb 46                	jmp    c0fc <main+0x491>
    c0b6:	8b 45 f0             	mov    -0x10(%rbp),%eax
    c0b9:	48 98                	cltq   
    c0bb:	48 8d 15 4e b0 00 00 	lea    0xb04e(%rip),%rdx        # 17110 <g_394>
    c0c2:	0f b6 04 10          	movzbl (%rax,%rdx,1),%eax
    c0c6:	48 0f be c0          	movsbq %al,%rax
    c0ca:	8b 55 fc             	mov    -0x4(%rbp),%edx
    c0cd:	48 8d 35 b6 73 00 00 	lea    0x73b6(%rip),%rsi        # 1348a <g_1312+0xaaa>
    c0d4:	48 89 c7             	mov    %rax,%rdi
    c0d7:	e8 17 a6 ff ff       	callq  66f3 <transparent_crc>
    c0dc:	83 7d fc 00          	cmpl   $0x0,-0x4(%rbp)
    c0e0:	74 16                	je     c0f8 <main+0x48d>
    c0e2:	8b 45 f0             	mov    -0x10(%rbp),%eax
    c0e5:	89 c6                	mov    %eax,%esi
    c0e7:	48 8d 3d 04 73 00 00 	lea    0x7304(%rip),%rdi        # 133f2 <g_1312+0xa12>
    c0ee:	b8 00 00 00 00       	mov    $0x0,%eax
    c0f3:	e8 88 8f ff ff       	callq  5080 <printf@plt>
    c0f8:	83 45 f0 01          	addl   $0x1,-0x10(%rbp)
    c0fc:	83 7d f0 00          	cmpl   $0x0,-0x10(%rbp)
    c100:	7e b4                	jle    c0b6 <main+0x44b>
    c102:	0f b6 05 08 b0 00 00 	movzbl 0xb008(%rip),%eax        # 17111 <g_396>
    c109:	48 0f be c0          	movsbq %al,%rax
    c10d:	8b 55 fc             	mov    -0x4(%rbp),%edx
    c110:	48 8d 35 7c 73 00 00 	lea    0x737c(%rip),%rsi        # 13493 <g_1312+0xab3>
    c117:	48 89 c7             	mov    %rax,%rdi
    c11a:	e8 d4 a5 ff ff       	callq  66f3 <transparent_crc>
    c11f:	0f b6 05 fa af 00 00 	movzbl 0xaffa(%rip),%eax        # 17120 <g_490>
    c126:	0f b6 c0             	movzbl %al,%eax
    c129:	8b 55 fc             	mov    -0x4(%rbp),%edx
    c12c:	48 8d 35 66 73 00 00 	lea    0x7366(%rip),%rsi        # 13499 <g_1312+0xab9>
    c133:	48 89 c7             	mov    %rax,%rdi
    c136:	e8 b8 a5 ff ff       	callq  66f3 <transparent_crc>
    c13b:	0f b7 05 df af 00 00 	movzwl 0xafdf(%rip),%eax        # 17121 <g_490+0x1>
    c142:	0f b7 c0             	movzwl %ax,%eax
    c145:	8b 55 fc             	mov    -0x4(%rbp),%edx
    c148:	48 8d 35 53 73 00 00 	lea    0x7353(%rip),%rsi        # 134a2 <g_1312+0xac2>
    c14f:	48 89 c7             	mov    %rax,%rdi
    c152:	e8 9c a5 ff ff       	callq  66f3 <transparent_crc>
    c157:	8b 05 c6 af 00 00    	mov    0xafc6(%rip),%eax        # 17123 <g_490+0x3>
    c15d:	89 c1                	mov    %eax,%ecx
    c15f:	8b 45 fc             	mov    -0x4(%rbp),%eax
    c162:	89 c2                	mov    %eax,%edx
    c164:	48 8d 35 40 73 00 00 	lea    0x7340(%rip),%rsi        # 134ab <g_1312+0xacb>
    c16b:	48 89 cf             	mov    %rcx,%rdi
    c16e:	e8 80 a5 ff ff       	callq  66f3 <transparent_crc>
    c173:	48 8b 05 ad af 00 00 	mov    0xafad(%rip),%rax        # 17127 <g_490+0x7>
    c17a:	8b 55 fc             	mov    -0x4(%rbp),%edx
    c17d:	48 8d 35 30 73 00 00 	lea    0x7330(%rip),%rsi        # 134b4 <g_1312+0xad4>
    c184:	48 89 c7             	mov    %rax,%rdi
    c187:	e8 67 a5 ff ff       	callq  66f3 <transparent_crc>
    c18c:	48 8b 05 95 af 00 00 	mov    0xaf95(%rip),%rax        # 17128 <g_490+0x8>
    c193:	48 c1 e0 06          	shl    $0x6,%rax
    c197:	48 c1 f8 3e          	sar    $0x3e,%rax
    c19b:	48 0f be c0          	movsbq %al,%rax
    c19f:	8b 55 fc             	mov    -0x4(%rbp),%edx
    c1a2:	48 8d 35 14 73 00 00 	lea    0x7314(%rip),%rsi        # 134bd <g_1312+0xadd>
    c1a9:	48 89 c7             	mov    %rax,%rdi
    c1ac:	e8 42 a5 ff ff       	callq  66f3 <transparent_crc>
    c1b1:	0f b6 05 78 af 00 00 	movzbl 0xaf78(%rip),%eax        # 17130 <g_490+0x10>
    c1b8:	48 0f be c0          	movsbq %al,%rax
    c1bc:	8b 55 fc             	mov    -0x4(%rbp),%edx
    c1bf:	48 8d 35 00 73 00 00 	lea    0x7300(%rip),%rsi        # 134c6 <g_1312+0xae6>
    c1c6:	48 89 c7             	mov    %rax,%rdi
    c1c9:	e8 25 a5 ff ff       	callq  66f3 <transparent_crc>
    c1ce:	0f b6 05 5c af 00 00 	movzbl 0xaf5c(%rip),%eax        # 17131 <g_490+0x11>
    c1d5:	48 0f be c0          	movsbq %al,%rax
    c1d9:	8b 55 fc             	mov    -0x4(%rbp),%edx
    c1dc:	48 8d 35 ec 72 00 00 	lea    0x72ec(%rip),%rsi        # 134cf <g_1312+0xaef>
    c1e3:	48 89 c7             	mov    %rax,%rdi
    c1e6:	e8 08 a5 ff ff       	callq  66f3 <transparent_crc>
    c1eb:	48 8b 05 40 af 00 00 	mov    0xaf40(%rip),%rax        # 17132 <g_490+0x12>
    c1f2:	8b 55 fc             	mov    -0x4(%rbp),%edx
    c1f5:	48 8d 35 dc 72 00 00 	lea    0x72dc(%rip),%rsi        # 134d8 <g_1312+0xaf8>
    c1fc:	48 89 c7             	mov    %rax,%rdi
    c1ff:	e8 ef a4 ff ff       	callq  66f3 <transparent_crc>
    c204:	0f b6 05 35 af 00 00 	movzbl 0xaf35(%rip),%eax        # 17140 <g_565>
    c20b:	0f b6 c0             	movzbl %al,%eax
    c20e:	8b 55 fc             	mov    -0x4(%rbp),%edx
    c211:	48 8d 35 c9 72 00 00 	lea    0x72c9(%rip),%rsi        # 134e1 <g_1312+0xb01>
    c218:	48 89 c7             	mov    %rax,%rdi
    c21b:	e8 d3 a4 ff ff       	callq  66f3 <transparent_crc>
    c220:	0f b7 05 1a af 00 00 	movzwl 0xaf1a(%rip),%eax        # 17141 <g_565+0x1>
    c227:	0f b7 c0             	movzwl %ax,%eax
    c22a:	8b 55 fc             	mov    -0x4(%rbp),%edx
    c22d:	48 8d 35 b6 72 00 00 	lea    0x72b6(%rip),%rsi        # 134ea <g_1312+0xb0a>
    c234:	48 89 c7             	mov    %rax,%rdi
    c237:	e8 b7 a4 ff ff       	callq  66f3 <transparent_crc>
    c23c:	8b 05 01 af 00 00    	mov    0xaf01(%rip),%eax        # 17143 <g_565+0x3>
    c242:	89 c1                	mov    %eax,%ecx
    c244:	8b 45 fc             	mov    -0x4(%rbp),%eax
    c247:	89 c2                	mov    %eax,%edx
    c249:	48 8d 35 a3 72 00 00 	lea    0x72a3(%rip),%rsi        # 134f3 <g_1312+0xb13>
    c250:	48 89 cf             	mov    %rcx,%rdi
    c253:	e8 9b a4 ff ff       	callq  66f3 <transparent_crc>
    c258:	48 8b 05 e8 ae 00 00 	mov    0xaee8(%rip),%rax        # 17147 <g_565+0x7>
    c25f:	8b 55 fc             	mov    -0x4(%rbp),%edx
    c262:	48 8d 35 93 72 00 00 	lea    0x7293(%rip),%rsi        # 134fc <g_1312+0xb1c>
    c269:	48 89 c7             	mov    %rax,%rdi
    c26c:	e8 82 a4 ff ff       	callq  66f3 <transparent_crc>
    c271:	48 8b 05 d0 ae 00 00 	mov    0xaed0(%rip),%rax        # 17148 <g_565+0x8>
    c278:	48 c1 e0 06          	shl    $0x6,%rax
    c27c:	48 c1 f8 3e          	sar    $0x3e,%rax
    c280:	48 0f be c0          	movsbq %al,%rax
    c284:	8b 55 fc             	mov    -0x4(%rbp),%edx
    c287:	48 8d 35 77 72 00 00 	lea    0x7277(%rip),%rsi        # 13505 <g_1312+0xb25>
    c28e:	48 89 c7             	mov    %rax,%rdi
    c291:	e8 5d a4 ff ff       	callq  66f3 <transparent_crc>
    c296:	0f b6 05 b3 ae 00 00 	movzbl 0xaeb3(%rip),%eax        # 17150 <g_565+0x10>
    c29d:	48 0f be c0          	movsbq %al,%rax
    c2a1:	8b 55 fc             	mov    -0x4(%rbp),%edx
    c2a4:	48 8d 35 63 72 00 00 	lea    0x7263(%rip),%rsi        # 1350e <g_1312+0xb2e>
    c2ab:	48 89 c7             	mov    %rax,%rdi
    c2ae:	e8 40 a4 ff ff       	callq  66f3 <transparent_crc>
    c2b3:	0f b6 05 97 ae 00 00 	movzbl 0xae97(%rip),%eax        # 17151 <g_565+0x11>
    c2ba:	48 0f be c0          	movsbq %al,%rax
    c2be:	8b 55 fc             	mov    -0x4(%rbp),%edx
    c2c1:	48 8d 35 4f 72 00 00 	lea    0x724f(%rip),%rsi        # 13517 <g_1312+0xb37>
    c2c8:	48 89 c7             	mov    %rax,%rdi
    c2cb:	e8 23 a4 ff ff       	callq  66f3 <transparent_crc>
    c2d0:	48 8b 05 7b ae 00 00 	mov    0xae7b(%rip),%rax        # 17152 <g_565+0x12>
    c2d7:	8b 55 fc             	mov    -0x4(%rbp),%edx
    c2da:	48 8d 35 3f 72 00 00 	lea    0x723f(%rip),%rsi        # 13520 <g_1312+0xb40>
    c2e1:	48 89 c7             	mov    %rax,%rdi
    c2e4:	e8 0a a4 ff ff       	callq  66f3 <transparent_crc>
    c2e9:	0f b6 05 70 ae 00 00 	movzbl 0xae70(%rip),%eax        # 17160 <g_604>
    c2f0:	0f b6 c0             	movzbl %al,%eax
    c2f3:	8b 55 fc             	mov    -0x4(%rbp),%edx
    c2f6:	48 8d 35 2c 72 00 00 	lea    0x722c(%rip),%rsi        # 13529 <g_1312+0xb49>
    c2fd:	48 89 c7             	mov    %rax,%rdi
    c300:	e8 ee a3 ff ff       	callq  66f3 <transparent_crc>
    c305:	0f b7 05 55 ae 00 00 	movzwl 0xae55(%rip),%eax        # 17161 <g_604+0x1>
    c30c:	0f b7 c0             	movzwl %ax,%eax
    c30f:	8b 55 fc             	mov    -0x4(%rbp),%edx
    c312:	48 8d 35 19 72 00 00 	lea    0x7219(%rip),%rsi        # 13532 <g_1312+0xb52>
    c319:	48 89 c7             	mov    %rax,%rdi
    c31c:	e8 d2 a3 ff ff       	callq  66f3 <transparent_crc>
    c321:	8b 05 3c ae 00 00    	mov    0xae3c(%rip),%eax        # 17163 <g_604+0x3>
    c327:	89 c1                	mov    %eax,%ecx
    c329:	8b 45 fc             	mov    -0x4(%rbp),%eax
    c32c:	89 c2                	mov    %eax,%edx
    c32e:	48 8d 35 06 72 00 00 	lea    0x7206(%rip),%rsi        # 1353b <g_1312+0xb5b>
    c335:	48 89 cf             	mov    %rcx,%rdi
    c338:	e8 b6 a3 ff ff       	callq  66f3 <transparent_crc>
    c33d:	48 8b 05 23 ae 00 00 	mov    0xae23(%rip),%rax        # 17167 <g_604+0x7>
    c344:	8b 55 fc             	mov    -0x4(%rbp),%edx
    c347:	48 8d 35 f6 71 00 00 	lea    0x71f6(%rip),%rsi        # 13544 <g_1312+0xb64>
    c34e:	48 89 c7             	mov    %rax,%rdi
    c351:	e8 9d a3 ff ff       	callq  66f3 <transparent_crc>
    c356:	0f b6 05 12 ae 00 00 	movzbl 0xae12(%rip),%eax        # 1716f <g_604+0xf>
    c35d:	c1 e0 06             	shl    $0x6,%eax
    c360:	c0 f8 06             	sar    $0x6,%al
    c363:	48 0f be c0          	movsbq %al,%rax
    c367:	8b 55 fc             	mov    -0x4(%rbp),%edx
    c36a:	48 8d 35 dc 71 00 00 	lea    0x71dc(%rip),%rsi        # 1354d <g_1312+0xb6d>
    c371:	48 89 c7             	mov    %rax,%rdi
    c374:	e8 7a a3 ff ff       	callq  66f3 <transparent_crc>
    c379:	0f b6 05 f0 ad 00 00 	movzbl 0xadf0(%rip),%eax        # 17170 <g_604+0x10>
    c380:	48 0f be c0          	movsbq %al,%rax
    c384:	8b 55 fc             	mov    -0x4(%rbp),%edx
    c387:	48 8d 35 c8 71 00 00 	lea    0x71c8(%rip),%rsi        # 13556 <g_1312+0xb76>
    c38e:	48 89 c7             	mov    %rax,%rdi
    c391:	e8 5d a3 ff ff       	callq  66f3 <transparent_crc>
    c396:	0f b6 05 d4 ad 00 00 	movzbl 0xadd4(%rip),%eax        # 17171 <g_604+0x11>
    c39d:	48 0f be c0          	movsbq %al,%rax
    c3a1:	8b 55 fc             	mov    -0x4(%rbp),%edx
    c3a4:	48 8d 35 b4 71 00 00 	lea    0x71b4(%rip),%rsi        # 1355f <g_1312+0xb7f>
    c3ab:	48 89 c7             	mov    %rax,%rdi
    c3ae:	e8 40 a3 ff ff       	callq  66f3 <transparent_crc>
    c3b3:	48 8b 05 b8 ad 00 00 	mov    0xadb8(%rip),%rax        # 17172 <g_604+0x12>
    c3ba:	8b 55 fc             	mov    -0x4(%rbp),%edx
    c3bd:	48 8d 35 a4 71 00 00 	lea    0x71a4(%rip),%rsi        # 13568 <g_1312+0xb88>
    c3c4:	48 89 c7             	mov    %rax,%rdi
    c3c7:	e8 27 a3 ff ff       	callq  66f3 <transparent_crc>
    c3cc:	c7 45 f0 00 00 00 00 	movl   $0x0,-0x10(%rbp)
    c3d3:	eb 4f                	jmp    c424 <main+0x7b9>
    c3d5:	8b 45 f0             	mov    -0x10(%rbp),%eax
    c3d8:	48 98                	cltq   
    c3da:	48 8d 14 c5 00 00 00 	lea    0x0(,%rax,8),%rdx
    c3e1:	00 
    c3e2:	48 8d 05 97 ad 00 00 	lea    0xad97(%rip),%rax        # 17180 <g_607>
    c3e9:	48 8b 04 02          	mov    (%rdx,%rax,1),%rax
    c3ed:	48 89 c1             	mov    %rax,%rcx
    c3f0:	8b 45 fc             	mov    -0x4(%rbp),%eax
    c3f3:	89 c2                	mov    %eax,%edx
    c3f5:	48 8d 35 75 71 00 00 	lea    0x7175(%rip),%rsi        # 13571 <g_1312+0xb91>
    c3fc:	48 89 cf             	mov    %rcx,%rdi
    c3ff:	e8 ef a2 ff ff       	callq  66f3 <transparent_crc>
    c404:	83 7d fc 00          	cmpl   $0x0,-0x4(%rbp)
    c408:	74 16                	je     c420 <main+0x7b5>
    c40a:	8b 45 f0             	mov    -0x10(%rbp),%eax
    c40d:	89 c6                	mov    %eax,%esi
    c40f:	48 8d 3d dc 6f 00 00 	lea    0x6fdc(%rip),%rdi        # 133f2 <g_1312+0xa12>
    c416:	b8 00 00 00 00       	mov    $0x0,%eax
    c41b:	e8 60 8c ff ff       	callq  5080 <printf@plt>
    c420:	83 45 f0 01          	addl   $0x1,-0x10(%rbp)
    c424:	83 7d f0 09          	cmpl   $0x9,-0x10(%rbp)
    c428:	7e ab                	jle    c3d5 <main+0x76a>
    c42a:	48 8b 05 9f ad 00 00 	mov    0xad9f(%rip),%rax        # 171d0 <g_608>
    c431:	8b 55 fc             	mov    -0x4(%rbp),%edx
    c434:	48 8d 35 3f 71 00 00 	lea    0x713f(%rip),%rsi        # 1357a <g_1312+0xb9a>
    c43b:	48 89 c7             	mov    %rax,%rdi
    c43e:	e8 b0 a2 ff ff       	callq  66f3 <transparent_crc>
    c443:	8b 05 8f ad 00 00    	mov    0xad8f(%rip),%eax        # 171d8 <g_670>
    c449:	89 c1                	mov    %eax,%ecx
    c44b:	8b 45 fc             	mov    -0x4(%rbp),%eax
    c44e:	89 c2                	mov    %eax,%edx
    c450:	48 8d 35 29 71 00 00 	lea    0x7129(%rip),%rsi        # 13580 <g_1312+0xba0>
    c457:	48 89 cf             	mov    %rcx,%rdi
    c45a:	e8 94 a2 ff ff       	callq  66f3 <transparent_crc>
    c45f:	c7 45 f0 00 00 00 00 	movl   $0x0,-0x10(%rbp)
    c466:	e9 09 02 00 00       	jmpq   c674 <main+0xa09>
    c46b:	8b 45 f0             	mov    -0x10(%rbp),%eax
    c46e:	48 63 d0             	movslq %eax,%rdx
    c471:	48 89 d0             	mov    %rdx,%rax
    c474:	48 01 c0             	add    %rax,%rax
    c477:	48 01 d0             	add    %rdx,%rax
    c47a:	48 c1 e0 02          	shl    $0x2,%rax
    c47e:	48 01 d0             	add    %rdx,%rax
    c481:	48 01 c0             	add    %rax,%rax
    c484:	48 89 c2             	mov    %rax,%rdx
    c487:	48 8d 05 52 ad 00 00 	lea    0xad52(%rip),%rax        # 171e0 <g_677>
    c48e:	0f b6 04 02          	movzbl (%rdx,%rax,1),%eax
    c492:	0f b6 c0             	movzbl %al,%eax
    c495:	8b 55 fc             	mov    -0x4(%rbp),%edx
    c498:	48 8d 35 e7 70 00 00 	lea    0x70e7(%rip),%rsi        # 13586 <g_1312+0xba6>
    c49f:	48 89 c7             	mov    %rax,%rdi
    c4a2:	e8 4c a2 ff ff       	callq  66f3 <transparent_crc>
    c4a7:	8b 45 f0             	mov    -0x10(%rbp),%eax
    c4aa:	48 63 d0             	movslq %eax,%rdx
    c4ad:	48 89 d0             	mov    %rdx,%rax
    c4b0:	48 01 c0             	add    %rax,%rax
    c4b3:	48 01 d0             	add    %rdx,%rax
    c4b6:	48 c1 e0 02          	shl    $0x2,%rax
    c4ba:	48 01 d0             	add    %rdx,%rax
    c4bd:	48 01 c0             	add    %rax,%rax
    c4c0:	48 89 c2             	mov    %rax,%rdx
    c4c3:	48 8d 05 16 ad 00 00 	lea    0xad16(%rip),%rax        # 171e0 <g_677>
    c4ca:	0f b7 44 02 01       	movzwl 0x1(%rdx,%rax,1),%eax
    c4cf:	0f b7 c0             	movzwl %ax,%eax
    c4d2:	8b 55 fc             	mov    -0x4(%rbp),%edx
    c4d5:	48 8d 35 b6 70 00 00 	lea    0x70b6(%rip),%rsi        # 13592 <g_1312+0xbb2>
    c4dc:	48 89 c7             	mov    %rax,%rdi
    c4df:	e8 0f a2 ff ff       	callq  66f3 <transparent_crc>
    c4e4:	8b 45 f0             	mov    -0x10(%rbp),%eax
    c4e7:	48 63 d0             	movslq %eax,%rdx
    c4ea:	48 89 d0             	mov    %rdx,%rax
    c4ed:	48 01 c0             	add    %rax,%rax
    c4f0:	48 01 d0             	add    %rdx,%rax
    c4f3:	48 c1 e0 02          	shl    $0x2,%rax
    c4f7:	48 01 d0             	add    %rdx,%rax
    c4fa:	48 01 c0             	add    %rax,%rax
    c4fd:	48 89 c2             	mov    %rax,%rdx
    c500:	48 8d 05 d9 ac 00 00 	lea    0xacd9(%rip),%rax        # 171e0 <g_677>
    c507:	8b 44 02 03          	mov    0x3(%rdx,%rax,1),%eax
    c50b:	89 c1                	mov    %eax,%ecx
    c50d:	8b 45 fc             	mov    -0x4(%rbp),%eax
    c510:	89 c2                	mov    %eax,%edx
    c512:	48 8d 35 85 70 00 00 	lea    0x7085(%rip),%rsi        # 1359e <g_1312+0xbbe>
    c519:	48 89 cf             	mov    %rcx,%rdi
    c51c:	e8 d2 a1 ff ff       	callq  66f3 <transparent_crc>
    c521:	8b 45 f0             	mov    -0x10(%rbp),%eax
    c524:	48 63 d0             	movslq %eax,%rdx
    c527:	48 89 d0             	mov    %rdx,%rax
    c52a:	48 01 c0             	add    %rax,%rax
    c52d:	48 01 d0             	add    %rdx,%rax
    c530:	48 c1 e0 02          	shl    $0x2,%rax
    c534:	48 01 d0             	add    %rdx,%rax
    c537:	48 01 c0             	add    %rax,%rax
    c53a:	48 89 c2             	mov    %rax,%rdx
    c53d:	48 8d 05 9c ac 00 00 	lea    0xac9c(%rip),%rax        # 171e0 <g_677>
    c544:	48 8b 44 02 07       	mov    0x7(%rdx,%rax,1),%rax
    c549:	8b 55 fc             	mov    -0x4(%rbp),%edx
    c54c:	48 8d 35 57 70 00 00 	lea    0x7057(%rip),%rsi        # 135aa <g_1312+0xbca>
    c553:	48 89 c7             	mov    %rax,%rdi
    c556:	e8 98 a1 ff ff       	callq  66f3 <transparent_crc>
    c55b:	8b 45 f0             	mov    -0x10(%rbp),%eax
    c55e:	48 63 d0             	movslq %eax,%rdx
    c561:	48 89 d0             	mov    %rdx,%rax
    c564:	48 01 c0             	add    %rax,%rax
    c567:	48 01 d0             	add    %rdx,%rax
    c56a:	48 c1 e0 02          	shl    $0x2,%rax
    c56e:	48 01 d0             	add    %rdx,%rax
    c571:	48 01 c0             	add    %rax,%rax
    c574:	48 89 c2             	mov    %rax,%rdx
    c577:	48 8d 05 62 ac 00 00 	lea    0xac62(%rip),%rax        # 171e0 <g_677>
    c57e:	0f b7 44 02 0e       	movzwl 0xe(%rdx,%rax,1),%eax
    c583:	c1 e0 06             	shl    $0x6,%eax
    c586:	66 c1 f8 0e          	sar    $0xe,%ax
    c58a:	48 0f be c0          	movsbq %al,%rax
    c58e:	8b 55 fc             	mov    -0x4(%rbp),%edx
    c591:	48 8d 35 1e 70 00 00 	lea    0x701e(%rip),%rsi        # 135b6 <g_1312+0xbd6>
    c598:	48 89 c7             	mov    %rax,%rdi
    c59b:	e8 53 a1 ff ff       	callq  66f3 <transparent_crc>
    c5a0:	8b 45 f0             	mov    -0x10(%rbp),%eax
    c5a3:	48 63 d0             	movslq %eax,%rdx
    c5a6:	48 89 d0             	mov    %rdx,%rax
    c5a9:	48 01 c0             	add    %rax,%rax
    c5ac:	48 01 d0             	add    %rdx,%rax
    c5af:	48 c1 e0 02          	shl    $0x2,%rax
    c5b3:	48 01 d0             	add    %rdx,%rax
    c5b6:	48 01 c0             	add    %rax,%rax
    c5b9:	48 89 c2             	mov    %rax,%rdx
    c5bc:	48 8d 05 2d ac 00 00 	lea    0xac2d(%rip),%rax        # 171f0 <g_677+0x10>
    c5c3:	0f b6 04 02          	movzbl (%rdx,%rax,1),%eax
    c5c7:	48 0f be c0          	movsbq %al,%rax
    c5cb:	8b 55 fc             	mov    -0x4(%rbp),%edx
    c5ce:	48 8d 35 ed 6f 00 00 	lea    0x6fed(%rip),%rsi        # 135c2 <g_1312+0xbe2>
    c5d5:	48 89 c7             	mov    %rax,%rdi
    c5d8:	e8 16 a1 ff ff       	callq  66f3 <transparent_crc>
    c5dd:	8b 45 f0             	mov    -0x10(%rbp),%eax
    c5e0:	48 63 d0             	movslq %eax,%rdx
    c5e3:	48 89 d0             	mov    %rdx,%rax
    c5e6:	48 01 c0             	add    %rax,%rax
    c5e9:	48 01 d0             	add    %rdx,%rax
    c5ec:	48 c1 e0 02          	shl    $0x2,%rax
    c5f0:	48 01 d0             	add    %rdx,%rax
    c5f3:	48 01 c0             	add    %rax,%rax
    c5f6:	48 89 c2             	mov    %rax,%rdx
    c5f9:	48 8d 05 f1 ab 00 00 	lea    0xabf1(%rip),%rax        # 171f1 <g_677+0x11>
    c600:	0f b6 04 02          	movzbl (%rdx,%rax,1),%eax
    c604:	48 0f be c0          	movsbq %al,%rax
    c608:	8b 55 fc             	mov    -0x4(%rbp),%edx
    c60b:	48 8d 35 bc 6f 00 00 	lea    0x6fbc(%rip),%rsi        # 135ce <g_1312+0xbee>
    c612:	48 89 c7             	mov    %rax,%rdi
    c615:	e8 d9 a0 ff ff       	callq  66f3 <transparent_crc>
    c61a:	8b 45 f0             	mov    -0x10(%rbp),%eax
    c61d:	48 63 d0             	movslq %eax,%rdx
    c620:	48 89 d0             	mov    %rdx,%rax
    c623:	48 01 c0             	add    %rax,%rax
    c626:	48 01 d0             	add    %rdx,%rax
    c629:	48 c1 e0 02          	shl    $0x2,%rax
    c62d:	48 01 d0             	add    %rdx,%rax
    c630:	48 01 c0             	add    %rax,%rax
    c633:	48 89 c2             	mov    %rax,%rdx
    c636:	48 8d 05 b3 ab 00 00 	lea    0xabb3(%rip),%rax        # 171f0 <g_677+0x10>
    c63d:	48 8b 44 02 02       	mov    0x2(%rdx,%rax,1),%rax
    c642:	8b 55 fc             	mov    -0x4(%rbp),%edx
    c645:	48 8d 35 8e 6f 00 00 	lea    0x6f8e(%rip),%rsi        # 135da <g_1312+0xbfa>
    c64c:	48 89 c7             	mov    %rax,%rdi
    c64f:	e8 9f a0 ff ff       	callq  66f3 <transparent_crc>
    c654:	83 7d fc 00          	cmpl   $0x0,-0x4(%rbp)
    c658:	74 16                	je     c670 <main+0xa05>
    c65a:	8b 45 f0             	mov    -0x10(%rbp),%eax
    c65d:	89 c6                	mov    %eax,%esi
    c65f:	48 8d 3d 8c 6d 00 00 	lea    0x6d8c(%rip),%rdi        # 133f2 <g_1312+0xa12>
    c666:	b8 00 00 00 00       	mov    $0x0,%eax
    c66b:	e8 10 8a ff ff       	callq  5080 <printf@plt>
    c670:	83 45 f0 01          	addl   $0x1,-0x10(%rbp)
    c674:	83 7d f0 01          	cmpl   $0x1,-0x10(%rbp)
    c678:	0f 8e ed fd ff ff    	jle    c46b <main+0x800>
    c67e:	8b 05 90 ab 00 00    	mov    0xab90(%rip),%eax        # 17214 <g_813>
    c684:	48 98                	cltq   
    c686:	8b 55 fc             	mov    -0x4(%rbp),%edx
    c689:	48 8d 35 56 6f 00 00 	lea    0x6f56(%rip),%rsi        # 135e6 <g_1312+0xc06>
    c690:	48 89 c7             	mov    %rax,%rdi
    c693:	e8 5b a0 ff ff       	callq  66f3 <transparent_crc>
    c698:	0f b6 05 81 ab 00 00 	movzbl 0xab81(%rip),%eax        # 17220 <g_842>
    c69f:	0f b6 c0             	movzbl %al,%eax
    c6a2:	8b 55 fc             	mov    -0x4(%rbp),%edx
    c6a5:	48 8d 35 40 6f 00 00 	lea    0x6f40(%rip),%rsi        # 135ec <g_1312+0xc0c>
    c6ac:	48 89 c7             	mov    %rax,%rdi
    c6af:	e8 3f a0 ff ff       	callq  66f3 <transparent_crc>
    c6b4:	0f b7 05 66 ab 00 00 	movzwl 0xab66(%rip),%eax        # 17221 <g_842+0x1>
    c6bb:	0f b7 c0             	movzwl %ax,%eax
    c6be:	8b 55 fc             	mov    -0x4(%rbp),%edx
    c6c1:	48 8d 35 2d 6f 00 00 	lea    0x6f2d(%rip),%rsi        # 135f5 <g_1312+0xc15>
    c6c8:	48 89 c7             	mov    %rax,%rdi
    c6cb:	e8 23 a0 ff ff       	callq  66f3 <transparent_crc>
    c6d0:	8b 05 4d ab 00 00    	mov    0xab4d(%rip),%eax        # 17223 <g_842+0x3>
    c6d6:	89 c1                	mov    %eax,%ecx
    c6d8:	8b 45 fc             	mov    -0x4(%rbp),%eax
    c6db:	89 c2                	mov    %eax,%edx
    c6dd:	48 8d 35 1a 6f 00 00 	lea    0x6f1a(%rip),%rsi        # 135fe <g_1312+0xc1e>
    c6e4:	48 89 cf             	mov    %rcx,%rdi
    c6e7:	e8 07 a0 ff ff       	callq  66f3 <transparent_crc>
    c6ec:	48 8b 05 34 ab 00 00 	mov    0xab34(%rip),%rax        # 17227 <g_842+0x7>
    c6f3:	8b 55 fc             	mov    -0x4(%rbp),%edx
    c6f6:	48 8d 35 0a 6f 00 00 	lea    0x6f0a(%rip),%rsi        # 13607 <g_1312+0xc27>
    c6fd:	48 89 c7             	mov    %rax,%rdi
    c700:	e8 ee 9f ff ff       	callq  66f3 <transparent_crc>
    c705:	0f b6 05 23 ab 00 00 	movzbl 0xab23(%rip),%eax        # 1722f <g_842+0xf>
    c70c:	c1 e0 06             	shl    $0x6,%eax
    c70f:	c0 f8 06             	sar    $0x6,%al
    c712:	48 0f be c0          	movsbq %al,%rax
    c716:	8b 55 fc             	mov    -0x4(%rbp),%edx
    c719:	48 8d 35 f0 6e 00 00 	lea    0x6ef0(%rip),%rsi        # 13610 <g_1312+0xc30>
    c720:	48 89 c7             	mov    %rax,%rdi
    c723:	e8 cb 9f ff ff       	callq  66f3 <transparent_crc>
    c728:	0f b6 05 01 ab 00 00 	movzbl 0xab01(%rip),%eax        # 17230 <g_842+0x10>
    c72f:	48 0f be c0          	movsbq %al,%rax
    c733:	8b 55 fc             	mov    -0x4(%rbp),%edx
    c736:	48 8d 35 dc 6e 00 00 	lea    0x6edc(%rip),%rsi        # 13619 <g_1312+0xc39>
    c73d:	48 89 c7             	mov    %rax,%rdi
    c740:	e8 ae 9f ff ff       	callq  66f3 <transparent_crc>
    c745:	0f b6 05 e5 aa 00 00 	movzbl 0xaae5(%rip),%eax        # 17231 <g_842+0x11>
    c74c:	48 0f be c0          	movsbq %al,%rax
    c750:	8b 55 fc             	mov    -0x4(%rbp),%edx
    c753:	48 8d 35 c8 6e 00 00 	lea    0x6ec8(%rip),%rsi        # 13622 <g_1312+0xc42>
    c75a:	48 89 c7             	mov    %rax,%rdi
    c75d:	e8 91 9f ff ff       	callq  66f3 <transparent_crc>
    c762:	48 8b 05 c9 aa 00 00 	mov    0xaac9(%rip),%rax        # 17232 <g_842+0x12>
    c769:	8b 55 fc             	mov    -0x4(%rbp),%edx
    c76c:	48 8d 35 b8 6e 00 00 	lea    0x6eb8(%rip),%rsi        # 1362b <g_1312+0xc4b>
    c773:	48 89 c7             	mov    %rax,%rdi
    c776:	e8 78 9f ff ff       	callq  66f3 <transparent_crc>
    c77b:	0f b6 05 be aa 00 00 	movzbl 0xaabe(%rip),%eax        # 17240 <g_896>
    c782:	0f b6 c0             	movzbl %al,%eax
    c785:	8b 55 fc             	mov    -0x4(%rbp),%edx
    c788:	48 8d 35 a5 6e 00 00 	lea    0x6ea5(%rip),%rsi        # 13634 <g_1312+0xc54>
    c78f:	48 89 c7             	mov    %rax,%rdi
    c792:	e8 5c 9f ff ff       	callq  66f3 <transparent_crc>
    c797:	0f b7 05 a3 aa 00 00 	movzwl 0xaaa3(%rip),%eax        # 17241 <g_896+0x1>
    c79e:	0f b7 c0             	movzwl %ax,%eax
    c7a1:	8b 55 fc             	mov    -0x4(%rbp),%edx
    c7a4:	48 8d 35 92 6e 00 00 	lea    0x6e92(%rip),%rsi        # 1363d <g_1312+0xc5d>
    c7ab:	48 89 c7             	mov    %rax,%rdi
    c7ae:	e8 40 9f ff ff       	callq  66f3 <transparent_crc>
    c7b3:	8b 05 8a aa 00 00    	mov    0xaa8a(%rip),%eax        # 17243 <g_896+0x3>
    c7b9:	89 c1                	mov    %eax,%ecx
    c7bb:	8b 45 fc             	mov    -0x4(%rbp),%eax
    c7be:	89 c2                	mov    %eax,%edx
    c7c0:	48 8d 35 7f 6e 00 00 	lea    0x6e7f(%rip),%rsi        # 13646 <g_1312+0xc66>
    c7c7:	48 89 cf             	mov    %rcx,%rdi
    c7ca:	e8 24 9f ff ff       	callq  66f3 <transparent_crc>
    c7cf:	48 8b 05 71 aa 00 00 	mov    0xaa71(%rip),%rax        # 17247 <g_896+0x7>
    c7d6:	8b 55 fc             	mov    -0x4(%rbp),%edx
    c7d9:	48 8d 35 6f 6e 00 00 	lea    0x6e6f(%rip),%rsi        # 1364f <g_1312+0xc6f>
    c7e0:	48 89 c7             	mov    %rax,%rdi
    c7e3:	e8 0b 9f ff ff       	callq  66f3 <transparent_crc>
    c7e8:	48 8b 05 59 aa 00 00 	mov    0xaa59(%rip),%rax        # 17248 <g_896+0x8>
    c7ef:	48 c1 e0 06          	shl    $0x6,%rax
    c7f3:	48 c1 f8 3e          	sar    $0x3e,%rax
    c7f7:	48 0f be c0          	movsbq %al,%rax
    c7fb:	8b 55 fc             	mov    -0x4(%rbp),%edx
    c7fe:	48 8d 35 53 6e 00 00 	lea    0x6e53(%rip),%rsi        # 13658 <g_1312+0xc78>
    c805:	48 89 c7             	mov    %rax,%rdi
    c808:	e8 e6 9e ff ff       	callq  66f3 <transparent_crc>
    c80d:	0f b6 05 3c aa 00 00 	movzbl 0xaa3c(%rip),%eax        # 17250 <g_896+0x10>
    c814:	48 0f be c0          	movsbq %al,%rax
    c818:	8b 55 fc             	mov    -0x4(%rbp),%edx
    c81b:	48 8d 35 3f 6e 00 00 	lea    0x6e3f(%rip),%rsi        # 13661 <g_1312+0xc81>
    c822:	48 89 c7             	mov    %rax,%rdi
    c825:	e8 c9 9e ff ff       	callq  66f3 <transparent_crc>
    c82a:	0f b6 05 20 aa 00 00 	movzbl 0xaa20(%rip),%eax        # 17251 <g_896+0x11>
    c831:	48 0f be c0          	movsbq %al,%rax
    c835:	8b 55 fc             	mov    -0x4(%rbp),%edx
    c838:	48 8d 35 2b 6e 00 00 	lea    0x6e2b(%rip),%rsi        # 1366a <g_1312+0xc8a>
    c83f:	48 89 c7             	mov    %rax,%rdi
    c842:	e8 ac 9e ff ff       	callq  66f3 <transparent_crc>
    c847:	48 8b 05 04 aa 00 00 	mov    0xaa04(%rip),%rax        # 17252 <g_896+0x12>
    c84e:	8b 55 fc             	mov    -0x4(%rbp),%edx
    c851:	48 8d 35 1b 6e 00 00 	lea    0x6e1b(%rip),%rsi        # 13673 <g_1312+0xc93>
    c858:	48 89 c7             	mov    %rax,%rdi
    c85b:	e8 93 9e ff ff       	callq  66f3 <transparent_crc>
    c860:	0f b6 05 f9 a9 00 00 	movzbl 0xa9f9(%rip),%eax        # 17260 <g_897>
    c867:	0f b6 c0             	movzbl %al,%eax
    c86a:	8b 55 fc             	mov    -0x4(%rbp),%edx
    c86d:	48 8d 35 08 6e 00 00 	lea    0x6e08(%rip),%rsi        # 1367c <g_1312+0xc9c>
    c874:	48 89 c7             	mov    %rax,%rdi
    c877:	e8 77 9e ff ff       	callq  66f3 <transparent_crc>
    c87c:	0f b7 05 de a9 00 00 	movzwl 0xa9de(%rip),%eax        # 17261 <g_897+0x1>
    c883:	0f b7 c0             	movzwl %ax,%eax
    c886:	8b 55 fc             	mov    -0x4(%rbp),%edx
    c889:	48 8d 35 f5 6d 00 00 	lea    0x6df5(%rip),%rsi        # 13685 <g_1312+0xca5>
    c890:	48 89 c7             	mov    %rax,%rdi
    c893:	e8 5b 9e ff ff       	callq  66f3 <transparent_crc>
    c898:	8b 05 c5 a9 00 00    	mov    0xa9c5(%rip),%eax        # 17263 <g_897+0x3>
    c89e:	89 c1                	mov    %eax,%ecx
    c8a0:	8b 45 fc             	mov    -0x4(%rbp),%eax
    c8a3:	89 c2                	mov    %eax,%edx
    c8a5:	48 8d 35 e2 6d 00 00 	lea    0x6de2(%rip),%rsi        # 1368e <g_1312+0xcae>
    c8ac:	48 89 cf             	mov    %rcx,%rdi
    c8af:	e8 3f 9e ff ff       	callq  66f3 <transparent_crc>
    c8b4:	48 8b 05 ac a9 00 00 	mov    0xa9ac(%rip),%rax        # 17267 <g_897+0x7>
    c8bb:	8b 55 fc             	mov    -0x4(%rbp),%edx
    c8be:	48 8d 35 d2 6d 00 00 	lea    0x6dd2(%rip),%rsi        # 13697 <g_1312+0xcb7>
    c8c5:	48 89 c7             	mov    %rax,%rdi
    c8c8:	e8 26 9e ff ff       	callq  66f3 <transparent_crc>
    c8cd:	48 8b 05 94 a9 00 00 	mov    0xa994(%rip),%rax        # 17268 <g_897+0x8>
    c8d4:	48 c1 e0 06          	shl    $0x6,%rax
    c8d8:	48 c1 f8 3e          	sar    $0x3e,%rax
    c8dc:	48 0f be c0          	movsbq %al,%rax
    c8e0:	8b 55 fc             	mov    -0x4(%rbp),%edx
    c8e3:	48 8d 35 b6 6d 00 00 	lea    0x6db6(%rip),%rsi        # 136a0 <g_1312+0xcc0>
    c8ea:	48 89 c7             	mov    %rax,%rdi
    c8ed:	e8 01 9e ff ff       	callq  66f3 <transparent_crc>
    c8f2:	0f b6 05 77 a9 00 00 	movzbl 0xa977(%rip),%eax        # 17270 <g_897+0x10>
    c8f9:	48 0f be c0          	movsbq %al,%rax
    c8fd:	8b 55 fc             	mov    -0x4(%rbp),%edx
    c900:	48 8d 35 a2 6d 00 00 	lea    0x6da2(%rip),%rsi        # 136a9 <g_1312+0xcc9>
    c907:	48 89 c7             	mov    %rax,%rdi
    c90a:	e8 e4 9d ff ff       	callq  66f3 <transparent_crc>
    c90f:	0f b6 05 5b a9 00 00 	movzbl 0xa95b(%rip),%eax        # 17271 <g_897+0x11>
    c916:	48 0f be c0          	movsbq %al,%rax
    c91a:	8b 55 fc             	mov    -0x4(%rbp),%edx
    c91d:	48 8d 35 8e 6d 00 00 	lea    0x6d8e(%rip),%rsi        # 136b2 <g_1312+0xcd2>
    c924:	48 89 c7             	mov    %rax,%rdi
    c927:	e8 c7 9d ff ff       	callq  66f3 <transparent_crc>
    c92c:	48 8b 05 3f a9 00 00 	mov    0xa93f(%rip),%rax        # 17272 <g_897+0x12>
    c933:	8b 55 fc             	mov    -0x4(%rbp),%edx
    c936:	48 8d 35 7e 6d 00 00 	lea    0x6d7e(%rip),%rsi        # 136bb <g_1312+0xcdb>
    c93d:	48 89 c7             	mov    %rax,%rdi
    c940:	e8 ae 9d ff ff       	callq  66f3 <transparent_crc>
    c945:	0f b6 05 34 a9 00 00 	movzbl 0xa934(%rip),%eax        # 17280 <g_898>
    c94c:	0f b6 c0             	movzbl %al,%eax
    c94f:	8b 55 fc             	mov    -0x4(%rbp),%edx
    c952:	48 8d 35 6b 6d 00 00 	lea    0x6d6b(%rip),%rsi        # 136c4 <g_1312+0xce4>
    c959:	48 89 c7             	mov    %rax,%rdi
    c95c:	e8 92 9d ff ff       	callq  66f3 <transparent_crc>
    c961:	0f b7 05 19 a9 00 00 	movzwl 0xa919(%rip),%eax        # 17281 <g_898+0x1>
    c968:	0f b7 c0             	movzwl %ax,%eax
    c96b:	8b 55 fc             	mov    -0x4(%rbp),%edx
    c96e:	48 8d 35 58 6d 00 00 	lea    0x6d58(%rip),%rsi        # 136cd <g_1312+0xced>
    c975:	48 89 c7             	mov    %rax,%rdi
    c978:	e8 76 9d ff ff       	callq  66f3 <transparent_crc>
    c97d:	8b 05 00 a9 00 00    	mov    0xa900(%rip),%eax        # 17283 <g_898+0x3>
    c983:	89 c1                	mov    %eax,%ecx
    c985:	8b 45 fc             	mov    -0x4(%rbp),%eax
    c988:	89 c2                	mov    %eax,%edx
    c98a:	48 8d 35 45 6d 00 00 	lea    0x6d45(%rip),%rsi        # 136d6 <g_1312+0xcf6>
    c991:	48 89 cf             	mov    %rcx,%rdi
    c994:	e8 5a 9d ff ff       	callq  66f3 <transparent_crc>
    c999:	48 8b 05 e7 a8 00 00 	mov    0xa8e7(%rip),%rax        # 17287 <g_898+0x7>
    c9a0:	8b 55 fc             	mov    -0x4(%rbp),%edx
    c9a3:	48 8d 35 35 6d 00 00 	lea    0x6d35(%rip),%rsi        # 136df <g_1312+0xcff>
    c9aa:	48 89 c7             	mov    %rax,%rdi
    c9ad:	e8 41 9d ff ff       	callq  66f3 <transparent_crc>
    c9b2:	48 8b 05 cf a8 00 00 	mov    0xa8cf(%rip),%rax        # 17288 <g_898+0x8>
    c9b9:	48 c1 e0 06          	shl    $0x6,%rax
    c9bd:	48 c1 f8 3e          	sar    $0x3e,%rax
    c9c1:	48 0f be c0          	movsbq %al,%rax
    c9c5:	8b 55 fc             	mov    -0x4(%rbp),%edx
    c9c8:	48 8d 35 19 6d 00 00 	lea    0x6d19(%rip),%rsi        # 136e8 <g_1312+0xd08>
    c9cf:	48 89 c7             	mov    %rax,%rdi
    c9d2:	e8 1c 9d ff ff       	callq  66f3 <transparent_crc>
    c9d7:	0f b6 05 b2 a8 00 00 	movzbl 0xa8b2(%rip),%eax        # 17290 <g_898+0x10>
    c9de:	48 0f be c0          	movsbq %al,%rax
    c9e2:	8b 55 fc             	mov    -0x4(%rbp),%edx
    c9e5:	48 8d 35 05 6d 00 00 	lea    0x6d05(%rip),%rsi        # 136f1 <g_1312+0xd11>
    c9ec:	48 89 c7             	mov    %rax,%rdi
    c9ef:	e8 ff 9c ff ff       	callq  66f3 <transparent_crc>
    c9f4:	0f b6 05 96 a8 00 00 	movzbl 0xa896(%rip),%eax        # 17291 <g_898+0x11>
    c9fb:	48 0f be c0          	movsbq %al,%rax
    c9ff:	8b 55 fc             	mov    -0x4(%rbp),%edx
    ca02:	48 8d 35 f1 6c 00 00 	lea    0x6cf1(%rip),%rsi        # 136fa <g_1312+0xd1a>
    ca09:	48 89 c7             	mov    %rax,%rdi
    ca0c:	e8 e2 9c ff ff       	callq  66f3 <transparent_crc>
    ca11:	48 8b 05 7a a8 00 00 	mov    0xa87a(%rip),%rax        # 17292 <g_898+0x12>
    ca18:	8b 55 fc             	mov    -0x4(%rbp),%edx
    ca1b:	48 8d 35 e1 6c 00 00 	lea    0x6ce1(%rip),%rsi        # 13703 <g_1312+0xd23>
    ca22:	48 89 c7             	mov    %rax,%rdi
    ca25:	e8 c9 9c ff ff       	callq  66f3 <transparent_crc>
    ca2a:	0f b6 05 6f a8 00 00 	movzbl 0xa86f(%rip),%eax        # 172a0 <g_902>
    ca31:	0f b6 c0             	movzbl %al,%eax
    ca34:	8b 55 fc             	mov    -0x4(%rbp),%edx
    ca37:	48 8d 35 ce 6c 00 00 	lea    0x6cce(%rip),%rsi        # 1370c <g_1312+0xd2c>
    ca3e:	48 89 c7             	mov    %rax,%rdi
    ca41:	e8 ad 9c ff ff       	callq  66f3 <transparent_crc>
    ca46:	0f b7 05 54 a8 00 00 	movzwl 0xa854(%rip),%eax        # 172a1 <g_902+0x1>
    ca4d:	0f b7 c0             	movzwl %ax,%eax
    ca50:	8b 55 fc             	mov    -0x4(%rbp),%edx
    ca53:	48 8d 35 bb 6c 00 00 	lea    0x6cbb(%rip),%rsi        # 13715 <g_1312+0xd35>
    ca5a:	48 89 c7             	mov    %rax,%rdi
    ca5d:	e8 91 9c ff ff       	callq  66f3 <transparent_crc>
    ca62:	8b 05 3b a8 00 00    	mov    0xa83b(%rip),%eax        # 172a3 <g_902+0x3>
    ca68:	89 c1                	mov    %eax,%ecx
    ca6a:	8b 45 fc             	mov    -0x4(%rbp),%eax
    ca6d:	89 c2                	mov    %eax,%edx
    ca6f:	48 8d 35 a8 6c 00 00 	lea    0x6ca8(%rip),%rsi        # 1371e <g_1312+0xd3e>
    ca76:	48 89 cf             	mov    %rcx,%rdi
    ca79:	e8 75 9c ff ff       	callq  66f3 <transparent_crc>
    ca7e:	48 8b 05 22 a8 00 00 	mov    0xa822(%rip),%rax        # 172a7 <g_902+0x7>
    ca85:	8b 55 fc             	mov    -0x4(%rbp),%edx
    ca88:	48 8d 35 98 6c 00 00 	lea    0x6c98(%rip),%rsi        # 13727 <g_1312+0xd47>
    ca8f:	48 89 c7             	mov    %rax,%rdi
    ca92:	e8 5c 9c ff ff       	callq  66f3 <transparent_crc>
    ca97:	0f b6 05 11 a8 00 00 	movzbl 0xa811(%rip),%eax        # 172af <g_902+0xf>
    ca9e:	c1 e0 06             	shl    $0x6,%eax
    caa1:	c0 f8 06             	sar    $0x6,%al
    caa4:	48 0f be c0          	movsbq %al,%rax
    caa8:	8b 55 fc             	mov    -0x4(%rbp),%edx
    caab:	48 8d 35 7e 6c 00 00 	lea    0x6c7e(%rip),%rsi        # 13730 <g_1312+0xd50>
    cab2:	48 89 c7             	mov    %rax,%rdi
    cab5:	e8 39 9c ff ff       	callq  66f3 <transparent_crc>
    caba:	0f b6 05 ef a7 00 00 	movzbl 0xa7ef(%rip),%eax        # 172b0 <g_902+0x10>
    cac1:	48 0f be c0          	movsbq %al,%rax
    cac5:	8b 55 fc             	mov    -0x4(%rbp),%edx
    cac8:	48 8d 35 6a 6c 00 00 	lea    0x6c6a(%rip),%rsi        # 13739 <g_1312+0xd59>
    cacf:	48 89 c7             	mov    %rax,%rdi
    cad2:	e8 1c 9c ff ff       	callq  66f3 <transparent_crc>
    cad7:	0f b6 05 d3 a7 00 00 	movzbl 0xa7d3(%rip),%eax        # 172b1 <g_902+0x11>
    cade:	48 0f be c0          	movsbq %al,%rax
    cae2:	8b 55 fc             	mov    -0x4(%rbp),%edx
    cae5:	48 8d 35 56 6c 00 00 	lea    0x6c56(%rip),%rsi        # 13742 <g_1312+0xd62>
    caec:	48 89 c7             	mov    %rax,%rdi
    caef:	e8 ff 9b ff ff       	callq  66f3 <transparent_crc>
    caf4:	48 8b 05 b7 a7 00 00 	mov    0xa7b7(%rip),%rax        # 172b2 <g_902+0x12>
    cafb:	8b 55 fc             	mov    -0x4(%rbp),%edx
    cafe:	48 8d 35 46 6c 00 00 	lea    0x6c46(%rip),%rsi        # 1374b <g_1312+0xd6b>
    cb05:	48 89 c7             	mov    %rax,%rdi
    cb08:	e8 e6 9b ff ff       	callq  66f3 <transparent_crc>
    cb0d:	0f b6 05 ac a7 00 00 	movzbl 0xa7ac(%rip),%eax        # 172c0 <g_918>
    cb14:	0f b6 c0             	movzbl %al,%eax
    cb17:	8b 55 fc             	mov    -0x4(%rbp),%edx
    cb1a:	48 8d 35 33 6c 00 00 	lea    0x6c33(%rip),%rsi        # 13754 <g_1312+0xd74>
    cb21:	48 89 c7             	mov    %rax,%rdi
    cb24:	e8 ca 9b ff ff       	callq  66f3 <transparent_crc>
    cb29:	0f b7 05 91 a7 00 00 	movzwl 0xa791(%rip),%eax        # 172c1 <g_918+0x1>
    cb30:	0f b7 c0             	movzwl %ax,%eax
    cb33:	8b 55 fc             	mov    -0x4(%rbp),%edx
    cb36:	48 8d 35 20 6c 00 00 	lea    0x6c20(%rip),%rsi        # 1375d <g_1312+0xd7d>
    cb3d:	48 89 c7             	mov    %rax,%rdi
    cb40:	e8 ae 9b ff ff       	callq  66f3 <transparent_crc>
    cb45:	8b 05 78 a7 00 00    	mov    0xa778(%rip),%eax        # 172c3 <g_918+0x3>
    cb4b:	89 c1                	mov    %eax,%ecx
    cb4d:	8b 45 fc             	mov    -0x4(%rbp),%eax
    cb50:	89 c2                	mov    %eax,%edx
    cb52:	48 8d 35 0d 6c 00 00 	lea    0x6c0d(%rip),%rsi        # 13766 <g_1312+0xd86>
    cb59:	48 89 cf             	mov    %rcx,%rdi
    cb5c:	e8 92 9b ff ff       	callq  66f3 <transparent_crc>
    cb61:	48 8b 05 5f a7 00 00 	mov    0xa75f(%rip),%rax        # 172c7 <g_918+0x7>
    cb68:	8b 55 fc             	mov    -0x4(%rbp),%edx
    cb6b:	48 8d 35 fd 6b 00 00 	lea    0x6bfd(%rip),%rsi        # 1376f <g_1312+0xd8f>
    cb72:	48 89 c7             	mov    %rax,%rdi
    cb75:	e8 79 9b ff ff       	callq  66f3 <transparent_crc>
    cb7a:	0f b6 05 4e a7 00 00 	movzbl 0xa74e(%rip),%eax        # 172cf <g_918+0xf>
    cb81:	c1 e0 06             	shl    $0x6,%eax
    cb84:	c0 f8 06             	sar    $0x6,%al
    cb87:	48 0f be c0          	movsbq %al,%rax
    cb8b:	8b 55 fc             	mov    -0x4(%rbp),%edx
    cb8e:	48 8d 35 e3 6b 00 00 	lea    0x6be3(%rip),%rsi        # 13778 <g_1312+0xd98>
    cb95:	48 89 c7             	mov    %rax,%rdi
    cb98:	e8 56 9b ff ff       	callq  66f3 <transparent_crc>
    cb9d:	0f b6 05 2c a7 00 00 	movzbl 0xa72c(%rip),%eax        # 172d0 <g_918+0x10>
    cba4:	48 0f be c0          	movsbq %al,%rax
    cba8:	8b 55 fc             	mov    -0x4(%rbp),%edx
    cbab:	48 8d 35 cf 6b 00 00 	lea    0x6bcf(%rip),%rsi        # 13781 <g_1312+0xda1>
    cbb2:	48 89 c7             	mov    %rax,%rdi
    cbb5:	e8 39 9b ff ff       	callq  66f3 <transparent_crc>
    cbba:	0f b6 05 10 a7 00 00 	movzbl 0xa710(%rip),%eax        # 172d1 <g_918+0x11>
    cbc1:	48 0f be c0          	movsbq %al,%rax
    cbc5:	8b 55 fc             	mov    -0x4(%rbp),%edx
    cbc8:	48 8d 35 bb 6b 00 00 	lea    0x6bbb(%rip),%rsi        # 1378a <g_1312+0xdaa>
    cbcf:	48 89 c7             	mov    %rax,%rdi
    cbd2:	e8 1c 9b ff ff       	callq  66f3 <transparent_crc>
    cbd7:	48 8b 05 f4 a6 00 00 	mov    0xa6f4(%rip),%rax        # 172d2 <g_918+0x12>
    cbde:	8b 55 fc             	mov    -0x4(%rbp),%edx
    cbe1:	48 8d 35 ab 6b 00 00 	lea    0x6bab(%rip),%rsi        # 13793 <g_1312+0xdb3>
    cbe8:	48 89 c7             	mov    %rax,%rdi
    cbeb:	e8 03 9b ff ff       	callq  66f3 <transparent_crc>
    cbf0:	c7 45 f0 00 00 00 00 	movl   $0x0,-0x10(%rbp)
    cbf7:	eb 4b                	jmp    cc44 <main+0xfd9>
    cbf9:	8b 45 f0             	mov    -0x10(%rbp),%eax
    cbfc:	48 98                	cltq   
    cbfe:	48 8d 14 85 00 00 00 	lea    0x0(,%rax,4),%rdx
    cc05:	00 
    cc06:	48 8d 05 d3 a6 00 00 	lea    0xa6d3(%rip),%rax        # 172e0 <g_936>
    cc0d:	8b 04 02             	mov    (%rdx,%rax,1),%eax
    cc10:	48 98                	cltq   
    cc12:	8b 55 fc             	mov    -0x4(%rbp),%edx
    cc15:	48 8d 35 80 6b 00 00 	lea    0x6b80(%rip),%rsi        # 1379c <g_1312+0xdbc>
    cc1c:	48 89 c7             	mov    %rax,%rdi
    cc1f:	e8 cf 9a ff ff       	callq  66f3 <transparent_crc>
    cc24:	83 7d fc 00          	cmpl   $0x0,-0x4(%rbp)
    cc28:	74 16                	je     cc40 <main+0xfd5>
    cc2a:	8b 45 f0             	mov    -0x10(%rbp),%eax
    cc2d:	89 c6                	mov    %eax,%esi
    cc2f:	48 8d 3d bc 67 00 00 	lea    0x67bc(%rip),%rdi        # 133f2 <g_1312+0xa12>
    cc36:	b8 00 00 00 00       	mov    $0x0,%eax
    cc3b:	e8 40 84 ff ff       	callq  5080 <printf@plt>
    cc40:	83 45 f0 01          	addl   $0x1,-0x10(%rbp)
    cc44:	83 7d f0 04          	cmpl   $0x4,-0x10(%rbp)
    cc48:	7e af                	jle    cbf9 <main+0xf8e>
    cc4a:	0f b6 05 ff a6 00 00 	movzbl 0xa6ff(%rip),%eax        # 17350 <g_1028>
    cc51:	0f b6 c0             	movzbl %al,%eax
    cc54:	8b 55 fc             	mov    -0x4(%rbp),%edx
    cc57:	48 8d 35 47 6b 00 00 	lea    0x6b47(%rip),%rsi        # 137a5 <g_1312+0xdc5>
    cc5e:	48 89 c7             	mov    %rax,%rdi
    cc61:	e8 8d 9a ff ff       	callq  66f3 <transparent_crc>
    cc66:	8b 05 e8 a6 00 00    	mov    0xa6e8(%rip),%eax        # 17354 <g_1141>
    cc6c:	89 c1                	mov    %eax,%ecx
    cc6e:	8b 45 fc             	mov    -0x4(%rbp),%eax
    cc71:	89 c2                	mov    %eax,%edx
    cc73:	48 8d 35 32 6b 00 00 	lea    0x6b32(%rip),%rsi        # 137ac <g_1312+0xdcc>
    cc7a:	48 89 cf             	mov    %rcx,%rdi
    cc7d:	e8 71 9a ff ff       	callq  66f3 <transparent_crc>
    cc82:	0f b7 05 cf a6 00 00 	movzwl 0xa6cf(%rip),%eax        # 17358 <g_1165>
    cc89:	0f b7 c0             	movzwl %ax,%eax
    cc8c:	8b 55 fc             	mov    -0x4(%rbp),%edx
    cc8f:	48 8d 35 1d 6b 00 00 	lea    0x6b1d(%rip),%rsi        # 137b3 <g_1312+0xdd3>
    cc96:	48 89 c7             	mov    %rax,%rdi
    cc99:	e8 55 9a ff ff       	callq  66f3 <transparent_crc>
    cc9e:	8b 05 b8 a6 00 00    	mov    0xa6b8(%rip),%eax        # 1735c <g_1172>
    cca4:	48 98                	cltq   
    cca6:	8b 55 fc             	mov    -0x4(%rbp),%edx
    cca9:	48 8d 35 0a 6b 00 00 	lea    0x6b0a(%rip),%rsi        # 137ba <g_1312+0xdda>
    ccb0:	48 89 c7             	mov    %rax,%rdi
    ccb3:	e8 3b 9a ff ff       	callq  66f3 <transparent_crc>
    ccb8:	c7 45 f0 00 00 00 00 	movl   $0x0,-0x10(%rbp)
    ccbf:	eb 4b                	jmp    cd0c <main+0x10a1>
    ccc1:	8b 45 f0             	mov    -0x10(%rbp),%eax
    ccc4:	48 98                	cltq   
    ccc6:	48 8d 14 85 00 00 00 	lea    0x0(,%rax,4),%rdx
    cccd:	00 
    ccce:	48 8d 05 8b a6 00 00 	lea    0xa68b(%rip),%rax        # 17360 <g_1207>
    ccd5:	8b 04 02             	mov    (%rdx,%rax,1),%eax
    ccd8:	48 98                	cltq   
    ccda:	8b 55 fc             	mov    -0x4(%rbp),%edx
    ccdd:	48 8d 35 dd 6a 00 00 	lea    0x6add(%rip),%rsi        # 137c1 <g_1312+0xde1>
    cce4:	48 89 c7             	mov    %rax,%rdi
    cce7:	e8 07 9a ff ff       	callq  66f3 <transparent_crc>
    ccec:	83 7d fc 00          	cmpl   $0x0,-0x4(%rbp)
    ccf0:	74 16                	je     cd08 <main+0x109d>
    ccf2:	8b 45 f0             	mov    -0x10(%rbp),%eax
    ccf5:	89 c6                	mov    %eax,%esi
    ccf7:	48 8d 3d f4 66 00 00 	lea    0x66f4(%rip),%rdi        # 133f2 <g_1312+0xa12>
    ccfe:	b8 00 00 00 00       	mov    $0x0,%eax
    cd03:	e8 78 83 ff ff       	callq  5080 <printf@plt>
    cd08:	83 45 f0 01          	addl   $0x1,-0x10(%rbp)
    cd0c:	83 7d f0 03          	cmpl   $0x3,-0x10(%rbp)
    cd10:	7e af                	jle    ccc1 <main+0x1056>
    cd12:	0f b6 05 57 a6 00 00 	movzbl 0xa657(%rip),%eax        # 17370 <g_1284>
    cd19:	0f b6 c0             	movzbl %al,%eax
    cd1c:	8b 55 fc             	mov    -0x4(%rbp),%edx
    cd1f:	48 8d 35 a5 6a 00 00 	lea    0x6aa5(%rip),%rsi        # 137cb <g_1312+0xdeb>
    cd26:	48 89 c7             	mov    %rax,%rdi
    cd29:	e8 c5 99 ff ff       	callq  66f3 <transparent_crc>
    cd2e:	0f b7 05 3c a6 00 00 	movzwl 0xa63c(%rip),%eax        # 17371 <g_1284+0x1>
    cd35:	0f b7 c0             	movzwl %ax,%eax
    cd38:	8b 55 fc             	mov    -0x4(%rbp),%edx
    cd3b:	48 8d 35 93 6a 00 00 	lea    0x6a93(%rip),%rsi        # 137d5 <g_1312+0xdf5>
    cd42:	48 89 c7             	mov    %rax,%rdi
    cd45:	e8 a9 99 ff ff       	callq  66f3 <transparent_crc>
    cd4a:	8b 05 23 a6 00 00    	mov    0xa623(%rip),%eax        # 17373 <g_1284+0x3>
    cd50:	89 c1                	mov    %eax,%ecx
    cd52:	8b 45 fc             	mov    -0x4(%rbp),%eax
    cd55:	89 c2                	mov    %eax,%edx
    cd57:	48 8d 35 81 6a 00 00 	lea    0x6a81(%rip),%rsi        # 137df <g_1312+0xdff>
    cd5e:	48 89 cf             	mov    %rcx,%rdi
    cd61:	e8 8d 99 ff ff       	callq  66f3 <transparent_crc>
    cd66:	48 8b 05 0a a6 00 00 	mov    0xa60a(%rip),%rax        # 17377 <g_1284+0x7>
    cd6d:	8b 55 fc             	mov    -0x4(%rbp),%edx
    cd70:	48 8d 35 72 6a 00 00 	lea    0x6a72(%rip),%rsi        # 137e9 <g_1312+0xe09>
    cd77:	48 89 c7             	mov    %rax,%rdi
    cd7a:	e8 74 99 ff ff       	callq  66f3 <transparent_crc>
    cd7f:	0f b6 05 f9 a5 00 00 	movzbl 0xa5f9(%rip),%eax        # 1737f <g_1284+0xf>
    cd86:	c1 e0 06             	shl    $0x6,%eax
    cd89:	c0 f8 06             	sar    $0x6,%al
    cd8c:	48 0f be c0          	movsbq %al,%rax
    cd90:	8b 55 fc             	mov    -0x4(%rbp),%edx
    cd93:	48 8d 35 59 6a 00 00 	lea    0x6a59(%rip),%rsi        # 137f3 <g_1312+0xe13>
    cd9a:	48 89 c7             	mov    %rax,%rdi
    cd9d:	e8 51 99 ff ff       	callq  66f3 <transparent_crc>
    cda2:	0f b6 05 d7 a5 00 00 	movzbl 0xa5d7(%rip),%eax        # 17380 <g_1284+0x10>
    cda9:	48 0f be c0          	movsbq %al,%rax
    cdad:	8b 55 fc             	mov    -0x4(%rbp),%edx
    cdb0:	48 8d 35 46 6a 00 00 	lea    0x6a46(%rip),%rsi        # 137fd <g_1312+0xe1d>
    cdb7:	48 89 c7             	mov    %rax,%rdi
    cdba:	e8 34 99 ff ff       	callq  66f3 <transparent_crc>
    cdbf:	0f b6 05 bb a5 00 00 	movzbl 0xa5bb(%rip),%eax        # 17381 <g_1284+0x11>
    cdc6:	48 0f be c0          	movsbq %al,%rax
    cdca:	8b 55 fc             	mov    -0x4(%rbp),%edx
    cdcd:	48 8d 35 33 6a 00 00 	lea    0x6a33(%rip),%rsi        # 13807 <g_1312+0xe27>
    cdd4:	48 89 c7             	mov    %rax,%rdi
    cdd7:	e8 17 99 ff ff       	callq  66f3 <transparent_crc>
    cddc:	48 8b 05 9f a5 00 00 	mov    0xa59f(%rip),%rax        # 17382 <g_1284+0x12>
    cde3:	8b 55 fc             	mov    -0x4(%rbp),%edx
    cde6:	48 8d 35 24 6a 00 00 	lea    0x6a24(%rip),%rsi        # 13811 <g_1312+0xe31>
    cded:	48 89 c7             	mov    %rax,%rdi
    cdf0:	e8 fe 98 ff ff       	callq  66f3 <transparent_crc>
    cdf5:	0f b6 05 64 32 00 00 	movzbl 0x3264(%rip),%eax        # 10060 <g_1292>
    cdfc:	0f b6 c0             	movzbl %al,%eax
    cdff:	8b 55 fc             	mov    -0x4(%rbp),%edx
    ce02:	48 8d 35 12 6a 00 00 	lea    0x6a12(%rip),%rsi        # 1381b <g_1312+0xe3b>
    ce09:	48 89 c7             	mov    %rax,%rdi
    ce0c:	e8 e2 98 ff ff       	callq  66f3 <transparent_crc>
    ce11:	0f b7 05 49 32 00 00 	movzwl 0x3249(%rip),%eax        # 10061 <g_1292+0x1>
    ce18:	0f b7 c0             	movzwl %ax,%eax
    ce1b:	8b 55 fc             	mov    -0x4(%rbp),%edx
    ce1e:	48 8d 35 00 6a 00 00 	lea    0x6a00(%rip),%rsi        # 13825 <g_1312+0xe45>
    ce25:	48 89 c7             	mov    %rax,%rdi
    ce28:	e8 c6 98 ff ff       	callq  66f3 <transparent_crc>
    ce2d:	b8 f8 ff ff ff       	mov    $0xfffffff8,%eax
    ce32:	89 c1                	mov    %eax,%ecx
    ce34:	8b 45 fc             	mov    -0x4(%rbp),%eax
    ce37:	89 c2                	mov    %eax,%edx
    ce39:	48 8d 35 ef 69 00 00 	lea    0x69ef(%rip),%rsi        # 1382f <g_1312+0xe4f>
    ce40:	48 89 cf             	mov    %rcx,%rdi
    ce43:	e8 ab 98 ff ff       	callq  66f3 <transparent_crc>
    ce48:	48 8b 05 18 32 00 00 	mov    0x3218(%rip),%rax        # 10067 <g_1292+0x7>
    ce4f:	8b 55 fc             	mov    -0x4(%rbp),%edx
    ce52:	48 8d 35 e0 69 00 00 	lea    0x69e0(%rip),%rsi        # 13839 <g_1312+0xe59>
    ce59:	48 89 c7             	mov    %rax,%rdi
    ce5c:	e8 92 98 ff ff       	callq  66f3 <transparent_crc>
    ce61:	b8 01 00 00 00       	mov    $0x1,%eax
    ce66:	48 0f be c0          	movsbq %al,%rax
    ce6a:	8b 55 fc             	mov    -0x4(%rbp),%edx
    ce6d:	48 8d 35 cf 69 00 00 	lea    0x69cf(%rip),%rsi        # 13843 <g_1312+0xe63>
    ce74:	48 89 c7             	mov    %rax,%rdi
    ce77:	e8 77 98 ff ff       	callq  66f3 <transparent_crc>
    ce7c:	0f b6 05 ed 31 00 00 	movzbl 0x31ed(%rip),%eax        # 10070 <g_1292+0x10>
    ce83:	48 0f be c0          	movsbq %al,%rax
    ce87:	8b 55 fc             	mov    -0x4(%rbp),%edx
    ce8a:	48 8d 35 bc 69 00 00 	lea    0x69bc(%rip),%rsi        # 1384d <g_1312+0xe6d>
    ce91:	48 89 c7             	mov    %rax,%rdi
    ce94:	e8 5a 98 ff ff       	callq  66f3 <transparent_crc>
    ce99:	b8 f9 ff ff ff       	mov    $0xfffffff9,%eax
    ce9e:	48 0f be c0          	movsbq %al,%rax
    cea2:	8b 55 fc             	mov    -0x4(%rbp),%edx
    cea5:	48 8d 35 ab 69 00 00 	lea    0x69ab(%rip),%rsi        # 13857 <g_1312+0xe77>
    ceac:	48 89 c7             	mov    %rax,%rdi
    ceaf:	e8 3f 98 ff ff       	callq  66f3 <transparent_crc>
    ceb4:	48 8b 05 b7 31 00 00 	mov    0x31b7(%rip),%rax        # 10072 <g_1292+0x12>
    cebb:	8b 55 fc             	mov    -0x4(%rbp),%edx
    cebe:	48 8d 35 9c 69 00 00 	lea    0x699c(%rip),%rsi        # 13861 <g_1312+0xe81>
    cec5:	48 89 c7             	mov    %rax,%rdi
    cec8:	e8 26 98 ff ff       	callq  66f3 <transparent_crc>
    cecd:	0f b6 05 bc a4 00 00 	movzbl 0xa4bc(%rip),%eax        # 17390 <g_1293>
    ced4:	0f b6 c0             	movzbl %al,%eax
    ced7:	8b 55 fc             	mov    -0x4(%rbp),%edx
    ceda:	48 8d 35 8a 69 00 00 	lea    0x698a(%rip),%rsi        # 1386b <g_1312+0xe8b>
    cee1:	48 89 c7             	mov    %rax,%rdi
    cee4:	e8 0a 98 ff ff       	callq  66f3 <transparent_crc>
    cee9:	0f b7 05 a1 a4 00 00 	movzwl 0xa4a1(%rip),%eax        # 17391 <g_1293+0x1>
    cef0:	0f b7 c0             	movzwl %ax,%eax
    cef3:	8b 55 fc             	mov    -0x4(%rbp),%edx
    cef6:	48 8d 35 78 69 00 00 	lea    0x6978(%rip),%rsi        # 13875 <g_1312+0xe95>
    cefd:	48 89 c7             	mov    %rax,%rdi
    cf00:	e8 ee 97 ff ff       	callq  66f3 <transparent_crc>
    cf05:	8b 05 88 a4 00 00    	mov    0xa488(%rip),%eax        # 17393 <g_1293+0x3>
    cf0b:	89 c1                	mov    %eax,%ecx
    cf0d:	8b 45 fc             	mov    -0x4(%rbp),%eax
    cf10:	89 c2                	mov    %eax,%edx
    cf12:	48 8d 35 66 69 00 00 	lea    0x6966(%rip),%rsi        # 1387f <g_1312+0xe9f>
    cf19:	48 89 cf             	mov    %rcx,%rdi
    cf1c:	e8 d2 97 ff ff       	callq  66f3 <transparent_crc>
    cf21:	48 8b 05 6f a4 00 00 	mov    0xa46f(%rip),%rax        # 17397 <g_1293+0x7>
    cf28:	8b 55 fc             	mov    -0x4(%rbp),%edx
    cf2b:	48 8d 35 57 69 00 00 	lea    0x6957(%rip),%rsi        # 13889 <g_1312+0xea9>
    cf32:	48 89 c7             	mov    %rax,%rdi
    cf35:	e8 b9 97 ff ff       	callq  66f3 <transparent_crc>
    cf3a:	0f b6 05 5e a4 00 00 	movzbl 0xa45e(%rip),%eax        # 1739f <g_1293+0xf>
    cf41:	c1 e0 06             	shl    $0x6,%eax
    cf44:	c0 f8 06             	sar    $0x6,%al
    cf47:	48 0f be c0          	movsbq %al,%rax
    cf4b:	8b 55 fc             	mov    -0x4(%rbp),%edx
    cf4e:	48 8d 35 3e 69 00 00 	lea    0x693e(%rip),%rsi        # 13893 <g_1312+0xeb3>
    cf55:	48 89 c7             	mov    %rax,%rdi
    cf58:	e8 96 97 ff ff       	callq  66f3 <transparent_crc>
    cf5d:	0f b6 05 3c a4 00 00 	movzbl 0xa43c(%rip),%eax        # 173a0 <g_1293+0x10>
    cf64:	48 0f be c0          	movsbq %al,%rax
    cf68:	8b 55 fc             	mov    -0x4(%rbp),%edx
    cf6b:	48 8d 35 2b 69 00 00 	lea    0x692b(%rip),%rsi        # 1389d <g_1312+0xebd>
    cf72:	48 89 c7             	mov    %rax,%rdi
    cf75:	e8 79 97 ff ff       	callq  66f3 <transparent_crc>
    cf7a:	0f b6 05 20 a4 00 00 	movzbl 0xa420(%rip),%eax        # 173a1 <g_1293+0x11>
    cf81:	48 0f be c0          	movsbq %al,%rax
    cf85:	8b 55 fc             	mov    -0x4(%rbp),%edx
    cf88:	48 8d 35 18 69 00 00 	lea    0x6918(%rip),%rsi        # 138a7 <g_1312+0xec7>
    cf8f:	48 89 c7             	mov    %rax,%rdi
    cf92:	e8 5c 97 ff ff       	callq  66f3 <transparent_crc>
    cf97:	48 8b 05 04 a4 00 00 	mov    0xa404(%rip),%rax        # 173a2 <g_1293+0x12>
    cf9e:	8b 55 fc             	mov    -0x4(%rbp),%edx
    cfa1:	48 8d 35 09 69 00 00 	lea    0x6909(%rip),%rsi        # 138b1 <g_1312+0xed1>
    cfa8:	48 89 c7             	mov    %rax,%rdi
    cfab:	e8 43 97 ff ff       	callq  66f3 <transparent_crc>
    cfb0:	c7 45 f0 00 00 00 00 	movl   $0x0,-0x10(%rbp)
    cfb7:	e9 1d 03 00 00       	jmpq   d2d9 <main+0x166e>
    cfbc:	c7 45 f4 00 00 00 00 	movl   $0x0,-0xc(%rbp)
    cfc3:	e9 03 03 00 00       	jmpq   d2cb <main+0x1660>
    cfc8:	8b 45 f4             	mov    -0xc(%rbp),%eax
    cfcb:	48 98                	cltq   
    cfcd:	8b 55 f0             	mov    -0x10(%rbp),%edx
    cfd0:	48 63 ca             	movslq %edx,%rcx
    cfd3:	48 89 c2             	mov    %rax,%rdx
    cfd6:	48 01 d2             	add    %rdx,%rdx
    cfd9:	48 01 c2             	add    %rax,%rdx
    cfdc:	48 c1 e2 02          	shl    $0x2,%rdx
    cfe0:	48 01 c2             	add    %rax,%rdx
    cfe3:	48 8d 04 12          	lea    (%rdx,%rdx,1),%rax
    cfe7:	48 89 c2             	mov    %rax,%rdx
    cfea:	48 89 c8             	mov    %rcx,%rax
    cfed:	48 01 c0             	add    %rax,%rax
    cff0:	48 01 c8             	add    %rcx,%rax
    cff3:	48 c1 e0 02          	shl    $0x2,%rax
    cff7:	48 01 c8             	add    %rcx,%rax
    cffa:	48 c1 e0 04          	shl    $0x4,%rax
    cffe:	48 01 c2             	add    %rax,%rdx
    d001:	48 8d 05 78 30 00 00 	lea    0x3078(%rip),%rax        # 10080 <g_1294>
    d008:	48 01 d0             	add    %rdx,%rax
    d00b:	0f b6 00             	movzbl (%rax),%eax
    d00e:	0f b6 c0             	movzbl %al,%eax
    d011:	8b 55 fc             	mov    -0x4(%rbp),%edx
    d014:	48 8d 35 a0 68 00 00 	lea    0x68a0(%rip),%rsi        # 138bb <g_1312+0xedb>
    d01b:	48 89 c7             	mov    %rax,%rdi
    d01e:	e8 d0 96 ff ff       	callq  66f3 <transparent_crc>
    d023:	8b 45 f4             	mov    -0xc(%rbp),%eax
    d026:	48 98                	cltq   
    d028:	8b 55 f0             	mov    -0x10(%rbp),%edx
    d02b:	48 63 ca             	movslq %edx,%rcx
    d02e:	48 89 c2             	mov    %rax,%rdx
    d031:	48 01 d2             	add    %rdx,%rdx
    d034:	48 01 c2             	add    %rax,%rdx
    d037:	48 c1 e2 02          	shl    $0x2,%rdx
    d03b:	48 01 c2             	add    %rax,%rdx
    d03e:	48 8d 04 12          	lea    (%rdx,%rdx,1),%rax
    d042:	48 89 c2             	mov    %rax,%rdx
    d045:	48 89 c8             	mov    %rcx,%rax
    d048:	48 01 c0             	add    %rax,%rax
    d04b:	48 01 c8             	add    %rcx,%rax
    d04e:	48 c1 e0 02          	shl    $0x2,%rax
    d052:	48 01 c8             	add    %rcx,%rax
    d055:	48 c1 e0 04          	shl    $0x4,%rax
    d059:	48 01 c2             	add    %rax,%rdx
    d05c:	48 8d 05 1d 30 00 00 	lea    0x301d(%rip),%rax        # 10080 <g_1294>
    d063:	48 01 d0             	add    %rdx,%rax
    d066:	0f b7 40 01          	movzwl 0x1(%rax),%eax
    d06a:	0f b7 c0             	movzwl %ax,%eax
    d06d:	8b 55 fc             	mov    -0x4(%rbp),%edx
    d070:	48 8d 35 54 68 00 00 	lea    0x6854(%rip),%rsi        # 138cb <g_1312+0xeeb>
    d077:	48 89 c7             	mov    %rax,%rdi
    d07a:	e8 74 96 ff ff       	callq  66f3 <transparent_crc>
    d07f:	8b 45 f4             	mov    -0xc(%rbp),%eax
    d082:	48 98                	cltq   
    d084:	8b 55 f0             	mov    -0x10(%rbp),%edx
    d087:	48 63 ca             	movslq %edx,%rcx
    d08a:	48 89 c2             	mov    %rax,%rdx
    d08d:	48 01 d2             	add    %rdx,%rdx
    d090:	48 01 c2             	add    %rax,%rdx
    d093:	48 c1 e2 02          	shl    $0x2,%rdx
    d097:	48 01 c2             	add    %rax,%rdx
    d09a:	48 8d 04 12          	lea    (%rdx,%rdx,1),%rax
    d09e:	48 89 c2             	mov    %rax,%rdx
    d0a1:	48 89 c8             	mov    %rcx,%rax
    d0a4:	48 01 c0             	add    %rax,%rax
    d0a7:	48 01 c8             	add    %rcx,%rax
    d0aa:	48 c1 e0 02          	shl    $0x2,%rax
    d0ae:	48 01 c8             	add    %rcx,%rax
    d0b1:	48 c1 e0 04          	shl    $0x4,%rax
    d0b5:	48 01 c2             	add    %rax,%rdx
    d0b8:	48 8d 05 c1 2f 00 00 	lea    0x2fc1(%rip),%rax        # 10080 <g_1294>
    d0bf:	48 01 d0             	add    %rdx,%rax
    d0c2:	8b 40 03             	mov    0x3(%rax),%eax
    d0c5:	89 c1                	mov    %eax,%ecx
    d0c7:	8b 45 fc             	mov    -0x4(%rbp),%eax
    d0ca:	89 c2                	mov    %eax,%edx
    d0cc:	48 8d 35 08 68 00 00 	lea    0x6808(%rip),%rsi        # 138db <g_1312+0xefb>
    d0d3:	48 89 cf             	mov    %rcx,%rdi
    d0d6:	e8 18 96 ff ff       	callq  66f3 <transparent_crc>
    d0db:	8b 45 f4             	mov    -0xc(%rbp),%eax
    d0de:	48 98                	cltq   
    d0e0:	8b 55 f0             	mov    -0x10(%rbp),%edx
    d0e3:	48 63 ca             	movslq %edx,%rcx
    d0e6:	48 89 c2             	mov    %rax,%rdx
    d0e9:	48 01 d2             	add    %rdx,%rdx
    d0ec:	48 01 c2             	add    %rax,%rdx
    d0ef:	48 c1 e2 02          	shl    $0x2,%rdx
    d0f3:	48 01 c2             	add    %rax,%rdx
    d0f6:	48 8d 04 12          	lea    (%rdx,%rdx,1),%rax
    d0fa:	48 89 c2             	mov    %rax,%rdx
    d0fd:	48 89 c8             	mov    %rcx,%rax
    d100:	48 01 c0             	add    %rax,%rax
    d103:	48 01 c8             	add    %rcx,%rax
    d106:	48 c1 e0 02          	shl    $0x2,%rax
    d10a:	48 01 c8             	add    %rcx,%rax
    d10d:	48 c1 e0 04          	shl    $0x4,%rax
    d111:	48 01 c2             	add    %rax,%rdx
    d114:	48 8d 05 65 2f 00 00 	lea    0x2f65(%rip),%rax        # 10080 <g_1294>
    d11b:	48 01 d0             	add    %rdx,%rax
    d11e:	48 8b 40 07          	mov    0x7(%rax),%rax
    d122:	8b 55 fc             	mov    -0x4(%rbp),%edx
    d125:	48 8d 35 bf 67 00 00 	lea    0x67bf(%rip),%rsi        # 138eb <g_1312+0xf0b>
    d12c:	48 89 c7             	mov    %rax,%rdi
    d12f:	e8 bf 95 ff ff       	callq  66f3 <transparent_crc>
    d134:	8b 45 f4             	mov    -0xc(%rbp),%eax
    d137:	48 98                	cltq   
    d139:	8b 55 f0             	mov    -0x10(%rbp),%edx
    d13c:	48 63 ca             	movslq %edx,%rcx
    d13f:	48 89 c2             	mov    %rax,%rdx
    d142:	48 01 d2             	add    %rdx,%rdx
    d145:	48 01 c2             	add    %rax,%rdx
    d148:	48 c1 e2 02          	shl    $0x2,%rdx
    d14c:	48 01 c2             	add    %rax,%rdx
    d14f:	48 8d 04 12          	lea    (%rdx,%rdx,1),%rax
    d153:	48 89 c2             	mov    %rax,%rdx
    d156:	48 89 c8             	mov    %rcx,%rax
    d159:	48 01 c0             	add    %rax,%rax
    d15c:	48 01 c8             	add    %rcx,%rax
    d15f:	48 c1 e0 02          	shl    $0x2,%rax
    d163:	48 01 c8             	add    %rcx,%rax
    d166:	48 c1 e0 04          	shl    $0x4,%rax
    d16a:	48 01 c2             	add    %rax,%rdx
    d16d:	48 8d 05 0c 2f 00 00 	lea    0x2f0c(%rip),%rax        # 10080 <g_1294>
    d174:	48 01 d0             	add    %rdx,%rax
    d177:	0f b6 40 0f          	movzbl 0xf(%rax),%eax
    d17b:	c1 e0 06             	shl    $0x6,%eax
    d17e:	c0 f8 06             	sar    $0x6,%al
    d181:	48 0f be c0          	movsbq %al,%rax
    d185:	8b 55 fc             	mov    -0x4(%rbp),%edx
    d188:	48 8d 35 6c 67 00 00 	lea    0x676c(%rip),%rsi        # 138fb <g_1312+0xf1b>
    d18f:	48 89 c7             	mov    %rax,%rdi
    d192:	e8 5c 95 ff ff       	callq  66f3 <transparent_crc>
    d197:	8b 45 f4             	mov    -0xc(%rbp),%eax
    d19a:	48 98                	cltq   
    d19c:	8b 55 f0             	mov    -0x10(%rbp),%edx
    d19f:	48 63 ca             	movslq %edx,%rcx
    d1a2:	48 89 c2             	mov    %rax,%rdx
    d1a5:	48 01 d2             	add    %rdx,%rdx
    d1a8:	48 01 c2             	add    %rax,%rdx
    d1ab:	48 c1 e2 02          	shl    $0x2,%rdx
    d1af:	48 01 c2             	add    %rax,%rdx
    d1b2:	48 8d 04 12          	lea    (%rdx,%rdx,1),%rax
    d1b6:	48 89 c2             	mov    %rax,%rdx
    d1b9:	48 89 c8             	mov    %rcx,%rax
    d1bc:	48 01 c0             	add    %rax,%rax
    d1bf:	48 01 c8             	add    %rcx,%rax
    d1c2:	48 c1 e0 02          	shl    $0x2,%rax
    d1c6:	48 01 c8             	add    %rcx,%rax
    d1c9:	48 c1 e0 04          	shl    $0x4,%rax
    d1cd:	48 01 c2             	add    %rax,%rdx
    d1d0:	48 8d 05 b9 2e 00 00 	lea    0x2eb9(%rip),%rax        # 10090 <g_1294+0x10>
    d1d7:	48 01 d0             	add    %rdx,%rax
    d1da:	0f b6 00             	movzbl (%rax),%eax
    d1dd:	48 0f be c0          	movsbq %al,%rax
    d1e1:	8b 55 fc             	mov    -0x4(%rbp),%edx
    d1e4:	48 8d 35 20 67 00 00 	lea    0x6720(%rip),%rsi        # 1390b <g_1312+0xf2b>
    d1eb:	48 89 c7             	mov    %rax,%rdi
    d1ee:	e8 00 95 ff ff       	callq  66f3 <transparent_crc>
    d1f3:	8b 45 f4             	mov    -0xc(%rbp),%eax
    d1f6:	48 98                	cltq   
    d1f8:	8b 55 f0             	mov    -0x10(%rbp),%edx
    d1fb:	48 63 ca             	movslq %edx,%rcx
    d1fe:	48 89 c2             	mov    %rax,%rdx
    d201:	48 01 d2             	add    %rdx,%rdx
    d204:	48 01 c2             	add    %rax,%rdx
    d207:	48 c1 e2 02          	shl    $0x2,%rdx
    d20b:	48 01 c2             	add    %rax,%rdx
    d20e:	48 8d 04 12          	lea    (%rdx,%rdx,1),%rax
    d212:	48 89 c2             	mov    %rax,%rdx
    d215:	48 89 c8             	mov    %rcx,%rax
    d218:	48 01 c0             	add    %rax,%rax
    d21b:	48 01 c8             	add    %rcx,%rax
    d21e:	48 c1 e0 02          	shl    $0x2,%rax
    d222:	48 01 c8             	add    %rcx,%rax
    d225:	48 c1 e0 04          	shl    $0x4,%rax
    d229:	48 01 c2             	add    %rax,%rdx
    d22c:	48 8d 05 5e 2e 00 00 	lea    0x2e5e(%rip),%rax        # 10091 <g_1294+0x11>
    d233:	48 01 d0             	add    %rdx,%rax
    d236:	0f b6 00             	movzbl (%rax),%eax
    d239:	48 0f be c0          	movsbq %al,%rax
    d23d:	8b 55 fc             	mov    -0x4(%rbp),%edx
    d240:	48 8d 35 d4 66 00 00 	lea    0x66d4(%rip),%rsi        # 1391b <g_1312+0xf3b>
    d247:	48 89 c7             	mov    %rax,%rdi
    d24a:	e8 a4 94 ff ff       	callq  66f3 <transparent_crc>
    d24f:	8b 45 f4             	mov    -0xc(%rbp),%eax
    d252:	48 98                	cltq   
    d254:	8b 55 f0             	mov    -0x10(%rbp),%edx
    d257:	48 63 ca             	movslq %edx,%rcx
    d25a:	48 89 c2             	mov    %rax,%rdx
    d25d:	48 01 d2             	add    %rdx,%rdx
    d260:	48 01 c2             	add    %rax,%rdx
    d263:	48 c1 e2 02          	shl    $0x2,%rdx
    d267:	48 01 c2             	add    %rax,%rdx
    d26a:	48 8d 04 12          	lea    (%rdx,%rdx,1),%rax
    d26e:	48 89 c2             	mov    %rax,%rdx
    d271:	48 89 c8             	mov    %rcx,%rax
    d274:	48 01 c0             	add    %rax,%rax
    d277:	48 01 c8             	add    %rcx,%rax
    d27a:	48 c1 e0 02          	shl    $0x2,%rax
    d27e:	48 01 c8             	add    %rcx,%rax
    d281:	48 c1 e0 04          	shl    $0x4,%rax
    d285:	48 01 c2             	add    %rax,%rdx
    d288:	48 8d 05 01 2e 00 00 	lea    0x2e01(%rip),%rax        # 10090 <g_1294+0x10>
    d28f:	48 01 d0             	add    %rdx,%rax
    d292:	48 8b 40 02          	mov    0x2(%rax),%rax
    d296:	8b 55 fc             	mov    -0x4(%rbp),%edx
    d299:	48 8d 35 8b 66 00 00 	lea    0x668b(%rip),%rsi        # 1392b <g_1312+0xf4b>
    d2a0:	48 89 c7             	mov    %rax,%rdi
    d2a3:	e8 4b 94 ff ff       	callq  66f3 <transparent_crc>
    d2a8:	83 7d fc 00          	cmpl   $0x0,-0x4(%rbp)
    d2ac:	74 19                	je     d2c7 <main+0x165c>
    d2ae:	8b 55 f4             	mov    -0xc(%rbp),%edx
    d2b1:	8b 45 f0             	mov    -0x10(%rbp),%eax
    d2b4:	89 c6                	mov    %eax,%esi
    d2b6:	48 8d 3d e8 60 00 00 	lea    0x60e8(%rip),%rdi        # 133a5 <g_1312+0x9c5>
    d2bd:	b8 00 00 00 00       	mov    $0x0,%eax
    d2c2:	e8 b9 7d ff ff       	callq  5080 <printf@plt>
    d2c7:	83 45 f4 01          	addl   $0x1,-0xc(%rbp)
    d2cb:	83 7d f4 07          	cmpl   $0x7,-0xc(%rbp)
    d2cf:	0f 8e f3 fc ff ff    	jle    cfc8 <main+0x135d>
    d2d5:	83 45 f0 01          	addl   $0x1,-0x10(%rbp)
    d2d9:	83 7d f0 05          	cmpl   $0x5,-0x10(%rbp)
    d2dd:	0f 8e d9 fc ff ff    	jle    cfbc <main+0x1351>
    d2e3:	0f b6 05 76 32 00 00 	movzbl 0x3276(%rip),%eax        # 10560 <g_1295>
    d2ea:	0f b6 c0             	movzbl %al,%eax
    d2ed:	8b 55 fc             	mov    -0x4(%rbp),%edx
    d2f0:	48 8d 35 44 66 00 00 	lea    0x6644(%rip),%rsi        # 1393b <g_1312+0xf5b>
    d2f7:	48 89 c7             	mov    %rax,%rdi
    d2fa:	e8 f4 93 ff ff       	callq  66f3 <transparent_crc>
    d2ff:	0f b7 05 5b 32 00 00 	movzwl 0x325b(%rip),%eax        # 10561 <g_1295+0x1>
    d306:	0f b7 c0             	movzwl %ax,%eax
    d309:	8b 55 fc             	mov    -0x4(%rbp),%edx
    d30c:	48 8d 35 32 66 00 00 	lea    0x6632(%rip),%rsi        # 13945 <g_1312+0xf65>
    d313:	48 89 c7             	mov    %rax,%rdi
    d316:	e8 d8 93 ff ff       	callq  66f3 <transparent_crc>
    d31b:	b8 00 00 00 00       	mov    $0x0,%eax
    d320:	89 c1                	mov    %eax,%ecx
    d322:	8b 45 fc             	mov    -0x4(%rbp),%eax
    d325:	89 c2                	mov    %eax,%edx
    d327:	48 8d 35 21 66 00 00 	lea    0x6621(%rip),%rsi        # 1394f <g_1312+0xf6f>
    d32e:	48 89 cf             	mov    %rcx,%rdi
    d331:	e8 bd 93 ff ff       	callq  66f3 <transparent_crc>
    d336:	48 8b 05 2a 32 00 00 	mov    0x322a(%rip),%rax        # 10567 <g_1295+0x7>
    d33d:	8b 55 fc             	mov    -0x4(%rbp),%edx
    d340:	48 8d 35 12 66 00 00 	lea    0x6612(%rip),%rsi        # 13959 <g_1312+0xf79>
    d347:	48 89 c7             	mov    %rax,%rdi
    d34a:	e8 a4 93 ff ff       	callq  66f3 <transparent_crc>
    d34f:	b8 00 00 00 00       	mov    $0x0,%eax
    d354:	48 0f be c0          	movsbq %al,%rax
    d358:	8b 55 fc             	mov    -0x4(%rbp),%edx
    d35b:	48 8d 35 01 66 00 00 	lea    0x6601(%rip),%rsi        # 13963 <g_1312+0xf83>
    d362:	48 89 c7             	mov    %rax,%rdi
    d365:	e8 89 93 ff ff       	callq  66f3 <transparent_crc>
    d36a:	0f b6 05 ff 31 00 00 	movzbl 0x31ff(%rip),%eax        # 10570 <g_1295+0x10>
    d371:	48 0f be c0          	movsbq %al,%rax
    d375:	8b 55 fc             	mov    -0x4(%rbp),%edx
    d378:	48 8d 35 ee 65 00 00 	lea    0x65ee(%rip),%rsi        # 1396d <g_1312+0xf8d>
    d37f:	48 89 c7             	mov    %rax,%rdi
    d382:	e8 6c 93 ff ff       	callq  66f3 <transparent_crc>
    d387:	b8 01 00 00 00       	mov    $0x1,%eax
    d38c:	48 0f be c0          	movsbq %al,%rax
    d390:	8b 55 fc             	mov    -0x4(%rbp),%edx
    d393:	48 8d 35 dd 65 00 00 	lea    0x65dd(%rip),%rsi        # 13977 <g_1312+0xf97>
    d39a:	48 89 c7             	mov    %rax,%rdi
    d39d:	e8 51 93 ff ff       	callq  66f3 <transparent_crc>
    d3a2:	48 8b 05 c9 31 00 00 	mov    0x31c9(%rip),%rax        # 10572 <g_1295+0x12>
    d3a9:	8b 55 fc             	mov    -0x4(%rbp),%edx
    d3ac:	48 8d 35 ce 65 00 00 	lea    0x65ce(%rip),%rsi        # 13981 <g_1312+0xfa1>
    d3b3:	48 89 c7             	mov    %rax,%rdi
    d3b6:	e8 38 93 ff ff       	callq  66f3 <transparent_crc>
    d3bb:	c7 45 f0 00 00 00 00 	movl   $0x0,-0x10(%rbp)
    d3c2:	e9 22 04 00 00       	jmpq   d7e9 <main+0x1b7e>
    d3c7:	c7 45 f4 00 00 00 00 	movl   $0x0,-0xc(%rbp)
    d3ce:	e9 08 04 00 00       	jmpq   d7db <main+0x1b70>
    d3d3:	c7 45 f8 00 00 00 00 	movl   $0x0,-0x8(%rbp)
    d3da:	e9 ee 03 00 00       	jmpq   d7cd <main+0x1b62>
    d3df:	8b 45 f8             	mov    -0x8(%rbp),%eax
    d3e2:	48 98                	cltq   
    d3e4:	8b 55 f4             	mov    -0xc(%rbp),%edx
    d3e7:	48 63 f2             	movslq %edx,%rsi
    d3ea:	8b 55 f0             	mov    -0x10(%rbp),%edx
    d3ed:	48 63 ca             	movslq %edx,%rcx
    d3f0:	48 89 c2             	mov    %rax,%rdx
    d3f3:	48 01 d2             	add    %rdx,%rdx
    d3f6:	48 01 c2             	add    %rax,%rdx
    d3f9:	48 c1 e2 02          	shl    $0x2,%rdx
    d3fd:	48 01 c2             	add    %rax,%rdx
    d400:	48 8d 04 12          	lea    (%rdx,%rdx,1),%rax
    d404:	48 89 c2             	mov    %rax,%rdx
    d407:	48 89 f0             	mov    %rsi,%rax
    d40a:	48 01 c0             	add    %rax,%rax
    d40d:	48 01 f0             	add    %rsi,%rax
    d410:	48 c1 e0 02          	shl    $0x2,%rax
    d414:	48 01 f0             	add    %rsi,%rax
    d417:	48 c1 e0 04          	shl    $0x4,%rax
    d41b:	48 01 c2             	add    %rax,%rdx
    d41e:	48 89 c8             	mov    %rcx,%rax
    d421:	48 01 c0             	add    %rax,%rax
    d424:	48 01 c8             	add    %rcx,%rax
    d427:	48 c1 e0 02          	shl    $0x2,%rax
    d42b:	48 01 c8             	add    %rcx,%rax
    d42e:	48 c1 e0 06          	shl    $0x6,%rax
    d432:	48 01 c2             	add    %rax,%rdx
    d435:	48 8d 05 44 31 00 00 	lea    0x3144(%rip),%rax        # 10580 <g_1296>
    d43c:	48 01 d0             	add    %rdx,%rax
    d43f:	0f b6 00             	movzbl (%rax),%eax
    d442:	0f b6 c0             	movzbl %al,%eax
    d445:	8b 55 fc             	mov    -0x4(%rbp),%edx
    d448:	48 8d 35 3c 65 00 00 	lea    0x653c(%rip),%rsi        # 1398b <g_1312+0xfab>
    d44f:	48 89 c7             	mov    %rax,%rdi
    d452:	e8 9c 92 ff ff       	callq  66f3 <transparent_crc>
    d457:	8b 45 f8             	mov    -0x8(%rbp),%eax
    d45a:	48 98                	cltq   
    d45c:	8b 55 f4             	mov    -0xc(%rbp),%edx
    d45f:	48 63 f2             	movslq %edx,%rsi
    d462:	8b 55 f0             	mov    -0x10(%rbp),%edx
    d465:	48 63 ca             	movslq %edx,%rcx
    d468:	48 89 c2             	mov    %rax,%rdx
    d46b:	48 01 d2             	add    %rdx,%rdx
    d46e:	48 01 c2             	add    %rax,%rdx
    d471:	48 c1 e2 02          	shl    $0x2,%rdx
    d475:	48 01 c2             	add    %rax,%rdx
    d478:	48 8d 04 12          	lea    (%rdx,%rdx,1),%rax
    d47c:	48 89 c2             	mov    %rax,%rdx
    d47f:	48 89 f0             	mov    %rsi,%rax
    d482:	48 01 c0             	add    %rax,%rax
    d485:	48 01 f0             	add    %rsi,%rax
    d488:	48 c1 e0 02          	shl    $0x2,%rax
    d48c:	48 01 f0             	add    %rsi,%rax
    d48f:	48 c1 e0 04          	shl    $0x4,%rax
    d493:	48 01 c2             	add    %rax,%rdx
    d496:	48 89 c8             	mov    %rcx,%rax
    d499:	48 01 c0             	add    %rax,%rax
    d49c:	48 01 c8             	add    %rcx,%rax
    d49f:	48 c1 e0 02          	shl    $0x2,%rax
    d4a3:	48 01 c8             	add    %rcx,%rax
    d4a6:	48 c1 e0 06          	shl    $0x6,%rax
    d4aa:	48 01 c2             	add    %rax,%rdx
    d4ad:	48 8d 05 cc 30 00 00 	lea    0x30cc(%rip),%rax        # 10580 <g_1296>
    d4b4:	48 01 d0             	add    %rdx,%rax
    d4b7:	0f b7 40 01          	movzwl 0x1(%rax),%eax
    d4bb:	0f b7 c0             	movzwl %ax,%eax
    d4be:	8b 55 fc             	mov    -0x4(%rbp),%edx
    d4c1:	48 8d 35 d6 64 00 00 	lea    0x64d6(%rip),%rsi        # 1399e <g_1312+0xfbe>
    d4c8:	48 89 c7             	mov    %rax,%rdi
    d4cb:	e8 23 92 ff ff       	callq  66f3 <transparent_crc>
    d4d0:	8b 45 f8             	mov    -0x8(%rbp),%eax
    d4d3:	48 98                	cltq   
    d4d5:	8b 55 f4             	mov    -0xc(%rbp),%edx
    d4d8:	48 63 f2             	movslq %edx,%rsi
    d4db:	8b 55 f0             	mov    -0x10(%rbp),%edx
    d4de:	48 63 ca             	movslq %edx,%rcx
    d4e1:	48 89 c2             	mov    %rax,%rdx
    d4e4:	48 01 d2             	add    %rdx,%rdx
    d4e7:	48 01 c2             	add    %rax,%rdx
    d4ea:	48 c1 e2 02          	shl    $0x2,%rdx
    d4ee:	48 01 c2             	add    %rax,%rdx
    d4f1:	48 8d 04 12          	lea    (%rdx,%rdx,1),%rax
    d4f5:	48 89 c2             	mov    %rax,%rdx
    d4f8:	48 89 f0             	mov    %rsi,%rax
    d4fb:	48 01 c0             	add    %rax,%rax
    d4fe:	48 01 f0             	add    %rsi,%rax
    d501:	48 c1 e0 02          	shl    $0x2,%rax
    d505:	48 01 f0             	add    %rsi,%rax
    d508:	48 c1 e0 04          	shl    $0x4,%rax
    d50c:	48 01 c2             	add    %rax,%rdx
    d50f:	48 89 c8             	mov    %rcx,%rax
    d512:	48 01 c0             	add    %rax,%rax
    d515:	48 01 c8             	add    %rcx,%rax
    d518:	48 c1 e0 02          	shl    $0x2,%rax
    d51c:	48 01 c8             	add    %rcx,%rax
    d51f:	48 c1 e0 06          	shl    $0x6,%rax
    d523:	48 01 c2             	add    %rax,%rdx
    d526:	48 8d 05 53 30 00 00 	lea    0x3053(%rip),%rax        # 10580 <g_1296>
    d52d:	48 01 d0             	add    %rdx,%rax
    d530:	8b 40 03             	mov    0x3(%rax),%eax
    d533:	89 c1                	mov    %eax,%ecx
    d535:	8b 45 fc             	mov    -0x4(%rbp),%eax
    d538:	89 c2                	mov    %eax,%edx
    d53a:	48 8d 35 70 64 00 00 	lea    0x6470(%rip),%rsi        # 139b1 <g_1312+0xfd1>
    d541:	48 89 cf             	mov    %rcx,%rdi
    d544:	e8 aa 91 ff ff       	callq  66f3 <transparent_crc>
    d549:	8b 45 f8             	mov    -0x8(%rbp),%eax
    d54c:	48 98                	cltq   
    d54e:	8b 55 f4             	mov    -0xc(%rbp),%edx
    d551:	48 63 f2             	movslq %edx,%rsi
    d554:	8b 55 f0             	mov    -0x10(%rbp),%edx
    d557:	48 63 ca             	movslq %edx,%rcx
    d55a:	48 89 c2             	mov    %rax,%rdx
    d55d:	48 01 d2             	add    %rdx,%rdx
    d560:	48 01 c2             	add    %rax,%rdx
    d563:	48 c1 e2 02          	shl    $0x2,%rdx
    d567:	48 01 c2             	add    %rax,%rdx
    d56a:	48 8d 04 12          	lea    (%rdx,%rdx,1),%rax
    d56e:	48 89 c2             	mov    %rax,%rdx
    d571:	48 89 f0             	mov    %rsi,%rax
    d574:	48 01 c0             	add    %rax,%rax
    d577:	48 01 f0             	add    %rsi,%rax
    d57a:	48 c1 e0 02          	shl    $0x2,%rax
    d57e:	48 01 f0             	add    %rsi,%rax
    d581:	48 c1 e0 04          	shl    $0x4,%rax
    d585:	48 01 c2             	add    %rax,%rdx
    d588:	48 89 c8             	mov    %rcx,%rax
    d58b:	48 01 c0             	add    %rax,%rax
    d58e:	48 01 c8             	add    %rcx,%rax
    d591:	48 c1 e0 02          	shl    $0x2,%rax
    d595:	48 01 c8             	add    %rcx,%rax
    d598:	48 c1 e0 06          	shl    $0x6,%rax
    d59c:	48 01 c2             	add    %rax,%rdx
    d59f:	48 8d 05 da 2f 00 00 	lea    0x2fda(%rip),%rax        # 10580 <g_1296>
    d5a6:	48 01 d0             	add    %rdx,%rax
    d5a9:	48 8b 40 07          	mov    0x7(%rax),%rax
    d5ad:	8b 55 fc             	mov    -0x4(%rbp),%edx
    d5b0:	48 8d 35 0d 64 00 00 	lea    0x640d(%rip),%rsi        # 139c4 <g_1312+0xfe4>
    d5b7:	48 89 c7             	mov    %rax,%rdi
    d5ba:	e8 34 91 ff ff       	callq  66f3 <transparent_crc>
    d5bf:	8b 45 f8             	mov    -0x8(%rbp),%eax
    d5c2:	48 98                	cltq   
    d5c4:	8b 55 f4             	mov    -0xc(%rbp),%edx
    d5c7:	48 63 f2             	movslq %edx,%rsi
    d5ca:	8b 55 f0             	mov    -0x10(%rbp),%edx
    d5cd:	48 63 ca             	movslq %edx,%rcx
    d5d0:	48 89 c2             	mov    %rax,%rdx
    d5d3:	48 01 d2             	add    %rdx,%rdx
    d5d6:	48 01 c2             	add    %rax,%rdx
    d5d9:	48 c1 e2 02          	shl    $0x2,%rdx
    d5dd:	48 01 c2             	add    %rax,%rdx
    d5e0:	48 8d 04 12          	lea    (%rdx,%rdx,1),%rax
    d5e4:	48 89 c2             	mov    %rax,%rdx
    d5e7:	48 89 f0             	mov    %rsi,%rax
    d5ea:	48 01 c0             	add    %rax,%rax
    d5ed:	48 01 f0             	add    %rsi,%rax
    d5f0:	48 c1 e0 02          	shl    $0x2,%rax
    d5f4:	48 01 f0             	add    %rsi,%rax
    d5f7:	48 c1 e0 04          	shl    $0x4,%rax
    d5fb:	48 01 c2             	add    %rax,%rdx
    d5fe:	48 89 c8             	mov    %rcx,%rax
    d601:	48 01 c0             	add    %rax,%rax
    d604:	48 01 c8             	add    %rcx,%rax
    d607:	48 c1 e0 02          	shl    $0x2,%rax
    d60b:	48 01 c8             	add    %rcx,%rax
    d60e:	48 c1 e0 06          	shl    $0x6,%rax
    d612:	48 01 c2             	add    %rax,%rdx
    d615:	48 8d 05 64 2f 00 00 	lea    0x2f64(%rip),%rax        # 10580 <g_1296>
    d61c:	48 01 d0             	add    %rdx,%rax
    d61f:	0f b6 40 0f          	movzbl 0xf(%rax),%eax
    d623:	c1 e0 06             	shl    $0x6,%eax
    d626:	c0 f8 06             	sar    $0x6,%al
    d629:	48 0f be c0          	movsbq %al,%rax
    d62d:	8b 55 fc             	mov    -0x4(%rbp),%edx
    d630:	48 8d 35 a0 63 00 00 	lea    0x63a0(%rip),%rsi        # 139d7 <g_1312+0xff7>
    d637:	48 89 c7             	mov    %rax,%rdi
    d63a:	e8 b4 90 ff ff       	callq  66f3 <transparent_crc>
    d63f:	8b 45 f8             	mov    -0x8(%rbp),%eax
    d642:	48 98                	cltq   
    d644:	8b 55 f4             	mov    -0xc(%rbp),%edx
    d647:	48 63 ca             	movslq %edx,%rcx
    d64a:	8b 55 f0             	mov    -0x10(%rbp),%edx
    d64d:	48 63 f2             	movslq %edx,%rsi
    d650:	48 89 c2             	mov    %rax,%rdx
    d653:	48 01 d2             	add    %rdx,%rdx
    d656:	48 01 c2             	add    %rax,%rdx
    d659:	48 c1 e2 02          	shl    $0x2,%rdx
    d65d:	48 01 c2             	add    %rax,%rdx
    d660:	48 8d 04 12          	lea    (%rdx,%rdx,1),%rax
    d664:	48 89 c2             	mov    %rax,%rdx
    d667:	48 89 f0             	mov    %rsi,%rax
    d66a:	48 01 c0             	add    %rax,%rax
    d66d:	48 01 f0             	add    %rsi,%rax
    d670:	48 c1 e0 02          	shl    $0x2,%rax
    d674:	48 01 f0             	add    %rsi,%rax
    d677:	48 c1 e0 06          	shl    $0x6,%rax
    d67b:	48 01 c2             	add    %rax,%rdx
    d67e:	48 89 c8             	mov    %rcx,%rax
    d681:	48 01 c0             	add    %rax,%rax
    d684:	48 01 c8             	add    %rcx,%rax
    d687:	48 c1 e0 02          	shl    $0x2,%rax
    d68b:	48 01 c8             	add    %rcx,%rax
    d68e:	48 c1 e0 04          	shl    $0x4,%rax
    d692:	48 01 c2             	add    %rax,%rdx
    d695:	48 8d 05 f4 2e 00 00 	lea    0x2ef4(%rip),%rax        # 10590 <g_1296+0x10>
    d69c:	48 01 d0             	add    %rdx,%rax
    d69f:	0f b6 00             	movzbl (%rax),%eax
    d6a2:	48 0f be c0          	movsbq %al,%rax
    d6a6:	8b 55 fc             	mov    -0x4(%rbp),%edx
    d6a9:	48 8d 35 3a 63 00 00 	lea    0x633a(%rip),%rsi        # 139ea <g_1312+0x100a>
    d6b0:	48 89 c7             	mov    %rax,%rdi
    d6b3:	e8 3b 90 ff ff       	callq  66f3 <transparent_crc>
    d6b8:	8b 45 f8             	mov    -0x8(%rbp),%eax
    d6bb:	48 98                	cltq   
    d6bd:	8b 55 f4             	mov    -0xc(%rbp),%edx
    d6c0:	48 63 ca             	movslq %edx,%rcx
    d6c3:	8b 55 f0             	mov    -0x10(%rbp),%edx
    d6c6:	48 63 f2             	movslq %edx,%rsi
    d6c9:	48 89 c2             	mov    %rax,%rdx
    d6cc:	48 01 d2             	add    %rdx,%rdx
    d6cf:	48 01 c2             	add    %rax,%rdx
    d6d2:	48 c1 e2 02          	shl    $0x2,%rdx
    d6d6:	48 01 c2             	add    %rax,%rdx
    d6d9:	48 8d 04 12          	lea    (%rdx,%rdx,1),%rax
    d6dd:	48 89 c2             	mov    %rax,%rdx
    d6e0:	48 89 f0             	mov    %rsi,%rax
    d6e3:	48 01 c0             	add    %rax,%rax
    d6e6:	48 01 f0             	add    %rsi,%rax
    d6e9:	48 c1 e0 02          	shl    $0x2,%rax
    d6ed:	48 01 f0             	add    %rsi,%rax
    d6f0:	48 c1 e0 06          	shl    $0x6,%rax
    d6f4:	48 01 c2             	add    %rax,%rdx
    d6f7:	48 89 c8             	mov    %rcx,%rax
    d6fa:	48 01 c0             	add    %rax,%rax
    d6fd:	48 01 c8             	add    %rcx,%rax
    d700:	48 c1 e0 02          	shl    $0x2,%rax
    d704:	48 01 c8             	add    %rcx,%rax
    d707:	48 c1 e0 04          	shl    $0x4,%rax
    d70b:	48 01 c2             	add    %rax,%rdx
    d70e:	48 8d 05 7c 2e 00 00 	lea    0x2e7c(%rip),%rax        # 10591 <g_1296+0x11>
    d715:	48 01 d0             	add    %rdx,%rax
    d718:	0f b6 00             	movzbl (%rax),%eax
    d71b:	48 0f be c0          	movsbq %al,%rax
    d71f:	8b 55 fc             	mov    -0x4(%rbp),%edx
    d722:	48 8d 35 d4 62 00 00 	lea    0x62d4(%rip),%rsi        # 139fd <g_1312+0x101d>
    d729:	48 89 c7             	mov    %rax,%rdi
    d72c:	e8 c2 8f ff ff       	callq  66f3 <transparent_crc>
    d731:	8b 45 f8             	mov    -0x8(%rbp),%eax
    d734:	48 98                	cltq   
    d736:	8b 55 f4             	mov    -0xc(%rbp),%edx
    d739:	48 63 ca             	movslq %edx,%rcx
    d73c:	8b 55 f0             	mov    -0x10(%rbp),%edx
    d73f:	48 63 f2             	movslq %edx,%rsi
    d742:	48 89 c2             	mov    %rax,%rdx
    d745:	48 01 d2             	add    %rdx,%rdx
    d748:	48 01 c2             	add    %rax,%rdx
    d74b:	48 c1 e2 02          	shl    $0x2,%rdx
    d74f:	48 01 c2             	add    %rax,%rdx
    d752:	48 8d 04 12          	lea    (%rdx,%rdx,1),%rax
    d756:	48 89 c2             	mov    %rax,%rdx
    d759:	48 89 f0             	mov    %rsi,%rax
    d75c:	48 01 c0             	add    %rax,%rax
    d75f:	48 01 f0             	add    %rsi,%rax
    d762:	48 c1 e0 02          	shl    $0x2,%rax
    d766:	48 01 f0             	add    %rsi,%rax
    d769:	48 c1 e0 06          	shl    $0x6,%rax
    d76d:	48 01 c2             	add    %rax,%rdx
    d770:	48 89 c8             	mov    %rcx,%rax
    d773:	48 01 c0             	add    %rax,%rax
    d776:	48 01 c8             	add    %rcx,%rax
    d779:	48 c1 e0 02          	shl    $0x2,%rax
    d77d:	48 01 c8             	add    %rcx,%rax
    d780:	48 c1 e0 04          	shl    $0x4,%rax
    d784:	48 01 c2             	add    %rax,%rdx
    d787:	48 8d 05 02 2e 00 00 	lea    0x2e02(%rip),%rax        # 10590 <g_1296+0x10>
    d78e:	48 01 d0             	add    %rdx,%rax
    d791:	48 8b 40 02          	mov    0x2(%rax),%rax
    d795:	8b 55 fc             	mov    -0x4(%rbp),%edx
    d798:	48 8d 35 71 62 00 00 	lea    0x6271(%rip),%rsi        # 13a10 <g_1312+0x1030>
    d79f:	48 89 c7             	mov    %rax,%rdi
    d7a2:	e8 4c 8f ff ff       	callq  66f3 <transparent_crc>
    d7a7:	83 7d fc 00          	cmpl   $0x0,-0x4(%rbp)
    d7ab:	74 1c                	je     d7c9 <main+0x1b5e>
    d7ad:	8b 4d f8             	mov    -0x8(%rbp),%ecx
    d7b0:	8b 55 f4             	mov    -0xc(%rbp),%edx
    d7b3:	8b 45 f0             	mov    -0x10(%rbp),%eax
    d7b6:	89 c6                	mov    %eax,%esi
    d7b8:	48 8d 3d 64 62 00 00 	lea    0x6264(%rip),%rdi        # 13a23 <g_1312+0x1043>
    d7bf:	b8 00 00 00 00       	mov    $0x0,%eax
    d7c4:	e8 b7 78 ff ff       	callq  5080 <printf@plt>
    d7c9:	83 45 f8 01          	addl   $0x1,-0x8(%rbp)
    d7cd:	83 7d f8 07          	cmpl   $0x7,-0x8(%rbp)
    d7d1:	0f 8e 08 fc ff ff    	jle    d3df <main+0x1774>
    d7d7:	83 45 f4 01          	addl   $0x1,-0xc(%rbp)
    d7db:	83 7d f4 03          	cmpl   $0x3,-0xc(%rbp)
    d7df:	0f 8e ee fb ff ff    	jle    d3d3 <main+0x1768>
    d7e5:	83 45 f0 01          	addl   $0x1,-0x10(%rbp)
    d7e9:	83 7d f0 07          	cmpl   $0x7,-0x10(%rbp)
    d7ed:	0f 8e d4 fb ff ff    	jle    d3c7 <main+0x175c>
    d7f3:	0f b6 05 86 47 00 00 	movzbl 0x4786(%rip),%eax        # 11f80 <g_1297>
    d7fa:	0f b6 c0             	movzbl %al,%eax
    d7fd:	8b 55 fc             	mov    -0x4(%rbp),%edx
    d800:	48 8d 35 32 62 00 00 	lea    0x6232(%rip),%rsi        # 13a39 <g_1312+0x1059>
    d807:	48 89 c7             	mov    %rax,%rdi
    d80a:	e8 e4 8e ff ff       	callq  66f3 <transparent_crc>
    d80f:	0f b7 05 6b 47 00 00 	movzwl 0x476b(%rip),%eax        # 11f81 <g_1297+0x1>
    d816:	0f b7 c0             	movzwl %ax,%eax
    d819:	8b 55 fc             	mov    -0x4(%rbp),%edx
    d81c:	48 8d 35 20 62 00 00 	lea    0x6220(%rip),%rsi        # 13a43 <g_1312+0x1063>
    d823:	48 89 c7             	mov    %rax,%rdi
    d826:	e8 c8 8e ff ff       	callq  66f3 <transparent_crc>
    d82b:	b8 ff ff ff ff       	mov    $0xffffffff,%eax
    d830:	89 c1                	mov    %eax,%ecx
    d832:	8b 45 fc             	mov    -0x4(%rbp),%eax
    d835:	89 c2                	mov    %eax,%edx
    d837:	48 8d 35 0f 62 00 00 	lea    0x620f(%rip),%rsi        # 13a4d <g_1312+0x106d>
    d83e:	48 89 cf             	mov    %rcx,%rdi
    d841:	e8 ad 8e ff ff       	callq  66f3 <transparent_crc>
    d846:	48 8b 05 3a 47 00 00 	mov    0x473a(%rip),%rax        # 11f87 <g_1297+0x7>
    d84d:	8b 55 fc             	mov    -0x4(%rbp),%edx
    d850:	48 8d 35 00 62 00 00 	lea    0x6200(%rip),%rsi        # 13a57 <g_1312+0x1077>
    d857:	48 89 c7             	mov    %rax,%rdi
    d85a:	e8 94 8e ff ff       	callq  66f3 <transparent_crc>
    d85f:	b8 00 00 00 00       	mov    $0x0,%eax
    d864:	48 0f be c0          	movsbq %al,%rax
    d868:	8b 55 fc             	mov    -0x4(%rbp),%edx
    d86b:	48 8d 35 ef 61 00 00 	lea    0x61ef(%rip),%rsi        # 13a61 <g_1312+0x1081>
    d872:	48 89 c7             	mov    %rax,%rdi
    d875:	e8 79 8e ff ff       	callq  66f3 <transparent_crc>
    d87a:	0f b6 05 0f 47 00 00 	movzbl 0x470f(%rip),%eax        # 11f90 <g_1297+0x10>
    d881:	48 0f be c0          	movsbq %al,%rax
    d885:	8b 55 fc             	mov    -0x4(%rbp),%edx
    d888:	48 8d 35 dc 61 00 00 	lea    0x61dc(%rip),%rsi        # 13a6b <g_1312+0x108b>
    d88f:	48 89 c7             	mov    %rax,%rdi
    d892:	e8 5c 8e ff ff       	callq  66f3 <transparent_crc>
    d897:	b8 06 00 00 00       	mov    $0x6,%eax
    d89c:	48 0f be c0          	movsbq %al,%rax
    d8a0:	8b 55 fc             	mov    -0x4(%rbp),%edx
    d8a3:	48 8d 35 cb 61 00 00 	lea    0x61cb(%rip),%rsi        # 13a75 <g_1312+0x1095>
    d8aa:	48 89 c7             	mov    %rax,%rdi
    d8ad:	e8 41 8e ff ff       	callq  66f3 <transparent_crc>
    d8b2:	48 8b 05 d9 46 00 00 	mov    0x46d9(%rip),%rax        # 11f92 <g_1297+0x12>
    d8b9:	8b 55 fc             	mov    -0x4(%rbp),%edx
    d8bc:	48 8d 35 bc 61 00 00 	lea    0x61bc(%rip),%rsi        # 13a7f <g_1312+0x109f>
    d8c3:	48 89 c7             	mov    %rax,%rdi
    d8c6:	e8 28 8e ff ff       	callq  66f3 <transparent_crc>
    d8cb:	0f b6 05 de 9a 00 00 	movzbl 0x9ade(%rip),%eax        # 173b0 <g_1298>
    d8d2:	0f b6 c0             	movzbl %al,%eax
    d8d5:	8b 55 fc             	mov    -0x4(%rbp),%edx
    d8d8:	48 8d 35 aa 61 00 00 	lea    0x61aa(%rip),%rsi        # 13a89 <g_1312+0x10a9>
    d8df:	48 89 c7             	mov    %rax,%rdi
    d8e2:	e8 0c 8e ff ff       	callq  66f3 <transparent_crc>
    d8e7:	0f b7 05 c3 9a 00 00 	movzwl 0x9ac3(%rip),%eax        # 173b1 <g_1298+0x1>
    d8ee:	0f b7 c0             	movzwl %ax,%eax
    d8f1:	8b 55 fc             	mov    -0x4(%rbp),%edx
    d8f4:	48 8d 35 98 61 00 00 	lea    0x6198(%rip),%rsi        # 13a93 <g_1312+0x10b3>
    d8fb:	48 89 c7             	mov    %rax,%rdi
    d8fe:	e8 f0 8d ff ff       	callq  66f3 <transparent_crc>
    d903:	8b 05 aa 9a 00 00    	mov    0x9aaa(%rip),%eax        # 173b3 <g_1298+0x3>
    d909:	89 c1                	mov    %eax,%ecx
    d90b:	8b 45 fc             	mov    -0x4(%rbp),%eax
    d90e:	89 c2                	mov    %eax,%edx
    d910:	48 8d 35 86 61 00 00 	lea    0x6186(%rip),%rsi        # 13a9d <g_1312+0x10bd>
    d917:	48 89 cf             	mov    %rcx,%rdi
    d91a:	e8 d4 8d ff ff       	callq  66f3 <transparent_crc>
    d91f:	48 8b 05 91 9a 00 00 	mov    0x9a91(%rip),%rax        # 173b7 <g_1298+0x7>
    d926:	8b 55 fc             	mov    -0x4(%rbp),%edx
    d929:	48 8d 35 77 61 00 00 	lea    0x6177(%rip),%rsi        # 13aa7 <g_1312+0x10c7>
    d930:	48 89 c7             	mov    %rax,%rdi
    d933:	e8 bb 8d ff ff       	callq  66f3 <transparent_crc>
    d938:	0f b6 05 80 9a 00 00 	movzbl 0x9a80(%rip),%eax        # 173bf <g_1298+0xf>
    d93f:	c1 e0 06             	shl    $0x6,%eax
    d942:	c0 f8 06             	sar    $0x6,%al
    d945:	48 0f be c0          	movsbq %al,%rax
    d949:	8b 55 fc             	mov    -0x4(%rbp),%edx
    d94c:	48 8d 35 5e 61 00 00 	lea    0x615e(%rip),%rsi        # 13ab1 <g_1312+0x10d1>
    d953:	48 89 c7             	mov    %rax,%rdi
    d956:	e8 98 8d ff ff       	callq  66f3 <transparent_crc>
    d95b:	0f b6 05 5e 9a 00 00 	movzbl 0x9a5e(%rip),%eax        # 173c0 <g_1298+0x10>
    d962:	48 0f be c0          	movsbq %al,%rax
    d966:	8b 55 fc             	mov    -0x4(%rbp),%edx
    d969:	48 8d 35 4b 61 00 00 	lea    0x614b(%rip),%rsi        # 13abb <g_1312+0x10db>
    d970:	48 89 c7             	mov    %rax,%rdi
    d973:	e8 7b 8d ff ff       	callq  66f3 <transparent_crc>
    d978:	0f b6 05 42 9a 00 00 	movzbl 0x9a42(%rip),%eax        # 173c1 <g_1298+0x11>
    d97f:	48 0f be c0          	movsbq %al,%rax
    d983:	8b 55 fc             	mov    -0x4(%rbp),%edx
    d986:	48 8d 35 38 61 00 00 	lea    0x6138(%rip),%rsi        # 13ac5 <g_1312+0x10e5>
    d98d:	48 89 c7             	mov    %rax,%rdi
    d990:	e8 5e 8d ff ff       	callq  66f3 <transparent_crc>
    d995:	48 8b 05 26 9a 00 00 	mov    0x9a26(%rip),%rax        # 173c2 <g_1298+0x12>
    d99c:	8b 55 fc             	mov    -0x4(%rbp),%edx
    d99f:	48 8d 35 29 61 00 00 	lea    0x6129(%rip),%rsi        # 13acf <g_1312+0x10ef>
    d9a6:	48 89 c7             	mov    %rax,%rdi
    d9a9:	e8 45 8d ff ff       	callq  66f3 <transparent_crc>
    d9ae:	0f b6 05 1b 9a 00 00 	movzbl 0x9a1b(%rip),%eax        # 173d0 <g_1299>
    d9b5:	0f b6 c0             	movzbl %al,%eax
    d9b8:	8b 55 fc             	mov    -0x4(%rbp),%edx
    d9bb:	48 8d 35 17 61 00 00 	lea    0x6117(%rip),%rsi        # 13ad9 <g_1312+0x10f9>
    d9c2:	48 89 c7             	mov    %rax,%rdi
    d9c5:	e8 29 8d ff ff       	callq  66f3 <transparent_crc>
    d9ca:	0f b7 05 00 9a 00 00 	movzwl 0x9a00(%rip),%eax        # 173d1 <g_1299+0x1>
    d9d1:	0f b7 c0             	movzwl %ax,%eax
    d9d4:	8b 55 fc             	mov    -0x4(%rbp),%edx
    d9d7:	48 8d 35 05 61 00 00 	lea    0x6105(%rip),%rsi        # 13ae3 <g_1312+0x1103>
    d9de:	48 89 c7             	mov    %rax,%rdi
    d9e1:	e8 0d 8d ff ff       	callq  66f3 <transparent_crc>
    d9e6:	8b 05 e7 99 00 00    	mov    0x99e7(%rip),%eax        # 173d3 <g_1299+0x3>
    d9ec:	89 c1                	mov    %eax,%ecx
    d9ee:	8b 45 fc             	mov    -0x4(%rbp),%eax
    d9f1:	89 c2                	mov    %eax,%edx
    d9f3:	48 8d 35 f3 60 00 00 	lea    0x60f3(%rip),%rsi        # 13aed <g_1312+0x110d>
    d9fa:	48 89 cf             	mov    %rcx,%rdi
    d9fd:	e8 f1 8c ff ff       	callq  66f3 <transparent_crc>
    da02:	48 8b 05 ce 99 00 00 	mov    0x99ce(%rip),%rax        # 173d7 <g_1299+0x7>
    da09:	8b 55 fc             	mov    -0x4(%rbp),%edx
    da0c:	48 8d 35 e4 60 00 00 	lea    0x60e4(%rip),%rsi        # 13af7 <g_1312+0x1117>
    da13:	48 89 c7             	mov    %rax,%rdi
    da16:	e8 d8 8c ff ff       	callq  66f3 <transparent_crc>
    da1b:	0f b6 05 bd 99 00 00 	movzbl 0x99bd(%rip),%eax        # 173df <g_1299+0xf>
    da22:	c1 e0 06             	shl    $0x6,%eax
    da25:	c0 f8 06             	sar    $0x6,%al
    da28:	48 0f be c0          	movsbq %al,%rax
    da2c:	8b 55 fc             	mov    -0x4(%rbp),%edx
    da2f:	48 8d 35 cb 60 00 00 	lea    0x60cb(%rip),%rsi        # 13b01 <g_1312+0x1121>
    da36:	48 89 c7             	mov    %rax,%rdi
    da39:	e8 b5 8c ff ff       	callq  66f3 <transparent_crc>
    da3e:	0f b6 05 9b 99 00 00 	movzbl 0x999b(%rip),%eax        # 173e0 <g_1299+0x10>
    da45:	48 0f be c0          	movsbq %al,%rax
    da49:	8b 55 fc             	mov    -0x4(%rbp),%edx
    da4c:	48 8d 35 b8 60 00 00 	lea    0x60b8(%rip),%rsi        # 13b0b <g_1312+0x112b>
    da53:	48 89 c7             	mov    %rax,%rdi
    da56:	e8 98 8c ff ff       	callq  66f3 <transparent_crc>
    da5b:	0f b6 05 7f 99 00 00 	movzbl 0x997f(%rip),%eax        # 173e1 <g_1299+0x11>
    da62:	48 0f be c0          	movsbq %al,%rax
    da66:	8b 55 fc             	mov    -0x4(%rbp),%edx
    da69:	48 8d 35 a5 60 00 00 	lea    0x60a5(%rip),%rsi        # 13b15 <g_1312+0x1135>
    da70:	48 89 c7             	mov    %rax,%rdi
    da73:	e8 7b 8c ff ff       	callq  66f3 <transparent_crc>
    da78:	48 8b 05 63 99 00 00 	mov    0x9963(%rip),%rax        # 173e2 <g_1299+0x12>
    da7f:	8b 55 fc             	mov    -0x4(%rbp),%edx
    da82:	48 8d 35 96 60 00 00 	lea    0x6096(%rip),%rsi        # 13b1f <g_1312+0x113f>
    da89:	48 89 c7             	mov    %rax,%rdi
    da8c:	e8 62 8c ff ff       	callq  66f3 <transparent_crc>
    da91:	c7 45 f0 00 00 00 00 	movl   $0x0,-0x10(%rbp)
    da98:	e9 b4 03 00 00       	jmpq   de51 <main+0x21e6>
    da9d:	c7 45 f4 00 00 00 00 	movl   $0x0,-0xc(%rbp)
    daa4:	e9 9a 03 00 00       	jmpq   de43 <main+0x21d8>
    daa9:	c7 45 f8 00 00 00 00 	movl   $0x0,-0x8(%rbp)
    dab0:	e9 80 03 00 00       	jmpq   de35 <main+0x21ca>
    dab5:	8b 45 f8             	mov    -0x8(%rbp),%eax
    dab8:	48 98                	cltq   
    daba:	8b 55 f4             	mov    -0xc(%rbp),%edx
    dabd:	48 63 ca             	movslq %edx,%rcx
    dac0:	8b 55 f0             	mov    -0x10(%rbp),%edx
    dac3:	48 63 f2             	movslq %edx,%rsi
    dac6:	48 89 c2             	mov    %rax,%rdx
    dac9:	48 01 d2             	add    %rdx,%rdx
    dacc:	48 01 c2             	add    %rax,%rdx
    dacf:	48 c1 e2 02          	shl    $0x2,%rdx
    dad3:	48 01 c2             	add    %rax,%rdx
    dad6:	48 8d 04 12          	lea    (%rdx,%rdx,1),%rax
    dada:	48 89 c2             	mov    %rax,%rdx
    dadd:	48 89 c8             	mov    %rcx,%rax
    dae0:	48 01 c0             	add    %rax,%rax
    dae3:	48 01 c8             	add    %rcx,%rax
    dae6:	48 c1 e0 02          	shl    $0x2,%rax
    daea:	48 01 c8             	add    %rcx,%rax
    daed:	48 c1 e0 03          	shl    $0x3,%rax
    daf1:	48 01 c2             	add    %rax,%rdx
    daf4:	48 69 c6 38 01 00 00 	imul   $0x138,%rsi,%rax
    dafb:	48 01 c2             	add    %rax,%rdx
    dafe:	48 8d 05 fb 98 00 00 	lea    0x98fb(%rip),%rax        # 17400 <g_1300>
    db05:	48 01 d0             	add    %rdx,%rax
    db08:	0f b6 00             	movzbl (%rax),%eax
    db0b:	0f b6 c0             	movzbl %al,%eax
    db0e:	8b 55 fc             	mov    -0x4(%rbp),%edx
    db11:	48 8d 35 11 60 00 00 	lea    0x6011(%rip),%rsi        # 13b29 <g_1312+0x1149>
    db18:	48 89 c7             	mov    %rax,%rdi
    db1b:	e8 d3 8b ff ff       	callq  66f3 <transparent_crc>
    db20:	8b 45 f8             	mov    -0x8(%rbp),%eax
    db23:	48 98                	cltq   
    db25:	8b 55 f4             	mov    -0xc(%rbp),%edx
    db28:	48 63 ca             	movslq %edx,%rcx
    db2b:	8b 55 f0             	mov    -0x10(%rbp),%edx
    db2e:	48 63 f2             	movslq %edx,%rsi
    db31:	48 89 c2             	mov    %rax,%rdx
    db34:	48 01 d2             	add    %rdx,%rdx
    db37:	48 01 c2             	add    %rax,%rdx
    db3a:	48 c1 e2 02          	shl    $0x2,%rdx
    db3e:	48 01 c2             	add    %rax,%rdx
    db41:	48 8d 04 12          	lea    (%rdx,%rdx,1),%rax
    db45:	48 89 c2             	mov    %rax,%rdx
    db48:	48 89 c8             	mov    %rcx,%rax
    db4b:	48 01 c0             	add    %rax,%rax
    db4e:	48 01 c8             	add    %rcx,%rax
    db51:	48 c1 e0 02          	shl    $0x2,%rax
    db55:	48 01 c8             	add    %rcx,%rax
    db58:	48 c1 e0 03          	shl    $0x3,%rax
    db5c:	48 01 c2             	add    %rax,%rdx
    db5f:	48 69 c6 38 01 00 00 	imul   $0x138,%rsi,%rax
    db66:	48 01 c2             	add    %rax,%rdx
    db69:	48 8d 05 90 98 00 00 	lea    0x9890(%rip),%rax        # 17400 <g_1300>
    db70:	48 01 d0             	add    %rdx,%rax
    db73:	0f b7 40 01          	movzwl 0x1(%rax),%eax
    db77:	0f b7 c0             	movzwl %ax,%eax
    db7a:	8b 55 fc             	mov    -0x4(%rbp),%edx
    db7d:	48 8d 35 b8 5f 00 00 	lea    0x5fb8(%rip),%rsi        # 13b3c <g_1312+0x115c>
    db84:	48 89 c7             	mov    %rax,%rdi
    db87:	e8 67 8b ff ff       	callq  66f3 <transparent_crc>
    db8c:	8b 45 f8             	mov    -0x8(%rbp),%eax
    db8f:	48 98                	cltq   
    db91:	8b 55 f4             	mov    -0xc(%rbp),%edx
    db94:	48 63 ca             	movslq %edx,%rcx
    db97:	8b 55 f0             	mov    -0x10(%rbp),%edx
    db9a:	48 63 f2             	movslq %edx,%rsi
    db9d:	48 89 c2             	mov    %rax,%rdx
    dba0:	48 01 d2             	add    %rdx,%rdx
    dba3:	48 01 c2             	add    %rax,%rdx
    dba6:	48 c1 e2 02          	shl    $0x2,%rdx
    dbaa:	48 01 c2             	add    %rax,%rdx
    dbad:	48 8d 04 12          	lea    (%rdx,%rdx,1),%rax
    dbb1:	48 89 c2             	mov    %rax,%rdx
    dbb4:	48 89 c8             	mov    %rcx,%rax
    dbb7:	48 01 c0             	add    %rax,%rax
    dbba:	48 01 c8             	add    %rcx,%rax
    dbbd:	48 c1 e0 02          	shl    $0x2,%rax
    dbc1:	48 01 c8             	add    %rcx,%rax
    dbc4:	48 c1 e0 03          	shl    $0x3,%rax
    dbc8:	48 01 c2             	add    %rax,%rdx
    dbcb:	48 69 c6 38 01 00 00 	imul   $0x138,%rsi,%rax
    dbd2:	48 01 c2             	add    %rax,%rdx
    dbd5:	48 8d 05 24 98 00 00 	lea    0x9824(%rip),%rax        # 17400 <g_1300>
    dbdc:	48 01 d0             	add    %rdx,%rax
    dbdf:	8b 40 03             	mov    0x3(%rax),%eax
    dbe2:	89 c1                	mov    %eax,%ecx
    dbe4:	8b 45 fc             	mov    -0x4(%rbp),%eax
    dbe7:	89 c2                	mov    %eax,%edx
    dbe9:	48 8d 35 5f 5f 00 00 	lea    0x5f5f(%rip),%rsi        # 13b4f <g_1312+0x116f>
    dbf0:	48 89 cf             	mov    %rcx,%rdi
    dbf3:	e8 fb 8a ff ff       	callq  66f3 <transparent_crc>
    dbf8:	8b 45 f8             	mov    -0x8(%rbp),%eax
    dbfb:	48 98                	cltq   
    dbfd:	8b 55 f4             	mov    -0xc(%rbp),%edx
    dc00:	48 63 ca             	movslq %edx,%rcx
    dc03:	8b 55 f0             	mov    -0x10(%rbp),%edx
    dc06:	48 63 f2             	movslq %edx,%rsi
    dc09:	48 89 c2             	mov    %rax,%rdx
    dc0c:	48 01 d2             	add    %rdx,%rdx
    dc0f:	48 01 c2             	add    %rax,%rdx
    dc12:	48 c1 e2 02          	shl    $0x2,%rdx
    dc16:	48 01 c2             	add    %rax,%rdx
    dc19:	48 8d 04 12          	lea    (%rdx,%rdx,1),%rax
    dc1d:	48 89 c2             	mov    %rax,%rdx
    dc20:	48 89 c8             	mov    %rcx,%rax
    dc23:	48 01 c0             	add    %rax,%rax
    dc26:	48 01 c8             	add    %rcx,%rax
    dc29:	48 c1 e0 02          	shl    $0x2,%rax
    dc2d:	48 01 c8             	add    %rcx,%rax
    dc30:	48 c1 e0 03          	shl    $0x3,%rax
    dc34:	48 01 c2             	add    %rax,%rdx
    dc37:	48 69 c6 38 01 00 00 	imul   $0x138,%rsi,%rax
    dc3e:	48 01 c2             	add    %rax,%rdx
    dc41:	48 8d 05 b8 97 00 00 	lea    0x97b8(%rip),%rax        # 17400 <g_1300>
    dc48:	48 01 d0             	add    %rdx,%rax
    dc4b:	48 8b 40 07          	mov    0x7(%rax),%rax
    dc4f:	8b 55 fc             	mov    -0x4(%rbp),%edx
    dc52:	48 8d 35 09 5f 00 00 	lea    0x5f09(%rip),%rsi        # 13b62 <g_1312+0x1182>
    dc59:	48 89 c7             	mov    %rax,%rdi
    dc5c:	e8 92 8a ff ff       	callq  66f3 <transparent_crc>
    dc61:	8b 45 f8             	mov    -0x8(%rbp),%eax
    dc64:	48 98                	cltq   
    dc66:	8b 55 f4             	mov    -0xc(%rbp),%edx
    dc69:	48 63 ca             	movslq %edx,%rcx
    dc6c:	8b 55 f0             	mov    -0x10(%rbp),%edx
    dc6f:	48 63 f2             	movslq %edx,%rsi
    dc72:	48 89 c2             	mov    %rax,%rdx
    dc75:	48 01 d2             	add    %rdx,%rdx
    dc78:	48 01 c2             	add    %rax,%rdx
    dc7b:	48 c1 e2 02          	shl    $0x2,%rdx
    dc7f:	48 01 c2             	add    %rax,%rdx
    dc82:	48 8d 04 12          	lea    (%rdx,%rdx,1),%rax
    dc86:	48 89 c2             	mov    %rax,%rdx
    dc89:	48 89 c8             	mov    %rcx,%rax
    dc8c:	48 01 c0             	add    %rax,%rax
    dc8f:	48 01 c8             	add    %rcx,%rax
    dc92:	48 c1 e0 02          	shl    $0x2,%rax
    dc96:	48 01 c8             	add    %rcx,%rax
    dc99:	48 c1 e0 03          	shl    $0x3,%rax
    dc9d:	48 01 c2             	add    %rax,%rdx
    dca0:	48 69 c6 38 01 00 00 	imul   $0x138,%rsi,%rax
    dca7:	48 01 c2             	add    %rax,%rdx
    dcaa:	48 8d 05 4f 97 00 00 	lea    0x974f(%rip),%rax        # 17400 <g_1300>
    dcb1:	48 01 d0             	add    %rdx,%rax
    dcb4:	0f b6 40 0f          	movzbl 0xf(%rax),%eax
    dcb8:	c1 e0 06             	shl    $0x6,%eax
    dcbb:	c0 f8 06             	sar    $0x6,%al
    dcbe:	48 0f be c0          	movsbq %al,%rax
    dcc2:	8b 55 fc             	mov    -0x4(%rbp),%edx
    dcc5:	48 8d 35 a9 5e 00 00 	lea    0x5ea9(%rip),%rsi        # 13b75 <g_1312+0x1195>
    dccc:	48 89 c7             	mov    %rax,%rdi
    dccf:	e8 1f 8a ff ff       	callq  66f3 <transparent_crc>
    dcd4:	8b 45 f8             	mov    -0x8(%rbp),%eax
    dcd7:	48 63 c8             	movslq %eax,%rcx
    dcda:	8b 45 f4             	mov    -0xc(%rbp),%eax
    dcdd:	48 63 d0             	movslq %eax,%rdx
    dce0:	8b 45 f0             	mov    -0x10(%rbp),%eax
    dce3:	48 63 f0             	movslq %eax,%rsi
    dce6:	48 89 c8             	mov    %rcx,%rax
    dce9:	48 01 c0             	add    %rax,%rax
    dcec:	48 01 c8             	add    %rcx,%rax
    dcef:	48 c1 e0 02          	shl    $0x2,%rax
    dcf3:	48 01 c8             	add    %rcx,%rax
    dcf6:	48 01 c0             	add    %rax,%rax
    dcf9:	48 69 ce 38 01 00 00 	imul   $0x138,%rsi,%rcx
    dd00:	48 01 c1             	add    %rax,%rcx
    dd03:	48 89 d0             	mov    %rdx,%rax
    dd06:	48 01 c0             	add    %rax,%rax
    dd09:	48 01 d0             	add    %rdx,%rax
    dd0c:	48 c1 e0 02          	shl    $0x2,%rax
    dd10:	48 01 d0             	add    %rdx,%rax
    dd13:	48 c1 e0 03          	shl    $0x3,%rax
    dd17:	48 8d 14 01          	lea    (%rcx,%rax,1),%rdx
    dd1b:	48 8d 05 ee 96 00 00 	lea    0x96ee(%rip),%rax        # 17410 <g_1300+0x10>
    dd22:	48 01 d0             	add    %rdx,%rax
    dd25:	0f b6 00             	movzbl (%rax),%eax
    dd28:	48 0f be c0          	movsbq %al,%rax
    dd2c:	8b 55 fc             	mov    -0x4(%rbp),%edx
    dd2f:	48 8d 35 52 5e 00 00 	lea    0x5e52(%rip),%rsi        # 13b88 <g_1312+0x11a8>
    dd36:	48 89 c7             	mov    %rax,%rdi
    dd39:	e8 b5 89 ff ff       	callq  66f3 <transparent_crc>
    dd3e:	8b 45 f8             	mov    -0x8(%rbp),%eax
    dd41:	48 63 c8             	movslq %eax,%rcx
    dd44:	8b 45 f4             	mov    -0xc(%rbp),%eax
    dd47:	48 63 d0             	movslq %eax,%rdx
    dd4a:	8b 45 f0             	mov    -0x10(%rbp),%eax
    dd4d:	48 63 f0             	movslq %eax,%rsi
    dd50:	48 89 c8             	mov    %rcx,%rax
    dd53:	48 01 c0             	add    %rax,%rax
    dd56:	48 01 c8             	add    %rcx,%rax
    dd59:	48 c1 e0 02          	shl    $0x2,%rax
    dd5d:	48 01 c8             	add    %rcx,%rax
    dd60:	48 01 c0             	add    %rax,%rax
    dd63:	48 69 ce 38 01 00 00 	imul   $0x138,%rsi,%rcx
    dd6a:	48 01 c1             	add    %rax,%rcx
    dd6d:	48 89 d0             	mov    %rdx,%rax
    dd70:	48 01 c0             	add    %rax,%rax
    dd73:	48 01 d0             	add    %rdx,%rax
    dd76:	48 c1 e0 02          	shl    $0x2,%rax
    dd7a:	48 01 d0             	add    %rdx,%rax
    dd7d:	48 c1 e0 03          	shl    $0x3,%rax
    dd81:	48 8d 14 01          	lea    (%rcx,%rax,1),%rdx
    dd85:	48 8d 05 85 96 00 00 	lea    0x9685(%rip),%rax        # 17411 <g_1300+0x11>
    dd8c:	48 01 d0             	add    %rdx,%rax
    dd8f:	0f b6 00             	movzbl (%rax),%eax
    dd92:	48 0f be c0          	movsbq %al,%rax
    dd96:	8b 55 fc             	mov    -0x4(%rbp),%edx
    dd99:	48 8d 35 fb 5d 00 00 	lea    0x5dfb(%rip),%rsi        # 13b9b <g_1312+0x11bb>
    dda0:	48 89 c7             	mov    %rax,%rdi
    dda3:	e8 4b 89 ff ff       	callq  66f3 <transparent_crc>
    dda8:	8b 45 f8             	mov    -0x8(%rbp),%eax
    ddab:	48 63 c8             	movslq %eax,%rcx
    ddae:	8b 45 f4             	mov    -0xc(%rbp),%eax
    ddb1:	48 63 d0             	movslq %eax,%rdx
    ddb4:	8b 45 f0             	mov    -0x10(%rbp),%eax
    ddb7:	48 63 f0             	movslq %eax,%rsi
    ddba:	48 89 c8             	mov    %rcx,%rax
    ddbd:	48 01 c0             	add    %rax,%rax
    ddc0:	48 01 c8             	add    %rcx,%rax
    ddc3:	48 c1 e0 02          	shl    $0x2,%rax
    ddc7:	48 01 c8             	add    %rcx,%rax
    ddca:	48 01 c0             	add    %rax,%rax
    ddcd:	48 69 ce 38 01 00 00 	imul   $0x138,%rsi,%rcx
    ddd4:	48 01 c1             	add    %rax,%rcx
    ddd7:	48 89 d0             	mov    %rdx,%rax
    ddda:	48 01 c0             	add    %rax,%rax
    dddd:	48 01 d0             	add    %rdx,%rax
    dde0:	48 c1 e0 02          	shl    $0x2,%rax
    dde4:	48 01 d0             	add    %rdx,%rax
    dde7:	48 c1 e0 03          	shl    $0x3,%rax
    ddeb:	48 8d 14 01          	lea    (%rcx,%rax,1),%rdx
    ddef:	48 8d 05 1a 96 00 00 	lea    0x961a(%rip),%rax        # 17410 <g_1300+0x10>
    ddf6:	48 01 d0             	add    %rdx,%rax
    ddf9:	48 8b 40 02          	mov    0x2(%rax),%rax
    ddfd:	8b 55 fc             	mov    -0x4(%rbp),%edx
    de00:	48 8d 35 a7 5d 00 00 	lea    0x5da7(%rip),%rsi        # 13bae <g_1312+0x11ce>
    de07:	48 89 c7             	mov    %rax,%rdi
    de0a:	e8 e4 88 ff ff       	callq  66f3 <transparent_crc>
    de0f:	83 7d fc 00          	cmpl   $0x0,-0x4(%rbp)
    de13:	74 1c                	je     de31 <main+0x21c6>
    de15:	8b 4d f8             	mov    -0x8(%rbp),%ecx
    de18:	8b 55 f4             	mov    -0xc(%rbp),%edx
    de1b:	8b 45 f0             	mov    -0x10(%rbp),%eax
    de1e:	89 c6                	mov    %eax,%esi
    de20:	48 8d 3d fc 5b 00 00 	lea    0x5bfc(%rip),%rdi        # 13a23 <g_1312+0x1043>
    de27:	b8 00 00 00 00       	mov    $0x0,%eax
    de2c:	e8 4f 72 ff ff       	callq  5080 <printf@plt>
    de31:	83 45 f8 01          	addl   $0x1,-0x8(%rbp)
    de35:	83 7d f8 03          	cmpl   $0x3,-0x8(%rbp)
    de39:	0f 8e 76 fc ff ff    	jle    dab5 <main+0x1e4a>
    de3f:	83 45 f4 01          	addl   $0x1,-0xc(%rbp)
    de43:	83 7d f4 02          	cmpl   $0x2,-0xc(%rbp)
    de47:	0f 8e 5c fc ff ff    	jle    daa9 <main+0x1e3e>
    de4d:	83 45 f0 01          	addl   $0x1,-0x10(%rbp)
    de51:	83 7d f0 02          	cmpl   $0x2,-0x10(%rbp)
    de55:	0f 8e 42 fc ff ff    	jle    da9d <main+0x1e32>
    de5b:	0f b6 05 4e 99 00 00 	movzbl 0x994e(%rip),%eax        # 177b0 <g_1301>
    de62:	0f b6 c0             	movzbl %al,%eax
    de65:	8b 55 fc             	mov    -0x4(%rbp),%edx
    de68:	48 8d 35 52 5d 00 00 	lea    0x5d52(%rip),%rsi        # 13bc1 <g_1312+0x11e1>
    de6f:	48 89 c7             	mov    %rax,%rdi
    de72:	e8 7c 88 ff ff       	callq  66f3 <transparent_crc>
    de77:	0f b7 05 33 99 00 00 	movzwl 0x9933(%rip),%eax        # 177b1 <g_1301+0x1>
    de7e:	0f b7 c0             	movzwl %ax,%eax
    de81:	8b 55 fc             	mov    -0x4(%rbp),%edx
    de84:	48 8d 35 40 5d 00 00 	lea    0x5d40(%rip),%rsi        # 13bcb <g_1312+0x11eb>
    de8b:	48 89 c7             	mov    %rax,%rdi
    de8e:	e8 60 88 ff ff       	callq  66f3 <transparent_crc>
    de93:	8b 05 1a 99 00 00    	mov    0x991a(%rip),%eax        # 177b3 <g_1301+0x3>
    de99:	89 c1                	mov    %eax,%ecx
    de9b:	8b 45 fc             	mov    -0x4(%rbp),%eax
    de9e:	89 c2                	mov    %eax,%edx
    dea0:	48 8d 35 2e 5d 00 00 	lea    0x5d2e(%rip),%rsi        # 13bd5 <g_1312+0x11f5>
    dea7:	48 89 cf             	mov    %rcx,%rdi
    deaa:	e8 44 88 ff ff       	callq  66f3 <transparent_crc>
    deaf:	48 8b 05 01 99 00 00 	mov    0x9901(%rip),%rax        # 177b7 <g_1301+0x7>
    deb6:	8b 55 fc             	mov    -0x4(%rbp),%edx
    deb9:	48 8d 35 1f 5d 00 00 	lea    0x5d1f(%rip),%rsi        # 13bdf <g_1312+0x11ff>
    dec0:	48 89 c7             	mov    %rax,%rdi
    dec3:	e8 2b 88 ff ff       	callq  66f3 <transparent_crc>
    dec8:	0f b6 05 f0 98 00 00 	movzbl 0x98f0(%rip),%eax        # 177bf <g_1301+0xf>
    decf:	c1 e0 06             	shl    $0x6,%eax
    ded2:	c0 f8 06             	sar    $0x6,%al
    ded5:	48 0f be c0          	movsbq %al,%rax
    ded9:	8b 55 fc             	mov    -0x4(%rbp),%edx
    dedc:	48 8d 35 06 5d 00 00 	lea    0x5d06(%rip),%rsi        # 13be9 <g_1312+0x1209>
    dee3:	48 89 c7             	mov    %rax,%rdi
    dee6:	e8 08 88 ff ff       	callq  66f3 <transparent_crc>
    deeb:	0f b6 05 ce 98 00 00 	movzbl 0x98ce(%rip),%eax        # 177c0 <g_1301+0x10>
    def2:	48 0f be c0          	movsbq %al,%rax
    def6:	8b 55 fc             	mov    -0x4(%rbp),%edx
    def9:	48 8d 35 f3 5c 00 00 	lea    0x5cf3(%rip),%rsi        # 13bf3 <g_1312+0x1213>
    df00:	48 89 c7             	mov    %rax,%rdi
    df03:	e8 eb 87 ff ff       	callq  66f3 <transparent_crc>
    df08:	0f b6 05 b2 98 00 00 	movzbl 0x98b2(%rip),%eax        # 177c1 <g_1301+0x11>
    df0f:	48 0f be c0          	movsbq %al,%rax
    df13:	8b 55 fc             	mov    -0x4(%rbp),%edx
    df16:	48 8d 35 e0 5c 00 00 	lea    0x5ce0(%rip),%rsi        # 13bfd <g_1312+0x121d>
    df1d:	48 89 c7             	mov    %rax,%rdi
    df20:	e8 ce 87 ff ff       	callq  66f3 <transparent_crc>
    df25:	48 8b 05 96 98 00 00 	mov    0x9896(%rip),%rax        # 177c2 <g_1301+0x12>
    df2c:	8b 55 fc             	mov    -0x4(%rbp),%edx
    df2f:	48 8d 35 d1 5c 00 00 	lea    0x5cd1(%rip),%rsi        # 13c07 <g_1312+0x1227>
    df36:	48 89 c7             	mov    %rax,%rdi
    df39:	e8 b5 87 ff ff       	callq  66f3 <transparent_crc>
    df3e:	0f b6 05 5b 40 00 00 	movzbl 0x405b(%rip),%eax        # 11fa0 <g_1302>
    df45:	0f b6 c0             	movzbl %al,%eax
    df48:	8b 55 fc             	mov    -0x4(%rbp),%edx
    df4b:	48 8d 35 bf 5c 00 00 	lea    0x5cbf(%rip),%rsi        # 13c11 <g_1312+0x1231>
    df52:	48 89 c7             	mov    %rax,%rdi
    df55:	e8 99 87 ff ff       	callq  66f3 <transparent_crc>
    df5a:	0f b7 05 40 40 00 00 	movzwl 0x4040(%rip),%eax        # 11fa1 <g_1302+0x1>
    df61:	0f b7 c0             	movzwl %ax,%eax
    df64:	8b 55 fc             	mov    -0x4(%rbp),%edx
    df67:	48 8d 35 ad 5c 00 00 	lea    0x5cad(%rip),%rsi        # 13c1b <g_1312+0x123b>
    df6e:	48 89 c7             	mov    %rax,%rdi
    df71:	e8 7d 87 ff ff       	callq  66f3 <transparent_crc>
    df76:	b8 01 00 00 00       	mov    $0x1,%eax
    df7b:	89 c1                	mov    %eax,%ecx
    df7d:	8b 45 fc             	mov    -0x4(%rbp),%eax
    df80:	89 c2                	mov    %eax,%edx
    df82:	48 8d 35 9c 5c 00 00 	lea    0x5c9c(%rip),%rsi        # 13c25 <g_1312+0x1245>
    df89:	48 89 cf             	mov    %rcx,%rdi
    df8c:	e8 62 87 ff ff       	callq  66f3 <transparent_crc>
    df91:	48 8b 05 0f 40 00 00 	mov    0x400f(%rip),%rax        # 11fa7 <g_1302+0x7>
    df98:	8b 55 fc             	mov    -0x4(%rbp),%edx
    df9b:	48 8d 35 8d 5c 00 00 	lea    0x5c8d(%rip),%rsi        # 13c2f <g_1312+0x124f>
    dfa2:	48 89 c7             	mov    %rax,%rdi
    dfa5:	e8 49 87 ff ff       	callq  66f3 <transparent_crc>
    dfaa:	b8 00 00 00 00       	mov    $0x0,%eax
    dfaf:	48 0f be c0          	movsbq %al,%rax
    dfb3:	8b 55 fc             	mov    -0x4(%rbp),%edx
    dfb6:	48 8d 35 7c 5c 00 00 	lea    0x5c7c(%rip),%rsi        # 13c39 <g_1312+0x1259>
    dfbd:	48 89 c7             	mov    %rax,%rdi
    dfc0:	e8 2e 87 ff ff       	callq  66f3 <transparent_crc>
    dfc5:	0f b6 05 e4 3f 00 00 	movzbl 0x3fe4(%rip),%eax        # 11fb0 <g_1302+0x10>
    dfcc:	48 0f be c0          	movsbq %al,%rax
    dfd0:	8b 55 fc             	mov    -0x4(%rbp),%edx
    dfd3:	48 8d 35 69 5c 00 00 	lea    0x5c69(%rip),%rsi        # 13c43 <g_1312+0x1263>
    dfda:	48 89 c7             	mov    %rax,%rdi
    dfdd:	e8 11 87 ff ff       	callq  66f3 <transparent_crc>
    dfe2:	b8 61 00 00 00       	mov    $0x61,%eax
    dfe7:	48 0f be c0          	movsbq %al,%rax
    dfeb:	8b 55 fc             	mov    -0x4(%rbp),%edx
    dfee:	48 8d 35 58 5c 00 00 	lea    0x5c58(%rip),%rsi        # 13c4d <g_1312+0x126d>
    dff5:	48 89 c7             	mov    %rax,%rdi
    dff8:	e8 f6 86 ff ff       	callq  66f3 <transparent_crc>
    dffd:	48 8b 05 ae 3f 00 00 	mov    0x3fae(%rip),%rax        # 11fb2 <g_1302+0x12>
    e004:	8b 55 fc             	mov    -0x4(%rbp),%edx
    e007:	48 8d 35 49 5c 00 00 	lea    0x5c49(%rip),%rsi        # 13c57 <g_1312+0x1277>
    e00e:	48 89 c7             	mov    %rax,%rdi
    e011:	e8 dd 86 ff ff       	callq  66f3 <transparent_crc>
    e016:	0f b6 05 a3 3f 00 00 	movzbl 0x3fa3(%rip),%eax        # 11fc0 <g_1303>
    e01d:	0f b6 c0             	movzbl %al,%eax
    e020:	8b 55 fc             	mov    -0x4(%rbp),%edx
    e023:	48 8d 35 37 5c 00 00 	lea    0x5c37(%rip),%rsi        # 13c61 <g_1312+0x1281>
    e02a:	48 89 c7             	mov    %rax,%rdi
    e02d:	e8 c1 86 ff ff       	callq  66f3 <transparent_crc>
    e032:	0f b7 05 88 3f 00 00 	movzwl 0x3f88(%rip),%eax        # 11fc1 <g_1303+0x1>
    e039:	0f b7 c0             	movzwl %ax,%eax
    e03c:	8b 55 fc             	mov    -0x4(%rbp),%edx
    e03f:	48 8d 35 25 5c 00 00 	lea    0x5c25(%rip),%rsi        # 13c6b <g_1312+0x128b>
    e046:	48 89 c7             	mov    %rax,%rdi
    e049:	e8 a5 86 ff ff       	callq  66f3 <transparent_crc>
    e04e:	b8 40 00 67 bf       	mov    $0xbf670040,%eax
    e053:	89 c1                	mov    %eax,%ecx
    e055:	8b 45 fc             	mov    -0x4(%rbp),%eax
    e058:	89 c2                	mov    %eax,%edx
    e05a:	48 8d 35 14 5c 00 00 	lea    0x5c14(%rip),%rsi        # 13c75 <g_1312+0x1295>
    e061:	48 89 cf             	mov    %rcx,%rdi
    e064:	e8 8a 86 ff ff       	callq  66f3 <transparent_crc>
    e069:	48 8b 05 57 3f 00 00 	mov    0x3f57(%rip),%rax        # 11fc7 <g_1303+0x7>
    e070:	8b 55 fc             	mov    -0x4(%rbp),%edx
    e073:	48 8d 35 05 5c 00 00 	lea    0x5c05(%rip),%rsi        # 13c7f <g_1312+0x129f>
    e07a:	48 89 c7             	mov    %rax,%rdi
    e07d:	e8 71 86 ff ff       	callq  66f3 <transparent_crc>
    e082:	b8 01 00 00 00       	mov    $0x1,%eax
    e087:	48 0f be c0          	movsbq %al,%rax
    e08b:	8b 55 fc             	mov    -0x4(%rbp),%edx
    e08e:	48 8d 35 f4 5b 00 00 	lea    0x5bf4(%rip),%rsi        # 13c89 <g_1312+0x12a9>
    e095:	48 89 c7             	mov    %rax,%rdi
    e098:	e8 56 86 ff ff       	callq  66f3 <transparent_crc>
    e09d:	0f b6 05 2c 3f 00 00 	movzbl 0x3f2c(%rip),%eax        # 11fd0 <g_1303+0x10>
    e0a4:	48 0f be c0          	movsbq %al,%rax
    e0a8:	8b 55 fc             	mov    -0x4(%rbp),%edx
    e0ab:	48 8d 35 e1 5b 00 00 	lea    0x5be1(%rip),%rsi        # 13c93 <g_1312+0x12b3>
    e0b2:	48 89 c7             	mov    %rax,%rdi
    e0b5:	e8 39 86 ff ff       	callq  66f3 <transparent_crc>
    e0ba:	b8 40 00 00 00       	mov    $0x40,%eax
    e0bf:	48 0f be c0          	movsbq %al,%rax
    e0c3:	8b 55 fc             	mov    -0x4(%rbp),%edx
    e0c6:	48 8d 35 d0 5b 00 00 	lea    0x5bd0(%rip),%rsi        # 13c9d <g_1312+0x12bd>
    e0cd:	48 89 c7             	mov    %rax,%rdi
    e0d0:	e8 1e 86 ff ff       	callq  66f3 <transparent_crc>
    e0d5:	48 8b 05 f6 3e 00 00 	mov    0x3ef6(%rip),%rax        # 11fd2 <g_1303+0x12>
    e0dc:	8b 55 fc             	mov    -0x4(%rbp),%edx
    e0df:	48 8d 35 c1 5b 00 00 	lea    0x5bc1(%rip),%rsi        # 13ca7 <g_1312+0x12c7>
    e0e6:	48 89 c7             	mov    %rax,%rdi
    e0e9:	e8 05 86 ff ff       	callq  66f3 <transparent_crc>
    e0ee:	c7 45 f0 00 00 00 00 	movl   $0x0,-0x10(%rbp)
    e0f5:	e9 08 02 00 00       	jmpq   e302 <main+0x2697>
    e0fa:	8b 45 f0             	mov    -0x10(%rbp),%eax
    e0fd:	48 63 d0             	movslq %eax,%rdx
    e100:	48 89 d0             	mov    %rdx,%rax
    e103:	48 01 c0             	add    %rax,%rax
    e106:	48 01 d0             	add    %rdx,%rax
    e109:	48 c1 e0 02          	shl    $0x2,%rax
    e10d:	48 01 d0             	add    %rdx,%rax
    e110:	48 01 c0             	add    %rax,%rax
    e113:	48 89 c2             	mov    %rax,%rdx
    e116:	48 8d 05 c3 96 00 00 	lea    0x96c3(%rip),%rax        # 177e0 <g_1304>
    e11d:	0f b6 04 02          	movzbl (%rdx,%rax,1),%eax
    e121:	0f b6 c0             	movzbl %al,%eax
    e124:	8b 55 fc             	mov    -0x4(%rbp),%edx
    e127:	48 8d 35 83 5b 00 00 	lea    0x5b83(%rip),%rsi        # 13cb1 <g_1312+0x12d1>
    e12e:	48 89 c7             	mov    %rax,%rdi
    e131:	e8 bd 85 ff ff       	callq  66f3 <transparent_crc>
    e136:	8b 45 f0             	mov    -0x10(%rbp),%eax
    e139:	48 63 d0             	movslq %eax,%rdx
    e13c:	48 89 d0             	mov    %rdx,%rax
    e13f:	48 01 c0             	add    %rax,%rax
    e142:	48 01 d0             	add    %rdx,%rax
    e145:	48 c1 e0 02          	shl    $0x2,%rax
    e149:	48 01 d0             	add    %rdx,%rax
    e14c:	48 01 c0             	add    %rax,%rax
    e14f:	48 89 c2             	mov    %rax,%rdx
    e152:	48 8d 05 87 96 00 00 	lea    0x9687(%rip),%rax        # 177e0 <g_1304>
    e159:	0f b7 44 02 01       	movzwl 0x1(%rdx,%rax,1),%eax
    e15e:	0f b7 c0             	movzwl %ax,%eax
    e161:	8b 55 fc             	mov    -0x4(%rbp),%edx
    e164:	48 8d 35 53 5b 00 00 	lea    0x5b53(%rip),%rsi        # 13cbe <g_1312+0x12de>
    e16b:	48 89 c7             	mov    %rax,%rdi
    e16e:	e8 80 85 ff ff       	callq  66f3 <transparent_crc>
    e173:	8b 45 f0             	mov    -0x10(%rbp),%eax
    e176:	48 63 d0             	movslq %eax,%rdx
    e179:	48 89 d0             	mov    %rdx,%rax
    e17c:	48 01 c0             	add    %rax,%rax
    e17f:	48 01 d0             	add    %rdx,%rax
    e182:	48 c1 e0 02          	shl    $0x2,%rax
    e186:	48 01 d0             	add    %rdx,%rax
    e189:	48 01 c0             	add    %rax,%rax
    e18c:	48 89 c2             	mov    %rax,%rdx
    e18f:	48 8d 05 4a 96 00 00 	lea    0x964a(%rip),%rax        # 177e0 <g_1304>
    e196:	8b 44 02 03          	mov    0x3(%rdx,%rax,1),%eax
    e19a:	89 c1                	mov    %eax,%ecx
    e19c:	8b 45 fc             	mov    -0x4(%rbp),%eax
    e19f:	89 c2                	mov    %eax,%edx
    e1a1:	48 8d 35 23 5b 00 00 	lea    0x5b23(%rip),%rsi        # 13ccb <g_1312+0x12eb>
    e1a8:	48 89 cf             	mov    %rcx,%rdi
    e1ab:	e8 43 85 ff ff       	callq  66f3 <transparent_crc>
    e1b0:	8b 45 f0             	mov    -0x10(%rbp),%eax
    e1b3:	48 63 d0             	movslq %eax,%rdx
    e1b6:	48 89 d0             	mov    %rdx,%rax
    e1b9:	48 01 c0             	add    %rax,%rax
    e1bc:	48 01 d0             	add    %rdx,%rax
    e1bf:	48 c1 e0 02          	shl    $0x2,%rax
    e1c3:	48 01 d0             	add    %rdx,%rax
    e1c6:	48 01 c0             	add    %rax,%rax
    e1c9:	48 89 c2             	mov    %rax,%rdx
    e1cc:	48 8d 05 0d 96 00 00 	lea    0x960d(%rip),%rax        # 177e0 <g_1304>
    e1d3:	48 8b 44 02 07       	mov    0x7(%rdx,%rax,1),%rax
    e1d8:	8b 55 fc             	mov    -0x4(%rbp),%edx
    e1db:	48 8d 35 f6 5a 00 00 	lea    0x5af6(%rip),%rsi        # 13cd8 <g_1312+0x12f8>
    e1e2:	48 89 c7             	mov    %rax,%rdi
    e1e5:	e8 09 85 ff ff       	callq  66f3 <transparent_crc>
    e1ea:	8b 45 f0             	mov    -0x10(%rbp),%eax
    e1ed:	48 63 d0             	movslq %eax,%rdx
    e1f0:	48 89 d0             	mov    %rdx,%rax
    e1f3:	48 01 c0             	add    %rax,%rax
    e1f6:	48 01 d0             	add    %rdx,%rax
    e1f9:	48 c1 e0 02          	shl    $0x2,%rax
    e1fd:	48 01 d0             	add    %rdx,%rax
    e200:	48 01 c0             	add    %rax,%rax
    e203:	48 89 c2             	mov    %rax,%rdx
    e206:	48 8d 05 d3 95 00 00 	lea    0x95d3(%rip),%rax        # 177e0 <g_1304>
    e20d:	0f b6 44 02 0f       	movzbl 0xf(%rdx,%rax,1),%eax
    e212:	c1 e0 06             	shl    $0x6,%eax
    e215:	c0 f8 06             	sar    $0x6,%al
    e218:	48 0f be c0          	movsbq %al,%rax
    e21c:	8b 55 fc             	mov    -0x4(%rbp),%edx
    e21f:	48 8d 35 bf 5a 00 00 	lea    0x5abf(%rip),%rsi        # 13ce5 <g_1312+0x1305>
    e226:	48 89 c7             	mov    %rax,%rdi
    e229:	e8 c5 84 ff ff       	callq  66f3 <transparent_crc>
    e22e:	8b 45 f0             	mov    -0x10(%rbp),%eax
    e231:	48 63 d0             	movslq %eax,%rdx
    e234:	48 89 d0             	mov    %rdx,%rax
    e237:	48 01 c0             	add    %rax,%rax
    e23a:	48 01 d0             	add    %rdx,%rax
    e23d:	48 c1 e0 02          	shl    $0x2,%rax
    e241:	48 01 d0             	add    %rdx,%rax
    e244:	48 01 c0             	add    %rax,%rax
    e247:	48 89 c2             	mov    %rax,%rdx
    e24a:	48 8d 05 9f 95 00 00 	lea    0x959f(%rip),%rax        # 177f0 <g_1304+0x10>
    e251:	0f b6 04 02          	movzbl (%rdx,%rax,1),%eax
    e255:	48 0f be c0          	movsbq %al,%rax
    e259:	8b 55 fc             	mov    -0x4(%rbp),%edx
    e25c:	48 8d 35 8f 5a 00 00 	lea    0x5a8f(%rip),%rsi        # 13cf2 <g_1312+0x1312>
    e263:	48 89 c7             	mov    %rax,%rdi
    e266:	e8 88 84 ff ff       	callq  66f3 <transparent_crc>
    e26b:	8b 45 f0             	mov    -0x10(%rbp),%eax
    e26e:	48 63 d0             	movslq %eax,%rdx
    e271:	48 89 d0             	mov    %rdx,%rax
    e274:	48 01 c0             	add    %rax,%rax
    e277:	48 01 d0             	add    %rdx,%rax
    e27a:	48 c1 e0 02          	shl    $0x2,%rax
    e27e:	48 01 d0             	add    %rdx,%rax
    e281:	48 01 c0             	add    %rax,%rax
    e284:	48 89 c2             	mov    %rax,%rdx
    e287:	48 8d 05 63 95 00 00 	lea    0x9563(%rip),%rax        # 177f1 <g_1304+0x11>
    e28e:	0f b6 04 02          	movzbl (%rdx,%rax,1),%eax
    e292:	48 0f be c0          	movsbq %al,%rax
    e296:	8b 55 fc             	mov    -0x4(%rbp),%edx
    e299:	48 8d 35 5f 5a 00 00 	lea    0x5a5f(%rip),%rsi        # 13cff <g_1312+0x131f>
    e2a0:	48 89 c7             	mov    %rax,%rdi
    e2a3:	e8 4b 84 ff ff       	callq  66f3 <transparent_crc>
    e2a8:	8b 45 f0             	mov    -0x10(%rbp),%eax
    e2ab:	48 63 d0             	movslq %eax,%rdx
    e2ae:	48 89 d0             	mov    %rdx,%rax
    e2b1:	48 01 c0             	add    %rax,%rax
    e2b4:	48 01 d0             	add    %rdx,%rax
    e2b7:	48 c1 e0 02          	shl    $0x2,%rax
    e2bb:	48 01 d0             	add    %rdx,%rax
    e2be:	48 01 c0             	add    %rax,%rax
    e2c1:	48 89 c2             	mov    %rax,%rdx
    e2c4:	48 8d 05 25 95 00 00 	lea    0x9525(%rip),%rax        # 177f0 <g_1304+0x10>
    e2cb:	48 8b 44 02 02       	mov    0x2(%rdx,%rax,1),%rax
    e2d0:	8b 55 fc             	mov    -0x4(%rbp),%edx
    e2d3:	48 8d 35 32 5a 00 00 	lea    0x5a32(%rip),%rsi        # 13d0c <g_1312+0x132c>
    e2da:	48 89 c7             	mov    %rax,%rdi
    e2dd:	e8 11 84 ff ff       	callq  66f3 <transparent_crc>
    e2e2:	83 7d fc 00          	cmpl   $0x0,-0x4(%rbp)
    e2e6:	74 16                	je     e2fe <main+0x2693>
    e2e8:	8b 45 f0             	mov    -0x10(%rbp),%eax
    e2eb:	89 c6                	mov    %eax,%esi
    e2ed:	48 8d 3d fe 50 00 00 	lea    0x50fe(%rip),%rdi        # 133f2 <g_1312+0xa12>
    e2f4:	b8 00 00 00 00       	mov    $0x0,%eax
    e2f9:	e8 82 6d ff ff       	callq  5080 <printf@plt>
    e2fe:	83 45 f0 01          	addl   $0x1,-0x10(%rbp)
    e302:	83 7d f0 05          	cmpl   $0x5,-0x10(%rbp)
    e306:	0f 8e ee fd ff ff    	jle    e0fa <main+0x248f>
    e30c:	c7 45 f0 00 00 00 00 	movl   $0x0,-0x10(%rbp)
    e313:	e9 9d 02 00 00       	jmpq   e5b5 <main+0x294a>
    e318:	c7 45 f4 00 00 00 00 	movl   $0x0,-0xc(%rbp)
    e31f:	e9 83 02 00 00       	jmpq   e5a7 <main+0x293c>
    e324:	8b 45 f4             	mov    -0xc(%rbp),%eax
    e327:	48 63 d0             	movslq %eax,%rdx
    e32a:	8b 45 f0             	mov    -0x10(%rbp),%eax
    e32d:	48 63 c8             	movslq %eax,%rcx
    e330:	48 89 d0             	mov    %rdx,%rax
    e333:	48 01 c0             	add    %rax,%rax
    e336:	48 01 d0             	add    %rdx,%rax
    e339:	48 c1 e0 02          	shl    $0x2,%rax
    e33d:	48 01 d0             	add    %rdx,%rax
    e340:	48 01 c0             	add    %rax,%rax
    e343:	48 69 d1 b6 00 00 00 	imul   $0xb6,%rcx,%rdx
    e34a:	48 01 c2             	add    %rax,%rdx
    e34d:	48 8d 05 8c 3c 00 00 	lea    0x3c8c(%rip),%rax        # 11fe0 <g_1305>
    e354:	48 01 d0             	add    %rdx,%rax
    e357:	0f b6 00             	movzbl (%rax),%eax
    e35a:	0f b6 c0             	movzbl %al,%eax
    e35d:	8b 55 fc             	mov    -0x4(%rbp),%edx
    e360:	48 8d 35 b2 59 00 00 	lea    0x59b2(%rip),%rsi        # 13d19 <g_1312+0x1339>
    e367:	48 89 c7             	mov    %rax,%rdi
    e36a:	e8 84 83 ff ff       	callq  66f3 <transparent_crc>
    e36f:	8b 45 f4             	mov    -0xc(%rbp),%eax
    e372:	48 63 d0             	movslq %eax,%rdx
    e375:	8b 45 f0             	mov    -0x10(%rbp),%eax
    e378:	48 63 c8             	movslq %eax,%rcx
    e37b:	48 89 d0             	mov    %rdx,%rax
    e37e:	48 01 c0             	add    %rax,%rax
    e381:	48 01 d0             	add    %rdx,%rax
    e384:	48 c1 e0 02          	shl    $0x2,%rax
    e388:	48 01 d0             	add    %rdx,%rax
    e38b:	48 01 c0             	add    %rax,%rax
    e38e:	48 69 d1 b6 00 00 00 	imul   $0xb6,%rcx,%rdx
    e395:	48 01 c2             	add    %rax,%rdx
    e398:	48 8d 05 41 3c 00 00 	lea    0x3c41(%rip),%rax        # 11fe0 <g_1305>
    e39f:	48 01 d0             	add    %rdx,%rax
    e3a2:	0f b7 40 01          	movzwl 0x1(%rax),%eax
    e3a6:	0f b7 c0             	movzwl %ax,%eax
    e3a9:	8b 55 fc             	mov    -0x4(%rbp),%edx
    e3ac:	48 8d 35 76 59 00 00 	lea    0x5976(%rip),%rsi        # 13d29 <g_1312+0x1349>
    e3b3:	48 89 c7             	mov    %rax,%rdi
    e3b6:	e8 38 83 ff ff       	callq  66f3 <transparent_crc>
    e3bb:	8b 45 f4             	mov    -0xc(%rbp),%eax
    e3be:	48 63 d0             	movslq %eax,%rdx
    e3c1:	8b 45 f0             	mov    -0x10(%rbp),%eax
    e3c4:	48 63 c8             	movslq %eax,%rcx
    e3c7:	48 89 d0             	mov    %rdx,%rax
    e3ca:	48 01 c0             	add    %rax,%rax
    e3cd:	48 01 d0             	add    %rdx,%rax
    e3d0:	48 c1 e0 02          	shl    $0x2,%rax
    e3d4:	48 01 d0             	add    %rdx,%rax
    e3d7:	48 01 c0             	add    %rax,%rax
    e3da:	48 69 d1 b6 00 00 00 	imul   $0xb6,%rcx,%rdx
    e3e1:	48 01 c2             	add    %rax,%rdx
    e3e4:	48 8d 05 f5 3b 00 00 	lea    0x3bf5(%rip),%rax        # 11fe0 <g_1305>
    e3eb:	48 01 d0             	add    %rdx,%rax
    e3ee:	8b 40 03             	mov    0x3(%rax),%eax
    e3f1:	89 c1                	mov    %eax,%ecx
    e3f3:	8b 45 fc             	mov    -0x4(%rbp),%eax
    e3f6:	89 c2                	mov    %eax,%edx
    e3f8:	48 8d 35 3a 59 00 00 	lea    0x593a(%rip),%rsi        # 13d39 <g_1312+0x1359>
    e3ff:	48 89 cf             	mov    %rcx,%rdi
    e402:	e8 ec 82 ff ff       	callq  66f3 <transparent_crc>
    e407:	8b 45 f4             	mov    -0xc(%rbp),%eax
    e40a:	48 63 d0             	movslq %eax,%rdx
    e40d:	8b 45 f0             	mov    -0x10(%rbp),%eax
    e410:	48 63 c8             	movslq %eax,%rcx
    e413:	48 89 d0             	mov    %rdx,%rax
    e416:	48 01 c0             	add    %rax,%rax
    e419:	48 01 d0             	add    %rdx,%rax
    e41c:	48 c1 e0 02          	shl    $0x2,%rax
    e420:	48 01 d0             	add    %rdx,%rax
    e423:	48 01 c0             	add    %rax,%rax
    e426:	48 69 d1 b6 00 00 00 	imul   $0xb6,%rcx,%rdx
    e42d:	48 01 c2             	add    %rax,%rdx
    e430:	48 8d 05 a9 3b 00 00 	lea    0x3ba9(%rip),%rax        # 11fe0 <g_1305>
    e437:	48 01 d0             	add    %rdx,%rax
    e43a:	48 8b 40 07          	mov    0x7(%rax),%rax
    e43e:	8b 55 fc             	mov    -0x4(%rbp),%edx
    e441:	48 8d 35 01 59 00 00 	lea    0x5901(%rip),%rsi        # 13d49 <g_1312+0x1369>
    e448:	48 89 c7             	mov    %rax,%rdi
    e44b:	e8 a3 82 ff ff       	callq  66f3 <transparent_crc>
    e450:	8b 45 f4             	mov    -0xc(%rbp),%eax
    e453:	48 63 d0             	movslq %eax,%rdx
    e456:	8b 45 f0             	mov    -0x10(%rbp),%eax
    e459:	48 63 c8             	movslq %eax,%rcx
    e45c:	48 89 d0             	mov    %rdx,%rax
    e45f:	48 01 c0             	add    %rax,%rax
    e462:	48 01 d0             	add    %rdx,%rax
    e465:	48 c1 e0 02          	shl    $0x2,%rax
    e469:	48 01 d0             	add    %rdx,%rax
    e46c:	48 01 c0             	add    %rax,%rax
    e46f:	48 69 d1 b6 00 00 00 	imul   $0xb6,%rcx,%rdx
    e476:	48 01 c2             	add    %rax,%rdx
    e479:	48 8d 05 60 3b 00 00 	lea    0x3b60(%rip),%rax        # 11fe0 <g_1305>
    e480:	48 01 d0             	add    %rdx,%rax
    e483:	0f b6 40 0f          	movzbl 0xf(%rax),%eax
    e487:	c1 e0 06             	shl    $0x6,%eax
    e48a:	c0 f8 06             	sar    $0x6,%al
    e48d:	48 0f be c0          	movsbq %al,%rax
    e491:	8b 55 fc             	mov    -0x4(%rbp),%edx
    e494:	48 8d 35 be 58 00 00 	lea    0x58be(%rip),%rsi        # 13d59 <g_1312+0x1379>
    e49b:	48 89 c7             	mov    %rax,%rdi
    e49e:	e8 50 82 ff ff       	callq  66f3 <transparent_crc>
    e4a3:	8b 45 f4             	mov    -0xc(%rbp),%eax
    e4a6:	48 63 d0             	movslq %eax,%rdx
    e4a9:	8b 45 f0             	mov    -0x10(%rbp),%eax
    e4ac:	48 63 c8             	movslq %eax,%rcx
    e4af:	48 89 d0             	mov    %rdx,%rax
    e4b2:	48 01 c0             	add    %rax,%rax
    e4b5:	48 01 d0             	add    %rdx,%rax
    e4b8:	48 c1 e0 02          	shl    $0x2,%rax
    e4bc:	48 01 d0             	add    %rdx,%rax
    e4bf:	48 01 c0             	add    %rax,%rax
    e4c2:	48 69 d1 b6 00 00 00 	imul   $0xb6,%rcx,%rdx
    e4c9:	48 01 c2             	add    %rax,%rdx
    e4cc:	48 8d 05 1d 3b 00 00 	lea    0x3b1d(%rip),%rax        # 11ff0 <g_1305+0x10>
    e4d3:	48 01 d0             	add    %rdx,%rax
    e4d6:	0f b6 00             	movzbl (%rax),%eax
    e4d9:	48 0f be c0          	movsbq %al,%rax
    e4dd:	8b 55 fc             	mov    -0x4(%rbp),%edx
    e4e0:	48 8d 35 82 58 00 00 	lea    0x5882(%rip),%rsi        # 13d69 <g_1312+0x1389>
    e4e7:	48 89 c7             	mov    %rax,%rdi
    e4ea:	e8 04 82 ff ff       	callq  66f3 <transparent_crc>
    e4ef:	8b 45 f4             	mov    -0xc(%rbp),%eax
    e4f2:	48 63 d0             	movslq %eax,%rdx
    e4f5:	8b 45 f0             	mov    -0x10(%rbp),%eax
    e4f8:	48 63 c8             	movslq %eax,%rcx
    e4fb:	48 89 d0             	mov    %rdx,%rax
    e4fe:	48 01 c0             	add    %rax,%rax
    e501:	48 01 d0             	add    %rdx,%rax
    e504:	48 c1 e0 02          	shl    $0x2,%rax
    e508:	48 01 d0             	add    %rdx,%rax
    e50b:	48 01 c0             	add    %rax,%rax
    e50e:	48 69 d1 b6 00 00 00 	imul   $0xb6,%rcx,%rdx
    e515:	48 01 c2             	add    %rax,%rdx
    e518:	48 8d 05 d2 3a 00 00 	lea    0x3ad2(%rip),%rax        # 11ff1 <g_1305+0x11>
    e51f:	48 01 d0             	add    %rdx,%rax
    e522:	0f b6 00             	movzbl (%rax),%eax
    e525:	48 0f be c0          	movsbq %al,%rax
    e529:	8b 55 fc             	mov    -0x4(%rbp),%edx
    e52c:	48 8d 35 46 58 00 00 	lea    0x5846(%rip),%rsi        # 13d79 <g_1312+0x1399>
    e533:	48 89 c7             	mov    %rax,%rdi
    e536:	e8 b8 81 ff ff       	callq  66f3 <transparent_crc>
    e53b:	8b 45 f4             	mov    -0xc(%rbp),%eax
    e53e:	48 63 d0             	movslq %eax,%rdx
    e541:	8b 45 f0             	mov    -0x10(%rbp),%eax
    e544:	48 63 c8             	movslq %eax,%rcx
    e547:	48 89 d0             	mov    %rdx,%rax
    e54a:	48 01 c0             	add    %rax,%rax
    e54d:	48 01 d0             	add    %rdx,%rax
    e550:	48 c1 e0 02          	shl    $0x2,%rax
    e554:	48 01 d0             	add    %rdx,%rax
    e557:	48 01 c0             	add    %rax,%rax
    e55a:	48 69 d1 b6 00 00 00 	imul   $0xb6,%rcx,%rdx
    e561:	48 01 c2             	add    %rax,%rdx
    e564:	48 8d 05 85 3a 00 00 	lea    0x3a85(%rip),%rax        # 11ff0 <g_1305+0x10>
    e56b:	48 01 d0             	add    %rdx,%rax
    e56e:	48 8b 40 02          	mov    0x2(%rax),%rax
    e572:	8b 55 fc             	mov    -0x4(%rbp),%edx
    e575:	48 8d 35 0d 58 00 00 	lea    0x580d(%rip),%rsi        # 13d89 <g_1312+0x13a9>
    e57c:	48 89 c7             	mov    %rax,%rdi
    e57f:	e8 6f 81 ff ff       	callq  66f3 <transparent_crc>
    e584:	83 7d fc 00          	cmpl   $0x0,-0x4(%rbp)
    e588:	74 19                	je     e5a3 <main+0x2938>
    e58a:	8b 55 f4             	mov    -0xc(%rbp),%edx
    e58d:	8b 45 f0             	mov    -0x10(%rbp),%eax
    e590:	89 c6                	mov    %eax,%esi
    e592:	48 8d 3d 0c 4e 00 00 	lea    0x4e0c(%rip),%rdi        # 133a5 <g_1312+0x9c5>
    e599:	b8 00 00 00 00       	mov    $0x0,%eax
    e59e:	e8 dd 6a ff ff       	callq  5080 <printf@plt>
    e5a3:	83 45 f4 01          	addl   $0x1,-0xc(%rbp)
    e5a7:	83 7d f4 06          	cmpl   $0x6,-0xc(%rbp)
    e5ab:	0f 8e 73 fd ff ff    	jle    e324 <main+0x26b9>
    e5b1:	83 45 f0 01          	addl   $0x1,-0x10(%rbp)
    e5b5:	83 7d f0 01          	cmpl   $0x1,-0x10(%rbp)
    e5b9:	0f 8e 59 fd ff ff    	jle    e318 <main+0x26ad>
    e5bf:	0f b6 05 8a 3b 00 00 	movzbl 0x3b8a(%rip),%eax        # 12150 <g_1306>
    e5c6:	0f b6 c0             	movzbl %al,%eax
    e5c9:	8b 55 fc             	mov    -0x4(%rbp),%edx
    e5cc:	48 8d 35 c6 57 00 00 	lea    0x57c6(%rip),%rsi        # 13d99 <g_1312+0x13b9>
    e5d3:	48 89 c7             	mov    %rax,%rdi
    e5d6:	e8 18 81 ff ff       	callq  66f3 <transparent_crc>
    e5db:	0f b7 05 6f 3b 00 00 	movzwl 0x3b6f(%rip),%eax        # 12151 <g_1306+0x1>
    e5e2:	0f b7 c0             	movzwl %ax,%eax
    e5e5:	8b 55 fc             	mov    -0x4(%rbp),%edx
    e5e8:	48 8d 35 b4 57 00 00 	lea    0x57b4(%rip),%rsi        # 13da3 <g_1312+0x13c3>
    e5ef:	48 89 c7             	mov    %rax,%rdi
    e5f2:	e8 fc 80 ff ff       	callq  66f3 <transparent_crc>
    e5f7:	b8 a2 93 16 9f       	mov    $0x9f1693a2,%eax
    e5fc:	89 c1                	mov    %eax,%ecx
    e5fe:	8b 45 fc             	mov    -0x4(%rbp),%eax
    e601:	89 c2                	mov    %eax,%edx
    e603:	48 8d 35 a3 57 00 00 	lea    0x57a3(%rip),%rsi        # 13dad <g_1312+0x13cd>
    e60a:	48 89 cf             	mov    %rcx,%rdi
    e60d:	e8 e1 80 ff ff       	callq  66f3 <transparent_crc>
    e612:	48 8b 05 3e 3b 00 00 	mov    0x3b3e(%rip),%rax        # 12157 <g_1306+0x7>
    e619:	8b 55 fc             	mov    -0x4(%rbp),%edx
    e61c:	48 8d 35 94 57 00 00 	lea    0x5794(%rip),%rsi        # 13db7 <g_1312+0x13d7>
    e623:	48 89 c7             	mov    %rax,%rdi
    e626:	e8 c8 80 ff ff       	callq  66f3 <transparent_crc>
    e62b:	b8 00 00 00 00       	mov    $0x0,%eax
    e630:	48 0f be c0          	movsbq %al,%rax
    e634:	8b 55 fc             	mov    -0x4(%rbp),%edx
    e637:	48 8d 35 83 57 00 00 	lea    0x5783(%rip),%rsi        # 13dc1 <g_1312+0x13e1>
    e63e:	48 89 c7             	mov    %rax,%rdi
    e641:	e8 ad 80 ff ff       	callq  66f3 <transparent_crc>
    e646:	0f b6 05 13 3b 00 00 	movzbl 0x3b13(%rip),%eax        # 12160 <g_1306+0x10>
    e64d:	48 0f be c0          	movsbq %al,%rax
    e651:	8b 55 fc             	mov    -0x4(%rbp),%edx
    e654:	48 8d 35 70 57 00 00 	lea    0x5770(%rip),%rsi        # 13dcb <g_1312+0x13eb>
    e65b:	48 89 c7             	mov    %rax,%rdi
    e65e:	e8 90 80 ff ff       	callq  66f3 <transparent_crc>
    e663:	b8 00 00 00 00       	mov    $0x0,%eax
    e668:	48 0f be c0          	movsbq %al,%rax
    e66c:	8b 55 fc             	mov    -0x4(%rbp),%edx
    e66f:	48 8d 35 5f 57 00 00 	lea    0x575f(%rip),%rsi        # 13dd5 <g_1312+0x13f5>
    e676:	48 89 c7             	mov    %rax,%rdi
    e679:	e8 75 80 ff ff       	callq  66f3 <transparent_crc>
    e67e:	48 8b 05 dd 3a 00 00 	mov    0x3add(%rip),%rax        # 12162 <g_1306+0x12>
    e685:	8b 55 fc             	mov    -0x4(%rbp),%edx
    e688:	48 8d 35 50 57 00 00 	lea    0x5750(%rip),%rsi        # 13ddf <g_1312+0x13ff>
    e68f:	48 89 c7             	mov    %rax,%rdi
    e692:	e8 5c 80 ff ff       	callq  66f3 <transparent_crc>
    e697:	c7 45 f0 00 00 00 00 	movl   $0x0,-0x10(%rbp)
    e69e:	e9 d5 02 00 00       	jmpq   e978 <main+0x2d0d>
    e6a3:	c7 45 f4 00 00 00 00 	movl   $0x0,-0xc(%rbp)
    e6aa:	e9 bb 02 00 00       	jmpq   e96a <main+0x2cff>
    e6af:	8b 45 f4             	mov    -0xc(%rbp),%eax
    e6b2:	48 63 d0             	movslq %eax,%rdx
    e6b5:	8b 45 f0             	mov    -0x10(%rbp),%eax
    e6b8:	48 63 c8             	movslq %eax,%rcx
    e6bb:	48 89 d0             	mov    %rdx,%rax
    e6be:	48 01 c0             	add    %rax,%rax
    e6c1:	48 01 d0             	add    %rdx,%rax
    e6c4:	48 c1 e0 02          	shl    $0x2,%rax
    e6c8:	48 01 d0             	add    %rdx,%rax
    e6cb:	48 01 c0             	add    %rax,%rax
    e6ce:	48 89 ca             	mov    %rcx,%rdx
    e6d1:	48 c1 e2 06          	shl    $0x6,%rdx
    e6d5:	48 01 ca             	add    %rcx,%rdx
    e6d8:	48 c1 e2 02          	shl    $0x2,%rdx
    e6dc:	48 01 c2             	add    %rax,%rdx
    e6df:	48 8d 05 9a 3a 00 00 	lea    0x3a9a(%rip),%rax        # 12180 <g_1307>
    e6e6:	48 01 d0             	add    %rdx,%rax
    e6e9:	0f b6 00             	movzbl (%rax),%eax
    e6ec:	0f b6 c0             	movzbl %al,%eax
    e6ef:	8b 55 fc             	mov    -0x4(%rbp),%edx
    e6f2:	48 8d 35 f0 56 00 00 	lea    0x56f0(%rip),%rsi        # 13de9 <g_1312+0x1409>
    e6f9:	48 89 c7             	mov    %rax,%rdi
    e6fc:	e8 f2 7f ff ff       	callq  66f3 <transparent_crc>
    e701:	8b 45 f4             	mov    -0xc(%rbp),%eax
    e704:	48 63 d0             	movslq %eax,%rdx
    e707:	8b 45 f0             	mov    -0x10(%rbp),%eax
    e70a:	48 63 c8             	movslq %eax,%rcx
    e70d:	48 89 d0             	mov    %rdx,%rax
    e710:	48 01 c0             	add    %rax,%rax
    e713:	48 01 d0             	add    %rdx,%rax
    e716:	48 c1 e0 02          	shl    $0x2,%rax
    e71a:	48 01 d0             	add    %rdx,%rax
    e71d:	48 01 c0             	add    %rax,%rax
    e720:	48 89 ca             	mov    %rcx,%rdx
    e723:	48 c1 e2 06          	shl    $0x6,%rdx
    e727:	48 01 ca             	add    %rcx,%rdx
    e72a:	48 c1 e2 02          	shl    $0x2,%rdx
    e72e:	48 01 c2             	add    %rax,%rdx
    e731:	48 8d 05 48 3a 00 00 	lea    0x3a48(%rip),%rax        # 12180 <g_1307>
    e738:	48 01 d0             	add    %rdx,%rax
    e73b:	0f b7 40 01          	movzwl 0x1(%rax),%eax
    e73f:	0f b7 c0             	movzwl %ax,%eax
    e742:	8b 55 fc             	mov    -0x4(%rbp),%edx
    e745:	48 8d 35 ad 56 00 00 	lea    0x56ad(%rip),%rsi        # 13df9 <g_1312+0x1419>
    e74c:	48 89 c7             	mov    %rax,%rdi
    e74f:	e8 9f 7f ff ff       	callq  66f3 <transparent_crc>
    e754:	8b 45 f4             	mov    -0xc(%rbp),%eax
    e757:	48 63 d0             	movslq %eax,%rdx
    e75a:	8b 45 f0             	mov    -0x10(%rbp),%eax
    e75d:	48 63 c8             	movslq %eax,%rcx
    e760:	48 89 d0             	mov    %rdx,%rax
    e763:	48 01 c0             	add    %rax,%rax
    e766:	48 01 d0             	add    %rdx,%rax
    e769:	48 c1 e0 02          	shl    $0x2,%rax
    e76d:	48 01 d0             	add    %rdx,%rax
    e770:	48 01 c0             	add    %rax,%rax
    e773:	48 89 ca             	mov    %rcx,%rdx
    e776:	48 c1 e2 06          	shl    $0x6,%rdx
    e77a:	48 01 ca             	add    %rcx,%rdx
    e77d:	48 c1 e2 02          	shl    $0x2,%rdx
    e781:	48 01 c2             	add    %rax,%rdx
    e784:	48 8d 05 f5 39 00 00 	lea    0x39f5(%rip),%rax        # 12180 <g_1307>
    e78b:	48 01 d0             	add    %rdx,%rax
    e78e:	8b 40 03             	mov    0x3(%rax),%eax
    e791:	89 c1                	mov    %eax,%ecx
    e793:	8b 45 fc             	mov    -0x4(%rbp),%eax
    e796:	89 c2                	mov    %eax,%edx
    e798:	48 8d 35 6a 56 00 00 	lea    0x566a(%rip),%rsi        # 13e09 <g_1312+0x1429>
    e79f:	48 89 cf             	mov    %rcx,%rdi
    e7a2:	e8 4c 7f ff ff       	callq  66f3 <transparent_crc>
    e7a7:	8b 45 f4             	mov    -0xc(%rbp),%eax
    e7aa:	48 63 d0             	movslq %eax,%rdx
    e7ad:	8b 45 f0             	mov    -0x10(%rbp),%eax
    e7b0:	48 63 c8             	movslq %eax,%rcx
    e7b3:	48 89 d0             	mov    %rdx,%rax
    e7b6:	48 01 c0             	add    %rax,%rax
    e7b9:	48 01 d0             	add    %rdx,%rax
    e7bc:	48 c1 e0 02          	shl    $0x2,%rax
    e7c0:	48 01 d0             	add    %rdx,%rax
    e7c3:	48 01 c0             	add    %rax,%rax
    e7c6:	48 89 ca             	mov    %rcx,%rdx
    e7c9:	48 c1 e2 06          	shl    $0x6,%rdx
    e7cd:	48 01 ca             	add    %rcx,%rdx
    e7d0:	48 c1 e2 02          	shl    $0x2,%rdx
    e7d4:	48 01 c2             	add    %rax,%rdx
    e7d7:	48 8d 05 a2 39 00 00 	lea    0x39a2(%rip),%rax        # 12180 <g_1307>
    e7de:	48 01 d0             	add    %rdx,%rax
    e7e1:	48 8b 40 07          	mov    0x7(%rax),%rax
    e7e5:	8b 55 fc             	mov    -0x4(%rbp),%edx
    e7e8:	48 8d 35 2a 56 00 00 	lea    0x562a(%rip),%rsi        # 13e19 <g_1312+0x1439>
    e7ef:	48 89 c7             	mov    %rax,%rdi
    e7f2:	e8 fc 7e ff ff       	callq  66f3 <transparent_crc>
    e7f7:	8b 45 f4             	mov    -0xc(%rbp),%eax
    e7fa:	48 63 d0             	movslq %eax,%rdx
    e7fd:	8b 45 f0             	mov    -0x10(%rbp),%eax
    e800:	48 63 c8             	movslq %eax,%rcx
    e803:	48 89 d0             	mov    %rdx,%rax
    e806:	48 01 c0             	add    %rax,%rax
    e809:	48 01 d0             	add    %rdx,%rax
    e80c:	48 c1 e0 02          	shl    $0x2,%rax
    e810:	48 01 d0             	add    %rdx,%rax
    e813:	48 01 c0             	add    %rax,%rax
    e816:	48 89 ca             	mov    %rcx,%rdx
    e819:	48 c1 e2 06          	shl    $0x6,%rdx
    e81d:	48 01 ca             	add    %rcx,%rdx
    e820:	48 c1 e2 02          	shl    $0x2,%rdx
    e824:	48 01 c2             	add    %rax,%rdx
    e827:	48 8d 05 52 39 00 00 	lea    0x3952(%rip),%rax        # 12180 <g_1307>
    e82e:	48 01 d0             	add    %rdx,%rax
    e831:	0f b6 40 0f          	movzbl 0xf(%rax),%eax
    e835:	c1 e0 06             	shl    $0x6,%eax
    e838:	c0 f8 06             	sar    $0x6,%al
    e83b:	48 0f be c0          	movsbq %al,%rax
    e83f:	8b 55 fc             	mov    -0x4(%rbp),%edx
    e842:	48 8d 35 e0 55 00 00 	lea    0x55e0(%rip),%rsi        # 13e29 <g_1312+0x1449>
    e849:	48 89 c7             	mov    %rax,%rdi
    e84c:	e8 a2 7e ff ff       	callq  66f3 <transparent_crc>
    e851:	8b 45 f4             	mov    -0xc(%rbp),%eax
    e854:	48 63 d0             	movslq %eax,%rdx
    e857:	8b 45 f0             	mov    -0x10(%rbp),%eax
    e85a:	48 63 c8             	movslq %eax,%rcx
    e85d:	48 89 d0             	mov    %rdx,%rax
    e860:	48 01 c0             	add    %rax,%rax
    e863:	48 01 d0             	add    %rdx,%rax
    e866:	48 c1 e0 02          	shl    $0x2,%rax
    e86a:	48 01 d0             	add    %rdx,%rax
    e86d:	48 01 c0             	add    %rax,%rax
    e870:	48 89 ca             	mov    %rcx,%rdx
    e873:	48 c1 e2 06          	shl    $0x6,%rdx
    e877:	48 01 ca             	add    %rcx,%rdx
    e87a:	48 c1 e2 02          	shl    $0x2,%rdx
    e87e:	48 01 c2             	add    %rax,%rdx
    e881:	48 8d 05 08 39 00 00 	lea    0x3908(%rip),%rax        # 12190 <g_1307+0x10>
    e888:	48 01 d0             	add    %rdx,%rax
    e88b:	0f b6 00             	movzbl (%rax),%eax
    e88e:	48 0f be c0          	movsbq %al,%rax
    e892:	8b 55 fc             	mov    -0x4(%rbp),%edx
    e895:	48 8d 35 9d 55 00 00 	lea    0x559d(%rip),%rsi        # 13e39 <g_1312+0x1459>
    e89c:	48 89 c7             	mov    %rax,%rdi
    e89f:	e8 4f 7e ff ff       	callq  66f3 <transparent_crc>
    e8a4:	8b 45 f4             	mov    -0xc(%rbp),%eax
    e8a7:	48 63 d0             	movslq %eax,%rdx
    e8aa:	8b 45 f0             	mov    -0x10(%rbp),%eax
    e8ad:	48 63 c8             	movslq %eax,%rcx
    e8b0:	48 89 d0             	mov    %rdx,%rax
    e8b3:	48 01 c0             	add    %rax,%rax
    e8b6:	48 01 d0             	add    %rdx,%rax
    e8b9:	48 c1 e0 02          	shl    $0x2,%rax
    e8bd:	48 01 d0             	add    %rdx,%rax
    e8c0:	48 01 c0             	add    %rax,%rax
    e8c3:	48 89 ca             	mov    %rcx,%rdx
    e8c6:	48 c1 e2 06          	shl    $0x6,%rdx
    e8ca:	48 01 ca             	add    %rcx,%rdx
    e8cd:	48 c1 e2 02          	shl    $0x2,%rdx
    e8d1:	48 01 c2             	add    %rax,%rdx
    e8d4:	48 8d 05 b6 38 00 00 	lea    0x38b6(%rip),%rax        # 12191 <g_1307+0x11>
    e8db:	48 01 d0             	add    %rdx,%rax
    e8de:	0f b6 00             	movzbl (%rax),%eax
    e8e1:	48 0f be c0          	movsbq %al,%rax
    e8e5:	8b 55 fc             	mov    -0x4(%rbp),%edx
    e8e8:	48 8d 35 5a 55 00 00 	lea    0x555a(%rip),%rsi        # 13e49 <g_1312+0x1469>
    e8ef:	48 89 c7             	mov    %rax,%rdi
    e8f2:	e8 fc 7d ff ff       	callq  66f3 <transparent_crc>
    e8f7:	8b 45 f4             	mov    -0xc(%rbp),%eax
    e8fa:	48 63 d0             	movslq %eax,%rdx
    e8fd:	8b 45 f0             	mov    -0x10(%rbp),%eax
    e900:	48 63 c8             	movslq %eax,%rcx
    e903:	48 89 d0             	mov    %rdx,%rax
    e906:	48 01 c0             	add    %rax,%rax
    e909:	48 01 d0             	add    %rdx,%rax
    e90c:	48 c1 e0 02          	shl    $0x2,%rax
    e910:	48 01 d0             	add    %rdx,%rax
    e913:	48 01 c0             	add    %rax,%rax
    e916:	48 89 ca             	mov    %rcx,%rdx
    e919:	48 c1 e2 06          	shl    $0x6,%rdx
    e91d:	48 01 ca             	add    %rcx,%rdx
    e920:	48 c1 e2 02          	shl    $0x2,%rdx
    e924:	48 01 c2             	add    %rax,%rdx
    e927:	48 8d 05 62 38 00 00 	lea    0x3862(%rip),%rax        # 12190 <g_1307+0x10>
    e92e:	48 01 d0             	add    %rdx,%rax
    e931:	48 8b 40 02          	mov    0x2(%rax),%rax
    e935:	8b 55 fc             	mov    -0x4(%rbp),%edx
    e938:	48 8d 35 1a 55 00 00 	lea    0x551a(%rip),%rsi        # 13e59 <g_1312+0x1479>
    e93f:	48 89 c7             	mov    %rax,%rdi
    e942:	e8 ac 7d ff ff       	callq  66f3 <transparent_crc>
    e947:	83 7d fc 00          	cmpl   $0x0,-0x4(%rbp)
    e94b:	74 19                	je     e966 <main+0x2cfb>
    e94d:	8b 55 f4             	mov    -0xc(%rbp),%edx
    e950:	8b 45 f0             	mov    -0x10(%rbp),%eax
    e953:	89 c6                	mov    %eax,%esi
    e955:	48 8d 3d 49 4a 00 00 	lea    0x4a49(%rip),%rdi        # 133a5 <g_1312+0x9c5>
    e95c:	b8 00 00 00 00       	mov    $0x0,%eax
    e961:	e8 1a 67 ff ff       	callq  5080 <printf@plt>
    e966:	83 45 f4 01          	addl   $0x1,-0xc(%rbp)
    e96a:	83 7d f4 09          	cmpl   $0x9,-0xc(%rbp)
    e96e:	0f 8e 3b fd ff ff    	jle    e6af <main+0x2a44>
    e974:	83 45 f0 01          	addl   $0x1,-0x10(%rbp)
    e978:	83 7d f0 07          	cmpl   $0x7,-0x10(%rbp)
    e97c:	0f 8e 21 fd ff ff    	jle    e6a3 <main+0x2a38>
    e982:	0f b6 05 17 40 00 00 	movzbl 0x4017(%rip),%eax        # 129a0 <g_1308>
    e989:	0f b6 c0             	movzbl %al,%eax
    e98c:	8b 55 fc             	mov    -0x4(%rbp),%edx
    e98f:	48 8d 35 d3 54 00 00 	lea    0x54d3(%rip),%rsi        # 13e69 <g_1312+0x1489>
    e996:	48 89 c7             	mov    %rax,%rdi
    e999:	e8 55 7d ff ff       	callq  66f3 <transparent_crc>
    e99e:	0f b7 05 fc 3f 00 00 	movzwl 0x3ffc(%rip),%eax        # 129a1 <g_1308+0x1>
    e9a5:	0f b7 c0             	movzwl %ax,%eax
    e9a8:	8b 55 fc             	mov    -0x4(%rbp),%edx
    e9ab:	48 8d 35 c1 54 00 00 	lea    0x54c1(%rip),%rsi        # 13e73 <g_1312+0x1493>
    e9b2:	48 89 c7             	mov    %rax,%rdi
    e9b5:	e8 39 7d ff ff       	callq  66f3 <transparent_crc>
    e9ba:	b8 fa ff ff ff       	mov    $0xfffffffa,%eax
    e9bf:	89 c1                	mov    %eax,%ecx
    e9c1:	8b 45 fc             	mov    -0x4(%rbp),%eax
    e9c4:	89 c2                	mov    %eax,%edx
    e9c6:	48 8d 35 b0 54 00 00 	lea    0x54b0(%rip),%rsi        # 13e7d <g_1312+0x149d>
    e9cd:	48 89 cf             	mov    %rcx,%rdi
    e9d0:	e8 1e 7d ff ff       	callq  66f3 <transparent_crc>
    e9d5:	48 8b 05 cb 3f 00 00 	mov    0x3fcb(%rip),%rax        # 129a7 <g_1308+0x7>
    e9dc:	8b 55 fc             	mov    -0x4(%rbp),%edx
    e9df:	48 8d 35 a1 54 00 00 	lea    0x54a1(%rip),%rsi        # 13e87 <g_1312+0x14a7>
    e9e6:	48 89 c7             	mov    %rax,%rdi
    e9e9:	e8 05 7d ff ff       	callq  66f3 <transparent_crc>
    e9ee:	b8 ff ff ff ff       	mov    $0xffffffff,%eax
    e9f3:	48 0f be c0          	movsbq %al,%rax
    e9f7:	8b 55 fc             	mov    -0x4(%rbp),%edx
    e9fa:	48 8d 35 90 54 00 00 	lea    0x5490(%rip),%rsi        # 13e91 <g_1312+0x14b1>
    ea01:	48 89 c7             	mov    %rax,%rdi
    ea04:	e8 ea 7c ff ff       	callq  66f3 <transparent_crc>
    ea09:	0f b6 05 a0 3f 00 00 	movzbl 0x3fa0(%rip),%eax        # 129b0 <g_1308+0x10>
    ea10:	48 0f be c0          	movsbq %al,%rax
    ea14:	8b 55 fc             	mov    -0x4(%rbp),%edx
    ea17:	48 8d 35 7d 54 00 00 	lea    0x547d(%rip),%rsi        # 13e9b <g_1312+0x14bb>
    ea1e:	48 89 c7             	mov    %rax,%rdi
    ea21:	e8 cd 7c ff ff       	callq  66f3 <transparent_crc>
    ea26:	b8 35 00 00 00       	mov    $0x35,%eax
    ea2b:	48 0f be c0          	movsbq %al,%rax
    ea2f:	8b 55 fc             	mov    -0x4(%rbp),%edx
    ea32:	48 8d 35 6c 54 00 00 	lea    0x546c(%rip),%rsi        # 13ea5 <g_1312+0x14c5>
    ea39:	48 89 c7             	mov    %rax,%rdi
    ea3c:	e8 b2 7c ff ff       	callq  66f3 <transparent_crc>
    ea41:	48 8b 05 6a 3f 00 00 	mov    0x3f6a(%rip),%rax        # 129b2 <g_1308+0x12>
    ea48:	8b 55 fc             	mov    -0x4(%rbp),%edx
    ea4b:	48 8d 35 5d 54 00 00 	lea    0x545d(%rip),%rsi        # 13eaf <g_1312+0x14cf>
    ea52:	48 89 c7             	mov    %rax,%rdi
    ea55:	e8 99 7c ff ff       	callq  66f3 <transparent_crc>
    ea5a:	0f b6 05 1f 8e 00 00 	movzbl 0x8e1f(%rip),%eax        # 17880 <g_1309>
    ea61:	0f b6 c0             	movzbl %al,%eax
    ea64:	8b 55 fc             	mov    -0x4(%rbp),%edx
    ea67:	48 8d 35 4b 54 00 00 	lea    0x544b(%rip),%rsi        # 13eb9 <g_1312+0x14d9>
    ea6e:	48 89 c7             	mov    %rax,%rdi
    ea71:	e8 7d 7c ff ff       	callq  66f3 <transparent_crc>
    ea76:	0f b7 05 04 8e 00 00 	movzwl 0x8e04(%rip),%eax        # 17881 <g_1309+0x1>
    ea7d:	0f b7 c0             	movzwl %ax,%eax
    ea80:	8b 55 fc             	mov    -0x4(%rbp),%edx
    ea83:	48 8d 35 39 54 00 00 	lea    0x5439(%rip),%rsi        # 13ec3 <g_1312+0x14e3>
    ea8a:	48 89 c7             	mov    %rax,%rdi
    ea8d:	e8 61 7c ff ff       	callq  66f3 <transparent_crc>
    ea92:	8b 05 eb 8d 00 00    	mov    0x8deb(%rip),%eax        # 17883 <g_1309+0x3>
    ea98:	89 c1                	mov    %eax,%ecx
    ea9a:	8b 45 fc             	mov    -0x4(%rbp),%eax
    ea9d:	89 c2                	mov    %eax,%edx
    ea9f:	48 8d 35 27 54 00 00 	lea    0x5427(%rip),%rsi        # 13ecd <g_1312+0x14ed>
    eaa6:	48 89 cf             	mov    %rcx,%rdi
    eaa9:	e8 45 7c ff ff       	callq  66f3 <transparent_crc>
    eaae:	48 8b 05 d2 8d 00 00 	mov    0x8dd2(%rip),%rax        # 17887 <g_1309+0x7>
    eab5:	8b 55 fc             	mov    -0x4(%rbp),%edx
    eab8:	48 8d 35 18 54 00 00 	lea    0x5418(%rip),%rsi        # 13ed7 <g_1312+0x14f7>
    eabf:	48 89 c7             	mov    %rax,%rdi
    eac2:	e8 2c 7c ff ff       	callq  66f3 <transparent_crc>
    eac7:	0f b6 05 c1 8d 00 00 	movzbl 0x8dc1(%rip),%eax        # 1788f <g_1309+0xf>
    eace:	c1 e0 06             	shl    $0x6,%eax
    ead1:	c0 f8 06             	sar    $0x6,%al
    ead4:	48 0f be c0          	movsbq %al,%rax
    ead8:	8b 55 fc             	mov    -0x4(%rbp),%edx
    eadb:	48 8d 35 ff 53 00 00 	lea    0x53ff(%rip),%rsi        # 13ee1 <g_1312+0x1501>
    eae2:	48 89 c7             	mov    %rax,%rdi
    eae5:	e8 09 7c ff ff       	callq  66f3 <transparent_crc>
    eaea:	0f b6 05 9f 8d 00 00 	movzbl 0x8d9f(%rip),%eax        # 17890 <g_1309+0x10>
    eaf1:	48 0f be c0          	movsbq %al,%rax
    eaf5:	8b 55 fc             	mov    -0x4(%rbp),%edx
    eaf8:	48 8d 35 ec 53 00 00 	lea    0x53ec(%rip),%rsi        # 13eeb <g_1312+0x150b>
    eaff:	48 89 c7             	mov    %rax,%rdi
    eb02:	e8 ec 7b ff ff       	callq  66f3 <transparent_crc>
    eb07:	0f b6 05 83 8d 00 00 	movzbl 0x8d83(%rip),%eax        # 17891 <g_1309+0x11>
    eb0e:	48 0f be c0          	movsbq %al,%rax
    eb12:	8b 55 fc             	mov    -0x4(%rbp),%edx
    eb15:	48 8d 35 d9 53 00 00 	lea    0x53d9(%rip),%rsi        # 13ef5 <g_1312+0x1515>
    eb1c:	48 89 c7             	mov    %rax,%rdi
    eb1f:	e8 cf 7b ff ff       	callq  66f3 <transparent_crc>
    eb24:	48 8b 05 67 8d 00 00 	mov    0x8d67(%rip),%rax        # 17892 <g_1309+0x12>
    eb2b:	8b 55 fc             	mov    -0x4(%rbp),%edx
    eb2e:	48 8d 35 ca 53 00 00 	lea    0x53ca(%rip),%rsi        # 13eff <g_1312+0x151f>
    eb35:	48 89 c7             	mov    %rax,%rdi
    eb38:	e8 b6 7b ff ff       	callq  66f3 <transparent_crc>
    eb3d:	0f b6 05 7c 3e 00 00 	movzbl 0x3e7c(%rip),%eax        # 129c0 <g_1310>
    eb44:	0f b6 c0             	movzbl %al,%eax
    eb47:	8b 55 fc             	mov    -0x4(%rbp),%edx
    eb4a:	48 8d 35 b8 53 00 00 	lea    0x53b8(%rip),%rsi        # 13f09 <g_1312+0x1529>
    eb51:	48 89 c7             	mov    %rax,%rdi
    eb54:	e8 9a 7b ff ff       	callq  66f3 <transparent_crc>
    eb59:	0f b7 05 61 3e 00 00 	movzwl 0x3e61(%rip),%eax        # 129c1 <g_1310+0x1>
    eb60:	0f b7 c0             	movzwl %ax,%eax
    eb63:	8b 55 fc             	mov    -0x4(%rbp),%edx
    eb66:	48 8d 35 a6 53 00 00 	lea    0x53a6(%rip),%rsi        # 13f13 <g_1312+0x1533>
    eb6d:	48 89 c7             	mov    %rax,%rdi
    eb70:	e8 7e 7b ff ff       	callq  66f3 <transparent_crc>
    eb75:	b8 02 00 00 00       	mov    $0x2,%eax
    eb7a:	89 c1                	mov    %eax,%ecx
    eb7c:	8b 45 fc             	mov    -0x4(%rbp),%eax
    eb7f:	89 c2                	mov    %eax,%edx
    eb81:	48 8d 35 95 53 00 00 	lea    0x5395(%rip),%rsi        # 13f1d <g_1312+0x153d>
    eb88:	48 89 cf             	mov    %rcx,%rdi
    eb8b:	e8 63 7b ff ff       	callq  66f3 <transparent_crc>
    eb90:	48 8b 05 30 3e 00 00 	mov    0x3e30(%rip),%rax        # 129c7 <g_1310+0x7>
    eb97:	8b 55 fc             	mov    -0x4(%rbp),%edx
    eb9a:	48 8d 35 86 53 00 00 	lea    0x5386(%rip),%rsi        # 13f27 <g_1312+0x1547>
    eba1:	48 89 c7             	mov    %rax,%rdi
    eba4:	e8 4a 7b ff ff       	callq  66f3 <transparent_crc>
    eba9:	b8 01 00 00 00       	mov    $0x1,%eax
    ebae:	48 0f be c0          	movsbq %al,%rax
    ebb2:	8b 55 fc             	mov    -0x4(%rbp),%edx
    ebb5:	48 8d 35 75 53 00 00 	lea    0x5375(%rip),%rsi        # 13f31 <g_1312+0x1551>
    ebbc:	48 89 c7             	mov    %rax,%rdi
    ebbf:	e8 2f 7b ff ff       	callq  66f3 <transparent_crc>
    ebc4:	0f b6 05 05 3e 00 00 	movzbl 0x3e05(%rip),%eax        # 129d0 <g_1310+0x10>
    ebcb:	48 0f be c0          	movsbq %al,%rax
    ebcf:	8b 55 fc             	mov    -0x4(%rbp),%edx
    ebd2:	48 8d 35 62 53 00 00 	lea    0x5362(%rip),%rsi        # 13f3b <g_1312+0x155b>
    ebd9:	48 89 c7             	mov    %rax,%rdi
    ebdc:	e8 12 7b ff ff       	callq  66f3 <transparent_crc>
    ebe1:	b8 ff ff ff ff       	mov    $0xffffffff,%eax
    ebe6:	48 0f be c0          	movsbq %al,%rax
    ebea:	8b 55 fc             	mov    -0x4(%rbp),%edx
    ebed:	48 8d 35 51 53 00 00 	lea    0x5351(%rip),%rsi        # 13f45 <g_1312+0x1565>
    ebf4:	48 89 c7             	mov    %rax,%rdi
    ebf7:	e8 f7 7a ff ff       	callq  66f3 <transparent_crc>
    ebfc:	48 8b 05 cf 3d 00 00 	mov    0x3dcf(%rip),%rax        # 129d2 <g_1310+0x12>
    ec03:	8b 55 fc             	mov    -0x4(%rbp),%edx
    ec06:	48 8d 35 42 53 00 00 	lea    0x5342(%rip),%rsi        # 13f4f <g_1312+0x156f>
    ec0d:	48 89 c7             	mov    %rax,%rdi
    ec10:	e8 de 7a ff ff       	callq  66f3 <transparent_crc>
    ec15:	0f b6 05 84 8c 00 00 	movzbl 0x8c84(%rip),%eax        # 178a0 <g_1311>
    ec1c:	0f b6 c0             	movzbl %al,%eax
    ec1f:	8b 55 fc             	mov    -0x4(%rbp),%edx
    ec22:	48 8d 35 30 53 00 00 	lea    0x5330(%rip),%rsi        # 13f59 <g_1312+0x1579>
    ec29:	48 89 c7             	mov    %rax,%rdi
    ec2c:	e8 c2 7a ff ff       	callq  66f3 <transparent_crc>
    ec31:	0f b7 05 69 8c 00 00 	movzwl 0x8c69(%rip),%eax        # 178a1 <g_1311+0x1>
    ec38:	0f b7 c0             	movzwl %ax,%eax
    ec3b:	8b 55 fc             	mov    -0x4(%rbp),%edx
    ec3e:	48 8d 35 1e 53 00 00 	lea    0x531e(%rip),%rsi        # 13f63 <g_1312+0x1583>
    ec45:	48 89 c7             	mov    %rax,%rdi
    ec48:	e8 a6 7a ff ff       	callq  66f3 <transparent_crc>
    ec4d:	8b 05 50 8c 00 00    	mov    0x8c50(%rip),%eax        # 178a3 <g_1311+0x3>
    ec53:	89 c1                	mov    %eax,%ecx
    ec55:	8b 45 fc             	mov    -0x4(%rbp),%eax
    ec58:	89 c2                	mov    %eax,%edx
    ec5a:	48 8d 35 0c 53 00 00 	lea    0x530c(%rip),%rsi        # 13f6d <g_1312+0x158d>
    ec61:	48 89 cf             	mov    %rcx,%rdi
    ec64:	e8 8a 7a ff ff       	callq  66f3 <transparent_crc>
    ec69:	48 8b 05 37 8c 00 00 	mov    0x8c37(%rip),%rax        # 178a7 <g_1311+0x7>
    ec70:	8b 55 fc             	mov    -0x4(%rbp),%edx
    ec73:	48 8d 35 fd 52 00 00 	lea    0x52fd(%rip),%rsi        # 13f77 <g_1312+0x1597>
    ec7a:	48 89 c7             	mov    %rax,%rdi
    ec7d:	e8 71 7a ff ff       	callq  66f3 <transparent_crc>
    ec82:	0f b6 05 26 8c 00 00 	movzbl 0x8c26(%rip),%eax        # 178af <g_1311+0xf>
    ec89:	c1 e0 06             	shl    $0x6,%eax
    ec8c:	c0 f8 06             	sar    $0x6,%al
    ec8f:	48 0f be c0          	movsbq %al,%rax
    ec93:	8b 55 fc             	mov    -0x4(%rbp),%edx
    ec96:	48 8d 35 e4 52 00 00 	lea    0x52e4(%rip),%rsi        # 13f81 <g_1312+0x15a1>
    ec9d:	48 89 c7             	mov    %rax,%rdi
    eca0:	e8 4e 7a ff ff       	callq  66f3 <transparent_crc>
    eca5:	0f b6 05 04 8c 00 00 	movzbl 0x8c04(%rip),%eax        # 178b0 <g_1311+0x10>
    ecac:	48 0f be c0          	movsbq %al,%rax
    ecb0:	8b 55 fc             	mov    -0x4(%rbp),%edx
    ecb3:	48 8d 35 d1 52 00 00 	lea    0x52d1(%rip),%rsi        # 13f8b <g_1312+0x15ab>
    ecba:	48 89 c7             	mov    %rax,%rdi
    ecbd:	e8 31 7a ff ff       	callq  66f3 <transparent_crc>
    ecc2:	0f b6 05 e8 8b 00 00 	movzbl 0x8be8(%rip),%eax        # 178b1 <g_1311+0x11>
    ecc9:	48 0f be c0          	movsbq %al,%rax
    eccd:	8b 55 fc             	mov    -0x4(%rbp),%edx
    ecd0:	48 8d 35 be 52 00 00 	lea    0x52be(%rip),%rsi        # 13f95 <g_1312+0x15b5>
    ecd7:	48 89 c7             	mov    %rax,%rdi
    ecda:	e8 14 7a ff ff       	callq  66f3 <transparent_crc>
    ecdf:	48 8b 05 cc 8b 00 00 	mov    0x8bcc(%rip),%rax        # 178b2 <g_1311+0x12>
    ece6:	8b 55 fc             	mov    -0x4(%rbp),%edx
    ece9:	48 8d 35 af 52 00 00 	lea    0x52af(%rip),%rsi        # 13f9f <g_1312+0x15bf>
    ecf0:	48 89 c7             	mov    %rax,%rdi
    ecf3:	e8 fb 79 ff ff       	callq  66f3 <transparent_crc>
    ecf8:	c7 45 f0 00 00 00 00 	movl   $0x0,-0x10(%rbp)
    ecff:	e9 08 02 00 00       	jmpq   ef0c <main+0x32a1>
    ed04:	8b 45 f0             	mov    -0x10(%rbp),%eax
    ed07:	48 63 d0             	movslq %eax,%rdx
    ed0a:	48 89 d0             	mov    %rdx,%rax
    ed0d:	48 01 c0             	add    %rax,%rax
    ed10:	48 01 d0             	add    %rdx,%rax
    ed13:	48 c1 e0 02          	shl    $0x2,%rax
    ed17:	48 01 d0             	add    %rdx,%rax
    ed1a:	48 01 c0             	add    %rax,%rax
    ed1d:	48 89 c2             	mov    %rax,%rdx
    ed20:	48 8d 05 b9 3c 00 00 	lea    0x3cb9(%rip),%rax        # 129e0 <g_1312>
    ed27:	0f b6 04 02          	movzbl (%rdx,%rax,1),%eax
    ed2b:	0f b6 c0             	movzbl %al,%eax
    ed2e:	8b 55 fc             	mov    -0x4(%rbp),%edx
    ed31:	48 8d 35 71 52 00 00 	lea    0x5271(%rip),%rsi        # 13fa9 <g_1312+0x15c9>
    ed38:	48 89 c7             	mov    %rax,%rdi
    ed3b:	e8 b3 79 ff ff       	callq  66f3 <transparent_crc>
    ed40:	8b 45 f0             	mov    -0x10(%rbp),%eax
    ed43:	48 63 d0             	movslq %eax,%rdx
    ed46:	48 89 d0             	mov    %rdx,%rax
    ed49:	48 01 c0             	add    %rax,%rax
    ed4c:	48 01 d0             	add    %rdx,%rax
    ed4f:	48 c1 e0 02          	shl    $0x2,%rax
    ed53:	48 01 d0             	add    %rdx,%rax
    ed56:	48 01 c0             	add    %rax,%rax
    ed59:	48 89 c2             	mov    %rax,%rdx
    ed5c:	48 8d 05 7d 3c 00 00 	lea    0x3c7d(%rip),%rax        # 129e0 <g_1312>
    ed63:	0f b7 44 02 01       	movzwl 0x1(%rdx,%rax,1),%eax
    ed68:	0f b7 c0             	movzwl %ax,%eax
    ed6b:	8b 55 fc             	mov    -0x4(%rbp),%edx
    ed6e:	48 8d 35 41 52 00 00 	lea    0x5241(%rip),%rsi        # 13fb6 <g_1312+0x15d6>
    ed75:	48 89 c7             	mov    %rax,%rdi
    ed78:	e8 76 79 ff ff       	callq  66f3 <transparent_crc>
    ed7d:	8b 45 f0             	mov    -0x10(%rbp),%eax
    ed80:	48 63 d0             	movslq %eax,%rdx
    ed83:	48 89 d0             	mov    %rdx,%rax
    ed86:	48 01 c0             	add    %rax,%rax
    ed89:	48 01 d0             	add    %rdx,%rax
    ed8c:	48 c1 e0 02          	shl    $0x2,%rax
    ed90:	48 01 d0             	add    %rdx,%rax
    ed93:	48 01 c0             	add    %rax,%rax
    ed96:	48 89 c2             	mov    %rax,%rdx
    ed99:	48 8d 05 40 3c 00 00 	lea    0x3c40(%rip),%rax        # 129e0 <g_1312>
    eda0:	8b 44 02 03          	mov    0x3(%rdx,%rax,1),%eax
    eda4:	89 c1                	mov    %eax,%ecx
    eda6:	8b 45 fc             	mov    -0x4(%rbp),%eax
    eda9:	89 c2                	mov    %eax,%edx
    edab:	48 8d 35 11 52 00 00 	lea    0x5211(%rip),%rsi        # 13fc3 <g_1312+0x15e3>
    edb2:	48 89 cf             	mov    %rcx,%rdi
    edb5:	e8 39 79 ff ff       	callq  66f3 <transparent_crc>
    edba:	8b 45 f0             	mov    -0x10(%rbp),%eax
    edbd:	48 63 d0             	movslq %eax,%rdx
    edc0:	48 89 d0             	mov    %rdx,%rax
    edc3:	48 01 c0             	add    %rax,%rax
    edc6:	48 01 d0             	add    %rdx,%rax
    edc9:	48 c1 e0 02          	shl    $0x2,%rax
    edcd:	48 01 d0             	add    %rdx,%rax
    edd0:	48 01 c0             	add    %rax,%rax
    edd3:	48 89 c2             	mov    %rax,%rdx
    edd6:	48 8d 05 03 3c 00 00 	lea    0x3c03(%rip),%rax        # 129e0 <g_1312>
    eddd:	48 8b 44 02 07       	mov    0x7(%rdx,%rax,1),%rax
    ede2:	8b 55 fc             	mov    -0x4(%rbp),%edx
    ede5:	48 8d 35 e4 51 00 00 	lea    0x51e4(%rip),%rsi        # 13fd0 <g_1312+0x15f0>
    edec:	48 89 c7             	mov    %rax,%rdi
    edef:	e8 ff 78 ff ff       	callq  66f3 <transparent_crc>
    edf4:	8b 45 f0             	mov    -0x10(%rbp),%eax
    edf7:	48 63 d0             	movslq %eax,%rdx
    edfa:	48 89 d0             	mov    %rdx,%rax
    edfd:	48 01 c0             	add    %rax,%rax
    ee00:	48 01 d0             	add    %rdx,%rax
    ee03:	48 c1 e0 02          	shl    $0x2,%rax
    ee07:	48 01 d0             	add    %rdx,%rax
    ee0a:	48 01 c0             	add    %rax,%rax
    ee0d:	48 89 c2             	mov    %rax,%rdx
    ee10:	48 8d 05 c9 3b 00 00 	lea    0x3bc9(%rip),%rax        # 129e0 <g_1312>
    ee17:	0f b6 44 02 0f       	movzbl 0xf(%rdx,%rax,1),%eax
    ee1c:	c1 e0 06             	shl    $0x6,%eax
    ee1f:	c0 f8 06             	sar    $0x6,%al
    ee22:	48 0f be c0          	movsbq %al,%rax
    ee26:	8b 55 fc             	mov    -0x4(%rbp),%edx
    ee29:	48 8d 35 ad 51 00 00 	lea    0x51ad(%rip),%rsi        # 13fdd <g_1312+0x15fd>
    ee30:	48 89 c7             	mov    %rax,%rdi
    ee33:	e8 bb 78 ff ff       	callq  66f3 <transparent_crc>
    ee38:	8b 45 f0             	mov    -0x10(%rbp),%eax
    ee3b:	48 63 d0             	movslq %eax,%rdx
    ee3e:	48 89 d0             	mov    %rdx,%rax
    ee41:	48 01 c0             	add    %rax,%rax
    ee44:	48 01 d0             	add    %rdx,%rax
    ee47:	48 c1 e0 02          	shl    $0x2,%rax
    ee4b:	48 01 d0             	add    %rdx,%rax
    ee4e:	48 01 c0             	add    %rax,%rax
    ee51:	48 89 c2             	mov    %rax,%rdx
    ee54:	48 8d 05 95 3b 00 00 	lea    0x3b95(%rip),%rax        # 129f0 <g_1312+0x10>
    ee5b:	0f b6 04 02          	movzbl (%rdx,%rax,1),%eax
    ee5f:	48 0f be c0          	movsbq %al,%rax
    ee63:	8b 55 fc             	mov    -0x4(%rbp),%edx
    ee66:	48 8d 35 7d 51 00 00 	lea    0x517d(%rip),%rsi        # 13fea <g_1312+0x160a>
    ee6d:	48 89 c7             	mov    %rax,%rdi
    ee70:	e8 7e 78 ff ff       	callq  66f3 <transparent_crc>
    ee75:	8b 45 f0             	mov    -0x10(%rbp),%eax
    ee78:	48 63 d0             	movslq %eax,%rdx
    ee7b:	48 89 d0             	mov    %rdx,%rax
    ee7e:	48 01 c0             	add    %rax,%rax
    ee81:	48 01 d0             	add    %rdx,%rax
    ee84:	48 c1 e0 02          	shl    $0x2,%rax
    ee88:	48 01 d0             	add    %rdx,%rax
    ee8b:	48 01 c0             	add    %rax,%rax
    ee8e:	48 89 c2             	mov    %rax,%rdx
    ee91:	48 8d 05 59 3b 00 00 	lea    0x3b59(%rip),%rax        # 129f1 <g_1312+0x11>
    ee98:	0f b6 04 02          	movzbl (%rdx,%rax,1),%eax
    ee9c:	48 0f be c0          	movsbq %al,%rax
    eea0:	8b 55 fc             	mov    -0x4(%rbp),%edx
    eea3:	48 8d 35 4d 51 00 00 	lea    0x514d(%rip),%rsi        # 13ff7 <g_1312+0x1617>
    eeaa:	48 89 c7             	mov    %rax,%rdi
    eead:	e8 41 78 ff ff       	callq  66f3 <transparent_crc>
    eeb2:	8b 45 f0             	mov    -0x10(%rbp),%eax
    eeb5:	48 63 d0             	movslq %eax,%rdx
    eeb8:	48 89 d0             	mov    %rdx,%rax
    eebb:	48 01 c0             	add    %rax,%rax
    eebe:	48 01 d0             	add    %rdx,%rax
    eec1:	48 c1 e0 02          	shl    $0x2,%rax
    eec5:	48 01 d0             	add    %rdx,%rax
    eec8:	48 01 c0             	add    %rax,%rax
    eecb:	48 89 c2             	mov    %rax,%rdx
    eece:	48 8d 05 1b 3b 00 00 	lea    0x3b1b(%rip),%rax        # 129f0 <g_1312+0x10>
    eed5:	48 8b 44 02 02       	mov    0x2(%rdx,%rax,1),%rax
    eeda:	8b 55 fc             	mov    -0x4(%rbp),%edx
    eedd:	48 8d 35 20 51 00 00 	lea    0x5120(%rip),%rsi        # 14004 <g_1312+0x1624>
    eee4:	48 89 c7             	mov    %rax,%rdi
    eee7:	e8 07 78 ff ff       	callq  66f3 <transparent_crc>
    eeec:	83 7d fc 00          	cmpl   $0x0,-0x4(%rbp)
    eef0:	74 16                	je     ef08 <main+0x329d>
    eef2:	8b 45 f0             	mov    -0x10(%rbp),%eax
    eef5:	89 c6                	mov    %eax,%esi
    eef7:	48 8d 3d f4 44 00 00 	lea    0x44f4(%rip),%rdi        # 133f2 <g_1312+0xa12>
    eefe:	b8 00 00 00 00       	mov    $0x0,%eax
    ef03:	e8 78 61 ff ff       	callq  5080 <printf@plt>
    ef08:	83 45 f0 01          	addl   $0x1,-0x10(%rbp)
    ef0c:	83 7d f0 06          	cmpl   $0x6,-0x10(%rbp)
    ef10:	0f 8e ee fd ff ff    	jle    ed04 <main+0x3099>
    ef16:	0f b6 05 a3 89 00 00 	movzbl 0x89a3(%rip),%eax        # 178c0 <g_1313>
    ef1d:	0f b6 c0             	movzbl %al,%eax
    ef20:	8b 55 fc             	mov    -0x4(%rbp),%edx
    ef23:	48 8d 35 e7 50 00 00 	lea    0x50e7(%rip),%rsi        # 14011 <g_1312+0x1631>
    ef2a:	48 89 c7             	mov    %rax,%rdi
    ef2d:	e8 c1 77 ff ff       	callq  66f3 <transparent_crc>
    ef32:	0f b7 05 88 89 00 00 	movzwl 0x8988(%rip),%eax        # 178c1 <g_1313+0x1>
    ef39:	0f b7 c0             	movzwl %ax,%eax
    ef3c:	8b 55 fc             	mov    -0x4(%rbp),%edx
    ef3f:	48 8d 35 d5 50 00 00 	lea    0x50d5(%rip),%rsi        # 1401b <g_1312+0x163b>
    ef46:	48 89 c7             	mov    %rax,%rdi
    ef49:	e8 a5 77 ff ff       	callq  66f3 <transparent_crc>
    ef4e:	8b 05 6f 89 00 00    	mov    0x896f(%rip),%eax        # 178c3 <g_1313+0x3>
    ef54:	89 c1                	mov    %eax,%ecx
    ef56:	8b 45 fc             	mov    -0x4(%rbp),%eax
    ef59:	89 c2                	mov    %eax,%edx
    ef5b:	48 8d 35 c3 50 00 00 	lea    0x50c3(%rip),%rsi        # 14025 <g_1312+0x1645>
    ef62:	48 89 cf             	mov    %rcx,%rdi
    ef65:	e8 89 77 ff ff       	callq  66f3 <transparent_crc>
    ef6a:	48 8b 05 56 89 00 00 	mov    0x8956(%rip),%rax        # 178c7 <g_1313+0x7>
    ef71:	8b 55 fc             	mov    -0x4(%rbp),%edx
    ef74:	48 8d 35 b4 50 00 00 	lea    0x50b4(%rip),%rsi        # 1402f <g_1312+0x164f>
    ef7b:	48 89 c7             	mov    %rax,%rdi
    ef7e:	e8 70 77 ff ff       	callq  66f3 <transparent_crc>
    ef83:	0f b6 05 45 89 00 00 	movzbl 0x8945(%rip),%eax        # 178cf <g_1313+0xf>
    ef8a:	c1 e0 06             	shl    $0x6,%eax
    ef8d:	c0 f8 06             	sar    $0x6,%al
    ef90:	48 0f be c0          	movsbq %al,%rax
    ef94:	8b 55 fc             	mov    -0x4(%rbp),%edx
    ef97:	48 8d 35 9b 50 00 00 	lea    0x509b(%rip),%rsi        # 14039 <g_1312+0x1659>
    ef9e:	48 89 c7             	mov    %rax,%rdi
    efa1:	e8 4d 77 ff ff       	callq  66f3 <transparent_crc>
    efa6:	0f b6 05 23 89 00 00 	movzbl 0x8923(%rip),%eax        # 178d0 <g_1313+0x10>
    efad:	48 0f be c0          	movsbq %al,%rax
    efb1:	8b 55 fc             	mov    -0x4(%rbp),%edx
    efb4:	48 8d 35 88 50 00 00 	lea    0x5088(%rip),%rsi        # 14043 <g_1312+0x1663>
    efbb:	48 89 c7             	mov    %rax,%rdi
    efbe:	e8 30 77 ff ff       	callq  66f3 <transparent_crc>
    efc3:	0f b6 05 07 89 00 00 	movzbl 0x8907(%rip),%eax        # 178d1 <g_1313+0x11>
    efca:	48 0f be c0          	movsbq %al,%rax
    efce:	8b 55 fc             	mov    -0x4(%rbp),%edx
    efd1:	48 8d 35 75 50 00 00 	lea    0x5075(%rip),%rsi        # 1404d <g_1312+0x166d>
    efd8:	48 89 c7             	mov    %rax,%rdi
    efdb:	e8 13 77 ff ff       	callq  66f3 <transparent_crc>
    efe0:	48 8b 05 eb 88 00 00 	mov    0x88eb(%rip),%rax        # 178d2 <g_1313+0x12>
    efe7:	8b 55 fc             	mov    -0x4(%rbp),%edx
    efea:	48 8d 35 66 50 00 00 	lea    0x5066(%rip),%rsi        # 14057 <g_1312+0x1677>
    eff1:	48 89 c7             	mov    %rax,%rdi
    eff4:	e8 fa 76 ff ff       	callq  66f3 <transparent_crc>
    eff9:	0f b6 05 e0 88 00 00 	movzbl 0x88e0(%rip),%eax        # 178e0 <g_1314>
    f000:	0f b6 c0             	movzbl %al,%eax
    f003:	8b 55 fc             	mov    -0x4(%rbp),%edx
    f006:	48 8d 35 54 50 00 00 	lea    0x5054(%rip),%rsi        # 14061 <g_1312+0x1681>
    f00d:	48 89 c7             	mov    %rax,%rdi
    f010:	e8 de 76 ff ff       	callq  66f3 <transparent_crc>
    f015:	0f b7 05 c5 88 00 00 	movzwl 0x88c5(%rip),%eax        # 178e1 <g_1314+0x1>
    f01c:	0f b7 c0             	movzwl %ax,%eax
    f01f:	8b 55 fc             	mov    -0x4(%rbp),%edx
    f022:	48 8d 35 42 50 00 00 	lea    0x5042(%rip),%rsi        # 1406b <g_1312+0x168b>
    f029:	48 89 c7             	mov    %rax,%rdi
    f02c:	e8 c2 76 ff ff       	callq  66f3 <transparent_crc>
    f031:	8b 05 ac 88 00 00    	mov    0x88ac(%rip),%eax        # 178e3 <g_1314+0x3>
    f037:	89 c1                	mov    %eax,%ecx
    f039:	8b 45 fc             	mov    -0x4(%rbp),%eax
    f03c:	89 c2                	mov    %eax,%edx
    f03e:	48 8d 35 30 50 00 00 	lea    0x5030(%rip),%rsi        # 14075 <g_1312+0x1695>
    f045:	48 89 cf             	mov    %rcx,%rdi
    f048:	e8 a6 76 ff ff       	callq  66f3 <transparent_crc>
    f04d:	48 8b 05 93 88 00 00 	mov    0x8893(%rip),%rax        # 178e7 <g_1314+0x7>
    f054:	8b 55 fc             	mov    -0x4(%rbp),%edx
    f057:	48 8d 35 21 50 00 00 	lea    0x5021(%rip),%rsi        # 1407f <g_1312+0x169f>
    f05e:	48 89 c7             	mov    %rax,%rdi
    f061:	e8 8d 76 ff ff       	callq  66f3 <transparent_crc>
    f066:	0f b6 05 82 88 00 00 	movzbl 0x8882(%rip),%eax        # 178ef <g_1314+0xf>
    f06d:	c1 e0 06             	shl    $0x6,%eax
    f070:	c0 f8 06             	sar    $0x6,%al
    f073:	48 0f be c0          	movsbq %al,%rax
    f077:	8b 55 fc             	mov    -0x4(%rbp),%edx
    f07a:	48 8d 35 08 50 00 00 	lea    0x5008(%rip),%rsi        # 14089 <g_1312+0x16a9>
    f081:	48 89 c7             	mov    %rax,%rdi
    f084:	e8 6a 76 ff ff       	callq  66f3 <transparent_crc>
    f089:	0f b6 05 60 88 00 00 	movzbl 0x8860(%rip),%eax        # 178f0 <g_1314+0x10>
    f090:	48 0f be c0          	movsbq %al,%rax
    f094:	8b 55 fc             	mov    -0x4(%rbp),%edx
    f097:	48 8d 35 f5 4f 00 00 	lea    0x4ff5(%rip),%rsi        # 14093 <g_1312+0x16b3>
    f09e:	48 89 c7             	mov    %rax,%rdi
    f0a1:	e8 4d 76 ff ff       	callq  66f3 <transparent_crc>
    f0a6:	0f b6 05 44 88 00 00 	movzbl 0x8844(%rip),%eax        # 178f1 <g_1314+0x11>
    f0ad:	48 0f be c0          	movsbq %al,%rax
    f0b1:	8b 55 fc             	mov    -0x4(%rbp),%edx
    f0b4:	48 8d 35 e2 4f 00 00 	lea    0x4fe2(%rip),%rsi        # 1409d <g_1312+0x16bd>
    f0bb:	48 89 c7             	mov    %rax,%rdi
    f0be:	e8 30 76 ff ff       	callq  66f3 <transparent_crc>
    f0c3:	48 8b 05 28 88 00 00 	mov    0x8828(%rip),%rax        # 178f2 <g_1314+0x12>
    f0ca:	8b 55 fc             	mov    -0x4(%rbp),%edx
    f0cd:	48 8d 35 d3 4f 00 00 	lea    0x4fd3(%rip),%rsi        # 140a7 <g_1312+0x16c7>
    f0d4:	48 89 c7             	mov    %rax,%rdi
    f0d7:	e8 17 76 ff ff       	callq  66f3 <transparent_crc>
    f0dc:	0f b6 05 1d 88 00 00 	movzbl 0x881d(%rip),%eax        # 17900 <g_1315>
    f0e3:	0f b6 c0             	movzbl %al,%eax
    f0e6:	8b 55 fc             	mov    -0x4(%rbp),%edx
    f0e9:	48 8d 35 c1 4f 00 00 	lea    0x4fc1(%rip),%rsi        # 140b1 <g_1312+0x16d1>
    f0f0:	48 89 c7             	mov    %rax,%rdi
    f0f3:	e8 fb 75 ff ff       	callq  66f3 <transparent_crc>
    f0f8:	0f b7 05 02 88 00 00 	movzwl 0x8802(%rip),%eax        # 17901 <g_1315+0x1>
    f0ff:	0f b7 c0             	movzwl %ax,%eax
    f102:	8b 55 fc             	mov    -0x4(%rbp),%edx
    f105:	48 8d 35 af 4f 00 00 	lea    0x4faf(%rip),%rsi        # 140bb <g_1312+0x16db>
    f10c:	48 89 c7             	mov    %rax,%rdi
    f10f:	e8 df 75 ff ff       	callq  66f3 <transparent_crc>
    f114:	8b 05 e9 87 00 00    	mov    0x87e9(%rip),%eax        # 17903 <g_1315+0x3>
    f11a:	89 c1                	mov    %eax,%ecx
    f11c:	8b 45 fc             	mov    -0x4(%rbp),%eax
    f11f:	89 c2                	mov    %eax,%edx
    f121:	48 8d 35 9d 4f 00 00 	lea    0x4f9d(%rip),%rsi        # 140c5 <g_1312+0x16e5>
    f128:	48 89 cf             	mov    %rcx,%rdi
    f12b:	e8 c3 75 ff ff       	callq  66f3 <transparent_crc>
    f130:	48 8b 05 d0 87 00 00 	mov    0x87d0(%rip),%rax        # 17907 <g_1315+0x7>
    f137:	8b 55 fc             	mov    -0x4(%rbp),%edx
    f13a:	48 8d 35 8e 4f 00 00 	lea    0x4f8e(%rip),%rsi        # 140cf <g_1312+0x16ef>
    f141:	48 89 c7             	mov    %rax,%rdi
    f144:	e8 aa 75 ff ff       	callq  66f3 <transparent_crc>
    f149:	0f b6 05 bf 87 00 00 	movzbl 0x87bf(%rip),%eax        # 1790f <g_1315+0xf>
    f150:	c1 e0 06             	shl    $0x6,%eax
    f153:	c0 f8 06             	sar    $0x6,%al
    f156:	48 0f be c0          	movsbq %al,%rax
    f15a:	8b 55 fc             	mov    -0x4(%rbp),%edx
    f15d:	48 8d 35 75 4f 00 00 	lea    0x4f75(%rip),%rsi        # 140d9 <g_1312+0x16f9>
    f164:	48 89 c7             	mov    %rax,%rdi
    f167:	e8 87 75 ff ff       	callq  66f3 <transparent_crc>
    f16c:	0f b6 05 9d 87 00 00 	movzbl 0x879d(%rip),%eax        # 17910 <g_1315+0x10>
    f173:	48 0f be c0          	movsbq %al,%rax
    f177:	8b 55 fc             	mov    -0x4(%rbp),%edx
    f17a:	48 8d 35 62 4f 00 00 	lea    0x4f62(%rip),%rsi        # 140e3 <g_1312+0x1703>
    f181:	48 89 c7             	mov    %rax,%rdi
    f184:	e8 6a 75 ff ff       	callq  66f3 <transparent_crc>
    f189:	0f b6 05 81 87 00 00 	movzbl 0x8781(%rip),%eax        # 17911 <g_1315+0x11>
    f190:	48 0f be c0          	movsbq %al,%rax
    f194:	8b 55 fc             	mov    -0x4(%rbp),%edx
    f197:	48 8d 35 4f 4f 00 00 	lea    0x4f4f(%rip),%rsi        # 140ed <g_1312+0x170d>
    f19e:	48 89 c7             	mov    %rax,%rdi
    f1a1:	e8 4d 75 ff ff       	callq  66f3 <transparent_crc>
    f1a6:	48 8b 05 65 87 00 00 	mov    0x8765(%rip),%rax        # 17912 <g_1315+0x12>
    f1ad:	8b 55 fc             	mov    -0x4(%rbp),%edx
    f1b0:	48 8d 35 40 4f 00 00 	lea    0x4f40(%rip),%rsi        # 140f7 <g_1312+0x1717>
    f1b7:	48 89 c7             	mov    %rax,%rdi
    f1ba:	e8 34 75 ff ff       	callq  66f3 <transparent_crc>
    f1bf:	0f b6 05 5a 87 00 00 	movzbl 0x875a(%rip),%eax        # 17920 <g_1316>
    f1c6:	0f b6 c0             	movzbl %al,%eax
    f1c9:	8b 55 fc             	mov    -0x4(%rbp),%edx
    f1cc:	48 8d 35 2e 4f 00 00 	lea    0x4f2e(%rip),%rsi        # 14101 <g_1312+0x1721>
    f1d3:	48 89 c7             	mov    %rax,%rdi
    f1d6:	e8 18 75 ff ff       	callq  66f3 <transparent_crc>
    f1db:	0f b7 05 3f 87 00 00 	movzwl 0x873f(%rip),%eax        # 17921 <g_1316+0x1>
    f1e2:	0f b7 c0             	movzwl %ax,%eax
    f1e5:	8b 55 fc             	mov    -0x4(%rbp),%edx
    f1e8:	48 8d 35 1c 4f 00 00 	lea    0x4f1c(%rip),%rsi        # 1410b <g_1312+0x172b>
    f1ef:	48 89 c7             	mov    %rax,%rdi
    f1f2:	e8 fc 74 ff ff       	callq  66f3 <transparent_crc>
    f1f7:	8b 05 26 87 00 00    	mov    0x8726(%rip),%eax        # 17923 <g_1316+0x3>
    f1fd:	89 c1                	mov    %eax,%ecx
    f1ff:	8b 45 fc             	mov    -0x4(%rbp),%eax
    f202:	89 c2                	mov    %eax,%edx
    f204:	48 8d 35 0a 4f 00 00 	lea    0x4f0a(%rip),%rsi        # 14115 <g_1312+0x1735>
    f20b:	48 89 cf             	mov    %rcx,%rdi
    f20e:	e8 e0 74 ff ff       	callq  66f3 <transparent_crc>
    f213:	48 8b 05 0d 87 00 00 	mov    0x870d(%rip),%rax        # 17927 <g_1316+0x7>
    f21a:	8b 55 fc             	mov    -0x4(%rbp),%edx
    f21d:	48 8d 35 fb 4e 00 00 	lea    0x4efb(%rip),%rsi        # 1411f <g_1312+0x173f>
    f224:	48 89 c7             	mov    %rax,%rdi
    f227:	e8 c7 74 ff ff       	callq  66f3 <transparent_crc>
    f22c:	0f b6 05 fc 86 00 00 	movzbl 0x86fc(%rip),%eax        # 1792f <g_1316+0xf>
    f233:	c1 e0 06             	shl    $0x6,%eax
    f236:	c0 f8 06             	sar    $0x6,%al
    f239:	48 0f be c0          	movsbq %al,%rax
    f23d:	8b 55 fc             	mov    -0x4(%rbp),%edx
    f240:	48 8d 35 e2 4e 00 00 	lea    0x4ee2(%rip),%rsi        # 14129 <g_1312+0x1749>
    f247:	48 89 c7             	mov    %rax,%rdi
    f24a:	e8 a4 74 ff ff       	callq  66f3 <transparent_crc>
    f24f:	0f b6 05 da 86 00 00 	movzbl 0x86da(%rip),%eax        # 17930 <g_1316+0x10>
    f256:	48 0f be c0          	movsbq %al,%rax
    f25a:	8b 55 fc             	mov    -0x4(%rbp),%edx
    f25d:	48 8d 35 cf 4e 00 00 	lea    0x4ecf(%rip),%rsi        # 14133 <g_1312+0x1753>
    f264:	48 89 c7             	mov    %rax,%rdi
    f267:	e8 87 74 ff ff       	callq  66f3 <transparent_crc>
    f26c:	0f b6 05 be 86 00 00 	movzbl 0x86be(%rip),%eax        # 17931 <g_1316+0x11>
    f273:	48 0f be c0          	movsbq %al,%rax
    f277:	8b 55 fc             	mov    -0x4(%rbp),%edx
    f27a:	48 8d 35 bc 4e 00 00 	lea    0x4ebc(%rip),%rsi        # 1413d <g_1312+0x175d>
    f281:	48 89 c7             	mov    %rax,%rdi
    f284:	e8 6a 74 ff ff       	callq  66f3 <transparent_crc>
    f289:	48 8b 05 a2 86 00 00 	mov    0x86a2(%rip),%rax        # 17932 <g_1316+0x12>
    f290:	8b 55 fc             	mov    -0x4(%rbp),%edx
    f293:	48 8d 35 ad 4e 00 00 	lea    0x4ead(%rip),%rsi        # 14147 <g_1312+0x1767>
    f29a:	48 89 c7             	mov    %rax,%rdi
    f29d:	e8 51 74 ff ff       	callq  66f3 <transparent_crc>
    f2a2:	0f b6 05 97 86 00 00 	movzbl 0x8697(%rip),%eax        # 17940 <g_1431>
    f2a9:	0f b6 c0             	movzbl %al,%eax
    f2ac:	8b 55 fc             	mov    -0x4(%rbp),%edx
    f2af:	48 8d 35 9b 4e 00 00 	lea    0x4e9b(%rip),%rsi        # 14151 <g_1312+0x1771>
    f2b6:	48 89 c7             	mov    %rax,%rdi
    f2b9:	e8 35 74 ff ff       	callq  66f3 <transparent_crc>
    f2be:	0f b7 05 7c 86 00 00 	movzwl 0x867c(%rip),%eax        # 17941 <g_1431+0x1>
    f2c5:	0f b7 c0             	movzwl %ax,%eax
    f2c8:	8b 55 fc             	mov    -0x4(%rbp),%edx
    f2cb:	48 8d 35 89 4e 00 00 	lea    0x4e89(%rip),%rsi        # 1415b <g_1312+0x177b>
    f2d2:	48 89 c7             	mov    %rax,%rdi
    f2d5:	e8 19 74 ff ff       	callq  66f3 <transparent_crc>
    f2da:	8b 05 63 86 00 00    	mov    0x8663(%rip),%eax        # 17943 <g_1431+0x3>
    f2e0:	89 c1                	mov    %eax,%ecx
    f2e2:	8b 45 fc             	mov    -0x4(%rbp),%eax
    f2e5:	89 c2                	mov    %eax,%edx
    f2e7:	48 8d 35 77 4e 00 00 	lea    0x4e77(%rip),%rsi        # 14165 <g_1312+0x1785>
    f2ee:	48 89 cf             	mov    %rcx,%rdi
    f2f1:	e8 fd 73 ff ff       	callq  66f3 <transparent_crc>
    f2f6:	48 8b 05 4a 86 00 00 	mov    0x864a(%rip),%rax        # 17947 <g_1431+0x7>
    f2fd:	8b 55 fc             	mov    -0x4(%rbp),%edx
    f300:	48 8d 35 68 4e 00 00 	lea    0x4e68(%rip),%rsi        # 1416f <g_1312+0x178f>
    f307:	48 89 c7             	mov    %rax,%rdi
    f30a:	e8 e4 73 ff ff       	callq  66f3 <transparent_crc>
    f30f:	48 8b 05 32 86 00 00 	mov    0x8632(%rip),%rax        # 17948 <g_1431+0x8>
    f316:	48 c1 e0 06          	shl    $0x6,%rax
    f31a:	48 c1 f8 3e          	sar    $0x3e,%rax
    f31e:	48 0f be c0          	movsbq %al,%rax
    f322:	8b 55 fc             	mov    -0x4(%rbp),%edx
    f325:	48 8d 35 4d 4e 00 00 	lea    0x4e4d(%rip),%rsi        # 14179 <g_1312+0x1799>
    f32c:	48 89 c7             	mov    %rax,%rdi
    f32f:	e8 bf 73 ff ff       	callq  66f3 <transparent_crc>
    f334:	0f b6 05 15 86 00 00 	movzbl 0x8615(%rip),%eax        # 17950 <g_1431+0x10>
    f33b:	48 0f be c0          	movsbq %al,%rax
    f33f:	8b 55 fc             	mov    -0x4(%rbp),%edx
    f342:	48 8d 35 3a 4e 00 00 	lea    0x4e3a(%rip),%rsi        # 14183 <g_1312+0x17a3>
    f349:	48 89 c7             	mov    %rax,%rdi
    f34c:	e8 a2 73 ff ff       	callq  66f3 <transparent_crc>
    f351:	0f b6 05 f9 85 00 00 	movzbl 0x85f9(%rip),%eax        # 17951 <g_1431+0x11>
    f358:	48 0f be c0          	movsbq %al,%rax
    f35c:	8b 55 fc             	mov    -0x4(%rbp),%edx
    f35f:	48 8d 35 27 4e 00 00 	lea    0x4e27(%rip),%rsi        # 1418d <g_1312+0x17ad>
    f366:	48 89 c7             	mov    %rax,%rdi
    f369:	e8 85 73 ff ff       	callq  66f3 <transparent_crc>
    f36e:	48 8b 05 dd 85 00 00 	mov    0x85dd(%rip),%rax        # 17952 <g_1431+0x12>
    f375:	8b 55 fc             	mov    -0x4(%rbp),%edx
    f378:	48 8d 35 18 4e 00 00 	lea    0x4e18(%rip),%rsi        # 14197 <g_1312+0x17b7>
    f37f:	48 89 c7             	mov    %rax,%rdi
    f382:	e8 6c 73 ff ff       	callq  66f3 <transparent_crc>
    f387:	0f b7 05 aa a4 00 00 	movzwl 0xa4aa(%rip),%eax        # 19838 <g_1547>
    f38e:	0f b7 c0             	movzwl %ax,%eax
    f391:	8b 55 fc             	mov    -0x4(%rbp),%edx
    f394:	48 8d 35 06 4e 00 00 	lea    0x4e06(%rip),%rsi        # 141a1 <g_1312+0x17c1>
    f39b:	48 89 c7             	mov    %rax,%rdi
    f39e:	e8 50 73 ff ff       	callq  66f3 <transparent_crc>
    f3a3:	0f b7 05 b0 85 00 00 	movzwl 0x85b0(%rip),%eax        # 1795a <g_1749>
    f3aa:	48 0f bf c0          	movswq %ax,%rax
    f3ae:	8b 55 fc             	mov    -0x4(%rbp),%edx
    f3b1:	48 8d 35 f0 4d 00 00 	lea    0x4df0(%rip),%rsi        # 141a8 <g_1312+0x17c8>
    f3b8:	48 89 c7             	mov    %rax,%rdi
    f3bb:	e8 33 73 ff ff       	callq  66f3 <transparent_crc>
    f3c0:	48 8b 05 99 85 00 00 	mov    0x8599(%rip),%rax        # 17960 <g_1750>
    f3c7:	8b 55 fc             	mov    -0x4(%rbp),%edx
    f3ca:	48 8d 35 de 4d 00 00 	lea    0x4dde(%rip),%rsi        # 141af <g_1312+0x17cf>
    f3d1:	48 89 c7             	mov    %rax,%rdi
    f3d4:	e8 1a 73 ff ff       	callq  66f3 <transparent_crc>
    f3d9:	0f b6 05 90 85 00 00 	movzbl 0x8590(%rip),%eax        # 17970 <g_1769>
    f3e0:	0f b6 c0             	movzbl %al,%eax
    f3e3:	8b 55 fc             	mov    -0x4(%rbp),%edx
    f3e6:	48 8d 35 c9 4d 00 00 	lea    0x4dc9(%rip),%rsi        # 141b6 <g_1312+0x17d6>
    f3ed:	48 89 c7             	mov    %rax,%rdi
    f3f0:	e8 fe 72 ff ff       	callq  66f3 <transparent_crc>
    f3f5:	0f b7 05 75 85 00 00 	movzwl 0x8575(%rip),%eax        # 17971 <g_1769+0x1>
    f3fc:	0f b7 c0             	movzwl %ax,%eax
    f3ff:	8b 55 fc             	mov    -0x4(%rbp),%edx
    f402:	48 8d 35 b7 4d 00 00 	lea    0x4db7(%rip),%rsi        # 141c0 <g_1312+0x17e0>
    f409:	48 89 c7             	mov    %rax,%rdi
    f40c:	e8 e2 72 ff ff       	callq  66f3 <transparent_crc>
    f411:	8b 05 5c 85 00 00    	mov    0x855c(%rip),%eax        # 17973 <g_1769+0x3>
    f417:	89 c1                	mov    %eax,%ecx
    f419:	8b 45 fc             	mov    -0x4(%rbp),%eax
    f41c:	89 c2                	mov    %eax,%edx
    f41e:	48 8d 35 a5 4d 00 00 	lea    0x4da5(%rip),%rsi        # 141ca <g_1312+0x17ea>
    f425:	48 89 cf             	mov    %rcx,%rdi
    f428:	e8 c6 72 ff ff       	callq  66f3 <transparent_crc>
    f42d:	48 8b 05 43 85 00 00 	mov    0x8543(%rip),%rax        # 17977 <g_1769+0x7>
    f434:	8b 55 fc             	mov    -0x4(%rbp),%edx
    f437:	48 8d 35 96 4d 00 00 	lea    0x4d96(%rip),%rsi        # 141d4 <g_1312+0x17f4>
    f43e:	48 89 c7             	mov    %rax,%rdi
    f441:	e8 ad 72 ff ff       	callq  66f3 <transparent_crc>
    f446:	0f b6 05 32 85 00 00 	movzbl 0x8532(%rip),%eax        # 1797f <g_1769+0xf>
    f44d:	c1 e0 06             	shl    $0x6,%eax
    f450:	c0 f8 06             	sar    $0x6,%al
    f453:	48 0f be c0          	movsbq %al,%rax
    f457:	8b 55 fc             	mov    -0x4(%rbp),%edx
    f45a:	48 8d 35 7d 4d 00 00 	lea    0x4d7d(%rip),%rsi        # 141de <g_1312+0x17fe>
    f461:	48 89 c7             	mov    %rax,%rdi
    f464:	e8 8a 72 ff ff       	callq  66f3 <transparent_crc>
    f469:	0f b6 05 10 85 00 00 	movzbl 0x8510(%rip),%eax        # 17980 <g_1769+0x10>
    f470:	48 0f be c0          	movsbq %al,%rax
    f474:	8b 55 fc             	mov    -0x4(%rbp),%edx
    f477:	48 8d 35 6a 4d 00 00 	lea    0x4d6a(%rip),%rsi        # 141e8 <g_1312+0x1808>
    f47e:	48 89 c7             	mov    %rax,%rdi
    f481:	e8 6d 72 ff ff       	callq  66f3 <transparent_crc>
    f486:	0f b6 05 f4 84 00 00 	movzbl 0x84f4(%rip),%eax        # 17981 <g_1769+0x11>
    f48d:	48 0f be c0          	movsbq %al,%rax
    f491:	8b 55 fc             	mov    -0x4(%rbp),%edx
    f494:	48 8d 35 57 4d 00 00 	lea    0x4d57(%rip),%rsi        # 141f2 <g_1312+0x1812>
    f49b:	48 89 c7             	mov    %rax,%rdi
    f49e:	e8 50 72 ff ff       	callq  66f3 <transparent_crc>
    f4a3:	48 8b 05 d8 84 00 00 	mov    0x84d8(%rip),%rax        # 17982 <g_1769+0x12>
    f4aa:	8b 55 fc             	mov    -0x4(%rbp),%edx
    f4ad:	48 8d 35 48 4d 00 00 	lea    0x4d48(%rip),%rsi        # 141fc <g_1312+0x181c>
    f4b4:	48 89 c7             	mov    %rax,%rdi
    f4b7:	e8 37 72 ff ff       	callq  66f3 <transparent_crc>
    f4bc:	8b 05 86 a3 00 00    	mov    0xa386(%rip),%eax        # 19848 <g_1882>
    f4c2:	48 98                	cltq   
    f4c4:	8b 55 fc             	mov    -0x4(%rbp),%edx
    f4c7:	48 8d 35 38 4d 00 00 	lea    0x4d38(%rip),%rsi        # 14206 <g_1312+0x1826>
    f4ce:	48 89 c7             	mov    %rax,%rdi
    f4d1:	e8 1d 72 ff ff       	callq  66f3 <transparent_crc>
    f4d6:	c7 45 f0 00 00 00 00 	movl   $0x0,-0x10(%rbp)
    f4dd:	eb 4d                	jmp    f52c <main+0x38c1>
    f4df:	8b 45 f0             	mov    -0x10(%rbp),%eax
    f4e2:	48 98                	cltq   
    f4e4:	48 8d 14 85 00 00 00 	lea    0x0(,%rax,4),%rdx
    f4eb:	00 
    f4ec:	48 8d 05 9d 84 00 00 	lea    0x849d(%rip),%rax        # 17990 <g_1984>
    f4f3:	8b 04 02             	mov    (%rdx,%rax,1),%eax
    f4f6:	89 c1                	mov    %eax,%ecx
    f4f8:	8b 45 fc             	mov    -0x4(%rbp),%eax
    f4fb:	89 c2                	mov    %eax,%edx
    f4fd:	48 8d 35 09 4d 00 00 	lea    0x4d09(%rip),%rsi        # 1420d <g_1312+0x182d>
    f504:	48 89 cf             	mov    %rcx,%rdi
    f507:	e8 e7 71 ff ff       	callq  66f3 <transparent_crc>
    f50c:	83 7d fc 00          	cmpl   $0x0,-0x4(%rbp)
    f510:	74 16                	je     f528 <main+0x38bd>
    f512:	8b 45 f0             	mov    -0x10(%rbp),%eax
    f515:	89 c6                	mov    %eax,%esi
    f517:	48 8d 3d d4 3e 00 00 	lea    0x3ed4(%rip),%rdi        # 133f2 <g_1312+0xa12>
    f51e:	b8 00 00 00 00       	mov    $0x0,%eax
    f523:	e8 58 5b ff ff       	callq  5080 <printf@plt>
    f528:	83 45 f0 01          	addl   $0x1,-0x10(%rbp)
    f52c:	83 7d f0 03          	cmpl   $0x3,-0x10(%rbp)
    f530:	7e ad                	jle    f4df <main+0x3874>
    f532:	c7 45 f0 00 00 00 00 	movl   $0x0,-0x10(%rbp)
    f539:	e9 08 02 00 00       	jmpq   f746 <main+0x3adb>
    f53e:	8b 45 f0             	mov    -0x10(%rbp),%eax
    f541:	48 63 d0             	movslq %eax,%rdx
    f544:	48 89 d0             	mov    %rdx,%rax
    f547:	48 01 c0             	add    %rax,%rax
    f54a:	48 01 d0             	add    %rdx,%rax
    f54d:	48 c1 e0 02          	shl    $0x2,%rax
    f551:	48 01 d0             	add    %rdx,%rax
    f554:	48 01 c0             	add    %rax,%rax
    f557:	48 89 c2             	mov    %rax,%rdx
    f55a:	48 8d 05 3f 84 00 00 	lea    0x843f(%rip),%rax        # 179a0 <g_2006>
    f561:	0f b6 04 02          	movzbl (%rdx,%rax,1),%eax
    f565:	0f b6 c0             	movzbl %al,%eax
    f568:	8b 55 fc             	mov    -0x4(%rbp),%edx
    f56b:	48 8d 35 a5 4c 00 00 	lea    0x4ca5(%rip),%rsi        # 14217 <g_1312+0x1837>
    f572:	48 89 c7             	mov    %rax,%rdi
    f575:	e8 79 71 ff ff       	callq  66f3 <transparent_crc>
    f57a:	8b 45 f0             	mov    -0x10(%rbp),%eax
    f57d:	48 63 d0             	movslq %eax,%rdx
    f580:	48 89 d0             	mov    %rdx,%rax
    f583:	48 01 c0             	add    %rax,%rax
    f586:	48 01 d0             	add    %rdx,%rax
    f589:	48 c1 e0 02          	shl    $0x2,%rax
    f58d:	48 01 d0             	add    %rdx,%rax
    f590:	48 01 c0             	add    %rax,%rax
    f593:	48 89 c2             	mov    %rax,%rdx
    f596:	48 8d 05 03 84 00 00 	lea    0x8403(%rip),%rax        # 179a0 <g_2006>
    f59d:	0f b7 44 02 01       	movzwl 0x1(%rdx,%rax,1),%eax
    f5a2:	0f b7 c0             	movzwl %ax,%eax
    f5a5:	8b 55 fc             	mov    -0x4(%rbp),%edx
    f5a8:	48 8d 35 75 4c 00 00 	lea    0x4c75(%rip),%rsi        # 14224 <g_1312+0x1844>
    f5af:	48 89 c7             	mov    %rax,%rdi
    f5b2:	e8 3c 71 ff ff       	callq  66f3 <transparent_crc>
    f5b7:	8b 45 f0             	mov    -0x10(%rbp),%eax
    f5ba:	48 63 d0             	movslq %eax,%rdx
    f5bd:	48 89 d0             	mov    %rdx,%rax
    f5c0:	48 01 c0             	add    %rax,%rax
    f5c3:	48 01 d0             	add    %rdx,%rax
    f5c6:	48 c1 e0 02          	shl    $0x2,%rax
    f5ca:	48 01 d0             	add    %rdx,%rax
    f5cd:	48 01 c0             	add    %rax,%rax
    f5d0:	48 89 c2             	mov    %rax,%rdx
    f5d3:	48 8d 05 c6 83 00 00 	lea    0x83c6(%rip),%rax        # 179a0 <g_2006>
    f5da:	8b 44 02 03          	mov    0x3(%rdx,%rax,1),%eax
    f5de:	89 c1                	mov    %eax,%ecx
    f5e0:	8b 45 fc             	mov    -0x4(%rbp),%eax
    f5e3:	89 c2                	mov    %eax,%edx
    f5e5:	48 8d 35 45 4c 00 00 	lea    0x4c45(%rip),%rsi        # 14231 <g_1312+0x1851>
    f5ec:	48 89 cf             	mov    %rcx,%rdi
    f5ef:	e8 ff 70 ff ff       	callq  66f3 <transparent_crc>
    f5f4:	8b 45 f0             	mov    -0x10(%rbp),%eax
    f5f7:	48 63 d0             	movslq %eax,%rdx
    f5fa:	48 89 d0             	mov    %rdx,%rax
    f5fd:	48 01 c0             	add    %rax,%rax
    f600:	48 01 d0             	add    %rdx,%rax
    f603:	48 c1 e0 02          	shl    $0x2,%rax
    f607:	48 01 d0             	add    %rdx,%rax
    f60a:	48 01 c0             	add    %rax,%rax
    f60d:	48 89 c2             	mov    %rax,%rdx
    f610:	48 8d 05 89 83 00 00 	lea    0x8389(%rip),%rax        # 179a0 <g_2006>
    f617:	48 8b 44 02 07       	mov    0x7(%rdx,%rax,1),%rax
    f61c:	8b 55 fc             	mov    -0x4(%rbp),%edx
    f61f:	48 8d 35 18 4c 00 00 	lea    0x4c18(%rip),%rsi        # 1423e <g_1312+0x185e>
    f626:	48 89 c7             	mov    %rax,%rdi
    f629:	e8 c5 70 ff ff       	callq  66f3 <transparent_crc>
    f62e:	8b 45 f0             	mov    -0x10(%rbp),%eax
    f631:	48 63 d0             	movslq %eax,%rdx
    f634:	48 89 d0             	mov    %rdx,%rax
    f637:	48 01 c0             	add    %rax,%rax
    f63a:	48 01 d0             	add    %rdx,%rax
    f63d:	48 c1 e0 02          	shl    $0x2,%rax
    f641:	48 01 d0             	add    %rdx,%rax
    f644:	48 01 c0             	add    %rax,%rax
    f647:	48 89 c2             	mov    %rax,%rdx
    f64a:	48 8d 05 4f 83 00 00 	lea    0x834f(%rip),%rax        # 179a0 <g_2006>
    f651:	0f b6 44 02 0f       	movzbl 0xf(%rdx,%rax,1),%eax
    f656:	c1 e0 06             	shl    $0x6,%eax
    f659:	c0 f8 06             	sar    $0x6,%al
    f65c:	48 0f be c0          	movsbq %al,%rax
    f660:	8b 55 fc             	mov    -0x4(%rbp),%edx
    f663:	48 8d 35 e1 4b 00 00 	lea    0x4be1(%rip),%rsi        # 1424b <g_1312+0x186b>
    f66a:	48 89 c7             	mov    %rax,%rdi
    f66d:	e8 81 70 ff ff       	callq  66f3 <transparent_crc>
    f672:	8b 45 f0             	mov    -0x10(%rbp),%eax
    f675:	48 63 d0             	movslq %eax,%rdx
    f678:	48 89 d0             	mov    %rdx,%rax
    f67b:	48 01 c0             	add    %rax,%rax
    f67e:	48 01 d0             	add    %rdx,%rax
    f681:	48 c1 e0 02          	shl    $0x2,%rax
    f685:	48 01 d0             	add    %rdx,%rax
    f688:	48 01 c0             	add    %rax,%rax
    f68b:	48 89 c2             	mov    %rax,%rdx
    f68e:	48 8d 05 1b 83 00 00 	lea    0x831b(%rip),%rax        # 179b0 <g_2006+0x10>
    f695:	0f b6 04 02          	movzbl (%rdx,%rax,1),%eax
    f699:	48 0f be c0          	movsbq %al,%rax
    f69d:	8b 55 fc             	mov    -0x4(%rbp),%edx
    f6a0:	48 8d 35 b1 4b 00 00 	lea    0x4bb1(%rip),%rsi        # 14258 <g_1312+0x1878>
    f6a7:	48 89 c7             	mov    %rax,%rdi
    f6aa:	e8 44 70 ff ff       	callq  66f3 <transparent_crc>
    f6af:	8b 45 f0             	mov    -0x10(%rbp),%eax
    f6b2:	48 63 d0             	movslq %eax,%rdx
    f6b5:	48 89 d0             	mov    %rdx,%rax
    f6b8:	48 01 c0             	add    %rax,%rax
    f6bb:	48 01 d0             	add    %rdx,%rax
    f6be:	48 c1 e0 02          	shl    $0x2,%rax
    f6c2:	48 01 d0             	add    %rdx,%rax
    f6c5:	48 01 c0             	add    %rax,%rax
    f6c8:	48 89 c2             	mov    %rax,%rdx
    f6cb:	48 8d 05 df 82 00 00 	lea    0x82df(%rip),%rax        # 179b1 <g_2006+0x11>
    f6d2:	0f b6 04 02          	movzbl (%rdx,%rax,1),%eax
    f6d6:	48 0f be c0          	movsbq %al,%rax
    f6da:	8b 55 fc             	mov    -0x4(%rbp),%edx
    f6dd:	48 8d 35 81 4b 00 00 	lea    0x4b81(%rip),%rsi        # 14265 <g_1312+0x1885>
    f6e4:	48 89 c7             	mov    %rax,%rdi
    f6e7:	e8 07 70 ff ff       	callq  66f3 <transparent_crc>
    f6ec:	8b 45 f0             	mov    -0x10(%rbp),%eax
    f6ef:	48 63 d0             	movslq %eax,%rdx
    f6f2:	48 89 d0             	mov    %rdx,%rax
    f6f5:	48 01 c0             	add    %rax,%rax
    f6f8:	48 01 d0             	add    %rdx,%rax
    f6fb:	48 c1 e0 02          	shl    $0x2,%rax
    f6ff:	48 01 d0             	add    %rdx,%rax
    f702:	48 01 c0             	add    %rax,%rax
    f705:	48 89 c2             	mov    %rax,%rdx
    f708:	48 8d 05 a1 82 00 00 	lea    0x82a1(%rip),%rax        # 179b0 <g_2006+0x10>
    f70f:	48 8b 44 02 02       	mov    0x2(%rdx,%rax,1),%rax
    f714:	8b 55 fc             	mov    -0x4(%rbp),%edx
    f717:	48 8d 35 54 4b 00 00 	lea    0x4b54(%rip),%rsi        # 14272 <g_1312+0x1892>
    f71e:	48 89 c7             	mov    %rax,%rdi
    f721:	e8 cd 6f ff ff       	callq  66f3 <transparent_crc>
    f726:	83 7d fc 00          	cmpl   $0x0,-0x4(%rbp)
    f72a:	74 16                	je     f742 <main+0x3ad7>
    f72c:	8b 45 f0             	mov    -0x10(%rbp),%eax
    f72f:	89 c6                	mov    %eax,%esi
    f731:	48 8d 3d ba 3c 00 00 	lea    0x3cba(%rip),%rdi        # 133f2 <g_1312+0xa12>
    f738:	b8 00 00 00 00       	mov    $0x0,%eax
    f73d:	e8 3e 59 ff ff       	callq  5080 <printf@plt>
    f742:	83 45 f0 01          	addl   $0x1,-0x10(%rbp)
    f746:	83 7d f0 00          	cmpl   $0x0,-0x10(%rbp)
    f74a:	0f 8e ee fd ff ff    	jle    f53e <main+0x38d3>
    f750:	8b 05 66 82 00 00    	mov    0x8266(%rip),%eax        # 179bc <g_2016>
    f756:	89 c1                	mov    %eax,%ecx
    f758:	8b 45 fc             	mov    -0x4(%rbp),%eax
    f75b:	89 c2                	mov    %eax,%edx
    f75d:	48 8d 35 1b 4b 00 00 	lea    0x4b1b(%rip),%rsi        # 1427f <g_1312+0x189f>
    f764:	48 89 cf             	mov    %rcx,%rdi
    f767:	e8 87 6f ff ff       	callq  66f3 <transparent_crc>
    f76c:	0f b6 05 4d 82 00 00 	movzbl 0x824d(%rip),%eax        # 179c0 <g_2037>
    f773:	0f b6 c0             	movzbl %al,%eax
    f776:	8b 55 fc             	mov    -0x4(%rbp),%edx
    f779:	48 8d 35 06 4b 00 00 	lea    0x4b06(%rip),%rsi        # 14286 <g_1312+0x18a6>
    f780:	48 89 c7             	mov    %rax,%rdi
    f783:	e8 6b 6f ff ff       	callq  66f3 <transparent_crc>
    f788:	0f b7 05 32 82 00 00 	movzwl 0x8232(%rip),%eax        # 179c1 <g_2037+0x1>
    f78f:	0f b7 c0             	movzwl %ax,%eax
    f792:	8b 55 fc             	mov    -0x4(%rbp),%edx
    f795:	48 8d 35 f4 4a 00 00 	lea    0x4af4(%rip),%rsi        # 14290 <g_1312+0x18b0>
    f79c:	48 89 c7             	mov    %rax,%rdi
    f79f:	e8 4f 6f ff ff       	callq  66f3 <transparent_crc>
    f7a4:	8b 05 19 82 00 00    	mov    0x8219(%rip),%eax        # 179c3 <g_2037+0x3>
    f7aa:	89 c1                	mov    %eax,%ecx
    f7ac:	8b 45 fc             	mov    -0x4(%rbp),%eax
    f7af:	89 c2                	mov    %eax,%edx
    f7b1:	48 8d 35 e2 4a 00 00 	lea    0x4ae2(%rip),%rsi        # 1429a <g_1312+0x18ba>
    f7b8:	48 89 cf             	mov    %rcx,%rdi
    f7bb:	e8 33 6f ff ff       	callq  66f3 <transparent_crc>
    f7c0:	48 8b 05 00 82 00 00 	mov    0x8200(%rip),%rax        # 179c7 <g_2037+0x7>
    f7c7:	8b 55 fc             	mov    -0x4(%rbp),%edx
    f7ca:	48 8d 35 d3 4a 00 00 	lea    0x4ad3(%rip),%rsi        # 142a4 <g_1312+0x18c4>
    f7d1:	48 89 c7             	mov    %rax,%rdi
    f7d4:	e8 1a 6f ff ff       	callq  66f3 <transparent_crc>
    f7d9:	48 8b 05 e8 81 00 00 	mov    0x81e8(%rip),%rax        # 179c8 <g_2037+0x8>
    f7e0:	48 c1 e0 06          	shl    $0x6,%rax
    f7e4:	48 c1 f8 3e          	sar    $0x3e,%rax
    f7e8:	48 0f be c0          	movsbq %al,%rax
    f7ec:	8b 55 fc             	mov    -0x4(%rbp),%edx
    f7ef:	48 8d 35 b8 4a 00 00 	lea    0x4ab8(%rip),%rsi        # 142ae <g_1312+0x18ce>
    f7f6:	48 89 c7             	mov    %rax,%rdi
    f7f9:	e8 f5 6e ff ff       	callq  66f3 <transparent_crc>
    f7fe:	0f b6 05 cb 81 00 00 	movzbl 0x81cb(%rip),%eax        # 179d0 <g_2037+0x10>
    f805:	48 0f be c0          	movsbq %al,%rax
    f809:	8b 55 fc             	mov    -0x4(%rbp),%edx
    f80c:	48 8d 35 a5 4a 00 00 	lea    0x4aa5(%rip),%rsi        # 142b8 <g_1312+0x18d8>
    f813:	48 89 c7             	mov    %rax,%rdi
    f816:	e8 d8 6e ff ff       	callq  66f3 <transparent_crc>
    f81b:	0f b6 05 af 81 00 00 	movzbl 0x81af(%rip),%eax        # 179d1 <g_2037+0x11>
    f822:	48 0f be c0          	movsbq %al,%rax
    f826:	8b 55 fc             	mov    -0x4(%rbp),%edx
    f829:	48 8d 35 92 4a 00 00 	lea    0x4a92(%rip),%rsi        # 142c2 <g_1312+0x18e2>
    f830:	48 89 c7             	mov    %rax,%rdi
    f833:	e8 bb 6e ff ff       	callq  66f3 <transparent_crc>
    f838:	48 8b 05 93 81 00 00 	mov    0x8193(%rip),%rax        # 179d2 <g_2037+0x12>
    f83f:	8b 55 fc             	mov    -0x4(%rbp),%edx
    f842:	48 8d 35 83 4a 00 00 	lea    0x4a83(%rip),%rsi        # 142cc <g_1312+0x18ec>
    f849:	48 89 c7             	mov    %rax,%rdi
    f84c:	e8 a2 6e ff ff       	callq  66f3 <transparent_crc>
    f851:	0f b6 05 88 81 00 00 	movzbl 0x8188(%rip),%eax        # 179e0 <g_2113>
    f858:	0f b6 c0             	movzbl %al,%eax
    f85b:	8b 55 fc             	mov    -0x4(%rbp),%edx
    f85e:	48 8d 35 71 4a 00 00 	lea    0x4a71(%rip),%rsi        # 142d6 <g_1312+0x18f6>
    f865:	48 89 c7             	mov    %rax,%rdi
    f868:	e8 86 6e ff ff       	callq  66f3 <transparent_crc>
    f86d:	0f b7 05 6d 81 00 00 	movzwl 0x816d(%rip),%eax        # 179e1 <g_2113+0x1>
    f874:	0f b7 c0             	movzwl %ax,%eax
    f877:	8b 55 fc             	mov    -0x4(%rbp),%edx
    f87a:	48 8d 35 5f 4a 00 00 	lea    0x4a5f(%rip),%rsi        # 142e0 <g_1312+0x1900>
    f881:	48 89 c7             	mov    %rax,%rdi
    f884:	e8 6a 6e ff ff       	callq  66f3 <transparent_crc>
    f889:	8b 05 54 81 00 00    	mov    0x8154(%rip),%eax        # 179e3 <g_2113+0x3>
    f88f:	89 c1                	mov    %eax,%ecx
    f891:	8b 45 fc             	mov    -0x4(%rbp),%eax
    f894:	89 c2                	mov    %eax,%edx
    f896:	48 8d 35 4d 4a 00 00 	lea    0x4a4d(%rip),%rsi        # 142ea <g_1312+0x190a>
    f89d:	48 89 cf             	mov    %rcx,%rdi
    f8a0:	e8 4e 6e ff ff       	callq  66f3 <transparent_crc>
    f8a5:	48 8b 05 3b 81 00 00 	mov    0x813b(%rip),%rax        # 179e7 <g_2113+0x7>
    f8ac:	8b 55 fc             	mov    -0x4(%rbp),%edx
    f8af:	48 8d 35 3e 4a 00 00 	lea    0x4a3e(%rip),%rsi        # 142f4 <g_1312+0x1914>
    f8b6:	48 89 c7             	mov    %rax,%rdi
    f8b9:	e8 35 6e ff ff       	callq  66f3 <transparent_crc>
    f8be:	0f b6 05 2a 81 00 00 	movzbl 0x812a(%rip),%eax        # 179ef <g_2113+0xf>
    f8c5:	c1 e0 06             	shl    $0x6,%eax
    f8c8:	c0 f8 06             	sar    $0x6,%al
    f8cb:	48 0f be c0          	movsbq %al,%rax
    f8cf:	8b 55 fc             	mov    -0x4(%rbp),%edx
    f8d2:	48 8d 35 25 4a 00 00 	lea    0x4a25(%rip),%rsi        # 142fe <g_1312+0x191e>
    f8d9:	48 89 c7             	mov    %rax,%rdi
    f8dc:	e8 12 6e ff ff       	callq  66f3 <transparent_crc>
    f8e1:	0f b6 05 08 81 00 00 	movzbl 0x8108(%rip),%eax        # 179f0 <g_2113+0x10>
    f8e8:	48 0f be c0          	movsbq %al,%rax
    f8ec:	8b 55 fc             	mov    -0x4(%rbp),%edx
    f8ef:	48 8d 35 12 4a 00 00 	lea    0x4a12(%rip),%rsi        # 14308 <g_1312+0x1928>
    f8f6:	48 89 c7             	mov    %rax,%rdi
    f8f9:	e8 f5 6d ff ff       	callq  66f3 <transparent_crc>
    f8fe:	0f b6 05 ec 80 00 00 	movzbl 0x80ec(%rip),%eax        # 179f1 <g_2113+0x11>
    f905:	48 0f be c0          	movsbq %al,%rax
    f909:	8b 55 fc             	mov    -0x4(%rbp),%edx
    f90c:	48 8d 35 ff 49 00 00 	lea    0x49ff(%rip),%rsi        # 14312 <g_1312+0x1932>
    f913:	48 89 c7             	mov    %rax,%rdi
    f916:	e8 d8 6d ff ff       	callq  66f3 <transparent_crc>
    f91b:	48 8b 05 d0 80 00 00 	mov    0x80d0(%rip),%rax        # 179f2 <g_2113+0x12>
    f922:	8b 55 fc             	mov    -0x4(%rbp),%edx
    f925:	48 8d 35 f0 49 00 00 	lea    0x49f0(%rip),%rsi        # 1431c <g_1312+0x193c>
    f92c:	48 89 c7             	mov    %rax,%rdi
    f92f:	e8 bf 6d ff ff       	callq  66f3 <transparent_crc>
    f934:	0f b6 05 c5 80 00 00 	movzbl 0x80c5(%rip),%eax        # 17a00 <g_2114>
    f93b:	0f b6 c0             	movzbl %al,%eax
    f93e:	8b 55 fc             	mov    -0x4(%rbp),%edx
    f941:	48 8d 35 de 49 00 00 	lea    0x49de(%rip),%rsi        # 14326 <g_1312+0x1946>
    f948:	48 89 c7             	mov    %rax,%rdi
    f94b:	e8 a3 6d ff ff       	callq  66f3 <transparent_crc>
    f950:	0f b7 05 aa 80 00 00 	movzwl 0x80aa(%rip),%eax        # 17a01 <g_2114+0x1>
    f957:	0f b7 c0             	movzwl %ax,%eax
    f95a:	8b 55 fc             	mov    -0x4(%rbp),%edx
    f95d:	48 8d 35 cc 49 00 00 	lea    0x49cc(%rip),%rsi        # 14330 <g_1312+0x1950>
    f964:	48 89 c7             	mov    %rax,%rdi
    f967:	e8 87 6d ff ff       	callq  66f3 <transparent_crc>
    f96c:	8b 05 91 80 00 00    	mov    0x8091(%rip),%eax        # 17a03 <g_2114+0x3>
    f972:	89 c1                	mov    %eax,%ecx
    f974:	8b 45 fc             	mov    -0x4(%rbp),%eax
    f977:	89 c2                	mov    %eax,%edx
    f979:	48 8d 35 ba 49 00 00 	lea    0x49ba(%rip),%rsi        # 1433a <g_1312+0x195a>
    f980:	48 89 cf             	mov    %rcx,%rdi
    f983:	e8 6b 6d ff ff       	callq  66f3 <transparent_crc>
    f988:	48 8b 05 78 80 00 00 	mov    0x8078(%rip),%rax        # 17a07 <g_2114+0x7>
    f98f:	8b 55 fc             	mov    -0x4(%rbp),%edx
    f992:	48 8d 35 ab 49 00 00 	lea    0x49ab(%rip),%rsi        # 14344 <g_1312+0x1964>
    f999:	48 89 c7             	mov    %rax,%rdi
    f99c:	e8 52 6d ff ff       	callq  66f3 <transparent_crc>
    f9a1:	0f b6 05 67 80 00 00 	movzbl 0x8067(%rip),%eax        # 17a0f <g_2114+0xf>
    f9a8:	c1 e0 06             	shl    $0x6,%eax
    f9ab:	c0 f8 06             	sar    $0x6,%al
    f9ae:	48 0f be c0          	movsbq %al,%rax
    f9b2:	8b 55 fc             	mov    -0x4(%rbp),%edx
    f9b5:	48 8d 35 92 49 00 00 	lea    0x4992(%rip),%rsi        # 1434e <g_1312+0x196e>
    f9bc:	48 89 c7             	mov    %rax,%rdi
    f9bf:	e8 2f 6d ff ff       	callq  66f3 <transparent_crc>
    f9c4:	0f b6 05 45 80 00 00 	movzbl 0x8045(%rip),%eax        # 17a10 <g_2114+0x10>
    f9cb:	48 0f be c0          	movsbq %al,%rax
    f9cf:	8b 55 fc             	mov    -0x4(%rbp),%edx
    f9d2:	48 8d 35 7f 49 00 00 	lea    0x497f(%rip),%rsi        # 14358 <g_1312+0x1978>
    f9d9:	48 89 c7             	mov    %rax,%rdi
    f9dc:	e8 12 6d ff ff       	callq  66f3 <transparent_crc>
    f9e1:	0f b6 05 29 80 00 00 	movzbl 0x8029(%rip),%eax        # 17a11 <g_2114+0x11>
    f9e8:	48 0f be c0          	movsbq %al,%rax
    f9ec:	8b 55 fc             	mov    -0x4(%rbp),%edx
    f9ef:	48 8d 35 6c 49 00 00 	lea    0x496c(%rip),%rsi        # 14362 <g_1312+0x1982>
    f9f6:	48 89 c7             	mov    %rax,%rdi
    f9f9:	e8 f5 6c ff ff       	callq  66f3 <transparent_crc>
    f9fe:	48 8b 05 0d 80 00 00 	mov    0x800d(%rip),%rax        # 17a12 <g_2114+0x12>
    fa05:	8b 55 fc             	mov    -0x4(%rbp),%edx
    fa08:	48 8d 35 5d 49 00 00 	lea    0x495d(%rip),%rsi        # 1436c <g_1312+0x198c>
    fa0f:	48 89 c7             	mov    %rax,%rdi
    fa12:	e8 dc 6c ff ff       	callq  66f3 <transparent_crc>
    fa17:	0f b6 05 fc 7f 00 00 	movzbl 0x7ffc(%rip),%eax        # 17a1a <g_2199>
    fa1e:	48 0f be c0          	movsbq %al,%rax
    fa22:	8b 55 fc             	mov    -0x4(%rbp),%edx
    fa25:	48 8d 35 4a 49 00 00 	lea    0x494a(%rip),%rsi        # 14376 <g_1312+0x1996>
    fa2c:	48 89 c7             	mov    %rax,%rdi
    fa2f:	e8 bf 6c ff ff       	callq  66f3 <transparent_crc>
    fa34:	8b 05 e2 7f 00 00    	mov    0x7fe2(%rip),%eax        # 17a1c <g_2282>
    fa3a:	48 98                	cltq   
    fa3c:	8b 55 fc             	mov    -0x4(%rbp),%edx
    fa3f:	48 8d 35 37 49 00 00 	lea    0x4937(%rip),%rsi        # 1437d <g_1312+0x199d>
    fa46:	48 89 c7             	mov    %rax,%rdi
    fa49:	e8 a5 6c ff ff       	callq  66f3 <transparent_crc>
    fa4e:	0f b6 05 cb 7f 00 00 	movzbl 0x7fcb(%rip),%eax        # 17a20 <g_2304>
    fa55:	0f b6 c0             	movzbl %al,%eax
    fa58:	8b 55 fc             	mov    -0x4(%rbp),%edx
    fa5b:	48 8d 35 22 49 00 00 	lea    0x4922(%rip),%rsi        # 14384 <g_1312+0x19a4>
    fa62:	48 89 c7             	mov    %rax,%rdi
    fa65:	e8 89 6c ff ff       	callq  66f3 <transparent_crc>
    fa6a:	0f b7 05 b0 7f 00 00 	movzwl 0x7fb0(%rip),%eax        # 17a21 <g_2304+0x1>
    fa71:	0f b7 c0             	movzwl %ax,%eax
    fa74:	8b 55 fc             	mov    -0x4(%rbp),%edx
    fa77:	48 8d 35 10 49 00 00 	lea    0x4910(%rip),%rsi        # 1438e <g_1312+0x19ae>
    fa7e:	48 89 c7             	mov    %rax,%rdi
    fa81:	e8 6d 6c ff ff       	callq  66f3 <transparent_crc>
    fa86:	8b 05 97 7f 00 00    	mov    0x7f97(%rip),%eax        # 17a23 <g_2304+0x3>
    fa8c:	89 c1                	mov    %eax,%ecx
    fa8e:	8b 45 fc             	mov    -0x4(%rbp),%eax
    fa91:	89 c2                	mov    %eax,%edx
    fa93:	48 8d 35 fe 48 00 00 	lea    0x48fe(%rip),%rsi        # 14398 <g_1312+0x19b8>
    fa9a:	48 89 cf             	mov    %rcx,%rdi
    fa9d:	e8 51 6c ff ff       	callq  66f3 <transparent_crc>
    faa2:	48 8b 05 7e 7f 00 00 	mov    0x7f7e(%rip),%rax        # 17a27 <g_2304+0x7>
    faa9:	8b 55 fc             	mov    -0x4(%rbp),%edx
    faac:	48 8d 35 ef 48 00 00 	lea    0x48ef(%rip),%rsi        # 143a2 <g_1312+0x19c2>
    fab3:	48 89 c7             	mov    %rax,%rdi
    fab6:	e8 38 6c ff ff       	callq  66f3 <transparent_crc>
    fabb:	0f b6 05 6d 7f 00 00 	movzbl 0x7f6d(%rip),%eax        # 17a2f <g_2304+0xf>
    fac2:	c1 e0 06             	shl    $0x6,%eax
    fac5:	c0 f8 06             	sar    $0x6,%al
    fac8:	48 0f be c0          	movsbq %al,%rax
    facc:	8b 55 fc             	mov    -0x4(%rbp),%edx
    facf:	48 8d 35 d6 48 00 00 	lea    0x48d6(%rip),%rsi        # 143ac <g_1312+0x19cc>
    fad6:	48 89 c7             	mov    %rax,%rdi
    fad9:	e8 15 6c ff ff       	callq  66f3 <transparent_crc>
    fade:	0f b6 05 4b 7f 00 00 	movzbl 0x7f4b(%rip),%eax        # 17a30 <g_2304+0x10>
    fae5:	48 0f be c0          	movsbq %al,%rax
    fae9:	8b 55 fc             	mov    -0x4(%rbp),%edx
    faec:	48 8d 35 c3 48 00 00 	lea    0x48c3(%rip),%rsi        # 143b6 <g_1312+0x19d6>
    faf3:	48 89 c7             	mov    %rax,%rdi
    faf6:	e8 f8 6b ff ff       	callq  66f3 <transparent_crc>
    fafb:	0f b6 05 2f 7f 00 00 	movzbl 0x7f2f(%rip),%eax        # 17a31 <g_2304+0x11>
    fb02:	48 0f be c0          	movsbq %al,%rax
    fb06:	8b 55 fc             	mov    -0x4(%rbp),%edx
    fb09:	48 8d 35 b0 48 00 00 	lea    0x48b0(%rip),%rsi        # 143c0 <g_1312+0x19e0>
    fb10:	48 89 c7             	mov    %rax,%rdi
    fb13:	e8 db 6b ff ff       	callq  66f3 <transparent_crc>
    fb18:	48 8b 05 13 7f 00 00 	mov    0x7f13(%rip),%rax        # 17a32 <g_2304+0x12>
    fb1f:	8b 55 fc             	mov    -0x4(%rbp),%edx
    fb22:	48 8d 35 a1 48 00 00 	lea    0x48a1(%rip),%rsi        # 143ca <g_1312+0x19ea>
    fb29:	48 89 c7             	mov    %rax,%rdi
    fb2c:	e8 c2 6b ff ff       	callq  66f3 <transparent_crc>
    fb31:	0f b6 05 02 7f 00 00 	movzbl 0x7f02(%rip),%eax        # 17a3a <g_2400>
    fb38:	48 0f be c0          	movsbq %al,%rax
    fb3c:	8b 55 fc             	mov    -0x4(%rbp),%edx
    fb3f:	48 8d 35 8e 48 00 00 	lea    0x488e(%rip),%rsi        # 143d4 <g_1312+0x19f4>
    fb46:	48 89 c7             	mov    %rax,%rdi
    fb49:	e8 a5 6b ff ff       	callq  66f3 <transparent_crc>
    fb4e:	0f b6 05 eb 7e 00 00 	movzbl 0x7eeb(%rip),%eax        # 17a40 <g_2412>
    fb55:	0f b6 c0             	movzbl %al,%eax
    fb58:	8b 55 fc             	mov    -0x4(%rbp),%edx
    fb5b:	48 8d 35 79 48 00 00 	lea    0x4879(%rip),%rsi        # 143db <g_1312+0x19fb>
    fb62:	48 89 c7             	mov    %rax,%rdi
    fb65:	e8 89 6b ff ff       	callq  66f3 <transparent_crc>
    fb6a:	0f b7 05 d0 7e 00 00 	movzwl 0x7ed0(%rip),%eax        # 17a41 <g_2412+0x1>
    fb71:	0f b7 c0             	movzwl %ax,%eax
    fb74:	8b 55 fc             	mov    -0x4(%rbp),%edx
    fb77:	48 8d 35 67 48 00 00 	lea    0x4867(%rip),%rsi        # 143e5 <g_1312+0x1a05>
    fb7e:	48 89 c7             	mov    %rax,%rdi
    fb81:	e8 6d 6b ff ff       	callq  66f3 <transparent_crc>
    fb86:	8b 05 b7 7e 00 00    	mov    0x7eb7(%rip),%eax        # 17a43 <g_2412+0x3>
    fb8c:	89 c1                	mov    %eax,%ecx
    fb8e:	8b 45 fc             	mov    -0x4(%rbp),%eax
    fb91:	89 c2                	mov    %eax,%edx
    fb93:	48 8d 35 55 48 00 00 	lea    0x4855(%rip),%rsi        # 143ef <g_1312+0x1a0f>
    fb9a:	48 89 cf             	mov    %rcx,%rdi
    fb9d:	e8 51 6b ff ff       	callq  66f3 <transparent_crc>
    fba2:	48 8b 05 9e 7e 00 00 	mov    0x7e9e(%rip),%rax        # 17a47 <g_2412+0x7>
    fba9:	8b 55 fc             	mov    -0x4(%rbp),%edx
    fbac:	48 8d 35 46 48 00 00 	lea    0x4846(%rip),%rsi        # 143f9 <g_1312+0x1a19>
    fbb3:	48 89 c7             	mov    %rax,%rdi
    fbb6:	e8 38 6b ff ff       	callq  66f3 <transparent_crc>
    fbbb:	0f b6 05 8d 7e 00 00 	movzbl 0x7e8d(%rip),%eax        # 17a4f <g_2412+0xf>
    fbc2:	c1 e0 06             	shl    $0x6,%eax
    fbc5:	c0 f8 06             	sar    $0x6,%al
    fbc8:	48 0f be c0          	movsbq %al,%rax
    fbcc:	8b 55 fc             	mov    -0x4(%rbp),%edx
    fbcf:	48 8d 35 2d 48 00 00 	lea    0x482d(%rip),%rsi        # 14403 <g_1312+0x1a23>
    fbd6:	48 89 c7             	mov    %rax,%rdi
    fbd9:	e8 15 6b ff ff       	callq  66f3 <transparent_crc>
    fbde:	0f b6 05 6b 7e 00 00 	movzbl 0x7e6b(%rip),%eax        # 17a50 <g_2412+0x10>
    fbe5:	48 0f be c0          	movsbq %al,%rax
    fbe9:	8b 55 fc             	mov    -0x4(%rbp),%edx
    fbec:	48 8d 35 1a 48 00 00 	lea    0x481a(%rip),%rsi        # 1440d <g_1312+0x1a2d>
    fbf3:	48 89 c7             	mov    %rax,%rdi
    fbf6:	e8 f8 6a ff ff       	callq  66f3 <transparent_crc>
    fbfb:	0f b6 05 4f 7e 00 00 	movzbl 0x7e4f(%rip),%eax        # 17a51 <g_2412+0x11>
    fc02:	48 0f be c0          	movsbq %al,%rax
    fc06:	8b 55 fc             	mov    -0x4(%rbp),%edx
    fc09:	48 8d 35 07 48 00 00 	lea    0x4807(%rip),%rsi        # 14417 <g_1312+0x1a37>
    fc10:	48 89 c7             	mov    %rax,%rdi
    fc13:	e8 db 6a ff ff       	callq  66f3 <transparent_crc>
    fc18:	48 8b 05 33 7e 00 00 	mov    0x7e33(%rip),%rax        # 17a52 <g_2412+0x12>
    fc1f:	8b 55 fc             	mov    -0x4(%rbp),%edx
    fc22:	48 8d 35 f8 47 00 00 	lea    0x47f8(%rip),%rsi        # 14421 <g_1312+0x1a41>
    fc29:	48 89 c7             	mov    %rax,%rdi
    fc2c:	e8 c2 6a ff ff       	callq  66f3 <transparent_crc>
    fc31:	8b 05 25 7e 00 00    	mov    0x7e25(%rip),%eax        # 17a5c <g_2457>
    fc37:	89 c1                	mov    %eax,%ecx
    fc39:	8b 45 fc             	mov    -0x4(%rbp),%eax
    fc3c:	89 c2                	mov    %eax,%edx
    fc3e:	48 8d 35 e6 47 00 00 	lea    0x47e6(%rip),%rsi        # 1442b <g_1312+0x1a4b>
    fc45:	48 89 cf             	mov    %rcx,%rdi
    fc48:	e8 a6 6a ff ff       	callq  66f3 <transparent_crc>
    fc4d:	0f b6 05 0c 7e 00 00 	movzbl 0x7e0c(%rip),%eax        # 17a60 <g_2469>
    fc54:	0f b6 c0             	movzbl %al,%eax
    fc57:	8b 55 fc             	mov    -0x4(%rbp),%edx
    fc5a:	48 8d 35 d1 47 00 00 	lea    0x47d1(%rip),%rsi        # 14432 <g_1312+0x1a52>
    fc61:	48 89 c7             	mov    %rax,%rdi
    fc64:	e8 8a 6a ff ff       	callq  66f3 <transparent_crc>
    fc69:	0f b7 05 f1 7d 00 00 	movzwl 0x7df1(%rip),%eax        # 17a61 <g_2469+0x1>
    fc70:	0f b7 c0             	movzwl %ax,%eax
    fc73:	8b 55 fc             	mov    -0x4(%rbp),%edx
    fc76:	48 8d 35 bf 47 00 00 	lea    0x47bf(%rip),%rsi        # 1443c <g_1312+0x1a5c>
    fc7d:	48 89 c7             	mov    %rax,%rdi
    fc80:	e8 6e 6a ff ff       	callq  66f3 <transparent_crc>
    fc85:	8b 05 d8 7d 00 00    	mov    0x7dd8(%rip),%eax        # 17a63 <g_2469+0x3>
    fc8b:	89 c1                	mov    %eax,%ecx
    fc8d:	8b 45 fc             	mov    -0x4(%rbp),%eax
    fc90:	89 c2                	mov    %eax,%edx
    fc92:	48 8d 35 ad 47 00 00 	lea    0x47ad(%rip),%rsi        # 14446 <g_1312+0x1a66>
    fc99:	48 89 cf             	mov    %rcx,%rdi
    fc9c:	e8 52 6a ff ff       	callq  66f3 <transparent_crc>
    fca1:	48 8b 05 bf 7d 00 00 	mov    0x7dbf(%rip),%rax        # 17a67 <g_2469+0x7>
    fca8:	8b 55 fc             	mov    -0x4(%rbp),%edx
    fcab:	48 8d 35 9e 47 00 00 	lea    0x479e(%rip),%rsi        # 14450 <g_1312+0x1a70>
    fcb2:	48 89 c7             	mov    %rax,%rdi
    fcb5:	e8 39 6a ff ff       	callq  66f3 <transparent_crc>
    fcba:	48 8b 05 a7 7d 00 00 	mov    0x7da7(%rip),%rax        # 17a68 <g_2469+0x8>
    fcc1:	48 c1 e0 06          	shl    $0x6,%rax
    fcc5:	48 c1 f8 3e          	sar    $0x3e,%rax
    fcc9:	48 0f be c0          	movsbq %al,%rax
    fccd:	8b 55 fc             	mov    -0x4(%rbp),%edx
    fcd0:	48 8d 35 83 47 00 00 	lea    0x4783(%rip),%rsi        # 1445a <g_1312+0x1a7a>
    fcd7:	48 89 c7             	mov    %rax,%rdi
    fcda:	e8 14 6a ff ff       	callq  66f3 <transparent_crc>
    fcdf:	0f b6 05 8a 7d 00 00 	movzbl 0x7d8a(%rip),%eax        # 17a70 <g_2469+0x10>
    fce6:	48 0f be c0          	movsbq %al,%rax
    fcea:	8b 55 fc             	mov    -0x4(%rbp),%edx
    fced:	48 8d 35 70 47 00 00 	lea    0x4770(%rip),%rsi        # 14464 <g_1312+0x1a84>
    fcf4:	48 89 c7             	mov    %rax,%rdi
    fcf7:	e8 f7 69 ff ff       	callq  66f3 <transparent_crc>
    fcfc:	0f b6 05 6e 7d 00 00 	movzbl 0x7d6e(%rip),%eax        # 17a71 <g_2469+0x11>
    fd03:	48 0f be c0          	movsbq %al,%rax
    fd07:	8b 55 fc             	mov    -0x4(%rbp),%edx
    fd0a:	48 8d 35 5d 47 00 00 	lea    0x475d(%rip),%rsi        # 1446e <g_1312+0x1a8e>
    fd11:	48 89 c7             	mov    %rax,%rdi
    fd14:	e8 da 69 ff ff       	callq  66f3 <transparent_crc>
    fd19:	48 8b 05 52 7d 00 00 	mov    0x7d52(%rip),%rax        # 17a72 <g_2469+0x12>
    fd20:	8b 55 fc             	mov    -0x4(%rbp),%edx
    fd23:	48 8d 35 4e 47 00 00 	lea    0x474e(%rip),%rsi        # 14478 <g_1312+0x1a98>
    fd2a:	48 89 c7             	mov    %rax,%rdi
    fd2d:	e8 c1 69 ff ff       	callq  66f3 <transparent_crc>
    fd32:	0f b6 05 47 7d 00 00 	movzbl 0x7d47(%rip),%eax        # 17a80 <g_2489>
    fd39:	0f b6 c0             	movzbl %al,%eax
    fd3c:	8b 55 fc             	mov    -0x4(%rbp),%edx
    fd3f:	48 8d 35 3c 47 00 00 	lea    0x473c(%rip),%rsi        # 14482 <g_1312+0x1aa2>
    fd46:	48 89 c7             	mov    %rax,%rdi
    fd49:	e8 a5 69 ff ff       	callq  66f3 <transparent_crc>
    fd4e:	0f b7 05 2c 7d 00 00 	movzwl 0x7d2c(%rip),%eax        # 17a81 <g_2489+0x1>
    fd55:	0f b7 c0             	movzwl %ax,%eax
    fd58:	8b 55 fc             	mov    -0x4(%rbp),%edx
    fd5b:	48 8d 35 2a 47 00 00 	lea    0x472a(%rip),%rsi        # 1448c <g_1312+0x1aac>
    fd62:	48 89 c7             	mov    %rax,%rdi
    fd65:	e8 89 69 ff ff       	callq  66f3 <transparent_crc>
    fd6a:	8b 05 13 7d 00 00    	mov    0x7d13(%rip),%eax        # 17a83 <g_2489+0x3>
    fd70:	89 c1                	mov    %eax,%ecx
    fd72:	8b 45 fc             	mov    -0x4(%rbp),%eax
    fd75:	89 c2                	mov    %eax,%edx
    fd77:	48 8d 35 18 47 00 00 	lea    0x4718(%rip),%rsi        # 14496 <g_1312+0x1ab6>
    fd7e:	48 89 cf             	mov    %rcx,%rdi
    fd81:	e8 6d 69 ff ff       	callq  66f3 <transparent_crc>
    fd86:	48 8b 05 fa 7c 00 00 	mov    0x7cfa(%rip),%rax        # 17a87 <g_2489+0x7>
    fd8d:	8b 55 fc             	mov    -0x4(%rbp),%edx
    fd90:	48 8d 35 09 47 00 00 	lea    0x4709(%rip),%rsi        # 144a0 <g_1312+0x1ac0>
    fd97:	48 89 c7             	mov    %rax,%rdi
    fd9a:	e8 54 69 ff ff       	callq  66f3 <transparent_crc>
    fd9f:	0f b6 05 e9 7c 00 00 	movzbl 0x7ce9(%rip),%eax        # 17a8f <g_2489+0xf>
    fda6:	c1 e0 06             	shl    $0x6,%eax
    fda9:	c0 f8 06             	sar    $0x6,%al
    fdac:	48 0f be c0          	movsbq %al,%rax
    fdb0:	8b 55 fc             	mov    -0x4(%rbp),%edx
    fdb3:	48 8d 35 f0 46 00 00 	lea    0x46f0(%rip),%rsi        # 144aa <g_1312+0x1aca>
    fdba:	48 89 c7             	mov    %rax,%rdi
    fdbd:	e8 31 69 ff ff       	callq  66f3 <transparent_crc>
    fdc2:	0f b6 05 c7 7c 00 00 	movzbl 0x7cc7(%rip),%eax        # 17a90 <g_2489+0x10>
    fdc9:	48 0f be c0          	movsbq %al,%rax
    fdcd:	8b 55 fc             	mov    -0x4(%rbp),%edx
    fdd0:	48 8d 35 dd 46 00 00 	lea    0x46dd(%rip),%rsi        # 144b4 <g_1312+0x1ad4>
    fdd7:	48 89 c7             	mov    %rax,%rdi
    fdda:	e8 14 69 ff ff       	callq  66f3 <transparent_crc>
    fddf:	0f b6 05 ab 7c 00 00 	movzbl 0x7cab(%rip),%eax        # 17a91 <g_2489+0x11>
    fde6:	48 0f be c0          	movsbq %al,%rax
    fdea:	8b 55 fc             	mov    -0x4(%rbp),%edx
    fded:	48 8d 35 ca 46 00 00 	lea    0x46ca(%rip),%rsi        # 144be <g_1312+0x1ade>
    fdf4:	48 89 c7             	mov    %rax,%rdi
    fdf7:	e8 f7 68 ff ff       	callq  66f3 <transparent_crc>
    fdfc:	48 8b 05 8f 7c 00 00 	mov    0x7c8f(%rip),%rax        # 17a92 <g_2489+0x12>
    fe03:	8b 55 fc             	mov    -0x4(%rbp),%edx
    fe06:	48 8d 35 bb 46 00 00 	lea    0x46bb(%rip),%rsi        # 144c8 <g_1312+0x1ae8>
    fe0d:	48 89 c7             	mov    %rax,%rdi
    fe10:	e8 de 68 ff ff       	callq  66f3 <transparent_crc>
    fe15:	8b 05 81 7c 00 00    	mov    0x7c81(%rip),%eax        # 17a9c <g_2524>
    fe1b:	89 c1                	mov    %eax,%ecx
    fe1d:	8b 45 fc             	mov    -0x4(%rbp),%eax
    fe20:	89 c2                	mov    %eax,%edx
    fe22:	48 8d 35 a9 46 00 00 	lea    0x46a9(%rip),%rsi        # 144d2 <g_1312+0x1af2>
    fe29:	48 89 cf             	mov    %rcx,%rdi
    fe2c:	e8 c2 68 ff ff       	callq  66f3 <transparent_crc>
    fe31:	8b 05 e9 71 00 00    	mov    0x71e9(%rip),%eax        # 17020 <crc32_context>
    fe37:	f7 d0                	not    %eax
    fe39:	89 c2                	mov    %eax,%edx
    fe3b:	8b 45 fc             	mov    -0x4(%rbp),%eax
    fe3e:	89 c6                	mov    %eax,%esi
    fe40:	89 d7                	mov    %edx,%edi
    fe42:	e8 4d 53 ff ff       	callq  5194 <platform_main_end>
    fe47:	b8 00 00 00 00       	mov    $0x0,%eax
    fe4c:	c9                   	leaveq 
    fe4d:	c3                   	retq   
    fe4e:	66 90                	xchg   %ax,%ax

000000000000fe50 <__libc_csu_init>:
    fe50:	f3 0f 1e fa          	endbr64 
    fe54:	41 57                	push   %r15
    fe56:	4c 8d 3d d3 6e 00 00 	lea    0x6ed3(%rip),%r15        # 16d30 <__frame_dummy_init_array_entry>
    fe5d:	41 56                	push   %r14
    fe5f:	49 89 d6             	mov    %rdx,%r14
    fe62:	41 55                	push   %r13
    fe64:	49 89 f5             	mov    %rsi,%r13
    fe67:	41 54                	push   %r12
    fe69:	41 89 fc             	mov    %edi,%r12d
    fe6c:	55                   	push   %rbp
    fe6d:	48 8d 2d c4 6e 00 00 	lea    0x6ec4(%rip),%rbp        # 16d38 <__do_global_dtors_aux_fini_array_entry>
    fe74:	53                   	push   %rbx
    fe75:	4c 29 fd             	sub    %r15,%rbp
    fe78:	48 83 ec 08          	sub    $0x8,%rsp
    fe7c:	e8 7f 51 ff ff       	callq  5000 <_init>
    fe81:	48 c1 fd 03          	sar    $0x3,%rbp
    fe85:	74 1f                	je     fea6 <__libc_csu_init+0x56>
    fe87:	31 db                	xor    %ebx,%ebx
    fe89:	0f 1f 80 00 00 00 00 	nopl   0x0(%rax)
    fe90:	4c 89 f2             	mov    %r14,%rdx
    fe93:	4c 89 ee             	mov    %r13,%rsi
    fe96:	44 89 e7             	mov    %r12d,%edi
    fe99:	41 ff 14 df          	callq  *(%r15,%rbx,8)
    fe9d:	48 83 c3 01          	add    $0x1,%rbx
    fea1:	48 39 dd             	cmp    %rbx,%rbp
    fea4:	75 ea                	jne    fe90 <__libc_csu_init+0x40>
    fea6:	48 83 c4 08          	add    $0x8,%rsp
    feaa:	5b                   	pop    %rbx
    feab:	5d                   	pop    %rbp
    feac:	41 5c                	pop    %r12
    feae:	41 5d                	pop    %r13
    feb0:	41 5e                	pop    %r14
    feb2:	41 5f                	pop    %r15
    feb4:	c3                   	retq   
    feb5:	66 66 2e 0f 1f 84 00 	data16 nopw %cs:0x0(%rax,%rax,1)
    febc:	00 00 00 00 

000000000000fec0 <__libc_csu_fini>:
    fec0:	f3 0f 1e fa          	endbr64 
    fec4:	c3                   	retq   
