


Disassembly of section .text:

00000000000060a0 <_start>:
    60a0:	f3 0f 1e fa          	endbr64 
    60a4:	31 ed                	xor    %ebp,%ebp
    60a6:	49 89 d1             	mov    %rdx,%r9
    60a9:	5e                   	pop    %rsi
    60aa:	48 89 e2             	mov    %rsp,%rdx
    60ad:	48 83 e4 f0          	and    $0xfffffffffffffff0,%rsp
    60b1:	50                   	push   %rax
    60b2:	54                   	push   %rsp
    60b3:	4c 8d 05 66 bb 00 00 	lea    0xbb66(%rip),%r8        # 11c20 <__libc_csu_fini>
    60ba:	48 8d 0d ef ba 00 00 	lea    0xbaef(%rip),%rcx        # 11bb0 <__libc_csu_init>
    60c1:	48 8d 3d ec b1 00 00 	lea    0xb1ec(%rip),%rdi        # 112b4 <main>
    60c8:	ff 15 0a 0f 01 00    	callq  *0x10f0a(%rip)        # 16fd8 <__libc_start_main@GLIBC_2.2.5>
    60ce:	f4                   	hlt    
    60cf:	90                   	nop

00000000000060d0 <deregister_tm_clones>:
    60d0:	48 8d 3d e1 33 01 00 	lea    0x133e1(%rip),%rdi        # 194b8 <__TMC_END__>
    60d7:	48 8d 05 da 33 01 00 	lea    0x133da(%rip),%rax        # 194b8 <__TMC_END__>
    60de:	48 39 f8             	cmp    %rdi,%rax
    60e1:	74 15                	je     60f8 <deregister_tm_clones+0x28>
    60e3:	48 8b 05 e6 0e 01 00 	mov    0x10ee6(%rip),%rax        # 16fd0 <_ITM_deregisterTMCloneTable>
    60ea:	48 85 c0             	test   %rax,%rax
    60ed:	74 09                	je     60f8 <deregister_tm_clones+0x28>
    60ef:	ff e0                	jmpq   *%rax
    60f1:	0f 1f 80 00 00 00 00 	nopl   0x0(%rax)
    60f8:	c3                   	retq   
    60f9:	0f 1f 80 00 00 00 00 	nopl   0x0(%rax)

0000000000006100 <register_tm_clones>:
    6100:	48 8d 3d b1 33 01 00 	lea    0x133b1(%rip),%rdi        # 194b8 <__TMC_END__>
    6107:	48 8d 35 aa 33 01 00 	lea    0x133aa(%rip),%rsi        # 194b8 <__TMC_END__>
    610e:	48 29 fe             	sub    %rdi,%rsi
    6111:	48 89 f0             	mov    %rsi,%rax
    6114:	48 c1 ee 3f          	shr    $0x3f,%rsi
    6118:	48 c1 f8 03          	sar    $0x3,%rax
    611c:	48 01 c6             	add    %rax,%rsi
    611f:	48 d1 fe             	sar    %rsi
    6122:	74 14                	je     6138 <register_tm_clones+0x38>
    6124:	48 8b 05 bd 0e 01 00 	mov    0x10ebd(%rip),%rax        # 16fe8 <_ITM_registerTMCloneTable>
    612b:	48 85 c0             	test   %rax,%rax
    612e:	74 08                	je     6138 <register_tm_clones+0x38>
    6130:	ff e0                	jmpq   *%rax
    6132:	66 0f 1f 44 00 00    	nopw   0x0(%rax,%rax,1)
    6138:	c3                   	retq   
    6139:	0f 1f 80 00 00 00 00 	nopl   0x0(%rax)

0000000000006140 <__do_global_dtors_aux>:
    6140:	f3 0f 1e fa          	endbr64 
    6144:	80 3d 75 33 01 00 00 	cmpb   $0x0,0x13375(%rip)        # 194c0 <completed.8061>
    614b:	75 2b                	jne    6178 <__do_global_dtors_aux+0x38>
    614d:	55                   	push   %rbp
    614e:	48 83 3d 9a 0e 01 00 	cmpq   $0x0,0x10e9a(%rip)        # 16ff0 <__cxa_finalize@GLIBC_2.2.5>
    6155:	00 
    6156:	48 89 e5             	mov    %rsp,%rbp
    6159:	74 0c                	je     6167 <__do_global_dtors_aux+0x27>
    615b:	48 8b 3d a6 0e 01 00 	mov    0x10ea6(%rip),%rdi        # 17008 <__dso_handle>
    6162:	e8 f9 fe ff ff       	callq  6060 <__cxa_finalize@plt>
    6167:	e8 64 ff ff ff       	callq  60d0 <deregister_tm_clones>
    616c:	c6 05 4d 33 01 00 01 	movb   $0x1,0x1334d(%rip)        # 194c0 <completed.8061>
    6173:	5d                   	pop    %rbp
    6174:	c3                   	retq   
    6175:	0f 1f 00             	nopl   (%rax)
    6178:	c3                   	retq   
    6179:	0f 1f 80 00 00 00 00 	nopl   0x0(%rax)

0000000000006180 <frame_dummy>:
    6180:	f3 0f 1e fa          	endbr64 
    6184:	e9 77 ff ff ff       	jmpq   6100 <register_tm_clones>

0000000000006189 <platform_main_begin>:
    6189:	f3 0f 1e fa          	endbr64 
    618d:	55                   	push   %rbp
    618e:	48 89 e5             	mov    %rsp,%rbp
    6191:	90                   	nop
    6192:	5d                   	pop    %rbp
    6193:	c3                   	retq   

0000000000006194 <platform_main_end>:
    6194:	f3 0f 1e fa          	endbr64 
    6198:	55                   	push   %rbp
    6199:	48 89 e5             	mov    %rsp,%rbp
    619c:	48 83 ec 10          	sub    $0x10,%rsp
    61a0:	89 7d fc             	mov    %edi,-0x4(%rbp)
    61a3:	89 75 f8             	mov    %esi,-0x8(%rbp)
    61a6:	8b 45 fc             	mov    -0x4(%rbp),%eax
    61a9:	89 c6                	mov    %eax,%esi
    61ab:	48 8d 3d 6e be 00 00 	lea    0xbe6e(%rip),%rdi        # 12020 <_IO_stdin_used+0x20>
    61b2:	b8 00 00 00 00       	mov    $0x0,%eax
    61b7:	e8 c4 fe ff ff       	callq  6080 <printf@plt>
    61bc:	90                   	nop
    61bd:	c9                   	leaveq 
    61be:	c3                   	retq   

00000000000061bf <safe_unary_minus_func_int8_t_s>:
    61bf:	f3 0f 1e fa          	endbr64 
    61c3:	55                   	push   %rbp
    61c4:	48 89 e5             	mov    %rsp,%rbp
    61c7:	89 f8                	mov    %edi,%eax
    61c9:	88 45 fc             	mov    %al,-0x4(%rbp)
    61cc:	0f b6 45 fc          	movzbl -0x4(%rbp),%eax
    61d0:	f7 d8                	neg    %eax
    61d2:	5d                   	pop    %rbp
    61d3:	c3                   	retq   

00000000000061d4 <safe_add_func_int8_t_s_s>:
    61d4:	f3 0f 1e fa          	endbr64 
    61d8:	55                   	push   %rbp
    61d9:	48 89 e5             	mov    %rsp,%rbp
    61dc:	89 fa                	mov    %edi,%edx
    61de:	89 f0                	mov    %esi,%eax
    61e0:	88 55 fc             	mov    %dl,-0x4(%rbp)
    61e3:	88 45 f8             	mov    %al,-0x8(%rbp)
    61e6:	0f b6 55 fc          	movzbl -0x4(%rbp),%edx
    61ea:	0f b6 45 f8          	movzbl -0x8(%rbp),%eax
    61ee:	01 d0                	add    %edx,%eax
    61f0:	5d                   	pop    %rbp
    61f1:	c3                   	retq   

00000000000061f2 <safe_sub_func_int8_t_s_s>:
    61f2:	f3 0f 1e fa          	endbr64 
    61f6:	55                   	push   %rbp
    61f7:	48 89 e5             	mov    %rsp,%rbp
    61fa:	89 fa                	mov    %edi,%edx
    61fc:	89 f0                	mov    %esi,%eax
    61fe:	88 55 fc             	mov    %dl,-0x4(%rbp)
    6201:	88 45 f8             	mov    %al,-0x8(%rbp)
    6204:	0f b6 55 fc          	movzbl -0x4(%rbp),%edx
    6208:	0f b6 45 f8          	movzbl -0x8(%rbp),%eax
    620c:	29 c2                	sub    %eax,%edx
    620e:	89 d0                	mov    %edx,%eax
    6210:	5d                   	pop    %rbp
    6211:	c3                   	retq   

0000000000006212 <safe_mul_func_int8_t_s_s>:
    6212:	f3 0f 1e fa          	endbr64 
    6216:	55                   	push   %rbp
    6217:	48 89 e5             	mov    %rsp,%rbp
    621a:	89 fa                	mov    %edi,%edx
    621c:	89 f0                	mov    %esi,%eax
    621e:	88 55 fc             	mov    %dl,-0x4(%rbp)
    6221:	88 45 f8             	mov    %al,-0x8(%rbp)
    6224:	0f b6 45 fc          	movzbl -0x4(%rbp),%eax
    6228:	0f b6 55 f8          	movzbl -0x8(%rbp),%edx
    622c:	0f af c2             	imul   %edx,%eax
    622f:	5d                   	pop    %rbp
    6230:	c3                   	retq   

0000000000006231 <safe_mod_func_int8_t_s_s>:
    6231:	f3 0f 1e fa          	endbr64 
    6235:	55                   	push   %rbp
    6236:	48 89 e5             	mov    %rsp,%rbp
    6239:	89 fa                	mov    %edi,%edx
    623b:	89 f0                	mov    %esi,%eax
    623d:	88 55 fc             	mov    %dl,-0x4(%rbp)
    6240:	88 45 f8             	mov    %al,-0x8(%rbp)
    6243:	80 7d f8 00          	cmpb   $0x0,-0x8(%rbp)
    6247:	74 1b                	je     6264 <safe_mod_func_int8_t_s_s+0x33>
    6249:	80 7d fc 80          	cmpb   $0x80,-0x4(%rbp)
    624d:	75 06                	jne    6255 <safe_mod_func_int8_t_s_s+0x24>
    624f:	80 7d f8 ff          	cmpb   $0xff,-0x8(%rbp)
    6253:	74 0f                	je     6264 <safe_mod_func_int8_t_s_s+0x33>
    6255:	0f be 45 fc          	movsbl -0x4(%rbp),%eax
    6259:	0f be 4d f8          	movsbl -0x8(%rbp),%ecx
    625d:	99                   	cltd   
    625e:	f7 f9                	idiv   %ecx
    6260:	89 d0                	mov    %edx,%eax
    6262:	eb 04                	jmp    6268 <safe_mod_func_int8_t_s_s+0x37>
    6264:	0f b6 45 fc          	movzbl -0x4(%rbp),%eax
    6268:	5d                   	pop    %rbp
    6269:	c3                   	retq   

000000000000626a <safe_div_func_int8_t_s_s>:
    626a:	f3 0f 1e fa          	endbr64 
    626e:	55                   	push   %rbp
    626f:	48 89 e5             	mov    %rsp,%rbp
    6272:	89 fa                	mov    %edi,%edx
    6274:	89 f0                	mov    %esi,%eax
    6276:	88 55 fc             	mov    %dl,-0x4(%rbp)
    6279:	88 45 f8             	mov    %al,-0x8(%rbp)
    627c:	80 7d f8 00          	cmpb   $0x0,-0x8(%rbp)
    6280:	74 19                	je     629b <safe_div_func_int8_t_s_s+0x31>
    6282:	80 7d fc 80          	cmpb   $0x80,-0x4(%rbp)
    6286:	75 06                	jne    628e <safe_div_func_int8_t_s_s+0x24>
    6288:	80 7d f8 ff          	cmpb   $0xff,-0x8(%rbp)
    628c:	74 0d                	je     629b <safe_div_func_int8_t_s_s+0x31>
    628e:	0f be 45 fc          	movsbl -0x4(%rbp),%eax
    6292:	0f be 4d f8          	movsbl -0x8(%rbp),%ecx
    6296:	99                   	cltd   
    6297:	f7 f9                	idiv   %ecx
    6299:	eb 04                	jmp    629f <safe_div_func_int8_t_s_s+0x35>
    629b:	0f b6 45 fc          	movzbl -0x4(%rbp),%eax
    629f:	5d                   	pop    %rbp
    62a0:	c3                   	retq   

00000000000062a1 <safe_lshift_func_int8_t_s_s>:
    62a1:	f3 0f 1e fa          	endbr64 
    62a5:	55                   	push   %rbp
    62a6:	48 89 e5             	mov    %rsp,%rbp
    62a9:	89 f8                	mov    %edi,%eax
    62ab:	89 75 f8             	mov    %esi,-0x8(%rbp)
    62ae:	88 45 fc             	mov    %al,-0x4(%rbp)
    62b1:	80 7d fc 00          	cmpb   $0x0,-0x4(%rbp)
    62b5:	78 31                	js     62e8 <safe_lshift_func_int8_t_s_s+0x47>
    62b7:	83 7d f8 00          	cmpl   $0x0,-0x8(%rbp)
    62bb:	78 2b                	js     62e8 <safe_lshift_func_int8_t_s_s+0x47>
    62bd:	83 7d f8 1f          	cmpl   $0x1f,-0x8(%rbp)
    62c1:	7f 25                	jg     62e8 <safe_lshift_func_int8_t_s_s+0x47>
    62c3:	0f be 55 fc          	movsbl -0x4(%rbp),%edx
    62c7:	8b 45 f8             	mov    -0x8(%rbp),%eax
    62ca:	be 7f 00 00 00       	mov    $0x7f,%esi
    62cf:	89 c1                	mov    %eax,%ecx
    62d1:	d3 fe                	sar    %cl,%esi
    62d3:	89 f0                	mov    %esi,%eax
    62d5:	39 c2                	cmp    %eax,%edx
    62d7:	7f 0f                	jg     62e8 <safe_lshift_func_int8_t_s_s+0x47>
    62d9:	0f be 55 fc          	movsbl -0x4(%rbp),%edx
    62dd:	8b 45 f8             	mov    -0x8(%rbp),%eax
    62e0:	89 c1                	mov    %eax,%ecx
    62e2:	d3 e2                	shl    %cl,%edx
    62e4:	89 d0                	mov    %edx,%eax
    62e6:	eb 04                	jmp    62ec <safe_lshift_func_int8_t_s_s+0x4b>
    62e8:	0f b6 45 fc          	movzbl -0x4(%rbp),%eax
    62ec:	5d                   	pop    %rbp
    62ed:	c3                   	retq   

00000000000062ee <safe_lshift_func_int8_t_s_u>:
    62ee:	f3 0f 1e fa          	endbr64 
    62f2:	55                   	push   %rbp
    62f3:	48 89 e5             	mov    %rsp,%rbp
    62f6:	89 f8                	mov    %edi,%eax
    62f8:	89 75 f8             	mov    %esi,-0x8(%rbp)
    62fb:	88 45 fc             	mov    %al,-0x4(%rbp)
    62fe:	80 7d fc 00          	cmpb   $0x0,-0x4(%rbp)
    6302:	78 2b                	js     632f <safe_lshift_func_int8_t_s_u+0x41>
    6304:	83 7d f8 1f          	cmpl   $0x1f,-0x8(%rbp)
    6308:	77 25                	ja     632f <safe_lshift_func_int8_t_s_u+0x41>
    630a:	0f be 55 fc          	movsbl -0x4(%rbp),%edx
    630e:	8b 45 f8             	mov    -0x8(%rbp),%eax
    6311:	be 7f 00 00 00       	mov    $0x7f,%esi
    6316:	89 c1                	mov    %eax,%ecx
    6318:	d3 fe                	sar    %cl,%esi
    631a:	89 f0                	mov    %esi,%eax
    631c:	39 c2                	cmp    %eax,%edx
    631e:	7f 0f                	jg     632f <safe_lshift_func_int8_t_s_u+0x41>
    6320:	0f be 55 fc          	movsbl -0x4(%rbp),%edx
    6324:	8b 45 f8             	mov    -0x8(%rbp),%eax
    6327:	89 c1                	mov    %eax,%ecx
    6329:	d3 e2                	shl    %cl,%edx
    632b:	89 d0                	mov    %edx,%eax
    632d:	eb 04                	jmp    6333 <safe_lshift_func_int8_t_s_u+0x45>
    632f:	0f b6 45 fc          	movzbl -0x4(%rbp),%eax
    6333:	5d                   	pop    %rbp
    6334:	c3                   	retq   

0000000000006335 <safe_rshift_func_int8_t_s_s>:
    6335:	f3 0f 1e fa          	endbr64 
    6339:	55                   	push   %rbp
    633a:	48 89 e5             	mov    %rsp,%rbp
    633d:	89 f8                	mov    %edi,%eax
    633f:	89 75 f8             	mov    %esi,-0x8(%rbp)
    6342:	88 45 fc             	mov    %al,-0x4(%rbp)
    6345:	80 7d fc 00          	cmpb   $0x0,-0x4(%rbp)
    6349:	78 1b                	js     6366 <safe_rshift_func_int8_t_s_s+0x31>
    634b:	83 7d f8 00          	cmpl   $0x0,-0x8(%rbp)
    634f:	78 15                	js     6366 <safe_rshift_func_int8_t_s_s+0x31>
    6351:	83 7d f8 1f          	cmpl   $0x1f,-0x8(%rbp)
    6355:	7f 0f                	jg     6366 <safe_rshift_func_int8_t_s_s+0x31>
    6357:	0f be 55 fc          	movsbl -0x4(%rbp),%edx
    635b:	8b 45 f8             	mov    -0x8(%rbp),%eax
    635e:	89 c1                	mov    %eax,%ecx
    6360:	d3 fa                	sar    %cl,%edx
    6362:	89 d0                	mov    %edx,%eax
    6364:	eb 04                	jmp    636a <safe_rshift_func_int8_t_s_s+0x35>
    6366:	0f b6 45 fc          	movzbl -0x4(%rbp),%eax
    636a:	5d                   	pop    %rbp
    636b:	c3                   	retq   

000000000000636c <safe_rshift_func_int8_t_s_u>:
    636c:	f3 0f 1e fa          	endbr64 
    6370:	55                   	push   %rbp
    6371:	48 89 e5             	mov    %rsp,%rbp
    6374:	89 f8                	mov    %edi,%eax
    6376:	89 75 f8             	mov    %esi,-0x8(%rbp)
    6379:	88 45 fc             	mov    %al,-0x4(%rbp)
    637c:	80 7d fc 00          	cmpb   $0x0,-0x4(%rbp)
    6380:	78 15                	js     6397 <safe_rshift_func_int8_t_s_u+0x2b>
    6382:	83 7d f8 1f          	cmpl   $0x1f,-0x8(%rbp)
    6386:	77 0f                	ja     6397 <safe_rshift_func_int8_t_s_u+0x2b>
    6388:	0f be 55 fc          	movsbl -0x4(%rbp),%edx
    638c:	8b 45 f8             	mov    -0x8(%rbp),%eax
    638f:	89 c1                	mov    %eax,%ecx
    6391:	d3 fa                	sar    %cl,%edx
    6393:	89 d0                	mov    %edx,%eax
    6395:	eb 04                	jmp    639b <safe_rshift_func_int8_t_s_u+0x2f>
    6397:	0f b6 45 fc          	movzbl -0x4(%rbp),%eax
    639b:	5d                   	pop    %rbp
    639c:	c3                   	retq   

000000000000639d <safe_unary_minus_func_int16_t_s>:
    639d:	f3 0f 1e fa          	endbr64 
    63a1:	55                   	push   %rbp
    63a2:	48 89 e5             	mov    %rsp,%rbp
    63a5:	89 f8                	mov    %edi,%eax
    63a7:	66 89 45 fc          	mov    %ax,-0x4(%rbp)
    63ab:	0f b7 45 fc          	movzwl -0x4(%rbp),%eax
    63af:	f7 d8                	neg    %eax
    63b1:	5d                   	pop    %rbp
    63b2:	c3                   	retq   

00000000000063b3 <safe_add_func_int16_t_s_s>:
    63b3:	f3 0f 1e fa          	endbr64 
    63b7:	55                   	push   %rbp
    63b8:	48 89 e5             	mov    %rsp,%rbp
    63bb:	89 fa                	mov    %edi,%edx
    63bd:	89 f0                	mov    %esi,%eax
    63bf:	66 89 55 fc          	mov    %dx,-0x4(%rbp)
    63c3:	66 89 45 f8          	mov    %ax,-0x8(%rbp)
    63c7:	0f b7 55 fc          	movzwl -0x4(%rbp),%edx
    63cb:	0f b7 45 f8          	movzwl -0x8(%rbp),%eax
    63cf:	01 d0                	add    %edx,%eax
    63d1:	5d                   	pop    %rbp
    63d2:	c3                   	retq   

00000000000063d3 <safe_sub_func_int16_t_s_s>:
    63d3:	f3 0f 1e fa          	endbr64 
    63d7:	55                   	push   %rbp
    63d8:	48 89 e5             	mov    %rsp,%rbp
    63db:	89 fa                	mov    %edi,%edx
    63dd:	89 f0                	mov    %esi,%eax
    63df:	66 89 55 fc          	mov    %dx,-0x4(%rbp)
    63e3:	66 89 45 f8          	mov    %ax,-0x8(%rbp)
    63e7:	0f b7 55 fc          	movzwl -0x4(%rbp),%edx
    63eb:	0f b7 45 f8          	movzwl -0x8(%rbp),%eax
    63ef:	29 c2                	sub    %eax,%edx
    63f1:	89 d0                	mov    %edx,%eax
    63f3:	5d                   	pop    %rbp
    63f4:	c3                   	retq   

00000000000063f5 <safe_mul_func_int16_t_s_s>:
    63f5:	f3 0f 1e fa          	endbr64 
    63f9:	55                   	push   %rbp
    63fa:	48 89 e5             	mov    %rsp,%rbp
    63fd:	89 fa                	mov    %edi,%edx
    63ff:	89 f0                	mov    %esi,%eax
    6401:	66 89 55 fc          	mov    %dx,-0x4(%rbp)
    6405:	66 89 45 f8          	mov    %ax,-0x8(%rbp)
    6409:	0f b7 55 fc          	movzwl -0x4(%rbp),%edx
    640d:	0f b7 45 f8          	movzwl -0x8(%rbp),%eax
    6411:	0f af c2             	imul   %edx,%eax
    6414:	5d                   	pop    %rbp
    6415:	c3                   	retq   

0000000000006416 <safe_mod_func_int16_t_s_s>:
    6416:	f3 0f 1e fa          	endbr64 
    641a:	55                   	push   %rbp
    641b:	48 89 e5             	mov    %rsp,%rbp
    641e:	89 fa                	mov    %edi,%edx
    6420:	89 f0                	mov    %esi,%eax
    6422:	66 89 55 fc          	mov    %dx,-0x4(%rbp)
    6426:	66 89 45 f8          	mov    %ax,-0x8(%rbp)
    642a:	66 83 7d f8 00       	cmpw   $0x0,-0x8(%rbp)
    642f:	74 1e                	je     644f <safe_mod_func_int16_t_s_s+0x39>
    6431:	66 81 7d fc 00 80    	cmpw   $0x8000,-0x4(%rbp)
    6437:	75 07                	jne    6440 <safe_mod_func_int16_t_s_s+0x2a>
    6439:	66 83 7d f8 ff       	cmpw   $0xffff,-0x8(%rbp)
    643e:	74 0f                	je     644f <safe_mod_func_int16_t_s_s+0x39>
    6440:	0f bf 45 fc          	movswl -0x4(%rbp),%eax
    6444:	0f bf 4d f8          	movswl -0x8(%rbp),%ecx
    6448:	99                   	cltd   
    6449:	f7 f9                	idiv   %ecx
    644b:	89 d0                	mov    %edx,%eax
    644d:	eb 04                	jmp    6453 <safe_mod_func_int16_t_s_s+0x3d>
    644f:	0f b7 45 fc          	movzwl -0x4(%rbp),%eax
    6453:	5d                   	pop    %rbp
    6454:	c3                   	retq   

0000000000006455 <safe_div_func_int16_t_s_s>:
    6455:	f3 0f 1e fa          	endbr64 
    6459:	55                   	push   %rbp
    645a:	48 89 e5             	mov    %rsp,%rbp
    645d:	89 fa                	mov    %edi,%edx
    645f:	89 f0                	mov    %esi,%eax
    6461:	66 89 55 fc          	mov    %dx,-0x4(%rbp)
    6465:	66 89 45 f8          	mov    %ax,-0x8(%rbp)
    6469:	66 83 7d f8 00       	cmpw   $0x0,-0x8(%rbp)
    646e:	74 1c                	je     648c <safe_div_func_int16_t_s_s+0x37>
    6470:	66 81 7d fc 00 80    	cmpw   $0x8000,-0x4(%rbp)
    6476:	75 07                	jne    647f <safe_div_func_int16_t_s_s+0x2a>
    6478:	66 83 7d f8 ff       	cmpw   $0xffff,-0x8(%rbp)
    647d:	74 0d                	je     648c <safe_div_func_int16_t_s_s+0x37>
    647f:	0f bf 45 fc          	movswl -0x4(%rbp),%eax
    6483:	0f bf 4d f8          	movswl -0x8(%rbp),%ecx
    6487:	99                   	cltd   
    6488:	f7 f9                	idiv   %ecx
    648a:	eb 04                	jmp    6490 <safe_div_func_int16_t_s_s+0x3b>
    648c:	0f b7 45 fc          	movzwl -0x4(%rbp),%eax
    6490:	5d                   	pop    %rbp
    6491:	c3                   	retq   

0000000000006492 <safe_lshift_func_int16_t_s_s>:
    6492:	f3 0f 1e fa          	endbr64 
    6496:	55                   	push   %rbp
    6497:	48 89 e5             	mov    %rsp,%rbp
    649a:	89 f8                	mov    %edi,%eax
    649c:	89 75 f8             	mov    %esi,-0x8(%rbp)
    649f:	66 89 45 fc          	mov    %ax,-0x4(%rbp)
    64a3:	66 83 7d fc 00       	cmpw   $0x0,-0x4(%rbp)
    64a8:	78 31                	js     64db <safe_lshift_func_int16_t_s_s+0x49>
    64aa:	83 7d f8 00          	cmpl   $0x0,-0x8(%rbp)
    64ae:	78 2b                	js     64db <safe_lshift_func_int16_t_s_s+0x49>
    64b0:	83 7d f8 1f          	cmpl   $0x1f,-0x8(%rbp)
    64b4:	7f 25                	jg     64db <safe_lshift_func_int16_t_s_s+0x49>
    64b6:	0f bf 55 fc          	movswl -0x4(%rbp),%edx
    64ba:	8b 45 f8             	mov    -0x8(%rbp),%eax
    64bd:	be ff 7f 00 00       	mov    $0x7fff,%esi
    64c2:	89 c1                	mov    %eax,%ecx
    64c4:	d3 fe                	sar    %cl,%esi
    64c6:	89 f0                	mov    %esi,%eax
    64c8:	39 c2                	cmp    %eax,%edx
    64ca:	7f 0f                	jg     64db <safe_lshift_func_int16_t_s_s+0x49>
    64cc:	0f bf 55 fc          	movswl -0x4(%rbp),%edx
    64d0:	8b 45 f8             	mov    -0x8(%rbp),%eax
    64d3:	89 c1                	mov    %eax,%ecx
    64d5:	d3 e2                	shl    %cl,%edx
    64d7:	89 d0                	mov    %edx,%eax
    64d9:	eb 04                	jmp    64df <safe_lshift_func_int16_t_s_s+0x4d>
    64db:	0f b7 45 fc          	movzwl -0x4(%rbp),%eax
    64df:	5d                   	pop    %rbp
    64e0:	c3                   	retq   

00000000000064e1 <safe_lshift_func_int16_t_s_u>:
    64e1:	f3 0f 1e fa          	endbr64 
    64e5:	55                   	push   %rbp
    64e6:	48 89 e5             	mov    %rsp,%rbp
    64e9:	89 f8                	mov    %edi,%eax
    64eb:	89 75 f8             	mov    %esi,-0x8(%rbp)
    64ee:	66 89 45 fc          	mov    %ax,-0x4(%rbp)
    64f2:	66 83 7d fc 00       	cmpw   $0x0,-0x4(%rbp)
    64f7:	78 2b                	js     6524 <safe_lshift_func_int16_t_s_u+0x43>
    64f9:	83 7d f8 1f          	cmpl   $0x1f,-0x8(%rbp)
    64fd:	77 25                	ja     6524 <safe_lshift_func_int16_t_s_u+0x43>
    64ff:	0f bf 55 fc          	movswl -0x4(%rbp),%edx
    6503:	8b 45 f8             	mov    -0x8(%rbp),%eax
    6506:	be ff 7f 00 00       	mov    $0x7fff,%esi
    650b:	89 c1                	mov    %eax,%ecx
    650d:	d3 fe                	sar    %cl,%esi
    650f:	89 f0                	mov    %esi,%eax
    6511:	39 c2                	cmp    %eax,%edx
    6513:	7f 0f                	jg     6524 <safe_lshift_func_int16_t_s_u+0x43>
    6515:	0f bf 55 fc          	movswl -0x4(%rbp),%edx
    6519:	8b 45 f8             	mov    -0x8(%rbp),%eax
    651c:	89 c1                	mov    %eax,%ecx
    651e:	d3 e2                	shl    %cl,%edx
    6520:	89 d0                	mov    %edx,%eax
    6522:	eb 04                	jmp    6528 <safe_lshift_func_int16_t_s_u+0x47>
    6524:	0f b7 45 fc          	movzwl -0x4(%rbp),%eax
    6528:	5d                   	pop    %rbp
    6529:	c3                   	retq   

000000000000652a <safe_rshift_func_int16_t_s_s>:
    652a:	f3 0f 1e fa          	endbr64 
    652e:	55                   	push   %rbp
    652f:	48 89 e5             	mov    %rsp,%rbp
    6532:	89 f8                	mov    %edi,%eax
    6534:	89 75 f8             	mov    %esi,-0x8(%rbp)
    6537:	66 89 45 fc          	mov    %ax,-0x4(%rbp)
    653b:	66 83 7d fc 00       	cmpw   $0x0,-0x4(%rbp)
    6540:	78 1b                	js     655d <safe_rshift_func_int16_t_s_s+0x33>
    6542:	83 7d f8 00          	cmpl   $0x0,-0x8(%rbp)
    6546:	78 15                	js     655d <safe_rshift_func_int16_t_s_s+0x33>
    6548:	83 7d f8 1f          	cmpl   $0x1f,-0x8(%rbp)
    654c:	7f 0f                	jg     655d <safe_rshift_func_int16_t_s_s+0x33>
    654e:	0f bf 55 fc          	movswl -0x4(%rbp),%edx
    6552:	8b 45 f8             	mov    -0x8(%rbp),%eax
    6555:	89 c1                	mov    %eax,%ecx
    6557:	d3 fa                	sar    %cl,%edx
    6559:	89 d0                	mov    %edx,%eax
    655b:	eb 04                	jmp    6561 <safe_rshift_func_int16_t_s_s+0x37>
    655d:	0f b7 45 fc          	movzwl -0x4(%rbp),%eax
    6561:	5d                   	pop    %rbp
    6562:	c3                   	retq   

0000000000006563 <safe_rshift_func_int16_t_s_u>:
    6563:	f3 0f 1e fa          	endbr64 
    6567:	55                   	push   %rbp
    6568:	48 89 e5             	mov    %rsp,%rbp
    656b:	89 f8                	mov    %edi,%eax
    656d:	89 75 f8             	mov    %esi,-0x8(%rbp)
    6570:	66 89 45 fc          	mov    %ax,-0x4(%rbp)
    6574:	66 83 7d fc 00       	cmpw   $0x0,-0x4(%rbp)
    6579:	78 15                	js     6590 <safe_rshift_func_int16_t_s_u+0x2d>
    657b:	83 7d f8 1f          	cmpl   $0x1f,-0x8(%rbp)
    657f:	77 0f                	ja     6590 <safe_rshift_func_int16_t_s_u+0x2d>
    6581:	0f bf 55 fc          	movswl -0x4(%rbp),%edx
    6585:	8b 45 f8             	mov    -0x8(%rbp),%eax
    6588:	89 c1                	mov    %eax,%ecx
    658a:	d3 fa                	sar    %cl,%edx
    658c:	89 d0                	mov    %edx,%eax
    658e:	eb 04                	jmp    6594 <safe_rshift_func_int16_t_s_u+0x31>
    6590:	0f b7 45 fc          	movzwl -0x4(%rbp),%eax
    6594:	5d                   	pop    %rbp
    6595:	c3                   	retq   

0000000000006596 <safe_unary_minus_func_int32_t_s>:
    6596:	f3 0f 1e fa          	endbr64 
    659a:	55                   	push   %rbp
    659b:	48 89 e5             	mov    %rsp,%rbp
    659e:	89 7d fc             	mov    %edi,-0x4(%rbp)
    65a1:	81 7d fc 00 00 00 80 	cmpl   $0x80000000,-0x4(%rbp)
    65a8:	74 07                	je     65b1 <safe_unary_minus_func_int32_t_s+0x1b>
    65aa:	8b 45 fc             	mov    -0x4(%rbp),%eax
    65ad:	f7 d8                	neg    %eax
    65af:	eb 03                	jmp    65b4 <safe_unary_minus_func_int32_t_s+0x1e>
    65b1:	8b 45 fc             	mov    -0x4(%rbp),%eax
    65b4:	5d                   	pop    %rbp
    65b5:	c3                   	retq   

00000000000065b6 <safe_add_func_int32_t_s_s>:
    65b6:	f3 0f 1e fa          	endbr64 
    65ba:	55                   	push   %rbp
    65bb:	48 89 e5             	mov    %rsp,%rbp
    65be:	89 7d fc             	mov    %edi,-0x4(%rbp)
    65c1:	89 75 f8             	mov    %esi,-0x8(%rbp)
    65c4:	83 7d fc 00          	cmpl   $0x0,-0x4(%rbp)
    65c8:	7e 13                	jle    65dd <safe_add_func_int32_t_s_s+0x27>
    65ca:	83 7d f8 00          	cmpl   $0x0,-0x8(%rbp)
    65ce:	7e 0d                	jle    65dd <safe_add_func_int32_t_s_s+0x27>
    65d0:	b8 ff ff ff 7f       	mov    $0x7fffffff,%eax
    65d5:	2b 45 f8             	sub    -0x8(%rbp),%eax
    65d8:	39 45 fc             	cmp    %eax,-0x4(%rbp)
    65db:	7f 23                	jg     6600 <safe_add_func_int32_t_s_s+0x4a>
    65dd:	83 7d fc 00          	cmpl   $0x0,-0x4(%rbp)
    65e1:	79 13                	jns    65f6 <safe_add_func_int32_t_s_s+0x40>
    65e3:	83 7d f8 00          	cmpl   $0x0,-0x8(%rbp)
    65e7:	79 0d                	jns    65f6 <safe_add_func_int32_t_s_s+0x40>
    65e9:	b8 00 00 00 80       	mov    $0x80000000,%eax
    65ee:	2b 45 f8             	sub    -0x8(%rbp),%eax
    65f1:	39 45 fc             	cmp    %eax,-0x4(%rbp)
    65f4:	7c 0a                	jl     6600 <safe_add_func_int32_t_s_s+0x4a>
    65f6:	8b 55 fc             	mov    -0x4(%rbp),%edx
    65f9:	8b 45 f8             	mov    -0x8(%rbp),%eax
    65fc:	01 d0                	add    %edx,%eax
    65fe:	eb 03                	jmp    6603 <safe_add_func_int32_t_s_s+0x4d>
    6600:	8b 45 fc             	mov    -0x4(%rbp),%eax
    6603:	5d                   	pop    %rbp
    6604:	c3                   	retq   

0000000000006605 <safe_sub_func_int32_t_s_s>:
    6605:	f3 0f 1e fa          	endbr64 
    6609:	55                   	push   %rbp
    660a:	48 89 e5             	mov    %rsp,%rbp
    660d:	89 7d fc             	mov    %edi,-0x4(%rbp)
    6610:	89 75 f8             	mov    %esi,-0x8(%rbp)
    6613:	8b 45 fc             	mov    -0x4(%rbp),%eax
    6616:	33 45 f8             	xor    -0x8(%rbp),%eax
    6619:	89 c2                	mov    %eax,%edx
    661b:	8b 45 fc             	mov    -0x4(%rbp),%eax
    661e:	33 45 f8             	xor    -0x8(%rbp),%eax
    6621:	25 00 00 00 80       	and    $0x80000000,%eax
    6626:	33 45 fc             	xor    -0x4(%rbp),%eax
    6629:	2b 45 f8             	sub    -0x8(%rbp),%eax
    662c:	33 45 f8             	xor    -0x8(%rbp),%eax
    662f:	21 d0                	and    %edx,%eax
    6631:	85 c0                	test   %eax,%eax
    6633:	78 08                	js     663d <safe_sub_func_int32_t_s_s+0x38>
    6635:	8b 45 fc             	mov    -0x4(%rbp),%eax
    6638:	2b 45 f8             	sub    -0x8(%rbp),%eax
    663b:	eb 03                	jmp    6640 <safe_sub_func_int32_t_s_s+0x3b>
    663d:	8b 45 fc             	mov    -0x4(%rbp),%eax
    6640:	5d                   	pop    %rbp
    6641:	c3                   	retq   

0000000000006642 <safe_mul_func_int32_t_s_s>:
    6642:	f3 0f 1e fa          	endbr64 
    6646:	55                   	push   %rbp
    6647:	48 89 e5             	mov    %rsp,%rbp
    664a:	89 7d fc             	mov    %edi,-0x4(%rbp)
    664d:	89 75 f8             	mov    %esi,-0x8(%rbp)
    6650:	83 7d fc 00          	cmpl   $0x0,-0x4(%rbp)
    6654:	7e 14                	jle    666a <safe_mul_func_int32_t_s_s+0x28>
    6656:	83 7d f8 00          	cmpl   $0x0,-0x8(%rbp)
    665a:	7e 0e                	jle    666a <safe_mul_func_int32_t_s_s+0x28>
    665c:	b8 ff ff ff 7f       	mov    $0x7fffffff,%eax
    6661:	99                   	cltd   
    6662:	f7 7d f8             	idivl  -0x8(%rbp)
    6665:	39 45 fc             	cmp    %eax,-0x4(%rbp)
    6668:	7f 5d                	jg     66c7 <safe_mul_func_int32_t_s_s+0x85>
    666a:	83 7d fc 00          	cmpl   $0x0,-0x4(%rbp)
    666e:	7e 14                	jle    6684 <safe_mul_func_int32_t_s_s+0x42>
    6670:	83 7d f8 00          	cmpl   $0x0,-0x8(%rbp)
    6674:	7f 0e                	jg     6684 <safe_mul_func_int32_t_s_s+0x42>
    6676:	b8 00 00 00 80       	mov    $0x80000000,%eax
    667b:	99                   	cltd   
    667c:	f7 7d fc             	idivl  -0x4(%rbp)
    667f:	39 45 f8             	cmp    %eax,-0x8(%rbp)
    6682:	7c 43                	jl     66c7 <safe_mul_func_int32_t_s_s+0x85>
    6684:	83 7d fc 00          	cmpl   $0x0,-0x4(%rbp)
    6688:	7f 14                	jg     669e <safe_mul_func_int32_t_s_s+0x5c>
    668a:	83 7d f8 00          	cmpl   $0x0,-0x8(%rbp)
    668e:	7e 0e                	jle    669e <safe_mul_func_int32_t_s_s+0x5c>
    6690:	b8 00 00 00 80       	mov    $0x80000000,%eax
    6695:	99                   	cltd   
    6696:	f7 7d f8             	idivl  -0x8(%rbp)
    6699:	39 45 fc             	cmp    %eax,-0x4(%rbp)
    669c:	7c 29                	jl     66c7 <safe_mul_func_int32_t_s_s+0x85>
    669e:	83 7d fc 00          	cmpl   $0x0,-0x4(%rbp)
    66a2:	7f 1a                	jg     66be <safe_mul_func_int32_t_s_s+0x7c>
    66a4:	83 7d f8 00          	cmpl   $0x0,-0x8(%rbp)
    66a8:	7f 14                	jg     66be <safe_mul_func_int32_t_s_s+0x7c>
    66aa:	83 7d fc 00          	cmpl   $0x0,-0x4(%rbp)
    66ae:	74 0e                	je     66be <safe_mul_func_int32_t_s_s+0x7c>
    66b0:	b8 ff ff ff 7f       	mov    $0x7fffffff,%eax
    66b5:	99                   	cltd   
    66b6:	f7 7d fc             	idivl  -0x4(%rbp)
    66b9:	39 45 f8             	cmp    %eax,-0x8(%rbp)
    66bc:	7c 09                	jl     66c7 <safe_mul_func_int32_t_s_s+0x85>
    66be:	8b 45 fc             	mov    -0x4(%rbp),%eax
    66c1:	0f af 45 f8          	imul   -0x8(%rbp),%eax
    66c5:	eb 03                	jmp    66ca <safe_mul_func_int32_t_s_s+0x88>
    66c7:	8b 45 fc             	mov    -0x4(%rbp),%eax
    66ca:	5d                   	pop    %rbp
    66cb:	c3                   	retq   

00000000000066cc <safe_mod_func_int32_t_s_s>:
    66cc:	f3 0f 1e fa          	endbr64 
    66d0:	55                   	push   %rbp
    66d1:	48 89 e5             	mov    %rsp,%rbp
    66d4:	89 7d fc             	mov    %edi,-0x4(%rbp)
    66d7:	89 75 f8             	mov    %esi,-0x8(%rbp)
    66da:	83 7d f8 00          	cmpl   $0x0,-0x8(%rbp)
    66de:	74 1a                	je     66fa <safe_mod_func_int32_t_s_s+0x2e>
    66e0:	81 7d fc 00 00 00 80 	cmpl   $0x80000000,-0x4(%rbp)
    66e7:	75 06                	jne    66ef <safe_mod_func_int32_t_s_s+0x23>
    66e9:	83 7d f8 ff          	cmpl   $0xffffffff,-0x8(%rbp)
    66ed:	74 0b                	je     66fa <safe_mod_func_int32_t_s_s+0x2e>
    66ef:	8b 45 fc             	mov    -0x4(%rbp),%eax
    66f2:	99                   	cltd   
    66f3:	f7 7d f8             	idivl  -0x8(%rbp)
    66f6:	89 d0                	mov    %edx,%eax
    66f8:	eb 03                	jmp    66fd <safe_mod_func_int32_t_s_s+0x31>
    66fa:	8b 45 fc             	mov    -0x4(%rbp),%eax
    66fd:	5d                   	pop    %rbp
    66fe:	c3                   	retq   

00000000000066ff <safe_div_func_int32_t_s_s>:
    66ff:	f3 0f 1e fa          	endbr64 
    6703:	55                   	push   %rbp
    6704:	48 89 e5             	mov    %rsp,%rbp
    6707:	89 7d fc             	mov    %edi,-0x4(%rbp)
    670a:	89 75 f8             	mov    %esi,-0x8(%rbp)
    670d:	83 7d f8 00          	cmpl   $0x0,-0x8(%rbp)
    6711:	74 18                	je     672b <safe_div_func_int32_t_s_s+0x2c>
    6713:	81 7d fc 00 00 00 80 	cmpl   $0x80000000,-0x4(%rbp)
    671a:	75 06                	jne    6722 <safe_div_func_int32_t_s_s+0x23>
    671c:	83 7d f8 ff          	cmpl   $0xffffffff,-0x8(%rbp)
    6720:	74 09                	je     672b <safe_div_func_int32_t_s_s+0x2c>
    6722:	8b 45 fc             	mov    -0x4(%rbp),%eax
    6725:	99                   	cltd   
    6726:	f7 7d f8             	idivl  -0x8(%rbp)
    6729:	eb 03                	jmp    672e <safe_div_func_int32_t_s_s+0x2f>
    672b:	8b 45 fc             	mov    -0x4(%rbp),%eax
    672e:	5d                   	pop    %rbp
    672f:	c3                   	retq   

0000000000006730 <safe_lshift_func_int32_t_s_s>:
    6730:	f3 0f 1e fa          	endbr64 
    6734:	55                   	push   %rbp
    6735:	48 89 e5             	mov    %rsp,%rbp
    6738:	89 7d fc             	mov    %edi,-0x4(%rbp)
    673b:	89 75 f8             	mov    %esi,-0x8(%rbp)
    673e:	83 7d fc 00          	cmpl   $0x0,-0x4(%rbp)
    6742:	78 2d                	js     6771 <safe_lshift_func_int32_t_s_s+0x41>
    6744:	83 7d f8 00          	cmpl   $0x0,-0x8(%rbp)
    6748:	78 27                	js     6771 <safe_lshift_func_int32_t_s_s+0x41>
    674a:	83 7d f8 1f          	cmpl   $0x1f,-0x8(%rbp)
    674e:	7f 21                	jg     6771 <safe_lshift_func_int32_t_s_s+0x41>
    6750:	8b 45 f8             	mov    -0x8(%rbp),%eax
    6753:	ba ff ff ff 7f       	mov    $0x7fffffff,%edx
    6758:	89 c1                	mov    %eax,%ecx
    675a:	d3 fa                	sar    %cl,%edx
    675c:	89 d0                	mov    %edx,%eax
    675e:	39 45 fc             	cmp    %eax,-0x4(%rbp)
    6761:	7f 0e                	jg     6771 <safe_lshift_func_int32_t_s_s+0x41>
    6763:	8b 45 f8             	mov    -0x8(%rbp),%eax
    6766:	8b 55 fc             	mov    -0x4(%rbp),%edx
    6769:	89 c1                	mov    %eax,%ecx
    676b:	d3 e2                	shl    %cl,%edx
    676d:	89 d0                	mov    %edx,%eax
    676f:	eb 03                	jmp    6774 <safe_lshift_func_int32_t_s_s+0x44>
    6771:	8b 45 fc             	mov    -0x4(%rbp),%eax
    6774:	5d                   	pop    %rbp
    6775:	c3                   	retq   

0000000000006776 <safe_lshift_func_int32_t_s_u>:
    6776:	f3 0f 1e fa          	endbr64 
    677a:	55                   	push   %rbp
    677b:	48 89 e5             	mov    %rsp,%rbp
    677e:	89 7d fc             	mov    %edi,-0x4(%rbp)
    6781:	89 75 f8             	mov    %esi,-0x8(%rbp)
    6784:	83 7d fc 00          	cmpl   $0x0,-0x4(%rbp)
    6788:	78 27                	js     67b1 <safe_lshift_func_int32_t_s_u+0x3b>
    678a:	83 7d f8 1f          	cmpl   $0x1f,-0x8(%rbp)
    678e:	77 21                	ja     67b1 <safe_lshift_func_int32_t_s_u+0x3b>
    6790:	8b 45 f8             	mov    -0x8(%rbp),%eax
    6793:	ba ff ff ff 7f       	mov    $0x7fffffff,%edx
    6798:	89 c1                	mov    %eax,%ecx
    679a:	d3 fa                	sar    %cl,%edx
    679c:	89 d0                	mov    %edx,%eax
    679e:	39 45 fc             	cmp    %eax,-0x4(%rbp)
    67a1:	7f 0e                	jg     67b1 <safe_lshift_func_int32_t_s_u+0x3b>
    67a3:	8b 45 f8             	mov    -0x8(%rbp),%eax
    67a6:	8b 55 fc             	mov    -0x4(%rbp),%edx
    67a9:	89 c1                	mov    %eax,%ecx
    67ab:	d3 e2                	shl    %cl,%edx
    67ad:	89 d0                	mov    %edx,%eax
    67af:	eb 03                	jmp    67b4 <safe_lshift_func_int32_t_s_u+0x3e>
    67b1:	8b 45 fc             	mov    -0x4(%rbp),%eax
    67b4:	5d                   	pop    %rbp
    67b5:	c3                   	retq   

00000000000067b6 <safe_rshift_func_int32_t_s_s>:
    67b6:	f3 0f 1e fa          	endbr64 
    67ba:	55                   	push   %rbp
    67bb:	48 89 e5             	mov    %rsp,%rbp
    67be:	89 7d fc             	mov    %edi,-0x4(%rbp)
    67c1:	89 75 f8             	mov    %esi,-0x8(%rbp)
    67c4:	83 7d fc 00          	cmpl   $0x0,-0x4(%rbp)
    67c8:	78 1a                	js     67e4 <safe_rshift_func_int32_t_s_s+0x2e>
    67ca:	83 7d f8 00          	cmpl   $0x0,-0x8(%rbp)
    67ce:	78 14                	js     67e4 <safe_rshift_func_int32_t_s_s+0x2e>
    67d0:	83 7d f8 1f          	cmpl   $0x1f,-0x8(%rbp)
    67d4:	7f 0e                	jg     67e4 <safe_rshift_func_int32_t_s_s+0x2e>
    67d6:	8b 45 f8             	mov    -0x8(%rbp),%eax
    67d9:	8b 55 fc             	mov    -0x4(%rbp),%edx
    67dc:	89 c1                	mov    %eax,%ecx
    67de:	d3 fa                	sar    %cl,%edx
    67e0:	89 d0                	mov    %edx,%eax
    67e2:	eb 03                	jmp    67e7 <safe_rshift_func_int32_t_s_s+0x31>
    67e4:	8b 45 fc             	mov    -0x4(%rbp),%eax
    67e7:	5d                   	pop    %rbp
    67e8:	c3                   	retq   

00000000000067e9 <safe_rshift_func_int32_t_s_u>:
    67e9:	f3 0f 1e fa          	endbr64 
    67ed:	55                   	push   %rbp
    67ee:	48 89 e5             	mov    %rsp,%rbp
    67f1:	89 7d fc             	mov    %edi,-0x4(%rbp)
    67f4:	89 75 f8             	mov    %esi,-0x8(%rbp)
    67f7:	83 7d fc 00          	cmpl   $0x0,-0x4(%rbp)
    67fb:	78 14                	js     6811 <safe_rshift_func_int32_t_s_u+0x28>
    67fd:	83 7d f8 1f          	cmpl   $0x1f,-0x8(%rbp)
    6801:	77 0e                	ja     6811 <safe_rshift_func_int32_t_s_u+0x28>
    6803:	8b 45 f8             	mov    -0x8(%rbp),%eax
    6806:	8b 55 fc             	mov    -0x4(%rbp),%edx
    6809:	89 c1                	mov    %eax,%ecx
    680b:	d3 fa                	sar    %cl,%edx
    680d:	89 d0                	mov    %edx,%eax
    680f:	eb 03                	jmp    6814 <safe_rshift_func_int32_t_s_u+0x2b>
    6811:	8b 45 fc             	mov    -0x4(%rbp),%eax
    6814:	5d                   	pop    %rbp
    6815:	c3                   	retq   

0000000000006816 <safe_unary_minus_func_int64_t_s>:
    6816:	f3 0f 1e fa          	endbr64 
    681a:	55                   	push   %rbp
    681b:	48 89 e5             	mov    %rsp,%rbp
    681e:	48 89 7d f8          	mov    %rdi,-0x8(%rbp)
    6822:	48 b8 00 00 00 00 00 	movabs $0x8000000000000000,%rax
    6829:	00 00 80 
    682c:	48 39 45 f8          	cmp    %rax,-0x8(%rbp)
    6830:	74 09                	je     683b <safe_unary_minus_func_int64_t_s+0x25>
    6832:	48 8b 45 f8          	mov    -0x8(%rbp),%rax
    6836:	48 f7 d8             	neg    %rax
    6839:	eb 04                	jmp    683f <safe_unary_minus_func_int64_t_s+0x29>
    683b:	48 8b 45 f8          	mov    -0x8(%rbp),%rax
    683f:	5d                   	pop    %rbp
    6840:	c3                   	retq   

0000000000006841 <safe_add_func_int64_t_s_s>:
    6841:	f3 0f 1e fa          	endbr64 
    6845:	55                   	push   %rbp
    6846:	48 89 e5             	mov    %rsp,%rbp
    6849:	48 89 7d f8          	mov    %rdi,-0x8(%rbp)
    684d:	48 89 75 f0          	mov    %rsi,-0x10(%rbp)
    6851:	48 83 7d f8 00       	cmpq   $0x0,-0x8(%rbp)
    6856:	7e 1b                	jle    6873 <safe_add_func_int64_t_s_s+0x32>
    6858:	48 83 7d f0 00       	cmpq   $0x0,-0x10(%rbp)
    685d:	7e 14                	jle    6873 <safe_add_func_int64_t_s_s+0x32>
    685f:	48 b8 ff ff ff ff ff 	movabs $0x7fffffffffffffff,%rax
    6866:	ff ff 7f 
    6869:	48 2b 45 f0          	sub    -0x10(%rbp),%rax
    686d:	48 39 45 f8          	cmp    %rax,-0x8(%rbp)
    6871:	7f 2f                	jg     68a2 <safe_add_func_int64_t_s_s+0x61>
    6873:	48 83 7d f8 00       	cmpq   $0x0,-0x8(%rbp)
    6878:	79 1b                	jns    6895 <safe_add_func_int64_t_s_s+0x54>
    687a:	48 83 7d f0 00       	cmpq   $0x0,-0x10(%rbp)
    687f:	79 14                	jns    6895 <safe_add_func_int64_t_s_s+0x54>
    6881:	48 b8 00 00 00 00 00 	movabs $0x8000000000000000,%rax
    6888:	00 00 80 
    688b:	48 2b 45 f0          	sub    -0x10(%rbp),%rax
    688f:	48 39 45 f8          	cmp    %rax,-0x8(%rbp)
    6893:	7c 0d                	jl     68a2 <safe_add_func_int64_t_s_s+0x61>
    6895:	48 8b 55 f8          	mov    -0x8(%rbp),%rdx
    6899:	48 8b 45 f0          	mov    -0x10(%rbp),%rax
    689d:	48 01 d0             	add    %rdx,%rax
    68a0:	eb 04                	jmp    68a6 <safe_add_func_int64_t_s_s+0x65>
    68a2:	48 8b 45 f8          	mov    -0x8(%rbp),%rax
    68a6:	5d                   	pop    %rbp
    68a7:	c3                   	retq   

00000000000068a8 <safe_sub_func_int64_t_s_s>:
    68a8:	f3 0f 1e fa          	endbr64 
    68ac:	55                   	push   %rbp
    68ad:	48 89 e5             	mov    %rsp,%rbp
    68b0:	48 89 7d f8          	mov    %rdi,-0x8(%rbp)
    68b4:	48 89 75 f0          	mov    %rsi,-0x10(%rbp)
    68b8:	48 8b 45 f8          	mov    -0x8(%rbp),%rax
    68bc:	48 33 45 f0          	xor    -0x10(%rbp),%rax
    68c0:	48 89 c2             	mov    %rax,%rdx
    68c3:	48 8b 45 f8          	mov    -0x8(%rbp),%rax
    68c7:	48 33 45 f0          	xor    -0x10(%rbp),%rax
    68cb:	48 b9 00 00 00 00 00 	movabs $0x8000000000000000,%rcx
    68d2:	00 00 80 
    68d5:	48 21 c8             	and    %rcx,%rax
    68d8:	48 33 45 f8          	xor    -0x8(%rbp),%rax
    68dc:	48 2b 45 f0          	sub    -0x10(%rbp),%rax
    68e0:	48 33 45 f0          	xor    -0x10(%rbp),%rax
    68e4:	48 21 d0             	and    %rdx,%rax
    68e7:	48 85 c0             	test   %rax,%rax
    68ea:	78 0a                	js     68f6 <safe_sub_func_int64_t_s_s+0x4e>
    68ec:	48 8b 45 f8          	mov    -0x8(%rbp),%rax
    68f0:	48 2b 45 f0          	sub    -0x10(%rbp),%rax
    68f4:	eb 04                	jmp    68fa <safe_sub_func_int64_t_s_s+0x52>
    68f6:	48 8b 45 f8          	mov    -0x8(%rbp),%rax
    68fa:	5d                   	pop    %rbp
    68fb:	c3                   	retq   

00000000000068fc <safe_mul_func_int64_t_s_s>:
    68fc:	f3 0f 1e fa          	endbr64 
    6900:	55                   	push   %rbp
    6901:	48 89 e5             	mov    %rsp,%rbp
    6904:	48 89 7d f8          	mov    %rdi,-0x8(%rbp)
    6908:	48 89 75 f0          	mov    %rsi,-0x10(%rbp)
    690c:	48 83 7d f8 00       	cmpq   $0x0,-0x8(%rbp)
    6911:	7e 1d                	jle    6930 <safe_mul_func_int64_t_s_s+0x34>
    6913:	48 83 7d f0 00       	cmpq   $0x0,-0x10(%rbp)
    6918:	7e 16                	jle    6930 <safe_mul_func_int64_t_s_s+0x34>
    691a:	48 b8 ff ff ff ff ff 	movabs $0x7fffffffffffffff,%rax
    6921:	ff ff 7f 
    6924:	48 99                	cqto   
    6926:	48 f7 7d f0          	idivq  -0x10(%rbp)
    692a:	48 39 45 f8          	cmp    %rax,-0x8(%rbp)
    692e:	7f 7e                	jg     69ae <safe_mul_func_int64_t_s_s+0xb2>
    6930:	48 83 7d f8 00       	cmpq   $0x0,-0x8(%rbp)
    6935:	7e 1d                	jle    6954 <safe_mul_func_int64_t_s_s+0x58>
    6937:	48 83 7d f0 00       	cmpq   $0x0,-0x10(%rbp)
    693c:	7f 16                	jg     6954 <safe_mul_func_int64_t_s_s+0x58>
    693e:	48 b8 00 00 00 00 00 	movabs $0x8000000000000000,%rax
    6945:	00 00 80 
    6948:	48 99                	cqto   
    694a:	48 f7 7d f8          	idivq  -0x8(%rbp)
    694e:	48 39 45 f0          	cmp    %rax,-0x10(%rbp)
    6952:	7c 5a                	jl     69ae <safe_mul_func_int64_t_s_s+0xb2>
    6954:	48 83 7d f8 00       	cmpq   $0x0,-0x8(%rbp)
    6959:	7f 1d                	jg     6978 <safe_mul_func_int64_t_s_s+0x7c>
    695b:	48 83 7d f0 00       	cmpq   $0x0,-0x10(%rbp)
    6960:	7e 16                	jle    6978 <safe_mul_func_int64_t_s_s+0x7c>
    6962:	48 b8 00 00 00 00 00 	movabs $0x8000000000000000,%rax
    6969:	00 00 80 
    696c:	48 99                	cqto   
    696e:	48 f7 7d f0          	idivq  -0x10(%rbp)
    6972:	48 39 45 f8          	cmp    %rax,-0x8(%rbp)
    6976:	7c 36                	jl     69ae <safe_mul_func_int64_t_s_s+0xb2>
    6978:	48 83 7d f8 00       	cmpq   $0x0,-0x8(%rbp)
    697d:	7f 24                	jg     69a3 <safe_mul_func_int64_t_s_s+0xa7>
    697f:	48 83 7d f0 00       	cmpq   $0x0,-0x10(%rbp)
    6984:	7f 1d                	jg     69a3 <safe_mul_func_int64_t_s_s+0xa7>
    6986:	48 83 7d f8 00       	cmpq   $0x0,-0x8(%rbp)
    698b:	74 16                	je     69a3 <safe_mul_func_int64_t_s_s+0xa7>
    698d:	48 b8 ff ff ff ff ff 	movabs $0x7fffffffffffffff,%rax
    6994:	ff ff 7f 
    6997:	48 99                	cqto   
    6999:	48 f7 7d f8          	idivq  -0x8(%rbp)
    699d:	48 39 45 f0          	cmp    %rax,-0x10(%rbp)
    69a1:	7c 0b                	jl     69ae <safe_mul_func_int64_t_s_s+0xb2>
    69a3:	48 8b 45 f8          	mov    -0x8(%rbp),%rax
    69a7:	48 0f af 45 f0       	imul   -0x10(%rbp),%rax
    69ac:	eb 04                	jmp    69b2 <safe_mul_func_int64_t_s_s+0xb6>
    69ae:	48 8b 45 f8          	mov    -0x8(%rbp),%rax
    69b2:	5d                   	pop    %rbp
    69b3:	c3                   	retq   

00000000000069b4 <safe_mod_func_int64_t_s_s>:
    69b4:	f3 0f 1e fa          	endbr64 
    69b8:	55                   	push   %rbp
    69b9:	48 89 e5             	mov    %rsp,%rbp
    69bc:	48 89 7d f8          	mov    %rdi,-0x8(%rbp)
    69c0:	48 89 75 f0          	mov    %rsi,-0x10(%rbp)
    69c4:	48 83 7d f0 00       	cmpq   $0x0,-0x10(%rbp)
    69c9:	74 26                	je     69f1 <safe_mod_func_int64_t_s_s+0x3d>
    69cb:	48 b8 00 00 00 00 00 	movabs $0x8000000000000000,%rax
    69d2:	00 00 80 
    69d5:	48 39 45 f8          	cmp    %rax,-0x8(%rbp)
    69d9:	75 07                	jne    69e2 <safe_mod_func_int64_t_s_s+0x2e>
    69db:	48 83 7d f0 ff       	cmpq   $0xffffffffffffffff,-0x10(%rbp)
    69e0:	74 0f                	je     69f1 <safe_mod_func_int64_t_s_s+0x3d>
    69e2:	48 8b 45 f8          	mov    -0x8(%rbp),%rax
    69e6:	48 99                	cqto   
    69e8:	48 f7 7d f0          	idivq  -0x10(%rbp)
    69ec:	48 89 d0             	mov    %rdx,%rax
    69ef:	eb 04                	jmp    69f5 <safe_mod_func_int64_t_s_s+0x41>
    69f1:	48 8b 45 f8          	mov    -0x8(%rbp),%rax
    69f5:	5d                   	pop    %rbp
    69f6:	c3                   	retq   

00000000000069f7 <safe_div_func_int64_t_s_s>:
    69f7:	f3 0f 1e fa          	endbr64 
    69fb:	55                   	push   %rbp
    69fc:	48 89 e5             	mov    %rsp,%rbp
    69ff:	48 89 7d f8          	mov    %rdi,-0x8(%rbp)
    6a03:	48 89 75 f0          	mov    %rsi,-0x10(%rbp)
    6a07:	48 83 7d f0 00       	cmpq   $0x0,-0x10(%rbp)
    6a0c:	74 23                	je     6a31 <safe_div_func_int64_t_s_s+0x3a>
    6a0e:	48 b8 00 00 00 00 00 	movabs $0x8000000000000000,%rax
    6a15:	00 00 80 
    6a18:	48 39 45 f8          	cmp    %rax,-0x8(%rbp)
    6a1c:	75 07                	jne    6a25 <safe_div_func_int64_t_s_s+0x2e>
    6a1e:	48 83 7d f0 ff       	cmpq   $0xffffffffffffffff,-0x10(%rbp)
    6a23:	74 0c                	je     6a31 <safe_div_func_int64_t_s_s+0x3a>
    6a25:	48 8b 45 f8          	mov    -0x8(%rbp),%rax
    6a29:	48 99                	cqto   
    6a2b:	48 f7 7d f0          	idivq  -0x10(%rbp)
    6a2f:	eb 04                	jmp    6a35 <safe_div_func_int64_t_s_s+0x3e>
    6a31:	48 8b 45 f8          	mov    -0x8(%rbp),%rax
    6a35:	5d                   	pop    %rbp
    6a36:	c3                   	retq   

0000000000006a37 <safe_lshift_func_int64_t_s_s>:
    6a37:	f3 0f 1e fa          	endbr64 
    6a3b:	55                   	push   %rbp
    6a3c:	48 89 e5             	mov    %rsp,%rbp
    6a3f:	48 89 7d f8          	mov    %rdi,-0x8(%rbp)
    6a43:	89 75 f4             	mov    %esi,-0xc(%rbp)
    6a46:	48 83 7d f8 00       	cmpq   $0x0,-0x8(%rbp)
    6a4b:	78 38                	js     6a85 <safe_lshift_func_int64_t_s_s+0x4e>
    6a4d:	83 7d f4 00          	cmpl   $0x0,-0xc(%rbp)
    6a51:	78 32                	js     6a85 <safe_lshift_func_int64_t_s_s+0x4e>
    6a53:	83 7d f4 1f          	cmpl   $0x1f,-0xc(%rbp)
    6a57:	7f 2c                	jg     6a85 <safe_lshift_func_int64_t_s_s+0x4e>
    6a59:	8b 45 f4             	mov    -0xc(%rbp),%eax
    6a5c:	48 ba ff ff ff ff ff 	movabs $0x7fffffffffffffff,%rdx
    6a63:	ff ff 7f 
    6a66:	89 c1                	mov    %eax,%ecx
    6a68:	48 d3 fa             	sar    %cl,%rdx
    6a6b:	48 89 d0             	mov    %rdx,%rax
    6a6e:	48 39 45 f8          	cmp    %rax,-0x8(%rbp)
    6a72:	7f 11                	jg     6a85 <safe_lshift_func_int64_t_s_s+0x4e>
    6a74:	8b 45 f4             	mov    -0xc(%rbp),%eax
    6a77:	48 8b 55 f8          	mov    -0x8(%rbp),%rdx
    6a7b:	89 c1                	mov    %eax,%ecx
    6a7d:	48 d3 e2             	shl    %cl,%rdx
    6a80:	48 89 d0             	mov    %rdx,%rax
    6a83:	eb 04                	jmp    6a89 <safe_lshift_func_int64_t_s_s+0x52>
    6a85:	48 8b 45 f8          	mov    -0x8(%rbp),%rax
    6a89:	5d                   	pop    %rbp
    6a8a:	c3                   	retq   

0000000000006a8b <safe_lshift_func_int64_t_s_u>:
    6a8b:	f3 0f 1e fa          	endbr64 
    6a8f:	55                   	push   %rbp
    6a90:	48 89 e5             	mov    %rsp,%rbp
    6a93:	48 89 7d f8          	mov    %rdi,-0x8(%rbp)
    6a97:	89 75 f4             	mov    %esi,-0xc(%rbp)
    6a9a:	48 83 7d f8 00       	cmpq   $0x0,-0x8(%rbp)
    6a9f:	78 32                	js     6ad3 <safe_lshift_func_int64_t_s_u+0x48>
    6aa1:	83 7d f4 1f          	cmpl   $0x1f,-0xc(%rbp)
    6aa5:	77 2c                	ja     6ad3 <safe_lshift_func_int64_t_s_u+0x48>
    6aa7:	8b 45 f4             	mov    -0xc(%rbp),%eax
    6aaa:	48 ba ff ff ff ff ff 	movabs $0x7fffffffffffffff,%rdx
    6ab1:	ff ff 7f 
    6ab4:	89 c1                	mov    %eax,%ecx
    6ab6:	48 d3 fa             	sar    %cl,%rdx
    6ab9:	48 89 d0             	mov    %rdx,%rax
    6abc:	48 39 45 f8          	cmp    %rax,-0x8(%rbp)
    6ac0:	7f 11                	jg     6ad3 <safe_lshift_func_int64_t_s_u+0x48>
    6ac2:	8b 45 f4             	mov    -0xc(%rbp),%eax
    6ac5:	48 8b 55 f8          	mov    -0x8(%rbp),%rdx
    6ac9:	89 c1                	mov    %eax,%ecx
    6acb:	48 d3 e2             	shl    %cl,%rdx
    6ace:	48 89 d0             	mov    %rdx,%rax
    6ad1:	eb 04                	jmp    6ad7 <safe_lshift_func_int64_t_s_u+0x4c>
    6ad3:	48 8b 45 f8          	mov    -0x8(%rbp),%rax
    6ad7:	5d                   	pop    %rbp
    6ad8:	c3                   	retq   

0000000000006ad9 <safe_rshift_func_int64_t_s_s>:
    6ad9:	f3 0f 1e fa          	endbr64 
    6add:	55                   	push   %rbp
    6ade:	48 89 e5             	mov    %rsp,%rbp
    6ae1:	48 89 7d f8          	mov    %rdi,-0x8(%rbp)
    6ae5:	89 75 f4             	mov    %esi,-0xc(%rbp)
    6ae8:	48 83 7d f8 00       	cmpq   $0x0,-0x8(%rbp)
    6aed:	78 1d                	js     6b0c <safe_rshift_func_int64_t_s_s+0x33>
    6aef:	83 7d f4 00          	cmpl   $0x0,-0xc(%rbp)
    6af3:	78 17                	js     6b0c <safe_rshift_func_int64_t_s_s+0x33>
    6af5:	83 7d f4 1f          	cmpl   $0x1f,-0xc(%rbp)
    6af9:	7f 11                	jg     6b0c <safe_rshift_func_int64_t_s_s+0x33>
    6afb:	8b 45 f4             	mov    -0xc(%rbp),%eax
    6afe:	48 8b 55 f8          	mov    -0x8(%rbp),%rdx
    6b02:	89 c1                	mov    %eax,%ecx
    6b04:	48 d3 fa             	sar    %cl,%rdx
    6b07:	48 89 d0             	mov    %rdx,%rax
    6b0a:	eb 04                	jmp    6b10 <safe_rshift_func_int64_t_s_s+0x37>
    6b0c:	48 8b 45 f8          	mov    -0x8(%rbp),%rax
    6b10:	5d                   	pop    %rbp
    6b11:	c3                   	retq   

0000000000006b12 <safe_rshift_func_int64_t_s_u>:
    6b12:	f3 0f 1e fa          	endbr64 
    6b16:	55                   	push   %rbp
    6b17:	48 89 e5             	mov    %rsp,%rbp
    6b1a:	48 89 7d f8          	mov    %rdi,-0x8(%rbp)
    6b1e:	89 75 f4             	mov    %esi,-0xc(%rbp)
    6b21:	48 83 7d f8 00       	cmpq   $0x0,-0x8(%rbp)
    6b26:	78 17                	js     6b3f <safe_rshift_func_int64_t_s_u+0x2d>
    6b28:	83 7d f4 1f          	cmpl   $0x1f,-0xc(%rbp)
    6b2c:	77 11                	ja     6b3f <safe_rshift_func_int64_t_s_u+0x2d>
    6b2e:	8b 45 f4             	mov    -0xc(%rbp),%eax
    6b31:	48 8b 55 f8          	mov    -0x8(%rbp),%rdx
    6b35:	89 c1                	mov    %eax,%ecx
    6b37:	48 d3 fa             	sar    %cl,%rdx
    6b3a:	48 89 d0             	mov    %rdx,%rax
    6b3d:	eb 04                	jmp    6b43 <safe_rshift_func_int64_t_s_u+0x31>
    6b3f:	48 8b 45 f8          	mov    -0x8(%rbp),%rax
    6b43:	5d                   	pop    %rbp
    6b44:	c3                   	retq   

0000000000006b45 <safe_unary_minus_func_uint8_t_u>:
    6b45:	f3 0f 1e fa          	endbr64 
    6b49:	55                   	push   %rbp
    6b4a:	48 89 e5             	mov    %rsp,%rbp
    6b4d:	89 f8                	mov    %edi,%eax
    6b4f:	88 45 fc             	mov    %al,-0x4(%rbp)
    6b52:	0f b6 45 fc          	movzbl -0x4(%rbp),%eax
    6b56:	f7 d8                	neg    %eax
    6b58:	5d                   	pop    %rbp
    6b59:	c3                   	retq   

0000000000006b5a <safe_add_func_uint8_t_u_u>:
    6b5a:	f3 0f 1e fa          	endbr64 
    6b5e:	55                   	push   %rbp
    6b5f:	48 89 e5             	mov    %rsp,%rbp
    6b62:	89 fa                	mov    %edi,%edx
    6b64:	89 f0                	mov    %esi,%eax
    6b66:	88 55 fc             	mov    %dl,-0x4(%rbp)
    6b69:	88 45 f8             	mov    %al,-0x8(%rbp)
    6b6c:	0f b6 55 fc          	movzbl -0x4(%rbp),%edx
    6b70:	0f b6 45 f8          	movzbl -0x8(%rbp),%eax
    6b74:	01 d0                	add    %edx,%eax
    6b76:	5d                   	pop    %rbp
    6b77:	c3                   	retq   

0000000000006b78 <safe_sub_func_uint8_t_u_u>:
    6b78:	f3 0f 1e fa          	endbr64 
    6b7c:	55                   	push   %rbp
    6b7d:	48 89 e5             	mov    %rsp,%rbp
    6b80:	89 fa                	mov    %edi,%edx
    6b82:	89 f0                	mov    %esi,%eax
    6b84:	88 55 fc             	mov    %dl,-0x4(%rbp)
    6b87:	88 45 f8             	mov    %al,-0x8(%rbp)
    6b8a:	0f b6 45 fc          	movzbl -0x4(%rbp),%eax
    6b8e:	2a 45 f8             	sub    -0x8(%rbp),%al
    6b91:	5d                   	pop    %rbp
    6b92:	c3                   	retq   

0000000000006b93 <safe_mul_func_uint8_t_u_u>:
    6b93:	f3 0f 1e fa          	endbr64 
    6b97:	55                   	push   %rbp
    6b98:	48 89 e5             	mov    %rsp,%rbp
    6b9b:	89 fa                	mov    %edi,%edx
    6b9d:	89 f0                	mov    %esi,%eax
    6b9f:	88 55 fc             	mov    %dl,-0x4(%rbp)
    6ba2:	88 45 f8             	mov    %al,-0x8(%rbp)
    6ba5:	0f b6 45 fc          	movzbl -0x4(%rbp),%eax
    6ba9:	f6 65 f8             	mulb   -0x8(%rbp)
    6bac:	5d                   	pop    %rbp
    6bad:	c3                   	retq   

0000000000006bae <safe_mod_func_uint8_t_u_u>:
    6bae:	f3 0f 1e fa          	endbr64 
    6bb2:	55                   	push   %rbp
    6bb3:	48 89 e5             	mov    %rsp,%rbp
    6bb6:	89 fa                	mov    %edi,%edx
    6bb8:	89 f0                	mov    %esi,%eax
    6bba:	88 55 fc             	mov    %dl,-0x4(%rbp)
    6bbd:	88 45 f8             	mov    %al,-0x8(%rbp)
    6bc0:	80 7d f8 00          	cmpb   $0x0,-0x8(%rbp)
    6bc4:	74 0f                	je     6bd5 <safe_mod_func_uint8_t_u_u+0x27>
    6bc6:	0f b6 45 fc          	movzbl -0x4(%rbp),%eax
    6bca:	0f b6 c0             	movzbl %al,%eax
    6bcd:	f6 75 f8             	divb   -0x8(%rbp)
    6bd0:	0f b6 c4             	movzbl %ah,%eax
    6bd3:	eb 04                	jmp    6bd9 <safe_mod_func_uint8_t_u_u+0x2b>
    6bd5:	0f b6 45 fc          	movzbl -0x4(%rbp),%eax
    6bd9:	5d                   	pop    %rbp
    6bda:	c3                   	retq   

0000000000006bdb <safe_div_func_uint8_t_u_u>:
    6bdb:	f3 0f 1e fa          	endbr64 
    6bdf:	55                   	push   %rbp
    6be0:	48 89 e5             	mov    %rsp,%rbp
    6be3:	89 fa                	mov    %edi,%edx
    6be5:	89 f0                	mov    %esi,%eax
    6be7:	88 55 fc             	mov    %dl,-0x4(%rbp)
    6bea:	88 45 f8             	mov    %al,-0x8(%rbp)
    6bed:	80 7d f8 00          	cmpb   $0x0,-0x8(%rbp)
    6bf1:	74 0c                	je     6bff <safe_div_func_uint8_t_u_u+0x24>
    6bf3:	0f b6 45 fc          	movzbl -0x4(%rbp),%eax
    6bf7:	0f b6 c0             	movzbl %al,%eax
    6bfa:	f6 75 f8             	divb   -0x8(%rbp)
    6bfd:	eb 04                	jmp    6c03 <safe_div_func_uint8_t_u_u+0x28>
    6bff:	0f b6 45 fc          	movzbl -0x4(%rbp),%eax
    6c03:	5d                   	pop    %rbp
    6c04:	c3                   	retq   

0000000000006c05 <safe_lshift_func_uint8_t_u_s>:
    6c05:	f3 0f 1e fa          	endbr64 
    6c09:	55                   	push   %rbp
    6c0a:	48 89 e5             	mov    %rsp,%rbp
    6c0d:	89 f8                	mov    %edi,%eax
    6c0f:	89 75 f8             	mov    %esi,-0x8(%rbp)
    6c12:	88 45 fc             	mov    %al,-0x4(%rbp)
    6c15:	83 7d f8 00          	cmpl   $0x0,-0x8(%rbp)
    6c19:	78 2b                	js     6c46 <safe_lshift_func_uint8_t_u_s+0x41>
    6c1b:	83 7d f8 1f          	cmpl   $0x1f,-0x8(%rbp)
    6c1f:	7f 25                	jg     6c46 <safe_lshift_func_uint8_t_u_s+0x41>
    6c21:	0f b6 55 fc          	movzbl -0x4(%rbp),%edx
    6c25:	8b 45 f8             	mov    -0x8(%rbp),%eax
    6c28:	be ff 00 00 00       	mov    $0xff,%esi
    6c2d:	89 c1                	mov    %eax,%ecx
    6c2f:	d3 fe                	sar    %cl,%esi
    6c31:	89 f0                	mov    %esi,%eax
    6c33:	39 c2                	cmp    %eax,%edx
    6c35:	7f 0f                	jg     6c46 <safe_lshift_func_uint8_t_u_s+0x41>
    6c37:	0f b6 55 fc          	movzbl -0x4(%rbp),%edx
    6c3b:	8b 45 f8             	mov    -0x8(%rbp),%eax
    6c3e:	89 c1                	mov    %eax,%ecx
    6c40:	d3 e2                	shl    %cl,%edx
    6c42:	89 d0                	mov    %edx,%eax
    6c44:	eb 04                	jmp    6c4a <safe_lshift_func_uint8_t_u_s+0x45>
    6c46:	0f b6 45 fc          	movzbl -0x4(%rbp),%eax
    6c4a:	5d                   	pop    %rbp
    6c4b:	c3                   	retq   

0000000000006c4c <safe_lshift_func_uint8_t_u_u>:
    6c4c:	f3 0f 1e fa          	endbr64 
    6c50:	55                   	push   %rbp
    6c51:	48 89 e5             	mov    %rsp,%rbp
    6c54:	89 f8                	mov    %edi,%eax
    6c56:	89 75 f8             	mov    %esi,-0x8(%rbp)
    6c59:	88 45 fc             	mov    %al,-0x4(%rbp)
    6c5c:	83 7d f8 1f          	cmpl   $0x1f,-0x8(%rbp)
    6c60:	77 25                	ja     6c87 <safe_lshift_func_uint8_t_u_u+0x3b>
    6c62:	0f b6 55 fc          	movzbl -0x4(%rbp),%edx
    6c66:	8b 45 f8             	mov    -0x8(%rbp),%eax
    6c69:	be ff 00 00 00       	mov    $0xff,%esi
    6c6e:	89 c1                	mov    %eax,%ecx
    6c70:	d3 fe                	sar    %cl,%esi
    6c72:	89 f0                	mov    %esi,%eax
    6c74:	39 c2                	cmp    %eax,%edx
    6c76:	7f 0f                	jg     6c87 <safe_lshift_func_uint8_t_u_u+0x3b>
    6c78:	0f b6 55 fc          	movzbl -0x4(%rbp),%edx
    6c7c:	8b 45 f8             	mov    -0x8(%rbp),%eax
    6c7f:	89 c1                	mov    %eax,%ecx
    6c81:	d3 e2                	shl    %cl,%edx
    6c83:	89 d0                	mov    %edx,%eax
    6c85:	eb 04                	jmp    6c8b <safe_lshift_func_uint8_t_u_u+0x3f>
    6c87:	0f b6 45 fc          	movzbl -0x4(%rbp),%eax
    6c8b:	5d                   	pop    %rbp
    6c8c:	c3                   	retq   

0000000000006c8d <safe_rshift_func_uint8_t_u_s>:
    6c8d:	f3 0f 1e fa          	endbr64 
    6c91:	55                   	push   %rbp
    6c92:	48 89 e5             	mov    %rsp,%rbp
    6c95:	89 f8                	mov    %edi,%eax
    6c97:	89 75 f8             	mov    %esi,-0x8(%rbp)
    6c9a:	88 45 fc             	mov    %al,-0x4(%rbp)
    6c9d:	83 7d f8 00          	cmpl   $0x0,-0x8(%rbp)
    6ca1:	78 15                	js     6cb8 <safe_rshift_func_uint8_t_u_s+0x2b>
    6ca3:	83 7d f8 1f          	cmpl   $0x1f,-0x8(%rbp)
    6ca7:	7f 0f                	jg     6cb8 <safe_rshift_func_uint8_t_u_s+0x2b>
    6ca9:	0f b6 55 fc          	movzbl -0x4(%rbp),%edx
    6cad:	8b 45 f8             	mov    -0x8(%rbp),%eax
    6cb0:	89 c1                	mov    %eax,%ecx
    6cb2:	d3 fa                	sar    %cl,%edx
    6cb4:	89 d0                	mov    %edx,%eax
    6cb6:	eb 04                	jmp    6cbc <safe_rshift_func_uint8_t_u_s+0x2f>
    6cb8:	0f b6 45 fc          	movzbl -0x4(%rbp),%eax
    6cbc:	5d                   	pop    %rbp
    6cbd:	c3                   	retq   

0000000000006cbe <safe_rshift_func_uint8_t_u_u>:
    6cbe:	f3 0f 1e fa          	endbr64 
    6cc2:	55                   	push   %rbp
    6cc3:	48 89 e5             	mov    %rsp,%rbp
    6cc6:	89 f8                	mov    %edi,%eax
    6cc8:	89 75 f8             	mov    %esi,-0x8(%rbp)
    6ccb:	88 45 fc             	mov    %al,-0x4(%rbp)
    6cce:	83 7d f8 1f          	cmpl   $0x1f,-0x8(%rbp)
    6cd2:	77 0f                	ja     6ce3 <safe_rshift_func_uint8_t_u_u+0x25>
    6cd4:	0f b6 55 fc          	movzbl -0x4(%rbp),%edx
    6cd8:	8b 45 f8             	mov    -0x8(%rbp),%eax
    6cdb:	89 c1                	mov    %eax,%ecx
    6cdd:	d3 fa                	sar    %cl,%edx
    6cdf:	89 d0                	mov    %edx,%eax
    6ce1:	eb 04                	jmp    6ce7 <safe_rshift_func_uint8_t_u_u+0x29>
    6ce3:	0f b6 45 fc          	movzbl -0x4(%rbp),%eax
    6ce7:	5d                   	pop    %rbp
    6ce8:	c3                   	retq   

0000000000006ce9 <safe_unary_minus_func_uint16_t_u>:
    6ce9:	f3 0f 1e fa          	endbr64 
    6ced:	55                   	push   %rbp
    6cee:	48 89 e5             	mov    %rsp,%rbp
    6cf1:	89 f8                	mov    %edi,%eax
    6cf3:	66 89 45 fc          	mov    %ax,-0x4(%rbp)
    6cf7:	0f b7 45 fc          	movzwl -0x4(%rbp),%eax
    6cfb:	f7 d8                	neg    %eax
    6cfd:	5d                   	pop    %rbp
    6cfe:	c3                   	retq   

0000000000006cff <safe_add_func_uint16_t_u_u>:
    6cff:	f3 0f 1e fa          	endbr64 
    6d03:	55                   	push   %rbp
    6d04:	48 89 e5             	mov    %rsp,%rbp
    6d07:	89 fa                	mov    %edi,%edx
    6d09:	89 f0                	mov    %esi,%eax
    6d0b:	66 89 55 fc          	mov    %dx,-0x4(%rbp)
    6d0f:	66 89 45 f8          	mov    %ax,-0x8(%rbp)
    6d13:	0f b7 55 fc          	movzwl -0x4(%rbp),%edx
    6d17:	0f b7 45 f8          	movzwl -0x8(%rbp),%eax
    6d1b:	01 d0                	add    %edx,%eax
    6d1d:	5d                   	pop    %rbp
    6d1e:	c3                   	retq   

0000000000006d1f <safe_sub_func_uint16_t_u_u>:
    6d1f:	f3 0f 1e fa          	endbr64 
    6d23:	55                   	push   %rbp
    6d24:	48 89 e5             	mov    %rsp,%rbp
    6d27:	89 fa                	mov    %edi,%edx
    6d29:	89 f0                	mov    %esi,%eax
    6d2b:	66 89 55 fc          	mov    %dx,-0x4(%rbp)
    6d2f:	66 89 45 f8          	mov    %ax,-0x8(%rbp)
    6d33:	0f b7 45 fc          	movzwl -0x4(%rbp),%eax
    6d37:	66 2b 45 f8          	sub    -0x8(%rbp),%ax
    6d3b:	5d                   	pop    %rbp
    6d3c:	c3                   	retq   

0000000000006d3d <safe_mul_func_uint16_t_u_u>:
    6d3d:	f3 0f 1e fa          	endbr64 
    6d41:	55                   	push   %rbp
    6d42:	48 89 e5             	mov    %rsp,%rbp
    6d45:	89 fa                	mov    %edi,%edx
    6d47:	89 f0                	mov    %esi,%eax
    6d49:	66 89 55 fc          	mov    %dx,-0x4(%rbp)
    6d4d:	66 89 45 f8          	mov    %ax,-0x8(%rbp)
    6d51:	0f b7 45 fc          	movzwl -0x4(%rbp),%eax
    6d55:	66 0f af 45 f8       	imul   -0x8(%rbp),%ax
    6d5a:	5d                   	pop    %rbp
    6d5b:	c3                   	retq   

0000000000006d5c <safe_mod_func_uint16_t_u_u>:
    6d5c:	f3 0f 1e fa          	endbr64 
    6d60:	55                   	push   %rbp
    6d61:	48 89 e5             	mov    %rsp,%rbp
    6d64:	89 fa                	mov    %edi,%edx
    6d66:	89 f0                	mov    %esi,%eax
    6d68:	66 89 55 fc          	mov    %dx,-0x4(%rbp)
    6d6c:	66 89 45 f8          	mov    %ax,-0x8(%rbp)
    6d70:	66 83 7d f8 00       	cmpw   $0x0,-0x8(%rbp)
    6d75:	74 11                	je     6d88 <safe_mod_func_uint16_t_u_u+0x2c>
    6d77:	0f b7 45 fc          	movzwl -0x4(%rbp),%eax
    6d7b:	ba 00 00 00 00       	mov    $0x0,%edx
    6d80:	66 f7 75 f8          	divw   -0x8(%rbp)
    6d84:	89 d0                	mov    %edx,%eax
    6d86:	eb 04                	jmp    6d8c <safe_mod_func_uint16_t_u_u+0x30>
    6d88:	0f b7 45 fc          	movzwl -0x4(%rbp),%eax
    6d8c:	5d                   	pop    %rbp
    6d8d:	c3                   	retq   

0000000000006d8e <safe_div_func_uint16_t_u_u>:
    6d8e:	f3 0f 1e fa          	endbr64 
    6d92:	55                   	push   %rbp
    6d93:	48 89 e5             	mov    %rsp,%rbp
    6d96:	89 fa                	mov    %edi,%edx
    6d98:	89 f0                	mov    %esi,%eax
    6d9a:	66 89 55 fc          	mov    %dx,-0x4(%rbp)
    6d9e:	66 89 45 f8          	mov    %ax,-0x8(%rbp)
    6da2:	66 83 7d f8 00       	cmpw   $0x0,-0x8(%rbp)
    6da7:	74 0f                	je     6db8 <safe_div_func_uint16_t_u_u+0x2a>
    6da9:	0f b7 45 fc          	movzwl -0x4(%rbp),%eax
    6dad:	ba 00 00 00 00       	mov    $0x0,%edx
    6db2:	66 f7 75 f8          	divw   -0x8(%rbp)
    6db6:	eb 04                	jmp    6dbc <safe_div_func_uint16_t_u_u+0x2e>
    6db8:	0f b7 45 fc          	movzwl -0x4(%rbp),%eax
    6dbc:	5d                   	pop    %rbp
    6dbd:	c3                   	retq   

0000000000006dbe <safe_lshift_func_uint16_t_u_s>:
    6dbe:	f3 0f 1e fa          	endbr64 
    6dc2:	55                   	push   %rbp
    6dc3:	48 89 e5             	mov    %rsp,%rbp
    6dc6:	89 f8                	mov    %edi,%eax
    6dc8:	89 75 f8             	mov    %esi,-0x8(%rbp)
    6dcb:	66 89 45 fc          	mov    %ax,-0x4(%rbp)
    6dcf:	83 7d f8 00          	cmpl   $0x0,-0x8(%rbp)
    6dd3:	78 2b                	js     6e00 <safe_lshift_func_uint16_t_u_s+0x42>
    6dd5:	83 7d f8 1f          	cmpl   $0x1f,-0x8(%rbp)
    6dd9:	7f 25                	jg     6e00 <safe_lshift_func_uint16_t_u_s+0x42>
    6ddb:	0f b7 55 fc          	movzwl -0x4(%rbp),%edx
    6ddf:	8b 45 f8             	mov    -0x8(%rbp),%eax
    6de2:	be ff ff 00 00       	mov    $0xffff,%esi
    6de7:	89 c1                	mov    %eax,%ecx
    6de9:	d3 fe                	sar    %cl,%esi
    6deb:	89 f0                	mov    %esi,%eax
    6ded:	39 c2                	cmp    %eax,%edx
    6def:	7f 0f                	jg     6e00 <safe_lshift_func_uint16_t_u_s+0x42>
    6df1:	0f b7 55 fc          	movzwl -0x4(%rbp),%edx
    6df5:	8b 45 f8             	mov    -0x8(%rbp),%eax
    6df8:	89 c1                	mov    %eax,%ecx
    6dfa:	d3 e2                	shl    %cl,%edx
    6dfc:	89 d0                	mov    %edx,%eax
    6dfe:	eb 04                	jmp    6e04 <safe_lshift_func_uint16_t_u_s+0x46>
    6e00:	0f b7 45 fc          	movzwl -0x4(%rbp),%eax
    6e04:	5d                   	pop    %rbp
    6e05:	c3                   	retq   

0000000000006e06 <safe_lshift_func_uint16_t_u_u>:
    6e06:	f3 0f 1e fa          	endbr64 
    6e0a:	55                   	push   %rbp
    6e0b:	48 89 e5             	mov    %rsp,%rbp
    6e0e:	89 f8                	mov    %edi,%eax
    6e10:	89 75 f8             	mov    %esi,-0x8(%rbp)
    6e13:	66 89 45 fc          	mov    %ax,-0x4(%rbp)
    6e17:	83 7d f8 1f          	cmpl   $0x1f,-0x8(%rbp)
    6e1b:	77 25                	ja     6e42 <safe_lshift_func_uint16_t_u_u+0x3c>
    6e1d:	0f b7 55 fc          	movzwl -0x4(%rbp),%edx
    6e21:	8b 45 f8             	mov    -0x8(%rbp),%eax
    6e24:	be ff ff 00 00       	mov    $0xffff,%esi
    6e29:	89 c1                	mov    %eax,%ecx
    6e2b:	d3 fe                	sar    %cl,%esi
    6e2d:	89 f0                	mov    %esi,%eax
    6e2f:	39 c2                	cmp    %eax,%edx
    6e31:	7f 0f                	jg     6e42 <safe_lshift_func_uint16_t_u_u+0x3c>
    6e33:	0f b7 55 fc          	movzwl -0x4(%rbp),%edx
    6e37:	8b 45 f8             	mov    -0x8(%rbp),%eax
    6e3a:	89 c1                	mov    %eax,%ecx
    6e3c:	d3 e2                	shl    %cl,%edx
    6e3e:	89 d0                	mov    %edx,%eax
    6e40:	eb 04                	jmp    6e46 <safe_lshift_func_uint16_t_u_u+0x40>
    6e42:	0f b7 45 fc          	movzwl -0x4(%rbp),%eax
    6e46:	5d                   	pop    %rbp
    6e47:	c3                   	retq   

0000000000006e48 <safe_rshift_func_uint16_t_u_s>:
    6e48:	f3 0f 1e fa          	endbr64 
    6e4c:	55                   	push   %rbp
    6e4d:	48 89 e5             	mov    %rsp,%rbp
    6e50:	89 f8                	mov    %edi,%eax
    6e52:	89 75 f8             	mov    %esi,-0x8(%rbp)
    6e55:	66 89 45 fc          	mov    %ax,-0x4(%rbp)
    6e59:	83 7d f8 00          	cmpl   $0x0,-0x8(%rbp)
    6e5d:	78 15                	js     6e74 <safe_rshift_func_uint16_t_u_s+0x2c>
    6e5f:	83 7d f8 1f          	cmpl   $0x1f,-0x8(%rbp)
    6e63:	7f 0f                	jg     6e74 <safe_rshift_func_uint16_t_u_s+0x2c>
    6e65:	0f b7 55 fc          	movzwl -0x4(%rbp),%edx
    6e69:	8b 45 f8             	mov    -0x8(%rbp),%eax
    6e6c:	89 c1                	mov    %eax,%ecx
    6e6e:	d3 fa                	sar    %cl,%edx
    6e70:	89 d0                	mov    %edx,%eax
    6e72:	eb 04                	jmp    6e78 <safe_rshift_func_uint16_t_u_s+0x30>
    6e74:	0f b7 45 fc          	movzwl -0x4(%rbp),%eax
    6e78:	5d                   	pop    %rbp
    6e79:	c3                   	retq   

0000000000006e7a <safe_rshift_func_uint16_t_u_u>:
    6e7a:	f3 0f 1e fa          	endbr64 
    6e7e:	55                   	push   %rbp
    6e7f:	48 89 e5             	mov    %rsp,%rbp
    6e82:	89 f8                	mov    %edi,%eax
    6e84:	89 75 f8             	mov    %esi,-0x8(%rbp)
    6e87:	66 89 45 fc          	mov    %ax,-0x4(%rbp)
    6e8b:	83 7d f8 1f          	cmpl   $0x1f,-0x8(%rbp)
    6e8f:	77 0f                	ja     6ea0 <safe_rshift_func_uint16_t_u_u+0x26>
    6e91:	0f b7 55 fc          	movzwl -0x4(%rbp),%edx
    6e95:	8b 45 f8             	mov    -0x8(%rbp),%eax
    6e98:	89 c1                	mov    %eax,%ecx
    6e9a:	d3 fa                	sar    %cl,%edx
    6e9c:	89 d0                	mov    %edx,%eax
    6e9e:	eb 04                	jmp    6ea4 <safe_rshift_func_uint16_t_u_u+0x2a>
    6ea0:	0f b7 45 fc          	movzwl -0x4(%rbp),%eax
    6ea4:	5d                   	pop    %rbp
    6ea5:	c3                   	retq   

0000000000006ea6 <safe_unary_minus_func_uint32_t_u>:
    6ea6:	f3 0f 1e fa          	endbr64 
    6eaa:	55                   	push   %rbp
    6eab:	48 89 e5             	mov    %rsp,%rbp
    6eae:	89 7d fc             	mov    %edi,-0x4(%rbp)
    6eb1:	8b 45 fc             	mov    -0x4(%rbp),%eax
    6eb4:	f7 d8                	neg    %eax
    6eb6:	5d                   	pop    %rbp
    6eb7:	c3                   	retq   

0000000000006eb8 <safe_add_func_uint32_t_u_u>:
    6eb8:	f3 0f 1e fa          	endbr64 
    6ebc:	55                   	push   %rbp
    6ebd:	48 89 e5             	mov    %rsp,%rbp
    6ec0:	89 7d fc             	mov    %edi,-0x4(%rbp)
    6ec3:	89 75 f8             	mov    %esi,-0x8(%rbp)
    6ec6:	8b 55 fc             	mov    -0x4(%rbp),%edx
    6ec9:	8b 45 f8             	mov    -0x8(%rbp),%eax
    6ecc:	01 d0                	add    %edx,%eax
    6ece:	5d                   	pop    %rbp
    6ecf:	c3                   	retq   

0000000000006ed0 <safe_sub_func_uint32_t_u_u>:
    6ed0:	f3 0f 1e fa          	endbr64 
    6ed4:	55                   	push   %rbp
    6ed5:	48 89 e5             	mov    %rsp,%rbp
    6ed8:	89 7d fc             	mov    %edi,-0x4(%rbp)
    6edb:	89 75 f8             	mov    %esi,-0x8(%rbp)
    6ede:	8b 45 fc             	mov    -0x4(%rbp),%eax
    6ee1:	2b 45 f8             	sub    -0x8(%rbp),%eax
    6ee4:	5d                   	pop    %rbp
    6ee5:	c3                   	retq   

0000000000006ee6 <safe_mul_func_uint32_t_u_u>:
    6ee6:	f3 0f 1e fa          	endbr64 
    6eea:	55                   	push   %rbp
    6eeb:	48 89 e5             	mov    %rsp,%rbp
    6eee:	89 7d fc             	mov    %edi,-0x4(%rbp)
    6ef1:	89 75 f8             	mov    %esi,-0x8(%rbp)
    6ef4:	8b 45 fc             	mov    -0x4(%rbp),%eax
    6ef7:	0f af 45 f8          	imul   -0x8(%rbp),%eax
    6efb:	5d                   	pop    %rbp
    6efc:	c3                   	retq   

0000000000006efd <safe_mod_func_uint32_t_u_u>:
    6efd:	f3 0f 1e fa          	endbr64 
    6f01:	55                   	push   %rbp
    6f02:	48 89 e5             	mov    %rsp,%rbp
    6f05:	89 7d fc             	mov    %edi,-0x4(%rbp)
    6f08:	89 75 f8             	mov    %esi,-0x8(%rbp)
    6f0b:	83 7d f8 00          	cmpl   $0x0,-0x8(%rbp)
    6f0f:	74 0f                	je     6f20 <safe_mod_func_uint32_t_u_u+0x23>
    6f11:	8b 45 fc             	mov    -0x4(%rbp),%eax
    6f14:	ba 00 00 00 00       	mov    $0x0,%edx
    6f19:	f7 75 f8             	divl   -0x8(%rbp)
    6f1c:	89 d0                	mov    %edx,%eax
    6f1e:	eb 03                	jmp    6f23 <safe_mod_func_uint32_t_u_u+0x26>
    6f20:	8b 45 fc             	mov    -0x4(%rbp),%eax
    6f23:	5d                   	pop    %rbp
    6f24:	c3                   	retq   

0000000000006f25 <safe_div_func_uint32_t_u_u>:
    6f25:	f3 0f 1e fa          	endbr64 
    6f29:	55                   	push   %rbp
    6f2a:	48 89 e5             	mov    %rsp,%rbp
    6f2d:	89 7d fc             	mov    %edi,-0x4(%rbp)
    6f30:	89 75 f8             	mov    %esi,-0x8(%rbp)
    6f33:	83 7d f8 00          	cmpl   $0x0,-0x8(%rbp)
    6f37:	74 0d                	je     6f46 <safe_div_func_uint32_t_u_u+0x21>
    6f39:	8b 45 fc             	mov    -0x4(%rbp),%eax
    6f3c:	ba 00 00 00 00       	mov    $0x0,%edx
    6f41:	f7 75 f8             	divl   -0x8(%rbp)
    6f44:	eb 03                	jmp    6f49 <safe_div_func_uint32_t_u_u+0x24>
    6f46:	8b 45 fc             	mov    -0x4(%rbp),%eax
    6f49:	5d                   	pop    %rbp
    6f4a:	c3                   	retq   

0000000000006f4b <safe_lshift_func_uint32_t_u_s>:
    6f4b:	f3 0f 1e fa          	endbr64 
    6f4f:	55                   	push   %rbp
    6f50:	48 89 e5             	mov    %rsp,%rbp
    6f53:	89 7d fc             	mov    %edi,-0x4(%rbp)
    6f56:	89 75 f8             	mov    %esi,-0x8(%rbp)
    6f59:	83 7d f8 00          	cmpl   $0x0,-0x8(%rbp)
    6f5d:	78 27                	js     6f86 <safe_lshift_func_uint32_t_u_s+0x3b>
    6f5f:	83 7d f8 1f          	cmpl   $0x1f,-0x8(%rbp)
    6f63:	7f 21                	jg     6f86 <safe_lshift_func_uint32_t_u_s+0x3b>
    6f65:	8b 45 f8             	mov    -0x8(%rbp),%eax
    6f68:	ba ff ff ff ff       	mov    $0xffffffff,%edx
    6f6d:	89 c1                	mov    %eax,%ecx
    6f6f:	d3 ea                	shr    %cl,%edx
    6f71:	89 d0                	mov    %edx,%eax
    6f73:	39 45 fc             	cmp    %eax,-0x4(%rbp)
    6f76:	77 0e                	ja     6f86 <safe_lshift_func_uint32_t_u_s+0x3b>
    6f78:	8b 45 f8             	mov    -0x8(%rbp),%eax
    6f7b:	8b 55 fc             	mov    -0x4(%rbp),%edx
    6f7e:	89 c1                	mov    %eax,%ecx
    6f80:	d3 e2                	shl    %cl,%edx
    6f82:	89 d0                	mov    %edx,%eax
    6f84:	eb 03                	jmp    6f89 <safe_lshift_func_uint32_t_u_s+0x3e>
    6f86:	8b 45 fc             	mov    -0x4(%rbp),%eax
    6f89:	5d                   	pop    %rbp
    6f8a:	c3                   	retq   

0000000000006f8b <safe_lshift_func_uint32_t_u_u>:
    6f8b:	f3 0f 1e fa          	endbr64 
    6f8f:	55                   	push   %rbp
    6f90:	48 89 e5             	mov    %rsp,%rbp
    6f93:	89 7d fc             	mov    %edi,-0x4(%rbp)
    6f96:	89 75 f8             	mov    %esi,-0x8(%rbp)
    6f99:	83 7d f8 1f          	cmpl   $0x1f,-0x8(%rbp)
    6f9d:	77 21                	ja     6fc0 <safe_lshift_func_uint32_t_u_u+0x35>
    6f9f:	8b 45 f8             	mov    -0x8(%rbp),%eax
    6fa2:	ba ff ff ff ff       	mov    $0xffffffff,%edx
    6fa7:	89 c1                	mov    %eax,%ecx
    6fa9:	d3 ea                	shr    %cl,%edx
    6fab:	89 d0                	mov    %edx,%eax
    6fad:	39 45 fc             	cmp    %eax,-0x4(%rbp)
    6fb0:	77 0e                	ja     6fc0 <safe_lshift_func_uint32_t_u_u+0x35>
    6fb2:	8b 45 f8             	mov    -0x8(%rbp),%eax
    6fb5:	8b 55 fc             	mov    -0x4(%rbp),%edx
    6fb8:	89 c1                	mov    %eax,%ecx
    6fba:	d3 e2                	shl    %cl,%edx
    6fbc:	89 d0                	mov    %edx,%eax
    6fbe:	eb 03                	jmp    6fc3 <safe_lshift_func_uint32_t_u_u+0x38>
    6fc0:	8b 45 fc             	mov    -0x4(%rbp),%eax
    6fc3:	5d                   	pop    %rbp
    6fc4:	c3                   	retq   

0000000000006fc5 <safe_rshift_func_uint32_t_u_s>:
    6fc5:	f3 0f 1e fa          	endbr64 
    6fc9:	55                   	push   %rbp
    6fca:	48 89 e5             	mov    %rsp,%rbp
    6fcd:	89 7d fc             	mov    %edi,-0x4(%rbp)
    6fd0:	89 75 f8             	mov    %esi,-0x8(%rbp)
    6fd3:	83 7d f8 00          	cmpl   $0x0,-0x8(%rbp)
    6fd7:	78 14                	js     6fed <safe_rshift_func_uint32_t_u_s+0x28>
    6fd9:	83 7d f8 1f          	cmpl   $0x1f,-0x8(%rbp)
    6fdd:	7f 0e                	jg     6fed <safe_rshift_func_uint32_t_u_s+0x28>
    6fdf:	8b 45 f8             	mov    -0x8(%rbp),%eax
    6fe2:	8b 55 fc             	mov    -0x4(%rbp),%edx
    6fe5:	89 c1                	mov    %eax,%ecx
    6fe7:	d3 ea                	shr    %cl,%edx
    6fe9:	89 d0                	mov    %edx,%eax
    6feb:	eb 03                	jmp    6ff0 <safe_rshift_func_uint32_t_u_s+0x2b>
    6fed:	8b 45 fc             	mov    -0x4(%rbp),%eax
    6ff0:	5d                   	pop    %rbp
    6ff1:	c3                   	retq   

0000000000006ff2 <safe_rshift_func_uint32_t_u_u>:
    6ff2:	f3 0f 1e fa          	endbr64 
    6ff6:	55                   	push   %rbp
    6ff7:	48 89 e5             	mov    %rsp,%rbp
    6ffa:	89 7d fc             	mov    %edi,-0x4(%rbp)
    6ffd:	89 75 f8             	mov    %esi,-0x8(%rbp)
    7000:	83 7d f8 1f          	cmpl   $0x1f,-0x8(%rbp)
    7004:	77 0e                	ja     7014 <safe_rshift_func_uint32_t_u_u+0x22>
    7006:	8b 45 f8             	mov    -0x8(%rbp),%eax
    7009:	8b 55 fc             	mov    -0x4(%rbp),%edx
    700c:	89 c1                	mov    %eax,%ecx
    700e:	d3 ea                	shr    %cl,%edx
    7010:	89 d0                	mov    %edx,%eax
    7012:	eb 03                	jmp    7017 <safe_rshift_func_uint32_t_u_u+0x25>
    7014:	8b 45 fc             	mov    -0x4(%rbp),%eax
    7017:	5d                   	pop    %rbp
    7018:	c3                   	retq   

0000000000007019 <safe_unary_minus_func_uint64_t_u>:
    7019:	f3 0f 1e fa          	endbr64 
    701d:	55                   	push   %rbp
    701e:	48 89 e5             	mov    %rsp,%rbp
    7021:	48 89 7d f8          	mov    %rdi,-0x8(%rbp)
    7025:	48 8b 45 f8          	mov    -0x8(%rbp),%rax
    7029:	48 f7 d8             	neg    %rax
    702c:	5d                   	pop    %rbp
    702d:	c3                   	retq   

000000000000702e <safe_add_func_uint64_t_u_u>:
    702e:	f3 0f 1e fa          	endbr64 
    7032:	55                   	push   %rbp
    7033:	48 89 e5             	mov    %rsp,%rbp
    7036:	48 89 7d f8          	mov    %rdi,-0x8(%rbp)
    703a:	48 89 75 f0          	mov    %rsi,-0x10(%rbp)
    703e:	48 8b 55 f8          	mov    -0x8(%rbp),%rdx
    7042:	48 8b 45 f0          	mov    -0x10(%rbp),%rax
    7046:	48 01 d0             	add    %rdx,%rax
    7049:	5d                   	pop    %rbp
    704a:	c3                   	retq   

000000000000704b <safe_sub_func_uint64_t_u_u>:
    704b:	f3 0f 1e fa          	endbr64 
    704f:	55                   	push   %rbp
    7050:	48 89 e5             	mov    %rsp,%rbp
    7053:	48 89 7d f8          	mov    %rdi,-0x8(%rbp)
    7057:	48 89 75 f0          	mov    %rsi,-0x10(%rbp)
    705b:	48 8b 45 f8          	mov    -0x8(%rbp),%rax
    705f:	48 2b 45 f0          	sub    -0x10(%rbp),%rax
    7063:	5d                   	pop    %rbp
    7064:	c3                   	retq   

0000000000007065 <safe_mul_func_uint64_t_u_u>:
    7065:	f3 0f 1e fa          	endbr64 
    7069:	55                   	push   %rbp
    706a:	48 89 e5             	mov    %rsp,%rbp
    706d:	48 89 7d f8          	mov    %rdi,-0x8(%rbp)
    7071:	48 89 75 f0          	mov    %rsi,-0x10(%rbp)
    7075:	48 8b 45 f8          	mov    -0x8(%rbp),%rax
    7079:	48 0f af 45 f0       	imul   -0x10(%rbp),%rax
    707e:	5d                   	pop    %rbp
    707f:	c3                   	retq   

0000000000007080 <safe_mod_func_uint64_t_u_u>:
    7080:	f3 0f 1e fa          	endbr64 
    7084:	55                   	push   %rbp
    7085:	48 89 e5             	mov    %rsp,%rbp
    7088:	48 89 7d f8          	mov    %rdi,-0x8(%rbp)
    708c:	48 89 75 f0          	mov    %rsi,-0x10(%rbp)
    7090:	48 83 7d f0 00       	cmpq   $0x0,-0x10(%rbp)
    7095:	74 12                	je     70a9 <safe_mod_func_uint64_t_u_u+0x29>
    7097:	48 8b 45 f8          	mov    -0x8(%rbp),%rax
    709b:	ba 00 00 00 00       	mov    $0x0,%edx
    70a0:	48 f7 75 f0          	divq   -0x10(%rbp)
    70a4:	48 89 d0             	mov    %rdx,%rax
    70a7:	eb 04                	jmp    70ad <safe_mod_func_uint64_t_u_u+0x2d>
    70a9:	48 8b 45 f8          	mov    -0x8(%rbp),%rax
    70ad:	5d                   	pop    %rbp
    70ae:	c3                   	retq   

00000000000070af <safe_div_func_uint64_t_u_u>:
    70af:	f3 0f 1e fa          	endbr64 
    70b3:	55                   	push   %rbp
    70b4:	48 89 e5             	mov    %rsp,%rbp
    70b7:	48 89 7d f8          	mov    %rdi,-0x8(%rbp)
    70bb:	48 89 75 f0          	mov    %rsi,-0x10(%rbp)
    70bf:	48 83 7d f0 00       	cmpq   $0x0,-0x10(%rbp)
    70c4:	74 0f                	je     70d5 <safe_div_func_uint64_t_u_u+0x26>
    70c6:	48 8b 45 f8          	mov    -0x8(%rbp),%rax
    70ca:	ba 00 00 00 00       	mov    $0x0,%edx
    70cf:	48 f7 75 f0          	divq   -0x10(%rbp)
    70d3:	eb 04                	jmp    70d9 <safe_div_func_uint64_t_u_u+0x2a>
    70d5:	48 8b 45 f8          	mov    -0x8(%rbp),%rax
    70d9:	5d                   	pop    %rbp
    70da:	c3                   	retq   

00000000000070db <safe_lshift_func_uint64_t_u_s>:
    70db:	f3 0f 1e fa          	endbr64 
    70df:	55                   	push   %rbp
    70e0:	48 89 e5             	mov    %rsp,%rbp
    70e3:	48 89 7d f8          	mov    %rdi,-0x8(%rbp)
    70e7:	89 75 f4             	mov    %esi,-0xc(%rbp)
    70ea:	83 7d f4 00          	cmpl   $0x0,-0xc(%rbp)
    70ee:	78 2f                	js     711f <safe_lshift_func_uint64_t_u_s+0x44>
    70f0:	83 7d f4 1f          	cmpl   $0x1f,-0xc(%rbp)
    70f4:	7f 29                	jg     711f <safe_lshift_func_uint64_t_u_s+0x44>
    70f6:	8b 45 f4             	mov    -0xc(%rbp),%eax
    70f9:	48 c7 c2 ff ff ff ff 	mov    $0xffffffffffffffff,%rdx
    7100:	89 c1                	mov    %eax,%ecx
    7102:	48 d3 ea             	shr    %cl,%rdx
    7105:	48 89 d0             	mov    %rdx,%rax
    7108:	48 39 45 f8          	cmp    %rax,-0x8(%rbp)
    710c:	77 11                	ja     711f <safe_lshift_func_uint64_t_u_s+0x44>
    710e:	8b 45 f4             	mov    -0xc(%rbp),%eax
    7111:	48 8b 55 f8          	mov    -0x8(%rbp),%rdx
    7115:	89 c1                	mov    %eax,%ecx
    7117:	48 d3 e2             	shl    %cl,%rdx
    711a:	48 89 d0             	mov    %rdx,%rax
    711d:	eb 04                	jmp    7123 <safe_lshift_func_uint64_t_u_s+0x48>
    711f:	48 8b 45 f8          	mov    -0x8(%rbp),%rax
    7123:	5d                   	pop    %rbp
    7124:	c3                   	retq   

0000000000007125 <safe_lshift_func_uint64_t_u_u>:
    7125:	f3 0f 1e fa          	endbr64 
    7129:	55                   	push   %rbp
    712a:	48 89 e5             	mov    %rsp,%rbp
    712d:	48 89 7d f8          	mov    %rdi,-0x8(%rbp)
    7131:	89 75 f4             	mov    %esi,-0xc(%rbp)
    7134:	83 7d f4 1f          	cmpl   $0x1f,-0xc(%rbp)
    7138:	77 29                	ja     7163 <safe_lshift_func_uint64_t_u_u+0x3e>
    713a:	8b 45 f4             	mov    -0xc(%rbp),%eax
    713d:	48 c7 c2 ff ff ff ff 	mov    $0xffffffffffffffff,%rdx
    7144:	89 c1                	mov    %eax,%ecx
    7146:	48 d3 ea             	shr    %cl,%rdx
    7149:	48 89 d0             	mov    %rdx,%rax
    714c:	48 39 45 f8          	cmp    %rax,-0x8(%rbp)
    7150:	77 11                	ja     7163 <safe_lshift_func_uint64_t_u_u+0x3e>
    7152:	8b 45 f4             	mov    -0xc(%rbp),%eax
    7155:	48 8b 55 f8          	mov    -0x8(%rbp),%rdx
    7159:	89 c1                	mov    %eax,%ecx
    715b:	48 d3 e2             	shl    %cl,%rdx
    715e:	48 89 d0             	mov    %rdx,%rax
    7161:	eb 04                	jmp    7167 <safe_lshift_func_uint64_t_u_u+0x42>
    7163:	48 8b 45 f8          	mov    -0x8(%rbp),%rax
    7167:	5d                   	pop    %rbp
    7168:	c3                   	retq   

0000000000007169 <safe_rshift_func_uint64_t_u_s>:
    7169:	f3 0f 1e fa          	endbr64 
    716d:	55                   	push   %rbp
    716e:	48 89 e5             	mov    %rsp,%rbp
    7171:	48 89 7d f8          	mov    %rdi,-0x8(%rbp)
    7175:	89 75 f4             	mov    %esi,-0xc(%rbp)
    7178:	83 7d f4 00          	cmpl   $0x0,-0xc(%rbp)
    717c:	78 17                	js     7195 <safe_rshift_func_uint64_t_u_s+0x2c>
    717e:	83 7d f4 1f          	cmpl   $0x1f,-0xc(%rbp)
    7182:	7f 11                	jg     7195 <safe_rshift_func_uint64_t_u_s+0x2c>
    7184:	8b 45 f4             	mov    -0xc(%rbp),%eax
    7187:	48 8b 55 f8          	mov    -0x8(%rbp),%rdx
    718b:	89 c1                	mov    %eax,%ecx
    718d:	48 d3 ea             	shr    %cl,%rdx
    7190:	48 89 d0             	mov    %rdx,%rax
    7193:	eb 04                	jmp    7199 <safe_rshift_func_uint64_t_u_s+0x30>
    7195:	48 8b 45 f8          	mov    -0x8(%rbp),%rax
    7199:	5d                   	pop    %rbp
    719a:	c3                   	retq   

000000000000719b <safe_rshift_func_uint64_t_u_u>:
    719b:	f3 0f 1e fa          	endbr64 
    719f:	55                   	push   %rbp
    71a0:	48 89 e5             	mov    %rsp,%rbp
    71a3:	48 89 7d f8          	mov    %rdi,-0x8(%rbp)
    71a7:	89 75 f4             	mov    %esi,-0xc(%rbp)
    71aa:	83 7d f4 1f          	cmpl   $0x1f,-0xc(%rbp)
    71ae:	77 11                	ja     71c1 <safe_rshift_func_uint64_t_u_u+0x26>
    71b0:	8b 45 f4             	mov    -0xc(%rbp),%eax
    71b3:	48 8b 55 f8          	mov    -0x8(%rbp),%rdx
    71b7:	89 c1                	mov    %eax,%ecx
    71b9:	48 d3 ea             	shr    %cl,%rdx
    71bc:	48 89 d0             	mov    %rdx,%rax
    71bf:	eb 04                	jmp    71c5 <safe_rshift_func_uint64_t_u_u+0x2a>
    71c1:	48 8b 45 f8          	mov    -0x8(%rbp),%rax
    71c5:	5d                   	pop    %rbp
    71c6:	c3                   	retq   

00000000000071c7 <safe_add_func_float_f_f>:
    71c7:	f3 0f 1e fa          	endbr64 
    71cb:	55                   	push   %rbp
    71cc:	48 89 e5             	mov    %rsp,%rbp
    71cf:	f3 0f 11 45 fc       	movss  %xmm0,-0x4(%rbp)
    71d4:	f3 0f 11 4d f8       	movss  %xmm1,-0x8(%rbp)
    71d9:	f3 0f 10 4d fc       	movss  -0x4(%rbp),%xmm1
    71de:	f3 0f 10 05 2e c8 00 	movss  0xc82e(%rip),%xmm0        # 13a14 <l_1686.4666+0xc>
    71e5:	00 
    71e6:	f3 0f 59 c8          	mulss  %xmm0,%xmm1
    71ea:	f3 0f 10 55 f8       	movss  -0x8(%rbp),%xmm2
    71ef:	f3 0f 10 05 1d c8 00 	movss  0xc81d(%rip),%xmm0        # 13a14 <l_1686.4666+0xc>
    71f6:	00 
    71f7:	f3 0f 59 c2          	mulss  %xmm2,%xmm0
    71fb:	f3 0f 58 c1          	addss  %xmm1,%xmm0
    71ff:	f3 0f 10 0d 19 c8 00 	movss  0xc819(%rip),%xmm1        # 13a20 <l_1686.4666+0x18>
    7206:	00 
    7207:	0f 54 c1             	andps  %xmm1,%xmm0
    720a:	0f 2f 05 1f c8 00 00 	comiss 0xc81f(%rip),%xmm0        # 13a30 <l_1686.4666+0x28>
    7211:	76 07                	jbe    721a <safe_add_func_float_f_f+0x53>
    7213:	f3 0f 10 45 fc       	movss  -0x4(%rbp),%xmm0
    7218:	eb 0a                	jmp    7224 <safe_add_func_float_f_f+0x5d>
    721a:	f3 0f 10 45 fc       	movss  -0x4(%rbp),%xmm0
    721f:	f3 0f 58 45 f8       	addss  -0x8(%rbp),%xmm0
    7224:	5d                   	pop    %rbp
    7225:	c3                   	retq   

0000000000007226 <safe_sub_func_float_f_f>:
    7226:	f3 0f 1e fa          	endbr64 
    722a:	55                   	push   %rbp
    722b:	48 89 e5             	mov    %rsp,%rbp
    722e:	f3 0f 11 45 fc       	movss  %xmm0,-0x4(%rbp)
    7233:	f3 0f 11 4d f8       	movss  %xmm1,-0x8(%rbp)
    7238:	f3 0f 10 4d fc       	movss  -0x4(%rbp),%xmm1
    723d:	f3 0f 10 05 cf c7 00 	movss  0xc7cf(%rip),%xmm0        # 13a14 <l_1686.4666+0xc>
    7244:	00 
    7245:	f3 0f 59 c1          	mulss  %xmm1,%xmm0
    7249:	f3 0f 10 55 f8       	movss  -0x8(%rbp),%xmm2
    724e:	f3 0f 10 0d be c7 00 	movss  0xc7be(%rip),%xmm1        # 13a14 <l_1686.4666+0xc>
    7255:	00 
    7256:	f3 0f 59 ca          	mulss  %xmm2,%xmm1
    725a:	f3 0f 5c c1          	subss  %xmm1,%xmm0
    725e:	f3 0f 10 0d ba c7 00 	movss  0xc7ba(%rip),%xmm1        # 13a20 <l_1686.4666+0x18>
    7265:	00 
    7266:	0f 54 c1             	andps  %xmm1,%xmm0
    7269:	0f 2f 05 c0 c7 00 00 	comiss 0xc7c0(%rip),%xmm0        # 13a30 <l_1686.4666+0x28>
    7270:	76 07                	jbe    7279 <safe_sub_func_float_f_f+0x53>
    7272:	f3 0f 10 45 fc       	movss  -0x4(%rbp),%xmm0
    7277:	eb 0a                	jmp    7283 <safe_sub_func_float_f_f+0x5d>
    7279:	f3 0f 10 45 fc       	movss  -0x4(%rbp),%xmm0
    727e:	f3 0f 5c 45 f8       	subss  -0x8(%rbp),%xmm0
    7283:	5d                   	pop    %rbp
    7284:	c3                   	retq   

0000000000007285 <safe_mul_func_float_f_f>:
    7285:	f3 0f 1e fa          	endbr64 
    7289:	55                   	push   %rbp
    728a:	48 89 e5             	mov    %rsp,%rbp
    728d:	f3 0f 11 45 fc       	movss  %xmm0,-0x4(%rbp)
    7292:	f3 0f 11 4d f8       	movss  %xmm1,-0x8(%rbp)
    7297:	f3 0f 10 4d fc       	movss  -0x4(%rbp),%xmm1
    729c:	f3 0f 10 05 90 c7 00 	movss  0xc790(%rip),%xmm0        # 13a34 <l_1686.4666+0x2c>
    72a3:	00 
    72a4:	f3 0f 59 c8          	mulss  %xmm0,%xmm1
    72a8:	f3 0f 10 55 f8       	movss  -0x8(%rbp),%xmm2
    72ad:	f3 0f 10 05 83 c7 00 	movss  0xc783(%rip),%xmm0        # 13a38 <l_1686.4666+0x30>
    72b4:	00 
    72b5:	f3 0f 59 c2          	mulss  %xmm2,%xmm0
    72b9:	f3 0f 59 c1          	mulss  %xmm1,%xmm0
    72bd:	f3 0f 10 0d 5b c7 00 	movss  0xc75b(%rip),%xmm1        # 13a20 <l_1686.4666+0x18>
    72c4:	00 
    72c5:	0f 54 c1             	andps  %xmm1,%xmm0
    72c8:	0f 2f 05 6d c7 00 00 	comiss 0xc76d(%rip),%xmm0        # 13a3c <l_1686.4666+0x34>
    72cf:	76 07                	jbe    72d8 <safe_mul_func_float_f_f+0x53>
    72d1:	f3 0f 10 45 fc       	movss  -0x4(%rbp),%xmm0
    72d6:	eb 0a                	jmp    72e2 <safe_mul_func_float_f_f+0x5d>
    72d8:	f3 0f 10 45 fc       	movss  -0x4(%rbp),%xmm0
    72dd:	f3 0f 59 45 f8       	mulss  -0x8(%rbp),%xmm0
    72e2:	5d                   	pop    %rbp
    72e3:	c3                   	retq   

00000000000072e4 <safe_div_func_float_f_f>:
    72e4:	f3 0f 1e fa          	endbr64 
    72e8:	55                   	push   %rbp
    72e9:	48 89 e5             	mov    %rsp,%rbp
    72ec:	f3 0f 11 45 fc       	movss  %xmm0,-0x4(%rbp)
    72f1:	f3 0f 11 4d f8       	movss  %xmm1,-0x8(%rbp)
    72f6:	f3 0f 10 45 f8       	movss  -0x8(%rbp),%xmm0
    72fb:	f3 0f 10 0d 1d c7 00 	movss  0xc71d(%rip),%xmm1        # 13a20 <l_1686.4666+0x18>
    7302:	00 
    7303:	0f 54 c8             	andps  %xmm0,%xmm1
    7306:	f3 0f 10 05 32 c7 00 	movss  0xc732(%rip),%xmm0        # 13a40 <l_1686.4666+0x38>
    730d:	00 
    730e:	0f 2f c1             	comiss %xmm1,%xmm0
    7311:	0f 97 c0             	seta   %al
    7314:	83 f0 01             	xor    $0x1,%eax
    7317:	84 c0                	test   %al,%al
    7319:	75 56                	jne    7371 <safe_div_func_float_f_f+0x8d>
    731b:	66 0f ef c0          	pxor   %xmm0,%xmm0
    731f:	0f 2e 45 f8          	ucomiss -0x8(%rbp),%xmm0
    7323:	7a 0a                	jp     732f <safe_div_func_float_f_f+0x4b>
    7325:	66 0f ef c0          	pxor   %xmm0,%xmm0
    7329:	0f 2e 45 f8          	ucomiss -0x8(%rbp),%xmm0
    732d:	74 4e                	je     737d <safe_div_func_float_f_f+0x99>
    732f:	f3 0f 10 4d fc       	movss  -0x4(%rbp),%xmm1
    7334:	f3 0f 10 05 08 c7 00 	movss  0xc708(%rip),%xmm0        # 13a44 <l_1686.4666+0x3c>
    733b:	00 
    733c:	f3 0f 59 c1          	mulss  %xmm1,%xmm0
    7340:	f3 0f 10 55 f8       	movss  -0x8(%rbp),%xmm2
    7345:	f3 0f 10 0d fb c6 00 	movss  0xc6fb(%rip),%xmm1        # 13a48 <l_1686.4666+0x40>
    734c:	00 
    734d:	f3 0f 59 ca          	mulss  %xmm2,%xmm1
    7351:	f3 0f 5e c1          	divss  %xmm1,%xmm0
    7355:	f3 0f 10 0d c3 c6 00 	movss  0xc6c3(%rip),%xmm1        # 13a20 <l_1686.4666+0x18>
    735c:	00 
    735d:	0f 54 c1             	andps  %xmm1,%xmm0
    7360:	0f 2f 05 e5 c6 00 00 	comiss 0xc6e5(%rip),%xmm0        # 13a4c <l_1686.4666+0x44>
    7367:	0f 97 c0             	seta   %al
    736a:	83 f0 01             	xor    $0x1,%eax
    736d:	84 c0                	test   %al,%al
    736f:	74 0c                	je     737d <safe_div_func_float_f_f+0x99>
    7371:	f3 0f 10 45 fc       	movss  -0x4(%rbp),%xmm0
    7376:	f3 0f 5e 45 f8       	divss  -0x8(%rbp),%xmm0
    737b:	eb 05                	jmp    7382 <safe_div_func_float_f_f+0x9e>
    737d:	f3 0f 10 45 fc       	movss  -0x4(%rbp),%xmm0
    7382:	5d                   	pop    %rbp
    7383:	c3                   	retq   

0000000000007384 <safe_add_func_double_f_f>:
    7384:	f3 0f 1e fa          	endbr64 
    7388:	55                   	push   %rbp
    7389:	48 89 e5             	mov    %rsp,%rbp
    738c:	f2 0f 11 45 f8       	movsd  %xmm0,-0x8(%rbp)
    7391:	f2 0f 11 4d f0       	movsd  %xmm1,-0x10(%rbp)
    7396:	f2 0f 10 4d f8       	movsd  -0x8(%rbp),%xmm1
    739b:	f2 0f 10 05 ad c6 00 	movsd  0xc6ad(%rip),%xmm0        # 13a50 <l_1686.4666+0x48>
    73a2:	00 
    73a3:	f2 0f 59 c8          	mulsd  %xmm0,%xmm1
    73a7:	f2 0f 10 55 f0       	movsd  -0x10(%rbp),%xmm2
    73ac:	f2 0f 10 05 9c c6 00 	movsd  0xc69c(%rip),%xmm0        # 13a50 <l_1686.4666+0x48>
    73b3:	00 
    73b4:	f2 0f 59 c2          	mulsd  %xmm2,%xmm0
    73b8:	f2 0f 58 c1          	addsd  %xmm1,%xmm0
    73bc:	f3 0f 7e 0d 9c c6 00 	movq   0xc69c(%rip),%xmm1        # 13a60 <l_1686.4666+0x58>
    73c3:	00 
    73c4:	66 0f 54 c1          	andpd  %xmm1,%xmm0
    73c8:	66 0f 2f 05 a0 c6 00 	comisd 0xc6a0(%rip),%xmm0        # 13a70 <l_1686.4666+0x68>
    73cf:	00 
    73d0:	76 07                	jbe    73d9 <safe_add_func_double_f_f+0x55>
    73d2:	f2 0f 10 45 f8       	movsd  -0x8(%rbp),%xmm0
    73d7:	eb 0a                	jmp    73e3 <safe_add_func_double_f_f+0x5f>
    73d9:	f2 0f 10 45 f8       	movsd  -0x8(%rbp),%xmm0
    73de:	f2 0f 58 45 f0       	addsd  -0x10(%rbp),%xmm0
    73e3:	5d                   	pop    %rbp
    73e4:	c3                   	retq   

00000000000073e5 <safe_sub_func_double_f_f>:
    73e5:	f3 0f 1e fa          	endbr64 
    73e9:	55                   	push   %rbp
    73ea:	48 89 e5             	mov    %rsp,%rbp
    73ed:	f2 0f 11 45 f8       	movsd  %xmm0,-0x8(%rbp)
    73f2:	f2 0f 11 4d f0       	movsd  %xmm1,-0x10(%rbp)
    73f7:	f2 0f 10 4d f8       	movsd  -0x8(%rbp),%xmm1
    73fc:	f2 0f 10 05 4c c6 00 	movsd  0xc64c(%rip),%xmm0        # 13a50 <l_1686.4666+0x48>
    7403:	00 
    7404:	f2 0f 59 c1          	mulsd  %xmm1,%xmm0
    7408:	f2 0f 10 55 f0       	movsd  -0x10(%rbp),%xmm2
    740d:	f2 0f 10 0d 3b c6 00 	movsd  0xc63b(%rip),%xmm1        # 13a50 <l_1686.4666+0x48>
    7414:	00 
    7415:	f2 0f 59 ca          	mulsd  %xmm2,%xmm1
    7419:	f2 0f 5c c1          	subsd  %xmm1,%xmm0
    741d:	f3 0f 7e 0d 3b c6 00 	movq   0xc63b(%rip),%xmm1        # 13a60 <l_1686.4666+0x58>
    7424:	00 
    7425:	66 0f 54 c1          	andpd  %xmm1,%xmm0
    7429:	66 0f 2f 05 3f c6 00 	comisd 0xc63f(%rip),%xmm0        # 13a70 <l_1686.4666+0x68>
    7430:	00 
    7431:	76 07                	jbe    743a <safe_sub_func_double_f_f+0x55>
    7433:	f2 0f 10 45 f8       	movsd  -0x8(%rbp),%xmm0
    7438:	eb 0a                	jmp    7444 <safe_sub_func_double_f_f+0x5f>
    743a:	f2 0f 10 45 f8       	movsd  -0x8(%rbp),%xmm0
    743f:	f2 0f 5c 45 f0       	subsd  -0x10(%rbp),%xmm0
    7444:	5d                   	pop    %rbp
    7445:	c3                   	retq   

0000000000007446 <safe_mul_func_double_f_f>:
    7446:	f3 0f 1e fa          	endbr64 
    744a:	55                   	push   %rbp
    744b:	48 89 e5             	mov    %rsp,%rbp
    744e:	f2 0f 11 45 f8       	movsd  %xmm0,-0x8(%rbp)
    7453:	f2 0f 11 4d f0       	movsd  %xmm1,-0x10(%rbp)
    7458:	f2 0f 10 4d f8       	movsd  -0x8(%rbp),%xmm1
    745d:	f2 0f 10 05 13 c6 00 	movsd  0xc613(%rip),%xmm0        # 13a78 <l_1686.4666+0x70>
    7464:	00 
    7465:	f2 0f 59 c8          	mulsd  %xmm0,%xmm1
    7469:	f2 0f 10 55 f0       	movsd  -0x10(%rbp),%xmm2
    746e:	f2 0f 10 05 0a c6 00 	movsd  0xc60a(%rip),%xmm0        # 13a80 <l_1686.4666+0x78>
    7475:	00 
    7476:	f2 0f 59 c2          	mulsd  %xmm2,%xmm0
    747a:	f2 0f 59 c1          	mulsd  %xmm1,%xmm0
    747e:	f3 0f 7e 0d da c5 00 	movq   0xc5da(%rip),%xmm1        # 13a60 <l_1686.4666+0x58>
    7485:	00 
    7486:	66 0f 54 c1          	andpd  %xmm1,%xmm0
    748a:	66 0f 2f 05 f6 c5 00 	comisd 0xc5f6(%rip),%xmm0        # 13a88 <l_1686.4666+0x80>
    7491:	00 
    7492:	76 07                	jbe    749b <safe_mul_func_double_f_f+0x55>
    7494:	f2 0f 10 45 f8       	movsd  -0x8(%rbp),%xmm0
    7499:	eb 0a                	jmp    74a5 <safe_mul_func_double_f_f+0x5f>
    749b:	f2 0f 10 45 f8       	movsd  -0x8(%rbp),%xmm0
    74a0:	f2 0f 59 45 f0       	mulsd  -0x10(%rbp),%xmm0
    74a5:	5d                   	pop    %rbp
    74a6:	c3                   	retq   

00000000000074a7 <safe_div_func_double_f_f>:
    74a7:	f3 0f 1e fa          	endbr64 
    74ab:	55                   	push   %rbp
    74ac:	48 89 e5             	mov    %rsp,%rbp
    74af:	f2 0f 11 45 f8       	movsd  %xmm0,-0x8(%rbp)
    74b4:	f2 0f 11 4d f0       	movsd  %xmm1,-0x10(%rbp)
    74b9:	f2 0f 10 45 f0       	movsd  -0x10(%rbp),%xmm0
    74be:	f3 0f 7e 0d 9a c5 00 	movq   0xc59a(%rip),%xmm1        # 13a60 <l_1686.4666+0x58>
    74c5:	00 
    74c6:	66 0f 54 c8          	andpd  %xmm0,%xmm1
    74ca:	f2 0f 10 05 be c5 00 	movsd  0xc5be(%rip),%xmm0        # 13a90 <l_1686.4666+0x88>
    74d1:	00 
    74d2:	66 0f 2f c1          	comisd %xmm1,%xmm0
    74d6:	0f 97 c0             	seta   %al
    74d9:	83 f0 01             	xor    $0x1,%eax
    74dc:	84 c0                	test   %al,%al
    74de:	75 5a                	jne    753a <safe_div_func_double_f_f+0x93>
    74e0:	66 0f ef c0          	pxor   %xmm0,%xmm0
    74e4:	66 0f 2e 45 f0       	ucomisd -0x10(%rbp),%xmm0
    74e9:	7a 0b                	jp     74f6 <safe_div_func_double_f_f+0x4f>
    74eb:	66 0f ef c0          	pxor   %xmm0,%xmm0
    74ef:	66 0f 2e 45 f0       	ucomisd -0x10(%rbp),%xmm0
    74f4:	74 50                	je     7546 <safe_div_func_double_f_f+0x9f>
    74f6:	f2 0f 10 4d f8       	movsd  -0x8(%rbp),%xmm1
    74fb:	f2 0f 10 05 95 c5 00 	movsd  0xc595(%rip),%xmm0        # 13a98 <l_1686.4666+0x90>
    7502:	00 
    7503:	f2 0f 59 c1          	mulsd  %xmm1,%xmm0
    7507:	f2 0f 10 55 f0       	movsd  -0x10(%rbp),%xmm2
    750c:	f2 0f 10 0d 8c c5 00 	movsd  0xc58c(%rip),%xmm1        # 13aa0 <l_1686.4666+0x98>
    7513:	00 
    7514:	f2 0f 59 ca          	mulsd  %xmm2,%xmm1
    7518:	f2 0f 5e c1          	divsd  %xmm1,%xmm0
    751c:	f3 0f 7e 0d 3c c5 00 	movq   0xc53c(%rip),%xmm1        # 13a60 <l_1686.4666+0x58>
    7523:	00 
    7524:	66 0f 54 c1          	andpd  %xmm1,%xmm0
    7528:	66 0f 2f 05 78 c5 00 	comisd 0xc578(%rip),%xmm0        # 13aa8 <l_1686.4666+0xa0>
    752f:	00 
    7530:	0f 97 c0             	seta   %al
    7533:	83 f0 01             	xor    $0x1,%eax
    7536:	84 c0                	test   %al,%al
    7538:	74 0c                	je     7546 <safe_div_func_double_f_f+0x9f>
    753a:	f2 0f 10 45 f8       	movsd  -0x8(%rbp),%xmm0
    753f:	f2 0f 5e 45 f0       	divsd  -0x10(%rbp),%xmm0
    7544:	eb 05                	jmp    754b <safe_div_func_double_f_f+0xa4>
    7546:	f2 0f 10 45 f8       	movsd  -0x8(%rbp),%xmm0
    754b:	5d                   	pop    %rbp
    754c:	c3                   	retq   

000000000000754d <safe_convert_func_float_to_int32_t>:
    754d:	f3 0f 1e fa          	endbr64 
    7551:	55                   	push   %rbp
    7552:	48 89 e5             	mov    %rsp,%rbp
    7555:	f3 0f 11 45 fc       	movss  %xmm0,-0x4(%rbp)
    755a:	f3 0f 10 05 4e c5 00 	movss  0xc54e(%rip),%xmm0        # 13ab0 <l_1686.4666+0xa8>
    7561:	00 
    7562:	0f 2f 45 fc          	comiss -0x4(%rbp),%xmm0
    7566:	0f 93 c0             	setae  %al
    7569:	83 f0 01             	xor    $0x1,%eax
    756c:	84 c0                	test   %al,%al
    756e:	74 21                	je     7591 <safe_convert_func_float_to_int32_t+0x44>
    7570:	f3 0f 10 45 fc       	movss  -0x4(%rbp),%xmm0
    7575:	0f 2f 05 38 c5 00 00 	comiss 0xc538(%rip),%xmm0        # 13ab4 <l_1686.4666+0xac>
    757c:	0f 93 c0             	setae  %al
    757f:	83 f0 01             	xor    $0x1,%eax
    7582:	84 c0                	test   %al,%al
    7584:	74 0b                	je     7591 <safe_convert_func_float_to_int32_t+0x44>
    7586:	f3 0f 10 45 fc       	movss  -0x4(%rbp),%xmm0
    758b:	f3 0f 2c c0          	cvttss2si %xmm0,%eax
    758f:	eb 05                	jmp    7596 <safe_convert_func_float_to_int32_t+0x49>
    7591:	b8 ff ff ff 7f       	mov    $0x7fffffff,%eax
    7596:	5d                   	pop    %rbp
    7597:	c3                   	retq   

0000000000007598 <crc32_gentab>:
    7598:	f3 0f 1e fa          	endbr64 
    759c:	55                   	push   %rbp
    759d:	48 89 e5             	mov    %rsp,%rbp
    75a0:	c7 45 fc 20 83 b8 ed 	movl   $0xedb88320,-0x4(%rbp)
    75a7:	c7 45 f4 00 00 00 00 	movl   $0x0,-0xc(%rbp)
    75ae:	eb 51                	jmp    7601 <crc32_gentab+0x69>
    75b0:	8b 45 f4             	mov    -0xc(%rbp),%eax
    75b3:	89 45 f0             	mov    %eax,-0x10(%rbp)
    75b6:	c7 45 f8 08 00 00 00 	movl   $0x8,-0x8(%rbp)
    75bd:	eb 1e                	jmp    75dd <crc32_gentab+0x45>
    75bf:	8b 45 f0             	mov    -0x10(%rbp),%eax
    75c2:	83 e0 01             	and    $0x1,%eax
    75c5:	85 c0                	test   %eax,%eax
    75c7:	74 0d                	je     75d6 <crc32_gentab+0x3e>
    75c9:	8b 45 f0             	mov    -0x10(%rbp),%eax
    75cc:	d1 e8                	shr    %eax
    75ce:	33 45 fc             	xor    -0x4(%rbp),%eax
    75d1:	89 45 f0             	mov    %eax,-0x10(%rbp)
    75d4:	eb 03                	jmp    75d9 <crc32_gentab+0x41>
    75d6:	d1 6d f0             	shrl   -0x10(%rbp)
    75d9:	83 6d f8 01          	subl   $0x1,-0x8(%rbp)
    75dd:	83 7d f8 00          	cmpl   $0x0,-0x8(%rbp)
    75e1:	7f dc                	jg     75bf <crc32_gentab+0x27>
    75e3:	8b 45 f4             	mov    -0xc(%rbp),%eax
    75e6:	48 98                	cltq   
    75e8:	48 8d 0c 85 00 00 00 	lea    0x0(,%rax,4),%rcx
    75ef:	00 
    75f0:	48 8d 15 e9 1e 01 00 	lea    0x11ee9(%rip),%rdx        # 194e0 <crc32_tab>
    75f7:	8b 45 f0             	mov    -0x10(%rbp),%eax
    75fa:	89 04 11             	mov    %eax,(%rcx,%rdx,1)
    75fd:	83 45 f4 01          	addl   $0x1,-0xc(%rbp)
    7601:	81 7d f4 ff 00 00 00 	cmpl   $0xff,-0xc(%rbp)
    7608:	7e a6                	jle    75b0 <crc32_gentab+0x18>
    760a:	90                   	nop
    760b:	90                   	nop
    760c:	5d                   	pop    %rbp
    760d:	c3                   	retq   

000000000000760e <crc32_byte>:
    760e:	f3 0f 1e fa          	endbr64 
    7612:	55                   	push   %rbp
    7613:	48 89 e5             	mov    %rsp,%rbp
    7616:	89 f8                	mov    %edi,%eax
    7618:	88 45 fc             	mov    %al,-0x4(%rbp)
    761b:	8b 05 ff f9 00 00    	mov    0xf9ff(%rip),%eax        # 17020 <crc32_context>
    7621:	c1 e8 08             	shr    $0x8,%eax
    7624:	89 c1                	mov    %eax,%ecx
    7626:	0f b6 55 fc          	movzbl -0x4(%rbp),%edx
    762a:	8b 05 f0 f9 00 00    	mov    0xf9f0(%rip),%eax        # 17020 <crc32_context>
    7630:	31 d0                	xor    %edx,%eax
    7632:	0f b6 c0             	movzbl %al,%eax
    7635:	89 c0                	mov    %eax,%eax
    7637:	48 8d 14 85 00 00 00 	lea    0x0(,%rax,4),%rdx
    763e:	00 
    763f:	48 8d 05 9a 1e 01 00 	lea    0x11e9a(%rip),%rax        # 194e0 <crc32_tab>
    7646:	8b 04 02             	mov    (%rdx,%rax,1),%eax
    7649:	31 c8                	xor    %ecx,%eax
    764b:	89 05 cf f9 00 00    	mov    %eax,0xf9cf(%rip)        # 17020 <crc32_context>
    7651:	90                   	nop
    7652:	5d                   	pop    %rbp
    7653:	c3                   	retq   

0000000000007654 <crc32_8bytes>:
    7654:	f3 0f 1e fa          	endbr64 
    7658:	55                   	push   %rbp
    7659:	48 89 e5             	mov    %rsp,%rbp
    765c:	48 83 ec 08          	sub    $0x8,%rsp
    7660:	48 89 7d f8          	mov    %rdi,-0x8(%rbp)
    7664:	48 8b 45 f8          	mov    -0x8(%rbp),%rax
    7668:	0f b6 c0             	movzbl %al,%eax
    766b:	89 c7                	mov    %eax,%edi
    766d:	e8 9c ff ff ff       	callq  760e <crc32_byte>
    7672:	48 8b 45 f8          	mov    -0x8(%rbp),%rax
    7676:	48 c1 e8 08          	shr    $0x8,%rax
    767a:	0f b6 c0             	movzbl %al,%eax
    767d:	89 c7                	mov    %eax,%edi
    767f:	e8 8a ff ff ff       	callq  760e <crc32_byte>
    7684:	48 8b 45 f8          	mov    -0x8(%rbp),%rax
    7688:	48 c1 e8 10          	shr    $0x10,%rax
    768c:	0f b6 c0             	movzbl %al,%eax
    768f:	89 c7                	mov    %eax,%edi
    7691:	e8 78 ff ff ff       	callq  760e <crc32_byte>
    7696:	48 8b 45 f8          	mov    -0x8(%rbp),%rax
    769a:	48 c1 e8 18          	shr    $0x18,%rax
    769e:	0f b6 c0             	movzbl %al,%eax
    76a1:	89 c7                	mov    %eax,%edi
    76a3:	e8 66 ff ff ff       	callq  760e <crc32_byte>
    76a8:	48 8b 45 f8          	mov    -0x8(%rbp),%rax
    76ac:	48 c1 e8 20          	shr    $0x20,%rax
    76b0:	0f b6 c0             	movzbl %al,%eax
    76b3:	89 c7                	mov    %eax,%edi
    76b5:	e8 54 ff ff ff       	callq  760e <crc32_byte>
    76ba:	48 8b 45 f8          	mov    -0x8(%rbp),%rax
    76be:	48 c1 e8 28          	shr    $0x28,%rax
    76c2:	0f b6 c0             	movzbl %al,%eax
    76c5:	89 c7                	mov    %eax,%edi
    76c7:	e8 42 ff ff ff       	callq  760e <crc32_byte>
    76cc:	48 8b 45 f8          	mov    -0x8(%rbp),%rax
    76d0:	48 c1 e8 30          	shr    $0x30,%rax
    76d4:	0f b6 c0             	movzbl %al,%eax
    76d7:	89 c7                	mov    %eax,%edi
    76d9:	e8 30 ff ff ff       	callq  760e <crc32_byte>
    76de:	48 8b 45 f8          	mov    -0x8(%rbp),%rax
    76e2:	48 c1 e8 38          	shr    $0x38,%rax
    76e6:	0f b6 c0             	movzbl %al,%eax
    76e9:	89 c7                	mov    %eax,%edi
    76eb:	e8 1e ff ff ff       	callq  760e <crc32_byte>
    76f0:	90                   	nop
    76f1:	c9                   	leaveq 
    76f2:	c3                   	retq   

00000000000076f3 <transparent_crc>:
    76f3:	f3 0f 1e fa          	endbr64 
    76f7:	55                   	push   %rbp
    76f8:	48 89 e5             	mov    %rsp,%rbp
    76fb:	48 83 ec 20          	sub    $0x20,%rsp
    76ff:	48 89 7d f8          	mov    %rdi,-0x8(%rbp)
    7703:	48 89 75 f0          	mov    %rsi,-0x10(%rbp)
    7707:	89 55 ec             	mov    %edx,-0x14(%rbp)
    770a:	48 8b 45 f8          	mov    -0x8(%rbp),%rax
    770e:	48 89 c7             	mov    %rax,%rdi
    7711:	e8 3e ff ff ff       	callq  7654 <crc32_8bytes>
    7716:	83 7d ec 00          	cmpl   $0x0,-0x14(%rbp)
    771a:	74 22                	je     773e <transparent_crc+0x4b>
    771c:	8b 05 fe f8 00 00    	mov    0xf8fe(%rip),%eax        # 17020 <crc32_context>
    7722:	f7 d0                	not    %eax
    7724:	89 c2                	mov    %eax,%edx
    7726:	48 8b 45 f0          	mov    -0x10(%rbp),%rax
    772a:	48 89 c6             	mov    %rax,%rsi
    772d:	48 8d 3d fc a8 00 00 	lea    0xa8fc(%rip),%rdi        # 12030 <_IO_stdin_used+0x30>
    7734:	b8 00 00 00 00       	mov    $0x0,%eax
    7739:	e8 42 e9 ff ff       	callq  6080 <printf@plt>
    773e:	90                   	nop
    773f:	c9                   	leaveq 
    7740:	c3                   	retq   

0000000000007741 <transparent_crc_bytes>:
    7741:	f3 0f 1e fa          	endbr64 
    7745:	55                   	push   %rbp
    7746:	48 89 e5             	mov    %rsp,%rbp
    7749:	48 83 ec 30          	sub    $0x30,%rsp
    774d:	48 89 7d e8          	mov    %rdi,-0x18(%rbp)
    7751:	89 75 e4             	mov    %esi,-0x1c(%rbp)
    7754:	48 89 55 d8          	mov    %rdx,-0x28(%rbp)
    7758:	89 4d e0             	mov    %ecx,-0x20(%rbp)
    775b:	c7 45 fc 00 00 00 00 	movl   $0x0,-0x4(%rbp)
    7762:	eb 1e                	jmp    7782 <transparent_crc_bytes+0x41>
    7764:	8b 45 fc             	mov    -0x4(%rbp),%eax
    7767:	48 63 d0             	movslq %eax,%rdx
    776a:	48 8b 45 e8          	mov    -0x18(%rbp),%rax
    776e:	48 01 d0             	add    %rdx,%rax
    7771:	0f b6 00             	movzbl (%rax),%eax
    7774:	0f b6 c0             	movzbl %al,%eax
    7777:	89 c7                	mov    %eax,%edi
    7779:	e8 90 fe ff ff       	callq  760e <crc32_byte>
    777e:	83 45 fc 01          	addl   $0x1,-0x4(%rbp)
    7782:	8b 45 fc             	mov    -0x4(%rbp),%eax
    7785:	3b 45 e4             	cmp    -0x1c(%rbp),%eax
    7788:	7c da                	jl     7764 <transparent_crc_bytes+0x23>
    778a:	83 7d e0 00          	cmpl   $0x0,-0x20(%rbp)
    778e:	74 22                	je     77b2 <transparent_crc_bytes+0x71>
    7790:	8b 05 8a f8 00 00    	mov    0xf88a(%rip),%eax        # 17020 <crc32_context>
    7796:	f7 d0                	not    %eax
    7798:	89 c2                	mov    %eax,%edx
    779a:	48 8b 45 d8          	mov    -0x28(%rbp),%rax
    779e:	48 89 c6             	mov    %rax,%rsi
    77a1:	48 8d 3d 88 a8 00 00 	lea    0xa888(%rip),%rdi        # 12030 <_IO_stdin_used+0x30>
    77a8:	b8 00 00 00 00       	mov    $0x0,%eax
    77ad:	e8 ce e8 ff ff       	callq  6080 <printf@plt>
    77b2:	90                   	nop
    77b3:	c9                   	leaveq 
    77b4:	c3                   	retq   

00000000000077b5 <func_1>:
    77b5:	f3 0f 1e fa          	endbr64 
    77b9:	55                   	push   %rbp
    77ba:	48 89 e5             	mov    %rsp,%rbp
    77bd:	41 57                	push   %r15
    77bf:	41 56                	push   %r14
    77c1:	41 55                	push   %r13
    77c3:	41 54                	push   %r12
    77c5:	53                   	push   %rbx
    77c6:	48 81 ec 68 08 00 00 	sub    $0x868,%rsp
    77cd:	64 48 8b 04 25 28 00 	mov    %fs:0x28,%rax
    77d4:	00 00 
    77d6:	48 89 45 c8          	mov    %rax,-0x38(%rbp)
    77da:	31 c0                	xor    %eax,%eax
    77dc:	c7 85 9c f7 ff ff 00 	movl   $0x0,-0x864(%rbp)
    77e3:	00 00 00 
    77e6:	48 8d 05 33 1a 01 00 	lea    0x11a33(%rip),%rax        # 19220 <g_1472>
    77ed:	48 89 85 a8 f7 ff ff 	mov    %rax,-0x858(%rbp)
    77f4:	48 c7 85 28 f8 ff ff 	movq   $0x0,-0x7d8(%rbp)
    77fb:	00 00 00 00 
    77ff:	48 8d 05 4a 15 01 00 	lea    0x1154a(%rip),%rax        # 18d50 <g_740>
    7806:	48 89 85 b0 f7 ff ff 	mov    %rax,-0x850(%rbp)
    780d:	48 8d 85 b0 f7 ff ff 	lea    -0x850(%rbp),%rax
    7814:	48 89 85 30 f8 ff ff 	mov    %rax,-0x7d0(%rbp)
    781b:	48 8d 85 e0 fc ff ff 	lea    -0x320(%rbp),%rax
    7822:	48 8d 15 57 a8 00 00 	lea    0xa857(%rip),%rdx        # 12080 <g_2501+0x20>
    7829:	b9 3f 00 00 00       	mov    $0x3f,%ecx
    782e:	48 89 c7             	mov    %rax,%rdi
    7831:	48 89 d6             	mov    %rdx,%rsi
    7834:	f3 48 a5             	rep movsq %ds:(%rsi),%es:(%rdi)
    7837:	48 8d 05 62 fd 00 00 	lea    0xfd62(%rip),%rax        # 175a0 <g_1917>
    783e:	48 89 85 c0 f8 ff ff 	mov    %rax,-0x740(%rbp)
    7845:	48 8d 05 54 fd 00 00 	lea    0xfd54(%rip),%rax        # 175a0 <g_1917>
    784c:	48 89 85 c8 f8 ff ff 	mov    %rax,-0x738(%rbp)
    7853:	48 8d 05 46 fd 00 00 	lea    0xfd46(%rip),%rax        # 175a0 <g_1917>
    785a:	48 89 85 d0 f8 ff ff 	mov    %rax,-0x730(%rbp)
    7861:	48 8d 05 38 fd 00 00 	lea    0xfd38(%rip),%rax        # 175a0 <g_1917>
    7868:	48 89 85 d8 f8 ff ff 	mov    %rax,-0x728(%rbp)
    786f:	48 8d 05 2a fd 00 00 	lea    0xfd2a(%rip),%rax        # 175a0 <g_1917>
    7876:	48 89 85 e0 f8 ff ff 	mov    %rax,-0x720(%rbp)
    787d:	48 8d 05 1c fd 00 00 	lea    0xfd1c(%rip),%rax        # 175a0 <g_1917>
    7884:	48 89 85 e8 f8 ff ff 	mov    %rax,-0x718(%rbp)
    788b:	48 8d 05 0e fd 00 00 	lea    0xfd0e(%rip),%rax        # 175a0 <g_1917>
    7892:	48 89 85 f0 f8 ff ff 	mov    %rax,-0x710(%rbp)
    7899:	48 8d 05 00 fd 00 00 	lea    0xfd00(%rip),%rax        # 175a0 <g_1917>
    78a0:	48 89 85 f8 f8 ff ff 	mov    %rax,-0x708(%rbp)
    78a7:	48 c7 85 b8 f7 ff ff 	movq   $0x0,-0x848(%rbp)
    78ae:	00 00 00 00 
    78b2:	48 8d 85 b8 f7 ff ff 	lea    -0x848(%rbp),%rax
    78b9:	48 89 85 c0 f7 ff ff 	mov    %rax,-0x840(%rbp)
    78c0:	48 8d 85 c0 f7 ff ff 	lea    -0x840(%rbp),%rax
    78c7:	48 89 85 38 f8 ff ff 	mov    %rax,-0x7c8(%rbp)
    78ce:	c6 85 71 f7 ff ff 3d 	movb   $0x3d,-0x88f(%rbp)
    78d5:	48 8d 05 86 fc 00 00 	lea    0xfc86(%rip),%rax        # 17562 <g_1607+0x2>
    78dc:	48 89 85 c8 f7 ff ff 	mov    %rax,-0x838(%rbp)
    78e3:	48 8d 05 60 fc 00 00 	lea    0xfc60(%rip),%rax        # 1754a <g_936>
    78ea:	48 89 85 d0 f7 ff ff 	mov    %rax,-0x830(%rbp)
    78f1:	48 8d 85 d0 f7 ff ff 	lea    -0x830(%rbp),%rax
    78f8:	48 89 85 d8 f7 ff ff 	mov    %rax,-0x828(%rbp)
    78ff:	48 8d 05 32 fc 00 00 	lea    0xfc32(%rip),%rax        # 17538 <g_594>
    7906:	48 89 85 40 f8 ff ff 	mov    %rax,-0x7c0(%rbp)
    790d:	48 8d 85 d8 f7 ff ff 	lea    -0x828(%rbp),%rax
    7914:	48 89 85 e0 f7 ff ff 	mov    %rax,-0x820(%rbp)
    791b:	48 8d 85 e0 f7 ff ff 	lea    -0x820(%rbp),%rax
    7922:	48 89 85 48 f8 ff ff 	mov    %rax,-0x7b8(%rbp)
    7929:	c7 45 bf 01 01 01 01 	movl   $0x1010101,-0x41(%rbp)
    7930:	66 c7 85 74 f7 ff ff 	movw   $0x8790,-0x88c(%rbp)
    7937:	90 87 
    7939:	c7 85 a0 f7 ff ff 89 	movl   $0xfe0a1389,-0x860(%rbp)
    7940:	13 0a fe 
    7943:	48 b8 1d fa 76 b8 d5 	movabs $0xe6dce8d5b876fa1d,%rax
    794a:	e8 dc e6 
    794d:	48 89 85 10 f8 ff ff 	mov    %rax,-0x7f0(%rbp)
    7954:	48 c7 85 e8 f7 ff ff 	movq   $0x0,-0x818(%rbp)
    795b:	00 00 00 00 
    795f:	48 b8 c5 17 b7 21 c7 	movabs $0xcd8aeec721b717c5,%rax
    7966:	ee 8a cd 
    7969:	48 89 85 18 f8 ff ff 	mov    %rax,-0x7e8(%rbp)
    7970:	f3 0f 1e fa          	endbr64 
    7974:	c7 05 36 f7 00 00 00 	movl   $0x0,0xf736(%rip)        # 170b4 <g_4+0x74>
    797b:	00 00 00 
    797e:	eb 77                	jmp    79f7 <func_1+0x242>
    7980:	66 c7 85 78 f7 ff ff 	movw   $0x1,-0x888(%rbp)
    7987:	01 00 
    7989:	66 c7 85 7a f7 ff ff 	movw   $0x0,-0x886(%rbp)
    7990:	00 00 
    7992:	48 8d 05 87 18 01 00 	lea    0x11887(%rip),%rax        # 19220 <g_1472>
    7999:	48 89 85 98 f8 ff ff 	mov    %rax,-0x768(%rbp)
    79a0:	48 c7 85 a0 f8 ff ff 	movq   $0xfffffffffffffff8,-0x760(%rbp)
    79a7:	f8 ff ff ff 
    79ab:	48 8d 85 c8 f7 ff ff 	lea    -0x838(%rbp),%rax
    79b2:	48 89 85 a8 f8 ff ff 	mov    %rax,-0x758(%rbp)
    79b9:	c7 85 a4 f7 ff ff 00 	movl   $0x0,-0x85c(%rbp)
    79c0:	00 00 00 
    79c3:	eb 1a                	jmp    79df <func_1+0x22a>
    79c5:	8b 85 a4 f7 ff ff    	mov    -0x85c(%rbp),%eax
    79cb:	48 98                	cltq   
    79cd:	c7 84 85 00 fb ff ff 	movl   $0xfffffffd,-0x500(%rbp,%rax,4)
    79d4:	fd ff ff ff 
    79d8:	83 85 a4 f7 ff ff 01 	addl   $0x1,-0x85c(%rbp)
    79df:	83 bd a4 f7 ff ff 02 	cmpl   $0x2,-0x85c(%rbp)
    79e6:	7e dd                	jle    79c5 <func_1+0x210>
    79e8:	8b 05 c6 f6 00 00    	mov    0xf6c6(%rip),%eax        # 170b4 <g_4+0x74>
    79ee:	83 c0 01             	add    $0x1,%eax
    79f1:	89 05 bd f6 00 00    	mov    %eax,0xf6bd(%rip)        # 170b4 <g_4+0x74>
    79f7:	8b 05 b7 f6 00 00    	mov    0xf6b7(%rip),%eax        # 170b4 <g_4+0x74>
    79fd:	83 f8 07             	cmp    $0x7,%eax
    7a00:	0f 84 7a ff ff ff    	je     7980 <func_1+0x1cb>
    7a06:	48 8b 85 40 f8 ff ff 	mov    -0x7c0(%rbp),%rax
    7a0d:	8b 10                	mov    (%rax),%edx
    7a0f:	0f b6 85 71 f7 ff ff 	movzbl -0x88f(%rbp),%eax
    7a16:	09 c2                	or     %eax,%edx
    7a18:	48 8b 85 40 f8 ff ff 	mov    -0x7c0(%rbp),%rax
    7a1f:	89 10                	mov    %edx,(%rax)
    7a21:	c7 85 90 f7 ff ff 01 	movl   $0x1,-0x870(%rbp)
    7a28:	00 00 00 
    7a2b:	48 8d 05 6e fb 00 00 	lea    0xfb6e(%rip),%rax        # 175a0 <g_1917>
    7a32:	48 89 85 00 f9 ff ff 	mov    %rax,-0x700(%rbp)
    7a39:	48 8d 05 60 fb 00 00 	lea    0xfb60(%rip),%rax        # 175a0 <g_1917>
    7a40:	48 89 85 08 f9 ff ff 	mov    %rax,-0x6f8(%rbp)
    7a47:	48 8d 05 52 fb 00 00 	lea    0xfb52(%rip),%rax        # 175a0 <g_1917>
    7a4e:	48 89 85 10 f9 ff ff 	mov    %rax,-0x6f0(%rbp)
    7a55:	48 8d 05 48 fb 00 00 	lea    0xfb48(%rip),%rax        # 175a4 <g_1919>
    7a5c:	48 89 85 18 f9 ff ff 	mov    %rax,-0x6e8(%rbp)
    7a63:	48 8d 05 36 fb 00 00 	lea    0xfb36(%rip),%rax        # 175a0 <g_1917>
    7a6a:	48 89 85 20 f9 ff ff 	mov    %rax,-0x6e0(%rbp)
    7a71:	48 8d 05 2c fb 00 00 	lea    0xfb2c(%rip),%rax        # 175a4 <g_1919>
    7a78:	48 89 85 28 f9 ff ff 	mov    %rax,-0x6d8(%rbp)
    7a7f:	48 8d 05 1a fb 00 00 	lea    0xfb1a(%rip),%rax        # 175a0 <g_1917>
    7a86:	48 89 85 30 f9 ff ff 	mov    %rax,-0x6d0(%rbp)
    7a8d:	48 8d 05 0c fb 00 00 	lea    0xfb0c(%rip),%rax        # 175a0 <g_1917>
    7a94:	48 89 85 38 f9 ff ff 	mov    %rax,-0x6c8(%rbp)
    7a9b:	48 8d 05 fe fa 00 00 	lea    0xfafe(%rip),%rax        # 175a0 <g_1917>
    7aa2:	48 89 85 40 f9 ff ff 	mov    %rax,-0x6c0(%rbp)
    7aa9:	48 8d 05 f4 fa 00 00 	lea    0xfaf4(%rip),%rax        # 175a4 <g_1919>
    7ab0:	48 89 85 48 f9 ff ff 	mov    %rax,-0x6b8(%rbp)
    7ab7:	48 8d 05 e2 fa 00 00 	lea    0xfae2(%rip),%rax        # 175a0 <g_1917>
    7abe:	48 89 85 50 f9 ff ff 	mov    %rax,-0x6b0(%rbp)
    7ac5:	48 8d 05 d8 fa 00 00 	lea    0xfad8(%rip),%rax        # 175a4 <g_1919>
    7acc:	48 89 85 58 f9 ff ff 	mov    %rax,-0x6a8(%rbp)
    7ad3:	c7 85 84 f7 ff ff 61 	movl   $0xd82db061,-0x87c(%rbp)
    7ada:	b0 2d d8 
    7add:	c7 85 7c f7 ff ff 01 	movl   $0x1,-0x884(%rbp)
    7ae4:	00 00 00 
    7ae7:	48 c7 85 f0 f7 ff ff 	movq   $0x0,-0x810(%rbp)
    7aee:	00 00 00 00 
    7af2:	48 c7 85 f8 f7 ff ff 	movq   $0x0,-0x808(%rbp)
    7af9:	00 00 00 00 
    7afd:	c6 05 1b fa 00 00 00 	movb   $0x0,0xfa1b(%rip)        # 1751f <g_271>
    7b04:	90                   	nop
    7b05:	0f b6 05 13 fa 00 00 	movzbl 0xfa13(%rip),%eax        # 1751f <g_271>
    7b0c:	3c ef                	cmp    $0xef,%al
    7b0e:	7d 0b                	jge    7b1b <func_1+0x366>
    7b10:	8b 85 90 f7 ff ff    	mov    -0x870(%rbp),%eax
    7b16:	e9 9e 0f 00 00       	jmpq   8ab9 <func_1+0x1304>
    7b1b:	c6 05 32 fa 00 00 00 	movb   $0x0,0xfa32(%rip)        # 17554 <g_1350>
    7b22:	e9 67 0f 00 00       	jmpq   8a8e <func_1+0x12d9>
    7b27:	c7 85 88 f7 ff ff f8 	movl   $0xfffffff8,-0x878(%rbp)
    7b2e:	ff ff ff 
    7b31:	c7 85 80 f7 ff ff ff 	movl   $0xffffffff,-0x880(%rbp)
    7b38:	ff ff ff 
    7b3b:	48 8d 85 d8 f7 ff ff 	lea    -0x828(%rbp),%rax
    7b42:	48 89 85 00 f8 ff ff 	mov    %rax,-0x800(%rbp)
    7b49:	c7 85 8c f7 ff ff 00 	movl   $0x0,-0x874(%rbp)
    7b50:	00 00 00 
    7b53:	eb 4b                	jmp    7ba0 <func_1+0x3eb>
    7b55:	c7 85 94 f7 ff ff 00 	movl   $0x0,-0x86c(%rbp)
    7b5c:	00 00 00 
    7b5f:	eb 2f                	jmp    7b90 <func_1+0x3db>
    7b61:	8b 85 94 f7 ff ff    	mov    -0x86c(%rbp),%eax
    7b67:	48 98                	cltq   
    7b69:	8b 95 8c f7 ff ff    	mov    -0x874(%rbp),%edx
    7b6f:	48 63 d2             	movslq %edx,%rdx
    7b72:	48 c1 e2 03          	shl    $0x3,%rdx
    7b76:	48 8d 5d d0          	lea    -0x30(%rbp),%rbx
    7b7a:	48 01 da             	add    %rbx,%rdx
    7b7d:	48 01 d0             	add    %rdx,%rax
    7b80:	48 2d 18 07 00 00    	sub    $0x718,%rax
    7b86:	c6 00 07             	movb   $0x7,(%rax)
    7b89:	83 85 94 f7 ff ff 01 	addl   $0x1,-0x86c(%rbp)
    7b90:	83 bd 94 f7 ff ff 07 	cmpl   $0x7,-0x86c(%rbp)
    7b97:	7e c8                	jle    7b61 <func_1+0x3ac>
    7b99:	83 85 8c f7 ff ff 01 	addl   $0x1,-0x874(%rbp)
    7ba0:	83 bd 8c f7 ff ff 00 	cmpl   $0x0,-0x874(%rbp)
    7ba7:	7e ac                	jle    7b55 <func_1+0x3a0>
    7ba9:	c7 85 8c f7 ff ff 00 	movl   $0x0,-0x874(%rbp)
    7bb0:	00 00 00 
    7bb3:	eb 19                	jmp    7bce <func_1+0x419>
    7bb5:	8b 85 8c f7 ff ff    	mov    -0x874(%rbp),%eax
    7bbb:	48 98                	cltq   
    7bbd:	66 c7 84 45 b6 f8 ff 	movw   $0xffff,-0x74a(%rbp,%rax,2)
    7bc4:	ff ff ff 
    7bc7:	83 85 8c f7 ff ff 01 	addl   $0x1,-0x874(%rbp)
    7bce:	83 bd 8c f7 ff ff 00 	cmpl   $0x0,-0x874(%rbp)
    7bd5:	7e de                	jle    7bb5 <func_1+0x400>
    7bd7:	66 c7 05 10 f9 00 00 	movw   $0x0,0xf910(%rip)        # 174f0 <g_203>
    7bde:	00 00 
    7be0:	e9 e5 09 00 00       	jmpq   85ca <func_1+0xe15>
    7be5:	48 8d 05 91 f9 00 00 	lea    0xf991(%rip),%rax        # 1757d <g_1607+0x1d>
    7bec:	48 89 85 08 f8 ff ff 	mov    %rax,-0x7f8(%rbp)
    7bf3:	c7 85 60 f9 ff ff f2 	movl   $0xd31becf2,-0x6a0(%rbp)
    7bfa:	ec 1b d3 
    7bfd:	c7 85 64 f9 ff ff 08 	movl   $0x8,-0x69c(%rbp)
    7c04:	00 00 00 
    7c07:	c7 85 68 f9 ff ff fe 	movl   $0xfffffffe,-0x698(%rbp)
    7c0e:	ff ff ff 
    7c11:	c7 85 6c f9 ff ff 08 	movl   $0x8,-0x694(%rbp)
    7c18:	00 00 00 
    7c1b:	c7 85 70 f9 ff ff f2 	movl   $0xd31becf2,-0x690(%rbp)
    7c22:	ec 1b d3 
    7c25:	c7 85 74 f9 ff ff 6c 	movl   $0x7378a46c,-0x68c(%rbp)
    7c2c:	a4 78 73 
    7c2f:	c7 85 78 f9 ff ff 6c 	movl   $0x7378a46c,-0x688(%rbp)
    7c36:	a4 78 73 
    7c39:	c7 85 7c f9 ff ff f2 	movl   $0xd31becf2,-0x684(%rbp)
    7c40:	ec 1b d3 
    7c43:	c7 85 80 f9 ff ff 08 	movl   $0x8,-0x680(%rbp)
    7c4a:	00 00 00 
    7c4d:	c7 85 84 f9 ff ff 00 	movl   $0x0,-0x67c(%rbp)
    7c54:	00 00 00 
    7c57:	c7 85 88 f9 ff ff 00 	movl   $0x0,-0x678(%rbp)
    7c5e:	00 00 00 
    7c61:	c7 85 8c f9 ff ff 08 	movl   $0x8,-0x674(%rbp)
    7c68:	00 00 00 
    7c6b:	c7 85 90 f9 ff ff f6 	movl   $0xfffffff6,-0x670(%rbp)
    7c72:	ff ff ff 
    7c75:	c7 85 94 f9 ff ff f2 	movl   $0xd31becf2,-0x66c(%rbp)
    7c7c:	ec 1b d3 
    7c7f:	c7 85 98 f9 ff ff f6 	movl   $0xfffffff6,-0x668(%rbp)
    7c86:	ff ff ff 
    7c89:	c7 85 9c f9 ff ff 08 	movl   $0x8,-0x664(%rbp)
    7c90:	00 00 00 
    7c93:	c7 85 a0 f9 ff ff 00 	movl   $0x0,-0x660(%rbp)
    7c9a:	00 00 00 
    7c9d:	c7 85 a4 f9 ff ff f6 	movl   $0xfffffff6,-0x65c(%rbp)
    7ca4:	ff ff ff 
    7ca7:	c7 85 a8 f9 ff ff 00 	movl   $0x0,-0x658(%rbp)
    7cae:	00 00 00 
    7cb1:	c7 85 ac f9 ff ff 6c 	movl   $0x7378a46c,-0x654(%rbp)
    7cb8:	a4 78 73 
    7cbb:	c7 85 b0 f9 ff ff fe 	movl   $0xfffffffe,-0x650(%rbp)
    7cc2:	ff ff ff 
    7cc5:	c7 85 b4 f9 ff ff fe 	movl   $0xfffffffe,-0x64c(%rbp)
    7ccc:	ff ff ff 
    7ccf:	c7 85 b8 f9 ff ff 6c 	movl   $0x7378a46c,-0x648(%rbp)
    7cd6:	a4 78 73 
    7cd9:	c7 85 bc f9 ff ff 00 	movl   $0x0,-0x644(%rbp)
    7ce0:	00 00 00 
    7ce3:	c7 85 c0 f9 ff ff f6 	movl   $0xfffffff6,-0x640(%rbp)
    7cea:	ff ff ff 
    7ced:	c7 85 c4 f9 ff ff f6 	movl   $0xfffffff6,-0x63c(%rbp)
    7cf4:	ff ff ff 
    7cf7:	c7 85 c8 f9 ff ff fe 	movl   $0xfffffffe,-0x638(%rbp)
    7cfe:	ff ff ff 
    7d01:	c7 85 cc f9 ff ff f2 	movl   $0xd31becf2,-0x634(%rbp)
    7d08:	ec 1b d3 
    7d0b:	c7 85 d0 f9 ff ff 06 	movl   $0x6,-0x630(%rbp)
    7d12:	00 00 00 
    7d15:	c7 85 d4 f9 ff ff f2 	movl   $0xd31becf2,-0x62c(%rbp)
    7d1c:	ec 1b d3 
    7d1f:	c7 85 d8 f9 ff ff fe 	movl   $0xfffffffe,-0x628(%rbp)
    7d26:	ff ff ff 
    7d29:	c7 85 dc f9 ff ff f6 	movl   $0xfffffff6,-0x624(%rbp)
    7d30:	ff ff ff 
    7d33:	48 c7 85 20 f8 ff ff 	movq   $0xffffffffffffffff,-0x7e0(%rbp)
    7d3a:	ff ff ff ff 
    7d3e:	48 8b 05 9b 15 01 00 	mov    0x1159b(%rip),%rax        # 192e0 <g_1878>
    7d45:	48 8b 00             	mov    (%rax),%rax
    7d48:	48 8b 00             	mov    (%rax),%rax
    7d4b:	48 ba 55 f1 37 b4 37 	movabs $0xb35ba337b437f155,%rdx
    7d52:	a3 5b b3 
    7d55:	48 39 d0             	cmp    %rdx,%rax
    7d58:	0f 96 c0             	setbe  %al
    7d5b:	89 c2                	mov    %eax,%edx
    7d5d:	48 8b 85 08 f8 ff ff 	mov    -0x7f8(%rbp),%rax
    7d64:	88 10                	mov    %dl,(%rax)
    7d66:	48 8b 85 08 f8 ff ff 	mov    -0x7f8(%rbp),%rax
    7d6d:	0f b6 00             	movzbl (%rax),%eax
    7d70:	0f be c0             	movsbl %al,%eax
    7d73:	39 85 90 f7 ff ff    	cmp    %eax,-0x870(%rbp)
    7d79:	0f 92 c0             	setb   %al
    7d7c:	88 85 bb f8 ff ff    	mov    %al,-0x745(%rbp)
    7d82:	0f b6 85 bb f8 ff ff 	movzbl -0x745(%rbp),%eax
    7d89:	0f b6 c0             	movzbl %al,%eax
    7d8c:	be 09 00 00 00       	mov    $0x9,%esi
    7d91:	89 c7                	mov    %eax,%edi
    7d93:	e8 26 f0 ff ff       	callq  6dbe <safe_lshift_func_uint16_t_u_s>
    7d98:	0f b7 c0             	movzwl %ax,%eax
    7d9b:	be 01 00 00 00       	mov    $0x1,%esi
    7da0:	89 c7                	mov    %eax,%edi
    7da2:	e8 96 ef ff ff       	callq  6d3d <safe_mul_func_uint16_t_u_u>
    7da7:	66 85 c0             	test   %ax,%ax
    7daa:	74 12                	je     7dbe <func_1+0x609>
    7dac:	83 bd a0 f7 ff ff 00 	cmpl   $0x0,-0x860(%rbp)
    7db3:	0f 84 f0 07 00 00    	je     85a9 <func_1+0xdf4>
    7db9:	e9 1d 08 00 00       	jmpq   85db <func_1+0xe26>
    7dbe:	c7 45 c3 f6 f6 f6 f6 	movl   $0xf6f6f6f6,-0x3d(%rbp)
    7dc5:	c6 45 c7 f6          	movb   $0xf6,-0x39(%rbp)
    7dc9:	48 8d 85 00 fb ff ff 	lea    -0x500(%rbp),%rax
    7dd0:	48 8d 15 a9 a4 00 00 	lea    0xa4a9(%rip),%rdx        # 12280 <g_2501+0x220>
    7dd7:	b9 3c 00 00 00       	mov    $0x3c,%ecx
    7ddc:	48 89 c7             	mov    %rax,%rdi
    7ddf:	48 89 d6             	mov    %rdx,%rsi
    7de2:	f3 48 a5             	rep movsq %ds:(%rsi),%es:(%rdi)
    7de5:	c7 05 f1 f2 00 00 01 	movl   $0x1,0xf2f1(%rip)        # 170e0 <g_83>
    7dec:	00 00 00 
    7def:	e9 83 02 00 00       	jmpq   8077 <func_1+0x8c2>
    7df4:	c6 85 72 f7 ff ff 06 	movb   $0x6,-0x88e(%rbp)
    7dfb:	48 8d 05 12 f8 00 00 	lea    0xf812(%rip),%rax        # 17614 <g_2483+0x4>
    7e02:	48 89 85 60 f8 ff ff 	mov    %rax,-0x7a0(%rbp)
    7e09:	48 c7 85 68 f8 ff ff 	movq   $0x0,-0x798(%rbp)
    7e10:	00 00 00 00 
    7e14:	48 8d 05 35 f7 00 00 	lea    0xf735(%rip),%rax        # 17550 <g_1276>
    7e1b:	48 89 85 70 f8 ff ff 	mov    %rax,-0x790(%rbp)
    7e22:	48 8d 05 8b f2 00 00 	lea    0xf28b(%rip),%rax        # 170b4 <g_4+0x74>
    7e29:	48 89 85 e0 f9 ff ff 	mov    %rax,-0x620(%rbp)
    7e30:	48 8d 05 7d f2 00 00 	lea    0xf27d(%rip),%rax        # 170b4 <g_4+0x74>
    7e37:	48 89 85 e8 f9 ff ff 	mov    %rax,-0x618(%rbp)
    7e3e:	48 8d 05 6f f2 00 00 	lea    0xf26f(%rip),%rax        # 170b4 <g_4+0x74>
    7e45:	48 89 85 f0 f9 ff ff 	mov    %rax,-0x610(%rbp)
    7e4c:	48 8d 05 61 f2 00 00 	lea    0xf261(%rip),%rax        # 170b4 <g_4+0x74>
    7e53:	48 89 85 f8 f9 ff ff 	mov    %rax,-0x608(%rbp)
    7e5a:	48 8d 05 53 f2 00 00 	lea    0xf253(%rip),%rax        # 170b4 <g_4+0x74>
    7e61:	48 89 85 00 fa ff ff 	mov    %rax,-0x600(%rbp)
    7e68:	48 8d 05 45 f2 00 00 	lea    0xf245(%rip),%rax        # 170b4 <g_4+0x74>
    7e6f:	48 89 85 08 fa ff ff 	mov    %rax,-0x5f8(%rbp)
    7e76:	44 0f b6 a5 72 f7 ff 	movzbl -0x88e(%rbp),%r12d
    7e7d:	ff 
    7e7e:	8b 85 80 f9 ff ff    	mov    -0x680(%rbp),%eax
    7e84:	89 85 b0 f9 ff ff    	mov    %eax,-0x650(%rbp)
    7e8a:	8b 9d b0 f9 ff ff    	mov    -0x650(%rbp),%ebx
    7e90:	0f b6 85 bb f8 ff ff 	movzbl -0x745(%rbp),%eax
    7e97:	0f b6 c0             	movzbl %al,%eax
    7e9a:	48 89 c6             	mov    %rax,%rsi
    7e9d:	bf 00 00 00 00       	mov    $0x0,%edi
    7ea2:	e8 d9 f1 ff ff       	callq  7080 <safe_mod_func_uint64_t_u_u>
    7ea7:	48 89 c6             	mov    %rax,%rsi
    7eaa:	8b 05 30 f2 00 00    	mov    0xf230(%rip),%eax        # 170e0 <g_83>
    7eb0:	8d 78 03             	lea    0x3(%rax),%edi
    7eb3:	0f b7 05 36 f6 00 00 	movzwl 0xf636(%rip),%eax        # 174f0 <g_203>
    7eba:	0f b7 c8             	movzwl %ax,%ecx
    7ebd:	0f b7 05 2c f6 00 00 	movzwl 0xf62c(%rip),%eax        # 174f0 <g_203>
    7ec4:	0f b7 d0             	movzwl %ax,%edx
    7ec7:	41 89 f2             	mov    %esi,%r10d
    7eca:	4c 63 c2             	movslq %edx,%r8
    7ecd:	48 63 f7             	movslq %edi,%rsi
    7ed0:	4c 63 c9             	movslq %ecx,%r9
    7ed3:	48 89 f0             	mov    %rsi,%rax
    7ed6:	48 01 c0             	add    %rax,%rax
    7ed9:	48 01 f0             	add    %rsi,%rax
    7edc:	4c 01 c8             	add    %r9,%rax
    7edf:	48 01 c0             	add    %rax,%rax
    7ee2:	4a 8d 34 00          	lea    (%rax,%r8,1),%rsi
    7ee6:	48 8d 05 73 f6 00 00 	lea    0xf673(%rip),%rax        # 17560 <g_1607>
    7eed:	48 01 f0             	add    %rsi,%rax
    7ef0:	44 88 10             	mov    %r10b,(%rax)
    7ef3:	48 63 f2             	movslq %edx,%rsi
    7ef6:	48 63 d7             	movslq %edi,%rdx
    7ef9:	48 63 c9             	movslq %ecx,%rcx
    7efc:	48 89 d0             	mov    %rdx,%rax
    7eff:	48 01 c0             	add    %rax,%rax
    7f02:	48 01 d0             	add    %rdx,%rax
    7f05:	48 01 c8             	add    %rcx,%rax
    7f08:	48 01 c0             	add    %rax,%rax
    7f0b:	48 8d 14 30          	lea    (%rax,%rsi,1),%rdx
    7f0f:	48 8d 05 4a f6 00 00 	lea    0xf64a(%rip),%rax        # 17560 <g_1607>
    7f16:	48 01 d0             	add    %rdx,%rax
    7f19:	0f b6 00             	movzbl (%rax),%eax
    7f1c:	0f be c0             	movsbl %al,%eax
    7f1f:	89 de                	mov    %ebx,%esi
    7f21:	89 c7                	mov    %eax,%edi
    7f23:	e8 0d e4 ff ff       	callq  6335 <safe_rshift_func_int8_t_s_s>
    7f28:	48 0f be c0          	movsbq %al,%rax
    7f2c:	48 39 85 20 f8 ff ff 	cmp    %rax,-0x7e0(%rbp)
    7f33:	74 15                	je     7f4a <func_1+0x795>
    7f35:	48 8b 05 bc 12 01 00 	mov    0x112bc(%rip),%rax        # 191f8 <g_1132>
    7f3c:	0f b6 00             	movzbl (%rax),%eax
    7f3f:	84 c0                	test   %al,%al
    7f41:	74 07                	je     7f4a <func_1+0x795>
    7f43:	ba 01 00 00 00       	mov    $0x1,%edx
    7f48:	eb 05                	jmp    7f4f <func_1+0x79a>
    7f4a:	ba 00 00 00 00       	mov    $0x0,%edx
    7f4f:	48 8b 05 ea 13 01 00 	mov    0x113ea(%rip),%rax        # 19340 <g_1875>
    7f56:	48 8b 00             	mov    (%rax),%rax
    7f59:	48 8b 00             	mov    (%rax),%rax
    7f5c:	48 8b 00             	mov    (%rax),%rax
    7f5f:	48 8b 00             	mov    (%rax),%rax
    7f62:	48 8b 08             	mov    (%rax),%rcx
    7f65:	48 63 d2             	movslq %edx,%rdx
    7f68:	48 8b 05 d1 13 01 00 	mov    0x113d1(%rip),%rax        # 19340 <g_1875>
    7f6f:	48 8b 00             	mov    (%rax),%rax
    7f72:	48 8b 00             	mov    (%rax),%rax
    7f75:	48 8b 00             	mov    (%rax),%rax
    7f78:	48 8b 00             	mov    (%rax),%rax
    7f7b:	48 31 ca             	xor    %rcx,%rdx
    7f7e:	48 89 10             	mov    %rdx,(%rax)
    7f81:	48 8b 00             	mov    (%rax),%rax
    7f84:	89 85 84 f7 ff ff    	mov    %eax,-0x87c(%rbp)
    7f8a:	44 39 a5 84 f7 ff ff 	cmp    %r12d,-0x87c(%rbp)
    7f91:	0f 9d c0             	setge  %al
    7f94:	0f b6 c0             	movzbl %al,%eax
    7f97:	be ff ff ff ff       	mov    $0xffffffff,%esi
    7f9c:	89 c7                	mov    %eax,%edi
    7f9e:	e8 73 e4 ff ff       	callq  6416 <safe_mod_func_int16_t_s_s>
    7fa3:	0f bf d0             	movswl %ax,%edx
    7fa6:	8b 05 80 f6 00 00    	mov    0xf680(%rip),%eax        # 1762c <g_2870>
    7fac:	21 d0                	and    %edx,%eax
    7fae:	89 c0                	mov    %eax,%eax
    7fb0:	25 d1 ab 2c 10       	and    $0x102cabd1,%eax
    7fb5:	48 be b1 74 dc 52 ae 	movabs $0x1e8ac3ae52dc74b1,%rsi
    7fbc:	c3 8a 1e 
    7fbf:	48 89 c7             	mov    %rax,%rdi
    7fc2:	e8 b9 f0 ff ff       	callq  7080 <safe_mod_func_uint64_t_u_u>
    7fc7:	48 33 85 20 f8 ff ff 	xor    -0x7e0(%rbp),%rax
    7fce:	48 3d f5 00 00 00    	cmp    $0xf5,%rax
    7fd4:	0f 94 c0             	sete   %al
    7fd7:	0f b6 d0             	movzbl %al,%edx
    7fda:	0f b6 85 bb f8 ff ff 	movzbl -0x745(%rbp),%eax
    7fe1:	0f b6 c8             	movzbl %al,%ecx
    7fe4:	48 8b 85 10 f9 ff ff 	mov    -0x6f0(%rbp),%rax
    7feb:	48 85 c0             	test   %rax,%rax
    7fee:	0f 94 c0             	sete   %al
    7ff1:	0f b6 c0             	movzbl %al,%eax
    7ff4:	31 c8                	xor    %ecx,%eax
    7ff6:	98                   	cwtl   
    7ff7:	89 d6                	mov    %edx,%esi
    7ff9:	89 c7                	mov    %eax,%edi
    7ffb:	e8 d3 e3 ff ff       	callq  63d3 <safe_sub_func_int16_t_s_s>
    8000:	0f b6 c0             	movzbl %al,%eax
    8003:	be 2b 00 00 00       	mov    $0x2b,%esi
    8008:	89 c7                	mov    %eax,%edi
    800a:	e8 69 eb ff ff       	callq  6b78 <safe_sub_func_uint8_t_u_u>
    800f:	0f b6 c0             	movzbl %al,%eax
    8012:	48 89 c6             	mov    %rax,%rsi
    8015:	bf 07 00 00 00       	mov    $0x7,%edi
    801a:	e8 89 e8 ff ff       	callq  68a8 <safe_sub_func_int64_t_s_s>
    801f:	0f b7 c0             	movzwl %ax,%eax
    8022:	be 0a 00 00 00       	mov    $0xa,%esi
    8027:	89 c7                	mov    %eax,%edi
    8029:	e8 1a ee ff ff       	callq  6e48 <safe_rshift_func_uint16_t_u_s>
    802e:	0f b7 d0             	movzwl %ax,%edx
    8031:	0f b6 85 72 f7 ff ff 	movzbl -0x88e(%rbp),%eax
    8038:	09 c2                	or     %eax,%edx
    803a:	48 8b 05 d7 0b 01 00 	mov    0x10bd7(%rip),%rax        # 18c18 <g_561>
    8041:	83 e2 01             	and    $0x1,%edx
    8044:	89 10                	mov    %edx,(%rax)
    8046:	0f b6 45 c4          	movzbl -0x3c(%rbp),%eax
    804a:	83 c0 01             	add    $0x1,%eax
    804d:	88 45 c4             	mov    %al,-0x3c(%rbp)
    8050:	48 8b 05 d9 11 01 00 	mov    0x111d9(%rip),%rax        # 19230 <g_1767>
    8057:	8b 00                	mov    (%rax),%eax
    8059:	85 c0                	test   %eax,%eax
    805b:	75 0a                	jne    8067 <func_1+0x8b2>
    805d:	48 83 85 10 f8 ff ff 	addq   $0x1,-0x7f0(%rbp)
    8064:	01 
    8065:	eb 01                	jmp    8068 <func_1+0x8b3>
    8067:	90                   	nop
    8068:	8b 05 72 f0 00 00    	mov    0xf072(%rip),%eax        # 170e0 <g_83>
    806e:	83 e8 01             	sub    $0x1,%eax
    8071:	89 05 69 f0 00 00    	mov    %eax,0xf069(%rip)        # 170e0 <g_83>
    8077:	8b 05 63 f0 00 00    	mov    0xf063(%rip),%eax        # 170e0 <g_83>
    807d:	85 c0                	test   %eax,%eax
    807f:	0f 89 6f fd ff ff    	jns    7df4 <func_1+0x63f>
    8085:	48 c7 85 20 f8 ff ff 	movq   $0x0,-0x7e0(%rbp)
    808c:	00 00 00 00 
    8090:	e9 06 05 00 00       	jmpq   859b <func_1+0xde6>
    8095:	48 8d 85 b8 f8 ff ff 	lea    -0x748(%rbp),%rax
    809c:	48 83 c0 03          	add    $0x3,%rax
    80a0:	48 89 85 50 f8 ff ff 	mov    %rax,-0x7b0(%rbp)
    80a7:	48 8d 05 60 f4 00 00 	lea    0xf460(%rip),%rax        # 1750e <g_242+0xe>
    80ae:	48 89 85 58 f8 ff ff 	mov    %rax,-0x7a8(%rbp)
    80b5:	48 8d 05 80 f0 00 00 	lea    0xf080(%rip),%rax        # 1713c <g_95+0x3c>
    80bc:	48 89 85 e0 f9 ff ff 	mov    %rax,-0x620(%rbp)
    80c3:	48 c7 85 e8 f9 ff ff 	movq   $0x0,-0x618(%rbp)
    80ca:	00 00 00 00 
    80ce:	48 8d 05 67 f0 00 00 	lea    0xf067(%rip),%rax        # 1713c <g_95+0x3c>
    80d5:	48 89 85 f0 f9 ff ff 	mov    %rax,-0x610(%rbp)
    80dc:	48 8d 05 31 f5 00 00 	lea    0xf531(%rip),%rax        # 17614 <g_2483+0x4>
    80e3:	48 89 85 f8 f9 ff ff 	mov    %rax,-0x608(%rbp)
    80ea:	48 8d 85 7c f7 ff ff 	lea    -0x884(%rbp),%rax
    80f1:	48 89 85 00 fa ff ff 	mov    %rax,-0x600(%rbp)
    80f8:	48 8d 05 15 f5 00 00 	lea    0xf515(%rip),%rax        # 17614 <g_2483+0x4>
    80ff:	48 89 85 08 fa ff ff 	mov    %rax,-0x5f8(%rbp)
    8106:	48 8d 05 43 f4 00 00 	lea    0xf443(%rip),%rax        # 17550 <g_1276>
    810d:	48 89 85 10 fa ff ff 	mov    %rax,-0x5f0(%rbp)
    8114:	48 8d 85 e0 fc ff ff 	lea    -0x320(%rbp),%rax
    811b:	48 83 c0 04          	add    $0x4,%rax
    811f:	48 89 85 18 fa ff ff 	mov    %rax,-0x5e8(%rbp)
    8126:	48 8d 05 23 f4 00 00 	lea    0xf423(%rip),%rax        # 17550 <g_1276>
    812d:	48 89 85 20 fa ff ff 	mov    %rax,-0x5e0(%rbp)
    8134:	48 8d 05 d9 f4 00 00 	lea    0xf4d9(%rip),%rax        # 17614 <g_2483+0x4>
    813b:	48 89 85 28 fa ff ff 	mov    %rax,-0x5d8(%rbp)
    8142:	48 8d 05 f3 ef 00 00 	lea    0xeff3(%rip),%rax        # 1713c <g_95+0x3c>
    8149:	48 89 85 30 fa ff ff 	mov    %rax,-0x5d0(%rbp)
    8150:	48 8d 05 5d ef 00 00 	lea    0xef5d(%rip),%rax        # 170b4 <g_4+0x74>
    8157:	48 89 85 38 fa ff ff 	mov    %rax,-0x5c8(%rbp)
    815e:	48 c7 85 40 fa ff ff 	movq   $0x0,-0x5c0(%rbp)
    8165:	00 00 00 00 
    8169:	48 8d 85 80 f7 ff ff 	lea    -0x880(%rbp),%rax
    8170:	48 89 85 48 fa ff ff 	mov    %rax,-0x5b8(%rbp)
    8177:	48 c7 85 50 fa ff ff 	movq   $0x0,-0x5b0(%rbp)
    817e:	00 00 00 00 
    8182:	0f b7 05 67 f3 00 00 	movzwl 0xf367(%rip),%eax        # 174f0 <g_203>
    8189:	0f b7 c0             	movzwl %ax,%eax
    818c:	8d 50 02             	lea    0x2(%rax),%edx
    818f:	0f b7 05 5a f3 00 00 	movzwl 0xf35a(%rip),%eax        # 174f0 <g_203>
    8196:	0f b7 c0             	movzwl %ax,%eax
    8199:	8d 48 02             	lea    0x2(%rax),%ecx
    819c:	0f b7 05 4d f3 00 00 	movzwl 0xf34d(%rip),%eax        # 174f0 <g_203>
    81a3:	0f b7 c0             	movzwl %ax,%eax
    81a6:	83 c0 03             	add    $0x3,%eax
    81a9:	48 63 f0             	movslq %eax,%rsi
    81ac:	48 63 d2             	movslq %edx,%rdx
    81af:	48 89 d0             	mov    %rdx,%rax
    81b2:	48 c1 e0 02          	shl    $0x2,%rax
    81b6:	48 01 d0             	add    %rdx,%rax
    81b9:	48 8d 14 85 00 00 00 	lea    0x0(,%rax,4),%rdx
    81c0:	00 
    81c1:	48 01 d0             	add    %rdx,%rax
    81c4:	48 63 c9             	movslq %ecx,%rcx
    81c7:	48 89 ca             	mov    %rcx,%rdx
    81ca:	48 c1 e2 02          	shl    $0x2,%rdx
    81ce:	48 01 ca             	add    %rcx,%rdx
    81d1:	48 01 d0             	add    %rdx,%rax
    81d4:	48 01 f0             	add    %rsi,%rax
    81d7:	48 8d 14 85 00 00 00 	lea    0x0(,%rax,4),%rdx
    81de:	00 
    81df:	48 8d 05 1a ef 00 00 	lea    0xef1a(%rip),%rax        # 17100 <g_95>
    81e6:	48 01 d0             	add    %rdx,%rax
    81e9:	48 89 85 58 fa ff ff 	mov    %rax,-0x5a8(%rbp)
    81f0:	0f b7 05 f9 f2 00 00 	movzwl 0xf2f9(%rip),%eax        # 174f0 <g_203>
    81f7:	0f b7 c0             	movzwl %ax,%eax
    81fa:	8d 50 02             	lea    0x2(%rax),%edx
    81fd:	0f b7 05 ec f2 00 00 	movzwl 0xf2ec(%rip),%eax        # 174f0 <g_203>
    8204:	0f b7 c0             	movzwl %ax,%eax
    8207:	8d 48 02             	lea    0x2(%rax),%ecx
    820a:	0f b7 05 df f2 00 00 	movzwl 0xf2df(%rip),%eax        # 174f0 <g_203>
    8211:	0f b7 c0             	movzwl %ax,%eax
    8214:	83 c0 03             	add    $0x3,%eax
    8217:	48 63 f0             	movslq %eax,%rsi
    821a:	48 63 d2             	movslq %edx,%rdx
    821d:	48 89 d0             	mov    %rdx,%rax
    8220:	48 c1 e0 02          	shl    $0x2,%rax
    8224:	48 01 d0             	add    %rdx,%rax
    8227:	48 8d 14 85 00 00 00 	lea    0x0(,%rax,4),%rdx
    822e:	00 
    822f:	48 01 d0             	add    %rdx,%rax
    8232:	48 63 c9             	movslq %ecx,%rcx
    8235:	48 89 ca             	mov    %rcx,%rdx
    8238:	48 c1 e2 02          	shl    $0x2,%rdx
    823c:	48 01 ca             	add    %rcx,%rdx
    823f:	48 01 d0             	add    %rdx,%rax
    8242:	48 01 f0             	add    %rsi,%rax
    8245:	48 8d 14 85 00 00 00 	lea    0x0(,%rax,4),%rdx
    824c:	00 
    824d:	48 8d 05 ac ee 00 00 	lea    0xeeac(%rip),%rax        # 17100 <g_95>
    8254:	48 01 d0             	add    %rdx,%rax
    8257:	48 89 85 60 fa ff ff 	mov    %rax,-0x5a0(%rbp)
    825e:	48 8d 85 e0 fc ff ff 	lea    -0x320(%rbp),%rax
    8265:	48 83 c0 04          	add    $0x4,%rax
    8269:	48 89 85 68 fa ff ff 	mov    %rax,-0x598(%rbp)
    8270:	48 8d 05 9d f3 00 00 	lea    0xf39d(%rip),%rax        # 17614 <g_2483+0x4>
    8277:	48 89 85 70 fa ff ff 	mov    %rax,-0x590(%rbp)
    827e:	48 8d 85 7c f7 ff ff 	lea    -0x884(%rbp),%rax
    8285:	48 89 85 78 fa ff ff 	mov    %rax,-0x588(%rbp)
    828c:	48 8d 05 21 ee 00 00 	lea    0xee21(%rip),%rax        # 170b4 <g_4+0x74>
    8293:	48 89 85 80 fa ff ff 	mov    %rax,-0x580(%rbp)
    829a:	48 8d 05 9b ee 00 00 	lea    0xee9b(%rip),%rax        # 1713c <g_95+0x3c>
    82a1:	48 89 85 88 fa ff ff 	mov    %rax,-0x578(%rbp)
    82a8:	48 8d 05 8d ee 00 00 	lea    0xee8d(%rip),%rax        # 1713c <g_95+0x3c>
    82af:	48 89 85 90 fa ff ff 	mov    %rax,-0x570(%rbp)
    82b6:	48 8d 05 f7 ed 00 00 	lea    0xedf7(%rip),%rax        # 170b4 <g_4+0x74>
    82bd:	48 89 85 98 fa ff ff 	mov    %rax,-0x568(%rbp)
    82c4:	48 c7 85 a0 fa ff ff 	movq   $0x0,-0x560(%rbp)
    82cb:	00 00 00 00 
    82cf:	48 8d 05 7a f2 00 00 	lea    0xf27a(%rip),%rax        # 17550 <g_1276>
    82d6:	48 89 85 a8 fa ff ff 	mov    %rax,-0x558(%rbp)
    82dd:	48 8d 05 30 f3 00 00 	lea    0xf330(%rip),%rax        # 17614 <g_2483+0x4>
    82e4:	48 89 85 b0 fa ff ff 	mov    %rax,-0x550(%rbp)
    82eb:	48 8d 05 7e ee 00 00 	lea    0xee7e(%rip),%rax        # 17170 <g_95+0x70>
    82f2:	48 89 85 b8 fa ff ff 	mov    %rax,-0x548(%rbp)
    82f9:	48 8d 05 70 ee 00 00 	lea    0xee70(%rip),%rax        # 17170 <g_95+0x70>
    8300:	48 89 85 c0 fa ff ff 	mov    %rax,-0x540(%rbp)
    8307:	48 8d 05 06 f3 00 00 	lea    0xf306(%rip),%rax        # 17614 <g_2483+0x4>
    830e:	48 89 85 c8 fa ff ff 	mov    %rax,-0x538(%rbp)
    8315:	48 c7 85 d0 fa ff ff 	movq   $0x0,-0x530(%rbp)
    831c:	00 00 00 00 
    8320:	48 8d 05 15 ee 00 00 	lea    0xee15(%rip),%rax        # 1713c <g_95+0x3c>
    8327:	48 89 85 d8 fa ff ff 	mov    %rax,-0x528(%rbp)
    832e:	48 8d 05 df f2 00 00 	lea    0xf2df(%rip),%rax        # 17614 <g_2483+0x4>
    8335:	48 89 85 e0 fa ff ff 	mov    %rax,-0x520(%rbp)
    833c:	48 8d 85 7c f7 ff ff 	lea    -0x884(%rbp),%rax
    8343:	48 89 85 e8 fa ff ff 	mov    %rax,-0x518(%rbp)
    834a:	48 8d 85 7c f7 ff ff 	lea    -0x884(%rbp),%rax
    8351:	48 89 85 f0 fa ff ff 	mov    %rax,-0x510(%rbp)
    8358:	66 c7 85 76 f7 ff ff 	movw   $0x89be,-0x88a(%rbp)
    835f:	be 89 
    8361:	0f b7 05 88 f1 00 00 	movzwl 0xf188(%rip),%eax        # 174f0 <g_203>
    8368:	0f b7 c0             	movzwl %ax,%eax
    836b:	8d 50 02             	lea    0x2(%rax),%edx
    836e:	0f b7 05 7b f1 00 00 	movzwl 0xf17b(%rip),%eax        # 174f0 <g_203>
    8375:	0f b7 c0             	movzwl %ax,%eax
    8378:	8d 48 02             	lea    0x2(%rax),%ecx
    837b:	0f b7 05 6e f1 00 00 	movzwl 0xf16e(%rip),%eax        # 174f0 <g_203>
    8382:	0f b7 c0             	movzwl %ax,%eax
    8385:	83 c0 03             	add    $0x3,%eax
    8388:	48 8b 35 71 00 01 00 	mov    0x10071(%rip),%rsi        # 18400 <g_33>
    838f:	48 63 f8             	movslq %eax,%rdi
    8392:	48 63 d2             	movslq %edx,%rdx
    8395:	48 89 d0             	mov    %rdx,%rax
    8398:	48 c1 e0 02          	shl    $0x2,%rax
    839c:	48 01 d0             	add    %rdx,%rax
    839f:	48 8d 14 85 00 00 00 	lea    0x0(,%rax,4),%rdx
    83a6:	00 
    83a7:	48 01 d0             	add    %rdx,%rax
    83aa:	48 63 c9             	movslq %ecx,%rcx
    83ad:	48 89 ca             	mov    %rcx,%rdx
    83b0:	48 c1 e2 02          	shl    $0x2,%rdx
    83b4:	48 01 ca             	add    %rcx,%rdx
    83b7:	48 01 d0             	add    %rdx,%rax
    83ba:	48 01 f8             	add    %rdi,%rax
    83bd:	48 8d 14 85 00 00 00 	lea    0x0(,%rax,4),%rdx
    83c4:	00 
    83c5:	48 8d 05 34 ed 00 00 	lea    0xed34(%rip),%rax        # 17100 <g_95>
    83cc:	48 01 d0             	add    %rdx,%rax
    83cf:	48 89 06             	mov    %rax,(%rsi)
    83d2:	0f b6 45 c4          	movzbl -0x3c(%rbp),%eax
    83d6:	0f b6 c0             	movzbl %al,%eax
    83d9:	be fd ff 00 00       	mov    $0xfffd,%esi
    83de:	48 89 c7             	mov    %rax,%rdi
    83e1:	e8 c9 ec ff ff       	callq  70af <safe_div_func_uint64_t_u_u>
    83e6:	49 89 c5             	mov    %rax,%r13
    83e9:	48 8b 85 50 f8 ff ff 	mov    -0x7b0(%rbp),%rax
    83f0:	0f b6 00             	movzbl (%rax),%eax
    83f3:	8d 50 ff             	lea    -0x1(%rax),%edx
    83f6:	48 8b 85 50 f8 ff ff 	mov    -0x7b0(%rbp),%rax
    83fd:	88 10                	mov    %dl,(%rax)
    83ff:	48 8b 85 50 f8 ff ff 	mov    -0x7b0(%rbp),%rax
    8406:	44 0f b6 30          	movzbl (%rax),%r14d
    840a:	48 8b 05 8f 10 01 00 	mov    0x1108f(%rip),%rax        # 194a0 <g_2696>
    8411:	48 8b 00             	mov    (%rax),%rax
    8414:	0f b6 00             	movzbl (%rax),%eax
    8417:	0f b6 d8             	movzbl %al,%ebx
    841a:	44 8b a5 90 f7 ff ff 	mov    -0x870(%rbp),%r12d
    8421:	0f b7 05 c8 f0 00 00 	movzwl 0xf0c8(%rip),%eax        # 174f0 <g_203>
    8428:	0f b7 c0             	movzwl %ax,%eax
    842b:	8d 50 02             	lea    0x2(%rax),%edx
    842e:	0f b7 05 bb f0 00 00 	movzwl 0xf0bb(%rip),%eax        # 174f0 <g_203>
    8435:	0f b7 c0             	movzwl %ax,%eax
    8438:	8d 48 02             	lea    0x2(%rax),%ecx
    843b:	0f b7 05 ae f0 00 00 	movzwl 0xf0ae(%rip),%eax        # 174f0 <g_203>
    8442:	0f b7 c0             	movzwl %ax,%eax
    8445:	83 c0 03             	add    $0x3,%eax
    8448:	48 63 f0             	movslq %eax,%rsi
    844b:	48 63 d2             	movslq %edx,%rdx
    844e:	48 63 c9             	movslq %ecx,%rcx
    8451:	48 89 d0             	mov    %rdx,%rax
    8454:	48 c1 e0 02          	shl    $0x2,%rax
    8458:	48 01 d0             	add    %rdx,%rax
    845b:	48 8d 14 85 00 00 00 	lea    0x0(,%rax,4),%rdx
    8462:	00 
    8463:	48 01 d0             	add    %rdx,%rax
    8466:	48 89 ca             	mov    %rcx,%rdx
    8469:	48 c1 e2 02          	shl    $0x2,%rdx
    846d:	48 01 ca             	add    %rcx,%rdx
    8470:	48 01 d0             	add    %rdx,%rax
    8473:	48 01 f0             	add    %rsi,%rax
    8476:	48 8d 14 85 00 00 00 	lea    0x0(,%rax,4),%rdx
    847d:	00 
    847e:	48 8d 05 7b ec 00 00 	lea    0xec7b(%rip),%rax        # 17100 <g_95>
    8485:	8b 04 02             	mov    (%rdx,%rax,1),%eax
    8488:	89 c1                	mov    %eax,%ecx
    848a:	8b 95 64 f9 ff ff    	mov    -0x69c(%rbp),%edx
    8490:	8b 85 7c f7 ff ff    	mov    -0x884(%rbp),%eax
    8496:	39 c2                	cmp    %eax,%edx
    8498:	0f 95 c0             	setne  %al
    849b:	0f b6 c0             	movzbl %al,%eax
    849e:	89 ce                	mov    %ecx,%esi
    84a0:	89 c7                	mov    %eax,%edi
    84a2:	e8 56 ea ff ff       	callq  6efd <safe_mod_func_uint32_t_u_u>
    84a7:	48 8b 05 a2 0e 01 00 	mov    0x10ea2(%rip),%rax        # 19350 <g_1897>
    84ae:	be 00 00 00 00       	mov    $0x0,%esi
    84b3:	bf cb 00 00 00       	mov    $0xcb,%edi
    84b8:	e8 8f e7 ff ff       	callq  6c4c <safe_lshift_func_uint8_t_u_u>
    84bd:	0f be c0             	movsbl %al,%eax
    84c0:	be 01 00 00 00       	mov    $0x1,%esi
    84c5:	89 c7                	mov    %eax,%edi
    84c7:	e8 9e dd ff ff       	callq  626a <safe_div_func_int8_t_s_s>
    84cc:	84 c0                	test   %al,%al
    84ce:	75 07                	jne    84d7 <func_1+0xd22>
    84d0:	ba 01 00 00 00       	mov    $0x1,%edx
    84d5:	eb 05                	jmp    84dc <func_1+0xd27>
    84d7:	ba 00 00 00 00       	mov    $0x0,%edx
    84dc:	8b 85 58 fc ff ff    	mov    -0x3a8(%rbp),%eax
    84e2:	31 d0                	xor    %edx,%eax
    84e4:	89 85 58 fc ff ff    	mov    %eax,-0x3a8(%rbp)
    84ea:	8b 95 58 fc ff ff    	mov    -0x3a8(%rbp),%edx
    84f0:	0f b6 45 c6          	movzbl -0x3a(%rbp),%eax
    84f4:	0f b6 c0             	movzbl %al,%eax
    84f7:	39 c2                	cmp    %eax,%edx
    84f9:	0f 95 c0             	setne  %al
    84fc:	0f b6 c0             	movzbl %al,%eax
    84ff:	44 89 e6             	mov    %r12d,%esi
    8502:	89 c7                	mov    %eax,%edi
    8504:	e8 fc e0 ff ff       	callq  6605 <safe_sub_func_int32_t_s_s>
    8509:	0f b6 c0             	movzbl %al,%eax
    850c:	89 de                	mov    %ebx,%esi
    850e:	89 c7                	mov    %eax,%edi
    8510:	e8 99 e6 ff ff       	callq  6bae <safe_mod_func_uint8_t_u_u>
    8515:	48 8b 05 dc 0c 01 00 	mov    0x10cdc(%rip),%rax        # 191f8 <g_1132>
    851c:	0f b6 10             	movzbl (%rax),%edx
    851f:	48 8b 85 58 f8 ff ff 	mov    -0x7a8(%rbp),%rax
    8526:	88 10                	mov    %dl,(%rax)
    8528:	48 8b 85 58 f8 ff ff 	mov    -0x7a8(%rbp),%rax
    852f:	0f b6 00             	movzbl (%rax),%eax
    8532:	44 09 f0             	or     %r14d,%eax
    8535:	0f b6 c0             	movzbl %al,%eax
    8538:	be 01 00 00 00       	mov    $0x1,%esi
    853d:	89 c7                	mov    %eax,%edi
    853f:	e8 7a e7 ff ff       	callq  6cbe <safe_rshift_func_uint8_t_u_u>
    8544:	0f b6 d0             	movzbl %al,%edx
    8547:	48 8b 05 52 0f 01 00 	mov    0x10f52(%rip),%rax        # 194a0 <g_2696>
    854e:	48 8b 00             	mov    (%rax),%rax
    8551:	0f b6 00             	movzbl (%rax),%eax
    8554:	0f be c0             	movsbl %al,%eax
    8557:	31 c2                	xor    %eax,%edx
    8559:	8b 85 7c f7 ff ff    	mov    -0x884(%rbp),%eax
    855f:	39 c2                	cmp    %eax,%edx
    8561:	0f 9f c0             	setg   %al
    8564:	0f b6 c0             	movzbl %al,%eax
    8567:	49 39 c5             	cmp    %rax,%r13
    856a:	0f 94 c0             	sete   %al
    856d:	0f b6 c0             	movzbl %al,%eax
    8570:	89 c2                	mov    %eax,%edx
    8572:	0f b7 85 76 f7 ff ff 	movzwl -0x88a(%rbp),%eax
    8579:	31 d0                	xor    %edx,%eax
    857b:	66 89 85 76 f7 ff ff 	mov    %ax,-0x88a(%rbp)
    8582:	48 8b 05 7f 06 01 00 	mov    0x1067f(%rip),%rax        # 18c08 <g_363>
    8589:	48 8d 95 7c f7 ff ff 	lea    -0x884(%rbp),%rdx
    8590:	48 89 10             	mov    %rdx,(%rax)
    8593:	48 83 85 20 f8 ff ff 	addq   $0x1,-0x7e0(%rbp)
    859a:	01 
    859b:	48 83 bd 20 f8 ff ff 	cmpq   $0x7,-0x7e0(%rbp)
    85a2:	07 
    85a3:	0f 86 ec fa ff ff    	jbe    8095 <func_1+0x8e0>
    85a9:	0f b6 85 bd f8 ff ff 	movzbl -0x743(%rbp),%eax
    85b0:	0f b6 c0             	movzbl %al,%eax
    85b3:	89 85 84 f7 ff ff    	mov    %eax,-0x87c(%rbp)
    85b9:	0f b7 05 30 ef 00 00 	movzwl 0xef30(%rip),%eax        # 174f0 <g_203>
    85c0:	83 c0 01             	add    $0x1,%eax
    85c3:	66 89 05 26 ef 00 00 	mov    %ax,0xef26(%rip)        # 174f0 <g_203>
    85ca:	0f b7 05 1f ef 00 00 	movzwl 0xef1f(%rip),%eax        # 174f0 <g_203>
    85d1:	66 83 f8 01          	cmp    $0x1,%ax
    85d5:	0f 86 0a f6 ff ff    	jbe    7be5 <func_1+0x430>
    85db:	c7 05 a7 ef 00 00 1b 	movl   $0x1b,0xefa7(%rip)        # 1758c <g_1786>
    85e2:	00 00 00 
    85e5:	90                   	nop
    85e6:	8b 05 a0 ef 00 00    	mov    0xefa0(%rip),%eax        # 1758c <g_1786>
    85ec:	83 f8 31             	cmp    $0x31,%eax
    85ef:	0f 85 7b 04 00 00    	jne    8a70 <func_1+0x12bb>
    85f5:	c6 85 73 f7 ff ff e1 	movb   $0xe1,-0x88d(%rbp)
    85fc:	c7 05 22 f0 00 00 00 	movl   $0x0,0xf022(%rip)        # 17628 <g_2644>
    8603:	00 00 00 
    8606:	e9 4d 04 00 00       	jmpq   8a58 <func_1+0x12a3>
    860b:	48 c7 85 78 f8 ff ff 	movq   $0xfffffffffffffff8,-0x788(%rbp)
    8612:	f8 ff ff ff 
    8616:	48 8d 85 e0 fc ff ff 	lea    -0x320(%rbp),%rax
    861d:	48 05 d8 01 00 00    	add    $0x1d8,%rax
    8623:	48 89 85 80 f8 ff ff 	mov    %rax,-0x780(%rbp)
    862a:	c7 85 98 f7 ff ff 00 	movl   $0x0,-0x868(%rbp)
    8631:	00 00 00 
    8634:	eb 1e                	jmp    8654 <func_1+0xe9f>
    8636:	8b 85 98 f7 ff ff    	mov    -0x868(%rbp),%eax
    863c:	48 98                	cltq   
    863e:	48 8d 15 2e ef 00 00 	lea    0xef2e(%rip),%rdx        # 17573 <g_1607+0x13>
    8645:	48 89 94 c5 00 fb ff 	mov    %rdx,-0x500(%rbp,%rax,8)
    864c:	ff 
    864d:	83 85 98 f7 ff ff 01 	addl   $0x1,-0x868(%rbp)
    8654:	83 bd 98 f7 ff ff 07 	cmpl   $0x7,-0x868(%rbp)
    865b:	7e d9                	jle    8636 <func_1+0xe81>
    865d:	66 c7 05 e6 ee 00 00 	movw   $0x0,0xeee6(%rip)        # 1754c <g_1043>
    8664:	00 00 
    8666:	e9 96 02 00 00       	jmpq   8901 <func_1+0x114c>
    866b:	48 c7 85 88 f8 ff ff 	movq   $0x0,-0x778(%rbp)
    8672:	00 00 00 00 
    8676:	48 8d 85 e8 f7 ff ff 	lea    -0x818(%rbp),%rax
    867d:	48 89 85 90 f8 ff ff 	mov    %rax,-0x770(%rbp)
    8684:	48 8b 05 8d 05 01 00 	mov    0x1058d(%rip),%rax        # 18c18 <g_561>
    868b:	8b 08                	mov    (%rax),%ecx
    868d:	8b 05 95 ef 00 00    	mov    0xef95(%rip),%eax        # 17628 <g_2644>
    8693:	83 c0 03             	add    $0x3,%eax
    8696:	48 98                	cltq   
    8698:	48 8d 15 81 ee 00 00 	lea    0xee81(%rip),%rdx        # 17520 <g_333>
    869f:	0f b6 04 10          	movzbl (%rax,%rdx,1),%eax
    86a3:	0f b6 d0             	movzbl %al,%edx
    86a6:	48 8b 05 6b 05 01 00 	mov    0x1056b(%rip),%rax        # 18c18 <g_561>
    86ad:	09 ca                	or     %ecx,%edx
    86af:	89 10                	mov    %edx,(%rax)
    86b1:	8b 05 71 ef 00 00    	mov    0xef71(%rip),%eax        # 17628 <g_2644>
    86b7:	8b 15 6b ef 00 00    	mov    0xef6b(%rip),%edx        # 17628 <g_2644>
    86bd:	48 63 ca             	movslq %edx,%rcx
    86c0:	48 63 d0             	movslq %eax,%rdx
    86c3:	48 89 d0             	mov    %rdx,%rax
    86c6:	48 c1 e0 03          	shl    $0x3,%rax
    86ca:	48 01 d0             	add    %rdx,%rax
    86cd:	48 8d 14 08          	lea    (%rax,%rcx,1),%rdx
    86d1:	48 8d 05 28 ee 00 00 	lea    0xee28(%rip),%rax        # 17500 <g_242>
    86d8:	48 01 d0             	add    %rdx,%rax
    86db:	0f b6 10             	movzbl (%rax),%edx
    86de:	48 8b 85 e0 f7 ff ff 	mov    -0x820(%rbp),%rax
    86e5:	48 8b 00             	mov    (%rax),%rax
    86e8:	48 8b 00             	mov    (%rax),%rax
    86eb:	0f b6 d2             	movzbl %dl,%edx
    86ee:	66 89 10             	mov    %dx,(%rax)
    86f1:	8b 85 7c f7 ff ff    	mov    -0x884(%rbp),%eax
    86f7:	41 89 c7             	mov    %eax,%r15d
    86fa:	0f b6 85 bb f8 ff ff 	movzbl -0x745(%rbp),%eax
    8701:	44 0f b6 e8          	movzbl %al,%r13d
    8705:	48 8b 05 9c 0d 01 00 	mov    0x10d9c(%rip),%rax        # 194a8 <g_2695>
    870c:	48 8b 00             	mov    (%rax),%rax
    870f:	48 8b 00             	mov    (%rax),%rax
    8712:	0f b6 00             	movzbl (%rax),%eax
    8715:	0f be d8             	movsbl %al,%ebx
    8718:	48 8b 85 78 f8 ff ff 	mov    -0x788(%rbp),%rax
    871f:	48 f7 d0             	not    %rax
    8722:	49 89 c6             	mov    %rax,%r14
    8725:	48 8b 85 78 f8 ff ff 	mov    -0x788(%rbp),%rax
    872c:	41 89 c4             	mov    %eax,%r12d
    872f:	0f b6 85 bb f8 ff ff 	movzbl -0x745(%rbp),%eax
    8736:	84 c0                	test   %al,%al
    8738:	74 15                	je     874f <func_1+0xf9a>
    873a:	48 8b 05 57 0d 01 00 	mov    0x10d57(%rip),%rax        # 19498 <g_2697>
    8741:	0f b6 00             	movzbl (%rax),%eax
    8744:	84 c0                	test   %al,%al
    8746:	74 07                	je     874f <func_1+0xf9a>
    8748:	b8 01 00 00 00       	mov    $0x1,%eax
    874d:	eb 05                	jmp    8754 <func_1+0xf9f>
    874f:	b8 00 00 00 00       	mov    $0x0,%eax
    8754:	3b 85 88 f7 ff ff    	cmp    -0x878(%rbp),%eax
    875a:	0f 9c c0             	setl   %al
    875d:	0f b6 d0             	movzbl %al,%edx
    8760:	0f b6 85 bb f8 ff ff 	movzbl -0x745(%rbp),%eax
    8767:	0f b6 c0             	movzbl %al,%eax
    876a:	21 d0                	and    %edx,%eax
    876c:	66 89 05 75 ed 00 00 	mov    %ax,0xed75(%rip)        # 174e8 <g_188>
    8773:	0f b7 05 6e ed 00 00 	movzwl 0xed6e(%rip),%eax        # 174e8 <g_188>
    877a:	0f b7 d0             	movzwl %ax,%edx
    877d:	0f b6 85 73 f7 ff ff 	movzbl -0x88d(%rbp),%eax
    8784:	89 d6                	mov    %edx,%esi
    8786:	89 c7                	mov    %eax,%edi
    8788:	e8 cf e5 ff ff       	callq  6d5c <safe_mod_func_uint16_t_u_u>
    878d:	0f b7 d0             	movzwl %ax,%edx
    8790:	48 8b 05 59 04 01 00 	mov    0x10459(%rip),%rax        # 18bf0 <g_200>
    8797:	0f b7 00             	movzwl (%rax),%eax
    879a:	98                   	cwtl   
    879b:	89 d6                	mov    %edx,%esi
    879d:	89 c7                	mov    %eax,%edi
    879f:	e8 ee dc ff ff       	callq  6492 <safe_lshift_func_int16_t_s_s>
    87a4:	83 f0 7d             	xor    $0x7d,%eax
    87a7:	0f be c0             	movsbl %al,%eax
    87aa:	44 89 e6             	mov    %r12d,%esi
    87ad:	89 c7                	mov    %eax,%edi
    87af:	e8 81 db ff ff       	callq  6335 <safe_rshift_func_int8_t_s_s>
    87b4:	44 0f b6 e0          	movzbl %al,%r12d
    87b8:	48 8b 05 91 0b 01 00 	mov    0x10b91(%rip),%rax        # 19350 <g_1897>
    87bf:	48 8b 00             	mov    (%rax),%rax
    87c2:	0f b6 00             	movzbl (%rax),%eax
    87c5:	0f be c0             	movsbl %al,%eax
    87c8:	be 06 00 00 00       	mov    $0x6,%esi
    87cd:	89 c7                	mov    %eax,%edi
    87cf:	e8 61 db ff ff       	callq  6335 <safe_rshift_func_int8_t_s_s>
    87d4:	89 c2                	mov    %eax,%edx
    87d6:	8b 05 4c ee 00 00    	mov    0xee4c(%rip),%eax        # 17628 <g_2644>
    87dc:	83 c0 03             	add    $0x3,%eax
    87df:	89 d6                	mov    %edx,%esi
    87e1:	48 63 d0             	movslq %eax,%rdx
    87e4:	48 8d 0d 35 ed 00 00 	lea    0xed35(%rip),%rcx        # 17520 <g_333>
    87eb:	40 88 34 0a          	mov    %sil,(%rdx,%rcx,1)
    87ef:	48 98                	cltq   
    87f1:	48 8d 15 28 ed 00 00 	lea    0xed28(%rip),%rdx        # 17520 <g_333>
    87f8:	0f b6 04 10          	movzbl (%rax,%rdx,1),%eax
    87fc:	0f b6 c0             	movzbl %al,%eax
    87ff:	44 89 e6             	mov    %r12d,%esi
    8802:	89 c7                	mov    %eax,%edi
    8804:	e8 8a e3 ff ff       	callq  6b93 <safe_mul_func_uint8_t_u_u>
    8809:	0f b6 d0             	movzbl %al,%edx
    880c:	8b 05 5e ec 00 00    	mov    0xec5e(%rip),%eax        # 17470 <g_95+0x370>
    8812:	39 c2                	cmp    %eax,%edx
    8814:	0f 94 c0             	sete   %al
    8817:	0f b6 c0             	movzbl %al,%eax
    881a:	49 39 c6             	cmp    %rax,%r14
    881d:	0f 9e c0             	setle  %al
    8820:	0f b6 c0             	movzbl %al,%eax
    8823:	89 de                	mov    %ebx,%esi
    8825:	89 c7                	mov    %eax,%edi
    8827:	e8 75 da ff ff       	callq  62a1 <safe_lshift_func_int8_t_s_s>
    882c:	3c 37                	cmp    $0x37,%al
    882e:	0f 9e c0             	setle  %al
    8831:	0f b6 c0             	movzbl %al,%eax
    8834:	41 39 c5             	cmp    %eax,%r13d
    8837:	0f 9f c0             	setg   %al
    883a:	0f b6 c8             	movzbl %al,%ecx
    883d:	8b 05 e5 ed 00 00    	mov    0xede5(%rip),%eax        # 17628 <g_2644>
    8843:	8b 15 df ed 00 00    	mov    0xeddf(%rip),%edx        # 17628 <g_2644>
    8849:	48 63 f2             	movslq %edx,%rsi
    884c:	48 63 d0             	movslq %eax,%rdx
    884f:	48 89 d0             	mov    %rdx,%rax
    8852:	48 c1 e0 03          	shl    $0x3,%rax
    8856:	48 01 d0             	add    %rdx,%rax
    8859:	48 8d 14 30          	lea    (%rax,%rsi,1),%rdx
    885d:	48 8d 05 9c ec 00 00 	lea    0xec9c(%rip),%rax        # 17500 <g_242>
    8864:	48 01 d0             	add    %rdx,%rax
    8867:	0f b6 00             	movzbl (%rax),%eax
    886a:	0f b6 c0             	movzbl %al,%eax
    886d:	39 c1                	cmp    %eax,%ecx
    886f:	0f 95 c0             	setne  %al
    8872:	0f b6 c0             	movzbl %al,%eax
    8875:	44 89 fe             	mov    %r15d,%esi
    8878:	89 c7                	mov    %eax,%edi
    887a:	e8 a6 e6 ff ff       	callq  6f25 <safe_div_func_uint32_t_u_u>
    887f:	48 8b 95 e8 f7 ff ff 	mov    -0x818(%rbp),%rdx
    8886:	48 8b 85 90 f8 ff ff 	mov    -0x770(%rbp),%rax
    888d:	48 89 10             	mov    %rdx,(%rax)
    8890:	8b 85 80 f7 ff ff    	mov    -0x880(%rbp),%eax
    8896:	0f b7 c0             	movzwl %ax,%eax
    8899:	be fb ff 00 00       	mov    $0xfffb,%esi
    889e:	89 c7                	mov    %eax,%edi
    88a0:	e8 98 e4 ff ff       	callq  6d3d <safe_mul_func_uint16_t_u_u>
    88a5:	8b 05 7d ed 00 00    	mov    0xed7d(%rip),%eax        # 17628 <g_2644>
    88ab:	8b 15 77 ed 00 00    	mov    0xed77(%rip),%edx        # 17628 <g_2644>
    88b1:	48 63 ca             	movslq %edx,%rcx
    88b4:	48 63 d0             	movslq %eax,%rdx
    88b7:	48 89 d0             	mov    %rdx,%rax
    88ba:	48 c1 e0 03          	shl    $0x3,%rax
    88be:	48 01 d0             	add    %rdx,%rax
    88c1:	48 8d 14 08          	lea    (%rax,%rcx,1),%rdx
    88c5:	48 8d 05 34 ec 00 00 	lea    0xec34(%rip),%rax        # 17500 <g_242>
    88cc:	48 01 d0             	add    %rdx,%rax
    88cf:	0f b6 10             	movzbl (%rax),%edx
    88d2:	48 8b 05 27 09 01 00 	mov    0x10927(%rip),%rax        # 19200 <g_1131>
    88d9:	48 8b 00             	mov    (%rax),%rax
    88dc:	0f b6 00             	movzbl (%rax),%eax
    88df:	38 c2                	cmp    %al,%dl
    88e1:	0f 96 c2             	setbe  %dl
    88e4:	48 8b 05 2d 03 01 00 	mov    0x1032d(%rip),%rax        # 18c18 <g_561>
    88eb:	0f b6 d2             	movzbl %dl,%edx
    88ee:	89 10                	mov    %edx,(%rax)
    88f0:	0f b7 05 55 ec 00 00 	movzwl 0xec55(%rip),%eax        # 1754c <g_1043>
    88f7:	83 c0 01             	add    $0x1,%eax
    88fa:	66 89 05 4b ec 00 00 	mov    %ax,0xec4b(%rip)        # 1754c <g_1043>
    8901:	0f b7 05 44 ec 00 00 	movzwl 0xec44(%rip),%eax        # 1754c <g_1043>
    8908:	66 83 f8 09          	cmp    $0x9,%ax
    890c:	0f 8e 59 fd ff ff    	jle    866b <func_1+0xeb6>
    8912:	48 8b 05 ff 02 01 00 	mov    0x102ff(%rip),%rax        # 18c18 <g_561>
    8919:	48 8b 95 78 f8 ff ff 	mov    -0x788(%rbp),%rdx
    8920:	89 10                	mov    %edx,(%rax)
    8922:	c6 85 71 f7 ff ff 00 	movb   $0x0,-0x88f(%rbp)
    8929:	80 bd 71 f7 ff ff 02 	cmpb   $0x2,-0x88f(%rbp)
    8930:	77 35                	ja     8967 <func_1+0x11b2>
    8932:	48 8b 05 37 0b 01 00 	mov    0x10b37(%rip),%rax        # 19470 <g_2491>
    8939:	48 8b 00             	mov    (%rax),%rax
    893c:	48 85 c0             	test   %rax,%rax
    893f:	0f 95 c0             	setne  %al
    8942:	0f b6 c8             	movzbl %al,%ecx
    8945:	48 8b 05 cc 02 01 00 	mov    0x102cc(%rip),%rax        # 18c18 <g_561>
    894c:	8b 10                	mov    (%rax),%edx
    894e:	48 8b 05 c3 02 01 00 	mov    0x102c3(%rip),%rax        # 18c18 <g_561>
    8955:	31 ca                	xor    %ecx,%edx
    8957:	89 10                	mov    %edx,(%rax)
    8959:	48 8b 05 58 fc 00 00 	mov    0xfc58(%rip),%rax        # 185b8 <g_124>
    8960:	8b 00                	mov    (%rax),%eax
    8962:	e9 52 01 00 00       	jmpq   8ab9 <func_1+0x1304>
    8967:	48 8b 05 3a 0b 01 00 	mov    0x10b3a(%rip),%rax        # 194a8 <g_2695>
    896e:	48 8b 00             	mov    (%rax),%rax
    8971:	48 8b 00             	mov    (%rax),%rax
    8974:	0f b6 00             	movzbl (%rax),%eax
    8977:	0f be d0             	movsbl %al,%edx
    897a:	48 8b 85 c8 f7 ff ff 	mov    -0x838(%rbp),%rax
    8981:	48 85 c0             	test   %rax,%rax
    8984:	0f 94 c0             	sete   %al
    8987:	88 05 d5 eb 00 00    	mov    %al,0xebd5(%rip)        # 17562 <g_1607+0x2>
    898d:	0f b6 05 ce eb 00 00 	movzbl 0xebce(%rip),%eax        # 17562 <g_1607+0x2>
    8994:	0f be c0             	movsbl %al,%eax
    8997:	89 d6                	mov    %edx,%esi
    8999:	89 c7                	mov    %eax,%edi
    899b:	e8 ca d8 ff ff       	callq  626a <safe_div_func_int8_t_s_s>
    89a0:	0f b6 05 7e eb 00 00 	movzbl 0xeb7e(%rip),%eax        # 17525 <g_333+0x5>
    89a7:	0f b6 d8             	movzbl %al,%ebx
    89aa:	48 8d 05 bf 0a 01 00 	lea    0x10abf(%rip),%rax        # 19470 <g_2491>
    89b1:	48 39 85 00 f8 ff ff 	cmp    %rax,-0x800(%rbp)
    89b8:	0f 95 c0             	setne  %al
    89bb:	0f b6 d0             	movzbl %al,%edx
    89be:	0f b7 85 b6 f8 ff ff 	movzwl -0x74a(%rbp),%eax
    89c5:	0f be c0             	movsbl %al,%eax
    89c8:	89 d6                	mov    %edx,%esi
    89ca:	89 c7                	mov    %eax,%edi
    89cc:	e8 03 d8 ff ff       	callq  61d4 <safe_add_func_int8_t_s_s>
    89d1:	0f be c0             	movsbl %al,%eax
    89d4:	39 c3                	cmp    %eax,%ebx
    89d6:	7e 07                	jle    89df <func_1+0x122a>
    89d8:	80 bd 73 f7 ff ff 00 	cmpb   $0x0,-0x88d(%rbp)
    89df:	8b 05 43 ec 00 00    	mov    0xec43(%rip),%eax        # 17628 <g_2644>
    89e5:	8b 15 3d ec 00 00    	mov    0xec3d(%rip),%edx        # 17628 <g_2644>
    89eb:	83 c2 03             	add    $0x3,%edx
    89ee:	48 63 ca             	movslq %edx,%rcx
    89f1:	48 63 d0             	movslq %eax,%rdx
    89f4:	48 89 d0             	mov    %rdx,%rax
    89f7:	48 c1 e0 03          	shl    $0x3,%rax
    89fb:	48 01 d0             	add    %rdx,%rax
    89fe:	48 8d 14 08          	lea    (%rax,%rcx,1),%rdx
    8a02:	48 8d 05 f7 ea 00 00 	lea    0xeaf7(%rip),%rax        # 17500 <g_242>
    8a09:	48 01 d0             	add    %rdx,%rax
    8a0c:	c6 00 01             	movb   $0x1,(%rax)
    8a0f:	48 8b 05 32 09 01 00 	mov    0x10932(%rip),%rax        # 19348 <g_1898>
    8a16:	0f b6 00             	movzbl (%rax),%eax
    8a19:	48 8b 05 78 0a 01 00 	mov    0x10a78(%rip),%rax        # 19498 <g_2697>
    8a20:	0f b6 00             	movzbl (%rax),%eax
    8a23:	48 0f be c0          	movsbq %al,%rax
    8a27:	ba ed 98 bf b7       	mov    $0xb7bf98ed,%edx
    8a2c:	48 39 d0             	cmp    %rdx,%rax
    8a2f:	0f 97 c0             	seta   %al
    8a32:	0f b6 d0             	movzbl %al,%edx
    8a35:	48 8b 85 80 f8 ff ff 	mov    -0x780(%rbp),%rax
    8a3c:	8b 00                	mov    (%rax),%eax
    8a3e:	09 c2                	or     %eax,%edx
    8a40:	48 8b 85 80 f8 ff ff 	mov    -0x780(%rbp),%rax
    8a47:	89 10                	mov    %edx,(%rax)
    8a49:	8b 05 d9 eb 00 00    	mov    0xebd9(%rip),%eax        # 17628 <g_2644>
    8a4f:	83 c0 01             	add    $0x1,%eax
    8a52:	89 05 d0 eb 00 00    	mov    %eax,0xebd0(%rip)        # 17628 <g_2644>
    8a58:	8b 05 ca eb 00 00    	mov    0xebca(%rip),%eax        # 17628 <g_2644>
    8a5e:	83 f8 02             	cmp    $0x2,%eax
    8a61:	0f 8e a4 fb ff ff    	jle    860b <func_1+0xe56>
    8a67:	0f b6 85 73 f7 ff ff 	movzbl -0x88d(%rbp),%eax
    8a6e:	eb 49                	jmp    8ab9 <func_1+0x1304>
    8a70:	0f b6 05 dd ea 00 00 	movzbl 0xeadd(%rip),%eax        # 17554 <g_1350>
    8a77:	48 0f be c0          	movsbq %al,%rax
    8a7b:	be 01 00 00 00       	mov    $0x1,%esi
    8a80:	48 89 c7             	mov    %rax,%rdi
    8a83:	e8 b9 dd ff ff       	callq  6841 <safe_add_func_int64_t_s_s>
    8a88:	88 05 c6 ea 00 00    	mov    %al,0xeac6(%rip)        # 17554 <g_1350>
    8a8e:	0f b6 05 bf ea 00 00 	movzbl 0xeabf(%rip),%eax        # 17554 <g_1350>
    8a95:	3c 0e                	cmp    $0xe,%al
    8a97:	0f 8e 8a f0 ff ff    	jle    7b27 <func_1+0x372>
    8a9d:	48 8b 05 5c f9 00 00 	mov    0xf95c(%rip),%rax        # 18400 <g_33>
    8aa4:	48 8d 95 e0 fc ff ff 	lea    -0x320(%rbp),%rdx
    8aab:	48 83 c2 04          	add    $0x4,%rdx
    8aaf:	48 89 10             	mov    %rdx,(%rax)
    8ab2:	48 8b 85 18 f8 ff ff 	mov    -0x7e8(%rbp),%rax
    8ab9:	48 8b 5d c8          	mov    -0x38(%rbp),%rbx
    8abd:	64 48 33 1c 25 28 00 	xor    %fs:0x28,%rbx
    8ac4:	00 00 
    8ac6:	74 05                	je     8acd <func_1+0x1318>
    8ac8:	e8 a3 d5 ff ff       	callq  6070 <__stack_chk_fail@plt>
    8acd:	48 81 c4 68 08 00 00 	add    $0x868,%rsp
    8ad4:	5b                   	pop    %rbx
    8ad5:	41 5c                	pop    %r12
    8ad7:	41 5d                	pop    %r13
    8ad9:	41 5e                	pop    %r14
    8adb:	41 5f                	pop    %r15
    8add:	5d                   	pop    %rbp
    8ade:	c3                   	retq   

0000000000008adf <func_14>:
    8adf:	f3 0f 1e fa          	endbr64 
    8ae3:	55                   	push   %rbp
    8ae4:	48 89 e5             	mov    %rsp,%rbp
    8ae7:	41 56                	push   %r14
    8ae9:	41 55                	push   %r13
    8aeb:	41 54                	push   %r12
    8aed:	53                   	push   %rbx
    8aee:	48 81 ec d0 00 00 00 	sub    $0xd0,%rsp
    8af5:	48 89 bd 18 ff ff ff 	mov    %rdi,-0xe8(%rbp)
    8afc:	64 48 8b 04 25 28 00 	mov    %fs:0x28,%rax
    8b03:	00 00 
    8b05:	48 89 45 d8          	mov    %rax,-0x28(%rbp)
    8b09:	31 c0                	xor    %eax,%eax
    8b0b:	48 8d 05 92 e5 00 00 	lea    0xe592(%rip),%rax        # 170a4 <g_4+0x64>
    8b12:	48 89 85 30 ff ff ff 	mov    %rax,-0xd0(%rbp)
    8b19:	48 8d 85 30 ff ff ff 	lea    -0xd0(%rbp),%rax
    8b20:	48 89 45 90          	mov    %rax,-0x70(%rbp)
    8b24:	48 8d 85 30 ff ff ff 	lea    -0xd0(%rbp),%rax
    8b2b:	48 89 45 98          	mov    %rax,-0x68(%rbp)
    8b2f:	48 8d 85 30 ff ff ff 	lea    -0xd0(%rbp),%rax
    8b36:	48 89 45 a0          	mov    %rax,-0x60(%rbp)
    8b3a:	48 8d 85 30 ff ff ff 	lea    -0xd0(%rbp),%rax
    8b41:	48 89 45 a8          	mov    %rax,-0x58(%rbp)
    8b45:	48 8d 85 30 ff ff ff 	lea    -0xd0(%rbp),%rax
    8b4c:	48 89 45 b0          	mov    %rax,-0x50(%rbp)
    8b50:	48 8d 85 30 ff ff ff 	lea    -0xd0(%rbp),%rax
    8b57:	48 89 45 b8          	mov    %rax,-0x48(%rbp)
    8b5b:	48 8d 85 30 ff ff ff 	lea    -0xd0(%rbp),%rax
    8b62:	48 89 45 c0          	mov    %rax,-0x40(%rbp)
    8b66:	48 8d 85 30 ff ff ff 	lea    -0xd0(%rbp),%rax
    8b6d:	48 89 45 c8          	mov    %rax,-0x38(%rbp)
    8b71:	48 8d 85 30 ff ff ff 	lea    -0xd0(%rbp),%rax
    8b78:	48 89 45 d0          	mov    %rax,-0x30(%rbp)
    8b7c:	48 c7 85 48 ff ff ff 	movq   $0x0,-0xb8(%rbp)
    8b83:	00 00 00 00 
    8b87:	48 8d 05 c2 e9 00 00 	lea    0xe9c2(%rip),%rax        # 17550 <g_1276>
    8b8e:	48 89 85 38 ff ff ff 	mov    %rax,-0xc8(%rbp)
    8b95:	48 8d 05 b0 e9 00 00 	lea    0xe9b0(%rip),%rax        # 1754c <g_1043>
    8b9c:	48 89 85 50 ff ff ff 	mov    %rax,-0xb0(%rbp)
    8ba3:	48 c7 85 58 ff ff ff 	movq   $0x0,-0xa8(%rbp)
    8baa:	00 00 00 00 
    8bae:	48 8d 05 33 e9 00 00 	lea    0xe933(%rip),%rax        # 174e8 <g_188>
    8bb5:	48 89 85 60 ff ff ff 	mov    %rax,-0xa0(%rbp)
    8bbc:	c6 85 2b ff ff ff f9 	movb   $0xf9,-0xd5(%rbp)
    8bc3:	48 c7 85 40 ff ff ff 	movq   $0x0,-0xc0(%rbp)
    8bca:	00 00 00 00 
    8bce:	48 8d 85 40 ff ff ff 	lea    -0xc0(%rbp),%rax
    8bd5:	48 89 85 68 ff ff ff 	mov    %rax,-0x98(%rbp)
    8bdc:	c7 85 2c ff ff ff 00 	movl   $0x0,-0xd4(%rbp)
    8be3:	00 00 00 
    8be6:	eb 1e                	jmp    8c06 <func_14+0x127>
    8be8:	8b 85 2c ff ff ff    	mov    -0xd4(%rbp),%eax
    8bee:	48 98                	cltq   
    8bf0:	48 8d 95 38 ff ff ff 	lea    -0xc8(%rbp),%rdx
    8bf7:	48 89 94 c5 70 ff ff 	mov    %rdx,-0x90(%rbp,%rax,8)
    8bfe:	ff 
    8bff:	83 85 2c ff ff ff 01 	addl   $0x1,-0xd4(%rbp)
    8c06:	83 bd 2c ff ff ff 02 	cmpl   $0x2,-0xd4(%rbp)
    8c0d:	7e d9                	jle    8be8 <func_14+0x109>
    8c0f:	48 8b 85 18 ff ff ff 	mov    -0xe8(%rbp),%rax
    8c16:	0f b6 d8             	movzbl %al,%ebx
    8c19:	4c 8b ad 70 ff ff ff 	mov    -0x90(%rbp),%r13
    8c20:	48 8b 05 c9 ff 00 00 	mov    0xffc9(%rip),%rax        # 18bf0 <g_200>
    8c27:	0f b7 00             	movzwl (%rax),%eax
    8c2a:	44 0f bf e0          	movswl %ax,%r12d
    8c2e:	44 0f b6 b5 2b ff ff 	movzbl -0xd5(%rbp),%r14d
    8c35:	ff 
    8c36:	48 8b 85 18 ff ff ff 	mov    -0xe8(%rbp),%rax
    8c3d:	89 c6                	mov    %eax,%esi
    8c3f:	bf 01 00 00 00       	mov    $0x1,%edi
    8c44:	e8 83 da ff ff       	callq  66cc <safe_mod_func_int32_t_s_s>
    8c49:	48 98                	cltq   
    8c4b:	48 c7 c6 ff ff ff ff 	mov    $0xffffffffffffffff,%rsi
    8c52:	48 89 c7             	mov    %rax,%rdi
    8c55:	e8 5a dd ff ff       	callq  69b4 <safe_mod_func_int64_t_s_s>
    8c5a:	89 c1                	mov    %eax,%ecx
    8c5c:	48 8b 05 9d f7 00 00 	mov    0xf79d(%rip),%rax        # 18400 <g_33>
    8c63:	44 89 f2             	mov    %r14d,%edx
    8c66:	89 ce                	mov    %ecx,%esi
    8c68:	48 89 c7             	mov    %rax,%rdi
    8c6b:	e8 31 48 00 00       	callq  d4a1 <func_29>
    8c70:	48 8b 95 68 ff ff ff 	mov    -0x98(%rbp),%rdx
    8c77:	48 89 02             	mov    %rax,(%rdx)
    8c7a:	48 8b 85 68 ff ff ff 	mov    -0x98(%rbp),%rax
    8c81:	48 8b 00             	mov    (%rax),%rax
    8c84:	4c 89 ea             	mov    %r13,%rdx
    8c87:	44 89 e6             	mov    %r12d,%esi
    8c8a:	48 89 c7             	mov    %rax,%rdi
    8c8d:	e8 35 02 00 00       	callq  8ec7 <func_25>
    8c92:	48 89 c1             	mov    %rax,%rcx
    8c95:	48 8b 85 30 ff ff ff 	mov    -0xd0(%rbp),%rax
    8c9c:	48 89 05 4d f7 00 00 	mov    %rax,0xf74d(%rip)        # 183f0 <g_23+0x30>
    8ca3:	48 8b 05 46 f7 00 00 	mov    0xf746(%rip),%rax        # 183f0 <g_23+0x30>
    8caa:	48 8d 15 73 e3 00 00 	lea    0xe373(%rip),%rdx        # 17024 <g_3>
    8cb1:	48 39 d0             	cmp    %rdx,%rax
    8cb4:	0f 95 c0             	setne  %al
    8cb7:	0f b6 c0             	movzbl %al,%eax
    8cba:	48 89 ce             	mov    %rcx,%rsi
    8cbd:	48 89 c7             	mov    %rax,%rdi
    8cc0:	e8 ea e3 ff ff       	callq  70af <safe_div_func_uint64_t_u_u>
    8cc5:	4c 8b 25 34 f7 00 00 	mov    0xf734(%rip),%r12        # 18400 <g_33>
    8ccc:	89 de                	mov    %ebx,%esi
    8cce:	bf 00 00 00 00       	mov    $0x0,%edi
    8cd3:	e8 32 00 00 00       	callq  8d0a <func_16>
    8cd8:	49 89 04 24          	mov    %rax,(%r12)
    8cdc:	48 8b 05 15 05 01 00 	mov    0x10515(%rip),%rax        # 191f8 <g_1132>
    8ce3:	0f b6 00             	movzbl (%rax),%eax
    8ce6:	48 8b 5d d8          	mov    -0x28(%rbp),%rbx
    8cea:	64 48 33 1c 25 28 00 	xor    %fs:0x28,%rbx
    8cf1:	00 00 
    8cf3:	74 05                	je     8cfa <func_14+0x21b>
    8cf5:	e8 76 d3 ff ff       	callq  6070 <__stack_chk_fail@plt>
    8cfa:	48 81 c4 d0 00 00 00 	add    $0xd0,%rsp
    8d01:	5b                   	pop    %rbx
    8d02:	41 5c                	pop    %r12
    8d04:	41 5d                	pop    %r13
    8d06:	41 5e                	pop    %r14
    8d08:	5d                   	pop    %rbp
    8d09:	c3                   	retq   

0000000000008d0a <func_16>:
    8d0a:	f3 0f 1e fa          	endbr64 
    8d0e:	55                   	push   %rbp
    8d0f:	48 89 e5             	mov    %rsp,%rbp
    8d12:	41 57                	push   %r15
    8d14:	41 56                	push   %r14
    8d16:	41 55                	push   %r13
    8d18:	41 54                	push   %r12
    8d1a:	53                   	push   %rbx
    8d1b:	48 83 ec 38          	sub    $0x38,%rsp
    8d1f:	48 89 7d b0          	mov    %rdi,-0x50(%rbp)
    8d23:	89 f0                	mov    %esi,%eax
    8d25:	88 45 ac             	mov    %al,-0x54(%rbp)
    8d28:	c7 45 c4 07 00 00 00 	movl   $0x7,-0x3c(%rbp)
    8d2f:	66 c7 45 c2 f6 ff    	movw   $0xfff6,-0x3e(%rbp)
    8d35:	48 c7 45 d0 00 00 00 	movq   $0x0,-0x30(%rbp)
    8d3c:	00 
    8d3d:	c7 45 c8 00 00 00 00 	movl   $0x0,-0x38(%rbp)
    8d44:	c7 45 cc 27 c1 ef 70 	movl   $0x70efc127,-0x34(%rbp)
    8d4b:	0f b6 5d ac          	movzbl -0x54(%rbp),%ebx
    8d4f:	48 8b 05 5a f8 00 00 	mov    0xf85a(%rip),%rax        # 185b0 <g_118>
    8d56:	8b 00                	mov    (%rax),%eax
    8d58:	89 45 a8             	mov    %eax,-0x58(%rbp)
    8d5b:	48 8b 05 8e fe 00 00 	mov    0xfe8e(%rip),%rax        # 18bf0 <g_200>
    8d62:	0f b7 00             	movzwl (%rax),%eax
    8d65:	44 0f bf e0          	movswl %ax,%r12d
    8d69:	44 0f b6 6d ac       	movzbl -0x54(%rbp),%r13d
    8d6e:	8b 45 c4             	mov    -0x3c(%rbp),%eax
    8d71:	44 0f be f0          	movsbl %al,%r14d
    8d75:	48 8d 05 8c 0b 01 00 	lea    0x10b8c(%rip),%rax        # 19908 <g_68>
    8d7c:	8b 55 c4             	mov    -0x3c(%rbp),%edx
    8d7f:	48 63 d2             	movslq %edx,%rdx
    8d82:	48 89 10             	mov    %rdx,(%rax)
    8d85:	4c 8b 38             	mov    (%rax),%r15
    8d88:	0f b6 45 ac          	movzbl -0x54(%rbp),%eax
    8d8c:	89 45 a4             	mov    %eax,-0x5c(%rbp)
    8d8f:	0f b7 45 c2          	movzwl -0x3e(%rbp),%eax
    8d93:	89 c6                	mov    %eax,%esi
    8d95:	bf 00 00 00 00       	mov    $0x0,%edi
    8d9a:	e8 ef df ff ff       	callq  6d8e <safe_div_func_uint16_t_u_u>
    8d9f:	0f b7 c0             	movzwl %ax,%eax
    8da2:	0b 45 a4             	or     -0x5c(%rbp),%eax
    8da5:	85 c0                	test   %eax,%eax
    8da7:	7f 07                	jg     8db0 <func_16+0xa6>
    8da9:	b8 01 00 00 00       	mov    $0x1,%eax
    8dae:	eb 05                	jmp    8db5 <func_16+0xab>
    8db0:	b8 00 00 00 00       	mov    $0x0,%eax
    8db5:	3b 45 c4             	cmp    -0x3c(%rbp),%eax
    8db8:	0f 9e c0             	setle  %al
    8dbb:	0f b6 c0             	movzbl %al,%eax
    8dbe:	be ff ff ff ff       	mov    $0xffffffff,%esi
    8dc3:	89 c7                	mov    %eax,%edi
    8dc5:	e8 06 e1 ff ff       	callq  6ed0 <safe_sub_func_uint32_t_u_u>
    8dca:	0f b7 55 c2          	movzwl -0x3e(%rbp),%edx
    8dce:	39 d0                	cmp    %edx,%eax
    8dd0:	0f 93 c0             	setae  %al
    8dd3:	0f b6 c0             	movzbl %al,%eax
    8dd6:	49 39 c7             	cmp    %rax,%r15
    8dd9:	0f 92 c0             	setb   %al
    8ddc:	0f b6 c0             	movzbl %al,%eax
    8ddf:	be bf 00 00 00       	mov    $0xbf,%esi
    8de4:	89 c7                	mov    %eax,%edi
    8de6:	e8 a8 dd ff ff       	callq  6b93 <safe_mul_func_uint8_t_u_u>
    8deb:	84 c0                	test   %al,%al
    8ded:	74 0d                	je     8dfc <func_16+0xf2>
    8def:	48 b8 bb b1 14 20 76 	movabs $0x586a66762014b1bb,%rax
    8df6:	66 6a 58 
    8df9:	48 85 c0             	test   %rax,%rax
    8dfc:	0f b6 55 ac          	movzbl -0x54(%rbp),%edx
    8e00:	0f b6 45 ac          	movzbl -0x54(%rbp),%eax
    8e04:	89 d6                	mov    %edx,%esi
    8e06:	89 c7                	mov    %eax,%edi
    8e08:	e8 1d d7 ff ff       	callq  652a <safe_rshift_func_int16_t_s_s>
    8e0d:	98                   	cwtl   
    8e0e:	be 01 00 00 00       	mov    $0x1,%esi
    8e13:	89 c7                	mov    %eax,%edi
    8e15:	e8 0b e1 ff ff       	callq  6f25 <safe_div_func_uint32_t_u_u>
    8e1a:	0f be c0             	movsbl %al,%eax
    8e1d:	44 89 f6             	mov    %r14d,%esi
    8e20:	89 c7                	mov    %eax,%edi
    8e22:	e8 eb d3 ff ff       	callq  6212 <safe_mul_func_int8_t_s_s>
    8e27:	84 c0                	test   %al,%al
    8e29:	75 04                	jne    8e2f <func_16+0x125>
    8e2b:	80 7d ac 00          	cmpb   $0x0,-0x54(%rbp)
    8e2f:	83 7d c4 00          	cmpl   $0x0,-0x3c(%rbp)
    8e33:	74 19                	je     8e4e <func_16+0x144>
    8e35:	48 8b 05 34 06 01 00 	mov    0x10634(%rip),%rax        # 19470 <g_2491>
    8e3c:	48 8b 00             	mov    (%rax),%rax
    8e3f:	0f b7 00             	movzwl (%rax),%eax
    8e42:	66 85 c0             	test   %ax,%ax
    8e45:	74 07                	je     8e4e <func_16+0x144>
    8e47:	b8 01 00 00 00       	mov    $0x1,%eax
    8e4c:	eb 05                	jmp    8e53 <func_16+0x149>
    8e4e:	b8 00 00 00 00       	mov    $0x0,%eax
    8e53:	89 45 c8             	mov    %eax,-0x38(%rbp)
    8e56:	8b 45 c8             	mov    -0x38(%rbp),%eax
    8e59:	0f b7 c0             	movzwl %ax,%eax
    8e5c:	44 89 ee             	mov    %r13d,%esi
    8e5f:	89 c7                	mov    %eax,%edi
    8e61:	e8 d7 de ff ff       	callq  6d3d <safe_mul_func_uint16_t_u_u>
    8e66:	b8 01 00 00 00       	mov    $0x1,%eax
    8e6b:	98                   	cwtl   
    8e6c:	44 89 e6             	mov    %r12d,%esi
    8e6f:	89 c7                	mov    %eax,%edi
    8e71:	e8 df d5 ff ff       	callq  6455 <safe_div_func_int16_t_s_s>
    8e76:	0f b6 c0             	movzbl %al,%eax
    8e79:	be 00 00 00 00       	mov    $0x0,%esi
    8e7e:	89 c7                	mov    %eax,%edi
    8e80:	e8 08 de ff ff       	callq  6c8d <safe_rshift_func_uint8_t_u_s>
    8e85:	0f b6 45 ac          	movzbl -0x54(%rbp),%eax
    8e89:	8b 75 a8             	mov    -0x58(%rbp),%esi
    8e8c:	89 c7                	mov    %eax,%edi
    8e8e:	e8 92 e0 ff ff       	callq  6f25 <safe_div_func_uint32_t_u_u>
    8e93:	0f b7 c0             	movzwl %ax,%eax
    8e96:	89 de                	mov    %ebx,%esi
    8e98:	89 c7                	mov    %eax,%edi
    8e9a:	e8 9e de ff ff       	callq  6d3d <safe_mul_func_uint16_t_u_u>
    8e9f:	0f b6 c0             	movzbl %al,%eax
    8ea2:	be a8 00 00 00       	mov    $0xa8,%esi
    8ea7:	89 c7                	mov    %eax,%edi
    8ea9:	e8 2d dd ff ff       	callq  6bdb <safe_div_func_uint8_t_u_u>
    8eae:	0f b6 c0             	movzbl %al,%eax
    8eb1:	89 45 cc             	mov    %eax,-0x34(%rbp)
    8eb4:	48 8b 45 b0          	mov    -0x50(%rbp),%rax
    8eb8:	48 83 c4 38          	add    $0x38,%rsp
    8ebc:	5b                   	pop    %rbx
    8ebd:	41 5c                	pop    %r12
    8ebf:	41 5d                	pop    %r13
    8ec1:	41 5e                	pop    %r14
    8ec3:	41 5f                	pop    %r15
    8ec5:	5d                   	pop    %rbp
    8ec6:	c3                   	retq   

0000000000008ec7 <func_25>:
    8ec7:	f3 0f 1e fa          	endbr64 
    8ecb:	55                   	push   %rbp
    8ecc:	48 89 e5             	mov    %rsp,%rbp
    8ecf:	41 57                	push   %r15
    8ed1:	41 56                	push   %r14
    8ed3:	41 55                	push   %r13
    8ed5:	41 54                	push   %r12
    8ed7:	53                   	push   %rbx
    8ed8:	48 81 ec 00 10 00 00 	sub    $0x1000,%rsp
    8edf:	48 83 0c 24 00       	orq    $0x0,(%rsp)
    8ee4:	48 81 ec 38 05 00 00 	sub    $0x538,%rsp
    8eeb:	48 89 bd d8 ea ff ff 	mov    %rdi,-0x1528(%rbp)
    8ef2:	89 f0                	mov    %esi,%eax
    8ef4:	48 89 95 c8 ea ff ff 	mov    %rdx,-0x1538(%rbp)
    8efb:	66 89 85 d4 ea ff ff 	mov    %ax,-0x152c(%rbp)
    8f02:	64 48 8b 04 25 28 00 	mov    %fs:0x28,%rax
    8f09:	00 00 
    8f0b:	48 89 45 c8          	mov    %rax,-0x38(%rbp)
    8f0f:	31 c0                	xor    %eax,%eax
    8f11:	c6 85 ee ea ff ff fe 	movb   $0xfe,-0x1512(%rbp)
    8f18:	48 c7 85 48 ec ff ff 	movq   $0x0,-0x13b8(%rbp)
    8f1f:	00 00 00 00 
    8f23:	48 8d 05 38 e6 00 00 	lea    0xe638(%rip),%rax        # 17562 <g_1607+0x2>
    8f2a:	48 89 85 f0 ef ff ff 	mov    %rax,-0x1010(%rbp)
    8f31:	48 8d 05 4b e6 00 00 	lea    0xe64b(%rip),%rax        # 17583 <g_1607+0x23>
    8f38:	48 89 85 f8 ef ff ff 	mov    %rax,-0x1008(%rbp)
    8f3f:	48 8d 05 1c e6 00 00 	lea    0xe61c(%rip),%rax        # 17562 <g_1607+0x2>
    8f46:	48 89 85 00 f0 ff ff 	mov    %rax,-0x1000(%rbp)
    8f4d:	48 8d 05 00 e6 00 00 	lea    0xe600(%rip),%rax        # 17554 <g_1350>
    8f54:	48 89 85 08 f0 ff ff 	mov    %rax,-0xff8(%rbp)
    8f5b:	48 8d 05 f2 e5 00 00 	lea    0xe5f2(%rip),%rax        # 17554 <g_1350>
    8f62:	48 89 85 10 f0 ff ff 	mov    %rax,-0xff0(%rbp)
    8f69:	48 8d 05 e4 e5 00 00 	lea    0xe5e4(%rip),%rax        # 17554 <g_1350>
    8f70:	48 89 85 18 f0 ff ff 	mov    %rax,-0xfe8(%rbp)
    8f77:	48 8d 05 e4 e5 00 00 	lea    0xe5e4(%rip),%rax        # 17562 <g_1607+0x2>
    8f7e:	48 89 85 20 f0 ff ff 	mov    %rax,-0xfe0(%rbp)
    8f85:	48 8d 05 f7 e5 00 00 	lea    0xe5f7(%rip),%rax        # 17583 <g_1607+0x23>
    8f8c:	48 89 85 28 f0 ff ff 	mov    %rax,-0xfd8(%rbp)
    8f93:	48 8d 05 c8 e5 00 00 	lea    0xe5c8(%rip),%rax        # 17562 <g_1607+0x2>
    8f9a:	48 89 85 30 f0 ff ff 	mov    %rax,-0xfd0(%rbp)
    8fa1:	48 8d 05 ac e5 00 00 	lea    0xe5ac(%rip),%rax        # 17554 <g_1350>
    8fa8:	48 89 85 38 f0 ff ff 	mov    %rax,-0xfc8(%rbp)
    8faf:	48 8d 05 9e e5 00 00 	lea    0xe59e(%rip),%rax        # 17554 <g_1350>
    8fb6:	48 89 85 40 f0 ff ff 	mov    %rax,-0xfc0(%rbp)
    8fbd:	48 8d 05 90 e5 00 00 	lea    0xe590(%rip),%rax        # 17554 <g_1350>
    8fc4:	48 89 85 48 f0 ff ff 	mov    %rax,-0xfb8(%rbp)
    8fcb:	c7 85 4c eb ff ff 3e 	movl   $0x5e93d3e,-0x14b4(%rbp)
    8fd2:	3d e9 05 
    8fd5:	48 8d 05 54 e5 00 00 	lea    0xe554(%rip),%rax        # 17530 <g_407>
    8fdc:	48 89 85 e0 eb ff ff 	mov    %rax,-0x1420(%rbp)
    8fe3:	48 8d 05 06 e5 00 00 	lea    0xe506(%rip),%rax        # 174f0 <g_203>
    8fea:	48 89 85 50 ec ff ff 	mov    %rax,-0x13b0(%rbp)
    8ff1:	c7 85 18 eb ff ff 00 	movl   $0x0,-0x14e8(%rbp)
    8ff8:	00 00 00 
    8ffb:	c7 85 50 eb ff ff 31 	movl   $0x7a680331,-0x14b0(%rbp)
    9002:	03 68 7a 
    9005:	48 c7 85 58 ec ff ff 	movq   $0x0,-0x13a8(%rbp)
    900c:	00 00 00 00 
    9010:	c6 85 f0 ea ff ff 4f 	movb   $0x4f,-0x1510(%rbp)
    9017:	66 c7 85 f8 ea ff ff 	movw   $0x66fb,-0x1508(%rbp)
    901e:	fb 66 
    9020:	48 c7 85 60 ec ff ff 	movq   $0x0,-0x13a0(%rbp)
    9027:	00 00 00 00 
    902b:	c6 85 ef ea ff ff 00 	movb   $0x0,-0x1511(%rbp)
    9032:	c7 85 50 f0 ff ff ff 	movl   $0xffffffff,-0xfb0(%rbp)
    9039:	ff ff ff 
    903c:	c7 85 54 f0 ff ff 00 	movl   $0x0,-0xfac(%rbp)
    9043:	00 00 00 
    9046:	c7 85 58 f0 ff ff ff 	movl   $0xffffffff,-0xfa8(%rbp)
    904d:	ff ff ff 
    9050:	c7 85 5c f0 ff ff 00 	movl   $0x0,-0xfa4(%rbp)
    9057:	00 00 00 
    905a:	c7 85 60 f0 ff ff ff 	movl   $0xffffffff,-0xfa0(%rbp)
    9061:	ff ff ff 
    9064:	c7 85 64 f0 ff ff 00 	movl   $0x0,-0xf9c(%rbp)
    906b:	00 00 00 
    906e:	c7 85 68 f0 ff ff 00 	movl   $0x0,-0xf98(%rbp)
    9075:	00 00 00 
    9078:	c7 85 6c f0 ff ff 00 	movl   $0x0,-0xf94(%rbp)
    907f:	00 00 00 
    9082:	c7 85 70 f0 ff ff 00 	movl   $0x0,-0xf90(%rbp)
    9089:	00 00 00 
    908c:	c7 85 74 f0 ff ff 00 	movl   $0x0,-0xf8c(%rbp)
    9093:	00 00 00 
    9096:	c7 85 78 f0 ff ff 00 	movl   $0x0,-0xf88(%rbp)
    909d:	00 00 00 
    90a0:	c7 85 7c f0 ff ff 00 	movl   $0x0,-0xf84(%rbp)
    90a7:	00 00 00 
    90aa:	c7 85 80 f0 ff ff ff 	movl   $0xffffffff,-0xf80(%rbp)
    90b1:	ff ff ff 
    90b4:	c7 85 84 f0 ff ff 00 	movl   $0x0,-0xf7c(%rbp)
    90bb:	00 00 00 
    90be:	c7 85 88 f0 ff ff ff 	movl   $0xffffffff,-0xf78(%rbp)
    90c5:	ff ff ff 
    90c8:	c7 85 8c f0 ff ff 00 	movl   $0x0,-0xf74(%rbp)
    90cf:	00 00 00 
    90d2:	c7 85 90 f0 ff ff ff 	movl   $0xffffffff,-0xf70(%rbp)
    90d9:	ff ff ff 
    90dc:	c7 85 94 f0 ff ff 00 	movl   $0x0,-0xf6c(%rbp)
    90e3:	00 00 00 
    90e6:	c7 85 98 f0 ff ff 00 	movl   $0x0,-0xf68(%rbp)
    90ed:	00 00 00 
    90f0:	c7 85 9c f0 ff ff 00 	movl   $0x0,-0xf64(%rbp)
    90f7:	00 00 00 
    90fa:	c7 85 a0 f0 ff ff 00 	movl   $0x0,-0xf60(%rbp)
    9101:	00 00 00 
    9104:	c7 85 a4 f0 ff ff 00 	movl   $0x0,-0xf5c(%rbp)
    910b:	00 00 00 
    910e:	c7 85 a8 f0 ff ff 00 	movl   $0x0,-0xf58(%rbp)
    9115:	00 00 00 
    9118:	c7 85 ac f0 ff ff 00 	movl   $0x0,-0xf54(%rbp)
    911f:	00 00 00 
    9122:	48 8d 05 c7 07 01 00 	lea    0x107c7(%rip),%rax        # 198f0 <g_34>
    9129:	48 89 85 10 ef ff ff 	mov    %rax,-0x10f0(%rbp)
    9130:	48 8d 05 b9 07 01 00 	lea    0x107b9(%rip),%rax        # 198f0 <g_34>
    9137:	48 89 85 18 ef ff ff 	mov    %rax,-0x10e8(%rbp)
    913e:	48 8d 05 ab 07 01 00 	lea    0x107ab(%rip),%rax        # 198f0 <g_34>
    9145:	48 89 85 20 ef ff ff 	mov    %rax,-0x10e0(%rbp)
    914c:	48 8d 05 9d 07 01 00 	lea    0x1079d(%rip),%rax        # 198f0 <g_34>
    9153:	48 89 85 28 ef ff ff 	mov    %rax,-0x10d8(%rbp)
    915a:	48 8d 05 8f 07 01 00 	lea    0x1078f(%rip),%rax        # 198f0 <g_34>
    9161:	48 89 85 30 ef ff ff 	mov    %rax,-0x10d0(%rbp)
    9168:	48 8d 05 81 07 01 00 	lea    0x10781(%rip),%rax        # 198f0 <g_34>
    916f:	48 89 85 38 ef ff ff 	mov    %rax,-0x10c8(%rbp)
    9176:	48 8d 05 73 07 01 00 	lea    0x10773(%rip),%rax        # 198f0 <g_34>
    917d:	48 89 85 40 ef ff ff 	mov    %rax,-0x10c0(%rbp)
    9184:	48 8d 05 c5 07 01 00 	lea    0x107c5(%rip),%rax        # 19950 <g_890>
    918b:	48 89 85 e8 eb ff ff 	mov    %rax,-0x1418(%rbp)
    9192:	48 8d 85 f8 ea ff ff 	lea    -0x1508(%rbp),%rax
    9199:	48 89 85 f0 eb ff ff 	mov    %rax,-0x1410(%rbp)
    91a0:	48 8d 85 f0 eb ff ff 	lea    -0x1410(%rbp),%rax
    91a7:	48 89 85 f8 eb ff ff 	mov    %rax,-0x1408(%rbp)
    91ae:	48 8d 85 f8 eb ff ff 	lea    -0x1408(%rbp),%rax
    91b5:	48 89 85 00 ec ff ff 	mov    %rax,-0x1400(%rbp)
    91bc:	48 8d 85 00 ec ff ff 	lea    -0x1400(%rbp),%rax
    91c3:	48 89 85 08 ec ff ff 	mov    %rax,-0x13f8(%rbp)
    91ca:	48 c7 85 c0 f3 ff ff 	movq   $0x0,-0xc40(%rbp)
    91d1:	00 00 00 00 
    91d5:	48 8d 85 08 ec ff ff 	lea    -0x13f8(%rbp),%rax
    91dc:	48 89 85 c8 f3 ff ff 	mov    %rax,-0xc38(%rbp)
    91e3:	48 c7 85 d0 f3 ff ff 	movq   $0x0,-0xc30(%rbp)
    91ea:	00 00 00 00 
    91ee:	48 c7 85 d8 f3 ff ff 	movq   $0x0,-0xc28(%rbp)
    91f5:	00 00 00 00 
    91f9:	48 c7 85 e0 f3 ff ff 	movq   $0x0,-0xc20(%rbp)
    9200:	00 00 00 00 
    9204:	48 8d 85 08 ec ff ff 	lea    -0x13f8(%rbp),%rax
    920b:	48 89 85 e8 f3 ff ff 	mov    %rax,-0xc18(%rbp)
    9212:	48 c7 85 f0 f3 ff ff 	movq   $0x0,-0xc10(%rbp)
    9219:	00 00 00 00 
    921d:	48 c7 85 f8 f3 ff ff 	movq   $0x0,-0xc08(%rbp)
    9224:	00 00 00 00 
    9228:	48 8d 85 08 ec ff ff 	lea    -0x13f8(%rbp),%rax
    922f:	48 89 85 00 f4 ff ff 	mov    %rax,-0xc00(%rbp)
    9236:	48 c7 85 08 f4 ff ff 	movq   $0x0,-0xbf8(%rbp)
    923d:	00 00 00 00 
    9241:	48 c7 85 10 f4 ff ff 	movq   $0x0,-0xbf0(%rbp)
    9248:	00 00 00 00 
    924c:	48 8d 85 08 ec ff ff 	lea    -0x13f8(%rbp),%rax
    9253:	48 89 85 18 f4 ff ff 	mov    %rax,-0xbe8(%rbp)
    925a:	48 c7 85 20 f4 ff ff 	movq   $0x0,-0xbe0(%rbp)
    9261:	00 00 00 00 
    9265:	48 c7 85 28 f4 ff ff 	movq   $0x0,-0xbd8(%rbp)
    926c:	00 00 00 00 
    9270:	48 c7 85 30 f4 ff ff 	movq   $0x0,-0xbd0(%rbp)
    9277:	00 00 00 00 
    927b:	48 8d 85 08 ec ff ff 	lea    -0x13f8(%rbp),%rax
    9282:	48 89 85 38 f4 ff ff 	mov    %rax,-0xbc8(%rbp)
    9289:	48 c7 85 40 f4 ff ff 	movq   $0x0,-0xbc0(%rbp)
    9290:	00 00 00 00 
    9294:	48 c7 85 48 f4 ff ff 	movq   $0x0,-0xbb8(%rbp)
    929b:	00 00 00 00 
    929f:	48 8d 85 08 ec ff ff 	lea    -0x13f8(%rbp),%rax
    92a6:	48 89 85 50 f4 ff ff 	mov    %rax,-0xbb0(%rbp)
    92ad:	48 c7 85 58 f4 ff ff 	movq   $0x0,-0xba8(%rbp)
    92b4:	00 00 00 00 
    92b8:	48 c7 85 60 f4 ff ff 	movq   $0x0,-0xba0(%rbp)
    92bf:	00 00 00 00 
    92c3:	48 8d 85 08 ec ff ff 	lea    -0x13f8(%rbp),%rax
    92ca:	48 89 85 68 f4 ff ff 	mov    %rax,-0xb98(%rbp)
    92d1:	48 c7 85 70 f4 ff ff 	movq   $0x0,-0xb90(%rbp)
    92d8:	00 00 00 00 
    92dc:	48 c7 85 78 f4 ff ff 	movq   $0x0,-0xb88(%rbp)
    92e3:	00 00 00 00 
    92e7:	48 c7 85 80 f4 ff ff 	movq   $0x0,-0xb80(%rbp)
    92ee:	00 00 00 00 
    92f2:	48 8d 85 08 ec ff ff 	lea    -0x13f8(%rbp),%rax
    92f9:	48 89 85 88 f4 ff ff 	mov    %rax,-0xb78(%rbp)
    9300:	48 c7 85 90 f4 ff ff 	movq   $0x0,-0xb70(%rbp)
    9307:	00 00 00 00 
    930b:	48 c7 85 98 f4 ff ff 	movq   $0x0,-0xb68(%rbp)
    9312:	00 00 00 00 
    9316:	48 8d 85 08 ec ff ff 	lea    -0x13f8(%rbp),%rax
    931d:	48 89 85 a0 f4 ff ff 	mov    %rax,-0xb60(%rbp)
    9324:	48 c7 85 a8 f4 ff ff 	movq   $0x0,-0xb58(%rbp)
    932b:	00 00 00 00 
    932f:	48 c7 85 b0 f4 ff ff 	movq   $0x0,-0xb50(%rbp)
    9336:	00 00 00 00 
    933a:	48 8d 85 08 ec ff ff 	lea    -0x13f8(%rbp),%rax
    9341:	48 89 85 b8 f4 ff ff 	mov    %rax,-0xb48(%rbp)
    9348:	48 c7 85 c0 f4 ff ff 	movq   $0x0,-0xb40(%rbp)
    934f:	00 00 00 00 
    9353:	48 c7 85 c8 f4 ff ff 	movq   $0x0,-0xb38(%rbp)
    935a:	00 00 00 00 
    935e:	48 c7 85 d0 f4 ff ff 	movq   $0x0,-0xb30(%rbp)
    9365:	00 00 00 00 
    9369:	48 8d 85 08 ec ff ff 	lea    -0x13f8(%rbp),%rax
    9370:	48 89 85 d8 f4 ff ff 	mov    %rax,-0xb28(%rbp)
    9377:	48 c7 85 e0 f4 ff ff 	movq   $0x0,-0xb20(%rbp)
    937e:	00 00 00 00 
    9382:	48 c7 85 e8 f4 ff ff 	movq   $0x0,-0xb18(%rbp)
    9389:	00 00 00 00 
    938d:	48 8d 85 08 ec ff ff 	lea    -0x13f8(%rbp),%rax
    9394:	48 89 85 f0 f4 ff ff 	mov    %rax,-0xb10(%rbp)
    939b:	48 c7 85 f8 f4 ff ff 	movq   $0x0,-0xb08(%rbp)
    93a2:	00 00 00 00 
    93a6:	48 c7 85 00 f5 ff ff 	movq   $0x0,-0xb00(%rbp)
    93ad:	00 00 00 00 
    93b1:	48 8d 85 08 ec ff ff 	lea    -0x13f8(%rbp),%rax
    93b8:	48 89 85 08 f5 ff ff 	mov    %rax,-0xaf8(%rbp)
    93bf:	48 c7 85 10 f5 ff ff 	movq   $0x0,-0xaf0(%rbp)
    93c6:	00 00 00 00 
    93ca:	48 c7 85 18 f5 ff ff 	movq   $0x0,-0xae8(%rbp)
    93d1:	00 00 00 00 
    93d5:	48 c7 85 20 f5 ff ff 	movq   $0x0,-0xae0(%rbp)
    93dc:	00 00 00 00 
    93e0:	48 8d 85 08 ec ff ff 	lea    -0x13f8(%rbp),%rax
    93e7:	48 89 85 28 f5 ff ff 	mov    %rax,-0xad8(%rbp)
    93ee:	48 c7 85 30 f5 ff ff 	movq   $0x0,-0xad0(%rbp)
    93f5:	00 00 00 00 
    93f9:	48 c7 85 38 f5 ff ff 	movq   $0x0,-0xac8(%rbp)
    9400:	00 00 00 00 
    9404:	48 8d 85 08 ec ff ff 	lea    -0x13f8(%rbp),%rax
    940b:	48 89 85 40 f5 ff ff 	mov    %rax,-0xac0(%rbp)
    9412:	48 c7 85 48 f5 ff ff 	movq   $0x0,-0xab8(%rbp)
    9419:	00 00 00 00 
    941d:	48 c7 85 50 f5 ff ff 	movq   $0x0,-0xab0(%rbp)
    9424:	00 00 00 00 
    9428:	48 8d 85 08 ec ff ff 	lea    -0x13f8(%rbp),%rax
    942f:	48 89 85 58 f5 ff ff 	mov    %rax,-0xaa8(%rbp)
    9436:	48 c7 85 60 f5 ff ff 	movq   $0x0,-0xaa0(%rbp)
    943d:	00 00 00 00 
    9441:	48 c7 85 68 f5 ff ff 	movq   $0x0,-0xa98(%rbp)
    9448:	00 00 00 00 
    944c:	48 c7 85 70 f5 ff ff 	movq   $0x0,-0xa90(%rbp)
    9453:	00 00 00 00 
    9457:	48 8d 85 08 ec ff ff 	lea    -0x13f8(%rbp),%rax
    945e:	48 89 85 78 f5 ff ff 	mov    %rax,-0xa88(%rbp)
    9465:	48 c7 85 80 f5 ff ff 	movq   $0x0,-0xa80(%rbp)
    946c:	00 00 00 00 
    9470:	48 c7 85 88 f5 ff ff 	movq   $0x0,-0xa78(%rbp)
    9477:	00 00 00 00 
    947b:	48 8d 85 08 ec ff ff 	lea    -0x13f8(%rbp),%rax
    9482:	48 89 85 90 f5 ff ff 	mov    %rax,-0xa70(%rbp)
    9489:	48 c7 85 98 f5 ff ff 	movq   $0x0,-0xa68(%rbp)
    9490:	00 00 00 00 
    9494:	48 c7 85 a0 f5 ff ff 	movq   $0x0,-0xa60(%rbp)
    949b:	00 00 00 00 
    949f:	48 8d 85 08 ec ff ff 	lea    -0x13f8(%rbp),%rax
    94a6:	48 89 85 a8 f5 ff ff 	mov    %rax,-0xa58(%rbp)
    94ad:	48 c7 85 b0 f5 ff ff 	movq   $0x0,-0xa50(%rbp)
    94b4:	00 00 00 00 
    94b8:	48 c7 85 b8 f5 ff ff 	movq   $0x0,-0xa48(%rbp)
    94bf:	00 00 00 00 
    94c3:	48 c7 85 c0 f5 ff ff 	movq   $0x0,-0xa40(%rbp)
    94ca:	00 00 00 00 
    94ce:	48 8d 85 08 ec ff ff 	lea    -0x13f8(%rbp),%rax
    94d5:	48 89 85 c8 f5 ff ff 	mov    %rax,-0xa38(%rbp)
    94dc:	48 c7 85 d0 f5 ff ff 	movq   $0x0,-0xa30(%rbp)
    94e3:	00 00 00 00 
    94e7:	48 c7 85 d8 f5 ff ff 	movq   $0x0,-0xa28(%rbp)
    94ee:	00 00 00 00 
    94f2:	48 8d 85 08 ec ff ff 	lea    -0x13f8(%rbp),%rax
    94f9:	48 89 85 e0 f5 ff ff 	mov    %rax,-0xa20(%rbp)
    9500:	48 c7 85 e8 f5 ff ff 	movq   $0x0,-0xa18(%rbp)
    9507:	00 00 00 00 
    950b:	48 c7 85 68 ec ff ff 	movq   $0x0,-0x1398(%rbp)
    9512:	00 00 00 00 
    9516:	48 c7 85 10 ec ff ff 	movq   $0x0,-0x13f0(%rbp)
    951d:	00 00 00 00 
    9521:	c6 85 f1 ea ff ff 00 	movb   $0x0,-0x150f(%rbp)
    9528:	c6 85 f2 ea ff ff da 	movb   $0xda,-0x150e(%rbp)
    952f:	66 c7 85 fc ea ff ff 	movw   $0x9bdb,-0x1504(%rbp)
    9536:	db 9b 
    9538:	48 b8 29 43 30 52 d4 	movabs $0xef02d1d452304329,%rax
    953f:	d1 02 ef 
    9542:	48 89 85 70 ec ff ff 	mov    %rax,-0x1390(%rbp)
    9549:	c6 85 f3 ea ff ff ff 	movb   $0xff,-0x150d(%rbp)
    9550:	48 8d 05 49 ff 00 00 	lea    0xff49(%rip),%rax        # 194a0 <g_2696>
    9557:	48 89 85 78 ec ff ff 	mov    %rax,-0x1388(%rbp)
    955e:	c7 85 50 ef ff ff 01 	movl   $0x2fc0101,-0x10b0(%rbp)
    9565:	01 fc 02 
    9568:	66 c7 85 54 ef ff ff 	movw   $0xff00,-0x10ac(%rbp)
    956f:	00 ff 
    9571:	c6 85 56 ef ff ff b1 	movb   $0xb1,-0x10aa(%rbp)
    9578:	c7 85 57 ef ff ff 01 	movl   $0xff001601,-0x10a9(%rbp)
    957f:	16 00 ff 
    9582:	66 c7 85 5b ef ff ff 	movw   $0xfafa,-0x10a5(%rbp)
    9589:	fa fa 
    958b:	c6 85 5d ef ff ff ff 	movb   $0xff,-0x10a3(%rbp)
    9592:	c7 85 5e ef ff ff 01 	movl   $0xfa010201,-0x10a2(%rbp)
    9599:	02 01 fa 
    959c:	66 c7 85 62 ef ff ff 	movw   $0x1689,-0x109e(%rbp)
    95a3:	89 16 
    95a5:	c6 85 64 ef ff ff ff 	movb   $0xff,-0x109c(%rbp)
    95ac:	c7 85 65 ef ff ff 3c 	movl   $0x1ff013c,-0x109b(%rbp)
    95b3:	01 ff 01 
    95b6:	66 c7 85 69 ef ff ff 	movw   $0x1ff,-0x1097(%rbp)
    95bd:	ff 01 
    95bf:	c6 85 6b ef ff ff b1 	movb   $0xb1,-0x1095(%rbp)
    95c6:	c7 85 6c ef ff ff ff 	movl   $0x11601ff,-0x1094(%rbp)
    95cd:	01 16 01 
    95d0:	66 c7 85 70 ef ff ff 	movw   $0x1601,-0x1090(%rbp)
    95d7:	01 16 
    95d9:	c6 85 72 ef ff ff 01 	movb   $0x1,-0x108e(%rbp)
    95e0:	c7 85 73 ef ff ff b1 	movl   $0xff1539b1,-0x108d(%rbp)
    95e7:	39 15 ff 
    95ea:	66 c7 85 77 ef ff ff 	movw   $0xfa01,-0x1089(%rbp)
    95f1:	01 fa 
    95f3:	c6 85 79 ef ff ff 29 	movb   $0x29,-0x1087(%rbp)
    95fa:	c7 85 7a ef ff ff 02 	movl   $0xfc393c02,-0x1086(%rbp)
    9601:	3c 39 fc 
    9604:	66 c7 85 7e ef ff ff 	movw   $0xffff,-0x1082(%rbp)
    960b:	ff ff 
    960d:	c6 85 80 ef ff ff 15 	movb   $0x15,-0x1080(%rbp)
    9614:	c7 85 81 ef ff ff 01 	movl   $0xffff8901,-0x107f(%rbp)
    961b:	89 ff ff 
    961e:	66 c7 85 85 ef ff ff 	movw   $0x189,-0x107b(%rbp)
    9625:	89 01 
    9627:	c6 85 87 ef ff ff 02 	movb   $0x2,-0x1079(%rbp)
    962e:	c7 85 88 ef ff ff 39 	movl   $0x1ff1539,-0x1078(%rbp)
    9635:	15 ff 01 
    9638:	66 c7 85 8c ef ff ff 	movw   $0x29fa,-0x1074(%rbp)
    963f:	fa 29 
    9641:	c6 85 8e ef ff ff 89 	movb   $0x89,-0x1072(%rbp)
    9648:	c7 85 8f ef ff ff 29 	movl   $0x139ff29,-0x1071(%rbp)
    964f:	ff 39 01 
    9652:	66 c7 85 93 ef ff ff 	movw   $0x8900,-0x106d(%rbp)
    9659:	00 89 
    965b:	c6 85 95 ef ff ff 00 	movb   $0x0,-0x106b(%rbp)
    9662:	66 c7 85 fe ea ff ff 	movw   $0xfd6,-0x1502(%rbp)
    9669:	d6 0f 
    966b:	66 c7 85 b0 f0 ff ff 	movw   $0x709b,-0xf50(%rbp)
    9672:	9b 70 
    9674:	66 c7 85 b2 f0 ff ff 	movw   $0xffff,-0xf4e(%rbp)
    967b:	ff ff 
    967d:	66 c7 85 b4 f0 ff ff 	movw   $0x1747,-0xf4c(%rbp)
    9684:	47 17 
    9686:	66 c7 85 b6 f0 ff ff 	movw   $0xffff,-0xf4a(%rbp)
    968d:	ff ff 
    968f:	66 c7 85 b8 f0 ff ff 	movw   $0x8,-0xf48(%rbp)
    9696:	08 00 
    9698:	66 c7 85 ba f0 ff ff 	movw   $0x8853,-0xf46(%rbp)
    969f:	53 88 
    96a1:	66 c7 85 bc f0 ff ff 	movw   $0xf0ee,-0xf44(%rbp)
    96a8:	ee f0 
    96aa:	66 c7 85 be f0 ff ff 	movw   $0xf0ee,-0xf42(%rbp)
    96b1:	ee f0 
    96b3:	66 c7 85 c0 f0 ff ff 	movw   $0x8853,-0xf40(%rbp)
    96ba:	53 88 
    96bc:	66 c7 85 c2 f0 ff ff 	movw   $0x2,-0xf3e(%rbp)
    96c3:	02 00 
    96c5:	66 c7 85 c4 f0 ff ff 	movw   $0xfff7,-0xf3c(%rbp)
    96cc:	f7 ff 
    96ce:	66 c7 85 c6 f0 ff ff 	movw   $0x8a0d,-0xf3a(%rbp)
    96d5:	0d 8a 
    96d7:	66 c7 85 c8 f0 ff ff 	movw   $0xfff7,-0xf38(%rbp)
    96de:	f7 ff 
    96e0:	66 c7 85 ca f0 ff ff 	movw   $0x2,-0xf36(%rbp)
    96e7:	02 00 
    96e9:	66 c7 85 cc f0 ff ff 	movw   $0x4,-0xf34(%rbp)
    96f0:	04 00 
    96f2:	66 c7 85 ce f0 ff ff 	movw   $0x4,-0xf32(%rbp)
    96f9:	04 00 
    96fb:	66 c7 85 d0 f0 ff ff 	movw   $0x96b5,-0xf30(%rbp)
    9702:	b5 96 
    9704:	66 c7 85 d2 f0 ff ff 	movw   $0x1,-0xf2e(%rbp)
    970b:	01 00 
    970d:	66 c7 85 d4 f0 ff ff 	movw   $0xdff1,-0xf2c(%rbp)
    9714:	f1 df 
    9716:	66 c7 85 d6 f0 ff ff 	movw   $0xffff,-0xf2a(%rbp)
    971d:	ff ff 
    971f:	66 c7 85 d8 f0 ff ff 	movw   $0xffff,-0xf28(%rbp)
    9726:	ff ff 
    9728:	66 c7 85 da f0 ff ff 	movw   $0xfedd,-0xf26(%rbp)
    972f:	dd fe 
    9731:	66 c7 85 dc f0 ff ff 	movw   $0x318,-0xf24(%rbp)
    9738:	18 03 
    973a:	66 c7 85 de f0 ff ff 	movw   $0xfedd,-0xf22(%rbp)
    9741:	dd fe 
    9743:	66 c7 85 e0 f0 ff ff 	movw   $0xffff,-0xf20(%rbp)
    974a:	ff ff 
    974c:	66 c7 85 e2 f0 ff ff 	movw   $0xffff,-0xf1e(%rbp)
    9753:	ff ff 
    9755:	66 c7 85 e4 f0 ff ff 	movw   $0xdff1,-0xf1c(%rbp)
    975c:	f1 df 
    975e:	66 c7 85 e6 f0 ff ff 	movw   $0xffff,-0xf1a(%rbp)
    9765:	ff ff 
    9767:	66 c7 85 e8 f0 ff ff 	movw   $0xffff,-0xf18(%rbp)
    976e:	ff ff 
    9770:	66 c7 85 ea f0 ff ff 	movw   $0x7450,-0xf16(%rbp)
    9777:	50 74 
    9779:	66 c7 85 ec f0 ff ff 	movw   $0x2,-0xf14(%rbp)
    9780:	02 00 
    9782:	66 c7 85 ee f0 ff ff 	movw   $0x96b5,-0xf12(%rbp)
    9789:	b5 96 
    978b:	66 c7 85 f0 f0 ff ff 	movw   $0x4,-0xf10(%rbp)
    9792:	04 00 
    9794:	66 c7 85 f2 f0 ff ff 	movw   $0x21cb,-0xf0e(%rbp)
    979b:	cb 21 
    979d:	66 c7 85 f4 f0 ff ff 	movw   $0x4,-0xf0c(%rbp)
    97a4:	04 00 
    97a6:	66 c7 85 f6 f0 ff ff 	movw   $0x96b5,-0xf0a(%rbp)
    97ad:	b5 96 
    97af:	66 c7 85 f8 f0 ff ff 	movw   $0xffff,-0xf08(%rbp)
    97b6:	ff ff 
    97b8:	66 c7 85 fa f0 ff ff 	movw   $0x709b,-0xf06(%rbp)
    97bf:	9b 70 
    97c1:	66 c7 85 fc f0 ff ff 	movw   $0x709b,-0xf04(%rbp)
    97c8:	9b 70 
    97ca:	66 c7 85 fe f0 ff ff 	movw   $0xffff,-0xf02(%rbp)
    97d1:	ff ff 
    97d3:	66 c7 85 00 f1 ff ff 	movw   $0xdff1,-0xf00(%rbp)
    97da:	f1 df 
    97dc:	66 c7 85 02 f1 ff ff 	movw   $0xffff,-0xefe(%rbp)
    97e3:	ff ff 
    97e5:	66 c7 85 04 f1 ff ff 	movw   $0xffff,-0xefc(%rbp)
    97ec:	ff ff 
    97ee:	66 c7 85 06 f1 ff ff 	movw   $0xfedd,-0xefa(%rbp)
    97f5:	dd fe 
    97f7:	66 c7 85 08 f1 ff ff 	movw   $0x318,-0xef8(%rbp)
    97fe:	18 03 
    9800:	66 c7 85 0a f1 ff ff 	movw   $0xffff,-0xef6(%rbp)
    9807:	ff ff 
    9809:	66 c7 85 0c f1 ff ff 	movw   $0xfff7,-0xef4(%rbp)
    9810:	f7 ff 
    9812:	66 c7 85 0e f1 ff ff 	movw   $0x1,-0xef2(%rbp)
    9819:	01 00 
    981b:	66 c7 85 10 f1 ff ff 	movw   $0x21cb,-0xef0(%rbp)
    9822:	cb 21 
    9824:	66 c7 85 12 f1 ff ff 	movw   $0x21cb,-0xeee(%rbp)
    982b:	cb 21 
    982d:	66 c7 85 14 f1 ff ff 	movw   $0x1,-0xeec(%rbp)
    9834:	01 00 
    9836:	66 c7 85 16 f1 ff ff 	movw   $0xfff7,-0xeea(%rbp)
    983d:	f7 ff 
    983f:	66 c7 85 18 f1 ff ff 	movw   $0xffff,-0xee8(%rbp)
    9846:	ff ff 
    9848:	66 c7 85 1a f1 ff ff 	movw   $0xb6bc,-0xee6(%rbp)
    984f:	bc b6 
    9851:	66 c7 85 1c f1 ff ff 	movw   $0xf0ee,-0xee4(%rbp)
    9858:	ee f0 
    985a:	66 c7 85 1e f1 ff ff 	movw   $0x709b,-0xee2(%rbp)
    9861:	9b 70 
    9863:	66 c7 85 20 f1 ff ff 	movw   $0x318,-0xee0(%rbp)
    986a:	18 03 
    986c:	66 c7 85 22 f1 ff ff 	movw   $0x8853,-0xede(%rbp)
    9873:	53 88 
    9875:	66 c7 85 24 f1 ff ff 	movw   $0xdff1,-0xedc(%rbp)
    987c:	f1 df 
    987e:	66 c7 85 26 f1 ff ff 	movw   $0xfedd,-0xeda(%rbp)
    9885:	dd fe 
    9887:	66 c7 85 28 f1 ff ff 	movw   $0xfedd,-0xed8(%rbp)
    988e:	dd fe 
    9890:	66 c7 85 2a f1 ff ff 	movw   $0xdff1,-0xed6(%rbp)
    9897:	f1 df 
    9899:	66 c7 85 2c f1 ff ff 	movw   $0x8853,-0xed4(%rbp)
    98a0:	53 88 
    98a2:	c7 85 54 eb ff ff 2c 	movl   $0x87aea02c,-0x14ac(%rbp)
    98a9:	a0 ae 87 
    98ac:	c7 85 1c eb ff ff 00 	movl   $0x0,-0x14e4(%rbp)
    98b3:	00 00 00 
    98b6:	eb 1e                	jmp    98d6 <func_25+0xa0f>
    98b8:	8b 85 1c eb ff ff    	mov    -0x14e4(%rbp),%eax
    98be:	48 98                	cltq   
    98c0:	48 8d 15 5e dc 00 00 	lea    0xdc5e(%rip),%rdx        # 17525 <g_333+0x5>
    98c7:	48 89 94 c5 70 ee ff 	mov    %rdx,-0x1190(%rbp,%rax,8)
    98ce:	ff 
    98cf:	83 85 1c eb ff ff 01 	addl   $0x1,-0x14e4(%rbp)
    98d6:	83 bd 1c eb ff ff 02 	cmpl   $0x2,-0x14e4(%rbp)
    98dd:	7e d9                	jle    98b8 <func_25+0x9f1>
    98df:	0f b6 85 ee ea ff ff 	movzbl -0x1512(%rbp),%eax
    98e6:	0f be d8             	movsbl %al,%ebx
    98e9:	48 83 bd 50 ec ff ff 	cmpq   $0x0,-0x13b0(%rbp)
    98f0:	00 
    98f1:	0f 94 c0             	sete   %al
    98f4:	0f b6 c0             	movzbl %al,%eax
    98f7:	be 01 00 00 00       	mov    $0x1,%esi
    98fc:	89 c7                	mov    %eax,%edi
    98fe:	e8 0f c9 ff ff       	callq  6212 <safe_mul_func_int8_t_s_s>
    9903:	0f be c0             	movsbl %al,%eax
    9906:	be 05 00 00 00       	mov    $0x5,%esi
    990b:	89 c7                	mov    %eax,%edi
    990d:	e8 5a ca ff ff       	callq  636c <safe_rshift_func_int8_t_s_u>
    9912:	0f be c0             	movsbl %al,%eax
    9915:	89 85 18 eb ff ff    	mov    %eax,-0x14e8(%rbp)
    991b:	8b 85 18 eb ff ff    	mov    -0x14e8(%rbp),%eax
    9921:	44 0f b6 e0          	movzbl %al,%r12d
    9925:	0f b7 85 d4 ea ff ff 	movzwl -0x152c(%rbp),%eax
    992c:	4c 0f bf e8          	movswq %ax,%r13
    9930:	0f b7 85 d4 ea ff ff 	movzwl -0x152c(%rbp),%eax
    9937:	0f b7 c0             	movzwl %ax,%eax
    993a:	be 0a 00 00 00       	mov    $0xa,%esi
    993f:	89 c7                	mov    %eax,%edi
    9941:	e8 c0 d4 ff ff       	callq  6e06 <safe_lshift_func_uint16_t_u_u>
    9946:	89 c2                	mov    %eax,%edx
    9948:	48 8b 85 e0 eb ff ff 	mov    -0x1420(%rbp),%rax
    994f:	0f b7 d2             	movzwl %dx,%edx
    9952:	48 89 10             	mov    %rdx,(%rax)
    9955:	48 8b 00             	mov    (%rax),%rax
    9958:	4c 89 ee             	mov    %r13,%rsi
    995b:	48 89 c7             	mov    %rax,%rdi
    995e:	e8 de ce ff ff       	callq  6841 <safe_add_func_int64_t_s_s>
    9963:	89 c2                	mov    %eax,%edx
    9965:	0f b6 85 ee ea ff ff 	movzbl -0x1512(%rbp),%eax
    996c:	0f be c0             	movsbl %al,%eax
    996f:	89 d6                	mov    %edx,%esi
    9971:	89 c7                	mov    %eax,%edi
    9973:	e8 85 d5 ff ff       	callq  6efd <safe_mod_func_uint32_t_u_u>
    9978:	0f b6 c0             	movzbl %al,%eax
    997b:	44 89 e6             	mov    %r12d,%esi
    997e:	89 c7                	mov    %eax,%edi
    9980:	e8 29 d2 ff ff       	callq  6bae <safe_mod_func_uint8_t_u_u>
    9985:	0f b6 d0             	movzbl %al,%edx
    9988:	0f b6 85 ee ea ff ff 	movzbl -0x1512(%rbp),%eax
    998f:	0f be c0             	movsbl %al,%eax
    9992:	89 d6                	mov    %edx,%esi
    9994:	89 c7                	mov    %eax,%edi
    9996:	e8 64 cd ff ff       	callq  66ff <safe_div_func_int32_t_s_s>
    999b:	89 85 50 eb ff ff    	mov    %eax,-0x14b0(%rbp)
    99a1:	8b 85 50 eb ff ff    	mov    -0x14b0(%rbp),%eax
    99a7:	0f be d0             	movsbl %al,%edx
    99aa:	0f b6 85 ee ea ff ff 	movzbl -0x1512(%rbp),%eax
    99b1:	0f be c0             	movsbl %al,%eax
    99b4:	89 85 4c eb ff ff    	mov    %eax,-0x14b4(%rbp)
    99ba:	8b 85 4c eb ff ff    	mov    -0x14b4(%rbp),%eax
    99c0:	0f be c0             	movsbl %al,%eax
    99c3:	89 d6                	mov    %edx,%esi
    99c5:	89 c7                	mov    %eax,%edi
    99c7:	e8 9e c8 ff ff       	callq  626a <safe_div_func_int8_t_s_s>
    99cc:	83 c8 49             	or     $0x49,%eax
    99cf:	0f be d0             	movsbl %al,%edx
    99d2:	48 8b 05 27 f8 00 00 	mov    0xf827(%rip),%rax        # 19200 <g_1131>
    99d9:	48 8b 00             	mov    (%rax),%rax
    99dc:	0f b6 00             	movzbl (%rax),%eax
    99df:	0f b6 c0             	movzbl %al,%eax
    99e2:	09 d0                	or     %edx,%eax
    99e4:	89 de                	mov    %ebx,%esi
    99e6:	89 c7                	mov    %eax,%edi
    99e8:	e8 df cc ff ff       	callq  66cc <safe_mod_func_int32_t_s_s>
    99ed:	85 c0                	test   %eax,%eax
    99ef:	75 0a                	jne    99fb <func_25+0xb34>
    99f1:	0f b7 85 d4 ea ff ff 	movzwl -0x152c(%rbp),%eax
    99f8:	66 85 c0             	test   %ax,%ax
    99fb:	0f b6 95 ee ea ff ff 	movzbl -0x1512(%rbp),%edx
    9a02:	48 8b 85 c8 ea ff ff 	mov    -0x1538(%rbp),%rax
    9a09:	48 8b 00             	mov    (%rax),%rax
    9a0c:	8b 08                	mov    (%rax),%ecx
    9a0e:	0f be d2             	movsbl %dl,%edx
    9a11:	48 8b 85 c8 ea ff ff 	mov    -0x1538(%rbp),%rax
    9a18:	48 8b 00             	mov    (%rax),%rax
    9a1b:	21 ca                	and    %ecx,%edx
    9a1d:	89 10                	mov    %edx,(%rax)
    9a1f:	8b 00                	mov    (%rax),%eax
    9a21:	85 c0                	test   %eax,%eax
    9a23:	0f 84 f2 28 00 00    	je     c31b <func_25+0x3454>
    9a29:	48 8d 05 bc da 00 00 	lea    0xdabc(%rip),%rax        # 174ec <g_190>
    9a30:	48 89 85 d0 ec ff ff 	mov    %rax,-0x1330(%rbp)
    9a37:	c7 85 30 f1 ff ff 43 	movl   $0xfa6fc943,-0xed0(%rbp)
    9a3e:	c9 6f fa 
    9a41:	c7 85 34 f1 ff ff 83 	movl   $0x12947d83,-0xecc(%rbp)
    9a48:	7d 94 12 
    9a4b:	c7 85 38 f1 ff ff ff 	movl   $0xffffffff,-0xec8(%rbp)
    9a52:	ff ff ff 
    9a55:	c7 85 3c f1 ff ff 41 	movl   $0xa60e9941,-0xec4(%rbp)
    9a5c:	99 0e a6 
    9a5f:	c7 85 40 f1 ff ff 83 	movl   $0x12947d83,-0xec0(%rbp)
    9a66:	7d 94 12 
    9a69:	c7 85 44 f1 ff ff 41 	movl   $0xa60e9941,-0xebc(%rbp)
    9a70:	99 0e a6 
    9a73:	c7 85 48 f1 ff ff ff 	movl   $0xffffffff,-0xeb8(%rbp)
    9a7a:	ff ff ff 
    9a7d:	c7 85 4c f1 ff ff 83 	movl   $0x12947d83,-0xeb4(%rbp)
    9a84:	7d 94 12 
    9a87:	c7 85 50 f1 ff ff 43 	movl   $0xfa6fc943,-0xeb0(%rbp)
    9a8e:	c9 6f fa 
    9a91:	c7 85 54 f1 ff ff 43 	movl   $0xfa6fc943,-0xeac(%rbp)
    9a98:	c9 6f fa 
    9a9b:	c7 85 58 f1 ff ff 00 	movl   $0x0,-0xea8(%rbp)
    9aa2:	00 00 00 
    9aa5:	c7 85 5c f1 ff ff 07 	movl   $0x7,-0xea4(%rbp)
    9aac:	00 00 00 
    9aaf:	c7 85 60 f1 ff ff 08 	movl   $0xa9738208,-0xea0(%rbp)
    9ab6:	82 73 a9 
    9ab9:	c7 85 64 f1 ff ff 83 	movl   $0x12947d83,-0xe9c(%rbp)
    9ac0:	7d 94 12 
    9ac3:	c7 85 68 f1 ff ff 83 	movl   $0x12947d83,-0xe98(%rbp)
    9aca:	7d 94 12 
    9acd:	c7 85 6c f1 ff ff 08 	movl   $0xa9738208,-0xe94(%rbp)
    9ad4:	82 73 a9 
    9ad7:	c7 85 70 f1 ff ff 07 	movl   $0x7,-0xe90(%rbp)
    9ade:	00 00 00 
    9ae1:	c7 85 74 f1 ff ff 00 	movl   $0x0,-0xe8c(%rbp)
    9ae8:	00 00 00 
    9aeb:	c7 85 78 f1 ff ff 08 	movl   $0xa9738208,-0xe88(%rbp)
    9af2:	82 73 a9 
    9af5:	c7 85 7c f1 ff ff 00 	movl   $0x0,-0xe84(%rbp)
    9afc:	00 00 00 
    9aff:	c7 85 80 f1 ff ff 83 	movl   $0x12947d83,-0xe80(%rbp)
    9b06:	7d 94 12 
    9b09:	c7 85 84 f1 ff ff ff 	movl   $0xffffffff,-0xe7c(%rbp)
    9b10:	ff ff ff 
    9b13:	c7 85 88 f1 ff ff 41 	movl   $0xa60e9941,-0xe78(%rbp)
    9b1a:	99 0e a6 
    9b1d:	c7 85 8c f1 ff ff 83 	movl   $0x12947d83,-0xe74(%rbp)
    9b24:	7d 94 12 
    9b27:	c7 85 90 f1 ff ff 41 	movl   $0xa60e9941,-0xe70(%rbp)
    9b2e:	99 0e a6 
    9b31:	c7 85 94 f1 ff ff ff 	movl   $0xffffffff,-0xe6c(%rbp)
    9b38:	ff ff ff 
    9b3b:	c7 85 98 f1 ff ff 83 	movl   $0x12947d83,-0xe68(%rbp)
    9b42:	7d 94 12 
    9b45:	c7 85 9c f1 ff ff 43 	movl   $0xfa6fc943,-0xe64(%rbp)
    9b4c:	c9 6f fa 
    9b4f:	c7 85 a0 f1 ff ff 43 	movl   $0xfa6fc943,-0xe60(%rbp)
    9b56:	c9 6f fa 
    9b59:	c7 85 a4 f1 ff ff 83 	movl   $0x12947d83,-0xe5c(%rbp)
    9b60:	7d 94 12 
    9b63:	c7 85 a8 f1 ff ff 43 	movl   $0xfa6fc943,-0xe58(%rbp)
    9b6a:	c9 6f fa 
    9b6d:	c7 85 ac f1 ff ff 00 	movl   $0x0,-0xe54(%rbp)
    9b74:	00 00 00 
    9b77:	c7 85 b0 f1 ff ff 41 	movl   $0xa60e9941,-0xe50(%rbp)
    9b7e:	99 0e a6 
    9b81:	c7 85 b4 f1 ff ff 41 	movl   $0xa60e9941,-0xe4c(%rbp)
    9b88:	99 0e a6 
    9b8b:	c7 85 b8 f1 ff ff 00 	movl   $0x0,-0xe48(%rbp)
    9b92:	00 00 00 
    9b95:	c7 85 bc f1 ff ff 43 	movl   $0xfa6fc943,-0xe44(%rbp)
    9b9c:	c9 6f fa 
    9b9f:	c7 85 c0 f1 ff ff ff 	movl   $0xffffffff,-0xe40(%rbp)
    9ba6:	ff ff ff 
    9ba9:	c7 85 c4 f1 ff ff 00 	movl   $0x0,-0xe3c(%rbp)
    9bb0:	00 00 00 
    9bb3:	c7 85 c8 f1 ff ff ff 	movl   $0xffffffff,-0xe38(%rbp)
    9bba:	ff ff ff 
    9bbd:	c7 85 cc f1 ff ff 43 	movl   $0xfa6fc943,-0xe34(%rbp)
    9bc4:	c9 6f fa 
    9bc7:	c7 85 d0 f1 ff ff 07 	movl   $0x7,-0xe30(%rbp)
    9bce:	00 00 00 
    9bd1:	c7 85 d4 f1 ff ff 00 	movl   $0x0,-0xe2c(%rbp)
    9bd8:	00 00 00 
    9bdb:	c7 85 d8 f1 ff ff 08 	movl   $0xa9738208,-0xe28(%rbp)
    9be2:	82 73 a9 
    9be5:	c7 85 dc f1 ff ff 00 	movl   $0x0,-0xe24(%rbp)
    9bec:	00 00 00 
    9bef:	c7 85 e0 f1 ff ff 07 	movl   $0x7,-0xe20(%rbp)
    9bf6:	00 00 00 
    9bf9:	c7 85 e4 f1 ff ff 08 	movl   $0xa9738208,-0xe1c(%rbp)
    9c00:	82 73 a9 
    9c03:	c7 85 e8 f1 ff ff 83 	movl   $0x12947d83,-0xe18(%rbp)
    9c0a:	7d 94 12 
    9c0d:	c7 85 ec f1 ff ff 83 	movl   $0x12947d83,-0xe14(%rbp)
    9c14:	7d 94 12 
    9c17:	c7 85 f0 f1 ff ff 08 	movl   $0xa9738208,-0xe10(%rbp)
    9c1e:	82 73 a9 
    9c21:	c7 85 f4 f1 ff ff 07 	movl   $0x7,-0xe0c(%rbp)
    9c28:	00 00 00 
    9c2b:	48 8d 05 fe fc 00 00 	lea    0xfcfe(%rip),%rax        # 19930 <g_237>
    9c32:	48 89 85 d8 ec ff ff 	mov    %rax,-0x1328(%rbp)
    9c39:	c7 85 10 eb ff ff d4 	movl   $0x46c8ded4,-0x14f0(%rbp)
    9c40:	de c8 46 
    9c43:	48 8d 05 c6 ef 00 00 	lea    0xefc6(%rip),%rax        # 18c10 <g_362>
    9c4a:	48 89 85 e0 ec ff ff 	mov    %rax,-0x1320(%rbp)
    9c51:	48 8d 05 88 f6 00 00 	lea    0xf688(%rip),%rax        # 192e0 <g_1878>
    9c58:	48 89 85 e8 ec ff ff 	mov    %rax,-0x1318(%rbp)
    9c5f:	48 c7 85 18 ec ff ff 	movq   $0x0,-0x13e8(%rbp)
    9c66:	00 00 00 00 
    9c6a:	48 8d 05 2f d9 00 00 	lea    0xd92f(%rip),%rax        # 175a0 <g_1917>
    9c71:	48 89 85 a0 ef ff ff 	mov    %rax,-0x1060(%rbp)
    9c78:	48 8d 05 21 d9 00 00 	lea    0xd921(%rip),%rax        # 175a0 <g_1917>
    9c7f:	48 89 85 a8 ef ff ff 	mov    %rax,-0x1058(%rbp)
    9c86:	48 8d 05 13 d9 00 00 	lea    0xd913(%rip),%rax        # 175a0 <g_1917>
    9c8d:	48 89 85 b0 ef ff ff 	mov    %rax,-0x1050(%rbp)
    9c94:	48 8d 05 05 d9 00 00 	lea    0xd905(%rip),%rax        # 175a0 <g_1917>
    9c9b:	48 89 85 b8 ef ff ff 	mov    %rax,-0x1048(%rbp)
    9ca2:	48 8d 05 f7 d8 00 00 	lea    0xd8f7(%rip),%rax        # 175a0 <g_1917>
    9ca9:	48 89 85 c0 ef ff ff 	mov    %rax,-0x1040(%rbp)
    9cb0:	48 8d 05 e9 d8 00 00 	lea    0xd8e9(%rip),%rax        # 175a0 <g_1917>
    9cb7:	48 89 85 c8 ef ff ff 	mov    %rax,-0x1038(%rbp)
    9cbe:	48 8d 05 db d8 00 00 	lea    0xd8db(%rip),%rax        # 175a0 <g_1917>
    9cc5:	48 89 85 d0 ef ff ff 	mov    %rax,-0x1030(%rbp)
    9ccc:	48 8d 05 cd d8 00 00 	lea    0xd8cd(%rip),%rax        # 175a0 <g_1917>
    9cd3:	48 89 85 d8 ef ff ff 	mov    %rax,-0x1028(%rbp)
    9cda:	48 8d 05 bf d8 00 00 	lea    0xd8bf(%rip),%rax        # 175a0 <g_1917>
    9ce1:	48 89 85 e0 ef ff ff 	mov    %rax,-0x1020(%rbp)
    9ce8:	48 8d 05 b1 d8 00 00 	lea    0xd8b1(%rip),%rax        # 175a0 <g_1917>
    9cef:	48 89 85 e8 ef ff ff 	mov    %rax,-0x1018(%rbp)
    9cf6:	c7 85 8c eb ff ff 02 	movl   $0x2,-0x1474(%rbp)
    9cfd:	00 00 00 
    9d00:	48 b8 08 53 ea 36 01 	movabs $0xf3e2910136ea5308,%rax
    9d07:	91 e2 f3 
    9d0a:	48 89 85 f0 ec ff ff 	mov    %rax,-0x1310(%rbp)
    9d11:	48 8d 05 48 83 00 00 	lea    0x8348(%rip),%rax        # 12060 <g_2501>
    9d18:	48 89 85 f8 ec ff ff 	mov    %rax,-0x1308(%rbp)
    9d1f:	c7 85 90 eb ff ff 20 	movl   $0x5ef05320,-0x1470(%rbp)
    9d26:	53 f0 5e 
    9d29:	c7 85 94 eb ff ff 47 	movl   $0x9a03e547,-0x146c(%rbp)
    9d30:	e5 03 9a 
    9d33:	c7 85 98 eb ff ff c4 	movl   $0x75f6b8c4,-0x1468(%rbp)
    9d3a:	b8 f6 75 
    9d3d:	c7 85 9c eb ff ff 00 	movl   $0x0,-0x1464(%rbp)
    9d44:	00 00 00 
    9d47:	48 8b 05 1a f7 00 00 	mov    0xf71a(%rip),%rax        # 19468 <g_2292>
    9d4e:	48 39 85 58 ec ff ff 	cmp    %rax,-0x13a8(%rbp)
    9d55:	0f 95 c0             	setne  %al
    9d58:	0f b6 d8             	movzbl %al,%ebx
    9d5b:	8b 85 90 f1 ff ff    	mov    -0xe70(%rbp),%eax
    9d61:	0f b6 c0             	movzbl %al,%eax
    9d64:	be 2d 00 00 00       	mov    $0x2d,%esi
    9d69:	89 c7                	mov    %eax,%edi
    9d6b:	e8 3e ce ff ff       	callq  6bae <safe_mod_func_uint8_t_u_u>
    9d70:	0f b6 c0             	movzbl %al,%eax
    9d73:	39 c3                	cmp    %eax,%ebx
    9d75:	0f 9e c0             	setle  %al
    9d78:	0f b6 c8             	movzbl %al,%ecx
    9d7b:	48 8d 15 86 fb 00 00 	lea    0xfb86(%rip),%rdx        # 19908 <g_68>
    9d82:	48 8b 02             	mov    (%rdx),%rax
    9d85:	48 8d 70 ff          	lea    -0x1(%rax),%rsi
    9d89:	48 89 32             	mov    %rsi,(%rdx)
    9d8c:	0f b7 15 b7 d7 00 00 	movzwl 0xd7b7(%rip),%edx        # 1754a <g_936>
    9d93:	48 0f bf d2          	movswq %dx,%rdx
    9d97:	48 39 d0             	cmp    %rdx,%rax
    9d9a:	0f 95 c0             	setne  %al
    9d9d:	0f b6 c0             	movzbl %al,%eax
    9da0:	48 89 ce             	mov    %rcx,%rsi
    9da3:	48 89 c7             	mov    %rax,%rdi
    9da6:	e8 04 d3 ff ff       	callq  70af <safe_div_func_uint64_t_u_u>
    9dab:	48 8b 05 5e f6 00 00 	mov    0xf65e(%rip),%rax        # 19410 <g_2232>
    9db2:	48 8b 00             	mov    (%rax),%rax
    9db5:	48 39 85 d8 ec ff ff 	cmp    %rax,-0x1328(%rbp)
    9dbc:	0f 84 72 01 00 00    	je     9f34 <func_25+0x106d>
    9dc2:	48 8d 05 87 d7 00 00 	lea    0xd787(%rip),%rax        # 17550 <g_1276>
    9dc9:	48 89 85 38 ee ff ff 	mov    %rax,-0x11c8(%rbp)
    9dd0:	48 8d 05 79 d7 00 00 	lea    0xd779(%rip),%rax        # 17550 <g_1276>
    9dd7:	48 89 85 c0 f8 ff ff 	mov    %rax,-0x740(%rbp)
    9dde:	48 8d 05 cf d2 00 00 	lea    0xd2cf(%rip),%rax        # 170b4 <g_4+0x74>
    9de5:	48 89 85 c8 f8 ff ff 	mov    %rax,-0x738(%rbp)
    9dec:	48 8d 05 91 d2 00 00 	lea    0xd291(%rip),%rax        # 17084 <g_4+0x44>
    9df3:	48 89 85 d0 f8 ff ff 	mov    %rax,-0x730(%rbp)
    9dfa:	48 8d 05 6f d6 00 00 	lea    0xd66f(%rip),%rax        # 17470 <g_95+0x370>
    9e01:	48 89 85 d8 f8 ff ff 	mov    %rax,-0x728(%rbp)
    9e08:	48 8d 05 41 d7 00 00 	lea    0xd741(%rip),%rax        # 17550 <g_1276>
    9e0f:	48 89 85 e0 f8 ff ff 	mov    %rax,-0x720(%rbp)
    9e16:	48 8d 05 67 d2 00 00 	lea    0xd267(%rip),%rax        # 17084 <g_4+0x44>
    9e1d:	48 89 85 e8 f8 ff ff 	mov    %rax,-0x718(%rbp)
    9e24:	48 8d 05 25 d7 00 00 	lea    0xd725(%rip),%rax        # 17550 <g_1276>
    9e2b:	48 89 85 f0 f8 ff ff 	mov    %rax,-0x710(%rbp)
    9e32:	48 8d 05 a7 d2 00 00 	lea    0xd2a7(%rip),%rax        # 170e0 <g_83>
    9e39:	48 89 85 f8 f8 ff ff 	mov    %rax,-0x708(%rbp)
    9e40:	48 8d 05 6d d2 00 00 	lea    0xd26d(%rip),%rax        # 170b4 <g_4+0x74>
    9e47:	48 89 85 00 f9 ff ff 	mov    %rax,-0x700(%rbp)
    9e4e:	48 8d 05 1b d6 00 00 	lea    0xd61b(%rip),%rax        # 17470 <g_95+0x370>
    9e55:	48 89 85 08 f9 ff ff 	mov    %rax,-0x6f8(%rbp)
    9e5c:	48 8d 05 7d d2 00 00 	lea    0xd27d(%rip),%rax        # 170e0 <g_83>
    9e63:	48 89 85 10 f9 ff ff 	mov    %rax,-0x6f0(%rbp)
    9e6a:	48 8d 05 6f d2 00 00 	lea    0xd26f(%rip),%rax        # 170e0 <g_83>
    9e71:	48 89 85 18 f9 ff ff 	mov    %rax,-0x6e8(%rbp)
    9e78:	48 8d 05 05 d2 00 00 	lea    0xd205(%rip),%rax        # 17084 <g_4+0x44>
    9e7f:	48 89 85 20 f9 ff ff 	mov    %rax,-0x6e0(%rbp)
    9e86:	48 8d 05 f7 d1 00 00 	lea    0xd1f7(%rip),%rax        # 17084 <g_4+0x44>
    9e8d:	48 89 85 28 f9 ff ff 	mov    %rax,-0x6d8(%rbp)
    9e94:	48 8d 05 45 d2 00 00 	lea    0xd245(%rip),%rax        # 170e0 <g_83>
    9e9b:	48 89 85 30 f9 ff ff 	mov    %rax,-0x6d0(%rbp)
    9ea2:	48 8d 05 c7 d5 00 00 	lea    0xd5c7(%rip),%rax        # 17470 <g_95+0x370>
    9ea9:	48 89 85 38 f9 ff ff 	mov    %rax,-0x6c8(%rbp)
    9eb0:	48 8d 05 b9 d5 00 00 	lea    0xd5b9(%rip),%rax        # 17470 <g_95+0x370>
    9eb7:	48 89 85 40 f9 ff ff 	mov    %rax,-0x6c0(%rbp)
    9ebe:	48 8d 05 ef d1 00 00 	lea    0xd1ef(%rip),%rax        # 170b4 <g_4+0x74>
    9ec5:	48 89 85 48 f9 ff ff 	mov    %rax,-0x6b8(%rbp)
    9ecc:	48 8d 05 0d d2 00 00 	lea    0xd20d(%rip),%rax        # 170e0 <g_83>
    9ed3:	48 89 85 50 f9 ff ff 	mov    %rax,-0x6b0(%rbp)
    9eda:	48 8d 05 d3 d1 00 00 	lea    0xd1d3(%rip),%rax        # 170b4 <g_4+0x74>
    9ee1:	48 89 85 58 f9 ff ff 	mov    %rax,-0x6a8(%rbp)
    9ee8:	48 8d 05 95 d1 00 00 	lea    0xd195(%rip),%rax        # 17084 <g_4+0x44>
    9eef:	48 89 85 60 f9 ff ff 	mov    %rax,-0x6a0(%rbp)
    9ef6:	48 8d 05 53 d6 00 00 	lea    0xd653(%rip),%rax        # 17550 <g_1276>
    9efd:	48 89 85 68 f9 ff ff 	mov    %rax,-0x698(%rbp)
    9f04:	48 8d 05 d5 d1 00 00 	lea    0xd1d5(%rip),%rax        # 170e0 <g_83>
    9f0b:	48 89 85 70 f9 ff ff 	mov    %rax,-0x690(%rbp)
    9f12:	48 8d 05 c7 d1 00 00 	lea    0xd1c7(%rip),%rax        # 170e0 <g_83>
    9f19:	48 89 85 78 f9 ff ff 	mov    %rax,-0x688(%rbp)
    9f20:	8b 85 10 eb ff ff    	mov    -0x14f0(%rbp),%eax
    9f26:	83 c0 01             	add    $0x1,%eax
    9f29:	89 85 10 eb ff ff    	mov    %eax,-0x14f0(%rbp)
    9f2f:	e9 0a 1d 00 00       	jmpq   bc3e <func_25+0x2d77>
    9f34:	48 b8 52 17 d2 f1 06 	movabs $0x8261d06f1d21752,%rax
    9f3b:	1d 26 08 
    9f3e:	48 89 85 40 ec ff ff 	mov    %rax,-0x13c0(%rbp)
    9f45:	c7 85 b0 ee ff ff ff 	movl   $0xffffffff,-0x1150(%rbp)
    9f4c:	ff ff ff 
    9f4f:	c7 85 b4 ee ff ff ff 	movl   $0xffffffff,-0x114c(%rbp)
    9f56:	ff ff ff 
    9f59:	c7 85 b8 ee ff ff 01 	movl   $0x1,-0x1148(%rbp)
    9f60:	00 00 00 
    9f63:	c7 85 bc ee ff ff 01 	movl   $0x1,-0x1144(%rbp)
    9f6a:	00 00 00 
    9f6d:	c7 85 c0 ee ff ff 01 	movl   $0x1,-0x1140(%rbp)
    9f74:	00 00 00 
    9f77:	c7 85 c4 ee ff ff ff 	movl   $0xffffffff,-0x113c(%rbp)
    9f7e:	ff ff ff 
    9f81:	c7 85 c8 ee ff ff ff 	movl   $0xffffffff,-0x1138(%rbp)
    9f88:	ff ff ff 
    9f8b:	c7 85 cc ee ff ff 01 	movl   $0x1,-0x1134(%rbp)
    9f92:	00 00 00 
    9f95:	c7 85 d0 ee ff ff 01 	movl   $0x1,-0x1130(%rbp)
    9f9c:	00 00 00 
    9f9f:	c7 85 d4 ee ff ff 01 	movl   $0x1,-0x112c(%rbp)
    9fa6:	00 00 00 
    9fa9:	c7 85 e0 ee ff ff 70 	movl   $0x11771b70,-0x1120(%rbp)
    9fb0:	1b 77 11 
    9fb3:	c7 85 e4 ee ff ff 70 	movl   $0x11771b70,-0x111c(%rbp)
    9fba:	1b 77 11 
    9fbd:	c7 85 e8 ee ff ff ff 	movl   $0xffffffff,-0x1118(%rbp)
    9fc4:	ff ff ff 
    9fc7:	c7 85 ec ee ff ff ff 	movl   $0xffffffff,-0x1114(%rbp)
    9fce:	ff ff ff 
    9fd1:	c7 85 f0 ee ff ff ff 	movl   $0xffffffff,-0x1110(%rbp)
    9fd8:	ff ff ff 
    9fdb:	c7 85 f4 ee ff ff 70 	movl   $0x11771b70,-0x110c(%rbp)
    9fe2:	1b 77 11 
    9fe5:	c7 85 f8 ee ff ff 70 	movl   $0x11771b70,-0x1108(%rbp)
    9fec:	1b 77 11 
    9fef:	c7 85 fc ee ff ff ff 	movl   $0xffffffff,-0x1104(%rbp)
    9ff6:	ff ff ff 
    9ff9:	c7 85 00 ef ff ff ff 	movl   $0xffffffff,-0x1100(%rbp)
    a000:	ff ff ff 
    a003:	c7 85 04 ef ff ff ff 	movl   $0xffffffff,-0x10fc(%rbp)
    a00a:	ff ff ff 
    a00d:	c7 85 14 eb ff ff ff 	movl   $0xffffffff,-0x14ec(%rbp)
    a014:	ff ff ff 
    a017:	48 c7 85 00 ed ff ff 	movq   $0x1,-0x1300(%rbp)
    a01e:	01 00 00 00 
    a022:	48 8d 05 37 f9 00 00 	lea    0xf937(%rip),%rax        # 19960 <g_1361>
    a029:	48 89 85 08 ed ff ff 	mov    %rax,-0x12f8(%rbp)
    a030:	c6 85 f6 ea ff ff 01 	movb   $0x1,-0x150a(%rbp)
    a037:	c7 85 a0 eb ff ff 08 	movl   $0x8,-0x1460(%rbp)
    a03e:	00 00 00 
    a041:	c7 85 20 eb ff ff 06 	movl   $0x6,-0x14e0(%rbp)
    a048:	00 00 00 
    a04b:	48 8d 05 ee f8 00 00 	lea    0xf8ee(%rip),%rax        # 19940 <g_258>
    a052:	48 89 85 10 ed ff ff 	mov    %rax,-0x12f0(%rbp)
    a059:	48 c7 85 18 ed ff ff 	movq   $0x1,-0x12e8(%rbp)
    a060:	01 00 00 00 
    a064:	c7 05 32 d5 00 00 02 	movl   $0x2,0xd532(%rip)        # 175a0 <g_1917>
    a06b:	00 00 00 
    a06e:	e9 ff 07 00 00       	jmpq   a872 <func_25+0x19ab>
    a073:	48 b8 62 03 e5 fc 02 	movabs $0x31606702fce50362,%rax
    a07a:	67 60 31 
    a07d:	48 89 85 20 ec ff ff 	mov    %rax,-0x13e0(%rbp)
    a084:	c7 85 d8 eb ff ff 09 	movl   $0x9,-0x1428(%rbp)
    a08b:	00 00 00 
    a08e:	66 c7 85 0c eb ff ff 	movw   $0x7fc7,-0x14f4(%rbp)
    a095:	c7 7f 
    a097:	48 8d 85 f8 ea ff ff 	lea    -0x1508(%rbp),%rax
    a09e:	48 89 85 28 ec ff ff 	mov    %rax,-0x13d8(%rbp)
    a0a5:	48 8d 85 28 ec ff ff 	lea    -0x13d8(%rbp),%rax
    a0ac:	48 89 85 30 ec ff ff 	mov    %rax,-0x13d0(%rbp)
    a0b3:	48 8d 85 30 ec ff ff 	lea    -0x13d0(%rbp),%rax
    a0ba:	48 89 85 00 ee ff ff 	mov    %rax,-0x1200(%rbp)
    a0c1:	c6 05 8c d4 00 00 07 	movb   $0x7,0xd48c(%rip)        # 17554 <g_1350>
    a0c8:	90                   	nop
    a0c9:	0f b6 05 84 d4 00 00 	movzbl 0xd484(%rip),%eax        # 17554 <g_1350>
    a0d0:	84 c0                	test   %al,%al
    a0d2:	0f 88 4b 02 00 00    	js     a323 <func_25+0x145c>
    a0d8:	c6 85 f7 ea ff ff 92 	movb   $0x92,-0x1509(%rbp)
    a0df:	48 8d 05 8a d3 00 00 	lea    0xd38a(%rip),%rax        # 17470 <g_95+0x370>
    a0e6:	48 89 85 08 ee ff ff 	mov    %rax,-0x11f8(%rbp)
    a0ed:	c7 85 24 eb ff ff 00 	movl   $0x0,-0x14dc(%rbp)
    a0f4:	00 00 00 
    a0f7:	eb 1e                	jmp    a117 <func_25+0x1250>
    a0f9:	8b 85 24 eb ff ff    	mov    -0x14dc(%rbp),%eax
    a0ff:	48 98                	cltq   
    a101:	48 8d 95 10 eb ff ff 	lea    -0x14f0(%rbp),%rdx
    a108:	48 89 94 c5 c0 f8 ff 	mov    %rdx,-0x740(%rbp,%rax,8)
    a10f:	ff 
    a110:	83 85 24 eb ff ff 01 	addl   $0x1,-0x14dc(%rbp)
    a117:	83 bd 24 eb ff ff 07 	cmpl   $0x7,-0x14dc(%rbp)
    a11e:	7e d9                	jle    a0f9 <func_25+0x1232>
    a120:	48 8b 85 c8 ea ff ff 	mov    -0x1538(%rbp),%rax
    a127:	48 8b 00             	mov    (%rax),%rax
    a12a:	8b 10                	mov    (%rax),%edx
    a12c:	48 8b 85 40 ec ff ff 	mov    -0x13c0(%rbp),%rax
    a133:	89 c1                	mov    %eax,%ecx
    a135:	48 8b 85 c8 ea ff ff 	mov    -0x1538(%rbp),%rax
    a13c:	48 8b 00             	mov    (%rax),%rax
    a13f:	31 ca                	xor    %ecx,%edx
    a141:	89 10                	mov    %edx,(%rax)
    a143:	48 8b 85 c8 ea ff ff 	mov    -0x1538(%rbp),%rax
    a14a:	48 8b 00             	mov    (%rax),%rax
    a14d:	8b 00                	mov    (%rax),%eax
    a14f:	85 c0                	test   %eax,%eax
    a151:	0f 85 cb 01 00 00    	jne    a322 <func_25+0x145b>
    a157:	48 8b 85 c8 ea ff ff 	mov    -0x1538(%rbp),%rax
    a15e:	48 8b 00             	mov    (%rax),%rax
    a161:	8b 00                	mov    (%rax),%eax
    a163:	41 89 c4             	mov    %eax,%r12d
    a166:	48 8b 05 fb f2 00 00 	mov    0xf2fb(%rip),%rax        # 19468 <g_2292>
    a16d:	8b 00                	mov    (%rax),%eax
    a16f:	8b 85 50 eb ff ff    	mov    -0x14b0(%rbp),%eax
    a175:	0f be d8             	movsbl %al,%ebx
    a178:	48 8b 85 40 ec ff ff 	mov    -0x13c0(%rbp),%rax
    a17f:	0f b6 d0             	movzbl %al,%edx
    a182:	48 8b 85 e0 eb ff ff 	mov    -0x1420(%rbp),%rax
    a189:	48 85 c0             	test   %rax,%rax
    a18c:	0f 94 c0             	sete   %al
    a18f:	88 05 7e d3 00 00    	mov    %al,0xd37e(%rip)        # 17513 <g_242+0x13>
    a195:	0f b6 05 77 d3 00 00 	movzbl 0xd377(%rip),%eax        # 17513 <g_242+0x13>
    a19c:	0f b6 c0             	movzbl %al,%eax
    a19f:	89 d6                	mov    %edx,%esi
    a1a1:	89 c7                	mov    %eax,%edi
    a1a3:	e8 d0 c9 ff ff       	callq  6b78 <safe_sub_func_uint8_t_u_u>
    a1a8:	0f b6 d0             	movzbl %al,%edx
    a1ab:	48 8b 85 c8 ea ff ff 	mov    -0x1538(%rbp),%rax
    a1b2:	48 8b 00             	mov    (%rax),%rax
    a1b5:	8b 00                	mov    (%rax),%eax
    a1b7:	48 98                	cltq   
    a1b9:	48 21 d0             	and    %rdx,%rax
    a1bc:	48 83 f8 04          	cmp    $0x4,%rax
    a1c0:	0f 96 c0             	setbe  %al
    a1c3:	0f b6 c0             	movzbl %al,%eax
    a1c6:	be 0f 00 00 00       	mov    $0xf,%esi
    a1cb:	89 c7                	mov    %eax,%edi
    a1cd:	e8 c0 c2 ff ff       	callq  6492 <safe_lshift_func_int16_t_s_s>
    a1d2:	66 0f be 95 f7 ea ff 	movsbw -0x1509(%rbp),%dx
    a1d9:	ff 
    a1da:	66 39 d0             	cmp    %dx,%ax
    a1dd:	0f 9d c0             	setge  %al
    a1e0:	0f b6 c0             	movzbl %al,%eax
    a1e3:	89 85 d8 eb ff ff    	mov    %eax,-0x1428(%rbp)
    a1e9:	8b 85 d8 eb ff ff    	mov    -0x1428(%rbp),%eax
    a1ef:	48 63 d0             	movslq %eax,%rdx
    a1f2:	48 8b 85 20 ec ff ff 	mov    -0x13e0(%rbp),%rax
    a1f9:	48 39 c2             	cmp    %rax,%rdx
    a1fc:	75 0a                	jne    a208 <func_25+0x1341>
    a1fe:	0f b7 85 d4 ea ff ff 	movzwl -0x152c(%rbp),%eax
    a205:	66 85 c0             	test   %ax,%ax
    a208:	c6 05 6d d3 00 00 00 	movb   $0x0,0xd36d(%rip)        # 1757c <g_1607+0x1c>
    a20f:	0f b6 05 66 d3 00 00 	movzbl 0xd366(%rip),%eax        # 1757c <g_1607+0x1c>
    a216:	0f be c0             	movsbl %al,%eax
    a219:	89 de                	mov    %ebx,%esi
    a21b:	89 c7                	mov    %eax,%edi
    a21d:	e8 b2 bf ff ff       	callq  61d4 <safe_add_func_int8_t_s_s>
    a222:	0f be d0             	movsbl %al,%edx
    a225:	48 8b 85 40 ec ff ff 	mov    -0x13c0(%rbp),%rax
    a22c:	98                   	cwtl   
    a22d:	89 d6                	mov    %edx,%esi
    a22f:	89 c7                	mov    %eax,%edi
    a231:	e8 5c c2 ff ff       	callq  6492 <safe_lshift_func_int16_t_s_s>
    a236:	66 0f be 95 f7 ea ff 	movsbw -0x1509(%rbp),%dx
    a23d:	ff 
    a23e:	66 39 d0             	cmp    %dx,%ax
    a241:	48 83 bd e8 ec ff ff 	cmpq   $0x0,-0x1318(%rbp)
    a248:	00 
    a249:	0f 94 c0             	sete   %al
    a24c:	0f b6 d0             	movzbl %al,%edx
    a24f:	48 8b 85 c8 ea ff ff 	mov    -0x1538(%rbp),%rax
    a256:	48 8b 00             	mov    (%rax),%rax
    a259:	8b 00                	mov    (%rax),%eax
    a25b:	09 d0                	or     %edx,%eax
    a25d:	0f b7 c0             	movzwl %ax,%eax
    a260:	89 c6                	mov    %eax,%esi
    a262:	bf f2 f5 00 00       	mov    $0xf5f2,%edi
    a267:	e8 f0 ca ff ff       	callq  6d5c <safe_mod_func_uint16_t_u_u>
    a26c:	48 8b 85 18 ec ff ff 	mov    -0x13e8(%rbp),%rax
    a273:	48 85 c0             	test   %rax,%rax
    a276:	0f 95 c0             	setne  %al
    a279:	0f b6 d0             	movzbl %al,%edx
    a27c:	0f b7 85 d4 ea ff ff 	movzwl -0x152c(%rbp),%eax
    a283:	98                   	cwtl   
    a284:	39 c2                	cmp    %eax,%edx
    a286:	0f 9c c0             	setl   %al
    a289:	0f b6 d0             	movzbl %al,%edx
    a28c:	0f b7 85 d4 ea ff ff 	movzwl -0x152c(%rbp),%eax
    a293:	31 d0                	xor    %edx,%eax
    a295:	66 89 85 0c eb ff ff 	mov    %ax,-0x14f4(%rbp)
    a29c:	0f b7 85 0c eb ff ff 	movzwl -0x14f4(%rbp),%eax
    a2a3:	39 85 4c eb ff ff    	cmp    %eax,-0x14b4(%rbp)
    a2a9:	0f 9e c0             	setle  %al
    a2ac:	0f b6 c0             	movzbl %al,%eax
    a2af:	44 89 e6             	mov    %r12d,%esi
    a2b2:	89 c7                	mov    %eax,%edi
    a2b4:	e8 17 cc ff ff       	callq  6ed0 <safe_sub_func_uint32_t_u_u>
    a2b9:	89 c2                	mov    %eax,%edx
    a2bb:	0f b7 85 f8 ea ff ff 	movzwl -0x1508(%rbp),%eax
    a2c2:	21 d0                	and    %edx,%eax
    a2c4:	0f b6 d0             	movzbl %al,%edx
    a2c7:	0f b6 85 f7 ea ff ff 	movzbl -0x1509(%rbp),%eax
    a2ce:	0f b6 c0             	movzbl %al,%eax
    a2d1:	89 d6                	mov    %edx,%esi
    a2d3:	89 c7                	mov    %eax,%edi
    a2d5:	e8 b9 c8 ff ff       	callq  6b93 <safe_mul_func_uint8_t_u_u>
    a2da:	0f b6 d0             	movzbl %al,%edx
    a2dd:	0f b7 85 d4 ea ff ff 	movzwl -0x152c(%rbp),%eax
    a2e4:	98                   	cwtl   
    a2e5:	39 c2                	cmp    %eax,%edx
    a2e7:	0f 95 c0             	setne  %al
    a2ea:	0f b6 c0             	movzbl %al,%eax
    a2ed:	48 be a7 9d 56 4f b3 	movabs $0xc147edb34f569da7,%rsi
    a2f4:	ed 47 c1 
    a2f7:	48 89 c7             	mov    %rax,%rdi
    a2fa:	e8 42 c5 ff ff       	callq  6841 <safe_add_func_int64_t_s_s>
    a2ff:	48 8b 95 08 ee ff ff 	mov    -0x11f8(%rbp),%rdx
    a306:	8b 12                	mov    (%rdx),%edx
    a308:	21 c2                	and    %eax,%edx
    a30a:	48 8b 85 08 ee ff ff 	mov    -0x11f8(%rbp),%rax
    a311:	89 10                	mov    %edx,(%rax)
    a313:	0f b6 05 0b d2 00 00 	movzbl 0xd20b(%rip),%eax        # 17525 <g_333+0x5>
    a31a:	0f b6 c0             	movzbl %al,%eax
    a31d:	e9 59 31 00 00       	jmpq   d47b <func_25+0x45b4>
    a322:	90                   	nop
    a323:	c7 05 23 d2 00 00 00 	movl   $0x0,0xd223(%rip)        # 17550 <g_1276>
    a32a:	00 00 00 
    a32d:	e9 22 05 00 00       	jmpq   a854 <func_25+0x198d>
    a332:	66 c7 85 0e eb ff ff 	movw   $0xa0af,-0x14f2(%rbp)
    a339:	af a0 
    a33b:	48 8d 85 20 ec ff ff 	lea    -0x13e0(%rbp),%rax
    a342:	48 89 85 c0 f8 ff ff 	mov    %rax,-0x740(%rbp)
    a349:	48 8d 85 20 ec ff ff 	lea    -0x13e0(%rbp),%rax
    a350:	48 89 85 c8 f8 ff ff 	mov    %rax,-0x738(%rbp)
    a357:	48 8d 85 20 ec ff ff 	lea    -0x13e0(%rbp),%rax
    a35e:	48 89 85 d0 f8 ff ff 	mov    %rax,-0x730(%rbp)
    a365:	48 8d 85 20 ec ff ff 	lea    -0x13e0(%rbp),%rax
    a36c:	48 89 85 d8 f8 ff ff 	mov    %rax,-0x728(%rbp)
    a373:	48 8d 85 20 ec ff ff 	lea    -0x13e0(%rbp),%rax
    a37a:	48 89 85 e0 f8 ff ff 	mov    %rax,-0x720(%rbp)
    a381:	48 8d 85 20 ec ff ff 	lea    -0x13e0(%rbp),%rax
    a388:	48 89 85 e8 f8 ff ff 	mov    %rax,-0x718(%rbp)
    a38f:	48 8d 85 20 ec ff ff 	lea    -0x13e0(%rbp),%rax
    a396:	48 89 85 f0 f8 ff ff 	mov    %rax,-0x710(%rbp)
    a39d:	48 8d 85 20 ec ff ff 	lea    -0x13e0(%rbp),%rax
    a3a4:	48 89 85 f8 f8 ff ff 	mov    %rax,-0x708(%rbp)
    a3ab:	48 8d 85 20 ec ff ff 	lea    -0x13e0(%rbp),%rax
    a3b2:	48 89 85 00 f9 ff ff 	mov    %rax,-0x700(%rbp)
    a3b9:	48 8d 85 20 ec ff ff 	lea    -0x13e0(%rbp),%rax
    a3c0:	48 89 85 08 f9 ff ff 	mov    %rax,-0x6f8(%rbp)
    a3c7:	48 8d 85 20 ec ff ff 	lea    -0x13e0(%rbp),%rax
    a3ce:	48 89 85 10 f9 ff ff 	mov    %rax,-0x6f0(%rbp)
    a3d5:	48 8d 85 20 ec ff ff 	lea    -0x13e0(%rbp),%rax
    a3dc:	48 89 85 18 f9 ff ff 	mov    %rax,-0x6e8(%rbp)
    a3e3:	48 8d 85 20 ec ff ff 	lea    -0x13e0(%rbp),%rax
    a3ea:	48 89 85 20 f9 ff ff 	mov    %rax,-0x6e0(%rbp)
    a3f1:	48 8d 85 20 ec ff ff 	lea    -0x13e0(%rbp),%rax
    a3f8:	48 89 85 28 f9 ff ff 	mov    %rax,-0x6d8(%rbp)
    a3ff:	48 8d 85 20 ec ff ff 	lea    -0x13e0(%rbp),%rax
    a406:	48 89 85 30 f9 ff ff 	mov    %rax,-0x6d0(%rbp)
    a40d:	48 8d 85 20 ec ff ff 	lea    -0x13e0(%rbp),%rax
    a414:	48 89 85 38 f9 ff ff 	mov    %rax,-0x6c8(%rbp)
    a41b:	48 8d 85 20 ec ff ff 	lea    -0x13e0(%rbp),%rax
    a422:	48 89 85 40 f9 ff ff 	mov    %rax,-0x6c0(%rbp)
    a429:	48 8d 85 20 ec ff ff 	lea    -0x13e0(%rbp),%rax
    a430:	48 89 85 48 f9 ff ff 	mov    %rax,-0x6b8(%rbp)
    a437:	48 8d 85 20 ec ff ff 	lea    -0x13e0(%rbp),%rax
    a43e:	48 89 85 50 f9 ff ff 	mov    %rax,-0x6b0(%rbp)
    a445:	48 8d 85 20 ec ff ff 	lea    -0x13e0(%rbp),%rax
    a44c:	48 89 85 58 f9 ff ff 	mov    %rax,-0x6a8(%rbp)
    a453:	48 8d 85 20 ec ff ff 	lea    -0x13e0(%rbp),%rax
    a45a:	48 89 85 60 f9 ff ff 	mov    %rax,-0x6a0(%rbp)
    a461:	48 8d 85 20 ec ff ff 	lea    -0x13e0(%rbp),%rax
    a468:	48 89 85 68 f9 ff ff 	mov    %rax,-0x698(%rbp)
    a46f:	48 8d 85 20 ec ff ff 	lea    -0x13e0(%rbp),%rax
    a476:	48 89 85 70 f9 ff ff 	mov    %rax,-0x690(%rbp)
    a47d:	48 8d 85 20 ec ff ff 	lea    -0x13e0(%rbp),%rax
    a484:	48 89 85 78 f9 ff ff 	mov    %rax,-0x688(%rbp)
    a48b:	48 8d 85 20 ec ff ff 	lea    -0x13e0(%rbp),%rax
    a492:	48 89 85 80 f9 ff ff 	mov    %rax,-0x680(%rbp)
    a499:	48 8d 85 20 ec ff ff 	lea    -0x13e0(%rbp),%rax
    a4a0:	48 89 85 88 f9 ff ff 	mov    %rax,-0x678(%rbp)
    a4a7:	48 8d 85 20 ec ff ff 	lea    -0x13e0(%rbp),%rax
    a4ae:	48 89 85 90 f9 ff ff 	mov    %rax,-0x670(%rbp)
    a4b5:	48 8d 85 20 ec ff ff 	lea    -0x13e0(%rbp),%rax
    a4bc:	48 89 85 98 f9 ff ff 	mov    %rax,-0x668(%rbp)
    a4c3:	48 8d 85 20 ec ff ff 	lea    -0x13e0(%rbp),%rax
    a4ca:	48 89 85 a0 f9 ff ff 	mov    %rax,-0x660(%rbp)
    a4d1:	48 8d 85 20 ec ff ff 	lea    -0x13e0(%rbp),%rax
    a4d8:	48 89 85 a8 f9 ff ff 	mov    %rax,-0x658(%rbp)
    a4df:	48 8d 85 20 ec ff ff 	lea    -0x13e0(%rbp),%rax
    a4e6:	48 89 85 b0 f9 ff ff 	mov    %rax,-0x650(%rbp)
    a4ed:	48 8d 85 20 ec ff ff 	lea    -0x13e0(%rbp),%rax
    a4f4:	48 89 85 b8 f9 ff ff 	mov    %rax,-0x648(%rbp)
    a4fb:	48 8d 85 20 ec ff ff 	lea    -0x13e0(%rbp),%rax
    a502:	48 89 85 c0 f9 ff ff 	mov    %rax,-0x640(%rbp)
    a509:	48 8d 85 20 ec ff ff 	lea    -0x13e0(%rbp),%rax
    a510:	48 89 85 c8 f9 ff ff 	mov    %rax,-0x638(%rbp)
    a517:	48 8d 85 20 ec ff ff 	lea    -0x13e0(%rbp),%rax
    a51e:	48 89 85 d0 f9 ff ff 	mov    %rax,-0x630(%rbp)
    a525:	48 8d 85 20 ec ff ff 	lea    -0x13e0(%rbp),%rax
    a52c:	48 89 85 d8 f9 ff ff 	mov    %rax,-0x628(%rbp)
    a533:	48 8d 85 20 ec ff ff 	lea    -0x13e0(%rbp),%rax
    a53a:	48 89 85 e0 f9 ff ff 	mov    %rax,-0x620(%rbp)
    a541:	48 8d 85 20 ec ff ff 	lea    -0x13e0(%rbp),%rax
    a548:	48 89 85 e8 f9 ff ff 	mov    %rax,-0x618(%rbp)
    a54f:	48 8d 85 20 ec ff ff 	lea    -0x13e0(%rbp),%rax
    a556:	48 89 85 f0 f9 ff ff 	mov    %rax,-0x610(%rbp)
    a55d:	48 8d 85 20 ec ff ff 	lea    -0x13e0(%rbp),%rax
    a564:	48 89 85 f8 f9 ff ff 	mov    %rax,-0x608(%rbp)
    a56b:	48 8d 85 20 ec ff ff 	lea    -0x13e0(%rbp),%rax
    a572:	48 89 85 00 fa ff ff 	mov    %rax,-0x600(%rbp)
    a579:	48 8d 85 20 ec ff ff 	lea    -0x13e0(%rbp),%rax
    a580:	48 89 85 08 fa ff ff 	mov    %rax,-0x5f8(%rbp)
    a587:	48 8d 85 20 ec ff ff 	lea    -0x13e0(%rbp),%rax
    a58e:	48 89 85 10 fa ff ff 	mov    %rax,-0x5f0(%rbp)
    a595:	48 8d 85 20 ec ff ff 	lea    -0x13e0(%rbp),%rax
    a59c:	48 89 85 18 fa ff ff 	mov    %rax,-0x5e8(%rbp)
    a5a3:	48 8d 85 20 ec ff ff 	lea    -0x13e0(%rbp),%rax
    a5aa:	48 89 85 20 fa ff ff 	mov    %rax,-0x5e0(%rbp)
    a5b1:	48 8d 85 20 ec ff ff 	lea    -0x13e0(%rbp),%rax
    a5b8:	48 89 85 28 fa ff ff 	mov    %rax,-0x5d8(%rbp)
    a5bf:	48 8d 85 20 ec ff ff 	lea    -0x13e0(%rbp),%rax
    a5c6:	48 89 85 30 fa ff ff 	mov    %rax,-0x5d0(%rbp)
    a5cd:	48 8d 85 20 ec ff ff 	lea    -0x13e0(%rbp),%rax
    a5d4:	48 89 85 38 fa ff ff 	mov    %rax,-0x5c8(%rbp)
    a5db:	48 8d 85 20 ec ff ff 	lea    -0x13e0(%rbp),%rax
    a5e2:	48 89 85 40 fa ff ff 	mov    %rax,-0x5c0(%rbp)
    a5e9:	48 8d 85 20 ec ff ff 	lea    -0x13e0(%rbp),%rax
    a5f0:	48 89 85 48 fa ff ff 	mov    %rax,-0x5b8(%rbp)
    a5f7:	c7 85 dc eb ff ff ff 	movl   $0xffffffff,-0x1424(%rbp)
    a5fe:	ff ff ff 
    a601:	c7 85 dc eb ff ff 00 	movl   $0x0,-0x1424(%rbp)
    a608:	00 00 00 
    a60b:	48 8b 85 e0 eb ff ff 	mov    -0x1420(%rbp),%rax
    a612:	48 8b 08             	mov    (%rax),%rcx
    a615:	0f b7 95 0e eb ff ff 	movzwl -0x14f2(%rbp),%edx
    a61c:	48 8b 85 e0 eb ff ff 	mov    -0x1420(%rbp),%rax
    a623:	48 21 ca             	and    %rcx,%rdx
    a626:	48 89 10             	mov    %rdx,(%rax)
    a629:	48 8b 00             	mov    (%rax),%rax
    a62c:	66 89 05 7d cf 00 00 	mov    %ax,0xcf7d(%rip)        # 175b0 <g_2339>
    a633:	be 01 00 00 00       	mov    $0x1,%esi
    a638:	bf 00 00 00 00       	mov    $0x0,%edi
    a63d:	e8 28 bc ff ff       	callq  626a <safe_div_func_int8_t_s_s>
    a642:	84 c0                	test   %al,%al
    a644:	74 10                	je     a656 <func_25+0x178f>
    a646:	0f b7 85 d4 ea ff ff 	movzwl -0x152c(%rbp),%eax
    a64d:	48 0f bf c0          	movswq %ax,%rax
    a651:	e9 25 2e 00 00       	jmpq   d47b <func_25+0x45b4>
    a656:	48 8d 05 f3 ce 00 00 	lea    0xcef3(%rip),%rax        # 17550 <g_1276>
    a65d:	48 89 85 f0 f5 ff ff 	mov    %rax,-0xa10(%rbp)
    a664:	48 8d 05 75 ca 00 00 	lea    0xca75(%rip),%rax        # 170e0 <g_83>
    a66b:	48 89 85 f8 f5 ff ff 	mov    %rax,-0xa08(%rbp)
    a672:	48 8d 05 d7 ce 00 00 	lea    0xced7(%rip),%rax        # 17550 <g_1276>
    a679:	48 89 85 00 f6 ff ff 	mov    %rax,-0xa00(%rbp)
    a680:	48 8d 05 59 ca 00 00 	lea    0xca59(%rip),%rax        # 170e0 <g_83>
    a687:	48 89 85 08 f6 ff ff 	mov    %rax,-0x9f8(%rbp)
    a68e:	48 8d 05 bb ce 00 00 	lea    0xcebb(%rip),%rax        # 17550 <g_1276>
    a695:	48 89 85 10 f6 ff ff 	mov    %rax,-0x9f0(%rbp)
    a69c:	48 8d 05 3d ca 00 00 	lea    0xca3d(%rip),%rax        # 170e0 <g_83>
    a6a3:	48 89 85 18 f6 ff ff 	mov    %rax,-0x9e8(%rbp)
    a6aa:	48 8d 05 9f ce 00 00 	lea    0xce9f(%rip),%rax        # 17550 <g_1276>
    a6b1:	48 89 85 20 f6 ff ff 	mov    %rax,-0x9e0(%rbp)
    a6b8:	48 8d 05 21 ca 00 00 	lea    0xca21(%rip),%rax        # 170e0 <g_83>
    a6bf:	48 89 85 28 f6 ff ff 	mov    %rax,-0x9d8(%rbp)
    a6c6:	48 8b 05 3b e5 00 00 	mov    0xe53b(%rip),%rax        # 18c08 <g_363>
    a6cd:	48 8b 95 10 f6 ff ff 	mov    -0x9f0(%rbp),%rdx
    a6d4:	48 89 10             	mov    %rdx,(%rax)
    a6d7:	66 83 bd 0e eb ff ff 	cmpw   $0x0,-0x14f2(%rbp)
    a6de:	00 
    a6df:	0f 85 7e 01 00 00    	jne    a863 <func_25+0x199c>
    a6e5:	66 c7 05 fa cd 00 00 	movw   $0x7,0xcdfa(%rip)        # 174e8 <g_188>
    a6ec:	07 00 
    a6ee:	e9 42 01 00 00       	jmpq   a835 <func_25+0x196e>
    a6f3:	48 8d 85 f0 ef ff ff 	lea    -0x1010(%rbp),%rax
    a6fa:	48 83 c0 50          	add    $0x50,%rax
    a6fe:	48 89 85 38 ec ff ff 	mov    %rax,-0x13c8(%rbp)
    a705:	48 8d 85 38 ec ff ff 	lea    -0x13c8(%rbp),%rax
    a70c:	48 89 85 10 ee ff ff 	mov    %rax,-0x11f0(%rbp)
    a713:	48 8d 05 46 f2 00 00 	lea    0xf246(%rip),%rax        # 19960 <g_1361>
    a71a:	48 89 85 18 ee ff ff 	mov    %rax,-0x11e8(%rbp)
    a721:	48 c7 85 20 ee ff ff 	movq   $0x0,-0x11e0(%rbp)
    a728:	00 00 00 00 
    a72c:	48 c7 85 28 ee ff ff 	movq   $0x0,-0x11d8(%rbp)
    a733:	00 00 00 00 
    a737:	48 8d 05 fa cd 00 00 	lea    0xcdfa(%rip),%rax        # 17538 <g_594>
    a73e:	48 89 85 30 ee ff ff 	mov    %rax,-0x11d0(%rbp)
    a745:	48 8b 05 7c ce 00 00 	mov    0xce7c(%rip),%rax        # 175c8 <g_2355+0x8>
    a74c:	41 89 c4             	mov    %eax,%r12d
    a74f:	48 83 bd 10 ee ff ff 	cmpq   $0x0,-0x11f0(%rbp)
    a756:	00 
    a757:	0f 95 c0             	setne  %al
    a75a:	0f b6 d0             	movzbl %al,%edx
    a75d:	0f b7 85 f8 ea ff ff 	movzwl -0x1508(%rbp),%eax
    a764:	0f b7 c8             	movzwl %ax,%ecx
    a767:	0f b7 85 d4 ea ff ff 	movzwl -0x152c(%rbp),%eax
    a76e:	98                   	cwtl   
    a76f:	39 c1                	cmp    %eax,%ecx
    a771:	0f 9c c0             	setl   %al
    a774:	0f b6 c0             	movzbl %al,%eax
    a777:	39 c2                	cmp    %eax,%edx
    a779:	0f 9d c0             	setge  %al
    a77c:	0f b6 d8             	movzbl %al,%ebx
    a77f:	0f b7 85 d4 ea ff ff 	movzwl -0x152c(%rbp),%eax
    a786:	0f be d0             	movsbl %al,%edx
    a789:	48 8b 05 80 ec 00 00 	mov    0xec80(%rip),%rax        # 19410 <g_2232>
    a790:	48 8b 8d d8 ec ff ff 	mov    -0x1328(%rbp),%rcx
    a797:	48 89 08             	mov    %rcx,(%rax)
    a79a:	48 8b 00             	mov    (%rax),%rax
    a79d:	48 39 85 00 ee ff ff 	cmp    %rax,-0x1200(%rbp)
    a7a4:	0f 95 c1             	setne  %cl
    a7a7:	48 8b 85 e0 eb ff ff 	mov    -0x1420(%rbp),%rax
    a7ae:	0f b6 c9             	movzbl %cl,%ecx
    a7b1:	48 89 08             	mov    %rcx,(%rax)
    a7b4:	48 8b 08             	mov    (%rax),%rcx
    a7b7:	48 8b 85 30 ec ff ff 	mov    -0x13d0(%rbp),%rax
    a7be:	48 8b 00             	mov    (%rax),%rax
    a7c1:	48 85 c0             	test   %rax,%rax
    a7c4:	0f 95 c0             	setne  %al
    a7c7:	0f b6 c0             	movzbl %al,%eax
    a7ca:	48 39 c1             	cmp    %rax,%rcx
    a7cd:	0f 95 c0             	setne  %al
    a7d0:	0f b6 c0             	movzbl %al,%eax
    a7d3:	89 d6                	mov    %edx,%esi
    a7d5:	89 c7                	mov    %eax,%edi
    a7d7:	e8 f8 b9 ff ff       	callq  61d4 <safe_add_func_int8_t_s_s>
    a7dc:	0f be c0             	movsbl %al,%eax
    a7df:	39 c3                	cmp    %eax,%ebx
    a7e1:	0f 94 c0             	sete   %al
    a7e4:	0f b6 d0             	movzbl %al,%edx
    a7e7:	48 8b 85 18 ee ff ff 	mov    -0x11e8(%rbp),%rax
    a7ee:	8b 00                	mov    (%rax),%eax
    a7f0:	09 c2                	or     %eax,%edx
    a7f2:	48 8b 85 18 ee ff ff 	mov    -0x11e8(%rbp),%rax
    a7f9:	89 10                	mov    %edx,(%rax)
    a7fb:	48 8b 85 18 ee ff ff 	mov    -0x11e8(%rbp),%rax
    a802:	8b 10                	mov    (%rax),%edx
    a804:	48 8b 85 30 ee ff ff 	mov    -0x11d0(%rbp),%rax
    a80b:	89 10                	mov    %edx,(%rax)
    a80d:	44 89 e6             	mov    %r12d,%esi
    a810:	bf 01 00 00 00       	mov    $0x1,%edi
    a815:	e8 49 bd ff ff       	callq  6563 <safe_rshift_func_int16_t_s_u>
    a81a:	c7 85 dc eb ff ff 01 	movl   $0x1,-0x1424(%rbp)
    a821:	00 00 00 
    a824:	0f b7 05 bd cc 00 00 	movzwl 0xccbd(%rip),%eax        # 174e8 <g_188>
    a82b:	83 e8 01             	sub    $0x1,%eax
    a82e:	66 89 05 b3 cc 00 00 	mov    %ax,0xccb3(%rip)        # 174e8 <g_188>
    a835:	0f b7 05 ac cc 00 00 	movzwl 0xccac(%rip),%eax        # 174e8 <g_188>
    a83c:	66 85 c0             	test   %ax,%ax
    a83f:	0f 89 ae fe ff ff    	jns    a6f3 <func_25+0x182c>
    a845:	8b 05 05 cd 00 00    	mov    0xcd05(%rip),%eax        # 17550 <g_1276>
    a84b:	83 c0 01             	add    $0x1,%eax
    a84e:	89 05 fc cc 00 00    	mov    %eax,0xccfc(%rip)        # 17550 <g_1276>
    a854:	8b 05 f6 cc 00 00    	mov    0xccf6(%rip),%eax        # 17550 <g_1276>
    a85a:	83 f8 04             	cmp    $0x4,%eax
    a85d:	0f 8e cf fa ff ff    	jle    a332 <func_25+0x146b>
    a863:	8b 05 37 cd 00 00    	mov    0xcd37(%rip),%eax        # 175a0 <g_1917>
    a869:	83 c0 01             	add    $0x1,%eax
    a86c:	89 05 2e cd 00 00    	mov    %eax,0xcd2e(%rip)        # 175a0 <g_1917>
    a872:	8b 05 28 cd 00 00    	mov    0xcd28(%rip),%eax        # 175a0 <g_1917>
    a878:	83 f8 07             	cmp    $0x7,%eax
    a87b:	0f 8e f2 f7 ff ff    	jle    a073 <func_25+0x11ac>
    a881:	c6 85 ee ea ff ff 00 	movb   $0x0,-0x1512(%rbp)
    a888:	e9 b3 01 00 00       	jmpq   aa40 <func_25+0x1b79>
    a88d:	66 c7 85 0a eb ff ff 	movw   $0xf3cc,-0x14f6(%rbp)
    a894:	cc f3 
    a896:	48 8d 05 b7 cc 00 00 	lea    0xccb7(%rip),%rax        # 17554 <g_1350>
    a89d:	48 89 85 e0 ed ff ff 	mov    %rax,-0x1220(%rbp)
    a8a4:	48 8d 85 f0 ef ff ff 	lea    -0x1010(%rbp),%rax
    a8ab:	48 83 c0 38          	add    $0x38,%rax
    a8af:	48 89 85 e8 ed ff ff 	mov    %rax,-0x1218(%rbp)
    a8b6:	48 8d 05 2b cc 00 00 	lea    0xcc2b(%rip),%rax        # 174e8 <g_188>
    a8bd:	48 89 85 f0 ed ff ff 	mov    %rax,-0x1210(%rbp)
    a8c4:	c7 85 d4 eb ff ff 1a 	movl   $0x6ff23b1a,-0x142c(%rbp)
    a8cb:	3b f2 6f 
    a8ce:	48 8d 05 8d cc 00 00 	lea    0xcc8d(%rip),%rax        # 17562 <g_1607+0x2>
    a8d5:	48 89 85 f8 ed ff ff 	mov    %rax,-0x1208(%rbp)
    a8dc:	c7 85 28 eb ff ff 00 	movl   $0x0,-0x14d8(%rbp)
    a8e3:	00 00 00 
    a8e6:	eb 1b                	jmp    a903 <func_25+0x1a3c>
    a8e8:	8b 85 28 eb ff ff    	mov    -0x14d8(%rbp),%eax
    a8ee:	48 98                	cltq   
    a8f0:	48 c7 84 c5 c0 f8 ff 	movq   $0x0,-0x740(%rbp,%rax,8)
    a8f7:	ff 00 00 00 00 
    a8fc:	83 85 28 eb ff ff 01 	addl   $0x1,-0x14d8(%rbp)
    a903:	83 bd 28 eb ff ff 01 	cmpl   $0x1,-0x14d8(%rbp)
    a90a:	7e dc                	jle    a8e8 <func_25+0x1a21>
    a90c:	48 8b 85 d8 ea ff ff 	mov    -0x1528(%rbp),%rax
    a913:	48 8b 10             	mov    (%rax),%rdx
    a916:	48 8b 85 c8 ea ff ff 	mov    -0x1538(%rbp),%rax
    a91d:	48 89 10             	mov    %rdx,(%rax)
    a920:	0f b7 85 0a eb ff ff 	movzwl -0x14f6(%rbp),%eax
    a927:	83 e8 01             	sub    $0x1,%eax
    a92a:	66 89 85 0a eb ff ff 	mov    %ax,-0x14f6(%rbp)
    a931:	48 8b 85 e8 ed ff ff 	mov    -0x1218(%rbp),%rax
    a938:	48 8b 95 e0 ed ff ff 	mov    -0x1220(%rbp),%rdx
    a93f:	48 89 10             	mov    %rdx,(%rax)
    a942:	48 8b 85 e8 ed ff ff 	mov    -0x1218(%rbp),%rax
    a949:	48 8b 10             	mov    (%rax),%rdx
    a94c:	48 8d 85 ee ea ff ff 	lea    -0x1512(%rbp),%rax
    a953:	48 39 c2             	cmp    %rax,%rdx
    a956:	74 0a                	je     a962 <func_25+0x1a9b>
    a958:	0f b7 85 d4 ea ff ff 	movzwl -0x152c(%rbp),%eax
    a95f:	66 85 c0             	test   %ax,%ax
    a962:	48 8b 05 8f e8 00 00 	mov    0xe88f(%rip),%rax        # 191f8 <g_1132>
    a969:	0f b6 00             	movzbl (%rax),%eax
    a96c:	84 c0                	test   %al,%al
    a96e:	75 0a                	jne    a97a <func_25+0x1ab3>
    a970:	8b 85 b8 ee ff ff    	mov    -0x1148(%rbp),%eax
    a976:	85 c0                	test   %eax,%eax
    a978:	74 07                	je     a981 <func_25+0x1aba>
    a97a:	ba 01 00 00 00       	mov    $0x1,%edx
    a97f:	eb 05                	jmp    a986 <func_25+0x1abf>
    a981:	ba 00 00 00 00       	mov    $0x0,%edx
    a986:	48 8b 85 f0 ed ff ff 	mov    -0x1210(%rbp),%rax
    a98d:	0f b7 00             	movzwl (%rax),%eax
    a990:	09 c2                	or     %eax,%edx
    a992:	48 8b 85 f0 ed ff ff 	mov    -0x1210(%rbp),%rax
    a999:	66 89 10             	mov    %dx,(%rax)
    a99c:	48 8b 85 f0 ed ff ff 	mov    -0x1210(%rbp),%rax
    a9a3:	0f b7 00             	movzwl (%rax),%eax
    a9a6:	98                   	cwtl   
    a9a7:	be 45 ac ff ff       	mov    $0xffffac45,%esi
    a9ac:	89 c7                	mov    %eax,%edi
    a9ae:	e8 63 ba ff ff       	callq  6416 <safe_mod_func_int16_t_s_s>
    a9b3:	98                   	cwtl   
    a9b4:	89 85 d4 eb ff ff    	mov    %eax,-0x142c(%rbp)
    a9ba:	ba e0 00 00 00       	mov    $0xe0,%edx
    a9bf:	48 8b 85 e0 ed ff ff 	mov    -0x1220(%rbp),%rax
    a9c6:	0f b6 00             	movzbl (%rax),%eax
    a9c9:	31 c2                	xor    %eax,%edx
    a9cb:	48 8b 85 e0 ed ff ff 	mov    -0x1220(%rbp),%rax
    a9d2:	88 10                	mov    %dl,(%rax)
    a9d4:	ba 01 00 00 00       	mov    $0x1,%edx
    a9d9:	48 8b 85 f8 ed ff ff 	mov    -0x1208(%rbp),%rax
    a9e0:	0f b6 00             	movzbl (%rax),%eax
    a9e3:	31 c2                	xor    %eax,%edx
    a9e5:	48 8b 85 f8 ed ff ff 	mov    -0x1208(%rbp),%rax
    a9ec:	88 10                	mov    %dl,(%rax)
    a9ee:	48 8b 85 f8 ed ff ff 	mov    -0x1208(%rbp),%rax
    a9f5:	0f b6 00             	movzbl (%rax),%eax
    a9f8:	0f be c0             	movsbl %al,%eax
    a9fb:	be 04 00 00 00       	mov    $0x4,%esi
    aa00:	89 c7                	mov    %eax,%edi
    aa02:	e8 e7 b8 ff ff       	callq  62ee <safe_lshift_func_int8_t_s_u>
    aa07:	0f be d0             	movsbl %al,%edx
    aa0a:	0f b6 05 04 cb 00 00 	movzbl 0xcb04(%rip),%eax        # 17515 <g_242+0x15>
    aa11:	0f b6 c0             	movzbl %al,%eax
    aa14:	39 c2                	cmp    %eax,%edx
    aa16:	0f 9c c0             	setl   %al
    aa19:	0f b6 c0             	movzbl %al,%eax
    aa1c:	89 85 98 f1 ff ff    	mov    %eax,-0xe68(%rbp)
    aa22:	0f b6 85 ee ea ff ff 	movzbl -0x1512(%rbp),%eax
    aa29:	66 98                	cbtw   
    aa2b:	0f b7 c0             	movzwl %ax,%eax
    aa2e:	be 01 00 00 00       	mov    $0x1,%esi
    aa33:	89 c7                	mov    %eax,%edi
    aa35:	e8 e5 c2 ff ff       	callq  6d1f <safe_sub_func_uint16_t_u_u>
    aa3a:	88 85 ee ea ff ff    	mov    %al,-0x1512(%rbp)
    aa40:	0f b6 85 ee ea ff ff 	movzbl -0x1512(%rbp),%eax
    aa47:	3c eb                	cmp    $0xeb,%al
    aa49:	0f 8d 3e fe ff ff    	jge    a88d <func_25+0x19c6>
    aa4f:	48 8b 85 e0 ec ff ff 	mov    -0x1320(%rbp),%rax
    aa56:	48 8b 00             	mov    (%rax),%rax
    aa59:	48 8b 00             	mov    (%rax),%rax
    aa5c:	48 8b 95 c8 ea ff ff 	mov    -0x1538(%rbp),%rdx
    aa63:	48 8b 12             	mov    (%rdx),%rdx
    aa66:	48 89 10             	mov    %rdx,(%rax)
    aa69:	c7 05 71 c6 00 00 15 	movl   $0x15,0xc671(%rip)        # 170e4 <g_90>
    aa70:	00 00 00 
    aa73:	e9 b7 11 00 00       	jmpq   bc2f <func_25+0x2d68>
    aa78:	48 8d 05 b1 ee 00 00 	lea    0xeeb1(%rip),%rax        # 19930 <g_237>
    aa7f:	48 89 85 20 ed ff ff 	mov    %rax,-0x12e0(%rbp)
    aa86:	c7 85 a4 eb ff ff 5a 	movl   $0xbf7c295a,-0x145c(%rbp)
    aa8d:	29 7c bf 
    aa90:	48 c7 85 28 ed ff ff 	movq   $0x0,-0x12d8(%rbp)
    aa97:	00 00 00 00 
    aa9b:	66 c7 85 04 eb ff ff 	movw   $0xd07a,-0x14fc(%rbp)
    aaa2:	7a d0 
    aaa4:	c7 85 a8 eb ff ff d7 	movl   $0xd510fed7,-0x1458(%rbp)
    aaab:	fe 10 d5 
    aaae:	c7 85 ac eb ff ff ff 	movl   $0xffffffff,-0x1454(%rbp)
    aab5:	ff ff ff 
    aab8:	48 8d 85 f0 f5 ff ff 	lea    -0xa10(%rbp),%rax
    aabf:	48 8d 15 9a 79 00 00 	lea    0x799a(%rip),%rdx        # 12460 <g_2501+0x400>
    aac6:	b9 5a 00 00 00       	mov    $0x5a,%ecx
    aacb:	48 89 c7             	mov    %rax,%rdi
    aace:	48 89 d6             	mov    %rdx,%rsi
    aad1:	f3 48 a5             	rep movsq %ds:(%rsi),%es:(%rdi)
    aad4:	c7 85 b0 eb ff ff bd 	movl   $0x286a1ebd,-0x1450(%rbp)
    aadb:	1e 6a 28 
    aade:	48 8d 85 c0 f8 ff ff 	lea    -0x740(%rbp),%rax
    aae5:	48 8d 15 54 7c 00 00 	lea    0x7c54(%rip),%rdx        # 12740 <g_2501+0x6e0>
    aaec:	b9 78 00 00 00       	mov    $0x78,%ecx
    aaf1:	48 89 c7             	mov    %rax,%rdi
    aaf4:	48 89 d6             	mov    %rdx,%rsi
    aaf7:	f3 48 a5             	rep movsq %ds:(%rsi),%es:(%rdi)
    aafa:	48 8d 05 df e7 00 00 	lea    0xe7df(%rip),%rax        # 192e0 <g_1878>
    ab01:	48 89 85 30 ed ff ff 	mov    %rax,-0x12d0(%rbp)
    ab08:	48 8d 85 08 ec ff ff 	lea    -0x13f8(%rbp),%rax
    ab0f:	48 89 85 38 ed ff ff 	mov    %rax,-0x12c8(%rbp)
    ab16:	48 c7 85 20 ec ff ff 	movq   $0x0,-0x13e0(%rbp)
    ab1d:	00 00 00 00 
    ab21:	48 8d 85 20 ec ff ff 	lea    -0x13e0(%rbp),%rax
    ab28:	48 89 85 40 ed ff ff 	mov    %rax,-0x12c0(%rbp)
    ab2f:	c7 85 2c eb ff ff 00 	movl   $0x0,-0x14d4(%rbp)
    ab36:	00 00 00 
    ab39:	eb 1e                	jmp    ab59 <func_25+0x1c92>
    ab3b:	8b 85 2c eb ff ff    	mov    -0x14d4(%rbp),%eax
    ab41:	48 98                	cltq   
    ab43:	48 8d 15 00 ca 00 00 	lea    0xca00(%rip),%rdx        # 1754a <g_936>
    ab4a:	48 89 94 c5 40 ee ff 	mov    %rdx,-0x11c0(%rbp,%rax,8)
    ab51:	ff 
    ab52:	83 85 2c eb ff ff 01 	addl   $0x1,-0x14d4(%rbp)
    ab59:	83 bd 2c eb ff ff 01 	cmpl   $0x1,-0x14d4(%rbp)
    ab60:	7e d9                	jle    ab3b <func_25+0x1c74>
    ab62:	0f b7 85 d4 ea ff ff 	movzwl -0x152c(%rbp),%eax
    ab69:	0f bf d8             	movswl %ax,%ebx
    ab6c:	48 8b 05 d5 e7 00 00 	mov    0xe7d5(%rip),%rax        # 19348 <g_1898>
    ab73:	0f b6 00             	movzbl (%rax),%eax
    ab76:	0f b7 85 d4 ea ff ff 	movzwl -0x152c(%rbp),%eax
    ab7d:	0f b7 c0             	movzwl %ax,%eax
    ab80:	be 02 00 00 00       	mov    $0x2,%esi
    ab85:	89 c7                	mov    %eax,%edi
    ab87:	e8 7a c2 ff ff       	callq  6e06 <safe_lshift_func_uint16_t_u_u>
    ab8c:	be e4 00 00 00       	mov    $0xe4,%esi
    ab91:	bf c5 00 00 00       	mov    $0xc5,%edi
    ab96:	e8 dd bf ff ff       	callq  6b78 <safe_sub_func_uint8_t_u_u>
    ab9b:	0f b6 c0             	movzbl %al,%eax
    ab9e:	48 89 c7             	mov    %rax,%rdi
    aba1:	e8 73 c4 ff ff       	callq  7019 <safe_unary_minus_func_uint64_t_u>
    aba6:	0f b6 05 55 c9 00 00 	movzbl 0xc955(%rip),%eax        # 17502 <g_242+0x2>
    abad:	0f b6 c0             	movzbl %al,%eax
    abb0:	39 85 18 eb ff ff    	cmp    %eax,-0x14e8(%rbp)
    abb6:	0f 95 c0             	setne  %al
    abb9:	0f b6 d0             	movzbl %al,%edx
    abbc:	8b 85 fc ee ff ff    	mov    -0x1104(%rbp),%eax
    abc2:	31 d0                	xor    %edx,%eax
    abc4:	89 85 fc ee ff ff    	mov    %eax,-0x1104(%rbp)
    abca:	8b 85 fc ee ff ff    	mov    -0x1104(%rbp),%eax
    abd0:	44 0f b6 e0          	movzbl %al,%r12d
    abd4:	0f b7 85 d4 ea ff ff 	movzwl -0x152c(%rbp),%eax
    abdb:	44 0f bf e8          	movswl %ax,%r13d
    abdf:	8b 85 b8 ee ff ff    	mov    -0x1148(%rbp),%eax
    abe5:	0f b7 d0             	movzwl %ax,%edx
    abe8:	0f b7 85 d4 ea ff ff 	movzwl -0x152c(%rbp),%eax
    abef:	0f b7 c0             	movzwl %ax,%eax
    abf2:	89 d6                	mov    %edx,%esi
    abf4:	89 c7                	mov    %eax,%edi
    abf6:	e8 61 c1 ff ff       	callq  6d5c <safe_mod_func_uint16_t_u_u>
    abfb:	0f b7 c0             	movzwl %ax,%eax
    abfe:	41 39 c5             	cmp    %eax,%r13d
    ac01:	0f 94 c0             	sete   %al
    ac04:	0f b6 c0             	movzbl %al,%eax
    ac07:	44 89 e6             	mov    %r12d,%esi
    ac0a:	89 c7                	mov    %eax,%edi
    ac0c:	e8 67 bf ff ff       	callq  6b78 <safe_sub_func_uint8_t_u_u>
    ac11:	0f b6 c0             	movzbl %al,%eax
    ac14:	f7 d0                	not    %eax
    ac16:	48 98                	cltq   
    ac18:	ba b5 ed 84 c5       	mov    $0xc584edb5,%edx
    ac1d:	48 31 d0             	xor    %rdx,%rax
    ac20:	48 be d1 a8 97 9a b7 	movabs $0x4895c4b79a97a8d1,%rsi
    ac27:	c4 95 48 
    ac2a:	48 89 c7             	mov    %rax,%rdi
    ac2d:	e8 19 c4 ff ff       	callq  704b <safe_sub_func_uint64_t_u_u>
    ac32:	89 c2                	mov    %eax,%edx
    ac34:	8b 85 14 eb ff ff    	mov    -0x14ec(%rbp),%eax
    ac3a:	31 d0                	xor    %edx,%eax
    ac3c:	89 85 14 eb ff ff    	mov    %eax,-0x14ec(%rbp)
    ac42:	8b 95 14 eb ff ff    	mov    -0x14ec(%rbp),%edx
    ac48:	0f b7 05 4d c9 00 00 	movzwl 0xc94d(%rip),%eax        # 1759c <g_1806+0xc>
    ac4f:	31 d0                	xor    %edx,%eax
    ac51:	66 89 05 44 c9 00 00 	mov    %ax,0xc944(%rip)        # 1759c <g_1806+0xc>
    ac58:	0f b7 05 3d c9 00 00 	movzwl 0xc93d(%rip),%eax        # 1759c <g_1806+0xc>
    ac5f:	66 83 f8 01          	cmp    $0x1,%ax
    ac63:	0f 9f c0             	setg   %al
    ac66:	0f b6 c0             	movzbl %al,%eax
    ac69:	be 00 00 00 00       	mov    $0x0,%esi
    ac6e:	89 c7                	mov    %eax,%edi
    ac70:	e8 d7 bf ff ff       	callq  6c4c <safe_lshift_func_uint8_t_u_u>
    ac75:	0f be d0             	movsbl %al,%edx
    ac78:	48 8b 05 c9 e6 00 00 	mov    0xe6c9(%rip),%rax        # 19348 <g_1898>
    ac7f:	0f b6 00             	movzbl (%rax),%eax
    ac82:	0f be c0             	movsbl %al,%eax
    ac85:	89 d6                	mov    %edx,%esi
    ac87:	89 c7                	mov    %eax,%edi
    ac89:	e8 84 b5 ff ff       	callq  6212 <safe_mul_func_int8_t_s_s>
    ac8e:	c0 e8 07             	shr    $0x7,%al
    ac91:	0f b6 c0             	movzbl %al,%eax
    ac94:	be 02 00 00 00       	mov    $0x2,%esi
    ac99:	89 c7                	mov    %eax,%edi
    ac9b:	e8 41 b8 ff ff       	callq  64e1 <safe_lshift_func_int16_t_s_u>
    aca0:	bf 83 55 00 17       	mov    $0x17005583,%edi
    aca5:	e8 ec b8 ff ff       	callq  6596 <safe_unary_minus_func_int32_t_s>
    acaa:	85 c0                	test   %eax,%eax
    acac:	75 1c                	jne    acca <func_25+0x1e03>
    acae:	48 8b 05 3b df 00 00 	mov    0xdf3b(%rip),%rax        # 18bf0 <g_200>
    acb5:	0f b7 00             	movzwl (%rax),%eax
    acb8:	66 85 c0             	test   %ax,%ax
    acbb:	75 0d                	jne    acca <func_25+0x1e03>
    acbd:	48 8b 05 f4 d8 00 00 	mov    0xd8f4(%rip),%rax        # 185b8 <g_124>
    acc4:	8b 00                	mov    (%rax),%eax
    acc6:	85 c0                	test   %eax,%eax
    acc8:	74 07                	je     acd1 <func_25+0x1e0a>
    acca:	b8 01 00 00 00       	mov    $0x1,%eax
    accf:	eb 05                	jmp    acd6 <func_25+0x1e0f>
    acd1:	b8 00 00 00 00       	mov    $0x0,%eax
    acd6:	83 f8 ff             	cmp    $0xffffffff,%eax
    acd9:	75 0c                	jne    ace7 <func_25+0x1e20>
    acdb:	48 8b 05 26 ec 00 00 	mov    0xec26(%rip),%rax        # 19908 <g_68>
    ace2:	48 85 c0             	test   %rax,%rax
    ace5:	74 07                	je     acee <func_25+0x1e27>
    ace7:	b8 01 00 00 00       	mov    $0x1,%eax
    acec:	eb 05                	jmp    acf3 <func_25+0x1e2c>
    acee:	b8 00 00 00 00       	mov    $0x0,%eax
    acf3:	3b 85 18 eb ff ff    	cmp    -0x14e8(%rbp),%eax
    acf9:	0f 94 c0             	sete   %al
    acfc:	0f b6 c0             	movzbl %al,%eax
    acff:	89 de                	mov    %ebx,%esi
    ad01:	89 c7                	mov    %eax,%edi
    ad03:	e8 cb b6 ff ff       	callq  63d3 <safe_sub_func_int16_t_s_s>
    ad08:	0f b7 95 d4 ea ff ff 	movzwl -0x152c(%rbp),%edx
    ad0f:	66 39 d0             	cmp    %dx,%ax
    ad12:	0f 84 37 08 00 00    	je     b54f <func_25+0x2688>
    ad18:	66 c7 85 06 eb ff ff 	movw   $0x1425,-0x14fa(%rbp)
    ad1f:	25 14 
    ad21:	48 c7 85 28 ec ff ff 	movq   $0x0,-0x13d8(%rbp)
    ad28:	00 00 00 00 
    ad2c:	48 8d 85 28 ec ff ff 	lea    -0x13d8(%rbp),%rax
    ad33:	48 89 85 30 ec ff ff 	mov    %rax,-0x13d0(%rbp)
    ad3a:	48 8d 85 30 ec ff ff 	lea    -0x13d0(%rbp),%rax
    ad41:	48 89 85 50 ed ff ff 	mov    %rax,-0x12b0(%rbp)
    ad48:	c7 85 c0 eb ff ff 07 	movl   $0x7,-0x1440(%rbp)
    ad4f:	00 00 00 
    ad52:	c7 85 c4 eb ff ff c2 	movl   $0xf9c58ac2,-0x143c(%rbp)
    ad59:	8a c5 f9 
    ad5c:	c7 85 c8 eb ff ff 32 	movl   $0xc6319732,-0x1438(%rbp)
    ad63:	97 31 c6 
    ad66:	48 b8 37 1d 0c b7 2c 	movabs $0xfbe9e82cb70c1d37,%rax
    ad6d:	e8 e9 fb 
    ad70:	48 89 85 58 ed ff ff 	mov    %rax,-0x12a8(%rbp)
    ad77:	66 c7 85 08 eb ff ff 	movw   $0xffff,-0x14f8(%rbp)
    ad7e:	ff ff 
    ad80:	48 8d 05 81 de 00 00 	lea    0xde81(%rip),%rax        # 18c08 <g_363>
    ad87:	48 89 85 60 ed ff ff 	mov    %rax,-0x12a0(%rbp)
    ad8e:	c7 85 30 eb ff ff 00 	movl   $0x0,-0x14d0(%rbp)
    ad95:	00 00 00 
    ad98:	eb 1a                	jmp    adb4 <func_25+0x1eed>
    ad9a:	8b 85 30 eb ff ff    	mov    -0x14d0(%rbp),%eax
    ada0:	48 98                	cltq   
    ada2:	c7 84 85 50 ee ff ff 	movl   $0xffffffff,-0x11b0(%rbp,%rax,4)
    ada9:	ff ff ff ff 
    adad:	83 85 30 eb ff ff 01 	addl   $0x1,-0x14d0(%rbp)
    adb4:	83 bd 30 eb ff ff 04 	cmpl   $0x4,-0x14d0(%rbp)
    adbb:	7e dd                	jle    ad9a <func_25+0x1ed3>
    adbd:	48 8b 85 00 ed ff ff 	mov    -0x1300(%rbp),%rax
    adc4:	0f bf d8             	movswl %ax,%ebx
    adc7:	0f b7 85 d4 ea ff ff 	movzwl -0x152c(%rbp),%eax
    adce:	0f b7 d0             	movzwl %ax,%edx
    add1:	48 8b 85 e0 ec ff ff 	mov    -0x1320(%rbp),%rax
    add8:	48 8b 00             	mov    (%rax),%rax
    addb:	48 8b 00             	mov    (%rax),%rax
    adde:	48 85 c0             	test   %rax,%rax
    ade1:	0f 95 c0             	setne  %al
    ade4:	0f b6 c8             	movzbl %al,%ecx
    ade7:	0f b7 85 d4 ea ff ff 	movzwl -0x152c(%rbp),%eax
    adee:	66 85 c0             	test   %ax,%ax
    adf1:	74 11                	je     ae04 <func_25+0x1f3d>
    adf3:	8b 85 d0 ee ff ff    	mov    -0x1130(%rbp),%eax
    adf9:	85 c0                	test   %eax,%eax
    adfb:	74 07                	je     ae04 <func_25+0x1f3d>
    adfd:	b8 01 00 00 00       	mov    $0x1,%eax
    ae02:	eb 05                	jmp    ae09 <func_25+0x1f42>
    ae04:	b8 00 00 00 00       	mov    $0x0,%eax
    ae09:	39 c8                	cmp    %ecx,%eax
    ae0b:	0f 9f c0             	setg   %al
    ae0e:	0f b6 c0             	movzbl %al,%eax
    ae11:	89 d6                	mov    %edx,%esi
    ae13:	89 c7                	mov    %eax,%edi
    ae15:	e8 42 bf ff ff       	callq  6d5c <safe_mod_func_uint16_t_u_u>
    ae1a:	98                   	cwtl   
    ae1b:	89 de                	mov    %ebx,%esi
    ae1d:	89 c7                	mov    %eax,%edi
    ae1f:	e8 31 b6 ff ff       	callq  6455 <safe_div_func_int16_t_s_s>
    ae24:	66 85 c0             	test   %ax,%ax
    ae27:	74 13                	je     ae3c <func_25+0x1f75>
    ae29:	0f b7 85 d4 ea ff ff 	movzwl -0x152c(%rbp),%eax
    ae30:	66 85 c0             	test   %ax,%ax
    ae33:	74 07                	je     ae3c <func_25+0x1f75>
    ae35:	b8 01 00 00 00       	mov    $0x1,%eax
    ae3a:	eb 05                	jmp    ae41 <func_25+0x1f7a>
    ae3c:	b8 00 00 00 00       	mov    $0x0,%eax
    ae41:	83 f8 5f             	cmp    $0x5f,%eax
    ae44:	0f 9e c0             	setle  %al
    ae47:	0f b6 c0             	movzbl %al,%eax
    ae4a:	be ff ff ff ff       	mov    $0xffffffff,%esi
    ae4f:	89 c7                	mov    %eax,%edi
    ae51:	e8 60 b7 ff ff       	callq  65b6 <safe_add_func_int32_t_s_s>
    ae56:	66 83 bd 04 eb ff ff 	cmpw   $0x0,-0x14fc(%rbp)
    ae5d:	00 
    ae5e:	0f 84 66 01 00 00    	je     afca <func_25+0x2103>
    ae64:	48 8d 85 10 eb ff ff 	lea    -0x14f0(%rbp),%rax
    ae6b:	48 89 85 70 ed ff ff 	mov    %rax,-0x1290(%rbp)
    ae72:	c7 85 00 f2 ff ff fb 	movl   $0xfffffffb,-0xe00(%rbp)
    ae79:	ff ff ff 
    ae7c:	c7 85 04 f2 ff ff fb 	movl   $0xfffffffb,-0xdfc(%rbp)
    ae83:	ff ff ff 
    ae86:	c7 85 08 f2 ff ff fb 	movl   $0xfffffffb,-0xdf8(%rbp)
    ae8d:	ff ff ff 
    ae90:	c7 85 0c f2 ff ff fb 	movl   $0xfffffffb,-0xdf4(%rbp)
    ae97:	ff ff ff 
    ae9a:	48 8d 85 b0 ee ff ff 	lea    -0x1150(%rbp),%rax
    aea1:	48 83 c0 08          	add    $0x8,%rax
    aea5:	48 89 85 78 ed ff ff 	mov    %rax,-0x1288(%rbp)
    aeac:	8b 05 02 c2 00 00    	mov    0xc202(%rip),%eax        # 170b4 <g_4+0x74>
    aeb2:	0f be d8             	movsbl %al,%ebx
    aeb5:	48 8b 05 f4 d6 00 00 	mov    0xd6f4(%rip),%rax        # 185b0 <g_118>
    aebc:	8b 00                	mov    (%rax),%eax
    aebe:	85 c0                	test   %eax,%eax
    aec0:	74 3a                	je     aefc <func_25+0x2035>
    aec2:	48 8b 85 70 ed ff ff 	mov    -0x1290(%rbp),%rax
    aec9:	48 3b 85 08 ed ff ff 	cmp    -0x12f8(%rbp),%rax
    aed0:	0f 95 c0             	setne  %al
    aed3:	0f b6 d0             	movzbl %al,%edx
    aed6:	8b 05 84 ea 00 00    	mov    0xea84(%rip),%eax        # 19960 <g_1361>
    aedc:	39 c2                	cmp    %eax,%edx
    aede:	0f 93 c0             	setae  %al
    aee1:	0f b6 c0             	movzbl %al,%eax
    aee4:	89 c7                	mov    %eax,%edi
    aee6:	e8 ab b6 ff ff       	callq  6596 <safe_unary_minus_func_int32_t_s>
    aeeb:	f7 d0                	not    %eax
    aeed:	89 85 18 eb ff ff    	mov    %eax,-0x14e8(%rbp)
    aef3:	83 bd 18 eb ff ff 00 	cmpl   $0x0,-0x14e8(%rbp)
    aefa:	75 0b                	jne    af07 <func_25+0x2040>
    aefc:	0f b6 05 51 c6 00 00 	movzbl 0xc651(%rip),%eax        # 17554 <g_1350>
    af03:	84 c0                	test   %al,%al
    af05:	74 07                	je     af0e <func_25+0x2047>
    af07:	b8 01 00 00 00       	mov    $0x1,%eax
    af0c:	eb 05                	jmp    af13 <func_25+0x204c>
    af0e:	b8 00 00 00 00       	mov    $0x0,%eax
    af13:	31 85 a4 eb ff ff    	xor    %eax,-0x145c(%rbp)
    af19:	0f b7 85 d4 ea ff ff 	movzwl -0x152c(%rbp),%eax
    af20:	44 0f bf e0          	movswl %ax,%r12d
    af24:	0f b7 85 d4 ea ff ff 	movzwl -0x152c(%rbp),%eax
    af2b:	88 05 f1 c5 00 00    	mov    %al,0xc5f1(%rip)        # 17522 <g_333+0x2>
    af31:	0f b6 05 ea c5 00 00 	movzbl 0xc5ea(%rip),%eax        # 17522 <g_333+0x2>
    af38:	0f b6 c0             	movzbl %al,%eax
    af3b:	be 02 00 00 00       	mov    $0x2,%esi
    af40:	89 c7                	mov    %eax,%edi
    af42:	e8 46 bd ff ff       	callq  6c8d <safe_rshift_func_uint8_t_u_s>
    af47:	0f b6 c0             	movzbl %al,%eax
    af4a:	44 89 e6             	mov    %r12d,%esi
    af4d:	89 c7                	mov    %eax,%edi
    af4f:	e8 d1 bf ff ff       	callq  6f25 <safe_div_func_uint32_t_u_u>
    af54:	3d a8 00 00 00       	cmp    $0xa8,%eax
    af59:	0f 97 c0             	seta   %al
    af5c:	0f b6 d0             	movzbl %al,%edx
    af5f:	0f b6 05 ee c5 00 00 	movzbl 0xc5ee(%rip),%eax        # 17554 <g_1350>
    af66:	0f be c0             	movsbl %al,%eax
    af69:	39 c2                	cmp    %eax,%edx
    af6b:	8b 05 43 c1 00 00    	mov    0xc143(%rip),%eax        # 170b4 <g_4+0x74>
    af71:	0f b6 d0             	movzbl %al,%edx
    af74:	48 8b 05 7d e2 00 00 	mov    0xe27d(%rip),%rax        # 191f8 <g_1132>
    af7b:	0f b6 00             	movzbl (%rax),%eax
    af7e:	0f b6 c0             	movzbl %al,%eax
    af81:	89 d6                	mov    %edx,%esi
    af83:	89 c7                	mov    %eax,%edi
    af85:	e8 ee bb ff ff       	callq  6b78 <safe_sub_func_uint8_t_u_u>
    af8a:	0f be c0             	movsbl %al,%eax
    af8d:	89 de                	mov    %ebx,%esi
    af8f:	89 c7                	mov    %eax,%edi
    af91:	e8 d4 b2 ff ff       	callq  626a <safe_div_func_int8_t_s_s>
    af96:	3c 01                	cmp    $0x1,%al
    af98:	48 8b 05 91 e2 00 00 	mov    0xe291(%rip),%rax        # 19230 <g_1767>
    af9f:	8b 10                	mov    (%rax),%edx
    afa1:	48 8b 85 78 ed ff ff 	mov    -0x1288(%rbp),%rax
    afa8:	89 10                	mov    %edx,(%rax)
    afaa:	48 8b 85 78 ed ff ff 	mov    -0x1288(%rbp),%rax
    afb1:	8b 00                	mov    (%rax),%eax
    afb3:	89 c2                	mov    %eax,%edx
    afb5:	0f b7 85 d4 ea ff ff 	movzwl -0x152c(%rbp),%eax
    afbc:	31 d0                	xor    %edx,%eax
    afbe:	66 89 85 06 eb ff ff 	mov    %ax,-0x14fa(%rbp)
    afc5:	e9 ae 00 00 00       	jmpq   b078 <func_25+0x21b1>
    afca:	48 c7 85 68 ed ff ff 	movq   $0xffffffffffffffff,-0x1298(%rbp)
    afd1:	ff ff ff ff 
    afd5:	c7 85 cc eb ff ff 03 	movl   $0x3,-0x1434(%rbp)
    afdc:	00 00 00 
    afdf:	c7 85 d0 eb ff ff 1c 	movl   $0x1473401c,-0x1430(%rbp)
    afe6:	40 73 14 
    afe9:	0f b7 85 d4 ea ff ff 	movzwl -0x152c(%rbp),%eax
    aff0:	48 0f bf c0          	movswq %ax,%rax
    aff4:	48 89 85 68 ed ff ff 	mov    %rax,-0x1298(%rbp)
    affb:	48 8d 05 a2 c5 00 00 	lea    0xc5a2(%rip),%rax        # 175a4 <g_1919>
    b002:	48 89 85 e0 ef ff ff 	mov    %rax,-0x1020(%rbp)
    b009:	48 8b 05 40 e3 00 00 	mov    0xe340(%rip),%rax        # 19350 <g_1897>
    b010:	48 8b 00             	mov    (%rax),%rax
    b013:	0f b6 00             	movzbl (%rax),%eax
    b016:	0f be c0             	movsbl %al,%eax
    b019:	be 02 00 00 00       	mov    $0x2,%esi
    b01e:	89 c7                	mov    %eax,%edi
    b020:	e8 47 b3 ff ff       	callq  636c <safe_rshift_func_int8_t_s_u>
    b025:	0f be d0             	movsbl %al,%edx
    b028:	48 8d 05 75 c5 00 00 	lea    0xc575(%rip),%rax        # 175a4 <g_1919>
    b02f:	48 39 85 08 ed ff ff 	cmp    %rax,-0x12f8(%rbp)
    b036:	0f 95 c0             	setne  %al
    b039:	0f b6 c0             	movzbl %al,%eax
    b03c:	39 c2                	cmp    %eax,%edx
    b03e:	75 07                	jne    b047 <func_25+0x2180>
    b040:	ba 9b a2 6d bd       	mov    $0xbd6da29b,%edx
    b045:	eb 05                	jmp    b04c <func_25+0x2185>
    b047:	ba 9a a2 6d bd       	mov    $0xbd6da29a,%edx
    b04c:	48 8b 85 d0 ec ff ff 	mov    -0x1330(%rbp),%rax
    b053:	89 10                	mov    %edx,(%rax)
    b055:	48 8b 85 d0 ec ff ff 	mov    -0x1330(%rbp),%rax
    b05c:	8b 00                	mov    (%rax),%eax
    b05e:	89 85 cc eb ff ff    	mov    %eax,-0x1434(%rbp)
    b064:	48 83 bd 68 ed ff ff 	cmpq   $0x1,-0x1298(%rbp)
    b06b:	01 
    b06c:	8b 85 8c eb ff ff    	mov    -0x1474(%rbp),%eax
    b072:	89 85 d0 eb ff ff    	mov    %eax,-0x1430(%rbp)
    b078:	c6 85 ee ea ff ff 01 	movb   $0x1,-0x1512(%rbp)
    b07f:	e9 b7 04 00 00       	jmpq   b53b <func_25+0x2674>
    b084:	48 c7 85 80 ed ff ff 	movq   $0x0,-0x1280(%rbp)
    b08b:	00 00 00 00 
    b08f:	48 8d 85 b0 ee ff ff 	lea    -0x1150(%rbp),%rax
    b096:	48 83 c0 10          	add    $0x10,%rax
    b09a:	48 89 85 88 ed ff ff 	mov    %rax,-0x1278(%rbp)
    b0a1:	48 8d 05 50 c2 00 00 	lea    0xc250(%rip),%rax        # 172f8 <g_95+0x1f8>
    b0a8:	48 89 85 90 ed ff ff 	mov    %rax,-0x1270(%rbp)
    b0af:	48 8d 85 14 eb ff ff 	lea    -0x14ec(%rbp),%rax
    b0b6:	48 89 85 98 ed ff ff 	mov    %rax,-0x1268(%rbp)
    b0bd:	48 8d 85 e0 ee ff ff 	lea    -0x1120(%rbp),%rax
    b0c4:	48 83 c0 1c          	add    $0x1c,%rax
    b0c8:	48 89 85 a0 ed ff ff 	mov    %rax,-0x1260(%rbp)
    b0cf:	48 8d 05 7a c4 00 00 	lea    0xc47a(%rip),%rax        # 17550 <g_1276>
    b0d6:	48 89 85 a8 ed ff ff 	mov    %rax,-0x1258(%rbp)
    b0dd:	48 8d 85 b0 ee ff ff 	lea    -0x1150(%rbp),%rax
    b0e4:	48 83 c0 08          	add    $0x8,%rax
    b0e8:	48 89 85 b0 ed ff ff 	mov    %rax,-0x1250(%rbp)
    b0ef:	48 8d 05 72 c1 00 00 	lea    0xc172(%rip),%rax        # 17268 <g_95+0x168>
    b0f6:	48 89 85 b8 ed ff ff 	mov    %rax,-0x1248(%rbp)
    b0fd:	48 8d 85 e0 ee ff ff 	lea    -0x1120(%rbp),%rax
    b104:	48 83 c0 14          	add    $0x14,%rax
    b108:	48 89 85 c0 ed ff ff 	mov    %rax,-0x1240(%rbp)
    b10f:	48 8d 85 30 f1 ff ff 	lea    -0xed0(%rbp),%rax
    b116:	48 05 90 00 00 00    	add    $0x90,%rax
    b11c:	48 89 85 c8 ed ff ff 	mov    %rax,-0x1238(%rbp)
    b123:	48 8d 05 ea c4 00 00 	lea    0xc4ea(%rip),%rax        # 17614 <g_2483+0x4>
    b12a:	48 89 85 38 ec ff ff 	mov    %rax,-0x13c8(%rbp)
    b131:	48 8d 85 38 ec ff ff 	lea    -0x13c8(%rbp),%rax
    b138:	48 89 85 00 f2 ff ff 	mov    %rax,-0xe00(%rbp)
    b13f:	48 8d 85 38 ec ff ff 	lea    -0x13c8(%rbp),%rax
    b146:	48 89 85 08 f2 ff ff 	mov    %rax,-0xdf8(%rbp)
    b14d:	48 c7 85 10 f2 ff ff 	movq   $0x0,-0xdf0(%rbp)
    b154:	00 00 00 00 
    b158:	48 8d 85 38 ec ff ff 	lea    -0x13c8(%rbp),%rax
    b15f:	48 89 85 18 f2 ff ff 	mov    %rax,-0xde8(%rbp)
    b166:	48 8d 85 38 ec ff ff 	lea    -0x13c8(%rbp),%rax
    b16d:	48 89 85 20 f2 ff ff 	mov    %rax,-0xde0(%rbp)
    b174:	48 8d 85 38 ec ff ff 	lea    -0x13c8(%rbp),%rax
    b17b:	48 89 85 28 f2 ff ff 	mov    %rax,-0xdd8(%rbp)
    b182:	48 8d 85 38 ec ff ff 	lea    -0x13c8(%rbp),%rax
    b189:	48 89 85 30 f2 ff ff 	mov    %rax,-0xdd0(%rbp)
    b190:	48 8d 85 38 ec ff ff 	lea    -0x13c8(%rbp),%rax
    b197:	48 89 85 38 f2 ff ff 	mov    %rax,-0xdc8(%rbp)
    b19e:	48 8d 85 38 ec ff ff 	lea    -0x13c8(%rbp),%rax
    b1a5:	48 89 85 40 f2 ff ff 	mov    %rax,-0xdc0(%rbp)
    b1ac:	48 8d 85 38 ec ff ff 	lea    -0x13c8(%rbp),%rax
    b1b3:	48 89 85 48 f2 ff ff 	mov    %rax,-0xdb8(%rbp)
    b1ba:	48 8d 85 38 ec ff ff 	lea    -0x13c8(%rbp),%rax
    b1c1:	48 89 85 50 f2 ff ff 	mov    %rax,-0xdb0(%rbp)
    b1c8:	48 8d 85 38 ec ff ff 	lea    -0x13c8(%rbp),%rax
    b1cf:	48 89 85 58 f2 ff ff 	mov    %rax,-0xda8(%rbp)
    b1d6:	48 8d 85 38 ec ff ff 	lea    -0x13c8(%rbp),%rax
    b1dd:	48 89 85 60 f2 ff ff 	mov    %rax,-0xda0(%rbp)
    b1e4:	48 8d 85 38 ec ff ff 	lea    -0x13c8(%rbp),%rax
    b1eb:	48 89 85 68 f2 ff ff 	mov    %rax,-0xd98(%rbp)
    b1f2:	48 8d 85 38 ec ff ff 	lea    -0x13c8(%rbp),%rax
    b1f9:	48 89 85 70 f2 ff ff 	mov    %rax,-0xd90(%rbp)
    b200:	48 8d 85 38 ec ff ff 	lea    -0x13c8(%rbp),%rax
    b207:	48 89 85 78 f2 ff ff 	mov    %rax,-0xd88(%rbp)
    b20e:	48 8d 85 38 ec ff ff 	lea    -0x13c8(%rbp),%rax
    b215:	48 89 85 80 f2 ff ff 	mov    %rax,-0xd80(%rbp)
    b21c:	48 8d 85 38 ec ff ff 	lea    -0x13c8(%rbp),%rax
    b223:	48 89 85 88 f2 ff ff 	mov    %rax,-0xd78(%rbp)
    b22a:	48 8d 85 38 ec ff ff 	lea    -0x13c8(%rbp),%rax
    b231:	48 89 85 90 f2 ff ff 	mov    %rax,-0xd70(%rbp)
    b238:	48 8d 85 38 ec ff ff 	lea    -0x13c8(%rbp),%rax
    b23f:	48 89 85 98 f2 ff ff 	mov    %rax,-0xd68(%rbp)
    b246:	48 8d 85 38 ec ff ff 	lea    -0x13c8(%rbp),%rax
    b24d:	48 89 85 a0 f2 ff ff 	mov    %rax,-0xd60(%rbp)
    b254:	48 8d 85 38 ec ff ff 	lea    -0x13c8(%rbp),%rax
    b25b:	48 89 85 a8 f2 ff ff 	mov    %rax,-0xd58(%rbp)
    b262:	48 8d 85 38 ec ff ff 	lea    -0x13c8(%rbp),%rax
    b269:	48 89 85 b0 f2 ff ff 	mov    %rax,-0xd50(%rbp)
    b270:	48 8d 85 38 ec ff ff 	lea    -0x13c8(%rbp),%rax
    b277:	48 89 85 b8 f2 ff ff 	mov    %rax,-0xd48(%rbp)
    b27e:	48 8d 85 38 ec ff ff 	lea    -0x13c8(%rbp),%rax
    b285:	48 89 85 c0 f2 ff ff 	mov    %rax,-0xd40(%rbp)
    b28c:	48 8d 85 38 ec ff ff 	lea    -0x13c8(%rbp),%rax
    b293:	48 89 85 c8 f2 ff ff 	mov    %rax,-0xd38(%rbp)
    b29a:	48 8d 85 38 ec ff ff 	lea    -0x13c8(%rbp),%rax
    b2a1:	48 89 85 d0 f2 ff ff 	mov    %rax,-0xd30(%rbp)
    b2a8:	48 8d 85 38 ec ff ff 	lea    -0x13c8(%rbp),%rax
    b2af:	48 89 85 d8 f2 ff ff 	mov    %rax,-0xd28(%rbp)
    b2b6:	48 8d 85 38 ec ff ff 	lea    -0x13c8(%rbp),%rax
    b2bd:	48 89 85 e0 f2 ff ff 	mov    %rax,-0xd20(%rbp)
    b2c4:	48 c7 85 e8 f2 ff ff 	movq   $0x0,-0xd18(%rbp)
    b2cb:	00 00 00 00 
    b2cf:	48 8d 85 38 ec ff ff 	lea    -0x13c8(%rbp),%rax
    b2d6:	48 89 85 f0 f2 ff ff 	mov    %rax,-0xd10(%rbp)
    b2dd:	48 8d 85 38 ec ff ff 	lea    -0x13c8(%rbp),%rax
    b2e4:	48 89 85 f8 f2 ff ff 	mov    %rax,-0xd08(%rbp)
    b2eb:	48 8d 85 38 ec ff ff 	lea    -0x13c8(%rbp),%rax
    b2f2:	48 89 85 00 f3 ff ff 	mov    %rax,-0xd00(%rbp)
    b2f9:	48 8d 85 38 ec ff ff 	lea    -0x13c8(%rbp),%rax
    b300:	48 89 85 08 f3 ff ff 	mov    %rax,-0xcf8(%rbp)
    b307:	48 8d 85 38 ec ff ff 	lea    -0x13c8(%rbp),%rax
    b30e:	48 89 85 10 f3 ff ff 	mov    %rax,-0xcf0(%rbp)
    b315:	48 8d 85 38 ec ff ff 	lea    -0x13c8(%rbp),%rax
    b31c:	48 89 85 18 f3 ff ff 	mov    %rax,-0xce8(%rbp)
    b323:	48 8d 85 38 ec ff ff 	lea    -0x13c8(%rbp),%rax
    b32a:	48 89 85 20 f3 ff ff 	mov    %rax,-0xce0(%rbp)
    b331:	48 8d 85 38 ec ff ff 	lea    -0x13c8(%rbp),%rax
    b338:	48 89 85 28 f3 ff ff 	mov    %rax,-0xcd8(%rbp)
    b33f:	48 8d 85 38 ec ff ff 	lea    -0x13c8(%rbp),%rax
    b346:	48 89 85 30 f3 ff ff 	mov    %rax,-0xcd0(%rbp)
    b34d:	48 8d 85 38 ec ff ff 	lea    -0x13c8(%rbp),%rax
    b354:	48 89 85 38 f3 ff ff 	mov    %rax,-0xcc8(%rbp)
    b35b:	48 c7 85 40 f3 ff ff 	movq   $0x0,-0xcc0(%rbp)
    b362:	00 00 00 00 
    b366:	48 8d 85 38 ec ff ff 	lea    -0x13c8(%rbp),%rax
    b36d:	48 89 85 48 f3 ff ff 	mov    %rax,-0xcb8(%rbp)
    b374:	48 8d 85 38 ec ff ff 	lea    -0x13c8(%rbp),%rax
    b37b:	48 89 85 50 f3 ff ff 	mov    %rax,-0xcb0(%rbp)
    b382:	48 8d 85 38 ec ff ff 	lea    -0x13c8(%rbp),%rax
    b389:	48 89 85 58 f3 ff ff 	mov    %rax,-0xca8(%rbp)
    b390:	48 c7 85 60 f3 ff ff 	movq   $0x0,-0xca0(%rbp)
    b397:	00 00 00 00 
    b39b:	48 c7 85 68 f3 ff ff 	movq   $0x0,-0xc98(%rbp)
    b3a2:	00 00 00 00 
    b3a6:	48 8d 85 38 ec ff ff 	lea    -0x13c8(%rbp),%rax
    b3ad:	48 89 85 70 f3 ff ff 	mov    %rax,-0xc90(%rbp)
    b3b4:	48 8d 85 38 ec ff ff 	lea    -0x13c8(%rbp),%rax
    b3bb:	48 89 85 78 f3 ff ff 	mov    %rax,-0xc88(%rbp)
    b3c2:	48 8d 85 38 ec ff ff 	lea    -0x13c8(%rbp),%rax
    b3c9:	48 89 85 80 f3 ff ff 	mov    %rax,-0xc80(%rbp)
    b3d0:	48 8d 85 38 ec ff ff 	lea    -0x13c8(%rbp),%rax
    b3d7:	48 89 85 88 f3 ff ff 	mov    %rax,-0xc78(%rbp)
    b3de:	48 8d 85 38 ec ff ff 	lea    -0x13c8(%rbp),%rax
    b3e5:	48 89 85 90 f3 ff ff 	mov    %rax,-0xc70(%rbp)
    b3ec:	48 8d 85 38 ec ff ff 	lea    -0x13c8(%rbp),%rax
    b3f3:	48 89 85 98 f3 ff ff 	mov    %rax,-0xc68(%rbp)
    b3fa:	48 c7 85 a0 f3 ff ff 	movq   $0x0,-0xc60(%rbp)
    b401:	00 00 00 00 
    b405:	48 8d 85 38 ec ff ff 	lea    -0x13c8(%rbp),%rax
    b40c:	48 89 85 a8 f3 ff ff 	mov    %rax,-0xc58(%rbp)
    b413:	48 8d 85 38 ec ff ff 	lea    -0x13c8(%rbp),%rax
    b41a:	48 89 85 b0 f3 ff ff 	mov    %rax,-0xc50(%rbp)
    b421:	48 8d 85 38 ec ff ff 	lea    -0x13c8(%rbp),%rax
    b428:	48 89 85 b8 f3 ff ff 	mov    %rax,-0xc48(%rbp)
    b42f:	48 8d 85 00 f2 ff ff 	lea    -0xe00(%rbp),%rax
    b436:	48 05 20 01 00 00    	add    $0x120,%rax
    b43c:	48 89 85 d0 ed ff ff 	mov    %rax,-0x1230(%rbp)
    b443:	c7 85 34 eb ff ff 00 	movl   $0x0,-0x14cc(%rbp)
    b44a:	00 00 00 
    b44d:	eb 22                	jmp    b471 <func_25+0x25aa>
    b44f:	8b 85 34 eb ff ff    	mov    -0x14cc(%rbp),%eax
    b455:	48 98                	cltq   
    b457:	48 8d 95 30 f1 ff ff 	lea    -0xed0(%rbp),%rdx
    b45e:	48 83 c2 20          	add    $0x20,%rdx
    b462:	48 89 94 c5 90 ee ff 	mov    %rdx,-0x1170(%rbp,%rax,8)
    b469:	ff 
    b46a:	83 85 34 eb ff ff 01 	addl   $0x1,-0x14cc(%rbp)
    b471:	83 bd 34 eb ff ff 03 	cmpl   $0x3,-0x14cc(%rbp)
    b478:	7e d5                	jle    b44f <func_25+0x2588>
    b47a:	83 85 20 eb ff ff 01 	addl   $0x1,-0x14e0(%rbp)
    b481:	0f b6 85 ee ea ff ff 	movzbl -0x1512(%rbp),%eax
    b488:	0f be c0             	movsbl %al,%eax
    b48b:	83 c0 05             	add    $0x5,%eax
    b48e:	48 98                	cltq   
    b490:	48 8d 14 c5 00 00 00 	lea    0x0(,%rax,8),%rdx
    b497:	00 
    b498:	48 8d 05 81 d7 00 00 	lea    0xd781(%rip),%rax        # 18c20 <g_734>
    b49f:	48 8b 04 02          	mov    (%rdx,%rax,1),%rax
    b4a3:	48 89 05 86 dd 00 00 	mov    %rax,0xdd86(%rip)        # 19230 <g_1767>
    b4aa:	8b 85 14 eb ff ff    	mov    -0x14ec(%rbp),%eax
    b4b0:	85 c0                	test   %eax,%eax
    b4b2:	75 76                	jne    b52a <func_25+0x2663>
    b4b4:	48 8b 85 38 ef ff ff 	mov    -0x10c8(%rbp),%rax
    b4bb:	48 39 85 10 ed ff ff 	cmp    %rax,-0x12f0(%rbp)
    b4c2:	0f 95 c0             	setne  %al
    b4c5:	0f b6 d0             	movzbl %al,%edx
    b4c8:	48 8b 85 88 ed ff ff 	mov    -0x1278(%rbp),%rax
    b4cf:	89 10                	mov    %edx,(%rax)
    b4d1:	b8 00 00 00 00       	mov    $0x0,%eax
    b4d6:	3d fe 00 00 00       	cmp    $0xfe,%eax
    b4db:	0f 97 c0             	seta   %al
    b4de:	0f b6 d8             	movzbl %al,%ebx
    b4e1:	be 00 00 00 00       	mov    $0x0,%esi
    b4e6:	bf 4f 35 00 00       	mov    $0x354f,%edi
    b4eb:	e8 73 b0 ff ff       	callq  6563 <safe_rshift_func_int16_t_s_u>
    b4f0:	66 85 c0             	test   %ax,%ax
    b4f3:	0f 94 c0             	sete   %al
    b4f6:	0f b6 d0             	movzbl %al,%edx
    b4f9:	0f b7 85 d4 ea ff ff 	movzwl -0x152c(%rbp),%eax
    b500:	98                   	cwtl   
    b501:	f7 d0                	not    %eax
    b503:	48 98                	cltq   
    b505:	48 89 d6             	mov    %rdx,%rsi
    b508:	48 89 c7             	mov    %rax,%rdi
    b50b:	e8 1e bb ff ff       	callq  702e <safe_add_func_uint64_t_u_u>
    b510:	98                   	cwtl   
    b511:	89 de                	mov    %ebx,%esi
    b513:	89 c7                	mov    %eax,%edi
    b515:	e8 b9 ae ff ff       	callq  63d3 <safe_sub_func_int16_t_s_s>
    b51a:	ba 01 00 00 00       	mov    $0x1,%edx
    b51f:	48 8b 85 98 ed ff ff 	mov    -0x1268(%rbp),%rax
    b526:	89 10                	mov    %edx,(%rax)
    b528:	eb 01                	jmp    b52b <func_25+0x2664>
    b52a:	90                   	nop
    b52b:	0f b6 85 ee ea ff ff 	movzbl -0x1512(%rbp),%eax
    b532:	83 e8 01             	sub    $0x1,%eax
    b535:	88 85 ee ea ff ff    	mov    %al,-0x1512(%rbp)
    b53b:	0f b6 85 ee ea ff ff 	movzbl -0x1512(%rbp),%eax
    b542:	84 c0                	test   %al,%al
    b544:	0f 89 3a fb ff ff    	jns    b084 <func_25+0x21bd>
    b54a:	e9 ff 02 00 00       	jmpq   b84e <func_25+0x2987>
    b54f:	c7 85 b4 eb ff ff fd 	movl   $0xfffffffd,-0x144c(%rbp)
    b556:	ff ff ff 
    b559:	c7 85 b8 eb ff ff 6e 	movl   $0xc053bf6e,-0x1448(%rbp)
    b560:	bf 53 c0 
    b563:	c7 85 bc eb ff ff 9b 	movl   $0xdb38199b,-0x1444(%rbp)
    b56a:	19 38 db 
    b56d:	c7 85 38 eb ff ff 00 	movl   $0x0,-0x14c8(%rbp)
    b574:	00 00 00 
    b577:	eb 1e                	jmp    b597 <func_25+0x26d0>
    b579:	8b 85 38 eb ff ff    	mov    -0x14c8(%rbp),%eax
    b57f:	48 98                	cltq   
    b581:	48 8d 95 e0 eb ff ff 	lea    -0x1420(%rbp),%rdx
    b588:	48 89 94 c5 00 f2 ff 	mov    %rdx,-0xe00(%rbp,%rax,8)
    b58f:	ff 
    b590:	83 85 38 eb ff ff 01 	addl   $0x1,-0x14c8(%rbp)
    b597:	83 bd 38 eb ff ff 01 	cmpl   $0x1,-0x14c8(%rbp)
    b59e:	7e d9                	jle    b579 <func_25+0x26b2>
    b5a0:	66 c7 85 f8 ea ff ff 	movw   $0x0,-0x1508(%rbp)
    b5a7:	00 00 
    b5a9:	90                   	nop
    b5aa:	0f b7 85 f8 ea ff ff 	movzwl -0x1508(%rbp),%eax
    b5b1:	66 83 f8 23          	cmp    $0x23,%ax
    b5b5:	77 66                	ja     b61d <func_25+0x2756>
    b5b7:	48 8d 05 ba de 00 00 	lea    0xdeba(%rip),%rax        # 19478 <g_2490>
    b5be:	48 89 85 48 ed ff ff 	mov    %rax,-0x12b8(%rbp)
    b5c5:	48 8b 85 e0 ec ff ff 	mov    -0x1320(%rbp),%rax
    b5cc:	48 8b 00             	mov    (%rax),%rax
    b5cf:	48 8b 00             	mov    (%rax),%rax
    b5d2:	48 8b 95 d8 ea ff ff 	mov    -0x1528(%rbp),%rdx
    b5d9:	48 8b 12             	mov    (%rdx),%rdx
    b5dc:	48 89 10             	mov    %rdx,(%rax)
    b5df:	8b 95 f8 ee ff ff    	mov    -0x1108(%rbp),%edx
    b5e5:	48 8b 05 cc cf 00 00 	mov    0xcfcc(%rip),%rax        # 185b8 <g_124>
    b5ec:	83 f2 01             	xor    $0x1,%edx
    b5ef:	89 10                	mov    %edx,(%rax)
    b5f1:	48 8b 15 38 dc 00 00 	mov    0xdc38(%rip),%rdx        # 19230 <g_1767>
    b5f8:	8b 00                	mov    (%rax),%eax
    b5fa:	89 02                	mov    %eax,(%rdx)
    b5fc:	48 8b 15 75 de 00 00 	mov    0xde75(%rip),%rdx        # 19478 <g_2490>
    b603:	48 8b 85 48 ed ff ff 	mov    -0x12b8(%rbp),%rax
    b60a:	48 89 10             	mov    %rdx,(%rax)
    b60d:	0f b7 85 d4 ea ff ff 	movzwl -0x152c(%rbp),%eax
    b614:	48 0f bf c0          	movswq %ax,%rax
    b618:	e9 5e 1e 00 00       	jmpq   d47b <func_25+0x45b4>
    b61d:	c7 05 65 bf 00 00 00 	movl   $0x0,0xbf65(%rip)        # 1758c <g_1786>
    b624:	00 00 00 
    b627:	e9 b9 00 00 00       	jmpq   b6e5 <func_25+0x281e>
    b62c:	66 c7 05 b3 be 00 00 	movw   $0x0,0xbeb3(%rip)        # 174e8 <g_188>
    b633:	00 00 
    b635:	e9 8b 00 00 00       	jmpq   b6c5 <func_25+0x27fe>
    b63a:	c6 05 0d bf 00 00 00 	movb   $0x0,0xbf0d(%rip)        # 1754e <g_1133>
    b641:	eb 66                	jmp    b6a9 <func_25+0x27e2>
    b643:	8b 0d 43 bf 00 00    	mov    0xbf43(%rip),%ecx        # 1758c <g_1786>
    b649:	0f b7 05 98 be 00 00 	movzwl 0xbe98(%rip),%eax        # 174e8 <g_188>
    b650:	98                   	cwtl   
    b651:	0f b6 15 f6 be 00 00 	movzbl 0xbef6(%rip),%edx        # 1754e <g_1133>
    b658:	0f b6 d2             	movzbl %dl,%edx
    b65b:	48 63 f2             	movslq %edx,%rsi
    b65e:	89 ca                	mov    %ecx,%edx
    b660:	48 63 c8             	movslq %eax,%rcx
    b663:	48 89 d0             	mov    %rdx,%rax
    b666:	48 c1 e0 03          	shl    $0x3,%rax
    b66a:	48 01 d0             	add    %rdx,%rax
    b66d:	48 01 c0             	add    %rax,%rax
    b670:	48 89 ca             	mov    %rcx,%rdx
    b673:	48 01 d2             	add    %rdx,%rdx
    b676:	48 01 ca             	add    %rcx,%rdx
    b679:	48 01 d0             	add    %rdx,%rax
    b67c:	48 01 f0             	add    %rsi,%rax
    b67f:	48 8d 14 c5 00 00 00 	lea    0x0(,%rax,8),%rdx
    b686:	00 
    b687:	48 8d 05 32 cf 00 00 	lea    0xcf32(%rip),%rax        # 185c0 <g_172>
    b68e:	48 8d 0d 7f bf 00 00 	lea    0xbf7f(%rip),%rcx        # 17614 <g_2483+0x4>
    b695:	48 89 0c 02          	mov    %rcx,(%rdx,%rax,1)
    b699:	0f b6 05 ae be 00 00 	movzbl 0xbeae(%rip),%eax        # 1754e <g_1133>
    b6a0:	83 c0 01             	add    $0x1,%eax
    b6a3:	88 05 a5 be 00 00    	mov    %al,0xbea5(%rip)        # 1754e <g_1133>
    b6a9:	0f b6 05 9e be 00 00 	movzbl 0xbe9e(%rip),%eax        # 1754e <g_1133>
    b6b0:	3c 02                	cmp    $0x2,%al
    b6b2:	76 8f                	jbe    b643 <func_25+0x277c>
    b6b4:	0f b7 05 2d be 00 00 	movzwl 0xbe2d(%rip),%eax        # 174e8 <g_188>
    b6bb:	83 c0 01             	add    $0x1,%eax
    b6be:	66 89 05 23 be 00 00 	mov    %ax,0xbe23(%rip)        # 174e8 <g_188>
    b6c5:	0f b7 05 1c be 00 00 	movzwl 0xbe1c(%rip),%eax        # 174e8 <g_188>
    b6cc:	66 83 f8 05          	cmp    $0x5,%ax
    b6d0:	0f 8e 64 ff ff ff    	jle    b63a <func_25+0x2773>
    b6d6:	8b 05 b0 be 00 00    	mov    0xbeb0(%rip),%eax        # 1758c <g_1786>
    b6dc:	83 c0 01             	add    $0x1,%eax
    b6df:	89 05 a7 be 00 00    	mov    %eax,0xbea7(%rip)        # 1758c <g_1786>
    b6e5:	8b 05 a1 be 00 00    	mov    0xbea1(%rip),%eax        # 1758c <g_1786>
    b6eb:	83 f8 06             	cmp    $0x6,%eax
    b6ee:	0f 86 38 ff ff ff    	jbe    b62c <func_25+0x2765>
    b6f4:	8b 95 30 f1 ff ff    	mov    -0xed0(%rbp),%edx
    b6fa:	83 bd b4 eb ff ff 08 	cmpl   $0x8,-0x144c(%rbp)
    b701:	0f 94 c0             	sete   %al
    b704:	0f b6 c0             	movzbl %al,%eax
    b707:	21 d0                	and    %edx,%eax
    b709:	89 85 30 f1 ff ff    	mov    %eax,-0xed0(%rbp)
    b70f:	0f b7 85 d4 ea ff ff 	movzwl -0x152c(%rbp),%eax
    b716:	0f b7 d8             	movzwl %ax,%ebx
    b719:	0f b7 85 d4 ea ff ff 	movzwl -0x152c(%rbp),%eax
    b720:	44 0f bf e0          	movswl %ax,%r12d
    b724:	8b 05 7a be 00 00    	mov    0xbe7a(%rip),%eax        # 175a4 <g_1919>
    b72a:	85 c0                	test   %eax,%eax
    b72c:	0f 84 ea 00 00 00    	je     b81c <func_25+0x2955>
    b732:	0f b7 85 d4 ea ff ff 	movzwl -0x152c(%rbp),%eax
    b739:	44 0f be e8          	movsbl %al,%r13d
    b73d:	48 8d 05 ec bd 00 00 	lea    0xbdec(%rip),%rax        # 17530 <g_407>
    b744:	48 89 85 f8 ec ff ff 	mov    %rax,-0x1308(%rbp)
    b74b:	48 8d 05 de bd 00 00 	lea    0xbdde(%rip),%rax        # 17530 <g_407>
    b752:	48 89 85 e0 eb ff ff 	mov    %rax,-0x1420(%rbp)
    b759:	48 8b 05 a0 da 00 00 	mov    0xdaa0(%rip),%rax        # 19200 <g_1131>
    b760:	48 8b 00             	mov    (%rax),%rax
    b763:	0f b6 00             	movzbl (%rax),%eax
    b766:	0f b7 85 d4 ea ff ff 	movzwl -0x152c(%rbp),%eax
    b76d:	0f bf d0             	movswl %ax,%edx
    b770:	0f b7 85 d4 ea ff ff 	movzwl -0x152c(%rbp),%eax
    b777:	66 3d e0 62          	cmp    $0x62e0,%ax
    b77b:	0f 94 c0             	sete   %al
    b77e:	0f b6 c8             	movzbl %al,%ecx
    b781:	8b 85 14 f9 ff ff    	mov    -0x6ec(%rbp),%eax
    b787:	31 c8                	xor    %ecx,%eax
    b789:	83 f8 ff             	cmp    $0xffffffff,%eax
    b78c:	0f 9d c0             	setge  %al
    b78f:	0f b6 c0             	movzbl %al,%eax
    b792:	89 d6                	mov    %edx,%esi
    b794:	89 c7                	mov    %eax,%edi
    b796:	e8 6b b6 ff ff       	callq  6e06 <safe_lshift_func_uint16_t_u_u>
    b79b:	8b 85 b0 eb ff ff    	mov    -0x1450(%rbp),%eax
    b7a1:	48 63 d0             	movslq %eax,%rdx
    b7a4:	48 8b 05 85 bd 00 00 	mov    0xbd85(%rip),%rax        # 17530 <g_407>
    b7ab:	48 31 d0             	xor    %rdx,%rax
    b7ae:	48 89 05 7b bd 00 00 	mov    %rax,0xbd7b(%rip)        # 17530 <g_407>
    b7b5:	48 8b 05 74 bd 00 00 	mov    0xbd74(%rip),%rax        # 17530 <g_407>
    b7bc:	f7 d0                	not    %eax
    b7be:	89 85 b8 eb ff ff    	mov    %eax,-0x1448(%rbp)
    b7c4:	8b 85 94 eb ff ff    	mov    -0x146c(%rbp),%eax
    b7ca:	89 c2                	mov    %eax,%edx
    b7cc:	0f b7 85 d4 ea ff ff 	movzwl -0x152c(%rbp),%eax
    b7d3:	09 d0                	or     %edx,%eax
    b7d5:	98                   	cwtl   
    b7d6:	be 05 00 00 00       	mov    $0x5,%esi
    b7db:	89 c7                	mov    %eax,%edi
    b7dd:	e8 48 ad ff ff       	callq  652a <safe_rshift_func_int16_t_s_s>
    b7e2:	0f b7 85 d4 ea ff ff 	movzwl -0x152c(%rbp),%eax
    b7e9:	48 0f bf c0          	movswq %ax,%rax
    b7ed:	be 09 00 00 00       	mov    $0x9,%esi
    b7f2:	48 89 c7             	mov    %rax,%rdi
    b7f5:	e8 ae b0 ff ff       	callq  68a8 <safe_sub_func_int64_t_s_s>
    b7fa:	83 bd a4 eb ff ff 00 	cmpl   $0x0,-0x145c(%rbp)
    b801:	0f 9e c0             	setle  %al
    b804:	0f b6 c0             	movzbl %al,%eax
    b807:	44 89 ee             	mov    %r13d,%esi
    b80a:	89 c7                	mov    %eax,%edi
    b80c:	e8 c3 a9 ff ff       	callq  61d4 <safe_add_func_int8_t_s_s>
    b811:	84 c0                	test   %al,%al
    b813:	74 07                	je     b81c <func_25+0x2955>
    b815:	b8 01 00 00 00       	mov    $0x1,%eax
    b81a:	eb 05                	jmp    b821 <func_25+0x295a>
    b81c:	b8 00 00 00 00       	mov    $0x0,%eax
    b821:	98                   	cwtl   
    b822:	44 89 e6             	mov    %r12d,%esi
    b825:	89 c7                	mov    %eax,%edi
    b827:	e8 a7 ab ff ff       	callq  63d3 <safe_sub_func_int16_t_s_s>
    b82c:	0f b7 95 d4 ea ff ff 	movzwl -0x152c(%rbp),%edx
    b833:	21 d0                	and    %edx,%eax
    b835:	66 35 97 70          	xor    $0x7097,%ax
    b839:	0f b7 c0             	movzwl %ax,%eax
    b83c:	89 de                	mov    %ebx,%esi
    b83e:	89 c7                	mov    %eax,%edi
    b840:	e8 da b4 ff ff       	callq  6d1f <safe_sub_func_uint16_t_u_u>
    b845:	0f b7 c0             	movzwl %ax,%eax
    b848:	89 85 bc eb ff ff    	mov    %eax,-0x1444(%rbp)
    b84e:	0f b7 05 9b 81 00 00 	movzwl 0x819b(%rip),%eax        # 139f0 <l_2516.4341>
    b855:	66 85 c0             	test   %ax,%ax
    b858:	0f 85 b8 03 00 00    	jne    bc16 <func_25+0x2d4f>
    b85e:	48 c7 85 40 ec ff ff 	movq   $0x0,-0x13c0(%rbp)
    b865:	00 00 00 00 
    b869:	e9 11 03 00 00       	jmpq   bb7f <func_25+0x2cb8>
    b86e:	c7 85 3c eb ff ff 05 	movl   $0x5,-0x14c4(%rbp)
    b875:	00 00 00 
    b878:	c7 85 00 f2 ff ff 6e 	movl   $0xd400f96e,-0xe00(%rbp)
    b87f:	f9 00 d4 
    b882:	c7 85 04 f2 ff ff fd 	movl   $0xfffffffd,-0xdfc(%rbp)
    b889:	ff ff ff 
    b88c:	c7 85 08 f2 ff ff 6e 	movl   $0xd400f96e,-0xdf8(%rbp)
    b893:	f9 00 d4 
    b896:	c7 85 0c f2 ff ff 6e 	movl   $0xd400f96e,-0xdf4(%rbp)
    b89d:	f9 00 d4 
    b8a0:	c7 85 10 f2 ff ff fd 	movl   $0xfffffffd,-0xdf0(%rbp)
    b8a7:	ff ff ff 
    b8aa:	c7 85 14 f2 ff ff 6e 	movl   $0xd400f96e,-0xdec(%rbp)
    b8b1:	f9 00 d4 
    b8b4:	c7 85 18 f2 ff ff 6e 	movl   $0xd400f96e,-0xde8(%rbp)
    b8bb:	f9 00 d4 
    b8be:	c7 85 1c f2 ff ff fd 	movl   $0xfffffffd,-0xde4(%rbp)
    b8c5:	ff ff ff 
    b8c8:	c7 85 10 eb ff ff 01 	movl   $0x1,-0x14f0(%rbp)
    b8cf:	00 00 00 
    b8d2:	e9 ce 01 00 00       	jmpq   baa5 <func_25+0x2bde>
    b8d7:	48 8d 85 e8 eb ff ff 	lea    -0x1418(%rbp),%rax
    b8de:	48 89 85 d8 ed ff ff 	mov    %rax,-0x1228(%rbp)
    b8e5:	c7 85 40 eb ff ff 00 	movl   $0x0,-0x14c0(%rbp)
    b8ec:	00 00 00 
    b8ef:	eb 1a                	jmp    b90b <func_25+0x2a44>
    b8f1:	8b 85 40 eb ff ff    	mov    -0x14c0(%rbp),%eax
    b8f7:	48 98                	cltq   
    b8f9:	c7 84 85 90 ee ff ff 	movl   $0x48d73,-0x1170(%rbp,%rax,4)
    b900:	73 8d 04 00 
    b904:	83 85 40 eb ff ff 01 	addl   $0x1,-0x14c0(%rbp)
    b90b:	83 bd 40 eb ff ff 00 	cmpl   $0x0,-0x14c0(%rbp)
    b912:	7e dd                	jle    b8f1 <func_25+0x2a2a>
    b914:	66 83 bd 04 eb ff ff 	cmpw   $0x0,-0x14fc(%rbp)
    b91b:	00 
    b91c:	0f 85 94 01 00 00    	jne    bab6 <func_25+0x2bef>
    b922:	0f b7 85 d4 ea ff ff 	movzwl -0x152c(%rbp),%eax
    b929:	0f bf d8             	movswl %ax,%ebx
    b92c:	0f b7 85 d4 ea ff ff 	movzwl -0x152c(%rbp),%eax
    b933:	0f bf d0             	movswl %ax,%edx
    b936:	0f b6 05 e2 bb 00 00 	movzbl 0xbbe2(%rip),%eax        # 1751f <g_271>
    b93d:	0f be c8             	movsbl %al,%ecx
    b940:	48 8b 05 b1 d8 00 00 	mov    0xd8b1(%rip),%rax        # 191f8 <g_1132>
    b947:	0f b6 00             	movzbl (%rax),%eax
    b94a:	0f b6 f0             	movzbl %al,%esi
    b94d:	0f b7 85 d4 ea ff ff 	movzwl -0x152c(%rbp),%eax
    b954:	98                   	cwtl   
    b955:	39 c6                	cmp    %eax,%esi
    b957:	0f 95 c0             	setne  %al
    b95a:	0f b6 c0             	movzbl %al,%eax
    b95d:	39 c1                	cmp    %eax,%ecx
    b95f:	0f 95 c0             	setne  %al
    b962:	0f b6 c0             	movzbl %al,%eax
    b965:	89 d6                	mov    %edx,%esi
    b967:	89 c7                	mov    %eax,%edi
    b969:	e8 a8 aa ff ff       	callq  6416 <safe_mod_func_int16_t_s_s>
    b96e:	0f b6 d0             	movzbl %al,%edx
    b971:	0f b6 05 a1 bb 00 00 	movzbl 0xbba1(%rip),%eax        # 17519 <g_242+0x19>
    b978:	8d 48 ff             	lea    -0x1(%rax),%ecx
    b97b:	88 0d 98 bb 00 00    	mov    %cl,0xbb98(%rip)        # 17519 <g_242+0x19>
    b981:	0f b6 c0             	movzbl %al,%eax
    b984:	89 d6                	mov    %edx,%esi
    b986:	89 c7                	mov    %eax,%edi
    b988:	e8 eb b1 ff ff       	callq  6b78 <safe_sub_func_uint8_t_u_u>
    b98d:	83 f0 01             	xor    $0x1,%eax
    b990:	44 0f b6 e0          	movzbl %al,%r12d
    b994:	0f b7 85 d4 ea ff ff 	movzwl -0x152c(%rbp),%eax
    b99b:	48 0f bf c0          	movswq %ax,%rax
    b99f:	48 89 c6             	mov    %rax,%rsi
    b9a2:	48 c7 c7 ff ff ff ff 	mov    $0xffffffffffffffff,%rdi
    b9a9:	e8 93 ae ff ff       	callq  6841 <safe_add_func_int64_t_s_s>
    b9ae:	8b 95 4c f8 ff ff    	mov    -0x7b4(%rbp),%edx
    b9b4:	48 63 d2             	movslq %edx,%rdx
    b9b7:	48 31 d0             	xor    %rdx,%rax
    b9ba:	4c 89 e6             	mov    %r12,%rsi
    b9bd:	48 89 c7             	mov    %rax,%rdi
    b9c0:	e8 7c ae ff ff       	callq  6841 <safe_add_func_int64_t_s_s>
    b9c5:	48 8b 95 e8 eb ff ff 	mov    -0x1418(%rbp),%rdx
    b9cc:	48 8b 85 d8 ed ff ff 	mov    -0x1228(%rbp),%rax
    b9d3:	48 89 10             	mov    %rdx,(%rax)
    b9d6:	48 8b 85 d8 ed ff ff 	mov    -0x1228(%rbp),%rax
    b9dd:	48 8b 00             	mov    (%rax),%rax
    b9e0:	48 85 c0             	test   %rax,%rax
    b9e3:	0f 95 c0             	setne  %al
    b9e6:	0f b6 c0             	movzbl %al,%eax
    b9e9:	89 de                	mov    %ebx,%esi
    b9eb:	89 c7                	mov    %eax,%edi
    b9ed:	e8 9b b2 ff ff       	callq  6c8d <safe_rshift_func_uint8_t_u_s>
    b9f2:	0f b6 c0             	movzbl %al,%eax
    b9f5:	09 85 3c eb ff ff    	or     %eax,-0x14c4(%rbp)
    b9fb:	0f b6 05 1a bc 00 00 	movzbl 0xbc1a(%rip),%eax        # 1761c <g_2544+0x4>
    ba02:	0f b6 c0             	movzbl %al,%eax
    ba05:	be ff ff ff ff       	mov    $0xffffffff,%esi
    ba0a:	89 c7                	mov    %eax,%edi
    ba0c:	e8 e4 a9 ff ff       	callq  63f5 <safe_mul_func_int16_t_s_s>
    ba11:	8b 85 3c eb ff ff    	mov    -0x14c4(%rbp),%eax
    ba17:	48 98                	cltq   
    ba19:	8b 8d 90 ee ff ff    	mov    -0x1170(%rbp),%ecx
    ba1f:	48 83 bd 30 ed ff ff 	cmpq   $0x0,-0x12d0(%rbp)
    ba26:	00 
    ba27:	0f 94 c2             	sete   %dl
    ba2a:	0f b6 d2             	movzbl %dl,%edx
    ba2d:	39 d1                	cmp    %edx,%ecx
    ba2f:	7c 0a                	jl     ba3b <func_25+0x2b74>
    ba31:	48 8b 15 58 da 00 00 	mov    0xda58(%rip),%rdx        # 19490 <g_2551>
    ba38:	48 85 d2             	test   %rdx,%rdx
    ba3b:	48 89 c6             	mov    %rax,%rsi
    ba3e:	bf 00 00 00 00       	mov    $0x0,%edi
    ba43:	e8 38 b6 ff ff       	callq  7080 <safe_mod_func_uint64_t_u_u>
    ba48:	0f b7 95 d4 ea ff ff 	movzwl -0x152c(%rbp),%edx
    ba4f:	48 0f bf d2          	movswq %dx,%rdx
    ba53:	48 39 d0             	cmp    %rdx,%rax
    ba56:	0f 94 c0             	sete   %al
    ba59:	0f b6 c0             	movzbl %al,%eax
    ba5c:	be 8b 00 00 00       	mov    $0x8b,%esi
    ba61:	89 c7                	mov    %eax,%edi
    ba63:	e8 46 b1 ff ff       	callq  6bae <safe_mod_func_uint8_t_u_u>
    ba68:	66 83 bd 04 eb ff ff 	cmpw   $0x0,-0x14fc(%rbp)
    ba6f:	00 
    ba70:	75 0a                	jne    ba7c <func_25+0x2bb5>
    ba72:	0f b7 85 d4 ea ff ff 	movzwl -0x152c(%rbp),%eax
    ba79:	66 85 c0             	test   %ax,%ax
    ba7c:	48 8b 85 38 f4 ff ff 	mov    -0xbc8(%rbp),%rax
    ba83:	48 39 85 38 ed ff ff 	cmp    %rax,-0x12c8(%rbp)
    ba8a:	0f 94 c0             	sete   %al
    ba8d:	0f b6 c0             	movzbl %al,%eax
    ba90:	89 85 8c f1 ff ff    	mov    %eax,-0xe74(%rbp)
    ba96:	8b 85 10 eb ff ff    	mov    -0x14f0(%rbp),%eax
    ba9c:	83 c0 01             	add    $0x1,%eax
    ba9f:	89 85 10 eb ff ff    	mov    %eax,-0x14f0(%rbp)
    baa5:	8b 85 10 eb ff ff    	mov    -0x14f0(%rbp),%eax
    baab:	83 f8 07             	cmp    $0x7,%eax
    baae:	0f 86 23 fe ff ff    	jbe    b8d7 <func_25+0x2a10>
    bab4:	eb 01                	jmp    bab7 <func_25+0x2bf0>
    bab6:	90                   	nop
    bab7:	66 c7 05 8c ba 00 00 	movw   $0x0,0xba8c(%rip)        # 1754c <g_1043>
    babe:	00 00 
    bac0:	e9 a1 00 00 00       	jmpq   bb66 <func_25+0x2c9f>
    bac5:	0f b7 05 80 ba 00 00 	movzwl 0xba80(%rip),%eax        # 1754c <g_1043>
    bacc:	98                   	cwtl   
    bacd:	8d 48 02             	lea    0x2(%rax),%ecx
    bad0:	48 8b 85 e0 ec ff ff 	mov    -0x1320(%rbp),%rax
    bad7:	48 8b 00             	mov    (%rax),%rax
    bada:	48 8b 00             	mov    (%rax),%rax
    badd:	48 8d 95 e0 ee ff ff 	lea    -0x1120(%rbp),%rdx
    bae4:	48 63 c9             	movslq %ecx,%rcx
    bae7:	48 c1 e1 02          	shl    $0x2,%rcx
    baeb:	48 01 ca             	add    %rcx,%rdx
    baee:	48 89 10             	mov    %rdx,(%rax)
    baf1:	0f b7 05 54 ba 00 00 	movzwl 0xba54(%rip),%eax        # 1754c <g_1043>
    baf8:	98                   	cwtl   
    baf9:	83 c0 03             	add    $0x3,%eax
    bafc:	48 98                	cltq   
    bafe:	48 8d 14 c5 00 00 00 	lea    0x0(,%rax,8),%rdx
    bb05:	00 
    bb06:	48 8d 05 b3 ba 00 00 	lea    0xbab3(%rip),%rax        # 175c0 <g_2355>
    bb0d:	48 8b 04 02          	mov    (%rdx,%rax,1),%rax
    bb11:	89 c1                	mov    %eax,%ecx
    bb13:	0f b7 05 32 ba 00 00 	movzwl 0xba32(%rip),%eax        # 1754c <g_1043>
    bb1a:	98                   	cwtl   
    bb1b:	83 c0 04             	add    $0x4,%eax
    bb1e:	48 98                	cltq   
    bb20:	48 8d 14 c5 00 00 00 	lea    0x0(,%rax,8),%rdx
    bb27:	00 
    bb28:	48 8d 05 91 ba 00 00 	lea    0xba91(%rip),%rax        # 175c0 <g_2355>
    bb2f:	48 8b 04 02          	mov    (%rdx,%rax,1),%rax
    bb33:	09 c8                	or     %ecx,%eax
    bb35:	0f be c0             	movsbl %al,%eax
    bb38:	be 01 00 00 00       	mov    $0x1,%esi
    bb3d:	89 c7                	mov    %eax,%edi
    bb3f:	e8 5d a7 ff ff       	callq  62a1 <safe_lshift_func_int8_t_s_s>
    bb44:	8b 95 0c f2 ff ff    	mov    -0xdf4(%rbp),%edx
    bb4a:	0f be c0             	movsbl %al,%eax
    bb4d:	09 d0                	or     %edx,%eax
    bb4f:	89 85 0c f2 ff ff    	mov    %eax,-0xdf4(%rbp)
    bb55:	0f b7 05 f0 b9 00 00 	movzwl 0xb9f0(%rip),%eax        # 1754c <g_1043>
    bb5c:	83 c0 01             	add    $0x1,%eax
    bb5f:	66 89 05 e6 b9 00 00 	mov    %ax,0xb9e6(%rip)        # 1754c <g_1043>
    bb66:	0f b7 05 df b9 00 00 	movzwl 0xb9df(%rip),%eax        # 1754c <g_1043>
    bb6d:	66 83 f8 02          	cmp    $0x2,%ax
    bb71:	0f 8e 4e ff ff ff    	jle    bac5 <func_25+0x2bfe>
    bb77:	48 83 85 40 ec ff ff 	addq   $0x1,-0x13c0(%rbp)
    bb7e:	01 
    bb7f:	48 83 bd 40 ec ff ff 	cmpq   $0x15,-0x13c0(%rbp)
    bb86:	15 
    bb87:	0f 8f e1 fc ff ff    	jg     b86e <func_25+0x29a7>
    bb8d:	48 8b 05 bc d7 00 00 	mov    0xd7bc(%rip),%rax        # 19350 <g_1897>
    bb94:	48 8b 00             	mov    (%rax),%rax
    bb97:	0f b6 00             	movzbl (%rax),%eax
    bb9a:	8b 05 0c ba 00 00    	mov    0xba0c(%rip),%eax        # 175ac <g_2031>
    bba0:	be 00 00 00 00       	mov    $0x0,%esi
    bba5:	bf 00 00 00 00       	mov    $0x0,%edi
    bbaa:	e8 63 a6 ff ff       	callq  6212 <safe_mul_func_int8_t_s_s>
    bbaf:	8b 05 2b b5 00 00    	mov    0xb52b(%rip),%eax        # 170e0 <g_83>
    bbb5:	83 f0 01             	xor    $0x1,%eax
    bbb8:	89 c2                	mov    %eax,%edx
    bbba:	48 8b 85 10 ec ff ff 	mov    -0x13f0(%rbp),%rax
    bbc1:	48 85 c0             	test   %rax,%rax
    bbc4:	0f 95 c0             	setne  %al
    bbc7:	0f b6 c0             	movzbl %al,%eax
    bbca:	39 c2                	cmp    %eax,%edx
    bbcc:	0f 95 c0             	setne  %al
    bbcf:	0f b6 d0             	movzbl %al,%edx
    bbd2:	48 8b 85 68 ec ff ff 	mov    -0x1398(%rbp),%rax
    bbd9:	48 3b 85 40 ed ff ff 	cmp    -0x12c0(%rbp),%rax
    bbe0:	0f 95 c0             	setne  %al
    bbe3:	0f b6 c0             	movzbl %al,%eax
    bbe6:	89 d6                	mov    %edx,%esi
    bbe8:	89 c7                	mov    %eax,%edi
    bbea:	e8 23 a6 ff ff       	callq  6212 <safe_mul_func_int8_t_s_s>
    bbef:	0f be c0             	movsbl %al,%eax
    bbf2:	be 00 00 00 00       	mov    $0x0,%esi
    bbf7:	89 c7                	mov    %eax,%edi
    bbf9:	e8 2c a9 ff ff       	callq  652a <safe_rshift_func_int16_t_s_s>
    bbfe:	0f b7 95 d4 ea ff ff 	movzwl -0x152c(%rbp),%edx
    bc05:	66 39 d0             	cmp    %dx,%ax
    bc08:	0f 9c c0             	setl   %al
    bc0b:	0f b6 c0             	movzbl %al,%eax
    bc0e:	89 85 90 f1 ff ff    	mov    %eax,-0xe70(%rbp)
    bc14:	eb 01                	jmp    bc17 <func_25+0x2d50>
    bc16:	90                   	nop
    bc17:	8b 05 c7 b4 00 00    	mov    0xb4c7(%rip),%eax        # 170e4 <g_90>
    bc1d:	be 09 00 00 00       	mov    $0x9,%esi
    bc22:	89 c7                	mov    %eax,%edi
    bc24:	e8 dc a9 ff ff       	callq  6605 <safe_sub_func_int32_t_s_s>
    bc29:	89 05 b5 b4 00 00    	mov    %eax,0xb4b5(%rip)        # 170e4 <g_90>
    bc2f:	8b 05 af b4 00 00    	mov    0xb4af(%rip),%eax        # 170e4 <g_90>
    bc35:	83 f8 03             	cmp    $0x3,%eax
    bc38:	0f 8e 3a ee ff ff    	jle    aa78 <func_25+0x1bb1>
    bc3e:	c6 85 ef ea ff ff 00 	movb   $0x0,-0x1511(%rbp)
    bc45:	e9 bf 06 00 00       	jmpq   c309 <func_25+0x3442>
    bc4a:	c7 85 f0 f5 ff ff 01 	movl   $0x794bd401,-0xa10(%rbp)
    bc51:	d4 4b 79 
    bc54:	c7 85 f4 f5 ff ff c7 	movl   $0xc3fcaec7,-0xa0c(%rbp)
    bc5b:	ae fc c3 
    bc5e:	c7 85 f8 f5 ff ff c7 	movl   $0xc3fcaec7,-0xa08(%rbp)
    bc65:	ae fc c3 
    bc68:	c7 85 fc f5 ff ff 01 	movl   $0x794bd401,-0xa04(%rbp)
    bc6f:	d4 4b 79 
    bc72:	c7 85 00 f6 ff ff c7 	movl   $0xc3fcaec7,-0xa00(%rbp)
    bc79:	ae fc c3 
    bc7c:	c7 85 04 f6 ff ff 01 	movl   $0x794bd401,-0x9fc(%rbp)
    bc83:	d4 4b 79 
    bc86:	c7 85 08 f6 ff ff c7 	movl   $0xc3fcaec7,-0x9f8(%rbp)
    bc8d:	ae fc c3 
    bc90:	c7 85 0c f6 ff ff c7 	movl   $0xc3fcaec7,-0x9f4(%rbp)
    bc97:	ae fc c3 
    bc9a:	c7 85 10 f6 ff ff 01 	movl   $0x794bd401,-0x9f0(%rbp)
    bca1:	d4 4b 79 
    bca4:	c7 85 14 f6 ff ff 01 	movl   $0x794bd401,-0x9ec(%rbp)
    bcab:	d4 4b 79 
    bcae:	c7 85 18 f6 ff ff af 	movl   $0xb511b0af,-0x9e8(%rbp)
    bcb5:	b0 11 b5 
    bcb8:	c7 85 1c f6 ff ff 01 	movl   $0x794bd401,-0x9e4(%rbp)
    bcbf:	d4 4b 79 
    bcc2:	c7 85 20 f6 ff ff 01 	movl   $0x794bd401,-0x9e0(%rbp)
    bcc9:	d4 4b 79 
    bccc:	c7 85 24 f6 ff ff c7 	movl   $0xc3fcaec7,-0x9dc(%rbp)
    bcd3:	ae fc c3 
    bcd6:	c7 85 28 f6 ff ff c7 	movl   $0xc3fcaec7,-0x9d8(%rbp)
    bcdd:	ae fc c3 
    bce0:	c7 85 2c f6 ff ff 01 	movl   $0x794bd401,-0x9d4(%rbp)
    bce7:	d4 4b 79 
    bcea:	c7 85 30 f6 ff ff c7 	movl   $0xc3fcaec7,-0x9d0(%rbp)
    bcf1:	ae fc c3 
    bcf4:	c7 85 34 f6 ff ff 01 	movl   $0x794bd401,-0x9cc(%rbp)
    bcfb:	d4 4b 79 
    bcfe:	c7 85 38 f6 ff ff c7 	movl   $0xc3fcaec7,-0x9c8(%rbp)
    bd05:	ae fc c3 
    bd08:	c7 85 3c f6 ff ff c7 	movl   $0xc3fcaec7,-0x9c4(%rbp)
    bd0f:	ae fc c3 
    bd12:	c7 85 40 f6 ff ff 01 	movl   $0x794bd401,-0x9c0(%rbp)
    bd19:	d4 4b 79 
    bd1c:	c7 85 44 f6 ff ff 01 	movl   $0x794bd401,-0x9bc(%rbp)
    bd23:	d4 4b 79 
    bd26:	c7 85 48 f6 ff ff af 	movl   $0xb511b0af,-0x9b8(%rbp)
    bd2d:	b0 11 b5 
    bd30:	c7 85 4c f6 ff ff 01 	movl   $0x794bd401,-0x9b4(%rbp)
    bd37:	d4 4b 79 
    bd3a:	c7 85 50 f6 ff ff 01 	movl   $0x794bd401,-0x9b0(%rbp)
    bd41:	d4 4b 79 
    bd44:	c7 85 54 f6 ff ff c7 	movl   $0xc3fcaec7,-0x9ac(%rbp)
    bd4b:	ae fc c3 
    bd4e:	c7 85 58 f6 ff ff c7 	movl   $0xc3fcaec7,-0x9a8(%rbp)
    bd55:	ae fc c3 
    bd58:	c7 85 5c f6 ff ff 01 	movl   $0x794bd401,-0x9a4(%rbp)
    bd5f:	d4 4b 79 
    bd62:	c7 85 60 f6 ff ff c7 	movl   $0xc3fcaec7,-0x9a0(%rbp)
    bd69:	ae fc c3 
    bd6c:	c7 85 64 f6 ff ff 01 	movl   $0x794bd401,-0x99c(%rbp)
    bd73:	d4 4b 79 
    bd76:	c7 85 68 f6 ff ff c7 	movl   $0xc3fcaec7,-0x998(%rbp)
    bd7d:	ae fc c3 
    bd80:	c7 85 6c f6 ff ff c7 	movl   $0xc3fcaec7,-0x994(%rbp)
    bd87:	ae fc c3 
    bd8a:	c7 85 70 f6 ff ff 01 	movl   $0x794bd401,-0x990(%rbp)
    bd91:	d4 4b 79 
    bd94:	c7 85 74 f6 ff ff 01 	movl   $0x794bd401,-0x98c(%rbp)
    bd9b:	d4 4b 79 
    bd9e:	c7 85 78 f6 ff ff af 	movl   $0xb511b0af,-0x988(%rbp)
    bda5:	b0 11 b5 
    bda8:	c7 85 7c f6 ff ff 01 	movl   $0x794bd401,-0x984(%rbp)
    bdaf:	d4 4b 79 
    bdb2:	c7 85 80 f6 ff ff 01 	movl   $0x794bd401,-0x980(%rbp)
    bdb9:	d4 4b 79 
    bdbc:	c7 85 84 f6 ff ff c7 	movl   $0xc3fcaec7,-0x97c(%rbp)
    bdc3:	ae fc c3 
    bdc6:	c7 85 88 f6 ff ff c7 	movl   $0xc3fcaec7,-0x978(%rbp)
    bdcd:	ae fc c3 
    bdd0:	c7 85 8c f6 ff ff 01 	movl   $0x794bd401,-0x974(%rbp)
    bdd7:	d4 4b 79 
    bdda:	c7 85 90 f6 ff ff c7 	movl   $0xc3fcaec7,-0x970(%rbp)
    bde1:	ae fc c3 
    bde4:	c7 85 94 f6 ff ff 01 	movl   $0x794bd401,-0x96c(%rbp)
    bdeb:	d4 4b 79 
    bdee:	c7 85 98 f6 ff ff c7 	movl   $0xc3fcaec7,-0x968(%rbp)
    bdf5:	ae fc c3 
    bdf8:	c7 85 9c f6 ff ff c7 	movl   $0xc3fcaec7,-0x964(%rbp)
    bdff:	ae fc c3 
    be02:	c7 85 a0 f6 ff ff 01 	movl   $0x794bd401,-0x960(%rbp)
    be09:	d4 4b 79 
    be0c:	c7 85 a4 f6 ff ff 01 	movl   $0x794bd401,-0x95c(%rbp)
    be13:	d4 4b 79 
    be16:	c7 85 a8 f6 ff ff af 	movl   $0xb511b0af,-0x958(%rbp)
    be1d:	b0 11 b5 
    be20:	c7 85 ac f6 ff ff 01 	movl   $0x794bd401,-0x954(%rbp)
    be27:	d4 4b 79 
    be2a:	c7 85 b0 f6 ff ff 01 	movl   $0x794bd401,-0x950(%rbp)
    be31:	d4 4b 79 
    be34:	c7 85 b4 f6 ff ff c7 	movl   $0xc3fcaec7,-0x94c(%rbp)
    be3b:	ae fc c3 
    be3e:	c7 85 b8 f6 ff ff c7 	movl   $0xc3fcaec7,-0x948(%rbp)
    be45:	ae fc c3 
    be48:	c7 85 bc f6 ff ff 01 	movl   $0x794bd401,-0x944(%rbp)
    be4f:	d4 4b 79 
    be52:	c7 85 c0 f6 ff ff c7 	movl   $0xc3fcaec7,-0x940(%rbp)
    be59:	ae fc c3 
    be5c:	c7 85 c4 f6 ff ff 01 	movl   $0x794bd401,-0x93c(%rbp)
    be63:	d4 4b 79 
    be66:	c7 85 c8 f6 ff ff c7 	movl   $0xc3fcaec7,-0x938(%rbp)
    be6d:	ae fc c3 
    be70:	c7 85 cc f6 ff ff c7 	movl   $0xc3fcaec7,-0x934(%rbp)
    be77:	ae fc c3 
    be7a:	c7 85 d0 f6 ff ff 01 	movl   $0x794bd401,-0x930(%rbp)
    be81:	d4 4b 79 
    be84:	c7 85 d4 f6 ff ff 01 	movl   $0x794bd401,-0x92c(%rbp)
    be8b:	d4 4b 79 
    be8e:	c7 85 d8 f6 ff ff af 	movl   $0xb511b0af,-0x928(%rbp)
    be95:	b0 11 b5 
    be98:	c7 85 dc f6 ff ff 01 	movl   $0x794bd401,-0x924(%rbp)
    be9f:	d4 4b 79 
    bea2:	c7 85 e0 f6 ff ff 01 	movl   $0x794bd401,-0x920(%rbp)
    bea9:	d4 4b 79 
    beac:	c7 85 e4 f6 ff ff c7 	movl   $0xc3fcaec7,-0x91c(%rbp)
    beb3:	ae fc c3 
    beb6:	c7 85 e8 f6 ff ff c7 	movl   $0xc3fcaec7,-0x918(%rbp)
    bebd:	ae fc c3 
    bec0:	c7 85 ec f6 ff ff 01 	movl   $0x794bd401,-0x914(%rbp)
    bec7:	d4 4b 79 
    beca:	48 8d 85 c0 f8 ff ff 	lea    -0x740(%rbp),%rax
    bed1:	48 8d 15 28 6c 00 00 	lea    0x6c28(%rip),%rdx        # 12b00 <g_2501+0xaa0>
    bed8:	b9 e0 00 00 00       	mov    $0xe0,%ecx
    bedd:	48 89 c7             	mov    %rax,%rdi
    bee0:	48 89 d6             	mov    %rdx,%rsi
    bee3:	f3 48 a5             	rep movsq %ds:(%rsi),%es:(%rdi)
    bee6:	c7 85 00 f2 ff ff b7 	movl   $0x50104bb7,-0xe00(%rbp)
    beed:	4b 10 50 
    bef0:	c7 85 04 f2 ff ff 62 	movl   $0xf26f0562,-0xdfc(%rbp)
    bef7:	05 6f f2 
    befa:	c7 85 08 f2 ff ff 62 	movl   $0xf26f0562,-0xdf8(%rbp)
    bf01:	05 6f f2 
    bf04:	c7 85 0c f2 ff ff fd 	movl   $0xfffffffd,-0xdf4(%rbp)
    bf0b:	ff ff ff 
    bf0e:	c7 85 10 f2 ff ff 62 	movl   $0xf26f0562,-0xdf0(%rbp)
    bf15:	05 6f f2 
    bf18:	c7 85 14 f2 ff ff 00 	movl   $0x0,-0xdec(%rbp)
    bf1f:	00 00 00 
    bf22:	c7 85 18 f2 ff ff 3f 	movl   $0x7cdd833f,-0xde8(%rbp)
    bf29:	83 dd 7c 
    bf2c:	c7 85 1c f2 ff ff b7 	movl   $0x50104bb7,-0xde4(%rbp)
    bf33:	4b 10 50 
    bf36:	c7 85 20 f2 ff ff 02 	movl   $0x2,-0xde0(%rbp)
    bf3d:	00 00 00 
    bf40:	c7 85 24 f2 ff ff fd 	movl   $0xfffffffd,-0xddc(%rbp)
    bf47:	ff ff ff 
    bf4a:	c7 85 28 f2 ff ff fd 	movl   $0xfffffffd,-0xdd8(%rbp)
    bf51:	ff ff ff 
    bf54:	c7 85 2c f2 ff ff 02 	movl   $0x2,-0xdd4(%rbp)
    bf5b:	00 00 00 
    bf5e:	c7 85 30 f2 ff ff b7 	movl   $0x50104bb7,-0xdd0(%rbp)
    bf65:	4b 10 50 
    bf68:	c7 85 34 f2 ff ff 3f 	movl   $0x7cdd833f,-0xdcc(%rbp)
    bf6f:	83 dd 7c 
    bf72:	c7 85 38 f2 ff ff 00 	movl   $0x0,-0xdc8(%rbp)
    bf79:	00 00 00 
    bf7c:	c7 85 3c f2 ff ff 62 	movl   $0xf26f0562,-0xdc4(%rbp)
    bf83:	05 6f f2 
    bf86:	c7 85 40 f2 ff ff fd 	movl   $0xfffffffd,-0xdc0(%rbp)
    bf8d:	ff ff ff 
    bf90:	c7 85 44 f2 ff ff 62 	movl   $0xf26f0562,-0xdbc(%rbp)
    bf97:	05 6f f2 
    bf9a:	8b 85 10 f6 ff ff    	mov    -0x9f0(%rbp),%eax
    bfa0:	83 c0 01             	add    $0x1,%eax
    bfa3:	89 85 10 f6 ff ff    	mov    %eax,-0x9f0(%rbp)
    bfa9:	0f b7 85 d4 ea ff ff 	movzwl -0x152c(%rbp),%eax
    bfb0:	48 0f bf d8          	movswq %ax,%rbx
    bfb4:	8b 85 10 f6 ff ff    	mov    -0x9f0(%rbp),%eax
    bfba:	89 85 c4 ea ff ff    	mov    %eax,-0x153c(%rbp)
    bfc0:	0f b7 85 d4 ea ff ff 	movzwl -0x152c(%rbp),%eax
    bfc7:	98                   	cwtl   
    bfc8:	be 06 2c e7 ec       	mov    $0xece72c06,%esi
    bfcd:	89 c7                	mov    %eax,%edi
    bfcf:	e8 29 af ff ff       	callq  6efd <safe_mod_func_uint32_t_u_u>
    bfd4:	0f b7 85 d4 ea ff ff 	movzwl -0x152c(%rbp),%eax
    bfdb:	44 0f b7 e0          	movzwl %ax,%r12d
    bfdf:	0f b7 85 d4 ea ff ff 	movzwl -0x152c(%rbp),%eax
    bfe6:	44 0f bf e8          	movswl %ax,%r13d
    bfea:	48 8b 85 78 f9 ff ff 	mov    -0x688(%rbp),%rax
    bff1:	44 0f b6 f0          	movzbl %al,%r14d
    bff5:	48 8b 05 24 b6 00 00 	mov    0xb624(%rip),%rax        # 17620 <g_2623>
    bffc:	44 0f b7 f8          	movzwl %ax,%r15d
    c000:	48 8b b5 78 f9 ff ff 	mov    -0x688(%rbp),%rsi
    c007:	48 89 b5 b8 ea ff ff 	mov    %rsi,-0x1548(%rbp)
    c00e:	48 8b 85 78 f9 ff ff 	mov    -0x688(%rbp),%rax
    c015:	89 85 c0 ea ff ff    	mov    %eax,-0x1540(%rbp)
    c01b:	8b 05 6b b5 00 00    	mov    0xb56b(%rip),%eax        # 1758c <g_1786>
    c021:	0f be f8             	movsbl %al,%edi
    c024:	89 bd d0 ea ff ff    	mov    %edi,-0x1530(%rbp)
    c02a:	48 8b 05 bf cb 00 00 	mov    0xcbbf(%rip),%rax        # 18bf0 <g_200>
    c031:	0f b7 00             	movzwl (%rax),%eax
    c034:	0f bf d0             	movswl %ax,%edx
    c037:	89 95 b4 ea ff ff    	mov    %edx,-0x154c(%rbp)
    c03d:	8b 05 61 b5 00 00    	mov    0xb561(%rip),%eax        # 175a4 <g_1919>
    c043:	44 0f be c0          	movsbl %al,%r8d
    c047:	44 89 85 b0 ea ff ff 	mov    %r8d,-0x1550(%rbp)
    c04e:	0f b7 85 d4 ea ff ff 	movzwl -0x152c(%rbp),%eax
    c055:	44 0f bf c8          	movswl %ax,%r9d
    c059:	44 89 8d ac ea ff ff 	mov    %r9d,-0x1554(%rbp)
    c060:	8b 05 3a b5 00 00    	mov    0xb53a(%rip),%eax        # 175a0 <g_1917>
    c066:	0f be c0             	movsbl %al,%eax
    c069:	be f9 ff ff ff       	mov    $0xfffffff9,%esi
    c06e:	89 c7                	mov    %eax,%edi
    c070:	e8 f5 a1 ff ff       	callq  626a <safe_div_func_int8_t_s_s>
    c075:	c0 e8 07             	shr    $0x7,%al
    c078:	0f b6 c0             	movzbl %al,%eax
    c07b:	8b b5 ac ea ff ff    	mov    -0x1554(%rbp),%esi
    c081:	89 c7                	mov    %eax,%edi
    c083:	e8 4b a3 ff ff       	callq  63d3 <safe_sub_func_int16_t_s_s>
    c088:	8b 85 98 eb ff ff    	mov    -0x1468(%rbp),%eax
    c08e:	0f b7 c0             	movzwl %ax,%eax
    c091:	be 0c 00 00 00       	mov    $0xc,%esi
    c096:	89 c7                	mov    %eax,%edi
    c098:	e8 21 ad ff ff       	callq  6dbe <safe_lshift_func_uint16_t_u_s>
    c09d:	0f be c0             	movsbl %al,%eax
    c0a0:	8b b5 b0 ea ff ff    	mov    -0x1550(%rbp),%esi
    c0a6:	89 c7                	mov    %eax,%edi
    c0a8:	e8 27 a1 ff ff       	callq  61d4 <safe_add_func_int8_t_s_s>
    c0ad:	66 0f be d0          	movsbw %al,%dx
    c0b1:	0f b7 85 d4 ea ff ff 	movzwl -0x152c(%rbp),%eax
    c0b8:	66 39 c2             	cmp    %ax,%dx
    c0bb:	0f 9d c0             	setge  %al
    c0be:	0f b6 d0             	movzbl %al,%edx
    c0c1:	48 8b 85 78 f9 ff ff 	mov    -0x688(%rbp),%rax
    c0c8:	48 39 c2             	cmp    %rax,%rdx
    c0cb:	0f 97 c0             	seta   %al
    c0ce:	0f b6 c0             	movzbl %al,%eax
    c0d1:	8b b5 b4 ea ff ff    	mov    -0x154c(%rbp),%esi
    c0d7:	89 c7                	mov    %eax,%edi
    c0d9:	e8 e0 ac ff ff       	callq  6dbe <safe_lshift_func_uint16_t_u_s>
    c0de:	8b 85 9c eb ff ff    	mov    -0x1464(%rbp),%eax
    c0e4:	83 c8 55             	or     $0x55,%eax
    c0e7:	0f be c0             	movsbl %al,%eax
    c0ea:	8b b5 d0 ea ff ff    	mov    -0x1530(%rbp),%esi
    c0f0:	89 c7                	mov    %eax,%edi
    c0f2:	e8 fb a0 ff ff       	callq  61f2 <safe_sub_func_int8_t_s_s>
    c0f7:	84 c0                	test   %al,%al
    c0f9:	0f 94 c0             	sete   %al
    c0fc:	0f b6 c0             	movzbl %al,%eax
    c0ff:	89 85 08 f2 ff ff    	mov    %eax,-0xdf8(%rbp)
    c105:	0f b7 85 d4 ea ff ff 	movzwl -0x152c(%rbp),%eax
    c10c:	0f bf f8             	movswl %ax,%edi
    c10f:	89 bd d0 ea ff ff    	mov    %edi,-0x1530(%rbp)
    c115:	0f b6 05 f3 b3 00 00 	movzbl 0xb3f3(%rip),%eax        # 1750f <g_242+0xf>
    c11c:	0f b6 d0             	movzbl %al,%edx
    c11f:	8b 05 c7 b3 00 00    	mov    0xb3c7(%rip),%eax        # 174ec <g_190>
    c125:	0f b6 c0             	movzbl %al,%eax
    c128:	89 d6                	mov    %edx,%esi
    c12a:	89 c7                	mov    %eax,%edi
    c12c:	e8 1b ab ff ff       	callq  6c4c <safe_lshift_func_uint8_t_u_u>
    c131:	0f b6 c0             	movzbl %al,%eax
    c134:	8b b5 d0 ea ff ff    	mov    -0x1530(%rbp),%esi
    c13a:	89 c7                	mov    %eax,%edi
    c13c:	e8 d5 a2 ff ff       	callq  6416 <safe_mod_func_int16_t_s_s>
    c141:	0f be c0             	movsbl %al,%eax
    c144:	8b b5 c0 ea ff ff    	mov    -0x1540(%rbp),%esi
    c14a:	89 c7                	mov    %eax,%edi
    c14c:	e8 50 a1 ff ff       	callq  62a1 <safe_lshift_func_int8_t_s_s>
    c151:	48 8b b5 b8 ea ff ff 	mov    -0x1548(%rbp),%rsi
    c158:	bf 01 00 00 00       	mov    $0x1,%edi
    c15d:	e8 1e af ff ff       	callq  7080 <safe_mod_func_uint64_t_u_u>
    c162:	0f b7 95 d4 ea ff ff 	movzwl -0x152c(%rbp),%edx
    c169:	48 0f bf d2          	movswq %dx,%rdx
    c16d:	48 39 d0             	cmp    %rdx,%rax
    c170:	0f 93 c0             	setae  %al
    c173:	0f b6 c0             	movzbl %al,%eax
    c176:	be ee 46 00 00       	mov    $0x46ee,%esi
    c17b:	89 c7                	mov    %eax,%edi
    c17d:	e8 bb ab ff ff       	callq  6d3d <safe_mul_func_uint16_t_u_u>
    c182:	0f b7 c0             	movzwl %ax,%eax
    c185:	44 89 fe             	mov    %r15d,%esi
    c188:	89 c7                	mov    %eax,%edi
    c18a:	e8 ff ab ff ff       	callq  6d8e <safe_div_func_uint16_t_u_u>
    c18f:	0f b6 c0             	movzbl %al,%eax
    c192:	44 89 f6             	mov    %r14d,%esi
    c195:	89 c7                	mov    %eax,%edi
    c197:	e8 12 aa ff ff       	callq  6bae <safe_mod_func_uint8_t_u_u>
    c19c:	0f b6 c0             	movzbl %al,%eax
    c19f:	44 89 ee             	mov    %r13d,%esi
    c1a2:	89 c7                	mov    %eax,%edi
    c1a4:	e8 15 ac ff ff       	callq  6dbe <safe_lshift_func_uint16_t_u_s>
    c1a9:	0f b7 d0             	movzwl %ax,%edx
    c1ac:	8b 85 84 f6 ff ff    	mov    -0x97c(%rbp),%eax
    c1b2:	09 c2                	or     %eax,%edx
    c1b4:	8b 05 5a b4 00 00    	mov    0xb45a(%rip),%eax        # 17614 <g_2483+0x4>
    c1ba:	39 c2                	cmp    %eax,%edx
    c1bc:	0f 94 c0             	sete   %al
    c1bf:	0f b6 c0             	movzbl %al,%eax
    c1c2:	44 89 e6             	mov    %r12d,%esi
    c1c5:	89 c7                	mov    %eax,%edi
    c1c7:	e8 90 ab ff ff       	callq  6d5c <safe_mod_func_uint16_t_u_u>
    c1cc:	0f b6 85 f1 ea ff ff 	movzbl -0x150f(%rbp),%eax
    c1d3:	48 be b5 ae 0f ed 42 	movabs $0x96ec3b42ed0faeb5,%rsi
    c1da:	3b ec 96 
    c1dd:	48 89 c7             	mov    %rax,%rdi
    c1e0:	e8 5c a6 ff ff       	callq  6841 <safe_add_func_int64_t_s_s>
    c1e5:	0f be c0             	movsbl %al,%eax
    c1e8:	89 c7                	mov    %eax,%edi
    c1ea:	e8 d0 9f ff ff       	callq  61bf <safe_unary_minus_func_int8_t_s>
    c1ef:	48 8b 05 82 d2 00 00 	mov    0xd282(%rip),%rax        # 19478 <g_2490>
    c1f6:	48 8b 00             	mov    (%rax),%rax
    c1f9:	48 8b 00             	mov    (%rax),%rax
    c1fc:	0f b7 00             	movzwl (%rax),%eax
    c1ff:	0f b7 d0             	movzwl %ax,%edx
    c202:	0f b7 85 d4 ea ff ff 	movzwl -0x152c(%rbp),%eax
    c209:	0f b7 c0             	movzwl %ax,%eax
    c20c:	89 d6                	mov    %edx,%esi
    c20e:	89 c7                	mov    %eax,%edi
    c210:	e8 79 ab ff ff       	callq  6d8e <safe_div_func_uint16_t_u_u>
    c215:	44 0f bf e0          	movswl %ax,%r12d
    c219:	48 8b 85 f8 eb ff ff 	mov    -0x1408(%rbp),%rax
    c220:	48 8b 00             	mov    (%rax),%rax
    c223:	0f b7 00             	movzwl (%rax),%eax
    c226:	89 c2                	mov    %eax,%edx
    c228:	0f b7 85 d4 ea ff ff 	movzwl -0x152c(%rbp),%eax
    c22f:	31 c2                	xor    %eax,%edx
    c231:	48 8b 85 f8 eb ff ff 	mov    -0x1408(%rbp),%rax
    c238:	48 8b 00             	mov    (%rax),%rax
    c23b:	66 89 10             	mov    %dx,(%rax)
    c23e:	0f b7 00             	movzwl (%rax),%eax
    c241:	0f b7 c0             	movzwl %ax,%eax
    c244:	be 0d 00 00 00       	mov    $0xd,%esi
    c249:	89 c7                	mov    %eax,%edi
    c24b:	e8 f8 ab ff ff       	callq  6e48 <safe_rshift_func_uint16_t_u_s>
    c250:	98                   	cwtl   
    c251:	44 89 e6             	mov    %r12d,%esi
    c254:	89 c7                	mov    %eax,%edi
    c256:	e8 fa a1 ff ff       	callq  6455 <safe_div_func_int16_t_s_s>
    c25b:	48 0f bf c0          	movswq %ax,%rax
    c25f:	48 83 f8 ff          	cmp    $0xffffffffffffffff,%rax
    c263:	0f 95 c0             	setne  %al
    c266:	0f b6 d0             	movzbl %al,%edx
    c269:	0f b7 85 d4 ea ff ff 	movzwl -0x152c(%rbp),%eax
    c270:	98                   	cwtl   
    c271:	39 c2                	cmp    %eax,%edx
    c273:	0f 94 c0             	sete   %al
    c276:	0f b6 c0             	movzbl %al,%eax
    c279:	0f b6 15 a4 b2 00 00 	movzbl 0xb2a4(%rip),%edx        # 17524 <g_333+0x4>
    c280:	31 d0                	xor    %edx,%eax
    c282:	88 05 9c b2 00 00    	mov    %al,0xb29c(%rip)        # 17524 <g_333+0x4>
    c288:	0f b6 05 95 b2 00 00 	movzbl 0xb295(%rip),%eax        # 17524 <g_333+0x4>
    c28f:	84 c0                	test   %al,%al
    c291:	0f 94 c0             	sete   %al
    c294:	0f b6 d0             	movzbl %al,%edx
    c297:	8b 05 4f b2 00 00    	mov    0xb24f(%rip),%eax        # 174ec <g_190>
    c29d:	39 c2                	cmp    %eax,%edx
    c29f:	0f 92 c0             	setb   %al
    c2a2:	0f b6 d0             	movzbl %al,%edx
    c2a5:	0f b7 85 d4 ea ff ff 	movzwl -0x152c(%rbp),%eax
    c2ac:	98                   	cwtl   
    c2ad:	39 c2                	cmp    %eax,%edx
    c2af:	0f 95 c0             	setne  %al
    c2b2:	0f b6 c0             	movzbl %al,%eax
    c2b5:	89 c7                	mov    %eax,%edi
    c2b7:	e8 89 a8 ff ff       	callq  6b45 <safe_unary_minus_func_uint8_t_u>
    c2bc:	0f b6 c0             	movzbl %al,%eax
    c2bf:	39 85 c4 ea ff ff    	cmp    %eax,-0x153c(%rbp)
    c2c5:	0f 92 c0             	setb   %al
    c2c8:	0f b6 c0             	movzbl %al,%eax
    c2cb:	48 89 de             	mov    %rbx,%rsi
    c2ce:	48 89 c7             	mov    %rax,%rdi
    c2d1:	e8 6b a5 ff ff       	callq  6841 <safe_add_func_int64_t_s_s>
    c2d6:	48 8b 85 e0 ec ff ff 	mov    -0x1320(%rbp),%rax
    c2dd:	48 8b 00             	mov    (%rax),%rax
    c2e0:	48 8b 00             	mov    (%rax),%rax
    c2e3:	48 8b 95 c8 ea ff ff 	mov    -0x1538(%rbp),%rdx
    c2ea:	48 8b 12             	mov    (%rdx),%rdx
    c2ed:	48 89 10             	mov    %rdx,(%rax)
    c2f0:	0f b6 85 ef ea ff ff 	movzbl -0x1511(%rbp),%eax
    c2f7:	be 01 00 00 00       	mov    $0x1,%esi
    c2fc:	89 c7                	mov    %eax,%edi
    c2fe:	e8 b0 a0 ff ff       	callq  63b3 <safe_add_func_int16_t_s_s>
    c303:	88 85 ef ea ff ff    	mov    %al,-0x1511(%rbp)
    c309:	80 bd ef ea ff ff 27 	cmpb   $0x27,-0x1511(%rbp)
    c310:	0f 86 34 f9 ff ff    	jbe    bc4a <func_25+0x2d83>
    c316:	e9 4e 11 00 00       	jmpq   d469 <func_25+0x45a2>
    c31b:	48 8d 85 10 ec ff ff 	lea    -0x13f0(%rbp),%rax
    c322:	48 89 85 80 ec ff ff 	mov    %rax,-0x1380(%rbp)
    c329:	c7 85 90 ee ff ff 01 	movl   $0x1,-0x1170(%rbp)
    c330:	00 00 00 
    c333:	c7 85 94 ee ff ff 01 	movl   $0x1,-0x116c(%rbp)
    c33a:	00 00 00 
    c33d:	c7 85 98 ee ff ff 01 	movl   $0x1,-0x1168(%rbp)
    c344:	00 00 00 
    c347:	c7 85 9c ee ff ff 01 	movl   $0x1,-0x1164(%rbp)
    c34e:	00 00 00 
    c351:	48 8d 05 b0 cf 00 00 	lea    0xcfb0(%rip),%rax        # 19308 <g_1876+0x8>
    c358:	48 89 85 88 ec ff ff 	mov    %rax,-0x1378(%rbp)
    c35f:	c7 85 18 ec ff ff 00 	movl   $0x0,-0x13e8(%rbp)
    c366:	00 00 00 
    c369:	c7 85 58 eb ff ff 01 	movl   $0x1,-0x14a8(%rbp)
    c370:	00 00 00 
    c373:	c7 85 5c eb ff ff f7 	movl   $0xfffffff7,-0x14a4(%rbp)
    c37a:	ff ff ff 
    c37d:	48 8d 85 50 f0 ff ff 	lea    -0xfb0(%rbp),%rax
    c384:	48 89 85 20 ec ff ff 	mov    %rax,-0x13e0(%rbp)
    c38b:	48 c7 85 90 ec ff ff 	movq   $0x3,-0x1370(%rbp)
    c392:	03 00 00 00 
    c396:	c7 85 44 eb ff ff 00 	movl   $0x0,-0x14bc(%rbp)
    c39d:	00 00 00 
    c3a0:	eb 1a                	jmp    c3bc <func_25+0x34f5>
    c3a2:	8b 85 44 eb ff ff    	mov    -0x14bc(%rbp),%eax
    c3a8:	48 98                	cltq   
    c3aa:	c7 84 85 50 ee ff ff 	movl   $0x943d29f5,-0x11b0(%rbp,%rax,4)
    c3b1:	f5 29 3d 94 
    c3b5:	83 85 44 eb ff ff 01 	addl   $0x1,-0x14bc(%rbp)
    c3bc:	83 bd 44 eb ff ff 01 	cmpl   $0x1,-0x14bc(%rbp)
    c3c3:	7e dd                	jle    c3a2 <func_25+0x34db>
    c3c5:	48 8d 05 a4 d0 00 00 	lea    0xd0a4(%rip),%rax        # 19470 <g_2491>
    c3cc:	48 39 85 80 ec ff ff 	cmp    %rax,-0x1380(%rbp)
    c3d3:	0f 94 c0             	sete   %al
    c3d6:	0f b6 d8             	movzbl %al,%ebx
    c3d9:	48 8b 05 98 d0 00 00 	mov    0xd098(%rip),%rax        # 19478 <g_2490>
    c3e0:	48 8b 00             	mov    (%rax),%rax
    c3e3:	48 8b 00             	mov    (%rax),%rax
    c3e6:	0f b7 00             	movzwl (%rax),%eax
    c3e9:	0f b7 c0             	movzwl %ax,%eax
    c3ec:	89 c6                	mov    %eax,%esi
    c3ee:	bf 00 00 00 00       	mov    $0x0,%edi
    c3f3:	e8 64 a9 ff ff       	callq  6d5c <safe_mod_func_uint16_t_u_u>
    c3f8:	0f b7 c0             	movzwl %ax,%eax
    c3fb:	39 c3                	cmp    %eax,%ebx
    c3fd:	0f b7 85 d4 ea ff ff 	movzwl -0x152c(%rbp),%eax
    c404:	0f b7 d0             	movzwl %ax,%edx
    c407:	8b 85 98 ee ff ff    	mov    -0x1168(%rbp),%eax
    c40d:	85 c0                	test   %eax,%eax
    c40f:	79 16                	jns    c427 <func_25+0x3560>
    c411:	48 8b 05 d8 c7 00 00 	mov    0xc7d8(%rip),%rax        # 18bf0 <g_200>
    c418:	0f b7 00             	movzwl (%rax),%eax
    c41b:	66 85 c0             	test   %ax,%ax
    c41e:	74 07                	je     c427 <func_25+0x3560>
    c420:	b9 01 00 00 00       	mov    $0x1,%ecx
    c425:	eb 05                	jmp    c42c <func_25+0x3565>
    c427:	b9 00 00 00 00       	mov    $0x0,%ecx
    c42c:	48 8b 85 e0 eb ff ff 	mov    -0x1420(%rbp),%rax
    c433:	48 63 c9             	movslq %ecx,%rcx
    c436:	48 89 08             	mov    %rcx,(%rax)
    c439:	48 8b 08             	mov    (%rax),%rcx
    c43c:	8b 85 98 ee ff ff    	mov    -0x1168(%rbp),%eax
    c442:	48 98                	cltq   
    c444:	48 39 c1             	cmp    %rax,%rcx
    c447:	89 d6                	mov    %edx,%esi
    c449:	bf 00 00 00 00       	mov    $0x0,%edi
    c44e:	e8 cc a8 ff ff       	callq  6d1f <safe_sub_func_uint16_t_u_u>
    c453:	66 85 c0             	test   %ax,%ax
    c456:	74 11                	je     c469 <func_25+0x35a2>
    c458:	8b 85 94 ee ff ff    	mov    -0x116c(%rbp),%eax
    c45e:	85 c0                	test   %eax,%eax
    c460:	74 07                	je     c469 <func_25+0x35a2>
    c462:	b8 01 00 00 00       	mov    $0x1,%eax
    c467:	eb 05                	jmp    c46e <func_25+0x35a7>
    c469:	b8 00 00 00 00       	mov    $0x0,%eax
    c46e:	89 c2                	mov    %eax,%edx
    c470:	66 0f be 85 f2 ea ff 	movsbw -0x150e(%rbp),%ax
    c477:	ff 
    c478:	21 d0                	and    %edx,%eax
    c47a:	0f b7 d0             	movzwl %ax,%edx
    c47d:	0f b7 85 d4 ea ff ff 	movzwl -0x152c(%rbp),%eax
    c484:	0f b7 c0             	movzwl %ax,%eax
    c487:	89 d6                	mov    %edx,%esi
    c489:	89 c7                	mov    %eax,%edi
    c48b:	e8 cc a8 ff ff       	callq  6d5c <safe_mod_func_uint16_t_u_u>
    c490:	66 85 c0             	test   %ax,%ax
    c493:	75 10                	jne    c4a5 <func_25+0x35de>
    c495:	48 8b 85 c8 ea ff ff 	mov    -0x1538(%rbp),%rax
    c49c:	48 8b 00             	mov    (%rax),%rax
    c49f:	8b 00                	mov    (%rax),%eax
    c4a1:	85 c0                	test   %eax,%eax
    c4a3:	74 07                	je     c4ac <func_25+0x35e5>
    c4a5:	b8 01 00 00 00       	mov    $0x1,%eax
    c4aa:	eb 05                	jmp    c4b1 <func_25+0x35ea>
    c4ac:	b8 00 00 00 00       	mov    $0x0,%eax
    c4b1:	0f b7 c0             	movzwl %ax,%eax
    c4b4:	be f8 ff 00 00       	mov    $0xfff8,%esi
    c4b9:	89 c7                	mov    %eax,%edi
    c4bb:	e8 5f a8 ff ff       	callq  6d1f <safe_sub_func_uint16_t_u_u>
    c4c0:	0f b7 c0             	movzwl %ax,%eax
    c4c3:	25 96 3e 11 47       	and    $0x47113e96,%eax
    c4c8:	48 89 c6             	mov    %rax,%rsi
    c4cb:	48 bf cd be e6 69 67 	movabs $0x3a89f36769e6becd,%rdi
    c4d2:	f3 89 3a 
    c4d5:	e8 d5 ab ff ff       	callq  70af <safe_div_func_uint64_t_u_u>
    c4da:	0f b6 c0             	movzbl %al,%eax
    c4dd:	be 01 00 00 00       	mov    $0x1,%esi
    c4e2:	89 c7                	mov    %eax,%edi
    c4e4:	e8 8f a6 ff ff       	callq  6b78 <safe_sub_func_uint8_t_u_u>
    c4e9:	c6 05 64 b0 00 00 fd 	movb   $0xfd,0xb064(%rip)        # 17554 <g_1350>
    c4f0:	0f b6 05 5d b0 00 00 	movzbl 0xb05d(%rip),%eax        # 17554 <g_1350>
    c4f7:	0f be c0             	movsbl %al,%eax
    c4fa:	be 00 00 00 00       	mov    $0x0,%esi
    c4ff:	89 c7                	mov    %eax,%edi
    c501:	e8 2f 9e ff ff       	callq  6335 <safe_rshift_func_int8_t_s_s>
    c506:	66 98                	cbtw   
    c508:	0f b7 c0             	movzwl %ax,%eax
    c50b:	89 c7                	mov    %eax,%edi
    c50d:	e8 d7 a7 ff ff       	callq  6ce9 <safe_unary_minus_func_uint16_t_u>
    c512:	0f b7 d0             	movzwl %ax,%edx
    c515:	8b 05 0d b1 00 00    	mov    0xb10d(%rip),%eax        # 17628 <g_2644>
    c51b:	39 c2                	cmp    %eax,%edx
    c51d:	0f 94 c0             	sete   %al
    c520:	0f b6 d0             	movzbl %al,%edx
    c523:	0f b7 85 d4 ea ff ff 	movzwl -0x152c(%rbp),%eax
    c52a:	98                   	cwtl   
    c52b:	21 d0                	and    %edx,%eax
    c52d:	f7 d0                	not    %eax
    c52f:	48 98                	cltq   
    c531:	89 c2                	mov    %eax,%edx
    c533:	8b 85 18 ec ff ff    	mov    -0x13e8(%rbp),%eax
    c539:	31 d0                	xor    %edx,%eax
    c53b:	89 85 18 ec ff ff    	mov    %eax,-0x13e8(%rbp)
    c541:	66 c7 05 02 b0 00 00 	movw   $0x3,0xb002(%rip)        # 1754c <g_1043>
    c548:	03 00 
    c54a:	e9 09 0f 00 00       	jmpq   d458 <func_25+0x4591>
    c54f:	c7 85 60 eb ff ff 03 	movl   $0x3,-0x14a0(%rbp)
    c556:	00 00 00 
    c559:	c7 85 64 eb ff ff ff 	movl   $0xffffffff,-0x149c(%rbp)
    c560:	ff ff ff 
    c563:	c7 85 68 eb ff ff 93 	movl   $0xccbe0e93,-0x1498(%rbp)
    c56a:	0e be cc 
    c56d:	c7 85 6c eb ff ff ff 	movl   $0xffffffff,-0x1494(%rbp)
    c574:	ff ff ff 
    c577:	c6 85 f4 ea ff ff 04 	movb   $0x4,-0x150c(%rbp)
    c57e:	c7 85 70 eb ff ff 01 	movl   $0x1,-0x1490(%rbp)
    c585:	00 00 00 
    c588:	c7 85 b0 ee ff ff 06 	movl   $0xe7acb506,-0x1150(%rbp)
    c58f:	b5 ac e7 
    c592:	c7 85 b4 ee ff ff a0 	movl   $0x228723a0,-0x114c(%rbp)
    c599:	23 87 22 
    c59c:	c7 85 b8 ee ff ff 06 	movl   $0xe7acb506,-0x1148(%rbp)
    c5a3:	b5 ac e7 
    c5a6:	c7 85 bc ee ff ff 06 	movl   $0xe7acb506,-0x1144(%rbp)
    c5ad:	b5 ac e7 
    c5b0:	c7 85 c0 ee ff ff a0 	movl   $0x228723a0,-0x1140(%rbp)
    c5b7:	23 87 22 
    c5ba:	c7 85 c4 ee ff ff 06 	movl   $0xe7acb506,-0x113c(%rbp)
    c5c1:	b5 ac e7 
    c5c4:	c7 85 c8 ee ff ff 06 	movl   $0xe7acb506,-0x1138(%rbp)
    c5cb:	b5 ac e7 
    c5ce:	c7 85 cc ee ff ff a0 	movl   $0x228723a0,-0x1134(%rbp)
    c5d5:	23 87 22 
    c5d8:	c7 85 d0 ee ff ff 06 	movl   $0xe7acb506,-0x1130(%rbp)
    c5df:	b5 ac e7 
    c5e2:	c7 85 d4 ee ff ff 06 	movl   $0xe7acb506,-0x112c(%rbp)
    c5e9:	b5 ac e7 
    c5ec:	c7 85 48 eb ff ff 01 	movl   $0x1,-0x14b8(%rbp)
    c5f3:	00 00 00 
    c5f6:	c7 05 ec ae 00 00 00 	movl   $0x0,0xaeec(%rip)        # 174ec <g_190>
    c5fd:	00 00 00 
    c600:	e9 25 0e 00 00       	jmpq   d42a <func_25+0x4563>
    c605:	c7 85 a0 ef ff ff 00 	movl   $0x0,-0x1060(%rbp)
    c60c:	00 00 00 
    c60f:	c7 85 a4 ef ff ff 00 	movl   $0x0,-0x105c(%rbp)
    c616:	00 00 00 
    c619:	c7 85 a8 ef ff ff a4 	movl   $0xeca718a4,-0x1058(%rbp)
    c620:	18 a7 ec 
    c623:	c7 85 ac ef ff ff 00 	movl   $0x0,-0x1054(%rbp)
    c62a:	00 00 00 
    c62d:	c7 85 b0 ef ff ff 00 	movl   $0x0,-0x1050(%rbp)
    c634:	00 00 00 
    c637:	c7 85 b4 ef ff ff a4 	movl   $0xeca718a4,-0x104c(%rbp)
    c63e:	18 a7 ec 
    c641:	c7 85 b8 ef ff ff 00 	movl   $0x0,-0x1048(%rbp)
    c648:	00 00 00 
    c64b:	c7 85 bc ef ff ff 00 	movl   $0x0,-0x1044(%rbp)
    c652:	00 00 00 
    c655:	c7 85 c0 ef ff ff a4 	movl   $0xeca718a4,-0x1040(%rbp)
    c65c:	18 a7 ec 
    c65f:	c7 85 c4 ef ff ff 00 	movl   $0x0,-0x103c(%rbp)
    c666:	00 00 00 
    c669:	c7 85 c8 ef ff ff 00 	movl   $0x0,-0x1038(%rbp)
    c670:	00 00 00 
    c673:	c7 85 cc ef ff ff a4 	movl   $0xeca718a4,-0x1034(%rbp)
    c67a:	18 a7 ec 
    c67d:	48 8d 05 5c aa 00 00 	lea    0xaa5c(%rip),%rax        # 170e0 <g_83>
    c684:	48 89 85 28 ec ff ff 	mov    %rax,-0x13d8(%rbp)
    c68b:	48 8d 05 5e d2 00 00 	lea    0xd25e(%rip),%rax        # 198f0 <g_34>
    c692:	48 89 85 c0 f8 ff ff 	mov    %rax,-0x740(%rbp)
    c699:	48 8d 05 78 c5 00 00 	lea    0xc578(%rip),%rax        # 18c18 <g_561>
    c6a0:	48 89 85 c8 f8 ff ff 	mov    %rax,-0x738(%rbp)
    c6a7:	48 8d 85 20 ec ff ff 	lea    -0x13e0(%rbp),%rax
    c6ae:	48 89 85 d0 f8 ff ff 	mov    %rax,-0x730(%rbp)
    c6b5:	48 c7 85 d8 f8 ff ff 	movq   $0x0,-0x728(%rbp)
    c6bc:	00 00 00 00 
    c6c0:	48 8d 85 28 ec ff ff 	lea    -0x13d8(%rbp),%rax
    c6c7:	48 89 85 e0 f8 ff ff 	mov    %rax,-0x720(%rbp)
    c6ce:	48 8d 05 1b d2 00 00 	lea    0xd21b(%rip),%rax        # 198f0 <g_34>
    c6d5:	48 89 85 e8 f8 ff ff 	mov    %rax,-0x718(%rbp)
    c6dc:	48 8d 85 28 ec ff ff 	lea    -0x13d8(%rbp),%rax
    c6e3:	48 89 85 f0 f8 ff ff 	mov    %rax,-0x710(%rbp)
    c6ea:	48 8d 85 28 ec ff ff 	lea    -0x13d8(%rbp),%rax
    c6f1:	48 89 85 f8 f8 ff ff 	mov    %rax,-0x708(%rbp)
    c6f8:	48 8d 05 f1 d1 00 00 	lea    0xd1f1(%rip),%rax        # 198f0 <g_34>
    c6ff:	48 89 85 00 f9 ff ff 	mov    %rax,-0x700(%rbp)
    c706:	48 8d 05 e3 d1 00 00 	lea    0xd1e3(%rip),%rax        # 198f0 <g_34>
    c70d:	48 89 85 08 f9 ff ff 	mov    %rax,-0x6f8(%rbp)
    c714:	48 8d 85 20 ec ff ff 	lea    -0x13e0(%rbp),%rax
    c71b:	48 89 85 10 f9 ff ff 	mov    %rax,-0x6f0(%rbp)
    c722:	48 c7 85 18 f9 ff ff 	movq   $0x0,-0x6e8(%rbp)
    c729:	00 00 00 00 
    c72d:	48 8d 85 20 ec ff ff 	lea    -0x13e0(%rbp),%rax
    c734:	48 89 85 20 f9 ff ff 	mov    %rax,-0x6e0(%rbp)
    c73b:	48 8d 05 ae d1 00 00 	lea    0xd1ae(%rip),%rax        # 198f0 <g_34>
    c742:	48 89 85 28 f9 ff ff 	mov    %rax,-0x6d8(%rbp)
    c749:	48 c7 85 30 f9 ff ff 	movq   $0x0,-0x6d0(%rbp)
    c750:	00 00 00 00 
    c754:	48 8d 05 95 d1 00 00 	lea    0xd195(%rip),%rax        # 198f0 <g_34>
    c75b:	48 89 85 38 f9 ff ff 	mov    %rax,-0x6c8(%rbp)
    c762:	48 8d 85 28 ec ff ff 	lea    -0x13d8(%rbp),%rax
    c769:	48 89 85 40 f9 ff ff 	mov    %rax,-0x6c0(%rbp)
    c770:	48 8d 05 c9 d1 00 00 	lea    0xd1c9(%rip),%rax        # 19940 <g_258>
    c777:	48 89 85 48 f9 ff ff 	mov    %rax,-0x6b8(%rbp)
    c77e:	48 8d 85 28 ec ff ff 	lea    -0x13d8(%rbp),%rax
    c785:	48 89 85 50 f9 ff ff 	mov    %rax,-0x6b0(%rbp)
    c78c:	48 8d 85 28 ec ff ff 	lea    -0x13d8(%rbp),%rax
    c793:	48 89 85 58 f9 ff ff 	mov    %rax,-0x6a8(%rbp)
    c79a:	48 c7 85 60 f9 ff ff 	movq   $0x0,-0x6a0(%rbp)
    c7a1:	00 00 00 00 
    c7a5:	48 8d 05 6c c4 00 00 	lea    0xc46c(%rip),%rax        # 18c18 <g_561>
    c7ac:	48 89 85 68 f9 ff ff 	mov    %rax,-0x698(%rbp)
    c7b3:	48 c7 85 70 f9 ff ff 	movq   $0x0,-0x690(%rbp)
    c7ba:	00 00 00 00 
    c7be:	48 8d 05 2b d1 00 00 	lea    0xd12b(%rip),%rax        # 198f0 <g_34>
    c7c5:	48 89 85 78 f9 ff ff 	mov    %rax,-0x688(%rbp)
    c7cc:	48 8d 85 20 ec ff ff 	lea    -0x13e0(%rbp),%rax
    c7d3:	48 89 85 80 f9 ff ff 	mov    %rax,-0x680(%rbp)
    c7da:	48 8d 85 28 ec ff ff 	lea    -0x13d8(%rbp),%rax
    c7e1:	48 89 85 88 f9 ff ff 	mov    %rax,-0x678(%rbp)
    c7e8:	48 8d 05 01 d1 00 00 	lea    0xd101(%rip),%rax        # 198f0 <g_34>
    c7ef:	48 89 85 90 f9 ff ff 	mov    %rax,-0x670(%rbp)
    c7f6:	48 8d 85 28 ec ff ff 	lea    -0x13d8(%rbp),%rax
    c7fd:	48 89 85 98 f9 ff ff 	mov    %rax,-0x668(%rbp)
    c804:	48 8d 05 e5 d0 00 00 	lea    0xd0e5(%rip),%rax        # 198f0 <g_34>
    c80b:	48 89 85 a0 f9 ff ff 	mov    %rax,-0x660(%rbp)
    c812:	48 8d 85 28 ec ff ff 	lea    -0x13d8(%rbp),%rax
    c819:	48 89 85 a8 f9 ff ff 	mov    %rax,-0x658(%rbp)
    c820:	48 c7 85 b0 f9 ff ff 	movq   $0x0,-0x650(%rbp)
    c827:	00 00 00 00 
    c82b:	48 8d 05 be d0 00 00 	lea    0xd0be(%rip),%rax        # 198f0 <g_34>
    c832:	48 89 85 b8 f9 ff ff 	mov    %rax,-0x648(%rbp)
    c839:	48 8d 05 b0 d0 00 00 	lea    0xd0b0(%rip),%rax        # 198f0 <g_34>
    c840:	48 89 85 c0 f9 ff ff 	mov    %rax,-0x640(%rbp)
    c847:	48 c7 85 c8 f9 ff ff 	movq   $0x0,-0x638(%rbp)
    c84e:	00 00 00 00 
    c852:	48 8d 05 97 d0 00 00 	lea    0xd097(%rip),%rax        # 198f0 <g_34>
    c859:	48 89 85 d0 f9 ff ff 	mov    %rax,-0x630(%rbp)
    c860:	48 8d 05 89 d0 00 00 	lea    0xd089(%rip),%rax        # 198f0 <g_34>
    c867:	48 89 85 d8 f9 ff ff 	mov    %rax,-0x628(%rbp)
    c86e:	48 8d 05 7b d0 00 00 	lea    0xd07b(%rip),%rax        # 198f0 <g_34>
    c875:	48 89 85 e0 f9 ff ff 	mov    %rax,-0x620(%rbp)
    c87c:	48 8d 85 28 ec ff ff 	lea    -0x13d8(%rbp),%rax
    c883:	48 89 85 e8 f9 ff ff 	mov    %rax,-0x618(%rbp)
    c88a:	48 8d 85 28 ec ff ff 	lea    -0x13d8(%rbp),%rax
    c891:	48 89 85 f0 f9 ff ff 	mov    %rax,-0x610(%rbp)
    c898:	48 8d 85 20 ec ff ff 	lea    -0x13e0(%rbp),%rax
    c89f:	48 89 85 f8 f9 ff ff 	mov    %rax,-0x608(%rbp)
    c8a6:	48 8d 85 20 ec ff ff 	lea    -0x13e0(%rbp),%rax
    c8ad:	48 89 85 00 fa ff ff 	mov    %rax,-0x600(%rbp)
    c8b4:	48 c7 85 08 fa ff ff 	movq   $0x0,-0x5f8(%rbp)
    c8bb:	00 00 00 00 
    c8bf:	48 c7 85 10 fa ff ff 	movq   $0x0,-0x5f0(%rbp)
    c8c6:	00 00 00 00 
    c8ca:	48 8d 05 1f d0 00 00 	lea    0xd01f(%rip),%rax        # 198f0 <g_34>
    c8d1:	48 89 85 18 fa ff ff 	mov    %rax,-0x5e8(%rbp)
    c8d8:	48 8d 05 11 d0 00 00 	lea    0xd011(%rip),%rax        # 198f0 <g_34>
    c8df:	48 89 85 20 fa ff ff 	mov    %rax,-0x5e0(%rbp)
    c8e6:	48 8d 05 03 d0 00 00 	lea    0xd003(%rip),%rax        # 198f0 <g_34>
    c8ed:	48 89 85 28 fa ff ff 	mov    %rax,-0x5d8(%rbp)
    c8f4:	48 8d 85 28 ec ff ff 	lea    -0x13d8(%rbp),%rax
    c8fb:	48 89 85 30 fa ff ff 	mov    %rax,-0x5d0(%rbp)
    c902:	48 8d 05 37 d0 00 00 	lea    0xd037(%rip),%rax        # 19940 <g_258>
    c909:	48 89 85 38 fa ff ff 	mov    %rax,-0x5c8(%rbp)
    c910:	48 8d 05 29 d0 00 00 	lea    0xd029(%rip),%rax        # 19940 <g_258>
    c917:	48 89 85 40 fa ff ff 	mov    %rax,-0x5c0(%rbp)
    c91e:	48 8d 85 28 ec ff ff 	lea    -0x13d8(%rbp),%rax
    c925:	48 89 85 48 fa ff ff 	mov    %rax,-0x5b8(%rbp)
    c92c:	48 8d 05 bd cf 00 00 	lea    0xcfbd(%rip),%rax        # 198f0 <g_34>
    c933:	48 89 85 50 fa ff ff 	mov    %rax,-0x5b0(%rbp)
    c93a:	48 c7 85 58 fa ff ff 	movq   $0x0,-0x5a8(%rbp)
    c941:	00 00 00 00 
    c945:	48 8d 85 20 ec ff ff 	lea    -0x13e0(%rbp),%rax
    c94c:	48 89 85 60 fa ff ff 	mov    %rax,-0x5a0(%rbp)
    c953:	48 c7 85 68 fa ff ff 	movq   $0x0,-0x598(%rbp)
    c95a:	00 00 00 00 
    c95e:	48 8d 85 20 ec ff ff 	lea    -0x13e0(%rbp),%rax
    c965:	48 89 85 70 fa ff ff 	mov    %rax,-0x590(%rbp)
    c96c:	48 8d 85 28 ec ff ff 	lea    -0x13d8(%rbp),%rax
    c973:	48 89 85 78 fa ff ff 	mov    %rax,-0x588(%rbp)
    c97a:	48 8d 05 6f cf 00 00 	lea    0xcf6f(%rip),%rax        # 198f0 <g_34>
    c981:	48 89 85 80 fa ff ff 	mov    %rax,-0x580(%rbp)
    c988:	48 8d 85 28 ec ff ff 	lea    -0x13d8(%rbp),%rax
    c98f:	48 89 85 88 fa ff ff 	mov    %rax,-0x578(%rbp)
    c996:	48 8d 05 a3 cf 00 00 	lea    0xcfa3(%rip),%rax        # 19940 <g_258>
    c99d:	48 89 85 90 fa ff ff 	mov    %rax,-0x570(%rbp)
    c9a4:	48 8d 85 28 ec ff ff 	lea    -0x13d8(%rbp),%rax
    c9ab:	48 89 85 98 fa ff ff 	mov    %rax,-0x568(%rbp)
    c9b2:	48 c7 85 a0 fa ff ff 	movq   $0x0,-0x560(%rbp)
    c9b9:	00 00 00 00 
    c9bd:	48 8d 05 2c cf 00 00 	lea    0xcf2c(%rip),%rax        # 198f0 <g_34>
    c9c4:	48 89 85 a8 fa ff ff 	mov    %rax,-0x558(%rbp)
    c9cb:	48 8d 85 20 ec ff ff 	lea    -0x13e0(%rbp),%rax
    c9d2:	48 89 85 b0 fa ff ff 	mov    %rax,-0x550(%rbp)
    c9d9:	48 8d 05 10 cf 00 00 	lea    0xcf10(%rip),%rax        # 198f0 <g_34>
    c9e0:	48 89 85 b8 fa ff ff 	mov    %rax,-0x548(%rbp)
    c9e7:	48 c7 85 c0 fa ff ff 	movq   $0x0,-0x540(%rbp)
    c9ee:	00 00 00 00 
    c9f2:	48 8d 85 28 ec ff ff 	lea    -0x13d8(%rbp),%rax
    c9f9:	48 89 85 c8 fa ff ff 	mov    %rax,-0x538(%rbp)
    ca00:	48 8d 05 e9 ce 00 00 	lea    0xcee9(%rip),%rax        # 198f0 <g_34>
    ca07:	48 89 85 d0 fa ff ff 	mov    %rax,-0x530(%rbp)
    ca0e:	48 8d 05 db ce 00 00 	lea    0xcedb(%rip),%rax        # 198f0 <g_34>
    ca15:	48 89 85 d8 fa ff ff 	mov    %rax,-0x528(%rbp)
    ca1c:	48 8d 85 28 ec ff ff 	lea    -0x13d8(%rbp),%rax
    ca23:	48 89 85 e0 fa ff ff 	mov    %rax,-0x520(%rbp)
    ca2a:	48 8d 05 bf ce 00 00 	lea    0xcebf(%rip),%rax        # 198f0 <g_34>
    ca31:	48 89 85 e8 fa ff ff 	mov    %rax,-0x518(%rbp)
    ca38:	48 8d 05 b1 ce 00 00 	lea    0xceb1(%rip),%rax        # 198f0 <g_34>
    ca3f:	48 89 85 f0 fa ff ff 	mov    %rax,-0x510(%rbp)
    ca46:	48 8d 05 cb c1 00 00 	lea    0xc1cb(%rip),%rax        # 18c18 <g_561>
    ca4d:	48 89 85 f8 fa ff ff 	mov    %rax,-0x508(%rbp)
    ca54:	48 8d 85 20 ec ff ff 	lea    -0x13e0(%rbp),%rax
    ca5b:	48 89 85 00 fb ff ff 	mov    %rax,-0x500(%rbp)
    ca62:	48 c7 85 08 fb ff ff 	movq   $0x0,-0x4f8(%rbp)
    ca69:	00 00 00 00 
    ca6d:	48 8d 85 28 ec ff ff 	lea    -0x13d8(%rbp),%rax
    ca74:	48 89 85 10 fb ff ff 	mov    %rax,-0x4f0(%rbp)
    ca7b:	48 8d 05 6e ce 00 00 	lea    0xce6e(%rip),%rax        # 198f0 <g_34>
    ca82:	48 89 85 18 fb ff ff 	mov    %rax,-0x4e8(%rbp)
    ca89:	48 8d 85 28 ec ff ff 	lea    -0x13d8(%rbp),%rax
    ca90:	48 89 85 20 fb ff ff 	mov    %rax,-0x4e0(%rbp)
    ca97:	48 8d 85 28 ec ff ff 	lea    -0x13d8(%rbp),%rax
    ca9e:	48 89 85 28 fb ff ff 	mov    %rax,-0x4d8(%rbp)
    caa5:	48 8d 05 44 ce 00 00 	lea    0xce44(%rip),%rax        # 198f0 <g_34>
    caac:	48 89 85 30 fb ff ff 	mov    %rax,-0x4d0(%rbp)
    cab3:	48 8d 05 36 ce 00 00 	lea    0xce36(%rip),%rax        # 198f0 <g_34>
    caba:	48 89 85 38 fb ff ff 	mov    %rax,-0x4c8(%rbp)
    cac1:	48 8d 85 20 ec ff ff 	lea    -0x13e0(%rbp),%rax
    cac8:	48 89 85 40 fb ff ff 	mov    %rax,-0x4c0(%rbp)
    cacf:	48 c7 85 48 fb ff ff 	movq   $0x0,-0x4b8(%rbp)
    cad6:	00 00 00 00 
    cada:	48 8d 85 20 ec ff ff 	lea    -0x13e0(%rbp),%rax
    cae1:	48 89 85 50 fb ff ff 	mov    %rax,-0x4b0(%rbp)
    cae8:	48 8d 05 01 ce 00 00 	lea    0xce01(%rip),%rax        # 198f0 <g_34>
    caef:	48 89 85 58 fb ff ff 	mov    %rax,-0x4a8(%rbp)
    caf6:	48 c7 85 60 fb ff ff 	movq   $0x0,-0x4a0(%rbp)
    cafd:	00 00 00 00 
    cb01:	48 8d 05 e8 cd 00 00 	lea    0xcde8(%rip),%rax        # 198f0 <g_34>
    cb08:	48 89 85 68 fb ff ff 	mov    %rax,-0x498(%rbp)
    cb0f:	48 8d 85 28 ec ff ff 	lea    -0x13d8(%rbp),%rax
    cb16:	48 89 85 70 fb ff ff 	mov    %rax,-0x490(%rbp)
    cb1d:	48 8d 05 1c ce 00 00 	lea    0xce1c(%rip),%rax        # 19940 <g_258>
    cb24:	48 89 85 78 fb ff ff 	mov    %rax,-0x488(%rbp)
    cb2b:	48 8d 85 28 ec ff ff 	lea    -0x13d8(%rbp),%rax
    cb32:	48 89 85 80 fb ff ff 	mov    %rax,-0x480(%rbp)
    cb39:	48 8d 85 28 ec ff ff 	lea    -0x13d8(%rbp),%rax
    cb40:	48 89 85 88 fb ff ff 	mov    %rax,-0x478(%rbp)
    cb47:	48 8d 85 c0 f8 ff ff 	lea    -0x740(%rbp),%rax
    cb4e:	48 05 30 01 00 00    	add    $0x130,%rax
    cb54:	48 89 85 30 f1 ff ff 	mov    %rax,-0xed0(%rbp)
    cb5b:	48 8d 85 c0 f8 ff ff 	lea    -0x740(%rbp),%rax
    cb62:	48 05 30 01 00 00    	add    $0x130,%rax
    cb68:	48 89 85 38 f1 ff ff 	mov    %rax,-0xec8(%rbp)
    cb6f:	48 8d 85 c0 f8 ff ff 	lea    -0x740(%rbp),%rax
    cb76:	48 05 d0 01 00 00    	add    $0x1d0,%rax
    cb7c:	48 89 85 40 f1 ff ff 	mov    %rax,-0xec0(%rbp)
    cb83:	48 8d 85 c0 f8 ff ff 	lea    -0x740(%rbp),%rax
    cb8a:	48 05 30 01 00 00    	add    $0x130,%rax
    cb90:	48 89 85 48 f1 ff ff 	mov    %rax,-0xeb8(%rbp)
    cb97:	48 8d 85 c0 f8 ff ff 	lea    -0x740(%rbp),%rax
    cb9e:	48 05 30 01 00 00    	add    $0x130,%rax
    cba4:	48 89 85 50 f1 ff ff 	mov    %rax,-0xeb0(%rbp)
    cbab:	48 8d 85 c0 f8 ff ff 	lea    -0x740(%rbp),%rax
    cbb2:	48 05 d0 01 00 00    	add    $0x1d0,%rax
    cbb8:	48 89 85 58 f1 ff ff 	mov    %rax,-0xea8(%rbp)
    cbbf:	48 8d 85 c0 f8 ff ff 	lea    -0x740(%rbp),%rax
    cbc6:	48 05 30 01 00 00    	add    $0x130,%rax
    cbcc:	48 89 85 60 f1 ff ff 	mov    %rax,-0xea0(%rbp)
    cbd3:	48 8d 85 30 f1 ff ff 	lea    -0xed0(%rbp),%rax
    cbda:	48 83 c0 28          	add    $0x28,%rax
    cbde:	48 89 85 00 f2 ff ff 	mov    %rax,-0xe00(%rbp)
    cbe5:	48 8d 85 30 f1 ff ff 	lea    -0xed0(%rbp),%rax
    cbec:	48 83 c0 30          	add    $0x30,%rax
    cbf0:	48 89 85 08 f2 ff ff 	mov    %rax,-0xdf8(%rbp)
    cbf7:	48 8d 85 30 f1 ff ff 	lea    -0xed0(%rbp),%rax
    cbfe:	48 83 c0 28          	add    $0x28,%rax
    cc02:	48 89 85 10 f2 ff ff 	mov    %rax,-0xdf0(%rbp)
    cc09:	48 8d 85 30 f1 ff ff 	lea    -0xed0(%rbp),%rax
    cc10:	48 83 c0 10          	add    $0x10,%rax
    cc14:	48 89 85 18 f2 ff ff 	mov    %rax,-0xde8(%rbp)
    cc1b:	48 8d 85 30 f1 ff ff 	lea    -0xed0(%rbp),%rax
    cc22:	48 83 c0 28          	add    $0x28,%rax
    cc26:	48 89 85 20 f2 ff ff 	mov    %rax,-0xde0(%rbp)
    cc2d:	48 8d 85 30 f1 ff ff 	lea    -0xed0(%rbp),%rax
    cc34:	48 83 c0 28          	add    $0x28,%rax
    cc38:	48 89 85 28 f2 ff ff 	mov    %rax,-0xdd8(%rbp)
    cc3f:	48 8d 85 30 f1 ff ff 	lea    -0xed0(%rbp),%rax
    cc46:	48 83 c0 10          	add    $0x10,%rax
    cc4a:	48 89 85 30 f2 ff ff 	mov    %rax,-0xdd0(%rbp)
    cc51:	48 8d 85 30 f1 ff ff 	lea    -0xed0(%rbp),%rax
    cc58:	48 83 c0 10          	add    $0x10,%rax
    cc5c:	48 89 85 38 f2 ff ff 	mov    %rax,-0xdc8(%rbp)
    cc63:	48 8d 85 30 f1 ff ff 	lea    -0xed0(%rbp),%rax
    cc6a:	48 83 c0 30          	add    $0x30,%rax
    cc6e:	48 89 85 40 f2 ff ff 	mov    %rax,-0xdc0(%rbp)
    cc75:	48 8d 85 30 f1 ff ff 	lea    -0xed0(%rbp),%rax
    cc7c:	48 83 c0 30          	add    $0x30,%rax
    cc80:	48 89 85 48 f2 ff ff 	mov    %rax,-0xdb8(%rbp)
    cc87:	48 8d 85 30 f1 ff ff 	lea    -0xed0(%rbp),%rax
    cc8e:	48 83 c0 28          	add    $0x28,%rax
    cc92:	48 89 85 50 f2 ff ff 	mov    %rax,-0xdb0(%rbp)
    cc99:	48 8d 85 30 f1 ff ff 	lea    -0xed0(%rbp),%rax
    cca0:	48 83 c0 28          	add    $0x28,%rax
    cca4:	48 89 85 58 f2 ff ff 	mov    %rax,-0xda8(%rbp)
    ccab:	48 8d 85 30 f1 ff ff 	lea    -0xed0(%rbp),%rax
    ccb2:	48 83 c0 28          	add    $0x28,%rax
    ccb6:	48 89 85 60 f2 ff ff 	mov    %rax,-0xda0(%rbp)
    ccbd:	48 8d 85 30 f1 ff ff 	lea    -0xed0(%rbp),%rax
    ccc4:	48 83 c0 28          	add    $0x28,%rax
    ccc8:	48 89 85 68 f2 ff ff 	mov    %rax,-0xd98(%rbp)
    cccf:	48 8d 85 30 f1 ff ff 	lea    -0xed0(%rbp),%rax
    ccd6:	48 83 c0 28          	add    $0x28,%rax
    ccda:	48 89 85 70 f2 ff ff 	mov    %rax,-0xd90(%rbp)
    cce1:	48 8d 85 30 f1 ff ff 	lea    -0xed0(%rbp),%rax
    cce8:	48 83 c0 28          	add    $0x28,%rax
    ccec:	48 89 85 78 f2 ff ff 	mov    %rax,-0xd88(%rbp)
    ccf3:	48 8d 85 30 f1 ff ff 	lea    -0xed0(%rbp),%rax
    ccfa:	48 83 c0 30          	add    $0x30,%rax
    ccfe:	48 89 85 80 f2 ff ff 	mov    %rax,-0xd80(%rbp)
    cd05:	48 8d 85 30 f1 ff ff 	lea    -0xed0(%rbp),%rax
    cd0c:	48 83 c0 28          	add    $0x28,%rax
    cd10:	48 89 85 88 f2 ff ff 	mov    %rax,-0xd78(%rbp)
    cd17:	48 8d 85 30 f1 ff ff 	lea    -0xed0(%rbp),%rax
    cd1e:	48 83 c0 10          	add    $0x10,%rax
    cd22:	48 89 85 90 f2 ff ff 	mov    %rax,-0xd70(%rbp)
    cd29:	48 8d 85 30 f1 ff ff 	lea    -0xed0(%rbp),%rax
    cd30:	48 83 c0 28          	add    $0x28,%rax
    cd34:	48 89 85 98 f2 ff ff 	mov    %rax,-0xd68(%rbp)
    cd3b:	48 8d 85 30 f1 ff ff 	lea    -0xed0(%rbp),%rax
    cd42:	48 83 c0 28          	add    $0x28,%rax
    cd46:	48 89 85 a0 f2 ff ff 	mov    %rax,-0xd60(%rbp)
    cd4d:	48 8d 85 30 f1 ff ff 	lea    -0xed0(%rbp),%rax
    cd54:	48 83 c0 28          	add    $0x28,%rax
    cd58:	48 89 85 a8 f2 ff ff 	mov    %rax,-0xd58(%rbp)
    cd5f:	48 8d 85 30 f1 ff ff 	lea    -0xed0(%rbp),%rax
    cd66:	48 83 c0 28          	add    $0x28,%rax
    cd6a:	48 89 85 b0 f2 ff ff 	mov    %rax,-0xd50(%rbp)
    cd71:	48 8d 85 30 f1 ff ff 	lea    -0xed0(%rbp),%rax
    cd78:	48 83 c0 28          	add    $0x28,%rax
    cd7c:	48 89 85 b8 f2 ff ff 	mov    %rax,-0xd48(%rbp)
    cd83:	48 8d 85 30 f1 ff ff 	lea    -0xed0(%rbp),%rax
    cd8a:	48 83 c0 28          	add    $0x28,%rax
    cd8e:	48 89 85 c0 f2 ff ff 	mov    %rax,-0xd40(%rbp)
    cd95:	48 8d 85 30 f1 ff ff 	lea    -0xed0(%rbp),%rax
    cd9c:	48 83 c0 28          	add    $0x28,%rax
    cda0:	48 89 85 c8 f2 ff ff 	mov    %rax,-0xd38(%rbp)
    cda7:	48 8d 85 30 f1 ff ff 	lea    -0xed0(%rbp),%rax
    cdae:	48 83 c0 30          	add    $0x30,%rax
    cdb2:	48 89 85 d0 f2 ff ff 	mov    %rax,-0xd30(%rbp)
    cdb9:	48 8d 85 30 f1 ff ff 	lea    -0xed0(%rbp),%rax
    cdc0:	48 83 c0 28          	add    $0x28,%rax
    cdc4:	48 89 85 d8 f2 ff ff 	mov    %rax,-0xd28(%rbp)
    cdcb:	48 8d 85 00 f2 ff ff 	lea    -0xe00(%rbp),%rax
    cdd2:	48 89 85 98 ec ff ff 	mov    %rax,-0x1368(%rbp)
    cdd9:	8b 9d 58 eb ff ff    	mov    -0x14a8(%rbp),%ebx
    cddf:	0f b7 85 d4 ea ff ff 	movzwl -0x152c(%rbp),%eax
    cde6:	44 0f b6 e0          	movzbl %al,%r12d
    cdea:	44 8b ad cc ef ff ff 	mov    -0x1034(%rbp),%r13d
    cdf1:	48 8b 05 f8 bd 00 00 	mov    0xbdf8(%rip),%rax        # 18bf0 <g_200>
    cdf8:	0f b7 00             	movzwl (%rax),%eax
    cdfb:	0f b7 c0             	movzwl %ax,%eax
    cdfe:	89 c6                	mov    %eax,%esi
    ce00:	bf 8f 6b 00 00       	mov    $0x6b8f,%edi
    ce05:	e8 52 9f ff ff       	callq  6d5c <safe_mod_func_uint16_t_u_u>
    ce0a:	0f b6 d0             	movzbl %al,%edx
    ce0d:	8b 85 60 eb ff ff    	mov    -0x14a0(%rbp),%eax
    ce13:	0f b6 c0             	movzbl %al,%eax
    ce16:	89 d6                	mov    %edx,%esi
    ce18:	89 c7                	mov    %eax,%edi
    ce1a:	e8 74 9d ff ff       	callq  6b93 <safe_mul_func_uint8_t_u_u>
    ce1f:	0f b6 c0             	movzbl %al,%eax
    ce22:	be 03 00 00 00       	mov    $0x3,%esi
    ce27:	89 c7                	mov    %eax,%edi
    ce29:	e8 d7 9d ff ff       	callq  6c05 <safe_lshift_func_uint8_t_u_s>
    ce2e:	0f b6 d0             	movzbl %al,%edx
    ce31:	8b 85 60 eb ff ff    	mov    -0x14a0(%rbp),%eax
    ce37:	0f b6 c0             	movzbl %al,%eax
    ce3a:	89 d6                	mov    %edx,%esi
    ce3c:	89 c7                	mov    %eax,%edi
    ce3e:	e8 09 9e ff ff       	callq  6c4c <safe_lshift_func_uint8_t_u_u>
    ce43:	48 8b 85 c8 ea ff ff 	mov    -0x1538(%rbp),%rax
    ce4a:	48 8b 00             	mov    (%rax),%rax
    ce4d:	8b 00                	mov    (%rax),%eax
    ce4f:	39 85 60 eb ff ff    	cmp    %eax,-0x14a0(%rbp)
    ce55:	c7 85 98 ee ff ff 00 	movl   $0x0,-0x1168(%rbp)
    ce5c:	00 00 00 
    ce5f:	8b 85 98 ee ff ff    	mov    -0x1168(%rbp),%eax
    ce65:	83 f0 01             	xor    $0x1,%eax
    ce68:	89 c2                	mov    %eax,%edx
    ce6a:	8b 85 58 eb ff ff    	mov    -0x14a8(%rbp),%eax
    ce70:	89 c6                	mov    %eax,%esi
    ce72:	89 d7                	mov    %edx,%edi
    ce74:	e8 ac a0 ff ff       	callq  6f25 <safe_div_func_uint32_t_u_u>
    ce79:	44 0f bf f0          	movswl %ax,%r14d
    ce7d:	66 83 bd fc ea ff ff 	cmpw   $0x0,-0x1504(%rbp)
    ce84:	00 
    ce85:	74 41                	je     cec8 <func_25+0x4001>
    ce87:	48 8b 05 6a c3 00 00 	mov    0xc36a(%rip),%rax        # 191f8 <g_1132>
    ce8e:	0f b6 00             	movzbl (%rax),%eax
    ce91:	84 c0                	test   %al,%al
    ce93:	74 33                	je     cec8 <func_25+0x4001>
    ce95:	48 8b 05 5c c3 00 00 	mov    0xc35c(%rip),%rax        # 191f8 <g_1132>
    ce9c:	0f b6 00             	movzbl (%rax),%eax
    ce9f:	0f b6 c0             	movzbl %al,%eax
    cea2:	be 07 00 00 00       	mov    $0x7,%esi
    cea7:	89 c7                	mov    %eax,%edi
    cea9:	e8 9e 9d ff ff       	callq  6c4c <safe_lshift_func_uint8_t_u_u>
    ceae:	0f b6 c0             	movzbl %al,%eax
    ceb1:	89 c6                	mov    %eax,%esi
    ceb3:	bf 84 00 00 00       	mov    $0x84,%edi
    ceb8:	e8 1e 9d ff ff       	callq  6bdb <safe_div_func_uint8_t_u_u>
    cebd:	84 c0                	test   %al,%al
    cebf:	74 07                	je     cec8 <func_25+0x4001>
    cec1:	b8 01 00 00 00       	mov    $0x1,%eax
    cec6:	eb 05                	jmp    cecd <func_25+0x4006>
    cec8:	b8 00 00 00 00       	mov    $0x0,%eax
    cecd:	98                   	cwtl   
    cece:	44 89 f6             	mov    %r14d,%esi
    ced1:	89 c7                	mov    %eax,%edi
    ced3:	e8 7d 95 ff ff       	callq  6455 <safe_div_func_int16_t_s_s>
    ced8:	44 89 ee             	mov    %r13d,%esi
    cedb:	bf 2c 80 63 ea       	mov    $0xea63802c,%edi
    cee0:	e8 20 97 ff ff       	callq  6605 <safe_sub_func_int32_t_s_s>
    cee5:	0f b6 c0             	movzbl %al,%eax
    cee8:	44 89 e6             	mov    %r12d,%esi
    ceeb:	89 c7                	mov    %eax,%edi
    ceed:	e8 e9 9c ff ff       	callq  6bdb <safe_div_func_uint8_t_u_u>
    cef2:	0f be c0             	movsbl %al,%eax
    cef5:	be 06 00 00 00       	mov    $0x6,%esi
    cefa:	89 c7                	mov    %eax,%edi
    cefc:	e8 ed 93 ff ff       	callq  62ee <safe_lshift_func_int8_t_s_u>
    cf01:	0f be c0             	movsbl %al,%eax
    cf04:	89 de                	mov    %ebx,%esi
    cf06:	89 c7                	mov    %eax,%edi
    cf08:	e8 1d 96 ff ff       	callq  652a <safe_rshift_func_int16_t_s_s>
    cf0d:	48 8b 85 c8 ea ff ff 	mov    -0x1538(%rbp),%rax
    cf14:	48 8b 00             	mov    (%rax),%rax
    cf17:	8b 00                	mov    (%rax),%eax
    cf19:	85 c0                	test   %eax,%eax
    cf1b:	0f 84 d5 03 00 00    	je     d2f6 <func_25+0x442f>
    cf21:	48 8d 05 7c a6 00 00 	lea    0xa67c(%rip),%rax        # 175a4 <g_1919>
    cf28:	48 89 85 30 ec ff ff 	mov    %rax,-0x13d0(%rbp)
    cf2f:	48 8d 85 30 ec ff ff 	lea    -0x13d0(%rbp),%rax
    cf36:	48 89 85 a8 ec ff ff 	mov    %rax,-0x1358(%rbp)
    cf3d:	c7 85 e0 ee ff ff 6f 	movl   $0x95acf06f,-0x1120(%rbp)
    cf44:	f0 ac 95 
    cf47:	c7 85 e4 ee ff ff 6f 	movl   $0x95acf06f,-0x111c(%rbp)
    cf4e:	f0 ac 95 
    cf51:	c7 85 e8 ee ff ff 6f 	movl   $0x95acf06f,-0x1118(%rbp)
    cf58:	f0 ac 95 
    cf5b:	c7 85 ec ee ff ff 6f 	movl   $0x95acf06f,-0x1114(%rbp)
    cf62:	f0 ac 95 
    cf65:	c7 85 f0 ee ff ff 6f 	movl   $0x95acf06f,-0x1110(%rbp)
    cf6c:	f0 ac 95 
    cf6f:	c7 85 f4 ee ff ff 6f 	movl   $0x95acf06f,-0x110c(%rbp)
    cf76:	f0 ac 95 
    cf79:	c7 85 f8 ee ff ff 6f 	movl   $0x95acf06f,-0x1108(%rbp)
    cf80:	f0 ac 95 
    cf83:	c7 85 fc ee ff ff 6f 	movl   $0x95acf06f,-0x1104(%rbp)
    cf8a:	f0 ac 95 
    cf8d:	c7 85 00 ef ff ff 6f 	movl   $0x95acf06f,-0x1100(%rbp)
    cf94:	f0 ac 95 
    cf97:	c7 85 04 ef ff ff 6f 	movl   $0x95acf06f,-0x10fc(%rbp)
    cf9e:	f0 ac 95 
    cfa1:	48 8d 05 00 c5 00 00 	lea    0xc500(%rip),%rax        # 194a8 <g_2695>
    cfa8:	48 89 85 b0 ec ff ff 	mov    %rax,-0x1350(%rbp)
    cfaf:	66 c7 85 fa ea ff ff 	movw   $0x8889,-0x1506(%rbp)
    cfb6:	89 88 
    cfb8:	48 b8 dd fe a9 05 44 	movabs $0x713da4405a9fedd,%rax
    cfbf:	da 13 07 
    cfc2:	48 89 85 b8 ec ff ff 	mov    %rax,-0x1348(%rbp)
    cfc9:	83 bd 64 eb ff ff 00 	cmpl   $0x0,-0x149c(%rbp)
    cfd0:	0f 85 0b 01 00 00    	jne    d0e1 <func_25+0x421a>
    cfd6:	0f b7 85 d4 ea ff ff 	movzwl -0x152c(%rbp),%eax
    cfdd:	66 85 c0             	test   %ax,%ax
    cfe0:	0f 85 da 00 00 00    	jne    d0c0 <func_25+0x41f9>
    cfe6:	48 8b 85 c8 ea ff ff 	mov    -0x1538(%rbp),%rax
    cfed:	48 8b 00             	mov    (%rax),%rax
    cff0:	8b 00                	mov    (%rax),%eax
    cff2:	89 c3                	mov    %eax,%ebx
    cff4:	8b 95 68 eb ff ff    	mov    -0x1498(%rbp),%edx
    cffa:	48 8b 0d a7 c4 00 00 	mov    0xc4a7(%rip),%rcx        # 194a8 <g_2695>
    d001:	48 8b 85 b0 ec ff ff 	mov    -0x1350(%rbp),%rax
    d008:	48 89 08             	mov    %rcx,(%rax)
    d00b:	b8 00 00 00 00       	mov    $0x0,%eax
    d010:	89 c1                	mov    %eax,%ecx
    d012:	8b 05 20 a5 00 00    	mov    0xa520(%rip),%eax        # 17538 <g_594>
    d018:	21 c8                	and    %ecx,%eax
    d01a:	89 05 18 a5 00 00    	mov    %eax,0xa518(%rip)        # 17538 <g_594>
    d020:	8b 0d 12 a5 00 00    	mov    0xa512(%rip),%ecx        # 17538 <g_594>
    d026:	48 8b 85 c8 ea ff ff 	mov    -0x1538(%rbp),%rax
    d02d:	48 8b 00             	mov    (%rax),%rax
    d030:	8b 00                	mov    (%rax),%eax
    d032:	39 c1                	cmp    %eax,%ecx
    d034:	0f 97 c0             	seta   %al
    d037:	0f b6 c8             	movzbl %al,%ecx
    d03a:	8b 85 f4 ee ff ff    	mov    -0x110c(%rbp),%eax
    d040:	31 c1                	xor    %eax,%ecx
    d042:	48 8b 85 e0 eb ff ff 	mov    -0x1420(%rbp),%rax
    d049:	48 63 c9             	movslq %ecx,%rcx
    d04c:	48 89 08             	mov    %rcx,(%rax)
    d04f:	48 8b 00             	mov    (%rax),%rax
    d052:	8b 0d 94 a4 00 00    	mov    0xa494(%rip),%ecx        # 174ec <g_190>
    d058:	89 c9                	mov    %ecx,%ecx
    d05a:	48 39 c8             	cmp    %rcx,%rax
    d05d:	74 07                	je     d066 <func_25+0x419f>
    d05f:	b8 01 00 00 00       	mov    $0x1,%eax
    d064:	eb 05                	jmp    d06b <func_25+0x41a4>
    d066:	b8 00 00 00 00       	mov    $0x0,%eax
    d06b:	89 d6                	mov    %edx,%esi
    d06d:	89 c7                	mov    %eax,%edi
    d06f:	e8 5c 9e ff ff       	callq  6ed0 <safe_sub_func_uint32_t_u_u>
    d074:	89 c2                	mov    %eax,%edx
    d076:	8b 85 f4 ee ff ff    	mov    -0x110c(%rbp),%eax
    d07c:	48 98                	cltq   
    d07e:	48 89 d6             	mov    %rdx,%rsi
    d081:	48 89 c7             	mov    %rax,%rdi
    d084:	e8 c2 9f ff ff       	callq  704b <safe_sub_func_uint64_t_u_u>
    d089:	21 d8                	and    %ebx,%eax
    d08b:	0f b6 c0             	movzbl %al,%eax
    d08e:	be 03 00 00 00       	mov    $0x3,%esi
    d093:	89 c7                	mov    %eax,%edi
    d095:	e8 f9 9a ff ff       	callq  6b93 <safe_mul_func_uint8_t_u_u>
    d09a:	c7 85 b0 ef ff ff 00 	movl   $0x0,-0x1050(%rbp)
    d0a1:	00 00 00 
    d0a4:	48 8b 05 45 bb 00 00 	mov    0xbb45(%rip),%rax        # 18bf0 <g_200>
    d0ab:	0f b7 00             	movzwl (%rax),%eax
    d0ae:	98                   	cwtl   
    d0af:	89 c6                	mov    %eax,%esi
    d0b1:	bf b8 bd ff ff       	mov    $0xffffbdb8,%edi
    d0b6:	e8 3a 93 ff ff       	callq  63f5 <safe_mul_func_int16_t_s_s>
    d0bb:	66 85 c0             	test   %ax,%ax
    d0be:	74 07                	je     d0c7 <func_25+0x4200>
    d0c0:	b8 01 00 00 00       	mov    $0x1,%eax
    d0c5:	eb 05                	jmp    d0cc <func_25+0x4205>
    d0c7:	b8 00 00 00 00       	mov    $0x0,%eax
    d0cc:	3d c5 00 00 00       	cmp    $0xc5,%eax
    d0d1:	0f 9f c0             	setg   %al
    d0d4:	0f b6 d0             	movzbl %al,%edx
    d0d7:	0f b7 85 d4 ea ff ff 	movzwl -0x152c(%rbp),%eax
    d0de:	98                   	cwtl   
    d0df:	39 c2                	cmp    %eax,%edx
    d0e1:	48 8b 85 c8 ea ff ff 	mov    -0x1538(%rbp),%rax
    d0e8:	48 8b 10             	mov    (%rax),%rdx
    d0eb:	48 8b 85 c8 ea ff ff 	mov    -0x1538(%rbp),%rax
    d0f2:	48 8b 00             	mov    (%rax),%rax
    d0f5:	8b 12                	mov    (%rdx),%edx
    d0f7:	89 10                	mov    %edx,(%rax)
    d0f9:	48 8b 85 c8 ea ff ff 	mov    -0x1538(%rbp),%rax
    d100:	48 8b 00             	mov    (%rax),%rax
    d103:	8b 00                	mov    (%rax),%eax
    d105:	85 c0                	test   %eax,%eax
    d107:	0f 85 0e 03 00 00    	jne    d41b <func_25+0x4554>
    d10d:	c7 05 21 a4 00 00 00 	movl   $0x0,0xa421(%rip)        # 17538 <g_594>
    d114:	00 00 00 
    d117:	e9 bb 00 00 00       	jmpq   d1d7 <func_25+0x4310>
    d11c:	66 c7 85 00 eb ff ff 	movw   $0x6,-0x1500(%rbp)
    d123:	06 00 
    d125:	c7 85 74 eb ff ff a8 	movl   $0xd6b561a8,-0x148c(%rbp)
    d12c:	61 b5 d6 
    d12f:	c7 85 78 eb ff ff f1 	movl   $0xa935e3f1,-0x1488(%rbp)
    d136:	e3 35 a9 
    d139:	c7 85 7c eb ff ff e8 	movl   $0xff3d06e8,-0x1484(%rbp)
    d140:	06 3d ff 
    d143:	48 8d 85 f0 f5 ff ff 	lea    -0xa10(%rbp),%rax
    d14a:	48 8d 15 af 60 00 00 	lea    0x60af(%rip),%rdx        # 13200 <g_2501+0x11a0>
    d151:	b9 30 00 00 00       	mov    $0x30,%ecx
    d156:	48 89 c7             	mov    %rax,%rdi
    d159:	48 89 d6             	mov    %rdx,%rsi
    d15c:	f3 48 a5             	rep movsq %ds:(%rsi),%es:(%rdi)
    d15f:	c7 85 80 eb ff ff fa 	movl   $0xfffffffa,-0x1480(%rbp)
    d166:	ff ff ff 
    d169:	48 8d 05 90 c2 00 00 	lea    0xc290(%rip),%rax        # 19400 <g_2030>
    d170:	48 89 85 38 ec ff ff 	mov    %rax,-0x13c8(%rbp)
    d177:	48 8d 85 38 ec ff ff 	lea    -0x13c8(%rbp),%rax
    d17e:	48 89 85 c0 ec ff ff 	mov    %rax,-0x1340(%rbp)
    d185:	48 8b 85 c8 ea ff ff 	mov    -0x1538(%rbp),%rax
    d18c:	48 8b 00             	mov    (%rax),%rax
    d18f:	8b 00                	mov    (%rax),%eax
    d191:	85 c0                	test   %eax,%eax
    d193:	75 53                	jne    d1e8 <func_25+0x4321>
    d195:	0f b7 85 fa ea ff ff 	movzwl -0x1506(%rbp),%eax
    d19c:	83 c0 01             	add    $0x1,%eax
    d19f:	66 89 85 fa ea ff ff 	mov    %ax,-0x1506(%rbp)
    d1a6:	48 8b 85 c0 ec ff ff 	mov    -0x1340(%rbp),%rax
    d1ad:	48 8d 15 4c c2 00 00 	lea    0xc24c(%rip),%rdx        # 19400 <g_2030>
    d1b4:	48 89 10             	mov    %rdx,(%rax)
    d1b7:	48 8b 05 4a ba 00 00 	mov    0xba4a(%rip),%rax        # 18c08 <g_363>
    d1be:	48 8b 95 28 ec ff ff 	mov    -0x13d8(%rbp),%rdx
    d1c5:	48 89 10             	mov    %rdx,(%rax)
    d1c8:	8b 05 6a a3 00 00    	mov    0xa36a(%rip),%eax        # 17538 <g_594>
    d1ce:	83 c0 01             	add    $0x1,%eax
    d1d1:	89 05 61 a3 00 00    	mov    %eax,0xa361(%rip)        # 17538 <g_594>
    d1d7:	8b 05 5b a3 00 00    	mov    0xa35b(%rip),%eax        # 17538 <g_594>
    d1dd:	83 f8 03             	cmp    $0x3,%eax
    d1e0:	0f 86 36 ff ff ff    	jbe    d11c <func_25+0x4255>
    d1e6:	eb 01                	jmp    d1e9 <func_25+0x4322>
    d1e8:	90                   	nop
    d1e9:	48 8b 05 88 c2 00 00 	mov    0xc288(%rip),%rax        # 19478 <g_2490>
    d1f0:	48 8b 00             	mov    (%rax),%rax
    d1f3:	48 8b 00             	mov    (%rax),%rax
    d1f6:	0f b7 00             	movzwl (%rax),%eax
    d1f9:	0f bf d8             	movswl %ax,%ebx
    d1fc:	0f b7 85 fa ea ff ff 	movzwl -0x1506(%rbp),%eax
    d203:	be 80 fa b1 f4       	mov    $0xf4b1fa80,%esi
    d208:	89 c7                	mov    %eax,%edi
    d20a:	e8 f6 93 ff ff       	callq  6605 <safe_sub_func_int32_t_s_s>
    d20f:	0f b7 85 d4 ea ff ff 	movzwl -0x152c(%rbp),%eax
    d216:	0f b7 c0             	movzwl %ax,%eax
    d219:	be 01 00 00 00       	mov    $0x1,%esi
    d21e:	89 c7                	mov    %eax,%edi
    d220:	e8 fa 9a ff ff       	callq  6d1f <safe_sub_func_uint16_t_u_u>
    d225:	0f b7 85 d4 ea ff ff 	movzwl -0x152c(%rbp),%eax
    d22c:	f7 d0                	not    %eax
    d22e:	66 c1 e8 0f          	shr    $0xf,%ax
    d232:	0f b6 d0             	movzbl %al,%edx
    d235:	0f b7 85 d4 ea ff ff 	movzwl -0x152c(%rbp),%eax
    d23c:	21 d0                	and    %edx,%eax
    d23e:	0f b7 c0             	movzwl %ax,%eax
    d241:	be 0e 00 00 00       	mov    $0xe,%esi
    d246:	89 c7                	mov    %eax,%edi
    d248:	e8 fb 9b ff ff       	callq  6e48 <safe_rshift_func_uint16_t_u_s>
    d24d:	0f b7 c0             	movzwl %ax,%eax
    d250:	48 be d0 58 f2 c4 06 	movabs $0x8a001506c4f258d0,%rsi
    d257:	15 00 8a 
    d25a:	48 89 c7             	mov    %rax,%rdi
    d25d:	e8 46 96 ff ff       	callq  68a8 <safe_sub_func_int64_t_s_s>
    d262:	34 d3                	xor    $0xd3,%al
    d264:	89 c2                	mov    %eax,%edx
    d266:	0f b7 85 d4 ea ff ff 	movzwl -0x152c(%rbp),%eax
    d26d:	98                   	cwtl   
    d26e:	21 d0                	and    %edx,%eax
    d270:	89 85 fc ee ff ff    	mov    %eax,-0x1104(%rbp)
    d276:	8b 85 64 eb ff ff    	mov    -0x149c(%rbp),%eax
    d27c:	98                   	cwtl   
    d27d:	89 de                	mov    %ebx,%esi
    d27f:	89 c7                	mov    %eax,%edi
    d281:	e8 2d 91 ff ff       	callq  63b3 <safe_add_func_int16_t_s_s>
    d286:	89 c2                	mov    %eax,%edx
    d288:	48 8b 85 28 ec ff ff 	mov    -0x13d8(%rbp),%rax
    d28f:	0f bf d2             	movswl %dx,%edx
    d292:	89 10                	mov    %edx,(%rax)
    d294:	8b 00                	mov    (%rax),%eax
    d296:	85 c0                	test   %eax,%eax
    d298:	74 4c                	je     d2e6 <func_25+0x441f>
    d29a:	66 c7 85 02 eb ff ff 	movw   $0x6,-0x14fe(%rbp)
    d2a1:	06 00 
    d2a3:	0f b7 85 02 eb ff ff 	movzwl -0x14fe(%rbp),%eax
    d2aa:	83 c0 01             	add    $0x1,%eax
    d2ad:	66 89 85 02 eb ff ff 	mov    %ax,-0x14fe(%rbp)
    d2b4:	48 8b 05 bd c1 00 00 	mov    0xc1bd(%rip),%rax        # 19478 <g_2490>
    d2bb:	48 8b 00             	mov    (%rax),%rax
    d2be:	48 8b 00             	mov    (%rax),%rax
    d2c1:	0f b7 00             	movzwl (%rax),%eax
    d2c4:	66 85 c0             	test   %ax,%ax
    d2c7:	0f 94 c2             	sete   %dl
    d2ca:	48 8b 85 28 ec ff ff 	mov    -0x13d8(%rbp),%rax
    d2d1:	0f b6 d2             	movzbl %dl,%edx
    d2d4:	89 10                	mov    %edx,(%rax)
    d2d6:	48 8d 85 18 ec ff ff 	lea    -0x13e8(%rbp),%rax
    d2dd:	48 89 85 20 ec ff ff 	mov    %rax,-0x13e0(%rbp)
    d2e4:	eb 46                	jmp    d32c <func_25+0x4465>
    d2e6:	0f b7 85 d4 ea ff ff 	movzwl -0x152c(%rbp),%eax
    d2ed:	48 0f bf c0          	movswq %ax,%rax
    d2f1:	e9 85 01 00 00       	jmpq   d47b <func_25+0x45b4>
    d2f6:	48 8d 85 00 f2 ff ff 	lea    -0xe00(%rbp),%rax
    d2fd:	48 05 98 00 00 00    	add    $0x98,%rax
    d303:	48 89 85 a0 ec ff ff 	mov    %rax,-0x1360(%rbp)
    d30a:	48 8b 05 9f c1 00 00 	mov    0xc19f(%rip),%rax        # 194b0 <g_2736>
    d311:	48 8b 95 d8 ea ff ff 	mov    -0x1528(%rbp),%rdx
    d318:	48 8b 12             	mov    (%rdx),%rdx
    d31b:	48 89 10             	mov    %rdx,(%rax)
    d31e:	48 8b 85 98 ec ff ff 	mov    -0x1368(%rbp),%rax
    d325:	48 89 85 a0 ec ff ff 	mov    %rax,-0x1360(%rbp)
    d32c:	c7 05 aa 9d 00 00 00 	movl   $0x0,0x9daa(%rip)        # 170e0 <g_83>
    d333:	00 00 00 
    d336:	e9 d1 00 00 00       	jmpq   d40c <func_25+0x4545>
    d33b:	c6 85 f5 ea ff ff 42 	movb   $0x42,-0x150b(%rbp)
    d342:	c7 85 84 eb ff ff 8a 	movl   $0x3fee8a,-0x147c(%rbp)
    d349:	ee 3f 00 
    d34c:	c7 85 88 eb ff ff f9 	movl   $0xfffffff9,-0x1478(%rbp)
    d353:	ff ff ff 
    d356:	c7 85 f0 f5 ff ff 01 	movl   $0x1,-0xa10(%rbp)
    d35d:	00 00 00 
    d360:	c7 85 f4 f5 ff ff 01 	movl   $0x1,-0xa0c(%rbp)
    d367:	00 00 00 
    d36a:	c7 85 f8 f5 ff ff 01 	movl   $0x1,-0xa08(%rbp)
    d371:	00 00 00 
    d374:	c7 85 fc f5 ff ff 01 	movl   $0x1,-0xa04(%rbp)
    d37b:	00 00 00 
    d37e:	c7 85 00 f6 ff ff 01 	movl   $0x1,-0xa00(%rbp)
    d385:	00 00 00 
    d388:	c7 85 04 f6 ff ff 01 	movl   $0x1,-0x9fc(%rbp)
    d38f:	00 00 00 
    d392:	48 8d 05 57 c5 00 00 	lea    0xc557(%rip),%rax        # 198f0 <g_34>
    d399:	48 89 85 c8 ec ff ff 	mov    %rax,-0x1338(%rbp)
    d3a0:	c7 05 7e a2 00 00 03 	movl   $0x3,0xa27e(%rip)        # 17628 <g_2644>
    d3a7:	00 00 00 
    d3aa:	eb 1f                	jmp    d3cb <func_25+0x4504>
    d3ac:	0f b6 85 7b ef ff ff 	movzbl -0x1085(%rbp),%eax
    d3b3:	83 e8 01             	sub    $0x1,%eax
    d3b6:	88 85 7b ef ff ff    	mov    %al,-0x1085(%rbp)
    d3bc:	8b 05 66 a2 00 00    	mov    0xa266(%rip),%eax        # 17628 <g_2644>
    d3c2:	83 e8 01             	sub    $0x1,%eax
    d3c5:	89 05 5d a2 00 00    	mov    %eax,0xa25d(%rip)        # 17628 <g_2644>
    d3cb:	8b 05 57 a2 00 00    	mov    0xa257(%rip),%eax        # 17628 <g_2644>
    d3d1:	85 c0                	test   %eax,%eax
    d3d3:	79 d7                	jns    d3ac <func_25+0x44e5>
    d3d5:	83 85 48 eb ff ff 01 	addl   $0x1,-0x14b8(%rbp)
    d3dc:	8b 85 00 f6 ff ff    	mov    -0xa00(%rbp),%eax
    d3e2:	85 c0                	test   %eax,%eax
    d3e4:	75 16                	jne    d3fc <func_25+0x4535>
    d3e6:	48 8b 85 d8 ea ff ff 	mov    -0x1528(%rbp),%rax
    d3ed:	48 8b 10             	mov    (%rax),%rdx
    d3f0:	48 8b 85 c8 ec ff ff 	mov    -0x1338(%rbp),%rax
    d3f7:	48 89 10             	mov    %rdx,(%rax)
    d3fa:	eb 01                	jmp    d3fd <func_25+0x4536>
    d3fc:	90                   	nop
    d3fd:	8b 05 dd 9c 00 00    	mov    0x9cdd(%rip),%eax        # 170e0 <g_83>
    d403:	83 c0 01             	add    $0x1,%eax
    d406:	89 05 d4 9c 00 00    	mov    %eax,0x9cd4(%rip)        # 170e0 <g_83>
    d40c:	8b 05 ce 9c 00 00    	mov    0x9cce(%rip),%eax        # 170e0 <g_83>
    d412:	83 f8 03             	cmp    $0x3,%eax
    d415:	0f 8e 20 ff ff ff    	jle    d33b <func_25+0x4474>
    d41b:	8b 05 cb a0 00 00    	mov    0xa0cb(%rip),%eax        # 174ec <g_190>
    d421:	83 c0 01             	add    $0x1,%eax
    d424:	89 05 c2 a0 00 00    	mov    %eax,0xa0c2(%rip)        # 174ec <g_190>
    d42a:	8b 05 bc a0 00 00    	mov    0xa0bc(%rip),%eax        # 174ec <g_190>
    d430:	83 f8 03             	cmp    $0x3,%eax
    d433:	0f 86 cc f1 ff ff    	jbe    c605 <func_25+0x373e>
    d439:	0f b7 05 0c a1 00 00 	movzwl 0xa10c(%rip),%eax        # 1754c <g_1043>
    d440:	0f be c0             	movsbl %al,%eax
    d443:	be 06 00 00 00       	mov    $0x6,%esi
    d448:	89 c7                	mov    %eax,%edi
    d44a:	e8 a3 8d ff ff       	callq  61f2 <safe_sub_func_int8_t_s_s>
    d44f:	66 98                	cbtw   
    d451:	66 89 05 f4 a0 00 00 	mov    %ax,0xa0f4(%rip)        # 1754c <g_1043>
    d458:	0f b7 05 ed a0 00 00 	movzwl 0xa0ed(%rip),%eax        # 1754c <g_1043>
    d45f:	66 83 f8 e5          	cmp    $0xffe5,%ax
    d463:	0f 85 e6 f0 ff ff    	jne    c54f <func_25+0x3688>
    d469:	83 85 54 eb ff ff 01 	addl   $0x1,-0x14ac(%rbp)
    d470:	0f b7 85 d4 ea ff ff 	movzwl -0x152c(%rbp),%eax
    d477:	48 0f bf c0          	movswq %ax,%rax
    d47b:	48 8b 5d c8          	mov    -0x38(%rbp),%rbx
    d47f:	64 48 33 1c 25 28 00 	xor    %fs:0x28,%rbx
    d486:	00 00 
    d488:	74 05                	je     d48f <func_25+0x45c8>
    d48a:	e8 e1 8b ff ff       	callq  6070 <__stack_chk_fail@plt>
    d48f:	48 81 c4 38 15 00 00 	add    $0x1538,%rsp
    d496:	5b                   	pop    %rbx
    d497:	41 5c                	pop    %r12
    d499:	41 5d                	pop    %r13
    d49b:	41 5e                	pop    %r14
    d49d:	41 5f                	pop    %r15
    d49f:	5d                   	pop    %rbp
    d4a0:	c3                   	retq   

000000000000d4a1 <func_29>:
    d4a1:	f3 0f 1e fa          	endbr64 
    d4a5:	55                   	push   %rbp
    d4a6:	48 89 e5             	mov    %rsp,%rbp
    d4a9:	41 55                	push   %r13
    d4ab:	41 54                	push   %r12
    d4ad:	53                   	push   %rbx
    d4ae:	48 81 ec 00 10 00 00 	sub    $0x1000,%rsp
    d4b5:	48 83 0c 24 00       	orq    $0x0,(%rsp)
    d4ba:	48 81 ec 88 04 00 00 	sub    $0x488,%rsp
    d4c1:	48 89 bd 68 eb ff ff 	mov    %rdi,-0x1498(%rbp)
    d4c8:	89 b5 64 eb ff ff    	mov    %esi,-0x149c(%rbp)
    d4ce:	89 d0                	mov    %edx,%eax
    d4d0:	66 89 85 60 eb ff ff 	mov    %ax,-0x14a0(%rbp)
    d4d7:	64 48 8b 04 25 28 00 	mov    %fs:0x28,%rax
    d4de:	00 00 
    d4e0:	48 89 45 d8          	mov    %rax,-0x28(%rbp)
    d4e4:	31 c0                	xor    %eax,%eax
    d4e6:	48 8d 85 40 f0 ff ff 	lea    -0xfc0(%rbp),%rax
    d4ed:	48 8d 15 8c 5e 00 00 	lea    0x5e8c(%rip),%rdx        # 13380 <g_2501+0x1320>
    d4f4:	b9 36 00 00 00       	mov    $0x36,%ecx
    d4f9:	48 89 c7             	mov    %rax,%rdi
    d4fc:	48 89 d6             	mov    %rdx,%rsi
    d4ff:	f3 48 a5             	rep movsq %ds:(%rsi),%es:(%rdi)
    d502:	66 c7 85 74 eb ff ff 	movw   $0xfffb,-0x148c(%rbp)
    d509:	fb ff 
    d50b:	c7 85 7c eb ff ff 1e 	movl   $0x24f9e31e,-0x1484(%rbp)
    d512:	e3 f9 24 
    d515:	66 c7 85 76 eb ff ff 	movw   $0x6f47,-0x148a(%rbp)
    d51c:	47 6f 
    d51e:	c7 85 80 eb ff ff ff 	movl   $0xffffffff,-0x1480(%rbp)
    d525:	ff ff ff 
    d528:	48 c7 85 30 ec ff ff 	movq   $0x0,-0x13d0(%rbp)
    d52f:	00 00 00 00 
    d533:	48 8d 05 d6 b6 00 00 	lea    0xb6d6(%rip),%rax        # 18c10 <g_362>
    d53a:	48 89 85 38 ec ff ff 	mov    %rax,-0x13c8(%rbp)
    d541:	48 c7 85 30 fa ff ff 	movq   $0x0,-0x5d0(%rbp)
    d548:	00 00 00 00 
    d54c:	48 8d 85 e0 ed ff ff 	lea    -0x1220(%rbp),%rax
    d553:	48 89 85 38 fa ff ff 	mov    %rax,-0x5c8(%rbp)
    d55a:	48 c7 85 40 fa ff ff 	movq   $0x0,-0x5c0(%rbp)
    d561:	00 00 00 00 
    d565:	48 8d 85 e0 ed ff ff 	lea    -0x1220(%rbp),%rax
    d56c:	48 89 85 48 fa ff ff 	mov    %rax,-0x5b8(%rbp)
    d573:	48 c7 85 50 fa ff ff 	movq   $0x0,-0x5b0(%rbp)
    d57a:	00 00 00 00 
    d57e:	48 c7 85 58 fa ff ff 	movq   $0x0,-0x5a8(%rbp)
    d585:	00 00 00 00 
    d589:	48 8d 85 e0 ed ff ff 	lea    -0x1220(%rbp),%rax
    d590:	48 89 85 60 fa ff ff 	mov    %rax,-0x5a0(%rbp)
    d597:	48 8d 85 e0 ed ff ff 	lea    -0x1220(%rbp),%rax
    d59e:	48 89 85 68 fa ff ff 	mov    %rax,-0x598(%rbp)
    d5a5:	48 8d 85 e0 ed ff ff 	lea    -0x1220(%rbp),%rax
    d5ac:	48 83 c0 08          	add    $0x8,%rax
    d5b0:	48 89 85 70 fa ff ff 	mov    %rax,-0x590(%rbp)
    d5b7:	48 8d 85 e0 ed ff ff 	lea    -0x1220(%rbp),%rax
    d5be:	48 83 c0 08          	add    $0x8,%rax
    d5c2:	48 89 85 78 fa ff ff 	mov    %rax,-0x588(%rbp)
    d5c9:	48 c7 85 80 fa ff ff 	movq   $0x0,-0x580(%rbp)
    d5d0:	00 00 00 00 
    d5d4:	48 8d 85 e0 ed ff ff 	lea    -0x1220(%rbp),%rax
    d5db:	48 83 c0 08          	add    $0x8,%rax
    d5df:	48 89 85 88 fa ff ff 	mov    %rax,-0x578(%rbp)
    d5e6:	48 8d 85 e0 ed ff ff 	lea    -0x1220(%rbp),%rax
    d5ed:	48 83 c0 08          	add    $0x8,%rax
    d5f1:	48 89 85 90 fa ff ff 	mov    %rax,-0x570(%rbp)
    d5f8:	48 8d 85 e0 ed ff ff 	lea    -0x1220(%rbp),%rax
    d5ff:	48 89 85 98 fa ff ff 	mov    %rax,-0x568(%rbp)
    d606:	48 c7 85 a0 fa ff ff 	movq   $0x0,-0x560(%rbp)
    d60d:	00 00 00 00 
    d611:	48 8d 85 e0 ed ff ff 	lea    -0x1220(%rbp),%rax
    d618:	48 89 85 a8 fa ff ff 	mov    %rax,-0x558(%rbp)
    d61f:	48 8d 85 e0 ed ff ff 	lea    -0x1220(%rbp),%rax
    d626:	48 83 c0 10          	add    $0x10,%rax
    d62a:	48 89 85 b0 fa ff ff 	mov    %rax,-0x550(%rbp)
    d631:	48 8d 85 e0 ed ff ff 	lea    -0x1220(%rbp),%rax
    d638:	48 89 85 b8 fa ff ff 	mov    %rax,-0x548(%rbp)
    d63f:	48 8d 85 e0 ed ff ff 	lea    -0x1220(%rbp),%rax
    d646:	48 89 85 c0 fa ff ff 	mov    %rax,-0x540(%rbp)
    d64d:	48 8d 85 e0 ed ff ff 	lea    -0x1220(%rbp),%rax
    d654:	48 89 85 c8 fa ff ff 	mov    %rax,-0x538(%rbp)
    d65b:	48 8d 85 e0 ed ff ff 	lea    -0x1220(%rbp),%rax
    d662:	48 83 c0 10          	add    $0x10,%rax
    d666:	48 89 85 d0 fa ff ff 	mov    %rax,-0x530(%rbp)
    d66d:	48 8d 85 e0 ed ff ff 	lea    -0x1220(%rbp),%rax
    d674:	48 89 85 d8 fa ff ff 	mov    %rax,-0x528(%rbp)
    d67b:	48 c7 85 e0 fa ff ff 	movq   $0x0,-0x520(%rbp)
    d682:	00 00 00 00 
    d686:	48 8d 85 e0 ed ff ff 	lea    -0x1220(%rbp),%rax
    d68d:	48 83 c0 10          	add    $0x10,%rax
    d691:	48 89 85 e8 fa ff ff 	mov    %rax,-0x518(%rbp)
    d698:	48 8d 85 e0 ed ff ff 	lea    -0x1220(%rbp),%rax
    d69f:	48 89 85 f0 fa ff ff 	mov    %rax,-0x510(%rbp)
    d6a6:	48 8d 85 e0 ed ff ff 	lea    -0x1220(%rbp),%rax
    d6ad:	48 89 85 f8 fa ff ff 	mov    %rax,-0x508(%rbp)
    d6b4:	48 8d 85 e0 ed ff ff 	lea    -0x1220(%rbp),%rax
    d6bb:	48 89 85 00 fb ff ff 	mov    %rax,-0x500(%rbp)
    d6c2:	48 8d 85 e0 ed ff ff 	lea    -0x1220(%rbp),%rax
    d6c9:	48 89 85 08 fb ff ff 	mov    %rax,-0x4f8(%rbp)
    d6d0:	48 c7 85 10 fb ff ff 	movq   $0x0,-0x4f0(%rbp)
    d6d7:	00 00 00 00 
    d6db:	48 8d 85 e0 ed ff ff 	lea    -0x1220(%rbp),%rax
    d6e2:	48 83 c0 10          	add    $0x10,%rax
    d6e6:	48 89 85 18 fb ff ff 	mov    %rax,-0x4e8(%rbp)
    d6ed:	48 8d 85 e0 ed ff ff 	lea    -0x1220(%rbp),%rax
    d6f4:	48 83 c0 10          	add    $0x10,%rax
    d6f8:	48 89 85 20 fb ff ff 	mov    %rax,-0x4e0(%rbp)
    d6ff:	48 c7 85 28 fb ff ff 	movq   $0x0,-0x4d8(%rbp)
    d706:	00 00 00 00 
    d70a:	48 8d 85 e0 ed ff ff 	lea    -0x1220(%rbp),%rax
    d711:	48 89 85 30 fb ff ff 	mov    %rax,-0x4d0(%rbp)
    d718:	48 c7 85 38 fb ff ff 	movq   $0x0,-0x4c8(%rbp)
    d71f:	00 00 00 00 
    d723:	48 c7 85 40 fb ff ff 	movq   $0x0,-0x4c0(%rbp)
    d72a:	00 00 00 00 
    d72e:	48 8d 85 e0 ed ff ff 	lea    -0x1220(%rbp),%rax
    d735:	48 89 85 48 fb ff ff 	mov    %rax,-0x4b8(%rbp)
    d73c:	48 8d 85 e0 ed ff ff 	lea    -0x1220(%rbp),%rax
    d743:	48 83 c0 10          	add    $0x10,%rax
    d747:	48 89 85 50 fb ff ff 	mov    %rax,-0x4b0(%rbp)
    d74e:	48 8d 85 e0 ed ff ff 	lea    -0x1220(%rbp),%rax
    d755:	48 83 c0 08          	add    $0x8,%rax
    d759:	48 89 85 58 fb ff ff 	mov    %rax,-0x4a8(%rbp)
    d760:	48 8d 85 e0 ed ff ff 	lea    -0x1220(%rbp),%rax
    d767:	48 89 85 60 fb ff ff 	mov    %rax,-0x4a0(%rbp)
    d76e:	48 8d 85 e0 ed ff ff 	lea    -0x1220(%rbp),%rax
    d775:	48 89 85 68 fb ff ff 	mov    %rax,-0x498(%rbp)
    d77c:	48 c7 85 70 fb ff ff 	movq   $0x0,-0x490(%rbp)
    d783:	00 00 00 00 
    d787:	48 c7 85 78 fb ff ff 	movq   $0x0,-0x488(%rbp)
    d78e:	00 00 00 00 
    d792:	48 8d 85 e0 ed ff ff 	lea    -0x1220(%rbp),%rax
    d799:	48 89 85 80 fb ff ff 	mov    %rax,-0x480(%rbp)
    d7a0:	48 c7 85 88 fb ff ff 	movq   $0x0,-0x478(%rbp)
    d7a7:	00 00 00 00 
    d7ab:	48 c7 85 90 fb ff ff 	movq   $0x0,-0x470(%rbp)
    d7b2:	00 00 00 00 
    d7b6:	48 8d 85 e0 ed ff ff 	lea    -0x1220(%rbp),%rax
    d7bd:	48 89 85 98 fb ff ff 	mov    %rax,-0x468(%rbp)
    d7c4:	48 8d 85 e0 ed ff ff 	lea    -0x1220(%rbp),%rax
    d7cb:	48 89 85 a0 fb ff ff 	mov    %rax,-0x460(%rbp)
    d7d2:	48 c7 85 a8 fb ff ff 	movq   $0x0,-0x458(%rbp)
    d7d9:	00 00 00 00 
    d7dd:	48 c7 85 b0 fb ff ff 	movq   $0x0,-0x450(%rbp)
    d7e4:	00 00 00 00 
    d7e8:	48 8d 85 e0 ed ff ff 	lea    -0x1220(%rbp),%rax
    d7ef:	48 89 85 b8 fb ff ff 	mov    %rax,-0x448(%rbp)
    d7f6:	48 8d 85 e0 ed ff ff 	lea    -0x1220(%rbp),%rax
    d7fd:	48 83 c0 08          	add    $0x8,%rax
    d801:	48 89 85 c0 fb ff ff 	mov    %rax,-0x440(%rbp)
    d808:	48 8d 85 e0 ed ff ff 	lea    -0x1220(%rbp),%rax
    d80f:	48 89 85 c8 fb ff ff 	mov    %rax,-0x438(%rbp)
    d816:	48 8d 85 e0 ed ff ff 	lea    -0x1220(%rbp),%rax
    d81d:	48 83 c0 10          	add    $0x10,%rax
    d821:	48 89 85 d0 fb ff ff 	mov    %rax,-0x430(%rbp)
    d828:	48 8d 85 e0 ed ff ff 	lea    -0x1220(%rbp),%rax
    d82f:	48 83 c0 08          	add    $0x8,%rax
    d833:	48 89 85 d8 fb ff ff 	mov    %rax,-0x428(%rbp)
    d83a:	48 8d 85 e0 ed ff ff 	lea    -0x1220(%rbp),%rax
    d841:	48 89 85 e0 fb ff ff 	mov    %rax,-0x420(%rbp)
    d848:	48 8d 85 e0 ed ff ff 	lea    -0x1220(%rbp),%rax
    d84f:	48 89 85 e8 fb ff ff 	mov    %rax,-0x418(%rbp)
    d856:	48 c7 85 f0 fb ff ff 	movq   $0x0,-0x410(%rbp)
    d85d:	00 00 00 00 
    d861:	48 c7 85 f8 fb ff ff 	movq   $0x0,-0x408(%rbp)
    d868:	00 00 00 00 
    d86c:	48 c7 85 00 fc ff ff 	movq   $0x0,-0x400(%rbp)
    d873:	00 00 00 00 
    d877:	48 8d 85 e0 ed ff ff 	lea    -0x1220(%rbp),%rax
    d87e:	48 89 85 08 fc ff ff 	mov    %rax,-0x3f8(%rbp)
    d885:	48 c7 85 10 fc ff ff 	movq   $0x0,-0x3f0(%rbp)
    d88c:	00 00 00 00 
    d890:	48 8d 85 e0 ed ff ff 	lea    -0x1220(%rbp),%rax
    d897:	48 83 c0 10          	add    $0x10,%rax
    d89b:	48 89 85 18 fc ff ff 	mov    %rax,-0x3e8(%rbp)
    d8a2:	48 8d 85 e0 ed ff ff 	lea    -0x1220(%rbp),%rax
    d8a9:	48 83 c0 10          	add    $0x10,%rax
    d8ad:	48 89 85 20 fc ff ff 	mov    %rax,-0x3e0(%rbp)
    d8b4:	48 c7 85 28 fc ff ff 	movq   $0x0,-0x3d8(%rbp)
    d8bb:	00 00 00 00 
    d8bf:	48 8d 85 e0 ed ff ff 	lea    -0x1220(%rbp),%rax
    d8c6:	48 83 c0 10          	add    $0x10,%rax
    d8ca:	48 89 85 30 fc ff ff 	mov    %rax,-0x3d0(%rbp)
    d8d1:	48 8d 85 e0 ed ff ff 	lea    -0x1220(%rbp),%rax
    d8d8:	48 83 c0 10          	add    $0x10,%rax
    d8dc:	48 89 85 38 fc ff ff 	mov    %rax,-0x3c8(%rbp)
    d8e3:	48 8d 85 e0 ed ff ff 	lea    -0x1220(%rbp),%rax
    d8ea:	48 83 c0 10          	add    $0x10,%rax
    d8ee:	48 89 85 40 fc ff ff 	mov    %rax,-0x3c0(%rbp)
    d8f5:	48 c7 85 48 fc ff ff 	movq   $0x0,-0x3b8(%rbp)
    d8fc:	00 00 00 00 
    d900:	48 8d 85 e0 ed ff ff 	lea    -0x1220(%rbp),%rax
    d907:	48 89 85 50 fc ff ff 	mov    %rax,-0x3b0(%rbp)
    d90e:	48 8d 85 e0 ed ff ff 	lea    -0x1220(%rbp),%rax
    d915:	48 89 85 58 fc ff ff 	mov    %rax,-0x3a8(%rbp)
    d91c:	48 8d 85 e0 ed ff ff 	lea    -0x1220(%rbp),%rax
    d923:	48 89 85 60 fc ff ff 	mov    %rax,-0x3a0(%rbp)
    d92a:	48 8d 85 e0 ed ff ff 	lea    -0x1220(%rbp),%rax
    d931:	48 83 c0 10          	add    $0x10,%rax
    d935:	48 89 85 68 fc ff ff 	mov    %rax,-0x398(%rbp)
    d93c:	48 8d 85 e0 ed ff ff 	lea    -0x1220(%rbp),%rax
    d943:	48 89 85 70 fc ff ff 	mov    %rax,-0x390(%rbp)
    d94a:	48 8d 85 e0 ed ff ff 	lea    -0x1220(%rbp),%rax
    d951:	48 89 85 78 fc ff ff 	mov    %rax,-0x388(%rbp)
    d958:	48 8d 85 e0 ed ff ff 	lea    -0x1220(%rbp),%rax
    d95f:	48 89 85 80 fc ff ff 	mov    %rax,-0x380(%rbp)
    d966:	48 8d 85 e0 ed ff ff 	lea    -0x1220(%rbp),%rax
    d96d:	48 83 c0 10          	add    $0x10,%rax
    d971:	48 89 85 88 fc ff ff 	mov    %rax,-0x378(%rbp)
    d978:	48 8d 85 e0 ed ff ff 	lea    -0x1220(%rbp),%rax
    d97f:	48 89 85 90 fc ff ff 	mov    %rax,-0x370(%rbp)
    d986:	48 8d 85 e0 ed ff ff 	lea    -0x1220(%rbp),%rax
    d98d:	48 89 85 98 fc ff ff 	mov    %rax,-0x368(%rbp)
    d994:	48 c7 85 a0 fc ff ff 	movq   $0x0,-0x360(%rbp)
    d99b:	00 00 00 00 
    d99f:	48 c7 85 a8 fc ff ff 	movq   $0x0,-0x358(%rbp)
    d9a6:	00 00 00 00 
    d9aa:	48 8d 85 e0 ed ff ff 	lea    -0x1220(%rbp),%rax
    d9b1:	48 89 85 b0 fc ff ff 	mov    %rax,-0x350(%rbp)
    d9b8:	48 8d 85 e0 ed ff ff 	lea    -0x1220(%rbp),%rax
    d9bf:	48 89 85 b8 fc ff ff 	mov    %rax,-0x348(%rbp)
    d9c6:	48 8d 85 e0 ed ff ff 	lea    -0x1220(%rbp),%rax
    d9cd:	48 89 85 c0 fc ff ff 	mov    %rax,-0x340(%rbp)
    d9d4:	48 c7 85 c8 fc ff ff 	movq   $0x0,-0x338(%rbp)
    d9db:	00 00 00 00 
    d9df:	48 8d 85 e0 ed ff ff 	lea    -0x1220(%rbp),%rax
    d9e6:	48 89 85 d0 fc ff ff 	mov    %rax,-0x330(%rbp)
    d9ed:	48 8d 85 e0 ed ff ff 	lea    -0x1220(%rbp),%rax
    d9f4:	48 89 85 d8 fc ff ff 	mov    %rax,-0x328(%rbp)
    d9fb:	48 c7 85 e0 fc ff ff 	movq   $0x0,-0x320(%rbp)
    da02:	00 00 00 00 
    da06:	48 c7 85 e8 fc ff ff 	movq   $0x0,-0x318(%rbp)
    da0d:	00 00 00 00 
    da11:	48 8d 85 e0 ed ff ff 	lea    -0x1220(%rbp),%rax
    da18:	48 89 85 f0 fc ff ff 	mov    %rax,-0x310(%rbp)
    da1f:	48 c7 85 f8 fc ff ff 	movq   $0x0,-0x308(%rbp)
    da26:	00 00 00 00 
    da2a:	48 8d 85 e0 ed ff ff 	lea    -0x1220(%rbp),%rax
    da31:	48 89 85 00 fd ff ff 	mov    %rax,-0x300(%rbp)
    da38:	48 c7 85 08 fd ff ff 	movq   $0x0,-0x2f8(%rbp)
    da3f:	00 00 00 00 
    da43:	48 8d 85 e0 ed ff ff 	lea    -0x1220(%rbp),%rax
    da4a:	48 83 c0 08          	add    $0x8,%rax
    da4e:	48 89 85 10 fd ff ff 	mov    %rax,-0x2f0(%rbp)
    da55:	48 c7 85 18 fd ff ff 	movq   $0x0,-0x2e8(%rbp)
    da5c:	00 00 00 00 
    da60:	48 8d 85 e0 ed ff ff 	lea    -0x1220(%rbp),%rax
    da67:	48 89 85 20 fd ff ff 	mov    %rax,-0x2e0(%rbp)
    da6e:	48 8d 85 e0 ed ff ff 	lea    -0x1220(%rbp),%rax
    da75:	48 83 c0 08          	add    $0x8,%rax
    da79:	48 89 85 28 fd ff ff 	mov    %rax,-0x2d8(%rbp)
    da80:	48 c7 85 30 fd ff ff 	movq   $0x0,-0x2d0(%rbp)
    da87:	00 00 00 00 
    da8b:	48 c7 85 38 fd ff ff 	movq   $0x0,-0x2c8(%rbp)
    da92:	00 00 00 00 
    da96:	48 c7 85 40 fd ff ff 	movq   $0x0,-0x2c0(%rbp)
    da9d:	00 00 00 00 
    daa1:	48 8d 85 e0 ed ff ff 	lea    -0x1220(%rbp),%rax
    daa8:	48 89 85 48 fd ff ff 	mov    %rax,-0x2b8(%rbp)
    daaf:	48 8d 85 e0 ed ff ff 	lea    -0x1220(%rbp),%rax
    dab6:	48 89 85 50 fd ff ff 	mov    %rax,-0x2b0(%rbp)
    dabd:	48 8d 85 e0 ed ff ff 	lea    -0x1220(%rbp),%rax
    dac4:	48 89 85 58 fd ff ff 	mov    %rax,-0x2a8(%rbp)
    dacb:	48 8d 85 e0 ed ff ff 	lea    -0x1220(%rbp),%rax
    dad2:	48 89 85 60 fd ff ff 	mov    %rax,-0x2a0(%rbp)
    dad9:	48 c7 85 68 fd ff ff 	movq   $0x0,-0x298(%rbp)
    dae0:	00 00 00 00 
    dae4:	48 8d 85 e0 ed ff ff 	lea    -0x1220(%rbp),%rax
    daeb:	48 83 c0 10          	add    $0x10,%rax
    daef:	48 89 85 70 fd ff ff 	mov    %rax,-0x290(%rbp)
    daf6:	48 8d 85 e0 ed ff ff 	lea    -0x1220(%rbp),%rax
    dafd:	48 89 85 78 fd ff ff 	mov    %rax,-0x288(%rbp)
    db04:	48 8d 85 e0 ed ff ff 	lea    -0x1220(%rbp),%rax
    db0b:	48 89 85 80 fd ff ff 	mov    %rax,-0x280(%rbp)
    db12:	48 8d 85 e0 ed ff ff 	lea    -0x1220(%rbp),%rax
    db19:	48 83 c0 10          	add    $0x10,%rax
    db1d:	48 89 85 88 fd ff ff 	mov    %rax,-0x278(%rbp)
    db24:	48 c7 85 90 fd ff ff 	movq   $0x0,-0x270(%rbp)
    db2b:	00 00 00 00 
    db2f:	48 8d 85 e0 ed ff ff 	lea    -0x1220(%rbp),%rax
    db36:	48 89 85 98 fd ff ff 	mov    %rax,-0x268(%rbp)
    db3d:	48 8d 85 e0 ed ff ff 	lea    -0x1220(%rbp),%rax
    db44:	48 89 85 a0 fd ff ff 	mov    %rax,-0x260(%rbp)
    db4b:	48 c7 85 a8 fd ff ff 	movq   $0x0,-0x258(%rbp)
    db52:	00 00 00 00 
    db56:	c7 85 9c eb ff ff fd 	movl   $0xfffffffd,-0x1464(%rbp)
    db5d:	ff ff ff 
    db60:	c7 85 a0 eb ff ff 00 	movl   $0x27486a00,-0x1460(%rbp)
    db67:	6a 48 27 
    db6a:	48 8d 85 80 ee ff ff 	lea    -0x1180(%rbp),%rax
    db71:	48 83 c0 38          	add    $0x38,%rax
    db75:	48 89 85 d8 eb ff ff 	mov    %rax,-0x1428(%rbp)
    db7c:	48 8d 85 d8 eb ff ff 	lea    -0x1428(%rbp),%rax
    db83:	48 89 85 40 ec ff ff 	mov    %rax,-0x13c0(%rbp)
    db8a:	c6 85 72 eb ff ff ff 	movb   $0xff,-0x148e(%rbp)
    db91:	48 8d 05 54 99 00 00 	lea    0x9954(%rip),%rax        # 174ec <g_190>
    db98:	48 89 85 e0 eb ff ff 	mov    %rax,-0x1420(%rbp)
    db9f:	48 c7 85 e8 eb ff ff 	movq   $0x0,-0x1418(%rbp)
    dba6:	00 00 00 00 
    dbaa:	48 8d 85 e8 eb ff ff 	lea    -0x1418(%rbp),%rax
    dbb1:	48 89 85 48 ec ff ff 	mov    %rax,-0x13b8(%rbp)
    dbb8:	48 8d 85 e0 eb ff ff 	lea    -0x1420(%rbp),%rax
    dbbf:	48 89 85 f0 eb ff ff 	mov    %rax,-0x1410(%rbp)
    dbc6:	48 8d 85 f0 eb ff ff 	lea    -0x1410(%rbp),%rax
    dbcd:	48 89 85 50 ec ff ff 	mov    %rax,-0x13b0(%rbp)
    dbd4:	48 8d 05 c5 99 00 00 	lea    0x99c5(%rip),%rax        # 175a0 <g_1917>
    dbdb:	48 89 85 d0 ee ff ff 	mov    %rax,-0x1130(%rbp)
    dbe2:	48 8d 05 bb 99 00 00 	lea    0x99bb(%rip),%rax        # 175a4 <g_1919>
    dbe9:	48 89 85 d8 ee ff ff 	mov    %rax,-0x1128(%rbp)
    dbf0:	48 8d 05 ad 99 00 00 	lea    0x99ad(%rip),%rax        # 175a4 <g_1919>
    dbf7:	48 89 85 e0 ee ff ff 	mov    %rax,-0x1120(%rbp)
    dbfe:	48 8d 05 9f 99 00 00 	lea    0x999f(%rip),%rax        # 175a4 <g_1919>
    dc05:	48 89 85 e8 ee ff ff 	mov    %rax,-0x1118(%rbp)
    dc0c:	48 8d 05 8d 99 00 00 	lea    0x998d(%rip),%rax        # 175a0 <g_1917>
    dc13:	48 89 85 f0 ee ff ff 	mov    %rax,-0x1110(%rbp)
    dc1a:	48 8d 05 83 99 00 00 	lea    0x9983(%rip),%rax        # 175a4 <g_1919>
    dc21:	48 89 85 f8 ee ff ff 	mov    %rax,-0x1108(%rbp)
    dc28:	48 8d 05 75 99 00 00 	lea    0x9975(%rip),%rax        # 175a4 <g_1919>
    dc2f:	48 89 85 00 ef ff ff 	mov    %rax,-0x1100(%rbp)
    dc36:	48 8d 05 67 99 00 00 	lea    0x9967(%rip),%rax        # 175a4 <g_1919>
    dc3d:	48 89 85 08 ef ff ff 	mov    %rax,-0x10f8(%rbp)
    dc44:	48 8d 05 59 99 00 00 	lea    0x9959(%rip),%rax        # 175a4 <g_1919>
    dc4b:	48 89 85 10 ef ff ff 	mov    %rax,-0x10f0(%rbp)
    dc52:	48 8d 05 4b 99 00 00 	lea    0x994b(%rip),%rax        # 175a4 <g_1919>
    dc59:	48 89 85 18 ef ff ff 	mov    %rax,-0x10e8(%rbp)
    dc60:	48 8d 05 39 99 00 00 	lea    0x9939(%rip),%rax        # 175a0 <g_1917>
    dc67:	48 89 85 20 ef ff ff 	mov    %rax,-0x10e0(%rbp)
    dc6e:	48 8d 05 2f 99 00 00 	lea    0x992f(%rip),%rax        # 175a4 <g_1919>
    dc75:	48 89 85 28 ef ff ff 	mov    %rax,-0x10d8(%rbp)
    dc7c:	48 8d 05 21 99 00 00 	lea    0x9921(%rip),%rax        # 175a4 <g_1919>
    dc83:	48 89 85 30 ef ff ff 	mov    %rax,-0x10d0(%rbp)
    dc8a:	48 8d 05 13 99 00 00 	lea    0x9913(%rip),%rax        # 175a4 <g_1919>
    dc91:	48 89 85 38 ef ff ff 	mov    %rax,-0x10c8(%rbp)
    dc98:	48 8d 05 01 99 00 00 	lea    0x9901(%rip),%rax        # 175a0 <g_1917>
    dc9f:	48 89 85 40 ef ff ff 	mov    %rax,-0x10c0(%rbp)
    dca6:	48 8d 05 f3 98 00 00 	lea    0x98f3(%rip),%rax        # 175a0 <g_1917>
    dcad:	48 89 85 48 ef ff ff 	mov    %rax,-0x10b8(%rbp)
    dcb4:	48 8d 05 e5 98 00 00 	lea    0x98e5(%rip),%rax        # 175a0 <g_1917>
    dcbb:	48 89 85 50 ef ff ff 	mov    %rax,-0x10b0(%rbp)
    dcc2:	48 8d 05 d7 98 00 00 	lea    0x98d7(%rip),%rax        # 175a0 <g_1917>
    dcc9:	48 89 85 58 ef ff ff 	mov    %rax,-0x10a8(%rbp)
    dcd0:	c7 85 a4 eb ff ff 00 	movl   $0x0,-0x145c(%rbp)
    dcd7:	00 00 00 
    dcda:	48 c7 85 f8 eb ff ff 	movq   $0x0,-0x1408(%rbp)
    dce1:	00 00 00 00 
    dce5:	48 8d 85 f8 eb ff ff 	lea    -0x1408(%rbp),%rax
    dcec:	48 89 85 00 ec ff ff 	mov    %rax,-0x1400(%rbp)
    dcf3:	48 8d 85 00 ec ff ff 	lea    -0x1400(%rbp),%rax
    dcfa:	48 89 85 08 ec ff ff 	mov    %rax,-0x13f8(%rbp)
    dd01:	48 8d 05 88 94 00 00 	lea    0x9488(%rip),%rax        # 17190 <g_95+0x90>
    dd08:	48 89 85 f0 f1 ff ff 	mov    %rax,-0xe10(%rbp)
    dd0f:	48 8d 85 7c eb ff ff 	lea    -0x1484(%rbp),%rax
    dd16:	48 89 85 f8 f1 ff ff 	mov    %rax,-0xe08(%rbp)
    dd1d:	48 8d 05 bc 93 00 00 	lea    0x93bc(%rip),%rax        # 170e0 <g_83>
    dd24:	48 89 85 00 f2 ff ff 	mov    %rax,-0xe00(%rbp)
    dd2b:	48 8d 85 b8 ed ff ff 	lea    -0x1248(%rbp),%rax
    dd32:	48 83 c0 08          	add    $0x8,%rax
    dd36:	48 89 85 08 f2 ff ff 	mov    %rax,-0xdf8(%rbp)
    dd3d:	48 8d 85 7c eb ff ff 	lea    -0x1484(%rbp),%rax
    dd44:	48 89 85 10 f2 ff ff 	mov    %rax,-0xdf0(%rbp)
    dd4b:	48 c7 85 18 f2 ff ff 	movq   $0x0,-0xde8(%rbp)
    dd52:	00 00 00 00 
    dd56:	48 8d 05 83 93 00 00 	lea    0x9383(%rip),%rax        # 170e0 <g_83>
    dd5d:	48 89 85 20 f2 ff ff 	mov    %rax,-0xde0(%rbp)
    dd64:	48 8d 05 75 93 00 00 	lea    0x9375(%rip),%rax        # 170e0 <g_83>
    dd6b:	48 89 85 28 f2 ff ff 	mov    %rax,-0xdd8(%rbp)
    dd72:	48 c7 85 30 f2 ff ff 	movq   $0x0,-0xdd0(%rbp)
    dd79:	00 00 00 00 
    dd7d:	48 8d 05 5c 93 00 00 	lea    0x935c(%rip),%rax        # 170e0 <g_83>
    dd84:	48 89 85 38 f2 ff ff 	mov    %rax,-0xdc8(%rbp)
    dd8b:	48 8d 85 b8 ed ff ff 	lea    -0x1248(%rbp),%rax
    dd92:	48 89 85 40 f2 ff ff 	mov    %rax,-0xdc0(%rbp)
    dd99:	48 8d 05 f0 93 00 00 	lea    0x93f0(%rip),%rax        # 17190 <g_95+0x90>
    dda0:	48 89 85 48 f2 ff ff 	mov    %rax,-0xdb8(%rbp)
    dda7:	48 8d 05 e2 93 00 00 	lea    0x93e2(%rip),%rax        # 17190 <g_95+0x90>
    ddae:	48 89 85 50 f2 ff ff 	mov    %rax,-0xdb0(%rbp)
    ddb5:	48 8d 85 b8 ed ff ff 	lea    -0x1248(%rbp),%rax
    ddbc:	48 89 85 58 f2 ff ff 	mov    %rax,-0xda8(%rbp)
    ddc3:	48 8d 05 16 93 00 00 	lea    0x9316(%rip),%rax        # 170e0 <g_83>
    ddca:	48 89 85 60 f2 ff ff 	mov    %rax,-0xda0(%rbp)
    ddd1:	48 c7 85 68 f2 ff ff 	movq   $0x0,-0xd98(%rbp)
    ddd8:	00 00 00 00 
    dddc:	48 8d 05 ad 92 00 00 	lea    0x92ad(%rip),%rax        # 17090 <g_4+0x50>
    dde3:	48 89 85 70 f2 ff ff 	mov    %rax,-0xd90(%rbp)
    ddea:	48 8d 05 9f 93 00 00 	lea    0x939f(%rip),%rax        # 17190 <g_95+0x90>
    ddf1:	48 89 85 78 f2 ff ff 	mov    %rax,-0xd88(%rbp)
    ddf8:	48 8d 05 e1 92 00 00 	lea    0x92e1(%rip),%rax        # 170e0 <g_83>
    ddff:	48 89 85 80 f2 ff ff 	mov    %rax,-0xd80(%rbp)
    de06:	48 c7 85 88 f2 ff ff 	movq   $0x0,-0xd78(%rbp)
    de0d:	00 00 00 00 
    de11:	48 8d 85 b8 ed ff ff 	lea    -0x1248(%rbp),%rax
    de18:	48 89 85 90 f2 ff ff 	mov    %rax,-0xd70(%rbp)
    de1f:	48 8d 05 6a 92 00 00 	lea    0x926a(%rip),%rax        # 17090 <g_4+0x50>
    de26:	48 89 85 98 f2 ff ff 	mov    %rax,-0xd68(%rbp)
    de2d:	48 c7 85 a0 f2 ff ff 	movq   $0x0,-0xd60(%rbp)
    de34:	00 00 00 00 
    de38:	48 8d 85 b8 ed ff ff 	lea    -0x1248(%rbp),%rax
    de3f:	48 83 c0 08          	add    $0x8,%rax
    de43:	48 89 85 a8 f2 ff ff 	mov    %rax,-0xd58(%rbp)
    de4a:	48 8d 85 b8 ed ff ff 	lea    -0x1248(%rbp),%rax
    de51:	48 89 85 b0 f2 ff ff 	mov    %rax,-0xd50(%rbp)
    de58:	48 8d 05 31 92 00 00 	lea    0x9231(%rip),%rax        # 17090 <g_4+0x50>
    de5f:	48 89 85 b8 f2 ff ff 	mov    %rax,-0xd48(%rbp)
    de66:	48 c7 85 c0 f2 ff ff 	movq   $0x0,-0xd40(%rbp)
    de6d:	00 00 00 00 
    de71:	48 8d 85 b8 ed ff ff 	lea    -0x1248(%rbp),%rax
    de78:	48 83 c0 08          	add    $0x8,%rax
    de7c:	48 89 85 c8 f2 ff ff 	mov    %rax,-0xd38(%rbp)
    de83:	48 c7 85 d0 f2 ff ff 	movq   $0x0,-0xd30(%rbp)
    de8a:	00 00 00 00 
    de8e:	48 8d 05 fb 91 00 00 	lea    0x91fb(%rip),%rax        # 17090 <g_4+0x50>
    de95:	48 89 85 d8 f2 ff ff 	mov    %rax,-0xd28(%rbp)
    de9c:	48 8d 85 b8 ed ff ff 	lea    -0x1248(%rbp),%rax
    dea3:	48 89 85 e0 f2 ff ff 	mov    %rax,-0xd20(%rbp)
    deaa:	48 c7 85 e8 f2 ff ff 	movq   $0x0,-0xd18(%rbp)
    deb1:	00 00 00 00 
    deb5:	48 c7 85 f0 f2 ff ff 	movq   $0x0,-0xd10(%rbp)
    debc:	00 00 00 00 
    dec0:	48 8d 05 c9 92 00 00 	lea    0x92c9(%rip),%rax        # 17190 <g_95+0x90>
    dec7:	48 89 85 f8 f2 ff ff 	mov    %rax,-0xd08(%rbp)
    dece:	48 8d 05 7b 96 00 00 	lea    0x967b(%rip),%rax        # 17550 <g_1276>
    ded5:	48 89 85 00 f3 ff ff 	mov    %rax,-0xd00(%rbp)
    dedc:	48 c7 85 08 f3 ff ff 	movq   $0x0,-0xcf8(%rbp)
    dee3:	00 00 00 00 
    dee7:	48 8d 05 f2 91 00 00 	lea    0x91f2(%rip),%rax        # 170e0 <g_83>
    deee:	48 89 85 10 f3 ff ff 	mov    %rax,-0xcf0(%rbp)
    def5:	48 8d 85 b8 ed ff ff 	lea    -0x1248(%rbp),%rax
    defc:	48 89 85 18 f3 ff ff 	mov    %rax,-0xce8(%rbp)
    df03:	48 8d 05 86 92 00 00 	lea    0x9286(%rip),%rax        # 17190 <g_95+0x90>
    df0a:	48 89 85 20 f3 ff ff 	mov    %rax,-0xce0(%rbp)
    df11:	48 8d 05 78 92 00 00 	lea    0x9278(%rip),%rax        # 17190 <g_95+0x90>
    df18:	48 89 85 28 f3 ff ff 	mov    %rax,-0xcd8(%rbp)
    df1f:	48 c7 85 30 f3 ff ff 	movq   $0x0,-0xcd0(%rbp)
    df26:	00 00 00 00 
    df2a:	48 8d 05 af 91 00 00 	lea    0x91af(%rip),%rax        # 170e0 <g_83>
    df31:	48 89 85 38 f3 ff ff 	mov    %rax,-0xcc8(%rbp)
    df38:	48 8d 05 a1 91 00 00 	lea    0x91a1(%rip),%rax        # 170e0 <g_83>
    df3f:	48 89 85 40 f3 ff ff 	mov    %rax,-0xcc0(%rbp)
    df46:	48 c7 85 48 f3 ff ff 	movq   $0x0,-0xcb8(%rbp)
    df4d:	00 00 00 00 
    df51:	48 8d 05 38 91 00 00 	lea    0x9138(%rip),%rax        # 17090 <g_4+0x50>
    df58:	48 89 85 50 f3 ff ff 	mov    %rax,-0xcb0(%rbp)
    df5f:	48 8d 85 b8 ed ff ff 	lea    -0x1248(%rbp),%rax
    df66:	48 89 85 58 f3 ff ff 	mov    %rax,-0xca8(%rbp)
    df6d:	48 8d 05 6c 91 00 00 	lea    0x916c(%rip),%rax        # 170e0 <g_83>
    df74:	48 89 85 60 f3 ff ff 	mov    %rax,-0xca0(%rbp)
    df7b:	48 8d 85 7c eb ff ff 	lea    -0x1484(%rbp),%rax
    df82:	48 89 85 68 f3 ff ff 	mov    %rax,-0xc98(%rbp)
    df89:	48 8d 05 50 91 00 00 	lea    0x9150(%rip),%rax        # 170e0 <g_83>
    df90:	48 89 85 70 f3 ff ff 	mov    %rax,-0xc90(%rbp)
    df97:	48 8d 05 42 91 00 00 	lea    0x9142(%rip),%rax        # 170e0 <g_83>
    df9e:	48 89 85 78 f3 ff ff 	mov    %rax,-0xc88(%rbp)
    dfa5:	48 8d 85 b8 ed ff ff 	lea    -0x1248(%rbp),%rax
    dfac:	48 89 85 80 f3 ff ff 	mov    %rax,-0xc80(%rbp)
    dfb3:	48 8d 05 b6 94 00 00 	lea    0x94b6(%rip),%rax        # 17470 <g_95+0x370>
    dfba:	48 89 85 88 f3 ff ff 	mov    %rax,-0xc78(%rbp)
    dfc1:	48 8d 85 b8 ed ff ff 	lea    -0x1248(%rbp),%rax
    dfc8:	48 89 85 90 f3 ff ff 	mov    %rax,-0xc70(%rbp)
    dfcf:	48 8d 85 b8 ed ff ff 	lea    -0x1248(%rbp),%rax
    dfd6:	48 89 85 98 f3 ff ff 	mov    %rax,-0xc68(%rbp)
    dfdd:	48 8d 05 ac 90 00 00 	lea    0x90ac(%rip),%rax        # 17090 <g_4+0x50>
    dfe4:	48 89 85 a0 f3 ff ff 	mov    %rax,-0xc60(%rbp)
    dfeb:	48 8d 85 b8 ed ff ff 	lea    -0x1248(%rbp),%rax
    dff2:	48 89 85 a8 f3 ff ff 	mov    %rax,-0xc58(%rbp)
    dff9:	48 8d 85 f0 f1 ff ff 	lea    -0xe10(%rbp),%rax
    e000:	48 83 c0 30          	add    $0x30,%rax
    e004:	48 89 85 10 ec ff ff 	mov    %rax,-0x13f0(%rbp)
    e00b:	48 8d 85 10 ec ff ff 	lea    -0x13f0(%rbp),%rax
    e012:	48 89 85 18 ec ff ff 	mov    %rax,-0x13e8(%rbp)
    e019:	c7 85 a8 eb ff ff ff 	movl   $0xffffffff,-0x1458(%rbp)
    e020:	ff ff ff 
    e023:	48 bb e8 82 3a 08 4f 	movabs $0xe8bcc84f083a82e8,%rbx
    e02a:	c8 bc e8 
    e02d:	48 89 9d 60 ef ff ff 	mov    %rbx,-0x10a0(%rbp)
    e034:	48 b9 3c 6f 25 72 5a 	movabs $0x3467255a72256f3c,%rcx
    e03b:	25 67 34 
    e03e:	48 89 8d 68 ef ff ff 	mov    %rcx,-0x1098(%rbp)
    e045:	48 89 9d 70 ef ff ff 	mov    %rbx,-0x1090(%rbp)
    e04c:	48 b8 cf 9c a9 3d f0 	movabs $0xbf70e2f03da99ccf,%rax
    e053:	e2 70 bf 
    e056:	48 89 85 78 ef ff ff 	mov    %rax,-0x1088(%rbp)
    e05d:	48 89 85 80 ef ff ff 	mov    %rax,-0x1080(%rbp)
    e064:	48 89 85 88 ef ff ff 	mov    %rax,-0x1078(%rbp)
    e06b:	48 89 9d 90 ef ff ff 	mov    %rbx,-0x1070(%rbp)
    e072:	48 89 8d 98 ef ff ff 	mov    %rcx,-0x1068(%rbp)
    e079:	48 89 9d a0 ef ff ff 	mov    %rbx,-0x1060(%rbp)
    e080:	48 89 85 a8 ef ff ff 	mov    %rax,-0x1058(%rbp)
    e087:	48 89 85 b0 ef ff ff 	mov    %rax,-0x1050(%rbp)
    e08e:	48 89 85 b8 ef ff ff 	mov    %rax,-0x1048(%rbp)
    e095:	48 89 9d c0 ef ff ff 	mov    %rbx,-0x1040(%rbp)
    e09c:	48 89 8d c8 ef ff ff 	mov    %rcx,-0x1038(%rbp)
    e0a3:	48 89 9d d0 ef ff ff 	mov    %rbx,-0x1030(%rbp)
    e0aa:	48 89 85 d8 ef ff ff 	mov    %rax,-0x1028(%rbp)
    e0b1:	48 89 85 e0 ef ff ff 	mov    %rax,-0x1020(%rbp)
    e0b8:	48 89 85 e8 ef ff ff 	mov    %rax,-0x1018(%rbp)
    e0bf:	48 89 9d f0 ef ff ff 	mov    %rbx,-0x1010(%rbp)
    e0c6:	48 89 8d f8 ef ff ff 	mov    %rcx,-0x1008(%rbp)
    e0cd:	48 89 9d 00 f0 ff ff 	mov    %rbx,-0x1000(%rbp)
    e0d4:	48 89 85 08 f0 ff ff 	mov    %rax,-0xff8(%rbp)
    e0db:	48 89 85 10 f0 ff ff 	mov    %rax,-0xff0(%rbp)
    e0e2:	48 89 85 18 f0 ff ff 	mov    %rax,-0xfe8(%rbp)
    e0e9:	48 89 9d 20 f0 ff ff 	mov    %rbx,-0xfe0(%rbp)
    e0f0:	48 89 8d 28 f0 ff ff 	mov    %rcx,-0xfd8(%rbp)
    e0f7:	48 89 9d 30 f0 ff ff 	mov    %rbx,-0xfd0(%rbp)
    e0fe:	48 8d 05 1b b1 00 00 	lea    0xb11b(%rip),%rax        # 19220 <g_1472>
    e105:	48 89 85 20 ec ff ff 	mov    %rax,-0x13e0(%rbp)
    e10c:	48 b8 e2 00 e0 b7 77 	movabs $0xbdf95877b7e000e2,%rax
    e113:	58 f9 bd 
    e116:	48 89 85 58 ec ff ff 	mov    %rax,-0x13a8(%rbp)
    e11d:	48 b8 41 71 bd 91 57 	movabs $0xd05e95791bd7141,%rax
    e124:	e9 05 0d 
    e127:	48 89 85 60 ec ff ff 	mov    %rax,-0x13a0(%rbp)
    e12e:	c7 85 ac eb ff ff fa 	movl   $0x1c519efa,-0x1454(%rbp)
    e135:	9e 51 1c 
    e138:	48 c7 85 28 ec ff ff 	movq   $0x0,-0x13d8(%rbp)
    e13f:	00 00 00 00 
    e143:	48 8d 85 28 ec ff ff 	lea    -0x13d8(%rbp),%rax
    e14a:	48 89 85 b0 f3 ff ff 	mov    %rax,-0xc50(%rbp)
    e151:	48 c7 85 b8 f3 ff ff 	movq   $0x0,-0xc48(%rbp)
    e158:	00 00 00 00 
    e15c:	48 8d 85 28 ec ff ff 	lea    -0x13d8(%rbp),%rax
    e163:	48 89 85 c0 f3 ff ff 	mov    %rax,-0xc40(%rbp)
    e16a:	48 8d 85 28 ec ff ff 	lea    -0x13d8(%rbp),%rax
    e171:	48 89 85 c8 f3 ff ff 	mov    %rax,-0xc38(%rbp)
    e178:	48 8d 85 28 ec ff ff 	lea    -0x13d8(%rbp),%rax
    e17f:	48 89 85 d0 f3 ff ff 	mov    %rax,-0xc30(%rbp)
    e186:	48 8d 85 28 ec ff ff 	lea    -0x13d8(%rbp),%rax
    e18d:	48 89 85 d8 f3 ff ff 	mov    %rax,-0xc28(%rbp)
    e194:	48 8d 85 28 ec ff ff 	lea    -0x13d8(%rbp),%rax
    e19b:	48 89 85 e0 f3 ff ff 	mov    %rax,-0xc20(%rbp)
    e1a2:	48 8d 85 28 ec ff ff 	lea    -0x13d8(%rbp),%rax
    e1a9:	48 89 85 e8 f3 ff ff 	mov    %rax,-0xc18(%rbp)
    e1b0:	48 8d 85 28 ec ff ff 	lea    -0x13d8(%rbp),%rax
    e1b7:	48 89 85 f0 f3 ff ff 	mov    %rax,-0xc10(%rbp)
    e1be:	48 8d 85 28 ec ff ff 	lea    -0x13d8(%rbp),%rax
    e1c5:	48 89 85 f8 f3 ff ff 	mov    %rax,-0xc08(%rbp)
    e1cc:	48 8d 85 28 ec ff ff 	lea    -0x13d8(%rbp),%rax
    e1d3:	48 89 85 00 f4 ff ff 	mov    %rax,-0xc00(%rbp)
    e1da:	48 8d 85 28 ec ff ff 	lea    -0x13d8(%rbp),%rax
    e1e1:	48 89 85 08 f4 ff ff 	mov    %rax,-0xbf8(%rbp)
    e1e8:	48 8d 85 28 ec ff ff 	lea    -0x13d8(%rbp),%rax
    e1ef:	48 89 85 10 f4 ff ff 	mov    %rax,-0xbf0(%rbp)
    e1f6:	48 8d 85 28 ec ff ff 	lea    -0x13d8(%rbp),%rax
    e1fd:	48 89 85 18 f4 ff ff 	mov    %rax,-0xbe8(%rbp)
    e204:	48 8d 85 28 ec ff ff 	lea    -0x13d8(%rbp),%rax
    e20b:	48 89 85 20 f4 ff ff 	mov    %rax,-0xbe0(%rbp)
    e212:	48 8d 85 28 ec ff ff 	lea    -0x13d8(%rbp),%rax
    e219:	48 89 85 28 f4 ff ff 	mov    %rax,-0xbd8(%rbp)
    e220:	48 8d 85 28 ec ff ff 	lea    -0x13d8(%rbp),%rax
    e227:	48 89 85 30 f4 ff ff 	mov    %rax,-0xbd0(%rbp)
    e22e:	48 8d 85 28 ec ff ff 	lea    -0x13d8(%rbp),%rax
    e235:	48 89 85 38 f4 ff ff 	mov    %rax,-0xbc8(%rbp)
    e23c:	48 8d 85 28 ec ff ff 	lea    -0x13d8(%rbp),%rax
    e243:	48 89 85 40 f4 ff ff 	mov    %rax,-0xbc0(%rbp)
    e24a:	48 8d 85 28 ec ff ff 	lea    -0x13d8(%rbp),%rax
    e251:	48 89 85 48 f4 ff ff 	mov    %rax,-0xbb8(%rbp)
    e258:	48 8d 85 28 ec ff ff 	lea    -0x13d8(%rbp),%rax
    e25f:	48 89 85 50 f4 ff ff 	mov    %rax,-0xbb0(%rbp)
    e266:	48 8d 85 28 ec ff ff 	lea    -0x13d8(%rbp),%rax
    e26d:	48 89 85 58 f4 ff ff 	mov    %rax,-0xba8(%rbp)
    e274:	48 8d 85 28 ec ff ff 	lea    -0x13d8(%rbp),%rax
    e27b:	48 89 85 60 f4 ff ff 	mov    %rax,-0xba0(%rbp)
    e282:	48 8d 85 28 ec ff ff 	lea    -0x13d8(%rbp),%rax
    e289:	48 89 85 68 f4 ff ff 	mov    %rax,-0xb98(%rbp)
    e290:	48 8d 85 28 ec ff ff 	lea    -0x13d8(%rbp),%rax
    e297:	48 89 85 70 f4 ff ff 	mov    %rax,-0xb90(%rbp)
    e29e:	48 c7 85 78 f4 ff ff 	movq   $0x0,-0xb88(%rbp)
    e2a5:	00 00 00 00 
    e2a9:	48 8d 85 28 ec ff ff 	lea    -0x13d8(%rbp),%rax
    e2b0:	48 89 85 80 f4 ff ff 	mov    %rax,-0xb80(%rbp)
    e2b7:	48 8d 85 28 ec ff ff 	lea    -0x13d8(%rbp),%rax
    e2be:	48 89 85 88 f4 ff ff 	mov    %rax,-0xb78(%rbp)
    e2c5:	48 8d 85 28 ec ff ff 	lea    -0x13d8(%rbp),%rax
    e2cc:	48 89 85 90 f4 ff ff 	mov    %rax,-0xb70(%rbp)
    e2d3:	48 8d 85 28 ec ff ff 	lea    -0x13d8(%rbp),%rax
    e2da:	48 89 85 98 f4 ff ff 	mov    %rax,-0xb68(%rbp)
    e2e1:	48 8d 85 28 ec ff ff 	lea    -0x13d8(%rbp),%rax
    e2e8:	48 89 85 a0 f4 ff ff 	mov    %rax,-0xb60(%rbp)
    e2ef:	48 8d 85 28 ec ff ff 	lea    -0x13d8(%rbp),%rax
    e2f6:	48 89 85 a8 f4 ff ff 	mov    %rax,-0xb58(%rbp)
    e2fd:	48 8d 85 28 ec ff ff 	lea    -0x13d8(%rbp),%rax
    e304:	48 89 85 b0 f4 ff ff 	mov    %rax,-0xb50(%rbp)
    e30b:	48 8d 85 28 ec ff ff 	lea    -0x13d8(%rbp),%rax
    e312:	48 89 85 b8 f4 ff ff 	mov    %rax,-0xb48(%rbp)
    e319:	48 c7 85 c0 f4 ff ff 	movq   $0x0,-0xb40(%rbp)
    e320:	00 00 00 00 
    e324:	48 8d 85 28 ec ff ff 	lea    -0x13d8(%rbp),%rax
    e32b:	48 89 85 c8 f4 ff ff 	mov    %rax,-0xb38(%rbp)
    e332:	48 c7 85 d0 f4 ff ff 	movq   $0x0,-0xb30(%rbp)
    e339:	00 00 00 00 
    e33d:	48 8d 85 28 ec ff ff 	lea    -0x13d8(%rbp),%rax
    e344:	48 89 85 d8 f4 ff ff 	mov    %rax,-0xb28(%rbp)
    e34b:	48 8d 85 28 ec ff ff 	lea    -0x13d8(%rbp),%rax
    e352:	48 89 85 e0 f4 ff ff 	mov    %rax,-0xb20(%rbp)
    e359:	48 8d 85 28 ec ff ff 	lea    -0x13d8(%rbp),%rax
    e360:	48 89 85 e8 f4 ff ff 	mov    %rax,-0xb18(%rbp)
    e367:	48 c7 85 f0 f4 ff ff 	movq   $0x0,-0xb10(%rbp)
    e36e:	00 00 00 00 
    e372:	48 c7 85 f8 f4 ff ff 	movq   $0x0,-0xb08(%rbp)
    e379:	00 00 00 00 
    e37d:	48 8d 85 28 ec ff ff 	lea    -0x13d8(%rbp),%rax
    e384:	48 89 85 00 f5 ff ff 	mov    %rax,-0xb00(%rbp)
    e38b:	48 8d 85 28 ec ff ff 	lea    -0x13d8(%rbp),%rax
    e392:	48 89 85 08 f5 ff ff 	mov    %rax,-0xaf8(%rbp)
    e399:	48 8d 85 28 ec ff ff 	lea    -0x13d8(%rbp),%rax
    e3a0:	48 89 85 10 f5 ff ff 	mov    %rax,-0xaf0(%rbp)
    e3a7:	48 8d 85 28 ec ff ff 	lea    -0x13d8(%rbp),%rax
    e3ae:	48 89 85 18 f5 ff ff 	mov    %rax,-0xae8(%rbp)
    e3b5:	48 8d 85 28 ec ff ff 	lea    -0x13d8(%rbp),%rax
    e3bc:	48 89 85 20 f5 ff ff 	mov    %rax,-0xae0(%rbp)
    e3c3:	48 8d 85 28 ec ff ff 	lea    -0x13d8(%rbp),%rax
    e3ca:	48 89 85 28 f5 ff ff 	mov    %rax,-0xad8(%rbp)
    e3d1:	48 8d 85 28 ec ff ff 	lea    -0x13d8(%rbp),%rax
    e3d8:	48 89 85 30 f5 ff ff 	mov    %rax,-0xad0(%rbp)
    e3df:	48 c7 85 38 f5 ff ff 	movq   $0x0,-0xac8(%rbp)
    e3e6:	00 00 00 00 
    e3ea:	48 8d 85 28 ec ff ff 	lea    -0x13d8(%rbp),%rax
    e3f1:	48 89 85 40 f5 ff ff 	mov    %rax,-0xac0(%rbp)
    e3f8:	48 8d 85 28 ec ff ff 	lea    -0x13d8(%rbp),%rax
    e3ff:	48 89 85 48 f5 ff ff 	mov    %rax,-0xab8(%rbp)
    e406:	48 c7 85 50 f5 ff ff 	movq   $0x0,-0xab0(%rbp)
    e40d:	00 00 00 00 
    e411:	48 8d 85 28 ec ff ff 	lea    -0x13d8(%rbp),%rax
    e418:	48 89 85 58 f5 ff ff 	mov    %rax,-0xaa8(%rbp)
    e41f:	48 8d 85 28 ec ff ff 	lea    -0x13d8(%rbp),%rax
    e426:	48 89 85 60 f5 ff ff 	mov    %rax,-0xaa0(%rbp)
    e42d:	48 8d 85 28 ec ff ff 	lea    -0x13d8(%rbp),%rax
    e434:	48 89 85 68 f5 ff ff 	mov    %rax,-0xa98(%rbp)
    e43b:	48 8d 85 28 ec ff ff 	lea    -0x13d8(%rbp),%rax
    e442:	48 89 85 70 f5 ff ff 	mov    %rax,-0xa90(%rbp)
    e449:	48 8d 85 28 ec ff ff 	lea    -0x13d8(%rbp),%rax
    e450:	48 89 85 78 f5 ff ff 	mov    %rax,-0xa88(%rbp)
    e457:	48 8d 85 28 ec ff ff 	lea    -0x13d8(%rbp),%rax
    e45e:	48 89 85 80 f5 ff ff 	mov    %rax,-0xa80(%rbp)
    e465:	48 8d 85 28 ec ff ff 	lea    -0x13d8(%rbp),%rax
    e46c:	48 89 85 88 f5 ff ff 	mov    %rax,-0xa78(%rbp)
    e473:	48 c7 85 90 f5 ff ff 	movq   $0x0,-0xa70(%rbp)
    e47a:	00 00 00 00 
    e47e:	48 8d 85 28 ec ff ff 	lea    -0x13d8(%rbp),%rax
    e485:	48 89 85 98 f5 ff ff 	mov    %rax,-0xa68(%rbp)
    e48c:	48 8d 85 28 ec ff ff 	lea    -0x13d8(%rbp),%rax
    e493:	48 89 85 a0 f5 ff ff 	mov    %rax,-0xa60(%rbp)
    e49a:	48 8d 85 28 ec ff ff 	lea    -0x13d8(%rbp),%rax
    e4a1:	48 89 85 a8 f5 ff ff 	mov    %rax,-0xa58(%rbp)
    e4a8:	48 8d 85 28 ec ff ff 	lea    -0x13d8(%rbp),%rax
    e4af:	48 89 85 b0 f5 ff ff 	mov    %rax,-0xa50(%rbp)
    e4b6:	48 8d 85 28 ec ff ff 	lea    -0x13d8(%rbp),%rax
    e4bd:	48 89 85 b8 f5 ff ff 	mov    %rax,-0xa48(%rbp)
    e4c4:	48 8d 85 28 ec ff ff 	lea    -0x13d8(%rbp),%rax
    e4cb:	48 89 85 c0 f5 ff ff 	mov    %rax,-0xa40(%rbp)
    e4d2:	48 c7 85 c8 f5 ff ff 	movq   $0x0,-0xa38(%rbp)
    e4d9:	00 00 00 00 
    e4dd:	48 8d 85 28 ec ff ff 	lea    -0x13d8(%rbp),%rax
    e4e4:	48 89 85 d0 f5 ff ff 	mov    %rax,-0xa30(%rbp)
    e4eb:	48 c7 85 d8 f5 ff ff 	movq   $0x0,-0xa28(%rbp)
    e4f2:	00 00 00 00 
    e4f6:	48 8d 85 28 ec ff ff 	lea    -0x13d8(%rbp),%rax
    e4fd:	48 89 85 e0 f5 ff ff 	mov    %rax,-0xa20(%rbp)
    e504:	48 8d 85 28 ec ff ff 	lea    -0x13d8(%rbp),%rax
    e50b:	48 89 85 e8 f5 ff ff 	mov    %rax,-0xa18(%rbp)
    e512:	48 8d 85 28 ec ff ff 	lea    -0x13d8(%rbp),%rax
    e519:	48 89 85 f0 f5 ff ff 	mov    %rax,-0xa10(%rbp)
    e520:	48 8d 85 28 ec ff ff 	lea    -0x13d8(%rbp),%rax
    e527:	48 89 85 f8 f5 ff ff 	mov    %rax,-0xa08(%rbp)
    e52e:	48 8d 85 28 ec ff ff 	lea    -0x13d8(%rbp),%rax
    e535:	48 89 85 00 f6 ff ff 	mov    %rax,-0xa00(%rbp)
    e53c:	48 c7 85 08 f6 ff ff 	movq   $0x0,-0x9f8(%rbp)
    e543:	00 00 00 00 
    e547:	48 8d 85 28 ec ff ff 	lea    -0x13d8(%rbp),%rax
    e54e:	48 89 85 10 f6 ff ff 	mov    %rax,-0x9f0(%rbp)
    e555:	48 8d 85 28 ec ff ff 	lea    -0x13d8(%rbp),%rax
    e55c:	48 89 85 18 f6 ff ff 	mov    %rax,-0x9e8(%rbp)
    e563:	48 8d 85 28 ec ff ff 	lea    -0x13d8(%rbp),%rax
    e56a:	48 89 85 20 f6 ff ff 	mov    %rax,-0x9e0(%rbp)
    e571:	48 8d 85 28 ec ff ff 	lea    -0x13d8(%rbp),%rax
    e578:	48 89 85 28 f6 ff ff 	mov    %rax,-0x9d8(%rbp)
    e57f:	48 8d 85 28 ec ff ff 	lea    -0x13d8(%rbp),%rax
    e586:	48 89 85 30 f6 ff ff 	mov    %rax,-0x9d0(%rbp)
    e58d:	48 8d 85 28 ec ff ff 	lea    -0x13d8(%rbp),%rax
    e594:	48 89 85 38 f6 ff ff 	mov    %rax,-0x9c8(%rbp)
    e59b:	48 8d 85 28 ec ff ff 	lea    -0x13d8(%rbp),%rax
    e5a2:	48 89 85 40 f6 ff ff 	mov    %rax,-0x9c0(%rbp)
    e5a9:	48 8d 85 28 ec ff ff 	lea    -0x13d8(%rbp),%rax
    e5b0:	48 89 85 48 f6 ff ff 	mov    %rax,-0x9b8(%rbp)
    e5b7:	48 8d 85 28 ec ff ff 	lea    -0x13d8(%rbp),%rax
    e5be:	48 89 85 50 f6 ff ff 	mov    %rax,-0x9b0(%rbp)
    e5c5:	48 8d 85 28 ec ff ff 	lea    -0x13d8(%rbp),%rax
    e5cc:	48 89 85 58 f6 ff ff 	mov    %rax,-0x9a8(%rbp)
    e5d3:	48 c7 85 60 f6 ff ff 	movq   $0x0,-0x9a0(%rbp)
    e5da:	00 00 00 00 
    e5de:	48 c7 85 68 f6 ff ff 	movq   $0x0,-0x998(%rbp)
    e5e5:	00 00 00 00 
    e5e9:	48 c7 85 70 f6 ff ff 	movq   $0x0,-0x990(%rbp)
    e5f0:	00 00 00 00 
    e5f4:	48 8d 85 28 ec ff ff 	lea    -0x13d8(%rbp),%rax
    e5fb:	48 89 85 78 f6 ff ff 	mov    %rax,-0x988(%rbp)
    e602:	48 8d 85 28 ec ff ff 	lea    -0x13d8(%rbp),%rax
    e609:	48 89 85 80 f6 ff ff 	mov    %rax,-0x980(%rbp)
    e610:	48 c7 85 88 f6 ff ff 	movq   $0x0,-0x978(%rbp)
    e617:	00 00 00 00 
    e61b:	48 8d 85 28 ec ff ff 	lea    -0x13d8(%rbp),%rax
    e622:	48 89 85 90 f6 ff ff 	mov    %rax,-0x970(%rbp)
    e629:	48 c7 85 98 f6 ff ff 	movq   $0x0,-0x968(%rbp)
    e630:	00 00 00 00 
    e634:	48 8d 85 28 ec ff ff 	lea    -0x13d8(%rbp),%rax
    e63b:	48 89 85 a0 f6 ff ff 	mov    %rax,-0x960(%rbp)
    e642:	48 8d 85 28 ec ff ff 	lea    -0x13d8(%rbp),%rax
    e649:	48 89 85 a8 f6 ff ff 	mov    %rax,-0x958(%rbp)
    e650:	48 8d 85 28 ec ff ff 	lea    -0x13d8(%rbp),%rax
    e657:	48 89 85 b0 f6 ff ff 	mov    %rax,-0x950(%rbp)
    e65e:	48 8d 85 28 ec ff ff 	lea    -0x13d8(%rbp),%rax
    e665:	48 89 85 b8 f6 ff ff 	mov    %rax,-0x948(%rbp)
    e66c:	48 8d 85 28 ec ff ff 	lea    -0x13d8(%rbp),%rax
    e673:	48 89 85 c0 f6 ff ff 	mov    %rax,-0x940(%rbp)
    e67a:	48 8d 85 28 ec ff ff 	lea    -0x13d8(%rbp),%rax
    e681:	48 89 85 c8 f6 ff ff 	mov    %rax,-0x938(%rbp)
    e688:	c7 85 8c eb ff ff 00 	movl   $0x0,-0x1474(%rbp)
    e68f:	00 00 00 
    e692:	eb 46                	jmp    e6da <func_29+0x1239>
    e694:	c7 85 90 eb ff ff 00 	movl   $0x0,-0x1470(%rbp)
    e69b:	00 00 00 
    e69e:	eb 2a                	jmp    e6ca <func_29+0x1229>
    e6a0:	8b 85 90 eb ff ff    	mov    -0x1470(%rbp),%eax
    e6a6:	48 63 d0             	movslq %eax,%rdx
    e6a9:	8b 85 8c eb ff ff    	mov    -0x1474(%rbp),%eax
    e6af:	48 98                	cltq   
    e6b1:	48 01 d0             	add    %rdx,%rax
    e6b4:	48 8d 15 8d 8e 00 00 	lea    0x8e8d(%rip),%rdx        # 17548 <g_891>
    e6bb:	48 89 94 c5 20 ee ff 	mov    %rdx,-0x11e0(%rbp,%rax,8)
    e6c2:	ff 
    e6c3:	83 85 90 eb ff ff 01 	addl   $0x1,-0x1470(%rbp)
    e6ca:	83 bd 90 eb ff ff 00 	cmpl   $0x0,-0x1470(%rbp)
    e6d1:	7e cd                	jle    e6a0 <func_29+0x11ff>
    e6d3:	83 85 8c eb ff ff 01 	addl   $0x1,-0x1474(%rbp)
    e6da:	83 bd 8c eb ff ff 03 	cmpl   $0x3,-0x1474(%rbp)
    e6e1:	7e b1                	jle    e694 <func_29+0x11f3>
    e6e3:	c7 85 8c eb ff ff 00 	movl   $0x0,-0x1474(%rbp)
    e6ea:	00 00 00 
    e6ed:	eb 1a                	jmp    e709 <func_29+0x1268>
    e6ef:	8b 85 8c eb ff ff    	mov    -0x1474(%rbp),%eax
    e6f5:	48 98                	cltq   
    e6f7:	c7 84 85 b8 ed ff ff 	movl   $0xffffffff,-0x1248(%rbp,%rax,4)
    e6fe:	ff ff ff ff 
    e702:	83 85 8c eb ff ff 01 	addl   $0x1,-0x1474(%rbp)
    e709:	83 bd 8c eb ff ff 02 	cmpl   $0x2,-0x1474(%rbp)
    e710:	7e dd                	jle    e6ef <func_29+0x124e>
    e712:	c7 85 8c eb ff ff 00 	movl   $0x0,-0x1474(%rbp)
    e719:	00 00 00 
    e71c:	eb 1e                	jmp    e73c <func_29+0x129b>
    e71e:	8b 85 8c eb ff ff    	mov    -0x1474(%rbp),%eax
    e724:	48 98                	cltq   
    e726:	48 8d 15 db b1 00 00 	lea    0xb1db(%rip),%rdx        # 19908 <g_68>
    e72d:	48 89 94 c5 e0 ed ff 	mov    %rdx,-0x1220(%rbp,%rax,8)
    e734:	ff 
    e735:	83 85 8c eb ff ff 01 	addl   $0x1,-0x1474(%rbp)
    e73c:	83 bd 8c eb ff ff 02 	cmpl   $0x2,-0x1474(%rbp)
    e743:	7e d9                	jle    e71e <func_29+0x127d>
    e745:	c7 85 8c eb ff ff 00 	movl   $0x0,-0x1474(%rbp)
    e74c:	00 00 00 
    e74f:	eb 25                	jmp    e776 <func_29+0x12d5>
    e751:	8b 85 8c eb ff ff    	mov    -0x1474(%rbp),%eax
    e757:	48 98                	cltq   
    e759:	48 8d 95 30 fa ff ff 	lea    -0x5d0(%rbp),%rdx
    e760:	48 81 c2 b8 00 00 00 	add    $0xb8,%rdx
    e767:	48 89 94 c5 80 ee ff 	mov    %rdx,-0x1180(%rbp,%rax,8)
    e76e:	ff 
    e76f:	83 85 8c eb ff ff 01 	addl   $0x1,-0x1474(%rbp)
    e776:	83 bd 8c eb ff ff 09 	cmpl   $0x9,-0x1474(%rbp)
    e77d:	7e d2                	jle    e751 <func_29+0x12b0>
    e77f:	c7 85 8c eb ff ff 00 	movl   $0x0,-0x1474(%rbp)
    e786:	00 00 00 
    e789:	eb 1e                	jmp    e7a9 <func_29+0x1308>
    e78b:	8b 85 8c eb ff ff    	mov    -0x1474(%rbp),%eax
    e791:	48 98                	cltq   
    e793:	48 8d 95 e0 eb ff ff 	lea    -0x1420(%rbp),%rdx
    e79a:	48 89 94 c5 d0 ed ff 	mov    %rdx,-0x1230(%rbp,%rax,8)
    e7a1:	ff 
    e7a2:	83 85 8c eb ff ff 01 	addl   $0x1,-0x1474(%rbp)
    e7a9:	83 bd 8c eb ff ff 01 	cmpl   $0x1,-0x1474(%rbp)
    e7b0:	7e d9                	jle    e78b <func_29+0x12ea>
    e7b2:	c7 85 8c eb ff ff 00 	movl   $0x0,-0x1474(%rbp)
    e7b9:	00 00 00 
    e7bc:	eb 1e                	jmp    e7dc <func_29+0x133b>
    e7be:	8b 85 8c eb ff ff    	mov    -0x1474(%rbp),%eax
    e7c4:	48 98                	cltq   
    e7c6:	48 8d 95 18 ec ff ff 	lea    -0x13e8(%rbp),%rdx
    e7cd:	48 89 94 c5 40 ee ff 	mov    %rdx,-0x11c0(%rbp,%rax,8)
    e7d4:	ff 
    e7d5:	83 85 8c eb ff ff 01 	addl   $0x1,-0x1474(%rbp)
    e7dc:	83 bd 8c eb ff ff 06 	cmpl   $0x6,-0x1474(%rbp)
    e7e3:	7e d9                	jle    e7be <func_29+0x131d>
    e7e5:	66 c7 05 5e 8d 00 00 	movw   $0x12,0x8d5e(%rip)        # 1754c <g_1043>
    e7ec:	12 00 
    e7ee:	e9 64 02 00 00       	jmpq   ea57 <func_29+0x15b6>
    e7f3:	48 8d 05 56 8d 00 00 	lea    0x8d56(%rip),%rax        # 17550 <g_1276>
    e7fa:	48 89 85 e0 ec ff ff 	mov    %rax,-0x1320(%rbp)
    e801:	48 8d 05 d8 88 00 00 	lea    0x88d8(%rip),%rax        # 170e0 <g_83>
    e808:	48 89 85 e8 ec ff ff 	mov    %rax,-0x1318(%rbp)
    e80f:	48 8d 05 5a 8c 00 00 	lea    0x8c5a(%rip),%rax        # 17470 <g_95+0x370>
    e816:	48 89 85 f0 ec ff ff 	mov    %rax,-0x1310(%rbp)
    e81d:	c7 85 84 eb ff ff f9 	movl   $0xfffffff9,-0x147c(%rbp)
    e824:	ff ff ff 
    e827:	48 8d 85 84 eb ff ff 	lea    -0x147c(%rbp),%rax
    e82e:	48 89 85 f8 ec ff ff 	mov    %rax,-0x1308(%rbp)
    e835:	48 8d 05 a8 88 00 00 	lea    0x88a8(%rip),%rax        # 170e4 <g_90>
    e83c:	48 89 85 00 ed ff ff 	mov    %rax,-0x1300(%rbp)
    e843:	48 c7 85 08 ed ff ff 	movq   $0x0,-0x12f8(%rbp)
    e84a:	00 00 00 00 
    e84e:	48 8d 05 fb 8c 00 00 	lea    0x8cfb(%rip),%rax        # 17550 <g_1276>
    e855:	48 89 85 10 ed ff ff 	mov    %rax,-0x12f0(%rbp)
    e85c:	48 c7 85 18 ed ff ff 	movq   $0x0,-0x12e8(%rbp)
    e863:	00 00 00 00 
    e867:	c7 85 88 eb ff ff 66 	movl   $0x8bb79766,-0x1478(%rbp)
    e86e:	97 b7 8b 
    e871:	48 8d 05 f8 8b 00 00 	lea    0x8bf8(%rip),%rax        # 17470 <g_95+0x370>
    e878:	48 89 85 20 ed ff ff 	mov    %rax,-0x12e0(%rbp)
    e87f:	48 8d 85 88 eb ff ff 	lea    -0x1478(%rbp),%rax
    e886:	48 89 85 28 ed ff ff 	mov    %rax,-0x12d8(%rbp)
    e88d:	48 c7 85 30 ed ff ff 	movq   $0x0,-0x12d0(%rbp)
    e894:	00 00 00 00 
    e898:	48 c7 85 38 ed ff ff 	movq   $0x0,-0x12c8(%rbp)
    e89f:	00 00 00 00 
    e8a3:	48 8d 05 ee 89 00 00 	lea    0x89ee(%rip),%rax        # 17298 <g_95+0x198>
    e8aa:	48 89 85 40 ed ff ff 	mov    %rax,-0x12c0(%rbp)
    e8b1:	48 8d 05 2c 88 00 00 	lea    0x882c(%rip),%rax        # 170e4 <g_90>
    e8b8:	48 89 85 48 ed ff ff 	mov    %rax,-0x12b8(%rbp)
    e8bf:	c7 85 c0 eb ff ff 6b 	movl   $0x6c8726b,-0x1440(%rbp)
    e8c6:	72 c8 06 
    e8c9:	48 8d 85 88 eb ff ff 	lea    -0x1478(%rbp),%rax
    e8d0:	48 89 85 50 ed ff ff 	mov    %rax,-0x12b0(%rbp)
    e8d7:	48 8d 05 06 88 00 00 	lea    0x8806(%rip),%rax        # 170e4 <g_90>
    e8de:	48 89 85 58 ed ff ff 	mov    %rax,-0x12a8(%rbp)
    e8e5:	48 8d 05 f4 87 00 00 	lea    0x87f4(%rip),%rax        # 170e0 <g_83>
    e8ec:	48 89 85 60 ed ff ff 	mov    %rax,-0x12a0(%rbp)
    e8f3:	48 8d 05 9a 88 00 00 	lea    0x889a(%rip),%rax        # 17194 <g_95+0x94>
    e8fa:	48 89 85 68 ed ff ff 	mov    %rax,-0x1298(%rbp)
    e901:	48 8d 05 d8 87 00 00 	lea    0x87d8(%rip),%rax        # 170e0 <g_83>
    e908:	48 89 85 70 ed ff ff 	mov    %rax,-0x1290(%rbp)
    e90f:	48 8d 05 ca 87 00 00 	lea    0x87ca(%rip),%rax        # 170e0 <g_83>
    e916:	48 89 85 78 ed ff ff 	mov    %rax,-0x1288(%rbp)
    e91d:	48 8d 85 d0 f6 ff ff 	lea    -0x930(%rbp),%rax
    e924:	48 8d 15 15 8d 00 00 	lea    0x8d15(%rip),%rdx        # 17640 <g_2974+0x10>
    e92b:	b9 6c 00 00 00       	mov    $0x6c,%ecx
    e930:	48 89 c7             	mov    %rax,%rdi
    e933:	48 89 d6             	mov    %rdx,%rsi
    e936:	f3 48 a5             	rep movsq %ds:(%rsi),%es:(%rdi)
    e939:	c7 85 c4 eb ff ff 13 	movl   $0x87f62f13,-0x143c(%rbp)
    e940:	2f f6 87 
    e943:	48 8d 05 be a2 00 00 	lea    0xa2be(%rip),%rax        # 18c08 <g_363>
    e94a:	48 89 85 80 ed ff ff 	mov    %rax,-0x1280(%rbp)
    e951:	c7 85 c8 eb ff ff 59 	movl   $0xf4223c59,-0x1438(%rbp)
    e958:	3c 22 f4 
    e95b:	48 b8 af d3 68 34 bf 	movabs $0x27d9e4bf3468d3af,%rax
    e962:	e4 d9 27 
    e965:	48 89 85 88 ed ff ff 	mov    %rax,-0x1278(%rbp)
    e96c:	48 c7 85 90 ed ff ff 	movq   $0x0,-0x1270(%rbp)
    e973:	00 00 00 00 
    e977:	c7 85 cc eb ff ff b2 	movl   $0x6b1ea4b2,-0x1434(%rbp)
    e97e:	a4 1e 6b 
    e981:	c7 85 d0 eb ff ff fc 	movl   $0xfffffffc,-0x1430(%rbp)
    e988:	ff ff ff 
    e98b:	c7 85 d4 eb ff ff 47 	movl   $0x3f70bf47,-0x142c(%rbp)
    e992:	bf 70 3f 
    e995:	c6 85 73 eb ff ff af 	movb   $0xaf,-0x148d(%rbp)
    e99c:	48 c7 85 98 ed ff ff 	movq   $0x0,-0x1268(%rbp)
    e9a3:	00 00 00 00 
    e9a7:	48 c7 85 a0 ed ff ff 	movq   $0x0,-0x1260(%rbp)
    e9ae:	00 00 00 00 
    e9b2:	48 8d 05 5a 8b 00 00 	lea    0x8b5a(%rip),%rax        # 17513 <g_242+0x13>
    e9b9:	48 89 85 a8 ed ff ff 	mov    %rax,-0x1258(%rbp)
    e9c0:	48 8d 05 69 8b 00 00 	lea    0x8b69(%rip),%rax        # 17530 <g_407>
    e9c7:	48 89 85 b0 ed ff ff 	mov    %rax,-0x1250(%rbp)
    e9ce:	c7 85 94 eb ff ff 00 	movl   $0x0,-0x146c(%rbp)
    e9d5:	00 00 00 
    e9d8:	eb 19                	jmp    e9f3 <func_29+0x1552>
    e9da:	8b 85 94 eb ff ff    	mov    -0x146c(%rbp),%eax
    e9e0:	48 98                	cltq   
    e9e2:	66 c7 84 45 00 ee ff 	movw   $0x64e8,-0x1200(%rbp,%rax,2)
    e9e9:	ff e8 64 
    e9ec:	83 85 94 eb ff ff 01 	addl   $0x1,-0x146c(%rbp)
    e9f3:	83 bd 94 eb ff ff 07 	cmpl   $0x7,-0x146c(%rbp)
    e9fa:	7e de                	jle    e9da <func_29+0x1539>
    e9fc:	c7 85 94 eb ff ff 00 	movl   $0x0,-0x146c(%rbp)
    ea03:	00 00 00 
    ea06:	eb 1a                	jmp    ea22 <func_29+0x1581>
    ea08:	8b 85 94 eb ff ff    	mov    -0x146c(%rbp),%eax
    ea0e:	48 98                	cltq   
    ea10:	c7 84 85 c4 ed ff ff 	movl   $0x0,-0x123c(%rbp,%rax,4)
    ea17:	00 00 00 00 
    ea1b:	83 85 94 eb ff ff 01 	addl   $0x1,-0x146c(%rbp)
    ea22:	83 bd 94 eb ff ff 02 	cmpl   $0x2,-0x146c(%rbp)
    ea29:	7e dd                	jle    ea08 <func_29+0x1567>
    ea2b:	8b 85 48 f1 ff ff    	mov    -0xeb8(%rbp),%eax
    ea31:	83 c0 01             	add    $0x1,%eax
    ea34:	89 85 48 f1 ff ff    	mov    %eax,-0xeb8(%rbp)
    ea3a:	0f b7 05 0b 8b 00 00 	movzwl 0x8b0b(%rip),%eax        # 1754c <g_1043>
    ea41:	0f b7 c0             	movzwl %ax,%eax
    ea44:	be 03 00 00 00       	mov    $0x3,%esi
    ea49:	89 c7                	mov    %eax,%edi
    ea4b:	e8 cf 82 ff ff       	callq  6d1f <safe_sub_func_uint16_t_u_u>
    ea50:	66 89 05 f5 8a 00 00 	mov    %ax,0x8af5(%rip)        # 1754c <g_1043>
    ea57:	0f b7 05 ee 8a 00 00 	movzwl 0x8aee(%rip),%eax        # 1754c <g_1043>
    ea5e:	66 83 f8 ee          	cmp    $0xffee,%ax
    ea62:	0f 85 8b fd ff ff    	jne    e7f3 <func_29+0x1352>
    ea68:	0f b7 05 2d 8b 00 00 	movzwl 0x8b2d(%rip),%eax        # 1759c <g_1806+0xc>
    ea6f:	66 85 c0             	test   %ax,%ax
    ea72:	74 28                	je     ea9c <func_29+0x15fb>
    ea74:	48 8d 85 b8 ed ff ff 	lea    -0x1248(%rbp),%rax
    ea7b:	48 83 c0 08          	add    $0x8,%rax
    ea7f:	48 89 85 a0 ec ff ff 	mov    %rax,-0x1360(%rbp)
    ea86:	48 8b 05 7b a1 00 00 	mov    0xa17b(%rip),%rax        # 18c08 <g_363>
    ea8d:	48 8b 95 a0 ec ff ff 	mov    -0x1360(%rbp),%rdx
    ea94:	48 89 10             	mov    %rdx,(%rax)
    ea97:	e9 c3 06 00 00       	jmpq   f15f <func_29+0x1cbe>
    ea9c:	c7 85 88 eb ff ff 01 	movl   $0x1,-0x1478(%rbp)
    eaa3:	00 00 00 
    eaa6:	48 8d 85 d0 f6 ff ff 	lea    -0x930(%rbp),%rax
    eaad:	48 8d 15 ec 8e 00 00 	lea    0x8eec(%rip),%rdx        # 179a0 <g_2974+0x370>
    eab4:	b9 51 00 00 00       	mov    $0x51,%ecx
    eab9:	48 89 c7             	mov    %rax,%rdi
    eabc:	48 89 d6             	mov    %rdx,%rsi
    eabf:	f3 48 a5             	rep movsq %ds:(%rsi),%es:(%rdi)
    eac2:	48 8d 85 30 fa ff ff 	lea    -0x5d0(%rbp),%rax
    eac9:	48 05 b8 00 00 00    	add    $0xb8,%rax
    eacf:	48 89 85 68 ec ff ff 	mov    %rax,-0x1398(%rbp)
    ead6:	48 8d 05 42 8a 00 00 	lea    0x8a42(%rip),%rax        # 1751f <g_271>
    eadd:	48 89 85 70 ec ff ff 	mov    %rax,-0x1390(%rbp)
    eae4:	48 8d 05 69 8a 00 00 	lea    0x8a69(%rip),%rax        # 17554 <g_1350>
    eaeb:	48 89 85 78 ec ff ff 	mov    %rax,-0x1388(%rbp)
    eaf2:	48 8d 05 51 8a 00 00 	lea    0x8a51(%rip),%rax        # 1754a <g_936>
    eaf9:	48 89 85 80 ec ff ff 	mov    %rax,-0x1380(%rbp)
    eb00:	c7 85 b0 eb ff ff fe 	movl   $0xfffffffe,-0x1450(%rbp)
    eb07:	ff ff ff 
    eb0a:	c7 85 b4 eb ff ff 01 	movl   $0x1,-0x144c(%rbp)
    eb11:	00 00 00 
    eb14:	8b 1d 36 8a 00 00    	mov    0x8a36(%rip),%ebx        # 17550 <g_1276>
    eb1a:	0f b6 05 f2 89 00 00 	movzbl 0x89f2(%rip),%eax        # 17513 <g_242+0x13>
    eb21:	0f b6 c0             	movzbl %al,%eax
    eb24:	39 85 64 eb ff ff    	cmp    %eax,-0x149c(%rbp)
    eb2a:	0f 9e c0             	setle  %al
    eb2d:	0f b6 c0             	movzbl %al,%eax
    eb30:	48 89 c7             	mov    %rax,%rdi
    eb33:	e8 e1 84 ff ff       	callq  7019 <safe_unary_minus_func_uint64_t_u>
    eb38:	48 f7 d0             	not    %rax
    eb3b:	49 89 c4             	mov    %rax,%r12
    eb3e:	be 06 00 00 00       	mov    $0x6,%esi
    eb43:	bf fd ff 00 00       	mov    $0xfffd,%edi
    eb48:	e8 b9 82 ff ff       	callq  6e06 <safe_lshift_func_uint16_t_u_u>
    eb4d:	0f b7 d0             	movzwl %ax,%edx
    eb50:	48 83 bd 68 ec ff ff 	cmpq   $0x0,-0x1398(%rbp)
    eb57:	00 
    eb58:	0f 94 c0             	sete   %al
    eb5b:	0f b6 c0             	movzbl %al,%eax
    eb5e:	39 c2                	cmp    %eax,%edx
    eb60:	0f 9e c0             	setle  %al
    eb63:	0f b6 d0             	movzbl %al,%edx
    eb66:	48 8b 85 70 ec ff ff 	mov    -0x1390(%rbp),%rax
    eb6d:	0f b6 00             	movzbl (%rax),%eax
    eb70:	89 c1                	mov    %eax,%ecx
    eb72:	44 89 e0             	mov    %r12d,%eax
    eb75:	31 c8                	xor    %ecx,%eax
    eb77:	89 c1                	mov    %eax,%ecx
    eb79:	48 8b 85 70 ec ff ff 	mov    -0x1390(%rbp),%rax
    eb80:	88 08                	mov    %cl,(%rax)
    eb82:	48 8b 85 70 ec ff ff 	mov    -0x1390(%rbp),%rax
    eb89:	0f b6 00             	movzbl (%rax),%eax
    eb8c:	0f be c0             	movsbl %al,%eax
    eb8f:	39 c2                	cmp    %eax,%edx
    eb91:	0f 94 c0             	sete   %al
    eb94:	44 0f b6 e0          	movzbl %al,%r12d
    eb98:	48 8b 05 59 a6 00 00 	mov    0xa659(%rip),%rax        # 191f8 <g_1132>
    eb9f:	0f b6 10             	movzbl (%rax),%edx
    eba2:	0f b6 05 7c 89 00 00 	movzbl 0x897c(%rip),%eax        # 17525 <g_333+0x5>
    eba9:	09 d0                	or     %edx,%eax
    ebab:	88 05 74 89 00 00    	mov    %al,0x8974(%rip)        # 17525 <g_333+0x5>
    ebb1:	0f b6 05 6d 89 00 00 	movzbl 0x896d(%rip),%eax        # 17525 <g_333+0x5>
    ebb8:	0f b6 c0             	movzbl %al,%eax
    ebbb:	89 c7                	mov    %eax,%edi
    ebbd:	e8 83 7f ff ff       	callq  6b45 <safe_unary_minus_func_uint8_t_u>
    ebc2:	84 c0                	test   %al,%al
    ebc4:	75 0a                	jne    ebd0 <func_29+0x172f>
    ebc6:	8b 85 88 eb ff ff    	mov    -0x1478(%rbp),%eax
    ebcc:	85 c0                	test   %eax,%eax
    ebce:	74 08                	je     ebd8 <func_29+0x1737>
    ebd0:	41 bd 01 00 00 00    	mov    $0x1,%r13d
    ebd6:	eb 06                	jmp    ebde <func_29+0x173d>
    ebd8:	41 bd 00 00 00 00    	mov    $0x0,%r13d
    ebde:	be 55 be 00 00       	mov    $0xbe55,%esi
    ebe3:	bf f8 22 00 00       	mov    $0x22f8,%edi
    ebe8:	e8 50 81 ff ff       	callq  6d3d <safe_mul_func_uint16_t_u_u>
    ebed:	0f b7 c0             	movzwl %ax,%eax
    ebf0:	41 39 c5             	cmp    %eax,%r13d
    ebf3:	0f 9d c0             	setge  %al
    ebf6:	0f b6 d0             	movzbl %al,%edx
    ebf9:	8b 85 88 eb ff ff    	mov    -0x1478(%rbp),%eax
    ebff:	09 d0                	or     %edx,%eax
    ec01:	89 85 7c eb ff ff    	mov    %eax,-0x1484(%rbp)
    ec07:	8b 85 7c eb ff ff    	mov    -0x1484(%rbp),%eax
    ec0d:	85 c0                	test   %eax,%eax
    ec0f:	0f 94 c0             	sete   %al
    ec12:	0f b6 d0             	movzbl %al,%edx
    ec15:	48 8b 85 78 ec ff ff 	mov    -0x1388(%rbp),%rax
    ec1c:	0f b6 00             	movzbl (%rax),%eax
    ec1f:	44 89 e1             	mov    %r12d,%ecx
    ec22:	31 c1                	xor    %eax,%ecx
    ec24:	48 8b 85 78 ec ff ff 	mov    -0x1388(%rbp),%rax
    ec2b:	88 08                	mov    %cl,(%rax)
    ec2d:	48 8b 85 78 ec ff ff 	mov    -0x1388(%rbp),%rax
    ec34:	0f b6 00             	movzbl (%rax),%eax
    ec37:	0f be c0             	movsbl %al,%eax
    ec3a:	39 c2                	cmp    %eax,%edx
    ec3c:	0f 9d c0             	setge  %al
    ec3f:	0f b6 c0             	movzbl %al,%eax
    ec42:	be 0a 00 00 00       	mov    $0xa,%esi
    ec47:	89 c7                	mov    %eax,%edi
    ec49:	e8 2c 82 ff ff       	callq  6e7a <safe_rshift_func_uint16_t_u_u>
    ec4e:	89 c2                	mov    %eax,%edx
    ec50:	48 8b 85 80 ec ff ff 	mov    -0x1380(%rbp),%rax
    ec57:	66 89 10             	mov    %dx,(%rax)
    ec5a:	48 8b 85 80 ec ff ff 	mov    -0x1380(%rbp),%rax
    ec61:	0f b7 00             	movzwl (%rax),%eax
    ec64:	0f bf d0             	movswl %ax,%edx
    ec67:	0f b7 85 60 eb ff ff 	movzwl -0x14a0(%rbp),%eax
    ec6e:	8d 48 ff             	lea    -0x1(%rax),%ecx
    ec71:	66 89 8d 60 eb ff ff 	mov    %cx,-0x14a0(%rbp)
    ec78:	0f b7 c0             	movzwl %ax,%eax
    ec7b:	89 d6                	mov    %edx,%esi
    ec7d:	89 c7                	mov    %eax,%edi
    ec7f:	e8 c4 81 ff ff       	callq  6e48 <safe_rshift_func_uint16_t_u_s>
    ec84:	0f b6 c0             	movzbl %al,%eax
    ec87:	89 de                	mov    %ebx,%esi
    ec89:	89 c7                	mov    %eax,%edi
    ec8b:	e8 75 7f ff ff       	callq  6c05 <safe_lshift_func_uint8_t_u_s>
    ec90:	48 8b 05 99 a5 00 00 	mov    0xa599(%rip),%rax        # 19230 <g_1767>
    ec97:	8b 00                	mov    (%rax),%eax
    ec99:	48 8b 1d 78 9f 00 00 	mov    0x9f78(%rip),%rbx        # 18c18 <g_561>
    eca0:	8b 95 64 eb ff ff    	mov    -0x149c(%rbp),%edx
    eca6:	89 d6                	mov    %edx,%esi
    eca8:	89 c7                	mov    %eax,%edi
    ecaa:	e8 56 79 ff ff       	callq  6605 <safe_sub_func_int32_t_s_s>
    ecaf:	89 03                	mov    %eax,(%rbx)
    ecb1:	8b 85 88 eb ff ff    	mov    -0x1478(%rbp),%eax
    ecb7:	0f bf d8             	movswl %ax,%ebx
    ecba:	66 83 bd 60 eb ff ff 	cmpw   $0x0,-0x14a0(%rbp)
    ecc1:	00 
    ecc2:	0f 85 cc 00 00 00    	jne    ed94 <func_29+0x18f3>
    ecc8:	48 8b 85 78 ec ff ff 	mov    -0x1388(%rbp),%rax
    eccf:	0f b6 00             	movzbl (%rax),%eax
    ecd2:	0f b7 95 60 eb ff ff 	movzwl -0x14a0(%rbp),%edx
    ecd9:	31 c2                	xor    %eax,%edx
    ecdb:	48 8b 85 78 ec ff ff 	mov    -0x1388(%rbp),%rax
    ece2:	88 10                	mov    %dl,(%rax)
    ece4:	48 8b 85 78 ec ff ff 	mov    -0x1388(%rbp),%rax
    eceb:	0f b6 00             	movzbl (%rax),%eax
    ecee:	44 0f be e8          	movsbl %al,%r13d
    ecf2:	44 8b a5 88 eb ff ff 	mov    -0x1478(%rbp),%r12d
    ecf9:	be 08 00 00 00       	mov    $0x8,%esi
    ecfe:	bf fb ff 00 00       	mov    $0xfffb,%edi
    ed03:	e8 b6 80 ff ff       	callq  6dbe <safe_lshift_func_uint16_t_u_s>
    ed08:	0f b7 c0             	movzwl %ax,%eax
    ed0b:	44 89 e6             	mov    %r12d,%esi
    ed0e:	89 c7                	mov    %eax,%edi
    ed10:	e8 10 82 ff ff       	callq  6f25 <safe_div_func_uint32_t_u_u>
    ed15:	85 c0                	test   %eax,%eax
    ed17:	74 10                	je     ed29 <func_29+0x1888>
    ed19:	83 bd 9c eb ff ff 00 	cmpl   $0x0,-0x1464(%rbp)
    ed20:	74 07                	je     ed29 <func_29+0x1888>
    ed22:	b8 01 00 00 00       	mov    $0x1,%eax
    ed27:	eb 05                	jmp    ed2e <func_29+0x188d>
    ed29:	b8 00 00 00 00       	mov    $0x0,%eax
    ed2e:	44 39 e8             	cmp    %r13d,%eax
    ed31:	0f 9d c0             	setge  %al
    ed34:	0f b6 c0             	movzbl %al,%eax
    ed37:	39 85 64 eb ff ff    	cmp    %eax,-0x149c(%rbp)
    ed3d:	0f 9e c0             	setle  %al
    ed40:	44 0f b6 e0          	movzbl %al,%r12d
    ed44:	48 8b 05 b5 a4 00 00 	mov    0xa4b5(%rip),%rax        # 19200 <g_1131>
    ed4b:	48 8b 00             	mov    (%rax),%rax
    ed4e:	0f b6 00             	movzbl (%rax),%eax
    ed51:	0f b6 c0             	movzbl %al,%eax
    ed54:	89 c6                	mov    %eax,%esi
    ed56:	bf 31 00 00 00       	mov    $0x31,%edi
    ed5b:	e8 0c 76 ff ff       	callq  636c <safe_rshift_func_int8_t_s_u>
    ed60:	89 c2                	mov    %eax,%edx
    ed62:	8b 85 88 eb ff ff    	mov    -0x1478(%rbp),%eax
    ed68:	31 d0                	xor    %edx,%eax
    ed6a:	0f be c0             	movsbl %al,%eax
    ed6d:	44 89 e6             	mov    %r12d,%esi
    ed70:	89 c7                	mov    %eax,%edi
    ed72:	e8 f5 75 ff ff       	callq  636c <safe_rshift_func_int8_t_s_u>
    ed77:	0f be c0             	movsbl %al,%eax
    ed7a:	be 03 00 00 00       	mov    $0x3,%esi
    ed7f:	89 c7                	mov    %eax,%edi
    ed81:	e8 4d 76 ff ff       	callq  63d3 <safe_sub_func_int16_t_s_s>
    ed86:	66 85 c0             	test   %ax,%ax
    ed89:	79 10                	jns    ed9b <func_29+0x18fa>
    ed8b:	83 bd 64 eb ff ff 00 	cmpl   $0x0,-0x149c(%rbp)
    ed92:	74 07                	je     ed9b <func_29+0x18fa>
    ed94:	b8 01 00 00 00       	mov    $0x1,%eax
    ed99:	eb 05                	jmp    eda0 <func_29+0x18ff>
    ed9b:	b8 00 00 00 00       	mov    $0x0,%eax
    eda0:	85 c0                	test   %eax,%eax
    eda2:	0f 94 c0             	sete   %al
    eda5:	0f b6 c0             	movzbl %al,%eax
    eda8:	39 85 64 eb ff ff    	cmp    %eax,-0x149c(%rbp)
    edae:	0f 9f c0             	setg   %al
    edb1:	0f b6 d0             	movzbl %al,%edx
    edb4:	8b 85 88 eb ff ff    	mov    -0x1478(%rbp),%eax
    edba:	09 c2                	or     %eax,%edx
    edbc:	8b 85 88 eb ff ff    	mov    -0x1478(%rbp),%eax
    edc2:	39 c2                	cmp    %eax,%edx
    edc4:	0f 95 c0             	setne  %al
    edc7:	0f b6 c0             	movzbl %al,%eax
    edca:	89 de                	mov    %ebx,%esi
    edcc:	89 c7                	mov    %eax,%edi
    edce:	e8 43 76 ff ff       	callq  6416 <safe_mod_func_int16_t_s_s>
    edd3:	8b 85 64 eb ff ff    	mov    -0x149c(%rbp),%eax
    edd9:	39 85 a0 eb ff ff    	cmp    %eax,-0x1460(%rbp)
    eddf:	0f 84 be 02 00 00    	je     f0a3 <func_29+0x1c02>
    ede5:	48 8d 05 34 a4 00 00 	lea    0xa434(%rip),%rax        # 19220 <g_1472>
    edec:	48 89 85 90 ec ff ff 	mov    %rax,-0x1370(%rbp)
    edf3:	c7 85 b8 eb ff ff 55 	movl   $0x813d9f55,-0x1448(%rbp)
    edfa:	9f 3d 81 
    edfd:	c7 85 98 eb ff ff 00 	movl   $0x0,-0x1468(%rbp)
    ee04:	00 00 00 
    ee07:	eb 1e                	jmp    ee27 <func_29+0x1986>
    ee09:	8b 85 98 eb ff ff    	mov    -0x1468(%rbp),%eax
    ee0f:	48 98                	cltq   
    ee11:	48 8d 95 88 eb ff ff 	lea    -0x1478(%rbp),%rdx
    ee18:	48 89 94 c5 00 ee ff 	mov    %rdx,-0x1200(%rbp,%rax,8)
    ee1f:	ff 
    ee20:	83 85 98 eb ff ff 01 	addl   $0x1,-0x1468(%rbp)
    ee27:	83 bd 98 eb ff ff 02 	cmpl   $0x2,-0x1468(%rbp)
    ee2e:	7e d9                	jle    ee09 <func_29+0x1968>
    ee30:	90                   	nop
    ee31:	48 8b 05 c8 a3 00 00 	mov    0xa3c8(%rip),%rax        # 19200 <g_1131>
    ee38:	48 8b 00             	mov    (%rax),%rax
    ee3b:	0f b6 00             	movzbl (%rax),%eax
    ee3e:	84 c0                	test   %al,%al
    ee40:	0f 94 c0             	sete   %al
    ee43:	0f b6 c0             	movzbl %al,%eax
    ee46:	89 c2                	mov    %eax,%edx
    ee48:	8b 05 ea 86 00 00    	mov    0x86ea(%rip),%eax        # 17538 <g_594>
    ee4e:	31 d0                	xor    %edx,%eax
    ee50:	89 05 e2 86 00 00    	mov    %eax,0x86e2(%rip)        # 17538 <g_594>
    ee56:	48 8d 05 c3 a3 00 00 	lea    0xa3c3(%rip),%rax        # 19220 <g_1472>
    ee5d:	48 39 85 90 ec ff ff 	cmp    %rax,-0x1370(%rbp)
    ee64:	0f 94 c0             	sete   %al
    ee67:	0f b6 d8             	movzbl %al,%ebx
    ee6a:	0f b7 85 60 eb ff ff 	movzwl -0x14a0(%rbp),%eax
    ee71:	be 00 00 00 00       	mov    $0x0,%esi
    ee76:	48 89 c7             	mov    %rax,%rdi
    ee79:	e8 c3 79 ff ff       	callq  6841 <safe_add_func_int64_t_s_s>
    ee7e:	98                   	cwtl   
    ee7f:	89 de                	mov    %ebx,%esi
    ee81:	89 c7                	mov    %eax,%edi
    ee83:	e8 a2 76 ff ff       	callq  652a <safe_rshift_func_int16_t_s_s>
    ee88:	66 85 c0             	test   %ax,%ax
    ee8b:	0f 9f c2             	setg   %dl
    ee8e:	48 8b 05 83 9d 00 00 	mov    0x9d83(%rip),%rax        # 18c18 <g_561>
    ee95:	0f b6 d2             	movzbl %dl,%edx
    ee98:	89 10                	mov    %edx,(%rax)
    ee9a:	c7 85 80 eb ff ff 00 	movl   $0x0,-0x1480(%rbp)
    eea1:	00 00 00 
    eea4:	e9 10 01 00 00       	jmpq   efb9 <func_29+0x1b18>
    eea9:	66 c7 85 78 eb ff ff 	movw   $0x8934,-0x1488(%rbp)
    eeb0:	34 89 
    eeb2:	0f b7 05 93 86 00 00 	movzwl 0x8693(%rip),%eax        # 1754c <g_1043>
    eeb9:	66 85 c0             	test   %ax,%ax
    eebc:	74 05                	je     eec3 <func_29+0x1a22>
    eebe:	e9 6e ff ff ff       	jmpq   ee31 <func_29+0x1990>
    eec3:	0f b7 85 60 eb ff ff 	movzwl -0x14a0(%rbp),%eax
    eeca:	0f be d8             	movsbl %al,%ebx
    eecd:	0f b7 95 60 eb ff ff 	movzwl -0x14a0(%rbp),%edx
    eed4:	8b 85 64 eb ff ff    	mov    -0x149c(%rbp),%eax
    eeda:	89 c1                	mov    %eax,%ecx
    eedc:	48 8b 85 78 ec ff ff 	mov    -0x1388(%rbp),%rax
    eee3:	88 08                	mov    %cl,(%rax)
    eee5:	48 8b 85 78 ec ff ff 	mov    -0x1388(%rbp),%rax
    eeec:	0f b6 00             	movzbl (%rax),%eax
    eeef:	84 c0                	test   %al,%al
    eef1:	74 11                	je     ef04 <func_29+0x1a63>
    eef3:	8b 05 77 85 00 00    	mov    0x8577(%rip),%eax        # 17470 <g_95+0x370>
    eef9:	85 c0                	test   %eax,%eax
    eefb:	74 07                	je     ef04 <func_29+0x1a63>
    eefd:	b9 01 00 00 00       	mov    $0x1,%ecx
    ef02:	eb 05                	jmp    ef09 <func_29+0x1a68>
    ef04:	b9 00 00 00 00       	mov    $0x0,%ecx
    ef09:	0f b7 85 60 eb ff ff 	movzwl -0x14a0(%rbp),%eax
    ef10:	39 c1                	cmp    %eax,%ecx
    ef12:	0f 94 c0             	sete   %al
    ef15:	0f b6 c0             	movzbl %al,%eax
    ef18:	39 85 64 eb ff ff    	cmp    %eax,-0x149c(%rbp)
    ef1e:	0f 9e c0             	setle  %al
    ef21:	0f b6 c0             	movzbl %al,%eax
    ef24:	48 89 d6             	mov    %rdx,%rsi
    ef27:	48 89 c7             	mov    %rax,%rdi
    ef2a:	e8 12 79 ff ff       	callq  6841 <safe_add_func_int64_t_s_s>
    ef2f:	0f b6 d0             	movzbl %al,%edx
    ef32:	48 8b 05 bf a2 00 00 	mov    0xa2bf(%rip),%rax        # 191f8 <g_1132>
    ef39:	0f b6 00             	movzbl (%rax),%eax
    ef3c:	0f b6 c0             	movzbl %al,%eax
    ef3f:	89 d6                	mov    %edx,%esi
    ef41:	89 c7                	mov    %eax,%edi
    ef43:	e8 93 7c ff ff       	callq  6bdb <safe_div_func_uint8_t_u_u>
    ef48:	0f be c0             	movsbl %al,%eax
    ef4b:	89 de                	mov    %ebx,%esi
    ef4d:	89 c7                	mov    %eax,%edi
    ef4f:	e8 9e 72 ff ff       	callq  61f2 <safe_sub_func_int8_t_s_s>
    ef54:	0f bf 85 78 eb ff ff 	movswl -0x1488(%rbp),%eax
    ef5b:	25 fc ff 00 00       	and    $0xfffc,%eax
    ef60:	89 c2                	mov    %eax,%edx
    ef62:	8b 85 64 eb ff ff    	mov    -0x149c(%rbp),%eax
    ef68:	89 d6                	mov    %edx,%esi
    ef6a:	89 c7                	mov    %eax,%edi
    ef6c:	e8 8c 7f ff ff       	callq  6efd <safe_mod_func_uint32_t_u_u>
    ef71:	0f b6 05 d6 85 00 00 	movzbl 0x85d6(%rip),%eax        # 1754e <g_1133>
    ef78:	84 c0                	test   %al,%al
    ef7a:	75 0a                	jne    ef86 <func_29+0x1ae5>
    ef7c:	66 83 bd 78 eb ff ff 	cmpw   $0x0,-0x1488(%rbp)
    ef83:	00 
    ef84:	74 07                	je     ef8d <func_29+0x1aec>
    ef86:	b8 01 00 00 00       	mov    $0x1,%eax
    ef8b:	eb 05                	jmp    ef92 <func_29+0x1af1>
    ef8d:	b8 00 00 00 00       	mov    $0x0,%eax
    ef92:	85 c0                	test   %eax,%eax
    ef94:	0f 9f c2             	setg   %dl
    ef97:	48 8b 05 7a 9c 00 00 	mov    0x9c7a(%rip),%rax        # 18c18 <g_561>
    ef9e:	0f b6 d2             	movzbl %dl,%edx
    efa1:	89 10                	mov    %edx,(%rax)
    efa3:	83 bd b8 eb ff ff 00 	cmpl   $0x0,-0x1448(%rbp)
    efaa:	8b 85 80 eb ff ff    	mov    -0x1480(%rbp),%eax
    efb0:	83 c0 01             	add    $0x1,%eax
    efb3:	89 85 80 eb ff ff    	mov    %eax,-0x1480(%rbp)
    efb9:	8b 85 80 eb ff ff    	mov    -0x1480(%rbp),%eax
    efbf:	83 f8 11             	cmp    $0x11,%eax
    efc2:	0f 8f e1 fe ff ff    	jg     eea9 <func_29+0x1a08>
    efc8:	48 8b 05 21 9c 00 00 	mov    0x9c21(%rip),%rax        # 18bf0 <g_200>
    efcf:	0f b7 00             	movzwl (%rax),%eax
    efd2:	0f bf d8             	movswl %ax,%ebx
    efd5:	0f b7 85 60 eb ff ff 	movzwl -0x14a0(%rbp),%eax
    efdc:	89 85 b0 eb ff ff    	mov    %eax,-0x1450(%rbp)
    efe2:	8b 85 64 eb ff ff    	mov    -0x149c(%rbp),%eax
    efe8:	44 0f be e0          	movsbl %al,%r12d
    efec:	8b 85 b8 eb ff ff    	mov    -0x1448(%rbp),%eax
    eff2:	44 0f b7 e8          	movzwl %ax,%r13d
    eff6:	0f b7 05 4d 85 00 00 	movzwl 0x854d(%rip),%eax        # 1754a <g_936>
    effd:	48 0f bf d0          	movswq %ax,%rdx
    f001:	66 83 bd 60 eb ff ff 	cmpw   $0x0,-0x14a0(%rbp)
    f008:	00 
    f009:	0f 95 c0             	setne  %al
    f00c:	0f b6 c0             	movzbl %al,%eax
    f00f:	48 89 d6             	mov    %rdx,%rsi
    f012:	48 89 c7             	mov    %rax,%rdi
    f015:	e8 dd 79 ff ff       	callq  69f7 <safe_div_func_int64_t_s_s>
    f01a:	0f b7 85 60 eb ff ff 	movzwl -0x14a0(%rbp),%eax
    f021:	44 89 ee             	mov    %r13d,%esi
    f024:	89 c7                	mov    %eax,%edi
    f026:	e8 12 7d ff ff       	callq  6d3d <safe_mul_func_uint16_t_u_u>
    f02b:	98                   	cwtl   
    f02c:	be ff ff ff ff       	mov    $0xffffffff,%esi
    f031:	89 c7                	mov    %eax,%edi
    f033:	e8 7b 73 ff ff       	callq  63b3 <safe_add_func_int16_t_s_s>
    f038:	0f b6 85 72 eb ff ff 	movzbl -0x148e(%rbp),%eax
    f03f:	0f be c0             	movsbl %al,%eax
    f042:	be 01 00 00 00       	mov    $0x1,%esi
    f047:	89 c7                	mov    %eax,%edi
    f049:	e8 af 7e ff ff       	callq  6efd <safe_mod_func_uint32_t_u_u>
    f04e:	0f be d0             	movsbl %al,%edx
    f051:	8b 85 88 eb ff ff    	mov    -0x1478(%rbp),%eax
    f057:	0f be c0             	movsbl %al,%eax
    f05a:	89 d6                	mov    %edx,%esi
    f05c:	89 c7                	mov    %eax,%edi
    f05e:	e8 af 71 ff ff       	callq  6212 <safe_mul_func_int8_t_s_s>
    f063:	44 89 e6             	mov    %r12d,%esi
    f066:	bf 05 00 00 00       	mov    $0x5,%edi
    f06b:	e8 a2 71 ff ff       	callq  6212 <safe_mul_func_int8_t_s_s>
    f070:	48 8b 85 40 ec ff ff 	mov    -0x13c0(%rbp),%rax
    f077:	48 89 05 c2 a2 00 00 	mov    %rax,0xa2c2(%rip)        # 19340 <g_1875>
    f07e:	89 de                	mov    %ebx,%esi
    f080:	bf 00 00 00 00       	mov    $0x0,%edi
    f085:	e8 6b 73 ff ff       	callq  63f5 <safe_mul_func_int16_t_s_s>
    f08a:	48 8b 15 87 9b 00 00 	mov    0x9b87(%rip),%rdx        # 18c18 <g_561>
    f091:	8b 0a                	mov    (%rdx),%ecx
    f093:	0f bf d0             	movswl %ax,%edx
    f096:	48 8b 05 7b 9b 00 00 	mov    0x9b7b(%rip),%rax        # 18c18 <g_561>
    f09d:	09 ca                	or     %ecx,%edx
    f09f:	89 10                	mov    %edx,(%rax)
    f0a1:	eb 2b                	jmp    f0ce <func_29+0x1c2d>
    f0a3:	48 b8 c1 a5 c8 0e 98 	movabs $0x34b09f980ec8a5c1,%rax
    f0aa:	9f b0 34 
    f0ad:	48 89 85 88 ec ff ff 	mov    %rax,-0x1378(%rbp)
    f0b4:	48 8b 85 88 ec ff ff 	mov    -0x1378(%rbp),%rax
    f0bb:	83 f0 f6             	xor    $0xfffffff6,%eax
    f0be:	89 c2                	mov    %eax,%edx
    f0c0:	8b 85 b4 eb ff ff    	mov    -0x144c(%rbp),%eax
    f0c6:	09 d0                	or     %edx,%eax
    f0c8:	89 85 b4 eb ff ff    	mov    %eax,-0x144c(%rbp)
    f0ce:	48 8b 05 3b 9b 00 00 	mov    0x9b3b(%rip),%rax        # 18c10 <g_362>
    f0d5:	48 8b 95 68 eb ff ff 	mov    -0x1498(%rbp),%rdx
    f0dc:	48 89 10             	mov    %rdx,(%rax)
    f0df:	c7 05 67 84 00 00 00 	movl   $0x0,0x8467(%rip)        # 17550 <g_1276>
    f0e6:	00 00 00 
    f0e9:	eb 69                	jmp    f154 <func_29+0x1cb3>
    f0eb:	66 c7 85 7a eb ff ff 	movw   $0xffff,-0x1486(%rbp)
    f0f2:	ff ff 
    f0f4:	66 c7 05 eb 83 00 00 	movw   $0x2,0x83eb(%rip)        # 174e8 <g_188>
    f0fb:	02 00 
    f0fd:	eb 37                	jmp    f136 <func_29+0x1c95>
    f0ff:	48 8d 05 4a a2 00 00 	lea    0xa24a(%rip),%rax        # 19350 <g_1897>
    f106:	48 89 85 98 ec ff ff 	mov    %rax,-0x1368(%rbp)
    f10d:	48 8b 05 a4 a2 00 00 	mov    0xa2a4(%rip),%rax        # 193b8 <g_1896+0x58>
    f114:	48 89 85 98 ec ff ff 	mov    %rax,-0x1368(%rbp)
    f11b:	66 83 bd 7a eb ff ff 	cmpw   $0x0,-0x1486(%rbp)
    f122:	00 
    f123:	75 1f                	jne    f144 <func_29+0x1ca3>
    f125:	0f b7 05 bc 83 00 00 	movzwl 0x83bc(%rip),%eax        # 174e8 <g_188>
    f12c:	83 e8 01             	sub    $0x1,%eax
    f12f:	66 89 05 b2 83 00 00 	mov    %ax,0x83b2(%rip)        # 174e8 <g_188>
    f136:	0f b7 05 ab 83 00 00 	movzwl 0x83ab(%rip),%eax        # 174e8 <g_188>
    f13d:	66 85 c0             	test   %ax,%ax
    f140:	79 bd                	jns    f0ff <func_29+0x1c5e>
    f142:	eb 01                	jmp    f145 <func_29+0x1ca4>
    f144:	90                   	nop
    f145:	8b 05 05 84 00 00    	mov    0x8405(%rip),%eax        # 17550 <g_1276>
    f14b:	83 c0 01             	add    $0x1,%eax
    f14e:	89 05 fc 83 00 00    	mov    %eax,0x83fc(%rip)        # 17550 <g_1276>
    f154:	8b 05 f6 83 00 00    	mov    0x83f6(%rip),%eax        # 17550 <g_1276>
    f15a:	83 f8 02             	cmp    $0x2,%eax
    f15d:	7e 8c                	jle    f0eb <func_29+0x1c4a>
    f15f:	8b 85 7c eb ff ff    	mov    -0x1484(%rbp),%eax
    f165:	48 63 d8             	movslq %eax,%rbx
    f168:	44 0f b7 a5 60 eb ff 	movzwl -0x14a0(%rbp),%r12d
    f16f:	ff 
    f170:	8b 05 2e 84 00 00    	mov    0x842e(%rip),%eax        # 175a4 <g_1919>
    f176:	89 05 28 84 00 00    	mov    %eax,0x8428(%rip)        # 175a4 <g_1919>
    f17c:	8b 85 48 f1 ff ff    	mov    -0xeb8(%rbp),%eax
    f182:	0f b6 d0             	movzbl %al,%edx
    f185:	8b 05 15 84 00 00    	mov    0x8415(%rip),%eax        # 175a0 <g_1917>
    f18b:	0f b6 c0             	movzbl %al,%eax
    f18e:	89 d6                	mov    %edx,%esi
    f190:	89 c7                	mov    %eax,%edi
    f192:	e8 fc 79 ff ff       	callq  6b93 <safe_mul_func_uint8_t_u_u>
    f197:	0f b6 c0             	movzbl %al,%eax
    f19a:	44 89 e6             	mov    %r12d,%esi
    f19d:	89 c7                	mov    %eax,%edi
    f19f:	e8 99 7b ff ff       	callq  6d3d <safe_mul_func_uint16_t_u_u>
    f1a4:	0f b7 c0             	movzwl %ax,%eax
    f1a7:	48 89 de             	mov    %rbx,%rsi
    f1aa:	48 89 c7             	mov    %rax,%rdi
    f1ad:	e8 45 78 ff ff       	callq  69f7 <safe_div_func_int64_t_s_s>
    f1b2:	0f bf d8             	movswl %ax,%ebx
    f1b5:	48 8b 8d d8 ed ff ff 	mov    -0x1228(%rbp),%rcx
    f1bc:	48 8b 85 48 ec ff ff 	mov    -0x13b8(%rbp),%rax
    f1c3:	48 8d 95 e0 eb ff ff 	lea    -0x1420(%rbp),%rdx
    f1ca:	48 89 10             	mov    %rdx,(%rax)
    f1cd:	48 8b 85 48 ec ff ff 	mov    -0x13b8(%rbp),%rax
    f1d4:	48 8b 10             	mov    (%rax),%rdx
    f1d7:	48 8b 85 50 ec ff ff 	mov    -0x13b0(%rbp),%rax
    f1de:	48 89 10             	mov    %rdx,(%rax)
    f1e1:	48 8b 85 50 ec ff ff 	mov    -0x13b0(%rbp),%rax
    f1e8:	48 8b 00             	mov    (%rax),%rax
    f1eb:	48 39 c1             	cmp    %rax,%rcx
    f1ee:	0f 95 c0             	setne  %al
    f1f1:	0f b6 d0             	movzbl %al,%edx
    f1f4:	8b 8d f0 f0 ff ff    	mov    -0xf10(%rbp),%ecx
    f1fa:	48 8b 05 e7 a0 00 00 	mov    0xa0e7(%rip),%rax        # 192e8 <g_1877>
    f201:	48 8b 00             	mov    (%rax),%rax
    f204:	48 8b 00             	mov    (%rax),%rax
    f207:	89 c9                	mov    %ecx,%ecx
    f209:	48 89 08             	mov    %rcx,(%rax)
    f20c:	48 8b 00             	mov    (%rax),%rax
    f20f:	48 89 d6             	mov    %rdx,%rsi
    f212:	48 89 c7             	mov    %rax,%rdi
    f215:	e8 31 7e ff ff       	callq  704b <safe_sub_func_uint64_t_u_u>
    f21a:	48 85 c0             	test   %rax,%rax
    f21d:	75 2a                	jne    f249 <func_29+0x1da8>
    f21f:	48 8b 85 38 ec ff ff 	mov    -0x13c8(%rbp),%rax
    f226:	48 8b 10             	mov    (%rax),%rdx
    f229:	48 8b 85 38 ec ff ff 	mov    -0x13c8(%rbp),%rax
    f230:	48 89 10             	mov    %rdx,(%rax)
    f233:	48 8b 85 38 ec ff ff 	mov    -0x13c8(%rbp),%rax
    f23a:	48 8b 10             	mov    (%rax),%rdx
    f23d:	48 8d 85 68 eb ff ff 	lea    -0x1498(%rbp),%rax
    f244:	48 39 c2             	cmp    %rax,%rdx
    f247:	75 07                	jne    f250 <func_29+0x1daf>
    f249:	b8 01 00 00 00       	mov    $0x1,%eax
    f24e:	eb 05                	jmp    f255 <func_29+0x1db4>
    f250:	b8 00 00 00 00       	mov    $0x0,%eax
    f255:	98                   	cwtl   
    f256:	89 de                	mov    %ebx,%esi
    f258:	89 c7                	mov    %eax,%edi
    f25a:	e8 b7 71 ff ff       	callq  6416 <safe_mod_func_int16_t_s_s>
    f25f:	c7 85 88 eb ff ff f9 	movl   $0xfffffff9,-0x1478(%rbp)
    f266:	ff ff ff 
    f269:	48 8d 85 b8 ed ff ff 	lea    -0x1248(%rbp),%rax
    f270:	48 89 85 a8 ec ff ff 	mov    %rax,-0x1358(%rbp)
    f277:	48 8d 05 62 7e 00 00 	lea    0x7e62(%rip),%rax        # 170e0 <g_83>
    f27e:	48 89 85 b0 ec ff ff 	mov    %rax,-0x1350(%rbp)
    f285:	48 c7 85 b8 ec ff ff 	movq   $0x0,-0x1348(%rbp)
    f28c:	00 00 00 00 
    f290:	48 8d 05 d9 81 00 00 	lea    0x81d9(%rip),%rax        # 17470 <g_95+0x370>
    f297:	48 89 85 c0 ec ff ff 	mov    %rax,-0x1340(%rbp)
    f29e:	48 8d 05 93 80 00 00 	lea    0x8093(%rip),%rax        # 17338 <g_95+0x238>
    f2a5:	48 89 85 c8 ec ff ff 	mov    %rax,-0x1338(%rbp)
    f2ac:	48 8d 85 7c eb ff ff 	lea    -0x1484(%rbp),%rax
    f2b3:	48 89 85 d0 ec ff ff 	mov    %rax,-0x1330(%rbp)
    f2ba:	48 8d 05 1f 7e 00 00 	lea    0x7e1f(%rip),%rax        # 170e0 <g_83>
    f2c1:	48 89 85 d8 ec ff ff 	mov    %rax,-0x1328(%rbp)
    f2c8:	c7 85 bc eb ff ff fd 	movl   $0xfffffffd,-0x1444(%rbp)
    f2cf:	ff ff ff 
    f2d2:	48 8d 85 88 eb ff ff 	lea    -0x1478(%rbp),%rax
    f2d9:	48 89 85 d0 f6 ff ff 	mov    %rax,-0x930(%rbp)
    f2e0:	48 8d 85 80 eb ff ff 	lea    -0x1480(%rbp),%rax
    f2e7:	48 89 85 d8 f6 ff ff 	mov    %rax,-0x928(%rbp)
    f2ee:	48 8d 85 88 eb ff ff 	lea    -0x1478(%rbp),%rax
    f2f5:	48 89 85 e0 f6 ff ff 	mov    %rax,-0x920(%rbp)
    f2fc:	48 8d 85 80 eb ff ff 	lea    -0x1480(%rbp),%rax
    f303:	48 89 85 e8 f6 ff ff 	mov    %rax,-0x918(%rbp)
    f30a:	48 8d 85 88 eb ff ff 	lea    -0x1478(%rbp),%rax
    f311:	48 89 85 f0 f6 ff ff 	mov    %rax,-0x910(%rbp)
    f318:	48 8d 85 80 eb ff ff 	lea    -0x1480(%rbp),%rax
    f31f:	48 89 85 f8 f6 ff ff 	mov    %rax,-0x908(%rbp)
    f326:	48 8d 85 88 eb ff ff 	lea    -0x1478(%rbp),%rax
    f32d:	48 89 85 00 f7 ff ff 	mov    %rax,-0x900(%rbp)
    f334:	48 8d 85 80 eb ff ff 	lea    -0x1480(%rbp),%rax
    f33b:	48 89 85 08 f7 ff ff 	mov    %rax,-0x8f8(%rbp)
    f342:	48 8d 85 88 eb ff ff 	lea    -0x1478(%rbp),%rax
    f349:	48 89 85 10 f7 ff ff 	mov    %rax,-0x8f0(%rbp)
    f350:	48 8d 85 80 eb ff ff 	lea    -0x1480(%rbp),%rax
    f357:	48 89 85 18 f7 ff ff 	mov    %rax,-0x8e8(%rbp)
    f35e:	83 ad a4 eb ff ff 01 	subl   $0x1,-0x145c(%rbp)
    f365:	48 8b 85 68 eb ff ff 	mov    -0x1498(%rbp),%rax
    f36c:	48 8b 75 d8          	mov    -0x28(%rbp),%rsi
    f370:	64 48 33 34 25 28 00 	xor    %fs:0x28,%rsi
    f377:	00 00 
    f379:	74 05                	je     f380 <func_29+0x1edf>
    f37b:	e8 f0 6c ff ff       	callq  6070 <__stack_chk_fail@plt>
    f380:	48 81 c4 88 14 00 00 	add    $0x1488,%rsp
    f387:	5b                   	pop    %rbx
    f388:	41 5c                	pop    %r12
    f38a:	41 5d                	pop    %r13
    f38c:	5d                   	pop    %rbp
    f38d:	c3                   	retq   

000000000000f38e <func_43>:
    f38e:	f3 0f 1e fa          	endbr64 
    f392:	55                   	push   %rbp
    f393:	48 89 e5             	mov    %rsp,%rbp
    f396:	41 54                	push   %r12
    f398:	53                   	push   %rbx
    f399:	48 81 ec b0 00 00 00 	sub    $0xb0,%rsp
    f3a0:	48 89 bd 58 ff ff ff 	mov    %rdi,-0xa8(%rbp)
    f3a7:	89 b5 54 ff ff ff    	mov    %esi,-0xac(%rbp)
    f3ad:	48 89 95 48 ff ff ff 	mov    %rdx,-0xb8(%rbp)
    f3b4:	89 8d 50 ff ff ff    	mov    %ecx,-0xb0(%rbp)
    f3ba:	64 48 8b 04 25 28 00 	mov    %fs:0x28,%rax
    f3c1:	00 00 
    f3c3:	48 89 45 e8          	mov    %rax,-0x18(%rbp)
    f3c7:	31 c0                	xor    %eax,%eax
    f3c9:	48 8d 05 20 a5 00 00 	lea    0xa520(%rip),%rax        # 198f0 <g_34>
    f3d0:	48 89 45 80          	mov    %rax,-0x80(%rbp)
    f3d4:	48 c7 45 88 00 00 00 	movq   $0x0,-0x78(%rbp)
    f3db:	00 
    f3dc:	c7 85 70 ff ff ff fd 	movl   $0xfffffffd,-0x90(%rbp)
    f3e3:	ff ff ff 
    f3e6:	48 8d 05 1b a5 00 00 	lea    0xa51b(%rip),%rax        # 19908 <g_68>
    f3ed:	48 89 85 78 ff ff ff 	mov    %rax,-0x88(%rbp)
    f3f4:	48 c7 45 90 00 00 00 	movq   $0x0,-0x70(%rbp)
    f3fb:	00 
    f3fc:	48 c7 45 98 00 00 00 	movq   $0x0,-0x68(%rbp)
    f403:	00 
    f404:	48 8d 05 45 99 00 00 	lea    0x9945(%rip),%rax        # 18d50 <g_740>
    f40b:	48 89 45 a0          	mov    %rax,-0x60(%rbp)
    f40f:	48 c7 45 a8 00 00 00 	movq   $0x0,-0x58(%rbp)
    f416:	00 
    f417:	c6 85 6f ff ff ff 00 	movb   $0x0,-0x91(%rbp)
    f41e:	48 8d 85 78 ff ff ff 	lea    -0x88(%rbp),%rax
    f425:	48 89 45 b0          	mov    %rax,-0x50(%rbp)
    f429:	48 c7 45 b8 00 00 00 	movq   $0x0,-0x48(%rbp)
    f430:	00 
    f431:	48 8d 05 a8 7c 00 00 	lea    0x7ca8(%rip),%rax        # 170e0 <g_83>
    f438:	48 89 45 c0          	mov    %rax,-0x40(%rbp)
    f43c:	48 8d 05 9d 7c 00 00 	lea    0x7c9d(%rip),%rax        # 170e0 <g_83>
    f443:	48 89 45 c8          	mov    %rax,-0x38(%rbp)
    f447:	48 8d 05 92 7c 00 00 	lea    0x7c92(%rip),%rax        # 170e0 <g_83>
    f44e:	48 89 45 d0          	mov    %rax,-0x30(%rbp)
    f452:	48 8d 05 87 7c 00 00 	lea    0x7c87(%rip),%rax        # 170e0 <g_83>
    f459:	48 89 45 d8          	mov    %rax,-0x28(%rbp)
    f45d:	48 8d 05 7c 7c 00 00 	lea    0x7c7c(%rip),%rax        # 170e0 <g_83>
    f464:	48 89 45 e0          	mov    %rax,-0x20(%rbp)
    f468:	c7 85 74 ff ff ff 01 	movl   $0x1,-0x8c(%rbp)
    f46f:	00 00 00 
    f472:	8b 05 3c 7c 00 00    	mov    0x7c3c(%rip),%eax        # 170b4 <g_4+0x74>
    f478:	44 0f be e0          	movsbl %al,%r12d
    f47c:	8b 85 50 ff ff ff    	mov    -0xb0(%rbp),%eax
    f482:	0f b6 c0             	movzbl %al,%eax
    f485:	be 03 00 00 00       	mov    $0x3,%esi
    f48a:	89 c7                	mov    %eax,%edi
    f48c:	e8 2d 78 ff ff       	callq  6cbe <safe_rshift_func_uint8_t_u_u>
    f491:	0f b6 c0             	movzbl %al,%eax
    f494:	f7 d0                	not    %eax
    f496:	89 c2                	mov    %eax,%edx
    f498:	48 8b 85 78 ff ff ff 	mov    -0x88(%rbp),%rax
    f49f:	48 63 d2             	movslq %edx,%rdx
    f4a2:	48 89 10             	mov    %rdx,(%rax)
    f4a5:	48 8b 00             	mov    (%rax),%rax
    f4a8:	48 85 c0             	test   %rax,%rax
    f4ab:	75 07                	jne    f4b4 <func_43+0x126>
    f4ad:	83 bd 50 ff ff ff 00 	cmpl   $0x0,-0xb0(%rbp)
    f4b4:	8b 95 50 ff ff ff    	mov    -0xb0(%rbp),%edx
    f4ba:	48 8b 45 90          	mov    -0x70(%rbp),%rax
    f4be:	89 d6                	mov    %edx,%esi
    f4c0:	48 89 c7             	mov    %rax,%rdi
    f4c3:	e8 a6 12 00 00       	callq  1076e <func_69>
    f4c8:	48 89 c6             	mov    %rax,%rsi
    f4cb:	8b 05 d7 7b 00 00    	mov    0x7bd7(%rip),%eax        # 170a8 <g_4+0x68>
    f4d1:	98                   	cwtl   
    f4d2:	48 8b 1d 37 97 00 00 	mov    0x9737(%rip),%rbx        # 18c10 <g_362>
    f4d9:	48 8b 8d 58 ff ff ff 	mov    -0xa8(%rbp),%rcx
    f4e0:	48 8b 95 48 ff ff ff 	mov    -0xb8(%rbp),%rdx
    f4e7:	45 89 e0             	mov    %r12d,%r8d
    f4ea:	89 c7                	mov    %eax,%edi
    f4ec:	e8 84 02 00 00       	callq  f775 <func_58>
    f4f1:	48 89 03             	mov    %rax,(%rbx)
    f4f4:	48 8b 0b             	mov    (%rbx),%rcx
    f4f7:	48 8b 05 02 8f 00 00 	mov    0x8f02(%rip),%rax        # 18400 <g_33>
    f4fe:	48 8b 10             	mov    (%rax),%rdx
    f501:	48 8b 45 80          	mov    -0x80(%rbp),%rax
    f505:	48 89 10             	mov    %rdx,(%rax)
    f508:	48 8b 45 80          	mov    -0x80(%rbp),%rax
    f50c:	48 8b 00             	mov    (%rax),%rax
    f50f:	48 8b bd 58 ff ff ff 	mov    -0xa8(%rbp),%rdi
    f516:	8b 95 70 ff ff ff    	mov    -0x90(%rbp),%edx
    f51c:	48 8b 75 88          	mov    -0x78(%rbp),%rsi
    f520:	49 89 f8             	mov    %rdi,%r8
    f523:	48 89 c7             	mov    %rax,%rdi
    f526:	e8 9e 01 00 00       	callq  f6c9 <func_49>
    f52b:	48 0f bf c0          	movswq %ax,%rax
    f52f:	48 39 85 48 ff ff ff 	cmp    %rax,-0xb8(%rbp)
    f536:	0f 9e c0             	setle  %al
    f539:	0f b6 c0             	movzbl %al,%eax
    f53c:	48 39 85 48 ff ff ff 	cmp    %rax,-0xb8(%rbp)
    f543:	0f 95 c0             	setne  %al
    f546:	0f b6 c0             	movzbl %al,%eax
    f549:	48 39 85 48 ff ff ff 	cmp    %rax,-0xb8(%rbp)
    f550:	0f 94 c0             	sete   %al
    f553:	0f b6 c0             	movzbl %al,%eax
    f556:	89 85 70 ff ff ff    	mov    %eax,-0x90(%rbp)
    f55c:	48 8b 15 9d 96 00 00 	mov    0x969d(%rip),%rdx        # 18c00 <g_257>
    f563:	48 8b 05 96 8e 00 00 	mov    0x8e96(%rip),%rax        # 18400 <g_33>
    f56a:	48 8b 12             	mov    (%rdx),%rdx
    f56d:	48 89 10             	mov    %rdx,(%rax)
    f570:	b8 f6 ba ff ff       	mov    $0xffffbaf6,%eax
    f575:	98                   	cwtl   
    f576:	39 85 70 ff ff ff    	cmp    %eax,-0x90(%rbp)
    f57c:	0f 9f c0             	setg   %al
    f57f:	0f b6 c0             	movzbl %al,%eax
    f582:	be 02 00 00 00       	mov    $0x2,%esi
    f587:	89 c7                	mov    %eax,%edi
    f589:	e8 de 6d ff ff       	callq  636c <safe_rshift_func_int8_t_s_u>
    f58e:	84 c0                	test   %al,%al
    f590:	0f 85 c3 00 00 00    	jne    f659 <func_43+0x2cb>
    f596:	48 8b 45 a0          	mov    -0x60(%rbp),%rax
    f59a:	48 8d 15 a7 a3 00 00 	lea    0xa3a7(%rip),%rdx        # 19948 <g_741>
    f5a1:	48 89 10             	mov    %rdx,(%rax)
    f5a4:	48 8b 45 a0          	mov    -0x60(%rbp),%rax
    f5a8:	48 8b 10             	mov    (%rax),%rdx
    f5ab:	48 8b 45 a8          	mov    -0x58(%rbp),%rax
    f5af:	48 89 05 52 9c 00 00 	mov    %rax,0x9c52(%rip)        # 19208 <g_1260>
    f5b6:	48 8b 05 4b 9c 00 00 	mov    0x9c4b(%rip),%rax        # 19208 <g_1260>
    f5bd:	48 39 c2             	cmp    %rax,%rdx
    f5c0:	48 8b 05 51 96 00 00 	mov    0x9651(%rip),%rax        # 18c18 <g_561>
    f5c7:	8b 00                	mov    (%rax),%eax
    f5c9:	89 c3                	mov    %eax,%ebx
    f5cb:	be fb ff ff ff       	mov    $0xfffffffb,%esi
    f5d0:	bf 01 00 00 00       	mov    $0x1,%edi
    f5d5:	e8 fa 6b ff ff       	callq  61d4 <safe_add_func_int8_t_s_s>
    f5da:	48 8b 45 b0          	mov    -0x50(%rbp),%rax
    f5de:	48 8d 15 23 a3 00 00 	lea    0xa323(%rip),%rdx        # 19908 <g_68>
    f5e5:	48 89 10             	mov    %rdx,(%rax)
    f5e8:	48 8b 45 b0          	mov    -0x50(%rbp),%rax
    f5ec:	48 8b 00             	mov    (%rax),%rax
    f5ef:	48 39 45 b8          	cmp    %rax,-0x48(%rbp)
    f5f3:	75 16                	jne    f60b <func_43+0x27d>
    f5f5:	48 8b 05 5c 97 00 00 	mov    0x975c(%rip),%rax        # 18d58 <g_945>
    f5fc:	48 8b 00             	mov    (%rax),%rax
    f5ff:	48 85 c0             	test   %rax,%rax
    f602:	74 07                	je     f60b <func_43+0x27d>
    f604:	b8 01 00 00 00       	mov    $0x1,%eax
    f609:	eb 05                	jmp    f610 <func_43+0x282>
    f60b:	b8 00 00 00 00       	mov    $0x0,%eax
    f610:	89 de                	mov    %ebx,%esi
    f612:	89 c7                	mov    %eax,%edi
    f614:	e8 9f 78 ff ff       	callq  6eb8 <safe_add_func_uint32_t_u_u>
    f619:	8b 95 54 ff ff ff    	mov    -0xac(%rbp),%edx
    f61f:	39 d0                	cmp    %edx,%eax
    f621:	0f 92 c0             	setb   %al
    f624:	0f b6 c0             	movzbl %al,%eax
    f627:	be 01 00 00 00       	mov    $0x1,%esi
    f62c:	89 c7                	mov    %eax,%edi
    f62e:	e8 27 75 ff ff       	callq  6b5a <safe_add_func_uint8_t_u_u>
    f633:	48 8b 15 be 9b 00 00 	mov    0x9bbe(%rip),%rdx        # 191f8 <g_1132>
    f63a:	0f b6 12             	movzbl (%rdx),%edx
    f63d:	38 d0                	cmp    %dl,%al
    f63f:	0f 92 c0             	setb   %al
    f642:	0f b6 c0             	movzbl %al,%eax
    f645:	48 8b 95 48 ff ff ff 	mov    -0xb8(%rbp),%rdx
    f64c:	89 c6                	mov    %eax,%esi
    f64e:	89 d7                	mov    %edx,%edi
    f650:	e8 91 78 ff ff       	callq  6ee6 <safe_mul_func_uint32_t_u_u>
    f655:	85 c0                	test   %eax,%eax
    f657:	74 07                	je     f660 <func_43+0x2d2>
    f659:	b8 01 00 00 00       	mov    $0x1,%eax
    f65e:	eb 05                	jmp    f665 <func_43+0x2d7>
    f660:	b8 00 00 00 00       	mov    $0x0,%eax
    f665:	3b 85 50 ff ff ff    	cmp    -0xb0(%rbp),%eax
    f66b:	0f 94 c0             	sete   %al
    f66e:	0f b6 c0             	movzbl %al,%eax
    f671:	be 04 00 00 00       	mov    $0x4,%esi
    f676:	89 c7                	mov    %eax,%edi
    f678:	e8 82 76 ff ff       	callq  6cff <safe_add_func_uint16_t_u_u>
    f67d:	0f b7 c8             	movzwl %ax,%ecx
    f680:	8b 15 5e 7a 00 00    	mov    0x7a5e(%rip),%edx        # 170e4 <g_90>
    f686:	48 8b 05 8b 95 00 00 	mov    0x958b(%rip),%rax        # 18c18 <g_561>
    f68d:	31 ca                	xor    %ecx,%edx
    f68f:	89 10                	mov    %edx,(%rax)
    f691:	48 8b 15 78 9b 00 00 	mov    0x9b78(%rip),%rdx        # 19210 <g_1270>
    f698:	8b 00                	mov    (%rax),%eax
    f69a:	89 02                	mov    %eax,(%rdx)
    f69c:	83 85 74 ff ff ff 01 	addl   $0x1,-0x8c(%rbp)
    f6a3:	8b 85 54 ff ff ff    	mov    -0xac(%rbp),%eax
    f6a9:	48 8b 5d e8          	mov    -0x18(%rbp),%rbx
    f6ad:	64 48 33 1c 25 28 00 	xor    %fs:0x28,%rbx
    f6b4:	00 00 
    f6b6:	74 05                	je     f6bd <func_43+0x32f>
    f6b8:	e8 b3 69 ff ff       	callq  6070 <__stack_chk_fail@plt>
    f6bd:	48 81 c4 b0 00 00 00 	add    $0xb0,%rsp
    f6c4:	5b                   	pop    %rbx
    f6c5:	41 5c                	pop    %r12
    f6c7:	5d                   	pop    %rbp
    f6c8:	c3                   	retq   

000000000000f6c9 <func_49>:
    f6c9:	f3 0f 1e fa          	endbr64 
    f6cd:	55                   	push   %rbp
    f6ce:	48 89 e5             	mov    %rsp,%rbp
    f6d1:	48 89 7d e8          	mov    %rdi,-0x18(%rbp)
    f6d5:	48 89 75 e0          	mov    %rsi,-0x20(%rbp)
    f6d9:	89 55 dc             	mov    %edx,-0x24(%rbp)
    f6dc:	48 89 4d d0          	mov    %rcx,-0x30(%rbp)
    f6e0:	4c 89 45 c8          	mov    %r8,-0x38(%rbp)
    f6e4:	48 8d 05 85 7d 00 00 	lea    0x7d85(%rip),%rax        # 17470 <g_95+0x370>
    f6eb:	48 89 45 f8          	mov    %rax,-0x8(%rbp)
    f6ef:	c7 05 3f 7e 00 00 00 	movl   $0x0,0x7e3f(%rip)        # 17538 <g_594>
    f6f6:	00 00 00 
    f6f9:	eb 64                	jmp    f75f <func_49+0x96>
    f6fb:	48 8b 05 fe 8c 00 00 	mov    0x8cfe(%rip),%rax        # 18400 <g_33>
    f702:	48 8b 55 d0          	mov    -0x30(%rbp),%rdx
    f706:	48 8b 12             	mov    (%rdx),%rdx
    f709:	48 89 10             	mov    %rdx,(%rax)
    f70c:	48 8b 05 05 95 00 00 	mov    0x9505(%rip),%rax        # 18c18 <g_561>
    f713:	8b 00                	mov    (%rax),%eax
    f715:	85 c0                	test   %eax,%eax
    f717:	75 53                	jne    f76c <func_49+0xa3>
    f719:	66 c7 05 28 7e 00 00 	movw   $0x0,0x7e28(%rip)        # 1754a <g_936>
    f720:	00 00 
    f722:	eb 1f                	jmp    f743 <func_49+0x7a>
    f724:	48 8b 05 dd 94 00 00 	mov    0x94dd(%rip),%rax        # 18c08 <g_363>
    f72b:	48 8b 55 f8          	mov    -0x8(%rbp),%rdx
    f72f:	48 89 10             	mov    %rdx,(%rax)
    f732:	0f b7 05 11 7e 00 00 	movzwl 0x7e11(%rip),%eax        # 1754a <g_936>
    f739:	83 c0 01             	add    $0x1,%eax
    f73c:	66 89 05 07 7e 00 00 	mov    %ax,0x7e07(%rip)        # 1754a <g_936>
    f743:	0f b7 05 00 7e 00 00 	movzwl 0x7e00(%rip),%eax        # 1754a <g_936>
    f74a:	66 83 f8 02          	cmp    $0x2,%ax
    f74e:	7e d4                	jle    f724 <func_49+0x5b>
    f750:	8b 05 e2 7d 00 00    	mov    0x7de2(%rip),%eax        # 17538 <g_594>
    f756:	83 c0 01             	add    $0x1,%eax
    f759:	89 05 d9 7d 00 00    	mov    %eax,0x7dd9(%rip)        # 17538 <g_594>
    f75f:	8b 05 d3 7d 00 00    	mov    0x7dd3(%rip),%eax        # 17538 <g_594>
    f765:	83 f8 02             	cmp    $0x2,%eax
    f768:	76 91                	jbe    f6fb <func_49+0x32>
    f76a:	eb 01                	jmp    f76d <func_49+0xa4>
    f76c:	90                   	nop
    f76d:	48 8b 45 f8          	mov    -0x8(%rbp),%rax
    f771:	8b 00                	mov    (%rax),%eax
    f773:	5d                   	pop    %rbp
    f774:	c3                   	retq   

000000000000f775 <func_58>:
    f775:	f3 0f 1e fa          	endbr64 
    f779:	55                   	push   %rbp
    f77a:	48 89 e5             	mov    %rsp,%rbp
    f77d:	53                   	push   %rbx
    f77e:	48 81 ec 00 10 00 00 	sub    $0x1000,%rsp
    f785:	48 83 0c 24 00       	orq    $0x0,(%rsp)
    f78a:	48 81 ec 88 02 00 00 	sub    $0x288,%rsp
    f791:	89 f8                	mov    %edi,%eax
    f793:	48 89 b5 80 ed ff ff 	mov    %rsi,-0x1280(%rbp)
    f79a:	48 89 95 78 ed ff ff 	mov    %rdx,-0x1288(%rbp)
    f7a1:	48 89 8d 70 ed ff ff 	mov    %rcx,-0x1290(%rbp)
    f7a8:	44 89 c2             	mov    %r8d,%edx
    f7ab:	66 89 85 8c ed ff ff 	mov    %ax,-0x1274(%rbp)
    f7b2:	89 d0                	mov    %edx,%eax
    f7b4:	88 85 88 ed ff ff    	mov    %al,-0x1278(%rbp)
    f7ba:	64 48 8b 04 25 28 00 	mov    %fs:0x28,%rax
    f7c1:	00 00 
    f7c3:	48 89 45 e8          	mov    %rax,-0x18(%rbp)
    f7c7:	31 c0                	xor    %eax,%eax
    f7c9:	c6 85 99 ed ff ff 00 	movb   $0x0,-0x1267(%rbp)
    f7d0:	48 8d 05 31 a1 00 00 	lea    0xa131(%rip),%rax        # 19908 <g_68>
    f7d7:	48 89 85 c8 ed ff ff 	mov    %rax,-0x1238(%rbp)
    f7de:	48 8d 85 c8 ed ff ff 	lea    -0x1238(%rbp),%rax
    f7e5:	48 89 85 f0 ee ff ff 	mov    %rax,-0x1110(%rbp)
    f7ec:	48 c7 85 80 f0 ff ff 	movq   $0x0,-0xf80(%rbp)
    f7f3:	00 00 00 00 
    f7f7:	48 8d 05 0a a1 00 00 	lea    0xa10a(%rip),%rax        # 19908 <g_68>
    f7fe:	48 89 85 88 f0 ff ff 	mov    %rax,-0xf78(%rbp)
    f805:	48 c7 85 90 f0 ff ff 	movq   $0x0,-0xf70(%rbp)
    f80c:	00 00 00 00 
    f810:	48 8d 05 f1 a0 00 00 	lea    0xa0f1(%rip),%rax        # 19908 <g_68>
    f817:	48 89 85 98 f0 ff ff 	mov    %rax,-0xf68(%rbp)
    f81e:	48 8d 05 e3 a0 00 00 	lea    0xa0e3(%rip),%rax        # 19908 <g_68>
    f825:	48 89 85 a0 f0 ff ff 	mov    %rax,-0xf60(%rbp)
    f82c:	48 8d 05 d5 a0 00 00 	lea    0xa0d5(%rip),%rax        # 19908 <g_68>
    f833:	48 89 85 a8 f0 ff ff 	mov    %rax,-0xf58(%rbp)
    f83a:	48 c7 85 b0 f0 ff ff 	movq   $0x0,-0xf50(%rbp)
    f841:	00 00 00 00 
    f845:	48 8d 05 bc a0 00 00 	lea    0xa0bc(%rip),%rax        # 19908 <g_68>
    f84c:	48 89 85 b8 f0 ff ff 	mov    %rax,-0xf48(%rbp)
    f853:	48 c7 85 c0 f0 ff ff 	movq   $0x0,-0xf40(%rbp)
    f85a:	00 00 00 00 
    f85e:	48 8d 05 a3 a0 00 00 	lea    0xa0a3(%rip),%rax        # 19908 <g_68>
    f865:	48 89 85 c8 f0 ff ff 	mov    %rax,-0xf38(%rbp)
    f86c:	48 8d 05 95 a0 00 00 	lea    0xa095(%rip),%rax        # 19908 <g_68>
    f873:	48 89 85 d0 f0 ff ff 	mov    %rax,-0xf30(%rbp)
    f87a:	48 8d 05 87 a0 00 00 	lea    0xa087(%rip),%rax        # 19908 <g_68>
    f881:	48 89 85 d8 f0 ff ff 	mov    %rax,-0xf28(%rbp)
    f888:	48 c7 85 e0 f0 ff ff 	movq   $0x0,-0xf20(%rbp)
    f88f:	00 00 00 00 
    f893:	48 8d 05 6e a0 00 00 	lea    0xa06e(%rip),%rax        # 19908 <g_68>
    f89a:	48 89 85 e8 f0 ff ff 	mov    %rax,-0xf18(%rbp)
    f8a1:	48 c7 85 f0 f0 ff ff 	movq   $0x0,-0xf10(%rbp)
    f8a8:	00 00 00 00 
    f8ac:	48 8d 05 55 a0 00 00 	lea    0xa055(%rip),%rax        # 19908 <g_68>
    f8b3:	48 89 85 d0 ed ff ff 	mov    %rax,-0x1230(%rbp)
    f8ba:	48 8d 05 47 a0 00 00 	lea    0xa047(%rip),%rax        # 19908 <g_68>
    f8c1:	48 89 85 d8 ed ff ff 	mov    %rax,-0x1228(%rbp)
    f8c8:	48 8d 05 39 a0 00 00 	lea    0xa039(%rip),%rax        # 19908 <g_68>
    f8cf:	48 89 85 e0 ed ff ff 	mov    %rax,-0x1220(%rbp)
    f8d6:	48 c7 85 e8 ed ff ff 	movq   $0x0,-0x1218(%rbp)
    f8dd:	00 00 00 00 
    f8e1:	48 c7 85 f0 ed ff ff 	movq   $0x0,-0x1210(%rbp)
    f8e8:	00 00 00 00 
    f8ec:	48 8d 05 15 a0 00 00 	lea    0xa015(%rip),%rax        # 19908 <g_68>
    f8f3:	48 89 85 f8 ed ff ff 	mov    %rax,-0x1208(%rbp)
    f8fa:	48 8d 05 07 a0 00 00 	lea    0xa007(%rip),%rax        # 19908 <g_68>
    f901:	48 89 85 00 f1 ff ff 	mov    %rax,-0xf00(%rbp)
    f908:	48 8d 05 f9 9f 00 00 	lea    0x9ff9(%rip),%rax        # 19908 <g_68>
    f90f:	48 89 85 08 f1 ff ff 	mov    %rax,-0xef8(%rbp)
    f916:	48 8d 05 eb 9f 00 00 	lea    0x9feb(%rip),%rax        # 19908 <g_68>
    f91d:	48 89 85 10 f1 ff ff 	mov    %rax,-0xef0(%rbp)
    f924:	48 8d 05 dd 9f 00 00 	lea    0x9fdd(%rip),%rax        # 19908 <g_68>
    f92b:	48 89 85 18 f1 ff ff 	mov    %rax,-0xee8(%rbp)
    f932:	48 8d 05 cf 9f 00 00 	lea    0x9fcf(%rip),%rax        # 19908 <g_68>
    f939:	48 89 85 20 f1 ff ff 	mov    %rax,-0xee0(%rbp)
    f940:	48 8d 05 c1 9f 00 00 	lea    0x9fc1(%rip),%rax        # 19908 <g_68>
    f947:	48 89 85 28 f1 ff ff 	mov    %rax,-0xed8(%rbp)
    f94e:	48 8d 05 b3 9f 00 00 	lea    0x9fb3(%rip),%rax        # 19908 <g_68>
    f955:	48 89 85 30 f1 ff ff 	mov    %rax,-0xed0(%rbp)
    f95c:	48 8d 05 a5 9f 00 00 	lea    0x9fa5(%rip),%rax        # 19908 <g_68>
    f963:	48 89 85 38 f1 ff ff 	mov    %rax,-0xec8(%rbp)
    f96a:	48 8d 05 97 9f 00 00 	lea    0x9f97(%rip),%rax        # 19908 <g_68>
    f971:	48 89 85 40 f1 ff ff 	mov    %rax,-0xec0(%rbp)
    f978:	48 8d 05 89 9f 00 00 	lea    0x9f89(%rip),%rax        # 19908 <g_68>
    f97f:	48 89 85 48 f1 ff ff 	mov    %rax,-0xeb8(%rbp)
    f986:	48 8d 05 7b 9f 00 00 	lea    0x9f7b(%rip),%rax        # 19908 <g_68>
    f98d:	48 89 85 50 f1 ff ff 	mov    %rax,-0xeb0(%rbp)
    f994:	48 8d 05 6d 9f 00 00 	lea    0x9f6d(%rip),%rax        # 19908 <g_68>
    f99b:	48 89 85 58 f1 ff ff 	mov    %rax,-0xea8(%rbp)
    f9a2:	48 8d 05 5f 9f 00 00 	lea    0x9f5f(%rip),%rax        # 19908 <g_68>
    f9a9:	48 89 85 60 f1 ff ff 	mov    %rax,-0xea0(%rbp)
    f9b0:	48 8d 05 51 9f 00 00 	lea    0x9f51(%rip),%rax        # 19908 <g_68>
    f9b7:	48 89 85 68 f1 ff ff 	mov    %rax,-0xe98(%rbp)
    f9be:	48 8d 05 43 9f 00 00 	lea    0x9f43(%rip),%rax        # 19908 <g_68>
    f9c5:	48 89 85 70 f1 ff ff 	mov    %rax,-0xe90(%rbp)
    f9cc:	48 8d 05 35 9f 00 00 	lea    0x9f35(%rip),%rax        # 19908 <g_68>
    f9d3:	48 89 85 78 f1 ff ff 	mov    %rax,-0xe88(%rbp)
    f9da:	48 8d 05 27 9f 00 00 	lea    0x9f27(%rip),%rax        # 19908 <g_68>
    f9e1:	48 89 85 80 f1 ff ff 	mov    %rax,-0xe80(%rbp)
    f9e8:	48 8d 05 19 9f 00 00 	lea    0x9f19(%rip),%rax        # 19908 <g_68>
    f9ef:	48 89 85 88 f1 ff ff 	mov    %rax,-0xe78(%rbp)
    f9f6:	48 8d 05 0b 9f 00 00 	lea    0x9f0b(%rip),%rax        # 19908 <g_68>
    f9fd:	48 89 85 00 ee ff ff 	mov    %rax,-0x1200(%rbp)
    fa04:	48 8d 05 fd 9e 00 00 	lea    0x9efd(%rip),%rax        # 19908 <g_68>
    fa0b:	48 89 85 08 ee ff ff 	mov    %rax,-0x11f8(%rbp)
    fa12:	48 8d 05 ef 9e 00 00 	lea    0x9eef(%rip),%rax        # 19908 <g_68>
    fa19:	48 89 85 f0 ef ff ff 	mov    %rax,-0x1010(%rbp)
    fa20:	48 8d 05 e1 9e 00 00 	lea    0x9ee1(%rip),%rax        # 19908 <g_68>
    fa27:	48 89 85 f8 ef ff ff 	mov    %rax,-0x1008(%rbp)
    fa2e:	48 8d 05 d3 9e 00 00 	lea    0x9ed3(%rip),%rax        # 19908 <g_68>
    fa35:	48 89 85 00 f0 ff ff 	mov    %rax,-0x1000(%rbp)
    fa3c:	48 8d 05 c5 9e 00 00 	lea    0x9ec5(%rip),%rax        # 19908 <g_68>
    fa43:	48 89 85 08 f0 ff ff 	mov    %rax,-0xff8(%rbp)
    fa4a:	48 8d 05 b7 9e 00 00 	lea    0x9eb7(%rip),%rax        # 19908 <g_68>
    fa51:	48 89 85 10 f0 ff ff 	mov    %rax,-0xff0(%rbp)
    fa58:	48 8d 05 a9 9e 00 00 	lea    0x9ea9(%rip),%rax        # 19908 <g_68>
    fa5f:	48 89 85 18 f0 ff ff 	mov    %rax,-0xfe8(%rbp)
    fa66:	48 8d 05 9b 9e 00 00 	lea    0x9e9b(%rip),%rax        # 19908 <g_68>
    fa6d:	48 89 85 20 f0 ff ff 	mov    %rax,-0xfe0(%rbp)
    fa74:	48 8d 05 8d 9e 00 00 	lea    0x9e8d(%rip),%rax        # 19908 <g_68>
    fa7b:	48 89 85 10 ee ff ff 	mov    %rax,-0x11f0(%rbp)
    fa82:	48 8d 05 7f 9e 00 00 	lea    0x9e7f(%rip),%rax        # 19908 <g_68>
    fa89:	48 89 85 18 ee ff ff 	mov    %rax,-0x11e8(%rbp)
    fa90:	48 8d 05 71 9e 00 00 	lea    0x9e71(%rip),%rax        # 19908 <g_68>
    fa97:	48 89 85 20 ee ff ff 	mov    %rax,-0x11e0(%rbp)
    fa9e:	48 c7 85 28 ee ff ff 	movq   $0x0,-0x11d8(%rbp)
    faa5:	00 00 00 00 
    faa9:	48 8d 05 58 9e 00 00 	lea    0x9e58(%rip),%rax        # 19908 <g_68>
    fab0:	48 89 85 30 ee ff ff 	mov    %rax,-0x11d0(%rbp)
    fab7:	48 8d 05 4a 9e 00 00 	lea    0x9e4a(%rip),%rax        # 19908 <g_68>
    fabe:	48 89 85 38 ee ff ff 	mov    %rax,-0x11c8(%rbp)
    fac5:	48 8d 05 3c 9e 00 00 	lea    0x9e3c(%rip),%rax        # 19908 <g_68>
    facc:	48 89 85 40 ee ff ff 	mov    %rax,-0x11c0(%rbp)
    fad3:	48 8d 05 2e 9e 00 00 	lea    0x9e2e(%rip),%rax        # 19908 <g_68>
    fada:	48 89 85 48 ee ff ff 	mov    %rax,-0x11b8(%rbp)
    fae1:	48 8d 05 20 9e 00 00 	lea    0x9e20(%rip),%rax        # 19908 <g_68>
    fae8:	48 89 85 50 ee ff ff 	mov    %rax,-0x11b0(%rbp)
    faef:	48 8d 05 12 9e 00 00 	lea    0x9e12(%rip),%rax        # 19908 <g_68>
    faf6:	48 89 85 58 ee ff ff 	mov    %rax,-0x11a8(%rbp)
    fafd:	48 c7 85 60 ee ff ff 	movq   $0x0,-0x11a0(%rbp)
    fb04:	00 00 00 00 
    fb08:	48 8d 05 f9 9d 00 00 	lea    0x9df9(%rip),%rax        # 19908 <g_68>
    fb0f:	48 89 85 68 ee ff ff 	mov    %rax,-0x1198(%rbp)
    fb16:	48 8d 05 eb 9d 00 00 	lea    0x9deb(%rip),%rax        # 19908 <g_68>
    fb1d:	48 89 85 70 ee ff ff 	mov    %rax,-0x1190(%rbp)
    fb24:	48 8d 05 dd 9d 00 00 	lea    0x9ddd(%rip),%rax        # 19908 <g_68>
    fb2b:	48 89 85 78 ee ff ff 	mov    %rax,-0x1188(%rbp)
    fb32:	48 8d 05 cf 9d 00 00 	lea    0x9dcf(%rip),%rax        # 19908 <g_68>
    fb39:	48 89 85 80 ee ff ff 	mov    %rax,-0x1180(%rbp)
    fb40:	48 8d 05 c1 9d 00 00 	lea    0x9dc1(%rip),%rax        # 19908 <g_68>
    fb47:	48 89 85 f8 ee ff ff 	mov    %rax,-0x1108(%rbp)
    fb4e:	48 8d 05 b3 9d 00 00 	lea    0x9db3(%rip),%rax        # 19908 <g_68>
    fb55:	48 89 85 88 ee ff ff 	mov    %rax,-0x1178(%rbp)
    fb5c:	48 8d 05 a5 9d 00 00 	lea    0x9da5(%rip),%rax        # 19908 <g_68>
    fb63:	48 89 85 90 ee ff ff 	mov    %rax,-0x1170(%rbp)
    fb6a:	48 8d 85 60 f8 ff ff 	lea    -0x7a0(%rbp),%rax
    fb71:	48 8d 15 c8 80 00 00 	lea    0x80c8(%rip),%rdx        # 17c40 <g_2974+0x610>
    fb78:	b9 f0 00 00 00       	mov    $0xf0,%ecx
    fb7d:	48 89 c7             	mov    %rax,%rdi
    fb80:	48 89 d6             	mov    %rdx,%rsi
    fb83:	f3 48 a5             	rep movsq %ds:(%rsi),%es:(%rdi)
    fb86:	48 c7 85 98 ee ff ff 	movq   $0x0,-0x1168(%rbp)
    fb8d:	00 00 00 00 
    fb91:	48 8d 05 70 9d 00 00 	lea    0x9d70(%rip),%rax        # 19908 <g_68>
    fb98:	48 89 85 a0 ee ff ff 	mov    %rax,-0x1160(%rbp)
    fb9f:	48 8d 05 62 9d 00 00 	lea    0x9d62(%rip),%rax        # 19908 <g_68>
    fba6:	48 89 85 a8 ee ff ff 	mov    %rax,-0x1158(%rbp)
    fbad:	48 8d 05 54 9d 00 00 	lea    0x9d54(%rip),%rax        # 19908 <g_68>
    fbb4:	48 89 85 b0 ee ff ff 	mov    %rax,-0x1150(%rbp)
    fbbb:	48 8d 05 46 9d 00 00 	lea    0x9d46(%rip),%rax        # 19908 <g_68>
    fbc2:	48 89 85 b8 ee ff ff 	mov    %rax,-0x1148(%rbp)
    fbc9:	48 8d 05 38 9d 00 00 	lea    0x9d38(%rip),%rax        # 19908 <g_68>
    fbd0:	48 89 85 c0 ee ff ff 	mov    %rax,-0x1140(%rbp)
    fbd7:	48 c7 85 20 f2 ff ff 	movq   $0x0,-0xde0(%rbp)
    fbde:	00 00 00 00 
    fbe2:	48 8d 85 e8 ed ff ff 	lea    -0x1218(%rbp),%rax
    fbe9:	48 89 85 28 f2 ff ff 	mov    %rax,-0xdd8(%rbp)
    fbf0:	48 8d 85 98 ee ff ff 	lea    -0x1168(%rbp),%rax
    fbf7:	48 89 85 30 f2 ff ff 	mov    %rax,-0xdd0(%rbp)
    fbfe:	48 8d 85 90 ee ff ff 	lea    -0x1170(%rbp),%rax
    fc05:	48 89 85 38 f2 ff ff 	mov    %rax,-0xdc8(%rbp)
    fc0c:	48 8d 85 60 f8 ff ff 	lea    -0x7a0(%rbp),%rax
    fc13:	48 05 38 07 00 00    	add    $0x738,%rax
    fc19:	48 89 85 40 f2 ff ff 	mov    %rax,-0xdc0(%rbp)
    fc20:	48 8d 85 d8 ed ff ff 	lea    -0x1228(%rbp),%rax
    fc27:	48 89 85 48 f2 ff ff 	mov    %rax,-0xdb8(%rbp)
    fc2e:	48 8d 85 50 ee ff ff 	lea    -0x11b0(%rbp),%rax
    fc35:	48 89 85 50 f2 ff ff 	mov    %rax,-0xdb0(%rbp)
    fc3c:	48 8d 85 d8 ed ff ff 	lea    -0x1228(%rbp),%rax
    fc43:	48 89 85 58 f2 ff ff 	mov    %rax,-0xda8(%rbp)
    fc4a:	48 8d 85 60 f8 ff ff 	lea    -0x7a0(%rbp),%rax
    fc51:	48 05 38 07 00 00    	add    $0x738,%rax
    fc57:	48 89 85 60 f2 ff ff 	mov    %rax,-0xda0(%rbp)
    fc5e:	48 8d 85 90 ee ff ff 	lea    -0x1170(%rbp),%rax
    fc65:	48 89 85 68 f2 ff ff 	mov    %rax,-0xd98(%rbp)
    fc6c:	48 8d 85 d0 ed ff ff 	lea    -0x1230(%rbp),%rax
    fc73:	48 89 85 70 f2 ff ff 	mov    %rax,-0xd90(%rbp)
    fc7a:	48 8d 85 48 ee ff ff 	lea    -0x11b8(%rbp),%rax
    fc81:	48 89 85 78 f2 ff ff 	mov    %rax,-0xd88(%rbp)
    fc88:	48 8d 85 d0 ed ff ff 	lea    -0x1230(%rbp),%rax
    fc8f:	48 89 85 80 f2 ff ff 	mov    %rax,-0xd80(%rbp)
    fc96:	48 c7 85 88 f2 ff ff 	movq   $0x0,-0xd78(%rbp)
    fc9d:	00 00 00 00 
    fca1:	48 8d 85 88 ee ff ff 	lea    -0x1178(%rbp),%rax
    fca8:	48 89 85 90 f2 ff ff 	mov    %rax,-0xd70(%rbp)
    fcaf:	48 8d 85 60 f8 ff ff 	lea    -0x7a0(%rbp),%rax
    fcb6:	48 05 38 07 00 00    	add    $0x738,%rax
    fcbc:	48 89 85 98 f2 ff ff 	mov    %rax,-0xd68(%rbp)
    fcc3:	48 8d 85 e0 ed ff ff 	lea    -0x1220(%rbp),%rax
    fcca:	48 89 85 a0 f2 ff ff 	mov    %rax,-0xd60(%rbp)
    fcd1:	48 8d 85 60 ee ff ff 	lea    -0x11a0(%rbp),%rax
    fcd8:	48 89 85 a8 f2 ff ff 	mov    %rax,-0xd58(%rbp)
    fcdf:	48 8d 85 f0 ed ff ff 	lea    -0x1210(%rbp),%rax
    fce6:	48 89 85 b0 f2 ff ff 	mov    %rax,-0xd50(%rbp)
    fced:	48 8d 85 a8 ee ff ff 	lea    -0x1158(%rbp),%rax
    fcf4:	48 89 85 b8 f2 ff ff 	mov    %rax,-0xd48(%rbp)
    fcfb:	48 8d 85 d8 ed ff ff 	lea    -0x1228(%rbp),%rax
    fd02:	48 89 85 c0 f2 ff ff 	mov    %rax,-0xd40(%rbp)
    fd09:	48 8d 85 20 ee ff ff 	lea    -0x11e0(%rbp),%rax
    fd10:	48 89 85 c8 f2 ff ff 	mov    %rax,-0xd38(%rbp)
    fd17:	48 c7 85 d0 f2 ff ff 	movq   $0x0,-0xd30(%rbp)
    fd1e:	00 00 00 00 
    fd22:	48 8d 85 30 ee ff ff 	lea    -0x11d0(%rbp),%rax
    fd29:	48 89 85 d8 f2 ff ff 	mov    %rax,-0xd28(%rbp)
    fd30:	48 8d 85 f8 ed ff ff 	lea    -0x1208(%rbp),%rax
    fd37:	48 89 85 e0 f2 ff ff 	mov    %rax,-0xd20(%rbp)
    fd3e:	48 8d 85 e8 ed ff ff 	lea    -0x1218(%rbp),%rax
    fd45:	48 89 85 e8 f2 ff ff 	mov    %rax,-0xd18(%rbp)
    fd4c:	48 8d 85 08 ee ff ff 	lea    -0x11f8(%rbp),%rax
    fd53:	48 89 85 f0 f2 ff ff 	mov    %rax,-0xd10(%rbp)
    fd5a:	48 8d 85 60 ee ff ff 	lea    -0x11a0(%rbp),%rax
    fd61:	48 89 85 f8 f2 ff ff 	mov    %rax,-0xd08(%rbp)
    fd68:	48 8d 85 c0 ee ff ff 	lea    -0x1140(%rbp),%rax
    fd6f:	48 89 85 00 f3 ff ff 	mov    %rax,-0xd00(%rbp)
    fd76:	48 8d 85 78 ee ff ff 	lea    -0x1188(%rbp),%rax
    fd7d:	48 89 85 08 f3 ff ff 	mov    %rax,-0xcf8(%rbp)
    fd84:	48 8d 85 78 ee ff ff 	lea    -0x1188(%rbp),%rax
    fd8b:	48 89 85 10 f3 ff ff 	mov    %rax,-0xcf0(%rbp)
    fd92:	48 8d 85 90 ee ff ff 	lea    -0x1170(%rbp),%rax
    fd99:	48 89 85 18 f3 ff ff 	mov    %rax,-0xce8(%rbp)
    fda0:	48 8d 85 d0 ed ff ff 	lea    -0x1230(%rbp),%rax
    fda7:	48 89 85 20 f3 ff ff 	mov    %rax,-0xce0(%rbp)
    fdae:	48 8d 85 58 ee ff ff 	lea    -0x11a8(%rbp),%rax
    fdb5:	48 89 85 28 f3 ff ff 	mov    %rax,-0xcd8(%rbp)
    fdbc:	48 8d 85 f0 ed ff ff 	lea    -0x1210(%rbp),%rax
    fdc3:	48 89 85 30 f3 ff ff 	mov    %rax,-0xcd0(%rbp)
    fdca:	48 8d 85 b0 ee ff ff 	lea    -0x1150(%rbp),%rax
    fdd1:	48 89 85 38 f3 ff ff 	mov    %rax,-0xcc8(%rbp)
    fdd8:	48 8d 85 a8 ee ff ff 	lea    -0x1158(%rbp),%rax
    fddf:	48 89 85 40 f3 ff ff 	mov    %rax,-0xcc0(%rbp)
    fde6:	48 8d 85 d8 ed ff ff 	lea    -0x1228(%rbp),%rax
    fded:	48 89 85 48 f3 ff ff 	mov    %rax,-0xcb8(%rbp)
    fdf4:	48 8d 85 30 ee ff ff 	lea    -0x11d0(%rbp),%rax
    fdfb:	48 89 85 50 f3 ff ff 	mov    %rax,-0xcb0(%rbp)
    fe02:	48 8d 85 a0 ee ff ff 	lea    -0x1160(%rbp),%rax
    fe09:	48 89 85 58 f3 ff ff 	mov    %rax,-0xca8(%rbp)
    fe10:	48 8d 85 88 ee ff ff 	lea    -0x1178(%rbp),%rax
    fe17:	48 89 85 60 f3 ff ff 	mov    %rax,-0xca0(%rbp)
    fe1e:	48 c7 85 68 f3 ff ff 	movq   $0x0,-0xc98(%rbp)
    fe25:	00 00 00 00 
    fe29:	48 8d 85 98 ee ff ff 	lea    -0x1168(%rbp),%rax
    fe30:	48 89 85 70 f3 ff ff 	mov    %rax,-0xc90(%rbp)
    fe37:	48 8d 85 f8 ed ff ff 	lea    -0x1208(%rbp),%rax
    fe3e:	48 89 85 78 f3 ff ff 	mov    %rax,-0xc88(%rbp)
    fe45:	48 8d 85 80 ee ff ff 	lea    -0x1180(%rbp),%rax
    fe4c:	48 89 85 80 f3 ff ff 	mov    %rax,-0xc80(%rbp)
    fe53:	48 8d 85 18 ee ff ff 	lea    -0x11e8(%rbp),%rax
    fe5a:	48 89 85 88 f3 ff ff 	mov    %rax,-0xc78(%rbp)
    fe61:	48 8d 85 f0 ed ff ff 	lea    -0x1210(%rbp),%rax
    fe68:	48 89 85 90 f3 ff ff 	mov    %rax,-0xc70(%rbp)
    fe6f:	48 8d 85 f0 ed ff ff 	lea    -0x1210(%rbp),%rax
    fe76:	48 89 85 98 f3 ff ff 	mov    %rax,-0xc68(%rbp)
    fe7d:	48 8d 85 18 ee ff ff 	lea    -0x11e8(%rbp),%rax
    fe84:	48 89 85 a0 f3 ff ff 	mov    %rax,-0xc60(%rbp)
    fe8b:	48 8d 85 80 ee ff ff 	lea    -0x1180(%rbp),%rax
    fe92:	48 89 85 a8 f3 ff ff 	mov    %rax,-0xc58(%rbp)
    fe99:	48 8d 85 28 ee ff ff 	lea    -0x11d8(%rbp),%rax
    fea0:	48 89 85 b0 f3 ff ff 	mov    %rax,-0xc50(%rbp)
    fea7:	48 8d 85 00 f1 ff ff 	lea    -0xf00(%rbp),%rax
    feae:	48 83 c0 30          	add    $0x30,%rax
    feb2:	48 89 85 b8 f3 ff ff 	mov    %rax,-0xc48(%rbp)
    feb9:	48 8d 85 00 f1 ff ff 	lea    -0xf00(%rbp),%rax
    fec0:	48 83 c0 30          	add    $0x30,%rax
    fec4:	48 89 85 c0 f3 ff ff 	mov    %rax,-0xc40(%rbp)
    fecb:	48 8d 85 28 ee ff ff 	lea    -0x11d8(%rbp),%rax
    fed2:	48 89 85 c8 f3 ff ff 	mov    %rax,-0xc38(%rbp)
    fed9:	48 c7 85 d0 f3 ff ff 	movq   $0x0,-0xc30(%rbp)
    fee0:	00 00 00 00 
    fee4:	48 8d 85 00 ee ff ff 	lea    -0x1200(%rbp),%rax
    feeb:	48 89 85 d8 f3 ff ff 	mov    %rax,-0xc28(%rbp)
    fef2:	48 c7 85 e0 f3 ff ff 	movq   $0x0,-0xc20(%rbp)
    fef9:	00 00 00 00 
    fefd:	48 8d 85 90 ee ff ff 	lea    -0x1170(%rbp),%rax
    ff04:	48 89 85 e8 f3 ff ff 	mov    %rax,-0xc18(%rbp)
    ff0b:	48 c7 85 f0 f3 ff ff 	movq   $0x0,-0xc10(%rbp)
    ff12:	00 00 00 00 
    ff16:	48 8d 85 b8 ee ff ff 	lea    -0x1148(%rbp),%rax
    ff1d:	48 89 85 f8 f3 ff ff 	mov    %rax,-0xc08(%rbp)
    ff24:	48 8d 85 60 ee ff ff 	lea    -0x11a0(%rbp),%rax
    ff2b:	48 89 85 00 f4 ff ff 	mov    %rax,-0xc00(%rbp)
    ff32:	48 8d 85 00 ee ff ff 	lea    -0x1200(%rbp),%rax
    ff39:	48 89 85 08 f4 ff ff 	mov    %rax,-0xbf8(%rbp)
    ff40:	48 8d 85 d8 ed ff ff 	lea    -0x1228(%rbp),%rax
    ff47:	48 89 85 10 f4 ff ff 	mov    %rax,-0xbf0(%rbp)
    ff4e:	48 8d 85 e0 ed ff ff 	lea    -0x1220(%rbp),%rax
    ff55:	48 89 85 18 f4 ff ff 	mov    %rax,-0xbe8(%rbp)
    ff5c:	48 8d 85 10 ee ff ff 	lea    -0x11f0(%rbp),%rax
    ff63:	48 89 85 20 f4 ff ff 	mov    %rax,-0xbe0(%rbp)
    ff6a:	48 8d 85 80 ee ff ff 	lea    -0x1180(%rbp),%rax
    ff71:	48 89 85 28 f4 ff ff 	mov    %rax,-0xbd8(%rbp)
    ff78:	48 8d 85 00 f1 ff ff 	lea    -0xf00(%rbp),%rax
    ff7f:	48 83 c0 30          	add    $0x30,%rax
    ff83:	48 89 85 30 f4 ff ff 	mov    %rax,-0xbd0(%rbp)
    ff8a:	48 c7 85 38 f4 ff ff 	movq   $0x0,-0xbc8(%rbp)
    ff91:	00 00 00 00 
    ff95:	48 c7 85 40 f4 ff ff 	movq   $0x0,-0xbc0(%rbp)
    ff9c:	00 00 00 00 
    ffa0:	48 8d 85 60 f8 ff ff 	lea    -0x7a0(%rbp),%rax
    ffa7:	48 05 38 07 00 00    	add    $0x738,%rax
    ffad:	48 89 85 48 f4 ff ff 	mov    %rax,-0xbb8(%rbp)
    ffb4:	48 8d 85 08 ee ff ff 	lea    -0x11f8(%rbp),%rax
    ffbb:	48 89 85 50 f4 ff ff 	mov    %rax,-0xbb0(%rbp)
    ffc2:	48 c7 85 58 f4 ff ff 	movq   $0x0,-0xba8(%rbp)
    ffc9:	00 00 00 00 
    ffcd:	48 8d 85 50 ee ff ff 	lea    -0x11b0(%rbp),%rax
    ffd4:	48 89 85 60 f4 ff ff 	mov    %rax,-0xba0(%rbp)
    ffdb:	48 8d 85 28 ee ff ff 	lea    -0x11d8(%rbp),%rax
    ffe2:	48 89 85 68 f4 ff ff 	mov    %rax,-0xb98(%rbp)
    ffe9:	48 8d 85 38 ee ff ff 	lea    -0x11c8(%rbp),%rax
    fff0:	48 89 85 70 f4 ff ff 	mov    %rax,-0xb90(%rbp)
    fff7:	48 8d 85 78 ee ff ff 	lea    -0x1188(%rbp),%rax
    fffe:	48 89 85 78 f4 ff ff 	mov    %rax,-0xb88(%rbp)
   10005:	48 8d 85 80 f0 ff ff 	lea    -0xf80(%rbp),%rax
   1000c:	48 83 c0 58          	add    $0x58,%rax
   10010:	48 89 85 80 f4 ff ff 	mov    %rax,-0xb80(%rbp)
   10017:	48 8d 85 68 ee ff ff 	lea    -0x1198(%rbp),%rax
   1001e:	48 89 85 88 f4 ff ff 	mov    %rax,-0xb78(%rbp)
   10025:	48 8d 85 18 ee ff ff 	lea    -0x11e8(%rbp),%rax
   1002c:	48 89 85 90 f4 ff ff 	mov    %rax,-0xb70(%rbp)
   10033:	48 8d 85 00 ee ff ff 	lea    -0x1200(%rbp),%rax
   1003a:	48 89 85 98 f4 ff ff 	mov    %rax,-0xb68(%rbp)
   10041:	48 8d 85 50 ee ff ff 	lea    -0x11b0(%rbp),%rax
   10048:	48 89 85 a0 f4 ff ff 	mov    %rax,-0xb60(%rbp)
   1004f:	48 8d 85 a0 ee ff ff 	lea    -0x1160(%rbp),%rax
   10056:	48 89 85 a8 f4 ff ff 	mov    %rax,-0xb58(%rbp)
   1005d:	48 8d 85 40 ee ff ff 	lea    -0x11c0(%rbp),%rax
   10064:	48 89 85 b0 f4 ff ff 	mov    %rax,-0xb50(%rbp)
   1006b:	48 8d 85 f8 ed ff ff 	lea    -0x1208(%rbp),%rax
   10072:	48 89 85 b8 f4 ff ff 	mov    %rax,-0xb48(%rbp)
   10079:	48 8d 85 d8 ed ff ff 	lea    -0x1228(%rbp),%rax
   10080:	48 89 85 c0 f4 ff ff 	mov    %rax,-0xb40(%rbp)
   10087:	48 8d 85 f0 ed ff ff 	lea    -0x1210(%rbp),%rax
   1008e:	48 89 85 c8 f4 ff ff 	mov    %rax,-0xb38(%rbp)
   10095:	48 8d 85 30 ee ff ff 	lea    -0x11d0(%rbp),%rax
   1009c:	48 89 85 d0 f4 ff ff 	mov    %rax,-0xb30(%rbp)
   100a3:	48 c7 85 d8 f4 ff ff 	movq   $0x0,-0xb28(%rbp)
   100aa:	00 00 00 00 
   100ae:	48 8d 85 30 ee ff ff 	lea    -0x11d0(%rbp),%rax
   100b5:	48 89 85 e0 f4 ff ff 	mov    %rax,-0xb20(%rbp)
   100bc:	48 8d 85 f0 ed ff ff 	lea    -0x1210(%rbp),%rax
   100c3:	48 89 85 e8 f4 ff ff 	mov    %rax,-0xb18(%rbp)
   100ca:	48 8d 85 f0 ef ff ff 	lea    -0x1010(%rbp),%rax
   100d1:	48 83 c0 28          	add    $0x28,%rax
   100d5:	48 89 85 f0 f4 ff ff 	mov    %rax,-0xb10(%rbp)
   100dc:	48 8d 85 58 ee ff ff 	lea    -0x11a8(%rbp),%rax
   100e3:	48 89 85 f8 f4 ff ff 	mov    %rax,-0xb08(%rbp)
   100ea:	48 8d 85 a8 ee ff ff 	lea    -0x1158(%rbp),%rax
   100f1:	48 89 85 00 f5 ff ff 	mov    %rax,-0xb00(%rbp)
   100f8:	48 8d 85 58 ee ff ff 	lea    -0x11a8(%rbp),%rax
   100ff:	48 89 85 08 f5 ff ff 	mov    %rax,-0xaf8(%rbp)
   10106:	48 8d 85 f0 ef ff ff 	lea    -0x1010(%rbp),%rax
   1010d:	48 83 c0 28          	add    $0x28,%rax
   10111:	48 89 85 10 f5 ff ff 	mov    %rax,-0xaf0(%rbp)
   10118:	48 8d 85 00 f1 ff ff 	lea    -0xf00(%rbp),%rax
   1011f:	48 83 c0 30          	add    $0x30,%rax
   10123:	48 89 85 18 f5 ff ff 	mov    %rax,-0xae8(%rbp)
   1012a:	48 8d 85 10 ee ff ff 	lea    -0x11f0(%rbp),%rax
   10131:	48 89 85 20 f5 ff ff 	mov    %rax,-0xae0(%rbp)
   10138:	48 c7 85 28 f5 ff ff 	movq   $0x0,-0xad8(%rbp)
   1013f:	00 00 00 00 
   10143:	48 8d 85 c0 ee ff ff 	lea    -0x1140(%rbp),%rax
   1014a:	48 89 85 30 f5 ff ff 	mov    %rax,-0xad0(%rbp)
   10151:	48 8d 85 70 ee ff ff 	lea    -0x1190(%rbp),%rax
   10158:	48 89 85 38 f5 ff ff 	mov    %rax,-0xac8(%rbp)
   1015f:	48 8d 85 20 f2 ff ff 	lea    -0xde0(%rbp),%rax
   10166:	48 05 c0 01 00 00    	add    $0x1c0,%rax
   1016c:	48 89 85 00 ef ff ff 	mov    %rax,-0x1100(%rbp)
   10173:	48 b8 b9 ae 15 21 7a 	movabs $0xd420d87a2115aeb9,%rax
   1017a:	d8 20 d4 
   1017d:	48 89 85 08 ef ff ff 	mov    %rax,-0x10f8(%rbp)
   10184:	c7 85 a4 ed ff ff f8 	movl   $0xfffffff8,-0x125c(%rbp)
   1018b:	ff ff ff 
   1018e:	c7 85 a8 ed ff ff 22 	movl   $0x67665d22,-0x1258(%rbp)
   10195:	5d 66 67 
   10198:	c7 85 ac ed ff ff fd 	movl   $0xfffffffd,-0x1254(%rbp)
   1019f:	ff ff ff 
   101a2:	c7 85 b0 ed ff ff 07 	movl   $0x7,-0x1250(%rbp)
   101a9:	00 00 00 
   101ac:	c7 85 b4 ed ff ff 59 	movl   $0x69433159,-0x124c(%rbp)
   101b3:	31 43 69 
   101b6:	c7 85 b8 ed ff ff fe 	movl   $0xc1032fe,-0x1248(%rbp)
   101bd:	32 10 0c 
   101c0:	48 8d 05 21 73 00 00 	lea    0x7321(%rip),%rax        # 174e8 <g_188>
   101c7:	48 89 85 90 f1 ff ff 	mov    %rax,-0xe70(%rbp)
   101ce:	48 8d 05 13 73 00 00 	lea    0x7313(%rip),%rax        # 174e8 <g_188>
   101d5:	48 89 85 98 f1 ff ff 	mov    %rax,-0xe68(%rbp)
   101dc:	48 c7 85 a0 f1 ff ff 	movq   $0x0,-0xe60(%rbp)
   101e3:	00 00 00 00 
   101e7:	48 8d 05 fa 72 00 00 	lea    0x72fa(%rip),%rax        # 174e8 <g_188>
   101ee:	48 89 85 a8 f1 ff ff 	mov    %rax,-0xe58(%rbp)
   101f5:	48 8d 05 ec 72 00 00 	lea    0x72ec(%rip),%rax        # 174e8 <g_188>
   101fc:	48 89 85 b0 f1 ff ff 	mov    %rax,-0xe50(%rbp)
   10203:	48 c7 85 b8 f1 ff ff 	movq   $0x0,-0xe48(%rbp)
   1020a:	00 00 00 00 
   1020e:	48 8d 05 d3 72 00 00 	lea    0x72d3(%rip),%rax        # 174e8 <g_188>
   10215:	48 89 85 c0 f1 ff ff 	mov    %rax,-0xe40(%rbp)
   1021c:	48 8d 05 c5 72 00 00 	lea    0x72c5(%rip),%rax        # 174e8 <g_188>
   10223:	48 89 85 c8 f1 ff ff 	mov    %rax,-0xe38(%rbp)
   1022a:	48 c7 85 d0 f1 ff ff 	movq   $0x0,-0xe30(%rbp)
   10231:	00 00 00 00 
   10235:	48 8d 05 ac 72 00 00 	lea    0x72ac(%rip),%rax        # 174e8 <g_188>
   1023c:	48 89 85 d8 f1 ff ff 	mov    %rax,-0xe28(%rbp)
   10243:	48 8d 05 9e 72 00 00 	lea    0x729e(%rip),%rax        # 174e8 <g_188>
   1024a:	48 89 85 e0 f1 ff ff 	mov    %rax,-0xe20(%rbp)
   10251:	48 c7 85 e8 f1 ff ff 	movq   $0x0,-0xe18(%rbp)
   10258:	00 00 00 00 
   1025c:	48 8d 05 85 72 00 00 	lea    0x7285(%rip),%rax        # 174e8 <g_188>
   10263:	48 89 85 f0 f1 ff ff 	mov    %rax,-0xe10(%rbp)
   1026a:	48 8d 05 77 72 00 00 	lea    0x7277(%rip),%rax        # 174e8 <g_188>
   10271:	48 89 85 f8 f1 ff ff 	mov    %rax,-0xe08(%rbp)
   10278:	48 c7 85 00 f2 ff ff 	movq   $0x0,-0xe00(%rbp)
   1027f:	00 00 00 00 
   10283:	48 8d 05 5e 72 00 00 	lea    0x725e(%rip),%rax        # 174e8 <g_188>
   1028a:	48 89 85 08 f2 ff ff 	mov    %rax,-0xdf8(%rbp)
   10291:	48 8d 05 50 72 00 00 	lea    0x7250(%rip),%rax        # 174e8 <g_188>
   10298:	48 89 85 10 f2 ff ff 	mov    %rax,-0xdf0(%rbp)
   1029f:	48 c7 85 18 f2 ff ff 	movq   $0x0,-0xde8(%rbp)
   102a6:	00 00 00 00 
   102aa:	48 8d 85 90 f1 ff ff 	lea    -0xe70(%rbp),%rax
   102b1:	48 83 c0 40          	add    $0x40,%rax
   102b5:	48 89 85 10 ef ff ff 	mov    %rax,-0x10f0(%rbp)
   102bc:	48 8d 05 95 96 00 00 	lea    0x9695(%rip),%rax        # 19958 <g_914>
   102c3:	48 89 85 18 ef ff ff 	mov    %rax,-0x10e8(%rbp)
   102ca:	48 c7 85 c8 ee ff ff 	movq   $0x0,-0x1138(%rbp)
   102d1:	00 00 00 00 
   102d5:	48 8d 85 c8 ee ff ff 	lea    -0x1138(%rbp),%rax
   102dc:	48 89 85 20 ef ff ff 	mov    %rax,-0x10e0(%rbp)
   102e3:	c7 85 90 ef ff ff 1a 	movl   $0xfe1e0f1a,-0x1070(%rbp)
   102ea:	0f 1e fe 
   102ed:	c7 85 94 ef ff ff 1a 	movl   $0xfe1e0f1a,-0x106c(%rbp)
   102f4:	0f 1e fe 
   102f7:	c7 85 98 ef ff ff 1a 	movl   $0xfe1e0f1a,-0x1068(%rbp)
   102fe:	0f 1e fe 
   10301:	c7 85 9c ef ff ff 1a 	movl   $0xfe1e0f1a,-0x1064(%rbp)
   10308:	0f 1e fe 
   1030b:	c7 85 a0 ef ff ff 1a 	movl   $0xfe1e0f1a,-0x1060(%rbp)
   10312:	0f 1e fe 
   10315:	c7 85 a4 ef ff ff 1a 	movl   $0xfe1e0f1a,-0x105c(%rbp)
   1031c:	0f 1e fe 
   1031f:	c7 85 a8 ef ff ff 1a 	movl   $0xfe1e0f1a,-0x1058(%rbp)
   10326:	0f 1e fe 
   10329:	c7 85 ac ef ff ff 1a 	movl   $0xfe1e0f1a,-0x1054(%rbp)
   10330:	0f 1e fe 
   10333:	c7 85 b0 ef ff ff 1a 	movl   $0xfe1e0f1a,-0x1050(%rbp)
   1033a:	0f 1e fe 
   1033d:	c6 85 9a ed ff ff 62 	movb   $0x62,-0x1266(%rbp)
   10344:	48 8d 85 40 f5 ff ff 	lea    -0xac0(%rbp),%rax
   1034b:	48 8d 15 ee 31 00 00 	lea    0x31ee(%rip),%rdx        # 13540 <g_2501+0x14e0>
   10352:	b9 64 00 00 00       	mov    $0x64,%ecx
   10357:	48 89 c7             	mov    %rax,%rdi
   1035a:	48 89 d6             	mov    %rdx,%rsi
   1035d:	f3 48 a5             	rep movsq %ds:(%rsi),%es:(%rdi)
   10360:	48 8d 05 b1 88 00 00 	lea    0x88b1(%rip),%rax        # 18c18 <g_561>
   10367:	48 89 85 30 f0 ff ff 	mov    %rax,-0xfd0(%rbp)
   1036e:	48 8d 05 a3 88 00 00 	lea    0x88a3(%rip),%rax        # 18c18 <g_561>
   10375:	48 89 85 38 f0 ff ff 	mov    %rax,-0xfc8(%rbp)
   1037c:	48 8d 05 95 88 00 00 	lea    0x8895(%rip),%rax        # 18c18 <g_561>
   10383:	48 89 85 40 f0 ff ff 	mov    %rax,-0xfc0(%rbp)
   1038a:	48 8d 05 87 88 00 00 	lea    0x8887(%rip),%rax        # 18c18 <g_561>
   10391:	48 89 85 48 f0 ff ff 	mov    %rax,-0xfb8(%rbp)
   10398:	48 8d 05 79 88 00 00 	lea    0x8879(%rip),%rax        # 18c18 <g_561>
   1039f:	48 89 85 50 f0 ff ff 	mov    %rax,-0xfb0(%rbp)
   103a6:	48 8d 05 6b 88 00 00 	lea    0x886b(%rip),%rax        # 18c18 <g_561>
   103ad:	48 89 85 58 f0 ff ff 	mov    %rax,-0xfa8(%rbp)
   103b4:	48 8d 05 5d 88 00 00 	lea    0x885d(%rip),%rax        # 18c18 <g_561>
   103bb:	48 89 85 60 f0 ff ff 	mov    %rax,-0xfa0(%rbp)
   103c2:	48 8d 05 4f 88 00 00 	lea    0x884f(%rip),%rax        # 18c18 <g_561>
   103c9:	48 89 85 68 f0 ff ff 	mov    %rax,-0xf98(%rbp)
   103d0:	48 8d 05 41 88 00 00 	lea    0x8841(%rip),%rax        # 18c18 <g_561>
   103d7:	48 89 85 70 f0 ff ff 	mov    %rax,-0xf90(%rbp)
   103de:	c7 85 9c ed ff ff 00 	movl   $0x0,-0x1264(%rbp)
   103e5:	00 00 00 
   103e8:	eb 1a                	jmp    10404 <func_58+0xc8f>
   103ea:	8b 85 9c ed ff ff    	mov    -0x1264(%rbp),%eax
   103f0:	48 98                	cltq   
   103f2:	c7 84 85 64 ef ff ff 	movl   $0xd4f0a7ae,-0x109c(%rbp,%rax,4)
   103f9:	ae a7 f0 d4 
   103fd:	83 85 9c ed ff ff 01 	addl   $0x1,-0x1264(%rbp)
   10404:	83 bd 9c ed ff ff 02 	cmpl   $0x2,-0x1264(%rbp)
   1040b:	7e dd                	jle    103ea <func_58+0xc75>
   1040d:	48 c7 05 f0 94 00 00 	movq   $0x0,0x94f0(%rip)        # 19908 <g_68>
   10414:	00 00 00 00 
   10418:	90                   	nop
   10419:	48 8b 05 e8 94 00 00 	mov    0x94e8(%rip),%rax        # 19908 <g_68>
   10420:	48 83 f8 18          	cmp    $0x18,%rax
   10424:	0f 87 0b 01 00 00    	ja     10535 <func_58+0xdc0>
   1042a:	48 c7 85 e8 ee ff ff 	movq   $0x0,-0x1118(%rbp)
   10431:	00 00 00 00 
   10435:	48 8d 05 fc 70 00 00 	lea    0x70fc(%rip),%rax        # 17538 <g_594>
   1043c:	48 89 85 50 ef ff ff 	mov    %rax,-0x10b0(%rbp)
   10443:	48 c7 85 e8 ee ff ff 	movq   $0x0,-0x1118(%rbp)
   1044a:	00 00 00 00 
   1044e:	c7 05 90 94 00 00 00 	movl   $0x0,0x9490(%rip)        # 198e8 <g_2>
   10455:	00 00 00 
   10458:	0f be 85 88 ed ff ff 	movsbl -0x1278(%rbp),%eax
   1045f:	89 c7                	mov    %eax,%edi
   10461:	e8 93 04 00 00       	callq  108f9 <func_80>
   10466:	48 85 c0             	test   %rax,%rax
   10469:	0f 85 a6 00 00 00    	jne    10515 <func_58+0xda0>
   1046f:	0f be 9d 88 ed ff ff 	movsbl -0x1278(%rbp),%ebx
   10476:	0f bf 95 8c ed ff ff 	movswl -0x1274(%rbp),%edx
   1047d:	0f be 85 88 ed ff ff 	movsbl -0x1278(%rbp),%eax
   10484:	09 d0                	or     %edx,%eax
   10486:	48 63 d0             	movslq %eax,%rdx
   10489:	48 8b 05 20 81 00 00 	mov    0x8120(%rip),%rax        # 185b0 <g_118>
   10490:	8b 00                	mov    (%rax),%eax
   10492:	89 c6                	mov    %eax,%esi
   10494:	0f b7 05 af 70 00 00 	movzwl 0x70af(%rip),%eax        # 1754a <g_936>
   1049b:	0f bf c8             	movswl %ax,%ecx
   1049e:	48 8b 85 50 ef ff ff 	mov    -0x10b0(%rbp),%rax
   104a5:	89 08                	mov    %ecx,(%rax)
   104a7:	48 8b 85 50 ef ff ff 	mov    -0x10b0(%rbp),%rax
   104ae:	8b 00                	mov    (%rax),%eax
   104b0:	39 c6                	cmp    %eax,%esi
   104b2:	0f 94 c0             	sete   %al
   104b5:	0f b6 c0             	movzbl %al,%eax
   104b8:	48 89 d6             	mov    %rdx,%rsi
   104bb:	48 89 c7             	mov    %rax,%rdi
   104be:	e8 6b 6b ff ff       	callq  702e <safe_add_func_uint64_t_u_u>
   104c3:	0f be 85 99 ed ff ff 	movsbl -0x1267(%rbp),%eax
   104ca:	be 86 a4 25 20       	mov    $0x2025a486,%esi
   104cf:	89 c7                	mov    %eax,%edi
   104d1:	e8 fa 69 ff ff       	callq  6ed0 <safe_sub_func_uint32_t_u_u>
   104d6:	48 8b 85 78 ed ff ff 	mov    -0x1288(%rbp),%rax
   104dd:	89 c2                	mov    %eax,%edx
   104df:	48 8b 85 50 ef ff ff 	mov    -0x10b0(%rbp),%rax
   104e6:	89 10                	mov    %edx,(%rax)
   104e8:	48 8b 85 50 ef ff ff 	mov    -0x10b0(%rbp),%rax
   104ef:	8b 00                	mov    (%rax),%eax
   104f1:	89 de                	mov    %ebx,%esi
   104f3:	89 c7                	mov    %eax,%edi
   104f5:	e8 03 6a ff ff       	callq  6efd <safe_mod_func_uint32_t_u_u>
   104fa:	0f b7 c0             	movzwl %ax,%eax
   104fd:	89 c6                	mov    %eax,%esi
   104ff:	bf 06 00 00 00       	mov    $0x6,%edi
   10504:	e8 16 68 ff ff       	callq  6d1f <safe_sub_func_uint16_t_u_u>
   10509:	0f b7 d0             	movzwl %ax,%edx
   1050c:	0f be 85 99 ed ff ff 	movsbl -0x1267(%rbp),%eax
   10513:	39 c2                	cmp    %eax,%edx
   10515:	48 8b 05 d4 88 00 00 	mov    0x88d4(%rip),%rax        # 18df0 <g_943>
   1051c:	48 8b 95 f0 ee ff ff 	mov    -0x1110(%rbp),%rdx
   10523:	48 89 10             	mov    %rdx,(%rax)
   10526:	48 8b 05 e3 86 00 00 	mov    0x86e3(%rip),%rax        # 18c10 <g_362>
   1052d:	48 8b 00             	mov    (%rax),%rax
   10530:	e9 1b 02 00 00       	jmpq   10750 <func_58+0xfdb>
   10535:	66 c7 05 0a 70 00 00 	movw   $0x0,0x700a(%rip)        # 17548 <g_891>
   1053c:	00 00 
   1053e:	e9 f5 01 00 00       	jmpq   10738 <func_58+0xfc3>
   10543:	48 8d 05 be 93 00 00 	lea    0x93be(%rip),%rax        # 19908 <g_68>
   1054a:	48 89 85 d0 ee ff ff 	mov    %rax,-0x1130(%rbp)
   10551:	48 8d 85 d0 ee ff ff 	lea    -0x1130(%rbp),%rax
   10558:	48 89 85 70 ef ff ff 	mov    %rax,-0x1090(%rbp)
   1055f:	48 8d 85 d0 ee ff ff 	lea    -0x1130(%rbp),%rax
   10566:	48 89 85 78 ef ff ff 	mov    %rax,-0x1088(%rbp)
   1056d:	48 8d 85 d0 ee ff ff 	lea    -0x1130(%rbp),%rax
   10574:	48 89 85 80 ef ff ff 	mov    %rax,-0x1080(%rbp)
   1057b:	48 8d 85 70 ef ff ff 	lea    -0x1090(%rbp),%rax
   10582:	48 83 c0 08          	add    $0x8,%rax
   10586:	48 89 85 d8 ee ff ff 	mov    %rax,-0x1128(%rbp)
   1058d:	48 8d 85 d8 ee ff ff 	lea    -0x1128(%rbp),%rax
   10594:	48 89 85 c0 ef ff ff 	mov    %rax,-0x1040(%rbp)
   1059b:	48 8d 85 d8 ee ff ff 	lea    -0x1128(%rbp),%rax
   105a2:	48 89 85 c8 ef ff ff 	mov    %rax,-0x1038(%rbp)
   105a9:	48 8d 85 d8 ee ff ff 	lea    -0x1128(%rbp),%rax
   105b0:	48 89 85 d0 ef ff ff 	mov    %rax,-0x1030(%rbp)
   105b7:	48 8d 85 d8 ee ff ff 	lea    -0x1128(%rbp),%rax
   105be:	48 89 85 d8 ef ff ff 	mov    %rax,-0x1028(%rbp)
   105c5:	48 8d 85 d8 ee ff ff 	lea    -0x1128(%rbp),%rax
   105cc:	48 89 85 e0 ef ff ff 	mov    %rax,-0x1020(%rbp)
   105d3:	48 8d 85 d8 ee ff ff 	lea    -0x1128(%rbp),%rax
   105da:	48 89 85 e8 ef ff ff 	mov    %rax,-0x1018(%rbp)
   105e1:	c7 85 bc ed ff ff f6 	movl   $0xfffffff6,-0x1244(%rbp)
   105e8:	ff ff ff 
   105eb:	c6 85 9b ed ff ff 01 	movb   $0x1,-0x1265(%rbp)
   105f2:	48 8d 05 1a 6f 00 00 	lea    0x6f1a(%rip),%rax        # 17513 <g_242+0x13>
   105f9:	48 89 85 e0 ee ff ff 	mov    %rax,-0x1120(%rbp)
   10600:	48 8d 85 e0 ee ff ff 	lea    -0x1120(%rbp),%rax
   10607:	48 89 85 28 ef ff ff 	mov    %rax,-0x10d8(%rbp)
   1060e:	48 c7 85 e8 ee ff ff 	movq   $0x0,-0x1118(%rbp)
   10615:	00 00 00 00 
   10619:	48 8d 85 e8 ee ff ff 	lea    -0x1118(%rbp),%rax
   10620:	48 89 85 30 ef ff ff 	mov    %rax,-0x10d0(%rbp)
   10627:	48 8d 05 62 6a 00 00 	lea    0x6a62(%rip),%rax        # 17090 <g_4+0x50>
   1062e:	48 89 85 38 ef ff ff 	mov    %rax,-0x10c8(%rbp)
   10635:	48 b8 53 71 88 b7 92 	movabs $0xe52bc292b7887153,%rax
   1063c:	c2 2b e5 
   1063f:	48 89 85 40 ef ff ff 	mov    %rax,-0x10c0(%rbp)
   10646:	48 c7 85 48 ef ff ff 	movq   $0x0,-0x10b8(%rbp)
   1064d:	00 00 00 00 
   10651:	c7 85 c0 ed ff ff a0 	movl   $0xb98e00a0,-0x1240(%rbp)
   10658:	00 8e b9 
   1065b:	c7 85 c4 ed ff ff f6 	movl   $0xfffffff6,-0x123c(%rbp)
   10662:	ff ff ff 
   10665:	c7 85 a0 ed ff ff 00 	movl   $0x0,-0x1260(%rbp)
   1066c:	00 00 00 
   1066f:	eb 1a                	jmp    1068b <func_58+0xf16>
   10671:	8b 85 a0 ed ff ff    	mov    -0x1260(%rbp),%eax
   10677:	48 98                	cltq   
   10679:	c7 84 85 5c ef ff ff 	movl   $0xb2a66b70,-0x10a4(%rbp,%rax,4)
   10680:	70 6b a6 b2 
   10684:	83 85 a0 ed ff ff 01 	addl   $0x1,-0x1260(%rbp)
   1068b:	83 bd a0 ed ff ff 01 	cmpl   $0x1,-0x1260(%rbp)
   10692:	7e dd                	jle    10671 <func_58+0xefc>
   10694:	48 83 bd 78 ed ff ff 	cmpq   $0x0,-0x1288(%rbp)
   1069b:	00 
   1069c:	75 31                	jne    106cf <func_58+0xf5a>
   1069e:	48 8b 85 d8 ee ff ff 	mov    -0x1128(%rbp),%rax
   106a5:	48 89 85 00 ef ff ff 	mov    %rax,-0x1100(%rbp)
   106ac:	48 83 bd 00 ef ff ff 	cmpq   $0x0,-0x1100(%rbp)
   106b3:	00 
   106b4:	0f 94 c0             	sete   %al
   106b7:	0f b6 d0             	movzbl %al,%edx
   106ba:	48 0f bf 85 8c ed ff 	movswq -0x1274(%rbp),%rax
   106c1:	ff 
   106c2:	48 89 d6             	mov    %rdx,%rsi
   106c5:	48 89 c7             	mov    %rax,%rdi
   106c8:	e8 61 69 ff ff       	callq  702e <safe_add_func_uint64_t_u_u>
   106cd:	eb 27                	jmp    106f6 <func_58+0xf81>
   106cf:	8b 05 f7 69 00 00    	mov    0x69f7(%rip),%eax        # 170cc <g_4+0x8c>
   106d5:	0f be d0             	movsbl %al,%edx
   106d8:	0f b7 85 8c ed ff ff 	movzwl -0x1274(%rbp),%eax
   106df:	0f be c0             	movsbl %al,%eax
   106e2:	89 d6                	mov    %edx,%esi
   106e4:	89 c7                	mov    %eax,%edi
   106e6:	e8 e9 5a ff ff       	callq  61d4 <safe_add_func_int8_t_s_s>
   106eb:	3c 01                	cmp    $0x1,%al
   106ed:	75 07                	jne    106f6 <func_58+0xf81>
   106ef:	b8 01 00 00 00       	mov    $0x1,%eax
   106f4:	eb 05                	jmp    106fb <func_58+0xf86>
   106f6:	b8 00 00 00 00       	mov    $0x0,%eax
   106fb:	0f be c0             	movsbl %al,%eax
   106fe:	be f8 ff ff ff       	mov    $0xfffffff8,%esi
   10703:	89 c7                	mov    %eax,%edi
   10705:	e8 27 5b ff ff       	callq  6231 <safe_mod_func_int8_t_s_s>
   1070a:	89 c2                	mov    %eax,%edx
   1070c:	48 8b 05 05 85 00 00 	mov    0x8505(%rip),%rax        # 18c18 <g_561>
   10713:	0f be d2             	movsbl %dl,%edx
   10716:	89 10                	mov    %edx,(%rax)
   10718:	0f b7 05 29 6e 00 00 	movzwl 0x6e29(%rip),%eax        # 17548 <g_891>
   1071f:	0f b6 c0             	movzbl %al,%eax
   10722:	be 05 00 00 00       	mov    $0x5,%esi
   10727:	89 c7                	mov    %eax,%edi
   10729:	e8 2c 64 ff ff       	callq  6b5a <safe_add_func_uint8_t_u_u>
   1072e:	0f b6 c0             	movzbl %al,%eax
   10731:	66 89 05 10 6e 00 00 	mov    %ax,0x6e10(%rip)        # 17548 <g_891>
   10738:	0f b7 05 09 6e 00 00 	movzwl 0x6e09(%rip),%eax        # 17548 <g_891>
   1073f:	66 83 f8 23          	cmp    $0x23,%ax
   10743:	0f 86 fa fd ff ff    	jbe    10543 <func_58+0xdce>
   10749:	48 8b 85 48 f0 ff ff 	mov    -0xfb8(%rbp),%rax
   10750:	48 8b 5d e8          	mov    -0x18(%rbp),%rbx
   10754:	64 48 33 1c 25 28 00 	xor    %fs:0x28,%rbx
   1075b:	00 00 
   1075d:	74 05                	je     10764 <func_58+0xfef>
   1075f:	e8 0c 59 ff ff       	callq  6070 <__stack_chk_fail@plt>
   10764:	48 81 c4 88 12 00 00 	add    $0x1288,%rsp
   1076b:	5b                   	pop    %rbx
   1076c:	5d                   	pop    %rbp
   1076d:	c3                   	retq   

000000000001076e <func_69>:
   1076e:	f3 0f 1e fa          	endbr64 
   10772:	55                   	push   %rbp
   10773:	48 89 e5             	mov    %rsp,%rbp
   10776:	48 81 ec 00 01 00 00 	sub    $0x100,%rsp
   1077d:	48 89 bd 08 ff ff ff 	mov    %rdi,-0xf8(%rbp)
   10784:	89 b5 04 ff ff ff    	mov    %esi,-0xfc(%rbp)
   1078a:	64 48 8b 04 25 28 00 	mov    %fs:0x28,%rax
   10791:	00 00 
   10793:	48 89 45 f8          	mov    %rax,-0x8(%rbp)
   10797:	31 c0                	xor    %eax,%eax
   10799:	48 8d 05 24 69 00 00 	lea    0x6924(%rip),%rax        # 170c4 <g_4+0x84>
   107a0:	48 89 85 18 ff ff ff 	mov    %rax,-0xe8(%rbp)
   107a7:	48 8d 85 18 ff ff ff 	lea    -0xe8(%rbp),%rax
   107ae:	48 89 85 20 ff ff ff 	mov    %rax,-0xe0(%rbp)
   107b5:	48 c7 85 28 ff ff ff 	movq   $0x0,-0xd8(%rbp)
   107bc:	00 00 00 00 
   107c0:	48 c7 85 30 ff ff ff 	movq   $0x0,-0xd0(%rbp)
   107c7:	00 00 00 00 
   107cb:	48 8d 85 18 ff ff ff 	lea    -0xe8(%rbp),%rax
   107d2:	48 89 85 38 ff ff ff 	mov    %rax,-0xc8(%rbp)
   107d9:	48 8d 85 18 ff ff ff 	lea    -0xe8(%rbp),%rax
   107e0:	48 89 85 40 ff ff ff 	mov    %rax,-0xc0(%rbp)
   107e7:	48 c7 85 48 ff ff ff 	movq   $0x0,-0xb8(%rbp)
   107ee:	00 00 00 00 
   107f2:	48 c7 85 50 ff ff ff 	movq   $0x0,-0xb0(%rbp)
   107f9:	00 00 00 00 
   107fd:	48 8d 85 18 ff ff ff 	lea    -0xe8(%rbp),%rax
   10804:	48 89 85 58 ff ff ff 	mov    %rax,-0xa8(%rbp)
   1080b:	48 8d 85 18 ff ff ff 	lea    -0xe8(%rbp),%rax
   10812:	48 89 85 60 ff ff ff 	mov    %rax,-0xa0(%rbp)
   10819:	48 8d 85 18 ff ff ff 	lea    -0xe8(%rbp),%rax
   10820:	48 89 85 68 ff ff ff 	mov    %rax,-0x98(%rbp)
   10827:	48 8d 85 18 ff ff ff 	lea    -0xe8(%rbp),%rax
   1082e:	48 89 85 70 ff ff ff 	mov    %rax,-0x90(%rbp)
   10835:	48 8d 85 18 ff ff ff 	lea    -0xe8(%rbp),%rax
   1083c:	48 89 85 78 ff ff ff 	mov    %rax,-0x88(%rbp)
   10843:	48 8d 85 18 ff ff ff 	lea    -0xe8(%rbp),%rax
   1084a:	48 89 45 80          	mov    %rax,-0x80(%rbp)
   1084e:	48 8d 85 18 ff ff ff 	lea    -0xe8(%rbp),%rax
   10855:	48 89 45 88          	mov    %rax,-0x78(%rbp)
   10859:	48 8d 85 18 ff ff ff 	lea    -0xe8(%rbp),%rax
   10860:	48 89 45 90          	mov    %rax,-0x70(%rbp)
   10864:	48 8d 85 18 ff ff ff 	lea    -0xe8(%rbp),%rax
   1086b:	48 89 45 98          	mov    %rax,-0x68(%rbp)
   1086f:	48 8d 85 18 ff ff ff 	lea    -0xe8(%rbp),%rax
   10876:	48 89 45 a0          	mov    %rax,-0x60(%rbp)
   1087a:	48 8d 85 18 ff ff ff 	lea    -0xe8(%rbp),%rax
   10881:	48 89 45 a8          	mov    %rax,-0x58(%rbp)
   10885:	48 8d 85 18 ff ff ff 	lea    -0xe8(%rbp),%rax
   1088c:	48 89 45 b0          	mov    %rax,-0x50(%rbp)
   10890:	48 8d 85 18 ff ff ff 	lea    -0xe8(%rbp),%rax
   10897:	48 89 45 b8          	mov    %rax,-0x48(%rbp)
   1089b:	48 c7 45 c0 00 00 00 	movq   $0x0,-0x40(%rbp)
   108a2:	00 
   108a3:	48 c7 45 c8 00 00 00 	movq   $0x0,-0x38(%rbp)
   108aa:	00 
   108ab:	48 8d 85 18 ff ff ff 	lea    -0xe8(%rbp),%rax
   108b2:	48 89 45 d0          	mov    %rax,-0x30(%rbp)
   108b6:	48 8d 85 18 ff ff ff 	lea    -0xe8(%rbp),%rax
   108bd:	48 89 45 d8          	mov    %rax,-0x28(%rbp)
   108c1:	48 c7 45 e0 00 00 00 	movq   $0x0,-0x20(%rbp)
   108c8:	00 
   108c9:	48 c7 45 e8 00 00 00 	movq   $0x0,-0x18(%rbp)
   108d0:	00 
   108d1:	48 8d 85 18 ff ff ff 	lea    -0xe8(%rbp),%rax
   108d8:	48 89 45 f0          	mov    %rax,-0x10(%rbp)
   108dc:	48 8b 05 1d 7b 00 00 	mov    0x7b1d(%rip),%rax        # 18400 <g_33>
   108e3:	48 8b 55 f8          	mov    -0x8(%rbp),%rdx
   108e7:	64 48 33 14 25 28 00 	xor    %fs:0x28,%rdx
   108ee:	00 00 
   108f0:	74 05                	je     108f7 <func_69+0x189>
   108f2:	e8 79 57 ff ff       	callq  6070 <__stack_chk_fail@plt>
   108f7:	c9                   	leaveq 
   108f8:	c3                   	retq   

00000000000108f9 <func_80>:
   108f9:	f3 0f 1e fa          	endbr64 
   108fd:	55                   	push   %rbp
   108fe:	48 89 e5             	mov    %rsp,%rbp
   10901:	48 81 ec 00 04 00 00 	sub    $0x400,%rsp
   10908:	89 f8                	mov    %edi,%eax
   1090a:	66 89 85 0c fc ff ff 	mov    %ax,-0x3f4(%rbp)
   10911:	64 48 8b 04 25 28 00 	mov    %fs:0x28,%rax
   10918:	00 00 
   1091a:	48 89 45 f8          	mov    %rax,-0x8(%rbp)
   1091e:	31 c0                	xor    %eax,%eax
   10920:	48 b8 65 65 65 65 65 	movabs $0x6565656565656565,%rax
   10927:	65 65 65 
   1092a:	48 89 45 ef          	mov    %rax,-0x11(%rbp)
   1092e:	c6 45 f7 65          	movb   $0x65,-0x9(%rbp)
   10932:	c7 85 50 fc ff ff 72 	movl   $0xf9eb2f72,-0x3b0(%rbp)
   10939:	2f eb f9 
   1093c:	c7 85 24 fc ff ff fe 	movl   $0xfffffffe,-0x3dc(%rbp)
   10943:	ff ff ff 
   10946:	c7 85 54 fc ff ff df 	movl   $0x8f1b91df,-0x3ac(%rbp)
   1094d:	91 1b 8f 
   10950:	c7 85 58 fc ff ff 17 	movl   $0x1dab3d17,-0x3a8(%rbp)
   10957:	3d ab 1d 
   1095a:	c7 85 28 fc ff ff 39 	movl   $0x70729e39,-0x3d8(%rbp)
   10961:	9e 72 70 
   10964:	48 8d 05 9d 8f 00 00 	lea    0x8f9d(%rip),%rax        # 19908 <g_68>
   1096b:	48 89 85 b0 fc ff ff 	mov    %rax,-0x350(%rbp)
   10972:	48 8d 05 6f 6b 00 00 	lea    0x6b6f(%rip),%rax        # 174e8 <g_188>
   10979:	48 89 85 b8 fc ff ff 	mov    %rax,-0x348(%rbp)
   10980:	c7 85 30 fc ff ff 00 	movl   $0x0,-0x3d0(%rbp)
   10987:	00 00 00 
   1098a:	48 8d 05 5f 6b 00 00 	lea    0x6b5f(%rip),%rax        # 174f0 <g_203>
   10991:	48 89 85 88 fc ff ff 	mov    %rax,-0x378(%rbp)
   10998:	48 8d 85 88 fc ff ff 	lea    -0x378(%rbp),%rax
   1099f:	48 89 85 c0 fc ff ff 	mov    %rax,-0x340(%rbp)
   109a6:	c7 85 2c fc ff ff c5 	movl   $0x53e3e4c5,-0x3d4(%rbp)
   109ad:	e4 e3 53 
   109b0:	48 8d 85 2c fc ff ff 	lea    -0x3d4(%rbp),%rax
   109b7:	48 89 85 c8 fc ff ff 	mov    %rax,-0x338(%rbp)
   109be:	48 8d 05 27 6b 00 00 	lea    0x6b27(%rip),%rax        # 174ec <g_190>
   109c5:	48 89 85 d0 fc ff ff 	mov    %rax,-0x330(%rbp)
   109cc:	48 b8 4a 41 e3 69 92 	movabs $0x72e609269e3414a,%rax
   109d3:	60 2e 07 
   109d6:	48 89 85 d8 fc ff ff 	mov    %rax,-0x328(%rbp)
   109dd:	48 b8 ce ed 6b b7 58 	movabs $0xccf96f58b76bedce,%rax
   109e4:	6f f9 cc 
   109e7:	48 89 85 a8 fc ff ff 	mov    %rax,-0x358(%rbp)
   109ee:	c7 85 70 fd ff ff f9 	movl   $0xfffffff9,-0x290(%rbp)
   109f5:	ff ff ff 
   109f8:	c7 85 74 fd ff ff f9 	movl   $0xfffffff9,-0x28c(%rbp)
   109ff:	ff ff ff 
   10a02:	c7 85 78 fd ff ff f9 	movl   $0xfffffff9,-0x288(%rbp)
   10a09:	ff ff ff 
   10a0c:	c7 85 7c fd ff ff f9 	movl   $0xfffffff9,-0x284(%rbp)
   10a13:	ff ff ff 
   10a16:	c7 85 80 fd ff ff f9 	movl   $0xfffffff9,-0x280(%rbp)
   10a1d:	ff ff ff 
   10a20:	c7 85 84 fd ff ff f9 	movl   $0xfffffff9,-0x27c(%rbp)
   10a27:	ff ff ff 
   10a2a:	c7 85 88 fd ff ff f9 	movl   $0xfffffff9,-0x278(%rbp)
   10a31:	ff ff ff 
   10a34:	c7 85 8c fd ff ff f9 	movl   $0xfffffff9,-0x274(%rbp)
   10a3b:	ff ff ff 
   10a3e:	c7 85 90 fd ff ff f9 	movl   $0xfffffff9,-0x270(%rbp)
   10a45:	ff ff ff 
   10a48:	c6 85 1b fc ff ff 02 	movb   $0x2,-0x3e5(%rbp)
   10a4f:	48 b8 9e 50 06 c7 b2 	movabs $0xb79f4fb2c706509e,%rax
   10a56:	4f 9f b7 
   10a59:	48 89 85 e0 fc ff ff 	mov    %rax,-0x320(%rbp)
   10a60:	c7 85 a0 fd ff ff 98 	movl   $0xb22f7b98,-0x260(%rbp)
   10a67:	7b 2f b2 
   10a6a:	c7 85 a4 fd ff ff d3 	movl   $0x86b724d3,-0x25c(%rbp)
   10a71:	24 b7 86 
   10a74:	c7 85 a8 fd ff ff 98 	movl   $0xb22f7b98,-0x258(%rbp)
   10a7b:	7b 2f b2 
   10a7e:	c7 85 ac fd ff ff d3 	movl   $0x86b724d3,-0x254(%rbp)
   10a85:	24 b7 86 
   10a88:	c7 85 b0 fd ff ff 98 	movl   $0xb22f7b98,-0x250(%rbp)
   10a8f:	7b 2f b2 
   10a92:	c7 85 b4 fd ff ff d3 	movl   $0x86b724d3,-0x24c(%rbp)
   10a99:	24 b7 86 
   10a9c:	c7 85 b8 fd ff ff 98 	movl   $0xb22f7b98,-0x248(%rbp)
   10aa3:	7b 2f b2 
   10aa6:	c7 85 bc fd ff ff d3 	movl   $0x86b724d3,-0x244(%rbp)
   10aad:	24 b7 86 
   10ab0:	c7 85 c0 fd ff ff 98 	movl   $0xb22f7b98,-0x240(%rbp)
   10ab7:	7b 2f b2 
   10aba:	48 c7 85 e8 fc ff ff 	movq   $0xfffffffffffffff9,-0x318(%rbp)
   10ac1:	f9 ff ff ff 
   10ac5:	c7 85 34 fc ff ff 00 	movl   $0x0,-0x3cc(%rbp)
   10acc:	00 00 00 
   10acf:	eb 19                	jmp    10aea <func_80+0x1f1>
   10ad1:	8b 85 34 fc ff ff    	mov    -0x3cc(%rbp),%eax
   10ad7:	48 98                	cltq   
   10ad9:	66 c7 84 45 64 fd ff 	movw   $0x6,-0x29c(%rbp,%rax,2)
   10ae0:	ff 06 00 
   10ae3:	83 85 34 fc ff ff 01 	addl   $0x1,-0x3cc(%rbp)
   10aea:	83 bd 34 fc ff ff 00 	cmpl   $0x0,-0x3cc(%rbp)
   10af1:	7e de                	jle    10ad1 <func_80+0x1d8>
   10af3:	c7 85 34 fc ff ff 00 	movl   $0x0,-0x3cc(%rbp)
   10afa:	00 00 00 
   10afd:	eb 19                	jmp    10b18 <func_80+0x21f>
   10aff:	8b 85 34 fc ff ff    	mov    -0x3cc(%rbp),%eax
   10b05:	48 98                	cltq   
   10b07:	66 c7 84 45 66 fd ff 	movw   $0xfff9,-0x29a(%rbp,%rax,2)
   10b0e:	ff f9 ff 
   10b11:	83 85 34 fc ff ff 01 	addl   $0x1,-0x3cc(%rbp)
   10b18:	83 bd 34 fc ff ff 00 	cmpl   $0x0,-0x3cc(%rbp)
   10b1f:	7e de                	jle    10aff <func_80+0x206>
   10b21:	c7 85 34 fc ff ff 00 	movl   $0x0,-0x3cc(%rbp)
   10b28:	00 00 00 
   10b2b:	eb 1a                	jmp    10b47 <func_80+0x24e>
   10b2d:	8b 85 34 fc ff ff    	mov    -0x3cc(%rbp),%eax
   10b33:	48 98                	cltq   
   10b35:	c7 84 85 68 fd ff ff 	movl   $0x0,-0x298(%rbp,%rax,4)
   10b3c:	00 00 00 00 
   10b40:	83 85 34 fc ff ff 01 	addl   $0x1,-0x3cc(%rbp)
   10b47:	83 bd 34 fc ff ff 01 	cmpl   $0x1,-0x3cc(%rbp)
   10b4e:	7e dd                	jle    10b2d <func_80+0x234>
   10b50:	66 c7 85 0c fc ff ff 	movw   $0x0,-0x3f4(%rbp)
   10b57:	00 00 
   10b59:	e9 f0 01 00 00       	jmpq   10d4e <func_80+0x455>
   10b5e:	48 8d 85 00 ff ff ff 	lea    -0x100(%rbp),%rax
   10b65:	48 83 c0 08          	add    $0x8,%rax
   10b69:	48 89 85 08 fd ff ff 	mov    %rax,-0x2f8(%rbp)
   10b70:	c7 85 70 fc ff ff ff 	movl   $0xffffffff,-0x390(%rbp)
   10b77:	ff ff ff 
   10b7a:	c7 85 74 fc ff ff 34 	movl   $0xc6483d34,-0x38c(%rbp)
   10b81:	3d 48 c6 
   10b84:	c6 85 1c fc ff ff ff 	movb   $0xff,-0x3e4(%rbp)
   10b8b:	48 8d 05 5e 69 00 00 	lea    0x695e(%rip),%rax        # 174f0 <g_203>
   10b92:	48 89 85 10 fd ff ff 	mov    %rax,-0x2f0(%rbp)
   10b99:	48 8d 05 50 69 00 00 	lea    0x6950(%rip),%rax        # 174f0 <g_203>
   10ba0:	48 89 85 90 fc ff ff 	mov    %rax,-0x370(%rbp)
   10ba7:	48 8d 85 90 fc ff ff 	lea    -0x370(%rbp),%rax
   10bae:	48 89 85 18 fd ff ff 	mov    %rax,-0x2e8(%rbp)
   10bb5:	48 8d 05 30 69 00 00 	lea    0x6930(%rip),%rax        # 174ec <g_190>
   10bbc:	48 89 85 20 fd ff ff 	mov    %rax,-0x2e0(%rbp)
   10bc3:	c7 85 78 fc ff ff f9 	movl   $0xfffffff9,-0x388(%rbp)
   10bca:	ff ff ff 
   10bcd:	c6 85 1d fc ff ff ff 	movb   $0xff,-0x3e3(%rbp)
   10bd4:	48 c7 85 28 fd ff ff 	movq   $0x0,-0x2d8(%rbp)
   10bdb:	00 00 00 00 
   10bdf:	48 8d 05 39 69 00 00 	lea    0x6939(%rip),%rax        # 1751f <g_271>
   10be6:	48 89 85 30 fd ff ff 	mov    %rax,-0x2d0(%rbp)
   10bed:	c6 85 1e fc ff ff fa 	movb   $0xfa,-0x3e2(%rbp)
   10bf4:	66 c7 85 22 fc ff ff 	movw   $0x65e5,-0x3de(%rbp)
   10bfb:	e5 65 
   10bfd:	c6 85 1f fc ff ff 00 	movb   $0x0,-0x3e1(%rbp)
   10c04:	48 8d 85 28 fc ff ff 	lea    -0x3d8(%rbp),%rax
   10c0b:	48 89 85 38 fd ff ff 	mov    %rax,-0x2c8(%rbp)
   10c12:	c7 85 7c fc ff ff f9 	movl   $0x85622ff9,-0x384(%rbp)
   10c19:	2f 62 85 
   10c1c:	48 c7 85 98 fc ff ff 	movq   $0x0,-0x368(%rbp)
   10c23:	00 00 00 00 
   10c27:	48 8d 85 98 fc ff ff 	lea    -0x368(%rbp),%rax
   10c2e:	48 89 85 40 fd ff ff 	mov    %rax,-0x2c0(%rbp)
   10c35:	c7 85 80 fc ff ff d1 	movl   $0x77ae02d1,-0x380(%rbp)
   10c3c:	02 ae 77 
   10c3f:	48 c7 85 48 fd ff ff 	movq   $0xfffffffffffffffb,-0x2b8(%rbp)
   10c46:	fb ff ff ff 
   10c4a:	c7 85 38 fc ff ff 00 	movl   $0x0,-0x3c8(%rbp)
   10c51:	00 00 00 
   10c54:	eb 1b                	jmp    10c71 <func_80+0x378>
   10c56:	8b 85 38 fc ff ff    	mov    -0x3c8(%rbp),%eax
   10c5c:	48 98                	cltq   
   10c5e:	48 c7 84 c5 00 ff ff 	movq   $0x0,-0x100(%rbp,%rax,8)
   10c65:	ff 00 00 00 00 
   10c6a:	83 85 38 fc ff ff 01 	addl   $0x1,-0x3c8(%rbp)
   10c71:	83 bd 38 fc ff ff 02 	cmpl   $0x2,-0x3c8(%rbp)
   10c78:	7e dc                	jle    10c56 <func_80+0x35d>
   10c7a:	c7 85 38 fc ff ff 00 	movl   $0x0,-0x3c8(%rbp)
   10c81:	00 00 00 
   10c84:	eb 1a                	jmp    10ca0 <func_80+0x3a7>
   10c86:	8b 85 38 fc ff ff    	mov    -0x3c8(%rbp),%eax
   10c8c:	48 98                	cltq   
   10c8e:	c7 84 85 20 fe ff ff 	movl   $0xfed851e2,-0x1e0(%rbp,%rax,4)
   10c95:	e2 51 d8 fe 
   10c99:	83 85 38 fc ff ff 01 	addl   $0x1,-0x3c8(%rbp)
   10ca0:	83 bd 38 fc ff ff 04 	cmpl   $0x4,-0x3c8(%rbp)
   10ca7:	7e dd                	jle    10c86 <func_80+0x38d>
   10ca9:	c7 85 38 fc ff ff 00 	movl   $0x0,-0x3c8(%rbp)
   10cb0:	00 00 00 
   10cb3:	eb 1a                	jmp    10ccf <func_80+0x3d6>
   10cb5:	8b 85 38 fc ff ff    	mov    -0x3c8(%rbp),%eax
   10cbb:	48 98                	cltq   
   10cbd:	c7 84 85 d0 fd ff ff 	movl   $0x0,-0x230(%rbp,%rax,4)
   10cc4:	00 00 00 00 
   10cc8:	83 85 38 fc ff ff 01 	addl   $0x1,-0x3c8(%rbp)
   10ccf:	83 bd 38 fc ff ff 01 	cmpl   $0x1,-0x3c8(%rbp)
   10cd6:	7e dd                	jle    10cb5 <func_80+0x3bc>
   10cd8:	c7 05 fe 63 00 00 00 	movl   $0x0,0x63fe(%rip)        # 170e0 <g_83>
   10cdf:	00 00 00 
   10ce2:	eb 4e                	jmp    10d32 <func_80+0x439>
   10ce4:	c6 85 20 fc ff ff 72 	movb   $0x72,-0x3e0(%rbp)
   10ceb:	c7 85 84 fc ff ff 33 	movl   $0x577dd433,-0x37c(%rbp)
   10cf2:	d4 7d 57 
   10cf5:	48 8d 05 0c 8c 00 00 	lea    0x8c0c(%rip),%rax        # 19908 <g_68>
   10cfc:	48 89 85 50 fd ff ff 	mov    %rax,-0x2b0(%rbp)
   10d03:	48 c7 85 a0 fc ff ff 	movq   $0x0,-0x360(%rbp)
   10d0a:	00 00 00 00 
   10d0e:	48 8d 85 a0 fc ff ff 	lea    -0x360(%rbp),%rax
   10d15:	48 89 85 58 fd ff ff 	mov    %rax,-0x2a8(%rbp)
   10d1c:	c6 85 21 fc ff ff cb 	movb   $0xcb,-0x3df(%rbp)
   10d23:	8b 05 b7 63 00 00    	mov    0x63b7(%rip),%eax        # 170e0 <g_83>
   10d29:	83 c0 01             	add    $0x1,%eax
   10d2c:	89 05 ae 63 00 00    	mov    %eax,0x63ae(%rip)        # 170e0 <g_83>
   10d32:	8b 05 a8 63 00 00    	mov    0x63a8(%rip),%eax        # 170e0 <g_83>
   10d38:	83 f8 08             	cmp    $0x8,%eax
   10d3b:	7e a7                	jle    10ce4 <func_80+0x3eb>
   10d3d:	0f b7 85 0c fc ff ff 	movzwl -0x3f4(%rbp),%eax
   10d44:	83 c0 01             	add    $0x1,%eax
   10d47:	66 89 85 0c fc ff ff 	mov    %ax,-0x3f4(%rbp)
   10d4e:	66 83 bd 0c fc ff ff 	cmpw   $0x8,-0x3f4(%rbp)
   10d55:	08 
   10d56:	0f 8e 02 fe ff ff    	jle    10b5e <func_80+0x265>
   10d5c:	90                   	nop
   10d5d:	c7 05 79 63 00 00 04 	movl   $0x4,0x6379(%rip)        # 170e0 <g_83>
   10d64:	00 00 00 
   10d67:	e9 08 05 00 00       	jmpq   11274 <func_80+0x97b>
   10d6c:	c7 85 20 fe ff ff f2 	movl   $0x5daad9f2,-0x1e0(%rbp)
   10d73:	d9 aa 5d 
   10d76:	c7 85 24 fe ff ff fe 	movl   $0xfffffffe,-0x1dc(%rbp)
   10d7d:	ff ff ff 
   10d80:	c7 85 28 fe ff ff 7f 	movl   $0x7bf3ac7f,-0x1d8(%rbp)
   10d87:	ac f3 7b 
   10d8a:	c7 85 2c fe ff ff 71 	movl   $0xf50d6b71,-0x1d4(%rbp)
   10d91:	6b 0d f5 
   10d94:	c7 85 30 fe ff ff 75 	movl   $0x56182875,-0x1d0(%rbp)
   10d9b:	28 18 56 
   10d9e:	c7 85 34 fe ff ff 7f 	movl   $0x7bf3ac7f,-0x1cc(%rbp)
   10da5:	ac f3 7b 
   10da8:	c7 85 38 fe ff ff 38 	movl   $0xfb0d1438,-0x1c8(%rbp)
   10daf:	14 0d fb 
   10db2:	c7 85 3c fe ff ff 17 	movl   $0x7ca24617,-0x1c4(%rbp)
   10db9:	46 a2 7c 
   10dbc:	c7 85 40 fe ff ff fe 	movl   $0xfffffffe,-0x1c0(%rbp)
   10dc3:	ff ff ff 
   10dc6:	c7 85 44 fe ff ff 0c 	movl   $0x2524a00c,-0x1bc(%rbp)
   10dcd:	a0 24 25 
   10dd0:	c7 85 48 fe ff ff f2 	movl   $0x5daad9f2,-0x1b8(%rbp)
   10dd7:	d9 aa 5d 
   10dda:	c7 85 4c fe ff ff 5c 	movl   $0x2fa1e35c,-0x1b4(%rbp)
   10de1:	e3 a1 2f 
   10de4:	c7 85 50 fe ff ff f2 	movl   $0x5daad9f2,-0x1b0(%rbp)
   10deb:	d9 aa 5d 
   10dee:	c7 85 54 fe ff ff 0c 	movl   $0x2524a00c,-0x1ac(%rbp)
   10df5:	a0 24 25 
   10df8:	c7 85 58 fe ff ff fe 	movl   $0xfffffffe,-0x1a8(%rbp)
   10dff:	ff ff ff 
   10e02:	c7 85 5c fe ff ff 38 	movl   $0xfb0d1438,-0x1a4(%rbp)
   10e09:	14 0d fb 
   10e0c:	c7 85 60 fe ff ff fd 	movl   $0xfffffffd,-0x1a0(%rbp)
   10e13:	ff ff ff 
   10e16:	c7 85 64 fe ff ff 5c 	movl   $0x2fa1e35c,-0x19c(%rbp)
   10e1d:	e3 a1 2f 
   10e20:	c7 85 68 fe ff ff 07 	movl   $0x7,-0x198(%rbp)
   10e27:	00 00 00 
   10e2a:	c7 85 6c fe ff ff ff 	movl   $0xffffffff,-0x194(%rbp)
   10e31:	ff ff ff 
   10e34:	c7 85 70 fe ff ff 5c 	movl   $0x2fa1e35c,-0x190(%rbp)
   10e3b:	e3 a1 2f 
   10e3e:	c7 85 74 fe ff ff e4 	movl   $0xf4378de4,-0x18c(%rbp)
   10e45:	8d 37 f4 
   10e48:	c7 85 78 fe ff ff 75 	movl   $0x56182875,-0x188(%rbp)
   10e4f:	28 18 56 
   10e52:	c7 85 7c fe ff ff fd 	movl   $0xfffffffd,-0x184(%rbp)
   10e59:	ff ff ff 
   10e5c:	c7 85 80 fe ff ff 52 	movl   $0x8643ac52,-0x180(%rbp)
   10e63:	ac 43 86 
   10e66:	c7 85 84 fe ff ff fd 	movl   $0xfffffffd,-0x17c(%rbp)
   10e6d:	ff ff ff 
   10e70:	c7 85 88 fe ff ff 71 	movl   $0xf50d6b71,-0x178(%rbp)
   10e77:	6b 0d f5 
   10e7a:	c7 85 8c fe ff ff 0c 	movl   $0x2524a00c,-0x174(%rbp)
   10e81:	a0 24 25 
   10e84:	c7 85 90 fe ff ff 5c 	movl   $0x2fa1e35c,-0x170(%rbp)
   10e8b:	e3 a1 2f 
   10e8e:	c7 85 94 fe ff ff 7f 	movl   $0x7bf3ac7f,-0x16c(%rbp)
   10e95:	ac f3 7b 
   10e98:	c7 85 98 fe ff ff 7f 	movl   $0x7bf3ac7f,-0x168(%rbp)
   10e9f:	ac f3 7b 
   10ea2:	c7 85 9c fe ff ff 5c 	movl   $0x2fa1e35c,-0x164(%rbp)
   10ea9:	e3 a1 2f 
   10eac:	c7 85 a0 fe ff ff fd 	movl   $0xfffffffd,-0x160(%rbp)
   10eb3:	ff ff ff 
   10eb6:	c7 85 a4 fe ff ff 38 	movl   $0xfb0d1438,-0x15c(%rbp)
   10ebd:	14 0d fb 
   10ec0:	c7 85 a8 fe ff ff 38 	movl   $0xfb0d1438,-0x158(%rbp)
   10ec7:	14 0d fb 
   10eca:	c7 85 ac fe ff ff fd 	movl   $0xfffffffd,-0x154(%rbp)
   10ed1:	ff ff ff 
   10ed4:	c7 85 b0 fe ff ff f2 	movl   $0x5daad9f2,-0x150(%rbp)
   10edb:	d9 aa 5d 
   10ede:	c7 85 b4 fe ff ff 52 	movl   $0x8643ac52,-0x14c(%rbp)
   10ee5:	ac 43 86 
   10ee8:	c7 85 b8 fe ff ff 17 	movl   $0x7ca24617,-0x148(%rbp)
   10eef:	46 a2 7c 
   10ef2:	c7 85 bc fe ff ff 0c 	movl   $0x2524a00c,-0x144(%rbp)
   10ef9:	a0 24 25 
   10efc:	c7 85 c0 fe ff ff fe 	movl   $0xfffffffe,-0x140(%rbp)
   10f03:	ff ff ff 
   10f06:	c7 85 c4 fe ff ff 17 	movl   $0x7ca24617,-0x13c(%rbp)
   10f0d:	46 a2 7c 
   10f10:	c7 85 c8 fe ff ff d9 	movl   $0xe639cdd9,-0x138(%rbp)
   10f17:	cd 39 e6 
   10f1a:	c7 85 cc fe ff ff ff 	movl   $0xffffffff,-0x134(%rbp)
   10f21:	ff ff ff 
   10f24:	c7 85 d0 fe ff ff 75 	movl   $0x56182875,-0x130(%rbp)
   10f2b:	28 18 56 
   10f2e:	c7 85 d4 fe ff ff fc 	movl   $0xfffffffc,-0x12c(%rbp)
   10f35:	ff ff ff 
   10f38:	c7 85 d8 fe ff ff ff 	movl   $0xffffffff,-0x128(%rbp)
   10f3f:	ff ff ff 
   10f42:	c7 85 dc fe ff ff fe 	movl   $0xfffffffe,-0x124(%rbp)
   10f49:	ff ff ff 
   10f4c:	c7 85 e0 fe ff ff f2 	movl   $0x5daad9f2,-0x120(%rbp)
   10f53:	d9 aa 5d 
   10f56:	c7 85 e4 fe ff ff 17 	movl   $0x7ca24617,-0x11c(%rbp)
   10f5d:	46 a2 7c 
   10f60:	c7 85 e8 fe ff ff 71 	movl   $0xf50d6b71,-0x118(%rbp)
   10f67:	6b 0d f5 
   10f6a:	c7 85 ec fe ff ff 52 	movl   $0x8643ac52,-0x114(%rbp)
   10f71:	ac 43 86 
   10f74:	c7 85 f0 fe ff ff cd 	movl   $0x7acb51cd,-0x110(%rbp)
   10f7b:	51 cb 7a 
   10f7e:	c7 85 f4 fe ff ff 52 	movl   $0x8643ac52,-0x10c(%rbp)
   10f85:	ac 43 86 
   10f88:	c7 85 f8 fe ff ff 71 	movl   $0xf50d6b71,-0x108(%rbp)
   10f8f:	6b 0d f5 
   10f92:	c7 85 fc fe ff ff 17 	movl   $0x7ca24617,-0x104(%rbp)
   10f99:	46 a2 7c 
   10f9c:	c7 85 5c fc ff ff 88 	movl   $0x4e3e7b88,-0x3a4(%rbp)
   10fa3:	7b 3e 4e 
   10fa6:	c7 85 60 fc ff ff 78 	movl   $0xc4252d78,-0x3a0(%rbp)
   10fad:	2d 25 c4 
   10fb0:	48 c7 85 a0 fc ff ff 	movq   $0x0,-0x360(%rbp)
   10fb7:	00 00 00 00 
   10fbb:	48 8d 85 a0 fc ff ff 	lea    -0x360(%rbp),%rax
   10fc2:	48 89 85 f0 fc ff ff 	mov    %rax,-0x310(%rbp)
   10fc9:	48 8d 05 55 65 00 00 	lea    0x6555(%rip),%rax        # 17525 <g_333+0x5>
   10fd0:	48 89 85 f8 fc ff ff 	mov    %rax,-0x308(%rbp)
   10fd7:	c7 85 64 fc ff ff 01 	movl   $0x1,-0x39c(%rbp)
   10fde:	00 00 00 
   10fe1:	c7 85 68 fc ff ff 05 	movl   $0x5,-0x398(%rbp)
   10fe8:	00 00 00 
   10feb:	c7 85 30 fc ff ff 00 	movl   $0x0,-0x3d0(%rbp)
   10ff2:	00 00 00 
   10ff5:	e9 50 02 00 00       	jmpq   1124a <func_80+0x951>
   10ffa:	c7 85 6c fc ff ff ff 	movl   $0xffffffff,-0x394(%rbp)
   11001:	ff ff ff 
   11004:	48 8d 85 24 fc ff ff 	lea    -0x3dc(%rbp),%rax
   1100b:	48 89 85 00 fd ff ff 	mov    %rax,-0x300(%rbp)
   11012:	66 c7 85 0c fc ff ff 	movw   $0x0,-0x3f4(%rbp)
   11019:	00 00 
   1101b:	e9 15 02 00 00       	jmpq   11235 <func_80+0x93c>
   11020:	c7 85 3c fc ff ff 60 	movl   $0xed17f660,-0x3c4(%rbp)
   11027:	f6 17 ed 
   1102a:	c7 85 40 fc ff ff 00 	movl   $0x0,-0x3c0(%rbp)
   11031:	00 00 00 
   11034:	eb 51                	jmp    11087 <func_80+0x78e>
   11036:	c7 85 44 fc ff ff 00 	movl   $0x0,-0x3bc(%rbp)
   1103d:	00 00 00 
   11040:	eb 35                	jmp    11077 <func_80+0x77e>
   11042:	8b 85 44 fc ff ff    	mov    -0x3bc(%rbp),%eax
   11048:	48 63 c8             	movslq %eax,%rcx
   1104b:	8b 85 40 fc ff ff    	mov    -0x3c0(%rbp),%eax
   11051:	48 63 d0             	movslq %eax,%rdx
   11054:	48 89 d0             	mov    %rdx,%rax
   11057:	48 c1 e0 03          	shl    $0x3,%rax
   1105b:	48 29 d0             	sub    %rdx,%rax
   1105e:	48 01 c8             	add    %rcx,%rax
   11061:	48 8d 15 b0 7b 00 00 	lea    0x7bb0(%rip),%rdx        # 18c18 <g_561>
   11068:	48 89 94 c5 00 ff ff 	mov    %rdx,-0x100(%rbp,%rax,8)
   1106f:	ff 
   11070:	83 85 44 fc ff ff 01 	addl   $0x1,-0x3bc(%rbp)
   11077:	83 bd 44 fc ff ff 06 	cmpl   $0x6,-0x3bc(%rbp)
   1107e:	7e c2                	jle    11042 <func_80+0x749>
   11080:	83 85 40 fc ff ff 01 	addl   $0x1,-0x3c0(%rbp)
   11087:	83 bd 40 fc ff ff 03 	cmpl   $0x3,-0x3c0(%rbp)
   1108e:	7e a6                	jle    11036 <func_80+0x73d>
   11090:	48 c7 85 a8 fc ff ff 	movq   $0x0,-0x358(%rbp)
   11097:	00 00 00 00 
   1109b:	e9 86 00 00 00       	jmpq   11126 <func_80+0x82d>
   110a0:	c7 85 48 fc ff ff 00 	movl   $0x0,-0x3b8(%rbp)
   110a7:	00 00 00 
   110aa:	eb 58                	jmp    11104 <func_80+0x80b>
   110ac:	c7 85 4c fc ff ff 00 	movl   $0x0,-0x3b4(%rbp)
   110b3:	00 00 00 
   110b6:	eb 3c                	jmp    110f4 <func_80+0x7fb>
   110b8:	8b 85 4c fc ff ff    	mov    -0x3b4(%rbp),%eax
   110be:	48 63 c8             	movslq %eax,%rcx
   110c1:	8b 85 48 fc ff ff    	mov    -0x3b8(%rbp),%eax
   110c7:	48 63 d0             	movslq %eax,%rdx
   110ca:	48 89 d0             	mov    %rdx,%rax
   110cd:	48 c1 e0 02          	shl    $0x2,%rax
   110d1:	48 01 d0             	add    %rdx,%rax
   110d4:	48 01 c0             	add    %rax,%rax
   110d7:	48 01 c8             	add    %rcx,%rax
   110da:	48 8d 95 70 fd ff ff 	lea    -0x290(%rbp),%rdx
   110e1:	48 83 c2 10          	add    $0x10,%rdx
   110e5:	48 89 94 c5 d0 fd ff 	mov    %rdx,-0x230(%rbp,%rax,8)
   110ec:	ff 
   110ed:	83 85 4c fc ff ff 01 	addl   $0x1,-0x3b4(%rbp)
   110f4:	83 bd 4c fc ff ff 09 	cmpl   $0x9,-0x3b4(%rbp)
   110fb:	7e bb                	jle    110b8 <func_80+0x7bf>
   110fd:	83 85 48 fc ff ff 01 	addl   $0x1,-0x3b8(%rbp)
   11104:	83 bd 48 fc ff ff 00 	cmpl   $0x0,-0x3b8(%rbp)
   1110b:	7e 9f                	jle    110ac <func_80+0x7b3>
   1110d:	83 85 3c fc ff ff 01 	addl   $0x1,-0x3c4(%rbp)
   11114:	c7 85 6c fc ff ff cb 	movl   $0xc80d75cb,-0x394(%rbp)
   1111b:	75 0d c8 
   1111e:	48 83 85 a8 fc ff ff 	addq   $0x1,-0x358(%rbp)
   11125:	01 
   11126:	48 83 bd a8 fc ff ff 	cmpq   $0x2,-0x358(%rbp)
   1112d:	02 
   1112e:	0f 86 6c ff ff ff    	jbe    110a0 <func_80+0x7a7>
   11134:	0f bf 85 0c fc ff ff 	movswl -0x3f4(%rbp),%eax
   1113b:	44 8d 40 04          	lea    0x4(%rax),%r8d
   1113f:	8b 35 9b 5f 00 00    	mov    0x5f9b(%rip),%esi        # 170e0 <g_83>
   11145:	0f bf 95 0c fc ff ff 	movswl -0x3f4(%rbp),%edx
   1114c:	48 8b 05 bd 7a 00 00 	mov    0x7abd(%rip),%rax        # 18c10 <g_362>
   11153:	48 8b 08             	mov    (%rax),%rcx
   11156:	48 63 fa             	movslq %edx,%rdi
   11159:	49 63 d0             	movslq %r8d,%rdx
   1115c:	48 89 d0             	mov    %rdx,%rax
   1115f:	48 c1 e0 02          	shl    $0x2,%rax
   11163:	48 01 d0             	add    %rdx,%rax
   11166:	48 8d 14 85 00 00 00 	lea    0x0(,%rax,4),%rdx
   1116d:	00 
   1116e:	48 01 d0             	add    %rdx,%rax
   11171:	48 63 f6             	movslq %esi,%rsi
   11174:	48 89 f2             	mov    %rsi,%rdx
   11177:	48 c1 e2 02          	shl    $0x2,%rdx
   1117b:	48 01 f2             	add    %rsi,%rdx
   1117e:	48 01 d0             	add    %rdx,%rax
   11181:	48 01 f8             	add    %rdi,%rax
   11184:	48 8d 14 85 00 00 00 	lea    0x0(,%rax,4),%rdx
   1118b:	00 
   1118c:	48 8d 05 6d 5f 00 00 	lea    0x5f6d(%rip),%rax        # 17100 <g_95>
   11193:	48 01 d0             	add    %rdx,%rax
   11196:	48 89 01             	mov    %rax,(%rcx)
   11199:	48 8b 01             	mov    (%rcx),%rax
   1119c:	48 89 85 00 fd ff ff 	mov    %rax,-0x300(%rbp)
   111a3:	8b 05 37 5f 00 00    	mov    0x5f37(%rip),%eax        # 170e0 <g_83>
   111a9:	83 c0 04             	add    $0x4,%eax
   111ac:	48 63 c8             	movslq %eax,%rcx
   111af:	8b 95 30 fc ff ff    	mov    -0x3d0(%rbp),%edx
   111b5:	48 89 d0             	mov    %rdx,%rax
   111b8:	48 c1 e0 02          	shl    $0x2,%rax
   111bc:	48 01 d0             	add    %rdx,%rax
   111bf:	48 01 c0             	add    %rax,%rax
   111c2:	48 01 c8             	add    %rcx,%rax
   111c5:	48 8d 14 c5 00 00 00 	lea    0x0(,%rax,8),%rdx
   111cc:	00 
   111cd:	48 8d 05 ec 77 00 00 	lea    0x77ec(%rip),%rax        # 189c0 <g_173>
   111d4:	48 8b 04 02          	mov    (%rdx,%rax,1),%rax
   111d8:	48 39 85 00 fd ff ff 	cmp    %rax,-0x300(%rbp)
   111df:	0f 95 c0             	setne  %al
   111e2:	0f b6 d0             	movzbl %al,%edx
   111e5:	48 8b 85 b8 fc ff ff 	mov    -0x348(%rbp),%rax
   111ec:	0f b7 00             	movzwl (%rax),%eax
   111ef:	09 c2                	or     %eax,%edx
   111f1:	48 8b 85 b8 fc ff ff 	mov    -0x348(%rbp),%rax
   111f8:	66 89 10             	mov    %dx,(%rax)
   111fb:	48 8b 85 b8 fc ff ff 	mov    -0x348(%rbp),%rax
   11202:	0f b7 00             	movzwl (%rax),%eax
   11205:	0f bf d0             	movswl %ax,%edx
   11208:	8b 05 d6 5e 00 00    	mov    0x5ed6(%rip),%eax        # 170e4 <g_90>
   1120e:	39 c2                	cmp    %eax,%edx
   11210:	0f 95 c0             	setne  %al
   11213:	0f b6 d0             	movzbl %al,%edx
   11216:	8b 85 88 fe ff ff    	mov    -0x178(%rbp),%eax
   1121c:	09 d0                	or     %edx,%eax
   1121e:	89 85 88 fe ff ff    	mov    %eax,-0x178(%rbp)
   11224:	0f b7 85 0c fc ff ff 	movzwl -0x3f4(%rbp),%eax
   1122b:	83 c0 01             	add    $0x1,%eax
   1122e:	66 89 85 0c fc ff ff 	mov    %ax,-0x3f4(%rbp)
   11235:	66 83 bd 0c fc ff ff 	cmpw   $0x4,-0x3f4(%rbp)
   1123c:	04 
   1123d:	0f 8e dd fd ff ff    	jle    11020 <func_80+0x727>
   11243:	83 85 30 fc ff ff 01 	addl   $0x1,-0x3d0(%rbp)
   1124a:	83 bd 30 fc ff ff 04 	cmpl   $0x4,-0x3d0(%rbp)
   11251:	0f 86 a3 fd ff ff    	jbe    10ffa <func_80+0x701>
   11257:	83 bd 30 fc ff ff 00 	cmpl   $0x0,-0x3d0(%rbp)
   1125e:	74 05                	je     11265 <func_80+0x96c>
   11260:	e9 f8 fa ff ff       	jmpq   10d5d <func_80+0x464>
   11265:	8b 05 75 5e 00 00    	mov    0x5e75(%rip),%eax        # 170e0 <g_83>
   1126b:	83 e8 01             	sub    $0x1,%eax
   1126e:	89 05 6c 5e 00 00    	mov    %eax,0x5e6c(%rip)        # 170e0 <g_83>
   11274:	8b 05 66 5e 00 00    	mov    0x5e66(%rip),%eax        # 170e0 <g_83>
   1127a:	85 c0                	test   %eax,%eax
   1127c:	0f 89 ea fa ff ff    	jns    10d6c <func_80+0x473>
   11282:	48 8b 85 c8 fc ff ff 	mov    -0x338(%rbp),%rax
   11289:	8b 10                	mov    (%rax),%edx
   1128b:	48 8b 85 c8 fc ff ff 	mov    -0x338(%rbp),%rax
   11292:	89 10                	mov    %edx,(%rax)
   11294:	48 8d 05 6d 86 00 00 	lea    0x866d(%rip),%rax        # 19908 <g_68>
   1129b:	48 8b 00             	mov    (%rax),%rax
   1129e:	48 8b 7d f8          	mov    -0x8(%rbp),%rdi
   112a2:	64 48 33 3c 25 28 00 	xor    %fs:0x28,%rdi
   112a9:	00 00 
   112ab:	74 05                	je     112b2 <func_80+0x9b9>
   112ad:	e8 be 4d ff ff       	callq  6070 <__stack_chk_fail@plt>
   112b2:	c9                   	leaveq 
   112b3:	c3                   	retq   

00000000000112b4 <main>:
   112b4:	f3 0f 1e fa          	endbr64 
   112b8:	55                   	push   %rbp
   112b9:	48 89 e5             	mov    %rsp,%rbp
   112bc:	48 83 ec 20          	sub    $0x20,%rsp
   112c0:	89 7d ec             	mov    %edi,-0x14(%rbp)
   112c3:	48 89 75 e0          	mov    %rsi,-0x20(%rbp)
   112c7:	c7 45 fc 00 00 00 00 	movl   $0x0,-0x4(%rbp)
   112ce:	83 7d ec 02          	cmpl   $0x2,-0x14(%rbp)
   112d2:	75 25                	jne    112f9 <main+0x45>
   112d4:	48 8b 45 e0          	mov    -0x20(%rbp),%rax
   112d8:	48 83 c0 08          	add    $0x8,%rax
   112dc:	48 8b 00             	mov    (%rax),%rax
   112df:	48 8d 35 7a 25 00 00 	lea    0x257a(%rip),%rsi        # 13860 <g_2501+0x1800>
   112e6:	48 89 c7             	mov    %rax,%rdi
   112e9:	e8 a2 4d ff ff       	callq  6090 <strcmp@plt>
   112ee:	85 c0                	test   %eax,%eax
   112f0:	75 07                	jne    112f9 <main+0x45>
   112f2:	c7 45 fc 01 00 00 00 	movl   $0x1,-0x4(%rbp)
   112f9:	e8 8b 4e ff ff       	callq  6189 <platform_main_begin>
   112fe:	e8 95 62 ff ff       	callq  7598 <crc32_gentab>
   11303:	e8 ad 64 ff ff       	callq  77b5 <func_1>
   11308:	8b 05 da 85 00 00    	mov    0x85da(%rip),%eax        # 198e8 <g_2>
   1130e:	48 98                	cltq   
   11310:	8b 55 fc             	mov    -0x4(%rbp),%edx
   11313:	48 8d 35 48 25 00 00 	lea    0x2548(%rip),%rsi        # 13862 <g_2501+0x1802>
   1131a:	48 89 c7             	mov    %rax,%rdi
   1131d:	e8 d1 63 ff ff       	callq  76f3 <transparent_crc>
   11322:	8b 05 fc 5c 00 00    	mov    0x5cfc(%rip),%eax        # 17024 <g_3>
   11328:	48 98                	cltq   
   1132a:	8b 55 fc             	mov    -0x4(%rbp),%edx
   1132d:	48 8d 35 32 25 00 00 	lea    0x2532(%rip),%rsi        # 13866 <g_2501+0x1806>
   11334:	48 89 c7             	mov    %rax,%rdi
   11337:	e8 b7 63 ff ff       	callq  76f3 <transparent_crc>
   1133c:	c7 45 f0 00 00 00 00 	movl   $0x0,-0x10(%rbp)
   11343:	eb 75                	jmp    113ba <main+0x106>
   11345:	c7 45 f4 00 00 00 00 	movl   $0x0,-0xc(%rbp)
   1134c:	eb 62                	jmp    113b0 <main+0xfc>
   1134e:	8b 45 f4             	mov    -0xc(%rbp),%eax
   11351:	48 63 c8             	movslq %eax,%rcx
   11354:	8b 45 f0             	mov    -0x10(%rbp),%eax
   11357:	48 63 d0             	movslq %eax,%rdx
   1135a:	48 89 d0             	mov    %rdx,%rax
   1135d:	48 c1 e0 02          	shl    $0x2,%rax
   11361:	48 01 d0             	add    %rdx,%rax
   11364:	48 01 c8             	add    %rcx,%rax
   11367:	48 8d 14 85 00 00 00 	lea    0x0(,%rax,4),%rdx
   1136e:	00 
   1136f:	48 8d 05 ca 5c 00 00 	lea    0x5cca(%rip),%rax        # 17040 <g_4>
   11376:	8b 04 02             	mov    (%rdx,%rax,1),%eax
   11379:	48 98                	cltq   
   1137b:	8b 55 fc             	mov    -0x4(%rbp),%edx
   1137e:	48 8d 35 e5 24 00 00 	lea    0x24e5(%rip),%rsi        # 1386a <g_2501+0x180a>
   11385:	48 89 c7             	mov    %rax,%rdi
   11388:	e8 66 63 ff ff       	callq  76f3 <transparent_crc>
   1138d:	83 7d fc 00          	cmpl   $0x0,-0x4(%rbp)
   11391:	74 19                	je     113ac <main+0xf8>
   11393:	8b 55 f4             	mov    -0xc(%rbp),%edx
   11396:	8b 45 f0             	mov    -0x10(%rbp),%eax
   11399:	89 c6                	mov    %eax,%esi
   1139b:	48 8d 3d d2 24 00 00 	lea    0x24d2(%rip),%rdi        # 13874 <g_2501+0x1814>
   113a2:	b8 00 00 00 00       	mov    $0x0,%eax
   113a7:	e8 d4 4c ff ff       	callq  6080 <printf@plt>
   113ac:	83 45 f4 01          	addl   $0x1,-0xc(%rbp)
   113b0:	83 7d f4 04          	cmpl   $0x4,-0xc(%rbp)
   113b4:	7e 98                	jle    1134e <main+0x9a>
   113b6:	83 45 f0 01          	addl   $0x1,-0x10(%rbp)
   113ba:	83 7d f0 07          	cmpl   $0x7,-0x10(%rbp)
   113be:	7e 85                	jle    11345 <main+0x91>
   113c0:	b8 ff ff ff ff       	mov    $0xffffffff,%eax
   113c5:	48 98                	cltq   
   113c7:	8b 55 fc             	mov    -0x4(%rbp),%edx
   113ca:	48 8d 35 b5 24 00 00 	lea    0x24b5(%rip),%rsi        # 13886 <g_2501+0x1826>
   113d1:	48 89 c7             	mov    %rax,%rdi
   113d4:	e8 1a 63 ff ff       	callq  76f3 <transparent_crc>
   113d9:	48 8b 05 28 85 00 00 	mov    0x8528(%rip),%rax        # 19908 <g_68>
   113e0:	8b 55 fc             	mov    -0x4(%rbp),%edx
   113e3:	48 8d 35 a1 24 00 00 	lea    0x24a1(%rip),%rsi        # 1388b <g_2501+0x182b>
   113ea:	48 89 c7             	mov    %rax,%rdi
   113ed:	e8 01 63 ff ff       	callq  76f3 <transparent_crc>
   113f2:	8b 05 e8 5c 00 00    	mov    0x5ce8(%rip),%eax        # 170e0 <g_83>
   113f8:	48 98                	cltq   
   113fa:	8b 55 fc             	mov    -0x4(%rbp),%edx
   113fd:	48 8d 35 8c 24 00 00 	lea    0x248c(%rip),%rsi        # 13890 <g_2501+0x1830>
   11404:	48 89 c7             	mov    %rax,%rdi
   11407:	e8 e7 62 ff ff       	callq  76f3 <transparent_crc>
   1140c:	8b 05 d2 5c 00 00    	mov    0x5cd2(%rip),%eax        # 170e4 <g_90>
   11412:	48 98                	cltq   
   11414:	8b 55 fc             	mov    -0x4(%rbp),%edx
   11417:	48 8d 35 77 24 00 00 	lea    0x2477(%rip),%rsi        # 13895 <g_2501+0x1835>
   1141e:	48 89 c7             	mov    %rax,%rdi
   11421:	e8 cd 62 ff ff       	callq  76f3 <transparent_crc>
   11426:	c7 45 f0 00 00 00 00 	movl   $0x0,-0x10(%rbp)
   1142d:	e9 b7 00 00 00       	jmpq   114e9 <main+0x235>
   11432:	c7 45 f4 00 00 00 00 	movl   $0x0,-0xc(%rbp)
   11439:	e9 9d 00 00 00       	jmpq   114db <main+0x227>
   1143e:	c7 45 f8 00 00 00 00 	movl   $0x0,-0x8(%rbp)
   11445:	e9 83 00 00 00       	jmpq   114cd <main+0x219>
   1144a:	8b 45 f8             	mov    -0x8(%rbp),%eax
   1144d:	48 63 f0             	movslq %eax,%rsi
   11450:	8b 45 f0             	mov    -0x10(%rbp),%eax
   11453:	48 63 d0             	movslq %eax,%rdx
   11456:	8b 45 f4             	mov    -0xc(%rbp),%eax
   11459:	48 63 c8             	movslq %eax,%rcx
   1145c:	48 89 d0             	mov    %rdx,%rax
   1145f:	48 c1 e0 02          	shl    $0x2,%rax
   11463:	48 01 d0             	add    %rdx,%rax
   11466:	48 8d 14 85 00 00 00 	lea    0x0(,%rax,4),%rdx
   1146d:	00 
   1146e:	48 01 d0             	add    %rdx,%rax
   11471:	48 89 ca             	mov    %rcx,%rdx
   11474:	48 c1 e2 02          	shl    $0x2,%rdx
   11478:	48 01 ca             	add    %rcx,%rdx
   1147b:	48 01 d0             	add    %rdx,%rax
   1147e:	48 01 f0             	add    %rsi,%rax
   11481:	48 8d 14 85 00 00 00 	lea    0x0(,%rax,4),%rdx
   11488:	00 
   11489:	48 8d 05 70 5c 00 00 	lea    0x5c70(%rip),%rax        # 17100 <g_95>
   11490:	8b 04 02             	mov    (%rdx,%rax,1),%eax
   11493:	48 98                	cltq   
   11495:	8b 55 fc             	mov    -0x4(%rbp),%edx
   11498:	48 8d 35 fb 23 00 00 	lea    0x23fb(%rip),%rsi        # 1389a <g_2501+0x183a>
   1149f:	48 89 c7             	mov    %rax,%rdi
   114a2:	e8 4c 62 ff ff       	callq  76f3 <transparent_crc>
   114a7:	83 7d fc 00          	cmpl   $0x0,-0x4(%rbp)
   114ab:	74 1c                	je     114c9 <main+0x215>
   114ad:	8b 4d f8             	mov    -0x8(%rbp),%ecx
   114b0:	8b 55 f4             	mov    -0xc(%rbp),%edx
   114b3:	8b 45 f0             	mov    -0x10(%rbp),%eax
   114b6:	89 c6                	mov    %eax,%esi
   114b8:	48 8d 3d e9 23 00 00 	lea    0x23e9(%rip),%rdi        # 138a8 <g_2501+0x1848>
   114bf:	b8 00 00 00 00       	mov    $0x0,%eax
   114c4:	e8 b7 4b ff ff       	callq  6080 <printf@plt>
   114c9:	83 45 f8 01          	addl   $0x1,-0x8(%rbp)
   114cd:	83 7d f8 04          	cmpl   $0x4,-0x8(%rbp)
   114d1:	0f 8e 73 ff ff ff    	jle    1144a <main+0x196>
   114d7:	83 45 f4 01          	addl   $0x1,-0xc(%rbp)
   114db:	83 7d f4 04          	cmpl   $0x4,-0xc(%rbp)
   114df:	0f 8e 59 ff ff ff    	jle    1143e <main+0x18a>
   114e5:	83 45 f0 01          	addl   $0x1,-0x10(%rbp)
   114e9:	83 7d f0 09          	cmpl   $0x9,-0x10(%rbp)
   114ed:	0f 8e 3f ff ff ff    	jle    11432 <main+0x17e>
   114f3:	8b 05 27 84 00 00    	mov    0x8427(%rip),%eax        # 19920 <g_131>
   114f9:	89 c1                	mov    %eax,%ecx
   114fb:	8b 45 fc             	mov    -0x4(%rbp),%eax
   114fe:	89 c2                	mov    %eax,%edx
   11500:	48 8d 35 b7 23 00 00 	lea    0x23b7(%rip),%rsi        # 138be <g_2501+0x185e>
   11507:	48 89 cf             	mov    %rcx,%rdi
   1150a:	e8 e4 61 ff ff       	callq  76f3 <transparent_crc>
   1150f:	0f b7 05 d2 5f 00 00 	movzwl 0x5fd2(%rip),%eax        # 174e8 <g_188>
   11516:	48 0f bf c0          	movswq %ax,%rax
   1151a:	8b 55 fc             	mov    -0x4(%rbp),%edx
   1151d:	48 8d 35 a0 23 00 00 	lea    0x23a0(%rip),%rsi        # 138c4 <g_2501+0x1864>
   11524:	48 89 c7             	mov    %rax,%rdi
   11527:	e8 c7 61 ff ff       	callq  76f3 <transparent_crc>
   1152c:	8b 05 ba 5f 00 00    	mov    0x5fba(%rip),%eax        # 174ec <g_190>
   11532:	89 c1                	mov    %eax,%ecx
   11534:	8b 45 fc             	mov    -0x4(%rbp),%eax
   11537:	89 c2                	mov    %eax,%edx
   11539:	48 8d 35 8a 23 00 00 	lea    0x238a(%rip),%rsi        # 138ca <g_2501+0x186a>
   11540:	48 89 cf             	mov    %rcx,%rdi
   11543:	e8 ab 61 ff ff       	callq  76f3 <transparent_crc>
   11548:	b8 f6 ba ff ff       	mov    $0xffffbaf6,%eax
   1154d:	48 0f bf c0          	movswq %ax,%rax
   11551:	8b 55 fc             	mov    -0x4(%rbp),%edx
   11554:	48 8d 35 75 23 00 00 	lea    0x2375(%rip),%rsi        # 138d0 <g_2501+0x1870>
   1155b:	48 89 c7             	mov    %rax,%rdi
   1155e:	e8 90 61 ff ff       	callq  76f3 <transparent_crc>
   11563:	b8 05 00 00 00       	mov    $0x5,%eax
   11568:	48 0f bf c0          	movswq %ax,%rax
   1156c:	8b 55 fc             	mov    -0x4(%rbp),%edx
   1156f:	48 8d 35 60 23 00 00 	lea    0x2360(%rip),%rsi        # 138d6 <g_2501+0x1876>
   11576:	48 89 c7             	mov    %rax,%rdi
   11579:	e8 75 61 ff ff       	callq  76f3 <transparent_crc>
   1157e:	0f b7 05 6b 5f 00 00 	movzwl 0x5f6b(%rip),%eax        # 174f0 <g_203>
   11585:	0f b7 c0             	movzwl %ax,%eax
   11588:	8b 55 fc             	mov    -0x4(%rbp),%edx
   1158b:	48 8d 35 4a 23 00 00 	lea    0x234a(%rip),%rsi        # 138dc <g_2501+0x187c>
   11592:	48 89 c7             	mov    %rax,%rdi
   11595:	e8 59 61 ff ff       	callq  76f3 <transparent_crc>
   1159a:	c7 45 f0 00 00 00 00 	movl   $0x0,-0x10(%rbp)
   115a1:	eb 72                	jmp    11615 <main+0x361>
   115a3:	c7 45 f4 00 00 00 00 	movl   $0x0,-0xc(%rbp)
   115aa:	eb 5f                	jmp    1160b <main+0x357>
   115ac:	8b 45 f4             	mov    -0xc(%rbp),%eax
   115af:	48 63 c8             	movslq %eax,%rcx
   115b2:	8b 45 f0             	mov    -0x10(%rbp),%eax
   115b5:	48 63 d0             	movslq %eax,%rdx
   115b8:	48 89 d0             	mov    %rdx,%rax
   115bb:	48 c1 e0 03          	shl    $0x3,%rax
   115bf:	48 01 d0             	add    %rdx,%rax
   115c2:	48 8d 14 08          	lea    (%rax,%rcx,1),%rdx
   115c6:	48 8d 05 33 5f 00 00 	lea    0x5f33(%rip),%rax        # 17500 <g_242>
   115cd:	48 01 d0             	add    %rdx,%rax
   115d0:	0f b6 00             	movzbl (%rax),%eax
   115d3:	0f b6 c0             	movzbl %al,%eax
   115d6:	8b 55 fc             	mov    -0x4(%rbp),%edx
   115d9:	48 8d 35 02 23 00 00 	lea    0x2302(%rip),%rsi        # 138e2 <g_2501+0x1882>
   115e0:	48 89 c7             	mov    %rax,%rdi
   115e3:	e8 0b 61 ff ff       	callq  76f3 <transparent_crc>
   115e8:	83 7d fc 00          	cmpl   $0x0,-0x4(%rbp)
   115ec:	74 19                	je     11607 <main+0x353>
   115ee:	8b 55 f4             	mov    -0xc(%rbp),%edx
   115f1:	8b 45 f0             	mov    -0x10(%rbp),%eax
   115f4:	89 c6                	mov    %eax,%esi
   115f6:	48 8d 3d 77 22 00 00 	lea    0x2277(%rip),%rdi        # 13874 <g_2501+0x1814>
   115fd:	b8 00 00 00 00       	mov    $0x0,%eax
   11602:	e8 79 4a ff ff       	callq  6080 <printf@plt>
   11607:	83 45 f4 01          	addl   $0x1,-0xc(%rbp)
   1160b:	83 7d f4 08          	cmpl   $0x8,-0xc(%rbp)
   1160f:	7e 9b                	jle    115ac <main+0x2f8>
   11611:	83 45 f0 01          	addl   $0x1,-0x10(%rbp)
   11615:	83 7d f0 02          	cmpl   $0x2,-0x10(%rbp)
   11619:	7e 88                	jle    115a3 <main+0x2ef>
   1161b:	c7 45 f0 00 00 00 00 	movl   $0x0,-0x10(%rbp)
   11622:	eb 46                	jmp    1166a <main+0x3b6>
   11624:	8b 45 f0             	mov    -0x10(%rbp),%eax
   11627:	48 98                	cltq   
   11629:	48 8d 15 eb 5e 00 00 	lea    0x5eeb(%rip),%rdx        # 1751b <g_268>
   11630:	0f b6 04 10          	movzbl (%rax,%rdx,1),%eax
   11634:	48 0f be c0          	movsbq %al,%rax
   11638:	8b 55 fc             	mov    -0x4(%rbp),%edx
   1163b:	48 8d 35 ac 22 00 00 	lea    0x22ac(%rip),%rsi        # 138ee <g_2501+0x188e>
   11642:	48 89 c7             	mov    %rax,%rdi
   11645:	e8 a9 60 ff ff       	callq  76f3 <transparent_crc>
   1164a:	83 7d fc 00          	cmpl   $0x0,-0x4(%rbp)
   1164e:	74 16                	je     11666 <main+0x3b2>
   11650:	8b 45 f0             	mov    -0x10(%rbp),%eax
   11653:	89 c6                	mov    %eax,%esi
   11655:	48 8d 3d 9b 22 00 00 	lea    0x229b(%rip),%rdi        # 138f7 <g_2501+0x1897>
   1165c:	b8 00 00 00 00       	mov    $0x0,%eax
   11661:	e8 1a 4a ff ff       	callq  6080 <printf@plt>
   11666:	83 45 f0 01          	addl   $0x1,-0x10(%rbp)
   1166a:	83 7d f0 03          	cmpl   $0x3,-0x10(%rbp)
   1166e:	7e b4                	jle    11624 <main+0x370>
   11670:	0f b6 05 a8 5e 00 00 	movzbl 0x5ea8(%rip),%eax        # 1751f <g_271>
   11677:	48 0f be c0          	movsbq %al,%rax
   1167b:	8b 55 fc             	mov    -0x4(%rbp),%edx
   1167e:	48 8d 35 80 22 00 00 	lea    0x2280(%rip),%rsi        # 13905 <g_2501+0x18a5>
   11685:	48 89 c7             	mov    %rax,%rdi
   11688:	e8 66 60 ff ff       	callq  76f3 <transparent_crc>
   1168d:	c7 45 f0 00 00 00 00 	movl   $0x0,-0x10(%rbp)
   11694:	eb 45                	jmp    116db <main+0x427>
   11696:	8b 45 f0             	mov    -0x10(%rbp),%eax
   11699:	48 98                	cltq   
   1169b:	48 8d 15 7e 5e 00 00 	lea    0x5e7e(%rip),%rdx        # 17520 <g_333>
   116a2:	0f b6 04 10          	movzbl (%rax,%rdx,1),%eax
   116a6:	0f b6 c0             	movzbl %al,%eax
   116a9:	8b 55 fc             	mov    -0x4(%rbp),%edx
   116ac:	48 8d 35 58 22 00 00 	lea    0x2258(%rip),%rsi        # 1390b <g_2501+0x18ab>
   116b3:	48 89 c7             	mov    %rax,%rdi
   116b6:	e8 38 60 ff ff       	callq  76f3 <transparent_crc>
   116bb:	83 7d fc 00          	cmpl   $0x0,-0x4(%rbp)
   116bf:	74 16                	je     116d7 <main+0x423>
   116c1:	8b 45 f0             	mov    -0x10(%rbp),%eax
   116c4:	89 c6                	mov    %eax,%esi
   116c6:	48 8d 3d 2a 22 00 00 	lea    0x222a(%rip),%rdi        # 138f7 <g_2501+0x1897>
   116cd:	b8 00 00 00 00       	mov    $0x0,%eax
   116d2:	e8 a9 49 ff ff       	callq  6080 <printf@plt>
   116d7:	83 45 f0 01          	addl   $0x1,-0x10(%rbp)
   116db:	83 7d f0 09          	cmpl   $0x9,-0x10(%rbp)
   116df:	7e b5                	jle    11696 <main+0x3e2>
   116e1:	8b 05 45 5e 00 00    	mov    0x5e45(%rip),%eax        # 1752c <g_343>
   116e7:	89 c1                	mov    %eax,%ecx
   116e9:	8b 45 fc             	mov    -0x4(%rbp),%eax
   116ec:	89 c2                	mov    %eax,%edx
   116ee:	48 8d 35 1f 22 00 00 	lea    0x221f(%rip),%rsi        # 13914 <g_2501+0x18b4>
   116f5:	48 89 cf             	mov    %rcx,%rdi
   116f8:	e8 f6 5f ff ff       	callq  76f3 <transparent_crc>
   116fd:	48 8b 05 2c 5e 00 00 	mov    0x5e2c(%rip),%rax        # 17530 <g_407>
   11704:	48 89 c1             	mov    %rax,%rcx
   11707:	8b 45 fc             	mov    -0x4(%rbp),%eax
   1170a:	89 c2                	mov    %eax,%edx
   1170c:	48 8d 35 07 22 00 00 	lea    0x2207(%rip),%rsi        # 1391a <g_2501+0x18ba>
   11713:	48 89 cf             	mov    %rcx,%rdi
   11716:	e8 d8 5f ff ff       	callq  76f3 <transparent_crc>
   1171b:	8b 05 17 5e 00 00    	mov    0x5e17(%rip),%eax        # 17538 <g_594>
   11721:	89 c1                	mov    %eax,%ecx
   11723:	8b 45 fc             	mov    -0x4(%rbp),%eax
   11726:	89 c2                	mov    %eax,%edx
   11728:	48 8d 35 f1 21 00 00 	lea    0x21f1(%rip),%rsi        # 13920 <g_2501+0x18c0>
   1172f:	48 89 cf             	mov    %rcx,%rdi
   11732:	e8 bc 5f ff ff       	callq  76f3 <transparent_crc>
   11737:	8b 05 ff 5d 00 00    	mov    0x5dff(%rip),%eax        # 1753c <g_603>
   1173d:	89 c1                	mov    %eax,%ecx
   1173f:	8b 45 fc             	mov    -0x4(%rbp),%eax
   11742:	89 c2                	mov    %eax,%edx
   11744:	48 8d 35 db 21 00 00 	lea    0x21db(%rip),%rsi        # 13926 <g_2501+0x18c6>
   1174b:	48 89 cf             	mov    %rcx,%rdi
   1174e:	e8 a0 5f ff ff       	callq  76f3 <transparent_crc>
   11753:	b8 5f c3 41 75       	mov    $0x7541c35f,%eax
   11758:	48 98                	cltq   
   1175a:	8b 55 fc             	mov    -0x4(%rbp),%edx
   1175d:	48 8d 35 c8 21 00 00 	lea    0x21c8(%rip),%rsi        # 1392c <g_2501+0x18cc>
   11764:	48 89 c7             	mov    %rax,%rdi
   11767:	e8 87 5f ff ff       	callq  76f3 <transparent_crc>
   1176c:	48 8b 05 cd 5d 00 00 	mov    0x5dcd(%rip),%rax        # 17540 <g_645>
   11773:	48 89 c1             	mov    %rax,%rcx
   11776:	8b 45 fc             	mov    -0x4(%rbp),%eax
   11779:	89 c2                	mov    %eax,%edx
   1177b:	48 8d 35 b0 21 00 00 	lea    0x21b0(%rip),%rsi        # 13932 <g_2501+0x18d2>
   11782:	48 89 cf             	mov    %rcx,%rdi
   11785:	e8 69 5f ff ff       	callq  76f3 <transparent_crc>
   1178a:	0f b7 05 b7 5d 00 00 	movzwl 0x5db7(%rip),%eax        # 17548 <g_891>
   11791:	0f b7 c0             	movzwl %ax,%eax
   11794:	8b 55 fc             	mov    -0x4(%rbp),%edx
   11797:	48 8d 35 9a 21 00 00 	lea    0x219a(%rip),%rsi        # 13938 <g_2501+0x18d8>
   1179e:	48 89 c7             	mov    %rax,%rdi
   117a1:	e8 4d 5f ff ff       	callq  76f3 <transparent_crc>
   117a6:	0f b7 05 9d 5d 00 00 	movzwl 0x5d9d(%rip),%eax        # 1754a <g_936>
   117ad:	48 0f bf c0          	movswq %ax,%rax
   117b1:	8b 55 fc             	mov    -0x4(%rbp),%edx
   117b4:	48 8d 35 83 21 00 00 	lea    0x2183(%rip),%rsi        # 1393e <g_2501+0x18de>
   117bb:	48 89 c7             	mov    %rax,%rdi
   117be:	e8 30 5f ff ff       	callq  76f3 <transparent_crc>
   117c3:	0f b7 05 82 5d 00 00 	movzwl 0x5d82(%rip),%eax        # 1754c <g_1043>
   117ca:	48 0f bf c0          	movswq %ax,%rax
   117ce:	8b 55 fc             	mov    -0x4(%rbp),%edx
   117d1:	48 8d 35 6c 21 00 00 	lea    0x216c(%rip),%rsi        # 13944 <g_2501+0x18e4>
   117d8:	48 89 c7             	mov    %rax,%rdi
   117db:	e8 13 5f ff ff       	callq  76f3 <transparent_crc>
   117e0:	0f b6 05 67 5d 00 00 	movzbl 0x5d67(%rip),%eax        # 1754e <g_1133>
   117e7:	0f b6 c0             	movzbl %al,%eax
   117ea:	8b 55 fc             	mov    -0x4(%rbp),%edx
   117ed:	48 8d 35 57 21 00 00 	lea    0x2157(%rip),%rsi        # 1394b <g_2501+0x18eb>
   117f4:	48 89 c7             	mov    %rax,%rdi
   117f7:	e8 f7 5e ff ff       	callq  76f3 <transparent_crc>
   117fc:	8b 05 4e 5d 00 00    	mov    0x5d4e(%rip),%eax        # 17550 <g_1276>
   11802:	48 98                	cltq   
   11804:	8b 55 fc             	mov    -0x4(%rbp),%edx
   11807:	48 8d 35 44 21 00 00 	lea    0x2144(%rip),%rsi        # 13952 <g_2501+0x18f2>
   1180e:	48 89 c7             	mov    %rax,%rdi
   11811:	e8 dd 5e ff ff       	callq  76f3 <transparent_crc>
   11816:	0f b6 05 37 5d 00 00 	movzbl 0x5d37(%rip),%eax        # 17554 <g_1350>
   1181d:	48 0f be c0          	movsbq %al,%rax
   11821:	8b 55 fc             	mov    -0x4(%rbp),%edx
   11824:	48 8d 35 2e 21 00 00 	lea    0x212e(%rip),%rsi        # 13959 <g_2501+0x18f9>
   1182b:	48 89 c7             	mov    %rax,%rdi
   1182e:	e8 c0 5e ff ff       	callq  76f3 <transparent_crc>
   11833:	8b 05 27 81 00 00    	mov    0x8127(%rip),%eax        # 19960 <g_1361>
   11839:	89 c1                	mov    %eax,%ecx
   1183b:	8b 45 fc             	mov    -0x4(%rbp),%eax
   1183e:	89 c2                	mov    %eax,%edx
   11840:	48 8d 35 19 21 00 00 	lea    0x2119(%rip),%rsi        # 13960 <g_2501+0x1900>
   11847:	48 89 cf             	mov    %rcx,%rdi
   1184a:	e8 a4 5e ff ff       	callq  76f3 <transparent_crc>
   1184f:	c7 45 f0 00 00 00 00 	movl   $0x0,-0x10(%rbp)
   11856:	e9 9b 00 00 00       	jmpq   118f6 <main+0x642>
   1185b:	c7 45 f4 00 00 00 00 	movl   $0x0,-0xc(%rbp)
   11862:	e9 81 00 00 00       	jmpq   118e8 <main+0x634>
   11867:	c7 45 f8 00 00 00 00 	movl   $0x0,-0x8(%rbp)
   1186e:	eb 6e                	jmp    118de <main+0x62a>
   11870:	8b 45 f8             	mov    -0x8(%rbp),%eax
   11873:	48 63 c8             	movslq %eax,%rcx
   11876:	8b 45 f0             	mov    -0x10(%rbp),%eax
   11879:	48 63 d0             	movslq %eax,%rdx
   1187c:	8b 45 f4             	mov    -0xc(%rbp),%eax
   1187f:	48 63 f0             	movslq %eax,%rsi
   11882:	48 89 d0             	mov    %rdx,%rax
   11885:	48 01 c0             	add    %rax,%rax
   11888:	48 01 d0             	add    %rdx,%rax
   1188b:	48 01 f0             	add    %rsi,%rax
   1188e:	48 01 c0             	add    %rax,%rax
   11891:	48 8d 14 08          	lea    (%rax,%rcx,1),%rdx
   11895:	48 8d 05 c4 5c 00 00 	lea    0x5cc4(%rip),%rax        # 17560 <g_1607>
   1189c:	48 01 d0             	add    %rdx,%rax
   1189f:	0f b6 00             	movzbl (%rax),%eax
   118a2:	48 0f be c0          	movsbq %al,%rax
   118a6:	8b 55 fc             	mov    -0x4(%rbp),%edx
   118a9:	48 8d 35 b7 20 00 00 	lea    0x20b7(%rip),%rsi        # 13967 <g_2501+0x1907>
   118b0:	48 89 c7             	mov    %rax,%rdi
   118b3:	e8 3b 5e ff ff       	callq  76f3 <transparent_crc>
   118b8:	83 7d fc 00          	cmpl   $0x0,-0x4(%rbp)
   118bc:	74 1c                	je     118da <main+0x626>
   118be:	8b 4d f8             	mov    -0x8(%rbp),%ecx
   118c1:	8b 55 f4             	mov    -0xc(%rbp),%edx
   118c4:	8b 45 f0             	mov    -0x10(%rbp),%eax
   118c7:	89 c6                	mov    %eax,%esi
   118c9:	48 8d 3d d8 1f 00 00 	lea    0x1fd8(%rip),%rdi        # 138a8 <g_2501+0x1848>
   118d0:	b8 00 00 00 00       	mov    $0x0,%eax
   118d5:	e8 a6 47 ff ff       	callq  6080 <printf@plt>
   118da:	83 45 f8 01          	addl   $0x1,-0x8(%rbp)
   118de:	83 7d f8 01          	cmpl   $0x1,-0x8(%rbp)
   118e2:	7e 8c                	jle    11870 <main+0x5bc>
   118e4:	83 45 f4 01          	addl   $0x1,-0xc(%rbp)
   118e8:	83 7d f4 02          	cmpl   $0x2,-0xc(%rbp)
   118ec:	0f 8e 75 ff ff ff    	jle    11867 <main+0x5b3>
   118f2:	83 45 f0 01          	addl   $0x1,-0x10(%rbp)
   118f6:	83 7d f0 06          	cmpl   $0x6,-0x10(%rbp)
   118fa:	0f 8e 5b ff ff ff    	jle    1185b <main+0x5a7>
   11900:	8b 05 86 5c 00 00    	mov    0x5c86(%rip),%eax        # 1758c <g_1786>
   11906:	89 c1                	mov    %eax,%ecx
   11908:	8b 45 fc             	mov    -0x4(%rbp),%eax
   1190b:	89 c2                	mov    %eax,%edx
   1190d:	48 8d 35 63 20 00 00 	lea    0x2063(%rip),%rsi        # 13977 <g_2501+0x1917>
   11914:	48 89 cf             	mov    %rcx,%rdi
   11917:	e8 d7 5d ff ff       	callq  76f3 <transparent_crc>
   1191c:	c7 45 f0 00 00 00 00 	movl   $0x0,-0x10(%rbp)
   11923:	eb 4a                	jmp    1196f <main+0x6bb>
   11925:	8b 45 f0             	mov    -0x10(%rbp),%eax
   11928:	48 98                	cltq   
   1192a:	48 8d 14 00          	lea    (%rax,%rax,1),%rdx
   1192e:	48 8d 05 5b 5c 00 00 	lea    0x5c5b(%rip),%rax        # 17590 <g_1806>
   11935:	0f b7 04 02          	movzwl (%rdx,%rax,1),%eax
   11939:	48 0f bf c0          	movswq %ax,%rax
   1193d:	8b 55 fc             	mov    -0x4(%rbp),%edx
   11940:	48 8d 35 37 20 00 00 	lea    0x2037(%rip),%rsi        # 1397e <g_2501+0x191e>
   11947:	48 89 c7             	mov    %rax,%rdi
   1194a:	e8 a4 5d ff ff       	callq  76f3 <transparent_crc>
   1194f:	83 7d fc 00          	cmpl   $0x0,-0x4(%rbp)
   11953:	74 16                	je     1196b <main+0x6b7>
   11955:	8b 45 f0             	mov    -0x10(%rbp),%eax
   11958:	89 c6                	mov    %eax,%esi
   1195a:	48 8d 3d 96 1f 00 00 	lea    0x1f96(%rip),%rdi        # 138f7 <g_2501+0x1897>
   11961:	b8 00 00 00 00       	mov    $0x0,%eax
   11966:	e8 15 47 ff ff       	callq  6080 <printf@plt>
   1196b:	83 45 f0 01          	addl   $0x1,-0x10(%rbp)
   1196f:	83 7d f0 07          	cmpl   $0x7,-0x10(%rbp)
   11973:	7e b0                	jle    11925 <main+0x671>
   11975:	8b 05 25 5c 00 00    	mov    0x5c25(%rip),%eax        # 175a0 <g_1917>
   1197b:	48 98                	cltq   
   1197d:	8b 55 fc             	mov    -0x4(%rbp),%edx
   11980:	48 8d 35 01 20 00 00 	lea    0x2001(%rip),%rsi        # 13988 <g_2501+0x1928>
   11987:	48 89 c7             	mov    %rax,%rdi
   1198a:	e8 64 5d ff ff       	callq  76f3 <transparent_crc>
   1198f:	8b 05 0f 5c 00 00    	mov    0x5c0f(%rip),%eax        # 175a4 <g_1919>
   11995:	48 98                	cltq   
   11997:	8b 55 fc             	mov    -0x4(%rbp),%edx
   1199a:	48 8d 35 ee 1f 00 00 	lea    0x1fee(%rip),%rsi        # 1398f <g_2501+0x192f>
   119a1:	48 89 c7             	mov    %rax,%rdi
   119a4:	e8 4a 5d ff ff       	callq  76f3 <transparent_crc>
   119a9:	8b 05 f9 5b 00 00    	mov    0x5bf9(%rip),%eax        # 175a8 <g_2020>
   119af:	89 c1                	mov    %eax,%ecx
   119b1:	8b 45 fc             	mov    -0x4(%rbp),%eax
   119b4:	89 c2                	mov    %eax,%edx
   119b6:	48 8d 35 d9 1f 00 00 	lea    0x1fd9(%rip),%rsi        # 13996 <g_2501+0x1936>
   119bd:	48 89 cf             	mov    %rcx,%rdi
   119c0:	e8 2e 5d ff ff       	callq  76f3 <transparent_crc>
   119c5:	8b 05 e1 5b 00 00    	mov    0x5be1(%rip),%eax        # 175ac <g_2031>
   119cb:	48 98                	cltq   
   119cd:	8b 55 fc             	mov    -0x4(%rbp),%edx
   119d0:	48 8d 35 c6 1f 00 00 	lea    0x1fc6(%rip),%rsi        # 1399d <g_2501+0x193d>
   119d7:	48 89 c7             	mov    %rax,%rdi
   119da:	e8 14 5d ff ff       	callq  76f3 <transparent_crc>
   119df:	0f b7 05 ca 5b 00 00 	movzwl 0x5bca(%rip),%eax        # 175b0 <g_2339>
   119e6:	0f b7 c0             	movzwl %ax,%eax
   119e9:	8b 55 fc             	mov    -0x4(%rbp),%edx
   119ec:	48 8d 35 b1 1f 00 00 	lea    0x1fb1(%rip),%rsi        # 139a4 <g_2501+0x1944>
   119f3:	48 89 c7             	mov    %rax,%rdi
   119f6:	e8 f8 5c ff ff       	callq  76f3 <transparent_crc>
   119fb:	c7 45 f0 00 00 00 00 	movl   $0x0,-0x10(%rbp)
   11a02:	eb 4a                	jmp    11a4e <main+0x79a>
   11a04:	8b 45 f0             	mov    -0x10(%rbp),%eax
   11a07:	48 98                	cltq   
   11a09:	48 8d 14 c5 00 00 00 	lea    0x0(,%rax,8),%rdx
   11a10:	00 
   11a11:	48 8d 05 a8 5b 00 00 	lea    0x5ba8(%rip),%rax        # 175c0 <g_2355>
   11a18:	48 8b 04 02          	mov    (%rdx,%rax,1),%rax
   11a1c:	8b 55 fc             	mov    -0x4(%rbp),%edx
   11a1f:	48 8d 35 85 1f 00 00 	lea    0x1f85(%rip),%rsi        # 139ab <g_2501+0x194b>
   11a26:	48 89 c7             	mov    %rax,%rdi
   11a29:	e8 c5 5c ff ff       	callq  76f3 <transparent_crc>
   11a2e:	83 7d fc 00          	cmpl   $0x0,-0x4(%rbp)
   11a32:	74 16                	je     11a4a <main+0x796>
   11a34:	8b 45 f0             	mov    -0x10(%rbp),%eax
   11a37:	89 c6                	mov    %eax,%esi
   11a39:	48 8d 3d b7 1e 00 00 	lea    0x1eb7(%rip),%rdi        # 138f7 <g_2501+0x1897>
   11a40:	b8 00 00 00 00       	mov    $0x0,%eax
   11a45:	e8 36 46 ff ff       	callq  6080 <printf@plt>
   11a4a:	83 45 f0 01          	addl   $0x1,-0x10(%rbp)
   11a4e:	83 7d f0 09          	cmpl   $0x9,-0x10(%rbp)
   11a52:	7e b0                	jle    11a04 <main+0x750>
   11a54:	c7 45 f0 00 00 00 00 	movl   $0x0,-0x10(%rbp)
   11a5b:	eb 4b                	jmp    11aa8 <main+0x7f4>
   11a5d:	8b 45 f0             	mov    -0x10(%rbp),%eax
   11a60:	48 98                	cltq   
   11a62:	48 8d 14 85 00 00 00 	lea    0x0(,%rax,4),%rdx
   11a69:	00 
   11a6a:	48 8d 05 9f 5b 00 00 	lea    0x5b9f(%rip),%rax        # 17610 <g_2483>
   11a71:	8b 04 02             	mov    (%rdx,%rax,1),%eax
   11a74:	48 98                	cltq   
   11a76:	8b 55 fc             	mov    -0x4(%rbp),%edx
   11a79:	48 8d 35 35 1f 00 00 	lea    0x1f35(%rip),%rsi        # 139b5 <g_2501+0x1955>
   11a80:	48 89 c7             	mov    %rax,%rdi
   11a83:	e8 6b 5c ff ff       	callq  76f3 <transparent_crc>
   11a88:	83 7d fc 00          	cmpl   $0x0,-0x4(%rbp)
   11a8c:	74 16                	je     11aa4 <main+0x7f0>
   11a8e:	8b 45 f0             	mov    -0x10(%rbp),%eax
   11a91:	89 c6                	mov    %eax,%esi
   11a93:	48 8d 3d 5d 1e 00 00 	lea    0x1e5d(%rip),%rdi        # 138f7 <g_2501+0x1897>
   11a9a:	b8 00 00 00 00       	mov    $0x0,%eax
   11a9f:	e8 dc 45 ff ff       	callq  6080 <printf@plt>
   11aa4:	83 45 f0 01          	addl   $0x1,-0x10(%rbp)
   11aa8:	83 7d f0 01          	cmpl   $0x1,-0x10(%rbp)
   11aac:	7e af                	jle    11a5d <main+0x7a9>
   11aae:	48 b8 bb b1 14 20 76 	movabs $0x586a66762014b1bb,%rax
   11ab5:	66 6a 58 
   11ab8:	48 89 c1             	mov    %rax,%rcx
   11abb:	8b 45 fc             	mov    -0x4(%rbp),%eax
   11abe:	89 c2                	mov    %eax,%edx
   11ac0:	48 8d 35 f8 1e 00 00 	lea    0x1ef8(%rip),%rsi        # 139bf <g_2501+0x195f>
   11ac7:	48 89 cf             	mov    %rcx,%rdi
   11aca:	e8 24 5c ff ff       	callq  76f3 <transparent_crc>
   11acf:	c7 45 f0 00 00 00 00 	movl   $0x0,-0x10(%rbp)
   11ad6:	eb 45                	jmp    11b1d <main+0x869>
   11ad8:	8b 45 f0             	mov    -0x10(%rbp),%eax
   11adb:	48 98                	cltq   
   11add:	48 8d 15 34 5b 00 00 	lea    0x5b34(%rip),%rdx        # 17618 <g_2544>
   11ae4:	0f b6 04 10          	movzbl (%rax,%rdx,1),%eax
   11ae8:	0f b6 c0             	movzbl %al,%eax
   11aeb:	8b 55 fc             	mov    -0x4(%rbp),%edx
   11aee:	48 8d 35 d1 1e 00 00 	lea    0x1ed1(%rip),%rsi        # 139c6 <g_2501+0x1966>
   11af5:	48 89 c7             	mov    %rax,%rdi
   11af8:	e8 f6 5b ff ff       	callq  76f3 <transparent_crc>
   11afd:	83 7d fc 00          	cmpl   $0x0,-0x4(%rbp)
   11b01:	74 16                	je     11b19 <main+0x865>
   11b03:	8b 45 f0             	mov    -0x10(%rbp),%eax
   11b06:	89 c6                	mov    %eax,%esi
   11b08:	48 8d 3d e8 1d 00 00 	lea    0x1de8(%rip),%rdi        # 138f7 <g_2501+0x1897>
   11b0f:	b8 00 00 00 00       	mov    $0x0,%eax
   11b14:	e8 67 45 ff ff       	callq  6080 <printf@plt>
   11b19:	83 45 f0 01          	addl   $0x1,-0x10(%rbp)
   11b1d:	83 7d f0 07          	cmpl   $0x7,-0x10(%rbp)
   11b21:	7e b5                	jle    11ad8 <main+0x824>
   11b23:	48 8b 05 f6 5a 00 00 	mov    0x5af6(%rip),%rax        # 17620 <g_2623>
   11b2a:	48 89 c1             	mov    %rax,%rcx
   11b2d:	8b 45 fc             	mov    -0x4(%rbp),%eax
   11b30:	89 c2                	mov    %eax,%edx
   11b32:	48 8d 35 97 1e 00 00 	lea    0x1e97(%rip),%rsi        # 139d0 <g_2501+0x1970>
   11b39:	48 89 cf             	mov    %rcx,%rdi
   11b3c:	e8 b2 5b ff ff       	callq  76f3 <transparent_crc>
   11b41:	8b 05 e1 5a 00 00    	mov    0x5ae1(%rip),%eax        # 17628 <g_2644>
   11b47:	48 98                	cltq   
   11b49:	8b 55 fc             	mov    -0x4(%rbp),%edx
   11b4c:	48 8d 35 84 1e 00 00 	lea    0x1e84(%rip),%rsi        # 139d7 <g_2501+0x1977>
   11b53:	48 89 c7             	mov    %rax,%rdi
   11b56:	e8 98 5b ff ff       	callq  76f3 <transparent_crc>
   11b5b:	8b 05 cb 5a 00 00    	mov    0x5acb(%rip),%eax        # 1762c <g_2870>
   11b61:	89 c1                	mov    %eax,%ecx
   11b63:	8b 45 fc             	mov    -0x4(%rbp),%eax
   11b66:	89 c2                	mov    %eax,%edx
   11b68:	48 8d 35 6f 1e 00 00 	lea    0x1e6f(%rip),%rsi        # 139de <g_2501+0x197e>
   11b6f:	48 89 cf             	mov    %rcx,%rdi
   11b72:	e8 7c 5b ff ff       	callq  76f3 <transparent_crc>
   11b77:	8b 05 b3 5a 00 00    	mov    0x5ab3(%rip),%eax        # 17630 <g_2974>
   11b7d:	48 98                	cltq   
   11b7f:	8b 55 fc             	mov    -0x4(%rbp),%edx
   11b82:	48 8d 35 5c 1e 00 00 	lea    0x1e5c(%rip),%rsi        # 139e5 <g_2501+0x1985>
   11b89:	48 89 c7             	mov    %rax,%rdi
   11b8c:	e8 62 5b ff ff       	callq  76f3 <transparent_crc>
   11b91:	8b 05 89 54 00 00    	mov    0x5489(%rip),%eax        # 17020 <crc32_context>
   11b97:	f7 d0                	not    %eax
   11b99:	89 c2                	mov    %eax,%edx
   11b9b:	8b 45 fc             	mov    -0x4(%rbp),%eax
   11b9e:	89 c6                	mov    %eax,%esi
   11ba0:	89 d7                	mov    %edx,%edi
   11ba2:	e8 ed 45 ff ff       	callq  6194 <platform_main_end>
   11ba7:	b8 00 00 00 00       	mov    $0x0,%eax
   11bac:	c9                   	leaveq 
   11bad:	c3                   	retq   
   11bae:	66 90                	xchg   %ax,%ax

0000000000011bb0 <__libc_csu_init>:
   11bb0:	f3 0f 1e fa          	endbr64 
   11bb4:	41 57                	push   %r15
   11bb6:	4c 8d 3d 33 4b 00 00 	lea    0x4b33(%rip),%r15        # 166f0 <__frame_dummy_init_array_entry>
   11bbd:	41 56                	push   %r14
   11bbf:	49 89 d6             	mov    %rdx,%r14
   11bc2:	41 55                	push   %r13
   11bc4:	49 89 f5             	mov    %rsi,%r13
   11bc7:	41 54                	push   %r12
   11bc9:	41 89 fc             	mov    %edi,%r12d
   11bcc:	55                   	push   %rbp
   11bcd:	48 8d 2d 24 4b 00 00 	lea    0x4b24(%rip),%rbp        # 166f8 <__do_global_dtors_aux_fini_array_entry>
   11bd4:	53                   	push   %rbx
   11bd5:	4c 29 fd             	sub    %r15,%rbp
   11bd8:	48 83 ec 08          	sub    $0x8,%rsp
   11bdc:	e8 1f 44 ff ff       	callq  6000 <_init>
   11be1:	48 c1 fd 03          	sar    $0x3,%rbp
   11be5:	74 1f                	je     11c06 <__libc_csu_init+0x56>
   11be7:	31 db                	xor    %ebx,%ebx
   11be9:	0f 1f 80 00 00 00 00 	nopl   0x0(%rax)
   11bf0:	4c 89 f2             	mov    %r14,%rdx
   11bf3:	4c 89 ee             	mov    %r13,%rsi
   11bf6:	44 89 e7             	mov    %r12d,%edi
   11bf9:	41 ff 14 df          	callq  *(%r15,%rbx,8)
   11bfd:	48 83 c3 01          	add    $0x1,%rbx
   11c01:	48 39 dd             	cmp    %rbx,%rbp
   11c04:	75 ea                	jne    11bf0 <__libc_csu_init+0x40>
   11c06:	48 83 c4 08          	add    $0x8,%rsp
   11c0a:	5b                   	pop    %rbx
   11c0b:	5d                   	pop    %rbp
   11c0c:	41 5c                	pop    %r12
   11c0e:	41 5d                	pop    %r13
   11c10:	41 5e                	pop    %r14
   11c12:	41 5f                	pop    %r15
   11c14:	c3                   	retq   
   11c15:	66 66 2e 0f 1f 84 00 	data16 nopw %cs:0x0(%rax,%rax,1)
   11c1c:	00 00 00 00 

0000000000011c20 <__libc_csu_fini>:
   11c20:	f3 0f 1e fa          	endbr64 
   11c24:	c3                   	retq   
