


Disassembly of section .text:

000000000000b0a0 <_start>:
    b0a0:	f3 0f 1e fa          	endbr64 
    b0a4:	31 ed                	xor    %ebp,%ebp
    b0a6:	49 89 d1             	mov    %rdx,%r9
    b0a9:	5e                   	pop    %rsi
    b0aa:	48 89 e2             	mov    %rsp,%rdx
    b0ad:	48 83 e4 f0          	and    $0xfffffffffffffff0,%rsp
    b0b1:	50                   	push   %rax
    b0b2:	54                   	push   %rsp
    b0b3:	4c 8d 05 86 fa 00 00 	lea    0xfa86(%rip),%r8        # 1ab40 <__libc_csu_fini>
    b0ba:	48 8d 0d 0f fa 00 00 	lea    0xfa0f(%rip),%rcx        # 1aad0 <__libc_csu_init>
    b0c1:	48 8d 3d e8 e3 00 00 	lea    0xe3e8(%rip),%rdi        # 194b0 <main>
    b0c8:	ff 15 0a 4f 01 00    	callq  *0x14f0a(%rip)        # 1ffd8 <__libc_start_main@GLIBC_2.2.5>
    b0ce:	f4                   	hlt    
    b0cf:	90                   	nop

000000000000b0d0 <deregister_tm_clones>:
    b0d0:	48 8d 3d 61 96 01 00 	lea    0x19661(%rip),%rdi        # 24738 <__TMC_END__>
    b0d7:	48 8d 05 5a 96 01 00 	lea    0x1965a(%rip),%rax        # 24738 <__TMC_END__>
    b0de:	48 39 f8             	cmp    %rdi,%rax
    b0e1:	74 15                	je     b0f8 <deregister_tm_clones+0x28>
    b0e3:	48 8b 05 e6 4e 01 00 	mov    0x14ee6(%rip),%rax        # 1ffd0 <_ITM_deregisterTMCloneTable>
    b0ea:	48 85 c0             	test   %rax,%rax
    b0ed:	74 09                	je     b0f8 <deregister_tm_clones+0x28>
    b0ef:	ff e0                	jmpq   *%rax
    b0f1:	0f 1f 80 00 00 00 00 	nopl   0x0(%rax)
    b0f8:	c3                   	retq   
    b0f9:	0f 1f 80 00 00 00 00 	nopl   0x0(%rax)

000000000000b100 <register_tm_clones>:
    b100:	48 8d 3d 31 96 01 00 	lea    0x19631(%rip),%rdi        # 24738 <__TMC_END__>
    b107:	48 8d 35 2a 96 01 00 	lea    0x1962a(%rip),%rsi        # 24738 <__TMC_END__>
    b10e:	48 29 fe             	sub    %rdi,%rsi
    b111:	48 89 f0             	mov    %rsi,%rax
    b114:	48 c1 ee 3f          	shr    $0x3f,%rsi
    b118:	48 c1 f8 03          	sar    $0x3,%rax
    b11c:	48 01 c6             	add    %rax,%rsi
    b11f:	48 d1 fe             	sar    %rsi
    b122:	74 14                	je     b138 <register_tm_clones+0x38>
    b124:	48 8b 05 bd 4e 01 00 	mov    0x14ebd(%rip),%rax        # 1ffe8 <_ITM_registerTMCloneTable>
    b12b:	48 85 c0             	test   %rax,%rax
    b12e:	74 08                	je     b138 <register_tm_clones+0x38>
    b130:	ff e0                	jmpq   *%rax
    b132:	66 0f 1f 44 00 00    	nopw   0x0(%rax,%rax,1)
    b138:	c3                   	retq   
    b139:	0f 1f 80 00 00 00 00 	nopl   0x0(%rax)

000000000000b140 <__do_global_dtors_aux>:
    b140:	f3 0f 1e fa          	endbr64 
    b144:	80 3d f5 95 01 00 00 	cmpb   $0x0,0x195f5(%rip)        # 24740 <completed.8061>
    b14b:	75 2b                	jne    b178 <__do_global_dtors_aux+0x38>
    b14d:	55                   	push   %rbp
    b14e:	48 83 3d 9a 4e 01 00 	cmpq   $0x0,0x14e9a(%rip)        # 1fff0 <__cxa_finalize@GLIBC_2.2.5>
    b155:	00 
    b156:	48 89 e5             	mov    %rsp,%rbp
    b159:	74 0c                	je     b167 <__do_global_dtors_aux+0x27>
    b15b:	48 8b 3d a6 4e 01 00 	mov    0x14ea6(%rip),%rdi        # 20008 <__dso_handle>
    b162:	e8 f9 fe ff ff       	callq  b060 <__cxa_finalize@plt>
    b167:	e8 64 ff ff ff       	callq  b0d0 <deregister_tm_clones>
    b16c:	c6 05 cd 95 01 00 01 	movb   $0x1,0x195cd(%rip)        # 24740 <completed.8061>
    b173:	5d                   	pop    %rbp
    b174:	c3                   	retq   
    b175:	0f 1f 00             	nopl   (%rax)
    b178:	c3                   	retq   
    b179:	0f 1f 80 00 00 00 00 	nopl   0x0(%rax)

000000000000b180 <frame_dummy>:
    b180:	f3 0f 1e fa          	endbr64 
    b184:	e9 77 ff ff ff       	jmpq   b100 <register_tm_clones>

000000000000b189 <platform_main_begin>:
    b189:	f3 0f 1e fa          	endbr64 
    b18d:	55                   	push   %rbp
    b18e:	48 89 e5             	mov    %rsp,%rbp
    b191:	90                   	nop
    b192:	5d                   	pop    %rbp
    b193:	c3                   	retq   

000000000000b194 <platform_main_end>:
    b194:	f3 0f 1e fa          	endbr64 
    b198:	55                   	push   %rbp
    b199:	48 89 e5             	mov    %rsp,%rbp
    b19c:	48 83 ec 10          	sub    $0x10,%rsp
    b1a0:	89 7d fc             	mov    %edi,-0x4(%rbp)
    b1a3:	89 75 f8             	mov    %esi,-0x8(%rbp)
    b1a6:	8b 45 fc             	mov    -0x4(%rbp),%eax
    b1a9:	89 c6                	mov    %eax,%esi
    b1ab:	48 8d 3d 6e fe 00 00 	lea    0xfe6e(%rip),%rdi        # 1b020 <_IO_stdin_used+0x20>
    b1b2:	b8 00 00 00 00       	mov    $0x0,%eax
    b1b7:	e8 c4 fe ff ff       	callq  b080 <printf@plt>
    b1bc:	90                   	nop
    b1bd:	c9                   	leaveq 
    b1be:	c3                   	retq   

000000000000b1bf <safe_unary_minus_func_int8_t_s>:
    b1bf:	f3 0f 1e fa          	endbr64 
    b1c3:	55                   	push   %rbp
    b1c4:	48 89 e5             	mov    %rsp,%rbp
    b1c7:	89 f8                	mov    %edi,%eax
    b1c9:	88 45 fc             	mov    %al,-0x4(%rbp)
    b1cc:	0f b6 45 fc          	movzbl -0x4(%rbp),%eax
    b1d0:	f7 d8                	neg    %eax
    b1d2:	5d                   	pop    %rbp
    b1d3:	c3                   	retq   

000000000000b1d4 <safe_add_func_int8_t_s_s>:
    b1d4:	f3 0f 1e fa          	endbr64 
    b1d8:	55                   	push   %rbp
    b1d9:	48 89 e5             	mov    %rsp,%rbp
    b1dc:	89 fa                	mov    %edi,%edx
    b1de:	89 f0                	mov    %esi,%eax
    b1e0:	88 55 fc             	mov    %dl,-0x4(%rbp)
    b1e3:	88 45 f8             	mov    %al,-0x8(%rbp)
    b1e6:	0f b6 55 fc          	movzbl -0x4(%rbp),%edx
    b1ea:	0f b6 45 f8          	movzbl -0x8(%rbp),%eax
    b1ee:	01 d0                	add    %edx,%eax
    b1f0:	5d                   	pop    %rbp
    b1f1:	c3                   	retq   

000000000000b1f2 <safe_sub_func_int8_t_s_s>:
    b1f2:	f3 0f 1e fa          	endbr64 
    b1f6:	55                   	push   %rbp
    b1f7:	48 89 e5             	mov    %rsp,%rbp
    b1fa:	89 fa                	mov    %edi,%edx
    b1fc:	89 f0                	mov    %esi,%eax
    b1fe:	88 55 fc             	mov    %dl,-0x4(%rbp)
    b201:	88 45 f8             	mov    %al,-0x8(%rbp)
    b204:	0f b6 55 fc          	movzbl -0x4(%rbp),%edx
    b208:	0f b6 45 f8          	movzbl -0x8(%rbp),%eax
    b20c:	29 c2                	sub    %eax,%edx
    b20e:	89 d0                	mov    %edx,%eax
    b210:	5d                   	pop    %rbp
    b211:	c3                   	retq   

000000000000b212 <safe_mul_func_int8_t_s_s>:
    b212:	f3 0f 1e fa          	endbr64 
    b216:	55                   	push   %rbp
    b217:	48 89 e5             	mov    %rsp,%rbp
    b21a:	89 fa                	mov    %edi,%edx
    b21c:	89 f0                	mov    %esi,%eax
    b21e:	88 55 fc             	mov    %dl,-0x4(%rbp)
    b221:	88 45 f8             	mov    %al,-0x8(%rbp)
    b224:	0f b6 45 fc          	movzbl -0x4(%rbp),%eax
    b228:	0f b6 55 f8          	movzbl -0x8(%rbp),%edx
    b22c:	0f af c2             	imul   %edx,%eax
    b22f:	5d                   	pop    %rbp
    b230:	c3                   	retq   

000000000000b231 <safe_mod_func_int8_t_s_s>:
    b231:	f3 0f 1e fa          	endbr64 
    b235:	55                   	push   %rbp
    b236:	48 89 e5             	mov    %rsp,%rbp
    b239:	89 fa                	mov    %edi,%edx
    b23b:	89 f0                	mov    %esi,%eax
    b23d:	88 55 fc             	mov    %dl,-0x4(%rbp)
    b240:	88 45 f8             	mov    %al,-0x8(%rbp)
    b243:	80 7d f8 00          	cmpb   $0x0,-0x8(%rbp)
    b247:	74 1b                	je     b264 <safe_mod_func_int8_t_s_s+0x33>
    b249:	80 7d fc 80          	cmpb   $0x80,-0x4(%rbp)
    b24d:	75 06                	jne    b255 <safe_mod_func_int8_t_s_s+0x24>
    b24f:	80 7d f8 ff          	cmpb   $0xff,-0x8(%rbp)
    b253:	74 0f                	je     b264 <safe_mod_func_int8_t_s_s+0x33>
    b255:	0f be 45 fc          	movsbl -0x4(%rbp),%eax
    b259:	0f be 4d f8          	movsbl -0x8(%rbp),%ecx
    b25d:	99                   	cltd   
    b25e:	f7 f9                	idiv   %ecx
    b260:	89 d0                	mov    %edx,%eax
    b262:	eb 04                	jmp    b268 <safe_mod_func_int8_t_s_s+0x37>
    b264:	0f b6 45 fc          	movzbl -0x4(%rbp),%eax
    b268:	5d                   	pop    %rbp
    b269:	c3                   	retq   

000000000000b26a <safe_div_func_int8_t_s_s>:
    b26a:	f3 0f 1e fa          	endbr64 
    b26e:	55                   	push   %rbp
    b26f:	48 89 e5             	mov    %rsp,%rbp
    b272:	89 fa                	mov    %edi,%edx
    b274:	89 f0                	mov    %esi,%eax
    b276:	88 55 fc             	mov    %dl,-0x4(%rbp)
    b279:	88 45 f8             	mov    %al,-0x8(%rbp)
    b27c:	80 7d f8 00          	cmpb   $0x0,-0x8(%rbp)
    b280:	74 19                	je     b29b <safe_div_func_int8_t_s_s+0x31>
    b282:	80 7d fc 80          	cmpb   $0x80,-0x4(%rbp)
    b286:	75 06                	jne    b28e <safe_div_func_int8_t_s_s+0x24>
    b288:	80 7d f8 ff          	cmpb   $0xff,-0x8(%rbp)
    b28c:	74 0d                	je     b29b <safe_div_func_int8_t_s_s+0x31>
    b28e:	0f be 45 fc          	movsbl -0x4(%rbp),%eax
    b292:	0f be 4d f8          	movsbl -0x8(%rbp),%ecx
    b296:	99                   	cltd   
    b297:	f7 f9                	idiv   %ecx
    b299:	eb 04                	jmp    b29f <safe_div_func_int8_t_s_s+0x35>
    b29b:	0f b6 45 fc          	movzbl -0x4(%rbp),%eax
    b29f:	5d                   	pop    %rbp
    b2a0:	c3                   	retq   

000000000000b2a1 <safe_lshift_func_int8_t_s_s>:
    b2a1:	f3 0f 1e fa          	endbr64 
    b2a5:	55                   	push   %rbp
    b2a6:	48 89 e5             	mov    %rsp,%rbp
    b2a9:	89 f8                	mov    %edi,%eax
    b2ab:	89 75 f8             	mov    %esi,-0x8(%rbp)
    b2ae:	88 45 fc             	mov    %al,-0x4(%rbp)
    b2b1:	80 7d fc 00          	cmpb   $0x0,-0x4(%rbp)
    b2b5:	78 31                	js     b2e8 <safe_lshift_func_int8_t_s_s+0x47>
    b2b7:	83 7d f8 00          	cmpl   $0x0,-0x8(%rbp)
    b2bb:	78 2b                	js     b2e8 <safe_lshift_func_int8_t_s_s+0x47>
    b2bd:	83 7d f8 1f          	cmpl   $0x1f,-0x8(%rbp)
    b2c1:	7f 25                	jg     b2e8 <safe_lshift_func_int8_t_s_s+0x47>
    b2c3:	0f be 55 fc          	movsbl -0x4(%rbp),%edx
    b2c7:	8b 45 f8             	mov    -0x8(%rbp),%eax
    b2ca:	be 7f 00 00 00       	mov    $0x7f,%esi
    b2cf:	89 c1                	mov    %eax,%ecx
    b2d1:	d3 fe                	sar    %cl,%esi
    b2d3:	89 f0                	mov    %esi,%eax
    b2d5:	39 c2                	cmp    %eax,%edx
    b2d7:	7f 0f                	jg     b2e8 <safe_lshift_func_int8_t_s_s+0x47>
    b2d9:	0f be 55 fc          	movsbl -0x4(%rbp),%edx
    b2dd:	8b 45 f8             	mov    -0x8(%rbp),%eax
    b2e0:	89 c1                	mov    %eax,%ecx
    b2e2:	d3 e2                	shl    %cl,%edx
    b2e4:	89 d0                	mov    %edx,%eax
    b2e6:	eb 04                	jmp    b2ec <safe_lshift_func_int8_t_s_s+0x4b>
    b2e8:	0f b6 45 fc          	movzbl -0x4(%rbp),%eax
    b2ec:	5d                   	pop    %rbp
    b2ed:	c3                   	retq   

000000000000b2ee <safe_lshift_func_int8_t_s_u>:
    b2ee:	f3 0f 1e fa          	endbr64 
    b2f2:	55                   	push   %rbp
    b2f3:	48 89 e5             	mov    %rsp,%rbp
    b2f6:	89 f8                	mov    %edi,%eax
    b2f8:	89 75 f8             	mov    %esi,-0x8(%rbp)
    b2fb:	88 45 fc             	mov    %al,-0x4(%rbp)
    b2fe:	80 7d fc 00          	cmpb   $0x0,-0x4(%rbp)
    b302:	78 2b                	js     b32f <safe_lshift_func_int8_t_s_u+0x41>
    b304:	83 7d f8 1f          	cmpl   $0x1f,-0x8(%rbp)
    b308:	77 25                	ja     b32f <safe_lshift_func_int8_t_s_u+0x41>
    b30a:	0f be 55 fc          	movsbl -0x4(%rbp),%edx
    b30e:	8b 45 f8             	mov    -0x8(%rbp),%eax
    b311:	be 7f 00 00 00       	mov    $0x7f,%esi
    b316:	89 c1                	mov    %eax,%ecx
    b318:	d3 fe                	sar    %cl,%esi
    b31a:	89 f0                	mov    %esi,%eax
    b31c:	39 c2                	cmp    %eax,%edx
    b31e:	7f 0f                	jg     b32f <safe_lshift_func_int8_t_s_u+0x41>
    b320:	0f be 55 fc          	movsbl -0x4(%rbp),%edx
    b324:	8b 45 f8             	mov    -0x8(%rbp),%eax
    b327:	89 c1                	mov    %eax,%ecx
    b329:	d3 e2                	shl    %cl,%edx
    b32b:	89 d0                	mov    %edx,%eax
    b32d:	eb 04                	jmp    b333 <safe_lshift_func_int8_t_s_u+0x45>
    b32f:	0f b6 45 fc          	movzbl -0x4(%rbp),%eax
    b333:	5d                   	pop    %rbp
    b334:	c3                   	retq   

000000000000b335 <safe_rshift_func_int8_t_s_s>:
    b335:	f3 0f 1e fa          	endbr64 
    b339:	55                   	push   %rbp
    b33a:	48 89 e5             	mov    %rsp,%rbp
    b33d:	89 f8                	mov    %edi,%eax
    b33f:	89 75 f8             	mov    %esi,-0x8(%rbp)
    b342:	88 45 fc             	mov    %al,-0x4(%rbp)
    b345:	80 7d fc 00          	cmpb   $0x0,-0x4(%rbp)
    b349:	78 1b                	js     b366 <safe_rshift_func_int8_t_s_s+0x31>
    b34b:	83 7d f8 00          	cmpl   $0x0,-0x8(%rbp)
    b34f:	78 15                	js     b366 <safe_rshift_func_int8_t_s_s+0x31>
    b351:	83 7d f8 1f          	cmpl   $0x1f,-0x8(%rbp)
    b355:	7f 0f                	jg     b366 <safe_rshift_func_int8_t_s_s+0x31>
    b357:	0f be 55 fc          	movsbl -0x4(%rbp),%edx
    b35b:	8b 45 f8             	mov    -0x8(%rbp),%eax
    b35e:	89 c1                	mov    %eax,%ecx
    b360:	d3 fa                	sar    %cl,%edx
    b362:	89 d0                	mov    %edx,%eax
    b364:	eb 04                	jmp    b36a <safe_rshift_func_int8_t_s_s+0x35>
    b366:	0f b6 45 fc          	movzbl -0x4(%rbp),%eax
    b36a:	5d                   	pop    %rbp
    b36b:	c3                   	retq   

000000000000b36c <safe_rshift_func_int8_t_s_u>:
    b36c:	f3 0f 1e fa          	endbr64 
    b370:	55                   	push   %rbp
    b371:	48 89 e5             	mov    %rsp,%rbp
    b374:	89 f8                	mov    %edi,%eax
    b376:	89 75 f8             	mov    %esi,-0x8(%rbp)
    b379:	88 45 fc             	mov    %al,-0x4(%rbp)
    b37c:	80 7d fc 00          	cmpb   $0x0,-0x4(%rbp)
    b380:	78 15                	js     b397 <safe_rshift_func_int8_t_s_u+0x2b>
    b382:	83 7d f8 1f          	cmpl   $0x1f,-0x8(%rbp)
    b386:	77 0f                	ja     b397 <safe_rshift_func_int8_t_s_u+0x2b>
    b388:	0f be 55 fc          	movsbl -0x4(%rbp),%edx
    b38c:	8b 45 f8             	mov    -0x8(%rbp),%eax
    b38f:	89 c1                	mov    %eax,%ecx
    b391:	d3 fa                	sar    %cl,%edx
    b393:	89 d0                	mov    %edx,%eax
    b395:	eb 04                	jmp    b39b <safe_rshift_func_int8_t_s_u+0x2f>
    b397:	0f b6 45 fc          	movzbl -0x4(%rbp),%eax
    b39b:	5d                   	pop    %rbp
    b39c:	c3                   	retq   

000000000000b39d <safe_unary_minus_func_int16_t_s>:
    b39d:	f3 0f 1e fa          	endbr64 
    b3a1:	55                   	push   %rbp
    b3a2:	48 89 e5             	mov    %rsp,%rbp
    b3a5:	89 f8                	mov    %edi,%eax
    b3a7:	66 89 45 fc          	mov    %ax,-0x4(%rbp)
    b3ab:	0f b7 45 fc          	movzwl -0x4(%rbp),%eax
    b3af:	f7 d8                	neg    %eax
    b3b1:	5d                   	pop    %rbp
    b3b2:	c3                   	retq   

000000000000b3b3 <safe_add_func_int16_t_s_s>:
    b3b3:	f3 0f 1e fa          	endbr64 
    b3b7:	55                   	push   %rbp
    b3b8:	48 89 e5             	mov    %rsp,%rbp
    b3bb:	89 fa                	mov    %edi,%edx
    b3bd:	89 f0                	mov    %esi,%eax
    b3bf:	66 89 55 fc          	mov    %dx,-0x4(%rbp)
    b3c3:	66 89 45 f8          	mov    %ax,-0x8(%rbp)
    b3c7:	0f b7 55 fc          	movzwl -0x4(%rbp),%edx
    b3cb:	0f b7 45 f8          	movzwl -0x8(%rbp),%eax
    b3cf:	01 d0                	add    %edx,%eax
    b3d1:	5d                   	pop    %rbp
    b3d2:	c3                   	retq   

000000000000b3d3 <safe_sub_func_int16_t_s_s>:
    b3d3:	f3 0f 1e fa          	endbr64 
    b3d7:	55                   	push   %rbp
    b3d8:	48 89 e5             	mov    %rsp,%rbp
    b3db:	89 fa                	mov    %edi,%edx
    b3dd:	89 f0                	mov    %esi,%eax
    b3df:	66 89 55 fc          	mov    %dx,-0x4(%rbp)
    b3e3:	66 89 45 f8          	mov    %ax,-0x8(%rbp)
    b3e7:	0f b7 55 fc          	movzwl -0x4(%rbp),%edx
    b3eb:	0f b7 45 f8          	movzwl -0x8(%rbp),%eax
    b3ef:	29 c2                	sub    %eax,%edx
    b3f1:	89 d0                	mov    %edx,%eax
    b3f3:	5d                   	pop    %rbp
    b3f4:	c3                   	retq   

000000000000b3f5 <safe_mul_func_int16_t_s_s>:
    b3f5:	f3 0f 1e fa          	endbr64 
    b3f9:	55                   	push   %rbp
    b3fa:	48 89 e5             	mov    %rsp,%rbp
    b3fd:	89 fa                	mov    %edi,%edx
    b3ff:	89 f0                	mov    %esi,%eax
    b401:	66 89 55 fc          	mov    %dx,-0x4(%rbp)
    b405:	66 89 45 f8          	mov    %ax,-0x8(%rbp)
    b409:	0f b7 55 fc          	movzwl -0x4(%rbp),%edx
    b40d:	0f b7 45 f8          	movzwl -0x8(%rbp),%eax
    b411:	0f af c2             	imul   %edx,%eax
    b414:	5d                   	pop    %rbp
    b415:	c3                   	retq   

000000000000b416 <safe_mod_func_int16_t_s_s>:
    b416:	f3 0f 1e fa          	endbr64 
    b41a:	55                   	push   %rbp
    b41b:	48 89 e5             	mov    %rsp,%rbp
    b41e:	89 fa                	mov    %edi,%edx
    b420:	89 f0                	mov    %esi,%eax
    b422:	66 89 55 fc          	mov    %dx,-0x4(%rbp)
    b426:	66 89 45 f8          	mov    %ax,-0x8(%rbp)
    b42a:	66 83 7d f8 00       	cmpw   $0x0,-0x8(%rbp)
    b42f:	74 1e                	je     b44f <safe_mod_func_int16_t_s_s+0x39>
    b431:	66 81 7d fc 00 80    	cmpw   $0x8000,-0x4(%rbp)
    b437:	75 07                	jne    b440 <safe_mod_func_int16_t_s_s+0x2a>
    b439:	66 83 7d f8 ff       	cmpw   $0xffff,-0x8(%rbp)
    b43e:	74 0f                	je     b44f <safe_mod_func_int16_t_s_s+0x39>
    b440:	0f bf 45 fc          	movswl -0x4(%rbp),%eax
    b444:	0f bf 4d f8          	movswl -0x8(%rbp),%ecx
    b448:	99                   	cltd   
    b449:	f7 f9                	idiv   %ecx
    b44b:	89 d0                	mov    %edx,%eax
    b44d:	eb 04                	jmp    b453 <safe_mod_func_int16_t_s_s+0x3d>
    b44f:	0f b7 45 fc          	movzwl -0x4(%rbp),%eax
    b453:	5d                   	pop    %rbp
    b454:	c3                   	retq   

000000000000b455 <safe_div_func_int16_t_s_s>:
    b455:	f3 0f 1e fa          	endbr64 
    b459:	55                   	push   %rbp
    b45a:	48 89 e5             	mov    %rsp,%rbp
    b45d:	89 fa                	mov    %edi,%edx
    b45f:	89 f0                	mov    %esi,%eax
    b461:	66 89 55 fc          	mov    %dx,-0x4(%rbp)
    b465:	66 89 45 f8          	mov    %ax,-0x8(%rbp)
    b469:	66 83 7d f8 00       	cmpw   $0x0,-0x8(%rbp)
    b46e:	74 1c                	je     b48c <safe_div_func_int16_t_s_s+0x37>
    b470:	66 81 7d fc 00 80    	cmpw   $0x8000,-0x4(%rbp)
    b476:	75 07                	jne    b47f <safe_div_func_int16_t_s_s+0x2a>
    b478:	66 83 7d f8 ff       	cmpw   $0xffff,-0x8(%rbp)
    b47d:	74 0d                	je     b48c <safe_div_func_int16_t_s_s+0x37>
    b47f:	0f bf 45 fc          	movswl -0x4(%rbp),%eax
    b483:	0f bf 4d f8          	movswl -0x8(%rbp),%ecx
    b487:	99                   	cltd   
    b488:	f7 f9                	idiv   %ecx
    b48a:	eb 04                	jmp    b490 <safe_div_func_int16_t_s_s+0x3b>
    b48c:	0f b7 45 fc          	movzwl -0x4(%rbp),%eax
    b490:	5d                   	pop    %rbp
    b491:	c3                   	retq   

000000000000b492 <safe_lshift_func_int16_t_s_s>:
    b492:	f3 0f 1e fa          	endbr64 
    b496:	55                   	push   %rbp
    b497:	48 89 e5             	mov    %rsp,%rbp
    b49a:	89 f8                	mov    %edi,%eax
    b49c:	89 75 f8             	mov    %esi,-0x8(%rbp)
    b49f:	66 89 45 fc          	mov    %ax,-0x4(%rbp)
    b4a3:	66 83 7d fc 00       	cmpw   $0x0,-0x4(%rbp)
    b4a8:	78 31                	js     b4db <safe_lshift_func_int16_t_s_s+0x49>
    b4aa:	83 7d f8 00          	cmpl   $0x0,-0x8(%rbp)
    b4ae:	78 2b                	js     b4db <safe_lshift_func_int16_t_s_s+0x49>
    b4b0:	83 7d f8 1f          	cmpl   $0x1f,-0x8(%rbp)
    b4b4:	7f 25                	jg     b4db <safe_lshift_func_int16_t_s_s+0x49>
    b4b6:	0f bf 55 fc          	movswl -0x4(%rbp),%edx
    b4ba:	8b 45 f8             	mov    -0x8(%rbp),%eax
    b4bd:	be ff 7f 00 00       	mov    $0x7fff,%esi
    b4c2:	89 c1                	mov    %eax,%ecx
    b4c4:	d3 fe                	sar    %cl,%esi
    b4c6:	89 f0                	mov    %esi,%eax
    b4c8:	39 c2                	cmp    %eax,%edx
    b4ca:	7f 0f                	jg     b4db <safe_lshift_func_int16_t_s_s+0x49>
    b4cc:	0f bf 55 fc          	movswl -0x4(%rbp),%edx
    b4d0:	8b 45 f8             	mov    -0x8(%rbp),%eax
    b4d3:	89 c1                	mov    %eax,%ecx
    b4d5:	d3 e2                	shl    %cl,%edx
    b4d7:	89 d0                	mov    %edx,%eax
    b4d9:	eb 04                	jmp    b4df <safe_lshift_func_int16_t_s_s+0x4d>
    b4db:	0f b7 45 fc          	movzwl -0x4(%rbp),%eax
    b4df:	5d                   	pop    %rbp
    b4e0:	c3                   	retq   

000000000000b4e1 <safe_lshift_func_int16_t_s_u>:
    b4e1:	f3 0f 1e fa          	endbr64 
    b4e5:	55                   	push   %rbp
    b4e6:	48 89 e5             	mov    %rsp,%rbp
    b4e9:	89 f8                	mov    %edi,%eax
    b4eb:	89 75 f8             	mov    %esi,-0x8(%rbp)
    b4ee:	66 89 45 fc          	mov    %ax,-0x4(%rbp)
    b4f2:	66 83 7d fc 00       	cmpw   $0x0,-0x4(%rbp)
    b4f7:	78 2b                	js     b524 <safe_lshift_func_int16_t_s_u+0x43>
    b4f9:	83 7d f8 1f          	cmpl   $0x1f,-0x8(%rbp)
    b4fd:	77 25                	ja     b524 <safe_lshift_func_int16_t_s_u+0x43>
    b4ff:	0f bf 55 fc          	movswl -0x4(%rbp),%edx
    b503:	8b 45 f8             	mov    -0x8(%rbp),%eax
    b506:	be ff 7f 00 00       	mov    $0x7fff,%esi
    b50b:	89 c1                	mov    %eax,%ecx
    b50d:	d3 fe                	sar    %cl,%esi
    b50f:	89 f0                	mov    %esi,%eax
    b511:	39 c2                	cmp    %eax,%edx
    b513:	7f 0f                	jg     b524 <safe_lshift_func_int16_t_s_u+0x43>
    b515:	0f bf 55 fc          	movswl -0x4(%rbp),%edx
    b519:	8b 45 f8             	mov    -0x8(%rbp),%eax
    b51c:	89 c1                	mov    %eax,%ecx
    b51e:	d3 e2                	shl    %cl,%edx
    b520:	89 d0                	mov    %edx,%eax
    b522:	eb 04                	jmp    b528 <safe_lshift_func_int16_t_s_u+0x47>
    b524:	0f b7 45 fc          	movzwl -0x4(%rbp),%eax
    b528:	5d                   	pop    %rbp
    b529:	c3                   	retq   

000000000000b52a <safe_rshift_func_int16_t_s_s>:
    b52a:	f3 0f 1e fa          	endbr64 
    b52e:	55                   	push   %rbp
    b52f:	48 89 e5             	mov    %rsp,%rbp
    b532:	89 f8                	mov    %edi,%eax
    b534:	89 75 f8             	mov    %esi,-0x8(%rbp)
    b537:	66 89 45 fc          	mov    %ax,-0x4(%rbp)
    b53b:	66 83 7d fc 00       	cmpw   $0x0,-0x4(%rbp)
    b540:	78 1b                	js     b55d <safe_rshift_func_int16_t_s_s+0x33>
    b542:	83 7d f8 00          	cmpl   $0x0,-0x8(%rbp)
    b546:	78 15                	js     b55d <safe_rshift_func_int16_t_s_s+0x33>
    b548:	83 7d f8 1f          	cmpl   $0x1f,-0x8(%rbp)
    b54c:	7f 0f                	jg     b55d <safe_rshift_func_int16_t_s_s+0x33>
    b54e:	0f bf 55 fc          	movswl -0x4(%rbp),%edx
    b552:	8b 45 f8             	mov    -0x8(%rbp),%eax
    b555:	89 c1                	mov    %eax,%ecx
    b557:	d3 fa                	sar    %cl,%edx
    b559:	89 d0                	mov    %edx,%eax
    b55b:	eb 04                	jmp    b561 <safe_rshift_func_int16_t_s_s+0x37>
    b55d:	0f b7 45 fc          	movzwl -0x4(%rbp),%eax
    b561:	5d                   	pop    %rbp
    b562:	c3                   	retq   

000000000000b563 <safe_rshift_func_int16_t_s_u>:
    b563:	f3 0f 1e fa          	endbr64 
    b567:	55                   	push   %rbp
    b568:	48 89 e5             	mov    %rsp,%rbp
    b56b:	89 f8                	mov    %edi,%eax
    b56d:	89 75 f8             	mov    %esi,-0x8(%rbp)
    b570:	66 89 45 fc          	mov    %ax,-0x4(%rbp)
    b574:	66 83 7d fc 00       	cmpw   $0x0,-0x4(%rbp)
    b579:	78 15                	js     b590 <safe_rshift_func_int16_t_s_u+0x2d>
    b57b:	83 7d f8 1f          	cmpl   $0x1f,-0x8(%rbp)
    b57f:	77 0f                	ja     b590 <safe_rshift_func_int16_t_s_u+0x2d>
    b581:	0f bf 55 fc          	movswl -0x4(%rbp),%edx
    b585:	8b 45 f8             	mov    -0x8(%rbp),%eax
    b588:	89 c1                	mov    %eax,%ecx
    b58a:	d3 fa                	sar    %cl,%edx
    b58c:	89 d0                	mov    %edx,%eax
    b58e:	eb 04                	jmp    b594 <safe_rshift_func_int16_t_s_u+0x31>
    b590:	0f b7 45 fc          	movzwl -0x4(%rbp),%eax
    b594:	5d                   	pop    %rbp
    b595:	c3                   	retq   

000000000000b596 <safe_unary_minus_func_int32_t_s>:
    b596:	f3 0f 1e fa          	endbr64 
    b59a:	55                   	push   %rbp
    b59b:	48 89 e5             	mov    %rsp,%rbp
    b59e:	89 7d fc             	mov    %edi,-0x4(%rbp)
    b5a1:	81 7d fc 00 00 00 80 	cmpl   $0x80000000,-0x4(%rbp)
    b5a8:	74 07                	je     b5b1 <safe_unary_minus_func_int32_t_s+0x1b>
    b5aa:	8b 45 fc             	mov    -0x4(%rbp),%eax
    b5ad:	f7 d8                	neg    %eax
    b5af:	eb 03                	jmp    b5b4 <safe_unary_minus_func_int32_t_s+0x1e>
    b5b1:	8b 45 fc             	mov    -0x4(%rbp),%eax
    b5b4:	5d                   	pop    %rbp
    b5b5:	c3                   	retq   

000000000000b5b6 <safe_add_func_int32_t_s_s>:
    b5b6:	f3 0f 1e fa          	endbr64 
    b5ba:	55                   	push   %rbp
    b5bb:	48 89 e5             	mov    %rsp,%rbp
    b5be:	89 7d fc             	mov    %edi,-0x4(%rbp)
    b5c1:	89 75 f8             	mov    %esi,-0x8(%rbp)
    b5c4:	83 7d fc 00          	cmpl   $0x0,-0x4(%rbp)
    b5c8:	7e 13                	jle    b5dd <safe_add_func_int32_t_s_s+0x27>
    b5ca:	83 7d f8 00          	cmpl   $0x0,-0x8(%rbp)
    b5ce:	7e 0d                	jle    b5dd <safe_add_func_int32_t_s_s+0x27>
    b5d0:	b8 ff ff ff 7f       	mov    $0x7fffffff,%eax
    b5d5:	2b 45 f8             	sub    -0x8(%rbp),%eax
    b5d8:	39 45 fc             	cmp    %eax,-0x4(%rbp)
    b5db:	7f 23                	jg     b600 <safe_add_func_int32_t_s_s+0x4a>
    b5dd:	83 7d fc 00          	cmpl   $0x0,-0x4(%rbp)
    b5e1:	79 13                	jns    b5f6 <safe_add_func_int32_t_s_s+0x40>
    b5e3:	83 7d f8 00          	cmpl   $0x0,-0x8(%rbp)
    b5e7:	79 0d                	jns    b5f6 <safe_add_func_int32_t_s_s+0x40>
    b5e9:	b8 00 00 00 80       	mov    $0x80000000,%eax
    b5ee:	2b 45 f8             	sub    -0x8(%rbp),%eax
    b5f1:	39 45 fc             	cmp    %eax,-0x4(%rbp)
    b5f4:	7c 0a                	jl     b600 <safe_add_func_int32_t_s_s+0x4a>
    b5f6:	8b 55 fc             	mov    -0x4(%rbp),%edx
    b5f9:	8b 45 f8             	mov    -0x8(%rbp),%eax
    b5fc:	01 d0                	add    %edx,%eax
    b5fe:	eb 03                	jmp    b603 <safe_add_func_int32_t_s_s+0x4d>
    b600:	8b 45 fc             	mov    -0x4(%rbp),%eax
    b603:	5d                   	pop    %rbp
    b604:	c3                   	retq   

000000000000b605 <safe_sub_func_int32_t_s_s>:
    b605:	f3 0f 1e fa          	endbr64 
    b609:	55                   	push   %rbp
    b60a:	48 89 e5             	mov    %rsp,%rbp
    b60d:	89 7d fc             	mov    %edi,-0x4(%rbp)
    b610:	89 75 f8             	mov    %esi,-0x8(%rbp)
    b613:	8b 45 fc             	mov    -0x4(%rbp),%eax
    b616:	33 45 f8             	xor    -0x8(%rbp),%eax
    b619:	89 c2                	mov    %eax,%edx
    b61b:	8b 45 fc             	mov    -0x4(%rbp),%eax
    b61e:	33 45 f8             	xor    -0x8(%rbp),%eax
    b621:	25 00 00 00 80       	and    $0x80000000,%eax
    b626:	33 45 fc             	xor    -0x4(%rbp),%eax
    b629:	2b 45 f8             	sub    -0x8(%rbp),%eax
    b62c:	33 45 f8             	xor    -0x8(%rbp),%eax
    b62f:	21 d0                	and    %edx,%eax
    b631:	85 c0                	test   %eax,%eax
    b633:	78 08                	js     b63d <safe_sub_func_int32_t_s_s+0x38>
    b635:	8b 45 fc             	mov    -0x4(%rbp),%eax
    b638:	2b 45 f8             	sub    -0x8(%rbp),%eax
    b63b:	eb 03                	jmp    b640 <safe_sub_func_int32_t_s_s+0x3b>
    b63d:	8b 45 fc             	mov    -0x4(%rbp),%eax
    b640:	5d                   	pop    %rbp
    b641:	c3                   	retq   

000000000000b642 <safe_mul_func_int32_t_s_s>:
    b642:	f3 0f 1e fa          	endbr64 
    b646:	55                   	push   %rbp
    b647:	48 89 e5             	mov    %rsp,%rbp
    b64a:	89 7d fc             	mov    %edi,-0x4(%rbp)
    b64d:	89 75 f8             	mov    %esi,-0x8(%rbp)
    b650:	83 7d fc 00          	cmpl   $0x0,-0x4(%rbp)
    b654:	7e 14                	jle    b66a <safe_mul_func_int32_t_s_s+0x28>
    b656:	83 7d f8 00          	cmpl   $0x0,-0x8(%rbp)
    b65a:	7e 0e                	jle    b66a <safe_mul_func_int32_t_s_s+0x28>
    b65c:	b8 ff ff ff 7f       	mov    $0x7fffffff,%eax
    b661:	99                   	cltd   
    b662:	f7 7d f8             	idivl  -0x8(%rbp)
    b665:	39 45 fc             	cmp    %eax,-0x4(%rbp)
    b668:	7f 5d                	jg     b6c7 <safe_mul_func_int32_t_s_s+0x85>
    b66a:	83 7d fc 00          	cmpl   $0x0,-0x4(%rbp)
    b66e:	7e 14                	jle    b684 <safe_mul_func_int32_t_s_s+0x42>
    b670:	83 7d f8 00          	cmpl   $0x0,-0x8(%rbp)
    b674:	7f 0e                	jg     b684 <safe_mul_func_int32_t_s_s+0x42>
    b676:	b8 00 00 00 80       	mov    $0x80000000,%eax
    b67b:	99                   	cltd   
    b67c:	f7 7d fc             	idivl  -0x4(%rbp)
    b67f:	39 45 f8             	cmp    %eax,-0x8(%rbp)
    b682:	7c 43                	jl     b6c7 <safe_mul_func_int32_t_s_s+0x85>
    b684:	83 7d fc 00          	cmpl   $0x0,-0x4(%rbp)
    b688:	7f 14                	jg     b69e <safe_mul_func_int32_t_s_s+0x5c>
    b68a:	83 7d f8 00          	cmpl   $0x0,-0x8(%rbp)
    b68e:	7e 0e                	jle    b69e <safe_mul_func_int32_t_s_s+0x5c>
    b690:	b8 00 00 00 80       	mov    $0x80000000,%eax
    b695:	99                   	cltd   
    b696:	f7 7d f8             	idivl  -0x8(%rbp)
    b699:	39 45 fc             	cmp    %eax,-0x4(%rbp)
    b69c:	7c 29                	jl     b6c7 <safe_mul_func_int32_t_s_s+0x85>
    b69e:	83 7d fc 00          	cmpl   $0x0,-0x4(%rbp)
    b6a2:	7f 1a                	jg     b6be <safe_mul_func_int32_t_s_s+0x7c>
    b6a4:	83 7d f8 00          	cmpl   $0x0,-0x8(%rbp)
    b6a8:	7f 14                	jg     b6be <safe_mul_func_int32_t_s_s+0x7c>
    b6aa:	83 7d fc 00          	cmpl   $0x0,-0x4(%rbp)
    b6ae:	74 0e                	je     b6be <safe_mul_func_int32_t_s_s+0x7c>
    b6b0:	b8 ff ff ff 7f       	mov    $0x7fffffff,%eax
    b6b5:	99                   	cltd   
    b6b6:	f7 7d fc             	idivl  -0x4(%rbp)
    b6b9:	39 45 f8             	cmp    %eax,-0x8(%rbp)
    b6bc:	7c 09                	jl     b6c7 <safe_mul_func_int32_t_s_s+0x85>
    b6be:	8b 45 fc             	mov    -0x4(%rbp),%eax
    b6c1:	0f af 45 f8          	imul   -0x8(%rbp),%eax
    b6c5:	eb 03                	jmp    b6ca <safe_mul_func_int32_t_s_s+0x88>
    b6c7:	8b 45 fc             	mov    -0x4(%rbp),%eax
    b6ca:	5d                   	pop    %rbp
    b6cb:	c3                   	retq   

000000000000b6cc <safe_mod_func_int32_t_s_s>:
    b6cc:	f3 0f 1e fa          	endbr64 
    b6d0:	55                   	push   %rbp
    b6d1:	48 89 e5             	mov    %rsp,%rbp
    b6d4:	89 7d fc             	mov    %edi,-0x4(%rbp)
    b6d7:	89 75 f8             	mov    %esi,-0x8(%rbp)
    b6da:	83 7d f8 00          	cmpl   $0x0,-0x8(%rbp)
    b6de:	74 1a                	je     b6fa <safe_mod_func_int32_t_s_s+0x2e>
    b6e0:	81 7d fc 00 00 00 80 	cmpl   $0x80000000,-0x4(%rbp)
    b6e7:	75 06                	jne    b6ef <safe_mod_func_int32_t_s_s+0x23>
    b6e9:	83 7d f8 ff          	cmpl   $0xffffffff,-0x8(%rbp)
    b6ed:	74 0b                	je     b6fa <safe_mod_func_int32_t_s_s+0x2e>
    b6ef:	8b 45 fc             	mov    -0x4(%rbp),%eax
    b6f2:	99                   	cltd   
    b6f3:	f7 7d f8             	idivl  -0x8(%rbp)
    b6f6:	89 d0                	mov    %edx,%eax
    b6f8:	eb 03                	jmp    b6fd <safe_mod_func_int32_t_s_s+0x31>
    b6fa:	8b 45 fc             	mov    -0x4(%rbp),%eax
    b6fd:	5d                   	pop    %rbp
    b6fe:	c3                   	retq   

000000000000b6ff <safe_div_func_int32_t_s_s>:
    b6ff:	f3 0f 1e fa          	endbr64 
    b703:	55                   	push   %rbp
    b704:	48 89 e5             	mov    %rsp,%rbp
    b707:	89 7d fc             	mov    %edi,-0x4(%rbp)
    b70a:	89 75 f8             	mov    %esi,-0x8(%rbp)
    b70d:	83 7d f8 00          	cmpl   $0x0,-0x8(%rbp)
    b711:	74 18                	je     b72b <safe_div_func_int32_t_s_s+0x2c>
    b713:	81 7d fc 00 00 00 80 	cmpl   $0x80000000,-0x4(%rbp)
    b71a:	75 06                	jne    b722 <safe_div_func_int32_t_s_s+0x23>
    b71c:	83 7d f8 ff          	cmpl   $0xffffffff,-0x8(%rbp)
    b720:	74 09                	je     b72b <safe_div_func_int32_t_s_s+0x2c>
    b722:	8b 45 fc             	mov    -0x4(%rbp),%eax
    b725:	99                   	cltd   
    b726:	f7 7d f8             	idivl  -0x8(%rbp)
    b729:	eb 03                	jmp    b72e <safe_div_func_int32_t_s_s+0x2f>
    b72b:	8b 45 fc             	mov    -0x4(%rbp),%eax
    b72e:	5d                   	pop    %rbp
    b72f:	c3                   	retq   

000000000000b730 <safe_lshift_func_int32_t_s_s>:
    b730:	f3 0f 1e fa          	endbr64 
    b734:	55                   	push   %rbp
    b735:	48 89 e5             	mov    %rsp,%rbp
    b738:	89 7d fc             	mov    %edi,-0x4(%rbp)
    b73b:	89 75 f8             	mov    %esi,-0x8(%rbp)
    b73e:	83 7d fc 00          	cmpl   $0x0,-0x4(%rbp)
    b742:	78 2d                	js     b771 <safe_lshift_func_int32_t_s_s+0x41>
    b744:	83 7d f8 00          	cmpl   $0x0,-0x8(%rbp)
    b748:	78 27                	js     b771 <safe_lshift_func_int32_t_s_s+0x41>
    b74a:	83 7d f8 1f          	cmpl   $0x1f,-0x8(%rbp)
    b74e:	7f 21                	jg     b771 <safe_lshift_func_int32_t_s_s+0x41>
    b750:	8b 45 f8             	mov    -0x8(%rbp),%eax
    b753:	ba ff ff ff 7f       	mov    $0x7fffffff,%edx
    b758:	89 c1                	mov    %eax,%ecx
    b75a:	d3 fa                	sar    %cl,%edx
    b75c:	89 d0                	mov    %edx,%eax
    b75e:	39 45 fc             	cmp    %eax,-0x4(%rbp)
    b761:	7f 0e                	jg     b771 <safe_lshift_func_int32_t_s_s+0x41>
    b763:	8b 45 f8             	mov    -0x8(%rbp),%eax
    b766:	8b 55 fc             	mov    -0x4(%rbp),%edx
    b769:	89 c1                	mov    %eax,%ecx
    b76b:	d3 e2                	shl    %cl,%edx
    b76d:	89 d0                	mov    %edx,%eax
    b76f:	eb 03                	jmp    b774 <safe_lshift_func_int32_t_s_s+0x44>
    b771:	8b 45 fc             	mov    -0x4(%rbp),%eax
    b774:	5d                   	pop    %rbp
    b775:	c3                   	retq   

000000000000b776 <safe_lshift_func_int32_t_s_u>:
    b776:	f3 0f 1e fa          	endbr64 
    b77a:	55                   	push   %rbp
    b77b:	48 89 e5             	mov    %rsp,%rbp
    b77e:	89 7d fc             	mov    %edi,-0x4(%rbp)
    b781:	89 75 f8             	mov    %esi,-0x8(%rbp)
    b784:	83 7d fc 00          	cmpl   $0x0,-0x4(%rbp)
    b788:	78 27                	js     b7b1 <safe_lshift_func_int32_t_s_u+0x3b>
    b78a:	83 7d f8 1f          	cmpl   $0x1f,-0x8(%rbp)
    b78e:	77 21                	ja     b7b1 <safe_lshift_func_int32_t_s_u+0x3b>
    b790:	8b 45 f8             	mov    -0x8(%rbp),%eax
    b793:	ba ff ff ff 7f       	mov    $0x7fffffff,%edx
    b798:	89 c1                	mov    %eax,%ecx
    b79a:	d3 fa                	sar    %cl,%edx
    b79c:	89 d0                	mov    %edx,%eax
    b79e:	39 45 fc             	cmp    %eax,-0x4(%rbp)
    b7a1:	7f 0e                	jg     b7b1 <safe_lshift_func_int32_t_s_u+0x3b>
    b7a3:	8b 45 f8             	mov    -0x8(%rbp),%eax
    b7a6:	8b 55 fc             	mov    -0x4(%rbp),%edx
    b7a9:	89 c1                	mov    %eax,%ecx
    b7ab:	d3 e2                	shl    %cl,%edx
    b7ad:	89 d0                	mov    %edx,%eax
    b7af:	eb 03                	jmp    b7b4 <safe_lshift_func_int32_t_s_u+0x3e>
    b7b1:	8b 45 fc             	mov    -0x4(%rbp),%eax
    b7b4:	5d                   	pop    %rbp
    b7b5:	c3                   	retq   

000000000000b7b6 <safe_rshift_func_int32_t_s_s>:
    b7b6:	f3 0f 1e fa          	endbr64 
    b7ba:	55                   	push   %rbp
    b7bb:	48 89 e5             	mov    %rsp,%rbp
    b7be:	89 7d fc             	mov    %edi,-0x4(%rbp)
    b7c1:	89 75 f8             	mov    %esi,-0x8(%rbp)
    b7c4:	83 7d fc 00          	cmpl   $0x0,-0x4(%rbp)
    b7c8:	78 1a                	js     b7e4 <safe_rshift_func_int32_t_s_s+0x2e>
    b7ca:	83 7d f8 00          	cmpl   $0x0,-0x8(%rbp)
    b7ce:	78 14                	js     b7e4 <safe_rshift_func_int32_t_s_s+0x2e>
    b7d0:	83 7d f8 1f          	cmpl   $0x1f,-0x8(%rbp)
    b7d4:	7f 0e                	jg     b7e4 <safe_rshift_func_int32_t_s_s+0x2e>
    b7d6:	8b 45 f8             	mov    -0x8(%rbp),%eax
    b7d9:	8b 55 fc             	mov    -0x4(%rbp),%edx
    b7dc:	89 c1                	mov    %eax,%ecx
    b7de:	d3 fa                	sar    %cl,%edx
    b7e0:	89 d0                	mov    %edx,%eax
    b7e2:	eb 03                	jmp    b7e7 <safe_rshift_func_int32_t_s_s+0x31>
    b7e4:	8b 45 fc             	mov    -0x4(%rbp),%eax
    b7e7:	5d                   	pop    %rbp
    b7e8:	c3                   	retq   

000000000000b7e9 <safe_rshift_func_int32_t_s_u>:
    b7e9:	f3 0f 1e fa          	endbr64 
    b7ed:	55                   	push   %rbp
    b7ee:	48 89 e5             	mov    %rsp,%rbp
    b7f1:	89 7d fc             	mov    %edi,-0x4(%rbp)
    b7f4:	89 75 f8             	mov    %esi,-0x8(%rbp)
    b7f7:	83 7d fc 00          	cmpl   $0x0,-0x4(%rbp)
    b7fb:	78 14                	js     b811 <safe_rshift_func_int32_t_s_u+0x28>
    b7fd:	83 7d f8 1f          	cmpl   $0x1f,-0x8(%rbp)
    b801:	77 0e                	ja     b811 <safe_rshift_func_int32_t_s_u+0x28>
    b803:	8b 45 f8             	mov    -0x8(%rbp),%eax
    b806:	8b 55 fc             	mov    -0x4(%rbp),%edx
    b809:	89 c1                	mov    %eax,%ecx
    b80b:	d3 fa                	sar    %cl,%edx
    b80d:	89 d0                	mov    %edx,%eax
    b80f:	eb 03                	jmp    b814 <safe_rshift_func_int32_t_s_u+0x2b>
    b811:	8b 45 fc             	mov    -0x4(%rbp),%eax
    b814:	5d                   	pop    %rbp
    b815:	c3                   	retq   

000000000000b816 <safe_unary_minus_func_int64_t_s>:
    b816:	f3 0f 1e fa          	endbr64 
    b81a:	55                   	push   %rbp
    b81b:	48 89 e5             	mov    %rsp,%rbp
    b81e:	48 89 7d f8          	mov    %rdi,-0x8(%rbp)
    b822:	48 b8 00 00 00 00 00 	movabs $0x8000000000000000,%rax
    b829:	00 00 80 
    b82c:	48 39 45 f8          	cmp    %rax,-0x8(%rbp)
    b830:	74 09                	je     b83b <safe_unary_minus_func_int64_t_s+0x25>
    b832:	48 8b 45 f8          	mov    -0x8(%rbp),%rax
    b836:	48 f7 d8             	neg    %rax
    b839:	eb 04                	jmp    b83f <safe_unary_minus_func_int64_t_s+0x29>
    b83b:	48 8b 45 f8          	mov    -0x8(%rbp),%rax
    b83f:	5d                   	pop    %rbp
    b840:	c3                   	retq   

000000000000b841 <safe_add_func_int64_t_s_s>:
    b841:	f3 0f 1e fa          	endbr64 
    b845:	55                   	push   %rbp
    b846:	48 89 e5             	mov    %rsp,%rbp
    b849:	48 89 7d f8          	mov    %rdi,-0x8(%rbp)
    b84d:	48 89 75 f0          	mov    %rsi,-0x10(%rbp)
    b851:	48 83 7d f8 00       	cmpq   $0x0,-0x8(%rbp)
    b856:	7e 1b                	jle    b873 <safe_add_func_int64_t_s_s+0x32>
    b858:	48 83 7d f0 00       	cmpq   $0x0,-0x10(%rbp)
    b85d:	7e 14                	jle    b873 <safe_add_func_int64_t_s_s+0x32>
    b85f:	48 b8 ff ff ff ff ff 	movabs $0x7fffffffffffffff,%rax
    b866:	ff ff 7f 
    b869:	48 2b 45 f0          	sub    -0x10(%rbp),%rax
    b86d:	48 39 45 f8          	cmp    %rax,-0x8(%rbp)
    b871:	7f 2f                	jg     b8a2 <safe_add_func_int64_t_s_s+0x61>
    b873:	48 83 7d f8 00       	cmpq   $0x0,-0x8(%rbp)
    b878:	79 1b                	jns    b895 <safe_add_func_int64_t_s_s+0x54>
    b87a:	48 83 7d f0 00       	cmpq   $0x0,-0x10(%rbp)
    b87f:	79 14                	jns    b895 <safe_add_func_int64_t_s_s+0x54>
    b881:	48 b8 00 00 00 00 00 	movabs $0x8000000000000000,%rax
    b888:	00 00 80 
    b88b:	48 2b 45 f0          	sub    -0x10(%rbp),%rax
    b88f:	48 39 45 f8          	cmp    %rax,-0x8(%rbp)
    b893:	7c 0d                	jl     b8a2 <safe_add_func_int64_t_s_s+0x61>
    b895:	48 8b 55 f8          	mov    -0x8(%rbp),%rdx
    b899:	48 8b 45 f0          	mov    -0x10(%rbp),%rax
    b89d:	48 01 d0             	add    %rdx,%rax
    b8a0:	eb 04                	jmp    b8a6 <safe_add_func_int64_t_s_s+0x65>
    b8a2:	48 8b 45 f8          	mov    -0x8(%rbp),%rax
    b8a6:	5d                   	pop    %rbp
    b8a7:	c3                   	retq   

000000000000b8a8 <safe_sub_func_int64_t_s_s>:
    b8a8:	f3 0f 1e fa          	endbr64 
    b8ac:	55                   	push   %rbp
    b8ad:	48 89 e5             	mov    %rsp,%rbp
    b8b0:	48 89 7d f8          	mov    %rdi,-0x8(%rbp)
    b8b4:	48 89 75 f0          	mov    %rsi,-0x10(%rbp)
    b8b8:	48 8b 45 f8          	mov    -0x8(%rbp),%rax
    b8bc:	48 33 45 f0          	xor    -0x10(%rbp),%rax
    b8c0:	48 89 c2             	mov    %rax,%rdx
    b8c3:	48 8b 45 f8          	mov    -0x8(%rbp),%rax
    b8c7:	48 33 45 f0          	xor    -0x10(%rbp),%rax
    b8cb:	48 b9 00 00 00 00 00 	movabs $0x8000000000000000,%rcx
    b8d2:	00 00 80 
    b8d5:	48 21 c8             	and    %rcx,%rax
    b8d8:	48 33 45 f8          	xor    -0x8(%rbp),%rax
    b8dc:	48 2b 45 f0          	sub    -0x10(%rbp),%rax
    b8e0:	48 33 45 f0          	xor    -0x10(%rbp),%rax
    b8e4:	48 21 d0             	and    %rdx,%rax
    b8e7:	48 85 c0             	test   %rax,%rax
    b8ea:	78 0a                	js     b8f6 <safe_sub_func_int64_t_s_s+0x4e>
    b8ec:	48 8b 45 f8          	mov    -0x8(%rbp),%rax
    b8f0:	48 2b 45 f0          	sub    -0x10(%rbp),%rax
    b8f4:	eb 04                	jmp    b8fa <safe_sub_func_int64_t_s_s+0x52>
    b8f6:	48 8b 45 f8          	mov    -0x8(%rbp),%rax
    b8fa:	5d                   	pop    %rbp
    b8fb:	c3                   	retq   

000000000000b8fc <safe_mul_func_int64_t_s_s>:
    b8fc:	f3 0f 1e fa          	endbr64 
    b900:	55                   	push   %rbp
    b901:	48 89 e5             	mov    %rsp,%rbp
    b904:	48 89 7d f8          	mov    %rdi,-0x8(%rbp)
    b908:	48 89 75 f0          	mov    %rsi,-0x10(%rbp)
    b90c:	48 83 7d f8 00       	cmpq   $0x0,-0x8(%rbp)
    b911:	7e 1d                	jle    b930 <safe_mul_func_int64_t_s_s+0x34>
    b913:	48 83 7d f0 00       	cmpq   $0x0,-0x10(%rbp)
    b918:	7e 16                	jle    b930 <safe_mul_func_int64_t_s_s+0x34>
    b91a:	48 b8 ff ff ff ff ff 	movabs $0x7fffffffffffffff,%rax
    b921:	ff ff 7f 
    b924:	48 99                	cqto   
    b926:	48 f7 7d f0          	idivq  -0x10(%rbp)
    b92a:	48 39 45 f8          	cmp    %rax,-0x8(%rbp)
    b92e:	7f 7e                	jg     b9ae <safe_mul_func_int64_t_s_s+0xb2>
    b930:	48 83 7d f8 00       	cmpq   $0x0,-0x8(%rbp)
    b935:	7e 1d                	jle    b954 <safe_mul_func_int64_t_s_s+0x58>
    b937:	48 83 7d f0 00       	cmpq   $0x0,-0x10(%rbp)
    b93c:	7f 16                	jg     b954 <safe_mul_func_int64_t_s_s+0x58>
    b93e:	48 b8 00 00 00 00 00 	movabs $0x8000000000000000,%rax
    b945:	00 00 80 
    b948:	48 99                	cqto   
    b94a:	48 f7 7d f8          	idivq  -0x8(%rbp)
    b94e:	48 39 45 f0          	cmp    %rax,-0x10(%rbp)
    b952:	7c 5a                	jl     b9ae <safe_mul_func_int64_t_s_s+0xb2>
    b954:	48 83 7d f8 00       	cmpq   $0x0,-0x8(%rbp)
    b959:	7f 1d                	jg     b978 <safe_mul_func_int64_t_s_s+0x7c>
    b95b:	48 83 7d f0 00       	cmpq   $0x0,-0x10(%rbp)
    b960:	7e 16                	jle    b978 <safe_mul_func_int64_t_s_s+0x7c>
    b962:	48 b8 00 00 00 00 00 	movabs $0x8000000000000000,%rax
    b969:	00 00 80 
    b96c:	48 99                	cqto   
    b96e:	48 f7 7d f0          	idivq  -0x10(%rbp)
    b972:	48 39 45 f8          	cmp    %rax,-0x8(%rbp)
    b976:	7c 36                	jl     b9ae <safe_mul_func_int64_t_s_s+0xb2>
    b978:	48 83 7d f8 00       	cmpq   $0x0,-0x8(%rbp)
    b97d:	7f 24                	jg     b9a3 <safe_mul_func_int64_t_s_s+0xa7>
    b97f:	48 83 7d f0 00       	cmpq   $0x0,-0x10(%rbp)
    b984:	7f 1d                	jg     b9a3 <safe_mul_func_int64_t_s_s+0xa7>
    b986:	48 83 7d f8 00       	cmpq   $0x0,-0x8(%rbp)
    b98b:	74 16                	je     b9a3 <safe_mul_func_int64_t_s_s+0xa7>
    b98d:	48 b8 ff ff ff ff ff 	movabs $0x7fffffffffffffff,%rax
    b994:	ff ff 7f 
    b997:	48 99                	cqto   
    b999:	48 f7 7d f8          	idivq  -0x8(%rbp)
    b99d:	48 39 45 f0          	cmp    %rax,-0x10(%rbp)
    b9a1:	7c 0b                	jl     b9ae <safe_mul_func_int64_t_s_s+0xb2>
    b9a3:	48 8b 45 f8          	mov    -0x8(%rbp),%rax
    b9a7:	48 0f af 45 f0       	imul   -0x10(%rbp),%rax
    b9ac:	eb 04                	jmp    b9b2 <safe_mul_func_int64_t_s_s+0xb6>
    b9ae:	48 8b 45 f8          	mov    -0x8(%rbp),%rax
    b9b2:	5d                   	pop    %rbp
    b9b3:	c3                   	retq   

000000000000b9b4 <safe_mod_func_int64_t_s_s>:
    b9b4:	f3 0f 1e fa          	endbr64 
    b9b8:	55                   	push   %rbp
    b9b9:	48 89 e5             	mov    %rsp,%rbp
    b9bc:	48 89 7d f8          	mov    %rdi,-0x8(%rbp)
    b9c0:	48 89 75 f0          	mov    %rsi,-0x10(%rbp)
    b9c4:	48 83 7d f0 00       	cmpq   $0x0,-0x10(%rbp)
    b9c9:	74 26                	je     b9f1 <safe_mod_func_int64_t_s_s+0x3d>
    b9cb:	48 b8 00 00 00 00 00 	movabs $0x8000000000000000,%rax
    b9d2:	00 00 80 
    b9d5:	48 39 45 f8          	cmp    %rax,-0x8(%rbp)
    b9d9:	75 07                	jne    b9e2 <safe_mod_func_int64_t_s_s+0x2e>
    b9db:	48 83 7d f0 ff       	cmpq   $0xffffffffffffffff,-0x10(%rbp)
    b9e0:	74 0f                	je     b9f1 <safe_mod_func_int64_t_s_s+0x3d>
    b9e2:	48 8b 45 f8          	mov    -0x8(%rbp),%rax
    b9e6:	48 99                	cqto   
    b9e8:	48 f7 7d f0          	idivq  -0x10(%rbp)
    b9ec:	48 89 d0             	mov    %rdx,%rax
    b9ef:	eb 04                	jmp    b9f5 <safe_mod_func_int64_t_s_s+0x41>
    b9f1:	48 8b 45 f8          	mov    -0x8(%rbp),%rax
    b9f5:	5d                   	pop    %rbp
    b9f6:	c3                   	retq   

000000000000b9f7 <safe_div_func_int64_t_s_s>:
    b9f7:	f3 0f 1e fa          	endbr64 
    b9fb:	55                   	push   %rbp
    b9fc:	48 89 e5             	mov    %rsp,%rbp
    b9ff:	48 89 7d f8          	mov    %rdi,-0x8(%rbp)
    ba03:	48 89 75 f0          	mov    %rsi,-0x10(%rbp)
    ba07:	48 83 7d f0 00       	cmpq   $0x0,-0x10(%rbp)
    ba0c:	74 23                	je     ba31 <safe_div_func_int64_t_s_s+0x3a>
    ba0e:	48 b8 00 00 00 00 00 	movabs $0x8000000000000000,%rax
    ba15:	00 00 80 
    ba18:	48 39 45 f8          	cmp    %rax,-0x8(%rbp)
    ba1c:	75 07                	jne    ba25 <safe_div_func_int64_t_s_s+0x2e>
    ba1e:	48 83 7d f0 ff       	cmpq   $0xffffffffffffffff,-0x10(%rbp)
    ba23:	74 0c                	je     ba31 <safe_div_func_int64_t_s_s+0x3a>
    ba25:	48 8b 45 f8          	mov    -0x8(%rbp),%rax
    ba29:	48 99                	cqto   
    ba2b:	48 f7 7d f0          	idivq  -0x10(%rbp)
    ba2f:	eb 04                	jmp    ba35 <safe_div_func_int64_t_s_s+0x3e>
    ba31:	48 8b 45 f8          	mov    -0x8(%rbp),%rax
    ba35:	5d                   	pop    %rbp
    ba36:	c3                   	retq   

000000000000ba37 <safe_lshift_func_int64_t_s_s>:
    ba37:	f3 0f 1e fa          	endbr64 
    ba3b:	55                   	push   %rbp
    ba3c:	48 89 e5             	mov    %rsp,%rbp
    ba3f:	48 89 7d f8          	mov    %rdi,-0x8(%rbp)
    ba43:	89 75 f4             	mov    %esi,-0xc(%rbp)
    ba46:	48 83 7d f8 00       	cmpq   $0x0,-0x8(%rbp)
    ba4b:	78 38                	js     ba85 <safe_lshift_func_int64_t_s_s+0x4e>
    ba4d:	83 7d f4 00          	cmpl   $0x0,-0xc(%rbp)
    ba51:	78 32                	js     ba85 <safe_lshift_func_int64_t_s_s+0x4e>
    ba53:	83 7d f4 1f          	cmpl   $0x1f,-0xc(%rbp)
    ba57:	7f 2c                	jg     ba85 <safe_lshift_func_int64_t_s_s+0x4e>
    ba59:	8b 45 f4             	mov    -0xc(%rbp),%eax
    ba5c:	48 ba ff ff ff ff ff 	movabs $0x7fffffffffffffff,%rdx
    ba63:	ff ff 7f 
    ba66:	89 c1                	mov    %eax,%ecx
    ba68:	48 d3 fa             	sar    %cl,%rdx
    ba6b:	48 89 d0             	mov    %rdx,%rax
    ba6e:	48 39 45 f8          	cmp    %rax,-0x8(%rbp)
    ba72:	7f 11                	jg     ba85 <safe_lshift_func_int64_t_s_s+0x4e>
    ba74:	8b 45 f4             	mov    -0xc(%rbp),%eax
    ba77:	48 8b 55 f8          	mov    -0x8(%rbp),%rdx
    ba7b:	89 c1                	mov    %eax,%ecx
    ba7d:	48 d3 e2             	shl    %cl,%rdx
    ba80:	48 89 d0             	mov    %rdx,%rax
    ba83:	eb 04                	jmp    ba89 <safe_lshift_func_int64_t_s_s+0x52>
    ba85:	48 8b 45 f8          	mov    -0x8(%rbp),%rax
    ba89:	5d                   	pop    %rbp
    ba8a:	c3                   	retq   

000000000000ba8b <safe_lshift_func_int64_t_s_u>:
    ba8b:	f3 0f 1e fa          	endbr64 
    ba8f:	55                   	push   %rbp
    ba90:	48 89 e5             	mov    %rsp,%rbp
    ba93:	48 89 7d f8          	mov    %rdi,-0x8(%rbp)
    ba97:	89 75 f4             	mov    %esi,-0xc(%rbp)
    ba9a:	48 83 7d f8 00       	cmpq   $0x0,-0x8(%rbp)
    ba9f:	78 32                	js     bad3 <safe_lshift_func_int64_t_s_u+0x48>
    baa1:	83 7d f4 1f          	cmpl   $0x1f,-0xc(%rbp)
    baa5:	77 2c                	ja     bad3 <safe_lshift_func_int64_t_s_u+0x48>
    baa7:	8b 45 f4             	mov    -0xc(%rbp),%eax
    baaa:	48 ba ff ff ff ff ff 	movabs $0x7fffffffffffffff,%rdx
    bab1:	ff ff 7f 
    bab4:	89 c1                	mov    %eax,%ecx
    bab6:	48 d3 fa             	sar    %cl,%rdx
    bab9:	48 89 d0             	mov    %rdx,%rax
    babc:	48 39 45 f8          	cmp    %rax,-0x8(%rbp)
    bac0:	7f 11                	jg     bad3 <safe_lshift_func_int64_t_s_u+0x48>
    bac2:	8b 45 f4             	mov    -0xc(%rbp),%eax
    bac5:	48 8b 55 f8          	mov    -0x8(%rbp),%rdx
    bac9:	89 c1                	mov    %eax,%ecx
    bacb:	48 d3 e2             	shl    %cl,%rdx
    bace:	48 89 d0             	mov    %rdx,%rax
    bad1:	eb 04                	jmp    bad7 <safe_lshift_func_int64_t_s_u+0x4c>
    bad3:	48 8b 45 f8          	mov    -0x8(%rbp),%rax
    bad7:	5d                   	pop    %rbp
    bad8:	c3                   	retq   

000000000000bad9 <safe_rshift_func_int64_t_s_s>:
    bad9:	f3 0f 1e fa          	endbr64 
    badd:	55                   	push   %rbp
    bade:	48 89 e5             	mov    %rsp,%rbp
    bae1:	48 89 7d f8          	mov    %rdi,-0x8(%rbp)
    bae5:	89 75 f4             	mov    %esi,-0xc(%rbp)
    bae8:	48 83 7d f8 00       	cmpq   $0x0,-0x8(%rbp)
    baed:	78 1d                	js     bb0c <safe_rshift_func_int64_t_s_s+0x33>
    baef:	83 7d f4 00          	cmpl   $0x0,-0xc(%rbp)
    baf3:	78 17                	js     bb0c <safe_rshift_func_int64_t_s_s+0x33>
    baf5:	83 7d f4 1f          	cmpl   $0x1f,-0xc(%rbp)
    baf9:	7f 11                	jg     bb0c <safe_rshift_func_int64_t_s_s+0x33>
    bafb:	8b 45 f4             	mov    -0xc(%rbp),%eax
    bafe:	48 8b 55 f8          	mov    -0x8(%rbp),%rdx
    bb02:	89 c1                	mov    %eax,%ecx
    bb04:	48 d3 fa             	sar    %cl,%rdx
    bb07:	48 89 d0             	mov    %rdx,%rax
    bb0a:	eb 04                	jmp    bb10 <safe_rshift_func_int64_t_s_s+0x37>
    bb0c:	48 8b 45 f8          	mov    -0x8(%rbp),%rax
    bb10:	5d                   	pop    %rbp
    bb11:	c3                   	retq   

000000000000bb12 <safe_rshift_func_int64_t_s_u>:
    bb12:	f3 0f 1e fa          	endbr64 
    bb16:	55                   	push   %rbp
    bb17:	48 89 e5             	mov    %rsp,%rbp
    bb1a:	48 89 7d f8          	mov    %rdi,-0x8(%rbp)
    bb1e:	89 75 f4             	mov    %esi,-0xc(%rbp)
    bb21:	48 83 7d f8 00       	cmpq   $0x0,-0x8(%rbp)
    bb26:	78 17                	js     bb3f <safe_rshift_func_int64_t_s_u+0x2d>
    bb28:	83 7d f4 1f          	cmpl   $0x1f,-0xc(%rbp)
    bb2c:	77 11                	ja     bb3f <safe_rshift_func_int64_t_s_u+0x2d>
    bb2e:	8b 45 f4             	mov    -0xc(%rbp),%eax
    bb31:	48 8b 55 f8          	mov    -0x8(%rbp),%rdx
    bb35:	89 c1                	mov    %eax,%ecx
    bb37:	48 d3 fa             	sar    %cl,%rdx
    bb3a:	48 89 d0             	mov    %rdx,%rax
    bb3d:	eb 04                	jmp    bb43 <safe_rshift_func_int64_t_s_u+0x31>
    bb3f:	48 8b 45 f8          	mov    -0x8(%rbp),%rax
    bb43:	5d                   	pop    %rbp
    bb44:	c3                   	retq   

000000000000bb45 <safe_unary_minus_func_uint8_t_u>:
    bb45:	f3 0f 1e fa          	endbr64 
    bb49:	55                   	push   %rbp
    bb4a:	48 89 e5             	mov    %rsp,%rbp
    bb4d:	89 f8                	mov    %edi,%eax
    bb4f:	88 45 fc             	mov    %al,-0x4(%rbp)
    bb52:	0f b6 45 fc          	movzbl -0x4(%rbp),%eax
    bb56:	f7 d8                	neg    %eax
    bb58:	5d                   	pop    %rbp
    bb59:	c3                   	retq   

000000000000bb5a <safe_add_func_uint8_t_u_u>:
    bb5a:	f3 0f 1e fa          	endbr64 
    bb5e:	55                   	push   %rbp
    bb5f:	48 89 e5             	mov    %rsp,%rbp
    bb62:	89 fa                	mov    %edi,%edx
    bb64:	89 f0                	mov    %esi,%eax
    bb66:	88 55 fc             	mov    %dl,-0x4(%rbp)
    bb69:	88 45 f8             	mov    %al,-0x8(%rbp)
    bb6c:	0f b6 55 fc          	movzbl -0x4(%rbp),%edx
    bb70:	0f b6 45 f8          	movzbl -0x8(%rbp),%eax
    bb74:	01 d0                	add    %edx,%eax
    bb76:	5d                   	pop    %rbp
    bb77:	c3                   	retq   

000000000000bb78 <safe_sub_func_uint8_t_u_u>:
    bb78:	f3 0f 1e fa          	endbr64 
    bb7c:	55                   	push   %rbp
    bb7d:	48 89 e5             	mov    %rsp,%rbp
    bb80:	89 fa                	mov    %edi,%edx
    bb82:	89 f0                	mov    %esi,%eax
    bb84:	88 55 fc             	mov    %dl,-0x4(%rbp)
    bb87:	88 45 f8             	mov    %al,-0x8(%rbp)
    bb8a:	0f b6 45 fc          	movzbl -0x4(%rbp),%eax
    bb8e:	2a 45 f8             	sub    -0x8(%rbp),%al
    bb91:	5d                   	pop    %rbp
    bb92:	c3                   	retq   

000000000000bb93 <safe_mul_func_uint8_t_u_u>:
    bb93:	f3 0f 1e fa          	endbr64 
    bb97:	55                   	push   %rbp
    bb98:	48 89 e5             	mov    %rsp,%rbp
    bb9b:	89 fa                	mov    %edi,%edx
    bb9d:	89 f0                	mov    %esi,%eax
    bb9f:	88 55 fc             	mov    %dl,-0x4(%rbp)
    bba2:	88 45 f8             	mov    %al,-0x8(%rbp)
    bba5:	0f b6 45 fc          	movzbl -0x4(%rbp),%eax
    bba9:	f6 65 f8             	mulb   -0x8(%rbp)
    bbac:	5d                   	pop    %rbp
    bbad:	c3                   	retq   

000000000000bbae <safe_mod_func_uint8_t_u_u>:
    bbae:	f3 0f 1e fa          	endbr64 
    bbb2:	55                   	push   %rbp
    bbb3:	48 89 e5             	mov    %rsp,%rbp
    bbb6:	89 fa                	mov    %edi,%edx
    bbb8:	89 f0                	mov    %esi,%eax
    bbba:	88 55 fc             	mov    %dl,-0x4(%rbp)
    bbbd:	88 45 f8             	mov    %al,-0x8(%rbp)
    bbc0:	80 7d f8 00          	cmpb   $0x0,-0x8(%rbp)
    bbc4:	74 0f                	je     bbd5 <safe_mod_func_uint8_t_u_u+0x27>
    bbc6:	0f b6 45 fc          	movzbl -0x4(%rbp),%eax
    bbca:	0f b6 c0             	movzbl %al,%eax
    bbcd:	f6 75 f8             	divb   -0x8(%rbp)
    bbd0:	0f b6 c4             	movzbl %ah,%eax
    bbd3:	eb 04                	jmp    bbd9 <safe_mod_func_uint8_t_u_u+0x2b>
    bbd5:	0f b6 45 fc          	movzbl -0x4(%rbp),%eax
    bbd9:	5d                   	pop    %rbp
    bbda:	c3                   	retq   

000000000000bbdb <safe_div_func_uint8_t_u_u>:
    bbdb:	f3 0f 1e fa          	endbr64 
    bbdf:	55                   	push   %rbp
    bbe0:	48 89 e5             	mov    %rsp,%rbp
    bbe3:	89 fa                	mov    %edi,%edx
    bbe5:	89 f0                	mov    %esi,%eax
    bbe7:	88 55 fc             	mov    %dl,-0x4(%rbp)
    bbea:	88 45 f8             	mov    %al,-0x8(%rbp)
    bbed:	80 7d f8 00          	cmpb   $0x0,-0x8(%rbp)
    bbf1:	74 0c                	je     bbff <safe_div_func_uint8_t_u_u+0x24>
    bbf3:	0f b6 45 fc          	movzbl -0x4(%rbp),%eax
    bbf7:	0f b6 c0             	movzbl %al,%eax
    bbfa:	f6 75 f8             	divb   -0x8(%rbp)
    bbfd:	eb 04                	jmp    bc03 <safe_div_func_uint8_t_u_u+0x28>
    bbff:	0f b6 45 fc          	movzbl -0x4(%rbp),%eax
    bc03:	5d                   	pop    %rbp
    bc04:	c3                   	retq   

000000000000bc05 <safe_lshift_func_uint8_t_u_s>:
    bc05:	f3 0f 1e fa          	endbr64 
    bc09:	55                   	push   %rbp
    bc0a:	48 89 e5             	mov    %rsp,%rbp
    bc0d:	89 f8                	mov    %edi,%eax
    bc0f:	89 75 f8             	mov    %esi,-0x8(%rbp)
    bc12:	88 45 fc             	mov    %al,-0x4(%rbp)
    bc15:	83 7d f8 00          	cmpl   $0x0,-0x8(%rbp)
    bc19:	78 2b                	js     bc46 <safe_lshift_func_uint8_t_u_s+0x41>
    bc1b:	83 7d f8 1f          	cmpl   $0x1f,-0x8(%rbp)
    bc1f:	7f 25                	jg     bc46 <safe_lshift_func_uint8_t_u_s+0x41>
    bc21:	0f b6 55 fc          	movzbl -0x4(%rbp),%edx
    bc25:	8b 45 f8             	mov    -0x8(%rbp),%eax
    bc28:	be ff 00 00 00       	mov    $0xff,%esi
    bc2d:	89 c1                	mov    %eax,%ecx
    bc2f:	d3 fe                	sar    %cl,%esi
    bc31:	89 f0                	mov    %esi,%eax
    bc33:	39 c2                	cmp    %eax,%edx
    bc35:	7f 0f                	jg     bc46 <safe_lshift_func_uint8_t_u_s+0x41>
    bc37:	0f b6 55 fc          	movzbl -0x4(%rbp),%edx
    bc3b:	8b 45 f8             	mov    -0x8(%rbp),%eax
    bc3e:	89 c1                	mov    %eax,%ecx
    bc40:	d3 e2                	shl    %cl,%edx
    bc42:	89 d0                	mov    %edx,%eax
    bc44:	eb 04                	jmp    bc4a <safe_lshift_func_uint8_t_u_s+0x45>
    bc46:	0f b6 45 fc          	movzbl -0x4(%rbp),%eax
    bc4a:	5d                   	pop    %rbp
    bc4b:	c3                   	retq   

000000000000bc4c <safe_lshift_func_uint8_t_u_u>:
    bc4c:	f3 0f 1e fa          	endbr64 
    bc50:	55                   	push   %rbp
    bc51:	48 89 e5             	mov    %rsp,%rbp
    bc54:	89 f8                	mov    %edi,%eax
    bc56:	89 75 f8             	mov    %esi,-0x8(%rbp)
    bc59:	88 45 fc             	mov    %al,-0x4(%rbp)
    bc5c:	83 7d f8 1f          	cmpl   $0x1f,-0x8(%rbp)
    bc60:	77 25                	ja     bc87 <safe_lshift_func_uint8_t_u_u+0x3b>
    bc62:	0f b6 55 fc          	movzbl -0x4(%rbp),%edx
    bc66:	8b 45 f8             	mov    -0x8(%rbp),%eax
    bc69:	be ff 00 00 00       	mov    $0xff,%esi
    bc6e:	89 c1                	mov    %eax,%ecx
    bc70:	d3 fe                	sar    %cl,%esi
    bc72:	89 f0                	mov    %esi,%eax
    bc74:	39 c2                	cmp    %eax,%edx
    bc76:	7f 0f                	jg     bc87 <safe_lshift_func_uint8_t_u_u+0x3b>
    bc78:	0f b6 55 fc          	movzbl -0x4(%rbp),%edx
    bc7c:	8b 45 f8             	mov    -0x8(%rbp),%eax
    bc7f:	89 c1                	mov    %eax,%ecx
    bc81:	d3 e2                	shl    %cl,%edx
    bc83:	89 d0                	mov    %edx,%eax
    bc85:	eb 04                	jmp    bc8b <safe_lshift_func_uint8_t_u_u+0x3f>
    bc87:	0f b6 45 fc          	movzbl -0x4(%rbp),%eax
    bc8b:	5d                   	pop    %rbp
    bc8c:	c3                   	retq   

000000000000bc8d <safe_rshift_func_uint8_t_u_s>:
    bc8d:	f3 0f 1e fa          	endbr64 
    bc91:	55                   	push   %rbp
    bc92:	48 89 e5             	mov    %rsp,%rbp
    bc95:	89 f8                	mov    %edi,%eax
    bc97:	89 75 f8             	mov    %esi,-0x8(%rbp)
    bc9a:	88 45 fc             	mov    %al,-0x4(%rbp)
    bc9d:	83 7d f8 00          	cmpl   $0x0,-0x8(%rbp)
    bca1:	78 15                	js     bcb8 <safe_rshift_func_uint8_t_u_s+0x2b>
    bca3:	83 7d f8 1f          	cmpl   $0x1f,-0x8(%rbp)
    bca7:	7f 0f                	jg     bcb8 <safe_rshift_func_uint8_t_u_s+0x2b>
    bca9:	0f b6 55 fc          	movzbl -0x4(%rbp),%edx
    bcad:	8b 45 f8             	mov    -0x8(%rbp),%eax
    bcb0:	89 c1                	mov    %eax,%ecx
    bcb2:	d3 fa                	sar    %cl,%edx
    bcb4:	89 d0                	mov    %edx,%eax
    bcb6:	eb 04                	jmp    bcbc <safe_rshift_func_uint8_t_u_s+0x2f>
    bcb8:	0f b6 45 fc          	movzbl -0x4(%rbp),%eax
    bcbc:	5d                   	pop    %rbp
    bcbd:	c3                   	retq   

000000000000bcbe <safe_rshift_func_uint8_t_u_u>:
    bcbe:	f3 0f 1e fa          	endbr64 
    bcc2:	55                   	push   %rbp
    bcc3:	48 89 e5             	mov    %rsp,%rbp
    bcc6:	89 f8                	mov    %edi,%eax
    bcc8:	89 75 f8             	mov    %esi,-0x8(%rbp)
    bccb:	88 45 fc             	mov    %al,-0x4(%rbp)
    bcce:	83 7d f8 1f          	cmpl   $0x1f,-0x8(%rbp)
    bcd2:	77 0f                	ja     bce3 <safe_rshift_func_uint8_t_u_u+0x25>
    bcd4:	0f b6 55 fc          	movzbl -0x4(%rbp),%edx
    bcd8:	8b 45 f8             	mov    -0x8(%rbp),%eax
    bcdb:	89 c1                	mov    %eax,%ecx
    bcdd:	d3 fa                	sar    %cl,%edx
    bcdf:	89 d0                	mov    %edx,%eax
    bce1:	eb 04                	jmp    bce7 <safe_rshift_func_uint8_t_u_u+0x29>
    bce3:	0f b6 45 fc          	movzbl -0x4(%rbp),%eax
    bce7:	5d                   	pop    %rbp
    bce8:	c3                   	retq   

000000000000bce9 <safe_unary_minus_func_uint16_t_u>:
    bce9:	f3 0f 1e fa          	endbr64 
    bced:	55                   	push   %rbp
    bcee:	48 89 e5             	mov    %rsp,%rbp
    bcf1:	89 f8                	mov    %edi,%eax
    bcf3:	66 89 45 fc          	mov    %ax,-0x4(%rbp)
    bcf7:	0f b7 45 fc          	movzwl -0x4(%rbp),%eax
    bcfb:	f7 d8                	neg    %eax
    bcfd:	5d                   	pop    %rbp
    bcfe:	c3                   	retq   

000000000000bcff <safe_add_func_uint16_t_u_u>:
    bcff:	f3 0f 1e fa          	endbr64 
    bd03:	55                   	push   %rbp
    bd04:	48 89 e5             	mov    %rsp,%rbp
    bd07:	89 fa                	mov    %edi,%edx
    bd09:	89 f0                	mov    %esi,%eax
    bd0b:	66 89 55 fc          	mov    %dx,-0x4(%rbp)
    bd0f:	66 89 45 f8          	mov    %ax,-0x8(%rbp)
    bd13:	0f b7 55 fc          	movzwl -0x4(%rbp),%edx
    bd17:	0f b7 45 f8          	movzwl -0x8(%rbp),%eax
    bd1b:	01 d0                	add    %edx,%eax
    bd1d:	5d                   	pop    %rbp
    bd1e:	c3                   	retq   

000000000000bd1f <safe_sub_func_uint16_t_u_u>:
    bd1f:	f3 0f 1e fa          	endbr64 
    bd23:	55                   	push   %rbp
    bd24:	48 89 e5             	mov    %rsp,%rbp
    bd27:	89 fa                	mov    %edi,%edx
    bd29:	89 f0                	mov    %esi,%eax
    bd2b:	66 89 55 fc          	mov    %dx,-0x4(%rbp)
    bd2f:	66 89 45 f8          	mov    %ax,-0x8(%rbp)
    bd33:	0f b7 45 fc          	movzwl -0x4(%rbp),%eax
    bd37:	66 2b 45 f8          	sub    -0x8(%rbp),%ax
    bd3b:	5d                   	pop    %rbp
    bd3c:	c3                   	retq   

000000000000bd3d <safe_mul_func_uint16_t_u_u>:
    bd3d:	f3 0f 1e fa          	endbr64 
    bd41:	55                   	push   %rbp
    bd42:	48 89 e5             	mov    %rsp,%rbp
    bd45:	89 fa                	mov    %edi,%edx
    bd47:	89 f0                	mov    %esi,%eax
    bd49:	66 89 55 fc          	mov    %dx,-0x4(%rbp)
    bd4d:	66 89 45 f8          	mov    %ax,-0x8(%rbp)
    bd51:	0f b7 45 fc          	movzwl -0x4(%rbp),%eax
    bd55:	66 0f af 45 f8       	imul   -0x8(%rbp),%ax
    bd5a:	5d                   	pop    %rbp
    bd5b:	c3                   	retq   

000000000000bd5c <safe_mod_func_uint16_t_u_u>:
    bd5c:	f3 0f 1e fa          	endbr64 
    bd60:	55                   	push   %rbp
    bd61:	48 89 e5             	mov    %rsp,%rbp
    bd64:	89 fa                	mov    %edi,%edx
    bd66:	89 f0                	mov    %esi,%eax
    bd68:	66 89 55 fc          	mov    %dx,-0x4(%rbp)
    bd6c:	66 89 45 f8          	mov    %ax,-0x8(%rbp)
    bd70:	66 83 7d f8 00       	cmpw   $0x0,-0x8(%rbp)
    bd75:	74 11                	je     bd88 <safe_mod_func_uint16_t_u_u+0x2c>
    bd77:	0f b7 45 fc          	movzwl -0x4(%rbp),%eax
    bd7b:	ba 00 00 00 00       	mov    $0x0,%edx
    bd80:	66 f7 75 f8          	divw   -0x8(%rbp)
    bd84:	89 d0                	mov    %edx,%eax
    bd86:	eb 04                	jmp    bd8c <safe_mod_func_uint16_t_u_u+0x30>
    bd88:	0f b7 45 fc          	movzwl -0x4(%rbp),%eax
    bd8c:	5d                   	pop    %rbp
    bd8d:	c3                   	retq   

000000000000bd8e <safe_div_func_uint16_t_u_u>:
    bd8e:	f3 0f 1e fa          	endbr64 
    bd92:	55                   	push   %rbp
    bd93:	48 89 e5             	mov    %rsp,%rbp
    bd96:	89 fa                	mov    %edi,%edx
    bd98:	89 f0                	mov    %esi,%eax
    bd9a:	66 89 55 fc          	mov    %dx,-0x4(%rbp)
    bd9e:	66 89 45 f8          	mov    %ax,-0x8(%rbp)
    bda2:	66 83 7d f8 00       	cmpw   $0x0,-0x8(%rbp)
    bda7:	74 0f                	je     bdb8 <safe_div_func_uint16_t_u_u+0x2a>
    bda9:	0f b7 45 fc          	movzwl -0x4(%rbp),%eax
    bdad:	ba 00 00 00 00       	mov    $0x0,%edx
    bdb2:	66 f7 75 f8          	divw   -0x8(%rbp)
    bdb6:	eb 04                	jmp    bdbc <safe_div_func_uint16_t_u_u+0x2e>
    bdb8:	0f b7 45 fc          	movzwl -0x4(%rbp),%eax
    bdbc:	5d                   	pop    %rbp
    bdbd:	c3                   	retq   

000000000000bdbe <safe_lshift_func_uint16_t_u_s>:
    bdbe:	f3 0f 1e fa          	endbr64 
    bdc2:	55                   	push   %rbp
    bdc3:	48 89 e5             	mov    %rsp,%rbp
    bdc6:	89 f8                	mov    %edi,%eax
    bdc8:	89 75 f8             	mov    %esi,-0x8(%rbp)
    bdcb:	66 89 45 fc          	mov    %ax,-0x4(%rbp)
    bdcf:	83 7d f8 00          	cmpl   $0x0,-0x8(%rbp)
    bdd3:	78 2b                	js     be00 <safe_lshift_func_uint16_t_u_s+0x42>
    bdd5:	83 7d f8 1f          	cmpl   $0x1f,-0x8(%rbp)
    bdd9:	7f 25                	jg     be00 <safe_lshift_func_uint16_t_u_s+0x42>
    bddb:	0f b7 55 fc          	movzwl -0x4(%rbp),%edx
    bddf:	8b 45 f8             	mov    -0x8(%rbp),%eax
    bde2:	be ff ff 00 00       	mov    $0xffff,%esi
    bde7:	89 c1                	mov    %eax,%ecx
    bde9:	d3 fe                	sar    %cl,%esi
    bdeb:	89 f0                	mov    %esi,%eax
    bded:	39 c2                	cmp    %eax,%edx
    bdef:	7f 0f                	jg     be00 <safe_lshift_func_uint16_t_u_s+0x42>
    bdf1:	0f b7 55 fc          	movzwl -0x4(%rbp),%edx
    bdf5:	8b 45 f8             	mov    -0x8(%rbp),%eax
    bdf8:	89 c1                	mov    %eax,%ecx
    bdfa:	d3 e2                	shl    %cl,%edx
    bdfc:	89 d0                	mov    %edx,%eax
    bdfe:	eb 04                	jmp    be04 <safe_lshift_func_uint16_t_u_s+0x46>
    be00:	0f b7 45 fc          	movzwl -0x4(%rbp),%eax
    be04:	5d                   	pop    %rbp
    be05:	c3                   	retq   

000000000000be06 <safe_lshift_func_uint16_t_u_u>:
    be06:	f3 0f 1e fa          	endbr64 
    be0a:	55                   	push   %rbp
    be0b:	48 89 e5             	mov    %rsp,%rbp
    be0e:	89 f8                	mov    %edi,%eax
    be10:	89 75 f8             	mov    %esi,-0x8(%rbp)
    be13:	66 89 45 fc          	mov    %ax,-0x4(%rbp)
    be17:	83 7d f8 1f          	cmpl   $0x1f,-0x8(%rbp)
    be1b:	77 25                	ja     be42 <safe_lshift_func_uint16_t_u_u+0x3c>
    be1d:	0f b7 55 fc          	movzwl -0x4(%rbp),%edx
    be21:	8b 45 f8             	mov    -0x8(%rbp),%eax
    be24:	be ff ff 00 00       	mov    $0xffff,%esi
    be29:	89 c1                	mov    %eax,%ecx
    be2b:	d3 fe                	sar    %cl,%esi
    be2d:	89 f0                	mov    %esi,%eax
    be2f:	39 c2                	cmp    %eax,%edx
    be31:	7f 0f                	jg     be42 <safe_lshift_func_uint16_t_u_u+0x3c>
    be33:	0f b7 55 fc          	movzwl -0x4(%rbp),%edx
    be37:	8b 45 f8             	mov    -0x8(%rbp),%eax
    be3a:	89 c1                	mov    %eax,%ecx
    be3c:	d3 e2                	shl    %cl,%edx
    be3e:	89 d0                	mov    %edx,%eax
    be40:	eb 04                	jmp    be46 <safe_lshift_func_uint16_t_u_u+0x40>
    be42:	0f b7 45 fc          	movzwl -0x4(%rbp),%eax
    be46:	5d                   	pop    %rbp
    be47:	c3                   	retq   

000000000000be48 <safe_rshift_func_uint16_t_u_s>:
    be48:	f3 0f 1e fa          	endbr64 
    be4c:	55                   	push   %rbp
    be4d:	48 89 e5             	mov    %rsp,%rbp
    be50:	89 f8                	mov    %edi,%eax
    be52:	89 75 f8             	mov    %esi,-0x8(%rbp)
    be55:	66 89 45 fc          	mov    %ax,-0x4(%rbp)
    be59:	83 7d f8 00          	cmpl   $0x0,-0x8(%rbp)
    be5d:	78 15                	js     be74 <safe_rshift_func_uint16_t_u_s+0x2c>
    be5f:	83 7d f8 1f          	cmpl   $0x1f,-0x8(%rbp)
    be63:	7f 0f                	jg     be74 <safe_rshift_func_uint16_t_u_s+0x2c>
    be65:	0f b7 55 fc          	movzwl -0x4(%rbp),%edx
    be69:	8b 45 f8             	mov    -0x8(%rbp),%eax
    be6c:	89 c1                	mov    %eax,%ecx
    be6e:	d3 fa                	sar    %cl,%edx
    be70:	89 d0                	mov    %edx,%eax
    be72:	eb 04                	jmp    be78 <safe_rshift_func_uint16_t_u_s+0x30>
    be74:	0f b7 45 fc          	movzwl -0x4(%rbp),%eax
    be78:	5d                   	pop    %rbp
    be79:	c3                   	retq   

000000000000be7a <safe_rshift_func_uint16_t_u_u>:
    be7a:	f3 0f 1e fa          	endbr64 
    be7e:	55                   	push   %rbp
    be7f:	48 89 e5             	mov    %rsp,%rbp
    be82:	89 f8                	mov    %edi,%eax
    be84:	89 75 f8             	mov    %esi,-0x8(%rbp)
    be87:	66 89 45 fc          	mov    %ax,-0x4(%rbp)
    be8b:	83 7d f8 1f          	cmpl   $0x1f,-0x8(%rbp)
    be8f:	77 0f                	ja     bea0 <safe_rshift_func_uint16_t_u_u+0x26>
    be91:	0f b7 55 fc          	movzwl -0x4(%rbp),%edx
    be95:	8b 45 f8             	mov    -0x8(%rbp),%eax
    be98:	89 c1                	mov    %eax,%ecx
    be9a:	d3 fa                	sar    %cl,%edx
    be9c:	89 d0                	mov    %edx,%eax
    be9e:	eb 04                	jmp    bea4 <safe_rshift_func_uint16_t_u_u+0x2a>
    bea0:	0f b7 45 fc          	movzwl -0x4(%rbp),%eax
    bea4:	5d                   	pop    %rbp
    bea5:	c3                   	retq   

000000000000bea6 <safe_unary_minus_func_uint32_t_u>:
    bea6:	f3 0f 1e fa          	endbr64 
    beaa:	55                   	push   %rbp
    beab:	48 89 e5             	mov    %rsp,%rbp
    beae:	89 7d fc             	mov    %edi,-0x4(%rbp)
    beb1:	8b 45 fc             	mov    -0x4(%rbp),%eax
    beb4:	f7 d8                	neg    %eax
    beb6:	5d                   	pop    %rbp
    beb7:	c3                   	retq   

000000000000beb8 <safe_add_func_uint32_t_u_u>:
    beb8:	f3 0f 1e fa          	endbr64 
    bebc:	55                   	push   %rbp
    bebd:	48 89 e5             	mov    %rsp,%rbp
    bec0:	89 7d fc             	mov    %edi,-0x4(%rbp)
    bec3:	89 75 f8             	mov    %esi,-0x8(%rbp)
    bec6:	8b 55 fc             	mov    -0x4(%rbp),%edx
    bec9:	8b 45 f8             	mov    -0x8(%rbp),%eax
    becc:	01 d0                	add    %edx,%eax
    bece:	5d                   	pop    %rbp
    becf:	c3                   	retq   

000000000000bed0 <safe_sub_func_uint32_t_u_u>:
    bed0:	f3 0f 1e fa          	endbr64 
    bed4:	55                   	push   %rbp
    bed5:	48 89 e5             	mov    %rsp,%rbp
    bed8:	89 7d fc             	mov    %edi,-0x4(%rbp)
    bedb:	89 75 f8             	mov    %esi,-0x8(%rbp)
    bede:	8b 45 fc             	mov    -0x4(%rbp),%eax
    bee1:	2b 45 f8             	sub    -0x8(%rbp),%eax
    bee4:	5d                   	pop    %rbp
    bee5:	c3                   	retq   

000000000000bee6 <safe_mul_func_uint32_t_u_u>:
    bee6:	f3 0f 1e fa          	endbr64 
    beea:	55                   	push   %rbp
    beeb:	48 89 e5             	mov    %rsp,%rbp
    beee:	89 7d fc             	mov    %edi,-0x4(%rbp)
    bef1:	89 75 f8             	mov    %esi,-0x8(%rbp)
    bef4:	8b 45 fc             	mov    -0x4(%rbp),%eax
    bef7:	0f af 45 f8          	imul   -0x8(%rbp),%eax
    befb:	5d                   	pop    %rbp
    befc:	c3                   	retq   

000000000000befd <safe_mod_func_uint32_t_u_u>:
    befd:	f3 0f 1e fa          	endbr64 
    bf01:	55                   	push   %rbp
    bf02:	48 89 e5             	mov    %rsp,%rbp
    bf05:	89 7d fc             	mov    %edi,-0x4(%rbp)
    bf08:	89 75 f8             	mov    %esi,-0x8(%rbp)
    bf0b:	83 7d f8 00          	cmpl   $0x0,-0x8(%rbp)
    bf0f:	74 0f                	je     bf20 <safe_mod_func_uint32_t_u_u+0x23>
    bf11:	8b 45 fc             	mov    -0x4(%rbp),%eax
    bf14:	ba 00 00 00 00       	mov    $0x0,%edx
    bf19:	f7 75 f8             	divl   -0x8(%rbp)
    bf1c:	89 d0                	mov    %edx,%eax
    bf1e:	eb 03                	jmp    bf23 <safe_mod_func_uint32_t_u_u+0x26>
    bf20:	8b 45 fc             	mov    -0x4(%rbp),%eax
    bf23:	5d                   	pop    %rbp
    bf24:	c3                   	retq   

000000000000bf25 <safe_div_func_uint32_t_u_u>:
    bf25:	f3 0f 1e fa          	endbr64 
    bf29:	55                   	push   %rbp
    bf2a:	48 89 e5             	mov    %rsp,%rbp
    bf2d:	89 7d fc             	mov    %edi,-0x4(%rbp)
    bf30:	89 75 f8             	mov    %esi,-0x8(%rbp)
    bf33:	83 7d f8 00          	cmpl   $0x0,-0x8(%rbp)
    bf37:	74 0d                	je     bf46 <safe_div_func_uint32_t_u_u+0x21>
    bf39:	8b 45 fc             	mov    -0x4(%rbp),%eax
    bf3c:	ba 00 00 00 00       	mov    $0x0,%edx
    bf41:	f7 75 f8             	divl   -0x8(%rbp)
    bf44:	eb 03                	jmp    bf49 <safe_div_func_uint32_t_u_u+0x24>
    bf46:	8b 45 fc             	mov    -0x4(%rbp),%eax
    bf49:	5d                   	pop    %rbp
    bf4a:	c3                   	retq   

000000000000bf4b <safe_lshift_func_uint32_t_u_s>:
    bf4b:	f3 0f 1e fa          	endbr64 
    bf4f:	55                   	push   %rbp
    bf50:	48 89 e5             	mov    %rsp,%rbp
    bf53:	89 7d fc             	mov    %edi,-0x4(%rbp)
    bf56:	89 75 f8             	mov    %esi,-0x8(%rbp)
    bf59:	83 7d f8 00          	cmpl   $0x0,-0x8(%rbp)
    bf5d:	78 27                	js     bf86 <safe_lshift_func_uint32_t_u_s+0x3b>
    bf5f:	83 7d f8 1f          	cmpl   $0x1f,-0x8(%rbp)
    bf63:	7f 21                	jg     bf86 <safe_lshift_func_uint32_t_u_s+0x3b>
    bf65:	8b 45 f8             	mov    -0x8(%rbp),%eax
    bf68:	ba ff ff ff ff       	mov    $0xffffffff,%edx
    bf6d:	89 c1                	mov    %eax,%ecx
    bf6f:	d3 ea                	shr    %cl,%edx
    bf71:	89 d0                	mov    %edx,%eax
    bf73:	39 45 fc             	cmp    %eax,-0x4(%rbp)
    bf76:	77 0e                	ja     bf86 <safe_lshift_func_uint32_t_u_s+0x3b>
    bf78:	8b 45 f8             	mov    -0x8(%rbp),%eax
    bf7b:	8b 55 fc             	mov    -0x4(%rbp),%edx
    bf7e:	89 c1                	mov    %eax,%ecx
    bf80:	d3 e2                	shl    %cl,%edx
    bf82:	89 d0                	mov    %edx,%eax
    bf84:	eb 03                	jmp    bf89 <safe_lshift_func_uint32_t_u_s+0x3e>
    bf86:	8b 45 fc             	mov    -0x4(%rbp),%eax
    bf89:	5d                   	pop    %rbp
    bf8a:	c3                   	retq   

000000000000bf8b <safe_lshift_func_uint32_t_u_u>:
    bf8b:	f3 0f 1e fa          	endbr64 
    bf8f:	55                   	push   %rbp
    bf90:	48 89 e5             	mov    %rsp,%rbp
    bf93:	89 7d fc             	mov    %edi,-0x4(%rbp)
    bf96:	89 75 f8             	mov    %esi,-0x8(%rbp)
    bf99:	83 7d f8 1f          	cmpl   $0x1f,-0x8(%rbp)
    bf9d:	77 21                	ja     bfc0 <safe_lshift_func_uint32_t_u_u+0x35>
    bf9f:	8b 45 f8             	mov    -0x8(%rbp),%eax
    bfa2:	ba ff ff ff ff       	mov    $0xffffffff,%edx
    bfa7:	89 c1                	mov    %eax,%ecx
    bfa9:	d3 ea                	shr    %cl,%edx
    bfab:	89 d0                	mov    %edx,%eax
    bfad:	39 45 fc             	cmp    %eax,-0x4(%rbp)
    bfb0:	77 0e                	ja     bfc0 <safe_lshift_func_uint32_t_u_u+0x35>
    bfb2:	8b 45 f8             	mov    -0x8(%rbp),%eax
    bfb5:	8b 55 fc             	mov    -0x4(%rbp),%edx
    bfb8:	89 c1                	mov    %eax,%ecx
    bfba:	d3 e2                	shl    %cl,%edx
    bfbc:	89 d0                	mov    %edx,%eax
    bfbe:	eb 03                	jmp    bfc3 <safe_lshift_func_uint32_t_u_u+0x38>
    bfc0:	8b 45 fc             	mov    -0x4(%rbp),%eax
    bfc3:	5d                   	pop    %rbp
    bfc4:	c3                   	retq   

000000000000bfc5 <safe_rshift_func_uint32_t_u_s>:
    bfc5:	f3 0f 1e fa          	endbr64 
    bfc9:	55                   	push   %rbp
    bfca:	48 89 e5             	mov    %rsp,%rbp
    bfcd:	89 7d fc             	mov    %edi,-0x4(%rbp)
    bfd0:	89 75 f8             	mov    %esi,-0x8(%rbp)
    bfd3:	83 7d f8 00          	cmpl   $0x0,-0x8(%rbp)
    bfd7:	78 14                	js     bfed <safe_rshift_func_uint32_t_u_s+0x28>
    bfd9:	83 7d f8 1f          	cmpl   $0x1f,-0x8(%rbp)
    bfdd:	7f 0e                	jg     bfed <safe_rshift_func_uint32_t_u_s+0x28>
    bfdf:	8b 45 f8             	mov    -0x8(%rbp),%eax
    bfe2:	8b 55 fc             	mov    -0x4(%rbp),%edx
    bfe5:	89 c1                	mov    %eax,%ecx
    bfe7:	d3 ea                	shr    %cl,%edx
    bfe9:	89 d0                	mov    %edx,%eax
    bfeb:	eb 03                	jmp    bff0 <safe_rshift_func_uint32_t_u_s+0x2b>
    bfed:	8b 45 fc             	mov    -0x4(%rbp),%eax
    bff0:	5d                   	pop    %rbp
    bff1:	c3                   	retq   

000000000000bff2 <safe_rshift_func_uint32_t_u_u>:
    bff2:	f3 0f 1e fa          	endbr64 
    bff6:	55                   	push   %rbp
    bff7:	48 89 e5             	mov    %rsp,%rbp
    bffa:	89 7d fc             	mov    %edi,-0x4(%rbp)
    bffd:	89 75 f8             	mov    %esi,-0x8(%rbp)
    c000:	83 7d f8 1f          	cmpl   $0x1f,-0x8(%rbp)
    c004:	77 0e                	ja     c014 <safe_rshift_func_uint32_t_u_u+0x22>
    c006:	8b 45 f8             	mov    -0x8(%rbp),%eax
    c009:	8b 55 fc             	mov    -0x4(%rbp),%edx
    c00c:	89 c1                	mov    %eax,%ecx
    c00e:	d3 ea                	shr    %cl,%edx
    c010:	89 d0                	mov    %edx,%eax
    c012:	eb 03                	jmp    c017 <safe_rshift_func_uint32_t_u_u+0x25>
    c014:	8b 45 fc             	mov    -0x4(%rbp),%eax
    c017:	5d                   	pop    %rbp
    c018:	c3                   	retq   

000000000000c019 <safe_unary_minus_func_uint64_t_u>:
    c019:	f3 0f 1e fa          	endbr64 
    c01d:	55                   	push   %rbp
    c01e:	48 89 e5             	mov    %rsp,%rbp
    c021:	48 89 7d f8          	mov    %rdi,-0x8(%rbp)
    c025:	48 8b 45 f8          	mov    -0x8(%rbp),%rax
    c029:	48 f7 d8             	neg    %rax
    c02c:	5d                   	pop    %rbp
    c02d:	c3                   	retq   

000000000000c02e <safe_add_func_uint64_t_u_u>:
    c02e:	f3 0f 1e fa          	endbr64 
    c032:	55                   	push   %rbp
    c033:	48 89 e5             	mov    %rsp,%rbp
    c036:	48 89 7d f8          	mov    %rdi,-0x8(%rbp)
    c03a:	48 89 75 f0          	mov    %rsi,-0x10(%rbp)
    c03e:	48 8b 55 f8          	mov    -0x8(%rbp),%rdx
    c042:	48 8b 45 f0          	mov    -0x10(%rbp),%rax
    c046:	48 01 d0             	add    %rdx,%rax
    c049:	5d                   	pop    %rbp
    c04a:	c3                   	retq   

000000000000c04b <safe_sub_func_uint64_t_u_u>:
    c04b:	f3 0f 1e fa          	endbr64 
    c04f:	55                   	push   %rbp
    c050:	48 89 e5             	mov    %rsp,%rbp
    c053:	48 89 7d f8          	mov    %rdi,-0x8(%rbp)
    c057:	48 89 75 f0          	mov    %rsi,-0x10(%rbp)
    c05b:	48 8b 45 f8          	mov    -0x8(%rbp),%rax
    c05f:	48 2b 45 f0          	sub    -0x10(%rbp),%rax
    c063:	5d                   	pop    %rbp
    c064:	c3                   	retq   

000000000000c065 <safe_mul_func_uint64_t_u_u>:
    c065:	f3 0f 1e fa          	endbr64 
    c069:	55                   	push   %rbp
    c06a:	48 89 e5             	mov    %rsp,%rbp
    c06d:	48 89 7d f8          	mov    %rdi,-0x8(%rbp)
    c071:	48 89 75 f0          	mov    %rsi,-0x10(%rbp)
    c075:	48 8b 45 f8          	mov    -0x8(%rbp),%rax
    c079:	48 0f af 45 f0       	imul   -0x10(%rbp),%rax
    c07e:	5d                   	pop    %rbp
    c07f:	c3                   	retq   

000000000000c080 <safe_mod_func_uint64_t_u_u>:
    c080:	f3 0f 1e fa          	endbr64 
    c084:	55                   	push   %rbp
    c085:	48 89 e5             	mov    %rsp,%rbp
    c088:	48 89 7d f8          	mov    %rdi,-0x8(%rbp)
    c08c:	48 89 75 f0          	mov    %rsi,-0x10(%rbp)
    c090:	48 83 7d f0 00       	cmpq   $0x0,-0x10(%rbp)
    c095:	74 12                	je     c0a9 <safe_mod_func_uint64_t_u_u+0x29>
    c097:	48 8b 45 f8          	mov    -0x8(%rbp),%rax
    c09b:	ba 00 00 00 00       	mov    $0x0,%edx
    c0a0:	48 f7 75 f0          	divq   -0x10(%rbp)
    c0a4:	48 89 d0             	mov    %rdx,%rax
    c0a7:	eb 04                	jmp    c0ad <safe_mod_func_uint64_t_u_u+0x2d>
    c0a9:	48 8b 45 f8          	mov    -0x8(%rbp),%rax
    c0ad:	5d                   	pop    %rbp
    c0ae:	c3                   	retq   

000000000000c0af <safe_div_func_uint64_t_u_u>:
    c0af:	f3 0f 1e fa          	endbr64 
    c0b3:	55                   	push   %rbp
    c0b4:	48 89 e5             	mov    %rsp,%rbp
    c0b7:	48 89 7d f8          	mov    %rdi,-0x8(%rbp)
    c0bb:	48 89 75 f0          	mov    %rsi,-0x10(%rbp)
    c0bf:	48 83 7d f0 00       	cmpq   $0x0,-0x10(%rbp)
    c0c4:	74 0f                	je     c0d5 <safe_div_func_uint64_t_u_u+0x26>
    c0c6:	48 8b 45 f8          	mov    -0x8(%rbp),%rax
    c0ca:	ba 00 00 00 00       	mov    $0x0,%edx
    c0cf:	48 f7 75 f0          	divq   -0x10(%rbp)
    c0d3:	eb 04                	jmp    c0d9 <safe_div_func_uint64_t_u_u+0x2a>
    c0d5:	48 8b 45 f8          	mov    -0x8(%rbp),%rax
    c0d9:	5d                   	pop    %rbp
    c0da:	c3                   	retq   

000000000000c0db <safe_lshift_func_uint64_t_u_s>:
    c0db:	f3 0f 1e fa          	endbr64 
    c0df:	55                   	push   %rbp
    c0e0:	48 89 e5             	mov    %rsp,%rbp
    c0e3:	48 89 7d f8          	mov    %rdi,-0x8(%rbp)
    c0e7:	89 75 f4             	mov    %esi,-0xc(%rbp)
    c0ea:	83 7d f4 00          	cmpl   $0x0,-0xc(%rbp)
    c0ee:	78 2f                	js     c11f <safe_lshift_func_uint64_t_u_s+0x44>
    c0f0:	83 7d f4 1f          	cmpl   $0x1f,-0xc(%rbp)
    c0f4:	7f 29                	jg     c11f <safe_lshift_func_uint64_t_u_s+0x44>
    c0f6:	8b 45 f4             	mov    -0xc(%rbp),%eax
    c0f9:	48 c7 c2 ff ff ff ff 	mov    $0xffffffffffffffff,%rdx
    c100:	89 c1                	mov    %eax,%ecx
    c102:	48 d3 ea             	shr    %cl,%rdx
    c105:	48 89 d0             	mov    %rdx,%rax
    c108:	48 39 45 f8          	cmp    %rax,-0x8(%rbp)
    c10c:	77 11                	ja     c11f <safe_lshift_func_uint64_t_u_s+0x44>
    c10e:	8b 45 f4             	mov    -0xc(%rbp),%eax
    c111:	48 8b 55 f8          	mov    -0x8(%rbp),%rdx
    c115:	89 c1                	mov    %eax,%ecx
    c117:	48 d3 e2             	shl    %cl,%rdx
    c11a:	48 89 d0             	mov    %rdx,%rax
    c11d:	eb 04                	jmp    c123 <safe_lshift_func_uint64_t_u_s+0x48>
    c11f:	48 8b 45 f8          	mov    -0x8(%rbp),%rax
    c123:	5d                   	pop    %rbp
    c124:	c3                   	retq   

000000000000c125 <safe_lshift_func_uint64_t_u_u>:
    c125:	f3 0f 1e fa          	endbr64 
    c129:	55                   	push   %rbp
    c12a:	48 89 e5             	mov    %rsp,%rbp
    c12d:	48 89 7d f8          	mov    %rdi,-0x8(%rbp)
    c131:	89 75 f4             	mov    %esi,-0xc(%rbp)
    c134:	83 7d f4 1f          	cmpl   $0x1f,-0xc(%rbp)
    c138:	77 29                	ja     c163 <safe_lshift_func_uint64_t_u_u+0x3e>
    c13a:	8b 45 f4             	mov    -0xc(%rbp),%eax
    c13d:	48 c7 c2 ff ff ff ff 	mov    $0xffffffffffffffff,%rdx
    c144:	89 c1                	mov    %eax,%ecx
    c146:	48 d3 ea             	shr    %cl,%rdx
    c149:	48 89 d0             	mov    %rdx,%rax
    c14c:	48 39 45 f8          	cmp    %rax,-0x8(%rbp)
    c150:	77 11                	ja     c163 <safe_lshift_func_uint64_t_u_u+0x3e>
    c152:	8b 45 f4             	mov    -0xc(%rbp),%eax
    c155:	48 8b 55 f8          	mov    -0x8(%rbp),%rdx
    c159:	89 c1                	mov    %eax,%ecx
    c15b:	48 d3 e2             	shl    %cl,%rdx
    c15e:	48 89 d0             	mov    %rdx,%rax
    c161:	eb 04                	jmp    c167 <safe_lshift_func_uint64_t_u_u+0x42>
    c163:	48 8b 45 f8          	mov    -0x8(%rbp),%rax
    c167:	5d                   	pop    %rbp
    c168:	c3                   	retq   

000000000000c169 <safe_rshift_func_uint64_t_u_s>:
    c169:	f3 0f 1e fa          	endbr64 
    c16d:	55                   	push   %rbp
    c16e:	48 89 e5             	mov    %rsp,%rbp
    c171:	48 89 7d f8          	mov    %rdi,-0x8(%rbp)
    c175:	89 75 f4             	mov    %esi,-0xc(%rbp)
    c178:	83 7d f4 00          	cmpl   $0x0,-0xc(%rbp)
    c17c:	78 17                	js     c195 <safe_rshift_func_uint64_t_u_s+0x2c>
    c17e:	83 7d f4 1f          	cmpl   $0x1f,-0xc(%rbp)
    c182:	7f 11                	jg     c195 <safe_rshift_func_uint64_t_u_s+0x2c>
    c184:	8b 45 f4             	mov    -0xc(%rbp),%eax
    c187:	48 8b 55 f8          	mov    -0x8(%rbp),%rdx
    c18b:	89 c1                	mov    %eax,%ecx
    c18d:	48 d3 ea             	shr    %cl,%rdx
    c190:	48 89 d0             	mov    %rdx,%rax
    c193:	eb 04                	jmp    c199 <safe_rshift_func_uint64_t_u_s+0x30>
    c195:	48 8b 45 f8          	mov    -0x8(%rbp),%rax
    c199:	5d                   	pop    %rbp
    c19a:	c3                   	retq   

000000000000c19b <safe_rshift_func_uint64_t_u_u>:
    c19b:	f3 0f 1e fa          	endbr64 
    c19f:	55                   	push   %rbp
    c1a0:	48 89 e5             	mov    %rsp,%rbp
    c1a3:	48 89 7d f8          	mov    %rdi,-0x8(%rbp)
    c1a7:	89 75 f4             	mov    %esi,-0xc(%rbp)
    c1aa:	83 7d f4 1f          	cmpl   $0x1f,-0xc(%rbp)
    c1ae:	77 11                	ja     c1c1 <safe_rshift_func_uint64_t_u_u+0x26>
    c1b0:	8b 45 f4             	mov    -0xc(%rbp),%eax
    c1b3:	48 8b 55 f8          	mov    -0x8(%rbp),%rdx
    c1b7:	89 c1                	mov    %eax,%ecx
    c1b9:	48 d3 ea             	shr    %cl,%rdx
    c1bc:	48 89 d0             	mov    %rdx,%rax
    c1bf:	eb 04                	jmp    c1c5 <safe_rshift_func_uint64_t_u_u+0x2a>
    c1c1:	48 8b 45 f8          	mov    -0x8(%rbp),%rax
    c1c5:	5d                   	pop    %rbp
    c1c6:	c3                   	retq   

000000000000c1c7 <safe_add_func_float_f_f>:
    c1c7:	f3 0f 1e fa          	endbr64 
    c1cb:	55                   	push   %rbp
    c1cc:	48 89 e5             	mov    %rsp,%rbp
    c1cf:	f3 0f 11 45 fc       	movss  %xmm0,-0x4(%rbp)
    c1d4:	f3 0f 11 4d f8       	movss  %xmm1,-0x8(%rbp)
    c1d9:	f3 0f 10 4d fc       	movss  -0x4(%rbp),%xmm1
    c1de:	f3 0f 10 05 06 0d 01 	movss  0x10d06(%rip),%xmm0        # 1ceec <g_2850+0x1d8c>
    c1e5:	00 
    c1e6:	f3 0f 59 c8          	mulss  %xmm0,%xmm1
    c1ea:	f3 0f 10 55 f8       	movss  -0x8(%rbp),%xmm2
    c1ef:	f3 0f 10 05 f5 0c 01 	movss  0x10cf5(%rip),%xmm0        # 1ceec <g_2850+0x1d8c>
    c1f6:	00 
    c1f7:	f3 0f 59 c2          	mulss  %xmm2,%xmm0
    c1fb:	f3 0f 58 c1          	addss  %xmm1,%xmm0
    c1ff:	f3 0f 10 0d e9 0c 01 	movss  0x10ce9(%rip),%xmm1        # 1cef0 <g_2850+0x1d90>
    c206:	00 
    c207:	0f 54 c1             	andps  %xmm1,%xmm0
    c20a:	0f 2f 05 ef 0c 01 00 	comiss 0x10cef(%rip),%xmm0        # 1cf00 <g_2850+0x1da0>
    c211:	76 07                	jbe    c21a <safe_add_func_float_f_f+0x53>
    c213:	f3 0f 10 45 fc       	movss  -0x4(%rbp),%xmm0
    c218:	eb 0a                	jmp    c224 <safe_add_func_float_f_f+0x5d>
    c21a:	f3 0f 10 45 fc       	movss  -0x4(%rbp),%xmm0
    c21f:	f3 0f 58 45 f8       	addss  -0x8(%rbp),%xmm0
    c224:	5d                   	pop    %rbp
    c225:	c3                   	retq   

000000000000c226 <safe_sub_func_float_f_f>:
    c226:	f3 0f 1e fa          	endbr64 
    c22a:	55                   	push   %rbp
    c22b:	48 89 e5             	mov    %rsp,%rbp
    c22e:	f3 0f 11 45 fc       	movss  %xmm0,-0x4(%rbp)
    c233:	f3 0f 11 4d f8       	movss  %xmm1,-0x8(%rbp)
    c238:	f3 0f 10 4d fc       	movss  -0x4(%rbp),%xmm1
    c23d:	f3 0f 10 05 a7 0c 01 	movss  0x10ca7(%rip),%xmm0        # 1ceec <g_2850+0x1d8c>
    c244:	00 
    c245:	f3 0f 59 c1          	mulss  %xmm1,%xmm0
    c249:	f3 0f 10 55 f8       	movss  -0x8(%rbp),%xmm2
    c24e:	f3 0f 10 0d 96 0c 01 	movss  0x10c96(%rip),%xmm1        # 1ceec <g_2850+0x1d8c>
    c255:	00 
    c256:	f3 0f 59 ca          	mulss  %xmm2,%xmm1
    c25a:	f3 0f 5c c1          	subss  %xmm1,%xmm0
    c25e:	f3 0f 10 0d 8a 0c 01 	movss  0x10c8a(%rip),%xmm1        # 1cef0 <g_2850+0x1d90>
    c265:	00 
    c266:	0f 54 c1             	andps  %xmm1,%xmm0
    c269:	0f 2f 05 90 0c 01 00 	comiss 0x10c90(%rip),%xmm0        # 1cf00 <g_2850+0x1da0>
    c270:	76 07                	jbe    c279 <safe_sub_func_float_f_f+0x53>
    c272:	f3 0f 10 45 fc       	movss  -0x4(%rbp),%xmm0
    c277:	eb 0a                	jmp    c283 <safe_sub_func_float_f_f+0x5d>
    c279:	f3 0f 10 45 fc       	movss  -0x4(%rbp),%xmm0
    c27e:	f3 0f 5c 45 f8       	subss  -0x8(%rbp),%xmm0
    c283:	5d                   	pop    %rbp
    c284:	c3                   	retq   

000000000000c285 <safe_mul_func_float_f_f>:
    c285:	f3 0f 1e fa          	endbr64 
    c289:	55                   	push   %rbp
    c28a:	48 89 e5             	mov    %rsp,%rbp
    c28d:	f3 0f 11 45 fc       	movss  %xmm0,-0x4(%rbp)
    c292:	f3 0f 11 4d f8       	movss  %xmm1,-0x8(%rbp)
    c297:	f3 0f 10 4d fc       	movss  -0x4(%rbp),%xmm1
    c29c:	f3 0f 10 05 60 0c 01 	movss  0x10c60(%rip),%xmm0        # 1cf04 <g_2850+0x1da4>
    c2a3:	00 
    c2a4:	f3 0f 59 c8          	mulss  %xmm0,%xmm1
    c2a8:	f3 0f 10 55 f8       	movss  -0x8(%rbp),%xmm2
    c2ad:	f3 0f 10 05 53 0c 01 	movss  0x10c53(%rip),%xmm0        # 1cf08 <g_2850+0x1da8>
    c2b4:	00 
    c2b5:	f3 0f 59 c2          	mulss  %xmm2,%xmm0
    c2b9:	f3 0f 59 c1          	mulss  %xmm1,%xmm0
    c2bd:	f3 0f 10 0d 2b 0c 01 	movss  0x10c2b(%rip),%xmm1        # 1cef0 <g_2850+0x1d90>
    c2c4:	00 
    c2c5:	0f 54 c1             	andps  %xmm1,%xmm0
    c2c8:	0f 2f 05 3d 0c 01 00 	comiss 0x10c3d(%rip),%xmm0        # 1cf0c <g_2850+0x1dac>
    c2cf:	76 07                	jbe    c2d8 <safe_mul_func_float_f_f+0x53>
    c2d1:	f3 0f 10 45 fc       	movss  -0x4(%rbp),%xmm0
    c2d6:	eb 0a                	jmp    c2e2 <safe_mul_func_float_f_f+0x5d>
    c2d8:	f3 0f 10 45 fc       	movss  -0x4(%rbp),%xmm0
    c2dd:	f3 0f 59 45 f8       	mulss  -0x8(%rbp),%xmm0
    c2e2:	5d                   	pop    %rbp
    c2e3:	c3                   	retq   

000000000000c2e4 <safe_div_func_float_f_f>:
    c2e4:	f3 0f 1e fa          	endbr64 
    c2e8:	55                   	push   %rbp
    c2e9:	48 89 e5             	mov    %rsp,%rbp
    c2ec:	f3 0f 11 45 fc       	movss  %xmm0,-0x4(%rbp)
    c2f1:	f3 0f 11 4d f8       	movss  %xmm1,-0x8(%rbp)
    c2f6:	f3 0f 10 45 f8       	movss  -0x8(%rbp),%xmm0
    c2fb:	f3 0f 10 0d ed 0b 01 	movss  0x10bed(%rip),%xmm1        # 1cef0 <g_2850+0x1d90>
    c302:	00 
    c303:	0f 54 c8             	andps  %xmm0,%xmm1
    c306:	f3 0f 10 05 02 0c 01 	movss  0x10c02(%rip),%xmm0        # 1cf10 <g_2850+0x1db0>
    c30d:	00 
    c30e:	0f 2f c1             	comiss %xmm1,%xmm0
    c311:	0f 97 c0             	seta   %al
    c314:	83 f0 01             	xor    $0x1,%eax
    c317:	84 c0                	test   %al,%al
    c319:	75 56                	jne    c371 <safe_div_func_float_f_f+0x8d>
    c31b:	66 0f ef c0          	pxor   %xmm0,%xmm0
    c31f:	0f 2e 45 f8          	ucomiss -0x8(%rbp),%xmm0
    c323:	7a 0a                	jp     c32f <safe_div_func_float_f_f+0x4b>
    c325:	66 0f ef c0          	pxor   %xmm0,%xmm0
    c329:	0f 2e 45 f8          	ucomiss -0x8(%rbp),%xmm0
    c32d:	74 4e                	je     c37d <safe_div_func_float_f_f+0x99>
    c32f:	f3 0f 10 4d fc       	movss  -0x4(%rbp),%xmm1
    c334:	f3 0f 10 05 d8 0b 01 	movss  0x10bd8(%rip),%xmm0        # 1cf14 <g_2850+0x1db4>
    c33b:	00 
    c33c:	f3 0f 59 c1          	mulss  %xmm1,%xmm0
    c340:	f3 0f 10 55 f8       	movss  -0x8(%rbp),%xmm2
    c345:	f3 0f 10 0d cb 0b 01 	movss  0x10bcb(%rip),%xmm1        # 1cf18 <g_2850+0x1db8>
    c34c:	00 
    c34d:	f3 0f 59 ca          	mulss  %xmm2,%xmm1
    c351:	f3 0f 5e c1          	divss  %xmm1,%xmm0
    c355:	f3 0f 10 0d 93 0b 01 	movss  0x10b93(%rip),%xmm1        # 1cef0 <g_2850+0x1d90>
    c35c:	00 
    c35d:	0f 54 c1             	andps  %xmm1,%xmm0
    c360:	0f 2f 05 b5 0b 01 00 	comiss 0x10bb5(%rip),%xmm0        # 1cf1c <g_2850+0x1dbc>
    c367:	0f 97 c0             	seta   %al
    c36a:	83 f0 01             	xor    $0x1,%eax
    c36d:	84 c0                	test   %al,%al
    c36f:	74 0c                	je     c37d <safe_div_func_float_f_f+0x99>
    c371:	f3 0f 10 45 fc       	movss  -0x4(%rbp),%xmm0
    c376:	f3 0f 5e 45 f8       	divss  -0x8(%rbp),%xmm0
    c37b:	eb 05                	jmp    c382 <safe_div_func_float_f_f+0x9e>
    c37d:	f3 0f 10 45 fc       	movss  -0x4(%rbp),%xmm0
    c382:	5d                   	pop    %rbp
    c383:	c3                   	retq   

000000000000c384 <safe_add_func_double_f_f>:
    c384:	f3 0f 1e fa          	endbr64 
    c388:	55                   	push   %rbp
    c389:	48 89 e5             	mov    %rsp,%rbp
    c38c:	f2 0f 11 45 f8       	movsd  %xmm0,-0x8(%rbp)
    c391:	f2 0f 11 4d f0       	movsd  %xmm1,-0x10(%rbp)
    c396:	f2 0f 10 4d f8       	movsd  -0x8(%rbp),%xmm1
    c39b:	f2 0f 10 05 7d 0b 01 	movsd  0x10b7d(%rip),%xmm0        # 1cf20 <g_2850+0x1dc0>
    c3a2:	00 
    c3a3:	f2 0f 59 c8          	mulsd  %xmm0,%xmm1
    c3a7:	f2 0f 10 55 f0       	movsd  -0x10(%rbp),%xmm2
    c3ac:	f2 0f 10 05 6c 0b 01 	movsd  0x10b6c(%rip),%xmm0        # 1cf20 <g_2850+0x1dc0>
    c3b3:	00 
    c3b4:	f2 0f 59 c2          	mulsd  %xmm2,%xmm0
    c3b8:	f2 0f 58 c1          	addsd  %xmm1,%xmm0
    c3bc:	f3 0f 7e 0d 6c 0b 01 	movq   0x10b6c(%rip),%xmm1        # 1cf30 <g_2850+0x1dd0>
    c3c3:	00 
    c3c4:	66 0f 54 c1          	andpd  %xmm1,%xmm0
    c3c8:	66 0f 2f 05 70 0b 01 	comisd 0x10b70(%rip),%xmm0        # 1cf40 <g_2850+0x1de0>
    c3cf:	00 
    c3d0:	76 07                	jbe    c3d9 <safe_add_func_double_f_f+0x55>
    c3d2:	f2 0f 10 45 f8       	movsd  -0x8(%rbp),%xmm0
    c3d7:	eb 0a                	jmp    c3e3 <safe_add_func_double_f_f+0x5f>
    c3d9:	f2 0f 10 45 f8       	movsd  -0x8(%rbp),%xmm0
    c3de:	f2 0f 58 45 f0       	addsd  -0x10(%rbp),%xmm0
    c3e3:	5d                   	pop    %rbp
    c3e4:	c3                   	retq   

000000000000c3e5 <safe_sub_func_double_f_f>:
    c3e5:	f3 0f 1e fa          	endbr64 
    c3e9:	55                   	push   %rbp
    c3ea:	48 89 e5             	mov    %rsp,%rbp
    c3ed:	f2 0f 11 45 f8       	movsd  %xmm0,-0x8(%rbp)
    c3f2:	f2 0f 11 4d f0       	movsd  %xmm1,-0x10(%rbp)
    c3f7:	f2 0f 10 4d f8       	movsd  -0x8(%rbp),%xmm1
    c3fc:	f2 0f 10 05 1c 0b 01 	movsd  0x10b1c(%rip),%xmm0        # 1cf20 <g_2850+0x1dc0>
    c403:	00 
    c404:	f2 0f 59 c1          	mulsd  %xmm1,%xmm0
    c408:	f2 0f 10 55 f0       	movsd  -0x10(%rbp),%xmm2
    c40d:	f2 0f 10 0d 0b 0b 01 	movsd  0x10b0b(%rip),%xmm1        # 1cf20 <g_2850+0x1dc0>
    c414:	00 
    c415:	f2 0f 59 ca          	mulsd  %xmm2,%xmm1
    c419:	f2 0f 5c c1          	subsd  %xmm1,%xmm0
    c41d:	f3 0f 7e 0d 0b 0b 01 	movq   0x10b0b(%rip),%xmm1        # 1cf30 <g_2850+0x1dd0>
    c424:	00 
    c425:	66 0f 54 c1          	andpd  %xmm1,%xmm0
    c429:	66 0f 2f 05 0f 0b 01 	comisd 0x10b0f(%rip),%xmm0        # 1cf40 <g_2850+0x1de0>
    c430:	00 
    c431:	76 07                	jbe    c43a <safe_sub_func_double_f_f+0x55>
    c433:	f2 0f 10 45 f8       	movsd  -0x8(%rbp),%xmm0
    c438:	eb 0a                	jmp    c444 <safe_sub_func_double_f_f+0x5f>
    c43a:	f2 0f 10 45 f8       	movsd  -0x8(%rbp),%xmm0
    c43f:	f2 0f 5c 45 f0       	subsd  -0x10(%rbp),%xmm0
    c444:	5d                   	pop    %rbp
    c445:	c3                   	retq   

000000000000c446 <safe_mul_func_double_f_f>:
    c446:	f3 0f 1e fa          	endbr64 
    c44a:	55                   	push   %rbp
    c44b:	48 89 e5             	mov    %rsp,%rbp
    c44e:	f2 0f 11 45 f8       	movsd  %xmm0,-0x8(%rbp)
    c453:	f2 0f 11 4d f0       	movsd  %xmm1,-0x10(%rbp)
    c458:	f2 0f 10 4d f8       	movsd  -0x8(%rbp),%xmm1
    c45d:	f2 0f 10 05 e3 0a 01 	movsd  0x10ae3(%rip),%xmm0        # 1cf48 <g_2850+0x1de8>
    c464:	00 
    c465:	f2 0f 59 c8          	mulsd  %xmm0,%xmm1
    c469:	f2 0f 10 55 f0       	movsd  -0x10(%rbp),%xmm2
    c46e:	f2 0f 10 05 da 0a 01 	movsd  0x10ada(%rip),%xmm0        # 1cf50 <g_2850+0x1df0>
    c475:	00 
    c476:	f2 0f 59 c2          	mulsd  %xmm2,%xmm0
    c47a:	f2 0f 59 c1          	mulsd  %xmm1,%xmm0
    c47e:	f3 0f 7e 0d aa 0a 01 	movq   0x10aaa(%rip),%xmm1        # 1cf30 <g_2850+0x1dd0>
    c485:	00 
    c486:	66 0f 54 c1          	andpd  %xmm1,%xmm0
    c48a:	66 0f 2f 05 c6 0a 01 	comisd 0x10ac6(%rip),%xmm0        # 1cf58 <g_2850+0x1df8>
    c491:	00 
    c492:	76 07                	jbe    c49b <safe_mul_func_double_f_f+0x55>
    c494:	f2 0f 10 45 f8       	movsd  -0x8(%rbp),%xmm0
    c499:	eb 0a                	jmp    c4a5 <safe_mul_func_double_f_f+0x5f>
    c49b:	f2 0f 10 45 f8       	movsd  -0x8(%rbp),%xmm0
    c4a0:	f2 0f 59 45 f0       	mulsd  -0x10(%rbp),%xmm0
    c4a5:	5d                   	pop    %rbp
    c4a6:	c3                   	retq   

000000000000c4a7 <safe_div_func_double_f_f>:
    c4a7:	f3 0f 1e fa          	endbr64 
    c4ab:	55                   	push   %rbp
    c4ac:	48 89 e5             	mov    %rsp,%rbp
    c4af:	f2 0f 11 45 f8       	movsd  %xmm0,-0x8(%rbp)
    c4b4:	f2 0f 11 4d f0       	movsd  %xmm1,-0x10(%rbp)
    c4b9:	f2 0f 10 45 f0       	movsd  -0x10(%rbp),%xmm0
    c4be:	f3 0f 7e 0d 6a 0a 01 	movq   0x10a6a(%rip),%xmm1        # 1cf30 <g_2850+0x1dd0>
    c4c5:	00 
    c4c6:	66 0f 54 c8          	andpd  %xmm0,%xmm1
    c4ca:	f2 0f 10 05 8e 0a 01 	movsd  0x10a8e(%rip),%xmm0        # 1cf60 <g_2850+0x1e00>
    c4d1:	00 
    c4d2:	66 0f 2f c1          	comisd %xmm1,%xmm0
    c4d6:	0f 97 c0             	seta   %al
    c4d9:	83 f0 01             	xor    $0x1,%eax
    c4dc:	84 c0                	test   %al,%al
    c4de:	75 5a                	jne    c53a <safe_div_func_double_f_f+0x93>
    c4e0:	66 0f ef c0          	pxor   %xmm0,%xmm0
    c4e4:	66 0f 2e 45 f0       	ucomisd -0x10(%rbp),%xmm0
    c4e9:	7a 0b                	jp     c4f6 <safe_div_func_double_f_f+0x4f>
    c4eb:	66 0f ef c0          	pxor   %xmm0,%xmm0
    c4ef:	66 0f 2e 45 f0       	ucomisd -0x10(%rbp),%xmm0
    c4f4:	74 50                	je     c546 <safe_div_func_double_f_f+0x9f>
    c4f6:	f2 0f 10 4d f8       	movsd  -0x8(%rbp),%xmm1
    c4fb:	f2 0f 10 05 65 0a 01 	movsd  0x10a65(%rip),%xmm0        # 1cf68 <g_2850+0x1e08>
    c502:	00 
    c503:	f2 0f 59 c1          	mulsd  %xmm1,%xmm0
    c507:	f2 0f 10 55 f0       	movsd  -0x10(%rbp),%xmm2
    c50c:	f2 0f 10 0d 5c 0a 01 	movsd  0x10a5c(%rip),%xmm1        # 1cf70 <g_2850+0x1e10>
    c513:	00 
    c514:	f2 0f 59 ca          	mulsd  %xmm2,%xmm1
    c518:	f2 0f 5e c1          	divsd  %xmm1,%xmm0
    c51c:	f3 0f 7e 0d 0c 0a 01 	movq   0x10a0c(%rip),%xmm1        # 1cf30 <g_2850+0x1dd0>
    c523:	00 
    c524:	66 0f 54 c1          	andpd  %xmm1,%xmm0
    c528:	66 0f 2f 05 48 0a 01 	comisd 0x10a48(%rip),%xmm0        # 1cf78 <g_2850+0x1e18>
    c52f:	00 
    c530:	0f 97 c0             	seta   %al
    c533:	83 f0 01             	xor    $0x1,%eax
    c536:	84 c0                	test   %al,%al
    c538:	74 0c                	je     c546 <safe_div_func_double_f_f+0x9f>
    c53a:	f2 0f 10 45 f8       	movsd  -0x8(%rbp),%xmm0
    c53f:	f2 0f 5e 45 f0       	divsd  -0x10(%rbp),%xmm0
    c544:	eb 05                	jmp    c54b <safe_div_func_double_f_f+0xa4>
    c546:	f2 0f 10 45 f8       	movsd  -0x8(%rbp),%xmm0
    c54b:	5d                   	pop    %rbp
    c54c:	c3                   	retq   

000000000000c54d <safe_convert_func_float_to_int32_t>:
    c54d:	f3 0f 1e fa          	endbr64 
    c551:	55                   	push   %rbp
    c552:	48 89 e5             	mov    %rsp,%rbp
    c555:	f3 0f 11 45 fc       	movss  %xmm0,-0x4(%rbp)
    c55a:	f3 0f 10 05 1e 0a 01 	movss  0x10a1e(%rip),%xmm0        # 1cf80 <g_2850+0x1e20>
    c561:	00 
    c562:	0f 2f 45 fc          	comiss -0x4(%rbp),%xmm0
    c566:	0f 93 c0             	setae  %al
    c569:	83 f0 01             	xor    $0x1,%eax
    c56c:	84 c0                	test   %al,%al
    c56e:	74 21                	je     c591 <safe_convert_func_float_to_int32_t+0x44>
    c570:	f3 0f 10 45 fc       	movss  -0x4(%rbp),%xmm0
    c575:	0f 2f 05 08 0a 01 00 	comiss 0x10a08(%rip),%xmm0        # 1cf84 <g_2850+0x1e24>
    c57c:	0f 93 c0             	setae  %al
    c57f:	83 f0 01             	xor    $0x1,%eax
    c582:	84 c0                	test   %al,%al
    c584:	74 0b                	je     c591 <safe_convert_func_float_to_int32_t+0x44>
    c586:	f3 0f 10 45 fc       	movss  -0x4(%rbp),%xmm0
    c58b:	f3 0f 2c c0          	cvttss2si %xmm0,%eax
    c58f:	eb 05                	jmp    c596 <safe_convert_func_float_to_int32_t+0x49>
    c591:	b8 ff ff ff 7f       	mov    $0x7fffffff,%eax
    c596:	5d                   	pop    %rbp
    c597:	c3                   	retq   

000000000000c598 <crc32_gentab>:
    c598:	f3 0f 1e fa          	endbr64 
    c59c:	55                   	push   %rbp
    c59d:	48 89 e5             	mov    %rsp,%rbp
    c5a0:	c7 45 fc 20 83 b8 ed 	movl   $0xedb88320,-0x4(%rbp)
    c5a7:	c7 45 f4 00 00 00 00 	movl   $0x0,-0xc(%rbp)
    c5ae:	eb 51                	jmp    c601 <crc32_gentab+0x69>
    c5b0:	8b 45 f4             	mov    -0xc(%rbp),%eax
    c5b3:	89 45 f0             	mov    %eax,-0x10(%rbp)
    c5b6:	c7 45 f8 08 00 00 00 	movl   $0x8,-0x8(%rbp)
    c5bd:	eb 1e                	jmp    c5dd <crc32_gentab+0x45>
    c5bf:	8b 45 f0             	mov    -0x10(%rbp),%eax
    c5c2:	83 e0 01             	and    $0x1,%eax
    c5c5:	85 c0                	test   %eax,%eax
    c5c7:	74 0d                	je     c5d6 <crc32_gentab+0x3e>
    c5c9:	8b 45 f0             	mov    -0x10(%rbp),%eax
    c5cc:	d1 e8                	shr    %eax
    c5ce:	33 45 fc             	xor    -0x4(%rbp),%eax
    c5d1:	89 45 f0             	mov    %eax,-0x10(%rbp)
    c5d4:	eb 03                	jmp    c5d9 <crc32_gentab+0x41>
    c5d6:	d1 6d f0             	shrl   -0x10(%rbp)
    c5d9:	83 6d f8 01          	subl   $0x1,-0x8(%rbp)
    c5dd:	83 7d f8 00          	cmpl   $0x0,-0x8(%rbp)
    c5e1:	7f dc                	jg     c5bf <crc32_gentab+0x27>
    c5e3:	8b 45 f4             	mov    -0xc(%rbp),%eax
    c5e6:	48 98                	cltq   
    c5e8:	48 8d 0c 85 00 00 00 	lea    0x0(,%rax,4),%rcx
    c5ef:	00 
    c5f0:	48 8d 15 69 81 01 00 	lea    0x18169(%rip),%rdx        # 24760 <crc32_tab>
    c5f7:	8b 45 f0             	mov    -0x10(%rbp),%eax
    c5fa:	89 04 11             	mov    %eax,(%rcx,%rdx,1)
    c5fd:	83 45 f4 01          	addl   $0x1,-0xc(%rbp)
    c601:	81 7d f4 ff 00 00 00 	cmpl   $0xff,-0xc(%rbp)
    c608:	7e a6                	jle    c5b0 <crc32_gentab+0x18>
    c60a:	90                   	nop
    c60b:	90                   	nop
    c60c:	5d                   	pop    %rbp
    c60d:	c3                   	retq   

000000000000c60e <crc32_byte>:
    c60e:	f3 0f 1e fa          	endbr64 
    c612:	55                   	push   %rbp
    c613:	48 89 e5             	mov    %rsp,%rbp
    c616:	89 f8                	mov    %edi,%eax
    c618:	88 45 fc             	mov    %al,-0x4(%rbp)
    c61b:	8b 05 ff 39 01 00    	mov    0x139ff(%rip),%eax        # 20020 <crc32_context>
    c621:	c1 e8 08             	shr    $0x8,%eax
    c624:	89 c1                	mov    %eax,%ecx
    c626:	0f b6 55 fc          	movzbl -0x4(%rbp),%edx
    c62a:	8b 05 f0 39 01 00    	mov    0x139f0(%rip),%eax        # 20020 <crc32_context>
    c630:	31 d0                	xor    %edx,%eax
    c632:	0f b6 c0             	movzbl %al,%eax
    c635:	89 c0                	mov    %eax,%eax
    c637:	48 8d 14 85 00 00 00 	lea    0x0(,%rax,4),%rdx
    c63e:	00 
    c63f:	48 8d 05 1a 81 01 00 	lea    0x1811a(%rip),%rax        # 24760 <crc32_tab>
    c646:	8b 04 02             	mov    (%rdx,%rax,1),%eax
    c649:	31 c8                	xor    %ecx,%eax
    c64b:	89 05 cf 39 01 00    	mov    %eax,0x139cf(%rip)        # 20020 <crc32_context>
    c651:	90                   	nop
    c652:	5d                   	pop    %rbp
    c653:	c3                   	retq   

000000000000c654 <crc32_8bytes>:
    c654:	f3 0f 1e fa          	endbr64 
    c658:	55                   	push   %rbp
    c659:	48 89 e5             	mov    %rsp,%rbp
    c65c:	48 83 ec 08          	sub    $0x8,%rsp
    c660:	48 89 7d f8          	mov    %rdi,-0x8(%rbp)
    c664:	48 8b 45 f8          	mov    -0x8(%rbp),%rax
    c668:	0f b6 c0             	movzbl %al,%eax
    c66b:	89 c7                	mov    %eax,%edi
    c66d:	e8 9c ff ff ff       	callq  c60e <crc32_byte>
    c672:	48 8b 45 f8          	mov    -0x8(%rbp),%rax
    c676:	48 c1 e8 08          	shr    $0x8,%rax
    c67a:	0f b6 c0             	movzbl %al,%eax
    c67d:	89 c7                	mov    %eax,%edi
    c67f:	e8 8a ff ff ff       	callq  c60e <crc32_byte>
    c684:	48 8b 45 f8          	mov    -0x8(%rbp),%rax
    c688:	48 c1 e8 10          	shr    $0x10,%rax
    c68c:	0f b6 c0             	movzbl %al,%eax
    c68f:	89 c7                	mov    %eax,%edi
    c691:	e8 78 ff ff ff       	callq  c60e <crc32_byte>
    c696:	48 8b 45 f8          	mov    -0x8(%rbp),%rax
    c69a:	48 c1 e8 18          	shr    $0x18,%rax
    c69e:	0f b6 c0             	movzbl %al,%eax
    c6a1:	89 c7                	mov    %eax,%edi
    c6a3:	e8 66 ff ff ff       	callq  c60e <crc32_byte>
    c6a8:	48 8b 45 f8          	mov    -0x8(%rbp),%rax
    c6ac:	48 c1 e8 20          	shr    $0x20,%rax
    c6b0:	0f b6 c0             	movzbl %al,%eax
    c6b3:	89 c7                	mov    %eax,%edi
    c6b5:	e8 54 ff ff ff       	callq  c60e <crc32_byte>
    c6ba:	48 8b 45 f8          	mov    -0x8(%rbp),%rax
    c6be:	48 c1 e8 28          	shr    $0x28,%rax
    c6c2:	0f b6 c0             	movzbl %al,%eax
    c6c5:	89 c7                	mov    %eax,%edi
    c6c7:	e8 42 ff ff ff       	callq  c60e <crc32_byte>
    c6cc:	48 8b 45 f8          	mov    -0x8(%rbp),%rax
    c6d0:	48 c1 e8 30          	shr    $0x30,%rax
    c6d4:	0f b6 c0             	movzbl %al,%eax
    c6d7:	89 c7                	mov    %eax,%edi
    c6d9:	e8 30 ff ff ff       	callq  c60e <crc32_byte>
    c6de:	48 8b 45 f8          	mov    -0x8(%rbp),%rax
    c6e2:	48 c1 e8 38          	shr    $0x38,%rax
    c6e6:	0f b6 c0             	movzbl %al,%eax
    c6e9:	89 c7                	mov    %eax,%edi
    c6eb:	e8 1e ff ff ff       	callq  c60e <crc32_byte>
    c6f0:	90                   	nop
    c6f1:	c9                   	leaveq 
    c6f2:	c3                   	retq   

000000000000c6f3 <transparent_crc>:
    c6f3:	f3 0f 1e fa          	endbr64 
    c6f7:	55                   	push   %rbp
    c6f8:	48 89 e5             	mov    %rsp,%rbp
    c6fb:	48 83 ec 20          	sub    $0x20,%rsp
    c6ff:	48 89 7d f8          	mov    %rdi,-0x8(%rbp)
    c703:	48 89 75 f0          	mov    %rsi,-0x10(%rbp)
    c707:	89 55 ec             	mov    %edx,-0x14(%rbp)
    c70a:	48 8b 45 f8          	mov    -0x8(%rbp),%rax
    c70e:	48 89 c7             	mov    %rax,%rdi
    c711:	e8 3e ff ff ff       	callq  c654 <crc32_8bytes>
    c716:	83 7d ec 00          	cmpl   $0x0,-0x14(%rbp)
    c71a:	74 22                	je     c73e <transparent_crc+0x4b>
    c71c:	8b 05 fe 38 01 00    	mov    0x138fe(%rip),%eax        # 20020 <crc32_context>
    c722:	f7 d0                	not    %eax
    c724:	89 c2                	mov    %eax,%edx
    c726:	48 8b 45 f0          	mov    -0x10(%rbp),%rax
    c72a:	48 89 c6             	mov    %rax,%rsi
    c72d:	48 8d 3d fc e8 00 00 	lea    0xe8fc(%rip),%rdi        # 1b030 <_IO_stdin_used+0x30>
    c734:	b8 00 00 00 00       	mov    $0x0,%eax
    c739:	e8 42 e9 ff ff       	callq  b080 <printf@plt>
    c73e:	90                   	nop
    c73f:	c9                   	leaveq 
    c740:	c3                   	retq   

000000000000c741 <transparent_crc_bytes>:
    c741:	f3 0f 1e fa          	endbr64 
    c745:	55                   	push   %rbp
    c746:	48 89 e5             	mov    %rsp,%rbp
    c749:	48 83 ec 30          	sub    $0x30,%rsp
    c74d:	48 89 7d e8          	mov    %rdi,-0x18(%rbp)
    c751:	89 75 e4             	mov    %esi,-0x1c(%rbp)
    c754:	48 89 55 d8          	mov    %rdx,-0x28(%rbp)
    c758:	89 4d e0             	mov    %ecx,-0x20(%rbp)
    c75b:	c7 45 fc 00 00 00 00 	movl   $0x0,-0x4(%rbp)
    c762:	eb 1e                	jmp    c782 <transparent_crc_bytes+0x41>
    c764:	8b 45 fc             	mov    -0x4(%rbp),%eax
    c767:	48 63 d0             	movslq %eax,%rdx
    c76a:	48 8b 45 e8          	mov    -0x18(%rbp),%rax
    c76e:	48 01 d0             	add    %rdx,%rax
    c771:	0f b6 00             	movzbl (%rax),%eax
    c774:	0f b6 c0             	movzbl %al,%eax
    c777:	89 c7                	mov    %eax,%edi
    c779:	e8 90 fe ff ff       	callq  c60e <crc32_byte>
    c77e:	83 45 fc 01          	addl   $0x1,-0x4(%rbp)
    c782:	8b 45 fc             	mov    -0x4(%rbp),%eax
    c785:	3b 45 e4             	cmp    -0x1c(%rbp),%eax
    c788:	7c da                	jl     c764 <transparent_crc_bytes+0x23>
    c78a:	83 7d e0 00          	cmpl   $0x0,-0x20(%rbp)
    c78e:	74 22                	je     c7b2 <transparent_crc_bytes+0x71>
    c790:	8b 05 8a 38 01 00    	mov    0x1388a(%rip),%eax        # 20020 <crc32_context>
    c796:	f7 d0                	not    %eax
    c798:	89 c2                	mov    %eax,%edx
    c79a:	48 8b 45 d8          	mov    -0x28(%rbp),%rax
    c79e:	48 89 c6             	mov    %rax,%rsi
    c7a1:	48 8d 3d 88 e8 00 00 	lea    0xe888(%rip),%rdi        # 1b030 <_IO_stdin_used+0x30>
    c7a8:	b8 00 00 00 00       	mov    $0x0,%eax
    c7ad:	e8 ce e8 ff ff       	callq  b080 <printf@plt>
    c7b2:	90                   	nop
    c7b3:	c9                   	leaveq 
    c7b4:	c3                   	retq   

000000000000c7b5 <func_1>:
    c7b5:	f3 0f 1e fa          	endbr64 
    c7b9:	55                   	push   %rbp
    c7ba:	48 89 e5             	mov    %rsp,%rbp
    c7bd:	48 81 ec a0 06 00 00 	sub    $0x6a0,%rsp
    c7c4:	64 48 8b 04 25 28 00 	mov    %fs:0x28,%rax
    c7cb:	00 00 
    c7cd:	48 89 45 f8          	mov    %rax,-0x8(%rbp)
    c7d1:	31 c0                	xor    %eax,%eax
    c7d3:	c7 85 8c f9 ff ff 01 	movl   $0x1,-0x674(%rbp)
    c7da:	00 00 00 
    c7dd:	c7 85 90 f9 ff ff 01 	movl   $0x1,-0x670(%rbp)
    c7e4:	00 00 00 
    c7e7:	48 c7 85 e8 f9 ff ff 	movq   $0x0,-0x618(%rbp)
    c7ee:	00 00 00 00 
    c7f2:	48 8d 85 a0 fc ff ff 	lea    -0x360(%rbp),%rax
    c7f9:	48 8d 15 60 40 01 00 	lea    0x14060(%rip),%rdx        # 20860 <g_2871+0x18>
    c800:	b9 32 00 00 00       	mov    $0x32,%ecx
    c805:	48 89 c7             	mov    %rax,%rdi
    c808:	48 89 d6             	mov    %rdx,%rsi
    c80b:	f3 48 a5             	rep movsq %ds:(%rsi),%es:(%rdi)
    c80e:	c7 85 94 f9 ff ff ff 	movl   $0xffffffff,-0x66c(%rbp)
    c815:	ff ff ff 
    c818:	c7 85 98 f9 ff ff 75 	movl   $0xd3954c75,-0x668(%rbp)
    c81f:	4c 95 d3 
    c822:	48 8d 05 3f 3c 01 00 	lea    0x13c3f(%rip),%rax        # 20468 <g_482>
    c829:	48 89 85 f0 f9 ff ff 	mov    %rax,-0x610(%rbp)
    c830:	48 c7 85 f8 f9 ff ff 	movq   $0x0,-0x608(%rbp)
    c837:	00 00 00 00 
    c83b:	48 8d 05 d6 3b 01 00 	lea    0x13bd6(%rip),%rax        # 20418 <g_478+0x18>
    c842:	48 89 85 00 fa ff ff 	mov    %rax,-0x600(%rbp)
    c849:	c6 85 6b f9 ff ff 57 	movb   $0x57,-0x695(%rbp)
    c850:	48 8d 05 71 3d 01 00 	lea    0x13d71(%rip),%rax        # 205c8 <g_1388>
    c857:	48 89 85 08 fa ff ff 	mov    %rax,-0x5f8(%rbp)
    c85e:	c7 85 9c f9 ff ff f8 	movl   $0xfffffff8,-0x664(%rbp)
    c865:	ff ff ff 
    c868:	48 8d 05 31 62 01 00 	lea    0x16231(%rip),%rax        # 22aa0 <g_549>
    c86f:	48 89 85 b8 f9 ff ff 	mov    %rax,-0x648(%rbp)
    c876:	48 8d 85 b8 f9 ff ff 	lea    -0x648(%rbp),%rax
    c87d:	48 89 85 10 fa ff ff 	mov    %rax,-0x5f0(%rbp)
    c884:	c7 85 a0 f9 ff ff 00 	movl   $0x0,-0x660(%rbp)
    c88b:	00 00 00 
    c88e:	c7 85 7c f9 ff ff 39 	movl   $0x45904a39,-0x684(%rbp)
    c895:	4a 90 45 
    c898:	48 8d 05 01 5a 01 00 	lea    0x15a01(%rip),%rax        # 222a0 <g_155>
    c89f:	48 89 85 c0 f9 ff ff 	mov    %rax,-0x640(%rbp)
    c8a6:	48 8d 85 c0 f9 ff ff 	lea    -0x640(%rbp),%rax
    c8ad:	48 89 85 c8 f9 ff ff 	mov    %rax,-0x638(%rbp)
    c8b4:	48 8d 85 c8 f9 ff ff 	lea    -0x638(%rbp),%rax
    c8bb:	48 89 85 18 fa ff ff 	mov    %rax,-0x5e8(%rbp)
    c8c2:	48 b8 7b ab 6e 98 ba 	movabs $0xa70a65ba986eab7b,%rax
    c8c9:	65 0a a7 
    c8cc:	48 89 85 20 fa ff ff 	mov    %rax,-0x5e0(%rbp)
    c8d3:	c7 85 a4 f9 ff ff 04 	movl   $0x4,-0x65c(%rbp)
    c8da:	00 00 00 
    c8dd:	48 c7 85 28 fa ff ff 	movq   $0x0,-0x5d8(%rbp)
    c8e4:	00 00 00 00 
    c8e8:	66 c7 85 72 f9 ff ff 	movw   $0xffff,-0x68e(%rbp)
    c8ef:	ff ff 
    c8f1:	c6 85 6c f9 ff ff ff 	movb   $0xff,-0x694(%rbp)
    c8f8:	c7 85 20 fc ff ff 01 	movl   $0x1,-0x3e0(%rbp)
    c8ff:	00 00 00 
    c902:	c7 85 24 fc ff ff f6 	movl   $0x4ff7f0f6,-0x3dc(%rbp)
    c909:	f0 f7 4f 
    c90c:	c7 85 28 fc ff ff 0c 	movl   $0xe27c620c,-0x3d8(%rbp)
    c913:	62 7c e2 
    c916:	c7 85 2c fc ff ff f6 	movl   $0x4ff7f0f6,-0x3d4(%rbp)
    c91d:	f0 f7 4f 
    c920:	c7 85 30 fc ff ff 01 	movl   $0x1,-0x3d0(%rbp)
    c927:	00 00 00 
    c92a:	c7 85 34 fc ff ff f6 	movl   $0x4ff7f0f6,-0x3cc(%rbp)
    c931:	f0 f7 4f 
    c934:	c7 85 38 fc ff ff 0c 	movl   $0xe27c620c,-0x3c8(%rbp)
    c93b:	62 7c e2 
    c93e:	c7 85 3c fc ff ff f6 	movl   $0x4ff7f0f6,-0x3c4(%rbp)
    c945:	f0 f7 4f 
    c948:	c7 85 40 fc ff ff 01 	movl   $0x1,-0x3c0(%rbp)
    c94f:	00 00 00 
    c952:	c7 85 44 fc ff ff f6 	movl   $0x4ff7f0f6,-0x3bc(%rbp)
    c959:	f0 f7 4f 
    c95c:	c7 85 48 fc ff ff 0c 	movl   $0xe27c620c,-0x3b8(%rbp)
    c963:	62 7c e2 
    c966:	c7 85 4c fc ff ff f6 	movl   $0x4ff7f0f6,-0x3b4(%rbp)
    c96d:	f0 f7 4f 
    c970:	c7 85 50 fc ff ff 01 	movl   $0x1,-0x3b0(%rbp)
    c977:	00 00 00 
    c97a:	c7 85 54 fc ff ff f6 	movl   $0x4ff7f0f6,-0x3ac(%rbp)
    c981:	f0 f7 4f 
    c984:	c7 85 58 fc ff ff 0c 	movl   $0xe27c620c,-0x3a8(%rbp)
    c98b:	62 7c e2 
    c98e:	c7 85 5c fc ff ff f6 	movl   $0x4ff7f0f6,-0x3a4(%rbp)
    c995:	f0 f7 4f 
    c998:	c7 85 60 fc ff ff 01 	movl   $0x1,-0x3a0(%rbp)
    c99f:	00 00 00 
    c9a2:	c7 85 64 fc ff ff f6 	movl   $0x4ff7f0f6,-0x39c(%rbp)
    c9a9:	f0 f7 4f 
    c9ac:	c7 85 68 fc ff ff 0c 	movl   $0xe27c620c,-0x398(%rbp)
    c9b3:	62 7c e2 
    c9b6:	c7 85 6c fc ff ff f6 	movl   $0x4ff7f0f6,-0x394(%rbp)
    c9bd:	f0 f7 4f 
    c9c0:	c7 85 70 fc ff ff 01 	movl   $0x1,-0x390(%rbp)
    c9c7:	00 00 00 
    c9ca:	c7 85 74 fc ff ff f6 	movl   $0x4ff7f0f6,-0x38c(%rbp)
    c9d1:	f0 f7 4f 
    c9d4:	c7 85 78 fc ff ff 0c 	movl   $0xe27c620c,-0x388(%rbp)
    c9db:	62 7c e2 
    c9de:	c7 85 7c fc ff ff f6 	movl   $0x4ff7f0f6,-0x384(%rbp)
    c9e5:	f0 f7 4f 
    c9e8:	c7 85 80 fc ff ff 01 	movl   $0x1,-0x380(%rbp)
    c9ef:	00 00 00 
    c9f2:	c7 85 84 fc ff ff f6 	movl   $0x4ff7f0f6,-0x37c(%rbp)
    c9f9:	f0 f7 4f 
    c9fc:	c7 85 88 fc ff ff 0c 	movl   $0xe27c620c,-0x378(%rbp)
    ca03:	62 7c e2 
    ca06:	c7 85 8c fc ff ff f6 	movl   $0x4ff7f0f6,-0x374(%rbp)
    ca0d:	f0 f7 4f 
    ca10:	c7 85 90 fc ff ff 01 	movl   $0x1,-0x370(%rbp)
    ca17:	00 00 00 
    ca1a:	c7 85 94 fc ff ff f6 	movl   $0x4ff7f0f6,-0x36c(%rbp)
    ca21:	f0 f7 4f 
    ca24:	c7 85 98 fc ff ff 0c 	movl   $0xe27c620c,-0x368(%rbp)
    ca2b:	62 7c e2 
    ca2e:	c7 85 9c fc ff ff f6 	movl   $0x4ff7f0f6,-0x364(%rbp)
    ca35:	f0 f7 4f 
    ca38:	c7 85 80 fb ff ff ff 	movl   $0xffffffff,-0x480(%rbp)
    ca3f:	ff ff ff 
    ca42:	c7 85 84 fb ff ff eb 	movl   $0xd54848eb,-0x47c(%rbp)
    ca49:	48 48 d5 
    ca4c:	c7 85 88 fb ff ff eb 	movl   $0xd54848eb,-0x478(%rbp)
    ca53:	48 48 d5 
    ca56:	c7 85 8c fb ff ff ff 	movl   $0xffffffff,-0x474(%rbp)
    ca5d:	ff ff ff 
    ca60:	c7 85 90 fb ff ff eb 	movl   $0xd54848eb,-0x470(%rbp)
    ca67:	48 48 d5 
    ca6a:	c7 85 94 fb ff ff eb 	movl   $0xd54848eb,-0x46c(%rbp)
    ca71:	48 48 d5 
    ca74:	c7 85 98 fb ff ff ff 	movl   $0xffffffff,-0x468(%rbp)
    ca7b:	ff ff ff 
    ca7e:	c7 85 9c fb ff ff eb 	movl   $0xd54848eb,-0x464(%rbp)
    ca85:	48 48 d5 
    ca88:	c7 85 a0 fb ff ff eb 	movl   $0xd54848eb,-0x460(%rbp)
    ca8f:	48 48 d5 
    ca92:	c7 85 a4 fb ff ff ff 	movl   $0xffffffff,-0x45c(%rbp)
    ca99:	ff ff ff 
    ca9c:	c7 85 a8 fb ff ff eb 	movl   $0xd54848eb,-0x458(%rbp)
    caa3:	48 48 d5 
    caa6:	c7 85 ac fb ff ff eb 	movl   $0xd54848eb,-0x454(%rbp)
    caad:	48 48 d5 
    cab0:	c7 85 b0 fb ff ff ff 	movl   $0xffffffff,-0x450(%rbp)
    cab7:	ff ff ff 
    caba:	c7 85 b4 fb ff ff eb 	movl   $0xd54848eb,-0x44c(%rbp)
    cac1:	48 48 d5 
    cac4:	c7 85 b8 fb ff ff eb 	movl   $0xd54848eb,-0x448(%rbp)
    cacb:	48 48 d5 
    cace:	c7 85 bc fb ff ff ff 	movl   $0xffffffff,-0x444(%rbp)
    cad5:	ff ff ff 
    cad8:	c7 85 c0 fb ff ff eb 	movl   $0xd54848eb,-0x440(%rbp)
    cadf:	48 48 d5 
    cae2:	c7 85 c4 fb ff ff eb 	movl   $0xd54848eb,-0x43c(%rbp)
    cae9:	48 48 d5 
    caec:	c7 85 c8 fb ff ff ff 	movl   $0xffffffff,-0x438(%rbp)
    caf3:	ff ff ff 
    caf6:	c7 85 cc fb ff ff eb 	movl   $0xd54848eb,-0x434(%rbp)
    cafd:	48 48 d5 
    cb00:	48 8d 05 f1 60 01 00 	lea    0x160f1(%rip),%rax        # 22bf8 <g_1939>
    cb07:	48 89 85 d0 f9 ff ff 	mov    %rax,-0x630(%rbp)
    cb0e:	48 8d 85 d0 f9 ff ff 	lea    -0x630(%rbp),%rax
    cb15:	48 89 85 30 fa ff ff 	mov    %rax,-0x5d0(%rbp)
    cb1c:	66 c7 85 74 f9 ff ff 	movw   $0x1,-0x68c(%rbp)
    cb23:	01 00 
    cb25:	48 8d 05 cc 57 01 00 	lea    0x157cc(%rip),%rax        # 222f8 <g_431>
    cb2c:	48 89 85 38 fa ff ff 	mov    %rax,-0x5c8(%rbp)
    cb33:	48 8d 05 b2 3b 01 00 	lea    0x13bb2(%rip),%rax        # 206ec <g_1815+0x1c>
    cb3a:	48 89 85 40 fa ff ff 	mov    %rax,-0x5c0(%rbp)
    cb41:	48 b8 49 4b 58 60 fb 	movabs $0x944318fb60584b49,%rax
    cb48:	18 43 94 
    cb4b:	48 89 85 48 fa ff ff 	mov    %rax,-0x5b8(%rbp)
    cb52:	48 8d 05 9f 57 01 00 	lea    0x1579f(%rip),%rax        # 222f8 <g_431>
    cb59:	48 89 85 50 fa ff ff 	mov    %rax,-0x5b0(%rbp)
    cb60:	66 c7 85 76 f9 ff ff 	movw   $0x370d,-0x68a(%rbp)
    cb67:	0d 37 
    cb69:	c6 85 6d f9 ff ff 02 	movb   $0x2,-0x693(%rbp)
    cb70:	c7 85 a8 f9 ff ff f2 	movl   $0x555794f2,-0x658(%rbp)
    cb77:	94 57 55 
    cb7a:	c6 85 6e f9 ff ff 64 	movb   $0x64,-0x692(%rbp)
    cb81:	c7 85 ac f9 ff ff 01 	movl   $0x1,-0x654(%rbp)
    cb88:	00 00 00 
    cb8b:	c6 85 6f f9 ff ff 31 	movb   $0x31,-0x691(%rbp)
    cb92:	48 b8 c3 14 96 bb ea 	movabs $0xaa25d0eabb9614c3,%rax
    cb99:	d0 25 aa 
    cb9c:	48 89 85 58 fa ff ff 	mov    %rax,-0x5a8(%rbp)
    cba3:	48 8d 05 f6 77 01 00 	lea    0x177f6(%rip),%rax        # 243a0 <g_2243>
    cbaa:	48 89 85 60 fa ff ff 	mov    %rax,-0x5a0(%rbp)
    cbb1:	c6 85 70 f9 ff ff 97 	movb   $0x97,-0x690(%rbp)
    cbb8:	48 c7 85 68 fa ff ff 	movq   $0x0,-0x598(%rbp)
    cbbf:	00 00 00 00 
    cbc3:	48 8d 05 d6 7f 01 00 	lea    0x17fd6(%rip),%rax        # 24ba0 <g_898>
    cbca:	48 89 85 d8 f9 ff ff 	mov    %rax,-0x628(%rbp)
    cbd1:	48 8d 85 d8 f9 ff ff 	lea    -0x628(%rbp),%rax
    cbd8:	48 89 85 e0 f9 ff ff 	mov    %rax,-0x620(%rbp)
    cbdf:	66 c7 85 78 f9 ff ff 	movw   $0x0,-0x688(%rbp)
    cbe6:	00 00 
    cbe8:	66 c7 85 7a f9 ff ff 	movw   $0xffff,-0x686(%rbp)
    cbef:	ff ff 
    cbf1:	48 8d 85 e0 f9 ff ff 	lea    -0x620(%rbp),%rax
    cbf8:	48 89 85 70 fa ff ff 	mov    %rax,-0x590(%rbp)
    cbff:	c7 85 b0 f9 ff ff fd 	movl   $0xfffffffd,-0x650(%rbp)
    cc06:	ff ff ff 
    cc09:	48 8d 05 90 3a 01 00 	lea    0x13a90(%rip),%rax        # 206a0 <g_1725>
    cc10:	48 89 85 78 fa ff ff 	mov    %rax,-0x588(%rbp)
    cc17:	c6 85 71 f9 ff ff 6f 	movb   $0x6f,-0x68f(%rbp)
    cc1e:	48 8d 85 7c f9 ff ff 	lea    -0x684(%rbp),%rax
    cc25:	48 89 85 80 fa ff ff 	mov    %rax,-0x580(%rbp)
    cc2c:	48 c7 85 88 fa ff ff 	movq   $0x0,-0x578(%rbp)
    cc33:	00 00 00 00 
    cc37:	48 8d 05 ba 3a 01 00 	lea    0x13aba(%rip),%rax        # 206f8 <g_2008>
    cc3e:	48 89 85 d0 fb ff ff 	mov    %rax,-0x430(%rbp)
    cc45:	48 8d 05 70 39 01 00 	lea    0x13970(%rip),%rax        # 205bc <g_1154+0xc>
    cc4c:	48 89 85 d8 fb ff ff 	mov    %rax,-0x428(%rbp)
    cc53:	48 8d 05 9e 3a 01 00 	lea    0x13a9e(%rip),%rax        # 206f8 <g_2008>
    cc5a:	48 89 85 e0 fb ff ff 	mov    %rax,-0x420(%rbp)
    cc61:	48 8d 05 e8 33 01 00 	lea    0x133e8(%rip),%rax        # 20050 <g_105>
    cc68:	48 89 85 e8 fb ff ff 	mov    %rax,-0x418(%rbp)
    cc6f:	48 8d 05 da 33 01 00 	lea    0x133da(%rip),%rax        # 20050 <g_105>
    cc76:	48 89 85 f0 fb ff ff 	mov    %rax,-0x410(%rbp)
    cc7d:	48 8d 05 74 3a 01 00 	lea    0x13a74(%rip),%rax        # 206f8 <g_2008>
    cc84:	48 89 85 f8 fb ff ff 	mov    %rax,-0x408(%rbp)
    cc8b:	48 8d 05 2a 39 01 00 	lea    0x1392a(%rip),%rax        # 205bc <g_1154+0xc>
    cc92:	48 89 85 00 fc ff ff 	mov    %rax,-0x400(%rbp)
    cc99:	48 8d 05 58 3a 01 00 	lea    0x13a58(%rip),%rax        # 206f8 <g_2008>
    cca0:	48 89 85 08 fc ff ff 	mov    %rax,-0x3f8(%rbp)
    cca7:	48 8d 05 a2 33 01 00 	lea    0x133a2(%rip),%rax        # 20050 <g_105>
    ccae:	48 89 85 10 fc ff ff 	mov    %rax,-0x3f0(%rbp)
    ccb5:	48 8d 05 94 33 01 00 	lea    0x13394(%rip),%rax        # 20050 <g_105>
    ccbc:	48 89 85 18 fc ff ff 	mov    %rax,-0x3e8(%rbp)
    ccc3:	c7 85 d0 fa ff ff f8 	movl   $0xfffffff8,-0x530(%rbp)
    ccca:	ff ff ff 
    cccd:	c7 85 d4 fa ff ff 02 	movl   $0x2,-0x52c(%rbp)
    ccd4:	00 00 00 
    ccd7:	c7 85 d8 fa ff ff f8 	movl   $0xfffffff8,-0x528(%rbp)
    ccde:	ff ff ff 
    cce1:	c7 85 dc fa ff ff f8 	movl   $0xfffffff8,-0x524(%rbp)
    cce8:	ff ff ff 
    cceb:	c7 85 e0 fa ff ff 02 	movl   $0x2,-0x520(%rbp)
    ccf2:	00 00 00 
    ccf5:	c7 85 e4 fa ff ff f8 	movl   $0xfffffff8,-0x51c(%rbp)
    ccfc:	ff ff ff 
    ccff:	c7 85 e8 fa ff ff f8 	movl   $0xfffffff8,-0x518(%rbp)
    cd06:	ff ff ff 
    cd09:	c7 85 ec fa ff ff 02 	movl   $0x2,-0x514(%rbp)
    cd10:	00 00 00 
    cd13:	c7 85 f0 fa ff ff f8 	movl   $0xfffffff8,-0x510(%rbp)
    cd1a:	ff ff ff 
    cd1d:	c7 85 b4 f9 ff ff cd 	movl   $0xe92491cd,-0x64c(%rbp)
    cd24:	91 24 e9 
    cd27:	c7 85 80 f9 ff ff 00 	movl   $0x0,-0x680(%rbp)
    cd2e:	00 00 00 
    cd31:	eb 1b                	jmp    cd4e <func_1+0x599>
    cd33:	8b 85 80 f9 ff ff    	mov    -0x680(%rbp),%eax
    cd39:	48 98                	cltq   
    cd3b:	48 c7 84 c5 30 fb ff 	movq   $0x0,-0x4d0(%rbp,%rax,8)
    cd42:	ff 00 00 00 00 
    cd47:	83 85 80 f9 ff ff 01 	addl   $0x1,-0x680(%rbp)
    cd4e:	83 bd 80 f9 ff ff 08 	cmpl   $0x8,-0x680(%rbp)
    cd55:	7e dc                	jle    cd33 <func_1+0x57e>
    cd57:	c7 85 80 f9 ff ff 00 	movl   $0x0,-0x680(%rbp)
    cd5e:	00 00 00 
    cd61:	eb 78                	jmp    cddb <func_1+0x626>
    cd63:	c7 85 84 f9 ff ff 00 	movl   $0x0,-0x67c(%rbp)
    cd6a:	00 00 00 
    cd6d:	eb 5c                	jmp    cdcb <func_1+0x616>
    cd6f:	c7 85 88 f9 ff ff 00 	movl   $0x0,-0x678(%rbp)
    cd76:	00 00 00 
    cd79:	eb 40                	jmp    cdbb <func_1+0x606>
    cd7b:	8b 85 88 f9 ff ff    	mov    -0x678(%rbp),%eax
    cd81:	48 63 c8             	movslq %eax,%rcx
    cd84:	8b 85 80 f9 ff ff    	mov    -0x680(%rbp),%eax
    cd8a:	48 63 d0             	movslq %eax,%rdx
    cd8d:	8b 85 84 f9 ff ff    	mov    -0x67c(%rbp),%eax
    cd93:	48 63 f0             	movslq %eax,%rsi
    cd96:	48 89 d0             	mov    %rdx,%rax
    cd99:	48 c1 e0 03          	shl    $0x3,%rax
    cd9d:	48 29 d0             	sub    %rdx,%rax
    cda0:	48 01 f0             	add    %rsi,%rax
    cda3:	48 01 c0             	add    %rax,%rax
    cda6:	48 01 c8             	add    %rcx,%rax
    cda9:	c7 84 85 30 fe ff ff 	movl   $0x995b69b0,-0x1d0(%rbp,%rax,4)
    cdb0:	b0 69 5b 99 
    cdb4:	83 85 88 f9 ff ff 01 	addl   $0x1,-0x678(%rbp)
    cdbb:	83 bd 88 f9 ff ff 01 	cmpl   $0x1,-0x678(%rbp)
    cdc2:	7e b7                	jle    cd7b <func_1+0x5c6>
    cdc4:	83 85 84 f9 ff ff 01 	addl   $0x1,-0x67c(%rbp)
    cdcb:	83 bd 84 f9 ff ff 06 	cmpl   $0x6,-0x67c(%rbp)
    cdd2:	7e 9b                	jle    cd6f <func_1+0x5ba>
    cdd4:	83 85 80 f9 ff ff 01 	addl   $0x1,-0x680(%rbp)
    cddb:	83 bd 80 f9 ff ff 07 	cmpl   $0x7,-0x680(%rbp)
    cde2:	0f 8e 7b ff ff ff    	jle    cd63 <func_1+0x5ae>
    cde8:	c7 85 80 f9 ff ff 00 	movl   $0x0,-0x680(%rbp)
    cdef:	00 00 00 
    cdf2:	eb 1a                	jmp    ce0e <func_1+0x659>
    cdf4:	8b 85 80 f9 ff ff    	mov    -0x680(%rbp),%eax
    cdfa:	48 98                	cltq   
    cdfc:	c7 84 85 b0 fa ff ff 	movl   $0x1c4c24fc,-0x550(%rbp,%rax,4)
    ce03:	fc 24 4c 1c 
    ce07:	83 85 80 f9 ff ff 01 	addl   $0x1,-0x680(%rbp)
    ce0e:	83 bd 80 f9 ff ff 07 	cmpl   $0x7,-0x680(%rbp)
    ce15:	7e dd                	jle    cdf4 <func_1+0x63f>
    ce17:	c7 85 80 f9 ff ff 00 	movl   $0x0,-0x680(%rbp)
    ce1e:	00 00 00 
    ce21:	eb 21                	jmp    ce44 <func_1+0x68f>
    ce23:	8b 85 80 f9 ff ff    	mov    -0x680(%rbp),%eax
    ce29:	48 98                	cltq   
    ce2b:	48 bf 0b 83 90 5e a0 	movabs $0x44f290a05e90830b,%rdi
    ce32:	90 f2 44 
    ce35:	48 89 bc c5 90 fa ff 	mov    %rdi,-0x570(%rbp,%rax,8)
    ce3c:	ff 
    ce3d:	83 85 80 f9 ff ff 01 	addl   $0x1,-0x680(%rbp)
    ce44:	83 bd 80 f9 ff ff 01 	cmpl   $0x1,-0x680(%rbp)
    ce4b:	7e d6                	jle    ce23 <func_1+0x66e>
    ce4d:	c7 85 80 f9 ff ff 00 	movl   $0x0,-0x680(%rbp)
    ce54:	00 00 00 
    ce57:	eb 1a                	jmp    ce73 <func_1+0x6be>
    ce59:	8b 85 80 f9 ff ff    	mov    -0x680(%rbp),%eax
    ce5f:	48 98                	cltq   
    ce61:	c7 84 85 a0 fa ff ff 	movl   $0x3aca477c,-0x560(%rbp,%rax,4)
    ce68:	7c 47 ca 3a 
    ce6c:	83 85 80 f9 ff ff 01 	addl   $0x1,-0x680(%rbp)
    ce73:	83 bd 80 f9 ff ff 03 	cmpl   $0x3,-0x680(%rbp)
    ce7a:	7e dd                	jle    ce59 <func_1+0x6a4>
    ce7c:	c7 85 80 f9 ff ff 00 	movl   $0x0,-0x680(%rbp)
    ce83:	00 00 00 
    ce86:	eb 1b                	jmp    cea3 <func_1+0x6ee>
    ce88:	8b 85 80 f9 ff ff    	mov    -0x680(%rbp),%eax
    ce8e:	48 98                	cltq   
    ce90:	48 c7 84 c5 00 fb ff 	movq   $0x3,-0x500(%rbp,%rax,8)
    ce97:	ff 03 00 00 00 
    ce9c:	83 85 80 f9 ff ff 01 	addl   $0x1,-0x680(%rbp)
    cea3:	83 bd 80 f9 ff ff 05 	cmpl   $0x5,-0x680(%rbp)
    ceaa:	7e dc                	jle    ce88 <func_1+0x6d3>
    ceac:	8b 85 b4 f9 ff ff    	mov    -0x64c(%rbp),%eax
    ceb2:	48 8b 4d f8          	mov    -0x8(%rbp),%rcx
    ceb6:	64 48 33 0c 25 28 00 	xor    %fs:0x28,%rcx
    cebd:	00 00 
    cebf:	74 05                	je     cec6 <func_1+0x711>
    cec1:	e8 aa e1 ff ff       	callq  b070 <__stack_chk_fail@plt>
    cec6:	c9                   	leaveq 
    cec7:	c3                   	retq   

000000000000cec8 <func_2>:
    cec8:	f3 0f 1e fa          	endbr64 
    cecc:	55                   	push   %rbp
    cecd:	48 89 e5             	mov    %rsp,%rbp
    ced0:	41 57                	push   %r15
    ced2:	41 56                	push   %r14
    ced4:	41 55                	push   %r13
    ced6:	41 54                	push   %r12
    ced8:	53                   	push   %rbx
    ced9:	48 81 ec 48 0c 00 00 	sub    $0xc48,%rsp
    cee0:	89 f9                	mov    %edi,%ecx
    cee2:	89 f0                	mov    %esi,%eax
    cee4:	89 95 a4 f3 ff ff    	mov    %edx,-0xc5c(%rbp)
    ceea:	89 ca                	mov    %ecx,%edx
    ceec:	88 95 ac f3 ff ff    	mov    %dl,-0xc54(%rbp)
    cef2:	66 89 85 a8 f3 ff ff 	mov    %ax,-0xc58(%rbp)
    cef9:	64 48 8b 04 25 28 00 	mov    %fs:0x28,%rax
    cf00:	00 00 
    cf02:	48 89 45 c8          	mov    %rax,-0x38(%rbp)
    cf06:	31 c0                	xor    %eax,%eax
    cf08:	48 8d 05 09 35 01 00 	lea    0x13509(%rip),%rax        # 20418 <g_478+0x18>
    cf0f:	48 89 85 30 f4 ff ff 	mov    %rax,-0xbd0(%rbp)
    cf16:	c7 85 f0 f4 ff ff ff 	movl   $0xffffffff,-0xb10(%rbp)
    cf1d:	ff ff ff 
    cf20:	c7 85 f4 f4 ff ff ff 	movl   $0xffffffff,-0xb0c(%rbp)
    cf27:	ff ff ff 
    cf2a:	c7 85 f8 f4 ff ff ff 	movl   $0xffffffff,-0xb08(%rbp)
    cf31:	ff ff ff 
    cf34:	c7 85 fc f4 ff ff ff 	movl   $0xffffffff,-0xb04(%rbp)
    cf3b:	ff ff ff 
    cf3e:	c7 85 00 f5 ff ff ff 	movl   $0xffffffff,-0xb00(%rbp)
    cf45:	ff ff ff 
    cf48:	66 c7 85 b4 f3 ff ff 	movw   $0xe1aa,-0xc4c(%rbp)
    cf4f:	aa e1 
    cf51:	48 b8 f8 00 00 f8 0b 	movabs $0xf80bf80000f8,%rax
    cf58:	f8 00 00 
    cf5b:	48 89 85 10 f5 ff ff 	mov    %rax,-0xaf0(%rbp)
    cf62:	66 c7 85 18 f5 ff ff 	movw   $0xbf8,-0xae8(%rbp)
    cf69:	f8 0b 
    cf6b:	48 89 85 1a f5 ff ff 	mov    %rax,-0xae6(%rbp)
    cf72:	66 c7 85 22 f5 ff ff 	movw   $0xbf8,-0xade(%rbp)
    cf79:	f8 0b 
    cf7b:	c7 85 50 f5 ff ff 00 	movl   $0x0,-0xab0(%rbp)
    cf82:	00 00 00 
    cf85:	c7 85 54 f5 ff ff 07 	movl   $0x7,-0xaac(%rbp)
    cf8c:	00 00 00 
    cf8f:	c7 85 58 f5 ff ff 07 	movl   $0x7,-0xaa8(%rbp)
    cf96:	00 00 00 
    cf99:	c7 85 5c f5 ff ff 00 	movl   $0x0,-0xaa4(%rbp)
    cfa0:	00 00 00 
    cfa3:	c7 85 60 f5 ff ff 19 	movl   $0xe0559919,-0xaa0(%rbp)
    cfaa:	99 55 e0 
    cfad:	c7 85 64 f5 ff ff f5 	movl   $0xaf4aa6f5,-0xa9c(%rbp)
    cfb4:	a6 4a af 
    cfb7:	c7 85 68 f5 ff ff 00 	movl   $0x0,-0xa98(%rbp)
    cfbe:	00 00 00 
    cfc1:	c7 85 6c f5 ff ff 00 	movl   $0x0,-0xa94(%rbp)
    cfc8:	00 00 00 
    cfcb:	c7 85 70 f5 ff ff f5 	movl   $0xaf4aa6f5,-0xa90(%rbp)
    cfd2:	a6 4a af 
    cfd5:	c7 85 74 f5 ff ff 05 	movl   $0x5,-0xa8c(%rbp)
    cfdc:	00 00 00 
    cfdf:	c7 85 78 f5 ff ff 00 	movl   $0x0,-0xa88(%rbp)
    cfe6:	00 00 00 
    cfe9:	c7 85 7c f5 ff ff 07 	movl   $0x7,-0xa84(%rbp)
    cff0:	00 00 00 
    cff3:	c7 85 80 f5 ff ff 07 	movl   $0x7,-0xa80(%rbp)
    cffa:	00 00 00 
    cffd:	c7 85 84 f5 ff ff 00 	movl   $0x0,-0xa7c(%rbp)
    d004:	00 00 00 
    d007:	c7 85 88 f5 ff ff 19 	movl   $0xe0559919,-0xa78(%rbp)
    d00e:	99 55 e0 
    d011:	c7 85 8c f5 ff ff f5 	movl   $0xaf4aa6f5,-0xa74(%rbp)
    d018:	a6 4a af 
    d01b:	c7 85 90 f5 ff ff 00 	movl   $0x0,-0xa70(%rbp)
    d022:	00 00 00 
    d025:	c7 85 94 f5 ff ff 00 	movl   $0x0,-0xa6c(%rbp)
    d02c:	00 00 00 
    d02f:	c7 85 98 f5 ff ff f5 	movl   $0xaf4aa6f5,-0xa68(%rbp)
    d036:	a6 4a af 
    d039:	c7 85 9c f5 ff ff 05 	movl   $0x5,-0xa64(%rbp)
    d040:	00 00 00 
    d043:	c7 85 a0 f5 ff ff 00 	movl   $0x0,-0xa60(%rbp)
    d04a:	00 00 00 
    d04d:	c7 85 a4 f5 ff ff 07 	movl   $0x7,-0xa5c(%rbp)
    d054:	00 00 00 
    d057:	c7 85 a8 f5 ff ff 07 	movl   $0x7,-0xa58(%rbp)
    d05e:	00 00 00 
    d061:	c7 85 ac f5 ff ff 00 	movl   $0x0,-0xa54(%rbp)
    d068:	00 00 00 
    d06b:	c7 85 b0 f5 ff ff 19 	movl   $0xe0559919,-0xa50(%rbp)
    d072:	99 55 e0 
    d075:	c7 85 b4 f5 ff ff f5 	movl   $0xaf4aa6f5,-0xa4c(%rbp)
    d07c:	a6 4a af 
    d07f:	c7 85 b8 f5 ff ff f5 	movl   $0xaf4aa6f5,-0xa48(%rbp)
    d086:	a6 4a af 
    d089:	c7 85 bc f5 ff ff f5 	movl   $0xaf4aa6f5,-0xa44(%rbp)
    d090:	a6 4a af 
    d093:	c7 85 c0 f5 ff ff 0b 	movl   $0x88292c0b,-0xa40(%rbp)
    d09a:	2c 29 88 
    d09d:	c7 85 c4 f5 ff ff cc 	movl   $0x3894a4cc,-0xa3c(%rbp)
    d0a4:	a4 94 38 
    d0a7:	c7 85 d4 f3 ff ff 01 	movl   $0x1,-0xc2c(%rbp)
    d0ae:	00 00 00 
    d0b1:	48 8d 05 48 52 01 00 	lea    0x15248(%rip),%rax        # 22300 <g_496>
    d0b8:	48 89 85 38 f4 ff ff 	mov    %rax,-0xbc8(%rbp)
    d0bf:	48 8d 85 b0 fa ff ff 	lea    -0x550(%rbp),%rax
    d0c6:	48 8d 15 33 39 01 00 	lea    0x13933(%rip),%rdx        # 20a00 <g_2871+0x1b8>
    d0cd:	b9 a2 00 00 00       	mov    $0xa2,%ecx
    d0d2:	48 89 c7             	mov    %rax,%rdi
    d0d5:	48 89 d6             	mov    %rdx,%rsi
    d0d8:	f3 48 a5             	rep movsq %ds:(%rsi),%es:(%rdi)
    d0db:	c7 85 c0 f3 ff ff 00 	movl   $0x0,-0xc40(%rbp)
    d0e2:	00 00 00 
    d0e5:	eb 1b                	jmp    d102 <func_2+0x23a>
    d0e7:	8b 85 c0 f3 ff ff    	mov    -0xc40(%rbp),%eax
    d0ed:	48 98                	cltq   
    d0ef:	48 c7 84 c5 e0 f4 ff 	movq   $0x0,-0xb20(%rbp,%rax,8)
    d0f6:	ff 00 00 00 00 
    d0fb:	83 85 c0 f3 ff ff 01 	addl   $0x1,-0xc40(%rbp)
    d102:	83 bd c0 f3 ff ff 01 	cmpl   $0x1,-0xc40(%rbp)
    d109:	7e dc                	jle    d0e7 <func_2+0x21f>
    d10b:	90                   	nop
    d10c:	48 8b 05 cd 59 01 00 	mov    0x159cd(%rip),%rax        # 22ae0 <g_943>
    d113:	48 8b 95 30 f4 ff ff 	mov    -0xbd0(%rbp),%rdx
    d11a:	48 89 10             	mov    %rdx,(%rax)
    d11d:	c7 05 81 34 01 00 00 	movl   $0x0,0x13481(%rip)        # 205a8 <g_1121>
    d124:	00 00 00 
    d127:	e9 2c 13 00 00       	jmpq   e458 <func_2+0x1590>
    d12c:	c7 85 d8 f3 ff ff 70 	movl   $0xa0eaeb70,-0xc28(%rbp)
    d133:	eb ea a0 
    d136:	c7 85 c4 f3 ff ff 00 	movl   $0x0,-0xc3c(%rbp)
    d13d:	00 00 00 
    d140:	c7 85 dc f3 ff ff 17 	movl   $0x830bdf17,-0xc24(%rbp)
    d147:	df 0b 83 
    d14a:	c7 85 b8 f3 ff ff ad 	movl   $0xf4f7ccad,-0xc48(%rbp)
    d151:	cc f7 f4 
    d154:	c7 85 e0 f3 ff ff c0 	movl   $0xaad7fc0,-0xc20(%rbp)
    d15b:	7f ad 0a 
    d15e:	c7 85 e4 f3 ff ff ff 	movl   $0xffffffff,-0xc1c(%rbp)
    d165:	ff ff ff 
    d168:	c7 85 e8 f3 ff ff e6 	movl   $0x289234e6,-0xc18(%rbp)
    d16f:	34 92 28 
    d172:	c7 05 d8 2e 01 00 04 	movl   $0x4,0x12ed8(%rip)        # 20054 <g_115>
    d179:	00 00 00 
    d17c:	e9 27 0f 00 00       	jmpq   e0a8 <func_2+0x11e0>
    d181:	c7 85 fc f3 ff ff 91 	movl   $0xc8b2591,-0xc04(%rbp)
    d188:	25 8b 0c 
    d18b:	c7 85 00 f4 ff ff 01 	movl   $0x1,-0xc00(%rbp)
    d192:	00 00 00 
    d195:	c7 85 04 f4 ff ff 45 	movl   $0x5b525645,-0xbfc(%rbp)
    d19c:	56 52 5b 
    d19f:	c7 85 bc f3 ff ff 7d 	movl   $0x1b48787d,-0xc44(%rbp)
    d1a6:	78 48 1b 
    d1a9:	66 c7 85 b6 f3 ff ff 	movw   $0xfff7,-0xc4a(%rbp)
    d1b0:	f7 ff 
    d1b2:	c7 85 a4 f3 ff ff 6c 	movl   $0x3cac5e6c,-0xc5c(%rbp)
    d1b9:	5e ac 3c 
    d1bc:	48 8b 85 30 f4 ff ff 	mov    -0xbd0(%rbp),%rax
    d1c3:	8b 00                	mov    (%rax),%eax
    d1c5:	85 c0                	test   %eax,%eax
    d1c7:	0f 84 96 06 00 00    	je     d863 <func_2+0x99b>
    d1cd:	48 b8 80 6f eb bd 14 	movabs $0x7192fb14bdeb6f80,%rax
    d1d4:	fb 92 71 
    d1d7:	48 89 85 58 f4 ff ff 	mov    %rax,-0xba8(%rbp)
    d1de:	c7 85 08 f4 ff ff 01 	movl   $0x1,-0xbf8(%rbp)
    d1e5:	00 00 00 
    d1e8:	c7 85 0c f4 ff ff fa 	movl   $0xfffffffa,-0xbf4(%rbp)
    d1ef:	ff ff ff 
    d1f2:	c7 05 4c 32 01 00 00 	movl   $0x0,0x1324c(%rip)        # 20448 <g_480+0x8>
    d1f9:	00 00 00 
    d1fc:	e9 51 06 00 00       	jmpq   d852 <func_2+0x98a>
    d201:	48 8d 05 a0 33 01 00 	lea    0x133a0(%rip),%rax        # 205a8 <g_1121>
    d208:	48 89 85 d0 f5 ff ff 	mov    %rax,-0xa30(%rbp)
    d20f:	48 c7 85 d8 f5 ff ff 	movq   $0x0,-0xa28(%rbp)
    d216:	00 00 00 00 
    d21a:	48 8d 05 87 33 01 00 	lea    0x13387(%rip),%rax        # 205a8 <g_1121>
    d221:	48 89 85 e0 f5 ff ff 	mov    %rax,-0xa20(%rbp)
    d228:	48 c7 85 e8 f5 ff ff 	movq   $0x0,-0xa18(%rbp)
    d22f:	00 00 00 00 
    d233:	48 8d 05 6e 33 01 00 	lea    0x1336e(%rip),%rax        # 205a8 <g_1121>
    d23a:	48 89 85 f0 f5 ff ff 	mov    %rax,-0xa10(%rbp)
    d241:	48 c7 85 f8 f5 ff ff 	movq   $0x0,-0xa08(%rbp)
    d248:	00 00 00 00 
    d24c:	48 8d 05 55 33 01 00 	lea    0x13355(%rip),%rax        # 205a8 <g_1121>
    d253:	48 89 85 00 f6 ff ff 	mov    %rax,-0xa00(%rbp)
    d25a:	48 c7 85 08 f6 ff ff 	movq   $0x0,-0x9f8(%rbp)
    d261:	00 00 00 00 
    d265:	48 8d 05 3c 33 01 00 	lea    0x1333c(%rip),%rax        # 205a8 <g_1121>
    d26c:	48 89 85 10 f6 ff ff 	mov    %rax,-0x9f0(%rbp)
    d273:	48 c7 85 18 f6 ff ff 	movq   $0x0,-0x9e8(%rbp)
    d27a:	00 00 00 00 
    d27e:	48 8d 05 23 33 01 00 	lea    0x13323(%rip),%rax        # 205a8 <g_1121>
    d285:	48 89 85 20 f6 ff ff 	mov    %rax,-0x9e0(%rbp)
    d28c:	48 c7 85 28 f6 ff ff 	movq   $0x0,-0x9d8(%rbp)
    d293:	00 00 00 00 
    d297:	48 8d 05 0a 33 01 00 	lea    0x1330a(%rip),%rax        # 205a8 <g_1121>
    d29e:	48 89 85 30 f6 ff ff 	mov    %rax,-0x9d0(%rbp)
    d2a5:	48 c7 85 38 f6 ff ff 	movq   $0x0,-0x9c8(%rbp)
    d2ac:	00 00 00 00 
    d2b0:	48 8d 05 f1 32 01 00 	lea    0x132f1(%rip),%rax        # 205a8 <g_1121>
    d2b7:	48 89 85 40 f6 ff ff 	mov    %rax,-0x9c0(%rbp)
    d2be:	48 c7 85 48 f6 ff ff 	movq   $0x0,-0x9b8(%rbp)
    d2c5:	00 00 00 00 
    d2c9:	48 8d 05 d8 32 01 00 	lea    0x132d8(%rip),%rax        # 205a8 <g_1121>
    d2d0:	48 89 85 50 f6 ff ff 	mov    %rax,-0x9b0(%rbp)
    d2d7:	48 c7 85 58 f6 ff ff 	movq   $0x0,-0x9a8(%rbp)
    d2de:	00 00 00 00 
    d2e2:	48 8d 05 bf 32 01 00 	lea    0x132bf(%rip),%rax        # 205a8 <g_1121>
    d2e9:	48 89 85 60 f6 ff ff 	mov    %rax,-0x9a0(%rbp)
    d2f0:	48 c7 85 68 f6 ff ff 	movq   $0x0,-0x998(%rbp)
    d2f7:	00 00 00 00 
    d2fb:	48 8d 05 a6 32 01 00 	lea    0x132a6(%rip),%rax        # 205a8 <g_1121>
    d302:	48 89 85 70 f6 ff ff 	mov    %rax,-0x990(%rbp)
    d309:	48 c7 85 78 f6 ff ff 	movq   $0x0,-0x988(%rbp)
    d310:	00 00 00 00 
    d314:	48 8d 05 8d 32 01 00 	lea    0x1328d(%rip),%rax        # 205a8 <g_1121>
    d31b:	48 89 85 80 f6 ff ff 	mov    %rax,-0x980(%rbp)
    d322:	48 c7 85 88 f6 ff ff 	movq   $0x0,-0x978(%rbp)
    d329:	00 00 00 00 
    d32d:	48 8d 05 74 32 01 00 	lea    0x13274(%rip),%rax        # 205a8 <g_1121>
    d334:	48 89 85 90 f6 ff ff 	mov    %rax,-0x970(%rbp)
    d33b:	48 c7 85 98 f6 ff ff 	movq   $0x0,-0x968(%rbp)
    d342:	00 00 00 00 
    d346:	48 8d 05 5b 32 01 00 	lea    0x1325b(%rip),%rax        # 205a8 <g_1121>
    d34d:	48 89 85 a0 f6 ff ff 	mov    %rax,-0x960(%rbp)
    d354:	48 c7 85 a8 f6 ff ff 	movq   $0x0,-0x958(%rbp)
    d35b:	00 00 00 00 
    d35f:	48 8d 05 42 32 01 00 	lea    0x13242(%rip),%rax        # 205a8 <g_1121>
    d366:	48 89 85 b0 f6 ff ff 	mov    %rax,-0x950(%rbp)
    d36d:	48 c7 85 b8 f6 ff ff 	movq   $0x0,-0x948(%rbp)
    d374:	00 00 00 00 
    d378:	48 8d 05 29 32 01 00 	lea    0x13229(%rip),%rax        # 205a8 <g_1121>
    d37f:	48 89 85 c0 f6 ff ff 	mov    %rax,-0x940(%rbp)
    d386:	48 c7 85 c8 f6 ff ff 	movq   $0x0,-0x938(%rbp)
    d38d:	00 00 00 00 
    d391:	48 c7 85 60 f4 ff ff 	movq   $0x1,-0xba0(%rbp)
    d398:	01 00 00 00 
    d39c:	c6 85 b2 f3 ff ff 18 	movb   $0x18,-0xc4e(%rbp)
    d3a3:	48 c7 85 68 f4 ff ff 	movq   $0x0,-0xb98(%rbp)
    d3aa:	00 00 00 00 
    d3ae:	48 8d 05 f5 2f 01 00 	lea    0x12ff5(%rip),%rax        # 203aa <g_146+0x4>
    d3b5:	48 89 85 70 f4 ff ff 	mov    %rax,-0xb90(%rbp)
    d3bc:	48 8d 05 31 2d 01 00 	lea    0x12d31(%rip),%rax        # 200f4 <g_117+0x74>
    d3c3:	48 89 85 78 f4 ff ff 	mov    %rax,-0xb88(%rbp)
    d3ca:	48 83 85 60 f4 ff ff 	addq   $0x1,-0xba0(%rbp)
    d3d1:	01 
    d3d2:	48 8b 85 58 f4 ff ff 	mov    -0xba8(%rbp),%rax
    d3d9:	89 85 a0 f3 ff ff    	mov    %eax,-0xc60(%rbp)
    d3df:	48 8b 85 58 f4 ff ff 	mov    -0xba8(%rbp),%rax
    d3e6:	89 85 9c f3 ff ff    	mov    %eax,-0xc64(%rbp)
    d3ec:	0f b7 85 a8 f3 ff ff 	movzwl -0xc58(%rbp),%eax
    d3f3:	0f b6 d8             	movzbl %al,%ebx
    d3f6:	8b 05 4c 30 01 00    	mov    0x1304c(%rip),%eax        # 20448 <g_480+0x8>
    d3fc:	48 98                	cltq   
    d3fe:	48 8d 14 00          	lea    (%rax,%rax,1),%rdx
    d402:	48 8d 05 4f 2c 01 00 	lea    0x12c4f(%rip),%rax        # 20058 <g_116>
    d409:	0f b7 04 02          	movzwl (%rdx,%rax,1),%eax
    d40d:	44 0f bf f0          	movswl %ax,%r14d
    d411:	44 0f bf a5 a8 f3 ff 	movswl -0xc58(%rbp),%r12d
    d418:	ff 
    d419:	48 8b 05 88 56 01 00 	mov    0x15688(%rip),%rax        # 22aa8 <g_548>
    d420:	48 8b 00             	mov    (%rax),%rax
    d423:	0f b7 00             	movzwl (%rax),%eax
    d426:	66 85 c0             	test   %ax,%ax
    d429:	74 5a                	je     d485 <func_2+0x5bd>
    d42b:	44 0f b6 bd b2 f3 ff 	movzbl -0xc4e(%rbp),%r15d
    d432:	ff 
    d433:	48 8b 85 30 f4 ff ff 	mov    -0xbd0(%rbp),%rax
    d43a:	8b 00                	mov    (%rax),%eax
    d43c:	be 01 00 00 00       	mov    $0x1,%esi
    d441:	89 c7                	mov    %eax,%edi
    d443:	e8 bd e1 ff ff       	callq  b605 <safe_sub_func_int32_t_s_s>
    d448:	41 89 c5             	mov    %eax,%r13d
    d44b:	0f bf 95 a8 f3 ff ff 	movswl -0xc58(%rbp),%edx
    d452:	48 c7 c0 f6 ff ff ff 	mov    $0xfffffffffffffff6,%rax
    d459:	48 f7 d0             	not    %rax
    d45c:	48 89 c1             	mov    %rax,%rcx
    d45f:	48 8b 05 62 31 01 00 	mov    0x13162(%rip),%rax        # 205c8 <g_1388>
    d466:	48 39 c1             	cmp    %rax,%rcx
    d469:	0f 92 c0             	setb   %al
    d46c:	0f b6 c0             	movzbl %al,%eax
    d46f:	89 d6                	mov    %edx,%esi
    d471:	89 c7                	mov    %eax,%edi
    d473:	e8 1a e0 ff ff       	callq  b492 <safe_lshift_func_int16_t_s_s>
    d478:	98                   	cwtl   
    d479:	41 39 c5             	cmp    %eax,%r13d
    d47c:	0f 9c c0             	setl   %al
    d47f:	0f b6 c0             	movzbl %al,%eax
    d482:	41 39 c7             	cmp    %eax,%r15d
    d485:	48 8b 8d 58 f4 ff ff 	mov    -0xba8(%rbp),%rcx
    d48c:	8b 05 b6 2f 01 00    	mov    0x12fb6(%rip),%eax        # 20448 <g_480+0x8>
    d492:	8d 50 04             	lea    0x4(%rax),%edx
    d495:	8b 05 ad 2f 01 00    	mov    0x12fad(%rip),%eax        # 20448 <g_480+0x8>
    d49b:	8d 78 04             	lea    0x4(%rax),%edi
    d49e:	8b 05 a4 2f 01 00    	mov    0x12fa4(%rip),%eax        # 20448 <g_480+0x8>
    d4a4:	48 63 f0             	movslq %eax,%rsi
    d4a7:	48 63 d2             	movslq %edx,%rdx
    d4aa:	48 63 ff             	movslq %edi,%rdi
    d4ad:	48 89 d0             	mov    %rdx,%rax
    d4b0:	48 c1 e0 02          	shl    $0x2,%rax
    d4b4:	48 01 d0             	add    %rdx,%rax
    d4b7:	48 01 c0             	add    %rax,%rax
    d4ba:	48 01 f8             	add    %rdi,%rax
    d4bd:	48 01 c0             	add    %rax,%rax
    d4c0:	48 01 f0             	add    %rsi,%rax
    d4c3:	48 8d 14 85 00 00 00 	lea    0x0(,%rax,4),%rdx
    d4ca:	00 
    d4cb:	48 8d 05 ae 2b 01 00 	lea    0x12bae(%rip),%rax        # 20080 <g_117>
    d4d2:	8b 04 02             	mov    (%rdx,%rax,1),%eax
    d4d5:	89 c2                	mov    %eax,%edx
    d4d7:	89 c8                	mov    %ecx,%eax
    d4d9:	89 d1                	mov    %edx,%ecx
    d4db:	09 c1                	or     %eax,%ecx
    d4dd:	8b 05 65 2f 01 00    	mov    0x12f65(%rip),%eax        # 20448 <g_480+0x8>
    d4e3:	8d 78 04             	lea    0x4(%rax),%edi
    d4e6:	8b 05 5c 2f 01 00    	mov    0x12f5c(%rip),%eax        # 20448 <g_480+0x8>
    d4ec:	8d 70 04             	lea    0x4(%rax),%esi
    d4ef:	8b 15 53 2f 01 00    	mov    0x12f53(%rip),%edx        # 20448 <g_480+0x8>
    d4f5:	41 89 ca             	mov    %ecx,%r10d
    d4f8:	4c 63 c2             	movslq %edx,%r8
    d4fb:	48 63 cf             	movslq %edi,%rcx
    d4fe:	4c 63 ce             	movslq %esi,%r9
    d501:	48 89 c8             	mov    %rcx,%rax
    d504:	48 c1 e0 02          	shl    $0x2,%rax
    d508:	48 01 c8             	add    %rcx,%rax
    d50b:	48 01 c0             	add    %rax,%rax
    d50e:	4c 01 c8             	add    %r9,%rax
    d511:	48 01 c0             	add    %rax,%rax
    d514:	4c 01 c0             	add    %r8,%rax
    d517:	48 8d 0c 85 00 00 00 	lea    0x0(,%rax,4),%rcx
    d51e:	00 
    d51f:	48 8d 05 5a 2b 01 00 	lea    0x12b5a(%rip),%rax        # 20080 <g_117>
    d526:	44 89 14 01          	mov    %r10d,(%rcx,%rax,1)
    d52a:	48 63 ca             	movslq %edx,%rcx
    d52d:	48 63 d7             	movslq %edi,%rdx
    d530:	48 63 f6             	movslq %esi,%rsi
    d533:	48 89 d0             	mov    %rdx,%rax
    d536:	48 c1 e0 02          	shl    $0x2,%rax
    d53a:	48 01 d0             	add    %rdx,%rax
    d53d:	48 01 c0             	add    %rax,%rax
    d540:	48 01 f0             	add    %rsi,%rax
    d543:	48 01 c0             	add    %rax,%rax
    d546:	48 01 c8             	add    %rcx,%rax
    d549:	48 8d 14 85 00 00 00 	lea    0x0(,%rax,4),%rdx
    d550:	00 
    d551:	48 8d 05 28 2b 01 00 	lea    0x12b28(%rip),%rax        # 20080 <g_117>
    d558:	8b 04 02             	mov    (%rdx,%rax,1),%eax
    d55b:	be f9 ff ff ff       	mov    $0xfffffff9,%esi
    d560:	89 c7                	mov    %eax,%edi
    d562:	e8 69 e9 ff ff       	callq  bed0 <safe_sub_func_uint32_t_u_u>
    d567:	0f be c0             	movsbl %al,%eax
    d56a:	c7 85 08 f4 ff ff 01 	movl   $0x1,-0xbf8(%rbp)
    d571:	00 00 00 
    d574:	89 c6                	mov    %eax,%esi
    d576:	bf 01 00 00 00       	mov    $0x1,%edi
    d57b:	e8 92 dc ff ff       	callq  b212 <safe_mul_func_int8_t_s_s>
    d580:	0f be c0             	movsbl %al,%eax
    d583:	44 89 e6             	mov    %r12d,%esi
    d586:	89 c7                	mov    %eax,%edi
    d588:	e8 70 e9 ff ff       	callq  befd <safe_mod_func_uint32_t_u_u>
    d58d:	85 c0                	test   %eax,%eax
    d58f:	74 07                	je     d598 <func_2+0x6d0>
    d591:	83 bd d8 f3 ff ff 00 	cmpl   $0x0,-0xc28(%rbp)
    d598:	48 8b 05 71 2e 01 00 	mov    0x12e71(%rip),%rax        # 20410 <g_478+0x10>
    d59f:	ba b7 bb ce 96       	mov    $0x96cebbb7,%edx
    d5a4:	48 39 d0             	cmp    %rdx,%rax
    d5a7:	0f 94 c2             	sete   %dl
    d5aa:	48 8b 05 2f 4d 01 00 	mov    0x14d2f(%rip),%rax        # 222e0 <g_255>
    d5b1:	0f b6 d2             	movzbl %dl,%edx
    d5b4:	48 89 10             	mov    %rdx,(%rax)
    d5b7:	48 8b 00             	mov    (%rax),%rax
    d5ba:	48 85 c0             	test   %rax,%rax
    d5bd:	75 0a                	jne    d5c9 <func_2+0x701>
    d5bf:	8b 05 c3 2f 01 00    	mov    0x12fc3(%rip),%eax        # 20588 <g_1086+0x8>
    d5c5:	85 c0                	test   %eax,%eax
    d5c7:	74 07                	je     d5d0 <func_2+0x708>
    d5c9:	b8 01 00 00 00       	mov    $0x1,%eax
    d5ce:	eb 05                	jmp    d5d5 <func_2+0x70d>
    d5d0:	b8 00 00 00 00       	mov    $0x0,%eax
    d5d5:	44 09 f0             	or     %r14d,%eax
    d5d8:	89 85 0c f4 ff ff    	mov    %eax,-0xbf4(%rbp)
    d5de:	8b 85 0c f4 ff ff    	mov    -0xbf4(%rbp),%eax
    d5e4:	89 c2                	mov    %eax,%edx
    d5e6:	48 8b 85 70 f4 ff ff 	mov    -0xb90(%rbp),%rax
    d5ed:	88 10                	mov    %dl,(%rax)
    d5ef:	48 8b 85 70 f4 ff ff 	mov    -0xb90(%rbp),%rax
    d5f6:	0f b6 00             	movzbl (%rax),%eax
    d5f9:	0f b6 c0             	movzbl %al,%eax
    d5fc:	89 de                	mov    %ebx,%esi
    d5fe:	89 c7                	mov    %eax,%edi
    d600:	e8 55 e5 ff ff       	callq  bb5a <safe_add_func_uint8_t_u_u>
    d605:	0f b6 d8             	movzbl %al,%ebx
    d608:	be 03 00 00 00       	mov    $0x3,%esi
    d60d:	bf 06 00 00 00       	mov    $0x6,%edi
    d612:	e8 bd db ff ff       	callq  b1d4 <safe_add_func_int8_t_s_s>
    d617:	66 98                	cbtw   
    d619:	0f b7 c0             	movzwl %ax,%eax
    d61c:	89 de                	mov    %ebx,%esi
    d61e:	89 c7                	mov    %eax,%edi
    d620:	e8 da e6 ff ff       	callq  bcff <safe_add_func_uint16_t_u_u>
    d625:	0f be c0             	movsbl %al,%eax
    d628:	8b b5 9c f3 ff ff    	mov    -0xc64(%rbp),%esi
    d62e:	89 c7                	mov    %eax,%edi
    d630:	e8 37 dd ff ff       	callq  b36c <safe_rshift_func_int8_t_s_u>
    d635:	89 c2                	mov    %eax,%edx
    d637:	48 8b 05 6a 54 01 00 	mov    0x1546a(%rip),%rax        # 22aa8 <g_548>
    d63e:	48 8b 00             	mov    (%rax),%rax
    d641:	66 0f be d2          	movsbw %dl,%dx
    d645:	66 89 10             	mov    %dx,(%rax)
    d648:	0f b6 85 ac f3 ff ff 	movzbl -0xc54(%rbp),%eax
    d64f:	0f b6 c0             	movzbl %al,%eax
    d652:	8b b5 a0 f3 ff ff    	mov    -0xc60(%rbp),%esi
    d658:	89 c7                	mov    %eax,%edi
    d65a:	e8 ed e5 ff ff       	callq  bc4c <safe_lshift_func_uint8_t_u_u>
    d65f:	0f b6 d0             	movzbl %al,%edx
    d662:	48 8b 85 30 f4 ff ff 	mov    -0xbd0(%rbp),%rax
    d669:	89 10                	mov    %edx,(%rax)
    d66b:	48 8b 05 36 54 01 00 	mov    0x15436(%rip),%rax        # 22aa8 <g_548>
    d672:	48 8b 00             	mov    (%rax),%rax
    d675:	0f b7 10             	movzwl (%rax),%edx
    d678:	48 8b 05 29 54 01 00 	mov    0x15429(%rip),%rax        # 22aa8 <g_548>
    d67f:	48 8b 00             	mov    (%rax),%rax
    d682:	66 81 f2 e6 dd       	xor    $0xdde6,%dx
    d687:	66 89 10             	mov    %dx,(%rax)
    d68a:	0f b7 00             	movzwl (%rax),%eax
    d68d:	0f b7 d8             	movzwl %ax,%ebx
    d690:	48 8b 05 41 54 01 00 	mov    0x15441(%rip),%rax        # 22ad8 <g_926>
    d697:	48 0f bf 85 a8 f3 ff 	movswq -0xc58(%rbp),%rax
    d69e:	ff 
    d69f:	be 81 c2 00 00       	mov    $0xc281,%esi
    d6a4:	48 89 c7             	mov    %rax,%rdi
    d6a7:	e8 03 ea ff ff       	callq  c0af <safe_div_func_uint64_t_u_u>
    d6ac:	48 39 c3             	cmp    %rax,%rbx
    d6af:	0f 93 c0             	setae  %al
    d6b2:	0f b6 d0             	movzbl %al,%edx
    d6b5:	48 8b 85 78 f4 ff ff 	mov    -0xb88(%rbp),%rax
    d6bc:	8b 00                	mov    (%rax),%eax
    d6be:	09 c2                	or     %eax,%edx
    d6c0:	48 8b 85 78 f4 ff ff 	mov    -0xb88(%rbp),%rax
    d6c7:	89 10                	mov    %edx,(%rax)
    d6c9:	48 8b 85 78 f4 ff ff 	mov    -0xb88(%rbp),%rax
    d6d0:	8b 00                	mov    (%rax),%eax
    d6d2:	85 c0                	test   %eax,%eax
    d6d4:	0f 84 37 01 00 00    	je     d811 <func_2+0x949>
    d6da:	0f bf 9d a8 f3 ff ff 	movswl -0xc58(%rbp),%ebx
    d6e1:	66 0f be 85 ac f3 ff 	movsbw -0xc54(%rbp),%ax
    d6e8:	ff 
    d6e9:	44 0f b7 e0          	movzwl %ax,%r12d
    d6ed:	8b 85 e0 f3 ff ff    	mov    -0xc20(%rbp),%eax
    d6f3:	48 98                	cltq   
    d6f5:	48 89 c6             	mov    %rax,%rsi
    d6f8:	bf 01 00 00 00       	mov    $0x1,%edi
    d6fd:	e8 49 e9 ff ff       	callq  c04b <safe_sub_func_uint64_t_u_u>
    d702:	0f be 95 ac f3 ff ff 	movsbl -0xc54(%rbp),%edx
    d709:	0f bf 85 b4 f3 ff ff 	movswl -0xc4c(%rbp),%eax
    d710:	39 c2                	cmp    %eax,%edx
    d712:	0f 9d c0             	setge  %al
    d715:	0f b6 c0             	movzbl %al,%eax
    d718:	89 c7                	mov    %eax,%edi
    d71a:	e8 7e dc ff ff       	callq  b39d <safe_unary_minus_func_int16_t_s>
    d71f:	0f b7 c0             	movzwl %ax,%eax
    d722:	44 89 e6             	mov    %r12d,%esi
    d725:	89 c7                	mov    %eax,%edi
    d727:	e8 62 e6 ff ff       	callq  bd8e <safe_div_func_uint16_t_u_u>
    d72c:	0f b7 d0             	movzwl %ax,%edx
    d72f:	8b 85 b8 f3 ff ff    	mov    -0xc48(%rbp),%eax
    d735:	39 c2                	cmp    %eax,%edx
    d737:	0f 9c c0             	setl   %al
    d73a:	0f b6 c0             	movzbl %al,%eax
    d73d:	89 de                	mov    %ebx,%esi
    d73f:	89 c7                	mov    %eax,%edi
    d741:	e8 ef db ff ff       	callq  b335 <safe_rshift_func_int8_t_s_s>
    d746:	84 c0                	test   %al,%al
    d748:	74 07                	je     d751 <func_2+0x889>
    d74a:	ba 01 00 00 00       	mov    $0x1,%edx
    d74f:	eb 05                	jmp    d756 <func_2+0x88e>
    d751:	ba 00 00 00 00       	mov    $0x0,%edx
    d756:	48 8b 85 30 f4 ff ff 	mov    -0xbd0(%rbp),%rax
    d75d:	8b 00                	mov    (%rax),%eax
    d75f:	31 c2                	xor    %eax,%edx
    d761:	48 8b 85 30 f4 ff ff 	mov    -0xbd0(%rbp),%rax
    d768:	89 10                	mov    %edx,(%rax)
    d76a:	48 8b 85 30 f4 ff ff 	mov    -0xbd0(%rbp),%rax
    d771:	8b 00                	mov    (%rax),%eax
    d773:	0f be c0             	movsbl %al,%eax
    d776:	be 04 00 00 00       	mov    $0x4,%esi
    d77b:	89 c7                	mov    %eax,%edi
    d77d:	e8 b3 db ff ff       	callq  b335 <safe_rshift_func_int8_t_s_s>
    d782:	0f be d8             	movsbl %al,%ebx
    d785:	48 8b 85 58 f4 ff ff 	mov    -0xba8(%rbp),%rax
    d78c:	0f b7 c0             	movzwl %ax,%eax
    d78f:	89 c6                	mov    %eax,%esi
    d791:	bf f1 85 00 00       	mov    $0x85f1,%edi
    d796:	e8 a2 e5 ff ff       	callq  bd3d <safe_mul_func_uint16_t_u_u>
    d79b:	0f be c0             	movsbl %al,%eax
    d79e:	89 c6                	mov    %eax,%esi
    d7a0:	bf ff ff ff ff       	mov    $0xffffffff,%edi
    d7a5:	e8 2a da ff ff       	callq  b1d4 <safe_add_func_int8_t_s_s>
    d7aa:	0f be c0             	movsbl %al,%eax
    d7ad:	89 de                	mov    %ebx,%esi
    d7af:	89 c7                	mov    %eax,%edi
    d7b1:	e8 02 e7 ff ff       	callq  beb8 <safe_add_func_uint32_t_u_u>
    d7b6:	83 f8 04             	cmp    $0x4,%eax
    d7b9:	77 56                	ja     d811 <func_2+0x949>
    d7bb:	c7 85 10 f4 ff ff fe 	movl   $0xfffffffe,-0xbf0(%rbp)
    d7c2:	ff ff ff 
    d7c5:	c7 85 14 f4 ff ff c5 	movl   $0x6286d0c5,-0xbec(%rbp)
    d7cc:	d0 86 62 
    d7cf:	48 8d 85 d0 f6 ff ff 	lea    -0x930(%rbp),%rax
    d7d6:	48 8d 15 c3 d9 00 00 	lea    0xd9c3(%rip),%rdx        # 1b1a0 <g_2850+0x40>
    d7dd:	b9 7a 00 00 00       	mov    $0x7a,%ecx
    d7e2:	48 89 c7             	mov    %rax,%rdi
    d7e5:	48 89 d6             	mov    %rdx,%rsi
    d7e8:	f3 48 a5             	rep movsq %ds:(%rsi),%es:(%rdi)
    d7eb:	48 89 f2             	mov    %rsi,%rdx
    d7ee:	48 89 f8             	mov    %rdi,%rax
    d7f1:	8b 0a                	mov    (%rdx),%ecx
    d7f3:	89 08                	mov    %ecx,(%rax)
    d7f5:	48 8d 40 04          	lea    0x4(%rax),%rax
    d7f9:	48 8d 52 04          	lea    0x4(%rdx),%rdx
    d7fd:	66 83 ad b6 f3 ff ff 	subw   $0x1,-0xc4a(%rbp)
    d804:	01 
    d805:	0f be 85 ac f3 ff ff 	movsbl -0xc54(%rbp),%eax
    d80c:	e9 c5 0c 00 00       	jmpq   e4d6 <func_2+0x160e>
    d811:	48 8b 15 c8 52 01 00 	mov    0x152c8(%rip),%rdx        # 22ae0 <g_943>
    d818:	48 8b 05 c1 52 01 00 	mov    0x152c1(%rip),%rax        # 22ae0 <g_943>
    d81f:	48 8b 12             	mov    (%rdx),%rdx
    d822:	48 89 10             	mov    %rdx,(%rax)
    d825:	48 8b 05 ec 52 01 00 	mov    0x152ec(%rip),%rax        # 22b18 <g_1130>
    d82c:	48 8b 00             	mov    (%rax),%rax
    d82f:	48 8b 00             	mov    (%rax),%rax
    d832:	0f be 95 ac f3 ff ff 	movsbl -0xc54(%rbp),%edx
    d839:	89 10                	mov    %edx,(%rax)
    d83b:	8b 00                	mov    (%rax),%eax
    d83d:	89 85 a4 f3 ff ff    	mov    %eax,-0xc5c(%rbp)
    d843:	8b 05 ff 2b 01 00    	mov    0x12bff(%rip),%eax        # 20448 <g_480+0x8>
    d849:	83 c0 01             	add    $0x1,%eax
    d84c:	89 05 f6 2b 01 00    	mov    %eax,0x12bf6(%rip)        # 20448 <g_480+0x8>
    d852:	8b 05 f0 2b 01 00    	mov    0x12bf0(%rip),%eax        # 20448 <g_480+0x8>
    d858:	83 f8 01             	cmp    $0x1,%eax
    d85b:	0f 8e a0 f9 ff ff    	jle    d201 <func_2+0x339>
    d861:	eb 3e                	jmp    d8a1 <func_2+0x9d9>
    d863:	8b 85 a4 f3 ff ff    	mov    -0xc5c(%rbp),%eax
    d869:	3d 5b 7f dd 14       	cmp    $0x14dd7f5b,%eax
    d86e:	0f 94 c2             	sete   %dl
    d871:	48 8b 05 30 52 01 00 	mov    0x15230(%rip),%rax        # 22aa8 <g_548>
    d878:	48 8b 00             	mov    (%rax),%rax
    d87b:	0f b6 d2             	movzbl %dl,%edx
    d87e:	66 89 10             	mov    %dx,(%rax)
    d881:	0f b7 00             	movzwl (%rax),%eax
    d884:	0f b7 c0             	movzwl %ax,%eax
    d887:	89 c6                	mov    %eax,%esi
    d889:	bf 07 00 00 00       	mov    $0x7,%edi
    d88e:	e8 4e dc ff ff       	callq  b4e1 <safe_lshift_func_int16_t_s_u>
    d893:	89 c2                	mov    %eax,%edx
    d895:	48 8b 05 04 4a 01 00 	mov    0x14a04(%rip),%rax        # 222a0 <g_155>
    d89c:	0f bf d2             	movswl %dx,%edx
    d89f:	89 10                	mov    %edx,(%rax)
    d8a1:	0f b6 85 1d f5 ff ff 	movzbl -0xae3(%rbp),%eax
    d8a8:	84 c0                	test   %al,%al
    d8aa:	0f 84 38 03 00 00    	je     dbe8 <func_2+0xd20>
    d8b0:	c7 85 d0 f5 ff ff 00 	movl   $0x0,-0xa30(%rbp)
    d8b7:	00 00 00 
    d8ba:	c7 85 d4 f5 ff ff 00 	movl   $0x0,-0xa2c(%rbp)
    d8c1:	00 00 00 
    d8c4:	c7 85 d8 f5 ff ff 00 	movl   $0x0,-0xa28(%rbp)
    d8cb:	00 00 00 
    d8ce:	c7 85 dc f5 ff ff 4f 	movl   $0x2d1d494f,-0xa24(%rbp)
    d8d5:	49 1d 2d 
    d8d8:	c7 85 e0 f5 ff ff 4f 	movl   $0x2d1d494f,-0xa20(%rbp)
    d8df:	49 1d 2d 
    d8e2:	c7 85 e4 f5 ff ff 4f 	movl   $0x2d1d494f,-0xa1c(%rbp)
    d8e9:	49 1d 2d 
    d8ec:	c7 85 e8 f5 ff ff 00 	movl   $0x0,-0xa18(%rbp)
    d8f3:	00 00 00 
    d8f6:	c7 85 ec f5 ff ff 00 	movl   $0x0,-0xa14(%rbp)
    d8fd:	00 00 00 
    d900:	c7 85 f0 f5 ff ff 00 	movl   $0x0,-0xa10(%rbp)
    d907:	00 00 00 
    d90a:	c7 85 f4 f5 ff ff 4f 	movl   $0x2d1d494f,-0xa0c(%rbp)
    d911:	49 1d 2d 
    d914:	c7 85 f8 f5 ff ff 4f 	movl   $0x2d1d494f,-0xa08(%rbp)
    d91b:	49 1d 2d 
    d91e:	c7 85 fc f5 ff ff 4f 	movl   $0x2d1d494f,-0xa04(%rbp)
    d925:	49 1d 2d 
    d928:	c7 85 00 f6 ff ff 00 	movl   $0x0,-0xa00(%rbp)
    d92f:	00 00 00 
    d932:	c7 85 04 f6 ff ff 00 	movl   $0x0,-0x9fc(%rbp)
    d939:	00 00 00 
    d93c:	c7 85 08 f6 ff ff 00 	movl   $0x0,-0x9f8(%rbp)
    d943:	00 00 00 
    d946:	48 8d 05 53 51 01 00 	lea    0x15153(%rip),%rax        # 22aa0 <g_549>
    d94d:	48 89 85 98 f4 ff ff 	mov    %rax,-0xb68(%rbp)
    d954:	c7 85 c8 f3 ff ff 00 	movl   $0x0,-0xc38(%rbp)
    d95b:	00 00 00 
    d95e:	eb 1e                	jmp    d97e <func_2+0xab6>
    d960:	8b 85 c8 f3 ff ff    	mov    -0xc38(%rbp),%eax
    d966:	48 98                	cltq   
    d968:	48 8d 15 e9 2a 01 00 	lea    0x12ae9(%rip),%rdx        # 20458 <g_480+0x18>
    d96f:	48 89 94 c5 d0 f6 ff 	mov    %rdx,-0x930(%rbp,%rax,8)
    d976:	ff 
    d977:	83 85 c8 f3 ff ff 01 	addl   $0x1,-0xc38(%rbp)
    d97e:	83 bd c8 f3 ff ff 09 	cmpl   $0x9,-0xc38(%rbp)
    d985:	7e d9                	jle    d960 <func_2+0xa98>
    d987:	c7 05 47 2a 01 00 00 	movl   $0x0,0x12a47(%rip)        # 203d8 <g_433+0x18>
    d98e:	00 00 00 
    d991:	e9 30 02 00 00       	jmpq   dbc6 <func_2+0xcfe>
    d996:	48 c7 85 28 f4 ff ff 	movq   $0x0,-0xbd8(%rbp)
    d99d:	00 00 00 00 
    d9a1:	c7 85 a4 f3 ff ff 01 	movl   $0x1,-0xc5c(%rbp)
    d9a8:	00 00 00 
    d9ab:	eb 1d                	jmp    d9ca <func_2+0xb02>
    d9ad:	48 8b 05 2c 51 01 00 	mov    0x1512c(%rip),%rax        # 22ae0 <g_943>
    d9b4:	48 c7 00 00 00 00 00 	movq   $0x0,(%rax)
    d9bb:	8b 85 a4 f3 ff ff    	mov    -0xc5c(%rbp),%eax
    d9c1:	83 e8 01             	sub    $0x1,%eax
    d9c4:	89 85 a4 f3 ff ff    	mov    %eax,-0xc5c(%rbp)
    d9ca:	8b 85 a4 f3 ff ff    	mov    -0xc5c(%rbp),%eax
    d9d0:	85 c0                	test   %eax,%eax
    d9d2:	79 d9                	jns    d9ad <func_2+0xae5>
    d9d4:	48 c7 05 91 71 01 00 	movq   $0xe,0x17191(%rip)        # 24b70 <g_256>
    d9db:	0e 00 00 00 
    d9df:	e9 e4 00 00 00       	jmpq   dac8 <func_2+0xc00>
    d9e4:	c7 85 18 f4 ff ff 4f 	movl   $0x7c43ef4f,-0xbe8(%rbp)
    d9eb:	ef 43 7c 
    d9ee:	48 8d 85 d0 f5 ff ff 	lea    -0xa30(%rbp),%rax
    d9f5:	48 83 c0 0c          	add    $0xc,%rax
    d9f9:	48 89 85 a0 f4 ff ff 	mov    %rax,-0xb60(%rbp)
    da00:	48 8d 05 91 2b 01 00 	lea    0x12b91(%rip),%rax        # 20598 <g_1086+0x18>
    da07:	48 89 85 a8 f4 ff ff 	mov    %rax,-0xb58(%rbp)
    da0e:	48 c7 85 b0 f4 ff ff 	movq   $0x0,-0xb50(%rbp)
    da15:	00 00 00 00 
    da19:	48 8d 85 d0 f5 ff ff 	lea    -0xa30(%rbp),%rax
    da20:	48 83 c0 28          	add    $0x28,%rax
    da24:	48 89 85 b8 f4 ff ff 	mov    %rax,-0xb48(%rbp)
    da2b:	48 c7 85 c0 f4 ff ff 	movq   $0x0,-0xb40(%rbp)
    da32:	00 00 00 00 
    da36:	48 8d 85 b8 f3 ff ff 	lea    -0xc48(%rbp),%rax
    da3d:	48 89 85 c8 f4 ff ff 	mov    %rax,-0xb38(%rbp)
    da44:	48 8d 05 4d 2b 01 00 	lea    0x12b4d(%rip),%rax        # 20598 <g_1086+0x18>
    da4b:	48 89 85 d0 f4 ff ff 	mov    %rax,-0xb30(%rbp)
    da52:	48 8d 85 bc f3 ff ff 	lea    -0xc44(%rbp),%rax
    da59:	48 89 85 d8 f4 ff ff 	mov    %rax,-0xb28(%rbp)
    da60:	c7 85 cc f3 ff ff 00 	movl   $0x0,-0xc34(%rbp)
    da67:	00 00 00 
    da6a:	eb 1e                	jmp    da8a <func_2+0xbc2>
    da6c:	8b 85 cc f3 ff ff    	mov    -0xc34(%rbp),%eax
    da72:	48 98                	cltq   
    da74:	48 8d 95 b8 f3 ff ff 	lea    -0xc48(%rbp),%rdx
    da7b:	48 89 94 c5 30 f5 ff 	mov    %rdx,-0xad0(%rbp,%rax,8)
    da82:	ff 
    da83:	83 85 cc f3 ff ff 01 	addl   $0x1,-0xc34(%rbp)
    da8a:	83 bd cc f3 ff ff 03 	cmpl   $0x3,-0xc34(%rbp)
    da91:	7e d9                	jle    da6c <func_2+0xba4>
    da93:	48 8b 05 06 48 01 00 	mov    0x14806(%rip),%rax        # 222a0 <g_155>
    da9a:	8b 08                	mov    (%rax),%ecx
    da9c:	0f be 95 ac f3 ff ff 	movsbl -0xc54(%rbp),%edx
    daa3:	48 8b 05 f6 47 01 00 	mov    0x147f6(%rip),%rax        # 222a0 <g_155>
    daaa:	09 ca                	or     %ecx,%edx
    daac:	89 10                	mov    %edx,(%rax)
    daae:	48 83 ad 28 f4 ff ff 	subq   $0x1,-0xbd8(%rbp)
    dab5:	01 
    dab6:	48 8b 05 b3 70 01 00 	mov    0x170b3(%rip),%rax        # 24b70 <g_256>
    dabd:	48 83 e8 01          	sub    $0x1,%rax
    dac1:	48 89 05 a8 70 01 00 	mov    %rax,0x170a8(%rip)        # 24b70 <g_256>
    dac8:	48 8b 05 a1 70 01 00 	mov    0x170a1(%rip),%rax        # 24b70 <g_256>
    dacf:	48 85 c0             	test   %rax,%rax
    dad2:	0f 84 0c ff ff ff    	je     d9e4 <func_2+0xb1c>
    dad8:	8b 85 6c f5 ff ff    	mov    -0xa94(%rbp),%eax
    dade:	0f b6 d0             	movzbl %al,%edx
    dae1:	8b 85 a4 f3 ff ff    	mov    -0xc5c(%rbp),%eax
    dae7:	85 c0                	test   %eax,%eax
    dae9:	74 17                	je     db02 <func_2+0xc3a>
    daeb:	48 8d 05 ae 4f 01 00 	lea    0x14fae(%rip),%rax        # 22aa0 <g_549>
    daf2:	48 39 85 98 f4 ff ff 	cmp    %rax,-0xb68(%rbp)
    daf9:	75 07                	jne    db02 <func_2+0xc3a>
    dafb:	b8 01 00 00 00       	mov    $0x1,%eax
    db00:	eb 05                	jmp    db07 <func_2+0xc3f>
    db02:	b8 00 00 00 00       	mov    $0x0,%eax
    db07:	0f b6 c0             	movzbl %al,%eax
    db0a:	89 d6                	mov    %edx,%esi
    db0c:	89 c7                	mov    %eax,%edi
    db0e:	e8 80 e0 ff ff       	callq  bb93 <safe_mul_func_uint8_t_u_u>
    db13:	48 8b 15 b6 4f 01 00 	mov    0x14fb6(%rip),%rdx        # 22ad0 <g_928>
    db1a:	48 8b 12             	mov    (%rdx),%rdx
    db1d:	0f b7 0a             	movzwl (%rdx),%ecx
    db20:	0f b6 d0             	movzbl %al,%edx
    db23:	48 8b 05 a6 4f 01 00 	mov    0x14fa6(%rip),%rax        # 22ad0 <g_928>
    db2a:	48 8b 00             	mov    (%rax),%rax
    db2d:	21 ca                	and    %ecx,%edx
    db2f:	66 89 10             	mov    %dx,(%rax)
    db32:	0f b7 00             	movzwl (%rax),%eax
    db35:	98                   	cwtl   
    db36:	89 c6                	mov    %eax,%esi
    db38:	bf c9 5e 00 00       	mov    $0x5ec9,%edi
    db3d:	e8 06 e3 ff ff       	callq  be48 <safe_rshift_func_uint16_t_u_s>
    db42:	0f b7 d8             	movzwl %ax,%ebx
    db45:	48 81 bd 28 f4 ff ff 	cmpq   $0xb6,-0xbd8(%rbp)
    db4c:	b6 00 00 00 
    db50:	0f 94 c0             	sete   %al
    db53:	0f b6 c8             	movzbl %al,%ecx
    db56:	8b 85 a4 f3 ff ff    	mov    -0xc5c(%rbp),%eax
    db5c:	85 c0                	test   %eax,%eax
    db5e:	74 1d                	je     db7d <func_2+0xcb5>
    db60:	48 8b 15 79 47 01 00 	mov    0x14779(%rip),%rdx        # 222e0 <g_255>
    db67:	48 8b 02             	mov    (%rdx),%rax
    db6a:	48 8d 70 01          	lea    0x1(%rax),%rsi
    db6e:	48 89 32             	mov    %rsi,(%rdx)
    db71:	48 85 c0             	test   %rax,%rax
    db74:	74 07                	je     db7d <func_2+0xcb5>
    db76:	b8 01 00 00 00       	mov    $0x1,%eax
    db7b:	eb 05                	jmp    db82 <func_2+0xcba>
    db7d:	b8 00 00 00 00       	mov    $0x0,%eax
    db82:	48 98                	cltq   
    db84:	48 89 ce             	mov    %rcx,%rsi
    db87:	48 89 c7             	mov    %rax,%rdi
    db8a:	e8 bc e4 ff ff       	callq  c04b <safe_sub_func_uint64_t_u_u>
    db8f:	89 de                	mov    %ebx,%esi
    db91:	89 c7                	mov    %eax,%edi
    db93:	e8 20 e3 ff ff       	callq  beb8 <safe_add_func_uint32_t_u_u>
    db98:	48 8b 95 30 f4 ff ff 	mov    -0xbd0(%rbp),%rdx
    db9f:	8b 12                	mov    (%rdx),%edx
    dba1:	31 d0                	xor    %edx,%eax
    dba3:	89 c2                	mov    %eax,%edx
    dba5:	48 8b 85 30 f4 ff ff 	mov    -0xbd0(%rbp),%rax
    dbac:	89 10                	mov    %edx,(%rax)
    dbae:	8b 05 24 28 01 00    	mov    0x12824(%rip),%eax        # 203d8 <g_433+0x18>
    dbb4:	be 09 00 00 00       	mov    $0x9,%esi
    dbb9:	89 c7                	mov    %eax,%edi
    dbbb:	e8 f6 d9 ff ff       	callq  b5b6 <safe_add_func_int32_t_s_s>
    dbc0:	89 05 12 28 01 00    	mov    %eax,0x12812(%rip)        # 203d8 <g_433+0x18>
    dbc6:	8b 05 0c 28 01 00    	mov    0x1280c(%rip),%eax        # 203d8 <g_433+0x18>
    dbcc:	83 f8 1b             	cmp    $0x1b,%eax
    dbcf:	0f 8e c1 fd ff ff    	jle    d996 <func_2+0xace>
    dbd5:	48 8d 85 b8 f3 ff ff 	lea    -0xc48(%rbp),%rax
    dbdc:	48 89 85 e8 f6 ff ff 	mov    %rax,-0x918(%rbp)
    dbe3:	e9 09 03 00 00       	jmpq   def1 <func_2+0x1029>
    dbe8:	c6 85 b1 f3 ff ff 6b 	movb   $0x6b,-0xc4f(%rbp)
    dbef:	48 8d 05 52 2a 01 00 	lea    0x12a52(%rip),%rax        # 20648 <g_1719>
    dbf6:	48 89 85 20 f4 ff ff 	mov    %rax,-0xbe0(%rbp)
    dbfd:	48 8d 85 20 f4 ff ff 	lea    -0xbe0(%rbp),%rax
    dc04:	48 89 85 80 f4 ff ff 	mov    %rax,-0xb80(%rbp)
    dc0b:	48 8d 05 2e 2a 01 00 	lea    0x12a2e(%rip),%rax        # 20640 <g_1697+0x20>
    dc12:	48 89 85 88 f4 ff ff 	mov    %rax,-0xb78(%rbp)
    dc19:	66 c7 85 a8 f3 ff ff 	movw   $0xd,-0xc58(%rbp)
    dc20:	0d 00 
    dc22:	e9 81 01 00 00       	jmpq   dda8 <func_2+0xee0>
    dc27:	c6 85 b3 f3 ff ff 00 	movb   $0x0,-0xc4d(%rbp)
    dc2e:	48 8d 05 74 27 01 00 	lea    0x12774(%rip),%rax        # 203a9 <g_146+0x3>
    dc35:	48 89 85 90 f4 ff ff 	mov    %rax,-0xb70(%rbp)
    dc3c:	0f b6 85 b1 f3 ff ff 	movzbl -0xc4f(%rbp),%eax
    dc43:	83 e8 01             	sub    $0x1,%eax
    dc46:	88 85 b1 f3 ff ff    	mov    %al,-0xc4f(%rbp)
    dc4c:	0f be 95 ac f3 ff ff 	movsbl -0xc54(%rbp),%edx
    dc53:	48 8b 85 30 f4 ff ff 	mov    -0xbd0(%rbp),%rax
    dc5a:	89 10                	mov    %edx,(%rax)
    dc5c:	0f b6 9d b1 f3 ff ff 	movzbl -0xc4f(%rbp),%ebx
    dc63:	44 0f be a5 ac f3 ff 	movsbl -0xc54(%rbp),%r12d
    dc6a:	ff 
    dc6b:	8b 85 e0 f3 ff ff    	mov    -0xc20(%rbp),%eax
    dc71:	48 63 c8             	movslq %eax,%rcx
    dc74:	48 8b 15 65 46 01 00 	mov    0x14665(%rip),%rdx        # 222e0 <g_255>
    dc7b:	48 8b 02             	mov    (%rdx),%rax
    dc7e:	48 8d 70 ff          	lea    -0x1(%rax),%rsi
    dc82:	48 89 32             	mov    %rsi,(%rdx)
    dc85:	48 89 ce             	mov    %rcx,%rsi
    dc88:	48 89 c7             	mov    %rax,%rdi
    dc8b:	e8 1f e4 ff ff       	callq  c0af <safe_div_func_uint64_t_u_u>
    dc90:	48 89 c2             	mov    %rax,%rdx
    dc93:	0f b6 85 b3 f3 ff ff 	movzbl -0xc4d(%rbp),%eax
    dc9a:	3a 85 ac f3 ff ff    	cmp    -0xc54(%rbp),%al
    dca0:	0f 9c c1             	setl   %cl
    dca3:	48 8b 05 26 4e 01 00 	mov    0x14e26(%rip),%rax        # 22ad0 <g_928>
    dcaa:	48 8b 00             	mov    (%rax),%rax
    dcad:	0f b6 c9             	movzbl %cl,%ecx
    dcb0:	66 89 08             	mov    %cx,(%rax)
    dcb3:	0f b7 00             	movzwl (%rax),%eax
    dcb6:	48 0f bf c0          	movswq %ax,%rax
    dcba:	48 39 c2             	cmp    %rax,%rdx
    dcbd:	0f 97 c0             	seta   %al
    dcc0:	0f b6 c0             	movzbl %al,%eax
    dcc3:	39 85 e0 f3 ff ff    	cmp    %eax,-0xc20(%rbp)
    dcc9:	0f 94 c0             	sete   %al
    dccc:	0f b6 c0             	movzbl %al,%eax
    dccf:	41 39 c4             	cmp    %eax,%r12d
    dcd2:	0f 9d c0             	setge  %al
    dcd5:	0f b6 c0             	movzbl %al,%eax
    dcd8:	31 d8                	xor    %ebx,%eax
    dcda:	48 63 d0             	movslq %eax,%rdx
    dcdd:	48 8b 05 4c 29 01 00 	mov    0x1294c(%rip),%rax        # 20630 <g_1697+0x10>
    dce4:	48 39 c2             	cmp    %rax,%rdx
    dce7:	0f 92 c0             	setb   %al
    dcea:	0f b6 d0             	movzbl %al,%edx
    dced:	0f b7 85 b6 f3 ff ff 	movzwl -0xc4a(%rbp),%eax
    dcf4:	39 c2                	cmp    %eax,%edx
    dcf6:	0f 95 c0             	setne  %al
    dcf9:	89 c2                	mov    %eax,%edx
    dcfb:	48 8b 85 90 f4 ff ff 	mov    -0xb70(%rbp),%rax
    dd02:	88 10                	mov    %dl,(%rax)
    dd04:	48 8b 85 90 f4 ff ff 	mov    -0xb70(%rbp),%rax
    dd0b:	0f b6 00             	movzbl (%rax),%eax
    dd0e:	0f b6 c0             	movzbl %al,%eax
    dd11:	0b 85 e4 f3 ff ff    	or     -0xc1c(%rbp),%eax
    dd17:	89 c2                	mov    %eax,%edx
    dd19:	8b 85 b8 f3 ff ff    	mov    -0xc48(%rbp),%eax
    dd1f:	21 c2                	and    %eax,%edx
    dd21:	0f bf 85 a8 f3 ff ff 	movswl -0xc58(%rbp),%eax
    dd28:	39 c2                	cmp    %eax,%edx
    dd2a:	0f 95 c0             	setne  %al
    dd2d:	0f b6 c0             	movzbl %al,%eax
    dd30:	89 c7                	mov    %eax,%edi
    dd32:	e8 b2 df ff ff       	callq  bce9 <safe_unary_minus_func_uint16_t_u>
    dd37:	0f b7 c0             	movzwl %ax,%eax
    dd3a:	48 89 c6             	mov    %rax,%rsi
    dd3d:	48 bf fe 85 80 87 81 	movabs $0x686cb981878085fe,%rdi
    dd44:	b9 6c 68 
    dd47:	e8 5c db ff ff       	callq  b8a8 <safe_sub_func_int64_t_s_s>
    dd4c:	0f b7 c0             	movzwl %ax,%eax
    dd4f:	be 00 00 00 00       	mov    $0x0,%esi
    dd54:	89 c7                	mov    %eax,%edi
    dd56:	e8 ab e0 ff ff       	callq  be06 <safe_lshift_func_uint16_t_u_u>
    dd5b:	0f b7 c0             	movzwl %ax,%eax
    dd5e:	0b 85 c4 f3 ff ff    	or     -0xc3c(%rbp),%eax
    dd64:	48 98                	cltq   
    dd66:	48 be 4e e1 93 aa cb 	movabs $0x8faf1bcbaa93e14e,%rsi
    dd6d:	1b af 8f 
    dd70:	48 89 c7             	mov    %rax,%rdi
    dd73:	e8 7f dc ff ff       	callq  b9f7 <safe_div_func_int64_t_s_s>
    dd78:	48 8b 15 21 45 01 00 	mov    0x14521(%rip),%rdx        # 222a0 <g_155>
    dd7f:	8b 12                	mov    (%rdx),%edx
    dd81:	89 c1                	mov    %eax,%ecx
    dd83:	48 8b 05 16 45 01 00 	mov    0x14516(%rip),%rax        # 222a0 <g_155>
    dd8a:	31 ca                	xor    %ecx,%edx
    dd8c:	89 10                	mov    %edx,(%rax)
    dd8e:	0f bf 85 a8 f3 ff ff 	movswl -0xc58(%rbp),%eax
    dd95:	be 06 00 00 00       	mov    $0x6,%esi
    dd9a:	89 c7                	mov    %eax,%edi
    dd9c:	e8 15 d8 ff ff       	callq  b5b6 <safe_add_func_int32_t_s_s>
    dda1:	66 89 85 a8 f3 ff ff 	mov    %ax,-0xc58(%rbp)
    dda8:	66 83 bd a8 f3 ff ff 	cmpw   $0xd,-0xc58(%rbp)
    ddaf:	0d 
    ddb0:	0f 8f 71 fe ff ff    	jg     dc27 <func_2+0xd5f>
    ddb6:	0f bf 9d a8 f3 ff ff 	movswl -0xc58(%rbp),%ebx
    ddbd:	48 8b 05 f4 4d 01 00 	mov    0x14df4(%rip),%rax        # 22bb8 <g_1271>
    ddc4:	0f b6 00             	movzbl (%rax),%eax
    ddc7:	48 8b 85 30 f4 ff ff 	mov    -0xbd0(%rbp),%rax
    ddce:	8b 00                	mov    (%rax),%eax
    ddd0:	44 0f b7 e0          	movzwl %ax,%r12d
    ddd4:	b8 21 d0 ab d3       	mov    $0xd3abd021,%eax
    ddd9:	4c 63 e8             	movslq %eax,%r13
    dddc:	44 0f bf b5 a8 f3 ff 	movswl -0xc58(%rbp),%r14d
    dde3:	ff 
    dde4:	66 0f be 95 ac f3 ff 	movsbw -0xc54(%rbp),%dx
    ddeb:	ff 
    ddec:	48 0f bf 8d a8 f3 ff 	movswq -0xc58(%rbp),%rcx
    ddf3:	ff 
    ddf4:	48 8b 05 e5 44 01 00 	mov    0x144e5(%rip),%rax        # 222e0 <g_255>
    ddfb:	48 8b 00             	mov    (%rax),%rax
    ddfe:	83 e0 01             	and    $0x1,%eax
    de01:	48 39 c1             	cmp    %rax,%rcx
    de04:	0f 94 c0             	sete   %al
    de07:	0f b6 c0             	movzbl %al,%eax
    de0a:	09 c2                	or     %eax,%edx
    de0c:	8b 85 d8 f3 ff ff    	mov    -0xc28(%rbp),%eax
    de12:	31 d0                	xor    %edx,%eax
    de14:	98                   	cwtl   
    de15:	be fd ff ff ff       	mov    $0xfffffffd,%esi
    de1a:	89 c7                	mov    %eax,%edi
    de1c:	e8 34 d6 ff ff       	callq  b455 <safe_div_func_int16_t_s_s>
    de21:	0f b6 c0             	movzbl %al,%eax
    de24:	44 89 f6             	mov    %r14d,%esi
    de27:	89 c7                	mov    %eax,%edi
    de29:	e8 5f de ff ff       	callq  bc8d <safe_rshift_func_uint8_t_u_s>
    de2e:	0f b6 c0             	movzbl %al,%eax
    de31:	4c 89 ee             	mov    %r13,%rsi
    de34:	48 89 c7             	mov    %rax,%rdi
    de37:	e8 f2 e1 ff ff       	callq  c02e <safe_add_func_uint64_t_u_u>
    de3c:	48 0f be 95 ac f3 ff 	movsbq -0xc54(%rbp),%rdx
    de43:	ff 
    de44:	48 39 d0             	cmp    %rdx,%rax
    de47:	0f 96 c0             	setbe  %al
    de4a:	0f b6 c0             	movzbl %al,%eax
    de4d:	be fb ff 00 00       	mov    $0xfffb,%esi
    de52:	89 c7                	mov    %eax,%edi
    de54:	e8 c6 de ff ff       	callq  bd1f <safe_sub_func_uint16_t_u_u>
    de59:	48 8b 05 40 4c 01 00 	mov    0x14c40(%rip),%rax        # 22aa0 <g_549>
    de60:	0f b7 95 b6 f3 ff ff 	movzwl -0xc4a(%rbp),%edx
    de67:	66 89 10             	mov    %dx,(%rax)
    de6a:	0f b7 00             	movzwl (%rax),%eax
    de6d:	0f b7 c0             	movzwl %ax,%eax
    de70:	44 89 e6             	mov    %r12d,%esi
    de73:	89 c7                	mov    %eax,%edi
    de75:	e8 c3 de ff ff       	callq  bd3d <safe_mul_func_uint16_t_u_u>
    de7a:	48 be a9 8c d6 c8 ec 	movabs $0x330f01ecc8d68ca9,%rsi
    de81:	01 0f 33 
    de84:	bf 01 00 00 00       	mov    $0x1,%edi
    de89:	e8 1a da ff ff       	callq  b8a8 <safe_sub_func_int64_t_s_s>
    de8e:	48 8b 15 0b 44 01 00 	mov    0x1440b(%rip),%rdx        # 222a0 <g_155>
    de95:	8b 12                	mov    (%rdx),%edx
    de97:	48 63 d2             	movslq %edx,%rdx
    de9a:	48 39 d0             	cmp    %rdx,%rax
    de9d:	75 07                	jne    dea6 <func_2+0xfde>
    de9f:	83 bd d4 f3 ff ff 00 	cmpl   $0x0,-0xc2c(%rbp)
    dea6:	89 de                	mov    %ebx,%esi
    dea8:	bf 00 00 00 00       	mov    $0x0,%edi
    dead:	e8 83 d4 ff ff       	callq  b335 <safe_rshift_func_int8_t_s_s>
    deb2:	66 83 bd a8 f3 ff ff 	cmpw   $0x0,-0xc58(%rbp)
    deb9:	00 
    deba:	75 0a                	jne    dec6 <func_2+0xffe>
    debc:	8b 05 ea 24 01 00    	mov    0x124ea(%rip),%eax        # 203ac <g_257>
    dec2:	85 c0                	test   %eax,%eax
    dec4:	74 07                	je     decd <func_2+0x1005>
    dec6:	b8 01 00 00 00       	mov    $0x1,%eax
    decb:	eb 05                	jmp    ded2 <func_2+0x100a>
    decd:	b8 00 00 00 00       	mov    $0x0,%eax
    ded2:	89 c2                	mov    %eax,%edx
    ded4:	48 8b 85 88 f4 ff ff 	mov    -0xb78(%rbp),%rax
    dedb:	89 10                	mov    %edx,(%rax)
    dedd:	48 8b 05 04 4c 01 00 	mov    0x14c04(%rip),%rax        # 22ae8 <g_942>
    dee4:	48 8b 00             	mov    (%rax),%rax
    dee7:	48 8d 95 a4 f3 ff ff 	lea    -0xc5c(%rbp),%rdx
    deee:	48 89 10             	mov    %rdx,(%rax)
    def1:	48 c7 05 d4 26 01 00 	movq   $0x5,0x126d4(%rip)        # 205d0 <g_1448>
    def8:	05 00 00 00 
    defc:	90                   	nop
    defd:	48 8b 05 cc 26 01 00 	mov    0x126cc(%rip),%rax        # 205d0 <g_1448>
    df04:	48 83 f8 f6          	cmp    $0xfffffffffffffff6,%rax
    df08:	0f 85 8b 01 00 00    	jne    e099 <func_2+0x11d1>
    df0e:	c7 85 1c f4 ff ff 62 	movl   $0x12868e62,-0xbe4(%rbp)
    df15:	8e 86 12 
    df18:	48 8b 85 30 f4 ff ff 	mov    -0xbd0(%rbp),%rax
    df1f:	c7 00 00 00 00 00    	movl   $0x0,(%rax)
    df25:	48 8b 05 94 4c 01 00 	mov    0x14c94(%rip),%rax        # 22bc0 <g_1270>
    df2c:	48 8b 00             	mov    (%rax),%rax
    df2f:	0f b6 00             	movzbl (%rax),%eax
    df32:	0f b6 c0             	movzbl %al,%eax
    df35:	be 06 00 00 00       	mov    $0x6,%esi
    df3a:	89 c7                	mov    %eax,%edi
    df3c:	e8 4c dd ff ff       	callq  bc8d <safe_rshift_func_uint8_t_u_s>
    df41:	0f b7 9d b6 f3 ff ff 	movzwl -0xc4a(%rbp),%ebx
    df48:	48 8b 05 51 4b 01 00 	mov    0x14b51(%rip),%rax        # 22aa0 <g_549>
    df4f:	0f b7 00             	movzwl (%rax),%eax
    df52:	44 0f b7 e0          	movzwl %ax,%r12d
    df56:	44 0f be ad ac f3 ff 	movsbl -0xc54(%rbp),%r13d
    df5d:	ff 
    df5e:	4c 0f be b5 ac f3 ff 	movsbq -0xc54(%rbp),%r14
    df65:	ff 
    df66:	8b 85 a4 f3 ff ff    	mov    -0xc5c(%rbp),%eax
    df6c:	44 0f be f8          	movsbl %al,%r15d
    df70:	0f b7 05 25 26 01 00 	movzwl 0x12625(%rip),%eax        # 2059c <g_1086+0x1c>
    df77:	48 8b 05 22 4b 01 00 	mov    0x14b22(%rip),%rax        # 22aa0 <g_549>
    df7e:	0f b7 00             	movzwl (%rax),%eax
    df81:	66 85 c0             	test   %ax,%ax
    df84:	0f 94 c0             	sete   %al
    df87:	0f b6 c0             	movzbl %al,%eax
    df8a:	89 c6                	mov    %eax,%esi
    df8c:	bf 04 00 00 00       	mov    $0x4,%edi
    df91:	e8 7c d2 ff ff       	callq  b212 <safe_mul_func_int8_t_s_s>
    df96:	48 0f be c0          	movsbq %al,%rax
    df9a:	be 00 00 00 00       	mov    $0x0,%esi
    df9f:	48 89 c7             	mov    %rax,%rdi
    dfa2:	e8 87 e0 ff ff       	callq  c02e <safe_add_func_uint64_t_u_u>
    dfa7:	48 8b 95 e8 f4 ff ff 	mov    -0xb18(%rbp),%rdx
    dfae:	48 8b 85 e0 f4 ff ff 	mov    -0xb20(%rbp),%rax
    dfb5:	48 39 c2             	cmp    %rax,%rdx
    dfb8:	0f 95 c0             	setne  %al
    dfbb:	0f b6 c0             	movzbl %al,%eax
    dfbe:	be 05 00 00 00       	mov    $0x5,%esi
    dfc3:	89 c7                	mov    %eax,%edi
    dfc5:	e8 24 d3 ff ff       	callq  b2ee <safe_lshift_func_int8_t_s_u>
    dfca:	44 89 fe             	mov    %r15d,%esi
    dfcd:	bf 03 00 00 00       	mov    $0x3,%edi
    dfd2:	e8 3b d2 ff ff       	callq  b212 <safe_mul_func_int8_t_s_s>
    dfd7:	0f be d0             	movsbl %al,%edx
    dfda:	8b 05 e8 23 01 00    	mov    0x123e8(%rip),%eax        # 203c8 <g_433+0x8>
    dfe0:	39 c2                	cmp    %eax,%edx
    dfe2:	0f 9f c0             	setg   %al
    dfe5:	0f b6 c0             	movzbl %al,%eax
    dfe8:	4c 89 f6             	mov    %r14,%rsi
    dfeb:	48 89 c7             	mov    %rax,%rdi
    dfee:	e8 58 e0 ff ff       	callq  c04b <safe_sub_func_uint64_t_u_u>
    dff3:	98                   	cwtl   
    dff4:	44 89 ee             	mov    %r13d,%esi
    dff7:	89 c7                	mov    %eax,%edi
    dff9:	e8 b5 d3 ff ff       	callq  b3b3 <safe_add_func_int16_t_s_s>
    dffe:	98                   	cwtl   
    dfff:	44 89 e6             	mov    %r12d,%esi
    e002:	89 c7                	mov    %eax,%edi
    e004:	e8 d8 d4 ff ff       	callq  b4e1 <safe_lshift_func_int16_t_s_u>
    e009:	0f b6 d0             	movzbl %al,%edx
    e00c:	83 bd 1c f4 ff ff 00 	cmpl   $0x0,-0xbe4(%rbp)
    e013:	0f 94 c0             	sete   %al
    e016:	0f b6 c0             	movzbl %al,%eax
    e019:	89 d6                	mov    %edx,%esi
    e01b:	89 c7                	mov    %eax,%edi
    e01d:	e8 b9 db ff ff       	callq  bbdb <safe_div_func_uint8_t_u_u>
    e022:	0f b6 c0             	movzbl %al,%eax
    e025:	89 de                	mov    %ebx,%esi
    e027:	89 c7                	mov    %eax,%edi
    e029:	e8 9e d6 ff ff       	callq  b6cc <safe_mod_func_int32_t_s_s>
    e02e:	0f be c0             	movsbl %al,%eax
    e031:	be 01 00 00 00       	mov    $0x1,%esi
    e036:	89 c7                	mov    %eax,%edi
    e038:	e8 f8 d2 ff ff       	callq  b335 <safe_rshift_func_int8_t_s_s>
    e03d:	0f be d8             	movsbl %al,%ebx
    e040:	48 8b 05 89 4a 01 00 	mov    0x14a89(%rip),%rax        # 22ad0 <g_928>
    e047:	48 8b 10             	mov    (%rax),%rdx
    e04a:	48 8b 05 7f 4a 01 00 	mov    0x14a7f(%rip),%rax        # 22ad0 <g_928>
    e051:	48 8b 00             	mov    (%rax),%rax
    e054:	0f b7 12             	movzwl (%rdx),%edx
    e057:	66 89 10             	mov    %dx,(%rax)
    e05a:	0f b7 00             	movzwl (%rax),%eax
    e05d:	98                   	cwtl   
    e05e:	be 01 00 00 00       	mov    $0x1,%esi
    e063:	89 c7                	mov    %eax,%edi
    e065:	e8 77 d4 ff ff       	callq  b4e1 <safe_lshift_func_int16_t_s_u>
    e06a:	0f be c0             	movsbl %al,%eax
    e06d:	89 de                	mov    %ebx,%esi
    e06f:	89 c7                	mov    %eax,%edi
    e071:	e8 5e d1 ff ff       	callq  b1d4 <safe_add_func_int8_t_s_s>
    e076:	48 8b 95 30 f4 ff ff 	mov    -0xbd0(%rbp),%rdx
    e07d:	8b 12                	mov    (%rdx),%edx
    e07f:	0f be c0             	movsbl %al,%eax
    e082:	21 c2                	and    %eax,%edx
    e084:	48 8b 85 30 f4 ff ff 	mov    -0xbd0(%rbp),%rax
    e08b:	89 10                	mov    %edx,(%rax)
    e08d:	0f bf 85 a8 f3 ff ff 	movswl -0xc58(%rbp),%eax
    e094:	e9 3d 04 00 00       	jmpq   e4d6 <func_2+0x160e>
    e099:	8b 05 b5 1f 01 00    	mov    0x11fb5(%rip),%eax        # 20054 <g_115>
    e09f:	83 e8 01             	sub    $0x1,%eax
    e0a2:	89 05 ac 1f 01 00    	mov    %eax,0x11fac(%rip)        # 20054 <g_115>
    e0a8:	8b 05 a6 1f 01 00    	mov    0x11fa6(%rip),%eax        # 20054 <g_115>
    e0ae:	85 c0                	test   %eax,%eax
    e0b0:	0f 89 cb f0 ff ff    	jns    d181 <func_2+0x2b9>
    e0b6:	c7 85 c4 f3 ff ff 10 	movl   $0x10,-0xc3c(%rbp)
    e0bd:	00 00 00 
    e0c0:	e9 50 03 00 00       	jmpq   e415 <func_2+0x154d>
    e0c5:	48 8d 85 d0 f6 ff ff 	lea    -0x930(%rbp),%rax
    e0cc:	48 8d 15 ad d4 00 00 	lea    0xd4ad(%rip),%rdx        # 1b580 <g_2850+0x420>
    e0d3:	b9 28 00 00 00       	mov    $0x28,%ecx
    e0d8:	48 89 c7             	mov    %rax,%rdi
    e0db:	48 89 d6             	mov    %rdx,%rsi
    e0de:	f3 48 a5             	rep movsq %ds:(%rsi),%es:(%rdi)
    e0e1:	c7 85 ec f3 ff ff f8 	movl   $0xfffffff8,-0xc14(%rbp)
    e0e8:	ff ff ff 
    e0eb:	c7 85 d0 f3 ff ff 00 	movl   $0x0,-0xc30(%rbp)
    e0f2:	00 00 00 
    e0f5:	eb 1a                	jmp    e111 <func_2+0x1249>
    e0f7:	8b 85 d0 f3 ff ff    	mov    -0xc30(%rbp),%eax
    e0fd:	48 98                	cltq   
    e0ff:	c7 84 85 d0 f5 ff ff 	movl   $0x818ce323,-0xa30(%rbp,%rax,4)
    e106:	23 e3 8c 81 
    e10a:	83 85 d0 f3 ff ff 01 	addl   $0x1,-0xc30(%rbp)
    e111:	83 bd d0 f3 ff ff 01 	cmpl   $0x1,-0xc30(%rbp)
    e118:	7e dd                	jle    e0f7 <func_2+0x122f>
    e11a:	c7 85 a4 f3 ff ff 01 	movl   $0x1,-0xc5c(%rbp)
    e121:	00 00 00 
    e124:	90                   	nop
    e125:	8b 85 a4 f3 ff ff    	mov    -0xc5c(%rbp),%eax
    e12b:	85 c0                	test   %eax,%eax
    e12d:	0f 88 c7 02 00 00    	js     e3fa <func_2+0x1532>
    e133:	48 8d 05 36 23 01 00 	lea    0x12336(%rip),%rax        # 20470 <g_534>
    e13a:	48 89 85 40 f4 ff ff 	mov    %rax,-0xbc0(%rbp)
    e141:	48 8d 05 60 49 01 00 	lea    0x14960(%rip),%rax        # 22aa8 <g_548>
    e148:	48 89 85 48 f4 ff ff 	mov    %rax,-0xbb8(%rbp)
    e14f:	c7 85 f0 f3 ff ff 29 	movl   $0x5d12e29,-0xc10(%rbp)
    e156:	2e d1 05 
    e159:	8b 85 64 f7 ff ff    	mov    -0x89c(%rbp),%eax
    e15f:	83 c0 01             	add    $0x1,%eax
    e162:	89 85 64 f7 ff ff    	mov    %eax,-0x89c(%rbp)
    e168:	c7 05 66 22 01 00 01 	movl   $0x1,0x12266(%rip)        # 203d8 <g_433+0x18>
    e16f:	00 00 00 
    e172:	e9 6a 02 00 00       	jmpq   e3e1 <func_2+0x1519>
    e177:	48 c7 85 50 f4 ff ff 	movq   $0xffffffffffffffff,-0xbb0(%rbp)
    e17e:	ff ff ff ff 
    e182:	c7 85 f4 f3 ff ff ff 	movl   $0xffffffff,-0xc0c(%rbp)
    e189:	ff ff ff 
    e18c:	c7 05 0a 24 01 00 00 	movl   $0x0,0x1240a(%rip)        # 205a0 <g_1086+0x20>
    e193:	00 00 00 
    e196:	e9 ab 01 00 00       	jmpq   e346 <func_2+0x147e>
    e19b:	48 8b 05 3e 4a 01 00 	mov    0x14a3e(%rip),%rax        # 22be0 <g_1720>
    e1a2:	48 8b 00             	mov    (%rax),%rax
    e1a5:	0f b6 15 1c 25 01 00 	movzbl 0x1251c(%rip),%edx        # 206c8 <g_1765>
    e1ac:	88 10                	mov    %dl,(%rax)
    e1ae:	0f b6 05 14 25 01 00 	movzbl 0x12514(%rip),%eax        # 206c9 <g_1772>
    e1b5:	48 83 bd 38 f4 ff ff 	cmpq   $0x0,-0xbc8(%rbp)
    e1bc:	00 
    e1bd:	0f 84 13 01 00 00    	je     e2d6 <func_2+0x140e>
    e1c3:	48 8b 85 30 f4 ff ff 	mov    -0xbd0(%rbp),%rax
    e1ca:	8b 00                	mov    (%rax),%eax
    e1cc:	0f bf d8             	movswl %ax,%ebx
    e1cf:	48 8b 05 0a 41 01 00 	mov    0x1410a(%rip),%rax        # 222e0 <g_255>
    e1d6:	48 8b 00             	mov    (%rax),%rax
    e1d9:	48 89 c1             	mov    %rax,%rcx
    e1dc:	8b 85 a4 f3 ff ff    	mov    -0xc5c(%rbp),%eax
    e1e2:	0d 5f 2b 00 00       	or     $0x2b5f,%eax
    e1e7:	89 c2                	mov    %eax,%edx
    e1e9:	8b 85 a4 f3 ff ff    	mov    -0xc5c(%rbp),%eax
    e1ef:	39 c2                	cmp    %eax,%edx
    e1f1:	0f 9c c0             	setl   %al
    e1f4:	0f b6 c0             	movzbl %al,%eax
    e1f7:	48 89 ce             	mov    %rcx,%rsi
    e1fa:	48 89 c7             	mov    %rax,%rdi
    e1fd:	e8 b2 d7 ff ff       	callq  b9b4 <safe_mod_func_int64_t_s_s>
    e202:	88 85 ac f3 ff ff    	mov    %al,-0xc54(%rbp)
    e208:	0f be 85 ac f3 ff ff 	movsbl -0xc54(%rbp),%eax
    e20f:	be 03 00 00 00       	mov    $0x3,%esi
    e214:	89 c7                	mov    %eax,%edi
    e216:	e8 51 d1 ff ff       	callq  b36c <safe_rshift_func_int8_t_s_u>
    e21b:	0f be c0             	movsbl %al,%eax
    e21e:	8b 95 c4 f3 ff ff    	mov    -0xc3c(%rbp),%edx
    e224:	89 d6                	mov    %edx,%esi
    e226:	89 c7                	mov    %eax,%edi
    e228:	e8 74 d0 ff ff       	callq  b2a1 <safe_lshift_func_int8_t_s_s>
    e22d:	0f b6 c0             	movzbl %al,%eax
    e230:	be 06 00 00 00       	mov    $0x6,%esi
    e235:	89 c7                	mov    %eax,%edi
    e237:	e8 10 da ff ff       	callq  bc4c <safe_lshift_func_uint8_t_u_u>
    e23c:	89 c2                	mov    %eax,%edx
    e23e:	48 8b 05 bb 40 01 00 	mov    0x140bb(%rip),%rax        # 22300 <g_496>
    e245:	0f b6 d2             	movzbl %dl,%edx
    e248:	66 89 10             	mov    %dx,(%rax)
    e24b:	0f b7 00             	movzwl (%rax),%eax
    e24e:	98                   	cwtl   
    e24f:	89 de                	mov    %ebx,%esi
    e251:	89 c7                	mov    %eax,%edi
    e253:	e8 be d1 ff ff       	callq  b416 <safe_mod_func_int16_t_s_s>
    e258:	66 85 c0             	test   %ax,%ax
    e25b:	75 0f                	jne    e26c <func_2+0x13a4>
    e25d:	48 8b 05 7c 40 01 00 	mov    0x1407c(%rip),%rax        # 222e0 <g_255>
    e264:	48 8b 00             	mov    (%rax),%rax
    e267:	48 85 c0             	test   %rax,%rax
    e26a:	74 07                	je     e273 <func_2+0x13ab>
    e26c:	b8 01 00 00 00       	mov    $0x1,%eax
    e271:	eb 05                	jmp    e278 <func_2+0x13b0>
    e273:	b8 00 00 00 00       	mov    $0x0,%eax
    e278:	48 63 d0             	movslq %eax,%rdx
    e27b:	48 8d 05 ee cd 00 00 	lea    0xcdee(%rip),%rax        # 1b070 <g_271>
    e282:	48 39 85 48 f4 ff ff 	cmp    %rax,-0xbb8(%rbp)
    e289:	0f 94 c0             	sete   %al
    e28c:	0f b6 c0             	movzbl %al,%eax
    e28f:	48 89 d6             	mov    %rdx,%rsi
    e292:	48 89 c7             	mov    %rax,%rdi
    e295:	e8 15 de ff ff       	callq  c0af <safe_div_func_uint64_t_u_u>
    e29a:	0f b7 d0             	movzwl %ax,%edx
    e29d:	48 8b 0d 04 48 01 00 	mov    0x14804(%rip),%rcx        # 22aa8 <g_548>
    e2a4:	48 8b 05 fd 47 01 00 	mov    0x147fd(%rip),%rax        # 22aa8 <g_548>
    e2ab:	48 8b 09             	mov    (%rcx),%rcx
    e2ae:	48 89 08             	mov    %rcx,(%rax)
    e2b1:	48 8b 00             	mov    (%rax),%rax
    e2b4:	48 39 85 40 f4 ff ff 	cmp    %rax,-0xbc0(%rbp)
    e2bb:	0f 95 c0             	setne  %al
    e2be:	0f b6 c0             	movzbl %al,%eax
    e2c1:	89 d6                	mov    %edx,%esi
    e2c3:	89 c7                	mov    %eax,%edi
    e2c5:	e8 73 da ff ff       	callq  bd3d <safe_mul_func_uint16_t_u_u>
    e2ca:	66 85 c0             	test   %ax,%ax
    e2cd:	74 07                	je     e2d6 <func_2+0x140e>
    e2cf:	ba 01 00 00 00       	mov    $0x1,%edx
    e2d4:	eb 05                	jmp    e2db <func_2+0x1413>
    e2d6:	ba 00 00 00 00       	mov    $0x0,%edx
    e2db:	8b 85 a4 f3 ff ff    	mov    -0xc5c(%rbp),%eax
    e2e1:	09 d0                	or     %edx,%eax
    e2e3:	3d 55 4c cc 1a       	cmp    $0x1acc4c55,%eax
    e2e8:	0f 9f c0             	setg   %al
    e2eb:	0f b6 c0             	movzbl %al,%eax
    e2ee:	be 0e 00 00 00       	mov    $0xe,%esi
    e2f3:	89 c7                	mov    %eax,%edi
    e2f5:	e8 e7 d1 ff ff       	callq  b4e1 <safe_lshift_func_int16_t_s_u>
    e2fa:	66 89 85 a8 f3 ff ff 	mov    %ax,-0xc58(%rbp)
    e301:	0f bf 85 a8 f3 ff ff 	movswl -0xc58(%rbp),%eax
    e308:	be 00 00 00 00       	mov    $0x0,%esi
    e30d:	89 c7                	mov    %eax,%edi
    e30f:	e8 16 d2 ff ff       	callq  b52a <safe_rshift_func_int16_t_s_s>
    e314:	98                   	cwtl   
    e315:	be 01 00 00 00       	mov    $0x1,%esi
    e31a:	89 c7                	mov    %eax,%edi
    e31c:	e8 92 d0 ff ff       	callq  b3b3 <safe_add_func_int16_t_s_s>
    e321:	89 c2                	mov    %eax,%edx
    e323:	48 8b 05 76 3f 01 00 	mov    0x13f76(%rip),%rax        # 222a0 <g_155>
    e32a:	0f bf d2             	movswl %dx,%edx
    e32d:	89 10                	mov    %edx,(%rax)
    e32f:	8b 00                	mov    (%rax),%eax
    e331:	89 85 e4 f3 ff ff    	mov    %eax,-0xc1c(%rbp)
    e337:	8b 05 63 22 01 00    	mov    0x12263(%rip),%eax        # 205a0 <g_1086+0x20>
    e33d:	83 c0 01             	add    $0x1,%eax
    e340:	89 05 5a 22 01 00    	mov    %eax,0x1225a(%rip)        # 205a0 <g_1086+0x20>
    e346:	8b 05 54 22 01 00    	mov    0x12254(%rip),%eax        # 205a0 <g_1086+0x20>
    e34c:	83 f8 01             	cmp    $0x1,%eax
    e34f:	0f 86 46 fe ff ff    	jbe    e19b <func_2+0x12d3>
    e355:	c7 05 f5 1c 01 00 03 	movl   $0x3,0x11cf5(%rip)        # 20054 <g_115>
    e35c:	00 00 00 
    e35f:	eb 67                	jmp    e3c8 <func_2+0x1500>
    e361:	c7 85 f8 f3 ff ff 21 	movl   $0xf7b42821,-0xc08(%rbp)
    e368:	28 b4 f7 
    e36b:	8b 05 3b 20 01 00    	mov    0x1203b(%rip),%eax        # 203ac <g_257>
    e371:	85 c0                	test   %eax,%eax
    e373:	0f 85 d3 00 00 00    	jne    e44c <func_2+0x1584>
    e379:	83 ad f8 f3 ff ff 01 	subl   $0x1,-0xc08(%rbp)
    e380:	c7 85 f4 f3 ff ff ff 	movl   $0xffffffff,-0xc0c(%rbp)
    e387:	ff ff ff 
    e38a:	8b 85 d4 f5 ff ff    	mov    -0xa2c(%rbp),%eax
    e390:	89 c2                	mov    %eax,%edx
    e392:	48 8b 05 cf 20 01 00 	mov    0x120cf(%rip),%rax        # 20468 <g_482>
    e399:	48 39 c2             	cmp    %rax,%rdx
    e39c:	0f 9e c0             	setle  %al
    e39f:	0f b6 d0             	movzbl %al,%edx
    e3a2:	8b 85 64 f7 ff ff    	mov    -0x89c(%rbp),%eax
    e3a8:	39 c2                	cmp    %eax,%edx
    e3aa:	0f 94 c2             	sete   %dl
    e3ad:	48 8b 05 ec 3e 01 00 	mov    0x13eec(%rip),%rax        # 222a0 <g_155>
    e3b4:	0f b6 d2             	movzbl %dl,%edx
    e3b7:	89 10                	mov    %edx,(%rax)
    e3b9:	8b 05 95 1c 01 00    	mov    0x11c95(%rip),%eax        # 20054 <g_115>
    e3bf:	83 e8 01             	sub    $0x1,%eax
    e3c2:	89 05 8c 1c 01 00    	mov    %eax,0x11c8c(%rip)        # 20054 <g_115>
    e3c8:	8b 05 86 1c 01 00    	mov    0x11c86(%rip),%eax        # 20054 <g_115>
    e3ce:	85 c0                	test   %eax,%eax
    e3d0:	7f 8f                	jg     e361 <func_2+0x1499>
    e3d2:	8b 05 00 20 01 00    	mov    0x12000(%rip),%eax        # 203d8 <g_433+0x18>
    e3d8:	83 e8 01             	sub    $0x1,%eax
    e3db:	89 05 f7 1f 01 00    	mov    %eax,0x11ff7(%rip)        # 203d8 <g_433+0x18>
    e3e1:	8b 05 f1 1f 01 00    	mov    0x11ff1(%rip),%eax        # 203d8 <g_433+0x18>
    e3e7:	85 c0                	test   %eax,%eax
    e3e9:	0f 89 88 fd ff ff    	jns    e177 <func_2+0x12af>
    e3ef:	8b 85 64 f7 ff ff    	mov    -0x89c(%rbp),%eax
    e3f5:	e9 dc 00 00 00       	jmpq   e4d6 <func_2+0x160e>
    e3fa:	8b 85 c4 f3 ff ff    	mov    -0xc3c(%rbp),%eax
    e400:	48 98                	cltq   
    e402:	be 06 00 00 00       	mov    $0x6,%esi
    e407:	48 89 c7             	mov    %rax,%rdi
    e40a:	e8 3c dc ff ff       	callq  c04b <safe_sub_func_uint64_t_u_u>
    e40f:	89 85 c4 f3 ff ff    	mov    %eax,-0xc3c(%rbp)
    e415:	83 bd c4 f3 ff ff e9 	cmpl   $0xffffffe9,-0xc3c(%rbp)
    e41c:	0f 8c a3 fc ff ff    	jl     e0c5 <func_2+0x11fd>
    e422:	8b 85 b8 f3 ff ff    	mov    -0xc48(%rbp),%eax
    e428:	85 c0                	test   %eax,%eax
    e42a:	75 26                	jne    e452 <func_2+0x158a>
    e42c:	8b 05 76 21 01 00    	mov    0x12176(%rip),%eax        # 205a8 <g_1121>
    e432:	0f b7 c0             	movzwl %ax,%eax
    e435:	be 05 00 00 00       	mov    $0x5,%esi
    e43a:	89 c7                	mov    %eax,%edi
    e43c:	e8 de d8 ff ff       	callq  bd1f <safe_sub_func_uint16_t_u_u>
    e441:	0f b7 c0             	movzwl %ax,%eax
    e444:	89 05 5e 21 01 00    	mov    %eax,0x1215e(%rip)        # 205a8 <g_1121>
    e44a:	eb 0c                	jmp    e458 <func_2+0x1590>
    e44c:	90                   	nop
    e44d:	e9 ba ec ff ff       	jmpq   d10c <func_2+0x244>
    e452:	90                   	nop
    e453:	e9 b4 ec ff ff       	jmpq   d10c <func_2+0x244>
    e458:	8b 05 4a 21 01 00    	mov    0x1214a(%rip),%eax        # 205a8 <g_1121>
    e45e:	83 f8 e7             	cmp    $0xffffffe7,%eax
    e461:	0f 8d c5 ec ff ff    	jge    d12c <func_2+0x264>
    e467:	c7 05 47 22 01 00 00 	movl   $0x0,0x12247(%rip)        # 206b8 <g_1725+0x18>
    e46e:	00 00 00 
    e471:	eb 52                	jmp    e4c5 <func_2+0x15fd>
    e473:	c6 05 d2 1b 01 00 00 	movb   $0x0,0x11bd2(%rip)        # 2004c <g_47>
    e47a:	eb 2f                	jmp    e4ab <func_2+0x15e3>
    e47c:	48 8b 05 5d 46 01 00 	mov    0x1465d(%rip),%rax        # 22ae0 <g_943>
    e483:	48 8d 95 a4 f3 ff ff 	lea    -0xc5c(%rbp),%rdx
    e48a:	48 89 10             	mov    %rdx,(%rax)
    e48d:	48 8b 05 54 47 01 00 	mov    0x14754(%rip),%rax        # 22be8 <g_1806>
    e494:	48 8b 55 a8          	mov    -0x58(%rbp),%rdx
    e498:	48 89 10             	mov    %rdx,(%rax)
    e49b:	0f b6 05 aa 1b 01 00 	movzbl 0x11baa(%rip),%eax        # 2004c <g_47>
    e4a2:	83 c0 01             	add    $0x1,%eax
    e4a5:	88 05 a1 1b 01 00    	mov    %al,0x11ba1(%rip)        # 2004c <g_47>
    e4ab:	0f b6 05 9a 1b 01 00 	movzbl 0x11b9a(%rip),%eax        # 2004c <g_47>
    e4b2:	3c 15                	cmp    $0x15,%al
    e4b4:	7e c6                	jle    e47c <func_2+0x15b4>
    e4b6:	8b 05 fc 21 01 00    	mov    0x121fc(%rip),%eax        # 206b8 <g_1725+0x18>
    e4bc:	83 e8 01             	sub    $0x1,%eax
    e4bf:	89 05 f3 21 01 00    	mov    %eax,0x121f3(%rip)        # 206b8 <g_1725+0x18>
    e4c5:	8b 05 ed 21 01 00    	mov    0x121ed(%rip),%eax        # 206b8 <g_1725+0x18>
    e4cb:	83 f8 fb             	cmp    $0xfffffffb,%eax
    e4ce:	7c a3                	jl     e473 <func_2+0x15ab>
    e4d0:	8b 85 a4 f3 ff ff    	mov    -0xc5c(%rbp),%eax
    e4d6:	48 8b 5d c8          	mov    -0x38(%rbp),%rbx
    e4da:	64 48 33 1c 25 28 00 	xor    %fs:0x28,%rbx
    e4e1:	00 00 
    e4e3:	74 05                	je     e4ea <func_2+0x1622>
    e4e5:	e8 86 cb ff ff       	callq  b070 <__stack_chk_fail@plt>
    e4ea:	48 81 c4 48 0c 00 00 	add    $0xc48,%rsp
    e4f1:	5b                   	pop    %rbx
    e4f2:	41 5c                	pop    %r12
    e4f4:	41 5d                	pop    %r13
    e4f6:	41 5e                	pop    %r14
    e4f8:	41 5f                	pop    %r15
    e4fa:	5d                   	pop    %rbp
    e4fb:	c3                   	retq   

000000000000e4fc <func_7>:
    e4fc:	f3 0f 1e fa          	endbr64 
    e500:	55                   	push   %rbp
    e501:	48 89 e5             	mov    %rsp,%rbp
    e504:	41 57                	push   %r15
    e506:	41 56                	push   %r14
    e508:	41 55                	push   %r13
    e50a:	41 54                	push   %r12
    e50c:	53                   	push   %rbx
    e50d:	48 81 ec 98 05 00 00 	sub    $0x598,%rsp
    e514:	48 89 bd 58 fa ff ff 	mov    %rdi,-0x5a8(%rbp)
    e51b:	89 95 50 fa ff ff    	mov    %edx,-0x5b0(%rbp)
    e521:	89 c8                	mov    %ecx,%eax
    e523:	44 89 85 48 fa ff ff 	mov    %r8d,-0x5b8(%rbp)
    e52a:	89 f2                	mov    %esi,%edx
    e52c:	88 95 54 fa ff ff    	mov    %dl,-0x5ac(%rbp)
    e532:	88 85 4c fa ff ff    	mov    %al,-0x5b4(%rbp)
    e538:	64 48 8b 04 25 28 00 	mov    %fs:0x28,%rax
    e53f:	00 00 
    e541:	48 89 45 c8          	mov    %rax,-0x38(%rbp)
    e545:	31 c0                	xor    %eax,%eax
    e547:	48 8d 05 ca 1e 01 00 	lea    0x11eca(%rip),%rax        # 20418 <g_478+0x18>
    e54e:	48 89 85 c0 fa ff ff 	mov    %rax,-0x540(%rbp)
    e555:	48 8d 05 a4 3d 01 00 	lea    0x13da4(%rip),%rax        # 22300 <g_496>
    e55c:	48 89 85 c8 fa ff ff 	mov    %rax,-0x538(%rbp)
    e563:	c7 85 84 fa ff ff 67 	movl   $0x3615b467,-0x57c(%rbp)
    e56a:	b4 15 36 
    e56d:	c7 85 88 fa ff ff 09 	movl   $0x9,-0x578(%rbp)
    e574:	00 00 00 
    e577:	c7 85 8c fa ff ff ff 	movl   $0xffffffff,-0x574(%rbp)
    e57e:	ff ff ff 
    e581:	c7 85 90 fa ff ff f8 	movl   $0xfffffff8,-0x570(%rbp)
    e588:	ff ff ff 
    e58b:	c7 85 30 fc ff ff 62 	movl   $0xde853662,-0x3d0(%rbp)
    e592:	36 85 de 
    e595:	c7 85 34 fc ff ff 62 	movl   $0xde853662,-0x3cc(%rbp)
    e59c:	36 85 de 
    e59f:	c7 85 38 fc ff ff 10 	movl   $0xce34d410,-0x3c8(%rbp)
    e5a6:	d4 34 ce 
    e5a9:	c7 85 3c fc ff ff 00 	movl   $0x0,-0x3c4(%rbp)
    e5b0:	00 00 00 
    e5b3:	c7 85 40 fc ff ff 00 	movl   $0x0,-0x3c0(%rbp)
    e5ba:	00 00 00 
    e5bd:	c7 85 44 fc ff ff ff 	movl   $0xffffffff,-0x3bc(%rbp)
    e5c4:	ff ff ff 
    e5c7:	c7 85 48 fc ff ff 62 	movl   $0xde853662,-0x3b8(%rbp)
    e5ce:	36 85 de 
    e5d1:	c7 85 4c fc ff ff 62 	movl   $0xde853662,-0x3b4(%rbp)
    e5d8:	36 85 de 
    e5db:	c7 85 50 fc ff ff 10 	movl   $0xce34d410,-0x3b0(%rbp)
    e5e2:	d4 34 ce 
    e5e5:	c7 85 54 fc ff ff 00 	movl   $0x0,-0x3ac(%rbp)
    e5ec:	00 00 00 
    e5ef:	c7 85 58 fc ff ff 00 	movl   $0x0,-0x3a8(%rbp)
    e5f6:	00 00 00 
    e5f9:	c7 85 5c fc ff ff ff 	movl   $0xffffffff,-0x3a4(%rbp)
    e600:	ff ff ff 
    e603:	c7 85 60 fc ff ff 62 	movl   $0xde853662,-0x3a0(%rbp)
    e60a:	36 85 de 
    e60d:	c7 85 64 fc ff ff 62 	movl   $0xde853662,-0x39c(%rbp)
    e614:	36 85 de 
    e617:	c7 85 68 fc ff ff 10 	movl   $0xce34d410,-0x398(%rbp)
    e61e:	d4 34 ce 
    e621:	c6 85 62 fa ff ff 89 	movb   $0x89,-0x59e(%rbp)
    e628:	c7 85 94 fa ff ff f7 	movl   $0xfffffff7,-0x56c(%rbp)
    e62f:	ff ff ff 
    e632:	66 c7 85 86 fb ff ff 	movw   $0x436f,-0x47a(%rbp)
    e639:	6f 43 
    e63b:	66 c7 85 88 fb ff ff 	movw   $0x436f,-0x478(%rbp)
    e642:	6f 43 
    e644:	66 c7 85 8a fb ff ff 	movw   $0x436f,-0x476(%rbp)
    e64b:	6f 43 
    e64d:	66 c7 85 8c fb ff ff 	movw   $0x436f,-0x474(%rbp)
    e654:	6f 43 
    e656:	66 c7 85 8e fb ff ff 	movw   $0x436f,-0x472(%rbp)
    e65d:	6f 43 
    e65f:	c7 85 98 fa ff ff 00 	movl   $0x0,-0x568(%rbp)
    e666:	00 00 00 
    e669:	48 8d 05 88 3c 01 00 	lea    0x13c88(%rip),%rax        # 222f8 <g_431>
    e670:	48 89 85 d0 fa ff ff 	mov    %rax,-0x530(%rbp)
    e677:	48 8d 05 32 3b 01 00 	lea    0x13b32(%rip),%rax        # 221b0 <g_88+0x10>
    e67e:	48 89 85 d8 fa ff ff 	mov    %rax,-0x528(%rbp)
    e685:	48 8d 05 5f 1e 01 00 	lea    0x11e5f(%rip),%rax        # 204eb <g_846+0x6b>
    e68c:	48 89 85 e0 fa ff ff 	mov    %rax,-0x520(%rbp)
    e693:	48 c7 85 90 fb ff ff 	movq   $0x0,-0x470(%rbp)
    e69a:	00 00 00 00 
    e69e:	48 c7 85 98 fb ff ff 	movq   $0x0,-0x468(%rbp)
    e6a5:	00 00 00 00 
    e6a9:	48 c7 85 a0 fb ff ff 	movq   $0x0,-0x460(%rbp)
    e6b0:	00 00 00 00 
    e6b4:	48 8d 05 5d 1d 01 00 	lea    0x11d5d(%rip),%rax        # 20418 <g_478+0x18>
    e6bb:	48 89 85 e8 fa ff ff 	mov    %rax,-0x518(%rbp)
    e6c2:	c7 85 9c fa ff ff f8 	movl   $0xfffffff8,-0x564(%rbp)
    e6c9:	ff ff ff 
    e6cc:	c6 85 63 fa ff ff 00 	movb   $0x0,-0x59d(%rbp)
    e6d3:	c7 85 74 fa ff ff 00 	movl   $0x0,-0x58c(%rbp)
    e6da:	00 00 00 
    e6dd:	eb 4a                	jmp    e729 <func_7+0x22d>
    e6df:	c7 85 6c fa ff ff 00 	movl   $0x0,-0x594(%rbp)
    e6e6:	00 00 00 
    e6e9:	eb 2e                	jmp    e719 <func_7+0x21d>
    e6eb:	8b 85 6c fa ff ff    	mov    -0x594(%rbp),%eax
    e6f1:	48 98                	cltq   
    e6f3:	8b 95 74 fa ff ff    	mov    -0x58c(%rbp),%edx
    e6f9:	48 63 d2             	movslq %edx,%rdx
    e6fc:	48 01 d2             	add    %rdx,%rdx
    e6ff:	48 8d 5d d0          	lea    -0x30(%rbp),%rbx
    e703:	48 01 da             	add    %rbx,%rdx
    e706:	48 01 d0             	add    %rdx,%rax
    e709:	48 2d 52 04 00 00    	sub    $0x452,%rax
    e70f:	c6 00 26             	movb   $0x26,(%rax)
    e712:	83 85 6c fa ff ff 01 	addl   $0x1,-0x594(%rbp)
    e719:	83 bd 6c fa ff ff 01 	cmpl   $0x1,-0x594(%rbp)
    e720:	7e c9                	jle    e6eb <func_7+0x1ef>
    e722:	83 85 74 fa ff ff 01 	addl   $0x1,-0x58c(%rbp)
    e729:	83 bd 74 fa ff ff 03 	cmpl   $0x3,-0x58c(%rbp)
    e730:	7e ad                	jle    e6df <func_7+0x1e3>
    e732:	48 8b 05 df 43 01 00 	mov    0x143df(%rip),%rax        # 22b18 <g_1130>
    e739:	48 8b 00             	mov    (%rax),%rax
    e73c:	48 8b 95 c0 fa ff ff 	mov    -0x540(%rbp),%rdx
    e743:	48 89 10             	mov    %rdx,(%rax)
    e746:	c7 05 90 1c 01 00 02 	movl   $0x2,0x11c90(%rip)        # 203e0 <g_433+0x20>
    e74d:	00 00 00 
    e750:	90                   	nop
    e751:	8b 05 89 1c 01 00    	mov    0x11c89(%rip),%eax        # 203e0 <g_433+0x20>
    e757:	83 f8 09             	cmp    $0x9,%eax
    e75a:	77 0d                	ja     e769 <func_7+0x26d>
    e75c:	8b 85 50 fa ff ff    	mov    -0x5b0(%rbp),%eax
    e762:	48 98                	cltq   
    e764:	e9 07 0d 00 00       	jmpq   f470 <func_7+0xf74>
    e769:	48 83 bd c8 fa ff ff 	cmpq   $0x0,-0x538(%rbp)
    e770:	00 
    e771:	0f 84 e0 0c 00 00    	je     f457 <func_7+0xf5b>
    e777:	c7 85 68 fa ff ff ff 	movl   $0xffffffff,-0x598(%rbp)
    e77e:	ff ff ff 
    e781:	48 8d 05 20 1c 01 00 	lea    0x11c20(%rip),%rax        # 203a8 <g_146+0x2>
    e788:	48 89 85 f0 fa ff ff 	mov    %rax,-0x510(%rbp)
    e78f:	48 8d 85 68 fa ff ff 	lea    -0x598(%rbp),%rax
    e796:	48 89 85 f8 fa ff ff 	mov    %rax,-0x508(%rbp)
    e79d:	48 c7 85 b0 fb ff ff 	movq   $0x0,-0x450(%rbp)
    e7a4:	00 00 00 00 
    e7a8:	48 c7 85 b8 fb ff ff 	movq   $0x0,-0x448(%rbp)
    e7af:	00 00 00 00 
    e7b3:	48 c7 85 c0 fb ff ff 	movq   $0x0,-0x440(%rbp)
    e7ba:	00 00 00 00 
    e7be:	48 c7 85 c8 fb ff ff 	movq   $0x0,-0x438(%rbp)
    e7c5:	00 00 00 00 
    e7c9:	48 8d 05 e0 39 01 00 	lea    0x139e0(%rip),%rax        # 221b0 <g_88+0x10>
    e7d0:	48 89 85 00 fb ff ff 	mov    %rax,-0x500(%rbp)
    e7d7:	48 8d 05 ce 1d 01 00 	lea    0x11dce(%rip),%rax        # 205ac <g_1144>
    e7de:	48 89 85 08 fb ff ff 	mov    %rax,-0x4f8(%rbp)
    e7e5:	48 b8 13 28 e0 af 13 	movabs $0x61f1813afe02813,%rax
    e7ec:	18 1f 06 
    e7ef:	48 89 85 10 fb ff ff 	mov    %rax,-0x4f0(%rbp)
    e7f6:	c7 85 d0 fb ff ff 09 	movl   $0x9,-0x430(%rbp)
    e7fd:	00 00 00 
    e800:	c7 85 d4 fb ff ff 09 	movl   $0x9,-0x42c(%rbp)
    e807:	00 00 00 
    e80a:	c7 85 d8 fb ff ff 09 	movl   $0x9,-0x428(%rbp)
    e811:	00 00 00 
    e814:	c7 85 dc fb ff ff 09 	movl   $0x9,-0x424(%rbp)
    e81b:	00 00 00 
    e81e:	c7 85 e0 fb ff ff 09 	movl   $0x9,-0x420(%rbp)
    e825:	00 00 00 
    e828:	c7 85 e4 fb ff ff 09 	movl   $0x9,-0x41c(%rbp)
    e82f:	00 00 00 
    e832:	c7 85 e8 fb ff ff 09 	movl   $0x9,-0x418(%rbp)
    e839:	00 00 00 
    e83c:	c7 85 ec fb ff ff 09 	movl   $0x9,-0x414(%rbp)
    e843:	00 00 00 
    e846:	c7 85 f0 fb ff ff 09 	movl   $0x9,-0x410(%rbp)
    e84d:	00 00 00 
    e850:	c7 85 f4 fb ff ff 09 	movl   $0x9,-0x40c(%rbp)
    e857:	00 00 00 
    e85a:	48 b8 d9 72 bd 71 47 	movabs $0x41a72d4771bd72d9,%rax
    e861:	2d a7 41 
    e864:	48 89 85 18 fb ff ff 	mov    %rax,-0x4e8(%rbp)
    e86b:	c7 85 a0 fa ff ff ff 	movl   $0xffffffff,-0x560(%rbp)
    e872:	ff ff ff 
    e875:	48 c7 85 b0 fa ff ff 	movq   $0x0,-0x550(%rbp)
    e87c:	00 00 00 00 
    e880:	48 8d 85 b0 fa ff ff 	lea    -0x550(%rbp),%rax
    e887:	48 89 85 20 fb ff ff 	mov    %rax,-0x4e0(%rbp)
    e88e:	c6 85 64 fa ff ff a9 	movb   $0xa9,-0x59c(%rbp)
    e895:	8b 85 b0 fb ff ff    	mov    -0x450(%rbp),%eax
    e89b:	41 89 c4             	mov    %eax,%r12d
    e89e:	48 8b 85 c0 fa ff ff 	mov    -0x540(%rbp),%rax
    e8a5:	8b 18                	mov    (%rax),%ebx
    e8a7:	8b 85 68 fa ff ff    	mov    -0x598(%rbp),%eax
    e8ad:	89 c6                	mov    %eax,%esi
    e8af:	bf 00 00 00 00       	mov    $0x0,%edi
    e8b4:	e8 b3 ca ff ff       	callq  b36c <safe_rshift_func_int8_t_s_u>
    e8b9:	0f be d0             	movsbl %al,%edx
    e8bc:	48 8b 85 c0 fa ff ff 	mov    -0x540(%rbp),%rax
    e8c3:	8b 00                	mov    (%rax),%eax
    e8c5:	39 c2                	cmp    %eax,%edx
    e8c7:	80 bd 4c fa ff ff 00 	cmpb   $0x0,-0x5b4(%rbp)
    e8ce:	0f 9e c2             	setle  %dl
    e8d1:	48 8b 05 08 3a 01 00 	mov    0x13a08(%rip),%rax        # 222e0 <g_255>
    e8d8:	0f b6 d2             	movzbl %dl,%edx
    e8db:	48 89 10             	mov    %rdx,(%rax)
    e8de:	0f b6 85 81 fb ff ff 	movzbl -0x47f(%rbp),%eax
    e8e5:	84 c0                	test   %al,%al
    e8e7:	75 71                	jne    e95a <func_7+0x45e>
    e8e9:	48 8b 85 c0 fa ff ff 	mov    -0x540(%rbp),%rax
    e8f0:	8b 00                	mov    (%rax),%eax
    e8f2:	0f b6 d0             	movzbl %al,%edx
    e8f5:	8b 85 68 fa ff ff    	mov    -0x598(%rbp),%eax
    e8fb:	0f b6 c0             	movzbl %al,%eax
    e8fe:	89 d6                	mov    %edx,%esi
    e900:	89 c7                	mov    %eax,%edi
    e902:	e8 71 d2 ff ff       	callq  bb78 <safe_sub_func_uint8_t_u_u>
    e907:	0f b6 d0             	movzbl %al,%edx
    e90a:	8b 85 68 fa ff ff    	mov    -0x598(%rbp),%eax
    e910:	09 c2                	or     %eax,%edx
    e912:	0f b7 05 b3 1a 01 00 	movzwl 0x11ab3(%rip),%eax        # 203cc <g_433+0xc>
    e919:	0f b7 c0             	movzwl %ax,%eax
    e91c:	39 c2                	cmp    %eax,%edx
    e91e:	bf 24 51 4e 77       	mov    $0x774e5124,%edi
    e923:	e8 7e d5 ff ff       	callq  bea6 <safe_unary_minus_func_uint32_t_u>
    e928:	85 c0                	test   %eax,%eax
    e92a:	0f 94 c0             	sete   %al
    e92d:	0f b6 d0             	movzbl %al,%edx
    e930:	48 8b 85 c0 fa ff ff 	mov    -0x540(%rbp),%rax
    e937:	8b 00                	mov    (%rax),%eax
    e939:	39 c2                	cmp    %eax,%edx
    e93b:	0f 9f c0             	setg   %al
    e93e:	89 c2                	mov    %eax,%edx
    e940:	48 8b 85 f0 fa ff ff 	mov    -0x510(%rbp),%rax
    e947:	88 10                	mov    %dl,(%rax)
    e949:	48 8b 85 c0 fa ff ff 	mov    -0x540(%rbp),%rax
    e950:	8b 00                	mov    (%rax),%eax
    e952:	39 85 50 fa ff ff    	cmp    %eax,-0x5b0(%rbp)
    e958:	7d 07                	jge    e961 <func_7+0x465>
    e95a:	b8 01 00 00 00       	mov    $0x1,%eax
    e95f:	eb 05                	jmp    e966 <func_7+0x46a>
    e961:	b8 00 00 00 00       	mov    $0x0,%eax
    e966:	89 c2                	mov    %eax,%edx
    e968:	b8 21 d0 ab d3       	mov    $0xd3abd021,%eax
    e96d:	31 d0                	xor    %edx,%eax
    e96f:	0f b7 c0             	movzwl %ax,%eax
    e972:	89 de                	mov    %ebx,%esi
    e974:	89 c7                	mov    %eax,%edi
    e976:	e8 43 d4 ff ff       	callq  bdbe <safe_lshift_func_uint16_t_u_s>
    e97b:	0f b7 d0             	movzwl %ax,%edx
    e97e:	8b 85 48 fa ff ff    	mov    -0x5b8(%rbp),%eax
    e984:	39 c2                	cmp    %eax,%edx
    e986:	0f 9e c0             	setle  %al
    e989:	0f b6 d0             	movzbl %al,%edx
    e98c:	48 8b 85 f8 fa ff ff 	mov    -0x508(%rbp),%rax
    e993:	89 10                	mov    %edx,(%rax)
    e995:	8b 95 68 fa ff ff    	mov    -0x598(%rbp),%edx
    e99b:	8b 85 50 fa ff ff    	mov    -0x5b0(%rbp),%eax
    e9a1:	39 c2                	cmp    %eax,%edx
    e9a3:	0f 92 c0             	setb   %al
    e9a6:	0f b6 c0             	movzbl %al,%eax
    e9a9:	44 89 e6             	mov    %r12d,%esi
    e9ac:	89 c7                	mov    %eax,%edi
    e9ae:	e8 0b d3 ff ff       	callq  bcbe <safe_rshift_func_uint8_t_u_u>
    e9b3:	48 8b 05 e6 40 01 00 	mov    0x140e6(%rip),%rax        # 22aa0 <g_549>
    e9ba:	0f b7 00             	movzwl (%rax),%eax
    e9bd:	66 3d 13 6f          	cmp    $0x6f13,%ax
    e9c1:	0f 94 c0             	sete   %al
    e9c4:	0f b6 d0             	movzbl %al,%edx
    e9c7:	48 8b 85 c0 fa ff ff 	mov    -0x540(%rbp),%rax
    e9ce:	8b 00                	mov    (%rax),%eax
    e9d0:	09 d0                	or     %edx,%eax
    e9d2:	85 c0                	test   %eax,%eax
    e9d4:	75 0d                	jne    e9e3 <func_7+0x4e7>
    e9d6:	80 bd 54 fa ff ff 00 	cmpb   $0x0,-0x5ac(%rbp)
    e9dd:	0f 84 91 01 00 00    	je     eb74 <func_7+0x678>
    e9e3:	48 8d 05 0e 39 01 00 	lea    0x1390e(%rip),%rax        # 222f8 <g_431>
    e9ea:	48 89 85 b8 fa ff ff 	mov    %rax,-0x548(%rbp)
    e9f1:	48 8d 85 b8 fa ff ff 	lea    -0x548(%rbp),%rax
    e9f8:	48 89 85 70 fb ff ff 	mov    %rax,-0x490(%rbp)
    e9ff:	c7 85 70 fa ff ff 00 	movl   $0x0,-0x590(%rbp)
    ea06:	00 00 00 
    ea09:	eb 1e                	jmp    ea29 <func_7+0x52d>
    ea0b:	8b 85 70 fa ff ff    	mov    -0x590(%rbp),%eax
    ea11:	48 98                	cltq   
    ea13:	48 8d 15 8e 1b 01 00 	lea    0x11b8e(%rip),%rdx        # 205a8 <g_1121>
    ea1a:	48 89 94 c5 e0 fd ff 	mov    %rdx,-0x220(%rbp,%rax,8)
    ea21:	ff 
    ea22:	83 85 70 fa ff ff 01 	addl   $0x1,-0x590(%rbp)
    ea29:	83 bd 70 fa ff ff 00 	cmpl   $0x0,-0x590(%rbp)
    ea30:	7e d9                	jle    ea0b <func_7+0x50f>
    ea32:	83 85 98 fa ff ff 01 	addl   $0x1,-0x568(%rbp)
    ea39:	48 8b 05 a0 40 01 00 	mov    0x140a0(%rip),%rax        # 22ae0 <g_943>
    ea40:	48 8d 95 48 fa ff ff 	lea    -0x5b8(%rbp),%rdx
    ea47:	48 89 10             	mov    %rdx,(%rax)
    ea4a:	8b 85 50 fa ff ff    	mov    -0x5b0(%rbp),%eax
    ea50:	0f b6 d8             	movzbl %al,%ebx
    ea53:	48 8b 05 46 40 01 00 	mov    0x14046(%rip),%rax        # 22aa0 <g_549>
    ea5a:	0f b7 00             	movzwl (%rax),%eax
    ea5d:	44 0f b7 e0          	movzwl %ax,%r12d
    ea61:	8b 05 45 18 01 00    	mov    0x11845(%rip),%eax        # 202ac <g_117+0x22c>
    ea67:	41 89 c5             	mov    %eax,%r13d
    ea6a:	48 8b 85 c0 fa ff ff 	mov    -0x540(%rbp),%rax
    ea71:	8b 10                	mov    (%rax),%edx
    ea73:	48 8b 05 26 40 01 00 	mov    0x14026(%rip),%rax        # 22aa0 <g_549>
    ea7a:	0f b7 00             	movzwl (%rax),%eax
    ea7d:	0f b7 c8             	movzwl %ax,%ecx
    ea80:	0f be 85 54 fa ff ff 	movsbl -0x5ac(%rbp),%eax
    ea87:	39 c1                	cmp    %eax,%ecx
    ea89:	0f 9f c0             	setg   %al
    ea8c:	0f b6 c0             	movzbl %al,%eax
    ea8f:	39 c2                	cmp    %eax,%edx
    ea91:	0f 94 c0             	sete   %al
    ea94:	0f b6 c0             	movzbl %al,%eax
    ea97:	48 c7 c6 ff ff ff ff 	mov    $0xffffffffffffffff,%rsi
    ea9e:	48 89 c7             	mov    %rax,%rdi
    eaa1:	e8 51 cf ff ff       	callq  b9f7 <safe_div_func_int64_t_s_s>
    eaa6:	48 89 c2             	mov    %rax,%rdx
    eaa9:	48 b8 6a 60 e7 8e 26 	movabs $0xcfca94268ee7606a,%rax
    eab0:	94 ca cf 
    eab3:	48 09 d0             	or     %rdx,%rax
    eab6:	49 39 c5             	cmp    %rax,%r13
    eab9:	0f 94 c0             	sete   %al
    eabc:	0f b6 c0             	movzbl %al,%eax
    eabf:	be d4 00 00 00       	mov    $0xd4,%esi
    eac4:	89 c7                	mov    %eax,%edi
    eac6:	e8 c8 d0 ff ff       	callq  bb93 <safe_mul_func_uint8_t_u_u>
    eacb:	48 8b 05 06 40 01 00 	mov    0x14006(%rip),%rax        # 22ad8 <g_926>
    ead2:	48 8b 00             	mov    (%rax),%rax
    ead5:	48 8d 15 f4 3f 01 00 	lea    0x13ff4(%rip),%rdx        # 22ad0 <g_928>
    eadc:	48 39 d0             	cmp    %rdx,%rax
    eadf:	0f 94 c0             	sete   %al
    eae2:	0f b6 d0             	movzbl %al,%edx
    eae5:	8b 85 b4 fb ff ff    	mov    -0x44c(%rbp),%eax
    eaeb:	39 c2                	cmp    %eax,%edx
    eaed:	0f 9f c0             	setg   %al
    eaf0:	0f b6 d0             	movzbl %al,%edx
    eaf3:	48 8b 85 c0 fa ff ff 	mov    -0x540(%rbp),%rax
    eafa:	8b 00                	mov    (%rax),%eax
    eafc:	39 c2                	cmp    %eax,%edx
    eafe:	0f 94 c0             	sete   %al
    eb01:	0f b6 c0             	movzbl %al,%eax
    eb04:	48 39 85 58 fa ff ff 	cmp    %rax,-0x5a8(%rbp)
    eb0b:	0f 94 c0             	sete   %al
    eb0e:	0f b6 c0             	movzbl %al,%eax
    eb11:	44 89 e6             	mov    %r12d,%esi
    eb14:	89 c7                	mov    %eax,%edi
    eb16:	e8 eb d2 ff ff       	callq  be06 <safe_lshift_func_uint16_t_u_u>
    eb1b:	0f b6 c0             	movzbl %al,%eax
    eb1e:	89 de                	mov    %ebx,%esi
    eb20:	89 c7                	mov    %eax,%edi
    eb22:	e8 51 d0 ff ff       	callq  bb78 <safe_sub_func_uint8_t_u_u>
    eb27:	3c 01                	cmp    $0x1,%al
    eb29:	0f 95 c0             	setne  %al
    eb2c:	0f b6 c0             	movzbl %al,%eax
    eb2f:	48 89 05 9a 1a 01 00 	mov    %rax,0x11a9a(%rip)        # 205d0 <g_1448>
    eb36:	48 8b 95 b8 fa ff ff 	mov    -0x548(%rbp),%rdx
    eb3d:	48 8b 85 70 fb ff ff 	mov    -0x490(%rbp),%rax
    eb44:	48 89 10             	mov    %rdx,(%rax)
    eb47:	48 8b 85 70 fb ff ff 	mov    -0x490(%rbp),%rax
    eb4e:	48 8b 00             	mov    (%rax),%rax
    eb51:	48 39 85 d0 fa ff ff 	cmp    %rax,-0x530(%rbp)
    eb58:	0f 95 c2             	setne  %dl
    eb5b:	48 8b 05 3e 37 01 00 	mov    0x1373e(%rip),%rax        # 222a0 <g_155>
    eb62:	0f b6 d2             	movzbl %dl,%edx
    eb65:	89 10                	mov    %edx,(%rax)
    eb67:	90                   	nop
    eb68:	80 ad 63 fa ff ff 01 	subb   $0x1,-0x59d(%rbp)
    eb6f:	e9 f2 08 00 00       	jmpq   f466 <func_7+0xf6a>
    eb74:	48 c7 85 28 fb ff ff 	movq   $0x1,-0x4d8(%rbp)
    eb7b:	01 00 00 00 
    eb7f:	48 c7 85 70 fc ff ff 	movq   $0x0,-0x390(%rbp)
    eb86:	00 00 00 00 
    eb8a:	48 c7 85 78 fc ff ff 	movq   $0x0,-0x388(%rbp)
    eb91:	00 00 00 00 
    eb95:	48 c7 85 80 fc ff ff 	movq   $0x0,-0x380(%rbp)
    eb9c:	00 00 00 00 
    eba0:	48 c7 85 88 fc ff ff 	movq   $0x0,-0x378(%rbp)
    eba7:	00 00 00 00 
    ebab:	48 c7 85 90 fc ff ff 	movq   $0x0,-0x370(%rbp)
    ebb2:	00 00 00 00 
    ebb6:	48 c7 85 98 fc ff ff 	movq   $0x0,-0x368(%rbp)
    ebbd:	00 00 00 00 
    ebc1:	48 c7 85 a0 fc ff ff 	movq   $0x0,-0x360(%rbp)
    ebc8:	00 00 00 00 
    ebcc:	48 c7 85 a8 fc ff ff 	movq   $0x0,-0x358(%rbp)
    ebd3:	00 00 00 00 
    ebd7:	48 c7 85 b0 fc ff ff 	movq   $0x0,-0x350(%rbp)
    ebde:	00 00 00 00 
    ebe2:	48 c7 85 b8 fc ff ff 	movq   $0x0,-0x348(%rbp)
    ebe9:	00 00 00 00 
    ebed:	c7 85 a4 fa ff ff 1c 	movl   $0x7683a1c,-0x55c(%rbp)
    ebf4:	3a 68 07 
    ebf7:	48 8d 05 f6 14 01 00 	lea    0x114f6(%rip),%rax        # 200f4 <g_117+0x74>
    ebfe:	48 89 85 30 fb ff ff 	mov    %rax,-0x4d0(%rbp)
    ec05:	48 c7 85 38 fb ff ff 	movq   $0x0,-0x4c8(%rbp)
    ec0c:	00 00 00 00 
    ec10:	be fd ff ff ff       	mov    $0xfffffffd,%esi
    ec15:	bf 03 00 00 00       	mov    $0x3,%edi
    ec1a:	e8 e0 ca ff ff       	callq  b6ff <safe_div_func_int32_t_s_s>
    ec1f:	89 c6                	mov    %eax,%esi
    ec21:	bf 00 00 00 00       	mov    $0x0,%edi
    ec26:	e8 a5 d2 ff ff       	callq  bed0 <safe_sub_func_uint32_t_u_u>
    ec2b:	85 c0                	test   %eax,%eax
    ec2d:	0f 84 1b 08 00 00    	je     f44e <func_7+0xf52>
    ec33:	48 8d 05 66 3e 01 00 	lea    0x13e66(%rip),%rax        # 22aa0 <g_549>
    ec3a:	48 89 85 40 fb ff ff 	mov    %rax,-0x4c0(%rbp)
    ec41:	48 c7 85 48 fb ff ff 	movq   $0x0,-0x4b8(%rbp)
    ec48:	00 00 00 00 
    ec4c:	48 c7 85 50 fb ff ff 	movq   $0x0,-0x4b0(%rbp)
    ec53:	00 00 00 00 
    ec57:	48 8d 05 42 5f 01 00 	lea    0x15f42(%rip),%rax        # 24ba0 <g_898>
    ec5e:	48 89 85 58 fb ff ff 	mov    %rax,-0x4a8(%rbp)
    ec65:	c7 85 a8 fa ff ff e6 	movl   $0x2c5515e6,-0x558(%rbp)
    ec6c:	15 55 2c 
    ec6f:	48 c7 85 60 fb ff ff 	movq   $0x0,-0x4a0(%rbp)
    ec76:	00 00 00 00 
    ec7a:	c6 85 65 fa ff ff 77 	movb   $0x77,-0x59b(%rbp)
    ec81:	48 8d 85 c0 fc ff ff 	lea    -0x340(%rbp),%rax
    ec88:	48 8d 15 91 22 01 00 	lea    0x12291(%rip),%rdx        # 20f20 <g_2871+0x6d8>
    ec8f:	b9 23 00 00 00       	mov    $0x23,%ecx
    ec94:	48 89 c7             	mov    %rax,%rdi
    ec97:	48 89 d6             	mov    %rdx,%rsi
    ec9a:	f3 48 a5             	rep movsq %ds:(%rsi),%es:(%rdi)
    ec9d:	48 8d 85 c0 fc ff ff 	lea    -0x340(%rbp),%rax
    eca4:	48 05 e8 00 00 00    	add    $0xe8,%rax
    ecaa:	48 89 85 00 fc ff ff 	mov    %rax,-0x400(%rbp)
    ecb1:	48 8d 85 c0 fc ff ff 	lea    -0x340(%rbp),%rax
    ecb8:	48 83 c0 78          	add    $0x78,%rax
    ecbc:	48 89 85 08 fc ff ff 	mov    %rax,-0x3f8(%rbp)
    ecc3:	48 8d 85 c0 fc ff ff 	lea    -0x340(%rbp),%rax
    ecca:	48 05 e8 00 00 00    	add    $0xe8,%rax
    ecd0:	48 89 85 10 fc ff ff 	mov    %rax,-0x3f0(%rbp)
    ecd7:	48 8d 85 c0 fc ff ff 	lea    -0x340(%rbp),%rax
    ecde:	48 05 e8 00 00 00    	add    $0xe8,%rax
    ece4:	48 89 85 18 fc ff ff 	mov    %rax,-0x3e8(%rbp)
    eceb:	48 8d 85 c0 fc ff ff 	lea    -0x340(%rbp),%rax
    ecf2:	48 83 c0 78          	add    $0x78,%rax
    ecf6:	48 89 85 20 fc ff ff 	mov    %rax,-0x3e0(%rbp)
    ecfd:	48 8d 85 c0 fc ff ff 	lea    -0x340(%rbp),%rax
    ed04:	48 05 e8 00 00 00    	add    $0xe8,%rax
    ed0a:	48 89 85 28 fc ff ff 	mov    %rax,-0x3d8(%rbp)
    ed11:	c7 85 78 fa ff ff 00 	movl   $0x0,-0x588(%rbp)
    ed18:	00 00 00 
    ed1b:	eb 51                	jmp    ed6e <func_7+0x872>
    ed1d:	c7 85 7c fa ff ff 00 	movl   $0x0,-0x584(%rbp)
    ed24:	00 00 00 
    ed27:	eb 35                	jmp    ed5e <func_7+0x862>
    ed29:	8b 85 7c fa ff ff    	mov    -0x584(%rbp),%eax
    ed2f:	48 63 c8             	movslq %eax,%rcx
    ed32:	8b 85 78 fa ff ff    	mov    -0x588(%rbp),%eax
    ed38:	48 63 d0             	movslq %eax,%rdx
    ed3b:	48 89 d0             	mov    %rdx,%rax
    ed3e:	48 c1 e0 02          	shl    $0x2,%rax
    ed42:	48 01 d0             	add    %rdx,%rax
    ed45:	48 01 c0             	add    %rax,%rax
    ed48:	48 01 c8             	add    %rcx,%rax
    ed4b:	48 c7 84 c5 e0 fd ff 	movq   $0x0,-0x220(%rbp,%rax,8)
    ed52:	ff 00 00 00 00 
    ed57:	83 85 7c fa ff ff 01 	addl   $0x1,-0x584(%rbp)
    ed5e:	83 bd 7c fa ff ff 09 	cmpl   $0x9,-0x584(%rbp)
    ed65:	7e c2                	jle    ed29 <func_7+0x82d>
    ed67:	83 85 78 fa ff ff 01 	addl   $0x1,-0x588(%rbp)
    ed6e:	83 bd 78 fa ff ff 05 	cmpl   $0x5,-0x588(%rbp)
    ed75:	7e a6                	jle    ed1d <func_7+0x821>
    ed77:	8b 95 50 fa ff ff    	mov    -0x5b0(%rbp),%edx
    ed7d:	48 8b 85 58 fb ff ff 	mov    -0x4a8(%rbp),%rax
    ed84:	48 8b 8d 48 fb ff ff 	mov    -0x4b8(%rbp),%rcx
    ed8b:	48 89 08             	mov    %rcx,(%rax)
    ed8e:	48 8b 85 c8 fa ff ff 	mov    -0x538(%rbp),%rax
    ed95:	48 8b 00             	mov    (%rax),%rax
    ed98:	0f b7 30             	movzwl (%rax),%esi
    ed9b:	48 8b 85 00 fb ff ff 	mov    -0x500(%rbp),%rax
    eda2:	48 3b 85 d8 fa ff ff 	cmp    -0x528(%rbp),%rax
    eda9:	0f 95 c0             	setne  %al
    edac:	0f b6 c8             	movzbl %al,%ecx
    edaf:	48 8b 85 c8 fa ff ff 	mov    -0x538(%rbp),%rax
    edb6:	48 8b 00             	mov    (%rax),%rax
    edb9:	21 f1                	and    %esi,%ecx
    edbb:	66 89 08             	mov    %cx,(%rax)
    edbe:	0f b7 00             	movzwl (%rax),%eax
    edc1:	48 0f bf c8          	movswq %ax,%rcx
    edc5:	48 8b 85 c0 fa ff ff 	mov    -0x540(%rbp),%rax
    edcc:	8b 00                	mov    (%rax),%eax
    edce:	48 98                	cltq   
    edd0:	48 23 85 58 fa ff ff 	and    -0x5a8(%rbp),%rax
    edd7:	48 39 c1             	cmp    %rax,%rcx
    edda:	75 07                	jne    ede3 <func_7+0x8e7>
    eddc:	83 bd 50 fa ff ff 00 	cmpl   $0x0,-0x5b0(%rbp)
    ede3:	0f be 85 4c fa ff ff 	movsbl -0x5b4(%rbp),%eax
    edea:	39 85 50 fa ff ff    	cmp    %eax,-0x5b0(%rbp)
    edf0:	48 8b 85 c0 fa ff ff 	mov    -0x540(%rbp),%rax
    edf7:	8b 00                	mov    (%rax),%eax
    edf9:	85 c0                	test   %eax,%eax
    edfb:	74 08                	je     ee05 <func_7+0x909>
    edfd:	8b 85 48 fa ff ff    	mov    -0x5b8(%rbp),%eax
    ee03:	85 c0                	test   %eax,%eax
    ee05:	48 8b 85 c0 fa ff ff 	mov    -0x540(%rbp),%rax
    ee0c:	8b 00                	mov    (%rax),%eax
    ee0e:	98                   	cwtl   
    ee0f:	89 d6                	mov    %edx,%esi
    ee11:	89 c7                	mov    %eax,%edi
    ee13:	e8 4b c7 ff ff       	callq  b563 <safe_rshift_func_int16_t_s_u>
    ee18:	48 8d 05 81 3c 01 00 	lea    0x13c81(%rip),%rax        # 22aa0 <g_549>
    ee1f:	48 39 85 40 fb ff ff 	cmp    %rax,-0x4c0(%rbp)
    ee26:	48 8b 85 e0 fa ff ff 	mov    -0x520(%rbp),%rax
    ee2d:	48 3b 85 08 fb ff ff 	cmp    -0x4f8(%rbp),%rax
    ee34:	83 bd 50 fa ff ff 00 	cmpl   $0x0,-0x5b0(%rbp)
    ee3b:	74 10                	je     ee4d <func_7+0x951>
    ee3d:	80 bd 4c fa ff ff 00 	cmpb   $0x0,-0x5b4(%rbp)
    ee44:	74 07                	je     ee4d <func_7+0x951>
    ee46:	b8 01 00 00 00       	mov    $0x1,%eax
    ee4b:	eb 05                	jmp    ee52 <func_7+0x956>
    ee4d:	b8 00 00 00 00       	mov    $0x0,%eax
    ee52:	be ff ff ff ff       	mov    $0xffffffff,%esi
    ee57:	89 c7                	mov    %eax,%edi
    ee59:	e8 72 d0 ff ff       	callq  bed0 <safe_sub_func_uint32_t_u_u>
    ee5e:	85 c0                	test   %eax,%eax
    ee60:	0f 84 8a 02 00 00    	je     f0f0 <func_7+0xbf4>
    ee66:	48 c7 85 68 fb ff ff 	movq   $0x0,-0x498(%rbp)
    ee6d:	00 00 00 00 
    ee71:	c7 85 ac fa ff ff fd 	movl   $0xfffffffd,-0x554(%rbp)
    ee78:	ff ff ff 
    ee7b:	48 83 bd 28 fb ff ff 	cmpq   $0x0,-0x4d8(%rbp)
    ee82:	00 
    ee83:	0f 84 e5 00 00 00    	je     ef6e <func_7+0xa72>
    ee89:	80 bd 54 fa ff ff 00 	cmpb   $0x0,-0x5ac(%rbp)
    ee90:	0f 84 d8 00 00 00    	je     ef6e <func_7+0xa72>
    ee96:	8b 85 a8 fa ff ff    	mov    -0x558(%rbp),%eax
    ee9c:	98                   	cwtl   
    ee9d:	be f0 e3 ff ff       	mov    $0xffffe3f0,%esi
    eea2:	89 c7                	mov    %eax,%edi
    eea4:	e8 0a c5 ff ff       	callq  b3b3 <safe_add_func_int16_t_s_s>
    eea9:	48 0f bf c0          	movswq %ax,%rax
    eead:	48 89 c7             	mov    %rax,%rdi
    eeb0:	e8 61 c9 ff ff       	callq  b816 <safe_unary_minus_func_int64_t_s>
    eeb5:	89 c2                	mov    %eax,%edx
    eeb7:	48 8b 85 c0 fa ff ff 	mov    -0x540(%rbp),%rax
    eebe:	89 10                	mov    %edx,(%rax)
    eec0:	8b 85 48 fa ff ff    	mov    -0x5b8(%rbp),%eax
    eec6:	85 c0                	test   %eax,%eax
    eec8:	90                   	nop
    eec9:	f3 0f 1e fa          	endbr64 
    eecd:	0f be 95 54 fa ff ff 	movsbl -0x5ac(%rbp),%edx
    eed4:	48 8b 85 c0 fa ff ff 	mov    -0x540(%rbp),%rax
    eedb:	89 10                	mov    %edx,(%rax)
    eedd:	48 8b 85 58 fb ff ff 	mov    -0x4a8(%rbp),%rax
    eee4:	48 8b 95 68 fb ff ff 	mov    -0x498(%rbp),%rdx
    eeeb:	48 89 10             	mov    %rdx,(%rax)
    eeee:	be 48 c6 ff ff       	mov    $0xffffc648,%esi
    eef3:	bf 00 00 00 00       	mov    $0x0,%edi
    eef8:	e8 f8 c4 ff ff       	callq  b3f5 <safe_mul_func_int16_t_s_s>
    eefd:	0f be c0             	movsbl %al,%eax
    ef00:	be 00 00 00 00       	mov    $0x0,%esi
    ef05:	89 c7                	mov    %eax,%edi
    ef07:	e8 e2 c3 ff ff       	callq  b2ee <safe_lshift_func_int8_t_s_u>
    ef0c:	66 98                	cbtw   
    ef0e:	0f b7 d0             	movzwl %ax,%edx
    ef11:	48 8b 05 90 3b 01 00 	mov    0x13b90(%rip),%rax        # 22aa8 <g_548>
    ef18:	48 8b 00             	mov    (%rax),%rax
    ef1b:	0f b7 00             	movzwl (%rax),%eax
    ef1e:	0f b7 c0             	movzwl %ax,%eax
    ef21:	89 d6                	mov    %edx,%esi
    ef23:	89 c7                	mov    %eax,%edi
    ef25:	e8 d5 cd ff ff       	callq  bcff <safe_add_func_uint16_t_u_u>
    ef2a:	66 83 f8 05          	cmp    $0x5,%ax
    ef2e:	0f 97 c0             	seta   %al
    ef31:	0f b6 d0             	movzbl %al,%edx
    ef34:	0f b6 05 72 16 01 00 	movzbl 0x11672(%rip),%eax        # 205ad <g_1145>
    ef3b:	83 e0 3f             	and    $0x3f,%eax
    ef3e:	0f b6 c0             	movzbl %al,%eax
    ef41:	48 89 d6             	mov    %rdx,%rsi
    ef44:	48 89 c7             	mov    %rax,%rdi
    ef47:	e8 f5 c8 ff ff       	callq  b841 <safe_add_func_int64_t_s_s>
    ef4c:	48 85 c0             	test   %rax,%rax
    ef4f:	0f 94 c0             	sete   %al
    ef52:	0f b6 d0             	movzbl %al,%edx
    ef55:	48 8b 85 c0 fa ff ff 	mov    -0x540(%rbp),%rax
    ef5c:	8b 00                	mov    (%rax),%eax
    ef5e:	31 c2                	xor    %eax,%edx
    ef60:	48 8b 85 c0 fa ff ff 	mov    -0x540(%rbp),%rax
    ef67:	89 10                	mov    %edx,(%rax)
    ef69:	e9 6c 03 00 00       	jmpq   f2da <func_7+0xdde>
    ef6e:	48 8b 05 a3 3b 01 00 	mov    0x13ba3(%rip),%rax        # 22b18 <g_1130>
    ef75:	48 8b 10             	mov    (%rax),%rdx
    ef78:	48 8b 05 61 3b 01 00 	mov    0x13b61(%rip),%rax        # 22ae0 <g_943>
    ef7f:	48 8b 12             	mov    (%rdx),%rdx
    ef82:	48 89 10             	mov    %rdx,(%rax)
    ef85:	48 8b 05 1c 3b 01 00 	mov    0x13b1c(%rip),%rax        # 22aa8 <g_548>
    ef8c:	48 8b 00             	mov    (%rax),%rax
    ef8f:	0f b7 00             	movzwl (%rax),%eax
    ef92:	0f bf d8             	movswl %ax,%ebx
    ef95:	8b 85 48 fa ff ff    	mov    -0x5b8(%rbp),%eax
    ef9b:	4c 63 e0             	movslq %eax,%r12
    ef9e:	44 0f be ad 54 fa ff 	movsbl -0x5ac(%rbp),%r13d
    efa5:	ff 
    efa6:	48 8b 85 c8 fa ff ff 	mov    -0x538(%rbp),%rax
    efad:	48 8b 00             	mov    (%rax),%rax
    efb0:	66 0f be 95 4c fa ff 	movsbw -0x5b4(%rbp),%dx
    efb7:	ff 
    efb8:	66 89 10             	mov    %dx,(%rax)
    efbb:	0f b7 00             	movzwl (%rax),%eax
    efbe:	66 85 c0             	test   %ax,%ax
    efc1:	74 2f                	je     eff2 <func_7+0xaf6>
    efc3:	8b 85 a4 fa ff ff    	mov    -0x55c(%rbp),%eax
    efc9:	0f be d0             	movsbl %al,%edx
    efcc:	48 8b 85 a8 fc ff ff 	mov    -0x358(%rbp),%rax
    efd3:	48 85 c0             	test   %rax,%rax
    efd6:	0f 95 c0             	setne  %al
    efd9:	0f b6 c0             	movzbl %al,%eax
    efdc:	89 d6                	mov    %edx,%esi
    efde:	89 c7                	mov    %eax,%edi
    efe0:	e8 0d c2 ff ff       	callq  b1f2 <safe_sub_func_int8_t_s_s>
    efe5:	48 8b 05 b4 3a 01 00 	mov    0x13ab4(%rip),%rax        # 22aa0 <g_549>
    efec:	0f b7 00             	movzwl (%rax),%eax
    efef:	66 85 c0             	test   %ax,%ax
    eff2:	48 8b 05 e7 32 01 00 	mov    0x132e7(%rip),%rax        # 222e0 <g_255>
    eff9:	48 8b 10             	mov    (%rax),%rdx
    effc:	8b 85 50 fa ff ff    	mov    -0x5b0(%rbp),%eax
    f002:	48 98                	cltq   
    f004:	48 39 c2             	cmp    %rax,%rdx
    f007:	0f 97 c0             	seta   %al
    f00a:	0f b6 c0             	movzbl %al,%eax
    f00d:	89 c7                	mov    %eax,%edi
    f00f:	e8 82 c5 ff ff       	callq  b596 <safe_unary_minus_func_int32_t_s>
    f014:	c7 85 ac fa ff ff 00 	movl   $0x0,-0x554(%rbp)
    f01b:	00 00 00 
    f01e:	44 89 e8             	mov    %r13d,%eax
    f021:	23 85 ac fa ff ff    	and    -0x554(%rbp),%eax
    f027:	34 b4                	xor    $0xb4,%al
    f029:	89 c2                	mov    %eax,%edx
    f02b:	8b 85 c4 fb ff ff    	mov    -0x43c(%rbp),%eax
    f031:	21 d0                	and    %edx,%eax
    f033:	48 98                	cltq   
    f035:	4c 89 e6             	mov    %r12,%rsi
    f038:	48 89 c7             	mov    %rax,%rdi
    f03b:	e8 6f d0 ff ff       	callq  c0af <safe_div_func_uint64_t_u_u>
    f040:	be ff ff ff ff       	mov    $0xffffffff,%esi
    f045:	89 c7                	mov    %eax,%edi
    f047:	e8 80 c6 ff ff       	callq  b6cc <safe_mod_func_int32_t_s_s>
    f04c:	89 c2                	mov    %eax,%edx
    f04e:	48 8b 85 f0 fa ff ff 	mov    -0x510(%rbp),%rax
    f055:	88 10                	mov    %dl,(%rax)
    f057:	48 8b 85 f0 fa ff ff 	mov    -0x510(%rbp),%rax
    f05e:	0f b6 00             	movzbl (%rax),%eax
    f061:	88 05 11 14 01 00    	mov    %al,0x11411(%rip)        # 20478 <g_791>
    f067:	48 8d 05 aa 12 01 00 	lea    0x112aa(%rip),%rax        # 20318 <g_117+0x298>
    f06e:	48 39 85 30 fb ff ff 	cmp    %rax,-0x4d0(%rbp)
    f075:	0f 95 c0             	setne  %al
    f078:	0f b6 c0             	movzbl %al,%eax
    f07b:	be f9 ff ff ff       	mov    $0xfffffff9,%esi
    f080:	89 c7                	mov    %eax,%edi
    f082:	e8 78 c6 ff ff       	callq  b6ff <safe_div_func_int32_t_s_s>
    f087:	98                   	cwtl   
    f088:	89 de                	mov    %ebx,%esi
    f08a:	89 c7                	mov    %eax,%edi
    f08c:	e8 c4 c3 ff ff       	callq  b455 <safe_div_func_int16_t_s_s>
    f091:	48 8b 95 c0 fa ff ff 	mov    -0x540(%rbp),%rdx
    f098:	8b 12                	mov    (%rdx),%edx
    f09a:	98                   	cwtl   
    f09b:	21 c2                	and    %eax,%edx
    f09d:	48 8b 85 c0 fa ff ff 	mov    -0x540(%rbp),%rax
    f0a4:	89 10                	mov    %edx,(%rax)
    f0a6:	48 83 bd 10 fb ff ff 	cmpq   $0x0,-0x4f0(%rbp)
    f0ad:	00 
    f0ae:	74 16                	je     f0c6 <func_7+0xbca>
    f0b0:	bf 09 00 00 00       	mov    $0x9,%edi
    f0b5:	e8 2f cc ff ff       	callq  bce9 <safe_unary_minus_func_uint16_t_u>
    f0ba:	66 85 c0             	test   %ax,%ax
    f0bd:	74 07                	je     f0c6 <func_7+0xbca>
    f0bf:	b9 01 00 00 00       	mov    $0x1,%ecx
    f0c4:	eb 05                	jmp    f0cb <func_7+0xbcf>
    f0c6:	b9 00 00 00 00       	mov    $0x0,%ecx
    f0cb:	48 8b 05 46 3a 01 00 	mov    0x13a46(%rip),%rax        # 22b18 <g_1130>
    f0d2:	48 8b 00             	mov    (%rax),%rax
    f0d5:	48 8b 00             	mov    (%rax),%rax
    f0d8:	8b 10                	mov    (%rax),%edx
    f0da:	48 8b 05 37 3a 01 00 	mov    0x13a37(%rip),%rax        # 22b18 <g_1130>
    f0e1:	48 8b 00             	mov    (%rax),%rax
    f0e4:	48 8b 00             	mov    (%rax),%rax
    f0e7:	09 ca                	or     %ecx,%edx
    f0e9:	89 10                	mov    %edx,(%rax)
    f0eb:	e9 ea 01 00 00       	jmpq   f2da <func_7+0xdde>
    f0f0:	c7 85 80 fa ff ff 00 	movl   $0x0,-0x580(%rbp)
    f0f7:	00 00 00 
    f0fa:	eb 19                	jmp    f115 <func_7+0xc19>
    f0fc:	8b 85 80 fa ff ff    	mov    -0x580(%rbp),%eax
    f102:	48 98                	cltq   
    f104:	66 c7 84 45 78 fb ff 	movw   $0x3206,-0x488(%rbp,%rax,2)
    f10b:	ff 06 32 
    f10e:	83 85 80 fa ff ff 01 	addl   $0x1,-0x580(%rbp)
    f115:	83 bd 80 fa ff ff 02 	cmpl   $0x2,-0x580(%rbp)
    f11c:	7e de                	jle    f0fc <func_7+0xc00>
    f11e:	0f b7 85 7c fb ff ff 	movzwl -0x484(%rbp),%eax
    f125:	0f b6 c0             	movzbl %al,%eax
    f128:	c7 85 a8 fa ff ff cc 	movl   $0xcc,-0x558(%rbp)
    f12f:	00 00 00 
    f132:	89 c6                	mov    %eax,%esi
    f134:	bf cc 00 00 00       	mov    $0xcc,%edi
    f139:	e8 9d ca ff ff       	callq  bbdb <safe_div_func_uint8_t_u_u>
    f13e:	84 c0                	test   %al,%al
    f140:	0f 84 55 01 00 00    	je     f29b <func_7+0xd9f>
    f146:	66 c7 85 66 fa ff ff 	movw   $0x5,-0x59a(%rbp)
    f14d:	05 00 
    f14f:	66 83 ad 66 fa ff ff 	subw   $0x1,-0x59a(%rbp)
    f156:	01 
    f157:	0f b7 85 66 fa ff ff 	movzwl -0x59a(%rbp),%eax
    f15e:	0f be d8             	movsbl %al,%ebx
    f161:	8b 85 d4 fb ff ff    	mov    -0x42c(%rbp),%eax
    f167:	0f b7 d0             	movzwl %ax,%edx
    f16a:	48 8b 05 37 39 01 00 	mov    0x13937(%rip),%rax        # 22aa8 <g_548>
    f171:	48 8b 00             	mov    (%rax),%rax
    f174:	0f b7 00             	movzwl (%rax),%eax
    f177:	0f b7 c0             	movzwl %ax,%eax
    f17a:	89 d6                	mov    %edx,%esi
    f17c:	89 c7                	mov    %eax,%edi
    f17e:	e8 7c cb ff ff       	callq  bcff <safe_add_func_uint16_t_u_u>
    f183:	0f b7 c0             	movzwl %ax,%eax
    f186:	48 89 c7             	mov    %rax,%rdi
    f189:	e8 8b ce ff ff       	callq  c019 <safe_unary_minus_func_uint64_t_u>
    f18e:	48 8b 05 4b 31 01 00 	mov    0x1314b(%rip),%rax        # 222e0 <g_255>
    f195:	48 8b 10             	mov    (%rax),%rdx
    f198:	48 83 ea 01          	sub    $0x1,%rdx
    f19c:	48 89 10             	mov    %rdx,(%rax)
    f19f:	48 8b 00             	mov    (%rax),%rax
    f1a2:	88 85 65 fa ff ff    	mov    %al,-0x59b(%rbp)
    f1a8:	0f b7 05 2d 12 01 00 	movzwl 0x1122d(%rip),%eax        # 203dc <g_433+0x1c>
    f1af:	66 85 c0             	test   %ax,%ax
    f1b2:	75 4a                	jne    f1fe <func_7+0xd02>
    f1b4:	8b 85 50 fa ff ff    	mov    -0x5b0(%rbp),%eax
    f1ba:	98                   	cwtl   
    f1bb:	be b9 63 00 00       	mov    $0x63b9,%esi
    f1c0:	89 c7                	mov    %eax,%edi
    f1c2:	e8 0c c2 ff ff       	callq  b3d3 <safe_sub_func_int16_t_s_s>
    f1c7:	0f b6 c0             	movzbl %al,%eax
    f1ca:	be 02 00 00 00       	mov    $0x2,%esi
    f1cf:	89 c7                	mov    %eax,%edi
    f1d1:	e8 76 ca ff ff       	callq  bc4c <safe_lshift_func_uint8_t_u_u>
    f1d6:	0f b6 d0             	movzbl %al,%edx
    f1d9:	48 83 bd e8 fa ff ff 	cmpq   $0x0,-0x518(%rbp)
    f1e0:	00 
    f1e1:	0f 94 c0             	sete   %al
    f1e4:	0f b6 c0             	movzbl %al,%eax
    f1e7:	39 c2                	cmp    %eax,%edx
    f1e9:	0f 9e c0             	setle  %al
    f1ec:	0f b6 c0             	movzbl %al,%eax
    f1ef:	be 0e 00 00 00       	mov    $0xe,%esi
    f1f4:	89 c7                	mov    %eax,%edi
    f1f6:	e8 97 c2 ff ff       	callq  b492 <safe_lshift_func_int16_t_s_s>
    f1fb:	66 85 c0             	test   %ax,%ax
    f1fe:	0f b7 95 66 fa ff ff 	movzwl -0x59a(%rbp),%edx
    f205:	48 8b 05 d4 30 01 00 	mov    0x130d4(%rip),%rax        # 222e0 <g_255>
    f20c:	48 8b 00             	mov    (%rax),%rax
    f20f:	48 39 c2             	cmp    %rax,%rdx
    f212:	0f 95 c0             	setne  %al
    f215:	0f b6 c0             	movzbl %al,%eax
    f218:	89 c7                	mov    %eax,%edi
    f21a:	e8 87 cc ff ff       	callq  bea6 <safe_unary_minus_func_uint32_t_u>
    f21f:	b8 01 00 00 00       	mov    $0x1,%eax
    f224:	83 f8 ff             	cmp    $0xffffffff,%eax
    f227:	0f 94 c0             	sete   %al
    f22a:	0f b6 c0             	movzbl %al,%eax
    f22d:	89 c6                	mov    %eax,%esi
    f22f:	bf 01 00 00 00       	mov    $0x1,%edi
    f234:	e8 68 c0 ff ff       	callq  b2a1 <safe_lshift_func_int8_t_s_s>
    f239:	be ff ff ff ff       	mov    $0xffffffff,%esi
    f23e:	bf 01 00 00 00       	mov    $0x1,%edi
    f243:	e8 84 c4 ff ff       	callq  b6cc <safe_mod_func_int32_t_s_s>
    f248:	48 8b 15 59 38 01 00 	mov    0x13859(%rip),%rdx        # 22aa8 <g_548>
    f24f:	48 8b 12             	mov    (%rdx),%rdx
    f252:	0f b7 12             	movzwl (%rdx),%edx
    f255:	0f b7 d2             	movzwl %dx,%edx
    f258:	39 d0                	cmp    %edx,%eax
    f25a:	0f 95 c0             	setne  %al
    f25d:	0f b6 c0             	movzbl %al,%eax
    f260:	89 de                	mov    %ebx,%esi
    f262:	89 c7                	mov    %eax,%edi
    f264:	e8 a9 bf ff ff       	callq  b212 <safe_mul_func_int8_t_s_s>
    f269:	48 8b 05 a8 38 01 00 	mov    0x138a8(%rip),%rax        # 22b18 <g_1130>
    f270:	48 8b 00             	mov    (%rax),%rax
    f273:	48 8b 95 30 fb ff ff 	mov    -0x4d0(%rbp),%rdx
    f27a:	48 89 10             	mov    %rdx,(%rax)
    f27d:	48 8b 05 4c 39 01 00 	mov    0x1394c(%rip),%rax        # 22bd0 <g_1537>
    f284:	48 8b 95 28 fc ff ff 	mov    -0x3d8(%rbp),%rdx
    f28b:	48 89 10             	mov    %rdx,(%rax)
    f28e:	8b 85 48 fa ff ff    	mov    -0x5b8(%rbp),%eax
    f294:	48 98                	cltq   
    f296:	e9 d5 01 00 00       	jmpq   f470 <func_7+0xf74>
    f29b:	48 8b 05 46 38 01 00 	mov    0x13846(%rip),%rax        # 22ae8 <g_942>
    f2a2:	48 8b 00             	mov    (%rax),%rax
    f2a5:	48 8b 95 30 fb ff ff 	mov    -0x4d0(%rbp),%rdx
    f2ac:	48 89 10             	mov    %rdx,(%rax)
    f2af:	48 83 bd 28 fb ff ff 	cmpq   $0x0,-0x4d8(%rbp)
    f2b6:	00 
    f2b7:	0f 85 73 01 00 00    	jne    f430 <func_7+0xf34>
    f2bd:	48 8b 05 1c 38 01 00 	mov    0x1381c(%rip),%rax        # 22ae0 <g_943>
    f2c4:	48 c7 00 00 00 00 00 	movq   $0x0,(%rax)
    f2cb:	48 8b 05 0e 30 01 00 	mov    0x1300e(%rip),%rax        # 222e0 <g_255>
    f2d2:	48 8b 00             	mov    (%rax),%rax
    f2d5:	e9 96 01 00 00       	jmpq   f470 <func_7+0xf74>
    f2da:	8b 05 38 11 01 00    	mov    0x11138(%rip),%eax        # 20418 <g_478+0x18>
    f2e0:	89 85 44 fa ff ff    	mov    %eax,-0x5bc(%rbp)
    f2e6:	8b 8d b0 fb ff ff    	mov    -0x450(%rbp),%ecx
    f2ec:	89 8d 40 fa ff ff    	mov    %ecx,-0x5c0(%rbp)
    f2f2:	48 8b 05 e7 2f 01 00 	mov    0x12fe7(%rip),%rax        # 222e0 <g_255>
    f2f9:	48 8b 18             	mov    (%rax),%rbx
    f2fc:	48 8b 05 fd 2f 01 00 	mov    0x12ffd(%rip),%rax        # 22300 <g_496>
    f303:	0f b7 00             	movzwl (%rax),%eax
    f306:	44 0f bf e0          	movswl %ax,%r12d
    f30a:	be 05 00 00 00       	mov    $0x5,%esi
    f30f:	bf 01 00 00 00       	mov    $0x1,%edi
    f314:	e8 9b c6 ff ff       	callq  b9b4 <safe_mod_func_int64_t_s_s>
    f319:	49 89 c7             	mov    %rax,%r15
    f31c:	8b 85 a4 fa ff ff    	mov    -0x55c(%rbp),%eax
    f322:	44 0f b7 e8          	movzwl %ax,%r13d
    f326:	8b 85 48 fa ff ff    	mov    -0x5b8(%rbp),%eax
    f32c:	4c 63 f0             	movslq %eax,%r14
    f32f:	8b 85 9c fa ff ff    	mov    -0x564(%rbp),%eax
    f335:	0f be c0             	movsbl %al,%eax
    f338:	be 04 00 00 00       	mov    $0x4,%esi
    f33d:	89 c7                	mov    %eax,%edi
    f33f:	e8 aa bf ff ff       	callq  b2ee <safe_lshift_func_int8_t_s_u>
    f344:	48 0f be c0          	movsbq %al,%rax
    f348:	4c 89 f6             	mov    %r14,%rsi
    f34b:	48 89 c7             	mov    %rax,%rdi
    f34e:	e8 ee c4 ff ff       	callq  b841 <safe_add_func_int64_t_s_s>
    f353:	48 8b 85 c8 fa ff ff 	mov    -0x538(%rbp),%rax
    f35a:	48 8b 00             	mov    (%rax),%rax
    f35d:	48 85 c0             	test   %rax,%rax
    f360:	0f 95 c0             	setne  %al
    f363:	0f b6 c0             	movzbl %al,%eax
    f366:	44 89 ee             	mov    %r13d,%esi
    f369:	89 c7                	mov    %eax,%edi
    f36b:	e8 cd c9 ff ff       	callq  bd3d <safe_mul_func_uint16_t_u_u>
    f370:	0f b7 c0             	movzwl %ax,%eax
    f373:	f7 d0                	not    %eax
    f375:	48 98                	cltq   
    f377:	49 39 c7             	cmp    %rax,%r15
    f37a:	0f 9c c0             	setl   %al
    f37d:	0f b6 c0             	movzbl %al,%eax
    f380:	89 c6                	mov    %eax,%esi
    f382:	bf 01 00 00 00       	mov    $0x1,%edi
    f387:	e8 ce c7 ff ff       	callq  bb5a <safe_add_func_uint8_t_u_u>
    f38c:	48 8b 05 15 37 01 00 	mov    0x13715(%rip),%rax        # 22aa8 <g_548>
    f393:	48 8b 00             	mov    (%rax),%rax
    f396:	0f b7 00             	movzwl (%rax),%eax
    f399:	0f b7 c0             	movzwl %ax,%eax
    f39c:	44 89 e6             	mov    %r12d,%esi
    f39f:	89 c7                	mov    %eax,%edi
    f3a1:	e8 a2 ca ff ff       	callq  be48 <safe_rshift_func_uint16_t_u_s>
    f3a6:	0f b7 c0             	movzwl %ax,%eax
    f3a9:	48 89 de             	mov    %rbx,%rsi
    f3ac:	48 89 c7             	mov    %rax,%rdi
    f3af:	e8 cc cc ff ff       	callq  c080 <safe_mod_func_uint64_t_u_u>
    f3b4:	89 85 a0 fa ff ff    	mov    %eax,-0x560(%rbp)
    f3ba:	8b 85 a0 fa ff ff    	mov    -0x560(%rbp),%eax
    f3c0:	48 63 d0             	movslq %eax,%rdx
    f3c3:	48 8d 05 e3 11 01 00 	lea    0x111e3(%rip),%rax        # 205ad <g_1145>
    f3ca:	48 39 85 38 fb ff ff 	cmp    %rax,-0x4c8(%rbp)
    f3d1:	0f 95 c0             	setne  %al
    f3d4:	0f b6 c0             	movzbl %al,%eax
    f3d7:	48 89 d6             	mov    %rdx,%rsi
    f3da:	48 89 c7             	mov    %rax,%rdi
    f3dd:	e8 69 cc ff ff       	callq  c04b <safe_sub_func_uint64_t_u_u>
    f3e2:	ba 11 a6 19 ab       	mov    $0xab19a611,%edx
    f3e7:	48 39 d0             	cmp    %rdx,%rax
    f3ea:	0f 96 c0             	setbe  %al
    f3ed:	0f b6 c0             	movzbl %al,%eax
    f3f0:	39 85 40 fa ff ff    	cmp    %eax,-0x5c0(%rbp)
    f3f6:	0f 95 c0             	setne  %al
    f3f9:	0f b6 c0             	movzbl %al,%eax
    f3fc:	be 63 00 00 00       	mov    $0x63,%esi
    f401:	89 c7                	mov    %eax,%edi
    f403:	e8 a6 c7 ff ff       	callq  bbae <safe_mod_func_uint8_t_u_u>
    f408:	0f b6 c0             	movzbl %al,%eax
    f40b:	39 85 44 fa ff ff    	cmp    %eax,-0x5bc(%rbp)
    f411:	7f 20                	jg     f433 <func_7+0xf37>
    f413:	48 8b 05 c6 36 01 00 	mov    0x136c6(%rip),%rax        # 22ae0 <g_943>
    f41a:	48 8d 95 48 fa ff ff 	lea    -0x5b8(%rbp),%rdx
    f421:	48 89 10             	mov    %rdx,(%rax)
    f424:	48 8b 05 b5 2e 01 00 	mov    0x12eb5(%rip),%rax        # 222e0 <g_255>
    f42b:	48 8b 00             	mov    (%rax),%rax
    f42e:	eb 40                	jmp    f470 <func_7+0xf74>
    f430:	90                   	nop
    f431:	eb 01                	jmp    f434 <func_7+0xf38>
    f433:	90                   	nop
    f434:	48 8b 85 20 fb ff ff 	mov    -0x4e0(%rbp),%rax
    f43b:	48 89 05 e6 57 01 00 	mov    %rax,0x157e6(%rip)        # 24c28 <g_1566>
    f442:	48 8b 05 97 2e 01 00 	mov    0x12e97(%rip),%rax        # 222e0 <g_255>
    f449:	48 8b 00             	mov    (%rax),%rax
    f44c:	eb 22                	jmp    f470 <func_7+0xf74>
    f44e:	48 8b 85 58 fa ff ff 	mov    -0x5a8(%rbp),%rax
    f455:	eb 19                	jmp    f470 <func_7+0xf74>
    f457:	8b 05 eb 0f 01 00    	mov    0x10feb(%rip),%eax        # 20448 <g_480+0x8>
    f45d:	85 c0                	test   %eax,%eax
    f45f:	74 05                	je     f466 <func_7+0xf6a>
    f461:	e9 e0 f2 ff ff       	jmpq   e746 <func_7+0x24a>
    f466:	48 8b 05 73 2e 01 00 	mov    0x12e73(%rip),%rax        # 222e0 <g_255>
    f46d:	48 8b 00             	mov    (%rax),%rax
    f470:	48 8b 5d c8          	mov    -0x38(%rbp),%rbx
    f474:	64 48 33 1c 25 28 00 	xor    %fs:0x28,%rbx
    f47b:	00 00 
    f47d:	74 05                	je     f484 <func_7+0xf88>
    f47f:	e8 ec bb ff ff       	callq  b070 <__stack_chk_fail@plt>
    f484:	48 81 c4 98 05 00 00 	add    $0x598,%rsp
    f48b:	5b                   	pop    %rbx
    f48c:	41 5c                	pop    %r12
    f48e:	41 5d                	pop    %r13
    f490:	41 5e                	pop    %r14
    f492:	41 5f                	pop    %r15
    f494:	5d                   	pop    %rbp
    f495:	c3                   	retq   

000000000000f496 <func_14>:
    f496:	f3 0f 1e fa          	endbr64 
    f49a:	55                   	push   %rbp
    f49b:	48 89 e5             	mov    %rsp,%rbp
    f49e:	48 81 ec 10 05 00 00 	sub    $0x510,%rsp
    f4a5:	89 bd 0c fb ff ff    	mov    %edi,-0x4f4(%rbp)
    f4ab:	89 f0                	mov    %esi,%eax
    f4ad:	48 89 95 00 fb ff ff 	mov    %rdx,-0x500(%rbp)
    f4b4:	89 8d fc fa ff ff    	mov    %ecx,-0x504(%rbp)
    f4ba:	88 85 08 fb ff ff    	mov    %al,-0x4f8(%rbp)
    f4c0:	64 48 8b 04 25 28 00 	mov    %fs:0x28,%rax
    f4c7:	00 00 
    f4c9:	48 89 45 f8          	mov    %rax,-0x8(%rbp)
    f4cd:	31 c0                	xor    %eax,%eax
    f4cf:	66 c7 85 50 fb ff ff 	movw   $0xe92,-0x4b0(%rbp)
    f4d6:	92 0e 
    f4d8:	66 c7 85 52 fb ff ff 	movw   $0xfe6d,-0x4ae(%rbp)
    f4df:	6d fe 
    f4e1:	66 c7 85 54 fb ff ff 	movw   $0x978c,-0x4ac(%rbp)
    f4e8:	8c 97 
    f4ea:	66 c7 85 56 fb ff ff 	movw   $0x1,-0x4aa(%rbp)
    f4f1:	01 00 
    f4f3:	66 c7 85 58 fb ff ff 	movw   $0x978c,-0x4a8(%rbp)
    f4fa:	8c 97 
    f4fc:	66 c7 85 5a fb ff ff 	movw   $0xfe6d,-0x4a6(%rbp)
    f503:	6d fe 
    f505:	66 c7 85 5c fb ff ff 	movw   $0xe92,-0x4a4(%rbp)
    f50c:	92 0e 
    f50e:	66 c7 85 5e fb ff ff 	movw   $0xfe6d,-0x4a2(%rbp)
    f515:	6d fe 
    f517:	66 c7 85 60 fb ff ff 	movw   $0x978c,-0x4a0(%rbp)
    f51e:	8c 97 
    f520:	66 c7 85 62 fb ff ff 	movw   $0x1,-0x49e(%rbp)
    f527:	01 00 
    f529:	66 c7 85 64 fb ff ff 	movw   $0x978c,-0x49c(%rbp)
    f530:	8c 97 
    f532:	66 c7 85 66 fb ff ff 	movw   $0xfe6d,-0x49a(%rbp)
    f539:	6d fe 
    f53b:	c7 85 14 fb ff ff a3 	movl   $0x63d6eba3,-0x4ec(%rbp)
    f542:	eb d6 63 
    f545:	c7 85 18 fb ff ff f7 	movl   $0x17edf7f7,-0x4e8(%rbp)
    f54c:	f7 ed 17 
    f54f:	c7 85 1c fb ff ff 00 	movl   $0x0,-0x4e4(%rbp)
    f556:	00 00 00 
    f559:	48 c7 85 20 fb ff ff 	movq   $0x0,-0x4e0(%rbp)
    f560:	00 00 00 00 
    f564:	66 c7 85 50 fb ff ff 	movw   $0x1,-0x4b0(%rbp)
    f56b:	01 00 
    f56d:	0f b7 85 60 fb ff ff 	movzwl -0x4a0(%rbp),%eax
    f574:	0f b7 d0             	movzwl %ax,%edx
    f577:	8b 85 14 fb ff ff    	mov    -0x4ec(%rbp),%eax
    f57d:	31 d0                	xor    %edx,%eax
    f57f:	89 85 14 fb ff ff    	mov    %eax,-0x4ec(%rbp)
    f585:	48 c7 05 f8 55 01 00 	movq   $0x0,0x155f8(%rip)        # 24b88 <g_715>
    f58c:	00 00 00 00 
    f590:	e9 29 08 00 00       	jmpq   fdbe <func_14+0x928>
    f595:	48 8d 05 7c 0e 01 00 	lea    0x10e7c(%rip),%rax        # 20418 <g_478+0x18>
    f59c:	48 89 85 28 fb ff ff 	mov    %rax,-0x4d8(%rbp)
    f5a3:	48 c7 85 30 fb ff ff 	movq   $0x0,-0x4d0(%rbp)
    f5aa:	00 00 00 00 
    f5ae:	48 8d 05 0b 10 01 00 	lea    0x1100b(%rip),%rax        # 205c0 <g_1154+0x10>
    f5b5:	48 89 85 38 fb ff ff 	mov    %rax,-0x4c8(%rbp)
    f5bc:	48 8d 05 15 0e 01 00 	lea    0x10e15(%rip),%rax        # 203d8 <g_433+0x18>
    f5c3:	48 89 85 40 fb ff ff 	mov    %rax,-0x4c0(%rbp)
    f5ca:	48 c7 85 48 fb ff ff 	movq   $0x0,-0x4b8(%rbp)
    f5d1:	00 00 00 00 
    f5d5:	48 8d 05 fc 0d 01 00 	lea    0x10dfc(%rip),%rax        # 203d8 <g_433+0x18>
    f5dc:	48 89 85 70 fb ff ff 	mov    %rax,-0x490(%rbp)
    f5e3:	48 8d 05 6e 0e 01 00 	lea    0x10e6e(%rip),%rax        # 20458 <g_480+0x18>
    f5ea:	48 89 85 78 fb ff ff 	mov    %rax,-0x488(%rbp)
    f5f1:	48 8d 85 14 fb ff ff 	lea    -0x4ec(%rbp),%rax
    f5f8:	48 89 85 80 fb ff ff 	mov    %rax,-0x480(%rbp)
    f5ff:	48 8d 05 12 0e 01 00 	lea    0x10e12(%rip),%rax        # 20418 <g_478+0x18>
    f606:	48 89 85 88 fb ff ff 	mov    %rax,-0x478(%rbp)
    f60d:	48 8d 05 84 0f 01 00 	lea    0x10f84(%rip),%rax        # 20598 <g_1086+0x18>
    f614:	48 89 85 90 fb ff ff 	mov    %rax,-0x470(%rbp)
    f61b:	48 8d 05 9e 0f 01 00 	lea    0x10f9e(%rip),%rax        # 205c0 <g_1154+0x10>
    f622:	48 89 85 98 fb ff ff 	mov    %rax,-0x468(%rbp)
    f629:	48 c7 85 a0 fb ff ff 	movq   $0x0,-0x460(%rbp)
    f630:	00 00 00 00 
    f634:	48 8d 05 6d 0f 01 00 	lea    0x10f6d(%rip),%rax        # 205a8 <g_1121>
    f63b:	48 89 85 a8 fb ff ff 	mov    %rax,-0x458(%rbp)
    f642:	48 8d 05 5f 0f 01 00 	lea    0x10f5f(%rip),%rax        # 205a8 <g_1121>
    f649:	48 89 85 b0 fb ff ff 	mov    %rax,-0x450(%rbp)
    f650:	48 8d 05 51 0f 01 00 	lea    0x10f51(%rip),%rax        # 205a8 <g_1121>
    f657:	48 89 85 b8 fb ff ff 	mov    %rax,-0x448(%rbp)
    f65e:	48 8d 05 eb 09 01 00 	lea    0x109eb(%rip),%rax        # 20050 <g_105>
    f665:	48 89 85 c0 fb ff ff 	mov    %rax,-0x440(%rbp)
    f66c:	48 8d 05 65 0d 01 00 	lea    0x10d65(%rip),%rax        # 203d8 <g_433+0x18>
    f673:	48 89 85 c8 fb ff ff 	mov    %rax,-0x438(%rbp)
    f67a:	48 8d 05 cf 09 01 00 	lea    0x109cf(%rip),%rax        # 20050 <g_105>
    f681:	48 89 85 d0 fb ff ff 	mov    %rax,-0x430(%rbp)
    f688:	48 8d 05 c1 09 01 00 	lea    0x109c1(%rip),%rax        # 20050 <g_105>
    f68f:	48 89 85 d8 fb ff ff 	mov    %rax,-0x428(%rbp)
    f696:	48 8d 05 3b 0d 01 00 	lea    0x10d3b(%rip),%rax        # 203d8 <g_433+0x18>
    f69d:	48 89 85 e0 fb ff ff 	mov    %rax,-0x420(%rbp)
    f6a4:	48 8d 05 a5 09 01 00 	lea    0x109a5(%rip),%rax        # 20050 <g_105>
    f6ab:	48 89 85 e8 fb ff ff 	mov    %rax,-0x418(%rbp)
    f6b2:	48 8d 05 1f 0d 01 00 	lea    0x10d1f(%rip),%rax        # 203d8 <g_433+0x18>
    f6b9:	48 89 85 f0 fb ff ff 	mov    %rax,-0x410(%rbp)
    f6c0:	48 8d 05 11 0d 01 00 	lea    0x10d11(%rip),%rax        # 203d8 <g_433+0x18>
    f6c7:	48 89 85 f8 fb ff ff 	mov    %rax,-0x408(%rbp)
    f6ce:	48 c7 85 00 fc ff ff 	movq   $0x0,-0x400(%rbp)
    f6d5:	00 00 00 00 
    f6d9:	48 8d 05 c8 0e 01 00 	lea    0x10ec8(%rip),%rax        # 205a8 <g_1121>
    f6e0:	48 89 85 08 fc ff ff 	mov    %rax,-0x3f8(%rbp)
    f6e7:	48 8d 05 ea 0c 01 00 	lea    0x10cea(%rip),%rax        # 203d8 <g_433+0x18>
    f6ee:	48 89 85 10 fc ff ff 	mov    %rax,-0x3f0(%rbp)
    f6f5:	48 c7 85 18 fc ff ff 	movq   $0x0,-0x3e8(%rbp)
    f6fc:	00 00 00 00 
    f700:	48 8d 05 51 0d 01 00 	lea    0x10d51(%rip),%rax        # 20458 <g_480+0x18>
    f707:	48 89 85 20 fc ff ff 	mov    %rax,-0x3e0(%rbp)
    f70e:	48 8d 05 ab 0e 01 00 	lea    0x10eab(%rip),%rax        # 205c0 <g_1154+0x10>
    f715:	48 89 85 28 fc ff ff 	mov    %rax,-0x3d8(%rbp)
    f71c:	48 c7 85 30 fc ff ff 	movq   $0x0,-0x3d0(%rbp)
    f723:	00 00 00 00 
    f727:	48 8d 05 2a 0d 01 00 	lea    0x10d2a(%rip),%rax        # 20458 <g_480+0x18>
    f72e:	48 89 85 38 fc ff ff 	mov    %rax,-0x3c8(%rbp)
    f735:	48 8d 05 9c 0c 01 00 	lea    0x10c9c(%rip),%rax        # 203d8 <g_433+0x18>
    f73c:	48 89 85 40 fc ff ff 	mov    %rax,-0x3c0(%rbp)
    f743:	48 c7 85 48 fc ff ff 	movq   $0x0,-0x3b8(%rbp)
    f74a:	00 00 00 00 
    f74e:	48 8d 05 83 0c 01 00 	lea    0x10c83(%rip),%rax        # 203d8 <g_433+0x18>
    f755:	48 89 85 50 fc ff ff 	mov    %rax,-0x3b0(%rbp)
    f75c:	48 8d 85 14 fb ff ff 	lea    -0x4ec(%rbp),%rax
    f763:	48 89 85 58 fc ff ff 	mov    %rax,-0x3a8(%rbp)
    f76a:	48 8d 85 14 fb ff ff 	lea    -0x4ec(%rbp),%rax
    f771:	48 89 85 60 fc ff ff 	mov    %rax,-0x3a0(%rbp)
    f778:	48 8d 05 41 0e 01 00 	lea    0x10e41(%rip),%rax        # 205c0 <g_1154+0x10>
    f77f:	48 89 85 68 fc ff ff 	mov    %rax,-0x398(%rbp)
    f786:	48 8d 05 cb 0c 01 00 	lea    0x10ccb(%rip),%rax        # 20458 <g_480+0x18>
    f78d:	48 89 85 70 fc ff ff 	mov    %rax,-0x390(%rbp)
    f794:	48 8d 05 25 0e 01 00 	lea    0x10e25(%rip),%rax        # 205c0 <g_1154+0x10>
    f79b:	48 89 85 78 fc ff ff 	mov    %rax,-0x388(%rbp)
    f7a2:	48 8d 05 a7 08 01 00 	lea    0x108a7(%rip),%rax        # 20050 <g_105>
    f7a9:	48 89 85 80 fc ff ff 	mov    %rax,-0x380(%rbp)
    f7b0:	48 8d 05 f1 0d 01 00 	lea    0x10df1(%rip),%rax        # 205a8 <g_1121>
    f7b7:	48 89 85 88 fc ff ff 	mov    %rax,-0x378(%rbp)
    f7be:	48 8d 85 14 fb ff ff 	lea    -0x4ec(%rbp),%rax
    f7c5:	48 89 85 90 fc ff ff 	mov    %rax,-0x370(%rbp)
    f7cc:	48 8d 05 85 0c 01 00 	lea    0x10c85(%rip),%rax        # 20458 <g_480+0x18>
    f7d3:	48 89 85 98 fc ff ff 	mov    %rax,-0x368(%rbp)
    f7da:	48 8d 05 37 0c 01 00 	lea    0x10c37(%rip),%rax        # 20418 <g_478+0x18>
    f7e1:	48 89 85 a0 fc ff ff 	mov    %rax,-0x360(%rbp)
    f7e8:	48 8d 05 61 08 01 00 	lea    0x10861(%rip),%rax        # 20050 <g_105>
    f7ef:	48 89 85 a8 fc ff ff 	mov    %rax,-0x358(%rbp)
    f7f6:	48 8d 05 9b 0d 01 00 	lea    0x10d9b(%rip),%rax        # 20598 <g_1086+0x18>
    f7fd:	48 89 85 b0 fc ff ff 	mov    %rax,-0x350(%rbp)
    f804:	48 8d 05 b5 0d 01 00 	lea    0x10db5(%rip),%rax        # 205c0 <g_1154+0x10>
    f80b:	48 89 85 b8 fc ff ff 	mov    %rax,-0x348(%rbp)
    f812:	48 8d 05 7f 0d 01 00 	lea    0x10d7f(%rip),%rax        # 20598 <g_1086+0x18>
    f819:	48 89 85 c0 fc ff ff 	mov    %rax,-0x340(%rbp)
    f820:	48 8d 05 b1 0b 01 00 	lea    0x10bb1(%rip),%rax        # 203d8 <g_433+0x18>
    f827:	48 89 85 c8 fc ff ff 	mov    %rax,-0x338(%rbp)
    f82e:	48 8d 05 63 0d 01 00 	lea    0x10d63(%rip),%rax        # 20598 <g_1086+0x18>
    f835:	48 89 85 d0 fc ff ff 	mov    %rax,-0x330(%rbp)
    f83c:	48 c7 85 d8 fc ff ff 	movq   $0x0,-0x328(%rbp)
    f843:	00 00 00 00 
    f847:	48 8d 05 8a 0b 01 00 	lea    0x10b8a(%rip),%rax        # 203d8 <g_433+0x18>
    f84e:	48 89 85 e0 fc ff ff 	mov    %rax,-0x320(%rbp)
    f855:	48 8d 05 4c 0d 01 00 	lea    0x10d4c(%rip),%rax        # 205a8 <g_1121>
    f85c:	48 89 85 e8 fc ff ff 	mov    %rax,-0x318(%rbp)
    f863:	48 8d 85 14 fb ff ff 	lea    -0x4ec(%rbp),%rax
    f86a:	48 89 85 f0 fc ff ff 	mov    %rax,-0x310(%rbp)
    f871:	48 8d 05 a0 0b 01 00 	lea    0x10ba0(%rip),%rax        # 20418 <g_478+0x18>
    f878:	48 89 85 f8 fc ff ff 	mov    %rax,-0x308(%rbp)
    f87f:	48 8d 05 22 0d 01 00 	lea    0x10d22(%rip),%rax        # 205a8 <g_1121>
    f886:	48 89 85 00 fd ff ff 	mov    %rax,-0x300(%rbp)
    f88d:	48 8d 05 84 0b 01 00 	lea    0x10b84(%rip),%rax        # 20418 <g_478+0x18>
    f894:	48 89 85 08 fd ff ff 	mov    %rax,-0x2f8(%rbp)
    f89b:	48 8d 05 f6 0c 01 00 	lea    0x10cf6(%rip),%rax        # 20598 <g_1086+0x18>
    f8a2:	48 89 85 10 fd ff ff 	mov    %rax,-0x2f0(%rbp)
    f8a9:	48 8d 05 f8 0c 01 00 	lea    0x10cf8(%rip),%rax        # 205a8 <g_1121>
    f8b0:	48 89 85 18 fd ff ff 	mov    %rax,-0x2e8(%rbp)
    f8b7:	48 8d 85 14 fb ff ff 	lea    -0x4ec(%rbp),%rax
    f8be:	48 89 85 20 fd ff ff 	mov    %rax,-0x2e0(%rbp)
    f8c5:	48 8d 05 0c 0b 01 00 	lea    0x10b0c(%rip),%rax        # 203d8 <g_433+0x18>
    f8cc:	48 89 85 28 fd ff ff 	mov    %rax,-0x2d8(%rbp)
    f8d3:	48 8d 05 be 0c 01 00 	lea    0x10cbe(%rip),%rax        # 20598 <g_1086+0x18>
    f8da:	48 89 85 30 fd ff ff 	mov    %rax,-0x2d0(%rbp)
    f8e1:	48 c7 85 38 fd ff ff 	movq   $0x0,-0x2c8(%rbp)
    f8e8:	00 00 00 00 
    f8ec:	48 8d 05 5d 07 01 00 	lea    0x1075d(%rip),%rax        # 20050 <g_105>
    f8f3:	48 89 85 40 fd ff ff 	mov    %rax,-0x2c0(%rbp)
    f8fa:	48 8d 05 57 0b 01 00 	lea    0x10b57(%rip),%rax        # 20458 <g_480+0x18>
    f901:	48 89 85 48 fd ff ff 	mov    %rax,-0x2b8(%rbp)
    f908:	48 8d 05 c9 0a 01 00 	lea    0x10ac9(%rip),%rax        # 203d8 <g_433+0x18>
    f90f:	48 89 85 50 fd ff ff 	mov    %rax,-0x2b0(%rbp)
    f916:	48 c7 85 58 fd ff ff 	movq   $0x0,-0x2a8(%rbp)
    f91d:	00 00 00 00 
    f921:	48 8d 05 30 0b 01 00 	lea    0x10b30(%rip),%rax        # 20458 <g_480+0x18>
    f928:	48 89 85 60 fd ff ff 	mov    %rax,-0x2a0(%rbp)
    f92f:	48 8d 05 72 0c 01 00 	lea    0x10c72(%rip),%rax        # 205a8 <g_1121>
    f936:	48 89 85 68 fd ff ff 	mov    %rax,-0x298(%rbp)
    f93d:	48 8d 05 7c 0c 01 00 	lea    0x10c7c(%rip),%rax        # 205c0 <g_1154+0x10>
    f944:	48 89 85 70 fd ff ff 	mov    %rax,-0x290(%rbp)
    f94b:	48 8d 05 86 0a 01 00 	lea    0x10a86(%rip),%rax        # 203d8 <g_433+0x18>
    f952:	48 89 85 78 fd ff ff 	mov    %rax,-0x288(%rbp)
    f959:	48 8d 05 48 0c 01 00 	lea    0x10c48(%rip),%rax        # 205a8 <g_1121>
    f960:	48 89 85 80 fd ff ff 	mov    %rax,-0x280(%rbp)
    f967:	48 c7 85 88 fd ff ff 	movq   $0x0,-0x278(%rbp)
    f96e:	00 00 00 00 
    f972:	48 8d 05 df 0a 01 00 	lea    0x10adf(%rip),%rax        # 20458 <g_480+0x18>
    f979:	48 89 85 90 fd ff ff 	mov    %rax,-0x270(%rbp)
    f980:	48 8d 05 51 0a 01 00 	lea    0x10a51(%rip),%rax        # 203d8 <g_433+0x18>
    f987:	48 89 85 98 fd ff ff 	mov    %rax,-0x268(%rbp)
    f98e:	48 8d 05 c3 0a 01 00 	lea    0x10ac3(%rip),%rax        # 20458 <g_480+0x18>
    f995:	48 89 85 a0 fd ff ff 	mov    %rax,-0x260(%rbp)
    f99c:	48 c7 85 a8 fd ff ff 	movq   $0x0,-0x258(%rbp)
    f9a3:	00 00 00 00 
    f9a7:	48 8d 85 14 fb ff ff 	lea    -0x4ec(%rbp),%rax
    f9ae:	48 89 85 b0 fd ff ff 	mov    %rax,-0x250(%rbp)
    f9b5:	48 8d 85 14 fb ff ff 	lea    -0x4ec(%rbp),%rax
    f9bc:	48 89 85 b8 fd ff ff 	mov    %rax,-0x248(%rbp)
    f9c3:	48 8d 85 14 fb ff ff 	lea    -0x4ec(%rbp),%rax
    f9ca:	48 89 85 c0 fd ff ff 	mov    %rax,-0x240(%rbp)
    f9d1:	48 8d 05 78 06 01 00 	lea    0x10678(%rip),%rax        # 20050 <g_105>
    f9d8:	48 89 85 c8 fd ff ff 	mov    %rax,-0x238(%rbp)
    f9df:	48 8d 05 da 0b 01 00 	lea    0x10bda(%rip),%rax        # 205c0 <g_1154+0x10>
    f9e6:	48 89 85 d0 fd ff ff 	mov    %rax,-0x230(%rbp)
    f9ed:	48 8d 05 b4 0b 01 00 	lea    0x10bb4(%rip),%rax        # 205a8 <g_1121>
    f9f4:	48 89 85 d8 fd ff ff 	mov    %rax,-0x228(%rbp)
    f9fb:	48 8d 05 16 0a 01 00 	lea    0x10a16(%rip),%rax        # 20418 <g_478+0x18>
    fa02:	48 89 85 e0 fd ff ff 	mov    %rax,-0x220(%rbp)
    fa09:	48 8d 05 88 0b 01 00 	lea    0x10b88(%rip),%rax        # 20598 <g_1086+0x18>
    fa10:	48 89 85 e8 fd ff ff 	mov    %rax,-0x218(%rbp)
    fa17:	48 c7 85 f0 fd ff ff 	movq   $0x0,-0x210(%rbp)
    fa1e:	00 00 00 00 
    fa22:	48 8d 85 14 fb ff ff 	lea    -0x4ec(%rbp),%rax
    fa29:	48 89 85 f8 fd ff ff 	mov    %rax,-0x208(%rbp)
    fa30:	48 8d 05 19 06 01 00 	lea    0x10619(%rip),%rax        # 20050 <g_105>
    fa37:	48 89 85 00 fe ff ff 	mov    %rax,-0x200(%rbp)
    fa3e:	48 8d 05 13 0a 01 00 	lea    0x10a13(%rip),%rax        # 20458 <g_480+0x18>
    fa45:	48 89 85 08 fe ff ff 	mov    %rax,-0x1f8(%rbp)
    fa4c:	48 8d 05 6d 0b 01 00 	lea    0x10b6d(%rip),%rax        # 205c0 <g_1154+0x10>
    fa53:	48 89 85 10 fe ff ff 	mov    %rax,-0x1f0(%rbp)
    fa5a:	48 c7 85 18 fe ff ff 	movq   $0x0,-0x1e8(%rbp)
    fa61:	00 00 00 00 
    fa65:	48 8d 05 54 0b 01 00 	lea    0x10b54(%rip),%rax        # 205c0 <g_1154+0x10>
    fa6c:	48 89 85 20 fe ff ff 	mov    %rax,-0x1e0(%rbp)
    fa73:	48 c7 85 28 fe ff ff 	movq   $0x0,-0x1d8(%rbp)
    fa7a:	00 00 00 00 
    fa7e:	48 c7 85 30 fe ff ff 	movq   $0x0,-0x1d0(%rbp)
    fa85:	00 00 00 00 
    fa89:	48 8d 05 30 0b 01 00 	lea    0x10b30(%rip),%rax        # 205c0 <g_1154+0x10>
    fa90:	48 89 85 38 fe ff ff 	mov    %rax,-0x1c8(%rbp)
    fa97:	48 8d 05 b2 05 01 00 	lea    0x105b2(%rip),%rax        # 20050 <g_105>
    fa9e:	48 89 85 40 fe ff ff 	mov    %rax,-0x1c0(%rbp)
    faa5:	48 8d 05 2c 09 01 00 	lea    0x1092c(%rip),%rax        # 203d8 <g_433+0x18>
    faac:	48 89 85 48 fe ff ff 	mov    %rax,-0x1b8(%rbp)
    fab3:	48 8d 05 06 0b 01 00 	lea    0x10b06(%rip),%rax        # 205c0 <g_1154+0x10>
    faba:	48 89 85 50 fe ff ff 	mov    %rax,-0x1b0(%rbp)
    fac1:	48 8d 85 14 fb ff ff 	lea    -0x4ec(%rbp),%rax
    fac8:	48 89 85 58 fe ff ff 	mov    %rax,-0x1a8(%rbp)
    facf:	48 8d 85 14 fb ff ff 	lea    -0x4ec(%rbp),%rax
    fad6:	48 89 85 60 fe ff ff 	mov    %rax,-0x1a0(%rbp)
    fadd:	48 8d 05 74 09 01 00 	lea    0x10974(%rip),%rax        # 20458 <g_480+0x18>
    fae4:	48 89 85 68 fe ff ff 	mov    %rax,-0x198(%rbp)
    faeb:	48 8d 85 14 fb ff ff 	lea    -0x4ec(%rbp),%rax
    faf2:	48 89 85 70 fe ff ff 	mov    %rax,-0x190(%rbp)
    faf9:	48 8d 05 a8 0a 01 00 	lea    0x10aa8(%rip),%rax        # 205a8 <g_1121>
    fb00:	48 89 85 78 fe ff ff 	mov    %rax,-0x188(%rbp)
    fb07:	48 c7 85 80 fe ff ff 	movq   $0x0,-0x180(%rbp)
    fb0e:	00 00 00 00 
    fb12:	48 c7 85 88 fe ff ff 	movq   $0x0,-0x178(%rbp)
    fb19:	00 00 00 00 
    fb1d:	48 8d 05 34 09 01 00 	lea    0x10934(%rip),%rax        # 20458 <g_480+0x18>
    fb24:	48 89 85 90 fe ff ff 	mov    %rax,-0x170(%rbp)
    fb2b:	48 8d 85 14 fb ff ff 	lea    -0x4ec(%rbp),%rax
    fb32:	48 89 85 98 fe ff ff 	mov    %rax,-0x168(%rbp)
    fb39:	48 c7 85 a0 fe ff ff 	movq   $0x0,-0x160(%rbp)
    fb40:	00 00 00 00 
    fb44:	48 8d 05 4d 0a 01 00 	lea    0x10a4d(%rip),%rax        # 20598 <g_1086+0x18>
    fb4b:	48 89 85 a8 fe ff ff 	mov    %rax,-0x158(%rbp)
    fb52:	48 8d 05 67 0a 01 00 	lea    0x10a67(%rip),%rax        # 205c0 <g_1154+0x10>
    fb59:	48 89 85 b0 fe ff ff 	mov    %rax,-0x150(%rbp)
    fb60:	48 8d 85 14 fb ff ff 	lea    -0x4ec(%rbp),%rax
    fb67:	48 89 85 b8 fe ff ff 	mov    %rax,-0x148(%rbp)
    fb6e:	48 8d 85 14 fb ff ff 	lea    -0x4ec(%rbp),%rax
    fb75:	48 89 85 c0 fe ff ff 	mov    %rax,-0x140(%rbp)
    fb7c:	48 8d 85 14 fb ff ff 	lea    -0x4ec(%rbp),%rax
    fb83:	48 89 85 c8 fe ff ff 	mov    %rax,-0x138(%rbp)
    fb8a:	48 8d 05 47 08 01 00 	lea    0x10847(%rip),%rax        # 203d8 <g_433+0x18>
    fb91:	48 89 85 d0 fe ff ff 	mov    %rax,-0x130(%rbp)
    fb98:	48 c7 85 d8 fe ff ff 	movq   $0x0,-0x128(%rbp)
    fb9f:	00 00 00 00 
    fba3:	48 8d 05 16 0a 01 00 	lea    0x10a16(%rip),%rax        # 205c0 <g_1154+0x10>
    fbaa:	48 89 85 e0 fe ff ff 	mov    %rax,-0x120(%rbp)
    fbb1:	48 8d 85 14 fb ff ff 	lea    -0x4ec(%rbp),%rax
    fbb8:	48 89 85 e8 fe ff ff 	mov    %rax,-0x118(%rbp)
    fbbf:	48 8d 05 d2 09 01 00 	lea    0x109d2(%rip),%rax        # 20598 <g_1086+0x18>
    fbc6:	48 89 85 f0 fe ff ff 	mov    %rax,-0x110(%rbp)
    fbcd:	48 8d 05 04 08 01 00 	lea    0x10804(%rip),%rax        # 203d8 <g_433+0x18>
    fbd4:	48 89 85 f8 fe ff ff 	mov    %rax,-0x108(%rbp)
    fbdb:	48 8d 05 b6 09 01 00 	lea    0x109b6(%rip),%rax        # 20598 <g_1086+0x18>
    fbe2:	48 89 85 00 ff ff ff 	mov    %rax,-0x100(%rbp)
    fbe9:	48 8d 05 60 04 01 00 	lea    0x10460(%rip),%rax        # 20050 <g_105>
    fbf0:	48 89 85 08 ff ff ff 	mov    %rax,-0xf8(%rbp)
    fbf7:	48 c7 85 10 ff ff ff 	movq   $0x0,-0xf0(%rbp)
    fbfe:	00 00 00 00 
    fc02:	48 8d 05 0f 08 01 00 	lea    0x1080f(%rip),%rax        # 20418 <g_478+0x18>
    fc09:	48 89 85 18 ff ff ff 	mov    %rax,-0xe8(%rbp)
    fc10:	48 8d 05 a5 09 01 00 	lea    0x109a5(%rip),%rax        # 205bc <g_1154+0xc>
    fc17:	48 89 85 20 ff ff ff 	mov    %rax,-0xe0(%rbp)
    fc1e:	48 8d 05 f3 07 01 00 	lea    0x107f3(%rip),%rax        # 20418 <g_478+0x18>
    fc25:	48 89 85 28 ff ff ff 	mov    %rax,-0xd8(%rbp)
    fc2c:	48 8d 05 8d 09 01 00 	lea    0x1098d(%rip),%rax        # 205c0 <g_1154+0x10>
    fc33:	48 89 85 30 ff ff ff 	mov    %rax,-0xd0(%rbp)
    fc3a:	48 8d 05 17 08 01 00 	lea    0x10817(%rip),%rax        # 20458 <g_480+0x18>
    fc41:	48 89 85 38 ff ff ff 	mov    %rax,-0xc8(%rbp)
    fc48:	48 c7 85 40 ff ff ff 	movq   $0x0,-0xc0(%rbp)
    fc4f:	00 00 00 00 
    fc53:	48 8d 05 4e 09 01 00 	lea    0x1094e(%rip),%rax        # 205a8 <g_1121>
    fc5a:	48 89 85 48 ff ff ff 	mov    %rax,-0xb8(%rbp)
    fc61:	48 8d 05 b0 07 01 00 	lea    0x107b0(%rip),%rax        # 20418 <g_478+0x18>
    fc68:	48 89 85 50 ff ff ff 	mov    %rax,-0xb0(%rbp)
    fc6f:	48 8d 05 a2 07 01 00 	lea    0x107a2(%rip),%rax        # 20418 <g_478+0x18>
    fc76:	48 89 85 58 ff ff ff 	mov    %rax,-0xa8(%rbp)
    fc7d:	48 8d 05 94 07 01 00 	lea    0x10794(%rip),%rax        # 20418 <g_478+0x18>
    fc84:	48 89 85 60 ff ff ff 	mov    %rax,-0xa0(%rbp)
    fc8b:	48 8d 05 86 07 01 00 	lea    0x10786(%rip),%rax        # 20418 <g_478+0x18>
    fc92:	48 89 85 68 ff ff ff 	mov    %rax,-0x98(%rbp)
    fc99:	48 8d 85 14 fb ff ff 	lea    -0x4ec(%rbp),%rax
    fca0:	48 89 85 70 ff ff ff 	mov    %rax,-0x90(%rbp)
    fca7:	48 8d 05 fa 08 01 00 	lea    0x108fa(%rip),%rax        # 205a8 <g_1121>
    fcae:	48 89 85 78 ff ff ff 	mov    %rax,-0x88(%rbp)
    fcb5:	48 8d 05 ec 08 01 00 	lea    0x108ec(%rip),%rax        # 205a8 <g_1121>
    fcbc:	48 89 45 80          	mov    %rax,-0x80(%rbp)
    fcc0:	48 8d 85 14 fb ff ff 	lea    -0x4ec(%rbp),%rax
    fcc7:	48 89 45 88          	mov    %rax,-0x78(%rbp)
    fccb:	48 c7 45 90 00 00 00 	movq   $0x0,-0x70(%rbp)
    fcd2:	00 
    fcd3:	48 c7 45 98 00 00 00 	movq   $0x0,-0x68(%rbp)
    fcda:	00 
    fcdb:	48 c7 45 a0 00 00 00 	movq   $0x0,-0x60(%rbp)
    fce2:	00 
    fce3:	48 8d 05 ce 08 01 00 	lea    0x108ce(%rip),%rax        # 205b8 <g_1154+0x8>
    fcea:	48 89 45 a8          	mov    %rax,-0x58(%rbp)
    fcee:	48 8d 05 cb 08 01 00 	lea    0x108cb(%rip),%rax        # 205c0 <g_1154+0x10>
    fcf5:	48 89 45 b0          	mov    %rax,-0x50(%rbp)
    fcf9:	48 c7 45 b8 00 00 00 	movq   $0x0,-0x48(%rbp)
    fd00:	00 
    fd01:	48 8d 85 14 fb ff ff 	lea    -0x4ec(%rbp),%rax
    fd08:	48 89 45 c0          	mov    %rax,-0x40(%rbp)
    fd0c:	48 8d 05 3d 03 01 00 	lea    0x1033d(%rip),%rax        # 20050 <g_105>
    fd13:	48 89 45 c8          	mov    %rax,-0x38(%rbp)
    fd17:	48 8d 85 14 fb ff ff 	lea    -0x4ec(%rbp),%rax
    fd1e:	48 89 45 d0          	mov    %rax,-0x30(%rbp)
    fd22:	48 8d 05 6f 08 01 00 	lea    0x1086f(%rip),%rax        # 20598 <g_1086+0x18>
    fd29:	48 89 45 d8          	mov    %rax,-0x28(%rbp)
    fd2d:	48 8d 05 e4 06 01 00 	lea    0x106e4(%rip),%rax        # 20418 <g_478+0x18>
    fd34:	48 89 45 e0          	mov    %rax,-0x20(%rbp)
    fd38:	48 8d 05 19 07 01 00 	lea    0x10719(%rip),%rax        # 20458 <g_480+0x18>
    fd3f:	48 89 45 e8          	mov    %rax,-0x18(%rbp)
    fd43:	48 8b 85 28 fb ff ff 	mov    -0x4d8(%rbp),%rax
    fd4a:	c7 00 01 00 00 00    	movl   $0x1,(%rax)
    fd50:	48 8b 85 28 fb ff ff 	mov    -0x4d8(%rbp),%rax
    fd57:	8b 08                	mov    (%rax),%ecx
    fd59:	48 8b 05 a0 2d 01 00 	mov    0x12da0(%rip),%rax        # 22b00 <g_1066>
    fd60:	8b 10                	mov    (%rax),%edx
    fd62:	31 ca                	xor    %ecx,%edx
    fd64:	89 10                	mov    %edx,(%rax)
    fd66:	48 83 ad 20 fb ff ff 	subq   $0x1,-0x4e0(%rbp)
    fd6d:	01 
    fd6e:	48 83 bd 00 fb ff ff 	cmpq   $0x0,-0x500(%rbp)
    fd75:	00 
    fd76:	75 59                	jne    fdd1 <func_14+0x93b>
    fd78:	c7 05 46 06 01 00 09 	movl   $0x9,0x10646(%rip)        # 203c8 <g_433+0x8>
    fd7f:	00 00 00 
    fd82:	eb 1e                	jmp    fda2 <func_14+0x90c>
    fd84:	8b 85 14 fb ff ff    	mov    -0x4ec(%rbp),%eax
    fd8a:	85 c0                	test   %eax,%eax
    fd8c:	74 05                	je     fd93 <func_14+0x8fd>
    fd8e:	e9 da f7 ff ff       	jmpq   f56d <func_14+0xd7>
    fd93:	8b 05 2f 06 01 00    	mov    0x1062f(%rip),%eax        # 203c8 <g_433+0x8>
    fd99:	83 e8 01             	sub    $0x1,%eax
    fd9c:	89 05 26 06 01 00    	mov    %eax,0x10626(%rip)        # 203c8 <g_433+0x8>
    fda2:	8b 05 20 06 01 00    	mov    0x10620(%rip),%eax        # 203c8 <g_433+0x8>
    fda8:	85 c0                	test   %eax,%eax
    fdaa:	7f d8                	jg     fd84 <func_14+0x8ee>
    fdac:	48 8b 05 d5 4d 01 00 	mov    0x14dd5(%rip),%rax        # 24b88 <g_715>
    fdb3:	48 83 c0 01          	add    $0x1,%rax
    fdb7:	48 89 05 ca 4d 01 00 	mov    %rax,0x14dca(%rip)        # 24b88 <g_715>
    fdbe:	48 8b 05 c3 4d 01 00 	mov    0x14dc3(%rip),%rax        # 24b88 <g_715>
    fdc5:	48 83 f8 06          	cmp    $0x6,%rax
    fdc9:	0f 8f c6 f7 ff ff    	jg     f595 <func_14+0xff>
    fdcf:	eb 01                	jmp    fdd2 <func_14+0x93c>
    fdd1:	90                   	nop
    fdd2:	48 8b 05 df 2d 01 00 	mov    0x12ddf(%rip),%rax        # 22bb8 <g_1271>
    fdd9:	0f b6 00             	movzbl (%rax),%eax
    fddc:	48 8b 75 f8          	mov    -0x8(%rbp),%rsi
    fde0:	64 48 33 34 25 28 00 	xor    %fs:0x28,%rsi
    fde7:	00 00 
    fde9:	74 05                	je     fdf0 <func_14+0x95a>
    fdeb:	e8 80 b2 ff ff       	callq  b070 <__stack_chk_fail@plt>
    fdf0:	c9                   	leaveq 
    fdf1:	c3                   	retq   

000000000000fdf2 <func_27>:
    fdf2:	f3 0f 1e fa          	endbr64 
    fdf6:	55                   	push   %rbp
    fdf7:	48 89 e5             	mov    %rsp,%rbp
    fdfa:	41 57                	push   %r15
    fdfc:	41 56                	push   %r14
    fdfe:	41 55                	push   %r13
    fe00:	41 54                	push   %r12
    fe02:	53                   	push   %rbx
    fe03:	48 81 ec 00 10 00 00 	sub    $0x1000,%rsp
    fe0a:	48 83 0c 24 00       	orq    $0x0,(%rsp)
    fe0f:	48 81 ec 58 0d 00 00 	sub    $0xd58,%rsp
    fe16:	89 f0                	mov    %esi,%eax
    fe18:	89 95 a4 e2 ff ff    	mov    %edx,-0x1d5c(%rbp)
    fe1e:	89 ca                	mov    %ecx,%edx
    fe20:	89 f9                	mov    %edi,%ecx
    fe22:	88 8d ac e2 ff ff    	mov    %cl,-0x1d54(%rbp)
    fe28:	66 89 85 a8 e2 ff ff 	mov    %ax,-0x1d58(%rbp)
    fe2f:	89 d0                	mov    %edx,%eax
    fe31:	88 85 a0 e2 ff ff    	mov    %al,-0x1d60(%rbp)
    fe37:	64 48 8b 04 25 28 00 	mov    %fs:0x28,%rax
    fe3e:	00 00 
    fe40:	48 89 45 c8          	mov    %rax,-0x38(%rbp)
    fe44:	31 c0                	xor    %eax,%eax
    fe46:	48 8d 05 73 24 01 00 	lea    0x12473(%rip),%rax        # 222c0 <g_154>
    fe4d:	48 89 85 08 e4 ff ff 	mov    %rax,-0x1bf8(%rbp)
    fe54:	66 c7 85 ca e2 ff ff 	movw   $0x9939,-0x1d36(%rbp)
    fe5b:	39 99 
    fe5d:	c7 85 d4 e2 ff ff 01 	movl   $0x1,-0x1d2c(%rbp)
    fe64:	00 00 00 
    fe67:	c7 85 fc e2 ff ff 00 	movl   $0x0,-0x1d04(%rbp)
    fe6e:	00 00 00 
    fe71:	c7 85 00 e3 ff ff 89 	movl   $0x3d58c789,-0x1d00(%rbp)
    fe78:	c7 58 3d 
    fe7b:	c7 85 d8 e2 ff ff f7 	movl   $0xfffffff7,-0x1d28(%rbp)
    fe82:	ff ff ff 
    fe85:	c7 85 4c e3 ff ff d8 	movl   $0x2151fdd8,-0x1cb4(%rbp)
    fe8c:	fd 51 21 
    fe8f:	c7 85 50 e3 ff ff 3b 	movl   $0x5969ba3b,-0x1cb0(%rbp)
    fe96:	ba 69 59 
    fe99:	48 8d 85 a0 ec ff ff 	lea    -0x1360(%rbp),%rax
    fea0:	48 8d 15 19 b8 00 00 	lea    0xb819(%rip),%rdx        # 1b6c0 <g_2850+0x560>
    fea7:	b9 5e 00 00 00       	mov    $0x5e,%ecx
    feac:	48 89 c7             	mov    %rax,%rdi
    feaf:	48 89 d6             	mov    %rdx,%rsi
    feb2:	f3 48 a5             	rep movsq %ds:(%rsi),%es:(%rdi)
    feb5:	48 89 f2             	mov    %rsi,%rdx
    feb8:	48 89 f8             	mov    %rdi,%rax
    febb:	8b 0a                	mov    (%rdx),%ecx
    febd:	89 08                	mov    %ecx,(%rax)
    febf:	48 8d 05 25 06 01 00 	lea    0x10625(%rip),%rax        # 204eb <g_846+0x6b>
    fec6:	48 89 85 10 e4 ff ff 	mov    %rax,-0x1bf0(%rbp)
    fecd:	c6 85 be e2 ff ff 91 	movb   $0x91,-0x1d42(%rbp)
    fed4:	66 c7 85 cc e2 ff ff 	movw   $0xeddf,-0x1d34(%rbp)
    fedb:	df ed 
    fedd:	48 c7 85 68 e4 ff ff 	movq   $0x0,-0x1b98(%rbp)
    fee4:	00 00 00 00 
    fee8:	48 8d 05 85 05 01 00 	lea    0x10585(%rip),%rax        # 20474 <g_557>
    feef:	48 89 85 18 e4 ff ff 	mov    %rax,-0x1be8(%rbp)
    fef6:	48 8d 85 18 e4 ff ff 	lea    -0x1be8(%rbp),%rax
    fefd:	48 89 85 70 e4 ff ff 	mov    %rax,-0x1b90(%rbp)
    ff04:	c6 85 bc e2 ff ff db 	movb   $0xdb,-0x1d44(%rbp)
    ff0b:	48 8d 05 96 2b 01 00 	lea    0x12b96(%rip),%rax        # 22aa8 <g_548>
    ff12:	48 89 85 78 e4 ff ff 	mov    %rax,-0x1b88(%rbp)
    ff19:	c7 85 54 e3 ff ff 06 	movl   $0x6,-0x1cac(%rbp)
    ff20:	00 00 00 
    ff23:	48 b8 3e 70 e1 29 94 	movabs $0xd9df2e9429e1703e,%rax
    ff2a:	2e df d9 
    ff2d:	48 89 85 90 e6 ff ff 	mov    %rax,-0x1970(%rbp)
    ff34:	48 89 85 98 e6 ff ff 	mov    %rax,-0x1968(%rbp)
    ff3b:	48 89 85 a0 e6 ff ff 	mov    %rax,-0x1960(%rbp)
    ff42:	48 89 85 a8 e6 ff ff 	mov    %rax,-0x1958(%rbp)
    ff49:	48 89 85 b0 e6 ff ff 	mov    %rax,-0x1950(%rbp)
    ff50:	48 89 85 b8 e6 ff ff 	mov    %rax,-0x1948(%rbp)
    ff57:	48 b8 07 5b 17 b8 c4 	movabs $0xdc4bf1c4b8175b07,%rax
    ff5e:	f1 4b dc 
    ff61:	48 89 85 80 e4 ff ff 	mov    %rax,-0x1b80(%rbp)
    ff68:	c6 85 bf e2 ff ff 50 	movb   $0x50,-0x1d41(%rbp)
    ff6f:	c7 85 04 e3 ff ff 00 	movl   $0x0,-0x1cfc(%rbp)
    ff76:	00 00 00 
    ff79:	eb 1e                	jmp    ff99 <func_27+0x1a7>
    ff7b:	8b 85 04 e3 ff ff    	mov    -0x1cfc(%rbp),%eax
    ff81:	48 98                	cltq   
    ff83:	48 8d 15 76 23 01 00 	lea    0x12376(%rip),%rdx        # 22300 <g_496>
    ff8a:	48 89 94 c5 f0 e6 ff 	mov    %rdx,-0x1910(%rbp,%rax,8)
    ff91:	ff 
    ff92:	83 85 04 e3 ff ff 01 	addl   $0x1,-0x1cfc(%rbp)
    ff99:	83 bd 04 e3 ff ff 06 	cmpl   $0x6,-0x1cfc(%rbp)
    ffa0:	7e d9                	jle    ff7b <func_27+0x189>
    ffa2:	c7 85 04 e3 ff ff 00 	movl   $0x0,-0x1cfc(%rbp)
    ffa9:	00 00 00 
    ffac:	eb 19                	jmp    ffc7 <func_27+0x1d5>
    ffae:	8b 85 04 e3 ff ff    	mov    -0x1cfc(%rbp),%eax
    ffb4:	48 98                	cltq   
    ffb6:	66 c7 84 45 f8 e5 ff 	movw   $0xcdfc,-0x1a08(%rbp,%rax,2)
    ffbd:	ff fc cd 
    ffc0:	83 85 04 e3 ff ff 01 	addl   $0x1,-0x1cfc(%rbp)
    ffc7:	83 bd 04 e3 ff ff 03 	cmpl   $0x3,-0x1cfc(%rbp)
    ffce:	7e de                	jle    ffae <func_27+0x1bc>
    ffd0:	c7 85 04 e3 ff ff 00 	movl   $0x0,-0x1cfc(%rbp)
    ffd7:	00 00 00 
    ffda:	eb 47                	jmp    10023 <func_27+0x231>
    ffdc:	c7 85 08 e3 ff ff 00 	movl   $0x0,-0x1cf8(%rbp)
    ffe3:	00 00 00 
    ffe6:	eb 2b                	jmp    10013 <func_27+0x221>
    ffe8:	8b 85 08 e3 ff ff    	mov    -0x1cf8(%rbp),%eax
    ffee:	48 63 d0             	movslq %eax,%rdx
    fff1:	8b 85 04 e3 ff ff    	mov    -0x1cfc(%rbp),%eax
    fff7:	48 98                	cltq   
    fff9:	48 8d 5d d0          	lea    -0x30(%rbp),%rbx
    fffd:	48 01 da             	add    %rbx,%rdx
   10000:	48 01 d0             	add    %rdx,%rax
   10003:	48 2d e9 19 00 00    	sub    $0x19e9,%rax
   10009:	c6 00 94             	movb   $0x94,(%rax)
   1000c:	83 85 08 e3 ff ff 01 	addl   $0x1,-0x1cf8(%rbp)
   10013:	83 bd 08 e3 ff ff 00 	cmpl   $0x0,-0x1cf8(%rbp)
   1001a:	7e cc                	jle    ffe8 <func_27+0x1f6>
   1001c:	83 85 04 e3 ff ff 01 	addl   $0x1,-0x1cfc(%rbp)
   10023:	83 bd 04 e3 ff ff 00 	cmpl   $0x0,-0x1cfc(%rbp)
   1002a:	7e b0                	jle    ffdc <func_27+0x1ea>
   1002c:	c7 85 04 e3 ff ff 00 	movl   $0x0,-0x1cfc(%rbp)
   10033:	00 00 00 
   10036:	eb 14                	jmp    1004c <func_27+0x25a>
   10038:	8b 85 04 e3 ff ff    	mov    -0x1cfc(%rbp),%eax
   1003e:	48 98                	cltq   
   10040:	c6 44 05 c4 01       	movb   $0x1,-0x3c(%rbp,%rax,1)
   10045:	83 85 04 e3 ff ff 01 	addl   $0x1,-0x1cfc(%rbp)
   1004c:	83 bd 04 e3 ff ff 03 	cmpl   $0x3,-0x1cfc(%rbp)
   10053:	7e e3                	jle    10038 <func_27+0x246>
   10055:	c7 85 04 e3 ff ff 00 	movl   $0x0,-0x1cfc(%rbp)
   1005c:	00 00 00 
   1005f:	eb 1a                	jmp    1007b <func_27+0x289>
   10061:	8b 85 04 e3 ff ff    	mov    -0x1cfc(%rbp),%eax
   10067:	48 98                	cltq   
   10069:	c7 84 85 20 e6 ff ff 	movl   $0x2edc6d37,-0x19e0(%rbp,%rax,4)
   10070:	37 6d dc 2e 
   10074:	83 85 04 e3 ff ff 01 	addl   $0x1,-0x1cfc(%rbp)
   1007b:	83 bd 04 e3 ff ff 05 	cmpl   $0x5,-0x1cfc(%rbp)
   10082:	7e dd                	jle    10061 <func_27+0x26f>
   10084:	c6 85 a0 e2 ff ff f7 	movb   $0xf7,-0x1d60(%rbp)
   1008b:	e9 4b 3b 00 00       	jmpq   13bdb <func_27+0x3de9>
   10090:	48 c7 85 88 e4 ff ff 	movq   $0xfffffffffffffffc,-0x1b78(%rbp)
   10097:	fc ff ff ff 
   1009b:	c7 85 dc e2 ff ff 08 	movl   $0xfee7a408,-0x1d24(%rbp)
   100a2:	a4 e7 fe 
   100a5:	c7 85 58 e3 ff ff d1 	movl   $0x8d01d2d1,-0x1ca8(%rbp)
   100ac:	d2 01 8d 
   100af:	c7 85 0c e3 ff ff 15 	movl   $0x92f78615,-0x1cf4(%rbp)
   100b6:	86 f7 92 
   100b9:	c7 85 5c e3 ff ff 52 	movl   $0x1e0a7752,-0x1ca4(%rbp)
   100c0:	77 0a 1e 
   100c3:	c7 85 e0 e2 ff ff 96 	movl   $0x681e1f96,-0x1d20(%rbp)
   100ca:	1f 1e 68 
   100cd:	c7 85 60 e3 ff ff fe 	movl   $0xfffffffe,-0x1ca0(%rbp)
   100d4:	ff ff ff 
   100d7:	c7 85 64 e3 ff ff 03 	movl   $0x3,-0x1c9c(%rbp)
   100de:	00 00 00 
   100e1:	c7 85 10 e3 ff ff 5e 	movl   $0x173ba85e,-0x1cf0(%rbp)
   100e8:	a8 3b 17 
   100eb:	c7 85 e4 e2 ff ff 85 	movl   $0x5541185,-0x1d1c(%rbp)
   100f2:	11 54 05 
   100f5:	c7 85 68 e3 ff ff 01 	movl   $0x1,-0x1c98(%rbp)
   100fc:	00 00 00 
   100ff:	c7 85 6c e3 ff ff 05 	movl   $0x5,-0x1c94(%rbp)
   10106:	00 00 00 
   10109:	c7 85 70 e3 ff ff 08 	movl   $0x8,-0x1c90(%rbp)
   10110:	00 00 00 
   10113:	c7 85 e8 e2 ff ff 1c 	movl   $0x77d4311c,-0x1d18(%rbp)
   1011a:	31 d4 77 
   1011d:	c7 85 14 e3 ff ff b4 	movl   $0x7b2cd7b4,-0x1cec(%rbp)
   10124:	d7 2c 7b 
   10127:	c7 85 74 e3 ff ff fb 	movl   $0xfffffffb,-0x1c8c(%rbp)
   1012e:	ff ff ff 
   10131:	c7 85 00 e6 ff ff cc 	movl   $0x488842cc,-0x1a00(%rbp)
   10138:	42 88 48 
   1013b:	c7 85 04 e6 ff ff cc 	movl   $0x488842cc,-0x19fc(%rbp)
   10142:	42 88 48 
   10145:	c7 85 08 e6 ff ff cc 	movl   $0x488842cc,-0x19f8(%rbp)
   1014c:	42 88 48 
   1014f:	c7 85 0c e6 ff ff cc 	movl   $0x488842cc,-0x19f4(%rbp)
   10156:	42 88 48 
   10159:	c7 85 10 e6 ff ff cc 	movl   $0x488842cc,-0x19f0(%rbp)
   10160:	42 88 48 
   10163:	c6 85 bd e2 ff ff 1f 	movb   $0x1f,-0x1d43(%rbp)
   1016a:	c7 85 78 e3 ff ff e3 	movl   $0x8be44de3,-0x1c88(%rbp)
   10171:	4d e4 8b 
   10174:	48 8d 05 8d 29 01 00 	lea    0x1298d(%rip),%rax        # 22b08 <g_1090>
   1017b:	48 89 85 60 e4 ff ff 	mov    %rax,-0x1ba0(%rbp)
   10182:	66 c7 85 c4 e2 ff ff 	movw   $0xfee,-0x1d3c(%rbp)
   10189:	ee 0f 
   1018b:	48 8d 85 18 e4 ff ff 	lea    -0x1be8(%rbp),%rax
   10192:	48 89 85 30 e7 ff ff 	mov    %rax,-0x18d0(%rbp)
   10199:	48 8d 85 18 e4 ff ff 	lea    -0x1be8(%rbp),%rax
   101a0:	48 89 85 38 e7 ff ff 	mov    %rax,-0x18c8(%rbp)
   101a7:	48 8d 85 18 e4 ff ff 	lea    -0x1be8(%rbp),%rax
   101ae:	48 89 85 40 e7 ff ff 	mov    %rax,-0x18c0(%rbp)
   101b5:	48 8d 85 18 e4 ff ff 	lea    -0x1be8(%rbp),%rax
   101bc:	48 89 85 48 e7 ff ff 	mov    %rax,-0x18b8(%rbp)
   101c3:	48 8d 85 18 e4 ff ff 	lea    -0x1be8(%rbp),%rax
   101ca:	48 89 85 50 e7 ff ff 	mov    %rax,-0x18b0(%rbp)
   101d1:	48 8d 85 18 e4 ff ff 	lea    -0x1be8(%rbp),%rax
   101d8:	48 89 85 58 e7 ff ff 	mov    %rax,-0x18a8(%rbp)
   101df:	48 8d 85 18 e4 ff ff 	lea    -0x1be8(%rbp),%rax
   101e6:	48 89 85 60 e7 ff ff 	mov    %rax,-0x18a0(%rbp)
   101ed:	48 8d 85 18 e4 ff ff 	lea    -0x1be8(%rbp),%rax
   101f4:	48 89 85 68 e7 ff ff 	mov    %rax,-0x1898(%rbp)
   101fb:	48 c7 85 90 e4 ff ff 	movq   $0x0,-0x1b70(%rbp)
   10202:	00 00 00 00 
   10206:	c7 85 7c e3 ff ff 00 	movl   $0x0,-0x1c84(%rbp)
   1020d:	00 00 00 
   10210:	48 8d 85 00 f9 ff ff 	lea    -0x700(%rbp),%rax
   10217:	48 8d 15 22 0e 01 00 	lea    0x10e22(%rip),%rdx        # 21040 <g_2871+0x7f8>
   1021e:	b9 d8 00 00 00       	mov    $0xd8,%ecx
   10223:	48 89 c7             	mov    %rax,%rdi
   10226:	48 89 d6             	mov    %rdx,%rsi
   10229:	f3 48 a5             	rep movsq %ds:(%rsi),%es:(%rdi)
   1022c:	48 8d 05 cd 20 01 00 	lea    0x120cd(%rip),%rax        # 22300 <g_496>
   10233:	48 89 85 98 e4 ff ff 	mov    %rax,-0x1b68(%rbp)
   1023a:	48 8d 05 68 01 01 00 	lea    0x10168(%rip),%rax        # 203a9 <g_146+0x3>
   10241:	48 89 85 a0 e4 ff ff 	mov    %rax,-0x1b60(%rbp)
   10248:	c7 85 18 e3 ff ff 00 	movl   $0x0,-0x1ce8(%rbp)
   1024f:	00 00 00 
   10252:	eb 1e                	jmp    10272 <func_27+0x480>
   10254:	8b 85 18 e3 ff ff    	mov    -0x1ce8(%rbp),%eax
   1025a:	48 98                	cltq   
   1025c:	48 8d 15 95 20 01 00 	lea    0x12095(%rip),%rdx        # 222f8 <g_431>
   10263:	48 89 94 c5 40 e6 ff 	mov    %rdx,-0x19c0(%rbp,%rax,8)
   1026a:	ff 
   1026b:	83 85 18 e3 ff ff 01 	addl   $0x1,-0x1ce8(%rbp)
   10272:	83 bd 18 e3 ff ff 02 	cmpl   $0x2,-0x1ce8(%rbp)
   10279:	7e d9                	jle    10254 <func_27+0x462>
   1027b:	83 bd a4 e2 ff ff 00 	cmpl   $0x0,-0x1d5c(%rbp)
   10282:	0f 84 47 04 00 00    	je     106cf <func_27+0x8dd>
   10288:	48 8d 85 60 f3 ff ff 	lea    -0xca0(%rbp),%rax
   1028f:	48 8d 15 6a 14 01 00 	lea    0x1146a(%rip),%rdx        # 21700 <g_2871+0xeb8>
   10296:	b9 2a 00 00 00       	mov    $0x2a,%ecx
   1029b:	48 89 c7             	mov    %rax,%rdi
   1029e:	48 89 d6             	mov    %rdx,%rsi
   102a1:	f3 48 a5             	rep movsq %ds:(%rsi),%es:(%rdi)
   102a4:	48 8d 05 10 02 01 00 	lea    0x10210(%rip),%rax        # 204bb <g_846+0x3b>
   102ab:	48 89 85 b8 e5 ff ff 	mov    %rax,-0x1a48(%rbp)
   102b2:	48 c7 85 48 e4 ff ff 	movq   $0x0,-0x1bb8(%rbp)
   102b9:	00 00 00 00 
   102bd:	48 8d 85 48 e4 ff ff 	lea    -0x1bb8(%rbp),%rax
   102c4:	48 89 85 a0 ef ff ff 	mov    %rax,-0x1060(%rbp)
   102cb:	48 8d 85 48 e4 ff ff 	lea    -0x1bb8(%rbp),%rax
   102d2:	48 89 85 a8 ef ff ff 	mov    %rax,-0x1058(%rbp)
   102d9:	48 8d 85 48 e4 ff ff 	lea    -0x1bb8(%rbp),%rax
   102e0:	48 89 85 b0 ef ff ff 	mov    %rax,-0x1050(%rbp)
   102e7:	48 8d 85 48 e4 ff ff 	lea    -0x1bb8(%rbp),%rax
   102ee:	48 89 85 b8 ef ff ff 	mov    %rax,-0x1048(%rbp)
   102f5:	48 8d 85 48 e4 ff ff 	lea    -0x1bb8(%rbp),%rax
   102fc:	48 89 85 c0 ef ff ff 	mov    %rax,-0x1040(%rbp)
   10303:	48 8d 85 48 e4 ff ff 	lea    -0x1bb8(%rbp),%rax
   1030a:	48 89 85 c8 ef ff ff 	mov    %rax,-0x1038(%rbp)
   10311:	48 8d 85 48 e4 ff ff 	lea    -0x1bb8(%rbp),%rax
   10318:	48 89 85 d0 ef ff ff 	mov    %rax,-0x1030(%rbp)
   1031f:	48 8d 85 48 e4 ff ff 	lea    -0x1bb8(%rbp),%rax
   10326:	48 89 85 d8 ef ff ff 	mov    %rax,-0x1028(%rbp)
   1032d:	48 8d 85 48 e4 ff ff 	lea    -0x1bb8(%rbp),%rax
   10334:	48 89 85 e0 ef ff ff 	mov    %rax,-0x1020(%rbp)
   1033b:	48 8d 85 48 e4 ff ff 	lea    -0x1bb8(%rbp),%rax
   10342:	48 89 85 e8 ef ff ff 	mov    %rax,-0x1018(%rbp)
   10349:	48 8d 85 48 e4 ff ff 	lea    -0x1bb8(%rbp),%rax
   10350:	48 89 85 f0 ef ff ff 	mov    %rax,-0x1010(%rbp)
   10357:	48 8d 85 48 e4 ff ff 	lea    -0x1bb8(%rbp),%rax
   1035e:	48 89 85 f8 ef ff ff 	mov    %rax,-0x1008(%rbp)
   10365:	48 8d 85 48 e4 ff ff 	lea    -0x1bb8(%rbp),%rax
   1036c:	48 89 85 00 f0 ff ff 	mov    %rax,-0x1000(%rbp)
   10373:	48 8d 85 48 e4 ff ff 	lea    -0x1bb8(%rbp),%rax
   1037a:	48 89 85 08 f0 ff ff 	mov    %rax,-0xff8(%rbp)
   10381:	48 8d 85 48 e4 ff ff 	lea    -0x1bb8(%rbp),%rax
   10388:	48 89 85 10 f0 ff ff 	mov    %rax,-0xff0(%rbp)
   1038f:	48 8d 85 48 e4 ff ff 	lea    -0x1bb8(%rbp),%rax
   10396:	48 89 85 18 f0 ff ff 	mov    %rax,-0xfe8(%rbp)
   1039d:	48 8d 85 48 e4 ff ff 	lea    -0x1bb8(%rbp),%rax
   103a4:	48 89 85 20 f0 ff ff 	mov    %rax,-0xfe0(%rbp)
   103ab:	48 8d 85 48 e4 ff ff 	lea    -0x1bb8(%rbp),%rax
   103b2:	48 89 85 28 f0 ff ff 	mov    %rax,-0xfd8(%rbp)
   103b9:	48 8d 85 48 e4 ff ff 	lea    -0x1bb8(%rbp),%rax
   103c0:	48 89 85 30 f0 ff ff 	mov    %rax,-0xfd0(%rbp)
   103c7:	48 8d 85 48 e4 ff ff 	lea    -0x1bb8(%rbp),%rax
   103ce:	48 89 85 38 f0 ff ff 	mov    %rax,-0xfc8(%rbp)
   103d5:	48 8d 85 48 e4 ff ff 	lea    -0x1bb8(%rbp),%rax
   103dc:	48 89 85 40 f0 ff ff 	mov    %rax,-0xfc0(%rbp)
   103e3:	48 8d 85 48 e4 ff ff 	lea    -0x1bb8(%rbp),%rax
   103ea:	48 89 85 48 f0 ff ff 	mov    %rax,-0xfb8(%rbp)
   103f1:	48 8d 85 48 e4 ff ff 	lea    -0x1bb8(%rbp),%rax
   103f8:	48 89 85 50 f0 ff ff 	mov    %rax,-0xfb0(%rbp)
   103ff:	48 8d 85 48 e4 ff ff 	lea    -0x1bb8(%rbp),%rax
   10406:	48 89 85 58 f0 ff ff 	mov    %rax,-0xfa8(%rbp)
   1040d:	48 8d 85 48 e4 ff ff 	lea    -0x1bb8(%rbp),%rax
   10414:	48 89 85 60 f0 ff ff 	mov    %rax,-0xfa0(%rbp)
   1041b:	48 8d 85 48 e4 ff ff 	lea    -0x1bb8(%rbp),%rax
   10422:	48 89 85 68 f0 ff ff 	mov    %rax,-0xf98(%rbp)
   10429:	48 8d 85 48 e4 ff ff 	lea    -0x1bb8(%rbp),%rax
   10430:	48 89 85 70 f0 ff ff 	mov    %rax,-0xf90(%rbp)
   10437:	48 8d 85 48 e4 ff ff 	lea    -0x1bb8(%rbp),%rax
   1043e:	48 89 85 78 f0 ff ff 	mov    %rax,-0xf88(%rbp)
   10445:	48 8d 85 48 e4 ff ff 	lea    -0x1bb8(%rbp),%rax
   1044c:	48 89 85 80 f0 ff ff 	mov    %rax,-0xf80(%rbp)
   10453:	48 8d 85 48 e4 ff ff 	lea    -0x1bb8(%rbp),%rax
   1045a:	48 89 85 88 f0 ff ff 	mov    %rax,-0xf78(%rbp)
   10461:	48 8d 85 48 e4 ff ff 	lea    -0x1bb8(%rbp),%rax
   10468:	48 89 85 90 f0 ff ff 	mov    %rax,-0xf70(%rbp)
   1046f:	48 8d 85 48 e4 ff ff 	lea    -0x1bb8(%rbp),%rax
   10476:	48 89 85 98 f0 ff ff 	mov    %rax,-0xf68(%rbp)
   1047d:	48 8d 85 48 e4 ff ff 	lea    -0x1bb8(%rbp),%rax
   10484:	48 89 85 a0 f0 ff ff 	mov    %rax,-0xf60(%rbp)
   1048b:	48 8d 85 48 e4 ff ff 	lea    -0x1bb8(%rbp),%rax
   10492:	48 89 85 a8 f0 ff ff 	mov    %rax,-0xf58(%rbp)
   10499:	48 8d 85 48 e4 ff ff 	lea    -0x1bb8(%rbp),%rax
   104a0:	48 89 85 b0 f0 ff ff 	mov    %rax,-0xf50(%rbp)
   104a7:	48 8d 85 48 e4 ff ff 	lea    -0x1bb8(%rbp),%rax
   104ae:	48 89 85 b8 f0 ff ff 	mov    %rax,-0xf48(%rbp)
   104b5:	48 8d 85 48 e4 ff ff 	lea    -0x1bb8(%rbp),%rax
   104bc:	48 89 85 c0 f0 ff ff 	mov    %rax,-0xf40(%rbp)
   104c3:	48 8d 85 48 e4 ff ff 	lea    -0x1bb8(%rbp),%rax
   104ca:	48 89 85 c8 f0 ff ff 	mov    %rax,-0xf38(%rbp)
   104d1:	48 8d 85 48 e4 ff ff 	lea    -0x1bb8(%rbp),%rax
   104d8:	48 89 85 d0 f0 ff ff 	mov    %rax,-0xf30(%rbp)
   104df:	48 8d 85 48 e4 ff ff 	lea    -0x1bb8(%rbp),%rax
   104e6:	48 89 85 d8 f0 ff ff 	mov    %rax,-0xf28(%rbp)
   104ed:	48 c7 85 c0 e5 ff ff 	movq   $0x0,-0x1a40(%rbp)
   104f4:	00 00 00 00 
   104f8:	c7 05 aa fe 00 00 1d 	movl   $0x1d,0xfeaa(%rip)        # 203ac <g_257>
   104ff:	00 00 00 
   10502:	e9 b4 01 00 00       	jmpq   106bb <func_27+0x8c9>
   10507:	c6 85 c3 e2 ff ff ff 	movb   $0xff,-0x1d3d(%rbp)
   1050e:	c7 85 f0 e3 ff ff ff 	movl   $0xffffffff,-0x1c10(%rbp)
   10515:	ff ff ff 
   10518:	c7 85 f4 e3 ff ff fc 	movl   $0xa043fdfc,-0x1c0c(%rbp)
   1051f:	fd 43 a0 
   10522:	c7 85 f8 e3 ff ff e8 	movl   $0x761bd9e8,-0x1c08(%rbp)
   10529:	d9 1b 76 
   1052c:	48 8d 05 25 ff 00 00 	lea    0xff25(%rip),%rax        # 20458 <g_480+0x18>
   10533:	48 89 85 50 e4 ff ff 	mov    %rax,-0x1bb0(%rbp)
   1053a:	48 8d 85 50 e4 ff ff 	lea    -0x1bb0(%rbp),%rax
   10541:	48 89 85 58 e4 ff ff 	mov    %rax,-0x1ba8(%rbp)
   10548:	48 c7 85 a0 ea ff ff 	movq   $0x0,-0x1560(%rbp)
   1054f:	00 00 00 00 
   10553:	48 8d 85 58 e4 ff ff 	lea    -0x1ba8(%rbp),%rax
   1055a:	48 89 85 a8 ea ff ff 	mov    %rax,-0x1558(%rbp)
   10561:	48 8d 85 58 e4 ff ff 	lea    -0x1ba8(%rbp),%rax
   10568:	48 89 85 b0 ea ff ff 	mov    %rax,-0x1550(%rbp)
   1056f:	48 c7 85 b8 ea ff ff 	movq   $0x0,-0x1548(%rbp)
   10576:	00 00 00 00 
   1057a:	48 8d 85 58 e4 ff ff 	lea    -0x1ba8(%rbp),%rax
   10581:	48 89 85 c0 ea ff ff 	mov    %rax,-0x1540(%rbp)
   10588:	48 8d 85 58 e4 ff ff 	lea    -0x1ba8(%rbp),%rax
   1058f:	48 89 85 c8 ea ff ff 	mov    %rax,-0x1538(%rbp)
   10596:	48 c7 85 d0 ea ff ff 	movq   $0x0,-0x1530(%rbp)
   1059d:	00 00 00 00 
   105a1:	48 8d 85 58 e4 ff ff 	lea    -0x1ba8(%rbp),%rax
   105a8:	48 89 85 d8 ea ff ff 	mov    %rax,-0x1528(%rbp)
   105af:	48 8d 85 58 e4 ff ff 	lea    -0x1ba8(%rbp),%rax
   105b6:	48 89 85 e0 ea ff ff 	mov    %rax,-0x1520(%rbp)
   105bd:	48 8d 85 58 e4 ff ff 	lea    -0x1ba8(%rbp),%rax
   105c4:	48 89 85 e8 ea ff ff 	mov    %rax,-0x1518(%rbp)
   105cb:	48 8d 85 58 e4 ff ff 	lea    -0x1ba8(%rbp),%rax
   105d2:	48 89 85 f0 ea ff ff 	mov    %rax,-0x1510(%rbp)
   105d9:	48 8d 85 58 e4 ff ff 	lea    -0x1ba8(%rbp),%rax
   105e0:	48 89 85 f8 ea ff ff 	mov    %rax,-0x1508(%rbp)
   105e7:	48 8d 85 58 e4 ff ff 	lea    -0x1ba8(%rbp),%rax
   105ee:	48 89 85 00 eb ff ff 	mov    %rax,-0x1500(%rbp)
   105f5:	48 8d 85 58 e4 ff ff 	lea    -0x1ba8(%rbp),%rax
   105fc:	48 89 85 08 eb ff ff 	mov    %rax,-0x14f8(%rbp)
   10603:	48 8d 85 58 e4 ff ff 	lea    -0x1ba8(%rbp),%rax
   1060a:	48 89 85 10 eb ff ff 	mov    %rax,-0x14f0(%rbp)
   10611:	48 8d 85 58 e4 ff ff 	lea    -0x1ba8(%rbp),%rax
   10618:	48 89 85 18 eb ff ff 	mov    %rax,-0x14e8(%rbp)
   1061f:	48 8d 85 58 e4 ff ff 	lea    -0x1ba8(%rbp),%rax
   10626:	48 89 85 20 eb ff ff 	mov    %rax,-0x14e0(%rbp)
   1062d:	48 8d 85 58 e4 ff ff 	lea    -0x1ba8(%rbp),%rax
   10634:	48 89 85 28 eb ff ff 	mov    %rax,-0x14d8(%rbp)
   1063b:	48 8d 85 a0 ea ff ff 	lea    -0x1560(%rbp),%rax
   10642:	48 83 c0 50          	add    $0x50,%rax
   10646:	48 89 85 c8 e5 ff ff 	mov    %rax,-0x1a38(%rbp)
   1064d:	c7 85 fc e3 ff ff 1d 	movl   $0x3cf65a1d,-0x1c04(%rbp)
   10654:	5a f6 3c 
   10657:	c7 85 00 e4 ff ff 01 	movl   $0x1,-0x1c00(%rbp)
   1065e:	00 00 00 
   10661:	48 8d 05 90 1c 01 00 	lea    0x11c90(%rip),%rax        # 222f8 <g_431>
   10668:	48 89 85 d0 e5 ff ff 	mov    %rax,-0x1a30(%rbp)
   1066f:	48 8d 05 8d fe 00 00 	lea    0xfe8d(%rip),%rax        # 20503 <g_846+0x83>
   10676:	48 89 85 d8 e5 ff ff 	mov    %rax,-0x1a28(%rbp)
   1067d:	c7 85 1c e3 ff ff 00 	movl   $0x0,-0x1ce4(%rbp)
   10684:	00 00 00 
   10687:	eb 1a                	jmp    106a3 <func_27+0x8b1>
   10689:	8b 85 1c e3 ff ff    	mov    -0x1ce4(%rbp),%eax
   1068f:	48 98                	cltq   
   10691:	c7 84 85 30 e9 ff ff 	movl   $0x6c36f955,-0x16d0(%rbp,%rax,4)
   10698:	55 f9 36 6c 
   1069c:	83 85 1c e3 ff ff 01 	addl   $0x1,-0x1ce4(%rbp)
   106a3:	83 bd 1c e3 ff ff 07 	cmpl   $0x7,-0x1ce4(%rbp)
   106aa:	7e dd                	jle    10689 <func_27+0x897>
   106ac:	8b 05 fa fc 00 00    	mov    0xfcfa(%rip),%eax        # 203ac <g_257>
   106b2:	83 e8 01             	sub    $0x1,%eax
   106b5:	89 05 f1 fc 00 00    	mov    %eax,0xfcf1(%rip)        # 203ac <g_257>
   106bb:	8b 05 eb fc 00 00    	mov    0xfceb(%rip),%eax        # 203ac <g_257>
   106c1:	83 f8 f2             	cmp    $0xfffffff2,%eax
   106c4:	0f 8c 3d fe ff ff    	jl     10507 <func_27+0x715>
   106ca:	e9 b6 33 00 00       	jmpq   13a85 <func_27+0x3c93>
   106cf:	c7 85 80 e3 ff ff 83 	movl   $0x844b9b83,-0x1c80(%rbp)
   106d6:	9b 4b 84 
   106d9:	48 8d 05 c7 fc 00 00 	lea    0xfcc7(%rip),%rax        # 203a7 <g_146+0x1>
   106e0:	48 89 85 20 e4 ff ff 	mov    %rax,-0x1be0(%rbp)
   106e7:	48 8d 85 a0 ea ff ff 	lea    -0x1560(%rbp),%rax
   106ee:	48 8d 15 cb b2 00 00 	lea    0xb2cb(%rip),%rdx        # 1b9c0 <g_2850+0x860>
   106f5:	b9 3f 00 00 00       	mov    $0x3f,%ecx
   106fa:	48 89 c7             	mov    %rax,%rdi
   106fd:	48 89 d6             	mov    %rdx,%rsi
   10700:	f3 48 a5             	rep movsq %ds:(%rsi),%es:(%rdi)
   10703:	48 b8 c9 eb 31 4a 19 	movabs $0xeaafac194a31ebc9,%rax
   1070a:	ac af ea 
   1070d:	48 89 85 a8 e4 ff ff 	mov    %rax,-0x1b58(%rbp)
   10714:	48 8d 05 dd 1b 01 00 	lea    0x11bdd(%rip),%rax        # 222f8 <g_431>
   1071b:	48 89 85 28 e4 ff ff 	mov    %rax,-0x1bd8(%rbp)
   10722:	66 c7 85 c6 e2 ff ff 	movw   $0x0,-0x1d3a(%rbp)
   10729:	00 00 
   1072b:	48 c7 85 30 e4 ff ff 	movq   $0x0,-0x1bd0(%rbp)
   10732:	00 00 00 00 
   10736:	c7 85 84 e3 ff ff 32 	movl   $0x8b638732,-0x1c7c(%rbp)
   1073d:	87 63 8b 
   10740:	66 c7 85 c8 e2 ff ff 	movw   $0xfff9,-0x1d38(%rbp)
   10747:	f9 ff 
   10749:	48 8d 05 50 1b 01 00 	lea    0x11b50(%rip),%rax        # 222a0 <g_155>
   10750:	48 89 85 70 e7 ff ff 	mov    %rax,-0x1890(%rbp)
   10757:	48 8d 05 42 1b 01 00 	lea    0x11b42(%rip),%rax        # 222a0 <g_155>
   1075e:	48 89 85 78 e7 ff ff 	mov    %rax,-0x1888(%rbp)
   10765:	48 8d 05 34 1b 01 00 	lea    0x11b34(%rip),%rax        # 222a0 <g_155>
   1076c:	48 89 85 80 e7 ff ff 	mov    %rax,-0x1880(%rbp)
   10773:	48 8d 05 26 1b 01 00 	lea    0x11b26(%rip),%rax        # 222a0 <g_155>
   1077a:	48 89 85 88 e7 ff ff 	mov    %rax,-0x1878(%rbp)
   10781:	48 8d 05 18 1b 01 00 	lea    0x11b18(%rip),%rax        # 222a0 <g_155>
   10788:	48 89 85 90 e7 ff ff 	mov    %rax,-0x1870(%rbp)
   1078f:	48 8d 05 0a 1b 01 00 	lea    0x11b0a(%rip),%rax        # 222a0 <g_155>
   10796:	48 89 85 98 e7 ff ff 	mov    %rax,-0x1868(%rbp)
   1079d:	48 8d 05 fc 1a 01 00 	lea    0x11afc(%rip),%rax        # 222a0 <g_155>
   107a4:	48 89 85 a0 e7 ff ff 	mov    %rax,-0x1860(%rbp)
   107ab:	48 8d 05 ee 1a 01 00 	lea    0x11aee(%rip),%rax        # 222a0 <g_155>
   107b2:	48 89 85 a8 e7 ff ff 	mov    %rax,-0x1858(%rbp)
   107b9:	48 8d 05 e0 1a 01 00 	lea    0x11ae0(%rip),%rax        # 222a0 <g_155>
   107c0:	48 89 85 b0 e7 ff ff 	mov    %rax,-0x1850(%rbp)
   107c7:	48 8d 05 d2 1a 01 00 	lea    0x11ad2(%rip),%rax        # 222a0 <g_155>
   107ce:	48 89 85 b8 e7 ff ff 	mov    %rax,-0x1848(%rbp)
   107d5:	48 8d 85 10 e8 ff ff 	lea    -0x17f0(%rbp),%rax
   107dc:	48 8d 15 dd b3 00 00 	lea    0xb3dd(%rip),%rdx        # 1bbc0 <g_2850+0xa60>
   107e3:	b9 24 00 00 00       	mov    $0x24,%ecx
   107e8:	48 89 c7             	mov    %rax,%rdi
   107eb:	48 89 d6             	mov    %rdx,%rsi
   107ee:	f3 48 a5             	rep movsq %ds:(%rsi),%es:(%rdi)
   107f1:	48 c7 85 b0 e4 ff ff 	movq   $0xfffffffffffffffa,-0x1b50(%rbp)
   107f8:	fa ff ff ff 
   107fc:	48 8d 85 20 e6 ff ff 	lea    -0x19e0(%rbp),%rax
   10803:	48 83 c0 14          	add    $0x14,%rax
   10807:	48 89 85 b8 e4 ff ff 	mov    %rax,-0x1b48(%rbp)
   1080e:	48 8d 85 10 e4 ff ff 	lea    -0x1bf0(%rbp),%rax
   10815:	48 89 85 c0 e4 ff ff 	mov    %rax,-0x1b40(%rbp)
   1081c:	48 8d 05 89 fd 00 00 	lea    0xfd89(%rip),%rax        # 205ac <g_1144>
   10823:	48 89 85 c8 e4 ff ff 	mov    %rax,-0x1b38(%rbp)
   1082a:	48 8d 05 57 fd 00 00 	lea    0xfd57(%rip),%rax        # 20588 <g_1086+0x8>
   10831:	48 89 85 38 e4 ff ff 	mov    %rax,-0x1bc8(%rbp)
   10838:	48 8d 85 38 e4 ff ff 	lea    -0x1bc8(%rbp),%rax
   1083f:	48 89 85 d0 e4 ff ff 	mov    %rax,-0x1b30(%rbp)
   10846:	48 8d 85 08 e4 ff ff 	lea    -0x1bf8(%rbp),%rax
   1084d:	48 89 85 d8 e4 ff ff 	mov    %rax,-0x1b28(%rbp)
   10854:	48 8d 05 a5 1a 01 00 	lea    0x11aa5(%rip),%rax        # 22300 <g_496>
   1085b:	48 89 85 40 e4 ff ff 	mov    %rax,-0x1bc0(%rbp)
   10862:	c7 85 88 e3 ff ff a7 	movl   $0xab0a66a7,-0x1c78(%rbp)
   10869:	66 0a ab 
   1086c:	66 c7 85 ce e2 ff ff 	movw   $0x46f0,-0x1d32(%rbp)
   10873:	f0 46 
   10875:	c7 85 e0 e2 ff ff 00 	movl   $0x0,-0x1d20(%rbp)
   1087c:	00 00 00 
   1087f:	e9 d0 1c 00 00       	jmpq   12554 <func_27+0x2762>
   10884:	c7 85 c0 e3 ff ff 8e 	movl   $0x1377988e,-0x1c40(%rbp)
   1088b:	98 77 13 
   1088e:	c7 85 c4 e3 ff ff 00 	movl   $0x0,-0x1c3c(%rbp)
   10895:	00 00 00 
   10898:	c7 85 c8 e3 ff ff f6 	movl   $0xfffffff6,-0x1c38(%rbp)
   1089f:	ff ff ff 
   108a2:	c7 85 ec e2 ff ff ff 	movl   $0xffffffff,-0x1d14(%rbp)
   108a9:	ff ff ff 
   108ac:	c7 85 cc e3 ff ff df 	movl   $0xa2894fdf,-0x1c34(%rbp)
   108b3:	4f 89 a2 
   108b6:	c7 85 20 e3 ff ff f7 	movl   $0x9adb8df7,-0x1ce0(%rbp)
   108bd:	8d db 9a 
   108c0:	c7 85 d0 e3 ff ff 2d 	movl   $0x6f8cd22d,-0x1c30(%rbp)
   108c7:	d2 8c 6f 
   108ca:	48 8d 05 d3 fa 00 00 	lea    0xfad3(%rip),%rax        # 203a4 <g_138>
   108d1:	48 89 85 60 e5 ff ff 	mov    %rax,-0x1aa0(%rbp)
   108d8:	c7 85 24 e3 ff ff 00 	movl   $0x0,-0x1cdc(%rbp)
   108df:	00 00 00 
   108e2:	eb 1a                	jmp    108fe <func_27+0xb0c>
   108e4:	8b 85 24 e3 ff ff    	mov    -0x1cdc(%rbp),%eax
   108ea:	48 98                	cltq   
   108ec:	c7 84 85 f0 e5 ff ff 	movl   $0xe121edff,-0x1a10(%rbp,%rax,4)
   108f3:	ff ed 21 e1 
   108f7:	83 85 24 e3 ff ff 01 	addl   $0x1,-0x1cdc(%rbp)
   108fe:	83 bd 24 e3 ff ff 01 	cmpl   $0x1,-0x1cdc(%rbp)
   10905:	7e dd                	jle    108e4 <func_27+0xaf2>
   10907:	c7 85 24 e3 ff ff 00 	movl   $0x0,-0x1cdc(%rbp)
   1090e:	00 00 00 
   10911:	eb 1b                	jmp    1092e <func_27+0xb3c>
   10913:	8b 85 24 e3 ff ff    	mov    -0x1cdc(%rbp),%eax
   10919:	48 98                	cltq   
   1091b:	48 c7 84 c5 c0 e7 ff 	movq   $0x0,-0x1840(%rbp,%rax,8)
   10922:	ff 00 00 00 00 
   10927:	83 85 24 e3 ff ff 01 	addl   $0x1,-0x1cdc(%rbp)
   1092e:	83 bd 24 e3 ff ff 09 	cmpl   $0x9,-0x1cdc(%rbp)
   10935:	7e dc                	jle    10913 <func_27+0xb21>
   10937:	c7 85 24 e3 ff ff 00 	movl   $0x0,-0x1cdc(%rbp)
   1093e:	00 00 00 
   10941:	eb 22                	jmp    10965 <func_27+0xb73>
   10943:	8b 85 24 e3 ff ff    	mov    -0x1cdc(%rbp),%eax
   10949:	48 98                	cltq   
   1094b:	48 8d 95 c0 e7 ff ff 	lea    -0x1840(%rbp),%rdx
   10952:	48 83 c2 40          	add    $0x40,%rdx
   10956:	48 89 94 c5 e8 e5 ff 	mov    %rdx,-0x1a18(%rbp,%rax,8)
   1095d:	ff 
   1095e:	83 85 24 e3 ff ff 01 	addl   $0x1,-0x1cdc(%rbp)
   10965:	83 bd 24 e3 ff ff 00 	cmpl   $0x0,-0x1cdc(%rbp)
   1096c:	7e d5                	jle    10943 <func_27+0xb51>
   1096e:	c7 85 fc e2 ff ff f7 	movl   $0xfffffff7,-0x1d04(%rbp)
   10975:	ff ff ff 
   10978:	e9 3c 1b 00 00       	jmpq   124b9 <func_27+0x26c7>
   1097d:	48 8d 05 5c 21 01 00 	lea    0x1215c(%rip),%rax        # 22ae0 <g_943>
   10984:	48 89 85 68 e5 ff ff 	mov    %rax,-0x1a98(%rbp)
   1098b:	c7 85 f0 e2 ff ff 00 	movl   $0x0,-0x1d10(%rbp)
   10992:	00 00 00 
   10995:	c7 85 d4 e3 ff ff 56 	movl   $0x7ca57c56,-0x1c2c(%rbp)
   1099c:	7c a5 7c 
   1099f:	c7 85 28 e3 ff ff fd 	movl   $0x449a24fd,-0x1cd8(%rbp)
   109a6:	24 9a 44 
   109a9:	c7 85 f4 e2 ff ff 6d 	movl   $0xee64b86d,-0x1d0c(%rbp)
   109b0:	b8 64 ee 
   109b3:	c7 85 f8 e2 ff ff 28 	movl   $0xb8fce228,-0x1d08(%rbp)
   109ba:	e2 fc b8 
   109bd:	c7 85 d8 e3 ff ff 06 	movl   $0x6,-0x1c28(%rbp)
   109c4:	00 00 00 
   109c7:	c7 85 dc e3 ff ff 03 	movl   $0x3,-0x1c24(%rbp)
   109ce:	00 00 00 
   109d1:	c7 85 e0 e3 ff ff ff 	movl   $0xffffffff,-0x1c20(%rbp)
   109d8:	ff ff ff 
   109db:	c7 85 48 e4 ff ff 06 	movl   $0x6,-0x1bb8(%rbp)
   109e2:	00 00 00 
   109e5:	c7 85 e4 e3 ff ff fc 	movl   $0xfffffffc,-0x1c1c(%rbp)
   109ec:	ff ff ff 
   109ef:	c7 85 e8 e3 ff ff 01 	movl   $0x1,-0x1c18(%rbp)
   109f6:	00 00 00 
   109f9:	66 c7 85 d2 e2 ff ff 	movw   $0xffff,-0x1d2e(%rbp)
   10a00:	ff ff 
   10a02:	48 c7 85 60 e6 ff ff 	movq   $0x0,-0x19a0(%rbp)
   10a09:	00 00 00 00 
   10a0d:	48 c7 85 68 e6 ff ff 	movq   $0x0,-0x1998(%rbp)
   10a14:	00 00 00 00 
   10a18:	48 c7 85 70 e6 ff ff 	movq   $0x0,-0x1990(%rbp)
   10a1f:	00 00 00 00 
   10a23:	48 c7 85 78 e6 ff ff 	movq   $0x0,-0x1988(%rbp)
   10a2a:	00 00 00 00 
   10a2e:	c7 85 80 e6 ff ff 00 	movl   $0x0,-0x1980(%rbp)
   10a35:	00 00 00 
   10a38:	48 8d 05 41 a6 00 00 	lea    0xa641(%rip),%rax        # 1b080 <g_1029>
   10a3f:	48 89 85 50 e4 ff ff 	mov    %rax,-0x1bb0(%rbp)
   10a46:	48 8d 85 c0 e6 ff ff 	lea    -0x1940(%rbp),%rax
   10a4d:	48 83 c0 08          	add    $0x8,%rax
   10a51:	48 89 85 30 e9 ff ff 	mov    %rax,-0x16d0(%rbp)
   10a58:	48 c7 85 38 e9 ff ff 	movq   $0x0,-0x16c8(%rbp)
   10a5f:	00 00 00 00 
   10a63:	48 8d 85 c0 e6 ff ff 	lea    -0x1940(%rbp),%rax
   10a6a:	48 83 c0 18          	add    $0x18,%rax
   10a6e:	48 89 85 40 e9 ff ff 	mov    %rax,-0x16c0(%rbp)
   10a75:	48 c7 85 48 e9 ff ff 	movq   $0x0,-0x16b8(%rbp)
   10a7c:	00 00 00 00 
   10a80:	48 8d 85 c0 e6 ff ff 	lea    -0x1940(%rbp),%rax
   10a87:	48 83 c0 08          	add    $0x8,%rax
   10a8b:	48 89 85 50 e9 ff ff 	mov    %rax,-0x16b0(%rbp)
   10a92:	48 8d 85 c0 e6 ff ff 	lea    -0x1940(%rbp),%rax
   10a99:	48 83 c0 08          	add    $0x8,%rax
   10a9d:	48 89 85 58 e9 ff ff 	mov    %rax,-0x16a8(%rbp)
   10aa4:	48 c7 85 60 e9 ff ff 	movq   $0x0,-0x16a0(%rbp)
   10aab:	00 00 00 00 
   10aaf:	48 8d 85 c0 e6 ff ff 	lea    -0x1940(%rbp),%rax
   10ab6:	48 83 c0 18          	add    $0x18,%rax
   10aba:	48 89 85 68 e9 ff ff 	mov    %rax,-0x1698(%rbp)
   10ac1:	48 c7 85 70 e9 ff ff 	movq   $0x0,-0x1690(%rbp)
   10ac8:	00 00 00 00 
   10acc:	48 8d 85 c0 e6 ff ff 	lea    -0x1940(%rbp),%rax
   10ad3:	48 83 c0 08          	add    $0x8,%rax
   10ad7:	48 89 85 78 e9 ff ff 	mov    %rax,-0x1688(%rbp)
   10ade:	48 8d 85 c0 e6 ff ff 	lea    -0x1940(%rbp),%rax
   10ae5:	48 83 c0 08          	add    $0x8,%rax
   10ae9:	48 89 85 80 e9 ff ff 	mov    %rax,-0x1680(%rbp)
   10af0:	48 c7 85 88 e9 ff ff 	movq   $0x0,-0x1678(%rbp)
   10af7:	00 00 00 00 
   10afb:	48 8d 85 c0 e6 ff ff 	lea    -0x1940(%rbp),%rax
   10b02:	48 83 c0 18          	add    $0x18,%rax
   10b06:	48 89 85 90 e9 ff ff 	mov    %rax,-0x1670(%rbp)
   10b0d:	48 c7 85 98 e9 ff ff 	movq   $0x0,-0x1668(%rbp)
   10b14:	00 00 00 00 
   10b18:	48 8d 85 c0 e6 ff ff 	lea    -0x1940(%rbp),%rax
   10b1f:	48 83 c0 08          	add    $0x8,%rax
   10b23:	48 89 85 a0 e9 ff ff 	mov    %rax,-0x1660(%rbp)
   10b2a:	48 8d 85 c0 e6 ff ff 	lea    -0x1940(%rbp),%rax
   10b31:	48 83 c0 08          	add    $0x8,%rax
   10b35:	48 89 85 a8 e9 ff ff 	mov    %rax,-0x1658(%rbp)
   10b3c:	48 c7 85 b0 e9 ff ff 	movq   $0x0,-0x1650(%rbp)
   10b43:	00 00 00 00 
   10b47:	48 8d 85 c0 e6 ff ff 	lea    -0x1940(%rbp),%rax
   10b4e:	48 83 c0 18          	add    $0x18,%rax
   10b52:	48 89 85 b8 e9 ff ff 	mov    %rax,-0x1648(%rbp)
   10b59:	48 c7 85 c0 e9 ff ff 	movq   $0x0,-0x1640(%rbp)
   10b60:	00 00 00 00 
   10b64:	48 8d 85 c0 e6 ff ff 	lea    -0x1940(%rbp),%rax
   10b6b:	48 83 c0 08          	add    $0x8,%rax
   10b6f:	48 89 85 c8 e9 ff ff 	mov    %rax,-0x1638(%rbp)
   10b76:	48 8d 85 c0 e6 ff ff 	lea    -0x1940(%rbp),%rax
   10b7d:	48 83 c0 08          	add    $0x8,%rax
   10b81:	48 89 85 d0 e9 ff ff 	mov    %rax,-0x1630(%rbp)
   10b88:	48 c7 85 d8 e9 ff ff 	movq   $0x0,-0x1628(%rbp)
   10b8f:	00 00 00 00 
   10b93:	48 8d 85 c0 e6 ff ff 	lea    -0x1940(%rbp),%rax
   10b9a:	48 83 c0 18          	add    $0x18,%rax
   10b9e:	48 89 85 e0 e9 ff ff 	mov    %rax,-0x1620(%rbp)
   10ba5:	48 c7 85 e8 e9 ff ff 	movq   $0x0,-0x1618(%rbp)
   10bac:	00 00 00 00 
   10bb0:	48 8d 85 c0 e6 ff ff 	lea    -0x1940(%rbp),%rax
   10bb7:	48 83 c0 08          	add    $0x8,%rax
   10bbb:	48 89 85 f0 e9 ff ff 	mov    %rax,-0x1610(%rbp)
   10bc2:	48 8d 85 c0 e6 ff ff 	lea    -0x1940(%rbp),%rax
   10bc9:	48 83 c0 08          	add    $0x8,%rax
   10bcd:	48 89 85 f8 e9 ff ff 	mov    %rax,-0x1608(%rbp)
   10bd4:	48 c7 85 00 ea ff ff 	movq   $0x0,-0x1600(%rbp)
   10bdb:	00 00 00 00 
   10bdf:	48 8d 85 c0 e6 ff ff 	lea    -0x1940(%rbp),%rax
   10be6:	48 83 c0 18          	add    $0x18,%rax
   10bea:	48 89 85 08 ea ff ff 	mov    %rax,-0x15f8(%rbp)
   10bf1:	48 c7 85 10 ea ff ff 	movq   $0x0,-0x15f0(%rbp)
   10bf8:	00 00 00 00 
   10bfc:	48 8d 85 c0 e6 ff ff 	lea    -0x1940(%rbp),%rax
   10c03:	48 83 c0 08          	add    $0x8,%rax
   10c07:	48 89 85 18 ea ff ff 	mov    %rax,-0x15e8(%rbp)
   10c0e:	48 8d 85 c0 e6 ff ff 	lea    -0x1940(%rbp),%rax
   10c15:	48 83 c0 08          	add    $0x8,%rax
   10c19:	48 89 85 20 ea ff ff 	mov    %rax,-0x15e0(%rbp)
   10c20:	48 c7 85 28 ea ff ff 	movq   $0x0,-0x15d8(%rbp)
   10c27:	00 00 00 00 
   10c2b:	48 8d 85 c0 e6 ff ff 	lea    -0x1940(%rbp),%rax
   10c32:	48 83 c0 18          	add    $0x18,%rax
   10c36:	48 89 85 30 ea ff ff 	mov    %rax,-0x15d0(%rbp)
   10c3d:	48 c7 85 38 ea ff ff 	movq   $0x0,-0x15c8(%rbp)
   10c44:	00 00 00 00 
   10c48:	48 8d 85 c0 e6 ff ff 	lea    -0x1940(%rbp),%rax
   10c4f:	48 83 c0 08          	add    $0x8,%rax
   10c53:	48 89 85 40 ea ff ff 	mov    %rax,-0x15c0(%rbp)
   10c5a:	48 8d 85 c0 e6 ff ff 	lea    -0x1940(%rbp),%rax
   10c61:	48 83 c0 08          	add    $0x8,%rax
   10c65:	48 89 85 48 ea ff ff 	mov    %rax,-0x15b8(%rbp)
   10c6c:	48 c7 85 50 ea ff ff 	movq   $0x0,-0x15b0(%rbp)
   10c73:	00 00 00 00 
   10c77:	48 8d 85 c0 e6 ff ff 	lea    -0x1940(%rbp),%rax
   10c7e:	48 83 c0 18          	add    $0x18,%rax
   10c82:	48 89 85 58 ea ff ff 	mov    %rax,-0x15a8(%rbp)
   10c89:	48 c7 85 60 ea ff ff 	movq   $0x0,-0x15a0(%rbp)
   10c90:	00 00 00 00 
   10c94:	48 8d 85 c0 e6 ff ff 	lea    -0x1940(%rbp),%rax
   10c9b:	48 83 c0 08          	add    $0x8,%rax
   10c9f:	48 89 85 68 ea ff ff 	mov    %rax,-0x1598(%rbp)
   10ca6:	48 8d 85 c0 e6 ff ff 	lea    -0x1940(%rbp),%rax
   10cad:	48 83 c0 08          	add    $0x8,%rax
   10cb1:	48 89 85 70 ea ff ff 	mov    %rax,-0x1590(%rbp)
   10cb8:	48 c7 85 78 ea ff ff 	movq   $0x0,-0x1588(%rbp)
   10cbf:	00 00 00 00 
   10cc3:	48 8d 85 c0 e6 ff ff 	lea    -0x1940(%rbp),%rax
   10cca:	48 83 c0 18          	add    $0x18,%rax
   10cce:	48 89 85 80 ea ff ff 	mov    %rax,-0x1580(%rbp)
   10cd5:	48 c7 85 88 ea ff ff 	movq   $0x0,-0x1578(%rbp)
   10cdc:	00 00 00 00 
   10ce0:	48 8d 85 c0 e6 ff ff 	lea    -0x1940(%rbp),%rax
   10ce7:	48 83 c0 08          	add    $0x8,%rax
   10ceb:	48 89 85 90 ea ff ff 	mov    %rax,-0x1570(%rbp)
   10cf2:	48 8d 85 30 e9 ff ff 	lea    -0x16d0(%rbp),%rax
   10cf9:	48 05 c8 00 00 00    	add    $0xc8,%rax
   10cff:	48 89 85 70 e5 ff ff 	mov    %rax,-0x1a90(%rbp)
   10d06:	48 c7 85 78 e5 ff ff 	movq   $0x0,-0x1a88(%rbp)
   10d0d:	00 00 00 00 
   10d11:	48 8d 05 f0 f5 00 00 	lea    0xf5f0(%rip),%rax        # 20308 <g_117+0x288>
   10d18:	48 89 85 80 e5 ff ff 	mov    %rax,-0x1a80(%rbp)
   10d1f:	c7 85 2c e3 ff ff 00 	movl   $0x0,-0x1cd4(%rbp)
   10d26:	00 00 00 
   10d29:	eb 46                	jmp    10d71 <func_27+0xf7f>
   10d2b:	c7 85 30 e3 ff ff 00 	movl   $0x0,-0x1cd0(%rbp)
   10d32:	00 00 00 
   10d35:	eb 2a                	jmp    10d61 <func_27+0xf6f>
   10d37:	8b 85 30 e3 ff ff    	mov    -0x1cd0(%rbp),%eax
   10d3d:	48 63 d0             	movslq %eax,%rdx
   10d40:	8b 85 2c e3 ff ff    	mov    -0x1cd4(%rbp),%eax
   10d46:	48 98                	cltq   
   10d48:	48 01 c2             	add    %rax,%rdx
   10d4b:	48 8d 85 50 e4 ff ff 	lea    -0x1bb0(%rbp),%rax
   10d52:	48 89 84 d5 c0 e6 ff 	mov    %rax,-0x1940(%rbp,%rdx,8)
   10d59:	ff 
   10d5a:	83 85 30 e3 ff ff 01 	addl   $0x1,-0x1cd0(%rbp)
   10d61:	83 bd 30 e3 ff ff 00 	cmpl   $0x0,-0x1cd0(%rbp)
   10d68:	7e cd                	jle    10d37 <func_27+0xf45>
   10d6a:	83 85 2c e3 ff ff 01 	addl   $0x1,-0x1cd4(%rbp)
   10d71:	83 bd 2c e3 ff ff 05 	cmpl   $0x5,-0x1cd4(%rbp)
   10d78:	7e b1                	jle    10d2b <func_27+0xf39>
   10d7a:	c7 05 cc f2 00 00 06 	movl   $0x6,0xf2cc(%rip)        # 20050 <g_105>
   10d81:	00 00 00 
   10d84:	e9 36 03 00 00       	jmpq   110bf <func_27+0x12cd>
   10d89:	48 8d 85 dc e2 ff ff 	lea    -0x1d24(%rbp),%rax
   10d90:	48 89 85 98 e5 ff ff 	mov    %rax,-0x1a68(%rbp)
   10d97:	48 8d 05 ae f2 00 00 	lea    0xf2ae(%rip),%rax        # 2004c <g_47>
   10d9e:	48 89 85 a0 e5 ff ff 	mov    %rax,-0x1a60(%rbp)
   10da5:	48 8d 05 9d f7 00 00 	lea    0xf79d(%rip),%rax        # 20549 <g_846+0xc9>
   10dac:	48 89 85 58 e4 ff ff 	mov    %rax,-0x1ba8(%rbp)
   10db3:	48 8d 85 58 e4 ff ff 	lea    -0x1ba8(%rbp),%rax
   10dba:	48 89 85 a8 e5 ff ff 	mov    %rax,-0x1a58(%rbp)
   10dc1:	48 8d 85 f0 e2 ff ff 	lea    -0x1d10(%rbp),%rax
   10dc8:	48 89 85 b0 e5 ff ff 	mov    %rax,-0x1a50(%rbp)
   10dcf:	48 8d 85 d8 e2 ff ff 	lea    -0x1d28(%rbp),%rax
   10dd6:	48 89 85 60 f3 ff ff 	mov    %rax,-0xca0(%rbp)
   10ddd:	48 8d 85 d8 e2 ff ff 	lea    -0x1d28(%rbp),%rax
   10de4:	48 89 85 68 f3 ff ff 	mov    %rax,-0xc98(%rbp)
   10deb:	48 8d 85 d8 e2 ff ff 	lea    -0x1d28(%rbp),%rax
   10df2:	48 89 85 70 f3 ff ff 	mov    %rax,-0xc90(%rbp)
   10df9:	48 8d 85 d8 e2 ff ff 	lea    -0x1d28(%rbp),%rax
   10e00:	48 89 85 78 f3 ff ff 	mov    %rax,-0xc88(%rbp)
   10e07:	48 8d 85 d8 e2 ff ff 	lea    -0x1d28(%rbp),%rax
   10e0e:	48 89 85 80 f3 ff ff 	mov    %rax,-0xc80(%rbp)
   10e15:	48 8d 85 d8 e2 ff ff 	lea    -0x1d28(%rbp),%rax
   10e1c:	48 89 85 88 f3 ff ff 	mov    %rax,-0xc78(%rbp)
   10e23:	48 8d 85 d8 e2 ff ff 	lea    -0x1d28(%rbp),%rax
   10e2a:	48 89 85 90 f3 ff ff 	mov    %rax,-0xc70(%rbp)
   10e31:	48 8d 85 d8 e2 ff ff 	lea    -0x1d28(%rbp),%rax
   10e38:	48 89 85 98 f3 ff ff 	mov    %rax,-0xc68(%rbp)
   10e3f:	c6 85 c2 e2 ff ff 11 	movb   $0x11,-0x1d3e(%rbp)
   10e46:	44 0f b6 b5 a0 e2 ff 	movzbl -0x1d60(%rbp),%r14d
   10e4d:	ff 
   10e4e:	8b 85 a4 e2 ff ff    	mov    -0x1d5c(%rbp),%eax
   10e54:	0f b6 d8             	movzbl %al,%ebx
   10e57:	48 8b 85 98 e5 ff ff 	mov    -0x1a68(%rbp),%rax
   10e5e:	8b 00                	mov    (%rax),%eax
   10e60:	83 e0 09             	and    $0x9,%eax
   10e63:	89 c2                	mov    %eax,%edx
   10e65:	48 8b 85 98 e5 ff ff 	mov    -0x1a68(%rbp),%rax
   10e6c:	89 10                	mov    %edx,(%rax)
   10e6e:	c7 85 f0 e2 ff ff 95 	movl   $0x3095,-0x1d10(%rbp)
   10e75:	30 00 00 
   10e78:	41 bf 01 00 00 00    	mov    $0x1,%r15d
   10e7e:	44 8b a5 60 e3 ff ff 	mov    -0x1ca0(%rbp),%r12d
   10e85:	0f b6 85 ac e2 ff ff 	movzbl -0x1d54(%rbp),%eax
   10e8c:	44 0f b6 e8          	movzbl %al,%r13d
   10e90:	8b 05 32 f5 00 00    	mov    0xf532(%rip),%eax        # 203c8 <g_433+0x8>
   10e96:	89 c2                	mov    %eax,%edx
   10e98:	48 8b 85 a0 e5 ff ff 	mov    -0x1a60(%rbp),%rax
   10e9f:	0f b6 08             	movzbl (%rax),%ecx
   10ea2:	8b 85 c0 e3 ff ff    	mov    -0x1c40(%rbp),%eax
   10ea8:	f7 d0                	not    %eax
   10eaa:	c1 e8 1f             	shr    $0x1f,%eax
   10ead:	09 c1                	or     %eax,%ecx
   10eaf:	48 8b 85 a0 e5 ff ff 	mov    -0x1a60(%rbp),%rax
   10eb6:	88 08                	mov    %cl,(%rax)
   10eb8:	48 8b 85 a0 e5 ff ff 	mov    -0x1a60(%rbp),%rax
   10ebf:	0f b6 00             	movzbl (%rax),%eax
   10ec2:	0f be c0             	movsbl %al,%eax
   10ec5:	89 d6                	mov    %edx,%esi
   10ec7:	89 c7                	mov    %eax,%edi
   10ec9:	e8 9e a4 ff ff       	callq  b36c <safe_rshift_func_int8_t_s_u>
   10ece:	66 98                	cbtw   
   10ed0:	66 35 e0 64          	xor    $0x64e0,%ax
   10ed4:	0f b7 c0             	movzwl %ax,%eax
   10ed7:	be 50 c3 00 00       	mov    $0xc350,%esi
   10edc:	89 c7                	mov    %eax,%edi
   10ede:	e8 79 ae ff ff       	callq  bd5c <safe_mod_func_uint16_t_u_u>
   10ee3:	0f b6 c0             	movzbl %al,%eax
   10ee6:	44 89 ee             	mov    %r13d,%esi
   10ee9:	89 c7                	mov    %eax,%edi
   10eeb:	e8 a3 ac ff ff       	callq  bb93 <safe_mul_func_uint8_t_u_u>
   10ef0:	0f b6 c0             	movzbl %al,%eax
   10ef3:	be fd b8 ff ff       	mov    $0xffffb8fd,%esi
   10ef8:	89 c7                	mov    %eax,%edi
   10efa:	e8 f6 a4 ff ff       	callq  b3f5 <safe_mul_func_int16_t_s_s>
   10eff:	66 0f be 95 ac e2 ff 	movsbw -0x1d54(%rbp),%dx
   10f06:	ff 
   10f07:	66 39 d0             	cmp    %dx,%ax
   10f0a:	0f 94 c0             	sete   %al
   10f0d:	0f b6 c0             	movzbl %al,%eax
   10f10:	be 01 00 00 00       	mov    $0x1,%esi
   10f15:	89 c7                	mov    %eax,%edi
   10f17:	e8 3e ac ff ff       	callq  bb5a <safe_add_func_uint8_t_u_u>
   10f1c:	0f b6 c0             	movzbl %al,%eax
   10f1f:	44 89 e6             	mov    %r12d,%esi
   10f22:	89 c7                	mov    %eax,%edi
   10f24:	e8 8f af ff ff       	callq  beb8 <safe_add_func_uint32_t_u_u>
   10f29:	0c 85                	or     $0x85,%al
   10f2b:	39 85 80 e3 ff ff    	cmp    %eax,-0x1c80(%rbp)
   10f31:	0f 93 c0             	setae  %al
   10f34:	0f b6 d0             	movzbl %al,%edx
   10f37:	48 8b 85 08 e4 ff ff 	mov    -0x1bf8(%rbp),%rax
   10f3e:	48 8b 00             	mov    (%rax),%rax
   10f41:	48 8b 00             	mov    (%rax),%rax
   10f44:	8b 00                	mov    (%rax),%eax
   10f46:	39 c2                	cmp    %eax,%edx
   10f48:	0f 94 c0             	sete   %al
   10f4b:	0f b6 c0             	movzbl %al,%eax
   10f4e:	41 39 c7             	cmp    %eax,%r15d
   10f51:	7c 09                	jl     10f5c <func_27+0x116a>
   10f53:	80 bd a0 e2 ff ff 00 	cmpb   $0x0,-0x1d60(%rbp)
   10f5a:	74 07                	je     10f63 <func_27+0x1171>
   10f5c:	b8 01 00 00 00       	mov    $0x1,%eax
   10f61:	eb 05                	jmp    10f68 <func_27+0x1176>
   10f63:	b8 00 00 00 00       	mov    $0x0,%eax
   10f68:	0f b6 c0             	movzbl %al,%eax
   10f6b:	89 de                	mov    %ebx,%esi
   10f6d:	89 c7                	mov    %eax,%edi
   10f6f:	e8 3a ac ff ff       	callq  bbae <safe_mod_func_uint8_t_u_u>
   10f74:	0f b6 d0             	movzbl %al,%edx
   10f77:	48 8b 85 88 e4 ff ff 	mov    -0x1b78(%rbp),%rax
   10f7e:	98                   	cwtl   
   10f7f:	89 d6                	mov    %edx,%esi
   10f81:	89 c7                	mov    %eax,%edi
   10f83:	e8 cd a4 ff ff       	callq  b455 <safe_div_func_int16_t_s_s>
   10f88:	0f be d0             	movsbl %al,%edx
   10f8b:	48 8b 05 56 1b 01 00 	mov    0x11b56(%rip),%rax        # 22ae8 <g_942>
   10f92:	48 89 85 68 e5 ff ff 	mov    %rax,-0x1a98(%rbp)
   10f99:	48 83 bd 68 e5 ff ff 	cmpq   $0x0,-0x1a98(%rbp)
   10fa0:	00 
   10fa1:	0f 94 c0             	sete   %al
   10fa4:	0f b6 c0             	movzbl %al,%eax
   10fa7:	89 d6                	mov    %edx,%esi
   10fa9:	89 c7                	mov    %eax,%edi
   10fab:	e8 ba a2 ff ff       	callq  b26a <safe_div_func_int8_t_s_s>
   10fb0:	0f be c0             	movsbl %al,%eax
   10fb3:	33 85 d4 e3 ff ff    	xor    -0x1c2c(%rbp),%eax
   10fb9:	3d fe ff 00 00       	cmp    $0xfffe,%eax
   10fbe:	0f 97 c0             	seta   %al
   10fc1:	0f b6 c0             	movzbl %al,%eax
   10fc4:	44 21 f0             	and    %r14d,%eax
   10fc7:	31 85 28 e3 ff ff    	xor    %eax,-0x1cd8(%rbp)
   10fcd:	48 8b 05 14 1b 01 00 	mov    0x11b14(%rip),%rax        # 22ae8 <g_942>
   10fd4:	48 8b 10             	mov    (%rax),%rdx
   10fd7:	48 8b 05 02 1b 01 00 	mov    0x11b02(%rip),%rax        # 22ae0 <g_943>
   10fde:	48 8b 12             	mov    (%rdx),%rdx
   10fe1:	48 89 10             	mov    %rdx,(%rax)
   10fe4:	0f b6 05 61 f0 00 00 	movzbl 0xf061(%rip),%eax        # 2004c <g_47>
   10feb:	0f be d8             	movsbl %al,%ebx
   10fee:	48 8b 85 20 e4 ff ff 	mov    -0x1be0(%rbp),%rax
   10ff5:	48 8d 15 ad f3 00 00 	lea    0xf3ad(%rip),%rdx        # 203a9 <g_146+0x3>
   10ffc:	48 39 d0             	cmp    %rdx,%rax
   10fff:	74 25                	je     11026 <func_27+0x1234>
   11001:	48 8b 95 58 e4 ff ff 	mov    -0x1ba8(%rbp),%rdx
   11008:	48 8b 85 a8 e5 ff ff 	mov    -0x1a58(%rbp),%rax
   1100f:	48 89 10             	mov    %rdx,(%rax)
   11012:	48 8b 85 a8 e5 ff ff 	mov    -0x1a58(%rbp),%rax
   11019:	48 8b 00             	mov    (%rax),%rax
   1101c:	48 8d 15 c8 f4 00 00 	lea    0xf4c8(%rip),%rdx        # 204eb <g_846+0x6b>
   11023:	48 39 d0             	cmp    %rdx,%rax
   11026:	48 be 70 0f 42 08 9c 	movabs $0xd5ee419c08420f70,%rsi
   1102d:	41 ee d5 
   11030:	bf 03 00 00 00       	mov    $0x3,%edi
   11035:	e8 f4 af ff ff       	callq  c02e <safe_add_func_uint64_t_u_u>
   1103a:	0f b6 d0             	movzbl %al,%edx
   1103d:	48 8b 85 98 e5 ff ff 	mov    -0x1a68(%rbp),%rax
   11044:	8b 00                	mov    (%rax),%eax
   11046:	0f b6 c0             	movzbl %al,%eax
   11049:	89 d6                	mov    %edx,%esi
   1104b:	89 c7                	mov    %eax,%edi
   1104d:	e8 08 ab ff ff       	callq  bb5a <safe_add_func_uint8_t_u_u>
   11052:	0f b6 c0             	movzbl %al,%eax
   11055:	25 23 e7 00 00       	and    $0xe723,%eax
   1105a:	89 c6                	mov    %eax,%esi
   1105c:	bf 00 00 00 00       	mov    $0x0,%edi
   11061:	e8 f6 ac ff ff       	callq  bd5c <safe_mod_func_uint16_t_u_u>
   11066:	0f b7 d0             	movzwl %ax,%edx
   11069:	0f b6 85 a0 e2 ff ff 	movzbl -0x1d60(%rbp),%eax
   11070:	31 d0                	xor    %edx,%eax
   11072:	89 de                	mov    %ebx,%esi
   11074:	89 c7                	mov    %eax,%edi
   11076:	e8 82 ae ff ff       	callq  befd <safe_mod_func_uint32_t_u_u>
   1107b:	48 8b 95 b0 e5 ff ff 	mov    -0x1a50(%rbp),%rdx
   11082:	8b 12                	mov    (%rdx),%edx
   11084:	09 d0                	or     %edx,%eax
   11086:	89 c2                	mov    %eax,%edx
   11088:	48 8b 85 b0 e5 ff ff 	mov    -0x1a50(%rbp),%rax
   1108f:	89 10                	mov    %edx,(%rax)
   11091:	0f b6 85 bd e2 ff ff 	movzbl -0x1d43(%rbp),%eax
   11098:	83 c0 01             	add    $0x1,%eax
   1109b:	88 85 bd e2 ff ff    	mov    %al,-0x1d43(%rbp)
   110a1:	8b 05 a9 ef 00 00    	mov    0xefa9(%rip),%eax        # 20050 <g_105>
   110a7:	0f b7 c0             	movzwl %ax,%eax
   110aa:	be 01 00 00 00       	mov    $0x1,%esi
   110af:	89 c7                	mov    %eax,%edi
   110b1:	e8 49 ac ff ff       	callq  bcff <safe_add_func_uint16_t_u_u>
   110b6:	0f b7 c0             	movzwl %ax,%eax
   110b9:	89 05 91 ef 00 00    	mov    %eax,0xef91(%rip)        # 20050 <g_105>
   110bf:	8b 05 8b ef 00 00    	mov    0xef8b(%rip),%eax        # 20050 <g_105>
   110c5:	83 f8 13             	cmp    $0x13,%eax
   110c8:	0f 84 bb fc ff ff    	je     10d89 <func_27+0xf97>
   110ce:	48 8b 85 70 e5 ff ff 	mov    -0x1a90(%rbp),%rax
   110d5:	48 c7 00 00 00 00 00 	movq   $0x0,(%rax)
   110dc:	0f b6 85 a0 e2 ff ff 	movzbl -0x1d60(%rbp),%eax
   110e3:	0f be d8             	movsbl %al,%ebx
   110e6:	8b 85 a4 e2 ff ff    	mov    -0x1d5c(%rbp),%eax
   110ec:	0f be d0             	movsbl %al,%edx
   110ef:	48 8b 85 08 e4 ff ff 	mov    -0x1bf8(%rbp),%rax
   110f6:	48 8b 08             	mov    (%rax),%rcx
   110f9:	48 8b 85 08 e4 ff ff 	mov    -0x1bf8(%rbp),%rax
   11100:	48 8b 00             	mov    (%rax),%rax
   11103:	48 8b 09             	mov    (%rcx),%rcx
   11106:	48 89 08             	mov    %rcx,(%rax)
   11109:	48 8b 08             	mov    (%rax),%rcx
   1110c:	48 8b 05 cd 19 01 00 	mov    0x119cd(%rip),%rax        # 22ae0 <g_943>
   11113:	48 8b 00             	mov    (%rax),%rax
   11116:	48 39 c1             	cmp    %rax,%rcx
   11119:	0f 95 c0             	setne  %al
   1111c:	0f b6 c0             	movzbl %al,%eax
   1111f:	89 d6                	mov    %edx,%esi
   11121:	89 c7                	mov    %eax,%edi
   11123:	e8 ea a0 ff ff       	callq  b212 <safe_mul_func_int8_t_s_s>
   11128:	0f be c0             	movsbl %al,%eax
   1112b:	89 de                	mov    %ebx,%esi
   1112d:	89 c7                	mov    %eax,%edi
   1112f:	e8 de a0 ff ff       	callq  b212 <safe_mul_func_int8_t_s_s>
   11134:	48 be b0 7a f1 3d d9 	movabs $0xaebcb3d93df17ab0,%rsi
   1113b:	b3 bc ae 
   1113e:	48 bf 82 88 83 31 90 	movabs $0xb4f5759031838882,%rdi
   11145:	75 f5 b4 
   11148:	e8 f4 a6 ff ff       	callq  b841 <safe_add_func_int64_t_s_s>
   1114d:	0f b6 d0             	movzbl %al,%edx
   11150:	8b 05 ca f2 00 00    	mov    0xf2ca(%rip),%eax        # 20420 <g_478+0x20>
   11156:	0f b6 c0             	movzbl %al,%eax
   11159:	89 d6                	mov    %edx,%esi
   1115b:	89 c7                	mov    %eax,%edi
   1115d:	e8 4c aa ff ff       	callq  bbae <safe_mod_func_uint8_t_u_u>
   11162:	0f b6 d0             	movzbl %al,%edx
   11165:	0f b7 85 c6 e2 ff ff 	movzwl -0x1d3a(%rbp),%eax
   1116c:	0f b7 c0             	movzwl %ax,%eax
   1116f:	39 c2                	cmp    %eax,%edx
   11171:	0f 94 c0             	sete   %al
   11174:	0f b6 c0             	movzbl %al,%eax
   11177:	48 89 85 30 e4 ff ff 	mov    %rax,-0x1bd0(%rbp)
   1117e:	48 8b 85 30 e4 ff ff 	mov    -0x1bd0(%rbp),%rax
   11185:	48 85 c0             	test   %rax,%rax
   11188:	74 20                	je     111aa <func_27+0x13b8>
   1118a:	48 8b 05 0f 11 01 00 	mov    0x1110f(%rip),%rax        # 222a0 <g_155>
   11191:	8b 08                	mov    (%rax),%ecx
   11193:	0f b6 95 a0 e2 ff ff 	movzbl -0x1d60(%rbp),%edx
   1119a:	48 8b 05 ff 10 01 00 	mov    0x110ff(%rip),%rax        # 222a0 <g_155>
   111a1:	09 ca                	or     %ecx,%edx
   111a3:	89 10                	mov    %edx,(%rax)
   111a5:	e9 5b 05 00 00       	jmpq   11705 <func_27+0x1913>
   111aa:	48 8d 85 60 f3 ff ff 	lea    -0xca0(%rbp),%rax
   111b1:	48 8d 15 28 ab 00 00 	lea    0xab28(%rip),%rdx        # 1bce0 <g_2850+0xb80>
   111b8:	b9 3c 00 00 00       	mov    $0x3c,%ecx
   111bd:	48 89 c7             	mov    %rax,%rdi
   111c0:	48 89 d6             	mov    %rdx,%rsi
   111c3:	f3 48 a5             	rep movsq %ds:(%rsi),%es:(%rdi)
   111c6:	48 8d 05 27 ef 00 00 	lea    0xef27(%rip),%rax        # 200f4 <g_117+0x74>
   111cd:	48 89 85 88 e5 ff ff 	mov    %rax,-0x1a78(%rbp)
   111d4:	48 8d 85 f8 e5 ff ff 	lea    -0x1a08(%rbp),%rax
   111db:	48 83 c0 04          	add    $0x4,%rax
   111df:	48 89 85 90 e5 ff ff 	mov    %rax,-0x1a70(%rbp)
   111e6:	48 8d 05 63 ee 00 00 	lea    0xee63(%rip),%rax        # 20050 <g_105>
   111ed:	48 89 85 a0 ef ff ff 	mov    %rax,-0x1060(%rbp)
   111f4:	48 8d 85 48 e4 ff ff 	lea    -0x1bb8(%rbp),%rax
   111fb:	48 89 85 a8 ef ff ff 	mov    %rax,-0x1058(%rbp)
   11202:	48 8d 85 f8 e2 ff ff 	lea    -0x1d08(%rbp),%rax
   11209:	48 89 85 b0 ef ff ff 	mov    %rax,-0x1050(%rbp)
   11210:	48 8d 85 e0 e2 ff ff 	lea    -0x1d20(%rbp),%rax
   11217:	48 89 85 b8 ef ff ff 	mov    %rax,-0x1048(%rbp)
   1121e:	48 c7 85 c0 ef ff ff 	movq   $0x0,-0x1040(%rbp)
   11225:	00 00 00 00 
   11229:	48 8d 85 ec e2 ff ff 	lea    -0x1d14(%rbp),%rax
   11230:	48 89 85 c8 ef ff ff 	mov    %rax,-0x1038(%rbp)
   11237:	48 8d 85 ec e2 ff ff 	lea    -0x1d14(%rbp),%rax
   1123e:	48 89 85 d0 ef ff ff 	mov    %rax,-0x1030(%rbp)
   11245:	48 c7 85 d8 ef ff ff 	movq   $0x0,-0x1028(%rbp)
   1124c:	00 00 00 00 
   11250:	48 8d 85 f4 e2 ff ff 	lea    -0x1d0c(%rbp),%rax
   11257:	48 89 85 e0 ef ff ff 	mov    %rax,-0x1020(%rbp)
   1125e:	48 c7 85 e8 ef ff ff 	movq   $0x0,-0x1018(%rbp)
   11265:	00 00 00 00 
   11269:	48 c7 85 f0 ef ff ff 	movq   $0x0,-0x1010(%rbp)
   11270:	00 00 00 00 
   11274:	48 8d 85 f4 e2 ff ff 	lea    -0x1d0c(%rbp),%rax
   1127b:	48 89 85 f8 ef ff ff 	mov    %rax,-0x1008(%rbp)
   11282:	48 8d 05 c7 ed 00 00 	lea    0xedc7(%rip),%rax        # 20050 <g_105>
   11289:	48 89 85 00 f0 ff ff 	mov    %rax,-0x1000(%rbp)
   11290:	48 8d 85 60 e6 ff ff 	lea    -0x19a0(%rbp),%rax
   11297:	48 83 c0 20          	add    $0x20,%rax
   1129b:	48 89 85 08 f0 ff ff 	mov    %rax,-0xff8(%rbp)
   112a2:	48 8d 85 ec e2 ff ff 	lea    -0x1d14(%rbp),%rax
   112a9:	48 89 85 10 f0 ff ff 	mov    %rax,-0xff0(%rbp)
   112b0:	48 c7 85 18 f0 ff ff 	movq   $0x0,-0xfe8(%rbp)
   112b7:	00 00 00 00 
   112bb:	48 8d 85 48 e4 ff ff 	lea    -0x1bb8(%rbp),%rax
   112c2:	48 89 85 20 f0 ff ff 	mov    %rax,-0xfe0(%rbp)
   112c9:	48 8d 85 f4 e2 ff ff 	lea    -0x1d0c(%rbp),%rax
   112d0:	48 89 85 28 f0 ff ff 	mov    %rax,-0xfd8(%rbp)
   112d7:	48 8d 85 f8 e2 ff ff 	lea    -0x1d08(%rbp),%rax
   112de:	48 89 85 30 f0 ff ff 	mov    %rax,-0xfd0(%rbp)
   112e5:	48 8d 85 ec e2 ff ff 	lea    -0x1d14(%rbp),%rax
   112ec:	48 89 85 38 f0 ff ff 	mov    %rax,-0xfc8(%rbp)
   112f3:	48 8d 85 f8 e2 ff ff 	lea    -0x1d08(%rbp),%rax
   112fa:	48 89 85 40 f0 ff ff 	mov    %rax,-0xfc0(%rbp)
   11301:	48 8d 85 f4 e2 ff ff 	lea    -0x1d0c(%rbp),%rax
   11308:	48 89 85 48 f0 ff ff 	mov    %rax,-0xfb8(%rbp)
   1130f:	48 8d 85 48 e4 ff ff 	lea    -0x1bb8(%rbp),%rax
   11316:	48 89 85 50 f0 ff ff 	mov    %rax,-0xfb0(%rbp)
   1131d:	48 8d 85 a0 ec ff ff 	lea    -0x1360(%rbp),%rax
   11324:	48 05 54 02 00 00    	add    $0x254,%rax
   1132a:	48 89 85 58 f0 ff ff 	mov    %rax,-0xfa8(%rbp)
   11331:	48 8d 85 f8 e2 ff ff 	lea    -0x1d08(%rbp),%rax
   11338:	48 89 85 60 f0 ff ff 	mov    %rax,-0xfa0(%rbp)
   1133f:	48 8d 85 f4 e2 ff ff 	lea    -0x1d0c(%rbp),%rax
   11346:	48 89 85 68 f0 ff ff 	mov    %rax,-0xf98(%rbp)
   1134d:	48 8d 85 48 e4 ff ff 	lea    -0x1bb8(%rbp),%rax
   11354:	48 89 85 70 f0 ff ff 	mov    %rax,-0xf90(%rbp)
   1135b:	48 8d 85 a0 ec ff ff 	lea    -0x1360(%rbp),%rax
   11362:	48 05 54 02 00 00    	add    $0x254,%rax
   11368:	48 89 85 78 f0 ff ff 	mov    %rax,-0xf88(%rbp)
   1136f:	48 8d 85 60 e6 ff ff 	lea    -0x19a0(%rbp),%rax
   11376:	48 83 c0 20          	add    $0x20,%rax
   1137a:	48 89 85 80 f0 ff ff 	mov    %rax,-0xf80(%rbp)
   11381:	48 8d 85 60 e6 ff ff 	lea    -0x19a0(%rbp),%rax
   11388:	48 83 c0 20          	add    $0x20,%rax
   1138c:	48 89 85 88 f0 ff ff 	mov    %rax,-0xf78(%rbp)
   11393:	48 8d 85 a0 ec ff ff 	lea    -0x1360(%rbp),%rax
   1139a:	48 05 54 02 00 00    	add    $0x254,%rax
   113a0:	48 89 85 90 f0 ff ff 	mov    %rax,-0xf70(%rbp)
   113a7:	48 8d 85 48 e4 ff ff 	lea    -0x1bb8(%rbp),%rax
   113ae:	48 89 85 98 f0 ff ff 	mov    %rax,-0xf68(%rbp)
   113b5:	48 c7 85 a0 f0 ff ff 	movq   $0x0,-0xf60(%rbp)
   113bc:	00 00 00 00 
   113c0:	48 c7 85 a8 f0 ff ff 	movq   $0x0,-0xf58(%rbp)
   113c7:	00 00 00 00 
   113cb:	48 8d 85 f4 e2 ff ff 	lea    -0x1d0c(%rbp),%rax
   113d2:	48 89 85 b0 f0 ff ff 	mov    %rax,-0xf50(%rbp)
   113d9:	48 8d 05 70 ec 00 00 	lea    0xec70(%rip),%rax        # 20050 <g_105>
   113e0:	48 89 85 b8 f0 ff ff 	mov    %rax,-0xf48(%rbp)
   113e7:	48 8d 85 60 e6 ff ff 	lea    -0x19a0(%rbp),%rax
   113ee:	48 83 c0 20          	add    $0x20,%rax
   113f2:	48 89 85 c0 f0 ff ff 	mov    %rax,-0xf40(%rbp)
   113f9:	48 8d 85 ec e2 ff ff 	lea    -0x1d14(%rbp),%rax
   11400:	48 89 85 c8 f0 ff ff 	mov    %rax,-0xf38(%rbp)
   11407:	48 c7 85 d0 f0 ff ff 	movq   $0x0,-0xf30(%rbp)
   1140e:	00 00 00 00 
   11412:	48 8d 85 ec e2 ff ff 	lea    -0x1d14(%rbp),%rax
   11419:	48 89 85 d8 f0 ff ff 	mov    %rax,-0xf28(%rbp)
   11420:	48 8d 85 f8 e2 ff ff 	lea    -0x1d08(%rbp),%rax
   11427:	48 89 85 e0 f0 ff ff 	mov    %rax,-0xf20(%rbp)
   1142e:	48 8d 85 48 e4 ff ff 	lea    -0x1bb8(%rbp),%rax
   11435:	48 89 85 e8 f0 ff ff 	mov    %rax,-0xf18(%rbp)
   1143c:	48 8d 05 0d ec 00 00 	lea    0xec0d(%rip),%rax        # 20050 <g_105>
   11443:	48 89 85 f0 f0 ff ff 	mov    %rax,-0xf10(%rbp)
   1144a:	48 8d 85 48 e4 ff ff 	lea    -0x1bb8(%rbp),%rax
   11451:	48 89 85 f8 f0 ff ff 	mov    %rax,-0xf08(%rbp)
   11458:	48 8d 85 f8 e2 ff ff 	lea    -0x1d08(%rbp),%rax
   1145f:	48 89 85 00 f1 ff ff 	mov    %rax,-0xf00(%rbp)
   11466:	48 8d 85 e0 e2 ff ff 	lea    -0x1d20(%rbp),%rax
   1146d:	48 89 85 08 f1 ff ff 	mov    %rax,-0xef8(%rbp)
   11474:	48 c7 85 10 f1 ff ff 	movq   $0x0,-0xef0(%rbp)
   1147b:	00 00 00 00 
   1147f:	48 8d 85 ec e2 ff ff 	lea    -0x1d14(%rbp),%rax
   11486:	48 89 85 18 f1 ff ff 	mov    %rax,-0xee8(%rbp)
   1148d:	48 8b 05 44 16 01 00 	mov    0x11644(%rip),%rax        # 22ad8 <g_926>
   11494:	48 8b 00             	mov    (%rax),%rax
   11497:	48 85 c0             	test   %rax,%rax
   1149a:	0f 95 c0             	setne  %al
   1149d:	0f b6 c8             	movzbl %al,%ecx
   114a0:	48 8b 05 f9 0d 01 00 	mov    0x10df9(%rip),%rax        # 222a0 <g_155>
   114a7:	8b 10                	mov    (%rax),%edx
   114a9:	48 8b 05 f0 0d 01 00 	mov    0x10df0(%rip),%rax        # 222a0 <g_155>
   114b0:	31 ca                	xor    %ecx,%edx
   114b2:	89 10                	mov    %edx,(%rax)
   114b4:	be 04 00 00 00       	mov    $0x4,%esi
   114b9:	bf b0 ff ff ff       	mov    $0xffffffb0,%edi
   114be:	e8 de 9d ff ff       	callq  b2a1 <safe_lshift_func_int8_t_s_s>
   114c3:	84 c0                	test   %al,%al
   114c5:	0f 85 07 02 00 00    	jne    116d2 <func_27+0x18e0>
   114cb:	0f be 9d ac e2 ff ff 	movsbl -0x1d54(%rbp),%ebx
   114d2:	48 8b 85 20 e4 ff ff 	mov    -0x1be0(%rbp),%rax
   114d9:	0f b6 10             	movzbl (%rax),%edx
   114dc:	83 c2 01             	add    $0x1,%edx
   114df:	88 10                	mov    %dl,(%rax)
   114e1:	0f b6 00             	movzbl (%rax),%eax
   114e4:	84 c0                	test   %al,%al
   114e6:	0f 85 ca 01 00 00    	jne    116b6 <func_27+0x18c4>
   114ec:	44 0f b6 a5 a0 e2 ff 	movzbl -0x1d60(%rbp),%r12d
   114f3:	ff 
   114f4:	48 83 bd 78 e5 ff ff 	cmpq   $0x0,-0x1a88(%rbp)
   114fb:	00 
   114fc:	41 0f 94 c6          	sete   %r14b
   11500:	48 8b 85 08 e4 ff ff 	mov    -0x1bf8(%rbp),%rax
   11507:	48 8b 00             	mov    (%rax),%rax
   1150a:	48 8b 00             	mov    (%rax),%rax
   1150d:	8b 10                	mov    (%rax),%edx
   1150f:	48 8b 85 08 e4 ff ff 	mov    -0x1bf8(%rbp),%rax
   11516:	48 8b 00             	mov    (%rax),%rax
   11519:	48 8b 00             	mov    (%rax),%rax
   1151c:	83 e2 fa             	and    $0xfffffffa,%edx
   1151f:	89 10                	mov    %edx,(%rax)
   11521:	0f b7 85 a8 e2 ff ff 	movzwl -0x1d58(%rbp),%eax
   11528:	66 85 c0             	test   %ax,%ax
   1152b:	0f 84 3c 01 00 00    	je     1166d <func_27+0x187b>
   11531:	8b 05 31 36 01 00    	mov    0x13631(%rip),%eax        # 24b68 <g_32>
   11537:	4c 63 e8             	movslq %eax,%r13
   1153a:	0f b7 85 a8 e2 ff ff 	movzwl -0x1d58(%rbp),%eax
   11541:	48 0f bf d0          	movswq %ax,%rdx
   11545:	48 8b 05 b4 0d 01 00 	mov    0x10db4(%rip),%rax        # 22300 <g_496>
   1154c:	0f b7 08             	movzwl (%rax),%ecx
   1154f:	66 0f be 85 ac e2 ff 	movsbw -0x1d54(%rbp),%ax
   11556:	ff 
   11557:	66 39 c1             	cmp    %ax,%cx
   1155a:	0f 94 c0             	sete   %al
   1155d:	0f b6 c8             	movzbl %al,%ecx
   11560:	b8 33 00 00 00       	mov    $0x33,%eax
   11565:	0f b6 c0             	movzbl %al,%eax
   11568:	39 c1                	cmp    %eax,%ecx
   1156a:	0f 9c c0             	setl   %al
   1156d:	0f b6 c8             	movzbl %al,%ecx
   11570:	0f b7 85 a8 e2 ff ff 	movzwl -0x1d58(%rbp),%eax
   11577:	98                   	cwtl   
   11578:	21 c8                	and    %ecx,%eax
   1157a:	48 98                	cltq   
   1157c:	48 89 05 05 36 01 00 	mov    %rax,0x13605(%rip)        # 24b88 <g_715>
   11583:	48 8b 05 fe 35 01 00 	mov    0x135fe(%rip),%rax        # 24b88 <g_715>
   1158a:	48 89 d6             	mov    %rdx,%rsi
   1158d:	48 89 c7             	mov    %rax,%rdi
   11590:	e8 ac a2 ff ff       	callq  b841 <safe_add_func_int64_t_s_s>
   11595:	48 85 c0             	test   %rax,%rax
   11598:	75 0c                	jne    115a6 <func_27+0x17b4>
   1159a:	0f b7 85 e2 f3 ff ff 	movzwl -0xc1e(%rbp),%eax
   115a1:	66 85 c0             	test   %ax,%ax
   115a4:	74 07                	je     115ad <func_27+0x17bb>
   115a6:	b8 01 00 00 00       	mov    $0x1,%eax
   115ab:	eb 05                	jmp    115b2 <func_27+0x17c0>
   115ad:	b8 00 00 00 00       	mov    $0x0,%eax
   115b2:	0f b7 d0             	movzwl %ax,%edx
   115b5:	8b 85 80 e3 ff ff    	mov    -0x1c80(%rbp),%eax
   115bb:	0f b7 c0             	movzwl %ax,%eax
   115be:	89 d6                	mov    %edx,%esi
   115c0:	89 c7                	mov    %eax,%edi
   115c2:	e8 38 a7 ff ff       	callq  bcff <safe_add_func_uint16_t_u_u>
   115c7:	0f bf 95 cc e2 ff ff 	movswl -0x1d34(%rbp),%edx
   115ce:	48 8b 85 88 e5 ff ff 	mov    -0x1a78(%rbp),%rax
   115d5:	89 10                	mov    %edx,(%rax)
   115d7:	0f b6 85 a0 e2 ff ff 	movzbl -0x1d60(%rbp),%eax
   115de:	f7 d0                	not    %eax
   115e0:	48 98                	cltq   
   115e2:	4c 89 ee             	mov    %r13,%rsi
   115e5:	48 89 c7             	mov    %rax,%rdi
   115e8:	e8 0a a4 ff ff       	callq  b9f7 <safe_div_func_int64_t_s_s>
   115ed:	0f b7 d0             	movzwl %ax,%edx
   115f0:	8b 8d 2c e6 ff ff    	mov    -0x19d4(%rbp),%ecx
   115f6:	48 8b 05 a3 14 01 00 	mov    0x114a3(%rip),%rax        # 22aa0 <g_549>
   115fd:	66 89 08             	mov    %cx,(%rax)
   11600:	0f b6 85 a0 e2 ff ff 	movzbl -0x1d60(%rbp),%eax
   11607:	89 d6                	mov    %edx,%esi
   11609:	89 c7                	mov    %eax,%edi
   1160b:	e8 ef a6 ff ff       	callq  bcff <safe_add_func_uint16_t_u_u>
   11610:	0f b6 c0             	movzbl %al,%eax
   11613:	be 83 00 00 00       	mov    $0x83,%esi
   11618:	89 c7                	mov    %eax,%edi
   1161a:	e8 59 a5 ff ff       	callq  bb78 <safe_sub_func_uint8_t_u_u>
   1161f:	48 8b 95 90 e5 ff ff 	mov    -0x1a70(%rbp),%rdx
   11626:	0f b7 12             	movzwl (%rdx),%edx
   11629:	0f b6 c0             	movzbl %al,%eax
   1162c:	31 c2                	xor    %eax,%edx
   1162e:	48 8b 85 90 e5 ff ff 	mov    -0x1a70(%rbp),%rax
   11635:	66 89 10             	mov    %dx,(%rax)
   11638:	48 8b 85 90 e5 ff ff 	mov    -0x1a70(%rbp),%rax
   1163f:	0f b7 00             	movzwl (%rax),%eax
   11642:	0f b7 c0             	movzwl %ax,%eax
   11645:	be 0f 00 00 00       	mov    $0xf,%esi
   1164a:	89 c7                	mov    %eax,%edi
   1164c:	e8 b5 a7 ff ff       	callq  be06 <safe_lshift_func_uint16_t_u_u>
   11651:	0f b7 c0             	movzwl %ax,%eax
   11654:	89 85 70 e3 ff ff    	mov    %eax,-0x1c90(%rbp)
   1165a:	8b 85 70 e3 ff ff    	mov    -0x1c90(%rbp),%eax
   11660:	31 85 e8 e3 ff ff    	xor    %eax,-0x1c18(%rbp)
   11666:	83 bd e8 e3 ff ff 00 	cmpl   $0x0,-0x1c18(%rbp)
   1166d:	0f b7 85 ae f3 ff ff 	movzwl -0xc52(%rbp),%eax
   11674:	0f b6 c0             	movzbl %al,%eax
   11677:	be 04 00 00 00       	mov    $0x4,%esi
   1167c:	89 c7                	mov    %eax,%edi
   1167e:	e8 82 a5 ff ff       	callq  bc05 <safe_lshift_func_uint8_t_u_s>
   11683:	84 c0                	test   %al,%al
   11685:	75 0c                	jne    11693 <func_27+0x18a1>
   11687:	0f b7 85 a8 e2 ff ff 	movzwl -0x1d58(%rbp),%eax
   1168e:	66 85 c0             	test   %ax,%ax
   11691:	74 07                	je     1169a <func_27+0x18a8>
   11693:	b8 01 00 00 00       	mov    $0x1,%eax
   11698:	eb 05                	jmp    1169f <func_27+0x18ad>
   1169a:	b8 00 00 00 00       	mov    $0x0,%eax
   1169f:	83 e0 01             	and    $0x1,%eax
   116a2:	44 31 f0             	xor    %r14d,%eax
   116a5:	0f b6 c0             	movzbl %al,%eax
   116a8:	44 89 e6             	mov    %r12d,%esi
   116ab:	89 c7                	mov    %eax,%edi
   116ad:	e8 a8 a4 ff ff       	callq  bb5a <safe_add_func_uint8_t_u_u>
   116b2:	84 c0                	test   %al,%al
   116b4:	74 07                	je     116bd <func_27+0x18cb>
   116b6:	b8 01 00 00 00       	mov    $0x1,%eax
   116bb:	eb 05                	jmp    116c2 <func_27+0x18d0>
   116bd:	b8 00 00 00 00       	mov    $0x0,%eax
   116c2:	0f be c0             	movsbl %al,%eax
   116c5:	89 de                	mov    %ebx,%esi
   116c7:	89 c7                	mov    %eax,%edi
   116c9:	e8 06 9b ff ff       	callq  b1d4 <safe_add_func_int8_t_s_s>
   116ce:	84 c0                	test   %al,%al
   116d0:	74 07                	je     116d9 <func_27+0x18e7>
   116d2:	ba 01 00 00 00       	mov    $0x1,%edx
   116d7:	eb 05                	jmp    116de <func_27+0x18ec>
   116d9:	ba 00 00 00 00       	mov    $0x0,%edx
   116de:	48 8b 05 1b 14 01 00 	mov    0x1141b(%rip),%rax        # 22b00 <g_1066>
   116e5:	89 10                	mov    %edx,(%rax)
   116e7:	0f b7 05 82 ee 00 00 	movzwl 0xee82(%rip),%eax        # 20570 <g_1070>
   116ee:	83 c0 01             	add    $0x1,%eax
   116f1:	66 89 05 78 ee 00 00 	mov    %ax,0xee78(%rip)        # 20570 <g_1070>
   116f8:	83 bd a4 e2 ff ff 00 	cmpl   $0x0,-0x1d5c(%rbp)
   116ff:	0f 85 c1 0d 00 00    	jne    124c6 <func_27+0x26d4>
   11705:	be 02 00 00 00       	mov    $0x2,%esi
   1170a:	bf ee bc 00 00       	mov    $0xbcee,%edi
   1170f:	e8 eb a5 ff ff       	callq  bcff <safe_add_func_uint16_t_u_u>
   11714:	8b 85 80 e3 ff ff    	mov    -0x1c80(%rbp),%eax
   1171a:	0f be d8             	movsbl %al,%ebx
   1171d:	44 8b a5 f0 e5 ff ff 	mov    -0x1a10(%rbp),%r12d
   11724:	8b 85 0c e3 ff ff    	mov    -0x1cf4(%rbp),%eax
   1172a:	0f b6 d0             	movzbl %al,%edx
   1172d:	0f b7 05 a8 ec 00 00 	movzwl 0xeca8(%rip),%eax        # 203dc <g_433+0x1c>
   11734:	0f b6 c0             	movzbl %al,%eax
   11737:	89 d6                	mov    %edx,%esi
   11739:	89 c7                	mov    %eax,%edi
   1173b:	e8 53 a4 ff ff       	callq  bb93 <safe_mul_func_uint8_t_u_u>
   11740:	0f b6 d0             	movzbl %al,%edx
   11743:	48 8b 85 80 e5 ff ff 	mov    -0x1a80(%rbp),%rax
   1174a:	8b 00                	mov    (%rax),%eax
   1174c:	8d 48 ff             	lea    -0x1(%rax),%ecx
   1174f:	48 8b 85 80 e5 ff ff 	mov    -0x1a80(%rbp),%rax
   11756:	89 08                	mov    %ecx,(%rax)
   11758:	48 8b 85 80 e5 ff ff 	mov    -0x1a80(%rbp),%rax
   1175f:	8b 00                	mov    (%rax),%eax
   11761:	85 c0                	test   %eax,%eax
   11763:	0f 94 c0             	sete   %al
   11766:	0f b6 c0             	movzbl %al,%eax
   11769:	39 c2                	cmp    %eax,%edx
   1176b:	7d 11                	jge    1177e <func_27+0x198c>
   1176d:	48 83 bd 88 e4 ff ff 	cmpq   $0x0,-0x1b78(%rbp)
   11774:	00 
   11775:	74 07                	je     1177e <func_27+0x198c>
   11777:	ba 01 00 00 00       	mov    $0x1,%edx
   1177c:	eb 05                	jmp    11783 <func_27+0x1991>
   1177e:	ba 00 00 00 00       	mov    $0x0,%edx
   11783:	0f be 85 ac e2 ff ff 	movsbl -0x1d54(%rbp),%eax
   1178a:	39 c2                	cmp    %eax,%edx
   1178c:	0f 9d c0             	setge  %al
   1178f:	0f b6 c0             	movzbl %al,%eax
   11792:	41 39 c4             	cmp    %eax,%r12d
   11795:	8b 85 e4 e2 ff ff    	mov    -0x1d1c(%rbp),%eax
   1179b:	89 85 e4 e2 ff ff    	mov    %eax,-0x1d1c(%rbp)
   117a1:	8b 85 e4 e2 ff ff    	mov    -0x1d1c(%rbp),%eax
   117a7:	0f be c0             	movsbl %al,%eax
   117aa:	89 de                	mov    %ebx,%esi
   117ac:	89 c7                	mov    %eax,%edi
   117ae:	e8 5f 9a ff ff       	callq  b212 <safe_mul_func_int8_t_s_s>
   117b3:	83 bd a4 e2 ff ff 00 	cmpl   $0x0,-0x1d5c(%rbp)
   117ba:	0f 95 c0             	setne  %al
   117bd:	0f b6 c0             	movzbl %al,%eax
   117c0:	be 07 00 00 00       	mov    $0x7,%esi
   117c5:	89 c7                	mov    %eax,%edi
   117c7:	e8 f2 a5 ff ff       	callq  bdbe <safe_lshift_func_uint16_t_u_s>
   117cc:	48 8b 85 08 e4 ff ff 	mov    -0x1bf8(%rbp),%rax
   117d3:	48 8b 00             	mov    (%rax),%rax
   117d6:	48 8b 00             	mov    (%rax),%rax
   117d9:	c7 00 fb ff ff ff    	movl   $0xfffffffb,(%rax)
   117df:	8b 00                	mov    (%rax),%eax
   117e1:	89 85 f4 e2 ff ff    	mov    %eax,-0x1d0c(%rbp)
   117e7:	c7 85 e8 e2 ff ff e4 	movl   $0xffffffe4,-0x1d18(%rbp)
   117ee:	ff ff ff 
   117f1:	e9 93 0c 00 00       	jmpq   12489 <func_27+0x2697>
   117f6:	c6 85 c1 e2 ff ff 14 	movb   $0x14,-0x1d3f(%rbp)
   117fd:	c7 85 ec e3 ff ff 00 	movl   $0x0,-0x1c14(%rbp)
   11804:	00 00 00 
   11807:	48 8d 85 c6 e2 ff ff 	lea    -0x1d3a(%rbp),%rax
   1180e:	48 89 85 60 f3 ff ff 	mov    %rax,-0xca0(%rbp)
   11815:	48 c7 85 68 f3 ff ff 	movq   $0x0,-0xc98(%rbp)
   1181c:	00 00 00 00 
   11820:	48 8d 85 c6 e2 ff ff 	lea    -0x1d3a(%rbp),%rax
   11827:	48 89 85 70 f3 ff ff 	mov    %rax,-0xc90(%rbp)
   1182e:	48 8d 85 f8 e5 ff ff 	lea    -0x1a08(%rbp),%rax
   11835:	48 83 c0 04          	add    $0x4,%rax
   11839:	48 89 85 78 f3 ff ff 	mov    %rax,-0xc88(%rbp)
   11840:	48 8d 85 c6 e2 ff ff 	lea    -0x1d3a(%rbp),%rax
   11847:	48 89 85 80 f3 ff ff 	mov    %rax,-0xc80(%rbp)
   1184e:	48 c7 85 88 f3 ff ff 	movq   $0x0,-0xc78(%rbp)
   11855:	00 00 00 00 
   11859:	48 8d 85 f8 e5 ff ff 	lea    -0x1a08(%rbp),%rax
   11860:	48 83 c0 04          	add    $0x4,%rax
   11864:	48 89 85 90 f3 ff ff 	mov    %rax,-0xc70(%rbp)
   1186b:	48 8d 85 f8 e5 ff ff 	lea    -0x1a08(%rbp),%rax
   11872:	48 83 c0 04          	add    $0x4,%rax
   11876:	48 89 85 98 f3 ff ff 	mov    %rax,-0xc68(%rbp)
   1187d:	48 c7 85 a0 f3 ff ff 	movq   $0x0,-0xc60(%rbp)
   11884:	00 00 00 00 
   11888:	48 8d 85 f8 e5 ff ff 	lea    -0x1a08(%rbp),%rax
   1188f:	48 83 c0 04          	add    $0x4,%rax
   11893:	48 89 85 a8 f3 ff ff 	mov    %rax,-0xc58(%rbp)
   1189a:	48 c7 85 b0 f3 ff ff 	movq   $0x0,-0xc50(%rbp)
   118a1:	00 00 00 00 
   118a5:	48 8d 85 f8 e5 ff ff 	lea    -0x1a08(%rbp),%rax
   118ac:	48 83 c0 06          	add    $0x6,%rax
   118b0:	48 89 85 b8 f3 ff ff 	mov    %rax,-0xc48(%rbp)
   118b7:	48 8d 85 c4 e2 ff ff 	lea    -0x1d3c(%rbp),%rax
   118be:	48 89 85 c0 f3 ff ff 	mov    %rax,-0xc40(%rbp)
   118c5:	48 8d 85 f8 e5 ff ff 	lea    -0x1a08(%rbp),%rax
   118cc:	48 83 c0 04          	add    $0x4,%rax
   118d0:	48 89 85 c8 f3 ff ff 	mov    %rax,-0xc38(%rbp)
   118d7:	48 8d 85 f8 e5 ff ff 	lea    -0x1a08(%rbp),%rax
   118de:	48 83 c0 04          	add    $0x4,%rax
   118e2:	48 89 85 d0 f3 ff ff 	mov    %rax,-0xc30(%rbp)
   118e9:	48 8d 85 f8 e5 ff ff 	lea    -0x1a08(%rbp),%rax
   118f0:	48 83 c0 02          	add    $0x2,%rax
   118f4:	48 89 85 d8 f3 ff ff 	mov    %rax,-0xc28(%rbp)
   118fb:	48 c7 85 e0 f3 ff ff 	movq   $0x0,-0xc20(%rbp)
   11902:	00 00 00 00 
   11906:	48 c7 85 e8 f3 ff ff 	movq   $0x0,-0xc18(%rbp)
   1190d:	00 00 00 00 
   11911:	48 8d 85 f8 e5 ff ff 	lea    -0x1a08(%rbp),%rax
   11918:	48 83 c0 04          	add    $0x4,%rax
   1191c:	48 89 85 f0 f3 ff ff 	mov    %rax,-0xc10(%rbp)
   11923:	48 8d 85 c4 e2 ff ff 	lea    -0x1d3c(%rbp),%rax
   1192a:	48 89 85 f8 f3 ff ff 	mov    %rax,-0xc08(%rbp)
   11931:	48 8d 85 c6 e2 ff ff 	lea    -0x1d3a(%rbp),%rax
   11938:	48 89 85 00 f4 ff ff 	mov    %rax,-0xc00(%rbp)
   1193f:	48 c7 85 08 f4 ff ff 	movq   $0x0,-0xbf8(%rbp)
   11946:	00 00 00 00 
   1194a:	48 8d 85 c6 e2 ff ff 	lea    -0x1d3a(%rbp),%rax
   11951:	48 89 85 10 f4 ff ff 	mov    %rax,-0xbf0(%rbp)
   11958:	48 8d 85 c4 e2 ff ff 	lea    -0x1d3c(%rbp),%rax
   1195f:	48 89 85 18 f4 ff ff 	mov    %rax,-0xbe8(%rbp)
   11966:	48 8d 85 c6 e2 ff ff 	lea    -0x1d3a(%rbp),%rax
   1196d:	48 89 85 20 f4 ff ff 	mov    %rax,-0xbe0(%rbp)
   11974:	48 8d 85 c6 e2 ff ff 	lea    -0x1d3a(%rbp),%rax
   1197b:	48 89 85 28 f4 ff ff 	mov    %rax,-0xbd8(%rbp)
   11982:	48 8d 85 f8 e5 ff ff 	lea    -0x1a08(%rbp),%rax
   11989:	48 83 c0 04          	add    $0x4,%rax
   1198d:	48 89 85 30 f4 ff ff 	mov    %rax,-0xbd0(%rbp)
   11994:	48 c7 85 38 f4 ff ff 	movq   $0x0,-0xbc8(%rbp)
   1199b:	00 00 00 00 
   1199f:	48 8d 85 f8 e5 ff ff 	lea    -0x1a08(%rbp),%rax
   119a6:	48 83 c0 04          	add    $0x4,%rax
   119aa:	48 89 85 40 f4 ff ff 	mov    %rax,-0xbc0(%rbp)
   119b1:	48 8d 85 c4 e2 ff ff 	lea    -0x1d3c(%rbp),%rax
   119b8:	48 89 85 48 f4 ff ff 	mov    %rax,-0xbb8(%rbp)
   119bf:	48 8d 85 f8 e5 ff ff 	lea    -0x1a08(%rbp),%rax
   119c6:	48 89 85 50 f4 ff ff 	mov    %rax,-0xbb0(%rbp)
   119cd:	48 8d 85 f8 e5 ff ff 	lea    -0x1a08(%rbp),%rax
   119d4:	48 83 c0 06          	add    $0x6,%rax
   119d8:	48 89 85 58 f4 ff ff 	mov    %rax,-0xba8(%rbp)
   119df:	48 8d 85 f8 e5 ff ff 	lea    -0x1a08(%rbp),%rax
   119e6:	48 83 c0 06          	add    $0x6,%rax
   119ea:	48 89 85 60 f4 ff ff 	mov    %rax,-0xba0(%rbp)
   119f1:	48 8d 85 c4 e2 ff ff 	lea    -0x1d3c(%rbp),%rax
   119f8:	48 89 85 68 f4 ff ff 	mov    %rax,-0xb98(%rbp)
   119ff:	48 c7 85 70 f4 ff ff 	movq   $0x0,-0xb90(%rbp)
   11a06:	00 00 00 00 
   11a0a:	48 8d 85 c6 e2 ff ff 	lea    -0x1d3a(%rbp),%rax
   11a11:	48 89 85 78 f4 ff ff 	mov    %rax,-0xb88(%rbp)
   11a18:	48 8d 85 f8 e5 ff ff 	lea    -0x1a08(%rbp),%rax
   11a1f:	48 83 c0 04          	add    $0x4,%rax
   11a23:	48 89 85 80 f4 ff ff 	mov    %rax,-0xb80(%rbp)
   11a2a:	48 8d 85 c4 e2 ff ff 	lea    -0x1d3c(%rbp),%rax
   11a31:	48 89 85 88 f4 ff ff 	mov    %rax,-0xb78(%rbp)
   11a38:	48 8d 85 c4 e2 ff ff 	lea    -0x1d3c(%rbp),%rax
   11a3f:	48 89 85 90 f4 ff ff 	mov    %rax,-0xb70(%rbp)
   11a46:	48 8d 85 f8 e5 ff ff 	lea    -0x1a08(%rbp),%rax
   11a4d:	48 83 c0 06          	add    $0x6,%rax
   11a51:	48 89 85 98 f4 ff ff 	mov    %rax,-0xb68(%rbp)
   11a58:	48 8d 85 c6 e2 ff ff 	lea    -0x1d3a(%rbp),%rax
   11a5f:	48 89 85 a0 f4 ff ff 	mov    %rax,-0xb60(%rbp)
   11a66:	48 8d 85 f8 e5 ff ff 	lea    -0x1a08(%rbp),%rax
   11a6d:	48 83 c0 04          	add    $0x4,%rax
   11a71:	48 89 85 a8 f4 ff ff 	mov    %rax,-0xb58(%rbp)
   11a78:	48 8d 85 f8 e5 ff ff 	lea    -0x1a08(%rbp),%rax
   11a7f:	48 83 c0 04          	add    $0x4,%rax
   11a83:	48 89 85 b0 f4 ff ff 	mov    %rax,-0xb50(%rbp)
   11a8a:	48 8d 85 c6 e2 ff ff 	lea    -0x1d3a(%rbp),%rax
   11a91:	48 89 85 b8 f4 ff ff 	mov    %rax,-0xb48(%rbp)
   11a98:	48 8d 85 c4 e2 ff ff 	lea    -0x1d3c(%rbp),%rax
   11a9f:	48 89 85 c0 f4 ff ff 	mov    %rax,-0xb40(%rbp)
   11aa6:	48 c7 85 c8 f4 ff ff 	movq   $0x0,-0xb38(%rbp)
   11aad:	00 00 00 00 
   11ab1:	48 c7 85 d0 f4 ff ff 	movq   $0x0,-0xb30(%rbp)
   11ab8:	00 00 00 00 
   11abc:	48 c7 85 d8 f4 ff ff 	movq   $0x0,-0xb28(%rbp)
   11ac3:	00 00 00 00 
   11ac7:	48 8d 85 c6 e2 ff ff 	lea    -0x1d3a(%rbp),%rax
   11ace:	48 89 85 e0 f4 ff ff 	mov    %rax,-0xb20(%rbp)
   11ad5:	48 8d 85 f8 e5 ff ff 	lea    -0x1a08(%rbp),%rax
   11adc:	48 83 c0 04          	add    $0x4,%rax
   11ae0:	48 89 85 e8 f4 ff ff 	mov    %rax,-0xb18(%rbp)
   11ae7:	48 8d 85 f8 e5 ff ff 	lea    -0x1a08(%rbp),%rax
   11aee:	48 83 c0 04          	add    $0x4,%rax
   11af2:	48 89 85 f0 f4 ff ff 	mov    %rax,-0xb10(%rbp)
   11af9:	48 c7 85 f8 f4 ff ff 	movq   $0x0,-0xb08(%rbp)
   11b00:	00 00 00 00 
   11b04:	48 8d 85 f8 e5 ff ff 	lea    -0x1a08(%rbp),%rax
   11b0b:	48 89 85 00 f5 ff ff 	mov    %rax,-0xb00(%rbp)
   11b12:	48 c7 85 08 f5 ff ff 	movq   $0x0,-0xaf8(%rbp)
   11b19:	00 00 00 00 
   11b1d:	48 8d 85 f8 e5 ff ff 	lea    -0x1a08(%rbp),%rax
   11b24:	48 83 c0 06          	add    $0x6,%rax
   11b28:	48 89 85 10 f5 ff ff 	mov    %rax,-0xaf0(%rbp)
   11b2f:	48 8d 85 f8 e5 ff ff 	lea    -0x1a08(%rbp),%rax
   11b36:	48 83 c0 06          	add    $0x6,%rax
   11b3a:	48 89 85 18 f5 ff ff 	mov    %rax,-0xae8(%rbp)
   11b41:	48 c7 85 20 f5 ff ff 	movq   $0x0,-0xae0(%rbp)
   11b48:	00 00 00 00 
   11b4c:	48 8d 85 f8 e5 ff ff 	lea    -0x1a08(%rbp),%rax
   11b53:	48 83 c0 04          	add    $0x4,%rax
   11b57:	48 89 85 28 f5 ff ff 	mov    %rax,-0xad8(%rbp)
   11b5e:	48 8d 85 c6 e2 ff ff 	lea    -0x1d3a(%rbp),%rax
   11b65:	48 89 85 30 f5 ff ff 	mov    %rax,-0xad0(%rbp)
   11b6c:	48 8d 85 f8 e5 ff ff 	lea    -0x1a08(%rbp),%rax
   11b73:	48 83 c0 02          	add    $0x2,%rax
   11b77:	48 89 85 38 f5 ff ff 	mov    %rax,-0xac8(%rbp)
   11b7e:	48 8d 85 c4 e2 ff ff 	lea    -0x1d3c(%rbp),%rax
   11b85:	48 89 85 40 f5 ff ff 	mov    %rax,-0xac0(%rbp)
   11b8c:	48 c7 85 48 f5 ff ff 	movq   $0x0,-0xab8(%rbp)
   11b93:	00 00 00 00 
   11b97:	48 8d 85 c6 e2 ff ff 	lea    -0x1d3a(%rbp),%rax
   11b9e:	48 89 85 50 f5 ff ff 	mov    %rax,-0xab0(%rbp)
   11ba5:	48 8d 85 c4 e2 ff ff 	lea    -0x1d3c(%rbp),%rax
   11bac:	48 89 85 58 f5 ff ff 	mov    %rax,-0xaa8(%rbp)
   11bb3:	48 c7 85 60 f5 ff ff 	movq   $0x0,-0xaa0(%rbp)
   11bba:	00 00 00 00 
   11bbe:	48 8d 85 c6 e2 ff ff 	lea    -0x1d3a(%rbp),%rax
   11bc5:	48 89 85 68 f5 ff ff 	mov    %rax,-0xa98(%rbp)
   11bcc:	48 c7 85 70 f5 ff ff 	movq   $0x0,-0xa90(%rbp)
   11bd3:	00 00 00 00 
   11bd7:	48 8d 85 c4 e2 ff ff 	lea    -0x1d3c(%rbp),%rax
   11bde:	48 89 85 78 f5 ff ff 	mov    %rax,-0xa88(%rbp)
   11be5:	48 8d 85 c6 e2 ff ff 	lea    -0x1d3a(%rbp),%rax
   11bec:	48 89 85 80 f5 ff ff 	mov    %rax,-0xa80(%rbp)
   11bf3:	48 c7 85 88 f5 ff ff 	movq   $0x0,-0xa78(%rbp)
   11bfa:	00 00 00 00 
   11bfe:	48 8d 85 c4 e2 ff ff 	lea    -0x1d3c(%rbp),%rax
   11c05:	48 89 85 90 f5 ff ff 	mov    %rax,-0xa70(%rbp)
   11c0c:	48 8d 85 f8 e5 ff ff 	lea    -0x1a08(%rbp),%rax
   11c13:	48 83 c0 02          	add    $0x2,%rax
   11c17:	48 89 85 98 f5 ff ff 	mov    %rax,-0xa68(%rbp)
   11c1e:	48 8d 85 c6 e2 ff ff 	lea    -0x1d3a(%rbp),%rax
   11c25:	48 89 85 a0 f5 ff ff 	mov    %rax,-0xa60(%rbp)
   11c2c:	48 8d 85 f8 e5 ff ff 	lea    -0x1a08(%rbp),%rax
   11c33:	48 83 c0 04          	add    $0x4,%rax
   11c37:	48 89 85 a8 f5 ff ff 	mov    %rax,-0xa58(%rbp)
   11c3e:	48 c7 85 b0 f5 ff ff 	movq   $0x0,-0xa50(%rbp)
   11c45:	00 00 00 00 
   11c49:	48 8d 85 f8 e5 ff ff 	lea    -0x1a08(%rbp),%rax
   11c50:	48 83 c0 06          	add    $0x6,%rax
   11c54:	48 89 85 b8 f5 ff ff 	mov    %rax,-0xa48(%rbp)
   11c5b:	48 8d 85 f8 e5 ff ff 	lea    -0x1a08(%rbp),%rax
   11c62:	48 83 c0 06          	add    $0x6,%rax
   11c66:	48 89 85 c0 f5 ff ff 	mov    %rax,-0xa40(%rbp)
   11c6d:	48 c7 85 c8 f5 ff ff 	movq   $0x0,-0xa38(%rbp)
   11c74:	00 00 00 00 
   11c78:	48 8d 85 f8 e5 ff ff 	lea    -0x1a08(%rbp),%rax
   11c7f:	48 89 85 d0 f5 ff ff 	mov    %rax,-0xa30(%rbp)
   11c86:	48 c7 85 d8 f5 ff ff 	movq   $0x0,-0xa28(%rbp)
   11c8d:	00 00 00 00 
   11c91:	48 8d 85 f8 e5 ff ff 	lea    -0x1a08(%rbp),%rax
   11c98:	48 83 c0 04          	add    $0x4,%rax
   11c9c:	48 89 85 e0 f5 ff ff 	mov    %rax,-0xa20(%rbp)
   11ca3:	48 8d 85 f8 e5 ff ff 	lea    -0x1a08(%rbp),%rax
   11caa:	48 83 c0 04          	add    $0x4,%rax
   11cae:	48 89 85 e8 f5 ff ff 	mov    %rax,-0xa18(%rbp)
   11cb5:	48 8d 85 c6 e2 ff ff 	lea    -0x1d3a(%rbp),%rax
   11cbc:	48 89 85 f0 f5 ff ff 	mov    %rax,-0xa10(%rbp)
   11cc3:	48 c7 85 f8 f5 ff ff 	movq   $0x0,-0xa08(%rbp)
   11cca:	00 00 00 00 
   11cce:	48 c7 85 00 f6 ff ff 	movq   $0x0,-0xa00(%rbp)
   11cd5:	00 00 00 00 
   11cd9:	48 c7 85 08 f6 ff ff 	movq   $0x0,-0x9f8(%rbp)
   11ce0:	00 00 00 00 
   11ce4:	48 8d 85 c4 e2 ff ff 	lea    -0x1d3c(%rbp),%rax
   11ceb:	48 89 85 10 f6 ff ff 	mov    %rax,-0x9f0(%rbp)
   11cf2:	48 8d 85 c6 e2 ff ff 	lea    -0x1d3a(%rbp),%rax
   11cf9:	48 89 85 18 f6 ff ff 	mov    %rax,-0x9e8(%rbp)
   11d00:	48 8d 85 f8 e5 ff ff 	lea    -0x1a08(%rbp),%rax
   11d07:	48 83 c0 04          	add    $0x4,%rax
   11d0b:	48 89 85 20 f6 ff ff 	mov    %rax,-0x9e0(%rbp)
   11d12:	48 8d 85 f8 e5 ff ff 	lea    -0x1a08(%rbp),%rax
   11d19:	48 83 c0 04          	add    $0x4,%rax
   11d1d:	48 89 85 28 f6 ff ff 	mov    %rax,-0x9d8(%rbp)
   11d24:	48 8d 85 c6 e2 ff ff 	lea    -0x1d3a(%rbp),%rax
   11d2b:	48 89 85 30 f6 ff ff 	mov    %rax,-0x9d0(%rbp)
   11d32:	48 8d 85 f8 e5 ff ff 	lea    -0x1a08(%rbp),%rax
   11d39:	48 83 c0 06          	add    $0x6,%rax
   11d3d:	48 89 85 38 f6 ff ff 	mov    %rax,-0x9c8(%rbp)
   11d44:	48 8d 85 c4 e2 ff ff 	lea    -0x1d3c(%rbp),%rax
   11d4b:	48 89 85 40 f6 ff ff 	mov    %rax,-0x9c0(%rbp)
   11d52:	48 8d 85 c4 e2 ff ff 	lea    -0x1d3c(%rbp),%rax
   11d59:	48 89 85 48 f6 ff ff 	mov    %rax,-0x9b8(%rbp)
   11d60:	48 8d 85 f8 e5 ff ff 	lea    -0x1a08(%rbp),%rax
   11d67:	48 83 c0 04          	add    $0x4,%rax
   11d6b:	48 89 85 50 f6 ff ff 	mov    %rax,-0x9b0(%rbp)
   11d72:	48 8d 85 c6 e2 ff ff 	lea    -0x1d3a(%rbp),%rax
   11d79:	48 89 85 58 f6 ff ff 	mov    %rax,-0x9a8(%rbp)
   11d80:	48 c7 85 60 f6 ff ff 	movq   $0x0,-0x9a0(%rbp)
   11d87:	00 00 00 00 
   11d8b:	48 8d 85 c4 e2 ff ff 	lea    -0x1d3c(%rbp),%rax
   11d92:	48 89 85 68 f6 ff ff 	mov    %rax,-0x998(%rbp)
   11d99:	48 8d 85 c6 e2 ff ff 	lea    -0x1d3a(%rbp),%rax
   11da0:	48 89 85 70 f6 ff ff 	mov    %rax,-0x990(%rbp)
   11da7:	48 8d 85 f8 e5 ff ff 	lea    -0x1a08(%rbp),%rax
   11dae:	48 83 c0 02          	add    $0x2,%rax
   11db2:	48 89 85 78 f6 ff ff 	mov    %rax,-0x988(%rbp)
   11db9:	48 8d 85 f8 e5 ff ff 	lea    -0x1a08(%rbp),%rax
   11dc0:	48 83 c0 04          	add    $0x4,%rax
   11dc4:	48 89 85 80 f6 ff ff 	mov    %rax,-0x980(%rbp)
   11dcb:	48 8d 85 f8 e5 ff ff 	lea    -0x1a08(%rbp),%rax
   11dd2:	48 83 c0 04          	add    $0x4,%rax
   11dd6:	48 89 85 88 f6 ff ff 	mov    %rax,-0x978(%rbp)
   11ddd:	48 c7 85 90 f6 ff ff 	movq   $0x0,-0x970(%rbp)
   11de4:	00 00 00 00 
   11de8:	48 8d 85 f8 e5 ff ff 	lea    -0x1a08(%rbp),%rax
   11def:	48 83 c0 02          	add    $0x2,%rax
   11df3:	48 89 85 98 f6 ff ff 	mov    %rax,-0x968(%rbp)
   11dfa:	48 8d 85 f8 e5 ff ff 	lea    -0x1a08(%rbp),%rax
   11e01:	48 83 c0 04          	add    $0x4,%rax
   11e05:	48 89 85 a0 f6 ff ff 	mov    %rax,-0x960(%rbp)
   11e0c:	48 8d 85 c6 e2 ff ff 	lea    -0x1d3a(%rbp),%rax
   11e13:	48 89 85 a8 f6 ff ff 	mov    %rax,-0x958(%rbp)
   11e1a:	48 c7 85 b0 f6 ff ff 	movq   $0x0,-0x950(%rbp)
   11e21:	00 00 00 00 
   11e25:	48 8d 85 f8 e5 ff ff 	lea    -0x1a08(%rbp),%rax
   11e2c:	48 83 c0 04          	add    $0x4,%rax
   11e30:	48 89 85 b8 f6 ff ff 	mov    %rax,-0x948(%rbp)
   11e37:	48 c7 85 c0 f6 ff ff 	movq   $0x0,-0x940(%rbp)
   11e3e:	00 00 00 00 
   11e42:	48 8d 85 c6 e2 ff ff 	lea    -0x1d3a(%rbp),%rax
   11e49:	48 89 85 c8 f6 ff ff 	mov    %rax,-0x938(%rbp)
   11e50:	48 8d 85 f8 e5 ff ff 	lea    -0x1a08(%rbp),%rax
   11e57:	48 83 c0 04          	add    $0x4,%rax
   11e5b:	48 89 85 d0 f6 ff ff 	mov    %rax,-0x930(%rbp)
   11e62:	48 8d 85 f8 e5 ff ff 	lea    -0x1a08(%rbp),%rax
   11e69:	48 83 c0 06          	add    $0x6,%rax
   11e6d:	48 89 85 d8 f6 ff ff 	mov    %rax,-0x928(%rbp)
   11e74:	48 8d 85 f8 e5 ff ff 	lea    -0x1a08(%rbp),%rax
   11e7b:	48 83 c0 04          	add    $0x4,%rax
   11e7f:	48 89 85 e0 f6 ff ff 	mov    %rax,-0x920(%rbp)
   11e86:	48 8d 85 c4 e2 ff ff 	lea    -0x1d3c(%rbp),%rax
   11e8d:	48 89 85 e8 f6 ff ff 	mov    %rax,-0x918(%rbp)
   11e94:	48 8d 85 c6 e2 ff ff 	lea    -0x1d3a(%rbp),%rax
   11e9b:	48 89 85 f0 f6 ff ff 	mov    %rax,-0x910(%rbp)
   11ea2:	48 8d 85 c6 e2 ff ff 	lea    -0x1d3a(%rbp),%rax
   11ea9:	48 89 85 f8 f6 ff ff 	mov    %rax,-0x908(%rbp)
   11eb0:	48 c7 85 00 f7 ff ff 	movq   $0x0,-0x900(%rbp)
   11eb7:	00 00 00 00 
   11ebb:	48 c7 85 08 f7 ff ff 	movq   $0x0,-0x8f8(%rbp)
   11ec2:	00 00 00 00 
   11ec6:	48 8d 85 f8 e5 ff ff 	lea    -0x1a08(%rbp),%rax
   11ecd:	48 83 c0 04          	add    $0x4,%rax
   11ed1:	48 89 85 10 f7 ff ff 	mov    %rax,-0x8f0(%rbp)
   11ed8:	48 c7 85 18 f7 ff ff 	movq   $0x0,-0x8e8(%rbp)
   11edf:	00 00 00 00 
   11ee3:	48 8d 85 c4 e2 ff ff 	lea    -0x1d3c(%rbp),%rax
   11eea:	48 89 85 20 f7 ff ff 	mov    %rax,-0x8e0(%rbp)
   11ef1:	48 8d 85 f8 e5 ff ff 	lea    -0x1a08(%rbp),%rax
   11ef8:	48 83 c0 04          	add    $0x4,%rax
   11efc:	48 89 85 28 f7 ff ff 	mov    %rax,-0x8d8(%rbp)
   11f03:	48 8d 85 f8 e5 ff ff 	lea    -0x1a08(%rbp),%rax
   11f0a:	48 83 c0 04          	add    $0x4,%rax
   11f0e:	48 89 85 30 f7 ff ff 	mov    %rax,-0x8d0(%rbp)
   11f15:	48 8d 85 f8 e5 ff ff 	lea    -0x1a08(%rbp),%rax
   11f1c:	48 83 c0 04          	add    $0x4,%rax
   11f20:	48 89 85 38 f7 ff ff 	mov    %rax,-0x8c8(%rbp)
   11f27:	48 c7 85 40 f7 ff ff 	movq   $0x0,-0x8c0(%rbp)
   11f2e:	00 00 00 00 
   11f32:	48 c7 85 48 f7 ff ff 	movq   $0x0,-0x8b8(%rbp)
   11f39:	00 00 00 00 
   11f3d:	48 c7 85 50 f7 ff ff 	movq   $0x0,-0x8b0(%rbp)
   11f44:	00 00 00 00 
   11f48:	48 c7 85 58 f7 ff ff 	movq   $0x0,-0x8a8(%rbp)
   11f4f:	00 00 00 00 
   11f53:	48 8d 85 f8 e5 ff ff 	lea    -0x1a08(%rbp),%rax
   11f5a:	48 89 85 60 f7 ff ff 	mov    %rax,-0x8a0(%rbp)
   11f61:	48 8d 85 c6 e2 ff ff 	lea    -0x1d3a(%rbp),%rax
   11f68:	48 89 85 68 f7 ff ff 	mov    %rax,-0x898(%rbp)
   11f6f:	48 8d 85 f8 e5 ff ff 	lea    -0x1a08(%rbp),%rax
   11f76:	48 83 c0 04          	add    $0x4,%rax
   11f7a:	48 89 85 70 f7 ff ff 	mov    %rax,-0x890(%rbp)
   11f81:	48 c7 85 78 f7 ff ff 	movq   $0x0,-0x888(%rbp)
   11f88:	00 00 00 00 
   11f8c:	48 8d 85 f8 e5 ff ff 	lea    -0x1a08(%rbp),%rax
   11f93:	48 83 c0 06          	add    $0x6,%rax
   11f97:	48 89 85 80 f7 ff ff 	mov    %rax,-0x880(%rbp)
   11f9e:	48 8d 85 f8 e5 ff ff 	lea    -0x1a08(%rbp),%rax
   11fa5:	48 83 c0 04          	add    $0x4,%rax
   11fa9:	48 89 85 88 f7 ff ff 	mov    %rax,-0x878(%rbp)
   11fb0:	48 8d 85 c6 e2 ff ff 	lea    -0x1d3a(%rbp),%rax
   11fb7:	48 89 85 90 f7 ff ff 	mov    %rax,-0x870(%rbp)
   11fbe:	48 8d 85 c4 e2 ff ff 	lea    -0x1d3c(%rbp),%rax
   11fc5:	48 89 85 98 f7 ff ff 	mov    %rax,-0x868(%rbp)
   11fcc:	48 8d 85 f8 e5 ff ff 	lea    -0x1a08(%rbp),%rax
   11fd3:	48 83 c0 06          	add    $0x6,%rax
   11fd7:	48 89 85 a0 f7 ff ff 	mov    %rax,-0x860(%rbp)
   11fde:	48 8d 85 f8 e5 ff ff 	lea    -0x1a08(%rbp),%rax
   11fe5:	48 83 c0 04          	add    $0x4,%rax
   11fe9:	48 89 85 a8 f7 ff ff 	mov    %rax,-0x858(%rbp)
   11ff0:	48 8d 85 f8 e5 ff ff 	lea    -0x1a08(%rbp),%rax
   11ff7:	48 83 c0 04          	add    $0x4,%rax
   11ffb:	48 89 85 b0 f7 ff ff 	mov    %rax,-0x850(%rbp)
   12002:	48 8d 85 c4 e2 ff ff 	lea    -0x1d3c(%rbp),%rax
   12009:	48 89 85 b8 f7 ff ff 	mov    %rax,-0x848(%rbp)
   12010:	48 8d 85 c4 e2 ff ff 	lea    -0x1d3c(%rbp),%rax
   12017:	48 89 85 c0 f7 ff ff 	mov    %rax,-0x840(%rbp)
   1201e:	48 8d 85 c4 e2 ff ff 	lea    -0x1d3c(%rbp),%rax
   12025:	48 89 85 c8 f7 ff ff 	mov    %rax,-0x838(%rbp)
   1202c:	48 8d 85 f8 e5 ff ff 	lea    -0x1a08(%rbp),%rax
   12033:	48 83 c0 06          	add    $0x6,%rax
   12037:	48 89 85 d0 f7 ff ff 	mov    %rax,-0x830(%rbp)
   1203e:	48 c7 85 d8 f7 ff ff 	movq   $0x0,-0x828(%rbp)
   12045:	00 00 00 00 
   12049:	48 8d 85 c6 e2 ff ff 	lea    -0x1d3a(%rbp),%rax
   12050:	48 89 85 e0 f7 ff ff 	mov    %rax,-0x820(%rbp)
   12057:	48 c7 85 e8 f7 ff ff 	movq   $0x0,-0x818(%rbp)
   1205e:	00 00 00 00 
   12062:	48 8d 85 f8 e5 ff ff 	lea    -0x1a08(%rbp),%rax
   12069:	48 83 c0 06          	add    $0x6,%rax
   1206d:	48 89 85 f0 f7 ff ff 	mov    %rax,-0x810(%rbp)
   12074:	48 8d 85 c4 e2 ff ff 	lea    -0x1d3c(%rbp),%rax
   1207b:	48 89 85 f8 f7 ff ff 	mov    %rax,-0x808(%rbp)
   12082:	48 8d 85 c4 e2 ff ff 	lea    -0x1d3c(%rbp),%rax
   12089:	48 89 85 00 f8 ff ff 	mov    %rax,-0x800(%rbp)
   12090:	48 8d 85 c4 e2 ff ff 	lea    -0x1d3c(%rbp),%rax
   12097:	48 89 85 08 f8 ff ff 	mov    %rax,-0x7f8(%rbp)
   1209e:	48 8d 85 f8 e5 ff ff 	lea    -0x1a08(%rbp),%rax
   120a5:	48 83 c0 04          	add    $0x4,%rax
   120a9:	48 89 85 10 f8 ff ff 	mov    %rax,-0x7f0(%rbp)
   120b0:	48 8d 85 f8 e5 ff ff 	lea    -0x1a08(%rbp),%rax
   120b7:	48 83 c0 04          	add    $0x4,%rax
   120bb:	48 89 85 18 f8 ff ff 	mov    %rax,-0x7e8(%rbp)
   120c2:	48 8d 85 f8 e5 ff ff 	lea    -0x1a08(%rbp),%rax
   120c9:	48 83 c0 06          	add    $0x6,%rax
   120cd:	48 89 85 20 f8 ff ff 	mov    %rax,-0x7e0(%rbp)
   120d4:	48 8d 85 c4 e2 ff ff 	lea    -0x1d3c(%rbp),%rax
   120db:	48 89 85 28 f8 ff ff 	mov    %rax,-0x7d8(%rbp)
   120e2:	48 8d 85 c6 e2 ff ff 	lea    -0x1d3a(%rbp),%rax
   120e9:	48 89 85 30 f8 ff ff 	mov    %rax,-0x7d0(%rbp)
   120f0:	48 8d 85 f8 e5 ff ff 	lea    -0x1a08(%rbp),%rax
   120f7:	48 83 c0 04          	add    $0x4,%rax
   120fb:	48 89 85 38 f8 ff ff 	mov    %rax,-0x7c8(%rbp)
   12102:	48 8d 85 f8 e5 ff ff 	lea    -0x1a08(%rbp),%rax
   12109:	48 83 c0 06          	add    $0x6,%rax
   1210d:	48 89 85 40 f8 ff ff 	mov    %rax,-0x7c0(%rbp)
   12114:	48 c7 85 48 f8 ff ff 	movq   $0x0,-0x7b8(%rbp)
   1211b:	00 00 00 00 
   1211f:	48 8d 85 f8 e5 ff ff 	lea    -0x1a08(%rbp),%rax
   12126:	48 83 c0 04          	add    $0x4,%rax
   1212a:	48 89 85 50 f8 ff ff 	mov    %rax,-0x7b0(%rbp)
   12131:	48 8d 85 c6 e2 ff ff 	lea    -0x1d3a(%rbp),%rax
   12138:	48 89 85 58 f8 ff ff 	mov    %rax,-0x7a8(%rbp)
   1213f:	48 8d 85 f8 e5 ff ff 	lea    -0x1a08(%rbp),%rax
   12146:	48 89 85 60 f8 ff ff 	mov    %rax,-0x7a0(%rbp)
   1214d:	48 c7 85 68 f8 ff ff 	movq   $0x0,-0x798(%rbp)
   12154:	00 00 00 00 
   12158:	48 c7 85 70 f8 ff ff 	movq   $0x0,-0x790(%rbp)
   1215f:	00 00 00 00 
   12163:	48 c7 85 78 f8 ff ff 	movq   $0x0,-0x788(%rbp)
   1216a:	00 00 00 00 
   1216e:	48 c7 85 80 f8 ff ff 	movq   $0x0,-0x780(%rbp)
   12175:	00 00 00 00 
   12179:	48 8d 85 f8 e5 ff ff 	lea    -0x1a08(%rbp),%rax
   12180:	48 83 c0 04          	add    $0x4,%rax
   12184:	48 89 85 88 f8 ff ff 	mov    %rax,-0x778(%rbp)
   1218b:	48 8d 85 f8 e5 ff ff 	lea    -0x1a08(%rbp),%rax
   12192:	48 83 c0 04          	add    $0x4,%rax
   12196:	48 89 85 90 f8 ff ff 	mov    %rax,-0x770(%rbp)
   1219d:	48 8d 85 f8 e5 ff ff 	lea    -0x1a08(%rbp),%rax
   121a4:	48 83 c0 04          	add    $0x4,%rax
   121a8:	48 89 85 98 f8 ff ff 	mov    %rax,-0x768(%rbp)
   121af:	48 8d 85 c4 e2 ff ff 	lea    -0x1d3c(%rbp),%rax
   121b6:	48 89 85 a0 f8 ff ff 	mov    %rax,-0x760(%rbp)
   121bd:	48 c7 85 a8 f8 ff ff 	movq   $0x0,-0x758(%rbp)
   121c4:	00 00 00 00 
   121c8:	48 8d 85 f8 e5 ff ff 	lea    -0x1a08(%rbp),%rax
   121cf:	48 83 c0 04          	add    $0x4,%rax
   121d3:	48 89 85 b0 f8 ff ff 	mov    %rax,-0x750(%rbp)
   121da:	48 c7 85 b8 f8 ff ff 	movq   $0x0,-0x748(%rbp)
   121e1:	00 00 00 00 
   121e5:	48 c7 85 c0 f8 ff ff 	movq   $0x0,-0x740(%rbp)
   121ec:	00 00 00 00 
   121f0:	48 8d 85 c6 e2 ff ff 	lea    -0x1d3a(%rbp),%rax
   121f7:	48 89 85 c8 f8 ff ff 	mov    %rax,-0x738(%rbp)
   121fe:	48 8d 85 c6 e2 ff ff 	lea    -0x1d3a(%rbp),%rax
   12205:	48 89 85 d0 f8 ff ff 	mov    %rax,-0x730(%rbp)
   1220c:	48 8d 85 c4 e2 ff ff 	lea    -0x1d3c(%rbp),%rax
   12213:	48 89 85 d8 f8 ff ff 	mov    %rax,-0x728(%rbp)
   1221a:	48 8d 85 f8 e5 ff ff 	lea    -0x1a08(%rbp),%rax
   12221:	48 83 c0 04          	add    $0x4,%rax
   12225:	48 89 85 e0 f8 ff ff 	mov    %rax,-0x720(%rbp)
   1222c:	48 8d 85 f8 e5 ff ff 	lea    -0x1a08(%rbp),%rax
   12233:	48 83 c0 06          	add    $0x6,%rax
   12237:	48 89 85 e8 f8 ff ff 	mov    %rax,-0x718(%rbp)
   1223e:	48 8d 85 f8 e5 ff ff 	lea    -0x1a08(%rbp),%rax
   12245:	48 83 c0 04          	add    $0x4,%rax
   12249:	48 89 85 f0 f8 ff ff 	mov    %rax,-0x710(%rbp)
   12250:	48 8d 85 c6 e2 ff ff 	lea    -0x1d3a(%rbp),%rax
   12257:	48 89 85 f8 f8 ff ff 	mov    %rax,-0x708(%rbp)
   1225e:	48 8b 05 9b 08 01 00 	mov    0x1089b(%rip),%rax        # 22b00 <g_1066>
   12265:	8b 00                	mov    (%rax),%eax
   12267:	85 c0                	test   %eax,%eax
   12269:	0f 85 2b 02 00 00    	jne    1249a <func_27+0x26a8>
   1226f:	8b 85 f0 e5 ff ff    	mov    -0x1a10(%rbp),%eax
   12275:	85 c0                	test   %eax,%eax
   12277:	0f 85 fc 01 00 00    	jne    12479 <func_27+0x2687>
   1227d:	48 8b 05 8c 08 01 00 	mov    0x1088c(%rip),%rax        # 22b10 <g_1089>
   12284:	48 89 85 60 e4 ff ff 	mov    %rax,-0x1ba0(%rbp)
   1228b:	48 8b 85 60 e4 ff ff 	mov    -0x1ba0(%rbp),%rax
   12292:	48 89 05 77 08 01 00 	mov    %rax,0x10877(%rip)        # 22b10 <g_1089>
   12299:	0f b7 85 a8 e2 ff ff 	movzwl -0x1d58(%rbp),%eax
   122a0:	0f b6 d8             	movzbl %al,%ebx
   122a3:	44 0f b6 a5 a0 e2 ff 	movzbl -0x1d60(%rbp),%r12d
   122aa:	ff 
   122ab:	8b 85 a4 e2 ff ff    	mov    -0x1d5c(%rbp),%eax
   122b1:	44 0f bf e8          	movswl %ax,%r13d
   122b5:	48 8b 05 44 00 01 00 	mov    0x10044(%rip),%rax        # 22300 <g_496>
   122bc:	0f b7 00             	movzwl (%rax),%eax
   122bf:	44 0f b7 f0          	movzwl %ax,%r14d
   122c3:	48 8b 85 08 e4 ff ff 	mov    -0x1bf8(%rbp),%rax
   122ca:	48 8b 00             	mov    (%rax),%rax
   122cd:	48 8b 00             	mov    (%rax),%rax
   122d0:	8b 00                	mov    (%rax),%eax
   122d2:	41 89 c7             	mov    %eax,%r15d
   122d5:	80 bd ac e2 ff ff 00 	cmpb   $0x0,-0x1d54(%rbp)
   122dc:	75 56                	jne    12334 <func_27+0x2542>
   122de:	48 8b 05 bb 07 01 00 	mov    0x107bb(%rip),%rax        # 22aa0 <g_549>
   122e5:	0f b7 10             	movzwl (%rax),%edx
   122e8:	83 ea 01             	sub    $0x1,%edx
   122eb:	66 89 10             	mov    %dx,(%rax)
   122ee:	8b 85 5c e8 ff ff    	mov    -0x17a4(%rbp),%eax
   122f4:	3d 4a f1 00 00       	cmp    $0xf14a,%eax
   122f9:	0f 96 c0             	setbe  %al
   122fc:	0f b6 c0             	movzbl %al,%eax
   122ff:	be ff ff ff ff       	mov    $0xffffffff,%esi
   12304:	89 c7                	mov    %eax,%edi
   12306:	e8 26 8f ff ff       	callq  b231 <safe_mod_func_int8_t_s_s>
   1230b:	84 c0                	test   %al,%al
   1230d:	75 0f                	jne    1231e <func_27+0x252c>
   1230f:	48 8b 05 8a 07 01 00 	mov    0x1078a(%rip),%rax        # 22aa0 <g_549>
   12316:	0f b7 00             	movzwl (%rax),%eax
   12319:	66 85 c0             	test   %ax,%ax
   1231c:	74 07                	je     12325 <func_27+0x2533>
   1231e:	ba 01 00 00 00       	mov    $0x1,%edx
   12323:	eb 05                	jmp    1232a <func_27+0x2538>
   12325:	ba 00 00 00 00       	mov    $0x0,%edx
   1232a:	0f b7 85 a8 e2 ff ff 	movzwl -0x1d58(%rbp),%eax
   12331:	98                   	cwtl   
   12332:	39 c2                	cmp    %eax,%edx
   12334:	c6 85 c1 e2 ff ff 01 	movb   $0x1,-0x1d3f(%rbp)
   1233b:	0f b6 95 c1 e2 ff ff 	movzbl -0x1d3f(%rbp),%edx
   12342:	48 8b 05 97 ff 00 00 	mov    0xff97(%rip),%rax        # 222e0 <g_255>
   12349:	48 8b 00             	mov    (%rax),%rax
   1234c:	48 39 c2             	cmp    %rax,%rdx
   1234f:	0f 96 c0             	setbe  %al
   12352:	0f b6 d0             	movzbl %al,%edx
   12355:	8b 05 4d e2 00 00    	mov    0xe24d(%rip),%eax        # 205a8 <g_1121>
   1235b:	09 d0                	or     %edx,%eax
   1235d:	89 05 45 e2 00 00    	mov    %eax,0xe245(%rip)        # 205a8 <g_1121>
   12363:	8b 05 ff 27 01 00    	mov    0x127ff(%rip),%eax        # 24b68 <g_32>
   12369:	be ce 7d 21 54       	mov    $0x54217dce,%esi
   1236e:	89 c7                	mov    %eax,%edi
   12370:	e8 5b 9b ff ff       	callq  bed0 <safe_sub_func_uint32_t_u_u>
   12375:	b8 01 00 00 00       	mov    $0x1,%eax
   1237a:	21 85 20 e3 ff ff    	and    %eax,-0x1ce0(%rbp)
   12380:	48 8b 05 61 07 01 00 	mov    0x10761(%rip),%rax        # 22ae8 <g_942>
   12387:	48 8b 00             	mov    (%rax),%rax
   1238a:	48 8b 00             	mov    (%rax),%rax
   1238d:	48 8d 95 00 e6 ff ff 	lea    -0x1a00(%rbp),%rdx
   12394:	48 83 c2 10          	add    $0x10,%rdx
   12398:	48 39 d0             	cmp    %rdx,%rax
   1239b:	0f 95 c0             	setne  %al
   1239e:	0f b6 c0             	movzbl %al,%eax
   123a1:	be 0f d2 ff ff       	mov    $0xffffd20f,%esi
   123a6:	89 c7                	mov    %eax,%edi
   123a8:	e8 48 90 ff ff       	callq  b3f5 <safe_mul_func_int16_t_s_s>
   123ad:	89 c2                	mov    %eax,%edx
   123af:	48 8b 05 2a ff 00 00 	mov    0xff2a(%rip),%rax        # 222e0 <g_255>
   123b6:	48 0f bf d2          	movswq %dx,%rdx
   123ba:	48 89 10             	mov    %rdx,(%rax)
   123bd:	48 8b 00             	mov    (%rax),%rax
   123c0:	48 c7 c6 ff ff ff ff 	mov    $0xffffffffffffffff,%rsi
   123c7:	48 89 c7             	mov    %rax,%rdi
   123ca:	e8 e5 95 ff ff       	callq  b9b4 <safe_mod_func_int64_t_s_s>
   123cf:	0f b7 c0             	movzwl %ax,%eax
   123d2:	44 89 fe             	mov    %r15d,%esi
   123d5:	89 c7                	mov    %eax,%edi
   123d7:	e8 2a 9a ff ff       	callq  be06 <safe_lshift_func_uint16_t_u_u>
   123dc:	48 8b 95 e8 e5 ff ff 	mov    -0x1a18(%rbp),%rdx
   123e3:	48 8d 85 28 e4 ff ff 	lea    -0x1bd8(%rbp),%rax
   123ea:	48 39 c2             	cmp    %rax,%rdx
   123ed:	0f 95 c0             	setne  %al
   123f0:	0f b6 d0             	movzbl %al,%edx
   123f3:	8b 85 f8 e2 ff ff    	mov    -0x1d08(%rbp),%eax
   123f9:	09 d0                	or     %edx,%eax
   123fb:	89 85 f8 e2 ff ff    	mov    %eax,-0x1d08(%rbp)
   12401:	8b 85 f8 e2 ff ff    	mov    -0x1d08(%rbp),%eax
   12407:	0f b7 c0             	movzwl %ax,%eax
   1240a:	44 89 f6             	mov    %r14d,%esi
   1240d:	89 c7                	mov    %eax,%edi
   1240f:	e8 7a 99 ff ff       	callq  bd8e <safe_div_func_uint16_t_u_u>
   12414:	0f b7 c0             	movzwl %ax,%eax
   12417:	be 89 db 00 00       	mov    $0xdb89,%esi
   1241c:	89 c7                	mov    %eax,%edi
   1241e:	e8 39 99 ff ff       	callq  bd5c <safe_mod_func_uint16_t_u_u>
   12423:	83 f0 01             	xor    $0x1,%eax
   12426:	98                   	cwtl   
   12427:	44 89 ee             	mov    %r13d,%esi
   1242a:	89 c7                	mov    %eax,%edi
   1242c:	e8 e5 8f ff ff       	callq  b416 <safe_mod_func_int16_t_s_s>
   12431:	0f b6 c0             	movzbl %al,%eax
   12434:	44 89 e6             	mov    %r12d,%esi
   12437:	89 c7                	mov    %eax,%edi
   12439:	e8 70 97 ff ff       	callq  bbae <safe_mod_func_uint8_t_u_u>
   1243e:	0f b6 c0             	movzbl %al,%eax
   12441:	89 de                	mov    %ebx,%esi
   12443:	89 c7                	mov    %eax,%edi
   12445:	e8 2e 97 ff ff       	callq  bb78 <safe_sub_func_uint8_t_u_u>
   1244a:	89 c2                	mov    %eax,%edx
   1244c:	48 8b 05 4d fe 00 00 	mov    0xfe4d(%rip),%rax        # 222a0 <g_155>
   12453:	0f b6 d2             	movzbl %dl,%edx
   12456:	89 10                	mov    %edx,(%rax)
   12458:	8b 00                	mov    (%rax),%eax
   1245a:	48 98                	cltq   
   1245c:	48 89 85 b0 e4 ff ff 	mov    %rax,-0x1b50(%rbp)
   12463:	48 8b 8d b0 e4 ff ff 	mov    -0x1b50(%rbp),%rcx
   1246a:	48 8b 05 8f 06 01 00 	mov    0x1068f(%rip),%rax        # 22b00 <g_1066>
   12471:	8b 10                	mov    (%rax),%edx
   12473:	21 ca                	and    %ecx,%edx
   12475:	89 10                	mov    %edx,(%rax)
   12477:	eb 01                	jmp    1247a <func_27+0x2688>
   12479:	90                   	nop
   1247a:	8b 85 e8 e2 ff ff    	mov    -0x1d18(%rbp),%eax
   12480:	83 c0 01             	add    $0x1,%eax
   12483:	89 85 e8 e2 ff ff    	mov    %eax,-0x1d18(%rbp)
   12489:	8b 85 e8 e2 ff ff    	mov    -0x1d18(%rbp),%eax
   1248f:	83 f8 07             	cmp    $0x7,%eax
   12492:	0f 8f 5e f3 ff ff    	jg     117f6 <func_27+0x1a04>
   12498:	eb 01                	jmp    1249b <func_27+0x26a9>
   1249a:	90                   	nop
   1249b:	8b 85 fc e2 ff ff    	mov    -0x1d04(%rbp),%eax
   124a1:	0f b6 c0             	movzbl %al,%eax
   124a4:	be 01 00 00 00       	mov    $0x1,%esi
   124a9:	89 c7                	mov    %eax,%edi
   124ab:	e8 aa 96 ff ff       	callq  bb5a <safe_add_func_uint8_t_u_u>
   124b0:	0f b6 c0             	movzbl %al,%eax
   124b3:	89 85 fc e2 ff ff    	mov    %eax,-0x1d04(%rbp)
   124b9:	83 bd fc e2 ff ff 0f 	cmpl   $0xf,-0x1d04(%rbp)
   124c0:	0f 85 b7 e4 ff ff    	jne    1097d <func_27+0xb8b>
   124c6:	48 8b 05 e3 06 01 00 	mov    0x106e3(%rip),%rax        # 22bb0 <g_1131>
   124cd:	48 8d 95 08 e4 ff ff 	lea    -0x1bf8(%rbp),%rdx
   124d4:	48 89 10             	mov    %rdx,(%rax)
   124d7:	48 8b 85 20 e4 ff ff 	mov    -0x1be0(%rbp),%rax
   124de:	0f b6 10             	movzbl (%rax),%edx
   124e1:	83 c2 01             	add    $0x1,%edx
   124e4:	88 10                	mov    %dl,(%rax)
   124e6:	0f b6 00             	movzbl (%rax),%eax
   124e9:	0f b6 d8             	movzbl %al,%ebx
   124ec:	48 83 bd 60 e5 ff ff 	cmpq   $0x0,-0x1aa0(%rbp)
   124f3:	00 
   124f4:	0f 94 c0             	sete   %al
   124f7:	0f b6 c0             	movzbl %al,%eax
   124fa:	be 08 00 00 00       	mov    $0x8,%esi
   124ff:	89 c7                	mov    %eax,%edi
   12501:	e8 74 99 ff ff       	callq  be7a <safe_rshift_func_uint16_t_u_u>
   12506:	66 39 c3             	cmp    %ax,%bx
   12509:	0f 92 c0             	setb   %al
   1250c:	0f b6 d0             	movzbl %al,%edx
   1250f:	66 0f be 85 ac e2 ff 	movsbw -0x1d54(%rbp),%ax
   12516:	ff 
   12517:	31 d0                	xor    %edx,%eax
   12519:	0f b7 c0             	movzwl %ax,%eax
   1251c:	be 0c 00 00 00       	mov    $0xc,%esi
   12521:	89 c7                	mov    %eax,%edi
   12523:	e8 20 99 ff ff       	callq  be48 <safe_rshift_func_uint16_t_u_s>
   12528:	89 c2                	mov    %eax,%edx
   1252a:	48 8b 05 e7 05 01 00 	mov    0x105e7(%rip),%rax        # 22b18 <g_1130>
   12531:	48 8b 00             	mov    (%rax),%rax
   12534:	48 8b 00             	mov    (%rax),%rax
   12537:	0f b7 d2             	movzwl %dx,%edx
   1253a:	89 10                	mov    %edx,(%rax)
   1253c:	8b 85 e0 e2 ff ff    	mov    -0x1d20(%rbp),%eax
   12542:	be 02 00 00 00       	mov    $0x2,%esi
   12547:	89 c7                	mov    %eax,%edi
   12549:	e8 6a 99 ff ff       	callq  beb8 <safe_add_func_uint32_t_u_u>
   1254e:	89 85 e0 e2 ff ff    	mov    %eax,-0x1d20(%rbp)
   12554:	8b 85 e0 e2 ff ff    	mov    -0x1d20(%rbp),%eax
   1255a:	83 f8 10             	cmp    $0x10,%eax
   1255d:	0f 8f 21 e3 ff ff    	jg     10884 <func_27+0xa92>
   12563:	0f b6 95 a0 e2 ff ff 	movzbl -0x1d60(%rbp),%edx
   1256a:	80 bd a0 e2 ff ff 00 	cmpb   $0x0,-0x1d60(%rbp)
   12571:	0f 94 c0             	sete   %al
   12574:	0f b6 c0             	movzbl %al,%eax
   12577:	89 d6                	mov    %edx,%esi
   12579:	89 c7                	mov    %eax,%edi
   1257b:	e8 96 8e ff ff       	callq  b416 <safe_mod_func_int16_t_s_s>
   12580:	48 8b 95 b8 e4 ff ff 	mov    -0x1b48(%rbp),%rdx
   12587:	8b 12                	mov    (%rdx),%edx
   12589:	98                   	cwtl   
   1258a:	09 c2                	or     %eax,%edx
   1258c:	48 8b 85 b8 e4 ff ff 	mov    -0x1b48(%rbp),%rax
   12593:	89 10                	mov    %edx,(%rax)
   12595:	48 8b 95 10 e4 ff ff 	mov    -0x1bf0(%rbp),%rdx
   1259c:	48 8b 85 c0 e4 ff ff 	mov    -0x1b40(%rbp),%rax
   125a3:	48 89 10             	mov    %rdx,(%rax)
   125a6:	48 8b 85 c0 e4 ff ff 	mov    -0x1b40(%rbp),%rax
   125ad:	48 8b 00             	mov    (%rax),%rax
   125b0:	48 8b 95 68 e4 ff ff 	mov    -0x1b98(%rbp),%rdx
   125b7:	48 89 95 c8 e4 ff ff 	mov    %rdx,-0x1b38(%rbp)
   125be:	48 39 85 c8 e4 ff ff 	cmp    %rax,-0x1b38(%rbp)
   125c5:	0f 95 c0             	setne  %al
   125c8:	44 0f b6 e0          	movzbl %al,%r12d
   125cc:	48 8b 85 08 e4 ff ff 	mov    -0x1bf8(%rbp),%rax
   125d3:	48 8b 00             	mov    (%rax),%rax
   125d6:	48 8b 00             	mov    (%rax),%rax
   125d9:	44 8b 28             	mov    (%rax),%r13d
   125dc:	0f b6 85 a0 e2 ff ff 	movzbl -0x1d60(%rbp),%eax
   125e3:	0f be d8             	movsbl %al,%ebx
   125e6:	0f b6 85 a0 e2 ff ff 	movzbl -0x1d60(%rbp),%eax
   125ed:	0f be d0             	movsbl %al,%edx
   125f0:	48 8b 85 08 e4 ff ff 	mov    -0x1bf8(%rbp),%rax
   125f7:	48 8b 00             	mov    (%rax),%rax
   125fa:	48 8b 00             	mov    (%rax),%rax
   125fd:	8b 00                	mov    (%rax),%eax
   125ff:	85 c0                	test   %eax,%eax
   12601:	75 25                	jne    12628 <func_27+0x2836>
   12603:	48 8b 85 d0 e4 ff ff 	mov    -0x1b30(%rbp),%rax
   1260a:	48 8d 8d d4 e2 ff ff 	lea    -0x1d2c(%rbp),%rcx
   12611:	48 89 08             	mov    %rcx,(%rax)
   12614:	48 8b 85 d0 e4 ff ff 	mov    -0x1b30(%rbp),%rax
   1261b:	48 8b 00             	mov    (%rax),%rax
   1261e:	48 8d 0d 4f de 00 00 	lea    0xde4f(%rip),%rcx        # 20474 <g_557>
   12625:	48 39 c8             	cmp    %rcx,%rax
   12628:	8b 85 a4 e2 ff ff    	mov    -0x1d5c(%rbp),%eax
   1262e:	0f be c0             	movsbl %al,%eax
   12631:	89 d6                	mov    %edx,%esi
   12633:	89 c7                	mov    %eax,%edi
   12635:	e8 f7 8b ff ff       	callq  b231 <safe_mod_func_int8_t_s_s>
   1263a:	0f b6 85 a0 e2 ff ff 	movzbl -0x1d60(%rbp),%eax
   12641:	0f be c0             	movsbl %al,%eax
   12644:	89 de                	mov    %ebx,%esi
   12646:	89 c7                	mov    %eax,%edi
   12648:	e8 1d 8c ff ff       	callq  b26a <safe_div_func_int8_t_s_s>
   1264d:	0f be d0             	movsbl %al,%edx
   12650:	8b 05 6a df 00 00    	mov    0xdf6a(%rip),%eax        # 205c0 <g_1154+0x10>
   12656:	39 c2                	cmp    %eax,%edx
   12658:	0f 95 c0             	setne  %al
   1265b:	0f b6 d0             	movzbl %al,%edx
   1265e:	48 8b 85 08 e4 ff ff 	mov    -0x1bf8(%rbp),%rax
   12665:	48 8b 00             	mov    (%rax),%rax
   12668:	48 8b 00             	mov    (%rax),%rax
   1266b:	8b 00                	mov    (%rax),%eax
   1266d:	21 d0                	and    %edx,%eax
   1266f:	41 39 c5             	cmp    %eax,%r13d
   12672:	0f 9f c0             	setg   %al
   12675:	0f b6 c0             	movzbl %al,%eax
   12678:	39 85 14 e3 ff ff    	cmp    %eax,-0x1cec(%rbp)
   1267e:	0f 95 c0             	setne  %al
   12681:	0f b6 c0             	movzbl %al,%eax
   12684:	41 39 c4             	cmp    %eax,%r12d
   12687:	80 bd a0 e2 ff ff 00 	cmpb   $0x0,-0x1d60(%rbp)
   1268e:	0f 84 91 06 00 00    	je     12d25 <func_27+0x2f33>
   12694:	48 8d 05 7d 04 01 00 	lea    0x1047d(%rip),%rax        # 22b18 <g_1130>
   1269b:	48 89 85 18 e5 ff ff 	mov    %rax,-0x1ae8(%rbp)
   126a2:	48 8d 05 6f 04 01 00 	lea    0x1046f(%rip),%rax        # 22b18 <g_1130>
   126a9:	48 89 85 20 e5 ff ff 	mov    %rax,-0x1ae0(%rbp)
   126b0:	48 8d 05 99 04 01 00 	lea    0x10499(%rip),%rax        # 22b50 <g_1129+0x30>
   126b7:	48 89 85 28 e5 ff ff 	mov    %rax,-0x1ad8(%rbp)
   126be:	48 b8 91 ba 28 cb 93 	movabs $0x71397493cb28ba91,%rax
   126c5:	74 39 71 
   126c8:	48 89 85 30 e5 ff ff 	mov    %rax,-0x1ad0(%rbp)
   126cf:	66 c7 85 d0 e2 ff ff 	movw   $0xfff8,-0x1d30(%rbp)
   126d6:	f8 ff 
   126d8:	48 c7 85 38 e5 ff ff 	movq   $0x1,-0x1ac8(%rbp)
   126df:	01 00 00 00 
   126e3:	48 c7 85 40 e5 ff ff 	movq   $0x0,-0x1ac0(%rbp)
   126ea:	00 00 00 00 
   126ee:	48 8d 85 10 e8 ff ff 	lea    -0x17f0(%rbp),%rax
   126f5:	48 83 c0 4c          	add    $0x4c,%rax
   126f9:	48 89 85 48 e5 ff ff 	mov    %rax,-0x1ab8(%rbp)
   12700:	c7 85 a4 e3 ff ff fd 	movl   $0xfffffffd,-0x1c5c(%rbp)
   12707:	ff ff ff 
   1270a:	c7 85 a8 e3 ff ff 43 	movl   $0x688f5d43,-0x1c58(%rbp)
   12711:	5d 8f 68 
   12714:	c7 85 ac e3 ff ff 01 	movl   $0x1,-0x1c54(%rbp)
   1271b:	00 00 00 
   1271e:	48 8d 85 a0 ef ff ff 	lea    -0x1060(%rbp),%rax
   12725:	48 8d 15 94 97 00 00 	lea    0x9794(%rip),%rdx        # 1bec0 <g_2850+0xd60>
   1272c:	b9 78 00 00 00       	mov    $0x78,%ecx
   12731:	48 89 c7             	mov    %rax,%rdi
   12734:	48 89 d6             	mov    %rdx,%rsi
   12737:	f3 48 a5             	rep movsq %ds:(%rsi),%es:(%rdi)
   1273a:	8b 85 dc e2 ff ff    	mov    -0x1d24(%rbp),%eax
   12740:	89 c3                	mov    %eax,%ebx
   12742:	48 8b 05 57 03 01 00 	mov    0x10357(%rip),%rax        # 22aa0 <g_549>
   12749:	0f b7 00             	movzwl (%rax),%eax
   1274c:	0f b7 d0             	movzwl %ax,%edx
   1274f:	48 8b 85 28 e5 ff ff 	mov    -0x1ad8(%rbp),%rax
   12756:	48 8b 8d 20 e5 ff ff 	mov    -0x1ae0(%rbp),%rcx
   1275d:	48 89 08             	mov    %rcx,(%rax)
   12760:	48 8b 85 28 e5 ff ff 	mov    -0x1ad8(%rbp),%rax
   12767:	48 8b 00             	mov    (%rax),%rax
   1276a:	48 39 85 d8 e4 ff ff 	cmp    %rax,-0x1b28(%rbp)
   12771:	48 8b 05 18 de 00 00 	mov    0xde18(%rip),%rax        # 20590 <g_1086+0x10>
   12778:	48 3d 79 49 47 02    	cmp    $0x2474979,%rax
   1277e:	0f 95 c1             	setne  %cl
   12781:	48 8b 85 30 e7 ff ff 	mov    -0x18d0(%rbp),%rax
   12788:	48 39 85 70 e4 ff ff 	cmp    %rax,-0x1b90(%rbp)
   1278f:	0f 94 c0             	sete   %al
   12792:	21 c8                	and    %ecx,%eax
   12794:	0f b6 c0             	movzbl %al,%eax
   12797:	89 d6                	mov    %edx,%esi
   12799:	89 c7                	mov    %eax,%edi
   1279b:	e8 9d 95 ff ff       	callq  bd3d <safe_mul_func_uint16_t_u_u>
   127a0:	48 8b 85 30 e5 ff ff 	mov    -0x1ad0(%rbp),%rax
   127a7:	48 be 8f 5b 4b 24 00 	movabs $0x5352c900244b5b8f,%rsi
   127ae:	c9 52 53 
   127b1:	48 89 c7             	mov    %rax,%rdi
   127b4:	e8 f6 98 ff ff       	callq  c0af <safe_div_func_uint64_t_u_u>
   127b9:	0f bf d0             	movswl %ax,%edx
   127bc:	0f b6 85 a0 e2 ff ff 	movzbl -0x1d60(%rbp),%eax
   127c3:	89 d6                	mov    %edx,%esi
   127c5:	89 c7                	mov    %eax,%edi
   127c7:	e8 07 8c ff ff       	callq  b3d3 <safe_sub_func_int16_t_s_s>
   127cc:	98                   	cwtl   
   127cd:	89 85 14 e3 ff ff    	mov    %eax,-0x1cec(%rbp)
   127d3:	0f b6 05 72 d8 00 00 	movzbl 0xd872(%rip),%eax        # 2004c <g_47>
   127da:	0f be c0             	movsbl %al,%eax
   127dd:	39 85 14 e3 ff ff    	cmp    %eax,-0x1cec(%rbp)
   127e3:	8b 95 a4 e2 ff ff    	mov    -0x1d5c(%rbp),%edx
   127e9:	0f b6 b5 a0 e2 ff ff 	movzbl -0x1d60(%rbp),%esi
   127f0:	48 8d 85 08 e4 ff ff 	lea    -0x1bf8(%rbp),%rax
   127f7:	48 89 85 18 e5 ff ff 	mov    %rax,-0x1ae8(%rbp)
   127fe:	48 8b 85 18 e5 ff ff 	mov    -0x1ae8(%rbp),%rax
   12805:	48 3b 85 d8 e4 ff ff 	cmp    -0x1b28(%rbp),%rax
   1280c:	0f 95 c1             	setne  %cl
   1280f:	48 8b 85 d8 e4 ff ff 	mov    -0x1b28(%rbp),%rax
   12816:	48 8b 00             	mov    (%rax),%rax
   12819:	48 8b 00             	mov    (%rax),%rax
   1281c:	48 8b 00             	mov    (%rax),%rax
   1281f:	0f b6 c9             	movzbl %cl,%ecx
   12822:	89 08                	mov    %ecx,(%rax)
   12824:	8b 00                	mov    (%rax),%eax
   12826:	39 c6                	cmp    %eax,%esi
   12828:	0f 9c c0             	setl   %al
   1282b:	0f b6 c0             	movzbl %al,%eax
   1282e:	89 d6                	mov    %edx,%esi
   12830:	89 c7                	mov    %eax,%edi
   12832:	e8 ce 8d ff ff       	callq  b605 <safe_sub_func_int32_t_s_s>
   12837:	89 c2                	mov    %eax,%edx
   12839:	8b 85 6c e3 ff ff    	mov    -0x1c94(%rbp),%eax
   1283f:	83 e0 01             	and    $0x1,%eax
   12842:	31 d0                	xor    %edx,%eax
   12844:	0f be c0             	movsbl %al,%eax
   12847:	c6 85 ac e2 ff ff 05 	movb   $0x5,-0x1d54(%rbp)
   1284e:	89 c6                	mov    %eax,%esi
   12850:	bf 05 00 00 00       	mov    $0x5,%edi
   12855:	e8 b8 89 ff ff       	callq  b212 <safe_mul_func_int8_t_s_s>
   1285a:	89 c2                	mov    %eax,%edx
   1285c:	48 8b 05 6d 02 01 00 	mov    0x1026d(%rip),%rax        # 22ad0 <g_928>
   12863:	48 8b 00             	mov    (%rax),%rax
   12866:	66 0f be d2          	movsbw %dl,%dx
   1286a:	66 89 10             	mov    %dx,(%rax)
   1286d:	8b 05 95 db 00 00    	mov    0xdb95(%rip),%eax        # 20408 <g_478+0x8>
   12873:	89 de                	mov    %ebx,%esi
   12875:	89 c7                	mov    %eax,%edi
   12877:	e8 a9 96 ff ff       	callq  bf25 <safe_div_func_uint32_t_u_u>
   1287c:	89 c0                	mov    %eax,%eax
   1287e:	be 01 00 00 00       	mov    $0x1,%esi
   12883:	48 89 c7             	mov    %rax,%rdi
   12886:	e8 c0 97 ff ff       	callq  c04b <safe_sub_func_uint64_t_u_u>
   1288b:	48 85 c0             	test   %rax,%rax
   1288e:	0f 84 9d 02 00 00    	je     12b31 <func_27+0x2d3f>
   12894:	48 b8 bc 70 38 2b 62 	movabs $0xcdc31f622b3870bc,%rax
   1289b:	1f c3 cd 
   1289e:	48 89 85 58 e5 ff ff 	mov    %rax,-0x1aa8(%rbp)
   128a5:	c7 85 bc e3 ff ff c2 	movl   $0xb0b49cc2,-0x1c44(%rbp)
   128ac:	9c b4 b0 
   128af:	0f be 9d ac e2 ff ff 	movsbl -0x1d54(%rbp),%ebx
   128b6:	44 0f b6 ad a0 e2 ff 	movzbl -0x1d60(%rbp),%r13d
   128bd:	ff 
   128be:	48 8b 85 58 e5 ff ff 	mov    -0x1aa8(%rbp),%rax
   128c5:	44 0f be e0          	movsbl %al,%r12d
   128c9:	0f b7 05 cc 87 00 00 	movzwl 0x87cc(%rip),%eax        # 1b09c <g_1029+0x1c>
   128d0:	48 0f bf d0          	movswq %ax,%rdx
   128d4:	48 8d 85 c8 e2 ff ff 	lea    -0x1d38(%rbp),%rax
   128db:	48 89 85 40 e5 ff ff 	mov    %rax,-0x1ac0(%rbp)
   128e2:	48 8d 85 a8 e2 ff ff 	lea    -0x1d58(%rbp),%rax
   128e9:	48 39 85 40 e5 ff ff 	cmp    %rax,-0x1ac0(%rbp)
   128f0:	0f 94 c0             	sete   %al
   128f3:	0f b6 c0             	movzbl %al,%eax
   128f6:	48 89 d6             	mov    %rdx,%rsi
   128f9:	48 89 c7             	mov    %rax,%rdi
   128fc:	e8 a7 8f ff ff       	callq  b8a8 <safe_sub_func_int64_t_s_s>
   12901:	48 8b 05 48 db 00 00 	mov    0xdb48(%rip),%rax        # 20450 <g_480+0x10>
   12908:	48 83 f8 01          	cmp    $0x1,%rax
   1290c:	0f 95 c0             	setne  %al
   1290f:	89 c2                	mov    %eax,%edx
   12911:	8b 85 0c e3 ff ff    	mov    -0x1cf4(%rbp),%eax
   12917:	09 d0                	or     %edx,%eax
   12919:	0f be c0             	movsbl %al,%eax
   1291c:	44 89 e6             	mov    %r12d,%esi
   1291f:	89 c7                	mov    %eax,%edi
   12921:	e8 ae 88 ff ff       	callq  b1d4 <safe_add_func_int8_t_s_s>
   12926:	48 8b 15 a3 01 01 00 	mov    0x101a3(%rip),%rdx        # 22ad0 <g_928>
   1292d:	48 8b 12             	mov    (%rdx),%rdx
   12930:	0f b7 0a             	movzwl (%rdx),%ecx
   12933:	66 0f be d0          	movsbw %al,%dx
   12937:	48 8b 05 92 01 01 00 	mov    0x10192(%rip),%rax        # 22ad0 <g_928>
   1293e:	48 8b 00             	mov    (%rax),%rax
   12941:	21 ca                	and    %ecx,%edx
   12943:	66 89 10             	mov    %dx,(%rax)
   12946:	48 8b 05 53 01 01 00 	mov    0x10153(%rip),%rax        # 22aa0 <g_549>
   1294d:	0f b7 00             	movzwl (%rax),%eax
   12950:	0f b7 d0             	movzwl %ax,%edx
   12953:	48 8b 85 58 e5 ff ff 	mov    -0x1aa8(%rbp),%rax
   1295a:	98                   	cwtl   
   1295b:	89 d6                	mov    %edx,%esi
   1295d:	89 c7                	mov    %eax,%edi
   1295f:	e8 ff 8b ff ff       	callq  b563 <safe_rshift_func_int16_t_s_u>
   12964:	48 0f bf c0          	movswq %ax,%rax
   12968:	48 83 f8 ff          	cmp    $0xffffffffffffffff,%rax
   1296c:	48 8b 85 08 e4 ff ff 	mov    -0x1bf8(%rbp),%rax
   12973:	48 8b 00             	mov    (%rax),%rax
   12976:	48 8b 10             	mov    (%rax),%rdx
   12979:	48 8b 85 18 e5 ff ff 	mov    -0x1ae8(%rbp),%rax
   12980:	48 8b 00             	mov    (%rax),%rax
   12983:	48 8b 00             	mov    (%rax),%rax
   12986:	48 8b 00             	mov    (%rax),%rax
   12989:	8b 12                	mov    (%rdx),%edx
   1298b:	89 10                	mov    %edx,(%rax)
   1298d:	8b 00                	mov    (%rax),%eax
   1298f:	89 c1                	mov    %eax,%ecx
   12991:	48 8b 05 10 01 01 00 	mov    0x10110(%rip),%rax        # 22aa8 <g_548>
   12998:	48 8b 00             	mov    (%rax),%rax
   1299b:	0f b7 00             	movzwl (%rax),%eax
   1299e:	66 83 f8 01          	cmp    $0x1,%ax
   129a2:	0f 97 c0             	seta   %al
   129a5:	0f b6 d0             	movzbl %al,%edx
   129a8:	48 8b 05 f9 00 01 00 	mov    0x100f9(%rip),%rax        # 22aa8 <g_548>
   129af:	48 8b 00             	mov    (%rax),%rax
   129b2:	0f b7 00             	movzwl (%rax),%eax
   129b5:	31 d0                	xor    %edx,%eax
   129b7:	21 c8                	and    %ecx,%eax
   129b9:	66 89 85 a8 e2 ff ff 	mov    %ax,-0x1d58(%rbp)
   129c0:	0f b7 85 a8 e2 ff ff 	movzwl -0x1d58(%rbp),%eax
   129c7:	98                   	cwtl   
   129c8:	41 39 c5             	cmp    %eax,%r13d
   129cb:	0f 9f c0             	setg   %al
   129ce:	0f b6 c0             	movzbl %al,%eax
   129d1:	be 0f 00 00 00       	mov    $0xf,%esi
   129d6:	89 c7                	mov    %eax,%edi
   129d8:	e8 29 94 ff ff       	callq  be06 <safe_lshift_func_uint16_t_u_u>
   129dd:	f7 d0                	not    %eax
   129df:	89 c2                	mov    %eax,%edx
   129e1:	8b 05 e1 d9 00 00    	mov    0xd9e1(%rip),%eax        # 203c8 <g_433+0x8>
   129e7:	31 d0                	xor    %edx,%eax
   129e9:	0f be c0             	movsbl %al,%eax
   129ec:	89 de                	mov    %ebx,%esi
   129ee:	89 c7                	mov    %eax,%edi
   129f0:	e8 fd 87 ff ff       	callq  b1f2 <safe_sub_func_int8_t_s_s>
   129f5:	84 c0                	test   %al,%al
   129f7:	0f 84 28 01 00 00    	je     12b25 <func_27+0x2d33>
   129fd:	c6 85 c0 e2 ff ff 46 	movb   $0x46,-0x1d40(%rbp)
   12a04:	48 8b 85 08 e4 ff ff 	mov    -0x1bf8(%rbp),%rax
   12a0b:	48 8b 00             	mov    (%rax),%rax
   12a0e:	48 8b 00             	mov    (%rax),%rax
   12a11:	0f be 95 ac e2 ff ff 	movsbl -0x1d54(%rbp),%edx
   12a18:	89 10                	mov    %edx,(%rax)
   12a1a:	48 8b 15 7f 00 01 00 	mov    0x1007f(%rip),%rdx        # 22aa0 <g_549>
   12a21:	0f b7 02             	movzwl (%rdx),%eax
   12a24:	8d 48 ff             	lea    -0x1(%rax),%ecx
   12a27:	66 89 0a             	mov    %cx,(%rdx)
   12a2a:	66 85 c0             	test   %ax,%ax
   12a2d:	0f 84 e2 00 00 00    	je     12b15 <func_27+0x2d23>
   12a33:	0f b7 85 a8 e2 ff ff 	movzwl -0x1d58(%rbp),%eax
   12a3a:	0f b7 d8             	movzwl %ax,%ebx
   12a3d:	0f b7 85 a8 e2 ff ff 	movzwl -0x1d58(%rbp),%eax
   12a44:	44 0f bf e0          	movswl %ax,%r12d
   12a48:	48 8b 05 79 00 01 00 	mov    0x10079(%rip),%rax        # 22ac8 <g_908>
   12a4f:	8b 15 cb d9 00 00    	mov    0xd9cb(%rip),%edx        # 20420 <g_478+0x20>
   12a55:	48 8b 85 48 e5 ff ff 	mov    -0x1ab8(%rbp),%rax
   12a5c:	48 3b 85 90 e4 ff ff 	cmp    -0x1b70(%rbp),%rax
   12a63:	0f 94 c0             	sete   %al
   12a66:	0f b6 c0             	movzbl %al,%eax
   12a69:	39 c2                	cmp    %eax,%edx
   12a6b:	0f 94 c0             	sete   %al
   12a6e:	0f b6 c0             	movzbl %al,%eax
   12a71:	89 85 bc e3 ff ff    	mov    %eax,-0x1c44(%rbp)
   12a77:	48 8b 85 18 e5 ff ff 	mov    -0x1ae8(%rbp),%rax
   12a7e:	48 8b 00             	mov    (%rax),%rax
   12a81:	48 8b 00             	mov    (%rax),%rax
   12a84:	48 8b 00             	mov    (%rax),%rax
   12a87:	8b 95 bc e3 ff ff    	mov    -0x1c44(%rbp),%edx
   12a8d:	89 10                	mov    %edx,(%rax)
   12a8f:	44 8b 28             	mov    (%rax),%r13d
   12a92:	48 8b 05 67 f8 00 00 	mov    0xf867(%rip),%rax        # 22300 <g_496>
   12a99:	0f b7 00             	movzwl (%rax),%eax
   12a9c:	98                   	cwtl   
   12a9d:	be 0a 00 00 00       	mov    $0xa,%esi
   12aa2:	89 c7                	mov    %eax,%edi
   12aa4:	e8 e9 89 ff ff       	callq  b492 <safe_lshift_func_int16_t_s_s>
   12aa9:	98                   	cwtl   
   12aaa:	41 39 c5             	cmp    %eax,%r13d
   12aad:	0f 9c c0             	setl   %al
   12ab0:	88 85 ac e2 ff ff    	mov    %al,-0x1d54(%rbp)
   12ab6:	0f b6 85 a0 e2 ff ff 	movzbl -0x1d60(%rbp),%eax
   12abd:	89 85 00 e6 ff ff    	mov    %eax,-0x1a00(%rbp)
   12ac3:	bf 00 00 00 00       	mov    $0x0,%edi
   12ac8:	e8 4c 95 ff ff       	callq  c019 <safe_unary_minus_func_uint64_t_u>
   12acd:	48 8b 05 0c f8 00 00 	mov    0xf80c(%rip),%rax        # 222e0 <g_255>
   12ad4:	48 8b 00             	mov    (%rax),%rax
   12ad7:	0f b6 c0             	movzbl %al,%eax
   12ada:	44 89 e6             	mov    %r12d,%esi
   12add:	89 c7                	mov    %eax,%edi
   12adf:	e8 a9 91 ff ff       	callq  bc8d <safe_rshift_func_uint8_t_u_s>
   12ae4:	38 85 a0 e2 ff ff    	cmp    %al,-0x1d60(%rbp)
   12aea:	0f 93 c0             	setae  %al
   12aed:	0f b6 c0             	movzbl %al,%eax
   12af0:	be 08 00 00 00       	mov    $0x8,%esi
   12af5:	89 c7                	mov    %eax,%edi
   12af7:	e8 0a 93 ff ff       	callq  be06 <safe_lshift_func_uint16_t_u_u>
   12afc:	89 de                	mov    %ebx,%esi
   12afe:	bf ac 5a 00 00       	mov    $0x5aac,%edi
   12b03:	e8 f7 91 ff ff       	callq  bcff <safe_add_func_uint16_t_u_u>
   12b08:	66 83 f8 01          	cmp    $0x1,%ax
   12b0c:	74 07                	je     12b15 <func_27+0x2d23>
   12b0e:	b8 01 00 00 00       	mov    $0x1,%eax
   12b13:	eb 05                	jmp    12b1a <func_27+0x2d28>
   12b15:	b8 00 00 00 00       	mov    $0x0,%eax
   12b1a:	30 85 c0 e2 ff ff    	xor    %al,-0x1d40(%rbp)
   12b20:	e9 b5 01 00 00       	jmpq   12cda <func_27+0x2ee8>
   12b25:	48 8b 85 58 e5 ff ff 	mov    -0x1aa8(%rbp),%rax
   12b2c:	e9 bd 10 00 00       	jmpq   13bee <func_27+0x3dfc>
   12b31:	c7 85 b0 e3 ff ff 04 	movl   $0x4,-0x1c50(%rbp)
   12b38:	00 00 00 
   12b3b:	c7 85 b4 e3 ff ff db 	movl   $0x677f58db,-0x1c4c(%rbp)
   12b42:	58 7f 67 
   12b45:	c7 85 b8 e3 ff ff d7 	movl   $0x5d372ed7,-0x1c48(%rbp)
   12b4c:	2e 37 5d 
   12b4f:	c7 85 34 e3 ff ff 00 	movl   $0x0,-0x1ccc(%rbp)
   12b56:	00 00 00 
   12b59:	eb 4f                	jmp    12baa <func_27+0x2db8>
   12b5b:	c7 85 38 e3 ff ff 00 	movl   $0x0,-0x1cc8(%rbp)
   12b62:	00 00 00 
   12b65:	eb 33                	jmp    12b9a <func_27+0x2da8>
   12b67:	8b 85 38 e3 ff ff    	mov    -0x1cc8(%rbp),%eax
   12b6d:	48 63 c8             	movslq %eax,%rcx
   12b70:	8b 85 34 e3 ff ff    	mov    -0x1ccc(%rbp),%eax
   12b76:	48 63 d0             	movslq %eax,%rdx
   12b79:	48 89 d0             	mov    %rdx,%rax
   12b7c:	48 01 c0             	add    %rax,%rax
   12b7f:	48 01 d0             	add    %rdx,%rax
   12b82:	48 01 c0             	add    %rax,%rax
   12b85:	48 01 c8             	add    %rcx,%rax
   12b88:	c7 84 85 30 e9 ff ff 	movl   $0x3764dc78,-0x16d0(%rbp,%rax,4)
   12b8f:	78 dc 64 37 
   12b93:	83 85 38 e3 ff ff 01 	addl   $0x1,-0x1cc8(%rbp)
   12b9a:	83 bd 38 e3 ff ff 05 	cmpl   $0x5,-0x1cc8(%rbp)
   12ba1:	7e c4                	jle    12b67 <func_27+0x2d75>
   12ba3:	83 85 34 e3 ff ff 01 	addl   $0x1,-0x1ccc(%rbp)
   12baa:	83 bd 34 e3 ff ff 03 	cmpl   $0x3,-0x1ccc(%rbp)
   12bb1:	7e a8                	jle    12b5b <func_27+0x2d69>
   12bb3:	c6 05 92 d4 00 00 10 	movb   $0x10,0xd492(%rip)        # 2004c <g_47>
   12bba:	eb 65                	jmp    12c21 <func_27+0x2e2f>
   12bbc:	48 8d 85 60 f3 ff ff 	lea    -0xca0(%rbp),%rax
   12bc3:	48 8d 15 b6 96 00 00 	lea    0x96b6(%rip),%rdx        # 1c280 <g_2850+0x1120>
   12bca:	b9 7d 00 00 00       	mov    $0x7d,%ecx
   12bcf:	48 89 c7             	mov    %rax,%rdi
   12bd2:	48 89 d6             	mov    %rdx,%rsi
   12bd5:	f3 48 a5             	rep movsq %ds:(%rsi),%es:(%rdi)
   12bd8:	c7 85 3c e3 ff ff 00 	movl   $0x0,-0x1cc4(%rbp)
   12bdf:	00 00 00 
   12be2:	eb 14                	jmp    12bf8 <func_27+0x2e06>
   12be4:	8b 85 3c e3 ff ff    	mov    -0x1cc4(%rbp),%eax
   12bea:	48 98                	cltq   
   12bec:	c6 44 05 c2 09       	movb   $0x9,-0x3e(%rbp,%rax,1)
   12bf1:	83 85 3c e3 ff ff 01 	addl   $0x1,-0x1cc4(%rbp)
   12bf8:	83 bd 3c e3 ff ff 01 	cmpl   $0x1,-0x1cc4(%rbp)
   12bff:	7e e3                	jle    12be4 <func_27+0x2df2>
   12c01:	0f b6 85 bc e2 ff ff 	movzbl -0x1d44(%rbp),%eax
   12c08:	83 e8 01             	sub    $0x1,%eax
   12c0b:	88 85 bc e2 ff ff    	mov    %al,-0x1d44(%rbp)
   12c11:	0f b6 05 34 d4 00 00 	movzbl 0xd434(%rip),%eax        # 2004c <g_47>
   12c18:	83 e8 01             	sub    $0x1,%eax
   12c1b:	88 05 2b d4 00 00    	mov    %al,0xd42b(%rip)        # 2004c <g_47>
   12c21:	0f b6 05 24 d4 00 00 	movzbl 0xd424(%rip),%eax        # 2004c <g_47>
   12c28:	3c 0a                	cmp    $0xa,%al
   12c2a:	7e 90                	jle    12bbc <func_27+0x2dca>
   12c2c:	48 8b 85 08 e4 ff ff 	mov    -0x1bf8(%rbp),%rax
   12c33:	48 8b 00             	mov    (%rax),%rax
   12c36:	48 8b 10             	mov    (%rax),%rdx
   12c39:	48 8b 85 28 e5 ff ff 	mov    -0x1ad8(%rbp),%rax
   12c40:	48 8b 00             	mov    (%rax),%rax
   12c43:	48 8b 00             	mov    (%rax),%rax
   12c46:	48 8b 00             	mov    (%rax),%rax
   12c49:	48 8b 00             	mov    (%rax),%rax
   12c4c:	8b 12                	mov    (%rdx),%edx
   12c4e:	89 10                	mov    %edx,(%rax)
   12c50:	48 8b 05 a9 fe 00 00 	mov    0xfea9(%rip),%rax        # 22b00 <g_1066>
   12c57:	8b 08                	mov    (%rax),%ecx
   12c59:	48 8b 85 18 e5 ff ff 	mov    -0x1ae8(%rbp),%rax
   12c60:	48 8b 00             	mov    (%rax),%rax
   12c63:	48 8b 00             	mov    (%rax),%rax
   12c66:	48 8b 00             	mov    (%rax),%rax
   12c69:	8b 10                	mov    (%rax),%edx
   12c6b:	48 8b 85 18 e5 ff ff 	mov    -0x1ae8(%rbp),%rax
   12c72:	48 8b 00             	mov    (%rax),%rax
   12c75:	48 8b 00             	mov    (%rax),%rax
   12c78:	48 8b 00             	mov    (%rax),%rax
   12c7b:	09 ca                	or     %ecx,%edx
   12c7d:	89 10                	mov    %edx,(%rax)
   12c7f:	66 c7 85 c4 e2 ff ff 	movw   $0xfffb,-0x1d3c(%rbp)
   12c86:	fb ff 
   12c88:	eb 40                	jmp    12cca <func_27+0x2ed8>
   12c8a:	48 b8 a7 2b 7e c1 53 	movabs $0xe2b24253c17e2ba7,%rax
   12c91:	42 b2 e2 
   12c94:	48 89 85 50 e5 ff ff 	mov    %rax,-0x1ab0(%rbp)
   12c9b:	48 8b 15 56 f6 00 00 	mov    0xf656(%rip),%rdx        # 222f8 <g_431>
   12ca2:	48 8b 05 4f f6 00 00 	mov    0xf64f(%rip),%rax        # 222f8 <g_431>
   12ca9:	48 8b 12             	mov    (%rdx),%rdx
   12cac:	48 89 10             	mov    %rdx,(%rax)
   12caf:	48 83 bd 50 e5 ff ff 	cmpq   $0x0,-0x1ab0(%rbp)
   12cb6:	00 
   12cb7:	75 20                	jne    12cd9 <func_27+0x2ee7>
   12cb9:	0f b7 85 c4 e2 ff ff 	movzwl -0x1d3c(%rbp),%eax
   12cc0:	83 c0 01             	add    $0x1,%eax
   12cc3:	66 89 85 c4 e2 ff ff 	mov    %ax,-0x1d3c(%rbp)
   12cca:	0f b7 85 c4 e2 ff ff 	movzwl -0x1d3c(%rbp),%eax
   12cd1:	66 83 f8 20          	cmp    $0x20,%ax
   12cd5:	75 b3                	jne    12c8a <func_27+0x2e98>
   12cd7:	eb 01                	jmp    12cda <func_27+0x2ee8>
   12cd9:	90                   	nop
   12cda:	83 bd 5c e3 ff ff 00 	cmpl   $0x0,-0x1ca4(%rbp)
   12ce1:	0f 85 01 0f 00 00    	jne    13be8 <func_27+0x3df6>
   12ce7:	48 8b 05 c2 fe 00 00 	mov    0xfec2(%rip),%rax        # 22bb0 <g_1131>
   12cee:	48 8b 00             	mov    (%rax),%rax
   12cf1:	48 8b 00             	mov    (%rax),%rax
   12cf4:	48 8b 00             	mov    (%rax),%rax
   12cf7:	48 8b 00             	mov    (%rax),%rax
   12cfa:	8b 00                	mov    (%rax),%eax
   12cfc:	85 c0                	test   %eax,%eax
   12cfe:	0f 84 ca 0c 00 00    	je     139ce <func_27+0x3bdc>
   12d04:	0f b6 85 a0 e2 ff ff 	movzbl -0x1d60(%rbp),%eax
   12d0b:	0f be c0             	movsbl %al,%eax
   12d0e:	be 02 00 00 00       	mov    $0x2,%esi
   12d13:	89 c7                	mov    %eax,%edi
   12d15:	e8 ba 84 ff ff       	callq  b1d4 <safe_add_func_int8_t_s_s>
   12d1a:	88 85 a0 e2 ff ff    	mov    %al,-0x1d60(%rbp)
   12d20:	e9 b6 0e 00 00       	jmpq   13bdb <func_27+0x3de9>
   12d25:	48 b9 cf bc f0 df 2c 	movabs $0x81199e2cdff0bccf,%rcx
   12d2c:	9e 19 81 
   12d2f:	48 89 8d 60 f3 ff ff 	mov    %rcx,-0xca0(%rbp)
   12d36:	48 bb db bd 62 9e da 	movabs $0x4b45ada9e62bddb,%rbx
   12d3d:	5a b4 04 
   12d40:	48 89 9d 68 f3 ff ff 	mov    %rbx,-0xc98(%rbp)
   12d47:	48 b8 06 a9 50 e9 5b 	movabs $0x65587d5be950a906,%rax
   12d4e:	7d 58 65 
   12d51:	48 89 85 70 f3 ff ff 	mov    %rax,-0xc90(%rbp)
   12d58:	48 89 85 78 f3 ff ff 	mov    %rax,-0xc88(%rbp)
   12d5f:	48 89 85 80 f3 ff ff 	mov    %rax,-0xc80(%rbp)
   12d66:	48 89 9d 88 f3 ff ff 	mov    %rbx,-0xc78(%rbp)
   12d6d:	48 89 8d 90 f3 ff ff 	mov    %rcx,-0xc70(%rbp)
   12d74:	48 bf e2 a7 f8 f6 f4 	movabs $0xa04dccf4f6f8a7e2,%rdi
   12d7b:	cc 4d a0 
   12d7e:	48 89 bd 98 f3 ff ff 	mov    %rdi,-0xc68(%rbp)
   12d85:	48 89 9d a0 f3 ff ff 	mov    %rbx,-0xc60(%rbp)
   12d8c:	48 89 bd a8 f3 ff ff 	mov    %rdi,-0xc58(%rbp)
   12d93:	48 89 8d b0 f3 ff ff 	mov    %rcx,-0xc50(%rbp)
   12d9a:	48 89 9d b8 f3 ff ff 	mov    %rbx,-0xc48(%rbp)
   12da1:	48 89 85 c0 f3 ff ff 	mov    %rax,-0xc40(%rbp)
   12da8:	48 89 85 c8 f3 ff ff 	mov    %rax,-0xc38(%rbp)
   12daf:	48 89 85 d0 f3 ff ff 	mov    %rax,-0xc30(%rbp)
   12db6:	48 89 9d d8 f3 ff ff 	mov    %rbx,-0xc28(%rbp)
   12dbd:	48 89 8d e0 f3 ff ff 	mov    %rcx,-0xc20(%rbp)
   12dc4:	48 89 bd e8 f3 ff ff 	mov    %rdi,-0xc18(%rbp)
   12dcb:	48 89 9d f0 f3 ff ff 	mov    %rbx,-0xc10(%rbp)
   12dd2:	48 89 bd f8 f3 ff ff 	mov    %rdi,-0xc08(%rbp)
   12dd9:	48 89 8d 00 f4 ff ff 	mov    %rcx,-0xc00(%rbp)
   12de0:	48 89 9d 08 f4 ff ff 	mov    %rbx,-0xbf8(%rbp)
   12de7:	48 89 85 10 f4 ff ff 	mov    %rax,-0xbf0(%rbp)
   12dee:	48 89 85 18 f4 ff ff 	mov    %rax,-0xbe8(%rbp)
   12df5:	48 89 85 20 f4 ff ff 	mov    %rax,-0xbe0(%rbp)
   12dfc:	48 89 9d 28 f4 ff ff 	mov    %rbx,-0xbd8(%rbp)
   12e03:	48 89 8d 30 f4 ff ff 	mov    %rcx,-0xbd0(%rbp)
   12e0a:	48 89 bd 38 f4 ff ff 	mov    %rdi,-0xbc8(%rbp)
   12e11:	c7 85 40 e3 ff ff fa 	movl   $0xfffffffa,-0x1cc0(%rbp)
   12e18:	ff ff ff 
   12e1b:	c7 85 44 e3 ff ff 01 	movl   $0x1,-0x1cbc(%rbp)
   12e22:	00 00 00 
   12e25:	c7 85 8c e3 ff ff 02 	movl   $0x2,-0x1c74(%rbp)
   12e2c:	00 00 00 
   12e2f:	c7 85 a0 ef ff ff 82 	movl   $0x234d1382,-0x1060(%rbp)
   12e36:	13 4d 23 
   12e39:	c7 85 a4 ef ff ff 01 	movl   $0x1,-0x105c(%rbp)
   12e40:	00 00 00 
   12e43:	c7 85 a8 ef ff ff ec 	movl   $0xafc738ec,-0x1058(%rbp)
   12e4a:	38 c7 af 
   12e4d:	c7 85 ac ef ff ff ec 	movl   $0xafc738ec,-0x1054(%rbp)
   12e54:	38 c7 af 
   12e57:	c7 85 b0 ef ff ff 01 	movl   $0x1,-0x1050(%rbp)
   12e5e:	00 00 00 
   12e61:	c7 85 b4 ef ff ff 82 	movl   $0x234d1382,-0x104c(%rbp)
   12e68:	13 4d 23 
   12e6b:	c7 85 b8 ef ff ff 01 	movl   $0x1,-0x1048(%rbp)
   12e72:	00 00 00 
   12e75:	c7 85 bc ef ff ff ec 	movl   $0xafc738ec,-0x1044(%rbp)
   12e7c:	38 c7 af 
   12e7f:	c7 85 c0 ef ff ff ec 	movl   $0xafc738ec,-0x1040(%rbp)
   12e86:	38 c7 af 
   12e89:	c7 85 c4 ef ff ff 01 	movl   $0x1,-0x103c(%rbp)
   12e90:	00 00 00 
   12e93:	48 8d 05 06 d7 00 00 	lea    0xd706(%rip),%rax        # 205a0 <g_1086+0x20>
   12e9a:	48 89 85 e0 e4 ff ff 	mov    %rax,-0x1b20(%rbp)
   12ea1:	c7 85 90 e3 ff ff 00 	movl   $0x0,-0x1c70(%rbp)
   12ea8:	00 00 00 
   12eab:	48 8d 85 e4 e2 ff ff 	lea    -0x1d1c(%rbp),%rax
   12eb2:	48 89 85 e8 e4 ff ff 	mov    %rax,-0x1b18(%rbp)
   12eb9:	c7 85 48 e3 ff ff 00 	movl   $0x0,-0x1cb8(%rbp)
   12ec0:	00 00 00 
   12ec3:	eb 1e                	jmp    12ee3 <func_27+0x30f1>
   12ec5:	8b 85 48 e3 ff ff    	mov    -0x1cb8(%rbp),%eax
   12ecb:	48 98                	cltq   
   12ecd:	48 8d 15 cc 1c 01 00 	lea    0x11ccc(%rip),%rdx        # 24ba0 <g_898>
   12ed4:	48 89 94 c5 30 e9 ff 	mov    %rdx,-0x16d0(%rbp,%rax,8)
   12edb:	ff 
   12edc:	83 85 48 e3 ff ff 01 	addl   $0x1,-0x1cb8(%rbp)
   12ee3:	83 bd 48 e3 ff ff 03 	cmpl   $0x3,-0x1cb8(%rbp)
   12eea:	7e d9                	jle    12ec5 <func_27+0x30d3>
   12eec:	48 8b 05 d5 fb 00 00 	mov    0xfbd5(%rip),%rax        # 22ac8 <g_908>
   12ef3:	48 8d 05 76 81 00 00 	lea    0x8176(%rip),%rax        # 1b070 <g_271>
   12efa:	48 39 85 78 e4 ff ff 	cmp    %rax,-0x1b88(%rbp)
   12f01:	0f 84 5a 01 00 00    	je     13061 <func_27+0x326f>
   12f07:	8b 85 54 e3 ff ff    	mov    -0x1cac(%rbp),%eax
   12f0d:	0f b6 d8             	movzbl %al,%ebx
   12f10:	44 8b a5 a4 e2 ff ff 	mov    -0x1d5c(%rbp),%r12d
   12f17:	48 8b 85 d8 e4 ff ff 	mov    -0x1b28(%rbp),%rax
   12f1e:	48 8b 00             	mov    (%rax),%rax
   12f21:	48 8b 00             	mov    (%rax),%rax
   12f24:	48 8b 00             	mov    (%rax),%rax
   12f27:	44 8b 28             	mov    (%rax),%r13d
   12f2a:	0f b6 95 a0 e2 ff ff 	movzbl -0x1d60(%rbp),%edx
   12f31:	0f b7 05 26 d1 00 00 	movzwl 0xd126(%rip),%eax        # 2005e <g_116+0x6>
   12f38:	98                   	cwtl   
   12f39:	89 d6                	mov    %edx,%esi
   12f3b:	89 c7                	mov    %eax,%edi
   12f3d:	e8 e3 8f ff ff       	callq  bf25 <safe_div_func_uint32_t_u_u>
   12f42:	ba 00 00 00 00       	mov    $0x0,%edx
   12f47:	0f b6 85 a0 e2 ff ff 	movzbl -0x1d60(%rbp),%eax
   12f4e:	39 c2                	cmp    %eax,%edx
   12f50:	0f 9c c0             	setl   %al
   12f53:	0f b6 c0             	movzbl %al,%eax
   12f56:	41 39 c5             	cmp    %eax,%r13d
   12f59:	7c 0a                	jl     12f65 <func_27+0x3173>
   12f5b:	8b 85 04 e6 ff ff    	mov    -0x19fc(%rbp),%eax
   12f61:	85 c0                	test   %eax,%eax
   12f63:	74 07                	je     12f6c <func_27+0x317a>
   12f65:	b8 01 00 00 00       	mov    $0x1,%eax
   12f6a:	eb 05                	jmp    12f71 <func_27+0x317f>
   12f6c:	b8 00 00 00 00       	mov    $0x0,%eax
   12f71:	0f b7 c0             	movzwl %ax,%eax
   12f74:	be 7e d1 00 00       	mov    $0xd17e,%esi
   12f79:	89 c7                	mov    %eax,%edi
   12f7b:	e8 dc 8d ff ff       	callq  bd5c <safe_mod_func_uint16_t_u_u>
   12f80:	0f b7 c0             	movzwl %ax,%eax
   12f83:	be f6 ff ff ff       	mov    $0xfffffff6,%esi
   12f88:	89 c7                	mov    %eax,%edi
   12f8a:	e8 27 86 ff ff       	callq  b5b6 <safe_add_func_int32_t_s_s>
   12f8f:	be fa ff ff ff       	mov    $0xfffffffa,%esi
   12f94:	89 c7                	mov    %eax,%edi
   12f96:	e8 8a 8f ff ff       	callq  bf25 <safe_div_func_uint32_t_u_u>
   12f9b:	85 c0                	test   %eax,%eax
   12f9d:	0f 94 c0             	sete   %al
   12fa0:	0f b6 d0             	movzbl %al,%edx
   12fa3:	8b 05 ff d5 00 00    	mov    0xd5ff(%rip),%eax        # 205a8 <g_1121>
   12fa9:	39 c2                	cmp    %eax,%edx
   12fab:	0f 94 c0             	sete   %al
   12fae:	0f b6 c0             	movzbl %al,%eax
   12fb1:	4c 89 e6             	mov    %r12,%rsi
   12fb4:	48 89 c7             	mov    %rax,%rdi
   12fb7:	e8 c4 90 ff ff       	callq  c080 <safe_mod_func_uint64_t_u_u>
   12fbc:	48 85 c0             	test   %rax,%rax
   12fbf:	74 09                	je     12fca <func_27+0x31d8>
   12fc1:	83 bd 68 e3 ff ff 00 	cmpl   $0x0,-0x1c98(%rbp)
   12fc8:	75 07                	jne    12fd1 <func_27+0x31df>
   12fca:	ba 01 00 00 00       	mov    $0x1,%edx
   12fcf:	eb 05                	jmp    12fd6 <func_27+0x31e4>
   12fd1:	ba 00 00 00 00       	mov    $0x0,%edx
   12fd6:	0f b6 85 a0 e2 ff ff 	movzbl -0x1d60(%rbp),%eax
   12fdd:	39 c2                	cmp    %eax,%edx
   12fdf:	0f 9d c0             	setge  %al
   12fe2:	0f b6 c0             	movzbl %al,%eax
   12fe5:	89 de                	mov    %ebx,%esi
   12fe7:	89 c7                	mov    %eax,%edi
   12fe9:	e8 a5 8b ff ff       	callq  bb93 <safe_mul_func_uint8_t_u_u>
   12fee:	0f b6 d0             	movzbl %al,%edx
   12ff1:	48 8b 85 b8 f3 ff ff 	mov    -0xc48(%rbp),%rax
   12ff8:	48 39 c2             	cmp    %rax,%rdx
   12ffb:	77 14                	ja     13011 <func_27+0x321f>
   12ffd:	48 8b 85 d8 e4 ff ff 	mov    -0x1b28(%rbp),%rax
   13004:	48 8b 00             	mov    (%rax),%rax
   13007:	48 8b 00             	mov    (%rax),%rax
   1300a:	48 8b 00             	mov    (%rax),%rax
   1300d:	8b 00                	mov    (%rax),%eax
   1300f:	85 c0                	test   %eax,%eax
   13011:	48 8b 85 78 f3 ff ff 	mov    -0xc88(%rbp),%rax
   13018:	89 c2                	mov    %eax,%edx
   1301a:	8b 0d 14 d0 00 00    	mov    0xd014(%rip),%ecx        # 20034 <g_13+0x4>
   13020:	48 8b 85 20 e4 ff ff 	mov    -0x1be0(%rbp),%rax
   13027:	88 08                	mov    %cl,(%rax)
   13029:	0f b6 00             	movzbl (%rax),%eax
   1302c:	0f b6 c0             	movzbl %al,%eax
   1302f:	89 d6                	mov    %edx,%esi
   13031:	89 c7                	mov    %eax,%edi
   13033:	e8 14 8c ff ff       	callq  bc4c <safe_lshift_func_uint8_t_u_u>
   13038:	84 c0                	test   %al,%al
   1303a:	74 10                	je     1304c <func_27+0x325a>
   1303c:	83 bd a4 e2 ff ff 00 	cmpl   $0x0,-0x1d5c(%rbp)
   13043:	74 07                	je     1304c <func_27+0x325a>
   13045:	ba 01 00 00 00       	mov    $0x1,%edx
   1304a:	eb 05                	jmp    13051 <func_27+0x325f>
   1304c:	ba 00 00 00 00       	mov    $0x0,%edx
   13051:	0f b7 05 02 d0 00 00 	movzwl 0xd002(%rip),%eax        # 2005a <g_116+0x2>
   13058:	98                   	cwtl   
   13059:	39 c2                	cmp    %eax,%edx
   1305b:	0f 8d 4b 01 00 00    	jge    131ac <func_27+0x33ba>
   13061:	48 b8 c6 6a 8b 11 40 	movabs $0xb1cc1a40118b6ac6,%rax
   13068:	1a cc b1 
   1306b:	48 89 85 f8 e4 ff ff 	mov    %rax,-0x1b08(%rbp)
   13072:	48 8d 45 c4          	lea    -0x3c(%rbp),%rax
   13076:	48 83 c0 01          	add    $0x1,%rax
   1307a:	48 89 85 00 e5 ff ff 	mov    %rax,-0x1b00(%rbp)
   13081:	48 8d 85 30 e4 ff ff 	lea    -0x1bd0(%rbp),%rax
   13088:	48 89 85 08 e5 ff ff 	mov    %rax,-0x1af8(%rbp)
   1308f:	48 8b 85 10 f4 ff ff 	mov    -0xbf0(%rbp),%rax
   13096:	41 89 c4             	mov    %eax,%r12d
   13099:	48 8b 85 08 e4 ff ff 	mov    -0x1bf8(%rbp),%rax
   130a0:	48 8b 00             	mov    (%rax),%rax
   130a3:	48 8b 00             	mov    (%rax),%rax
   130a6:	8b 00                	mov    (%rax),%eax
   130a8:	0f be d8             	movsbl %al,%ebx
   130ab:	48 be ef ca 77 0a 3e 	movabs $0x76a0443e0a77caef,%rsi
   130b2:	44 a0 76 
   130b5:	bf 01 00 00 00       	mov    $0x1,%edi
   130ba:	e8 8c 8f ff ff       	callq  c04b <safe_sub_func_uint64_t_u_u>
   130bf:	48 89 c2             	mov    %rax,%rdx
   130c2:	48 8b 85 00 e5 ff ff 	mov    -0x1b00(%rbp),%rax
   130c9:	0f b6 00             	movzbl (%rax),%eax
   130cc:	89 c1                	mov    %eax,%ecx
   130ce:	89 d0                	mov    %edx,%eax
   130d0:	09 c8                	or     %ecx,%eax
   130d2:	89 c2                	mov    %eax,%edx
   130d4:	48 8b 85 00 e5 ff ff 	mov    -0x1b00(%rbp),%rax
   130db:	88 10                	mov    %dl,(%rax)
   130dd:	48 83 bd 60 e4 ff ff 	cmpq   $0x0,-0x1ba0(%rbp)
   130e4:	00 
   130e5:	0f 95 c0             	setne  %al
   130e8:	0f b6 c0             	movzbl %al,%eax
   130eb:	89 de                	mov    %ebx,%esi
   130ed:	89 c7                	mov    %eax,%edi
   130ef:	e8 1e 81 ff ff       	callq  b212 <safe_mul_func_int8_t_s_s>
   130f4:	0f be d0             	movsbl %al,%edx
   130f7:	8b 05 6b 1a 01 00    	mov    0x11a6b(%rip),%eax        # 24b68 <g_32>
   130fd:	39 c2                	cmp    %eax,%edx
   130ff:	0f 9e c0             	setle  %al
   13102:	0f b6 c0             	movzbl %al,%eax
   13105:	39 85 78 e3 ff ff    	cmp    %eax,-0x1c88(%rbp)
   1310b:	7f 11                	jg     1311e <func_27+0x332c>
   1310d:	48 83 bd f8 e4 ff ff 	cmpq   $0x0,-0x1b08(%rbp)
   13114:	00 
   13115:	74 07                	je     1311e <func_27+0x332c>
   13117:	b8 01 00 00 00       	mov    $0x1,%eax
   1311c:	eb 05                	jmp    13123 <func_27+0x3331>
   1311e:	b8 00 00 00 00       	mov    $0x0,%eax
   13123:	48 63 d0             	movslq %eax,%rdx
   13126:	48 8b 85 08 e5 ff ff 	mov    -0x1af8(%rbp),%rax
   1312d:	48 89 10             	mov    %rdx,(%rax)
   13130:	48 8b 85 08 e5 ff ff 	mov    -0x1af8(%rbp),%rax
   13137:	48 8b 00             	mov    (%rax),%rax
   1313a:	89 c2                	mov    %eax,%edx
   1313c:	48 8b 85 d8 e4 ff ff 	mov    -0x1b28(%rbp),%rax
   13143:	48 8b 00             	mov    (%rax),%rax
   13146:	48 8b 00             	mov    (%rax),%rax
   13149:	48 8b 00             	mov    (%rax),%rax
   1314c:	8b 00                	mov    (%rax),%eax
   1314e:	09 d0                	or     %edx,%eax
   13150:	0f b7 c0             	movzwl %ax,%eax
   13153:	be 85 7d 00 00       	mov    $0x7d85,%esi
   13158:	89 c7                	mov    %eax,%edi
   1315a:	e8 fd 8b ff ff       	callq  bd5c <safe_mod_func_uint16_t_u_u>
   1315f:	0f b6 c0             	movzbl %al,%eax
   13162:	44 89 e6             	mov    %r12d,%esi
   13165:	89 c7                	mov    %eax,%edi
   13167:	e8 21 8b ff ff       	callq  bc8d <safe_rshift_func_uint8_t_u_s>
   1316c:	0f b6 c0             	movzbl %al,%eax
   1316f:	48 8b 15 da d2 00 00 	mov    0xd2da(%rip),%rdx        # 20450 <g_480+0x10>
   13176:	31 d0                	xor    %edx,%eax
   13178:	89 c2                	mov    %eax,%edx
   1317a:	48 8b 85 f8 e4 ff ff 	mov    -0x1b08(%rbp),%rax
   13181:	98                   	cwtl   
   13182:	89 d6                	mov    %edx,%esi
   13184:	89 c7                	mov    %eax,%edi
   13186:	e8 07 83 ff ff       	callq  b492 <safe_lshift_func_int16_t_s_s>
   1318b:	0f b7 85 a8 e2 ff ff 	movzwl -0x1d58(%rbp),%eax
   13192:	98                   	cwtl   
   13193:	21 85 40 e3 ff ff    	and    %eax,-0x1cc0(%rbp)
   13199:	48 8b 85 c0 e4 ff ff 	mov    -0x1b40(%rbp),%rax
   131a0:	48 c7 00 00 00 00 00 	movq   $0x0,(%rax)
   131a7:	e9 10 04 00 00       	jmpq   135bc <func_27+0x37ca>
   131ac:	48 8d 05 45 f1 00 00 	lea    0xf145(%rip),%rax        # 222f8 <g_431>
   131b3:	48 89 85 48 e4 ff ff 	mov    %rax,-0x1bb8(%rbp)
   131ba:	48 8d 85 48 e4 ff ff 	lea    -0x1bb8(%rbp),%rax
   131c1:	48 89 85 50 e4 ff ff 	mov    %rax,-0x1bb0(%rbp)
   131c8:	48 8d 85 50 e4 ff ff 	lea    -0x1bb0(%rbp),%rax
   131cf:	48 89 85 f0 e4 ff ff 	mov    %rax,-0x1b10(%rbp)
   131d6:	c7 85 94 e3 ff ff 6b 	movl   $0x48e9166b,-0x1c6c(%rbp)
   131dd:	16 e9 48 
   131e0:	48 8b 05 31 f9 00 00 	mov    0xf931(%rip),%rax        # 22b18 <g_1130>
   131e7:	48 8b 00             	mov    (%rax),%rax
   131ea:	48 8d 95 e8 e2 ff ff 	lea    -0x1d18(%rbp),%rdx
   131f1:	48 89 10             	mov    %rdx,(%rax)
   131f4:	48 8b 85 c0 e4 ff ff 	mov    -0x1b40(%rbp),%rax
   131fb:	48 8b 10             	mov    (%rax),%rdx
   131fe:	48 8b 85 c0 e4 ff ff 	mov    -0x1b40(%rbp),%rax
   13205:	48 8b 00             	mov    (%rax),%rax
   13208:	0f b6 12             	movzbl (%rdx),%edx
   1320b:	88 10                	mov    %dl,(%rax)
   1320d:	c6 05 64 d2 00 00 00 	movb   $0x0,0xd264(%rip)        # 20478 <g_791>
   13214:	e9 d6 01 00 00       	jmpq   133ef <func_27+0x35fd>
   13219:	48 8b 85 b8 f3 ff ff 	mov    -0xc48(%rbp),%rax
   13220:	48 89 c3             	mov    %rax,%rbx
   13223:	48 8b 05 d6 f0 00 00 	mov    0xf0d6(%rip),%rax        # 22300 <g_496>
   1322a:	0f b7 00             	movzwl (%rax),%eax
   1322d:	98                   	cwtl   
   1322e:	48 8b 95 a0 e6 ff ff 	mov    -0x1960(%rbp),%rdx
   13235:	21 c2                	and    %eax,%edx
   13237:	48 8b 85 d8 e4 ff ff 	mov    -0x1b28(%rbp),%rax
   1323e:	48 8b 00             	mov    (%rax),%rax
   13241:	48 8b 00             	mov    (%rax),%rax
   13244:	48 8b 00             	mov    (%rax),%rax
   13247:	8b 00                	mov    (%rax),%eax
   13249:	21 c2                	and    %eax,%edx
   1324b:	0f b6 85 a0 e2 ff ff 	movzbl -0x1d60(%rbp),%eax
   13252:	89 d6                	mov    %edx,%esi
   13254:	89 c7                	mov    %eax,%edi
   13256:	e8 75 8c ff ff       	callq  bed0 <safe_sub_func_uint32_t_u_u>
   1325b:	98                   	cwtl   
   1325c:	be ff ff ff ff       	mov    $0xffffffff,%esi
   13261:	89 c7                	mov    %eax,%edi
   13263:	e8 8d 81 ff ff       	callq  b3f5 <safe_mul_func_int16_t_s_s>
   13268:	88 85 ac e2 ff ff    	mov    %al,-0x1d54(%rbp)
   1326e:	0f be 85 ac e2 ff ff 	movsbl -0x1d54(%rbp),%eax
   13275:	be 04 00 00 00       	mov    $0x4,%esi
   1327a:	89 c7                	mov    %eax,%edi
   1327c:	e8 b4 80 ff ff       	callq  b335 <safe_rshift_func_int8_t_s_s>
   13281:	48 8b 15 38 f9 00 00 	mov    0xf938(%rip),%rdx        # 22bc0 <g_1270>
   13288:	48 8d 85 20 e4 ff ff 	lea    -0x1be0(%rbp),%rax
   1328f:	48 39 c2             	cmp    %rax,%rdx
   13292:	0f 94 c0             	sete   %al
   13295:	0f b6 c0             	movzbl %al,%eax
   13298:	48 89 de             	mov    %rbx,%rsi
   1329b:	48 89 c7             	mov    %rax,%rdi
   1329e:	e8 11 87 ff ff       	callq  b9b4 <safe_mod_func_int64_t_s_s>
   132a3:	98                   	cwtl   
   132a4:	89 c6                	mov    %eax,%esi
   132a6:	bf 00 00 00 00       	mov    $0x0,%edi
   132ab:	e8 23 81 ff ff       	callq  b3d3 <safe_sub_func_int16_t_s_s>
   132b0:	0f b7 c0             	movzwl %ax,%eax
   132b3:	be 0f 00 00 00       	mov    $0xf,%esi
   132b8:	89 c7                	mov    %eax,%edi
   132ba:	e8 bb 8b ff ff       	callq  be7a <safe_rshift_func_uint16_t_u_u>
   132bf:	0f b7 c0             	movzwl %ax,%eax
   132c2:	39 85 a4 e2 ff ff    	cmp    %eax,-0x1d5c(%rbp)
   132c8:	0f 94 c0             	sete   %al
   132cb:	0f b6 c0             	movzbl %al,%eax
   132ce:	31 85 0c e3 ff ff    	xor    %eax,-0x1cf4(%rbp)
   132d4:	48 8b 85 b8 f3 ff ff 	mov    -0xc48(%rbp),%rax
   132db:	0f b7 d8             	movzwl %ax,%ebx
   132de:	48 83 bd f0 e4 ff ff 	cmpq   $0x0,-0x1b10(%rbp)
   132e5:	00 
   132e6:	0f 94 c0             	sete   %al
   132e9:	44 0f b6 e0          	movzbl %al,%r12d
   132ed:	0f b7 05 d8 d0 00 00 	movzwl 0xd0d8(%rip),%eax        # 203cc <g_433+0xc>
   132f4:	48 8b 05 d5 f7 00 00 	mov    0xf7d5(%rip),%rax        # 22ad0 <g_928>
   132fb:	48 8b 00             	mov    (%rax),%rax
   132fe:	0f b7 00             	movzwl (%rax),%eax
   13301:	44 0f bf e8          	movswl %ax,%r13d
   13305:	81 bd a4 e2 ff ff c5 	cmpl   $0xbac5,-0x1d5c(%rbp)
   1330c:	ba 00 00 
   1330f:	0f 94 c0             	sete   %al
   13312:	0f b6 c0             	movzbl %al,%eax
   13315:	89 85 40 e3 ff ff    	mov    %eax,-0x1cc0(%rbp)
   1331b:	0f b6 95 a0 e2 ff ff 	movzbl -0x1d60(%rbp),%edx
   13322:	48 8b 85 30 f4 ff ff 	mov    -0xbd0(%rbp),%rax
   13329:	48 89 d6             	mov    %rdx,%rsi
   1332c:	48 89 c7             	mov    %rax,%rdi
   1332f:	e8 4c 8d ff ff       	callq  c080 <safe_mod_func_uint64_t_u_u>
   13334:	0f b7 c0             	movzwl %ax,%eax
   13337:	8b 95 40 e3 ff ff    	mov    -0x1cc0(%rbp),%edx
   1333d:	89 d6                	mov    %edx,%esi
   1333f:	89 c7                	mov    %eax,%edi
   13341:	e8 78 8a ff ff       	callq  bdbe <safe_lshift_func_uint16_t_u_s>
   13346:	0f b7 c0             	movzwl %ax,%eax
   13349:	41 39 c5             	cmp    %eax,%r13d
   1334c:	0f 9c c0             	setl   %al
   1334f:	0f b6 c0             	movzbl %al,%eax
   13352:	89 c6                	mov    %eax,%esi
   13354:	bf 01 00 00 00       	mov    $0x1,%edi
   13359:	e8 58 82 ff ff       	callq  b5b6 <safe_add_func_int32_t_s_s>
   1335e:	85 c0                	test   %eax,%eax
   13360:	74 1f                	je     13381 <func_27+0x358f>
   13362:	0f b7 85 a8 e2 ff ff 	movzwl -0x1d58(%rbp),%eax
   13369:	66 85 c0             	test   %ax,%ax
   1336c:	74 13                	je     13381 <func_27+0x358f>
   1336e:	48 8b 05 13 18 01 00 	mov    0x11813(%rip),%rax        # 24b88 <g_715>
   13375:	48 85 c0             	test   %rax,%rax
   13378:	74 07                	je     13381 <func_27+0x358f>
   1337a:	ba 01 00 00 00       	mov    $0x1,%edx
   1337f:	eb 05                	jmp    13386 <func_27+0x3594>
   13381:	ba 00 00 00 00       	mov    $0x0,%edx
   13386:	b8 33 00 00 00       	mov    $0x33,%eax
   1338b:	0f b6 c0             	movzbl %al,%eax
   1338e:	39 c2                	cmp    %eax,%edx
   13390:	be 02 00 00 00       	mov    $0x2,%esi
   13395:	bf 01 00 00 00       	mov    $0x1,%edi
   1339a:	e8 cd 7f ff ff       	callq  b36c <safe_rshift_func_int8_t_s_u>
   1339f:	66 98                	cbtw   
   133a1:	44 09 e0             	or     %r12d,%eax
   133a4:	0f b7 c0             	movzwl %ax,%eax
   133a7:	89 de                	mov    %ebx,%esi
   133a9:	89 c7                	mov    %eax,%edi
   133ab:	e8 de 89 ff ff       	callq  bd8e <safe_div_func_uint16_t_u_u>
   133b0:	66 85 c0             	test   %ax,%ax
   133b3:	75 0c                	jne    133c1 <func_27+0x35cf>
   133b5:	48 8b 85 b8 f3 ff ff 	mov    -0xc48(%rbp),%rax
   133bc:	48 85 c0             	test   %rax,%rax
   133bf:	74 07                	je     133c8 <func_27+0x35d6>
   133c1:	ba 01 00 00 00       	mov    $0x1,%edx
   133c6:	eb 05                	jmp    133cd <func_27+0x35db>
   133c8:	ba 00 00 00 00       	mov    $0x0,%edx
   133cd:	48 8b 85 d8 e4 ff ff 	mov    -0x1b28(%rbp),%rax
   133d4:	48 8b 00             	mov    (%rax),%rax
   133d7:	48 8b 00             	mov    (%rax),%rax
   133da:	48 8b 00             	mov    (%rax),%rax
   133dd:	89 10                	mov    %edx,(%rax)
   133df:	0f b6 05 92 d0 00 00 	movzbl 0xd092(%rip),%eax        # 20478 <g_791>
   133e6:	83 c0 01             	add    $0x1,%eax
   133e9:	88 05 89 d0 00 00    	mov    %al,0xd089(%rip)        # 20478 <g_791>
   133ef:	0f b6 05 82 d0 00 00 	movzbl 0xd082(%rip),%eax        # 20478 <g_791>
   133f6:	3c 1d                	cmp    $0x1d,%al
   133f8:	0f 87 1b fe ff ff    	ja     13219 <func_27+0x3427>
   133fe:	48 c7 85 30 e4 ff ff 	movq   $0x6,-0x1bd0(%rbp)
   13405:	06 00 00 00 
   13409:	e9 9a 01 00 00       	jmpq   135a8 <func_27+0x37b6>
   1340e:	c7 85 98 e3 ff ff 01 	movl   $0x1,-0x1c68(%rbp)
   13415:	00 00 00 
   13418:	48 8d 85 c4 e2 ff ff 	lea    -0x1d3c(%rbp),%rax
   1341f:	48 89 85 58 e4 ff ff 	mov    %rax,-0x1ba8(%rbp)
   13426:	c7 85 9c e3 ff ff 96 	movl   $0x92e2596,-0x1c64(%rbp)
   1342d:	25 2e 09 
   13430:	83 bd a4 e2 ff ff 00 	cmpl   $0x0,-0x1d5c(%rbp)
   13437:	0f 85 7e 01 00 00    	jne    135bb <func_27+0x37c9>
   1343d:	48 8b 15 84 f6 00 00 	mov    0xf684(%rip),%rdx        # 22ac8 <g_908>
   13444:	48 8b 85 c0 e4 ff ff 	mov    -0x1b40(%rbp),%rax
   1344b:	48 8b 00             	mov    (%rax),%rax
   1344e:	0f b6 12             	movzbl (%rdx),%edx
   13451:	88 10                	mov    %dl,(%rax)
   13453:	83 ad 98 e3 ff ff 01 	subl   $0x1,-0x1c68(%rbp)
   1345a:	80 bd ac e2 ff ff 00 	cmpb   $0x0,-0x1d54(%rbp)
   13461:	0f 84 05 01 00 00    	je     1356c <func_27+0x377a>
   13467:	0f b7 85 a8 e2 ff ff 	movzwl -0x1d58(%rbp),%eax
   1346e:	0f b7 d8             	movzwl %ax,%ebx
   13471:	48 8b 85 08 e4 ff ff 	mov    -0x1bf8(%rbp),%rax
   13478:	48 8b 00             	mov    (%rax),%rax
   1347b:	48 8b 00             	mov    (%rax),%rax
   1347e:	8b 00                	mov    (%rax),%eax
   13480:	4c 63 e0             	movslq %eax,%r12
   13483:	48 8b 05 76 f6 00 00 	mov    0xf676(%rip),%rax        # 22b00 <g_1066>
   1348a:	48 83 bd e0 e4 ff ff 	cmpq   $0x0,-0x1b20(%rbp)
   13491:	00 
   13492:	0f 94 c0             	sete   %al
   13495:	0f b6 c0             	movzbl %al,%eax
   13498:	8b 95 98 e3 ff ff    	mov    -0x1c68(%rbp),%edx
   1349e:	09 d0                	or     %edx,%eax
   134a0:	44 0f b7 e8          	movzwl %ax,%r13d
   134a4:	8b 85 8c e3 ff ff    	mov    -0x1c74(%rbp),%eax
   134aa:	3d ff ff 00 00       	cmp    $0xffff,%eax
   134af:	0f 96 c0             	setbe  %al
   134b2:	0f b6 c8             	movzbl %al,%ecx
   134b5:	48 8b 15 e4 f5 00 00 	mov    0xf5e4(%rip),%rdx        # 22aa0 <g_549>
   134bc:	48 8b 05 e5 f5 00 00 	mov    0xf5e5(%rip),%rax        # 22aa8 <g_548>
   134c3:	48 8b 00             	mov    (%rax),%rax
   134c6:	0f b7 12             	movzwl (%rdx),%edx
   134c9:	66 89 10             	mov    %dx,(%rax)
   134cc:	0f b7 00             	movzwl (%rax),%eax
   134cf:	66 83 f8 01          	cmp    $0x1,%ax
   134d3:	0f 95 c0             	setne  %al
   134d6:	0f b6 c0             	movzbl %al,%eax
   134d9:	31 c8                	xor    %ecx,%eax
   134db:	0f b7 c0             	movzwl %ax,%eax
   134de:	be 06 00 00 00       	mov    $0x6,%esi
   134e3:	89 c7                	mov    %eax,%edi
   134e5:	e8 1c 89 ff ff       	callq  be06 <safe_lshift_func_uint16_t_u_u>
   134ea:	89 c2                	mov    %eax,%edx
   134ec:	48 8b 85 58 e4 ff ff 	mov    -0x1ba8(%rbp),%rax
   134f3:	0f b7 08             	movzwl (%rax),%ecx
   134f6:	48 8b 85 58 e4 ff ff 	mov    -0x1ba8(%rbp),%rax
   134fd:	21 ca                	and    %ecx,%edx
   134ff:	66 89 10             	mov    %dx,(%rax)
   13502:	0f b7 00             	movzwl (%rax),%eax
   13505:	0f b7 c0             	movzwl %ax,%eax
   13508:	44 89 ee             	mov    %r13d,%esi
   1350b:	89 c7                	mov    %eax,%edi
   1350d:	e8 2b 88 ff ff       	callq  bd3d <safe_mul_func_uint16_t_u_u>
   13512:	89 c2                	mov    %eax,%edx
   13514:	48 8b 05 b5 f5 00 00 	mov    0xf5b5(%rip),%rax        # 22ad0 <g_928>
   1351b:	48 8b 00             	mov    (%rax),%rax
   1351e:	66 89 10             	mov    %dx,(%rax)
   13521:	8b 05 15 cb 00 00    	mov    0xcb15(%rip),%eax        # 2003c <g_13+0xc>
   13527:	48 98                	cltq   
   13529:	4c 89 e6             	mov    %r12,%rsi
   1352c:	48 89 c7             	mov    %rax,%rdi
   1352f:	e8 74 83 ff ff       	callq  b8a8 <safe_sub_func_int64_t_s_s>
   13534:	8b 95 98 e3 ff ff    	mov    -0x1c68(%rbp),%edx
   1353a:	48 39 d0             	cmp    %rdx,%rax
   1353d:	0f 9f c0             	setg   %al
   13540:	0f b6 c0             	movzbl %al,%eax
   13543:	89 de                	mov    %ebx,%esi
   13545:	89 c7                	mov    %eax,%edi
   13547:	e8 f1 87 ff ff       	callq  bd3d <safe_mul_func_uint16_t_u_u>
   1354c:	0f b7 c0             	movzwl %ax,%eax
   1354f:	23 85 94 e3 ff ff    	and    -0x1c6c(%rbp),%eax
   13555:	21 85 44 e3 ff ff    	and    %eax,-0x1cbc(%rbp)
   1355b:	48 8b 95 20 fb ff ff 	mov    -0x4e0(%rbp),%rdx
   13562:	48 8d 85 58 e4 ff ff 	lea    -0x1ba8(%rbp),%rax
   13569:	48 39 c2             	cmp    %rax,%rdx
   1356c:	48 8b 05 45 f5 00 00 	mov    0xf545(%rip),%rax        # 22ab8 <g_809>
   13573:	48 c7 00 00 00 00 00 	movq   $0x0,(%rax)
   1357a:	48 8b 00             	mov    (%rax),%rax
   1357d:	48 85 c0             	test   %rax,%rax
   13580:	0f 95 c0             	setne  %al
   13583:	0f b6 c0             	movzbl %al,%eax
   13586:	31 85 9c e3 ff ff    	xor    %eax,-0x1c64(%rbp)
   1358c:	48 8b 85 30 e4 ff ff 	mov    -0x1bd0(%rbp),%rax
   13593:	be 07 00 00 00       	mov    $0x7,%esi
   13598:	89 c7                	mov    %eax,%edi
   1359a:	e8 66 80 ff ff       	callq  b605 <safe_sub_func_int32_t_s_s>
   1359f:	48 98                	cltq   
   135a1:	48 89 85 30 e4 ff ff 	mov    %rax,-0x1bd0(%rbp)
   135a8:	48 8b 85 30 e4 ff ff 	mov    -0x1bd0(%rbp),%rax
   135af:	48 83 f8 fc          	cmp    $0xfffffffffffffffc,%rax
   135b3:	0f 84 55 fe ff ff    	je     1340e <func_27+0x361c>
   135b9:	eb 01                	jmp    135bc <func_27+0x37ca>
   135bb:	90                   	nop
   135bc:	c7 05 d2 cf 00 00 00 	movl   $0x0,0xcfd2(%rip)        # 20598 <g_1086+0x18>
   135c3:	00 00 00 
   135c6:	e9 58 03 00 00       	jmpq   13923 <func_27+0x3b31>
   135cb:	c7 85 a0 e3 ff ff 00 	movl   $0x0,-0x1c60(%rbp)
   135d2:	00 00 00 
   135d5:	48 8d 85 70 e7 ff ff 	lea    -0x1890(%rbp),%rax
   135dc:	48 83 c0 28          	add    $0x28,%rax
   135e0:	48 89 85 10 e5 ff ff 	mov    %rax,-0x1af0(%rbp)
   135e7:	48 8b 85 08 e4 ff ff 	mov    -0x1bf8(%rbp),%rax
   135ee:	48 8b 00             	mov    (%rax),%rax
   135f1:	48 8b 00             	mov    (%rax),%rax
   135f4:	8b 00                	mov    (%rax),%eax
   135f6:	48 63 d8             	movslq %eax,%rbx
   135f9:	44 0f be a5 ac e2 ff 	movsbl -0x1d54(%rbp),%r12d
   13600:	ff 
   13601:	48 8b 85 08 e4 ff ff 	mov    -0x1bf8(%rbp),%rax
   13608:	48 8b 00             	mov    (%rax),%rax
   1360b:	48 8b 00             	mov    (%rax),%rax
   1360e:	44 8b 28             	mov    (%rax),%r13d
   13611:	48 8b 85 08 e4 ff ff 	mov    -0x1bf8(%rbp),%rax
   13618:	48 8b 00             	mov    (%rax),%rax
   1361b:	48 8b 00             	mov    (%rax),%rax
   1361e:	8b 00                	mov    (%rax),%eax
   13620:	44 0f be f0          	movsbl %al,%r14d
   13624:	0f b6 85 a0 e2 ff ff 	movzbl -0x1d60(%rbp),%eax
   1362b:	89 85 9c e2 ff ff    	mov    %eax,-0x1d64(%rbp)
   13631:	48 8b 85 80 e4 ff ff 	mov    -0x1b80(%rbp),%rax
   13638:	89 85 98 e2 ff ff    	mov    %eax,-0x1d68(%rbp)
   1363e:	48 8b 05 9b ec 00 00 	mov    0xec9b(%rip),%rax        # 222e0 <g_255>
   13645:	48 8b 00             	mov    (%rax),%rax
   13648:	48 89 85 90 e2 ff ff 	mov    %rax,-0x1d70(%rbp)
   1364f:	48 8b 85 08 e4 ff ff 	mov    -0x1bf8(%rbp),%rax
   13656:	48 8b 00             	mov    (%rax),%rax
   13659:	48 8b 00             	mov    (%rax),%rax
   1365c:	8b 00                	mov    (%rax),%eax
   1365e:	89 85 8c e2 ff ff    	mov    %eax,-0x1d74(%rbp)
   13664:	0f b7 85 a8 e2 ff ff 	movzwl -0x1d58(%rbp),%eax
   1366b:	4c 0f bf f8          	movswq %ax,%r15
   1366f:	0f b7 85 a8 e2 ff ff 	movzwl -0x1d58(%rbp),%eax
   13676:	98                   	cwtl   
   13677:	89 85 88 e2 ff ff    	mov    %eax,-0x1d78(%rbp)
   1367d:	8b 85 58 e3 ff ff    	mov    -0x1ca8(%rbp),%eax
   13683:	0f b6 c0             	movzbl %al,%eax
   13686:	be 01 00 00 00       	mov    $0x1,%esi
   1368b:	89 c7                	mov    %eax,%edi
   1368d:	e8 c8 84 ff ff       	callq  bb5a <safe_add_func_uint8_t_u_u>
   13692:	84 c0                	test   %al,%al
   13694:	74 13                	je     136a9 <func_27+0x38b7>
   13696:	0f b7 85 a8 e2 ff ff 	movzwl -0x1d58(%rbp),%eax
   1369d:	66 85 c0             	test   %ax,%ax
   136a0:	74 07                	je     136a9 <func_27+0x38b7>
   136a2:	b8 01 00 00 00       	mov    $0x1,%eax
   136a7:	eb 05                	jmp    136ae <func_27+0x38bc>
   136a9:	b8 00 00 00 00       	mov    $0x0,%eax
   136ae:	89 85 40 e3 ff ff    	mov    %eax,-0x1cc0(%rbp)
   136b4:	8b 85 40 e3 ff ff    	mov    -0x1cc0(%rbp),%eax
   136ba:	0f bf d0             	movswl %ax,%edx
   136bd:	48 8b 05 0c f4 00 00 	mov    0xf40c(%rip),%rax        # 22ad0 <g_928>
   136c4:	48 8b 00             	mov    (%rax),%rax
   136c7:	0f b7 08             	movzwl (%rax),%ecx
   136ca:	8b 85 78 e3 ff ff    	mov    -0x1c88(%rbp),%eax
   136d0:	89 c6                	mov    %eax,%esi
   136d2:	48 8b 05 f7 f3 00 00 	mov    0xf3f7(%rip),%rax        # 22ad0 <g_928>
   136d9:	48 8b 00             	mov    (%rax),%rax
   136dc:	31 f1                	xor    %esi,%ecx
   136de:	66 89 08             	mov    %cx,(%rax)
   136e1:	0f b7 00             	movzwl (%rax),%eax
   136e4:	98                   	cwtl   
   136e5:	89 d6                	mov    %edx,%esi
   136e7:	89 c7                	mov    %eax,%edi
   136e9:	e8 07 7d ff ff       	callq  b3f5 <safe_mul_func_int16_t_s_s>
   136ee:	98                   	cwtl   
   136ef:	8b b5 88 e2 ff ff    	mov    -0x1d78(%rbp),%esi
   136f5:	89 c7                	mov    %eax,%edi
   136f7:	e8 bc 87 ff ff       	callq  beb8 <safe_add_func_uint32_t_u_u>
   136fc:	89 c0                	mov    %eax,%eax
   136fe:	4c 89 fe             	mov    %r15,%rsi
   13701:	48 89 c7             	mov    %rax,%rdi
   13704:	e8 25 89 ff ff       	callq  c02e <safe_add_func_uint64_t_u_u>
   13709:	0f b6 95 a0 e2 ff ff 	movzbl -0x1d60(%rbp),%edx
   13710:	48 39 d0             	cmp    %rdx,%rax
   13713:	74 10                	je     13725 <func_27+0x3933>
   13715:	83 bd a4 e2 ff ff 00 	cmpl   $0x0,-0x1d5c(%rbp)
   1371c:	74 07                	je     13725 <func_27+0x3933>
   1371e:	b8 01 00 00 00       	mov    $0x1,%eax
   13723:	eb 05                	jmp    1372a <func_27+0x3938>
   13725:	b8 00 00 00 00       	mov    $0x0,%eax
   1372a:	3b 85 8c e2 ff ff    	cmp    -0x1d74(%rbp),%eax
   13730:	0f 94 c0             	sete   %al
   13733:	0f b6 c0             	movzbl %al,%eax
   13736:	48 8b b5 90 e2 ff ff 	mov    -0x1d70(%rbp),%rsi
   1373d:	48 89 c7             	mov    %rax,%rdi
   13740:	e8 63 81 ff ff       	callq  b8a8 <safe_sub_func_int64_t_s_s>
   13745:	48 85 c0             	test   %rax,%rax
   13748:	0f 94 c0             	sete   %al
   1374b:	0f b6 c0             	movzbl %al,%eax
   1374e:	8b b5 98 e2 ff ff    	mov    -0x1d68(%rbp),%esi
   13754:	89 c7                	mov    %eax,%edi
   13756:	e8 cf 7d ff ff       	callq  b52a <safe_rshift_func_int16_t_s_s>
   1375b:	98                   	cwtl   
   1375c:	f7 d0                	not    %eax
   1375e:	39 85 9c e2 ff ff    	cmp    %eax,-0x1d64(%rbp)
   13764:	0f 95 c2             	setne  %dl
   13767:	48 8b 05 72 eb 00 00 	mov    0xeb72(%rip),%rax        # 222e0 <g_255>
   1376e:	0f b6 d2             	movzbl %dl,%edx
   13771:	48 89 10             	mov    %rdx,(%rax)
   13774:	48 8b 05 55 f3 00 00 	mov    0xf355(%rip),%rax        # 22ad0 <g_928>
   1377b:	48 8b 00             	mov    (%rax),%rax
   1377e:	0f b7 00             	movzwl (%rax),%eax
   13781:	0f bf d0             	movswl %ax,%edx
   13784:	8b 85 b0 ef ff ff    	mov    -0x1050(%rbp),%eax
   1378a:	0f b7 c0             	movzwl %ax,%eax
   1378d:	89 d6                	mov    %edx,%esi
   1378f:	89 c7                	mov    %eax,%edi
   13791:	e8 28 86 ff ff       	callq  bdbe <safe_lshift_func_uint16_t_u_s>
   13796:	48 8b 05 63 f3 00 00 	mov    0xf363(%rip),%rax        # 22b00 <g_1066>
   1379d:	48 83 bd 10 e5 ff ff 	cmpq   $0x0,-0x1af0(%rbp)
   137a4:	00 
   137a5:	0f 95 c0             	setne  %al
   137a8:	0f b6 c0             	movzbl %al,%eax
   137ab:	44 89 f6             	mov    %r14d,%esi
   137ae:	89 c7                	mov    %eax,%edi
   137b0:	e8 3d 7a ff ff       	callq  b1f2 <safe_sub_func_int8_t_s_s>
   137b5:	0f b6 c0             	movzbl %al,%eax
   137b8:	44 89 ee             	mov    %r13d,%esi
   137bb:	89 c7                	mov    %eax,%edi
   137bd:	e8 cb 84 ff ff       	callq  bc8d <safe_rshift_func_uint8_t_u_s>
   137c2:	8b 85 90 e3 ff ff    	mov    -0x1c70(%rbp),%eax
   137c8:	0f be c0             	movsbl %al,%eax
   137cb:	44 89 e6             	mov    %r12d,%esi
   137ce:	89 c7                	mov    %eax,%edi
   137d0:	e8 ff 79 ff ff       	callq  b1d4 <safe_add_func_int8_t_s_s>
   137d5:	48 0f be c0          	movsbq %al,%rax
   137d9:	48 89 de             	mov    %rbx,%rsi
   137dc:	48 89 c7             	mov    %rax,%rdi
   137df:	e8 cb 88 ff ff       	callq  c0af <safe_div_func_uint64_t_u_u>
   137e4:	be 01 00 00 00       	mov    $0x1,%esi
   137e9:	48 89 c7             	mov    %rax,%rdi
   137ec:	e8 8f 88 ff ff       	callq  c080 <safe_mod_func_uint64_t_u_u>
   137f1:	48 85 c0             	test   %rax,%rax
   137f4:	74 11                	je     13807 <func_27+0x3a15>
   137f6:	8b 05 9c cd 00 00    	mov    0xcd9c(%rip),%eax        # 20598 <g_1086+0x18>
   137fc:	85 c0                	test   %eax,%eax
   137fe:	74 07                	je     13807 <func_27+0x3a15>
   13800:	b8 01 00 00 00       	mov    $0x1,%eax
   13805:	eb 05                	jmp    1380c <func_27+0x3a1a>
   13807:	b8 00 00 00 00       	mov    $0x0,%eax
   1380c:	48 63 d0             	movslq %eax,%rdx
   1380f:	8b 85 a0 e3 ff ff    	mov    -0x1c60(%rbp),%eax
   13815:	48 98                	cltq   
   13817:	48 89 d6             	mov    %rdx,%rsi
   1381a:	48 89 c7             	mov    %rax,%rdi
   1381d:	e8 43 88 ff ff       	callq  c065 <safe_mul_func_uint64_t_u_u>
   13822:	0f be c0             	movsbl %al,%eax
   13825:	be f8 ff ff ff       	mov    $0xfffffff8,%esi
   1382a:	89 c7                	mov    %eax,%edi
   1382c:	e8 e1 79 ff ff       	callq  b212 <safe_mul_func_int8_t_s_s>
   13831:	0f b6 85 ac e2 ff ff 	movzbl -0x1d54(%rbp),%eax
   13838:	f7 d0                	not    %eax
   1383a:	c0 e8 07             	shr    $0x7,%al
   1383d:	89 c2                	mov    %eax,%edx
   1383f:	48 8b 05 d2 f2 00 00 	mov    0xf2d2(%rip),%rax        # 22b18 <g_1130>
   13846:	48 8b 00             	mov    (%rax),%rax
   13849:	48 8b 00             	mov    (%rax),%rax
   1384c:	0f b6 d2             	movzbl %dl,%edx
   1384f:	89 10                	mov    %edx,(%rax)
   13851:	80 bd bf e2 ff ff 00 	cmpb   $0x0,-0x1d41(%rbp)
   13858:	0f 85 b5 00 00 00    	jne    13913 <func_27+0x3b21>
   1385e:	48 8b 85 08 e4 ff ff 	mov    -0x1bf8(%rbp),%rax
   13865:	48 8b 00             	mov    (%rax),%rax
   13868:	48 8b 00             	mov    (%rax),%rax
   1386b:	8b 08                	mov    (%rax),%ecx
   1386d:	8b 95 bc ef ff ff    	mov    -0x1044(%rbp),%edx
   13873:	48 8b 85 08 e4 ff ff 	mov    -0x1bf8(%rbp),%rax
   1387a:	48 8b 00             	mov    (%rax),%rax
   1387d:	48 8b 00             	mov    (%rax),%rax
   13880:	09 ca                	or     %ecx,%edx
   13882:	89 10                	mov    %edx,(%rax)
   13884:	8b 00                	mov    (%rax),%eax
   13886:	09 85 14 e3 ff ff    	or     %eax,-0x1cec(%rbp)
   1388c:	c7 85 10 e3 ff ff 0f 	movl   $0xf,-0x1cf0(%rbp)
   13893:	00 00 00 
   13896:	eb 70                	jmp    13908 <func_27+0x3b16>
   13898:	48 8b 15 29 f2 00 00 	mov    0xf229(%rip),%rdx        # 22ac8 <g_908>
   1389f:	48 8b 05 22 f2 00 00 	mov    0xf222(%rip),%rax        # 22ac8 <g_908>
   138a6:	0f b6 12             	movzbl (%rdx),%edx
   138a9:	88 10                	mov    %dl,(%rax)
   138ab:	48 8b 05 66 f2 00 00 	mov    0xf266(%rip),%rax        # 22b18 <g_1130>
   138b2:	48 8b 00             	mov    (%rax),%rax
   138b5:	48 8b 00             	mov    (%rax),%rax
   138b8:	8b 00                	mov    (%rax),%eax
   138ba:	31 85 40 e3 ff ff    	xor    %eax,-0x1cc0(%rbp)
   138c0:	48 8b 85 40 e4 ff ff 	mov    -0x1bc0(%rbp),%rax
   138c7:	48 89 85 98 e4 ff ff 	mov    %rax,-0x1b68(%rbp)
   138ce:	0f b7 95 a8 e2 ff ff 	movzwl -0x1d58(%rbp),%edx
   138d5:	48 8b 85 d8 e4 ff ff 	mov    -0x1b28(%rbp),%rax
   138dc:	48 8b 00             	mov    (%rax),%rax
   138df:	48 8b 00             	mov    (%rax),%rax
   138e2:	48 8b 00             	mov    (%rax),%rax
   138e5:	0f bf d2             	movswl %dx,%edx
   138e8:	89 10                	mov    %edx,(%rax)
   138ea:	8b 85 10 e3 ff ff    	mov    -0x1cf0(%rbp),%eax
   138f0:	0f be c0             	movsbl %al,%eax
   138f3:	be 03 00 00 00       	mov    $0x3,%esi
   138f8:	89 c7                	mov    %eax,%edi
   138fa:	e8 f3 78 ff ff       	callq  b1f2 <safe_sub_func_int8_t_s_s>
   138ff:	0f be c0             	movsbl %al,%eax
   13902:	89 85 10 e3 ff ff    	mov    %eax,-0x1cf0(%rbp)
   13908:	83 bd 10 e3 ff ff ee 	cmpl   $0xffffffee,-0x1cf0(%rbp)
   1390f:	75 87                	jne    13898 <func_27+0x3aa6>
   13911:	eb 01                	jmp    13914 <func_27+0x3b22>
   13913:	90                   	nop
   13914:	8b 05 7e cc 00 00    	mov    0xcc7e(%rip),%eax        # 20598 <g_1086+0x18>
   1391a:	83 c0 01             	add    $0x1,%eax
   1391d:	89 05 75 cc 00 00    	mov    %eax,0xcc75(%rip)        # 20598 <g_1086+0x18>
   13923:	8b 05 6f cc 00 00    	mov    0xcc6f(%rip),%eax        # 20598 <g_1086+0x18>
   13929:	85 c0                	test   %eax,%eax
   1392b:	0f 8e 9a fc ff ff    	jle    135cb <func_27+0x37d9>
   13931:	c7 85 00 e3 ff ff 01 	movl   $0x1,-0x1d00(%rbp)
   13938:	00 00 00 
   1393b:	e9 81 00 00 00       	jmpq   139c1 <func_27+0x3bcf>
   13940:	48 8b 05 d1 f1 00 00 	mov    0xf1d1(%rip),%rax        # 22b18 <g_1130>
   13947:	48 8b 10             	mov    (%rax),%rdx
   1394a:	48 8b 85 08 e4 ff ff 	mov    -0x1bf8(%rbp),%rax
   13951:	48 8b 00             	mov    (%rax),%rax
   13954:	48 8b 12             	mov    (%rdx),%rdx
   13957:	48 89 10             	mov    %rdx,(%rax)
   1395a:	48 8b 00             	mov    (%rax),%rax
   1395d:	48 89 85 e8 e4 ff ff 	mov    %rax,-0x1b18(%rbp)
   13964:	48 8b 05 7d f1 00 00 	mov    0xf17d(%rip),%rax        # 22ae8 <g_942>
   1396b:	48 8b 00             	mov    (%rax),%rax
   1396e:	48 8b 95 e8 e4 ff ff 	mov    -0x1b18(%rbp),%rdx
   13975:	48 89 10             	mov    %rdx,(%rax)
   13978:	8b 85 00 e3 ff ff    	mov    -0x1d00(%rbp),%eax
   1397e:	83 c0 02             	add    $0x2,%eax
   13981:	48 98                	cltq   
   13983:	8b 84 85 20 e6 ff ff 	mov    -0x19e0(%rbp,%rax,4),%eax
   1398a:	85 c0                	test   %eax,%eax
   1398c:	75 2b                	jne    139b9 <func_27+0x3bc7>
   1398e:	48 c7 05 d7 11 01 00 	movq   $0x0,0x111d7(%rip)        # 24b70 <g_256>
   13995:	00 00 00 00 
   13999:	90                   	nop
   1399a:	48 8b 05 cf 11 01 00 	mov    0x111cf(%rip),%rax        # 24b70 <g_256>
   139a1:	48 83 f8 01          	cmp    $0x1,%rax
   139a5:	77 13                	ja     139ba <func_27+0x3bc8>
   139a7:	48 8b 05 22 f1 00 00 	mov    0xf122(%rip),%rax        # 22ad0 <g_928>
   139ae:	48 8b 00             	mov    (%rax),%rax
   139b1:	0f b7 00             	movzwl (%rax),%eax
   139b4:	e9 35 02 00 00       	jmpq   13bee <func_27+0x3dfc>
   139b9:	90                   	nop
   139ba:	83 ad 00 e3 ff ff 01 	subl   $0x1,-0x1d00(%rbp)
   139c1:	83 bd 00 e3 ff ff 00 	cmpl   $0x0,-0x1d00(%rbp)
   139c8:	0f 89 72 ff ff ff    	jns    13940 <func_27+0x3b4e>
   139ce:	48 8b 05 d3 f0 00 00 	mov    0xf0d3(%rip),%rax        # 22aa8 <g_548>
   139d5:	48 8b 10             	mov    (%rax),%rdx
   139d8:	48 8b 85 78 e4 ff ff 	mov    -0x1b88(%rbp),%rax
   139df:	48 8b 00             	mov    (%rax),%rax
   139e2:	48 8b 00             	mov    (%rax),%rax
   139e5:	0f b7 12             	movzwl (%rdx),%edx
   139e8:	66 89 10             	mov    %dx,(%rax)
   139eb:	48 8b 05 ce f1 00 00 	mov    0xf1ce(%rip),%rax        # 22bc0 <g_1270>
   139f2:	48 8b 00             	mov    (%rax),%rax
   139f5:	0f b6 00             	movzbl (%rax),%eax
   139f8:	0f be c0             	movsbl %al,%eax
   139fb:	89 c6                	mov    %eax,%esi
   139fd:	bf ff ff ff ff       	mov    $0xffffffff,%edi
   13a02:	e8 eb 77 ff ff       	callq  b1f2 <safe_sub_func_int8_t_s_s>
   13a07:	84 c0                	test   %al,%al
   13a09:	74 13                	je     13a1e <func_27+0x3c2c>
   13a0b:	8b 85 0c e6 ff ff    	mov    -0x19f4(%rbp),%eax
   13a11:	98                   	cwtl   
   13a12:	be 01 00 00 00       	mov    $0x1,%esi
   13a17:	89 c7                	mov    %eax,%edi
   13a19:	e8 45 7b ff ff       	callq  b563 <safe_rshift_func_int16_t_s_u>
   13a1e:	ba 00 00 00 00       	mov    $0x0,%edx
   13a23:	48 8b 85 d8 e4 ff ff 	mov    -0x1b28(%rbp),%rax
   13a2a:	48 8b 00             	mov    (%rax),%rax
   13a2d:	48 8b 00             	mov    (%rax),%rax
   13a30:	48 8b 00             	mov    (%rax),%rax
   13a33:	89 10                	mov    %edx,(%rax)
   13a35:	8b 85 88 e3 ff ff    	mov    -0x1c78(%rbp),%eax
   13a3b:	66 89 85 ce e2 ff ff 	mov    %ax,-0x1d32(%rbp)
   13a42:	be 01 00 00 00       	mov    $0x1,%esi
   13a47:	bf de 10 32 b6       	mov    $0xb63210de,%edi
   13a4c:	e8 b4 7b ff ff       	callq  b605 <safe_sub_func_int32_t_s_s>
   13a51:	48 8b 15 18 11 01 00 	mov    0x11118(%rip),%rdx        # 24b70 <g_256>
   13a58:	48 83 fa 08          	cmp    $0x8,%rdx
   13a5c:	0f 94 c2             	sete   %dl
   13a5f:	0f b6 d2             	movzbl %dl,%edx
   13a62:	39 95 6c e3 ff ff    	cmp    %edx,-0x1c94(%rbp)
   13a68:	0f 9c c2             	setl   %dl
   13a6b:	0f b6 d2             	movzbl %dl,%edx
   13a6e:	39 d0                	cmp    %edx,%eax
   13a70:	0f 9d c2             	setge  %dl
   13a73:	48 8b 85 08 e4 ff ff 	mov    -0x1bf8(%rbp),%rax
   13a7a:	48 8b 00             	mov    (%rax),%rax
   13a7d:	48 8b 00             	mov    (%rax),%rax
   13a80:	0f b6 d2             	movzbl %dl,%edx
   13a83:	89 10                	mov    %edx,(%rax)
   13a85:	48 8b 85 a0 e4 ff ff 	mov    -0x1b60(%rbp),%rax
   13a8c:	c6 00 a2             	movb   $0xa2,(%rax)
   13a8f:	b9 01 00 00 00       	mov    $0x1,%ecx
   13a94:	48 8b 05 7d f0 00 00 	mov    0xf07d(%rip),%rax        # 22b18 <g_1130>
   13a9b:	48 8b 00             	mov    (%rax),%rax
   13a9e:	48 8b 00             	mov    (%rax),%rax
   13aa1:	8b 10                	mov    (%rax),%edx
   13aa3:	48 8b 05 6e f0 00 00 	mov    0xf06e(%rip),%rax        # 22b18 <g_1130>
   13aaa:	48 8b 00             	mov    (%rax),%rax
   13aad:	48 8b 00             	mov    (%rax),%rax
   13ab0:	31 ca                	xor    %ecx,%edx
   13ab2:	89 10                	mov    %edx,(%rax)
   13ab4:	48 8b 05 15 f0 00 00 	mov    0xf015(%rip),%rax        # 22ad0 <g_928>
   13abb:	48 8b 00             	mov    (%rax),%rax
   13abe:	0f b7 00             	movzwl (%rax),%eax
   13ac1:	0f b7 d8             	movzwl %ax,%ebx
   13ac4:	66 0f be 85 ac e2 ff 	movsbw -0x1d54(%rbp),%ax
   13acb:	ff 
   13acc:	44 0f b7 e0          	movzwl %ax,%r12d
   13ad0:	48 8b 05 f1 ef 00 00 	mov    0xeff1(%rip),%rax        # 22ac8 <g_908>
   13ad7:	48 8b 05 c2 ef 00 00 	mov    0xefc2(%rip),%rax        # 22aa0 <g_549>
   13ade:	0f b7 00             	movzwl (%rax),%eax
   13ae1:	44 0f bf e8          	movswl %ax,%r13d
   13ae5:	48 8b 85 08 e4 ff ff 	mov    -0x1bf8(%rbp),%rax
   13aec:	48 8b 00             	mov    (%rax),%rax
   13aef:	48 8b 00             	mov    (%rax),%rax
   13af2:	8b 00                	mov    (%rax),%eax
   13af4:	41 89 c7             	mov    %eax,%r15d
   13af7:	8b 85 e4 e2 ff ff    	mov    -0x1d1c(%rbp),%eax
   13afd:	44 0f b6 f0          	movzbl %al,%r14d
   13b01:	8b 85 dc e2 ff ff    	mov    -0x1d24(%rbp),%eax
   13b07:	98                   	cwtl   
   13b08:	be 00 00 00 00       	mov    $0x0,%esi
   13b0d:	89 c7                	mov    %eax,%edi
   13b0f:	e8 7e 79 ff ff       	callq  b492 <safe_lshift_func_int16_t_s_s>
   13b14:	0f b6 c0             	movzbl %al,%eax
   13b17:	44 89 f6             	mov    %r14d,%esi
   13b1a:	89 c7                	mov    %eax,%edi
   13b1c:	e8 8d 80 ff ff       	callq  bbae <safe_mod_func_uint8_t_u_u>
   13b21:	44 89 fe             	mov    %r15d,%esi
   13b24:	bf 00 00 00 00       	mov    $0x0,%edi
   13b29:	e8 c0 77 ff ff       	callq  b2ee <safe_lshift_func_int8_t_s_u>
   13b2e:	8b 85 e0 e2 ff ff    	mov    -0x1d20(%rbp),%eax
   13b34:	3d 93 e6 00 00       	cmp    $0xe693,%eax
   13b39:	0f 9f c0             	setg   %al
   13b3c:	0f b6 c0             	movzbl %al,%eax
   13b3f:	44 89 ee             	mov    %r13d,%esi
   13b42:	89 c7                	mov    %eax,%edi
   13b44:	e8 cd 78 ff ff       	callq  b416 <safe_mod_func_int16_t_s_s>
   13b49:	48 8b 85 08 e4 ff ff 	mov    -0x1bf8(%rbp),%rax
   13b50:	48 8b 00             	mov    (%rax),%rax
   13b53:	48 8b 00             	mov    (%rax),%rax
   13b56:	8b 00                	mov    (%rax),%eax
   13b58:	48 63 d0             	movslq %eax,%rdx
   13b5b:	48 8b 05 7e e7 00 00 	mov    0xe77e(%rip),%rax        # 222e0 <g_255>
   13b62:	48 8b 00             	mov    (%rax),%rax
   13b65:	48 39 c2             	cmp    %rax,%rdx
   13b68:	0f 93 c0             	setae  %al
   13b6b:	0f b6 d0             	movzbl %al,%edx
   13b6e:	48 8b 05 5b ef 00 00 	mov    0xef5b(%rip),%rax        # 22ad0 <g_928>
   13b75:	48 8b 00             	mov    (%rax),%rax
   13b78:	0f b7 00             	movzwl (%rax),%eax
   13b7b:	21 d0                	and    %edx,%eax
   13b7d:	0f b7 c0             	movzwl %ax,%eax
   13b80:	44 89 e6             	mov    %r12d,%esi
   13b83:	89 c7                	mov    %eax,%edi
   13b85:	e8 b3 81 ff ff       	callq  bd3d <safe_mul_func_uint16_t_u_u>
   13b8a:	0f b6 c0             	movzbl %al,%eax
   13b8d:	be 04 00 00 00       	mov    $0x4,%esi
   13b92:	89 c7                	mov    %eax,%edi
   13b94:	e8 c1 7f ff ff       	callq  bb5a <safe_add_func_uint8_t_u_u>
   13b99:	48 8b 05 08 ef 00 00 	mov    0xef08(%rip),%rax        # 22aa8 <g_548>
   13ba0:	48 8b 00             	mov    (%rax),%rax
   13ba3:	0f b7 00             	movzwl (%rax),%eax
   13ba6:	66 35 9d 8e          	xor    $0x8e9d,%ax
   13baa:	0f b7 c0             	movzwl %ax,%eax
   13bad:	89 de                	mov    %ebx,%esi
   13baf:	89 c7                	mov    %eax,%edi
   13bb1:	e8 d8 81 ff ff       	callq  bd8e <safe_div_func_uint16_t_u_u>
   13bb6:	80 bd a0 e2 ff ff 00 	cmpb   $0x0,-0x1d60(%rbp)
   13bbd:	74 12                	je     13bd1 <func_27+0x3ddf>
   13bbf:	c7 85 04 e4 ff ff fc 	movl   $0xfffffffc,-0x1bfc(%rbp)
   13bc6:	ff ff ff 
   13bc9:	8b 85 04 e4 ff ff    	mov    -0x1bfc(%rbp),%eax
   13bcf:	eb 1d                	jmp    13bee <func_27+0x3dfc>
   13bd1:	66 0f be 85 ac e2 ff 	movsbw -0x1d54(%rbp),%ax
   13bd8:	ff 
   13bd9:	eb 13                	jmp    13bee <func_27+0x3dfc>
   13bdb:	80 bd a0 e2 ff ff 2a 	cmpb   $0x2a,-0x1d60(%rbp)
   13be2:	0f 86 a8 c4 ff ff    	jbe    10090 <func_27+0x29e>
   13be8:	8b 85 a4 e2 ff ff    	mov    -0x1d5c(%rbp),%eax
   13bee:	48 8b 5d c8          	mov    -0x38(%rbp),%rbx
   13bf2:	64 48 33 1c 25 28 00 	xor    %fs:0x28,%rbx
   13bf9:	00 00 
   13bfb:	74 05                	je     13c02 <func_27+0x3e10>
   13bfd:	e8 6e 74 ff ff       	callq  b070 <__stack_chk_fail@plt>
   13c02:	48 81 c4 58 1d 00 00 	add    $0x1d58,%rsp
   13c09:	5b                   	pop    %rbx
   13c0a:	41 5c                	pop    %r12
   13c0c:	41 5d                	pop    %r13
   13c0e:	41 5e                	pop    %r14
   13c10:	41 5f                	pop    %r15
   13c12:	5d                   	pop    %rbp
   13c13:	c3                   	retq   

0000000000013c14 <func_39>:
   13c14:	f3 0f 1e fa          	endbr64 
   13c18:	55                   	push   %rbp
   13c19:	48 89 e5             	mov    %rsp,%rbp
   13c1c:	41 56                	push   %r14
   13c1e:	41 55                	push   %r13
   13c20:	41 54                	push   %r12
   13c22:	53                   	push   %rbx
   13c23:	48 81 ec d0 0b 00 00 	sub    $0xbd0,%rsp
   13c2a:	89 f8                	mov    %edi,%eax
   13c2c:	89 b5 28 f4 ff ff    	mov    %esi,-0xbd8(%rbp)
   13c32:	89 95 24 f4 ff ff    	mov    %edx,-0xbdc(%rbp)
   13c38:	89 8d 20 f4 ff ff    	mov    %ecx,-0xbe0(%rbp)
   13c3e:	4c 89 85 18 f4 ff ff 	mov    %r8,-0xbe8(%rbp)
   13c45:	88 85 2c f4 ff ff    	mov    %al,-0xbd4(%rbp)
   13c4b:	64 48 8b 04 25 28 00 	mov    %fs:0x28,%rax
   13c52:	00 00 
   13c54:	48 89 45 d8          	mov    %rax,-0x28(%rbp)
   13c58:	31 c0                	xor    %eax,%eax
   13c5a:	48 b8 0d f1 ee 57 66 	movabs $0xacdd1f6657eef10d,%rax
   13c61:	1f dd ac 
   13c64:	48 89 85 a0 f5 ff ff 	mov    %rax,-0xa60(%rbp)
   13c6b:	48 c7 85 a8 f5 ff ff 	movq   $0x0,-0xa58(%rbp)
   13c72:	00 00 00 00 
   13c76:	48 bb 95 fb 49 f8 5a 	movabs $0xc837e05af849fb95,%rbx
   13c7d:	e0 37 c8 
   13c80:	48 89 9d b0 f5 ff ff 	mov    %rbx,-0xa50(%rbp)
   13c87:	48 89 85 b8 f5 ff ff 	mov    %rax,-0xa48(%rbp)
   13c8e:	48 c7 85 c0 f5 ff ff 	movq   $0xffffffffffffffff,-0xa40(%rbp)
   13c95:	ff ff ff ff 
   13c99:	48 c7 85 c8 f5 ff ff 	movq   $0xffffffffffffffff,-0xa38(%rbp)
   13ca0:	ff ff ff ff 
   13ca4:	48 c7 85 d0 f5 ff ff 	movq   $0xffffffffffffffff,-0xa30(%rbp)
   13cab:	ff ff ff ff 
   13caf:	48 89 85 d8 f5 ff ff 	mov    %rax,-0xa28(%rbp)
   13cb6:	48 89 9d e0 f5 ff ff 	mov    %rbx,-0xa20(%rbp)
   13cbd:	48 c7 85 e8 f5 ff ff 	movq   $0x0,-0xa18(%rbp)
   13cc4:	00 00 00 00 
   13cc8:	48 89 85 f0 f5 ff ff 	mov    %rax,-0xa10(%rbp)
   13ccf:	48 c7 85 f8 f5 ff ff 	movq   $0x0,-0xa08(%rbp)
   13cd6:	00 00 00 00 
   13cda:	48 8d 05 6b c3 00 00 	lea    0xc36b(%rip),%rax        # 2004c <g_47>
   13ce1:	48 89 85 68 f4 ff ff 	mov    %rax,-0xb98(%rbp)
   13ce8:	48 8d 85 68 f4 ff ff 	lea    -0xb98(%rbp),%rax
   13cef:	48 89 85 70 f4 ff ff 	mov    %rax,-0xb90(%rbp)
   13cf6:	48 c7 85 78 f4 ff ff 	movq   $0x0,-0xb88(%rbp)
   13cfd:	00 00 00 00 
   13d01:	c7 85 48 f4 ff ff fa 	movl   $0xfffffffa,-0xbb8(%rbp)
   13d08:	ff ff ff 
   13d0b:	66 c7 85 10 f5 ff ff 	movw   $0xffff,-0xaf0(%rbp)
   13d12:	ff ff 
   13d14:	66 c7 85 12 f5 ff ff 	movw   $0x3,-0xaee(%rbp)
   13d1b:	03 00 
   13d1d:	66 c7 85 14 f5 ff ff 	movw   $0x3,-0xaec(%rbp)
   13d24:	03 00 
   13d26:	66 c7 85 16 f5 ff ff 	movw   $0xffff,-0xaea(%rbp)
   13d2d:	ff ff 
   13d2f:	66 c7 85 18 f5 ff ff 	movw   $0x3,-0xae8(%rbp)
   13d36:	03 00 
   13d38:	66 c7 85 1a f5 ff ff 	movw   $0x3,-0xae6(%rbp)
   13d3f:	03 00 
   13d41:	66 c7 85 1c f5 ff ff 	movw   $0xffff,-0xae4(%rbp)
   13d48:	ff ff 
   13d4a:	66 c7 85 1e f5 ff ff 	movw   $0x3,-0xae2(%rbp)
   13d51:	03 00 
   13d53:	48 c7 85 a0 f4 ff ff 	movq   $0x0,-0xb60(%rbp)
   13d5a:	00 00 00 00 
   13d5e:	c6 85 39 f4 ff ff c1 	movb   $0xc1,-0xbc7(%rbp)
   13d65:	48 c7 85 a8 f4 ff ff 	movq   $0x0,-0xb58(%rbp)
   13d6c:	00 00 00 00 
   13d70:	48 8d 05 49 e5 00 00 	lea    0xe549(%rip),%rax        # 222c0 <g_154>
   13d77:	48 89 85 00 f6 ff ff 	mov    %rax,-0xa00(%rbp)
   13d7e:	48 8d 05 43 e5 00 00 	lea    0xe543(%rip),%rax        # 222c8 <g_154+0x8>
   13d85:	48 89 85 08 f6 ff ff 	mov    %rax,-0x9f8(%rbp)
   13d8c:	48 8d 05 2d e5 00 00 	lea    0xe52d(%rip),%rax        # 222c0 <g_154>
   13d93:	48 89 85 10 f6 ff ff 	mov    %rax,-0x9f0(%rbp)
   13d9a:	48 8d 05 27 e5 00 00 	lea    0xe527(%rip),%rax        # 222c8 <g_154+0x8>
   13da1:	48 89 85 18 f6 ff ff 	mov    %rax,-0x9e8(%rbp)
   13da8:	48 8d 05 11 e5 00 00 	lea    0xe511(%rip),%rax        # 222c0 <g_154>
   13daf:	48 89 85 20 f6 ff ff 	mov    %rax,-0x9e0(%rbp)
   13db6:	48 8d 05 0b e5 00 00 	lea    0xe50b(%rip),%rax        # 222c8 <g_154+0x8>
   13dbd:	48 89 85 28 f6 ff ff 	mov    %rax,-0x9d8(%rbp)
   13dc4:	48 8d 05 f5 e4 00 00 	lea    0xe4f5(%rip),%rax        # 222c0 <g_154>
   13dcb:	48 89 85 30 f6 ff ff 	mov    %rax,-0x9d0(%rbp)
   13dd2:	48 8d 05 ef e4 00 00 	lea    0xe4ef(%rip),%rax        # 222c8 <g_154+0x8>
   13dd9:	48 89 85 38 f6 ff ff 	mov    %rax,-0x9c8(%rbp)
   13de0:	48 8d 05 d9 e4 00 00 	lea    0xe4d9(%rip),%rax        # 222c0 <g_154>
   13de7:	48 89 85 40 f6 ff ff 	mov    %rax,-0x9c0(%rbp)
   13dee:	48 8d 05 d3 e4 00 00 	lea    0xe4d3(%rip),%rax        # 222c8 <g_154+0x8>
   13df5:	48 89 85 48 f6 ff ff 	mov    %rax,-0x9b8(%rbp)
   13dfc:	48 8d 05 bd e4 00 00 	lea    0xe4bd(%rip),%rax        # 222c0 <g_154>
   13e03:	48 89 85 50 f6 ff ff 	mov    %rax,-0x9b0(%rbp)
   13e0a:	48 8d 05 b7 e4 00 00 	lea    0xe4b7(%rip),%rax        # 222c8 <g_154+0x8>
   13e11:	48 89 85 58 f6 ff ff 	mov    %rax,-0x9a8(%rbp)
   13e18:	48 8d 05 a1 e4 00 00 	lea    0xe4a1(%rip),%rax        # 222c0 <g_154>
   13e1f:	48 89 85 60 f6 ff ff 	mov    %rax,-0x9a0(%rbp)
   13e26:	48 8d 05 9b e4 00 00 	lea    0xe49b(%rip),%rax        # 222c8 <g_154+0x8>
   13e2d:	48 89 85 68 f6 ff ff 	mov    %rax,-0x998(%rbp)
   13e34:	48 8d 05 85 e4 00 00 	lea    0xe485(%rip),%rax        # 222c0 <g_154>
   13e3b:	48 89 85 70 f6 ff ff 	mov    %rax,-0x990(%rbp)
   13e42:	48 8d 05 7f e4 00 00 	lea    0xe47f(%rip),%rax        # 222c8 <g_154+0x8>
   13e49:	48 89 85 78 f6 ff ff 	mov    %rax,-0x988(%rbp)
   13e50:	c7 85 4c f4 ff ff f6 	movl   $0xfffffff6,-0xbb4(%rbp)
   13e57:	ff ff ff 
   13e5a:	48 c7 85 b0 f4 ff ff 	movq   $0x0,-0xb50(%rbp)
   13e61:	00 00 00 00 
   13e65:	c7 45 d3 26 26 26 26 	movl   $0x26262626,-0x2d(%rbp)
   13e6c:	c6 45 d7 26          	movb   $0x26,-0x29(%rbp)
   13e70:	48 8d 85 80 f6 ff ff 	lea    -0x980(%rbp),%rax
   13e77:	48 8d 15 02 88 00 00 	lea    0x8802(%rip),%rdx        # 1c680 <g_2850+0x1520>
   13e7e:	b9 51 00 00 00       	mov    $0x51,%ecx
   13e83:	48 89 c7             	mov    %rax,%rdi
   13e86:	48 89 d6             	mov    %rdx,%rsi
   13e89:	f3 48 a5             	rep movsq %ds:(%rsi),%es:(%rdi)
   13e8c:	c7 85 40 f4 ff ff 00 	movl   $0x0,-0xbc0(%rbp)
   13e93:	00 00 00 
   13e96:	eb 1e                	jmp    13eb6 <func_39+0x2a2>
   13e98:	8b 85 40 f4 ff ff    	mov    -0xbc0(%rbp),%eax
   13e9e:	48 98                	cltq   
   13ea0:	48 8d 15 f9 eb 00 00 	lea    0xebf9(%rip),%rdx        # 22aa0 <g_549>
   13ea7:	48 89 94 c5 30 f5 ff 	mov    %rdx,-0xad0(%rbp,%rax,8)
   13eae:	ff 
   13eaf:	83 85 40 f4 ff ff 01 	addl   $0x1,-0xbc0(%rbp)
   13eb6:	83 bd 40 f4 ff ff 04 	cmpl   $0x4,-0xbc0(%rbp)
   13ebd:	7e d9                	jle    13e98 <func_39+0x284>
   13ebf:	c7 85 24 f4 ff ff 00 	movl   $0x0,-0xbdc(%rbp)
   13ec6:	00 00 00 
   13ec9:	83 bd 24 f4 ff ff 01 	cmpl   $0x1,-0xbdc(%rbp)
   13ed0:	77 15                	ja     13ee7 <func_39+0x2d3>
   13ed2:	66 c7 85 3e f4 ff ff 	movw   $0x2a5,-0xbc2(%rbp)
   13ed9:	a5 02 
   13edb:	0f b7 85 3e f4 ff ff 	movzwl -0xbc2(%rbp),%eax
   13ee2:	e9 7f 03 00 00       	jmpq   14266 <func_39+0x652>
   13ee7:	c7 85 24 f4 ff ff 00 	movl   $0x0,-0xbdc(%rbp)
   13eee:	00 00 00 
   13ef1:	e9 03 02 00 00       	jmpq   140f9 <func_39+0x4e5>
   13ef6:	48 8d 85 70 f4 ff ff 	lea    -0xb90(%rbp),%rax
   13efd:	48 89 85 c0 f4 ff ff 	mov    %rax,-0xb40(%rbp)
   13f04:	48 8d 05 41 c1 00 00 	lea    0xc141(%rip),%rax        # 2004c <g_47>
   13f0b:	48 89 85 80 f4 ff ff 	mov    %rax,-0xb80(%rbp)
   13f12:	c7 85 54 f4 ff ff 08 	movl   $0x8,-0xbac(%rbp)
   13f19:	00 00 00 
   13f1c:	c7 85 58 f4 ff ff 5a 	movl   $0xed168d5a,-0xba8(%rbp)
   13f23:	8d 16 ed 
   13f26:	48 8d 05 cb e3 00 00 	lea    0xe3cb(%rip),%rax        # 222f8 <g_431>
   13f2d:	48 89 85 88 f4 ff ff 	mov    %rax,-0xb78(%rbp)
   13f34:	48 8d 85 88 f4 ff ff 	lea    -0xb78(%rbp),%rax
   13f3b:	48 89 85 c8 f4 ff ff 	mov    %rax,-0xb38(%rbp)
   13f42:	48 8d 05 60 c4 00 00 	lea    0xc460(%rip),%rax        # 203a9 <g_146+0x3>
   13f49:	48 89 85 d0 f4 ff ff 	mov    %rax,-0xb30(%rbp)
   13f50:	c7 85 5c f4 ff ff 8c 	movl   $0xdd46528c,-0xba4(%rbp)
   13f57:	52 46 dd 
   13f5a:	c7 85 60 f4 ff ff fd 	movl   $0xfffffffd,-0xba0(%rbp)
   13f61:	ff ff ff 
   13f64:	48 c7 85 d8 f4 ff ff 	movq   $0x0,-0xb28(%rbp)
   13f6b:	00 00 00 00 
   13f6f:	48 8b 95 70 f4 ff ff 	mov    -0xb90(%rbp),%rdx
   13f76:	48 8b 85 c0 f4 ff ff 	mov    -0xb40(%rbp),%rax
   13f7d:	48 89 10             	mov    %rdx,(%rax)
   13f80:	c6 05 c5 c0 00 00 00 	movb   $0x0,0xc0c5(%rip)        # 2004c <g_47>
   13f87:	e9 57 01 00 00       	jmpq   140e3 <func_39+0x4cf>
   13f8c:	48 8d 05 61 c1 00 00 	lea    0xc161(%rip),%rax        # 200f4 <g_117+0x74>
   13f93:	48 89 85 e0 f4 ff ff 	mov    %rax,-0xb20(%rbp)
   13f9a:	48 b8 f0 13 a4 b1 4d 	movabs $0xf3bacb4db1a413f0,%rax
   13fa1:	cb ba f3 
   13fa4:	48 89 85 e8 f4 ff ff 	mov    %rax,-0xb18(%rbp)
   13fab:	48 8d 85 80 f4 ff ff 	lea    -0xb80(%rbp),%rax
   13fb2:	48 89 85 60 f5 ff ff 	mov    %rax,-0xaa0(%rbp)
   13fb9:	48 8d 85 80 f4 ff ff 	lea    -0xb80(%rbp),%rax
   13fc0:	48 89 85 68 f5 ff ff 	mov    %rax,-0xa98(%rbp)
   13fc7:	48 8d 85 80 f4 ff ff 	lea    -0xb80(%rbp),%rax
   13fce:	48 89 85 70 f5 ff ff 	mov    %rax,-0xa90(%rbp)
   13fd5:	48 8d 85 80 f4 ff ff 	lea    -0xb80(%rbp),%rax
   13fdc:	48 89 85 78 f5 ff ff 	mov    %rax,-0xa88(%rbp)
   13fe3:	48 8d 85 80 f4 ff ff 	lea    -0xb80(%rbp),%rax
   13fea:	48 89 85 80 f5 ff ff 	mov    %rax,-0xa80(%rbp)
   13ff1:	48 8d 85 80 f4 ff ff 	lea    -0xb80(%rbp),%rax
   13ff8:	48 89 85 88 f5 ff ff 	mov    %rax,-0xa78(%rbp)
   13fff:	48 8d 85 80 f4 ff ff 	lea    -0xb80(%rbp),%rax
   14006:	48 89 85 90 f5 ff ff 	mov    %rax,-0xa70(%rbp)
   1400d:	48 8d 85 10 f9 ff ff 	lea    -0x6f0(%rbp),%rax
   14014:	48 8d 15 45 d8 00 00 	lea    0xd845(%rip),%rdx        # 21860 <g_2871+0x1018>
   1401b:	b9 d8 00 00 00       	mov    $0xd8,%ecx
   14020:	48 89 c7             	mov    %rax,%rdi
   14023:	48 89 d6             	mov    %rdx,%rsi
   14026:	f3 48 a5             	rep movsq %ds:(%rsi),%es:(%rdi)
   14029:	48 8d 85 10 f9 ff ff 	lea    -0x6f0(%rbp),%rax
   14030:	48 83 c0 20          	add    $0x20,%rax
   14034:	48 89 85 f0 f4 ff ff 	mov    %rax,-0xb10(%rbp)
   1403b:	48 8d 05 5e e2 00 00 	lea    0xe25e(%rip),%rax        # 222a0 <g_155>
   14042:	48 89 85 90 f4 ff ff 	mov    %rax,-0xb70(%rbp)
   14049:	66 c7 85 3a f4 ff ff 	movw   $0x321e,-0xbc6(%rbp)
   14050:	1e 32 
   14052:	66 c7 85 3c f4 ff ff 	movw   $0x3488,-0xbc4(%rbp)
   14059:	88 34 
   1405b:	c7 85 64 f4 ff ff 2e 	movl   $0xb694e82e,-0xb9c(%rbp)
   14062:	e8 94 b6 
   14065:	48 8d 85 78 f4 ff ff 	lea    -0xb88(%rbp),%rax
   1406c:	48 89 85 98 f4 ff ff 	mov    %rax,-0xb68(%rbp)
   14073:	48 8d 85 98 f4 ff ff 	lea    -0xb68(%rbp),%rax
   1407a:	48 89 85 f8 f4 ff ff 	mov    %rax,-0xb08(%rbp)
   14081:	48 b8 ba 7b 4e df eb 	movabs $0x429c9ebdf4e7bba,%rax
   14088:	c9 29 04 
   1408b:	48 89 85 00 f5 ff ff 	mov    %rax,-0xb00(%rbp)
   14092:	48 8d 85 39 f4 ff ff 	lea    -0xbc7(%rbp),%rax
   14099:	48 89 85 08 f5 ff ff 	mov    %rax,-0xaf8(%rbp)
   140a0:	c7 85 44 f4 ff ff 00 	movl   $0x0,-0xbbc(%rbp)
   140a7:	00 00 00 
   140aa:	eb 1e                	jmp    140ca <func_39+0x4b6>
   140ac:	8b 85 44 f4 ff ff    	mov    -0xbbc(%rbp),%eax
   140b2:	48 98                	cltq   
   140b4:	48 8d 95 90 f4 ff ff 	lea    -0xb70(%rbp),%rdx
   140bb:	48 89 94 c5 20 f5 ff 	mov    %rdx,-0xae0(%rbp,%rax,8)
   140c2:	ff 
   140c3:	83 85 44 f4 ff ff 01 	addl   $0x1,-0xbbc(%rbp)
   140ca:	83 bd 44 f4 ff ff 01 	cmpl   $0x1,-0xbbc(%rbp)
   140d1:	7e d9                	jle    140ac <func_39+0x498>
   140d3:	0f b6 05 72 bf 00 00 	movzbl 0xbf72(%rip),%eax        # 2004c <g_47>
   140da:	83 c0 01             	add    $0x1,%eax
   140dd:	88 05 69 bf 00 00    	mov    %al,0xbf69(%rip)        # 2004c <g_47>
   140e3:	0f b6 05 62 bf 00 00 	movzbl 0xbf62(%rip),%eax        # 2004c <g_47>
   140ea:	3c 01                	cmp    $0x1,%al
   140ec:	0f 8e 9a fe ff ff    	jle    13f8c <func_39+0x378>
   140f2:	83 85 24 f4 ff ff 01 	addl   $0x1,-0xbdc(%rbp)
   140f9:	83 bd 24 f4 ff ff 01 	cmpl   $0x1,-0xbdc(%rbp)
   14100:	0f 86 f0 fd ff ff    	jbe    13ef6 <func_39+0x2e2>
   14106:	b8 21 d0 ab d3       	mov    $0xd3abd021,%eax
   1410b:	0f b6 d8             	movzbl %al,%ebx
   1410e:	44 0f be a5 2c f4 ff 	movsbl -0xbd4(%rbp),%r12d
   14115:	ff 
   14116:	0f b6 45 d4          	movzbl -0x2c(%rbp),%eax
   1411a:	44 0f be e8          	movsbl %al,%r13d
   1411e:	44 8b b5 28 f4 ff ff 	mov    -0xbd8(%rbp),%r14d
   14125:	48 83 bd b0 f4 ff ff 	cmpq   $0x0,-0xb50(%rbp)
   1412c:	00 
   1412d:	74 14                	je     14143 <func_39+0x52f>
   1412f:	b8 21 d0 ab d3       	mov    $0xd3abd021,%eax
   14134:	39 85 28 f4 ff ff    	cmp    %eax,-0xbd8(%rbp)
   1413a:	77 07                	ja     14143 <func_39+0x52f>
   1413c:	b8 01 00 00 00       	mov    $0x1,%eax
   14141:	eb 05                	jmp    14148 <func_39+0x534>
   14143:	b8 00 00 00 00       	mov    $0x0,%eax
   14148:	98                   	cwtl   
   14149:	89 c6                	mov    %eax,%esi
   1414b:	bf 4f a5 ff ff       	mov    $0xffffa54f,%edi
   14150:	e8 a0 72 ff ff       	callq  b3f5 <safe_mul_func_int16_t_s_s>
   14155:	83 bd 24 f4 ff ff 57 	cmpl   $0x57,-0xbdc(%rbp)
   1415c:	0f 94 c0             	sete   %al
   1415f:	0f b6 c0             	movzbl %al,%eax
   14162:	be ff ff ff ff       	mov    $0xffffffff,%esi
   14167:	89 c7                	mov    %eax,%edi
   14169:	e8 fc 70 ff ff       	callq  b26a <safe_div_func_int8_t_s_s>
   1416e:	48 0f be c0          	movsbq %al,%rax
   14172:	48 39 85 18 f4 ff ff 	cmp    %rax,-0xbe8(%rbp)
   14179:	0f 93 c0             	setae  %al
   1417c:	0f b6 c0             	movzbl %al,%eax
   1417f:	4c 89 f6             	mov    %r14,%rsi
   14182:	48 89 c7             	mov    %rax,%rdi
   14185:	e8 2a 78 ff ff       	callq  b9b4 <safe_mod_func_int64_t_s_s>
   1418a:	0f b6 c0             	movzbl %al,%eax
   1418d:	44 89 ee             	mov    %r13d,%esi
   14190:	89 c7                	mov    %eax,%edi
   14192:	e8 f6 7a ff ff       	callq  bc8d <safe_rshift_func_uint8_t_u_s>
   14197:	0f b6 c0             	movzbl %al,%eax
   1419a:	44 89 e6             	mov    %r12d,%esi
   1419d:	89 c7                	mov    %eax,%edi
   1419f:	e8 1a 7b ff ff       	callq  bcbe <safe_rshift_func_uint8_t_u_u>
   141a4:	0f b7 05 af be 00 00 	movzwl 0xbeaf(%rip),%eax        # 2005a <g_116+0x2>
   141ab:	66 85 c0             	test   %ax,%ax
   141ae:	0f 9f c0             	setg   %al
   141b1:	0f b6 d0             	movzbl %al,%edx
   141b4:	b8 33 00 00 00       	mov    $0x33,%eax
   141b9:	0f b6 c0             	movzbl %al,%eax
   141bc:	39 c2                	cmp    %eax,%edx
   141be:	0f 9c c0             	setl   %al
   141c1:	0f b6 d0             	movzbl %al,%edx
   141c4:	66 0f be 85 2c f4 ff 	movsbw -0xbd4(%rbp),%ax
   141cb:	ff 
   141cc:	31 d0                	xor    %edx,%eax
   141ce:	98                   	cwtl   
   141cf:	89 c6                	mov    %eax,%esi
   141d1:	bf ec ad ff ff       	mov    $0xffffadec,%edi
   141d6:	e8 3b 72 ff ff       	callq  b416 <safe_mod_func_int16_t_s_s>
   141db:	44 0f bf e0          	movswl %ax,%r12d
   141df:	0f be 85 2c f4 ff ff 	movsbl -0xbd4(%rbp),%eax
   141e6:	be 07 00 00 00       	mov    $0x7,%esi
   141eb:	89 c7                	mov    %eax,%edi
   141ed:	e8 af 70 ff ff       	callq  b2a1 <safe_lshift_func_int8_t_s_s>
   141f2:	0f be c0             	movsbl %al,%eax
   141f5:	44 89 e6             	mov    %r12d,%esi
   141f8:	89 c7                	mov    %eax,%edi
   141fa:	e8 36 71 ff ff       	callq  b335 <safe_rshift_func_int8_t_s_s>
   141ff:	89 c2                	mov    %eax,%edx
   14201:	48 8b 85 18 f4 ff ff 	mov    -0xbe8(%rbp),%rax
   14208:	21 d0                	and    %edx,%eax
   1420a:	0f b6 c0             	movzbl %al,%eax
   1420d:	89 de                	mov    %ebx,%esi
   1420f:	89 c7                	mov    %eax,%edi
   14211:	e8 62 79 ff ff       	callq  bb78 <safe_sub_func_uint8_t_u_u>
   14216:	84 c0                	test   %al,%al
   14218:	74 2d                	je     14247 <func_39+0x633>
   1421a:	48 8d 05 37 c2 00 00 	lea    0xc237(%rip),%rax        # 20458 <g_480+0x18>
   14221:	48 89 85 b8 f4 ff ff 	mov    %rax,-0xb48(%rbp)
   14228:	48 8b 15 71 e0 00 00 	mov    0xe071(%rip),%rdx        # 222a0 <g_155>
   1422f:	48 8b 05 6a e0 00 00 	mov    0xe06a(%rip),%rax        # 222a0 <g_155>
   14236:	8b 12                	mov    (%rdx),%edx
   14238:	89 10                	mov    %edx,(%rax)
   1423a:	8b 10                	mov    (%rax),%edx
   1423c:	48 8b 85 b8 f4 ff ff 	mov    -0xb48(%rbp),%rax
   14243:	89 10                	mov    %edx,(%rax)
   14245:	eb 19                	jmp    14260 <func_39+0x64c>
   14247:	c7 85 50 f4 ff ff d8 	movl   $0x5bea57d8,-0xbb0(%rbp)
   1424e:	57 ea 5b 
   14251:	8b 85 a0 f7 ff ff    	mov    -0x860(%rbp),%eax
   14257:	83 c0 01             	add    $0x1,%eax
   1425a:	89 85 a0 f7 ff ff    	mov    %eax,-0x860(%rbp)
   14260:	8b 85 20 f4 ff ff    	mov    -0xbe0(%rbp),%eax
   14266:	48 8b 4d d8          	mov    -0x28(%rbp),%rcx
   1426a:	64 48 33 0c 25 28 00 	xor    %fs:0x28,%rcx
   14271:	00 00 
   14273:	74 05                	je     1427a <func_39+0x666>
   14275:	e8 f6 6d ff ff       	callq  b070 <__stack_chk_fail@plt>
   1427a:	48 81 c4 d0 0b 00 00 	add    $0xbd0,%rsp
   14281:	5b                   	pop    %rbx
   14282:	41 5c                	pop    %r12
   14284:	41 5d                	pop    %r13
   14286:	41 5e                	pop    %r14
   14288:	5d                   	pop    %rbp
   14289:	c3                   	retq   

000000000001428a <func_56>:
   1428a:	f3 0f 1e fa          	endbr64 
   1428e:	55                   	push   %rbp
   1428f:	48 89 e5             	mov    %rsp,%rbp
   14292:	48 81 ec 50 01 00 00 	sub    $0x150,%rsp
   14299:	48 89 bd c8 fe ff ff 	mov    %rdi,-0x138(%rbp)
   142a0:	89 b5 c4 fe ff ff    	mov    %esi,-0x13c(%rbp)
   142a6:	48 89 95 b8 fe ff ff 	mov    %rdx,-0x148(%rbp)
   142ad:	48 89 8d b0 fe ff ff 	mov    %rcx,-0x150(%rbp)
   142b4:	64 48 8b 04 25 28 00 	mov    %fs:0x28,%rax
   142bb:	00 00 
   142bd:	48 89 45 f8          	mov    %rax,-0x8(%rbp)
   142c1:	31 c0                	xor    %eax,%eax
   142c3:	48 8d 05 d6 df 00 00 	lea    0xdfd6(%rip),%rax        # 222a0 <g_155>
   142ca:	48 89 85 d8 fe ff ff 	mov    %rax,-0x128(%rbp)
   142d1:	48 8d 05 98 c1 00 00 	lea    0xc198(%rip),%rax        # 20470 <g_534>
   142d8:	48 89 85 d0 fe ff ff 	mov    %rax,-0x130(%rbp)
   142df:	48 8d 85 d0 fe ff ff 	lea    -0x130(%rbp),%rax
   142e6:	48 89 85 10 ff ff ff 	mov    %rax,-0xf0(%rbp)
   142ed:	48 8d 85 d0 fe ff ff 	lea    -0x130(%rbp),%rax
   142f4:	48 89 85 18 ff ff ff 	mov    %rax,-0xe8(%rbp)
   142fb:	48 8d 85 d0 fe ff ff 	lea    -0x130(%rbp),%rax
   14302:	48 89 85 20 ff ff ff 	mov    %rax,-0xe0(%rbp)
   14309:	48 8d 85 d0 fe ff ff 	lea    -0x130(%rbp),%rax
   14310:	48 89 85 28 ff ff ff 	mov    %rax,-0xd8(%rbp)
   14317:	48 8d 85 d0 fe ff ff 	lea    -0x130(%rbp),%rax
   1431e:	48 89 85 30 ff ff ff 	mov    %rax,-0xd0(%rbp)
   14325:	48 8d 85 d0 fe ff ff 	lea    -0x130(%rbp),%rax
   1432c:	48 89 85 38 ff ff ff 	mov    %rax,-0xc8(%rbp)
   14333:	48 8d 85 d0 fe ff ff 	lea    -0x130(%rbp),%rax
   1433a:	48 89 85 40 ff ff ff 	mov    %rax,-0xc0(%rbp)
   14341:	48 8d 85 d0 fe ff ff 	lea    -0x130(%rbp),%rax
   14348:	48 89 85 48 ff ff ff 	mov    %rax,-0xb8(%rbp)
   1434f:	48 8d 85 d0 fe ff ff 	lea    -0x130(%rbp),%rax
   14356:	48 89 85 50 ff ff ff 	mov    %rax,-0xb0(%rbp)
   1435d:	48 c7 85 e0 fe ff ff 	movq   $0x0,-0x120(%rbp)
   14364:	00 00 00 00 
   14368:	48 c7 85 e8 fe ff ff 	movq   $0x0,-0x118(%rbp)
   1436f:	00 00 00 00 
   14373:	48 c7 85 f0 fe ff ff 	movq   $0x0,-0x110(%rbp)
   1437a:	00 00 00 00 
   1437e:	48 c7 85 f8 fe ff ff 	movq   $0x0,-0x108(%rbp)
   14385:	00 00 00 00 
   14389:	48 c7 85 00 ff ff ff 	movq   $0x0,-0x100(%rbp)
   14390:	00 00 00 00 
   14394:	48 8d 05 7d c0 00 00 	lea    0xc07d(%rip),%rax        # 20418 <g_478+0x18>
   1439b:	48 89 85 60 ff ff ff 	mov    %rax,-0xa0(%rbp)
   143a2:	48 8d 05 6f c0 00 00 	lea    0xc06f(%rip),%rax        # 20418 <g_478+0x18>
   143a9:	48 89 85 68 ff ff ff 	mov    %rax,-0x98(%rbp)
   143b0:	48 8d 05 61 c0 00 00 	lea    0xc061(%rip),%rax        # 20418 <g_478+0x18>
   143b7:	48 89 85 70 ff ff ff 	mov    %rax,-0x90(%rbp)
   143be:	48 8d 05 53 c0 00 00 	lea    0xc053(%rip),%rax        # 20418 <g_478+0x18>
   143c5:	48 89 85 78 ff ff ff 	mov    %rax,-0x88(%rbp)
   143cc:	48 8d 05 45 c0 00 00 	lea    0xc045(%rip),%rax        # 20418 <g_478+0x18>
   143d3:	48 89 45 80          	mov    %rax,-0x80(%rbp)
   143d7:	48 8d 05 3a c0 00 00 	lea    0xc03a(%rip),%rax        # 20418 <g_478+0x18>
   143de:	48 89 45 88          	mov    %rax,-0x78(%rbp)
   143e2:	48 8d 05 2f c0 00 00 	lea    0xc02f(%rip),%rax        # 20418 <g_478+0x18>
   143e9:	48 89 45 90          	mov    %rax,-0x70(%rbp)
   143ed:	48 8d 05 24 c0 00 00 	lea    0xc024(%rip),%rax        # 20418 <g_478+0x18>
   143f4:	48 89 45 98          	mov    %rax,-0x68(%rbp)
   143f8:	48 8d 05 19 c0 00 00 	lea    0xc019(%rip),%rax        # 20418 <g_478+0x18>
   143ff:	48 89 45 a0          	mov    %rax,-0x60(%rbp)
   14403:	48 8d 05 0e c0 00 00 	lea    0xc00e(%rip),%rax        # 20418 <g_478+0x18>
   1440a:	48 89 45 a8          	mov    %rax,-0x58(%rbp)
   1440e:	48 8d 05 03 c0 00 00 	lea    0xc003(%rip),%rax        # 20418 <g_478+0x18>
   14415:	48 89 45 b0          	mov    %rax,-0x50(%rbp)
   14419:	48 8d 05 f8 bf 00 00 	lea    0xbff8(%rip),%rax        # 20418 <g_478+0x18>
   14420:	48 89 45 b8          	mov    %rax,-0x48(%rbp)
   14424:	48 8d 05 ed bf 00 00 	lea    0xbfed(%rip),%rax        # 20418 <g_478+0x18>
   1442b:	48 89 45 c0          	mov    %rax,-0x40(%rbp)
   1442f:	48 8d 05 e2 bf 00 00 	lea    0xbfe2(%rip),%rax        # 20418 <g_478+0x18>
   14436:	48 89 45 c8          	mov    %rax,-0x38(%rbp)
   1443a:	48 8d 05 d7 bf 00 00 	lea    0xbfd7(%rip),%rax        # 20418 <g_478+0x18>
   14441:	48 89 45 d0          	mov    %rax,-0x30(%rbp)
   14445:	48 8d 05 cc bf 00 00 	lea    0xbfcc(%rip),%rax        # 20418 <g_478+0x18>
   1444c:	48 89 45 d8          	mov    %rax,-0x28(%rbp)
   14450:	48 8d 05 c1 bf 00 00 	lea    0xbfc1(%rip),%rax        # 20418 <g_478+0x18>
   14457:	48 89 45 e0          	mov    %rax,-0x20(%rbp)
   1445b:	48 8d 05 b6 bf 00 00 	lea    0xbfb6(%rip),%rax        # 20418 <g_478+0x18>
   14462:	48 89 45 e8          	mov    %rax,-0x18(%rbp)
   14466:	48 8b 85 d8 fe ff ff 	mov    -0x128(%rbp),%rax
   1446d:	48 c7 00 00 00 00 00 	movq   $0x0,(%rax)
   14474:	48 8b 85 f0 fe ff ff 	mov    -0x110(%rbp),%rax
   1447b:	48 8d 95 10 ff ff ff 	lea    -0xf0(%rbp),%rdx
   14482:	48 83 c2 30          	add    $0x30,%rdx
   14486:	48 39 d0             	cmp    %rdx,%rax
   14489:	0f 94 c0             	sete   %al
   1448c:	0f b6 c0             	movzbl %al,%eax
   1448f:	21 85 c4 fe ff ff    	and    %eax,-0x13c(%rbp)
   14495:	0f b7 05 08 bf 00 00 	movzwl 0xbf08(%rip),%eax        # 203a4 <g_138>
   1449c:	48 0f bf c0          	movswq %ax,%rax
   144a0:	48 8b 4d f8          	mov    -0x8(%rbp),%rcx
   144a4:	64 48 33 0c 25 28 00 	xor    %fs:0x28,%rcx
   144ab:	00 00 
   144ad:	74 05                	je     144b4 <func_56+0x22a>
   144af:	e8 bc 6b ff ff       	callq  b070 <__stack_chk_fail@plt>
   144b4:	c9                   	leaveq 
   144b5:	c3                   	retq   

00000000000144b6 <func_63>:
   144b6:	f3 0f 1e fa          	endbr64 
   144ba:	55                   	push   %rbp
   144bb:	48 89 e5             	mov    %rsp,%rbp
   144be:	41 57                	push   %r15
   144c0:	41 56                	push   %r14
   144c2:	41 55                	push   %r13
   144c4:	41 54                	push   %r12
   144c6:	53                   	push   %rbx
   144c7:	48 81 ec 00 10 00 00 	sub    $0x1000,%rsp
   144ce:	48 83 0c 24 00       	orq    $0x0,(%rsp)
   144d3:	48 81 ec d8 02 00 00 	sub    $0x2d8,%rsp
   144da:	48 89 bd 08 ed ff ff 	mov    %rdi,-0x12f8(%rbp)
   144e1:	89 b5 04 ed ff ff    	mov    %esi,-0x12fc(%rbp)
   144e7:	64 48 8b 04 25 28 00 	mov    %fs:0x28,%rax
   144ee:	00 00 
   144f0:	48 89 45 c8          	mov    %rax,-0x38(%rbp)
   144f4:	31 c0                	xor    %eax,%eax
   144f6:	66 c7 85 22 ed ff ff 	movw   $0xffff,-0x12de(%rbp)
   144fd:	ff ff 
   144ff:	48 8d 05 4a bb 00 00 	lea    0xbb4a(%rip),%rax        # 20050 <g_105>
   14506:	48 89 85 b8 ed ff ff 	mov    %rax,-0x1248(%rbp)
   1450d:	48 8d 85 b8 ed ff ff 	lea    -0x1248(%rbp),%rax
   14514:	48 89 85 c0 ed ff ff 	mov    %rax,-0x1240(%rbp)
   1451b:	48 8d 05 3e 6b 00 00 	lea    0x6b3e(%rip),%rax        # 1b060 <g_126>
   14522:	48 89 85 c8 ed ff ff 	mov    %rax,-0x1238(%rbp)
   14529:	48 8d 85 22 ed ff ff 	lea    -0x12de(%rbp),%rax
   14530:	48 89 85 d0 ef ff ff 	mov    %rax,-0x1030(%rbp)
   14537:	48 8d 85 22 ed ff ff 	lea    -0x12de(%rbp),%rax
   1453e:	48 89 85 d8 ef ff ff 	mov    %rax,-0x1028(%rbp)
   14545:	48 8d 85 22 ed ff ff 	lea    -0x12de(%rbp),%rax
   1454c:	48 89 85 e0 ef ff ff 	mov    %rax,-0x1020(%rbp)
   14553:	48 8d 85 22 ed ff ff 	lea    -0x12de(%rbp),%rax
   1455a:	48 89 85 e8 ef ff ff 	mov    %rax,-0x1018(%rbp)
   14561:	48 8d 85 22 ed ff ff 	lea    -0x12de(%rbp),%rax
   14568:	48 89 85 f0 ef ff ff 	mov    %rax,-0x1010(%rbp)
   1456f:	48 8d 85 22 ed ff ff 	lea    -0x12de(%rbp),%rax
   14576:	48 89 85 f8 ef ff ff 	mov    %rax,-0x1008(%rbp)
   1457d:	48 8d 85 22 ed ff ff 	lea    -0x12de(%rbp),%rax
   14584:	48 89 85 00 f0 ff ff 	mov    %rax,-0x1000(%rbp)
   1458b:	c7 85 5c ed ff ff cc 	movl   $0xb83498cc,-0x12a4(%rbp)
   14592:	98 34 b8 
   14595:	c7 85 30 ed ff ff 01 	movl   $0x1,-0x12d0(%rbp)
   1459c:	00 00 00 
   1459f:	c7 85 44 ed ff ff aa 	movl   $0x5f74d8aa,-0x12bc(%rbp)
   145a6:	d8 74 5f 
   145a9:	c7 85 60 ed ff ff 00 	movl   $0x0,-0x12a0(%rbp)
   145b0:	00 00 00 
   145b3:	c7 85 34 ed ff ff d5 	movl   $0x6bc9b9d5,-0x12cc(%rbp)
   145ba:	b9 c9 6b 
   145bd:	c7 85 b0 ef ff ff 05 	movl   $0x5,-0x1050(%rbp)
   145c4:	00 00 00 
   145c7:	c7 85 b4 ef ff ff 05 	movl   $0x5,-0x104c(%rbp)
   145ce:	00 00 00 
   145d1:	c7 85 b8 ef ff ff 05 	movl   $0x5,-0x1048(%rbp)
   145d8:	00 00 00 
   145db:	c7 85 bc ef ff ff 05 	movl   $0x5,-0x1044(%rbp)
   145e2:	00 00 00 
   145e5:	c7 85 c0 ef ff ff 05 	movl   $0x5,-0x1040(%rbp)
   145ec:	00 00 00 
   145ef:	c7 85 c4 ef ff ff 05 	movl   $0x5,-0x103c(%rbp)
   145f6:	00 00 00 
   145f9:	c7 85 c8 ef ff ff 05 	movl   $0x5,-0x1038(%rbp)
   14600:	00 00 00 
   14603:	66 c7 85 24 ed ff ff 	movw   $0x4904,-0x12dc(%rbp)
   1460a:	04 49 
   1460c:	48 8d 85 34 ed ff ff 	lea    -0x12cc(%rbp),%rax
   14613:	48 89 85 20 ee ff ff 	mov    %rax,-0x11e0(%rbp)
   1461a:	c7 85 64 ed ff ff 85 	movl   $0xd3e9f785,-0x129c(%rbp)
   14621:	f7 e9 d3 
   14624:	48 c7 85 28 ee ff ff 	movq   $0x0,-0x11d8(%rbp)
   1462b:	00 00 00 00 
   1462f:	48 8d 05 3a 05 01 00 	lea    0x1053a(%rip),%rax        # 24b70 <g_256>
   14636:	48 89 85 30 ee ff ff 	mov    %rax,-0x11d0(%rbp)
   1463d:	c6 85 1c ed ff ff 7e 	movb   $0x7e,-0x12e4(%rbp)
   14644:	48 c7 85 c8 ed ff ff 	movq   $0x0,-0x1238(%rbp)
   1464b:	00 00 00 00 
   1464f:	48 8b 85 c0 ed ff ff 	mov    -0x1240(%rbp),%rax
   14656:	48 8d 95 04 ed ff ff 	lea    -0x12fc(%rbp),%rdx
   1465d:	48 89 10             	mov    %rdx,(%rax)
   14660:	0f b7 05 f3 b9 00 00 	movzwl 0xb9f3(%rip),%eax        # 2005a <g_116+0x2>
   14667:	0f bf d0             	movswl %ax,%edx
   1466a:	8b 85 04 ed ff ff    	mov    -0x12fc(%rbp),%eax
   14670:	83 f8 07             	cmp    $0x7,%eax
   14673:	0f 94 c1             	sete   %cl
   14676:	0f b7 05 e3 b9 00 00 	movzwl 0xb9e3(%rip),%eax        # 20060 <g_116+0x8>
   1467d:	66 83 f8 01          	cmp    $0x1,%ax
   14681:	0f 94 c0             	sete   %al
   14684:	31 c8                	xor    %ecx,%eax
   14686:	0f b6 c0             	movzbl %al,%eax
   14689:	89 d6                	mov    %edx,%esi
   1468b:	89 c7                	mov    %eax,%edi
   1468d:	e8 63 6d ff ff       	callq  b3f5 <safe_mul_func_int16_t_s_s>
   14692:	0f bf d0             	movswl %ax,%edx
   14695:	8b 85 04 ed ff ff    	mov    -0x12fc(%rbp),%eax
   1469b:	39 c2                	cmp    %eax,%edx
   1469d:	75 07                	jne    146a6 <func_63+0x1f0>
   1469f:	b8 01 00 00 00       	mov    $0x1,%eax
   146a4:	eb 05                	jmp    146ab <func_63+0x1f5>
   146a6:	b8 00 00 00 00       	mov    $0x0,%eax
   146ab:	89 05 ef bc 00 00    	mov    %eax,0xbcef(%rip)        # 203a0 <g_131>
   146b1:	8b 05 e9 bc 00 00    	mov    0xbce9(%rip),%eax        # 203a0 <g_131>
   146b7:	0f b7 c0             	movzwl %ax,%eax
   146ba:	be 02 00 00 00       	mov    $0x2,%esi
   146bf:	89 c7                	mov    %eax,%edi
   146c1:	e8 96 76 ff ff       	callq  bd5c <safe_mod_func_uint16_t_u_u>
   146c6:	66 85 c0             	test   %ax,%ax
   146c9:	0f 84 b7 3a 00 00    	je     18186 <func_63+0x3cd0>
   146cf:	c6 85 1b ed ff ff 00 	movb   $0x0,-0x12e5(%rbp)
   146d6:	c7 85 38 ed ff ff b8 	movl   $0x4379d8b8,-0x12c8(%rbp)
   146dd:	d8 79 43 
   146e0:	c7 85 68 ed ff ff 01 	movl   $0x1,-0x1298(%rbp)
   146e7:	00 00 00 
   146ea:	c7 85 6c ed ff ff 71 	movl   $0x6d265171,-0x1294(%rbp)
   146f1:	51 26 6d 
   146f4:	c7 85 3c ed ff ff d1 	movl   $0x2a7965d1,-0x12c4(%rbp)
   146fb:	65 79 2a 
   146fe:	48 8d 85 22 ed ff ff 	lea    -0x12de(%rbp),%rax
   14705:	48 89 85 d0 ed ff ff 	mov    %rax,-0x1230(%rbp)
   1470c:	48 b8 47 59 78 68 49 	movabs $0x296f204968785947,%rax
   14713:	20 6f 29 
   14716:	48 89 85 d8 ed ff ff 	mov    %rax,-0x1228(%rbp)
   1471d:	c6 85 1d ed ff ff 06 	movb   $0x6,-0x12e3(%rbp)
   14724:	c7 85 40 f1 ff ff 01 	movl   $0x1,-0xec0(%rbp)
   1472b:	00 00 00 
   1472e:	c7 85 44 f1 ff ff 87 	movl   $0xdd057887,-0xebc(%rbp)
   14735:	78 05 dd 
   14738:	c7 85 48 f1 ff ff 29 	movl   $0xb1da7329,-0xeb8(%rbp)
   1473f:	73 da b1 
   14742:	c7 85 4c f1 ff ff 87 	movl   $0xdd057887,-0xeb4(%rbp)
   14749:	78 05 dd 
   1474c:	c7 85 50 f1 ff ff 01 	movl   $0x1,-0xeb0(%rbp)
   14753:	00 00 00 
   14756:	c7 85 54 f1 ff ff 63 	movl   $0x7ad62f63,-0xeac(%rbp)
   1475d:	2f d6 7a 
   14760:	c7 85 58 f1 ff ff 0d 	movl   $0xd2d930d,-0xea8(%rbp)
   14767:	93 2d 0d 
   1476a:	c7 85 5c f1 ff ff 69 	movl   $0x3be98369,-0xea4(%rbp)
   14771:	83 e9 3b 
   14774:	c7 85 60 f1 ff ff ff 	movl   $0xffffffff,-0xea0(%rbp)
   1477b:	ff ff ff 
   1477e:	c7 85 64 f1 ff ff c2 	movl   $0x54e12cc2,-0xe9c(%rbp)
   14785:	2c e1 54 
   14788:	c7 85 68 f1 ff ff 87 	movl   $0xdd057887,-0xe98(%rbp)
   1478f:	78 05 dd 
   14792:	c7 85 6c f1 ff ff 23 	movl   $0xb3697223,-0xe94(%rbp)
   14799:	72 69 b3 
   1479c:	c7 85 70 f1 ff ff af 	movl   $0xfc0249af,-0xe90(%rbp)
   147a3:	49 02 fc 
   147a6:	c7 85 74 f1 ff ff af 	movl   $0xfc0249af,-0xe8c(%rbp)
   147ad:	49 02 fc 
   147b0:	c7 85 78 f1 ff ff 23 	movl   $0xb3697223,-0xe88(%rbp)
   147b7:	72 69 b3 
   147ba:	c7 85 7c f1 ff ff 87 	movl   $0xdd057887,-0xe84(%rbp)
   147c1:	78 05 dd 
   147c4:	c7 85 80 f1 ff ff 69 	movl   $0x3be98369,-0xe80(%rbp)
   147cb:	83 e9 3b 
   147ce:	c7 85 84 f1 ff ff 69 	movl   $0x3be98369,-0xe7c(%rbp)
   147d5:	83 e9 3b 
   147d8:	c7 85 88 f1 ff ff 87 	movl   $0xdd057887,-0xe78(%rbp)
   147df:	78 05 dd 
   147e2:	c7 85 8c f1 ff ff 01 	movl   $0x1,-0xe74(%rbp)
   147e9:	00 00 00 
   147ec:	c7 85 90 f1 ff ff 01 	movl   $0x1,-0xe70(%rbp)
   147f3:	00 00 00 
   147f6:	c7 85 94 f1 ff ff ba 	movl   $0xd377b2ba,-0xe6c(%rbp)
   147fd:	b2 77 d3 
   14800:	c7 85 98 f1 ff ff 0d 	movl   $0xd2d930d,-0xe68(%rbp)
   14807:	93 2d 0d 
   1480a:	c7 85 9c f1 ff ff ff 	movl   $0xffffffff,-0xe64(%rbp)
   14811:	ff ff ff 
   14814:	c7 85 a0 f1 ff ff af 	movl   $0xfc0249af,-0xe60(%rbp)
   1481b:	49 02 fc 
   1481e:	c7 85 a4 f1 ff ff 0d 	movl   $0xd2d930d,-0xe5c(%rbp)
   14825:	93 2d 0d 
   14828:	c7 85 a8 f1 ff ff 29 	movl   $0xb1da7329,-0xe58(%rbp)
   1482f:	73 da b1 
   14832:	c7 85 ac f1 ff ff 69 	movl   $0x3be98369,-0xe54(%rbp)
   14839:	83 e9 3b 
   1483c:	c7 85 b0 f1 ff ff 29 	movl   $0xb1da7329,-0xe50(%rbp)
   14843:	73 da b1 
   14846:	c7 85 b4 f1 ff ff 0d 	movl   $0xd2d930d,-0xe4c(%rbp)
   1484d:	93 2d 0d 
   14850:	c7 85 b8 f1 ff ff af 	movl   $0xfc0249af,-0xe48(%rbp)
   14857:	49 02 fc 
   1485a:	c7 85 bc f1 ff ff ff 	movl   $0xffffffff,-0xe44(%rbp)
   14861:	ff ff ff 
   14864:	c7 85 c0 f1 ff ff 0d 	movl   $0xd2d930d,-0xe40(%rbp)
   1486b:	93 2d 0d 
   1486e:	c7 85 c4 f1 ff ff ba 	movl   $0xd377b2ba,-0xe3c(%rbp)
   14875:	b2 77 d3 
   14878:	c7 85 c8 f1 ff ff 01 	movl   $0x1,-0xe38(%rbp)
   1487f:	00 00 00 
   14882:	c7 85 cc f1 ff ff 01 	movl   $0x1,-0xe34(%rbp)
   14889:	00 00 00 
   1488c:	c7 85 d0 f1 ff ff 87 	movl   $0xdd057887,-0xe30(%rbp)
   14893:	78 05 dd 
   14896:	c7 85 d4 f1 ff ff 69 	movl   $0x3be98369,-0xe2c(%rbp)
   1489d:	83 e9 3b 
   148a0:	c7 85 d8 f1 ff ff 69 	movl   $0x3be98369,-0xe28(%rbp)
   148a7:	83 e9 3b 
   148aa:	c7 85 dc f1 ff ff 87 	movl   $0xdd057887,-0xe24(%rbp)
   148b1:	78 05 dd 
   148b4:	c7 85 e0 f1 ff ff 23 	movl   $0xb3697223,-0xe20(%rbp)
   148bb:	72 69 b3 
   148be:	c7 85 e4 f1 ff ff af 	movl   $0xfc0249af,-0xe1c(%rbp)
   148c5:	49 02 fc 
   148c8:	c7 85 e8 f1 ff ff af 	movl   $0xfc0249af,-0xe18(%rbp)
   148cf:	49 02 fc 
   148d2:	c7 85 ec f1 ff ff 23 	movl   $0xb3697223,-0xe14(%rbp)
   148d9:	72 69 b3 
   148dc:	c7 85 f0 f1 ff ff 87 	movl   $0xdd057887,-0xe10(%rbp)
   148e3:	78 05 dd 
   148e6:	c7 85 f4 f1 ff ff c2 	movl   $0x54e12cc2,-0xe0c(%rbp)
   148ed:	2c e1 54 
   148f0:	c7 85 f8 f1 ff ff ff 	movl   $0xffffffff,-0xe08(%rbp)
   148f7:	ff ff ff 
   148fa:	c7 85 fc f1 ff ff 69 	movl   $0x3be98369,-0xe04(%rbp)
   14901:	83 e9 3b 
   14904:	48 c7 85 e0 ed ff ff 	movq   $0x0,-0x1220(%rbp)
   1490b:	00 00 00 00 
   1490f:	48 c7 85 38 ee ff ff 	movq   $0x0,-0x11c8(%rbp)
   14916:	00 00 00 00 
   1491a:	48 c7 85 40 ee ff ff 	movq   $0x0,-0x11c0(%rbp)
   14921:	00 00 00 00 
   14925:	48 c7 85 e8 ed ff ff 	movq   $0x0,-0x1218(%rbp)
   1492c:	00 00 00 00 
   14930:	c7 85 48 ed ff ff 00 	movl   $0x0,-0x12b8(%rbp)
   14937:	00 00 00 
   1493a:	eb 1a                	jmp    14956 <func_63+0x4a0>
   1493c:	8b 85 48 ed ff ff    	mov    -0x12b8(%rbp),%eax
   14942:	48 98                	cltq   
   14944:	c7 84 85 84 ef ff ff 	movl   $0x1,-0x107c(%rbp,%rax,4)
   1494b:	01 00 00 00 
   1494f:	83 85 48 ed ff ff 01 	addl   $0x1,-0x12b8(%rbp)
   14956:	83 bd 48 ed ff ff 02 	cmpl   $0x2,-0x12b8(%rbp)
   1495d:	7e dd                	jle    1493c <func_63+0x486>
   1495f:	0f b7 05 f6 b6 00 00 	movzwl 0xb6f6(%rip),%eax        # 2005c <g_116+0x4>
   14966:	66 85 c0             	test   %ax,%ax
   14969:	0f 84 bc 00 00 00    	je     14a2b <func_63+0x575>
   1496f:	90                   	nop
   14970:	f3 0f 1e fa          	endbr64 
   14974:	c7 05 d6 b6 00 00 17 	movl   $0x17,0xb6d6(%rip)        # 20054 <g_115>
   1497b:	00 00 00 
   1497e:	e9 94 00 00 00       	jmpq   14a17 <func_63+0x561>
   14983:	66 c7 85 28 ed ff ff 	movw   $0xdeff,-0x12d8(%rbp)
   1498a:	ff de 
   1498c:	0f b7 05 c7 b6 00 00 	movzwl 0xb6c7(%rip),%eax        # 2005a <g_116+0x2>
   14993:	0f bf d0             	movswl %ax,%edx
   14996:	8b 85 04 ed ff ff    	mov    -0x12fc(%rbp),%eax
   1499c:	3d e0 93 e0 26       	cmp    $0x26e093e0,%eax
   149a1:	0f 9e c0             	setle  %al
   149a4:	0f b6 c0             	movzbl %al,%eax
   149a7:	89 d6                	mov    %edx,%esi
   149a9:	89 c7                	mov    %eax,%edi
   149ab:	e8 55 6c ff ff       	callq  b605 <safe_sub_func_int32_t_s_s>
   149b0:	8b 05 9e b6 00 00    	mov    0xb69e(%rip),%eax        # 20054 <g_115>
   149b6:	48 63 d8             	movslq %eax,%rbx
   149b9:	0f b7 95 28 ed ff ff 	movzwl -0x12d8(%rbp),%edx
   149c0:	0f b7 05 dd b9 00 00 	movzwl 0xb9dd(%rip),%eax        # 203a4 <g_138>
   149c7:	0f b7 c0             	movzwl %ax,%eax
   149ca:	89 d6                	mov    %edx,%esi
   149cc:	89 c7                	mov    %eax,%edi
   149ce:	e8 4c 73 ff ff       	callq  bd1f <safe_sub_func_uint16_t_u_u>
   149d3:	0f b7 d0             	movzwl %ax,%edx
   149d6:	8b 85 04 ed ff ff    	mov    -0x12fc(%rbp),%eax
   149dc:	48 98                	cltq   
   149de:	48 21 d0             	and    %rdx,%rax
   149e1:	48 83 c8 01          	or     $0x1,%rax
   149e5:	48 31 d8             	xor    %rbx,%rax
   149e8:	89 c2                	mov    %eax,%edx
   149ea:	0f b6 85 1b ed ff ff 	movzbl -0x12e5(%rbp),%eax
   149f1:	31 d0                	xor    %edx,%eax
   149f3:	88 85 1b ed ff ff    	mov    %al,-0x12e5(%rbp)
   149f9:	8b 05 55 b6 00 00    	mov    0xb655(%rip),%eax        # 20054 <g_115>
   149ff:	0f b7 c0             	movzwl %ax,%eax
   14a02:	be 09 00 00 00       	mov    $0x9,%esi
   14a07:	89 c7                	mov    %eax,%edi
   14a09:	e8 f1 72 ff ff       	callq  bcff <safe_add_func_uint16_t_u_u>
   14a0e:	0f b7 c0             	movzwl %ax,%eax
   14a11:	89 05 3d b6 00 00    	mov    %eax,0xb63d(%rip)        # 20054 <g_115>
   14a17:	8b 05 37 b6 00 00    	mov    0xb637(%rip),%eax        # 20054 <g_115>
   14a1d:	83 f8 17             	cmp    $0x17,%eax
   14a20:	0f 85 5d ff ff ff    	jne    14983 <func_63+0x4cd>
   14a26:	e9 9f 2f 00 00       	jmpq   179ca <func_63+0x3514>
   14a2b:	48 b8 de 4a 3a 5b 0a 	movabs $0xfab1cf0a5b3a4ade,%rax
   14a32:	cf b1 fa 
   14a35:	48 89 85 f0 ed ff ff 	mov    %rax,-0x1210(%rbp)
   14a3c:	c7 85 70 ed ff ff 88 	movl   $0xa051b88,-0x1290(%rbp)
   14a43:	1b 05 0a 
   14a46:	c7 85 74 ed ff ff 00 	movl   $0x0,-0x128c(%rbp)
   14a4d:	00 00 00 
   14a50:	48 c7 85 f8 ed ff ff 	movq   $0x0,-0x1208(%rbp)
   14a57:	00 00 00 00 
   14a5b:	c7 85 78 ed ff ff d6 	movl   $0x6b6c0dd6,-0x1288(%rbp)
   14a62:	0d 6c 6b 
   14a65:	48 8d 05 e0 b5 00 00 	lea    0xb5e0(%rip),%rax        # 2004c <g_47>
   14a6c:	48 89 85 00 ee ff ff 	mov    %rax,-0x1200(%rbp)
   14a73:	48 c7 85 48 ee ff ff 	movq   $0xffffffffffffffff,-0x11b8(%rbp)
   14a7a:	ff ff ff ff 
   14a7e:	c7 85 7c ed ff ff 8f 	movl   $0x8edde48f,-0x1284(%rbp)
   14a85:	e4 dd 8e 
   14a88:	48 8d 05 1a b9 00 00 	lea    0xb91a(%rip),%rax        # 203a9 <g_146+0x3>
   14a8f:	48 89 85 50 ee ff ff 	mov    %rax,-0x11b0(%rbp)
   14a96:	c7 85 4c ed ff ff 00 	movl   $0x0,-0x12b4(%rbp)
   14a9d:	00 00 00 
   14aa0:	eb 1a                	jmp    14abc <func_63+0x606>
   14aa2:	8b 85 4c ed ff ff    	mov    -0x12b4(%rbp),%eax
   14aa8:	48 98                	cltq   
   14aaa:	c7 84 85 90 ef ff ff 	movl   $0x8be43f02,-0x1070(%rbp,%rax,4)
   14ab1:	02 3f e4 8b 
   14ab5:	83 85 4c ed ff ff 01 	addl   $0x1,-0x12b4(%rbp)
   14abc:	83 bd 4c ed ff ff 05 	cmpl   $0x5,-0x12b4(%rbp)
   14ac3:	7e dd                	jle    14aa2 <func_63+0x5ec>
   14ac5:	0f b6 85 1b ed ff ff 	movzbl -0x12e5(%rbp),%eax
   14acc:	84 c0                	test   %al,%al
   14ace:	0f 84 e6 29 00 00    	je     174ba <func_63+0x3004>
   14ad4:	48 8d 05 ce b8 00 00 	lea    0xb8ce(%rip),%rax        # 203a9 <g_146+0x3>
   14adb:	48 89 85 58 ee ff ff 	mov    %rax,-0x11a8(%rbp)
   14ae2:	48 8d 85 22 ed ff ff 	lea    -0x12de(%rbp),%rax
   14ae9:	48 89 85 40 f8 ff ff 	mov    %rax,-0x7c0(%rbp)
   14af0:	48 8d 85 22 ed ff ff 	lea    -0x12de(%rbp),%rax
   14af7:	48 89 85 48 f8 ff ff 	mov    %rax,-0x7b8(%rbp)
   14afe:	48 8d 85 22 ed ff ff 	lea    -0x12de(%rbp),%rax
   14b05:	48 89 85 50 f8 ff ff 	mov    %rax,-0x7b0(%rbp)
   14b0c:	48 8d 85 22 ed ff ff 	lea    -0x12de(%rbp),%rax
   14b13:	48 89 85 58 f8 ff ff 	mov    %rax,-0x7a8(%rbp)
   14b1a:	48 8d 85 22 ed ff ff 	lea    -0x12de(%rbp),%rax
   14b21:	48 89 85 60 f8 ff ff 	mov    %rax,-0x7a0(%rbp)
   14b28:	48 8d 85 22 ed ff ff 	lea    -0x12de(%rbp),%rax
   14b2f:	48 89 85 68 f8 ff ff 	mov    %rax,-0x798(%rbp)
   14b36:	48 8d 85 22 ed ff ff 	lea    -0x12de(%rbp),%rax
   14b3d:	48 89 85 70 f8 ff ff 	mov    %rax,-0x790(%rbp)
   14b44:	48 8d 85 22 ed ff ff 	lea    -0x12de(%rbp),%rax
   14b4b:	48 89 85 78 f8 ff ff 	mov    %rax,-0x788(%rbp)
   14b52:	48 8d 85 22 ed ff ff 	lea    -0x12de(%rbp),%rax
   14b59:	48 89 85 80 f8 ff ff 	mov    %rax,-0x780(%rbp)
   14b60:	48 8d 85 22 ed ff ff 	lea    -0x12de(%rbp),%rax
   14b67:	48 89 85 88 f8 ff ff 	mov    %rax,-0x778(%rbp)
   14b6e:	48 8d 85 22 ed ff ff 	lea    -0x12de(%rbp),%rax
   14b75:	48 89 85 90 f8 ff ff 	mov    %rax,-0x770(%rbp)
   14b7c:	48 8d 85 22 ed ff ff 	lea    -0x12de(%rbp),%rax
   14b83:	48 89 85 98 f8 ff ff 	mov    %rax,-0x768(%rbp)
   14b8a:	48 8d 85 22 ed ff ff 	lea    -0x12de(%rbp),%rax
   14b91:	48 89 85 a0 f8 ff ff 	mov    %rax,-0x760(%rbp)
   14b98:	48 8d 85 22 ed ff ff 	lea    -0x12de(%rbp),%rax
   14b9f:	48 89 85 a8 f8 ff ff 	mov    %rax,-0x758(%rbp)
   14ba6:	48 8d 85 22 ed ff ff 	lea    -0x12de(%rbp),%rax
   14bad:	48 89 85 b0 f8 ff ff 	mov    %rax,-0x750(%rbp)
   14bb4:	48 8d 85 22 ed ff ff 	lea    -0x12de(%rbp),%rax
   14bbb:	48 89 85 b8 f8 ff ff 	mov    %rax,-0x748(%rbp)
   14bc2:	48 8d 85 22 ed ff ff 	lea    -0x12de(%rbp),%rax
   14bc9:	48 89 85 c0 f8 ff ff 	mov    %rax,-0x740(%rbp)
   14bd0:	48 8d 85 22 ed ff ff 	lea    -0x12de(%rbp),%rax
   14bd7:	48 89 85 c8 f8 ff ff 	mov    %rax,-0x738(%rbp)
   14bde:	48 8d 85 22 ed ff ff 	lea    -0x12de(%rbp),%rax
   14be5:	48 89 85 d0 f8 ff ff 	mov    %rax,-0x730(%rbp)
   14bec:	48 8d 85 22 ed ff ff 	lea    -0x12de(%rbp),%rax
   14bf3:	48 89 85 d8 f8 ff ff 	mov    %rax,-0x728(%rbp)
   14bfa:	48 8d 85 22 ed ff ff 	lea    -0x12de(%rbp),%rax
   14c01:	48 89 85 e0 f8 ff ff 	mov    %rax,-0x720(%rbp)
   14c08:	48 8d 85 22 ed ff ff 	lea    -0x12de(%rbp),%rax
   14c0f:	48 89 85 e8 f8 ff ff 	mov    %rax,-0x718(%rbp)
   14c16:	48 8d 85 22 ed ff ff 	lea    -0x12de(%rbp),%rax
   14c1d:	48 89 85 f0 f8 ff ff 	mov    %rax,-0x710(%rbp)
   14c24:	48 8d 85 22 ed ff ff 	lea    -0x12de(%rbp),%rax
   14c2b:	48 89 85 f8 f8 ff ff 	mov    %rax,-0x708(%rbp)
   14c32:	48 8d 85 22 ed ff ff 	lea    -0x12de(%rbp),%rax
   14c39:	48 89 85 00 f9 ff ff 	mov    %rax,-0x700(%rbp)
   14c40:	48 8d 85 22 ed ff ff 	lea    -0x12de(%rbp),%rax
   14c47:	48 89 85 08 f9 ff ff 	mov    %rax,-0x6f8(%rbp)
   14c4e:	48 8d 85 22 ed ff ff 	lea    -0x12de(%rbp),%rax
   14c55:	48 89 85 10 f9 ff ff 	mov    %rax,-0x6f0(%rbp)
   14c5c:	48 8d 85 22 ed ff ff 	lea    -0x12de(%rbp),%rax
   14c63:	48 89 85 18 f9 ff ff 	mov    %rax,-0x6e8(%rbp)
   14c6a:	48 8d 85 22 ed ff ff 	lea    -0x12de(%rbp),%rax
   14c71:	48 89 85 20 f9 ff ff 	mov    %rax,-0x6e0(%rbp)
   14c78:	48 8d 85 22 ed ff ff 	lea    -0x12de(%rbp),%rax
   14c7f:	48 89 85 28 f9 ff ff 	mov    %rax,-0x6d8(%rbp)
   14c86:	48 8d 85 22 ed ff ff 	lea    -0x12de(%rbp),%rax
   14c8d:	48 89 85 30 f9 ff ff 	mov    %rax,-0x6d0(%rbp)
   14c94:	48 8d 85 22 ed ff ff 	lea    -0x12de(%rbp),%rax
   14c9b:	48 89 85 38 f9 ff ff 	mov    %rax,-0x6c8(%rbp)
   14ca2:	48 8d 85 22 ed ff ff 	lea    -0x12de(%rbp),%rax
   14ca9:	48 89 85 40 f9 ff ff 	mov    %rax,-0x6c0(%rbp)
   14cb0:	48 8d 85 22 ed ff ff 	lea    -0x12de(%rbp),%rax
   14cb7:	48 89 85 48 f9 ff ff 	mov    %rax,-0x6b8(%rbp)
   14cbe:	48 8d 85 22 ed ff ff 	lea    -0x12de(%rbp),%rax
   14cc5:	48 89 85 50 f9 ff ff 	mov    %rax,-0x6b0(%rbp)
   14ccc:	48 8d 85 22 ed ff ff 	lea    -0x12de(%rbp),%rax
   14cd3:	48 89 85 58 f9 ff ff 	mov    %rax,-0x6a8(%rbp)
   14cda:	48 8d 85 22 ed ff ff 	lea    -0x12de(%rbp),%rax
   14ce1:	48 89 85 60 f9 ff ff 	mov    %rax,-0x6a0(%rbp)
   14ce8:	48 8d 85 22 ed ff ff 	lea    -0x12de(%rbp),%rax
   14cef:	48 89 85 68 f9 ff ff 	mov    %rax,-0x698(%rbp)
   14cf6:	48 8d 85 22 ed ff ff 	lea    -0x12de(%rbp),%rax
   14cfd:	48 89 85 70 f9 ff ff 	mov    %rax,-0x690(%rbp)
   14d04:	48 8d 85 22 ed ff ff 	lea    -0x12de(%rbp),%rax
   14d0b:	48 89 85 78 f9 ff ff 	mov    %rax,-0x688(%rbp)
   14d12:	48 8d 85 22 ed ff ff 	lea    -0x12de(%rbp),%rax
   14d19:	48 89 85 80 f9 ff ff 	mov    %rax,-0x680(%rbp)
   14d20:	48 8d 85 22 ed ff ff 	lea    -0x12de(%rbp),%rax
   14d27:	48 89 85 88 f9 ff ff 	mov    %rax,-0x678(%rbp)
   14d2e:	48 8d 85 22 ed ff ff 	lea    -0x12de(%rbp),%rax
   14d35:	48 89 85 90 f9 ff ff 	mov    %rax,-0x670(%rbp)
   14d3c:	48 8d 85 22 ed ff ff 	lea    -0x12de(%rbp),%rax
   14d43:	48 89 85 98 f9 ff ff 	mov    %rax,-0x668(%rbp)
   14d4a:	48 8d 85 22 ed ff ff 	lea    -0x12de(%rbp),%rax
   14d51:	48 89 85 a0 f9 ff ff 	mov    %rax,-0x660(%rbp)
   14d58:	48 8d 85 22 ed ff ff 	lea    -0x12de(%rbp),%rax
   14d5f:	48 89 85 a8 f9 ff ff 	mov    %rax,-0x658(%rbp)
   14d66:	48 8d 85 22 ed ff ff 	lea    -0x12de(%rbp),%rax
   14d6d:	48 89 85 b0 f9 ff ff 	mov    %rax,-0x650(%rbp)
   14d74:	48 8d 85 22 ed ff ff 	lea    -0x12de(%rbp),%rax
   14d7b:	48 89 85 b8 f9 ff ff 	mov    %rax,-0x648(%rbp)
   14d82:	48 8d 85 22 ed ff ff 	lea    -0x12de(%rbp),%rax
   14d89:	48 89 85 c0 f9 ff ff 	mov    %rax,-0x640(%rbp)
   14d90:	48 8d 85 22 ed ff ff 	lea    -0x12de(%rbp),%rax
   14d97:	48 89 85 c8 f9 ff ff 	mov    %rax,-0x638(%rbp)
   14d9e:	48 8d 85 22 ed ff ff 	lea    -0x12de(%rbp),%rax
   14da5:	48 89 85 d0 f9 ff ff 	mov    %rax,-0x630(%rbp)
   14dac:	48 8d 85 22 ed ff ff 	lea    -0x12de(%rbp),%rax
   14db3:	48 89 85 d8 f9 ff ff 	mov    %rax,-0x628(%rbp)
   14dba:	48 8d 85 22 ed ff ff 	lea    -0x12de(%rbp),%rax
   14dc1:	48 89 85 e0 f9 ff ff 	mov    %rax,-0x620(%rbp)
   14dc8:	48 8d 85 22 ed ff ff 	lea    -0x12de(%rbp),%rax
   14dcf:	48 89 85 e8 f9 ff ff 	mov    %rax,-0x618(%rbp)
   14dd6:	48 8d 85 22 ed ff ff 	lea    -0x12de(%rbp),%rax
   14ddd:	48 89 85 f0 f9 ff ff 	mov    %rax,-0x610(%rbp)
   14de4:	48 8d 85 22 ed ff ff 	lea    -0x12de(%rbp),%rax
   14deb:	48 89 85 f8 f9 ff ff 	mov    %rax,-0x608(%rbp)
   14df2:	48 8d 85 22 ed ff ff 	lea    -0x12de(%rbp),%rax
   14df9:	48 89 85 00 fa ff ff 	mov    %rax,-0x600(%rbp)
   14e00:	48 8d 85 22 ed ff ff 	lea    -0x12de(%rbp),%rax
   14e07:	48 89 85 08 fa ff ff 	mov    %rax,-0x5f8(%rbp)
   14e0e:	48 8d 85 22 ed ff ff 	lea    -0x12de(%rbp),%rax
   14e15:	48 89 85 10 fa ff ff 	mov    %rax,-0x5f0(%rbp)
   14e1c:	48 8d 85 22 ed ff ff 	lea    -0x12de(%rbp),%rax
   14e23:	48 89 85 18 fa ff ff 	mov    %rax,-0x5e8(%rbp)
   14e2a:	48 8d 85 22 ed ff ff 	lea    -0x12de(%rbp),%rax
   14e31:	48 89 85 20 fa ff ff 	mov    %rax,-0x5e0(%rbp)
   14e38:	48 8d 85 22 ed ff ff 	lea    -0x12de(%rbp),%rax
   14e3f:	48 89 85 28 fa ff ff 	mov    %rax,-0x5d8(%rbp)
   14e46:	48 8d 85 22 ed ff ff 	lea    -0x12de(%rbp),%rax
   14e4d:	48 89 85 30 fa ff ff 	mov    %rax,-0x5d0(%rbp)
   14e54:	48 8d 85 22 ed ff ff 	lea    -0x12de(%rbp),%rax
   14e5b:	48 89 85 38 fa ff ff 	mov    %rax,-0x5c8(%rbp)
   14e62:	48 8d 85 22 ed ff ff 	lea    -0x12de(%rbp),%rax
   14e69:	48 89 85 40 fa ff ff 	mov    %rax,-0x5c0(%rbp)
   14e70:	48 8d 85 22 ed ff ff 	lea    -0x12de(%rbp),%rax
   14e77:	48 89 85 48 fa ff ff 	mov    %rax,-0x5b8(%rbp)
   14e7e:	48 8d 85 22 ed ff ff 	lea    -0x12de(%rbp),%rax
   14e85:	48 89 85 50 fa ff ff 	mov    %rax,-0x5b0(%rbp)
   14e8c:	48 8d 85 22 ed ff ff 	lea    -0x12de(%rbp),%rax
   14e93:	48 89 85 58 fa ff ff 	mov    %rax,-0x5a8(%rbp)
   14e9a:	48 8d 85 22 ed ff ff 	lea    -0x12de(%rbp),%rax
   14ea1:	48 89 85 60 fa ff ff 	mov    %rax,-0x5a0(%rbp)
   14ea8:	48 8d 85 22 ed ff ff 	lea    -0x12de(%rbp),%rax
   14eaf:	48 89 85 68 fa ff ff 	mov    %rax,-0x598(%rbp)
   14eb6:	48 8d 85 22 ed ff ff 	lea    -0x12de(%rbp),%rax
   14ebd:	48 89 85 70 fa ff ff 	mov    %rax,-0x590(%rbp)
   14ec4:	48 8d 85 22 ed ff ff 	lea    -0x12de(%rbp),%rax
   14ecb:	48 89 85 78 fa ff ff 	mov    %rax,-0x588(%rbp)
   14ed2:	48 8d 85 22 ed ff ff 	lea    -0x12de(%rbp),%rax
   14ed9:	48 89 85 80 fa ff ff 	mov    %rax,-0x580(%rbp)
   14ee0:	48 8d 85 22 ed ff ff 	lea    -0x12de(%rbp),%rax
   14ee7:	48 89 85 88 fa ff ff 	mov    %rax,-0x578(%rbp)
   14eee:	48 8d 85 22 ed ff ff 	lea    -0x12de(%rbp),%rax
   14ef5:	48 89 85 90 fa ff ff 	mov    %rax,-0x570(%rbp)
   14efc:	48 8d 85 22 ed ff ff 	lea    -0x12de(%rbp),%rax
   14f03:	48 89 85 98 fa ff ff 	mov    %rax,-0x568(%rbp)
   14f0a:	48 8d 85 22 ed ff ff 	lea    -0x12de(%rbp),%rax
   14f11:	48 89 85 a0 fa ff ff 	mov    %rax,-0x560(%rbp)
   14f18:	48 8d 85 22 ed ff ff 	lea    -0x12de(%rbp),%rax
   14f1f:	48 89 85 a8 fa ff ff 	mov    %rax,-0x558(%rbp)
   14f26:	48 8d 85 22 ed ff ff 	lea    -0x12de(%rbp),%rax
   14f2d:	48 89 85 b0 fa ff ff 	mov    %rax,-0x550(%rbp)
   14f34:	48 8d 85 22 ed ff ff 	lea    -0x12de(%rbp),%rax
   14f3b:	48 89 85 b8 fa ff ff 	mov    %rax,-0x548(%rbp)
   14f42:	48 8d 85 22 ed ff ff 	lea    -0x12de(%rbp),%rax
   14f49:	48 89 85 c0 fa ff ff 	mov    %rax,-0x540(%rbp)
   14f50:	48 8d 85 22 ed ff ff 	lea    -0x12de(%rbp),%rax
   14f57:	48 89 85 c8 fa ff ff 	mov    %rax,-0x538(%rbp)
   14f5e:	48 8d 85 22 ed ff ff 	lea    -0x12de(%rbp),%rax
   14f65:	48 89 85 d0 fa ff ff 	mov    %rax,-0x530(%rbp)
   14f6c:	48 8d 85 22 ed ff ff 	lea    -0x12de(%rbp),%rax
   14f73:	48 89 85 d8 fa ff ff 	mov    %rax,-0x528(%rbp)
   14f7a:	48 8d 85 22 ed ff ff 	lea    -0x12de(%rbp),%rax
   14f81:	48 89 85 e0 fa ff ff 	mov    %rax,-0x520(%rbp)
   14f88:	48 8d 85 22 ed ff ff 	lea    -0x12de(%rbp),%rax
   14f8f:	48 89 85 e8 fa ff ff 	mov    %rax,-0x518(%rbp)
   14f96:	48 8d 85 22 ed ff ff 	lea    -0x12de(%rbp),%rax
   14f9d:	48 89 85 f0 fa ff ff 	mov    %rax,-0x510(%rbp)
   14fa4:	48 8d 85 22 ed ff ff 	lea    -0x12de(%rbp),%rax
   14fab:	48 89 85 f8 fa ff ff 	mov    %rax,-0x508(%rbp)
   14fb2:	48 8d 85 22 ed ff ff 	lea    -0x12de(%rbp),%rax
   14fb9:	48 89 85 00 fb ff ff 	mov    %rax,-0x500(%rbp)
   14fc0:	48 8d 85 22 ed ff ff 	lea    -0x12de(%rbp),%rax
   14fc7:	48 89 85 08 fb ff ff 	mov    %rax,-0x4f8(%rbp)
   14fce:	48 8d 85 22 ed ff ff 	lea    -0x12de(%rbp),%rax
   14fd5:	48 89 85 10 fb ff ff 	mov    %rax,-0x4f0(%rbp)
   14fdc:	48 8d 85 22 ed ff ff 	lea    -0x12de(%rbp),%rax
   14fe3:	48 89 85 18 fb ff ff 	mov    %rax,-0x4e8(%rbp)
   14fea:	48 8d 85 22 ed ff ff 	lea    -0x12de(%rbp),%rax
   14ff1:	48 89 85 20 fb ff ff 	mov    %rax,-0x4e0(%rbp)
   14ff8:	48 8d 85 22 ed ff ff 	lea    -0x12de(%rbp),%rax
   14fff:	48 89 85 28 fb ff ff 	mov    %rax,-0x4d8(%rbp)
   15006:	48 8d 85 22 ed ff ff 	lea    -0x12de(%rbp),%rax
   1500d:	48 89 85 30 fb ff ff 	mov    %rax,-0x4d0(%rbp)
   15014:	48 8d 85 22 ed ff ff 	lea    -0x12de(%rbp),%rax
   1501b:	48 89 85 38 fb ff ff 	mov    %rax,-0x4c8(%rbp)
   15022:	48 8d 85 22 ed ff ff 	lea    -0x12de(%rbp),%rax
   15029:	48 89 85 40 fb ff ff 	mov    %rax,-0x4c0(%rbp)
   15030:	48 8d 85 22 ed ff ff 	lea    -0x12de(%rbp),%rax
   15037:	48 89 85 48 fb ff ff 	mov    %rax,-0x4b8(%rbp)
   1503e:	48 8d 85 22 ed ff ff 	lea    -0x12de(%rbp),%rax
   15045:	48 89 85 50 fb ff ff 	mov    %rax,-0x4b0(%rbp)
   1504c:	48 8d 85 22 ed ff ff 	lea    -0x12de(%rbp),%rax
   15053:	48 89 85 58 fb ff ff 	mov    %rax,-0x4a8(%rbp)
   1505a:	48 8d 85 22 ed ff ff 	lea    -0x12de(%rbp),%rax
   15061:	48 89 85 60 fb ff ff 	mov    %rax,-0x4a0(%rbp)
   15068:	48 8d 85 22 ed ff ff 	lea    -0x12de(%rbp),%rax
   1506f:	48 89 85 68 fb ff ff 	mov    %rax,-0x498(%rbp)
   15076:	48 8d 85 22 ed ff ff 	lea    -0x12de(%rbp),%rax
   1507d:	48 89 85 70 fb ff ff 	mov    %rax,-0x490(%rbp)
   15084:	48 8d 85 22 ed ff ff 	lea    -0x12de(%rbp),%rax
   1508b:	48 89 85 78 fb ff ff 	mov    %rax,-0x488(%rbp)
   15092:	48 8d 85 22 ed ff ff 	lea    -0x12de(%rbp),%rax
   15099:	48 89 85 80 fb ff ff 	mov    %rax,-0x480(%rbp)
   150a0:	48 8d 85 22 ed ff ff 	lea    -0x12de(%rbp),%rax
   150a7:	48 89 85 88 fb ff ff 	mov    %rax,-0x478(%rbp)
   150ae:	48 8d 85 22 ed ff ff 	lea    -0x12de(%rbp),%rax
   150b5:	48 89 85 90 fb ff ff 	mov    %rax,-0x470(%rbp)
   150bc:	48 8d 85 22 ed ff ff 	lea    -0x12de(%rbp),%rax
   150c3:	48 89 85 98 fb ff ff 	mov    %rax,-0x468(%rbp)
   150ca:	48 8d 85 22 ed ff ff 	lea    -0x12de(%rbp),%rax
   150d1:	48 89 85 a0 fb ff ff 	mov    %rax,-0x460(%rbp)
   150d8:	48 8d 85 22 ed ff ff 	lea    -0x12de(%rbp),%rax
   150df:	48 89 85 a8 fb ff ff 	mov    %rax,-0x458(%rbp)
   150e6:	48 8d 85 22 ed ff ff 	lea    -0x12de(%rbp),%rax
   150ed:	48 89 85 b0 fb ff ff 	mov    %rax,-0x450(%rbp)
   150f4:	48 8d 85 22 ed ff ff 	lea    -0x12de(%rbp),%rax
   150fb:	48 89 85 b8 fb ff ff 	mov    %rax,-0x448(%rbp)
   15102:	48 8d 85 22 ed ff ff 	lea    -0x12de(%rbp),%rax
   15109:	48 89 85 c0 fb ff ff 	mov    %rax,-0x440(%rbp)
   15110:	48 8d 85 22 ed ff ff 	lea    -0x12de(%rbp),%rax
   15117:	48 89 85 c8 fb ff ff 	mov    %rax,-0x438(%rbp)
   1511e:	48 8d 85 22 ed ff ff 	lea    -0x12de(%rbp),%rax
   15125:	48 89 85 d0 fb ff ff 	mov    %rax,-0x430(%rbp)
   1512c:	48 8d 85 22 ed ff ff 	lea    -0x12de(%rbp),%rax
   15133:	48 89 85 d8 fb ff ff 	mov    %rax,-0x428(%rbp)
   1513a:	48 8d 85 22 ed ff ff 	lea    -0x12de(%rbp),%rax
   15141:	48 89 85 e0 fb ff ff 	mov    %rax,-0x420(%rbp)
   15148:	48 8d 85 22 ed ff ff 	lea    -0x12de(%rbp),%rax
   1514f:	48 89 85 e8 fb ff ff 	mov    %rax,-0x418(%rbp)
   15156:	48 8d 85 22 ed ff ff 	lea    -0x12de(%rbp),%rax
   1515d:	48 89 85 f0 fb ff ff 	mov    %rax,-0x410(%rbp)
   15164:	48 8d 85 22 ed ff ff 	lea    -0x12de(%rbp),%rax
   1516b:	48 89 85 f8 fb ff ff 	mov    %rax,-0x408(%rbp)
   15172:	48 8d 85 22 ed ff ff 	lea    -0x12de(%rbp),%rax
   15179:	48 89 85 00 fc ff ff 	mov    %rax,-0x400(%rbp)
   15180:	48 8d 85 22 ed ff ff 	lea    -0x12de(%rbp),%rax
   15187:	48 89 85 08 fc ff ff 	mov    %rax,-0x3f8(%rbp)
   1518e:	48 8d 85 22 ed ff ff 	lea    -0x12de(%rbp),%rax
   15195:	48 89 85 10 fc ff ff 	mov    %rax,-0x3f0(%rbp)
   1519c:	48 8d 85 22 ed ff ff 	lea    -0x12de(%rbp),%rax
   151a3:	48 89 85 18 fc ff ff 	mov    %rax,-0x3e8(%rbp)
   151aa:	48 8d 85 22 ed ff ff 	lea    -0x12de(%rbp),%rax
   151b1:	48 89 85 20 fc ff ff 	mov    %rax,-0x3e0(%rbp)
   151b8:	48 8d 85 22 ed ff ff 	lea    -0x12de(%rbp),%rax
   151bf:	48 89 85 28 fc ff ff 	mov    %rax,-0x3d8(%rbp)
   151c6:	48 8d 85 22 ed ff ff 	lea    -0x12de(%rbp),%rax
   151cd:	48 89 85 30 fc ff ff 	mov    %rax,-0x3d0(%rbp)
   151d4:	48 8d 85 22 ed ff ff 	lea    -0x12de(%rbp),%rax
   151db:	48 89 85 38 fc ff ff 	mov    %rax,-0x3c8(%rbp)
   151e2:	48 8d 85 22 ed ff ff 	lea    -0x12de(%rbp),%rax
   151e9:	48 89 85 40 fc ff ff 	mov    %rax,-0x3c0(%rbp)
   151f0:	48 8d 85 22 ed ff ff 	lea    -0x12de(%rbp),%rax
   151f7:	48 89 85 48 fc ff ff 	mov    %rax,-0x3b8(%rbp)
   151fe:	48 8d 85 22 ed ff ff 	lea    -0x12de(%rbp),%rax
   15205:	48 89 85 50 fc ff ff 	mov    %rax,-0x3b0(%rbp)
   1520c:	48 8d 85 22 ed ff ff 	lea    -0x12de(%rbp),%rax
   15213:	48 89 85 58 fc ff ff 	mov    %rax,-0x3a8(%rbp)
   1521a:	48 8d 85 22 ed ff ff 	lea    -0x12de(%rbp),%rax
   15221:	48 89 85 60 fc ff ff 	mov    %rax,-0x3a0(%rbp)
   15228:	48 8d 85 22 ed ff ff 	lea    -0x12de(%rbp),%rax
   1522f:	48 89 85 68 fc ff ff 	mov    %rax,-0x398(%rbp)
   15236:	48 8d 85 22 ed ff ff 	lea    -0x12de(%rbp),%rax
   1523d:	48 89 85 70 fc ff ff 	mov    %rax,-0x390(%rbp)
   15244:	48 8d 85 22 ed ff ff 	lea    -0x12de(%rbp),%rax
   1524b:	48 89 85 78 fc ff ff 	mov    %rax,-0x388(%rbp)
   15252:	48 8d 85 22 ed ff ff 	lea    -0x12de(%rbp),%rax
   15259:	48 89 85 80 fc ff ff 	mov    %rax,-0x380(%rbp)
   15260:	48 8d 85 22 ed ff ff 	lea    -0x12de(%rbp),%rax
   15267:	48 89 85 88 fc ff ff 	mov    %rax,-0x378(%rbp)
   1526e:	48 8d 85 22 ed ff ff 	lea    -0x12de(%rbp),%rax
   15275:	48 89 85 90 fc ff ff 	mov    %rax,-0x370(%rbp)
   1527c:	48 8d 85 22 ed ff ff 	lea    -0x12de(%rbp),%rax
   15283:	48 89 85 98 fc ff ff 	mov    %rax,-0x368(%rbp)
   1528a:	48 8d 85 22 ed ff ff 	lea    -0x12de(%rbp),%rax
   15291:	48 89 85 a0 fc ff ff 	mov    %rax,-0x360(%rbp)
   15298:	48 8d 85 22 ed ff ff 	lea    -0x12de(%rbp),%rax
   1529f:	48 89 85 a8 fc ff ff 	mov    %rax,-0x358(%rbp)
   152a6:	48 8d 85 22 ed ff ff 	lea    -0x12de(%rbp),%rax
   152ad:	48 89 85 b0 fc ff ff 	mov    %rax,-0x350(%rbp)
   152b4:	48 8d 85 22 ed ff ff 	lea    -0x12de(%rbp),%rax
   152bb:	48 89 85 b8 fc ff ff 	mov    %rax,-0x348(%rbp)
   152c2:	48 8d 85 22 ed ff ff 	lea    -0x12de(%rbp),%rax
   152c9:	48 89 85 c0 fc ff ff 	mov    %rax,-0x340(%rbp)
   152d0:	48 8d 85 22 ed ff ff 	lea    -0x12de(%rbp),%rax
   152d7:	48 89 85 c8 fc ff ff 	mov    %rax,-0x338(%rbp)
   152de:	48 8d 85 22 ed ff ff 	lea    -0x12de(%rbp),%rax
   152e5:	48 89 85 d0 fc ff ff 	mov    %rax,-0x330(%rbp)
   152ec:	48 8d 85 22 ed ff ff 	lea    -0x12de(%rbp),%rax
   152f3:	48 89 85 d8 fc ff ff 	mov    %rax,-0x328(%rbp)
   152fa:	48 8d 85 22 ed ff ff 	lea    -0x12de(%rbp),%rax
   15301:	48 89 85 e0 fc ff ff 	mov    %rax,-0x320(%rbp)
   15308:	48 8d 85 22 ed ff ff 	lea    -0x12de(%rbp),%rax
   1530f:	48 89 85 e8 fc ff ff 	mov    %rax,-0x318(%rbp)
   15316:	48 8d 85 22 ed ff ff 	lea    -0x12de(%rbp),%rax
   1531d:	48 89 85 f0 fc ff ff 	mov    %rax,-0x310(%rbp)
   15324:	48 8d 85 22 ed ff ff 	lea    -0x12de(%rbp),%rax
   1532b:	48 89 85 f8 fc ff ff 	mov    %rax,-0x308(%rbp)
   15332:	48 8d 85 22 ed ff ff 	lea    -0x12de(%rbp),%rax
   15339:	48 89 85 00 fd ff ff 	mov    %rax,-0x300(%rbp)
   15340:	48 8d 85 22 ed ff ff 	lea    -0x12de(%rbp),%rax
   15347:	48 89 85 08 fd ff ff 	mov    %rax,-0x2f8(%rbp)
   1534e:	48 8d 85 22 ed ff ff 	lea    -0x12de(%rbp),%rax
   15355:	48 89 85 10 fd ff ff 	mov    %rax,-0x2f0(%rbp)
   1535c:	48 8d 85 22 ed ff ff 	lea    -0x12de(%rbp),%rax
   15363:	48 89 85 18 fd ff ff 	mov    %rax,-0x2e8(%rbp)
   1536a:	48 8d 85 22 ed ff ff 	lea    -0x12de(%rbp),%rax
   15371:	48 89 85 20 fd ff ff 	mov    %rax,-0x2e0(%rbp)
   15378:	48 8d 85 22 ed ff ff 	lea    -0x12de(%rbp),%rax
   1537f:	48 89 85 28 fd ff ff 	mov    %rax,-0x2d8(%rbp)
   15386:	48 8d 85 22 ed ff ff 	lea    -0x12de(%rbp),%rax
   1538d:	48 89 85 30 fd ff ff 	mov    %rax,-0x2d0(%rbp)
   15394:	48 8d 85 22 ed ff ff 	lea    -0x12de(%rbp),%rax
   1539b:	48 89 85 38 fd ff ff 	mov    %rax,-0x2c8(%rbp)
   153a2:	48 8d 85 22 ed ff ff 	lea    -0x12de(%rbp),%rax
   153a9:	48 89 85 40 fd ff ff 	mov    %rax,-0x2c0(%rbp)
   153b0:	48 8d 85 22 ed ff ff 	lea    -0x12de(%rbp),%rax
   153b7:	48 89 85 48 fd ff ff 	mov    %rax,-0x2b8(%rbp)
   153be:	48 8d 85 22 ed ff ff 	lea    -0x12de(%rbp),%rax
   153c5:	48 89 85 50 fd ff ff 	mov    %rax,-0x2b0(%rbp)
   153cc:	48 8d 85 22 ed ff ff 	lea    -0x12de(%rbp),%rax
   153d3:	48 89 85 58 fd ff ff 	mov    %rax,-0x2a8(%rbp)
   153da:	48 8d 85 22 ed ff ff 	lea    -0x12de(%rbp),%rax
   153e1:	48 89 85 60 fd ff ff 	mov    %rax,-0x2a0(%rbp)
   153e8:	48 8d 85 22 ed ff ff 	lea    -0x12de(%rbp),%rax
   153ef:	48 89 85 68 fd ff ff 	mov    %rax,-0x298(%rbp)
   153f6:	48 8d 85 22 ed ff ff 	lea    -0x12de(%rbp),%rax
   153fd:	48 89 85 70 fd ff ff 	mov    %rax,-0x290(%rbp)
   15404:	48 8d 85 22 ed ff ff 	lea    -0x12de(%rbp),%rax
   1540b:	48 89 85 78 fd ff ff 	mov    %rax,-0x288(%rbp)
   15412:	48 8d 85 22 ed ff ff 	lea    -0x12de(%rbp),%rax
   15419:	48 89 85 80 fd ff ff 	mov    %rax,-0x280(%rbp)
   15420:	48 8d 85 22 ed ff ff 	lea    -0x12de(%rbp),%rax
   15427:	48 89 85 88 fd ff ff 	mov    %rax,-0x278(%rbp)
   1542e:	48 8d 85 22 ed ff ff 	lea    -0x12de(%rbp),%rax
   15435:	48 89 85 90 fd ff ff 	mov    %rax,-0x270(%rbp)
   1543c:	48 8d 85 22 ed ff ff 	lea    -0x12de(%rbp),%rax
   15443:	48 89 85 98 fd ff ff 	mov    %rax,-0x268(%rbp)
   1544a:	48 8d 85 22 ed ff ff 	lea    -0x12de(%rbp),%rax
   15451:	48 89 85 a0 fd ff ff 	mov    %rax,-0x260(%rbp)
   15458:	48 8d 85 22 ed ff ff 	lea    -0x12de(%rbp),%rax
   1545f:	48 89 85 a8 fd ff ff 	mov    %rax,-0x258(%rbp)
   15466:	48 8d 85 22 ed ff ff 	lea    -0x12de(%rbp),%rax
   1546d:	48 89 85 b0 fd ff ff 	mov    %rax,-0x250(%rbp)
   15474:	48 8d 85 22 ed ff ff 	lea    -0x12de(%rbp),%rax
   1547b:	48 89 85 b8 fd ff ff 	mov    %rax,-0x248(%rbp)
   15482:	48 8d 85 22 ed ff ff 	lea    -0x12de(%rbp),%rax
   15489:	48 89 85 c0 fd ff ff 	mov    %rax,-0x240(%rbp)
   15490:	48 8d 85 22 ed ff ff 	lea    -0x12de(%rbp),%rax
   15497:	48 89 85 c8 fd ff ff 	mov    %rax,-0x238(%rbp)
   1549e:	48 8d 85 22 ed ff ff 	lea    -0x12de(%rbp),%rax
   154a5:	48 89 85 d0 fd ff ff 	mov    %rax,-0x230(%rbp)
   154ac:	48 8d 85 22 ed ff ff 	lea    -0x12de(%rbp),%rax
   154b3:	48 89 85 d8 fd ff ff 	mov    %rax,-0x228(%rbp)
   154ba:	48 8d 85 22 ed ff ff 	lea    -0x12de(%rbp),%rax
   154c1:	48 89 85 e0 fd ff ff 	mov    %rax,-0x220(%rbp)
   154c8:	48 8d 85 22 ed ff ff 	lea    -0x12de(%rbp),%rax
   154cf:	48 89 85 e8 fd ff ff 	mov    %rax,-0x218(%rbp)
   154d6:	48 8d 85 22 ed ff ff 	lea    -0x12de(%rbp),%rax
   154dd:	48 89 85 f0 fd ff ff 	mov    %rax,-0x210(%rbp)
   154e4:	48 8d 85 22 ed ff ff 	lea    -0x12de(%rbp),%rax
   154eb:	48 89 85 f8 fd ff ff 	mov    %rax,-0x208(%rbp)
   154f2:	48 8d 85 22 ed ff ff 	lea    -0x12de(%rbp),%rax
   154f9:	48 89 85 00 fe ff ff 	mov    %rax,-0x200(%rbp)
   15500:	48 8d 85 22 ed ff ff 	lea    -0x12de(%rbp),%rax
   15507:	48 89 85 08 fe ff ff 	mov    %rax,-0x1f8(%rbp)
   1550e:	48 8d 85 22 ed ff ff 	lea    -0x12de(%rbp),%rax
   15515:	48 89 85 10 fe ff ff 	mov    %rax,-0x1f0(%rbp)
   1551c:	48 8d 85 22 ed ff ff 	lea    -0x12de(%rbp),%rax
   15523:	48 89 85 18 fe ff ff 	mov    %rax,-0x1e8(%rbp)
   1552a:	48 8d 85 22 ed ff ff 	lea    -0x12de(%rbp),%rax
   15531:	48 89 85 20 fe ff ff 	mov    %rax,-0x1e0(%rbp)
   15538:	48 8d 85 22 ed ff ff 	lea    -0x12de(%rbp),%rax
   1553f:	48 89 85 28 fe ff ff 	mov    %rax,-0x1d8(%rbp)
   15546:	48 8d 85 22 ed ff ff 	lea    -0x12de(%rbp),%rax
   1554d:	48 89 85 30 fe ff ff 	mov    %rax,-0x1d0(%rbp)
   15554:	48 8d 85 22 ed ff ff 	lea    -0x12de(%rbp),%rax
   1555b:	48 89 85 38 fe ff ff 	mov    %rax,-0x1c8(%rbp)
   15562:	48 8d 85 22 ed ff ff 	lea    -0x12de(%rbp),%rax
   15569:	48 89 85 40 fe ff ff 	mov    %rax,-0x1c0(%rbp)
   15570:	48 8d 85 22 ed ff ff 	lea    -0x12de(%rbp),%rax
   15577:	48 89 85 48 fe ff ff 	mov    %rax,-0x1b8(%rbp)
   1557e:	48 8d 85 22 ed ff ff 	lea    -0x12de(%rbp),%rax
   15585:	48 89 85 50 fe ff ff 	mov    %rax,-0x1b0(%rbp)
   1558c:	48 8d 85 22 ed ff ff 	lea    -0x12de(%rbp),%rax
   15593:	48 89 85 58 fe ff ff 	mov    %rax,-0x1a8(%rbp)
   1559a:	48 8d 85 22 ed ff ff 	lea    -0x12de(%rbp),%rax
   155a1:	48 89 85 60 fe ff ff 	mov    %rax,-0x1a0(%rbp)
   155a8:	48 8d 85 22 ed ff ff 	lea    -0x12de(%rbp),%rax
   155af:	48 89 85 68 fe ff ff 	mov    %rax,-0x198(%rbp)
   155b6:	48 8d 85 22 ed ff ff 	lea    -0x12de(%rbp),%rax
   155bd:	48 89 85 70 fe ff ff 	mov    %rax,-0x190(%rbp)
   155c4:	48 8d 85 22 ed ff ff 	lea    -0x12de(%rbp),%rax
   155cb:	48 89 85 78 fe ff ff 	mov    %rax,-0x188(%rbp)
   155d2:	48 8d 85 22 ed ff ff 	lea    -0x12de(%rbp),%rax
   155d9:	48 89 85 80 fe ff ff 	mov    %rax,-0x180(%rbp)
   155e0:	48 8d 85 22 ed ff ff 	lea    -0x12de(%rbp),%rax
   155e7:	48 89 85 88 fe ff ff 	mov    %rax,-0x178(%rbp)
   155ee:	48 8d 85 22 ed ff ff 	lea    -0x12de(%rbp),%rax
   155f5:	48 89 85 90 fe ff ff 	mov    %rax,-0x170(%rbp)
   155fc:	48 8d 85 22 ed ff ff 	lea    -0x12de(%rbp),%rax
   15603:	48 89 85 98 fe ff ff 	mov    %rax,-0x168(%rbp)
   1560a:	48 8d 85 22 ed ff ff 	lea    -0x12de(%rbp),%rax
   15611:	48 89 85 a0 fe ff ff 	mov    %rax,-0x160(%rbp)
   15618:	48 8d 85 22 ed ff ff 	lea    -0x12de(%rbp),%rax
   1561f:	48 89 85 a8 fe ff ff 	mov    %rax,-0x158(%rbp)
   15626:	48 8d 85 22 ed ff ff 	lea    -0x12de(%rbp),%rax
   1562d:	48 89 85 b0 fe ff ff 	mov    %rax,-0x150(%rbp)
   15634:	48 8d 85 22 ed ff ff 	lea    -0x12de(%rbp),%rax
   1563b:	48 89 85 b8 fe ff ff 	mov    %rax,-0x148(%rbp)
   15642:	48 8d 85 22 ed ff ff 	lea    -0x12de(%rbp),%rax
   15649:	48 89 85 c0 fe ff ff 	mov    %rax,-0x140(%rbp)
   15650:	48 8d 85 22 ed ff ff 	lea    -0x12de(%rbp),%rax
   15657:	48 89 85 c8 fe ff ff 	mov    %rax,-0x138(%rbp)
   1565e:	48 8d 85 22 ed ff ff 	lea    -0x12de(%rbp),%rax
   15665:	48 89 85 d0 fe ff ff 	mov    %rax,-0x130(%rbp)
   1566c:	48 8d 85 22 ed ff ff 	lea    -0x12de(%rbp),%rax
   15673:	48 89 85 d8 fe ff ff 	mov    %rax,-0x128(%rbp)
   1567a:	48 8d 85 22 ed ff ff 	lea    -0x12de(%rbp),%rax
   15681:	48 89 85 e0 fe ff ff 	mov    %rax,-0x120(%rbp)
   15688:	48 8d 85 22 ed ff ff 	lea    -0x12de(%rbp),%rax
   1568f:	48 89 85 e8 fe ff ff 	mov    %rax,-0x118(%rbp)
   15696:	48 8d 85 22 ed ff ff 	lea    -0x12de(%rbp),%rax
   1569d:	48 89 85 f0 fe ff ff 	mov    %rax,-0x110(%rbp)
   156a4:	48 8d 85 22 ed ff ff 	lea    -0x12de(%rbp),%rax
   156ab:	48 89 85 f8 fe ff ff 	mov    %rax,-0x108(%rbp)
   156b2:	48 8d 85 22 ed ff ff 	lea    -0x12de(%rbp),%rax
   156b9:	48 89 85 00 ff ff ff 	mov    %rax,-0x100(%rbp)
   156c0:	48 8d 85 22 ed ff ff 	lea    -0x12de(%rbp),%rax
   156c7:	48 89 85 08 ff ff ff 	mov    %rax,-0xf8(%rbp)
   156ce:	48 8d 85 22 ed ff ff 	lea    -0x12de(%rbp),%rax
   156d5:	48 89 85 10 ff ff ff 	mov    %rax,-0xf0(%rbp)
   156dc:	48 8d 85 22 ed ff ff 	lea    -0x12de(%rbp),%rax
   156e3:	48 89 85 18 ff ff ff 	mov    %rax,-0xe8(%rbp)
   156ea:	48 8d 85 22 ed ff ff 	lea    -0x12de(%rbp),%rax
   156f1:	48 89 85 20 ff ff ff 	mov    %rax,-0xe0(%rbp)
   156f8:	48 8d 85 22 ed ff ff 	lea    -0x12de(%rbp),%rax
   156ff:	48 89 85 28 ff ff ff 	mov    %rax,-0xd8(%rbp)
   15706:	48 8d 85 22 ed ff ff 	lea    -0x12de(%rbp),%rax
   1570d:	48 89 85 30 ff ff ff 	mov    %rax,-0xd0(%rbp)
   15714:	48 8d 85 22 ed ff ff 	lea    -0x12de(%rbp),%rax
   1571b:	48 89 85 38 ff ff ff 	mov    %rax,-0xc8(%rbp)
   15722:	48 8d 85 22 ed ff ff 	lea    -0x12de(%rbp),%rax
   15729:	48 89 85 40 ff ff ff 	mov    %rax,-0xc0(%rbp)
   15730:	48 8d 85 22 ed ff ff 	lea    -0x12de(%rbp),%rax
   15737:	48 89 85 48 ff ff ff 	mov    %rax,-0xb8(%rbp)
   1573e:	48 8d 85 22 ed ff ff 	lea    -0x12de(%rbp),%rax
   15745:	48 89 85 50 ff ff ff 	mov    %rax,-0xb0(%rbp)
   1574c:	48 8d 85 22 ed ff ff 	lea    -0x12de(%rbp),%rax
   15753:	48 89 85 58 ff ff ff 	mov    %rax,-0xa8(%rbp)
   1575a:	48 8d 85 22 ed ff ff 	lea    -0x12de(%rbp),%rax
   15761:	48 89 85 60 ff ff ff 	mov    %rax,-0xa0(%rbp)
   15768:	48 8d 85 22 ed ff ff 	lea    -0x12de(%rbp),%rax
   1576f:	48 89 85 68 ff ff ff 	mov    %rax,-0x98(%rbp)
   15776:	48 8d 85 22 ed ff ff 	lea    -0x12de(%rbp),%rax
   1577d:	48 89 85 70 ff ff ff 	mov    %rax,-0x90(%rbp)
   15784:	48 8d 85 22 ed ff ff 	lea    -0x12de(%rbp),%rax
   1578b:	48 89 85 78 ff ff ff 	mov    %rax,-0x88(%rbp)
   15792:	48 8d 85 22 ed ff ff 	lea    -0x12de(%rbp),%rax
   15799:	48 89 45 80          	mov    %rax,-0x80(%rbp)
   1579d:	48 8d 85 22 ed ff ff 	lea    -0x12de(%rbp),%rax
   157a4:	48 89 45 88          	mov    %rax,-0x78(%rbp)
   157a8:	48 8d 85 22 ed ff ff 	lea    -0x12de(%rbp),%rax
   157af:	48 89 45 90          	mov    %rax,-0x70(%rbp)
   157b3:	48 8d 85 22 ed ff ff 	lea    -0x12de(%rbp),%rax
   157ba:	48 89 45 98          	mov    %rax,-0x68(%rbp)
   157be:	48 8d 85 22 ed ff ff 	lea    -0x12de(%rbp),%rax
   157c5:	48 89 45 a0          	mov    %rax,-0x60(%rbp)
   157c9:	48 8d 85 22 ed ff ff 	lea    -0x12de(%rbp),%rax
   157d0:	48 89 45 a8          	mov    %rax,-0x58(%rbp)
   157d4:	48 8d 85 22 ed ff ff 	lea    -0x12de(%rbp),%rax
   157db:	48 89 45 b0          	mov    %rax,-0x50(%rbp)
   157df:	48 8d 85 22 ed ff ff 	lea    -0x12de(%rbp),%rax
   157e6:	48 89 45 b8          	mov    %rax,-0x48(%rbp)
   157ea:	c7 85 80 ed ff ff ff 	movl   $0xffffffff,-0x1280(%rbp)
   157f1:	ff ff ff 
   157f4:	c7 85 84 ed ff ff ff 	movl   $0xffffffff,-0x127c(%rbp)
   157fb:	ff ff ff 
   157fe:	c7 85 88 ed ff ff e5 	movl   $0x9919fe5,-0x1278(%rbp)
   15805:	9f 91 09 
   15808:	c7 85 8c ed ff ff fc 	movl   $0x7fe986fc,-0x1274(%rbp)
   1580f:	86 e9 7f 
   15812:	c7 85 90 ed ff ff 95 	movl   $0x8a552695,-0x1270(%rbp)
   15819:	26 55 8a 
   1581c:	c7 85 60 f0 ff ff 02 	movl   $0x2,-0xfa0(%rbp)
   15823:	00 00 00 
   15826:	c7 85 64 f0 ff ff 77 	movl   $0x8ffc6a77,-0xf9c(%rbp)
   1582d:	6a fc 8f 
   15830:	c7 85 68 f0 ff ff 77 	movl   $0x8ffc6a77,-0xf98(%rbp)
   15837:	6a fc 8f 
   1583a:	c7 85 6c f0 ff ff 02 	movl   $0x2,-0xf94(%rbp)
   15841:	00 00 00 
   15844:	c7 85 70 f0 ff ff 77 	movl   $0x8ffc6a77,-0xf90(%rbp)
   1584b:	6a fc 8f 
   1584e:	c7 85 74 f0 ff ff 77 	movl   $0x8ffc6a77,-0xf8c(%rbp)
   15855:	6a fc 8f 
   15858:	c7 85 78 f0 ff ff 02 	movl   $0x2,-0xf88(%rbp)
   1585f:	00 00 00 
   15862:	c7 85 7c f0 ff ff 77 	movl   $0x8ffc6a77,-0xf84(%rbp)
   15869:	6a fc 8f 
   1586c:	c7 85 80 f0 ff ff 77 	movl   $0x8ffc6a77,-0xf80(%rbp)
   15873:	6a fc 8f 
   15876:	c7 85 84 f0 ff ff 02 	movl   $0x2,-0xf7c(%rbp)
   1587d:	00 00 00 
   15880:	c7 85 88 f0 ff ff 77 	movl   $0x8ffc6a77,-0xf78(%rbp)
   15887:	6a fc 8f 
   1588a:	c7 85 8c f0 ff ff 77 	movl   $0x8ffc6a77,-0xf74(%rbp)
   15891:	6a fc 8f 
   15894:	c7 85 90 f0 ff ff 02 	movl   $0x2,-0xf70(%rbp)
   1589b:	00 00 00 
   1589e:	c7 85 94 f0 ff ff 77 	movl   $0x8ffc6a77,-0xf6c(%rbp)
   158a5:	6a fc 8f 
   158a8:	c7 85 98 f0 ff ff 77 	movl   $0x8ffc6a77,-0xf68(%rbp)
   158af:	6a fc 8f 
   158b2:	48 c7 85 08 ee ff ff 	movq   $0x1,-0x11f8(%rbp)
   158b9:	01 00 00 00 
   158bd:	48 8d 85 1b ed ff ff 	lea    -0x12e5(%rbp),%rax
   158c4:	48 89 85 60 ee ff ff 	mov    %rax,-0x11a0(%rbp)
   158cb:	c6 85 1e ed ff ff 2f 	movb   $0x2f,-0x12e2(%rbp)
   158d2:	48 8d 85 3c ed ff ff 	lea    -0x12c4(%rbp),%rax
   158d9:	48 89 85 68 ee ff ff 	mov    %rax,-0x1198(%rbp)
   158e0:	48 c7 85 70 ee ff ff 	movq   $0x0,-0x1190(%rbp)
   158e7:	00 00 00 00 
   158eb:	48 8d 85 60 f0 ff ff 	lea    -0xfa0(%rbp),%rax
   158f2:	48 89 85 78 ee ff ff 	mov    %rax,-0x1188(%rbp)
   158f9:	c7 85 94 ed ff ff fe 	movl   $0xfffffffe,-0x126c(%rbp)
   15900:	ff ff ff 
   15903:	c6 85 1f ed ff ff 00 	movb   $0x0,-0x12e1(%rbp)
   1590a:	c7 85 50 ed ff ff 00 	movl   $0x0,-0x12b0(%rbp)
   15911:	00 00 00 
   15914:	eb 1b                	jmp    15931 <func_63+0x147b>
   15916:	8b 85 50 ed ff ff    	mov    -0x12b0(%rbp),%eax
   1591c:	48 98                	cltq   
   1591e:	48 c7 84 c5 78 ef ff 	movq   $0x0,-0x1088(%rbp,%rax,8)
   15925:	ff 00 00 00 00 
   1592a:	83 85 50 ed ff ff 01 	addl   $0x1,-0x12b0(%rbp)
   15931:	83 bd 50 ed ff ff 00 	cmpl   $0x0,-0x12b0(%rbp)
   15938:	7e dc                	jle    15916 <func_63+0x1460>
   1593a:	0f b6 85 1b ed ff ff 	movzbl -0x12e5(%rbp),%eax
   15941:	0f be d8             	movsbl %al,%ebx
   15944:	8b 85 04 ed ff ff    	mov    -0x12fc(%rbp),%eax
   1594a:	0f b6 c0             	movzbl %al,%eax
   1594d:	be 01 00 00 00       	mov    $0x1,%esi
   15952:	89 c7                	mov    %eax,%edi
   15954:	e8 ac 62 ff ff       	callq  bc05 <safe_lshift_func_uint8_t_u_s>
   15959:	0f b6 c0             	movzbl %al,%eax
   1595c:	39 c3                	cmp    %eax,%ebx
   1595e:	0f 94 c0             	sete   %al
   15961:	89 c2                	mov    %eax,%edx
   15963:	48 8b 85 58 ee ff ff 	mov    -0x11a8(%rbp),%rax
   1596a:	88 10                	mov    %dl,(%rax)
   1596c:	48 8b 85 58 ee ff ff 	mov    -0x11a8(%rbp),%rax
   15973:	0f b6 00             	movzbl (%rax),%eax
   15976:	0f b6 d0             	movzbl %al,%edx
   15979:	8b 85 04 ed ff ff    	mov    -0x12fc(%rbp),%eax
   1597f:	0f b6 c0             	movzbl %al,%eax
   15982:	89 d6                	mov    %edx,%esi
   15984:	89 c7                	mov    %eax,%edi
   15986:	e8 08 62 ff ff       	callq  bb93 <safe_mul_func_uint8_t_u_u>
   1598b:	84 c0                	test   %al,%al
   1598d:	0f 84 18 15 00 00    	je     16eab <func_63+0x29f5>
   15993:	48 8d 85 1b ed ff ff 	lea    -0x12e5(%rbp),%rax
   1599a:	48 89 85 10 ee ff ff 	mov    %rax,-0x11f0(%rbp)
   159a1:	c7 85 40 ed ff ff e9 	movl   $0xa6a1c6e9,-0x12c0(%rbp)
   159a8:	c6 a1 a6 
   159ab:	48 8d 85 f0 ed ff ff 	lea    -0x1210(%rbp),%rax
   159b2:	48 89 85 90 ee ff ff 	mov    %rax,-0x1170(%rbp)
   159b9:	c7 85 98 ed ff ff 01 	movl   $0x1,-0x1268(%rbp)
   159c0:	00 00 00 
   159c3:	c7 85 10 f0 ff ff 6a 	movl   $0xb0e5196a,-0xff0(%rbp)
   159ca:	19 e5 b0 
   159cd:	c7 85 14 f0 ff ff 01 	movl   $0x1,-0xfec(%rbp)
   159d4:	00 00 00 
   159d7:	c7 85 18 f0 ff ff 6a 	movl   $0xb0e5196a,-0xfe8(%rbp)
   159de:	19 e5 b0 
   159e1:	c7 85 1c f0 ff ff 6a 	movl   $0xb0e5196a,-0xfe4(%rbp)
   159e8:	19 e5 b0 
   159eb:	c7 85 20 f0 ff ff 01 	movl   $0x1,-0xfe0(%rbp)
   159f2:	00 00 00 
   159f5:	c7 85 24 f0 ff ff 6a 	movl   $0xb0e5196a,-0xfdc(%rbp)
   159fc:	19 e5 b0 
   159ff:	c7 85 28 f0 ff ff 6a 	movl   $0xb0e5196a,-0xfd8(%rbp)
   15a06:	19 e5 b0 
   15a09:	48 8d 85 40 f8 ff ff 	lea    -0x7c0(%rbp),%rax
   15a10:	48 05 40 05 00 00    	add    $0x540,%rax
   15a16:	48 89 85 b0 f0 ff ff 	mov    %rax,-0xf50(%rbp)
   15a1d:	48 8d 85 40 f8 ff ff 	lea    -0x7c0(%rbp),%rax
   15a24:	48 05 40 05 00 00    	add    $0x540,%rax
   15a2a:	48 89 85 b8 f0 ff ff 	mov    %rax,-0xf48(%rbp)
   15a31:	48 8d 85 40 f8 ff ff 	lea    -0x7c0(%rbp),%rax
   15a38:	48 05 40 05 00 00    	add    $0x540,%rax
   15a3e:	48 89 85 c0 f0 ff ff 	mov    %rax,-0xf40(%rbp)
   15a45:	48 8d 85 40 f8 ff ff 	lea    -0x7c0(%rbp),%rax
   15a4c:	48 05 40 05 00 00    	add    $0x540,%rax
   15a52:	48 89 85 c8 f0 ff ff 	mov    %rax,-0xf38(%rbp)
   15a59:	48 8d 85 40 f8 ff ff 	lea    -0x7c0(%rbp),%rax
   15a60:	48 05 40 05 00 00    	add    $0x540,%rax
   15a66:	48 89 85 d0 f0 ff ff 	mov    %rax,-0xf30(%rbp)
   15a6d:	48 8d 85 40 f8 ff ff 	lea    -0x7c0(%rbp),%rax
   15a74:	48 05 40 05 00 00    	add    $0x540,%rax
   15a7a:	48 89 85 d8 f0 ff ff 	mov    %rax,-0xf28(%rbp)
   15a81:	48 8d 85 40 f8 ff ff 	lea    -0x7c0(%rbp),%rax
   15a88:	48 05 40 05 00 00    	add    $0x540,%rax
   15a8e:	48 89 85 e0 f0 ff ff 	mov    %rax,-0xf20(%rbp)
   15a95:	48 8d 85 40 f8 ff ff 	lea    -0x7c0(%rbp),%rax
   15a9c:	48 05 40 05 00 00    	add    $0x540,%rax
   15aa2:	48 89 85 e8 f0 ff ff 	mov    %rax,-0xf18(%rbp)
   15aa9:	c7 85 9c ed ff ff ff 	movl   $0xffffffff,-0x1264(%rbp)
   15ab0:	ff ff ff 
   15ab3:	c7 85 a0 ed ff ff e8 	movl   $0xd97f58e8,-0x1260(%rbp)
   15aba:	58 7f d9 
   15abd:	48 8b 85 58 ee ff ff 	mov    -0x11a8(%rbp),%rax
   15ac4:	c6 00 00             	movb   $0x0,(%rax)
   15ac7:	48 8b 85 c0 ed ff ff 	mov    -0x1240(%rbp),%rax
   15ace:	48 8b 00             	mov    (%rax),%rax
   15ad1:	8b 95 38 ed ff ff    	mov    -0x12c8(%rbp),%edx
   15ad7:	89 10                	mov    %edx,(%rax)
   15ad9:	8b 00                	mov    (%rax),%eax
   15adb:	0f b7 c0             	movzwl %ax,%eax
   15ade:	be 01 00 00 00       	mov    $0x1,%esi
   15ae3:	89 c7                	mov    %eax,%edi
   15ae5:	e8 d4 62 ff ff       	callq  bdbe <safe_lshift_func_uint16_t_u_s>
   15aea:	0f b7 05 b3 a8 00 00 	movzwl 0xa8b3(%rip),%eax        # 203a4 <g_138>
   15af1:	66 85 c0             	test   %ax,%ax
   15af4:	0f 95 c0             	setne  %al
   15af7:	0f b6 d0             	movzbl %al,%edx
   15afa:	0f b7 05 a3 a8 00 00 	movzwl 0xa8a3(%rip),%eax        # 203a4 <g_138>
   15b01:	98                   	cwtl   
   15b02:	39 c2                	cmp    %eax,%edx
   15b04:	0f 9c c0             	setl   %al
   15b07:	0f b6 d0             	movzbl %al,%edx
   15b0a:	8b 85 40 ed ff ff    	mov    -0x12c0(%rbp),%eax
   15b10:	39 c2                	cmp    %eax,%edx
   15b12:	0f 9f c0             	setg   %al
   15b15:	0f b6 d0             	movzbl %al,%edx
   15b18:	48 8b 85 80 fd ff ff 	mov    -0x280(%rbp),%rax
   15b1f:	48 85 c0             	test   %rax,%rax
   15b22:	0f 95 c0             	setne  %al
   15b25:	0f b6 c0             	movzbl %al,%eax
   15b28:	89 d6                	mov    %edx,%esi
   15b2a:	89 c7                	mov    %eax,%edi
   15b2c:	e8 32 5a ff ff       	callq  b563 <safe_rshift_func_int16_t_s_u>
   15b31:	66 83 f8 05          	cmp    $0x5,%ax
   15b35:	0f 9f c0             	setg   %al
   15b38:	0f b6 d0             	movzbl %al,%edx
   15b3b:	8b 05 5f a8 00 00    	mov    0xa85f(%rip),%eax        # 203a0 <g_131>
   15b41:	31 c2                	xor    %eax,%edx
   15b43:	48 8b 85 10 ee ff ff 	mov    -0x11f0(%rbp),%rax
   15b4a:	0f b6 08             	movzbl (%rax),%ecx
   15b4d:	48 8b 85 10 ee ff ff 	mov    -0x11f0(%rbp),%rax
   15b54:	83 f1 f5             	xor    $0xfffffff5,%ecx
   15b57:	88 08                	mov    %cl,(%rax)
   15b59:	0f b6 00             	movzbl (%rax),%eax
   15b5c:	0f be c0             	movsbl %al,%eax
   15b5f:	89 d6                	mov    %edx,%esi
   15b61:	89 c7                	mov    %eax,%edi
   15b63:	e8 39 57 ff ff       	callq  b2a1 <safe_lshift_func_int8_t_s_s>
   15b68:	0f be d0             	movsbl %al,%edx
   15b6b:	8b 85 38 ed ff ff    	mov    -0x12c8(%rbp),%eax
   15b71:	31 d0                	xor    %edx,%eax
   15b73:	48 63 d0             	movslq %eax,%rdx
   15b76:	48 8b 85 90 ee ff ff 	mov    -0x1170(%rbp),%rax
   15b7d:	48 89 10             	mov    %rdx,(%rax)
   15b80:	48 8d 85 38 ed ff ff 	lea    -0x12c8(%rbp),%rax
   15b87:	48 89 85 00 f2 ff ff 	mov    %rax,-0xe00(%rbp)
   15b8e:	48 8d 85 38 ed ff ff 	lea    -0x12c8(%rbp),%rax
   15b95:	48 89 85 08 f2 ff ff 	mov    %rax,-0xdf8(%rbp)
   15b9c:	48 8d 05 ad a4 00 00 	lea    0xa4ad(%rip),%rax        # 20050 <g_105>
   15ba3:	48 89 85 10 f2 ff ff 	mov    %rax,-0xdf0(%rbp)
   15baa:	48 8d 05 9f a4 00 00 	lea    0xa49f(%rip),%rax        # 20050 <g_105>
   15bb1:	48 89 85 18 f2 ff ff 	mov    %rax,-0xde8(%rbp)
   15bb8:	48 8d 85 38 ed ff ff 	lea    -0x12c8(%rbp),%rax
   15bbf:	48 89 85 20 f2 ff ff 	mov    %rax,-0xde0(%rbp)
   15bc6:	48 8d 85 38 ed ff ff 	lea    -0x12c8(%rbp),%rax
   15bcd:	48 89 85 28 f2 ff ff 	mov    %rax,-0xdd8(%rbp)
   15bd4:	48 8d 85 40 ed ff ff 	lea    -0x12c0(%rbp),%rax
   15bdb:	48 89 85 30 f2 ff ff 	mov    %rax,-0xdd0(%rbp)
   15be2:	48 8d 85 38 ed ff ff 	lea    -0x12c8(%rbp),%rax
   15be9:	48 89 85 38 f2 ff ff 	mov    %rax,-0xdc8(%rbp)
   15bf0:	48 8d 85 38 ed ff ff 	lea    -0x12c8(%rbp),%rax
   15bf7:	48 89 85 40 f2 ff ff 	mov    %rax,-0xdc0(%rbp)
   15bfe:	48 8d 85 38 ed ff ff 	lea    -0x12c8(%rbp),%rax
   15c05:	48 89 85 48 f2 ff ff 	mov    %rax,-0xdb8(%rbp)
   15c0c:	48 8d 85 40 ed ff ff 	lea    -0x12c0(%rbp),%rax
   15c13:	48 89 85 50 f2 ff ff 	mov    %rax,-0xdb0(%rbp)
   15c1a:	48 8d 85 38 ed ff ff 	lea    -0x12c8(%rbp),%rax
   15c21:	48 89 85 58 f2 ff ff 	mov    %rax,-0xda8(%rbp)
   15c28:	48 8d 85 38 ed ff ff 	lea    -0x12c8(%rbp),%rax
   15c2f:	48 89 85 60 f2 ff ff 	mov    %rax,-0xda0(%rbp)
   15c36:	48 8d 05 13 a4 00 00 	lea    0xa413(%rip),%rax        # 20050 <g_105>
   15c3d:	48 89 85 68 f2 ff ff 	mov    %rax,-0xd98(%rbp)
   15c44:	48 8d 05 05 a4 00 00 	lea    0xa405(%rip),%rax        # 20050 <g_105>
   15c4b:	48 89 85 70 f2 ff ff 	mov    %rax,-0xd90(%rbp)
   15c52:	48 8d 85 38 ed ff ff 	lea    -0x12c8(%rbp),%rax
   15c59:	48 89 85 78 f2 ff ff 	mov    %rax,-0xd88(%rbp)
   15c60:	48 8d 85 38 ed ff ff 	lea    -0x12c8(%rbp),%rax
   15c67:	48 89 85 80 f2 ff ff 	mov    %rax,-0xd80(%rbp)
   15c6e:	48 8d 85 38 ed ff ff 	lea    -0x12c8(%rbp),%rax
   15c75:	48 89 85 88 f2 ff ff 	mov    %rax,-0xd78(%rbp)
   15c7c:	48 8d 85 38 ed ff ff 	lea    -0x12c8(%rbp),%rax
   15c83:	48 89 85 90 f2 ff ff 	mov    %rax,-0xd70(%rbp)
   15c8a:	48 8d 85 38 ed ff ff 	lea    -0x12c8(%rbp),%rax
   15c91:	48 89 85 98 f2 ff ff 	mov    %rax,-0xd68(%rbp)
   15c98:	48 8d 85 38 ed ff ff 	lea    -0x12c8(%rbp),%rax
   15c9f:	48 89 85 a0 f2 ff ff 	mov    %rax,-0xd60(%rbp)
   15ca6:	48 8d 85 38 ed ff ff 	lea    -0x12c8(%rbp),%rax
   15cad:	48 89 85 a8 f2 ff ff 	mov    %rax,-0xd58(%rbp)
   15cb4:	48 8d 85 38 ed ff ff 	lea    -0x12c8(%rbp),%rax
   15cbb:	48 89 85 b0 f2 ff ff 	mov    %rax,-0xd50(%rbp)
   15cc2:	48 8d 85 38 ed ff ff 	lea    -0x12c8(%rbp),%rax
   15cc9:	48 89 85 b8 f2 ff ff 	mov    %rax,-0xd48(%rbp)
   15cd0:	48 8d 85 38 ed ff ff 	lea    -0x12c8(%rbp),%rax
   15cd7:	48 89 85 c0 f2 ff ff 	mov    %rax,-0xd40(%rbp)
   15cde:	48 8d 85 38 ed ff ff 	lea    -0x12c8(%rbp),%rax
   15ce5:	48 89 85 c8 f2 ff ff 	mov    %rax,-0xd38(%rbp)
   15cec:	48 8d 85 38 ed ff ff 	lea    -0x12c8(%rbp),%rax
   15cf3:	48 89 85 d0 f2 ff ff 	mov    %rax,-0xd30(%rbp)
   15cfa:	48 8d 05 4f a3 00 00 	lea    0xa34f(%rip),%rax        # 20050 <g_105>
   15d01:	48 89 85 d8 f2 ff ff 	mov    %rax,-0xd28(%rbp)
   15d08:	48 8d 85 40 ed ff ff 	lea    -0x12c0(%rbp),%rax
   15d0f:	48 89 85 e0 f2 ff ff 	mov    %rax,-0xd20(%rbp)
   15d16:	48 8d 85 40 ed ff ff 	lea    -0x12c0(%rbp),%rax
   15d1d:	48 89 85 e8 f2 ff ff 	mov    %rax,-0xd18(%rbp)
   15d24:	48 8d 05 25 a3 00 00 	lea    0xa325(%rip),%rax        # 20050 <g_105>
   15d2b:	48 89 85 f0 f2 ff ff 	mov    %rax,-0xd10(%rbp)
   15d32:	48 8d 85 38 ed ff ff 	lea    -0x12c8(%rbp),%rax
   15d39:	48 89 85 f8 f2 ff ff 	mov    %rax,-0xd08(%rbp)
   15d40:	48 8d 85 38 ed ff ff 	lea    -0x12c8(%rbp),%rax
   15d47:	48 89 85 00 f3 ff ff 	mov    %rax,-0xd00(%rbp)
   15d4e:	48 8d 85 38 ed ff ff 	lea    -0x12c8(%rbp),%rax
   15d55:	48 89 85 08 f3 ff ff 	mov    %rax,-0xcf8(%rbp)
   15d5c:	48 8d 85 40 ed ff ff 	lea    -0x12c0(%rbp),%rax
   15d63:	48 89 85 10 f3 ff ff 	mov    %rax,-0xcf0(%rbp)
   15d6a:	48 8d 85 38 ed ff ff 	lea    -0x12c8(%rbp),%rax
   15d71:	48 89 85 18 f3 ff ff 	mov    %rax,-0xce8(%rbp)
   15d78:	48 c7 85 20 f3 ff ff 	movq   $0x0,-0xce0(%rbp)
   15d7f:	00 00 00 00 
   15d83:	48 8d 85 38 ed ff ff 	lea    -0x12c8(%rbp),%rax
   15d8a:	48 89 85 28 f3 ff ff 	mov    %rax,-0xcd8(%rbp)
   15d91:	48 8d 85 40 ed ff ff 	lea    -0x12c0(%rbp),%rax
   15d98:	48 89 85 30 f3 ff ff 	mov    %rax,-0xcd0(%rbp)
   15d9f:	48 8d 85 38 ed ff ff 	lea    -0x12c8(%rbp),%rax
   15da6:	48 89 85 38 f3 ff ff 	mov    %rax,-0xcc8(%rbp)
   15dad:	48 8d 85 38 ed ff ff 	lea    -0x12c8(%rbp),%rax
   15db4:	48 89 85 40 f3 ff ff 	mov    %rax,-0xcc0(%rbp)
   15dbb:	48 8d 85 38 ed ff ff 	lea    -0x12c8(%rbp),%rax
   15dc2:	48 89 85 48 f3 ff ff 	mov    %rax,-0xcb8(%rbp)
   15dc9:	48 8d 05 80 a2 00 00 	lea    0xa280(%rip),%rax        # 20050 <g_105>
   15dd0:	48 89 85 50 f3 ff ff 	mov    %rax,-0xcb0(%rbp)
   15dd7:	48 8d 85 40 ed ff ff 	lea    -0x12c0(%rbp),%rax
   15dde:	48 89 85 58 f3 ff ff 	mov    %rax,-0xca8(%rbp)
   15de5:	48 8d 85 40 ed ff ff 	lea    -0x12c0(%rbp),%rax
   15dec:	48 89 85 60 f3 ff ff 	mov    %rax,-0xca0(%rbp)
   15df3:	48 8d 05 56 a2 00 00 	lea    0xa256(%rip),%rax        # 20050 <g_105>
   15dfa:	48 89 85 68 f3 ff ff 	mov    %rax,-0xc98(%rbp)
   15e01:	48 8d 85 38 ed ff ff 	lea    -0x12c8(%rbp),%rax
   15e08:	48 89 85 70 f3 ff ff 	mov    %rax,-0xc90(%rbp)
   15e0f:	48 8d 85 38 ed ff ff 	lea    -0x12c8(%rbp),%rax
   15e16:	48 89 85 78 f3 ff ff 	mov    %rax,-0xc88(%rbp)
   15e1d:	48 8d 85 38 ed ff ff 	lea    -0x12c8(%rbp),%rax
   15e24:	48 89 85 80 f3 ff ff 	mov    %rax,-0xc80(%rbp)
   15e2b:	48 8d 85 38 ed ff ff 	lea    -0x12c8(%rbp),%rax
   15e32:	48 89 85 88 f3 ff ff 	mov    %rax,-0xc78(%rbp)
   15e39:	48 8d 85 38 ed ff ff 	lea    -0x12c8(%rbp),%rax
   15e40:	48 89 85 90 f3 ff ff 	mov    %rax,-0xc70(%rbp)
   15e47:	48 8d 85 38 ed ff ff 	lea    -0x12c8(%rbp),%rax
   15e4e:	48 89 85 98 f3 ff ff 	mov    %rax,-0xc68(%rbp)
   15e55:	48 8d 85 38 ed ff ff 	lea    -0x12c8(%rbp),%rax
   15e5c:	48 89 85 a0 f3 ff ff 	mov    %rax,-0xc60(%rbp)
   15e63:	48 8d 85 38 ed ff ff 	lea    -0x12c8(%rbp),%rax
   15e6a:	48 89 85 a8 f3 ff ff 	mov    %rax,-0xc58(%rbp)
   15e71:	48 8d 85 38 ed ff ff 	lea    -0x12c8(%rbp),%rax
   15e78:	48 89 85 b0 f3 ff ff 	mov    %rax,-0xc50(%rbp)
   15e7f:	48 8d 85 38 ed ff ff 	lea    -0x12c8(%rbp),%rax
   15e86:	48 89 85 b8 f3 ff ff 	mov    %rax,-0xc48(%rbp)
   15e8d:	48 8b 85 08 ee ff ff 	mov    -0x11f8(%rbp),%rax
   15e94:	48 83 e8 01          	sub    $0x1,%rax
   15e98:	48 89 85 08 ee ff ff 	mov    %rax,-0x11f8(%rbp)
   15e9f:	8b 05 ab a1 00 00    	mov    0xa1ab(%rip),%eax        # 20050 <g_105>
   15ea5:	85 c0                	test   %eax,%eax
   15ea7:	0f 84 29 01 00 00    	je     15fd6 <func_63+0x1b20>
   15ead:	b8 21 d0 ab d3       	mov    $0xd3abd021,%eax
   15eb2:	41 89 c7             	mov    %eax,%r15d
   15eb5:	48 8b 85 08 ed ff ff 	mov    -0x12f8(%rbp),%rax
   15ebc:	48 8b 00             	mov    (%rax),%rax
   15ebf:	0f b6 00             	movzbl (%rax),%eax
   15ec2:	44 0f b6 e0          	movzbl %al,%r12d
   15ec6:	0f b6 85 1d ed ff ff 	movzbl -0x12e3(%rbp),%eax
   15ecd:	44 0f be e8          	movsbl %al,%r13d
   15ed1:	8b 85 04 ed ff ff    	mov    -0x12fc(%rbp),%eax
   15ed7:	44 0f bf f0          	movswl %ax,%r14d
   15edb:	48 8d 85 22 ed ff ff 	lea    -0x12de(%rbp),%rax
   15ee2:	48 89 85 d0 ed ff ff 	mov    %rax,-0x1230(%rbp)
   15ee9:	48 8b 85 08 ed ff ff 	mov    -0x12f8(%rbp),%rax
   15ef0:	48 8b 00             	mov    (%rax),%rax
   15ef3:	0f b6 00             	movzbl (%rax),%eax
   15ef6:	84 c0                	test   %al,%al
   15ef8:	0f 9f c0             	setg   %al
   15efb:	0f b6 c0             	movzbl %al,%eax
   15efe:	48 8b 95 10 ee ff ff 	mov    -0x11f0(%rbp),%rdx
   15f05:	c6 02 01             	movb   $0x1,(%rdx)
   15f08:	89 c6                	mov    %eax,%esi
   15f0a:	bf 01 00 00 00       	mov    $0x1,%edi
   15f0f:	e8 de 52 ff ff       	callq  b1f2 <safe_sub_func_int8_t_s_s>
   15f14:	0f be c0             	movsbl %al,%eax
   15f17:	48 8b 1d 82 c3 00 00 	mov    0xc382(%rip),%rbx        # 222a0 <g_155>
   15f1e:	8b 95 9c ed ff ff    	mov    -0x1264(%rbp),%edx
   15f24:	89 d6                	mov    %edx,%esi
   15f26:	89 c7                	mov    %eax,%edi
   15f28:	e8 d8 56 ff ff       	callq  b605 <safe_sub_func_int32_t_s_s>
   15f2d:	89 03                	mov    %eax,(%rbx)
   15f2f:	8b 03                	mov    (%rbx),%eax
   15f31:	be 04 7c ff 0c       	mov    $0xcff7c04,%esi
   15f36:	89 c7                	mov    %eax,%edi
   15f38:	e8 c2 57 ff ff       	callq  b6ff <safe_div_func_int32_t_s_s>
   15f3d:	8b 85 70 ed ff ff    	mov    -0x1290(%rbp),%eax
   15f43:	c1 e8 1f             	shr    $0x1f,%eax
   15f46:	0f b6 c0             	movzbl %al,%eax
   15f49:	44 89 f6             	mov    %r14d,%esi
   15f4c:	89 c7                	mov    %eax,%edi
   15f4e:	e8 02 55 ff ff       	callq  b455 <safe_div_func_int16_t_s_s>
   15f53:	48 0f bf c0          	movswq %ax,%rax
   15f57:	48 89 c6             	mov    %rax,%rsi
   15f5a:	bf 00 00 00 00       	mov    $0x0,%edi
   15f5f:	e8 dd 58 ff ff       	callq  b841 <safe_add_func_int64_t_s_s>
   15f64:	89 c2                	mov    %eax,%edx
   15f66:	8b 85 8c ef ff ff    	mov    -0x1074(%rbp),%eax
   15f6c:	89 d6                	mov    %edx,%esi
   15f6e:	89 c7                	mov    %eax,%edi
   15f70:	e8 b0 5f ff ff       	callq  bf25 <safe_div_func_uint32_t_u_u>
   15f75:	89 c2                	mov    %eax,%edx
   15f77:	8b 85 04 ed ff ff    	mov    -0x12fc(%rbp),%eax
   15f7d:	31 d0                	xor    %edx,%eax
   15f7f:	98                   	cwtl   
   15f80:	be 00 00 00 00       	mov    $0x0,%esi
   15f85:	89 c7                	mov    %eax,%edi
   15f87:	e8 55 55 ff ff       	callq  b4e1 <safe_lshift_func_int16_t_s_u>
   15f8c:	98                   	cwtl   
   15f8d:	be 1c f0 8d c7       	mov    $0xc78df01c,%esi
   15f92:	89 c7                	mov    %eax,%edi
   15f94:	e8 1d 56 ff ff       	callq  b5b6 <safe_add_func_int32_t_s_s>
   15f99:	48 98                	cltq   
   15f9b:	48 be 68 f7 91 44 d0 	movabs $0xa8c351d04491f768,%rsi
   15fa2:	51 c3 a8 
   15fa5:	48 89 c7             	mov    %rax,%rdi
   15fa8:	e8 02 61 ff ff       	callq  c0af <safe_div_func_uint64_t_u_u>
   15fad:	0f be c0             	movsbl %al,%eax
   15fb0:	44 89 ee             	mov    %r13d,%esi
   15fb3:	89 c7                	mov    %eax,%edi
   15fb5:	e8 77 52 ff ff       	callq  b231 <safe_mod_func_int8_t_s_s>
   15fba:	0f b6 c0             	movzbl %al,%eax
   15fbd:	44 89 e6             	mov    %r12d,%esi
   15fc0:	89 c7                	mov    %eax,%edi
   15fc2:	e8 cc 5b ff ff       	callq  bb93 <safe_mul_func_uint8_t_u_u>
   15fc7:	44 89 fe             	mov    %r15d,%esi
   15fca:	bf 01 00 00 00       	mov    $0x1,%edi
   15fcf:	e8 fc 5e ff ff       	callq  bed0 <safe_sub_func_uint32_t_u_u>
   15fd4:	85 c0                	test   %eax,%eax
   15fd6:	48 8b 85 08 ed ff ff 	mov    -0x12f8(%rbp),%rax
   15fdd:	48 8b 00             	mov    (%rax),%rax
   15fe0:	0f b6 00             	movzbl (%rax),%eax
   15fe3:	0f be d0             	movsbl %al,%edx
   15fe6:	8b 85 60 f0 ff ff    	mov    -0xfa0(%rbp),%eax
   15fec:	83 f8 04             	cmp    $0x4,%eax
   15fef:	0f 95 c0             	setne  %al
   15ff2:	0f b6 c0             	movzbl %al,%eax
   15ff5:	39 c2                	cmp    %eax,%edx
   15ff7:	0f 8f a2 0b 00 00    	jg     16b9f <func_63+0x26e9>
   15ffd:	48 8d 85 08 ee ff ff 	lea    -0x11f8(%rbp),%rax
   16004:	48 89 85 00 f2 ff ff 	mov    %rax,-0xe00(%rbp)
   1600b:	48 8d 85 d8 ed ff ff 	lea    -0x1228(%rbp),%rax
   16012:	48 89 85 08 f2 ff ff 	mov    %rax,-0xdf8(%rbp)
   16019:	48 8d 85 08 ee ff ff 	lea    -0x11f8(%rbp),%rax
   16020:	48 89 85 10 f2 ff ff 	mov    %rax,-0xdf0(%rbp)
   16027:	48 c7 85 18 f2 ff ff 	movq   $0x0,-0xde8(%rbp)
   1602e:	00 00 00 00 
   16032:	48 8d 85 08 ee ff ff 	lea    -0x11f8(%rbp),%rax
   16039:	48 89 85 20 f2 ff ff 	mov    %rax,-0xde0(%rbp)
   16040:	48 8d 85 08 ee ff ff 	lea    -0x11f8(%rbp),%rax
   16047:	48 89 85 28 f2 ff ff 	mov    %rax,-0xdd8(%rbp)
   1604e:	48 8d 85 08 ee ff ff 	lea    -0x11f8(%rbp),%rax
   16055:	48 89 85 30 f2 ff ff 	mov    %rax,-0xdd0(%rbp)
   1605c:	48 8d 85 d8 ed ff ff 	lea    -0x1228(%rbp),%rax
   16063:	48 89 85 38 f2 ff ff 	mov    %rax,-0xdc8(%rbp)
   1606a:	48 8d 85 d8 ed ff ff 	lea    -0x1228(%rbp),%rax
   16071:	48 89 85 40 f2 ff ff 	mov    %rax,-0xdc0(%rbp)
   16078:	48 8d 85 d8 ed ff ff 	lea    -0x1228(%rbp),%rax
   1607f:	48 89 85 48 f2 ff ff 	mov    %rax,-0xdb8(%rbp)
   16086:	48 8d 85 d8 ed ff ff 	lea    -0x1228(%rbp),%rax
   1608d:	48 89 85 50 f2 ff ff 	mov    %rax,-0xdb0(%rbp)
   16094:	48 8d 85 08 ee ff ff 	lea    -0x11f8(%rbp),%rax
   1609b:	48 89 85 58 f2 ff ff 	mov    %rax,-0xda8(%rbp)
   160a2:	48 8d 85 d8 ed ff ff 	lea    -0x1228(%rbp),%rax
   160a9:	48 89 85 60 f2 ff ff 	mov    %rax,-0xda0(%rbp)
   160b0:	48 8d 85 d8 ed ff ff 	lea    -0x1228(%rbp),%rax
   160b7:	48 89 85 68 f2 ff ff 	mov    %rax,-0xd98(%rbp)
   160be:	48 8d 85 08 ee ff ff 	lea    -0x11f8(%rbp),%rax
   160c5:	48 89 85 70 f2 ff ff 	mov    %rax,-0xd90(%rbp)
   160cc:	48 8d 85 d8 ed ff ff 	lea    -0x1228(%rbp),%rax
   160d3:	48 89 85 78 f2 ff ff 	mov    %rax,-0xd88(%rbp)
   160da:	48 8d 85 d8 ed ff ff 	lea    -0x1228(%rbp),%rax
   160e1:	48 89 85 80 f2 ff ff 	mov    %rax,-0xd80(%rbp)
   160e8:	48 c7 85 88 f2 ff ff 	movq   $0x0,-0xd78(%rbp)
   160ef:	00 00 00 00 
   160f3:	48 8d 85 d8 ed ff ff 	lea    -0x1228(%rbp),%rax
   160fa:	48 89 85 90 f2 ff ff 	mov    %rax,-0xd70(%rbp)
   16101:	48 8d 85 08 ee ff ff 	lea    -0x11f8(%rbp),%rax
   16108:	48 89 85 98 f2 ff ff 	mov    %rax,-0xd68(%rbp)
   1610f:	48 8d 85 d8 ed ff ff 	lea    -0x1228(%rbp),%rax
   16116:	48 89 85 a0 f2 ff ff 	mov    %rax,-0xd60(%rbp)
   1611d:	48 8d 85 08 ee ff ff 	lea    -0x11f8(%rbp),%rax
   16124:	48 89 85 a8 f2 ff ff 	mov    %rax,-0xd58(%rbp)
   1612b:	48 8d 85 08 ee ff ff 	lea    -0x11f8(%rbp),%rax
   16132:	48 89 85 b0 f2 ff ff 	mov    %rax,-0xd50(%rbp)
   16139:	48 8d 85 08 ee ff ff 	lea    -0x11f8(%rbp),%rax
   16140:	48 89 85 b8 f2 ff ff 	mov    %rax,-0xd48(%rbp)
   16147:	48 8d 85 d8 ed ff ff 	lea    -0x1228(%rbp),%rax
   1614e:	48 89 85 c0 f2 ff ff 	mov    %rax,-0xd40(%rbp)
   16155:	48 8d 85 d8 ed ff ff 	lea    -0x1228(%rbp),%rax
   1615c:	48 89 85 c8 f2 ff ff 	mov    %rax,-0xd38(%rbp)
   16163:	48 8d 85 08 ee ff ff 	lea    -0x11f8(%rbp),%rax
   1616a:	48 89 85 d0 f2 ff ff 	mov    %rax,-0xd30(%rbp)
   16171:	48 8d 85 08 ee ff ff 	lea    -0x11f8(%rbp),%rax
   16178:	48 89 85 d8 f2 ff ff 	mov    %rax,-0xd28(%rbp)
   1617f:	48 8d 85 d8 ed ff ff 	lea    -0x1228(%rbp),%rax
   16186:	48 89 85 e0 f2 ff ff 	mov    %rax,-0xd20(%rbp)
   1618d:	48 8d 85 d8 ed ff ff 	lea    -0x1228(%rbp),%rax
   16194:	48 89 85 e8 f2 ff ff 	mov    %rax,-0xd18(%rbp)
   1619b:	48 8d 85 d8 ed ff ff 	lea    -0x1228(%rbp),%rax
   161a2:	48 89 85 f0 f2 ff ff 	mov    %rax,-0xd10(%rbp)
   161a9:	48 8d 85 08 ee ff ff 	lea    -0x11f8(%rbp),%rax
   161b0:	48 89 85 f8 f2 ff ff 	mov    %rax,-0xd08(%rbp)
   161b7:	48 8d 85 08 ee ff ff 	lea    -0x11f8(%rbp),%rax
   161be:	48 89 85 00 f3 ff ff 	mov    %rax,-0xd00(%rbp)
   161c5:	48 8d 85 d8 ed ff ff 	lea    -0x1228(%rbp),%rax
   161cc:	48 89 85 08 f3 ff ff 	mov    %rax,-0xcf8(%rbp)
   161d3:	48 c7 85 10 f3 ff ff 	movq   $0x0,-0xcf0(%rbp)
   161da:	00 00 00 00 
   161de:	48 8d 85 d8 ed ff ff 	lea    -0x1228(%rbp),%rax
   161e5:	48 89 85 18 f3 ff ff 	mov    %rax,-0xce8(%rbp)
   161ec:	48 8d 85 d8 ed ff ff 	lea    -0x1228(%rbp),%rax
   161f3:	48 89 85 20 f3 ff ff 	mov    %rax,-0xce0(%rbp)
   161fa:	48 8d 85 d8 ed ff ff 	lea    -0x1228(%rbp),%rax
   16201:	48 89 85 28 f3 ff ff 	mov    %rax,-0xcd8(%rbp)
   16208:	48 8d 85 d8 ed ff ff 	lea    -0x1228(%rbp),%rax
   1620f:	48 89 85 30 f3 ff ff 	mov    %rax,-0xcd0(%rbp)
   16216:	48 8d 85 08 ee ff ff 	lea    -0x11f8(%rbp),%rax
   1621d:	48 89 85 38 f3 ff ff 	mov    %rax,-0xcc8(%rbp)
   16224:	48 8d 85 08 ee ff ff 	lea    -0x11f8(%rbp),%rax
   1622b:	48 89 85 40 f3 ff ff 	mov    %rax,-0xcc0(%rbp)
   16232:	48 8d 85 08 ee ff ff 	lea    -0x11f8(%rbp),%rax
   16239:	48 89 85 48 f3 ff ff 	mov    %rax,-0xcb8(%rbp)
   16240:	48 8d 85 d8 ed ff ff 	lea    -0x1228(%rbp),%rax
   16247:	48 89 85 50 f3 ff ff 	mov    %rax,-0xcb0(%rbp)
   1624e:	48 8d 85 d8 ed ff ff 	lea    -0x1228(%rbp),%rax
   16255:	48 89 85 58 f3 ff ff 	mov    %rax,-0xca8(%rbp)
   1625c:	48 8d 85 08 ee ff ff 	lea    -0x11f8(%rbp),%rax
   16263:	48 89 85 60 f3 ff ff 	mov    %rax,-0xca0(%rbp)
   1626a:	48 8d 85 d8 ed ff ff 	lea    -0x1228(%rbp),%rax
   16271:	48 89 85 68 f3 ff ff 	mov    %rax,-0xc98(%rbp)
   16278:	48 8d 85 08 ee ff ff 	lea    -0x11f8(%rbp),%rax
   1627f:	48 89 85 70 f3 ff ff 	mov    %rax,-0xc90(%rbp)
   16286:	48 8d 85 d8 ed ff ff 	lea    -0x1228(%rbp),%rax
   1628d:	48 89 85 78 f3 ff ff 	mov    %rax,-0xc88(%rbp)
   16294:	48 8d 85 d8 ed ff ff 	lea    -0x1228(%rbp),%rax
   1629b:	48 89 85 80 f3 ff ff 	mov    %rax,-0xc80(%rbp)
   162a2:	48 8d 85 08 ee ff ff 	lea    -0x11f8(%rbp),%rax
   162a9:	48 89 85 88 f3 ff ff 	mov    %rax,-0xc78(%rbp)
   162b0:	48 8d 85 d8 ed ff ff 	lea    -0x1228(%rbp),%rax
   162b7:	48 89 85 90 f3 ff ff 	mov    %rax,-0xc70(%rbp)
   162be:	48 c7 85 98 f3 ff ff 	movq   $0x0,-0xc68(%rbp)
   162c5:	00 00 00 00 
   162c9:	48 8d 85 d8 ed ff ff 	lea    -0x1228(%rbp),%rax
   162d0:	48 89 85 a0 f3 ff ff 	mov    %rax,-0xc60(%rbp)
   162d7:	48 8d 85 d8 ed ff ff 	lea    -0x1228(%rbp),%rax
   162de:	48 89 85 a8 f3 ff ff 	mov    %rax,-0xc58(%rbp)
   162e5:	48 8d 85 d8 ed ff ff 	lea    -0x1228(%rbp),%rax
   162ec:	48 89 85 b0 f3 ff ff 	mov    %rax,-0xc50(%rbp)
   162f3:	48 8d 85 d8 ed ff ff 	lea    -0x1228(%rbp),%rax
   162fa:	48 89 85 b8 f3 ff ff 	mov    %rax,-0xc48(%rbp)
   16301:	48 8d 85 d8 ed ff ff 	lea    -0x1228(%rbp),%rax
   16308:	48 89 85 c0 f3 ff ff 	mov    %rax,-0xc40(%rbp)
   1630f:	48 8d 85 d8 ed ff ff 	lea    -0x1228(%rbp),%rax
   16316:	48 89 85 c8 f3 ff ff 	mov    %rax,-0xc38(%rbp)
   1631d:	48 8d 85 d8 ed ff ff 	lea    -0x1228(%rbp),%rax
   16324:	48 89 85 d0 f3 ff ff 	mov    %rax,-0xc30(%rbp)
   1632b:	48 8d 85 d8 ed ff ff 	lea    -0x1228(%rbp),%rax
   16332:	48 89 85 d8 f3 ff ff 	mov    %rax,-0xc28(%rbp)
   16339:	48 8d 85 08 ee ff ff 	lea    -0x11f8(%rbp),%rax
   16340:	48 89 85 e0 f3 ff ff 	mov    %rax,-0xc20(%rbp)
   16347:	48 8d 85 d8 ed ff ff 	lea    -0x1228(%rbp),%rax
   1634e:	48 89 85 e8 f3 ff ff 	mov    %rax,-0xc18(%rbp)
   16355:	48 8d 85 d8 ed ff ff 	lea    -0x1228(%rbp),%rax
   1635c:	48 89 85 f0 f3 ff ff 	mov    %rax,-0xc10(%rbp)
   16363:	48 8d 85 08 ee ff ff 	lea    -0x11f8(%rbp),%rax
   1636a:	48 89 85 f8 f3 ff ff 	mov    %rax,-0xc08(%rbp)
   16371:	48 8d 85 d8 ed ff ff 	lea    -0x1228(%rbp),%rax
   16378:	48 89 85 00 f4 ff ff 	mov    %rax,-0xc00(%rbp)
   1637f:	48 8d 85 08 ee ff ff 	lea    -0x11f8(%rbp),%rax
   16386:	48 89 85 08 f4 ff ff 	mov    %rax,-0xbf8(%rbp)
   1638d:	48 8d 85 d8 ed ff ff 	lea    -0x1228(%rbp),%rax
   16394:	48 89 85 10 f4 ff ff 	mov    %rax,-0xbf0(%rbp)
   1639b:	48 8d 85 08 ee ff ff 	lea    -0x11f8(%rbp),%rax
   163a2:	48 89 85 18 f4 ff ff 	mov    %rax,-0xbe8(%rbp)
   163a9:	48 8d 85 d8 ed ff ff 	lea    -0x1228(%rbp),%rax
   163b0:	48 89 85 20 f4 ff ff 	mov    %rax,-0xbe0(%rbp)
   163b7:	48 8d 85 08 ee ff ff 	lea    -0x11f8(%rbp),%rax
   163be:	48 89 85 28 f4 ff ff 	mov    %rax,-0xbd8(%rbp)
   163c5:	48 8d 85 d8 ed ff ff 	lea    -0x1228(%rbp),%rax
   163cc:	48 89 85 30 f4 ff ff 	mov    %rax,-0xbd0(%rbp)
   163d3:	48 8d 85 08 ee ff ff 	lea    -0x11f8(%rbp),%rax
   163da:	48 89 85 38 f4 ff ff 	mov    %rax,-0xbc8(%rbp)
   163e1:	48 8d 85 d8 ed ff ff 	lea    -0x1228(%rbp),%rax
   163e8:	48 89 85 40 f4 ff ff 	mov    %rax,-0xbc0(%rbp)
   163ef:	48 8d 85 d8 ed ff ff 	lea    -0x1228(%rbp),%rax
   163f6:	48 89 85 48 f4 ff ff 	mov    %rax,-0xbb8(%rbp)
   163fd:	48 8d 85 08 ee ff ff 	lea    -0x11f8(%rbp),%rax
   16404:	48 89 85 50 f4 ff ff 	mov    %rax,-0xbb0(%rbp)
   1640b:	48 8d 85 08 ee ff ff 	lea    -0x11f8(%rbp),%rax
   16412:	48 89 85 58 f4 ff ff 	mov    %rax,-0xba8(%rbp)
   16419:	48 8d 85 d8 ed ff ff 	lea    -0x1228(%rbp),%rax
   16420:	48 89 85 60 f4 ff ff 	mov    %rax,-0xba0(%rbp)
   16427:	48 8d 85 08 ee ff ff 	lea    -0x11f8(%rbp),%rax
   1642e:	48 89 85 68 f4 ff ff 	mov    %rax,-0xb98(%rbp)
   16435:	48 8d 85 d8 ed ff ff 	lea    -0x1228(%rbp),%rax
   1643c:	48 89 85 70 f4 ff ff 	mov    %rax,-0xb90(%rbp)
   16443:	48 8d 85 d8 ed ff ff 	lea    -0x1228(%rbp),%rax
   1644a:	48 89 85 78 f4 ff ff 	mov    %rax,-0xb88(%rbp)
   16451:	48 8d 85 08 ee ff ff 	lea    -0x11f8(%rbp),%rax
   16458:	48 89 85 80 f4 ff ff 	mov    %rax,-0xb80(%rbp)
   1645f:	48 8d 85 d8 ed ff ff 	lea    -0x1228(%rbp),%rax
   16466:	48 89 85 88 f4 ff ff 	mov    %rax,-0xb78(%rbp)
   1646d:	48 8d 85 d8 ed ff ff 	lea    -0x1228(%rbp),%rax
   16474:	48 89 85 90 f4 ff ff 	mov    %rax,-0xb70(%rbp)
   1647b:	48 8d 85 08 ee ff ff 	lea    -0x11f8(%rbp),%rax
   16482:	48 89 85 98 f4 ff ff 	mov    %rax,-0xb68(%rbp)
   16489:	48 8d 85 d8 ed ff ff 	lea    -0x1228(%rbp),%rax
   16490:	48 89 85 a0 f4 ff ff 	mov    %rax,-0xb60(%rbp)
   16497:	48 8d 85 08 ee ff ff 	lea    -0x11f8(%rbp),%rax
   1649e:	48 89 85 a8 f4 ff ff 	mov    %rax,-0xb58(%rbp)
   164a5:	48 8d 85 08 ee ff ff 	lea    -0x11f8(%rbp),%rax
   164ac:	48 89 85 b0 f4 ff ff 	mov    %rax,-0xb50(%rbp)
   164b3:	48 8d 85 08 ee ff ff 	lea    -0x11f8(%rbp),%rax
   164ba:	48 89 85 b8 f4 ff ff 	mov    %rax,-0xb48(%rbp)
   164c1:	48 8d 85 d8 ed ff ff 	lea    -0x1228(%rbp),%rax
   164c8:	48 89 85 c0 f4 ff ff 	mov    %rax,-0xb40(%rbp)
   164cf:	48 8d 85 08 ee ff ff 	lea    -0x11f8(%rbp),%rax
   164d6:	48 89 85 c8 f4 ff ff 	mov    %rax,-0xb38(%rbp)
   164dd:	48 8d 85 08 ee ff ff 	lea    -0x11f8(%rbp),%rax
   164e4:	48 89 85 d0 f4 ff ff 	mov    %rax,-0xb30(%rbp)
   164eb:	48 8d 85 08 ee ff ff 	lea    -0x11f8(%rbp),%rax
   164f2:	48 89 85 d8 f4 ff ff 	mov    %rax,-0xb28(%rbp)
   164f9:	48 8d 85 d8 ed ff ff 	lea    -0x1228(%rbp),%rax
   16500:	48 89 85 e0 f4 ff ff 	mov    %rax,-0xb20(%rbp)
   16507:	48 8d 85 d8 ed ff ff 	lea    -0x1228(%rbp),%rax
   1650e:	48 89 85 e8 f4 ff ff 	mov    %rax,-0xb18(%rbp)
   16515:	48 8d 85 d8 ed ff ff 	lea    -0x1228(%rbp),%rax
   1651c:	48 89 85 f0 f4 ff ff 	mov    %rax,-0xb10(%rbp)
   16523:	48 c7 85 f8 f4 ff ff 	movq   $0x0,-0xb08(%rbp)
   1652a:	00 00 00 00 
   1652e:	48 8d 85 08 ee ff ff 	lea    -0x11f8(%rbp),%rax
   16535:	48 89 85 00 f5 ff ff 	mov    %rax,-0xb00(%rbp)
   1653c:	48 8d 85 08 ee ff ff 	lea    -0x11f8(%rbp),%rax
   16543:	48 89 85 08 f5 ff ff 	mov    %rax,-0xaf8(%rbp)
   1654a:	48 8d 85 d8 ed ff ff 	lea    -0x1228(%rbp),%rax
   16551:	48 89 85 10 f5 ff ff 	mov    %rax,-0xaf0(%rbp)
   16558:	48 8d 85 08 ee ff ff 	lea    -0x11f8(%rbp),%rax
   1655f:	48 89 85 18 f5 ff ff 	mov    %rax,-0xae8(%rbp)
   16566:	48 8d 85 d8 ed ff ff 	lea    -0x1228(%rbp),%rax
   1656d:	48 89 85 20 f5 ff ff 	mov    %rax,-0xae0(%rbp)
   16574:	48 8d 85 08 ee ff ff 	lea    -0x11f8(%rbp),%rax
   1657b:	48 89 85 28 f5 ff ff 	mov    %rax,-0xad8(%rbp)
   16582:	48 8d 85 d8 ed ff ff 	lea    -0x1228(%rbp),%rax
   16589:	48 89 85 30 f5 ff ff 	mov    %rax,-0xad0(%rbp)
   16590:	48 8d 85 d8 ed ff ff 	lea    -0x1228(%rbp),%rax
   16597:	48 89 85 38 f5 ff ff 	mov    %rax,-0xac8(%rbp)
   1659e:	48 8d 85 d8 ed ff ff 	lea    -0x1228(%rbp),%rax
   165a5:	48 89 85 40 f5 ff ff 	mov    %rax,-0xac0(%rbp)
   165ac:	48 8d 85 d8 ed ff ff 	lea    -0x1228(%rbp),%rax
   165b3:	48 89 85 48 f5 ff ff 	mov    %rax,-0xab8(%rbp)
   165ba:	48 8d 85 d8 ed ff ff 	lea    -0x1228(%rbp),%rax
   165c1:	48 89 85 50 f5 ff ff 	mov    %rax,-0xab0(%rbp)
   165c8:	48 8d 85 d8 ed ff ff 	lea    -0x1228(%rbp),%rax
   165cf:	48 89 85 58 f5 ff ff 	mov    %rax,-0xaa8(%rbp)
   165d6:	48 8d 85 d8 ed ff ff 	lea    -0x1228(%rbp),%rax
   165dd:	48 89 85 60 f5 ff ff 	mov    %rax,-0xaa0(%rbp)
   165e4:	48 8d 85 d8 ed ff ff 	lea    -0x1228(%rbp),%rax
   165eb:	48 89 85 68 f5 ff ff 	mov    %rax,-0xa98(%rbp)
   165f2:	48 8d 85 08 ee ff ff 	lea    -0x11f8(%rbp),%rax
   165f9:	48 89 85 70 f5 ff ff 	mov    %rax,-0xa90(%rbp)
   16600:	48 8d 85 08 ee ff ff 	lea    -0x11f8(%rbp),%rax
   16607:	48 89 85 78 f5 ff ff 	mov    %rax,-0xa88(%rbp)
   1660e:	48 8d 85 d8 ed ff ff 	lea    -0x1228(%rbp),%rax
   16615:	48 89 85 80 f5 ff ff 	mov    %rax,-0xa80(%rbp)
   1661c:	48 8d 85 08 ee ff ff 	lea    -0x11f8(%rbp),%rax
   16623:	48 89 85 88 f5 ff ff 	mov    %rax,-0xa78(%rbp)
   1662a:	48 8d 85 d8 ed ff ff 	lea    -0x1228(%rbp),%rax
   16631:	48 89 85 90 f5 ff ff 	mov    %rax,-0xa70(%rbp)
   16638:	48 8d 85 d8 ed ff ff 	lea    -0x1228(%rbp),%rax
   1663f:	48 89 85 98 f5 ff ff 	mov    %rax,-0xa68(%rbp)
   16646:	48 8d 85 08 ee ff ff 	lea    -0x11f8(%rbp),%rax
   1664d:	48 89 85 a0 f5 ff ff 	mov    %rax,-0xa60(%rbp)
   16654:	48 8d 85 d8 ed ff ff 	lea    -0x1228(%rbp),%rax
   1665b:	48 89 85 a8 f5 ff ff 	mov    %rax,-0xa58(%rbp)
   16662:	48 8d 85 08 ee ff ff 	lea    -0x11f8(%rbp),%rax
   16669:	48 89 85 b0 f5 ff ff 	mov    %rax,-0xa50(%rbp)
   16670:	48 8d 85 08 ee ff ff 	lea    -0x11f8(%rbp),%rax
   16677:	48 89 85 b8 f5 ff ff 	mov    %rax,-0xa48(%rbp)
   1667e:	48 8d 85 08 ee ff ff 	lea    -0x11f8(%rbp),%rax
   16685:	48 89 85 c0 f5 ff ff 	mov    %rax,-0xa40(%rbp)
   1668c:	48 c7 85 c8 f5 ff ff 	movq   $0x0,-0xa38(%rbp)
   16693:	00 00 00 00 
   16697:	48 8d 85 d8 ed ff ff 	lea    -0x1228(%rbp),%rax
   1669e:	48 89 85 d0 f5 ff ff 	mov    %rax,-0xa30(%rbp)
   166a5:	48 8d 85 d8 ed ff ff 	lea    -0x1228(%rbp),%rax
   166ac:	48 89 85 d8 f5 ff ff 	mov    %rax,-0xa28(%rbp)
   166b3:	48 8d 85 d8 ed ff ff 	lea    -0x1228(%rbp),%rax
   166ba:	48 89 85 e0 f5 ff ff 	mov    %rax,-0xa20(%rbp)
   166c1:	48 8d 85 08 ee ff ff 	lea    -0x11f8(%rbp),%rax
   166c8:	48 89 85 e8 f5 ff ff 	mov    %rax,-0xa18(%rbp)
   166cf:	48 8d 85 08 ee ff ff 	lea    -0x11f8(%rbp),%rax
   166d6:	48 89 85 f0 f5 ff ff 	mov    %rax,-0xa10(%rbp)
   166dd:	48 8d 85 d8 ed ff ff 	lea    -0x1228(%rbp),%rax
   166e4:	48 89 85 f8 f5 ff ff 	mov    %rax,-0xa08(%rbp)
   166eb:	48 8d 85 d8 ed ff ff 	lea    -0x1228(%rbp),%rax
   166f2:	48 89 85 00 f6 ff ff 	mov    %rax,-0xa00(%rbp)
   166f9:	48 8d 85 d8 ed ff ff 	lea    -0x1228(%rbp),%rax
   16700:	48 89 85 08 f6 ff ff 	mov    %rax,-0x9f8(%rbp)
   16707:	48 8d 85 d8 ed ff ff 	lea    -0x1228(%rbp),%rax
   1670e:	48 89 85 10 f6 ff ff 	mov    %rax,-0x9f0(%rbp)
   16715:	48 8d 85 08 ee ff ff 	lea    -0x11f8(%rbp),%rax
   1671c:	48 89 85 18 f6 ff ff 	mov    %rax,-0x9e8(%rbp)
   16723:	48 8d 85 08 ee ff ff 	lea    -0x11f8(%rbp),%rax
   1672a:	48 89 85 20 f6 ff ff 	mov    %rax,-0x9e0(%rbp)
   16731:	48 8d 85 08 ee ff ff 	lea    -0x11f8(%rbp),%rax
   16738:	48 89 85 28 f6 ff ff 	mov    %rax,-0x9d8(%rbp)
   1673f:	48 8d 85 08 ee ff ff 	lea    -0x11f8(%rbp),%rax
   16746:	48 89 85 30 f6 ff ff 	mov    %rax,-0x9d0(%rbp)
   1674d:	48 8d 85 08 ee ff ff 	lea    -0x11f8(%rbp),%rax
   16754:	48 89 85 38 f6 ff ff 	mov    %rax,-0x9c8(%rbp)
   1675b:	48 8d 85 d8 ed ff ff 	lea    -0x1228(%rbp),%rax
   16762:	48 89 85 40 f6 ff ff 	mov    %rax,-0x9c0(%rbp)
   16769:	48 8d 85 08 ee ff ff 	lea    -0x11f8(%rbp),%rax
   16770:	48 89 85 48 f6 ff ff 	mov    %rax,-0x9b8(%rbp)
   16777:	48 8d 85 d8 ed ff ff 	lea    -0x1228(%rbp),%rax
   1677e:	48 89 85 50 f6 ff ff 	mov    %rax,-0x9b0(%rbp)
   16785:	48 8d 85 d8 ed ff ff 	lea    -0x1228(%rbp),%rax
   1678c:	48 89 85 58 f6 ff ff 	mov    %rax,-0x9a8(%rbp)
   16793:	48 8d 85 d8 ed ff ff 	lea    -0x1228(%rbp),%rax
   1679a:	48 89 85 60 f6 ff ff 	mov    %rax,-0x9a0(%rbp)
   167a1:	48 8d 85 08 ee ff ff 	lea    -0x11f8(%rbp),%rax
   167a8:	48 89 85 68 f6 ff ff 	mov    %rax,-0x998(%rbp)
   167af:	48 8d 85 08 ee ff ff 	lea    -0x11f8(%rbp),%rax
   167b6:	48 89 85 70 f6 ff ff 	mov    %rax,-0x990(%rbp)
   167bd:	48 c7 85 78 f6 ff ff 	movq   $0x0,-0x988(%rbp)
   167c4:	00 00 00 00 
   167c8:	48 8d 85 08 ee ff ff 	lea    -0x11f8(%rbp),%rax
   167cf:	48 89 85 80 f6 ff ff 	mov    %rax,-0x980(%rbp)
   167d6:	48 8d 85 08 ee ff ff 	lea    -0x11f8(%rbp),%rax
   167dd:	48 89 85 88 f6 ff ff 	mov    %rax,-0x978(%rbp)
   167e4:	48 8d 85 08 ee ff ff 	lea    -0x11f8(%rbp),%rax
   167eb:	48 89 85 90 f6 ff ff 	mov    %rax,-0x970(%rbp)
   167f2:	48 c7 85 98 f6 ff ff 	movq   $0x0,-0x968(%rbp)
   167f9:	00 00 00 00 
   167fd:	48 8d 85 08 ee ff ff 	lea    -0x11f8(%rbp),%rax
   16804:	48 89 85 a0 f6 ff ff 	mov    %rax,-0x960(%rbp)
   1680b:	48 8d 85 08 ee ff ff 	lea    -0x11f8(%rbp),%rax
   16812:	48 89 85 a8 f6 ff ff 	mov    %rax,-0x958(%rbp)
   16819:	48 8d 85 d8 ed ff ff 	lea    -0x1228(%rbp),%rax
   16820:	48 89 85 b0 f6 ff ff 	mov    %rax,-0x950(%rbp)
   16827:	48 8d 85 08 ee ff ff 	lea    -0x11f8(%rbp),%rax
   1682e:	48 89 85 b8 f6 ff ff 	mov    %rax,-0x948(%rbp)
   16835:	48 8d 85 d8 ed ff ff 	lea    -0x1228(%rbp),%rax
   1683c:	48 89 85 c0 f6 ff ff 	mov    %rax,-0x940(%rbp)
   16843:	48 8d 85 08 ee ff ff 	lea    -0x11f8(%rbp),%rax
   1684a:	48 89 85 c8 f6 ff ff 	mov    %rax,-0x938(%rbp)
   16851:	48 8d 85 d8 ed ff ff 	lea    -0x1228(%rbp),%rax
   16858:	48 89 85 d0 f6 ff ff 	mov    %rax,-0x930(%rbp)
   1685f:	48 8d 85 d8 ed ff ff 	lea    -0x1228(%rbp),%rax
   16866:	48 89 85 d8 f6 ff ff 	mov    %rax,-0x928(%rbp)
   1686d:	48 8d 85 08 ee ff ff 	lea    -0x11f8(%rbp),%rax
   16874:	48 89 85 e0 f6 ff ff 	mov    %rax,-0x920(%rbp)
   1687b:	48 8d 85 d8 ed ff ff 	lea    -0x1228(%rbp),%rax
   16882:	48 89 85 e8 f6 ff ff 	mov    %rax,-0x918(%rbp)
   16889:	48 8d 85 d8 ed ff ff 	lea    -0x1228(%rbp),%rax
   16890:	48 89 85 f0 f6 ff ff 	mov    %rax,-0x910(%rbp)
   16897:	48 8d 85 d8 ed ff ff 	lea    -0x1228(%rbp),%rax
   1689e:	48 89 85 f8 f6 ff ff 	mov    %rax,-0x908(%rbp)
   168a5:	48 8d 85 d8 ed ff ff 	lea    -0x1228(%rbp),%rax
   168ac:	48 89 85 00 f7 ff ff 	mov    %rax,-0x900(%rbp)
   168b3:	48 8d 85 d8 ed ff ff 	lea    -0x1228(%rbp),%rax
   168ba:	48 89 85 08 f7 ff ff 	mov    %rax,-0x8f8(%rbp)
   168c1:	48 8d 85 08 ee ff ff 	lea    -0x11f8(%rbp),%rax
   168c8:	48 89 85 10 f7 ff ff 	mov    %rax,-0x8f0(%rbp)
   168cf:	48 8d 85 d8 ed ff ff 	lea    -0x1228(%rbp),%rax
   168d6:	48 89 85 18 f7 ff ff 	mov    %rax,-0x8e8(%rbp)
   168dd:	48 8d 85 d8 ed ff ff 	lea    -0x1228(%rbp),%rax
   168e4:	48 89 85 20 f7 ff ff 	mov    %rax,-0x8e0(%rbp)
   168eb:	48 8d 85 d8 ed ff ff 	lea    -0x1228(%rbp),%rax
   168f2:	48 89 85 28 f7 ff ff 	mov    %rax,-0x8d8(%rbp)
   168f9:	48 8d 85 d8 ed ff ff 	lea    -0x1228(%rbp),%rax
   16900:	48 89 85 30 f7 ff ff 	mov    %rax,-0x8d0(%rbp)
   16907:	48 8d 85 08 ee ff ff 	lea    -0x11f8(%rbp),%rax
   1690e:	48 89 85 38 f7 ff ff 	mov    %rax,-0x8c8(%rbp)
   16915:	48 8d 85 d8 ed ff ff 	lea    -0x1228(%rbp),%rax
   1691c:	48 89 85 40 f7 ff ff 	mov    %rax,-0x8c0(%rbp)
   16923:	48 8d 85 d8 ed ff ff 	lea    -0x1228(%rbp),%rax
   1692a:	48 89 85 48 f7 ff ff 	mov    %rax,-0x8b8(%rbp)
   16931:	48 8d 85 d8 ed ff ff 	lea    -0x1228(%rbp),%rax
   16938:	48 89 85 50 f7 ff ff 	mov    %rax,-0x8b0(%rbp)
   1693f:	48 8d 85 08 ee ff ff 	lea    -0x11f8(%rbp),%rax
   16946:	48 89 85 58 f7 ff ff 	mov    %rax,-0x8a8(%rbp)
   1694d:	48 8d 85 d8 ed ff ff 	lea    -0x1228(%rbp),%rax
   16954:	48 89 85 60 f7 ff ff 	mov    %rax,-0x8a0(%rbp)
   1695b:	48 8d 85 08 ee ff ff 	lea    -0x11f8(%rbp),%rax
   16962:	48 89 85 68 f7 ff ff 	mov    %rax,-0x898(%rbp)
   16969:	48 8d 85 08 ee ff ff 	lea    -0x11f8(%rbp),%rax
   16970:	48 89 85 70 f7 ff ff 	mov    %rax,-0x890(%rbp)
   16977:	48 8d 85 08 ee ff ff 	lea    -0x11f8(%rbp),%rax
   1697e:	48 89 85 78 f7 ff ff 	mov    %rax,-0x888(%rbp)
   16985:	48 8d 85 d8 ed ff ff 	lea    -0x1228(%rbp),%rax
   1698c:	48 89 85 80 f7 ff ff 	mov    %rax,-0x880(%rbp)
   16993:	48 8d 85 d8 ed ff ff 	lea    -0x1228(%rbp),%rax
   1699a:	48 89 85 88 f7 ff ff 	mov    %rax,-0x878(%rbp)
   169a1:	48 8d 85 d8 ed ff ff 	lea    -0x1228(%rbp),%rax
   169a8:	48 89 85 90 f7 ff ff 	mov    %rax,-0x870(%rbp)
   169af:	48 8d 85 08 ee ff ff 	lea    -0x11f8(%rbp),%rax
   169b6:	48 89 85 98 f7 ff ff 	mov    %rax,-0x868(%rbp)
   169bd:	48 8d 85 d8 ed ff ff 	lea    -0x1228(%rbp),%rax
   169c4:	48 89 85 a0 f7 ff ff 	mov    %rax,-0x860(%rbp)
   169cb:	48 8d 85 d8 ed ff ff 	lea    -0x1228(%rbp),%rax
   169d2:	48 89 85 a8 f7 ff ff 	mov    %rax,-0x858(%rbp)
   169d9:	48 c7 85 b0 f7 ff ff 	movq   $0x0,-0x850(%rbp)
   169e0:	00 00 00 00 
   169e4:	48 8d 85 d8 ed ff ff 	lea    -0x1228(%rbp),%rax
   169eb:	48 89 85 b8 f7 ff ff 	mov    %rax,-0x848(%rbp)
   169f2:	48 8d 85 08 ee ff ff 	lea    -0x11f8(%rbp),%rax
   169f9:	48 89 85 c0 f7 ff ff 	mov    %rax,-0x840(%rbp)
   16a00:	48 8d 85 08 ee ff ff 	lea    -0x11f8(%rbp),%rax
   16a07:	48 89 85 c8 f7 ff ff 	mov    %rax,-0x838(%rbp)
   16a0e:	48 8d 85 d8 ed ff ff 	lea    -0x1228(%rbp),%rax
   16a15:	48 89 85 d0 f7 ff ff 	mov    %rax,-0x830(%rbp)
   16a1c:	48 c7 85 d8 f7 ff ff 	movq   $0x0,-0x828(%rbp)
   16a23:	00 00 00 00 
   16a27:	48 8d 85 d8 ed ff ff 	lea    -0x1228(%rbp),%rax
   16a2e:	48 89 85 e0 f7 ff ff 	mov    %rax,-0x820(%rbp)
   16a35:	48 8d 85 d8 ed ff ff 	lea    -0x1228(%rbp),%rax
   16a3c:	48 89 85 e8 f7 ff ff 	mov    %rax,-0x818(%rbp)
   16a43:	48 8d 85 d8 ed ff ff 	lea    -0x1228(%rbp),%rax
   16a4a:	48 89 85 f0 f7 ff ff 	mov    %rax,-0x810(%rbp)
   16a51:	48 c7 85 f8 f7 ff ff 	movq   $0x0,-0x808(%rbp)
   16a58:	00 00 00 00 
   16a5c:	48 8d 85 d8 ed ff ff 	lea    -0x1228(%rbp),%rax
   16a63:	48 89 85 00 f8 ff ff 	mov    %rax,-0x800(%rbp)
   16a6a:	48 8d 85 d8 ed ff ff 	lea    -0x1228(%rbp),%rax
   16a71:	48 89 85 08 f8 ff ff 	mov    %rax,-0x7f8(%rbp)
   16a78:	48 8d 85 08 ee ff ff 	lea    -0x11f8(%rbp),%rax
   16a7f:	48 89 85 10 f8 ff ff 	mov    %rax,-0x7f0(%rbp)
   16a86:	48 8d 85 d8 ed ff ff 	lea    -0x1228(%rbp),%rax
   16a8d:	48 89 85 18 f8 ff ff 	mov    %rax,-0x7e8(%rbp)
   16a94:	48 8d 85 d8 ed ff ff 	lea    -0x1228(%rbp),%rax
   16a9b:	48 89 85 20 f8 ff ff 	mov    %rax,-0x7e0(%rbp)
   16aa2:	48 8d 85 d8 ed ff ff 	lea    -0x1228(%rbp),%rax
   16aa9:	48 89 85 28 f8 ff ff 	mov    %rax,-0x7d8(%rbp)
   16ab0:	48 8d 85 d8 ed ff ff 	lea    -0x1228(%rbp),%rax
   16ab7:	48 89 85 30 f8 ff ff 	mov    %rax,-0x7d0(%rbp)
   16abe:	48 8d 85 d8 ed ff ff 	lea    -0x1228(%rbp),%rax
   16ac5:	48 89 85 38 f8 ff ff 	mov    %rax,-0x7c8(%rbp)
   16acc:	c7 85 a8 ed ff ff bc 	movl   $0x9c00ffbc,-0x1258(%rbp)
   16ad3:	ff 00 9c 
   16ad6:	8b 85 04 ed ff ff    	mov    -0x12fc(%rbp),%eax
   16adc:	0f be d8             	movsbl %al,%ebx
   16adf:	8b 85 38 ed ff ff    	mov    -0x12c8(%rbp),%eax
   16ae5:	44 0f b7 e0          	movzwl %ax,%r12d
   16ae9:	0f b7 05 b4 98 00 00 	movzwl 0x98b4(%rip),%eax        # 203a4 <g_138>
   16af0:	98                   	cwtl   
   16af1:	89 85 9c ed ff ff    	mov    %eax,-0x1264(%rbp)
   16af7:	8b 85 9c ed ff ff    	mov    -0x1264(%rbp),%eax
   16afd:	89 85 98 ed ff ff    	mov    %eax,-0x1268(%rbp)
   16b03:	8b 85 04 ed ff ff    	mov    -0x12fc(%rbp),%eax
   16b09:	48 98                	cltq   
   16b0b:	48 89 c6             	mov    %rax,%rsi
   16b0e:	bf 01 00 00 00       	mov    $0x1,%edi
   16b13:	e8 29 4d ff ff       	callq  b841 <safe_add_func_int64_t_s_s>
   16b18:	8b 85 04 ed ff ff    	mov    -0x12fc(%rbp),%eax
   16b1e:	83 f0 59             	xor    $0x59,%eax
   16b21:	0f b6 c0             	movzbl %al,%eax
   16b24:	8b 95 a8 ed ff ff    	mov    -0x1258(%rbp),%edx
   16b2a:	89 d6                	mov    %edx,%esi
   16b2c:	89 c7                	mov    %eax,%edi
   16b2e:	e8 d2 50 ff ff       	callq  bc05 <safe_lshift_func_uint8_t_u_s>
   16b33:	8b 85 04 ed ff ff    	mov    -0x12fc(%rbp),%eax
   16b39:	0f b6 c0             	movzbl %al,%eax
   16b3c:	be ba 00 00 00       	mov    $0xba,%esi
   16b41:	89 c7                	mov    %eax,%edi
   16b43:	e8 12 50 ff ff       	callq  bb5a <safe_add_func_uint8_t_u_u>
   16b48:	3c 01                	cmp    $0x1,%al
   16b4a:	76 13                	jbe    16b5f <func_63+0x26a9>
   16b4c:	0f b7 05 07 95 00 00 	movzwl 0x9507(%rip),%eax        # 2005a <g_116+0x2>
   16b53:	66 85 c0             	test   %ax,%ax
   16b56:	74 07                	je     16b5f <func_63+0x26a9>
   16b58:	ba 01 00 00 00       	mov    $0x1,%edx
   16b5d:	eb 05                	jmp    16b64 <func_63+0x26ae>
   16b5f:	ba 00 00 00 00       	mov    $0x0,%edx
   16b64:	8b 85 04 ed ff ff    	mov    -0x12fc(%rbp),%eax
   16b6a:	39 c2                	cmp    %eax,%edx
   16b6c:	0f 9d c0             	setge  %al
   16b6f:	0f b6 c0             	movzbl %al,%eax
   16b72:	44 89 e6             	mov    %r12d,%esi
   16b75:	89 c7                	mov    %eax,%edi
   16b77:	e8 83 51 ff ff       	callq  bcff <safe_add_func_uint16_t_u_u>
   16b7c:	0f be c0             	movsbl %al,%eax
   16b7f:	89 de                	mov    %ebx,%esi
   16b81:	89 c7                	mov    %eax,%edi
   16b83:	e8 6a 46 ff ff       	callq  b1f2 <safe_sub_func_int8_t_s_s>
   16b88:	84 c0                	test   %al,%al
   16b8a:	48 8b 85 c0 ed ff ff 	mov    -0x1240(%rbp),%rax
   16b91:	48 8b 00             	mov    (%rax),%rax
   16b94:	c7 00 01 00 00 00    	movl   $0x1,(%rax)
   16b9a:	e9 06 09 00 00       	jmpq   174a5 <func_63+0x2fef>
   16b9f:	48 c7 85 98 ee ff ff 	movq   $0x0,-0x1168(%rbp)
   16ba6:	00 00 00 00 
   16baa:	48 8d 05 f3 97 00 00 	lea    0x97f3(%rip),%rax        # 203a4 <g_138>
   16bb1:	48 89 85 a0 ee ff ff 	mov    %rax,-0x1160(%rbp)
   16bb8:	48 8d 85 b0 f0 ff ff 	lea    -0xf50(%rbp),%rax
   16bbf:	48 83 c0 38          	add    $0x38,%rax
   16bc3:	48 89 85 a8 ee ff ff 	mov    %rax,-0x1158(%rbp)
   16bca:	48 8d 85 f8 ed ff ff 	lea    -0x1208(%rbp),%rax
   16bd1:	48 89 85 b0 ee ff ff 	mov    %rax,-0x1150(%rbp)
   16bd8:	48 c7 85 18 ee ff ff 	movq   $0x0,-0x11e8(%rbp)
   16bdf:	00 00 00 00 
   16be3:	48 8d 85 18 ee ff ff 	lea    -0x11e8(%rbp),%rax
   16bea:	48 89 85 b8 ee ff ff 	mov    %rax,-0x1148(%rbp)
   16bf1:	48 c7 85 c0 ee ff ff 	movq   $0x0,-0x1140(%rbp)
   16bf8:	00 00 00 00 
   16bfc:	48 c7 85 c8 ee ff ff 	movq   $0x0,-0x1138(%rbp)
   16c03:	00 00 00 00 
   16c07:	48 8d 05 e6 94 00 00 	lea    0x94e6(%rip),%rax        # 200f4 <g_117+0x74>
   16c0e:	48 89 85 d0 ee ff ff 	mov    %rax,-0x1130(%rbp)
   16c15:	c7 85 a4 ed ff ff 00 	movl   $0x0,-0x125c(%rbp)
   16c1c:	00 00 00 
   16c1f:	c7 85 54 ed ff ff 00 	movl   $0x0,-0x12ac(%rbp)
   16c26:	00 00 00 
   16c29:	eb 1a                	jmp    16c45 <func_63+0x278f>
   16c2b:	8b 85 54 ed ff ff    	mov    -0x12ac(%rbp),%eax
   16c31:	48 98                	cltq   
   16c33:	c7 84 85 00 f2 ff ff 	movl   $0xb3dd9f28,-0xe00(%rbp,%rax,4)
   16c3a:	28 9f dd b3 
   16c3e:	83 85 54 ed ff ff 01 	addl   $0x1,-0x12ac(%rbp)
   16c45:	83 bd 54 ed ff ff 04 	cmpl   $0x4,-0x12ac(%rbp)
   16c4c:	7e dd                	jle    16c2b <func_63+0x2775>
   16c4e:	b8 21 d0 ab d3       	mov    $0xd3abd021,%eax
   16c53:	98                   	cwtl   
   16c54:	89 c6                	mov    %eax,%esi
   16c56:	bf e8 3f 00 00       	mov    $0x3fe8,%edi
   16c5b:	e8 95 47 ff ff       	callq  b3f5 <safe_mul_func_int16_t_s_s>
   16c60:	48 8b 95 b8 ed ff ff 	mov    -0x1248(%rbp),%rdx
   16c67:	8b 0a                	mov    (%rdx),%ecx
   16c69:	0f bf d0             	movswl %ax,%edx
   16c6c:	48 8b 85 b8 ed ff ff 	mov    -0x1248(%rbp),%rax
   16c73:	21 ca                	and    %ecx,%edx
   16c75:	89 10                	mov    %edx,(%rax)
   16c77:	8b 85 8c f0 ff ff    	mov    -0xf74(%rbp),%eax
   16c7d:	41 89 c5             	mov    %eax,%r13d
   16c80:	8b 05 26 97 00 00    	mov    0x9726(%rip),%eax        # 203ac <g_257>
   16c86:	0f bf d8             	movswl %ax,%ebx
   16c89:	8b 85 04 ed ff ff    	mov    -0x12fc(%rbp),%eax
   16c8f:	44 0f b6 e0          	movzbl %al,%r12d
   16c93:	48 8b 05 46 b6 00 00 	mov    0xb646(%rip),%rax        # 222e0 <g_255>
   16c9a:	48 85 c0             	test   %rax,%rax
   16c9d:	0f 95 c0             	setne  %al
   16ca0:	0f b6 c0             	movzbl %al,%eax
   16ca3:	be 9c 5d 00 00       	mov    $0x5d9c,%esi
   16ca8:	89 c7                	mov    %eax,%edi
   16caa:	e8 46 47 ff ff       	callq  b3f5 <safe_mul_func_int16_t_s_s>
   16caf:	0f b6 c0             	movzbl %al,%eax
   16cb2:	44 89 e6             	mov    %r12d,%esi
   16cb5:	89 c7                	mov    %eax,%edi
   16cb7:	e8 f2 4e ff ff       	callq  bbae <safe_mod_func_uint8_t_u_u>
   16cbc:	48 8b 95 08 ed ff ff 	mov    -0x12f8(%rbp),%rdx
   16cc3:	48 8d 85 10 ee ff ff 	lea    -0x11f0(%rbp),%rax
   16cca:	48 39 c2             	cmp    %rax,%rdx
   16ccd:	0f 94 c0             	sete   %al
   16cd0:	44 0f b6 e0          	movzbl %al,%r12d
   16cd4:	48 8b 85 08 ed ff ff 	mov    -0x12f8(%rbp),%rax
   16cdb:	48 8b 00             	mov    (%rax),%rax
   16cde:	0f b6 00             	movzbl (%rax),%eax
   16ce1:	0f be c0             	movsbl %al,%eax
   16ce4:	be 00 00 00 00       	mov    $0x0,%esi
   16ce9:	89 c7                	mov    %eax,%edi
   16ceb:	e8 45 46 ff ff       	callq  b335 <safe_rshift_func_int8_t_s_s>
   16cf0:	66 98                	cbtw   
   16cf2:	0f b7 c0             	movzwl %ax,%eax
   16cf5:	be 11 87 00 00       	mov    $0x8711,%esi
   16cfa:	89 c7                	mov    %eax,%edi
   16cfc:	e8 1e 50 ff ff       	callq  bd1f <safe_sub_func_uint16_t_u_u>
   16d01:	0f be c0             	movsbl %al,%eax
   16d04:	44 89 e6             	mov    %r12d,%esi
   16d07:	89 c7                	mov    %eax,%edi
   16d09:	e8 e4 44 ff ff       	callq  b1f2 <safe_sub_func_int8_t_s_s>
   16d0e:	3c 01                	cmp    $0x1,%al
   16d10:	0f 95 c0             	setne  %al
   16d13:	0f b6 c0             	movzbl %al,%eax
   16d16:	89 de                	mov    %ebx,%esi
   16d18:	89 c7                	mov    %eax,%edi
   16d1a:	e8 94 46 ff ff       	callq  b3b3 <safe_add_func_int16_t_s_s>
   16d1f:	48 8b 85 08 ed ff ff 	mov    -0x12f8(%rbp),%rax
   16d26:	48 8b 00             	mov    (%rax),%rax
   16d29:	0f b6 00             	movzbl (%rax),%eax
   16d2c:	0f be d8             	movsbl %al,%ebx
   16d2f:	be 06 00 00 00       	mov    $0x6,%esi
   16d34:	bf f7 32 00 00       	mov    $0x32f7,%edi
   16d39:	e8 ec 47 ff ff       	callq  b52a <safe_rshift_func_int16_t_s_s>
   16d3e:	0f be c0             	movsbl %al,%eax
   16d41:	89 de                	mov    %ebx,%esi
   16d43:	89 c7                	mov    %eax,%edi
   16d45:	e8 eb 45 ff ff       	callq  b335 <safe_rshift_func_int8_t_s_s>
   16d4a:	48 0f be d0          	movsbq %al,%rdx
   16d4e:	48 8b 05 8b b5 00 00 	mov    0xb58b(%rip),%rax        # 222e0 <g_255>
   16d55:	48 8b 00             	mov    (%rax),%rax
   16d58:	48 39 c2             	cmp    %rax,%rdx
   16d5b:	0f 96 c0             	setbe  %al
   16d5e:	0f b6 c0             	movzbl %al,%eax
   16d61:	44 89 ee             	mov    %r13d,%esi
   16d64:	89 c7                	mov    %eax,%edi
   16d66:	e8 e1 4e ff ff       	callq  bc4c <safe_lshift_func_uint8_t_u_u>
   16d6b:	0f b6 d0             	movzbl %al,%edx
   16d6e:	48 8b 85 a0 ee ff ff 	mov    -0x1160(%rbp),%rax
   16d75:	66 89 10             	mov    %dx,(%rax)
   16d78:	48 8b 85 a0 ee ff ff 	mov    -0x1160(%rbp),%rax
   16d7f:	0f b7 00             	movzwl (%rax),%eax
   16d82:	66 85 c0             	test   %ax,%ax
   16d85:	0f 94 c0             	sete   %al
   16d88:	0f b6 d0             	movzbl %al,%edx
   16d8b:	8b 85 04 ed ff ff    	mov    -0x12fc(%rbp),%eax
   16d91:	39 c2                	cmp    %eax,%edx
   16d93:	0f 94 c0             	sete   %al
   16d96:	0f b6 c8             	movzbl %al,%ecx
   16d99:	48 8b 05 00 b5 00 00 	mov    0xb500(%rip),%rax        # 222a0 <g_155>
   16da0:	8b 10                	mov    (%rax),%edx
   16da2:	48 8b 05 f7 b4 00 00 	mov    0xb4f7(%rip),%rax        # 222a0 <g_155>
   16da9:	21 ca                	and    %ecx,%edx
   16dab:	89 10                	mov    %edx,(%rax)
   16dad:	8b 85 04 ed ff ff    	mov    -0x12fc(%rbp),%eax
   16db3:	0f b7 c0             	movzwl %ax,%eax
   16db6:	89 c7                	mov    %eax,%edi
   16db8:	e8 2c 4f ff ff       	callq  bce9 <safe_unary_minus_func_uint16_t_u>
   16dbd:	66 85 c0             	test   %ax,%ax
   16dc0:	74 07                	je     16dc9 <func_63+0x2913>
   16dc2:	bb 01 00 00 00       	mov    $0x1,%ebx
   16dc7:	eb 05                	jmp    16dce <func_63+0x2918>
   16dc9:	bb 00 00 00 00       	mov    $0x0,%ebx
   16dce:	8b 85 7c f1 ff ff    	mov    -0xe84(%rbp),%eax
   16dd4:	98                   	cwtl   
   16dd5:	48 8b 95 a8 ee ff ff 	mov    -0x1158(%rbp),%rdx
   16ddc:	48 8d 8d d0 ed ff ff 	lea    -0x1230(%rbp),%rcx
   16de3:	48 89 0a             	mov    %rcx,(%rdx)
   16de6:	48 8b 8d f8 ed ff ff 	mov    -0x1208(%rbp),%rcx
   16ded:	48 8b 95 b0 ee ff ff 	mov    -0x1150(%rbp),%rdx
   16df4:	48 89 0a             	mov    %rcx,(%rdx)
   16df7:	48 8b 95 b0 ee ff ff 	mov    -0x1150(%rbp),%rdx
   16dfe:	48 8b 0a             	mov    (%rdx),%rcx
   16e01:	48 8b 95 b8 ee ff ff 	mov    -0x1148(%rbp),%rdx
   16e08:	48 89 0a             	mov    %rcx,(%rdx)
   16e0b:	48 8b 95 d8 f0 ff ff 	mov    -0xf28(%rbp),%rdx
   16e12:	b9 00 00 00 00       	mov    $0x0,%ecx
   16e17:	48 39 ca             	cmp    %rcx,%rdx
   16e1a:	0f 95 c2             	setne  %dl
   16e1d:	0f b6 ca             	movzbl %dl,%ecx
   16e20:	48 8b 95 d0 ee ff ff 	mov    -0x1130(%rbp),%rdx
   16e27:	8b 12                	mov    (%rdx),%edx
   16e29:	31 d1                	xor    %edx,%ecx
   16e2b:	48 8b 95 d0 ee ff ff 	mov    -0x1130(%rbp),%rdx
   16e32:	89 0a                	mov    %ecx,(%rdx)
   16e34:	89 c6                	mov    %eax,%esi
   16e36:	bf 01 00 00 00       	mov    $0x1,%edi
   16e3b:	e8 93 45 ff ff       	callq  b3d3 <safe_sub_func_int16_t_s_s>
   16e40:	98                   	cwtl   
   16e41:	39 c3                	cmp    %eax,%ebx
   16e43:	0f 9e c0             	setle  %al
   16e46:	0f b6 c0             	movzbl %al,%eax
   16e49:	0b 85 a4 ed ff ff    	or     -0x125c(%rbp),%eax
   16e4f:	48 63 d0             	movslq %eax,%rdx
   16e52:	48 83 bd a0 ee ff ff 	cmpq   $0x0,-0x1160(%rbp)
   16e59:	00 
   16e5a:	0f 94 c0             	sete   %al
   16e5d:	0f b6 c8             	movzbl %al,%ecx
   16e60:	c7 85 04 f2 ff ff ff 	movl   $0xffffffff,-0xdfc(%rbp)
   16e67:	ff ff ff 
   16e6a:	8b 85 04 f2 ff ff    	mov    -0xdfc(%rbp),%eax
   16e70:	39 c1                	cmp    %eax,%ecx
   16e72:	0f 9c c0             	setl   %al
   16e75:	0f b6 c0             	movzbl %al,%eax
   16e78:	48 89 d6             	mov    %rdx,%rsi
   16e7b:	48 89 c7             	mov    %rax,%rdi
   16e7e:	e8 25 4a ff ff       	callq  b8a8 <safe_sub_func_int64_t_s_s>
   16e83:	48 85 c0             	test   %rax,%rax
   16e86:	75 0d                	jne    16e95 <func_63+0x29df>
   16e88:	48 8b 05 51 b4 00 00 	mov    0xb451(%rip),%rax        # 222e0 <g_255>
   16e8f:	48 8b 00             	mov    (%rax),%rax
   16e92:	48 85 c0             	test   %rax,%rax
   16e95:	48 8b 85 c0 ed ff ff 	mov    -0x1240(%rbp),%rax
   16e9c:	48 8b 95 20 ee ff ff 	mov    -0x11e0(%rbp),%rdx
   16ea3:	48 89 10             	mov    %rdx,(%rax)
   16ea6:	e9 fa 05 00 00       	jmpq   174a5 <func_63+0x2fef>
   16eab:	66 c7 85 26 ed ff ff 	movw   $0x4403,-0x12da(%rbp)
   16eb2:	03 44 
   16eb4:	c7 85 18 ee ff ff 13 	movl   $0xa1680d13,-0x11e8(%rbp)
   16ebb:	0d 68 a1 
   16ebe:	48 c7 85 f0 ed ff ff 	movq   $0x0,-0x1210(%rbp)
   16ec5:	00 00 00 00 
   16ec9:	e9 6e 01 00 00       	jmpq   1703c <func_63+0x2b86>
   16ece:	c6 85 21 ed ff ff 32 	movb   $0x32,-0x12df(%rbp)
   16ed5:	48 8d 85 e0 ed ff ff 	lea    -0x1220(%rbp),%rax
   16edc:	48 89 85 88 ee ff ff 	mov    %rax,-0x1178(%rbp)
   16ee3:	8b 85 a4 ef ff ff    	mov    -0x105c(%rbp),%eax
   16ee9:	85 c0                	test   %eax,%eax
   16eeb:	0f 84 80 00 00 00    	je     16f71 <func_63+0x2abb>
   16ef1:	48 8b 85 c0 ed ff ff 	mov    -0x1240(%rbp),%rax
   16ef8:	48 8b 00             	mov    (%rax),%rax
   16efb:	c7 00 01 00 00 00    	movl   $0x1,(%rax)
   16f01:	8b 85 9c ef ff ff    	mov    -0x1064(%rbp),%eax
   16f07:	0f b6 d8             	movzbl %al,%ebx
   16f0a:	48 8b 05 cf b3 00 00 	mov    0xb3cf(%rip),%rax        # 222e0 <g_255>
   16f11:	48 8b 10             	mov    (%rax),%rdx
   16f14:	8b 05 52 93 00 00    	mov    0x9352(%rip),%eax        # 2026c <g_117+0x1ec>
   16f1a:	8b 0d 80 94 00 00    	mov    0x9480(%rip),%ecx        # 203a0 <g_131>
   16f20:	09 c8                	or     %ecx,%eax
   16f22:	85 c0                	test   %eax,%eax
   16f24:	0f 95 c0             	setne  %al
   16f27:	0f b6 c0             	movzbl %al,%eax
   16f2a:	48 89 d6             	mov    %rdx,%rsi
   16f2d:	48 89 c7             	mov    %rax,%rdi
   16f30:	e8 f9 50 ff ff       	callq  c02e <safe_add_func_uint64_t_u_u>
   16f35:	c7 85 18 ee ff ff 01 	movl   $0x1,-0x11e8(%rbp)
   16f3c:	00 00 00 
   16f3f:	8b 95 18 ee ff ff    	mov    -0x11e8(%rbp),%edx
   16f45:	8b 85 04 ed ff ff    	mov    -0x12fc(%rbp),%eax
   16f4b:	39 c2                	cmp    %eax,%edx
   16f4d:	8b 85 80 ed ff ff    	mov    -0x1280(%rbp),%eax
   16f53:	98                   	cwtl   
   16f54:	be 04 00 00 00       	mov    $0x4,%esi
   16f59:	89 c7                	mov    %eax,%edi
   16f5b:	e8 81 45 ff ff       	callq  b4e1 <safe_lshift_func_int16_t_s_u>
   16f60:	b8 01 00 00 00       	mov    $0x1,%eax
   16f65:	0f b6 c0             	movzbl %al,%eax
   16f68:	89 de                	mov    %ebx,%esi
   16f6a:	89 c7                	mov    %eax,%edi
   16f6c:	e8 07 4c ff ff       	callq  bb78 <safe_sub_func_uint8_t_u_u>
   16f71:	ba 00 00 00 00       	mov    $0x0,%edx
   16f76:	48 8b 85 d0 ed ff ff 	mov    -0x1230(%rbp),%rax
   16f7d:	66 89 10             	mov    %dx,(%rax)
   16f80:	0f b7 00             	movzwl (%rax),%eax
   16f83:	66 85 c0             	test   %ax,%ax
   16f86:	74 11                	je     16f99 <func_63+0x2ae3>
   16f88:	8b 85 04 ed ff ff    	mov    -0x12fc(%rbp),%eax
   16f8e:	85 c0                	test   %eax,%eax
   16f90:	74 07                	je     16f99 <func_63+0x2ae3>
   16f92:	b8 01 00 00 00       	mov    $0x1,%eax
   16f97:	eb 05                	jmp    16f9e <func_63+0x2ae8>
   16f99:	b8 00 00 00 00       	mov    $0x0,%eax
   16f9e:	48 98                	cltq   
   16fa0:	48 be 66 5f b0 c2 5f 	movabs $0x6571b35fc2b05f66,%rsi
   16fa7:	b3 71 65 
   16faa:	48 89 c7             	mov    %rax,%rdi
   16fad:	e8 7c 50 ff ff       	callq  c02e <safe_add_func_uint64_t_u_u>
   16fb2:	0f be c0             	movsbl %al,%eax
   16fb5:	be 06 00 00 00       	mov    $0x6,%esi
   16fba:	89 c7                	mov    %eax,%edi
   16fbc:	e8 e0 42 ff ff       	callq  b2a1 <safe_lshift_func_int8_t_s_s>
   16fc1:	84 c0                	test   %al,%al
   16fc3:	74 11                	je     16fd6 <func_63+0x2b20>
   16fc5:	8b 85 04 ed ff ff    	mov    -0x12fc(%rbp),%eax
   16fcb:	85 c0                	test   %eax,%eax
   16fcd:	74 07                	je     16fd6 <func_63+0x2b20>
   16fcf:	b8 01 00 00 00       	mov    $0x1,%eax
   16fd4:	eb 05                	jmp    16fdb <func_63+0x2b25>
   16fd6:	b8 00 00 00 00       	mov    $0x0,%eax
   16fdb:	48 98                	cltq   
   16fdd:	48 be f7 5c b6 38 c4 	movabs $0xb8d31ec438b65cf7,%rsi
   16fe4:	1e d3 b8 
   16fe7:	48 89 c7             	mov    %rax,%rdi
   16fea:	e8 52 48 ff ff       	callq  b841 <safe_add_func_int64_t_s_s>
   16fef:	0f be c0             	movsbl %al,%eax
   16ff2:	be 03 00 00 00       	mov    $0x3,%esi
   16ff7:	89 c7                	mov    %eax,%edi
   16ff9:	e8 6e 43 ff ff       	callq  b36c <safe_rshift_func_int8_t_s_u>
   16ffe:	89 c2                	mov    %eax,%edx
   17000:	48 8b 05 99 b2 00 00 	mov    0xb299(%rip),%rax        # 222a0 <g_155>
   17007:	0f be d2             	movsbl %dl,%edx
   1700a:	89 10                	mov    %edx,(%rax)
   1700c:	66 83 bd 26 ed ff ff 	cmpw   $0x0,-0x12da(%rbp)
   17013:	00 
   17014:	75 13                	jne    17029 <func_63+0x2b73>
   17016:	48 8b 95 e0 ed ff ff 	mov    -0x1220(%rbp),%rdx
   1701d:	48 8b 85 88 ee ff ff 	mov    -0x1178(%rbp),%rax
   17024:	48 89 10             	mov    %rdx,(%rax)
   17027:	eb 01                	jmp    1702a <func_63+0x2b74>
   17029:	90                   	nop
   1702a:	48 8b 85 f0 ed ff ff 	mov    -0x1210(%rbp),%rax
   17031:	48 83 c0 01          	add    $0x1,%rax
   17035:	48 89 85 f0 ed ff ff 	mov    %rax,-0x1210(%rbp)
   1703c:	48 8b 85 f0 ed ff ff 	mov    -0x1210(%rbp),%rax
   17043:	48 83 f8 04          	cmp    $0x4,%rax
   17047:	0f 8e 81 fe ff ff    	jle    16ece <func_63+0x2a18>
   1704d:	83 bd 78 ed ff ff 00 	cmpl   $0x0,-0x1288(%rbp)
   17054:	0f 84 1f 04 00 00    	je     17479 <func_63+0x2fc3>
   1705a:	48 8d 85 f0 ed ff ff 	lea    -0x1210(%rbp),%rax
   17061:	48 89 85 80 ee ff ff 	mov    %rax,-0x1180(%rbp)
   17068:	c6 85 20 ed ff ff ff 	movb   $0xff,-0x12e0(%rbp)
   1706f:	48 8b 05 6a b2 00 00 	mov    0xb26a(%rip),%rax        # 222e0 <g_255>
   17076:	4c 8b 28             	mov    (%rax),%r13
   17079:	44 8b a5 90 ed ff ff 	mov    -0x1270(%rbp),%r12d
   17080:	48 8b 85 00 ee ff ff 	mov    -0x1200(%rbp),%rax
   17087:	48 85 c0             	test   %rax,%rax
   1708a:	0f 95 c0             	setne  %al
   1708d:	0f b6 d0             	movzbl %al,%edx
   17090:	8b 85 04 ed ff ff    	mov    -0x12fc(%rbp),%eax
   17096:	39 c2                	cmp    %eax,%edx
   17098:	0f 9d c0             	setge  %al
   1709b:	0f b6 c0             	movzbl %al,%eax
   1709e:	be 15 99 ff ff       	mov    $0xffff9915,%esi
   170a3:	89 c7                	mov    %eax,%edi
   170a5:	e8 29 43 ff ff       	callq  b3d3 <safe_sub_func_int16_t_s_s>
   170aa:	0f be c0             	movsbl %al,%eax
   170ad:	be 1d 00 00 00       	mov    $0x1d,%esi
   170b2:	89 c7                	mov    %eax,%edi
   170b4:	e8 39 41 ff ff       	callq  b1f2 <safe_sub_func_int8_t_s_s>
   170b9:	8b 85 04 ed ff ff    	mov    -0x12fc(%rbp),%eax
   170bf:	39 85 6c ed ff ff    	cmp    %eax,-0x1294(%rbp)
   170c5:	0f 9f c0             	setg   %al
   170c8:	0f b6 c0             	movzbl %al,%eax
   170cb:	48 8b 9d 08 ed ff ff 	mov    -0x12f8(%rbp),%rbx
   170d2:	4c 89 ea             	mov    %r13,%rdx
   170d5:	44 89 e6             	mov    %r12d,%esi
   170d8:	89 c7                	mov    %eax,%edi
   170da:	e8 cc 1e 00 00       	callq  18fab <func_69>
   170df:	48 89 03             	mov    %rax,(%rbx)
   170e2:	48 8b 03             	mov    (%rbx),%rax
   170e5:	48 39 85 60 ee ff ff 	cmp    %rax,-0x11a0(%rbp)
   170ec:	0f 94 c0             	sete   %al
   170ef:	0f b6 c0             	movzbl %al,%eax
   170f2:	be 05 00 00 00       	mov    $0x5,%esi
   170f7:	89 c7                	mov    %eax,%edi
   170f9:	e8 4a 4d ff ff       	callq  be48 <safe_rshift_func_uint16_t_u_s>
   170fe:	8b 85 70 f1 ff ff    	mov    -0xe90(%rbp),%eax
   17104:	8b 15 96 92 00 00    	mov    0x9296(%rip),%edx        # 203a0 <g_131>
   1710a:	21 d0                	and    %edx,%eax
   1710c:	89 c2                	mov    %eax,%edx
   1710e:	48 8b 85 20 ee ff ff 	mov    -0x11e0(%rbp),%rax
   17115:	89 10                	mov    %edx,(%rax)
   17117:	48 8b 85 20 ee ff ff 	mov    -0x11e0(%rbp),%rax
   1711e:	8b 00                	mov    (%rax),%eax
   17120:	39 85 88 ed ff ff    	cmp    %eax,-0x1278(%rbp)
   17126:	0f 94 c2             	sete   %dl
   17129:	48 8b 85 c0 ed ff ff 	mov    -0x1240(%rbp),%rax
   17130:	48 8b 00             	mov    (%rax),%rax
   17133:	0f b6 d2             	movzbl %dl,%edx
   17136:	89 10                	mov    %edx,(%rax)
   17138:	8b 85 74 ed ff ff    	mov    -0x128c(%rbp),%eax
   1713e:	0f be d8             	movsbl %al,%ebx
   17141:	48 8b 85 58 ee ff ff 	mov    -0x11a8(%rbp),%rax
   17148:	0f b6 00             	movzbl (%rax),%eax
   1714b:	8d 50 ff             	lea    -0x1(%rax),%edx
   1714e:	48 8b 85 58 ee ff ff 	mov    -0x11a8(%rbp),%rax
   17155:	88 10                	mov    %dl,(%rax)
   17157:	8b 85 88 ef ff ff    	mov    -0x1078(%rbp),%eax
   1715d:	85 c0                	test   %eax,%eax
   1715f:	0f 84 e8 00 00 00    	je     1724d <func_63+0x2d97>
   17165:	48 8b 85 08 ed ff ff 	mov    -0x12f8(%rbp),%rax
   1716c:	48 8b 00             	mov    (%rax),%rax
   1716f:	0f b6 00             	movzbl (%rax),%eax
   17172:	0f be d0             	movsbl %al,%edx
   17175:	0f b6 05 d0 8e 00 00 	movzbl 0x8ed0(%rip),%eax        # 2004c <g_47>
   1717c:	0f b6 c0             	movzbl %al,%eax
   1717f:	89 d6                	mov    %edx,%esi
   17181:	89 c7                	mov    %eax,%edi
   17183:	e8 05 4b ff ff       	callq  bc8d <safe_rshift_func_uint8_t_u_s>
   17188:	44 0f b6 f8          	movzbl %al,%r15d
   1718c:	8b 85 18 ee ff ff    	mov    -0x11e8(%rbp),%eax
   17192:	4c 63 e0             	movslq %eax,%r12
   17195:	8b 05 b9 8e 00 00    	mov    0x8eb9(%rip),%eax        # 20054 <g_115>
   1719b:	44 0f bf e8          	movswl %ax,%r13d
   1719f:	44 0f b7 b5 26 ed ff 	movzwl -0x12da(%rbp),%r14d
   171a6:	ff 
   171a7:	48 8b 85 20 ee ff ff 	mov    -0x11e0(%rbp),%rax
   171ae:	8b 00                	mov    (%rax),%eax
   171b0:	89 c2                	mov    %eax,%edx
   171b2:	48 83 bd 38 ee ff ff 	cmpq   $0x0,-0x11c8(%rbp)
   171b9:	00 
   171ba:	0f 94 c0             	sete   %al
   171bd:	0f b6 c0             	movzbl %al,%eax
   171c0:	21 d0                	and    %edx,%eax
   171c2:	98                   	cwtl   
   171c3:	89 c7                	mov    %eax,%edi
   171c5:	e8 d3 41 ff ff       	callq  b39d <safe_unary_minus_func_int16_t_s>
   171ca:	0f be c0             	movsbl %al,%eax
   171cd:	44 89 f6             	mov    %r14d,%esi
   171d0:	89 c7                	mov    %eax,%edi
   171d2:	e8 ca 40 ff ff       	callq  b2a1 <safe_lshift_func_int8_t_s_s>
   171d7:	48 0f be d0          	movsbq %al,%rdx
   171db:	48 8b 85 80 ee ff ff 	mov    -0x1180(%rbp),%rax
   171e2:	48 89 10             	mov    %rdx,(%rax)
   171e5:	48 8b 85 80 ee ff ff 	mov    -0x1180(%rbp),%rax
   171ec:	48 8b 00             	mov    (%rax),%rax
   171ef:	48 85 c0             	test   %rax,%rax
   171f2:	75 0d                	jne    17201 <func_63+0x2d4b>
   171f4:	48 8b 05 e5 b0 00 00 	mov    0xb0e5(%rip),%rax        # 222e0 <g_255>
   171fb:	48 8b 00             	mov    (%rax),%rax
   171fe:	48 85 c0             	test   %rax,%rax
   17201:	b8 21 d0 ab d3       	mov    $0xd3abd021,%eax
   17206:	98                   	cwtl   
   17207:	44 89 ee             	mov    %r13d,%esi
   1720a:	89 c7                	mov    %eax,%edi
   1720c:	e8 c2 41 ff ff       	callq  b3d3 <safe_sub_func_int16_t_s_s>
   17211:	89 c2                	mov    %eax,%edx
   17213:	48 8b 05 c6 b0 00 00 	mov    0xb0c6(%rip),%rax        # 222e0 <g_255>
   1721a:	48 0f bf d2          	movswq %dx,%rdx
   1721e:	48 89 10             	mov    %rdx,(%rax)
   17221:	48 8b 00             	mov    (%rax),%rax
   17224:	4c 89 e6             	mov    %r12,%rsi
   17227:	48 89 c7             	mov    %rax,%rdi
   1722a:	e8 ff 4d ff ff       	callq  c02e <safe_add_func_uint64_t_u_u>
   1722f:	49 39 c7             	cmp    %rax,%r15
   17232:	0f 94 c0             	sete   %al
   17235:	0f b6 d0             	movzbl %al,%edx
   17238:	0f b6 05 0d 8e 00 00 	movzbl 0x8e0d(%rip),%eax        # 2004c <g_47>
   1723f:	0f be c0             	movsbl %al,%eax
   17242:	39 c2                	cmp    %eax,%edx
   17244:	74 07                	je     1724d <func_63+0x2d97>
   17246:	b8 01 00 00 00       	mov    $0x1,%eax
   1724b:	eb 05                	jmp    17252 <func_63+0x2d9c>
   1724d:	b8 00 00 00 00       	mov    $0x0,%eax
   17252:	48 98                	cltq   
   17254:	48 89 85 48 ee ff ff 	mov    %rax,-0x11b8(%rbp)
   1725b:	48 83 bd 48 ee ff ff 	cmpq   $0x0,-0x11b8(%rbp)
   17262:	00 
   17263:	75 0a                	jne    1726f <func_63+0x2db9>
   17265:	0f b7 05 ee 8d 00 00 	movzwl 0x8dee(%rip),%eax        # 2005a <g_116+0x2>
   1726c:	66 85 c0             	test   %ax,%ax
   1726f:	8b 05 db 8d 00 00    	mov    0x8ddb(%rip),%eax        # 20050 <g_105>
   17275:	48 98                	cltq   
   17277:	48 ba 32 fa 83 a2 82 	movabs $0x92c08282a283fa32,%rdx
   1727e:	82 c0 92 
   17281:	48 39 d0             	cmp    %rdx,%rax
   17284:	0f 96 c0             	setbe  %al
   17287:	89 c2                	mov    %eax,%edx
   17289:	8b 85 90 ed ff ff    	mov    -0x1270(%rbp),%eax
   1728f:	31 c2                	xor    %eax,%edx
   17291:	8b 85 78 ed ff ff    	mov    -0x1288(%rbp),%eax
   17297:	21 d0                	and    %edx,%eax
   17299:	0f be c0             	movsbl %al,%eax
   1729c:	89 c6                	mov    %eax,%esi
   1729e:	bf ff ff ff ff       	mov    $0xffffffff,%edi
   172a3:	e8 89 3f ff ff       	callq  b231 <safe_mod_func_int8_t_s_s>
   172a8:	be 98 00 00 00       	mov    $0x98,%esi
   172ad:	bf 00 00 00 00       	mov    $0x0,%edi
   172b2:	e8 dc 48 ff ff       	callq  bb93 <safe_mul_func_uint8_t_u_u>
   172b7:	8b 85 78 ed ff ff    	mov    -0x1288(%rbp),%eax
   172bd:	0f be c0             	movsbl %al,%eax
   172c0:	89 de                	mov    %ebx,%esi
   172c2:	89 c7                	mov    %eax,%edi
   172c4:	e8 49 3f ff ff       	callq  b212 <safe_mul_func_int8_t_s_s>
   172c9:	48 8b 95 08 ed ff ff 	mov    -0x12f8(%rbp),%rdx
   172d0:	48 8b 12             	mov    (%rdx),%rdx
   172d3:	0f b6 12             	movzbl (%rdx),%edx
   172d6:	21 d0                	and    %edx,%eax
   172d8:	0f be d0             	movsbl %al,%edx
   172db:	8b 85 04 ed ff ff    	mov    -0x12fc(%rbp),%eax
   172e1:	09 d0                	or     %edx,%eax
   172e3:	83 e0 fd             	and    $0xfffffffd,%eax
   172e6:	89 c2                	mov    %eax,%edx
   172e8:	48 8b 85 20 ee ff ff 	mov    -0x11e0(%rbp),%rax
   172ef:	89 10                	mov    %edx,(%rax)
   172f1:	8b 85 18 ee ff ff    	mov    -0x11e8(%rbp),%eax
   172f7:	41 89 c6             	mov    %eax,%r14d
   172fa:	0f b6 9d 1e ed ff ff 	movzbl -0x12e2(%rbp),%ebx
   17301:	48 8b 85 c0 ed ff ff 	mov    -0x1240(%rbp),%rax
   17308:	48 8b 00             	mov    (%rax),%rax
   1730b:	8b 00                	mov    (%rax),%eax
   1730d:	44 0f be e0          	movsbl %al,%r12d
   17311:	0f b7 05 8c 90 00 00 	movzwl 0x908c(%rip),%eax        # 203a4 <g_138>
   17318:	0f b6 d0             	movzbl %al,%edx
   1731b:	8b 05 1f 8e 00 00    	mov    0x8e1f(%rip),%eax        # 20140 <g_117+0xc0>
   17321:	0f b6 c0             	movzbl %al,%eax
   17324:	89 d6                	mov    %edx,%esi
   17326:	89 c7                	mov    %eax,%edi
   17328:	e8 2d 48 ff ff       	callq  bb5a <safe_add_func_uint8_t_u_u>
   1732d:	0f be c0             	movsbl %al,%eax
   17330:	44 89 e6             	mov    %r12d,%esi
   17333:	89 c7                	mov    %eax,%edi
   17335:	e8 b8 3e ff ff       	callq  b1f2 <safe_sub_func_int8_t_s_s>
   1733a:	84 c0                	test   %al,%al
   1733c:	0f 84 a1 00 00 00    	je     173e3 <func_63+0x2f2d>
   17342:	8b 85 18 ee ff ff    	mov    -0x11e8(%rbp),%eax
   17348:	48 63 d0             	movslq %eax,%rdx
   1734b:	48 8b 85 80 ee ff ff 	mov    -0x1180(%rbp),%rax
   17352:	48 89 10             	mov    %rdx,(%rax)
   17355:	48 8b 85 80 ee ff ff 	mov    -0x1180(%rbp),%rax
   1735c:	4c 8b 28             	mov    (%rax),%r13
   1735f:	8b 85 04 ed ff ff    	mov    -0x12fc(%rbp),%eax
   17365:	41 89 c7             	mov    %eax,%r15d
   17368:	c7 85 00 ed ff ff 21 	movl   $0xd3abd021,-0x1300(%rbp)
   1736f:	d0 ab d3 
   17372:	8b 05 28 90 00 00    	mov    0x9028(%rip),%eax        # 203a0 <g_131>
   17378:	44 0f bf e0          	movswl %ax,%r12d
   1737c:	0f b6 05 c9 8c 00 00 	movzbl 0x8cc9(%rip),%eax        # 2004c <g_47>
   17383:	66 98                	cbtw   
   17385:	0f b7 d0             	movzwl %ax,%edx
   17388:	8b 05 66 8d 00 00    	mov    0x8d66(%rip),%eax        # 200f4 <g_117+0x74>
   1738e:	0f b7 c0             	movzwl %ax,%eax
   17391:	89 d6                	mov    %edx,%esi
   17393:	89 c7                	mov    %eax,%edi
   17395:	e8 65 49 ff ff       	callq  bcff <safe_add_func_uint16_t_u_u>
   1739a:	98                   	cwtl   
   1739b:	44 89 e6             	mov    %r12d,%esi
   1739e:	89 c7                	mov    %eax,%edi
   173a0:	e8 2e 40 ff ff       	callq  b3d3 <safe_sub_func_int16_t_s_s>
   173a5:	98                   	cwtl   
   173a6:	39 85 00 ed ff ff    	cmp    %eax,-0x1300(%rbp)
   173ac:	0f 9f c0             	setg   %al
   173af:	89 c2                	mov    %eax,%edx
   173b1:	8b 85 04 ed ff ff    	mov    -0x12fc(%rbp),%eax
   173b7:	31 d0                	xor    %edx,%eax
   173b9:	0f b6 c0             	movzbl %al,%eax
   173bc:	44 89 fe             	mov    %r15d,%esi
   173bf:	89 c7                	mov    %eax,%edi
   173c1:	e8 86 48 ff ff       	callq  bc4c <safe_lshift_func_uint8_t_u_u>
   173c6:	0f b6 d0             	movzbl %al,%edx
   173c9:	8b 05 81 8c 00 00    	mov    0x8c81(%rip),%eax        # 20050 <g_105>
   173cf:	39 c2                	cmp    %eax,%edx
   173d1:	0f 94 c0             	sete   %al
   173d4:	0f b6 c0             	movzbl %al,%eax
   173d7:	49 39 c5             	cmp    %rax,%r13
   173da:	75 07                	jne    173e3 <func_63+0x2f2d>
   173dc:	b8 01 00 00 00       	mov    $0x1,%eax
   173e1:	eb 05                	jmp    173e8 <func_63+0x2f32>
   173e3:	b8 00 00 00 00       	mov    $0x0,%eax
   173e8:	0f b6 c0             	movzbl %al,%eax
   173eb:	89 c6                	mov    %eax,%esi
   173ed:	bf 70 00 00 00       	mov    $0x70,%edi
   173f2:	e8 81 47 ff ff       	callq  bb78 <safe_sub_func_uint8_t_u_u>
   173f7:	0f b6 c0             	movzbl %al,%eax
   173fa:	39 85 64 ed ff ff    	cmp    %eax,-0x129c(%rbp)
   17400:	0f 9e c0             	setle  %al
   17403:	0f b6 c0             	movzbl %al,%eax
   17406:	89 de                	mov    %ebx,%esi
   17408:	89 c7                	mov    %eax,%edi
   1740a:	e8 84 47 ff ff       	callq  bb93 <safe_mul_func_uint8_t_u_u>
   1740f:	0f b6 c0             	movzbl %al,%eax
   17412:	44 89 f6             	mov    %r14d,%esi
   17415:	89 c7                	mov    %eax,%edi
   17417:	e8 b4 4a ff ff       	callq  bed0 <safe_sub_func_uint32_t_u_u>
   1741c:	8b 85 60 f0 ff ff    	mov    -0xfa0(%rbp),%eax
   17422:	83 f8 09             	cmp    $0x9,%eax
   17425:	0f 97 c0             	seta   %al
   17428:	0f b6 d0             	movzbl %al,%edx
   1742b:	48 8b 85 c0 ed ff ff 	mov    -0x1240(%rbp),%rax
   17432:	48 8b 00             	mov    (%rax),%rax
   17435:	8b 00                	mov    (%rax),%eax
   17437:	89 d6                	mov    %edx,%esi
   17439:	89 c7                	mov    %eax,%edi
   1743b:	e8 c5 41 ff ff       	callq  b605 <safe_sub_func_int32_t_s_s>
   17440:	89 c2                	mov    %eax,%edx
   17442:	8b 85 74 f0 ff ff    	mov    -0xf8c(%rbp),%eax
   17448:	89 d6                	mov    %edx,%esi
   1744a:	89 c7                	mov    %eax,%edi
   1744c:	e8 7b 42 ff ff       	callq  b6cc <safe_mod_func_int32_t_s_s>
   17451:	89 c2                	mov    %eax,%edx
   17453:	0f b6 85 20 ed ff ff 	movzbl -0x12e0(%rbp),%eax
   1745a:	09 d0                	or     %edx,%eax
   1745c:	88 85 20 ed ff ff    	mov    %al,-0x12e0(%rbp)
   17462:	48 8b 85 c0 ed ff ff 	mov    -0x1240(%rbp),%rax
   17469:	48 8d 95 90 ef ff ff 	lea    -0x1070(%rbp),%rdx
   17470:	48 83 c2 0c          	add    $0xc,%rdx
   17474:	48 89 10             	mov    %rdx,(%rax)
   17477:	eb 2c                	jmp    174a5 <func_63+0x2fef>
   17479:	48 8b 85 f0 ed ff ff 	mov    -0x1210(%rbp),%rax
   17480:	48 85 c0             	test   %rax,%rax
   17483:	74 05                	je     1748a <func_63+0x2fd4>
   17485:	e9 34 fa ff ff       	jmpq   16ebe <func_63+0x2a08>
   1748a:	48 8b 85 c0 ed ff ff 	mov    -0x1240(%rbp),%rax
   17491:	48 8b 00             	mov    (%rax),%rax
   17494:	c7 00 00 00 00 00    	movl   $0x0,(%rax)
   1749a:	8b 85 78 ed ff ff    	mov    -0x1288(%rbp),%eax
   174a0:	e9 78 15 00 00       	jmpq   18a1d <func_63+0x4567>
   174a5:	0f b6 85 1f ed ff ff 	movzbl -0x12e1(%rbp),%eax
   174ac:	83 c0 01             	add    $0x1,%eax
   174af:	88 85 1f ed ff ff    	mov    %al,-0x12e1(%rbp)
   174b5:	e9 af 03 00 00       	jmpq   17869 <func_63+0x33b3>
   174ba:	48 8d 05 cf ab 00 00 	lea    0xabcf(%rip),%rax        # 22090 <g_89+0x30>
   174c1:	48 89 85 40 f8 ff ff 	mov    %rax,-0x7c0(%rbp)
   174c8:	48 8d 05 d1 ab 00 00 	lea    0xabd1(%rip),%rax        # 220a0 <g_89+0x40>
   174cf:	48 89 85 48 f8 ff ff 	mov    %rax,-0x7b8(%rbp)
   174d6:	48 8d 05 bb ab 00 00 	lea    0xabbb(%rip),%rax        # 22098 <g_89+0x38>
   174dd:	48 89 85 50 f8 ff ff 	mov    %rax,-0x7b0(%rbp)
   174e4:	48 8d 85 00 ee ff ff 	lea    -0x1200(%rbp),%rax
   174eb:	48 89 85 58 f8 ff ff 	mov    %rax,-0x7a8(%rbp)
   174f2:	48 8d 05 9f ab 00 00 	lea    0xab9f(%rip),%rax        # 22098 <g_89+0x38>
   174f9:	48 89 85 60 f8 ff ff 	mov    %rax,-0x7a0(%rbp)
   17500:	48 c7 85 68 f8 ff ff 	movq   $0x0,-0x798(%rbp)
   17507:	00 00 00 00 
   1750b:	48 c7 85 70 f8 ff ff 	movq   $0x0,-0x790(%rbp)
   17512:	00 00 00 00 
   17516:	48 c7 85 78 f8 ff ff 	movq   $0x0,-0x788(%rbp)
   1751d:	00 00 00 00 
   17521:	48 c7 85 80 f8 ff ff 	movq   $0x0,-0x780(%rbp)
   17528:	00 00 00 00 
   1752c:	48 c7 85 88 f8 ff ff 	movq   $0x0,-0x778(%rbp)
   17533:	00 00 00 00 
   17537:	48 8d 05 5a ab 00 00 	lea    0xab5a(%rip),%rax        # 22098 <g_89+0x38>
   1753e:	48 89 85 90 f8 ff ff 	mov    %rax,-0x770(%rbp)
   17545:	48 c7 85 98 f8 ff ff 	movq   $0x0,-0x768(%rbp)
   1754c:	00 00 00 00 
   17550:	48 c7 85 a0 f8 ff ff 	movq   $0x0,-0x760(%rbp)
   17557:	00 00 00 00 
   1755b:	48 8d 05 36 ab 00 00 	lea    0xab36(%rip),%rax        # 22098 <g_89+0x38>
   17562:	48 89 85 a8 f8 ff ff 	mov    %rax,-0x758(%rbp)
   17569:	48 8d 05 28 ab 00 00 	lea    0xab28(%rip),%rax        # 22098 <g_89+0x38>
   17570:	48 89 85 b0 f8 ff ff 	mov    %rax,-0x750(%rbp)
   17577:	48 c7 85 b8 f8 ff ff 	movq   $0x0,-0x748(%rbp)
   1757e:	00 00 00 00 
   17582:	48 8d 05 0f ab 00 00 	lea    0xab0f(%rip),%rax        # 22098 <g_89+0x38>
   17589:	48 89 85 c0 f8 ff ff 	mov    %rax,-0x740(%rbp)
   17590:	48 8d 05 d9 ab 00 00 	lea    0xabd9(%rip),%rax        # 22170 <g_89+0x110>
   17597:	48 89 85 c8 f8 ff ff 	mov    %rax,-0x738(%rbp)
   1759e:	48 8d 05 e3 aa 00 00 	lea    0xaae3(%rip),%rax        # 22088 <g_89+0x28>
   175a5:	48 89 85 d0 f8 ff ff 	mov    %rax,-0x730(%rbp)
   175ac:	48 c7 85 d8 f8 ff ff 	movq   $0x0,-0x728(%rbp)
   175b3:	00 00 00 00 
   175b7:	48 c7 85 e0 f8 ff ff 	movq   $0x0,-0x720(%rbp)
   175be:	00 00 00 00 
   175c2:	48 8d 05 cf aa 00 00 	lea    0xaacf(%rip),%rax        # 22098 <g_89+0x38>
   175c9:	48 89 85 e8 f8 ff ff 	mov    %rax,-0x718(%rbp)
   175d0:	48 8d 85 00 ee ff ff 	lea    -0x1200(%rbp),%rax
   175d7:	48 89 85 f0 f8 ff ff 	mov    %rax,-0x710(%rbp)
   175de:	48 8d 05 b3 aa 00 00 	lea    0xaab3(%rip),%rax        # 22098 <g_89+0x38>
   175e5:	48 89 85 f8 f8 ff ff 	mov    %rax,-0x708(%rbp)
   175ec:	48 c7 85 00 f9 ff ff 	movq   $0x0,-0x700(%rbp)
   175f3:	00 00 00 00 
   175f7:	48 c7 85 08 f9 ff ff 	movq   $0x0,-0x6f8(%rbp)
   175fe:	00 00 00 00 
   17602:	48 c7 85 10 f9 ff ff 	movq   $0x0,-0x6f0(%rbp)
   17609:	00 00 00 00 
   1760d:	48 c7 85 18 f9 ff ff 	movq   $0x0,-0x6e8(%rbp)
   17614:	00 00 00 00 
   17618:	48 c7 85 20 f9 ff ff 	movq   $0x0,-0x6e0(%rbp)
   1761f:	00 00 00 00 
   17623:	48 8d 05 66 aa 00 00 	lea    0xaa66(%rip),%rax        # 22090 <g_89+0x30>
   1762a:	48 89 85 28 f9 ff ff 	mov    %rax,-0x6d8(%rbp)
   17631:	48 8d 05 60 aa 00 00 	lea    0xaa60(%rip),%rax        # 22098 <g_89+0x38>
   17638:	48 89 85 30 f9 ff ff 	mov    %rax,-0x6d0(%rbp)
   1763f:	48 8d 05 52 aa 00 00 	lea    0xaa52(%rip),%rax        # 22098 <g_89+0x38>
   17646:	48 89 85 38 f9 ff ff 	mov    %rax,-0x6c8(%rbp)
   1764d:	48 8d 05 3c aa 00 00 	lea    0xaa3c(%rip),%rax        # 22090 <g_89+0x30>
   17654:	48 89 85 40 f9 ff ff 	mov    %rax,-0x6c0(%rbp)
   1765b:	48 c7 85 48 f9 ff ff 	movq   $0x0,-0x6b8(%rbp)
   17662:	00 00 00 00 
   17666:	48 8d 85 00 ee ff ff 	lea    -0x1200(%rbp),%rax
   1766d:	48 89 85 50 f9 ff ff 	mov    %rax,-0x6b0(%rbp)
   17674:	48 8d 05 15 aa 00 00 	lea    0xaa15(%rip),%rax        # 22090 <g_89+0x30>
   1767b:	48 89 85 58 f9 ff ff 	mov    %rax,-0x6a8(%rbp)
   17682:	48 8d 05 0f aa 00 00 	lea    0xaa0f(%rip),%rax        # 22098 <g_89+0x38>
   17689:	48 89 85 60 f9 ff ff 	mov    %rax,-0x6a0(%rbp)
   17690:	48 c7 85 68 f9 ff ff 	movq   $0x0,-0x698(%rbp)
   17697:	00 00 00 00 
   1769b:	48 8d 05 f6 a9 00 00 	lea    0xa9f6(%rip),%rax        # 22098 <g_89+0x38>
   176a2:	48 89 85 70 f9 ff ff 	mov    %rax,-0x690(%rbp)
   176a9:	48 c7 85 78 f9 ff ff 	movq   $0x0,-0x688(%rbp)
   176b0:	00 00 00 00 
   176b4:	48 c7 85 80 f9 ff ff 	movq   $0x0,-0x680(%rbp)
   176bb:	00 00 00 00 
   176bf:	48 8d 05 c2 a9 00 00 	lea    0xa9c2(%rip),%rax        # 22088 <g_89+0x28>
   176c6:	48 89 85 88 f9 ff ff 	mov    %rax,-0x678(%rbp)
   176cd:	48 8d 05 c4 a9 00 00 	lea    0xa9c4(%rip),%rax        # 22098 <g_89+0x38>
   176d4:	48 89 85 90 f9 ff ff 	mov    %rax,-0x670(%rbp)
   176db:	48 c7 85 98 f9 ff ff 	movq   $0x0,-0x668(%rbp)
   176e2:	00 00 00 00 
   176e6:	48 8d 85 00 ee ff ff 	lea    -0x1200(%rbp),%rax
   176ed:	48 89 85 a0 f9 ff ff 	mov    %rax,-0x660(%rbp)
   176f4:	48 c7 85 a8 f9 ff ff 	movq   $0x0,-0x658(%rbp)
   176fb:	00 00 00 00 
   176ff:	48 8d 85 00 ee ff ff 	lea    -0x1200(%rbp),%rax
   17706:	48 89 85 b0 f9 ff ff 	mov    %rax,-0x650(%rbp)
   1770d:	48 c7 85 b8 f9 ff ff 	movq   $0x0,-0x648(%rbp)
   17714:	00 00 00 00 
   17718:	48 8d 85 00 ee ff ff 	lea    -0x1200(%rbp),%rax
   1771f:	48 89 85 c0 f9 ff ff 	mov    %rax,-0x640(%rbp)
   17726:	48 8d 05 6b a9 00 00 	lea    0xa96b(%rip),%rax        # 22098 <g_89+0x38>
   1772d:	48 89 85 c8 f9 ff ff 	mov    %rax,-0x638(%rbp)
   17734:	48 8d 05 5d a9 00 00 	lea    0xa95d(%rip),%rax        # 22098 <g_89+0x38>
   1773b:	48 89 85 d0 f9 ff ff 	mov    %rax,-0x630(%rbp)
   17742:	48 c7 85 d8 f9 ff ff 	movq   $0x0,-0x628(%rbp)
   17749:	00 00 00 00 
   1774d:	48 8d 05 1c aa 00 00 	lea    0xaa1c(%rip),%rax        # 22170 <g_89+0x110>
   17754:	48 89 85 e0 f9 ff ff 	mov    %rax,-0x620(%rbp)
   1775b:	48 8d 05 36 a9 00 00 	lea    0xa936(%rip),%rax        # 22098 <g_89+0x38>
   17762:	48 89 85 e8 f9 ff ff 	mov    %rax,-0x618(%rbp)
   17769:	48 8d 05 28 a9 00 00 	lea    0xa928(%rip),%rax        # 22098 <g_89+0x38>
   17770:	48 89 85 f0 f9 ff ff 	mov    %rax,-0x610(%rbp)
   17777:	48 8d 85 00 ee ff ff 	lea    -0x1200(%rbp),%rax
   1777e:	48 89 85 f8 f9 ff ff 	mov    %rax,-0x608(%rbp)
   17785:	48 8d 85 40 f8 ff ff 	lea    -0x7c0(%rbp),%rax
   1778c:	48 83 c0 70          	add    $0x70,%rax
   17790:	48 89 85 00 f2 ff ff 	mov    %rax,-0xe00(%rbp)
   17797:	48 8d 85 40 f8 ff ff 	lea    -0x7c0(%rbp),%rax
   1779e:	48 05 28 01 00 00    	add    $0x128,%rax
   177a4:	48 89 85 08 f2 ff ff 	mov    %rax,-0xdf8(%rbp)
   177ab:	48 8d 85 40 f8 ff ff 	lea    -0x7c0(%rbp),%rax
   177b2:	48 05 f0 00 00 00    	add    $0xf0,%rax
   177b8:	48 89 85 10 f2 ff ff 	mov    %rax,-0xdf0(%rbp)
   177bf:	48 8d 85 40 f8 ff ff 	lea    -0x7c0(%rbp),%rax
   177c6:	48 05 f0 00 00 00    	add    $0xf0,%rax
   177cc:	48 89 85 18 f2 ff ff 	mov    %rax,-0xde8(%rbp)
   177d3:	48 8d 85 40 f8 ff ff 	lea    -0x7c0(%rbp),%rax
   177da:	48 05 f0 00 00 00    	add    $0xf0,%rax
   177e0:	48 89 85 20 f2 ff ff 	mov    %rax,-0xde0(%rbp)
   177e7:	48 8d 85 40 f8 ff ff 	lea    -0x7c0(%rbp),%rax
   177ee:	48 05 28 01 00 00    	add    $0x128,%rax
   177f4:	48 89 85 28 f2 ff ff 	mov    %rax,-0xdd8(%rbp)
   177fb:	48 8d 85 40 f8 ff ff 	lea    -0x7c0(%rbp),%rax
   17802:	48 83 c0 70          	add    $0x70,%rax
   17806:	48 89 85 30 f2 ff ff 	mov    %rax,-0xdd0(%rbp)
   1780d:	48 8d 85 40 f8 ff ff 	lea    -0x7c0(%rbp),%rax
   17814:	48 05 28 01 00 00    	add    $0x128,%rax
   1781a:	48 89 85 38 f2 ff ff 	mov    %rax,-0xdc8(%rbp)
   17821:	48 8d 85 40 f8 ff ff 	lea    -0x7c0(%rbp),%rax
   17828:	48 05 28 01 00 00    	add    $0x128,%rax
   1782e:	48 89 85 40 f2 ff ff 	mov    %rax,-0xdc0(%rbp)
   17835:	48 8d 85 40 f8 ff ff 	lea    -0x7c0(%rbp),%rax
   1783c:	48 05 28 01 00 00    	add    $0x128,%rax
   17842:	48 89 85 48 f2 ff ff 	mov    %rax,-0xdb8(%rbp)
   17849:	48 8b 95 10 f2 ff ff 	mov    -0xdf0(%rbp),%rdx
   17850:	48 8d 85 08 ed ff ff 	lea    -0x12f8(%rbp),%rax
   17857:	48 39 c2             	cmp    %rax,%rdx
   1785a:	0f 95 c0             	setne  %al
   1785d:	0f b6 d0             	movzbl %al,%edx
   17860:	48 8b 85 20 ee ff ff 	mov    -0x11e0(%rbp),%rax
   17867:	89 10                	mov    %edx,(%rax)
   17869:	48 8b 85 20 ee ff ff 	mov    -0x11e0(%rbp),%rax
   17870:	8b 00                	mov    (%rax),%eax
   17872:	0f b7 d8             	movzwl %ax,%ebx
   17875:	48 8b 85 08 ed ff ff 	mov    -0x12f8(%rbp),%rax
   1787c:	48 8b 00             	mov    (%rax),%rax
   1787f:	0f b6 00             	movzbl (%rax),%eax
   17882:	44 0f b6 e0          	movzbl %al,%r12d
   17886:	48 8b 05 53 aa 00 00 	mov    0xaa53(%rip),%rax        # 222e0 <g_255>
   1788d:	48 8b 10             	mov    (%rax),%rdx
   17890:	48 83 c2 01          	add    $0x1,%rdx
   17894:	48 89 10             	mov    %rdx,(%rax)
   17897:	48 8b 00             	mov    (%rax),%rax
   1789a:	41 89 c7             	mov    %eax,%r15d
   1789d:	48 8b 85 b8 ed ff ff 	mov    -0x1248(%rbp),%rax
   178a4:	8b 00                	mov    (%rax),%eax
   178a6:	89 c2                	mov    %eax,%edx
   178a8:	48 8b 85 50 ee ff ff 	mov    -0x11b0(%rbp),%rax
   178af:	88 10                	mov    %dl,(%rax)
   178b1:	48 8b 85 50 ee ff ff 	mov    -0x11b0(%rbp),%rax
   178b8:	0f b6 00             	movzbl (%rax),%eax
   178bb:	44 0f b6 f0          	movzbl %al,%r14d
   178bf:	44 8b ad 3c ed ff ff 	mov    -0x12c4(%rbp),%r13d
   178c6:	b8 21 d0 ab d3       	mov    $0xd3abd021,%eax
   178cb:	85 c0                	test   %eax,%eax
   178cd:	75 72                	jne    17941 <func_63+0x348b>
   178cf:	48 8b 85 08 ed ff ff 	mov    -0x12f8(%rbp),%rax
   178d6:	48 8b 00             	mov    (%rax),%rax
   178d9:	0f b6 00             	movzbl (%rax),%eax
   178dc:	84 c0                	test   %al,%al
   178de:	75 10                	jne    178f0 <func_63+0x343a>
   178e0:	48 8b 85 c0 ed ff ff 	mov    -0x1240(%rbp),%rax
   178e7:	48 8b 00             	mov    (%rax),%rax
   178ea:	8b 00                	mov    (%rax),%eax
   178ec:	85 c0                	test   %eax,%eax
   178ee:	74 07                	je     178f7 <func_63+0x3441>
   178f0:	b8 01 00 00 00       	mov    $0x1,%eax
   178f5:	eb 05                	jmp    178fc <func_63+0x3446>
   178f7:	b8 00 00 00 00       	mov    $0x0,%eax
   178fc:	0f b7 d0             	movzwl %ax,%edx
   178ff:	48 8d 85 90 ef ff ff 	lea    -0x1070(%rbp),%rax
   17906:	48 83 c0 0c          	add    $0xc,%rax
   1790a:	48 89 85 40 ee ff ff 	mov    %rax,-0x11c0(%rbp)
   17911:	48 8b 85 c0 ed ff ff 	mov    -0x1240(%rbp),%rax
   17918:	48 8b 00             	mov    (%rax),%rax
   1791b:	48 39 85 40 ee ff ff 	cmp    %rax,-0x11c0(%rbp)
   17922:	0f 94 c0             	sete   %al
   17925:	0f b6 c0             	movzbl %al,%eax
   17928:	89 d6                	mov    %edx,%esi
   1792a:	89 c7                	mov    %eax,%edi
   1792c:	e8 5d 44 ff ff       	callq  bd8e <safe_div_func_uint16_t_u_u>
   17931:	48 8b 85 40 ee ff ff 	mov    -0x11c0(%rbp),%rax
   17938:	8b 00                	mov    (%rax),%eax
   1793a:	3d 39 cc 00 00       	cmp    $0xcc39,%eax
   1793f:	7f 07                	jg     17948 <func_63+0x3492>
   17941:	b8 01 00 00 00       	mov    $0x1,%eax
   17946:	eb 05                	jmp    1794d <func_63+0x3497>
   17948:	b8 00 00 00 00       	mov    $0x0,%eax
   1794d:	0f b7 c0             	movzwl %ax,%eax
   17950:	89 c6                	mov    %eax,%esi
   17952:	bf fe ff 00 00       	mov    $0xfffe,%edi
   17957:	e8 32 44 ff ff       	callq  bd8e <safe_div_func_uint16_t_u_u>
   1795c:	44 89 ee             	mov    %r13d,%esi
   1795f:	bf 00 00 00 00       	mov    $0x0,%edi
   17964:	e8 9c 3c ff ff       	callq  b605 <safe_sub_func_int32_t_s_s>
   17969:	41 39 c6             	cmp    %eax,%r14d
   1796c:	0f 9f c0             	setg   %al
   1796f:	0f b6 c0             	movzbl %al,%eax
   17972:	be 0b 00 00 00       	mov    $0xb,%esi
   17977:	89 c7                	mov    %eax,%edi
   17979:	e8 ec 38 ff ff       	callq  b26a <safe_div_func_int8_t_s_s>
   1797e:	66 98                	cbtw   
   17980:	44 21 f8             	and    %r15d,%eax
   17983:	0f b7 c0             	movzwl %ax,%eax
   17986:	8b 95 68 ed ff ff    	mov    -0x1298(%rbp),%edx
   1798c:	89 d6                	mov    %edx,%esi
   1798e:	89 c7                	mov    %eax,%edi
   17990:	e8 29 44 ff ff       	callq  bdbe <safe_lshift_func_uint16_t_u_s>
   17995:	0f b6 c0             	movzbl %al,%eax
   17998:	44 89 e6             	mov    %r12d,%esi
   1799b:	89 c7                	mov    %eax,%edi
   1799d:	e8 d6 41 ff ff       	callq  bb78 <safe_sub_func_uint8_t_u_u>
   179a2:	89 de                	mov    %ebx,%esi
   179a4:	bf 96 b6 00 00       	mov    $0xb696,%edi
   179a9:	e8 8f 43 ff ff       	callq  bd3d <safe_mul_func_uint16_t_u_u>
   179ae:	0f b7 c0             	movzwl %ax,%eax
   179b1:	ba 21 d0 ab d3       	mov    $0xd3abd021,%edx
   179b6:	39 d0                	cmp    %edx,%eax
   179b8:	0f 95 c2             	setne  %dl
   179bb:	48 8b 85 c0 ed ff ff 	mov    -0x1240(%rbp),%rax
   179c2:	48 8b 00             	mov    (%rax),%rax
   179c5:	0f b6 d2             	movzbl %dl,%edx
   179c8:	89 10                	mov    %edx,(%rax)
   179ca:	c7 05 7c 86 00 00 00 	movl   $0x0,0x867c(%rip)        # 20050 <g_105>
   179d1:	00 00 00 
   179d4:	eb 3a                	jmp    17a10 <func_63+0x355a>
   179d6:	8b 0d 74 86 00 00    	mov    0x8674(%rip),%ecx        # 20050 <g_105>
   179dc:	48 8b 85 c0 ed ff ff 	mov    -0x1240(%rbp),%rax
   179e3:	48 8d 95 b0 ef ff ff 	lea    -0x1050(%rbp),%rdx
   179ea:	48 63 c9             	movslq %ecx,%rcx
   179ed:	48 c1 e1 02          	shl    $0x2,%rcx
   179f1:	48 01 ca             	add    %rcx,%rdx
   179f4:	48 89 10             	mov    %rdx,(%rax)
   179f7:	8b 85 04 ed ff ff    	mov    -0x12fc(%rbp),%eax
   179fd:	85 c0                	test   %eax,%eax
   179ff:	75 1c                	jne    17a1d <func_63+0x3567>
   17a01:	8b 05 49 86 00 00    	mov    0x8649(%rip),%eax        # 20050 <g_105>
   17a07:	83 c0 01             	add    $0x1,%eax
   17a0a:	89 05 40 86 00 00    	mov    %eax,0x8640(%rip)        # 20050 <g_105>
   17a10:	8b 05 3a 86 00 00    	mov    0x863a(%rip),%eax        # 20050 <g_105>
   17a16:	83 f8 06             	cmp    $0x6,%eax
   17a19:	7e bb                	jle    179d6 <func_63+0x3520>
   17a1b:	eb 01                	jmp    17a1e <func_63+0x3568>
   17a1d:	90                   	nop
   17a1e:	c7 85 44 ed ff ff 0b 	movl   $0xb,-0x12bc(%rbp)
   17a25:	00 00 00 
   17a28:	e9 0b 07 00 00       	jmpq   18138 <func_63+0x3c82>
   17a2d:	48 8d 05 75 89 00 00 	lea    0x8975(%rip),%rax        # 203a9 <g_146+0x3>
   17a34:	48 89 85 d8 ee ff ff 	mov    %rax,-0x1128(%rbp)
   17a3b:	c7 85 ac ed ff ff 5c 	movl   $0x7c90e5c,-0x1254(%rbp)
   17a42:	0e c9 07 
   17a45:	48 8d 85 1b ed ff ff 	lea    -0x12e5(%rbp),%rax
   17a4c:	48 89 85 10 ee ff ff 	mov    %rax,-0x11f0(%rbp)
   17a53:	48 8d 05 00 86 00 00 	lea    0x8600(%rip),%rax        # 2005a <g_116+0x2>
   17a5a:	48 89 85 10 f0 ff ff 	mov    %rax,-0xff0(%rbp)
   17a61:	48 8d 05 f2 85 00 00 	lea    0x85f2(%rip),%rax        # 2005a <g_116+0x2>
   17a68:	48 89 85 18 f0 ff ff 	mov    %rax,-0xfe8(%rbp)
   17a6f:	48 8d 05 e4 85 00 00 	lea    0x85e4(%rip),%rax        # 2005a <g_116+0x2>
   17a76:	48 89 85 20 f0 ff ff 	mov    %rax,-0xfe0(%rbp)
   17a7d:	48 8d 05 d6 85 00 00 	lea    0x85d6(%rip),%rax        # 2005a <g_116+0x2>
   17a84:	48 89 85 28 f0 ff ff 	mov    %rax,-0xfd8(%rbp)
   17a8b:	48 8d 05 c8 85 00 00 	lea    0x85c8(%rip),%rax        # 2005a <g_116+0x2>
   17a92:	48 89 85 30 f0 ff ff 	mov    %rax,-0xfd0(%rbp)
   17a99:	48 8d 05 ba 85 00 00 	lea    0x85ba(%rip),%rax        # 2005a <g_116+0x2>
   17aa0:	48 89 85 38 f0 ff ff 	mov    %rax,-0xfc8(%rbp)
   17aa7:	48 8d 05 ac 85 00 00 	lea    0x85ac(%rip),%rax        # 2005a <g_116+0x2>
   17aae:	48 89 85 40 f0 ff ff 	mov    %rax,-0xfc0(%rbp)
   17ab5:	48 8d 05 9e 85 00 00 	lea    0x859e(%rip),%rax        # 2005a <g_116+0x2>
   17abc:	48 89 85 48 f0 ff ff 	mov    %rax,-0xfb8(%rbp)
   17ac3:	48 8d 05 90 85 00 00 	lea    0x8590(%rip),%rax        # 2005a <g_116+0x2>
   17aca:	48 89 85 50 f0 ff ff 	mov    %rax,-0xfb0(%rbp)
   17ad1:	48 8d 85 10 ee ff ff 	lea    -0x11f0(%rbp),%rax
   17ad8:	48 89 85 e0 ee ff ff 	mov    %rax,-0x1120(%rbp)
   17adf:	48 8d 85 1b ed ff ff 	lea    -0x12e5(%rbp),%rax
   17ae6:	48 89 85 e8 ee ff ff 	mov    %rax,-0x1118(%rbp)
   17aed:	48 c7 85 f0 ee ff ff 	movq   $0x1,-0x1110(%rbp)
   17af4:	01 00 00 00 
   17af8:	48 8d 85 b0 ef ff ff 	lea    -0x1050(%rbp),%rax
   17aff:	48 83 c0 18          	add    $0x18,%rax
   17b03:	48 89 85 f8 ee ff ff 	mov    %rax,-0x1108(%rbp)
   17b0a:	8b 85 04 ed ff ff    	mov    -0x12fc(%rbp),%eax
   17b10:	0f be d0             	movsbl %al,%edx
   17b13:	48 8b 85 d8 ee ff ff 	mov    -0x1128(%rbp),%rax
   17b1a:	c6 00 9c             	movb   $0x9c,(%rax)
   17b1d:	b8 01 00 00 00       	mov    $0x1,%eax
   17b22:	0f be c0             	movsbl %al,%eax
   17b25:	89 d6                	mov    %edx,%esi
   17b27:	89 c7                	mov    %eax,%edi
   17b29:	e8 3c 37 ff ff       	callq  b26a <safe_div_func_int8_t_s_s>
   17b2e:	84 c0                	test   %al,%al
   17b30:	0f 84 9c 00 00 00    	je     17bd2 <func_63+0x371c>
   17b36:	48 c7 85 08 ef ff ff 	movq   $0x0,-0x10f8(%rbp)
   17b3d:	00 00 00 00 
   17b41:	48 c7 85 18 ee ff ff 	movq   $0x0,-0x11e8(%rbp)
   17b48:	00 00 00 00 
   17b4c:	48 8d 85 18 ee ff ff 	lea    -0x11e8(%rbp),%rax
   17b53:	48 89 85 10 ef ff ff 	mov    %rax,-0x10f0(%rbp)
   17b5a:	8b 85 04 ed ff ff    	mov    -0x12fc(%rbp),%eax
   17b60:	85 c0                	test   %eax,%eax
   17b62:	0f 85 dd 05 00 00    	jne    18145 <func_63+0x3c8f>
   17b68:	48 8b 05 71 a7 00 00 	mov    0xa771(%rip),%rax        # 222e0 <g_255>
   17b6f:	48 8b 00             	mov    (%rax),%rax
   17b72:	48 85 c0             	test   %rax,%rax
   17b75:	75 37                	jne    17bae <func_63+0x36f8>
   17b77:	48 8b 85 10 ef ff ff 	mov    -0x10f0(%rbp),%rax
   17b7e:	48 c7 00 00 00 00 00 	movq   $0x0,(%rax)
   17b85:	48 8b 85 10 ef ff ff 	mov    -0x10f0(%rbp),%rax
   17b8c:	48 8b 10             	mov    (%rax),%rdx
   17b8f:	48 8b 85 20 f0 ff ff 	mov    -0xfe0(%rbp),%rax
   17b96:	48 39 c2             	cmp    %rax,%rdx
   17b99:	0f 95 c0             	setne  %al
   17b9c:	0f b6 c0             	movzbl %al,%eax
   17b9f:	be 00 00 00 00       	mov    $0x0,%esi
   17ba4:	89 c7                	mov    %eax,%edi
   17ba6:	e8 b8 39 ff ff       	callq  b563 <safe_rshift_func_int16_t_s_u>
   17bab:	66 85 c0             	test   %ax,%ax
   17bae:	8b 05 b4 cf 00 00    	mov    0xcfb4(%rip),%eax        # 24b68 <g_32>
   17bb4:	f7 d0                	not    %eax
   17bb6:	c1 e8 1f             	shr    $0x1f,%eax
   17bb9:	0f b6 d0             	movzbl %al,%edx
   17bbc:	48 8b 85 20 ee ff ff 	mov    -0x11e0(%rbp),%rax
   17bc3:	8b 00                	mov    (%rax),%eax
   17bc5:	31 c2                	xor    %eax,%edx
   17bc7:	48 8b 85 20 ee ff ff 	mov    -0x11e0(%rbp),%rax
   17bce:	89 10                	mov    %edx,(%rax)
   17bd0:	eb 45                	jmp    17c17 <func_63+0x3761>
   17bd2:	48 8d 05 e7 a6 00 00 	lea    0xa6e7(%rip),%rax        # 222c0 <g_154>
   17bd9:	48 89 85 00 ef ff ff 	mov    %rax,-0x1100(%rbp)
   17be0:	48 8b 95 e8 ed ff ff 	mov    -0x1218(%rbp),%rdx
   17be7:	48 8b 85 00 ef ff ff 	mov    -0x1100(%rbp),%rax
   17bee:	48 89 10             	mov    %rdx,(%rax)
   17bf1:	48 8b 85 00 ef ff ff 	mov    -0x1100(%rbp),%rax
   17bf8:	48 8b 00             	mov    (%rax),%rax
   17bfb:	48 85 c0             	test   %rax,%rax
   17bfe:	0f 94 c0             	sete   %al
   17c01:	0f b6 c0             	movzbl %al,%eax
   17c04:	be 03 00 00 00       	mov    $0x3,%esi
   17c09:	89 c7                	mov    %eax,%edi
   17c0b:	e8 82 38 ff ff       	callq  b492 <safe_lshift_func_int16_t_s_s>
   17c10:	98                   	cwtl   
   17c11:	89 85 04 ed ff ff    	mov    %eax,-0x12fc(%rbp)
   17c17:	be 0a 00 00 00       	mov    $0xa,%esi
   17c1c:	bf 01 00 00 00       	mov    $0x1,%edi
   17c21:	e8 e0 41 ff ff       	callq  be06 <safe_lshift_func_uint16_t_u_u>
   17c26:	89 c2                	mov    %eax,%edx
   17c28:	48 8b 05 b1 a6 00 00 	mov    0xa6b1(%rip),%rax        # 222e0 <g_255>
   17c2f:	0f b7 d2             	movzwl %dx,%edx
   17c32:	48 89 10             	mov    %rdx,(%rax)
   17c35:	48 8b 10             	mov    (%rax),%rdx
   17c38:	8b 05 62 87 00 00    	mov    0x8762(%rip),%eax        # 203a0 <g_131>
   17c3e:	89 c1                	mov    %eax,%ecx
   17c40:	8b 85 04 ed ff ff    	mov    -0x12fc(%rbp),%eax
   17c46:	0f b6 c0             	movzbl %al,%eax
   17c49:	89 ce                	mov    %ecx,%esi
   17c4b:	89 c7                	mov    %eax,%edi
   17c4d:	e8 59 13 00 00       	callq  18fab <func_69>
   17c52:	48 8b 95 e0 ee ff ff 	mov    -0x1120(%rbp),%rdx
   17c59:	48 89 02             	mov    %rax,(%rdx)
   17c5c:	48 8b 85 e0 ee ff ff 	mov    -0x1120(%rbp),%rax
   17c63:	48 8b 00             	mov    (%rax),%rax
   17c66:	48 89 85 e8 ee ff ff 	mov    %rax,-0x1118(%rbp)
   17c6d:	0f b6 05 35 87 00 00 	movzbl 0x8735(%rip),%eax        # 203a9 <g_146+0x3>
   17c74:	0f b6 d8             	movzbl %al,%ebx
   17c77:	0f b6 05 28 87 00 00 	movzbl 0x8728(%rip),%eax        # 203a6 <g_146>
   17c7e:	0f b6 c0             	movzbl %al,%eax
   17c81:	48 39 85 f0 ee ff ff 	cmp    %rax,-0x1110(%rbp)
   17c88:	0f 9f c0             	setg   %al
   17c8b:	0f b6 c0             	movzbl %al,%eax
   17c8e:	ba 21 d0 ab d3       	mov    $0xd3abd021,%edx
   17c93:	21 c2                	and    %eax,%edx
   17c95:	8b 85 04 ed ff ff    	mov    -0x12fc(%rbp),%eax
   17c9b:	39 c2                	cmp    %eax,%edx
   17c9d:	0f 9c c0             	setl   %al
   17ca0:	0f b6 c0             	movzbl %al,%eax
   17ca3:	48 be 06 d3 81 34 62 	movabs $0x585a9f623481d306,%rsi
   17caa:	9f 5a 58 
   17cad:	48 89 c7             	mov    %rax,%rdi
   17cb0:	e8 42 3d ff ff       	callq  b9f7 <safe_div_func_int64_t_s_s>
   17cb5:	0f b7 c0             	movzwl %ax,%eax
   17cb8:	89 de                	mov    %ebx,%esi
   17cba:	89 c7                	mov    %eax,%edi
   17cbc:	e8 b9 41 ff ff       	callq  be7a <safe_rshift_func_uint16_t_u_u>
   17cc1:	48 8b 85 20 ee ff ff 	mov    -0x11e0(%rbp),%rax
   17cc8:	8b 00                	mov    (%rax),%eax
   17cca:	83 f8 01             	cmp    $0x1,%eax
   17ccd:	75 0a                	jne    17cd9 <func_63+0x3823>
   17ccf:	8b 05 7f 83 00 00    	mov    0x837f(%rip),%eax        # 20054 <g_115>
   17cd5:	85 c0                	test   %eax,%eax
   17cd7:	74 07                	je     17ce0 <func_63+0x382a>
   17cd9:	83 bd ac ed ff ff 00 	cmpl   $0x0,-0x1254(%rbp)
   17ce0:	ba 80 fb ab 10       	mov    $0x10abfb80,%edx
   17ce5:	48 8b 85 f8 ee ff ff 	mov    -0x1108(%rbp),%rax
   17cec:	8b 00                	mov    (%rax),%eax
   17cee:	21 c2                	and    %eax,%edx
   17cf0:	48 8b 85 f8 ee ff ff 	mov    -0x1108(%rbp),%rax
   17cf7:	89 10                	mov    %edx,(%rax)
   17cf9:	c7 85 34 ed ff ff f9 	movl   $0xfffffff9,-0x12cc(%rbp)
   17d00:	ff ff ff 
   17d03:	e9 1a 04 00 00       	jmpq   18122 <func_63+0x3c6c>
   17d08:	48 8d 05 95 86 00 00 	lea    0x8695(%rip),%rax        # 203a4 <g_138>
   17d0f:	48 89 85 b0 f0 ff ff 	mov    %rax,-0xf50(%rbp)
   17d16:	48 8d 85 24 ed ff ff 	lea    -0x12dc(%rbp),%rax
   17d1d:	48 89 85 b8 f0 ff ff 	mov    %rax,-0xf48(%rbp)
   17d24:	48 8d 85 24 ed ff ff 	lea    -0x12dc(%rbp),%rax
   17d2b:	48 89 85 c0 f0 ff ff 	mov    %rax,-0xf40(%rbp)
   17d32:	48 8d 05 6b 86 00 00 	lea    0x866b(%rip),%rax        # 203a4 <g_138>
   17d39:	48 89 85 c8 f0 ff ff 	mov    %rax,-0xf38(%rbp)
   17d40:	48 8d 05 5d 86 00 00 	lea    0x865d(%rip),%rax        # 203a4 <g_138>
   17d47:	48 89 85 d0 f0 ff ff 	mov    %rax,-0xf30(%rbp)
   17d4e:	48 8d 05 05 83 00 00 	lea    0x8305(%rip),%rax        # 2005a <g_116+0x2>
   17d55:	48 89 85 d8 f0 ff ff 	mov    %rax,-0xf28(%rbp)
   17d5c:	48 8d 05 41 86 00 00 	lea    0x8641(%rip),%rax        # 203a4 <g_138>
   17d63:	48 89 85 e0 f0 ff ff 	mov    %rax,-0xf20(%rbp)
   17d6a:	48 8d 05 33 86 00 00 	lea    0x8633(%rip),%rax        # 203a4 <g_138>
   17d71:	48 89 85 e8 f0 ff ff 	mov    %rax,-0xf18(%rbp)
   17d78:	48 8d 85 24 ed ff ff 	lea    -0x12dc(%rbp),%rax
   17d7f:	48 89 85 f0 f0 ff ff 	mov    %rax,-0xf10(%rbp)
   17d86:	48 8d 05 17 86 00 00 	lea    0x8617(%rip),%rax        # 203a4 <g_138>
   17d8d:	48 89 85 f8 f0 ff ff 	mov    %rax,-0xf08(%rbp)
   17d94:	48 8d 05 09 86 00 00 	lea    0x8609(%rip),%rax        # 203a4 <g_138>
   17d9b:	48 89 85 00 f1 ff ff 	mov    %rax,-0xf00(%rbp)
   17da2:	48 8d 05 b1 82 00 00 	lea    0x82b1(%rip),%rax        # 2005a <g_116+0x2>
   17da9:	48 89 85 08 f1 ff ff 	mov    %rax,-0xef8(%rbp)
   17db0:	48 8d 05 a3 82 00 00 	lea    0x82a3(%rip),%rax        # 2005a <g_116+0x2>
   17db7:	48 89 85 10 f1 ff ff 	mov    %rax,-0xef0(%rbp)
   17dbe:	48 8d 05 95 82 00 00 	lea    0x8295(%rip),%rax        # 2005a <g_116+0x2>
   17dc5:	48 89 85 18 f1 ff ff 	mov    %rax,-0xee8(%rbp)
   17dcc:	48 8d 05 87 82 00 00 	lea    0x8287(%rip),%rax        # 2005a <g_116+0x2>
   17dd3:	48 89 85 20 f1 ff ff 	mov    %rax,-0xee0(%rbp)
   17dda:	48 8d 05 79 82 00 00 	lea    0x8279(%rip),%rax        # 2005a <g_116+0x2>
   17de1:	48 89 85 28 f1 ff ff 	mov    %rax,-0xed8(%rbp)
   17de8:	48 8d 05 b5 85 00 00 	lea    0x85b5(%rip),%rax        # 203a4 <g_138>
   17def:	48 89 85 30 f1 ff ff 	mov    %rax,-0xed0(%rbp)
   17df6:	48 8d 05 a7 85 00 00 	lea    0x85a7(%rip),%rax        # 203a4 <g_138>
   17dfd:	48 89 85 38 f1 ff ff 	mov    %rax,-0xec8(%rbp)
   17e04:	48 8d 85 00 f2 ff ff 	lea    -0xe00(%rbp),%rax
   17e0b:	48 8d 15 0e a1 00 00 	lea    0xa10e(%rip),%rdx        # 21f20 <g_2871+0x16d8>
   17e12:	b9 28 00 00 00       	mov    $0x28,%ecx
   17e17:	48 89 c7             	mov    %rax,%rdi
   17e1a:	48 89 d6             	mov    %rdx,%rsi
   17e1d:	f3 48 a5             	rep movsq %ds:(%rsi),%es:(%rdi)
   17e20:	48 8d 05 a1 a4 00 00 	lea    0xa4a1(%rip),%rax        # 222c8 <g_154+0x8>
   17e27:	48 89 85 40 f8 ff ff 	mov    %rax,-0x7c0(%rbp)
   17e2e:	48 c7 85 48 f8 ff ff 	movq   $0x0,-0x7b8(%rbp)
   17e35:	00 00 00 00 
   17e39:	48 8d 85 e8 ed ff ff 	lea    -0x1218(%rbp),%rax
   17e40:	48 89 85 50 f8 ff ff 	mov    %rax,-0x7b0(%rbp)
   17e47:	48 8d 05 7a a4 00 00 	lea    0xa47a(%rip),%rax        # 222c8 <g_154+0x8>
   17e4e:	48 89 85 58 f8 ff ff 	mov    %rax,-0x7a8(%rbp)
   17e55:	48 8d 85 e8 ed ff ff 	lea    -0x1218(%rbp),%rax
   17e5c:	48 89 85 60 f8 ff ff 	mov    %rax,-0x7a0(%rbp)
   17e63:	48 8d 05 5e a4 00 00 	lea    0xa45e(%rip),%rax        # 222c8 <g_154+0x8>
   17e6a:	48 89 85 68 f8 ff ff 	mov    %rax,-0x798(%rbp)
   17e71:	48 8d 05 50 a4 00 00 	lea    0xa450(%rip),%rax        # 222c8 <g_154+0x8>
   17e78:	48 89 85 70 f8 ff ff 	mov    %rax,-0x790(%rbp)
   17e7f:	48 8d 85 c0 ed ff ff 	lea    -0x1240(%rbp),%rax
   17e86:	48 89 85 78 f8 ff ff 	mov    %rax,-0x788(%rbp)
   17e8d:	48 8d 05 34 a4 00 00 	lea    0xa434(%rip),%rax        # 222c8 <g_154+0x8>
   17e94:	48 89 85 80 f8 ff ff 	mov    %rax,-0x780(%rbp)
   17e9b:	48 8d 85 c0 ed ff ff 	lea    -0x1240(%rbp),%rax
   17ea2:	48 89 85 88 f8 ff ff 	mov    %rax,-0x778(%rbp)
   17ea9:	48 c7 85 90 f8 ff ff 	movq   $0x0,-0x770(%rbp)
   17eb0:	00 00 00 00 
   17eb4:	48 8d 05 0d a4 00 00 	lea    0xa40d(%rip),%rax        # 222c8 <g_154+0x8>
   17ebb:	48 89 85 98 f8 ff ff 	mov    %rax,-0x768(%rbp)
   17ec2:	48 8d 85 e8 ed ff ff 	lea    -0x1218(%rbp),%rax
   17ec9:	48 89 85 a0 f8 ff ff 	mov    %rax,-0x760(%rbp)
   17ed0:	48 8d 05 01 a4 00 00 	lea    0xa401(%rip),%rax        # 222d8 <g_154+0x18>
   17ed7:	48 89 85 a8 f8 ff ff 	mov    %rax,-0x758(%rbp)
   17ede:	48 8d 85 c0 ed ff ff 	lea    -0x1240(%rbp),%rax
   17ee5:	48 89 85 b0 f8 ff ff 	mov    %rax,-0x750(%rbp)
   17eec:	48 8d 05 d5 a3 00 00 	lea    0xa3d5(%rip),%rax        # 222c8 <g_154+0x8>
   17ef3:	48 89 85 b8 f8 ff ff 	mov    %rax,-0x748(%rbp)
   17efa:	48 c7 85 c0 f8 ff ff 	movq   $0x0,-0x740(%rbp)
   17f01:	00 00 00 00 
   17f05:	48 8d 85 e8 ed ff ff 	lea    -0x1218(%rbp),%rax
   17f0c:	48 89 85 c8 f8 ff ff 	mov    %rax,-0x738(%rbp)
   17f13:	48 8d 05 ae a3 00 00 	lea    0xa3ae(%rip),%rax        # 222c8 <g_154+0x8>
   17f1a:	48 89 85 d0 f8 ff ff 	mov    %rax,-0x730(%rbp)
   17f21:	48 8d 85 e8 ed ff ff 	lea    -0x1218(%rbp),%rax
   17f28:	48 89 85 d8 f8 ff ff 	mov    %rax,-0x728(%rbp)
   17f2f:	48 8d 05 92 a3 00 00 	lea    0xa392(%rip),%rax        # 222c8 <g_154+0x8>
   17f36:	48 89 85 e0 f8 ff ff 	mov    %rax,-0x720(%rbp)
   17f3d:	48 8d 05 84 a3 00 00 	lea    0xa384(%rip),%rax        # 222c8 <g_154+0x8>
   17f44:	48 89 85 e8 f8 ff ff 	mov    %rax,-0x718(%rbp)
   17f4b:	48 8d 85 c0 ed ff ff 	lea    -0x1240(%rbp),%rax
   17f52:	48 89 85 f0 f8 ff ff 	mov    %rax,-0x710(%rbp)
   17f59:	48 8d 05 68 a3 00 00 	lea    0xa368(%rip),%rax        # 222c8 <g_154+0x8>
   17f60:	48 89 85 f8 f8 ff ff 	mov    %rax,-0x708(%rbp)
   17f67:	48 8d 85 c0 ed ff ff 	lea    -0x1240(%rbp),%rax
   17f6e:	48 89 85 00 f9 ff ff 	mov    %rax,-0x700(%rbp)
   17f75:	48 c7 85 08 f9 ff ff 	movq   $0x0,-0x6f8(%rbp)
   17f7c:	00 00 00 00 
   17f80:	48 8d 05 41 a3 00 00 	lea    0xa341(%rip),%rax        # 222c8 <g_154+0x8>
   17f87:	48 89 85 10 f9 ff ff 	mov    %rax,-0x6f0(%rbp)
   17f8e:	48 8d 85 e8 ed ff ff 	lea    -0x1218(%rbp),%rax
   17f95:	48 89 85 18 f9 ff ff 	mov    %rax,-0x6e8(%rbp)
   17f9c:	48 8d 05 35 a3 00 00 	lea    0xa335(%rip),%rax        # 222d8 <g_154+0x18>
   17fa3:	48 89 85 20 f9 ff ff 	mov    %rax,-0x6e0(%rbp)
   17faa:	48 8d 85 c0 ed ff ff 	lea    -0x1240(%rbp),%rax
   17fb1:	48 89 85 28 f9 ff ff 	mov    %rax,-0x6d8(%rbp)
   17fb8:	48 8d 05 09 a3 00 00 	lea    0xa309(%rip),%rax        # 222c8 <g_154+0x8>
   17fbf:	48 89 85 30 f9 ff ff 	mov    %rax,-0x6d0(%rbp)
   17fc6:	48 c7 85 38 f9 ff ff 	movq   $0x0,-0x6c8(%rbp)
   17fcd:	00 00 00 00 
   17fd1:	48 8d 85 e8 ed ff ff 	lea    -0x1218(%rbp),%rax
   17fd8:	48 89 85 40 f9 ff ff 	mov    %rax,-0x6c0(%rbp)
   17fdf:	48 8d 05 e2 a2 00 00 	lea    0xa2e2(%rip),%rax        # 222c8 <g_154+0x8>
   17fe6:	48 89 85 48 f9 ff ff 	mov    %rax,-0x6b8(%rbp)
   17fed:	48 8d 85 e8 ed ff ff 	lea    -0x1218(%rbp),%rax
   17ff4:	48 89 85 50 f9 ff ff 	mov    %rax,-0x6b0(%rbp)
   17ffb:	48 8d 05 c6 a2 00 00 	lea    0xa2c6(%rip),%rax        # 222c8 <g_154+0x8>
   18002:	48 89 85 58 f9 ff ff 	mov    %rax,-0x6a8(%rbp)
   18009:	48 8d 05 b8 a2 00 00 	lea    0xa2b8(%rip),%rax        # 222c8 <g_154+0x8>
   18010:	48 89 85 60 f9 ff ff 	mov    %rax,-0x6a0(%rbp)
   18017:	48 8d 85 c0 ed ff ff 	lea    -0x1240(%rbp),%rax
   1801e:	48 89 85 68 f9 ff ff 	mov    %rax,-0x698(%rbp)
   18025:	48 8d 05 9c a2 00 00 	lea    0xa29c(%rip),%rax        # 222c8 <g_154+0x8>
   1802c:	48 89 85 70 f9 ff ff 	mov    %rax,-0x690(%rbp)
   18033:	48 8d 85 c0 ed ff ff 	lea    -0x1240(%rbp),%rax
   1803a:	48 89 85 78 f9 ff ff 	mov    %rax,-0x688(%rbp)
   18041:	48 c7 85 80 f9 ff ff 	movq   $0x0,-0x680(%rbp)
   18048:	00 00 00 00 
   1804c:	48 8d 05 75 a2 00 00 	lea    0xa275(%rip),%rax        # 222c8 <g_154+0x8>
   18053:	48 89 85 88 f9 ff ff 	mov    %rax,-0x678(%rbp)
   1805a:	48 8d 85 e8 ed ff ff 	lea    -0x1218(%rbp),%rax
   18061:	48 89 85 90 f9 ff ff 	mov    %rax,-0x670(%rbp)
   18068:	48 8d 05 69 a2 00 00 	lea    0xa269(%rip),%rax        # 222d8 <g_154+0x18>
   1806f:	48 89 85 98 f9 ff ff 	mov    %rax,-0x668(%rbp)
   18076:	48 8d 85 c0 ed ff ff 	lea    -0x1240(%rbp),%rax
   1807d:	48 89 85 a0 f9 ff ff 	mov    %rax,-0x660(%rbp)
   18084:	48 8d 05 c1 7f 00 00 	lea    0x7fc1(%rip),%rax        # 2004c <g_47>
   1808b:	48 89 85 60 f0 ff ff 	mov    %rax,-0xfa0(%rbp)
   18092:	48 8d 05 b3 7f 00 00 	lea    0x7fb3(%rip),%rax        # 2004c <g_47>
   18099:	48 89 85 68 f0 ff ff 	mov    %rax,-0xf98(%rbp)
   180a0:	48 8d 05 a5 7f 00 00 	lea    0x7fa5(%rip),%rax        # 2004c <g_47>
   180a7:	48 89 85 70 f0 ff ff 	mov    %rax,-0xf90(%rbp)
   180ae:	48 8d 05 97 7f 00 00 	lea    0x7f97(%rip),%rax        # 2004c <g_47>
   180b5:	48 89 85 78 f0 ff ff 	mov    %rax,-0xf88(%rbp)
   180bc:	48 8d 05 89 7f 00 00 	lea    0x7f89(%rip),%rax        # 2004c <g_47>
   180c3:	48 89 85 80 f0 ff ff 	mov    %rax,-0xf80(%rbp)
   180ca:	48 8d 05 7b 7f 00 00 	lea    0x7f7b(%rip),%rax        # 2004c <g_47>
   180d1:	48 89 85 88 f0 ff ff 	mov    %rax,-0xf78(%rbp)
   180d8:	48 8d 05 6d 7f 00 00 	lea    0x7f6d(%rip),%rax        # 2004c <g_47>
   180df:	48 89 85 90 f0 ff ff 	mov    %rax,-0xf70(%rbp)
   180e6:	48 8d 05 5f 7f 00 00 	lea    0x7f5f(%rip),%rax        # 2004c <g_47>
   180ed:	48 89 85 98 f0 ff ff 	mov    %rax,-0xf68(%rbp)
   180f4:	48 8d 05 51 7f 00 00 	lea    0x7f51(%rip),%rax        # 2004c <g_47>
   180fb:	48 89 85 a0 f0 ff ff 	mov    %rax,-0xf60(%rbp)
   18102:	48 8b 85 c0 ed ff ff 	mov    -0x1240(%rbp),%rax
   18109:	48 8d 95 04 ed ff ff 	lea    -0x12fc(%rbp),%rdx
   18110:	48 89 10             	mov    %rdx,(%rax)
   18113:	8b 85 34 ed ff ff    	mov    -0x12cc(%rbp),%eax
   18119:	83 c0 01             	add    $0x1,%eax
   1811c:	89 85 34 ed ff ff    	mov    %eax,-0x12cc(%rbp)
   18122:	8b 85 34 ed ff ff    	mov    -0x12cc(%rbp),%eax
   18128:	83 f8 13             	cmp    $0x13,%eax
   1812b:	0f 8f d7 fb ff ff    	jg     17d08 <func_63+0x3852>
   18131:	83 ad 44 ed ff ff 01 	subl   $0x1,-0x12bc(%rbp)
   18138:	83 bd 44 ed ff ff f8 	cmpl   $0xfffffff8,-0x12bc(%rbp)
   1813f:	0f 8c e8 f8 ff ff    	jl     17a2d <func_63+0x3577>
   18145:	c7 05 91 82 00 00 00 	movl   $0x0,0x8291(%rip)        # 203e0 <g_433+0x20>
   1814c:	00 00 00 
   1814f:	eb 28                	jmp    18179 <func_63+0x3cc3>
   18151:	0f b6 95 1c ed ff ff 	movzbl -0x12e4(%rbp),%edx
   18158:	48 8b 85 20 ee ff ff 	mov    -0x11e0(%rbp),%rax
   1815f:	89 10                	mov    %edx,(%rax)
   18161:	8b 05 79 82 00 00    	mov    0x8279(%rip),%eax        # 203e0 <g_433+0x20>
   18167:	be 08 00 00 00       	mov    $0x8,%esi
   1816c:	89 c7                	mov    %eax,%edi
   1816e:	e8 45 3d ff ff       	callq  beb8 <safe_add_func_uint32_t_u_u>
   18173:	89 05 67 82 00 00    	mov    %eax,0x8267(%rip)        # 203e0 <g_433+0x20>
   18179:	8b 05 61 82 00 00    	mov    0x8261(%rip),%eax        # 203e0 <g_433+0x20>
   1817f:	83 f8 35             	cmp    $0x35,%eax
   18182:	77 cd                	ja     18151 <func_63+0x3c9b>
   18184:	eb 0b                	jmp    18191 <func_63+0x3cdb>
   18186:	8b 85 04 ed ff ff    	mov    -0x12fc(%rbp),%eax
   1818c:	e9 8c 08 00 00       	jmpq   18a1d <func_63+0x4567>
   18191:	66 c7 85 22 ed ff ff 	movw   $0x0,-0x12de(%rbp)
   18198:	00 00 
   1819a:	e9 55 08 00 00       	jmpq   189f4 <func_63+0x453e>
   1819f:	c7 45 c3 96 96 96 96 	movl   $0x96969696,-0x3d(%rbp)
   181a6:	c6 45 c7 96          	movb   $0x96,-0x39(%rbp)
   181aa:	48 8d 05 f8 81 00 00 	lea    0x81f8(%rip),%rax        # 203a9 <g_146+0x3>
   181b1:	48 89 85 18 ef ff ff 	mov    %rax,-0x10e8(%rbp)
   181b8:	48 8d 05 41 82 00 00 	lea    0x8241(%rip),%rax        # 20400 <g_478>
   181bf:	48 89 85 20 ef ff ff 	mov    %rax,-0x10e0(%rbp)
   181c6:	c7 85 58 ed ff ff 00 	movl   $0x0,-0x12a8(%rbp)
   181cd:	00 00 00 
   181d0:	0f b6 55 c3          	movzbl -0x3d(%rbp),%edx
   181d4:	48 8b 05 c5 a0 00 00 	mov    0xa0c5(%rip),%rax        # 222a0 <g_155>
   181db:	0f be d2             	movsbl %dl,%edx
   181de:	89 10                	mov    %edx,(%rax)
   181e0:	0f b6 05 c2 81 00 00 	movzbl 0x81c2(%rip),%eax        # 203a9 <g_146+0x3>
   181e7:	0f b6 c0             	movzbl %al,%eax
   181ea:	be 0f 00 00 00       	mov    $0xf,%esi
   181ef:	89 c7                	mov    %eax,%edi
   181f1:	e8 10 3c ff ff       	callq  be06 <safe_lshift_func_uint16_t_u_u>
   181f6:	0f b7 d8             	movzwl %ax,%ebx
   181f9:	8b 85 04 ed ff ff    	mov    -0x12fc(%rbp),%eax
   181ff:	98                   	cwtl   
   18200:	be 0a 00 00 00       	mov    $0xa,%esi
   18205:	89 c7                	mov    %eax,%edi
   18207:	e8 86 32 ff ff       	callq  b492 <safe_lshift_func_int16_t_s_s>
   1820c:	89 c2                	mov    %eax,%edx
   1820e:	48 8b 05 cb a0 00 00 	mov    0xa0cb(%rip),%rax        # 222e0 <g_255>
   18215:	48 0f bf d2          	movswq %dx,%rdx
   18219:	48 89 10             	mov    %rdx,(%rax)
   1821c:	48 8b 00             	mov    (%rax),%rax
   1821f:	48 ba f4 f2 4d 0c e4 	movabs $0x5ed9fbe40c4df2f4,%rdx
   18226:	fb d9 5e 
   18229:	48 39 d0             	cmp    %rdx,%rax
   1822c:	0f 96 c0             	setbe  %al
   1822f:	0f b6 c0             	movzbl %al,%eax
   18232:	39 c3                	cmp    %eax,%ebx
   18234:	0f 94 c0             	sete   %al
   18237:	44 0f b6 e8          	movzbl %al,%r13d
   1823b:	48 8b 85 08 ed ff ff 	mov    -0x12f8(%rbp),%rax
   18242:	48 8b 00             	mov    (%rax),%rax
   18245:	0f b6 00             	movzbl (%rax),%eax
   18248:	0f b6 d8             	movzbl %al,%ebx
   1824b:	8b 85 04 ed ff ff    	mov    -0x12fc(%rbp),%eax
   18251:	41 89 c6             	mov    %eax,%r14d
   18254:	48 8b 05 45 a0 00 00 	mov    0xa045(%rip),%rax        # 222a0 <g_155>
   1825b:	8b 00                	mov    (%rax),%eax
   1825d:	be fd 61 ee a4       	mov    $0xa4ee61fd,%esi
   18262:	89 c7                	mov    %eax,%edi
   18264:	e8 63 34 ff ff       	callq  b6cc <safe_mod_func_int32_t_s_s>
   18269:	41 89 c4             	mov    %eax,%r12d
   1826c:	48 8b 05 2d a0 00 00 	mov    0xa02d(%rip),%rax        # 222a0 <g_155>
   18273:	8b 10                	mov    (%rax),%edx
   18275:	48 8b 85 20 ee ff ff 	mov    -0x11e0(%rbp),%rax
   1827c:	89 10                	mov    %edx,(%rax)
   1827e:	48 8b 85 20 ee ff ff 	mov    -0x11e0(%rbp),%rax
   18285:	8b 10                	mov    (%rax),%edx
   18287:	8b 85 04 ed ff ff    	mov    -0x12fc(%rbp),%eax
   1828d:	31 d0                	xor    %edx,%eax
   1828f:	83 f8 01             	cmp    $0x1,%eax
   18292:	0f 95 c0             	setne  %al
   18295:	0f b6 d0             	movzbl %al,%edx
   18298:	8b 05 56 7e 00 00    	mov    0x7e56(%rip),%eax        # 200f4 <g_117+0x74>
   1829e:	39 c2                	cmp    %eax,%edx
   182a0:	0f 94 c0             	sete   %al
   182a3:	0f b6 c0             	movzbl %al,%eax
   182a6:	be 5b 47 63 cd       	mov    $0xcd63475b,%esi
   182ab:	89 c7                	mov    %eax,%edi
   182ad:	e8 53 33 ff ff       	callq  b605 <safe_sub_func_int32_t_s_s>
   182b2:	44 09 e0             	or     %r12d,%eax
   182b5:	85 c0                	test   %eax,%eax
   182b7:	74 14                	je     182cd <func_63+0x3e17>
   182b9:	48 8b 85 20 ee ff ff 	mov    -0x11e0(%rbp),%rax
   182c0:	8b 00                	mov    (%rax),%eax
   182c2:	85 c0                	test   %eax,%eax
   182c4:	74 07                	je     182cd <func_63+0x3e17>
   182c6:	b8 01 00 00 00       	mov    $0x1,%eax
   182cb:	eb 05                	jmp    182d2 <func_63+0x3e1c>
   182cd:	b8 00 00 00 00       	mov    $0x0,%eax
   182d2:	0f be c0             	movsbl %al,%eax
   182d5:	be fd ff ff ff       	mov    $0xfffffffd,%esi
   182da:	89 c7                	mov    %eax,%edi
   182dc:	e8 89 2f ff ff       	callq  b26a <safe_div_func_int8_t_s_s>
   182e1:	66 0f be d0          	movsbw %al,%dx
   182e5:	0f b7 05 b8 80 00 00 	movzwl 0x80b8(%rip),%eax        # 203a4 <g_138>
   182ec:	66 39 c2             	cmp    %ax,%dx
   182ef:	0f 9e c0             	setle  %al
   182f2:	0f b6 c0             	movzbl %al,%eax
   182f5:	44 89 f6             	mov    %r14d,%esi
   182f8:	89 c7                	mov    %eax,%edi
   182fa:	e8 64 32 ff ff       	callq  b563 <safe_rshift_func_int16_t_s_u>
   182ff:	0f b6 c0             	movzbl %al,%eax
   18302:	89 de                	mov    %ebx,%esi
   18304:	89 c7                	mov    %eax,%edi
   18306:	e8 88 38 ff ff       	callq  bb93 <safe_mul_func_uint8_t_u_u>
   1830b:	0f b6 c0             	movzbl %al,%eax
   1830e:	41 39 c5             	cmp    %eax,%r13d
   18311:	0f 9d c0             	setge  %al
   18314:	89 c2                	mov    %eax,%edx
   18316:	0f b6 45 c3          	movzbl -0x3d(%rbp),%eax
   1831a:	09 d0                	or     %edx,%eax
   1831c:	89 c2                	mov    %eax,%edx
   1831e:	48 8b 85 18 ef ff ff 	mov    -0x10e8(%rbp),%rax
   18325:	88 10                	mov    %dl,(%rax)
   18327:	8b 85 04 ed ff ff    	mov    -0x12fc(%rbp),%eax
   1832d:	85 c0                	test   %eax,%eax
   1832f:	0f 84 0f 06 00 00    	je     18944 <func_63+0x448e>
   18335:	48 8d 05 e0 7d 00 00 	lea    0x7de0(%rip),%rax        # 2011c <g_117+0x9c>
   1833c:	48 89 85 28 ef ff ff 	mov    %rax,-0x10d8(%rbp)
   18343:	48 c7 85 10 ee ff ff 	movq   $0x0,-0x11f0(%rbp)
   1834a:	00 00 00 00 
   1834e:	48 8d 85 24 ed ff ff 	lea    -0x12dc(%rbp),%rax
   18355:	48 89 85 18 ee ff ff 	mov    %rax,-0x11e8(%rbp)
   1835c:	66 c7 85 2a ed ff ff 	movw   $0x2aea,-0x12d6(%rbp)
   18363:	ea 2a 
   18365:	48 8d 05 14 c8 00 00 	lea    0xc814(%rip),%rax        # 24b80 <g_475>
   1836c:	48 89 85 30 ef ff ff 	mov    %rax,-0x10d0(%rbp)
   18373:	48 8d 05 c6 80 00 00 	lea    0x80c6(%rip),%rax        # 20440 <g_480>
   1837a:	48 89 85 38 ef ff ff 	mov    %rax,-0x10c8(%rbp)
   18381:	48 8d 05 e8 c7 00 00 	lea    0xc7e8(%rip),%rax        # 24b70 <g_256>
   18388:	48 89 85 40 ef ff ff 	mov    %rax,-0x10c0(%rbp)
   1838f:	0f b6 45 c5          	movzbl -0x3b(%rbp),%eax
   18393:	0f be d0             	movsbl %al,%edx
   18396:	48 8b 85 28 ef ff ff 	mov    -0x10d8(%rbp),%rax
   1839d:	c7 00 00 00 00 00    	movl   $0x0,(%rax)
   183a3:	48 8b 85 28 ef ff ff 	mov    -0x10d8(%rbp),%rax
   183aa:	8b 00                	mov    (%rax),%eax
   183ac:	39 c2                	cmp    %eax,%edx
   183ae:	0f 97 c0             	seta   %al
   183b1:	0f b6 c0             	movzbl %al,%eax
   183b4:	be 0a 00 00 00       	mov    $0xa,%esi
   183b9:	89 c7                	mov    %eax,%edi
   183bb:	e8 88 3a ff ff       	callq  be48 <safe_rshift_func_uint16_t_u_s>
   183c0:	89 c3                	mov    %eax,%ebx
   183c2:	48 8b 05 17 9f 00 00 	mov    0x9f17(%rip),%rax        # 222e0 <g_255>
   183c9:	48 c7 00 01 00 00 00 	movq   $0x1,(%rax)
   183d0:	44 0f b7 a5 2a ed ff 	movzwl -0x12d6(%rbp),%r12d
   183d7:	ff 
   183d8:	0f b7 05 81 7c 00 00 	movzwl 0x7c81(%rip),%eax        # 20060 <g_116+0x8>
   183df:	83 c8 01             	or     $0x1,%eax
   183e2:	66 89 05 77 7c 00 00 	mov    %ax,0x7c77(%rip)        # 20060 <g_116+0x8>
   183e9:	0f b7 05 70 7c 00 00 	movzwl 0x7c70(%rip),%eax        # 20060 <g_116+0x8>
   183f0:	0f b7 d0             	movzwl %ax,%edx
   183f3:	8b 05 df 7f 00 00    	mov    0x7fdf(%rip),%eax        # 203d8 <g_433+0x18>
   183f9:	0f b7 c0             	movzwl %ax,%eax
   183fc:	89 d6                	mov    %edx,%esi
   183fe:	89 c7                	mov    %eax,%edi
   18400:	e8 89 39 ff ff       	callq  bd8e <safe_div_func_uint16_t_u_u>
   18405:	48 8b 05 94 9e 00 00 	mov    0x9e94(%rip),%rax        # 222a0 <g_155>
   1840c:	8b 00                	mov    (%rax),%eax
   1840e:	85 c0                	test   %eax,%eax
   18410:	74 07                	je     18419 <func_63+0x3f63>
   18412:	b8 01 00 00 00       	mov    $0x1,%eax
   18417:	eb 05                	jmp    1841e <func_63+0x3f68>
   18419:	b8 00 00 00 00       	mov    $0x0,%eax
   1841e:	44 09 e0             	or     %r12d,%eax
   18421:	89 c1                	mov    %eax,%ecx
   18423:	48 8b 85 18 ee ff ff 	mov    -0x11e8(%rbp),%rax
   1842a:	0f b7 10             	movzwl (%rax),%edx
   1842d:	89 de                	mov    %ebx,%esi
   1842f:	48 8b 85 18 ee ff ff 	mov    -0x11e8(%rbp),%rax
   18436:	21 f2                	and    %esi,%edx
   18438:	66 89 10             	mov    %dx,(%rax)
   1843b:	0f b7 10             	movzwl (%rax),%edx
   1843e:	48 8b 85 30 ef ff ff 	mov    -0x10d0(%rbp),%rax
   18445:	0f b6 00             	movzbl (%rax),%eax
   18448:	09 c1                	or     %eax,%ecx
   1844a:	48 8b 85 30 ef ff ff 	mov    -0x10d0(%rbp),%rax
   18451:	88 08                	mov    %cl,(%rax)
   18453:	48 8b 85 30 ef ff ff 	mov    -0x10d0(%rbp),%rax
   1845a:	0f b6 00             	movzbl (%rax),%eax
   1845d:	83 c8 01             	or     $0x1,%eax
   18460:	66 98                	cbtw   
   18462:	66 39 c2             	cmp    %ax,%dx
   18465:	0f 84 dd 00 00 00    	je     18548 <func_63+0x4092>
   1846b:	66 c7 85 2e ed ff ff 	movw   $0x0,-0x12d2(%rbp)
   18472:	00 00 
   18474:	48 8d 05 ed 7f 00 00 	lea    0x7fed(%rip),%rax        # 20468 <g_482>
   1847b:	48 89 85 40 f8 ff ff 	mov    %rax,-0x7c0(%rbp)
   18482:	48 8d 05 df 7f 00 00 	lea    0x7fdf(%rip),%rax        # 20468 <g_482>
   18489:	48 89 85 48 f8 ff ff 	mov    %rax,-0x7b8(%rbp)
   18490:	48 8d 05 d1 7f 00 00 	lea    0x7fd1(%rip),%rax        # 20468 <g_482>
   18497:	48 89 85 50 f8 ff ff 	mov    %rax,-0x7b0(%rbp)
   1849e:	48 8d 05 c3 7f 00 00 	lea    0x7fc3(%rip),%rax        # 20468 <g_482>
   184a5:	48 89 85 58 f8 ff ff 	mov    %rax,-0x7a8(%rbp)
   184ac:	48 8d 05 b5 7f 00 00 	lea    0x7fb5(%rip),%rax        # 20468 <g_482>
   184b3:	48 89 85 60 f8 ff ff 	mov    %rax,-0x7a0(%rbp)
   184ba:	48 8d 05 a7 7f 00 00 	lea    0x7fa7(%rip),%rax        # 20468 <g_482>
   184c1:	48 89 85 68 f8 ff ff 	mov    %rax,-0x798(%rbp)
   184c8:	66 83 bd 2e ed ff ff 	cmpw   $0x0,-0x12d2(%rbp)
   184cf:	00 
   184d0:	0f 85 32 05 00 00    	jne    18a08 <func_63+0x4552>
   184d6:	8b 85 04 ed ff ff    	mov    -0x12fc(%rbp),%eax
   184dc:	85 c0                	test   %eax,%eax
   184de:	0f 85 f3 04 00 00    	jne    189d7 <func_63+0x4521>
   184e4:	48 8b 85 20 ef ff ff 	mov    -0x10e0(%rbp),%rax
   184eb:	48 3b 85 38 ef ff ff 	cmp    -0x10c8(%rbp),%rax
   184f2:	0f 94 c0             	sete   %al
   184f5:	0f b6 c0             	movzbl %al,%eax
   184f8:	89 85 58 ed ff ff    	mov    %eax,-0x12a8(%rbp)
   184fe:	48 8b 05 9b 9d 00 00 	mov    0x9d9b(%rip),%rax        # 222a0 <g_155>
   18505:	8b 10                	mov    (%rax),%edx
   18507:	48 8b 85 20 ee ff ff 	mov    -0x11e0(%rbp),%rax
   1850e:	8b 00                	mov    (%rax),%eax
   18510:	21 c2                	and    %eax,%edx
   18512:	48 8b 85 20 ee ff ff 	mov    -0x11e0(%rbp),%rax
   18519:	89 10                	mov    %edx,(%rax)
   1851b:	48 8b 05 7e 9d 00 00 	mov    0x9d7e(%rip),%rax        # 222a0 <g_155>
   18522:	8b 08                	mov    (%rax),%ecx
   18524:	48 8b 85 40 ef ff ff 	mov    -0x10c0(%rbp),%rax
   1852b:	48 3b 85 30 ee ff ff 	cmp    -0x11d0(%rbp),%rax
   18532:	0f 95 c0             	setne  %al
   18535:	0f b6 d0             	movzbl %al,%edx
   18538:	48 8b 05 61 9d 00 00 	mov    0x9d61(%rip),%rax        # 222a0 <g_155>
   1853f:	09 ca                	or     %ecx,%edx
   18541:	89 10                	mov    %edx,(%rax)
   18543:	e9 6d 02 00 00       	jmpq   187b5 <func_63+0x42ff>
   18548:	c7 85 b0 ed ff ff 95 	movl   $0x276ea95,-0x1250(%rbp)
   1854f:	ea 76 02 
   18552:	48 b8 cd 56 b8 49 51 	movabs $0x5150255149b856cd,%rax
   18559:	25 50 51 
   1855c:	48 89 85 48 ef ff ff 	mov    %rax,-0x10b8(%rbp)
   18563:	48 8d 05 96 9d 00 00 	lea    0x9d96(%rip),%rax        # 22300 <g_496>
   1856a:	48 89 85 50 ef ff ff 	mov    %rax,-0x10b0(%rbp)
   18571:	c7 85 58 ed ff ff 02 	movl   $0x2,-0x12a8(%rbp)
   18578:	00 00 00 
   1857b:	e9 d3 01 00 00       	jmpq   18753 <func_63+0x429d>
   18580:	66 c7 85 2c ed ff ff 	movw   $0x1,-0x12d4(%rbp)
   18587:	01 00 
   18589:	48 8d 85 18 ee ff ff 	lea    -0x11e8(%rbp),%rax
   18590:	48 89 85 58 ef ff ff 	mov    %rax,-0x10a8(%rbp)
   18597:	48 8d 85 10 ee ff ff 	lea    -0x11f0(%rbp),%rax
   1859e:	48 89 85 60 ef ff ff 	mov    %rax,-0x10a0(%rbp)
   185a5:	48 c7 85 68 ef ff ff 	movq   $0x0,-0x1098(%rbp)
   185ac:	00 00 00 00 
   185b0:	48 8d 05 e1 9a 00 00 	lea    0x9ae1(%rip),%rax        # 22098 <g_89+0x38>
   185b7:	48 89 85 70 ef ff ff 	mov    %rax,-0x1090(%rbp)
   185be:	48 8b 85 c0 ed ff ff 	mov    -0x1240(%rbp),%rax
   185c5:	48 8d 95 30 ed ff ff 	lea    -0x12d0(%rbp),%rdx
   185cc:	48 89 10             	mov    %rdx,(%rax)
   185cf:	48 8b 05 ca 9c 00 00 	mov    0x9cca(%rip),%rax        # 222a0 <g_155>
   185d6:	c7 00 00 00 00 00    	movl   $0x0,(%rax)
   185dc:	8b 85 04 ed ff ff    	mov    -0x12fc(%rbp),%eax
   185e2:	85 c0                	test   %eax,%eax
   185e4:	0f 85 78 01 00 00    	jne    18762 <func_63+0x42ac>
   185ea:	48 8b 85 20 ee ff ff 	mov    -0x11e0(%rbp),%rax
   185f1:	8b 00                	mov    (%rax),%eax
   185f3:	48 63 d8             	movslq %eax,%rbx
   185f6:	48 8b 85 58 ef ff ff 	mov    -0x10a8(%rbp),%rax
   185fd:	48 8d 15 a0 7d 00 00 	lea    0x7da0(%rip),%rdx        # 203a4 <g_138>
   18604:	48 89 10             	mov    %rdx,(%rax)
   18607:	48 8b 85 58 ef ff ff 	mov    -0x10a8(%rbp),%rax
   1860e:	48 8b 10             	mov    (%rax),%rdx
   18611:	48 8b 85 60 ef ff ff 	mov    -0x10a0(%rbp),%rax
   18618:	48 89 10             	mov    %rdx,(%rax)
   1861b:	48 8b 85 60 ef ff ff 	mov    -0x10a0(%rbp),%rax
   18622:	48 8b 00             	mov    (%rax),%rax
   18625:	48 89 05 d4 9c 00 00 	mov    %rax,0x9cd4(%rip)        # 22300 <g_496>
   1862c:	48 8b 85 48 ef ff ff 	mov    -0x10b8(%rbp),%rax
   18633:	44 0f bf e0          	movswl %ax,%r12d
   18637:	48 8b 85 08 ed ff ff 	mov    -0x12f8(%rbp),%rax
   1863e:	48 8b 00             	mov    (%rax),%rax
   18641:	0f b6 00             	movzbl (%rax),%eax
   18644:	0f b6 d0             	movzbl %al,%edx
   18647:	8b 85 04 ed ff ff    	mov    -0x12fc(%rbp),%eax
   1864d:	48 63 c8             	movslq %eax,%rcx
   18650:	48 8b 05 19 c5 00 00 	mov    0xc519(%rip),%rax        # 24b70 <g_256>
   18657:	48 09 c8             	or     %rcx,%rax
   1865a:	48 3d ef 00 00 00    	cmp    $0xef,%rax
   18660:	0f 97 c0             	seta   %al
   18663:	0f b6 c0             	movzbl %al,%eax
   18666:	89 d6                	mov    %edx,%esi
   18668:	89 c7                	mov    %eax,%edi
   1866a:	e8 6c 35 ff ff       	callq  bbdb <safe_div_func_uint8_t_u_u>
   1866f:	0f b6 c0             	movzbl %al,%eax
   18672:	39 85 b0 ed ff ff    	cmp    %eax,-0x1250(%rbp)
   18678:	0f 94 c0             	sete   %al
   1867b:	0f b6 c0             	movzbl %al,%eax
   1867e:	be 02 00 00 00       	mov    $0x2,%esi
   18683:	89 c7                	mov    %eax,%edi
   18685:	e8 68 2b ff ff       	callq  b1f2 <safe_sub_func_int8_t_s_s>
   1868a:	0f be c0             	movsbl %al,%eax
   1868d:	f7 d0                	not    %eax
   1868f:	89 c2                	mov    %eax,%edx
   18691:	8b 85 b0 ed ff ff    	mov    -0x1250(%rbp),%eax
   18697:	83 c8 1e             	or     $0x1e,%eax
   1869a:	0f be c0             	movsbl %al,%eax
   1869d:	89 d6                	mov    %edx,%esi
   1869f:	89 c7                	mov    %eax,%edi
   186a1:	e8 48 2c ff ff       	callq  b2ee <safe_lshift_func_int8_t_s_u>
   186a6:	0f be c0             	movsbl %al,%eax
   186a9:	be d3 ff ff ff       	mov    $0xffffffd3,%esi
   186ae:	89 c7                	mov    %eax,%edi
   186b0:	e8 b5 2b ff ff       	callq  b26a <safe_div_func_int8_t_s_s>
   186b5:	84 c0                	test   %al,%al
   186b7:	74 08                	je     186c1 <func_63+0x420b>
   186b9:	8b 05 89 7d 00 00    	mov    0x7d89(%rip),%eax        # 20448 <g_480+0x8>
   186bf:	85 c0                	test   %eax,%eax
   186c1:	48 83 bd 70 ef ff ff 	cmpq   $0x0,-0x1090(%rbp)
   186c8:	00 
   186c9:	48 8b 05 30 9c 00 00 	mov    0x9c30(%rip),%rax        # 22300 <g_496>
   186d0:	0f b7 00             	movzwl (%rax),%eax
   186d3:	98                   	cwtl   
   186d4:	44 89 e6             	mov    %r12d,%esi
   186d7:	89 c7                	mov    %eax,%edi
   186d9:	e8 17 2d ff ff       	callq  b3f5 <safe_mul_func_int16_t_s_s>
   186de:	8b 85 04 ed ff ff    	mov    -0x12fc(%rbp),%eax
   186e4:	48 98                	cltq   
   186e6:	48 89 de             	mov    %rbx,%rsi
   186e9:	48 89 c7             	mov    %rax,%rdi
   186ec:	e8 50 31 ff ff       	callq  b841 <safe_add_func_int64_t_s_s>
   186f1:	48 89 c2             	mov    %rax,%rdx
   186f4:	48 0f bf 85 2c ed ff 	movswq -0x12d4(%rbp),%rax
   186fb:	ff 
   186fc:	48 8b 1d dd 9b 00 00 	mov    0x9bdd(%rip),%rbx        # 222e0 <g_255>
   18703:	48 89 d6             	mov    %rdx,%rsi
   18706:	48 89 c7             	mov    %rax,%rdi
   18709:	e8 72 39 ff ff       	callq  c080 <safe_mod_func_uint64_t_u_u>
   1870e:	48 89 03             	mov    %rax,(%rbx)
   18711:	48 8b 13             	mov    (%rbx),%rdx
   18714:	8b 85 04 ed ff ff    	mov    -0x12fc(%rbp),%eax
   1871a:	48 98                	cltq   
   1871c:	48 39 c2             	cmp    %rax,%rdx
   1871f:	0f 96 c0             	setbe  %al
   18722:	0f b6 c8             	movzbl %al,%ecx
   18725:	48 8b 05 74 9b 00 00 	mov    0x9b74(%rip),%rax        # 222a0 <g_155>
   1872c:	8b 10                	mov    (%rax),%edx
   1872e:	48 8b 05 6b 9b 00 00 	mov    0x9b6b(%rip),%rax        # 222a0 <g_155>
   18735:	21 ca                	and    %ecx,%edx
   18737:	89 10                	mov    %edx,(%rax)
   18739:	8b 85 58 ed ff ff    	mov    -0x12a8(%rbp),%eax
   1873f:	98                   	cwtl   
   18740:	be 03 00 00 00       	mov    $0x3,%esi
   18745:	89 c7                	mov    %eax,%edi
   18747:	e8 87 2c ff ff       	callq  b3d3 <safe_sub_func_int16_t_s_s>
   1874c:	98                   	cwtl   
   1874d:	89 85 58 ed ff ff    	mov    %eax,-0x12a8(%rbp)
   18753:	83 bd 58 ed ff ff f0 	cmpl   $0xfffffff0,-0x12a8(%rbp)
   1875a:	0f 8d 20 fe ff ff    	jge    18580 <func_63+0x40ca>
   18760:	eb 01                	jmp    18763 <func_63+0x42ad>
   18762:	90                   	nop
   18763:	48 8b 05 36 9b 00 00 	mov    0x9b36(%rip),%rax        # 222a0 <g_155>
   1876a:	c7 00 02 00 00 00    	movl   $0x2,(%rax)
   18770:	48 8b 85 08 ed ff ff 	mov    -0x12f8(%rbp),%rax
   18777:	48 8b 10             	mov    (%rax),%rdx
   1877a:	48 8d 45 c3          	lea    -0x3d(%rbp),%rax
   1877e:	48 39 c2             	cmp    %rax,%rdx
   18781:	74 27                	je     187aa <func_63+0x42f4>
   18783:	48 8b 95 10 ee ff ff 	mov    -0x11f0(%rbp),%rdx
   1878a:	48 8b 85 50 ef ff ff 	mov    -0x10b0(%rbp),%rax
   18791:	48 89 10             	mov    %rdx,(%rax)
   18794:	48 8b 85 50 ef ff ff 	mov    -0x10b0(%rbp),%rax
   1879b:	48 8b 00             	mov    (%rax),%rax
   1879e:	48 85 c0             	test   %rax,%rax
   187a1:	74 07                	je     187aa <func_63+0x42f4>
   187a3:	b8 01 00 00 00       	mov    $0x1,%eax
   187a8:	eb 05                	jmp    187af <func_63+0x42f9>
   187aa:	b8 00 00 00 00       	mov    $0x0,%eax
   187af:	31 85 58 ed ff ff    	xor    %eax,-0x12a8(%rbp)
   187b5:	c7 85 58 ed ff ff 00 	movl   $0x0,-0x12a8(%rbp)
   187bc:	00 00 00 
   187bf:	e9 68 01 00 00       	jmpq   1892c <func_63+0x4476>
   187c4:	8b 85 04 ed ff ff    	mov    -0x12fc(%rbp),%eax
   187ca:	85 c0                	test   %eax,%eax
   187cc:	75 14                	jne    187e2 <func_63+0x432c>
   187ce:	be 52 1f 00 00       	mov    $0x1f52,%esi
   187d3:	bf 08 00 00 00       	mov    $0x8,%edi
   187d8:	e8 78 2c ff ff       	callq  b455 <safe_div_func_int16_t_s_s>
   187dd:	66 85 c0             	test   %ax,%ax
   187e0:	74 07                	je     187e9 <func_63+0x4333>
   187e2:	ba 01 00 00 00       	mov    $0x1,%edx
   187e7:	eb 05                	jmp    187ee <func_63+0x4338>
   187e9:	ba 00 00 00 00       	mov    $0x0,%edx
   187ee:	48 8b 05 ab 9a 00 00 	mov    0x9aab(%rip),%rax        # 222a0 <g_155>
   187f5:	89 10                	mov    %edx,(%rax)
   187f7:	8b 00                	mov    (%rax),%eax
   187f9:	85 c0                	test   %eax,%eax
   187fb:	74 12                	je     1880f <func_63+0x4359>
   187fd:	48 8b 05 9c 9a 00 00 	mov    0x9a9c(%rip),%rax        # 222a0 <g_155>
   18804:	0f b7 95 2a ed ff ff 	movzwl -0x12d6(%rbp),%edx
   1880b:	89 10                	mov    %edx,(%rax)
   1880d:	eb 11                	jmp    18820 <func_63+0x436a>
   1880f:	48 8b 05 8a 9a 00 00 	mov    0x9a8a(%rip),%rax        # 222a0 <g_155>
   18816:	8b 00                	mov    (%rax),%eax
   18818:	85 c0                	test   %eax,%eax
   1881a:	0f 85 1e 01 00 00    	jne    1893e <func_63+0x4488>
   18820:	c7 05 1e 7c 00 00 01 	movl   $0x1,0x7c1e(%rip)        # 20448 <g_480+0x8>
   18827:	00 00 00 
   1882a:	e9 d7 00 00 00       	jmpq   18906 <func_63+0x4450>
   1882f:	48 8b 85 20 ee ff ff 	mov    -0x11e0(%rbp),%rax
   18836:	8b 00                	mov    (%rax),%eax
   18838:	83 c8 04             	or     $0x4,%eax
   1883b:	89 c2                	mov    %eax,%edx
   1883d:	48 8b 85 20 ee ff ff 	mov    -0x11e0(%rbp),%rax
   18844:	89 10                	mov    %edx,(%rax)
   18846:	66 c7 85 24 ed ff ff 	movw   $0x1,-0x12dc(%rbp)
   1884d:	01 00 
   1884f:	e9 93 00 00 00       	jmpq   188e7 <func_63+0x4431>
   18854:	c7 85 b4 ed ff ff 23 	movl   $0x5851123,-0x124c(%rbp)
   1885b:	11 85 05 
   1885e:	0f b7 85 24 ed ff ff 	movzwl -0x12dc(%rbp),%eax
   18865:	98                   	cwtl   
   18866:	8d 50 06             	lea    0x6(%rax),%edx
   18869:	0f b7 85 24 ed ff ff 	movzwl -0x12dc(%rbp),%eax
   18870:	98                   	cwtl   
   18871:	8d 70 05             	lea    0x5(%rax),%esi
   18874:	8b 05 ce 7b 00 00    	mov    0x7bce(%rip),%eax        # 20448 <g_480+0x8>
   1887a:	48 63 c8             	movslq %eax,%rcx
   1887d:	48 63 d2             	movslq %edx,%rdx
   18880:	48 63 f6             	movslq %esi,%rsi
   18883:	48 89 d0             	mov    %rdx,%rax
   18886:	48 c1 e0 02          	shl    $0x2,%rax
   1888a:	48 01 d0             	add    %rdx,%rax
   1888d:	48 01 c0             	add    %rax,%rax
   18890:	48 01 f0             	add    %rsi,%rax
   18893:	48 01 c0             	add    %rax,%rax
   18896:	48 01 c8             	add    %rcx,%rax
   18899:	48 8d 14 85 00 00 00 	lea    0x0(,%rax,4),%rdx
   188a0:	00 
   188a1:	48 8d 05 d8 77 00 00 	lea    0x77d8(%rip),%rax        # 20080 <g_117>
   188a8:	8b 04 02             	mov    (%rdx,%rax,1),%eax
   188ab:	89 85 b4 ed ff ff    	mov    %eax,-0x124c(%rbp)
   188b1:	48 8b 85 20 ee ff ff 	mov    -0x11e0(%rbp),%rax
   188b8:	c7 00 84 a6 43 9c    	movl   $0x9c43a684,(%rax)
   188be:	48 8b 05 db 99 00 00 	mov    0x99db(%rip),%rax        # 222a0 <g_155>
   188c5:	8b 10                	mov    (%rax),%edx
   188c7:	48 8b 05 d2 99 00 00 	mov    0x99d2(%rip),%rax        # 222a0 <g_155>
   188ce:	81 ca 03 fb 27 33    	or     $0x3327fb03,%edx
   188d4:	89 10                	mov    %edx,(%rax)
   188d6:	0f b7 85 24 ed ff ff 	movzwl -0x12dc(%rbp),%eax
   188dd:	83 e8 01             	sub    $0x1,%eax
   188e0:	66 89 85 24 ed ff ff 	mov    %ax,-0x12dc(%rbp)
   188e7:	0f b7 85 24 ed ff ff 	movzwl -0x12dc(%rbp),%eax
   188ee:	66 85 c0             	test   %ax,%ax
   188f1:	0f 89 5d ff ff ff    	jns    18854 <func_63+0x439e>
   188f7:	8b 05 4b 7b 00 00    	mov    0x7b4b(%rip),%eax        # 20448 <g_480+0x8>
   188fd:	83 e8 01             	sub    $0x1,%eax
   18900:	89 05 42 7b 00 00    	mov    %eax,0x7b42(%rip)        # 20448 <g_480+0x8>
   18906:	8b 05 3c 7b 00 00    	mov    0x7b3c(%rip),%eax        # 20448 <g_480+0x8>
   1890c:	85 c0                	test   %eax,%eax
   1890e:	0f 89 1b ff ff ff    	jns    1882f <func_63+0x4379>
   18914:	8b 85 58 ed ff ff    	mov    -0x12a8(%rbp),%eax
   1891a:	be 09 00 00 00       	mov    $0x9,%esi
   1891f:	89 c7                	mov    %eax,%edi
   18921:	e8 92 35 ff ff       	callq  beb8 <safe_add_func_uint32_t_u_u>
   18926:	89 85 58 ed ff ff    	mov    %eax,-0x12a8(%rbp)
   1892c:	83 bd 58 ed ff ff 11 	cmpl   $0x11,-0x12a8(%rbp)
   18933:	0f 8f 8b fe ff ff    	jg     187c4 <func_63+0x430e>
   18939:	e9 8c 00 00 00       	jmpq   189ca <func_63+0x4514>
   1893e:	90                   	nop
   1893f:	e9 86 00 00 00       	jmpq   189ca <func_63+0x4514>
   18944:	48 8b 85 c0 ed ff ff 	mov    -0x1240(%rbp),%rax
   1894b:	48 8d 95 04 ed ff ff 	lea    -0x12fc(%rbp),%rdx
   18952:	48 89 10             	mov    %rdx,(%rax)
   18955:	c7 05 e9 7a 00 00 13 	movl   $0x13,0x7ae9(%rip)        # 20448 <g_480+0x8>
   1895c:	00 00 00 
   1895f:	eb 5e                	jmp    189bf <func_63+0x4509>
   18961:	8b 85 04 ed ff ff    	mov    -0x12fc(%rbp),%eax
   18967:	98                   	cwtl   
   18968:	89 c6                	mov    %eax,%esi
   1896a:	bf fc ff ff ff       	mov    $0xfffffffc,%edi
   1896f:	e8 3f 2a ff ff       	callq  b3b3 <safe_add_func_int16_t_s_s>
   18974:	0f be c0             	movsbl %al,%eax
   18977:	89 c7                	mov    %eax,%edi
   18979:	e8 41 28 ff ff       	callq  b1bf <safe_unary_minus_func_int8_t_s>
   1897e:	0f be c0             	movsbl %al,%eax
   18981:	be 06 00 00 00       	mov    $0x6,%esi
   18986:	89 c7                	mov    %eax,%edi
   18988:	e8 a8 29 ff ff       	callq  b335 <safe_rshift_func_int8_t_s_s>
   1898d:	48 8b 95 20 ee ff ff 	mov    -0x11e0(%rbp),%rdx
   18994:	8b 12                	mov    (%rdx),%edx
   18996:	0f be c0             	movsbl %al,%eax
   18999:	31 c2                	xor    %eax,%edx
   1899b:	48 8b 85 20 ee ff ff 	mov    -0x11e0(%rbp),%rax
   189a2:	89 10                	mov    %edx,(%rax)
   189a4:	8b 05 9e 7a 00 00    	mov    0x7a9e(%rip),%eax        # 20448 <g_480+0x8>
   189aa:	48 98                	cltq   
   189ac:	be 08 00 00 00       	mov    $0x8,%esi
   189b1:	48 89 c7             	mov    %rax,%rdi
   189b4:	e8 75 36 ff ff       	callq  c02e <safe_add_func_uint64_t_u_u>
   189b9:	89 05 89 7a 00 00    	mov    %eax,0x7a89(%rip)        # 20448 <g_480+0x8>
   189bf:	8b 05 83 7a 00 00    	mov    0x7a83(%rip),%eax        # 20448 <g_480+0x8>
   189c5:	83 f8 1a             	cmp    $0x1a,%eax
   189c8:	7e 97                	jle    18961 <func_63+0x44ab>
   189ca:	48 8b 05 cf 98 00 00 	mov    0x98cf(%rip),%rax        # 222a0 <g_155>
   189d1:	8b 00                	mov    (%rax),%eax
   189d3:	85 c0                	test   %eax,%eax
   189d5:	75 30                	jne    18a07 <func_63+0x4551>
   189d7:	0f b7 85 22 ed ff ff 	movzwl -0x12de(%rbp),%eax
   189de:	0f b7 c0             	movzwl %ax,%eax
   189e1:	be 02 00 00 00       	mov    $0x2,%esi
   189e6:	89 c7                	mov    %eax,%edi
   189e8:	e8 cb 34 ff ff       	callq  beb8 <safe_add_func_uint32_t_u_u>
   189ed:	66 89 85 22 ed ff ff 	mov    %ax,-0x12de(%rbp)
   189f4:	0f b7 85 22 ed ff ff 	movzwl -0x12de(%rbp),%eax
   189fb:	66 83 f8 36          	cmp    $0x36,%ax
   189ff:	0f 85 9a f7 ff ff    	jne    1819f <func_63+0x3ce9>
   18a05:	eb 01                	jmp    18a08 <func_63+0x4552>
   18a07:	90                   	nop
   18a08:	48 8b 05 91 98 00 00 	mov    0x9891(%rip),%rax        # 222a0 <g_155>
   18a0f:	8b 95 04 ed ff ff    	mov    -0x12fc(%rbp),%edx
   18a15:	89 10                	mov    %edx,(%rax)
   18a17:	8b 85 04 ed ff ff    	mov    -0x12fc(%rbp),%eax
   18a1d:	48 8b 5d c8          	mov    -0x38(%rbp),%rbx
   18a21:	64 48 33 1c 25 28 00 	xor    %fs:0x28,%rbx
   18a28:	00 00 
   18a2a:	74 05                	je     18a31 <func_63+0x457b>
   18a2c:	e8 3f 26 ff ff       	callq  b070 <__stack_chk_fail@plt>
   18a31:	48 81 c4 d8 12 00 00 	add    $0x12d8,%rsp
   18a38:	5b                   	pop    %rbx
   18a39:	41 5c                	pop    %r12
   18a3b:	41 5d                	pop    %r13
   18a3d:	41 5e                	pop    %r14
   18a3f:	41 5f                	pop    %r15
   18a41:	5d                   	pop    %rbp
   18a42:	c3                   	retq   

0000000000018a43 <func_66>:
   18a43:	f3 0f 1e fa          	endbr64 
   18a47:	55                   	push   %rbp
   18a48:	48 89 e5             	mov    %rsp,%rbp
   18a4b:	48 81 ec 30 03 00 00 	sub    $0x330,%rsp
   18a52:	89 bd dc fc ff ff    	mov    %edi,-0x324(%rbp)
   18a58:	48 89 b5 d0 fc ff ff 	mov    %rsi,-0x330(%rbp)
   18a5f:	64 48 8b 04 25 28 00 	mov    %fs:0x28,%rax
   18a66:	00 00 
   18a68:	48 89 45 f8          	mov    %rax,-0x8(%rbp)
   18a6c:	31 c0                	xor    %eax,%eax
   18a6e:	48 8d 05 db 75 00 00 	lea    0x75db(%rip),%rax        # 20050 <g_105>
   18a75:	48 89 85 f0 fc ff ff 	mov    %rax,-0x310(%rbp)
   18a7c:	48 8d 85 f0 fc ff ff 	lea    -0x310(%rbp),%rax
   18a83:	48 89 85 f8 fc ff ff 	mov    %rax,-0x308(%rbp)
   18a8a:	48 8d 05 bf 75 00 00 	lea    0x75bf(%rip),%rax        # 20050 <g_105>
   18a91:	48 89 85 00 fd ff ff 	mov    %rax,-0x300(%rbp)
   18a98:	48 c7 85 08 fd ff ff 	movq   $0x0,-0x2f8(%rbp)
   18a9f:	00 00 00 00 
   18aa3:	48 c7 85 10 fd ff ff 	movq   $0x0,-0x2f0(%rbp)
   18aaa:	00 00 00 00 
   18aae:	c7 85 ec fc ff ff 00 	movl   $0x0,-0x314(%rbp)
   18ab5:	00 00 00 
   18ab8:	48 8d 85 ec fc ff ff 	lea    -0x314(%rbp),%rax
   18abf:	48 89 85 18 fd ff ff 	mov    %rax,-0x2e8(%rbp)
   18ac6:	48 c7 85 20 fd ff ff 	movq   $0x0,-0x2e0(%rbp)
   18acd:	00 00 00 00 
   18ad1:	48 8d 85 ec fc ff ff 	lea    -0x314(%rbp),%rax
   18ad8:	48 89 85 28 fd ff ff 	mov    %rax,-0x2d8(%rbp)
   18adf:	48 8d 85 ec fc ff ff 	lea    -0x314(%rbp),%rax
   18ae6:	48 89 85 30 fd ff ff 	mov    %rax,-0x2d0(%rbp)
   18aed:	48 8d 85 ec fc ff ff 	lea    -0x314(%rbp),%rax
   18af4:	48 89 85 38 fd ff ff 	mov    %rax,-0x2c8(%rbp)
   18afb:	48 8d 85 ec fc ff ff 	lea    -0x314(%rbp),%rax
   18b02:	48 89 85 40 fd ff ff 	mov    %rax,-0x2c0(%rbp)
   18b09:	48 8d 85 ec fc ff ff 	lea    -0x314(%rbp),%rax
   18b10:	48 89 85 48 fd ff ff 	mov    %rax,-0x2b8(%rbp)
   18b17:	48 c7 85 50 fd ff ff 	movq   $0x0,-0x2b0(%rbp)
   18b1e:	00 00 00 00 
   18b22:	48 c7 85 58 fd ff ff 	movq   $0x0,-0x2a8(%rbp)
   18b29:	00 00 00 00 
   18b2d:	48 8d 85 ec fc ff ff 	lea    -0x314(%rbp),%rax
   18b34:	48 89 85 60 fd ff ff 	mov    %rax,-0x2a0(%rbp)
   18b3b:	48 8d 85 ec fc ff ff 	lea    -0x314(%rbp),%rax
   18b42:	48 89 85 68 fd ff ff 	mov    %rax,-0x298(%rbp)
   18b49:	48 8d 85 ec fc ff ff 	lea    -0x314(%rbp),%rax
   18b50:	48 89 85 70 fd ff ff 	mov    %rax,-0x290(%rbp)
   18b57:	48 c7 85 78 fd ff ff 	movq   $0x0,-0x288(%rbp)
   18b5e:	00 00 00 00 
   18b62:	48 c7 85 80 fd ff ff 	movq   $0x0,-0x280(%rbp)
   18b69:	00 00 00 00 
   18b6d:	48 8d 85 ec fc ff ff 	lea    -0x314(%rbp),%rax
   18b74:	48 89 85 88 fd ff ff 	mov    %rax,-0x278(%rbp)
   18b7b:	48 8d 85 ec fc ff ff 	lea    -0x314(%rbp),%rax
   18b82:	48 89 85 90 fd ff ff 	mov    %rax,-0x270(%rbp)
   18b89:	48 8d 85 ec fc ff ff 	lea    -0x314(%rbp),%rax
   18b90:	48 89 85 98 fd ff ff 	mov    %rax,-0x268(%rbp)
   18b97:	48 8d 85 ec fc ff ff 	lea    -0x314(%rbp),%rax
   18b9e:	48 89 85 a0 fd ff ff 	mov    %rax,-0x260(%rbp)
   18ba5:	48 8d 85 ec fc ff ff 	lea    -0x314(%rbp),%rax
   18bac:	48 89 85 a8 fd ff ff 	mov    %rax,-0x258(%rbp)
   18bb3:	48 c7 85 b0 fd ff ff 	movq   $0x0,-0x250(%rbp)
   18bba:	00 00 00 00 
   18bbe:	48 c7 85 b8 fd ff ff 	movq   $0x0,-0x248(%rbp)
   18bc5:	00 00 00 00 
   18bc9:	48 8d 85 ec fc ff ff 	lea    -0x314(%rbp),%rax
   18bd0:	48 89 85 c0 fd ff ff 	mov    %rax,-0x240(%rbp)
   18bd7:	48 c7 85 c8 fd ff ff 	movq   $0x0,-0x238(%rbp)
   18bde:	00 00 00 00 
   18be2:	48 8d 85 ec fc ff ff 	lea    -0x314(%rbp),%rax
   18be9:	48 89 85 d0 fd ff ff 	mov    %rax,-0x230(%rbp)
   18bf0:	48 8d 05 59 74 00 00 	lea    0x7459(%rip),%rax        # 20050 <g_105>
   18bf7:	48 89 85 d8 fd ff ff 	mov    %rax,-0x228(%rbp)
   18bfe:	48 8d 05 4b 74 00 00 	lea    0x744b(%rip),%rax        # 20050 <g_105>
   18c05:	48 89 85 e0 fd ff ff 	mov    %rax,-0x220(%rbp)
   18c0c:	48 8d 85 ec fc ff ff 	lea    -0x314(%rbp),%rax
   18c13:	48 89 85 e8 fd ff ff 	mov    %rax,-0x218(%rbp)
   18c1a:	48 c7 85 f0 fd ff ff 	movq   $0x0,-0x210(%rbp)
   18c21:	00 00 00 00 
   18c25:	48 8d 85 ec fc ff ff 	lea    -0x314(%rbp),%rax
   18c2c:	48 89 85 f8 fd ff ff 	mov    %rax,-0x208(%rbp)
   18c33:	48 c7 85 00 fe ff ff 	movq   $0x0,-0x200(%rbp)
   18c3a:	00 00 00 00 
   18c3e:	48 8d 85 ec fc ff ff 	lea    -0x314(%rbp),%rax
   18c45:	48 89 85 08 fe ff ff 	mov    %rax,-0x1f8(%rbp)
   18c4c:	48 8d 85 ec fc ff ff 	lea    -0x314(%rbp),%rax
   18c53:	48 89 85 10 fe ff ff 	mov    %rax,-0x1f0(%rbp)
   18c5a:	48 8d 85 ec fc ff ff 	lea    -0x314(%rbp),%rax
   18c61:	48 89 85 18 fe ff ff 	mov    %rax,-0x1e8(%rbp)
   18c68:	48 8d 05 e1 73 00 00 	lea    0x73e1(%rip),%rax        # 20050 <g_105>
   18c6f:	48 89 85 20 fe ff ff 	mov    %rax,-0x1e0(%rbp)
   18c76:	48 8d 85 ec fc ff ff 	lea    -0x314(%rbp),%rax
   18c7d:	48 89 85 28 fe ff ff 	mov    %rax,-0x1d8(%rbp)
   18c84:	48 8d 85 ec fc ff ff 	lea    -0x314(%rbp),%rax
   18c8b:	48 89 85 30 fe ff ff 	mov    %rax,-0x1d0(%rbp)
   18c92:	48 8d 85 ec fc ff ff 	lea    -0x314(%rbp),%rax
   18c99:	48 89 85 38 fe ff ff 	mov    %rax,-0x1c8(%rbp)
   18ca0:	48 8d 85 ec fc ff ff 	lea    -0x314(%rbp),%rax
   18ca7:	48 89 85 40 fe ff ff 	mov    %rax,-0x1c0(%rbp)
   18cae:	48 8d 85 ec fc ff ff 	lea    -0x314(%rbp),%rax
   18cb5:	48 89 85 48 fe ff ff 	mov    %rax,-0x1b8(%rbp)
   18cbc:	48 8d 85 ec fc ff ff 	lea    -0x314(%rbp),%rax
   18cc3:	48 89 85 50 fe ff ff 	mov    %rax,-0x1b0(%rbp)
   18cca:	48 8d 05 7f 73 00 00 	lea    0x737f(%rip),%rax        # 20050 <g_105>
   18cd1:	48 89 85 58 fe ff ff 	mov    %rax,-0x1a8(%rbp)
   18cd8:	48 8d 85 ec fc ff ff 	lea    -0x314(%rbp),%rax
   18cdf:	48 89 85 60 fe ff ff 	mov    %rax,-0x1a0(%rbp)
   18ce6:	48 8d 85 ec fc ff ff 	lea    -0x314(%rbp),%rax
   18ced:	48 89 85 68 fe ff ff 	mov    %rax,-0x198(%rbp)
   18cf4:	48 8d 05 55 73 00 00 	lea    0x7355(%rip),%rax        # 20050 <g_105>
   18cfb:	48 89 85 70 fe ff ff 	mov    %rax,-0x190(%rbp)
   18d02:	48 8d 85 ec fc ff ff 	lea    -0x314(%rbp),%rax
   18d09:	48 89 85 78 fe ff ff 	mov    %rax,-0x188(%rbp)
   18d10:	48 8d 85 ec fc ff ff 	lea    -0x314(%rbp),%rax
   18d17:	48 89 85 80 fe ff ff 	mov    %rax,-0x180(%rbp)
   18d1e:	48 8d 85 ec fc ff ff 	lea    -0x314(%rbp),%rax
   18d25:	48 89 85 88 fe ff ff 	mov    %rax,-0x178(%rbp)
   18d2c:	48 8d 05 1d 73 00 00 	lea    0x731d(%rip),%rax        # 20050 <g_105>
   18d33:	48 89 85 90 fe ff ff 	mov    %rax,-0x170(%rbp)
   18d3a:	48 8d 85 ec fc ff ff 	lea    -0x314(%rbp),%rax
   18d41:	48 89 85 98 fe ff ff 	mov    %rax,-0x168(%rbp)
   18d48:	48 8d 85 ec fc ff ff 	lea    -0x314(%rbp),%rax
   18d4f:	48 89 85 a0 fe ff ff 	mov    %rax,-0x160(%rbp)
   18d56:	48 8d 05 f3 72 00 00 	lea    0x72f3(%rip),%rax        # 20050 <g_105>
   18d5d:	48 89 85 a8 fe ff ff 	mov    %rax,-0x158(%rbp)
   18d64:	48 8d 85 ec fc ff ff 	lea    -0x314(%rbp),%rax
   18d6b:	48 89 85 b0 fe ff ff 	mov    %rax,-0x150(%rbp)
   18d72:	48 8d 85 ec fc ff ff 	lea    -0x314(%rbp),%rax
   18d79:	48 89 85 b8 fe ff ff 	mov    %rax,-0x148(%rbp)
   18d80:	48 8d 85 ec fc ff ff 	lea    -0x314(%rbp),%rax
   18d87:	48 89 85 c0 fe ff ff 	mov    %rax,-0x140(%rbp)
   18d8e:	48 8d 85 ec fc ff ff 	lea    -0x314(%rbp),%rax
   18d95:	48 89 85 c8 fe ff ff 	mov    %rax,-0x138(%rbp)
   18d9c:	48 8d 85 ec fc ff ff 	lea    -0x314(%rbp),%rax
   18da3:	48 89 85 d0 fe ff ff 	mov    %rax,-0x130(%rbp)
   18daa:	48 8d 85 ec fc ff ff 	lea    -0x314(%rbp),%rax
   18db1:	48 89 85 d8 fe ff ff 	mov    %rax,-0x128(%rbp)
   18db8:	48 8d 05 91 72 00 00 	lea    0x7291(%rip),%rax        # 20050 <g_105>
   18dbf:	48 89 85 e0 fe ff ff 	mov    %rax,-0x120(%rbp)
   18dc6:	48 8d 85 ec fc ff ff 	lea    -0x314(%rbp),%rax
   18dcd:	48 89 85 e8 fe ff ff 	mov    %rax,-0x118(%rbp)
   18dd4:	48 8d 85 ec fc ff ff 	lea    -0x314(%rbp),%rax
   18ddb:	48 89 85 f0 fe ff ff 	mov    %rax,-0x110(%rbp)
   18de2:	48 8d 85 ec fc ff ff 	lea    -0x314(%rbp),%rax
   18de9:	48 89 85 f8 fe ff ff 	mov    %rax,-0x108(%rbp)
   18df0:	48 c7 85 00 ff ff ff 	movq   $0x0,-0x100(%rbp)
   18df7:	00 00 00 00 
   18dfb:	48 8d 85 ec fc ff ff 	lea    -0x314(%rbp),%rax
   18e02:	48 89 85 08 ff ff ff 	mov    %rax,-0xf8(%rbp)
   18e09:	48 c7 85 10 ff ff ff 	movq   $0x0,-0xf0(%rbp)
   18e10:	00 00 00 00 
   18e14:	48 8d 85 ec fc ff ff 	lea    -0x314(%rbp),%rax
   18e1b:	48 89 85 18 ff ff ff 	mov    %rax,-0xe8(%rbp)
   18e22:	48 8d 05 27 72 00 00 	lea    0x7227(%rip),%rax        # 20050 <g_105>
   18e29:	48 89 85 20 ff ff ff 	mov    %rax,-0xe0(%rbp)
   18e30:	48 8d 05 19 72 00 00 	lea    0x7219(%rip),%rax        # 20050 <g_105>
   18e37:	48 89 85 28 ff ff ff 	mov    %rax,-0xd8(%rbp)
   18e3e:	48 8d 85 ec fc ff ff 	lea    -0x314(%rbp),%rax
   18e45:	48 89 85 30 ff ff ff 	mov    %rax,-0xd0(%rbp)
   18e4c:	48 c7 85 38 ff ff ff 	movq   $0x0,-0xc8(%rbp)
   18e53:	00 00 00 00 
   18e57:	48 8d 85 ec fc ff ff 	lea    -0x314(%rbp),%rax
   18e5e:	48 89 85 40 ff ff ff 	mov    %rax,-0xc0(%rbp)
   18e65:	48 c7 85 48 ff ff ff 	movq   $0x0,-0xb8(%rbp)
   18e6c:	00 00 00 00 
   18e70:	48 c7 85 50 ff ff ff 	movq   $0x0,-0xb0(%rbp)
   18e77:	00 00 00 00 
   18e7b:	48 8d 85 ec fc ff ff 	lea    -0x314(%rbp),%rax
   18e82:	48 89 85 58 ff ff ff 	mov    %rax,-0xa8(%rbp)
   18e89:	48 8d 85 ec fc ff ff 	lea    -0x314(%rbp),%rax
   18e90:	48 89 85 60 ff ff ff 	mov    %rax,-0xa0(%rbp)
   18e97:	48 8d 85 ec fc ff ff 	lea    -0x314(%rbp),%rax
   18e9e:	48 89 85 68 ff ff ff 	mov    %rax,-0x98(%rbp)
   18ea5:	48 8d 85 ec fc ff ff 	lea    -0x314(%rbp),%rax
   18eac:	48 89 85 70 ff ff ff 	mov    %rax,-0x90(%rbp)
   18eb3:	48 8d 85 ec fc ff ff 	lea    -0x314(%rbp),%rax
   18eba:	48 89 85 78 ff ff ff 	mov    %rax,-0x88(%rbp)
   18ec1:	48 c7 45 80 00 00 00 	movq   $0x0,-0x80(%rbp)
   18ec8:	00 
   18ec9:	48 c7 45 88 00 00 00 	movq   $0x0,-0x78(%rbp)
   18ed0:	00 
   18ed1:	48 8d 85 ec fc ff ff 	lea    -0x314(%rbp),%rax
   18ed8:	48 89 45 90          	mov    %rax,-0x70(%rbp)
   18edc:	48 8d 85 ec fc ff ff 	lea    -0x314(%rbp),%rax
   18ee3:	48 89 45 98          	mov    %rax,-0x68(%rbp)
   18ee7:	48 8d 85 ec fc ff ff 	lea    -0x314(%rbp),%rax
   18eee:	48 89 45 a0          	mov    %rax,-0x60(%rbp)
   18ef2:	48 c7 45 a8 00 00 00 	movq   $0x0,-0x58(%rbp)
   18ef9:	00 
   18efa:	48 c7 45 b0 00 00 00 	movq   $0x0,-0x50(%rbp)
   18f01:	00 
   18f02:	48 8d 85 ec fc ff ff 	lea    -0x314(%rbp),%rax
   18f09:	48 89 45 b8          	mov    %rax,-0x48(%rbp)
   18f0d:	48 8d 85 ec fc ff ff 	lea    -0x314(%rbp),%rax
   18f14:	48 89 45 c0          	mov    %rax,-0x40(%rbp)
   18f18:	48 8d 85 ec fc ff ff 	lea    -0x314(%rbp),%rax
   18f1f:	48 89 45 c8          	mov    %rax,-0x38(%rbp)
   18f23:	48 8d 85 ec fc ff ff 	lea    -0x314(%rbp),%rax
   18f2a:	48 89 45 d0          	mov    %rax,-0x30(%rbp)
   18f2e:	48 8d 85 ec fc ff ff 	lea    -0x314(%rbp),%rax
   18f35:	48 89 45 d8          	mov    %rax,-0x28(%rbp)
   18f39:	48 c7 45 e0 00 00 00 	movq   $0x0,-0x20(%rbp)
   18f40:	00 
   18f41:	48 c7 45 e8 00 00 00 	movq   $0x0,-0x18(%rbp)
   18f48:	00 
   18f49:	48 8b 85 f0 fc ff ff 	mov    -0x310(%rbp),%rax
   18f50:	8b 08                	mov    (%rax),%ecx
   18f52:	8b 05 10 bc 00 00    	mov    0xbc10(%rip),%eax        # 24b68 <g_32>
   18f58:	39 85 dc fc ff ff    	cmp    %eax,-0x324(%rbp)
   18f5e:	0f 9c c0             	setl   %al
   18f61:	0f b6 d0             	movzbl %al,%edx
   18f64:	48 8b 85 f0 fc ff ff 	mov    -0x310(%rbp),%rax
   18f6b:	31 ca                	xor    %ecx,%edx
   18f6d:	89 10                	mov    %edx,(%rax)
   18f6f:	48 8b 95 f0 fc ff ff 	mov    -0x310(%rbp),%rdx
   18f76:	48 8b 85 f8 fc ff ff 	mov    -0x308(%rbp),%rax
   18f7d:	48 89 10             	mov    %rdx,(%rax)
   18f80:	8b 05 6e 71 00 00    	mov    0x716e(%rip),%eax        # 200f4 <g_117+0x74>
   18f86:	83 e8 01             	sub    $0x1,%eax
   18f89:	89 05 65 71 00 00    	mov    %eax,0x7165(%rip)        # 200f4 <g_117+0x74>
   18f8f:	8b 85 dc fc ff ff    	mov    -0x324(%rbp),%eax
   18f95:	48 8b 75 f8          	mov    -0x8(%rbp),%rsi
   18f99:	64 48 33 34 25 28 00 	xor    %fs:0x28,%rsi
   18fa0:	00 00 
   18fa2:	74 05                	je     18fa9 <func_66+0x566>
   18fa4:	e8 c7 20 ff ff       	callq  b070 <__stack_chk_fail@plt>
   18fa9:	c9                   	leaveq 
   18faa:	c3                   	retq   

0000000000018fab <func_69>:
   18fab:	f3 0f 1e fa          	endbr64 
   18faf:	55                   	push   %rbp
   18fb0:	48 89 e5             	mov    %rsp,%rbp
   18fb3:	41 54                	push   %r12
   18fb5:	53                   	push   %rbx
   18fb6:	48 81 ec 40 02 00 00 	sub    $0x240,%rsp
   18fbd:	89 f8                	mov    %edi,%eax
   18fbf:	89 b5 b8 fd ff ff    	mov    %esi,-0x248(%rbp)
   18fc5:	48 89 95 b0 fd ff ff 	mov    %rdx,-0x250(%rbp)
   18fcc:	88 85 bc fd ff ff    	mov    %al,-0x244(%rbp)
   18fd2:	64 48 8b 04 25 28 00 	mov    %fs:0x28,%rax
   18fd9:	00 00 
   18fdb:	48 89 45 e8          	mov    %rax,-0x18(%rbp)
   18fdf:	31 c0                	xor    %eax,%eax
   18fe1:	48 8d 05 64 70 00 00 	lea    0x7064(%rip),%rax        # 2004c <g_47>
   18fe8:	48 89 85 d0 fd ff ff 	mov    %rax,-0x230(%rbp)
   18fef:	48 8d 85 d0 fd ff ff 	lea    -0x230(%rbp),%rax
   18ff6:	48 89 85 d8 fd ff ff 	mov    %rax,-0x228(%rbp)
   18ffd:	48 8d 85 d8 fd ff ff 	lea    -0x228(%rbp),%rax
   19004:	48 89 85 60 fe ff ff 	mov    %rax,-0x1a0(%rbp)
   1900b:	48 8d 85 d8 fd ff ff 	lea    -0x228(%rbp),%rax
   19012:	48 89 85 68 fe ff ff 	mov    %rax,-0x198(%rbp)
   19019:	48 8d 85 d8 fd ff ff 	lea    -0x228(%rbp),%rax
   19020:	48 89 85 70 fe ff ff 	mov    %rax,-0x190(%rbp)
   19027:	48 8d 85 d8 fd ff ff 	lea    -0x228(%rbp),%rax
   1902e:	48 89 85 78 fe ff ff 	mov    %rax,-0x188(%rbp)
   19035:	48 8d 85 d8 fd ff ff 	lea    -0x228(%rbp),%rax
   1903c:	48 89 85 80 fe ff ff 	mov    %rax,-0x180(%rbp)
   19043:	48 8d 85 d8 fd ff ff 	lea    -0x228(%rbp),%rax
   1904a:	48 89 85 88 fe ff ff 	mov    %rax,-0x178(%rbp)
   19051:	48 8d 85 d8 fd ff ff 	lea    -0x228(%rbp),%rax
   19058:	48 89 85 90 fe ff ff 	mov    %rax,-0x170(%rbp)
   1905f:	48 8d 85 d8 fd ff ff 	lea    -0x228(%rbp),%rax
   19066:	48 89 85 98 fe ff ff 	mov    %rax,-0x168(%rbp)
   1906d:	48 8d 85 d8 fd ff ff 	lea    -0x228(%rbp),%rax
   19074:	48 89 85 a0 fe ff ff 	mov    %rax,-0x160(%rbp)
   1907b:	48 8d 85 d8 fd ff ff 	lea    -0x228(%rbp),%rax
   19082:	48 89 85 a8 fe ff ff 	mov    %rax,-0x158(%rbp)
   19089:	48 8d 85 d8 fd ff ff 	lea    -0x228(%rbp),%rax
   19090:	48 89 85 b0 fe ff ff 	mov    %rax,-0x150(%rbp)
   19097:	48 8d 85 d8 fd ff ff 	lea    -0x228(%rbp),%rax
   1909e:	48 89 85 b8 fe ff ff 	mov    %rax,-0x148(%rbp)
   190a5:	48 8d 85 d8 fd ff ff 	lea    -0x228(%rbp),%rax
   190ac:	48 89 85 c0 fe ff ff 	mov    %rax,-0x140(%rbp)
   190b3:	48 8d 85 d8 fd ff ff 	lea    -0x228(%rbp),%rax
   190ba:	48 89 85 c8 fe ff ff 	mov    %rax,-0x138(%rbp)
   190c1:	48 8d 85 d8 fd ff ff 	lea    -0x228(%rbp),%rax
   190c8:	48 89 85 d0 fe ff ff 	mov    %rax,-0x130(%rbp)
   190cf:	48 8d 85 d8 fd ff ff 	lea    -0x228(%rbp),%rax
   190d6:	48 89 85 d8 fe ff ff 	mov    %rax,-0x128(%rbp)
   190dd:	48 8d 85 d8 fd ff ff 	lea    -0x228(%rbp),%rax
   190e4:	48 89 85 e0 fe ff ff 	mov    %rax,-0x120(%rbp)
   190eb:	48 8d 85 d8 fd ff ff 	lea    -0x228(%rbp),%rax
   190f2:	48 89 85 e8 fe ff ff 	mov    %rax,-0x118(%rbp)
   190f9:	48 8d 85 d8 fd ff ff 	lea    -0x228(%rbp),%rax
   19100:	48 89 85 f0 fe ff ff 	mov    %rax,-0x110(%rbp)
   19107:	48 8d 85 d8 fd ff ff 	lea    -0x228(%rbp),%rax
   1910e:	48 89 85 f8 fe ff ff 	mov    %rax,-0x108(%rbp)
   19115:	48 8d 85 d8 fd ff ff 	lea    -0x228(%rbp),%rax
   1911c:	48 89 85 00 ff ff ff 	mov    %rax,-0x100(%rbp)
   19123:	48 8d 85 d8 fd ff ff 	lea    -0x228(%rbp),%rax
   1912a:	48 89 85 08 ff ff ff 	mov    %rax,-0xf8(%rbp)
   19131:	48 8d 85 d8 fd ff ff 	lea    -0x228(%rbp),%rax
   19138:	48 89 85 10 ff ff ff 	mov    %rax,-0xf0(%rbp)
   1913f:	48 8d 85 d8 fd ff ff 	lea    -0x228(%rbp),%rax
   19146:	48 89 85 18 ff ff ff 	mov    %rax,-0xe8(%rbp)
   1914d:	48 8d 85 d8 fd ff ff 	lea    -0x228(%rbp),%rax
   19154:	48 89 85 20 ff ff ff 	mov    %rax,-0xe0(%rbp)
   1915b:	48 8d 85 d8 fd ff ff 	lea    -0x228(%rbp),%rax
   19162:	48 89 85 28 ff ff ff 	mov    %rax,-0xd8(%rbp)
   19169:	48 8d 85 d8 fd ff ff 	lea    -0x228(%rbp),%rax
   19170:	48 89 85 30 ff ff ff 	mov    %rax,-0xd0(%rbp)
   19177:	48 8d 85 d8 fd ff ff 	lea    -0x228(%rbp),%rax
   1917e:	48 89 85 38 ff ff ff 	mov    %rax,-0xc8(%rbp)
   19185:	48 8d 85 d8 fd ff ff 	lea    -0x228(%rbp),%rax
   1918c:	48 89 85 40 ff ff ff 	mov    %rax,-0xc0(%rbp)
   19193:	48 8d 85 d8 fd ff ff 	lea    -0x228(%rbp),%rax
   1919a:	48 89 85 48 ff ff ff 	mov    %rax,-0xb8(%rbp)
   191a1:	48 8d 85 d8 fd ff ff 	lea    -0x228(%rbp),%rax
   191a8:	48 89 85 50 ff ff ff 	mov    %rax,-0xb0(%rbp)
   191af:	48 8d 85 d8 fd ff ff 	lea    -0x228(%rbp),%rax
   191b6:	48 89 85 58 ff ff ff 	mov    %rax,-0xa8(%rbp)
   191bd:	48 8d 85 d8 fd ff ff 	lea    -0x228(%rbp),%rax
   191c4:	48 89 85 60 ff ff ff 	mov    %rax,-0xa0(%rbp)
   191cb:	48 8d 85 d8 fd ff ff 	lea    -0x228(%rbp),%rax
   191d2:	48 89 85 68 ff ff ff 	mov    %rax,-0x98(%rbp)
   191d9:	48 8d 85 d8 fd ff ff 	lea    -0x228(%rbp),%rax
   191e0:	48 89 85 70 ff ff ff 	mov    %rax,-0x90(%rbp)
   191e7:	48 8d 85 d8 fd ff ff 	lea    -0x228(%rbp),%rax
   191ee:	48 89 85 78 ff ff ff 	mov    %rax,-0x88(%rbp)
   191f5:	48 8d 85 d8 fd ff ff 	lea    -0x228(%rbp),%rax
   191fc:	48 89 45 80          	mov    %rax,-0x80(%rbp)
   19200:	48 8d 85 d8 fd ff ff 	lea    -0x228(%rbp),%rax
   19207:	48 89 45 88          	mov    %rax,-0x78(%rbp)
   1920b:	48 8d 85 d8 fd ff ff 	lea    -0x228(%rbp),%rax
   19212:	48 89 45 90          	mov    %rax,-0x70(%rbp)
   19216:	48 8d 85 d8 fd ff ff 	lea    -0x228(%rbp),%rax
   1921d:	48 89 45 98          	mov    %rax,-0x68(%rbp)
   19221:	48 8d 85 d8 fd ff ff 	lea    -0x228(%rbp),%rax
   19228:	48 89 45 a0          	mov    %rax,-0x60(%rbp)
   1922c:	48 8d 85 d8 fd ff ff 	lea    -0x228(%rbp),%rax
   19233:	48 89 45 a8          	mov    %rax,-0x58(%rbp)
   19237:	48 8d 85 d8 fd ff ff 	lea    -0x228(%rbp),%rax
   1923e:	48 89 45 b0          	mov    %rax,-0x50(%rbp)
   19242:	48 8d 85 d8 fd ff ff 	lea    -0x228(%rbp),%rax
   19249:	48 89 45 b8          	mov    %rax,-0x48(%rbp)
   1924d:	48 8d 85 d8 fd ff ff 	lea    -0x228(%rbp),%rax
   19254:	48 89 45 c0          	mov    %rax,-0x40(%rbp)
   19258:	48 8d 85 d8 fd ff ff 	lea    -0x228(%rbp),%rax
   1925f:	48 89 45 c8          	mov    %rax,-0x38(%rbp)
   19263:	48 8d 85 d8 fd ff ff 	lea    -0x228(%rbp),%rax
   1926a:	48 89 45 d0          	mov    %rax,-0x30(%rbp)
   1926e:	48 8d 85 d8 fd ff ff 	lea    -0x228(%rbp),%rax
   19275:	48 89 45 d8          	mov    %rax,-0x28(%rbp)
   19279:	48 8d 05 30 8f 00 00 	lea    0x8f30(%rip),%rax        # 221b0 <g_88+0x10>
   19280:	48 89 85 10 fe ff ff 	mov    %rax,-0x1f0(%rbp)
   19287:	48 8d 05 2a 8f 00 00 	lea    0x8f2a(%rip),%rax        # 221b8 <g_88+0x18>
   1928e:	48 89 85 18 fe ff ff 	mov    %rax,-0x1e8(%rbp)
   19295:	48 8d 05 1c 8f 00 00 	lea    0x8f1c(%rip),%rax        # 221b8 <g_88+0x18>
   1929c:	48 89 85 20 fe ff ff 	mov    %rax,-0x1e0(%rbp)
   192a3:	48 8d 05 06 8f 00 00 	lea    0x8f06(%rip),%rax        # 221b0 <g_88+0x10>
   192aa:	48 89 85 28 fe ff ff 	mov    %rax,-0x1d8(%rbp)
   192b1:	48 8d 05 f8 8e 00 00 	lea    0x8ef8(%rip),%rax        # 221b0 <g_88+0x10>
   192b8:	48 89 85 30 fe ff ff 	mov    %rax,-0x1d0(%rbp)
   192bf:	48 8d 05 ea 8e 00 00 	lea    0x8eea(%rip),%rax        # 221b0 <g_88+0x10>
   192c6:	48 89 85 38 fe ff ff 	mov    %rax,-0x1c8(%rbp)
   192cd:	48 8d 05 e4 8e 00 00 	lea    0x8ee4(%rip),%rax        # 221b8 <g_88+0x18>
   192d4:	48 89 85 40 fe ff ff 	mov    %rax,-0x1c0(%rbp)
   192db:	48 8d 05 d6 8e 00 00 	lea    0x8ed6(%rip),%rax        # 221b8 <g_88+0x18>
   192e2:	48 89 85 48 fe ff ff 	mov    %rax,-0x1b8(%rbp)
   192e9:	48 8d 05 c0 8e 00 00 	lea    0x8ec0(%rip),%rax        # 221b0 <g_88+0x10>
   192f0:	48 89 85 50 fe ff ff 	mov    %rax,-0x1b0(%rbp)
   192f7:	48 8d 05 b2 8e 00 00 	lea    0x8eb2(%rip),%rax        # 221b0 <g_88+0x10>
   192fe:	48 89 85 58 fe ff ff 	mov    %rax,-0x1a8(%rbp)
   19305:	c7 85 cc fd ff ff 05 	movl   $0x1971a05,-0x234(%rbp)
   1930c:	1a 97 01 
   1930f:	66 c7 85 c8 fd ff ff 	movw   $0x855a,-0x238(%rbp)
   19316:	5a 85 
   19318:	66 c7 85 ca fd ff ff 	movw   $0x6b3e,-0x236(%rbp)
   1931f:	3e 6b 
   19321:	48 c7 85 f0 fd ff ff 	movq   $0x0,-0x210(%rbp)
   19328:	00 00 00 00 
   1932c:	48 8d 05 1d 6d 00 00 	lea    0x6d1d(%rip),%rax        # 20050 <g_105>
   19333:	48 89 85 f8 fd ff ff 	mov    %rax,-0x208(%rbp)
   1933a:	48 8d 05 0b 6d 00 00 	lea    0x6d0b(%rip),%rax        # 2004c <g_47>
   19341:	48 89 85 00 fe ff ff 	mov    %rax,-0x200(%rbp)
   19348:	48 c7 85 b0 fd ff ff 	movq   $0xffffffffffffffe5,-0x250(%rbp)
   1934f:	e5 ff ff ff 
   19353:	48 83 bd b0 fd ff ff 	cmpq   $0x24,-0x250(%rbp)
   1935a:	24 
   1935b:	77 44                	ja     193a1 <func_69+0x3f6>
   1935d:	48 c7 85 e0 fd ff ff 	movq   $0x0,-0x220(%rbp)
   19364:	00 00 00 00 
   19368:	48 8d 85 e0 fd ff ff 	lea    -0x220(%rbp),%rax
   1936f:	48 89 85 e8 fd ff ff 	mov    %rax,-0x218(%rbp)
   19376:	48 8d 85 e8 fd ff ff 	lea    -0x218(%rbp),%rax
   1937d:	48 89 85 08 fe ff ff 	mov    %rax,-0x1f8(%rbp)
   19384:	48 8b 95 e8 fd ff ff 	mov    -0x218(%rbp),%rdx
   1938b:	48 8b 85 08 fe ff ff 	mov    -0x1f8(%rbp),%rax
   19392:	48 89 10             	mov    %rdx,(%rax)
   19395:	48 8d 05 b0 6c 00 00 	lea    0x6cb0(%rip),%rax        # 2004c <g_47>
   1939c:	e9 ef 00 00 00       	jmpq   19490 <func_69+0x4e5>
   193a1:	8b 1d c1 b7 00 00    	mov    0xb7c1(%rip),%ebx        # 24b68 <g_32>
   193a7:	48 8b 55 90          	mov    -0x70(%rbp),%rdx
   193ab:	48 8b 05 c6 8e 00 00 	mov    0x8ec6(%rip),%rax        # 22278 <g_87+0x78>
   193b2:	48 89 85 48 fe ff ff 	mov    %rax,-0x1b8(%rbp)
   193b9:	48 8b 85 48 fe ff ff 	mov    -0x1b8(%rbp),%rax
   193c0:	48 39 c2             	cmp    %rax,%rdx
   193c3:	0f b6 05 82 6c 00 00 	movzbl 0x6c82(%rip),%eax        # 2004c <g_47>
   193ca:	66 98                	cbtw   
   193cc:	66 39 85 ca fd ff ff 	cmp    %ax,-0x236(%rbp)
   193d3:	7c 1a                	jl     193ef <func_69+0x444>
   193d5:	0f b6 05 70 6c 00 00 	movzbl 0x6c70(%rip),%eax        # 2004c <g_47>
   193dc:	0f b6 c0             	movzbl %al,%eax
   193df:	be 07 00 00 00       	mov    $0x7,%esi
   193e4:	89 c7                	mov    %eax,%edi
   193e6:	e8 d3 28 ff ff       	callq  bcbe <safe_rshift_func_uint8_t_u_u>
   193eb:	84 c0                	test   %al,%al
   193ed:	74 07                	je     193f6 <func_69+0x44b>
   193ef:	b8 01 00 00 00       	mov    $0x1,%eax
   193f4:	eb 05                	jmp    193fb <func_69+0x450>
   193f6:	b8 00 00 00 00       	mov    $0x0,%eax
   193fb:	44 0f bf e0          	movswl %ax,%r12d
   193ff:	0f b7 95 c8 fd ff ff 	movzwl -0x238(%rbp),%edx
   19406:	48 83 bd b0 fd ff ff 	cmpq   $0x0,-0x250(%rbp)
   1940d:	00 
   1940e:	0f 94 c0             	sete   %al
   19411:	0f b6 c0             	movzbl %al,%eax
   19414:	89 d6                	mov    %edx,%esi
   19416:	89 c7                	mov    %eax,%edi
   19418:	e8 2b 2a ff ff       	callq  be48 <safe_rshift_func_uint16_t_u_s>
   1941d:	98                   	cwtl   
   1941e:	44 89 e6             	mov    %r12d,%esi
   19421:	89 c7                	mov    %eax,%edi
   19423:	e8 ee 1f ff ff       	callq  b416 <safe_mod_func_int16_t_s_s>
   19428:	98                   	cwtl   
   19429:	48 8b 95 b0 fd ff ff 	mov    -0x250(%rbp),%rdx
   19430:	89 c6                	mov    %eax,%esi
   19432:	89 d7                	mov    %edx,%edi
   19434:	e8 7f 2a ff ff       	callq  beb8 <safe_add_func_uint32_t_u_u>
   19439:	39 85 cc fd ff ff    	cmp    %eax,-0x234(%rbp)
   1943f:	48 83 bd b0 fd ff ff 	cmpq   $0x5,-0x250(%rbp)
   19446:	05 
   19447:	0f 97 c0             	seta   %al
   1944a:	0f b6 c0             	movzbl %al,%eax
   1944d:	be 2d a3 00 00       	mov    $0xa32d,%esi
   19452:	89 c7                	mov    %eax,%edi
   19454:	e8 a6 28 ff ff       	callq  bcff <safe_add_func_uint16_t_u_u>
   19459:	89 de                	mov    %ebx,%esi
   1945b:	bf 01 00 00 00       	mov    $0x1,%edi
   19460:	e8 c5 20 ff ff       	callq  b52a <safe_rshift_func_int16_t_s_s>
   19465:	66 85 c0             	test   %ax,%ax
   19468:	75 0a                	jne    19474 <func_69+0x4c9>
   1946a:	48 83 bd b0 fd ff ff 	cmpq   $0x0,-0x250(%rbp)
   19471:	00 
   19472:	74 07                	je     1947b <func_69+0x4d0>
   19474:	ba 01 00 00 00       	mov    $0x1,%edx
   19479:	eb 05                	jmp    19480 <func_69+0x4d5>
   1947b:	ba 00 00 00 00       	mov    $0x0,%edx
   19480:	48 8b 85 f8 fd ff ff 	mov    -0x208(%rbp),%rax
   19487:	89 10                	mov    %edx,(%rax)
   19489:	48 8b 85 00 fe ff ff 	mov    -0x200(%rbp),%rax
   19490:	48 8b 4d e8          	mov    -0x18(%rbp),%rcx
   19494:	64 48 33 0c 25 28 00 	xor    %fs:0x28,%rcx
   1949b:	00 00 
   1949d:	74 05                	je     194a4 <func_69+0x4f9>
   1949f:	e8 cc 1b ff ff       	callq  b070 <__stack_chk_fail@plt>
   194a4:	48 81 c4 40 02 00 00 	add    $0x240,%rsp
   194ab:	5b                   	pop    %rbx
   194ac:	41 5c                	pop    %r12
   194ae:	5d                   	pop    %rbp
   194af:	c3                   	retq   

00000000000194b0 <main>:
   194b0:	f3 0f 1e fa          	endbr64 
   194b4:	55                   	push   %rbp
   194b5:	48 89 e5             	mov    %rsp,%rbp
   194b8:	48 83 ec 20          	sub    $0x20,%rsp
   194bc:	89 7d ec             	mov    %edi,-0x14(%rbp)
   194bf:	48 89 75 e0          	mov    %rsi,-0x20(%rbp)
   194c3:	c7 45 fc 00 00 00 00 	movl   $0x0,-0x4(%rbp)
   194ca:	83 7d ec 02          	cmpl   $0x2,-0x14(%rbp)
   194ce:	75 25                	jne    194f5 <main+0x45>
   194d0:	48 8b 45 e0          	mov    -0x20(%rbp),%rax
   194d4:	48 83 c0 08          	add    $0x8,%rax
   194d8:	48 8b 00             	mov    (%rax),%rax
   194db:	48 8d 35 26 34 00 00 	lea    0x3426(%rip),%rsi        # 1c908 <g_2850+0x17a8>
   194e2:	48 89 c7             	mov    %rax,%rdi
   194e5:	e8 a6 1b ff ff       	callq  b090 <strcmp@plt>
   194ea:	85 c0                	test   %eax,%eax
   194ec:	75 07                	jne    194f5 <main+0x45>
   194ee:	c7 45 fc 01 00 00 00 	movl   $0x1,-0x4(%rbp)
   194f5:	e8 8f 1c ff ff       	callq  b189 <platform_main_begin>
   194fa:	e8 99 30 ff ff       	callq  c598 <crc32_gentab>
   194ff:	e8 b1 32 ff ff       	callq  c7b5 <func_1>
   19504:	c7 45 f0 00 00 00 00 	movl   $0x0,-0x10(%rbp)
   1950b:	eb 6a                	jmp    19577 <main+0xc7>
   1950d:	c7 45 f4 00 00 00 00 	movl   $0x0,-0xc(%rbp)
   19514:	eb 57                	jmp    1956d <main+0xbd>
   19516:	8b 45 f4             	mov    -0xc(%rbp),%eax
   19519:	48 63 d0             	movslq %eax,%rdx
   1951c:	8b 45 f0             	mov    -0x10(%rbp),%eax
   1951f:	48 98                	cltq   
   19521:	48 01 d0             	add    %rdx,%rax
   19524:	48 8d 14 85 00 00 00 	lea    0x0(,%rax,4),%rdx
   1952b:	00 
   1952c:	48 8d 05 fd 6a 00 00 	lea    0x6afd(%rip),%rax        # 20030 <g_13>
   19533:	8b 04 02             	mov    (%rdx,%rax,1),%eax
   19536:	48 98                	cltq   
   19538:	8b 55 fc             	mov    -0x4(%rbp),%edx
   1953b:	48 8d 35 c8 33 00 00 	lea    0x33c8(%rip),%rsi        # 1c90a <g_2850+0x17aa>
   19542:	48 89 c7             	mov    %rax,%rdi
   19545:	e8 a9 31 ff ff       	callq  c6f3 <transparent_crc>
   1954a:	83 7d fc 00          	cmpl   $0x0,-0x4(%rbp)
   1954e:	74 19                	je     19569 <main+0xb9>
   19550:	8b 55 f4             	mov    -0xc(%rbp),%edx
   19553:	8b 45 f0             	mov    -0x10(%rbp),%eax
   19556:	89 c6                	mov    %eax,%esi
   19558:	48 8d 3d b6 33 00 00 	lea    0x33b6(%rip),%rdi        # 1c915 <g_2850+0x17b5>
   1955f:	b8 00 00 00 00       	mov    $0x0,%eax
   19564:	e8 17 1b ff ff       	callq  b080 <printf@plt>
   19569:	83 45 f4 01          	addl   $0x1,-0xc(%rbp)
   1956d:	83 7d f4 00          	cmpl   $0x0,-0xc(%rbp)
   19571:	7e a3                	jle    19516 <main+0x66>
   19573:	83 45 f0 01          	addl   $0x1,-0x10(%rbp)
   19577:	83 7d f0 06          	cmpl   $0x6,-0x10(%rbp)
   1957b:	7e 90                	jle    1950d <main+0x5d>
   1957d:	8b 05 e5 b5 00 00    	mov    0xb5e5(%rip),%eax        # 24b68 <g_32>
   19583:	48 98                	cltq   
   19585:	8b 55 fc             	mov    -0x4(%rbp),%edx
   19588:	48 8d 35 98 33 00 00 	lea    0x3398(%rip),%rsi        # 1c927 <g_2850+0x17c7>
   1958f:	48 89 c7             	mov    %rax,%rdi
   19592:	e8 5c 31 ff ff       	callq  c6f3 <transparent_crc>
   19597:	0f b6 05 ae 6a 00 00 	movzbl 0x6aae(%rip),%eax        # 2004c <g_47>
   1959e:	48 0f be c0          	movsbq %al,%rax
   195a2:	8b 55 fc             	mov    -0x4(%rbp),%edx
   195a5:	48 8d 35 80 33 00 00 	lea    0x3380(%rip),%rsi        # 1c92c <g_2850+0x17cc>
   195ac:	48 89 c7             	mov    %rax,%rdi
   195af:	e8 3f 31 ff ff       	callq  c6f3 <transparent_crc>
   195b4:	8b 05 96 6a 00 00    	mov    0x6a96(%rip),%eax        # 20050 <g_105>
   195ba:	48 98                	cltq   
   195bc:	8b 55 fc             	mov    -0x4(%rbp),%edx
   195bf:	48 8d 35 6b 33 00 00 	lea    0x336b(%rip),%rsi        # 1c931 <g_2850+0x17d1>
   195c6:	48 89 c7             	mov    %rax,%rdi
   195c9:	e8 25 31 ff ff       	callq  c6f3 <transparent_crc>
   195ce:	8b 05 80 6a 00 00    	mov    0x6a80(%rip),%eax        # 20054 <g_115>
   195d4:	48 98                	cltq   
   195d6:	8b 55 fc             	mov    -0x4(%rbp),%edx
   195d9:	48 8d 35 57 33 00 00 	lea    0x3357(%rip),%rsi        # 1c937 <g_2850+0x17d7>
   195e0:	48 89 c7             	mov    %rax,%rdi
   195e3:	e8 0b 31 ff ff       	callq  c6f3 <transparent_crc>
   195e8:	c7 45 f0 00 00 00 00 	movl   $0x0,-0x10(%rbp)
   195ef:	eb 4a                	jmp    1963b <main+0x18b>
   195f1:	8b 45 f0             	mov    -0x10(%rbp),%eax
   195f4:	48 98                	cltq   
   195f6:	48 8d 14 00          	lea    (%rax,%rax,1),%rdx
   195fa:	48 8d 05 57 6a 00 00 	lea    0x6a57(%rip),%rax        # 20058 <g_116>
   19601:	0f b7 04 02          	movzwl (%rdx,%rax,1),%eax
   19605:	48 0f bf c0          	movswq %ax,%rax
   19609:	8b 55 fc             	mov    -0x4(%rbp),%edx
   1960c:	48 8d 35 2a 33 00 00 	lea    0x332a(%rip),%rsi        # 1c93d <g_2850+0x17dd>
   19613:	48 89 c7             	mov    %rax,%rdi
   19616:	e8 d8 30 ff ff       	callq  c6f3 <transparent_crc>
   1961b:	83 7d fc 00          	cmpl   $0x0,-0x4(%rbp)
   1961f:	74 16                	je     19637 <main+0x187>
   19621:	8b 45 f0             	mov    -0x10(%rbp),%eax
   19624:	89 c6                	mov    %eax,%esi
   19626:	48 8d 3d 19 33 00 00 	lea    0x3319(%rip),%rdi        # 1c946 <g_2850+0x17e6>
   1962d:	b8 00 00 00 00       	mov    $0x0,%eax
   19632:	e8 49 1a ff ff       	callq  b080 <printf@plt>
   19637:	83 45 f0 01          	addl   $0x1,-0x10(%rbp)
   1963b:	83 7d f0 04          	cmpl   $0x4,-0x10(%rbp)
   1963f:	7e b0                	jle    195f1 <main+0x141>
   19641:	c7 45 f0 00 00 00 00 	movl   $0x0,-0x10(%rbp)
   19648:	e9 a3 00 00 00       	jmpq   196f0 <main+0x240>
   1964d:	c7 45 f4 00 00 00 00 	movl   $0x0,-0xc(%rbp)
   19654:	e9 89 00 00 00       	jmpq   196e2 <main+0x232>
   19659:	c7 45 f8 00 00 00 00 	movl   $0x0,-0x8(%rbp)
   19660:	eb 76                	jmp    196d8 <main+0x228>
   19662:	8b 45 f8             	mov    -0x8(%rbp),%eax
   19665:	48 63 c8             	movslq %eax,%rcx
   19668:	8b 45 f0             	mov    -0x10(%rbp),%eax
   1966b:	48 63 d0             	movslq %eax,%rdx
   1966e:	8b 45 f4             	mov    -0xc(%rbp),%eax
   19671:	48 63 f0             	movslq %eax,%rsi
   19674:	48 89 d0             	mov    %rdx,%rax
   19677:	48 c1 e0 02          	shl    $0x2,%rax
   1967b:	48 01 d0             	add    %rdx,%rax
   1967e:	48 01 c0             	add    %rax,%rax
   19681:	48 01 f0             	add    %rsi,%rax
   19684:	48 01 c0             	add    %rax,%rax
   19687:	48 01 c8             	add    %rcx,%rax
   1968a:	48 8d 14 85 00 00 00 	lea    0x0(,%rax,4),%rdx
   19691:	00 
   19692:	48 8d 05 e7 69 00 00 	lea    0x69e7(%rip),%rax        # 20080 <g_117>
   19699:	8b 04 02             	mov    (%rdx,%rax,1),%eax
   1969c:	89 c1                	mov    %eax,%ecx
   1969e:	8b 45 fc             	mov    -0x4(%rbp),%eax
   196a1:	89 c2                	mov    %eax,%edx
   196a3:	48 8d 35 aa 32 00 00 	lea    0x32aa(%rip),%rsi        # 1c954 <g_2850+0x17f4>
   196aa:	48 89 cf             	mov    %rcx,%rdi
   196ad:	e8 41 30 ff ff       	callq  c6f3 <transparent_crc>
   196b2:	83 7d fc 00          	cmpl   $0x0,-0x4(%rbp)
   196b6:	74 1c                	je     196d4 <main+0x224>
   196b8:	8b 4d f8             	mov    -0x8(%rbp),%ecx
   196bb:	8b 55 f4             	mov    -0xc(%rbp),%edx
   196be:	8b 45 f0             	mov    -0x10(%rbp),%eax
   196c1:	89 c6                	mov    %eax,%esi
   196c3:	48 8d 3d 99 32 00 00 	lea    0x3299(%rip),%rdi        # 1c963 <g_2850+0x1803>
   196ca:	b8 00 00 00 00       	mov    $0x0,%eax
   196cf:	e8 ac 19 ff ff       	callq  b080 <printf@plt>
   196d4:	83 45 f8 01          	addl   $0x1,-0x8(%rbp)
   196d8:	83 7d f8 01          	cmpl   $0x1,-0x8(%rbp)
   196dc:	7e 84                	jle    19662 <main+0x1b2>
   196de:	83 45 f4 01          	addl   $0x1,-0xc(%rbp)
   196e2:	83 7d f4 09          	cmpl   $0x9,-0xc(%rbp)
   196e6:	0f 8e 6d ff ff ff    	jle    19659 <main+0x1a9>
   196ec:	83 45 f0 01          	addl   $0x1,-0x10(%rbp)
   196f0:	83 7d f0 09          	cmpl   $0x9,-0x10(%rbp)
   196f4:	0f 8e 53 ff ff ff    	jle    1964d <main+0x19d>
   196fa:	c7 45 f0 00 00 00 00 	movl   $0x0,-0x10(%rbp)
   19701:	eb 4b                	jmp    1974e <main+0x29e>
   19703:	8b 45 f0             	mov    -0x10(%rbp),%eax
   19706:	48 98                	cltq   
   19708:	48 8d 14 85 00 00 00 	lea    0x0(,%rax,4),%rdx
   1970f:	00 
   19710:	48 8d 05 49 19 00 00 	lea    0x1949(%rip),%rax        # 1b060 <g_126>
   19717:	8b 04 02             	mov    (%rdx,%rax,1),%eax
   1971a:	48 98                	cltq   
   1971c:	8b 55 fc             	mov    -0x4(%rbp),%edx
   1971f:	48 8d 35 53 32 00 00 	lea    0x3253(%rip),%rsi        # 1c979 <g_2850+0x1819>
   19726:	48 89 c7             	mov    %rax,%rdi
   19729:	e8 c5 2f ff ff       	callq  c6f3 <transparent_crc>
   1972e:	83 7d fc 00          	cmpl   $0x0,-0x4(%rbp)
   19732:	74 16                	je     1974a <main+0x29a>
   19734:	8b 45 f0             	mov    -0x10(%rbp),%eax
   19737:	89 c6                	mov    %eax,%esi
   19739:	48 8d 3d 06 32 00 00 	lea    0x3206(%rip),%rdi        # 1c946 <g_2850+0x17e6>
   19740:	b8 00 00 00 00       	mov    $0x0,%eax
   19745:	e8 36 19 ff ff       	callq  b080 <printf@plt>
   1974a:	83 45 f0 01          	addl   $0x1,-0x10(%rbp)
   1974e:	83 7d f0 03          	cmpl   $0x3,-0x10(%rbp)
   19752:	7e af                	jle    19703 <main+0x253>
   19754:	8b 05 46 6c 00 00    	mov    0x6c46(%rip),%eax        # 203a0 <g_131>
   1975a:	48 98                	cltq   
   1975c:	8b 55 fc             	mov    -0x4(%rbp),%edx
   1975f:	48 8d 35 1c 32 00 00 	lea    0x321c(%rip),%rsi        # 1c982 <g_2850+0x1822>
   19766:	48 89 c7             	mov    %rax,%rdi
   19769:	e8 85 2f ff ff       	callq  c6f3 <transparent_crc>
   1976e:	0f b7 05 2f 6c 00 00 	movzwl 0x6c2f(%rip),%eax        # 203a4 <g_138>
   19775:	48 0f bf c0          	movswq %ax,%rax
   19779:	8b 55 fc             	mov    -0x4(%rbp),%edx
   1977c:	48 8d 35 05 32 00 00 	lea    0x3205(%rip),%rsi        # 1c988 <g_2850+0x1828>
   19783:	48 89 c7             	mov    %rax,%rdi
   19786:	e8 68 2f ff ff       	callq  c6f3 <transparent_crc>
   1978b:	c7 45 f0 00 00 00 00 	movl   $0x0,-0x10(%rbp)
   19792:	eb 45                	jmp    197d9 <main+0x329>
   19794:	8b 45 f0             	mov    -0x10(%rbp),%eax
   19797:	48 98                	cltq   
   19799:	48 8d 15 06 6c 00 00 	lea    0x6c06(%rip),%rdx        # 203a6 <g_146>
   197a0:	0f b6 04 10          	movzbl (%rax,%rdx,1),%eax
   197a4:	0f b6 c0             	movzbl %al,%eax
   197a7:	8b 55 fc             	mov    -0x4(%rbp),%edx
   197aa:	48 8d 35 dd 31 00 00 	lea    0x31dd(%rip),%rsi        # 1c98e <g_2850+0x182e>
   197b1:	48 89 c7             	mov    %rax,%rdi
   197b4:	e8 3a 2f ff ff       	callq  c6f3 <transparent_crc>
   197b9:	83 7d fc 00          	cmpl   $0x0,-0x4(%rbp)
   197bd:	74 16                	je     197d5 <main+0x325>
   197bf:	8b 45 f0             	mov    -0x10(%rbp),%eax
   197c2:	89 c6                	mov    %eax,%esi
   197c4:	48 8d 3d 7b 31 00 00 	lea    0x317b(%rip),%rdi        # 1c946 <g_2850+0x17e6>
   197cb:	b8 00 00 00 00       	mov    $0x0,%eax
   197d0:	e8 ab 18 ff ff       	callq  b080 <printf@plt>
   197d5:	83 45 f0 01          	addl   $0x1,-0x10(%rbp)
   197d9:	83 7d f0 05          	cmpl   $0x5,-0x10(%rbp)
   197dd:	7e b5                	jle    19794 <main+0x2e4>
   197df:	48 8b 05 8a b3 00 00 	mov    0xb38a(%rip),%rax        # 24b70 <g_256>
   197e6:	8b 55 fc             	mov    -0x4(%rbp),%edx
   197e9:	48 8d 35 a7 31 00 00 	lea    0x31a7(%rip),%rsi        # 1c997 <g_2850+0x1837>
   197f0:	48 89 c7             	mov    %rax,%rdi
   197f3:	e8 fb 2e ff ff       	callq  c6f3 <transparent_crc>
   197f8:	8b 05 ae 6b 00 00    	mov    0x6bae(%rip),%eax        # 203ac <g_257>
   197fe:	48 98                	cltq   
   19800:	8b 55 fc             	mov    -0x4(%rbp),%edx
   19803:	48 8d 35 93 31 00 00 	lea    0x3193(%rip),%rsi        # 1c99d <g_2850+0x183d>
   1980a:	48 89 c7             	mov    %rax,%rdi
   1980d:	e8 e1 2e ff ff       	callq  c6f3 <transparent_crc>
   19812:	48 8b 05 a7 6b 00 00 	mov    0x6ba7(%rip),%rax        # 203c0 <g_433>
   19819:	8b 55 fc             	mov    -0x4(%rbp),%edx
   1981c:	48 8d 35 80 31 00 00 	lea    0x3180(%rip),%rsi        # 1c9a3 <g_2850+0x1843>
   19823:	48 89 c7             	mov    %rax,%rdi
   19826:	e8 c8 2e ff ff       	callq  c6f3 <transparent_crc>
   1982b:	8b 05 97 6b 00 00    	mov    0x6b97(%rip),%eax        # 203c8 <g_433+0x8>
   19831:	48 98                	cltq   
   19833:	8b 55 fc             	mov    -0x4(%rbp),%edx
   19836:	48 8d 35 6f 31 00 00 	lea    0x316f(%rip),%rsi        # 1c9ac <g_2850+0x184c>
   1983d:	48 89 c7             	mov    %rax,%rdi
   19840:	e8 ae 2e ff ff       	callq  c6f3 <transparent_crc>
   19845:	0f b7 05 80 6b 00 00 	movzwl 0x6b80(%rip),%eax        # 203cc <g_433+0xc>
   1984c:	0f b7 c0             	movzwl %ax,%eax
   1984f:	8b 55 fc             	mov    -0x4(%rbp),%edx
   19852:	48 8d 35 5c 31 00 00 	lea    0x315c(%rip),%rsi        # 1c9b5 <g_2850+0x1855>
   19859:	48 89 c7             	mov    %rax,%rdi
   1985c:	e8 92 2e ff ff       	callq  c6f3 <transparent_crc>
   19861:	48 8b 05 68 6b 00 00 	mov    0x6b68(%rip),%rax        # 203d0 <g_433+0x10>
   19868:	8b 55 fc             	mov    -0x4(%rbp),%edx
   1986b:	48 8d 35 4c 31 00 00 	lea    0x314c(%rip),%rsi        # 1c9be <g_2850+0x185e>
   19872:	48 89 c7             	mov    %rax,%rdi
   19875:	e8 79 2e ff ff       	callq  c6f3 <transparent_crc>
   1987a:	8b 05 58 6b 00 00    	mov    0x6b58(%rip),%eax        # 203d8 <g_433+0x18>
   19880:	48 98                	cltq   
   19882:	8b 55 fc             	mov    -0x4(%rbp),%edx
   19885:	48 8d 35 3b 31 00 00 	lea    0x313b(%rip),%rsi        # 1c9c7 <g_2850+0x1867>
   1988c:	48 89 c7             	mov    %rax,%rdi
   1988f:	e8 5f 2e ff ff       	callq  c6f3 <transparent_crc>
   19894:	0f b7 05 41 6b 00 00 	movzwl 0x6b41(%rip),%eax        # 203dc <g_433+0x1c>
   1989b:	48 0f bf c0          	movswq %ax,%rax
   1989f:	8b 55 fc             	mov    -0x4(%rbp),%edx
   198a2:	48 8d 35 27 31 00 00 	lea    0x3127(%rip),%rsi        # 1c9d0 <g_2850+0x1870>
   198a9:	48 89 c7             	mov    %rax,%rdi
   198ac:	e8 42 2e ff ff       	callq  c6f3 <transparent_crc>
   198b1:	8b 05 29 6b 00 00    	mov    0x6b29(%rip),%eax        # 203e0 <g_433+0x20>
   198b7:	89 c1                	mov    %eax,%ecx
   198b9:	8b 45 fc             	mov    -0x4(%rbp),%eax
   198bc:	89 c2                	mov    %eax,%edx
   198be:	48 8d 35 14 31 00 00 	lea    0x3114(%rip),%rsi        # 1c9d9 <g_2850+0x1879>
   198c5:	48 89 cf             	mov    %rcx,%rdi
   198c8:	e8 26 2e ff ff       	callq  c6f3 <transparent_crc>
   198cd:	0f b6 05 ac b2 00 00 	movzbl 0xb2ac(%rip),%eax        # 24b80 <g_475>
   198d4:	48 0f be c0          	movsbq %al,%rax
   198d8:	8b 55 fc             	mov    -0x4(%rbp),%edx
   198db:	48 8d 35 00 31 00 00 	lea    0x3100(%rip),%rsi        # 1c9e2 <g_2850+0x1882>
   198e2:	48 89 c7             	mov    %rax,%rdi
   198e5:	e8 09 2e ff ff       	callq  c6f3 <transparent_crc>
   198ea:	48 8b 05 0f 6b 00 00 	mov    0x6b0f(%rip),%rax        # 20400 <g_478>
   198f1:	8b 55 fc             	mov    -0x4(%rbp),%edx
   198f4:	48 8d 35 ed 30 00 00 	lea    0x30ed(%rip),%rsi        # 1c9e8 <g_2850+0x1888>
   198fb:	48 89 c7             	mov    %rax,%rdi
   198fe:	e8 f0 2d ff ff       	callq  c6f3 <transparent_crc>
   19903:	8b 05 ff 6a 00 00    	mov    0x6aff(%rip),%eax        # 20408 <g_478+0x8>
   19909:	48 98                	cltq   
   1990b:	8b 55 fc             	mov    -0x4(%rbp),%edx
   1990e:	48 8d 35 dc 30 00 00 	lea    0x30dc(%rip),%rsi        # 1c9f1 <g_2850+0x1891>
   19915:	48 89 c7             	mov    %rax,%rdi
   19918:	e8 d6 2d ff ff       	callq  c6f3 <transparent_crc>
   1991d:	0f b7 05 e8 6a 00 00 	movzwl 0x6ae8(%rip),%eax        # 2040c <g_478+0xc>
   19924:	0f b7 c0             	movzwl %ax,%eax
   19927:	8b 55 fc             	mov    -0x4(%rbp),%edx
   1992a:	48 8d 35 c9 30 00 00 	lea    0x30c9(%rip),%rsi        # 1c9fa <g_2850+0x189a>
   19931:	48 89 c7             	mov    %rax,%rdi
   19934:	e8 ba 2d ff ff       	callq  c6f3 <transparent_crc>
   19939:	48 8b 05 d0 6a 00 00 	mov    0x6ad0(%rip),%rax        # 20410 <g_478+0x10>
   19940:	8b 55 fc             	mov    -0x4(%rbp),%edx
   19943:	48 8d 35 b9 30 00 00 	lea    0x30b9(%rip),%rsi        # 1ca03 <g_2850+0x18a3>
   1994a:	48 89 c7             	mov    %rax,%rdi
   1994d:	e8 a1 2d ff ff       	callq  c6f3 <transparent_crc>
   19952:	8b 05 c0 6a 00 00    	mov    0x6ac0(%rip),%eax        # 20418 <g_478+0x18>
   19958:	48 98                	cltq   
   1995a:	8b 55 fc             	mov    -0x4(%rbp),%edx
   1995d:	48 8d 35 a8 30 00 00 	lea    0x30a8(%rip),%rsi        # 1ca0c <g_2850+0x18ac>
   19964:	48 89 c7             	mov    %rax,%rdi
   19967:	e8 87 2d ff ff       	callq  c6f3 <transparent_crc>
   1996c:	0f b7 05 a9 6a 00 00 	movzwl 0x6aa9(%rip),%eax        # 2041c <g_478+0x1c>
   19973:	48 0f bf c0          	movswq %ax,%rax
   19977:	8b 55 fc             	mov    -0x4(%rbp),%edx
   1997a:	48 8d 35 94 30 00 00 	lea    0x3094(%rip),%rsi        # 1ca15 <g_2850+0x18b5>
   19981:	48 89 c7             	mov    %rax,%rdi
   19984:	e8 6a 2d ff ff       	callq  c6f3 <transparent_crc>
   19989:	8b 05 91 6a 00 00    	mov    0x6a91(%rip),%eax        # 20420 <g_478+0x20>
   1998f:	89 c1                	mov    %eax,%ecx
   19991:	8b 45 fc             	mov    -0x4(%rbp),%eax
   19994:	89 c2                	mov    %eax,%edx
   19996:	48 8d 35 81 30 00 00 	lea    0x3081(%rip),%rsi        # 1ca1e <g_2850+0x18be>
   1999d:	48 89 cf             	mov    %rcx,%rdi
   199a0:	e8 4e 2d ff ff       	callq  c6f3 <transparent_crc>
   199a5:	48 8b 05 94 6a 00 00 	mov    0x6a94(%rip),%rax        # 20440 <g_480>
   199ac:	8b 55 fc             	mov    -0x4(%rbp),%edx
   199af:	48 8d 35 71 30 00 00 	lea    0x3071(%rip),%rsi        # 1ca27 <g_2850+0x18c7>
   199b6:	48 89 c7             	mov    %rax,%rdi
   199b9:	e8 35 2d ff ff       	callq  c6f3 <transparent_crc>
   199be:	8b 05 84 6a 00 00    	mov    0x6a84(%rip),%eax        # 20448 <g_480+0x8>
   199c4:	48 98                	cltq   
   199c6:	8b 55 fc             	mov    -0x4(%rbp),%edx
   199c9:	48 8d 35 60 30 00 00 	lea    0x3060(%rip),%rsi        # 1ca30 <g_2850+0x18d0>
   199d0:	48 89 c7             	mov    %rax,%rdi
   199d3:	e8 1b 2d ff ff       	callq  c6f3 <transparent_crc>
   199d8:	0f b7 05 6d 6a 00 00 	movzwl 0x6a6d(%rip),%eax        # 2044c <g_480+0xc>
   199df:	0f b7 c0             	movzwl %ax,%eax
   199e2:	8b 55 fc             	mov    -0x4(%rbp),%edx
   199e5:	48 8d 35 4d 30 00 00 	lea    0x304d(%rip),%rsi        # 1ca39 <g_2850+0x18d9>
   199ec:	48 89 c7             	mov    %rax,%rdi
   199ef:	e8 ff 2c ff ff       	callq  c6f3 <transparent_crc>
   199f4:	48 8b 05 55 6a 00 00 	mov    0x6a55(%rip),%rax        # 20450 <g_480+0x10>
   199fb:	8b 55 fc             	mov    -0x4(%rbp),%edx
   199fe:	48 8d 35 3d 30 00 00 	lea    0x303d(%rip),%rsi        # 1ca42 <g_2850+0x18e2>
   19a05:	48 89 c7             	mov    %rax,%rdi
   19a08:	e8 e6 2c ff ff       	callq  c6f3 <transparent_crc>
   19a0d:	8b 05 45 6a 00 00    	mov    0x6a45(%rip),%eax        # 20458 <g_480+0x18>
   19a13:	48 98                	cltq   
   19a15:	8b 55 fc             	mov    -0x4(%rbp),%edx
   19a18:	48 8d 35 2c 30 00 00 	lea    0x302c(%rip),%rsi        # 1ca4b <g_2850+0x18eb>
   19a1f:	48 89 c7             	mov    %rax,%rdi
   19a22:	e8 cc 2c ff ff       	callq  c6f3 <transparent_crc>
   19a27:	0f b7 05 2e 6a 00 00 	movzwl 0x6a2e(%rip),%eax        # 2045c <g_480+0x1c>
   19a2e:	48 0f bf c0          	movswq %ax,%rax
   19a32:	8b 55 fc             	mov    -0x4(%rbp),%edx
   19a35:	48 8d 35 18 30 00 00 	lea    0x3018(%rip),%rsi        # 1ca54 <g_2850+0x18f4>
   19a3c:	48 89 c7             	mov    %rax,%rdi
   19a3f:	e8 af 2c ff ff       	callq  c6f3 <transparent_crc>
   19a44:	8b 05 16 6a 00 00    	mov    0x6a16(%rip),%eax        # 20460 <g_480+0x20>
   19a4a:	89 c1                	mov    %eax,%ecx
   19a4c:	8b 45 fc             	mov    -0x4(%rbp),%eax
   19a4f:	89 c2                	mov    %eax,%edx
   19a51:	48 8d 35 05 30 00 00 	lea    0x3005(%rip),%rsi        # 1ca5d <g_2850+0x18fd>
   19a58:	48 89 cf             	mov    %rcx,%rdi
   19a5b:	e8 93 2c ff ff       	callq  c6f3 <transparent_crc>
   19a60:	48 8b 05 01 6a 00 00 	mov    0x6a01(%rip),%rax        # 20468 <g_482>
   19a67:	48 89 c1             	mov    %rax,%rcx
   19a6a:	8b 45 fc             	mov    -0x4(%rbp),%eax
   19a6d:	89 c2                	mov    %eax,%edx
   19a6f:	48 8d 35 f0 2f 00 00 	lea    0x2ff0(%rip),%rsi        # 1ca66 <g_2850+0x1906>
   19a76:	48 89 cf             	mov    %rcx,%rdi
   19a79:	e8 75 2c ff ff       	callq  c6f3 <transparent_crc>
   19a7e:	0f b7 05 eb 69 00 00 	movzwl 0x69eb(%rip),%eax        # 20470 <g_534>
   19a85:	0f b7 c0             	movzwl %ax,%eax
   19a88:	8b 55 fc             	mov    -0x4(%rbp),%edx
   19a8b:	48 8d 35 da 2f 00 00 	lea    0x2fda(%rip),%rsi        # 1ca6c <g_2850+0x190c>
   19a92:	48 89 c7             	mov    %rax,%rdi
   19a95:	e8 59 2c ff ff       	callq  c6f3 <transparent_crc>
   19a9a:	8b 05 d4 69 00 00    	mov    0x69d4(%rip),%eax        # 20474 <g_557>
   19aa0:	48 98                	cltq   
   19aa2:	8b 55 fc             	mov    -0x4(%rbp),%edx
   19aa5:	48 8d 35 c6 2f 00 00 	lea    0x2fc6(%rip),%rsi        # 1ca72 <g_2850+0x1912>
   19aac:	48 89 c7             	mov    %rax,%rdi
   19aaf:	e8 3f 2c ff ff       	callq  c6f3 <transparent_crc>
   19ab4:	48 8b 05 cd b0 00 00 	mov    0xb0cd(%rip),%rax        # 24b88 <g_715>
   19abb:	48 89 c1             	mov    %rax,%rcx
   19abe:	8b 45 fc             	mov    -0x4(%rbp),%eax
   19ac1:	89 c2                	mov    %eax,%edx
   19ac3:	48 8d 35 ae 2f 00 00 	lea    0x2fae(%rip),%rsi        # 1ca78 <g_2850+0x1918>
   19aca:	48 89 cf             	mov    %rcx,%rdi
   19acd:	e8 21 2c ff ff       	callq  c6f3 <transparent_crc>
   19ad2:	b8 33 00 00 00       	mov    $0x33,%eax
   19ad7:	0f b6 c0             	movzbl %al,%eax
   19ada:	8b 55 fc             	mov    -0x4(%rbp),%edx
   19add:	48 8d 35 9a 2f 00 00 	lea    0x2f9a(%rip),%rsi        # 1ca7e <g_2850+0x191e>
   19ae4:	48 89 c7             	mov    %rax,%rdi
   19ae7:	e8 07 2c ff ff       	callq  c6f3 <transparent_crc>
   19aec:	0f b6 05 85 69 00 00 	movzbl 0x6985(%rip),%eax        # 20478 <g_791>
   19af3:	0f b6 c0             	movzbl %al,%eax
   19af6:	8b 55 fc             	mov    -0x4(%rbp),%edx
   19af9:	48 8d 35 84 2f 00 00 	lea    0x2f84(%rip),%rsi        # 1ca84 <g_2850+0x1924>
   19b00:	48 89 c7             	mov    %rax,%rdi
   19b03:	e8 eb 2b ff ff       	callq  c6f3 <transparent_crc>
   19b08:	c7 45 f0 00 00 00 00 	movl   $0x0,-0x10(%rbp)
   19b0f:	e9 a7 00 00 00       	jmpq   19bbb <main+0x70b>
   19b14:	c7 45 f4 00 00 00 00 	movl   $0x0,-0xc(%rbp)
   19b1b:	e9 8d 00 00 00       	jmpq   19bad <main+0x6fd>
   19b20:	c7 45 f8 00 00 00 00 	movl   $0x0,-0x8(%rbp)
   19b27:	eb 7a                	jmp    19ba3 <main+0x6f3>
   19b29:	8b 45 f8             	mov    -0x8(%rbp),%eax
   19b2c:	48 63 f0             	movslq %eax,%rsi
   19b2f:	8b 45 f0             	mov    -0x10(%rbp),%eax
   19b32:	48 63 d0             	movslq %eax,%rdx
   19b35:	8b 45 f4             	mov    -0xc(%rbp),%eax
   19b38:	48 63 c8             	movslq %eax,%rcx
   19b3b:	48 89 d0             	mov    %rdx,%rax
   19b3e:	48 01 c0             	add    %rax,%rax
   19b41:	48 01 d0             	add    %rdx,%rax
   19b44:	48 c1 e0 03          	shl    $0x3,%rax
   19b48:	48 89 ca             	mov    %rcx,%rdx
   19b4b:	48 01 d2             	add    %rdx,%rdx
   19b4e:	48 01 ca             	add    %rcx,%rdx
   19b51:	48 01 d0             	add    %rdx,%rax
   19b54:	48 8d 14 30          	lea    (%rax,%rsi,1),%rdx
   19b58:	48 8d 05 21 69 00 00 	lea    0x6921(%rip),%rax        # 20480 <g_846>
   19b5f:	48 01 d0             	add    %rdx,%rax
   19b62:	0f b6 00             	movzbl (%rax),%eax
   19b65:	83 e0 3f             	and    $0x3f,%eax
   19b68:	0f b6 c0             	movzbl %al,%eax
   19b6b:	8b 55 fc             	mov    -0x4(%rbp),%edx
   19b6e:	48 8d 35 15 2f 00 00 	lea    0x2f15(%rip),%rsi        # 1ca8a <g_2850+0x192a>
   19b75:	48 89 c7             	mov    %rax,%rdi
   19b78:	e8 76 2b ff ff       	callq  c6f3 <transparent_crc>
   19b7d:	83 7d fc 00          	cmpl   $0x0,-0x4(%rbp)
   19b81:	74 1c                	je     19b9f <main+0x6ef>
   19b83:	8b 4d f8             	mov    -0x8(%rbp),%ecx
   19b86:	8b 55 f4             	mov    -0xc(%rbp),%edx
   19b89:	8b 45 f0             	mov    -0x10(%rbp),%eax
   19b8c:	89 c6                	mov    %eax,%esi
   19b8e:	48 8d 3d ce 2d 00 00 	lea    0x2dce(%rip),%rdi        # 1c963 <g_2850+0x1803>
   19b95:	b8 00 00 00 00       	mov    $0x0,%eax
   19b9a:	e8 e1 14 ff ff       	callq  b080 <printf@plt>
   19b9f:	83 45 f8 01          	addl   $0x1,-0x8(%rbp)
   19ba3:	83 7d f8 02          	cmpl   $0x2,-0x8(%rbp)
   19ba7:	7e 80                	jle    19b29 <main+0x679>
   19ba9:	83 45 f4 01          	addl   $0x1,-0xc(%rbp)
   19bad:	83 7d f4 07          	cmpl   $0x7,-0xc(%rbp)
   19bb1:	0f 8e 69 ff ff ff    	jle    19b20 <main+0x670>
   19bb7:	83 45 f0 01          	addl   $0x1,-0x10(%rbp)
   19bbb:	83 7d f0 09          	cmpl   $0x9,-0x10(%rbp)
   19bbf:	0f 8e 4f ff ff ff    	jle    19b14 <main+0x664>
   19bc5:	48 8b 05 b4 14 00 00 	mov    0x14b4(%rip),%rax        # 1b080 <g_1029>
   19bcc:	8b 55 fc             	mov    -0x4(%rbp),%edx
   19bcf:	48 8d 35 c6 2e 00 00 	lea    0x2ec6(%rip),%rsi        # 1ca9c <g_2850+0x193c>
   19bd6:	48 89 c7             	mov    %rax,%rdi
   19bd9:	e8 15 2b ff ff       	callq  c6f3 <transparent_crc>
   19bde:	b8 ff ff ff ff       	mov    $0xffffffff,%eax
   19be3:	48 98                	cltq   
   19be5:	8b 55 fc             	mov    -0x4(%rbp),%edx
   19be8:	48 8d 35 b7 2e 00 00 	lea    0x2eb7(%rip),%rsi        # 1caa6 <g_2850+0x1946>
   19bef:	48 89 c7             	mov    %rax,%rdi
   19bf2:	e8 fc 2a ff ff       	callq  c6f3 <transparent_crc>
   19bf7:	0f b7 05 8e 14 00 00 	movzwl 0x148e(%rip),%eax        # 1b08c <g_1029+0xc>
   19bfe:	0f b7 c0             	movzwl %ax,%eax
   19c01:	8b 55 fc             	mov    -0x4(%rbp),%edx
   19c04:	48 8d 35 a5 2e 00 00 	lea    0x2ea5(%rip),%rsi        # 1cab0 <g_2850+0x1950>
   19c0b:	48 89 c7             	mov    %rax,%rdi
   19c0e:	e8 e0 2a ff ff       	callq  c6f3 <transparent_crc>
   19c13:	48 c7 c1 f6 ff ff ff 	mov    $0xfffffffffffffff6,%rcx
   19c1a:	8b 45 fc             	mov    -0x4(%rbp),%eax
   19c1d:	89 c2                	mov    %eax,%edx
   19c1f:	48 8d 35 94 2e 00 00 	lea    0x2e94(%rip),%rsi        # 1caba <g_2850+0x195a>
   19c26:	48 89 cf             	mov    %rcx,%rdi
   19c29:	e8 c5 2a ff ff       	callq  c6f3 <transparent_crc>
   19c2e:	b8 01 00 00 00       	mov    $0x1,%eax
   19c33:	48 98                	cltq   
   19c35:	8b 55 fc             	mov    -0x4(%rbp),%edx
   19c38:	48 8d 35 85 2e 00 00 	lea    0x2e85(%rip),%rsi        # 1cac4 <g_2850+0x1964>
   19c3f:	48 89 c7             	mov    %rax,%rdi
   19c42:	e8 ac 2a ff ff       	callq  c6f3 <transparent_crc>
   19c47:	0f b7 05 4e 14 00 00 	movzwl 0x144e(%rip),%eax        # 1b09c <g_1029+0x1c>
   19c4e:	48 0f bf c0          	movswq %ax,%rax
   19c52:	8b 55 fc             	mov    -0x4(%rbp),%edx
   19c55:	48 8d 35 72 2e 00 00 	lea    0x2e72(%rip),%rsi        # 1cace <g_2850+0x196e>
   19c5c:	48 89 c7             	mov    %rax,%rdi
   19c5f:	e8 8f 2a ff ff       	callq  c6f3 <transparent_crc>
   19c64:	b8 df 65 e3 e6       	mov    $0xe6e365df,%eax
   19c69:	89 c1                	mov    %eax,%ecx
   19c6b:	8b 45 fc             	mov    -0x4(%rbp),%eax
   19c6e:	89 c2                	mov    %eax,%edx
   19c70:	48 8d 35 61 2e 00 00 	lea    0x2e61(%rip),%rsi        # 1cad8 <g_2850+0x1978>
   19c77:	48 89 cf             	mov    %rcx,%rdi
   19c7a:	e8 74 2a ff ff       	callq  c6f3 <transparent_crc>
   19c7f:	0f b7 05 ea 68 00 00 	movzwl 0x68ea(%rip),%eax        # 20570 <g_1070>
   19c86:	0f b7 c0             	movzwl %ax,%eax
   19c89:	8b 55 fc             	mov    -0x4(%rbp),%edx
   19c8c:	48 8d 35 4f 2e 00 00 	lea    0x2e4f(%rip),%rsi        # 1cae2 <g_2850+0x1982>
   19c93:	48 89 c7             	mov    %rax,%rdi
   19c96:	e8 58 2a ff ff       	callq  c6f3 <transparent_crc>
   19c9b:	48 8b 05 de 68 00 00 	mov    0x68de(%rip),%rax        # 20580 <g_1086>
   19ca2:	8b 55 fc             	mov    -0x4(%rbp),%edx
   19ca5:	48 8d 35 3d 2e 00 00 	lea    0x2e3d(%rip),%rsi        # 1cae9 <g_2850+0x1989>
   19cac:	48 89 c7             	mov    %rax,%rdi
   19caf:	e8 3f 2a ff ff       	callq  c6f3 <transparent_crc>
   19cb4:	8b 05 ce 68 00 00    	mov    0x68ce(%rip),%eax        # 20588 <g_1086+0x8>
   19cba:	48 98                	cltq   
   19cbc:	8b 55 fc             	mov    -0x4(%rbp),%edx
   19cbf:	48 8d 35 2d 2e 00 00 	lea    0x2e2d(%rip),%rsi        # 1caf3 <g_2850+0x1993>
   19cc6:	48 89 c7             	mov    %rax,%rdi
   19cc9:	e8 25 2a ff ff       	callq  c6f3 <transparent_crc>
   19cce:	0f b7 05 b7 68 00 00 	movzwl 0x68b7(%rip),%eax        # 2058c <g_1086+0xc>
   19cd5:	0f b7 c0             	movzwl %ax,%eax
   19cd8:	8b 55 fc             	mov    -0x4(%rbp),%edx
   19cdb:	48 8d 35 1b 2e 00 00 	lea    0x2e1b(%rip),%rsi        # 1cafd <g_2850+0x199d>
   19ce2:	48 89 c7             	mov    %rax,%rdi
   19ce5:	e8 09 2a ff ff       	callq  c6f3 <transparent_crc>
   19cea:	48 8b 05 9f 68 00 00 	mov    0x689f(%rip),%rax        # 20590 <g_1086+0x10>
   19cf1:	8b 55 fc             	mov    -0x4(%rbp),%edx
   19cf4:	48 8d 35 0c 2e 00 00 	lea    0x2e0c(%rip),%rsi        # 1cb07 <g_2850+0x19a7>
   19cfb:	48 89 c7             	mov    %rax,%rdi
   19cfe:	e8 f0 29 ff ff       	callq  c6f3 <transparent_crc>
   19d03:	8b 05 8f 68 00 00    	mov    0x688f(%rip),%eax        # 20598 <g_1086+0x18>
   19d09:	48 98                	cltq   
   19d0b:	8b 55 fc             	mov    -0x4(%rbp),%edx
   19d0e:	48 8d 35 fc 2d 00 00 	lea    0x2dfc(%rip),%rsi        # 1cb11 <g_2850+0x19b1>
   19d15:	48 89 c7             	mov    %rax,%rdi
   19d18:	e8 d6 29 ff ff       	callq  c6f3 <transparent_crc>
   19d1d:	0f b7 05 78 68 00 00 	movzwl 0x6878(%rip),%eax        # 2059c <g_1086+0x1c>
   19d24:	48 0f bf c0          	movswq %ax,%rax
   19d28:	8b 55 fc             	mov    -0x4(%rbp),%edx
   19d2b:	48 8d 35 e9 2d 00 00 	lea    0x2de9(%rip),%rsi        # 1cb1b <g_2850+0x19bb>
   19d32:	48 89 c7             	mov    %rax,%rdi
   19d35:	e8 b9 29 ff ff       	callq  c6f3 <transparent_crc>
   19d3a:	8b 05 60 68 00 00    	mov    0x6860(%rip),%eax        # 205a0 <g_1086+0x20>
   19d40:	89 c1                	mov    %eax,%ecx
   19d42:	8b 45 fc             	mov    -0x4(%rbp),%eax
   19d45:	89 c2                	mov    %eax,%edx
   19d47:	48 8d 35 d7 2d 00 00 	lea    0x2dd7(%rip),%rsi        # 1cb25 <g_2850+0x19c5>
   19d4e:	48 89 cf             	mov    %rcx,%rdi
   19d51:	e8 9d 29 ff ff       	callq  c6f3 <transparent_crc>
   19d56:	8b 05 4c 68 00 00    	mov    0x684c(%rip),%eax        # 205a8 <g_1121>
   19d5c:	48 98                	cltq   
   19d5e:	8b 55 fc             	mov    -0x4(%rbp),%edx
   19d61:	48 8d 35 c7 2d 00 00 	lea    0x2dc7(%rip),%rsi        # 1cb2f <g_2850+0x19cf>
   19d68:	48 89 c7             	mov    %rax,%rdi
   19d6b:	e8 83 29 ff ff       	callq  c6f3 <transparent_crc>
   19d70:	0f b6 05 35 68 00 00 	movzbl 0x6835(%rip),%eax        # 205ac <g_1144>
   19d77:	83 e0 3f             	and    $0x3f,%eax
   19d7a:	0f b6 c0             	movzbl %al,%eax
   19d7d:	8b 55 fc             	mov    -0x4(%rbp),%edx
   19d80:	48 8d 35 af 2d 00 00 	lea    0x2daf(%rip),%rsi        # 1cb36 <g_2850+0x19d6>
   19d87:	48 89 c7             	mov    %rax,%rdi
   19d8a:	e8 64 29 ff ff       	callq  c6f3 <transparent_crc>
   19d8f:	0f b6 05 17 68 00 00 	movzbl 0x6817(%rip),%eax        # 205ad <g_1145>
   19d96:	83 e0 3f             	and    $0x3f,%eax
   19d99:	0f b6 c0             	movzbl %al,%eax
   19d9c:	8b 55 fc             	mov    -0x4(%rbp),%edx
   19d9f:	48 8d 35 9a 2d 00 00 	lea    0x2d9a(%rip),%rsi        # 1cb40 <g_2850+0x19e0>
   19da6:	48 89 c7             	mov    %rax,%rdi
   19da9:	e8 45 29 ff ff       	callq  c6f3 <transparent_crc>
   19dae:	c7 45 f0 00 00 00 00 	movl   $0x0,-0x10(%rbp)
   19db5:	eb 4b                	jmp    19e02 <main+0x952>
   19db7:	8b 45 f0             	mov    -0x10(%rbp),%eax
   19dba:	48 98                	cltq   
   19dbc:	48 8d 14 85 00 00 00 	lea    0x0(,%rax,4),%rdx
   19dc3:	00 
   19dc4:	48 8d 05 e5 67 00 00 	lea    0x67e5(%rip),%rax        # 205b0 <g_1154>
   19dcb:	8b 04 02             	mov    (%rdx,%rax,1),%eax
   19dce:	48 98                	cltq   
   19dd0:	8b 55 fc             	mov    -0x4(%rbp),%edx
   19dd3:	48 8d 35 70 2d 00 00 	lea    0x2d70(%rip),%rsi        # 1cb4a <g_2850+0x19ea>
   19dda:	48 89 c7             	mov    %rax,%rdi
   19ddd:	e8 11 29 ff ff       	callq  c6f3 <transparent_crc>
   19de2:	83 7d fc 00          	cmpl   $0x0,-0x4(%rbp)
   19de6:	74 16                	je     19dfe <main+0x94e>
   19de8:	8b 45 f0             	mov    -0x10(%rbp),%eax
   19deb:	89 c6                	mov    %eax,%esi
   19ded:	48 8d 3d 52 2b 00 00 	lea    0x2b52(%rip),%rdi        # 1c946 <g_2850+0x17e6>
   19df4:	b8 00 00 00 00       	mov    $0x0,%eax
   19df9:	e8 82 12 ff ff       	callq  b080 <printf@plt>
   19dfe:	83 45 f0 01          	addl   $0x1,-0x10(%rbp)
   19e02:	83 7d f0 04          	cmpl   $0x4,-0x10(%rbp)
   19e06:	7e af                	jle    19db7 <main+0x907>
   19e08:	0f b6 05 b5 67 00 00 	movzbl 0x67b5(%rip),%eax        # 205c4 <g_1272>
   19e0f:	0f b6 c0             	movzbl %al,%eax
   19e12:	8b 55 fc             	mov    -0x4(%rbp),%edx
   19e15:	48 8d 35 38 2d 00 00 	lea    0x2d38(%rip),%rsi        # 1cb54 <g_2850+0x19f4>
   19e1c:	48 89 c7             	mov    %rax,%rdi
   19e1f:	e8 cf 28 ff ff       	callq  c6f3 <transparent_crc>
   19e24:	48 8b 05 9d 67 00 00 	mov    0x679d(%rip),%rax        # 205c8 <g_1388>
   19e2b:	8b 55 fc             	mov    -0x4(%rbp),%edx
   19e2e:	48 8d 35 26 2d 00 00 	lea    0x2d26(%rip),%rsi        # 1cb5b <g_2850+0x19fb>
   19e35:	48 89 c7             	mov    %rax,%rdi
   19e38:	e8 b6 28 ff ff       	callq  c6f3 <transparent_crc>
   19e3d:	48 8b 05 8c 67 00 00 	mov    0x678c(%rip),%rax        # 205d0 <g_1448>
   19e44:	48 89 c1             	mov    %rax,%rcx
   19e47:	8b 45 fc             	mov    -0x4(%rbp),%eax
   19e4a:	89 c2                	mov    %eax,%edx
   19e4c:	48 8d 35 0f 2d 00 00 	lea    0x2d0f(%rip),%rsi        # 1cb62 <g_2850+0x1a02>
   19e53:	48 89 cf             	mov    %rcx,%rdi
   19e56:	e8 98 28 ff ff       	callq  c6f3 <transparent_crc>
   19e5b:	c7 45 f0 00 00 00 00 	movl   $0x0,-0x10(%rbp)
   19e62:	e9 9b 00 00 00       	jmpq   19f02 <main+0xa52>
   19e67:	c7 45 f4 00 00 00 00 	movl   $0x0,-0xc(%rbp)
   19e6e:	e9 81 00 00 00       	jmpq   19ef4 <main+0xa44>
   19e73:	c7 45 f8 00 00 00 00 	movl   $0x0,-0x8(%rbp)
   19e7a:	eb 6e                	jmp    19eea <main+0xa3a>
   19e7c:	8b 45 f8             	mov    -0x8(%rbp),%eax
   19e7f:	48 63 f0             	movslq %eax,%rsi
   19e82:	8b 45 f4             	mov    -0xc(%rbp),%eax
   19e85:	48 63 c8             	movslq %eax,%rcx
   19e88:	8b 45 f0             	mov    -0x10(%rbp),%eax
   19e8b:	48 63 d0             	movslq %eax,%rdx
   19e8e:	48 89 d0             	mov    %rdx,%rax
   19e91:	48 c1 e0 03          	shl    $0x3,%rax
   19e95:	48 01 d0             	add    %rdx,%rax
   19e98:	48 01 f0             	add    %rsi,%rax
   19e9b:	48 8d 14 08          	lea    (%rax,%rcx,1),%rdx
   19e9f:	48 8d 05 3a 67 00 00 	lea    0x673a(%rip),%rax        # 205e0 <g_1674>
   19ea6:	48 01 d0             	add    %rdx,%rax
   19ea9:	0f b6 00             	movzbl (%rax),%eax
   19eac:	83 e0 3f             	and    $0x3f,%eax
   19eaf:	0f b6 c0             	movzbl %al,%eax
   19eb2:	8b 55 fc             	mov    -0x4(%rbp),%edx
   19eb5:	48 8d 35 ad 2c 00 00 	lea    0x2cad(%rip),%rsi        # 1cb69 <g_2850+0x1a09>
   19ebc:	48 89 c7             	mov    %rax,%rdi
   19ebf:	e8 2f 28 ff ff       	callq  c6f3 <transparent_crc>
   19ec4:	83 7d fc 00          	cmpl   $0x0,-0x4(%rbp)
   19ec8:	74 1c                	je     19ee6 <main+0xa36>
   19eca:	8b 4d f8             	mov    -0x8(%rbp),%ecx
   19ecd:	8b 55 f4             	mov    -0xc(%rbp),%edx
   19ed0:	8b 45 f0             	mov    -0x10(%rbp),%eax
   19ed3:	89 c6                	mov    %eax,%esi
   19ed5:	48 8d 3d 87 2a 00 00 	lea    0x2a87(%rip),%rdi        # 1c963 <g_2850+0x1803>
   19edc:	b8 00 00 00 00       	mov    $0x0,%eax
   19ee1:	e8 9a 11 ff ff       	callq  b080 <printf@plt>
   19ee6:	83 45 f8 01          	addl   $0x1,-0x8(%rbp)
   19eea:	83 7d f8 00          	cmpl   $0x0,-0x8(%rbp)
   19eee:	7e 8c                	jle    19e7c <main+0x9cc>
   19ef0:	83 45 f4 01          	addl   $0x1,-0xc(%rbp)
   19ef4:	83 7d f4 08          	cmpl   $0x8,-0xc(%rbp)
   19ef8:	0f 8e 75 ff ff ff    	jle    19e73 <main+0x9c3>
   19efe:	83 45 f0 01          	addl   $0x1,-0x10(%rbp)
   19f02:	83 7d f0 05          	cmpl   $0x5,-0x10(%rbp)
   19f06:	0f 8e 5b ff ff ff    	jle    19e67 <main+0x9b7>
   19f0c:	48 8b 05 0d 67 00 00 	mov    0x670d(%rip),%rax        # 20620 <g_1697>
   19f13:	8b 55 fc             	mov    -0x4(%rbp),%edx
   19f16:	48 8d 35 5f 2c 00 00 	lea    0x2c5f(%rip),%rsi        # 1cb7c <g_2850+0x1a1c>
   19f1d:	48 89 c7             	mov    %rax,%rdi
   19f20:	e8 ce 27 ff ff       	callq  c6f3 <transparent_crc>
   19f25:	8b 05 fd 66 00 00    	mov    0x66fd(%rip),%eax        # 20628 <g_1697+0x8>
   19f2b:	48 98                	cltq   
   19f2d:	8b 55 fc             	mov    -0x4(%rbp),%edx
   19f30:	48 8d 35 4f 2c 00 00 	lea    0x2c4f(%rip),%rsi        # 1cb86 <g_2850+0x1a26>
   19f37:	48 89 c7             	mov    %rax,%rdi
   19f3a:	e8 b4 27 ff ff       	callq  c6f3 <transparent_crc>
   19f3f:	0f b7 05 e6 66 00 00 	movzwl 0x66e6(%rip),%eax        # 2062c <g_1697+0xc>
   19f46:	0f b7 c0             	movzwl %ax,%eax
   19f49:	8b 55 fc             	mov    -0x4(%rbp),%edx
   19f4c:	48 8d 35 3d 2c 00 00 	lea    0x2c3d(%rip),%rsi        # 1cb90 <g_2850+0x1a30>
   19f53:	48 89 c7             	mov    %rax,%rdi
   19f56:	e8 98 27 ff ff       	callq  c6f3 <transparent_crc>
   19f5b:	48 8b 05 ce 66 00 00 	mov    0x66ce(%rip),%rax        # 20630 <g_1697+0x10>
   19f62:	8b 55 fc             	mov    -0x4(%rbp),%edx
   19f65:	48 8d 35 2e 2c 00 00 	lea    0x2c2e(%rip),%rsi        # 1cb9a <g_2850+0x1a3a>
   19f6c:	48 89 c7             	mov    %rax,%rdi
   19f6f:	e8 7f 27 ff ff       	callq  c6f3 <transparent_crc>
   19f74:	8b 05 be 66 00 00    	mov    0x66be(%rip),%eax        # 20638 <g_1697+0x18>
   19f7a:	48 98                	cltq   
   19f7c:	8b 55 fc             	mov    -0x4(%rbp),%edx
   19f7f:	48 8d 35 1e 2c 00 00 	lea    0x2c1e(%rip),%rsi        # 1cba4 <g_2850+0x1a44>
   19f86:	48 89 c7             	mov    %rax,%rdi
   19f89:	e8 65 27 ff ff       	callq  c6f3 <transparent_crc>
   19f8e:	0f b7 05 a7 66 00 00 	movzwl 0x66a7(%rip),%eax        # 2063c <g_1697+0x1c>
   19f95:	48 0f bf c0          	movswq %ax,%rax
   19f99:	8b 55 fc             	mov    -0x4(%rbp),%edx
   19f9c:	48 8d 35 0b 2c 00 00 	lea    0x2c0b(%rip),%rsi        # 1cbae <g_2850+0x1a4e>
   19fa3:	48 89 c7             	mov    %rax,%rdi
   19fa6:	e8 48 27 ff ff       	callq  c6f3 <transparent_crc>
   19fab:	8b 05 8f 66 00 00    	mov    0x668f(%rip),%eax        # 20640 <g_1697+0x20>
   19fb1:	89 c1                	mov    %eax,%ecx
   19fb3:	8b 45 fc             	mov    -0x4(%rbp),%eax
   19fb6:	89 c2                	mov    %eax,%edx
   19fb8:	48 8d 35 f9 2b 00 00 	lea    0x2bf9(%rip),%rsi        # 1cbb8 <g_2850+0x1a58>
   19fbf:	48 89 cf             	mov    %rcx,%rdi
   19fc2:	e8 2c 27 ff ff       	callq  c6f3 <transparent_crc>
   19fc7:	0f b6 05 7a 66 00 00 	movzbl 0x667a(%rip),%eax        # 20648 <g_1719>
   19fce:	83 e0 3f             	and    $0x3f,%eax
   19fd1:	0f b6 c0             	movzbl %al,%eax
   19fd4:	8b 55 fc             	mov    -0x4(%rbp),%edx
   19fd7:	48 8d 35 e4 2b 00 00 	lea    0x2be4(%rip),%rsi        # 1cbc2 <g_2850+0x1a62>
   19fde:	48 89 c7             	mov    %rax,%rdi
   19fe1:	e8 0d 27 ff ff       	callq  c6f3 <transparent_crc>
   19fe6:	0f b6 05 5c 66 00 00 	movzbl 0x665c(%rip),%eax        # 20649 <g_1722>
   19fed:	83 e0 3f             	and    $0x3f,%eax
   19ff0:	0f b6 c0             	movzbl %al,%eax
   19ff3:	8b 55 fc             	mov    -0x4(%rbp),%edx
   19ff6:	48 8d 35 cf 2b 00 00 	lea    0x2bcf(%rip),%rsi        # 1cbcc <g_2850+0x1a6c>
   19ffd:	48 89 c7             	mov    %rax,%rdi
   1a000:	e8 ee 26 ff ff       	callq  c6f3 <transparent_crc>
   1a005:	48 8b 05 54 66 00 00 	mov    0x6654(%rip),%rax        # 20660 <g_1724>
   1a00c:	8b 55 fc             	mov    -0x4(%rbp),%edx
   1a00f:	48 8d 35 c0 2b 00 00 	lea    0x2bc0(%rip),%rsi        # 1cbd6 <g_2850+0x1a76>
   1a016:	48 89 c7             	mov    %rax,%rdi
   1a019:	e8 d5 26 ff ff       	callq  c6f3 <transparent_crc>
   1a01e:	8b 05 44 66 00 00    	mov    0x6644(%rip),%eax        # 20668 <g_1724+0x8>
   1a024:	48 98                	cltq   
   1a026:	8b 55 fc             	mov    -0x4(%rbp),%edx
   1a029:	48 8d 35 b0 2b 00 00 	lea    0x2bb0(%rip),%rsi        # 1cbe0 <g_2850+0x1a80>
   1a030:	48 89 c7             	mov    %rax,%rdi
   1a033:	e8 bb 26 ff ff       	callq  c6f3 <transparent_crc>
   1a038:	0f b7 05 2d 66 00 00 	movzwl 0x662d(%rip),%eax        # 2066c <g_1724+0xc>
   1a03f:	0f b7 c0             	movzwl %ax,%eax
   1a042:	8b 55 fc             	mov    -0x4(%rbp),%edx
   1a045:	48 8d 35 9e 2b 00 00 	lea    0x2b9e(%rip),%rsi        # 1cbea <g_2850+0x1a8a>
   1a04c:	48 89 c7             	mov    %rax,%rdi
   1a04f:	e8 9f 26 ff ff       	callq  c6f3 <transparent_crc>
   1a054:	48 8b 05 15 66 00 00 	mov    0x6615(%rip),%rax        # 20670 <g_1724+0x10>
   1a05b:	8b 55 fc             	mov    -0x4(%rbp),%edx
   1a05e:	48 8d 35 8f 2b 00 00 	lea    0x2b8f(%rip),%rsi        # 1cbf4 <g_2850+0x1a94>
   1a065:	48 89 c7             	mov    %rax,%rdi
   1a068:	e8 86 26 ff ff       	callq  c6f3 <transparent_crc>
   1a06d:	8b 05 05 66 00 00    	mov    0x6605(%rip),%eax        # 20678 <g_1724+0x18>
   1a073:	48 98                	cltq   
   1a075:	8b 55 fc             	mov    -0x4(%rbp),%edx
   1a078:	48 8d 35 7f 2b 00 00 	lea    0x2b7f(%rip),%rsi        # 1cbfe <g_2850+0x1a9e>
   1a07f:	48 89 c7             	mov    %rax,%rdi
   1a082:	e8 6c 26 ff ff       	callq  c6f3 <transparent_crc>
   1a087:	0f b7 05 ee 65 00 00 	movzwl 0x65ee(%rip),%eax        # 2067c <g_1724+0x1c>
   1a08e:	48 0f bf c0          	movswq %ax,%rax
   1a092:	8b 55 fc             	mov    -0x4(%rbp),%edx
   1a095:	48 8d 35 6c 2b 00 00 	lea    0x2b6c(%rip),%rsi        # 1cc08 <g_2850+0x1aa8>
   1a09c:	48 89 c7             	mov    %rax,%rdi
   1a09f:	e8 4f 26 ff ff       	callq  c6f3 <transparent_crc>
   1a0a4:	8b 05 d6 65 00 00    	mov    0x65d6(%rip),%eax        # 20680 <g_1724+0x20>
   1a0aa:	89 c1                	mov    %eax,%ecx
   1a0ac:	8b 45 fc             	mov    -0x4(%rbp),%eax
   1a0af:	89 c2                	mov    %eax,%edx
   1a0b1:	48 8d 35 5a 2b 00 00 	lea    0x2b5a(%rip),%rsi        # 1cc12 <g_2850+0x1ab2>
   1a0b8:	48 89 cf             	mov    %rcx,%rdi
   1a0bb:	e8 33 26 ff ff       	callq  c6f3 <transparent_crc>
   1a0c0:	48 8b 05 d9 65 00 00 	mov    0x65d9(%rip),%rax        # 206a0 <g_1725>
   1a0c7:	8b 55 fc             	mov    -0x4(%rbp),%edx
   1a0ca:	48 8d 35 4b 2b 00 00 	lea    0x2b4b(%rip),%rsi        # 1cc1c <g_2850+0x1abc>
   1a0d1:	48 89 c7             	mov    %rax,%rdi
   1a0d4:	e8 1a 26 ff ff       	callq  c6f3 <transparent_crc>
   1a0d9:	8b 05 c9 65 00 00    	mov    0x65c9(%rip),%eax        # 206a8 <g_1725+0x8>
   1a0df:	48 98                	cltq   
   1a0e1:	8b 55 fc             	mov    -0x4(%rbp),%edx
   1a0e4:	48 8d 35 3b 2b 00 00 	lea    0x2b3b(%rip),%rsi        # 1cc26 <g_2850+0x1ac6>
   1a0eb:	48 89 c7             	mov    %rax,%rdi
   1a0ee:	e8 00 26 ff ff       	callq  c6f3 <transparent_crc>
   1a0f3:	0f b7 05 b2 65 00 00 	movzwl 0x65b2(%rip),%eax        # 206ac <g_1725+0xc>
   1a0fa:	0f b7 c0             	movzwl %ax,%eax
   1a0fd:	8b 55 fc             	mov    -0x4(%rbp),%edx
   1a100:	48 8d 35 29 2b 00 00 	lea    0x2b29(%rip),%rsi        # 1cc30 <g_2850+0x1ad0>
   1a107:	48 89 c7             	mov    %rax,%rdi
   1a10a:	e8 e4 25 ff ff       	callq  c6f3 <transparent_crc>
   1a10f:	48 8b 05 9a 65 00 00 	mov    0x659a(%rip),%rax        # 206b0 <g_1725+0x10>
   1a116:	8b 55 fc             	mov    -0x4(%rbp),%edx
   1a119:	48 8d 35 1a 2b 00 00 	lea    0x2b1a(%rip),%rsi        # 1cc3a <g_2850+0x1ada>
   1a120:	48 89 c7             	mov    %rax,%rdi
   1a123:	e8 cb 25 ff ff       	callq  c6f3 <transparent_crc>
   1a128:	8b 05 8a 65 00 00    	mov    0x658a(%rip),%eax        # 206b8 <g_1725+0x18>
   1a12e:	48 98                	cltq   
   1a130:	8b 55 fc             	mov    -0x4(%rbp),%edx
   1a133:	48 8d 35 0a 2b 00 00 	lea    0x2b0a(%rip),%rsi        # 1cc44 <g_2850+0x1ae4>
   1a13a:	48 89 c7             	mov    %rax,%rdi
   1a13d:	e8 b1 25 ff ff       	callq  c6f3 <transparent_crc>
   1a142:	0f b7 05 73 65 00 00 	movzwl 0x6573(%rip),%eax        # 206bc <g_1725+0x1c>
   1a149:	48 0f bf c0          	movswq %ax,%rax
   1a14d:	8b 55 fc             	mov    -0x4(%rbp),%edx
   1a150:	48 8d 35 f7 2a 00 00 	lea    0x2af7(%rip),%rsi        # 1cc4e <g_2850+0x1aee>
   1a157:	48 89 c7             	mov    %rax,%rdi
   1a15a:	e8 94 25 ff ff       	callq  c6f3 <transparent_crc>
   1a15f:	8b 05 5b 65 00 00    	mov    0x655b(%rip),%eax        # 206c0 <g_1725+0x20>
   1a165:	89 c1                	mov    %eax,%ecx
   1a167:	8b 45 fc             	mov    -0x4(%rbp),%eax
   1a16a:	89 c2                	mov    %eax,%edx
   1a16c:	48 8d 35 e5 2a 00 00 	lea    0x2ae5(%rip),%rsi        # 1cc58 <g_2850+0x1af8>
   1a173:	48 89 cf             	mov    %rcx,%rdi
   1a176:	e8 78 25 ff ff       	callq  c6f3 <transparent_crc>
   1a17b:	0f b6 05 46 65 00 00 	movzbl 0x6546(%rip),%eax        # 206c8 <g_1765>
   1a182:	83 e0 3f             	and    $0x3f,%eax
   1a185:	0f b6 c0             	movzbl %al,%eax
   1a188:	8b 55 fc             	mov    -0x4(%rbp),%edx
   1a18b:	48 8d 35 d0 2a 00 00 	lea    0x2ad0(%rip),%rsi        # 1cc62 <g_2850+0x1b02>
   1a192:	48 89 c7             	mov    %rax,%rdi
   1a195:	e8 59 25 ff ff       	callq  c6f3 <transparent_crc>
   1a19a:	0f b6 05 28 65 00 00 	movzbl 0x6528(%rip),%eax        # 206c9 <g_1772>
   1a1a1:	83 e0 3f             	and    $0x3f,%eax
   1a1a4:	0f b6 c0             	movzbl %al,%eax
   1a1a7:	8b 55 fc             	mov    -0x4(%rbp),%edx
   1a1aa:	48 8d 35 bb 2a 00 00 	lea    0x2abb(%rip),%rsi        # 1cc6c <g_2850+0x1b0c>
   1a1b1:	48 89 c7             	mov    %rax,%rdi
   1a1b4:	e8 3a 25 ff ff       	callq  c6f3 <transparent_crc>
   1a1b9:	c7 45 f0 00 00 00 00 	movl   $0x0,-0x10(%rbp)
   1a1c0:	eb 75                	jmp    1a237 <main+0xd87>
   1a1c2:	c7 45 f4 00 00 00 00 	movl   $0x0,-0xc(%rbp)
   1a1c9:	eb 62                	jmp    1a22d <main+0xd7d>
   1a1cb:	8b 45 f4             	mov    -0xc(%rbp),%eax
   1a1ce:	48 63 c8             	movslq %eax,%rcx
   1a1d1:	8b 45 f0             	mov    -0x10(%rbp),%eax
   1a1d4:	48 63 d0             	movslq %eax,%rdx
   1a1d7:	48 89 d0             	mov    %rdx,%rax
   1a1da:	48 c1 e0 02          	shl    $0x2,%rax
   1a1de:	48 01 d0             	add    %rdx,%rax
   1a1e1:	48 8d 14 08          	lea    (%rax,%rcx,1),%rdx
   1a1e5:	48 8d 05 e4 64 00 00 	lea    0x64e4(%rip),%rax        # 206d0 <g_1815>
   1a1ec:	48 01 d0             	add    %rdx,%rax
   1a1ef:	0f b6 00             	movzbl (%rax),%eax
   1a1f2:	83 e0 3f             	and    $0x3f,%eax
   1a1f5:	0f b6 c0             	movzbl %al,%eax
   1a1f8:	8b 55 fc             	mov    -0x4(%rbp),%edx
   1a1fb:	48 8d 35 74 2a 00 00 	lea    0x2a74(%rip),%rsi        # 1cc76 <g_2850+0x1b16>
   1a202:	48 89 c7             	mov    %rax,%rdi
   1a205:	e8 e9 24 ff ff       	callq  c6f3 <transparent_crc>
   1a20a:	83 7d fc 00          	cmpl   $0x0,-0x4(%rbp)
   1a20e:	74 19                	je     1a229 <main+0xd79>
   1a210:	8b 55 f4             	mov    -0xc(%rbp),%edx
   1a213:	8b 45 f0             	mov    -0x10(%rbp),%eax
   1a216:	89 c6                	mov    %eax,%esi
   1a218:	48 8d 3d f6 26 00 00 	lea    0x26f6(%rip),%rdi        # 1c915 <g_2850+0x17b5>
   1a21f:	b8 00 00 00 00       	mov    $0x0,%eax
   1a224:	e8 57 0e ff ff       	callq  b080 <printf@plt>
   1a229:	83 45 f4 01          	addl   $0x1,-0xc(%rbp)
   1a22d:	83 7d f4 04          	cmpl   $0x4,-0xc(%rbp)
   1a231:	7e 98                	jle    1a1cb <main+0xd1b>
   1a233:	83 45 f0 01          	addl   $0x1,-0x10(%rbp)
   1a237:	83 7d f0 05          	cmpl   $0x5,-0x10(%rbp)
   1a23b:	7e 85                	jle    1a1c2 <main+0xd12>
   1a23d:	0f b6 05 aa 64 00 00 	movzbl 0x64aa(%rip),%eax        # 206ee <g_1880>
   1a244:	0f b6 c0             	movzbl %al,%eax
   1a247:	8b 55 fc             	mov    -0x4(%rbp),%edx
   1a24a:	48 8d 35 35 2a 00 00 	lea    0x2a35(%rip),%rsi        # 1cc86 <g_2850+0x1b26>
   1a251:	48 89 c7             	mov    %rax,%rdi
   1a254:	e8 9a 24 ff ff       	callq  c6f3 <transparent_crc>
   1a259:	0f b6 05 8f 64 00 00 	movzbl 0x648f(%rip),%eax        # 206ef <g_1888>
   1a260:	83 e0 3f             	and    $0x3f,%eax
   1a263:	0f b6 c0             	movzbl %al,%eax
   1a266:	8b 55 fc             	mov    -0x4(%rbp),%edx
   1a269:	48 8d 35 1d 2a 00 00 	lea    0x2a1d(%rip),%rsi        # 1cc8d <g_2850+0x1b2d>
   1a270:	48 89 c7             	mov    %rax,%rdi
   1a273:	e8 7b 24 ff ff       	callq  c6f3 <transparent_crc>
   1a278:	0f b6 05 71 64 00 00 	movzbl 0x6471(%rip),%eax        # 206f0 <g_1920>
   1a27f:	83 e0 3f             	and    $0x3f,%eax
   1a282:	0f b6 c0             	movzbl %al,%eax
   1a285:	8b 55 fc             	mov    -0x4(%rbp),%edx
   1a288:	48 8d 35 08 2a 00 00 	lea    0x2a08(%rip),%rsi        # 1cc97 <g_2850+0x1b37>
   1a28f:	48 89 c7             	mov    %rax,%rdi
   1a292:	e8 5c 24 ff ff       	callq  c6f3 <transparent_crc>
   1a297:	8b 05 57 64 00 00    	mov    0x6457(%rip),%eax        # 206f4 <g_1983>
   1a29d:	48 98                	cltq   
   1a29f:	8b 55 fc             	mov    -0x4(%rbp),%edx
   1a2a2:	48 8d 35 f8 29 00 00 	lea    0x29f8(%rip),%rsi        # 1cca1 <g_2850+0x1b41>
   1a2a9:	48 89 c7             	mov    %rax,%rdi
   1a2ac:	e8 42 24 ff ff       	callq  c6f3 <transparent_crc>
   1a2b1:	8b 05 41 64 00 00    	mov    0x6441(%rip),%eax        # 206f8 <g_2008>
   1a2b7:	48 98                	cltq   
   1a2b9:	8b 55 fc             	mov    -0x4(%rbp),%edx
   1a2bc:	48 8d 35 e5 29 00 00 	lea    0x29e5(%rip),%rsi        # 1cca8 <g_2850+0x1b48>
   1a2c3:	48 89 c7             	mov    %rax,%rdi
   1a2c6:	e8 28 24 ff ff       	callq  c6f3 <transparent_crc>
   1a2cb:	8b 05 2b 64 00 00    	mov    0x642b(%rip),%eax        # 206fc <g_2009>
   1a2d1:	48 98                	cltq   
   1a2d3:	8b 55 fc             	mov    -0x4(%rbp),%edx
   1a2d6:	48 8d 35 d2 29 00 00 	lea    0x29d2(%rip),%rsi        # 1ccaf <g_2850+0x1b4f>
   1a2dd:	48 89 c7             	mov    %rax,%rdi
   1a2e0:	e8 0e 24 ff ff       	callq  c6f3 <transparent_crc>
   1a2e5:	c7 45 f0 00 00 00 00 	movl   $0x0,-0x10(%rbp)
   1a2ec:	e9 a5 00 00 00       	jmpq   1a396 <main+0xee6>
   1a2f1:	c7 45 f4 00 00 00 00 	movl   $0x0,-0xc(%rbp)
   1a2f8:	e9 8b 00 00 00       	jmpq   1a388 <main+0xed8>
   1a2fd:	c7 45 f8 00 00 00 00 	movl   $0x0,-0x8(%rbp)
   1a304:	eb 78                	jmp    1a37e <main+0xece>
   1a306:	8b 45 f8             	mov    -0x8(%rbp),%eax
   1a309:	48 63 f0             	movslq %eax,%rsi
   1a30c:	8b 45 f0             	mov    -0x10(%rbp),%eax
   1a30f:	48 63 d0             	movslq %eax,%rdx
   1a312:	8b 45 f4             	mov    -0xc(%rbp),%eax
   1a315:	48 63 c8             	movslq %eax,%rcx
   1a318:	48 89 d0             	mov    %rdx,%rax
   1a31b:	48 01 c0             	add    %rax,%rax
   1a31e:	48 01 d0             	add    %rdx,%rax
   1a321:	48 01 c0             	add    %rax,%rax
   1a324:	48 89 ca             	mov    %rcx,%rdx
   1a327:	48 01 d2             	add    %rdx,%rdx
   1a32a:	48 01 ca             	add    %rcx,%rdx
   1a32d:	48 01 d0             	add    %rdx,%rax
   1a330:	48 01 f0             	add    %rsi,%rax
   1a333:	48 8d 14 00          	lea    (%rax,%rax,1),%rdx
   1a337:	48 8d 05 e2 0d 00 00 	lea    0xde2(%rip),%rax        # 1b120 <g_2018>
   1a33e:	0f b7 04 02          	movzwl (%rdx,%rax,1),%eax
   1a342:	48 0f bf c0          	movswq %ax,%rax
   1a346:	8b 55 fc             	mov    -0x4(%rbp),%edx
   1a349:	48 8d 35 66 29 00 00 	lea    0x2966(%rip),%rsi        # 1ccb6 <g_2850+0x1b56>
   1a350:	48 89 c7             	mov    %rax,%rdi
   1a353:	e8 9b 23 ff ff       	callq  c6f3 <transparent_crc>
   1a358:	83 7d fc 00          	cmpl   $0x0,-0x4(%rbp)
   1a35c:	74 1c                	je     1a37a <main+0xeca>
   1a35e:	8b 4d f8             	mov    -0x8(%rbp),%ecx
   1a361:	8b 55 f4             	mov    -0xc(%rbp),%edx
   1a364:	8b 45 f0             	mov    -0x10(%rbp),%eax
   1a367:	89 c6                	mov    %eax,%esi
   1a369:	48 8d 3d f3 25 00 00 	lea    0x25f3(%rip),%rdi        # 1c963 <g_2850+0x1803>
   1a370:	b8 00 00 00 00       	mov    $0x0,%eax
   1a375:	e8 06 0d ff ff       	callq  b080 <printf@plt>
   1a37a:	83 45 f8 01          	addl   $0x1,-0x8(%rbp)
   1a37e:	83 7d f8 02          	cmpl   $0x2,-0x8(%rbp)
   1a382:	7e 82                	jle    1a306 <main+0xe56>
   1a384:	83 45 f4 01          	addl   $0x1,-0xc(%rbp)
   1a388:	83 7d f4 01          	cmpl   $0x1,-0xc(%rbp)
   1a38c:	0f 8e 6b ff ff ff    	jle    1a2fd <main+0xe4d>
   1a392:	83 45 f0 01          	addl   $0x1,-0x10(%rbp)
   1a396:	83 7d f0 04          	cmpl   $0x4,-0x10(%rbp)
   1a39a:	0f 8e 51 ff ff ff    	jle    1a2f1 <main+0xe41>
   1a3a0:	8b 05 5a 63 00 00    	mov    0x635a(%rip),%eax        # 20700 <g_2027>
   1a3a6:	48 98                	cltq   
   1a3a8:	8b 55 fc             	mov    -0x4(%rbp),%edx
   1a3ab:	48 8d 35 14 29 00 00 	lea    0x2914(%rip),%rsi        # 1ccc6 <g_2850+0x1b66>
   1a3b2:	48 89 c7             	mov    %rax,%rdi
   1a3b5:	e8 39 23 ff ff       	callq  c6f3 <transparent_crc>
   1a3ba:	48 8b 05 5f 63 00 00 	mov    0x635f(%rip),%rax        # 20720 <g_2042>
   1a3c1:	8b 55 fc             	mov    -0x4(%rbp),%edx
   1a3c4:	48 8d 35 02 29 00 00 	lea    0x2902(%rip),%rsi        # 1cccd <g_2850+0x1b6d>
   1a3cb:	48 89 c7             	mov    %rax,%rdi
   1a3ce:	e8 20 23 ff ff       	callq  c6f3 <transparent_crc>
   1a3d3:	8b 05 4f 63 00 00    	mov    0x634f(%rip),%eax        # 20728 <g_2042+0x8>
   1a3d9:	48 98                	cltq   
   1a3db:	8b 55 fc             	mov    -0x4(%rbp),%edx
   1a3de:	48 8d 35 f2 28 00 00 	lea    0x28f2(%rip),%rsi        # 1ccd7 <g_2850+0x1b77>
   1a3e5:	48 89 c7             	mov    %rax,%rdi
   1a3e8:	e8 06 23 ff ff       	callq  c6f3 <transparent_crc>
   1a3ed:	0f b7 05 38 63 00 00 	movzwl 0x6338(%rip),%eax        # 2072c <g_2042+0xc>
   1a3f4:	0f b7 c0             	movzwl %ax,%eax
   1a3f7:	8b 55 fc             	mov    -0x4(%rbp),%edx
   1a3fa:	48 8d 35 e0 28 00 00 	lea    0x28e0(%rip),%rsi        # 1cce1 <g_2850+0x1b81>
   1a401:	48 89 c7             	mov    %rax,%rdi
   1a404:	e8 ea 22 ff ff       	callq  c6f3 <transparent_crc>
   1a409:	48 8b 05 20 63 00 00 	mov    0x6320(%rip),%rax        # 20730 <g_2042+0x10>
   1a410:	8b 55 fc             	mov    -0x4(%rbp),%edx
   1a413:	48 8d 35 d1 28 00 00 	lea    0x28d1(%rip),%rsi        # 1cceb <g_2850+0x1b8b>
   1a41a:	48 89 c7             	mov    %rax,%rdi
   1a41d:	e8 d1 22 ff ff       	callq  c6f3 <transparent_crc>
   1a422:	8b 05 10 63 00 00    	mov    0x6310(%rip),%eax        # 20738 <g_2042+0x18>
   1a428:	48 98                	cltq   
   1a42a:	8b 55 fc             	mov    -0x4(%rbp),%edx
   1a42d:	48 8d 35 c1 28 00 00 	lea    0x28c1(%rip),%rsi        # 1ccf5 <g_2850+0x1b95>
   1a434:	48 89 c7             	mov    %rax,%rdi
   1a437:	e8 b7 22 ff ff       	callq  c6f3 <transparent_crc>
   1a43c:	0f b7 05 f9 62 00 00 	movzwl 0x62f9(%rip),%eax        # 2073c <g_2042+0x1c>
   1a443:	48 0f bf c0          	movswq %ax,%rax
   1a447:	8b 55 fc             	mov    -0x4(%rbp),%edx
   1a44a:	48 8d 35 ae 28 00 00 	lea    0x28ae(%rip),%rsi        # 1ccff <g_2850+0x1b9f>
   1a451:	48 89 c7             	mov    %rax,%rdi
   1a454:	e8 9a 22 ff ff       	callq  c6f3 <transparent_crc>
   1a459:	8b 05 e1 62 00 00    	mov    0x62e1(%rip),%eax        # 20740 <g_2042+0x20>
   1a45f:	89 c1                	mov    %eax,%ecx
   1a461:	8b 45 fc             	mov    -0x4(%rbp),%eax
   1a464:	89 c2                	mov    %eax,%edx
   1a466:	48 8d 35 9c 28 00 00 	lea    0x289c(%rip),%rsi        # 1cd09 <g_2850+0x1ba9>
   1a46d:	48 89 cf             	mov    %rcx,%rdi
   1a470:	e8 7e 22 ff ff       	callq  c6f3 <transparent_crc>
   1a475:	0f b7 05 cc 62 00 00 	movzwl 0x62cc(%rip),%eax        # 20748 <g_2061>
   1a47c:	48 0f bf c0          	movswq %ax,%rax
   1a480:	8b 55 fc             	mov    -0x4(%rbp),%edx
   1a483:	48 8d 35 89 28 00 00 	lea    0x2889(%rip),%rsi        # 1cd13 <g_2850+0x1bb3>
   1a48a:	48 89 c7             	mov    %rax,%rdi
   1a48d:	e8 61 22 ff ff       	callq  c6f3 <transparent_crc>
   1a492:	c7 45 f0 00 00 00 00 	movl   $0x0,-0x10(%rbp)
   1a499:	eb 4a                	jmp    1a4e5 <main+0x1035>
   1a49b:	8b 45 f0             	mov    -0x10(%rbp),%eax
   1a49e:	48 98                	cltq   
   1a4a0:	48 8d 14 00          	lea    (%rax,%rax,1),%rdx
   1a4a4:	48 8d 05 a5 62 00 00 	lea    0x62a5(%rip),%rax        # 20750 <g_2062>
   1a4ab:	0f b7 04 02          	movzwl (%rdx,%rax,1),%eax
   1a4af:	48 0f bf c0          	movswq %ax,%rax
   1a4b3:	8b 55 fc             	mov    -0x4(%rbp),%edx
   1a4b6:	48 8d 35 5d 28 00 00 	lea    0x285d(%rip),%rsi        # 1cd1a <g_2850+0x1bba>
   1a4bd:	48 89 c7             	mov    %rax,%rdi
   1a4c0:	e8 2e 22 ff ff       	callq  c6f3 <transparent_crc>
   1a4c5:	83 7d fc 00          	cmpl   $0x0,-0x4(%rbp)
   1a4c9:	74 16                	je     1a4e1 <main+0x1031>
   1a4cb:	8b 45 f0             	mov    -0x10(%rbp),%eax
   1a4ce:	89 c6                	mov    %eax,%esi
   1a4d0:	48 8d 3d 6f 24 00 00 	lea    0x246f(%rip),%rdi        # 1c946 <g_2850+0x17e6>
   1a4d7:	b8 00 00 00 00       	mov    $0x0,%eax
   1a4dc:	e8 9f 0b ff ff       	callq  b080 <printf@plt>
   1a4e1:	83 45 f0 01          	addl   $0x1,-0x10(%rbp)
   1a4e5:	83 7d f0 04          	cmpl   $0x4,-0x10(%rbp)
   1a4e9:	7e b0                	jle    1a49b <main+0xfeb>
   1a4eb:	0f b7 05 4e a7 00 00 	movzwl 0xa74e(%rip),%eax        # 24c40 <g_2063>
   1a4f2:	48 0f bf c0          	movswq %ax,%rax
   1a4f6:	8b 55 fc             	mov    -0x4(%rbp),%edx
   1a4f9:	48 8d 35 24 28 00 00 	lea    0x2824(%rip),%rsi        # 1cd24 <g_2850+0x1bc4>
   1a500:	48 89 c7             	mov    %rax,%rdi
   1a503:	e8 eb 21 ff ff       	callq  c6f3 <transparent_crc>
   1a508:	0f b7 05 4b 62 00 00 	movzwl 0x624b(%rip),%eax        # 2075a <g_2064>
   1a50f:	48 0f bf c0          	movswq %ax,%rax
   1a513:	8b 55 fc             	mov    -0x4(%rbp),%edx
   1a516:	48 8d 35 0e 28 00 00 	lea    0x280e(%rip),%rsi        # 1cd2b <g_2850+0x1bcb>
   1a51d:	48 89 c7             	mov    %rax,%rdi
   1a520:	e8 ce 21 ff ff       	callq  c6f3 <transparent_crc>
   1a525:	0f b7 05 30 62 00 00 	movzwl 0x6230(%rip),%eax        # 2075c <g_2065>
   1a52c:	48 0f bf c0          	movswq %ax,%rax
   1a530:	8b 55 fc             	mov    -0x4(%rbp),%edx
   1a533:	48 8d 35 f8 27 00 00 	lea    0x27f8(%rip),%rsi        # 1cd32 <g_2850+0x1bd2>
   1a53a:	48 89 c7             	mov    %rax,%rdi
   1a53d:	e8 b1 21 ff ff       	callq  c6f3 <transparent_crc>
   1a542:	0f b7 05 15 62 00 00 	movzwl 0x6215(%rip),%eax        # 2075e <g_2066>
   1a549:	48 0f bf c0          	movswq %ax,%rax
   1a54d:	8b 55 fc             	mov    -0x4(%rbp),%edx
   1a550:	48 8d 35 e2 27 00 00 	lea    0x27e2(%rip),%rsi        # 1cd39 <g_2850+0x1bd9>
   1a557:	48 89 c7             	mov    %rax,%rdi
   1a55a:	e8 94 21 ff ff       	callq  c6f3 <transparent_crc>
   1a55f:	0f b7 05 fa 61 00 00 	movzwl 0x61fa(%rip),%eax        # 20760 <g_2067>
   1a566:	48 0f bf c0          	movswq %ax,%rax
   1a56a:	8b 55 fc             	mov    -0x4(%rbp),%edx
   1a56d:	48 8d 35 cc 27 00 00 	lea    0x27cc(%rip),%rsi        # 1cd40 <g_2850+0x1be0>
   1a574:	48 89 c7             	mov    %rax,%rdi
   1a577:	e8 77 21 ff ff       	callq  c6f3 <transparent_crc>
   1a57c:	0f b7 05 df 61 00 00 	movzwl 0x61df(%rip),%eax        # 20762 <g_2068>
   1a583:	48 0f bf c0          	movswq %ax,%rax
   1a587:	8b 55 fc             	mov    -0x4(%rbp),%edx
   1a58a:	48 8d 35 b6 27 00 00 	lea    0x27b6(%rip),%rsi        # 1cd47 <g_2850+0x1be7>
   1a591:	48 89 c7             	mov    %rax,%rdi
   1a594:	e8 5a 21 ff ff       	callq  c6f3 <transparent_crc>
   1a599:	0f b7 05 c4 61 00 00 	movzwl 0x61c4(%rip),%eax        # 20764 <g_2069>
   1a5a0:	48 0f bf c0          	movswq %ax,%rax
   1a5a4:	8b 55 fc             	mov    -0x4(%rbp),%edx
   1a5a7:	48 8d 35 a0 27 00 00 	lea    0x27a0(%rip),%rsi        # 1cd4e <g_2850+0x1bee>
   1a5ae:	48 89 c7             	mov    %rax,%rdi
   1a5b1:	e8 3d 21 ff ff       	callq  c6f3 <transparent_crc>
   1a5b6:	0f b7 05 a9 61 00 00 	movzwl 0x61a9(%rip),%eax        # 20766 <g_2070>
   1a5bd:	48 0f bf c0          	movswq %ax,%rax
   1a5c1:	8b 55 fc             	mov    -0x4(%rbp),%edx
   1a5c4:	48 8d 35 8a 27 00 00 	lea    0x278a(%rip),%rsi        # 1cd55 <g_2850+0x1bf5>
   1a5cb:	48 89 c7             	mov    %rax,%rdi
   1a5ce:	e8 20 21 ff ff       	callq  c6f3 <transparent_crc>
   1a5d3:	0f b7 05 8e 61 00 00 	movzwl 0x618e(%rip),%eax        # 20768 <g_2071>
   1a5da:	48 0f bf c0          	movswq %ax,%rax
   1a5de:	8b 55 fc             	mov    -0x4(%rbp),%edx
   1a5e1:	48 8d 35 74 27 00 00 	lea    0x2774(%rip),%rsi        # 1cd5c <g_2850+0x1bfc>
   1a5e8:	48 89 c7             	mov    %rax,%rdi
   1a5eb:	e8 03 21 ff ff       	callq  c6f3 <transparent_crc>
   1a5f0:	8b 05 76 61 00 00    	mov    0x6176(%rip),%eax        # 2076c <g_2092>
   1a5f6:	89 c1                	mov    %eax,%ecx
   1a5f8:	8b 45 fc             	mov    -0x4(%rbp),%eax
   1a5fb:	89 c2                	mov    %eax,%edx
   1a5fd:	48 8d 35 5f 27 00 00 	lea    0x275f(%rip),%rsi        # 1cd63 <g_2850+0x1c03>
   1a604:	48 89 cf             	mov    %rcx,%rdi
   1a607:	e8 e7 20 ff ff       	callq  c6f3 <transparent_crc>
   1a60c:	8b 05 5e 61 00 00    	mov    0x615e(%rip),%eax        # 20770 <g_2143>
   1a612:	48 98                	cltq   
   1a614:	8b 55 fc             	mov    -0x4(%rbp),%edx
   1a617:	48 8d 35 4c 27 00 00 	lea    0x274c(%rip),%rsi        # 1cd6a <g_2850+0x1c0a>
   1a61e:	48 89 c7             	mov    %rax,%rdi
   1a621:	e8 cd 20 ff ff       	callq  c6f3 <transparent_crc>
   1a626:	0f b6 05 47 61 00 00 	movzbl 0x6147(%rip),%eax        # 20774 <g_2145>
   1a62d:	0f b6 c0             	movzbl %al,%eax
   1a630:	8b 55 fc             	mov    -0x4(%rbp),%edx
   1a633:	48 8d 35 37 27 00 00 	lea    0x2737(%rip),%rsi        # 1cd71 <g_2850+0x1c11>
   1a63a:	48 89 c7             	mov    %rax,%rdi
   1a63d:	e8 b1 20 ff ff       	callq  c6f3 <transparent_crc>
   1a642:	0f b6 05 07 a6 00 00 	movzbl 0xa607(%rip),%eax        # 24c50 <g_2248>
   1a649:	83 e0 3f             	and    $0x3f,%eax
   1a64c:	0f b6 c0             	movzbl %al,%eax
   1a64f:	8b 55 fc             	mov    -0x4(%rbp),%edx
   1a652:	48 8d 35 1f 27 00 00 	lea    0x271f(%rip),%rsi        # 1cd78 <g_2850+0x1c18>
   1a659:	48 89 c7             	mov    %rax,%rdi
   1a65c:	e8 92 20 ff ff       	callq  c6f3 <transparent_crc>
   1a661:	c7 45 f0 00 00 00 00 	movl   $0x0,-0x10(%rbp)
   1a668:	eb 4a                	jmp    1a6b4 <main+0x1204>
   1a66a:	8b 45 f0             	mov    -0x10(%rbp),%eax
   1a66d:	48 98                	cltq   
   1a66f:	48 8d 14 c5 00 00 00 	lea    0x0(,%rax,8),%rdx
   1a676:	00 
   1a677:	48 8d 05 02 61 00 00 	lea    0x6102(%rip),%rax        # 20780 <g_2255>
   1a67e:	48 8b 04 02          	mov    (%rdx,%rax,1),%rax
   1a682:	8b 55 fc             	mov    -0x4(%rbp),%edx
   1a685:	48 8d 35 f6 26 00 00 	lea    0x26f6(%rip),%rsi        # 1cd82 <g_2850+0x1c22>
   1a68c:	48 89 c7             	mov    %rax,%rdi
   1a68f:	e8 5f 20 ff ff       	callq  c6f3 <transparent_crc>
   1a694:	83 7d fc 00          	cmpl   $0x0,-0x4(%rbp)
   1a698:	74 16                	je     1a6b0 <main+0x1200>
   1a69a:	8b 45 f0             	mov    -0x10(%rbp),%eax
   1a69d:	89 c6                	mov    %eax,%esi
   1a69f:	48 8d 3d a0 22 00 00 	lea    0x22a0(%rip),%rdi        # 1c946 <g_2850+0x17e6>
   1a6a6:	b8 00 00 00 00       	mov    $0x0,%eax
   1a6ab:	e8 d0 09 ff ff       	callq  b080 <printf@plt>
   1a6b0:	83 45 f0 01          	addl   $0x1,-0x10(%rbp)
   1a6b4:	83 7d f0 01          	cmpl   $0x1,-0x10(%rbp)
   1a6b8:	7e b0                	jle    1a66a <main+0x11ba>
   1a6ba:	0f b6 05 cf 60 00 00 	movzbl 0x60cf(%rip),%eax        # 20790 <g_2273>
   1a6c1:	83 e0 3f             	and    $0x3f,%eax
   1a6c4:	0f b6 c0             	movzbl %al,%eax
   1a6c7:	8b 55 fc             	mov    -0x4(%rbp),%edx
   1a6ca:	48 8d 35 bb 26 00 00 	lea    0x26bb(%rip),%rsi        # 1cd8c <g_2850+0x1c2c>
   1a6d1:	48 89 c7             	mov    %rax,%rdi
   1a6d4:	e8 1a 20 ff ff       	callq  c6f3 <transparent_crc>
   1a6d9:	0f b6 05 b1 60 00 00 	movzbl 0x60b1(%rip),%eax        # 20791 <g_2292>
   1a6e0:	83 e0 3f             	and    $0x3f,%eax
   1a6e3:	0f b6 c0             	movzbl %al,%eax
   1a6e6:	8b 55 fc             	mov    -0x4(%rbp),%edx
   1a6e9:	48 8d 35 a6 26 00 00 	lea    0x26a6(%rip),%rsi        # 1cd96 <g_2850+0x1c36>
   1a6f0:	48 89 c7             	mov    %rax,%rdi
   1a6f3:	e8 fb 1f ff ff       	callq  c6f3 <transparent_crc>
   1a6f8:	0f b7 05 93 60 00 00 	movzwl 0x6093(%rip),%eax        # 20792 <g_2365>
   1a6ff:	48 0f bf c0          	movswq %ax,%rax
   1a703:	8b 55 fc             	mov    -0x4(%rbp),%edx
   1a706:	48 8d 35 93 26 00 00 	lea    0x2693(%rip),%rsi        # 1cda0 <g_2850+0x1c40>
   1a70d:	48 89 c7             	mov    %rax,%rdi
   1a710:	e8 de 1f ff ff       	callq  c6f3 <transparent_crc>
   1a715:	8b 05 79 60 00 00    	mov    0x6079(%rip),%eax        # 20794 <g_2454>
   1a71b:	89 c1                	mov    %eax,%ecx
   1a71d:	8b 45 fc             	mov    -0x4(%rbp),%eax
   1a720:	89 c2                	mov    %eax,%edx
   1a722:	48 8d 35 7e 26 00 00 	lea    0x267e(%rip),%rsi        # 1cda7 <g_2850+0x1c47>
   1a729:	48 89 cf             	mov    %rcx,%rdi
   1a72c:	e8 c2 1f ff ff       	callq  c6f3 <transparent_crc>
   1a731:	48 8b 05 68 60 00 00 	mov    0x6068(%rip),%rax        # 207a0 <g_2577>
   1a738:	8b 55 fc             	mov    -0x4(%rbp),%edx
   1a73b:	48 8d 35 6c 26 00 00 	lea    0x266c(%rip),%rsi        # 1cdae <g_2850+0x1c4e>
   1a742:	48 89 c7             	mov    %rax,%rdi
   1a745:	e8 a9 1f ff ff       	callq  c6f3 <transparent_crc>
   1a74a:	8b 05 58 60 00 00    	mov    0x6058(%rip),%eax        # 207a8 <g_2577+0x8>
   1a750:	48 98                	cltq   
   1a752:	8b 55 fc             	mov    -0x4(%rbp),%edx
   1a755:	48 8d 35 5c 26 00 00 	lea    0x265c(%rip),%rsi        # 1cdb8 <g_2850+0x1c58>
   1a75c:	48 89 c7             	mov    %rax,%rdi
   1a75f:	e8 8f 1f ff ff       	callq  c6f3 <transparent_crc>
   1a764:	0f b7 05 41 60 00 00 	movzwl 0x6041(%rip),%eax        # 207ac <g_2577+0xc>
   1a76b:	0f b7 c0             	movzwl %ax,%eax
   1a76e:	8b 55 fc             	mov    -0x4(%rbp),%edx
   1a771:	48 8d 35 4a 26 00 00 	lea    0x264a(%rip),%rsi        # 1cdc2 <g_2850+0x1c62>
   1a778:	48 89 c7             	mov    %rax,%rdi
   1a77b:	e8 73 1f ff ff       	callq  c6f3 <transparent_crc>
   1a780:	48 8b 05 29 60 00 00 	mov    0x6029(%rip),%rax        # 207b0 <g_2577+0x10>
   1a787:	8b 55 fc             	mov    -0x4(%rbp),%edx
   1a78a:	48 8d 35 3b 26 00 00 	lea    0x263b(%rip),%rsi        # 1cdcc <g_2850+0x1c6c>
   1a791:	48 89 c7             	mov    %rax,%rdi
   1a794:	e8 5a 1f ff ff       	callq  c6f3 <transparent_crc>
   1a799:	8b 05 19 60 00 00    	mov    0x6019(%rip),%eax        # 207b8 <g_2577+0x18>
   1a79f:	48 98                	cltq   
   1a7a1:	8b 55 fc             	mov    -0x4(%rbp),%edx
   1a7a4:	48 8d 35 2b 26 00 00 	lea    0x262b(%rip),%rsi        # 1cdd6 <g_2850+0x1c76>
   1a7ab:	48 89 c7             	mov    %rax,%rdi
   1a7ae:	e8 40 1f ff ff       	callq  c6f3 <transparent_crc>
   1a7b3:	0f b7 05 02 60 00 00 	movzwl 0x6002(%rip),%eax        # 207bc <g_2577+0x1c>
   1a7ba:	48 0f bf c0          	movswq %ax,%rax
   1a7be:	8b 55 fc             	mov    -0x4(%rbp),%edx
   1a7c1:	48 8d 35 18 26 00 00 	lea    0x2618(%rip),%rsi        # 1cde0 <g_2850+0x1c80>
   1a7c8:	48 89 c7             	mov    %rax,%rdi
   1a7cb:	e8 23 1f ff ff       	callq  c6f3 <transparent_crc>
   1a7d0:	8b 05 ea 5f 00 00    	mov    0x5fea(%rip),%eax        # 207c0 <g_2577+0x20>
   1a7d6:	89 c1                	mov    %eax,%ecx
   1a7d8:	8b 45 fc             	mov    -0x4(%rbp),%eax
   1a7db:	89 c2                	mov    %eax,%edx
   1a7dd:	48 8d 35 06 26 00 00 	lea    0x2606(%rip),%rsi        # 1cdea <g_2850+0x1c8a>
   1a7e4:	48 89 cf             	mov    %rcx,%rdi
   1a7e7:	e8 07 1f ff ff       	callq  c6f3 <transparent_crc>
   1a7ec:	48 8b 05 ed 5f 00 00 	mov    0x5fed(%rip),%rax        # 207e0 <g_2604>
   1a7f3:	8b 55 fc             	mov    -0x4(%rbp),%edx
   1a7f6:	48 8d 35 f7 25 00 00 	lea    0x25f7(%rip),%rsi        # 1cdf4 <g_2850+0x1c94>
   1a7fd:	48 89 c7             	mov    %rax,%rdi
   1a800:	e8 ee 1e ff ff       	callq  c6f3 <transparent_crc>
   1a805:	8b 05 dd 5f 00 00    	mov    0x5fdd(%rip),%eax        # 207e8 <g_2604+0x8>
   1a80b:	48 98                	cltq   
   1a80d:	8b 55 fc             	mov    -0x4(%rbp),%edx
   1a810:	48 8d 35 e7 25 00 00 	lea    0x25e7(%rip),%rsi        # 1cdfe <g_2850+0x1c9e>
   1a817:	48 89 c7             	mov    %rax,%rdi
   1a81a:	e8 d4 1e ff ff       	callq  c6f3 <transparent_crc>
   1a81f:	0f b7 05 c6 5f 00 00 	movzwl 0x5fc6(%rip),%eax        # 207ec <g_2604+0xc>
   1a826:	0f b7 c0             	movzwl %ax,%eax
   1a829:	8b 55 fc             	mov    -0x4(%rbp),%edx
   1a82c:	48 8d 35 d5 25 00 00 	lea    0x25d5(%rip),%rsi        # 1ce08 <g_2850+0x1ca8>
   1a833:	48 89 c7             	mov    %rax,%rdi
   1a836:	e8 b8 1e ff ff       	callq  c6f3 <transparent_crc>
   1a83b:	48 8b 05 ae 5f 00 00 	mov    0x5fae(%rip),%rax        # 207f0 <g_2604+0x10>
   1a842:	8b 55 fc             	mov    -0x4(%rbp),%edx
   1a845:	48 8d 35 c6 25 00 00 	lea    0x25c6(%rip),%rsi        # 1ce12 <g_2850+0x1cb2>
   1a84c:	48 89 c7             	mov    %rax,%rdi
   1a84f:	e8 9f 1e ff ff       	callq  c6f3 <transparent_crc>
   1a854:	8b 05 9e 5f 00 00    	mov    0x5f9e(%rip),%eax        # 207f8 <g_2604+0x18>
   1a85a:	48 98                	cltq   
   1a85c:	8b 55 fc             	mov    -0x4(%rbp),%edx
   1a85f:	48 8d 35 b6 25 00 00 	lea    0x25b6(%rip),%rsi        # 1ce1c <g_2850+0x1cbc>
   1a866:	48 89 c7             	mov    %rax,%rdi
   1a869:	e8 85 1e ff ff       	callq  c6f3 <transparent_crc>
   1a86e:	0f b7 05 87 5f 00 00 	movzwl 0x5f87(%rip),%eax        # 207fc <g_2604+0x1c>
   1a875:	48 0f bf c0          	movswq %ax,%rax
   1a879:	8b 55 fc             	mov    -0x4(%rbp),%edx
   1a87c:	48 8d 35 a3 25 00 00 	lea    0x25a3(%rip),%rsi        # 1ce26 <g_2850+0x1cc6>
   1a883:	48 89 c7             	mov    %rax,%rdi
   1a886:	e8 68 1e ff ff       	callq  c6f3 <transparent_crc>
   1a88b:	8b 05 6f 5f 00 00    	mov    0x5f6f(%rip),%eax        # 20800 <g_2604+0x20>
   1a891:	89 c1                	mov    %eax,%ecx
   1a893:	8b 45 fc             	mov    -0x4(%rbp),%eax
   1a896:	89 c2                	mov    %eax,%edx
   1a898:	48 8d 35 91 25 00 00 	lea    0x2591(%rip),%rsi        # 1ce30 <g_2850+0x1cd0>
   1a89f:	48 89 cf             	mov    %rcx,%rdi
   1a8a2:	e8 4c 1e ff ff       	callq  c6f3 <transparent_crc>
   1a8a7:	48 8b 05 5a 5f 00 00 	mov    0x5f5a(%rip),%rax        # 20808 <g_2640>
   1a8ae:	48 89 c1             	mov    %rax,%rcx
   1a8b1:	8b 45 fc             	mov    -0x4(%rbp),%eax
   1a8b4:	89 c2                	mov    %eax,%edx
   1a8b6:	48 8d 35 7d 25 00 00 	lea    0x257d(%rip),%rsi        # 1ce3a <g_2850+0x1cda>
   1a8bd:	48 89 cf             	mov    %rcx,%rdi
   1a8c0:	e8 2e 1e ff ff       	callq  c6f3 <transparent_crc>
   1a8c5:	0f b7 05 44 5f 00 00 	movzwl 0x5f44(%rip),%eax        # 20810 <g_2661>
   1a8cc:	48 0f bf c0          	movswq %ax,%rax
   1a8d0:	8b 55 fc             	mov    -0x4(%rbp),%edx
   1a8d3:	48 8d 35 67 25 00 00 	lea    0x2567(%rip),%rsi        # 1ce41 <g_2850+0x1ce1>
   1a8da:	48 89 c7             	mov    %rax,%rdi
   1a8dd:	e8 11 1e ff ff       	callq  c6f3 <transparent_crc>
   1a8e2:	0f b6 05 29 5f 00 00 	movzbl 0x5f29(%rip),%eax        # 20812 <g_2669>
   1a8e9:	83 e0 3f             	and    $0x3f,%eax
   1a8ec:	0f b6 c0             	movzbl %al,%eax
   1a8ef:	8b 55 fc             	mov    -0x4(%rbp),%edx
   1a8f2:	48 8d 35 4f 25 00 00 	lea    0x254f(%rip),%rsi        # 1ce48 <g_2850+0x1ce8>
   1a8f9:	48 89 c7             	mov    %rax,%rdi
   1a8fc:	e8 f2 1d ff ff       	callq  c6f3 <transparent_crc>
   1a901:	8b 05 0d 5f 00 00    	mov    0x5f0d(%rip),%eax        # 20814 <g_2684>
   1a907:	48 98                	cltq   
   1a909:	8b 55 fc             	mov    -0x4(%rbp),%edx
   1a90c:	48 8d 35 3f 25 00 00 	lea    0x253f(%rip),%rsi        # 1ce52 <g_2850+0x1cf2>
   1a913:	48 89 c7             	mov    %rax,%rdi
   1a916:	e8 d8 1d ff ff       	callq  c6f3 <transparent_crc>
   1a91b:	48 8b 05 fe 5e 00 00 	mov    0x5efe(%rip),%rax        # 20820 <g_2762>
   1a922:	8b 55 fc             	mov    -0x4(%rbp),%edx
   1a925:	48 8d 35 2d 25 00 00 	lea    0x252d(%rip),%rsi        # 1ce59 <g_2850+0x1cf9>
   1a92c:	48 89 c7             	mov    %rax,%rdi
   1a92f:	e8 bf 1d ff ff       	callq  c6f3 <transparent_crc>
   1a934:	8b 05 ee 5e 00 00    	mov    0x5eee(%rip),%eax        # 20828 <g_2762+0x8>
   1a93a:	48 98                	cltq   
   1a93c:	8b 55 fc             	mov    -0x4(%rbp),%edx
   1a93f:	48 8d 35 1d 25 00 00 	lea    0x251d(%rip),%rsi        # 1ce63 <g_2850+0x1d03>
   1a946:	48 89 c7             	mov    %rax,%rdi
   1a949:	e8 a5 1d ff ff       	callq  c6f3 <transparent_crc>
   1a94e:	0f b7 05 d7 5e 00 00 	movzwl 0x5ed7(%rip),%eax        # 2082c <g_2762+0xc>
   1a955:	0f b7 c0             	movzwl %ax,%eax
   1a958:	8b 55 fc             	mov    -0x4(%rbp),%edx
   1a95b:	48 8d 35 0b 25 00 00 	lea    0x250b(%rip),%rsi        # 1ce6d <g_2850+0x1d0d>
   1a962:	48 89 c7             	mov    %rax,%rdi
   1a965:	e8 89 1d ff ff       	callq  c6f3 <transparent_crc>
   1a96a:	48 8b 05 bf 5e 00 00 	mov    0x5ebf(%rip),%rax        # 20830 <g_2762+0x10>
   1a971:	8b 55 fc             	mov    -0x4(%rbp),%edx
   1a974:	48 8d 35 fc 24 00 00 	lea    0x24fc(%rip),%rsi        # 1ce77 <g_2850+0x1d17>
   1a97b:	48 89 c7             	mov    %rax,%rdi
   1a97e:	e8 70 1d ff ff       	callq  c6f3 <transparent_crc>
   1a983:	8b 05 af 5e 00 00    	mov    0x5eaf(%rip),%eax        # 20838 <g_2762+0x18>
   1a989:	48 98                	cltq   
   1a98b:	8b 55 fc             	mov    -0x4(%rbp),%edx
   1a98e:	48 8d 35 ec 24 00 00 	lea    0x24ec(%rip),%rsi        # 1ce81 <g_2850+0x1d21>
   1a995:	48 89 c7             	mov    %rax,%rdi
   1a998:	e8 56 1d ff ff       	callq  c6f3 <transparent_crc>
   1a99d:	0f b7 05 98 5e 00 00 	movzwl 0x5e98(%rip),%eax        # 2083c <g_2762+0x1c>
   1a9a4:	48 0f bf c0          	movswq %ax,%rax
   1a9a8:	8b 55 fc             	mov    -0x4(%rbp),%edx
   1a9ab:	48 8d 35 d9 24 00 00 	lea    0x24d9(%rip),%rsi        # 1ce8b <g_2850+0x1d2b>
   1a9b2:	48 89 c7             	mov    %rax,%rdi
   1a9b5:	e8 39 1d ff ff       	callq  c6f3 <transparent_crc>
   1a9ba:	8b 05 80 5e 00 00    	mov    0x5e80(%rip),%eax        # 20840 <g_2762+0x20>
   1a9c0:	89 c1                	mov    %eax,%ecx
   1a9c2:	8b 45 fc             	mov    -0x4(%rbp),%eax
   1a9c5:	89 c2                	mov    %eax,%edx
   1a9c7:	48 8d 35 c7 24 00 00 	lea    0x24c7(%rip),%rsi        # 1ce95 <g_2850+0x1d35>
   1a9ce:	48 89 cf             	mov    %rcx,%rdi
   1a9d1:	e8 1d 1d ff ff       	callq  c6f3 <transparent_crc>
   1a9d6:	48 8b 05 83 07 00 00 	mov    0x783(%rip),%rax        # 1b160 <g_2850>
   1a9dd:	8b 55 fc             	mov    -0x4(%rbp),%edx
   1a9e0:	48 8d 35 b8 24 00 00 	lea    0x24b8(%rip),%rsi        # 1ce9f <g_2850+0x1d3f>
   1a9e7:	48 89 c7             	mov    %rax,%rdi
   1a9ea:	e8 04 1d ff ff       	callq  c6f3 <transparent_crc>
   1a9ef:	b8 ff ff ff ff       	mov    $0xffffffff,%eax
   1a9f4:	48 98                	cltq   
   1a9f6:	8b 55 fc             	mov    -0x4(%rbp),%edx
   1a9f9:	48 8d 35 a9 24 00 00 	lea    0x24a9(%rip),%rsi        # 1cea9 <g_2850+0x1d49>
   1aa00:	48 89 c7             	mov    %rax,%rdi
   1aa03:	e8 eb 1c ff ff       	callq  c6f3 <transparent_crc>
   1aa08:	0f b7 05 5d 07 00 00 	movzwl 0x75d(%rip),%eax        # 1b16c <g_2850+0xc>
   1aa0f:	0f b7 c0             	movzwl %ax,%eax
   1aa12:	8b 55 fc             	mov    -0x4(%rbp),%edx
   1aa15:	48 8d 35 97 24 00 00 	lea    0x2497(%rip),%rsi        # 1ceb3 <g_2850+0x1d53>
   1aa1c:	48 89 c7             	mov    %rax,%rdi
   1aa1f:	e8 cf 1c ff ff       	callq  c6f3 <transparent_crc>
   1aa24:	b9 02 00 00 00       	mov    $0x2,%ecx
   1aa29:	8b 45 fc             	mov    -0x4(%rbp),%eax
   1aa2c:	89 c2                	mov    %eax,%edx
   1aa2e:	48 8d 35 88 24 00 00 	lea    0x2488(%rip),%rsi        # 1cebd <g_2850+0x1d5d>
   1aa35:	48 89 cf             	mov    %rcx,%rdi
   1aa38:	e8 b6 1c ff ff       	callq  c6f3 <transparent_crc>
   1aa3d:	b8 f7 ff ff ff       	mov    $0xfffffff7,%eax
   1aa42:	48 98                	cltq   
   1aa44:	8b 55 fc             	mov    -0x4(%rbp),%edx
   1aa47:	48 8d 35 79 24 00 00 	lea    0x2479(%rip),%rsi        # 1cec7 <g_2850+0x1d67>
   1aa4e:	48 89 c7             	mov    %rax,%rdi
   1aa51:	e8 9d 1c ff ff       	callq  c6f3 <transparent_crc>
   1aa56:	0f b7 05 1f 07 00 00 	movzwl 0x71f(%rip),%eax        # 1b17c <g_2850+0x1c>
   1aa5d:	48 0f bf c0          	movswq %ax,%rax
   1aa61:	8b 55 fc             	mov    -0x4(%rbp),%edx
   1aa64:	48 8d 35 66 24 00 00 	lea    0x2466(%rip),%rsi        # 1ced1 <g_2850+0x1d71>
   1aa6b:	48 89 c7             	mov    %rax,%rdi
   1aa6e:	e8 80 1c ff ff       	callq  c6f3 <transparent_crc>
   1aa73:	b8 01 00 00 00       	mov    $0x1,%eax
   1aa78:	89 c1                	mov    %eax,%ecx
   1aa7a:	8b 45 fc             	mov    -0x4(%rbp),%eax
   1aa7d:	89 c2                	mov    %eax,%edx
   1aa7f:	48 8d 35 55 24 00 00 	lea    0x2455(%rip),%rsi        # 1cedb <g_2850+0x1d7b>
   1aa86:	48 89 cf             	mov    %rcx,%rdi
   1aa89:	e8 65 1c ff ff       	callq  c6f3 <transparent_crc>
   1aa8e:	8b 05 b4 5d 00 00    	mov    0x5db4(%rip),%eax        # 20848 <g_2871>
   1aa94:	89 c1                	mov    %eax,%ecx
   1aa96:	8b 45 fc             	mov    -0x4(%rbp),%eax
   1aa99:	89 c2                	mov    %eax,%edx
   1aa9b:	48 8d 35 43 24 00 00 	lea    0x2443(%rip),%rsi        # 1cee5 <g_2850+0x1d85>
   1aaa2:	48 89 cf             	mov    %rcx,%rdi
   1aaa5:	e8 49 1c ff ff       	callq  c6f3 <transparent_crc>
   1aaaa:	8b 05 70 55 00 00    	mov    0x5570(%rip),%eax        # 20020 <crc32_context>
   1aab0:	f7 d0                	not    %eax
   1aab2:	89 c2                	mov    %eax,%edx
   1aab4:	8b 45 fc             	mov    -0x4(%rbp),%eax
   1aab7:	89 c6                	mov    %eax,%esi
   1aab9:	89 d7                	mov    %edx,%edi
   1aabb:	e8 d4 06 ff ff       	callq  b194 <platform_main_end>
   1aac0:	b8 00 00 00 00       	mov    $0x0,%eax
   1aac5:	c9                   	leaveq 
   1aac6:	c3                   	retq   
   1aac7:	66 0f 1f 84 00 00 00 	nopw   0x0(%rax,%rax,1)
   1aace:	00 00 

000000000001aad0 <__libc_csu_init>:
   1aad0:	f3 0f 1e fa          	endbr64 
   1aad4:	41 57                	push   %r15
   1aad6:	4c 8d 3d 33 52 00 00 	lea    0x5233(%rip),%r15        # 1fd10 <__frame_dummy_init_array_entry>
   1aadd:	41 56                	push   %r14
   1aadf:	49 89 d6             	mov    %rdx,%r14
   1aae2:	41 55                	push   %r13
   1aae4:	49 89 f5             	mov    %rsi,%r13
   1aae7:	41 54                	push   %r12
   1aae9:	41 89 fc             	mov    %edi,%r12d
   1aaec:	55                   	push   %rbp
   1aaed:	48 8d 2d 24 52 00 00 	lea    0x5224(%rip),%rbp        # 1fd18 <__do_global_dtors_aux_fini_array_entry>
   1aaf4:	53                   	push   %rbx
   1aaf5:	4c 29 fd             	sub    %r15,%rbp
   1aaf8:	48 83 ec 08          	sub    $0x8,%rsp
   1aafc:	e8 ff 04 ff ff       	callq  b000 <_init>
   1ab01:	48 c1 fd 03          	sar    $0x3,%rbp
   1ab05:	74 1f                	je     1ab26 <__libc_csu_init+0x56>
   1ab07:	31 db                	xor    %ebx,%ebx
   1ab09:	0f 1f 80 00 00 00 00 	nopl   0x0(%rax)
   1ab10:	4c 89 f2             	mov    %r14,%rdx
   1ab13:	4c 89 ee             	mov    %r13,%rsi
   1ab16:	44 89 e7             	mov    %r12d,%edi
   1ab19:	41 ff 14 df          	callq  *(%r15,%rbx,8)
   1ab1d:	48 83 c3 01          	add    $0x1,%rbx
   1ab21:	48 39 dd             	cmp    %rbx,%rbp
   1ab24:	75 ea                	jne    1ab10 <__libc_csu_init+0x40>
   1ab26:	48 83 c4 08          	add    $0x8,%rsp
   1ab2a:	5b                   	pop    %rbx
   1ab2b:	5d                   	pop    %rbp
   1ab2c:	41 5c                	pop    %r12
   1ab2e:	41 5d                	pop    %r13
   1ab30:	41 5e                	pop    %r14
   1ab32:	41 5f                	pop    %r15
   1ab34:	c3                   	retq   
   1ab35:	66 66 2e 0f 1f 84 00 	data16 nopw %cs:0x0(%rax,%rax,1)
   1ab3c:	00 00 00 00 

000000000001ab40 <__libc_csu_fini>:
   1ab40:	f3 0f 1e fa          	endbr64 
   1ab44:	c3                   	retq   
