


Disassembly of section .text:

00000000000050a0 <_start>:
    50a0:	f3 0f 1e fa          	endbr64 
    50a4:	31 ed                	xor    %ebp,%ebp
    50a6:	49 89 d1             	mov    %rdx,%r9
    50a9:	5e                   	pop    %rsi
    50aa:	48 89 e2             	mov    %rsp,%rdx
    50ad:	48 83 e4 f0          	and    $0xfffffffffffffff0,%rsp
    50b1:	50                   	push   %rax
    50b2:	54                   	push   %rsp
    50b3:	4c 8d 05 26 bf 00 00 	lea    0xbf26(%rip),%r8        # 10fe0 <__libc_csu_fini>
    50ba:	48 8d 0d af be 00 00 	lea    0xbeaf(%rip),%rcx        # 10f70 <__libc_csu_init>
    50c1:	48 8d 3d 74 9a 00 00 	lea    0x9a74(%rip),%rdi        # eb3c <main>
    50c8:	ff 15 0a ff 00 00    	callq  *0xff0a(%rip)        # 14fd8 <__libc_start_main@GLIBC_2.2.5>
    50ce:	f4                   	hlt    
    50cf:	90                   	nop

00000000000050d0 <deregister_tm_clones>:
    50d0:	48 8d 3d d9 2e 01 00 	lea    0x12ed9(%rip),%rdi        # 17fb0 <__TMC_END__>
    50d7:	48 8d 05 d2 2e 01 00 	lea    0x12ed2(%rip),%rax        # 17fb0 <__TMC_END__>
    50de:	48 39 f8             	cmp    %rdi,%rax
    50e1:	74 15                	je     50f8 <deregister_tm_clones+0x28>
    50e3:	48 8b 05 e6 fe 00 00 	mov    0xfee6(%rip),%rax        # 14fd0 <_ITM_deregisterTMCloneTable>
    50ea:	48 85 c0             	test   %rax,%rax
    50ed:	74 09                	je     50f8 <deregister_tm_clones+0x28>
    50ef:	ff e0                	jmpq   *%rax
    50f1:	0f 1f 80 00 00 00 00 	nopl   0x0(%rax)
    50f8:	c3                   	retq   
    50f9:	0f 1f 80 00 00 00 00 	nopl   0x0(%rax)

0000000000005100 <register_tm_clones>:
    5100:	48 8d 3d a9 2e 01 00 	lea    0x12ea9(%rip),%rdi        # 17fb0 <__TMC_END__>
    5107:	48 8d 35 a2 2e 01 00 	lea    0x12ea2(%rip),%rsi        # 17fb0 <__TMC_END__>
    510e:	48 29 fe             	sub    %rdi,%rsi
    5111:	48 89 f0             	mov    %rsi,%rax
    5114:	48 c1 ee 3f          	shr    $0x3f,%rsi
    5118:	48 c1 f8 03          	sar    $0x3,%rax
    511c:	48 01 c6             	add    %rax,%rsi
    511f:	48 d1 fe             	sar    %rsi
    5122:	74 14                	je     5138 <register_tm_clones+0x38>
    5124:	48 8b 05 bd fe 00 00 	mov    0xfebd(%rip),%rax        # 14fe8 <_ITM_registerTMCloneTable>
    512b:	48 85 c0             	test   %rax,%rax
    512e:	74 08                	je     5138 <register_tm_clones+0x38>
    5130:	ff e0                	jmpq   *%rax
    5132:	66 0f 1f 44 00 00    	nopw   0x0(%rax,%rax,1)
    5138:	c3                   	retq   
    5139:	0f 1f 80 00 00 00 00 	nopl   0x0(%rax)

0000000000005140 <__do_global_dtors_aux>:
    5140:	f3 0f 1e fa          	endbr64 
    5144:	80 3d 75 2e 01 00 00 	cmpb   $0x0,0x12e75(%rip)        # 17fc0 <completed.8061>
    514b:	75 2b                	jne    5178 <__do_global_dtors_aux+0x38>
    514d:	55                   	push   %rbp
    514e:	48 83 3d 9a fe 00 00 	cmpq   $0x0,0xfe9a(%rip)        # 14ff0 <__cxa_finalize@GLIBC_2.2.5>
    5155:	00 
    5156:	48 89 e5             	mov    %rsp,%rbp
    5159:	74 0c                	je     5167 <__do_global_dtors_aux+0x27>
    515b:	48 8b 3d a6 fe 00 00 	mov    0xfea6(%rip),%rdi        # 15008 <__dso_handle>
    5162:	e8 f9 fe ff ff       	callq  5060 <__cxa_finalize@plt>
    5167:	e8 64 ff ff ff       	callq  50d0 <deregister_tm_clones>
    516c:	c6 05 4d 2e 01 00 01 	movb   $0x1,0x12e4d(%rip)        # 17fc0 <completed.8061>
    5173:	5d                   	pop    %rbp
    5174:	c3                   	retq   
    5175:	0f 1f 00             	nopl   (%rax)
    5178:	c3                   	retq   
    5179:	0f 1f 80 00 00 00 00 	nopl   0x0(%rax)

0000000000005180 <frame_dummy>:
    5180:	f3 0f 1e fa          	endbr64 
    5184:	e9 77 ff ff ff       	jmpq   5100 <register_tm_clones>

0000000000005189 <platform_main_begin>:
    5189:	f3 0f 1e fa          	endbr64 
    518d:	55                   	push   %rbp
    518e:	48 89 e5             	mov    %rsp,%rbp
    5191:	90                   	nop
    5192:	5d                   	pop    %rbp
    5193:	c3                   	retq   

0000000000005194 <platform_main_end>:
    5194:	f3 0f 1e fa          	endbr64 
    5198:	55                   	push   %rbp
    5199:	48 89 e5             	mov    %rsp,%rbp
    519c:	48 83 ec 10          	sub    $0x10,%rsp
    51a0:	89 7d fc             	mov    %edi,-0x4(%rbp)
    51a3:	89 75 f8             	mov    %esi,-0x8(%rbp)
    51a6:	8b 45 fc             	mov    -0x4(%rbp),%eax
    51a9:	89 c6                	mov    %eax,%esi
    51ab:	48 8d 3d 6e be 00 00 	lea    0xbe6e(%rip),%rdi        # 11020 <_IO_stdin_used+0x20>
    51b2:	b8 00 00 00 00       	mov    $0x0,%eax
    51b7:	e8 c4 fe ff ff       	callq  5080 <printf@plt>
    51bc:	90                   	nop
    51bd:	c9                   	leaveq 
    51be:	c3                   	retq   

00000000000051bf <safe_unary_minus_func_int8_t_s>:
    51bf:	f3 0f 1e fa          	endbr64 
    51c3:	55                   	push   %rbp
    51c4:	48 89 e5             	mov    %rsp,%rbp
    51c7:	89 f8                	mov    %edi,%eax
    51c9:	88 45 fc             	mov    %al,-0x4(%rbp)
    51cc:	0f b6 45 fc          	movzbl -0x4(%rbp),%eax
    51d0:	f7 d8                	neg    %eax
    51d2:	5d                   	pop    %rbp
    51d3:	c3                   	retq   

00000000000051d4 <safe_add_func_int8_t_s_s>:
    51d4:	f3 0f 1e fa          	endbr64 
    51d8:	55                   	push   %rbp
    51d9:	48 89 e5             	mov    %rsp,%rbp
    51dc:	89 fa                	mov    %edi,%edx
    51de:	89 f0                	mov    %esi,%eax
    51e0:	88 55 fc             	mov    %dl,-0x4(%rbp)
    51e3:	88 45 f8             	mov    %al,-0x8(%rbp)
    51e6:	0f b6 55 fc          	movzbl -0x4(%rbp),%edx
    51ea:	0f b6 45 f8          	movzbl -0x8(%rbp),%eax
    51ee:	01 d0                	add    %edx,%eax
    51f0:	5d                   	pop    %rbp
    51f1:	c3                   	retq   

00000000000051f2 <safe_sub_func_int8_t_s_s>:
    51f2:	f3 0f 1e fa          	endbr64 
    51f6:	55                   	push   %rbp
    51f7:	48 89 e5             	mov    %rsp,%rbp
    51fa:	89 fa                	mov    %edi,%edx
    51fc:	89 f0                	mov    %esi,%eax
    51fe:	88 55 fc             	mov    %dl,-0x4(%rbp)
    5201:	88 45 f8             	mov    %al,-0x8(%rbp)
    5204:	0f b6 55 fc          	movzbl -0x4(%rbp),%edx
    5208:	0f b6 45 f8          	movzbl -0x8(%rbp),%eax
    520c:	29 c2                	sub    %eax,%edx
    520e:	89 d0                	mov    %edx,%eax
    5210:	5d                   	pop    %rbp
    5211:	c3                   	retq   

0000000000005212 <safe_mul_func_int8_t_s_s>:
    5212:	f3 0f 1e fa          	endbr64 
    5216:	55                   	push   %rbp
    5217:	48 89 e5             	mov    %rsp,%rbp
    521a:	89 fa                	mov    %edi,%edx
    521c:	89 f0                	mov    %esi,%eax
    521e:	88 55 fc             	mov    %dl,-0x4(%rbp)
    5221:	88 45 f8             	mov    %al,-0x8(%rbp)
    5224:	0f b6 45 fc          	movzbl -0x4(%rbp),%eax
    5228:	0f b6 55 f8          	movzbl -0x8(%rbp),%edx
    522c:	0f af c2             	imul   %edx,%eax
    522f:	5d                   	pop    %rbp
    5230:	c3                   	retq   

0000000000005231 <safe_mod_func_int8_t_s_s>:
    5231:	f3 0f 1e fa          	endbr64 
    5235:	55                   	push   %rbp
    5236:	48 89 e5             	mov    %rsp,%rbp
    5239:	89 fa                	mov    %edi,%edx
    523b:	89 f0                	mov    %esi,%eax
    523d:	88 55 fc             	mov    %dl,-0x4(%rbp)
    5240:	88 45 f8             	mov    %al,-0x8(%rbp)
    5243:	80 7d f8 00          	cmpb   $0x0,-0x8(%rbp)
    5247:	74 1b                	je     5264 <safe_mod_func_int8_t_s_s+0x33>
    5249:	80 7d fc 80          	cmpb   $0x80,-0x4(%rbp)
    524d:	75 06                	jne    5255 <safe_mod_func_int8_t_s_s+0x24>
    524f:	80 7d f8 ff          	cmpb   $0xff,-0x8(%rbp)
    5253:	74 0f                	je     5264 <safe_mod_func_int8_t_s_s+0x33>
    5255:	0f be 45 fc          	movsbl -0x4(%rbp),%eax
    5259:	0f be 4d f8          	movsbl -0x8(%rbp),%ecx
    525d:	99                   	cltd   
    525e:	f7 f9                	idiv   %ecx
    5260:	89 d0                	mov    %edx,%eax
    5262:	eb 04                	jmp    5268 <safe_mod_func_int8_t_s_s+0x37>
    5264:	0f b6 45 fc          	movzbl -0x4(%rbp),%eax
    5268:	5d                   	pop    %rbp
    5269:	c3                   	retq   

000000000000526a <safe_div_func_int8_t_s_s>:
    526a:	f3 0f 1e fa          	endbr64 
    526e:	55                   	push   %rbp
    526f:	48 89 e5             	mov    %rsp,%rbp
    5272:	89 fa                	mov    %edi,%edx
    5274:	89 f0                	mov    %esi,%eax
    5276:	88 55 fc             	mov    %dl,-0x4(%rbp)
    5279:	88 45 f8             	mov    %al,-0x8(%rbp)
    527c:	80 7d f8 00          	cmpb   $0x0,-0x8(%rbp)
    5280:	74 19                	je     529b <safe_div_func_int8_t_s_s+0x31>
    5282:	80 7d fc 80          	cmpb   $0x80,-0x4(%rbp)
    5286:	75 06                	jne    528e <safe_div_func_int8_t_s_s+0x24>
    5288:	80 7d f8 ff          	cmpb   $0xff,-0x8(%rbp)
    528c:	74 0d                	je     529b <safe_div_func_int8_t_s_s+0x31>
    528e:	0f be 45 fc          	movsbl -0x4(%rbp),%eax
    5292:	0f be 4d f8          	movsbl -0x8(%rbp),%ecx
    5296:	99                   	cltd   
    5297:	f7 f9                	idiv   %ecx
    5299:	eb 04                	jmp    529f <safe_div_func_int8_t_s_s+0x35>
    529b:	0f b6 45 fc          	movzbl -0x4(%rbp),%eax
    529f:	5d                   	pop    %rbp
    52a0:	c3                   	retq   

00000000000052a1 <safe_lshift_func_int8_t_s_s>:
    52a1:	f3 0f 1e fa          	endbr64 
    52a5:	55                   	push   %rbp
    52a6:	48 89 e5             	mov    %rsp,%rbp
    52a9:	89 f8                	mov    %edi,%eax
    52ab:	89 75 f8             	mov    %esi,-0x8(%rbp)
    52ae:	88 45 fc             	mov    %al,-0x4(%rbp)
    52b1:	80 7d fc 00          	cmpb   $0x0,-0x4(%rbp)
    52b5:	78 31                	js     52e8 <safe_lshift_func_int8_t_s_s+0x47>
    52b7:	83 7d f8 00          	cmpl   $0x0,-0x8(%rbp)
    52bb:	78 2b                	js     52e8 <safe_lshift_func_int8_t_s_s+0x47>
    52bd:	83 7d f8 1f          	cmpl   $0x1f,-0x8(%rbp)
    52c1:	7f 25                	jg     52e8 <safe_lshift_func_int8_t_s_s+0x47>
    52c3:	0f be 55 fc          	movsbl -0x4(%rbp),%edx
    52c7:	8b 45 f8             	mov    -0x8(%rbp),%eax
    52ca:	be 7f 00 00 00       	mov    $0x7f,%esi
    52cf:	89 c1                	mov    %eax,%ecx
    52d1:	d3 fe                	sar    %cl,%esi
    52d3:	89 f0                	mov    %esi,%eax
    52d5:	39 c2                	cmp    %eax,%edx
    52d7:	7f 0f                	jg     52e8 <safe_lshift_func_int8_t_s_s+0x47>
    52d9:	0f be 55 fc          	movsbl -0x4(%rbp),%edx
    52dd:	8b 45 f8             	mov    -0x8(%rbp),%eax
    52e0:	89 c1                	mov    %eax,%ecx
    52e2:	d3 e2                	shl    %cl,%edx
    52e4:	89 d0                	mov    %edx,%eax
    52e6:	eb 04                	jmp    52ec <safe_lshift_func_int8_t_s_s+0x4b>
    52e8:	0f b6 45 fc          	movzbl -0x4(%rbp),%eax
    52ec:	5d                   	pop    %rbp
    52ed:	c3                   	retq   

00000000000052ee <safe_lshift_func_int8_t_s_u>:
    52ee:	f3 0f 1e fa          	endbr64 
    52f2:	55                   	push   %rbp
    52f3:	48 89 e5             	mov    %rsp,%rbp
    52f6:	89 f8                	mov    %edi,%eax
    52f8:	89 75 f8             	mov    %esi,-0x8(%rbp)
    52fb:	88 45 fc             	mov    %al,-0x4(%rbp)
    52fe:	80 7d fc 00          	cmpb   $0x0,-0x4(%rbp)
    5302:	78 2b                	js     532f <safe_lshift_func_int8_t_s_u+0x41>
    5304:	83 7d f8 1f          	cmpl   $0x1f,-0x8(%rbp)
    5308:	77 25                	ja     532f <safe_lshift_func_int8_t_s_u+0x41>
    530a:	0f be 55 fc          	movsbl -0x4(%rbp),%edx
    530e:	8b 45 f8             	mov    -0x8(%rbp),%eax
    5311:	be 7f 00 00 00       	mov    $0x7f,%esi
    5316:	89 c1                	mov    %eax,%ecx
    5318:	d3 fe                	sar    %cl,%esi
    531a:	89 f0                	mov    %esi,%eax
    531c:	39 c2                	cmp    %eax,%edx
    531e:	7f 0f                	jg     532f <safe_lshift_func_int8_t_s_u+0x41>
    5320:	0f be 55 fc          	movsbl -0x4(%rbp),%edx
    5324:	8b 45 f8             	mov    -0x8(%rbp),%eax
    5327:	89 c1                	mov    %eax,%ecx
    5329:	d3 e2                	shl    %cl,%edx
    532b:	89 d0                	mov    %edx,%eax
    532d:	eb 04                	jmp    5333 <safe_lshift_func_int8_t_s_u+0x45>
    532f:	0f b6 45 fc          	movzbl -0x4(%rbp),%eax
    5333:	5d                   	pop    %rbp
    5334:	c3                   	retq   

0000000000005335 <safe_rshift_func_int8_t_s_s>:
    5335:	f3 0f 1e fa          	endbr64 
    5339:	55                   	push   %rbp
    533a:	48 89 e5             	mov    %rsp,%rbp
    533d:	89 f8                	mov    %edi,%eax
    533f:	89 75 f8             	mov    %esi,-0x8(%rbp)
    5342:	88 45 fc             	mov    %al,-0x4(%rbp)
    5345:	80 7d fc 00          	cmpb   $0x0,-0x4(%rbp)
    5349:	78 1b                	js     5366 <safe_rshift_func_int8_t_s_s+0x31>
    534b:	83 7d f8 00          	cmpl   $0x0,-0x8(%rbp)
    534f:	78 15                	js     5366 <safe_rshift_func_int8_t_s_s+0x31>
    5351:	83 7d f8 1f          	cmpl   $0x1f,-0x8(%rbp)
    5355:	7f 0f                	jg     5366 <safe_rshift_func_int8_t_s_s+0x31>
    5357:	0f be 55 fc          	movsbl -0x4(%rbp),%edx
    535b:	8b 45 f8             	mov    -0x8(%rbp),%eax
    535e:	89 c1                	mov    %eax,%ecx
    5360:	d3 fa                	sar    %cl,%edx
    5362:	89 d0                	mov    %edx,%eax
    5364:	eb 04                	jmp    536a <safe_rshift_func_int8_t_s_s+0x35>
    5366:	0f b6 45 fc          	movzbl -0x4(%rbp),%eax
    536a:	5d                   	pop    %rbp
    536b:	c3                   	retq   

000000000000536c <safe_rshift_func_int8_t_s_u>:
    536c:	f3 0f 1e fa          	endbr64 
    5370:	55                   	push   %rbp
    5371:	48 89 e5             	mov    %rsp,%rbp
    5374:	89 f8                	mov    %edi,%eax
    5376:	89 75 f8             	mov    %esi,-0x8(%rbp)
    5379:	88 45 fc             	mov    %al,-0x4(%rbp)
    537c:	80 7d fc 00          	cmpb   $0x0,-0x4(%rbp)
    5380:	78 15                	js     5397 <safe_rshift_func_int8_t_s_u+0x2b>
    5382:	83 7d f8 1f          	cmpl   $0x1f,-0x8(%rbp)
    5386:	77 0f                	ja     5397 <safe_rshift_func_int8_t_s_u+0x2b>
    5388:	0f be 55 fc          	movsbl -0x4(%rbp),%edx
    538c:	8b 45 f8             	mov    -0x8(%rbp),%eax
    538f:	89 c1                	mov    %eax,%ecx
    5391:	d3 fa                	sar    %cl,%edx
    5393:	89 d0                	mov    %edx,%eax
    5395:	eb 04                	jmp    539b <safe_rshift_func_int8_t_s_u+0x2f>
    5397:	0f b6 45 fc          	movzbl -0x4(%rbp),%eax
    539b:	5d                   	pop    %rbp
    539c:	c3                   	retq   

000000000000539d <safe_unary_minus_func_int16_t_s>:
    539d:	f3 0f 1e fa          	endbr64 
    53a1:	55                   	push   %rbp
    53a2:	48 89 e5             	mov    %rsp,%rbp
    53a5:	89 f8                	mov    %edi,%eax
    53a7:	66 89 45 fc          	mov    %ax,-0x4(%rbp)
    53ab:	0f b7 45 fc          	movzwl -0x4(%rbp),%eax
    53af:	f7 d8                	neg    %eax
    53b1:	5d                   	pop    %rbp
    53b2:	c3                   	retq   

00000000000053b3 <safe_add_func_int16_t_s_s>:
    53b3:	f3 0f 1e fa          	endbr64 
    53b7:	55                   	push   %rbp
    53b8:	48 89 e5             	mov    %rsp,%rbp
    53bb:	89 fa                	mov    %edi,%edx
    53bd:	89 f0                	mov    %esi,%eax
    53bf:	66 89 55 fc          	mov    %dx,-0x4(%rbp)
    53c3:	66 89 45 f8          	mov    %ax,-0x8(%rbp)
    53c7:	0f b7 55 fc          	movzwl -0x4(%rbp),%edx
    53cb:	0f b7 45 f8          	movzwl -0x8(%rbp),%eax
    53cf:	01 d0                	add    %edx,%eax
    53d1:	5d                   	pop    %rbp
    53d2:	c3                   	retq   

00000000000053d3 <safe_sub_func_int16_t_s_s>:
    53d3:	f3 0f 1e fa          	endbr64 
    53d7:	55                   	push   %rbp
    53d8:	48 89 e5             	mov    %rsp,%rbp
    53db:	89 fa                	mov    %edi,%edx
    53dd:	89 f0                	mov    %esi,%eax
    53df:	66 89 55 fc          	mov    %dx,-0x4(%rbp)
    53e3:	66 89 45 f8          	mov    %ax,-0x8(%rbp)
    53e7:	0f b7 55 fc          	movzwl -0x4(%rbp),%edx
    53eb:	0f b7 45 f8          	movzwl -0x8(%rbp),%eax
    53ef:	29 c2                	sub    %eax,%edx
    53f1:	89 d0                	mov    %edx,%eax
    53f3:	5d                   	pop    %rbp
    53f4:	c3                   	retq   

00000000000053f5 <safe_mul_func_int16_t_s_s>:
    53f5:	f3 0f 1e fa          	endbr64 
    53f9:	55                   	push   %rbp
    53fa:	48 89 e5             	mov    %rsp,%rbp
    53fd:	89 fa                	mov    %edi,%edx
    53ff:	89 f0                	mov    %esi,%eax
    5401:	66 89 55 fc          	mov    %dx,-0x4(%rbp)
    5405:	66 89 45 f8          	mov    %ax,-0x8(%rbp)
    5409:	0f b7 55 fc          	movzwl -0x4(%rbp),%edx
    540d:	0f b7 45 f8          	movzwl -0x8(%rbp),%eax
    5411:	0f af c2             	imul   %edx,%eax
    5414:	5d                   	pop    %rbp
    5415:	c3                   	retq   

0000000000005416 <safe_mod_func_int16_t_s_s>:
    5416:	f3 0f 1e fa          	endbr64 
    541a:	55                   	push   %rbp
    541b:	48 89 e5             	mov    %rsp,%rbp
    541e:	89 fa                	mov    %edi,%edx
    5420:	89 f0                	mov    %esi,%eax
    5422:	66 89 55 fc          	mov    %dx,-0x4(%rbp)
    5426:	66 89 45 f8          	mov    %ax,-0x8(%rbp)
    542a:	66 83 7d f8 00       	cmpw   $0x0,-0x8(%rbp)
    542f:	74 1e                	je     544f <safe_mod_func_int16_t_s_s+0x39>
    5431:	66 81 7d fc 00 80    	cmpw   $0x8000,-0x4(%rbp)
    5437:	75 07                	jne    5440 <safe_mod_func_int16_t_s_s+0x2a>
    5439:	66 83 7d f8 ff       	cmpw   $0xffff,-0x8(%rbp)
    543e:	74 0f                	je     544f <safe_mod_func_int16_t_s_s+0x39>
    5440:	0f bf 45 fc          	movswl -0x4(%rbp),%eax
    5444:	0f bf 4d f8          	movswl -0x8(%rbp),%ecx
    5448:	99                   	cltd   
    5449:	f7 f9                	idiv   %ecx
    544b:	89 d0                	mov    %edx,%eax
    544d:	eb 04                	jmp    5453 <safe_mod_func_int16_t_s_s+0x3d>
    544f:	0f b7 45 fc          	movzwl -0x4(%rbp),%eax
    5453:	5d                   	pop    %rbp
    5454:	c3                   	retq   

0000000000005455 <safe_div_func_int16_t_s_s>:
    5455:	f3 0f 1e fa          	endbr64 
    5459:	55                   	push   %rbp
    545a:	48 89 e5             	mov    %rsp,%rbp
    545d:	89 fa                	mov    %edi,%edx
    545f:	89 f0                	mov    %esi,%eax
    5461:	66 89 55 fc          	mov    %dx,-0x4(%rbp)
    5465:	66 89 45 f8          	mov    %ax,-0x8(%rbp)
    5469:	66 83 7d f8 00       	cmpw   $0x0,-0x8(%rbp)
    546e:	74 1c                	je     548c <safe_div_func_int16_t_s_s+0x37>
    5470:	66 81 7d fc 00 80    	cmpw   $0x8000,-0x4(%rbp)
    5476:	75 07                	jne    547f <safe_div_func_int16_t_s_s+0x2a>
    5478:	66 83 7d f8 ff       	cmpw   $0xffff,-0x8(%rbp)
    547d:	74 0d                	je     548c <safe_div_func_int16_t_s_s+0x37>
    547f:	0f bf 45 fc          	movswl -0x4(%rbp),%eax
    5483:	0f bf 4d f8          	movswl -0x8(%rbp),%ecx
    5487:	99                   	cltd   
    5488:	f7 f9                	idiv   %ecx
    548a:	eb 04                	jmp    5490 <safe_div_func_int16_t_s_s+0x3b>
    548c:	0f b7 45 fc          	movzwl -0x4(%rbp),%eax
    5490:	5d                   	pop    %rbp
    5491:	c3                   	retq   

0000000000005492 <safe_lshift_func_int16_t_s_s>:
    5492:	f3 0f 1e fa          	endbr64 
    5496:	55                   	push   %rbp
    5497:	48 89 e5             	mov    %rsp,%rbp
    549a:	89 f8                	mov    %edi,%eax
    549c:	89 75 f8             	mov    %esi,-0x8(%rbp)
    549f:	66 89 45 fc          	mov    %ax,-0x4(%rbp)
    54a3:	66 83 7d fc 00       	cmpw   $0x0,-0x4(%rbp)
    54a8:	78 31                	js     54db <safe_lshift_func_int16_t_s_s+0x49>
    54aa:	83 7d f8 00          	cmpl   $0x0,-0x8(%rbp)
    54ae:	78 2b                	js     54db <safe_lshift_func_int16_t_s_s+0x49>
    54b0:	83 7d f8 1f          	cmpl   $0x1f,-0x8(%rbp)
    54b4:	7f 25                	jg     54db <safe_lshift_func_int16_t_s_s+0x49>
    54b6:	0f bf 55 fc          	movswl -0x4(%rbp),%edx
    54ba:	8b 45 f8             	mov    -0x8(%rbp),%eax
    54bd:	be ff 7f 00 00       	mov    $0x7fff,%esi
    54c2:	89 c1                	mov    %eax,%ecx
    54c4:	d3 fe                	sar    %cl,%esi
    54c6:	89 f0                	mov    %esi,%eax
    54c8:	39 c2                	cmp    %eax,%edx
    54ca:	7f 0f                	jg     54db <safe_lshift_func_int16_t_s_s+0x49>
    54cc:	0f bf 55 fc          	movswl -0x4(%rbp),%edx
    54d0:	8b 45 f8             	mov    -0x8(%rbp),%eax
    54d3:	89 c1                	mov    %eax,%ecx
    54d5:	d3 e2                	shl    %cl,%edx
    54d7:	89 d0                	mov    %edx,%eax
    54d9:	eb 04                	jmp    54df <safe_lshift_func_int16_t_s_s+0x4d>
    54db:	0f b7 45 fc          	movzwl -0x4(%rbp),%eax
    54df:	5d                   	pop    %rbp
    54e0:	c3                   	retq   

00000000000054e1 <safe_lshift_func_int16_t_s_u>:
    54e1:	f3 0f 1e fa          	endbr64 
    54e5:	55                   	push   %rbp
    54e6:	48 89 e5             	mov    %rsp,%rbp
    54e9:	89 f8                	mov    %edi,%eax
    54eb:	89 75 f8             	mov    %esi,-0x8(%rbp)
    54ee:	66 89 45 fc          	mov    %ax,-0x4(%rbp)
    54f2:	66 83 7d fc 00       	cmpw   $0x0,-0x4(%rbp)
    54f7:	78 2b                	js     5524 <safe_lshift_func_int16_t_s_u+0x43>
    54f9:	83 7d f8 1f          	cmpl   $0x1f,-0x8(%rbp)
    54fd:	77 25                	ja     5524 <safe_lshift_func_int16_t_s_u+0x43>
    54ff:	0f bf 55 fc          	movswl -0x4(%rbp),%edx
    5503:	8b 45 f8             	mov    -0x8(%rbp),%eax
    5506:	be ff 7f 00 00       	mov    $0x7fff,%esi
    550b:	89 c1                	mov    %eax,%ecx
    550d:	d3 fe                	sar    %cl,%esi
    550f:	89 f0                	mov    %esi,%eax
    5511:	39 c2                	cmp    %eax,%edx
    5513:	7f 0f                	jg     5524 <safe_lshift_func_int16_t_s_u+0x43>
    5515:	0f bf 55 fc          	movswl -0x4(%rbp),%edx
    5519:	8b 45 f8             	mov    -0x8(%rbp),%eax
    551c:	89 c1                	mov    %eax,%ecx
    551e:	d3 e2                	shl    %cl,%edx
    5520:	89 d0                	mov    %edx,%eax
    5522:	eb 04                	jmp    5528 <safe_lshift_func_int16_t_s_u+0x47>
    5524:	0f b7 45 fc          	movzwl -0x4(%rbp),%eax
    5528:	5d                   	pop    %rbp
    5529:	c3                   	retq   

000000000000552a <safe_rshift_func_int16_t_s_s>:
    552a:	f3 0f 1e fa          	endbr64 
    552e:	55                   	push   %rbp
    552f:	48 89 e5             	mov    %rsp,%rbp
    5532:	89 f8                	mov    %edi,%eax
    5534:	89 75 f8             	mov    %esi,-0x8(%rbp)
    5537:	66 89 45 fc          	mov    %ax,-0x4(%rbp)
    553b:	66 83 7d fc 00       	cmpw   $0x0,-0x4(%rbp)
    5540:	78 1b                	js     555d <safe_rshift_func_int16_t_s_s+0x33>
    5542:	83 7d f8 00          	cmpl   $0x0,-0x8(%rbp)
    5546:	78 15                	js     555d <safe_rshift_func_int16_t_s_s+0x33>
    5548:	83 7d f8 1f          	cmpl   $0x1f,-0x8(%rbp)
    554c:	7f 0f                	jg     555d <safe_rshift_func_int16_t_s_s+0x33>
    554e:	0f bf 55 fc          	movswl -0x4(%rbp),%edx
    5552:	8b 45 f8             	mov    -0x8(%rbp),%eax
    5555:	89 c1                	mov    %eax,%ecx
    5557:	d3 fa                	sar    %cl,%edx
    5559:	89 d0                	mov    %edx,%eax
    555b:	eb 04                	jmp    5561 <safe_rshift_func_int16_t_s_s+0x37>
    555d:	0f b7 45 fc          	movzwl -0x4(%rbp),%eax
    5561:	5d                   	pop    %rbp
    5562:	c3                   	retq   

0000000000005563 <safe_rshift_func_int16_t_s_u>:
    5563:	f3 0f 1e fa          	endbr64 
    5567:	55                   	push   %rbp
    5568:	48 89 e5             	mov    %rsp,%rbp
    556b:	89 f8                	mov    %edi,%eax
    556d:	89 75 f8             	mov    %esi,-0x8(%rbp)
    5570:	66 89 45 fc          	mov    %ax,-0x4(%rbp)
    5574:	66 83 7d fc 00       	cmpw   $0x0,-0x4(%rbp)
    5579:	78 15                	js     5590 <safe_rshift_func_int16_t_s_u+0x2d>
    557b:	83 7d f8 1f          	cmpl   $0x1f,-0x8(%rbp)
    557f:	77 0f                	ja     5590 <safe_rshift_func_int16_t_s_u+0x2d>
    5581:	0f bf 55 fc          	movswl -0x4(%rbp),%edx
    5585:	8b 45 f8             	mov    -0x8(%rbp),%eax
    5588:	89 c1                	mov    %eax,%ecx
    558a:	d3 fa                	sar    %cl,%edx
    558c:	89 d0                	mov    %edx,%eax
    558e:	eb 04                	jmp    5594 <safe_rshift_func_int16_t_s_u+0x31>
    5590:	0f b7 45 fc          	movzwl -0x4(%rbp),%eax
    5594:	5d                   	pop    %rbp
    5595:	c3                   	retq   

0000000000005596 <safe_unary_minus_func_int32_t_s>:
    5596:	f3 0f 1e fa          	endbr64 
    559a:	55                   	push   %rbp
    559b:	48 89 e5             	mov    %rsp,%rbp
    559e:	89 7d fc             	mov    %edi,-0x4(%rbp)
    55a1:	81 7d fc 00 00 00 80 	cmpl   $0x80000000,-0x4(%rbp)
    55a8:	74 07                	je     55b1 <safe_unary_minus_func_int32_t_s+0x1b>
    55aa:	8b 45 fc             	mov    -0x4(%rbp),%eax
    55ad:	f7 d8                	neg    %eax
    55af:	eb 03                	jmp    55b4 <safe_unary_minus_func_int32_t_s+0x1e>
    55b1:	8b 45 fc             	mov    -0x4(%rbp),%eax
    55b4:	5d                   	pop    %rbp
    55b5:	c3                   	retq   

00000000000055b6 <safe_add_func_int32_t_s_s>:
    55b6:	f3 0f 1e fa          	endbr64 
    55ba:	55                   	push   %rbp
    55bb:	48 89 e5             	mov    %rsp,%rbp
    55be:	89 7d fc             	mov    %edi,-0x4(%rbp)
    55c1:	89 75 f8             	mov    %esi,-0x8(%rbp)
    55c4:	83 7d fc 00          	cmpl   $0x0,-0x4(%rbp)
    55c8:	7e 13                	jle    55dd <safe_add_func_int32_t_s_s+0x27>
    55ca:	83 7d f8 00          	cmpl   $0x0,-0x8(%rbp)
    55ce:	7e 0d                	jle    55dd <safe_add_func_int32_t_s_s+0x27>
    55d0:	b8 ff ff ff 7f       	mov    $0x7fffffff,%eax
    55d5:	2b 45 f8             	sub    -0x8(%rbp),%eax
    55d8:	39 45 fc             	cmp    %eax,-0x4(%rbp)
    55db:	7f 23                	jg     5600 <safe_add_func_int32_t_s_s+0x4a>
    55dd:	83 7d fc 00          	cmpl   $0x0,-0x4(%rbp)
    55e1:	79 13                	jns    55f6 <safe_add_func_int32_t_s_s+0x40>
    55e3:	83 7d f8 00          	cmpl   $0x0,-0x8(%rbp)
    55e7:	79 0d                	jns    55f6 <safe_add_func_int32_t_s_s+0x40>
    55e9:	b8 00 00 00 80       	mov    $0x80000000,%eax
    55ee:	2b 45 f8             	sub    -0x8(%rbp),%eax
    55f1:	39 45 fc             	cmp    %eax,-0x4(%rbp)
    55f4:	7c 0a                	jl     5600 <safe_add_func_int32_t_s_s+0x4a>
    55f6:	8b 55 fc             	mov    -0x4(%rbp),%edx
    55f9:	8b 45 f8             	mov    -0x8(%rbp),%eax
    55fc:	01 d0                	add    %edx,%eax
    55fe:	eb 03                	jmp    5603 <safe_add_func_int32_t_s_s+0x4d>
    5600:	8b 45 fc             	mov    -0x4(%rbp),%eax
    5603:	5d                   	pop    %rbp
    5604:	c3                   	retq   

0000000000005605 <safe_sub_func_int32_t_s_s>:
    5605:	f3 0f 1e fa          	endbr64 
    5609:	55                   	push   %rbp
    560a:	48 89 e5             	mov    %rsp,%rbp
    560d:	89 7d fc             	mov    %edi,-0x4(%rbp)
    5610:	89 75 f8             	mov    %esi,-0x8(%rbp)
    5613:	8b 45 fc             	mov    -0x4(%rbp),%eax
    5616:	33 45 f8             	xor    -0x8(%rbp),%eax
    5619:	89 c2                	mov    %eax,%edx
    561b:	8b 45 fc             	mov    -0x4(%rbp),%eax
    561e:	33 45 f8             	xor    -0x8(%rbp),%eax
    5621:	25 00 00 00 80       	and    $0x80000000,%eax
    5626:	33 45 fc             	xor    -0x4(%rbp),%eax
    5629:	2b 45 f8             	sub    -0x8(%rbp),%eax
    562c:	33 45 f8             	xor    -0x8(%rbp),%eax
    562f:	21 d0                	and    %edx,%eax
    5631:	85 c0                	test   %eax,%eax
    5633:	78 08                	js     563d <safe_sub_func_int32_t_s_s+0x38>
    5635:	8b 45 fc             	mov    -0x4(%rbp),%eax
    5638:	2b 45 f8             	sub    -0x8(%rbp),%eax
    563b:	eb 03                	jmp    5640 <safe_sub_func_int32_t_s_s+0x3b>
    563d:	8b 45 fc             	mov    -0x4(%rbp),%eax
    5640:	5d                   	pop    %rbp
    5641:	c3                   	retq   

0000000000005642 <safe_mul_func_int32_t_s_s>:
    5642:	f3 0f 1e fa          	endbr64 
    5646:	55                   	push   %rbp
    5647:	48 89 e5             	mov    %rsp,%rbp
    564a:	89 7d fc             	mov    %edi,-0x4(%rbp)
    564d:	89 75 f8             	mov    %esi,-0x8(%rbp)
    5650:	83 7d fc 00          	cmpl   $0x0,-0x4(%rbp)
    5654:	7e 14                	jle    566a <safe_mul_func_int32_t_s_s+0x28>
    5656:	83 7d f8 00          	cmpl   $0x0,-0x8(%rbp)
    565a:	7e 0e                	jle    566a <safe_mul_func_int32_t_s_s+0x28>
    565c:	b8 ff ff ff 7f       	mov    $0x7fffffff,%eax
    5661:	99                   	cltd   
    5662:	f7 7d f8             	idivl  -0x8(%rbp)
    5665:	39 45 fc             	cmp    %eax,-0x4(%rbp)
    5668:	7f 5d                	jg     56c7 <safe_mul_func_int32_t_s_s+0x85>
    566a:	83 7d fc 00          	cmpl   $0x0,-0x4(%rbp)
    566e:	7e 14                	jle    5684 <safe_mul_func_int32_t_s_s+0x42>
    5670:	83 7d f8 00          	cmpl   $0x0,-0x8(%rbp)
    5674:	7f 0e                	jg     5684 <safe_mul_func_int32_t_s_s+0x42>
    5676:	b8 00 00 00 80       	mov    $0x80000000,%eax
    567b:	99                   	cltd   
    567c:	f7 7d fc             	idivl  -0x4(%rbp)
    567f:	39 45 f8             	cmp    %eax,-0x8(%rbp)
    5682:	7c 43                	jl     56c7 <safe_mul_func_int32_t_s_s+0x85>
    5684:	83 7d fc 00          	cmpl   $0x0,-0x4(%rbp)
    5688:	7f 14                	jg     569e <safe_mul_func_int32_t_s_s+0x5c>
    568a:	83 7d f8 00          	cmpl   $0x0,-0x8(%rbp)
    568e:	7e 0e                	jle    569e <safe_mul_func_int32_t_s_s+0x5c>
    5690:	b8 00 00 00 80       	mov    $0x80000000,%eax
    5695:	99                   	cltd   
    5696:	f7 7d f8             	idivl  -0x8(%rbp)
    5699:	39 45 fc             	cmp    %eax,-0x4(%rbp)
    569c:	7c 29                	jl     56c7 <safe_mul_func_int32_t_s_s+0x85>
    569e:	83 7d fc 00          	cmpl   $0x0,-0x4(%rbp)
    56a2:	7f 1a                	jg     56be <safe_mul_func_int32_t_s_s+0x7c>
    56a4:	83 7d f8 00          	cmpl   $0x0,-0x8(%rbp)
    56a8:	7f 14                	jg     56be <safe_mul_func_int32_t_s_s+0x7c>
    56aa:	83 7d fc 00          	cmpl   $0x0,-0x4(%rbp)
    56ae:	74 0e                	je     56be <safe_mul_func_int32_t_s_s+0x7c>
    56b0:	b8 ff ff ff 7f       	mov    $0x7fffffff,%eax
    56b5:	99                   	cltd   
    56b6:	f7 7d fc             	idivl  -0x4(%rbp)
    56b9:	39 45 f8             	cmp    %eax,-0x8(%rbp)
    56bc:	7c 09                	jl     56c7 <safe_mul_func_int32_t_s_s+0x85>
    56be:	8b 45 fc             	mov    -0x4(%rbp),%eax
    56c1:	0f af 45 f8          	imul   -0x8(%rbp),%eax
    56c5:	eb 03                	jmp    56ca <safe_mul_func_int32_t_s_s+0x88>
    56c7:	8b 45 fc             	mov    -0x4(%rbp),%eax
    56ca:	5d                   	pop    %rbp
    56cb:	c3                   	retq   

00000000000056cc <safe_mod_func_int32_t_s_s>:
    56cc:	f3 0f 1e fa          	endbr64 
    56d0:	55                   	push   %rbp
    56d1:	48 89 e5             	mov    %rsp,%rbp
    56d4:	89 7d fc             	mov    %edi,-0x4(%rbp)
    56d7:	89 75 f8             	mov    %esi,-0x8(%rbp)
    56da:	83 7d f8 00          	cmpl   $0x0,-0x8(%rbp)
    56de:	74 1a                	je     56fa <safe_mod_func_int32_t_s_s+0x2e>
    56e0:	81 7d fc 00 00 00 80 	cmpl   $0x80000000,-0x4(%rbp)
    56e7:	75 06                	jne    56ef <safe_mod_func_int32_t_s_s+0x23>
    56e9:	83 7d f8 ff          	cmpl   $0xffffffff,-0x8(%rbp)
    56ed:	74 0b                	je     56fa <safe_mod_func_int32_t_s_s+0x2e>
    56ef:	8b 45 fc             	mov    -0x4(%rbp),%eax
    56f2:	99                   	cltd   
    56f3:	f7 7d f8             	idivl  -0x8(%rbp)
    56f6:	89 d0                	mov    %edx,%eax
    56f8:	eb 03                	jmp    56fd <safe_mod_func_int32_t_s_s+0x31>
    56fa:	8b 45 fc             	mov    -0x4(%rbp),%eax
    56fd:	5d                   	pop    %rbp
    56fe:	c3                   	retq   

00000000000056ff <safe_div_func_int32_t_s_s>:
    56ff:	f3 0f 1e fa          	endbr64 
    5703:	55                   	push   %rbp
    5704:	48 89 e5             	mov    %rsp,%rbp
    5707:	89 7d fc             	mov    %edi,-0x4(%rbp)
    570a:	89 75 f8             	mov    %esi,-0x8(%rbp)
    570d:	83 7d f8 00          	cmpl   $0x0,-0x8(%rbp)
    5711:	74 18                	je     572b <safe_div_func_int32_t_s_s+0x2c>
    5713:	81 7d fc 00 00 00 80 	cmpl   $0x80000000,-0x4(%rbp)
    571a:	75 06                	jne    5722 <safe_div_func_int32_t_s_s+0x23>
    571c:	83 7d f8 ff          	cmpl   $0xffffffff,-0x8(%rbp)
    5720:	74 09                	je     572b <safe_div_func_int32_t_s_s+0x2c>
    5722:	8b 45 fc             	mov    -0x4(%rbp),%eax
    5725:	99                   	cltd   
    5726:	f7 7d f8             	idivl  -0x8(%rbp)
    5729:	eb 03                	jmp    572e <safe_div_func_int32_t_s_s+0x2f>
    572b:	8b 45 fc             	mov    -0x4(%rbp),%eax
    572e:	5d                   	pop    %rbp
    572f:	c3                   	retq   

0000000000005730 <safe_lshift_func_int32_t_s_s>:
    5730:	f3 0f 1e fa          	endbr64 
    5734:	55                   	push   %rbp
    5735:	48 89 e5             	mov    %rsp,%rbp
    5738:	89 7d fc             	mov    %edi,-0x4(%rbp)
    573b:	89 75 f8             	mov    %esi,-0x8(%rbp)
    573e:	83 7d fc 00          	cmpl   $0x0,-0x4(%rbp)
    5742:	78 2d                	js     5771 <safe_lshift_func_int32_t_s_s+0x41>
    5744:	83 7d f8 00          	cmpl   $0x0,-0x8(%rbp)
    5748:	78 27                	js     5771 <safe_lshift_func_int32_t_s_s+0x41>
    574a:	83 7d f8 1f          	cmpl   $0x1f,-0x8(%rbp)
    574e:	7f 21                	jg     5771 <safe_lshift_func_int32_t_s_s+0x41>
    5750:	8b 45 f8             	mov    -0x8(%rbp),%eax
    5753:	ba ff ff ff 7f       	mov    $0x7fffffff,%edx
    5758:	89 c1                	mov    %eax,%ecx
    575a:	d3 fa                	sar    %cl,%edx
    575c:	89 d0                	mov    %edx,%eax
    575e:	39 45 fc             	cmp    %eax,-0x4(%rbp)
    5761:	7f 0e                	jg     5771 <safe_lshift_func_int32_t_s_s+0x41>
    5763:	8b 45 f8             	mov    -0x8(%rbp),%eax
    5766:	8b 55 fc             	mov    -0x4(%rbp),%edx
    5769:	89 c1                	mov    %eax,%ecx
    576b:	d3 e2                	shl    %cl,%edx
    576d:	89 d0                	mov    %edx,%eax
    576f:	eb 03                	jmp    5774 <safe_lshift_func_int32_t_s_s+0x44>
    5771:	8b 45 fc             	mov    -0x4(%rbp),%eax
    5774:	5d                   	pop    %rbp
    5775:	c3                   	retq   

0000000000005776 <safe_lshift_func_int32_t_s_u>:
    5776:	f3 0f 1e fa          	endbr64 
    577a:	55                   	push   %rbp
    577b:	48 89 e5             	mov    %rsp,%rbp
    577e:	89 7d fc             	mov    %edi,-0x4(%rbp)
    5781:	89 75 f8             	mov    %esi,-0x8(%rbp)
    5784:	83 7d fc 00          	cmpl   $0x0,-0x4(%rbp)
    5788:	78 27                	js     57b1 <safe_lshift_func_int32_t_s_u+0x3b>
    578a:	83 7d f8 1f          	cmpl   $0x1f,-0x8(%rbp)
    578e:	77 21                	ja     57b1 <safe_lshift_func_int32_t_s_u+0x3b>
    5790:	8b 45 f8             	mov    -0x8(%rbp),%eax
    5793:	ba ff ff ff 7f       	mov    $0x7fffffff,%edx
    5798:	89 c1                	mov    %eax,%ecx
    579a:	d3 fa                	sar    %cl,%edx
    579c:	89 d0                	mov    %edx,%eax
    579e:	39 45 fc             	cmp    %eax,-0x4(%rbp)
    57a1:	7f 0e                	jg     57b1 <safe_lshift_func_int32_t_s_u+0x3b>
    57a3:	8b 45 f8             	mov    -0x8(%rbp),%eax
    57a6:	8b 55 fc             	mov    -0x4(%rbp),%edx
    57a9:	89 c1                	mov    %eax,%ecx
    57ab:	d3 e2                	shl    %cl,%edx
    57ad:	89 d0                	mov    %edx,%eax
    57af:	eb 03                	jmp    57b4 <safe_lshift_func_int32_t_s_u+0x3e>
    57b1:	8b 45 fc             	mov    -0x4(%rbp),%eax
    57b4:	5d                   	pop    %rbp
    57b5:	c3                   	retq   

00000000000057b6 <safe_rshift_func_int32_t_s_s>:
    57b6:	f3 0f 1e fa          	endbr64 
    57ba:	55                   	push   %rbp
    57bb:	48 89 e5             	mov    %rsp,%rbp
    57be:	89 7d fc             	mov    %edi,-0x4(%rbp)
    57c1:	89 75 f8             	mov    %esi,-0x8(%rbp)
    57c4:	83 7d fc 00          	cmpl   $0x0,-0x4(%rbp)
    57c8:	78 1a                	js     57e4 <safe_rshift_func_int32_t_s_s+0x2e>
    57ca:	83 7d f8 00          	cmpl   $0x0,-0x8(%rbp)
    57ce:	78 14                	js     57e4 <safe_rshift_func_int32_t_s_s+0x2e>
    57d0:	83 7d f8 1f          	cmpl   $0x1f,-0x8(%rbp)
    57d4:	7f 0e                	jg     57e4 <safe_rshift_func_int32_t_s_s+0x2e>
    57d6:	8b 45 f8             	mov    -0x8(%rbp),%eax
    57d9:	8b 55 fc             	mov    -0x4(%rbp),%edx
    57dc:	89 c1                	mov    %eax,%ecx
    57de:	d3 fa                	sar    %cl,%edx
    57e0:	89 d0                	mov    %edx,%eax
    57e2:	eb 03                	jmp    57e7 <safe_rshift_func_int32_t_s_s+0x31>
    57e4:	8b 45 fc             	mov    -0x4(%rbp),%eax
    57e7:	5d                   	pop    %rbp
    57e8:	c3                   	retq   

00000000000057e9 <safe_rshift_func_int32_t_s_u>:
    57e9:	f3 0f 1e fa          	endbr64 
    57ed:	55                   	push   %rbp
    57ee:	48 89 e5             	mov    %rsp,%rbp
    57f1:	89 7d fc             	mov    %edi,-0x4(%rbp)
    57f4:	89 75 f8             	mov    %esi,-0x8(%rbp)
    57f7:	83 7d fc 00          	cmpl   $0x0,-0x4(%rbp)
    57fb:	78 14                	js     5811 <safe_rshift_func_int32_t_s_u+0x28>
    57fd:	83 7d f8 1f          	cmpl   $0x1f,-0x8(%rbp)
    5801:	77 0e                	ja     5811 <safe_rshift_func_int32_t_s_u+0x28>
    5803:	8b 45 f8             	mov    -0x8(%rbp),%eax
    5806:	8b 55 fc             	mov    -0x4(%rbp),%edx
    5809:	89 c1                	mov    %eax,%ecx
    580b:	d3 fa                	sar    %cl,%edx
    580d:	89 d0                	mov    %edx,%eax
    580f:	eb 03                	jmp    5814 <safe_rshift_func_int32_t_s_u+0x2b>
    5811:	8b 45 fc             	mov    -0x4(%rbp),%eax
    5814:	5d                   	pop    %rbp
    5815:	c3                   	retq   

0000000000005816 <safe_unary_minus_func_int64_t_s>:
    5816:	f3 0f 1e fa          	endbr64 
    581a:	55                   	push   %rbp
    581b:	48 89 e5             	mov    %rsp,%rbp
    581e:	48 89 7d f8          	mov    %rdi,-0x8(%rbp)
    5822:	48 b8 00 00 00 00 00 	movabs $0x8000000000000000,%rax
    5829:	00 00 80 
    582c:	48 39 45 f8          	cmp    %rax,-0x8(%rbp)
    5830:	74 09                	je     583b <safe_unary_minus_func_int64_t_s+0x25>
    5832:	48 8b 45 f8          	mov    -0x8(%rbp),%rax
    5836:	48 f7 d8             	neg    %rax
    5839:	eb 04                	jmp    583f <safe_unary_minus_func_int64_t_s+0x29>
    583b:	48 8b 45 f8          	mov    -0x8(%rbp),%rax
    583f:	5d                   	pop    %rbp
    5840:	c3                   	retq   

0000000000005841 <safe_add_func_int64_t_s_s>:
    5841:	f3 0f 1e fa          	endbr64 
    5845:	55                   	push   %rbp
    5846:	48 89 e5             	mov    %rsp,%rbp
    5849:	48 89 7d f8          	mov    %rdi,-0x8(%rbp)
    584d:	48 89 75 f0          	mov    %rsi,-0x10(%rbp)
    5851:	48 83 7d f8 00       	cmpq   $0x0,-0x8(%rbp)
    5856:	7e 1b                	jle    5873 <safe_add_func_int64_t_s_s+0x32>
    5858:	48 83 7d f0 00       	cmpq   $0x0,-0x10(%rbp)
    585d:	7e 14                	jle    5873 <safe_add_func_int64_t_s_s+0x32>
    585f:	48 b8 ff ff ff ff ff 	movabs $0x7fffffffffffffff,%rax
    5866:	ff ff 7f 
    5869:	48 2b 45 f0          	sub    -0x10(%rbp),%rax
    586d:	48 39 45 f8          	cmp    %rax,-0x8(%rbp)
    5871:	7f 2f                	jg     58a2 <safe_add_func_int64_t_s_s+0x61>
    5873:	48 83 7d f8 00       	cmpq   $0x0,-0x8(%rbp)
    5878:	79 1b                	jns    5895 <safe_add_func_int64_t_s_s+0x54>
    587a:	48 83 7d f0 00       	cmpq   $0x0,-0x10(%rbp)
    587f:	79 14                	jns    5895 <safe_add_func_int64_t_s_s+0x54>
    5881:	48 b8 00 00 00 00 00 	movabs $0x8000000000000000,%rax
    5888:	00 00 80 
    588b:	48 2b 45 f0          	sub    -0x10(%rbp),%rax
    588f:	48 39 45 f8          	cmp    %rax,-0x8(%rbp)
    5893:	7c 0d                	jl     58a2 <safe_add_func_int64_t_s_s+0x61>
    5895:	48 8b 55 f8          	mov    -0x8(%rbp),%rdx
    5899:	48 8b 45 f0          	mov    -0x10(%rbp),%rax
    589d:	48 01 d0             	add    %rdx,%rax
    58a0:	eb 04                	jmp    58a6 <safe_add_func_int64_t_s_s+0x65>
    58a2:	48 8b 45 f8          	mov    -0x8(%rbp),%rax
    58a6:	5d                   	pop    %rbp
    58a7:	c3                   	retq   

00000000000058a8 <safe_sub_func_int64_t_s_s>:
    58a8:	f3 0f 1e fa          	endbr64 
    58ac:	55                   	push   %rbp
    58ad:	48 89 e5             	mov    %rsp,%rbp
    58b0:	48 89 7d f8          	mov    %rdi,-0x8(%rbp)
    58b4:	48 89 75 f0          	mov    %rsi,-0x10(%rbp)
    58b8:	48 8b 45 f8          	mov    -0x8(%rbp),%rax
    58bc:	48 33 45 f0          	xor    -0x10(%rbp),%rax
    58c0:	48 89 c2             	mov    %rax,%rdx
    58c3:	48 8b 45 f8          	mov    -0x8(%rbp),%rax
    58c7:	48 33 45 f0          	xor    -0x10(%rbp),%rax
    58cb:	48 b9 00 00 00 00 00 	movabs $0x8000000000000000,%rcx
    58d2:	00 00 80 
    58d5:	48 21 c8             	and    %rcx,%rax
    58d8:	48 33 45 f8          	xor    -0x8(%rbp),%rax
    58dc:	48 2b 45 f0          	sub    -0x10(%rbp),%rax
    58e0:	48 33 45 f0          	xor    -0x10(%rbp),%rax
    58e4:	48 21 d0             	and    %rdx,%rax
    58e7:	48 85 c0             	test   %rax,%rax
    58ea:	78 0a                	js     58f6 <safe_sub_func_int64_t_s_s+0x4e>
    58ec:	48 8b 45 f8          	mov    -0x8(%rbp),%rax
    58f0:	48 2b 45 f0          	sub    -0x10(%rbp),%rax
    58f4:	eb 04                	jmp    58fa <safe_sub_func_int64_t_s_s+0x52>
    58f6:	48 8b 45 f8          	mov    -0x8(%rbp),%rax
    58fa:	5d                   	pop    %rbp
    58fb:	c3                   	retq   

00000000000058fc <safe_mul_func_int64_t_s_s>:
    58fc:	f3 0f 1e fa          	endbr64 
    5900:	55                   	push   %rbp
    5901:	48 89 e5             	mov    %rsp,%rbp
    5904:	48 89 7d f8          	mov    %rdi,-0x8(%rbp)
    5908:	48 89 75 f0          	mov    %rsi,-0x10(%rbp)
    590c:	48 83 7d f8 00       	cmpq   $0x0,-0x8(%rbp)
    5911:	7e 1d                	jle    5930 <safe_mul_func_int64_t_s_s+0x34>
    5913:	48 83 7d f0 00       	cmpq   $0x0,-0x10(%rbp)
    5918:	7e 16                	jle    5930 <safe_mul_func_int64_t_s_s+0x34>
    591a:	48 b8 ff ff ff ff ff 	movabs $0x7fffffffffffffff,%rax
    5921:	ff ff 7f 
    5924:	48 99                	cqto   
    5926:	48 f7 7d f0          	idivq  -0x10(%rbp)
    592a:	48 39 45 f8          	cmp    %rax,-0x8(%rbp)
    592e:	7f 7e                	jg     59ae <safe_mul_func_int64_t_s_s+0xb2>
    5930:	48 83 7d f8 00       	cmpq   $0x0,-0x8(%rbp)
    5935:	7e 1d                	jle    5954 <safe_mul_func_int64_t_s_s+0x58>
    5937:	48 83 7d f0 00       	cmpq   $0x0,-0x10(%rbp)
    593c:	7f 16                	jg     5954 <safe_mul_func_int64_t_s_s+0x58>
    593e:	48 b8 00 00 00 00 00 	movabs $0x8000000000000000,%rax
    5945:	00 00 80 
    5948:	48 99                	cqto   
    594a:	48 f7 7d f8          	idivq  -0x8(%rbp)
    594e:	48 39 45 f0          	cmp    %rax,-0x10(%rbp)
    5952:	7c 5a                	jl     59ae <safe_mul_func_int64_t_s_s+0xb2>
    5954:	48 83 7d f8 00       	cmpq   $0x0,-0x8(%rbp)
    5959:	7f 1d                	jg     5978 <safe_mul_func_int64_t_s_s+0x7c>
    595b:	48 83 7d f0 00       	cmpq   $0x0,-0x10(%rbp)
    5960:	7e 16                	jle    5978 <safe_mul_func_int64_t_s_s+0x7c>
    5962:	48 b8 00 00 00 00 00 	movabs $0x8000000000000000,%rax
    5969:	00 00 80 
    596c:	48 99                	cqto   
    596e:	48 f7 7d f0          	idivq  -0x10(%rbp)
    5972:	48 39 45 f8          	cmp    %rax,-0x8(%rbp)
    5976:	7c 36                	jl     59ae <safe_mul_func_int64_t_s_s+0xb2>
    5978:	48 83 7d f8 00       	cmpq   $0x0,-0x8(%rbp)
    597d:	7f 24                	jg     59a3 <safe_mul_func_int64_t_s_s+0xa7>
    597f:	48 83 7d f0 00       	cmpq   $0x0,-0x10(%rbp)
    5984:	7f 1d                	jg     59a3 <safe_mul_func_int64_t_s_s+0xa7>
    5986:	48 83 7d f8 00       	cmpq   $0x0,-0x8(%rbp)
    598b:	74 16                	je     59a3 <safe_mul_func_int64_t_s_s+0xa7>
    598d:	48 b8 ff ff ff ff ff 	movabs $0x7fffffffffffffff,%rax
    5994:	ff ff 7f 
    5997:	48 99                	cqto   
    5999:	48 f7 7d f8          	idivq  -0x8(%rbp)
    599d:	48 39 45 f0          	cmp    %rax,-0x10(%rbp)
    59a1:	7c 0b                	jl     59ae <safe_mul_func_int64_t_s_s+0xb2>
    59a3:	48 8b 45 f8          	mov    -0x8(%rbp),%rax
    59a7:	48 0f af 45 f0       	imul   -0x10(%rbp),%rax
    59ac:	eb 04                	jmp    59b2 <safe_mul_func_int64_t_s_s+0xb6>
    59ae:	48 8b 45 f8          	mov    -0x8(%rbp),%rax
    59b2:	5d                   	pop    %rbp
    59b3:	c3                   	retq   

00000000000059b4 <safe_mod_func_int64_t_s_s>:
    59b4:	f3 0f 1e fa          	endbr64 
    59b8:	55                   	push   %rbp
    59b9:	48 89 e5             	mov    %rsp,%rbp
    59bc:	48 89 7d f8          	mov    %rdi,-0x8(%rbp)
    59c0:	48 89 75 f0          	mov    %rsi,-0x10(%rbp)
    59c4:	48 83 7d f0 00       	cmpq   $0x0,-0x10(%rbp)
    59c9:	74 26                	je     59f1 <safe_mod_func_int64_t_s_s+0x3d>
    59cb:	48 b8 00 00 00 00 00 	movabs $0x8000000000000000,%rax
    59d2:	00 00 80 
    59d5:	48 39 45 f8          	cmp    %rax,-0x8(%rbp)
    59d9:	75 07                	jne    59e2 <safe_mod_func_int64_t_s_s+0x2e>
    59db:	48 83 7d f0 ff       	cmpq   $0xffffffffffffffff,-0x10(%rbp)
    59e0:	74 0f                	je     59f1 <safe_mod_func_int64_t_s_s+0x3d>
    59e2:	48 8b 45 f8          	mov    -0x8(%rbp),%rax
    59e6:	48 99                	cqto   
    59e8:	48 f7 7d f0          	idivq  -0x10(%rbp)
    59ec:	48 89 d0             	mov    %rdx,%rax
    59ef:	eb 04                	jmp    59f5 <safe_mod_func_int64_t_s_s+0x41>
    59f1:	48 8b 45 f8          	mov    -0x8(%rbp),%rax
    59f5:	5d                   	pop    %rbp
    59f6:	c3                   	retq   

00000000000059f7 <safe_div_func_int64_t_s_s>:
    59f7:	f3 0f 1e fa          	endbr64 
    59fb:	55                   	push   %rbp
    59fc:	48 89 e5             	mov    %rsp,%rbp
    59ff:	48 89 7d f8          	mov    %rdi,-0x8(%rbp)
    5a03:	48 89 75 f0          	mov    %rsi,-0x10(%rbp)
    5a07:	48 83 7d f0 00       	cmpq   $0x0,-0x10(%rbp)
    5a0c:	74 23                	je     5a31 <safe_div_func_int64_t_s_s+0x3a>
    5a0e:	48 b8 00 00 00 00 00 	movabs $0x8000000000000000,%rax
    5a15:	00 00 80 
    5a18:	48 39 45 f8          	cmp    %rax,-0x8(%rbp)
    5a1c:	75 07                	jne    5a25 <safe_div_func_int64_t_s_s+0x2e>
    5a1e:	48 83 7d f0 ff       	cmpq   $0xffffffffffffffff,-0x10(%rbp)
    5a23:	74 0c                	je     5a31 <safe_div_func_int64_t_s_s+0x3a>
    5a25:	48 8b 45 f8          	mov    -0x8(%rbp),%rax
    5a29:	48 99                	cqto   
    5a2b:	48 f7 7d f0          	idivq  -0x10(%rbp)
    5a2f:	eb 04                	jmp    5a35 <safe_div_func_int64_t_s_s+0x3e>
    5a31:	48 8b 45 f8          	mov    -0x8(%rbp),%rax
    5a35:	5d                   	pop    %rbp
    5a36:	c3                   	retq   

0000000000005a37 <safe_lshift_func_int64_t_s_s>:
    5a37:	f3 0f 1e fa          	endbr64 
    5a3b:	55                   	push   %rbp
    5a3c:	48 89 e5             	mov    %rsp,%rbp
    5a3f:	48 89 7d f8          	mov    %rdi,-0x8(%rbp)
    5a43:	89 75 f4             	mov    %esi,-0xc(%rbp)
    5a46:	48 83 7d f8 00       	cmpq   $0x0,-0x8(%rbp)
    5a4b:	78 38                	js     5a85 <safe_lshift_func_int64_t_s_s+0x4e>
    5a4d:	83 7d f4 00          	cmpl   $0x0,-0xc(%rbp)
    5a51:	78 32                	js     5a85 <safe_lshift_func_int64_t_s_s+0x4e>
    5a53:	83 7d f4 1f          	cmpl   $0x1f,-0xc(%rbp)
    5a57:	7f 2c                	jg     5a85 <safe_lshift_func_int64_t_s_s+0x4e>
    5a59:	8b 45 f4             	mov    -0xc(%rbp),%eax
    5a5c:	48 ba ff ff ff ff ff 	movabs $0x7fffffffffffffff,%rdx
    5a63:	ff ff 7f 
    5a66:	89 c1                	mov    %eax,%ecx
    5a68:	48 d3 fa             	sar    %cl,%rdx
    5a6b:	48 89 d0             	mov    %rdx,%rax
    5a6e:	48 39 45 f8          	cmp    %rax,-0x8(%rbp)
    5a72:	7f 11                	jg     5a85 <safe_lshift_func_int64_t_s_s+0x4e>
    5a74:	8b 45 f4             	mov    -0xc(%rbp),%eax
    5a77:	48 8b 55 f8          	mov    -0x8(%rbp),%rdx
    5a7b:	89 c1                	mov    %eax,%ecx
    5a7d:	48 d3 e2             	shl    %cl,%rdx
    5a80:	48 89 d0             	mov    %rdx,%rax
    5a83:	eb 04                	jmp    5a89 <safe_lshift_func_int64_t_s_s+0x52>
    5a85:	48 8b 45 f8          	mov    -0x8(%rbp),%rax
    5a89:	5d                   	pop    %rbp
    5a8a:	c3                   	retq   

0000000000005a8b <safe_lshift_func_int64_t_s_u>:
    5a8b:	f3 0f 1e fa          	endbr64 
    5a8f:	55                   	push   %rbp
    5a90:	48 89 e5             	mov    %rsp,%rbp
    5a93:	48 89 7d f8          	mov    %rdi,-0x8(%rbp)
    5a97:	89 75 f4             	mov    %esi,-0xc(%rbp)
    5a9a:	48 83 7d f8 00       	cmpq   $0x0,-0x8(%rbp)
    5a9f:	78 32                	js     5ad3 <safe_lshift_func_int64_t_s_u+0x48>
    5aa1:	83 7d f4 1f          	cmpl   $0x1f,-0xc(%rbp)
    5aa5:	77 2c                	ja     5ad3 <safe_lshift_func_int64_t_s_u+0x48>
    5aa7:	8b 45 f4             	mov    -0xc(%rbp),%eax
    5aaa:	48 ba ff ff ff ff ff 	movabs $0x7fffffffffffffff,%rdx
    5ab1:	ff ff 7f 
    5ab4:	89 c1                	mov    %eax,%ecx
    5ab6:	48 d3 fa             	sar    %cl,%rdx
    5ab9:	48 89 d0             	mov    %rdx,%rax
    5abc:	48 39 45 f8          	cmp    %rax,-0x8(%rbp)
    5ac0:	7f 11                	jg     5ad3 <safe_lshift_func_int64_t_s_u+0x48>
    5ac2:	8b 45 f4             	mov    -0xc(%rbp),%eax
    5ac5:	48 8b 55 f8          	mov    -0x8(%rbp),%rdx
    5ac9:	89 c1                	mov    %eax,%ecx
    5acb:	48 d3 e2             	shl    %cl,%rdx
    5ace:	48 89 d0             	mov    %rdx,%rax
    5ad1:	eb 04                	jmp    5ad7 <safe_lshift_func_int64_t_s_u+0x4c>
    5ad3:	48 8b 45 f8          	mov    -0x8(%rbp),%rax
    5ad7:	5d                   	pop    %rbp
    5ad8:	c3                   	retq   

0000000000005ad9 <safe_rshift_func_int64_t_s_s>:
    5ad9:	f3 0f 1e fa          	endbr64 
    5add:	55                   	push   %rbp
    5ade:	48 89 e5             	mov    %rsp,%rbp
    5ae1:	48 89 7d f8          	mov    %rdi,-0x8(%rbp)
    5ae5:	89 75 f4             	mov    %esi,-0xc(%rbp)
    5ae8:	48 83 7d f8 00       	cmpq   $0x0,-0x8(%rbp)
    5aed:	78 1d                	js     5b0c <safe_rshift_func_int64_t_s_s+0x33>
    5aef:	83 7d f4 00          	cmpl   $0x0,-0xc(%rbp)
    5af3:	78 17                	js     5b0c <safe_rshift_func_int64_t_s_s+0x33>
    5af5:	83 7d f4 1f          	cmpl   $0x1f,-0xc(%rbp)
    5af9:	7f 11                	jg     5b0c <safe_rshift_func_int64_t_s_s+0x33>
    5afb:	8b 45 f4             	mov    -0xc(%rbp),%eax
    5afe:	48 8b 55 f8          	mov    -0x8(%rbp),%rdx
    5b02:	89 c1                	mov    %eax,%ecx
    5b04:	48 d3 fa             	sar    %cl,%rdx
    5b07:	48 89 d0             	mov    %rdx,%rax
    5b0a:	eb 04                	jmp    5b10 <safe_rshift_func_int64_t_s_s+0x37>
    5b0c:	48 8b 45 f8          	mov    -0x8(%rbp),%rax
    5b10:	5d                   	pop    %rbp
    5b11:	c3                   	retq   

0000000000005b12 <safe_rshift_func_int64_t_s_u>:
    5b12:	f3 0f 1e fa          	endbr64 
    5b16:	55                   	push   %rbp
    5b17:	48 89 e5             	mov    %rsp,%rbp
    5b1a:	48 89 7d f8          	mov    %rdi,-0x8(%rbp)
    5b1e:	89 75 f4             	mov    %esi,-0xc(%rbp)
    5b21:	48 83 7d f8 00       	cmpq   $0x0,-0x8(%rbp)
    5b26:	78 17                	js     5b3f <safe_rshift_func_int64_t_s_u+0x2d>
    5b28:	83 7d f4 1f          	cmpl   $0x1f,-0xc(%rbp)
    5b2c:	77 11                	ja     5b3f <safe_rshift_func_int64_t_s_u+0x2d>
    5b2e:	8b 45 f4             	mov    -0xc(%rbp),%eax
    5b31:	48 8b 55 f8          	mov    -0x8(%rbp),%rdx
    5b35:	89 c1                	mov    %eax,%ecx
    5b37:	48 d3 fa             	sar    %cl,%rdx
    5b3a:	48 89 d0             	mov    %rdx,%rax
    5b3d:	eb 04                	jmp    5b43 <safe_rshift_func_int64_t_s_u+0x31>
    5b3f:	48 8b 45 f8          	mov    -0x8(%rbp),%rax
    5b43:	5d                   	pop    %rbp
    5b44:	c3                   	retq   

0000000000005b45 <safe_unary_minus_func_uint8_t_u>:
    5b45:	f3 0f 1e fa          	endbr64 
    5b49:	55                   	push   %rbp
    5b4a:	48 89 e5             	mov    %rsp,%rbp
    5b4d:	89 f8                	mov    %edi,%eax
    5b4f:	88 45 fc             	mov    %al,-0x4(%rbp)
    5b52:	0f b6 45 fc          	movzbl -0x4(%rbp),%eax
    5b56:	f7 d8                	neg    %eax
    5b58:	5d                   	pop    %rbp
    5b59:	c3                   	retq   

0000000000005b5a <safe_add_func_uint8_t_u_u>:
    5b5a:	f3 0f 1e fa          	endbr64 
    5b5e:	55                   	push   %rbp
    5b5f:	48 89 e5             	mov    %rsp,%rbp
    5b62:	89 fa                	mov    %edi,%edx
    5b64:	89 f0                	mov    %esi,%eax
    5b66:	88 55 fc             	mov    %dl,-0x4(%rbp)
    5b69:	88 45 f8             	mov    %al,-0x8(%rbp)
    5b6c:	0f b6 55 fc          	movzbl -0x4(%rbp),%edx
    5b70:	0f b6 45 f8          	movzbl -0x8(%rbp),%eax
    5b74:	01 d0                	add    %edx,%eax
    5b76:	5d                   	pop    %rbp
    5b77:	c3                   	retq   

0000000000005b78 <safe_sub_func_uint8_t_u_u>:
    5b78:	f3 0f 1e fa          	endbr64 
    5b7c:	55                   	push   %rbp
    5b7d:	48 89 e5             	mov    %rsp,%rbp
    5b80:	89 fa                	mov    %edi,%edx
    5b82:	89 f0                	mov    %esi,%eax
    5b84:	88 55 fc             	mov    %dl,-0x4(%rbp)
    5b87:	88 45 f8             	mov    %al,-0x8(%rbp)
    5b8a:	0f b6 45 fc          	movzbl -0x4(%rbp),%eax
    5b8e:	2a 45 f8             	sub    -0x8(%rbp),%al
    5b91:	5d                   	pop    %rbp
    5b92:	c3                   	retq   

0000000000005b93 <safe_mul_func_uint8_t_u_u>:
    5b93:	f3 0f 1e fa          	endbr64 
    5b97:	55                   	push   %rbp
    5b98:	48 89 e5             	mov    %rsp,%rbp
    5b9b:	89 fa                	mov    %edi,%edx
    5b9d:	89 f0                	mov    %esi,%eax
    5b9f:	88 55 fc             	mov    %dl,-0x4(%rbp)
    5ba2:	88 45 f8             	mov    %al,-0x8(%rbp)
    5ba5:	0f b6 45 fc          	movzbl -0x4(%rbp),%eax
    5ba9:	f6 65 f8             	mulb   -0x8(%rbp)
    5bac:	5d                   	pop    %rbp
    5bad:	c3                   	retq   

0000000000005bae <safe_mod_func_uint8_t_u_u>:
    5bae:	f3 0f 1e fa          	endbr64 
    5bb2:	55                   	push   %rbp
    5bb3:	48 89 e5             	mov    %rsp,%rbp
    5bb6:	89 fa                	mov    %edi,%edx
    5bb8:	89 f0                	mov    %esi,%eax
    5bba:	88 55 fc             	mov    %dl,-0x4(%rbp)
    5bbd:	88 45 f8             	mov    %al,-0x8(%rbp)
    5bc0:	80 7d f8 00          	cmpb   $0x0,-0x8(%rbp)
    5bc4:	74 0f                	je     5bd5 <safe_mod_func_uint8_t_u_u+0x27>
    5bc6:	0f b6 45 fc          	movzbl -0x4(%rbp),%eax
    5bca:	0f b6 c0             	movzbl %al,%eax
    5bcd:	f6 75 f8             	divb   -0x8(%rbp)
    5bd0:	0f b6 c4             	movzbl %ah,%eax
    5bd3:	eb 04                	jmp    5bd9 <safe_mod_func_uint8_t_u_u+0x2b>
    5bd5:	0f b6 45 fc          	movzbl -0x4(%rbp),%eax
    5bd9:	5d                   	pop    %rbp
    5bda:	c3                   	retq   

0000000000005bdb <safe_div_func_uint8_t_u_u>:
    5bdb:	f3 0f 1e fa          	endbr64 
    5bdf:	55                   	push   %rbp
    5be0:	48 89 e5             	mov    %rsp,%rbp
    5be3:	89 fa                	mov    %edi,%edx
    5be5:	89 f0                	mov    %esi,%eax
    5be7:	88 55 fc             	mov    %dl,-0x4(%rbp)
    5bea:	88 45 f8             	mov    %al,-0x8(%rbp)
    5bed:	80 7d f8 00          	cmpb   $0x0,-0x8(%rbp)
    5bf1:	74 0c                	je     5bff <safe_div_func_uint8_t_u_u+0x24>
    5bf3:	0f b6 45 fc          	movzbl -0x4(%rbp),%eax
    5bf7:	0f b6 c0             	movzbl %al,%eax
    5bfa:	f6 75 f8             	divb   -0x8(%rbp)
    5bfd:	eb 04                	jmp    5c03 <safe_div_func_uint8_t_u_u+0x28>
    5bff:	0f b6 45 fc          	movzbl -0x4(%rbp),%eax
    5c03:	5d                   	pop    %rbp
    5c04:	c3                   	retq   

0000000000005c05 <safe_lshift_func_uint8_t_u_s>:
    5c05:	f3 0f 1e fa          	endbr64 
    5c09:	55                   	push   %rbp
    5c0a:	48 89 e5             	mov    %rsp,%rbp
    5c0d:	89 f8                	mov    %edi,%eax
    5c0f:	89 75 f8             	mov    %esi,-0x8(%rbp)
    5c12:	88 45 fc             	mov    %al,-0x4(%rbp)
    5c15:	83 7d f8 00          	cmpl   $0x0,-0x8(%rbp)
    5c19:	78 2b                	js     5c46 <safe_lshift_func_uint8_t_u_s+0x41>
    5c1b:	83 7d f8 1f          	cmpl   $0x1f,-0x8(%rbp)
    5c1f:	7f 25                	jg     5c46 <safe_lshift_func_uint8_t_u_s+0x41>
    5c21:	0f b6 55 fc          	movzbl -0x4(%rbp),%edx
    5c25:	8b 45 f8             	mov    -0x8(%rbp),%eax
    5c28:	be ff 00 00 00       	mov    $0xff,%esi
    5c2d:	89 c1                	mov    %eax,%ecx
    5c2f:	d3 fe                	sar    %cl,%esi
    5c31:	89 f0                	mov    %esi,%eax
    5c33:	39 c2                	cmp    %eax,%edx
    5c35:	7f 0f                	jg     5c46 <safe_lshift_func_uint8_t_u_s+0x41>
    5c37:	0f b6 55 fc          	movzbl -0x4(%rbp),%edx
    5c3b:	8b 45 f8             	mov    -0x8(%rbp),%eax
    5c3e:	89 c1                	mov    %eax,%ecx
    5c40:	d3 e2                	shl    %cl,%edx
    5c42:	89 d0                	mov    %edx,%eax
    5c44:	eb 04                	jmp    5c4a <safe_lshift_func_uint8_t_u_s+0x45>
    5c46:	0f b6 45 fc          	movzbl -0x4(%rbp),%eax
    5c4a:	5d                   	pop    %rbp
    5c4b:	c3                   	retq   

0000000000005c4c <safe_lshift_func_uint8_t_u_u>:
    5c4c:	f3 0f 1e fa          	endbr64 
    5c50:	55                   	push   %rbp
    5c51:	48 89 e5             	mov    %rsp,%rbp
    5c54:	89 f8                	mov    %edi,%eax
    5c56:	89 75 f8             	mov    %esi,-0x8(%rbp)
    5c59:	88 45 fc             	mov    %al,-0x4(%rbp)
    5c5c:	83 7d f8 1f          	cmpl   $0x1f,-0x8(%rbp)
    5c60:	77 25                	ja     5c87 <safe_lshift_func_uint8_t_u_u+0x3b>
    5c62:	0f b6 55 fc          	movzbl -0x4(%rbp),%edx
    5c66:	8b 45 f8             	mov    -0x8(%rbp),%eax
    5c69:	be ff 00 00 00       	mov    $0xff,%esi
    5c6e:	89 c1                	mov    %eax,%ecx
    5c70:	d3 fe                	sar    %cl,%esi
    5c72:	89 f0                	mov    %esi,%eax
    5c74:	39 c2                	cmp    %eax,%edx
    5c76:	7f 0f                	jg     5c87 <safe_lshift_func_uint8_t_u_u+0x3b>
    5c78:	0f b6 55 fc          	movzbl -0x4(%rbp),%edx
    5c7c:	8b 45 f8             	mov    -0x8(%rbp),%eax
    5c7f:	89 c1                	mov    %eax,%ecx
    5c81:	d3 e2                	shl    %cl,%edx
    5c83:	89 d0                	mov    %edx,%eax
    5c85:	eb 04                	jmp    5c8b <safe_lshift_func_uint8_t_u_u+0x3f>
    5c87:	0f b6 45 fc          	movzbl -0x4(%rbp),%eax
    5c8b:	5d                   	pop    %rbp
    5c8c:	c3                   	retq   

0000000000005c8d <safe_rshift_func_uint8_t_u_s>:
    5c8d:	f3 0f 1e fa          	endbr64 
    5c91:	55                   	push   %rbp
    5c92:	48 89 e5             	mov    %rsp,%rbp
    5c95:	89 f8                	mov    %edi,%eax
    5c97:	89 75 f8             	mov    %esi,-0x8(%rbp)
    5c9a:	88 45 fc             	mov    %al,-0x4(%rbp)
    5c9d:	83 7d f8 00          	cmpl   $0x0,-0x8(%rbp)
    5ca1:	78 15                	js     5cb8 <safe_rshift_func_uint8_t_u_s+0x2b>
    5ca3:	83 7d f8 1f          	cmpl   $0x1f,-0x8(%rbp)
    5ca7:	7f 0f                	jg     5cb8 <safe_rshift_func_uint8_t_u_s+0x2b>
    5ca9:	0f b6 55 fc          	movzbl -0x4(%rbp),%edx
    5cad:	8b 45 f8             	mov    -0x8(%rbp),%eax
    5cb0:	89 c1                	mov    %eax,%ecx
    5cb2:	d3 fa                	sar    %cl,%edx
    5cb4:	89 d0                	mov    %edx,%eax
    5cb6:	eb 04                	jmp    5cbc <safe_rshift_func_uint8_t_u_s+0x2f>
    5cb8:	0f b6 45 fc          	movzbl -0x4(%rbp),%eax
    5cbc:	5d                   	pop    %rbp
    5cbd:	c3                   	retq   

0000000000005cbe <safe_rshift_func_uint8_t_u_u>:
    5cbe:	f3 0f 1e fa          	endbr64 
    5cc2:	55                   	push   %rbp
    5cc3:	48 89 e5             	mov    %rsp,%rbp
    5cc6:	89 f8                	mov    %edi,%eax
    5cc8:	89 75 f8             	mov    %esi,-0x8(%rbp)
    5ccb:	88 45 fc             	mov    %al,-0x4(%rbp)
    5cce:	83 7d f8 1f          	cmpl   $0x1f,-0x8(%rbp)
    5cd2:	77 0f                	ja     5ce3 <safe_rshift_func_uint8_t_u_u+0x25>
    5cd4:	0f b6 55 fc          	movzbl -0x4(%rbp),%edx
    5cd8:	8b 45 f8             	mov    -0x8(%rbp),%eax
    5cdb:	89 c1                	mov    %eax,%ecx
    5cdd:	d3 fa                	sar    %cl,%edx
    5cdf:	89 d0                	mov    %edx,%eax
    5ce1:	eb 04                	jmp    5ce7 <safe_rshift_func_uint8_t_u_u+0x29>
    5ce3:	0f b6 45 fc          	movzbl -0x4(%rbp),%eax
    5ce7:	5d                   	pop    %rbp
    5ce8:	c3                   	retq   

0000000000005ce9 <safe_unary_minus_func_uint16_t_u>:
    5ce9:	f3 0f 1e fa          	endbr64 
    5ced:	55                   	push   %rbp
    5cee:	48 89 e5             	mov    %rsp,%rbp
    5cf1:	89 f8                	mov    %edi,%eax
    5cf3:	66 89 45 fc          	mov    %ax,-0x4(%rbp)
    5cf7:	0f b7 45 fc          	movzwl -0x4(%rbp),%eax
    5cfb:	f7 d8                	neg    %eax
    5cfd:	5d                   	pop    %rbp
    5cfe:	c3                   	retq   

0000000000005cff <safe_add_func_uint16_t_u_u>:
    5cff:	f3 0f 1e fa          	endbr64 
    5d03:	55                   	push   %rbp
    5d04:	48 89 e5             	mov    %rsp,%rbp
    5d07:	89 fa                	mov    %edi,%edx
    5d09:	89 f0                	mov    %esi,%eax
    5d0b:	66 89 55 fc          	mov    %dx,-0x4(%rbp)
    5d0f:	66 89 45 f8          	mov    %ax,-0x8(%rbp)
    5d13:	0f b7 55 fc          	movzwl -0x4(%rbp),%edx
    5d17:	0f b7 45 f8          	movzwl -0x8(%rbp),%eax
    5d1b:	01 d0                	add    %edx,%eax
    5d1d:	5d                   	pop    %rbp
    5d1e:	c3                   	retq   

0000000000005d1f <safe_sub_func_uint16_t_u_u>:
    5d1f:	f3 0f 1e fa          	endbr64 
    5d23:	55                   	push   %rbp
    5d24:	48 89 e5             	mov    %rsp,%rbp
    5d27:	89 fa                	mov    %edi,%edx
    5d29:	89 f0                	mov    %esi,%eax
    5d2b:	66 89 55 fc          	mov    %dx,-0x4(%rbp)
    5d2f:	66 89 45 f8          	mov    %ax,-0x8(%rbp)
    5d33:	0f b7 45 fc          	movzwl -0x4(%rbp),%eax
    5d37:	66 2b 45 f8          	sub    -0x8(%rbp),%ax
    5d3b:	5d                   	pop    %rbp
    5d3c:	c3                   	retq   

0000000000005d3d <safe_mul_func_uint16_t_u_u>:
    5d3d:	f3 0f 1e fa          	endbr64 
    5d41:	55                   	push   %rbp
    5d42:	48 89 e5             	mov    %rsp,%rbp
    5d45:	89 fa                	mov    %edi,%edx
    5d47:	89 f0                	mov    %esi,%eax
    5d49:	66 89 55 fc          	mov    %dx,-0x4(%rbp)
    5d4d:	66 89 45 f8          	mov    %ax,-0x8(%rbp)
    5d51:	0f b7 45 fc          	movzwl -0x4(%rbp),%eax
    5d55:	66 0f af 45 f8       	imul   -0x8(%rbp),%ax
    5d5a:	5d                   	pop    %rbp
    5d5b:	c3                   	retq   

0000000000005d5c <safe_mod_func_uint16_t_u_u>:
    5d5c:	f3 0f 1e fa          	endbr64 
    5d60:	55                   	push   %rbp
    5d61:	48 89 e5             	mov    %rsp,%rbp
    5d64:	89 fa                	mov    %edi,%edx
    5d66:	89 f0                	mov    %esi,%eax
    5d68:	66 89 55 fc          	mov    %dx,-0x4(%rbp)
    5d6c:	66 89 45 f8          	mov    %ax,-0x8(%rbp)
    5d70:	66 83 7d f8 00       	cmpw   $0x0,-0x8(%rbp)
    5d75:	74 11                	je     5d88 <safe_mod_func_uint16_t_u_u+0x2c>
    5d77:	0f b7 45 fc          	movzwl -0x4(%rbp),%eax
    5d7b:	ba 00 00 00 00       	mov    $0x0,%edx
    5d80:	66 f7 75 f8          	divw   -0x8(%rbp)
    5d84:	89 d0                	mov    %edx,%eax
    5d86:	eb 04                	jmp    5d8c <safe_mod_func_uint16_t_u_u+0x30>
    5d88:	0f b7 45 fc          	movzwl -0x4(%rbp),%eax
    5d8c:	5d                   	pop    %rbp
    5d8d:	c3                   	retq   

0000000000005d8e <safe_div_func_uint16_t_u_u>:
    5d8e:	f3 0f 1e fa          	endbr64 
    5d92:	55                   	push   %rbp
    5d93:	48 89 e5             	mov    %rsp,%rbp
    5d96:	89 fa                	mov    %edi,%edx
    5d98:	89 f0                	mov    %esi,%eax
    5d9a:	66 89 55 fc          	mov    %dx,-0x4(%rbp)
    5d9e:	66 89 45 f8          	mov    %ax,-0x8(%rbp)
    5da2:	66 83 7d f8 00       	cmpw   $0x0,-0x8(%rbp)
    5da7:	74 0f                	je     5db8 <safe_div_func_uint16_t_u_u+0x2a>
    5da9:	0f b7 45 fc          	movzwl -0x4(%rbp),%eax
    5dad:	ba 00 00 00 00       	mov    $0x0,%edx
    5db2:	66 f7 75 f8          	divw   -0x8(%rbp)
    5db6:	eb 04                	jmp    5dbc <safe_div_func_uint16_t_u_u+0x2e>
    5db8:	0f b7 45 fc          	movzwl -0x4(%rbp),%eax
    5dbc:	5d                   	pop    %rbp
    5dbd:	c3                   	retq   

0000000000005dbe <safe_lshift_func_uint16_t_u_s>:
    5dbe:	f3 0f 1e fa          	endbr64 
    5dc2:	55                   	push   %rbp
    5dc3:	48 89 e5             	mov    %rsp,%rbp
    5dc6:	89 f8                	mov    %edi,%eax
    5dc8:	89 75 f8             	mov    %esi,-0x8(%rbp)
    5dcb:	66 89 45 fc          	mov    %ax,-0x4(%rbp)
    5dcf:	83 7d f8 00          	cmpl   $0x0,-0x8(%rbp)
    5dd3:	78 2b                	js     5e00 <safe_lshift_func_uint16_t_u_s+0x42>
    5dd5:	83 7d f8 1f          	cmpl   $0x1f,-0x8(%rbp)
    5dd9:	7f 25                	jg     5e00 <safe_lshift_func_uint16_t_u_s+0x42>
    5ddb:	0f b7 55 fc          	movzwl -0x4(%rbp),%edx
    5ddf:	8b 45 f8             	mov    -0x8(%rbp),%eax
    5de2:	be ff ff 00 00       	mov    $0xffff,%esi
    5de7:	89 c1                	mov    %eax,%ecx
    5de9:	d3 fe                	sar    %cl,%esi
    5deb:	89 f0                	mov    %esi,%eax
    5ded:	39 c2                	cmp    %eax,%edx
    5def:	7f 0f                	jg     5e00 <safe_lshift_func_uint16_t_u_s+0x42>
    5df1:	0f b7 55 fc          	movzwl -0x4(%rbp),%edx
    5df5:	8b 45 f8             	mov    -0x8(%rbp),%eax
    5df8:	89 c1                	mov    %eax,%ecx
    5dfa:	d3 e2                	shl    %cl,%edx
    5dfc:	89 d0                	mov    %edx,%eax
    5dfe:	eb 04                	jmp    5e04 <safe_lshift_func_uint16_t_u_s+0x46>
    5e00:	0f b7 45 fc          	movzwl -0x4(%rbp),%eax
    5e04:	5d                   	pop    %rbp
    5e05:	c3                   	retq   

0000000000005e06 <safe_lshift_func_uint16_t_u_u>:
    5e06:	f3 0f 1e fa          	endbr64 
    5e0a:	55                   	push   %rbp
    5e0b:	48 89 e5             	mov    %rsp,%rbp
    5e0e:	89 f8                	mov    %edi,%eax
    5e10:	89 75 f8             	mov    %esi,-0x8(%rbp)
    5e13:	66 89 45 fc          	mov    %ax,-0x4(%rbp)
    5e17:	83 7d f8 1f          	cmpl   $0x1f,-0x8(%rbp)
    5e1b:	77 25                	ja     5e42 <safe_lshift_func_uint16_t_u_u+0x3c>
    5e1d:	0f b7 55 fc          	movzwl -0x4(%rbp),%edx
    5e21:	8b 45 f8             	mov    -0x8(%rbp),%eax
    5e24:	be ff ff 00 00       	mov    $0xffff,%esi
    5e29:	89 c1                	mov    %eax,%ecx
    5e2b:	d3 fe                	sar    %cl,%esi
    5e2d:	89 f0                	mov    %esi,%eax
    5e2f:	39 c2                	cmp    %eax,%edx
    5e31:	7f 0f                	jg     5e42 <safe_lshift_func_uint16_t_u_u+0x3c>
    5e33:	0f b7 55 fc          	movzwl -0x4(%rbp),%edx
    5e37:	8b 45 f8             	mov    -0x8(%rbp),%eax
    5e3a:	89 c1                	mov    %eax,%ecx
    5e3c:	d3 e2                	shl    %cl,%edx
    5e3e:	89 d0                	mov    %edx,%eax
    5e40:	eb 04                	jmp    5e46 <safe_lshift_func_uint16_t_u_u+0x40>
    5e42:	0f b7 45 fc          	movzwl -0x4(%rbp),%eax
    5e46:	5d                   	pop    %rbp
    5e47:	c3                   	retq   

0000000000005e48 <safe_rshift_func_uint16_t_u_s>:
    5e48:	f3 0f 1e fa          	endbr64 
    5e4c:	55                   	push   %rbp
    5e4d:	48 89 e5             	mov    %rsp,%rbp
    5e50:	89 f8                	mov    %edi,%eax
    5e52:	89 75 f8             	mov    %esi,-0x8(%rbp)
    5e55:	66 89 45 fc          	mov    %ax,-0x4(%rbp)
    5e59:	83 7d f8 00          	cmpl   $0x0,-0x8(%rbp)
    5e5d:	78 15                	js     5e74 <safe_rshift_func_uint16_t_u_s+0x2c>
    5e5f:	83 7d f8 1f          	cmpl   $0x1f,-0x8(%rbp)
    5e63:	7f 0f                	jg     5e74 <safe_rshift_func_uint16_t_u_s+0x2c>
    5e65:	0f b7 55 fc          	movzwl -0x4(%rbp),%edx
    5e69:	8b 45 f8             	mov    -0x8(%rbp),%eax
    5e6c:	89 c1                	mov    %eax,%ecx
    5e6e:	d3 fa                	sar    %cl,%edx
    5e70:	89 d0                	mov    %edx,%eax
    5e72:	eb 04                	jmp    5e78 <safe_rshift_func_uint16_t_u_s+0x30>
    5e74:	0f b7 45 fc          	movzwl -0x4(%rbp),%eax
    5e78:	5d                   	pop    %rbp
    5e79:	c3                   	retq   

0000000000005e7a <safe_rshift_func_uint16_t_u_u>:
    5e7a:	f3 0f 1e fa          	endbr64 
    5e7e:	55                   	push   %rbp
    5e7f:	48 89 e5             	mov    %rsp,%rbp
    5e82:	89 f8                	mov    %edi,%eax
    5e84:	89 75 f8             	mov    %esi,-0x8(%rbp)
    5e87:	66 89 45 fc          	mov    %ax,-0x4(%rbp)
    5e8b:	83 7d f8 1f          	cmpl   $0x1f,-0x8(%rbp)
    5e8f:	77 0f                	ja     5ea0 <safe_rshift_func_uint16_t_u_u+0x26>
    5e91:	0f b7 55 fc          	movzwl -0x4(%rbp),%edx
    5e95:	8b 45 f8             	mov    -0x8(%rbp),%eax
    5e98:	89 c1                	mov    %eax,%ecx
    5e9a:	d3 fa                	sar    %cl,%edx
    5e9c:	89 d0                	mov    %edx,%eax
    5e9e:	eb 04                	jmp    5ea4 <safe_rshift_func_uint16_t_u_u+0x2a>
    5ea0:	0f b7 45 fc          	movzwl -0x4(%rbp),%eax
    5ea4:	5d                   	pop    %rbp
    5ea5:	c3                   	retq   

0000000000005ea6 <safe_unary_minus_func_uint32_t_u>:
    5ea6:	f3 0f 1e fa          	endbr64 
    5eaa:	55                   	push   %rbp
    5eab:	48 89 e5             	mov    %rsp,%rbp
    5eae:	89 7d fc             	mov    %edi,-0x4(%rbp)
    5eb1:	8b 45 fc             	mov    -0x4(%rbp),%eax
    5eb4:	f7 d8                	neg    %eax
    5eb6:	5d                   	pop    %rbp
    5eb7:	c3                   	retq   

0000000000005eb8 <safe_add_func_uint32_t_u_u>:
    5eb8:	f3 0f 1e fa          	endbr64 
    5ebc:	55                   	push   %rbp
    5ebd:	48 89 e5             	mov    %rsp,%rbp
    5ec0:	89 7d fc             	mov    %edi,-0x4(%rbp)
    5ec3:	89 75 f8             	mov    %esi,-0x8(%rbp)
    5ec6:	8b 55 fc             	mov    -0x4(%rbp),%edx
    5ec9:	8b 45 f8             	mov    -0x8(%rbp),%eax
    5ecc:	01 d0                	add    %edx,%eax
    5ece:	5d                   	pop    %rbp
    5ecf:	c3                   	retq   

0000000000005ed0 <safe_sub_func_uint32_t_u_u>:
    5ed0:	f3 0f 1e fa          	endbr64 
    5ed4:	55                   	push   %rbp
    5ed5:	48 89 e5             	mov    %rsp,%rbp
    5ed8:	89 7d fc             	mov    %edi,-0x4(%rbp)
    5edb:	89 75 f8             	mov    %esi,-0x8(%rbp)
    5ede:	8b 45 fc             	mov    -0x4(%rbp),%eax
    5ee1:	2b 45 f8             	sub    -0x8(%rbp),%eax
    5ee4:	5d                   	pop    %rbp
    5ee5:	c3                   	retq   

0000000000005ee6 <safe_mul_func_uint32_t_u_u>:
    5ee6:	f3 0f 1e fa          	endbr64 
    5eea:	55                   	push   %rbp
    5eeb:	48 89 e5             	mov    %rsp,%rbp
    5eee:	89 7d fc             	mov    %edi,-0x4(%rbp)
    5ef1:	89 75 f8             	mov    %esi,-0x8(%rbp)
    5ef4:	8b 45 fc             	mov    -0x4(%rbp),%eax
    5ef7:	0f af 45 f8          	imul   -0x8(%rbp),%eax
    5efb:	5d                   	pop    %rbp
    5efc:	c3                   	retq   

0000000000005efd <safe_mod_func_uint32_t_u_u>:
    5efd:	f3 0f 1e fa          	endbr64 
    5f01:	55                   	push   %rbp
    5f02:	48 89 e5             	mov    %rsp,%rbp
    5f05:	89 7d fc             	mov    %edi,-0x4(%rbp)
    5f08:	89 75 f8             	mov    %esi,-0x8(%rbp)
    5f0b:	83 7d f8 00          	cmpl   $0x0,-0x8(%rbp)
    5f0f:	74 0f                	je     5f20 <safe_mod_func_uint32_t_u_u+0x23>
    5f11:	8b 45 fc             	mov    -0x4(%rbp),%eax
    5f14:	ba 00 00 00 00       	mov    $0x0,%edx
    5f19:	f7 75 f8             	divl   -0x8(%rbp)
    5f1c:	89 d0                	mov    %edx,%eax
    5f1e:	eb 03                	jmp    5f23 <safe_mod_func_uint32_t_u_u+0x26>
    5f20:	8b 45 fc             	mov    -0x4(%rbp),%eax
    5f23:	5d                   	pop    %rbp
    5f24:	c3                   	retq   

0000000000005f25 <safe_div_func_uint32_t_u_u>:
    5f25:	f3 0f 1e fa          	endbr64 
    5f29:	55                   	push   %rbp
    5f2a:	48 89 e5             	mov    %rsp,%rbp
    5f2d:	89 7d fc             	mov    %edi,-0x4(%rbp)
    5f30:	89 75 f8             	mov    %esi,-0x8(%rbp)
    5f33:	83 7d f8 00          	cmpl   $0x0,-0x8(%rbp)
    5f37:	74 0d                	je     5f46 <safe_div_func_uint32_t_u_u+0x21>
    5f39:	8b 45 fc             	mov    -0x4(%rbp),%eax
    5f3c:	ba 00 00 00 00       	mov    $0x0,%edx
    5f41:	f7 75 f8             	divl   -0x8(%rbp)
    5f44:	eb 03                	jmp    5f49 <safe_div_func_uint32_t_u_u+0x24>
    5f46:	8b 45 fc             	mov    -0x4(%rbp),%eax
    5f49:	5d                   	pop    %rbp
    5f4a:	c3                   	retq   

0000000000005f4b <safe_lshift_func_uint32_t_u_s>:
    5f4b:	f3 0f 1e fa          	endbr64 
    5f4f:	55                   	push   %rbp
    5f50:	48 89 e5             	mov    %rsp,%rbp
    5f53:	89 7d fc             	mov    %edi,-0x4(%rbp)
    5f56:	89 75 f8             	mov    %esi,-0x8(%rbp)
    5f59:	83 7d f8 00          	cmpl   $0x0,-0x8(%rbp)
    5f5d:	78 27                	js     5f86 <safe_lshift_func_uint32_t_u_s+0x3b>
    5f5f:	83 7d f8 1f          	cmpl   $0x1f,-0x8(%rbp)
    5f63:	7f 21                	jg     5f86 <safe_lshift_func_uint32_t_u_s+0x3b>
    5f65:	8b 45 f8             	mov    -0x8(%rbp),%eax
    5f68:	ba ff ff ff ff       	mov    $0xffffffff,%edx
    5f6d:	89 c1                	mov    %eax,%ecx
    5f6f:	d3 ea                	shr    %cl,%edx
    5f71:	89 d0                	mov    %edx,%eax
    5f73:	39 45 fc             	cmp    %eax,-0x4(%rbp)
    5f76:	77 0e                	ja     5f86 <safe_lshift_func_uint32_t_u_s+0x3b>
    5f78:	8b 45 f8             	mov    -0x8(%rbp),%eax
    5f7b:	8b 55 fc             	mov    -0x4(%rbp),%edx
    5f7e:	89 c1                	mov    %eax,%ecx
    5f80:	d3 e2                	shl    %cl,%edx
    5f82:	89 d0                	mov    %edx,%eax
    5f84:	eb 03                	jmp    5f89 <safe_lshift_func_uint32_t_u_s+0x3e>
    5f86:	8b 45 fc             	mov    -0x4(%rbp),%eax
    5f89:	5d                   	pop    %rbp
    5f8a:	c3                   	retq   

0000000000005f8b <safe_lshift_func_uint32_t_u_u>:
    5f8b:	f3 0f 1e fa          	endbr64 
    5f8f:	55                   	push   %rbp
    5f90:	48 89 e5             	mov    %rsp,%rbp
    5f93:	89 7d fc             	mov    %edi,-0x4(%rbp)
    5f96:	89 75 f8             	mov    %esi,-0x8(%rbp)
    5f99:	83 7d f8 1f          	cmpl   $0x1f,-0x8(%rbp)
    5f9d:	77 21                	ja     5fc0 <safe_lshift_func_uint32_t_u_u+0x35>
    5f9f:	8b 45 f8             	mov    -0x8(%rbp),%eax
    5fa2:	ba ff ff ff ff       	mov    $0xffffffff,%edx
    5fa7:	89 c1                	mov    %eax,%ecx
    5fa9:	d3 ea                	shr    %cl,%edx
    5fab:	89 d0                	mov    %edx,%eax
    5fad:	39 45 fc             	cmp    %eax,-0x4(%rbp)
    5fb0:	77 0e                	ja     5fc0 <safe_lshift_func_uint32_t_u_u+0x35>
    5fb2:	8b 45 f8             	mov    -0x8(%rbp),%eax
    5fb5:	8b 55 fc             	mov    -0x4(%rbp),%edx
    5fb8:	89 c1                	mov    %eax,%ecx
    5fba:	d3 e2                	shl    %cl,%edx
    5fbc:	89 d0                	mov    %edx,%eax
    5fbe:	eb 03                	jmp    5fc3 <safe_lshift_func_uint32_t_u_u+0x38>
    5fc0:	8b 45 fc             	mov    -0x4(%rbp),%eax
    5fc3:	5d                   	pop    %rbp
    5fc4:	c3                   	retq   

0000000000005fc5 <safe_rshift_func_uint32_t_u_s>:
    5fc5:	f3 0f 1e fa          	endbr64 
    5fc9:	55                   	push   %rbp
    5fca:	48 89 e5             	mov    %rsp,%rbp
    5fcd:	89 7d fc             	mov    %edi,-0x4(%rbp)
    5fd0:	89 75 f8             	mov    %esi,-0x8(%rbp)
    5fd3:	83 7d f8 00          	cmpl   $0x0,-0x8(%rbp)
    5fd7:	78 14                	js     5fed <safe_rshift_func_uint32_t_u_s+0x28>
    5fd9:	83 7d f8 1f          	cmpl   $0x1f,-0x8(%rbp)
    5fdd:	7f 0e                	jg     5fed <safe_rshift_func_uint32_t_u_s+0x28>
    5fdf:	8b 45 f8             	mov    -0x8(%rbp),%eax
    5fe2:	8b 55 fc             	mov    -0x4(%rbp),%edx
    5fe5:	89 c1                	mov    %eax,%ecx
    5fe7:	d3 ea                	shr    %cl,%edx
    5fe9:	89 d0                	mov    %edx,%eax
    5feb:	eb 03                	jmp    5ff0 <safe_rshift_func_uint32_t_u_s+0x2b>
    5fed:	8b 45 fc             	mov    -0x4(%rbp),%eax
    5ff0:	5d                   	pop    %rbp
    5ff1:	c3                   	retq   

0000000000005ff2 <safe_rshift_func_uint32_t_u_u>:
    5ff2:	f3 0f 1e fa          	endbr64 
    5ff6:	55                   	push   %rbp
    5ff7:	48 89 e5             	mov    %rsp,%rbp
    5ffa:	89 7d fc             	mov    %edi,-0x4(%rbp)
    5ffd:	89 75 f8             	mov    %esi,-0x8(%rbp)
    6000:	83 7d f8 1f          	cmpl   $0x1f,-0x8(%rbp)
    6004:	77 0e                	ja     6014 <safe_rshift_func_uint32_t_u_u+0x22>
    6006:	8b 45 f8             	mov    -0x8(%rbp),%eax
    6009:	8b 55 fc             	mov    -0x4(%rbp),%edx
    600c:	89 c1                	mov    %eax,%ecx
    600e:	d3 ea                	shr    %cl,%edx
    6010:	89 d0                	mov    %edx,%eax
    6012:	eb 03                	jmp    6017 <safe_rshift_func_uint32_t_u_u+0x25>
    6014:	8b 45 fc             	mov    -0x4(%rbp),%eax
    6017:	5d                   	pop    %rbp
    6018:	c3                   	retq   

0000000000006019 <safe_unary_minus_func_uint64_t_u>:
    6019:	f3 0f 1e fa          	endbr64 
    601d:	55                   	push   %rbp
    601e:	48 89 e5             	mov    %rsp,%rbp
    6021:	48 89 7d f8          	mov    %rdi,-0x8(%rbp)
    6025:	48 8b 45 f8          	mov    -0x8(%rbp),%rax
    6029:	48 f7 d8             	neg    %rax
    602c:	5d                   	pop    %rbp
    602d:	c3                   	retq   

000000000000602e <safe_add_func_uint64_t_u_u>:
    602e:	f3 0f 1e fa          	endbr64 
    6032:	55                   	push   %rbp
    6033:	48 89 e5             	mov    %rsp,%rbp
    6036:	48 89 7d f8          	mov    %rdi,-0x8(%rbp)
    603a:	48 89 75 f0          	mov    %rsi,-0x10(%rbp)
    603e:	48 8b 55 f8          	mov    -0x8(%rbp),%rdx
    6042:	48 8b 45 f0          	mov    -0x10(%rbp),%rax
    6046:	48 01 d0             	add    %rdx,%rax
    6049:	5d                   	pop    %rbp
    604a:	c3                   	retq   

000000000000604b <safe_sub_func_uint64_t_u_u>:
    604b:	f3 0f 1e fa          	endbr64 
    604f:	55                   	push   %rbp
    6050:	48 89 e5             	mov    %rsp,%rbp
    6053:	48 89 7d f8          	mov    %rdi,-0x8(%rbp)
    6057:	48 89 75 f0          	mov    %rsi,-0x10(%rbp)
    605b:	48 8b 45 f8          	mov    -0x8(%rbp),%rax
    605f:	48 2b 45 f0          	sub    -0x10(%rbp),%rax
    6063:	5d                   	pop    %rbp
    6064:	c3                   	retq   

0000000000006065 <safe_mul_func_uint64_t_u_u>:
    6065:	f3 0f 1e fa          	endbr64 
    6069:	55                   	push   %rbp
    606a:	48 89 e5             	mov    %rsp,%rbp
    606d:	48 89 7d f8          	mov    %rdi,-0x8(%rbp)
    6071:	48 89 75 f0          	mov    %rsi,-0x10(%rbp)
    6075:	48 8b 45 f8          	mov    -0x8(%rbp),%rax
    6079:	48 0f af 45 f0       	imul   -0x10(%rbp),%rax
    607e:	5d                   	pop    %rbp
    607f:	c3                   	retq   

0000000000006080 <safe_mod_func_uint64_t_u_u>:
    6080:	f3 0f 1e fa          	endbr64 
    6084:	55                   	push   %rbp
    6085:	48 89 e5             	mov    %rsp,%rbp
    6088:	48 89 7d f8          	mov    %rdi,-0x8(%rbp)
    608c:	48 89 75 f0          	mov    %rsi,-0x10(%rbp)
    6090:	48 83 7d f0 00       	cmpq   $0x0,-0x10(%rbp)
    6095:	74 12                	je     60a9 <safe_mod_func_uint64_t_u_u+0x29>
    6097:	48 8b 45 f8          	mov    -0x8(%rbp),%rax
    609b:	ba 00 00 00 00       	mov    $0x0,%edx
    60a0:	48 f7 75 f0          	divq   -0x10(%rbp)
    60a4:	48 89 d0             	mov    %rdx,%rax
    60a7:	eb 04                	jmp    60ad <safe_mod_func_uint64_t_u_u+0x2d>
    60a9:	48 8b 45 f8          	mov    -0x8(%rbp),%rax
    60ad:	5d                   	pop    %rbp
    60ae:	c3                   	retq   

00000000000060af <safe_div_func_uint64_t_u_u>:
    60af:	f3 0f 1e fa          	endbr64 
    60b3:	55                   	push   %rbp
    60b4:	48 89 e5             	mov    %rsp,%rbp
    60b7:	48 89 7d f8          	mov    %rdi,-0x8(%rbp)
    60bb:	48 89 75 f0          	mov    %rsi,-0x10(%rbp)
    60bf:	48 83 7d f0 00       	cmpq   $0x0,-0x10(%rbp)
    60c4:	74 0f                	je     60d5 <safe_div_func_uint64_t_u_u+0x26>
    60c6:	48 8b 45 f8          	mov    -0x8(%rbp),%rax
    60ca:	ba 00 00 00 00       	mov    $0x0,%edx
    60cf:	48 f7 75 f0          	divq   -0x10(%rbp)
    60d3:	eb 04                	jmp    60d9 <safe_div_func_uint64_t_u_u+0x2a>
    60d5:	48 8b 45 f8          	mov    -0x8(%rbp),%rax
    60d9:	5d                   	pop    %rbp
    60da:	c3                   	retq   

00000000000060db <safe_lshift_func_uint64_t_u_s>:
    60db:	f3 0f 1e fa          	endbr64 
    60df:	55                   	push   %rbp
    60e0:	48 89 e5             	mov    %rsp,%rbp
    60e3:	48 89 7d f8          	mov    %rdi,-0x8(%rbp)
    60e7:	89 75 f4             	mov    %esi,-0xc(%rbp)
    60ea:	83 7d f4 00          	cmpl   $0x0,-0xc(%rbp)
    60ee:	78 2f                	js     611f <safe_lshift_func_uint64_t_u_s+0x44>
    60f0:	83 7d f4 1f          	cmpl   $0x1f,-0xc(%rbp)
    60f4:	7f 29                	jg     611f <safe_lshift_func_uint64_t_u_s+0x44>
    60f6:	8b 45 f4             	mov    -0xc(%rbp),%eax
    60f9:	48 c7 c2 ff ff ff ff 	mov    $0xffffffffffffffff,%rdx
    6100:	89 c1                	mov    %eax,%ecx
    6102:	48 d3 ea             	shr    %cl,%rdx
    6105:	48 89 d0             	mov    %rdx,%rax
    6108:	48 39 45 f8          	cmp    %rax,-0x8(%rbp)
    610c:	77 11                	ja     611f <safe_lshift_func_uint64_t_u_s+0x44>
    610e:	8b 45 f4             	mov    -0xc(%rbp),%eax
    6111:	48 8b 55 f8          	mov    -0x8(%rbp),%rdx
    6115:	89 c1                	mov    %eax,%ecx
    6117:	48 d3 e2             	shl    %cl,%rdx
    611a:	48 89 d0             	mov    %rdx,%rax
    611d:	eb 04                	jmp    6123 <safe_lshift_func_uint64_t_u_s+0x48>
    611f:	48 8b 45 f8          	mov    -0x8(%rbp),%rax
    6123:	5d                   	pop    %rbp
    6124:	c3                   	retq   

0000000000006125 <safe_lshift_func_uint64_t_u_u>:
    6125:	f3 0f 1e fa          	endbr64 
    6129:	55                   	push   %rbp
    612a:	48 89 e5             	mov    %rsp,%rbp
    612d:	48 89 7d f8          	mov    %rdi,-0x8(%rbp)
    6131:	89 75 f4             	mov    %esi,-0xc(%rbp)
    6134:	83 7d f4 1f          	cmpl   $0x1f,-0xc(%rbp)
    6138:	77 29                	ja     6163 <safe_lshift_func_uint64_t_u_u+0x3e>
    613a:	8b 45 f4             	mov    -0xc(%rbp),%eax
    613d:	48 c7 c2 ff ff ff ff 	mov    $0xffffffffffffffff,%rdx
    6144:	89 c1                	mov    %eax,%ecx
    6146:	48 d3 ea             	shr    %cl,%rdx
    6149:	48 89 d0             	mov    %rdx,%rax
    614c:	48 39 45 f8          	cmp    %rax,-0x8(%rbp)
    6150:	77 11                	ja     6163 <safe_lshift_func_uint64_t_u_u+0x3e>
    6152:	8b 45 f4             	mov    -0xc(%rbp),%eax
    6155:	48 8b 55 f8          	mov    -0x8(%rbp),%rdx
    6159:	89 c1                	mov    %eax,%ecx
    615b:	48 d3 e2             	shl    %cl,%rdx
    615e:	48 89 d0             	mov    %rdx,%rax
    6161:	eb 04                	jmp    6167 <safe_lshift_func_uint64_t_u_u+0x42>
    6163:	48 8b 45 f8          	mov    -0x8(%rbp),%rax
    6167:	5d                   	pop    %rbp
    6168:	c3                   	retq   

0000000000006169 <safe_rshift_func_uint64_t_u_s>:
    6169:	f3 0f 1e fa          	endbr64 
    616d:	55                   	push   %rbp
    616e:	48 89 e5             	mov    %rsp,%rbp
    6171:	48 89 7d f8          	mov    %rdi,-0x8(%rbp)
    6175:	89 75 f4             	mov    %esi,-0xc(%rbp)
    6178:	83 7d f4 00          	cmpl   $0x0,-0xc(%rbp)
    617c:	78 17                	js     6195 <safe_rshift_func_uint64_t_u_s+0x2c>
    617e:	83 7d f4 1f          	cmpl   $0x1f,-0xc(%rbp)
    6182:	7f 11                	jg     6195 <safe_rshift_func_uint64_t_u_s+0x2c>
    6184:	8b 45 f4             	mov    -0xc(%rbp),%eax
    6187:	48 8b 55 f8          	mov    -0x8(%rbp),%rdx
    618b:	89 c1                	mov    %eax,%ecx
    618d:	48 d3 ea             	shr    %cl,%rdx
    6190:	48 89 d0             	mov    %rdx,%rax
    6193:	eb 04                	jmp    6199 <safe_rshift_func_uint64_t_u_s+0x30>
    6195:	48 8b 45 f8          	mov    -0x8(%rbp),%rax
    6199:	5d                   	pop    %rbp
    619a:	c3                   	retq   

000000000000619b <safe_rshift_func_uint64_t_u_u>:
    619b:	f3 0f 1e fa          	endbr64 
    619f:	55                   	push   %rbp
    61a0:	48 89 e5             	mov    %rsp,%rbp
    61a3:	48 89 7d f8          	mov    %rdi,-0x8(%rbp)
    61a7:	89 75 f4             	mov    %esi,-0xc(%rbp)
    61aa:	83 7d f4 1f          	cmpl   $0x1f,-0xc(%rbp)
    61ae:	77 11                	ja     61c1 <safe_rshift_func_uint64_t_u_u+0x26>
    61b0:	8b 45 f4             	mov    -0xc(%rbp),%eax
    61b3:	48 8b 55 f8          	mov    -0x8(%rbp),%rdx
    61b7:	89 c1                	mov    %eax,%ecx
    61b9:	48 d3 ea             	shr    %cl,%rdx
    61bc:	48 89 d0             	mov    %rdx,%rax
    61bf:	eb 04                	jmp    61c5 <safe_rshift_func_uint64_t_u_u+0x2a>
    61c1:	48 8b 45 f8          	mov    -0x8(%rbp),%rax
    61c5:	5d                   	pop    %rbp
    61c6:	c3                   	retq   

00000000000061c7 <safe_add_func_float_f_f>:
    61c7:	f3 0f 1e fa          	endbr64 
    61cb:	55                   	push   %rbp
    61cc:	48 89 e5             	mov    %rsp,%rbp
    61cf:	f3 0f 11 45 fc       	movss  %xmm0,-0x4(%rbp)
    61d4:	f3 0f 11 4d f8       	movss  %xmm1,-0x8(%rbp)
    61d9:	f3 0f 10 4d fc       	movss  -0x4(%rbp),%xmm1
    61de:	f3 0f 10 05 9a bb 00 	movss  0xbb9a(%rip),%xmm0        # 11d80 <l_872.4730+0xe0>
    61e5:	00 
    61e6:	f3 0f 59 c8          	mulss  %xmm0,%xmm1
    61ea:	f3 0f 10 55 f8       	movss  -0x8(%rbp),%xmm2
    61ef:	f3 0f 10 05 89 bb 00 	movss  0xbb89(%rip),%xmm0        # 11d80 <l_872.4730+0xe0>
    61f6:	00 
    61f7:	f3 0f 59 c2          	mulss  %xmm2,%xmm0
    61fb:	f3 0f 58 c1          	addss  %xmm1,%xmm0
    61ff:	f3 0f 10 0d 89 bb 00 	movss  0xbb89(%rip),%xmm1        # 11d90 <l_872.4730+0xf0>
    6206:	00 
    6207:	0f 54 c1             	andps  %xmm1,%xmm0
    620a:	0f 2f 05 8f bb 00 00 	comiss 0xbb8f(%rip),%xmm0        # 11da0 <l_872.4730+0x100>
    6211:	76 07                	jbe    621a <safe_add_func_float_f_f+0x53>
    6213:	f3 0f 10 45 fc       	movss  -0x4(%rbp),%xmm0
    6218:	eb 0a                	jmp    6224 <safe_add_func_float_f_f+0x5d>
    621a:	f3 0f 10 45 fc       	movss  -0x4(%rbp),%xmm0
    621f:	f3 0f 58 45 f8       	addss  -0x8(%rbp),%xmm0
    6224:	5d                   	pop    %rbp
    6225:	c3                   	retq   

0000000000006226 <safe_sub_func_float_f_f>:
    6226:	f3 0f 1e fa          	endbr64 
    622a:	55                   	push   %rbp
    622b:	48 89 e5             	mov    %rsp,%rbp
    622e:	f3 0f 11 45 fc       	movss  %xmm0,-0x4(%rbp)
    6233:	f3 0f 11 4d f8       	movss  %xmm1,-0x8(%rbp)
    6238:	f3 0f 10 4d fc       	movss  -0x4(%rbp),%xmm1
    623d:	f3 0f 10 05 3b bb 00 	movss  0xbb3b(%rip),%xmm0        # 11d80 <l_872.4730+0xe0>
    6244:	00 
    6245:	f3 0f 59 c1          	mulss  %xmm1,%xmm0
    6249:	f3 0f 10 55 f8       	movss  -0x8(%rbp),%xmm2
    624e:	f3 0f 10 0d 2a bb 00 	movss  0xbb2a(%rip),%xmm1        # 11d80 <l_872.4730+0xe0>
    6255:	00 
    6256:	f3 0f 59 ca          	mulss  %xmm2,%xmm1
    625a:	f3 0f 5c c1          	subss  %xmm1,%xmm0
    625e:	f3 0f 10 0d 2a bb 00 	movss  0xbb2a(%rip),%xmm1        # 11d90 <l_872.4730+0xf0>
    6265:	00 
    6266:	0f 54 c1             	andps  %xmm1,%xmm0
    6269:	0f 2f 05 30 bb 00 00 	comiss 0xbb30(%rip),%xmm0        # 11da0 <l_872.4730+0x100>
    6270:	76 07                	jbe    6279 <safe_sub_func_float_f_f+0x53>
    6272:	f3 0f 10 45 fc       	movss  -0x4(%rbp),%xmm0
    6277:	eb 0a                	jmp    6283 <safe_sub_func_float_f_f+0x5d>
    6279:	f3 0f 10 45 fc       	movss  -0x4(%rbp),%xmm0
    627e:	f3 0f 5c 45 f8       	subss  -0x8(%rbp),%xmm0
    6283:	5d                   	pop    %rbp
    6284:	c3                   	retq   

0000000000006285 <safe_mul_func_float_f_f>:
    6285:	f3 0f 1e fa          	endbr64 
    6289:	55                   	push   %rbp
    628a:	48 89 e5             	mov    %rsp,%rbp
    628d:	f3 0f 11 45 fc       	movss  %xmm0,-0x4(%rbp)
    6292:	f3 0f 11 4d f8       	movss  %xmm1,-0x8(%rbp)
    6297:	f3 0f 10 4d fc       	movss  -0x4(%rbp),%xmm1
    629c:	f3 0f 10 05 00 bb 00 	movss  0xbb00(%rip),%xmm0        # 11da4 <l_872.4730+0x104>
    62a3:	00 
    62a4:	f3 0f 59 c8          	mulss  %xmm0,%xmm1
    62a8:	f3 0f 10 55 f8       	movss  -0x8(%rbp),%xmm2
    62ad:	f3 0f 10 05 f3 ba 00 	movss  0xbaf3(%rip),%xmm0        # 11da8 <l_872.4730+0x108>
    62b4:	00 
    62b5:	f3 0f 59 c2          	mulss  %xmm2,%xmm0
    62b9:	f3 0f 59 c1          	mulss  %xmm1,%xmm0
    62bd:	f3 0f 10 0d cb ba 00 	movss  0xbacb(%rip),%xmm1        # 11d90 <l_872.4730+0xf0>
    62c4:	00 
    62c5:	0f 54 c1             	andps  %xmm1,%xmm0
    62c8:	0f 2f 05 dd ba 00 00 	comiss 0xbadd(%rip),%xmm0        # 11dac <l_872.4730+0x10c>
    62cf:	76 07                	jbe    62d8 <safe_mul_func_float_f_f+0x53>
    62d1:	f3 0f 10 45 fc       	movss  -0x4(%rbp),%xmm0
    62d6:	eb 0a                	jmp    62e2 <safe_mul_func_float_f_f+0x5d>
    62d8:	f3 0f 10 45 fc       	movss  -0x4(%rbp),%xmm0
    62dd:	f3 0f 59 45 f8       	mulss  -0x8(%rbp),%xmm0
    62e2:	5d                   	pop    %rbp
    62e3:	c3                   	retq   

00000000000062e4 <safe_div_func_float_f_f>:
    62e4:	f3 0f 1e fa          	endbr64 
    62e8:	55                   	push   %rbp
    62e9:	48 89 e5             	mov    %rsp,%rbp
    62ec:	f3 0f 11 45 fc       	movss  %xmm0,-0x4(%rbp)
    62f1:	f3 0f 11 4d f8       	movss  %xmm1,-0x8(%rbp)
    62f6:	f3 0f 10 45 f8       	movss  -0x8(%rbp),%xmm0
    62fb:	f3 0f 10 0d 8d ba 00 	movss  0xba8d(%rip),%xmm1        # 11d90 <l_872.4730+0xf0>
    6302:	00 
    6303:	0f 54 c8             	andps  %xmm0,%xmm1
    6306:	f3 0f 10 05 a2 ba 00 	movss  0xbaa2(%rip),%xmm0        # 11db0 <l_872.4730+0x110>
    630d:	00 
    630e:	0f 2f c1             	comiss %xmm1,%xmm0
    6311:	0f 97 c0             	seta   %al
    6314:	83 f0 01             	xor    $0x1,%eax
    6317:	84 c0                	test   %al,%al
    6319:	75 56                	jne    6371 <safe_div_func_float_f_f+0x8d>
    631b:	66 0f ef c0          	pxor   %xmm0,%xmm0
    631f:	0f 2e 45 f8          	ucomiss -0x8(%rbp),%xmm0
    6323:	7a 0a                	jp     632f <safe_div_func_float_f_f+0x4b>
    6325:	66 0f ef c0          	pxor   %xmm0,%xmm0
    6329:	0f 2e 45 f8          	ucomiss -0x8(%rbp),%xmm0
    632d:	74 4e                	je     637d <safe_div_func_float_f_f+0x99>
    632f:	f3 0f 10 4d fc       	movss  -0x4(%rbp),%xmm1
    6334:	f3 0f 10 05 78 ba 00 	movss  0xba78(%rip),%xmm0        # 11db4 <l_872.4730+0x114>
    633b:	00 
    633c:	f3 0f 59 c1          	mulss  %xmm1,%xmm0
    6340:	f3 0f 10 55 f8       	movss  -0x8(%rbp),%xmm2
    6345:	f3 0f 10 0d 6b ba 00 	movss  0xba6b(%rip),%xmm1        # 11db8 <l_872.4730+0x118>
    634c:	00 
    634d:	f3 0f 59 ca          	mulss  %xmm2,%xmm1
    6351:	f3 0f 5e c1          	divss  %xmm1,%xmm0
    6355:	f3 0f 10 0d 33 ba 00 	movss  0xba33(%rip),%xmm1        # 11d90 <l_872.4730+0xf0>
    635c:	00 
    635d:	0f 54 c1             	andps  %xmm1,%xmm0
    6360:	0f 2f 05 55 ba 00 00 	comiss 0xba55(%rip),%xmm0        # 11dbc <l_872.4730+0x11c>
    6367:	0f 97 c0             	seta   %al
    636a:	83 f0 01             	xor    $0x1,%eax
    636d:	84 c0                	test   %al,%al
    636f:	74 0c                	je     637d <safe_div_func_float_f_f+0x99>
    6371:	f3 0f 10 45 fc       	movss  -0x4(%rbp),%xmm0
    6376:	f3 0f 5e 45 f8       	divss  -0x8(%rbp),%xmm0
    637b:	eb 05                	jmp    6382 <safe_div_func_float_f_f+0x9e>
    637d:	f3 0f 10 45 fc       	movss  -0x4(%rbp),%xmm0
    6382:	5d                   	pop    %rbp
    6383:	c3                   	retq   

0000000000006384 <safe_add_func_double_f_f>:
    6384:	f3 0f 1e fa          	endbr64 
    6388:	55                   	push   %rbp
    6389:	48 89 e5             	mov    %rsp,%rbp
    638c:	f2 0f 11 45 f8       	movsd  %xmm0,-0x8(%rbp)
    6391:	f2 0f 11 4d f0       	movsd  %xmm1,-0x10(%rbp)
    6396:	f2 0f 10 4d f8       	movsd  -0x8(%rbp),%xmm1
    639b:	f2 0f 10 05 1d ba 00 	movsd  0xba1d(%rip),%xmm0        # 11dc0 <l_872.4730+0x120>
    63a2:	00 
    63a3:	f2 0f 59 c8          	mulsd  %xmm0,%xmm1
    63a7:	f2 0f 10 55 f0       	movsd  -0x10(%rbp),%xmm2
    63ac:	f2 0f 10 05 0c ba 00 	movsd  0xba0c(%rip),%xmm0        # 11dc0 <l_872.4730+0x120>
    63b3:	00 
    63b4:	f2 0f 59 c2          	mulsd  %xmm2,%xmm0
    63b8:	f2 0f 58 c1          	addsd  %xmm1,%xmm0
    63bc:	f3 0f 7e 0d 0c ba 00 	movq   0xba0c(%rip),%xmm1        # 11dd0 <l_872.4730+0x130>
    63c3:	00 
    63c4:	66 0f 54 c1          	andpd  %xmm1,%xmm0
    63c8:	66 0f 2f 05 10 ba 00 	comisd 0xba10(%rip),%xmm0        # 11de0 <l_872.4730+0x140>
    63cf:	00 
    63d0:	76 07                	jbe    63d9 <safe_add_func_double_f_f+0x55>
    63d2:	f2 0f 10 45 f8       	movsd  -0x8(%rbp),%xmm0
    63d7:	eb 0a                	jmp    63e3 <safe_add_func_double_f_f+0x5f>
    63d9:	f2 0f 10 45 f8       	movsd  -0x8(%rbp),%xmm0
    63de:	f2 0f 58 45 f0       	addsd  -0x10(%rbp),%xmm0
    63e3:	5d                   	pop    %rbp
    63e4:	c3                   	retq   

00000000000063e5 <safe_sub_func_double_f_f>:
    63e5:	f3 0f 1e fa          	endbr64 
    63e9:	55                   	push   %rbp
    63ea:	48 89 e5             	mov    %rsp,%rbp
    63ed:	f2 0f 11 45 f8       	movsd  %xmm0,-0x8(%rbp)
    63f2:	f2 0f 11 4d f0       	movsd  %xmm1,-0x10(%rbp)
    63f7:	f2 0f 10 4d f8       	movsd  -0x8(%rbp),%xmm1
    63fc:	f2 0f 10 05 bc b9 00 	movsd  0xb9bc(%rip),%xmm0        # 11dc0 <l_872.4730+0x120>
    6403:	00 
    6404:	f2 0f 59 c1          	mulsd  %xmm1,%xmm0
    6408:	f2 0f 10 55 f0       	movsd  -0x10(%rbp),%xmm2
    640d:	f2 0f 10 0d ab b9 00 	movsd  0xb9ab(%rip),%xmm1        # 11dc0 <l_872.4730+0x120>
    6414:	00 
    6415:	f2 0f 59 ca          	mulsd  %xmm2,%xmm1
    6419:	f2 0f 5c c1          	subsd  %xmm1,%xmm0
    641d:	f3 0f 7e 0d ab b9 00 	movq   0xb9ab(%rip),%xmm1        # 11dd0 <l_872.4730+0x130>
    6424:	00 
    6425:	66 0f 54 c1          	andpd  %xmm1,%xmm0
    6429:	66 0f 2f 05 af b9 00 	comisd 0xb9af(%rip),%xmm0        # 11de0 <l_872.4730+0x140>
    6430:	00 
    6431:	76 07                	jbe    643a <safe_sub_func_double_f_f+0x55>
    6433:	f2 0f 10 45 f8       	movsd  -0x8(%rbp),%xmm0
    6438:	eb 0a                	jmp    6444 <safe_sub_func_double_f_f+0x5f>
    643a:	f2 0f 10 45 f8       	movsd  -0x8(%rbp),%xmm0
    643f:	f2 0f 5c 45 f0       	subsd  -0x10(%rbp),%xmm0
    6444:	5d                   	pop    %rbp
    6445:	c3                   	retq   

0000000000006446 <safe_mul_func_double_f_f>:
    6446:	f3 0f 1e fa          	endbr64 
    644a:	55                   	push   %rbp
    644b:	48 89 e5             	mov    %rsp,%rbp
    644e:	f2 0f 11 45 f8       	movsd  %xmm0,-0x8(%rbp)
    6453:	f2 0f 11 4d f0       	movsd  %xmm1,-0x10(%rbp)
    6458:	f2 0f 10 4d f8       	movsd  -0x8(%rbp),%xmm1
    645d:	f2 0f 10 05 83 b9 00 	movsd  0xb983(%rip),%xmm0        # 11de8 <l_872.4730+0x148>
    6464:	00 
    6465:	f2 0f 59 c8          	mulsd  %xmm0,%xmm1
    6469:	f2 0f 10 55 f0       	movsd  -0x10(%rbp),%xmm2
    646e:	f2 0f 10 05 7a b9 00 	movsd  0xb97a(%rip),%xmm0        # 11df0 <l_872.4730+0x150>
    6475:	00 
    6476:	f2 0f 59 c2          	mulsd  %xmm2,%xmm0
    647a:	f2 0f 59 c1          	mulsd  %xmm1,%xmm0
    647e:	f3 0f 7e 0d 4a b9 00 	movq   0xb94a(%rip),%xmm1        # 11dd0 <l_872.4730+0x130>
    6485:	00 
    6486:	66 0f 54 c1          	andpd  %xmm1,%xmm0
    648a:	66 0f 2f 05 66 b9 00 	comisd 0xb966(%rip),%xmm0        # 11df8 <l_872.4730+0x158>
    6491:	00 
    6492:	76 07                	jbe    649b <safe_mul_func_double_f_f+0x55>
    6494:	f2 0f 10 45 f8       	movsd  -0x8(%rbp),%xmm0
    6499:	eb 0a                	jmp    64a5 <safe_mul_func_double_f_f+0x5f>
    649b:	f2 0f 10 45 f8       	movsd  -0x8(%rbp),%xmm0
    64a0:	f2 0f 59 45 f0       	mulsd  -0x10(%rbp),%xmm0
    64a5:	5d                   	pop    %rbp
    64a6:	c3                   	retq   

00000000000064a7 <safe_div_func_double_f_f>:
    64a7:	f3 0f 1e fa          	endbr64 
    64ab:	55                   	push   %rbp
    64ac:	48 89 e5             	mov    %rsp,%rbp
    64af:	f2 0f 11 45 f8       	movsd  %xmm0,-0x8(%rbp)
    64b4:	f2 0f 11 4d f0       	movsd  %xmm1,-0x10(%rbp)
    64b9:	f2 0f 10 45 f0       	movsd  -0x10(%rbp),%xmm0
    64be:	f3 0f 7e 0d 0a b9 00 	movq   0xb90a(%rip),%xmm1        # 11dd0 <l_872.4730+0x130>
    64c5:	00 
    64c6:	66 0f 54 c8          	andpd  %xmm0,%xmm1
    64ca:	f2 0f 10 05 2e b9 00 	movsd  0xb92e(%rip),%xmm0        # 11e00 <l_872.4730+0x160>
    64d1:	00 
    64d2:	66 0f 2f c1          	comisd %xmm1,%xmm0
    64d6:	0f 97 c0             	seta   %al
    64d9:	83 f0 01             	xor    $0x1,%eax
    64dc:	84 c0                	test   %al,%al
    64de:	75 5a                	jne    653a <safe_div_func_double_f_f+0x93>
    64e0:	66 0f ef c0          	pxor   %xmm0,%xmm0
    64e4:	66 0f 2e 45 f0       	ucomisd -0x10(%rbp),%xmm0
    64e9:	7a 0b                	jp     64f6 <safe_div_func_double_f_f+0x4f>
    64eb:	66 0f ef c0          	pxor   %xmm0,%xmm0
    64ef:	66 0f 2e 45 f0       	ucomisd -0x10(%rbp),%xmm0
    64f4:	74 50                	je     6546 <safe_div_func_double_f_f+0x9f>
    64f6:	f2 0f 10 4d f8       	movsd  -0x8(%rbp),%xmm1
    64fb:	f2 0f 10 05 05 b9 00 	movsd  0xb905(%rip),%xmm0        # 11e08 <l_872.4730+0x168>
    6502:	00 
    6503:	f2 0f 59 c1          	mulsd  %xmm1,%xmm0
    6507:	f2 0f 10 55 f0       	movsd  -0x10(%rbp),%xmm2
    650c:	f2 0f 10 0d fc b8 00 	movsd  0xb8fc(%rip),%xmm1        # 11e10 <l_872.4730+0x170>
    6513:	00 
    6514:	f2 0f 59 ca          	mulsd  %xmm2,%xmm1
    6518:	f2 0f 5e c1          	divsd  %xmm1,%xmm0
    651c:	f3 0f 7e 0d ac b8 00 	movq   0xb8ac(%rip),%xmm1        # 11dd0 <l_872.4730+0x130>
    6523:	00 
    6524:	66 0f 54 c1          	andpd  %xmm1,%xmm0
    6528:	66 0f 2f 05 e8 b8 00 	comisd 0xb8e8(%rip),%xmm0        # 11e18 <l_872.4730+0x178>
    652f:	00 
    6530:	0f 97 c0             	seta   %al
    6533:	83 f0 01             	xor    $0x1,%eax
    6536:	84 c0                	test   %al,%al
    6538:	74 0c                	je     6546 <safe_div_func_double_f_f+0x9f>
    653a:	f2 0f 10 45 f8       	movsd  -0x8(%rbp),%xmm0
    653f:	f2 0f 5e 45 f0       	divsd  -0x10(%rbp),%xmm0
    6544:	eb 05                	jmp    654b <safe_div_func_double_f_f+0xa4>
    6546:	f2 0f 10 45 f8       	movsd  -0x8(%rbp),%xmm0
    654b:	5d                   	pop    %rbp
    654c:	c3                   	retq   

000000000000654d <safe_convert_func_float_to_int32_t>:
    654d:	f3 0f 1e fa          	endbr64 
    6551:	55                   	push   %rbp
    6552:	48 89 e5             	mov    %rsp,%rbp
    6555:	f3 0f 11 45 fc       	movss  %xmm0,-0x4(%rbp)
    655a:	f3 0f 10 05 be b8 00 	movss  0xb8be(%rip),%xmm0        # 11e20 <l_872.4730+0x180>
    6561:	00 
    6562:	0f 2f 45 fc          	comiss -0x4(%rbp),%xmm0
    6566:	0f 93 c0             	setae  %al
    6569:	83 f0 01             	xor    $0x1,%eax
    656c:	84 c0                	test   %al,%al
    656e:	74 21                	je     6591 <safe_convert_func_float_to_int32_t+0x44>
    6570:	f3 0f 10 45 fc       	movss  -0x4(%rbp),%xmm0
    6575:	0f 2f 05 a8 b8 00 00 	comiss 0xb8a8(%rip),%xmm0        # 11e24 <l_872.4730+0x184>
    657c:	0f 93 c0             	setae  %al
    657f:	83 f0 01             	xor    $0x1,%eax
    6582:	84 c0                	test   %al,%al
    6584:	74 0b                	je     6591 <safe_convert_func_float_to_int32_t+0x44>
    6586:	f3 0f 10 45 fc       	movss  -0x4(%rbp),%xmm0
    658b:	f3 0f 2c c0          	cvttss2si %xmm0,%eax
    658f:	eb 05                	jmp    6596 <safe_convert_func_float_to_int32_t+0x49>
    6591:	b8 ff ff ff 7f       	mov    $0x7fffffff,%eax
    6596:	5d                   	pop    %rbp
    6597:	c3                   	retq   

0000000000006598 <crc32_gentab>:
    6598:	f3 0f 1e fa          	endbr64 
    659c:	55                   	push   %rbp
    659d:	48 89 e5             	mov    %rsp,%rbp
    65a0:	c7 45 fc 20 83 b8 ed 	movl   $0xedb88320,-0x4(%rbp)
    65a7:	c7 45 f4 00 00 00 00 	movl   $0x0,-0xc(%rbp)
    65ae:	eb 51                	jmp    6601 <crc32_gentab+0x69>
    65b0:	8b 45 f4             	mov    -0xc(%rbp),%eax
    65b3:	89 45 f0             	mov    %eax,-0x10(%rbp)
    65b6:	c7 45 f8 08 00 00 00 	movl   $0x8,-0x8(%rbp)
    65bd:	eb 1e                	jmp    65dd <crc32_gentab+0x45>
    65bf:	8b 45 f0             	mov    -0x10(%rbp),%eax
    65c2:	83 e0 01             	and    $0x1,%eax
    65c5:	85 c0                	test   %eax,%eax
    65c7:	74 0d                	je     65d6 <crc32_gentab+0x3e>
    65c9:	8b 45 f0             	mov    -0x10(%rbp),%eax
    65cc:	d1 e8                	shr    %eax
    65ce:	33 45 fc             	xor    -0x4(%rbp),%eax
    65d1:	89 45 f0             	mov    %eax,-0x10(%rbp)
    65d4:	eb 03                	jmp    65d9 <crc32_gentab+0x41>
    65d6:	d1 6d f0             	shrl   -0x10(%rbp)
    65d9:	83 6d f8 01          	subl   $0x1,-0x8(%rbp)
    65dd:	83 7d f8 00          	cmpl   $0x0,-0x8(%rbp)
    65e1:	7f dc                	jg     65bf <crc32_gentab+0x27>
    65e3:	8b 45 f4             	mov    -0xc(%rbp),%eax
    65e6:	48 98                	cltq   
    65e8:	48 8d 0c 85 00 00 00 	lea    0x0(,%rax,4),%rcx
    65ef:	00 
    65f0:	48 8d 15 e9 19 01 00 	lea    0x119e9(%rip),%rdx        # 17fe0 <crc32_tab>
    65f7:	8b 45 f0             	mov    -0x10(%rbp),%eax
    65fa:	89 04 11             	mov    %eax,(%rcx,%rdx,1)
    65fd:	83 45 f4 01          	addl   $0x1,-0xc(%rbp)
    6601:	81 7d f4 ff 00 00 00 	cmpl   $0xff,-0xc(%rbp)
    6608:	7e a6                	jle    65b0 <crc32_gentab+0x18>
    660a:	90                   	nop
    660b:	90                   	nop
    660c:	5d                   	pop    %rbp
    660d:	c3                   	retq   

000000000000660e <crc32_byte>:
    660e:	f3 0f 1e fa          	endbr64 
    6612:	55                   	push   %rbp
    6613:	48 89 e5             	mov    %rsp,%rbp
    6616:	89 f8                	mov    %edi,%eax
    6618:	88 45 fc             	mov    %al,-0x4(%rbp)
    661b:	8b 05 ff e9 00 00    	mov    0xe9ff(%rip),%eax        # 15020 <crc32_context>
    6621:	c1 e8 08             	shr    $0x8,%eax
    6624:	89 c1                	mov    %eax,%ecx
    6626:	0f b6 55 fc          	movzbl -0x4(%rbp),%edx
    662a:	8b 05 f0 e9 00 00    	mov    0xe9f0(%rip),%eax        # 15020 <crc32_context>
    6630:	31 d0                	xor    %edx,%eax
    6632:	0f b6 c0             	movzbl %al,%eax
    6635:	89 c0                	mov    %eax,%eax
    6637:	48 8d 14 85 00 00 00 	lea    0x0(,%rax,4),%rdx
    663e:	00 
    663f:	48 8d 05 9a 19 01 00 	lea    0x1199a(%rip),%rax        # 17fe0 <crc32_tab>
    6646:	8b 04 02             	mov    (%rdx,%rax,1),%eax
    6649:	31 c8                	xor    %ecx,%eax
    664b:	89 05 cf e9 00 00    	mov    %eax,0xe9cf(%rip)        # 15020 <crc32_context>
    6651:	90                   	nop
    6652:	5d                   	pop    %rbp
    6653:	c3                   	retq   

0000000000006654 <crc32_8bytes>:
    6654:	f3 0f 1e fa          	endbr64 
    6658:	55                   	push   %rbp
    6659:	48 89 e5             	mov    %rsp,%rbp
    665c:	48 83 ec 08          	sub    $0x8,%rsp
    6660:	48 89 7d f8          	mov    %rdi,-0x8(%rbp)
    6664:	48 8b 45 f8          	mov    -0x8(%rbp),%rax
    6668:	0f b6 c0             	movzbl %al,%eax
    666b:	89 c7                	mov    %eax,%edi
    666d:	e8 9c ff ff ff       	callq  660e <crc32_byte>
    6672:	48 8b 45 f8          	mov    -0x8(%rbp),%rax
    6676:	48 c1 e8 08          	shr    $0x8,%rax
    667a:	0f b6 c0             	movzbl %al,%eax
    667d:	89 c7                	mov    %eax,%edi
    667f:	e8 8a ff ff ff       	callq  660e <crc32_byte>
    6684:	48 8b 45 f8          	mov    -0x8(%rbp),%rax
    6688:	48 c1 e8 10          	shr    $0x10,%rax
    668c:	0f b6 c0             	movzbl %al,%eax
    668f:	89 c7                	mov    %eax,%edi
    6691:	e8 78 ff ff ff       	callq  660e <crc32_byte>
    6696:	48 8b 45 f8          	mov    -0x8(%rbp),%rax
    669a:	48 c1 e8 18          	shr    $0x18,%rax
    669e:	0f b6 c0             	movzbl %al,%eax
    66a1:	89 c7                	mov    %eax,%edi
    66a3:	e8 66 ff ff ff       	callq  660e <crc32_byte>
    66a8:	48 8b 45 f8          	mov    -0x8(%rbp),%rax
    66ac:	48 c1 e8 20          	shr    $0x20,%rax
    66b0:	0f b6 c0             	movzbl %al,%eax
    66b3:	89 c7                	mov    %eax,%edi
    66b5:	e8 54 ff ff ff       	callq  660e <crc32_byte>
    66ba:	48 8b 45 f8          	mov    -0x8(%rbp),%rax
    66be:	48 c1 e8 28          	shr    $0x28,%rax
    66c2:	0f b6 c0             	movzbl %al,%eax
    66c5:	89 c7                	mov    %eax,%edi
    66c7:	e8 42 ff ff ff       	callq  660e <crc32_byte>
    66cc:	48 8b 45 f8          	mov    -0x8(%rbp),%rax
    66d0:	48 c1 e8 30          	shr    $0x30,%rax
    66d4:	0f b6 c0             	movzbl %al,%eax
    66d7:	89 c7                	mov    %eax,%edi
    66d9:	e8 30 ff ff ff       	callq  660e <crc32_byte>
    66de:	48 8b 45 f8          	mov    -0x8(%rbp),%rax
    66e2:	48 c1 e8 38          	shr    $0x38,%rax
    66e6:	0f b6 c0             	movzbl %al,%eax
    66e9:	89 c7                	mov    %eax,%edi
    66eb:	e8 1e ff ff ff       	callq  660e <crc32_byte>
    66f0:	90                   	nop
    66f1:	c9                   	leaveq 
    66f2:	c3                   	retq   

00000000000066f3 <transparent_crc>:
    66f3:	f3 0f 1e fa          	endbr64 
    66f7:	55                   	push   %rbp
    66f8:	48 89 e5             	mov    %rsp,%rbp
    66fb:	48 83 ec 20          	sub    $0x20,%rsp
    66ff:	48 89 7d f8          	mov    %rdi,-0x8(%rbp)
    6703:	48 89 75 f0          	mov    %rsi,-0x10(%rbp)
    6707:	89 55 ec             	mov    %edx,-0x14(%rbp)
    670a:	48 8b 45 f8          	mov    -0x8(%rbp),%rax
    670e:	48 89 c7             	mov    %rax,%rdi
    6711:	e8 3e ff ff ff       	callq  6654 <crc32_8bytes>
    6716:	83 7d ec 00          	cmpl   $0x0,-0x14(%rbp)
    671a:	74 22                	je     673e <transparent_crc+0x4b>
    671c:	8b 05 fe e8 00 00    	mov    0xe8fe(%rip),%eax        # 15020 <crc32_context>
    6722:	f7 d0                	not    %eax
    6724:	89 c2                	mov    %eax,%edx
    6726:	48 8b 45 f0          	mov    -0x10(%rbp),%rax
    672a:	48 89 c6             	mov    %rax,%rsi
    672d:	48 8d 3d fc a8 00 00 	lea    0xa8fc(%rip),%rdi        # 11030 <_IO_stdin_used+0x30>
    6734:	b8 00 00 00 00       	mov    $0x0,%eax
    6739:	e8 42 e9 ff ff       	callq  5080 <printf@plt>
    673e:	90                   	nop
    673f:	c9                   	leaveq 
    6740:	c3                   	retq   

0000000000006741 <transparent_crc_bytes>:
    6741:	f3 0f 1e fa          	endbr64 
    6745:	55                   	push   %rbp
    6746:	48 89 e5             	mov    %rsp,%rbp
    6749:	48 83 ec 30          	sub    $0x30,%rsp
    674d:	48 89 7d e8          	mov    %rdi,-0x18(%rbp)
    6751:	89 75 e4             	mov    %esi,-0x1c(%rbp)
    6754:	48 89 55 d8          	mov    %rdx,-0x28(%rbp)
    6758:	89 4d e0             	mov    %ecx,-0x20(%rbp)
    675b:	c7 45 fc 00 00 00 00 	movl   $0x0,-0x4(%rbp)
    6762:	eb 1e                	jmp    6782 <transparent_crc_bytes+0x41>
    6764:	8b 45 fc             	mov    -0x4(%rbp),%eax
    6767:	48 63 d0             	movslq %eax,%rdx
    676a:	48 8b 45 e8          	mov    -0x18(%rbp),%rax
    676e:	48 01 d0             	add    %rdx,%rax
    6771:	0f b6 00             	movzbl (%rax),%eax
    6774:	0f b6 c0             	movzbl %al,%eax
    6777:	89 c7                	mov    %eax,%edi
    6779:	e8 90 fe ff ff       	callq  660e <crc32_byte>
    677e:	83 45 fc 01          	addl   $0x1,-0x4(%rbp)
    6782:	8b 45 fc             	mov    -0x4(%rbp),%eax
    6785:	3b 45 e4             	cmp    -0x1c(%rbp),%eax
    6788:	7c da                	jl     6764 <transparent_crc_bytes+0x23>
    678a:	83 7d e0 00          	cmpl   $0x0,-0x20(%rbp)
    678e:	74 22                	je     67b2 <transparent_crc_bytes+0x71>
    6790:	8b 05 8a e8 00 00    	mov    0xe88a(%rip),%eax        # 15020 <crc32_context>
    6796:	f7 d0                	not    %eax
    6798:	89 c2                	mov    %eax,%edx
    679a:	48 8b 45 d8          	mov    -0x28(%rbp),%rax
    679e:	48 89 c6             	mov    %rax,%rsi
    67a1:	48 8d 3d 88 a8 00 00 	lea    0xa888(%rip),%rdi        # 11030 <_IO_stdin_used+0x30>
    67a8:	b8 00 00 00 00       	mov    $0x0,%eax
    67ad:	e8 ce e8 ff ff       	callq  5080 <printf@plt>
    67b2:	90                   	nop
    67b3:	c9                   	leaveq 
    67b4:	c3                   	retq   

00000000000067b5 <func_1>:
    67b5:	f3 0f 1e fa          	endbr64 
    67b9:	55                   	push   %rbp
    67ba:	48 89 e5             	mov    %rsp,%rbp
    67bd:	41 57                	push   %r15
    67bf:	41 56                	push   %r14
    67c1:	41 55                	push   %r13
    67c3:	41 54                	push   %r12
    67c5:	53                   	push   %rbx
    67c6:	48 81 ec 78 0e 00 00 	sub    $0xe78,%rsp
    67cd:	64 48 8b 04 25 28 00 	mov    %fs:0x28,%rax
    67d4:	00 00 
    67d6:	48 89 45 c8          	mov    %rax,-0x38(%rbp)
    67da:	31 c0                	xor    %eax,%eax
    67dc:	c7 45 c2 ff ff ff ff 	movl   $0xffffffff,-0x3e(%rbp)
    67e3:	66 c7 45 c6 ff ff    	movw   $0xffff,-0x3a(%rbp)
    67e9:	c7 85 8c f1 ff ff ff 	movl   $0xffffffff,-0xe74(%rbp)
    67f0:	ff ff ff 
    67f3:	48 8d 05 da f9 00 00 	lea    0xf9da(%rip),%rax        # 161d4 <g_2003>
    67fa:	48 89 85 d8 f1 ff ff 	mov    %rax,-0xe28(%rbp)
    6801:	48 8d 85 40 f5 ff ff 	lea    -0xac0(%rbp),%rax
    6808:	48 8d 15 f1 f9 00 00 	lea    0xf9f1(%rip),%rdx        # 16200 <g_2069+0xc>
    680f:	b9 7d 00 00 00       	mov    $0x7d,%ecx
    6814:	48 89 c7             	mov    %rax,%rdi
    6817:	48 89 d6             	mov    %rdx,%rsi
    681a:	f3 48 a5             	rep movsq %ds:(%rsi),%es:(%rdi)
    681d:	48 c7 85 40 f3 ff ff 	movq   $0xfffffffffffffffa,-0xcc0(%rbp)
    6824:	fa ff ff ff 
    6828:	48 c7 85 48 f3 ff ff 	movq   $0xfffffffffffffffa,-0xcb8(%rbp)
    682f:	fa ff ff ff 
    6833:	48 c7 85 50 f3 ff ff 	movq   $0xfffffffffffffffa,-0xcb0(%rbp)
    683a:	fa ff ff ff 
    683e:	48 c7 85 58 f3 ff ff 	movq   $0xfffffffffffffffa,-0xca8(%rbp)
    6845:	fa ff ff ff 
    6849:	48 c7 85 60 f3 ff ff 	movq   $0xfffffffffffffffa,-0xca0(%rbp)
    6850:	fa ff ff ff 
    6854:	48 c7 85 68 f3 ff ff 	movq   $0xfffffffffffffffa,-0xc98(%rbp)
    685b:	fa ff ff ff 
    685f:	48 c7 85 70 f3 ff ff 	movq   $0xfffffffffffffffa,-0xc90(%rbp)
    6866:	fa ff ff ff 
    686a:	48 c7 85 78 f3 ff ff 	movq   $0xfffffffffffffffa,-0xc88(%rbp)
    6871:	fa ff ff ff 
    6875:	48 c7 85 80 f3 ff ff 	movq   $0xfffffffffffffffa,-0xc80(%rbp)
    687c:	fa ff ff ff 
    6880:	c7 85 a4 f1 ff ff 00 	movl   $0x0,-0xe5c(%rbp)
    6887:	00 00 00 
    688a:	c7 85 a0 f1 ff ff 00 	movl   $0x0,-0xe60(%rbp)
    6891:	00 00 00 
    6894:	eb 1e                	jmp    68b4 <func_1+0xff>
    6896:	8b 85 a0 f1 ff ff    	mov    -0xe60(%rbp),%eax
    689c:	48 98                	cltq   
    689e:	48 8d 15 b3 0a 01 00 	lea    0x10ab3(%rip),%rdx        # 17358 <g_520+0x18>
    68a5:	48 89 94 c5 18 f3 ff 	mov    %rdx,-0xce8(%rbp,%rax,8)
    68ac:	ff 
    68ad:	83 85 a0 f1 ff ff 01 	addl   $0x1,-0xe60(%rbp)
    68b4:	83 bd a0 f1 ff ff 00 	cmpl   $0x0,-0xe60(%rbp)
    68bb:	7e d9                	jle    6896 <func_1+0xe1>
    68bd:	c7 05 39 1b 01 00 ec 	movl   $0xffffffec,0x11b39(%rip)        # 18400 <g_2+0x10>
    68c4:	ff ff ff 
    68c7:	90                   	nop
    68c8:	8b 05 32 1b 01 00    	mov    0x11b32(%rip),%eax        # 18400 <g_2+0x10>
    68ce:	83 f8 17             	cmp    $0x17,%eax
    68d1:	0f 8e 82 1b 00 00    	jle    8459 <func_1+0x1ca4>
    68d7:	c6 85 7e f1 ff ff e6 	movb   $0xe6,-0xe82(%rbp)
    68de:	48 8d 05 17 1b 01 00 	lea    0x11b17(%rip),%rax        # 183fc <g_2+0xc>
    68e5:	48 89 85 e0 f1 ff ff 	mov    %rax,-0xe20(%rbp)
    68ec:	c6 85 7f f1 ff ff b0 	movb   $0xb0,-0xe81(%rbp)
    68f3:	c7 85 a8 f1 ff ff 5d 	movl   $0x82a1e55d,-0xe58(%rbp)
    68fa:	e5 a1 82 
    68fd:	c6 85 80 f1 ff ff 02 	movb   $0x2,-0xe80(%rbp)
    6904:	c7 85 90 f3 ff ff fc 	movl   $0xfffffffc,-0xc70(%rbp)
    690b:	ff ff ff 
    690e:	c7 85 94 f3 ff ff fd 	movl   $0xfffffffd,-0xc6c(%rbp)
    6915:	ff ff ff 
    6918:	c7 85 98 f3 ff ff fc 	movl   $0xfffffffc,-0xc68(%rbp)
    691f:	ff ff ff 
    6922:	c7 85 9c f3 ff ff fd 	movl   $0xfffffffd,-0xc64(%rbp)
    6929:	ff ff ff 
    692c:	c7 85 a0 f3 ff ff fc 	movl   $0xfffffffc,-0xc60(%rbp)
    6933:	ff ff ff 
    6936:	c7 85 a4 f3 ff ff fd 	movl   $0xfffffffd,-0xc5c(%rbp)
    693d:	ff ff ff 
    6940:	c7 85 a8 f3 ff ff fc 	movl   $0xfffffffc,-0xc58(%rbp)
    6947:	ff ff ff 
    694a:	c7 85 ac f3 ff ff fd 	movl   $0xfffffffd,-0xc54(%rbp)
    6951:	ff ff ff 
    6954:	c7 85 b0 f3 ff ff fc 	movl   $0xfffffffc,-0xc50(%rbp)
    695b:	ff ff ff 
    695e:	c7 85 b4 f3 ff ff fd 	movl   $0xfffffffd,-0xc4c(%rbp)
    6965:	ff ff ff 
    6968:	c7 85 b8 f3 ff ff fc 	movl   $0xfffffffc,-0xc48(%rbp)
    696f:	ff ff ff 
    6972:	c7 85 bc f3 ff ff fd 	movl   $0xfffffffd,-0xc44(%rbp)
    6979:	ff ff ff 
    697c:	c7 85 c0 f3 ff ff fc 	movl   $0xfffffffc,-0xc40(%rbp)
    6983:	ff ff ff 
    6986:	c7 85 c4 f3 ff ff fd 	movl   $0xfffffffd,-0xc3c(%rbp)
    698d:	ff ff ff 
    6990:	c7 85 c8 f3 ff ff fc 	movl   $0xfffffffc,-0xc38(%rbp)
    6997:	ff ff ff 
    699a:	c7 85 cc f3 ff ff fd 	movl   $0xfffffffd,-0xc34(%rbp)
    69a1:	ff ff ff 
    69a4:	c7 85 d0 f3 ff ff fc 	movl   $0xfffffffc,-0xc30(%rbp)
    69ab:	ff ff ff 
    69ae:	c7 85 d4 f3 ff ff fd 	movl   $0xfffffffd,-0xc2c(%rbp)
    69b5:	ff ff ff 
    69b8:	c7 85 ac f1 ff ff ff 	movl   $0xffffffff,-0xe54(%rbp)
    69bf:	ff ff ff 
    69c2:	48 8d 05 4b f5 00 00 	lea    0xf54b(%rip),%rax        # 15f14 <g_996>
    69c9:	48 89 85 30 f4 ff ff 	mov    %rax,-0xbd0(%rbp)
    69d0:	48 8d 05 3d f5 00 00 	lea    0xf53d(%rip),%rax        # 15f14 <g_996>
    69d7:	48 89 85 38 f4 ff ff 	mov    %rax,-0xbc8(%rbp)
    69de:	48 8d 05 f7 f4 00 00 	lea    0xf4f7(%rip),%rax        # 15edc <g_903+0x3c>
    69e5:	48 89 85 40 f4 ff ff 	mov    %rax,-0xbc0(%rbp)
    69ec:	48 8d 05 21 f5 00 00 	lea    0xf521(%rip),%rax        # 15f14 <g_996>
    69f3:	48 89 85 48 f4 ff ff 	mov    %rax,-0xbb8(%rbp)
    69fa:	48 8d 05 13 f5 00 00 	lea    0xf513(%rip),%rax        # 15f14 <g_996>
    6a01:	48 89 85 50 f4 ff ff 	mov    %rax,-0xbb0(%rbp)
    6a08:	48 8d 05 cd f4 00 00 	lea    0xf4cd(%rip),%rax        # 15edc <g_903+0x3c>
    6a0f:	48 89 85 58 f4 ff ff 	mov    %rax,-0xba8(%rbp)
    6a16:	48 8d 05 f7 f4 00 00 	lea    0xf4f7(%rip),%rax        # 15f14 <g_996>
    6a1d:	48 89 85 60 f4 ff ff 	mov    %rax,-0xba0(%rbp)
    6a24:	48 8d 05 e9 f4 00 00 	lea    0xf4e9(%rip),%rax        # 15f14 <g_996>
    6a2b:	48 89 85 68 f4 ff ff 	mov    %rax,-0xb98(%rbp)
    6a32:	48 8d 05 a3 f4 00 00 	lea    0xf4a3(%rip),%rax        # 15edc <g_903+0x3c>
    6a39:	48 89 85 70 f4 ff ff 	mov    %rax,-0xb90(%rbp)
    6a40:	48 8d 05 cd f4 00 00 	lea    0xf4cd(%rip),%rax        # 15f14 <g_996>
    6a47:	48 89 85 78 f4 ff ff 	mov    %rax,-0xb88(%rbp)
    6a4e:	48 8d 05 bf f4 00 00 	lea    0xf4bf(%rip),%rax        # 15f14 <g_996>
    6a55:	48 89 85 80 f4 ff ff 	mov    %rax,-0xb80(%rbp)
    6a5c:	48 8d 05 b1 f4 00 00 	lea    0xf4b1(%rip),%rax        # 15f14 <g_996>
    6a63:	48 89 85 88 f4 ff ff 	mov    %rax,-0xb78(%rbp)
    6a6a:	48 8d 05 a3 f4 00 00 	lea    0xf4a3(%rip),%rax        # 15f14 <g_996>
    6a71:	48 89 85 90 f4 ff ff 	mov    %rax,-0xb70(%rbp)
    6a78:	48 8d 05 95 f4 00 00 	lea    0xf495(%rip),%rax        # 15f14 <g_996>
    6a7f:	48 89 85 98 f4 ff ff 	mov    %rax,-0xb68(%rbp)
    6a86:	48 8d 05 87 f4 00 00 	lea    0xf487(%rip),%rax        # 15f14 <g_996>
    6a8d:	48 89 85 a0 f4 ff ff 	mov    %rax,-0xb60(%rbp)
    6a94:	66 c7 85 84 f1 ff ff 	movw   $0xfaa2,-0xe7c(%rbp)
    6a9b:	a2 fa 
    6a9d:	c7 05 7d e5 00 00 04 	movl   $0x4,0xe57d(%rip)        # 15024 <g_6>
    6aa4:	00 00 00 
    6aa7:	e9 a8 0c 00 00       	jmpq   7754 <func_1+0xf9f>
    6aac:	48 8d 05 1d f7 00 00 	lea    0xf71d(%rip),%rax        # 161d0 <g_1970>
    6ab3:	48 89 85 e8 f2 ff ff 	mov    %rax,-0xd18(%rbp)
    6aba:	48 8d 05 f7 f3 00 00 	lea    0xf3f7(%rip),%rax        # 15eb8 <g_903+0x18>
    6ac1:	48 89 85 f0 f2 ff ff 	mov    %rax,-0xd10(%rbp)
    6ac8:	48 c7 85 f8 f2 ff ff 	movq   $0x0,-0xd08(%rbp)
    6acf:	00 00 00 00 
    6ad3:	48 c7 85 00 f3 ff ff 	movq   $0x0,-0xd00(%rbp)
    6ada:	00 00 00 00 
    6ade:	48 c7 85 08 f3 ff ff 	movq   $0x0,-0xcf8(%rbp)
    6ae5:	00 00 00 00 
    6ae9:	48 8d 05 e4 f6 00 00 	lea    0xf6e4(%rip),%rax        # 161d4 <g_2003>
    6af0:	48 89 85 10 f3 ff ff 	mov    %rax,-0xcf0(%rbp)
    6af7:	48 8d 05 02 19 01 00 	lea    0x11902(%rip),%rax        # 18400 <g_2+0x10>
    6afe:	48 89 85 30 f9 ff ff 	mov    %rax,-0x6d0(%rbp)
    6b05:	48 8d 05 f4 18 01 00 	lea    0x118f4(%rip),%rax        # 18400 <g_2+0x10>
    6b0c:	48 89 85 38 f9 ff ff 	mov    %rax,-0x6c8(%rbp)
    6b13:	48 8d 05 e6 18 01 00 	lea    0x118e6(%rip),%rax        # 18400 <g_2+0x10>
    6b1a:	48 89 85 40 f9 ff ff 	mov    %rax,-0x6c0(%rbp)
    6b21:	48 8d 85 8c f1 ff ff 	lea    -0xe74(%rbp),%rax
    6b28:	48 89 85 48 f9 ff ff 	mov    %rax,-0x6b8(%rbp)
    6b2f:	48 8d 05 ba 18 01 00 	lea    0x118ba(%rip),%rax        # 183f0 <g_2>
    6b36:	48 89 85 50 f9 ff ff 	mov    %rax,-0x6b0(%rbp)
    6b3d:	48 8d 05 0c e5 00 00 	lea    0xe50c(%rip),%rax        # 15050 <g_83+0x10>
    6b44:	48 89 85 58 f9 ff ff 	mov    %rax,-0x6a8(%rbp)
    6b4b:	48 8d 05 b6 18 01 00 	lea    0x118b6(%rip),%rax        # 18408 <g_2+0x18>
    6b52:	48 89 85 60 f9 ff ff 	mov    %rax,-0x6a0(%rbp)
    6b59:	48 8d 05 d0 e4 00 00 	lea    0xe4d0(%rip),%rax        # 15030 <g_78>
    6b60:	48 89 85 68 f9 ff ff 	mov    %rax,-0x698(%rbp)
    6b67:	48 8d 05 92 18 01 00 	lea    0x11892(%rip),%rax        # 18400 <g_2+0x10>
    6b6e:	48 89 85 70 f9 ff ff 	mov    %rax,-0x690(%rbp)
    6b75:	48 8d 05 84 18 01 00 	lea    0x11884(%rip),%rax        # 18400 <g_2+0x10>
    6b7c:	48 89 85 78 f9 ff ff 	mov    %rax,-0x688(%rbp)
    6b83:	48 8d 05 a6 e4 00 00 	lea    0xe4a6(%rip),%rax        # 15030 <g_78>
    6b8a:	48 89 85 80 f9 ff ff 	mov    %rax,-0x680(%rbp)
    6b91:	48 8d 05 c8 e4 00 00 	lea    0xe4c8(%rip),%rax        # 15060 <g_83+0x20>
    6b98:	48 89 85 88 f9 ff ff 	mov    %rax,-0x678(%rbp)
    6b9f:	48 8d 05 62 18 01 00 	lea    0x11862(%rip),%rax        # 18408 <g_2+0x18>
    6ba6:	48 89 85 90 f9 ff ff 	mov    %rax,-0x670(%rbp)
    6bad:	48 8d 05 4c 18 01 00 	lea    0x1184c(%rip),%rax        # 18400 <g_2+0x10>
    6bb4:	48 89 85 98 f9 ff ff 	mov    %rax,-0x668(%rbp)
    6bbb:	48 8d 85 8c f1 ff ff 	lea    -0xe74(%rbp),%rax
    6bc2:	48 89 85 a0 f9 ff ff 	mov    %rax,-0x660(%rbp)
    6bc9:	48 8d 05 30 18 01 00 	lea    0x11830(%rip),%rax        # 18400 <g_2+0x10>
    6bd0:	48 89 85 a8 f9 ff ff 	mov    %rax,-0x658(%rbp)
    6bd7:	48 8d 05 2a 18 01 00 	lea    0x1182a(%rip),%rax        # 18408 <g_2+0x18>
    6bde:	48 89 85 b0 f9 ff ff 	mov    %rax,-0x650(%rbp)
    6be5:	48 8d 05 74 e4 00 00 	lea    0xe474(%rip),%rax        # 15060 <g_83+0x20>
    6bec:	48 89 85 b8 f9 ff ff 	mov    %rax,-0x648(%rbp)
    6bf3:	48 8d 05 36 e4 00 00 	lea    0xe436(%rip),%rax        # 15030 <g_78>
    6bfa:	48 89 85 c0 f9 ff ff 	mov    %rax,-0x640(%rbp)
    6c01:	48 8d 05 f8 17 01 00 	lea    0x117f8(%rip),%rax        # 18400 <g_2+0x10>
    6c08:	48 89 85 c8 f9 ff ff 	mov    %rax,-0x638(%rbp)
    6c0f:	48 c7 85 d0 f9 ff ff 	movq   $0x0,-0x630(%rbp)
    6c16:	00 00 00 00 
    6c1a:	48 8d 05 df 17 01 00 	lea    0x117df(%rip),%rax        # 18400 <g_2+0x10>
    6c21:	48 89 85 d8 f9 ff ff 	mov    %rax,-0x628(%rbp)
    6c28:	48 8d 05 d1 17 01 00 	lea    0x117d1(%rip),%rax        # 18400 <g_2+0x10>
    6c2f:	48 89 85 e0 f9 ff ff 	mov    %rax,-0x620(%rbp)
    6c36:	48 8d 05 b3 17 01 00 	lea    0x117b3(%rip),%rax        # 183f0 <g_2>
    6c3d:	48 89 85 e8 f9 ff ff 	mov    %rax,-0x618(%rbp)
    6c44:	48 8d 05 b5 17 01 00 	lea    0x117b5(%rip),%rax        # 18400 <g_2+0x10>
    6c4b:	48 89 85 f0 f9 ff ff 	mov    %rax,-0x610(%rbp)
    6c52:	48 8d 05 d7 e3 00 00 	lea    0xe3d7(%rip),%rax        # 15030 <g_78>
    6c59:	48 89 85 f8 f9 ff ff 	mov    %rax,-0x608(%rbp)
    6c60:	48 8d 85 8c f1 ff ff 	lea    -0xe74(%rbp),%rax
    6c67:	48 89 85 00 fa ff ff 	mov    %rax,-0x600(%rbp)
    6c6e:	48 8d 85 8c f1 ff ff 	lea    -0xe74(%rbp),%rax
    6c75:	48 89 85 08 fa ff ff 	mov    %rax,-0x5f8(%rbp)
    6c7c:	48 8d 85 8c f1 ff ff 	lea    -0xe74(%rbp),%rax
    6c83:	48 89 85 10 fa ff ff 	mov    %rax,-0x5f0(%rbp)
    6c8a:	48 8d 85 8c f1 ff ff 	lea    -0xe74(%rbp),%rax
    6c91:	48 89 85 18 fa ff ff 	mov    %rax,-0x5e8(%rbp)
    6c98:	48 8d 05 c1 e3 00 00 	lea    0xe3c1(%rip),%rax        # 15060 <g_83+0x20>
    6c9f:	48 89 85 20 fa ff ff 	mov    %rax,-0x5e0(%rbp)
    6ca6:	48 c7 85 28 fa ff ff 	movq   $0x0,-0x5d8(%rbp)
    6cad:	00 00 00 00 
    6cb1:	48 8d 05 38 17 01 00 	lea    0x11738(%rip),%rax        # 183f0 <g_2>
    6cb8:	48 89 85 30 fa ff ff 	mov    %rax,-0x5d0(%rbp)
    6cbf:	48 8d 05 2a 17 01 00 	lea    0x1172a(%rip),%rax        # 183f0 <g_2>
    6cc6:	48 89 85 38 fa ff ff 	mov    %rax,-0x5c8(%rbp)
    6ccd:	48 c7 85 40 fa ff ff 	movq   $0x0,-0x5c0(%rbp)
    6cd4:	00 00 00 00 
    6cd8:	48 8d 05 81 e3 00 00 	lea    0xe381(%rip),%rax        # 15060 <g_83+0x20>
    6cdf:	48 89 85 48 fa ff ff 	mov    %rax,-0x5b8(%rbp)
    6ce6:	48 c7 85 50 fa ff ff 	movq   $0x0,-0x5b0(%rbp)
    6ced:	00 00 00 00 
    6cf1:	48 8d 05 38 e3 00 00 	lea    0xe338(%rip),%rax        # 15030 <g_78>
    6cf8:	48 89 85 58 fa ff ff 	mov    %rax,-0x5a8(%rbp)
    6cff:	48 8d 05 2a e3 00 00 	lea    0xe32a(%rip),%rax        # 15030 <g_78>
    6d06:	48 89 85 60 fa ff ff 	mov    %rax,-0x5a0(%rbp)
    6d0d:	48 8d 05 3c e3 00 00 	lea    0xe33c(%rip),%rax        # 15050 <g_83+0x10>
    6d14:	48 89 85 68 fa ff ff 	mov    %rax,-0x598(%rbp)
    6d1b:	48 8d 05 2e e3 00 00 	lea    0xe32e(%rip),%rax        # 15050 <g_83+0x10>
    6d22:	48 89 85 70 fa ff ff 	mov    %rax,-0x590(%rbp)
    6d29:	48 8d 85 8c f1 ff ff 	lea    -0xe74(%rbp),%rax
    6d30:	48 89 85 78 fa ff ff 	mov    %rax,-0x588(%rbp)
    6d37:	48 8d 05 c2 16 01 00 	lea    0x116c2(%rip),%rax        # 18400 <g_2+0x10>
    6d3e:	48 89 85 80 fa ff ff 	mov    %rax,-0x580(%rbp)
    6d45:	48 8d 05 b4 16 01 00 	lea    0x116b4(%rip),%rax        # 18400 <g_2+0x10>
    6d4c:	48 89 85 88 fa ff ff 	mov    %rax,-0x578(%rbp)
    6d53:	48 8d 05 a6 16 01 00 	lea    0x116a6(%rip),%rax        # 18400 <g_2+0x10>
    6d5a:	48 89 85 90 fa ff ff 	mov    %rax,-0x570(%rbp)
    6d61:	48 8d 05 98 16 01 00 	lea    0x11698(%rip),%rax        # 18400 <g_2+0x10>
    6d68:	48 89 85 98 fa ff ff 	mov    %rax,-0x568(%rbp)
    6d6f:	48 8d 05 ea e2 00 00 	lea    0xe2ea(%rip),%rax        # 15060 <g_83+0x20>
    6d76:	48 89 85 a0 fa ff ff 	mov    %rax,-0x560(%rbp)
    6d7d:	48 8d 05 7c 16 01 00 	lea    0x1167c(%rip),%rax        # 18400 <g_2+0x10>
    6d84:	48 89 85 a8 fa ff ff 	mov    %rax,-0x558(%rbp)
    6d8b:	48 8d 05 6e 16 01 00 	lea    0x1166e(%rip),%rax        # 18400 <g_2+0x10>
    6d92:	48 89 85 b0 fa ff ff 	mov    %rax,-0x550(%rbp)
    6d99:	48 8d 05 60 16 01 00 	lea    0x11660(%rip),%rax        # 18400 <g_2+0x10>
    6da0:	48 89 85 b8 fa ff ff 	mov    %rax,-0x548(%rbp)
    6da7:	48 8d 05 a2 e2 00 00 	lea    0xe2a2(%rip),%rax        # 15050 <g_83+0x10>
    6dae:	48 89 85 c0 fa ff ff 	mov    %rax,-0x540(%rbp)
    6db5:	48 8d 05 44 16 01 00 	lea    0x11644(%rip),%rax        # 18400 <g_2+0x10>
    6dbc:	48 89 85 c8 fa ff ff 	mov    %rax,-0x538(%rbp)
    6dc3:	48 8d 05 86 e2 00 00 	lea    0xe286(%rip),%rax        # 15050 <g_83+0x10>
    6dca:	48 89 85 d0 fa ff ff 	mov    %rax,-0x530(%rbp)
    6dd1:	48 8d 85 8c f1 ff ff 	lea    -0xe74(%rbp),%rax
    6dd8:	48 89 85 d8 fa ff ff 	mov    %rax,-0x528(%rbp)
    6ddf:	48 8d 85 8c f1 ff ff 	lea    -0xe74(%rbp),%rax
    6de6:	48 89 85 e0 fa ff ff 	mov    %rax,-0x520(%rbp)
    6ded:	48 8d 05 6c e2 00 00 	lea    0xe26c(%rip),%rax        # 15060 <g_83+0x20>
    6df4:	48 89 85 e8 fa ff ff 	mov    %rax,-0x518(%rbp)
    6dfb:	48 8d 05 fe 15 01 00 	lea    0x115fe(%rip),%rax        # 18400 <g_2+0x10>
    6e02:	48 89 85 f0 fa ff ff 	mov    %rax,-0x510(%rbp)
    6e09:	48 8d 05 f0 15 01 00 	lea    0x115f0(%rip),%rax        # 18400 <g_2+0x10>
    6e10:	48 89 85 f8 fa ff ff 	mov    %rax,-0x508(%rbp)
    6e17:	48 8d 05 e2 15 01 00 	lea    0x115e2(%rip),%rax        # 18400 <g_2+0x10>
    6e1e:	48 89 85 00 fb ff ff 	mov    %rax,-0x500(%rbp)
    6e25:	48 8d 05 04 e2 00 00 	lea    0xe204(%rip),%rax        # 15030 <g_78>
    6e2c:	48 89 85 08 fb ff ff 	mov    %rax,-0x4f8(%rbp)
    6e33:	48 8d 05 26 e2 00 00 	lea    0xe226(%rip),%rax        # 15060 <g_83+0x20>
    6e3a:	48 89 85 10 fb ff ff 	mov    %rax,-0x4f0(%rbp)
    6e41:	48 8d 05 b8 15 01 00 	lea    0x115b8(%rip),%rax        # 18400 <g_2+0x10>
    6e48:	48 89 85 18 fb ff ff 	mov    %rax,-0x4e8(%rbp)
    6e4f:	48 8d 05 aa 15 01 00 	lea    0x115aa(%rip),%rax        # 18400 <g_2+0x10>
    6e56:	48 89 85 20 fb ff ff 	mov    %rax,-0x4e0(%rbp)
    6e5d:	48 8d 05 9c 15 01 00 	lea    0x1159c(%rip),%rax        # 18400 <g_2+0x10>
    6e64:	48 89 85 28 fb ff ff 	mov    %rax,-0x4d8(%rbp)
    6e6b:	48 8d 05 be e1 00 00 	lea    0xe1be(%rip),%rax        # 15030 <g_78>
    6e72:	48 89 85 30 fb ff ff 	mov    %rax,-0x4d0(%rbp)
    6e79:	48 8d 05 b0 e1 00 00 	lea    0xe1b0(%rip),%rax        # 15030 <g_78>
    6e80:	48 89 85 38 fb ff ff 	mov    %rax,-0x4c8(%rbp)
    6e87:	48 8d 05 72 15 01 00 	lea    0x11572(%rip),%rax        # 18400 <g_2+0x10>
    6e8e:	48 89 85 40 fb ff ff 	mov    %rax,-0x4c0(%rbp)
    6e95:	48 8d 05 64 15 01 00 	lea    0x11564(%rip),%rax        # 18400 <g_2+0x10>
    6e9c:	48 89 85 48 fb ff ff 	mov    %rax,-0x4b8(%rbp)
    6ea3:	48 8d 05 56 15 01 00 	lea    0x11556(%rip),%rax        # 18400 <g_2+0x10>
    6eaa:	48 89 85 50 fb ff ff 	mov    %rax,-0x4b0(%rbp)
    6eb1:	48 8d 05 a8 e1 00 00 	lea    0xe1a8(%rip),%rax        # 15060 <g_83+0x20>
    6eb8:	48 89 85 58 fb ff ff 	mov    %rax,-0x4a8(%rbp)
    6ebf:	48 c7 85 60 fb ff ff 	movq   $0x0,-0x4a0(%rbp)
    6ec6:	00 00 00 00 
    6eca:	48 c7 85 68 fb ff ff 	movq   $0x0,-0x498(%rbp)
    6ed1:	00 00 00 00 
    6ed5:	48 8d 05 74 e1 00 00 	lea    0xe174(%rip),%rax        # 15050 <g_83+0x10>
    6edc:	48 89 85 70 fb ff ff 	mov    %rax,-0x490(%rbp)
    6ee3:	48 8d 85 8c f1 ff ff 	lea    -0xe74(%rbp),%rax
    6eea:	48 89 85 78 fb ff ff 	mov    %rax,-0x488(%rbp)
    6ef1:	48 8d 05 08 15 01 00 	lea    0x11508(%rip),%rax        # 18400 <g_2+0x10>
    6ef8:	48 89 85 80 fb ff ff 	mov    %rax,-0x480(%rbp)
    6eff:	48 8d 05 fa 14 01 00 	lea    0x114fa(%rip),%rax        # 18400 <g_2+0x10>
    6f06:	48 89 85 88 fb ff ff 	mov    %rax,-0x478(%rbp)
    6f0d:	48 8d 05 ec 14 01 00 	lea    0x114ec(%rip),%rax        # 18400 <g_2+0x10>
    6f14:	48 89 85 90 fb ff ff 	mov    %rax,-0x470(%rbp)
    6f1b:	48 8d 05 de 14 01 00 	lea    0x114de(%rip),%rax        # 18400 <g_2+0x10>
    6f22:	48 89 85 98 fb ff ff 	mov    %rax,-0x468(%rbp)
    6f29:	48 8d 05 30 e1 00 00 	lea    0xe130(%rip),%rax        # 15060 <g_83+0x20>
    6f30:	48 89 85 a0 fb ff ff 	mov    %rax,-0x460(%rbp)
    6f37:	48 8d 05 c2 14 01 00 	lea    0x114c2(%rip),%rax        # 18400 <g_2+0x10>
    6f3e:	48 89 85 a8 fb ff ff 	mov    %rax,-0x458(%rbp)
    6f45:	48 8d 05 e4 e0 00 00 	lea    0xe0e4(%rip),%rax        # 15030 <g_78>
    6f4c:	48 89 85 b0 fb ff ff 	mov    %rax,-0x450(%rbp)
    6f53:	48 8d 05 f6 e0 00 00 	lea    0xe0f6(%rip),%rax        # 15050 <g_83+0x10>
    6f5a:	48 89 85 b8 fb ff ff 	mov    %rax,-0x448(%rbp)
    6f61:	48 8d 05 98 14 01 00 	lea    0x11498(%rip),%rax        # 18400 <g_2+0x10>
    6f68:	48 89 85 c0 fb ff ff 	mov    %rax,-0x440(%rbp)
    6f6f:	48 c7 85 c8 fb ff ff 	movq   $0x0,-0x438(%rbp)
    6f76:	00 00 00 00 
    6f7a:	48 8d 05 7f 14 01 00 	lea    0x1147f(%rip),%rax        # 18400 <g_2+0x10>
    6f81:	48 89 85 d0 fb ff ff 	mov    %rax,-0x430(%rbp)
    6f88:	48 8d 05 c1 e0 00 00 	lea    0xe0c1(%rip),%rax        # 15050 <g_83+0x10>
    6f8f:	48 89 85 d8 fb ff ff 	mov    %rax,-0x428(%rbp)
    6f96:	48 8d 05 93 e0 00 00 	lea    0xe093(%rip),%rax        # 15030 <g_78>
    6f9d:	48 89 85 e0 fb ff ff 	mov    %rax,-0x420(%rbp)
    6fa4:	48 8d 05 85 e0 00 00 	lea    0xe085(%rip),%rax        # 15030 <g_78>
    6fab:	48 89 85 e8 fb ff ff 	mov    %rax,-0x418(%rbp)
    6fb2:	48 c7 85 f0 fb ff ff 	movq   $0x0,-0x410(%rbp)
    6fb9:	00 00 00 00 
    6fbd:	48 8d 05 9c e0 00 00 	lea    0xe09c(%rip),%rax        # 15060 <g_83+0x20>
    6fc4:	48 89 85 f8 fb ff ff 	mov    %rax,-0x408(%rbp)
    6fcb:	48 8d 05 2e 14 01 00 	lea    0x1142e(%rip),%rax        # 18400 <g_2+0x10>
    6fd2:	48 89 85 00 fc ff ff 	mov    %rax,-0x400(%rbp)
    6fd9:	48 8d 05 20 14 01 00 	lea    0x11420(%rip),%rax        # 18400 <g_2+0x10>
    6fe0:	48 89 85 08 fc ff ff 	mov    %rax,-0x3f8(%rbp)
    6fe7:	48 8d 05 02 14 01 00 	lea    0x11402(%rip),%rax        # 183f0 <g_2>
    6fee:	48 89 85 10 fc ff ff 	mov    %rax,-0x3f0(%rbp)
    6ff5:	48 8d 05 04 14 01 00 	lea    0x11404(%rip),%rax        # 18400 <g_2+0x10>
    6ffc:	48 89 85 18 fc ff ff 	mov    %rax,-0x3e8(%rbp)
    7003:	48 8d 05 26 e0 00 00 	lea    0xe026(%rip),%rax        # 15030 <g_78>
    700a:	48 89 85 20 fc ff ff 	mov    %rax,-0x3e0(%rbp)
    7011:	48 8d 85 8c f1 ff ff 	lea    -0xe74(%rbp),%rax
    7018:	48 89 85 28 fc ff ff 	mov    %rax,-0x3d8(%rbp)
    701f:	48 8d 85 8c f1 ff ff 	lea    -0xe74(%rbp),%rax
    7026:	48 89 85 30 fc ff ff 	mov    %rax,-0x3d0(%rbp)
    702d:	48 8d 85 8c f1 ff ff 	lea    -0xe74(%rbp),%rax
    7034:	48 89 85 38 fc ff ff 	mov    %rax,-0x3c8(%rbp)
    703b:	48 8d 85 8c f1 ff ff 	lea    -0xe74(%rbp),%rax
    7042:	48 89 85 40 fc ff ff 	mov    %rax,-0x3c0(%rbp)
    7049:	48 8d 05 e0 df 00 00 	lea    0xdfe0(%rip),%rax        # 15030 <g_78>
    7050:	48 89 85 48 fc ff ff 	mov    %rax,-0x3b8(%rbp)
    7057:	48 c7 85 50 fc ff ff 	movq   $0x0,-0x3b0(%rbp)
    705e:	00 00 00 00 
    7062:	48 8d 05 97 13 01 00 	lea    0x11397(%rip),%rax        # 18400 <g_2+0x10>
    7069:	48 89 85 58 fc ff ff 	mov    %rax,-0x3a8(%rbp)
    7070:	48 8d 05 89 13 01 00 	lea    0x11389(%rip),%rax        # 18400 <g_2+0x10>
    7077:	48 89 85 60 fc ff ff 	mov    %rax,-0x3a0(%rbp)
    707e:	48 c7 85 68 fc ff ff 	movq   $0x0,-0x398(%rbp)
    7085:	00 00 00 00 
    7089:	48 8d 85 8c f1 ff ff 	lea    -0xe74(%rbp),%rax
    7090:	48 89 85 70 fc ff ff 	mov    %rax,-0x390(%rbp)
    7097:	48 8d 05 62 13 01 00 	lea    0x11362(%rip),%rax        # 18400 <g_2+0x10>
    709e:	48 89 85 78 fc ff ff 	mov    %rax,-0x388(%rbp)
    70a5:	48 8d 05 84 df 00 00 	lea    0xdf84(%rip),%rax        # 15030 <g_78>
    70ac:	48 89 85 80 fc ff ff 	mov    %rax,-0x380(%rbp)
    70b3:	48 8d 05 a6 df 00 00 	lea    0xdfa6(%rip),%rax        # 15060 <g_83+0x20>
    70ba:	48 89 85 88 fc ff ff 	mov    %rax,-0x378(%rbp)
    70c1:	48 8d 05 40 13 01 00 	lea    0x11340(%rip),%rax        # 18408 <g_2+0x18>
    70c8:	48 89 85 90 fc ff ff 	mov    %rax,-0x370(%rbp)
    70cf:	48 8d 05 2a 13 01 00 	lea    0x1132a(%rip),%rax        # 18400 <g_2+0x10>
    70d6:	48 89 85 98 fc ff ff 	mov    %rax,-0x368(%rbp)
    70dd:	48 8d 05 0c 13 01 00 	lea    0x1130c(%rip),%rax        # 183f0 <g_2>
    70e4:	48 89 85 a0 fc ff ff 	mov    %rax,-0x360(%rbp)
    70eb:	48 8d 05 5e df 00 00 	lea    0xdf5e(%rip),%rax        # 15050 <g_83+0x10>
    70f2:	48 89 85 a8 fc ff ff 	mov    %rax,-0x358(%rbp)
    70f9:	48 8d 05 08 13 01 00 	lea    0x11308(%rip),%rax        # 18408 <g_2+0x18>
    7100:	48 89 85 b0 fc ff ff 	mov    %rax,-0x350(%rbp)
    7107:	48 8d 05 22 df 00 00 	lea    0xdf22(%rip),%rax        # 15030 <g_78>
    710e:	48 89 85 b8 fc ff ff 	mov    %rax,-0x348(%rbp)
    7115:	48 8d 05 e4 12 01 00 	lea    0x112e4(%rip),%rax        # 18400 <g_2+0x10>
    711c:	48 89 85 c0 fc ff ff 	mov    %rax,-0x340(%rbp)
    7123:	48 8d 05 d6 12 01 00 	lea    0x112d6(%rip),%rax        # 18400 <g_2+0x10>
    712a:	48 89 85 c8 fc ff ff 	mov    %rax,-0x338(%rbp)
    7131:	48 8d 05 c8 12 01 00 	lea    0x112c8(%rip),%rax        # 18400 <g_2+0x10>
    7138:	48 89 85 d0 fc ff ff 	mov    %rax,-0x330(%rbp)
    713f:	48 8d 05 ea de 00 00 	lea    0xdeea(%rip),%rax        # 15030 <g_78>
    7146:	48 89 85 d8 fc ff ff 	mov    %rax,-0x328(%rbp)
    714d:	48 8d 05 b4 12 01 00 	lea    0x112b4(%rip),%rax        # 18408 <g_2+0x18>
    7154:	48 89 85 e0 fc ff ff 	mov    %rax,-0x320(%rbp)
    715b:	48 8d 05 ee de 00 00 	lea    0xdeee(%rip),%rax        # 15050 <g_83+0x10>
    7162:	48 89 85 e8 fc ff ff 	mov    %rax,-0x318(%rbp)
    7169:	48 8d 05 c0 de 00 00 	lea    0xdec0(%rip),%rax        # 15030 <g_78>
    7170:	48 89 85 f0 fc ff ff 	mov    %rax,-0x310(%rbp)
    7177:	48 c7 85 f8 fc ff ff 	movq   $0x0,-0x308(%rbp)
    717e:	00 00 00 00 
    7182:	48 8d 05 77 12 01 00 	lea    0x11277(%rip),%rax        # 18400 <g_2+0x10>
    7189:	48 89 85 00 fd ff ff 	mov    %rax,-0x300(%rbp)
    7190:	48 c7 85 08 fd ff ff 	movq   $0x0,-0x2f8(%rbp)
    7197:	00 00 00 00 
    719b:	48 c7 85 10 fd ff ff 	movq   $0x0,-0x2f0(%rbp)
    71a2:	00 00 00 00 
    71a6:	48 8d 85 8c f1 ff ff 	lea    -0xe74(%rbp),%rax
    71ad:	48 89 85 18 fd ff ff 	mov    %rax,-0x2e8(%rbp)
    71b4:	48 8d 05 45 12 01 00 	lea    0x11245(%rip),%rax        # 18400 <g_2+0x10>
    71bb:	48 89 85 20 fd ff ff 	mov    %rax,-0x2e0(%rbp)
    71c2:	48 8d 05 3f 12 01 00 	lea    0x1123f(%rip),%rax        # 18408 <g_2+0x18>
    71c9:	48 89 85 28 fd ff ff 	mov    %rax,-0x2d8(%rbp)
    71d0:	48 8d 85 8c f1 ff ff 	lea    -0xe74(%rbp),%rax
    71d7:	48 89 85 30 fd ff ff 	mov    %rax,-0x2d0(%rbp)
    71de:	48 8d 85 8c f1 ff ff 	lea    -0xe74(%rbp),%rax
    71e5:	48 89 85 38 fd ff ff 	mov    %rax,-0x2c8(%rbp)
    71ec:	48 c7 85 40 fd ff ff 	movq   $0x0,-0x2c0(%rbp)
    71f3:	00 00 00 00 
    71f7:	48 8d 05 02 12 01 00 	lea    0x11202(%rip),%rax        # 18400 <g_2+0x10>
    71fe:	48 89 85 48 fd ff ff 	mov    %rax,-0x2b8(%rbp)
    7205:	48 8d 85 8c f1 ff ff 	lea    -0xe74(%rbp),%rax
    720c:	48 89 85 50 fd ff ff 	mov    %rax,-0x2b0(%rbp)
    7213:	48 8d 05 e6 11 01 00 	lea    0x111e6(%rip),%rax        # 18400 <g_2+0x10>
    721a:	48 89 85 58 fd ff ff 	mov    %rax,-0x2a8(%rbp)
    7221:	48 8d 05 d8 11 01 00 	lea    0x111d8(%rip),%rax        # 18400 <g_2+0x10>
    7228:	48 89 85 60 fd ff ff 	mov    %rax,-0x2a0(%rbp)
    722f:	48 8d 85 8c f1 ff ff 	lea    -0xe74(%rbp),%rax
    7236:	48 89 85 68 fd ff ff 	mov    %rax,-0x298(%rbp)
    723d:	48 8d 05 bc 11 01 00 	lea    0x111bc(%rip),%rax        # 18400 <g_2+0x10>
    7244:	48 89 85 70 fd ff ff 	mov    %rax,-0x290(%rbp)
    724b:	48 c7 85 78 fd ff ff 	movq   $0x0,-0x288(%rbp)
    7252:	00 00 00 00 
    7256:	48 c7 85 80 fd ff ff 	movq   $0x0,-0x280(%rbp)
    725d:	00 00 00 00 
    7261:	48 8d 05 98 11 01 00 	lea    0x11198(%rip),%rax        # 18400 <g_2+0x10>
    7268:	48 89 85 88 fd ff ff 	mov    %rax,-0x278(%rbp)
    726f:	48 8d 05 ba dd 00 00 	lea    0xddba(%rip),%rax        # 15030 <g_78>
    7276:	48 89 85 90 fd ff ff 	mov    %rax,-0x270(%rbp)
    727d:	48 8d 05 7c 11 01 00 	lea    0x1117c(%rip),%rax        # 18400 <g_2+0x10>
    7284:	48 89 85 98 fd ff ff 	mov    %rax,-0x268(%rbp)
    728b:	48 8d 05 9e dd 00 00 	lea    0xdd9e(%rip),%rax        # 15030 <g_78>
    7292:	48 89 85 a0 fd ff ff 	mov    %rax,-0x260(%rbp)
    7299:	48 c7 85 a8 fd ff ff 	movq   $0x0,-0x258(%rbp)
    72a0:	00 00 00 00 
    72a4:	48 8d 85 8c f1 ff ff 	lea    -0xe74(%rbp),%rax
    72ab:	48 89 85 b0 fd ff ff 	mov    %rax,-0x250(%rbp)
    72b2:	48 8d 05 47 11 01 00 	lea    0x11147(%rip),%rax        # 18400 <g_2+0x10>
    72b9:	48 89 85 b8 fd ff ff 	mov    %rax,-0x248(%rbp)
    72c0:	48 8d 05 99 dd 00 00 	lea    0xdd99(%rip),%rax        # 15060 <g_83+0x20>
    72c7:	48 89 85 c0 fd ff ff 	mov    %rax,-0x240(%rbp)
    72ce:	48 8d 05 2b 11 01 00 	lea    0x1112b(%rip),%rax        # 18400 <g_2+0x10>
    72d5:	48 89 85 c8 fd ff ff 	mov    %rax,-0x238(%rbp)
    72dc:	48 8d 05 7d dd 00 00 	lea    0xdd7d(%rip),%rax        # 15060 <g_83+0x20>
    72e3:	48 89 85 d0 fd ff ff 	mov    %rax,-0x230(%rbp)
    72ea:	48 8d 05 0f 11 01 00 	lea    0x1110f(%rip),%rax        # 18400 <g_2+0x10>
    72f1:	48 89 85 d8 fd ff ff 	mov    %rax,-0x228(%rbp)
    72f8:	48 8d 05 f1 10 01 00 	lea    0x110f1(%rip),%rax        # 183f0 <g_2>
    72ff:	48 89 85 e0 fd ff ff 	mov    %rax,-0x220(%rbp)
    7306:	48 8d 85 8c f1 ff ff 	lea    -0xe74(%rbp),%rax
    730d:	48 89 85 e8 fd ff ff 	mov    %rax,-0x218(%rbp)
    7314:	48 8d 05 15 dd 00 00 	lea    0xdd15(%rip),%rax        # 15030 <g_78>
    731b:	48 89 85 f0 fd ff ff 	mov    %rax,-0x210(%rbp)
    7322:	48 8d 85 8c f1 ff ff 	lea    -0xe74(%rbp),%rax
    7329:	48 89 85 f8 fd ff ff 	mov    %rax,-0x208(%rbp)
    7330:	48 8d 05 b9 10 01 00 	lea    0x110b9(%rip),%rax        # 183f0 <g_2>
    7337:	48 89 85 00 fe ff ff 	mov    %rax,-0x200(%rbp)
    733e:	48 8d 05 bb 10 01 00 	lea    0x110bb(%rip),%rax        # 18400 <g_2+0x10>
    7345:	48 89 85 08 fe ff ff 	mov    %rax,-0x1f8(%rbp)
    734c:	48 c7 85 10 fe ff ff 	movq   $0x0,-0x1f0(%rbp)
    7353:	00 00 00 00 
    7357:	48 c7 85 18 fe ff ff 	movq   $0x0,-0x1e8(%rbp)
    735e:	00 00 00 00 
    7362:	48 8d 05 97 10 01 00 	lea    0x11097(%rip),%rax        # 18400 <g_2+0x10>
    7369:	48 89 85 20 fe ff ff 	mov    %rax,-0x1e0(%rbp)
    7370:	48 8d 85 8c f1 ff ff 	lea    -0xe74(%rbp),%rax
    7377:	48 89 85 28 fe ff ff 	mov    %rax,-0x1d8(%rbp)
    737e:	48 c7 85 30 fe ff ff 	movq   $0x0,-0x1d0(%rbp)
    7385:	00 00 00 00 
    7389:	48 c7 85 38 fe ff ff 	movq   $0x0,-0x1c8(%rbp)
    7390:	00 00 00 00 
    7394:	48 8d 85 8c f1 ff ff 	lea    -0xe74(%rbp),%rax
    739b:	48 89 85 40 fe ff ff 	mov    %rax,-0x1c0(%rbp)
    73a2:	48 8d 05 57 10 01 00 	lea    0x11057(%rip),%rax        # 18400 <g_2+0x10>
    73a9:	48 89 85 48 fe ff ff 	mov    %rax,-0x1b8(%rbp)
    73b0:	48 8d 05 51 10 01 00 	lea    0x11051(%rip),%rax        # 18408 <g_2+0x18>
    73b7:	48 89 85 50 fe ff ff 	mov    %rax,-0x1b0(%rbp)
    73be:	48 8d 85 8c f1 ff ff 	lea    -0xe74(%rbp),%rax
    73c5:	48 89 85 58 fe ff ff 	mov    %rax,-0x1a8(%rbp)
    73cc:	48 8d 85 8c f1 ff ff 	lea    -0xe74(%rbp),%rax
    73d3:	48 89 85 60 fe ff ff 	mov    %rax,-0x1a0(%rbp)
    73da:	48 8d 05 27 10 01 00 	lea    0x11027(%rip),%rax        # 18408 <g_2+0x18>
    73e1:	48 89 85 68 fe ff ff 	mov    %rax,-0x198(%rbp)
    73e8:	48 8d 05 11 10 01 00 	lea    0x11011(%rip),%rax        # 18400 <g_2+0x10>
    73ef:	48 89 85 70 fe ff ff 	mov    %rax,-0x190(%rbp)
    73f6:	48 8d 85 8c f1 ff ff 	lea    -0xe74(%rbp),%rax
    73fd:	48 89 85 78 fe ff ff 	mov    %rax,-0x188(%rbp)
    7404:	48 8d 05 f5 0f 01 00 	lea    0x10ff5(%rip),%rax        # 18400 <g_2+0x10>
    740b:	48 89 85 80 fe ff ff 	mov    %rax,-0x180(%rbp)
    7412:	48 8d 05 e7 0f 01 00 	lea    0x10fe7(%rip),%rax        # 18400 <g_2+0x10>
    7419:	48 89 85 88 fe ff ff 	mov    %rax,-0x178(%rbp)
    7420:	48 8d 05 d9 0f 01 00 	lea    0x10fd9(%rip),%rax        # 18400 <g_2+0x10>
    7427:	48 89 85 90 fe ff ff 	mov    %rax,-0x170(%rbp)
    742e:	48 8d 85 8c f1 ff ff 	lea    -0xe74(%rbp),%rax
    7435:	48 89 85 98 fe ff ff 	mov    %rax,-0x168(%rbp)
    743c:	48 8d 05 ad 0f 01 00 	lea    0x10fad(%rip),%rax        # 183f0 <g_2>
    7443:	48 89 85 a0 fe ff ff 	mov    %rax,-0x160(%rbp)
    744a:	48 8d 05 ff db 00 00 	lea    0xdbff(%rip),%rax        # 15050 <g_83+0x10>
    7451:	48 89 85 a8 fe ff ff 	mov    %rax,-0x158(%rbp)
    7458:	48 8d 05 a9 0f 01 00 	lea    0x10fa9(%rip),%rax        # 18408 <g_2+0x18>
    745f:	48 89 85 b0 fe ff ff 	mov    %rax,-0x150(%rbp)
    7466:	48 8d 05 c3 db 00 00 	lea    0xdbc3(%rip),%rax        # 15030 <g_78>
    746d:	48 89 85 b8 fe ff ff 	mov    %rax,-0x148(%rbp)
    7474:	48 8d 05 85 0f 01 00 	lea    0x10f85(%rip),%rax        # 18400 <g_2+0x10>
    747b:	48 89 85 c0 fe ff ff 	mov    %rax,-0x140(%rbp)
    7482:	48 8d 05 77 0f 01 00 	lea    0x10f77(%rip),%rax        # 18400 <g_2+0x10>
    7489:	48 89 85 c8 fe ff ff 	mov    %rax,-0x138(%rbp)
    7490:	48 8d 05 99 db 00 00 	lea    0xdb99(%rip),%rax        # 15030 <g_78>
    7497:	48 89 85 d0 fe ff ff 	mov    %rax,-0x130(%rbp)
    749e:	48 8d 05 bb db 00 00 	lea    0xdbbb(%rip),%rax        # 15060 <g_83+0x20>
    74a5:	48 89 85 d8 fe ff ff 	mov    %rax,-0x128(%rbp)
    74ac:	48 8d 05 55 0f 01 00 	lea    0x10f55(%rip),%rax        # 18408 <g_2+0x18>
    74b3:	48 89 85 e0 fe ff ff 	mov    %rax,-0x120(%rbp)
    74ba:	48 8d 05 3f 0f 01 00 	lea    0x10f3f(%rip),%rax        # 18400 <g_2+0x10>
    74c1:	48 89 85 e8 fe ff ff 	mov    %rax,-0x118(%rbp)
    74c8:	48 8d 05 31 0f 01 00 	lea    0x10f31(%rip),%rax        # 18400 <g_2+0x10>
    74cf:	48 89 85 f0 fe ff ff 	mov    %rax,-0x110(%rbp)
    74d6:	48 8d 05 83 db 00 00 	lea    0xdb83(%rip),%rax        # 15060 <g_83+0x20>
    74dd:	48 89 85 f8 fe ff ff 	mov    %rax,-0x108(%rbp)
    74e4:	48 8d 05 15 0f 01 00 	lea    0x10f15(%rip),%rax        # 18400 <g_2+0x10>
    74eb:	48 89 85 00 ff ff ff 	mov    %rax,-0x100(%rbp)
    74f2:	48 8d 85 8c f1 ff ff 	lea    -0xe74(%rbp),%rax
    74f9:	48 89 85 08 ff ff ff 	mov    %rax,-0xf8(%rbp)
    7500:	48 c7 85 10 ff ff ff 	movq   $0x0,-0xf0(%rbp)
    7507:	00 00 00 00 
    750b:	48 8d 05 1e db 00 00 	lea    0xdb1e(%rip),%rax        # 15030 <g_78>
    7512:	48 89 85 18 ff ff ff 	mov    %rax,-0xe8(%rbp)
    7519:	48 8d 05 e0 0e 01 00 	lea    0x10ee0(%rip),%rax        # 18400 <g_2+0x10>
    7520:	48 89 85 20 ff ff ff 	mov    %rax,-0xe0(%rbp)
    7527:	48 8d 05 02 db 00 00 	lea    0xdb02(%rip),%rax        # 15030 <g_78>
    752e:	48 89 85 28 ff ff ff 	mov    %rax,-0xd8(%rbp)
    7535:	48 8d 05 cc 0e 01 00 	lea    0x10ecc(%rip),%rax        # 18408 <g_2+0x18>
    753c:	48 89 85 30 ff ff ff 	mov    %rax,-0xd0(%rbp)
    7543:	48 8d 05 06 db 00 00 	lea    0xdb06(%rip),%rax        # 15050 <g_83+0x10>
    754a:	48 89 85 38 ff ff ff 	mov    %rax,-0xc8(%rbp)
    7551:	48 8d 05 98 0e 01 00 	lea    0x10e98(%rip),%rax        # 183f0 <g_2>
    7558:	48 89 85 40 ff ff ff 	mov    %rax,-0xc0(%rbp)
    755f:	48 8d 85 8c f1 ff ff 	lea    -0xe74(%rbp),%rax
    7566:	48 89 85 48 ff ff ff 	mov    %rax,-0xb8(%rbp)
    756d:	48 8d 05 8c 0e 01 00 	lea    0x10e8c(%rip),%rax        # 18400 <g_2+0x10>
    7574:	48 89 85 50 ff ff ff 	mov    %rax,-0xb0(%rbp)
    757b:	48 8d 05 7e 0e 01 00 	lea    0x10e7e(%rip),%rax        # 18400 <g_2+0x10>
    7582:	48 89 85 58 ff ff ff 	mov    %rax,-0xa8(%rbp)
    7589:	48 8d 05 70 0e 01 00 	lea    0x10e70(%rip),%rax        # 18400 <g_2+0x10>
    7590:	48 89 85 60 ff ff ff 	mov    %rax,-0xa0(%rbp)
    7597:	48 8d 05 62 0e 01 00 	lea    0x10e62(%rip),%rax        # 18400 <g_2+0x10>
    759e:	48 89 85 68 ff ff ff 	mov    %rax,-0x98(%rbp)
    75a5:	48 8d 85 8c f1 ff ff 	lea    -0xe74(%rbp),%rax
    75ac:	48 89 85 70 ff ff ff 	mov    %rax,-0x90(%rbp)
    75b3:	48 8d 05 46 0e 01 00 	lea    0x10e46(%rip),%rax        # 18400 <g_2+0x10>
    75ba:	48 89 85 78 ff ff ff 	mov    %rax,-0x88(%rbp)
    75c1:	48 8d 05 88 da 00 00 	lea    0xda88(%rip),%rax        # 15050 <g_83+0x10>
    75c8:	48 89 45 80          	mov    %rax,-0x80(%rbp)
    75cc:	48 8d 05 7d da 00 00 	lea    0xda7d(%rip),%rax        # 15050 <g_83+0x10>
    75d3:	48 89 45 88          	mov    %rax,-0x78(%rbp)
    75d7:	48 8d 05 22 0e 01 00 	lea    0x10e22(%rip),%rax        # 18400 <g_2+0x10>
    75de:	48 89 45 90          	mov    %rax,-0x70(%rbp)
    75e2:	48 8d 85 8c f1 ff ff 	lea    -0xe74(%rbp),%rax
    75e9:	48 89 45 98          	mov    %rax,-0x68(%rbp)
    75ed:	48 8d 05 3c da 00 00 	lea    0xda3c(%rip),%rax        # 15030 <g_78>
    75f4:	48 89 45 a0          	mov    %rax,-0x60(%rbp)
    75f8:	48 8d 85 8c f1 ff ff 	lea    -0xe74(%rbp),%rax
    75ff:	48 89 45 a8          	mov    %rax,-0x58(%rbp)
    7603:	48 c7 45 b0 00 00 00 	movq   $0x0,-0x50(%rbp)
    760a:	00 
    760b:	48 8d 85 8c f1 ff ff 	lea    -0xe74(%rbp),%rax
    7612:	48 89 45 b8          	mov    %rax,-0x48(%rbp)
    7616:	8b 05 00 e8 00 00    	mov    0xe800(%rip),%eax        # 15e1c <g_646+0x1c>
    761c:	c1 e8 0a             	shr    $0xa,%eax
    761f:	66 25 ff 03          	and    $0x3ff,%ax
    7623:	0f b7 d8             	movzwl %ax,%ebx
    7626:	8b 05 f8 d9 00 00    	mov    0xd9f8(%rip),%eax        # 15024 <g_6>
    762c:	48 98                	cltq   
    762e:	0f b6 44 05 c2       	movzbl -0x3e(%rbp,%rax,1),%eax
    7633:	44 0f be e0          	movsbl %al,%r12d
    7637:	48 8d 05 6a e8 00 00 	lea    0xe86a(%rip),%rax        # 15ea8 <g_903+0x8>
    763e:	48 39 85 f0 f2 ff ff 	cmp    %rax,-0xd10(%rbp)
    7645:	0f 95 c0             	setne  %al
    7648:	0f b6 d0             	movzbl %al,%edx
    764b:	48 8b 85 e8 f2 ff ff 	mov    -0xd18(%rbp),%rax
    7652:	0f b7 00             	movzwl (%rax),%eax
    7655:	8d 48 ff             	lea    -0x1(%rax),%ecx
    7658:	48 8b 85 e8 f2 ff ff 	mov    -0xd18(%rbp),%rax
    765f:	66 89 08             	mov    %cx,(%rax)
    7662:	48 8b 85 e8 f2 ff ff 	mov    -0xd18(%rbp),%rax
    7669:	0f b7 00             	movzwl (%rax),%eax
    766c:	0f b7 c0             	movzwl %ax,%eax
    766f:	89 d6                	mov    %edx,%esi
    7671:	89 c7                	mov    %eax,%edi
    7673:	e8 8e e7 ff ff       	callq  5e06 <safe_lshift_func_uint16_t_u_u>
    7678:	0f b7 c0             	movzwl %ax,%eax
    767b:	48 0d 0e d2 fb 53    	or     $0x53fbd20e,%rax
    7681:	48 83 f8 ff          	cmp    $0xffffffffffffffff,%rax
    7685:	0f 94 c0             	sete   %al
    7688:	0f b6 c0             	movzbl %al,%eax
    768b:	41 39 c4             	cmp    %eax,%r12d
    768e:	0f 9e c0             	setle  %al
    7691:	0f b6 d0             	movzbl %al,%edx
    7694:	0f b7 05 ff e7 00 00 	movzwl 0xe7ff(%rip),%eax        # 15e9a <g_782>
    769b:	98                   	cwtl   
    769c:	39 c2                	cmp    %eax,%edx
    769e:	0f 9c c0             	setl   %al
    76a1:	0f b6 c0             	movzbl %al,%eax
    76a4:	89 85 8c f1 ff ff    	mov    %eax,-0xe74(%rbp)
    76aa:	8b 85 8c f1 ff ff    	mov    -0xe74(%rbp),%eax
    76b0:	85 c0                	test   %eax,%eax
    76b2:	0f 94 c0             	sete   %al
    76b5:	44 0f b6 e0          	movzbl %al,%r12d
    76b9:	0f b6 45 c4          	movzbl -0x3c(%rbp),%eax
    76bd:	48 0f be d0          	movsbq %al,%rdx
    76c1:	66 0f be 85 7e f1 ff 	movsbw -0xe82(%rbp),%ax
    76c8:	ff 
    76c9:	0f b7 c8             	movzwl %ax,%ecx
    76cc:	8b 05 52 d9 00 00    	mov    0xd952(%rip),%eax        # 15024 <g_6>
    76d2:	48 98                	cltq   
    76d4:	0f b6 44 05 c2       	movzbl -0x3e(%rbp,%rax,1),%eax
    76d9:	0f be c0             	movsbl %al,%eax
    76dc:	89 ce                	mov    %ecx,%esi
    76de:	89 c7                	mov    %eax,%edi
    76e0:	e8 3c 0f 00 00       	callq  8621 <func_15>
    76e5:	44 89 e6             	mov    %r12d,%esi
    76e8:	89 c7                	mov    %eax,%edi
    76ea:	e8 16 df ff ff       	callq  5605 <safe_sub_func_int32_t_s_s>
    76ef:	89 de                	mov    %ebx,%esi
    76f1:	89 c7                	mov    %eax,%edi
    76f3:	e8 e5 0d 00 00       	callq  84dd <func_10>
    76f8:	f7 d0                	not    %eax
    76fa:	0f be c0             	movsbl %al,%eax
    76fd:	be 03 00 00 00       	mov    $0x3,%esi
    7702:	89 c7                	mov    %eax,%edi
    7704:	e8 98 db ff ff       	callq  52a1 <safe_lshift_func_int8_t_s_s>
    7709:	0a 85 7e f1 ff ff    	or     -0xe82(%rbp),%al
    770f:	0f be d0             	movsbl %al,%edx
    7712:	48 8b 85 10 f3 ff ff 	mov    -0xcf0(%rbp),%rax
    7719:	8b 00                	mov    (%rax),%eax
    771b:	09 c2                	or     %eax,%edx
    771d:	48 8b 85 10 f3 ff ff 	mov    -0xcf0(%rbp),%rax
    7724:	89 10                	mov    %edx,(%rax)
    7726:	48 8b 45 b8          	mov    -0x48(%rbp),%rax
    772a:	48 89 85 d8 f1 ff ff 	mov    %rax,-0xe28(%rbp)
    7731:	48 8b 05 e0 fb 00 00 	mov    0xfbe0(%rip),%rax        # 17318 <g_91>
    7738:	48 8b 00             	mov    (%rax),%rax
    773b:	48 8d 95 8c f1 ff ff 	lea    -0xe74(%rbp),%rdx
    7742:	48 89 10             	mov    %rdx,(%rax)
    7745:	8b 05 d9 d8 00 00    	mov    0xd8d9(%rip),%eax        # 15024 <g_6>
    774b:	83 e8 01             	sub    $0x1,%eax
    774e:	89 05 d0 d8 00 00    	mov    %eax,0xd8d0(%rip)        # 15024 <g_6>
    7754:	8b 05 ca d8 00 00    	mov    0xd8ca(%rip),%eax        # 15024 <g_6>
    775a:	85 c0                	test   %eax,%eax
    775c:	0f 89 4a f3 ff ff    	jns    6aac <func_1+0x2f7>
    7762:	48 8b 05 5f 02 01 00 	mov    0x1025f(%rip),%rax        # 179c8 <g_1899>
    7769:	8b 18                	mov    (%rax),%ebx
    776b:	0f b6 05 46 ea 00 00 	movzbl 0xea46(%rip),%eax        # 161b8 <g_1799+0x8>
    7772:	c1 e0 03             	shl    $0x3,%eax
    7775:	c0 f8 03             	sar    $0x3,%al
    7778:	0f be c0             	movsbl %al,%eax
    777b:	be 04 00 00 00       	mov    $0x4,%esi
    7780:	89 c7                	mov    %eax,%edi
    7782:	e8 1a db ff ff       	callq  52a1 <safe_lshift_func_int8_t_s_s>
    7787:	0f b6 d0             	movzbl %al,%edx
    778a:	0f b6 85 7e f1 ff ff 	movzbl -0xe82(%rbp),%eax
    7791:	0f b6 c0             	movzbl %al,%eax
    7794:	89 d6                	mov    %edx,%esi
    7796:	89 c7                	mov    %eax,%edi
    7798:	e8 bd e3 ff ff       	callq  5b5a <safe_add_func_uint8_t_u_u>
    779d:	0f b6 c0             	movzbl %al,%eax
    77a0:	89 de                	mov    %ebx,%esi
    77a2:	89 c7                	mov    %eax,%edi
    77a4:	e8 7c e7 ff ff       	callq  5f25 <safe_div_func_uint32_t_u_u>
    77a9:	89 c0                	mov    %eax,%eax
    77ab:	be 01 00 00 00       	mov    $0x1,%esi
    77b0:	48 89 c7             	mov    %rax,%rdi
    77b3:	e8 3f e2 ff ff       	callq  59f7 <safe_div_func_int64_t_s_s>
    77b8:	48 85 c0             	test   %rax,%rax
    77bb:	0f 84 85 01 00 00    	je     7946 <func_1+0x1191>
    77c1:	66 c7 85 8a f1 ff ff 	movw   $0xa60d,-0xe76(%rbp)
    77c8:	0d a6 
    77ca:	c7 05 9c e5 00 00 fa 	movl   $0xfffffffa,0xe59c(%rip)        # 15d70 <g_462>
    77d1:	ff ff ff 
    77d4:	e9 59 01 00 00       	jmpq   7932 <func_1+0x117d>
    77d9:	c6 85 83 f1 ff ff c8 	movb   $0xc8,-0xe7d(%rbp)
    77e0:	48 8d 05 79 d8 00 00 	lea    0xd879(%rip),%rax        # 15060 <g_83+0x20>
    77e7:	48 89 85 e0 f2 ff ff 	mov    %rax,-0xd20(%rbp)
    77ee:	0f b6 05 e3 e9 00 00 	movzbl 0xe9e3(%rip),%eax        # 161d8 <g_2016>
    77f5:	44 0f b6 e8          	movzbl %al,%r13d
    77f9:	48 8b 05 b0 01 01 00 	mov    0x101b0(%rip),%rax        # 179b0 <g_1476>
    7800:	0f b7 00             	movzwl (%rax),%eax
    7803:	0f b7 d8             	movzwl %ax,%ebx
    7806:	48 8b 05 93 01 01 00 	mov    0x10193(%rip),%rax        # 179a0 <g_1288>
    780d:	48 8b 00             	mov    (%rax),%rax
    7810:	4c 8b 30             	mov    (%rax),%r14
    7813:	44 0f b6 a5 83 f1 ff 	movzbl -0xe7d(%rbp),%r12d
    781a:	ff 
    781b:	48 8b 05 96 01 01 00 	mov    0x10196(%rip),%rax        # 179b8 <g_1762>
    7822:	48 8b 00             	mov    (%rax),%rax
    7825:	48 89 c2             	mov    %rax,%rdx
    7828:	48 0f be 85 7e f1 ff 	movsbq -0xe82(%rbp),%rax
    782f:	ff 
    7830:	48 89 d6             	mov    %rdx,%rsi
    7833:	48 89 c7             	mov    %rax,%rdi
    7836:	e8 79 e1 ff ff       	callq  59b4 <safe_mod_func_int64_t_s_s>
    783b:	48 3d 1a 1c 00 00    	cmp    $0x1c1a,%rax
    7841:	75 0b                	jne    784e <func_1+0x1099>
    7843:	48 8b 05 7e 01 01 00 	mov    0x1017e(%rip),%rax        # 179c8 <g_1899>
    784a:	8b 00                	mov    (%rax),%eax
    784c:	85 c0                	test   %eax,%eax
    784e:	0f b6 85 83 f1 ff ff 	movzbl -0xe7d(%rbp),%eax
    7855:	48 89 c6             	mov    %rax,%rsi
    7858:	bf 01 00 00 00       	mov    $0x1,%edi
    785d:	e8 95 e1 ff ff       	callq  59f7 <safe_div_func_int64_t_s_s>
    7862:	4c 89 e6             	mov    %r12,%rsi
    7865:	48 89 c7             	mov    %rax,%rdi
    7868:	e8 8a e1 ff ff       	callq  59f7 <safe_div_func_int64_t_s_s>
    786d:	49 39 c6             	cmp    %rax,%r14
    7870:	74 10                	je     7882 <func_1+0x10cd>
    7872:	80 bd 7e f1 ff ff 00 	cmpb   $0x0,-0xe82(%rbp)
    7879:	74 07                	je     7882 <func_1+0x10cd>
    787b:	b8 01 00 00 00       	mov    $0x1,%eax
    7880:	eb 05                	jmp    7887 <func_1+0x10d2>
    7882:	b8 00 00 00 00       	mov    $0x0,%eax
    7887:	3d 92 d6 5e 45       	cmp    $0x455ed692,%eax
    788c:	0f 95 c0             	setne  %al
    788f:	0f b6 c0             	movzbl %al,%eax
    7892:	89 de                	mov    %ebx,%esi
    7894:	89 c7                	mov    %eax,%edi
    7896:	e8 f3 e4 ff ff       	callq  5d8e <safe_div_func_uint16_t_u_u>
    789b:	0f b6 95 83 f1 ff ff 	movzbl -0xe7d(%rbp),%edx
    78a2:	66 39 d0             	cmp    %dx,%ax
    78a5:	0f 96 c0             	setbe  %al
    78a8:	0f b6 c0             	movzbl %al,%eax
    78ab:	41 39 c5             	cmp    %eax,%r13d
    78ae:	0f 94 c0             	sete   %al
    78b1:	0f b6 d0             	movzbl %al,%edx
    78b4:	48 8b 85 e0 f2 ff ff 	mov    -0xd20(%rbp),%rax
    78bb:	8b 00                	mov    (%rax),%eax
    78bd:	21 c2                	and    %eax,%edx
    78bf:	48 8b 85 e0 f2 ff ff 	mov    -0xd20(%rbp),%rax
    78c6:	89 10                	mov    %edx,(%rax)
    78c8:	48 8b 05 49 fa 00 00 	mov    0xfa49(%rip),%rax        # 17318 <g_91>
    78cf:	48 8b 00             	mov    (%rax),%rax
    78d2:	48 8b 95 e0 f1 ff ff 	mov    -0xe20(%rbp),%rdx
    78d9:	48 89 10             	mov    %rdx,(%rax)
    78dc:	c6 05 bb e5 00 00 00 	movb   $0x0,0xe5bb(%rip)        # 15e9e <g_838>
    78e3:	eb 33                	jmp    7918 <func_1+0x1163>
    78e5:	48 8b 05 2c fa 00 00 	mov    0xfa2c(%rip),%rax        # 17318 <g_91>
    78ec:	48 8b 10             	mov    (%rax),%rdx
    78ef:	48 8b 05 1a fa 00 00 	mov    0xfa1a(%rip),%rax        # 17310 <g_92>
    78f6:	48 8b 12             	mov    (%rdx),%rdx
    78f9:	48 89 10             	mov    %rdx,(%rax)
    78fc:	0f b6 05 9b e5 00 00 	movzbl 0xe59b(%rip),%eax        # 15e9e <g_838>
    7903:	0f b6 c0             	movzbl %al,%eax
    7906:	be 08 00 00 00       	mov    $0x8,%esi
    790b:	89 c7                	mov    %eax,%edi
    790d:	e8 a1 da ff ff       	callq  53b3 <safe_add_func_int16_t_s_s>
    7912:	88 05 86 e5 00 00    	mov    %al,0xe586(%rip)        # 15e9e <g_838>
    7918:	0f b6 05 7f e5 00 00 	movzbl 0xe57f(%rip),%eax        # 15e9e <g_838>
    791f:	3c 23                	cmp    $0x23,%al
    7921:	76 c2                	jbe    78e5 <func_1+0x1130>
    7923:	8b 05 47 e4 00 00    	mov    0xe447(%rip),%eax        # 15d70 <g_462>
    7929:	83 c0 01             	add    $0x1,%eax
    792c:	89 05 3e e4 00 00    	mov    %eax,0xe43e(%rip)        # 15d70 <g_462>
    7932:	8b 05 38 e4 00 00    	mov    0xe438(%rip),%eax        # 15d70 <g_462>
    7938:	83 f8 09             	cmp    $0x9,%eax
    793b:	0f 85 98 fe ff ff    	jne    77d9 <func_1+0x1024>
    7941:	e9 08 0b 00 00       	jmpq   844e <func_1+0x1c99>
    7946:	48 8d 05 b3 0a 01 00 	lea    0x10ab3(%rip),%rax        # 18400 <g_2+0x10>
    794d:	48 89 85 e8 f1 ff ff 	mov    %rax,-0xe18(%rbp)
    7954:	48 8d 05 bc de 00 00 	lea    0xdebc(%rip),%rax        # 15817 <g_267+0x3>
    795b:	48 89 85 f0 f1 ff ff 	mov    %rax,-0xe10(%rbp)
    7962:	c6 85 7d f1 ff ff ff 	movb   $0xff,-0xe83(%rbp)
    7969:	c7 85 20 f3 ff ff fb 	movl   $0x313d25fb,-0xce0(%rbp)
    7970:	25 3d 31 
    7973:	c7 85 24 f3 ff ff fb 	movl   $0x313d25fb,-0xcdc(%rbp)
    797a:	25 3d 31 
    797d:	c7 85 28 f3 ff ff ff 	movl   $0xffffffff,-0xcd8(%rbp)
    7984:	ff ff ff 
    7987:	c7 85 2c f3 ff ff fb 	movl   $0x313d25fb,-0xcd4(%rbp)
    798e:	25 3d 31 
    7991:	c7 85 30 f3 ff ff fb 	movl   $0x313d25fb,-0xcd0(%rbp)
    7998:	25 3d 31 
    799b:	c7 85 34 f3 ff ff ff 	movl   $0xffffffff,-0xccc(%rbp)
    79a2:	ff ff ff 
    79a5:	48 8d 05 38 e6 00 00 	lea    0xe638(%rip),%rax        # 15fe4 <g_1306+0x44>
    79ac:	48 89 85 c0 f1 ff ff 	mov    %rax,-0xe40(%rbp)
    79b3:	48 8d 85 c0 f1 ff ff 	lea    -0xe40(%rbp),%rax
    79ba:	48 89 85 c8 f1 ff ff 	mov    %rax,-0xe38(%rbp)
    79c1:	48 8b 05 08 00 01 00 	mov    0x10008(%rip),%rax        # 179d0 <g_1898>
    79c8:	48 8b 10             	mov    (%rax),%rdx
    79cb:	8b 02                	mov    (%rdx),%eax
    79cd:	8d 48 ff             	lea    -0x1(%rax),%ecx
    79d0:	89 0a                	mov    %ecx,(%rdx)
    79d2:	85 c0                	test   %eax,%eax
    79d4:	0f 95 c2             	setne  %dl
    79d7:	48 8b 85 18 f3 ff ff 	mov    -0xce8(%rbp),%rax
    79de:	48 85 c0             	test   %rax,%rax
    79e1:	0f 95 c0             	setne  %al
    79e4:	31 d0                	xor    %edx,%eax
    79e6:	84 c0                	test   %al,%al
    79e8:	0f 84 5c 02 00 00    	je     7c4a <func_1+0x1495>
    79ee:	48 8d 05 b3 e4 00 00 	lea    0xe4b3(%rip),%rax        # 15ea8 <g_903+0x8>
    79f5:	48 89 85 f8 f1 ff ff 	mov    %rax,-0xe08(%rbp)
    79fc:	c7 85 b0 f1 ff ff f6 	movl   $0xb548a6f6,-0xe50(%rbp)
    7a03:	a6 48 b5 
    7a06:	c7 85 b4 f1 ff ff 5f 	movl   $0xd0cdb75f,-0xe4c(%rbp)
    7a0d:	b7 cd d0 
    7a10:	c7 85 98 f1 ff ff 00 	movl   $0x0,-0xe68(%rbp)
    7a17:	00 00 00 
    7a1a:	eb 1e                	jmp    7a3a <func_1+0x1285>
    7a1c:	8b 85 98 f1 ff ff    	mov    -0xe68(%rbp),%eax
    7a22:	48 98                	cltq   
    7a24:	48 8d 15 f9 d5 00 00 	lea    0xd5f9(%rip),%rdx        # 15024 <g_6>
    7a2b:	48 89 94 c5 30 f9 ff 	mov    %rdx,-0x6d0(%rbp,%rax,8)
    7a32:	ff 
    7a33:	83 85 98 f1 ff ff 01 	addl   $0x1,-0xe68(%rbp)
    7a3a:	83 bd 98 f1 ff ff 05 	cmpl   $0x5,-0xe68(%rbp)
    7a41:	7e d9                	jle    7a1c <func_1+0x1267>
    7a43:	48 8b 05 c6 f8 00 00 	mov    0xf8c6(%rip),%rax        # 17310 <g_92>
    7a4a:	48 8b 95 e8 f1 ff ff 	mov    -0xe18(%rbp),%rdx
    7a51:	48 89 10             	mov    %rdx,(%rax)
    7a54:	c6 05 c5 e6 00 00 fc 	movb   $0xfc,0xe6c5(%rip)        # 16120 <g_1595>
    7a5b:	e9 88 00 00 00       	jmpq   7ae8 <func_1+0x1333>
    7a60:	48 c7 05 5d e7 00 00 	movq   $0x0,0xe75d(%rip)        # 161c8 <g_1919>
    7a67:	00 00 00 00 
    7a6b:	eb 52                	jmp    7abf <func_1+0x130a>
    7a6d:	48 8d 85 8c f1 ff ff 	lea    -0xe74(%rbp),%rax
    7a74:	48 89 85 00 f2 ff ff 	mov    %rax,-0xe00(%rbp)
    7a7b:	48 8b 05 66 a1 00 00 	mov    0xa166(%rip),%rax        # 11be8 <l_2040.4199+0x28>
    7a82:	89 c2                	mov    %eax,%edx
    7a84:	48 8b 85 00 f2 ff ff 	mov    -0xe00(%rbp),%rax
    7a8b:	89 10                	mov    %edx,(%rax)
    7a8d:	48 8b 85 00 f2 ff ff 	mov    -0xe00(%rbp),%rax
    7a94:	8b 10                	mov    (%rax),%edx
    7a96:	48 8b 05 73 f8 00 00 	mov    0xf873(%rip),%rax        # 17310 <g_92>
    7a9d:	48 8b 00             	mov    (%rax),%rax
    7aa0:	8b 00                	mov    (%rax),%eax
    7aa2:	21 c2                	and    %eax,%edx
    7aa4:	48 8b 85 00 f2 ff ff 	mov    -0xe00(%rbp),%rax
    7aab:	89 10                	mov    %edx,(%rax)
    7aad:	48 8b 05 14 e7 00 00 	mov    0xe714(%rip),%rax        # 161c8 <g_1919>
    7ab4:	48 83 c0 01          	add    $0x1,%rax
    7ab8:	48 89 05 09 e7 00 00 	mov    %rax,0xe709(%rip)        # 161c8 <g_1919>
    7abf:	48 8b 05 02 e7 00 00 	mov    0xe702(%rip),%rax        # 161c8 <g_1919>
    7ac6:	48 83 f8 05          	cmp    $0x5,%rax
    7aca:	75 a1                	jne    7a6d <func_1+0x12b8>
    7acc:	0f b6 05 4d e6 00 00 	movzbl 0xe64d(%rip),%eax        # 16120 <g_1595>
    7ad3:	0f b6 c0             	movzbl %al,%eax
    7ad6:	be 02 00 00 00       	mov    $0x2,%esi
    7adb:	89 c7                	mov    %eax,%edi
    7add:	e8 78 e0 ff ff       	callq  5b5a <safe_add_func_uint8_t_u_u>
    7ae2:	88 05 38 e6 00 00    	mov    %al,0xe638(%rip)        # 16120 <g_1595>
    7ae8:	0f b6 05 31 e6 00 00 	movzbl 0xe631(%rip),%eax        # 16120 <g_1595>
    7aef:	3c 37                	cmp    $0x37,%al
    7af1:	0f 84 69 ff ff ff    	je     7a60 <func_1+0x12ab>
    7af7:	48 8b 15 0a f8 00 00 	mov    0xf80a(%rip),%rdx        # 17308 <g_54>
    7afe:	48 8b 05 0b f8 00 00 	mov    0xf80b(%rip),%rax        # 17310 <g_92>
    7b05:	48 8b 12             	mov    (%rdx),%rdx
    7b08:	48 89 10             	mov    %rdx,(%rax)
    7b0b:	0f b7 05 aa e2 00 00 	movzwl 0xe2aa(%rip),%eax        # 15dbc <g_644+0xc>
    7b12:	66 c1 e8 02          	shr    $0x2,%ax
    7b16:	66 25 ff 03          	and    $0x3ff,%ax
    7b1a:	0f be d8             	movsbl %al,%ebx
    7b1d:	48 8b 85 e0 f1 ff ff 	mov    -0xe20(%rbp),%rax
    7b24:	8b 00                	mov    (%rax),%eax
    7b26:	44 0f b7 e0          	movzwl %ax,%r12d
    7b2a:	8b 85 b4 f1 ff ff    	mov    -0xe4c(%rbp),%eax
    7b30:	44 0f b6 e8          	movzbl %al,%r13d
    7b34:	0f b7 05 09 e6 00 00 	movzwl 0xe609(%rip),%eax        # 16144 <g_1635+0x4>
    7b3b:	44 0f be f0          	movsbl %al,%r14d
    7b3f:	0f b6 85 7f f1 ff ff 	movzbl -0xe81(%rbp),%eax
    7b46:	f7 d0                	not    %eax
    7b48:	39 85 b0 f1 ff ff    	cmp    %eax,-0xe50(%rbp)
    7b4e:	0f 9f c2             	setg   %dl
    7b51:	48 8b 05 60 fe 00 00 	mov    0xfe60(%rip),%rax        # 179b8 <g_1762>
    7b58:	0f b6 d2             	movzbl %dl,%edx
    7b5b:	48 89 10             	mov    %rdx,(%rax)
    7b5e:	48 8b 00             	mov    (%rax),%rax
    7b61:	48 89 85 68 f1 ff ff 	mov    %rax,-0xe98(%rbp)
    7b68:	0f b7 05 a3 dc 00 00 	movzwl 0xdca3(%rip),%eax        # 15812 <g_236>
    7b6f:	44 0f b6 f8          	movzbl %al,%r15d
    7b73:	be d2 1d e1 3a       	mov    $0x3ae11dd2,%esi
    7b78:	bf 00 00 00 00       	mov    $0x0,%edi
    7b7d:	e8 7b e3 ff ff       	callq  5efd <safe_mod_func_uint32_t_u_u>
    7b82:	89 c7                	mov    %eax,%edi
    7b84:	e8 1d e3 ff ff       	callq  5ea6 <safe_unary_minus_func_uint32_t_u>
    7b89:	0f b6 c0             	movzbl %al,%eax
    7b8c:	44 89 fe             	mov    %r15d,%esi
    7b8f:	89 c7                	mov    %eax,%edi
    7b91:	e8 c4 df ff ff       	callq  5b5a <safe_add_func_uint8_t_u_u>
    7b96:	0f b6 d0             	movzbl %al,%edx
    7b99:	48 8b 85 60 f3 ff ff 	mov    -0xca0(%rbp),%rax
    7ba0:	48 31 d0             	xor    %rdx,%rax
    7ba3:	48 39 85 68 f1 ff ff 	cmp    %rax,-0xe98(%rbp)
    7baa:	0f 95 c0             	setne  %al
    7bad:	0f b6 c0             	movzbl %al,%eax
    7bb0:	be d9 5f 00 00       	mov    $0x5fd9,%esi
    7bb5:	89 c7                	mov    %eax,%edi
    7bb7:	e8 63 e1 ff ff       	callq  5d1f <safe_sub_func_uint16_t_u_u>
    7bbc:	0f be c0             	movsbl %al,%eax
    7bbf:	44 89 f6             	mov    %r14d,%esi
    7bc2:	89 c7                	mov    %eax,%edi
    7bc4:	e8 29 d6 ff ff       	callq  51f2 <safe_sub_func_int8_t_s_s>
    7bc9:	c7 85 b0 f1 ff ff 00 	movl   $0x0,-0xe50(%rbp)
    7bd0:	00 00 00 
    7bd3:	8b 85 b0 f1 ff ff    	mov    -0xe50(%rbp),%eax
    7bd9:	83 c8 47             	or     $0x47,%eax
    7bdc:	0f b6 c0             	movzbl %al,%eax
    7bdf:	44 89 ee             	mov    %r13d,%esi
    7be2:	89 c7                	mov    %eax,%edi
    7be4:	e8 aa df ff ff       	callq  5b93 <safe_mul_func_uint8_t_u_u>
    7be9:	0f b6 c0             	movzbl %al,%eax
    7bec:	44 89 e6             	mov    %r12d,%esi
    7bef:	89 c7                	mov    %eax,%edi
    7bf1:	e8 66 e1 ff ff       	callq  5d5c <safe_mod_func_uint16_t_u_u>
    7bf6:	66 85 c0             	test   %ax,%ax
    7bf9:	74 07                	je     7c02 <func_1+0x144d>
    7bfb:	b8 01 00 00 00       	mov    $0x1,%eax
    7c00:	eb 05                	jmp    7c07 <func_1+0x1452>
    7c02:	b8 00 00 00 00       	mov    $0x0,%eax
    7c07:	0f be c0             	movsbl %al,%eax
    7c0a:	89 de                	mov    %ebx,%esi
    7c0c:	89 c7                	mov    %eax,%edi
    7c0e:	e8 ff d5 ff ff       	callq  5212 <safe_mul_func_int8_t_s_s>
    7c13:	48 8b 05 b6 fd 00 00 	mov    0xfdb6(%rip),%rax        # 179d0 <g_1898>
    7c1a:	48 8b 00             	mov    (%rax),%rax
    7c1d:	8b 10                	mov    (%rax),%edx
    7c1f:	83 c2 01             	add    $0x1,%edx
    7c22:	89 10                	mov    %edx,(%rax)
    7c24:	48 8b 85 98 f8 ff ff 	mov    -0x768(%rbp),%rax
    7c2b:	48 39 85 f8 f1 ff ff 	cmp    %rax,-0xe08(%rbp)
    7c32:	0f 95 c0             	setne  %al
    7c35:	0f b6 c0             	movzbl %al,%eax
    7c38:	89 c2                	mov    %eax,%edx
    7c3a:	8b 05 b4 e5 00 00    	mov    0xe5b4(%rip),%eax        # 161f4 <g_2069>
    7c40:	21 d0                	and    %edx,%eax
    7c42:	89 05 ac e5 00 00    	mov    %eax,0xe5ac(%rip)        # 161f4 <g_2069>
    7c48:	eb 3f                	jmp    7c89 <func_1+0x14d4>
    7c4a:	48 8b 15 b7 f6 00 00 	mov    0xf6b7(%rip),%rdx        # 17308 <g_54>
    7c51:	48 8b 05 b8 f6 00 00 	mov    0xf6b8(%rip),%rax        # 17310 <g_92>
    7c58:	48 8b 12             	mov    (%rdx),%rdx
    7c5b:	48 89 10             	mov    %rdx,(%rax)
    7c5e:	48 8b 05 3b fd 00 00 	mov    0xfd3b(%rip),%rax        # 179a0 <g_1288>
    7c65:	48 8b 00             	mov    (%rax),%rax
    7c68:	48 8b 00             	mov    (%rax),%rax
    7c6b:	48 8b 85 e8 f1 ff ff 	mov    -0xe18(%rbp),%rax
    7c72:	8b 10                	mov    (%rax),%edx
    7c74:	48 8b 05 35 fd 00 00 	mov    0xfd35(%rip),%rax        # 179b0 <g_1476>
    7c7b:	0f b7 00             	movzwl (%rax),%eax
    7c7e:	0f b7 c0             	movzwl %ax,%eax
    7c81:	09 d0                	or     %edx,%eax
    7c83:	89 85 8c f1 ff ff    	mov    %eax,-0xe74(%rbp)
    7c89:	c6 05 48 e5 00 00 00 	movb   $0x0,0xe548(%rip)        # 161d8 <g_2016>
    7c90:	e9 a7 07 00 00       	jmpq   843c <func_1+0x1c87>
    7c95:	c7 85 9c f1 ff ff 00 	movl   $0x0,-0xe64(%rbp)
    7c9c:	00 00 00 
    7c9f:	66 c7 85 86 f1 ff ff 	movw   $0xffff,-0xe7a(%rbp)
    7ca6:	ff ff 
    7ca8:	48 b8 2d a0 0d 8a a7 	movabs $0xe1ed62a78a0da02d,%rax
    7caf:	62 ed e1 
    7cb2:	48 89 85 d0 f1 ff ff 	mov    %rax,-0xe30(%rbp)
    7cb9:	48 c7 85 08 f2 ff ff 	movq   $0x0,-0xdf8(%rbp)
    7cc0:	00 00 00 00 
    7cc4:	c6 85 81 f1 ff ff f8 	movb   $0xf8,-0xe7f(%rbp)
    7ccb:	c7 85 b8 f1 ff ff 56 	movl   $0xb691556,-0xe48(%rbp)
    7cd2:	15 69 0b 
    7cd5:	48 8d 05 34 07 01 00 	lea    0x10734(%rip),%rax        # 18410 <g_445>
    7cdc:	48 89 85 10 f2 ff ff 	mov    %rax,-0xdf0(%rbp)
    7ce3:	48 8d 85 40 f5 ff ff 	lea    -0xac0(%rbp),%rax
    7cea:	48 05 58 03 00 00    	add    $0x358,%rax
    7cf0:	48 89 85 30 f9 ff ff 	mov    %rax,-0x6d0(%rbp)
    7cf7:	48 8d 85 40 f5 ff ff 	lea    -0xac0(%rbp),%rax
    7cfe:	48 05 58 03 00 00    	add    $0x358,%rax
    7d04:	48 89 85 38 f9 ff ff 	mov    %rax,-0x6c8(%rbp)
    7d0b:	48 8d 85 40 f5 ff ff 	lea    -0xac0(%rbp),%rax
    7d12:	48 05 58 03 00 00    	add    $0x358,%rax
    7d18:	48 89 85 40 f9 ff ff 	mov    %rax,-0x6c0(%rbp)
    7d1f:	48 8d 85 40 f5 ff ff 	lea    -0xac0(%rbp),%rax
    7d26:	48 05 58 03 00 00    	add    $0x358,%rax
    7d2c:	48 89 85 48 f9 ff ff 	mov    %rax,-0x6b8(%rbp)
    7d33:	48 8d 85 40 f5 ff ff 	lea    -0xac0(%rbp),%rax
    7d3a:	48 05 58 03 00 00    	add    $0x358,%rax
    7d40:	48 89 85 50 f9 ff ff 	mov    %rax,-0x6b0(%rbp)
    7d47:	48 8d 85 40 f5 ff ff 	lea    -0xac0(%rbp),%rax
    7d4e:	48 05 58 03 00 00    	add    $0x358,%rax
    7d54:	48 89 85 58 f9 ff ff 	mov    %rax,-0x6a8(%rbp)
    7d5b:	48 8d 85 40 f5 ff ff 	lea    -0xac0(%rbp),%rax
    7d62:	48 05 58 03 00 00    	add    $0x358,%rax
    7d68:	48 89 85 60 f9 ff ff 	mov    %rax,-0x6a0(%rbp)
    7d6f:	48 8d 85 40 f5 ff ff 	lea    -0xac0(%rbp),%rax
    7d76:	48 05 58 03 00 00    	add    $0x358,%rax
    7d7c:	48 89 85 68 f9 ff ff 	mov    %rax,-0x698(%rbp)
    7d83:	48 8d 85 40 f5 ff ff 	lea    -0xac0(%rbp),%rax
    7d8a:	48 05 58 03 00 00    	add    $0x358,%rax
    7d90:	48 89 85 70 f9 ff ff 	mov    %rax,-0x690(%rbp)
    7d97:	48 8d 85 40 f5 ff ff 	lea    -0xac0(%rbp),%rax
    7d9e:	48 05 58 03 00 00    	add    $0x358,%rax
    7da4:	48 89 85 78 f9 ff ff 	mov    %rax,-0x688(%rbp)
    7dab:	48 8d 85 40 f5 ff ff 	lea    -0xac0(%rbp),%rax
    7db2:	48 05 58 03 00 00    	add    $0x358,%rax
    7db8:	48 89 85 80 f9 ff ff 	mov    %rax,-0x680(%rbp)
    7dbf:	48 8d 85 40 f5 ff ff 	lea    -0xac0(%rbp),%rax
    7dc6:	48 05 58 03 00 00    	add    $0x358,%rax
    7dcc:	48 89 85 88 f9 ff ff 	mov    %rax,-0x678(%rbp)
    7dd3:	48 8d 85 40 f5 ff ff 	lea    -0xac0(%rbp),%rax
    7dda:	48 05 58 03 00 00    	add    $0x358,%rax
    7de0:	48 89 85 90 f9 ff ff 	mov    %rax,-0x670(%rbp)
    7de7:	48 8d 85 40 f5 ff ff 	lea    -0xac0(%rbp),%rax
    7dee:	48 05 58 03 00 00    	add    $0x358,%rax
    7df4:	48 89 85 98 f9 ff ff 	mov    %rax,-0x668(%rbp)
    7dfb:	48 8d 85 40 f5 ff ff 	lea    -0xac0(%rbp),%rax
    7e02:	48 05 58 03 00 00    	add    $0x358,%rax
    7e08:	48 89 85 a0 f9 ff ff 	mov    %rax,-0x660(%rbp)
    7e0f:	48 8d 85 40 f5 ff ff 	lea    -0xac0(%rbp),%rax
    7e16:	48 05 58 03 00 00    	add    $0x358,%rax
    7e1c:	48 89 85 a8 f9 ff ff 	mov    %rax,-0x658(%rbp)
    7e23:	48 8d 85 40 f5 ff ff 	lea    -0xac0(%rbp),%rax
    7e2a:	48 05 58 03 00 00    	add    $0x358,%rax
    7e30:	48 89 85 b0 f9 ff ff 	mov    %rax,-0x650(%rbp)
    7e37:	48 8d 85 40 f5 ff ff 	lea    -0xac0(%rbp),%rax
    7e3e:	48 05 58 03 00 00    	add    $0x358,%rax
    7e44:	48 89 85 b8 f9 ff ff 	mov    %rax,-0x648(%rbp)
    7e4b:	48 8d 85 40 f5 ff ff 	lea    -0xac0(%rbp),%rax
    7e52:	48 05 58 03 00 00    	add    $0x358,%rax
    7e58:	48 89 85 c0 f9 ff ff 	mov    %rax,-0x640(%rbp)
    7e5f:	48 8d 85 40 f5 ff ff 	lea    -0xac0(%rbp),%rax
    7e66:	48 05 58 03 00 00    	add    $0x358,%rax
    7e6c:	48 89 85 c8 f9 ff ff 	mov    %rax,-0x638(%rbp)
    7e73:	48 8d 85 40 f5 ff ff 	lea    -0xac0(%rbp),%rax
    7e7a:	48 05 58 03 00 00    	add    $0x358,%rax
    7e80:	48 89 85 d0 f9 ff ff 	mov    %rax,-0x630(%rbp)
    7e87:	48 8d 85 40 f5 ff ff 	lea    -0xac0(%rbp),%rax
    7e8e:	48 05 58 03 00 00    	add    $0x358,%rax
    7e94:	48 89 85 d8 f9 ff ff 	mov    %rax,-0x628(%rbp)
    7e9b:	48 8d 85 40 f5 ff ff 	lea    -0xac0(%rbp),%rax
    7ea2:	48 05 58 03 00 00    	add    $0x358,%rax
    7ea8:	48 89 85 e0 f9 ff ff 	mov    %rax,-0x620(%rbp)
    7eaf:	48 8d 85 40 f5 ff ff 	lea    -0xac0(%rbp),%rax
    7eb6:	48 05 58 03 00 00    	add    $0x358,%rax
    7ebc:	48 89 85 e8 f9 ff ff 	mov    %rax,-0x618(%rbp)
    7ec3:	48 8b 05 4e f4 00 00 	mov    0xf44e(%rip),%rax        # 17318 <g_91>
    7eca:	48 8b 10             	mov    (%rax),%rdx
    7ecd:	48 8b 05 44 f4 00 00 	mov    0xf444(%rip),%rax        # 17318 <g_91>
    7ed4:	48 8b 00             	mov    (%rax),%rax
    7ed7:	48 8b 12             	mov    (%rdx),%rdx
    7eda:	48 89 10             	mov    %rdx,(%rax)
    7edd:	48 8b 15 fc fa 00 00 	mov    0xfafc(%rip),%rdx        # 179e0 <g_2073>
    7ee4:	48 8b 00             	mov    (%rax),%rax
    7ee7:	48 89 02             	mov    %rax,(%rdx)
    7eea:	80 bd 80 f1 ff ff 00 	cmpb   $0x0,-0xe80(%rbp)
    7ef1:	0f 84 af 01 00 00    	je     80a6 <func_1+0x18f1>
    7ef7:	48 8d 05 32 d1 00 00 	lea    0xd132(%rip),%rax        # 15030 <g_78>
    7efe:	48 89 85 d8 f2 ff ff 	mov    %rax,-0xd28(%rbp)
    7f05:	c7 05 e5 e2 00 00 00 	movl   $0x0,0xe2e5(%rip)        # 161f4 <g_2069>
    7f0c:	00 00 00 
    7f0f:	e9 6d 01 00 00       	jmpq   8081 <func_1+0x18cc>
    7f14:	48 8d 05 0d d1 00 00 	lea    0xd10d(%rip),%rax        # 15028 <g_58>
    7f1b:	48 89 85 b0 f4 ff ff 	mov    %rax,-0xb50(%rbp)
    7f22:	48 8d 05 ff d0 00 00 	lea    0xd0ff(%rip),%rax        # 15028 <g_58>
    7f29:	48 89 85 b8 f4 ff ff 	mov    %rax,-0xb48(%rbp)
    7f30:	48 8d 05 f1 d0 00 00 	lea    0xd0f1(%rip),%rax        # 15028 <g_58>
    7f37:	48 89 85 c0 f4 ff ff 	mov    %rax,-0xb40(%rbp)
    7f3e:	48 8d 05 8f e2 00 00 	lea    0xe28f(%rip),%rax        # 161d4 <g_2003>
    7f45:	48 89 85 c8 f4 ff ff 	mov    %rax,-0xb38(%rbp)
    7f4c:	48 8d 05 ad 04 01 00 	lea    0x104ad(%rip),%rax        # 18400 <g_2+0x10>
    7f53:	48 89 85 d0 f4 ff ff 	mov    %rax,-0xb30(%rbp)
    7f5a:	48 8d 05 73 e2 00 00 	lea    0xe273(%rip),%rax        # 161d4 <g_2003>
    7f61:	48 89 85 d8 f4 ff ff 	mov    %rax,-0xb28(%rbp)
    7f68:	48 8d 05 b9 d0 00 00 	lea    0xd0b9(%rip),%rax        # 15028 <g_58>
    7f6f:	48 89 85 e0 f4 ff ff 	mov    %rax,-0xb20(%rbp)
    7f76:	48 8d 05 ab d0 00 00 	lea    0xd0ab(%rip),%rax        # 15028 <g_58>
    7f7d:	48 89 85 e8 f4 ff ff 	mov    %rax,-0xb18(%rbp)
    7f84:	48 8d 05 9d d0 00 00 	lea    0xd09d(%rip),%rax        # 15028 <g_58>
    7f8b:	48 89 85 f0 f4 ff ff 	mov    %rax,-0xb10(%rbp)
    7f92:	48 8d 05 3b e2 00 00 	lea    0xe23b(%rip),%rax        # 161d4 <g_2003>
    7f99:	48 89 85 f8 f4 ff ff 	mov    %rax,-0xb08(%rbp)
    7fa0:	48 8d 05 59 04 01 00 	lea    0x10459(%rip),%rax        # 18400 <g_2+0x10>
    7fa7:	48 89 85 00 f5 ff ff 	mov    %rax,-0xb00(%rbp)
    7fae:	48 8d 05 1f e2 00 00 	lea    0xe21f(%rip),%rax        # 161d4 <g_2003>
    7fb5:	48 89 85 08 f5 ff ff 	mov    %rax,-0xaf8(%rbp)
    7fbc:	48 8d 05 65 d0 00 00 	lea    0xd065(%rip),%rax        # 15028 <g_58>
    7fc3:	48 89 85 10 f5 ff ff 	mov    %rax,-0xaf0(%rbp)
    7fca:	48 8d 05 57 d0 00 00 	lea    0xd057(%rip),%rax        # 15028 <g_58>
    7fd1:	48 89 85 18 f5 ff ff 	mov    %rax,-0xae8(%rbp)
    7fd8:	48 8d 05 49 d0 00 00 	lea    0xd049(%rip),%rax        # 15028 <g_58>
    7fdf:	48 89 85 20 f5 ff ff 	mov    %rax,-0xae0(%rbp)
    7fe6:	48 8d 05 e7 e1 00 00 	lea    0xe1e7(%rip),%rax        # 161d4 <g_2003>
    7fed:	48 89 85 28 f5 ff ff 	mov    %rax,-0xad8(%rbp)
    7ff4:	48 8d 05 05 04 01 00 	lea    0x10405(%rip),%rax        # 18400 <g_2+0x10>
    7ffb:	48 89 85 30 f5 ff ff 	mov    %rax,-0xad0(%rbp)
    8002:	48 8d 05 cb e1 00 00 	lea    0xe1cb(%rip),%rax        # 161d4 <g_2003>
    8009:	48 89 85 38 f5 ff ff 	mov    %rax,-0xac8(%rbp)
    8010:	80 ad 7d f1 ff ff 01 	subb   $0x1,-0xe83(%rbp)
    8017:	48 8b 05 ea f2 00 00 	mov    0xf2ea(%rip),%rax        # 17308 <g_54>
    801e:	48 8b 00             	mov    (%rax),%rax
    8021:	8b 00                	mov    (%rax),%eax
    8023:	21 85 9c f1 ff ff    	and    %eax,-0xe64(%rbp)
    8029:	8b 95 9c f1 ff ff    	mov    -0xe64(%rbp),%edx
    802f:	0f b7 05 ba d0 00 00 	movzwl 0xd0ba(%rip),%eax        # 150f0 <g_168>
    8036:	c1 e0 03             	shl    $0x3,%eax
    8039:	66 c1 f8 03          	sar    $0x3,%ax
    803d:	89 c1                	mov    %eax,%ecx
    803f:	89 d0                	mov    %edx,%eax
    8041:	31 c8                	xor    %ecx,%eax
    8043:	c1 e0 03             	shl    $0x3,%eax
    8046:	66 c1 f8 03          	sar    $0x3,%ax
    804a:	66 25 ff 1f          	and    $0x1fff,%ax
    804e:	89 c2                	mov    %eax,%edx
    8050:	0f b7 05 99 d0 00 00 	movzwl 0xd099(%rip),%eax        # 150f0 <g_168>
    8057:	66 25 00 e0          	and    $0xe000,%ax
    805b:	09 d0                	or     %edx,%eax
    805d:	66 89 05 8c d0 00 00 	mov    %ax,0xd08c(%rip)        # 150f0 <g_168>
    8064:	48 8b 85 e8 f1 ff ff 	mov    -0xe18(%rbp),%rax
    806b:	48 89 85 d8 f2 ff ff 	mov    %rax,-0xd28(%rbp)
    8072:	8b 05 7c e1 00 00    	mov    0xe17c(%rip),%eax        # 161f4 <g_2069>
    8078:	83 c0 01             	add    $0x1,%eax
    807b:	89 05 73 e1 00 00    	mov    %eax,0xe173(%rip)        # 161f4 <g_2069>
    8081:	8b 05 6d e1 00 00    	mov    0xe16d(%rip),%eax        # 161f4 <g_2069>
    8087:	83 f8 02             	cmp    $0x2,%eax
    808a:	0f 86 84 fe ff ff    	jbe    7f14 <func_1+0x175f>
    8090:	48 8b 85 e8 f1 ff ff 	mov    -0xe18(%rbp),%rax
    8097:	8b 00                	mov    (%rax),%eax
    8099:	85 c0                	test   %eax,%eax
    809b:	0f 84 4c 03 00 00    	je     83ed <func_1+0x1c38>
    80a1:	e9 7a 03 00 00       	jmpq   8420 <func_1+0x1c6b>
    80a6:	66 c7 85 88 f1 ff ff 	movw   $0xf7c2,-0xe78(%rbp)
    80ad:	c2 f7 
    80af:	c7 85 bc f1 ff ff d0 	movl   $0x527091d0,-0xe44(%rbp)
    80b6:	91 70 52 
    80b9:	48 c7 85 18 f2 ff ff 	movq   $0xfffffffffffffffe,-0xde8(%rbp)
    80c0:	fe ff ff ff 
    80c4:	c7 05 56 cf 00 00 ef 	movl   $0xffffffef,0xcf56(%rip)        # 15024 <g_6>
    80cb:	ff ff ff 
    80ce:	e9 79 02 00 00       	jmpq   834c <func_1+0x1b97>
    80d3:	48 8d 05 d6 e0 00 00 	lea    0xe0d6(%rip),%rax        # 161b0 <g_1799>
    80da:	48 89 85 e0 f3 ff ff 	mov    %rax,-0xc20(%rbp)
    80e1:	48 8d 05 c8 e0 00 00 	lea    0xe0c8(%rip),%rax        # 161b0 <g_1799>
    80e8:	48 89 85 e8 f3 ff ff 	mov    %rax,-0xc18(%rbp)
    80ef:	48 8d 05 ba e0 00 00 	lea    0xe0ba(%rip),%rax        # 161b0 <g_1799>
    80f6:	48 89 85 f0 f3 ff ff 	mov    %rax,-0xc10(%rbp)
    80fd:	48 8d 05 ac e0 00 00 	lea    0xe0ac(%rip),%rax        # 161b0 <g_1799>
    8104:	48 89 85 f8 f3 ff ff 	mov    %rax,-0xc08(%rbp)
    810b:	48 8d 05 9e e0 00 00 	lea    0xe09e(%rip),%rax        # 161b0 <g_1799>
    8112:	48 89 85 00 f4 ff ff 	mov    %rax,-0xc00(%rbp)
    8119:	48 8d 05 90 e0 00 00 	lea    0xe090(%rip),%rax        # 161b0 <g_1799>
    8120:	48 89 85 08 f4 ff ff 	mov    %rax,-0xbf8(%rbp)
    8127:	48 8d 05 82 e0 00 00 	lea    0xe082(%rip),%rax        # 161b0 <g_1799>
    812e:	48 89 85 10 f4 ff ff 	mov    %rax,-0xbf0(%rbp)
    8135:	48 8d 05 74 e0 00 00 	lea    0xe074(%rip),%rax        # 161b0 <g_1799>
    813c:	48 89 85 18 f4 ff ff 	mov    %rax,-0xbe8(%rbp)
    8143:	48 8d 05 66 e0 00 00 	lea    0xe066(%rip),%rax        # 161b0 <g_1799>
    814a:	48 89 85 20 f4 ff ff 	mov    %rax,-0xbe0(%rbp)
    8151:	48 c7 85 30 f2 ff ff 	movq   $0x0,-0xdd0(%rbp)
    8158:	00 00 00 00 
    815c:	48 8d 85 e0 f3 ff ff 	lea    -0xc20(%rbp),%rax
    8163:	48 83 c0 10          	add    $0x10,%rax
    8167:	48 89 85 38 f2 ff ff 	mov    %rax,-0xdc8(%rbp)
    816e:	c7 85 90 f1 ff ff f8 	movl   $0xfffffff8,-0xe70(%rbp)
    8175:	ff ff ff 
    8178:	48 8d 05 b1 ce 00 00 	lea    0xceb1(%rip),%rax        # 15030 <g_78>
    817f:	48 89 85 40 f2 ff ff 	mov    %rax,-0xdc0(%rbp)
    8186:	48 8d 85 20 f3 ff ff 	lea    -0xce0(%rbp),%rax
    818d:	48 83 c0 10          	add    $0x10,%rax
    8191:	48 89 85 48 f2 ff ff 	mov    %rax,-0xdb8(%rbp)
    8198:	48 8d 05 11 cf 00 00 	lea    0xcf11(%rip),%rax        # 150b0 <g_83+0x70>
    819f:	48 89 85 50 f2 ff ff 	mov    %rax,-0xdb0(%rbp)
    81a6:	48 8d 05 83 ce 00 00 	lea    0xce83(%rip),%rax        # 15030 <g_78>
    81ad:	48 89 85 58 f2 ff ff 	mov    %rax,-0xda8(%rbp)
    81b4:	48 8d 85 8c f1 ff ff 	lea    -0xe74(%rbp),%rax
    81bb:	48 89 85 60 f2 ff ff 	mov    %rax,-0xda0(%rbp)
    81c2:	48 8d 05 67 ce 00 00 	lea    0xce67(%rip),%rax        # 15030 <g_78>
    81c9:	48 89 85 68 f2 ff ff 	mov    %rax,-0xd98(%rbp)
    81d0:	48 8d 05 7d ce 00 00 	lea    0xce7d(%rip),%rax        # 15054 <g_83+0x14>
    81d7:	48 89 85 70 f2 ff ff 	mov    %rax,-0xd90(%rbp)
    81de:	48 8d 85 90 f1 ff ff 	lea    -0xe70(%rbp),%rax
    81e5:	48 89 85 78 f2 ff ff 	mov    %rax,-0xd88(%rbp)
    81ec:	48 8d 05 79 ce 00 00 	lea    0xce79(%rip),%rax        # 1506c <g_83+0x2c>
    81f3:	48 89 85 80 f2 ff ff 	mov    %rax,-0xd80(%rbp)
    81fa:	48 c7 85 88 f2 ff ff 	movq   $0x0,-0xd78(%rbp)
    8201:	00 00 00 00 
    8205:	48 c7 85 90 f2 ff ff 	movq   $0x0,-0xd70(%rbp)
    820c:	00 00 00 00 
    8210:	48 8d 05 19 ce 00 00 	lea    0xce19(%rip),%rax        # 15030 <g_78>
    8217:	48 89 85 98 f2 ff ff 	mov    %rax,-0xd68(%rbp)
    821e:	48 c7 85 a0 f2 ff ff 	movq   $0x0,-0xd60(%rbp)
    8225:	00 00 00 00 
    8229:	48 8d 85 90 f1 ff ff 	lea    -0xe70(%rbp),%rax
    8230:	48 89 85 a8 f2 ff ff 	mov    %rax,-0xd58(%rbp)
    8237:	48 8d 05 6a ce 00 00 	lea    0xce6a(%rip),%rax        # 150a8 <g_83+0x68>
    823e:	48 89 85 b0 f2 ff ff 	mov    %rax,-0xd50(%rbp)
    8245:	48 8d 85 90 f3 ff ff 	lea    -0xc70(%rbp),%rax
    824c:	48 83 c0 10          	add    $0x10,%rax
    8250:	48 89 85 b8 f2 ff ff 	mov    %rax,-0xd48(%rbp)
    8257:	48 8d 05 ca cd 00 00 	lea    0xcdca(%rip),%rax        # 15028 <g_58>
    825e:	48 89 85 c0 f2 ff ff 	mov    %rax,-0xd40(%rbp)
    8265:	48 8d 85 90 f3 ff ff 	lea    -0xc70(%rbp),%rax
    826c:	48 89 85 c8 f2 ff ff 	mov    %rax,-0xd38(%rbp)
    8273:	48 8d 05 ae cd 00 00 	lea    0xcdae(%rip),%rax        # 15028 <g_58>
    827a:	48 89 85 d0 f2 ff ff 	mov    %rax,-0xd30(%rbp)
    8281:	48 8d 85 90 f3 ff ff 	lea    -0xc70(%rbp),%rax
    8288:	48 89 85 b0 f4 ff ff 	mov    %rax,-0xb50(%rbp)
    828f:	48 8d 85 90 f3 ff ff 	lea    -0xc70(%rbp),%rax
    8296:	48 89 85 b8 f4 ff ff 	mov    %rax,-0xb48(%rbp)
    829d:	48 8d 85 90 f3 ff ff 	lea    -0xc70(%rbp),%rax
    82a4:	48 89 85 c0 f4 ff ff 	mov    %rax,-0xb40(%rbp)
    82ab:	48 8d 85 90 f3 ff ff 	lea    -0xc70(%rbp),%rax
    82b2:	48 89 85 c8 f4 ff ff 	mov    %rax,-0xb38(%rbp)
    82b9:	48 8d 85 90 f3 ff ff 	lea    -0xc70(%rbp),%rax
    82c0:	48 89 85 d0 f4 ff ff 	mov    %rax,-0xb30(%rbp)
    82c7:	48 8d 85 90 f3 ff ff 	lea    -0xc70(%rbp),%rax
    82ce:	48 89 85 d8 f4 ff ff 	mov    %rax,-0xb28(%rbp)
    82d5:	48 8d 85 90 f3 ff ff 	lea    -0xc70(%rbp),%rax
    82dc:	48 89 85 e0 f4 ff ff 	mov    %rax,-0xb20(%rbp)
    82e3:	48 8d 85 90 f3 ff ff 	lea    -0xc70(%rbp),%rax
    82ea:	48 89 85 e8 f4 ff ff 	mov    %rax,-0xb18(%rbp)
    82f1:	48 8d 85 90 f3 ff ff 	lea    -0xc70(%rbp),%rax
    82f8:	48 89 85 f0 f4 ff ff 	mov    %rax,-0xb10(%rbp)
    82ff:	48 8b 95 20 f4 ff ff 	mov    -0xbe0(%rbp),%rdx
    8306:	48 8b 85 38 f2 ff ff 	mov    -0xdc8(%rbp),%rax
    830d:	48 89 10             	mov    %rdx,(%rax)
    8310:	48 8b 85 38 f2 ff ff 	mov    -0xdc8(%rbp),%rax
    8317:	48 8b 00             	mov    (%rax),%rax
    831a:	48 89 05 ff ef 00 00 	mov    %rax,0xefff(%rip)        # 17320 <g_167>
    8321:	48 83 ad d0 f1 ff ff 	subq   $0x1,-0xe30(%rbp)
    8328:	01 
    8329:	48 8b 15 e0 ef 00 00 	mov    0xefe0(%rip),%rdx        # 17310 <g_92>
    8330:	48 8b 05 d9 ef 00 00 	mov    0xefd9(%rip),%rax        # 17310 <g_92>
    8337:	48 8b 12             	mov    (%rdx),%rdx
    833a:	48 89 10             	mov    %rdx,(%rax)
    833d:	8b 05 e1 cc 00 00    	mov    0xcce1(%rip),%eax        # 15024 <g_6>
    8343:	83 e8 01             	sub    $0x1,%eax
    8346:	89 05 d8 cc 00 00    	mov    %eax,0xccd8(%rip)        # 15024 <g_6>
    834c:	8b 05 d2 cc 00 00    	mov    0xccd2(%rip),%eax        # 15024 <g_6>
    8352:	83 f8 ea             	cmp    $0xffffffea,%eax
    8355:	0f 8d 78 fd ff ff    	jge    80d3 <func_1+0x191e>
    835b:	48 8d 85 c8 f1 ff ff 	lea    -0xe38(%rbp),%rax
    8362:	48 89 85 20 f2 ff ff 	mov    %rax,-0xde0(%rbp)
    8369:	c6 85 82 f1 ff ff 02 	movb   $0x2,-0xe7e(%rbp)
    8370:	48 8d 05 ad cc 00 00 	lea    0xccad(%rip),%rax        # 15024 <g_6>
    8377:	48 89 85 28 f2 ff ff 	mov    %rax,-0xdd8(%rbp)
    837e:	0f b6 85 82 f1 ff ff 	movzbl -0xe7e(%rbp),%eax
    8385:	0f b6 d0             	movzbl %al,%edx
    8388:	48 8b 8d c8 f1 ff ff 	mov    -0xe38(%rbp),%rcx
    838f:	48 8b 85 20 f2 ff ff 	mov    -0xde0(%rbp),%rax
    8396:	48 89 08             	mov    %rcx,(%rax)
    8399:	48 8b 85 20 f2 ff ff 	mov    -0xde0(%rbp),%rax
    83a0:	48 8b 00             	mov    (%rax),%rax
    83a3:	48 85 c0             	test   %rax,%rax
    83a6:	0f 95 c0             	setne  %al
    83a9:	89 c1                	mov    %eax,%ecx
    83ab:	48 8b 85 f0 f1 ff ff 	mov    -0xe10(%rbp),%rax
    83b2:	88 08                	mov    %cl,(%rax)
    83b4:	48 8b 85 f0 f1 ff ff 	mov    -0xe10(%rbp),%rax
    83bb:	0f b6 00             	movzbl (%rax),%eax
    83be:	0f b6 c0             	movzbl %al,%eax
    83c1:	89 d6                	mov    %edx,%esi
    83c3:	89 c7                	mov    %eax,%edi
    83c5:	e8 11 d8 ff ff       	callq  5bdb <safe_div_func_uint8_t_u_u>
    83ca:	0f b6 d0             	movzbl %al,%edx
    83cd:	0f be 85 82 f1 ff ff 	movsbl -0xe7e(%rbp),%eax
    83d4:	39 c2                	cmp    %eax,%edx
    83d6:	0f 9d c0             	setge  %al
    83d9:	0f b6 d0             	movzbl %al,%edx
    83dc:	48 8b 85 28 f2 ff ff 	mov    -0xdd8(%rbp),%rax
    83e3:	89 10                	mov    %edx,(%rax)
    83e5:	48 83 ad 18 f2 ff ff 	subq   $0x1,-0xde8(%rbp)
    83ec:	01 
    83ed:	48 8b 85 68 f8 ff ff 	mov    -0x798(%rbp),%rax
    83f4:	48 89 85 50 f4 ff ff 	mov    %rax,-0xbb0(%rbp)
    83fb:	48 8b 05 d6 f5 00 00 	mov    0xf5d6(%rip),%rax        # 179d8 <g_2074>
    8402:	8b 00                	mov    (%rax),%eax
    8404:	83 f8 01             	cmp    $0x1,%eax
    8407:	0f 9f c2             	setg   %dl
    840a:	48 8b 05 8f fb 00 00 	mov    0xfb8f(%rip),%rax        # 17fa0 <g_2146>
    8411:	0f b6 d2             	movzbl %dl,%edx
    8414:	89 10                	mov    %edx,(%rax)
    8416:	66 83 bd 84 f1 ff ff 	cmpw   $0x0,-0xe7c(%rbp)
    841d:	00 
    841e:	75 2d                	jne    844d <func_1+0x1c98>
    8420:	0f b6 05 b1 dd 00 00 	movzbl 0xddb1(%rip),%eax        # 161d8 <g_2016>
    8427:	0f b6 c0             	movzbl %al,%eax
    842a:	be 06 00 00 00       	mov    $0x6,%esi
    842f:	89 c7                	mov    %eax,%edi
    8431:	e8 24 d7 ff ff       	callq  5b5a <safe_add_func_uint8_t_u_u>
    8436:	88 05 9c dd 00 00    	mov    %al,0xdd9c(%rip)        # 161d8 <g_2016>
    843c:	0f b6 05 95 dd 00 00 	movzbl 0xdd95(%rip),%eax        # 161d8 <g_2016>
    8443:	3c 23                	cmp    $0x23,%al
    8445:	0f 86 4a f8 ff ff    	jbe    7c95 <func_1+0x14e0>
    844b:	eb 01                	jmp    844e <func_1+0x1c99>
    844d:	90                   	nop
    844e:	48 8b 85 e0 f1 ff ff 	mov    -0xe20(%rbp),%rax
    8455:	8b 00                	mov    (%rax),%eax
    8457:	eb 5e                	jmp    84b7 <func_1+0x1d02>
    8459:	48 c7 05 44 fb 00 00 	movq   $0x0,0xfb44(%rip)        # 17fa8 <g_2148>
    8460:	00 00 00 00 
    8464:	c6 05 33 da 00 00 08 	movb   $0x8,0xda33(%rip)        # 15e9e <g_838>
    846b:	90                   	nop
    846c:	0f b6 05 2b da 00 00 	movzbl 0xda2b(%rip),%eax        # 15e9e <g_838>
    8473:	3c 38                	cmp    $0x38,%al
    8475:	77 37                	ja     84ae <func_1+0x1cf9>
    8477:	c7 85 94 f1 ff ff 00 	movl   $0x0,-0xe6c(%rbp)
    847e:	00 00 00 
    8481:	eb 1a                	jmp    849d <func_1+0x1ce8>
    8483:	8b 85 94 f1 ff ff    	mov    -0xe6c(%rbp),%eax
    8489:	48 98                	cltq   
    848b:	c7 84 85 30 f9 ff ff 	movl   $0xeec14005,-0x6d0(%rbp,%rax,4)
    8492:	05 40 c1 ee 
    8496:	83 85 94 f1 ff ff 01 	addl   $0x1,-0xe6c(%rbp)
    849d:	83 bd 94 f1 ff ff 05 	cmpl   $0x5,-0xe6c(%rbp)
    84a4:	7e dd                	jle    8483 <func_1+0x1cce>
    84a6:	8b 85 3c f9 ff ff    	mov    -0x6c4(%rbp),%eax
    84ac:	eb 09                	jmp    84b7 <func_1+0x1d02>
    84ae:	48 8b 85 d8 f1 ff ff 	mov    -0xe28(%rbp),%rax
    84b5:	8b 00                	mov    (%rax),%eax
    84b7:	48 8b 5d c8          	mov    -0x38(%rbp),%rbx
    84bb:	64 48 33 1c 25 28 00 	xor    %fs:0x28,%rbx
    84c2:	00 00 
    84c4:	74 05                	je     84cb <func_1+0x1d16>
    84c6:	e8 a5 cb ff ff       	callq  5070 <__stack_chk_fail@plt>
    84cb:	48 81 c4 78 0e 00 00 	add    $0xe78,%rsp
    84d2:	5b                   	pop    %rbx
    84d3:	41 5c                	pop    %r12
    84d5:	41 5d                	pop    %r13
    84d7:	41 5e                	pop    %r14
    84d9:	41 5f                	pop    %r15
    84db:	5d                   	pop    %rbp
    84dc:	c3                   	retq   

00000000000084dd <func_10>:
    84dd:	f3 0f 1e fa          	endbr64 
    84e1:	55                   	push   %rbp
    84e2:	48 89 e5             	mov    %rsp,%rbp
    84e5:	53                   	push   %rbx
    84e6:	48 83 ec 28          	sub    $0x28,%rsp
    84ea:	89 7d d4             	mov    %edi,-0x2c(%rbp)
    84ed:	89 75 d0             	mov    %esi,-0x30(%rbp)
    84f0:	48 c7 45 e0 ff ff ff 	movq   $0xffffffffffffffff,-0x20(%rbp)
    84f7:	ff 
    84f8:	48 8d 05 31 ff 00 00 	lea    0xff31(%rip),%rax        # 18430 <g_1050>
    84ff:	48 89 45 e8          	mov    %rax,-0x18(%rbp)
    8503:	48 8d 05 96 d8 00 00 	lea    0xd896(%rip),%rax        # 15da0 <g_607>
    850a:	48 89 45 f0          	mov    %rax,-0x10(%rbp)
    850e:	c7 45 d8 01 00 00 00 	movl   $0x1,-0x28(%rbp)
    8515:	c7 45 dc 00 00 00 00 	movl   $0x0,-0x24(%rbp)
    851c:	48 8b 05 95 f4 00 00 	mov    0xf495(%rip),%rax        # 179b8 <g_1762>
    8523:	48 8b 10             	mov    (%rax),%rdx
    8526:	48 83 c2 01          	add    $0x1,%rdx
    852a:	48 89 10             	mov    %rdx,(%rax)
    852d:	48 8b 00             	mov    (%rax),%rax
    8530:	89 c3                	mov    %eax,%ebx
    8532:	48 8b 45 e0          	mov    -0x20(%rbp),%rax
    8536:	89 c7                	mov    %eax,%edi
    8538:	e8 69 d9 ff ff       	callq  5ea6 <safe_unary_minus_func_uint32_t_u>
    853d:	09 d8                	or     %ebx,%eax
    853f:	0f b7 c0             	movzwl %ax,%eax
    8542:	8b 55 d4             	mov    -0x2c(%rbp),%edx
    8545:	89 d6                	mov    %edx,%esi
    8547:	89 c7                	mov    %eax,%edi
    8549:	e8 fa d8 ff ff       	callq  5e48 <safe_rshift_func_uint16_t_u_s>
    854e:	0f b7 c0             	movzwl %ax,%eax
    8551:	be 2d a5 00 00       	mov    $0xa52d,%esi
    8556:	89 c7                	mov    %eax,%edi
    8558:	e8 e0 d7 ff ff       	callq  5d3d <safe_mul_func_uint16_t_u_u>
    855d:	83 7d d0 01          	cmpl   $0x1,-0x30(%rbp)
    8561:	0f 94 c0             	sete   %al
    8564:	0f b6 c0             	movzbl %al,%eax
    8567:	be 0c 00 00 00       	mov    $0xc,%esi
    856c:	89 c7                	mov    %eax,%edi
    856e:	e8 4b d8 ff ff       	callq  5dbe <safe_lshift_func_uint16_t_u_s>
    8573:	48 83 7d e8 00       	cmpq   $0x0,-0x18(%rbp)
    8578:	0f 94 c0             	sete   %al
    857b:	89 c2                	mov    %eax,%edx
    857d:	48 8b 45 f0          	mov    -0x10(%rbp),%rax
    8581:	88 10                	mov    %dl,(%rax)
    8583:	8b 45 d0             	mov    -0x30(%rbp),%eax
    8586:	0f b6 c0             	movzbl %al,%eax
    8589:	be ff 00 00 00       	mov    $0xff,%esi
    858e:	89 c7                	mov    %eax,%edi
    8590:	e8 c5 d5 ff ff       	callq  5b5a <safe_add_func_uint8_t_u_u>
    8595:	84 c0                	test   %al,%al
    8597:	75 07                	jne    85a0 <func_10+0xc3>
    8599:	48 83 7d e0 00       	cmpq   $0x0,-0x20(%rbp)
    859e:	74 07                	je     85a7 <func_10+0xca>
    85a0:	b8 01 00 00 00       	mov    $0x1,%eax
    85a5:	eb 05                	jmp    85ac <func_10+0xcf>
    85a7:	b8 00 00 00 00       	mov    $0x0,%eax
    85ac:	98                   	cwtl   
    85ad:	be 87 40 00 00       	mov    $0x4087,%esi
    85b2:	89 c7                	mov    %eax,%edi
    85b4:	e8 1a ce ff ff       	callq  53d3 <safe_sub_func_int16_t_s_s>
    85b9:	98                   	cwtl   
    85ba:	89 45 d8             	mov    %eax,-0x28(%rbp)
    85bd:	8b 45 d8             	mov    -0x28(%rbp),%eax
    85c0:	48 98                	cltq   
    85c2:	48 39 45 e0          	cmp    %rax,-0x20(%rbp)
    85c6:	0f 93 c0             	setae  %al
    85c9:	0f b6 c0             	movzbl %al,%eax
    85cc:	48 c7 c6 fd ff ff ff 	mov    $0xfffffffffffffffd,%rsi
    85d3:	48 89 c7             	mov    %rax,%rdi
    85d6:	e8 70 da ff ff       	callq  604b <safe_sub_func_uint64_t_u_u>
    85db:	48 8b 45 e0          	mov    -0x20(%rbp),%rax
    85df:	89 c7                	mov    %eax,%edi
    85e1:	e8 b0 cf ff ff       	callq  5596 <safe_unary_minus_func_int32_t_s>
    85e6:	85 c0                	test   %eax,%eax
    85e8:	0f 94 c0             	sete   %al
    85eb:	0f b6 c0             	movzbl %al,%eax
    85ee:	33 45 d4             	xor    -0x2c(%rbp),%eax
    85f1:	83 f8 01             	cmp    $0x1,%eax
    85f4:	0f 9e c0             	setle  %al
    85f7:	0f b6 c0             	movzbl %al,%eax
    85fa:	48 be 28 e2 40 ef 22 	movabs $0xcb2e6c22ef40e228,%rsi
    8601:	6c 2e cb 
    8604:	48 89 c7             	mov    %rax,%rdi
    8607:	e8 3f da ff ff       	callq  604b <safe_sub_func_uint64_t_u_u>
    860c:	89 c2                	mov    %eax,%edx
    860e:	8b 45 dc             	mov    -0x24(%rbp),%eax
    8611:	31 d0                	xor    %edx,%eax
    8613:	89 45 dc             	mov    %eax,-0x24(%rbp)
    8616:	48 8b 45 e0          	mov    -0x20(%rbp),%rax
    861a:	48 83 c4 28          	add    $0x28,%rsp
    861e:	5b                   	pop    %rbx
    861f:	5d                   	pop    %rbp
    8620:	c3                   	retq   

0000000000008621 <func_15>:
    8621:	f3 0f 1e fa          	endbr64 
    8625:	55                   	push   %rbp
    8626:	48 89 e5             	mov    %rsp,%rbp
    8629:	41 56                	push   %r14
    862b:	41 55                	push   %r13
    862d:	41 54                	push   %r12
    862f:	53                   	push   %rbx
    8630:	48 81 ec e0 02 00 00 	sub    $0x2e0,%rsp
    8637:	89 bd 0c fd ff ff    	mov    %edi,-0x2f4(%rbp)
    863d:	89 f0                	mov    %esi,%eax
    863f:	48 89 95 00 fd ff ff 	mov    %rdx,-0x300(%rbp)
    8646:	66 89 85 08 fd ff ff 	mov    %ax,-0x2f8(%rbp)
    864d:	64 48 8b 04 25 28 00 	mov    %fs:0x28,%rax
    8654:	00 00 
    8656:	48 89 45 d8          	mov    %rax,-0x28(%rbp)
    865a:	31 c0                	xor    %eax,%eax
    865c:	c7 85 24 fd ff ff 00 	movl   $0x0,-0x2dc(%rbp)
    8663:	00 00 00 
    8666:	c6 85 14 fd ff ff ff 	movb   $0xff,-0x2ec(%rbp)
    866d:	c7 85 28 fd ff ff f8 	movl   $0xa85ffff8,-0x2d8(%rbp)
    8674:	ff 5f a8 
    8677:	c7 85 2c fd ff ff 7d 	movl   $0xee01e57d,-0x2d4(%rbp)
    867e:	e5 01 ee 
    8681:	c7 85 30 fd ff ff f9 	movl   $0xfffffff9,-0x2d0(%rbp)
    8688:	ff ff ff 
    868b:	48 8d 05 6e ec 00 00 	lea    0xec6e(%rip),%rax        # 17300 <g_55>
    8692:	48 89 85 70 fd ff ff 	mov    %rax,-0x290(%rbp)
    8699:	48 8d 05 b8 ec 00 00 	lea    0xecb8(%rip),%rax        # 17358 <g_520+0x18>
    86a0:	48 89 85 78 fd ff ff 	mov    %rax,-0x288(%rbp)
    86a7:	c7 85 34 fd ff ff d9 	movl   $0x8fa05cd9,-0x2cc(%rbp)
    86ae:	5c a0 8f 
    86b1:	c7 85 50 fe ff ff ed 	movl   $0x254c40ed,-0x1b0(%rbp)
    86b8:	40 4c 25 
    86bb:	c7 85 54 fe ff ff ed 	movl   $0x254c40ed,-0x1ac(%rbp)
    86c2:	40 4c 25 
    86c5:	c7 85 58 fe ff ff ed 	movl   $0x254c40ed,-0x1a8(%rbp)
    86cc:	40 4c 25 
    86cf:	c7 85 5c fe ff ff ed 	movl   $0x254c40ed,-0x1a4(%rbp)
    86d6:	40 4c 25 
    86d9:	c7 85 60 fe ff ff ed 	movl   $0x254c40ed,-0x1a0(%rbp)
    86e0:	40 4c 25 
    86e3:	c7 85 64 fe ff ff ed 	movl   $0x254c40ed,-0x19c(%rbp)
    86ea:	40 4c 25 
    86ed:	c7 85 68 fe ff ff ed 	movl   $0x254c40ed,-0x198(%rbp)
    86f4:	40 4c 25 
    86f7:	c7 85 6c fe ff ff ed 	movl   $0x254c40ed,-0x194(%rbp)
    86fe:	40 4c 25 
    8701:	c7 85 70 fe ff ff ed 	movl   $0x254c40ed,-0x190(%rbp)
    8708:	40 4c 25 
    870b:	c7 85 74 fe ff ff ed 	movl   $0x254c40ed,-0x18c(%rbp)
    8712:	40 4c 25 
    8715:	66 c7 85 1a fd ff ff 	movw   $0x1ef0,-0x2e6(%rbp)
    871c:	f0 1e 
    871e:	c6 85 15 fd ff ff ff 	movb   $0xff,-0x2eb(%rbp)
    8725:	48 8d 05 9c f2 00 00 	lea    0xf29c(%rip),%rax        # 179c8 <g_1899>
    872c:	48 89 85 80 fd ff ff 	mov    %rax,-0x280(%rbp)
    8733:	66 c7 85 18 fd ff ff 	movw   $0x7,-0x2e8(%rbp)
    873a:	07 00 
    873c:	66 c7 85 1c fd ff ff 	movw   $0xffff,-0x2e4(%rbp)
    8743:	ff ff 
    8745:	c7 85 0c fd ff ff 00 	movl   $0x0,-0x2f4(%rbp)
    874c:	00 00 00 
    874f:	e9 ba 06 00 00       	jmpq   8e0e <func_15+0x7ed>
    8754:	c6 85 16 fd ff ff fd 	movb   $0xfd,-0x2ea(%rbp)
    875b:	48 b8 b5 a2 8e f2 e3 	movabs $0x73cafce3f28ea2b5,%rax
    8762:	fc ca 73 
    8765:	48 89 85 88 fd ff ff 	mov    %rax,-0x278(%rbp)
    876c:	c7 85 e0 fe ff ff 8d 	movl   $0xa3b3358d,-0x120(%rbp)
    8773:	35 b3 a3 
    8776:	c7 85 e4 fe ff ff 01 	movl   $0x1,-0x11c(%rbp)
    877d:	00 00 00 
    8780:	c7 85 e8 fe ff ff b2 	movl   $0x4dd38eb2,-0x118(%rbp)
    8787:	8e d3 4d 
    878a:	c7 85 ec fe ff ff 8d 	movl   $0xa3b3358d,-0x114(%rbp)
    8791:	35 b3 a3 
    8794:	c7 85 f0 fe ff ff f0 	movl   $0xe39ff1f0,-0x110(%rbp)
    879b:	f1 9f e3 
    879e:	c7 85 f4 fe ff ff 8d 	movl   $0xa3b3358d,-0x10c(%rbp)
    87a5:	35 b3 a3 
    87a8:	c7 85 f8 fe ff ff 8d 	movl   $0xa3b3358d,-0x108(%rbp)
    87af:	35 b3 a3 
    87b2:	c7 85 fc fe ff ff f0 	movl   $0xe39ff1f0,-0x104(%rbp)
    87b9:	f1 9f e3 
    87bc:	c7 85 00 ff ff ff 8d 	movl   $0xa3b3358d,-0x100(%rbp)
    87c3:	35 b3 a3 
    87c6:	c7 85 04 ff ff ff b2 	movl   $0x4dd38eb2,-0xfc(%rbp)
    87cd:	8e d3 4d 
    87d0:	c7 85 08 ff ff ff 01 	movl   $0x1,-0xf8(%rbp)
    87d7:	00 00 00 
    87da:	c7 85 0c ff ff ff 8d 	movl   $0xa3b3358d,-0xf4(%rbp)
    87e1:	35 b3 a3 
    87e4:	c7 85 10 ff ff ff dc 	movl   $0xed48b1dc,-0xf0(%rbp)
    87eb:	b1 48 ed 
    87ee:	c7 85 14 ff ff ff f7 	movl   $0xfffffff7,-0xec(%rbp)
    87f5:	ff ff ff 
    87f8:	c7 85 18 ff ff ff b2 	movl   $0x4dd38eb2,-0xe8(%rbp)
    87ff:	8e d3 4d 
    8802:	c7 85 1c ff ff ff 8e 	movl   $0xda1a3e8e,-0xe4(%rbp)
    8809:	3e 1a da 
    880c:	c7 85 20 ff ff ff 01 	movl   $0x1,-0xe0(%rbp)
    8813:	00 00 00 
    8816:	c7 85 24 ff ff ff dc 	movl   $0xed48b1dc,-0xdc(%rbp)
    881d:	b1 48 ed 
    8820:	c7 85 28 ff ff ff b2 	movl   $0x4dd38eb2,-0xd8(%rbp)
    8827:	8e d3 4d 
    882a:	c7 85 2c ff ff ff f0 	movl   $0xe39ff1f0,-0xd4(%rbp)
    8831:	f1 9f e3 
    8834:	c7 85 30 ff ff ff 8e 	movl   $0xda1a3e8e,-0xd0(%rbp)
    883b:	3e 1a da 
    883e:	c7 85 34 ff ff ff 8e 	movl   $0xda1a3e8e,-0xcc(%rbp)
    8845:	3e 1a da 
    8848:	c7 85 38 ff ff ff f0 	movl   $0xe39ff1f0,-0xc8(%rbp)
    884f:	f1 9f e3 
    8852:	c7 85 3c ff ff ff b2 	movl   $0x4dd38eb2,-0xc4(%rbp)
    8859:	8e d3 4d 
    885c:	c7 85 40 ff ff ff dc 	movl   $0xed48b1dc,-0xc0(%rbp)
    8863:	b1 48 ed 
    8866:	c7 85 44 ff ff ff 01 	movl   $0x1,-0xbc(%rbp)
    886d:	00 00 00 
    8870:	c7 85 48 ff ff ff 8e 	movl   $0xda1a3e8e,-0xb8(%rbp)
    8877:	3e 1a da 
    887a:	c7 85 4c ff ff ff b2 	movl   $0x4dd38eb2,-0xb4(%rbp)
    8881:	8e d3 4d 
    8884:	c7 85 50 ff ff ff f7 	movl   $0xfffffff7,-0xb0(%rbp)
    888b:	ff ff ff 
    888e:	c7 85 54 ff ff ff dc 	movl   $0xed48b1dc,-0xac(%rbp)
    8895:	b1 48 ed 
    8898:	c7 85 58 ff ff ff 8d 	movl   $0xa3b3358d,-0xa8(%rbp)
    889f:	35 b3 a3 
    88a2:	c7 85 5c ff ff ff 01 	movl   $0x1,-0xa4(%rbp)
    88a9:	00 00 00 
    88ac:	c7 85 60 ff ff ff b2 	movl   $0x4dd38eb2,-0xa0(%rbp)
    88b3:	8e d3 4d 
    88b6:	c7 85 64 ff ff ff 8d 	movl   $0xa3b3358d,-0x9c(%rbp)
    88bd:	35 b3 a3 
    88c0:	c7 85 68 ff ff ff f0 	movl   $0xe39ff1f0,-0x98(%rbp)
    88c7:	f1 9f e3 
    88ca:	c7 85 6c ff ff ff 8d 	movl   $0xa3b3358d,-0x94(%rbp)
    88d1:	35 b3 a3 
    88d4:	c7 85 70 ff ff ff 8d 	movl   $0xa3b3358d,-0x90(%rbp)
    88db:	35 b3 a3 
    88de:	c7 85 74 ff ff ff f0 	movl   $0xe39ff1f0,-0x8c(%rbp)
    88e5:	f1 9f e3 
    88e8:	c7 85 78 ff ff ff 8d 	movl   $0xa3b3358d,-0x88(%rbp)
    88ef:	35 b3 a3 
    88f2:	c7 85 7c ff ff ff b2 	movl   $0x4dd38eb2,-0x84(%rbp)
    88f9:	8e d3 4d 
    88fc:	c7 45 80 01 00 00 00 	movl   $0x1,-0x80(%rbp)
    8903:	c7 45 84 8d 35 b3 a3 	movl   $0xa3b3358d,-0x7c(%rbp)
    890a:	c7 45 88 dc b1 48 ed 	movl   $0xed48b1dc,-0x78(%rbp)
    8911:	c7 45 8c f7 ff ff ff 	movl   $0xfffffff7,-0x74(%rbp)
    8918:	c7 45 90 b2 8e d3 4d 	movl   $0x4dd38eb2,-0x70(%rbp)
    891f:	c7 45 94 8e 3e 1a da 	movl   $0xda1a3e8e,-0x6c(%rbp)
    8926:	c7 45 98 01 00 00 00 	movl   $0x1,-0x68(%rbp)
    892d:	c7 45 9c dc b1 48 ed 	movl   $0xed48b1dc,-0x64(%rbp)
    8934:	c7 45 a0 b2 8e d3 4d 	movl   $0x4dd38eb2,-0x60(%rbp)
    893b:	c7 45 a4 f0 f1 9f e3 	movl   $0xe39ff1f0,-0x5c(%rbp)
    8942:	c7 45 a8 8e 3e 1a da 	movl   $0xda1a3e8e,-0x58(%rbp)
    8949:	c7 45 ac 8e 3e 1a da 	movl   $0xda1a3e8e,-0x54(%rbp)
    8950:	c7 45 b0 f0 f1 9f e3 	movl   $0xe39ff1f0,-0x50(%rbp)
    8957:	c7 45 b4 b2 8e d3 4d 	movl   $0x4dd38eb2,-0x4c(%rbp)
    895e:	c7 45 b8 dc b1 48 ed 	movl   $0xed48b1dc,-0x48(%rbp)
    8965:	c7 45 bc 01 00 00 00 	movl   $0x1,-0x44(%rbp)
    896c:	c7 45 c0 8e 3e 1a da 	movl   $0xda1a3e8e,-0x40(%rbp)
    8973:	c7 45 c4 b2 8e d3 4d 	movl   $0x4dd38eb2,-0x3c(%rbp)
    897a:	c7 45 c8 f7 ff ff ff 	movl   $0xfffffff7,-0x38(%rbp)
    8981:	c7 45 cc dc b1 48 ed 	movl   $0xed48b1dc,-0x34(%rbp)
    8988:	48 8d 05 49 c7 00 00 	lea    0xc749(%rip),%rax        # 150d8 <g_123>
    898f:	48 89 85 90 fd ff ff 	mov    %rax,-0x270(%rbp)
    8996:	48 8d 85 e0 fe ff ff 	lea    -0x120(%rbp),%rax
    899d:	48 83 c0 7c          	add    $0x7c,%rax
    89a1:	48 89 85 98 fd ff ff 	mov    %rax,-0x268(%rbp)
    89a8:	c6 85 17 fd ff ff fa 	movb   $0xfa,-0x2e9(%rbp)
    89af:	c7 85 38 fd ff ff fb 	movl   $0xfffffffb,-0x2c8(%rbp)
    89b6:	ff ff ff 
    89b9:	48 c7 85 a0 fd ff ff 	movq   $0x0,-0x260(%rbp)
    89c0:	00 00 00 00 
    89c4:	66 c7 85 1e fd ff ff 	movw   $0x98ed,-0x2e2(%rbp)
    89cb:	ed 98 
    89cd:	c7 85 3c fd ff ff b2 	movl   $0x2e76abb2,-0x2c4(%rbp)
    89d4:	ab 76 2e 
    89d7:	48 8d 85 e0 fe ff ff 	lea    -0x120(%rbp),%rax
    89de:	48 83 c0 30          	add    $0x30,%rax
    89e2:	48 89 85 a8 fd ff ff 	mov    %rax,-0x258(%rbp)
    89e9:	48 c7 85 b0 fd ff ff 	movq   $0x0,-0x250(%rbp)
    89f0:	00 00 00 00 
    89f4:	c7 85 20 fd ff ff 00 	movl   $0x0,-0x2e0(%rbp)
    89fb:	00 00 00 
    89fe:	eb 1e                	jmp    8a1e <func_15+0x3fd>
    8a00:	8b 85 20 fd ff ff    	mov    -0x2e0(%rbp),%eax
    8a06:	48 98                	cltq   
    8a08:	48 8d 15 01 fa 00 00 	lea    0xfa01(%rip),%rdx        # 18410 <g_445>
    8a0f:	48 89 94 c5 b0 fe ff 	mov    %rdx,-0x150(%rbp,%rax,8)
    8a16:	ff 
    8a17:	83 85 20 fd ff ff 01 	addl   $0x1,-0x2e0(%rbp)
    8a1e:	83 bd 20 fd ff ff 05 	cmpl   $0x5,-0x2e0(%rbp)
    8a25:	7e d9                	jle    8a00 <func_15+0x3df>
    8a27:	c7 85 20 fd ff ff 00 	movl   $0x0,-0x2e0(%rbp)
    8a2e:	00 00 00 
    8a31:	eb 1e                	jmp    8a51 <func_15+0x430>
    8a33:	8b 85 20 fd ff ff    	mov    -0x2e0(%rbp),%eax
    8a39:	48 98                	cltq   
    8a3b:	48 8d 15 56 d3 00 00 	lea    0xd356(%rip),%rdx        # 15d98 <g_562>
    8a42:	48 89 94 c5 10 fe ff 	mov    %rdx,-0x1f0(%rbp,%rax,8)
    8a49:	ff 
    8a4a:	83 85 20 fd ff ff 01 	addl   $0x1,-0x2e0(%rbp)
    8a51:	83 bd 20 fd ff ff 02 	cmpl   $0x2,-0x2e0(%rbp)
    8a58:	7e d9                	jle    8a33 <func_15+0x412>
    8a5a:	c7 85 20 fd ff ff 00 	movl   $0x0,-0x2e0(%rbp)
    8a61:	00 00 00 
    8a64:	eb 1e                	jmp    8a84 <func_15+0x463>
    8a66:	8b 85 20 fd ff ff    	mov    -0x2e0(%rbp),%eax
    8a6c:	48 98                	cltq   
    8a6e:	48 8d 15 b3 c5 00 00 	lea    0xc5b3(%rip),%rdx        # 15028 <g_58>
    8a75:	48 89 94 c5 f0 fd ff 	mov    %rdx,-0x210(%rbp,%rax,8)
    8a7c:	ff 
    8a7d:	83 85 20 fd ff ff 01 	addl   $0x1,-0x2e0(%rbp)
    8a84:	83 bd 20 fd ff ff 01 	cmpl   $0x1,-0x2e0(%rbp)
    8a8b:	7e d9                	jle    8a66 <func_15+0x445>
    8a8d:	c7 85 20 fd ff ff 00 	movl   $0x0,-0x2e0(%rbp)
    8a94:	00 00 00 
    8a97:	eb 21                	jmp    8aba <func_15+0x499>
    8a99:	8b 85 20 fd ff ff    	mov    -0x2e0(%rbp),%eax
    8a9f:	48 98                	cltq   
    8aa1:	48 bb af 69 e7 40 0e 	movabs $0x1391fd0e40e769af,%rbx
    8aa8:	fd 91 13 
    8aab:	48 89 9c c5 30 fe ff 	mov    %rbx,-0x1d0(%rbp,%rax,8)
    8ab2:	ff 
    8ab3:	83 85 20 fd ff ff 01 	addl   $0x1,-0x2e0(%rbp)
    8aba:	83 bd 20 fd ff ff 02 	cmpl   $0x2,-0x2e0(%rbp)
    8ac1:	7e d6                	jle    8a99 <func_15+0x478>
    8ac3:	c7 85 20 fd ff ff 00 	movl   $0x0,-0x2e0(%rbp)
    8aca:	00 00 00 
    8acd:	eb 1a                	jmp    8ae9 <func_15+0x4c8>
    8acf:	8b 85 20 fd ff ff    	mov    -0x2e0(%rbp),%eax
    8ad5:	48 98                	cltq   
    8ad7:	c7 84 85 ec fd ff ff 	movl   $0xfffffffa,-0x214(%rbp,%rax,4)
    8ade:	fa ff ff ff 
    8ae2:	83 85 20 fd ff ff 01 	addl   $0x1,-0x2e0(%rbp)
    8ae9:	83 bd 20 fd ff ff 00 	cmpl   $0x0,-0x2e0(%rbp)
    8af0:	7e dd                	jle    8acf <func_15+0x4ae>
    8af2:	48 c7 85 00 fd ff ff 	movq   $0x1,-0x300(%rbp)
    8af9:	01 00 00 00 
    8afd:	e9 92 02 00 00       	jmpq   8d94 <func_15+0x773>
    8b02:	c7 85 40 fd ff ff 07 	movl   $0x7,-0x2c0(%rbp)
    8b09:	00 00 00 
    8b0c:	48 c7 85 68 fd ff ff 	movq   $0x0,-0x298(%rbp)
    8b13:	00 00 00 00 
    8b17:	48 8d 05 7c d3 00 00 	lea    0xd37c(%rip),%rax        # 15e9a <g_782>
    8b1e:	48 89 85 b8 fd ff ff 	mov    %rax,-0x248(%rbp)
    8b25:	48 8d 05 74 d2 00 00 	lea    0xd274(%rip),%rax        # 15da0 <g_607>
    8b2c:	48 89 85 c0 fd ff ff 	mov    %rax,-0x240(%rbp)
    8b33:	48 8d 85 68 fd ff ff 	lea    -0x298(%rbp),%rax
    8b3a:	48 89 85 c8 fd ff ff 	mov    %rax,-0x238(%rbp)
    8b41:	c7 85 44 fd ff ff 00 	movl   $0x0,-0x2bc(%rbp)
    8b48:	00 00 00 
    8b4b:	c7 85 48 fd ff ff 89 	movl   $0x3bc21c89,-0x2b8(%rbp)
    8b52:	1c c2 3b 
    8b55:	c7 85 4c fd ff ff 00 	movl   $0x0,-0x2b4(%rbp)
    8b5c:	00 00 00 
    8b5f:	48 8d 05 0a ee 00 00 	lea    0xee0a(%rip),%rax        # 17970 <g_1049>
    8b66:	48 89 85 d0 fd ff ff 	mov    %rax,-0x230(%rbp)
    8b6d:	48 8d 05 0c e8 00 00 	lea    0xe80c(%rip),%rax        # 17380 <g_520+0x40>
    8b74:	48 89 85 d8 fd ff ff 	mov    %rax,-0x228(%rbp)
    8b7b:	c7 85 50 fd ff ff 00 	movl   $0x0,-0x2b0(%rbp)
    8b82:	00 00 00 
    8b85:	c7 85 54 fd ff ff 2e 	movl   $0x512ea02e,-0x2ac(%rbp)
    8b8c:	a0 2e 51 
    8b8f:	c7 85 58 fd ff ff fb 	movl   $0xfffffffb,-0x2a8(%rbp)
    8b96:	ff ff ff 
    8b99:	c7 85 5c fd ff ff 94 	movl   $0x96305394,-0x2a4(%rbp)
    8ba0:	53 30 96 
    8ba3:	c7 85 60 fd ff ff 06 	movl   $0x6,-0x2a0(%rbp)
    8baa:	00 00 00 
    8bad:	c7 85 64 fd ff ff 00 	movl   $0x0,-0x29c(%rbp)
    8bb4:	00 00 00 
    8bb7:	66 c7 85 00 fe ff ff 	movw   $0x54de,-0x200(%rbp)
    8bbe:	de 54 
    8bc0:	66 c7 85 02 fe ff ff 	movw   $0x54de,-0x1fe(%rbp)
    8bc7:	de 54 
    8bc9:	66 c7 85 04 fe ff ff 	movw   $0x54de,-0x1fc(%rbp)
    8bd0:	de 54 
    8bd2:	66 c7 85 06 fe ff ff 	movw   $0x54de,-0x1fa(%rbp)
    8bd9:	de 54 
    8bdb:	66 c7 85 08 fe ff ff 	movw   $0x54de,-0x1f8(%rbp)
    8be2:	de 54 
    8be4:	66 c7 85 0a fe ff ff 	movw   $0x54de,-0x1f6(%rbp)
    8beb:	de 54 
    8bed:	66 c7 85 0c fe ff ff 	movw   $0x54de,-0x1f4(%rbp)
    8bf4:	de 54 
    8bf6:	66 c7 85 0e fe ff ff 	movw   $0x54de,-0x1f2(%rbp)
    8bfd:	de 54 
    8bff:	48 8d 05 92 d1 00 00 	lea    0xd192(%rip),%rax        # 15d98 <g_562>
    8c06:	48 89 85 e0 fd ff ff 	mov    %rax,-0x220(%rbp)
    8c0d:	c7 85 80 fe ff ff 55 	movl   $0x5af2ce55,-0x180(%rbp)
    8c14:	ce f2 5a 
    8c17:	c7 85 84 fe ff ff 55 	movl   $0x5af2ce55,-0x17c(%rbp)
    8c1e:	ce f2 5a 
    8c21:	c7 85 88 fe ff ff 55 	movl   $0x5af2ce55,-0x178(%rbp)
    8c28:	ce f2 5a 
    8c2b:	c7 85 8c fe ff ff 55 	movl   $0x5af2ce55,-0x174(%rbp)
    8c32:	ce f2 5a 
    8c35:	c7 85 90 fe ff ff 55 	movl   $0x5af2ce55,-0x170(%rbp)
    8c3c:	ce f2 5a 
    8c3f:	c7 85 94 fe ff ff 55 	movl   $0x5af2ce55,-0x16c(%rbp)
    8c46:	ce f2 5a 
    8c49:	c7 85 98 fe ff ff 55 	movl   $0x5af2ce55,-0x168(%rbp)
    8c50:	ce f2 5a 
    8c53:	c7 85 9c fe ff ff 55 	movl   $0x5af2ce55,-0x164(%rbp)
    8c5a:	ce f2 5a 
    8c5d:	c7 85 a0 fe ff ff 55 	movl   $0x5af2ce55,-0x160(%rbp)
    8c64:	ce f2 5a 
    8c67:	c7 85 a4 fe ff ff 55 	movl   $0x5af2ce55,-0x15c(%rbp)
    8c6e:	ce f2 5a 
    8c71:	0f b6 9d 16 fd ff ff 	movzbl -0x2ea(%rbp),%ebx
    8c78:	8b 85 40 fd ff ff    	mov    -0x2c0(%rbp),%eax
    8c7e:	44 0f be e0          	movsbl %al,%r12d
    8c82:	44 0f b6 b5 16 fd ff 	movzbl -0x2ea(%rbp),%r14d
    8c89:	ff 
    8c8a:	8b 85 40 fd ff ff    	mov    -0x2c0(%rbp),%eax
    8c90:	44 0f b6 e8          	movzbl %al,%r13d
    8c94:	8b 95 0c fd ff ff    	mov    -0x2f4(%rbp),%edx
    8c9a:	8b 8d 0c fd ff ff    	mov    -0x2f4(%rbp),%ecx
    8ca0:	48 8b 85 00 fd ff ff 	mov    -0x300(%rbp),%rax
    8ca7:	89 ce                	mov    %ecx,%esi
    8ca9:	48 89 c7             	mov    %rax,%rdi
    8cac:	e8 ed 51 00 00       	callq  de9e <func_49>
    8cb1:	44 89 ee             	mov    %r13d,%esi
    8cb4:	bf 01 00 00 00       	mov    $0x1,%edi
    8cb9:	e8 20 1f 00 00       	callq  abde <func_46>
    8cbe:	48 89 c2             	mov    %rax,%rdx
    8cc1:	8b 85 24 fd ff ff    	mov    -0x2dc(%rbp),%eax
    8cc7:	48 89 d6             	mov    %rdx,%rsi
    8cca:	48 89 c7             	mov    %rax,%rdi
    8ccd:	e8 f0 1e 00 00       	callq  abc2 <func_42>
    8cd2:	98                   	cwtl   
    8cd3:	be 0d 00 00 00       	mov    $0xd,%esi
    8cd8:	89 c7                	mov    %eax,%edi
    8cda:	e8 4b c8 ff ff       	callq  552a <safe_rshift_func_int16_t_s_s>
    8cdf:	0f bf f8             	movswl %ax,%edi
    8ce2:	8b 05 08 f7 00 00    	mov    0xf708(%rip),%eax        # 183f0 <g_2>
    8ce8:	48 63 c8             	movslq %eax,%rcx
    8ceb:	8b 95 0c fd ff ff    	mov    -0x2f4(%rbp),%edx
    8cf1:	8b 05 2d c3 00 00    	mov    0xc32d(%rip),%eax        # 15024 <g_6>
    8cf7:	0f bf f0             	movswl %ax,%esi
    8cfa:	8b 85 0c fd ff ff    	mov    -0x2f4(%rbp),%eax
    8d00:	0f b7 c0             	movzwl %ax,%eax
    8d03:	41 89 f8             	mov    %edi,%r8d
    8d06:	89 c7                	mov    %eax,%edi
    8d08:	e8 15 1e 00 00       	callq  ab22 <func_34>
    8d0d:	48 ba 4e bf 4e 92 63 	movabs $0xe2ae0863924ebf4e,%rdx
    8d14:	08 ae e2 
    8d17:	48 39 d0             	cmp    %rdx,%rax
    8d1a:	0f 97 c0             	seta   %al
    8d1d:	0f b6 c0             	movzbl %al,%eax
    8d20:	41 39 c6             	cmp    %eax,%r14d
    8d23:	0f 9e c0             	setle  %al
    8d26:	0f b6 d0             	movzbl %al,%edx
    8d29:	0f b7 85 08 fd ff ff 	movzwl -0x2f8(%rbp),%eax
    8d30:	39 c2                	cmp    %eax,%edx
    8d32:	0f 94 c0             	sete   %al
    8d35:	0f b6 c8             	movzbl %al,%ecx
    8d38:	48 8b 85 00 fd ff ff 	mov    -0x300(%rbp),%rax
    8d3f:	0f b7 c0             	movzwl %ax,%eax
    8d42:	44 89 e2             	mov    %r12d,%edx
    8d45:	89 ce                	mov    %ecx,%esi
    8d47:	89 c7                	mov    %eax,%edi
    8d49:	e8 3d 1d 00 00       	callq  aa8b <func_29>
    8d4e:	0f b6 c0             	movzbl %al,%eax
    8d51:	48 89 de             	mov    %rbx,%rsi
    8d54:	89 c7                	mov    %eax,%edi
    8d56:	e8 eb 00 00 00       	callq  8e46 <func_26>
    8d5b:	0f b7 c0             	movzwl %ax,%eax
    8d5e:	be fc ff 00 00       	mov    $0xfffc,%esi
    8d63:	89 c7                	mov    %eax,%edi
    8d65:	e8 d3 cf ff ff       	callq  5d3d <safe_mul_func_uint16_t_u_u>
    8d6a:	89 c2                	mov    %eax,%edx
    8d6c:	48 8b 05 15 ec 00 00 	mov    0xec15(%rip),%rax        # 17988 <g_1088>
    8d73:	0f b7 d2             	movzwl %dx,%edx
    8d76:	89 10                	mov    %edx,(%rax)
    8d78:	48 8b 85 00 fd ff ff 	mov    -0x300(%rbp),%rax
    8d7f:	be 01 00 00 00       	mov    $0x1,%esi
    8d84:	89 c7                	mov    %eax,%edi
    8d86:	e8 2d d1 ff ff       	callq  5eb8 <safe_add_func_uint32_t_u_u>
    8d8b:	89 c0                	mov    %eax,%eax
    8d8d:	48 89 85 00 fd ff ff 	mov    %rax,-0x300(%rbp)
    8d94:	48 83 bd 00 fd ff ff 	cmpq   $0x3a,-0x300(%rbp)
    8d9b:	3a 
    8d9c:	0f 87 60 fd ff ff    	ja     8b02 <func_15+0x4e1>
    8da2:	66 83 ad 18 fd ff ff 	subw   $0x1,-0x2e8(%rbp)
    8da9:	01 
    8daa:	48 8b 85 40 fe ff ff 	mov    -0x1c0(%rbp),%rax
    8db1:	48 83 c0 01          	add    $0x1,%rax
    8db5:	48 89 85 40 fe ff ff 	mov    %rax,-0x1c0(%rbp)
    8dbc:	0f b7 95 08 fd ff ff 	movzwl -0x2f8(%rbp),%edx
    8dc3:	48 8d 05 46 ca 00 00 	lea    0xca46(%rip),%rax        # 15810 <g_228>
    8dca:	48 39 85 b0 fd ff ff 	cmp    %rax,-0x250(%rbp)
    8dd1:	0f 95 c0             	setne  %al
    8dd4:	0f b6 c0             	movzbl %al,%eax
    8dd7:	89 d6                	mov    %edx,%esi
    8dd9:	89 c7                	mov    %eax,%edi
    8ddb:	e8 d6 c7 ff ff       	callq  55b6 <safe_add_func_int32_t_s_s>
    8de0:	f7 d0                	not    %eax
    8de2:	89 c2                	mov    %eax,%edx
    8de4:	48 8b 85 98 fd ff ff 	mov    -0x268(%rbp),%rax
    8deb:	8b 00                	mov    (%rax),%eax
    8ded:	21 c2                	and    %eax,%edx
    8def:	48 8b 85 98 fd ff ff 	mov    -0x268(%rbp),%rax
    8df6:	89 10                	mov    %edx,(%rax)
    8df8:	48 8b 85 98 fd ff ff 	mov    -0x268(%rbp),%rax
    8dff:	8b 00                	mov    (%rax),%eax
    8e01:	89 85 ec fd ff ff    	mov    %eax,-0x214(%rbp)
    8e07:	83 85 0c fd ff ff 01 	addl   $0x1,-0x2f4(%rbp)
    8e0e:	83 bd 0c fd ff ff 1f 	cmpl   $0x1f,-0x2f4(%rbp)
    8e15:	0f 86 39 f9 ff ff    	jbe    8754 <func_15+0x133>
    8e1b:	0f b7 85 1c fd ff ff 	movzwl -0x2e4(%rbp),%eax
    8e22:	48 8b 5d d8          	mov    -0x28(%rbp),%rbx
    8e26:	64 48 33 1c 25 28 00 	xor    %fs:0x28,%rbx
    8e2d:	00 00 
    8e2f:	74 05                	je     8e36 <func_15+0x815>
    8e31:	e8 3a c2 ff ff       	callq  5070 <__stack_chk_fail@plt>
    8e36:	48 81 c4 e0 02 00 00 	add    $0x2e0,%rsp
    8e3d:	5b                   	pop    %rbx
    8e3e:	41 5c                	pop    %r12
    8e40:	41 5d                	pop    %r13
    8e42:	41 5e                	pop    %r14
    8e44:	5d                   	pop    %rbp
    8e45:	c3                   	retq   

0000000000008e46 <func_26>:
    8e46:	f3 0f 1e fa          	endbr64 
    8e4a:	55                   	push   %rbp
    8e4b:	48 89 e5             	mov    %rsp,%rbp
    8e4e:	41 57                	push   %r15
    8e50:	41 56                	push   %r14
    8e52:	41 55                	push   %r13
    8e54:	41 54                	push   %r12
    8e56:	53                   	push   %rbx
    8e57:	48 81 ec c8 06 00 00 	sub    $0x6c8,%rsp
    8e5e:	89 f8                	mov    %edi,%eax
    8e60:	48 89 b5 20 f9 ff ff 	mov    %rsi,-0x6e0(%rbp)
    8e67:	88 85 2c f9 ff ff    	mov    %al,-0x6d4(%rbp)
    8e6d:	64 48 8b 04 25 28 00 	mov    %fs:0x28,%rax
    8e74:	00 00 
    8e76:	48 89 45 c8          	mov    %rax,-0x38(%rbp)
    8e7a:	31 c0                	xor    %eax,%eax
    8e7c:	48 8d 05 1d cf 00 00 	lea    0xcf1d(%rip),%rax        # 15da0 <g_607>
    8e83:	48 89 85 40 fa ff ff 	mov    %rax,-0x5c0(%rbp)
    8e8a:	c7 85 4c f9 ff ff ff 	movl   $0xffffffff,-0x6b4(%rbp)
    8e91:	ff ff ff 
    8e94:	c7 85 84 f9 ff ff 00 	movl   $0x0,-0x67c(%rbp)
    8e9b:	00 00 00 
    8e9e:	48 c7 85 e0 fc ff ff 	movq   $0x0,-0x320(%rbp)
    8ea5:	00 00 00 00 
    8ea9:	48 c7 85 e8 fc ff ff 	movq   $0x0,-0x318(%rbp)
    8eb0:	00 00 00 00 
    8eb4:	48 8d 05 75 f5 00 00 	lea    0xf575(%rip),%rax        # 18430 <g_1050>
    8ebb:	48 89 85 f0 fc ff ff 	mov    %rax,-0x310(%rbp)
    8ec2:	48 8d 05 67 f5 00 00 	lea    0xf567(%rip),%rax        # 18430 <g_1050>
    8ec9:	48 89 85 f8 fc ff ff 	mov    %rax,-0x308(%rbp)
    8ed0:	48 c7 85 00 fd ff ff 	movq   $0x0,-0x300(%rbp)
    8ed7:	00 00 00 00 
    8edb:	48 8d 05 4e f5 00 00 	lea    0xf54e(%rip),%rax        # 18430 <g_1050>
    8ee2:	48 89 85 08 fd ff ff 	mov    %rax,-0x2f8(%rbp)
    8ee9:	48 8d 05 40 f5 00 00 	lea    0xf540(%rip),%rax        # 18430 <g_1050>
    8ef0:	48 89 85 10 fd ff ff 	mov    %rax,-0x2f0(%rbp)
    8ef7:	48 8d 05 32 f5 00 00 	lea    0xf532(%rip),%rax        # 18430 <g_1050>
    8efe:	48 89 85 18 fd ff ff 	mov    %rax,-0x2e8(%rbp)
    8f05:	48 8d 05 24 f5 00 00 	lea    0xf524(%rip),%rax        # 18430 <g_1050>
    8f0c:	48 89 85 20 fd ff ff 	mov    %rax,-0x2e0(%rbp)
    8f13:	48 8d 05 16 f5 00 00 	lea    0xf516(%rip),%rax        # 18430 <g_1050>
    8f1a:	48 89 85 28 fd ff ff 	mov    %rax,-0x2d8(%rbp)
    8f21:	48 8d 05 08 f5 00 00 	lea    0xf508(%rip),%rax        # 18430 <g_1050>
    8f28:	48 89 85 30 fd ff ff 	mov    %rax,-0x2d0(%rbp)
    8f2f:	48 c7 85 38 fd ff ff 	movq   $0x0,-0x2c8(%rbp)
    8f36:	00 00 00 00 
    8f3a:	48 8d 05 ef f4 00 00 	lea    0xf4ef(%rip),%rax        # 18430 <g_1050>
    8f41:	48 89 85 40 fd ff ff 	mov    %rax,-0x2c0(%rbp)
    8f48:	48 8d 05 e1 f4 00 00 	lea    0xf4e1(%rip),%rax        # 18430 <g_1050>
    8f4f:	48 89 85 48 fd ff ff 	mov    %rax,-0x2b8(%rbp)
    8f56:	48 c7 85 50 fd ff ff 	movq   $0x0,-0x2b0(%rbp)
    8f5d:	00 00 00 00 
    8f61:	48 8d 05 c8 f4 00 00 	lea    0xf4c8(%rip),%rax        # 18430 <g_1050>
    8f68:	48 89 85 58 fd ff ff 	mov    %rax,-0x2a8(%rbp)
    8f6f:	48 8d 05 ba f4 00 00 	lea    0xf4ba(%rip),%rax        # 18430 <g_1050>
    8f76:	48 89 85 60 fd ff ff 	mov    %rax,-0x2a0(%rbp)
    8f7d:	48 8d 05 ac f4 00 00 	lea    0xf4ac(%rip),%rax        # 18430 <g_1050>
    8f84:	48 89 85 68 fd ff ff 	mov    %rax,-0x298(%rbp)
    8f8b:	48 8d 05 9e f4 00 00 	lea    0xf49e(%rip),%rax        # 18430 <g_1050>
    8f92:	48 89 85 70 fd ff ff 	mov    %rax,-0x290(%rbp)
    8f99:	48 8d 05 90 f4 00 00 	lea    0xf490(%rip),%rax        # 18430 <g_1050>
    8fa0:	48 89 85 78 fd ff ff 	mov    %rax,-0x288(%rbp)
    8fa7:	48 8d 05 52 e3 00 00 	lea    0xe352(%rip),%rax        # 17300 <g_55>
    8fae:	48 89 85 48 fa ff ff 	mov    %rax,-0x5b8(%rbp)
    8fb5:	48 c7 85 08 fa ff ff 	movq   $0x0,-0x5f8(%rbp)
    8fbc:	00 00 00 00 
    8fc0:	48 8d 85 08 fa ff ff 	lea    -0x5f8(%rbp),%rax
    8fc7:	48 89 85 50 fc ff ff 	mov    %rax,-0x3b0(%rbp)
    8fce:	48 8d 85 08 fa ff ff 	lea    -0x5f8(%rbp),%rax
    8fd5:	48 89 85 58 fc ff ff 	mov    %rax,-0x3a8(%rbp)
    8fdc:	48 8d 85 08 fa ff ff 	lea    -0x5f8(%rbp),%rax
    8fe3:	48 89 85 60 fc ff ff 	mov    %rax,-0x3a0(%rbp)
    8fea:	48 8d 85 08 fa ff ff 	lea    -0x5f8(%rbp),%rax
    8ff1:	48 89 85 68 fc ff ff 	mov    %rax,-0x398(%rbp)
    8ff8:	48 8d 85 08 fa ff ff 	lea    -0x5f8(%rbp),%rax
    8fff:	48 89 85 70 fc ff ff 	mov    %rax,-0x390(%rbp)
    9006:	48 8d 85 08 fa ff ff 	lea    -0x5f8(%rbp),%rax
    900d:	48 89 85 78 fc ff ff 	mov    %rax,-0x388(%rbp)
    9014:	48 8d 85 08 fa ff ff 	lea    -0x5f8(%rbp),%rax
    901b:	48 89 85 80 fc ff ff 	mov    %rax,-0x380(%rbp)
    9022:	48 8d 85 08 fa ff ff 	lea    -0x5f8(%rbp),%rax
    9029:	48 89 85 88 fc ff ff 	mov    %rax,-0x378(%rbp)
    9030:	48 8d 85 50 fc ff ff 	lea    -0x3b0(%rbp),%rax
    9037:	48 83 c0 28          	add    $0x28,%rax
    903b:	48 89 85 80 fd ff ff 	mov    %rax,-0x280(%rbp)
    9042:	48 c7 85 88 fd ff ff 	movq   $0x0,-0x278(%rbp)
    9049:	00 00 00 00 
    904d:	48 8d 85 50 fc ff ff 	lea    -0x3b0(%rbp),%rax
    9054:	48 83 c0 28          	add    $0x28,%rax
    9058:	48 89 85 90 fd ff ff 	mov    %rax,-0x270(%rbp)
    905f:	48 8d 85 50 fc ff ff 	lea    -0x3b0(%rbp),%rax
    9066:	48 83 c0 20          	add    $0x20,%rax
    906a:	48 89 85 98 fd ff ff 	mov    %rax,-0x268(%rbp)
    9071:	48 8d 85 50 fc ff ff 	lea    -0x3b0(%rbp),%rax
    9078:	48 83 c0 10          	add    $0x10,%rax
    907c:	48 89 85 a0 fd ff ff 	mov    %rax,-0x260(%rbp)
    9083:	48 8d 85 50 fc ff ff 	lea    -0x3b0(%rbp),%rax
    908a:	48 83 c0 20          	add    $0x20,%rax
    908e:	48 89 85 a8 fd ff ff 	mov    %rax,-0x258(%rbp)
    9095:	48 8d 85 50 fc ff ff 	lea    -0x3b0(%rbp),%rax
    909c:	48 83 c0 20          	add    $0x20,%rax
    90a0:	48 89 85 b0 fd ff ff 	mov    %rax,-0x250(%rbp)
    90a7:	48 8d 85 50 fc ff ff 	lea    -0x3b0(%rbp),%rax
    90ae:	48 83 c0 20          	add    $0x20,%rax
    90b2:	48 89 85 b8 fd ff ff 	mov    %rax,-0x248(%rbp)
    90b9:	48 c7 85 c0 fd ff ff 	movq   $0x0,-0x240(%rbp)
    90c0:	00 00 00 00 
    90c4:	48 c7 85 c8 fd ff ff 	movq   $0x0,-0x238(%rbp)
    90cb:	00 00 00 00 
    90cf:	48 8d 85 50 fc ff ff 	lea    -0x3b0(%rbp),%rax
    90d6:	48 83 c0 20          	add    $0x20,%rax
    90da:	48 89 85 d0 fd ff ff 	mov    %rax,-0x230(%rbp)
    90e1:	48 8d 85 50 fc ff ff 	lea    -0x3b0(%rbp),%rax
    90e8:	48 83 c0 20          	add    $0x20,%rax
    90ec:	48 89 85 d8 fd ff ff 	mov    %rax,-0x228(%rbp)
    90f3:	48 8d 85 50 fc ff ff 	lea    -0x3b0(%rbp),%rax
    90fa:	48 83 c0 20          	add    $0x20,%rax
    90fe:	48 89 85 e0 fd ff ff 	mov    %rax,-0x220(%rbp)
    9105:	48 8d 85 50 fc ff ff 	lea    -0x3b0(%rbp),%rax
    910c:	48 83 c0 10          	add    $0x10,%rax
    9110:	48 89 85 e8 fd ff ff 	mov    %rax,-0x218(%rbp)
    9117:	48 8d 85 50 fc ff ff 	lea    -0x3b0(%rbp),%rax
    911e:	48 83 c0 20          	add    $0x20,%rax
    9122:	48 89 85 f0 fd ff ff 	mov    %rax,-0x210(%rbp)
    9129:	48 8d 85 50 fc ff ff 	lea    -0x3b0(%rbp),%rax
    9130:	48 83 c0 10          	add    $0x10,%rax
    9134:	48 89 85 f8 fd ff ff 	mov    %rax,-0x208(%rbp)
    913b:	48 c7 85 00 fe ff ff 	movq   $0x0,-0x200(%rbp)
    9142:	00 00 00 00 
    9146:	48 8d 85 50 fc ff ff 	lea    -0x3b0(%rbp),%rax
    914d:	48 83 c0 28          	add    $0x28,%rax
    9151:	48 89 85 08 fe ff ff 	mov    %rax,-0x1f8(%rbp)
    9158:	48 8d 85 50 fc ff ff 	lea    -0x3b0(%rbp),%rax
    915f:	48 83 c0 20          	add    $0x20,%rax
    9163:	48 89 85 10 fe ff ff 	mov    %rax,-0x1f0(%rbp)
    916a:	48 8d 85 50 fc ff ff 	lea    -0x3b0(%rbp),%rax
    9171:	48 83 c0 20          	add    $0x20,%rax
    9175:	48 89 85 18 fe ff ff 	mov    %rax,-0x1e8(%rbp)
    917c:	48 8d 85 50 fc ff ff 	lea    -0x3b0(%rbp),%rax
    9183:	48 83 c0 10          	add    $0x10,%rax
    9187:	48 89 85 20 fe ff ff 	mov    %rax,-0x1e0(%rbp)
    918e:	48 8d 85 50 fc ff ff 	lea    -0x3b0(%rbp),%rax
    9195:	48 83 c0 28          	add    $0x28,%rax
    9199:	48 89 85 28 fe ff ff 	mov    %rax,-0x1d8(%rbp)
    91a0:	48 8d 85 50 fc ff ff 	lea    -0x3b0(%rbp),%rax
    91a7:	48 83 c0 28          	add    $0x28,%rax
    91ab:	48 89 85 30 fe ff ff 	mov    %rax,-0x1d0(%rbp)
    91b2:	48 8d 85 50 fc ff ff 	lea    -0x3b0(%rbp),%rax
    91b9:	48 83 c0 10          	add    $0x10,%rax
    91bd:	48 89 85 38 fe ff ff 	mov    %rax,-0x1c8(%rbp)
    91c4:	48 8d 85 50 fc ff ff 	lea    -0x3b0(%rbp),%rax
    91cb:	48 83 c0 28          	add    $0x28,%rax
    91cf:	48 89 85 40 fe ff ff 	mov    %rax,-0x1c0(%rbp)
    91d6:	48 8d 85 50 fc ff ff 	lea    -0x3b0(%rbp),%rax
    91dd:	48 83 c0 10          	add    $0x10,%rax
    91e1:	48 89 85 48 fe ff ff 	mov    %rax,-0x1b8(%rbp)
    91e8:	48 c7 85 50 fe ff ff 	movq   $0x0,-0x1b0(%rbp)
    91ef:	00 00 00 00 
    91f3:	48 8d 85 50 fc ff ff 	lea    -0x3b0(%rbp),%rax
    91fa:	48 83 c0 20          	add    $0x20,%rax
    91fe:	48 89 85 58 fe ff ff 	mov    %rax,-0x1a8(%rbp)
    9205:	48 8d 85 50 fc ff ff 	lea    -0x3b0(%rbp),%rax
    920c:	48 83 c0 28          	add    $0x28,%rax
    9210:	48 89 85 60 fe ff ff 	mov    %rax,-0x1a0(%rbp)
    9217:	48 c7 85 68 fe ff ff 	movq   $0x0,-0x198(%rbp)
    921e:	00 00 00 00 
    9222:	48 8d 85 50 fc ff ff 	lea    -0x3b0(%rbp),%rax
    9229:	48 83 c0 28          	add    $0x28,%rax
    922d:	48 89 85 70 fe ff ff 	mov    %rax,-0x190(%rbp)
    9234:	48 8d 85 50 fc ff ff 	lea    -0x3b0(%rbp),%rax
    923b:	48 83 c0 20          	add    $0x20,%rax
    923f:	48 89 85 78 fe ff ff 	mov    %rax,-0x188(%rbp)
    9246:	c7 85 88 f9 ff ff ff 	movl   $0xffffffff,-0x678(%rbp)
    924d:	ff ff ff 
    9250:	c7 85 8c f9 ff ff 00 	movl   $0x0,-0x674(%rbp)
    9257:	00 00 00 
    925a:	c7 85 50 f9 ff ff df 	movl   $0xc7be57df,-0x6b0(%rbp)
    9261:	57 be c7 
    9264:	48 c7 85 50 fa ff ff 	movq   $0x0,-0x5b0(%rbp)
    926b:	00 00 00 00 
    926f:	c7 85 90 f9 ff ff 01 	movl   $0x1,-0x670(%rbp)
    9276:	00 00 00 
    9279:	48 c7 85 58 fa ff ff 	movq   $0x0,-0x5a8(%rbp)
    9280:	00 00 00 00 
    9284:	66 c7 85 40 f9 ff ff 	movw   $0xa7af,-0x6c0(%rbp)
    928b:	af a7 
    928d:	c7 85 94 f9 ff ff f6 	movl   $0xfffffff6,-0x66c(%rbp)
    9294:	ff ff ff 
    9297:	48 8d 85 40 f9 ff ff 	lea    -0x6c0(%rbp),%rax
    929e:	48 89 85 10 fa ff ff 	mov    %rax,-0x5f0(%rbp)
    92a5:	48 8d 85 10 fa ff ff 	lea    -0x5f0(%rbp),%rax
    92ac:	48 89 85 60 fa ff ff 	mov    %rax,-0x5a0(%rbp)
    92b3:	48 c7 85 18 fa ff ff 	movq   $0x0,-0x5e8(%rbp)
    92ba:	00 00 00 00 
    92be:	c7 85 98 f9 ff ff de 	movl   $0x195096de,-0x668(%rbp)
    92c5:	96 50 19 
    92c8:	c7 85 9c f9 ff ff 01 	movl   $0x1,-0x664(%rbp)
    92cf:	00 00 00 
    92d2:	66 c7 85 42 f9 ff ff 	movw   $0xffff,-0x6be(%rbp)
    92d9:	ff ff 
    92db:	48 8d 05 ee bf 00 00 	lea    0xbfee(%rip),%rax        # 152d0 <g_188+0x150>
    92e2:	48 89 85 20 fa ff ff 	mov    %rax,-0x5e0(%rbp)
    92e9:	48 8d 85 20 fa ff ff 	lea    -0x5e0(%rbp),%rax
    92f0:	48 89 85 68 fa ff ff 	mov    %rax,-0x598(%rbp)
    92f7:	c6 85 3f f9 ff ff d3 	movb   $0xd3,-0x6c1(%rbp)
    92fe:	48 8d 85 80 fb ff ff 	lea    -0x480(%rbp),%rax
    9305:	48 83 c0 20          	add    $0x20,%rax
    9309:	48 89 85 70 fa ff ff 	mov    %rax,-0x590(%rbp)
    9310:	c7 85 a0 f9 ff ff 0a 	movl   $0xe65de10a,-0x660(%rbp)
    9317:	e1 5d e6 
    931a:	48 8d 05 ef f0 00 00 	lea    0xf0ef(%rip),%rax        # 18410 <g_445>
    9321:	48 89 85 78 fa ff ff 	mov    %rax,-0x588(%rbp)
    9328:	c7 85 80 f9 ff ff 00 	movl   $0x0,-0x680(%rbp)
    932f:	00 00 00 
    9332:	eb 1a                	jmp    934e <func_26+0x508>
    9334:	8b 85 80 f9 ff ff    	mov    -0x680(%rbp),%eax
    933a:	48 98                	cltq   
    933c:	c7 84 85 80 fb ff ff 	movl   $0xfffffff8,-0x480(%rbp,%rax,4)
    9343:	f8 ff ff ff 
    9347:	83 85 80 f9 ff ff 01 	addl   $0x1,-0x680(%rbp)
    934e:	83 bd 80 f9 ff ff 09 	cmpl   $0x9,-0x680(%rbp)
    9355:	7e dd                	jle    9334 <func_26+0x4ee>
    9357:	c7 85 80 f9 ff ff 00 	movl   $0x0,-0x680(%rbp)
    935e:	00 00 00 
    9361:	eb 1e                	jmp    9381 <func_26+0x53b>
    9363:	8b 85 80 f9 ff ff    	mov    -0x680(%rbp),%eax
    9369:	48 98                	cltq   
    936b:	48 8d 95 18 fa ff ff 	lea    -0x5e8(%rbp),%rdx
    9372:	48 89 94 c5 b0 fb ff 	mov    %rdx,-0x450(%rbp,%rax,8)
    9379:	ff 
    937a:	83 85 80 f9 ff ff 01 	addl   $0x1,-0x680(%rbp)
    9381:	83 bd 80 f9 ff ff 04 	cmpl   $0x4,-0x680(%rbp)
    9388:	7e d9                	jle    9363 <func_26+0x51d>
    938a:	0f b6 85 2c f9 ff ff 	movzbl -0x6d4(%rbp),%eax
    9391:	84 c0                	test   %al,%al
    9393:	74 15                	je     93aa <func_26+0x564>
    9395:	48 8b 05 ec e5 00 00 	mov    0xe5ec(%rip),%rax        # 17988 <g_1088>
    939c:	48 8b 95 20 f9 ff ff 	mov    -0x6e0(%rbp),%rdx
    93a3:	89 10                	mov    %edx,(%rax)
    93a5:	e9 b1 16 00 00       	jmpq   aa5b <func_26+0x1c15>
    93aa:	c7 85 a4 f9 ff ff 02 	movl   $0x2,-0x65c(%rbp)
    93b1:	00 00 00 
    93b4:	48 8d 05 57 c4 00 00 	lea    0xc457(%rip),%rax        # 15812 <g_236>
    93bb:	48 89 85 80 fa ff ff 	mov    %rax,-0x580(%rbp)
    93c2:	48 8d 05 0f bd 00 00 	lea    0xbd0f(%rip),%rax        # 150d8 <g_123>
    93c9:	48 89 85 28 fa ff ff 	mov    %rax,-0x5d8(%rbp)
    93d0:	48 c7 85 30 fa ff ff 	movq   $0x0,-0x5d0(%rbp)
    93d7:	00 00 00 00 
    93db:	48 8d 85 30 fa ff ff 	lea    -0x5d0(%rbp),%rax
    93e2:	48 89 85 88 fa ff ff 	mov    %rax,-0x578(%rbp)
    93e9:	c7 85 54 f9 ff ff a8 	movl   $0x43afeda8,-0x6ac(%rbp)
    93f0:	ed af 43 
    93f3:	c7 85 a8 f9 ff ff f6 	movl   $0xfffffff6,-0x658(%rbp)
    93fa:	ff ff ff 
    93fd:	66 c7 85 44 f9 ff ff 	movw   $0xffff,-0x6bc(%rbp)
    9404:	ff ff 
    9406:	c7 85 ac f9 ff ff 01 	movl   $0x1,-0x654(%rbp)
    940d:	00 00 00 
    9410:	48 8d 05 51 df 00 00 	lea    0xdf51(%rip),%rax        # 17368 <g_520+0x28>
    9417:	48 89 85 90 fa ff ff 	mov    %rax,-0x570(%rbp)
    941e:	48 8d 05 0b bc 00 00 	lea    0xbc0b(%rip),%rax        # 15030 <g_78>
    9425:	48 89 85 60 fb ff ff 	mov    %rax,-0x4a0(%rbp)
    942c:	48 8d 05 fd bb 00 00 	lea    0xbbfd(%rip),%rax        # 15030 <g_78>
    9433:	48 89 85 68 fb ff ff 	mov    %rax,-0x498(%rbp)
    943a:	48 8d 05 ef bb 00 00 	lea    0xbbef(%rip),%rax        # 15030 <g_78>
    9441:	48 89 85 70 fb ff ff 	mov    %rax,-0x490(%rbp)
    9448:	48 8d 05 e1 bb 00 00 	lea    0xbbe1(%rip),%rax        # 15030 <g_78>
    944f:	48 89 85 78 fb ff ff 	mov    %rax,-0x488(%rbp)
    9456:	c7 85 b0 f9 ff ff 09 	movl   $0x9,-0x650(%rbp)
    945d:	00 00 00 
    9460:	66 c7 85 46 f9 ff ff 	movw   $0x3e98,-0x6ba(%rbp)
    9467:	98 3e 
    9469:	48 8d 85 28 fa ff ff 	lea    -0x5d8(%rbp),%rax
    9470:	48 89 85 98 fa ff ff 	mov    %rax,-0x568(%rbp)
    9477:	48 8d 85 50 f9 ff ff 	lea    -0x6b0(%rbp),%rax
    947e:	48 89 85 a0 fa ff ff 	mov    %rax,-0x560(%rbp)
    9485:	48 8d 05 84 ef 00 00 	lea    0xef84(%rip),%rax        # 18410 <g_445>
    948c:	48 89 85 a8 fa ff ff 	mov    %rax,-0x558(%rbp)
    9493:	c7 85 70 f9 ff ff 00 	movl   $0x0,-0x690(%rbp)
    949a:	00 00 00 
    949d:	eb 1e                	jmp    94bd <func_26+0x677>
    949f:	8b 85 70 f9 ff ff    	mov    -0x690(%rbp),%eax
    94a5:	48 98                	cltq   
    94a7:	48 8d 15 92 ca 00 00 	lea    0xca92(%rip),%rdx        # 15f40 <g_1177>
    94ae:	48 89 94 c5 50 fb ff 	mov    %rdx,-0x4b0(%rbp,%rax,8)
    94b5:	ff 
    94b6:	83 85 70 f9 ff ff 01 	addl   $0x1,-0x690(%rbp)
    94bd:	83 bd 70 f9 ff ff 01 	cmpl   $0x1,-0x690(%rbp)
    94c4:	7e d9                	jle    949f <func_26+0x659>
    94c6:	c7 85 70 f9 ff ff 00 	movl   $0x0,-0x690(%rbp)
    94cd:	00 00 00 
    94d0:	eb 21                	jmp    94f3 <func_26+0x6ad>
    94d2:	8b 85 70 f9 ff ff    	mov    -0x690(%rbp),%eax
    94d8:	48 98                	cltq   
    94da:	48 b9 74 4a e7 b6 0d 	movabs $0xcb0cb10db6e74a74,%rcx
    94e1:	b1 0c cb 
    94e4:	48 89 8c c5 e0 fb ff 	mov    %rcx,-0x420(%rbp,%rax,8)
    94eb:	ff 
    94ec:	83 85 70 f9 ff ff 01 	addl   $0x1,-0x690(%rbp)
    94f3:	83 bd 70 f9 ff ff 05 	cmpl   $0x5,-0x690(%rbp)
    94fa:	7e d6                	jle    94d2 <func_26+0x68c>
    94fc:	48 8b 05 85 e4 00 00 	mov    0xe485(%rip),%rax        # 17988 <g_1088>
    9503:	8b 00                	mov    (%rax),%eax
    9505:	85 c0                	test   %eax,%eax
    9507:	0f 84 24 03 00 00    	je     9831 <func_26+0x9eb>
    950d:	c7 85 b4 f9 ff ff 00 	movl   $0x0,-0x64c(%rbp)
    9514:	00 00 00 
    9517:	c7 85 74 f9 ff ff 00 	movl   $0x0,-0x68c(%rbp)
    951e:	00 00 00 
    9521:	eb 1a                	jmp    953d <func_26+0x6f7>
    9523:	8b 85 74 f9 ff ff    	mov    -0x68c(%rbp),%eax
    9529:	48 98                	cltq   
    952b:	c7 84 85 80 fe ff ff 	movl   $0x5,-0x180(%rbp,%rax,4)
    9532:	05 00 00 00 
    9536:	83 85 74 f9 ff ff 01 	addl   $0x1,-0x68c(%rbp)
    953d:	83 bd 74 f9 ff ff 02 	cmpl   $0x2,-0x68c(%rbp)
    9544:	7e dd                	jle    9523 <func_26+0x6dd>
    9546:	48 c7 05 87 bb 00 00 	movq   $0x0,0xbb87(%rip)        # 150d8 <g_123>
    954d:	00 00 00 00 
    9551:	e9 c8 02 00 00       	jmpq   981e <func_26+0x9d8>
    9556:	48 8d 05 09 bc 00 00 	lea    0xbc09(%rip),%rax        # 15166 <g_186+0x46>
    955d:	48 89 85 38 fb ff ff 	mov    %rax,-0x4c8(%rbp)
    9564:	c7 85 38 fa ff ff 19 	movl   $0xb2e4cc19,-0x5c8(%rbp)
    956b:	cc e4 b2 
    956e:	c7 85 04 fa ff ff a8 	movl   $0xb6cd5da8,-0x5fc(%rbp)
    9575:	5d cd b6 
    9578:	48 8d 85 38 fa ff ff 	lea    -0x5c8(%rbp),%rax
    957f:	48 89 85 40 fb ff ff 	mov    %rax,-0x4c0(%rbp)
    9586:	0f b6 85 2c f9 ff ff 	movzbl -0x6d4(%rbp),%eax
    958d:	0f b6 d0             	movzbl %al,%edx
    9590:	8b 85 b4 f9 ff ff    	mov    -0x64c(%rbp),%eax
    9596:	98                   	cwtl   
    9597:	89 d6                	mov    %edx,%esi
    9599:	89 c7                	mov    %eax,%edi
    959b:	e8 33 be ff ff       	callq  53d3 <safe_sub_func_int16_t_s_s>
    95a0:	98                   	cwtl   
    95a1:	39 85 a4 f9 ff ff    	cmp    %eax,-0x65c(%rbp)
    95a7:	0f 9f c0             	setg   %al
    95aa:	44 0f b6 e0          	movzbl %al,%r12d
    95ae:	48 8d 05 4d bb 00 00 	lea    0xbb4d(%rip),%rax        # 15102 <g_174>
    95b5:	48 39 85 80 fa ff ff 	cmp    %rax,-0x580(%rbp)
    95bc:	75 44                	jne    9602 <func_26+0x7bc>
    95be:	0f b6 85 2c f9 ff ff 	movzbl -0x6d4(%rbp),%eax
    95c5:	0f b6 d8             	movzbl %al,%ebx
    95c8:	8b 85 80 fe ff ff    	mov    -0x180(%rbp),%eax
    95ce:	0f b6 c0             	movzbl %al,%eax
    95d1:	be 07 00 00 00       	mov    $0x7,%esi
    95d6:	89 c7                	mov    %eax,%edi
    95d8:	e8 28 c6 ff ff       	callq  5c05 <safe_lshift_func_uint8_t_u_s>
    95dd:	0f b6 c0             	movzbl %al,%eax
    95e0:	89 de                	mov    %ebx,%esi
    95e2:	89 c7                	mov    %eax,%edi
    95e4:	e8 63 c6 ff ff       	callq  5c4c <safe_lshift_func_uint8_t_u_u>
    95e9:	48 8b 95 38 fb ff ff 	mov    -0x4c8(%rbp),%rdx
    95f0:	0f b7 12             	movzwl (%rdx),%edx
    95f3:	0f b6 c0             	movzbl %al,%eax
    95f6:	09 c2                	or     %eax,%edx
    95f8:	48 8b 85 38 fb ff ff 	mov    -0x4c8(%rbp),%rax
    95ff:	66 89 10             	mov    %dx,(%rax)
    9602:	b8 01 00 00 00       	mov    $0x1,%eax
    9607:	0f be c0             	movsbl %al,%eax
    960a:	be 05 00 00 00       	mov    $0x5,%esi
    960f:	89 c7                	mov    %eax,%edi
    9611:	e8 d8 bc ff ff       	callq  52ee <safe_lshift_func_int8_t_s_u>
    9616:	0f be c0             	movsbl %al,%eax
    9619:	41 39 c4             	cmp    %eax,%r12d
    961c:	0f 9e c2             	setle  %dl
    961f:	48 8b 05 62 e3 00 00 	mov    0xe362(%rip),%rax        # 17988 <g_1088>
    9626:	0f b6 d2             	movzbl %dl,%edx
    9629:	89 10                	mov    %edx,(%rax)
    962b:	8b 85 80 fe ff ff    	mov    -0x180(%rbp),%eax
    9631:	0f b6 d8             	movzbl %al,%ebx
    9634:	48 8b 85 80 fa ff ff 	mov    -0x580(%rbp),%rax
    963b:	66 c7 00 a5 3b       	movw   $0x3ba5,(%rax)
    9640:	0f b7 05 bb ba 00 00 	movzwl 0xbabb(%rip),%eax        # 15102 <g_174>
    9647:	8d 50 01             	lea    0x1(%rax),%edx
    964a:	66 89 15 b1 ba 00 00 	mov    %dx,0xbab1(%rip)        # 15102 <g_174>
    9651:	66 3d a4 3b          	cmp    $0x3ba4,%ax
    9655:	0f b6 85 2c f9 ff ff 	movzbl -0x6d4(%rbp),%eax
    965c:	44 0f b6 e0          	movzbl %al,%r12d
    9660:	0f b6 85 2c f9 ff ff 	movzbl -0x6d4(%rbp),%eax
    9667:	44 0f b6 e8          	movzbl %al,%r13d
    966b:	48 8b 85 20 f9 ff ff 	mov    -0x6e0(%rbp),%rax
    9672:	89 85 28 f9 ff ff    	mov    %eax,-0x6d8(%rbp)
    9678:	48 8b 05 09 c7 00 00 	mov    0xc709(%rip),%rax        # 15d88 <g_500+0x8>
    967f:	48 c1 e8 22          	shr    $0x22,%rax
    9683:	66 25 ff 03          	and    $0x3ff,%ax
    9687:	44 0f be f0          	movsbl %al,%r14d
    968b:	8b 05 5f ba 00 00    	mov    0xba5f(%rip),%eax        # 150f0 <g_168>
    9691:	c1 e8 0d             	shr    $0xd,%eax
    9694:	66 25 ff 3f          	and    $0x3fff,%ax
    9698:	0f b7 c0             	movzwl %ax,%eax
    969b:	89 85 1c f9 ff ff    	mov    %eax,-0x6e4(%rbp)
    96a1:	8b 85 38 fa ff ff    	mov    -0x5c8(%rbp),%eax
    96a7:	44 0f bf f8          	movswl %ax,%r15d
    96ab:	48 8b 85 20 f9 ff ff 	mov    -0x6e0(%rbp),%rax
    96b2:	0f bf f8             	movswl %ax,%edi
    96b5:	89 bd 18 f9 ff ff    	mov    %edi,-0x6e8(%rbp)
    96bb:	48 8b 05 b6 e2 00 00 	mov    0xe2b6(%rip),%rax        # 17978 <g_1048>
    96c2:	48 8b 00             	mov    (%rax),%rax
    96c5:	48 8b 00             	mov    (%rax),%rax
    96c8:	0f b6 00             	movzbl (%rax),%eax
    96cb:	0f b6 c0             	movzbl %al,%eax
    96ce:	48 8b 15 9b e2 00 00 	mov    0xe29b(%rip),%rdx        # 17970 <g_1049>
    96d5:	48 8b 12             	mov    (%rdx),%rdx
    96d8:	0f b6 12             	movzbl (%rdx),%edx
    96db:	0f b6 d2             	movzbl %dl,%edx
    96de:	83 e2 4e             	and    $0x4e,%edx
    96e1:	89 c6                	mov    %eax,%esi
    96e3:	89 d7                	mov    %edx,%edi
    96e5:	e8 8e c4 ff ff       	callq  5b78 <safe_sub_func_uint8_t_u_u>
    96ea:	0f b6 d0             	movzbl %al,%edx
    96ed:	89 95 14 f9 ff ff    	mov    %edx,-0x6ec(%rbp)
    96f3:	8b 05 c7 b9 00 00    	mov    0xb9c7(%rip),%eax        # 150c0 <g_120>
    96f9:	c1 e8 0d             	shr    $0xd,%eax
    96fc:	66 25 ff 3f          	and    $0x3fff,%ax
    9700:	0f be c0             	movsbl %al,%eax
    9703:	be 5f 00 00 00       	mov    $0x5f,%esi
    9708:	89 c7                	mov    %eax,%edi
    970a:	e8 e3 ba ff ff       	callq  51f2 <safe_sub_func_int8_t_s_s>
    970f:	66 98                	cbtw   
    9711:	0f b7 c0             	movzwl %ax,%eax
    9714:	8b b5 14 f9 ff ff    	mov    -0x6ec(%rbp),%esi
    971a:	89 c7                	mov    %eax,%edi
    971c:	e8 de c5 ff ff       	callq  5cff <safe_add_func_uint16_t_u_u>
    9721:	98                   	cwtl   
    9722:	8b b5 18 f9 ff ff    	mov    -0x6e8(%rbp),%esi
    9728:	89 c7                	mov    %eax,%edi
    972a:	e8 26 bd ff ff       	callq  5455 <safe_div_func_int16_t_s_s>
    972f:	98                   	cwtl   
    9730:	39 85 b4 f9 ff ff    	cmp    %eax,-0x64c(%rbp)
    9736:	0f 97 c0             	seta   %al
    9739:	0f b6 c0             	movzbl %al,%eax
    973c:	44 89 fe             	mov    %r15d,%esi
    973f:	89 c7                	mov    %eax,%edi
    9741:	e8 0f bd ff ff       	callq  5455 <safe_div_func_int16_t_s_s>
    9746:	98                   	cwtl   
    9747:	0b 85 1c f9 ff ff    	or     -0x6e4(%rbp),%eax
    974d:	48 98                	cltq   
    974f:	48 89 c6             	mov    %rax,%rsi
    9752:	48 c7 c7 fa ff ff ff 	mov    $0xfffffffffffffffa,%rdi
    9759:	e8 99 c2 ff ff       	callq  59f7 <safe_div_func_int64_t_s_s>
    975e:	81 bd a4 f9 ff ff 77 	cmpl   $0x14112977,-0x65c(%rbp)
    9765:	29 11 14 
    9768:	0f 94 c0             	sete   %al
    976b:	0f b6 c0             	movzbl %al,%eax
    976e:	44 89 f6             	mov    %r14d,%esi
    9771:	89 c7                	mov    %eax,%edi
    9773:	e8 9a ba ff ff       	callq  5212 <safe_mul_func_int8_t_s_s>
    9778:	0f be c0             	movsbl %al,%eax
    977b:	8b b5 28 f9 ff ff    	mov    -0x6d8(%rbp),%esi
    9781:	89 c7                	mov    %eax,%edi
    9783:	e8 2e be ff ff       	callq  55b6 <safe_add_func_int32_t_s_s>
    9788:	98                   	cwtl   
    9789:	44 89 ee             	mov    %r13d,%esi
    978c:	89 c7                	mov    %eax,%edi
    978e:	e8 83 bc ff ff       	callq  5416 <safe_mod_func_int16_t_s_s>
    9793:	98                   	cwtl   
    9794:	44 89 e6             	mov    %r12d,%esi
    9797:	89 c7                	mov    %eax,%edi
    9799:	e8 f4 bc ff ff       	callq  5492 <safe_lshift_func_int16_t_s_s>
    979e:	81 bd 04 fa ff ff dd 	cmpl   $0xdd,-0x5fc(%rbp)
    97a5:	00 00 00 
    97a8:	8b 85 4c f9 ff ff    	mov    -0x6b4(%rbp),%eax
    97ae:	f7 d0                	not    %eax
    97b0:	0f b6 c0             	movzbl %al,%eax
    97b3:	89 de                	mov    %ebx,%esi
    97b5:	89 c7                	mov    %eax,%edi
    97b7:	e8 9e c3 ff ff       	callq  5b5a <safe_add_func_uint8_t_u_u>
    97bc:	84 c0                	test   %al,%al
    97be:	0f 94 c0             	sete   %al
    97c1:	0f b6 c0             	movzbl %al,%eax
    97c4:	48 39 85 20 f9 ff ff 	cmp    %rax,-0x6e0(%rbp)
    97cb:	0f 94 c0             	sete   %al
    97ce:	0f b6 d0             	movzbl %al,%edx
    97d1:	0f b6 85 2c f9 ff ff 	movzbl -0x6d4(%rbp),%eax
    97d8:	0f b6 c0             	movzbl %al,%eax
    97db:	39 c2                	cmp    %eax,%edx
    97dd:	0f 95 c0             	setne  %al
    97e0:	0f b6 c0             	movzbl %al,%eax
    97e3:	f7 d0                	not    %eax
    97e5:	25 91 33 0c 91       	and    $0x910c3391,%eax
    97ea:	89 c2                	mov    %eax,%edx
    97ec:	48 8b 85 40 fb ff ff 	mov    -0x4c0(%rbp),%rax
    97f3:	89 10                	mov    %edx,(%rax)
    97f5:	48 8b 05 1c db 00 00 	mov    0xdb1c(%rip),%rax        # 17318 <g_91>
    97fc:	48 8b 10             	mov    (%rax),%rdx
    97ff:	48 8b 05 0a db 00 00 	mov    0xdb0a(%rip),%rax        # 17310 <g_92>
    9806:	48 8b 12             	mov    (%rdx),%rdx
    9809:	48 89 10             	mov    %rdx,(%rax)
    980c:	48 8b 05 c5 b8 00 00 	mov    0xb8c5(%rip),%rax        # 150d8 <g_123>
    9813:	48 83 c0 01          	add    $0x1,%rax
    9817:	48 89 05 ba b8 00 00 	mov    %rax,0xb8ba(%rip)        # 150d8 <g_123>
    981e:	48 8b 05 b3 b8 00 00 	mov    0xb8b3(%rip),%rax        # 150d8 <g_123>
    9825:	48 83 f8 13          	cmp    $0x13,%rax
    9829:	0f 86 27 fd ff ff    	jbe    9556 <func_26+0x710>
    982f:	eb 50                	jmp    9881 <func_26+0xa3b>
    9831:	c7 85 78 f9 ff ff 00 	movl   $0x0,-0x688(%rbp)
    9838:	00 00 00 
    983b:	eb 1b                	jmp    9858 <func_26+0xa12>
    983d:	8b 85 78 f9 ff ff    	mov    -0x688(%rbp),%eax
    9843:	48 98                	cltq   
    9845:	48 c7 84 c5 80 fe ff 	movq   $0x0,-0x180(%rbp,%rax,8)
    984c:	ff 00 00 00 00 
    9851:	83 85 78 f9 ff ff 01 	addl   $0x1,-0x688(%rbp)
    9858:	83 bd 78 f9 ff ff 03 	cmpl   $0x3,-0x688(%rbp)
    985f:	7e dc                	jle    983d <func_26+0x9f7>
    9861:	48 8b 05 b0 da 00 00 	mov    0xdab0(%rip),%rax        # 17318 <g_91>
    9868:	48 8b 00             	mov    (%rax),%rax
    986b:	48 8b 95 98 fe ff ff 	mov    -0x168(%rbp),%rdx
    9872:	48 89 10             	mov    %rdx,(%rax)
    9875:	48 8b 85 20 f9 ff ff 	mov    -0x6e0(%rbp),%rax
    987c:	e9 e4 11 00 00       	jmpq   aa65 <func_26+0x1c1f>
    9881:	8b 85 84 f9 ff ff    	mov    -0x67c(%rbp),%eax
    9887:	0f bf d0             	movswl %ax,%edx
    988a:	8b 85 a4 f9 ff ff    	mov    -0x65c(%rbp),%eax
    9890:	98                   	cwtl   
    9891:	89 d6                	mov    %edx,%esi
    9893:	89 c7                	mov    %eax,%edi
    9895:	e8 5b bb ff ff       	callq  53f5 <safe_mul_func_int16_t_s_s>
    989a:	89 c2                	mov    %eax,%edx
    989c:	48 8b 85 28 fa ff ff 	mov    -0x5d8(%rbp),%rax
    98a3:	48 0f bf d2          	movswq %dx,%rdx
    98a7:	48 89 10             	mov    %rdx,(%rax)
    98aa:	48 8b 10             	mov    (%rax),%rdx
    98ad:	48 8b 85 28 fd ff ff 	mov    -0x2d8(%rbp),%rax
    98b4:	48 85 c0             	test   %rax,%rax
    98b7:	0f 94 c0             	sete   %al
    98ba:	0f b6 c0             	movzbl %al,%eax
    98bd:	48 89 05 44 bf 00 00 	mov    %rax,0xbf44(%rip)        # 15808 <g_188+0x688>
    98c4:	48 8b 05 3d bf 00 00 	mov    0xbf3d(%rip),%rax        # 15808 <g_188+0x688>
    98cb:	48 39 c2             	cmp    %rax,%rdx
    98ce:	0f 96 c0             	setbe  %al
    98d1:	0f b6 c0             	movzbl %al,%eax
    98d4:	8b 95 84 f9 ff ff    	mov    -0x67c(%rbp),%edx
    98da:	89 d6                	mov    %edx,%esi
    98dc:	89 c7                	mov    %eax,%edi
    98de:	e8 22 c3 ff ff       	callq  5c05 <safe_lshift_func_uint8_t_u_s>
    98e3:	84 c0                	test   %al,%al
    98e5:	75 07                	jne    98ee <func_26+0xaa8>
    98e7:	83 bd 84 f9 ff ff 00 	cmpl   $0x0,-0x67c(%rbp)
    98ee:	8b 85 a4 f9 ff ff    	mov    -0x65c(%rbp),%eax
    98f4:	89 85 4c f9 ff ff    	mov    %eax,-0x6b4(%rbp)
    98fa:	8b 85 4c f9 ff ff    	mov    -0x6b4(%rbp),%eax
    9900:	0f b7 d0             	movzwl %ax,%edx
    9903:	0f b7 05 2a b8 00 00 	movzwl 0xb82a(%rip),%eax        # 15134 <g_186+0x14>
    990a:	0f bf c8             	movswl %ax,%ecx
    990d:	48 8b 05 74 c4 00 00 	mov    0xc474(%rip),%rax        # 15d88 <g_500+0x8>
    9914:	48 c1 e8 22          	shr    $0x22,%rax
    9918:	66 25 ff 03          	and    $0x3ff,%ax
    991c:	0f b7 c0             	movzwl %ax,%eax
    991f:	39 c1                	cmp    %eax,%ecx
    9921:	0f 9e c0             	setle  %al
    9924:	0f b6 c0             	movzbl %al,%eax
    9927:	89 d6                	mov    %edx,%esi
    9929:	89 c7                	mov    %eax,%edi
    992b:	e8 0d c4 ff ff       	callq  5d3d <safe_mul_func_uint16_t_u_u>
    9930:	0f b7 d0             	movzwl %ax,%edx
    9933:	48 8b 05 fe ea 00 00 	mov    0xeafe(%rip),%rax        # 18438 <g_1140>
    993a:	48 85 c0             	test   %rax,%rax
    993d:	0f 94 c0             	sete   %al
    9940:	0f b6 c0             	movzbl %al,%eax
    9943:	39 c2                	cmp    %eax,%edx
    9945:	0f 8f 31 03 00 00    	jg     9c7c <func_26+0xe36>
    994b:	48 8d 05 e6 df 00 00 	lea    0xdfe6(%rip),%rax        # 17938 <g_868+0x18>
    9952:	48 89 85 90 fc ff ff 	mov    %rax,-0x370(%rbp)
    9959:	48 8d 05 d8 df 00 00 	lea    0xdfd8(%rip),%rax        # 17938 <g_868+0x18>
    9960:	48 89 85 98 fc ff ff 	mov    %rax,-0x368(%rbp)
    9967:	48 8d 05 ca df 00 00 	lea    0xdfca(%rip),%rax        # 17938 <g_868+0x18>
    996e:	48 89 85 a0 fc ff ff 	mov    %rax,-0x360(%rbp)
    9975:	48 8d 05 bc df 00 00 	lea    0xdfbc(%rip),%rax        # 17938 <g_868+0x18>
    997c:	48 89 85 a8 fc ff ff 	mov    %rax,-0x358(%rbp)
    9983:	48 8d 05 ae df 00 00 	lea    0xdfae(%rip),%rax        # 17938 <g_868+0x18>
    998a:	48 89 85 b0 fc ff ff 	mov    %rax,-0x350(%rbp)
    9991:	48 8d 05 a0 df 00 00 	lea    0xdfa0(%rip),%rax        # 17938 <g_868+0x18>
    9998:	48 89 85 b8 fc ff ff 	mov    %rax,-0x348(%rbp)
    999f:	48 8d 05 92 df 00 00 	lea    0xdf92(%rip),%rax        # 17938 <g_868+0x18>
    99a6:	48 89 85 c0 fc ff ff 	mov    %rax,-0x340(%rbp)
    99ad:	48 8d 05 84 df 00 00 	lea    0xdf84(%rip),%rax        # 17938 <g_868+0x18>
    99b4:	48 89 85 c8 fc ff ff 	mov    %rax,-0x338(%rbp)
    99bb:	48 8d 05 76 df 00 00 	lea    0xdf76(%rip),%rax        # 17938 <g_868+0x18>
    99c2:	48 89 85 d0 fc ff ff 	mov    %rax,-0x330(%rbp)
    99c9:	48 8d 05 68 df 00 00 	lea    0xdf68(%rip),%rax        # 17938 <g_868+0x18>
    99d0:	48 89 85 d8 fc ff ff 	mov    %rax,-0x328(%rbp)
    99d7:	48 8d 85 90 fc ff ff 	lea    -0x370(%rbp),%rax
    99de:	48 83 c0 20          	add    $0x20,%rax
    99e2:	48 89 85 10 fb ff ff 	mov    %rax,-0x4f0(%rbp)
    99e9:	c7 85 80 fe ff ff 3f 	movl   $0x6814d73f,-0x180(%rbp)
    99f0:	d7 14 68 
    99f3:	c7 85 84 fe ff ff 3f 	movl   $0x6814d73f,-0x17c(%rbp)
    99fa:	d7 14 68 
    99fd:	c7 85 88 fe ff ff 3f 	movl   $0x6814d73f,-0x178(%rbp)
    9a04:	d7 14 68 
    9a07:	c7 85 8c fe ff ff 3f 	movl   $0x6814d73f,-0x174(%rbp)
    9a0e:	d7 14 68 
    9a11:	c7 85 90 fe ff ff 3f 	movl   $0x6814d73f,-0x170(%rbp)
    9a18:	d7 14 68 
    9a1b:	c7 85 94 fe ff ff 3f 	movl   $0x6814d73f,-0x16c(%rbp)
    9a22:	d7 14 68 
    9a25:	c7 85 98 fe ff ff 3f 	movl   $0x6814d73f,-0x168(%rbp)
    9a2c:	d7 14 68 
    9a2f:	c7 85 9c fe ff ff 3f 	movl   $0x6814d73f,-0x164(%rbp)
    9a36:	d7 14 68 
    9a39:	c7 85 a0 fe ff ff 3f 	movl   $0x6814d73f,-0x160(%rbp)
    9a40:	d7 14 68 
    9a43:	c7 85 a4 fe ff ff 3f 	movl   $0x6814d73f,-0x15c(%rbp)
    9a4a:	d7 14 68 
    9a4d:	c7 85 a8 fe ff ff 3f 	movl   $0x6814d73f,-0x158(%rbp)
    9a54:	d7 14 68 
    9a57:	c7 85 ac fe ff ff 3f 	movl   $0x6814d73f,-0x154(%rbp)
    9a5e:	d7 14 68 
    9a61:	c7 85 b0 fe ff ff 3f 	movl   $0x6814d73f,-0x150(%rbp)
    9a68:	d7 14 68 
    9a6b:	c7 85 b4 fe ff ff 3f 	movl   $0x6814d73f,-0x14c(%rbp)
    9a72:	d7 14 68 
    9a75:	c7 85 b8 fe ff ff 3f 	movl   $0x6814d73f,-0x148(%rbp)
    9a7c:	d7 14 68 
    9a7f:	c7 85 bc fe ff ff 3f 	movl   $0x6814d73f,-0x144(%rbp)
    9a86:	d7 14 68 
    9a89:	c7 85 c0 fe ff ff 3f 	movl   $0x6814d73f,-0x140(%rbp)
    9a90:	d7 14 68 
    9a93:	c7 85 c4 fe ff ff 3f 	movl   $0x6814d73f,-0x13c(%rbp)
    9a9a:	d7 14 68 
    9a9d:	c7 85 c8 fe ff ff 3f 	movl   $0x6814d73f,-0x138(%rbp)
    9aa4:	d7 14 68 
    9aa7:	c7 85 cc fe ff ff 3f 	movl   $0x6814d73f,-0x134(%rbp)
    9aae:	d7 14 68 
    9ab1:	c7 85 d0 fe ff ff 3f 	movl   $0x6814d73f,-0x130(%rbp)
    9ab8:	d7 14 68 
    9abb:	c7 85 d4 fe ff ff 3f 	movl   $0x6814d73f,-0x12c(%rbp)
    9ac2:	d7 14 68 
    9ac5:	c7 85 d8 fe ff ff 3f 	movl   $0x6814d73f,-0x128(%rbp)
    9acc:	d7 14 68 
    9acf:	c7 85 dc fe ff ff 3f 	movl   $0x6814d73f,-0x124(%rbp)
    9ad6:	d7 14 68 
    9ad9:	c7 85 e0 fe ff ff 3f 	movl   $0x6814d73f,-0x120(%rbp)
    9ae0:	d7 14 68 
    9ae3:	c7 85 e4 fe ff ff 3f 	movl   $0x6814d73f,-0x11c(%rbp)
    9aea:	d7 14 68 
    9aed:	c7 85 e8 fe ff ff 3f 	movl   $0x6814d73f,-0x118(%rbp)
    9af4:	d7 14 68 
    9af7:	c7 85 ec fe ff ff 3f 	movl   $0x6814d73f,-0x114(%rbp)
    9afe:	d7 14 68 
    9b01:	c7 85 f0 fe ff ff 3f 	movl   $0x6814d73f,-0x110(%rbp)
    9b08:	d7 14 68 
    9b0b:	c7 85 f4 fe ff ff 3f 	movl   $0x6814d73f,-0x10c(%rbp)
    9b12:	d7 14 68 
    9b15:	c7 85 f8 fe ff ff 3f 	movl   $0x6814d73f,-0x108(%rbp)
    9b1c:	d7 14 68 
    9b1f:	c7 85 fc fe ff ff 3f 	movl   $0x6814d73f,-0x104(%rbp)
    9b26:	d7 14 68 
    9b29:	c7 85 00 ff ff ff 3f 	movl   $0x6814d73f,-0x100(%rbp)
    9b30:	d7 14 68 
    9b33:	c7 85 04 ff ff ff 3f 	movl   $0x6814d73f,-0xfc(%rbp)
    9b3a:	d7 14 68 
    9b3d:	c7 85 08 ff ff ff 3f 	movl   $0x6814d73f,-0xf8(%rbp)
    9b44:	d7 14 68 
    9b47:	c7 85 0c ff ff ff 3f 	movl   $0x6814d73f,-0xf4(%rbp)
    9b4e:	d7 14 68 
    9b51:	c7 85 10 ff ff ff 3f 	movl   $0x6814d73f,-0xf0(%rbp)
    9b58:	d7 14 68 
    9b5b:	c7 85 14 ff ff ff 3f 	movl   $0x6814d73f,-0xec(%rbp)
    9b62:	d7 14 68 
    9b65:	c7 85 18 ff ff ff 3f 	movl   $0x6814d73f,-0xe8(%rbp)
    9b6c:	d7 14 68 
    9b6f:	c7 85 1c ff ff ff 3f 	movl   $0x6814d73f,-0xe4(%rbp)
    9b76:	d7 14 68 
    9b79:	c7 85 20 ff ff ff 3f 	movl   $0x6814d73f,-0xe0(%rbp)
    9b80:	d7 14 68 
    9b83:	c7 85 24 ff ff ff 3f 	movl   $0x6814d73f,-0xdc(%rbp)
    9b8a:	d7 14 68 
    9b8d:	c7 85 28 ff ff ff 3f 	movl   $0x6814d73f,-0xd8(%rbp)
    9b94:	d7 14 68 
    9b97:	c7 85 2c ff ff ff 3f 	movl   $0x6814d73f,-0xd4(%rbp)
    9b9e:	d7 14 68 
    9ba1:	c7 85 30 ff ff ff 3f 	movl   $0x6814d73f,-0xd0(%rbp)
    9ba8:	d7 14 68 
    9bab:	c7 85 34 ff ff ff 3f 	movl   $0x6814d73f,-0xcc(%rbp)
    9bb2:	d7 14 68 
    9bb5:	c7 85 38 ff ff ff 3f 	movl   $0x6814d73f,-0xc8(%rbp)
    9bbc:	d7 14 68 
    9bbf:	c7 85 3c ff ff ff 3f 	movl   $0x6814d73f,-0xc4(%rbp)
    9bc6:	d7 14 68 
    9bc9:	c7 85 40 ff ff ff 3f 	movl   $0x6814d73f,-0xc0(%rbp)
    9bd0:	d7 14 68 
    9bd3:	c7 85 44 ff ff ff 3f 	movl   $0x6814d73f,-0xbc(%rbp)
    9bda:	d7 14 68 
    9bdd:	c7 85 48 ff ff ff 3f 	movl   $0x6814d73f,-0xb8(%rbp)
    9be4:	d7 14 68 
    9be7:	c7 85 4c ff ff ff 3f 	movl   $0x6814d73f,-0xb4(%rbp)
    9bee:	d7 14 68 
    9bf1:	c7 85 50 ff ff ff 3f 	movl   $0x6814d73f,-0xb0(%rbp)
    9bf8:	d7 14 68 
    9bfb:	c7 85 54 ff ff ff 3f 	movl   $0x6814d73f,-0xac(%rbp)
    9c02:	d7 14 68 
    9c05:	48 c7 85 18 fb ff ff 	movq   $0x0,-0x4e8(%rbp)
    9c0c:	00 00 00 00 
    9c10:	c7 85 f0 f9 ff ff 06 	movl   $0x6,-0x610(%rbp)
    9c17:	00 00 00 
    9c1a:	48 8b 05 ef d6 00 00 	mov    0xd6ef(%rip),%rax        # 17310 <g_92>
    9c21:	48 8d 95 4c f9 ff ff 	lea    -0x6b4(%rbp),%rdx
    9c28:	48 89 10             	mov    %rdx,(%rax)
    9c2b:	8b 95 34 ff ff ff    	mov    -0xcc(%rbp),%edx
    9c31:	48 8b 85 28 fa ff ff 	mov    -0x5d8(%rbp),%rax
    9c38:	89 d2                	mov    %edx,%edx
    9c3a:	48 89 10             	mov    %rdx,(%rax)
    9c3d:	48 8b 00             	mov    (%rax),%rax
    9c40:	48 c7 c6 fe ff ff ff 	mov    $0xfffffffffffffffe,%rsi
    9c47:	48 89 c7             	mov    %rax,%rdi
    9c4a:	e8 fc c3 ff ff       	callq  604b <safe_sub_func_uint64_t_u_u>
    9c4f:	89 c2                	mov    %eax,%edx
    9c51:	8b 05 bd c2 00 00    	mov    0xc2bd(%rip),%eax        # 15f14 <g_996>
    9c57:	0f b7 c0             	movzwl %ax,%eax
    9c5a:	89 d6                	mov    %edx,%esi
    9c5c:	89 c7                	mov    %eax,%edi
    9c5e:	e8 e5 c1 ff ff       	callq  5e48 <safe_rshift_func_uint16_t_u_s>
    9c63:	c7 85 f0 f9 ff ff 01 	movl   $0x1,-0x610(%rbp)
    9c6a:	00 00 00 
    9c6d:	c7 05 9d c2 00 00 00 	movl   $0x0,0xc29d(%rip)        # 15f14 <g_996>
    9c74:	00 00 00 
    9c77:	e9 a9 0c 00 00       	jmpq   a925 <func_26+0x1adf>
    9c7c:	48 c7 85 b0 fa ff ff 	movq   $0x0,-0x550(%rbp)
    9c83:	00 00 00 00 
    9c87:	48 8d 05 e6 b3 00 00 	lea    0xb3e6(%rip),%rax        # 15074 <g_83+0x34>
    9c8e:	48 89 85 b8 fa ff ff 	mov    %rax,-0x548(%rbp)
    9c95:	c7 85 58 f9 ff ff 62 	movl   $0x7059a162,-0x6a8(%rbp)
    9c9c:	a1 59 70 
    9c9f:	c7 85 b8 f9 ff ff 00 	movl   $0x0,-0x648(%rbp)
    9ca6:	00 00 00 
    9ca9:	c7 85 bc f9 ff ff 46 	movl   $0xed5c246,-0x644(%rbp)
    9cb0:	c2 d5 0e 
    9cb3:	c7 85 c0 f9 ff ff fb 	movl   $0xfffffffb,-0x640(%rbp)
    9cba:	ff ff ff 
    9cbd:	c7 85 c4 f9 ff ff cb 	movl   $0x9104bdcb,-0x63c(%rbp)
    9cc4:	bd 04 91 
    9cc7:	c7 85 c8 f9 ff ff ff 	movl   $0xffffffff,-0x638(%rbp)
    9cce:	ff ff ff 
    9cd1:	66 c7 85 48 f9 ff ff 	movw   $0x4872,-0x6b8(%rbp)
    9cd8:	72 48 
    9cda:	48 8d 05 90 c2 00 00 	lea    0xc290(%rip),%rax        # 15f71 <g_1304+0x11>
    9ce1:	48 89 85 c0 fa ff ff 	mov    %rax,-0x540(%rbp)
    9ce8:	48 8b 85 b8 fa ff ff 	mov    -0x548(%rbp),%rax
    9cef:	c7 00 01 00 00 00    	movl   $0x1,(%rax)
    9cf5:	48 8d 05 14 e7 00 00 	lea    0xe714(%rip),%rax        # 18410 <g_445>
    9cfc:	48 89 85 c8 fa ff ff 	mov    %rax,-0x538(%rbp)
    9d03:	c7 85 cc f9 ff ff 99 	movl   $0x8df09a99,-0x634(%rbp)
    9d0a:	9a f0 8d 
    9d0d:	c7 85 d0 f9 ff ff 00 	movl   $0x3e0bfa00,-0x630(%rbp)
    9d14:	fa 0b 3e 
    9d17:	c7 85 d4 f9 ff ff db 	movl   $0x3eb6b1db,-0x62c(%rbp)
    9d1e:	b1 b6 3e 
    9d21:	48 8d 05 6c b3 00 00 	lea    0xb36c(%rip),%rax        # 15094 <g_83+0x54>
    9d28:	48 89 85 d0 fa ff ff 	mov    %rax,-0x530(%rbp)
    9d2f:	c7 85 7c f9 ff ff 00 	movl   $0x0,-0x684(%rbp)
    9d36:	00 00 00 
    9d39:	eb 1a                	jmp    9d55 <func_26+0xf0f>
    9d3b:	8b 85 7c f9 ff ff    	mov    -0x684(%rbp),%eax
    9d41:	48 98                	cltq   
    9d43:	c7 84 85 48 fb ff ff 	movl   $0x839c65ff,-0x4b8(%rbp,%rax,4)
    9d4a:	ff 65 9c 83 
    9d4e:	83 85 7c f9 ff ff 01 	addl   $0x1,-0x684(%rbp)
    9d55:	83 bd 7c f9 ff ff 00 	cmpl   $0x0,-0x684(%rbp)
    9d5c:	7e dd                	jle    9d3b <func_26+0xef5>
    9d5e:	48 8b 85 20 f9 ff ff 	mov    -0x6e0(%rbp),%rax
    9d65:	89 c3                	mov    %eax,%ebx
    9d67:	0f b6 85 2c f9 ff ff 	movzbl -0x6d4(%rbp),%eax
    9d6e:	84 c0                	test   %al,%al
    9d70:	75 13                	jne    9d85 <func_26+0xf3f>
    9d72:	0f b7 05 37 c0 00 00 	movzwl 0xc037(%rip),%eax        # 15db0 <g_644>
    9d79:	c1 e0 03             	shl    $0x3,%eax
    9d7c:	66 c1 f8 03          	sar    $0x3,%ax
    9d80:	66 85 c0             	test   %ax,%ax
    9d83:	74 07                	je     9d8c <func_26+0xf46>
    9d85:	b8 01 00 00 00       	mov    $0x1,%eax
    9d8a:	eb 05                	jmp    9d91 <func_26+0xf4b>
    9d8c:	b8 00 00 00 00       	mov    $0x0,%eax
    9d91:	35 d8 39 00 00       	xor    $0x39d8,%eax
    9d96:	48 63 d0             	movslq %eax,%rdx
    9d99:	48 8b 85 20 f9 ff ff 	mov    -0x6e0(%rbp),%rax
    9da0:	48 89 d6             	mov    %rdx,%rsi
    9da3:	48 89 c7             	mov    %rax,%rdi
    9da6:	e8 04 c3 ff ff       	callq  60af <safe_div_func_uint64_t_u_u>
    9dab:	0f b6 95 2c f9 ff ff 	movzbl -0x6d4(%rbp),%edx
    9db2:	0f b6 d2             	movzbl %dl,%edx
    9db5:	48 39 d0             	cmp    %rdx,%rax
    9db8:	0f 97 c0             	seta   %al
    9dbb:	0f b6 c0             	movzbl %al,%eax
    9dbe:	89 de                	mov    %ebx,%esi
    9dc0:	89 c7                	mov    %eax,%edi
    9dc2:	e8 38 b9 ff ff       	callq  56ff <safe_div_func_int32_t_s_s>
    9dc7:	48 8b 05 f2 d9 00 00 	mov    0xd9f2(%rip),%rax        # 177c0 <g_552>
    9dce:	48 8b 10             	mov    (%rax),%rdx
    9dd1:	48 8b 85 50 fb ff ff 	mov    -0x4b0(%rbp),%rax
    9dd8:	48 39 c2             	cmp    %rax,%rdx
    9ddb:	0f 95 c0             	setne  %al
    9dde:	0f b6 d8             	movzbl %al,%ebx
    9de1:	48 83 bd c8 fa ff ff 	cmpq   $0x0,-0x538(%rbp)
    9de8:	00 
    9de9:	75 0a                	jne    9df5 <func_26+0xfaf>
    9deb:	48 83 bd 20 f9 ff ff 	cmpq   $0x0,-0x6e0(%rbp)
    9df2:	00 
    9df3:	74 07                	je     9dfc <func_26+0xfb6>
    9df5:	b8 01 00 00 00       	mov    $0x1,%eax
    9dfa:	eb 05                	jmp    9e01 <func_26+0xfbb>
    9dfc:	b8 00 00 00 00       	mov    $0x0,%eax
    9e01:	83 f8 ff             	cmp    $0xffffffff,%eax
    9e04:	0f 9c c0             	setl   %al
    9e07:	0f b6 d0             	movzbl %al,%edx
    9e0a:	48 8b 85 20 f9 ff ff 	mov    -0x6e0(%rbp),%rax
    9e11:	98                   	cwtl   
    9e12:	89 d6                	mov    %edx,%esi
    9e14:	89 c7                	mov    %eax,%edi
    9e16:	e8 b8 b5 ff ff       	callq  53d3 <safe_sub_func_int16_t_s_s>
    9e1b:	0f be c0             	movsbl %al,%eax
    9e1e:	89 de                	mov    %ebx,%esi
    9e20:	89 c7                	mov    %eax,%edi
    9e22:	e8 cb b3 ff ff       	callq  51f2 <safe_sub_func_int8_t_s_s>
    9e27:	84 c0                	test   %al,%al
    9e29:	0f 84 d6 07 00 00    	je     a605 <func_26+0x17bf>
    9e2f:	c7 85 dc f9 ff ff da 	movl   $0x789ddcda,-0x624(%rbp)
    9e36:	dc 9d 78 
    9e39:	c7 85 68 f9 ff ff 9c 	movl   $0xfe30339c,-0x698(%rbp)
    9e40:	33 30 fe 
    9e43:	c7 85 e0 f9 ff ff 1d 	movl   $0xdd27881d,-0x620(%rbp)
    9e4a:	88 27 dd 
    9e4d:	c7 85 e4 f9 ff ff fe 	movl   $0xfffffffe,-0x61c(%rbp)
    9e54:	ff ff ff 
    9e57:	c7 85 6c f9 ff ff e1 	movl   $0xc5f99ce1,-0x694(%rbp)
    9e5e:	9c f9 c5 
    9e61:	48 8d 05 a8 d4 00 00 	lea    0xd4a8(%rip),%rax        # 17310 <g_92>
    9e68:	48 89 85 f0 fa ff ff 	mov    %rax,-0x510(%rbp)
    9e6f:	48 c7 85 f8 fa ff ff 	movq   $0x0,-0x508(%rbp)
    9e76:	00 00 00 00 
    9e7a:	48 8d 05 5f b2 00 00 	lea    0xb25f(%rip),%rax        # 150e0 <g_125>
    9e81:	48 89 85 00 fb ff ff 	mov    %rax,-0x500(%rbp)
    9e88:	c7 85 5c f9 ff ff 00 	movl   $0x0,-0x6a4(%rbp)
    9e8f:	00 00 00 
    9e92:	eb 1a                	jmp    9eae <func_26+0x1068>
    9e94:	8b 85 5c f9 ff ff    	mov    -0x6a4(%rbp),%eax
    9e9a:	48 98                	cltq   
    9e9c:	c7 84 85 4c fb ff ff 	movl   $0xacb79626,-0x4b4(%rbp,%rax,4)
    9ea3:	26 96 b7 ac 
    9ea7:	83 85 5c f9 ff ff 01 	addl   $0x1,-0x6a4(%rbp)
    9eae:	83 bd 5c f9 ff ff 00 	cmpl   $0x0,-0x6a4(%rbp)
    9eb5:	7e dd                	jle    9e94 <func_26+0x104e>
    9eb7:	c7 05 67 b1 00 00 e4 	movl   $0xffffffe4,0xb167(%rip)        # 15028 <g_58>
    9ebe:	ff ff ff 
    9ec1:	e9 f6 02 00 00       	jmpq   a1bc <func_26+0x1376>
    9ec6:	48 8d 05 63 b1 00 00 	lea    0xb163(%rip),%rax        # 15030 <g_78>
    9ecd:	48 89 85 08 fb ff ff 	mov    %rax,-0x4f8(%rbp)
    9ed4:	48 8d 85 80 fe ff ff 	lea    -0x180(%rbp),%rax
    9edb:	48 8d 15 1e c7 00 00 	lea    0xc71e(%rip),%rdx        # 16600 <g_2069+0x40c>
    9ee2:	b9 28 00 00 00       	mov    $0x28,%ecx
    9ee7:	48 89 c7             	mov    %rax,%rdi
    9eea:	48 89 d6             	mov    %rdx,%rsi
    9eed:	f3 48 a5             	rep movsq %ds:(%rsi),%es:(%rdi)
    9ef0:	48 8d 05 f1 b1 00 00 	lea    0xb1f1(%rip),%rax        # 150e8 <g_158>
    9ef7:	48 89 85 90 fc ff ff 	mov    %rax,-0x370(%rbp)
    9efe:	48 8d 05 e3 b1 00 00 	lea    0xb1e3(%rip),%rax        # 150e8 <g_158>
    9f05:	48 89 85 98 fc ff ff 	mov    %rax,-0x368(%rbp)
    9f0c:	48 8d 05 d5 b1 00 00 	lea    0xb1d5(%rip),%rax        # 150e8 <g_158>
    9f13:	48 89 85 a0 fc ff ff 	mov    %rax,-0x360(%rbp)
    9f1a:	48 8d 05 c7 b1 00 00 	lea    0xb1c7(%rip),%rax        # 150e8 <g_158>
    9f21:	48 89 85 a8 fc ff ff 	mov    %rax,-0x358(%rbp)
    9f28:	48 8d 05 b9 b1 00 00 	lea    0xb1b9(%rip),%rax        # 150e8 <g_158>
    9f2f:	48 89 85 b0 fc ff ff 	mov    %rax,-0x350(%rbp)
    9f36:	48 8d 05 ab b1 00 00 	lea    0xb1ab(%rip),%rax        # 150e8 <g_158>
    9f3d:	48 89 85 b8 fc ff ff 	mov    %rax,-0x348(%rbp)
    9f44:	48 8d 05 9d b1 00 00 	lea    0xb19d(%rip),%rax        # 150e8 <g_158>
    9f4b:	48 89 85 c0 fc ff ff 	mov    %rax,-0x340(%rbp)
    9f52:	48 8d 05 8f b1 00 00 	lea    0xb18f(%rip),%rax        # 150e8 <g_158>
    9f59:	48 89 85 c8 fc ff ff 	mov    %rax,-0x338(%rbp)
    9f60:	48 8d 05 81 b1 00 00 	lea    0xb181(%rip),%rax        # 150e8 <g_158>
    9f67:	48 89 85 d0 fc ff ff 	mov    %rax,-0x330(%rbp)
    9f6e:	c7 85 60 f9 ff ff 00 	movl   $0x0,-0x6a0(%rbp)
    9f75:	00 00 00 
    9f78:	eb 21                	jmp    9f9b <func_26+0x1155>
    9f7a:	8b 85 60 f9 ff ff    	mov    -0x6a0(%rbp),%eax
    9f80:	48 98                	cltq   
    9f82:	48 bb 87 47 4c 33 43 	movabs $0x14626f43334c4787,%rbx
    9f89:	6f 62 14 
    9f8c:	48 89 9c c5 10 fc ff 	mov    %rbx,-0x3f0(%rbp,%rax,8)
    9f93:	ff 
    9f94:	83 85 60 f9 ff ff 01 	addl   $0x1,-0x6a0(%rbp)
    9f9b:	83 bd 60 f9 ff ff 06 	cmpl   $0x6,-0x6a0(%rbp)
    9fa2:	7e d6                	jle    9f7a <func_26+0x1134>
    9fa4:	83 ad 68 f9 ff ff 01 	subl   $0x1,-0x698(%rbp)
    9fab:	8b 85 50 f9 ff ff    	mov    -0x6b0(%rbp),%eax
    9fb1:	83 e8 01             	sub    $0x1,%eax
    9fb4:	89 85 50 f9 ff ff    	mov    %eax,-0x6b0(%rbp)
    9fba:	48 8b 85 48 fa ff ff 	mov    -0x5b8(%rbp),%rax
    9fc1:	48 8b 95 d0 fa ff ff 	mov    -0x530(%rbp),%rdx
    9fc8:	48 89 10             	mov    %rdx,(%rax)
    9fcb:	8b 85 48 fb ff ff    	mov    -0x4b8(%rbp),%eax
    9fd1:	0f bf d8             	movswl %ax,%ebx
    9fd4:	0f b6 85 2c f9 ff ff 	movzbl -0x6d4(%rbp),%eax
    9fdb:	44 0f b6 e0          	movzbl %al,%r12d
    9fdf:	8b 05 1b e4 00 00    	mov    0xe41b(%rip),%eax        # 18400 <g_2+0x10>
    9fe5:	44 0f bf e8          	movswl %ax,%r13d
    9fe9:	0f b6 85 2c f9 ff ff 	movzbl -0x6d4(%rbp),%eax
    9ff0:	44 0f b6 f8          	movzbl %al,%r15d
    9ff4:	48 8b 85 d0 fa ff ff 	mov    -0x530(%rbp),%rax
    9ffb:	44 8b 30             	mov    (%rax),%r14d
    9ffe:	48 8b 85 50 fa ff ff 	mov    -0x5b0(%rbp),%rax
    a005:	48 3b 85 90 fa ff ff 	cmp    -0x570(%rbp),%rax
    a00c:	0f 94 c0             	sete   %al
    a00f:	0f b6 d0             	movzbl %al,%edx
    a012:	0f b6 85 2c f9 ff ff 	movzbl -0x6d4(%rbp),%eax
    a019:	0f be c0             	movsbl %al,%eax
    a01c:	89 d6                	mov    %edx,%esi
    a01e:	89 c7                	mov    %eax,%edi
    a020:	e8 ed b1 ff ff       	callq  5212 <safe_mul_func_int8_t_s_s>
    a025:	f7 d0                	not    %eax
    a027:	0f be c0             	movsbl %al,%eax
    a02a:	44 89 f6             	mov    %r14d,%esi
    a02d:	89 c7                	mov    %eax,%edi
    a02f:	e8 6d b2 ff ff       	callq  52a1 <safe_lshift_func_int8_t_s_s>
    a034:	bf 01 00 00 00       	mov    $0x1,%edi
    a039:	e8 d8 b7 ff ff       	callq  5816 <safe_unary_minus_func_int64_t_s>
    a03e:	48 8b 95 08 fb ff ff 	mov    -0x4f8(%rbp),%rdx
    a045:	8b 12                	mov    (%rdx),%edx
    a047:	21 c2                	and    %eax,%edx
    a049:	48 8b 85 08 fb ff ff 	mov    -0x4f8(%rbp),%rax
    a050:	89 10                	mov    %edx,(%rax)
    a052:	b8 c1 53 90 64       	mov    $0x649053c1,%eax
    a057:	21 85 6c f9 ff ff    	and    %eax,-0x694(%rbp)
    a05d:	8b 85 6c f9 ff ff    	mov    -0x694(%rbp),%eax
    a063:	be 00 00 00 00       	mov    $0x0,%esi
    a068:	89 c7                	mov    %eax,%edi
    a06a:	e8 d3 b5 ff ff       	callq  5642 <safe_mul_func_int32_t_s_s>
    a06f:	48 98                	cltq   
    a071:	48 39 85 20 f9 ff ff 	cmp    %rax,-0x6e0(%rbp)
    a078:	0f 95 c0             	setne  %al
    a07b:	0f b6 d0             	movzbl %al,%edx
    a07e:	0f b7 05 77 b0 00 00 	movzwl 0xb077(%rip),%eax        # 150fc <g_168+0xc>
    a085:	66 c1 e8 02          	shr    $0x2,%ax
    a089:	66 25 ff 03          	and    $0x3ff,%ax
    a08d:	89 c1                	mov    %eax,%ecx
    a08f:	89 d0                	mov    %edx,%eax
    a091:	09 c8                	or     %ecx,%eax
    a093:	66 25 ff 03          	and    $0x3ff,%ax
    a097:	66 25 ff 03          	and    $0x3ff,%ax
    a09b:	8d 14 85 00 00 00 00 	lea    0x0(,%rax,4),%edx
    a0a2:	0f b7 05 53 b0 00 00 	movzwl 0xb053(%rip),%eax        # 150fc <g_168+0xc>
    a0a9:	66 25 03 f0          	and    $0xf003,%ax
    a0ad:	09 d0                	or     %edx,%eax
    a0af:	66 89 05 46 b0 00 00 	mov    %ax,0xb046(%rip)        # 150fc <g_168+0xc>
    a0b6:	0f b7 05 3f b0 00 00 	movzwl 0xb03f(%rip),%eax        # 150fc <g_168+0xc>
    a0bd:	66 c1 e8 02          	shr    $0x2,%ax
    a0c1:	66 25 ff 03          	and    $0x3ff,%ax
    a0c5:	0f b7 c0             	movzwl %ax,%eax
    a0c8:	be f6 ff ff ff       	mov    $0xfffffff6,%esi
    a0cd:	89 c7                	mov    %eax,%edi
    a0cf:	e8 21 b3 ff ff       	callq  53f5 <safe_mul_func_int16_t_s_s>
    a0d4:	98                   	cwtl   
    a0d5:	41 39 c7             	cmp    %eax,%r15d
    a0d8:	0f 9c c2             	setl   %dl
    a0db:	48 8b 05 2e d2 00 00 	mov    0xd22e(%rip),%rax        # 17310 <g_92>
    a0e2:	48 8b 00             	mov    (%rax),%rax
    a0e5:	0f b6 d2             	movzbl %dl,%edx
    a0e8:	89 10                	mov    %edx,(%rax)
    a0ea:	8b 00                	mov    (%rax),%eax
    a0ec:	0f b6 c0             	movzbl %al,%eax
    a0ef:	83 e0 62             	and    $0x62,%eax
    a0f2:	41 89 c6             	mov    %eax,%r14d
    a0f5:	48 8b 05 74 d8 00 00 	mov    0xd874(%rip),%rax        # 17970 <g_1049>
    a0fc:	48 8b 00             	mov    (%rax),%rax
    a0ff:	0f b6 10             	movzbl (%rax),%edx
    a102:	83 c2 01             	add    $0x1,%edx
    a105:	88 10                	mov    %dl,(%rax)
    a107:	0f b6 00             	movzbl (%rax),%eax
    a10a:	0f b6 c0             	movzbl %al,%eax
    a10d:	89 c6                	mov    %eax,%esi
    a10f:	bf ff 00 00 00       	mov    $0xff,%edi
    a114:	e8 a5 bb ff ff       	callq  5cbe <safe_rshift_func_uint8_t_u_u>
    a119:	8b 85 4c fb ff ff    	mov    -0x4b4(%rbp),%eax
    a11f:	f7 d0                	not    %eax
    a121:	c1 e8 1f             	shr    $0x1f,%eax
    a124:	0f b6 c0             	movzbl %al,%eax
    a127:	44 89 f6             	mov    %r14d,%esi
    a12a:	89 c7                	mov    %eax,%edi
    a12c:	e8 62 ba ff ff       	callq  5b93 <safe_mul_func_uint8_t_u_u>
    a131:	0f b6 c0             	movzbl %al,%eax
    a134:	48 39 85 20 f9 ff ff 	cmp    %rax,-0x6e0(%rbp)
    a13b:	0f 94 c0             	sete   %al
    a13e:	0f b6 c0             	movzbl %al,%eax
    a141:	be ff ff ff ff       	mov    $0xffffffff,%esi
    a146:	89 c7                	mov    %eax,%edi
    a148:	e8 1d b1 ff ff       	callq  526a <safe_div_func_int8_t_s_s>
    a14d:	44 89 ee             	mov    %r13d,%esi
    a150:	bf 00 00 00 00       	mov    $0x0,%edi
    a155:	e8 9b b2 ff ff       	callq  53f5 <safe_mul_func_int16_t_s_s>
    a15a:	0f be c0             	movsbl %al,%eax
    a15d:	89 c7                	mov    %eax,%edi
    a15f:	e8 5b b0 ff ff       	callq  51bf <safe_unary_minus_func_int8_t_s>
    a164:	66 98                	cbtw   
    a166:	0f b7 c0             	movzwl %ax,%eax
    a169:	44 89 e6             	mov    %r12d,%esi
    a16c:	89 c7                	mov    %eax,%edi
    a16e:	e8 1b bc ff ff       	callq  5d8e <safe_div_func_uint16_t_u_u>
    a173:	0f b7 c0             	movzwl %ax,%eax
    a176:	be c5 71 00 00       	mov    $0x71c5,%esi
    a17b:	89 c7                	mov    %eax,%edi
    a17d:	e8 0c bc ff ff       	callq  5d8e <safe_div_func_uint16_t_u_u>
    a182:	98                   	cwtl   
    a183:	89 de                	mov    %ebx,%esi
    a185:	89 c7                	mov    %eax,%edi
    a187:	e8 c9 b2 ff ff       	callq  5455 <safe_div_func_int16_t_s_s>
    a18c:	0f b7 c0             	movzwl %ax,%eax
    a18f:	be 0a 7e 00 00       	mov    $0x7e0a,%esi
    a194:	89 c7                	mov    %eax,%edi
    a196:	e8 f3 bb ff ff       	callq  5d8e <safe_div_func_uint16_t_u_u>
    a19b:	0f b7 c0             	movzwl %ax,%eax
    a19e:	89 85 d4 f9 ff ff    	mov    %eax,-0x62c(%rbp)
    a1a4:	8b 05 7e ae 00 00    	mov    0xae7e(%rip),%eax        # 15028 <g_58>
    a1aa:	be 01 00 00 00       	mov    $0x1,%esi
    a1af:	89 c7                	mov    %eax,%edi
    a1b1:	e8 00 b4 ff ff       	callq  55b6 <safe_add_func_int32_t_s_s>
    a1b6:	89 05 6c ae 00 00    	mov    %eax,0xae6c(%rip)        # 15028 <g_58>
    a1bc:	8b 05 66 ae 00 00    	mov    0xae66(%rip),%eax        # 15028 <g_58>
    a1c2:	83 f8 fc             	cmp    $0xfffffffc,%eax
    a1c5:	0f 8d fb fc ff ff    	jge    9ec6 <func_26+0x1080>
    a1cb:	48 8b 05 3e bc 00 00 	mov    0xbc3e(%rip),%rax        # 15e10 <g_646+0x10>
    a1d2:	48 c1 e8 15          	shr    $0x15,%rax
    a1d6:	66 25 ff 3f          	and    $0x3fff,%ax
    a1da:	66 85 c0             	test   %ax,%ax
    a1dd:	0f 95 c0             	setne  %al
    a1e0:	0f b6 d0             	movzbl %al,%edx
    a1e3:	48 8b 85 40 fa ff ff 	mov    -0x5c0(%rbp),%rax
    a1ea:	0f b6 08             	movzbl (%rax),%ecx
    a1ed:	48 8b 85 d0 fa ff ff 	mov    -0x530(%rbp),%rax
    a1f4:	8b 00                	mov    (%rax),%eax
    a1f6:	21 c1                	and    %eax,%ecx
    a1f8:	48 8b 85 40 fa ff ff 	mov    -0x5c0(%rbp),%rax
    a1ff:	88 08                	mov    %cl,(%rax)
    a201:	48 8b 85 40 fa ff ff 	mov    -0x5c0(%rbp),%rax
    a208:	0f b6 00             	movzbl (%rax),%eax
    a20b:	0f be c0             	movsbl %al,%eax
    a20e:	89 d6                	mov    %edx,%esi
    a210:	89 c7                	mov    %eax,%edi
    a212:	e8 1a b0 ff ff       	callq  5231 <safe_mod_func_int8_t_s_s>
    a217:	0f b6 c0             	movzbl %al,%eax
    a21a:	89 c7                	mov    %eax,%edi
    a21c:	e8 24 b9 ff ff       	callq  5b45 <safe_unary_minus_func_uint8_t_u>
    a221:	84 c0                	test   %al,%al
    a223:	74 37                	je     a25c <func_26+0x1416>
    a225:	48 8b 05 ec d0 00 00 	mov    0xd0ec(%rip),%rax        # 17318 <g_91>
    a22c:	48 8b 00             	mov    (%rax),%rax
    a22f:	48 c7 00 00 00 00 00 	movq   $0x0,(%rax)
    a236:	48 8b 00             	mov    (%rax),%rax
    a239:	48 89 85 70 fb ff ff 	mov    %rax,-0x490(%rbp)
    a240:	48 8b 85 b8 fa ff ff 	mov    -0x548(%rbp),%rax
    a247:	8b 00                	mov    (%rax),%eax
    a249:	83 c8 01             	or     $0x1,%eax
    a24c:	89 c2                	mov    %eax,%edx
    a24e:	48 8b 85 b8 fa ff ff 	mov    -0x548(%rbp),%rax
    a255:	89 10                	mov    %edx,(%rax)
    a257:	e9 36 02 00 00       	jmpq   a492 <func_26+0x164c>
    a25c:	48 b8 6b 09 6b 6b 09 	movabs $0x96b6b096b6b096b,%rax
    a263:	6b 6b 09 
    a266:	48 89 85 90 fc ff ff 	mov    %rax,-0x370(%rbp)
    a26d:	66 c7 85 98 fc ff ff 	movw   $0x6b6b,-0x368(%rbp)
    a274:	6b 6b 
    a276:	c7 85 e8 f9 ff ff 9c 	movl   $0x531e79c,-0x618(%rbp)
    a27d:	e7 31 05 
    a280:	c7 85 ec f9 ff ff 05 	movl   $0x5,-0x614(%rbp)
    a287:	00 00 00 
    a28a:	c7 85 80 fe ff ff 8c 	movl   $0x82458b8c,-0x180(%rbp)
    a291:	8b 45 82 
    a294:	c7 85 84 fe ff ff 01 	movl   $0x1,-0x17c(%rbp)
    a29b:	00 00 00 
    a29e:	c7 85 88 fe ff ff 8c 	movl   $0x82458b8c,-0x178(%rbp)
    a2a5:	8b 45 82 
    a2a8:	c7 85 8c fe ff ff 01 	movl   $0x1,-0x174(%rbp)
    a2af:	00 00 00 
    a2b2:	c7 85 90 fe ff ff 8c 	movl   $0x82458b8c,-0x170(%rbp)
    a2b9:	8b 45 82 
    a2bc:	c7 85 94 fe ff ff 01 	movl   $0x1,-0x16c(%rbp)
    a2c3:	00 00 00 
    a2c6:	c7 85 98 fe ff ff 8c 	movl   $0x82458b8c,-0x168(%rbp)
    a2cd:	8b 45 82 
    a2d0:	c7 85 9c fe ff ff 01 	movl   $0x1,-0x164(%rbp)
    a2d7:	00 00 00 
    a2da:	c7 85 a0 fe ff ff 8c 	movl   $0x82458b8c,-0x160(%rbp)
    a2e1:	8b 45 82 
    a2e4:	c7 85 a4 fe ff ff 01 	movl   $0x1,-0x15c(%rbp)
    a2eb:	00 00 00 
    a2ee:	c7 85 a8 fe ff ff 8c 	movl   $0x82458b8c,-0x158(%rbp)
    a2f5:	8b 45 82 
    a2f8:	c7 85 ac fe ff ff 01 	movl   $0x1,-0x154(%rbp)
    a2ff:	00 00 00 
    a302:	c7 85 b0 fe ff ff 8c 	movl   $0x82458b8c,-0x150(%rbp)
    a309:	8b 45 82 
    a30c:	c7 85 b4 fe ff ff 01 	movl   $0x1,-0x14c(%rbp)
    a313:	00 00 00 
    a316:	c7 85 b8 fe ff ff 8c 	movl   $0x82458b8c,-0x148(%rbp)
    a31d:	8b 45 82 
    a320:	c7 85 bc fe ff ff 01 	movl   $0x1,-0x144(%rbp)
    a327:	00 00 00 
    a32a:	c7 85 c0 fe ff ff 8c 	movl   $0x82458b8c,-0x140(%rbp)
    a331:	8b 45 82 
    a334:	c7 85 c4 fe ff ff 01 	movl   $0x1,-0x13c(%rbp)
    a33b:	00 00 00 
    a33e:	c7 85 c8 fe ff ff 8c 	movl   $0x82458b8c,-0x138(%rbp)
    a345:	8b 45 82 
    a348:	c7 85 cc fe ff ff 01 	movl   $0x1,-0x134(%rbp)
    a34f:	00 00 00 
    a352:	c7 85 d0 fe ff ff 8c 	movl   $0x82458b8c,-0x130(%rbp)
    a359:	8b 45 82 
    a35c:	c7 85 d4 fe ff ff 01 	movl   $0x1,-0x12c(%rbp)
    a363:	00 00 00 
    a366:	c7 85 d8 fe ff ff 8c 	movl   $0x82458b8c,-0x128(%rbp)
    a36d:	8b 45 82 
    a370:	c7 85 dc fe ff ff 01 	movl   $0x1,-0x124(%rbp)
    a377:	00 00 00 
    a37a:	c7 85 e0 fe ff ff 8c 	movl   $0x82458b8c,-0x120(%rbp)
    a381:	8b 45 82 
    a384:	c7 85 e4 fe ff ff 01 	movl   $0x1,-0x11c(%rbp)
    a38b:	00 00 00 
    a38e:	c7 85 e8 fe ff ff 8c 	movl   $0x82458b8c,-0x118(%rbp)
    a395:	8b 45 82 
    a398:	c7 85 ec fe ff ff 01 	movl   $0x1,-0x114(%rbp)
    a39f:	00 00 00 
    a3a2:	c7 85 f0 fe ff ff 8c 	movl   $0x82458b8c,-0x110(%rbp)
    a3a9:	8b 45 82 
    a3ac:	c7 85 f4 fe ff ff 01 	movl   $0x1,-0x10c(%rbp)
    a3b3:	00 00 00 
    a3b6:	c7 85 f8 fe ff ff 8c 	movl   $0x82458b8c,-0x108(%rbp)
    a3bd:	8b 45 82 
    a3c0:	c7 85 fc fe ff ff 01 	movl   $0x1,-0x104(%rbp)
    a3c7:	00 00 00 
    a3ca:	c7 85 00 ff ff ff 8c 	movl   $0x82458b8c,-0x100(%rbp)
    a3d1:	8b 45 82 
    a3d4:	c7 85 04 ff ff ff 01 	movl   $0x1,-0xfc(%rbp)
    a3db:	00 00 00 
    a3de:	c7 85 08 ff ff ff 8c 	movl   $0x82458b8c,-0xf8(%rbp)
    a3e5:	8b 45 82 
    a3e8:	c7 85 0c ff ff ff 01 	movl   $0x1,-0xf4(%rbp)
    a3ef:	00 00 00 
    a3f2:	c7 85 10 ff ff ff 8c 	movl   $0x82458b8c,-0xf0(%rbp)
    a3f9:	8b 45 82 
    a3fc:	c7 85 14 ff ff ff 01 	movl   $0x1,-0xec(%rbp)
    a403:	00 00 00 
    a406:	c7 85 18 ff ff ff 8c 	movl   $0x82458b8c,-0xe8(%rbp)
    a40d:	8b 45 82 
    a410:	c7 85 1c ff ff ff 01 	movl   $0x1,-0xe4(%rbp)
    a417:	00 00 00 
    a41a:	c7 85 20 ff ff ff 8c 	movl   $0x82458b8c,-0xe0(%rbp)
    a421:	8b 45 82 
    a424:	c7 85 24 ff ff ff 01 	movl   $0x1,-0xdc(%rbp)
    a42b:	00 00 00 
    a42e:	c7 85 28 ff ff ff 8c 	movl   $0x82458b8c,-0xd8(%rbp)
    a435:	8b 45 82 
    a438:	c7 85 2c ff ff ff 01 	movl   $0x1,-0xd4(%rbp)
    a43f:	00 00 00 
    a442:	c7 85 30 ff ff ff 8c 	movl   $0x82458b8c,-0xd0(%rbp)
    a449:	8b 45 82 
    a44c:	c7 85 34 ff ff ff 01 	movl   $0x1,-0xcc(%rbp)
    a453:	00 00 00 
    a456:	c7 85 38 ff ff ff 8c 	movl   $0x82458b8c,-0xc8(%rbp)
    a45d:	8b 45 82 
    a460:	c7 85 3c ff ff ff 01 	movl   $0x1,-0xc4(%rbp)
    a467:	00 00 00 
    a46a:	0f b6 85 95 fc ff ff 	movzbl -0x36b(%rbp),%eax
    a471:	83 e8 01             	sub    $0x1,%eax
    a474:	88 85 95 fc ff ff    	mov    %al,-0x36b(%rbp)
    a47a:	48 8b 85 48 fa ff ff 	mov    -0x5b8(%rbp),%rax
    a481:	48 8d 95 58 f9 ff ff 	lea    -0x6a8(%rbp),%rdx
    a488:	48 89 10             	mov    %rdx,(%rax)
    a48b:	83 ad 90 f9 ff ff 01 	subl   $0x1,-0x670(%rbp)
    a492:	0f b6 85 2c f9 ff ff 	movzbl -0x6d4(%rbp),%eax
    a499:	0f b6 d8             	movzbl %al,%ebx
    a49c:	0f b6 85 2c f9 ff ff 	movzbl -0x6d4(%rbp),%eax
    a4a3:	0f b6 d0             	movzbl %al,%edx
    a4a6:	48 83 bd f8 fa ff ff 	cmpq   $0x0,-0x508(%rbp)
    a4ad:	00 
    a4ae:	0f 94 c0             	sete   %al
    a4b1:	0f b6 c0             	movzbl %al,%eax
    a4b4:	39 c2                	cmp    %eax,%edx
    a4b6:	0f 9c c0             	setl   %al
    a4b9:	0f b6 d0             	movzbl %al,%edx
    a4bc:	48 8b 85 20 f9 ff ff 	mov    -0x6e0(%rbp),%rax
    a4c3:	0f b6 c0             	movzbl %al,%eax
    a4c6:	89 d6                	mov    %edx,%esi
    a4c8:	89 c7                	mov    %eax,%edi
    a4ca:	e8 a9 b6 ff ff       	callq  5b78 <safe_sub_func_uint8_t_u_u>
    a4cf:	44 0f b6 e8          	movzbl %al,%r13d
    a4d3:	48 8b 85 20 f9 ff ff 	mov    -0x6e0(%rbp),%rax
    a4da:	44 0f be e0          	movsbl %al,%r12d
    a4de:	48 8b 85 d0 fa ff ff 	mov    -0x530(%rbp),%rax
    a4e5:	8b 00                	mov    (%rax),%eax
    a4e7:	4c 63 f0             	movslq %eax,%r14
    a4ea:	48 be 58 ea 7f 76 f8 	movabs $0x6ebfcaf8767fea58,%rsi
    a4f1:	ca bf 6e 
    a4f4:	bf 01 00 00 00       	mov    $0x1,%edi
    a4f9:	e8 82 bb ff ff       	callq  6080 <safe_mod_func_uint64_t_u_u>
    a4fe:	49 39 c6             	cmp    %rax,%r14
    a501:	0f 93 c0             	setae  %al
    a504:	0f b6 c0             	movzbl %al,%eax
    a507:	44 89 e6             	mov    %r12d,%esi
    a50a:	89 c7                	mov    %eax,%edi
    a50c:	e8 e1 ac ff ff       	callq  51f2 <safe_sub_func_int8_t_s_s>
    a511:	0f be c0             	movsbl %al,%eax
    a514:	be 64 44 00 00       	mov    $0x4464,%esi
    a519:	89 c7                	mov    %eax,%edi
    a51b:	e8 93 ae ff ff       	callq  53b3 <safe_add_func_int16_t_s_s>
    a520:	98                   	cwtl   
    a521:	41 39 c5             	cmp    %eax,%r13d
    a524:	ba 01 00 00 00       	mov    $0x1,%edx
    a529:	48 8b 85 40 fa ff ff 	mov    -0x5c0(%rbp),%rax
    a530:	0f b6 00             	movzbl (%rax),%eax
    a533:	21 c2                	and    %eax,%edx
    a535:	48 8b 85 40 fa ff ff 	mov    -0x5c0(%rbp),%rax
    a53c:	88 10                	mov    %dl,(%rax)
    a53e:	48 8b 85 40 fa ff ff 	mov    -0x5c0(%rbp),%rax
    a545:	0f b6 00             	movzbl (%rax),%eax
    a548:	66 98                	cbtw   
    a54a:	8b 15 f0 b4 00 00    	mov    0xb4f0(%rip),%edx        # 15a40 <g_409+0x220>
    a550:	c1 ea 0d             	shr    $0xd,%edx
    a553:	66 81 e2 ff 3f       	and    $0x3fff,%dx
    a558:	21 d0                	and    %edx,%eax
    a55a:	89 c2                	mov    %eax,%edx
    a55c:	48 8b 85 80 fa ff ff 	mov    -0x580(%rbp),%rax
    a563:	66 89 10             	mov    %dx,(%rax)
    a566:	48 8b 85 80 fa ff ff 	mov    -0x580(%rbp),%rax
    a56d:	0f b7 00             	movzwl (%rax),%eax
    a570:	0f b7 c0             	movzwl %ax,%eax
    a573:	89 c7                	mov    %eax,%edi
    a575:	e8 6f b7 ff ff       	callq  5ce9 <safe_unary_minus_func_uint16_t_u>
    a57a:	be ff ff ff ff       	mov    $0xffffffff,%esi
    a57f:	bf 01 00 00 00       	mov    $0x1,%edi
    a584:	e8 e1 ac ff ff       	callq  526a <safe_div_func_int8_t_s_s>
    a589:	48 8b 95 00 fb ff ff 	mov    -0x500(%rbp),%rdx
    a590:	48 8b 12             	mov    (%rdx),%rdx
    a593:	48 0f be c0          	movsbq %al,%rax
    a597:	48 21 c2             	and    %rax,%rdx
    a59a:	48 8b 85 00 fb ff ff 	mov    -0x500(%rbp),%rax
    a5a1:	48 89 10             	mov    %rdx,(%rax)
    a5a4:	48 8b 85 00 fb ff ff 	mov    -0x500(%rbp),%rax
    a5ab:	48 8b 00             	mov    (%rax),%rax
    a5ae:	48 ba 2d 8f aa 97 12 	movabs $0xf0ab4a1297aa8f2d,%rdx
    a5b5:	4a ab f0 
    a5b8:	48 39 d0             	cmp    %rdx,%rax
    a5bb:	0f 95 c0             	setne  %al
    a5be:	0f b6 c0             	movzbl %al,%eax
    a5c1:	48 89 de             	mov    %rbx,%rsi
    a5c4:	48 89 c7             	mov    %rax,%rdi
    a5c7:	e8 e3 ba ff ff       	callq  60af <safe_div_func_uint64_t_u_u>
    a5cc:	48 83 f8 39          	cmp    $0x39,%rax
    a5d0:	75 11                	jne    a5e3 <func_26+0x179d>
    a5d2:	8b 05 40 de 00 00    	mov    0xde40(%rip),%eax        # 18418 <g_534>
    a5d8:	85 c0                	test   %eax,%eax
    a5da:	74 07                	je     a5e3 <func_26+0x179d>
    a5dc:	ba 01 00 00 00       	mov    $0x1,%edx
    a5e1:	eb 05                	jmp    a5e8 <func_26+0x17a2>
    a5e3:	ba 00 00 00 00       	mov    $0x0,%edx
    a5e8:	48 8b 85 d0 fa ff ff 	mov    -0x530(%rbp),%rax
    a5ef:	8b 00                	mov    (%rax),%eax
    a5f1:	31 d0                	xor    %edx,%eax
    a5f3:	09 85 88 f9 ff ff    	or     %eax,-0x678(%rbp)
    a5f9:	48 8b 85 58 fa ff ff 	mov    -0x5a8(%rbp),%rax
    a600:	e9 60 04 00 00       	jmpq   aa65 <func_26+0x1c1f>
    a605:	48 c7 85 d8 fa ff ff 	movq   $0x1,-0x528(%rbp)
    a60c:	01 00 00 00 
    a610:	48 c7 85 38 fa ff ff 	movq   $0x0,-0x5c8(%rbp)
    a617:	00 00 00 00 
    a61b:	48 8d 85 38 fa ff ff 	lea    -0x5c8(%rbp),%rax
    a622:	48 89 85 e0 fa ff ff 	mov    %rax,-0x520(%rbp)
    a629:	c7 85 d8 f9 ff ff f8 	movl   $0x161d70f8,-0x628(%rbp)
    a630:	70 1d 16 
    a633:	48 8d 05 36 d3 00 00 	lea    0xd336(%rip),%rax        # 17970 <g_1049>
    a63a:	48 89 85 80 fe ff ff 	mov    %rax,-0x180(%rbp)
    a641:	48 8d 05 28 d3 00 00 	lea    0xd328(%rip),%rax        # 17970 <g_1049>
    a648:	48 89 85 88 fe ff ff 	mov    %rax,-0x178(%rbp)
    a64f:	48 8d 05 1a d3 00 00 	lea    0xd31a(%rip),%rax        # 17970 <g_1049>
    a656:	48 89 85 90 fe ff ff 	mov    %rax,-0x170(%rbp)
    a65d:	48 8d 05 0c d3 00 00 	lea    0xd30c(%rip),%rax        # 17970 <g_1049>
    a664:	48 89 85 98 fe ff ff 	mov    %rax,-0x168(%rbp)
    a66b:	48 8d 05 fe d2 00 00 	lea    0xd2fe(%rip),%rax        # 17970 <g_1049>
    a672:	48 89 85 a0 fe ff ff 	mov    %rax,-0x160(%rbp)
    a679:	c7 05 ed b6 00 00 00 	movl   $0x0,0xb6ed(%rip)        # 15d70 <g_462>
    a680:	00 00 00 
    a683:	e9 97 01 00 00       	jmpq   a81f <func_26+0x19d9>
    a688:	66 c7 85 4a f9 ff ff 	movw   $0x7,-0x6b6(%rbp)
    a68f:	07 00 
    a691:	48 8d 05 4c b9 00 00 	lea    0xb94c(%rip),%rax        # 15fe4 <g_1306+0x44>
    a698:	48 89 85 e8 fa ff ff 	mov    %rax,-0x518(%rbp)
    a69f:	8b 05 cb b6 00 00    	mov    0xb6cb(%rip),%eax        # 15d70 <g_462>
    a6a5:	48 98                	cltq   
    a6a7:	8b 84 85 48 fb ff ff 	mov    -0x4b8(%rbp,%rax,4),%eax
    a6ae:	89 c2                	mov    %eax,%edx
    a6b0:	48 8b 85 b8 fa ff ff 	mov    -0x548(%rbp),%rax
    a6b7:	89 10                	mov    %edx,(%rax)
    a6b9:	66 83 bd 48 f9 ff ff 	cmpw   $0x0,-0x6b8(%rbp)
    a6c0:	00 
    a6c1:	74 7f                	je     a742 <func_26+0x18fc>
    a6c3:	48 8b 85 c0 fa ff ff 	mov    -0x540(%rbp),%rax
    a6ca:	48 3b 85 e8 fa ff ff 	cmp    -0x518(%rbp),%rax
    a6d1:	0f 95 c0             	setne  %al
    a6d4:	0f b6 c0             	movzbl %al,%eax
    a6d7:	be ff ff ff ff       	mov    $0xffffffff,%esi
    a6dc:	89 c7                	mov    %eax,%edi
    a6de:	e8 22 af ff ff       	callq  5605 <safe_sub_func_int32_t_s_s>
    a6e3:	0f b6 c0             	movzbl %al,%eax
    a6e6:	be 03 00 00 00       	mov    $0x3,%esi
    a6eb:	89 c7                	mov    %eax,%edi
    a6ed:	e8 cc b5 ff ff       	callq  5cbe <safe_rshift_func_uint8_t_u_u>
    a6f2:	3c 45                	cmp    $0x45,%al
    a6f4:	48 8b 05 75 d2 00 00 	mov    0xd275(%rip),%rax        # 17970 <g_1049>
    a6fb:	48 8b 00             	mov    (%rax),%rax
    a6fe:	c6 00 00             	movb   $0x0,(%rax)
    a701:	0f b6 30             	movzbl (%rax),%esi
    a704:	0f bf 95 4a f9 ff ff 	movswl -0x6b6(%rbp),%edx
    a70b:	48 8b 85 b8 fa ff ff 	mov    -0x548(%rbp),%rax
    a712:	8b 08                	mov    (%rax),%ecx
    a714:	40 0f b6 c6          	movzbl %sil,%eax
    a718:	21 c1                	and    %eax,%ecx
    a71a:	48 8b 85 b8 fa ff ff 	mov    -0x548(%rbp),%rax
    a721:	89 08                	mov    %ecx,(%rax)
    a723:	48 8b 85 b8 fa ff ff 	mov    -0x548(%rbp),%rax
    a72a:	8b 00                	mov    (%rax),%eax
    a72c:	39 c2                	cmp    %eax,%edx
    a72e:	0f 94 c0             	sete   %al
    a731:	0f b6 d0             	movzbl %al,%edx
    a734:	0f b6 85 2c f9 ff ff 	movzbl -0x6d4(%rbp),%eax
    a73b:	0f b6 c0             	movzbl %al,%eax
    a73e:	39 c2                	cmp    %eax,%edx
    a740:	75 0d                	jne    a74f <func_26+0x1909>
    a742:	48 8b 85 d0 fa ff ff 	mov    -0x530(%rbp),%rax
    a749:	8b 00                	mov    (%rax),%eax
    a74b:	85 c0                	test   %eax,%eax
    a74d:	74 07                	je     a756 <func_26+0x1910>
    a74f:	b8 01 00 00 00       	mov    $0x1,%eax
    a754:	eb 05                	jmp    a75b <func_26+0x1915>
    a756:	b8 00 00 00 00       	mov    $0x0,%eax
    a75b:	88 85 2c f9 ff ff    	mov    %al,-0x6d4(%rbp)
    a761:	0f b6 85 2c f9 ff ff 	movzbl -0x6d4(%rbp),%eax
    a768:	0f b6 c0             	movzbl %al,%eax
    a76b:	be fb 00 00 00       	mov    $0xfb,%esi
    a770:	89 c7                	mov    %eax,%edi
    a772:	e8 64 b4 ff ff       	callq  5bdb <safe_div_func_uint8_t_u_u>
    a777:	0f b6 c0             	movzbl %al,%eax
    a77a:	be fa ff ff ff       	mov    $0xfffffffa,%esi
    a77f:	89 c7                	mov    %eax,%edi
    a781:	e8 4d ac ff ff       	callq  53d3 <safe_sub_func_int16_t_s_s>
    a786:	89 c2                	mov    %eax,%edx
    a788:	48 8b 85 40 fa ff ff 	mov    -0x5c0(%rbp),%rax
    a78f:	88 10                	mov    %dl,(%rax)
    a791:	48 8b 85 40 fa ff ff 	mov    -0x5c0(%rbp),%rax
    a798:	0f b6 00             	movzbl (%rax),%eax
    a79b:	0f be d8             	movsbl %al,%ebx
    a79e:	48 8b 05 fb d1 00 00 	mov    0xd1fb(%rip),%rax        # 179a0 <g_1288>
    a7a5:	48 39 85 e0 fa ff ff 	cmp    %rax,-0x520(%rbp)
    a7ac:	0f 95 c0             	setne  %al
    a7af:	0f b6 c0             	movzbl %al,%eax
    a7b2:	89 c6                	mov    %eax,%esi
    a7b4:	bf 5e 00 00 00       	mov    $0x5e,%edi
    a7b9:	e8 9c b3 ff ff       	callq  5b5a <safe_add_func_uint8_t_u_u>
    a7be:	0f b6 c0             	movzbl %al,%eax
    a7c1:	89 de                	mov    %ebx,%esi
    a7c3:	89 c7                	mov    %eax,%edi
    a7c5:	e8 c3 b4 ff ff       	callq  5c8d <safe_rshift_func_uint8_t_u_s>
    a7ca:	48 8b 85 d8 fa ff ff 	mov    -0x528(%rbp),%rax
    a7d1:	be 00 00 00 00       	mov    $0x0,%esi
    a7d6:	48 89 c7             	mov    %rax,%rdi
    a7d9:	e8 ca b0 ff ff       	callq  58a8 <safe_sub_func_int64_t_s_s>
    a7de:	48 8b 85 20 f9 ff ff 	mov    -0x6e0(%rbp),%rax
    a7e5:	83 f0 01             	xor    $0x1,%eax
    a7e8:	25 27 9c 06 9f       	and    $0x9f069c27,%eax
    a7ed:	be 00 00 00 00       	mov    $0x0,%esi
    a7f2:	89 c7                	mov    %eax,%edi
    a7f4:	e8 0c ae ff ff       	callq  5605 <safe_sub_func_int32_t_s_s>
    a7f9:	89 85 d8 f9 ff ff    	mov    %eax,-0x628(%rbp)
    a7ff:	48 8b 85 88 fa ff ff 	mov    -0x578(%rbp),%rax
    a806:	48 8b 00             	mov    (%rax),%rax
    a809:	48 89 85 88 fe ff ff 	mov    %rax,-0x178(%rbp)
    a810:	8b 05 5a b5 00 00    	mov    0xb55a(%rip),%eax        # 15d70 <g_462>
    a816:	83 c0 01             	add    $0x1,%eax
    a819:	89 05 51 b5 00 00    	mov    %eax,0xb551(%rip)        # 15d70 <g_462>
    a81f:	8b 05 4b b5 00 00    	mov    0xb54b(%rip),%eax        # 15d70 <g_462>
    a825:	85 c0                	test   %eax,%eax
    a827:	0f 8e 5b fe ff ff    	jle    a688 <func_26+0x1842>
    a82d:	48 8b 85 20 f9 ff ff 	mov    -0x6e0(%rbp),%rax
    a834:	e9 2c 02 00 00       	jmpq   aa65 <func_26+0x1c1f>
    a839:	c7 85 f4 f9 ff ff ff 	movl   $0xffffffff,-0x60c(%rbp)
    a840:	ff ff ff 
    a843:	48 8d 85 50 fb ff ff 	lea    -0x4b0(%rbp),%rax
    a84a:	48 83 c0 08          	add    $0x8,%rax
    a84e:	48 89 85 38 fa ff ff 	mov    %rax,-0x5c8(%rbp)
    a855:	48 8d 85 38 fa ff ff 	lea    -0x5c8(%rbp),%rax
    a85c:	48 89 85 20 fb ff ff 	mov    %rax,-0x4e0(%rbp)
    a863:	c7 85 f8 f9 ff ff c6 	movl   $0x7271a0c6,-0x608(%rbp)
    a86a:	a0 71 72 
    a86d:	48 c7 85 28 fb ff ff 	movq   $0x0,-0x4d8(%rbp)
    a874:	00 00 00 00 
    a878:	48 c7 85 30 fb ff ff 	movq   $0x7,-0x4d0(%rbp)
    a87f:	07 00 00 00 
    a883:	c7 85 fc f9 ff ff ff 	movl   $0xffffffff,-0x604(%rbp)
    a88a:	ff ff ff 
    a88d:	c7 85 00 fa ff ff f2 	movl   $0xc66b80f2,-0x600(%rbp)
    a894:	80 6b c6 
    a897:	c7 85 80 fe ff ff 07 	movl   $0x7,-0x180(%rbp)
    a89e:	00 00 00 
    a8a1:	c7 85 84 fe ff ff 09 	movl   $0xec0f3909,-0x17c(%rbp)
    a8a8:	39 0f ec 
    a8ab:	c7 85 88 fe ff ff 07 	movl   $0x7,-0x178(%rbp)
    a8b2:	00 00 00 
    a8b5:	c7 85 8c fe ff ff 07 	movl   $0x7,-0x174(%rbp)
    a8bc:	00 00 00 
    a8bf:	c7 85 90 fe ff ff 09 	movl   $0xec0f3909,-0x170(%rbp)
    a8c6:	39 0f ec 
    a8c9:	c7 85 94 fe ff ff 07 	movl   $0x7,-0x16c(%rbp)
    a8d0:	00 00 00 
    a8d3:	c7 85 98 fe ff ff 07 	movl   $0x7,-0x168(%rbp)
    a8da:	00 00 00 
    a8dd:	c7 85 9c fe ff ff 09 	movl   $0xec0f3909,-0x164(%rbp)
    a8e4:	39 0f ec 
    a8e7:	c7 85 64 f9 ff ff 00 	movl   $0x0,-0x69c(%rbp)
    a8ee:	00 00 00 
    a8f1:	eb 1a                	jmp    a90d <func_26+0x1ac7>
    a8f3:	8b 85 64 f9 ff ff    	mov    -0x69c(%rbp),%eax
    a8f9:	48 98                	cltq   
    a8fb:	c7 84 85 90 fc ff ff 	movl   $0xad995d84,-0x370(%rbp,%rax,4)
    a902:	84 5d 99 ad 
    a906:	83 85 64 f9 ff ff 01 	addl   $0x1,-0x69c(%rbp)
    a90d:	83 bd 64 f9 ff ff 04 	cmpl   $0x4,-0x69c(%rbp)
    a914:	7e dd                	jle    a8f3 <func_26+0x1aad>
    a916:	8b 05 f8 b5 00 00    	mov    0xb5f8(%rip),%eax        # 15f14 <g_996>
    a91c:	83 c0 01             	add    $0x1,%eax
    a91f:	89 05 ef b5 00 00    	mov    %eax,0xb5ef(%rip)        # 15f14 <g_996>
    a925:	8b 05 e9 b5 00 00    	mov    0xb5e9(%rip),%eax        # 15f14 <g_996>
    a92b:	83 f8 10             	cmp    $0x10,%eax
    a92e:	0f 84 05 ff ff ff    	je     a839 <func_26+0x19f3>
    a934:	0f b7 05 ad b6 00 00 	movzwl 0xb6ad(%rip),%eax        # 15fe8 <g_1306+0x48>
    a93b:	44 0f b7 e8          	movzwl %ax,%r13d
    a93f:	48 8b 85 20 f9 ff ff 	mov    -0x6e0(%rbp),%rax
    a946:	0f b7 d8             	movzwl %ax,%ebx
    a949:	0f b6 85 2c f9 ff ff 	movzbl -0x6d4(%rbp),%eax
    a950:	44 0f b6 e0          	movzbl %al,%r12d
    a954:	48 8b 85 70 fa ff ff 	mov    -0x590(%rbp),%rax
    a95b:	8b 00                	mov    (%rax),%eax
    a95d:	89 c2                	mov    %eax,%edx
    a95f:	0f b6 85 2c f9 ff ff 	movzbl -0x6d4(%rbp),%eax
    a966:	0f b6 c0             	movzbl %al,%eax
    a969:	89 d6                	mov    %edx,%esi
    a96b:	89 c7                	mov    %eax,%edi
    a96d:	e8 b3 b5 ff ff       	callq  5f25 <safe_div_func_uint32_t_u_u>
    a972:	48 8b 85 a8 fa ff ff 	mov    -0x558(%rbp),%rax
    a979:	48 3b 85 78 fa ff ff 	cmp    -0x588(%rbp),%rax
    a980:	0f 94 c0             	sete   %al
    a983:	0f b6 c0             	movzbl %al,%eax
    a986:	be 02 00 00 00       	mov    $0x2,%esi
    a98b:	89 c7                	mov    %eax,%edi
    a98d:	e8 41 aa ff ff       	callq  53d3 <safe_sub_func_int16_t_s_s>
    a992:	44 89 e6             	mov    %r12d,%esi
    a995:	bf 01 00 00 00       	mov    $0x1,%edi
    a99a:	e8 bd b3 ff ff       	callq  5d5c <safe_mod_func_uint16_t_u_u>
    a99f:	0f b7 c0             	movzwl %ax,%eax
    a9a2:	48 39 85 20 f9 ff ff 	cmp    %rax,-0x6e0(%rbp)
    a9a9:	0f 95 c0             	setne  %al
    a9ac:	0f b6 c0             	movzbl %al,%eax
    a9af:	48 89 c6             	mov    %rax,%rsi
    a9b2:	bf 03 00 00 00       	mov    $0x3,%edi
    a9b7:	e8 72 b6 ff ff       	callq  602e <safe_add_func_uint64_t_u_u>
    a9bc:	0f b7 c0             	movzwl %ax,%eax
    a9bf:	89 de                	mov    %ebx,%esi
    a9c1:	89 c7                	mov    %eax,%edi
    a9c3:	e8 37 b3 ff ff       	callq  5cff <safe_add_func_uint16_t_u_u>
    a9c8:	be 01 00 00 00       	mov    $0x1,%esi
    a9cd:	bf 00 00 00 00       	mov    $0x0,%edi
    a9d2:	e8 3f aa ff ff       	callq  5416 <safe_mod_func_int16_t_s_s>
    a9d7:	98                   	cwtl   
    a9d8:	c1 e0 03             	shl    $0x3,%eax
    a9db:	c1 f8 03             	sar    $0x3,%eax
    a9de:	48 8b 15 63 b0 00 00 	mov    0xb063(%rip),%rdx        # 15a48 <g_409+0x228>
    a9e5:	48 c1 e2 1e          	shl    $0x1e,%rdx
    a9e9:	48 c1 fa 23          	sar    $0x23,%rdx
    a9ed:	39 d0                	cmp    %edx,%eax
    a9ef:	0f 9d c0             	setge  %al
    a9f2:	0f b6 c0             	movzbl %al,%eax
    a9f5:	41 39 c5             	cmp    %eax,%r13d
    a9f8:	0f 94 c0             	sete   %al
    a9fb:	0f b6 c0             	movzbl %al,%eax
    a9fe:	48 8b 15 43 b5 00 00 	mov    0xb543(%rip),%rdx        # 15f48 <g_1177+0x8>
    aa05:	48 c1 e2 1e          	shl    $0x1e,%rdx
    aa09:	48 c1 fa 23          	sar    $0x23,%rdx
    aa0d:	09 d0                	or     %edx,%eax
    aa0f:	c1 e0 03             	shl    $0x3,%eax
    aa12:	c1 f8 03             	sar    $0x3,%eax
    aa15:	89 c0                	mov    %eax,%eax
    aa17:	25 ff ff ff 1f       	and    $0x1fffffff,%eax
    aa1c:	48 c1 e0 05          	shl    $0x5,%rax
    aa20:	48 89 c2             	mov    %rax,%rdx
    aa23:	48 8b 05 1e b5 00 00 	mov    0xb51e(%rip),%rax        # 15f48 <g_1177+0x8>
    aa2a:	48 b9 1f 00 00 00 fc 	movabs $0xfffffffc0000001f,%rcx
    aa31:	ff ff ff 
    aa34:	48 21 c8             	and    %rcx,%rax
    aa37:	48 09 d0             	or     %rdx,%rax
    aa3a:	48 89 05 07 b5 00 00 	mov    %rax,0xb507(%rip)        # 15f48 <g_1177+0x8>
    aa41:	48 8b 05 00 b5 00 00 	mov    0xb500(%rip),%rax        # 15f48 <g_1177+0x8>
    aa48:	48 c1 e0 1e          	shl    $0x1e,%rax
    aa4c:	48 c1 f8 23          	sar    $0x23,%rax
    aa50:	89 c2                	mov    %eax,%edx
    aa52:	48 8b 85 70 fa ff ff 	mov    -0x590(%rbp),%rax
    aa59:	89 10                	mov    %edx,(%rax)
    aa5b:	48 8b 05 4e cf 00 00 	mov    0xcf4e(%rip),%rax        # 179b0 <g_1476>
    aa62:	0f b7 00             	movzwl (%rax),%eax
    aa65:	48 8b 5d c8          	mov    -0x38(%rbp),%rbx
    aa69:	64 48 33 1c 25 28 00 	xor    %fs:0x28,%rbx
    aa70:	00 00 
    aa72:	74 05                	je     aa79 <func_26+0x1c33>
    aa74:	e8 f7 a5 ff ff       	callq  5070 <__stack_chk_fail@plt>
    aa79:	48 81 c4 c8 06 00 00 	add    $0x6c8,%rsp
    aa80:	5b                   	pop    %rbx
    aa81:	41 5c                	pop    %r12
    aa83:	41 5d                	pop    %r13
    aa85:	41 5e                	pop    %r14
    aa87:	41 5f                	pop    %r15
    aa89:	5d                   	pop    %rbp
    aa8a:	c3                   	retq   

000000000000aa8b <func_29>:
    aa8b:	f3 0f 1e fa          	endbr64 
    aa8f:	55                   	push   %rbp
    aa90:	48 89 e5             	mov    %rsp,%rbp
    aa93:	48 83 ec 30          	sub    $0x30,%rsp
    aa97:	89 f8                	mov    %edi,%eax
    aa99:	89 75 d8             	mov    %esi,-0x28(%rbp)
    aa9c:	66 89 45 dc          	mov    %ax,-0x24(%rbp)
    aaa0:	89 d0                	mov    %edx,%eax
    aaa2:	88 45 d4             	mov    %al,-0x2c(%rbp)
    aaa5:	c7 45 e4 ab 2c 0d 49 	movl   $0x490d2cab,-0x1c(%rbp)
    aaac:	48 8d 05 71 a5 00 00 	lea    0xa571(%rip),%rax        # 15024 <g_6>
    aab3:	48 89 45 e8          	mov    %rax,-0x18(%rbp)
    aab7:	48 8d 05 59 ad 00 00 	lea    0xad59(%rip),%rax        # 15817 <g_267+0x3>
    aabe:	48 89 45 f0          	mov    %rax,-0x10(%rbp)
    aac2:	48 c7 45 f8 00 00 00 	movq   $0x0,-0x8(%rbp)
    aac9:	00 
    aaca:	83 45 e4 01          	addl   $0x1,-0x1c(%rbp)
    aace:	bf 04 00 00 00       	mov    $0x4,%edi
    aad3:	e8 c5 a8 ff ff       	callq  539d <safe_unary_minus_func_int16_t_s>
    aad8:	89 c1                	mov    %eax,%ecx
    aada:	48 8b 05 97 ce 00 00 	mov    0xce97(%rip),%rax        # 17978 <g_1048>
    aae1:	48 8b 00             	mov    (%rax),%rax
    aae4:	48 8b 55 f0          	mov    -0x10(%rbp),%rdx
    aae8:	48 89 10             	mov    %rdx,(%rax)
    aaeb:	48 8b 00             	mov    (%rax),%rax
    aaee:	48 85 c0             	test   %rax,%rax
    aaf1:	0f 94 c0             	sete   %al
    aaf4:	31 c8                	xor    %ecx,%eax
    aaf6:	c1 e0 03             	shl    $0x3,%eax
    aaf9:	c0 f8 03             	sar    $0x3,%al
    aafc:	83 e0 1f             	and    $0x1f,%eax
    aaff:	89 c2                	mov    %eax,%edx
    ab01:	0f b6 05 11 b3 00 00 	movzbl 0xb311(%rip),%eax        # 15e19 <g_646+0x19>
    ab08:	83 e0 e0             	and    $0xffffffe0,%eax
    ab0b:	09 d0                	or     %edx,%eax
    ab0d:	88 05 06 b3 00 00    	mov    %al,0xb306(%rip)        # 15e19 <g_646+0x19>
    ab13:	48 8b 05 56 ce 00 00 	mov    0xce56(%rip),%rax        # 17970 <g_1049>
    ab1a:	48 8b 00             	mov    (%rax),%rax
    ab1d:	0f b6 00             	movzbl (%rax),%eax
    ab20:	c9                   	leaveq 
    ab21:	c3                   	retq   

000000000000ab22 <func_34>:
    ab22:	f3 0f 1e fa          	endbr64 
    ab26:	55                   	push   %rbp
    ab27:	48 89 e5             	mov    %rsp,%rbp
    ab2a:	89 f0                	mov    %esi,%eax
    ab2c:	48 89 55 e0          	mov    %rdx,-0x20(%rbp)
    ab30:	48 89 4d d8          	mov    %rcx,-0x28(%rbp)
    ab34:	44 89 45 d4          	mov    %r8d,-0x2c(%rbp)
    ab38:	89 fa                	mov    %edi,%edx
    ab3a:	66 89 55 ec          	mov    %dx,-0x14(%rbp)
    ab3e:	66 89 45 e8          	mov    %ax,-0x18(%rbp)
    ab42:	66 c7 45 fc 01 00    	movw   $0x1,-0x4(%rbp)
    ab48:	c7 05 de a4 00 00 e6 	movl   $0xffffffe6,0xa4de(%rip)        # 15030 <g_78>
    ab4f:	ff ff ff 
    ab52:	90                   	nop
    ab53:	8b 05 d7 a4 00 00    	mov    0xa4d7(%rip),%eax        # 15030 <g_78>
    ab59:	83 f8 09             	cmp    $0x9,%eax
    ab5c:	7e 0a                	jle    ab68 <func_34+0x46>
    ab5e:	c6 45 fb 00          	movb   $0x0,-0x5(%rbp)
    ab62:	0f b6 45 fb          	movzbl -0x5(%rbp),%eax
    ab66:	eb 58                	jmp    abc0 <func_34+0x9e>
    ab68:	66 c7 05 2b b3 00 00 	movw   $0x0,0xb32b(%rip)        # 15e9c <g_808>
    ab6f:	00 00 
    ab71:	eb 39                	jmp    abac <func_34+0x8a>
    ab73:	66 c7 45 fe 00 00    	movw   $0x0,-0x2(%rbp)
    ab79:	83 7d d4 00          	cmpl   $0x0,-0x2c(%rbp)
    ab7d:	75 3c                	jne    abbb <func_34+0x99>
    ab7f:	c7 05 5f a5 00 00 00 	movl   $0x0,0xa55f(%rip)        # 150e8 <g_158>
    ab86:	00 00 00 
    ab89:	90                   	nop
    ab8a:	8b 05 58 a5 00 00    	mov    0xa558(%rip),%eax        # 150e8 <g_158>
    ab90:	83 f8 04             	cmp    $0x4,%eax
    ab93:	77 06                	ja     ab9b <func_34+0x79>
    ab95:	0f b7 45 fe          	movzwl -0x2(%rbp),%eax
    ab99:	eb 25                	jmp    abc0 <func_34+0x9e>
    ab9b:	0f b7 05 fa b2 00 00 	movzwl 0xb2fa(%rip),%eax        # 15e9c <g_808>
    aba2:	83 c0 01             	add    $0x1,%eax
    aba5:	66 89 05 f0 b2 00 00 	mov    %ax,0xb2f0(%rip)        # 15e9c <g_808>
    abac:	0f b7 05 e9 b2 00 00 	movzwl 0xb2e9(%rip),%eax        # 15e9c <g_808>
    abb3:	66 83 f8 04          	cmp    $0x4,%ax
    abb7:	7e ba                	jle    ab73 <func_34+0x51>
    abb9:	eb 01                	jmp    abbc <func_34+0x9a>
    abbb:	90                   	nop
    abbc:	0f b7 45 fc          	movzwl -0x4(%rbp),%eax
    abc0:	5d                   	pop    %rbp
    abc1:	c3                   	retq   

000000000000abc2 <func_42>:
    abc2:	f3 0f 1e fa          	endbr64 
    abc6:	55                   	push   %rbp
    abc7:	48 89 e5             	mov    %rsp,%rbp
    abca:	48 89 7d e8          	mov    %rdi,-0x18(%rbp)
    abce:	48 89 75 e0          	mov    %rsi,-0x20(%rbp)
    abd2:	66 c7 45 fe 40 a8    	movw   $0xa840,-0x2(%rbp)
    abd8:	0f b7 45 fe          	movzwl -0x2(%rbp),%eax
    abdc:	5d                   	pop    %rbp
    abdd:	c3                   	retq   

000000000000abde <func_46>:
    abde:	f3 0f 1e fa          	endbr64 
    abe2:	55                   	push   %rbp
    abe3:	48 89 e5             	mov    %rsp,%rbp
    abe6:	41 57                	push   %r15
    abe8:	41 56                	push   %r14
    abea:	41 55                	push   %r13
    abec:	41 54                	push   %r12
    abee:	53                   	push   %rbx
    abef:	48 81 ec 00 10 00 00 	sub    $0x1000,%rsp
    abf6:	48 83 0c 24 00       	orq    $0x0,(%rsp)
    abfb:	48 81 ec 58 09 00 00 	sub    $0x958,%rsp
    ac02:	89 fa                	mov    %edi,%edx
    ac04:	89 f0                	mov    %esi,%eax
    ac06:	88 95 9c e6 ff ff    	mov    %dl,-0x1964(%rbp)
    ac0c:	88 85 98 e6 ff ff    	mov    %al,-0x1968(%rbp)
    ac12:	64 48 8b 04 25 28 00 	mov    %fs:0x28,%rax
    ac19:	00 00 
    ac1b:	48 89 45 c8          	mov    %rax,-0x38(%rbp)
    ac1f:	31 c0                	xor    %eax,%eax
    ac21:	48 8d 05 00 a4 00 00 	lea    0xa400(%rip),%rax        # 15028 <g_58>
    ac28:	48 89 85 90 e7 ff ff 	mov    %rax,-0x1870(%rbp)
    ac2f:	48 c7 85 98 e7 ff ff 	movq   $0x0,-0x1868(%rbp)
    ac36:	00 00 00 00 
    ac3a:	48 c7 85 a0 e7 ff ff 	movq   $0x0,-0x1860(%rbp)
    ac41:	00 00 00 00 
    ac45:	48 8d 05 14 a4 00 00 	lea    0xa414(%rip),%rax        # 15060 <g_83+0x20>
    ac4c:	48 89 85 a8 e7 ff ff 	mov    %rax,-0x1858(%rbp)
    ac53:	48 8d 05 0a a4 00 00 	lea    0xa40a(%rip),%rax        # 15064 <g_83+0x24>
    ac5a:	48 89 85 b0 e7 ff ff 	mov    %rax,-0x1850(%rbp)
    ac61:	48 c7 85 18 e7 ff ff 	movq   $0x0,-0x18e8(%rbp)
    ac68:	00 00 00 00 
    ac6c:	48 8d 05 f5 a3 00 00 	lea    0xa3f5(%rip),%rax        # 15068 <g_83+0x28>
    ac73:	48 89 85 b8 e7 ff ff 	mov    %rax,-0x1848(%rbp)
    ac7a:	48 8d 05 27 a4 00 00 	lea    0xa427(%rip),%rax        # 150a8 <g_83+0x68>
    ac81:	48 89 85 c0 e7 ff ff 	mov    %rax,-0x1840(%rbp)
    ac88:	48 8d 05 f5 a3 00 00 	lea    0xa3f5(%rip),%rax        # 15084 <g_83+0x44>
    ac8f:	48 89 85 c8 e7 ff ff 	mov    %rax,-0x1838(%rbp)
    ac96:	48 8d 05 c3 a3 00 00 	lea    0xa3c3(%rip),%rax        # 15060 <g_83+0x20>
    ac9d:	48 89 85 d0 e7 ff ff 	mov    %rax,-0x1830(%rbp)
    aca4:	48 8d 05 7d a3 00 00 	lea    0xa37d(%rip),%rax        # 15028 <g_58>
    acab:	48 89 85 d8 e7 ff ff 	mov    %rax,-0x1828(%rbp)
    acb2:	66 c7 85 b0 e6 ff ff 	movw   $0x6,-0x1950(%rbp)
    acb9:	06 00 
    acbb:	48 b8 11 cb 07 24 78 	movabs $0x4aa6b8782407cb11,%rax
    acc2:	b8 a6 4a 
    acc5:	48 89 85 20 e7 ff ff 	mov    %rax,-0x18e0(%rbp)
    accc:	66 c7 85 aa e6 ff ff 	movw   $0x7,-0x1956(%rbp)
    acd3:	07 00 
    acd5:	48 8d 05 48 a4 00 00 	lea    0xa448(%rip),%rax        # 15124 <g_186+0x4>
    acdc:	48 89 85 88 e7 ff ff 	mov    %rax,-0x1878(%rbp)
    ace3:	48 8d 85 20 e7 ff ff 	lea    -0x18e0(%rbp),%rax
    acea:	48 89 85 28 e7 ff ff 	mov    %rax,-0x18d8(%rbp)
    acf1:	48 8d 05 28 c6 00 00 	lea    0xc628(%rip),%rax        # 17320 <g_167>
    acf8:	48 89 85 e0 e7 ff ff 	mov    %rax,-0x1820(%rbp)
    acff:	48 c7 85 30 e7 ff ff 	movq   $0x0,-0x18d0(%rbp)
    ad06:	00 00 00 00 
    ad0a:	48 8d 85 30 e7 ff ff 	lea    -0x18d0(%rbp),%rax
    ad11:	48 89 85 38 e7 ff ff 	mov    %rax,-0x18c8(%rbp)
    ad18:	48 8d 85 38 e7 ff ff 	lea    -0x18c8(%rbp),%rax
    ad1f:	48 89 85 40 f0 ff ff 	mov    %rax,-0xfc0(%rbp)
    ad26:	48 c7 85 48 f0 ff ff 	movq   $0x0,-0xfb8(%rbp)
    ad2d:	00 00 00 00 
    ad31:	48 8d 85 38 e7 ff ff 	lea    -0x18c8(%rbp),%rax
    ad38:	48 89 85 50 f0 ff ff 	mov    %rax,-0xfb0(%rbp)
    ad3f:	48 8d 85 38 e7 ff ff 	lea    -0x18c8(%rbp),%rax
    ad46:	48 89 85 58 f0 ff ff 	mov    %rax,-0xfa8(%rbp)
    ad4d:	48 8d 85 38 e7 ff ff 	lea    -0x18c8(%rbp),%rax
    ad54:	48 89 85 60 f0 ff ff 	mov    %rax,-0xfa0(%rbp)
    ad5b:	48 8d 85 38 e7 ff ff 	lea    -0x18c8(%rbp),%rax
    ad62:	48 89 85 68 f0 ff ff 	mov    %rax,-0xf98(%rbp)
    ad69:	48 8d 85 38 e7 ff ff 	lea    -0x18c8(%rbp),%rax
    ad70:	48 89 85 70 f0 ff ff 	mov    %rax,-0xf90(%rbp)
    ad77:	48 c7 85 78 f0 ff ff 	movq   $0x0,-0xf88(%rbp)
    ad7e:	00 00 00 00 
    ad82:	48 8d 85 38 e7 ff ff 	lea    -0x18c8(%rbp),%rax
    ad89:	48 89 85 80 f0 ff ff 	mov    %rax,-0xf80(%rbp)
    ad90:	48 8d 85 38 e7 ff ff 	lea    -0x18c8(%rbp),%rax
    ad97:	48 89 85 88 f0 ff ff 	mov    %rax,-0xf78(%rbp)
    ad9e:	48 c7 85 90 f0 ff ff 	movq   $0x0,-0xf70(%rbp)
    ada5:	00 00 00 00 
    ada9:	48 8d 85 38 e7 ff ff 	lea    -0x18c8(%rbp),%rax
    adb0:	48 89 85 98 f0 ff ff 	mov    %rax,-0xf68(%rbp)
    adb7:	48 8d 85 38 e7 ff ff 	lea    -0x18c8(%rbp),%rax
    adbe:	48 89 85 a0 f0 ff ff 	mov    %rax,-0xf60(%rbp)
    adc5:	48 c7 85 a8 f0 ff ff 	movq   $0x0,-0xf58(%rbp)
    adcc:	00 00 00 00 
    add0:	48 8d 85 38 e7 ff ff 	lea    -0x18c8(%rbp),%rax
    add7:	48 89 85 b0 f0 ff ff 	mov    %rax,-0xf50(%rbp)
    adde:	48 8d 85 38 e7 ff ff 	lea    -0x18c8(%rbp),%rax
    ade5:	48 89 85 b8 f0 ff ff 	mov    %rax,-0xf48(%rbp)
    adec:	48 8d 85 38 e7 ff ff 	lea    -0x18c8(%rbp),%rax
    adf3:	48 89 85 c0 f0 ff ff 	mov    %rax,-0xf40(%rbp)
    adfa:	48 8d 85 38 e7 ff ff 	lea    -0x18c8(%rbp),%rax
    ae01:	48 89 85 c8 f0 ff ff 	mov    %rax,-0xf38(%rbp)
    ae08:	48 8d 85 38 e7 ff ff 	lea    -0x18c8(%rbp),%rax
    ae0f:	48 89 85 d0 f0 ff ff 	mov    %rax,-0xf30(%rbp)
    ae16:	48 8d 85 38 e7 ff ff 	lea    -0x18c8(%rbp),%rax
    ae1d:	48 89 85 d8 f0 ff ff 	mov    %rax,-0xf28(%rbp)
    ae24:	48 8d 85 38 e7 ff ff 	lea    -0x18c8(%rbp),%rax
    ae2b:	48 89 85 e0 f0 ff ff 	mov    %rax,-0xf20(%rbp)
    ae32:	48 c7 85 e8 f0 ff ff 	movq   $0x0,-0xf18(%rbp)
    ae39:	00 00 00 00 
    ae3d:	48 c7 85 f0 f0 ff ff 	movq   $0x0,-0xf10(%rbp)
    ae44:	00 00 00 00 
    ae48:	48 8d 85 38 e7 ff ff 	lea    -0x18c8(%rbp),%rax
    ae4f:	48 89 85 f8 f0 ff ff 	mov    %rax,-0xf08(%rbp)
    ae56:	48 8d 85 38 e7 ff ff 	lea    -0x18c8(%rbp),%rax
    ae5d:	48 89 85 00 f1 ff ff 	mov    %rax,-0xf00(%rbp)
    ae64:	48 8d 85 38 e7 ff ff 	lea    -0x18c8(%rbp),%rax
    ae6b:	48 89 85 08 f1 ff ff 	mov    %rax,-0xef8(%rbp)
    ae72:	48 8d 85 38 e7 ff ff 	lea    -0x18c8(%rbp),%rax
    ae79:	48 89 85 10 f1 ff ff 	mov    %rax,-0xef0(%rbp)
    ae80:	48 8d 85 38 e7 ff ff 	lea    -0x18c8(%rbp),%rax
    ae87:	48 89 85 18 f1 ff ff 	mov    %rax,-0xee8(%rbp)
    ae8e:	48 8d 85 38 e7 ff ff 	lea    -0x18c8(%rbp),%rax
    ae95:	48 89 85 20 f1 ff ff 	mov    %rax,-0xee0(%rbp)
    ae9c:	48 8d 85 38 e7 ff ff 	lea    -0x18c8(%rbp),%rax
    aea3:	48 89 85 28 f1 ff ff 	mov    %rax,-0xed8(%rbp)
    aeaa:	48 c7 85 30 f1 ff ff 	movq   $0x0,-0xed0(%rbp)
    aeb1:	00 00 00 00 
    aeb5:	48 8d 85 38 e7 ff ff 	lea    -0x18c8(%rbp),%rax
    aebc:	48 89 85 38 f1 ff ff 	mov    %rax,-0xec8(%rbp)
    aec3:	48 c7 85 40 f1 ff ff 	movq   $0x0,-0xec0(%rbp)
    aeca:	00 00 00 00 
    aece:	48 8d 85 38 e7 ff ff 	lea    -0x18c8(%rbp),%rax
    aed5:	48 89 85 48 f1 ff ff 	mov    %rax,-0xeb8(%rbp)
    aedc:	48 8d 85 38 e7 ff ff 	lea    -0x18c8(%rbp),%rax
    aee3:	48 89 85 50 f1 ff ff 	mov    %rax,-0xeb0(%rbp)
    aeea:	48 8d 85 38 e7 ff ff 	lea    -0x18c8(%rbp),%rax
    aef1:	48 89 85 58 f1 ff ff 	mov    %rax,-0xea8(%rbp)
    aef8:	48 8d 85 38 e7 ff ff 	lea    -0x18c8(%rbp),%rax
    aeff:	48 89 85 60 f1 ff ff 	mov    %rax,-0xea0(%rbp)
    af06:	48 c7 85 68 f1 ff ff 	movq   $0x0,-0xe98(%rbp)
    af0d:	00 00 00 00 
    af11:	48 8d 85 38 e7 ff ff 	lea    -0x18c8(%rbp),%rax
    af18:	48 89 85 70 f1 ff ff 	mov    %rax,-0xe90(%rbp)
    af1f:	48 c7 85 78 f1 ff ff 	movq   $0x0,-0xe88(%rbp)
    af26:	00 00 00 00 
    af2a:	48 8d 85 38 e7 ff ff 	lea    -0x18c8(%rbp),%rax
    af31:	48 89 85 80 f1 ff ff 	mov    %rax,-0xe80(%rbp)
    af38:	48 8d 85 38 e7 ff ff 	lea    -0x18c8(%rbp),%rax
    af3f:	48 89 85 88 f1 ff ff 	mov    %rax,-0xe78(%rbp)
    af46:	48 8d 85 38 e7 ff ff 	lea    -0x18c8(%rbp),%rax
    af4d:	48 89 85 90 f1 ff ff 	mov    %rax,-0xe70(%rbp)
    af54:	48 8d 85 38 e7 ff ff 	lea    -0x18c8(%rbp),%rax
    af5b:	48 89 85 98 f1 ff ff 	mov    %rax,-0xe68(%rbp)
    af62:	48 8d 85 38 e7 ff ff 	lea    -0x18c8(%rbp),%rax
    af69:	48 89 85 a0 f1 ff ff 	mov    %rax,-0xe60(%rbp)
    af70:	48 8d 85 38 e7 ff ff 	lea    -0x18c8(%rbp),%rax
    af77:	48 89 85 a8 f1 ff ff 	mov    %rax,-0xe58(%rbp)
    af7e:	48 8d 85 38 e7 ff ff 	lea    -0x18c8(%rbp),%rax
    af85:	48 89 85 b0 f1 ff ff 	mov    %rax,-0xe50(%rbp)
    af8c:	48 8d 85 38 e7 ff ff 	lea    -0x18c8(%rbp),%rax
    af93:	48 89 85 b8 f1 ff ff 	mov    %rax,-0xe48(%rbp)
    af9a:	48 8d 85 38 e7 ff ff 	lea    -0x18c8(%rbp),%rax
    afa1:	48 89 85 c0 f1 ff ff 	mov    %rax,-0xe40(%rbp)
    afa8:	48 8d 85 38 e7 ff ff 	lea    -0x18c8(%rbp),%rax
    afaf:	48 89 85 c8 f1 ff ff 	mov    %rax,-0xe38(%rbp)
    afb6:	48 c7 85 d0 f1 ff ff 	movq   $0x0,-0xe30(%rbp)
    afbd:	00 00 00 00 
    afc1:	48 c7 85 d8 f1 ff ff 	movq   $0x0,-0xe28(%rbp)
    afc8:	00 00 00 00 
    afcc:	48 8d 85 38 e7 ff ff 	lea    -0x18c8(%rbp),%rax
    afd3:	48 89 85 e0 f1 ff ff 	mov    %rax,-0xe20(%rbp)
    afda:	48 8d 85 38 e7 ff ff 	lea    -0x18c8(%rbp),%rax
    afe1:	48 89 85 e8 f1 ff ff 	mov    %rax,-0xe18(%rbp)
    afe8:	48 8d 85 38 e7 ff ff 	lea    -0x18c8(%rbp),%rax
    afef:	48 89 85 f0 f1 ff ff 	mov    %rax,-0xe10(%rbp)
    aff6:	48 8d 85 38 e7 ff ff 	lea    -0x18c8(%rbp),%rax
    affd:	48 89 85 f8 f1 ff ff 	mov    %rax,-0xe08(%rbp)
    b004:	48 8d 85 38 e7 ff ff 	lea    -0x18c8(%rbp),%rax
    b00b:	48 89 85 00 f2 ff ff 	mov    %rax,-0xe00(%rbp)
    b012:	48 c7 85 08 f2 ff ff 	movq   $0x0,-0xdf8(%rbp)
    b019:	00 00 00 00 
    b01d:	48 8d 85 38 e7 ff ff 	lea    -0x18c8(%rbp),%rax
    b024:	48 89 85 10 f2 ff ff 	mov    %rax,-0xdf0(%rbp)
    b02b:	48 8d 85 38 e7 ff ff 	lea    -0x18c8(%rbp),%rax
    b032:	48 89 85 18 f2 ff ff 	mov    %rax,-0xde8(%rbp)
    b039:	48 8d 85 38 e7 ff ff 	lea    -0x18c8(%rbp),%rax
    b040:	48 89 85 20 f2 ff ff 	mov    %rax,-0xde0(%rbp)
    b047:	48 8d 85 38 e7 ff ff 	lea    -0x18c8(%rbp),%rax
    b04e:	48 89 85 28 f2 ff ff 	mov    %rax,-0xdd8(%rbp)
    b055:	48 8d 85 38 e7 ff ff 	lea    -0x18c8(%rbp),%rax
    b05c:	48 89 85 30 f2 ff ff 	mov    %rax,-0xdd0(%rbp)
    b063:	48 8d 85 38 e7 ff ff 	lea    -0x18c8(%rbp),%rax
    b06a:	48 89 85 38 f2 ff ff 	mov    %rax,-0xdc8(%rbp)
    b071:	48 8d 85 38 e7 ff ff 	lea    -0x18c8(%rbp),%rax
    b078:	48 89 85 40 f2 ff ff 	mov    %rax,-0xdc0(%rbp)
    b07f:	48 8d 85 38 e7 ff ff 	lea    -0x18c8(%rbp),%rax
    b086:	48 89 85 48 f2 ff ff 	mov    %rax,-0xdb8(%rbp)
    b08d:	48 8d 85 38 e7 ff ff 	lea    -0x18c8(%rbp),%rax
    b094:	48 89 85 50 f2 ff ff 	mov    %rax,-0xdb0(%rbp)
    b09b:	48 8d 85 38 e7 ff ff 	lea    -0x18c8(%rbp),%rax
    b0a2:	48 89 85 58 f2 ff ff 	mov    %rax,-0xda8(%rbp)
    b0a9:	48 c7 85 60 f2 ff ff 	movq   $0x0,-0xda0(%rbp)
    b0b0:	00 00 00 00 
    b0b4:	48 8d 85 38 e7 ff ff 	lea    -0x18c8(%rbp),%rax
    b0bb:	48 89 85 68 f2 ff ff 	mov    %rax,-0xd98(%rbp)
    b0c2:	48 c7 85 70 f2 ff ff 	movq   $0x0,-0xd90(%rbp)
    b0c9:	00 00 00 00 
    b0cd:	48 8d 85 38 e7 ff ff 	lea    -0x18c8(%rbp),%rax
    b0d4:	48 89 85 78 f2 ff ff 	mov    %rax,-0xd88(%rbp)
    b0db:	48 8d 85 38 e7 ff ff 	lea    -0x18c8(%rbp),%rax
    b0e2:	48 89 85 80 f2 ff ff 	mov    %rax,-0xd80(%rbp)
    b0e9:	48 8d 85 38 e7 ff ff 	lea    -0x18c8(%rbp),%rax
    b0f0:	48 89 85 88 f2 ff ff 	mov    %rax,-0xd78(%rbp)
    b0f7:	48 8d 85 38 e7 ff ff 	lea    -0x18c8(%rbp),%rax
    b0fe:	48 89 85 90 f2 ff ff 	mov    %rax,-0xd70(%rbp)
    b105:	48 8d 85 38 e7 ff ff 	lea    -0x18c8(%rbp),%rax
    b10c:	48 89 85 98 f2 ff ff 	mov    %rax,-0xd68(%rbp)
    b113:	48 8d 85 38 e7 ff ff 	lea    -0x18c8(%rbp),%rax
    b11a:	48 89 85 a0 f2 ff ff 	mov    %rax,-0xd60(%rbp)
    b121:	48 c7 85 a8 f2 ff ff 	movq   $0x0,-0xd58(%rbp)
    b128:	00 00 00 00 
    b12c:	48 c7 85 b0 f2 ff ff 	movq   $0x0,-0xd50(%rbp)
    b133:	00 00 00 00 
    b137:	48 c7 85 b8 f2 ff ff 	movq   $0x0,-0xd48(%rbp)
    b13e:	00 00 00 00 
    b142:	48 8d 85 38 e7 ff ff 	lea    -0x18c8(%rbp),%rax
    b149:	48 89 85 c0 f2 ff ff 	mov    %rax,-0xd40(%rbp)
    b150:	48 8d 85 38 e7 ff ff 	lea    -0x18c8(%rbp),%rax
    b157:	48 89 85 c8 f2 ff ff 	mov    %rax,-0xd38(%rbp)
    b15e:	48 8d 85 38 e7 ff ff 	lea    -0x18c8(%rbp),%rax
    b165:	48 89 85 d0 f2 ff ff 	mov    %rax,-0xd30(%rbp)
    b16c:	48 8d 85 38 e7 ff ff 	lea    -0x18c8(%rbp),%rax
    b173:	48 89 85 d8 f2 ff ff 	mov    %rax,-0xd28(%rbp)
    b17a:	48 8d 85 38 e7 ff ff 	lea    -0x18c8(%rbp),%rax
    b181:	48 89 85 e0 f2 ff ff 	mov    %rax,-0xd20(%rbp)
    b188:	48 8d 85 38 e7 ff ff 	lea    -0x18c8(%rbp),%rax
    b18f:	48 89 85 e8 f2 ff ff 	mov    %rax,-0xd18(%rbp)
    b196:	48 8d 85 38 e7 ff ff 	lea    -0x18c8(%rbp),%rax
    b19d:	48 89 85 f0 f2 ff ff 	mov    %rax,-0xd10(%rbp)
    b1a4:	48 c7 85 f8 f2 ff ff 	movq   $0x0,-0xd08(%rbp)
    b1ab:	00 00 00 00 
    b1af:	48 8d 85 38 e7 ff ff 	lea    -0x18c8(%rbp),%rax
    b1b6:	48 89 85 00 f3 ff ff 	mov    %rax,-0xd00(%rbp)
    b1bd:	48 8d 85 38 e7 ff ff 	lea    -0x18c8(%rbp),%rax
    b1c4:	48 89 85 08 f3 ff ff 	mov    %rax,-0xcf8(%rbp)
    b1cb:	48 c7 85 10 f3 ff ff 	movq   $0x0,-0xcf0(%rbp)
    b1d2:	00 00 00 00 
    b1d6:	48 8d 85 38 e7 ff ff 	lea    -0x18c8(%rbp),%rax
    b1dd:	48 89 85 18 f3 ff ff 	mov    %rax,-0xce8(%rbp)
    b1e4:	48 8d 85 38 e7 ff ff 	lea    -0x18c8(%rbp),%rax
    b1eb:	48 89 85 20 f3 ff ff 	mov    %rax,-0xce0(%rbp)
    b1f2:	48 8d 85 38 e7 ff ff 	lea    -0x18c8(%rbp),%rax
    b1f9:	48 89 85 28 f3 ff ff 	mov    %rax,-0xcd8(%rbp)
    b200:	48 8d 85 38 e7 ff ff 	lea    -0x18c8(%rbp),%rax
    b207:	48 89 85 30 f3 ff ff 	mov    %rax,-0xcd0(%rbp)
    b20e:	48 8d 85 38 e7 ff ff 	lea    -0x18c8(%rbp),%rax
    b215:	48 89 85 38 f3 ff ff 	mov    %rax,-0xcc8(%rbp)
    b21c:	48 8d 85 38 e7 ff ff 	lea    -0x18c8(%rbp),%rax
    b223:	48 89 85 40 f3 ff ff 	mov    %rax,-0xcc0(%rbp)
    b22a:	48 8d 85 38 e7 ff ff 	lea    -0x18c8(%rbp),%rax
    b231:	48 89 85 48 f3 ff ff 	mov    %rax,-0xcb8(%rbp)
    b238:	48 8d 85 38 e7 ff ff 	lea    -0x18c8(%rbp),%rax
    b23f:	48 89 85 50 f3 ff ff 	mov    %rax,-0xcb0(%rbp)
    b246:	48 8d 85 38 e7 ff ff 	lea    -0x18c8(%rbp),%rax
    b24d:	48 89 85 58 f3 ff ff 	mov    %rax,-0xca8(%rbp)
    b254:	48 8d 85 38 e7 ff ff 	lea    -0x18c8(%rbp),%rax
    b25b:	48 89 85 60 f3 ff ff 	mov    %rax,-0xca0(%rbp)
    b262:	48 8d 85 38 e7 ff ff 	lea    -0x18c8(%rbp),%rax
    b269:	48 89 85 68 f3 ff ff 	mov    %rax,-0xc98(%rbp)
    b270:	48 8d 85 38 e7 ff ff 	lea    -0x18c8(%rbp),%rax
    b277:	48 89 85 70 f3 ff ff 	mov    %rax,-0xc90(%rbp)
    b27e:	48 8d 85 38 e7 ff ff 	lea    -0x18c8(%rbp),%rax
    b285:	48 89 85 78 f3 ff ff 	mov    %rax,-0xc88(%rbp)
    b28c:	48 8d 85 38 e7 ff ff 	lea    -0x18c8(%rbp),%rax
    b293:	48 89 85 80 f3 ff ff 	mov    %rax,-0xc80(%rbp)
    b29a:	48 8d 85 38 e7 ff ff 	lea    -0x18c8(%rbp),%rax
    b2a1:	48 89 85 88 f3 ff ff 	mov    %rax,-0xc78(%rbp)
    b2a8:	48 8d 85 38 e7 ff ff 	lea    -0x18c8(%rbp),%rax
    b2af:	48 89 85 90 f3 ff ff 	mov    %rax,-0xc70(%rbp)
    b2b6:	48 8d 85 38 e7 ff ff 	lea    -0x18c8(%rbp),%rax
    b2bd:	48 89 85 98 f3 ff ff 	mov    %rax,-0xc68(%rbp)
    b2c4:	48 c7 85 a0 f3 ff ff 	movq   $0x0,-0xc60(%rbp)
    b2cb:	00 00 00 00 
    b2cf:	48 8d 85 38 e7 ff ff 	lea    -0x18c8(%rbp),%rax
    b2d6:	48 89 85 a8 f3 ff ff 	mov    %rax,-0xc58(%rbp)
    b2dd:	48 8d 85 38 e7 ff ff 	lea    -0x18c8(%rbp),%rax
    b2e4:	48 89 85 b0 f3 ff ff 	mov    %rax,-0xc50(%rbp)
    b2eb:	48 8d 85 38 e7 ff ff 	lea    -0x18c8(%rbp),%rax
    b2f2:	48 89 85 b8 f3 ff ff 	mov    %rax,-0xc48(%rbp)
    b2f9:	48 8d 85 38 e7 ff ff 	lea    -0x18c8(%rbp),%rax
    b300:	48 89 85 c0 f3 ff ff 	mov    %rax,-0xc40(%rbp)
    b307:	48 8d 85 38 e7 ff ff 	lea    -0x18c8(%rbp),%rax
    b30e:	48 89 85 c8 f3 ff ff 	mov    %rax,-0xc38(%rbp)
    b315:	48 8d 85 38 e7 ff ff 	lea    -0x18c8(%rbp),%rax
    b31c:	48 89 85 d0 f3 ff ff 	mov    %rax,-0xc30(%rbp)
    b323:	48 8d 85 38 e7 ff ff 	lea    -0x18c8(%rbp),%rax
    b32a:	48 89 85 d8 f3 ff ff 	mov    %rax,-0xc28(%rbp)
    b331:	48 8d 85 38 e7 ff ff 	lea    -0x18c8(%rbp),%rax
    b338:	48 89 85 e0 f3 ff ff 	mov    %rax,-0xc20(%rbp)
    b33f:	48 8d 85 38 e7 ff ff 	lea    -0x18c8(%rbp),%rax
    b346:	48 89 85 e8 f3 ff ff 	mov    %rax,-0xc18(%rbp)
    b34d:	48 8d 85 38 e7 ff ff 	lea    -0x18c8(%rbp),%rax
    b354:	48 89 85 f0 f3 ff ff 	mov    %rax,-0xc10(%rbp)
    b35b:	48 8d 85 38 e7 ff ff 	lea    -0x18c8(%rbp),%rax
    b362:	48 89 85 f8 f3 ff ff 	mov    %rax,-0xc08(%rbp)
    b369:	48 8d 85 38 e7 ff ff 	lea    -0x18c8(%rbp),%rax
    b370:	48 89 85 00 f4 ff ff 	mov    %rax,-0xc00(%rbp)
    b377:	48 c7 85 08 f4 ff ff 	movq   $0x0,-0xbf8(%rbp)
    b37e:	00 00 00 00 
    b382:	48 8d 85 38 e7 ff ff 	lea    -0x18c8(%rbp),%rax
    b389:	48 89 85 10 f4 ff ff 	mov    %rax,-0xbf0(%rbp)
    b390:	48 8d 85 38 e7 ff ff 	lea    -0x18c8(%rbp),%rax
    b397:	48 89 85 18 f4 ff ff 	mov    %rax,-0xbe8(%rbp)
    b39e:	48 8d 85 38 e7 ff ff 	lea    -0x18c8(%rbp),%rax
    b3a5:	48 89 85 20 f4 ff ff 	mov    %rax,-0xbe0(%rbp)
    b3ac:	48 c7 85 28 f4 ff ff 	movq   $0x0,-0xbd8(%rbp)
    b3b3:	00 00 00 00 
    b3b7:	48 8d 85 38 e7 ff ff 	lea    -0x18c8(%rbp),%rax
    b3be:	48 89 85 30 f4 ff ff 	mov    %rax,-0xbd0(%rbp)
    b3c5:	48 8d 85 38 e7 ff ff 	lea    -0x18c8(%rbp),%rax
    b3cc:	48 89 85 38 f4 ff ff 	mov    %rax,-0xbc8(%rbp)
    b3d3:	48 c7 85 40 f4 ff ff 	movq   $0x0,-0xbc0(%rbp)
    b3da:	00 00 00 00 
    b3de:	48 8d 85 38 e7 ff ff 	lea    -0x18c8(%rbp),%rax
    b3e5:	48 89 85 48 f4 ff ff 	mov    %rax,-0xbb8(%rbp)
    b3ec:	48 c7 85 50 f4 ff ff 	movq   $0x0,-0xbb0(%rbp)
    b3f3:	00 00 00 00 
    b3f7:	48 8d 85 38 e7 ff ff 	lea    -0x18c8(%rbp),%rax
    b3fe:	48 89 85 58 f4 ff ff 	mov    %rax,-0xba8(%rbp)
    b405:	48 8d 85 38 e7 ff ff 	lea    -0x18c8(%rbp),%rax
    b40c:	48 89 85 60 f4 ff ff 	mov    %rax,-0xba0(%rbp)
    b413:	48 8d 85 38 e7 ff ff 	lea    -0x18c8(%rbp),%rax
    b41a:	48 89 85 68 f4 ff ff 	mov    %rax,-0xb98(%rbp)
    b421:	48 8d 85 38 e7 ff ff 	lea    -0x18c8(%rbp),%rax
    b428:	48 89 85 70 f4 ff ff 	mov    %rax,-0xb90(%rbp)
    b42f:	48 8d 85 38 e7 ff ff 	lea    -0x18c8(%rbp),%rax
    b436:	48 89 85 78 f4 ff ff 	mov    %rax,-0xb88(%rbp)
    b43d:	48 c7 85 80 f4 ff ff 	movq   $0x0,-0xb80(%rbp)
    b444:	00 00 00 00 
    b448:	48 8d 85 38 e7 ff ff 	lea    -0x18c8(%rbp),%rax
    b44f:	48 89 85 88 f4 ff ff 	mov    %rax,-0xb78(%rbp)
    b456:	48 8d 85 38 e7 ff ff 	lea    -0x18c8(%rbp),%rax
    b45d:	48 89 85 90 f4 ff ff 	mov    %rax,-0xb70(%rbp)
    b464:	48 8d 85 38 e7 ff ff 	lea    -0x18c8(%rbp),%rax
    b46b:	48 89 85 98 f4 ff ff 	mov    %rax,-0xb68(%rbp)
    b472:	48 c7 85 a0 f4 ff ff 	movq   $0x0,-0xb60(%rbp)
    b479:	00 00 00 00 
    b47d:	48 8d 85 38 e7 ff ff 	lea    -0x18c8(%rbp),%rax
    b484:	48 89 85 a8 f4 ff ff 	mov    %rax,-0xb58(%rbp)
    b48b:	48 8d 85 38 e7 ff ff 	lea    -0x18c8(%rbp),%rax
    b492:	48 89 85 b0 f4 ff ff 	mov    %rax,-0xb50(%rbp)
    b499:	48 8d 85 38 e7 ff ff 	lea    -0x18c8(%rbp),%rax
    b4a0:	48 89 85 b8 f4 ff ff 	mov    %rax,-0xb48(%rbp)
    b4a7:	48 c7 85 c0 f4 ff ff 	movq   $0x0,-0xb40(%rbp)
    b4ae:	00 00 00 00 
    b4b2:	48 8d 85 38 e7 ff ff 	lea    -0x18c8(%rbp),%rax
    b4b9:	48 89 85 c8 f4 ff ff 	mov    %rax,-0xb38(%rbp)
    b4c0:	48 8d 85 38 e7 ff ff 	lea    -0x18c8(%rbp),%rax
    b4c7:	48 89 85 d0 f4 ff ff 	mov    %rax,-0xb30(%rbp)
    b4ce:	48 8d 85 38 e7 ff ff 	lea    -0x18c8(%rbp),%rax
    b4d5:	48 89 85 d8 f4 ff ff 	mov    %rax,-0xb28(%rbp)
    b4dc:	48 8d 85 38 e7 ff ff 	lea    -0x18c8(%rbp),%rax
    b4e3:	48 89 85 e0 f4 ff ff 	mov    %rax,-0xb20(%rbp)
    b4ea:	48 8d 85 38 e7 ff ff 	lea    -0x18c8(%rbp),%rax
    b4f1:	48 89 85 e8 f4 ff ff 	mov    %rax,-0xb18(%rbp)
    b4f8:	48 8d 85 38 e7 ff ff 	lea    -0x18c8(%rbp),%rax
    b4ff:	48 89 85 f0 f4 ff ff 	mov    %rax,-0xb10(%rbp)
    b506:	48 8d 85 38 e7 ff ff 	lea    -0x18c8(%rbp),%rax
    b50d:	48 89 85 f8 f4 ff ff 	mov    %rax,-0xb08(%rbp)
    b514:	48 c7 85 00 f5 ff ff 	movq   $0x0,-0xb00(%rbp)
    b51b:	00 00 00 00 
    b51f:	48 c7 85 08 f5 ff ff 	movq   $0x0,-0xaf8(%rbp)
    b526:	00 00 00 00 
    b52a:	48 8d 85 38 e7 ff ff 	lea    -0x18c8(%rbp),%rax
    b531:	48 89 85 10 f5 ff ff 	mov    %rax,-0xaf0(%rbp)
    b538:	48 8d 85 38 e7 ff ff 	lea    -0x18c8(%rbp),%rax
    b53f:	48 89 85 18 f5 ff ff 	mov    %rax,-0xae8(%rbp)
    b546:	48 8d 85 38 e7 ff ff 	lea    -0x18c8(%rbp),%rax
    b54d:	48 89 85 20 f5 ff ff 	mov    %rax,-0xae0(%rbp)
    b554:	48 8d 85 38 e7 ff ff 	lea    -0x18c8(%rbp),%rax
    b55b:	48 89 85 28 f5 ff ff 	mov    %rax,-0xad8(%rbp)
    b562:	48 8d 85 38 e7 ff ff 	lea    -0x18c8(%rbp),%rax
    b569:	48 89 85 30 f5 ff ff 	mov    %rax,-0xad0(%rbp)
    b570:	48 8d 85 38 e7 ff ff 	lea    -0x18c8(%rbp),%rax
    b577:	48 89 85 38 f5 ff ff 	mov    %rax,-0xac8(%rbp)
    b57e:	48 8d 85 38 e7 ff ff 	lea    -0x18c8(%rbp),%rax
    b585:	48 89 85 40 f5 ff ff 	mov    %rax,-0xac0(%rbp)
    b58c:	48 8d 85 38 e7 ff ff 	lea    -0x18c8(%rbp),%rax
    b593:	48 89 85 48 f5 ff ff 	mov    %rax,-0xab8(%rbp)
    b59a:	48 8d 85 38 e7 ff ff 	lea    -0x18c8(%rbp),%rax
    b5a1:	48 89 85 50 f5 ff ff 	mov    %rax,-0xab0(%rbp)
    b5a8:	48 8d 85 38 e7 ff ff 	lea    -0x18c8(%rbp),%rax
    b5af:	48 89 85 58 f5 ff ff 	mov    %rax,-0xaa8(%rbp)
    b5b6:	48 8d 85 38 e7 ff ff 	lea    -0x18c8(%rbp),%rax
    b5bd:	48 89 85 60 f5 ff ff 	mov    %rax,-0xaa0(%rbp)
    b5c4:	48 8d 85 38 e7 ff ff 	lea    -0x18c8(%rbp),%rax
    b5cb:	48 89 85 68 f5 ff ff 	mov    %rax,-0xa98(%rbp)
    b5d2:	48 8d 85 38 e7 ff ff 	lea    -0x18c8(%rbp),%rax
    b5d9:	48 89 85 70 f5 ff ff 	mov    %rax,-0xa90(%rbp)
    b5e0:	48 8d 85 38 e7 ff ff 	lea    -0x18c8(%rbp),%rax
    b5e7:	48 89 85 78 f5 ff ff 	mov    %rax,-0xa88(%rbp)
    b5ee:	48 8d 85 38 e7 ff ff 	lea    -0x18c8(%rbp),%rax
    b5f5:	48 89 85 80 f5 ff ff 	mov    %rax,-0xa80(%rbp)
    b5fc:	48 8d 85 38 e7 ff ff 	lea    -0x18c8(%rbp),%rax
    b603:	48 89 85 88 f5 ff ff 	mov    %rax,-0xa78(%rbp)
    b60a:	48 8d 85 38 e7 ff ff 	lea    -0x18c8(%rbp),%rax
    b611:	48 89 85 90 f5 ff ff 	mov    %rax,-0xa70(%rbp)
    b618:	48 8d 85 38 e7 ff ff 	lea    -0x18c8(%rbp),%rax
    b61f:	48 89 85 98 f5 ff ff 	mov    %rax,-0xa68(%rbp)
    b626:	48 8d 85 38 e7 ff ff 	lea    -0x18c8(%rbp),%rax
    b62d:	48 89 85 a0 f5 ff ff 	mov    %rax,-0xa60(%rbp)
    b634:	48 8d 85 38 e7 ff ff 	lea    -0x18c8(%rbp),%rax
    b63b:	48 89 85 a8 f5 ff ff 	mov    %rax,-0xa58(%rbp)
    b642:	48 8d 85 38 e7 ff ff 	lea    -0x18c8(%rbp),%rax
    b649:	48 89 85 b0 f5 ff ff 	mov    %rax,-0xa50(%rbp)
    b650:	48 8d 85 38 e7 ff ff 	lea    -0x18c8(%rbp),%rax
    b657:	48 89 85 b8 f5 ff ff 	mov    %rax,-0xa48(%rbp)
    b65e:	48 c7 85 c0 f5 ff ff 	movq   $0x0,-0xa40(%rbp)
    b665:	00 00 00 00 
    b669:	48 8d 85 38 e7 ff ff 	lea    -0x18c8(%rbp),%rax
    b670:	48 89 85 c8 f5 ff ff 	mov    %rax,-0xa38(%rbp)
    b677:	48 c7 85 d0 f5 ff ff 	movq   $0x0,-0xa30(%rbp)
    b67e:	00 00 00 00 
    b682:	48 c7 85 d8 f5 ff ff 	movq   $0x0,-0xa28(%rbp)
    b689:	00 00 00 00 
    b68d:	48 8d 85 38 e7 ff ff 	lea    -0x18c8(%rbp),%rax
    b694:	48 89 85 e0 f5 ff ff 	mov    %rax,-0xa20(%rbp)
    b69b:	48 8d 85 38 e7 ff ff 	lea    -0x18c8(%rbp),%rax
    b6a2:	48 89 85 e8 f5 ff ff 	mov    %rax,-0xa18(%rbp)
    b6a9:	48 8d 85 38 e7 ff ff 	lea    -0x18c8(%rbp),%rax
    b6b0:	48 89 85 f0 f5 ff ff 	mov    %rax,-0xa10(%rbp)
    b6b7:	48 8d 85 38 e7 ff ff 	lea    -0x18c8(%rbp),%rax
    b6be:	48 89 85 f8 f5 ff ff 	mov    %rax,-0xa08(%rbp)
    b6c5:	48 8d 85 38 e7 ff ff 	lea    -0x18c8(%rbp),%rax
    b6cc:	48 89 85 00 f6 ff ff 	mov    %rax,-0xa00(%rbp)
    b6d3:	48 8d 85 38 e7 ff ff 	lea    -0x18c8(%rbp),%rax
    b6da:	48 89 85 08 f6 ff ff 	mov    %rax,-0x9f8(%rbp)
    b6e1:	48 8d 85 38 e7 ff ff 	lea    -0x18c8(%rbp),%rax
    b6e8:	48 89 85 10 f6 ff ff 	mov    %rax,-0x9f0(%rbp)
    b6ef:	48 8d 85 38 e7 ff ff 	lea    -0x18c8(%rbp),%rax
    b6f6:	48 89 85 18 f6 ff ff 	mov    %rax,-0x9e8(%rbp)
    b6fd:	48 c7 85 20 f6 ff ff 	movq   $0x0,-0x9e0(%rbp)
    b704:	00 00 00 00 
    b708:	48 c7 85 28 f6 ff ff 	movq   $0x0,-0x9d8(%rbp)
    b70f:	00 00 00 00 
    b713:	48 8d 85 38 e7 ff ff 	lea    -0x18c8(%rbp),%rax
    b71a:	48 89 85 30 f6 ff ff 	mov    %rax,-0x9d0(%rbp)
    b721:	48 8d 85 38 e7 ff ff 	lea    -0x18c8(%rbp),%rax
    b728:	48 89 85 38 f6 ff ff 	mov    %rax,-0x9c8(%rbp)
    b72f:	48 8d 85 38 e7 ff ff 	lea    -0x18c8(%rbp),%rax
    b736:	48 89 85 40 f6 ff ff 	mov    %rax,-0x9c0(%rbp)
    b73d:	48 8d 85 38 e7 ff ff 	lea    -0x18c8(%rbp),%rax
    b744:	48 89 85 48 f6 ff ff 	mov    %rax,-0x9b8(%rbp)
    b74b:	48 8d 85 38 e7 ff ff 	lea    -0x18c8(%rbp),%rax
    b752:	48 89 85 50 f6 ff ff 	mov    %rax,-0x9b0(%rbp)
    b759:	48 c7 85 58 f6 ff ff 	movq   $0x0,-0x9a8(%rbp)
    b760:	00 00 00 00 
    b764:	48 8d 85 38 e7 ff ff 	lea    -0x18c8(%rbp),%rax
    b76b:	48 89 85 60 f6 ff ff 	mov    %rax,-0x9a0(%rbp)
    b772:	48 8d 85 38 e7 ff ff 	lea    -0x18c8(%rbp),%rax
    b779:	48 89 85 68 f6 ff ff 	mov    %rax,-0x998(%rbp)
    b780:	48 8d 85 38 e7 ff ff 	lea    -0x18c8(%rbp),%rax
    b787:	48 89 85 70 f6 ff ff 	mov    %rax,-0x990(%rbp)
    b78e:	48 8d 85 38 e7 ff ff 	lea    -0x18c8(%rbp),%rax
    b795:	48 89 85 78 f6 ff ff 	mov    %rax,-0x988(%rbp)
    b79c:	48 8d 85 38 e7 ff ff 	lea    -0x18c8(%rbp),%rax
    b7a3:	48 89 85 80 f6 ff ff 	mov    %rax,-0x980(%rbp)
    b7aa:	48 8d 85 38 e7 ff ff 	lea    -0x18c8(%rbp),%rax
    b7b1:	48 89 85 88 f6 ff ff 	mov    %rax,-0x978(%rbp)
    b7b8:	48 8d 85 38 e7 ff ff 	lea    -0x18c8(%rbp),%rax
    b7bf:	48 89 85 90 f6 ff ff 	mov    %rax,-0x970(%rbp)
    b7c6:	48 c7 85 98 f6 ff ff 	movq   $0x0,-0x968(%rbp)
    b7cd:	00 00 00 00 
    b7d1:	48 c7 85 a0 f6 ff ff 	movq   $0x0,-0x960(%rbp)
    b7d8:	00 00 00 00 
    b7dc:	48 c7 85 a8 f6 ff ff 	movq   $0x0,-0x958(%rbp)
    b7e3:	00 00 00 00 
    b7e7:	48 8d 85 38 e7 ff ff 	lea    -0x18c8(%rbp),%rax
    b7ee:	48 89 85 b0 f6 ff ff 	mov    %rax,-0x950(%rbp)
    b7f5:	48 8d 85 38 e7 ff ff 	lea    -0x18c8(%rbp),%rax
    b7fc:	48 89 85 b8 f6 ff ff 	mov    %rax,-0x948(%rbp)
    b803:	48 8d 85 38 e7 ff ff 	lea    -0x18c8(%rbp),%rax
    b80a:	48 89 85 c0 f6 ff ff 	mov    %rax,-0x940(%rbp)
    b811:	48 8d 85 38 e7 ff ff 	lea    -0x18c8(%rbp),%rax
    b818:	48 89 85 c8 f6 ff ff 	mov    %rax,-0x938(%rbp)
    b81f:	48 8d 85 38 e7 ff ff 	lea    -0x18c8(%rbp),%rax
    b826:	48 89 85 d0 f6 ff ff 	mov    %rax,-0x930(%rbp)
    b82d:	48 8d 85 38 e7 ff ff 	lea    -0x18c8(%rbp),%rax
    b834:	48 89 85 d8 f6 ff ff 	mov    %rax,-0x928(%rbp)
    b83b:	48 8d 85 38 e7 ff ff 	lea    -0x18c8(%rbp),%rax
    b842:	48 89 85 e0 f6 ff ff 	mov    %rax,-0x920(%rbp)
    b849:	48 c7 85 e8 f6 ff ff 	movq   $0x0,-0x918(%rbp)
    b850:	00 00 00 00 
    b854:	48 c7 85 f0 f6 ff ff 	movq   $0x0,-0x910(%rbp)
    b85b:	00 00 00 00 
    b85f:	48 8d 85 38 e7 ff ff 	lea    -0x18c8(%rbp),%rax
    b866:	48 89 85 f8 f6 ff ff 	mov    %rax,-0x908(%rbp)
    b86d:	48 c7 85 00 f7 ff ff 	movq   $0x0,-0x900(%rbp)
    b874:	00 00 00 00 
    b878:	48 8d 85 38 e7 ff ff 	lea    -0x18c8(%rbp),%rax
    b87f:	48 89 85 08 f7 ff ff 	mov    %rax,-0x8f8(%rbp)
    b886:	48 8d 85 38 e7 ff ff 	lea    -0x18c8(%rbp),%rax
    b88d:	48 89 85 10 f7 ff ff 	mov    %rax,-0x8f0(%rbp)
    b894:	48 8d 85 38 e7 ff ff 	lea    -0x18c8(%rbp),%rax
    b89b:	48 89 85 18 f7 ff ff 	mov    %rax,-0x8e8(%rbp)
    b8a2:	48 8d 85 38 e7 ff ff 	lea    -0x18c8(%rbp),%rax
    b8a9:	48 89 85 20 f7 ff ff 	mov    %rax,-0x8e0(%rbp)
    b8b0:	48 8d 85 38 e7 ff ff 	lea    -0x18c8(%rbp),%rax
    b8b7:	48 89 85 28 f7 ff ff 	mov    %rax,-0x8d8(%rbp)
    b8be:	48 8d 85 38 e7 ff ff 	lea    -0x18c8(%rbp),%rax
    b8c5:	48 89 85 30 f7 ff ff 	mov    %rax,-0x8d0(%rbp)
    b8cc:	48 8d 85 38 e7 ff ff 	lea    -0x18c8(%rbp),%rax
    b8d3:	48 89 85 38 f7 ff ff 	mov    %rax,-0x8c8(%rbp)
    b8da:	48 8d 85 38 e7 ff ff 	lea    -0x18c8(%rbp),%rax
    b8e1:	48 89 85 40 f7 ff ff 	mov    %rax,-0x8c0(%rbp)
    b8e8:	48 8d 85 38 e7 ff ff 	lea    -0x18c8(%rbp),%rax
    b8ef:	48 89 85 48 f7 ff ff 	mov    %rax,-0x8b8(%rbp)
    b8f6:	48 8d 85 38 e7 ff ff 	lea    -0x18c8(%rbp),%rax
    b8fd:	48 89 85 50 f7 ff ff 	mov    %rax,-0x8b0(%rbp)
    b904:	48 8d 85 38 e7 ff ff 	lea    -0x18c8(%rbp),%rax
    b90b:	48 89 85 58 f7 ff ff 	mov    %rax,-0x8a8(%rbp)
    b912:	48 8d 85 38 e7 ff ff 	lea    -0x18c8(%rbp),%rax
    b919:	48 89 85 60 f7 ff ff 	mov    %rax,-0x8a0(%rbp)
    b920:	48 8d 85 38 e7 ff ff 	lea    -0x18c8(%rbp),%rax
    b927:	48 89 85 68 f7 ff ff 	mov    %rax,-0x898(%rbp)
    b92e:	48 8d 85 38 e7 ff ff 	lea    -0x18c8(%rbp),%rax
    b935:	48 89 85 70 f7 ff ff 	mov    %rax,-0x890(%rbp)
    b93c:	48 8d 85 38 e7 ff ff 	lea    -0x18c8(%rbp),%rax
    b943:	48 89 85 78 f7 ff ff 	mov    %rax,-0x888(%rbp)
    b94a:	48 8d 85 38 e7 ff ff 	lea    -0x18c8(%rbp),%rax
    b951:	48 89 85 80 f7 ff ff 	mov    %rax,-0x880(%rbp)
    b958:	48 c7 85 88 f7 ff ff 	movq   $0x0,-0x878(%rbp)
    b95f:	00 00 00 00 
    b963:	48 8d 85 38 e7 ff ff 	lea    -0x18c8(%rbp),%rax
    b96a:	48 89 85 90 f7 ff ff 	mov    %rax,-0x870(%rbp)
    b971:	48 c7 85 98 f7 ff ff 	movq   $0x0,-0x868(%rbp)
    b978:	00 00 00 00 
    b97c:	48 8d 85 38 e7 ff ff 	lea    -0x18c8(%rbp),%rax
    b983:	48 89 85 a0 f7 ff ff 	mov    %rax,-0x860(%rbp)
    b98a:	48 c7 85 a8 f7 ff ff 	movq   $0x0,-0x858(%rbp)
    b991:	00 00 00 00 
    b995:	48 8d 85 38 e7 ff ff 	lea    -0x18c8(%rbp),%rax
    b99c:	48 89 85 b0 f7 ff ff 	mov    %rax,-0x850(%rbp)
    b9a3:	48 8d 85 38 e7 ff ff 	lea    -0x18c8(%rbp),%rax
    b9aa:	48 89 85 b8 f7 ff ff 	mov    %rax,-0x848(%rbp)
    b9b1:	66 c7 85 ae e6 ff ff 	movw   $0xffff,-0x1952(%rbp)
    b9b8:	ff ff 
    b9ba:	48 8d 05 df a3 00 00 	lea    0xa3df(%rip),%rax        # 15da0 <g_607>
    b9c1:	48 89 85 e8 e7 ff ff 	mov    %rax,-0x1818(%rbp)
    b9c8:	66 c7 85 b2 e6 ff ff 	movw   $0xc8ce,-0x194e(%rbp)
    b9cf:	ce c8 
    b9d1:	c7 85 c4 e6 ff ff 00 	movl   $0x0,-0x193c(%rbp)
    b9d8:	00 00 00 
    b9db:	eb 1e                	jmp    b9fb <func_46+0xe1d>
    b9dd:	8b 85 c4 e6 ff ff    	mov    -0x193c(%rbp),%eax
    b9e3:	48 98                	cltq   
    b9e5:	48 8d 15 74 96 00 00 	lea    0x9674(%rip),%rdx        # 15060 <g_83+0x20>
    b9ec:	48 89 94 c5 60 e9 ff 	mov    %rdx,-0x16a0(%rbp,%rax,8)
    b9f3:	ff 
    b9f4:	83 85 c4 e6 ff ff 01 	addl   $0x1,-0x193c(%rbp)
    b9fb:	83 bd c4 e6 ff ff 03 	cmpl   $0x3,-0x193c(%rbp)
    ba02:	7e d9                	jle    b9dd <func_46+0xdff>
    ba04:	0f b7 85 aa e6 ff ff 	movzwl -0x1956(%rbp),%eax
    ba0b:	83 c0 01             	add    $0x1,%eax
    ba0e:	66 89 85 aa e6 ff ff 	mov    %ax,-0x1956(%rbp)
    ba15:	66 c7 05 f4 9d 00 00 	movw   $0xa,0x9df4(%rip)        # 15812 <g_236>
    ba1c:	0a 00 
    ba1e:	e9 12 05 00 00       	jmpq   bf35 <func_46+0x1357>
    ba23:	c7 85 04 e7 ff ff f7 	movl   $0xfffffff7,-0x18fc(%rbp)
    ba2a:	ff ff ff 
    ba2d:	c7 85 00 ee ff ff 07 	movl   $0x7,-0x1200(%rbp)
    ba34:	00 00 00 
    ba37:	c7 85 04 ee ff ff 9d 	movl   $0x4249079d,-0x11fc(%rbp)
    ba3e:	07 49 42 
    ba41:	c7 85 08 ee ff ff 9d 	movl   $0x4249079d,-0x11f8(%rbp)
    ba48:	07 49 42 
    ba4b:	c7 85 0c ee ff ff 07 	movl   $0x7,-0x11f4(%rbp)
    ba52:	00 00 00 
    ba55:	c7 85 10 ee ff ff 9d 	movl   $0x4249079d,-0x11f0(%rbp)
    ba5c:	07 49 42 
    ba5f:	c7 85 14 ee ff ff 9d 	movl   $0x4249079d,-0x11ec(%rbp)
    ba66:	07 49 42 
    ba69:	c7 05 75 96 00 00 00 	movl   $0x0,0x9675(%rip)        # 150e8 <g_158>
    ba70:	00 00 00 
    ba73:	e9 91 04 00 00       	jmpq   bf09 <func_46+0x132b>
    ba78:	c7 85 08 e7 ff ff f7 	movl   $0xfffffff7,-0x18f8(%rbp)
    ba7f:	ff ff ff 
    ba82:	48 8d 05 a7 b8 00 00 	lea    0xb8a7(%rip),%rax        # 17330 <g_521>
    ba89:	48 89 85 f8 e8 ff ff 	mov    %rax,-0x1708(%rbp)
    ba90:	c7 85 0c e7 ff ff fb 	movl   $0xfffffffb,-0x18f4(%rbp)
    ba97:	ff ff ff 
    ba9a:	48 c7 05 f3 a2 00 00 	movq   $0x3,0xa2f3(%rip)        # 15d98 <g_562>
    baa1:	03 00 00 00 
    baa5:	e9 35 04 00 00       	jmpq   bedf <func_46+0x1301>
    baaa:	48 8d 05 63 9d 00 00 	lea    0x9d63(%rip),%rax        # 15814 <g_267>
    bab1:	48 89 85 00 e9 ff ff 	mov    %rax,-0x1700(%rbp)
    bab8:	c7 85 10 e7 ff ff 01 	movl   $0x1,-0x18f0(%rbp)
    babf:	00 00 00 
    bac2:	48 8d 05 37 9c 00 00 	lea    0x9c37(%rip),%rax        # 15700 <g_188+0x580>
    bac9:	48 89 85 08 e9 ff ff 	mov    %rax,-0x16f8(%rbp)
    bad0:	48 c7 85 10 e9 ff ff 	movq   $0x0,-0x16f0(%rbp)
    bad7:	00 00 00 00 
    badb:	48 8d 05 f6 95 00 00 	lea    0x95f6(%rip),%rax        # 150d8 <g_123>
    bae2:	48 89 85 18 e9 ff ff 	mov    %rax,-0x16e8(%rbp)
    bae9:	48 8d 05 44 96 00 00 	lea    0x9644(%rip),%rax        # 15134 <g_186+0x14>
    baf0:	48 89 85 20 e9 ff ff 	mov    %rax,-0x16e0(%rbp)
    baf7:	48 8b 85 c0 e7 ff ff 	mov    -0x1840(%rbp),%rax
    bafe:	c7 00 ff ff ff ff    	movl   $0xffffffff,(%rax)
    bb04:	48 c7 85 20 e7 ff ff 	movq   $0x3,-0x18e0(%rbp)
    bb0b:	03 00 00 00 
    bb0f:	e9 9c 02 00 00       	jmpq   bdb0 <func_46+0x11d2>
    bb14:	48 8d 05 c5 95 00 00 	lea    0x95c5(%rip),%rax        # 150e0 <g_125>
    bb1b:	48 89 85 28 e9 ff ff 	mov    %rax,-0x16d8(%rbp)
    bb22:	48 8d 05 6b a2 00 00 	lea    0xa26b(%rip),%rax        # 15d94 <g_504>
    bb29:	48 89 85 30 e9 ff ff 	mov    %rax,-0x16d0(%rbp)
    bb30:	c7 85 14 e7 ff ff 73 	movl   $0x5ec73f73,-0x18ec(%rbp)
    bb37:	3f c7 5e 
    bb3a:	48 8d 05 9f 98 00 00 	lea    0x989f(%rip),%rax        # 153e0 <g_188+0x260>
    bb41:	48 89 85 38 e9 ff ff 	mov    %rax,-0x16c8(%rbp)
    bb48:	c7 85 c8 e6 ff ff 00 	movl   $0x0,-0x1938(%rbp)
    bb4f:	00 00 00 
    bb52:	eb 1b                	jmp    bb6f <func_46+0xf91>
    bb54:	8b 85 c8 e6 ff ff    	mov    -0x1938(%rbp),%eax
    bb5a:	48 98                	cltq   
    bb5c:	48 c7 84 c5 c0 f7 ff 	movq   $0x0,-0x840(%rbp,%rax,8)
    bb63:	ff 00 00 00 00 
    bb68:	83 85 c8 e6 ff ff 01 	addl   $0x1,-0x1938(%rbp)
    bb6f:	83 bd c8 e6 ff ff 05 	cmpl   $0x5,-0x1938(%rbp)
    bb76:	7e dc                	jle    bb54 <func_46+0xf76>
    bb78:	0f b6 85 9c e6 ff ff 	movzbl -0x1964(%rbp),%eax
    bb7f:	0f b6 d8             	movzbl %al,%ebx
    bb82:	0f b6 85 9c e6 ff ff 	movzbl -0x1964(%rbp),%eax
    bb89:	44 0f b6 e0          	movzbl %al,%r12d
    bb8d:	0f b7 05 a0 95 00 00 	movzwl 0x95a0(%rip),%eax        # 15134 <g_186+0x14>
    bb94:	44 0f bf e8          	movswl %ax,%r13d
    bb98:	48 8b 85 28 e9 ff ff 	mov    -0x16d8(%rbp),%rax
    bb9f:	48 8b 10             	mov    (%rax),%rdx
    bba2:	48 8b 05 2f a2 00 00 	mov    0xa22f(%rip),%rax        # 15dd8 <g_645+0x8>
    bba9:	48 c1 e0 1e          	shl    $0x1e,%rax
    bbad:	48 c1 f8 23          	sar    $0x23,%rax
    bbb1:	48 98                	cltq   
    bbb3:	48 09 c2             	or     %rax,%rdx
    bbb6:	48 8b 85 28 e9 ff ff 	mov    -0x16d8(%rbp),%rax
    bbbd:	48 89 10             	mov    %rdx,(%rax)
    bbc0:	48 8b 85 28 e9 ff ff 	mov    -0x16d8(%rbp),%rax
    bbc7:	48 8b 00             	mov    (%rax),%rax
    bbca:	48 89 c2             	mov    %rax,%rdx
    bbcd:	48 b8 ed 16 5d 4b 65 	movabs $0xcde3be654b5d16ed,%rax
    bbd4:	be e3 cd 
    bbd7:	48 39 c2             	cmp    %rax,%rdx
    bbda:	0f 96 c0             	setbe  %al
    bbdd:	0f b6 d0             	movzbl %al,%edx
    bbe0:	48 8b 85 30 e9 ff ff 	mov    -0x16d0(%rbp),%rax
    bbe7:	89 10                	mov    %edx,(%rax)
    bbe9:	c6 85 98 e6 ff ff 6e 	movb   $0x6e,-0x1968(%rbp)
    bbf0:	b8 fc ff ff ff       	mov    $0xfffffffc,%eax
    bbf5:	0f be c0             	movsbl %al,%eax
    bbf8:	be 6e 00 00 00       	mov    $0x6e,%esi
    bbfd:	89 c7                	mov    %eax,%edi
    bbff:	e8 66 96 ff ff       	callq  526a <safe_div_func_int8_t_s_s>
    bc04:	83 bd 14 e7 ff ff 00 	cmpl   $0x0,-0x18ec(%rbp)
    bc0b:	75 66                	jne    bc73 <func_46+0x1095>
    bc0d:	0f b7 05 9c a1 00 00 	movzwl 0xa19c(%rip),%eax        # 15db0 <g_644>
    bc14:	c1 e0 03             	shl    $0x3,%eax
    bc17:	66 c1 f8 03          	sar    $0x3,%ax
    bc1b:	48 0f bf d0          	movswq %ax,%rdx
    bc1f:	48 8b 85 38 e9 ff ff 	mov    -0x16c8(%rbp),%rax
    bc26:	48 89 10             	mov    %rdx,(%rax)
    bc29:	48 8b 85 38 e9 ff ff 	mov    -0x16c8(%rbp),%rax
    bc30:	48 8b 00             	mov    (%rax),%rax
    bc33:	48 ba 32 72 68 62 b1 	movabs $0x73672b162687232,%rdx
    bc3a:	72 36 07 
    bc3d:	48 31 d0             	xor    %rdx,%rax
    bc40:	48 89 c1             	mov    %rax,%rcx
    bc43:	0f b6 85 9c e6 ff ff 	movzbl -0x1964(%rbp),%eax
    bc4a:	0f b6 d0             	movzbl %al,%edx
    bc4d:	48 8b 85 28 e9 ff ff 	mov    -0x16d8(%rbp),%rax
    bc54:	48 89 10             	mov    %rdx,(%rax)
    bc57:	48 8b 85 28 e9 ff ff 	mov    -0x16d8(%rbp),%rax
    bc5e:	48 8b 00             	mov    (%rax),%rax
    bc61:	48 89 ce             	mov    %rcx,%rsi
    bc64:	48 89 c7             	mov    %rax,%rdi
    bc67:	e8 48 9d ff ff       	callq  59b4 <safe_mod_func_int64_t_s_s>
    bc6c:	b8 00 00 00 00       	mov    $0x0,%eax
    bc71:	eb 05                	jmp    bc78 <func_46+0x109a>
    bc73:	b8 01 00 00 00       	mov    $0x1,%eax
    bc78:	0f b7 c0             	movzwl %ax,%eax
    bc7b:	44 89 ee             	mov    %r13d,%esi
    bc7e:	89 c7                	mov    %eax,%edi
    bc80:	e8 81 a1 ff ff       	callq  5e06 <safe_lshift_func_uint16_t_u_u>
    bc85:	98                   	cwtl   
    bc86:	44 89 e6             	mov    %r12d,%esi
    bc89:	89 c7                	mov    %eax,%edi
    bc8b:	e8 65 97 ff ff       	callq  53f5 <safe_mul_func_int16_t_s_s>
    bc90:	be 02 00 00 00       	mov    $0x2,%esi
    bc95:	bf 69 3e 00 00       	mov    $0x3e69,%edi
    bc9a:	e8 a9 a1 ff ff       	callq  5e48 <safe_rshift_func_uint16_t_u_s>
    bc9f:	0f b6 95 9c e6 ff ff 	movzbl -0x1964(%rbp),%edx
    bca6:	0f b6 d2             	movzbl %dl,%edx
    bca9:	31 d0                	xor    %edx,%eax
    bcab:	98                   	cwtl   
    bcac:	89 de                	mov    %ebx,%esi
    bcae:	89 c7                	mov    %eax,%edi
    bcb0:	e8 40 97 ff ff       	callq  53f5 <safe_mul_func_int16_t_s_s>
    bcb5:	48 0f bf c0          	movswq %ax,%rax
    bcb9:	be 01 00 00 00       	mov    $0x1,%esi
    bcbe:	48 89 c7             	mov    %rax,%rdi
    bcc1:	e8 e9 a3 ff ff       	callq  60af <safe_div_func_uint64_t_u_u>
    bcc6:	48 8b 95 d0 e7 ff ff 	mov    -0x1830(%rbp),%rdx
    bccd:	8b 12                	mov    (%rdx),%edx
    bccf:	21 d0                	and    %edx,%eax
    bcd1:	89 c2                	mov    %eax,%edx
    bcd3:	48 8b 85 d0 e7 ff ff 	mov    -0x1830(%rbp),%rax
    bcda:	89 10                	mov    %edx,(%rax)
    bcdc:	0f b6 05 2d 9b 00 00 	movzbl 0x9b2d(%rip),%eax        # 15810 <g_228>
    bce3:	0f be d8             	movsbl %al,%ebx
    bce6:	8b 05 84 a0 00 00    	mov    0xa084(%rip),%eax        # 15d70 <g_462>
    bcec:	44 0f be e0          	movsbl %al,%r12d
    bcf0:	b8 00 00 00 00       	mov    $0x0,%eax
    bcf5:	3b 85 10 e7 ff ff    	cmp    -0x18f0(%rbp),%eax
    bcfb:	0f 9e c0             	setle  %al
    bcfe:	0f b6 c0             	movzbl %al,%eax
    bd01:	8b 95 08 e7 ff ff    	mov    -0x18f8(%rbp),%edx
    bd07:	89 d6                	mov    %edx,%esi
    bd09:	89 c7                	mov    %eax,%edi
    bd0b:	e8 d1 97 ff ff       	callq  54e1 <safe_lshift_func_int16_t_s_u>
    bd10:	0f be c0             	movsbl %al,%eax
    bd13:	44 89 e6             	mov    %r12d,%esi
    bd16:	89 c7                	mov    %eax,%edi
    bd18:	e8 14 95 ff ff       	callq  5231 <safe_mod_func_int8_t_s_s>
    bd1d:	0f be c0             	movsbl %al,%eax
    bd20:	be 00 00 00 00       	mov    $0x0,%esi
    bd25:	89 c7                	mov    %eax,%edi
    bd27:	e8 fe 97 ff ff       	callq  552a <safe_rshift_func_int16_t_s_s>
    bd2c:	0f bf d0             	movswl %ax,%edx
    bd2f:	0f b6 85 9c e6 ff ff 	movzbl -0x1964(%rbp),%eax
    bd36:	0f b6 c0             	movzbl %al,%eax
    bd39:	21 c2                	and    %eax,%edx
    bd3b:	48 8b 85 00 e9 ff ff 	mov    -0x1700(%rbp),%rax
    bd42:	0f b6 00             	movzbl (%rax),%eax
    bd45:	89 c1                	mov    %eax,%ecx
    bd47:	89 d0                	mov    %edx,%eax
    bd49:	09 c8                	or     %ecx,%eax
    bd4b:	89 c2                	mov    %eax,%edx
    bd4d:	48 8b 85 00 e9 ff ff 	mov    -0x1700(%rbp),%rax
    bd54:	88 10                	mov    %dl,(%rax)
    bd56:	48 8b 85 00 e9 ff ff 	mov    -0x1700(%rbp),%rax
    bd5d:	0f b6 00             	movzbl (%rax),%eax
    bd60:	0f b6 c0             	movzbl %al,%eax
    bd63:	89 de                	mov    %ebx,%esi
    bd65:	89 c7                	mov    %eax,%edi
    bd67:	e8 99 9e ff ff       	callq  5c05 <safe_lshift_func_uint8_t_u_s>
    bd6c:	0f b6 c0             	movzbl %al,%eax
    bd6f:	8b 95 10 e7 ff ff    	mov    -0x18f0(%rbp),%edx
    bd75:	89 d6                	mov    %edx,%esi
    bd77:	89 c7                	mov    %eax,%edi
    bd79:	e8 0f 9f ff ff       	callq  5c8d <safe_rshift_func_uint8_t_u_s>
    bd7e:	0f b6 c0             	movzbl %al,%eax
    bd81:	0d 73 b1 20 36       	or     $0x3620b173,%eax
    bd86:	89 c2                	mov    %eax,%edx
    bd88:	48 8b 85 b8 e7 ff ff 	mov    -0x1848(%rbp),%rax
    bd8f:	89 10                	mov    %edx,(%rax)
    bd91:	48 8b 85 b0 e7 ff ff 	mov    -0x1850(%rbp),%rax
    bd98:	c7 00 78 a7 5f e2    	movl   $0xe25fa778,(%rax)
    bd9e:	48 8b 85 20 e7 ff ff 	mov    -0x18e0(%rbp),%rax
    bda5:	48 83 e8 01          	sub    $0x1,%rax
    bda9:	48 89 85 20 e7 ff ff 	mov    %rax,-0x18e0(%rbp)
    bdb0:	48 8b 85 20 e7 ff ff 	mov    -0x18e0(%rbp),%rax
    bdb7:	48 85 c0             	test   %rax,%rax
    bdba:	0f 89 54 fd ff ff    	jns    bb14 <func_46+0xf36>
    bdc0:	48 8b 05 41 b5 00 00 	mov    0xb541(%rip),%rax        # 17308 <g_54>
    bdc7:	48 c7 00 00 00 00 00 	movq   $0x0,(%rax)
    bdce:	0f b6 9d 98 e6 ff ff 	movzbl -0x1968(%rbp),%ebx
    bdd5:	0f b6 95 98 e6 ff ff 	movzbl -0x1968(%rbp),%edx
    bddc:	83 bd 10 e7 ff ff 00 	cmpl   $0x0,-0x18f0(%rbp)
    bde3:	0f 95 c0             	setne  %al
    bde6:	0f b6 c8             	movzbl %al,%ecx
    bde9:	48 8b 85 08 e9 ff ff 	mov    -0x16f8(%rbp),%rax
    bdf0:	48 89 08             	mov    %rcx,(%rax)
    bdf3:	48 8b 85 08 e9 ff ff 	mov    -0x16f8(%rbp),%rax
    bdfa:	48 8b 00             	mov    (%rax),%rax
    bdfd:	48 85 c0             	test   %rax,%rax
    be00:	75 0e                	jne    be10 <func_46+0x1232>
    be02:	48 8b 85 f8 e8 ff ff 	mov    -0x1708(%rbp),%rax
    be09:	48 3b 85 10 e9 ff ff 	cmp    -0x16f0(%rbp),%rax
    be10:	48 8b 05 11 b5 00 00 	mov    0xb511(%rip),%rax        # 17328 <g_444>
    be17:	48 8b 00             	mov    (%rax),%rax
    be1a:	0f b6 b5 98 e6 ff ff 	movzbl -0x1968(%rbp),%esi
    be21:	48 8b 8d 18 e9 ff ff 	mov    -0x16e8(%rbp),%rcx
    be28:	48 89 31             	mov    %rsi,(%rcx)
    be2b:	48 8b 8d 18 e9 ff ff 	mov    -0x16e8(%rbp),%rcx
    be32:	48 8b 09             	mov    (%rcx),%rcx
    be35:	89 8d 14 ee ff ff    	mov    %ecx,-0x11ec(%rbp)
    be3b:	8b 8d 14 ee ff ff    	mov    -0x11ec(%rbp),%ecx
    be41:	85 c9                	test   %ecx,%ecx
    be43:	74 1f                	je     be64 <func_46+0x1286>
    be45:	0f b6 8d 98 e6 ff ff 	movzbl -0x1968(%rbp),%ecx
    be4c:	23 8d 08 e7 ff ff    	and    -0x18f8(%rbp),%ecx
    be52:	85 c9                	test   %ecx,%ecx
    be54:	0f 94 c1             	sete   %cl
    be57:	0f b6 f1             	movzbl %cl,%esi
    be5a:	8b 8d 04 ee ff ff    	mov    -0x11fc(%rbp),%ecx
    be60:	21 f1                	and    %esi,%ecx
    be62:	85 c9                	test   %ecx,%ecx
    be64:	48 8b 8d 20 e9 ff ff 	mov    -0x16e0(%rbp),%rcx
    be6b:	48 89 8d 88 e7 ff ff 	mov    %rcx,-0x1878(%rbp)
    be72:	48 39 85 88 e7 ff ff 	cmp    %rax,-0x1878(%rbp)
    be79:	0f 95 c0             	setne  %al
    be7c:	0f b6 c0             	movzbl %al,%eax
    be7f:	89 d6                	mov    %edx,%esi
    be81:	89 c7                	mov    %eax,%edi
    be83:	e8 48 a0 ff ff       	callq  5ed0 <safe_sub_func_uint32_t_u_u>
    be88:	98                   	cwtl   
    be89:	89 de                	mov    %ebx,%esi
    be8b:	89 c7                	mov    %eax,%edi
    be8d:	e8 98 96 ff ff       	callq  552a <safe_rshift_func_int16_t_s_s>
    be92:	f7 d0                	not    %eax
    be94:	0f b6 c0             	movzbl %al,%eax
    be97:	89 c6                	mov    %eax,%esi
    be99:	bf ff 00 00 00       	mov    $0xff,%edi
    be9e:	e8 b7 9c ff ff       	callq  5b5a <safe_add_func_uint8_t_u_u>
    bea3:	0f b6 c0             	movzbl %al,%eax
    bea6:	be 05 00 00 00       	mov    $0x5,%esi
    beab:	89 c7                	mov    %eax,%edi
    bead:	e8 53 9d ff ff       	callq  5c05 <safe_lshift_func_uint8_t_u_s>
    beb2:	84 c0                	test   %al,%al
    beb4:	75 0a                	jne    bec0 <func_46+0x12e2>
    beb6:	48 8b 05 ab 5d 00 00 	mov    0x5dab(%rip),%rax        # 11c68 <l_741.4621+0x48>
    bebd:	48 85 c0             	test   %rax,%rax
    bec0:	48 8b 85 d8 e7 ff ff 	mov    -0x1828(%rbp),%rax
    bec7:	c7 00 01 00 00 00    	movl   $0x1,(%rax)
    becd:	48 8b 05 c4 9e 00 00 	mov    0x9ec4(%rip),%rax        # 15d98 <g_562>
    bed4:	48 83 e8 01          	sub    $0x1,%rax
    bed8:	48 89 05 b9 9e 00 00 	mov    %rax,0x9eb9(%rip)        # 15d98 <g_562>
    bedf:	48 8b 05 b2 9e 00 00 	mov    0x9eb2(%rip),%rax        # 15d98 <g_562>
    bee6:	48 85 c0             	test   %rax,%rax
    bee9:	0f 89 bb fb ff ff    	jns    baaa <func_46+0xecc>
    beef:	48 8b 85 c0 e7 ff ff 	mov    -0x1840(%rbp),%rax
    bef6:	8b 00                	mov    (%rax),%eax
    bef8:	85 c0                	test   %eax,%eax
    befa:	8b 05 e8 91 00 00    	mov    0x91e8(%rip),%eax        # 150e8 <g_158>
    bf00:	83 c0 01             	add    $0x1,%eax
    bf03:	89 05 df 91 00 00    	mov    %eax,0x91df(%rip)        # 150e8 <g_158>
    bf09:	8b 05 d9 91 00 00    	mov    0x91d9(%rip),%eax        # 150e8 <g_158>
    bf0f:	83 f8 03             	cmp    $0x3,%eax
    bf12:	0f 86 60 fb ff ff    	jbe    ba78 <func_46+0xe9a>
    bf18:	0f b7 05 f3 98 00 00 	movzwl 0x98f3(%rip),%eax        # 15812 <g_236>
    bf1f:	0f b7 c0             	movzwl %ax,%eax
    bf22:	be 02 00 00 00       	mov    $0x2,%esi
    bf27:	89 c7                	mov    %eax,%edi
    bf29:	e8 88 96 ff ff       	callq  55b6 <safe_add_func_int32_t_s_s>
    bf2e:	66 89 05 dd 98 00 00 	mov    %ax,0x98dd(%rip)        # 15812 <g_236>
    bf35:	0f b7 05 d6 98 00 00 	movzwl 0x98d6(%rip),%eax        # 15812 <g_236>
    bf3c:	66 83 f8 0e          	cmp    $0xe,%ax
    bf40:	0f 85 dd fa ff ff    	jne    ba23 <func_46+0xe45>
    bf46:	48 8b 85 d0 e7 ff ff 	mov    -0x1830(%rbp),%rax
    bf4d:	8b 00                	mov    (%rax),%eax
    bf4f:	85 c0                	test   %eax,%eax
    bf51:	74 14                	je     bf67 <func_46+0x1389>
    bf53:	c6 85 a9 e6 ff ff ab 	movb   $0xab,-0x1957(%rbp)
    bf5a:	48 0f be 85 a9 e6 ff 	movsbq -0x1957(%rbp),%rax
    bf61:	ff 
    bf62:	e9 11 1f 00 00       	jmpq   de78 <func_46+0x329a>
    bf67:	48 8d 85 b0 ec ff ff 	lea    -0x1350(%rbp),%rax
    bf6e:	48 8d 15 2b 51 00 00 	lea    0x512b(%rip),%rdx        # 110a0 <g_1404+0x20>
    bf75:	b9 28 00 00 00       	mov    $0x28,%ecx
    bf7a:	48 89 c7             	mov    %rax,%rdi
    bf7d:	48 89 d6             	mov    %rdx,%rsi
    bf80:	f3 48 a5             	rep movsq %ds:(%rsi),%es:(%rdi)
    bf83:	48 89 f2             	mov    %rsi,%rdx
    bf86:	48 89 f8             	mov    %rdi,%rax
    bf89:	8b 0a                	mov    (%rdx),%ecx
    bf8b:	89 08                	mov    %ecx,(%rax)
    bf8d:	48 c7 85 f0 e7 ff ff 	movq   $0x0,-0x1810(%rbp)
    bf94:	00 00 00 00 
    bf98:	48 8d 05 f5 9d 00 00 	lea    0x9df5(%rip),%rax        # 15d94 <g_504>
    bf9f:	48 89 85 f8 e7 ff ff 	mov    %rax,-0x1808(%rbp)
    bfa6:	48 8d 05 3b 91 00 00 	lea    0x913b(%rip),%rax        # 150e8 <g_158>
    bfad:	48 89 85 90 ea ff ff 	mov    %rax,-0x1570(%rbp)
    bfb4:	48 8d 05 2d 91 00 00 	lea    0x912d(%rip),%rax        # 150e8 <g_158>
    bfbb:	48 89 85 98 ea ff ff 	mov    %rax,-0x1568(%rbp)
    bfc2:	48 8d 05 1f 91 00 00 	lea    0x911f(%rip),%rax        # 150e8 <g_158>
    bfc9:	48 89 85 a0 ea ff ff 	mov    %rax,-0x1560(%rbp)
    bfd0:	48 8d 05 11 91 00 00 	lea    0x9111(%rip),%rax        # 150e8 <g_158>
    bfd7:	48 89 85 a8 ea ff ff 	mov    %rax,-0x1558(%rbp)
    bfde:	48 8d 05 03 91 00 00 	lea    0x9103(%rip),%rax        # 150e8 <g_158>
    bfe5:	48 89 85 b0 ea ff ff 	mov    %rax,-0x1550(%rbp)
    bfec:	48 8d 05 f5 90 00 00 	lea    0x90f5(%rip),%rax        # 150e8 <g_158>
    bff3:	48 89 85 b8 ea ff ff 	mov    %rax,-0x1548(%rbp)
    bffa:	48 8d 05 e7 90 00 00 	lea    0x90e7(%rip),%rax        # 150e8 <g_158>
    c001:	48 89 85 c0 ea ff ff 	mov    %rax,-0x1540(%rbp)
    c008:	48 8d 05 d9 90 00 00 	lea    0x90d9(%rip),%rax        # 150e8 <g_158>
    c00f:	48 89 85 c8 ea ff ff 	mov    %rax,-0x1538(%rbp)
    c016:	48 8d 05 cb 90 00 00 	lea    0x90cb(%rip),%rax        # 150e8 <g_158>
    c01d:	48 89 85 d0 ea ff ff 	mov    %rax,-0x1530(%rbp)
    c024:	48 8d 05 bd 90 00 00 	lea    0x90bd(%rip),%rax        # 150e8 <g_158>
    c02b:	48 89 85 d8 ea ff ff 	mov    %rax,-0x1528(%rbp)
    c032:	48 8d 05 af 90 00 00 	lea    0x90af(%rip),%rax        # 150e8 <g_158>
    c039:	48 89 85 e0 ea ff ff 	mov    %rax,-0x1520(%rbp)
    c040:	48 8d 05 a1 90 00 00 	lea    0x90a1(%rip),%rax        # 150e8 <g_158>
    c047:	48 89 85 e8 ea ff ff 	mov    %rax,-0x1518(%rbp)
    c04e:	c7 85 d8 e6 ff ff 01 	movl   $0x1,-0x1928(%rbp)
    c055:	00 00 00 
    c058:	48 8d 05 b1 97 00 00 	lea    0x97b1(%rip),%rax        # 15810 <g_228>
    c05f:	48 89 85 00 e8 ff ff 	mov    %rax,-0x1800(%rbp)
    c066:	48 8d 05 b3 b2 00 00 	lea    0xb2b3(%rip),%rax        # 17320 <g_167>
    c06d:	48 89 85 08 e8 ff ff 	mov    %rax,-0x17f8(%rbp)
    c074:	48 c7 85 40 e7 ff ff 	movq   $0x0,-0x18c0(%rbp)
    c07b:	00 00 00 00 
    c07f:	48 8d 85 40 e7 ff ff 	lea    -0x18c0(%rbp),%rax
    c086:	48 89 85 10 e8 ff ff 	mov    %rax,-0x17f0(%rbp)
    c08d:	c6 85 a4 e6 ff ff 16 	movb   $0x16,-0x195c(%rbp)
    c094:	66 c7 85 b4 e6 ff ff 	movw   $0x1,-0x194c(%rbp)
    c09b:	01 00 
    c09d:	48 b8 c3 a1 21 e9 4f 	movabs $0xa67c844fe921a1c3,%rax
    c0a4:	84 7c a6 
    c0a7:	48 89 85 48 e7 ff ff 	mov    %rax,-0x18b8(%rbp)
    c0ae:	48 8d 05 af 8f 00 00 	lea    0x8faf(%rip),%rax        # 15064 <g_83+0x24>
    c0b5:	48 89 85 18 e8 ff ff 	mov    %rax,-0x17e8(%rbp)
    c0bc:	c7 85 cc e6 ff ff f6 	movl   $0xfffffff6,-0x1934(%rbp)
    c0c3:	ff ff ff 
    c0c6:	c7 85 dc e6 ff ff 00 	movl   $0x0,-0x1924(%rbp)
    c0cd:	00 00 00 
    c0d0:	48 c7 85 50 e7 ff ff 	movq   $0x0,-0x18b0(%rbp)
    c0d7:	00 00 00 00 
    c0db:	48 8d 05 ee 94 00 00 	lea    0x94ee(%rip),%rax        # 155d0 <g_188+0x450>
    c0e2:	48 89 85 20 e8 ff ff 	mov    %rax,-0x17e0(%rbp)
    c0e9:	48 b8 48 fe c8 ac 37 	movabs $0x2a899f37acc8fe48,%rax
    c0f0:	9f 89 2a 
    c0f3:	48 89 85 28 e8 ff ff 	mov    %rax,-0x17d8(%rbp)
    c0fa:	48 8b 85 b8 e7 ff ff 	mov    -0x1848(%rbp),%rax
    c101:	8b 00                	mov    (%rax),%eax
    c103:	89 c2                	mov    %eax,%edx
    c105:	48 8b 85 f8 e7 ff ff 	mov    -0x1808(%rbp),%rax
    c10c:	89 10                	mov    %edx,(%rax)
    c10e:	48 8b 85 f8 e7 ff ff 	mov    -0x1808(%rbp),%rax
    c115:	8b 00                	mov    (%rax),%eax
    c117:	3d 55 36 a1 c2       	cmp    $0xc2a13655,%eax
    c11c:	0f 94 c0             	sete   %al
    c11f:	44 0f b6 e8          	movzbl %al,%r13d
    c123:	0f b6 9d 98 e6 ff ff 	movzbl -0x1968(%rbp),%ebx
    c12a:	b8 3b f5 ff ff       	mov    $0xfffff53b,%eax
    c12f:	4c 63 e0             	movslq %eax,%r12
    c132:	48 8b 85 d0 e7 ff ff 	mov    -0x1830(%rbp),%rax
    c139:	8b 00                	mov    (%rax),%eax
    c13b:	89 c6                	mov    %eax,%esi
    c13d:	bf 10 00 00 00       	mov    $0x10,%edi
    c142:	e8 be 9a ff ff       	callq  5c05 <safe_lshift_func_uint8_t_u_s>
    c147:	0f b6 c0             	movzbl %al,%eax
    c14a:	89 85 d8 e6 ff ff    	mov    %eax,-0x1928(%rbp)
    c150:	8b 85 d8 e6 ff ff    	mov    -0x1928(%rbp),%eax
    c156:	98                   	cwtl   
    c157:	be f7 f2 ff ff       	mov    $0xfffff2f7,%esi
    c15c:	89 c7                	mov    %eax,%edi
    c15e:	e8 50 92 ff ff       	callq  53b3 <safe_add_func_int16_t_s_s>
    c163:	48 0f bf c0          	movswq %ax,%rax
    c167:	4c 89 e6             	mov    %r12,%rsi
    c16a:	48 89 c7             	mov    %rax,%rdi
    c16d:	e8 42 98 ff ff       	callq  59b4 <safe_mod_func_int64_t_s_s>
    c172:	98                   	cwtl   
    c173:	be 1d 7c 00 00       	mov    $0x7c1d,%esi
    c178:	89 c7                	mov    %eax,%edi
    c17a:	e8 97 92 ff ff       	callq  5416 <safe_mod_func_int16_t_s_s>
    c17f:	0f b7 c0             	movzwl %ax,%eax
    c182:	89 de                	mov    %ebx,%esi
    c184:	89 c7                	mov    %eax,%edi
    c186:	e8 b2 9b ff ff       	callq  5d3d <safe_mul_func_uint16_t_u_u>
    c18b:	0f b7 c0             	movzwl %ax,%eax
    c18e:	c7 85 10 ed ff ff 02 	movl   $0x2,-0x12f0(%rbp)
    c195:	00 00 00 
    c198:	89 c6                	mov    %eax,%esi
    c19a:	bf 02 00 00 00       	mov    $0x2,%edi
    c19f:	e8 59 9d ff ff       	callq  5efd <safe_mod_func_uint32_t_u_u>
    c1a4:	0f b6 95 9c e6 ff ff 	movzbl -0x1964(%rbp),%edx
    c1ab:	0f b6 d2             	movzbl %dl,%edx
    c1ae:	39 d0                	cmp    %edx,%eax
    c1b0:	0f 94 c0             	sete   %al
    c1b3:	0f b6 c0             	movzbl %al,%eax
    c1b6:	41 39 c5             	cmp    %eax,%r13d
    c1b9:	0f 9c c0             	setl   %al
    c1bc:	0f b6 c0             	movzbl %al,%eax
    c1bf:	66 25 ff 03          	and    $0x3ff,%ax
    c1c3:	66 25 ff 03          	and    $0x3ff,%ax
    c1c7:	8d 14 85 00 00 00 00 	lea    0x0(,%rax,4),%edx
    c1ce:	0f b7 05 27 8f 00 00 	movzwl 0x8f27(%rip),%eax        # 150fc <g_168+0xc>
    c1d5:	66 25 03 f0          	and    $0xf003,%ax
    c1d9:	09 d0                	or     %edx,%eax
    c1db:	66 89 05 1a 8f 00 00 	mov    %ax,0x8f1a(%rip)        # 150fc <g_168+0xc>
    c1e2:	0f b7 05 13 8f 00 00 	movzwl 0x8f13(%rip),%eax        # 150fc <g_168+0xc>
    c1e9:	66 c1 e8 02          	shr    $0x2,%ax
    c1ed:	66 25 ff 03          	and    $0x3ff,%ax
    c1f1:	66 83 f8 08          	cmp    $0x8,%ax
    c1f5:	0f 97 c0             	seta   %al
    c1f8:	0f b6 d8             	movzbl %al,%ebx
    c1fb:	be 04 00 00 00       	mov    $0x4,%esi
    c200:	bf 43 00 00 00       	mov    $0x43,%edi
    c205:	e8 e4 90 ff ff       	callq  52ee <safe_lshift_func_int8_t_s_u>
    c20a:	89 de                	mov    %ebx,%esi
    c20c:	bf 0b 00 00 00       	mov    $0xb,%edi
    c211:	e8 44 99 ff ff       	callq  5b5a <safe_add_func_uint8_t_u_u>
    c216:	48 8b 85 00 e8 ff ff 	mov    -0x1800(%rbp),%rax
    c21d:	c6 00 01             	movb   $0x1,(%rax)
    c220:	48 8b 85 00 e8 ff ff 	mov    -0x1800(%rbp),%rax
    c227:	0f b6 00             	movzbl (%rax),%eax
    c22a:	0f be c0             	movsbl %al,%eax
    c22d:	be 01 00 00 00       	mov    $0x1,%esi
    c232:	89 c7                	mov    %eax,%edi
    c234:	e8 68 90 ff ff       	callq  52a1 <safe_lshift_func_int8_t_s_s>
    c239:	84 c0                	test   %al,%al
    c23b:	0f 84 e7 15 00 00    	je     d828 <func_46+0x2c4a>
    c241:	66 c7 85 b6 e6 ff ff 	movw   $0xfc1f,-0x194a(%rbp)
    c248:	1f fc 
    c24a:	c7 85 e0 e6 ff ff 6e 	movl   $0xe94be26e,-0x1920(%rbp)
    c251:	e2 4b e9 
    c254:	48 c7 85 58 e7 ff ff 	movq   $0x0,-0x18a8(%rbp)
    c25b:	00 00 00 00 
    c25f:	48 8d 85 58 e7 ff ff 	lea    -0x18a8(%rbp),%rax
    c266:	48 89 85 30 e8 ff ff 	mov    %rax,-0x17d0(%rbp)
    c26d:	48 8d 05 9c b0 00 00 	lea    0xb09c(%rip),%rax        # 17310 <g_92>
    c274:	48 89 85 b0 e9 ff ff 	mov    %rax,-0x1650(%rbp)
    c27b:	48 8d 05 8e b0 00 00 	lea    0xb08e(%rip),%rax        # 17310 <g_92>
    c282:	48 89 85 b8 e9 ff ff 	mov    %rax,-0x1648(%rbp)
    c289:	48 8d 05 80 b0 00 00 	lea    0xb080(%rip),%rax        # 17310 <g_92>
    c290:	48 89 85 c0 e9 ff ff 	mov    %rax,-0x1640(%rbp)
    c297:	48 8d 05 72 b0 00 00 	lea    0xb072(%rip),%rax        # 17310 <g_92>
    c29e:	48 89 85 c8 e9 ff ff 	mov    %rax,-0x1638(%rbp)
    c2a5:	48 8d 05 64 b0 00 00 	lea    0xb064(%rip),%rax        # 17310 <g_92>
    c2ac:	48 89 85 d0 e9 ff ff 	mov    %rax,-0x1630(%rbp)
    c2b3:	48 8d 05 56 b0 00 00 	lea    0xb056(%rip),%rax        # 17310 <g_92>
    c2ba:	48 89 85 d8 e9 ff ff 	mov    %rax,-0x1628(%rbp)
    c2c1:	48 8d 05 48 b0 00 00 	lea    0xb048(%rip),%rax        # 17310 <g_92>
    c2c8:	48 89 85 e0 e9 ff ff 	mov    %rax,-0x1620(%rbp)
    c2cf:	48 8d 85 b0 e9 ff ff 	lea    -0x1650(%rbp),%rax
    c2d6:	48 89 85 38 e8 ff ff 	mov    %rax,-0x17c8(%rbp)
    c2dd:	48 8d 05 10 c1 00 00 	lea    0xc110(%rip),%rax        # 183f4 <g_2+0x4>
    c2e4:	48 89 85 f0 e9 ff ff 	mov    %rax,-0x1610(%rbp)
    c2eb:	48 8d 05 02 c1 00 00 	lea    0xc102(%rip),%rax        # 183f4 <g_2+0x4>
    c2f2:	48 89 85 f8 e9 ff ff 	mov    %rax,-0x1608(%rbp)
    c2f9:	48 8d 05 f4 c0 00 00 	lea    0xc0f4(%rip),%rax        # 183f4 <g_2+0x4>
    c300:	48 89 85 00 ea ff ff 	mov    %rax,-0x1600(%rbp)
    c307:	48 8d 05 e6 c0 00 00 	lea    0xc0e6(%rip),%rax        # 183f4 <g_2+0x4>
    c30e:	48 89 85 08 ea ff ff 	mov    %rax,-0x15f8(%rbp)
    c315:	48 8d 05 d8 c0 00 00 	lea    0xc0d8(%rip),%rax        # 183f4 <g_2+0x4>
    c31c:	48 89 85 10 ea ff ff 	mov    %rax,-0x15f0(%rbp)
    c323:	48 8d 05 ca c0 00 00 	lea    0xc0ca(%rip),%rax        # 183f4 <g_2+0x4>
    c32a:	48 89 85 18 ea ff ff 	mov    %rax,-0x15e8(%rbp)
    c331:	48 8d 05 bc c0 00 00 	lea    0xc0bc(%rip),%rax        # 183f4 <g_2+0x4>
    c338:	48 89 85 20 ea ff ff 	mov    %rax,-0x15e0(%rbp)
    c33f:	48 8d 05 ae c0 00 00 	lea    0xc0ae(%rip),%rax        # 183f4 <g_2+0x4>
    c346:	48 89 85 28 ea ff ff 	mov    %rax,-0x15d8(%rbp)
    c34d:	48 8d 05 a0 c0 00 00 	lea    0xc0a0(%rip),%rax        # 183f4 <g_2+0x4>
    c354:	48 89 85 30 ea ff ff 	mov    %rax,-0x15d0(%rbp)
    c35b:	c6 85 a5 e6 ff ff fd 	movb   $0xfd,-0x195b(%rbp)
    c362:	48 8d 05 99 8d 00 00 	lea    0x8d99(%rip),%rax        # 15102 <g_174>
    c369:	48 89 85 c0 eb ff ff 	mov    %rax,-0x1440(%rbp)
    c370:	48 8d 05 8b 8d 00 00 	lea    0x8d8b(%rip),%rax        # 15102 <g_174>
    c377:	48 89 85 c8 eb ff ff 	mov    %rax,-0x1438(%rbp)
    c37e:	48 8d 05 7d 8d 00 00 	lea    0x8d7d(%rip),%rax        # 15102 <g_174>
    c385:	48 89 85 d0 eb ff ff 	mov    %rax,-0x1430(%rbp)
    c38c:	48 8d 05 6f 8d 00 00 	lea    0x8d6f(%rip),%rax        # 15102 <g_174>
    c393:	48 89 85 d8 eb ff ff 	mov    %rax,-0x1428(%rbp)
    c39a:	48 8d 05 61 8d 00 00 	lea    0x8d61(%rip),%rax        # 15102 <g_174>
    c3a1:	48 89 85 e0 eb ff ff 	mov    %rax,-0x1420(%rbp)
    c3a8:	48 8d 05 53 8d 00 00 	lea    0x8d53(%rip),%rax        # 15102 <g_174>
    c3af:	48 89 85 e8 eb ff ff 	mov    %rax,-0x1418(%rbp)
    c3b6:	48 8d 05 55 94 00 00 	lea    0x9455(%rip),%rax        # 15812 <g_236>
    c3bd:	48 89 85 f0 eb ff ff 	mov    %rax,-0x1410(%rbp)
    c3c4:	48 8d 05 37 8d 00 00 	lea    0x8d37(%rip),%rax        # 15102 <g_174>
    c3cb:	48 89 85 f8 eb ff ff 	mov    %rax,-0x1408(%rbp)
    c3d2:	48 8d 05 39 94 00 00 	lea    0x9439(%rip),%rax        # 15812 <g_236>
    c3d9:	48 89 85 00 ec ff ff 	mov    %rax,-0x1400(%rbp)
    c3e0:	48 8d 05 1b 8d 00 00 	lea    0x8d1b(%rip),%rax        # 15102 <g_174>
    c3e7:	48 89 85 08 ec ff ff 	mov    %rax,-0x13f8(%rbp)
    c3ee:	48 8d 05 1d 94 00 00 	lea    0x941d(%rip),%rax        # 15812 <g_236>
    c3f5:	48 89 85 10 ec ff ff 	mov    %rax,-0x13f0(%rbp)
    c3fc:	48 8d 05 ff 8c 00 00 	lea    0x8cff(%rip),%rax        # 15102 <g_174>
    c403:	48 89 85 18 ec ff ff 	mov    %rax,-0x13e8(%rbp)
    c40a:	48 8d 05 f1 8c 00 00 	lea    0x8cf1(%rip),%rax        # 15102 <g_174>
    c411:	48 89 85 20 ec ff ff 	mov    %rax,-0x13e0(%rbp)
    c418:	48 8d 05 e3 8c 00 00 	lea    0x8ce3(%rip),%rax        # 15102 <g_174>
    c41f:	48 89 85 28 ec ff ff 	mov    %rax,-0x13d8(%rbp)
    c426:	48 8d 05 d5 8c 00 00 	lea    0x8cd5(%rip),%rax        # 15102 <g_174>
    c42d:	48 89 85 30 ec ff ff 	mov    %rax,-0x13d0(%rbp)
    c434:	48 8d 05 c7 8c 00 00 	lea    0x8cc7(%rip),%rax        # 15102 <g_174>
    c43b:	48 89 85 38 ec ff ff 	mov    %rax,-0x13c8(%rbp)
    c442:	48 8d 05 b9 8c 00 00 	lea    0x8cb9(%rip),%rax        # 15102 <g_174>
    c449:	48 89 85 40 ec ff ff 	mov    %rax,-0x13c0(%rbp)
    c450:	48 8d 05 ab 8c 00 00 	lea    0x8cab(%rip),%rax        # 15102 <g_174>
    c457:	48 89 85 48 ec ff ff 	mov    %rax,-0x13b8(%rbp)
    c45e:	48 8d 05 ad 93 00 00 	lea    0x93ad(%rip),%rax        # 15812 <g_236>
    c465:	48 89 85 50 ec ff ff 	mov    %rax,-0x13b0(%rbp)
    c46c:	48 8d 05 8f 8c 00 00 	lea    0x8c8f(%rip),%rax        # 15102 <g_174>
    c473:	48 89 85 58 ec ff ff 	mov    %rax,-0x13a8(%rbp)
    c47a:	48 8d 05 91 93 00 00 	lea    0x9391(%rip),%rax        # 15812 <g_236>
    c481:	48 89 85 60 ec ff ff 	mov    %rax,-0x13a0(%rbp)
    c488:	48 8d 05 73 8c 00 00 	lea    0x8c73(%rip),%rax        # 15102 <g_174>
    c48f:	48 89 85 68 ec ff ff 	mov    %rax,-0x1398(%rbp)
    c496:	48 8d 05 75 93 00 00 	lea    0x9375(%rip),%rax        # 15812 <g_236>
    c49d:	48 89 85 70 ec ff ff 	mov    %rax,-0x1390(%rbp)
    c4a4:	48 8d 05 57 8c 00 00 	lea    0x8c57(%rip),%rax        # 15102 <g_174>
    c4ab:	48 89 85 78 ec ff ff 	mov    %rax,-0x1388(%rbp)
    c4b2:	48 8d 05 49 8c 00 00 	lea    0x8c49(%rip),%rax        # 15102 <g_174>
    c4b9:	48 89 85 80 ec ff ff 	mov    %rax,-0x1380(%rbp)
    c4c0:	48 8d 05 3b 8c 00 00 	lea    0x8c3b(%rip),%rax        # 15102 <g_174>
    c4c7:	48 89 85 88 ec ff ff 	mov    %rax,-0x1378(%rbp)
    c4ce:	48 8d 05 2d 8c 00 00 	lea    0x8c2d(%rip),%rax        # 15102 <g_174>
    c4d5:	48 89 85 90 ec ff ff 	mov    %rax,-0x1370(%rbp)
    c4dc:	48 8d 05 1f 8c 00 00 	lea    0x8c1f(%rip),%rax        # 15102 <g_174>
    c4e3:	48 89 85 98 ec ff ff 	mov    %rax,-0x1368(%rbp)
    c4ea:	48 8d 05 11 8c 00 00 	lea    0x8c11(%rip),%rax        # 15102 <g_174>
    c4f1:	48 89 85 a0 ec ff ff 	mov    %rax,-0x1360(%rbp)
    c4f8:	48 8d 05 03 8c 00 00 	lea    0x8c03(%rip),%rax        # 15102 <g_174>
    c4ff:	48 89 85 a8 ec ff ff 	mov    %rax,-0x1358(%rbp)
    c506:	48 8d 05 0a 93 00 00 	lea    0x930a(%rip),%rax        # 15817 <g_267+0x3>
    c50d:	48 89 85 60 e7 ff ff 	mov    %rax,-0x18a0(%rbp)
    c514:	48 8d 85 60 e7 ff ff 	lea    -0x18a0(%rbp),%rax
    c51b:	48 89 85 f0 ea ff ff 	mov    %rax,-0x1510(%rbp)
    c522:	48 8d 85 60 e7 ff ff 	lea    -0x18a0(%rbp),%rax
    c529:	48 89 85 f8 ea ff ff 	mov    %rax,-0x1508(%rbp)
    c530:	48 c7 85 00 eb ff ff 	movq   $0x0,-0x1500(%rbp)
    c537:	00 00 00 00 
    c53b:	48 8d 85 60 e7 ff ff 	lea    -0x18a0(%rbp),%rax
    c542:	48 89 85 08 eb ff ff 	mov    %rax,-0x14f8(%rbp)
    c549:	48 8d 85 60 e7 ff ff 	lea    -0x18a0(%rbp),%rax
    c550:	48 89 85 10 eb ff ff 	mov    %rax,-0x14f0(%rbp)
    c557:	48 8d 85 60 e7 ff ff 	lea    -0x18a0(%rbp),%rax
    c55e:	48 89 85 18 eb ff ff 	mov    %rax,-0x14e8(%rbp)
    c565:	48 8d 85 60 e7 ff ff 	lea    -0x18a0(%rbp),%rax
    c56c:	48 89 85 20 eb ff ff 	mov    %rax,-0x14e0(%rbp)
    c573:	48 8d 85 60 e7 ff ff 	lea    -0x18a0(%rbp),%rax
    c57a:	48 89 85 28 eb ff ff 	mov    %rax,-0x14d8(%rbp)
    c581:	48 8d 85 60 e7 ff ff 	lea    -0x18a0(%rbp),%rax
    c588:	48 89 85 30 eb ff ff 	mov    %rax,-0x14d0(%rbp)
    c58f:	48 8d 85 60 e7 ff ff 	lea    -0x18a0(%rbp),%rax
    c596:	48 89 85 38 eb ff ff 	mov    %rax,-0x14c8(%rbp)
    c59d:	48 8d 85 60 e7 ff ff 	lea    -0x18a0(%rbp),%rax
    c5a4:	48 89 85 40 eb ff ff 	mov    %rax,-0x14c0(%rbp)
    c5ab:	48 8d 85 60 e7 ff ff 	lea    -0x18a0(%rbp),%rax
    c5b2:	48 89 85 48 eb ff ff 	mov    %rax,-0x14b8(%rbp)
    c5b9:	48 8d 85 60 e7 ff ff 	lea    -0x18a0(%rbp),%rax
    c5c0:	48 89 85 50 eb ff ff 	mov    %rax,-0x14b0(%rbp)
    c5c7:	48 8d 85 60 e7 ff ff 	lea    -0x18a0(%rbp),%rax
    c5ce:	48 89 85 58 eb ff ff 	mov    %rax,-0x14a8(%rbp)
    c5d5:	48 8d 85 60 e7 ff ff 	lea    -0x18a0(%rbp),%rax
    c5dc:	48 89 85 60 eb ff ff 	mov    %rax,-0x14a0(%rbp)
    c5e3:	48 8d 85 60 e7 ff ff 	lea    -0x18a0(%rbp),%rax
    c5ea:	48 89 85 68 eb ff ff 	mov    %rax,-0x1498(%rbp)
    c5f1:	48 8d 85 60 e7 ff ff 	lea    -0x18a0(%rbp),%rax
    c5f8:	48 89 85 70 eb ff ff 	mov    %rax,-0x1490(%rbp)
    c5ff:	48 8d 85 60 e7 ff ff 	lea    -0x18a0(%rbp),%rax
    c606:	48 89 85 78 eb ff ff 	mov    %rax,-0x1488(%rbp)
    c60d:	48 8d 85 60 e7 ff ff 	lea    -0x18a0(%rbp),%rax
    c614:	48 89 85 80 eb ff ff 	mov    %rax,-0x1480(%rbp)
    c61b:	48 8d 85 60 e7 ff ff 	lea    -0x18a0(%rbp),%rax
    c622:	48 89 85 88 eb ff ff 	mov    %rax,-0x1478(%rbp)
    c629:	48 c7 85 90 eb ff ff 	movq   $0x0,-0x1470(%rbp)
    c630:	00 00 00 00 
    c634:	48 8d 85 60 e7 ff ff 	lea    -0x18a0(%rbp),%rax
    c63b:	48 89 85 98 eb ff ff 	mov    %rax,-0x1468(%rbp)
    c642:	48 8d 85 60 e7 ff ff 	lea    -0x18a0(%rbp),%rax
    c649:	48 89 85 a0 eb ff ff 	mov    %rax,-0x1460(%rbp)
    c650:	48 c7 85 a8 eb ff ff 	movq   $0x0,-0x1458(%rbp)
    c657:	00 00 00 00 
    c65b:	48 8d 85 60 e7 ff ff 	lea    -0x18a0(%rbp),%rax
    c662:	48 89 85 b0 eb ff ff 	mov    %rax,-0x1450(%rbp)
    c669:	48 8d 85 f0 ea ff ff 	lea    -0x1510(%rbp),%rax
    c670:	48 83 c0 58          	add    $0x58,%rax
    c674:	48 89 85 40 e8 ff ff 	mov    %rax,-0x17c0(%rbp)
    c67b:	48 8d 05 26 ad 00 00 	lea    0xad26(%rip),%rax        # 173a8 <g_520+0x68>
    c682:	48 89 85 48 e8 ff ff 	mov    %rax,-0x17b8(%rbp)
    c689:	c7 85 e4 e6 ff ff d1 	movl   $0x6604abd1,-0x191c(%rbp)
    c690:	ab 04 66 
    c693:	c7 85 d0 e6 ff ff 00 	movl   $0x0,-0x1930(%rbp)
    c69a:	00 00 00 
    c69d:	eb 1e                	jmp    c6bd <func_46+0x1adf>
    c69f:	8b 85 d0 e6 ff ff    	mov    -0x1930(%rbp),%eax
    c6a5:	48 98                	cltq   
    c6a7:	48 8d 15 32 8a 00 00 	lea    0x8a32(%rip),%rdx        # 150e0 <g_125>
    c6ae:	48 89 94 c5 40 e9 ff 	mov    %rdx,-0x16c0(%rbp,%rax,8)
    c6b5:	ff 
    c6b6:	83 85 d0 e6 ff ff 01 	addl   $0x1,-0x1930(%rbp)
    c6bd:	83 bd d0 e6 ff ff 02 	cmpl   $0x2,-0x1930(%rbp)
    c6c4:	7e d9                	jle    c69f <func_46+0x1ac1>
    c6c6:	c7 85 d0 e6 ff ff 00 	movl   $0x0,-0x1930(%rbp)
    c6cd:	00 00 00 
    c6d0:	eb 1e                	jmp    c6f0 <func_46+0x1b12>
    c6d2:	8b 85 d0 e6 ff ff    	mov    -0x1930(%rbp),%eax
    c6d8:	48 98                	cltq   
    c6da:	48 8d 95 60 e7 ff ff 	lea    -0x18a0(%rbp),%rdx
    c6e1:	48 89 94 c5 80 e9 ff 	mov    %rdx,-0x1680(%rbp,%rax,8)
    c6e8:	ff 
    c6e9:	83 85 d0 e6 ff ff 01 	addl   $0x1,-0x1930(%rbp)
    c6f0:	83 bd d0 e6 ff ff 05 	cmpl   $0x5,-0x1930(%rbp)
    c6f7:	7e d9                	jle    c6d2 <func_46+0x1af4>
    c6f9:	0f b6 95 98 e6 ff ff 	movzbl -0x1968(%rbp),%edx
    c700:	48 8b 85 d0 e7 ff ff 	mov    -0x1830(%rbp),%rax
    c707:	89 10                	mov    %edx,(%rax)
    c709:	0f b7 05 02 91 00 00 	movzwl 0x9102(%rip),%eax        # 15812 <g_236>
    c710:	66 85 c0             	test   %ax,%ax
    c713:	90                   	nop
    c714:	f3 0f 1e fa          	endbr64 
    c718:	8b 85 10 ed ff ff    	mov    -0x12f0(%rbp),%eax
    c71e:	85 c0                	test   %eax,%eax
    c720:	0f 95 c0             	setne  %al
    c723:	0f b6 d0             	movzbl %al,%edx
    c726:	0f b6 85 9c e6 ff ff 	movzbl -0x1964(%rbp),%eax
    c72d:	0f b6 c0             	movzbl %al,%eax
    c730:	39 c2                	cmp    %eax,%edx
    c732:	0f 9e c0             	setle  %al
    c735:	44 0f b6 f0          	movzbl %al,%r14d
    c739:	0f b6 9d 98 e6 ff ff 	movzbl -0x1968(%rbp),%ebx
    c740:	0f b7 05 53 97 00 00 	movzwl 0x9753(%rip),%eax        # 15e9a <g_782>
    c747:	44 0f b7 e0          	movzwl %ax,%r12d
    c74b:	0f b6 85 9c e6 ff ff 	movzbl -0x1964(%rbp),%eax
    c752:	44 0f be e8          	movsbl %al,%r13d
    c756:	0f b7 05 b8 96 00 00 	movzwl 0x96b8(%rip),%eax        # 15e15 <g_646+0x15>
    c75d:	0f b7 d0             	movzwl %ax,%edx
    c760:	8b 85 d8 e6 ff ff    	mov    -0x1928(%rbp),%eax
    c766:	83 f0 fc             	xor    $0xfffffffc,%eax
    c769:	89 c1                	mov    %eax,%ecx
    c76b:	0f b6 05 d6 92 00 00 	movzbl 0x92d6(%rip),%eax        # 15a48 <g_409+0x228>
    c772:	c1 e0 03             	shl    $0x3,%eax
    c775:	c0 f8 03             	sar    $0x3,%al
    c778:	0f be c0             	movsbl %al,%eax
    c77b:	39 c1                	cmp    %eax,%ecx
    c77d:	0f 9f c0             	setg   %al
    c780:	f7 d0                	not    %eax
    c782:	0f b6 c0             	movzbl %al,%eax
    c785:	89 d6                	mov    %edx,%esi
    c787:	89 c7                	mov    %eax,%edi
    c789:	e8 be 94 ff ff       	callq  5c4c <safe_lshift_func_uint8_t_u_u>
    c78e:	0f be c0             	movsbl %al,%eax
    c791:	44 89 ee             	mov    %r13d,%esi
    c794:	89 c7                	mov    %eax,%edi
    c796:	e8 cf 8a ff ff       	callq  526a <safe_div_func_int8_t_s_s>
    c79b:	66 98                	cbtw   
    c79d:	0f b7 c0             	movzwl %ax,%eax
    c7a0:	44 89 e6             	mov    %r12d,%esi
    c7a3:	89 c7                	mov    %eax,%edi
    c7a5:	e8 93 95 ff ff       	callq  5d3d <safe_mul_func_uint16_t_u_u>
    c7aa:	0f b7 c0             	movzwl %ax,%eax
    c7ad:	89 de                	mov    %ebx,%esi
    c7af:	89 c7                	mov    %eax,%edi
    c7b1:	e8 69 95 ff ff       	callq  5d1f <safe_sub_func_uint16_t_u_u>
    c7b6:	89 c1                	mov    %eax,%ecx
    c7b8:	0f b6 05 89 92 00 00 	movzbl 0x9289(%rip),%eax        # 15a48 <g_409+0x228>
    c7bf:	c1 e0 03             	shl    $0x3,%eax
    c7c2:	c0 f8 03             	sar    $0x3,%al
    c7c5:	0f be d0             	movsbl %al,%edx
    c7c8:	48 8b 85 00 e8 ff ff 	mov    -0x1800(%rbp),%rax
    c7cf:	0f b6 00             	movzbl (%rax),%eax
    c7d2:	09 c1                	or     %eax,%ecx
    c7d4:	48 8b 85 00 e8 ff ff 	mov    -0x1800(%rbp),%rax
    c7db:	88 08                	mov    %cl,(%rax)
    c7dd:	48 8b 85 00 e8 ff ff 	mov    -0x1800(%rbp),%rax
    c7e4:	0f b6 00             	movzbl (%rax),%eax
    c7e7:	0f be c0             	movsbl %al,%eax
    c7ea:	39 c2                	cmp    %eax,%edx
    c7ec:	0f 9c c0             	setl   %al
    c7ef:	0f b6 d0             	movzbl %al,%edx
    c7f2:	0f b6 85 98 e6 ff ff 	movzbl -0x1968(%rbp),%eax
    c7f9:	0f be c0             	movsbl %al,%eax
    c7fc:	89 d6                	mov    %edx,%esi
    c7fe:	89 c7                	mov    %eax,%edi
    c800:	e8 ed 89 ff ff       	callq  51f2 <safe_sub_func_int8_t_s_s>
    c805:	0f be c0             	movsbl %al,%eax
    c808:	41 39 c6             	cmp    %eax,%r14d
    c80b:	0f 95 c0             	setne  %al
    c80e:	0f b6 d0             	movzbl %al,%edx
    c811:	8b 85 10 ed ff ff    	mov    -0x12f0(%rbp),%eax
    c817:	98                   	cwtl   
    c818:	89 d6                	mov    %edx,%esi
    c81a:	89 c7                	mov    %eax,%edi
    c81c:	e8 b2 8b ff ff       	callq  53d3 <safe_sub_func_int16_t_s_s>
    c821:	98                   	cwtl   
    c822:	31 85 e0 e6 ff ff    	xor    %eax,-0x1920(%rbp)
    c828:	48 8b 85 30 e8 ff ff 	mov    -0x17d0(%rbp),%rax
    c82f:	48 8d 15 ea aa 00 00 	lea    0xaaea(%rip),%rdx        # 17320 <g_167>
    c836:	48 89 10             	mov    %rdx,(%rax)
    c839:	48 8b 05 d8 95 00 00 	mov    0x95d8(%rip),%rax        # 15e18 <g_646+0x18>
    c840:	48 c1 e8 34          	shr    $0x34,%rax
    c844:	48 89 c2             	mov    %rax,%rdx
    c847:	48 8b 05 d2 95 00 00 	mov    0x95d2(%rip),%rax        # 15e20 <g_646+0x20>
    c84e:	25 ff 7f 00 00       	and    $0x7fff,%eax
    c853:	48 c1 e0 0c          	shl    $0xc,%rax
    c857:	48 09 d0             	or     %rdx,%rax
    c85a:	85 c0                	test   %eax,%eax
    c85c:	74 07                	je     c865 <func_46+0x1c87>
    c85e:	b8 01 00 00 00       	mov    $0x1,%eax
    c863:	eb 05                	jmp    c86a <func_46+0x1c8c>
    c865:	b8 00 00 00 00       	mov    $0x0,%eax
    c86a:	48 63 d0             	movslq %eax,%rdx
    c86d:	48 8b 05 6c 88 00 00 	mov    0x886c(%rip),%rax        # 150e0 <g_125>
    c874:	48 21 d0             	and    %rdx,%rax
    c877:	48 89 05 62 88 00 00 	mov    %rax,0x8862(%rip)        # 150e0 <g_125>
    c87e:	48 8b 15 5b 88 00 00 	mov    0x885b(%rip),%rdx        # 150e0 <g_125>
    c885:	48 8b 85 10 e8 ff ff 	mov    -0x17f0(%rbp),%rax
    c88c:	48 3b 85 38 e8 ff ff 	cmp    -0x17c8(%rbp),%rax
    c893:	0f 94 c0             	sete   %al
    c896:	0f b6 c0             	movzbl %al,%eax
    c899:	48 39 c2             	cmp    %rax,%rdx
    c89c:	0f 94 c0             	sete   %al
    c89f:	0f b6 c0             	movzbl %al,%eax
    c8a2:	48 be f3 5c 7b 07 51 	movabs $0x92a4e151077b5cf3,%rsi
    c8a9:	e1 a4 92 
    c8ac:	48 89 c7             	mov    %rax,%rdi
    c8af:	e8 f4 8f ff ff       	callq  58a8 <safe_sub_func_int64_t_s_s>
    c8b4:	48 85 c0             	test   %rax,%rax
    c8b7:	0f 84 ab 0e 00 00    	je     d768 <func_46+0x2b8a>
    c8bd:	48 c7 85 50 e8 ff ff 	movq   $0x0,-0x17b0(%rbp)
    c8c4:	00 00 00 00 
    c8c8:	48 8d 85 c0 f7 ff ff 	lea    -0x840(%rbp),%rax
    c8cf:	48 8d 15 6a 9e 00 00 	lea    0x9e6a(%rip),%rdx        # 16740 <g_2069+0x54c>
    c8d6:	b9 00 01 00 00       	mov    $0x100,%ecx
    c8db:	48 89 c7             	mov    %rax,%rdi
    c8de:	48 89 d6             	mov    %rdx,%rsi
    c8e1:	f3 48 a5             	rep movsq %ds:(%rsi),%es:(%rdi)
    c8e4:	48 8d 05 2c 8f 00 00 	lea    0x8f2c(%rip),%rax        # 15817 <g_267+0x3>
    c8eb:	48 89 85 68 e7 ff ff 	mov    %rax,-0x1898(%rbp)
    c8f2:	48 8d 85 68 e7 ff ff 	lea    -0x1898(%rbp),%rax
    c8f9:	48 89 85 58 e8 ff ff 	mov    %rax,-0x17a8(%rbp)
    c900:	48 c7 85 70 e7 ff ff 	movq   $0x0,-0x1890(%rbp)
    c907:	00 00 00 00 
    c90b:	48 8d 85 70 e7 ff ff 	lea    -0x1890(%rbp),%rax
    c912:	48 89 85 60 e8 ff ff 	mov    %rax,-0x17a0(%rbp)
    c919:	c7 85 e8 e6 ff ff 8f 	movl   $0x84f6958f,-0x1918(%rbp)
    c920:	95 f6 84 
    c923:	48 8d 85 aa e6 ff ff 	lea    -0x1956(%rbp),%rax
    c92a:	48 89 85 78 e7 ff ff 	mov    %rax,-0x1888(%rbp)
    c931:	c6 85 a6 e6 ff ff 82 	movb   $0x82,-0x195a(%rbp)
    c938:	48 c7 85 80 e7 ff ff 	movq   $0x0,-0x1880(%rbp)
    c93f:	00 00 00 00 
    c943:	48 8d 05 4e 94 00 00 	lea    0x944e(%rip),%rax        # 15d98 <g_562>
    c94a:	48 89 85 68 e8 ff ff 	mov    %rax,-0x1798(%rbp)
    c951:	c7 85 ec e6 ff ff a1 	movl   $0xac5ab4a1,-0x1914(%rbp)
    c958:	b4 5a ac 
    c95b:	66 c7 85 b8 e6 ff ff 	movw   $0x4,-0x1948(%rbp)
    c962:	04 00 
    c964:	48 c7 85 70 e8 ff ff 	movq   $0x0,-0x1790(%rbp)
    c96b:	00 00 00 00 
    c96f:	48 c7 85 78 e8 ff ff 	movq   $0xfffffffffffffffb,-0x1788(%rbp)
    c976:	fb ff ff ff 
    c97a:	48 c7 85 80 e8 ff ff 	movq   $0x0,-0x1780(%rbp)
    c981:	00 00 00 00 
    c985:	c7 85 f0 e6 ff ff ff 	movl   $0xffffffff,-0x1910(%rbp)
    c98c:	ff ff ff 
    c98f:	c7 85 40 ea ff ff b8 	movl   $0xf592f3b8,-0x15c0(%rbp)
    c996:	f3 92 f5 
    c999:	c7 85 44 ea ff ff 43 	movl   $0xcd45b43,-0x15bc(%rbp)
    c9a0:	5b d4 0c 
    c9a3:	c7 85 48 ea ff ff 9a 	movl   $0x822169a,-0x15b8(%rbp)
    c9aa:	16 22 08 
    c9ad:	c7 85 4c ea ff ff 9a 	movl   $0x822169a,-0x15b4(%rbp)
    c9b4:	16 22 08 
    c9b7:	c7 85 50 ea ff ff 43 	movl   $0xcd45b43,-0x15b0(%rbp)
    c9be:	5b d4 0c 
    c9c1:	c7 85 54 ea ff ff 43 	movl   $0xcd45b43,-0x15ac(%rbp)
    c9c8:	5b d4 0c 
    c9cb:	c7 85 58 ea ff ff 98 	movl   $0xcc98bc98,-0x15a8(%rbp)
    c9d2:	bc 98 cc 
    c9d5:	c7 85 5c ea ff ff b8 	movl   $0xf592f3b8,-0x15a4(%rbp)
    c9dc:	f3 92 f5 
    c9df:	c7 85 60 ea ff ff 43 	movl   $0xcd45b43,-0x15a0(%rbp)
    c9e6:	5b d4 0c 
    c9e9:	c7 85 64 ea ff ff 9a 	movl   $0x822169a,-0x159c(%rbp)
    c9f0:	16 22 08 
    c9f3:	c7 85 68 ea ff ff fc 	movl   $0xfffffffc,-0x1598(%rbp)
    c9fa:	ff ff ff 
    c9fd:	c7 85 6c ea ff ff 43 	movl   $0xcd45b43,-0x1594(%rbp)
    ca04:	5b d4 0c 
    ca07:	c7 85 70 ea ff ff ff 	movl   $0xffffffff,-0x1590(%rbp)
    ca0e:	ff ff ff 
    ca11:	c7 85 74 ea ff ff 43 	movl   $0xcd45b43,-0x158c(%rbp)
    ca18:	5b d4 0c 
    ca1b:	c7 85 78 ea ff ff fc 	movl   $0xfffffffc,-0x1588(%rbp)
    ca22:	ff ff ff 
    ca25:	c7 85 7c ea ff ff b8 	movl   $0xf592f3b8,-0x1584(%rbp)
    ca2c:	f3 92 f5 
    ca2f:	c7 85 80 ea ff ff 37 	movl   $0x43f51237,-0x1580(%rbp)
    ca36:	12 f5 43 
    ca39:	c7 85 84 ea ff ff 98 	movl   $0xcc98bc98,-0x157c(%rbp)
    ca40:	bc 98 cc 
    ca43:	c7 85 88 ea ff ff 9a 	movl   $0x822169a,-0x1578(%rbp)
    ca4a:	16 22 08 
    ca4d:	c7 85 8c ea ff ff 37 	movl   $0x43f51237,-0x1574(%rbp)
    ca54:	12 f5 43 
    ca57:	48 8b 85 00 e8 ff ff 	mov    -0x1800(%rbp),%rax
    ca5e:	0f b6 00             	movzbl (%rax),%eax
    ca61:	f7 d0                	not    %eax
    ca63:	89 c2                	mov    %eax,%edx
    ca65:	48 8b 85 00 e8 ff ff 	mov    -0x1800(%rbp),%rax
    ca6c:	88 10                	mov    %dl,(%rax)
    ca6e:	48 8b 85 00 e8 ff ff 	mov    -0x1800(%rbp),%rax
    ca75:	0f b6 00             	movzbl (%rax),%eax
    ca78:	0f be d0             	movsbl %al,%edx
    ca7b:	48 8b 85 58 e8 ff ff 	mov    -0x17a8(%rbp),%rax
    ca82:	48 c7 00 00 00 00 00 	movq   $0x0,(%rax)
    ca89:	48 8b 85 58 e8 ff ff 	mov    -0x17a8(%rbp),%rax
    ca90:	48 8b 00             	mov    (%rax),%rax
    ca93:	48 8d 0d 7d 8d 00 00 	lea    0x8d7d(%rip),%rcx        # 15817 <g_267+0x3>
    ca9a:	48 39 c8             	cmp    %rcx,%rax
    ca9d:	0f 95 c0             	setne  %al
    caa0:	0f b6 c8             	movzbl %al,%ecx
    caa3:	0f b6 85 9c e6 ff ff 	movzbl -0x1964(%rbp),%eax
    caaa:	0f b6 c0             	movzbl %al,%eax
    caad:	39 c1                	cmp    %eax,%ecx
    caaf:	0f 9d c0             	setge  %al
    cab2:	0f b6 c0             	movzbl %al,%eax
    cab5:	31 d0                	xor    %edx,%eax
    cab7:	48 63 d0             	movslq %eax,%rdx
    caba:	b8 b0 ff ff ff       	mov    $0xffffffb0,%eax
    cabf:	48 0f bf c0          	movswq %ax,%rax
    cac3:	48 89 05 36 8c 00 00 	mov    %rax,0x8c36(%rip)        # 15700 <g_188+0x580>
    caca:	48 8b 05 2f 8c 00 00 	mov    0x8c2f(%rip),%rax        # 15700 <g_188+0x580>
    cad1:	48 89 d6             	mov    %rdx,%rsi
    cad4:	48 89 c7             	mov    %rax,%rdi
    cad7:	e8 6f 95 ff ff       	callq  604b <safe_sub_func_uint64_t_u_u>
    cadc:	48 85 c0             	test   %rax,%rax
    cadf:	0f 84 1b 0b 00 00    	je     d600 <func_46+0x2a22>
    cae5:	66 c7 85 ba e6 ff ff 	movw   $0x6,-0x1946(%rbp)
    caec:	06 00 
    caee:	48 8d 05 2b a8 00 00 	lea    0xa82b(%rip),%rax        # 17320 <g_167>
    caf5:	48 89 85 88 e8 ff ff 	mov    %rax,-0x1778(%rbp)
    cafc:	c6 85 a7 e6 ff ff fe 	movb   $0xfe,-0x1959(%rbp)
    cb03:	48 8d 05 16 a8 00 00 	lea    0xa816(%rip),%rax        # 17320 <g_167>
    cb0a:	48 89 85 90 e8 ff ff 	mov    %rax,-0x1770(%rbp)
    cb11:	48 0f be 9d a5 e6 ff 	movsbq -0x195b(%rbp),%rbx
    cb18:	ff 
    cb19:	44 0f b6 a5 98 e6 ff 	movzbl -0x1968(%rbp),%r12d
    cb20:	ff 
    cb21:	0f b7 05 74 93 00 00 	movzwl 0x9374(%rip),%eax        # 15e9c <g_808>
    cb28:	66 0d 82 81          	or     $0x8182,%ax
    cb2c:	66 89 05 69 93 00 00 	mov    %ax,0x9369(%rip)        # 15e9c <g_808>
    cb33:	b8 3b f5 ff ff       	mov    $0xfffff53b,%eax
    cb38:	44 0f b6 e8          	movzbl %al,%r13d
    cb3c:	0f b6 85 9c e6 ff ff 	movzbl -0x1964(%rbp),%eax
    cb43:	84 c0                	test   %al,%al
    cb45:	0f 94 c0             	sete   %al
    cb48:	44 0f b6 f8          	movzbl %al,%r15d
    cb4c:	48 8b 05 35 92 00 00 	mov    0x9235(%rip),%rax        # 15d88 <g_500+0x8>
    cb53:	48 c1 e8 2c          	shr    $0x2c,%rax
    cb57:	48 89 c2             	mov    %rax,%rdx
    cb5a:	48 8b 05 2f 92 00 00 	mov    0x922f(%rip),%rax        # 15d90 <g_500+0x10>
    cb61:	83 e0 7f             	and    $0x7f,%eax
    cb64:	48 c1 e0 14          	shl    $0x14,%rax
    cb68:	48 09 d0             	or     %rdx,%rax
    cb6b:	66 89 85 90 e6 ff ff 	mov    %ax,-0x1970(%rbp)
    cb72:	0f b6 85 9c e6 ff ff 	movzbl -0x1964(%rbp),%eax
    cb79:	44 0f b6 f0          	movzbl %al,%r14d
    cb7d:	0f b6 85 98 e6 ff ff 	movzbl -0x1968(%rbp),%eax
    cb84:	89 85 88 e6 ff ff    	mov    %eax,-0x1978(%rbp)
    cb8a:	be 01 00 00 00       	mov    $0x1,%esi
    cb8f:	48 bf 36 76 30 f9 2f 	movabs $0x19eddd2ff9307636,%rdi
    cb96:	dd ed 19 
    cb99:	e8 e2 94 ff ff       	callq  6080 <safe_mod_func_uint64_t_u_u>
    cb9e:	48 8b 85 10 ea ff ff 	mov    -0x15f0(%rbp),%rax
    cba5:	48 85 c0             	test   %rax,%rax
    cba8:	0f 95 c0             	setne  %al
    cbab:	0f b6 c0             	movzbl %al,%eax
    cbae:	be 02 00 00 00       	mov    $0x2,%esi
    cbb3:	89 c7                	mov    %eax,%edi
    cbb5:	e8 34 87 ff ff       	callq  52ee <safe_lshift_func_int8_t_s_u>
    cbba:	0f be d0             	movsbl %al,%edx
    cbbd:	0f b6 85 9c e6 ff ff 	movzbl -0x1964(%rbp),%eax
    cbc4:	0f b6 c0             	movzbl %al,%eax
    cbc7:	39 c2                	cmp    %eax,%edx
    cbc9:	0f 9c c0             	setl   %al
    cbcc:	0f b6 d0             	movzbl %al,%edx
    cbcf:	0f b6 85 98 e6 ff ff 	movzbl -0x1968(%rbp),%eax
    cbd6:	09 d0                	or     %edx,%eax
    cbd8:	39 85 88 e6 ff ff    	cmp    %eax,-0x1978(%rbp)
    cbde:	0f 95 c0             	setne  %al
    cbe1:	0f b6 c0             	movzbl %al,%eax
    cbe4:	44 89 f6             	mov    %r14d,%esi
    cbe7:	89 c7                	mov    %eax,%edi
    cbe9:	e8 47 87 ff ff       	callq  5335 <safe_rshift_func_int8_t_s_s>
    cbee:	0f be d0             	movsbl %al,%edx
    cbf1:	b8 28 4a 00 00       	mov    $0x4a28,%eax
    cbf6:	0f b7 c0             	movzwl %ax,%eax
    cbf9:	39 c2                	cmp    %eax,%edx
    cbfb:	0f 9c c0             	setl   %al
    cbfe:	0f b6 c0             	movzbl %al,%eax
    cc01:	66 33 85 90 e6 ff ff 	xor    -0x1970(%rbp),%ax
    cc08:	0f b7 d0             	movzwl %ax,%edx
    cc0b:	0f b6 85 98 e6 ff ff 	movzbl -0x1968(%rbp),%eax
    cc12:	89 d6                	mov    %edx,%esi
    cc14:	89 c7                	mov    %eax,%edi
    cc16:	e8 22 91 ff ff       	callq  5d3d <safe_mul_func_uint16_t_u_u>
    cc1b:	0f b7 c0             	movzwl %ax,%eax
    cc1e:	41 39 c7             	cmp    %eax,%r15d
    cc21:	0f 9e c0             	setle  %al
    cc24:	0f b6 c0             	movzbl %al,%eax
    cc27:	be 05 00 00 00       	mov    $0x5,%esi
    cc2c:	89 c7                	mov    %eax,%edi
    cc2e:	e8 02 87 ff ff       	callq  5335 <safe_rshift_func_int8_t_s_s>
    cc33:	44 89 ee             	mov    %r13d,%esi
    cc36:	bf 00 00 00 00       	mov    $0x0,%edi
    cc3b:	e8 6e 8f ff ff       	callq  5bae <safe_mod_func_uint8_t_u_u>
    cc40:	84 c0                	test   %al,%al
    cc42:	0f 94 c0             	sete   %al
    cc45:	0f b6 c0             	movzbl %al,%eax
    cc48:	44 89 e6             	mov    %r12d,%esi
    cc4b:	89 c7                	mov    %eax,%edi
    cc4d:	e8 c4 87 ff ff       	callq  5416 <safe_mod_func_int16_t_s_s>
    cc52:	80 bd 98 e6 ff ff 00 	cmpb   $0x0,-0x1968(%rbp)
    cc59:	48 8b 85 08 e8 ff ff 	mov    -0x17f8(%rbp),%rax
    cc60:	48 3b 85 e0 e7 ff ff 	cmp    -0x1820(%rbp),%rax
    cc67:	0f 95 c0             	setne  %al
    cc6a:	0f b6 d0             	movzbl %al,%edx
    cc6d:	0f b6 85 9c e6 ff ff 	movzbl -0x1964(%rbp),%eax
    cc74:	0f b6 c0             	movzbl %al,%eax
    cc77:	39 c2                	cmp    %eax,%edx
    cc79:	0f 95 c0             	setne  %al
    cc7c:	0f b6 c0             	movzbl %al,%eax
    cc7f:	48 89 05 52 84 00 00 	mov    %rax,0x8452(%rip)        # 150d8 <g_123>
    cc86:	48 8b 05 4b 84 00 00 	mov    0x844b(%rip),%rax        # 150d8 <g_123>
    cc8d:	48 ba 43 dd 59 3f f4 	movabs $0x12dadbf43f59dd43,%rdx
    cc94:	db da 12 
    cc97:	48 39 d0             	cmp    %rdx,%rax
    cc9a:	0f 94 c0             	sete   %al
    cc9d:	0f b6 c0             	movzbl %al,%eax
    cca0:	48 89 de             	mov    %rbx,%rsi
    cca3:	48 89 c7             	mov    %rax,%rdi
    cca6:	e8 a0 93 ff ff       	callq  604b <safe_sub_func_uint64_t_u_u>
    ccab:	48 85 c0             	test   %rax,%rax
    ccae:	0f 84 84 04 00 00    	je     d138 <func_46+0x255a>
    ccb4:	48 c7 85 a0 e8 ff ff 	movq   $0x0,-0x1760(%rbp)
    ccbb:	00 00 00 00 
    ccbf:	48 8d 05 4e 8b 00 00 	lea    0x8b4e(%rip),%rax        # 15814 <g_267>
    ccc6:	48 89 85 a8 e8 ff ff 	mov    %rax,-0x1758(%rbp)
    cccd:	48 8d 85 00 ee ff ff 	lea    -0x1200(%rbp),%rax
    ccd4:	48 8d 15 65 a2 00 00 	lea    0xa265(%rip),%rdx        # 16f40 <g_2069+0xd4c>
    ccdb:	b9 48 00 00 00       	mov    $0x48,%ecx
    cce0:	48 89 c7             	mov    %rax,%rdi
    cce3:	48 89 d6             	mov    %rdx,%rsi
    cce6:	f3 48 a5             	rep movsq %ds:(%rsi),%es:(%rdi)
    cce9:	48 8d 05 48 ac 00 00 	lea    0xac48(%rip),%rax        # 17938 <g_868+0x18>
    ccf0:	48 89 85 b0 e8 ff ff 	mov    %rax,-0x1750(%rbp)
    ccf7:	48 c7 85 b8 e8 ff ff 	movq   $0x0,-0x1748(%rbp)
    ccfe:	00 00 00 00 
    cd02:	48 8d 85 78 e7 ff ff 	lea    -0x1888(%rbp),%rax
    cd09:	48 89 85 c0 e8 ff ff 	mov    %rax,-0x1740(%rbp)
    cd10:	66 c7 85 bc e6 ff ff 	movw   $0xd31,-0x1944(%rbp)
    cd17:	31 0d 
    cd19:	48 8d 85 80 e7 ff ff 	lea    -0x1880(%rbp),%rax
    cd20:	48 89 85 c8 e8 ff ff 	mov    %rax,-0x1738(%rbp)
    cd27:	c7 85 f8 e6 ff ff 9e 	movl   $0x739c889e,-0x1908(%rbp)
    cd2e:	88 9c 73 
    cd31:	48 8b 85 a8 e8 ff ff 	mov    -0x1758(%rbp),%rax
    cd38:	0f b6 00             	movzbl (%rax),%eax
    cd3b:	8d 48 01             	lea    0x1(%rax),%ecx
    cd3e:	48 8b 95 a8 e8 ff ff 	mov    -0x1758(%rbp),%rdx
    cd45:	88 0a                	mov    %cl,(%rdx)
    cd47:	88 85 98 e6 ff ff    	mov    %al,-0x1968(%rbp)
    cd4d:	0f b6 85 9c e6 ff ff 	movzbl -0x1964(%rbp),%eax
    cd54:	0f be d8             	movsbl %al,%ebx
    cd57:	0f b6 05 7a 90 00 00 	movzbl 0x907a(%rip),%eax        # 15dd8 <g_645+0x8>
    cd5e:	c1 e0 03             	shl    $0x3,%eax
    cd61:	c0 f8 03             	sar    $0x3,%al
    cd64:	44 0f be e0          	movsbl %al,%r12d
    cd68:	8b 05 ae 90 00 00    	mov    0x90ae(%rip),%eax        # 15e1c <g_646+0x1c>
    cd6e:	c1 e8 0a             	shr    $0xa,%eax
    cd71:	66 25 ff 03          	and    $0x3ff,%ax
    cd75:	44 0f b6 e8          	movzbl %al,%r13d
    cd79:	0f b6 85 9c e6 ff ff 	movzbl -0x1964(%rbp),%eax
    cd80:	44 0f b6 f0          	movzbl %al,%r14d
    cd84:	44 0f b6 bd 98 e6 ff 	movzbl -0x1968(%rbp),%r15d
    cd8b:	ff 
    cd8c:	0f b6 85 98 e6 ff ff 	movzbl -0x1968(%rbp),%eax
    cd93:	89 85 90 e6 ff ff    	mov    %eax,-0x1970(%rbp)
    cd99:	0f b6 95 a7 e6 ff ff 	movzbl -0x1959(%rbp),%edx
    cda0:	48 8b 0d 91 ab 00 00 	mov    0xab91(%rip),%rcx        # 17938 <g_868+0x18>
    cda7:	48 8b 85 b0 e8 ff ff 	mov    -0x1750(%rbp),%rax
    cdae:	48 89 08             	mov    %rcx,(%rax)
    cdb1:	48 8b 85 b0 e8 ff ff 	mov    -0x1750(%rbp),%rax
    cdb8:	48 8b 00             	mov    (%rax),%rax
    cdbb:	48 8d 0d 5e b6 00 00 	lea    0xb65e(%rip),%rcx        # 18420 <g_869>
    cdc2:	48 39 c8             	cmp    %rcx,%rax
    cdc5:	0f 94 c0             	sete   %al
    cdc8:	0f b6 c0             	movzbl %al,%eax
    cdcb:	89 d6                	mov    %edx,%esi
    cdcd:	89 c7                	mov    %eax,%edi
    cdcf:	e8 1a 85 ff ff       	callq  52ee <safe_lshift_func_int8_t_s_u>
    cdd4:	48 0f be c8          	movsbq %al,%rcx
    cdd8:	48 89 8d 88 e6 ff ff 	mov    %rcx,-0x1978(%rbp)
    cddf:	8b 05 cb 8f 00 00    	mov    0x8fcb(%rip),%eax        # 15db0 <g_644>
    cde5:	c1 e8 0d             	shr    $0xd,%eax
    cde8:	66 25 ff 3f          	and    $0x3fff,%ax
    cdec:	0f b6 c0             	movzbl %al,%eax
    cdef:	be 02 00 00 00       	mov    $0x2,%esi
    cdf4:	89 c7                	mov    %eax,%edi
    cdf6:	e8 c3 8e ff ff       	callq  5cbe <safe_rshift_func_uint8_t_u_u>
    cdfb:	0f b6 c0             	movzbl %al,%eax
    cdfe:	be 05 00 00 00       	mov    $0x5,%esi
    ce03:	89 c7                	mov    %eax,%edi
    ce05:	e8 70 90 ff ff       	callq  5e7a <safe_rshift_func_uint16_t_u_u>
    ce0a:	0f b7 c0             	movzwl %ax,%eax
    ce0d:	48 8b b5 88 e6 ff ff 	mov    -0x1978(%rbp),%rsi
    ce14:	48 89 c7             	mov    %rax,%rdi
    ce17:	e8 2f 92 ff ff       	callq  604b <safe_sub_func_uint64_t_u_u>
    ce1c:	0f b6 c0             	movzbl %al,%eax
    ce1f:	8b b5 90 e6 ff ff    	mov    -0x1970(%rbp),%esi
    ce25:	89 c7                	mov    %eax,%edi
    ce27:	e8 2e 8d ff ff       	callq  5b5a <safe_add_func_uint8_t_u_u>
    ce2c:	84 c0                	test   %al,%al
    ce2e:	75 0a                	jne    ce3a <func_46+0x225c>
    ce30:	66 83 bd ba e6 ff ff 	cmpw   $0x0,-0x1946(%rbp)
    ce37:	00 
    ce38:	74 07                	je     ce41 <func_46+0x2263>
    ce3a:	b8 01 00 00 00       	mov    $0x1,%eax
    ce3f:	eb 05                	jmp    ce46 <func_46+0x2268>
    ce41:	b8 00 00 00 00       	mov    $0x0,%eax
    ce46:	0f be c0             	movsbl %al,%eax
    ce49:	be ad ff ff ff       	mov    $0xffffffad,%esi
    ce4e:	89 c7                	mov    %eax,%edi
    ce50:	e8 bd 83 ff ff       	callq  5212 <safe_mul_func_int8_t_s_s>
    ce55:	0f be d0             	movsbl %al,%edx
    ce58:	8b 05 76 4e 00 00    	mov    0x4e76(%rip),%eax        # 11cd4 <l_872.4730+0x34>
    ce5e:	39 c2                	cmp    %eax,%edx
    ce60:	0f 9f c0             	setg   %al
    ce63:	0f b6 c0             	movzbl %al,%eax
    ce66:	4c 89 fe             	mov    %r15,%rsi
    ce69:	48 89 c7             	mov    %rax,%rdi
    ce6c:	e8 43 8b ff ff       	callq  59b4 <safe_mod_func_int64_t_s_s>
    ce71:	4c 89 f6             	mov    %r14,%rsi
    ce74:	48 89 c7             	mov    %rax,%rdi
    ce77:	e8 b2 91 ff ff       	callq  602e <safe_add_func_uint64_t_u_u>
    ce7c:	0f b7 c0             	movzwl %ax,%eax
    ce7f:	89 c6                	mov    %eax,%esi
    ce81:	bf e9 60 00 00       	mov    $0x60e9,%edi
    ce86:	e8 b2 8e ff ff       	callq  5d3d <safe_mul_func_uint16_t_u_u>
    ce8b:	0f b6 95 98 e6 ff ff 	movzbl -0x1968(%rbp),%edx
    ce92:	66 39 d0             	cmp    %dx,%ax
    ce95:	0f 96 c0             	setbe  %al
    ce98:	0f b6 d0             	movzbl %al,%edx
    ce9b:	0f b6 85 9c e6 ff ff 	movzbl -0x1964(%rbp),%eax
    cea2:	0f b6 c0             	movzbl %al,%eax
    cea5:	39 c2                	cmp    %eax,%edx
    cea7:	0f 9e c0             	setle  %al
    ceaa:	0f b6 c0             	movzbl %al,%eax
    cead:	44 89 ee             	mov    %r13d,%esi
    ceb0:	89 c7                	mov    %eax,%edi
    ceb2:	e8 dc 8c ff ff       	callq  5b93 <safe_mul_func_uint8_t_u_u>
    ceb7:	48 83 bd b8 e8 ff ff 	cmpq   $0x0,-0x1748(%rbp)
    cebe:	00 
    cebf:	0f 94 c0             	sete   %al
    cec2:	0f b6 c0             	movzbl %al,%eax
    cec5:	44 89 e6             	mov    %r12d,%esi
    cec8:	89 c7                	mov    %eax,%edi
    ceca:	e8 36 8d ff ff       	callq  5c05 <safe_lshift_func_uint8_t_u_s>
    cecf:	b8 b0 ff ff ff       	mov    $0xffffffb0,%eax
    ced4:	0f b7 c0             	movzwl %ax,%eax
    ced7:	be 01 00 00 00       	mov    $0x1,%esi
    cedc:	89 c7                	mov    %eax,%edi
    cede:	e8 3c 8e ff ff       	callq  5d1f <safe_sub_func_uint16_t_u_u>
    cee3:	0f be c0             	movsbl %al,%eax
    cee6:	89 de                	mov    %ebx,%esi
    cee8:	89 c7                	mov    %eax,%edi
    ceea:	e8 23 83 ff ff       	callq  5212 <safe_mul_func_int8_t_s_s>
    ceef:	66 98                	cbtw   
    cef1:	0f b7 c0             	movzwl %ax,%eax
    cef4:	be f9 ff 00 00       	mov    $0xfff9,%esi
    cef9:	89 c7                	mov    %eax,%edi
    cefb:	e8 5c 8e ff ff       	callq  5d5c <safe_mod_func_uint16_t_u_u>
    cf00:	0f b6 85 9c e6 ff ff 	movzbl -0x1964(%rbp),%eax
    cf07:	83 c8 01             	or     $0x1,%eax
    cf0a:	0f b6 c0             	movzbl %al,%eax
    cf0d:	be 06 00 00 00       	mov    $0x6,%esi
    cf12:	89 c7                	mov    %eax,%edi
    cf14:	e8 e4 8f ff ff       	callq  5efd <safe_mod_func_uint32_t_u_u>
    cf19:	48 8b 05 a8 a8 00 00 	mov    0xa8a8(%rip),%rax        # 177c8 <g_551>
    cf20:	48 8b 08             	mov    (%rax),%rcx
    cf23:	48 8b 85 30 e8 ff ff 	mov    -0x17d0(%rbp),%rax
    cf2a:	48 8b 95 88 e8 ff ff 	mov    -0x1778(%rbp),%rdx
    cf31:	48 89 10             	mov    %rdx,(%rax)
    cf34:	48 8b 85 30 e8 ff ff 	mov    -0x17d0(%rbp),%rax
    cf3b:	48 8b 00             	mov    (%rax),%rax
    cf3e:	48 39 c1             	cmp    %rax,%rcx
    cf41:	0f 95 c0             	setne  %al
    cf44:	0f b6 c0             	movzbl %al,%eax
    cf47:	be 03 00 00 00       	mov    $0x3,%esi
    cf4c:	89 c7                	mov    %eax,%edi
    cf4e:	e8 e2 83 ff ff       	callq  5335 <safe_rshift_func_int8_t_s_s>
    cf53:	0f b6 8d 9c e6 ff ff 	movzbl -0x1964(%rbp),%ecx
    cf5a:	48 8b 85 b8 e7 ff ff 	mov    -0x1848(%rbp),%rax
    cf61:	8b 10                	mov    (%rax),%edx
    cf63:	0f b6 c1             	movzbl %cl,%eax
    cf66:	21 c2                	and    %eax,%edx
    cf68:	48 8b 85 b8 e7 ff ff 	mov    -0x1848(%rbp),%rax
    cf6f:	89 10                	mov    %edx,(%rax)
    cf71:	0f b6 9d 98 e6 ff ff 	movzbl -0x1968(%rbp),%ebx
    cf78:	44 0f be a5 a6 e6 ff 	movsbl -0x195a(%rbp),%r12d
    cf7f:	ff 
    cf80:	80 bd 98 e6 ff ff 00 	cmpb   $0x0,-0x1968(%rbp)
    cf87:	75 70                	jne    cff9 <func_46+0x241b>
    cf89:	48 8b 85 a8 e8 ff ff 	mov    -0x1758(%rbp),%rax
    cf90:	0f b6 00             	movzbl (%rax),%eax
    cf93:	83 c8 f8             	or     $0xfffffff8,%eax
    cf96:	89 c2                	mov    %eax,%edx
    cf98:	48 8b 85 a8 e8 ff ff 	mov    -0x1758(%rbp),%rax
    cf9f:	88 10                	mov    %dl,(%rax)
    cfa1:	48 8b 85 a8 e8 ff ff 	mov    -0x1758(%rbp),%rax
    cfa8:	0f b6 00             	movzbl (%rax),%eax
    cfab:	3c 17                	cmp    $0x17,%al
    cfad:	48 8b 95 80 e7 ff ff 	mov    -0x1880(%rbp),%rdx
    cfb4:	48 8b 85 c8 e8 ff ff 	mov    -0x1738(%rbp),%rax
    cfbb:	48 89 10             	mov    %rdx,(%rax)
    cfbe:	48 8b 85 c8 e8 ff ff 	mov    -0x1738(%rbp),%rax
    cfc5:	48 8b 00             	mov    (%rax),%rax
    cfc8:	48 8d 15 79 a9 00 00 	lea    0xa979(%rip),%rdx        # 17948 <g_868+0x28>
    cfcf:	48 39 d0             	cmp    %rdx,%rax
    cfd2:	0f 94 c0             	sete   %al
    cfd5:	0f b6 c0             	movzbl %al,%eax
    cfd8:	be 76 5c 00 00       	mov    $0x5c76,%esi
    cfdd:	89 c7                	mov    %eax,%edi
    cfdf:	e8 11 84 ff ff       	callq  53f5 <safe_mul_func_int16_t_s_s>
    cfe4:	98                   	cwtl   
    cfe5:	89 85 e8 e6 ff ff    	mov    %eax,-0x1918(%rbp)
    cfeb:	8b 85 e8 e6 ff ff    	mov    -0x1918(%rbp),%eax
    cff1:	3b 85 f8 e6 ff ff    	cmp    -0x1908(%rbp),%eax
    cff7:	74 07                	je     d000 <func_46+0x2422>
    cff9:	b8 01 00 00 00       	mov    $0x1,%eax
    cffe:	eb 05                	jmp    d005 <func_46+0x2427>
    d000:	b8 00 00 00 00       	mov    $0x0,%eax
    d005:	44 39 e0             	cmp    %r12d,%eax
    d008:	0f 9f c0             	setg   %al
    d00b:	0f b6 c0             	movzbl %al,%eax
    d00e:	f7 d0                	not    %eax
    d010:	0f b7 c0             	movzwl %ax,%eax
    d013:	89 de                	mov    %ebx,%esi
    d015:	89 c7                	mov    %eax,%edi
    d017:	e8 21 8d ff ff       	callq  5d3d <safe_mul_func_uint16_t_u_u>
    d01c:	48 8b 95 78 e7 ff ff 	mov    -0x1888(%rbp),%rdx
    d023:	48 8b 85 c0 e8 ff ff 	mov    -0x1740(%rbp),%rax
    d02a:	48 89 10             	mov    %rdx,(%rax)
    d02d:	48 8b 85 c0 e8 ff ff 	mov    -0x1740(%rbp),%rax
    d034:	48 8b 10             	mov    (%rax),%rdx
    d037:	48 8b 85 68 ec ff ff 	mov    -0x1398(%rbp),%rax
    d03e:	48 39 c2             	cmp    %rax,%rdx
    d041:	0f 94 c0             	sete   %al
    d044:	0f b6 d0             	movzbl %al,%edx
    d047:	48 8b 85 c0 e7 ff ff 	mov    -0x1840(%rbp),%rax
    d04e:	8b 00                	mov    (%rax),%eax
    d050:	09 c2                	or     %eax,%edx
    d052:	48 8b 85 c0 e7 ff ff 	mov    -0x1840(%rbp),%rax
    d059:	89 10                	mov    %edx,(%rax)
    d05b:	b8 3b f5 ff ff       	mov    $0xfffff53b,%eax
    d060:	89 c2                	mov    %eax,%edx
    d062:	48 8b 85 00 e8 ff ff 	mov    -0x1800(%rbp),%rax
    d069:	88 10                	mov    %dl,(%rax)
    d06b:	48 8b 85 00 e8 ff ff 	mov    -0x1800(%rbp),%rax
    d072:	0f b6 00             	movzbl (%rax),%eax
    d075:	4c 0f be e0          	movsbq %al,%r12
    d079:	48 8b 85 58 e8 ff ff 	mov    -0x17a8(%rbp),%rax
    d080:	48 8d 15 90 87 00 00 	lea    0x8790(%rip),%rdx        # 15817 <g_267+0x3>
    d087:	48 89 10             	mov    %rdx,(%rax)
    d08a:	0f b6 9d 98 e6 ff ff 	movzbl -0x1968(%rbp),%ebx
    d091:	bf 06 64 00 00       	mov    $0x6406,%edi
    d096:	e8 02 83 ff ff       	callq  539d <safe_unary_minus_func_int16_t_s>
    d09b:	0f b6 85 9c e6 ff ff 	movzbl -0x1964(%rbp),%eax
    d0a2:	84 c0                	test   %al,%al
    d0a4:	0f 95 c0             	setne  %al
    d0a7:	0f b6 c0             	movzbl %al,%eax
    d0aa:	48 63 d0             	movslq %eax,%rdx
    d0ad:	48 8b 05 24 80 00 00 	mov    0x8024(%rip),%rax        # 150d8 <g_123>
    d0b4:	48 39 c2             	cmp    %rax,%rdx
    d0b7:	48 8d 05 e2 8c 00 00 	lea    0x8ce2(%rip),%rax        # 15da0 <g_607>
    d0be:	48 39 85 00 e8 ff ff 	cmp    %rax,-0x1800(%rbp)
    d0c5:	74 13                	je     d0da <func_46+0x24fc>
    d0c7:	48 8b 05 2a 80 00 00 	mov    0x802a(%rip),%rax        # 150f8 <g_168+0x8>
    d0ce:	48 c1 e0 1e          	shl    $0x1e,%rax
    d0d2:	48 c1 f8 23          	sar    $0x23,%rax
    d0d6:	85 c0                	test   %eax,%eax
    d0d8:	74 07                	je     d0e1 <func_46+0x2503>
    d0da:	ba 01 00 00 00       	mov    $0x1,%edx
    d0df:	eb 05                	jmp    d0e6 <func_46+0x2508>
    d0e1:	ba 00 00 00 00       	mov    $0x0,%edx
    d0e6:	0f b6 85 a7 e6 ff ff 	movzbl -0x1959(%rbp),%eax
    d0ed:	39 c2                	cmp    %eax,%edx
    d0ef:	bf 06 00 00 00       	mov    $0x6,%edi
    d0f4:	e8 4c 8a ff ff       	callq  5b45 <safe_unary_minus_func_uint8_t_u>
    d0f9:	0f b6 c0             	movzbl %al,%eax
    d0fc:	48 89 de             	mov    %rbx,%rsi
    d0ff:	48 89 c7             	mov    %rax,%rdi
    d102:	e8 44 8f ff ff       	callq  604b <safe_sub_func_uint64_t_u_u>
    d107:	48 89 c2             	mov    %rax,%rdx
    d10a:	48 8b 85 c0 e8 ff ff 	mov    -0x1740(%rbp),%rax
    d111:	48 8b 00             	mov    (%rax),%rax
    d114:	66 89 10             	mov    %dx,(%rax)
    d117:	b8 01 00 00 00       	mov    $0x1,%eax
    d11c:	48 98                	cltq   
    d11e:	25 a1 00 00 00       	and    $0xa1,%eax
    d123:	49 39 c4             	cmp    %rax,%r12
    d126:	48 8b 85 d8 e7 ff ff 	mov    -0x1828(%rbp),%rax
    d12d:	c7 00 01 00 00 00    	movl   $0x1,(%rax)
    d133:	e9 dc 03 00 00       	jmpq   d514 <func_46+0x2936>
    d138:	48 b8 ca 0e b3 21 b5 	movabs $0x55cf54b521b30eca,%rax
    d13f:	54 cf 55 
    d142:	48 89 85 98 e8 ff ff 	mov    %rax,-0x1768(%rbp)
    d149:	c7 85 f4 e6 ff ff 86 	movl   $0xc06e4a86,-0x190c(%rbp)
    d150:	4a 6e c0 
    d153:	0f b6 85 9c e6 ff ff 	movzbl -0x1964(%rbp),%eax
    d15a:	0f b6 d8             	movzbl %al,%ebx
    d15d:	be f5 00 00 00       	mov    $0xf5,%esi
    d162:	bf 01 00 00 00       	mov    $0x1,%edi
    d167:	e8 27 8a ff ff       	callq  5b93 <safe_mul_func_uint8_t_u_u>
    d16c:	0f b6 d0             	movzbl %al,%edx
    d16f:	48 8b 85 b8 f4 ff ff 	mov    -0xb48(%rbp),%rax
    d176:	48 39 85 48 e8 ff ff 	cmp    %rax,-0x17b8(%rbp)
    d17d:	0f 94 c0             	sete   %al
    d180:	0f b6 c0             	movzbl %al,%eax
    d183:	39 c2                	cmp    %eax,%edx
    d185:	0f 95 c0             	setne  %al
    d188:	0f b6 d0             	movzbl %al,%edx
    d18b:	8b 05 17 8d 00 00    	mov    0x8d17(%rip),%eax        # 15ea8 <g_903+0x8>
    d191:	0f b7 c0             	movzwl %ax,%eax
    d194:	89 d6                	mov    %edx,%esi
    d196:	89 c7                	mov    %eax,%edi
    d198:	e8 a0 8b ff ff       	callq  5d3d <safe_mul_func_uint16_t_u_u>
    d19d:	66 85 c0             	test   %ax,%ax
    d1a0:	74 12                	je     d1b4 <func_46+0x25d6>
    d1a2:	0f b6 85 9c e6 ff ff 	movzbl -0x1964(%rbp),%eax
    d1a9:	84 c0                	test   %al,%al
    d1ab:	74 07                	je     d1b4 <func_46+0x25d6>
    d1ad:	b8 01 00 00 00       	mov    $0x1,%eax
    d1b2:	eb 05                	jmp    d1b9 <func_46+0x25db>
    d1b4:	b8 00 00 00 00       	mov    $0x0,%eax
    d1b9:	0f bf d0             	movswl %ax,%edx
    d1bc:	48 8d 05 d5 8b 00 00 	lea    0x8bd5(%rip),%rax        # 15d98 <g_562>
    d1c3:	48 89 85 68 e8 ff ff 	mov    %rax,-0x1798(%rbp)
    d1ca:	48 8d 05 0f 7f 00 00 	lea    0x7f0f(%rip),%rax        # 150e0 <g_125>
    d1d1:	48 39 85 68 e8 ff ff 	cmp    %rax,-0x1798(%rbp)
    d1d8:	0f 94 c0             	sete   %al
    d1db:	0f b6 c0             	movzbl %al,%eax
    d1de:	89 d6                	mov    %edx,%esi
    d1e0:	89 c7                	mov    %eax,%edi
    d1e2:	e8 0e 82 ff ff       	callq  53f5 <safe_mul_func_int16_t_s_s>
    d1e7:	66 09 85 b4 e6 ff ff 	or     %ax,-0x194c(%rbp)
    d1ee:	89 de                	mov    %ebx,%esi
    d1f0:	bf dd a8 00 00       	mov    $0xa8dd,%edi
    d1f5:	e8 43 8b ff ff       	callq  5d3d <safe_mul_func_uint16_t_u_u>
    d1fa:	48 8b 85 a0 e9 ff ff 	mov    -0x1660(%rbp),%rax
    d201:	48 85 c0             	test   %rax,%rax
    d204:	0f 95 c0             	setne  %al
    d207:	0f b6 d0             	movzbl %al,%edx
    d20a:	0f b7 05 53 3e 00 00 	movzwl 0x3e53(%rip),%eax        # 11064 <g_88+0x4>
    d211:	0f b7 c0             	movzwl %ax,%eax
    d214:	39 c2                	cmp    %eax,%edx
    d216:	0f 9e c0             	setle  %al
    d219:	0f b6 d0             	movzbl %al,%edx
    d21c:	48 8b 85 d8 e7 ff ff 	mov    -0x1828(%rbp),%rax
    d223:	89 10                	mov    %edx,(%rax)
    d225:	0f b6 85 9c e6 ff ff 	movzbl -0x1964(%rbp),%eax
    d22c:	0f b6 c0             	movzbl %al,%eax
    d22f:	48 39 85 98 e8 ff ff 	cmp    %rax,-0x1768(%rbp)
    d236:	8b 05 6c 8c 00 00    	mov    0x8c6c(%rip),%eax        # 15ea8 <g_903+0x8>
    d23c:	89 c0                	mov    %eax,%eax
    d23e:	48 89 85 90 e6 ff ff 	mov    %rax,-0x1970(%rbp)
    d245:	48 8b 05 dc a0 00 00 	mov    0xa0dc(%rip),%rax        # 17328 <g_444>
    d24c:	48 8b 00             	mov    (%rax),%rax
    d24f:	8b 05 cf 7d 00 00    	mov    0x7dcf(%rip),%eax        # 15024 <g_6>
    d255:	48 63 d8             	movslq %eax,%rbx
    d258:	0f b6 05 69 7e 00 00 	movzbl 0x7e69(%rip),%eax        # 150c8 <g_120+0x8>
    d25f:	c1 e0 03             	shl    $0x3,%eax
    d262:	c0 f8 03             	sar    $0x3,%al
    d265:	4c 0f be e0          	movsbq %al,%r12
    d269:	44 0f b6 ad 98 e6 ff 	movzbl -0x1968(%rbp),%r13d
    d270:	ff 
    d271:	0f b6 85 9c e6 ff ff 	movzbl -0x1964(%rbp),%eax
    d278:	44 0f b6 f0          	movzbl %al,%r14d
    d27c:	b8 2f 00 00 00       	mov    $0x2f,%eax
    d281:	44 0f b7 f8          	movzwl %ax,%r15d
    d285:	0f b6 85 9c e6 ff ff 	movzbl -0x1964(%rbp),%eax
    d28c:	0f b6 c0             	movzbl %al,%eax
    d28f:	89 85 88 e6 ff ff    	mov    %eax,-0x1978(%rbp)
    d295:	48 8b 05 2c a5 00 00 	mov    0xa52c(%rip),%rax        # 177c8 <g_551>
    d29c:	48 8b 00             	mov    (%rax),%rax
    d29f:	48 39 85 90 e8 ff ff 	cmp    %rax,-0x1770(%rbp)
    d2a6:	0f 94 c0             	sete   %al
    d2a9:	0f b6 d0             	movzbl %al,%edx
    d2ac:	0f b6 85 98 e6 ff ff 	movzbl -0x1968(%rbp),%eax
    d2b3:	48 89 d6             	mov    %rdx,%rsi
    d2b6:	48 89 c7             	mov    %rax,%rdi
    d2b9:	e8 70 8d ff ff       	callq  602e <safe_add_func_uint64_t_u_u>
    d2be:	83 f0 f6             	xor    $0xfffffff6,%eax
    d2c1:	8b b5 88 e6 ff ff    	mov    -0x1978(%rbp),%esi
    d2c7:	89 c7                	mov    %eax,%edi
    d2c9:	e8 fe 83 ff ff       	callq  56cc <safe_mod_func_int32_t_s_s>
    d2ce:	0f b6 85 98 e6 ff ff 	movzbl -0x1968(%rbp),%eax
    d2d5:	23 85 ec e6 ff ff    	and    -0x1914(%rbp),%eax
    d2db:	89 c0                	mov    %eax,%eax
    d2dd:	48 89 05 a4 83 00 00 	mov    %rax,0x83a4(%rip)        # 15688 <g_188+0x508>
    d2e4:	48 8b 05 9d 83 00 00 	mov    0x839d(%rip),%rax        # 15688 <g_188+0x508>
    d2eb:	48 85 c0             	test   %rax,%rax
    d2ee:	75 0c                	jne    d2fc <func_46+0x271e>
    d2f0:	0f b7 05 cd 7d 00 00 	movzwl 0x7dcd(%rip),%eax        # 150c4 <g_120+0x4>
    d2f7:	66 85 c0             	test   %ax,%ax
    d2fa:	74 07                	je     d303 <func_46+0x2725>
    d2fc:	b8 01 00 00 00       	mov    $0x1,%eax
    d301:	eb 05                	jmp    d308 <func_46+0x272a>
    d303:	b8 00 00 00 00       	mov    $0x0,%eax
    d308:	3d c5 73 00 00       	cmp    $0x73c5,%eax
    d30d:	0f 95 c0             	setne  %al
    d310:	0f b6 d0             	movzbl %al,%edx
    d313:	48 8b 85 88 e7 ff ff 	mov    -0x1878(%rbp),%rax
    d31a:	0f b7 00             	movzwl (%rax),%eax
    d31d:	09 c2                	or     %eax,%edx
    d31f:	48 8b 85 88 e7 ff ff 	mov    -0x1878(%rbp),%rax
    d326:	66 89 10             	mov    %dx,(%rax)
    d329:	48 8b 85 88 e7 ff ff 	mov    -0x1878(%rbp),%rax
    d330:	0f b7 00             	movzwl (%rax),%eax
    d333:	98                   	cwtl   
    d334:	be f0 5c 00 00       	mov    $0x5cf0,%esi
    d339:	89 c7                	mov    %eax,%edi
    d33b:	e8 15 81 ff ff       	callq  5455 <safe_div_func_int16_t_s_s>
    d340:	0f b6 85 9c e6 ff ff 	movzbl -0x1964(%rbp),%eax
    d347:	0f b6 c0             	movzbl %al,%eax
    d34a:	83 e0 01             	and    $0x1,%eax
    d34d:	89 c2                	mov    %eax,%edx
    d34f:	0f b7 85 ba e6 ff ff 	movzwl -0x1946(%rbp),%eax
    d356:	39 c2                	cmp    %eax,%edx
    d358:	0f 95 c0             	setne  %al
    d35b:	0f b6 c0             	movzbl %al,%eax
    d35e:	44 89 fe             	mov    %r15d,%esi
    d361:	89 c7                	mov    %eax,%edi
    d363:	e8 8d 80 ff ff       	callq  53f5 <safe_mul_func_int16_t_s_s>
    d368:	98                   	cwtl   
    d369:	44 89 f6             	mov    %r14d,%esi
    d36c:	89 c7                	mov    %eax,%edi
    d36e:	e8 60 80 ff ff       	callq  53d3 <safe_sub_func_int16_t_s_s>
    d373:	0f b7 c0             	movzwl %ax,%eax
    d376:	44 89 ee             	mov    %r13d,%esi
    d379:	89 c7                	mov    %eax,%edi
    d37b:	e8 c8 8a ff ff       	callq  5e48 <safe_rshift_func_uint16_t_u_s>
    d380:	66 85 c0             	test   %ax,%ax
    d383:	75 07                	jne    d38c <func_46+0x27ae>
    d385:	80 bd 98 e6 ff ff 00 	cmpb   $0x0,-0x1968(%rbp)
    d38c:	0f b6 85 98 e6 ff ff 	movzbl -0x1968(%rbp),%eax
    d393:	4c 89 e6             	mov    %r12,%rsi
    d396:	48 89 c7             	mov    %rax,%rdi
    d399:	e8 16 86 ff ff       	callq  59b4 <safe_mod_func_int64_t_s_s>
    d39e:	0f b6 95 9c e6 ff ff 	movzbl -0x1964(%rbp),%edx
    d3a5:	0f b6 d2             	movzbl %dl,%edx
    d3a8:	48 39 d0             	cmp    %rdx,%rax
    d3ab:	0f 9c c0             	setl   %al
    d3ae:	0f b6 c0             	movzbl %al,%eax
    d3b1:	48 39 85 98 e8 ff ff 	cmp    %rax,-0x1768(%rbp)
    d3b8:	0f 9e c0             	setle  %al
    d3bb:	0f b6 d0             	movzbl %al,%edx
    d3be:	48 8b 85 00 e8 ff ff 	mov    -0x1800(%rbp),%rax
    d3c5:	0f b6 00             	movzbl (%rax),%eax
    d3c8:	09 c2                	or     %eax,%edx
    d3ca:	48 8b 85 00 e8 ff ff 	mov    -0x1800(%rbp),%rax
    d3d1:	88 10                	mov    %dl,(%rax)
    d3d3:	48 8b 85 00 e8 ff ff 	mov    -0x1800(%rbp),%rax
    d3da:	0f b6 00             	movzbl (%rax),%eax
    d3dd:	0f be c0             	movsbl %al,%eax
    d3e0:	be 2e 00 00 00       	mov    $0x2e,%esi
    d3e5:	89 c7                	mov    %eax,%edi
    d3e7:	e8 7e 7e ff ff       	callq  526a <safe_div_func_int8_t_s_s>
    d3ec:	48 0f be c0          	movsbq %al,%rax
    d3f0:	48 89 de             	mov    %rbx,%rsi
    d3f3:	48 89 c7             	mov    %rax,%rdi
    d3f6:	e8 fc 85 ff ff       	callq  59f7 <safe_div_func_int64_t_s_s>
    d3fb:	0f b6 95 98 e6 ff ff 	movzbl -0x1968(%rbp),%edx
    d402:	48 09 c2             	or     %rax,%rdx
    d405:	b8 ef 3f 28 a0       	mov    $0xa0283fef,%eax
    d40a:	48 39 c2             	cmp    %rax,%rdx
    d40d:	0f 9e c0             	setle  %al
    d410:	0f b6 c0             	movzbl %al,%eax
    d413:	48 8b b5 90 e6 ff ff 	mov    -0x1970(%rbp),%rsi
    d41a:	48 89 c7             	mov    %rax,%rdi
    d41d:	e8 5e 8c ff ff       	callq  6080 <safe_mod_func_uint64_t_u_u>
    d422:	0f b6 95 98 e6 ff ff 	movzbl -0x1968(%rbp),%edx
    d429:	0f be 85 a6 e6 ff ff 	movsbl -0x195a(%rbp),%eax
    d430:	39 c2                	cmp    %eax,%edx
    d432:	0f 9d c0             	setge  %al
    d435:	0f b6 c0             	movzbl %al,%eax
    d438:	be 33 2c 00 00       	mov    $0x2c33,%esi
    d43d:	89 c7                	mov    %eax,%edi
    d43f:	e8 bb 88 ff ff       	callq  5cff <safe_add_func_uint16_t_u_u>
    d444:	48 8b 85 98 e8 ff ff 	mov    -0x1768(%rbp),%rax
    d44b:	48 c1 e8 3f          	shr    $0x3f,%rax
    d44f:	0f b6 d0             	movzbl %al,%edx
    d452:	48 8b 85 a8 e7 ff ff 	mov    -0x1858(%rbp),%rax
    d459:	89 10                	mov    %edx,(%rax)
    d45b:	48 8b 85 f8 e7 ff ff 	mov    -0x1808(%rbp),%rax
    d462:	8b 00                	mov    (%rax),%eax
    d464:	8d 50 01             	lea    0x1(%rax),%edx
    d467:	48 8b 85 f8 e7 ff ff 	mov    -0x1808(%rbp),%rax
    d46e:	89 10                	mov    %edx,(%rax)
    d470:	48 8b 85 48 e7 ff ff 	mov    -0x18b8(%rbp),%rax
    d477:	89 c2                	mov    %eax,%edx
    d479:	48 8b 85 00 e8 ff ff 	mov    -0x1800(%rbp),%rax
    d480:	88 10                	mov    %dl,(%rax)
    d482:	48 8b 85 00 e8 ff ff 	mov    -0x1800(%rbp),%rax
    d489:	0f b6 00             	movzbl (%rax),%eax
    d48c:	0f be d0             	movsbl %al,%edx
    d48f:	0f b7 85 ba e6 ff ff 	movzwl -0x1946(%rbp),%eax
    d496:	88 85 98 e6 ff ff    	mov    %al,-0x1968(%rbp)
    d49c:	0f b6 85 98 e6 ff ff 	movzbl -0x1968(%rbp),%eax
    d4a3:	83 c8 9a             	or     $0xffffff9a,%eax
    d4a6:	89 c1                	mov    %eax,%ecx
    d4a8:	0f b6 85 9c e6 ff ff 	movzbl -0x1964(%rbp),%eax
    d4af:	38 c1                	cmp    %al,%cl
    d4b1:	0f 92 c0             	setb   %al
    d4b4:	0f b6 c8             	movzbl %al,%ecx
    d4b7:	0f b7 05 c6 88 00 00 	movzwl 0x88c6(%rip),%eax        # 15d84 <g_500+0x4>
    d4be:	0f b7 c0             	movzwl %ax,%eax
    d4c1:	39 c1                	cmp    %eax,%ecx
    d4c3:	0f 9f c0             	setg   %al
    d4c6:	0f b6 c0             	movzbl %al,%eax
    d4c9:	09 d0                	or     %edx,%eax
    d4cb:	85 c0                	test   %eax,%eax
    d4cd:	74 11                	je     d4e0 <func_46+0x2902>
    d4cf:	b8 1f 00 00 00       	mov    $0x1f,%eax
    d4d4:	66 85 c0             	test   %ax,%ax
    d4d7:	74 07                	je     d4e0 <func_46+0x2902>
    d4d9:	ba 01 00 00 00       	mov    $0x1,%edx
    d4de:	eb 05                	jmp    d4e5 <func_46+0x2907>
    d4e0:	ba 00 00 00 00       	mov    $0x0,%edx
    d4e5:	48 8b 85 c0 e7 ff ff 	mov    -0x1840(%rbp),%rax
    d4ec:	89 10                	mov    %edx,(%rax)
    d4ee:	48 8b 85 c0 e7 ff ff 	mov    -0x1840(%rbp),%rax
    d4f5:	8b 00                	mov    (%rax),%eax
    d4f7:	89 85 f4 e6 ff ff    	mov    %eax,-0x190c(%rbp)
    d4fd:	48 8b 05 14 9e 00 00 	mov    0x9e14(%rip),%rax        # 17318 <g_91>
    d504:	48 8b 10             	mov    (%rax),%rdx
    d507:	48 8b 05 02 9e 00 00 	mov    0x9e02(%rip),%rax        # 17310 <g_92>
    d50e:	48 8b 12             	mov    (%rdx),%rdx
    d511:	48 89 10             	mov    %rdx,(%rax)
    d514:	48 8b 05 fd 9d 00 00 	mov    0x9dfd(%rip),%rax        # 17318 <g_91>
    d51b:	48 8b 10             	mov    (%rax),%rdx
    d51e:	48 8b 05 f3 9d 00 00 	mov    0x9df3(%rip),%rax        # 17318 <g_91>
    d525:	48 8b 00             	mov    (%rax),%rax
    d528:	48 8b 12             	mov    (%rdx),%rdx
    d52b:	48 89 10             	mov    %rdx,(%rax)
    d52e:	48 8b 00             	mov    (%rax),%rax
    d531:	48 89 85 18 e8 ff ff 	mov    %rax,-0x17e8(%rbp)
    d538:	48 8b 85 60 e7 ff ff 	mov    -0x18a0(%rbp),%rax
    d53f:	0f b6 10             	movzbl (%rax),%edx
    d542:	8b 85 cc e6 ff ff    	mov    -0x1934(%rbp),%eax
    d548:	83 c8 4c             	or     $0x4c,%eax
    d54b:	89 c1                	mov    %eax,%ecx
    d54d:	48 8b 85 60 e7 ff ff 	mov    -0x18a0(%rbp),%rax
    d554:	21 ca                	and    %ecx,%edx
    d556:	88 10                	mov    %dl,(%rax)
    d558:	0f b6 00             	movzbl (%rax),%eax
    d55b:	30 85 98 e6 ff ff    	xor    %al,-0x1968(%rbp)
    d561:	be 07 00 00 00       	mov    $0x7,%esi
    d566:	bf 00 00 00 00       	mov    $0x0,%edi
    d56b:	e8 1d 87 ff ff       	callq  5c8d <safe_rshift_func_uint8_t_u_s>
    d570:	84 c0                	test   %al,%al
    d572:	74 12                	je     d586 <func_46+0x29a8>
    d574:	0f b7 85 ba e6 ff ff 	movzwl -0x1946(%rbp),%eax
    d57b:	48 89 c7             	mov    %rax,%rdi
    d57e:	e8 96 8a ff ff       	callq  6019 <safe_unary_minus_func_uint64_t_u>
    d583:	48 85 c0             	test   %rax,%rax
    d586:	48 8d 05 83 82 00 00 	lea    0x8283(%rip),%rax        # 15810 <g_228>
    d58d:	48 39 85 70 e8 ff ff 	cmp    %rax,-0x1790(%rbp)
    d594:	0f b6 85 98 e6 ff ff 	movzbl -0x1968(%rbp),%eax
    d59b:	48 39 85 78 e8 ff ff 	cmp    %rax,-0x1788(%rbp)
    d5a2:	0f 9e c0             	setle  %al
    d5a5:	0f b6 d0             	movzbl %al,%edx
    d5a8:	0f b6 85 9c e6 ff ff 	movzbl -0x1964(%rbp),%eax
    d5af:	0f b6 c8             	movzbl %al,%ecx
    d5b2:	48 8b 85 88 e7 ff ff 	mov    -0x1878(%rbp),%rax
    d5b9:	66 89 08             	mov    %cx,(%rax)
    d5bc:	48 8b 85 88 e7 ff ff 	mov    -0x1878(%rbp),%rax
    d5c3:	0f b7 00             	movzwl (%rax),%eax
    d5c6:	98                   	cwtl   
    d5c7:	89 d6                	mov    %edx,%esi
    d5c9:	89 c7                	mov    %eax,%edi
    d5cb:	e8 25 7e ff ff       	callq  53f5 <safe_mul_func_int16_t_s_s>
    d5d0:	98                   	cwtl   
    d5d1:	39 85 e4 e6 ff ff    	cmp    %eax,-0x191c(%rbp)
    d5d7:	0f 9f c0             	setg   %al
    d5da:	0f b6 c0             	movzbl %al,%eax
    d5dd:	8b 15 c5 88 00 00    	mov    0x88c5(%rip),%edx        # 15ea8 <g_903+0x8>
    d5e3:	89 d2                	mov    %edx,%edx
    d5e5:	48 89 c6             	mov    %rax,%rsi
    d5e8:	48 89 d7             	mov    %rdx,%rdi
    d5eb:	e8 51 82 ff ff       	callq  5841 <safe_add_func_int64_t_s_s>
    d5f0:	89 c2                	mov    %eax,%edx
    d5f2:	48 8b 85 b0 e7 ff ff 	mov    -0x1850(%rbp),%rax
    d5f9:	89 10                	mov    %edx,(%rax)
    d5fb:	e9 5b 01 00 00       	jmpq   d75b <func_46+0x2b7d>
    d600:	0f b6 9d 98 e6 ff ff 	movzbl -0x1968(%rbp),%ebx
    d607:	48 8b 05 3a 84 00 00 	mov    0x843a(%rip),%rax        # 15a48 <g_409+0x228>
    d60e:	48 c1 e0 1e          	shl    $0x1e,%rax
    d612:	48 c1 f8 23          	sar    $0x23,%rax
    d616:	44 0f b6 e0          	movzbl %al,%r12d
    d61a:	0f b6 85 98 e6 ff ff 	movzbl -0x1968(%rbp),%eax
    d621:	48 8b 15 a0 7a 00 00 	mov    0x7aa0(%rip),%rdx        # 150c8 <g_120+0x8>
    d628:	48 8b 15 a1 7a 00 00 	mov    0x7aa1(%rip),%rdx        # 150d0 <g_120+0x10>
    d62f:	89 c6                	mov    %eax,%esi
    d631:	bf 00 00 00 00       	mov    $0x0,%edi
    d636:	e8 0d 88 ff ff       	callq  5e48 <safe_rshift_func_uint16_t_u_s>
    d63b:	0f b6 95 9c e6 ff ff 	movzbl -0x1964(%rbp),%edx
    d642:	0f b6 d2             	movzbl %dl,%edx
    d645:	66 39 d0             	cmp    %dx,%ax
    d648:	0f 95 c0             	setne  %al
    d64b:	0f b6 c0             	movzbl %al,%eax
    d64e:	44 89 e6             	mov    %r12d,%esi
    d651:	89 c7                	mov    %eax,%edi
    d653:	e8 3b 85 ff ff       	callq  5b93 <safe_mul_func_uint8_t_u_u>
    d658:	44 0f b6 e0          	movzbl %al,%r12d
    d65c:	8b 05 5e 7a 00 00    	mov    0x7a5e(%rip),%eax        # 150c0 <g_120>
    d662:	c1 e8 0d             	shr    $0xd,%eax
    d665:	66 25 ff 3f          	and    $0x3fff,%ax
    d669:	44 0f b7 e8          	movzwl %ax,%r13d
    d66d:	48 8b 85 18 e8 ff ff 	mov    -0x17e8(%rbp),%rax
    d674:	8b 00                	mov    (%rax),%eax
    d676:	98                   	cwtl   
    d677:	be 07 00 00 00       	mov    $0x7,%esi
    d67c:	89 c7                	mov    %eax,%edi
    d67e:	e8 0f 7e ff ff       	callq  5492 <safe_lshift_func_int16_t_s_s>
    d683:	48 0f bf c0          	movswq %ax,%rax
    d687:	4c 89 ee             	mov    %r13,%rsi
    d68a:	48 89 c7             	mov    %rax,%rdi
    d68d:	e8 ee 89 ff ff       	callq  6080 <safe_mod_func_uint64_t_u_u>
    d692:	0f be c0             	movsbl %al,%eax
    d695:	44 89 e6             	mov    %r12d,%esi
    d698:	89 c7                	mov    %eax,%edi
    d69a:	e8 02 7c ff ff       	callq  52a1 <safe_lshift_func_int8_t_s_s>
    d69f:	0f be c0             	movsbl %al,%eax
    d6a2:	89 de                	mov    %ebx,%esi
    d6a4:	89 c7                	mov    %eax,%edi
    d6a6:	e8 6b 7d ff ff       	callq  5416 <safe_mod_func_int16_t_s_s>
    d6ab:	8b 05 4f ad 00 00    	mov    0xad4f(%rip),%eax        # 18400 <g_2+0x10>
    d6b1:	85 c0                	test   %eax,%eax
    d6b3:	74 07                	je     d6bc <func_46+0x2ade>
    d6b5:	b8 01 00 00 00       	mov    $0x1,%eax
    d6ba:	eb 05                	jmp    d6c1 <func_46+0x2ae3>
    d6bc:	b8 00 00 00 00       	mov    $0x0,%eax
    d6c1:	0f b7 c0             	movzwl %ax,%eax
    d6c4:	be 01 00 00 00       	mov    $0x1,%esi
    d6c9:	89 c7                	mov    %eax,%edi
    d6cb:	e8 6d 86 ff ff       	callq  5d3d <safe_mul_func_uint16_t_u_u>
    d6d0:	0f b7 d0             	movzwl %ax,%edx
    d6d3:	48 8b 85 a8 e7 ff ff 	mov    -0x1858(%rbp),%rax
    d6da:	89 10                	mov    %edx,(%rax)
    d6dc:	0f b6 95 98 e6 ff ff 	movzbl -0x1968(%rbp),%edx
    d6e3:	8b 05 3f 79 00 00    	mov    0x793f(%rip),%eax        # 15028 <g_58>
    d6e9:	0f be c0             	movsbl %al,%eax
    d6ec:	89 d6                	mov    %edx,%esi
    d6ee:	89 c7                	mov    %eax,%edi
    d6f0:	e8 f9 7b ff ff       	callq  52ee <safe_lshift_func_int8_t_s_u>
    d6f5:	0f be c0             	movsbl %al,%eax
    d6f8:	89 85 dc e6 ff ff    	mov    %eax,-0x1924(%rbp)
    d6fe:	0f b6 85 98 e6 ff ff 	movzbl -0x1968(%rbp),%eax
    d705:	c6 05 94 86 00 00 57 	movb   $0x57,0x8694(%rip)        # 15da0 <g_607>
    d70c:	89 c6                	mov    %eax,%esi
    d70e:	bf 57 00 00 00       	mov    $0x57,%edi
    d713:	e8 1d 7c ff ff       	callq  5335 <safe_rshift_func_int8_t_s_s>
    d718:	0f be d8             	movsbl %al,%ebx
    d71b:	0f b6 85 9c e6 ff ff 	movzbl -0x1964(%rbp),%eax
    d722:	0f b6 c0             	movzbl %al,%eax
    d725:	be 00 00 00 00       	mov    $0x0,%esi
    d72a:	89 c7                	mov    %eax,%edi
    d72c:	e8 5c 85 ff ff       	callq  5c8d <safe_rshift_func_uint8_t_u_s>
    d731:	0f b6 c0             	movzbl %al,%eax
    d734:	be 04 00 00 00       	mov    $0x4,%esi
    d739:	89 c7                	mov    %eax,%edi
    d73b:	e8 7e 86 ff ff       	callq  5dbe <safe_lshift_func_uint16_t_u_s>
    d740:	0f b7 c0             	movzwl %ax,%eax
    d743:	21 c3                	and    %eax,%ebx
    d745:	89 da                	mov    %ebx,%edx
    d747:	48 8b 85 18 e8 ff ff 	mov    -0x17e8(%rbp),%rax
    d74e:	8b 00                	mov    (%rax),%eax
    d750:	31 c2                	xor    %eax,%edx
    d752:	48 8b 85 18 e8 ff ff 	mov    -0x17e8(%rbp),%rax
    d759:	89 10                	mov    %edx,(%rax)
    d75b:	66 83 ad ae e6 ff ff 	subw   $0x1,-0x1952(%rbp)
    d762:	01 
    d763:	e9 fd 00 00 00       	jmpq   d865 <func_46+0x2c87>
    d768:	48 8d 05 51 80 00 00 	lea    0x8051(%rip),%rax        # 157c0 <g_188+0x640>
    d76f:	48 89 85 80 e7 ff ff 	mov    %rax,-0x1880(%rbp)
    d776:	c7 85 d4 e6 ff ff 00 	movl   $0x0,-0x192c(%rbp)
    d77d:	00 00 00 
    d780:	eb 1e                	jmp    d7a0 <func_46+0x2bc2>
    d782:	8b 85 d4 e6 ff ff    	mov    -0x192c(%rbp),%eax
    d788:	48 98                	cltq   
    d78a:	48 8d 95 80 e7 ff ff 	lea    -0x1880(%rbp),%rdx
    d791:	48 89 94 c5 c0 f7 ff 	mov    %rdx,-0x840(%rbp,%rax,8)
    d798:	ff 
    d799:	83 85 d4 e6 ff ff 01 	addl   $0x1,-0x192c(%rbp)
    d7a0:	83 bd d4 e6 ff ff 02 	cmpl   $0x2,-0x192c(%rbp)
    d7a7:	7e d9                	jle    d782 <func_46+0x2ba4>
    d7a9:	c6 05 f0 85 00 00 e8 	movb   $0xe8,0x85f0(%rip)        # 15da0 <g_607>
    d7b0:	90                   	nop
    d7b1:	0f b6 05 e8 85 00 00 	movzbl 0x85e8(%rip),%eax        # 15da0 <g_607>
    d7b8:	3c 0e                	cmp    $0xe,%al
    d7ba:	74 4f                	je     d80b <func_46+0x2c2d>
    d7bc:	c7 85 cc e6 ff ff 0a 	movl   $0xa,-0x1934(%rbp)
    d7c3:	00 00 00 
    d7c6:	eb 2b                	jmp    d7f3 <func_46+0x2c15>
    d7c8:	48 8b 05 99 a1 00 00 	mov    0xa199(%rip),%rax        # 17968 <g_992>
    d7cf:	48 8b 95 d0 f7 ff ff 	mov    -0x830(%rbp),%rdx
    d7d6:	48 89 10             	mov    %rdx,(%rax)
    d7d9:	8b 85 cc e6 ff ff    	mov    -0x1934(%rbp),%eax
    d7df:	98                   	cwtl   
    d7e0:	be 07 00 00 00       	mov    $0x7,%esi
    d7e5:	89 c7                	mov    %eax,%edi
    d7e7:	e8 e7 7b ff ff       	callq  53d3 <safe_sub_func_int16_t_s_s>
    d7ec:	98                   	cwtl   
    d7ed:	89 85 cc e6 ff ff    	mov    %eax,-0x1934(%rbp)
    d7f3:	83 bd cc e6 ff ff 08 	cmpl   $0x8,-0x1934(%rbp)
    d7fa:	7f cc                	jg     d7c8 <func_46+0x2bea>
    d7fc:	0f b6 85 9c e6 ff ff 	movzbl -0x1964(%rbp),%eax
    d803:	0f b6 c0             	movzbl %al,%eax
    d806:	e9 6d 06 00 00       	jmpq   de78 <func_46+0x329a>
    d80b:	48 8b 85 90 e7 ff ff 	mov    -0x1870(%rbp),%rax
    d812:	8b 10                	mov    (%rax),%edx
    d814:	0f b6 85 98 e6 ff ff 	movzbl -0x1968(%rbp),%eax
    d81b:	09 c2                	or     %eax,%edx
    d81d:	48 8b 85 90 e7 ff ff 	mov    -0x1870(%rbp),%rax
    d824:	89 10                	mov    %edx,(%rax)
    d826:	eb 3d                	jmp    d865 <func_46+0x2c87>
    d828:	90                   	nop
    d829:	0f b6 85 98 e6 ff ff 	movzbl -0x1968(%rbp),%eax
    d830:	be 0a 00 00 00       	mov    $0xa,%esi
    d835:	89 c7                	mov    %eax,%edi
    d837:	e8 ca 85 ff ff       	callq  5e06 <safe_lshift_func_uint16_t_u_u>
    d83c:	48 8b 95 a8 e7 ff ff 	mov    -0x1858(%rbp),%rdx
    d843:	8b 12                	mov    (%rdx),%edx
    d845:	0f b7 c0             	movzwl %ax,%eax
    d848:	09 c2                	or     %eax,%edx
    d84a:	48 8b 85 a8 e7 ff ff 	mov    -0x1858(%rbp),%rax
    d851:	89 10                	mov    %edx,(%rax)
    d853:	48 8b 85 a8 e7 ff ff 	mov    -0x1858(%rbp),%rax
    d85a:	8b 10                	mov    (%rax),%edx
    d85c:	48 8b 85 90 e7 ff ff 	mov    -0x1870(%rbp),%rax
    d863:	89 10                	mov    %edx,(%rax)
    d865:	8b 05 a9 86 00 00    	mov    0x86a9(%rip),%eax        # 15f14 <g_996>
    d86b:	83 c0 01             	add    $0x1,%eax
    d86e:	89 05 a0 86 00 00    	mov    %eax,0x86a0(%rip)        # 15f14 <g_996>
    d874:	66 c7 85 ae e6 ff ff 	movw   $0x14,-0x1952(%rbp)
    d87b:	14 00 
    d87d:	e9 c0 04 00 00       	jmpq   dd42 <func_46+0x3164>
    d882:	c6 85 a8 e6 ff ff 3e 	movb   $0x3e,-0x1958(%rbp)
    d889:	66 c7 85 ac e6 ff ff 	movw   $0xdbe5,-0x1954(%rbp)
    d890:	e5 db 
    d892:	c7 05 4c 78 00 00 e9 	movl   $0xffffffe9,0x784c(%rip)        # 150e8 <g_158>
    d899:	ff ff ff 
    d89c:	e9 81 04 00 00       	jmpq   dd22 <func_46+0x3144>
    d8a1:	48 8d 05 7a 85 00 00 	lea    0x857a(%rip),%rax        # 15e22 <g_646+0x22>
    d8a8:	48 89 85 d0 e8 ff ff 	mov    %rax,-0x1730(%rbp)
    d8af:	c7 85 fc e6 ff ff ff 	movl   $0xffffffff,-0x1904(%rbp)
    d8b6:	ff ff ff 
    d8b9:	c7 85 c0 e6 ff ff 00 	movl   $0x0,-0x1940(%rbp)
    d8c0:	00 00 00 
    d8c3:	eb 1b                	jmp    d8e0 <func_46+0x2d02>
    d8c5:	8b 85 c0 e6 ff ff    	mov    -0x1940(%rbp),%eax
    d8cb:	48 98                	cltq   
    d8cd:	48 c7 84 c5 00 ee ff 	movq   $0x0,-0x1200(%rbp,%rax,8)
    d8d4:	ff 00 00 00 00 
    d8d9:	83 85 c0 e6 ff ff 01 	addl   $0x1,-0x1940(%rbp)
    d8e0:	83 bd c0 e6 ff ff 03 	cmpl   $0x3,-0x1940(%rbp)
    d8e7:	7e dc                	jle    d8c5 <func_46+0x2ce7>
    d8e9:	0f b6 85 9c e6 ff ff 	movzbl -0x1964(%rbp),%eax
    d8f0:	84 c0                	test   %al,%al
    d8f2:	0f 84 47 02 00 00    	je     db3f <func_46+0x2f61>
    d8f8:	48 8d 05 18 7f 00 00 	lea    0x7f18(%rip),%rax        # 15817 <g_267+0x3>
    d8ff:	48 89 85 d8 e8 ff ff 	mov    %rax,-0x1728(%rbp)
    d906:	66 c7 85 be e6 ff ff 	movw   $0xe10e,-0x1942(%rbp)
    d90d:	0e e1 
    d90f:	48 c7 85 80 e7 ff ff 	movq   $0x0,-0x1880(%rbp)
    d916:	00 00 00 00 
    d91a:	48 8d 85 80 e7 ff ff 	lea    -0x1880(%rbp),%rax
    d921:	48 89 85 e0 e8 ff ff 	mov    %rax,-0x1720(%rbp)
    d928:	48 8d 85 aa e6 ff ff 	lea    -0x1956(%rbp),%rax
    d92f:	48 89 85 e8 e8 ff ff 	mov    %rax,-0x1718(%rbp)
    d936:	48 8b 85 00 e8 ff ff 	mov    -0x1800(%rbp),%rax
    d93d:	c6 00 ff             	movb   $0xff,(%rax)
    d940:	48 8b 85 d8 e8 ff ff 	mov    -0x1728(%rbp),%rax
    d947:	0f b6 00             	movzbl (%rax),%eax
    d94a:	8d 50 01             	lea    0x1(%rax),%edx
    d94d:	48 8b 85 d8 e8 ff ff 	mov    -0x1728(%rbp),%rax
    d954:	88 10                	mov    %dl,(%rax)
    d956:	0f b6 85 9c e6 ff ff 	movzbl -0x1964(%rbp),%eax
    d95d:	84 c0                	test   %al,%al
    d95f:	75 08                	jne    d969 <func_46+0x2d8b>
    d961:	b8 b0 ff ff ff       	mov    $0xffffffb0,%eax
    d966:	66 85 c0             	test   %ax,%ax
    d969:	66 83 bd be e6 ff ff 	cmpw   $0x0,-0x1942(%rbp)
    d970:	00 
    d971:	74 3d                	je     d9b0 <func_46+0x2dd2>
    d973:	0f b6 85 9c e6 ff ff 	movzbl -0x1964(%rbp),%eax
    d97a:	3c 01                	cmp    $0x1,%al
    d97c:	8b 05 96 aa 00 00    	mov    0xaa96(%rip),%eax        # 18418 <g_534>
    d982:	48 8b 85 e0 e8 ff ff 	mov    -0x1720(%rbp),%rax
    d989:	48 8d 15 82 7e 00 00 	lea    0x7e82(%rip),%rdx        # 15812 <g_236>
    d990:	48 89 10             	mov    %rdx,(%rax)
    d993:	48 8b 85 e0 e8 ff ff 	mov    -0x1720(%rbp),%rax
    d99a:	48 8b 00             	mov    (%rax),%rax
    d99d:	48 8d 15 6e 7e 00 00 	lea    0x7e6e(%rip),%rdx        # 15812 <g_236>
    d9a4:	48 39 d0             	cmp    %rdx,%rax
    d9a7:	75 07                	jne    d9b0 <func_46+0x2dd2>
    d9a9:	b8 01 00 00 00       	mov    $0x1,%eax
    d9ae:	eb 05                	jmp    d9b5 <func_46+0x2dd7>
    d9b0:	b8 00 00 00 00       	mov    $0x0,%eax
    d9b5:	89 c2                	mov    %eax,%edx
    d9b7:	48 8b 85 e8 e8 ff ff 	mov    -0x1718(%rbp),%rax
    d9be:	66 89 10             	mov    %dx,(%rax)
    d9c1:	48 8b 85 e8 e8 ff ff 	mov    -0x1718(%rbp),%rax
    d9c8:	0f b7 00             	movzwl (%rax),%eax
    d9cb:	0f b7 c0             	movzwl %ax,%eax
    d9ce:	be 0e 00 00 00       	mov    $0xe,%esi
    d9d3:	89 c7                	mov    %eax,%edi
    d9d5:	e8 6e 84 ff ff       	callq  5e48 <safe_rshift_func_uint16_t_u_s>
    d9da:	0f b7 d0             	movzwl %ax,%edx
    d9dd:	48 8b 85 c8 e7 ff ff 	mov    -0x1838(%rbp),%rax
    d9e4:	89 10                	mov    %edx,(%rax)
    d9e6:	0f b7 05 c3 83 00 00 	movzwl 0x83c3(%rip),%eax        # 15db0 <g_644>
    d9ed:	c1 e0 03             	shl    $0x3,%eax
    d9f0:	66 c1 f8 03          	sar    $0x3,%ax
    d9f4:	0f b7 c0             	movzwl %ax,%eax
    d9f7:	be 02 00 00 00       	mov    $0x2,%esi
    d9fc:	89 c7                	mov    %eax,%edi
    d9fe:	e8 1c 83 ff ff       	callq  5d1f <safe_sub_func_uint16_t_u_u>
    da03:	0f b7 c0             	movzwl %ax,%eax
    da06:	89 c6                	mov    %eax,%esi
    da08:	bf ff ff 00 00       	mov    $0xffff,%edi
    da0d:	e8 ac 83 ff ff       	callq  5dbe <safe_lshift_func_uint16_t_u_s>
    da12:	48 8b 85 d8 e7 ff ff 	mov    -0x1828(%rbp),%rax
    da19:	c7 00 46 8f 3d 62    	movl   $0x623d8f46,(%rax)
    da1f:	8b 05 ab 83 00 00    	mov    0x83ab(%rip),%eax        # 15dd0 <g_645>
    da25:	c1 e8 0d             	shr    $0xd,%eax
    da28:	66 25 ff 3f          	and    $0x3fff,%ax
    da2c:	0f b7 d8             	movzwl %ax,%ebx
    da2f:	44 0f bf a5 be e6 ff 	movswl -0x1942(%rbp),%r12d
    da36:	ff 
    da37:	8b 85 fc e6 ff ff    	mov    -0x1904(%rbp),%eax
    da3d:	44 0f b6 e8          	movzbl %al,%r13d
    da41:	0f b6 95 98 e6 ff ff 	movzbl -0x1968(%rbp),%edx
    da48:	48 83 bd d0 e8 ff ff 	cmpq   $0x0,-0x1730(%rbp)
    da4f:	00 
    da50:	0f 94 c0             	sete   %al
    da53:	0f b6 c0             	movzbl %al,%eax
    da56:	48 89 d6             	mov    %rdx,%rsi
    da59:	48 89 c7             	mov    %rax,%rdi
    da5c:	e8 53 7f ff ff       	callq  59b4 <safe_mod_func_int64_t_s_s>
    da61:	0f b6 c0             	movzbl %al,%eax
    da64:	44 89 ee             	mov    %r13d,%esi
    da67:	89 c7                	mov    %eax,%edi
    da69:	e8 25 81 ff ff       	callq  5b93 <safe_mul_func_uint8_t_u_u>
    da6e:	0f b7 05 4f 76 00 00 	movzwl 0x764f(%rip),%eax        # 150c4 <g_120+0x4>
    da75:	0f b6 85 98 e6 ff ff 	movzbl -0x1968(%rbp),%eax
    da7c:	be 0c 00 00 00       	mov    $0xc,%esi
    da81:	89 c7                	mov    %eax,%edi
    da83:	e8 0a 7a ff ff       	callq  5492 <safe_lshift_func_int16_t_s_s>
    da88:	98                   	cwtl   
    da89:	be 05 00 00 00       	mov    $0x5,%esi
    da8e:	89 c7                	mov    %eax,%edi
    da90:	e8 1e 79 ff ff       	callq  53b3 <safe_add_func_int16_t_s_s>
    da95:	66 3d 9f 00          	cmp    $0x9f,%ax
    da99:	0f 94 c0             	sete   %al
    da9c:	44 0f b6 e8          	movzbl %al,%r13d
    daa0:	0f b6 85 9c e6 ff ff 	movzbl -0x1964(%rbp),%eax
    daa7:	0f b6 c0             	movzbl %al,%eax
    daaa:	48 89 c6             	mov    %rax,%rsi
    daad:	bf 03 00 00 00       	mov    $0x3,%edi
    dab2:	e8 94 85 ff ff       	callq  604b <safe_sub_func_uint64_t_u_u>
    dab7:	48 8d 05 e2 82 00 00 	lea    0x82e2(%rip),%rax        # 15da0 <g_607>
    dabe:	48 39 85 e8 e7 ff ff 	cmp    %rax,-0x1818(%rbp)
    dac5:	0f 95 c0             	setne  %al
    dac8:	0f b6 c0             	movzbl %al,%eax
    dacb:	c1 e8 1f             	shr    $0x1f,%eax
    dace:	0f b6 c0             	movzbl %al,%eax
    dad1:	44 89 ee             	mov    %r13d,%esi
    dad4:	89 c7                	mov    %eax,%edi
    dad6:	e8 37 77 ff ff       	callq  5212 <safe_mul_func_int8_t_s_s>
    dadb:	44 89 e6             	mov    %r12d,%esi
    dade:	bf 00 00 00 00       	mov    $0x0,%edi
    dae3:	e8 2e 79 ff ff       	callq  5416 <safe_mod_func_int16_t_s_s>
    dae8:	98                   	cwtl   
    dae9:	89 de                	mov    %ebx,%esi
    daeb:	89 c7                	mov    %eax,%edi
    daed:	e8 c1 78 ff ff       	callq  53b3 <safe_add_func_int16_t_s_s>
    daf2:	48 8b 85 e8 e8 ff ff 	mov    -0x1718(%rbp),%rax
    daf9:	66 c7 00 01 00       	movw   $0x1,(%rax)
    dafe:	48 8b 85 e8 e8 ff ff 	mov    -0x1718(%rbp),%rax
    db05:	0f b7 00             	movzwl (%rax),%eax
    db08:	0f b7 c0             	movzwl %ax,%eax
    db0b:	89 c6                	mov    %eax,%esi
    db0d:	bf e8 b4 00 00       	mov    $0xb4e8,%edi
    db12:	e8 ef 82 ff ff       	callq  5e06 <safe_lshift_func_uint16_t_u_u>
    db17:	0f b7 d0             	movzwl %ax,%edx
    db1a:	48 8b 85 c0 e7 ff ff 	mov    -0x1840(%rbp),%rax
    db21:	89 10                	mov    %edx,(%rax)
    db23:	80 bd 98 e6 ff ff 00 	cmpb   $0x0,-0x1968(%rbp)
    db2a:	0f 85 01 02 00 00    	jne    dd31 <func_46+0x3153>
    db30:	8b 05 5e 82 00 00    	mov    0x825e(%rip),%eax        # 15d94 <g_504>
    db36:	85 c0                	test   %eax,%eax
    db38:	74 16                	je     db50 <func_46+0x2f72>
    db3a:	e9 ea fc ff ff       	jmpq   d829 <func_46+0x2c4b>
    db3f:	0f b7 85 ac e6 ff ff 	movzwl -0x1954(%rbp),%eax
    db46:	83 e8 01             	sub    $0x1,%eax
    db49:	66 89 85 ac e6 ff ff 	mov    %ax,-0x1954(%rbp)
    db50:	48 c7 05 85 75 00 00 	movq   $0x1,0x7585(%rip)        # 150e0 <g_125>
    db57:	01 00 00 00 
    db5b:	e9 a2 01 00 00       	jmpq   dd02 <func_46+0x3124>
    db60:	48 8d 85 50 e7 ff ff 	lea    -0x18b0(%rbp),%rax
    db67:	48 89 85 f0 e8 ff ff 	mov    %rax,-0x1710(%rbp)
    db6e:	c7 85 00 e7 ff ff 9b 	movl   $0x31e09d9b,-0x1900(%rbp)
    db75:	9d e0 31 
    db78:	c6 85 a4 e6 ff ff 04 	movb   $0x4,-0x195c(%rbp)
    db7f:	80 bd a4 e6 ff ff 00 	cmpb   $0x0,-0x195c(%rbp)
    db86:	78 31                	js     dbb9 <func_46+0x2fdb>
    db88:	48 8b 05 51 75 00 00 	mov    0x7551(%rip),%rax        # 150e0 <g_125>
    db8f:	48 8b 15 4a 75 00 00 	mov    0x754a(%rip),%rdx        # 150e0 <g_125>
    db96:	48 83 c2 03          	add    $0x3,%rdx
    db9a:	48 c1 e0 03          	shl    $0x3,%rax
    db9e:	48 01 d0             	add    %rdx,%rax
    dba1:	48 8d 14 00          	lea    (%rax,%rax,1),%rdx
    dba5:	48 8d 05 74 75 00 00 	lea    0x7574(%rip),%rax        # 15120 <g_186>
    dbac:	0f b7 04 02          	movzwl (%rdx,%rax,1),%eax
    dbb0:	48 0f bf c0          	movswq %ax,%rax
    dbb4:	e9 bf 02 00 00       	jmpq   de78 <func_46+0x329a>
    dbb9:	48 8b 05 58 97 00 00 	mov    0x9758(%rip),%rax        # 17318 <g_91>
    dbc0:	48 8b 00             	mov    (%rax),%rax
    dbc3:	48 8b 95 c0 e7 ff ff 	mov    -0x1840(%rbp),%rdx
    dbca:	48 89 10             	mov    %rdx,(%rax)
    dbcd:	66 c7 05 3c 7c 00 00 	movw   $0x0,0x7c3c(%rip)        # 15812 <g_236>
    dbd4:	00 00 
    dbd6:	e9 04 01 00 00       	jmpq   dcdf <func_46+0x3101>
    dbdb:	48 8d 05 8e 9d 00 00 	lea    0x9d8e(%rip),%rax        # 17970 <g_1049>
    dbe2:	48 89 85 c0 f7 ff ff 	mov    %rax,-0x840(%rbp)
    dbe9:	48 8d 05 80 9d 00 00 	lea    0x9d80(%rip),%rax        # 17970 <g_1049>
    dbf0:	48 89 85 c8 f7 ff ff 	mov    %rax,-0x838(%rbp)
    dbf7:	48 8d 05 72 9d 00 00 	lea    0x9d72(%rip),%rax        # 17970 <g_1049>
    dbfe:	48 89 85 d0 f7 ff ff 	mov    %rax,-0x830(%rbp)
    dc05:	48 8d 05 64 9d 00 00 	lea    0x9d64(%rip),%rax        # 17970 <g_1049>
    dc0c:	48 89 85 d8 f7 ff ff 	mov    %rax,-0x828(%rbp)
    dc13:	48 8d 05 56 9d 00 00 	lea    0x9d56(%rip),%rax        # 17970 <g_1049>
    dc1a:	48 89 85 e0 f7 ff ff 	mov    %rax,-0x820(%rbp)
    dc21:	48 8d 05 48 9d 00 00 	lea    0x9d48(%rip),%rax        # 17970 <g_1049>
    dc28:	48 89 85 e8 f7 ff ff 	mov    %rax,-0x818(%rbp)
    dc2f:	48 8d 05 3a 9d 00 00 	lea    0x9d3a(%rip),%rax        # 17970 <g_1049>
    dc36:	48 89 85 f0 f7 ff ff 	mov    %rax,-0x810(%rbp)
    dc3d:	48 8d 05 2c 9d 00 00 	lea    0x9d2c(%rip),%rax        # 17970 <g_1049>
    dc44:	48 89 85 f8 f7 ff ff 	mov    %rax,-0x808(%rbp)
    dc4b:	48 8d 05 1e 9d 00 00 	lea    0x9d1e(%rip),%rax        # 17970 <g_1049>
    dc52:	48 89 85 00 f8 ff ff 	mov    %rax,-0x800(%rbp)
    dc59:	48 8b 85 f0 e8 ff ff 	mov    -0x1710(%rbp),%rax
    dc60:	48 89 05 19 9d 00 00 	mov    %rax,0x9d19(%rip)        # 17980 <g_1047>
    dc67:	80 bd a8 e6 ff ff 00 	cmpb   $0x0,-0x1958(%rbp)
    dc6e:	75 09                	jne    dc79 <func_46+0x309b>
    dc70:	83 bd 00 e7 ff ff 00 	cmpl   $0x0,-0x1900(%rbp)
    dc77:	74 07                	je     dc80 <func_46+0x30a2>
    dc79:	b9 01 00 00 00       	mov    $0x1,%ecx
    dc7e:	eb 05                	jmp    dc85 <func_46+0x30a7>
    dc80:	b9 00 00 00 00       	mov    $0x0,%ecx
    dc85:	48 8b 05 f4 9c 00 00 	mov    0x9cf4(%rip),%rax        # 17980 <g_1047>
    dc8c:	48 8b 95 e8 f7 ff ff 	mov    -0x818(%rbp),%rdx
    dc93:	48 89 10             	mov    %rdx,(%rax)
    dc96:	48 8b 10             	mov    (%rax),%rdx
    dc99:	48 8b 85 18 ee ff ff 	mov    -0x11e8(%rbp),%rax
    dca0:	48 39 c2             	cmp    %rax,%rdx
    dca3:	0f 94 c0             	sete   %al
    dca6:	0f b6 c0             	movzbl %al,%eax
    dca9:	39 c1                	cmp    %eax,%ecx
    dcab:	0f 9f c2             	setg   %dl
    dcae:	48 8b 85 28 e7 ff ff 	mov    -0x18d8(%rbp),%rax
    dcb5:	0f b6 d2             	movzbl %dl,%edx
    dcb8:	48 89 10             	mov    %rdx,(%rax)
    dcbb:	48 8b 05 56 96 00 00 	mov    0x9656(%rip),%rax        # 17318 <g_91>
    dcc2:	48 8b 00             	mov    (%rax),%rax
    dcc5:	48 8b 00             	mov    (%rax),%rax
    dcc8:	c7 00 de 52 d6 a7    	movl   $0xa7d652de,(%rax)
    dcce:	0f b7 05 3d 7b 00 00 	movzwl 0x7b3d(%rip),%eax        # 15812 <g_236>
    dcd5:	83 c0 01             	add    $0x1,%eax
    dcd8:	66 89 05 33 7b 00 00 	mov    %ax,0x7b33(%rip)        # 15812 <g_236>
    dcdf:	0f b7 05 2c 7b 00 00 	movzwl 0x7b2c(%rip),%eax        # 15812 <g_236>
    dce6:	66 83 f8 04          	cmp    $0x4,%ax
    dcea:	0f 86 eb fe ff ff    	jbe    dbdb <func_46+0x2ffd>
    dcf0:	48 8b 05 e9 73 00 00 	mov    0x73e9(%rip),%rax        # 150e0 <g_125>
    dcf7:	48 83 c0 01          	add    $0x1,%rax
    dcfb:	48 89 05 de 73 00 00 	mov    %rax,0x73de(%rip)        # 150e0 <g_125>
    dd02:	48 8b 05 d7 73 00 00 	mov    0x73d7(%rip),%rax        # 150e0 <g_125>
    dd09:	48 83 f8 04          	cmp    $0x4,%rax
    dd0d:	0f 8e 4d fe ff ff    	jle    db60 <func_46+0x2f82>
    dd13:	8b 05 cf 73 00 00    	mov    0x73cf(%rip),%eax        # 150e8 <g_158>
    dd19:	83 c0 01             	add    $0x1,%eax
    dd1c:	89 05 c6 73 00 00    	mov    %eax,0x73c6(%rip)        # 150e8 <g_158>
    dd22:	8b 05 c0 73 00 00    	mov    0x73c0(%rip),%eax        # 150e8 <g_158>
    dd28:	83 f8 32             	cmp    $0x32,%eax
    dd2b:	0f 86 70 fb ff ff    	jbe    d8a1 <func_46+0x2cc3>
    dd31:	0f b7 85 ae e6 ff ff 	movzwl -0x1952(%rbp),%eax
    dd38:	83 c0 01             	add    $0x1,%eax
    dd3b:	66 89 85 ae e6 ff ff 	mov    %ax,-0x1952(%rbp)
    dd42:	66 83 bd ae e6 ff ff 	cmpw   $0x1d,-0x1952(%rbp)
    dd49:	1d 
    dd4a:	0f 85 32 fb ff ff    	jne    d882 <func_46+0x2ca4>
    dd50:	0f b6 9d 98 e6 ff ff 	movzbl -0x1968(%rbp),%ebx
    dd57:	48 8b 85 28 e8 ff ff 	mov    -0x17d8(%rbp),%rax
    dd5e:	44 0f b6 e0          	movzbl %al,%r12d
    dd62:	0f b6 85 9c e6 ff ff 	movzbl -0x1964(%rbp),%eax
    dd69:	44 0f b6 e8          	movzbl %al,%r13d
    dd6d:	0f b6 85 9c e6 ff ff 	movzbl -0x1964(%rbp),%eax
    dd74:	44 0f b6 f0          	movzbl %al,%r14d
    dd78:	0f b6 85 9c e6 ff ff 	movzbl -0x1964(%rbp),%eax
    dd7f:	44 0f b6 f8          	movzbl %al,%r15d
    dd83:	bf 00 00 00 00       	mov    $0x0,%edi
    dd88:	e8 10 76 ff ff       	callq  539d <safe_unary_minus_func_int16_t_s>
    dd8d:	98                   	cwtl   
    dd8e:	44 89 fe             	mov    %r15d,%esi
    dd91:	89 c7                	mov    %eax,%edi
    dd93:	e8 38 81 ff ff       	callq  5ed0 <safe_sub_func_uint32_t_u_u>
    dd98:	48 8b 95 b0 e7 ff ff 	mov    -0x1850(%rbp),%rdx
    dd9f:	8b 12                	mov    (%rdx),%edx
    dda1:	39 d0                	cmp    %edx,%eax
    dda3:	0f 96 c0             	setbe  %al
    dda6:	0f b6 d0             	movzbl %al,%edx
    dda9:	0f b6 85 9c e6 ff ff 	movzbl -0x1964(%rbp),%eax
    ddb0:	0f b6 c0             	movzbl %al,%eax
    ddb3:	39 c2                	cmp    %eax,%edx
    ddb5:	0f 95 c0             	setne  %al
    ddb8:	0f b6 c0             	movzbl %al,%eax
    ddbb:	44 89 f6             	mov    %r14d,%esi
    ddbe:	89 c7                	mov    %eax,%edi
    ddc0:	e8 dc 74 ff ff       	callq  52a1 <safe_lshift_func_int8_t_s_s>
    ddc5:	48 0f be c0          	movsbq %al,%rax
    ddc9:	48 be 46 0d 15 61 54 	movabs $0xbdb2e35461150d46,%rsi
    ddd0:	e3 b2 bd 
    ddd3:	48 89 c7             	mov    %rax,%rdi
    ddd6:	e8 d9 7b ff ff       	callq  59b4 <safe_mod_func_int64_t_s_s>
    dddb:	0f b7 c0             	movzwl %ax,%eax
    ddde:	44 89 ee             	mov    %r13d,%esi
    dde1:	89 c7                	mov    %eax,%edi
    dde3:	e8 55 7f ff ff       	callq  5d3d <safe_mul_func_uint16_t_u_u>
    dde8:	0f b6 c0             	movzbl %al,%eax
    ddeb:	44 89 e6             	mov    %r12d,%esi
    ddee:	89 c7                	mov    %eax,%edi
    ddf0:	e8 65 7d ff ff       	callq  5b5a <safe_add_func_uint8_t_u_u>
    ddf5:	b9 ff 00 00 00       	mov    $0xff,%ecx
    ddfa:	48 8b 85 88 e7 ff ff 	mov    -0x1878(%rbp),%rax
    de01:	0f b7 00             	movzwl (%rax),%eax
    de04:	89 c2                	mov    %eax,%edx
    de06:	89 c8                	mov    %ecx,%eax
    de08:	09 d0                	or     %edx,%eax
    de0a:	89 c2                	mov    %eax,%edx
    de0c:	48 8b 85 88 e7 ff ff 	mov    -0x1878(%rbp),%rax
    de13:	66 89 10             	mov    %dx,(%rax)
    de16:	48 8b 85 88 e7 ff ff 	mov    -0x1878(%rbp),%rax
    de1d:	0f b7 00             	movzwl (%rax),%eax
    de20:	98                   	cwtl   
    de21:	89 de                	mov    %ebx,%esi
    de23:	89 c7                	mov    %eax,%edi
    de25:	e8 68 76 ff ff       	callq  5492 <safe_lshift_func_int16_t_s_s>
    de2a:	be 00 00 00 00       	mov    $0x0,%esi
    de2f:	bf 00 00 00 00       	mov    $0x0,%edi
    de34:	e8 cc 77 ff ff       	callq  5605 <safe_sub_func_int32_t_s_s>
    de39:	89 c2                	mov    %eax,%edx
    de3b:	48 8b 85 00 e8 ff ff 	mov    -0x1800(%rbp),%rax
    de42:	88 10                	mov    %dl,(%rax)
    de44:	ba 01 00 00 00       	mov    $0x1,%edx
    de49:	48 8b 85 90 e7 ff ff 	mov    -0x1870(%rbp),%rax
    de50:	8b 00                	mov    (%rax),%eax
    de52:	31 c2                	xor    %eax,%edx
    de54:	48 8b 85 90 e7 ff ff 	mov    -0x1870(%rbp),%rax
    de5b:	89 10                	mov    %edx,(%rax)
    de5d:	0f b7 85 b2 e6 ff ff 	movzwl -0x194e(%rbp),%eax
    de64:	83 c0 01             	add    $0x1,%eax
    de67:	66 89 85 b2 e6 ff ff 	mov    %ax,-0x194e(%rbp)
    de6e:	0f b6 85 9c e6 ff ff 	movzbl -0x1964(%rbp),%eax
    de75:	0f b6 c0             	movzbl %al,%eax
    de78:	48 8b 5d c8          	mov    -0x38(%rbp),%rbx
    de7c:	64 48 33 1c 25 28 00 	xor    %fs:0x28,%rbx
    de83:	00 00 
    de85:	74 05                	je     de8c <func_46+0x32ae>
    de87:	e8 e4 71 ff ff       	callq  5070 <__stack_chk_fail@plt>
    de8c:	48 81 c4 58 19 00 00 	add    $0x1958,%rsp
    de93:	5b                   	pop    %rbx
    de94:	41 5c                	pop    %r12
    de96:	41 5d                	pop    %r13
    de98:	41 5e                	pop    %r14
    de9a:	41 5f                	pop    %r15
    de9c:	5d                   	pop    %rbp
    de9d:	c3                   	retq   

000000000000de9e <func_49>:
    de9e:	f3 0f 1e fa          	endbr64 
    dea2:	55                   	push   %rbp
    dea3:	48 89 e5             	mov    %rsp,%rbp
    dea6:	48 81 ec d0 04 00 00 	sub    $0x4d0,%rsp
    dead:	48 89 bd 38 fb ff ff 	mov    %rdi,-0x4c8(%rbp)
    deb4:	89 b5 34 fb ff ff    	mov    %esi,-0x4cc(%rbp)
    deba:	89 95 30 fb ff ff    	mov    %edx,-0x4d0(%rbp)
    dec0:	64 48 8b 04 25 28 00 	mov    %fs:0x28,%rax
    dec7:	00 00 
    dec9:	48 89 45 f8          	mov    %rax,-0x8(%rbp)
    decd:	31 c0                	xor    %eax,%eax
    decf:	48 8d 05 22 a5 00 00 	lea    0xa522(%rip),%rax        # 183f8 <g_2+0x8>
    ded6:	48 89 85 78 fb ff ff 	mov    %rax,-0x488(%rbp)
    dedd:	c7 85 5c fb ff ff 00 	movl   $0x0,-0x4a4(%rbp)
    dee4:	00 00 00 
    dee7:	66 c7 85 50 fb ff ff 	movw   $0x1,-0x4b0(%rbp)
    deee:	01 00 
    def0:	48 8d 05 69 71 00 00 	lea    0x7169(%rip),%rax        # 15060 <g_83+0x20>
    def7:	48 89 85 80 fb ff ff 	mov    %rax,-0x480(%rbp)
    defe:	48 8d 05 a7 71 00 00 	lea    0x71a7(%rip),%rax        # 150ac <g_83+0x6c>
    df05:	48 89 85 88 fb ff ff 	mov    %rax,-0x478(%rbp)
    df0c:	c7 85 54 fb ff ff 50 	movl   $0x884c0950,-0x4ac(%rbp)
    df13:	09 4c 88 
    df16:	48 c7 85 00 fe ff ff 	movq   $0x0,-0x200(%rbp)
    df1d:	00 00 00 00 
    df21:	48 8d 05 c8 a4 00 00 	lea    0xa4c8(%rip),%rax        # 183f0 <g_2>
    df28:	48 89 85 08 fe ff ff 	mov    %rax,-0x1f8(%rbp)
    df2f:	48 c7 85 10 fe ff ff 	movq   $0x0,-0x1f0(%rbp)
    df36:	00 00 00 00 
    df3a:	48 8d 05 ef 70 00 00 	lea    0x70ef(%rip),%rax        # 15030 <g_78>
    df41:	48 89 85 18 fe ff ff 	mov    %rax,-0x1e8(%rbp)
    df48:	48 8d 85 54 fb ff ff 	lea    -0x4ac(%rbp),%rax
    df4f:	48 89 85 20 fe ff ff 	mov    %rax,-0x1e0(%rbp)
    df56:	48 8d 05 1f 71 00 00 	lea    0x711f(%rip),%rax        # 1507c <g_83+0x3c>
    df5d:	48 89 85 28 fe ff ff 	mov    %rax,-0x1d8(%rbp)
    df64:	48 c7 85 30 fe ff ff 	movq   $0x0,-0x1d0(%rbp)
    df6b:	00 00 00 00 
    df6f:	48 c7 85 38 fe ff ff 	movq   $0x0,-0x1c8(%rbp)
    df76:	00 00 00 00 
    df7a:	48 8d 05 fb 70 00 00 	lea    0x70fb(%rip),%rax        # 1507c <g_83+0x3c>
    df81:	48 89 85 40 fe ff ff 	mov    %rax,-0x1c0(%rbp)
    df88:	48 8d 85 54 fb ff ff 	lea    -0x4ac(%rbp),%rax
    df8f:	48 89 85 48 fe ff ff 	mov    %rax,-0x1b8(%rbp)
    df96:	48 8d 05 93 70 00 00 	lea    0x7093(%rip),%rax        # 15030 <g_78>
    df9d:	48 89 85 50 fe ff ff 	mov    %rax,-0x1b0(%rbp)
    dfa4:	48 c7 85 58 fe ff ff 	movq   $0x0,-0x1a8(%rbp)
    dfab:	00 00 00 00 
    dfaf:	48 8d 05 3a a4 00 00 	lea    0xa43a(%rip),%rax        # 183f0 <g_2>
    dfb6:	48 89 85 60 fe ff ff 	mov    %rax,-0x1a0(%rbp)
    dfbd:	48 c7 85 68 fe ff ff 	movq   $0x0,-0x198(%rbp)
    dfc4:	00 00 00 00 
    dfc8:	48 8d 05 21 a4 00 00 	lea    0xa421(%rip),%rax        # 183f0 <g_2>
    dfcf:	48 89 85 70 fe ff ff 	mov    %rax,-0x190(%rbp)
    dfd6:	48 8d 05 13 a4 00 00 	lea    0xa413(%rip),%rax        # 183f0 <g_2>
    dfdd:	48 89 85 78 fe ff ff 	mov    %rax,-0x188(%rbp)
    dfe4:	48 8d 85 54 fb ff ff 	lea    -0x4ac(%rbp),%rax
    dfeb:	48 89 85 80 fe ff ff 	mov    %rax,-0x180(%rbp)
    dff2:	48 c7 85 88 fe ff ff 	movq   $0x0,-0x178(%rbp)
    dff9:	00 00 00 00 
    dffd:	48 8d 85 54 fb ff ff 	lea    -0x4ac(%rbp),%rax
    e004:	48 89 85 90 fe ff ff 	mov    %rax,-0x170(%rbp)
    e00b:	48 8d 05 de a3 00 00 	lea    0xa3de(%rip),%rax        # 183f0 <g_2>
    e012:	48 89 85 98 fe ff ff 	mov    %rax,-0x168(%rbp)
    e019:	48 8d 05 d0 a3 00 00 	lea    0xa3d0(%rip),%rax        # 183f0 <g_2>
    e020:	48 89 85 a0 fe ff ff 	mov    %rax,-0x160(%rbp)
    e027:	48 c7 85 a8 fe ff ff 	movq   $0x0,-0x158(%rbp)
    e02e:	00 00 00 00 
    e032:	48 8d 05 b7 a3 00 00 	lea    0xa3b7(%rip),%rax        # 183f0 <g_2>
    e039:	48 89 85 b0 fe ff ff 	mov    %rax,-0x150(%rbp)
    e040:	48 c7 85 b8 fe ff ff 	movq   $0x0,-0x148(%rbp)
    e047:	00 00 00 00 
    e04b:	48 8d 05 de 6f 00 00 	lea    0x6fde(%rip),%rax        # 15030 <g_78>
    e052:	48 89 85 c0 fe ff ff 	mov    %rax,-0x140(%rbp)
    e059:	48 8d 85 54 fb ff ff 	lea    -0x4ac(%rbp),%rax
    e060:	48 89 85 c8 fe ff ff 	mov    %rax,-0x138(%rbp)
    e067:	48 8d 05 0e 70 00 00 	lea    0x700e(%rip),%rax        # 1507c <g_83+0x3c>
    e06e:	48 89 85 d0 fe ff ff 	mov    %rax,-0x130(%rbp)
    e075:	48 c7 85 d8 fe ff ff 	movq   $0x0,-0x128(%rbp)
    e07c:	00 00 00 00 
    e080:	48 c7 85 e0 fe ff ff 	movq   $0x0,-0x120(%rbp)
    e087:	00 00 00 00 
    e08b:	48 8d 05 ea 6f 00 00 	lea    0x6fea(%rip),%rax        # 1507c <g_83+0x3c>
    e092:	48 89 85 e8 fe ff ff 	mov    %rax,-0x118(%rbp)
    e099:	48 8d 85 54 fb ff ff 	lea    -0x4ac(%rbp),%rax
    e0a0:	48 89 85 f0 fe ff ff 	mov    %rax,-0x110(%rbp)
    e0a7:	48 8d 05 82 6f 00 00 	lea    0x6f82(%rip),%rax        # 15030 <g_78>
    e0ae:	48 89 85 f8 fe ff ff 	mov    %rax,-0x108(%rbp)
    e0b5:	48 c7 85 00 ff ff ff 	movq   $0x0,-0x100(%rbp)
    e0bc:	00 00 00 00 
    e0c0:	48 8d 05 29 a3 00 00 	lea    0xa329(%rip),%rax        # 183f0 <g_2>
    e0c7:	48 89 85 08 ff ff ff 	mov    %rax,-0xf8(%rbp)
    e0ce:	48 c7 85 10 ff ff ff 	movq   $0x0,-0xf0(%rbp)
    e0d5:	00 00 00 00 
    e0d9:	48 8d 05 10 a3 00 00 	lea    0xa310(%rip),%rax        # 183f0 <g_2>
    e0e0:	48 89 85 18 ff ff ff 	mov    %rax,-0xe8(%rbp)
    e0e7:	48 8d 05 02 a3 00 00 	lea    0xa302(%rip),%rax        # 183f0 <g_2>
    e0ee:	48 89 85 20 ff ff ff 	mov    %rax,-0xe0(%rbp)
    e0f5:	48 8d 85 54 fb ff ff 	lea    -0x4ac(%rbp),%rax
    e0fc:	48 89 85 28 ff ff ff 	mov    %rax,-0xd8(%rbp)
    e103:	48 c7 85 30 ff ff ff 	movq   $0x0,-0xd0(%rbp)
    e10a:	00 00 00 00 
    e10e:	48 8d 85 54 fb ff ff 	lea    -0x4ac(%rbp),%rax
    e115:	48 89 85 38 ff ff ff 	mov    %rax,-0xc8(%rbp)
    e11c:	48 8d 05 cd a2 00 00 	lea    0xa2cd(%rip),%rax        # 183f0 <g_2>
    e123:	48 89 85 40 ff ff ff 	mov    %rax,-0xc0(%rbp)
    e12a:	48 8d 05 bf a2 00 00 	lea    0xa2bf(%rip),%rax        # 183f0 <g_2>
    e131:	48 89 85 48 ff ff ff 	mov    %rax,-0xb8(%rbp)
    e138:	48 c7 85 50 ff ff ff 	movq   $0x0,-0xb0(%rbp)
    e13f:	00 00 00 00 
    e143:	48 8d 05 a6 a2 00 00 	lea    0xa2a6(%rip),%rax        # 183f0 <g_2>
    e14a:	48 89 85 58 ff ff ff 	mov    %rax,-0xa8(%rbp)
    e151:	48 c7 85 60 ff ff ff 	movq   $0x0,-0xa0(%rbp)
    e158:	00 00 00 00 
    e15c:	48 8d 05 cd 6e 00 00 	lea    0x6ecd(%rip),%rax        # 15030 <g_78>
    e163:	48 89 85 68 ff ff ff 	mov    %rax,-0x98(%rbp)
    e16a:	48 8d 85 54 fb ff ff 	lea    -0x4ac(%rbp),%rax
    e171:	48 89 85 70 ff ff ff 	mov    %rax,-0x90(%rbp)
    e178:	48 8d 05 fd 6e 00 00 	lea    0x6efd(%rip),%rax        # 1507c <g_83+0x3c>
    e17f:	48 89 85 78 ff ff ff 	mov    %rax,-0x88(%rbp)
    e186:	48 c7 45 80 00 00 00 	movq   $0x0,-0x80(%rbp)
    e18d:	00 
    e18e:	48 c7 45 88 00 00 00 	movq   $0x0,-0x78(%rbp)
    e195:	00 
    e196:	48 8d 05 df 6e 00 00 	lea    0x6edf(%rip),%rax        # 1507c <g_83+0x3c>
    e19d:	48 89 45 90          	mov    %rax,-0x70(%rbp)
    e1a1:	48 8d 85 54 fb ff ff 	lea    -0x4ac(%rbp),%rax
    e1a8:	48 89 45 98          	mov    %rax,-0x68(%rbp)
    e1ac:	48 8d 05 7d 6e 00 00 	lea    0x6e7d(%rip),%rax        # 15030 <g_78>
    e1b3:	48 89 45 a0          	mov    %rax,-0x60(%rbp)
    e1b7:	48 c7 45 a8 00 00 00 	movq   $0x0,-0x58(%rbp)
    e1be:	00 
    e1bf:	48 8d 05 2a a2 00 00 	lea    0xa22a(%rip),%rax        # 183f0 <g_2>
    e1c6:	48 89 45 b0          	mov    %rax,-0x50(%rbp)
    e1ca:	48 c7 45 b8 00 00 00 	movq   $0x0,-0x48(%rbp)
    e1d1:	00 
    e1d2:	48 8d 05 17 a2 00 00 	lea    0xa217(%rip),%rax        # 183f0 <g_2>
    e1d9:	48 89 45 c0          	mov    %rax,-0x40(%rbp)
    e1dd:	48 8d 05 0c a2 00 00 	lea    0xa20c(%rip),%rax        # 183f0 <g_2>
    e1e4:	48 89 45 c8          	mov    %rax,-0x38(%rbp)
    e1e8:	48 8d 05 01 a2 00 00 	lea    0xa201(%rip),%rax        # 183f0 <g_2>
    e1ef:	48 89 45 d0          	mov    %rax,-0x30(%rbp)
    e1f3:	48 8d 05 5e 6e 00 00 	lea    0x6e5e(%rip),%rax        # 15058 <g_83+0x18>
    e1fa:	48 89 45 d8          	mov    %rax,-0x28(%rbp)
    e1fe:	48 8d 05 eb a1 00 00 	lea    0xa1eb(%rip),%rax        # 183f0 <g_2>
    e205:	48 89 45 e0          	mov    %rax,-0x20(%rbp)
    e209:	48 8d 05 20 6e 00 00 	lea    0x6e20(%rip),%rax        # 15030 <g_78>
    e210:	48 89 45 e8          	mov    %rax,-0x18(%rbp)
    e214:	48 8d 05 15 6e 00 00 	lea    0x6e15(%rip),%rax        # 15030 <g_78>
    e21b:	48 89 45 f0          	mov    %rax,-0x10(%rbp)
    e21f:	48 c7 85 90 fb ff ff 	movq   $0x4,-0x470(%rbp)
    e226:	04 00 00 00 
    e22a:	c7 85 60 fb ff ff 01 	movl   $0x1,-0x4a0(%rbp)
    e231:	00 00 00 
    e234:	48 c7 85 68 fb ff ff 	movq   $0x0,-0x498(%rbp)
    e23b:	00 00 00 00 
    e23f:	48 8d 05 da 90 00 00 	lea    0x90da(%rip),%rax        # 17320 <g_167>
    e246:	48 89 85 50 fc ff ff 	mov    %rax,-0x3b0(%rbp)
    e24d:	48 c7 85 58 fc ff ff 	movq   $0x0,-0x3a8(%rbp)
    e254:	00 00 00 00 
    e258:	48 8d 05 c1 90 00 00 	lea    0x90c1(%rip),%rax        # 17320 <g_167>
    e25f:	48 89 85 60 fc ff ff 	mov    %rax,-0x3a0(%rbp)
    e266:	48 c7 85 68 fc ff ff 	movq   $0x0,-0x398(%rbp)
    e26d:	00 00 00 00 
    e271:	48 8d 05 a8 90 00 00 	lea    0x90a8(%rip),%rax        # 17320 <g_167>
    e278:	48 89 85 70 fc ff ff 	mov    %rax,-0x390(%rbp)
    e27f:	48 b8 1a be e1 45 a1 	movabs $0xd7758ba145e1be1a,%rax
    e286:	8b 75 d7 
    e289:	48 89 85 98 fb ff ff 	mov    %rax,-0x468(%rbp)
    e290:	48 c7 85 a0 fb ff ff 	movq   $0x0,-0x460(%rbp)
    e297:	00 00 00 00 
    e29b:	48 8d 05 60 6e 00 00 	lea    0x6e60(%rip),%rax        # 15102 <g_174>
    e2a2:	48 89 85 a8 fb ff ff 	mov    %rax,-0x458(%rbp)
    e2a9:	48 8d 85 50 fb ff ff 	lea    -0x4b0(%rbp),%rax
    e2b0:	48 89 85 b0 fb ff ff 	mov    %rax,-0x450(%rbp)
    e2b7:	48 c7 85 b8 fb ff ff 	movq   $0x0,-0x448(%rbp)
    e2be:	00 00 00 00 
    e2c2:	48 8d 05 4f 90 00 00 	lea    0x904f(%rip),%rax        # 17318 <g_91>
    e2c9:	48 89 85 c0 fb ff ff 	mov    %rax,-0x440(%rbp)
    e2d0:	48 8d 05 3b 75 00 00 	lea    0x753b(%rip),%rax        # 15812 <g_236>
    e2d7:	48 89 85 c8 fb ff ff 	mov    %rax,-0x438(%rbp)
    e2de:	66 c7 85 10 fc ff ff 	movw   $0x4cea,-0x3f0(%rbp)
    e2e5:	ea 4c 
    e2e7:	66 c7 85 12 fc ff ff 	movw   $0x1,-0x3ee(%rbp)
    e2ee:	01 00 
    e2f0:	66 c7 85 14 fc ff ff 	movw   $0xc7e5,-0x3ec(%rbp)
    e2f7:	e5 c7 
    e2f9:	66 c7 85 16 fc ff ff 	movw   $0xc7e5,-0x3ea(%rbp)
    e300:	e5 c7 
    e302:	66 c7 85 18 fc ff ff 	movw   $0x1,-0x3e8(%rbp)
    e309:	01 00 
    e30b:	66 c7 85 1a fc ff ff 	movw   $0x4cea,-0x3e6(%rbp)
    e312:	ea 4c 
    e314:	66 c7 85 1c fc ff ff 	movw   $0x1,-0x3e4(%rbp)
    e31b:	01 00 
    e31d:	66 c7 85 1e fc ff ff 	movw   $0xc7e5,-0x3e2(%rbp)
    e324:	e5 c7 
    e326:	66 c7 85 20 fc ff ff 	movw   $0xc7e5,-0x3e0(%rbp)
    e32d:	e5 c7 
    e32f:	66 c7 85 22 fc ff ff 	movw   $0x1,-0x3de(%rbp)
    e336:	01 00 
    e338:	48 8d 85 80 fc ff ff 	lea    -0x380(%rbp),%rax
    e33f:	48 8d 15 3a 8e 00 00 	lea    0x8e3a(%rip),%rdx        # 17180 <g_2069+0xf8c>
    e346:	b9 30 00 00 00       	mov    $0x30,%ecx
    e34b:	48 89 c7             	mov    %rax,%rdi
    e34e:	48 89 d6             	mov    %rdx,%rsi
    e351:	f3 48 a5             	rep movsq %ds:(%rsi),%es:(%rdi)
    e354:	48 8d 85 80 fc ff ff 	lea    -0x380(%rbp),%rax
    e35b:	48 83 c0 10          	add    $0x10,%rax
    e35f:	48 89 85 70 fb ff ff 	mov    %rax,-0x490(%rbp)
    e366:	48 8d 85 70 fb ff ff 	lea    -0x490(%rbp),%rax
    e36d:	48 89 85 d0 fb ff ff 	mov    %rax,-0x430(%rbp)
    e374:	48 b8 d2 1a 93 75 c6 	movabs $0x50ad5fc675931ad2,%rax
    e37b:	5f ad 50 
    e37e:	48 89 85 d8 fb ff ff 	mov    %rax,-0x428(%rbp)
    e385:	66 c7 85 52 fb ff ff 	movw   $0xfff9,-0x4ae(%rbp)
    e38c:	f9 ff 
    e38e:	c7 85 64 fb ff ff fe 	movl   $0xfffffffe,-0x49c(%rbp)
    e395:	ff ff ff 
    e398:	48 c7 85 e0 fb ff ff 	movq   $0x1,-0x420(%rbp)
    e39f:	01 00 00 00 
    e3a3:	48 c7 85 e8 fb ff ff 	movq   $0x0,-0x418(%rbp)
    e3aa:	00 00 00 00 
    e3ae:	48 8d 85 68 fb ff ff 	lea    -0x498(%rbp),%rax
    e3b5:	48 89 85 f0 fb ff ff 	mov    %rax,-0x410(%rbp)
    e3bc:	c6 85 4f fb ff ff 07 	movb   $0x7,-0x4b1(%rbp)
    e3c3:	48 8d 05 4d 74 00 00 	lea    0x744d(%rip),%rax        # 15817 <g_267+0x3>
    e3ca:	48 89 85 f8 fb ff ff 	mov    %rax,-0x408(%rbp)
    e3d1:	c7 85 58 fb ff ff 00 	movl   $0x0,-0x4a8(%rbp)
    e3d8:	00 00 00 
    e3db:	eb 1a                	jmp    e3f7 <func_49+0x559>
    e3dd:	8b 85 58 fb ff ff    	mov    -0x4a8(%rbp),%eax
    e3e3:	48 98                	cltq   
    e3e5:	c7 84 85 04 fc ff ff 	movl   $0x3cd4fe93,-0x3fc(%rbp,%rax,4)
    e3ec:	93 fe d4 3c 
    e3f0:	83 85 58 fb ff ff 01 	addl   $0x1,-0x4a8(%rbp)
    e3f7:	83 bd 58 fb ff ff 02 	cmpl   $0x2,-0x4a8(%rbp)
    e3fe:	7e dd                	jle    e3dd <func_49+0x53f>
    e400:	c7 85 58 fb ff ff 00 	movl   $0x0,-0x4a8(%rbp)
    e407:	00 00 00 
    e40a:	eb 1e                	jmp    e42a <func_49+0x58c>
    e40c:	8b 85 58 fb ff ff    	mov    -0x4a8(%rbp),%eax
    e412:	48 98                	cltq   
    e414:	48 8d 15 f5 73 00 00 	lea    0x73f5(%rip),%rdx        # 15810 <g_228>
    e41b:	48 89 94 c5 30 fc ff 	mov    %rdx,-0x3d0(%rbp,%rax,8)
    e422:	ff 
    e423:	83 85 58 fb ff ff 01 	addl   $0x1,-0x4a8(%rbp)
    e42a:	83 bd 58 fb ff ff 03 	cmpl   $0x3,-0x4a8(%rbp)
    e431:	7e d9                	jle    e40c <func_49+0x56e>
    e433:	48 8b 05 ce 8e 00 00 	mov    0x8ece(%rip),%rax        # 17308 <g_54>
    e43a:	48 8b 95 78 fb ff ff 	mov    -0x488(%rbp),%rdx
    e441:	48 89 10             	mov    %rdx,(%rax)
    e444:	8b 05 9e 6c 00 00    	mov    0x6c9e(%rip),%eax        # 150e8 <g_158>
    e44a:	89 c0                	mov    %eax,%eax
    e44c:	48 8b 4d f8          	mov    -0x8(%rbp),%rcx
    e450:	64 48 33 0c 25 28 00 	xor    %fs:0x28,%rcx
    e457:	00 00 
    e459:	74 05                	je     e460 <func_49+0x5c2>
    e45b:	e8 10 6c ff ff       	callq  5070 <__stack_chk_fail@plt>
    e460:	c9                   	leaveq 
    e461:	c3                   	retq   

000000000000e462 <func_69>:
    e462:	f3 0f 1e fa          	endbr64 
    e466:	55                   	push   %rbp
    e467:	48 89 e5             	mov    %rsp,%rbp
    e46a:	41 55                	push   %r13
    e46c:	41 54                	push   %r12
    e46e:	53                   	push   %rbx
    e46f:	48 81 ec d8 03 00 00 	sub    $0x3d8,%rsp
    e476:	48 89 bd 28 fc ff ff 	mov    %rdi,-0x3d8(%rbp)
    e47d:	48 89 b5 20 fc ff ff 	mov    %rsi,-0x3e0(%rbp)
    e484:	48 89 95 18 fc ff ff 	mov    %rdx,-0x3e8(%rbp)
    e48b:	64 48 8b 04 25 28 00 	mov    %fs:0x28,%rax
    e492:	00 00 
    e494:	48 89 45 d8          	mov    %rax,-0x28(%rbp)
    e498:	31 c0                	xor    %eax,%eax
    e49a:	48 8d 85 80 fd ff ff 	lea    -0x280(%rbp),%rax
    e4a1:	48 8d 15 58 2d 00 00 	lea    0x2d58(%rip),%rdx        # 11200 <g_1404+0x180>
    e4a8:	b9 4b 00 00 00       	mov    $0x4b,%ecx
    e4ad:	48 89 c7             	mov    %rax,%rdi
    e4b0:	48 89 d6             	mov    %rdx,%rsi
    e4b3:	f3 48 a5             	rep movsq %ds:(%rsi),%es:(%rdi)
    e4b6:	48 8d 05 53 8e 00 00 	lea    0x8e53(%rip),%rax        # 17310 <g_92>
    e4bd:	48 89 85 60 fc ff ff 	mov    %rax,-0x3a0(%rbp)
    e4c4:	48 8d 05 f5 6b 00 00 	lea    0x6bf5(%rip),%rax        # 150c0 <g_120>
    e4cb:	48 89 85 68 fc ff ff 	mov    %rax,-0x398(%rbp)
    e4d2:	48 8d 85 68 fc ff ff 	lea    -0x398(%rbp),%rax
    e4d9:	48 89 85 80 fc ff ff 	mov    %rax,-0x380(%rbp)
    e4e0:	c6 85 3e fc ff ff f6 	movb   $0xf6,-0x3c2(%rbp)
    e4e7:	c7 05 37 6b 00 00 00 	movl   $0x0,0x6b37(%rip)        # 15028 <g_58>
    e4ee:	00 00 00 
    e4f1:	e9 f3 05 00 00       	jmpq   eae9 <func_69+0x687>
    e4f6:	c7 85 4c fc ff ff ff 	movl   $0xffffffff,-0x3b4(%rbp)
    e4fd:	ff ff ff 
    e500:	48 8d 05 09 8e 00 00 	lea    0x8e09(%rip),%rax        # 17310 <g_92>
    e507:	48 89 85 88 fc ff ff 	mov    %rax,-0x378(%rbp)
    e50e:	c6 85 3f fc ff ff ff 	movb   $0xff,-0x3c1(%rbp)
    e515:	c7 85 50 fc ff ff 6c 	movl   $0xca7f906c,-0x3b0(%rbp)
    e51c:	90 7f ca 
    e51f:	c7 85 40 fc ff ff 00 	movl   $0x0,-0x3c0(%rbp)
    e526:	00 00 00 
    e529:	eb 46                	jmp    e571 <func_69+0x10f>
    e52b:	c7 85 44 fc ff ff 00 	movl   $0x0,-0x3bc(%rbp)
    e532:	00 00 00 
    e535:	eb 2a                	jmp    e561 <func_69+0xff>
    e537:	8b 85 44 fc ff ff    	mov    -0x3bc(%rbp),%eax
    e53d:	48 63 d0             	movslq %eax,%rdx
    e540:	8b 85 40 fc ff ff    	mov    -0x3c0(%rbp),%eax
    e546:	48 98                	cltq   
    e548:	48 01 d0             	add    %rdx,%rax
    e54b:	48 8d 15 de 6a 00 00 	lea    0x6ade(%rip),%rdx        # 15030 <g_78>
    e552:	48 89 94 c5 d0 fc ff 	mov    %rdx,-0x330(%rbp,%rax,8)
    e559:	ff 
    e55a:	83 85 44 fc ff ff 01 	addl   $0x1,-0x3bc(%rbp)
    e561:	83 bd 44 fc ff ff 00 	cmpl   $0x0,-0x3bc(%rbp)
    e568:	7e cd                	jle    e537 <func_69+0xd5>
    e56a:	83 85 40 fc ff ff 01 	addl   $0x1,-0x3c0(%rbp)
    e571:	83 bd 40 fc ff ff 01 	cmpl   $0x1,-0x3c0(%rbp)
    e578:	7e b1                	jle    e52b <func_69+0xc9>
    e57a:	c7 05 ac 6a 00 00 e5 	movl   $0xffffffe5,0x6aac(%rip)        # 15030 <g_78>
    e581:	ff ff ff 
    e584:	eb 3e                	jmp    e5c4 <func_69+0x162>
    e586:	48 8d 05 d3 6a 00 00 	lea    0x6ad3(%rip),%rax        # 15060 <g_83+0x20>
    e58d:	48 89 85 c0 fc ff ff 	mov    %rax,-0x340(%rbp)
    e594:	bf e4 0a 00 00       	mov    $0xae4,%edi
    e599:	e8 4b 77 ff ff       	callq  5ce9 <safe_unary_minus_func_uint16_t_u>
    e59e:	48 8b 95 c0 fc ff ff 	mov    -0x340(%rbp),%rdx
    e5a5:	8b 12                	mov    (%rdx),%edx
    e5a7:	0f b7 c0             	movzwl %ax,%eax
    e5aa:	09 c2                	or     %eax,%edx
    e5ac:	48 8b 85 c0 fc ff ff 	mov    -0x340(%rbp),%rax
    e5b3:	89 10                	mov    %edx,(%rax)
    e5b5:	8b 05 75 6a 00 00    	mov    0x6a75(%rip),%eax        # 15030 <g_78>
    e5bb:	83 c0 01             	add    $0x1,%eax
    e5be:	89 05 6c 6a 00 00    	mov    %eax,0x6a6c(%rip)        # 15030 <g_78>
    e5c4:	8b 05 66 6a 00 00    	mov    0x6a66(%rip),%eax        # 15030 <g_78>
    e5ca:	83 f8 0d             	cmp    $0xd,%eax
    e5cd:	7e b7                	jle    e586 <func_69+0x124>
    e5cf:	c7 05 57 6a 00 00 00 	movl   $0x0,0x6a57(%rip)        # 15030 <g_78>
    e5d6:	00 00 00 
    e5d9:	90                   	nop
    e5da:	8b 05 50 6a 00 00    	mov    0x6a50(%rip),%eax        # 15030 <g_78>
    e5e0:	83 f8 0f             	cmp    $0xf,%eax
    e5e3:	7e 63                	jle    e648 <func_69+0x1e6>
    e5e5:	48 8d 05 74 2a 00 00 	lea    0x2a74(%rip),%rax        # 11060 <g_88>
    e5ec:	48 89 85 70 fc ff ff 	mov    %rax,-0x390(%rbp)
    e5f3:	48 8d 85 70 fc ff ff 	lea    -0x390(%rbp),%rax
    e5fa:	48 89 85 90 fc ff ff 	mov    %rax,-0x370(%rbp)
    e601:	48 8d 05 f8 8c 00 00 	lea    0x8cf8(%rip),%rax        # 17300 <g_55>
    e608:	48 89 85 78 fc ff ff 	mov    %rax,-0x388(%rbp)
    e60f:	48 8d 85 78 fc ff ff 	lea    -0x388(%rbp),%rax
    e616:	48 89 85 98 fc ff ff 	mov    %rax,-0x368(%rbp)
    e61d:	48 8b 05 e4 8c 00 00 	mov    0x8ce4(%rip),%rax        # 17308 <g_54>
    e624:	48 8b 00             	mov    (%rax),%rax
    e627:	8b 00                	mov    (%rax),%eax
    e629:	85 c0                	test   %eax,%eax
    e62b:	75 1a                	jne    e647 <func_69+0x1e5>
    e62d:	48 8b 85 90 fc ff ff 	mov    -0x370(%rbp),%rax
    e634:	48 c7 00 00 00 00 00 	movq   $0x0,(%rax)
    e63b:	48 8b 05 d6 8c 00 00 	mov    0x8cd6(%rip),%rax        # 17318 <g_91>
    e642:	e9 d3 04 00 00       	jmpq   eb1a <func_69+0x6b8>
    e647:	90                   	nop
    e648:	83 ad 4c fc ff ff 01 	subl   $0x1,-0x3b4(%rbp)
    e64f:	8b 85 18 fe ff ff    	mov    -0x1e8(%rbp),%eax
    e655:	85 c0                	test   %eax,%eax
    e657:	74 2d                	je     e686 <func_69+0x224>
    e659:	8b 05 01 6a 00 00    	mov    0x6a01(%rip),%eax        # 15060 <g_83+0x20>
    e65f:	89 c6                	mov    %eax,%esi
    e661:	bf d8 f0 00 00       	mov    $0xf0d8,%edi
    e666:	e8 9b 77 ff ff       	callq  5e06 <safe_lshift_func_uint16_t_u_u>
    e66b:	48 8b 05 8e 8c 00 00 	mov    0x8c8e(%rip),%rax        # 17300 <g_55>
    e672:	8b 00                	mov    (%rax),%eax
    e674:	89 85 f4 fd ff ff    	mov    %eax,-0x20c(%rbp)
    e67a:	48 8b 85 88 fc ff ff 	mov    -0x378(%rbp),%rax
    e681:	e9 94 04 00 00       	jmpq   eb1a <func_69+0x6b8>
    e686:	c7 85 54 fc ff ff 12 	movl   $0x6bb0f612,-0x3ac(%rbp)
    e68d:	f6 b0 6b 
    e690:	48 8d 85 60 fc ff ff 	lea    -0x3a0(%rbp),%rax
    e697:	48 89 85 a0 fc ff ff 	mov    %rax,-0x360(%rbp)
    e69e:	48 8d 85 68 fc ff ff 	lea    -0x398(%rbp),%rax
    e6a5:	48 89 85 a8 fc ff ff 	mov    %rax,-0x358(%rbp)
    e6ac:	48 8d 05 25 6a 00 00 	lea    0x6a25(%rip),%rax        # 150d8 <g_123>
    e6b3:	48 89 85 b0 fc ff ff 	mov    %rax,-0x350(%rbp)
    e6ba:	48 8d 05 1f 6a 00 00 	lea    0x6a1f(%rip),%rax        # 150e0 <g_125>
    e6c1:	48 89 85 b8 fc ff ff 	mov    %rax,-0x348(%rbp)
    e6c8:	c7 85 58 fc ff ff 41 	movl   $0x68fce541,-0x3a8(%rbp)
    e6cf:	e5 fc 68 
    e6d2:	c7 85 48 fc ff ff 00 	movl   $0x0,-0x3b8(%rbp)
    e6d9:	00 00 00 
    e6dc:	eb 1a                	jmp    e6f8 <func_69+0x296>
    e6de:	8b 85 48 fc ff ff    	mov    -0x3b8(%rbp),%eax
    e6e4:	48 98                	cltq   
    e6e6:	c7 84 85 cc fc ff ff 	movl   $0xe3992c77,-0x334(%rbp,%rax,4)
    e6ed:	77 2c 99 e3 
    e6f1:	83 85 48 fc ff ff 01 	addl   $0x1,-0x3b8(%rbp)
    e6f8:	83 bd 48 fc ff ff 00 	cmpl   $0x0,-0x3b8(%rbp)
    e6ff:	7e dd                	jle    e6de <func_69+0x27c>
    e701:	48 8b 05 f8 8b 00 00 	mov    0x8bf8(%rip),%rax        # 17300 <g_55>
    e708:	8b 00                	mov    (%rax),%eax
    e70a:	41 89 c5             	mov    %eax,%r13d
    e70d:	8b 85 64 fe ff ff    	mov    -0x19c(%rbp),%eax
    e713:	0f be d8             	movsbl %al,%ebx
    e716:	44 8b 25 07 69 00 00 	mov    0x6907(%rip),%r12d        # 15024 <g_6>
    e71d:	48 8b 05 ec 8b 00 00 	mov    0x8bec(%rip),%rax        # 17310 <g_92>
    e724:	48 8b 00             	mov    (%rax),%rax
    e727:	8b 00                	mov    (%rax),%eax
    e729:	89 c1                	mov    %eax,%ecx
    e72b:	48 8b 95 60 fc ff ff 	mov    -0x3a0(%rbp),%rdx
    e732:	48 8b 85 a0 fc ff ff 	mov    -0x360(%rbp),%rax
    e739:	48 89 10             	mov    %rdx,(%rax)
    e73c:	48 8b 85 80 fc ff ff 	mov    -0x380(%rbp),%rax
    e743:	48 3b 85 a8 fc ff ff 	cmp    -0x358(%rbp),%rax
    e74a:	0f 95 c0             	setne  %al
    e74d:	0f b6 c0             	movzbl %al,%eax
    e750:	89 ce                	mov    %ecx,%esi
    e752:	89 c7                	mov    %eax,%edi
    e754:	e8 77 77 ff ff       	callq  5ed0 <safe_sub_func_uint32_t_u_u>
    e759:	85 c0                	test   %eax,%eax
    e75b:	74 27                	je     e784 <func_69+0x322>
    e75d:	8b 05 c5 68 00 00    	mov    0x68c5(%rip),%eax        # 15028 <g_58>
    e763:	85 c0                	test   %eax,%eax
    e765:	74 1d                	je     e784 <func_69+0x322>
    e767:	48 8b 85 a0 fc ff ff 	mov    -0x360(%rbp),%rax
    e76e:	48 8b 00             	mov    (%rax),%rax
    e771:	48 8b 00             	mov    (%rax),%rax
    e774:	48 8b 00             	mov    (%rax),%rax
    e777:	8b 00                	mov    (%rax),%eax
    e779:	85 c0                	test   %eax,%eax
    e77b:	74 07                	je     e784 <func_69+0x322>
    e77d:	b8 01 00 00 00       	mov    $0x1,%eax
    e782:	eb 05                	jmp    e789 <func_69+0x327>
    e784:	b8 00 00 00 00       	mov    $0x0,%eax
    e789:	0f be d0             	movsbl %al,%edx
    e78c:	0f b7 05 d1 28 00 00 	movzwl 0x28d1(%rip),%eax        # 11064 <g_88+0x4>
    e793:	0f be c0             	movsbl %al,%eax
    e796:	89 d6                	mov    %edx,%esi
    e798:	89 c7                	mov    %eax,%edi
    e79a:	e8 73 6a ff ff       	callq  5212 <safe_mul_func_int8_t_s_s>
    e79f:	48 0f be d0          	movsbq %al,%rdx
    e7a3:	48 8d 85 18 fc ff ff 	lea    -0x3e8(%rbp),%rax
    e7aa:	48 39 85 88 fc ff ff 	cmp    %rax,-0x378(%rbp)
    e7b1:	0f 94 c0             	sete   %al
    e7b4:	0f b6 c0             	movzbl %al,%eax
    e7b7:	48 89 d6             	mov    %rdx,%rsi
    e7ba:	48 89 c7             	mov    %rax,%rdi
    e7bd:	e8 35 72 ff ff       	callq  59f7 <safe_div_func_int64_t_s_s>
    e7c2:	0f b7 c0             	movzwl %ax,%eax
    e7c5:	44 89 e6             	mov    %r12d,%esi
    e7c8:	89 c7                	mov    %eax,%edi
    e7ca:	e8 ef 75 ff ff       	callq  5dbe <safe_lshift_func_uint16_t_u_s>
    e7cf:	0f be c0             	movsbl %al,%eax
    e7d2:	89 de                	mov    %ebx,%esi
    e7d4:	89 c7                	mov    %eax,%edi
    e7d6:	e8 56 6a ff ff       	callq  5231 <safe_mod_func_int8_t_s_s>
    e7db:	3c 09                	cmp    $0x9,%al
    e7dd:	0f 95 c0             	setne  %al
    e7e0:	0f b6 c0             	movzbl %al,%eax
    e7e3:	be 01 00 00 00       	mov    $0x1,%esi
    e7e8:	89 c7                	mov    %eax,%edi
    e7ea:	e8 c7 6d ff ff       	callq  55b6 <safe_add_func_int32_t_s_s>
    e7ef:	44 89 ee             	mov    %r13d,%esi
    e7f2:	89 c7                	mov    %eax,%edi
    e7f4:	e8 2c 77 ff ff       	callq  5f25 <safe_div_func_uint32_t_u_u>
    e7f9:	89 c2                	mov    %eax,%edx
    e7fb:	48 8b 85 b0 fc ff ff 	mov    -0x350(%rbp),%rax
    e802:	48 89 10             	mov    %rdx,(%rax)
    e805:	48 8b 05 f4 8a 00 00 	mov    0x8af4(%rip),%rax        # 17300 <g_55>
    e80c:	8b 00                	mov    (%rax),%eax
    e80e:	48 63 d0             	movslq %eax,%rdx
    e811:	48 8b 85 b8 fc ff ff 	mov    -0x348(%rbp),%rax
    e818:	48 89 10             	mov    %rdx,(%rax)
    e81b:	c7 85 e0 fc ff ff ff 	movl   $0xffffffff,-0x320(%rbp)
    e822:	ff ff ff 
    e825:	c7 85 e4 fc ff ff ce 	movl   $0xa04092ce,-0x31c(%rbp)
    e82c:	92 40 a0 
    e82f:	c7 85 e8 fc ff ff ff 	movl   $0xffffffff,-0x318(%rbp)
    e836:	ff ff ff 
    e839:	c7 85 ec fc ff ff b6 	movl   $0xf1203db6,-0x314(%rbp)
    e840:	3d 20 f1 
    e843:	c7 85 f0 fc ff ff 00 	movl   $0x0,-0x310(%rbp)
    e84a:	00 00 00 
    e84d:	c7 85 f4 fc ff ff 01 	movl   $0x1,-0x30c(%rbp)
    e854:	00 00 00 
    e857:	c7 85 f8 fc ff ff 01 	movl   $0x1,-0x308(%rbp)
    e85e:	00 00 00 
    e861:	c7 85 fc fc ff ff 01 	movl   $0x1,-0x304(%rbp)
    e868:	00 00 00 
    e86b:	c7 85 00 fd ff ff 00 	movl   $0x0,-0x300(%rbp)
    e872:	00 00 00 
    e875:	c7 85 04 fd ff ff b6 	movl   $0xf1203db6,-0x2fc(%rbp)
    e87c:	3d 20 f1 
    e87f:	c7 85 08 fd ff ff ff 	movl   $0xffffffff,-0x2f8(%rbp)
    e886:	ff ff ff 
    e889:	c7 85 0c fd ff ff ce 	movl   $0xa04092ce,-0x2f4(%rbp)
    e890:	92 40 a0 
    e893:	c7 85 10 fd ff ff ff 	movl   $0xffffffff,-0x2f0(%rbp)
    e89a:	ff ff ff 
    e89d:	c7 85 14 fd ff ff b6 	movl   $0xf1203db6,-0x2ec(%rbp)
    e8a4:	3d 20 f1 
    e8a7:	c7 85 18 fd ff ff 00 	movl   $0x0,-0x2e8(%rbp)
    e8ae:	00 00 00 
    e8b1:	c7 85 1c fd ff ff 01 	movl   $0x1,-0x2e4(%rbp)
    e8b8:	00 00 00 
    e8bb:	c7 85 20 fd ff ff 01 	movl   $0x1,-0x2e0(%rbp)
    e8c2:	00 00 00 
    e8c5:	c7 85 24 fd ff ff 01 	movl   $0x1,-0x2dc(%rbp)
    e8cc:	00 00 00 
    e8cf:	c7 85 28 fd ff ff 00 	movl   $0x0,-0x2d8(%rbp)
    e8d6:	00 00 00 
    e8d9:	c7 85 2c fd ff ff b6 	movl   $0xf1203db6,-0x2d4(%rbp)
    e8e0:	3d 20 f1 
    e8e3:	c7 85 30 fd ff ff ff 	movl   $0xffffffff,-0x2d0(%rbp)
    e8ea:	ff ff ff 
    e8ed:	c7 85 34 fd ff ff ce 	movl   $0xa04092ce,-0x2cc(%rbp)
    e8f4:	92 40 a0 
    e8f7:	c7 85 38 fd ff ff ff 	movl   $0xffffffff,-0x2c8(%rbp)
    e8fe:	ff ff ff 
    e901:	c7 85 3c fd ff ff b6 	movl   $0xf1203db6,-0x2c4(%rbp)
    e908:	3d 20 f1 
    e90b:	c7 85 40 fd ff ff 00 	movl   $0x0,-0x2c0(%rbp)
    e912:	00 00 00 
    e915:	c7 85 44 fd ff ff 01 	movl   $0x1,-0x2bc(%rbp)
    e91c:	00 00 00 
    e91f:	c7 85 48 fd ff ff 01 	movl   $0x1,-0x2b8(%rbp)
    e926:	00 00 00 
    e929:	c7 85 4c fd ff ff 01 	movl   $0x1,-0x2b4(%rbp)
    e930:	00 00 00 
    e933:	c7 85 50 fd ff ff 00 	movl   $0x0,-0x2b0(%rbp)
    e93a:	00 00 00 
    e93d:	c7 85 54 fd ff ff b6 	movl   $0xf1203db6,-0x2ac(%rbp)
    e944:	3d 20 f1 
    e947:	c7 85 58 fd ff ff ff 	movl   $0xffffffff,-0x2a8(%rbp)
    e94e:	ff ff ff 
    e951:	c7 85 5c fd ff ff ce 	movl   $0xa04092ce,-0x2a4(%rbp)
    e958:	92 40 a0 
    e95b:	c7 85 60 fd ff ff ff 	movl   $0xffffffff,-0x2a0(%rbp)
    e962:	ff ff ff 
    e965:	c7 85 64 fd ff ff b6 	movl   $0xf1203db6,-0x29c(%rbp)
    e96c:	3d 20 f1 
    e96f:	c7 85 68 fd ff ff 00 	movl   $0x0,-0x298(%rbp)
    e976:	00 00 00 
    e979:	c7 85 6c fd ff ff 01 	movl   $0x1,-0x294(%rbp)
    e980:	00 00 00 
    e983:	c7 85 70 fd ff ff 01 	movl   $0x1,-0x290(%rbp)
    e98a:	00 00 00 
    e98d:	c7 85 74 fd ff ff 01 	movl   $0x1,-0x28c(%rbp)
    e994:	00 00 00 
    e997:	c7 85 78 fd ff ff 00 	movl   $0x0,-0x288(%rbp)
    e99e:	00 00 00 
    e9a1:	c7 85 7c fd ff ff b6 	movl   $0xf1203db6,-0x284(%rbp)
    e9a8:	3d 20 f1 
    e9ab:	c7 85 5c fc ff ff cb 	movl   $0x87b302cb,-0x3a4(%rbp)
    e9b2:	02 b3 87 
    e9b5:	8b 95 f8 fc ff ff    	mov    -0x308(%rbp),%edx
    e9bb:	48 8b 05 3e 89 00 00 	mov    0x893e(%rip),%rax        # 17300 <g_55>
    e9c2:	8b 00                	mov    (%rax),%eax
    e9c4:	31 d0                	xor    %edx,%eax
    e9c6:	89 85 f8 fc ff ff    	mov    %eax,-0x308(%rbp)
    e9cc:	48 8b 05 35 89 00 00 	mov    0x8935(%rip),%rax        # 17308 <g_54>
    e9d3:	48 8b 00             	mov    (%rax),%rax
    e9d6:	8b 00                	mov    (%rax),%eax
    e9d8:	85 c0                	test   %eax,%eax
    e9da:	0f 85 18 01 00 00    	jne    eaf8 <func_69+0x696>
    e9e0:	8b 05 3e 66 00 00    	mov    0x663e(%rip),%eax        # 15024 <g_6>
    e9e6:	0f bf d8             	movswl %ax,%ebx
    e9e9:	48 8b 05 28 89 00 00 	mov    0x8928(%rip),%rax        # 17318 <g_91>
    e9f0:	48 8b 00             	mov    (%rax),%rax
    e9f3:	48 8b 00             	mov    (%rax),%rax
    e9f6:	48 85 c0             	test   %rax,%rax
    e9f9:	0f 95 c0             	setne  %al
    e9fc:	44 0f b6 e0          	movzbl %al,%r12d
    ea00:	8b 85 f8 fd ff ff    	mov    -0x208(%rbp),%eax
    ea06:	83 f0 01             	xor    $0x1,%eax
    ea09:	89 85 f8 fd ff ff    	mov    %eax,-0x208(%rbp)
    ea0f:	44 8b ad f8 fd ff ff 	mov    -0x208(%rbp),%r13d
    ea16:	be 08 00 00 00       	mov    $0x8,%esi
    ea1b:	bf 00 00 00 00       	mov    $0x0,%edi
    ea20:	e8 bc 6a ff ff       	callq  54e1 <safe_lshift_func_int16_t_s_u>
    ea25:	ba fc ff ff ff       	mov    $0xfffffffc,%edx
    ea2a:	66 0f be d2          	movsbw %dl,%dx
    ea2e:	66 39 d0             	cmp    %dx,%ax
    ea31:	74 0a                	je     ea3d <func_69+0x5db>
    ea33:	8b 85 f8 fc ff ff    	mov    -0x308(%rbp),%eax
    ea39:	85 c0                	test   %eax,%eax
    ea3b:	74 07                	je     ea44 <func_69+0x5e2>
    ea3d:	b8 01 00 00 00       	mov    $0x1,%eax
    ea42:	eb 05                	jmp    ea49 <func_69+0x5e7>
    ea44:	b8 00 00 00 00       	mov    $0x0,%eax
    ea49:	98                   	cwtl   
    ea4a:	be 00 00 00 00       	mov    $0x0,%esi
    ea4f:	89 c7                	mov    %eax,%edi
    ea51:	e8 9f 69 ff ff       	callq  53f5 <safe_mul_func_int16_t_s_s>
    ea56:	98                   	cwtl   
    ea57:	41 39 c5             	cmp    %eax,%r13d
    ea5a:	0f 9f c0             	setg   %al
    ea5d:	0f b6 d0             	movzbl %al,%edx
    ea60:	48 8b 85 b8 fc ff ff 	mov    -0x348(%rbp),%rax
    ea67:	48 89 10             	mov    %rdx,(%rax)
    ea6a:	48 8b 85 b8 fc ff ff 	mov    -0x348(%rbp),%rax
    ea71:	48 8b 00             	mov    (%rax),%rax
    ea74:	49 39 c4             	cmp    %rax,%r12
    ea77:	89 de                	mov    %ebx,%esi
    ea79:	bf bd e9 ff ff       	mov    $0xffffe9bd,%edi
    ea7e:	e8 93 69 ff ff       	callq  5416 <safe_mod_func_int16_t_s_s>
    ea83:	48 8b 05 86 88 00 00 	mov    0x8886(%rip),%rax        # 17310 <g_92>
    ea8a:	48 8b 00             	mov    (%rax),%rax
    ea8d:	8b 00                	mov    (%rax),%eax
    ea8f:	21 85 5c fc ff ff    	and    %eax,-0x3a4(%rbp)
    ea95:	48 c7 05 38 66 00 00 	movq   $0x0,0x6638(%rip)        # 150d8 <g_123>
    ea9c:	00 00 00 00 
    eaa0:	eb 2b                	jmp    eacd <func_69+0x66b>
    eaa2:	8b 05 40 66 00 00    	mov    0x6640(%rip),%eax        # 150e8 <g_158>
    eaa8:	83 c0 01             	add    $0x1,%eax
    eaab:	89 05 37 66 00 00    	mov    %eax,0x6637(%rip)        # 150e8 <g_158>
    eab1:	48 8b 05 20 66 00 00 	mov    0x6620(%rip),%rax        # 150d8 <g_123>
    eab8:	be 03 00 00 00       	mov    $0x3,%esi
    eabd:	89 c7                	mov    %eax,%edi
    eabf:	e8 f2 6a ff ff       	callq  55b6 <safe_add_func_int32_t_s_s>
    eac4:	48 98                	cltq   
    eac6:	48 89 05 0b 66 00 00 	mov    %rax,0x660b(%rip)        # 150d8 <g_123>
    eacd:	48 8b 05 04 66 00 00 	mov    0x6604(%rip),%rax        # 150d8 <g_123>
    ead4:	48 83 f8 3c          	cmp    $0x3c,%rax
    ead8:	77 c8                	ja     eaa2 <func_69+0x640>
    eada:	8b 05 48 65 00 00    	mov    0x6548(%rip),%eax        # 15028 <g_58>
    eae0:	83 c0 01             	add    $0x1,%eax
    eae3:	89 05 3f 65 00 00    	mov    %eax,0x653f(%rip)        # 15028 <g_58>
    eae9:	8b 05 39 65 00 00    	mov    0x6539(%rip),%eax        # 15028 <g_58>
    eaef:	83 f8 0a             	cmp    $0xa,%eax
    eaf2:	0f 85 fe f9 ff ff    	jne    e4f6 <func_69+0x94>
    eaf8:	48 8b 85 60 fc ff ff 	mov    -0x3a0(%rbp),%rax
    eaff:	48 8b 00             	mov    (%rax),%rax
    eb02:	48 8b 10             	mov    (%rax),%rdx
    eb05:	48 8b 85 28 fc ff ff 	mov    -0x3d8(%rbp),%rax
    eb0c:	48 8b 00             	mov    (%rax),%rax
    eb0f:	8b 12                	mov    (%rdx),%edx
    eb11:	89 10                	mov    %edx,(%rax)
    eb13:	48 8d 05 f6 87 00 00 	lea    0x87f6(%rip),%rax        # 17310 <g_92>
    eb1a:	48 8b 4d d8          	mov    -0x28(%rbp),%rcx
    eb1e:	64 48 33 0c 25 28 00 	xor    %fs:0x28,%rcx
    eb25:	00 00 
    eb27:	74 05                	je     eb2e <func_69+0x6cc>
    eb29:	e8 42 65 ff ff       	callq  5070 <__stack_chk_fail@plt>
    eb2e:	48 81 c4 d8 03 00 00 	add    $0x3d8,%rsp
    eb35:	5b                   	pop    %rbx
    eb36:	41 5c                	pop    %r12
    eb38:	41 5d                	pop    %r13
    eb3a:	5d                   	pop    %rbp
    eb3b:	c3                   	retq   

000000000000eb3c <main>:
    eb3c:	f3 0f 1e fa          	endbr64 
    eb40:	55                   	push   %rbp
    eb41:	48 89 e5             	mov    %rsp,%rbp
    eb44:	48 83 ec 20          	sub    $0x20,%rsp
    eb48:	89 7d ec             	mov    %edi,-0x14(%rbp)
    eb4b:	48 89 75 e0          	mov    %rsi,-0x20(%rbp)
    eb4f:	c7 45 fc 00 00 00 00 	movl   $0x0,-0x4(%rbp)
    eb56:	83 7d ec 02          	cmpl   $0x2,-0x14(%rbp)
    eb5a:	75 25                	jne    eb81 <main+0x45>
    eb5c:	48 8b 45 e0          	mov    -0x20(%rbp),%rax
    eb60:	48 83 c0 08          	add    $0x8,%rax
    eb64:	48 8b 00             	mov    (%rax),%rax
    eb67:	48 8d 35 ea 28 00 00 	lea    0x28ea(%rip),%rsi        # 11458 <g_1404+0x3d8>
    eb6e:	48 89 c7             	mov    %rax,%rdi
    eb71:	e8 1a 65 ff ff       	callq  5090 <strcmp@plt>
    eb76:	85 c0                	test   %eax,%eax
    eb78:	75 07                	jne    eb81 <main+0x45>
    eb7a:	c7 45 fc 01 00 00 00 	movl   $0x1,-0x4(%rbp)
    eb81:	e8 03 66 ff ff       	callq  5189 <platform_main_begin>
    eb86:	e8 0d 7a ff ff       	callq  6598 <crc32_gentab>
    eb8b:	e8 25 7c ff ff       	callq  67b5 <func_1>
    eb90:	c7 45 f0 00 00 00 00 	movl   $0x0,-0x10(%rbp)
    eb97:	eb 4b                	jmp    ebe4 <main+0xa8>
    eb99:	8b 45 f0             	mov    -0x10(%rbp),%eax
    eb9c:	48 98                	cltq   
    eb9e:	48 8d 14 85 00 00 00 	lea    0x0(,%rax,4),%rdx
    eba5:	00 
    eba6:	48 8d 05 43 98 00 00 	lea    0x9843(%rip),%rax        # 183f0 <g_2>
    ebad:	8b 04 02             	mov    (%rdx,%rax,1),%eax
    ebb0:	48 98                	cltq   
    ebb2:	8b 55 fc             	mov    -0x4(%rbp),%edx
    ebb5:	48 8d 35 9e 28 00 00 	lea    0x289e(%rip),%rsi        # 1145a <g_1404+0x3da>
    ebbc:	48 89 c7             	mov    %rax,%rdi
    ebbf:	e8 2f 7b ff ff       	callq  66f3 <transparent_crc>
    ebc4:	83 7d fc 00          	cmpl   $0x0,-0x4(%rbp)
    ebc8:	74 16                	je     ebe0 <main+0xa4>
    ebca:	8b 45 f0             	mov    -0x10(%rbp),%eax
    ebcd:	89 c6                	mov    %eax,%esi
    ebcf:	48 8d 3d 8b 28 00 00 	lea    0x288b(%rip),%rdi        # 11461 <g_1404+0x3e1>
    ebd6:	b8 00 00 00 00       	mov    $0x0,%eax
    ebdb:	e8 a0 64 ff ff       	callq  5080 <printf@plt>
    ebe0:	83 45 f0 01          	addl   $0x1,-0x10(%rbp)
    ebe4:	83 7d f0 06          	cmpl   $0x6,-0x10(%rbp)
    ebe8:	7e af                	jle    eb99 <main+0x5d>
    ebea:	8b 05 34 64 00 00    	mov    0x6434(%rip),%eax        # 15024 <g_6>
    ebf0:	48 98                	cltq   
    ebf2:	8b 55 fc             	mov    -0x4(%rbp),%edx
    ebf5:	48 8d 35 73 28 00 00 	lea    0x2873(%rip),%rsi        # 1146f <g_1404+0x3ef>
    ebfc:	48 89 c7             	mov    %rax,%rdi
    ebff:	e8 ef 7a ff ff       	callq  66f3 <transparent_crc>
    ec04:	8b 05 1e 64 00 00    	mov    0x641e(%rip),%eax        # 15028 <g_58>
    ec0a:	48 98                	cltq   
    ec0c:	8b 55 fc             	mov    -0x4(%rbp),%edx
    ec0f:	48 8d 35 5d 28 00 00 	lea    0x285d(%rip),%rsi        # 11473 <g_1404+0x3f3>
    ec16:	48 89 c7             	mov    %rax,%rdi
    ec19:	e8 d5 7a ff ff       	callq  66f3 <transparent_crc>
    ec1e:	8b 05 08 64 00 00    	mov    0x6408(%rip),%eax        # 1502c <g_77>
    ec24:	48 98                	cltq   
    ec26:	8b 55 fc             	mov    -0x4(%rbp),%edx
    ec29:	48 8d 35 48 28 00 00 	lea    0x2848(%rip),%rsi        # 11478 <g_1404+0x3f8>
    ec30:	48 89 c7             	mov    %rax,%rdi
    ec33:	e8 bb 7a ff ff       	callq  66f3 <transparent_crc>
    ec38:	8b 05 f2 63 00 00    	mov    0x63f2(%rip),%eax        # 15030 <g_78>
    ec3e:	48 98                	cltq   
    ec40:	8b 55 fc             	mov    -0x4(%rbp),%edx
    ec43:	48 8d 35 33 28 00 00 	lea    0x2833(%rip),%rsi        # 1147d <g_1404+0x3fd>
    ec4a:	48 89 c7             	mov    %rax,%rdi
    ec4d:	e8 a1 7a ff ff       	callq  66f3 <transparent_crc>
    ec52:	c7 45 f0 00 00 00 00 	movl   $0x0,-0x10(%rbp)
    ec59:	eb 77                	jmp    ecd2 <main+0x196>
    ec5b:	c7 45 f4 00 00 00 00 	movl   $0x0,-0xc(%rbp)
    ec62:	eb 64                	jmp    ecc8 <main+0x18c>
    ec64:	8b 45 f4             	mov    -0xc(%rbp),%eax
    ec67:	48 63 c8             	movslq %eax,%rcx
    ec6a:	8b 45 f0             	mov    -0x10(%rbp),%eax
    ec6d:	48 63 d0             	movslq %eax,%rdx
    ec70:	48 89 d0             	mov    %rdx,%rax
    ec73:	48 01 c0             	add    %rax,%rax
    ec76:	48 01 d0             	add    %rdx,%rax
    ec79:	48 01 c0             	add    %rax,%rax
    ec7c:	48 01 c8             	add    %rcx,%rax
    ec7f:	48 8d 14 85 00 00 00 	lea    0x0(,%rax,4),%rdx
    ec86:	00 
    ec87:	48 8d 05 b2 63 00 00 	lea    0x63b2(%rip),%rax        # 15040 <g_83>
    ec8e:	8b 04 02             	mov    (%rdx,%rax,1),%eax
    ec91:	48 98                	cltq   
    ec93:	8b 55 fc             	mov    -0x4(%rbp),%edx
    ec96:	48 8d 35 e5 27 00 00 	lea    0x27e5(%rip),%rsi        # 11482 <g_1404+0x402>
    ec9d:	48 89 c7             	mov    %rax,%rdi
    eca0:	e8 4e 7a ff ff       	callq  66f3 <transparent_crc>
    eca5:	83 7d fc 00          	cmpl   $0x0,-0x4(%rbp)
    eca9:	74 19                	je     ecc4 <main+0x188>
    ecab:	8b 55 f4             	mov    -0xc(%rbp),%edx
    ecae:	8b 45 f0             	mov    -0x10(%rbp),%eax
    ecb1:	89 c6                	mov    %eax,%esi
    ecb3:	48 8d 3d d3 27 00 00 	lea    0x27d3(%rip),%rdi        # 1148d <g_1404+0x40d>
    ecba:	b8 00 00 00 00       	mov    $0x0,%eax
    ecbf:	e8 bc 63 ff ff       	callq  5080 <printf@plt>
    ecc4:	83 45 f4 01          	addl   $0x1,-0xc(%rbp)
    ecc8:	83 7d f4 05          	cmpl   $0x5,-0xc(%rbp)
    eccc:	7e 96                	jle    ec64 <main+0x128>
    ecce:	83 45 f0 01          	addl   $0x1,-0x10(%rbp)
    ecd2:	83 7d f0 04          	cmpl   $0x4,-0x10(%rbp)
    ecd6:	7e 83                	jle    ec5b <main+0x11f>
    ecd8:	b8 b0 ff ff ff       	mov    $0xffffffb0,%eax
    ecdd:	48 0f bf c0          	movswq %ax,%rax
    ece1:	8b 55 fc             	mov    -0x4(%rbp),%edx
    ece4:	48 8d 35 b4 27 00 00 	lea    0x27b4(%rip),%rsi        # 1149f <g_1404+0x41f>
    eceb:	48 89 c7             	mov    %rax,%rdi
    ecee:	e8 00 7a ff ff       	callq  66f3 <transparent_crc>
    ecf3:	b8 2f 00 00 00       	mov    $0x2f,%eax
    ecf8:	0f b7 c0             	movzwl %ax,%eax
    ecfb:	8b 55 fc             	mov    -0x4(%rbp),%edx
    ecfe:	48 8d 35 a2 27 00 00 	lea    0x27a2(%rip),%rsi        # 114a7 <g_1404+0x427>
    ed05:	48 89 c7             	mov    %rax,%rdi
    ed08:	e8 e6 79 ff ff       	callq  66f3 <transparent_crc>
    ed0d:	0f b7 05 50 23 00 00 	movzwl 0x2350(%rip),%eax        # 11064 <g_88+0x4>
    ed14:	0f b7 c0             	movzwl %ax,%eax
    ed17:	8b 55 fc             	mov    -0x4(%rbp),%edx
    ed1a:	48 8d 35 8e 27 00 00 	lea    0x278e(%rip),%rsi        # 114af <g_1404+0x42f>
    ed21:	48 89 c7             	mov    %rax,%rdi
    ed24:	e8 ca 79 ff ff       	callq  66f3 <transparent_crc>
    ed29:	b8 fc ff ff ff       	mov    $0xfffffffc,%eax
    ed2e:	48 0f be c0          	movsbq %al,%rax
    ed32:	8b 55 fc             	mov    -0x4(%rbp),%edx
    ed35:	48 8d 35 7b 27 00 00 	lea    0x277b(%rip),%rsi        # 114b7 <g_1404+0x437>
    ed3c:	48 89 c7             	mov    %rax,%rdi
    ed3f:	e8 af 79 ff ff       	callq  66f3 <transparent_crc>
    ed44:	b8 3b f5 ff ff       	mov    $0xfffff53b,%eax
    ed49:	48 98                	cltq   
    ed4b:	8b 55 fc             	mov    -0x4(%rbp),%edx
    ed4e:	48 8d 35 6a 27 00 00 	lea    0x276a(%rip),%rsi        # 114bf <g_1404+0x43f>
    ed55:	48 89 c7             	mov    %rax,%rdi
    ed58:	e8 96 79 ff ff       	callq  66f3 <transparent_crc>
    ed5d:	b8 1f 00 00 00       	mov    $0x1f,%eax
    ed62:	0f b7 c0             	movzwl %ax,%eax
    ed65:	8b 55 fc             	mov    -0x4(%rbp),%edx
    ed68:	48 8d 35 58 27 00 00 	lea    0x2758(%rip),%rsi        # 114c7 <g_1404+0x447>
    ed6f:	48 89 c7             	mov    %rax,%rdi
    ed72:	e8 7c 79 ff ff       	callq  66f3 <transparent_crc>
    ed77:	48 8b 05 ea 22 00 00 	mov    0x22ea(%rip),%rax        # 11068 <g_88+0x8>
    ed7e:	48 c1 e8 2c          	shr    $0x2c,%rax
    ed82:	48 89 c2             	mov    %rax,%rdx
    ed85:	48 8b 05 e4 22 00 00 	mov    0x22e4(%rip),%rax        # 11070 <g_88+0x10>
    ed8c:	83 e0 7f             	and    $0x7f,%eax
    ed8f:	48 c1 e0 14          	shl    $0x14,%rax
    ed93:	48 09 d0             	or     %rdx,%rax
    ed96:	89 c1                	mov    %eax,%ecx
    ed98:	8b 45 fc             	mov    -0x4(%rbp),%eax
    ed9b:	89 c2                	mov    %eax,%edx
    ed9d:	48 8d 35 2b 27 00 00 	lea    0x272b(%rip),%rsi        # 114cf <g_1404+0x44f>
    eda4:	48 89 cf             	mov    %rcx,%rdi
    eda7:	e8 47 79 ff ff       	callq  66f3 <transparent_crc>
    edac:	0f b7 05 0d 63 00 00 	movzwl 0x630d(%rip),%eax        # 150c0 <g_120>
    edb3:	c1 e0 03             	shl    $0x3,%eax
    edb6:	66 c1 f8 03          	sar    $0x3,%ax
    edba:	48 0f bf c0          	movswq %ax,%rax
    edbe:	8b 55 fc             	mov    -0x4(%rbp),%edx
    edc1:	48 8d 35 0f 27 00 00 	lea    0x270f(%rip),%rsi        # 114d7 <g_1404+0x457>
    edc8:	48 89 c7             	mov    %rax,%rdi
    edcb:	e8 23 79 ff ff       	callq  66f3 <transparent_crc>
    edd0:	8b 05 ea 62 00 00    	mov    0x62ea(%rip),%eax        # 150c0 <g_120>
    edd6:	c1 e8 0d             	shr    $0xd,%eax
    edd9:	66 25 ff 3f          	and    $0x3fff,%ax
    eddd:	0f b7 c0             	movzwl %ax,%eax
    ede0:	8b 55 fc             	mov    -0x4(%rbp),%edx
    ede3:	48 8d 35 f6 26 00 00 	lea    0x26f6(%rip),%rsi        # 114e0 <g_1404+0x460>
    edea:	48 89 c7             	mov    %rax,%rdi
    eded:	e8 01 79 ff ff       	callq  66f3 <transparent_crc>
    edf2:	0f b7 05 cb 62 00 00 	movzwl 0x62cb(%rip),%eax        # 150c4 <g_120+0x4>
    edf9:	0f b7 c0             	movzwl %ax,%eax
    edfc:	8b 55 fc             	mov    -0x4(%rbp),%edx
    edff:	48 8d 35 e3 26 00 00 	lea    0x26e3(%rip),%rsi        # 114e9 <g_1404+0x469>
    ee06:	48 89 c7             	mov    %rax,%rdi
    ee09:	e8 e5 78 ff ff       	callq  66f3 <transparent_crc>
    ee0e:	0f b6 05 b3 62 00 00 	movzbl 0x62b3(%rip),%eax        # 150c8 <g_120+0x8>
    ee15:	c1 e0 03             	shl    $0x3,%eax
    ee18:	c0 f8 03             	sar    $0x3,%al
    ee1b:	48 0f be c0          	movsbq %al,%rax
    ee1f:	8b 55 fc             	mov    -0x4(%rbp),%edx
    ee22:	48 8d 35 c9 26 00 00 	lea    0x26c9(%rip),%rsi        # 114f2 <g_1404+0x472>
    ee29:	48 89 c7             	mov    %rax,%rdi
    ee2c:	e8 c2 78 ff ff       	callq  66f3 <transparent_crc>
    ee31:	48 8b 05 90 62 00 00 	mov    0x6290(%rip),%rax        # 150c8 <g_120+0x8>
    ee38:	48 c1 e0 1e          	shl    $0x1e,%rax
    ee3c:	48 c1 f8 23          	sar    $0x23,%rax
    ee40:	48 98                	cltq   
    ee42:	8b 55 fc             	mov    -0x4(%rbp),%edx
    ee45:	48 8d 35 af 26 00 00 	lea    0x26af(%rip),%rsi        # 114fb <g_1404+0x47b>
    ee4c:	48 89 c7             	mov    %rax,%rdi
    ee4f:	e8 9f 78 ff ff       	callq  66f3 <transparent_crc>
    ee54:	0f b7 05 71 62 00 00 	movzwl 0x6271(%rip),%eax        # 150cc <g_120+0xc>
    ee5b:	66 c1 e8 02          	shr    $0x2,%ax
    ee5f:	66 25 ff 03          	and    $0x3ff,%ax
    ee63:	0f b7 c0             	movzwl %ax,%eax
    ee66:	8b 55 fc             	mov    -0x4(%rbp),%edx
    ee69:	48 8d 35 94 26 00 00 	lea    0x2694(%rip),%rsi        # 11504 <g_1404+0x484>
    ee70:	48 89 c7             	mov    %rax,%rdi
    ee73:	e8 7b 78 ff ff       	callq  66f3 <transparent_crc>
    ee78:	48 8b 05 49 62 00 00 	mov    0x6249(%rip),%rax        # 150c8 <g_120+0x8>
    ee7f:	48 c1 e8 2c          	shr    $0x2c,%rax
    ee83:	48 89 c2             	mov    %rax,%rdx
    ee86:	48 8b 05 43 62 00 00 	mov    0x6243(%rip),%rax        # 150d0 <g_120+0x10>
    ee8d:	83 e0 7f             	and    $0x7f,%eax
    ee90:	48 c1 e0 14          	shl    $0x14,%rax
    ee94:	48 09 d0             	or     %rdx,%rax
    ee97:	89 c1                	mov    %eax,%ecx
    ee99:	8b 45 fc             	mov    -0x4(%rbp),%eax
    ee9c:	89 c2                	mov    %eax,%edx
    ee9e:	48 8d 35 68 26 00 00 	lea    0x2668(%rip),%rsi        # 1150d <g_1404+0x48d>
    eea5:	48 89 cf             	mov    %rcx,%rdi
    eea8:	e8 46 78 ff ff       	callq  66f3 <transparent_crc>
    eead:	48 8b 05 24 62 00 00 	mov    0x6224(%rip),%rax        # 150d8 <g_123>
    eeb4:	8b 55 fc             	mov    -0x4(%rbp),%edx
    eeb7:	48 8d 35 58 26 00 00 	lea    0x2658(%rip),%rsi        # 11516 <g_1404+0x496>
    eebe:	48 89 c7             	mov    %rax,%rdi
    eec1:	e8 2d 78 ff ff       	callq  66f3 <transparent_crc>
    eec6:	48 8b 05 13 62 00 00 	mov    0x6213(%rip),%rax        # 150e0 <g_125>
    eecd:	48 89 c1             	mov    %rax,%rcx
    eed0:	8b 45 fc             	mov    -0x4(%rbp),%eax
    eed3:	89 c2                	mov    %eax,%edx
    eed5:	48 8d 35 40 26 00 00 	lea    0x2640(%rip),%rsi        # 1151c <g_1404+0x49c>
    eedc:	48 89 cf             	mov    %rcx,%rdi
    eedf:	e8 0f 78 ff ff       	callq  66f3 <transparent_crc>
    eee4:	8b 05 fe 61 00 00    	mov    0x61fe(%rip),%eax        # 150e8 <g_158>
    eeea:	89 c1                	mov    %eax,%ecx
    eeec:	8b 45 fc             	mov    -0x4(%rbp),%eax
    eeef:	89 c2                	mov    %eax,%edx
    eef1:	48 8d 35 2a 26 00 00 	lea    0x262a(%rip),%rsi        # 11522 <g_1404+0x4a2>
    eef8:	48 89 cf             	mov    %rcx,%rdi
    eefb:	e8 f3 77 ff ff       	callq  66f3 <transparent_crc>
    ef00:	0f b7 05 e9 61 00 00 	movzwl 0x61e9(%rip),%eax        # 150f0 <g_168>
    ef07:	c1 e0 03             	shl    $0x3,%eax
    ef0a:	66 c1 f8 03          	sar    $0x3,%ax
    ef0e:	48 0f bf c0          	movswq %ax,%rax
    ef12:	8b 55 fc             	mov    -0x4(%rbp),%edx
    ef15:	48 8d 35 0c 26 00 00 	lea    0x260c(%rip),%rsi        # 11528 <g_1404+0x4a8>
    ef1c:	48 89 c7             	mov    %rax,%rdi
    ef1f:	e8 cf 77 ff ff       	callq  66f3 <transparent_crc>
    ef24:	8b 05 c6 61 00 00    	mov    0x61c6(%rip),%eax        # 150f0 <g_168>
    ef2a:	c1 e8 0d             	shr    $0xd,%eax
    ef2d:	66 25 ff 3f          	and    $0x3fff,%ax
    ef31:	0f b7 c0             	movzwl %ax,%eax
    ef34:	8b 55 fc             	mov    -0x4(%rbp),%edx
    ef37:	48 8d 35 f3 25 00 00 	lea    0x25f3(%rip),%rsi        # 11531 <g_1404+0x4b1>
    ef3e:	48 89 c7             	mov    %rax,%rdi
    ef41:	e8 ad 77 ff ff       	callq  66f3 <transparent_crc>
    ef46:	0f b7 05 a7 61 00 00 	movzwl 0x61a7(%rip),%eax        # 150f4 <g_168+0x4>
    ef4d:	0f b7 c0             	movzwl %ax,%eax
    ef50:	8b 55 fc             	mov    -0x4(%rbp),%edx
    ef53:	48 8d 35 e0 25 00 00 	lea    0x25e0(%rip),%rsi        # 1153a <g_1404+0x4ba>
    ef5a:	48 89 c7             	mov    %rax,%rdi
    ef5d:	e8 91 77 ff ff       	callq  66f3 <transparent_crc>
    ef62:	0f b6 05 8f 61 00 00 	movzbl 0x618f(%rip),%eax        # 150f8 <g_168+0x8>
    ef69:	c1 e0 03             	shl    $0x3,%eax
    ef6c:	c0 f8 03             	sar    $0x3,%al
    ef6f:	48 0f be c0          	movsbq %al,%rax
    ef73:	8b 55 fc             	mov    -0x4(%rbp),%edx
    ef76:	48 8d 35 c6 25 00 00 	lea    0x25c6(%rip),%rsi        # 11543 <g_1404+0x4c3>
    ef7d:	48 89 c7             	mov    %rax,%rdi
    ef80:	e8 6e 77 ff ff       	callq  66f3 <transparent_crc>
    ef85:	48 8b 05 6c 61 00 00 	mov    0x616c(%rip),%rax        # 150f8 <g_168+0x8>
    ef8c:	48 c1 e0 1e          	shl    $0x1e,%rax
    ef90:	48 c1 f8 23          	sar    $0x23,%rax
    ef94:	48 98                	cltq   
    ef96:	8b 55 fc             	mov    -0x4(%rbp),%edx
    ef99:	48 8d 35 ac 25 00 00 	lea    0x25ac(%rip),%rsi        # 1154c <g_1404+0x4cc>
    efa0:	48 89 c7             	mov    %rax,%rdi
    efa3:	e8 4b 77 ff ff       	callq  66f3 <transparent_crc>
    efa8:	0f b7 05 4d 61 00 00 	movzwl 0x614d(%rip),%eax        # 150fc <g_168+0xc>
    efaf:	66 c1 e8 02          	shr    $0x2,%ax
    efb3:	66 25 ff 03          	and    $0x3ff,%ax
    efb7:	0f b7 c0             	movzwl %ax,%eax
    efba:	8b 55 fc             	mov    -0x4(%rbp),%edx
    efbd:	48 8d 35 91 25 00 00 	lea    0x2591(%rip),%rsi        # 11555 <g_1404+0x4d5>
    efc4:	48 89 c7             	mov    %rax,%rdi
    efc7:	e8 27 77 ff ff       	callq  66f3 <transparent_crc>
    efcc:	48 8b 05 25 61 00 00 	mov    0x6125(%rip),%rax        # 150f8 <g_168+0x8>
    efd3:	48 c1 e8 2c          	shr    $0x2c,%rax
    efd7:	48 89 c2             	mov    %rax,%rdx
    efda:	48 8b 05 1f 61 00 00 	mov    0x611f(%rip),%rax        # 15100 <g_168+0x10>
    efe1:	83 e0 7f             	and    $0x7f,%eax
    efe4:	48 c1 e0 14          	shl    $0x14,%rax
    efe8:	48 09 d0             	or     %rdx,%rax
    efeb:	89 c1                	mov    %eax,%ecx
    efed:	8b 45 fc             	mov    -0x4(%rbp),%eax
    eff0:	89 c2                	mov    %eax,%edx
    eff2:	48 8d 35 65 25 00 00 	lea    0x2565(%rip),%rsi        # 1155e <g_1404+0x4de>
    eff9:	48 89 cf             	mov    %rcx,%rdi
    effc:	e8 f2 76 ff ff       	callq  66f3 <transparent_crc>
    f001:	0f b7 05 fa 60 00 00 	movzwl 0x60fa(%rip),%eax        # 15102 <g_174>
    f008:	0f b7 c0             	movzwl %ax,%eax
    f00b:	8b 55 fc             	mov    -0x4(%rbp),%edx
    f00e:	48 8d 35 52 25 00 00 	lea    0x2552(%rip),%rsi        # 11567 <g_1404+0x4e7>
    f015:	48 89 c7             	mov    %rax,%rdi
    f018:	e8 d6 76 ff ff       	callq  66f3 <transparent_crc>
    f01d:	c7 45 f0 00 00 00 00 	movl   $0x0,-0x10(%rbp)
    f024:	eb 6d                	jmp    f093 <main+0x557>
    f026:	c7 45 f4 00 00 00 00 	movl   $0x0,-0xc(%rbp)
    f02d:	eb 5a                	jmp    f089 <main+0x54d>
    f02f:	8b 45 f4             	mov    -0xc(%rbp),%eax
    f032:	48 98                	cltq   
    f034:	8b 55 f0             	mov    -0x10(%rbp),%edx
    f037:	48 63 d2             	movslq %edx,%rdx
    f03a:	48 c1 e2 03          	shl    $0x3,%rdx
    f03e:	48 01 d0             	add    %rdx,%rax
    f041:	48 8d 14 00          	lea    (%rax,%rax,1),%rdx
    f045:	48 8d 05 d4 60 00 00 	lea    0x60d4(%rip),%rax        # 15120 <g_186>
    f04c:	0f b7 04 02          	movzwl (%rdx,%rax,1),%eax
    f050:	48 0f bf c0          	movswq %ax,%rax
    f054:	8b 55 fc             	mov    -0x4(%rbp),%edx
    f057:	48 8d 35 0f 25 00 00 	lea    0x250f(%rip),%rsi        # 1156d <g_1404+0x4ed>
    f05e:	48 89 c7             	mov    %rax,%rdi
    f061:	e8 8d 76 ff ff       	callq  66f3 <transparent_crc>
    f066:	83 7d fc 00          	cmpl   $0x0,-0x4(%rbp)
    f06a:	74 19                	je     f085 <main+0x549>
    f06c:	8b 55 f4             	mov    -0xc(%rbp),%edx
    f06f:	8b 45 f0             	mov    -0x10(%rbp),%eax
    f072:	89 c6                	mov    %eax,%esi
    f074:	48 8d 3d 12 24 00 00 	lea    0x2412(%rip),%rdi        # 1148d <g_1404+0x40d>
    f07b:	b8 00 00 00 00       	mov    $0x0,%eax
    f080:	e8 fb 5f ff ff       	callq  5080 <printf@plt>
    f085:	83 45 f4 01          	addl   $0x1,-0xc(%rbp)
    f089:	83 7d f4 07          	cmpl   $0x7,-0xc(%rbp)
    f08d:	7e a0                	jle    f02f <main+0x4f3>
    f08f:	83 45 f0 01          	addl   $0x1,-0x10(%rbp)
    f093:	83 7d f0 04          	cmpl   $0x4,-0x10(%rbp)
    f097:	7e 8d                	jle    f026 <main+0x4ea>
    f099:	c7 45 f0 00 00 00 00 	movl   $0x0,-0x10(%rbp)
    f0a0:	e9 a6 00 00 00       	jmpq   f14b <main+0x60f>
    f0a5:	c7 45 f4 00 00 00 00 	movl   $0x0,-0xc(%rbp)
    f0ac:	e9 8c 00 00 00       	jmpq   f13d <main+0x601>
    f0b1:	c7 45 f8 00 00 00 00 	movl   $0x0,-0x8(%rbp)
    f0b8:	eb 79                	jmp    f133 <main+0x5f7>
    f0ba:	8b 45 f8             	mov    -0x8(%rbp),%eax
    f0bd:	48 63 f0             	movslq %eax,%rsi
    f0c0:	8b 45 f0             	mov    -0x10(%rbp),%eax
    f0c3:	48 63 d0             	movslq %eax,%rdx
    f0c6:	8b 45 f4             	mov    -0xc(%rbp),%eax
    f0c9:	48 63 c8             	movslq %eax,%rcx
    f0cc:	48 89 d0             	mov    %rdx,%rax
    f0cf:	48 c1 e0 04          	shl    $0x4,%rax
    f0d3:	48 29 d0             	sub    %rdx,%rax
    f0d6:	48 01 c0             	add    %rax,%rax
    f0d9:	48 89 ca             	mov    %rcx,%rdx
    f0dc:	48 01 d2             	add    %rdx,%rdx
    f0df:	48 01 ca             	add    %rcx,%rdx
    f0e2:	48 01 d0             	add    %rdx,%rax
    f0e5:	48 01 f0             	add    %rsi,%rax
    f0e8:	48 8d 14 c5 00 00 00 	lea    0x0(,%rax,8),%rdx
    f0ef:	00 
    f0f0:	48 8d 05 89 60 00 00 	lea    0x6089(%rip),%rax        # 15180 <g_188>
    f0f7:	48 8b 04 02          	mov    (%rdx,%rax,1),%rax
    f0fb:	8b 55 fc             	mov    -0x4(%rbp),%edx
    f0fe:	48 8d 35 74 24 00 00 	lea    0x2474(%rip),%rsi        # 11579 <g_1404+0x4f9>
    f105:	48 89 c7             	mov    %rax,%rdi
    f108:	e8 e6 75 ff ff       	callq  66f3 <transparent_crc>
    f10d:	83 7d fc 00          	cmpl   $0x0,-0x4(%rbp)
    f111:	74 1c                	je     f12f <main+0x5f3>
    f113:	8b 4d f8             	mov    -0x8(%rbp),%ecx
    f116:	8b 55 f4             	mov    -0xc(%rbp),%edx
    f119:	8b 45 f0             	mov    -0x10(%rbp),%eax
    f11c:	89 c6                	mov    %eax,%esi
    f11e:	48 8d 3d 63 24 00 00 	lea    0x2463(%rip),%rdi        # 11588 <g_1404+0x508>
    f125:	b8 00 00 00 00       	mov    $0x0,%eax
    f12a:	e8 51 5f ff ff       	callq  5080 <printf@plt>
    f12f:	83 45 f8 01          	addl   $0x1,-0x8(%rbp)
    f133:	83 7d f8 02          	cmpl   $0x2,-0x8(%rbp)
    f137:	7e 81                	jle    f0ba <main+0x57e>
    f139:	83 45 f4 01          	addl   $0x1,-0xc(%rbp)
    f13d:	83 7d f4 09          	cmpl   $0x9,-0xc(%rbp)
    f141:	0f 8e 6a ff ff ff    	jle    f0b1 <main+0x575>
    f147:	83 45 f0 01          	addl   $0x1,-0x10(%rbp)
    f14b:	83 7d f0 06          	cmpl   $0x6,-0x10(%rbp)
    f14f:	0f 8e 50 ff ff ff    	jle    f0a5 <main+0x569>
    f155:	0f b6 05 b4 66 00 00 	movzbl 0x66b4(%rip),%eax        # 15810 <g_228>
    f15c:	48 0f be c0          	movsbq %al,%rax
    f160:	8b 55 fc             	mov    -0x4(%rbp),%edx
    f163:	48 8d 35 34 24 00 00 	lea    0x2434(%rip),%rsi        # 1159e <g_1404+0x51e>
    f16a:	48 89 c7             	mov    %rax,%rdi
    f16d:	e8 81 75 ff ff       	callq  66f3 <transparent_crc>
    f172:	0f b7 05 99 66 00 00 	movzwl 0x6699(%rip),%eax        # 15812 <g_236>
    f179:	0f b7 c0             	movzwl %ax,%eax
    f17c:	8b 55 fc             	mov    -0x4(%rbp),%edx
    f17f:	48 8d 35 1e 24 00 00 	lea    0x241e(%rip),%rsi        # 115a4 <g_1404+0x524>
    f186:	48 89 c7             	mov    %rax,%rdi
    f189:	e8 65 75 ff ff       	callq  66f3 <transparent_crc>
    f18e:	c7 45 f0 00 00 00 00 	movl   $0x0,-0x10(%rbp)
    f195:	eb 45                	jmp    f1dc <main+0x6a0>
    f197:	8b 45 f0             	mov    -0x10(%rbp),%eax
    f19a:	48 98                	cltq   
    f19c:	48 8d 15 71 66 00 00 	lea    0x6671(%rip),%rdx        # 15814 <g_267>
    f1a3:	0f b6 04 10          	movzbl (%rax,%rdx,1),%eax
    f1a7:	0f b6 c0             	movzbl %al,%eax
    f1aa:	8b 55 fc             	mov    -0x4(%rbp),%edx
    f1ad:	48 8d 35 f6 23 00 00 	lea    0x23f6(%rip),%rsi        # 115aa <g_1404+0x52a>
    f1b4:	48 89 c7             	mov    %rax,%rdi
    f1b7:	e8 37 75 ff ff       	callq  66f3 <transparent_crc>
    f1bc:	83 7d fc 00          	cmpl   $0x0,-0x4(%rbp)
    f1c0:	74 16                	je     f1d8 <main+0x69c>
    f1c2:	8b 45 f0             	mov    -0x10(%rbp),%eax
    f1c5:	89 c6                	mov    %eax,%esi
    f1c7:	48 8d 3d 93 22 00 00 	lea    0x2293(%rip),%rdi        # 11461 <g_1404+0x3e1>
    f1ce:	b8 00 00 00 00       	mov    $0x0,%eax
    f1d3:	e8 a8 5e ff ff       	callq  5080 <printf@plt>
    f1d8:	83 45 f0 01          	addl   $0x1,-0x10(%rbp)
    f1dc:	83 7d f0 06          	cmpl   $0x6,-0x10(%rbp)
    f1e0:	7e b5                	jle    f197 <main+0x65b>
    f1e2:	b8 28 4a 00 00       	mov    $0x4a28,%eax
    f1e7:	0f b7 c0             	movzwl %ax,%eax
    f1ea:	8b 55 fc             	mov    -0x4(%rbp),%edx
    f1ed:	48 8d 35 bf 23 00 00 	lea    0x23bf(%rip),%rsi        # 115b3 <g_1404+0x533>
    f1f4:	48 89 c7             	mov    %rax,%rdi
    f1f7:	e8 f7 74 ff ff       	callq  66f3 <transparent_crc>
    f1fc:	c7 45 f0 00 00 00 00 	movl   $0x0,-0x10(%rbp)
    f203:	eb 49                	jmp    f24e <main+0x712>
    f205:	8b 45 f0             	mov    -0x10(%rbp),%eax
    f208:	48 98                	cltq   
    f20a:	48 8d 14 00          	lea    (%rax,%rax,1),%rdx
    f20e:	48 8d 05 63 1e 00 00 	lea    0x1e63(%rip),%rax        # 11078 <g_313>
    f215:	0f b7 04 02          	movzwl (%rdx,%rax,1),%eax
    f219:	0f b7 c0             	movzwl %ax,%eax
    f21c:	8b 55 fc             	mov    -0x4(%rbp),%edx
    f21f:	48 8d 35 93 23 00 00 	lea    0x2393(%rip),%rsi        # 115b9 <g_1404+0x539>
    f226:	48 89 c7             	mov    %rax,%rdi
    f229:	e8 c5 74 ff ff       	callq  66f3 <transparent_crc>
    f22e:	83 7d fc 00          	cmpl   $0x0,-0x4(%rbp)
    f232:	74 16                	je     f24a <main+0x70e>
    f234:	8b 45 f0             	mov    -0x10(%rbp),%eax
    f237:	89 c6                	mov    %eax,%esi
    f239:	48 8d 3d 21 22 00 00 	lea    0x2221(%rip),%rdi        # 11461 <g_1404+0x3e1>
    f240:	b8 00 00 00 00       	mov    $0x0,%eax
    f245:	e8 36 5e ff ff       	callq  5080 <printf@plt>
    f24a:	83 45 f0 01          	addl   $0x1,-0x10(%rbp)
    f24e:	83 7d f0 03          	cmpl   $0x3,-0x10(%rbp)
    f252:	7e b1                	jle    f205 <main+0x6c9>
    f254:	c7 45 f0 00 00 00 00 	movl   $0x0,-0x10(%rbp)
    f25b:	e9 fb 02 00 00       	jmpq   f55b <main+0xa1f>
    f260:	c7 45 f4 00 00 00 00 	movl   $0x0,-0xc(%rbp)
    f267:	e9 e1 02 00 00       	jmpq   f54d <main+0xa11>
    f26c:	8b 45 f4             	mov    -0xc(%rbp),%eax
    f26f:	48 98                	cltq   
    f271:	8b 55 f0             	mov    -0x10(%rbp),%edx
    f274:	48 63 ca             	movslq %edx,%rcx
    f277:	48 89 c2             	mov    %rax,%rdx
    f27a:	48 c1 e2 04          	shl    $0x4,%rdx
    f27e:	48 01 c2             	add    %rax,%rdx
    f281:	48 89 c8             	mov    %rcx,%rax
    f284:	48 c1 e0 04          	shl    $0x4,%rax
    f288:	48 01 c8             	add    %rcx,%rax
    f28b:	48 c1 e0 03          	shl    $0x3,%rax
    f28f:	48 01 c2             	add    %rax,%rdx
    f292:	48 8d 05 87 65 00 00 	lea    0x6587(%rip),%rax        # 15820 <g_409>
    f299:	48 01 d0             	add    %rdx,%rax
    f29c:	0f b6 10             	movzbl (%rax),%edx
    f29f:	0f b6 40 01          	movzbl 0x1(%rax),%eax
    f2a3:	83 e0 1f             	and    $0x1f,%eax
    f2a6:	48 c1 e0 08          	shl    $0x8,%rax
    f2aa:	48 09 d0             	or     %rdx,%rax
    f2ad:	48 c1 e0 33          	shl    $0x33,%rax
    f2b1:	48 c1 f8 33          	sar    $0x33,%rax
    f2b5:	48 0f bf c0          	movswq %ax,%rax
    f2b9:	8b 55 fc             	mov    -0x4(%rbp),%edx
    f2bc:	48 8d 35 ff 22 00 00 	lea    0x22ff(%rip),%rsi        # 115c2 <g_1404+0x542>
    f2c3:	48 89 c7             	mov    %rax,%rdi
    f2c6:	e8 28 74 ff ff       	callq  66f3 <transparent_crc>
    f2cb:	8b 45 f4             	mov    -0xc(%rbp),%eax
    f2ce:	48 98                	cltq   
    f2d0:	8b 55 f0             	mov    -0x10(%rbp),%edx
    f2d3:	48 63 ca             	movslq %edx,%rcx
    f2d6:	48 89 c2             	mov    %rax,%rdx
    f2d9:	48 c1 e2 04          	shl    $0x4,%rdx
    f2dd:	48 01 c2             	add    %rax,%rdx
    f2e0:	48 89 c8             	mov    %rcx,%rax
    f2e3:	48 c1 e0 04          	shl    $0x4,%rax
    f2e7:	48 01 c8             	add    %rcx,%rax
    f2ea:	48 c1 e0 03          	shl    $0x3,%rax
    f2ee:	48 01 c2             	add    %rax,%rdx
    f2f1:	48 8d 05 28 65 00 00 	lea    0x6528(%rip),%rax        # 15820 <g_409>
    f2f8:	48 01 d0             	add    %rdx,%rax
    f2fb:	0f b6 50 01          	movzbl 0x1(%rax),%edx
    f2ff:	c0 ea 05             	shr    $0x5,%dl
    f302:	0f b6 d2             	movzbl %dl,%edx
    f305:	0f b6 48 02          	movzbl 0x2(%rax),%ecx
    f309:	48 c1 e1 03          	shl    $0x3,%rcx
    f30d:	48 09 ca             	or     %rcx,%rdx
    f310:	0f b6 40 03          	movzbl 0x3(%rax),%eax
    f314:	83 e0 07             	and    $0x7,%eax
    f317:	48 c1 e0 0b          	shl    $0xb,%rax
    f31b:	48 09 d0             	or     %rdx,%rax
    f31e:	0f b7 c0             	movzwl %ax,%eax
    f321:	8b 55 fc             	mov    -0x4(%rbp),%edx
    f324:	48 8d 35 a6 22 00 00 	lea    0x22a6(%rip),%rsi        # 115d1 <g_1404+0x551>
    f32b:	48 89 c7             	mov    %rax,%rdi
    f32e:	e8 c0 73 ff ff       	callq  66f3 <transparent_crc>
    f333:	8b 45 f4             	mov    -0xc(%rbp),%eax
    f336:	48 98                	cltq   
    f338:	8b 55 f0             	mov    -0x10(%rbp),%edx
    f33b:	48 63 ca             	movslq %edx,%rcx
    f33e:	48 89 c2             	mov    %rax,%rdx
    f341:	48 c1 e2 04          	shl    $0x4,%rdx
    f345:	48 01 c2             	add    %rax,%rdx
    f348:	48 89 c8             	mov    %rcx,%rax
    f34b:	48 c1 e0 04          	shl    $0x4,%rax
    f34f:	48 01 c8             	add    %rcx,%rax
    f352:	48 c1 e0 03          	shl    $0x3,%rax
    f356:	48 01 c2             	add    %rax,%rdx
    f359:	48 8d 05 c4 64 00 00 	lea    0x64c4(%rip),%rax        # 15824 <g_409+0x4>
    f360:	48 01 d0             	add    %rdx,%rax
    f363:	0f b7 00             	movzwl (%rax),%eax
    f366:	0f b7 c0             	movzwl %ax,%eax
    f369:	8b 55 fc             	mov    -0x4(%rbp),%edx
    f36c:	48 8d 35 6d 22 00 00 	lea    0x226d(%rip),%rsi        # 115e0 <g_1404+0x560>
    f373:	48 89 c7             	mov    %rax,%rdi
    f376:	e8 78 73 ff ff       	callq  66f3 <transparent_crc>
    f37b:	8b 45 f4             	mov    -0xc(%rbp),%eax
    f37e:	48 98                	cltq   
    f380:	8b 55 f0             	mov    -0x10(%rbp),%edx
    f383:	48 63 ca             	movslq %edx,%rcx
    f386:	48 89 c2             	mov    %rax,%rdx
    f389:	48 c1 e2 04          	shl    $0x4,%rdx
    f38d:	48 01 c2             	add    %rax,%rdx
    f390:	48 89 c8             	mov    %rcx,%rax
    f393:	48 c1 e0 04          	shl    $0x4,%rax
    f397:	48 01 c8             	add    %rcx,%rax
    f39a:	48 c1 e0 03          	shl    $0x3,%rax
    f39e:	48 01 c2             	add    %rax,%rdx
    f3a1:	48 8d 05 78 64 00 00 	lea    0x6478(%rip),%rax        # 15820 <g_409>
    f3a8:	48 01 d0             	add    %rdx,%rax
    f3ab:	0f b6 40 08          	movzbl 0x8(%rax),%eax
    f3af:	c1 e0 03             	shl    $0x3,%eax
    f3b2:	c0 f8 03             	sar    $0x3,%al
    f3b5:	48 0f be c0          	movsbq %al,%rax
    f3b9:	8b 55 fc             	mov    -0x4(%rbp),%edx
    f3bc:	48 8d 35 2c 22 00 00 	lea    0x222c(%rip),%rsi        # 115ef <g_1404+0x56f>
    f3c3:	48 89 c7             	mov    %rax,%rdi
    f3c6:	e8 28 73 ff ff       	callq  66f3 <transparent_crc>
    f3cb:	8b 45 f4             	mov    -0xc(%rbp),%eax
    f3ce:	48 98                	cltq   
    f3d0:	8b 55 f0             	mov    -0x10(%rbp),%edx
    f3d3:	48 63 ca             	movslq %edx,%rcx
    f3d6:	48 89 c2             	mov    %rax,%rdx
    f3d9:	48 c1 e2 04          	shl    $0x4,%rdx
    f3dd:	48 01 c2             	add    %rax,%rdx
    f3e0:	48 89 c8             	mov    %rcx,%rax
    f3e3:	48 c1 e0 04          	shl    $0x4,%rax
    f3e7:	48 01 c8             	add    %rcx,%rax
    f3ea:	48 c1 e0 03          	shl    $0x3,%rax
    f3ee:	48 01 c2             	add    %rax,%rdx
    f3f1:	48 8d 05 28 64 00 00 	lea    0x6428(%rip),%rax        # 15820 <g_409>
    f3f8:	48 01 d0             	add    %rdx,%rax
    f3fb:	0f b6 50 08          	movzbl 0x8(%rax),%edx
    f3ff:	c0 ea 05             	shr    $0x5,%dl
    f402:	0f b6 d2             	movzbl %dl,%edx
    f405:	0f b6 48 09          	movzbl 0x9(%rax),%ecx
    f409:	48 c1 e1 03          	shl    $0x3,%rcx
    f40d:	48 09 d1             	or     %rdx,%rcx
    f410:	0f b6 50 0a          	movzbl 0xa(%rax),%edx
    f414:	48 c1 e2 0b          	shl    $0xb,%rdx
    f418:	48 09 d1             	or     %rdx,%rcx
    f41b:	0f b6 50 0b          	movzbl 0xb(%rax),%edx
    f41f:	48 c1 e2 13          	shl    $0x13,%rdx
    f423:	48 09 ca             	or     %rcx,%rdx
    f426:	0f b6 40 0c          	movzbl 0xc(%rax),%eax
    f42a:	83 e0 03             	and    $0x3,%eax
    f42d:	48 c1 e0 1b          	shl    $0x1b,%rax
    f431:	48 09 d0             	or     %rdx,%rax
    f434:	48 c1 e0 23          	shl    $0x23,%rax
    f438:	48 c1 f8 23          	sar    $0x23,%rax
    f43c:	48 98                	cltq   
    f43e:	8b 55 fc             	mov    -0x4(%rbp),%edx
    f441:	48 8d 35 b6 21 00 00 	lea    0x21b6(%rip),%rsi        # 115fe <g_1404+0x57e>
    f448:	48 89 c7             	mov    %rax,%rdi
    f44b:	e8 a3 72 ff ff       	callq  66f3 <transparent_crc>
    f450:	8b 45 f4             	mov    -0xc(%rbp),%eax
    f453:	48 98                	cltq   
    f455:	8b 55 f0             	mov    -0x10(%rbp),%edx
    f458:	48 63 ca             	movslq %edx,%rcx
    f45b:	48 89 c2             	mov    %rax,%rdx
    f45e:	48 c1 e2 04          	shl    $0x4,%rdx
    f462:	48 01 c2             	add    %rax,%rdx
    f465:	48 89 c8             	mov    %rcx,%rax
    f468:	48 c1 e0 04          	shl    $0x4,%rax
    f46c:	48 01 c8             	add    %rcx,%rax
    f46f:	48 c1 e0 03          	shl    $0x3,%rax
    f473:	48 01 c2             	add    %rax,%rdx
    f476:	48 8d 05 a3 63 00 00 	lea    0x63a3(%rip),%rax        # 15820 <g_409>
    f47d:	48 01 d0             	add    %rdx,%rax
    f480:	0f b6 50 0c          	movzbl 0xc(%rax),%edx
    f484:	c0 ea 02             	shr    $0x2,%dl
    f487:	0f b6 d2             	movzbl %dl,%edx
    f48a:	0f b6 40 0d          	movzbl 0xd(%rax),%eax
    f48e:	83 e0 0f             	and    $0xf,%eax
    f491:	48 c1 e0 06          	shl    $0x6,%rax
    f495:	48 09 d0             	or     %rdx,%rax
    f498:	0f b7 c0             	movzwl %ax,%eax
    f49b:	8b 55 fc             	mov    -0x4(%rbp),%edx
    f49e:	48 8d 35 68 21 00 00 	lea    0x2168(%rip),%rsi        # 1160d <g_1404+0x58d>
    f4a5:	48 89 c7             	mov    %rax,%rdi
    f4a8:	e8 46 72 ff ff       	callq  66f3 <transparent_crc>
    f4ad:	8b 45 f4             	mov    -0xc(%rbp),%eax
    f4b0:	48 98                	cltq   
    f4b2:	8b 55 f0             	mov    -0x10(%rbp),%edx
    f4b5:	48 63 ca             	movslq %edx,%rcx
    f4b8:	48 89 c2             	mov    %rax,%rdx
    f4bb:	48 c1 e2 04          	shl    $0x4,%rdx
    f4bf:	48 01 c2             	add    %rax,%rdx
    f4c2:	48 89 c8             	mov    %rcx,%rax
    f4c5:	48 c1 e0 04          	shl    $0x4,%rax
    f4c9:	48 01 c8             	add    %rcx,%rax
    f4cc:	48 c1 e0 03          	shl    $0x3,%rax
    f4d0:	48 01 c2             	add    %rax,%rdx
    f4d3:	48 8d 05 46 63 00 00 	lea    0x6346(%rip),%rax        # 15820 <g_409>
    f4da:	48 01 d0             	add    %rdx,%rax
    f4dd:	0f b6 50 0d          	movzbl 0xd(%rax),%edx
    f4e1:	c0 ea 04             	shr    $0x4,%dl
    f4e4:	0f b6 d2             	movzbl %dl,%edx
    f4e7:	0f b6 48 0e          	movzbl 0xe(%rax),%ecx
    f4eb:	0f b6 c9             	movzbl %cl,%ecx
    f4ee:	48 c1 e1 04          	shl    $0x4,%rcx
    f4f2:	48 09 d1             	or     %rdx,%rcx
    f4f5:	0f b6 50 0f          	movzbl 0xf(%rax),%edx
    f4f9:	0f b6 d2             	movzbl %dl,%edx
    f4fc:	48 c1 e2 0c          	shl    $0xc,%rdx
    f500:	48 09 ca             	or     %rcx,%rdx
    f503:	0f b6 40 10          	movzbl 0x10(%rax),%eax
    f507:	0f b6 c0             	movzbl %al,%eax
    f50a:	83 e0 7f             	and    $0x7f,%eax
    f50d:	48 c1 e0 14          	shl    $0x14,%rax
    f511:	48 09 d0             	or     %rdx,%rax
    f514:	89 c1                	mov    %eax,%ecx
    f516:	8b 45 fc             	mov    -0x4(%rbp),%eax
    f519:	89 c2                	mov    %eax,%edx
    f51b:	48 8d 35 fa 20 00 00 	lea    0x20fa(%rip),%rsi        # 1161c <g_1404+0x59c>
    f522:	48 89 cf             	mov    %rcx,%rdi
    f525:	e8 c9 71 ff ff       	callq  66f3 <transparent_crc>
    f52a:	83 7d fc 00          	cmpl   $0x0,-0x4(%rbp)
    f52e:	74 19                	je     f549 <main+0xa0d>
    f530:	8b 55 f4             	mov    -0xc(%rbp),%edx
    f533:	8b 45 f0             	mov    -0x10(%rbp),%eax
    f536:	89 c6                	mov    %eax,%esi
    f538:	48 8d 3d 4e 1f 00 00 	lea    0x1f4e(%rip),%rdi        # 1148d <g_1404+0x40d>
    f53f:	b8 00 00 00 00       	mov    $0x0,%eax
    f544:	e8 37 5b ff ff       	callq  5080 <printf@plt>
    f549:	83 45 f4 01          	addl   $0x1,-0xc(%rbp)
    f54d:	83 7d f4 07          	cmpl   $0x7,-0xc(%rbp)
    f551:	0f 8e 15 fd ff ff    	jle    f26c <main+0x730>
    f557:	83 45 f0 01          	addl   $0x1,-0x10(%rbp)
    f55b:	83 7d f0 09          	cmpl   $0x9,-0x10(%rbp)
    f55f:	0f 8e fb fc ff ff    	jle    f260 <main+0x724>
    f565:	8b 05 05 68 00 00    	mov    0x6805(%rip),%eax        # 15d70 <g_462>
    f56b:	48 98                	cltq   
    f56d:	8b 55 fc             	mov    -0x4(%rbp),%edx
    f570:	48 8d 35 b4 20 00 00 	lea    0x20b4(%rip),%rsi        # 1162b <g_1404+0x5ab>
    f577:	48 89 c7             	mov    %rax,%rdi
    f57a:	e8 74 71 ff ff       	callq  66f3 <transparent_crc>
    f57f:	48 8b 05 fa 67 00 00 	mov    0x67fa(%rip),%rax        # 15d80 <g_500>
    f586:	c1 e0 03             	shl    $0x3,%eax
    f589:	66 c1 f8 03          	sar    $0x3,%ax
    f58d:	48 0f bf c0          	movswq %ax,%rax
    f591:	8b 55 fc             	mov    -0x4(%rbp),%edx
    f594:	48 8d 35 96 20 00 00 	lea    0x2096(%rip),%rsi        # 11631 <g_1404+0x5b1>
    f59b:	48 89 c7             	mov    %rax,%rdi
    f59e:	e8 50 71 ff ff       	callq  66f3 <transparent_crc>
    f5a3:	48 8b 05 d6 67 00 00 	mov    0x67d6(%rip),%rax        # 15d80 <g_500>
    f5aa:	48 c1 e8 0d          	shr    $0xd,%rax
    f5ae:	66 25 ff 3f          	and    $0x3fff,%ax
    f5b2:	0f b7 c0             	movzwl %ax,%eax
    f5b5:	8b 55 fc             	mov    -0x4(%rbp),%edx
    f5b8:	48 8d 35 7b 20 00 00 	lea    0x207b(%rip),%rsi        # 1163a <g_1404+0x5ba>
    f5bf:	48 89 c7             	mov    %rax,%rdi
    f5c2:	e8 2c 71 ff ff       	callq  66f3 <transparent_crc>
    f5c7:	0f b7 05 b6 67 00 00 	movzwl 0x67b6(%rip),%eax        # 15d84 <g_500+0x4>
    f5ce:	0f b7 c0             	movzwl %ax,%eax
    f5d1:	8b 55 fc             	mov    -0x4(%rbp),%edx
    f5d4:	48 8d 35 68 20 00 00 	lea    0x2068(%rip),%rsi        # 11643 <g_1404+0x5c3>
    f5db:	48 89 c7             	mov    %rax,%rdi
    f5de:	e8 10 71 ff ff       	callq  66f3 <transparent_crc>
    f5e3:	48 8b 05 9e 67 00 00 	mov    0x679e(%rip),%rax        # 15d88 <g_500+0x8>
    f5ea:	c1 e0 03             	shl    $0x3,%eax
    f5ed:	c0 f8 03             	sar    $0x3,%al
    f5f0:	48 0f be c0          	movsbq %al,%rax
    f5f4:	8b 55 fc             	mov    -0x4(%rbp),%edx
    f5f7:	48 8d 35 4e 20 00 00 	lea    0x204e(%rip),%rsi        # 1164c <g_1404+0x5cc>
    f5fe:	48 89 c7             	mov    %rax,%rdi
    f601:	e8 ed 70 ff ff       	callq  66f3 <transparent_crc>
    f606:	48 8b 05 7b 67 00 00 	mov    0x677b(%rip),%rax        # 15d88 <g_500+0x8>
    f60d:	48 c1 e0 1e          	shl    $0x1e,%rax
    f611:	48 c1 f8 23          	sar    $0x23,%rax
    f615:	48 98                	cltq   
    f617:	8b 55 fc             	mov    -0x4(%rbp),%edx
    f61a:	48 8d 35 34 20 00 00 	lea    0x2034(%rip),%rsi        # 11655 <g_1404+0x5d5>
    f621:	48 89 c7             	mov    %rax,%rdi
    f624:	e8 ca 70 ff ff       	callq  66f3 <transparent_crc>
    f629:	48 8b 05 58 67 00 00 	mov    0x6758(%rip),%rax        # 15d88 <g_500+0x8>
    f630:	48 c1 e8 22          	shr    $0x22,%rax
    f634:	66 25 ff 03          	and    $0x3ff,%ax
    f638:	0f b7 c0             	movzwl %ax,%eax
    f63b:	8b 55 fc             	mov    -0x4(%rbp),%edx
    f63e:	48 8d 35 19 20 00 00 	lea    0x2019(%rip),%rsi        # 1165e <g_1404+0x5de>
    f645:	48 89 c7             	mov    %rax,%rdi
    f648:	e8 a6 70 ff ff       	callq  66f3 <transparent_crc>
    f64d:	48 8b 05 34 67 00 00 	mov    0x6734(%rip),%rax        # 15d88 <g_500+0x8>
    f654:	48 c1 e8 2c          	shr    $0x2c,%rax
    f658:	48 89 c2             	mov    %rax,%rdx
    f65b:	48 8b 05 2e 67 00 00 	mov    0x672e(%rip),%rax        # 15d90 <g_500+0x10>
    f662:	83 e0 7f             	and    $0x7f,%eax
    f665:	48 c1 e0 14          	shl    $0x14,%rax
    f669:	48 09 d0             	or     %rdx,%rax
    f66c:	89 c1                	mov    %eax,%ecx
    f66e:	8b 45 fc             	mov    -0x4(%rbp),%eax
    f671:	89 c2                	mov    %eax,%edx
    f673:	48 8d 35 ed 1f 00 00 	lea    0x1fed(%rip),%rsi        # 11667 <g_1404+0x5e7>
    f67a:	48 89 cf             	mov    %rcx,%rdi
    f67d:	e8 71 70 ff ff       	callq  66f3 <transparent_crc>
    f682:	8b 05 0c 67 00 00    	mov    0x670c(%rip),%eax        # 15d94 <g_504>
    f688:	89 c1                	mov    %eax,%ecx
    f68a:	8b 45 fc             	mov    -0x4(%rbp),%eax
    f68d:	89 c2                	mov    %eax,%edx
    f68f:	48 8d 35 da 1f 00 00 	lea    0x1fda(%rip),%rsi        # 11670 <g_1404+0x5f0>
    f696:	48 89 cf             	mov    %rcx,%rdi
    f699:	e8 55 70 ff ff       	callq  66f3 <transparent_crc>
    f69e:	8b 05 74 8d 00 00    	mov    0x8d74(%rip),%eax        # 18418 <g_534>
    f6a4:	48 98                	cltq   
    f6a6:	8b 55 fc             	mov    -0x4(%rbp),%edx
    f6a9:	48 8d 35 c6 1f 00 00 	lea    0x1fc6(%rip),%rsi        # 11676 <g_1404+0x5f6>
    f6b0:	48 89 c7             	mov    %rax,%rdi
    f6b3:	e8 3b 70 ff ff       	callq  66f3 <transparent_crc>
    f6b8:	48 8b 05 d9 66 00 00 	mov    0x66d9(%rip),%rax        # 15d98 <g_562>
    f6bf:	48 89 c1             	mov    %rax,%rcx
    f6c2:	8b 45 fc             	mov    -0x4(%rbp),%eax
    f6c5:	89 c2                	mov    %eax,%edx
    f6c7:	48 8d 35 ae 1f 00 00 	lea    0x1fae(%rip),%rsi        # 1167c <g_1404+0x5fc>
    f6ce:	48 89 cf             	mov    %rcx,%rdi
    f6d1:	e8 1d 70 ff ff       	callq  66f3 <transparent_crc>
    f6d6:	0f b6 05 c3 66 00 00 	movzbl 0x66c3(%rip),%eax        # 15da0 <g_607>
    f6dd:	48 0f be c0          	movsbq %al,%rax
    f6e1:	8b 55 fc             	mov    -0x4(%rbp),%edx
    f6e4:	48 8d 35 97 1f 00 00 	lea    0x1f97(%rip),%rsi        # 11682 <g_1404+0x602>
    f6eb:	48 89 c7             	mov    %rax,%rdi
    f6ee:	e8 00 70 ff ff       	callq  66f3 <transparent_crc>
    f6f3:	0f b7 05 b6 66 00 00 	movzwl 0x66b6(%rip),%eax        # 15db0 <g_644>
    f6fa:	c1 e0 03             	shl    $0x3,%eax
    f6fd:	66 c1 f8 03          	sar    $0x3,%ax
    f701:	48 0f bf c0          	movswq %ax,%rax
    f705:	8b 55 fc             	mov    -0x4(%rbp),%edx
    f708:	48 8d 35 79 1f 00 00 	lea    0x1f79(%rip),%rsi        # 11688 <g_1404+0x608>
    f70f:	48 89 c7             	mov    %rax,%rdi
    f712:	e8 dc 6f ff ff       	callq  66f3 <transparent_crc>
    f717:	8b 05 93 66 00 00    	mov    0x6693(%rip),%eax        # 15db0 <g_644>
    f71d:	c1 e8 0d             	shr    $0xd,%eax
    f720:	66 25 ff 3f          	and    $0x3fff,%ax
    f724:	0f b7 c0             	movzwl %ax,%eax
    f727:	8b 55 fc             	mov    -0x4(%rbp),%edx
    f72a:	48 8d 35 60 1f 00 00 	lea    0x1f60(%rip),%rsi        # 11691 <g_1404+0x611>
    f731:	48 89 c7             	mov    %rax,%rdi
    f734:	e8 ba 6f ff ff       	callq  66f3 <transparent_crc>
    f739:	0f b7 05 74 66 00 00 	movzwl 0x6674(%rip),%eax        # 15db4 <g_644+0x4>
    f740:	0f b7 c0             	movzwl %ax,%eax
    f743:	8b 55 fc             	mov    -0x4(%rbp),%edx
    f746:	48 8d 35 4d 1f 00 00 	lea    0x1f4d(%rip),%rsi        # 1169a <g_1404+0x61a>
    f74d:	48 89 c7             	mov    %rax,%rdi
    f750:	e8 9e 6f ff ff       	callq  66f3 <transparent_crc>
    f755:	0f b6 05 5c 66 00 00 	movzbl 0x665c(%rip),%eax        # 15db8 <g_644+0x8>
    f75c:	c1 e0 03             	shl    $0x3,%eax
    f75f:	c0 f8 03             	sar    $0x3,%al
    f762:	48 0f be c0          	movsbq %al,%rax
    f766:	8b 55 fc             	mov    -0x4(%rbp),%edx
    f769:	48 8d 35 33 1f 00 00 	lea    0x1f33(%rip),%rsi        # 116a3 <g_1404+0x623>
    f770:	48 89 c7             	mov    %rax,%rdi
    f773:	e8 7b 6f ff ff       	callq  66f3 <transparent_crc>
    f778:	48 8b 05 39 66 00 00 	mov    0x6639(%rip),%rax        # 15db8 <g_644+0x8>
    f77f:	48 c1 e0 1e          	shl    $0x1e,%rax
    f783:	48 c1 f8 23          	sar    $0x23,%rax
    f787:	48 98                	cltq   
    f789:	8b 55 fc             	mov    -0x4(%rbp),%edx
    f78c:	48 8d 35 19 1f 00 00 	lea    0x1f19(%rip),%rsi        # 116ac <g_1404+0x62c>
    f793:	48 89 c7             	mov    %rax,%rdi
    f796:	e8 58 6f ff ff       	callq  66f3 <transparent_crc>
    f79b:	0f b7 05 1a 66 00 00 	movzwl 0x661a(%rip),%eax        # 15dbc <g_644+0xc>
    f7a2:	66 c1 e8 02          	shr    $0x2,%ax
    f7a6:	66 25 ff 03          	and    $0x3ff,%ax
    f7aa:	0f b7 c0             	movzwl %ax,%eax
    f7ad:	8b 55 fc             	mov    -0x4(%rbp),%edx
    f7b0:	48 8d 35 fe 1e 00 00 	lea    0x1efe(%rip),%rsi        # 116b5 <g_1404+0x635>
    f7b7:	48 89 c7             	mov    %rax,%rdi
    f7ba:	e8 34 6f ff ff       	callq  66f3 <transparent_crc>
    f7bf:	48 8b 05 f2 65 00 00 	mov    0x65f2(%rip),%rax        # 15db8 <g_644+0x8>
    f7c6:	48 c1 e8 2c          	shr    $0x2c,%rax
    f7ca:	48 89 c2             	mov    %rax,%rdx
    f7cd:	48 8b 05 ec 65 00 00 	mov    0x65ec(%rip),%rax        # 15dc0 <g_644+0x10>
    f7d4:	83 e0 7f             	and    $0x7f,%eax
    f7d7:	48 c1 e0 14          	shl    $0x14,%rax
    f7db:	48 09 d0             	or     %rdx,%rax
    f7de:	89 c1                	mov    %eax,%ecx
    f7e0:	8b 45 fc             	mov    -0x4(%rbp),%eax
    f7e3:	89 c2                	mov    %eax,%edx
    f7e5:	48 8d 35 d2 1e 00 00 	lea    0x1ed2(%rip),%rsi        # 116be <g_1404+0x63e>
    f7ec:	48 89 cf             	mov    %rcx,%rdi
    f7ef:	e8 ff 6e ff ff       	callq  66f3 <transparent_crc>
    f7f4:	0f b7 05 d5 65 00 00 	movzwl 0x65d5(%rip),%eax        # 15dd0 <g_645>
    f7fb:	c1 e0 03             	shl    $0x3,%eax
    f7fe:	66 c1 f8 03          	sar    $0x3,%ax
    f802:	48 0f bf c0          	movswq %ax,%rax
    f806:	8b 55 fc             	mov    -0x4(%rbp),%edx
    f809:	48 8d 35 b7 1e 00 00 	lea    0x1eb7(%rip),%rsi        # 116c7 <g_1404+0x647>
    f810:	48 89 c7             	mov    %rax,%rdi
    f813:	e8 db 6e ff ff       	callq  66f3 <transparent_crc>
    f818:	8b 05 b2 65 00 00    	mov    0x65b2(%rip),%eax        # 15dd0 <g_645>
    f81e:	c1 e8 0d             	shr    $0xd,%eax
    f821:	66 25 ff 3f          	and    $0x3fff,%ax
    f825:	0f b7 c0             	movzwl %ax,%eax
    f828:	8b 55 fc             	mov    -0x4(%rbp),%edx
    f82b:	48 8d 35 9e 1e 00 00 	lea    0x1e9e(%rip),%rsi        # 116d0 <g_1404+0x650>
    f832:	48 89 c7             	mov    %rax,%rdi
    f835:	e8 b9 6e ff ff       	callq  66f3 <transparent_crc>
    f83a:	0f b7 05 93 65 00 00 	movzwl 0x6593(%rip),%eax        # 15dd4 <g_645+0x4>
    f841:	0f b7 c0             	movzwl %ax,%eax
    f844:	8b 55 fc             	mov    -0x4(%rbp),%edx
    f847:	48 8d 35 8b 1e 00 00 	lea    0x1e8b(%rip),%rsi        # 116d9 <g_1404+0x659>
    f84e:	48 89 c7             	mov    %rax,%rdi
    f851:	e8 9d 6e ff ff       	callq  66f3 <transparent_crc>
    f856:	0f b6 05 7b 65 00 00 	movzbl 0x657b(%rip),%eax        # 15dd8 <g_645+0x8>
    f85d:	c1 e0 03             	shl    $0x3,%eax
    f860:	c0 f8 03             	sar    $0x3,%al
    f863:	48 0f be c0          	movsbq %al,%rax
    f867:	8b 55 fc             	mov    -0x4(%rbp),%edx
    f86a:	48 8d 35 71 1e 00 00 	lea    0x1e71(%rip),%rsi        # 116e2 <g_1404+0x662>
    f871:	48 89 c7             	mov    %rax,%rdi
    f874:	e8 7a 6e ff ff       	callq  66f3 <transparent_crc>
    f879:	48 8b 05 58 65 00 00 	mov    0x6558(%rip),%rax        # 15dd8 <g_645+0x8>
    f880:	48 c1 e0 1e          	shl    $0x1e,%rax
    f884:	48 c1 f8 23          	sar    $0x23,%rax
    f888:	48 98                	cltq   
    f88a:	8b 55 fc             	mov    -0x4(%rbp),%edx
    f88d:	48 8d 35 57 1e 00 00 	lea    0x1e57(%rip),%rsi        # 116eb <g_1404+0x66b>
    f894:	48 89 c7             	mov    %rax,%rdi
    f897:	e8 57 6e ff ff       	callq  66f3 <transparent_crc>
    f89c:	0f b7 05 39 65 00 00 	movzwl 0x6539(%rip),%eax        # 15ddc <g_645+0xc>
    f8a3:	66 c1 e8 02          	shr    $0x2,%ax
    f8a7:	66 25 ff 03          	and    $0x3ff,%ax
    f8ab:	0f b7 c0             	movzwl %ax,%eax
    f8ae:	8b 55 fc             	mov    -0x4(%rbp),%edx
    f8b1:	48 8d 35 3c 1e 00 00 	lea    0x1e3c(%rip),%rsi        # 116f4 <g_1404+0x674>
    f8b8:	48 89 c7             	mov    %rax,%rdi
    f8bb:	e8 33 6e ff ff       	callq  66f3 <transparent_crc>
    f8c0:	48 8b 05 11 65 00 00 	mov    0x6511(%rip),%rax        # 15dd8 <g_645+0x8>
    f8c7:	48 c1 e8 2c          	shr    $0x2c,%rax
    f8cb:	48 89 c2             	mov    %rax,%rdx
    f8ce:	48 8b 05 0b 65 00 00 	mov    0x650b(%rip),%rax        # 15de0 <g_645+0x10>
    f8d5:	83 e0 7f             	and    $0x7f,%eax
    f8d8:	48 c1 e0 14          	shl    $0x14,%rax
    f8dc:	48 09 d0             	or     %rdx,%rax
    f8df:	89 c1                	mov    %eax,%ecx
    f8e1:	8b 45 fc             	mov    -0x4(%rbp),%eax
    f8e4:	89 c2                	mov    %eax,%edx
    f8e6:	48 8d 35 10 1e 00 00 	lea    0x1e10(%rip),%rsi        # 116fd <g_1404+0x67d>
    f8ed:	48 89 cf             	mov    %rcx,%rdi
    f8f0:	e8 fe 6d ff ff       	callq  66f3 <transparent_crc>
    f8f5:	c7 45 f0 00 00 00 00 	movl   $0x0,-0x10(%rbp)
    f8fc:	e9 42 02 00 00       	jmpq   fb43 <main+0x1007>
    f901:	8b 45 f0             	mov    -0x10(%rbp),%eax
    f904:	48 63 d0             	movslq %eax,%rdx
    f907:	48 89 d0             	mov    %rdx,%rax
    f90a:	48 c1 e0 04          	shl    $0x4,%rax
    f90e:	48 01 c2             	add    %rax,%rdx
    f911:	48 8d 05 e8 64 00 00 	lea    0x64e8(%rip),%rax        # 15e00 <g_646>
    f918:	0f b6 0c 02          	movzbl (%rdx,%rax,1),%ecx
    f91c:	0f b6 44 02 01       	movzbl 0x1(%rdx,%rax,1),%eax
    f921:	83 e0 1f             	and    $0x1f,%eax
    f924:	48 c1 e0 08          	shl    $0x8,%rax
    f928:	48 09 c8             	or     %rcx,%rax
    f92b:	48 c1 e0 33          	shl    $0x33,%rax
    f92f:	48 c1 f8 33          	sar    $0x33,%rax
    f933:	48 0f bf c0          	movswq %ax,%rax
    f937:	8b 55 fc             	mov    -0x4(%rbp),%edx
    f93a:	48 8d 35 c5 1d 00 00 	lea    0x1dc5(%rip),%rsi        # 11706 <g_1404+0x686>
    f941:	48 89 c7             	mov    %rax,%rdi
    f944:	e8 aa 6d ff ff       	callq  66f3 <transparent_crc>
    f949:	8b 45 f0             	mov    -0x10(%rbp),%eax
    f94c:	48 63 d0             	movslq %eax,%rdx
    f94f:	48 89 d0             	mov    %rdx,%rax
    f952:	48 c1 e0 04          	shl    $0x4,%rax
    f956:	48 01 c2             	add    %rax,%rdx
    f959:	48 8d 05 a0 64 00 00 	lea    0x64a0(%rip),%rax        # 15e00 <g_646>
    f960:	0f b6 4c 02 01       	movzbl 0x1(%rdx,%rax,1),%ecx
    f965:	c0 e9 05             	shr    $0x5,%cl
    f968:	0f b6 c9             	movzbl %cl,%ecx
    f96b:	0f b6 74 02 02       	movzbl 0x2(%rdx,%rax,1),%esi
    f970:	48 c1 e6 03          	shl    $0x3,%rsi
    f974:	48 09 f1             	or     %rsi,%rcx
    f977:	0f b6 44 02 03       	movzbl 0x3(%rdx,%rax,1),%eax
    f97c:	83 e0 07             	and    $0x7,%eax
    f97f:	48 c1 e0 0b          	shl    $0xb,%rax
    f983:	48 09 c8             	or     %rcx,%rax
    f986:	0f b7 c0             	movzwl %ax,%eax
    f989:	8b 55 fc             	mov    -0x4(%rbp),%edx
    f98c:	48 8d 35 7f 1d 00 00 	lea    0x1d7f(%rip),%rsi        # 11712 <g_1404+0x692>
    f993:	48 89 c7             	mov    %rax,%rdi
    f996:	e8 58 6d ff ff       	callq  66f3 <transparent_crc>
    f99b:	8b 45 f0             	mov    -0x10(%rbp),%eax
    f99e:	48 63 d0             	movslq %eax,%rdx
    f9a1:	48 89 d0             	mov    %rdx,%rax
    f9a4:	48 c1 e0 04          	shl    $0x4,%rax
    f9a8:	48 01 c2             	add    %rax,%rdx
    f9ab:	48 8d 05 52 64 00 00 	lea    0x6452(%rip),%rax        # 15e04 <g_646+0x4>
    f9b2:	0f b7 04 02          	movzwl (%rdx,%rax,1),%eax
    f9b6:	0f b7 c0             	movzwl %ax,%eax
    f9b9:	8b 55 fc             	mov    -0x4(%rbp),%edx
    f9bc:	48 8d 35 5b 1d 00 00 	lea    0x1d5b(%rip),%rsi        # 1171e <g_1404+0x69e>
    f9c3:	48 89 c7             	mov    %rax,%rdi
    f9c6:	e8 28 6d ff ff       	callq  66f3 <transparent_crc>
    f9cb:	8b 45 f0             	mov    -0x10(%rbp),%eax
    f9ce:	48 63 d0             	movslq %eax,%rdx
    f9d1:	48 89 d0             	mov    %rdx,%rax
    f9d4:	48 c1 e0 04          	shl    $0x4,%rax
    f9d8:	48 01 c2             	add    %rax,%rdx
    f9db:	48 8d 05 1e 64 00 00 	lea    0x641e(%rip),%rax        # 15e00 <g_646>
    f9e2:	0f b6 44 02 08       	movzbl 0x8(%rdx,%rax,1),%eax
    f9e7:	c1 e0 03             	shl    $0x3,%eax
    f9ea:	c0 f8 03             	sar    $0x3,%al
    f9ed:	48 0f be c0          	movsbq %al,%rax
    f9f1:	8b 55 fc             	mov    -0x4(%rbp),%edx
    f9f4:	48 8d 35 2f 1d 00 00 	lea    0x1d2f(%rip),%rsi        # 1172a <g_1404+0x6aa>
    f9fb:	48 89 c7             	mov    %rax,%rdi
    f9fe:	e8 f0 6c ff ff       	callq  66f3 <transparent_crc>
    fa03:	8b 45 f0             	mov    -0x10(%rbp),%eax
    fa06:	48 63 d0             	movslq %eax,%rdx
    fa09:	48 89 d0             	mov    %rdx,%rax
    fa0c:	48 c1 e0 04          	shl    $0x4,%rax
    fa10:	48 01 c2             	add    %rax,%rdx
    fa13:	48 8d 05 e6 63 00 00 	lea    0x63e6(%rip),%rax        # 15e00 <g_646>
    fa1a:	0f b6 4c 02 08       	movzbl 0x8(%rdx,%rax,1),%ecx
    fa1f:	c0 e9 05             	shr    $0x5,%cl
    fa22:	0f b6 c9             	movzbl %cl,%ecx
    fa25:	0f b6 74 02 09       	movzbl 0x9(%rdx,%rax,1),%esi
    fa2a:	48 c1 e6 03          	shl    $0x3,%rsi
    fa2e:	48 09 ce             	or     %rcx,%rsi
    fa31:	0f b6 4c 02 0a       	movzbl 0xa(%rdx,%rax,1),%ecx
    fa36:	48 c1 e1 0b          	shl    $0xb,%rcx
    fa3a:	48 09 ce             	or     %rcx,%rsi
    fa3d:	0f b6 4c 02 0b       	movzbl 0xb(%rdx,%rax,1),%ecx
    fa42:	48 c1 e1 13          	shl    $0x13,%rcx
    fa46:	48 09 f1             	or     %rsi,%rcx
    fa49:	0f b6 44 02 0c       	movzbl 0xc(%rdx,%rax,1),%eax
    fa4e:	83 e0 03             	and    $0x3,%eax
    fa51:	48 c1 e0 1b          	shl    $0x1b,%rax
    fa55:	48 09 c8             	or     %rcx,%rax
    fa58:	48 c1 e0 23          	shl    $0x23,%rax
    fa5c:	48 c1 f8 23          	sar    $0x23,%rax
    fa60:	48 98                	cltq   
    fa62:	8b 55 fc             	mov    -0x4(%rbp),%edx
    fa65:	48 8d 35 ca 1c 00 00 	lea    0x1cca(%rip),%rsi        # 11736 <g_1404+0x6b6>
    fa6c:	48 89 c7             	mov    %rax,%rdi
    fa6f:	e8 7f 6c ff ff       	callq  66f3 <transparent_crc>
    fa74:	8b 45 f0             	mov    -0x10(%rbp),%eax
    fa77:	48 63 d0             	movslq %eax,%rdx
    fa7a:	48 89 d0             	mov    %rdx,%rax
    fa7d:	48 c1 e0 04          	shl    $0x4,%rax
    fa81:	48 01 c2             	add    %rax,%rdx
    fa84:	48 8d 05 75 63 00 00 	lea    0x6375(%rip),%rax        # 15e00 <g_646>
    fa8b:	0f b6 4c 02 0c       	movzbl 0xc(%rdx,%rax,1),%ecx
    fa90:	c0 e9 02             	shr    $0x2,%cl
    fa93:	0f b6 c9             	movzbl %cl,%ecx
    fa96:	0f b6 44 02 0d       	movzbl 0xd(%rdx,%rax,1),%eax
    fa9b:	83 e0 0f             	and    $0xf,%eax
    fa9e:	48 c1 e0 06          	shl    $0x6,%rax
    faa2:	48 09 c8             	or     %rcx,%rax
    faa5:	0f b7 c0             	movzwl %ax,%eax
    faa8:	8b 55 fc             	mov    -0x4(%rbp),%edx
    faab:	48 8d 35 90 1c 00 00 	lea    0x1c90(%rip),%rsi        # 11742 <g_1404+0x6c2>
    fab2:	48 89 c7             	mov    %rax,%rdi
    fab5:	e8 39 6c ff ff       	callq  66f3 <transparent_crc>
    faba:	8b 45 f0             	mov    -0x10(%rbp),%eax
    fabd:	48 63 d0             	movslq %eax,%rdx
    fac0:	48 89 d0             	mov    %rdx,%rax
    fac3:	48 c1 e0 04          	shl    $0x4,%rax
    fac7:	48 01 c2             	add    %rax,%rdx
    faca:	48 8d 05 2f 63 00 00 	lea    0x632f(%rip),%rax        # 15e00 <g_646>
    fad1:	0f b6 4c 02 0d       	movzbl 0xd(%rdx,%rax,1),%ecx
    fad6:	c0 e9 04             	shr    $0x4,%cl
    fad9:	0f b6 c9             	movzbl %cl,%ecx
    fadc:	0f b6 74 02 0e       	movzbl 0xe(%rdx,%rax,1),%esi
    fae1:	40 0f b6 f6          	movzbl %sil,%esi
    fae5:	48 c1 e6 04          	shl    $0x4,%rsi
    fae9:	48 09 ce             	or     %rcx,%rsi
    faec:	0f b6 4c 02 0f       	movzbl 0xf(%rdx,%rax,1),%ecx
    faf1:	0f b6 c9             	movzbl %cl,%ecx
    faf4:	48 c1 e1 0c          	shl    $0xc,%rcx
    faf8:	48 09 f1             	or     %rsi,%rcx
    fafb:	0f b6 44 02 10       	movzbl 0x10(%rdx,%rax,1),%eax
    fb00:	0f b6 c0             	movzbl %al,%eax
    fb03:	83 e0 7f             	and    $0x7f,%eax
    fb06:	48 c1 e0 14          	shl    $0x14,%rax
    fb0a:	48 09 c8             	or     %rcx,%rax
    fb0d:	89 c1                	mov    %eax,%ecx
    fb0f:	8b 45 fc             	mov    -0x4(%rbp),%eax
    fb12:	89 c2                	mov    %eax,%edx
    fb14:	48 8d 35 33 1c 00 00 	lea    0x1c33(%rip),%rsi        # 1174e <g_1404+0x6ce>
    fb1b:	48 89 cf             	mov    %rcx,%rdi
    fb1e:	e8 d0 6b ff ff       	callq  66f3 <transparent_crc>
    fb23:	83 7d fc 00          	cmpl   $0x0,-0x4(%rbp)
    fb27:	74 16                	je     fb3f <main+0x1003>
    fb29:	8b 45 f0             	mov    -0x10(%rbp),%eax
    fb2c:	89 c6                	mov    %eax,%esi
    fb2e:	48 8d 3d 2c 19 00 00 	lea    0x192c(%rip),%rdi        # 11461 <g_1404+0x3e1>
    fb35:	b8 00 00 00 00       	mov    $0x0,%eax
    fb3a:	e8 41 55 ff ff       	callq  5080 <printf@plt>
    fb3f:	83 45 f0 01          	addl   $0x1,-0x10(%rbp)
    fb43:	83 7d f0 08          	cmpl   $0x8,-0x10(%rbp)
    fb47:	0f 8e b4 fd ff ff    	jle    f901 <main+0xdc5>
    fb4d:	0f b7 05 46 63 00 00 	movzwl 0x6346(%rip),%eax        # 15e9a <g_782>
    fb54:	48 0f bf c0          	movswq %ax,%rax
    fb58:	8b 55 fc             	mov    -0x4(%rbp),%edx
    fb5b:	48 8d 35 f8 1b 00 00 	lea    0x1bf8(%rip),%rsi        # 1175a <g_1404+0x6da>
    fb62:	48 89 c7             	mov    %rax,%rdi
    fb65:	e8 89 6b ff ff       	callq  66f3 <transparent_crc>
    fb6a:	0f b7 05 2b 63 00 00 	movzwl 0x632b(%rip),%eax        # 15e9c <g_808>
    fb71:	48 0f bf c0          	movswq %ax,%rax
    fb75:	8b 55 fc             	mov    -0x4(%rbp),%edx
    fb78:	48 8d 35 e1 1b 00 00 	lea    0x1be1(%rip),%rsi        # 11760 <g_1404+0x6e0>
    fb7f:	48 89 c7             	mov    %rax,%rdi
    fb82:	e8 6c 6b ff ff       	callq  66f3 <transparent_crc>
    fb87:	0f b6 05 10 63 00 00 	movzbl 0x6310(%rip),%eax        # 15e9e <g_838>
    fb8e:	0f b6 c0             	movzbl %al,%eax
    fb91:	8b 55 fc             	mov    -0x4(%rbp),%edx
    fb94:	48 8d 35 cb 1b 00 00 	lea    0x1bcb(%rip),%rsi        # 11766 <g_1404+0x6e6>
    fb9b:	48 89 c7             	mov    %rax,%rdi
    fb9e:	e8 50 6b ff ff       	callq  66f3 <transparent_crc>
    fba3:	c7 45 f0 00 00 00 00 	movl   $0x0,-0x10(%rbp)
    fbaa:	e9 96 00 00 00       	jmpq   fc45 <main+0x1109>
    fbaf:	c7 45 f4 00 00 00 00 	movl   $0x0,-0xc(%rbp)
    fbb6:	eb 7f                	jmp    fc37 <main+0x10fb>
    fbb8:	c7 45 f8 00 00 00 00 	movl   $0x0,-0x8(%rbp)
    fbbf:	eb 6c                	jmp    fc2d <main+0x10f1>
    fbc1:	8b 45 f8             	mov    -0x8(%rbp),%eax
    fbc4:	48 98                	cltq   
    fbc6:	8b 55 f0             	mov    -0x10(%rbp),%edx
    fbc9:	48 63 ca             	movslq %edx,%rcx
    fbcc:	8b 55 f4             	mov    -0xc(%rbp),%edx
    fbcf:	48 63 d2             	movslq %edx,%rdx
    fbd2:	48 c1 e1 02          	shl    $0x2,%rcx
    fbd6:	48 01 ca             	add    %rcx,%rdx
    fbd9:	48 01 d2             	add    %rdx,%rdx
    fbdc:	48 01 d0             	add    %rdx,%rax
    fbdf:	48 8d 14 85 00 00 00 	lea    0x0(,%rax,4),%rdx
    fbe6:	00 
    fbe7:	48 8d 05 b2 62 00 00 	lea    0x62b2(%rip),%rax        # 15ea0 <g_903>
    fbee:	8b 04 02             	mov    (%rdx,%rax,1),%eax
    fbf1:	89 c1                	mov    %eax,%ecx
    fbf3:	8b 45 fc             	mov    -0x4(%rbp),%eax
    fbf6:	89 c2                	mov    %eax,%edx
    fbf8:	48 8d 35 6d 1b 00 00 	lea    0x1b6d(%rip),%rsi        # 1176c <g_1404+0x6ec>
    fbff:	48 89 cf             	mov    %rcx,%rdi
    fc02:	e8 ec 6a ff ff       	callq  66f3 <transparent_crc>
    fc07:	83 7d fc 00          	cmpl   $0x0,-0x4(%rbp)
    fc0b:	74 1c                	je     fc29 <main+0x10ed>
    fc0d:	8b 4d f8             	mov    -0x8(%rbp),%ecx
    fc10:	8b 55 f4             	mov    -0xc(%rbp),%edx
    fc13:	8b 45 f0             	mov    -0x10(%rbp),%eax
    fc16:	89 c6                	mov    %eax,%esi
    fc18:	48 8d 3d 69 19 00 00 	lea    0x1969(%rip),%rdi        # 11588 <g_1404+0x508>
    fc1f:	b8 00 00 00 00       	mov    $0x0,%eax
    fc24:	e8 57 54 ff ff       	callq  5080 <printf@plt>
    fc29:	83 45 f8 01          	addl   $0x1,-0x8(%rbp)
    fc2d:	83 7d f8 01          	cmpl   $0x1,-0x8(%rbp)
    fc31:	7e 8e                	jle    fbc1 <main+0x1085>
    fc33:	83 45 f4 01          	addl   $0x1,-0xc(%rbp)
    fc37:	83 7d f4 03          	cmpl   $0x3,-0xc(%rbp)
    fc3b:	0f 8e 77 ff ff ff    	jle    fbb8 <main+0x107c>
    fc41:	83 45 f0 01          	addl   $0x1,-0x10(%rbp)
    fc45:	83 7d f0 01          	cmpl   $0x1,-0x10(%rbp)
    fc49:	0f 8e 60 ff ff ff    	jle    fbaf <main+0x1073>
    fc4f:	48 8b 05 8a 62 00 00 	mov    0x628a(%rip),%rax        # 15ee0 <g_937>
    fc56:	c1 e0 03             	shl    $0x3,%eax
    fc59:	66 c1 f8 03          	sar    $0x3,%ax
    fc5d:	48 0f bf c0          	movswq %ax,%rax
    fc61:	8b 55 fc             	mov    -0x4(%rbp),%edx
    fc64:	48 8d 35 10 1b 00 00 	lea    0x1b10(%rip),%rsi        # 1177b <g_1404+0x6fb>
    fc6b:	48 89 c7             	mov    %rax,%rdi
    fc6e:	e8 80 6a ff ff       	callq  66f3 <transparent_crc>
    fc73:	48 8b 05 66 62 00 00 	mov    0x6266(%rip),%rax        # 15ee0 <g_937>
    fc7a:	48 c1 e8 0d          	shr    $0xd,%rax
    fc7e:	66 25 ff 3f          	and    $0x3fff,%ax
    fc82:	0f b7 c0             	movzwl %ax,%eax
    fc85:	8b 55 fc             	mov    -0x4(%rbp),%edx
    fc88:	48 8d 35 f5 1a 00 00 	lea    0x1af5(%rip),%rsi        # 11784 <g_1404+0x704>
    fc8f:	48 89 c7             	mov    %rax,%rdi
    fc92:	e8 5c 6a ff ff       	callq  66f3 <transparent_crc>
    fc97:	0f b7 05 46 62 00 00 	movzwl 0x6246(%rip),%eax        # 15ee4 <g_937+0x4>
    fc9e:	0f b7 c0             	movzwl %ax,%eax
    fca1:	8b 55 fc             	mov    -0x4(%rbp),%edx
    fca4:	48 8d 35 e2 1a 00 00 	lea    0x1ae2(%rip),%rsi        # 1178d <g_1404+0x70d>
    fcab:	48 89 c7             	mov    %rax,%rdi
    fcae:	e8 40 6a ff ff       	callq  66f3 <transparent_crc>
    fcb3:	48 8b 05 2e 62 00 00 	mov    0x622e(%rip),%rax        # 15ee8 <g_937+0x8>
    fcba:	c1 e0 03             	shl    $0x3,%eax
    fcbd:	c0 f8 03             	sar    $0x3,%al
    fcc0:	48 0f be c0          	movsbq %al,%rax
    fcc4:	8b 55 fc             	mov    -0x4(%rbp),%edx
    fcc7:	48 8d 35 c8 1a 00 00 	lea    0x1ac8(%rip),%rsi        # 11796 <g_1404+0x716>
    fcce:	48 89 c7             	mov    %rax,%rdi
    fcd1:	e8 1d 6a ff ff       	callq  66f3 <transparent_crc>
    fcd6:	48 8b 05 0b 62 00 00 	mov    0x620b(%rip),%rax        # 15ee8 <g_937+0x8>
    fcdd:	48 c1 e0 1e          	shl    $0x1e,%rax
    fce1:	48 c1 f8 23          	sar    $0x23,%rax
    fce5:	48 98                	cltq   
    fce7:	8b 55 fc             	mov    -0x4(%rbp),%edx
    fcea:	48 8d 35 ae 1a 00 00 	lea    0x1aae(%rip),%rsi        # 1179f <g_1404+0x71f>
    fcf1:	48 89 c7             	mov    %rax,%rdi
    fcf4:	e8 fa 69 ff ff       	callq  66f3 <transparent_crc>
    fcf9:	48 8b 05 e8 61 00 00 	mov    0x61e8(%rip),%rax        # 15ee8 <g_937+0x8>
    fd00:	48 c1 e8 22          	shr    $0x22,%rax
    fd04:	66 25 ff 03          	and    $0x3ff,%ax
    fd08:	0f b7 c0             	movzwl %ax,%eax
    fd0b:	8b 55 fc             	mov    -0x4(%rbp),%edx
    fd0e:	48 8d 35 93 1a 00 00 	lea    0x1a93(%rip),%rsi        # 117a8 <g_1404+0x728>
    fd15:	48 89 c7             	mov    %rax,%rdi
    fd18:	e8 d6 69 ff ff       	callq  66f3 <transparent_crc>
    fd1d:	48 8b 05 c4 61 00 00 	mov    0x61c4(%rip),%rax        # 15ee8 <g_937+0x8>
    fd24:	48 c1 e8 2c          	shr    $0x2c,%rax
    fd28:	48 89 c2             	mov    %rax,%rdx
    fd2b:	48 8b 05 be 61 00 00 	mov    0x61be(%rip),%rax        # 15ef0 <g_937+0x10>
    fd32:	83 e0 7f             	and    $0x7f,%eax
    fd35:	48 c1 e0 14          	shl    $0x14,%rax
    fd39:	48 09 d0             	or     %rdx,%rax
    fd3c:	89 c1                	mov    %eax,%ecx
    fd3e:	8b 45 fc             	mov    -0x4(%rbp),%eax
    fd41:	89 c2                	mov    %eax,%edx
    fd43:	48 8d 35 67 1a 00 00 	lea    0x1a67(%rip),%rsi        # 117b1 <g_1404+0x731>
    fd4a:	48 89 cf             	mov    %rcx,%rdi
    fd4d:	e8 a1 69 ff ff       	callq  66f3 <transparent_crc>
    fd52:	0f b7 05 a7 61 00 00 	movzwl 0x61a7(%rip),%eax        # 15f00 <g_971>
    fd59:	c1 e0 03             	shl    $0x3,%eax
    fd5c:	66 c1 f8 03          	sar    $0x3,%ax
    fd60:	48 0f bf c0          	movswq %ax,%rax
    fd64:	8b 55 fc             	mov    -0x4(%rbp),%edx
    fd67:	48 8d 35 4c 1a 00 00 	lea    0x1a4c(%rip),%rsi        # 117ba <g_1404+0x73a>
    fd6e:	48 89 c7             	mov    %rax,%rdi
    fd71:	e8 7d 69 ff ff       	callq  66f3 <transparent_crc>
    fd76:	8b 05 84 61 00 00    	mov    0x6184(%rip),%eax        # 15f00 <g_971>
    fd7c:	c1 e8 0d             	shr    $0xd,%eax
    fd7f:	66 25 ff 3f          	and    $0x3fff,%ax
    fd83:	0f b7 c0             	movzwl %ax,%eax
    fd86:	8b 55 fc             	mov    -0x4(%rbp),%edx
    fd89:	48 8d 35 33 1a 00 00 	lea    0x1a33(%rip),%rsi        # 117c3 <g_1404+0x743>
    fd90:	48 89 c7             	mov    %rax,%rdi
    fd93:	e8 5b 69 ff ff       	callq  66f3 <transparent_crc>
    fd98:	0f b7 05 65 61 00 00 	movzwl 0x6165(%rip),%eax        # 15f04 <g_971+0x4>
    fd9f:	0f b7 c0             	movzwl %ax,%eax
    fda2:	8b 55 fc             	mov    -0x4(%rbp),%edx
    fda5:	48 8d 35 20 1a 00 00 	lea    0x1a20(%rip),%rsi        # 117cc <g_1404+0x74c>
    fdac:	48 89 c7             	mov    %rax,%rdi
    fdaf:	e8 3f 69 ff ff       	callq  66f3 <transparent_crc>
    fdb4:	0f b6 05 4d 61 00 00 	movzbl 0x614d(%rip),%eax        # 15f08 <g_971+0x8>
    fdbb:	c1 e0 03             	shl    $0x3,%eax
    fdbe:	c0 f8 03             	sar    $0x3,%al
    fdc1:	48 0f be c0          	movsbq %al,%rax
    fdc5:	8b 55 fc             	mov    -0x4(%rbp),%edx
    fdc8:	48 8d 35 06 1a 00 00 	lea    0x1a06(%rip),%rsi        # 117d5 <g_1404+0x755>
    fdcf:	48 89 c7             	mov    %rax,%rdi
    fdd2:	e8 1c 69 ff ff       	callq  66f3 <transparent_crc>
    fdd7:	48 8b 05 2a 61 00 00 	mov    0x612a(%rip),%rax        # 15f08 <g_971+0x8>
    fdde:	48 c1 e0 1e          	shl    $0x1e,%rax
    fde2:	48 c1 f8 23          	sar    $0x23,%rax
    fde6:	48 98                	cltq   
    fde8:	8b 55 fc             	mov    -0x4(%rbp),%edx
    fdeb:	48 8d 35 ec 19 00 00 	lea    0x19ec(%rip),%rsi        # 117de <g_1404+0x75e>
    fdf2:	48 89 c7             	mov    %rax,%rdi
    fdf5:	e8 f9 68 ff ff       	callq  66f3 <transparent_crc>
    fdfa:	0f b7 05 0b 61 00 00 	movzwl 0x610b(%rip),%eax        # 15f0c <g_971+0xc>
    fe01:	66 c1 e8 02          	shr    $0x2,%ax
    fe05:	66 25 ff 03          	and    $0x3ff,%ax
    fe09:	0f b7 c0             	movzwl %ax,%eax
    fe0c:	8b 55 fc             	mov    -0x4(%rbp),%edx
    fe0f:	48 8d 35 d1 19 00 00 	lea    0x19d1(%rip),%rsi        # 117e7 <g_1404+0x767>
    fe16:	48 89 c7             	mov    %rax,%rdi
    fe19:	e8 d5 68 ff ff       	callq  66f3 <transparent_crc>
    fe1e:	48 8b 05 e3 60 00 00 	mov    0x60e3(%rip),%rax        # 15f08 <g_971+0x8>
    fe25:	48 c1 e8 2c          	shr    $0x2c,%rax
    fe29:	48 89 c2             	mov    %rax,%rdx
    fe2c:	48 8b 05 dd 60 00 00 	mov    0x60dd(%rip),%rax        # 15f10 <g_971+0x10>
    fe33:	83 e0 7f             	and    $0x7f,%eax
    fe36:	48 c1 e0 14          	shl    $0x14,%rax
    fe3a:	48 09 d0             	or     %rdx,%rax
    fe3d:	89 c1                	mov    %eax,%ecx
    fe3f:	8b 45 fc             	mov    -0x4(%rbp),%eax
    fe42:	89 c2                	mov    %eax,%edx
    fe44:	48 8d 35 a5 19 00 00 	lea    0x19a5(%rip),%rsi        # 117f0 <g_1404+0x770>
    fe4b:	48 89 cf             	mov    %rcx,%rdi
    fe4e:	e8 a0 68 ff ff       	callq  66f3 <transparent_crc>
    fe53:	8b 05 bb 60 00 00    	mov    0x60bb(%rip),%eax        # 15f14 <g_996>
    fe59:	89 c1                	mov    %eax,%ecx
    fe5b:	8b 45 fc             	mov    -0x4(%rbp),%eax
    fe5e:	89 c2                	mov    %eax,%edx
    fe60:	48 8d 35 92 19 00 00 	lea    0x1992(%rip),%rsi        # 117f9 <g_1404+0x779>
    fe67:	48 89 cf             	mov    %rcx,%rdi
    fe6a:	e8 84 68 ff ff       	callq  66f3 <transparent_crc>
    fe6f:	0f b7 05 aa 60 00 00 	movzwl 0x60aa(%rip),%eax        # 15f20 <g_1108>
    fe76:	c1 e0 03             	shl    $0x3,%eax
    fe79:	66 c1 f8 03          	sar    $0x3,%ax
    fe7d:	48 0f bf c0          	movswq %ax,%rax
    fe81:	8b 55 fc             	mov    -0x4(%rbp),%edx
    fe84:	48 8d 35 74 19 00 00 	lea    0x1974(%rip),%rsi        # 117ff <g_1404+0x77f>
    fe8b:	48 89 c7             	mov    %rax,%rdi
    fe8e:	e8 60 68 ff ff       	callq  66f3 <transparent_crc>
    fe93:	8b 05 87 60 00 00    	mov    0x6087(%rip),%eax        # 15f20 <g_1108>
    fe99:	c1 e8 0d             	shr    $0xd,%eax
    fe9c:	66 25 ff 3f          	and    $0x3fff,%ax
    fea0:	0f b7 c0             	movzwl %ax,%eax
    fea3:	8b 55 fc             	mov    -0x4(%rbp),%edx
    fea6:	48 8d 35 5c 19 00 00 	lea    0x195c(%rip),%rsi        # 11809 <g_1404+0x789>
    fead:	48 89 c7             	mov    %rax,%rdi
    feb0:	e8 3e 68 ff ff       	callq  66f3 <transparent_crc>
    feb5:	0f b7 05 68 60 00 00 	movzwl 0x6068(%rip),%eax        # 15f24 <g_1108+0x4>
    febc:	0f b7 c0             	movzwl %ax,%eax
    febf:	8b 55 fc             	mov    -0x4(%rbp),%edx
    fec2:	48 8d 35 4a 19 00 00 	lea    0x194a(%rip),%rsi        # 11813 <g_1404+0x793>
    fec9:	48 89 c7             	mov    %rax,%rdi
    fecc:	e8 22 68 ff ff       	callq  66f3 <transparent_crc>
    fed1:	0f b6 05 50 60 00 00 	movzbl 0x6050(%rip),%eax        # 15f28 <g_1108+0x8>
    fed8:	c1 e0 03             	shl    $0x3,%eax
    fedb:	c0 f8 03             	sar    $0x3,%al
    fede:	48 0f be c0          	movsbq %al,%rax
    fee2:	8b 55 fc             	mov    -0x4(%rbp),%edx
    fee5:	48 8d 35 31 19 00 00 	lea    0x1931(%rip),%rsi        # 1181d <g_1404+0x79d>
    feec:	48 89 c7             	mov    %rax,%rdi
    feef:	e8 ff 67 ff ff       	callq  66f3 <transparent_crc>
    fef4:	48 8b 05 2d 60 00 00 	mov    0x602d(%rip),%rax        # 15f28 <g_1108+0x8>
    fefb:	48 c1 e0 1e          	shl    $0x1e,%rax
    feff:	48 c1 f8 23          	sar    $0x23,%rax
    ff03:	48 98                	cltq   
    ff05:	8b 55 fc             	mov    -0x4(%rbp),%edx
    ff08:	48 8d 35 18 19 00 00 	lea    0x1918(%rip),%rsi        # 11827 <g_1404+0x7a7>
    ff0f:	48 89 c7             	mov    %rax,%rdi
    ff12:	e8 dc 67 ff ff       	callq  66f3 <transparent_crc>
    ff17:	0f b7 05 0e 60 00 00 	movzwl 0x600e(%rip),%eax        # 15f2c <g_1108+0xc>
    ff1e:	66 c1 e8 02          	shr    $0x2,%ax
    ff22:	66 25 ff 03          	and    $0x3ff,%ax
    ff26:	0f b7 c0             	movzwl %ax,%eax
    ff29:	8b 55 fc             	mov    -0x4(%rbp),%edx
    ff2c:	48 8d 35 fe 18 00 00 	lea    0x18fe(%rip),%rsi        # 11831 <g_1404+0x7b1>
    ff33:	48 89 c7             	mov    %rax,%rdi
    ff36:	e8 b8 67 ff ff       	callq  66f3 <transparent_crc>
    ff3b:	48 8b 05 e6 5f 00 00 	mov    0x5fe6(%rip),%rax        # 15f28 <g_1108+0x8>
    ff42:	48 c1 e8 2c          	shr    $0x2c,%rax
    ff46:	48 89 c2             	mov    %rax,%rdx
    ff49:	48 8b 05 e0 5f 00 00 	mov    0x5fe0(%rip),%rax        # 15f30 <g_1108+0x10>
    ff50:	83 e0 7f             	and    $0x7f,%eax
    ff53:	48 c1 e0 14          	shl    $0x14,%rax
    ff57:	48 09 d0             	or     %rdx,%rax
    ff5a:	89 c1                	mov    %eax,%ecx
    ff5c:	8b 45 fc             	mov    -0x4(%rbp),%eax
    ff5f:	89 c2                	mov    %eax,%edx
    ff61:	48 8d 35 d3 18 00 00 	lea    0x18d3(%rip),%rsi        # 1183b <g_1404+0x7bb>
    ff68:	48 89 cf             	mov    %rcx,%rdi
    ff6b:	e8 83 67 ff ff       	callq  66f3 <transparent_crc>
    ff70:	0f b7 05 c9 5f 00 00 	movzwl 0x5fc9(%rip),%eax        # 15f40 <g_1177>
    ff77:	c1 e0 03             	shl    $0x3,%eax
    ff7a:	66 c1 f8 03          	sar    $0x3,%ax
    ff7e:	48 0f bf c0          	movswq %ax,%rax
    ff82:	8b 55 fc             	mov    -0x4(%rbp),%edx
    ff85:	48 8d 35 b9 18 00 00 	lea    0x18b9(%rip),%rsi        # 11845 <g_1404+0x7c5>
    ff8c:	48 89 c7             	mov    %rax,%rdi
    ff8f:	e8 5f 67 ff ff       	callq  66f3 <transparent_crc>
    ff94:	8b 05 a6 5f 00 00    	mov    0x5fa6(%rip),%eax        # 15f40 <g_1177>
    ff9a:	c1 e8 0d             	shr    $0xd,%eax
    ff9d:	66 25 ff 3f          	and    $0x3fff,%ax
    ffa1:	0f b7 c0             	movzwl %ax,%eax
    ffa4:	8b 55 fc             	mov    -0x4(%rbp),%edx
    ffa7:	48 8d 35 a1 18 00 00 	lea    0x18a1(%rip),%rsi        # 1184f <g_1404+0x7cf>
    ffae:	48 89 c7             	mov    %rax,%rdi
    ffb1:	e8 3d 67 ff ff       	callq  66f3 <transparent_crc>
    ffb6:	0f b7 05 87 5f 00 00 	movzwl 0x5f87(%rip),%eax        # 15f44 <g_1177+0x4>
    ffbd:	0f b7 c0             	movzwl %ax,%eax
    ffc0:	8b 55 fc             	mov    -0x4(%rbp),%edx
    ffc3:	48 8d 35 8f 18 00 00 	lea    0x188f(%rip),%rsi        # 11859 <g_1404+0x7d9>
    ffca:	48 89 c7             	mov    %rax,%rdi
    ffcd:	e8 21 67 ff ff       	callq  66f3 <transparent_crc>
    ffd2:	0f b6 05 6f 5f 00 00 	movzbl 0x5f6f(%rip),%eax        # 15f48 <g_1177+0x8>
    ffd9:	c1 e0 03             	shl    $0x3,%eax
    ffdc:	c0 f8 03             	sar    $0x3,%al
    ffdf:	48 0f be c0          	movsbq %al,%rax
    ffe3:	8b 55 fc             	mov    -0x4(%rbp),%edx
    ffe6:	48 8d 35 76 18 00 00 	lea    0x1876(%rip),%rsi        # 11863 <g_1404+0x7e3>
    ffed:	48 89 c7             	mov    %rax,%rdi
    fff0:	e8 fe 66 ff ff       	callq  66f3 <transparent_crc>
    fff5:	48 8b 05 4c 5f 00 00 	mov    0x5f4c(%rip),%rax        # 15f48 <g_1177+0x8>
    fffc:	48 c1 e0 1e          	shl    $0x1e,%rax
   10000:	48 c1 f8 23          	sar    $0x23,%rax
   10004:	48 98                	cltq   
   10006:	8b 55 fc             	mov    -0x4(%rbp),%edx
   10009:	48 8d 35 5d 18 00 00 	lea    0x185d(%rip),%rsi        # 1186d <g_1404+0x7ed>
   10010:	48 89 c7             	mov    %rax,%rdi
   10013:	e8 db 66 ff ff       	callq  66f3 <transparent_crc>
   10018:	0f b7 05 2d 5f 00 00 	movzwl 0x5f2d(%rip),%eax        # 15f4c <g_1177+0xc>
   1001f:	66 c1 e8 02          	shr    $0x2,%ax
   10023:	66 25 ff 03          	and    $0x3ff,%ax
   10027:	0f b7 c0             	movzwl %ax,%eax
   1002a:	8b 55 fc             	mov    -0x4(%rbp),%edx
   1002d:	48 8d 35 43 18 00 00 	lea    0x1843(%rip),%rsi        # 11877 <g_1404+0x7f7>
   10034:	48 89 c7             	mov    %rax,%rdi
   10037:	e8 b7 66 ff ff       	callq  66f3 <transparent_crc>
   1003c:	48 8b 05 05 5f 00 00 	mov    0x5f05(%rip),%rax        # 15f48 <g_1177+0x8>
   10043:	48 c1 e8 2c          	shr    $0x2c,%rax
   10047:	48 89 c2             	mov    %rax,%rdx
   1004a:	48 8b 05 ff 5e 00 00 	mov    0x5eff(%rip),%rax        # 15f50 <g_1177+0x10>
   10051:	83 e0 7f             	and    $0x7f,%eax
   10054:	48 c1 e0 14          	shl    $0x14,%rax
   10058:	48 09 d0             	or     %rdx,%rax
   1005b:	89 c1                	mov    %eax,%ecx
   1005d:	8b 45 fc             	mov    -0x4(%rbp),%eax
   10060:	89 c2                	mov    %eax,%edx
   10062:	48 8d 35 18 18 00 00 	lea    0x1818(%rip),%rsi        # 11881 <g_1404+0x801>
   10069:	48 89 cf             	mov    %rcx,%rdi
   1006c:	e8 82 66 ff ff       	callq  66f3 <transparent_crc>
   10071:	8b 05 dd 5e 00 00    	mov    0x5edd(%rip),%eax        # 15f54 <g_1190>
   10077:	48 98                	cltq   
   10079:	8b 55 fc             	mov    -0x4(%rbp),%edx
   1007c:	48 8d 35 08 18 00 00 	lea    0x1808(%rip),%rsi        # 1188b <g_1404+0x80b>
   10083:	48 89 c7             	mov    %rax,%rdi
   10086:	e8 68 66 ff ff       	callq  66f3 <transparent_crc>
   1008b:	48 8b 05 c6 5e 00 00 	mov    0x5ec6(%rip),%rax        # 15f58 <g_1290>
   10092:	48 89 c1             	mov    %rax,%rcx
   10095:	8b 45 fc             	mov    -0x4(%rbp),%eax
   10098:	89 c2                	mov    %eax,%edx
   1009a:	48 8d 35 f1 17 00 00 	lea    0x17f1(%rip),%rsi        # 11892 <g_1404+0x812>
   100a1:	48 89 cf             	mov    %rcx,%rdi
   100a4:	e8 4a 66 ff ff       	callq  66f3 <transparent_crc>
   100a9:	c7 45 f0 00 00 00 00 	movl   $0x0,-0x10(%rbp)
   100b0:	e9 42 02 00 00       	jmpq   102f7 <main+0x17bb>
   100b5:	8b 45 f0             	mov    -0x10(%rbp),%eax
   100b8:	48 63 d0             	movslq %eax,%rdx
   100bb:	48 89 d0             	mov    %rdx,%rax
   100be:	48 c1 e0 04          	shl    $0x4,%rax
   100c2:	48 01 c2             	add    %rax,%rdx
   100c5:	48 8d 05 94 5e 00 00 	lea    0x5e94(%rip),%rax        # 15f60 <g_1304>
   100cc:	0f b6 0c 02          	movzbl (%rdx,%rax,1),%ecx
   100d0:	0f b6 44 02 01       	movzbl 0x1(%rdx,%rax,1),%eax
   100d5:	83 e0 1f             	and    $0x1f,%eax
   100d8:	48 c1 e0 08          	shl    $0x8,%rax
   100dc:	48 09 c8             	or     %rcx,%rax
   100df:	48 c1 e0 33          	shl    $0x33,%rax
   100e3:	48 c1 f8 33          	sar    $0x33,%rax
   100e7:	48 0f bf c0          	movswq %ax,%rax
   100eb:	8b 55 fc             	mov    -0x4(%rbp),%edx
   100ee:	48 8d 35 a4 17 00 00 	lea    0x17a4(%rip),%rsi        # 11899 <g_1404+0x819>
   100f5:	48 89 c7             	mov    %rax,%rdi
   100f8:	e8 f6 65 ff ff       	callq  66f3 <transparent_crc>
   100fd:	8b 45 f0             	mov    -0x10(%rbp),%eax
   10100:	48 63 d0             	movslq %eax,%rdx
   10103:	48 89 d0             	mov    %rdx,%rax
   10106:	48 c1 e0 04          	shl    $0x4,%rax
   1010a:	48 01 c2             	add    %rax,%rdx
   1010d:	48 8d 05 4c 5e 00 00 	lea    0x5e4c(%rip),%rax        # 15f60 <g_1304>
   10114:	0f b6 4c 02 01       	movzbl 0x1(%rdx,%rax,1),%ecx
   10119:	c0 e9 05             	shr    $0x5,%cl
   1011c:	0f b6 c9             	movzbl %cl,%ecx
   1011f:	0f b6 74 02 02       	movzbl 0x2(%rdx,%rax,1),%esi
   10124:	48 c1 e6 03          	shl    $0x3,%rsi
   10128:	48 09 f1             	or     %rsi,%rcx
   1012b:	0f b6 44 02 03       	movzbl 0x3(%rdx,%rax,1),%eax
   10130:	83 e0 07             	and    $0x7,%eax
   10133:	48 c1 e0 0b          	shl    $0xb,%rax
   10137:	48 09 c8             	or     %rcx,%rax
   1013a:	0f b7 c0             	movzwl %ax,%eax
   1013d:	8b 55 fc             	mov    -0x4(%rbp),%edx
   10140:	48 8d 35 5f 17 00 00 	lea    0x175f(%rip),%rsi        # 118a6 <g_1404+0x826>
   10147:	48 89 c7             	mov    %rax,%rdi
   1014a:	e8 a4 65 ff ff       	callq  66f3 <transparent_crc>
   1014f:	8b 45 f0             	mov    -0x10(%rbp),%eax
   10152:	48 63 d0             	movslq %eax,%rdx
   10155:	48 89 d0             	mov    %rdx,%rax
   10158:	48 c1 e0 04          	shl    $0x4,%rax
   1015c:	48 01 c2             	add    %rax,%rdx
   1015f:	48 8d 05 fe 5d 00 00 	lea    0x5dfe(%rip),%rax        # 15f64 <g_1304+0x4>
   10166:	0f b7 04 02          	movzwl (%rdx,%rax,1),%eax
   1016a:	0f b7 c0             	movzwl %ax,%eax
   1016d:	8b 55 fc             	mov    -0x4(%rbp),%edx
   10170:	48 8d 35 3c 17 00 00 	lea    0x173c(%rip),%rsi        # 118b3 <g_1404+0x833>
   10177:	48 89 c7             	mov    %rax,%rdi
   1017a:	e8 74 65 ff ff       	callq  66f3 <transparent_crc>
   1017f:	8b 45 f0             	mov    -0x10(%rbp),%eax
   10182:	48 63 d0             	movslq %eax,%rdx
   10185:	48 89 d0             	mov    %rdx,%rax
   10188:	48 c1 e0 04          	shl    $0x4,%rax
   1018c:	48 01 c2             	add    %rax,%rdx
   1018f:	48 8d 05 ca 5d 00 00 	lea    0x5dca(%rip),%rax        # 15f60 <g_1304>
   10196:	0f b6 44 02 08       	movzbl 0x8(%rdx,%rax,1),%eax
   1019b:	c1 e0 03             	shl    $0x3,%eax
   1019e:	c0 f8 03             	sar    $0x3,%al
   101a1:	48 0f be c0          	movsbq %al,%rax
   101a5:	8b 55 fc             	mov    -0x4(%rbp),%edx
   101a8:	48 8d 35 11 17 00 00 	lea    0x1711(%rip),%rsi        # 118c0 <g_1404+0x840>
   101af:	48 89 c7             	mov    %rax,%rdi
   101b2:	e8 3c 65 ff ff       	callq  66f3 <transparent_crc>
   101b7:	8b 45 f0             	mov    -0x10(%rbp),%eax
   101ba:	48 63 d0             	movslq %eax,%rdx
   101bd:	48 89 d0             	mov    %rdx,%rax
   101c0:	48 c1 e0 04          	shl    $0x4,%rax
   101c4:	48 01 c2             	add    %rax,%rdx
   101c7:	48 8d 05 92 5d 00 00 	lea    0x5d92(%rip),%rax        # 15f60 <g_1304>
   101ce:	0f b6 4c 02 08       	movzbl 0x8(%rdx,%rax,1),%ecx
   101d3:	c0 e9 05             	shr    $0x5,%cl
   101d6:	0f b6 c9             	movzbl %cl,%ecx
   101d9:	0f b6 74 02 09       	movzbl 0x9(%rdx,%rax,1),%esi
   101de:	48 c1 e6 03          	shl    $0x3,%rsi
   101e2:	48 09 ce             	or     %rcx,%rsi
   101e5:	0f b6 4c 02 0a       	movzbl 0xa(%rdx,%rax,1),%ecx
   101ea:	48 c1 e1 0b          	shl    $0xb,%rcx
   101ee:	48 09 ce             	or     %rcx,%rsi
   101f1:	0f b6 4c 02 0b       	movzbl 0xb(%rdx,%rax,1),%ecx
   101f6:	48 c1 e1 13          	shl    $0x13,%rcx
   101fa:	48 09 f1             	or     %rsi,%rcx
   101fd:	0f b6 44 02 0c       	movzbl 0xc(%rdx,%rax,1),%eax
   10202:	83 e0 03             	and    $0x3,%eax
   10205:	48 c1 e0 1b          	shl    $0x1b,%rax
   10209:	48 09 c8             	or     %rcx,%rax
   1020c:	48 c1 e0 23          	shl    $0x23,%rax
   10210:	48 c1 f8 23          	sar    $0x23,%rax
   10214:	48 98                	cltq   
   10216:	8b 55 fc             	mov    -0x4(%rbp),%edx
   10219:	48 8d 35 ad 16 00 00 	lea    0x16ad(%rip),%rsi        # 118cd <g_1404+0x84d>
   10220:	48 89 c7             	mov    %rax,%rdi
   10223:	e8 cb 64 ff ff       	callq  66f3 <transparent_crc>
   10228:	8b 45 f0             	mov    -0x10(%rbp),%eax
   1022b:	48 63 d0             	movslq %eax,%rdx
   1022e:	48 89 d0             	mov    %rdx,%rax
   10231:	48 c1 e0 04          	shl    $0x4,%rax
   10235:	48 01 c2             	add    %rax,%rdx
   10238:	48 8d 05 21 5d 00 00 	lea    0x5d21(%rip),%rax        # 15f60 <g_1304>
   1023f:	0f b6 4c 02 0c       	movzbl 0xc(%rdx,%rax,1),%ecx
   10244:	c0 e9 02             	shr    $0x2,%cl
   10247:	0f b6 c9             	movzbl %cl,%ecx
   1024a:	0f b6 44 02 0d       	movzbl 0xd(%rdx,%rax,1),%eax
   1024f:	83 e0 0f             	and    $0xf,%eax
   10252:	48 c1 e0 06          	shl    $0x6,%rax
   10256:	48 09 c8             	or     %rcx,%rax
   10259:	0f b7 c0             	movzwl %ax,%eax
   1025c:	8b 55 fc             	mov    -0x4(%rbp),%edx
   1025f:	48 8d 35 74 16 00 00 	lea    0x1674(%rip),%rsi        # 118da <g_1404+0x85a>
   10266:	48 89 c7             	mov    %rax,%rdi
   10269:	e8 85 64 ff ff       	callq  66f3 <transparent_crc>
   1026e:	8b 45 f0             	mov    -0x10(%rbp),%eax
   10271:	48 63 d0             	movslq %eax,%rdx
   10274:	48 89 d0             	mov    %rdx,%rax
   10277:	48 c1 e0 04          	shl    $0x4,%rax
   1027b:	48 01 c2             	add    %rax,%rdx
   1027e:	48 8d 05 db 5c 00 00 	lea    0x5cdb(%rip),%rax        # 15f60 <g_1304>
   10285:	0f b6 4c 02 0d       	movzbl 0xd(%rdx,%rax,1),%ecx
   1028a:	c0 e9 04             	shr    $0x4,%cl
   1028d:	0f b6 c9             	movzbl %cl,%ecx
   10290:	0f b6 74 02 0e       	movzbl 0xe(%rdx,%rax,1),%esi
   10295:	40 0f b6 f6          	movzbl %sil,%esi
   10299:	48 c1 e6 04          	shl    $0x4,%rsi
   1029d:	48 09 ce             	or     %rcx,%rsi
   102a0:	0f b6 4c 02 0f       	movzbl 0xf(%rdx,%rax,1),%ecx
   102a5:	0f b6 c9             	movzbl %cl,%ecx
   102a8:	48 c1 e1 0c          	shl    $0xc,%rcx
   102ac:	48 09 f1             	or     %rsi,%rcx
   102af:	0f b6 44 02 10       	movzbl 0x10(%rdx,%rax,1),%eax
   102b4:	0f b6 c0             	movzbl %al,%eax
   102b7:	83 e0 7f             	and    $0x7f,%eax
   102ba:	48 c1 e0 14          	shl    $0x14,%rax
   102be:	48 09 c8             	or     %rcx,%rax
   102c1:	89 c1                	mov    %eax,%ecx
   102c3:	8b 45 fc             	mov    -0x4(%rbp),%eax
   102c6:	89 c2                	mov    %eax,%edx
   102c8:	48 8d 35 18 16 00 00 	lea    0x1618(%rip),%rsi        # 118e7 <g_1404+0x867>
   102cf:	48 89 cf             	mov    %rcx,%rdi
   102d2:	e8 1c 64 ff ff       	callq  66f3 <transparent_crc>
   102d7:	83 7d fc 00          	cmpl   $0x0,-0x4(%rbp)
   102db:	74 16                	je     102f3 <main+0x17b7>
   102dd:	8b 45 f0             	mov    -0x10(%rbp),%eax
   102e0:	89 c6                	mov    %eax,%esi
   102e2:	48 8d 3d 78 11 00 00 	lea    0x1178(%rip),%rdi        # 11461 <g_1404+0x3e1>
   102e9:	b8 00 00 00 00       	mov    $0x0,%eax
   102ee:	e8 8d 4d ff ff       	callq  5080 <printf@plt>
   102f3:	83 45 f0 01          	addl   $0x1,-0x10(%rbp)
   102f7:	83 7d f0 02          	cmpl   $0x2,-0x10(%rbp)
   102fb:	0f 8e b4 fd ff ff    	jle    100b5 <main+0x1579>
   10301:	c7 45 f0 00 00 00 00 	movl   $0x0,-0x10(%rbp)
   10308:	e9 42 02 00 00       	jmpq   1054f <main+0x1a13>
   1030d:	8b 45 f0             	mov    -0x10(%rbp),%eax
   10310:	48 63 d0             	movslq %eax,%rdx
   10313:	48 89 d0             	mov    %rdx,%rax
   10316:	48 c1 e0 04          	shl    $0x4,%rax
   1031a:	48 01 c2             	add    %rax,%rdx
   1031d:	48 8d 05 7c 5c 00 00 	lea    0x5c7c(%rip),%rax        # 15fa0 <g_1306>
   10324:	0f b6 0c 02          	movzbl (%rdx,%rax,1),%ecx
   10328:	0f b6 44 02 01       	movzbl 0x1(%rdx,%rax,1),%eax
   1032d:	83 e0 1f             	and    $0x1f,%eax
   10330:	48 c1 e0 08          	shl    $0x8,%rax
   10334:	48 09 c8             	or     %rcx,%rax
   10337:	48 c1 e0 33          	shl    $0x33,%rax
   1033b:	48 c1 f8 33          	sar    $0x33,%rax
   1033f:	48 0f bf c0          	movswq %ax,%rax
   10343:	8b 55 fc             	mov    -0x4(%rbp),%edx
   10346:	48 8d 35 a7 15 00 00 	lea    0x15a7(%rip),%rsi        # 118f4 <g_1404+0x874>
   1034d:	48 89 c7             	mov    %rax,%rdi
   10350:	e8 9e 63 ff ff       	callq  66f3 <transparent_crc>
   10355:	8b 45 f0             	mov    -0x10(%rbp),%eax
   10358:	48 63 d0             	movslq %eax,%rdx
   1035b:	48 89 d0             	mov    %rdx,%rax
   1035e:	48 c1 e0 04          	shl    $0x4,%rax
   10362:	48 01 c2             	add    %rax,%rdx
   10365:	48 8d 05 34 5c 00 00 	lea    0x5c34(%rip),%rax        # 15fa0 <g_1306>
   1036c:	0f b6 4c 02 01       	movzbl 0x1(%rdx,%rax,1),%ecx
   10371:	c0 e9 05             	shr    $0x5,%cl
   10374:	0f b6 c9             	movzbl %cl,%ecx
   10377:	0f b6 74 02 02       	movzbl 0x2(%rdx,%rax,1),%esi
   1037c:	48 c1 e6 03          	shl    $0x3,%rsi
   10380:	48 09 f1             	or     %rsi,%rcx
   10383:	0f b6 44 02 03       	movzbl 0x3(%rdx,%rax,1),%eax
   10388:	83 e0 07             	and    $0x7,%eax
   1038b:	48 c1 e0 0b          	shl    $0xb,%rax
   1038f:	48 09 c8             	or     %rcx,%rax
   10392:	0f b7 c0             	movzwl %ax,%eax
   10395:	8b 55 fc             	mov    -0x4(%rbp),%edx
   10398:	48 8d 35 62 15 00 00 	lea    0x1562(%rip),%rsi        # 11901 <g_1404+0x881>
   1039f:	48 89 c7             	mov    %rax,%rdi
   103a2:	e8 4c 63 ff ff       	callq  66f3 <transparent_crc>
   103a7:	8b 45 f0             	mov    -0x10(%rbp),%eax
   103aa:	48 63 d0             	movslq %eax,%rdx
   103ad:	48 89 d0             	mov    %rdx,%rax
   103b0:	48 c1 e0 04          	shl    $0x4,%rax
   103b4:	48 01 c2             	add    %rax,%rdx
   103b7:	48 8d 05 e6 5b 00 00 	lea    0x5be6(%rip),%rax        # 15fa4 <g_1306+0x4>
   103be:	0f b7 04 02          	movzwl (%rdx,%rax,1),%eax
   103c2:	0f b7 c0             	movzwl %ax,%eax
   103c5:	8b 55 fc             	mov    -0x4(%rbp),%edx
   103c8:	48 8d 35 3f 15 00 00 	lea    0x153f(%rip),%rsi        # 1190e <g_1404+0x88e>
   103cf:	48 89 c7             	mov    %rax,%rdi
   103d2:	e8 1c 63 ff ff       	callq  66f3 <transparent_crc>
   103d7:	8b 45 f0             	mov    -0x10(%rbp),%eax
   103da:	48 63 d0             	movslq %eax,%rdx
   103dd:	48 89 d0             	mov    %rdx,%rax
   103e0:	48 c1 e0 04          	shl    $0x4,%rax
   103e4:	48 01 c2             	add    %rax,%rdx
   103e7:	48 8d 05 b2 5b 00 00 	lea    0x5bb2(%rip),%rax        # 15fa0 <g_1306>
   103ee:	0f b6 44 02 08       	movzbl 0x8(%rdx,%rax,1),%eax
   103f3:	c1 e0 03             	shl    $0x3,%eax
   103f6:	c0 f8 03             	sar    $0x3,%al
   103f9:	48 0f be c0          	movsbq %al,%rax
   103fd:	8b 55 fc             	mov    -0x4(%rbp),%edx
   10400:	48 8d 35 14 15 00 00 	lea    0x1514(%rip),%rsi        # 1191b <g_1404+0x89b>
   10407:	48 89 c7             	mov    %rax,%rdi
   1040a:	e8 e4 62 ff ff       	callq  66f3 <transparent_crc>
   1040f:	8b 45 f0             	mov    -0x10(%rbp),%eax
   10412:	48 63 d0             	movslq %eax,%rdx
   10415:	48 89 d0             	mov    %rdx,%rax
   10418:	48 c1 e0 04          	shl    $0x4,%rax
   1041c:	48 01 c2             	add    %rax,%rdx
   1041f:	48 8d 05 7a 5b 00 00 	lea    0x5b7a(%rip),%rax        # 15fa0 <g_1306>
   10426:	0f b6 4c 02 08       	movzbl 0x8(%rdx,%rax,1),%ecx
   1042b:	c0 e9 05             	shr    $0x5,%cl
   1042e:	0f b6 c9             	movzbl %cl,%ecx
   10431:	0f b6 74 02 09       	movzbl 0x9(%rdx,%rax,1),%esi
   10436:	48 c1 e6 03          	shl    $0x3,%rsi
   1043a:	48 09 ce             	or     %rcx,%rsi
   1043d:	0f b6 4c 02 0a       	movzbl 0xa(%rdx,%rax,1),%ecx
   10442:	48 c1 e1 0b          	shl    $0xb,%rcx
   10446:	48 09 ce             	or     %rcx,%rsi
   10449:	0f b6 4c 02 0b       	movzbl 0xb(%rdx,%rax,1),%ecx
   1044e:	48 c1 e1 13          	shl    $0x13,%rcx
   10452:	48 09 f1             	or     %rsi,%rcx
   10455:	0f b6 44 02 0c       	movzbl 0xc(%rdx,%rax,1),%eax
   1045a:	83 e0 03             	and    $0x3,%eax
   1045d:	48 c1 e0 1b          	shl    $0x1b,%rax
   10461:	48 09 c8             	or     %rcx,%rax
   10464:	48 c1 e0 23          	shl    $0x23,%rax
   10468:	48 c1 f8 23          	sar    $0x23,%rax
   1046c:	48 98                	cltq   
   1046e:	8b 55 fc             	mov    -0x4(%rbp),%edx
   10471:	48 8d 35 b0 14 00 00 	lea    0x14b0(%rip),%rsi        # 11928 <g_1404+0x8a8>
   10478:	48 89 c7             	mov    %rax,%rdi
   1047b:	e8 73 62 ff ff       	callq  66f3 <transparent_crc>
   10480:	8b 45 f0             	mov    -0x10(%rbp),%eax
   10483:	48 63 d0             	movslq %eax,%rdx
   10486:	48 89 d0             	mov    %rdx,%rax
   10489:	48 c1 e0 04          	shl    $0x4,%rax
   1048d:	48 01 c2             	add    %rax,%rdx
   10490:	48 8d 05 09 5b 00 00 	lea    0x5b09(%rip),%rax        # 15fa0 <g_1306>
   10497:	0f b6 4c 02 0c       	movzbl 0xc(%rdx,%rax,1),%ecx
   1049c:	c0 e9 02             	shr    $0x2,%cl
   1049f:	0f b6 c9             	movzbl %cl,%ecx
   104a2:	0f b6 44 02 0d       	movzbl 0xd(%rdx,%rax,1),%eax
   104a7:	83 e0 0f             	and    $0xf,%eax
   104aa:	48 c1 e0 06          	shl    $0x6,%rax
   104ae:	48 09 c8             	or     %rcx,%rax
   104b1:	0f b7 c0             	movzwl %ax,%eax
   104b4:	8b 55 fc             	mov    -0x4(%rbp),%edx
   104b7:	48 8d 35 77 14 00 00 	lea    0x1477(%rip),%rsi        # 11935 <g_1404+0x8b5>
   104be:	48 89 c7             	mov    %rax,%rdi
   104c1:	e8 2d 62 ff ff       	callq  66f3 <transparent_crc>
   104c6:	8b 45 f0             	mov    -0x10(%rbp),%eax
   104c9:	48 63 d0             	movslq %eax,%rdx
   104cc:	48 89 d0             	mov    %rdx,%rax
   104cf:	48 c1 e0 04          	shl    $0x4,%rax
   104d3:	48 01 c2             	add    %rax,%rdx
   104d6:	48 8d 05 c3 5a 00 00 	lea    0x5ac3(%rip),%rax        # 15fa0 <g_1306>
   104dd:	0f b6 4c 02 0d       	movzbl 0xd(%rdx,%rax,1),%ecx
   104e2:	c0 e9 04             	shr    $0x4,%cl
   104e5:	0f b6 c9             	movzbl %cl,%ecx
   104e8:	0f b6 74 02 0e       	movzbl 0xe(%rdx,%rax,1),%esi
   104ed:	40 0f b6 f6          	movzbl %sil,%esi
   104f1:	48 c1 e6 04          	shl    $0x4,%rsi
   104f5:	48 09 ce             	or     %rcx,%rsi
   104f8:	0f b6 4c 02 0f       	movzbl 0xf(%rdx,%rax,1),%ecx
   104fd:	0f b6 c9             	movzbl %cl,%ecx
   10500:	48 c1 e1 0c          	shl    $0xc,%rcx
   10504:	48 09 f1             	or     %rsi,%rcx
   10507:	0f b6 44 02 10       	movzbl 0x10(%rdx,%rax,1),%eax
   1050c:	0f b6 c0             	movzbl %al,%eax
   1050f:	83 e0 7f             	and    $0x7f,%eax
   10512:	48 c1 e0 14          	shl    $0x14,%rax
   10516:	48 09 c8             	or     %rcx,%rax
   10519:	89 c1                	mov    %eax,%ecx
   1051b:	8b 45 fc             	mov    -0x4(%rbp),%eax
   1051e:	89 c2                	mov    %eax,%edx
   10520:	48 8d 35 1b 14 00 00 	lea    0x141b(%rip),%rsi        # 11942 <g_1404+0x8c2>
   10527:	48 89 cf             	mov    %rcx,%rdi
   1052a:	e8 c4 61 ff ff       	callq  66f3 <transparent_crc>
   1052f:	83 7d fc 00          	cmpl   $0x0,-0x4(%rbp)
   10533:	74 16                	je     1054b <main+0x1a0f>
   10535:	8b 45 f0             	mov    -0x10(%rbp),%eax
   10538:	89 c6                	mov    %eax,%esi
   1053a:	48 8d 3d 20 0f 00 00 	lea    0xf20(%rip),%rdi        # 11461 <g_1404+0x3e1>
   10541:	b8 00 00 00 00       	mov    $0x0,%eax
   10546:	e8 35 4b ff ff       	callq  5080 <printf@plt>
   1054b:	83 45 f0 01          	addl   $0x1,-0x10(%rbp)
   1054f:	83 7d f0 09          	cmpl   $0x9,-0x10(%rbp)
   10553:	0f 8e b4 fd ff ff    	jle    1030d <main+0x17d1>
   10559:	0f b7 05 f0 5a 00 00 	movzwl 0x5af0(%rip),%eax        # 16050 <g_1341>
   10560:	c1 e0 03             	shl    $0x3,%eax
   10563:	66 c1 f8 03          	sar    $0x3,%ax
   10567:	48 0f bf c0          	movswq %ax,%rax
   1056b:	8b 55 fc             	mov    -0x4(%rbp),%edx
   1056e:	48 8d 35 da 13 00 00 	lea    0x13da(%rip),%rsi        # 1194f <g_1404+0x8cf>
   10575:	48 89 c7             	mov    %rax,%rdi
   10578:	e8 76 61 ff ff       	callq  66f3 <transparent_crc>
   1057d:	8b 05 cd 5a 00 00    	mov    0x5acd(%rip),%eax        # 16050 <g_1341>
   10583:	c1 e8 0d             	shr    $0xd,%eax
   10586:	66 25 ff 3f          	and    $0x3fff,%ax
   1058a:	0f b7 c0             	movzwl %ax,%eax
   1058d:	8b 55 fc             	mov    -0x4(%rbp),%edx
   10590:	48 8d 35 c2 13 00 00 	lea    0x13c2(%rip),%rsi        # 11959 <g_1404+0x8d9>
   10597:	48 89 c7             	mov    %rax,%rdi
   1059a:	e8 54 61 ff ff       	callq  66f3 <transparent_crc>
   1059f:	0f b7 05 ae 5a 00 00 	movzwl 0x5aae(%rip),%eax        # 16054 <g_1341+0x4>
   105a6:	0f b7 c0             	movzwl %ax,%eax
   105a9:	8b 55 fc             	mov    -0x4(%rbp),%edx
   105ac:	48 8d 35 b0 13 00 00 	lea    0x13b0(%rip),%rsi        # 11963 <g_1404+0x8e3>
   105b3:	48 89 c7             	mov    %rax,%rdi
   105b6:	e8 38 61 ff ff       	callq  66f3 <transparent_crc>
   105bb:	0f b6 05 96 5a 00 00 	movzbl 0x5a96(%rip),%eax        # 16058 <g_1341+0x8>
   105c2:	c1 e0 03             	shl    $0x3,%eax
   105c5:	c0 f8 03             	sar    $0x3,%al
   105c8:	48 0f be c0          	movsbq %al,%rax
   105cc:	8b 55 fc             	mov    -0x4(%rbp),%edx
   105cf:	48 8d 35 97 13 00 00 	lea    0x1397(%rip),%rsi        # 1196d <g_1404+0x8ed>
   105d6:	48 89 c7             	mov    %rax,%rdi
   105d9:	e8 15 61 ff ff       	callq  66f3 <transparent_crc>
   105de:	48 8b 05 73 5a 00 00 	mov    0x5a73(%rip),%rax        # 16058 <g_1341+0x8>
   105e5:	48 c1 e0 1e          	shl    $0x1e,%rax
   105e9:	48 c1 f8 23          	sar    $0x23,%rax
   105ed:	48 98                	cltq   
   105ef:	8b 55 fc             	mov    -0x4(%rbp),%edx
   105f2:	48 8d 35 7e 13 00 00 	lea    0x137e(%rip),%rsi        # 11977 <g_1404+0x8f7>
   105f9:	48 89 c7             	mov    %rax,%rdi
   105fc:	e8 f2 60 ff ff       	callq  66f3 <transparent_crc>
   10601:	0f b7 05 54 5a 00 00 	movzwl 0x5a54(%rip),%eax        # 1605c <g_1341+0xc>
   10608:	66 c1 e8 02          	shr    $0x2,%ax
   1060c:	66 25 ff 03          	and    $0x3ff,%ax
   10610:	0f b7 c0             	movzwl %ax,%eax
   10613:	8b 55 fc             	mov    -0x4(%rbp),%edx
   10616:	48 8d 35 64 13 00 00 	lea    0x1364(%rip),%rsi        # 11981 <g_1404+0x901>
   1061d:	48 89 c7             	mov    %rax,%rdi
   10620:	e8 ce 60 ff ff       	callq  66f3 <transparent_crc>
   10625:	48 8b 05 2c 5a 00 00 	mov    0x5a2c(%rip),%rax        # 16058 <g_1341+0x8>
   1062c:	48 c1 e8 2c          	shr    $0x2c,%rax
   10630:	48 89 c2             	mov    %rax,%rdx
   10633:	48 8b 05 26 5a 00 00 	mov    0x5a26(%rip),%rax        # 16060 <g_1341+0x10>
   1063a:	83 e0 7f             	and    $0x7f,%eax
   1063d:	48 c1 e0 14          	shl    $0x14,%rax
   10641:	48 09 d0             	or     %rdx,%rax
   10644:	89 c1                	mov    %eax,%ecx
   10646:	8b 45 fc             	mov    -0x4(%rbp),%eax
   10649:	89 c2                	mov    %eax,%edx
   1064b:	48 8d 35 39 13 00 00 	lea    0x1339(%rip),%rsi        # 1198b <g_1404+0x90b>
   10652:	48 89 cf             	mov    %rcx,%rdi
   10655:	e8 99 60 ff ff       	callq  66f3 <transparent_crc>
   1065a:	48 b8 aa a6 d4 a9 2d 	movabs $0x52d3302da9d4a6aa,%rax
   10661:	30 d3 52 
   10664:	48 89 c1             	mov    %rax,%rcx
   10667:	8b 45 fc             	mov    -0x4(%rbp),%eax
   1066a:	89 c2                	mov    %eax,%edx
   1066c:	48 8d 35 22 13 00 00 	lea    0x1322(%rip),%rsi        # 11995 <g_1404+0x915>
   10673:	48 89 cf             	mov    %rcx,%rdi
   10676:	e8 78 60 ff ff       	callq  66f3 <transparent_crc>
   1067b:	48 8b 05 e6 59 00 00 	mov    0x59e6(%rip),%rax        # 16068 <g_1437>
   10682:	48 89 c1             	mov    %rax,%rcx
   10685:	8b 45 fc             	mov    -0x4(%rbp),%eax
   10688:	89 c2                	mov    %eax,%edx
   1068a:	48 8d 35 0b 13 00 00 	lea    0x130b(%rip),%rsi        # 1199c <g_1404+0x91c>
   10691:	48 89 cf             	mov    %rcx,%rdi
   10694:	e8 5a 60 ff ff       	callq  66f3 <transparent_crc>
   10699:	48 8b 05 d0 59 00 00 	mov    0x59d0(%rip),%rax        # 16070 <g_1526>
   106a0:	c1 e0 03             	shl    $0x3,%eax
   106a3:	66 c1 f8 03          	sar    $0x3,%ax
   106a7:	48 0f bf c0          	movswq %ax,%rax
   106ab:	8b 55 fc             	mov    -0x4(%rbp),%edx
   106ae:	48 8d 35 ee 12 00 00 	lea    0x12ee(%rip),%rsi        # 119a3 <g_1404+0x923>
   106b5:	48 89 c7             	mov    %rax,%rdi
   106b8:	e8 36 60 ff ff       	callq  66f3 <transparent_crc>
   106bd:	48 8b 05 ac 59 00 00 	mov    0x59ac(%rip),%rax        # 16070 <g_1526>
   106c4:	48 c1 e8 0d          	shr    $0xd,%rax
   106c8:	66 25 ff 3f          	and    $0x3fff,%ax
   106cc:	0f b7 c0             	movzwl %ax,%eax
   106cf:	8b 55 fc             	mov    -0x4(%rbp),%edx
   106d2:	48 8d 35 d4 12 00 00 	lea    0x12d4(%rip),%rsi        # 119ad <g_1404+0x92d>
   106d9:	48 89 c7             	mov    %rax,%rdi
   106dc:	e8 12 60 ff ff       	callq  66f3 <transparent_crc>
   106e1:	0f b7 05 8c 59 00 00 	movzwl 0x598c(%rip),%eax        # 16074 <g_1526+0x4>
   106e8:	0f b7 c0             	movzwl %ax,%eax
   106eb:	8b 55 fc             	mov    -0x4(%rbp),%edx
   106ee:	48 8d 35 c2 12 00 00 	lea    0x12c2(%rip),%rsi        # 119b7 <g_1404+0x937>
   106f5:	48 89 c7             	mov    %rax,%rdi
   106f8:	e8 f6 5f ff ff       	callq  66f3 <transparent_crc>
   106fd:	48 8b 05 74 59 00 00 	mov    0x5974(%rip),%rax        # 16078 <g_1526+0x8>
   10704:	c1 e0 03             	shl    $0x3,%eax
   10707:	c0 f8 03             	sar    $0x3,%al
   1070a:	48 0f be c0          	movsbq %al,%rax
   1070e:	8b 55 fc             	mov    -0x4(%rbp),%edx
   10711:	48 8d 35 a9 12 00 00 	lea    0x12a9(%rip),%rsi        # 119c1 <g_1404+0x941>
   10718:	48 89 c7             	mov    %rax,%rdi
   1071b:	e8 d3 5f ff ff       	callq  66f3 <transparent_crc>
   10720:	48 8b 05 51 59 00 00 	mov    0x5951(%rip),%rax        # 16078 <g_1526+0x8>
   10727:	48 c1 e0 1e          	shl    $0x1e,%rax
   1072b:	48 c1 f8 23          	sar    $0x23,%rax
   1072f:	48 98                	cltq   
   10731:	8b 55 fc             	mov    -0x4(%rbp),%edx
   10734:	48 8d 35 90 12 00 00 	lea    0x1290(%rip),%rsi        # 119cb <g_1404+0x94b>
   1073b:	48 89 c7             	mov    %rax,%rdi
   1073e:	e8 b0 5f ff ff       	callq  66f3 <transparent_crc>
   10743:	48 8b 05 2e 59 00 00 	mov    0x592e(%rip),%rax        # 16078 <g_1526+0x8>
   1074a:	48 c1 e8 22          	shr    $0x22,%rax
   1074e:	66 25 ff 03          	and    $0x3ff,%ax
   10752:	0f b7 c0             	movzwl %ax,%eax
   10755:	8b 55 fc             	mov    -0x4(%rbp),%edx
   10758:	48 8d 35 76 12 00 00 	lea    0x1276(%rip),%rsi        # 119d5 <g_1404+0x955>
   1075f:	48 89 c7             	mov    %rax,%rdi
   10762:	e8 8c 5f ff ff       	callq  66f3 <transparent_crc>
   10767:	48 8b 05 0a 59 00 00 	mov    0x590a(%rip),%rax        # 16078 <g_1526+0x8>
   1076e:	48 c1 e8 2c          	shr    $0x2c,%rax
   10772:	48 89 c2             	mov    %rax,%rdx
   10775:	48 8b 05 04 59 00 00 	mov    0x5904(%rip),%rax        # 16080 <g_1526+0x10>
   1077c:	83 e0 7f             	and    $0x7f,%eax
   1077f:	48 c1 e0 14          	shl    $0x14,%rax
   10783:	48 09 d0             	or     %rdx,%rax
   10786:	89 c1                	mov    %eax,%ecx
   10788:	8b 45 fc             	mov    -0x4(%rbp),%eax
   1078b:	89 c2                	mov    %eax,%edx
   1078d:	48 8d 35 4b 12 00 00 	lea    0x124b(%rip),%rsi        # 119df <g_1404+0x95f>
   10794:	48 89 cf             	mov    %rcx,%rdi
   10797:	e8 57 5f ff ff       	callq  66f3 <transparent_crc>
   1079c:	48 8b 05 ed 58 00 00 	mov    0x58ed(%rip),%rax        # 16090 <g_1533>
   107a3:	c1 e0 03             	shl    $0x3,%eax
   107a6:	66 c1 f8 03          	sar    $0x3,%ax
   107aa:	48 0f bf c0          	movswq %ax,%rax
   107ae:	8b 55 fc             	mov    -0x4(%rbp),%edx
   107b1:	48 8d 35 31 12 00 00 	lea    0x1231(%rip),%rsi        # 119e9 <g_1404+0x969>
   107b8:	48 89 c7             	mov    %rax,%rdi
   107bb:	e8 33 5f ff ff       	callq  66f3 <transparent_crc>
   107c0:	48 8b 05 c9 58 00 00 	mov    0x58c9(%rip),%rax        # 16090 <g_1533>
   107c7:	48 c1 e8 0d          	shr    $0xd,%rax
   107cb:	66 25 ff 3f          	and    $0x3fff,%ax
   107cf:	0f b7 c0             	movzwl %ax,%eax
   107d2:	8b 55 fc             	mov    -0x4(%rbp),%edx
   107d5:	48 8d 35 17 12 00 00 	lea    0x1217(%rip),%rsi        # 119f3 <g_1404+0x973>
   107dc:	48 89 c7             	mov    %rax,%rdi
   107df:	e8 0f 5f ff ff       	callq  66f3 <transparent_crc>
   107e4:	0f b7 05 a9 58 00 00 	movzwl 0x58a9(%rip),%eax        # 16094 <g_1533+0x4>
   107eb:	0f b7 c0             	movzwl %ax,%eax
   107ee:	8b 55 fc             	mov    -0x4(%rbp),%edx
   107f1:	48 8d 35 05 12 00 00 	lea    0x1205(%rip),%rsi        # 119fd <g_1404+0x97d>
   107f8:	48 89 c7             	mov    %rax,%rdi
   107fb:	e8 f3 5e ff ff       	callq  66f3 <transparent_crc>
   10800:	48 8b 05 91 58 00 00 	mov    0x5891(%rip),%rax        # 16098 <g_1533+0x8>
   10807:	c1 e0 03             	shl    $0x3,%eax
   1080a:	c0 f8 03             	sar    $0x3,%al
   1080d:	48 0f be c0          	movsbq %al,%rax
   10811:	8b 55 fc             	mov    -0x4(%rbp),%edx
   10814:	48 8d 35 ec 11 00 00 	lea    0x11ec(%rip),%rsi        # 11a07 <g_1404+0x987>
   1081b:	48 89 c7             	mov    %rax,%rdi
   1081e:	e8 d0 5e ff ff       	callq  66f3 <transparent_crc>
   10823:	48 8b 05 6e 58 00 00 	mov    0x586e(%rip),%rax        # 16098 <g_1533+0x8>
   1082a:	48 c1 e0 1e          	shl    $0x1e,%rax
   1082e:	48 c1 f8 23          	sar    $0x23,%rax
   10832:	48 98                	cltq   
   10834:	8b 55 fc             	mov    -0x4(%rbp),%edx
   10837:	48 8d 35 d3 11 00 00 	lea    0x11d3(%rip),%rsi        # 11a11 <g_1404+0x991>
   1083e:	48 89 c7             	mov    %rax,%rdi
   10841:	e8 ad 5e ff ff       	callq  66f3 <transparent_crc>
   10846:	48 8b 05 4b 58 00 00 	mov    0x584b(%rip),%rax        # 16098 <g_1533+0x8>
   1084d:	48 c1 e8 22          	shr    $0x22,%rax
   10851:	66 25 ff 03          	and    $0x3ff,%ax
   10855:	0f b7 c0             	movzwl %ax,%eax
   10858:	8b 55 fc             	mov    -0x4(%rbp),%edx
   1085b:	48 8d 35 b9 11 00 00 	lea    0x11b9(%rip),%rsi        # 11a1b <g_1404+0x99b>
   10862:	48 89 c7             	mov    %rax,%rdi
   10865:	e8 89 5e ff ff       	callq  66f3 <transparent_crc>
   1086a:	48 8b 05 27 58 00 00 	mov    0x5827(%rip),%rax        # 16098 <g_1533+0x8>
   10871:	48 c1 e8 2c          	shr    $0x2c,%rax
   10875:	48 89 c2             	mov    %rax,%rdx
   10878:	48 8b 05 21 58 00 00 	mov    0x5821(%rip),%rax        # 160a0 <g_1533+0x10>
   1087f:	83 e0 7f             	and    $0x7f,%eax
   10882:	48 c1 e0 14          	shl    $0x14,%rax
   10886:	48 09 d0             	or     %rdx,%rax
   10889:	89 c1                	mov    %eax,%ecx
   1088b:	8b 45 fc             	mov    -0x4(%rbp),%eax
   1088e:	89 c2                	mov    %eax,%edx
   10890:	48 8d 35 8e 11 00 00 	lea    0x118e(%rip),%rsi        # 11a25 <g_1404+0x9a5>
   10897:	48 89 cf             	mov    %rcx,%rdi
   1089a:	e8 54 5e ff ff       	callq  66f3 <transparent_crc>
   1089f:	48 8b 05 0a 58 00 00 	mov    0x580a(%rip),%rax        # 160b0 <g_1570>
   108a6:	c1 e0 03             	shl    $0x3,%eax
   108a9:	66 c1 f8 03          	sar    $0x3,%ax
   108ad:	48 0f bf c0          	movswq %ax,%rax
   108b1:	8b 55 fc             	mov    -0x4(%rbp),%edx
   108b4:	48 8d 35 74 11 00 00 	lea    0x1174(%rip),%rsi        # 11a2f <g_1404+0x9af>
   108bb:	48 89 c7             	mov    %rax,%rdi
   108be:	e8 30 5e ff ff       	callq  66f3 <transparent_crc>
   108c3:	48 8b 05 e6 57 00 00 	mov    0x57e6(%rip),%rax        # 160b0 <g_1570>
   108ca:	48 c1 e8 0d          	shr    $0xd,%rax
   108ce:	66 25 ff 3f          	and    $0x3fff,%ax
   108d2:	0f b7 c0             	movzwl %ax,%eax
   108d5:	8b 55 fc             	mov    -0x4(%rbp),%edx
   108d8:	48 8d 35 5a 11 00 00 	lea    0x115a(%rip),%rsi        # 11a39 <g_1404+0x9b9>
   108df:	48 89 c7             	mov    %rax,%rdi
   108e2:	e8 0c 5e ff ff       	callq  66f3 <transparent_crc>
   108e7:	0f b7 05 c6 57 00 00 	movzwl 0x57c6(%rip),%eax        # 160b4 <g_1570+0x4>
   108ee:	0f b7 c0             	movzwl %ax,%eax
   108f1:	8b 55 fc             	mov    -0x4(%rbp),%edx
   108f4:	48 8d 35 48 11 00 00 	lea    0x1148(%rip),%rsi        # 11a43 <g_1404+0x9c3>
   108fb:	48 89 c7             	mov    %rax,%rdi
   108fe:	e8 f0 5d ff ff       	callq  66f3 <transparent_crc>
   10903:	48 8b 05 ae 57 00 00 	mov    0x57ae(%rip),%rax        # 160b8 <g_1570+0x8>
   1090a:	c1 e0 03             	shl    $0x3,%eax
   1090d:	c0 f8 03             	sar    $0x3,%al
   10910:	48 0f be c0          	movsbq %al,%rax
   10914:	8b 55 fc             	mov    -0x4(%rbp),%edx
   10917:	48 8d 35 2f 11 00 00 	lea    0x112f(%rip),%rsi        # 11a4d <g_1404+0x9cd>
   1091e:	48 89 c7             	mov    %rax,%rdi
   10921:	e8 cd 5d ff ff       	callq  66f3 <transparent_crc>
   10926:	48 8b 05 8b 57 00 00 	mov    0x578b(%rip),%rax        # 160b8 <g_1570+0x8>
   1092d:	48 c1 e0 1e          	shl    $0x1e,%rax
   10931:	48 c1 f8 23          	sar    $0x23,%rax
   10935:	48 98                	cltq   
   10937:	8b 55 fc             	mov    -0x4(%rbp),%edx
   1093a:	48 8d 35 16 11 00 00 	lea    0x1116(%rip),%rsi        # 11a57 <g_1404+0x9d7>
   10941:	48 89 c7             	mov    %rax,%rdi
   10944:	e8 aa 5d ff ff       	callq  66f3 <transparent_crc>
   10949:	48 8b 05 68 57 00 00 	mov    0x5768(%rip),%rax        # 160b8 <g_1570+0x8>
   10950:	48 c1 e8 22          	shr    $0x22,%rax
   10954:	66 25 ff 03          	and    $0x3ff,%ax
   10958:	0f b7 c0             	movzwl %ax,%eax
   1095b:	8b 55 fc             	mov    -0x4(%rbp),%edx
   1095e:	48 8d 35 fc 10 00 00 	lea    0x10fc(%rip),%rsi        # 11a61 <g_1404+0x9e1>
   10965:	48 89 c7             	mov    %rax,%rdi
   10968:	e8 86 5d ff ff       	callq  66f3 <transparent_crc>
   1096d:	48 8b 05 44 57 00 00 	mov    0x5744(%rip),%rax        # 160b8 <g_1570+0x8>
   10974:	48 c1 e8 2c          	shr    $0x2c,%rax
   10978:	48 89 c2             	mov    %rax,%rdx
   1097b:	48 8b 05 3e 57 00 00 	mov    0x573e(%rip),%rax        # 160c0 <g_1570+0x10>
   10982:	83 e0 7f             	and    $0x7f,%eax
   10985:	48 c1 e0 14          	shl    $0x14,%rax
   10989:	48 09 d0             	or     %rdx,%rax
   1098c:	89 c1                	mov    %eax,%ecx
   1098e:	8b 45 fc             	mov    -0x4(%rbp),%eax
   10991:	89 c2                	mov    %eax,%edx
   10993:	48 8d 35 d1 10 00 00 	lea    0x10d1(%rip),%rsi        # 11a6b <g_1404+0x9eb>
   1099a:	48 89 cf             	mov    %rcx,%rdi
   1099d:	e8 51 5d ff ff       	callq  66f3 <transparent_crc>
   109a2:	c7 45 f0 00 00 00 00 	movl   $0x0,-0x10(%rbp)
   109a9:	eb 6d                	jmp    10a18 <main+0x1edc>
   109ab:	c7 45 f4 00 00 00 00 	movl   $0x0,-0xc(%rbp)
   109b2:	eb 5a                	jmp    10a0e <main+0x1ed2>
   109b4:	8b 45 f4             	mov    -0xc(%rbp),%eax
   109b7:	48 98                	cltq   
   109b9:	8b 55 f0             	mov    -0x10(%rbp),%edx
   109bc:	48 63 d2             	movslq %edx,%rdx
   109bf:	48 c1 e2 03          	shl    $0x3,%rdx
   109c3:	48 01 d0             	add    %rdx,%rax
   109c6:	48 8d 14 00          	lea    (%rax,%rax,1),%rdx
   109ca:	48 8d 05 0f 57 00 00 	lea    0x570f(%rip),%rax        # 160e0 <g_1584>
   109d1:	0f b7 04 02          	movzwl (%rdx,%rax,1),%eax
   109d5:	48 0f bf c0          	movswq %ax,%rax
   109d9:	8b 55 fc             	mov    -0x4(%rbp),%edx
   109dc:	48 8d 35 92 10 00 00 	lea    0x1092(%rip),%rsi        # 11a75 <g_1404+0x9f5>
   109e3:	48 89 c7             	mov    %rax,%rdi
   109e6:	e8 08 5d ff ff       	callq  66f3 <transparent_crc>
   109eb:	83 7d fc 00          	cmpl   $0x0,-0x4(%rbp)
   109ef:	74 19                	je     10a0a <main+0x1ece>
   109f1:	8b 55 f4             	mov    -0xc(%rbp),%edx
   109f4:	8b 45 f0             	mov    -0x10(%rbp),%eax
   109f7:	89 c6                	mov    %eax,%esi
   109f9:	48 8d 3d 8d 0a 00 00 	lea    0xa8d(%rip),%rdi        # 1148d <g_1404+0x40d>
   10a00:	b8 00 00 00 00       	mov    $0x0,%eax
   10a05:	e8 76 46 ff ff       	callq  5080 <printf@plt>
   10a0a:	83 45 f4 01          	addl   $0x1,-0xc(%rbp)
   10a0e:	83 7d f4 07          	cmpl   $0x7,-0xc(%rbp)
   10a12:	7e a0                	jle    109b4 <main+0x1e78>
   10a14:	83 45 f0 01          	addl   $0x1,-0x10(%rbp)
   10a18:	83 7d f0 03          	cmpl   $0x3,-0x10(%rbp)
   10a1c:	7e 8d                	jle    109ab <main+0x1e6f>
   10a1e:	0f b6 05 fb 56 00 00 	movzbl 0x56fb(%rip),%eax        # 16120 <g_1595>
   10a25:	0f b6 c0             	movzbl %al,%eax
   10a28:	8b 55 fc             	mov    -0x4(%rbp),%edx
   10a2b:	48 8d 35 50 10 00 00 	lea    0x1050(%rip),%rsi        # 11a82 <g_1404+0xa02>
   10a32:	48 89 c7             	mov    %rax,%rdi
   10a35:	e8 b9 5c ff ff       	callq  66f3 <transparent_crc>
   10a3a:	c7 45 f0 00 00 00 00 	movl   $0x0,-0x10(%rbp)
   10a41:	e9 42 02 00 00       	jmpq   10c88 <main+0x214c>
   10a46:	8b 45 f0             	mov    -0x10(%rbp),%eax
   10a49:	48 63 d0             	movslq %eax,%rdx
   10a4c:	48 89 d0             	mov    %rdx,%rax
   10a4f:	48 c1 e0 04          	shl    $0x4,%rax
   10a53:	48 01 c2             	add    %rax,%rdx
   10a56:	48 8d 05 e3 56 00 00 	lea    0x56e3(%rip),%rax        # 16140 <g_1635>
   10a5d:	0f b6 0c 02          	movzbl (%rdx,%rax,1),%ecx
   10a61:	0f b6 44 02 01       	movzbl 0x1(%rdx,%rax,1),%eax
   10a66:	83 e0 1f             	and    $0x1f,%eax
   10a69:	48 c1 e0 08          	shl    $0x8,%rax
   10a6d:	48 09 c8             	or     %rcx,%rax
   10a70:	48 c1 e0 33          	shl    $0x33,%rax
   10a74:	48 c1 f8 33          	sar    $0x33,%rax
   10a78:	48 0f bf c0          	movswq %ax,%rax
   10a7c:	8b 55 fc             	mov    -0x4(%rbp),%edx
   10a7f:	48 8d 35 03 10 00 00 	lea    0x1003(%rip),%rsi        # 11a89 <g_1404+0xa09>
   10a86:	48 89 c7             	mov    %rax,%rdi
   10a89:	e8 65 5c ff ff       	callq  66f3 <transparent_crc>
   10a8e:	8b 45 f0             	mov    -0x10(%rbp),%eax
   10a91:	48 63 d0             	movslq %eax,%rdx
   10a94:	48 89 d0             	mov    %rdx,%rax
   10a97:	48 c1 e0 04          	shl    $0x4,%rax
   10a9b:	48 01 c2             	add    %rax,%rdx
   10a9e:	48 8d 05 9b 56 00 00 	lea    0x569b(%rip),%rax        # 16140 <g_1635>
   10aa5:	0f b6 4c 02 01       	movzbl 0x1(%rdx,%rax,1),%ecx
   10aaa:	c0 e9 05             	shr    $0x5,%cl
   10aad:	0f b6 c9             	movzbl %cl,%ecx
   10ab0:	0f b6 74 02 02       	movzbl 0x2(%rdx,%rax,1),%esi
   10ab5:	48 c1 e6 03          	shl    $0x3,%rsi
   10ab9:	48 09 f1             	or     %rsi,%rcx
   10abc:	0f b6 44 02 03       	movzbl 0x3(%rdx,%rax,1),%eax
   10ac1:	83 e0 07             	and    $0x7,%eax
   10ac4:	48 c1 e0 0b          	shl    $0xb,%rax
   10ac8:	48 09 c8             	or     %rcx,%rax
   10acb:	0f b7 c0             	movzwl %ax,%eax
   10ace:	8b 55 fc             	mov    -0x4(%rbp),%edx
   10ad1:	48 8d 35 be 0f 00 00 	lea    0xfbe(%rip),%rsi        # 11a96 <g_1404+0xa16>
   10ad8:	48 89 c7             	mov    %rax,%rdi
   10adb:	e8 13 5c ff ff       	callq  66f3 <transparent_crc>
   10ae0:	8b 45 f0             	mov    -0x10(%rbp),%eax
   10ae3:	48 63 d0             	movslq %eax,%rdx
   10ae6:	48 89 d0             	mov    %rdx,%rax
   10ae9:	48 c1 e0 04          	shl    $0x4,%rax
   10aed:	48 01 c2             	add    %rax,%rdx
   10af0:	48 8d 05 4d 56 00 00 	lea    0x564d(%rip),%rax        # 16144 <g_1635+0x4>
   10af7:	0f b7 04 02          	movzwl (%rdx,%rax,1),%eax
   10afb:	0f b7 c0             	movzwl %ax,%eax
   10afe:	8b 55 fc             	mov    -0x4(%rbp),%edx
   10b01:	48 8d 35 9b 0f 00 00 	lea    0xf9b(%rip),%rsi        # 11aa3 <g_1404+0xa23>
   10b08:	48 89 c7             	mov    %rax,%rdi
   10b0b:	e8 e3 5b ff ff       	callq  66f3 <transparent_crc>
   10b10:	8b 45 f0             	mov    -0x10(%rbp),%eax
   10b13:	48 63 d0             	movslq %eax,%rdx
   10b16:	48 89 d0             	mov    %rdx,%rax
   10b19:	48 c1 e0 04          	shl    $0x4,%rax
   10b1d:	48 01 c2             	add    %rax,%rdx
   10b20:	48 8d 05 19 56 00 00 	lea    0x5619(%rip),%rax        # 16140 <g_1635>
   10b27:	0f b6 44 02 08       	movzbl 0x8(%rdx,%rax,1),%eax
   10b2c:	c1 e0 03             	shl    $0x3,%eax
   10b2f:	c0 f8 03             	sar    $0x3,%al
   10b32:	48 0f be c0          	movsbq %al,%rax
   10b36:	8b 55 fc             	mov    -0x4(%rbp),%edx
   10b39:	48 8d 35 70 0f 00 00 	lea    0xf70(%rip),%rsi        # 11ab0 <g_1404+0xa30>
   10b40:	48 89 c7             	mov    %rax,%rdi
   10b43:	e8 ab 5b ff ff       	callq  66f3 <transparent_crc>
   10b48:	8b 45 f0             	mov    -0x10(%rbp),%eax
   10b4b:	48 63 d0             	movslq %eax,%rdx
   10b4e:	48 89 d0             	mov    %rdx,%rax
   10b51:	48 c1 e0 04          	shl    $0x4,%rax
   10b55:	48 01 c2             	add    %rax,%rdx
   10b58:	48 8d 05 e1 55 00 00 	lea    0x55e1(%rip),%rax        # 16140 <g_1635>
   10b5f:	0f b6 4c 02 08       	movzbl 0x8(%rdx,%rax,1),%ecx
   10b64:	c0 e9 05             	shr    $0x5,%cl
   10b67:	0f b6 c9             	movzbl %cl,%ecx
   10b6a:	0f b6 74 02 09       	movzbl 0x9(%rdx,%rax,1),%esi
   10b6f:	48 c1 e6 03          	shl    $0x3,%rsi
   10b73:	48 09 ce             	or     %rcx,%rsi
   10b76:	0f b6 4c 02 0a       	movzbl 0xa(%rdx,%rax,1),%ecx
   10b7b:	48 c1 e1 0b          	shl    $0xb,%rcx
   10b7f:	48 09 ce             	or     %rcx,%rsi
   10b82:	0f b6 4c 02 0b       	movzbl 0xb(%rdx,%rax,1),%ecx
   10b87:	48 c1 e1 13          	shl    $0x13,%rcx
   10b8b:	48 09 f1             	or     %rsi,%rcx
   10b8e:	0f b6 44 02 0c       	movzbl 0xc(%rdx,%rax,1),%eax
   10b93:	83 e0 03             	and    $0x3,%eax
   10b96:	48 c1 e0 1b          	shl    $0x1b,%rax
   10b9a:	48 09 c8             	or     %rcx,%rax
   10b9d:	48 c1 e0 23          	shl    $0x23,%rax
   10ba1:	48 c1 f8 23          	sar    $0x23,%rax
   10ba5:	48 98                	cltq   
   10ba7:	8b 55 fc             	mov    -0x4(%rbp),%edx
   10baa:	48 8d 35 0c 0f 00 00 	lea    0xf0c(%rip),%rsi        # 11abd <g_1404+0xa3d>
   10bb1:	48 89 c7             	mov    %rax,%rdi
   10bb4:	e8 3a 5b ff ff       	callq  66f3 <transparent_crc>
   10bb9:	8b 45 f0             	mov    -0x10(%rbp),%eax
   10bbc:	48 63 d0             	movslq %eax,%rdx
   10bbf:	48 89 d0             	mov    %rdx,%rax
   10bc2:	48 c1 e0 04          	shl    $0x4,%rax
   10bc6:	48 01 c2             	add    %rax,%rdx
   10bc9:	48 8d 05 70 55 00 00 	lea    0x5570(%rip),%rax        # 16140 <g_1635>
   10bd0:	0f b6 4c 02 0c       	movzbl 0xc(%rdx,%rax,1),%ecx
   10bd5:	c0 e9 02             	shr    $0x2,%cl
   10bd8:	0f b6 c9             	movzbl %cl,%ecx
   10bdb:	0f b6 44 02 0d       	movzbl 0xd(%rdx,%rax,1),%eax
   10be0:	83 e0 0f             	and    $0xf,%eax
   10be3:	48 c1 e0 06          	shl    $0x6,%rax
   10be7:	48 09 c8             	or     %rcx,%rax
   10bea:	0f b7 c0             	movzwl %ax,%eax
   10bed:	8b 55 fc             	mov    -0x4(%rbp),%edx
   10bf0:	48 8d 35 d3 0e 00 00 	lea    0xed3(%rip),%rsi        # 11aca <g_1404+0xa4a>
   10bf7:	48 89 c7             	mov    %rax,%rdi
   10bfa:	e8 f4 5a ff ff       	callq  66f3 <transparent_crc>
   10bff:	8b 45 f0             	mov    -0x10(%rbp),%eax
   10c02:	48 63 d0             	movslq %eax,%rdx
   10c05:	48 89 d0             	mov    %rdx,%rax
   10c08:	48 c1 e0 04          	shl    $0x4,%rax
   10c0c:	48 01 c2             	add    %rax,%rdx
   10c0f:	48 8d 05 2a 55 00 00 	lea    0x552a(%rip),%rax        # 16140 <g_1635>
   10c16:	0f b6 4c 02 0d       	movzbl 0xd(%rdx,%rax,1),%ecx
   10c1b:	c0 e9 04             	shr    $0x4,%cl
   10c1e:	0f b6 c9             	movzbl %cl,%ecx
   10c21:	0f b6 74 02 0e       	movzbl 0xe(%rdx,%rax,1),%esi
   10c26:	40 0f b6 f6          	movzbl %sil,%esi
   10c2a:	48 c1 e6 04          	shl    $0x4,%rsi
   10c2e:	48 09 ce             	or     %rcx,%rsi
   10c31:	0f b6 4c 02 0f       	movzbl 0xf(%rdx,%rax,1),%ecx
   10c36:	0f b6 c9             	movzbl %cl,%ecx
   10c39:	48 c1 e1 0c          	shl    $0xc,%rcx
   10c3d:	48 09 f1             	or     %rsi,%rcx
   10c40:	0f b6 44 02 10       	movzbl 0x10(%rdx,%rax,1),%eax
   10c45:	0f b6 c0             	movzbl %al,%eax
   10c48:	83 e0 7f             	and    $0x7f,%eax
   10c4b:	48 c1 e0 14          	shl    $0x14,%rax
   10c4f:	48 09 c8             	or     %rcx,%rax
   10c52:	89 c1                	mov    %eax,%ecx
   10c54:	8b 45 fc             	mov    -0x4(%rbp),%eax
   10c57:	89 c2                	mov    %eax,%edx
   10c59:	48 8d 35 77 0e 00 00 	lea    0xe77(%rip),%rsi        # 11ad7 <g_1404+0xa57>
   10c60:	48 89 cf             	mov    %rcx,%rdi
   10c63:	e8 8b 5a ff ff       	callq  66f3 <transparent_crc>
   10c68:	83 7d fc 00          	cmpl   $0x0,-0x4(%rbp)
   10c6c:	74 16                	je     10c84 <main+0x2148>
   10c6e:	8b 45 f0             	mov    -0x10(%rbp),%eax
   10c71:	89 c6                	mov    %eax,%esi
   10c73:	48 8d 3d e7 07 00 00 	lea    0x7e7(%rip),%rdi        # 11461 <g_1404+0x3e1>
   10c7a:	b8 00 00 00 00       	mov    $0x0,%eax
   10c7f:	e8 fc 43 ff ff       	callq  5080 <printf@plt>
   10c84:	83 45 f0 01          	addl   $0x1,-0x10(%rbp)
   10c88:	83 7d f0 05          	cmpl   $0x5,-0x10(%rbp)
   10c8c:	0f 8e b4 fd ff ff    	jle    10a46 <main+0x1f0a>
   10c92:	8b 05 10 55 00 00    	mov    0x5510(%rip),%eax        # 161a8 <g_1723>
   10c98:	48 98                	cltq   
   10c9a:	8b 55 fc             	mov    -0x4(%rbp),%edx
   10c9d:	48 8d 35 40 0e 00 00 	lea    0xe40(%rip),%rsi        # 11ae4 <g_1404+0xa64>
   10ca4:	48 89 c7             	mov    %rax,%rdi
   10ca7:	e8 47 5a ff ff       	callq  66f3 <transparent_crc>
   10cac:	8b 05 fa 54 00 00    	mov    0x54fa(%rip),%eax        # 161ac <g_1737>
   10cb2:	89 c1                	mov    %eax,%ecx
   10cb4:	8b 45 fc             	mov    -0x4(%rbp),%eax
   10cb7:	89 c2                	mov    %eax,%edx
   10cb9:	48 8d 35 2b 0e 00 00 	lea    0xe2b(%rip),%rsi        # 11aeb <g_1404+0xa6b>
   10cc0:	48 89 cf             	mov    %rcx,%rdi
   10cc3:	e8 2b 5a ff ff       	callq  66f3 <transparent_crc>
   10cc8:	0f b7 05 e1 54 00 00 	movzwl 0x54e1(%rip),%eax        # 161b0 <g_1799>
   10ccf:	c1 e0 03             	shl    $0x3,%eax
   10cd2:	66 c1 f8 03          	sar    $0x3,%ax
   10cd6:	48 0f bf c0          	movswq %ax,%rax
   10cda:	8b 55 fc             	mov    -0x4(%rbp),%edx
   10cdd:	48 8d 35 0e 0e 00 00 	lea    0xe0e(%rip),%rsi        # 11af2 <g_1404+0xa72>
   10ce4:	48 89 c7             	mov    %rax,%rdi
   10ce7:	e8 07 5a ff ff       	callq  66f3 <transparent_crc>
   10cec:	8b 05 be 54 00 00    	mov    0x54be(%rip),%eax        # 161b0 <g_1799>
   10cf2:	c1 e8 0d             	shr    $0xd,%eax
   10cf5:	66 25 ff 3f          	and    $0x3fff,%ax
   10cf9:	0f b7 c0             	movzwl %ax,%eax
   10cfc:	8b 55 fc             	mov    -0x4(%rbp),%edx
   10cff:	48 8d 35 f6 0d 00 00 	lea    0xdf6(%rip),%rsi        # 11afc <g_1404+0xa7c>
   10d06:	48 89 c7             	mov    %rax,%rdi
   10d09:	e8 e5 59 ff ff       	callq  66f3 <transparent_crc>
   10d0e:	0f b7 05 9f 54 00 00 	movzwl 0x549f(%rip),%eax        # 161b4 <g_1799+0x4>
   10d15:	0f b7 c0             	movzwl %ax,%eax
   10d18:	8b 55 fc             	mov    -0x4(%rbp),%edx
   10d1b:	48 8d 35 e4 0d 00 00 	lea    0xde4(%rip),%rsi        # 11b06 <g_1404+0xa86>
   10d22:	48 89 c7             	mov    %rax,%rdi
   10d25:	e8 c9 59 ff ff       	callq  66f3 <transparent_crc>
   10d2a:	0f b6 05 87 54 00 00 	movzbl 0x5487(%rip),%eax        # 161b8 <g_1799+0x8>
   10d31:	c1 e0 03             	shl    $0x3,%eax
   10d34:	c0 f8 03             	sar    $0x3,%al
   10d37:	48 0f be c0          	movsbq %al,%rax
   10d3b:	8b 55 fc             	mov    -0x4(%rbp),%edx
   10d3e:	48 8d 35 cb 0d 00 00 	lea    0xdcb(%rip),%rsi        # 11b10 <g_1404+0xa90>
   10d45:	48 89 c7             	mov    %rax,%rdi
   10d48:	e8 a6 59 ff ff       	callq  66f3 <transparent_crc>
   10d4d:	48 8b 05 64 54 00 00 	mov    0x5464(%rip),%rax        # 161b8 <g_1799+0x8>
   10d54:	48 c1 e0 1e          	shl    $0x1e,%rax
   10d58:	48 c1 f8 23          	sar    $0x23,%rax
   10d5c:	48 98                	cltq   
   10d5e:	8b 55 fc             	mov    -0x4(%rbp),%edx
   10d61:	48 8d 35 b2 0d 00 00 	lea    0xdb2(%rip),%rsi        # 11b1a <g_1404+0xa9a>
   10d68:	48 89 c7             	mov    %rax,%rdi
   10d6b:	e8 83 59 ff ff       	callq  66f3 <transparent_crc>
   10d70:	0f b7 05 45 54 00 00 	movzwl 0x5445(%rip),%eax        # 161bc <g_1799+0xc>
   10d77:	66 c1 e8 02          	shr    $0x2,%ax
   10d7b:	66 25 ff 03          	and    $0x3ff,%ax
   10d7f:	0f b7 c0             	movzwl %ax,%eax
   10d82:	8b 55 fc             	mov    -0x4(%rbp),%edx
   10d85:	48 8d 35 98 0d 00 00 	lea    0xd98(%rip),%rsi        # 11b24 <g_1404+0xaa4>
   10d8c:	48 89 c7             	mov    %rax,%rdi
   10d8f:	e8 5f 59 ff ff       	callq  66f3 <transparent_crc>
   10d94:	48 8b 05 1d 54 00 00 	mov    0x541d(%rip),%rax        # 161b8 <g_1799+0x8>
   10d9b:	48 c1 e8 2c          	shr    $0x2c,%rax
   10d9f:	48 89 c2             	mov    %rax,%rdx
   10da2:	48 8b 05 17 54 00 00 	mov    0x5417(%rip),%rax        # 161c0 <g_1799+0x10>
   10da9:	83 e0 7f             	and    $0x7f,%eax
   10dac:	48 c1 e0 14          	shl    $0x14,%rax
   10db0:	48 09 d0             	or     %rdx,%rax
   10db3:	89 c1                	mov    %eax,%ecx
   10db5:	8b 45 fc             	mov    -0x4(%rbp),%eax
   10db8:	89 c2                	mov    %eax,%edx
   10dba:	48 8d 35 6d 0d 00 00 	lea    0xd6d(%rip),%rsi        # 11b2e <g_1404+0xaae>
   10dc1:	48 89 cf             	mov    %rcx,%rdi
   10dc4:	e8 2a 59 ff ff       	callq  66f3 <transparent_crc>
   10dc9:	48 8b 05 f8 53 00 00 	mov    0x53f8(%rip),%rax        # 161c8 <g_1919>
   10dd0:	8b 55 fc             	mov    -0x4(%rbp),%edx
   10dd3:	48 8d 35 5e 0d 00 00 	lea    0xd5e(%rip),%rsi        # 11b38 <g_1404+0xab8>
   10dda:	48 89 c7             	mov    %rax,%rdi
   10ddd:	e8 11 59 ff ff       	callq  66f3 <transparent_crc>
   10de2:	0f b7 05 e7 53 00 00 	movzwl 0x53e7(%rip),%eax        # 161d0 <g_1970>
   10de9:	0f b7 c0             	movzwl %ax,%eax
   10dec:	8b 55 fc             	mov    -0x4(%rbp),%edx
   10def:	48 8d 35 49 0d 00 00 	lea    0xd49(%rip),%rsi        # 11b3f <g_1404+0xabf>
   10df6:	48 89 c7             	mov    %rax,%rdi
   10df9:	e8 f5 58 ff ff       	callq  66f3 <transparent_crc>
   10dfe:	8b 05 d0 53 00 00    	mov    0x53d0(%rip),%eax        # 161d4 <g_2003>
   10e04:	48 98                	cltq   
   10e06:	8b 55 fc             	mov    -0x4(%rbp),%edx
   10e09:	48 8d 35 36 0d 00 00 	lea    0xd36(%rip),%rsi        # 11b46 <g_1404+0xac6>
   10e10:	48 89 c7             	mov    %rax,%rdi
   10e13:	e8 db 58 ff ff       	callq  66f3 <transparent_crc>
   10e18:	0f b6 05 b9 53 00 00 	movzbl 0x53b9(%rip),%eax        # 161d8 <g_2016>
   10e1f:	0f b6 c0             	movzbl %al,%eax
   10e22:	8b 55 fc             	mov    -0x4(%rbp),%edx
   10e25:	48 8d 35 21 0d 00 00 	lea    0xd21(%rip),%rsi        # 11b4d <g_1404+0xacd>
   10e2c:	48 89 c7             	mov    %rax,%rdi
   10e2f:	e8 bf 58 ff ff       	callq  66f3 <transparent_crc>
   10e34:	48 8b 05 a5 53 00 00 	mov    0x53a5(%rip),%rax        # 161e0 <g_2019>
   10e3b:	c1 e0 03             	shl    $0x3,%eax
   10e3e:	66 c1 f8 03          	sar    $0x3,%ax
   10e42:	48 0f bf c0          	movswq %ax,%rax
   10e46:	8b 55 fc             	mov    -0x4(%rbp),%edx
   10e49:	48 8d 35 04 0d 00 00 	lea    0xd04(%rip),%rsi        # 11b54 <g_1404+0xad4>
   10e50:	48 89 c7             	mov    %rax,%rdi
   10e53:	e8 9b 58 ff ff       	callq  66f3 <transparent_crc>
   10e58:	48 8b 05 81 53 00 00 	mov    0x5381(%rip),%rax        # 161e0 <g_2019>
   10e5f:	48 c1 e8 0d          	shr    $0xd,%rax
   10e63:	66 25 ff 3f          	and    $0x3fff,%ax
   10e67:	0f b7 c0             	movzwl %ax,%eax
   10e6a:	8b 55 fc             	mov    -0x4(%rbp),%edx
   10e6d:	48 8d 35 ea 0c 00 00 	lea    0xcea(%rip),%rsi        # 11b5e <g_1404+0xade>
   10e74:	48 89 c7             	mov    %rax,%rdi
   10e77:	e8 77 58 ff ff       	callq  66f3 <transparent_crc>
   10e7c:	0f b7 05 61 53 00 00 	movzwl 0x5361(%rip),%eax        # 161e4 <g_2019+0x4>
   10e83:	0f b7 c0             	movzwl %ax,%eax
   10e86:	8b 55 fc             	mov    -0x4(%rbp),%edx
   10e89:	48 8d 35 d8 0c 00 00 	lea    0xcd8(%rip),%rsi        # 11b68 <g_1404+0xae8>
   10e90:	48 89 c7             	mov    %rax,%rdi
   10e93:	e8 5b 58 ff ff       	callq  66f3 <transparent_crc>
   10e98:	48 8b 05 49 53 00 00 	mov    0x5349(%rip),%rax        # 161e8 <g_2019+0x8>
   10e9f:	c1 e0 03             	shl    $0x3,%eax
   10ea2:	c0 f8 03             	sar    $0x3,%al
   10ea5:	48 0f be c0          	movsbq %al,%rax
   10ea9:	8b 55 fc             	mov    -0x4(%rbp),%edx
   10eac:	48 8d 35 bf 0c 00 00 	lea    0xcbf(%rip),%rsi        # 11b72 <g_1404+0xaf2>
   10eb3:	48 89 c7             	mov    %rax,%rdi
   10eb6:	e8 38 58 ff ff       	callq  66f3 <transparent_crc>
   10ebb:	48 8b 05 26 53 00 00 	mov    0x5326(%rip),%rax        # 161e8 <g_2019+0x8>
   10ec2:	48 c1 e0 1e          	shl    $0x1e,%rax
   10ec6:	48 c1 f8 23          	sar    $0x23,%rax
   10eca:	48 98                	cltq   
   10ecc:	8b 55 fc             	mov    -0x4(%rbp),%edx
   10ecf:	48 8d 35 a6 0c 00 00 	lea    0xca6(%rip),%rsi        # 11b7c <g_1404+0xafc>
   10ed6:	48 89 c7             	mov    %rax,%rdi
   10ed9:	e8 15 58 ff ff       	callq  66f3 <transparent_crc>
   10ede:	48 8b 05 03 53 00 00 	mov    0x5303(%rip),%rax        # 161e8 <g_2019+0x8>
   10ee5:	48 c1 e8 22          	shr    $0x22,%rax
   10ee9:	66 25 ff 03          	and    $0x3ff,%ax
   10eed:	0f b7 c0             	movzwl %ax,%eax
   10ef0:	8b 55 fc             	mov    -0x4(%rbp),%edx
   10ef3:	48 8d 35 8c 0c 00 00 	lea    0xc8c(%rip),%rsi        # 11b86 <g_1404+0xb06>
   10efa:	48 89 c7             	mov    %rax,%rdi
   10efd:	e8 f1 57 ff ff       	callq  66f3 <transparent_crc>
   10f02:	48 8b 05 df 52 00 00 	mov    0x52df(%rip),%rax        # 161e8 <g_2019+0x8>
   10f09:	48 c1 e8 2c          	shr    $0x2c,%rax
   10f0d:	48 89 c2             	mov    %rax,%rdx
   10f10:	48 8b 05 d9 52 00 00 	mov    0x52d9(%rip),%rax        # 161f0 <g_2019+0x10>
   10f17:	83 e0 7f             	and    $0x7f,%eax
   10f1a:	48 c1 e0 14          	shl    $0x14,%rax
   10f1e:	48 09 d0             	or     %rdx,%rax
   10f21:	89 c1                	mov    %eax,%ecx
   10f23:	8b 45 fc             	mov    -0x4(%rbp),%eax
   10f26:	89 c2                	mov    %eax,%edx
   10f28:	48 8d 35 61 0c 00 00 	lea    0xc61(%rip),%rsi        # 11b90 <g_1404+0xb10>
   10f2f:	48 89 cf             	mov    %rcx,%rdi
   10f32:	e8 bc 57 ff ff       	callq  66f3 <transparent_crc>
   10f37:	8b 05 b7 52 00 00    	mov    0x52b7(%rip),%eax        # 161f4 <g_2069>
   10f3d:	89 c1                	mov    %eax,%ecx
   10f3f:	8b 45 fc             	mov    -0x4(%rbp),%eax
   10f42:	89 c2                	mov    %eax,%edx
   10f44:	48 8d 35 4f 0c 00 00 	lea    0xc4f(%rip),%rsi        # 11b9a <g_1404+0xb1a>
   10f4b:	48 89 cf             	mov    %rcx,%rdi
   10f4e:	e8 a0 57 ff ff       	callq  66f3 <transparent_crc>
   10f53:	8b 05 c7 40 00 00    	mov    0x40c7(%rip),%eax        # 15020 <crc32_context>
   10f59:	f7 d0                	not    %eax
   10f5b:	89 c2                	mov    %eax,%edx
   10f5d:	8b 45 fc             	mov    -0x4(%rbp),%eax
   10f60:	89 c6                	mov    %eax,%esi
   10f62:	89 d7                	mov    %edx,%edi
   10f64:	e8 2b 42 ff ff       	callq  5194 <platform_main_end>
   10f69:	b8 00 00 00 00       	mov    $0x0,%eax
   10f6e:	c9                   	leaveq 
   10f6f:	c3                   	retq   

0000000000010f70 <__libc_csu_init>:
   10f70:	f3 0f 1e fa          	endbr64 
   10f74:	41 57                	push   %r15
   10f76:	4c 8d 3d f3 3d 00 00 	lea    0x3df3(%rip),%r15        # 14d70 <__frame_dummy_init_array_entry>
   10f7d:	41 56                	push   %r14
   10f7f:	49 89 d6             	mov    %rdx,%r14
   10f82:	41 55                	push   %r13
   10f84:	49 89 f5             	mov    %rsi,%r13
   10f87:	41 54                	push   %r12
   10f89:	41 89 fc             	mov    %edi,%r12d
   10f8c:	55                   	push   %rbp
   10f8d:	48 8d 2d e4 3d 00 00 	lea    0x3de4(%rip),%rbp        # 14d78 <__do_global_dtors_aux_fini_array_entry>
   10f94:	53                   	push   %rbx
   10f95:	4c 29 fd             	sub    %r15,%rbp
   10f98:	48 83 ec 08          	sub    $0x8,%rsp
   10f9c:	e8 5f 40 ff ff       	callq  5000 <_init>
   10fa1:	48 c1 fd 03          	sar    $0x3,%rbp
   10fa5:	74 1f                	je     10fc6 <__libc_csu_init+0x56>
   10fa7:	31 db                	xor    %ebx,%ebx
   10fa9:	0f 1f 80 00 00 00 00 	nopl   0x0(%rax)
   10fb0:	4c 89 f2             	mov    %r14,%rdx
   10fb3:	4c 89 ee             	mov    %r13,%rsi
   10fb6:	44 89 e7             	mov    %r12d,%edi
   10fb9:	41 ff 14 df          	callq  *(%r15,%rbx,8)
   10fbd:	48 83 c3 01          	add    $0x1,%rbx
   10fc1:	48 39 dd             	cmp    %rbx,%rbp
   10fc4:	75 ea                	jne    10fb0 <__libc_csu_init+0x40>
   10fc6:	48 83 c4 08          	add    $0x8,%rsp
   10fca:	5b                   	pop    %rbx
   10fcb:	5d                   	pop    %rbp
   10fcc:	41 5c                	pop    %r12
   10fce:	41 5d                	pop    %r13
   10fd0:	41 5e                	pop    %r14
   10fd2:	41 5f                	pop    %r15
   10fd4:	c3                   	retq   
   10fd5:	66 66 2e 0f 1f 84 00 	data16 nopw %cs:0x0(%rax,%rax,1)
   10fdc:	00 00 00 00 

0000000000010fe0 <__libc_csu_fini>:
   10fe0:	f3 0f 1e fa          	endbr64 
   10fe4:	c3                   	retq   
