


Disassembly of section .text:

00000000000090a0 <_start>:
    90a0:	f3 0f 1e fa          	endbr64 
    90a4:	31 ed                	xor    %ebp,%ebp
    90a6:	49 89 d1             	mov    %rdx,%r9
    90a9:	5e                   	pop    %rsi
    90aa:	48 89 e2             	mov    %rsp,%rdx
    90ad:	48 83 e4 f0          	and    $0xfffffffffffffff0,%rsp
    90b1:	50                   	push   %rax
    90b2:	54                   	push   %rsp
    90b3:	4c 8d 05 36 8f 00 00 	lea    0x8f36(%rip),%r8        # 11ff0 <__libc_csu_fini>
    90ba:	48 8d 0d bf 8e 00 00 	lea    0x8ebf(%rip),%rcx        # 11f80 <__libc_csu_init>
    90c1:	48 8d 3d 75 80 00 00 	lea    0x8075(%rip),%rdi        # 1113d <main>
    90c8:	ff 15 fa ee 00 00    	callq  *0xeefa(%rip)        # 17fc8 <__libc_start_main@GLIBC_2.2.5>
    90ce:	f4                   	hlt    
    90cf:	90                   	nop

00000000000090d0 <deregister_tm_clones>:
    90d0:	48 8d 3d 39 24 01 00 	lea    0x12439(%rip),%rdi        # 1b510 <__TMC_END__>
    90d7:	48 8d 05 32 24 01 00 	lea    0x12432(%rip),%rax        # 1b510 <__TMC_END__>
    90de:	48 39 f8             	cmp    %rdi,%rax
    90e1:	74 15                	je     90f8 <deregister_tm_clones+0x28>
    90e3:	48 8b 05 d6 ee 00 00 	mov    0xeed6(%rip),%rax        # 17fc0 <_ITM_deregisterTMCloneTable>
    90ea:	48 85 c0             	test   %rax,%rax
    90ed:	74 09                	je     90f8 <deregister_tm_clones+0x28>
    90ef:	ff e0                	jmpq   *%rax
    90f1:	0f 1f 80 00 00 00 00 	nopl   0x0(%rax)
    90f8:	c3                   	retq   
    90f9:	0f 1f 80 00 00 00 00 	nopl   0x0(%rax)

0000000000009100 <register_tm_clones>:
    9100:	48 8d 3d 09 24 01 00 	lea    0x12409(%rip),%rdi        # 1b510 <__TMC_END__>
    9107:	48 8d 35 02 24 01 00 	lea    0x12402(%rip),%rsi        # 1b510 <__TMC_END__>
    910e:	48 29 fe             	sub    %rdi,%rsi
    9111:	48 89 f0             	mov    %rsi,%rax
    9114:	48 c1 ee 3f          	shr    $0x3f,%rsi
    9118:	48 c1 f8 03          	sar    $0x3,%rax
    911c:	48 01 c6             	add    %rax,%rsi
    911f:	48 d1 fe             	sar    %rsi
    9122:	74 14                	je     9138 <register_tm_clones+0x38>
    9124:	48 8b 05 ad ee 00 00 	mov    0xeead(%rip),%rax        # 17fd8 <_ITM_registerTMCloneTable>
    912b:	48 85 c0             	test   %rax,%rax
    912e:	74 08                	je     9138 <register_tm_clones+0x38>
    9130:	ff e0                	jmpq   *%rax
    9132:	66 0f 1f 44 00 00    	nopw   0x0(%rax,%rax,1)
    9138:	c3                   	retq   
    9139:	0f 1f 80 00 00 00 00 	nopl   0x0(%rax)

0000000000009140 <__do_global_dtors_aux>:
    9140:	f3 0f 1e fa          	endbr64 
    9144:	80 3d d5 23 01 00 00 	cmpb   $0x0,0x123d5(%rip)        # 1b520 <completed.8061>
    914b:	75 2b                	jne    9178 <__do_global_dtors_aux+0x38>
    914d:	55                   	push   %rbp
    914e:	48 83 3d 8a ee 00 00 	cmpq   $0x0,0xee8a(%rip)        # 17fe0 <__cxa_finalize@GLIBC_2.2.5>
    9155:	00 
    9156:	48 89 e5             	mov    %rsp,%rbp
    9159:	74 0c                	je     9167 <__do_global_dtors_aux+0x27>
    915b:	48 8b 3d a6 ee 00 00 	mov    0xeea6(%rip),%rdi        # 18008 <__dso_handle>
    9162:	e8 f9 fe ff ff       	callq  9060 <__cxa_finalize@plt>
    9167:	e8 64 ff ff ff       	callq  90d0 <deregister_tm_clones>
    916c:	c6 05 ad 23 01 00 01 	movb   $0x1,0x123ad(%rip)        # 1b520 <completed.8061>
    9173:	5d                   	pop    %rbp
    9174:	c3                   	retq   
    9175:	0f 1f 00             	nopl   (%rax)
    9178:	c3                   	retq   
    9179:	0f 1f 80 00 00 00 00 	nopl   0x0(%rax)

0000000000009180 <frame_dummy>:
    9180:	f3 0f 1e fa          	endbr64 
    9184:	e9 77 ff ff ff       	jmpq   9100 <register_tm_clones>

0000000000009189 <platform_main_begin>:
    9189:	f3 0f 1e fa          	endbr64 
    918d:	55                   	push   %rbp
    918e:	48 89 e5             	mov    %rsp,%rbp
    9191:	90                   	nop
    9192:	5d                   	pop    %rbp
    9193:	c3                   	retq   

0000000000009194 <platform_main_end>:
    9194:	f3 0f 1e fa          	endbr64 
    9198:	55                   	push   %rbp
    9199:	48 89 e5             	mov    %rsp,%rbp
    919c:	48 83 ec 10          	sub    $0x10,%rsp
    91a0:	89 7d fc             	mov    %edi,-0x4(%rbp)
    91a3:	89 75 f8             	mov    %esi,-0x8(%rbp)
    91a6:	8b 45 fc             	mov    -0x4(%rbp),%eax
    91a9:	89 c6                	mov    %eax,%esi
    91ab:	48 8d 3d 6e 9e 00 00 	lea    0x9e6e(%rip),%rdi        # 13020 <_IO_stdin_used+0x20>
    91b2:	b8 00 00 00 00       	mov    $0x0,%eax
    91b7:	e8 c4 fe ff ff       	callq  9080 <printf@plt>
    91bc:	90                   	nop
    91bd:	c9                   	leaveq 
    91be:	c3                   	retq   

00000000000091bf <safe_unary_minus_func_int8_t_s>:
    91bf:	f3 0f 1e fa          	endbr64 
    91c3:	55                   	push   %rbp
    91c4:	48 89 e5             	mov    %rsp,%rbp
    91c7:	89 f8                	mov    %edi,%eax
    91c9:	88 45 fc             	mov    %al,-0x4(%rbp)
    91cc:	0f b6 45 fc          	movzbl -0x4(%rbp),%eax
    91d0:	f7 d8                	neg    %eax
    91d2:	5d                   	pop    %rbp
    91d3:	c3                   	retq   

00000000000091d4 <safe_add_func_int8_t_s_s>:
    91d4:	f3 0f 1e fa          	endbr64 
    91d8:	55                   	push   %rbp
    91d9:	48 89 e5             	mov    %rsp,%rbp
    91dc:	89 fa                	mov    %edi,%edx
    91de:	89 f0                	mov    %esi,%eax
    91e0:	88 55 fc             	mov    %dl,-0x4(%rbp)
    91e3:	88 45 f8             	mov    %al,-0x8(%rbp)
    91e6:	0f b6 55 fc          	movzbl -0x4(%rbp),%edx
    91ea:	0f b6 45 f8          	movzbl -0x8(%rbp),%eax
    91ee:	01 d0                	add    %edx,%eax
    91f0:	5d                   	pop    %rbp
    91f1:	c3                   	retq   

00000000000091f2 <safe_sub_func_int8_t_s_s>:
    91f2:	f3 0f 1e fa          	endbr64 
    91f6:	55                   	push   %rbp
    91f7:	48 89 e5             	mov    %rsp,%rbp
    91fa:	89 fa                	mov    %edi,%edx
    91fc:	89 f0                	mov    %esi,%eax
    91fe:	88 55 fc             	mov    %dl,-0x4(%rbp)
    9201:	88 45 f8             	mov    %al,-0x8(%rbp)
    9204:	0f b6 55 fc          	movzbl -0x4(%rbp),%edx
    9208:	0f b6 45 f8          	movzbl -0x8(%rbp),%eax
    920c:	29 c2                	sub    %eax,%edx
    920e:	89 d0                	mov    %edx,%eax
    9210:	5d                   	pop    %rbp
    9211:	c3                   	retq   

0000000000009212 <safe_mul_func_int8_t_s_s>:
    9212:	f3 0f 1e fa          	endbr64 
    9216:	55                   	push   %rbp
    9217:	48 89 e5             	mov    %rsp,%rbp
    921a:	89 fa                	mov    %edi,%edx
    921c:	89 f0                	mov    %esi,%eax
    921e:	88 55 fc             	mov    %dl,-0x4(%rbp)
    9221:	88 45 f8             	mov    %al,-0x8(%rbp)
    9224:	0f b6 45 fc          	movzbl -0x4(%rbp),%eax
    9228:	0f b6 55 f8          	movzbl -0x8(%rbp),%edx
    922c:	0f af c2             	imul   %edx,%eax
    922f:	5d                   	pop    %rbp
    9230:	c3                   	retq   

0000000000009231 <safe_mod_func_int8_t_s_s>:
    9231:	f3 0f 1e fa          	endbr64 
    9235:	55                   	push   %rbp
    9236:	48 89 e5             	mov    %rsp,%rbp
    9239:	89 fa                	mov    %edi,%edx
    923b:	89 f0                	mov    %esi,%eax
    923d:	88 55 fc             	mov    %dl,-0x4(%rbp)
    9240:	88 45 f8             	mov    %al,-0x8(%rbp)
    9243:	80 7d f8 00          	cmpb   $0x0,-0x8(%rbp)
    9247:	74 1b                	je     9264 <safe_mod_func_int8_t_s_s+0x33>
    9249:	80 7d fc 80          	cmpb   $0x80,-0x4(%rbp)
    924d:	75 06                	jne    9255 <safe_mod_func_int8_t_s_s+0x24>
    924f:	80 7d f8 ff          	cmpb   $0xff,-0x8(%rbp)
    9253:	74 0f                	je     9264 <safe_mod_func_int8_t_s_s+0x33>
    9255:	0f be 45 fc          	movsbl -0x4(%rbp),%eax
    9259:	0f be 4d f8          	movsbl -0x8(%rbp),%ecx
    925d:	99                   	cltd   
    925e:	f7 f9                	idiv   %ecx
    9260:	89 d0                	mov    %edx,%eax
    9262:	eb 04                	jmp    9268 <safe_mod_func_int8_t_s_s+0x37>
    9264:	0f b6 45 fc          	movzbl -0x4(%rbp),%eax
    9268:	5d                   	pop    %rbp
    9269:	c3                   	retq   

000000000000926a <safe_div_func_int8_t_s_s>:
    926a:	f3 0f 1e fa          	endbr64 
    926e:	55                   	push   %rbp
    926f:	48 89 e5             	mov    %rsp,%rbp
    9272:	89 fa                	mov    %edi,%edx
    9274:	89 f0                	mov    %esi,%eax
    9276:	88 55 fc             	mov    %dl,-0x4(%rbp)
    9279:	88 45 f8             	mov    %al,-0x8(%rbp)
    927c:	80 7d f8 00          	cmpb   $0x0,-0x8(%rbp)
    9280:	74 19                	je     929b <safe_div_func_int8_t_s_s+0x31>
    9282:	80 7d fc 80          	cmpb   $0x80,-0x4(%rbp)
    9286:	75 06                	jne    928e <safe_div_func_int8_t_s_s+0x24>
    9288:	80 7d f8 ff          	cmpb   $0xff,-0x8(%rbp)
    928c:	74 0d                	je     929b <safe_div_func_int8_t_s_s+0x31>
    928e:	0f be 45 fc          	movsbl -0x4(%rbp),%eax
    9292:	0f be 4d f8          	movsbl -0x8(%rbp),%ecx
    9296:	99                   	cltd   
    9297:	f7 f9                	idiv   %ecx
    9299:	eb 04                	jmp    929f <safe_div_func_int8_t_s_s+0x35>
    929b:	0f b6 45 fc          	movzbl -0x4(%rbp),%eax
    929f:	5d                   	pop    %rbp
    92a0:	c3                   	retq   

00000000000092a1 <safe_lshift_func_int8_t_s_s>:
    92a1:	f3 0f 1e fa          	endbr64 
    92a5:	55                   	push   %rbp
    92a6:	48 89 e5             	mov    %rsp,%rbp
    92a9:	89 f8                	mov    %edi,%eax
    92ab:	89 75 f8             	mov    %esi,-0x8(%rbp)
    92ae:	88 45 fc             	mov    %al,-0x4(%rbp)
    92b1:	80 7d fc 00          	cmpb   $0x0,-0x4(%rbp)
    92b5:	78 31                	js     92e8 <safe_lshift_func_int8_t_s_s+0x47>
    92b7:	83 7d f8 00          	cmpl   $0x0,-0x8(%rbp)
    92bb:	78 2b                	js     92e8 <safe_lshift_func_int8_t_s_s+0x47>
    92bd:	83 7d f8 1f          	cmpl   $0x1f,-0x8(%rbp)
    92c1:	7f 25                	jg     92e8 <safe_lshift_func_int8_t_s_s+0x47>
    92c3:	0f be 55 fc          	movsbl -0x4(%rbp),%edx
    92c7:	8b 45 f8             	mov    -0x8(%rbp),%eax
    92ca:	be 7f 00 00 00       	mov    $0x7f,%esi
    92cf:	89 c1                	mov    %eax,%ecx
    92d1:	d3 fe                	sar    %cl,%esi
    92d3:	89 f0                	mov    %esi,%eax
    92d5:	39 c2                	cmp    %eax,%edx
    92d7:	7f 0f                	jg     92e8 <safe_lshift_func_int8_t_s_s+0x47>
    92d9:	0f be 55 fc          	movsbl -0x4(%rbp),%edx
    92dd:	8b 45 f8             	mov    -0x8(%rbp),%eax
    92e0:	89 c1                	mov    %eax,%ecx
    92e2:	d3 e2                	shl    %cl,%edx
    92e4:	89 d0                	mov    %edx,%eax
    92e6:	eb 04                	jmp    92ec <safe_lshift_func_int8_t_s_s+0x4b>
    92e8:	0f b6 45 fc          	movzbl -0x4(%rbp),%eax
    92ec:	5d                   	pop    %rbp
    92ed:	c3                   	retq   

00000000000092ee <safe_lshift_func_int8_t_s_u>:
    92ee:	f3 0f 1e fa          	endbr64 
    92f2:	55                   	push   %rbp
    92f3:	48 89 e5             	mov    %rsp,%rbp
    92f6:	89 f8                	mov    %edi,%eax
    92f8:	89 75 f8             	mov    %esi,-0x8(%rbp)
    92fb:	88 45 fc             	mov    %al,-0x4(%rbp)
    92fe:	80 7d fc 00          	cmpb   $0x0,-0x4(%rbp)
    9302:	78 2b                	js     932f <safe_lshift_func_int8_t_s_u+0x41>
    9304:	83 7d f8 1f          	cmpl   $0x1f,-0x8(%rbp)
    9308:	77 25                	ja     932f <safe_lshift_func_int8_t_s_u+0x41>
    930a:	0f be 55 fc          	movsbl -0x4(%rbp),%edx
    930e:	8b 45 f8             	mov    -0x8(%rbp),%eax
    9311:	be 7f 00 00 00       	mov    $0x7f,%esi
    9316:	89 c1                	mov    %eax,%ecx
    9318:	d3 fe                	sar    %cl,%esi
    931a:	89 f0                	mov    %esi,%eax
    931c:	39 c2                	cmp    %eax,%edx
    931e:	7f 0f                	jg     932f <safe_lshift_func_int8_t_s_u+0x41>
    9320:	0f be 55 fc          	movsbl -0x4(%rbp),%edx
    9324:	8b 45 f8             	mov    -0x8(%rbp),%eax
    9327:	89 c1                	mov    %eax,%ecx
    9329:	d3 e2                	shl    %cl,%edx
    932b:	89 d0                	mov    %edx,%eax
    932d:	eb 04                	jmp    9333 <safe_lshift_func_int8_t_s_u+0x45>
    932f:	0f b6 45 fc          	movzbl -0x4(%rbp),%eax
    9333:	5d                   	pop    %rbp
    9334:	c3                   	retq   

0000000000009335 <safe_rshift_func_int8_t_s_s>:
    9335:	f3 0f 1e fa          	endbr64 
    9339:	55                   	push   %rbp
    933a:	48 89 e5             	mov    %rsp,%rbp
    933d:	89 f8                	mov    %edi,%eax
    933f:	89 75 f8             	mov    %esi,-0x8(%rbp)
    9342:	88 45 fc             	mov    %al,-0x4(%rbp)
    9345:	80 7d fc 00          	cmpb   $0x0,-0x4(%rbp)
    9349:	78 1b                	js     9366 <safe_rshift_func_int8_t_s_s+0x31>
    934b:	83 7d f8 00          	cmpl   $0x0,-0x8(%rbp)
    934f:	78 15                	js     9366 <safe_rshift_func_int8_t_s_s+0x31>
    9351:	83 7d f8 1f          	cmpl   $0x1f,-0x8(%rbp)
    9355:	7f 0f                	jg     9366 <safe_rshift_func_int8_t_s_s+0x31>
    9357:	0f be 55 fc          	movsbl -0x4(%rbp),%edx
    935b:	8b 45 f8             	mov    -0x8(%rbp),%eax
    935e:	89 c1                	mov    %eax,%ecx
    9360:	d3 fa                	sar    %cl,%edx
    9362:	89 d0                	mov    %edx,%eax
    9364:	eb 04                	jmp    936a <safe_rshift_func_int8_t_s_s+0x35>
    9366:	0f b6 45 fc          	movzbl -0x4(%rbp),%eax
    936a:	5d                   	pop    %rbp
    936b:	c3                   	retq   

000000000000936c <safe_rshift_func_int8_t_s_u>:
    936c:	f3 0f 1e fa          	endbr64 
    9370:	55                   	push   %rbp
    9371:	48 89 e5             	mov    %rsp,%rbp
    9374:	89 f8                	mov    %edi,%eax
    9376:	89 75 f8             	mov    %esi,-0x8(%rbp)
    9379:	88 45 fc             	mov    %al,-0x4(%rbp)
    937c:	80 7d fc 00          	cmpb   $0x0,-0x4(%rbp)
    9380:	78 15                	js     9397 <safe_rshift_func_int8_t_s_u+0x2b>
    9382:	83 7d f8 1f          	cmpl   $0x1f,-0x8(%rbp)
    9386:	77 0f                	ja     9397 <safe_rshift_func_int8_t_s_u+0x2b>
    9388:	0f be 55 fc          	movsbl -0x4(%rbp),%edx
    938c:	8b 45 f8             	mov    -0x8(%rbp),%eax
    938f:	89 c1                	mov    %eax,%ecx
    9391:	d3 fa                	sar    %cl,%edx
    9393:	89 d0                	mov    %edx,%eax
    9395:	eb 04                	jmp    939b <safe_rshift_func_int8_t_s_u+0x2f>
    9397:	0f b6 45 fc          	movzbl -0x4(%rbp),%eax
    939b:	5d                   	pop    %rbp
    939c:	c3                   	retq   

000000000000939d <safe_unary_minus_func_int16_t_s>:
    939d:	f3 0f 1e fa          	endbr64 
    93a1:	55                   	push   %rbp
    93a2:	48 89 e5             	mov    %rsp,%rbp
    93a5:	89 f8                	mov    %edi,%eax
    93a7:	66 89 45 fc          	mov    %ax,-0x4(%rbp)
    93ab:	0f b7 45 fc          	movzwl -0x4(%rbp),%eax
    93af:	f7 d8                	neg    %eax
    93b1:	5d                   	pop    %rbp
    93b2:	c3                   	retq   

00000000000093b3 <safe_add_func_int16_t_s_s>:
    93b3:	f3 0f 1e fa          	endbr64 
    93b7:	55                   	push   %rbp
    93b8:	48 89 e5             	mov    %rsp,%rbp
    93bb:	89 fa                	mov    %edi,%edx
    93bd:	89 f0                	mov    %esi,%eax
    93bf:	66 89 55 fc          	mov    %dx,-0x4(%rbp)
    93c3:	66 89 45 f8          	mov    %ax,-0x8(%rbp)
    93c7:	0f b7 55 fc          	movzwl -0x4(%rbp),%edx
    93cb:	0f b7 45 f8          	movzwl -0x8(%rbp),%eax
    93cf:	01 d0                	add    %edx,%eax
    93d1:	5d                   	pop    %rbp
    93d2:	c3                   	retq   

00000000000093d3 <safe_sub_func_int16_t_s_s>:
    93d3:	f3 0f 1e fa          	endbr64 
    93d7:	55                   	push   %rbp
    93d8:	48 89 e5             	mov    %rsp,%rbp
    93db:	89 fa                	mov    %edi,%edx
    93dd:	89 f0                	mov    %esi,%eax
    93df:	66 89 55 fc          	mov    %dx,-0x4(%rbp)
    93e3:	66 89 45 f8          	mov    %ax,-0x8(%rbp)
    93e7:	0f b7 55 fc          	movzwl -0x4(%rbp),%edx
    93eb:	0f b7 45 f8          	movzwl -0x8(%rbp),%eax
    93ef:	29 c2                	sub    %eax,%edx
    93f1:	89 d0                	mov    %edx,%eax
    93f3:	5d                   	pop    %rbp
    93f4:	c3                   	retq   

00000000000093f5 <safe_mul_func_int16_t_s_s>:
    93f5:	f3 0f 1e fa          	endbr64 
    93f9:	55                   	push   %rbp
    93fa:	48 89 e5             	mov    %rsp,%rbp
    93fd:	89 fa                	mov    %edi,%edx
    93ff:	89 f0                	mov    %esi,%eax
    9401:	66 89 55 fc          	mov    %dx,-0x4(%rbp)
    9405:	66 89 45 f8          	mov    %ax,-0x8(%rbp)
    9409:	0f b7 55 fc          	movzwl -0x4(%rbp),%edx
    940d:	0f b7 45 f8          	movzwl -0x8(%rbp),%eax
    9411:	0f af c2             	imul   %edx,%eax
    9414:	5d                   	pop    %rbp
    9415:	c3                   	retq   

0000000000009416 <safe_mod_func_int16_t_s_s>:
    9416:	f3 0f 1e fa          	endbr64 
    941a:	55                   	push   %rbp
    941b:	48 89 e5             	mov    %rsp,%rbp
    941e:	89 fa                	mov    %edi,%edx
    9420:	89 f0                	mov    %esi,%eax
    9422:	66 89 55 fc          	mov    %dx,-0x4(%rbp)
    9426:	66 89 45 f8          	mov    %ax,-0x8(%rbp)
    942a:	66 83 7d f8 00       	cmpw   $0x0,-0x8(%rbp)
    942f:	74 1e                	je     944f <safe_mod_func_int16_t_s_s+0x39>
    9431:	66 81 7d fc 00 80    	cmpw   $0x8000,-0x4(%rbp)
    9437:	75 07                	jne    9440 <safe_mod_func_int16_t_s_s+0x2a>
    9439:	66 83 7d f8 ff       	cmpw   $0xffff,-0x8(%rbp)
    943e:	74 0f                	je     944f <safe_mod_func_int16_t_s_s+0x39>
    9440:	0f bf 45 fc          	movswl -0x4(%rbp),%eax
    9444:	0f bf 4d f8          	movswl -0x8(%rbp),%ecx
    9448:	99                   	cltd   
    9449:	f7 f9                	idiv   %ecx
    944b:	89 d0                	mov    %edx,%eax
    944d:	eb 04                	jmp    9453 <safe_mod_func_int16_t_s_s+0x3d>
    944f:	0f b7 45 fc          	movzwl -0x4(%rbp),%eax
    9453:	5d                   	pop    %rbp
    9454:	c3                   	retq   

0000000000009455 <safe_div_func_int16_t_s_s>:
    9455:	f3 0f 1e fa          	endbr64 
    9459:	55                   	push   %rbp
    945a:	48 89 e5             	mov    %rsp,%rbp
    945d:	89 fa                	mov    %edi,%edx
    945f:	89 f0                	mov    %esi,%eax
    9461:	66 89 55 fc          	mov    %dx,-0x4(%rbp)
    9465:	66 89 45 f8          	mov    %ax,-0x8(%rbp)
    9469:	66 83 7d f8 00       	cmpw   $0x0,-0x8(%rbp)
    946e:	74 1c                	je     948c <safe_div_func_int16_t_s_s+0x37>
    9470:	66 81 7d fc 00 80    	cmpw   $0x8000,-0x4(%rbp)
    9476:	75 07                	jne    947f <safe_div_func_int16_t_s_s+0x2a>
    9478:	66 83 7d f8 ff       	cmpw   $0xffff,-0x8(%rbp)
    947d:	74 0d                	je     948c <safe_div_func_int16_t_s_s+0x37>
    947f:	0f bf 45 fc          	movswl -0x4(%rbp),%eax
    9483:	0f bf 4d f8          	movswl -0x8(%rbp),%ecx
    9487:	99                   	cltd   
    9488:	f7 f9                	idiv   %ecx
    948a:	eb 04                	jmp    9490 <safe_div_func_int16_t_s_s+0x3b>
    948c:	0f b7 45 fc          	movzwl -0x4(%rbp),%eax
    9490:	5d                   	pop    %rbp
    9491:	c3                   	retq   

0000000000009492 <safe_lshift_func_int16_t_s_s>:
    9492:	f3 0f 1e fa          	endbr64 
    9496:	55                   	push   %rbp
    9497:	48 89 e5             	mov    %rsp,%rbp
    949a:	89 f8                	mov    %edi,%eax
    949c:	89 75 f8             	mov    %esi,-0x8(%rbp)
    949f:	66 89 45 fc          	mov    %ax,-0x4(%rbp)
    94a3:	66 83 7d fc 00       	cmpw   $0x0,-0x4(%rbp)
    94a8:	78 31                	js     94db <safe_lshift_func_int16_t_s_s+0x49>
    94aa:	83 7d f8 00          	cmpl   $0x0,-0x8(%rbp)
    94ae:	78 2b                	js     94db <safe_lshift_func_int16_t_s_s+0x49>
    94b0:	83 7d f8 1f          	cmpl   $0x1f,-0x8(%rbp)
    94b4:	7f 25                	jg     94db <safe_lshift_func_int16_t_s_s+0x49>
    94b6:	0f bf 55 fc          	movswl -0x4(%rbp),%edx
    94ba:	8b 45 f8             	mov    -0x8(%rbp),%eax
    94bd:	be ff 7f 00 00       	mov    $0x7fff,%esi
    94c2:	89 c1                	mov    %eax,%ecx
    94c4:	d3 fe                	sar    %cl,%esi
    94c6:	89 f0                	mov    %esi,%eax
    94c8:	39 c2                	cmp    %eax,%edx
    94ca:	7f 0f                	jg     94db <safe_lshift_func_int16_t_s_s+0x49>
    94cc:	0f bf 55 fc          	movswl -0x4(%rbp),%edx
    94d0:	8b 45 f8             	mov    -0x8(%rbp),%eax
    94d3:	89 c1                	mov    %eax,%ecx
    94d5:	d3 e2                	shl    %cl,%edx
    94d7:	89 d0                	mov    %edx,%eax
    94d9:	eb 04                	jmp    94df <safe_lshift_func_int16_t_s_s+0x4d>
    94db:	0f b7 45 fc          	movzwl -0x4(%rbp),%eax
    94df:	5d                   	pop    %rbp
    94e0:	c3                   	retq   

00000000000094e1 <safe_lshift_func_int16_t_s_u>:
    94e1:	f3 0f 1e fa          	endbr64 
    94e5:	55                   	push   %rbp
    94e6:	48 89 e5             	mov    %rsp,%rbp
    94e9:	89 f8                	mov    %edi,%eax
    94eb:	89 75 f8             	mov    %esi,-0x8(%rbp)
    94ee:	66 89 45 fc          	mov    %ax,-0x4(%rbp)
    94f2:	66 83 7d fc 00       	cmpw   $0x0,-0x4(%rbp)
    94f7:	78 2b                	js     9524 <safe_lshift_func_int16_t_s_u+0x43>
    94f9:	83 7d f8 1f          	cmpl   $0x1f,-0x8(%rbp)
    94fd:	77 25                	ja     9524 <safe_lshift_func_int16_t_s_u+0x43>
    94ff:	0f bf 55 fc          	movswl -0x4(%rbp),%edx
    9503:	8b 45 f8             	mov    -0x8(%rbp),%eax
    9506:	be ff 7f 00 00       	mov    $0x7fff,%esi
    950b:	89 c1                	mov    %eax,%ecx
    950d:	d3 fe                	sar    %cl,%esi
    950f:	89 f0                	mov    %esi,%eax
    9511:	39 c2                	cmp    %eax,%edx
    9513:	7f 0f                	jg     9524 <safe_lshift_func_int16_t_s_u+0x43>
    9515:	0f bf 55 fc          	movswl -0x4(%rbp),%edx
    9519:	8b 45 f8             	mov    -0x8(%rbp),%eax
    951c:	89 c1                	mov    %eax,%ecx
    951e:	d3 e2                	shl    %cl,%edx
    9520:	89 d0                	mov    %edx,%eax
    9522:	eb 04                	jmp    9528 <safe_lshift_func_int16_t_s_u+0x47>
    9524:	0f b7 45 fc          	movzwl -0x4(%rbp),%eax
    9528:	5d                   	pop    %rbp
    9529:	c3                   	retq   

000000000000952a <safe_rshift_func_int16_t_s_s>:
    952a:	f3 0f 1e fa          	endbr64 
    952e:	55                   	push   %rbp
    952f:	48 89 e5             	mov    %rsp,%rbp
    9532:	89 f8                	mov    %edi,%eax
    9534:	89 75 f8             	mov    %esi,-0x8(%rbp)
    9537:	66 89 45 fc          	mov    %ax,-0x4(%rbp)
    953b:	66 83 7d fc 00       	cmpw   $0x0,-0x4(%rbp)
    9540:	78 1b                	js     955d <safe_rshift_func_int16_t_s_s+0x33>
    9542:	83 7d f8 00          	cmpl   $0x0,-0x8(%rbp)
    9546:	78 15                	js     955d <safe_rshift_func_int16_t_s_s+0x33>
    9548:	83 7d f8 1f          	cmpl   $0x1f,-0x8(%rbp)
    954c:	7f 0f                	jg     955d <safe_rshift_func_int16_t_s_s+0x33>
    954e:	0f bf 55 fc          	movswl -0x4(%rbp),%edx
    9552:	8b 45 f8             	mov    -0x8(%rbp),%eax
    9555:	89 c1                	mov    %eax,%ecx
    9557:	d3 fa                	sar    %cl,%edx
    9559:	89 d0                	mov    %edx,%eax
    955b:	eb 04                	jmp    9561 <safe_rshift_func_int16_t_s_s+0x37>
    955d:	0f b7 45 fc          	movzwl -0x4(%rbp),%eax
    9561:	5d                   	pop    %rbp
    9562:	c3                   	retq   

0000000000009563 <safe_rshift_func_int16_t_s_u>:
    9563:	f3 0f 1e fa          	endbr64 
    9567:	55                   	push   %rbp
    9568:	48 89 e5             	mov    %rsp,%rbp
    956b:	89 f8                	mov    %edi,%eax
    956d:	89 75 f8             	mov    %esi,-0x8(%rbp)
    9570:	66 89 45 fc          	mov    %ax,-0x4(%rbp)
    9574:	66 83 7d fc 00       	cmpw   $0x0,-0x4(%rbp)
    9579:	78 15                	js     9590 <safe_rshift_func_int16_t_s_u+0x2d>
    957b:	83 7d f8 1f          	cmpl   $0x1f,-0x8(%rbp)
    957f:	77 0f                	ja     9590 <safe_rshift_func_int16_t_s_u+0x2d>
    9581:	0f bf 55 fc          	movswl -0x4(%rbp),%edx
    9585:	8b 45 f8             	mov    -0x8(%rbp),%eax
    9588:	89 c1                	mov    %eax,%ecx
    958a:	d3 fa                	sar    %cl,%edx
    958c:	89 d0                	mov    %edx,%eax
    958e:	eb 04                	jmp    9594 <safe_rshift_func_int16_t_s_u+0x31>
    9590:	0f b7 45 fc          	movzwl -0x4(%rbp),%eax
    9594:	5d                   	pop    %rbp
    9595:	c3                   	retq   

0000000000009596 <safe_unary_minus_func_int32_t_s>:
    9596:	f3 0f 1e fa          	endbr64 
    959a:	55                   	push   %rbp
    959b:	48 89 e5             	mov    %rsp,%rbp
    959e:	89 7d fc             	mov    %edi,-0x4(%rbp)
    95a1:	81 7d fc 00 00 00 80 	cmpl   $0x80000000,-0x4(%rbp)
    95a8:	74 07                	je     95b1 <safe_unary_minus_func_int32_t_s+0x1b>
    95aa:	8b 45 fc             	mov    -0x4(%rbp),%eax
    95ad:	f7 d8                	neg    %eax
    95af:	eb 03                	jmp    95b4 <safe_unary_minus_func_int32_t_s+0x1e>
    95b1:	8b 45 fc             	mov    -0x4(%rbp),%eax
    95b4:	5d                   	pop    %rbp
    95b5:	c3                   	retq   

00000000000095b6 <safe_add_func_int32_t_s_s>:
    95b6:	f3 0f 1e fa          	endbr64 
    95ba:	55                   	push   %rbp
    95bb:	48 89 e5             	mov    %rsp,%rbp
    95be:	89 7d fc             	mov    %edi,-0x4(%rbp)
    95c1:	89 75 f8             	mov    %esi,-0x8(%rbp)
    95c4:	83 7d fc 00          	cmpl   $0x0,-0x4(%rbp)
    95c8:	7e 13                	jle    95dd <safe_add_func_int32_t_s_s+0x27>
    95ca:	83 7d f8 00          	cmpl   $0x0,-0x8(%rbp)
    95ce:	7e 0d                	jle    95dd <safe_add_func_int32_t_s_s+0x27>
    95d0:	b8 ff ff ff 7f       	mov    $0x7fffffff,%eax
    95d5:	2b 45 f8             	sub    -0x8(%rbp),%eax
    95d8:	39 45 fc             	cmp    %eax,-0x4(%rbp)
    95db:	7f 23                	jg     9600 <safe_add_func_int32_t_s_s+0x4a>
    95dd:	83 7d fc 00          	cmpl   $0x0,-0x4(%rbp)
    95e1:	79 13                	jns    95f6 <safe_add_func_int32_t_s_s+0x40>
    95e3:	83 7d f8 00          	cmpl   $0x0,-0x8(%rbp)
    95e7:	79 0d                	jns    95f6 <safe_add_func_int32_t_s_s+0x40>
    95e9:	b8 00 00 00 80       	mov    $0x80000000,%eax
    95ee:	2b 45 f8             	sub    -0x8(%rbp),%eax
    95f1:	39 45 fc             	cmp    %eax,-0x4(%rbp)
    95f4:	7c 0a                	jl     9600 <safe_add_func_int32_t_s_s+0x4a>
    95f6:	8b 55 fc             	mov    -0x4(%rbp),%edx
    95f9:	8b 45 f8             	mov    -0x8(%rbp),%eax
    95fc:	01 d0                	add    %edx,%eax
    95fe:	eb 03                	jmp    9603 <safe_add_func_int32_t_s_s+0x4d>
    9600:	8b 45 fc             	mov    -0x4(%rbp),%eax
    9603:	5d                   	pop    %rbp
    9604:	c3                   	retq   

0000000000009605 <safe_sub_func_int32_t_s_s>:
    9605:	f3 0f 1e fa          	endbr64 
    9609:	55                   	push   %rbp
    960a:	48 89 e5             	mov    %rsp,%rbp
    960d:	89 7d fc             	mov    %edi,-0x4(%rbp)
    9610:	89 75 f8             	mov    %esi,-0x8(%rbp)
    9613:	8b 45 fc             	mov    -0x4(%rbp),%eax
    9616:	33 45 f8             	xor    -0x8(%rbp),%eax
    9619:	89 c2                	mov    %eax,%edx
    961b:	8b 45 fc             	mov    -0x4(%rbp),%eax
    961e:	33 45 f8             	xor    -0x8(%rbp),%eax
    9621:	25 00 00 00 80       	and    $0x80000000,%eax
    9626:	33 45 fc             	xor    -0x4(%rbp),%eax
    9629:	2b 45 f8             	sub    -0x8(%rbp),%eax
    962c:	33 45 f8             	xor    -0x8(%rbp),%eax
    962f:	21 d0                	and    %edx,%eax
    9631:	85 c0                	test   %eax,%eax
    9633:	78 08                	js     963d <safe_sub_func_int32_t_s_s+0x38>
    9635:	8b 45 fc             	mov    -0x4(%rbp),%eax
    9638:	2b 45 f8             	sub    -0x8(%rbp),%eax
    963b:	eb 03                	jmp    9640 <safe_sub_func_int32_t_s_s+0x3b>
    963d:	8b 45 fc             	mov    -0x4(%rbp),%eax
    9640:	5d                   	pop    %rbp
    9641:	c3                   	retq   

0000000000009642 <safe_mul_func_int32_t_s_s>:
    9642:	f3 0f 1e fa          	endbr64 
    9646:	55                   	push   %rbp
    9647:	48 89 e5             	mov    %rsp,%rbp
    964a:	89 7d fc             	mov    %edi,-0x4(%rbp)
    964d:	89 75 f8             	mov    %esi,-0x8(%rbp)
    9650:	83 7d fc 00          	cmpl   $0x0,-0x4(%rbp)
    9654:	7e 14                	jle    966a <safe_mul_func_int32_t_s_s+0x28>
    9656:	83 7d f8 00          	cmpl   $0x0,-0x8(%rbp)
    965a:	7e 0e                	jle    966a <safe_mul_func_int32_t_s_s+0x28>
    965c:	b8 ff ff ff 7f       	mov    $0x7fffffff,%eax
    9661:	99                   	cltd   
    9662:	f7 7d f8             	idivl  -0x8(%rbp)
    9665:	39 45 fc             	cmp    %eax,-0x4(%rbp)
    9668:	7f 5d                	jg     96c7 <safe_mul_func_int32_t_s_s+0x85>
    966a:	83 7d fc 00          	cmpl   $0x0,-0x4(%rbp)
    966e:	7e 14                	jle    9684 <safe_mul_func_int32_t_s_s+0x42>
    9670:	83 7d f8 00          	cmpl   $0x0,-0x8(%rbp)
    9674:	7f 0e                	jg     9684 <safe_mul_func_int32_t_s_s+0x42>
    9676:	b8 00 00 00 80       	mov    $0x80000000,%eax
    967b:	99                   	cltd   
    967c:	f7 7d fc             	idivl  -0x4(%rbp)
    967f:	39 45 f8             	cmp    %eax,-0x8(%rbp)
    9682:	7c 43                	jl     96c7 <safe_mul_func_int32_t_s_s+0x85>
    9684:	83 7d fc 00          	cmpl   $0x0,-0x4(%rbp)
    9688:	7f 14                	jg     969e <safe_mul_func_int32_t_s_s+0x5c>
    968a:	83 7d f8 00          	cmpl   $0x0,-0x8(%rbp)
    968e:	7e 0e                	jle    969e <safe_mul_func_int32_t_s_s+0x5c>
    9690:	b8 00 00 00 80       	mov    $0x80000000,%eax
    9695:	99                   	cltd   
    9696:	f7 7d f8             	idivl  -0x8(%rbp)
    9699:	39 45 fc             	cmp    %eax,-0x4(%rbp)
    969c:	7c 29                	jl     96c7 <safe_mul_func_int32_t_s_s+0x85>
    969e:	83 7d fc 00          	cmpl   $0x0,-0x4(%rbp)
    96a2:	7f 1a                	jg     96be <safe_mul_func_int32_t_s_s+0x7c>
    96a4:	83 7d f8 00          	cmpl   $0x0,-0x8(%rbp)
    96a8:	7f 14                	jg     96be <safe_mul_func_int32_t_s_s+0x7c>
    96aa:	83 7d fc 00          	cmpl   $0x0,-0x4(%rbp)
    96ae:	74 0e                	je     96be <safe_mul_func_int32_t_s_s+0x7c>
    96b0:	b8 ff ff ff 7f       	mov    $0x7fffffff,%eax
    96b5:	99                   	cltd   
    96b6:	f7 7d fc             	idivl  -0x4(%rbp)
    96b9:	39 45 f8             	cmp    %eax,-0x8(%rbp)
    96bc:	7c 09                	jl     96c7 <safe_mul_func_int32_t_s_s+0x85>
    96be:	8b 45 fc             	mov    -0x4(%rbp),%eax
    96c1:	0f af 45 f8          	imul   -0x8(%rbp),%eax
    96c5:	eb 03                	jmp    96ca <safe_mul_func_int32_t_s_s+0x88>
    96c7:	8b 45 fc             	mov    -0x4(%rbp),%eax
    96ca:	5d                   	pop    %rbp
    96cb:	c3                   	retq   

00000000000096cc <safe_mod_func_int32_t_s_s>:
    96cc:	f3 0f 1e fa          	endbr64 
    96d0:	55                   	push   %rbp
    96d1:	48 89 e5             	mov    %rsp,%rbp
    96d4:	89 7d fc             	mov    %edi,-0x4(%rbp)
    96d7:	89 75 f8             	mov    %esi,-0x8(%rbp)
    96da:	83 7d f8 00          	cmpl   $0x0,-0x8(%rbp)
    96de:	74 1a                	je     96fa <safe_mod_func_int32_t_s_s+0x2e>
    96e0:	81 7d fc 00 00 00 80 	cmpl   $0x80000000,-0x4(%rbp)
    96e7:	75 06                	jne    96ef <safe_mod_func_int32_t_s_s+0x23>
    96e9:	83 7d f8 ff          	cmpl   $0xffffffff,-0x8(%rbp)
    96ed:	74 0b                	je     96fa <safe_mod_func_int32_t_s_s+0x2e>
    96ef:	8b 45 fc             	mov    -0x4(%rbp),%eax
    96f2:	99                   	cltd   
    96f3:	f7 7d f8             	idivl  -0x8(%rbp)
    96f6:	89 d0                	mov    %edx,%eax
    96f8:	eb 03                	jmp    96fd <safe_mod_func_int32_t_s_s+0x31>
    96fa:	8b 45 fc             	mov    -0x4(%rbp),%eax
    96fd:	5d                   	pop    %rbp
    96fe:	c3                   	retq   

00000000000096ff <safe_div_func_int32_t_s_s>:
    96ff:	f3 0f 1e fa          	endbr64 
    9703:	55                   	push   %rbp
    9704:	48 89 e5             	mov    %rsp,%rbp
    9707:	89 7d fc             	mov    %edi,-0x4(%rbp)
    970a:	89 75 f8             	mov    %esi,-0x8(%rbp)
    970d:	83 7d f8 00          	cmpl   $0x0,-0x8(%rbp)
    9711:	74 18                	je     972b <safe_div_func_int32_t_s_s+0x2c>
    9713:	81 7d fc 00 00 00 80 	cmpl   $0x80000000,-0x4(%rbp)
    971a:	75 06                	jne    9722 <safe_div_func_int32_t_s_s+0x23>
    971c:	83 7d f8 ff          	cmpl   $0xffffffff,-0x8(%rbp)
    9720:	74 09                	je     972b <safe_div_func_int32_t_s_s+0x2c>
    9722:	8b 45 fc             	mov    -0x4(%rbp),%eax
    9725:	99                   	cltd   
    9726:	f7 7d f8             	idivl  -0x8(%rbp)
    9729:	eb 03                	jmp    972e <safe_div_func_int32_t_s_s+0x2f>
    972b:	8b 45 fc             	mov    -0x4(%rbp),%eax
    972e:	5d                   	pop    %rbp
    972f:	c3                   	retq   

0000000000009730 <safe_lshift_func_int32_t_s_s>:
    9730:	f3 0f 1e fa          	endbr64 
    9734:	55                   	push   %rbp
    9735:	48 89 e5             	mov    %rsp,%rbp
    9738:	89 7d fc             	mov    %edi,-0x4(%rbp)
    973b:	89 75 f8             	mov    %esi,-0x8(%rbp)
    973e:	83 7d fc 00          	cmpl   $0x0,-0x4(%rbp)
    9742:	78 2d                	js     9771 <safe_lshift_func_int32_t_s_s+0x41>
    9744:	83 7d f8 00          	cmpl   $0x0,-0x8(%rbp)
    9748:	78 27                	js     9771 <safe_lshift_func_int32_t_s_s+0x41>
    974a:	83 7d f8 1f          	cmpl   $0x1f,-0x8(%rbp)
    974e:	7f 21                	jg     9771 <safe_lshift_func_int32_t_s_s+0x41>
    9750:	8b 45 f8             	mov    -0x8(%rbp),%eax
    9753:	ba ff ff ff 7f       	mov    $0x7fffffff,%edx
    9758:	89 c1                	mov    %eax,%ecx
    975a:	d3 fa                	sar    %cl,%edx
    975c:	89 d0                	mov    %edx,%eax
    975e:	39 45 fc             	cmp    %eax,-0x4(%rbp)
    9761:	7f 0e                	jg     9771 <safe_lshift_func_int32_t_s_s+0x41>
    9763:	8b 45 f8             	mov    -0x8(%rbp),%eax
    9766:	8b 55 fc             	mov    -0x4(%rbp),%edx
    9769:	89 c1                	mov    %eax,%ecx
    976b:	d3 e2                	shl    %cl,%edx
    976d:	89 d0                	mov    %edx,%eax
    976f:	eb 03                	jmp    9774 <safe_lshift_func_int32_t_s_s+0x44>
    9771:	8b 45 fc             	mov    -0x4(%rbp),%eax
    9774:	5d                   	pop    %rbp
    9775:	c3                   	retq   

0000000000009776 <safe_lshift_func_int32_t_s_u>:
    9776:	f3 0f 1e fa          	endbr64 
    977a:	55                   	push   %rbp
    977b:	48 89 e5             	mov    %rsp,%rbp
    977e:	89 7d fc             	mov    %edi,-0x4(%rbp)
    9781:	89 75 f8             	mov    %esi,-0x8(%rbp)
    9784:	83 7d fc 00          	cmpl   $0x0,-0x4(%rbp)
    9788:	78 27                	js     97b1 <safe_lshift_func_int32_t_s_u+0x3b>
    978a:	83 7d f8 1f          	cmpl   $0x1f,-0x8(%rbp)
    978e:	77 21                	ja     97b1 <safe_lshift_func_int32_t_s_u+0x3b>
    9790:	8b 45 f8             	mov    -0x8(%rbp),%eax
    9793:	ba ff ff ff 7f       	mov    $0x7fffffff,%edx
    9798:	89 c1                	mov    %eax,%ecx
    979a:	d3 fa                	sar    %cl,%edx
    979c:	89 d0                	mov    %edx,%eax
    979e:	39 45 fc             	cmp    %eax,-0x4(%rbp)
    97a1:	7f 0e                	jg     97b1 <safe_lshift_func_int32_t_s_u+0x3b>
    97a3:	8b 45 f8             	mov    -0x8(%rbp),%eax
    97a6:	8b 55 fc             	mov    -0x4(%rbp),%edx
    97a9:	89 c1                	mov    %eax,%ecx
    97ab:	d3 e2                	shl    %cl,%edx
    97ad:	89 d0                	mov    %edx,%eax
    97af:	eb 03                	jmp    97b4 <safe_lshift_func_int32_t_s_u+0x3e>
    97b1:	8b 45 fc             	mov    -0x4(%rbp),%eax
    97b4:	5d                   	pop    %rbp
    97b5:	c3                   	retq   

00000000000097b6 <safe_rshift_func_int32_t_s_s>:
    97b6:	f3 0f 1e fa          	endbr64 
    97ba:	55                   	push   %rbp
    97bb:	48 89 e5             	mov    %rsp,%rbp
    97be:	89 7d fc             	mov    %edi,-0x4(%rbp)
    97c1:	89 75 f8             	mov    %esi,-0x8(%rbp)
    97c4:	83 7d fc 00          	cmpl   $0x0,-0x4(%rbp)
    97c8:	78 1a                	js     97e4 <safe_rshift_func_int32_t_s_s+0x2e>
    97ca:	83 7d f8 00          	cmpl   $0x0,-0x8(%rbp)
    97ce:	78 14                	js     97e4 <safe_rshift_func_int32_t_s_s+0x2e>
    97d0:	83 7d f8 1f          	cmpl   $0x1f,-0x8(%rbp)
    97d4:	7f 0e                	jg     97e4 <safe_rshift_func_int32_t_s_s+0x2e>
    97d6:	8b 45 f8             	mov    -0x8(%rbp),%eax
    97d9:	8b 55 fc             	mov    -0x4(%rbp),%edx
    97dc:	89 c1                	mov    %eax,%ecx
    97de:	d3 fa                	sar    %cl,%edx
    97e0:	89 d0                	mov    %edx,%eax
    97e2:	eb 03                	jmp    97e7 <safe_rshift_func_int32_t_s_s+0x31>
    97e4:	8b 45 fc             	mov    -0x4(%rbp),%eax
    97e7:	5d                   	pop    %rbp
    97e8:	c3                   	retq   

00000000000097e9 <safe_rshift_func_int32_t_s_u>:
    97e9:	f3 0f 1e fa          	endbr64 
    97ed:	55                   	push   %rbp
    97ee:	48 89 e5             	mov    %rsp,%rbp
    97f1:	89 7d fc             	mov    %edi,-0x4(%rbp)
    97f4:	89 75 f8             	mov    %esi,-0x8(%rbp)
    97f7:	83 7d fc 00          	cmpl   $0x0,-0x4(%rbp)
    97fb:	78 14                	js     9811 <safe_rshift_func_int32_t_s_u+0x28>
    97fd:	83 7d f8 1f          	cmpl   $0x1f,-0x8(%rbp)
    9801:	77 0e                	ja     9811 <safe_rshift_func_int32_t_s_u+0x28>
    9803:	8b 45 f8             	mov    -0x8(%rbp),%eax
    9806:	8b 55 fc             	mov    -0x4(%rbp),%edx
    9809:	89 c1                	mov    %eax,%ecx
    980b:	d3 fa                	sar    %cl,%edx
    980d:	89 d0                	mov    %edx,%eax
    980f:	eb 03                	jmp    9814 <safe_rshift_func_int32_t_s_u+0x2b>
    9811:	8b 45 fc             	mov    -0x4(%rbp),%eax
    9814:	5d                   	pop    %rbp
    9815:	c3                   	retq   

0000000000009816 <safe_unary_minus_func_int64_t_s>:
    9816:	f3 0f 1e fa          	endbr64 
    981a:	55                   	push   %rbp
    981b:	48 89 e5             	mov    %rsp,%rbp
    981e:	48 89 7d f8          	mov    %rdi,-0x8(%rbp)
    9822:	48 b8 00 00 00 00 00 	movabs $0x8000000000000000,%rax
    9829:	00 00 80 
    982c:	48 39 45 f8          	cmp    %rax,-0x8(%rbp)
    9830:	74 09                	je     983b <safe_unary_minus_func_int64_t_s+0x25>
    9832:	48 8b 45 f8          	mov    -0x8(%rbp),%rax
    9836:	48 f7 d8             	neg    %rax
    9839:	eb 04                	jmp    983f <safe_unary_minus_func_int64_t_s+0x29>
    983b:	48 8b 45 f8          	mov    -0x8(%rbp),%rax
    983f:	5d                   	pop    %rbp
    9840:	c3                   	retq   

0000000000009841 <safe_add_func_int64_t_s_s>:
    9841:	f3 0f 1e fa          	endbr64 
    9845:	55                   	push   %rbp
    9846:	48 89 e5             	mov    %rsp,%rbp
    9849:	48 89 7d f8          	mov    %rdi,-0x8(%rbp)
    984d:	48 89 75 f0          	mov    %rsi,-0x10(%rbp)
    9851:	48 83 7d f8 00       	cmpq   $0x0,-0x8(%rbp)
    9856:	7e 1b                	jle    9873 <safe_add_func_int64_t_s_s+0x32>
    9858:	48 83 7d f0 00       	cmpq   $0x0,-0x10(%rbp)
    985d:	7e 14                	jle    9873 <safe_add_func_int64_t_s_s+0x32>
    985f:	48 b8 ff ff ff ff ff 	movabs $0x7fffffffffffffff,%rax
    9866:	ff ff 7f 
    9869:	48 2b 45 f0          	sub    -0x10(%rbp),%rax
    986d:	48 39 45 f8          	cmp    %rax,-0x8(%rbp)
    9871:	7f 2f                	jg     98a2 <safe_add_func_int64_t_s_s+0x61>
    9873:	48 83 7d f8 00       	cmpq   $0x0,-0x8(%rbp)
    9878:	79 1b                	jns    9895 <safe_add_func_int64_t_s_s+0x54>
    987a:	48 83 7d f0 00       	cmpq   $0x0,-0x10(%rbp)
    987f:	79 14                	jns    9895 <safe_add_func_int64_t_s_s+0x54>
    9881:	48 b8 00 00 00 00 00 	movabs $0x8000000000000000,%rax
    9888:	00 00 80 
    988b:	48 2b 45 f0          	sub    -0x10(%rbp),%rax
    988f:	48 39 45 f8          	cmp    %rax,-0x8(%rbp)
    9893:	7c 0d                	jl     98a2 <safe_add_func_int64_t_s_s+0x61>
    9895:	48 8b 55 f8          	mov    -0x8(%rbp),%rdx
    9899:	48 8b 45 f0          	mov    -0x10(%rbp),%rax
    989d:	48 01 d0             	add    %rdx,%rax
    98a0:	eb 04                	jmp    98a6 <safe_add_func_int64_t_s_s+0x65>
    98a2:	48 8b 45 f8          	mov    -0x8(%rbp),%rax
    98a6:	5d                   	pop    %rbp
    98a7:	c3                   	retq   

00000000000098a8 <safe_sub_func_int64_t_s_s>:
    98a8:	f3 0f 1e fa          	endbr64 
    98ac:	55                   	push   %rbp
    98ad:	48 89 e5             	mov    %rsp,%rbp
    98b0:	48 89 7d f8          	mov    %rdi,-0x8(%rbp)
    98b4:	48 89 75 f0          	mov    %rsi,-0x10(%rbp)
    98b8:	48 8b 45 f8          	mov    -0x8(%rbp),%rax
    98bc:	48 33 45 f0          	xor    -0x10(%rbp),%rax
    98c0:	48 89 c2             	mov    %rax,%rdx
    98c3:	48 8b 45 f8          	mov    -0x8(%rbp),%rax
    98c7:	48 33 45 f0          	xor    -0x10(%rbp),%rax
    98cb:	48 b9 00 00 00 00 00 	movabs $0x8000000000000000,%rcx
    98d2:	00 00 80 
    98d5:	48 21 c8             	and    %rcx,%rax
    98d8:	48 33 45 f8          	xor    -0x8(%rbp),%rax
    98dc:	48 2b 45 f0          	sub    -0x10(%rbp),%rax
    98e0:	48 33 45 f0          	xor    -0x10(%rbp),%rax
    98e4:	48 21 d0             	and    %rdx,%rax
    98e7:	48 85 c0             	test   %rax,%rax
    98ea:	78 0a                	js     98f6 <safe_sub_func_int64_t_s_s+0x4e>
    98ec:	48 8b 45 f8          	mov    -0x8(%rbp),%rax
    98f0:	48 2b 45 f0          	sub    -0x10(%rbp),%rax
    98f4:	eb 04                	jmp    98fa <safe_sub_func_int64_t_s_s+0x52>
    98f6:	48 8b 45 f8          	mov    -0x8(%rbp),%rax
    98fa:	5d                   	pop    %rbp
    98fb:	c3                   	retq   

00000000000098fc <safe_mul_func_int64_t_s_s>:
    98fc:	f3 0f 1e fa          	endbr64 
    9900:	55                   	push   %rbp
    9901:	48 89 e5             	mov    %rsp,%rbp
    9904:	48 89 7d f8          	mov    %rdi,-0x8(%rbp)
    9908:	48 89 75 f0          	mov    %rsi,-0x10(%rbp)
    990c:	48 83 7d f8 00       	cmpq   $0x0,-0x8(%rbp)
    9911:	7e 1d                	jle    9930 <safe_mul_func_int64_t_s_s+0x34>
    9913:	48 83 7d f0 00       	cmpq   $0x0,-0x10(%rbp)
    9918:	7e 16                	jle    9930 <safe_mul_func_int64_t_s_s+0x34>
    991a:	48 b8 ff ff ff ff ff 	movabs $0x7fffffffffffffff,%rax
    9921:	ff ff 7f 
    9924:	48 99                	cqto   
    9926:	48 f7 7d f0          	idivq  -0x10(%rbp)
    992a:	48 39 45 f8          	cmp    %rax,-0x8(%rbp)
    992e:	7f 7e                	jg     99ae <safe_mul_func_int64_t_s_s+0xb2>
    9930:	48 83 7d f8 00       	cmpq   $0x0,-0x8(%rbp)
    9935:	7e 1d                	jle    9954 <safe_mul_func_int64_t_s_s+0x58>
    9937:	48 83 7d f0 00       	cmpq   $0x0,-0x10(%rbp)
    993c:	7f 16                	jg     9954 <safe_mul_func_int64_t_s_s+0x58>
    993e:	48 b8 00 00 00 00 00 	movabs $0x8000000000000000,%rax
    9945:	00 00 80 
    9948:	48 99                	cqto   
    994a:	48 f7 7d f8          	idivq  -0x8(%rbp)
    994e:	48 39 45 f0          	cmp    %rax,-0x10(%rbp)
    9952:	7c 5a                	jl     99ae <safe_mul_func_int64_t_s_s+0xb2>
    9954:	48 83 7d f8 00       	cmpq   $0x0,-0x8(%rbp)
    9959:	7f 1d                	jg     9978 <safe_mul_func_int64_t_s_s+0x7c>
    995b:	48 83 7d f0 00       	cmpq   $0x0,-0x10(%rbp)
    9960:	7e 16                	jle    9978 <safe_mul_func_int64_t_s_s+0x7c>
    9962:	48 b8 00 00 00 00 00 	movabs $0x8000000000000000,%rax
    9969:	00 00 80 
    996c:	48 99                	cqto   
    996e:	48 f7 7d f0          	idivq  -0x10(%rbp)
    9972:	48 39 45 f8          	cmp    %rax,-0x8(%rbp)
    9976:	7c 36                	jl     99ae <safe_mul_func_int64_t_s_s+0xb2>
    9978:	48 83 7d f8 00       	cmpq   $0x0,-0x8(%rbp)
    997d:	7f 24                	jg     99a3 <safe_mul_func_int64_t_s_s+0xa7>
    997f:	48 83 7d f0 00       	cmpq   $0x0,-0x10(%rbp)
    9984:	7f 1d                	jg     99a3 <safe_mul_func_int64_t_s_s+0xa7>
    9986:	48 83 7d f8 00       	cmpq   $0x0,-0x8(%rbp)
    998b:	74 16                	je     99a3 <safe_mul_func_int64_t_s_s+0xa7>
    998d:	48 b8 ff ff ff ff ff 	movabs $0x7fffffffffffffff,%rax
    9994:	ff ff 7f 
    9997:	48 99                	cqto   
    9999:	48 f7 7d f8          	idivq  -0x8(%rbp)
    999d:	48 39 45 f0          	cmp    %rax,-0x10(%rbp)
    99a1:	7c 0b                	jl     99ae <safe_mul_func_int64_t_s_s+0xb2>
    99a3:	48 8b 45 f8          	mov    -0x8(%rbp),%rax
    99a7:	48 0f af 45 f0       	imul   -0x10(%rbp),%rax
    99ac:	eb 04                	jmp    99b2 <safe_mul_func_int64_t_s_s+0xb6>
    99ae:	48 8b 45 f8          	mov    -0x8(%rbp),%rax
    99b2:	5d                   	pop    %rbp
    99b3:	c3                   	retq   

00000000000099b4 <safe_mod_func_int64_t_s_s>:
    99b4:	f3 0f 1e fa          	endbr64 
    99b8:	55                   	push   %rbp
    99b9:	48 89 e5             	mov    %rsp,%rbp
    99bc:	48 89 7d f8          	mov    %rdi,-0x8(%rbp)
    99c0:	48 89 75 f0          	mov    %rsi,-0x10(%rbp)
    99c4:	48 83 7d f0 00       	cmpq   $0x0,-0x10(%rbp)
    99c9:	74 26                	je     99f1 <safe_mod_func_int64_t_s_s+0x3d>
    99cb:	48 b8 00 00 00 00 00 	movabs $0x8000000000000000,%rax
    99d2:	00 00 80 
    99d5:	48 39 45 f8          	cmp    %rax,-0x8(%rbp)
    99d9:	75 07                	jne    99e2 <safe_mod_func_int64_t_s_s+0x2e>
    99db:	48 83 7d f0 ff       	cmpq   $0xffffffffffffffff,-0x10(%rbp)
    99e0:	74 0f                	je     99f1 <safe_mod_func_int64_t_s_s+0x3d>
    99e2:	48 8b 45 f8          	mov    -0x8(%rbp),%rax
    99e6:	48 99                	cqto   
    99e8:	48 f7 7d f0          	idivq  -0x10(%rbp)
    99ec:	48 89 d0             	mov    %rdx,%rax
    99ef:	eb 04                	jmp    99f5 <safe_mod_func_int64_t_s_s+0x41>
    99f1:	48 8b 45 f8          	mov    -0x8(%rbp),%rax
    99f5:	5d                   	pop    %rbp
    99f6:	c3                   	retq   

00000000000099f7 <safe_div_func_int64_t_s_s>:
    99f7:	f3 0f 1e fa          	endbr64 
    99fb:	55                   	push   %rbp
    99fc:	48 89 e5             	mov    %rsp,%rbp
    99ff:	48 89 7d f8          	mov    %rdi,-0x8(%rbp)
    9a03:	48 89 75 f0          	mov    %rsi,-0x10(%rbp)
    9a07:	48 83 7d f0 00       	cmpq   $0x0,-0x10(%rbp)
    9a0c:	74 23                	je     9a31 <safe_div_func_int64_t_s_s+0x3a>
    9a0e:	48 b8 00 00 00 00 00 	movabs $0x8000000000000000,%rax
    9a15:	00 00 80 
    9a18:	48 39 45 f8          	cmp    %rax,-0x8(%rbp)
    9a1c:	75 07                	jne    9a25 <safe_div_func_int64_t_s_s+0x2e>
    9a1e:	48 83 7d f0 ff       	cmpq   $0xffffffffffffffff,-0x10(%rbp)
    9a23:	74 0c                	je     9a31 <safe_div_func_int64_t_s_s+0x3a>
    9a25:	48 8b 45 f8          	mov    -0x8(%rbp),%rax
    9a29:	48 99                	cqto   
    9a2b:	48 f7 7d f0          	idivq  -0x10(%rbp)
    9a2f:	eb 04                	jmp    9a35 <safe_div_func_int64_t_s_s+0x3e>
    9a31:	48 8b 45 f8          	mov    -0x8(%rbp),%rax
    9a35:	5d                   	pop    %rbp
    9a36:	c3                   	retq   

0000000000009a37 <safe_lshift_func_int64_t_s_s>:
    9a37:	f3 0f 1e fa          	endbr64 
    9a3b:	55                   	push   %rbp
    9a3c:	48 89 e5             	mov    %rsp,%rbp
    9a3f:	48 89 7d f8          	mov    %rdi,-0x8(%rbp)
    9a43:	89 75 f4             	mov    %esi,-0xc(%rbp)
    9a46:	48 83 7d f8 00       	cmpq   $0x0,-0x8(%rbp)
    9a4b:	78 38                	js     9a85 <safe_lshift_func_int64_t_s_s+0x4e>
    9a4d:	83 7d f4 00          	cmpl   $0x0,-0xc(%rbp)
    9a51:	78 32                	js     9a85 <safe_lshift_func_int64_t_s_s+0x4e>
    9a53:	83 7d f4 1f          	cmpl   $0x1f,-0xc(%rbp)
    9a57:	7f 2c                	jg     9a85 <safe_lshift_func_int64_t_s_s+0x4e>
    9a59:	8b 45 f4             	mov    -0xc(%rbp),%eax
    9a5c:	48 ba ff ff ff ff ff 	movabs $0x7fffffffffffffff,%rdx
    9a63:	ff ff 7f 
    9a66:	89 c1                	mov    %eax,%ecx
    9a68:	48 d3 fa             	sar    %cl,%rdx
    9a6b:	48 89 d0             	mov    %rdx,%rax
    9a6e:	48 39 45 f8          	cmp    %rax,-0x8(%rbp)
    9a72:	7f 11                	jg     9a85 <safe_lshift_func_int64_t_s_s+0x4e>
    9a74:	8b 45 f4             	mov    -0xc(%rbp),%eax
    9a77:	48 8b 55 f8          	mov    -0x8(%rbp),%rdx
    9a7b:	89 c1                	mov    %eax,%ecx
    9a7d:	48 d3 e2             	shl    %cl,%rdx
    9a80:	48 89 d0             	mov    %rdx,%rax
    9a83:	eb 04                	jmp    9a89 <safe_lshift_func_int64_t_s_s+0x52>
    9a85:	48 8b 45 f8          	mov    -0x8(%rbp),%rax
    9a89:	5d                   	pop    %rbp
    9a8a:	c3                   	retq   

0000000000009a8b <safe_lshift_func_int64_t_s_u>:
    9a8b:	f3 0f 1e fa          	endbr64 
    9a8f:	55                   	push   %rbp
    9a90:	48 89 e5             	mov    %rsp,%rbp
    9a93:	48 89 7d f8          	mov    %rdi,-0x8(%rbp)
    9a97:	89 75 f4             	mov    %esi,-0xc(%rbp)
    9a9a:	48 83 7d f8 00       	cmpq   $0x0,-0x8(%rbp)
    9a9f:	78 32                	js     9ad3 <safe_lshift_func_int64_t_s_u+0x48>
    9aa1:	83 7d f4 1f          	cmpl   $0x1f,-0xc(%rbp)
    9aa5:	77 2c                	ja     9ad3 <safe_lshift_func_int64_t_s_u+0x48>
    9aa7:	8b 45 f4             	mov    -0xc(%rbp),%eax
    9aaa:	48 ba ff ff ff ff ff 	movabs $0x7fffffffffffffff,%rdx
    9ab1:	ff ff 7f 
    9ab4:	89 c1                	mov    %eax,%ecx
    9ab6:	48 d3 fa             	sar    %cl,%rdx
    9ab9:	48 89 d0             	mov    %rdx,%rax
    9abc:	48 39 45 f8          	cmp    %rax,-0x8(%rbp)
    9ac0:	7f 11                	jg     9ad3 <safe_lshift_func_int64_t_s_u+0x48>
    9ac2:	8b 45 f4             	mov    -0xc(%rbp),%eax
    9ac5:	48 8b 55 f8          	mov    -0x8(%rbp),%rdx
    9ac9:	89 c1                	mov    %eax,%ecx
    9acb:	48 d3 e2             	shl    %cl,%rdx
    9ace:	48 89 d0             	mov    %rdx,%rax
    9ad1:	eb 04                	jmp    9ad7 <safe_lshift_func_int64_t_s_u+0x4c>
    9ad3:	48 8b 45 f8          	mov    -0x8(%rbp),%rax
    9ad7:	5d                   	pop    %rbp
    9ad8:	c3                   	retq   

0000000000009ad9 <safe_rshift_func_int64_t_s_s>:
    9ad9:	f3 0f 1e fa          	endbr64 
    9add:	55                   	push   %rbp
    9ade:	48 89 e5             	mov    %rsp,%rbp
    9ae1:	48 89 7d f8          	mov    %rdi,-0x8(%rbp)
    9ae5:	89 75 f4             	mov    %esi,-0xc(%rbp)
    9ae8:	48 83 7d f8 00       	cmpq   $0x0,-0x8(%rbp)
    9aed:	78 1d                	js     9b0c <safe_rshift_func_int64_t_s_s+0x33>
    9aef:	83 7d f4 00          	cmpl   $0x0,-0xc(%rbp)
    9af3:	78 17                	js     9b0c <safe_rshift_func_int64_t_s_s+0x33>
    9af5:	83 7d f4 1f          	cmpl   $0x1f,-0xc(%rbp)
    9af9:	7f 11                	jg     9b0c <safe_rshift_func_int64_t_s_s+0x33>
    9afb:	8b 45 f4             	mov    -0xc(%rbp),%eax
    9afe:	48 8b 55 f8          	mov    -0x8(%rbp),%rdx
    9b02:	89 c1                	mov    %eax,%ecx
    9b04:	48 d3 fa             	sar    %cl,%rdx
    9b07:	48 89 d0             	mov    %rdx,%rax
    9b0a:	eb 04                	jmp    9b10 <safe_rshift_func_int64_t_s_s+0x37>
    9b0c:	48 8b 45 f8          	mov    -0x8(%rbp),%rax
    9b10:	5d                   	pop    %rbp
    9b11:	c3                   	retq   

0000000000009b12 <safe_rshift_func_int64_t_s_u>:
    9b12:	f3 0f 1e fa          	endbr64 
    9b16:	55                   	push   %rbp
    9b17:	48 89 e5             	mov    %rsp,%rbp
    9b1a:	48 89 7d f8          	mov    %rdi,-0x8(%rbp)
    9b1e:	89 75 f4             	mov    %esi,-0xc(%rbp)
    9b21:	48 83 7d f8 00       	cmpq   $0x0,-0x8(%rbp)
    9b26:	78 17                	js     9b3f <safe_rshift_func_int64_t_s_u+0x2d>
    9b28:	83 7d f4 1f          	cmpl   $0x1f,-0xc(%rbp)
    9b2c:	77 11                	ja     9b3f <safe_rshift_func_int64_t_s_u+0x2d>
    9b2e:	8b 45 f4             	mov    -0xc(%rbp),%eax
    9b31:	48 8b 55 f8          	mov    -0x8(%rbp),%rdx
    9b35:	89 c1                	mov    %eax,%ecx
    9b37:	48 d3 fa             	sar    %cl,%rdx
    9b3a:	48 89 d0             	mov    %rdx,%rax
    9b3d:	eb 04                	jmp    9b43 <safe_rshift_func_int64_t_s_u+0x31>
    9b3f:	48 8b 45 f8          	mov    -0x8(%rbp),%rax
    9b43:	5d                   	pop    %rbp
    9b44:	c3                   	retq   

0000000000009b45 <safe_unary_minus_func_uint8_t_u>:
    9b45:	f3 0f 1e fa          	endbr64 
    9b49:	55                   	push   %rbp
    9b4a:	48 89 e5             	mov    %rsp,%rbp
    9b4d:	89 f8                	mov    %edi,%eax
    9b4f:	88 45 fc             	mov    %al,-0x4(%rbp)
    9b52:	0f b6 45 fc          	movzbl -0x4(%rbp),%eax
    9b56:	f7 d8                	neg    %eax
    9b58:	5d                   	pop    %rbp
    9b59:	c3                   	retq   

0000000000009b5a <safe_add_func_uint8_t_u_u>:
    9b5a:	f3 0f 1e fa          	endbr64 
    9b5e:	55                   	push   %rbp
    9b5f:	48 89 e5             	mov    %rsp,%rbp
    9b62:	89 fa                	mov    %edi,%edx
    9b64:	89 f0                	mov    %esi,%eax
    9b66:	88 55 fc             	mov    %dl,-0x4(%rbp)
    9b69:	88 45 f8             	mov    %al,-0x8(%rbp)
    9b6c:	0f b6 55 fc          	movzbl -0x4(%rbp),%edx
    9b70:	0f b6 45 f8          	movzbl -0x8(%rbp),%eax
    9b74:	01 d0                	add    %edx,%eax
    9b76:	5d                   	pop    %rbp
    9b77:	c3                   	retq   

0000000000009b78 <safe_sub_func_uint8_t_u_u>:
    9b78:	f3 0f 1e fa          	endbr64 
    9b7c:	55                   	push   %rbp
    9b7d:	48 89 e5             	mov    %rsp,%rbp
    9b80:	89 fa                	mov    %edi,%edx
    9b82:	89 f0                	mov    %esi,%eax
    9b84:	88 55 fc             	mov    %dl,-0x4(%rbp)
    9b87:	88 45 f8             	mov    %al,-0x8(%rbp)
    9b8a:	0f b6 45 fc          	movzbl -0x4(%rbp),%eax
    9b8e:	2a 45 f8             	sub    -0x8(%rbp),%al
    9b91:	5d                   	pop    %rbp
    9b92:	c3                   	retq   

0000000000009b93 <safe_mul_func_uint8_t_u_u>:
    9b93:	f3 0f 1e fa          	endbr64 
    9b97:	55                   	push   %rbp
    9b98:	48 89 e5             	mov    %rsp,%rbp
    9b9b:	89 fa                	mov    %edi,%edx
    9b9d:	89 f0                	mov    %esi,%eax
    9b9f:	88 55 fc             	mov    %dl,-0x4(%rbp)
    9ba2:	88 45 f8             	mov    %al,-0x8(%rbp)
    9ba5:	0f b6 45 fc          	movzbl -0x4(%rbp),%eax
    9ba9:	f6 65 f8             	mulb   -0x8(%rbp)
    9bac:	5d                   	pop    %rbp
    9bad:	c3                   	retq   

0000000000009bae <safe_mod_func_uint8_t_u_u>:
    9bae:	f3 0f 1e fa          	endbr64 
    9bb2:	55                   	push   %rbp
    9bb3:	48 89 e5             	mov    %rsp,%rbp
    9bb6:	89 fa                	mov    %edi,%edx
    9bb8:	89 f0                	mov    %esi,%eax
    9bba:	88 55 fc             	mov    %dl,-0x4(%rbp)
    9bbd:	88 45 f8             	mov    %al,-0x8(%rbp)
    9bc0:	80 7d f8 00          	cmpb   $0x0,-0x8(%rbp)
    9bc4:	74 0f                	je     9bd5 <safe_mod_func_uint8_t_u_u+0x27>
    9bc6:	0f b6 45 fc          	movzbl -0x4(%rbp),%eax
    9bca:	0f b6 c0             	movzbl %al,%eax
    9bcd:	f6 75 f8             	divb   -0x8(%rbp)
    9bd0:	0f b6 c4             	movzbl %ah,%eax
    9bd3:	eb 04                	jmp    9bd9 <safe_mod_func_uint8_t_u_u+0x2b>
    9bd5:	0f b6 45 fc          	movzbl -0x4(%rbp),%eax
    9bd9:	5d                   	pop    %rbp
    9bda:	c3                   	retq   

0000000000009bdb <safe_div_func_uint8_t_u_u>:
    9bdb:	f3 0f 1e fa          	endbr64 
    9bdf:	55                   	push   %rbp
    9be0:	48 89 e5             	mov    %rsp,%rbp
    9be3:	89 fa                	mov    %edi,%edx
    9be5:	89 f0                	mov    %esi,%eax
    9be7:	88 55 fc             	mov    %dl,-0x4(%rbp)
    9bea:	88 45 f8             	mov    %al,-0x8(%rbp)
    9bed:	80 7d f8 00          	cmpb   $0x0,-0x8(%rbp)
    9bf1:	74 0c                	je     9bff <safe_div_func_uint8_t_u_u+0x24>
    9bf3:	0f b6 45 fc          	movzbl -0x4(%rbp),%eax
    9bf7:	0f b6 c0             	movzbl %al,%eax
    9bfa:	f6 75 f8             	divb   -0x8(%rbp)
    9bfd:	eb 04                	jmp    9c03 <safe_div_func_uint8_t_u_u+0x28>
    9bff:	0f b6 45 fc          	movzbl -0x4(%rbp),%eax
    9c03:	5d                   	pop    %rbp
    9c04:	c3                   	retq   

0000000000009c05 <safe_lshift_func_uint8_t_u_s>:
    9c05:	f3 0f 1e fa          	endbr64 
    9c09:	55                   	push   %rbp
    9c0a:	48 89 e5             	mov    %rsp,%rbp
    9c0d:	89 f8                	mov    %edi,%eax
    9c0f:	89 75 f8             	mov    %esi,-0x8(%rbp)
    9c12:	88 45 fc             	mov    %al,-0x4(%rbp)
    9c15:	83 7d f8 00          	cmpl   $0x0,-0x8(%rbp)
    9c19:	78 2b                	js     9c46 <safe_lshift_func_uint8_t_u_s+0x41>
    9c1b:	83 7d f8 1f          	cmpl   $0x1f,-0x8(%rbp)
    9c1f:	7f 25                	jg     9c46 <safe_lshift_func_uint8_t_u_s+0x41>
    9c21:	0f b6 55 fc          	movzbl -0x4(%rbp),%edx
    9c25:	8b 45 f8             	mov    -0x8(%rbp),%eax
    9c28:	be ff 00 00 00       	mov    $0xff,%esi
    9c2d:	89 c1                	mov    %eax,%ecx
    9c2f:	d3 fe                	sar    %cl,%esi
    9c31:	89 f0                	mov    %esi,%eax
    9c33:	39 c2                	cmp    %eax,%edx
    9c35:	7f 0f                	jg     9c46 <safe_lshift_func_uint8_t_u_s+0x41>
    9c37:	0f b6 55 fc          	movzbl -0x4(%rbp),%edx
    9c3b:	8b 45 f8             	mov    -0x8(%rbp),%eax
    9c3e:	89 c1                	mov    %eax,%ecx
    9c40:	d3 e2                	shl    %cl,%edx
    9c42:	89 d0                	mov    %edx,%eax
    9c44:	eb 04                	jmp    9c4a <safe_lshift_func_uint8_t_u_s+0x45>
    9c46:	0f b6 45 fc          	movzbl -0x4(%rbp),%eax
    9c4a:	5d                   	pop    %rbp
    9c4b:	c3                   	retq   

0000000000009c4c <safe_lshift_func_uint8_t_u_u>:
    9c4c:	f3 0f 1e fa          	endbr64 
    9c50:	55                   	push   %rbp
    9c51:	48 89 e5             	mov    %rsp,%rbp
    9c54:	89 f8                	mov    %edi,%eax
    9c56:	89 75 f8             	mov    %esi,-0x8(%rbp)
    9c59:	88 45 fc             	mov    %al,-0x4(%rbp)
    9c5c:	83 7d f8 1f          	cmpl   $0x1f,-0x8(%rbp)
    9c60:	77 25                	ja     9c87 <safe_lshift_func_uint8_t_u_u+0x3b>
    9c62:	0f b6 55 fc          	movzbl -0x4(%rbp),%edx
    9c66:	8b 45 f8             	mov    -0x8(%rbp),%eax
    9c69:	be ff 00 00 00       	mov    $0xff,%esi
    9c6e:	89 c1                	mov    %eax,%ecx
    9c70:	d3 fe                	sar    %cl,%esi
    9c72:	89 f0                	mov    %esi,%eax
    9c74:	39 c2                	cmp    %eax,%edx
    9c76:	7f 0f                	jg     9c87 <safe_lshift_func_uint8_t_u_u+0x3b>
    9c78:	0f b6 55 fc          	movzbl -0x4(%rbp),%edx
    9c7c:	8b 45 f8             	mov    -0x8(%rbp),%eax
    9c7f:	89 c1                	mov    %eax,%ecx
    9c81:	d3 e2                	shl    %cl,%edx
    9c83:	89 d0                	mov    %edx,%eax
    9c85:	eb 04                	jmp    9c8b <safe_lshift_func_uint8_t_u_u+0x3f>
    9c87:	0f b6 45 fc          	movzbl -0x4(%rbp),%eax
    9c8b:	5d                   	pop    %rbp
    9c8c:	c3                   	retq   

0000000000009c8d <safe_rshift_func_uint8_t_u_s>:
    9c8d:	f3 0f 1e fa          	endbr64 
    9c91:	55                   	push   %rbp
    9c92:	48 89 e5             	mov    %rsp,%rbp
    9c95:	89 f8                	mov    %edi,%eax
    9c97:	89 75 f8             	mov    %esi,-0x8(%rbp)
    9c9a:	88 45 fc             	mov    %al,-0x4(%rbp)
    9c9d:	83 7d f8 00          	cmpl   $0x0,-0x8(%rbp)
    9ca1:	78 15                	js     9cb8 <safe_rshift_func_uint8_t_u_s+0x2b>
    9ca3:	83 7d f8 1f          	cmpl   $0x1f,-0x8(%rbp)
    9ca7:	7f 0f                	jg     9cb8 <safe_rshift_func_uint8_t_u_s+0x2b>
    9ca9:	0f b6 55 fc          	movzbl -0x4(%rbp),%edx
    9cad:	8b 45 f8             	mov    -0x8(%rbp),%eax
    9cb0:	89 c1                	mov    %eax,%ecx
    9cb2:	d3 fa                	sar    %cl,%edx
    9cb4:	89 d0                	mov    %edx,%eax
    9cb6:	eb 04                	jmp    9cbc <safe_rshift_func_uint8_t_u_s+0x2f>
    9cb8:	0f b6 45 fc          	movzbl -0x4(%rbp),%eax
    9cbc:	5d                   	pop    %rbp
    9cbd:	c3                   	retq   

0000000000009cbe <safe_rshift_func_uint8_t_u_u>:
    9cbe:	f3 0f 1e fa          	endbr64 
    9cc2:	55                   	push   %rbp
    9cc3:	48 89 e5             	mov    %rsp,%rbp
    9cc6:	89 f8                	mov    %edi,%eax
    9cc8:	89 75 f8             	mov    %esi,-0x8(%rbp)
    9ccb:	88 45 fc             	mov    %al,-0x4(%rbp)
    9cce:	83 7d f8 1f          	cmpl   $0x1f,-0x8(%rbp)
    9cd2:	77 0f                	ja     9ce3 <safe_rshift_func_uint8_t_u_u+0x25>
    9cd4:	0f b6 55 fc          	movzbl -0x4(%rbp),%edx
    9cd8:	8b 45 f8             	mov    -0x8(%rbp),%eax
    9cdb:	89 c1                	mov    %eax,%ecx
    9cdd:	d3 fa                	sar    %cl,%edx
    9cdf:	89 d0                	mov    %edx,%eax
    9ce1:	eb 04                	jmp    9ce7 <safe_rshift_func_uint8_t_u_u+0x29>
    9ce3:	0f b6 45 fc          	movzbl -0x4(%rbp),%eax
    9ce7:	5d                   	pop    %rbp
    9ce8:	c3                   	retq   

0000000000009ce9 <safe_unary_minus_func_uint16_t_u>:
    9ce9:	f3 0f 1e fa          	endbr64 
    9ced:	55                   	push   %rbp
    9cee:	48 89 e5             	mov    %rsp,%rbp
    9cf1:	89 f8                	mov    %edi,%eax
    9cf3:	66 89 45 fc          	mov    %ax,-0x4(%rbp)
    9cf7:	0f b7 45 fc          	movzwl -0x4(%rbp),%eax
    9cfb:	f7 d8                	neg    %eax
    9cfd:	5d                   	pop    %rbp
    9cfe:	c3                   	retq   

0000000000009cff <safe_add_func_uint16_t_u_u>:
    9cff:	f3 0f 1e fa          	endbr64 
    9d03:	55                   	push   %rbp
    9d04:	48 89 e5             	mov    %rsp,%rbp
    9d07:	89 fa                	mov    %edi,%edx
    9d09:	89 f0                	mov    %esi,%eax
    9d0b:	66 89 55 fc          	mov    %dx,-0x4(%rbp)
    9d0f:	66 89 45 f8          	mov    %ax,-0x8(%rbp)
    9d13:	0f b7 55 fc          	movzwl -0x4(%rbp),%edx
    9d17:	0f b7 45 f8          	movzwl -0x8(%rbp),%eax
    9d1b:	01 d0                	add    %edx,%eax
    9d1d:	5d                   	pop    %rbp
    9d1e:	c3                   	retq   

0000000000009d1f <safe_sub_func_uint16_t_u_u>:
    9d1f:	f3 0f 1e fa          	endbr64 
    9d23:	55                   	push   %rbp
    9d24:	48 89 e5             	mov    %rsp,%rbp
    9d27:	89 fa                	mov    %edi,%edx
    9d29:	89 f0                	mov    %esi,%eax
    9d2b:	66 89 55 fc          	mov    %dx,-0x4(%rbp)
    9d2f:	66 89 45 f8          	mov    %ax,-0x8(%rbp)
    9d33:	0f b7 45 fc          	movzwl -0x4(%rbp),%eax
    9d37:	66 2b 45 f8          	sub    -0x8(%rbp),%ax
    9d3b:	5d                   	pop    %rbp
    9d3c:	c3                   	retq   

0000000000009d3d <safe_mul_func_uint16_t_u_u>:
    9d3d:	f3 0f 1e fa          	endbr64 
    9d41:	55                   	push   %rbp
    9d42:	48 89 e5             	mov    %rsp,%rbp
    9d45:	89 fa                	mov    %edi,%edx
    9d47:	89 f0                	mov    %esi,%eax
    9d49:	66 89 55 fc          	mov    %dx,-0x4(%rbp)
    9d4d:	66 89 45 f8          	mov    %ax,-0x8(%rbp)
    9d51:	0f b7 45 fc          	movzwl -0x4(%rbp),%eax
    9d55:	66 0f af 45 f8       	imul   -0x8(%rbp),%ax
    9d5a:	5d                   	pop    %rbp
    9d5b:	c3                   	retq   

0000000000009d5c <safe_mod_func_uint16_t_u_u>:
    9d5c:	f3 0f 1e fa          	endbr64 
    9d60:	55                   	push   %rbp
    9d61:	48 89 e5             	mov    %rsp,%rbp
    9d64:	89 fa                	mov    %edi,%edx
    9d66:	89 f0                	mov    %esi,%eax
    9d68:	66 89 55 fc          	mov    %dx,-0x4(%rbp)
    9d6c:	66 89 45 f8          	mov    %ax,-0x8(%rbp)
    9d70:	66 83 7d f8 00       	cmpw   $0x0,-0x8(%rbp)
    9d75:	74 11                	je     9d88 <safe_mod_func_uint16_t_u_u+0x2c>
    9d77:	0f b7 45 fc          	movzwl -0x4(%rbp),%eax
    9d7b:	ba 00 00 00 00       	mov    $0x0,%edx
    9d80:	66 f7 75 f8          	divw   -0x8(%rbp)
    9d84:	89 d0                	mov    %edx,%eax
    9d86:	eb 04                	jmp    9d8c <safe_mod_func_uint16_t_u_u+0x30>
    9d88:	0f b7 45 fc          	movzwl -0x4(%rbp),%eax
    9d8c:	5d                   	pop    %rbp
    9d8d:	c3                   	retq   

0000000000009d8e <safe_div_func_uint16_t_u_u>:
    9d8e:	f3 0f 1e fa          	endbr64 
    9d92:	55                   	push   %rbp
    9d93:	48 89 e5             	mov    %rsp,%rbp
    9d96:	89 fa                	mov    %edi,%edx
    9d98:	89 f0                	mov    %esi,%eax
    9d9a:	66 89 55 fc          	mov    %dx,-0x4(%rbp)
    9d9e:	66 89 45 f8          	mov    %ax,-0x8(%rbp)
    9da2:	66 83 7d f8 00       	cmpw   $0x0,-0x8(%rbp)
    9da7:	74 0f                	je     9db8 <safe_div_func_uint16_t_u_u+0x2a>
    9da9:	0f b7 45 fc          	movzwl -0x4(%rbp),%eax
    9dad:	ba 00 00 00 00       	mov    $0x0,%edx
    9db2:	66 f7 75 f8          	divw   -0x8(%rbp)
    9db6:	eb 04                	jmp    9dbc <safe_div_func_uint16_t_u_u+0x2e>
    9db8:	0f b7 45 fc          	movzwl -0x4(%rbp),%eax
    9dbc:	5d                   	pop    %rbp
    9dbd:	c3                   	retq   

0000000000009dbe <safe_lshift_func_uint16_t_u_s>:
    9dbe:	f3 0f 1e fa          	endbr64 
    9dc2:	55                   	push   %rbp
    9dc3:	48 89 e5             	mov    %rsp,%rbp
    9dc6:	89 f8                	mov    %edi,%eax
    9dc8:	89 75 f8             	mov    %esi,-0x8(%rbp)
    9dcb:	66 89 45 fc          	mov    %ax,-0x4(%rbp)
    9dcf:	83 7d f8 00          	cmpl   $0x0,-0x8(%rbp)
    9dd3:	78 2b                	js     9e00 <safe_lshift_func_uint16_t_u_s+0x42>
    9dd5:	83 7d f8 1f          	cmpl   $0x1f,-0x8(%rbp)
    9dd9:	7f 25                	jg     9e00 <safe_lshift_func_uint16_t_u_s+0x42>
    9ddb:	0f b7 55 fc          	movzwl -0x4(%rbp),%edx
    9ddf:	8b 45 f8             	mov    -0x8(%rbp),%eax
    9de2:	be ff ff 00 00       	mov    $0xffff,%esi
    9de7:	89 c1                	mov    %eax,%ecx
    9de9:	d3 fe                	sar    %cl,%esi
    9deb:	89 f0                	mov    %esi,%eax
    9ded:	39 c2                	cmp    %eax,%edx
    9def:	7f 0f                	jg     9e00 <safe_lshift_func_uint16_t_u_s+0x42>
    9df1:	0f b7 55 fc          	movzwl -0x4(%rbp),%edx
    9df5:	8b 45 f8             	mov    -0x8(%rbp),%eax
    9df8:	89 c1                	mov    %eax,%ecx
    9dfa:	d3 e2                	shl    %cl,%edx
    9dfc:	89 d0                	mov    %edx,%eax
    9dfe:	eb 04                	jmp    9e04 <safe_lshift_func_uint16_t_u_s+0x46>
    9e00:	0f b7 45 fc          	movzwl -0x4(%rbp),%eax
    9e04:	5d                   	pop    %rbp
    9e05:	c3                   	retq   

0000000000009e06 <safe_lshift_func_uint16_t_u_u>:
    9e06:	f3 0f 1e fa          	endbr64 
    9e0a:	55                   	push   %rbp
    9e0b:	48 89 e5             	mov    %rsp,%rbp
    9e0e:	89 f8                	mov    %edi,%eax
    9e10:	89 75 f8             	mov    %esi,-0x8(%rbp)
    9e13:	66 89 45 fc          	mov    %ax,-0x4(%rbp)
    9e17:	83 7d f8 1f          	cmpl   $0x1f,-0x8(%rbp)
    9e1b:	77 25                	ja     9e42 <safe_lshift_func_uint16_t_u_u+0x3c>
    9e1d:	0f b7 55 fc          	movzwl -0x4(%rbp),%edx
    9e21:	8b 45 f8             	mov    -0x8(%rbp),%eax
    9e24:	be ff ff 00 00       	mov    $0xffff,%esi
    9e29:	89 c1                	mov    %eax,%ecx
    9e2b:	d3 fe                	sar    %cl,%esi
    9e2d:	89 f0                	mov    %esi,%eax
    9e2f:	39 c2                	cmp    %eax,%edx
    9e31:	7f 0f                	jg     9e42 <safe_lshift_func_uint16_t_u_u+0x3c>
    9e33:	0f b7 55 fc          	movzwl -0x4(%rbp),%edx
    9e37:	8b 45 f8             	mov    -0x8(%rbp),%eax
    9e3a:	89 c1                	mov    %eax,%ecx
    9e3c:	d3 e2                	shl    %cl,%edx
    9e3e:	89 d0                	mov    %edx,%eax
    9e40:	eb 04                	jmp    9e46 <safe_lshift_func_uint16_t_u_u+0x40>
    9e42:	0f b7 45 fc          	movzwl -0x4(%rbp),%eax
    9e46:	5d                   	pop    %rbp
    9e47:	c3                   	retq   

0000000000009e48 <safe_rshift_func_uint16_t_u_s>:
    9e48:	f3 0f 1e fa          	endbr64 
    9e4c:	55                   	push   %rbp
    9e4d:	48 89 e5             	mov    %rsp,%rbp
    9e50:	89 f8                	mov    %edi,%eax
    9e52:	89 75 f8             	mov    %esi,-0x8(%rbp)
    9e55:	66 89 45 fc          	mov    %ax,-0x4(%rbp)
    9e59:	83 7d f8 00          	cmpl   $0x0,-0x8(%rbp)
    9e5d:	78 15                	js     9e74 <safe_rshift_func_uint16_t_u_s+0x2c>
    9e5f:	83 7d f8 1f          	cmpl   $0x1f,-0x8(%rbp)
    9e63:	7f 0f                	jg     9e74 <safe_rshift_func_uint16_t_u_s+0x2c>
    9e65:	0f b7 55 fc          	movzwl -0x4(%rbp),%edx
    9e69:	8b 45 f8             	mov    -0x8(%rbp),%eax
    9e6c:	89 c1                	mov    %eax,%ecx
    9e6e:	d3 fa                	sar    %cl,%edx
    9e70:	89 d0                	mov    %edx,%eax
    9e72:	eb 04                	jmp    9e78 <safe_rshift_func_uint16_t_u_s+0x30>
    9e74:	0f b7 45 fc          	movzwl -0x4(%rbp),%eax
    9e78:	5d                   	pop    %rbp
    9e79:	c3                   	retq   

0000000000009e7a <safe_rshift_func_uint16_t_u_u>:
    9e7a:	f3 0f 1e fa          	endbr64 
    9e7e:	55                   	push   %rbp
    9e7f:	48 89 e5             	mov    %rsp,%rbp
    9e82:	89 f8                	mov    %edi,%eax
    9e84:	89 75 f8             	mov    %esi,-0x8(%rbp)
    9e87:	66 89 45 fc          	mov    %ax,-0x4(%rbp)
    9e8b:	83 7d f8 1f          	cmpl   $0x1f,-0x8(%rbp)
    9e8f:	77 0f                	ja     9ea0 <safe_rshift_func_uint16_t_u_u+0x26>
    9e91:	0f b7 55 fc          	movzwl -0x4(%rbp),%edx
    9e95:	8b 45 f8             	mov    -0x8(%rbp),%eax
    9e98:	89 c1                	mov    %eax,%ecx
    9e9a:	d3 fa                	sar    %cl,%edx
    9e9c:	89 d0                	mov    %edx,%eax
    9e9e:	eb 04                	jmp    9ea4 <safe_rshift_func_uint16_t_u_u+0x2a>
    9ea0:	0f b7 45 fc          	movzwl -0x4(%rbp),%eax
    9ea4:	5d                   	pop    %rbp
    9ea5:	c3                   	retq   

0000000000009ea6 <safe_unary_minus_func_uint32_t_u>:
    9ea6:	f3 0f 1e fa          	endbr64 
    9eaa:	55                   	push   %rbp
    9eab:	48 89 e5             	mov    %rsp,%rbp
    9eae:	89 7d fc             	mov    %edi,-0x4(%rbp)
    9eb1:	8b 45 fc             	mov    -0x4(%rbp),%eax
    9eb4:	f7 d8                	neg    %eax
    9eb6:	5d                   	pop    %rbp
    9eb7:	c3                   	retq   

0000000000009eb8 <safe_add_func_uint32_t_u_u>:
    9eb8:	f3 0f 1e fa          	endbr64 
    9ebc:	55                   	push   %rbp
    9ebd:	48 89 e5             	mov    %rsp,%rbp
    9ec0:	89 7d fc             	mov    %edi,-0x4(%rbp)
    9ec3:	89 75 f8             	mov    %esi,-0x8(%rbp)
    9ec6:	8b 55 fc             	mov    -0x4(%rbp),%edx
    9ec9:	8b 45 f8             	mov    -0x8(%rbp),%eax
    9ecc:	01 d0                	add    %edx,%eax
    9ece:	5d                   	pop    %rbp
    9ecf:	c3                   	retq   

0000000000009ed0 <safe_sub_func_uint32_t_u_u>:
    9ed0:	f3 0f 1e fa          	endbr64 
    9ed4:	55                   	push   %rbp
    9ed5:	48 89 e5             	mov    %rsp,%rbp
    9ed8:	89 7d fc             	mov    %edi,-0x4(%rbp)
    9edb:	89 75 f8             	mov    %esi,-0x8(%rbp)
    9ede:	8b 45 fc             	mov    -0x4(%rbp),%eax
    9ee1:	2b 45 f8             	sub    -0x8(%rbp),%eax
    9ee4:	5d                   	pop    %rbp
    9ee5:	c3                   	retq   

0000000000009ee6 <safe_mul_func_uint32_t_u_u>:
    9ee6:	f3 0f 1e fa          	endbr64 
    9eea:	55                   	push   %rbp
    9eeb:	48 89 e5             	mov    %rsp,%rbp
    9eee:	89 7d fc             	mov    %edi,-0x4(%rbp)
    9ef1:	89 75 f8             	mov    %esi,-0x8(%rbp)
    9ef4:	8b 45 fc             	mov    -0x4(%rbp),%eax
    9ef7:	0f af 45 f8          	imul   -0x8(%rbp),%eax
    9efb:	5d                   	pop    %rbp
    9efc:	c3                   	retq   

0000000000009efd <safe_mod_func_uint32_t_u_u>:
    9efd:	f3 0f 1e fa          	endbr64 
    9f01:	55                   	push   %rbp
    9f02:	48 89 e5             	mov    %rsp,%rbp
    9f05:	89 7d fc             	mov    %edi,-0x4(%rbp)
    9f08:	89 75 f8             	mov    %esi,-0x8(%rbp)
    9f0b:	83 7d f8 00          	cmpl   $0x0,-0x8(%rbp)
    9f0f:	74 0f                	je     9f20 <safe_mod_func_uint32_t_u_u+0x23>
    9f11:	8b 45 fc             	mov    -0x4(%rbp),%eax
    9f14:	ba 00 00 00 00       	mov    $0x0,%edx
    9f19:	f7 75 f8             	divl   -0x8(%rbp)
    9f1c:	89 d0                	mov    %edx,%eax
    9f1e:	eb 03                	jmp    9f23 <safe_mod_func_uint32_t_u_u+0x26>
    9f20:	8b 45 fc             	mov    -0x4(%rbp),%eax
    9f23:	5d                   	pop    %rbp
    9f24:	c3                   	retq   

0000000000009f25 <safe_div_func_uint32_t_u_u>:
    9f25:	f3 0f 1e fa          	endbr64 
    9f29:	55                   	push   %rbp
    9f2a:	48 89 e5             	mov    %rsp,%rbp
    9f2d:	89 7d fc             	mov    %edi,-0x4(%rbp)
    9f30:	89 75 f8             	mov    %esi,-0x8(%rbp)
    9f33:	83 7d f8 00          	cmpl   $0x0,-0x8(%rbp)
    9f37:	74 0d                	je     9f46 <safe_div_func_uint32_t_u_u+0x21>
    9f39:	8b 45 fc             	mov    -0x4(%rbp),%eax
    9f3c:	ba 00 00 00 00       	mov    $0x0,%edx
    9f41:	f7 75 f8             	divl   -0x8(%rbp)
    9f44:	eb 03                	jmp    9f49 <safe_div_func_uint32_t_u_u+0x24>
    9f46:	8b 45 fc             	mov    -0x4(%rbp),%eax
    9f49:	5d                   	pop    %rbp
    9f4a:	c3                   	retq   

0000000000009f4b <safe_lshift_func_uint32_t_u_s>:
    9f4b:	f3 0f 1e fa          	endbr64 
    9f4f:	55                   	push   %rbp
    9f50:	48 89 e5             	mov    %rsp,%rbp
    9f53:	89 7d fc             	mov    %edi,-0x4(%rbp)
    9f56:	89 75 f8             	mov    %esi,-0x8(%rbp)
    9f59:	83 7d f8 00          	cmpl   $0x0,-0x8(%rbp)
    9f5d:	78 27                	js     9f86 <safe_lshift_func_uint32_t_u_s+0x3b>
    9f5f:	83 7d f8 1f          	cmpl   $0x1f,-0x8(%rbp)
    9f63:	7f 21                	jg     9f86 <safe_lshift_func_uint32_t_u_s+0x3b>
    9f65:	8b 45 f8             	mov    -0x8(%rbp),%eax
    9f68:	ba ff ff ff ff       	mov    $0xffffffff,%edx
    9f6d:	89 c1                	mov    %eax,%ecx
    9f6f:	d3 ea                	shr    %cl,%edx
    9f71:	89 d0                	mov    %edx,%eax
    9f73:	39 45 fc             	cmp    %eax,-0x4(%rbp)
    9f76:	77 0e                	ja     9f86 <safe_lshift_func_uint32_t_u_s+0x3b>
    9f78:	8b 45 f8             	mov    -0x8(%rbp),%eax
    9f7b:	8b 55 fc             	mov    -0x4(%rbp),%edx
    9f7e:	89 c1                	mov    %eax,%ecx
    9f80:	d3 e2                	shl    %cl,%edx
    9f82:	89 d0                	mov    %edx,%eax
    9f84:	eb 03                	jmp    9f89 <safe_lshift_func_uint32_t_u_s+0x3e>
    9f86:	8b 45 fc             	mov    -0x4(%rbp),%eax
    9f89:	5d                   	pop    %rbp
    9f8a:	c3                   	retq   

0000000000009f8b <safe_lshift_func_uint32_t_u_u>:
    9f8b:	f3 0f 1e fa          	endbr64 
    9f8f:	55                   	push   %rbp
    9f90:	48 89 e5             	mov    %rsp,%rbp
    9f93:	89 7d fc             	mov    %edi,-0x4(%rbp)
    9f96:	89 75 f8             	mov    %esi,-0x8(%rbp)
    9f99:	83 7d f8 1f          	cmpl   $0x1f,-0x8(%rbp)
    9f9d:	77 21                	ja     9fc0 <safe_lshift_func_uint32_t_u_u+0x35>
    9f9f:	8b 45 f8             	mov    -0x8(%rbp),%eax
    9fa2:	ba ff ff ff ff       	mov    $0xffffffff,%edx
    9fa7:	89 c1                	mov    %eax,%ecx
    9fa9:	d3 ea                	shr    %cl,%edx
    9fab:	89 d0                	mov    %edx,%eax
    9fad:	39 45 fc             	cmp    %eax,-0x4(%rbp)
    9fb0:	77 0e                	ja     9fc0 <safe_lshift_func_uint32_t_u_u+0x35>
    9fb2:	8b 45 f8             	mov    -0x8(%rbp),%eax
    9fb5:	8b 55 fc             	mov    -0x4(%rbp),%edx
    9fb8:	89 c1                	mov    %eax,%ecx
    9fba:	d3 e2                	shl    %cl,%edx
    9fbc:	89 d0                	mov    %edx,%eax
    9fbe:	eb 03                	jmp    9fc3 <safe_lshift_func_uint32_t_u_u+0x38>
    9fc0:	8b 45 fc             	mov    -0x4(%rbp),%eax
    9fc3:	5d                   	pop    %rbp
    9fc4:	c3                   	retq   

0000000000009fc5 <safe_rshift_func_uint32_t_u_s>:
    9fc5:	f3 0f 1e fa          	endbr64 
    9fc9:	55                   	push   %rbp
    9fca:	48 89 e5             	mov    %rsp,%rbp
    9fcd:	89 7d fc             	mov    %edi,-0x4(%rbp)
    9fd0:	89 75 f8             	mov    %esi,-0x8(%rbp)
    9fd3:	83 7d f8 00          	cmpl   $0x0,-0x8(%rbp)
    9fd7:	78 14                	js     9fed <safe_rshift_func_uint32_t_u_s+0x28>
    9fd9:	83 7d f8 1f          	cmpl   $0x1f,-0x8(%rbp)
    9fdd:	7f 0e                	jg     9fed <safe_rshift_func_uint32_t_u_s+0x28>
    9fdf:	8b 45 f8             	mov    -0x8(%rbp),%eax
    9fe2:	8b 55 fc             	mov    -0x4(%rbp),%edx
    9fe5:	89 c1                	mov    %eax,%ecx
    9fe7:	d3 ea                	shr    %cl,%edx
    9fe9:	89 d0                	mov    %edx,%eax
    9feb:	eb 03                	jmp    9ff0 <safe_rshift_func_uint32_t_u_s+0x2b>
    9fed:	8b 45 fc             	mov    -0x4(%rbp),%eax
    9ff0:	5d                   	pop    %rbp
    9ff1:	c3                   	retq   

0000000000009ff2 <safe_rshift_func_uint32_t_u_u>:
    9ff2:	f3 0f 1e fa          	endbr64 
    9ff6:	55                   	push   %rbp
    9ff7:	48 89 e5             	mov    %rsp,%rbp
    9ffa:	89 7d fc             	mov    %edi,-0x4(%rbp)
    9ffd:	89 75 f8             	mov    %esi,-0x8(%rbp)
    a000:	83 7d f8 1f          	cmpl   $0x1f,-0x8(%rbp)
    a004:	77 0e                	ja     a014 <safe_rshift_func_uint32_t_u_u+0x22>
    a006:	8b 45 f8             	mov    -0x8(%rbp),%eax
    a009:	8b 55 fc             	mov    -0x4(%rbp),%edx
    a00c:	89 c1                	mov    %eax,%ecx
    a00e:	d3 ea                	shr    %cl,%edx
    a010:	89 d0                	mov    %edx,%eax
    a012:	eb 03                	jmp    a017 <safe_rshift_func_uint32_t_u_u+0x25>
    a014:	8b 45 fc             	mov    -0x4(%rbp),%eax
    a017:	5d                   	pop    %rbp
    a018:	c3                   	retq   

000000000000a019 <safe_unary_minus_func_uint64_t_u>:
    a019:	f3 0f 1e fa          	endbr64 
    a01d:	55                   	push   %rbp
    a01e:	48 89 e5             	mov    %rsp,%rbp
    a021:	48 89 7d f8          	mov    %rdi,-0x8(%rbp)
    a025:	48 8b 45 f8          	mov    -0x8(%rbp),%rax
    a029:	48 f7 d8             	neg    %rax
    a02c:	5d                   	pop    %rbp
    a02d:	c3                   	retq   

000000000000a02e <safe_add_func_uint64_t_u_u>:
    a02e:	f3 0f 1e fa          	endbr64 
    a032:	55                   	push   %rbp
    a033:	48 89 e5             	mov    %rsp,%rbp
    a036:	48 89 7d f8          	mov    %rdi,-0x8(%rbp)
    a03a:	48 89 75 f0          	mov    %rsi,-0x10(%rbp)
    a03e:	48 8b 55 f8          	mov    -0x8(%rbp),%rdx
    a042:	48 8b 45 f0          	mov    -0x10(%rbp),%rax
    a046:	48 01 d0             	add    %rdx,%rax
    a049:	5d                   	pop    %rbp
    a04a:	c3                   	retq   

000000000000a04b <safe_sub_func_uint64_t_u_u>:
    a04b:	f3 0f 1e fa          	endbr64 
    a04f:	55                   	push   %rbp
    a050:	48 89 e5             	mov    %rsp,%rbp
    a053:	48 89 7d f8          	mov    %rdi,-0x8(%rbp)
    a057:	48 89 75 f0          	mov    %rsi,-0x10(%rbp)
    a05b:	48 8b 45 f8          	mov    -0x8(%rbp),%rax
    a05f:	48 2b 45 f0          	sub    -0x10(%rbp),%rax
    a063:	5d                   	pop    %rbp
    a064:	c3                   	retq   

000000000000a065 <safe_mul_func_uint64_t_u_u>:
    a065:	f3 0f 1e fa          	endbr64 
    a069:	55                   	push   %rbp
    a06a:	48 89 e5             	mov    %rsp,%rbp
    a06d:	48 89 7d f8          	mov    %rdi,-0x8(%rbp)
    a071:	48 89 75 f0          	mov    %rsi,-0x10(%rbp)
    a075:	48 8b 45 f8          	mov    -0x8(%rbp),%rax
    a079:	48 0f af 45 f0       	imul   -0x10(%rbp),%rax
    a07e:	5d                   	pop    %rbp
    a07f:	c3                   	retq   

000000000000a080 <safe_mod_func_uint64_t_u_u>:
    a080:	f3 0f 1e fa          	endbr64 
    a084:	55                   	push   %rbp
    a085:	48 89 e5             	mov    %rsp,%rbp
    a088:	48 89 7d f8          	mov    %rdi,-0x8(%rbp)
    a08c:	48 89 75 f0          	mov    %rsi,-0x10(%rbp)
    a090:	48 83 7d f0 00       	cmpq   $0x0,-0x10(%rbp)
    a095:	74 12                	je     a0a9 <safe_mod_func_uint64_t_u_u+0x29>
    a097:	48 8b 45 f8          	mov    -0x8(%rbp),%rax
    a09b:	ba 00 00 00 00       	mov    $0x0,%edx
    a0a0:	48 f7 75 f0          	divq   -0x10(%rbp)
    a0a4:	48 89 d0             	mov    %rdx,%rax
    a0a7:	eb 04                	jmp    a0ad <safe_mod_func_uint64_t_u_u+0x2d>
    a0a9:	48 8b 45 f8          	mov    -0x8(%rbp),%rax
    a0ad:	5d                   	pop    %rbp
    a0ae:	c3                   	retq   

000000000000a0af <safe_div_func_uint64_t_u_u>:
    a0af:	f3 0f 1e fa          	endbr64 
    a0b3:	55                   	push   %rbp
    a0b4:	48 89 e5             	mov    %rsp,%rbp
    a0b7:	48 89 7d f8          	mov    %rdi,-0x8(%rbp)
    a0bb:	48 89 75 f0          	mov    %rsi,-0x10(%rbp)
    a0bf:	48 83 7d f0 00       	cmpq   $0x0,-0x10(%rbp)
    a0c4:	74 0f                	je     a0d5 <safe_div_func_uint64_t_u_u+0x26>
    a0c6:	48 8b 45 f8          	mov    -0x8(%rbp),%rax
    a0ca:	ba 00 00 00 00       	mov    $0x0,%edx
    a0cf:	48 f7 75 f0          	divq   -0x10(%rbp)
    a0d3:	eb 04                	jmp    a0d9 <safe_div_func_uint64_t_u_u+0x2a>
    a0d5:	48 8b 45 f8          	mov    -0x8(%rbp),%rax
    a0d9:	5d                   	pop    %rbp
    a0da:	c3                   	retq   

000000000000a0db <safe_lshift_func_uint64_t_u_s>:
    a0db:	f3 0f 1e fa          	endbr64 
    a0df:	55                   	push   %rbp
    a0e0:	48 89 e5             	mov    %rsp,%rbp
    a0e3:	48 89 7d f8          	mov    %rdi,-0x8(%rbp)
    a0e7:	89 75 f4             	mov    %esi,-0xc(%rbp)
    a0ea:	83 7d f4 00          	cmpl   $0x0,-0xc(%rbp)
    a0ee:	78 2f                	js     a11f <safe_lshift_func_uint64_t_u_s+0x44>
    a0f0:	83 7d f4 1f          	cmpl   $0x1f,-0xc(%rbp)
    a0f4:	7f 29                	jg     a11f <safe_lshift_func_uint64_t_u_s+0x44>
    a0f6:	8b 45 f4             	mov    -0xc(%rbp),%eax
    a0f9:	48 c7 c2 ff ff ff ff 	mov    $0xffffffffffffffff,%rdx
    a100:	89 c1                	mov    %eax,%ecx
    a102:	48 d3 ea             	shr    %cl,%rdx
    a105:	48 89 d0             	mov    %rdx,%rax
    a108:	48 39 45 f8          	cmp    %rax,-0x8(%rbp)
    a10c:	77 11                	ja     a11f <safe_lshift_func_uint64_t_u_s+0x44>
    a10e:	8b 45 f4             	mov    -0xc(%rbp),%eax
    a111:	48 8b 55 f8          	mov    -0x8(%rbp),%rdx
    a115:	89 c1                	mov    %eax,%ecx
    a117:	48 d3 e2             	shl    %cl,%rdx
    a11a:	48 89 d0             	mov    %rdx,%rax
    a11d:	eb 04                	jmp    a123 <safe_lshift_func_uint64_t_u_s+0x48>
    a11f:	48 8b 45 f8          	mov    -0x8(%rbp),%rax
    a123:	5d                   	pop    %rbp
    a124:	c3                   	retq   

000000000000a125 <safe_lshift_func_uint64_t_u_u>:
    a125:	f3 0f 1e fa          	endbr64 
    a129:	55                   	push   %rbp
    a12a:	48 89 e5             	mov    %rsp,%rbp
    a12d:	48 89 7d f8          	mov    %rdi,-0x8(%rbp)
    a131:	89 75 f4             	mov    %esi,-0xc(%rbp)
    a134:	83 7d f4 1f          	cmpl   $0x1f,-0xc(%rbp)
    a138:	77 29                	ja     a163 <safe_lshift_func_uint64_t_u_u+0x3e>
    a13a:	8b 45 f4             	mov    -0xc(%rbp),%eax
    a13d:	48 c7 c2 ff ff ff ff 	mov    $0xffffffffffffffff,%rdx
    a144:	89 c1                	mov    %eax,%ecx
    a146:	48 d3 ea             	shr    %cl,%rdx
    a149:	48 89 d0             	mov    %rdx,%rax
    a14c:	48 39 45 f8          	cmp    %rax,-0x8(%rbp)
    a150:	77 11                	ja     a163 <safe_lshift_func_uint64_t_u_u+0x3e>
    a152:	8b 45 f4             	mov    -0xc(%rbp),%eax
    a155:	48 8b 55 f8          	mov    -0x8(%rbp),%rdx
    a159:	89 c1                	mov    %eax,%ecx
    a15b:	48 d3 e2             	shl    %cl,%rdx
    a15e:	48 89 d0             	mov    %rdx,%rax
    a161:	eb 04                	jmp    a167 <safe_lshift_func_uint64_t_u_u+0x42>
    a163:	48 8b 45 f8          	mov    -0x8(%rbp),%rax
    a167:	5d                   	pop    %rbp
    a168:	c3                   	retq   

000000000000a169 <safe_rshift_func_uint64_t_u_s>:
    a169:	f3 0f 1e fa          	endbr64 
    a16d:	55                   	push   %rbp
    a16e:	48 89 e5             	mov    %rsp,%rbp
    a171:	48 89 7d f8          	mov    %rdi,-0x8(%rbp)
    a175:	89 75 f4             	mov    %esi,-0xc(%rbp)
    a178:	83 7d f4 00          	cmpl   $0x0,-0xc(%rbp)
    a17c:	78 17                	js     a195 <safe_rshift_func_uint64_t_u_s+0x2c>
    a17e:	83 7d f4 1f          	cmpl   $0x1f,-0xc(%rbp)
    a182:	7f 11                	jg     a195 <safe_rshift_func_uint64_t_u_s+0x2c>
    a184:	8b 45 f4             	mov    -0xc(%rbp),%eax
    a187:	48 8b 55 f8          	mov    -0x8(%rbp),%rdx
    a18b:	89 c1                	mov    %eax,%ecx
    a18d:	48 d3 ea             	shr    %cl,%rdx
    a190:	48 89 d0             	mov    %rdx,%rax
    a193:	eb 04                	jmp    a199 <safe_rshift_func_uint64_t_u_s+0x30>
    a195:	48 8b 45 f8          	mov    -0x8(%rbp),%rax
    a199:	5d                   	pop    %rbp
    a19a:	c3                   	retq   

000000000000a19b <safe_rshift_func_uint64_t_u_u>:
    a19b:	f3 0f 1e fa          	endbr64 
    a19f:	55                   	push   %rbp
    a1a0:	48 89 e5             	mov    %rsp,%rbp
    a1a3:	48 89 7d f8          	mov    %rdi,-0x8(%rbp)
    a1a7:	89 75 f4             	mov    %esi,-0xc(%rbp)
    a1aa:	83 7d f4 1f          	cmpl   $0x1f,-0xc(%rbp)
    a1ae:	77 11                	ja     a1c1 <safe_rshift_func_uint64_t_u_u+0x26>
    a1b0:	8b 45 f4             	mov    -0xc(%rbp),%eax
    a1b3:	48 8b 55 f8          	mov    -0x8(%rbp),%rdx
    a1b7:	89 c1                	mov    %eax,%ecx
    a1b9:	48 d3 ea             	shr    %cl,%rdx
    a1bc:	48 89 d0             	mov    %rdx,%rax
    a1bf:	eb 04                	jmp    a1c5 <safe_rshift_func_uint64_t_u_u+0x2a>
    a1c1:	48 8b 45 f8          	mov    -0x8(%rbp),%rax
    a1c5:	5d                   	pop    %rbp
    a1c6:	c3                   	retq   

000000000000a1c7 <safe_add_func_float_f_f>:
    a1c7:	f3 0f 1e fa          	endbr64 
    a1cb:	55                   	push   %rbp
    a1cc:	48 89 e5             	mov    %rsp,%rbp
    a1cf:	f3 0f 11 45 fc       	movss  %xmm0,-0x4(%rbp)
    a1d4:	f3 0f 11 4d f8       	movss  %xmm1,-0x8(%rbp)
    a1d9:	f3 0f 10 4d fc       	movss  -0x4(%rbp),%xmm1
    a1de:	f3 0f 10 05 06 ad 00 	movss  0xad06(%rip),%xmm0        # 14eec <l_171.4916+0x1c>
    a1e5:	00 
    a1e6:	f3 0f 59 c8          	mulss  %xmm0,%xmm1
    a1ea:	f3 0f 10 55 f8       	movss  -0x8(%rbp),%xmm2
    a1ef:	f3 0f 10 05 f5 ac 00 	movss  0xacf5(%rip),%xmm0        # 14eec <l_171.4916+0x1c>
    a1f6:	00 
    a1f7:	f3 0f 59 c2          	mulss  %xmm2,%xmm0
    a1fb:	f3 0f 58 c1          	addss  %xmm1,%xmm0
    a1ff:	f3 0f 10 0d e9 ac 00 	movss  0xace9(%rip),%xmm1        # 14ef0 <l_171.4916+0x20>
    a206:	00 
    a207:	0f 54 c1             	andps  %xmm1,%xmm0
    a20a:	0f 2f 05 ef ac 00 00 	comiss 0xacef(%rip),%xmm0        # 14f00 <l_171.4916+0x30>
    a211:	76 07                	jbe    a21a <safe_add_func_float_f_f+0x53>
    a213:	f3 0f 10 45 fc       	movss  -0x4(%rbp),%xmm0
    a218:	eb 0a                	jmp    a224 <safe_add_func_float_f_f+0x5d>
    a21a:	f3 0f 10 45 fc       	movss  -0x4(%rbp),%xmm0
    a21f:	f3 0f 58 45 f8       	addss  -0x8(%rbp),%xmm0
    a224:	5d                   	pop    %rbp
    a225:	c3                   	retq   

000000000000a226 <safe_sub_func_float_f_f>:
    a226:	f3 0f 1e fa          	endbr64 
    a22a:	55                   	push   %rbp
    a22b:	48 89 e5             	mov    %rsp,%rbp
    a22e:	f3 0f 11 45 fc       	movss  %xmm0,-0x4(%rbp)
    a233:	f3 0f 11 4d f8       	movss  %xmm1,-0x8(%rbp)
    a238:	f3 0f 10 4d fc       	movss  -0x4(%rbp),%xmm1
    a23d:	f3 0f 10 05 a7 ac 00 	movss  0xaca7(%rip),%xmm0        # 14eec <l_171.4916+0x1c>
    a244:	00 
    a245:	f3 0f 59 c1          	mulss  %xmm1,%xmm0
    a249:	f3 0f 10 55 f8       	movss  -0x8(%rbp),%xmm2
    a24e:	f3 0f 10 0d 96 ac 00 	movss  0xac96(%rip),%xmm1        # 14eec <l_171.4916+0x1c>
    a255:	00 
    a256:	f3 0f 59 ca          	mulss  %xmm2,%xmm1
    a25a:	f3 0f 5c c1          	subss  %xmm1,%xmm0
    a25e:	f3 0f 10 0d 8a ac 00 	movss  0xac8a(%rip),%xmm1        # 14ef0 <l_171.4916+0x20>
    a265:	00 
    a266:	0f 54 c1             	andps  %xmm1,%xmm0
    a269:	0f 2f 05 90 ac 00 00 	comiss 0xac90(%rip),%xmm0        # 14f00 <l_171.4916+0x30>
    a270:	76 07                	jbe    a279 <safe_sub_func_float_f_f+0x53>
    a272:	f3 0f 10 45 fc       	movss  -0x4(%rbp),%xmm0
    a277:	eb 0a                	jmp    a283 <safe_sub_func_float_f_f+0x5d>
    a279:	f3 0f 10 45 fc       	movss  -0x4(%rbp),%xmm0
    a27e:	f3 0f 5c 45 f8       	subss  -0x8(%rbp),%xmm0
    a283:	5d                   	pop    %rbp
    a284:	c3                   	retq   

000000000000a285 <safe_mul_func_float_f_f>:
    a285:	f3 0f 1e fa          	endbr64 
    a289:	55                   	push   %rbp
    a28a:	48 89 e5             	mov    %rsp,%rbp
    a28d:	f3 0f 11 45 fc       	movss  %xmm0,-0x4(%rbp)
    a292:	f3 0f 11 4d f8       	movss  %xmm1,-0x8(%rbp)
    a297:	f3 0f 10 4d fc       	movss  -0x4(%rbp),%xmm1
    a29c:	f3 0f 10 05 60 ac 00 	movss  0xac60(%rip),%xmm0        # 14f04 <l_171.4916+0x34>
    a2a3:	00 
    a2a4:	f3 0f 59 c8          	mulss  %xmm0,%xmm1
    a2a8:	f3 0f 10 55 f8       	movss  -0x8(%rbp),%xmm2
    a2ad:	f3 0f 10 05 53 ac 00 	movss  0xac53(%rip),%xmm0        # 14f08 <l_171.4916+0x38>
    a2b4:	00 
    a2b5:	f3 0f 59 c2          	mulss  %xmm2,%xmm0
    a2b9:	f3 0f 59 c1          	mulss  %xmm1,%xmm0
    a2bd:	f3 0f 10 0d 2b ac 00 	movss  0xac2b(%rip),%xmm1        # 14ef0 <l_171.4916+0x20>
    a2c4:	00 
    a2c5:	0f 54 c1             	andps  %xmm1,%xmm0
    a2c8:	0f 2f 05 3d ac 00 00 	comiss 0xac3d(%rip),%xmm0        # 14f0c <l_171.4916+0x3c>
    a2cf:	76 07                	jbe    a2d8 <safe_mul_func_float_f_f+0x53>
    a2d1:	f3 0f 10 45 fc       	movss  -0x4(%rbp),%xmm0
    a2d6:	eb 0a                	jmp    a2e2 <safe_mul_func_float_f_f+0x5d>
    a2d8:	f3 0f 10 45 fc       	movss  -0x4(%rbp),%xmm0
    a2dd:	f3 0f 59 45 f8       	mulss  -0x8(%rbp),%xmm0
    a2e2:	5d                   	pop    %rbp
    a2e3:	c3                   	retq   

000000000000a2e4 <safe_div_func_float_f_f>:
    a2e4:	f3 0f 1e fa          	endbr64 
    a2e8:	55                   	push   %rbp
    a2e9:	48 89 e5             	mov    %rsp,%rbp
    a2ec:	f3 0f 11 45 fc       	movss  %xmm0,-0x4(%rbp)
    a2f1:	f3 0f 11 4d f8       	movss  %xmm1,-0x8(%rbp)
    a2f6:	f3 0f 10 45 f8       	movss  -0x8(%rbp),%xmm0
    a2fb:	f3 0f 10 0d ed ab 00 	movss  0xabed(%rip),%xmm1        # 14ef0 <l_171.4916+0x20>
    a302:	00 
    a303:	0f 54 c8             	andps  %xmm0,%xmm1
    a306:	f3 0f 10 05 02 ac 00 	movss  0xac02(%rip),%xmm0        # 14f10 <l_171.4916+0x40>
    a30d:	00 
    a30e:	0f 2f c1             	comiss %xmm1,%xmm0
    a311:	0f 97 c0             	seta   %al
    a314:	83 f0 01             	xor    $0x1,%eax
    a317:	84 c0                	test   %al,%al
    a319:	75 56                	jne    a371 <safe_div_func_float_f_f+0x8d>
    a31b:	66 0f ef c0          	pxor   %xmm0,%xmm0
    a31f:	0f 2e 45 f8          	ucomiss -0x8(%rbp),%xmm0
    a323:	7a 0a                	jp     a32f <safe_div_func_float_f_f+0x4b>
    a325:	66 0f ef c0          	pxor   %xmm0,%xmm0
    a329:	0f 2e 45 f8          	ucomiss -0x8(%rbp),%xmm0
    a32d:	74 4e                	je     a37d <safe_div_func_float_f_f+0x99>
    a32f:	f3 0f 10 4d fc       	movss  -0x4(%rbp),%xmm1
    a334:	f3 0f 10 05 d8 ab 00 	movss  0xabd8(%rip),%xmm0        # 14f14 <l_171.4916+0x44>
    a33b:	00 
    a33c:	f3 0f 59 c1          	mulss  %xmm1,%xmm0
    a340:	f3 0f 10 55 f8       	movss  -0x8(%rbp),%xmm2
    a345:	f3 0f 10 0d cb ab 00 	movss  0xabcb(%rip),%xmm1        # 14f18 <l_171.4916+0x48>
    a34c:	00 
    a34d:	f3 0f 59 ca          	mulss  %xmm2,%xmm1
    a351:	f3 0f 5e c1          	divss  %xmm1,%xmm0
    a355:	f3 0f 10 0d 93 ab 00 	movss  0xab93(%rip),%xmm1        # 14ef0 <l_171.4916+0x20>
    a35c:	00 
    a35d:	0f 54 c1             	andps  %xmm1,%xmm0
    a360:	0f 2f 05 b5 ab 00 00 	comiss 0xabb5(%rip),%xmm0        # 14f1c <l_171.4916+0x4c>
    a367:	0f 97 c0             	seta   %al
    a36a:	83 f0 01             	xor    $0x1,%eax
    a36d:	84 c0                	test   %al,%al
    a36f:	74 0c                	je     a37d <safe_div_func_float_f_f+0x99>
    a371:	f3 0f 10 45 fc       	movss  -0x4(%rbp),%xmm0
    a376:	f3 0f 5e 45 f8       	divss  -0x8(%rbp),%xmm0
    a37b:	eb 05                	jmp    a382 <safe_div_func_float_f_f+0x9e>
    a37d:	f3 0f 10 45 fc       	movss  -0x4(%rbp),%xmm0
    a382:	5d                   	pop    %rbp
    a383:	c3                   	retq   

000000000000a384 <safe_add_func_double_f_f>:
    a384:	f3 0f 1e fa          	endbr64 
    a388:	55                   	push   %rbp
    a389:	48 89 e5             	mov    %rsp,%rbp
    a38c:	f2 0f 11 45 f8       	movsd  %xmm0,-0x8(%rbp)
    a391:	f2 0f 11 4d f0       	movsd  %xmm1,-0x10(%rbp)
    a396:	f2 0f 10 4d f8       	movsd  -0x8(%rbp),%xmm1
    a39b:	f2 0f 10 05 7d ab 00 	movsd  0xab7d(%rip),%xmm0        # 14f20 <l_171.4916+0x50>
    a3a2:	00 
    a3a3:	f2 0f 59 c8          	mulsd  %xmm0,%xmm1
    a3a7:	f2 0f 10 55 f0       	movsd  -0x10(%rbp),%xmm2
    a3ac:	f2 0f 10 05 6c ab 00 	movsd  0xab6c(%rip),%xmm0        # 14f20 <l_171.4916+0x50>
    a3b3:	00 
    a3b4:	f2 0f 59 c2          	mulsd  %xmm2,%xmm0
    a3b8:	f2 0f 58 c1          	addsd  %xmm1,%xmm0
    a3bc:	f3 0f 7e 0d 6c ab 00 	movq   0xab6c(%rip),%xmm1        # 14f30 <l_171.4916+0x60>
    a3c3:	00 
    a3c4:	66 0f 54 c1          	andpd  %xmm1,%xmm0
    a3c8:	66 0f 2f 05 70 ab 00 	comisd 0xab70(%rip),%xmm0        # 14f40 <l_171.4916+0x70>
    a3cf:	00 
    a3d0:	76 07                	jbe    a3d9 <safe_add_func_double_f_f+0x55>
    a3d2:	f2 0f 10 45 f8       	movsd  -0x8(%rbp),%xmm0
    a3d7:	eb 0a                	jmp    a3e3 <safe_add_func_double_f_f+0x5f>
    a3d9:	f2 0f 10 45 f8       	movsd  -0x8(%rbp),%xmm0
    a3de:	f2 0f 58 45 f0       	addsd  -0x10(%rbp),%xmm0
    a3e3:	5d                   	pop    %rbp
    a3e4:	c3                   	retq   

000000000000a3e5 <safe_sub_func_double_f_f>:
    a3e5:	f3 0f 1e fa          	endbr64 
    a3e9:	55                   	push   %rbp
    a3ea:	48 89 e5             	mov    %rsp,%rbp
    a3ed:	f2 0f 11 45 f8       	movsd  %xmm0,-0x8(%rbp)
    a3f2:	f2 0f 11 4d f0       	movsd  %xmm1,-0x10(%rbp)
    a3f7:	f2 0f 10 4d f8       	movsd  -0x8(%rbp),%xmm1
    a3fc:	f2 0f 10 05 1c ab 00 	movsd  0xab1c(%rip),%xmm0        # 14f20 <l_171.4916+0x50>
    a403:	00 
    a404:	f2 0f 59 c1          	mulsd  %xmm1,%xmm0
    a408:	f2 0f 10 55 f0       	movsd  -0x10(%rbp),%xmm2
    a40d:	f2 0f 10 0d 0b ab 00 	movsd  0xab0b(%rip),%xmm1        # 14f20 <l_171.4916+0x50>
    a414:	00 
    a415:	f2 0f 59 ca          	mulsd  %xmm2,%xmm1
    a419:	f2 0f 5c c1          	subsd  %xmm1,%xmm0
    a41d:	f3 0f 7e 0d 0b ab 00 	movq   0xab0b(%rip),%xmm1        # 14f30 <l_171.4916+0x60>
    a424:	00 
    a425:	66 0f 54 c1          	andpd  %xmm1,%xmm0
    a429:	66 0f 2f 05 0f ab 00 	comisd 0xab0f(%rip),%xmm0        # 14f40 <l_171.4916+0x70>
    a430:	00 
    a431:	76 07                	jbe    a43a <safe_sub_func_double_f_f+0x55>
    a433:	f2 0f 10 45 f8       	movsd  -0x8(%rbp),%xmm0
    a438:	eb 0a                	jmp    a444 <safe_sub_func_double_f_f+0x5f>
    a43a:	f2 0f 10 45 f8       	movsd  -0x8(%rbp),%xmm0
    a43f:	f2 0f 5c 45 f0       	subsd  -0x10(%rbp),%xmm0
    a444:	5d                   	pop    %rbp
    a445:	c3                   	retq   

000000000000a446 <safe_mul_func_double_f_f>:
    a446:	f3 0f 1e fa          	endbr64 
    a44a:	55                   	push   %rbp
    a44b:	48 89 e5             	mov    %rsp,%rbp
    a44e:	f2 0f 11 45 f8       	movsd  %xmm0,-0x8(%rbp)
    a453:	f2 0f 11 4d f0       	movsd  %xmm1,-0x10(%rbp)
    a458:	f2 0f 10 4d f8       	movsd  -0x8(%rbp),%xmm1
    a45d:	f2 0f 10 05 e3 aa 00 	movsd  0xaae3(%rip),%xmm0        # 14f48 <l_171.4916+0x78>
    a464:	00 
    a465:	f2 0f 59 c8          	mulsd  %xmm0,%xmm1
    a469:	f2 0f 10 55 f0       	movsd  -0x10(%rbp),%xmm2
    a46e:	f2 0f 10 05 da aa 00 	movsd  0xaada(%rip),%xmm0        # 14f50 <l_171.4916+0x80>
    a475:	00 
    a476:	f2 0f 59 c2          	mulsd  %xmm2,%xmm0
    a47a:	f2 0f 59 c1          	mulsd  %xmm1,%xmm0
    a47e:	f3 0f 7e 0d aa aa 00 	movq   0xaaaa(%rip),%xmm1        # 14f30 <l_171.4916+0x60>
    a485:	00 
    a486:	66 0f 54 c1          	andpd  %xmm1,%xmm0
    a48a:	66 0f 2f 05 c6 aa 00 	comisd 0xaac6(%rip),%xmm0        # 14f58 <l_171.4916+0x88>
    a491:	00 
    a492:	76 07                	jbe    a49b <safe_mul_func_double_f_f+0x55>
    a494:	f2 0f 10 45 f8       	movsd  -0x8(%rbp),%xmm0
    a499:	eb 0a                	jmp    a4a5 <safe_mul_func_double_f_f+0x5f>
    a49b:	f2 0f 10 45 f8       	movsd  -0x8(%rbp),%xmm0
    a4a0:	f2 0f 59 45 f0       	mulsd  -0x10(%rbp),%xmm0
    a4a5:	5d                   	pop    %rbp
    a4a6:	c3                   	retq   

000000000000a4a7 <safe_div_func_double_f_f>:
    a4a7:	f3 0f 1e fa          	endbr64 
    a4ab:	55                   	push   %rbp
    a4ac:	48 89 e5             	mov    %rsp,%rbp
    a4af:	f2 0f 11 45 f8       	movsd  %xmm0,-0x8(%rbp)
    a4b4:	f2 0f 11 4d f0       	movsd  %xmm1,-0x10(%rbp)
    a4b9:	f2 0f 10 45 f0       	movsd  -0x10(%rbp),%xmm0
    a4be:	f3 0f 7e 0d 6a aa 00 	movq   0xaa6a(%rip),%xmm1        # 14f30 <l_171.4916+0x60>
    a4c5:	00 
    a4c6:	66 0f 54 c8          	andpd  %xmm0,%xmm1
    a4ca:	f2 0f 10 05 8e aa 00 	movsd  0xaa8e(%rip),%xmm0        # 14f60 <l_171.4916+0x90>
    a4d1:	00 
    a4d2:	66 0f 2f c1          	comisd %xmm1,%xmm0
    a4d6:	0f 97 c0             	seta   %al
    a4d9:	83 f0 01             	xor    $0x1,%eax
    a4dc:	84 c0                	test   %al,%al
    a4de:	75 5a                	jne    a53a <safe_div_func_double_f_f+0x93>
    a4e0:	66 0f ef c0          	pxor   %xmm0,%xmm0
    a4e4:	66 0f 2e 45 f0       	ucomisd -0x10(%rbp),%xmm0
    a4e9:	7a 0b                	jp     a4f6 <safe_div_func_double_f_f+0x4f>
    a4eb:	66 0f ef c0          	pxor   %xmm0,%xmm0
    a4ef:	66 0f 2e 45 f0       	ucomisd -0x10(%rbp),%xmm0
    a4f4:	74 50                	je     a546 <safe_div_func_double_f_f+0x9f>
    a4f6:	f2 0f 10 4d f8       	movsd  -0x8(%rbp),%xmm1
    a4fb:	f2 0f 10 05 65 aa 00 	movsd  0xaa65(%rip),%xmm0        # 14f68 <l_171.4916+0x98>
    a502:	00 
    a503:	f2 0f 59 c1          	mulsd  %xmm1,%xmm0
    a507:	f2 0f 10 55 f0       	movsd  -0x10(%rbp),%xmm2
    a50c:	f2 0f 10 0d 5c aa 00 	movsd  0xaa5c(%rip),%xmm1        # 14f70 <l_171.4916+0xa0>
    a513:	00 
    a514:	f2 0f 59 ca          	mulsd  %xmm2,%xmm1
    a518:	f2 0f 5e c1          	divsd  %xmm1,%xmm0
    a51c:	f3 0f 7e 0d 0c aa 00 	movq   0xaa0c(%rip),%xmm1        # 14f30 <l_171.4916+0x60>
    a523:	00 
    a524:	66 0f 54 c1          	andpd  %xmm1,%xmm0
    a528:	66 0f 2f 05 48 aa 00 	comisd 0xaa48(%rip),%xmm0        # 14f78 <l_171.4916+0xa8>
    a52f:	00 
    a530:	0f 97 c0             	seta   %al
    a533:	83 f0 01             	xor    $0x1,%eax
    a536:	84 c0                	test   %al,%al
    a538:	74 0c                	je     a546 <safe_div_func_double_f_f+0x9f>
    a53a:	f2 0f 10 45 f8       	movsd  -0x8(%rbp),%xmm0
    a53f:	f2 0f 5e 45 f0       	divsd  -0x10(%rbp),%xmm0
    a544:	eb 05                	jmp    a54b <safe_div_func_double_f_f+0xa4>
    a546:	f2 0f 10 45 f8       	movsd  -0x8(%rbp),%xmm0
    a54b:	5d                   	pop    %rbp
    a54c:	c3                   	retq   

000000000000a54d <safe_convert_func_float_to_int32_t>:
    a54d:	f3 0f 1e fa          	endbr64 
    a551:	55                   	push   %rbp
    a552:	48 89 e5             	mov    %rsp,%rbp
    a555:	f3 0f 11 45 fc       	movss  %xmm0,-0x4(%rbp)
    a55a:	f3 0f 10 05 1e aa 00 	movss  0xaa1e(%rip),%xmm0        # 14f80 <l_171.4916+0xb0>
    a561:	00 
    a562:	0f 2f 45 fc          	comiss -0x4(%rbp),%xmm0
    a566:	0f 93 c0             	setae  %al
    a569:	83 f0 01             	xor    $0x1,%eax
    a56c:	84 c0                	test   %al,%al
    a56e:	74 21                	je     a591 <safe_convert_func_float_to_int32_t+0x44>
    a570:	f3 0f 10 45 fc       	movss  -0x4(%rbp),%xmm0
    a575:	0f 2f 05 08 aa 00 00 	comiss 0xaa08(%rip),%xmm0        # 14f84 <l_171.4916+0xb4>
    a57c:	0f 93 c0             	setae  %al
    a57f:	83 f0 01             	xor    $0x1,%eax
    a582:	84 c0                	test   %al,%al
    a584:	74 0b                	je     a591 <safe_convert_func_float_to_int32_t+0x44>
    a586:	f3 0f 10 45 fc       	movss  -0x4(%rbp),%xmm0
    a58b:	f3 0f 2c c0          	cvttss2si %xmm0,%eax
    a58f:	eb 05                	jmp    a596 <safe_convert_func_float_to_int32_t+0x49>
    a591:	b8 ff ff ff 7f       	mov    $0x7fffffff,%eax
    a596:	5d                   	pop    %rbp
    a597:	c3                   	retq   

000000000000a598 <crc32_gentab>:
    a598:	f3 0f 1e fa          	endbr64 
    a59c:	55                   	push   %rbp
    a59d:	48 89 e5             	mov    %rsp,%rbp
    a5a0:	c7 45 fc 20 83 b8 ed 	movl   $0xedb88320,-0x4(%rbp)
    a5a7:	c7 45 f4 00 00 00 00 	movl   $0x0,-0xc(%rbp)
    a5ae:	eb 51                	jmp    a601 <crc32_gentab+0x69>
    a5b0:	8b 45 f4             	mov    -0xc(%rbp),%eax
    a5b3:	89 45 f0             	mov    %eax,-0x10(%rbp)
    a5b6:	c7 45 f8 08 00 00 00 	movl   $0x8,-0x8(%rbp)
    a5bd:	eb 1e                	jmp    a5dd <crc32_gentab+0x45>
    a5bf:	8b 45 f0             	mov    -0x10(%rbp),%eax
    a5c2:	83 e0 01             	and    $0x1,%eax
    a5c5:	85 c0                	test   %eax,%eax
    a5c7:	74 0d                	je     a5d6 <crc32_gentab+0x3e>
    a5c9:	8b 45 f0             	mov    -0x10(%rbp),%eax
    a5cc:	d1 e8                	shr    %eax
    a5ce:	33 45 fc             	xor    -0x4(%rbp),%eax
    a5d1:	89 45 f0             	mov    %eax,-0x10(%rbp)
    a5d4:	eb 03                	jmp    a5d9 <crc32_gentab+0x41>
    a5d6:	d1 6d f0             	shrl   -0x10(%rbp)
    a5d9:	83 6d f8 01          	subl   $0x1,-0x8(%rbp)
    a5dd:	83 7d f8 00          	cmpl   $0x0,-0x8(%rbp)
    a5e1:	7f dc                	jg     a5bf <crc32_gentab+0x27>
    a5e3:	8b 45 f4             	mov    -0xc(%rbp),%eax
    a5e6:	48 98                	cltq   
    a5e8:	48 8d 0c 85 00 00 00 	lea    0x0(,%rax,4),%rcx
    a5ef:	00 
    a5f0:	48 8d 15 49 0f 01 00 	lea    0x10f49(%rip),%rdx        # 1b540 <crc32_tab>
    a5f7:	8b 45 f0             	mov    -0x10(%rbp),%eax
    a5fa:	89 04 11             	mov    %eax,(%rcx,%rdx,1)
    a5fd:	83 45 f4 01          	addl   $0x1,-0xc(%rbp)
    a601:	81 7d f4 ff 00 00 00 	cmpl   $0xff,-0xc(%rbp)
    a608:	7e a6                	jle    a5b0 <crc32_gentab+0x18>
    a60a:	90                   	nop
    a60b:	90                   	nop
    a60c:	5d                   	pop    %rbp
    a60d:	c3                   	retq   

000000000000a60e <crc32_byte>:
    a60e:	f3 0f 1e fa          	endbr64 
    a612:	55                   	push   %rbp
    a613:	48 89 e5             	mov    %rsp,%rbp
    a616:	89 f8                	mov    %edi,%eax
    a618:	88 45 fc             	mov    %al,-0x4(%rbp)
    a61b:	8b 05 ff d9 00 00    	mov    0xd9ff(%rip),%eax        # 18020 <crc32_context>
    a621:	c1 e8 08             	shr    $0x8,%eax
    a624:	89 c1                	mov    %eax,%ecx
    a626:	0f b6 55 fc          	movzbl -0x4(%rbp),%edx
    a62a:	8b 05 f0 d9 00 00    	mov    0xd9f0(%rip),%eax        # 18020 <crc32_context>
    a630:	31 d0                	xor    %edx,%eax
    a632:	0f b6 c0             	movzbl %al,%eax
    a635:	89 c0                	mov    %eax,%eax
    a637:	48 8d 14 85 00 00 00 	lea    0x0(,%rax,4),%rdx
    a63e:	00 
    a63f:	48 8d 05 fa 0e 01 00 	lea    0x10efa(%rip),%rax        # 1b540 <crc32_tab>
    a646:	8b 04 02             	mov    (%rdx,%rax,1),%eax
    a649:	31 c8                	xor    %ecx,%eax
    a64b:	89 05 cf d9 00 00    	mov    %eax,0xd9cf(%rip)        # 18020 <crc32_context>
    a651:	90                   	nop
    a652:	5d                   	pop    %rbp
    a653:	c3                   	retq   

000000000000a654 <crc32_8bytes>:
    a654:	f3 0f 1e fa          	endbr64 
    a658:	55                   	push   %rbp
    a659:	48 89 e5             	mov    %rsp,%rbp
    a65c:	48 83 ec 08          	sub    $0x8,%rsp
    a660:	48 89 7d f8          	mov    %rdi,-0x8(%rbp)
    a664:	48 8b 45 f8          	mov    -0x8(%rbp),%rax
    a668:	0f b6 c0             	movzbl %al,%eax
    a66b:	89 c7                	mov    %eax,%edi
    a66d:	e8 9c ff ff ff       	callq  a60e <crc32_byte>
    a672:	48 8b 45 f8          	mov    -0x8(%rbp),%rax
    a676:	48 c1 e8 08          	shr    $0x8,%rax
    a67a:	0f b6 c0             	movzbl %al,%eax
    a67d:	89 c7                	mov    %eax,%edi
    a67f:	e8 8a ff ff ff       	callq  a60e <crc32_byte>
    a684:	48 8b 45 f8          	mov    -0x8(%rbp),%rax
    a688:	48 c1 e8 10          	shr    $0x10,%rax
    a68c:	0f b6 c0             	movzbl %al,%eax
    a68f:	89 c7                	mov    %eax,%edi
    a691:	e8 78 ff ff ff       	callq  a60e <crc32_byte>
    a696:	48 8b 45 f8          	mov    -0x8(%rbp),%rax
    a69a:	48 c1 e8 18          	shr    $0x18,%rax
    a69e:	0f b6 c0             	movzbl %al,%eax
    a6a1:	89 c7                	mov    %eax,%edi
    a6a3:	e8 66 ff ff ff       	callq  a60e <crc32_byte>
    a6a8:	48 8b 45 f8          	mov    -0x8(%rbp),%rax
    a6ac:	48 c1 e8 20          	shr    $0x20,%rax
    a6b0:	0f b6 c0             	movzbl %al,%eax
    a6b3:	89 c7                	mov    %eax,%edi
    a6b5:	e8 54 ff ff ff       	callq  a60e <crc32_byte>
    a6ba:	48 8b 45 f8          	mov    -0x8(%rbp),%rax
    a6be:	48 c1 e8 28          	shr    $0x28,%rax
    a6c2:	0f b6 c0             	movzbl %al,%eax
    a6c5:	89 c7                	mov    %eax,%edi
    a6c7:	e8 42 ff ff ff       	callq  a60e <crc32_byte>
    a6cc:	48 8b 45 f8          	mov    -0x8(%rbp),%rax
    a6d0:	48 c1 e8 30          	shr    $0x30,%rax
    a6d4:	0f b6 c0             	movzbl %al,%eax
    a6d7:	89 c7                	mov    %eax,%edi
    a6d9:	e8 30 ff ff ff       	callq  a60e <crc32_byte>
    a6de:	48 8b 45 f8          	mov    -0x8(%rbp),%rax
    a6e2:	48 c1 e8 38          	shr    $0x38,%rax
    a6e6:	0f b6 c0             	movzbl %al,%eax
    a6e9:	89 c7                	mov    %eax,%edi
    a6eb:	e8 1e ff ff ff       	callq  a60e <crc32_byte>
    a6f0:	90                   	nop
    a6f1:	c9                   	leaveq 
    a6f2:	c3                   	retq   

000000000000a6f3 <transparent_crc>:
    a6f3:	f3 0f 1e fa          	endbr64 
    a6f7:	55                   	push   %rbp
    a6f8:	48 89 e5             	mov    %rsp,%rbp
    a6fb:	48 83 ec 20          	sub    $0x20,%rsp
    a6ff:	48 89 7d f8          	mov    %rdi,-0x8(%rbp)
    a703:	48 89 75 f0          	mov    %rsi,-0x10(%rbp)
    a707:	89 55 ec             	mov    %edx,-0x14(%rbp)
    a70a:	48 8b 45 f8          	mov    -0x8(%rbp),%rax
    a70e:	48 89 c7             	mov    %rax,%rdi
    a711:	e8 3e ff ff ff       	callq  a654 <crc32_8bytes>
    a716:	83 7d ec 00          	cmpl   $0x0,-0x14(%rbp)
    a71a:	74 22                	je     a73e <transparent_crc+0x4b>
    a71c:	8b 05 fe d8 00 00    	mov    0xd8fe(%rip),%eax        # 18020 <crc32_context>
    a722:	f7 d0                	not    %eax
    a724:	89 c2                	mov    %eax,%edx
    a726:	48 8b 45 f0          	mov    -0x10(%rbp),%rax
    a72a:	48 89 c6             	mov    %rax,%rsi
    a72d:	48 8d 3d fc 88 00 00 	lea    0x88fc(%rip),%rdi        # 13030 <_IO_stdin_used+0x30>
    a734:	b8 00 00 00 00       	mov    $0x0,%eax
    a739:	e8 42 e9 ff ff       	callq  9080 <printf@plt>
    a73e:	90                   	nop
    a73f:	c9                   	leaveq 
    a740:	c3                   	retq   

000000000000a741 <transparent_crc_bytes>:
    a741:	f3 0f 1e fa          	endbr64 
    a745:	55                   	push   %rbp
    a746:	48 89 e5             	mov    %rsp,%rbp
    a749:	48 83 ec 30          	sub    $0x30,%rsp
    a74d:	48 89 7d e8          	mov    %rdi,-0x18(%rbp)
    a751:	89 75 e4             	mov    %esi,-0x1c(%rbp)
    a754:	48 89 55 d8          	mov    %rdx,-0x28(%rbp)
    a758:	89 4d e0             	mov    %ecx,-0x20(%rbp)
    a75b:	c7 45 fc 00 00 00 00 	movl   $0x0,-0x4(%rbp)
    a762:	eb 1e                	jmp    a782 <transparent_crc_bytes+0x41>
    a764:	8b 45 fc             	mov    -0x4(%rbp),%eax
    a767:	48 63 d0             	movslq %eax,%rdx
    a76a:	48 8b 45 e8          	mov    -0x18(%rbp),%rax
    a76e:	48 01 d0             	add    %rdx,%rax
    a771:	0f b6 00             	movzbl (%rax),%eax
    a774:	0f b6 c0             	movzbl %al,%eax
    a777:	89 c7                	mov    %eax,%edi
    a779:	e8 90 fe ff ff       	callq  a60e <crc32_byte>
    a77e:	83 45 fc 01          	addl   $0x1,-0x4(%rbp)
    a782:	8b 45 fc             	mov    -0x4(%rbp),%eax
    a785:	3b 45 e4             	cmp    -0x1c(%rbp),%eax
    a788:	7c da                	jl     a764 <transparent_crc_bytes+0x23>
    a78a:	83 7d e0 00          	cmpl   $0x0,-0x20(%rbp)
    a78e:	74 22                	je     a7b2 <transparent_crc_bytes+0x71>
    a790:	8b 05 8a d8 00 00    	mov    0xd88a(%rip),%eax        # 18020 <crc32_context>
    a796:	f7 d0                	not    %eax
    a798:	89 c2                	mov    %eax,%edx
    a79a:	48 8b 45 d8          	mov    -0x28(%rbp),%rax
    a79e:	48 89 c6             	mov    %rax,%rsi
    a7a1:	48 8d 3d 88 88 00 00 	lea    0x8888(%rip),%rdi        # 13030 <_IO_stdin_used+0x30>
    a7a8:	b8 00 00 00 00       	mov    $0x0,%eax
    a7ad:	e8 ce e8 ff ff       	callq  9080 <printf@plt>
    a7b2:	90                   	nop
    a7b3:	c9                   	leaveq 
    a7b4:	c3                   	retq   

000000000000a7b5 <func_1>:
    a7b5:	f3 0f 1e fa          	endbr64 
    a7b9:	55                   	push   %rbp
    a7ba:	48 89 e5             	mov    %rsp,%rbp
    a7bd:	48 81 ec 00 10 00 00 	sub    $0x1000,%rsp
    a7c4:	48 83 0c 24 00       	orq    $0x0,(%rsp)
    a7c9:	48 81 ec e0 01 00 00 	sub    $0x1e0,%rsp
    a7d0:	64 48 8b 04 25 28 00 	mov    %fs:0x28,%rax
    a7d7:	00 00 
    a7d9:	48 89 45 f8          	mov    %rax,-0x8(%rbp)
    a7dd:	31 c0                	xor    %eax,%eax
    a7df:	48 8d 05 3e d8 00 00 	lea    0xd83e(%rip),%rax        # 18024 <g_3>
    a7e6:	48 89 85 90 ee ff ff 	mov    %rax,-0x1170(%rbp)
    a7ed:	c7 85 34 ee ff ff 83 	movl   $0xcdefb083,-0x11cc(%rbp)
    a7f4:	b0 ef cd 
    a7f7:	66 c7 85 c8 ee ff ff 	movw   $0x8,-0x1138(%rbp)
    a7fe:	08 00 
    a800:	66 c7 85 ca ee ff ff 	movw   $0x32ed,-0x1136(%rbp)
    a807:	ed 32 
    a809:	66 c7 85 cc ee ff ff 	movw   $0x8,-0x1134(%rbp)
    a810:	08 00 
    a812:	66 c7 85 ce ee ff ff 	movw   $0x32ed,-0x1132(%rbp)
    a819:	ed 32 
    a81b:	c7 85 38 ee ff ff 01 	movl   $0x1,-0x11c8(%rbp)
    a822:	00 00 00 
    a825:	48 c7 85 98 ee ff ff 	movq   $0x0,-0x1168(%rbp)
    a82c:	00 00 00 00 
    a830:	c7 85 d0 ee ff ff 00 	movl   $0x0,-0x1130(%rbp)
    a837:	00 00 00 
    a83a:	c7 85 d4 ee ff ff 00 	movl   $0x0,-0x112c(%rbp)
    a841:	00 00 00 
    a844:	c7 85 d8 ee ff ff 00 	movl   $0x0,-0x1128(%rbp)
    a84b:	00 00 00 
    a84e:	c7 85 dc ee ff ff 00 	movl   $0x0,-0x1124(%rbp)
    a855:	00 00 00 
    a858:	c7 85 e0 ee ff ff 00 	movl   $0x0,-0x1120(%rbp)
    a85f:	00 00 00 
    a862:	48 8d 05 07 de 00 00 	lea    0xde07(%rip),%rax        # 18670 <g_3268>
    a869:	48 89 85 a0 ee ff ff 	mov    %rax,-0x1160(%rbp)
    a870:	48 8d 05 49 da 00 00 	lea    0xda49(%rip),%rax        # 182c0 <g_1459>
    a877:	48 89 85 a8 ee ff ff 	mov    %rax,-0x1158(%rbp)
    a87e:	48 8d 05 5b d8 00 00 	lea    0xd85b(%rip),%rax        # 180e0 <g_255>
    a885:	48 89 85 60 ee ff ff 	mov    %rax,-0x11a0(%rbp)
    a88c:	48 8d 85 a0 ef ff ff 	lea    -0x1060(%rbp),%rax
    a893:	48 83 c0 08          	add    $0x8,%rax
    a897:	48 89 85 68 ee ff ff 	mov    %rax,-0x1198(%rbp)
    a89e:	48 8d 85 68 ee ff ff 	lea    -0x1198(%rbp),%rax
    a8a5:	48 89 85 b0 ee ff ff 	mov    %rax,-0x1150(%rbp)
    a8ac:	c7 85 3c ee ff ff 01 	movl   $0x1,-0x11c4(%rbp)
    a8b3:	00 00 00 
    a8b6:	48 c7 85 70 ee ff ff 	movq   $0x0,-0x1190(%rbp)
    a8bd:	00 00 00 00 
    a8c1:	48 c7 85 b8 ee ff ff 	movq   $0x0,-0x1148(%rbp)
    a8c8:	00 00 00 00 
    a8cc:	48 8d 05 05 0c 01 00 	lea    0x10c05(%rip),%rax        # 1b4d8 <g_3191>
    a8d3:	48 89 85 c0 ee ff ff 	mov    %rax,-0x1140(%rbp)
    a8da:	c7 85 28 ee ff ff 00 	movl   $0x0,-0x11d8(%rbp)
    a8e1:	00 00 00 
    a8e4:	eb 50                	jmp    a936 <func_1+0x181>
    a8e6:	c7 85 2c ee ff ff 00 	movl   $0x0,-0x11d4(%rbp)
    a8ed:	00 00 00 
    a8f0:	eb 34                	jmp    a926 <func_1+0x171>
    a8f2:	8b 85 2c ee ff ff    	mov    -0x11d4(%rbp),%eax
    a8f8:	48 63 c8             	movslq %eax,%rcx
    a8fb:	8b 85 28 ee ff ff    	mov    -0x11d8(%rbp),%eax
    a901:	48 63 d0             	movslq %eax,%rdx
    a904:	48 89 d0             	mov    %rdx,%rax
    a907:	48 01 c0             	add    %rax,%rax
    a90a:	48 01 d0             	add    %rdx,%rax
    a90d:	48 01 c8             	add    %rcx,%rax
    a910:	48 8d 15 41 03 01 00 	lea    0x10341(%rip),%rdx        # 1ac58 <g_2254>
    a917:	48 89 94 c5 f0 ee ff 	mov    %rdx,-0x1110(%rbp,%rax,8)
    a91e:	ff 
    a91f:	83 85 2c ee ff ff 01 	addl   $0x1,-0x11d4(%rbp)
    a926:	83 bd 2c ee ff ff 02 	cmpl   $0x2,-0x11d4(%rbp)
    a92d:	7e c3                	jle    a8f2 <func_1+0x13d>
    a92f:	83 85 28 ee ff ff 01 	addl   $0x1,-0x11d8(%rbp)
    a936:	83 bd 28 ee ff ff 00 	cmpl   $0x0,-0x11d8(%rbp)
    a93d:	7e a7                	jle    a8e6 <func_1+0x131>
    a93f:	c7 85 28 ee ff ff 00 	movl   $0x0,-0x11d8(%rbp)
    a946:	00 00 00 
    a949:	eb 1e                	jmp    a969 <func_1+0x1b4>
    a94b:	8b 85 28 ee ff ff    	mov    -0x11d8(%rbp),%eax
    a951:	48 98                	cltq   
    a953:	48 8d 95 60 ee ff ff 	lea    -0x11a0(%rbp),%rdx
    a95a:	48 89 94 c5 a0 ef ff 	mov    %rdx,-0x1060(%rbp,%rax,8)
    a961:	ff 
    a962:	83 85 28 ee ff ff 01 	addl   $0x1,-0x11d8(%rbp)
    a969:	83 bd 28 ee ff ff 08 	cmpl   $0x8,-0x11d8(%rbp)
    a970:	7e d9                	jle    a94b <func_1+0x196>
    a972:	c7 85 28 ee ff ff 00 	movl   $0x0,-0x11d8(%rbp)
    a979:	00 00 00 
    a97c:	eb 14                	jmp    a992 <func_1+0x1dd>
    a97e:	8b 85 28 ee ff ff    	mov    -0x11d8(%rbp),%eax
    a984:	48 98                	cltq   
    a986:	c6 44 05 f7 f3       	movb   $0xf3,-0x9(%rbp,%rax,1)
    a98b:	83 85 28 ee ff ff 01 	addl   $0x1,-0x11d8(%rbp)
    a992:	83 bd 28 ee ff ff 00 	cmpl   $0x0,-0x11d8(%rbp)
    a999:	7e e3                	jle    a97e <func_1+0x1c9>
    a99b:	c7 85 28 ee ff ff 00 	movl   $0x0,-0x11d8(%rbp)
    a9a2:	00 00 00 
    a9a5:	eb 1a                	jmp    a9c1 <func_1+0x20c>
    a9a7:	8b 85 28 ee ff ff    	mov    -0x11d8(%rbp),%eax
    a9ad:	48 98                	cltq   
    a9af:	c7 84 85 30 ef ff ff 	movl   $0xe8e89fbb,-0x10d0(%rbp,%rax,4)
    a9b6:	bb 9f e8 e8 
    a9ba:	83 85 28 ee ff ff 01 	addl   $0x1,-0x11d8(%rbp)
    a9c1:	83 bd 28 ee ff ff 07 	cmpl   $0x7,-0x11d8(%rbp)
    a9c8:	7e dd                	jle    a9a7 <func_1+0x1f2>
    a9ca:	48 c7 85 90 ee ff ff 	movq   $0x0,-0x1170(%rbp)
    a9d1:	00 00 00 00 
    a9d5:	c7 05 65 d6 00 00 1b 	movl   $0x1b,0xd665(%rip)        # 18044 <g_4+0x4>
    a9dc:	00 00 00 
    a9df:	e9 81 02 00 00       	jmpq   ac65 <func_1+0x4b0>
    a9e4:	c7 85 70 ef ff ff 9b 	movl   $0xc9214a9b,-0x1090(%rbp)
    a9eb:	4a 21 c9 
    a9ee:	c7 85 74 ef ff ff 9b 	movl   $0xc9214a9b,-0x108c(%rbp)
    a9f5:	4a 21 c9 
    a9f8:	c7 85 78 ef ff ff 9b 	movl   $0xc9214a9b,-0x1088(%rbp)
    a9ff:	4a 21 c9 
    aa02:	c7 85 7c ef ff ff 9b 	movl   $0xc9214a9b,-0x1084(%rbp)
    aa09:	4a 21 c9 
    aa0c:	c7 85 80 ef ff ff 9b 	movl   $0xc9214a9b,-0x1080(%rbp)
    aa13:	4a 21 c9 
    aa16:	c7 85 84 ef ff ff 9b 	movl   $0xc9214a9b,-0x107c(%rbp)
    aa1d:	4a 21 c9 
    aa20:	c7 85 88 ef ff ff 9b 	movl   $0xc9214a9b,-0x1078(%rbp)
    aa27:	4a 21 c9 
    aa2a:	c7 85 8c ef ff ff 9b 	movl   $0xc9214a9b,-0x1074(%rbp)
    aa31:	4a 21 c9 
    aa34:	c7 85 90 ef ff ff 9b 	movl   $0xc9214a9b,-0x1070(%rbp)
    aa3b:	4a 21 c9 
    aa3e:	48 c7 85 78 ee ff ff 	movq   $0x1,-0x1188(%rbp)
    aa45:	01 00 00 00 
    aa49:	48 8d 85 10 f8 ff ff 	lea    -0x7f0(%rbp),%rax
    aa50:	48 8d 15 49 dc 00 00 	lea    0xdc49(%rip),%rdx        # 186a0 <g_3326+0xc>
    aa57:	b9 fc 00 00 00       	mov    $0xfc,%ecx
    aa5c:	48 89 c7             	mov    %rax,%rdi
    aa5f:	48 89 d6             	mov    %rdx,%rsi
    aa62:	f3 48 a5             	rep movsq %ds:(%rsi),%es:(%rdi)
    aa65:	c7 85 40 ee ff ff 08 	movl   $0x8,-0x11c0(%rbp)
    aa6c:	00 00 00 
    aa6f:	c7 85 44 ee ff ff fd 	movl   $0xc8214ffd,-0x11bc(%rbp)
    aa76:	4f 21 c8 
    aa79:	48 8d 05 68 d6 00 00 	lea    0xd668(%rip),%rax        # 180e8 <g_315>
    aa80:	48 89 85 f0 ef ff ff 	mov    %rax,-0x1010(%rbp)
    aa87:	48 8d 05 5a d6 00 00 	lea    0xd65a(%rip),%rax        # 180e8 <g_315>
    aa8e:	48 89 85 f8 ef ff ff 	mov    %rax,-0x1008(%rbp)
    aa95:	48 8d 05 4c d6 00 00 	lea    0xd64c(%rip),%rax        # 180e8 <g_315>
    aa9c:	48 89 85 00 f0 ff ff 	mov    %rax,-0x1000(%rbp)
    aaa3:	48 8d 05 3e d6 00 00 	lea    0xd63e(%rip),%rax        # 180e8 <g_315>
    aaaa:	48 89 85 08 f0 ff ff 	mov    %rax,-0xff8(%rbp)
    aab1:	48 8d 05 30 d6 00 00 	lea    0xd630(%rip),%rax        # 180e8 <g_315>
    aab8:	48 89 85 10 f0 ff ff 	mov    %rax,-0xff0(%rbp)
    aabf:	48 8d 05 22 d6 00 00 	lea    0xd622(%rip),%rax        # 180e8 <g_315>
    aac6:	48 89 85 18 f0 ff ff 	mov    %rax,-0xfe8(%rbp)
    aacd:	48 8d 05 14 d6 00 00 	lea    0xd614(%rip),%rax        # 180e8 <g_315>
    aad4:	48 89 85 20 f0 ff ff 	mov    %rax,-0xfe0(%rbp)
    aadb:	48 8d 05 06 d6 00 00 	lea    0xd606(%rip),%rax        # 180e8 <g_315>
    aae2:	48 89 85 28 f0 ff ff 	mov    %rax,-0xfd8(%rbp)
    aae9:	48 8d 05 f8 d5 00 00 	lea    0xd5f8(%rip),%rax        # 180e8 <g_315>
    aaf0:	48 89 85 30 f0 ff ff 	mov    %rax,-0xfd0(%rbp)
    aaf7:	48 8d 05 ea d5 00 00 	lea    0xd5ea(%rip),%rax        # 180e8 <g_315>
    aafe:	48 89 85 38 f0 ff ff 	mov    %rax,-0xfc8(%rbp)
    ab05:	48 8d 05 80 d6 00 00 	lea    0xd680(%rip),%rax        # 1818c <g_891>
    ab0c:	48 89 85 80 ee ff ff 	mov    %rax,-0x1180(%rbp)
    ab13:	c7 85 48 ee ff ff fd 	movl   $0xfffffffd,-0x11b8(%rbp)
    ab1a:	ff ff ff 
    ab1d:	c7 85 4c ee ff ff 01 	movl   $0x1,-0x11b4(%rbp)
    ab24:	00 00 00 
    ab27:	c7 85 50 ee ff ff 64 	movl   $0xdd2c4f64,-0x11b0(%rbp)
    ab2e:	4f 2c dd 
    ab31:	c7 85 54 ee ff ff fb 	movl   $0xfffffffb,-0x11ac(%rbp)
    ab38:	ff ff ff 
    ab3b:	48 c7 85 40 f0 ff ff 	movq   $0xffffffffffffffff,-0xfc0(%rbp)
    ab42:	ff ff ff ff 
    ab46:	48 c7 85 48 f0 ff ff 	movq   $0xffffffffffffffff,-0xfb8(%rbp)
    ab4d:	ff ff ff ff 
    ab51:	48 c7 85 50 f0 ff ff 	movq   $0xffffffffffffffff,-0xfb0(%rbp)
    ab58:	ff ff ff ff 
    ab5c:	48 c7 85 58 f0 ff ff 	movq   $0xffffffffffffffff,-0xfa8(%rbp)
    ab63:	ff ff ff ff 
    ab67:	48 c7 85 60 f0 ff ff 	movq   $0xffffffffffffffff,-0xfa0(%rbp)
    ab6e:	ff ff ff ff 
    ab72:	48 c7 85 68 f0 ff ff 	movq   $0xffffffffffffffff,-0xf98(%rbp)
    ab79:	ff ff ff ff 
    ab7d:	48 c7 85 70 f0 ff ff 	movq   $0xffffffffffffffff,-0xf90(%rbp)
    ab84:	ff ff ff ff 
    ab88:	48 c7 85 78 f0 ff ff 	movq   $0xffffffffffffffff,-0xf88(%rbp)
    ab8f:	ff ff ff ff 
    ab93:	48 c7 85 80 f0 ff ff 	movq   $0xffffffffffffffff,-0xf80(%rbp)
    ab9a:	ff ff ff ff 
    ab9e:	48 c7 85 88 f0 ff ff 	movq   $0xffffffffffffffff,-0xf78(%rbp)
    aba5:	ff ff ff ff 
    aba9:	48 8d 05 04 d5 00 00 	lea    0xd504(%rip),%rax        # 180b4 <g_100+0x34>
    abb0:	48 89 85 88 ee ff ff 	mov    %rax,-0x1178(%rbp)
    abb7:	c7 85 58 ee ff ff ff 	movl   $0xffffffff,-0x11a8(%rbp)
    abbe:	ff ff ff 
    abc1:	c7 85 5c ee ff ff ec 	movl   $0x4cdf79ec,-0x11a4(%rbp)
    abc8:	79 df 4c 
    abcb:	48 8d 85 90 f0 ff ff 	lea    -0xf70(%rbp),%rax
    abd2:	48 8d 15 a7 84 00 00 	lea    0x84a7(%rip),%rdx        # 13080 <g_2811+0x14>
    abd9:	b9 f0 00 00 00       	mov    $0xf0,%ecx
    abde:	48 89 c7             	mov    %rax,%rdi
    abe1:	48 89 d6             	mov    %rdx,%rsi
    abe4:	f3 48 a5             	rep movsq %ds:(%rsi),%es:(%rdi)
    abe7:	c7 85 30 ee ff ff 00 	movl   $0x0,-0x11d0(%rbp)
    abee:	00 00 00 
    abf1:	eb 1e                	jmp    ac11 <func_1+0x45c>
    abf3:	8b 85 30 ee ff ff    	mov    -0x11d0(%rbp),%eax
    abf9:	48 98                	cltq   
    abfb:	48 8d 95 80 ee ff ff 	lea    -0x1180(%rbp),%rdx
    ac02:	48 89 94 c5 50 ef ff 	mov    %rdx,-0x10b0(%rbp,%rax,8)
    ac09:	ff 
    ac0a:	83 85 30 ee ff ff 01 	addl   $0x1,-0x11d0(%rbp)
    ac11:	83 bd 30 ee ff ff 03 	cmpl   $0x3,-0x11d0(%rbp)
    ac18:	7e d9                	jle    abf3 <func_1+0x43e>
    ac1a:	c7 85 30 ee ff ff 00 	movl   $0x0,-0x11d0(%rbp)
    ac21:	00 00 00 
    ac24:	eb 1e                	jmp    ac44 <func_1+0x48f>
    ac26:	8b 85 30 ee ff ff    	mov    -0x11d0(%rbp),%eax
    ac2c:	48 98                	cltq   
    ac2e:	48 8d 95 88 ee ff ff 	lea    -0x1178(%rbp),%rdx
    ac35:	48 89 94 c5 10 ef ff 	mov    %rdx,-0x10f0(%rbp,%rax,8)
    ac3c:	ff 
    ac3d:	83 85 30 ee ff ff 01 	addl   $0x1,-0x11d0(%rbp)
    ac44:	83 bd 30 ee ff ff 02 	cmpl   $0x2,-0x11d0(%rbp)
    ac4b:	7e d9                	jle    ac26 <func_1+0x471>
    ac4d:	8b 05 f1 d3 00 00    	mov    0xd3f1(%rip),%eax        # 18044 <g_4+0x4>
    ac53:	be 02 00 00 00       	mov    $0x2,%esi
    ac58:	89 c7                	mov    %eax,%edi
    ac5a:	e8 a6 e9 ff ff       	callq  9605 <safe_sub_func_int32_t_s_s>
    ac5f:	89 05 df d3 00 00    	mov    %eax,0xd3df(%rip)        # 18044 <g_4+0x4>
    ac65:	8b 05 d9 d3 00 00    	mov    0xd3d9(%rip),%eax        # 18044 <g_4+0x4>
    ac6b:	83 f8 08             	cmp    $0x8,%eax
    ac6e:	0f 84 70 fd ff ff    	je     a9e4 <func_1+0x22f>
    ac74:	c7 05 3a d4 00 00 00 	movl   $0x0,0xd43a(%rip)        # 180b8 <g_113>
    ac7b:	00 00 00 
    ac7e:	eb 5f                	jmp    acdf <func_1+0x52a>
    ac80:	48 8b 05 01 06 01 00 	mov    0x10601(%rip),%rax        # 1b288 <g_3079>
    ac87:	48 8b 00             	mov    (%rax),%rax
    ac8a:	48 85 c0             	test   %rax,%rax
    ac8d:	0f 94 c2             	sete   %dl
    ac90:	48 8b 05 b9 05 01 00 	mov    0x105b9(%rip),%rax        # 1b250 <g_3081>
    ac97:	48 8b 00             	mov    (%rax),%rax
    ac9a:	0f b6 d2             	movzbl %dl,%edx
    ac9d:	89 10                	mov    %edx,(%rax)
    ac9f:	48 8b 05 aa 05 01 00 	mov    0x105aa(%rip),%rax        # 1b250 <g_3081>
    aca6:	48 8b 00             	mov    (%rax),%rax
    aca9:	8b 08                	mov    (%rax),%ecx
    acab:	8b 05 bf d9 00 00    	mov    0xd9bf(%rip),%eax        # 18670 <g_3268>
    acb1:	85 c0                	test   %eax,%eax
    acb3:	0f 95 c0             	setne  %al
    acb6:	0f b6 d0             	movzbl %al,%edx
    acb9:	48 8b 05 90 05 01 00 	mov    0x10590(%rip),%rax        # 1b250 <g_3081>
    acc0:	48 8b 00             	mov    (%rax),%rax
    acc3:	09 ca                	or     %ecx,%edx
    acc5:	89 10                	mov    %edx,(%rax)
    acc7:	8b 05 eb d3 00 00    	mov    0xd3eb(%rip),%eax        # 180b8 <g_113>
    accd:	be 01 00 00 00       	mov    $0x1,%esi
    acd2:	89 c7                	mov    %eax,%edi
    acd4:	e8 dd e8 ff ff       	callq  95b6 <safe_add_func_int32_t_s_s>
    acd9:	89 05 d9 d3 00 00    	mov    %eax,0xd3d9(%rip)        # 180b8 <g_113>
    acdf:	8b 05 d3 d3 00 00    	mov    0xd3d3(%rip),%eax        # 180b8 <g_113>
    ace5:	83 f8 01             	cmp    $0x1,%eax
    ace8:	7f 96                	jg     ac80 <func_1+0x4cb>
    acea:	48 8b 05 b7 00 01 00 	mov    0x100b7(%rip),%rax        # 1ada8 <g_2596>
    acf1:	48 8b 00             	mov    (%rax),%rax
    acf4:	48 8b 00             	mov    (%rax),%rax
    acf7:	48 8b 75 f8          	mov    -0x8(%rbp),%rsi
    acfb:	64 48 33 34 25 28 00 	xor    %fs:0x28,%rsi
    ad02:	00 00 
    ad04:	74 05                	je     ad0b <func_1+0x556>
    ad06:	e8 65 e3 ff ff       	callq  9070 <__stack_chk_fail@plt>
    ad0b:	c9                   	leaveq 
    ad0c:	c3                   	retq   

000000000000ad0d <func_8>:
    ad0d:	f3 0f 1e fa          	endbr64 
    ad11:	55                   	push   %rbp
    ad12:	48 89 e5             	mov    %rsp,%rbp
    ad15:	48 81 ec 00 02 00 00 	sub    $0x200,%rsp
    ad1c:	89 bd 0c fe ff ff    	mov    %edi,-0x1f4(%rbp)
    ad22:	64 48 8b 04 25 28 00 	mov    %fs:0x28,%rax
    ad29:	00 00 
    ad2b:	48 89 45 f8          	mov    %rax,-0x8(%rbp)
    ad2f:	31 c0                	xor    %eax,%eax
    ad31:	48 8d 05 ec d2 00 00 	lea    0xd2ec(%rip),%rax        # 18024 <g_3>
    ad38:	48 89 85 40 fe ff ff 	mov    %rax,-0x1c0(%rbp)
    ad3f:	48 8d 05 de d2 00 00 	lea    0xd2de(%rip),%rax        # 18024 <g_3>
    ad46:	48 89 85 48 fe ff ff 	mov    %rax,-0x1b8(%rbp)
    ad4d:	48 c7 85 50 fe ff ff 	movq   $0x0,-0x1b0(%rbp)
    ad54:	00 00 00 00 
    ad58:	48 8d 05 c5 d2 00 00 	lea    0xd2c5(%rip),%rax        # 18024 <g_3>
    ad5f:	48 89 85 58 fe ff ff 	mov    %rax,-0x1a8(%rbp)
    ad66:	48 8d 05 b7 d2 00 00 	lea    0xd2b7(%rip),%rax        # 18024 <g_3>
    ad6d:	48 89 85 60 fe ff ff 	mov    %rax,-0x1a0(%rbp)
    ad74:	48 8d 05 a9 d2 00 00 	lea    0xd2a9(%rip),%rax        # 18024 <g_3>
    ad7b:	48 89 85 68 fe ff ff 	mov    %rax,-0x198(%rbp)
    ad82:	48 8d 05 9b d2 00 00 	lea    0xd29b(%rip),%rax        # 18024 <g_3>
    ad89:	48 89 85 70 fe ff ff 	mov    %rax,-0x190(%rbp)
    ad90:	48 8d 05 8d d2 00 00 	lea    0xd28d(%rip),%rax        # 18024 <g_3>
    ad97:	48 89 85 78 fe ff ff 	mov    %rax,-0x188(%rbp)
    ad9e:	48 8d 05 7f d2 00 00 	lea    0xd27f(%rip),%rax        # 18024 <g_3>
    ada5:	48 89 85 80 fe ff ff 	mov    %rax,-0x180(%rbp)
    adac:	48 8d 05 71 d2 00 00 	lea    0xd271(%rip),%rax        # 18024 <g_3>
    adb3:	48 89 85 88 fe ff ff 	mov    %rax,-0x178(%rbp)
    adba:	48 8d 05 63 d2 00 00 	lea    0xd263(%rip),%rax        # 18024 <g_3>
    adc1:	48 89 85 90 fe ff ff 	mov    %rax,-0x170(%rbp)
    adc8:	48 8d 05 55 d2 00 00 	lea    0xd255(%rip),%rax        # 18024 <g_3>
    adcf:	48 89 85 98 fe ff ff 	mov    %rax,-0x168(%rbp)
    add6:	48 8d 05 47 d2 00 00 	lea    0xd247(%rip),%rax        # 18024 <g_3>
    addd:	48 89 85 a0 fe ff ff 	mov    %rax,-0x160(%rbp)
    ade4:	c7 85 28 fe ff ff 46 	movl   $0xccd20446,-0x1d8(%rbp)
    adeb:	04 d2 cc 
    adee:	48 c7 85 a8 fe ff ff 	movq   $0x0,-0x158(%rbp)
    adf5:	00 00 00 00 
    adf9:	c7 85 14 fe ff ff 11 	movl   $0xf0442e11,-0x1ec(%rbp)
    ae00:	2e 44 f0 
    ae03:	48 8d 05 1a d2 00 00 	lea    0xd21a(%rip),%rax        # 18024 <g_3>
    ae0a:	48 89 85 b0 fe ff ff 	mov    %rax,-0x150(%rbp)
    ae11:	48 8d 05 0c d2 00 00 	lea    0xd20c(%rip),%rax        # 18024 <g_3>
    ae18:	48 89 85 b8 fe ff ff 	mov    %rax,-0x148(%rbp)
    ae1f:	48 8d 05 fe d1 00 00 	lea    0xd1fe(%rip),%rax        # 18024 <g_3>
    ae26:	48 89 85 c0 fe ff ff 	mov    %rax,-0x140(%rbp)
    ae2d:	48 8d 05 f0 d1 00 00 	lea    0xd1f0(%rip),%rax        # 18024 <g_3>
    ae34:	48 89 85 60 ff ff ff 	mov    %rax,-0xa0(%rbp)
    ae3b:	48 8d 05 e2 d1 00 00 	lea    0xd1e2(%rip),%rax        # 18024 <g_3>
    ae42:	48 89 85 68 ff ff ff 	mov    %rax,-0x98(%rbp)
    ae49:	48 8d 05 d4 d1 00 00 	lea    0xd1d4(%rip),%rax        # 18024 <g_3>
    ae50:	48 89 85 70 ff ff ff 	mov    %rax,-0x90(%rbp)
    ae57:	48 8d 05 c6 d1 00 00 	lea    0xd1c6(%rip),%rax        # 18024 <g_3>
    ae5e:	48 89 85 78 ff ff ff 	mov    %rax,-0x88(%rbp)
    ae65:	c7 85 18 fe ff ff e1 	movl   $0xf0b56fe1,-0x1e8(%rbp)
    ae6c:	6f b5 f0 
    ae6f:	c7 85 10 fe ff ff f7 	movl   $0xfffffff7,-0x1f0(%rbp)
    ae76:	ff ff ff 
    ae79:	48 c7 85 c8 fe ff ff 	movq   $0x0,-0x138(%rbp)
    ae80:	00 00 00 00 
    ae84:	c7 85 1c fe ff ff 00 	movl   $0x0,-0x1e4(%rbp)
    ae8b:	00 00 00 
    ae8e:	eb 50                	jmp    aee0 <func_8+0x1d3>
    ae90:	c7 85 20 fe ff ff 00 	movl   $0x0,-0x1e0(%rbp)
    ae97:	00 00 00 
    ae9a:	eb 34                	jmp    aed0 <func_8+0x1c3>
    ae9c:	8b 85 20 fe ff ff    	mov    -0x1e0(%rbp),%eax
    aea2:	48 63 c8             	movslq %eax,%rcx
    aea5:	8b 85 1c fe ff ff    	mov    -0x1e4(%rbp),%eax
    aeab:	48 63 d0             	movslq %eax,%rdx
    aeae:	48 89 d0             	mov    %rdx,%rax
    aeb1:	48 01 c0             	add    %rax,%rax
    aeb4:	48 01 d0             	add    %rdx,%rax
    aeb7:	48 01 c8             	add    %rcx,%rax
    aeba:	48 8d 15 1f f2 00 00 	lea    0xf21f(%rip),%rdx        # 1a0e0 <g_428>
    aec1:	48 89 94 c5 00 ff ff 	mov    %rdx,-0x100(%rbp,%rax,8)
    aec8:	ff 
    aec9:	83 85 20 fe ff ff 01 	addl   $0x1,-0x1e0(%rbp)
    aed0:	83 bd 20 fe ff ff 02 	cmpl   $0x2,-0x1e0(%rbp)
    aed7:	7e c3                	jle    ae9c <func_8+0x18f>
    aed9:	83 85 1c fe ff ff 01 	addl   $0x1,-0x1e4(%rbp)
    aee0:	83 bd 1c fe ff ff 00 	cmpl   $0x0,-0x1e4(%rbp)
    aee7:	7e a7                	jle    ae90 <func_8+0x183>
    aee9:	90                   	nop
    aeea:	83 85 18 fe ff ff 01 	addl   $0x1,-0x1e8(%rbp)
    aef1:	c7 85 14 fe ff ff 00 	movl   $0x0,-0x1ec(%rbp)
    aef8:	00 00 00 
    aefb:	e9 77 01 00 00       	jmpq   b077 <func_8+0x36a>
    af00:	48 c7 85 d0 fe ff ff 	movq   $0x0,-0x130(%rbp)
    af07:	00 00 00 00 
    af0b:	48 c7 85 d8 fe ff ff 	movq   $0x0,-0x128(%rbp)
    af12:	00 00 00 00 
    af16:	48 8d 05 54 d1 00 00 	lea    0xd154(%rip),%rax        # 18071 <g_54>
    af1d:	48 89 85 e0 fe ff ff 	mov    %rax,-0x120(%rbp)
    af24:	c7 85 2c fe ff ff 09 	movl   $0x9,-0x1d4(%rbp)
    af2b:	00 00 00 
    af2e:	c7 85 30 fe ff ff 49 	movl   $0x830cec49,-0x1d0(%rbp)
    af35:	ec 0c 83 
    af38:	48 8d 05 29 d7 00 00 	lea    0xd729(%rip),%rax        # 18668 <g_3167>
    af3f:	48 89 85 e8 fe ff ff 	mov    %rax,-0x118(%rbp)
    af46:	c7 85 34 fe ff ff fc 	movl   $0xfffffffc,-0x1cc(%rbp)
    af4d:	ff ff ff 
    af50:	48 c7 85 f0 fe ff ff 	movq   $0x0,-0x110(%rbp)
    af57:	00 00 00 00 
    af5b:	48 8d 05 de f1 00 00 	lea    0xf1de(%rip),%rax        # 1a140 <g_565>
    af62:	48 89 85 38 fe ff ff 	mov    %rax,-0x1c8(%rbp)
    af69:	48 c7 45 c0 00 00 00 	movq   $0x0,-0x40(%rbp)
    af70:	00 
    af71:	48 8d 85 38 fe ff ff 	lea    -0x1c8(%rbp),%rax
    af78:	48 89 45 c8          	mov    %rax,-0x38(%rbp)
    af7c:	48 c7 45 d0 00 00 00 	movq   $0x0,-0x30(%rbp)
    af83:	00 
    af84:	48 c7 45 d8 00 00 00 	movq   $0x0,-0x28(%rbp)
    af8b:	00 
    af8c:	48 8d 85 38 fe ff ff 	lea    -0x1c8(%rbp),%rax
    af93:	48 89 45 e0          	mov    %rax,-0x20(%rbp)
    af97:	48 c7 45 e8 00 00 00 	movq   $0x0,-0x18(%rbp)
    af9e:	00 
    af9f:	48 c7 45 f0 00 00 00 	movq   $0x0,-0x10(%rbp)
    afa6:	00 
    afa7:	48 8d 05 8c d4 00 00 	lea    0xd48c(%rip),%rax        # 1843a <g_2386+0xda>
    afae:	48 89 85 f8 fe ff ff 	mov    %rax,-0x108(%rbp)
    afb5:	c7 85 24 fe ff ff 00 	movl   $0x0,-0x1dc(%rbp)
    afbc:	00 00 00 
    afbf:	eb 1e                	jmp    afdf <func_8+0x2d2>
    afc1:	8b 85 24 fe ff ff    	mov    -0x1dc(%rbp),%eax
    afc7:	48 98                	cltq   
    afc9:	48 8d 15 98 d0 00 00 	lea    0xd098(%rip),%rdx        # 18068 <g_42>
    afd0:	48 89 94 c5 20 ff ff 	mov    %rdx,-0xe0(%rbp,%rax,8)
    afd7:	ff 
    afd8:	83 85 24 fe ff ff 01 	addl   $0x1,-0x1dc(%rbp)
    afdf:	83 bd 24 fe ff ff 02 	cmpl   $0x2,-0x1dc(%rbp)
    afe6:	7e d9                	jle    afc1 <func_8+0x2b4>
    afe8:	c7 85 24 fe ff ff 00 	movl   $0x0,-0x1dc(%rbp)
    afef:	00 00 00 
    aff2:	eb 1b                	jmp    b00f <func_8+0x302>
    aff4:	8b 85 24 fe ff ff    	mov    -0x1dc(%rbp),%eax
    affa:	48 98                	cltq   
    affc:	48 8d 15 6d d0 00 00 	lea    0xd06d(%rip),%rdx        # 18070 <g_49>
    b003:	48 89 54 c5 80       	mov    %rdx,-0x80(%rbp,%rax,8)
    b008:	83 85 24 fe ff ff 01 	addl   $0x1,-0x1dc(%rbp)
    b00f:	83 bd 24 fe ff ff 06 	cmpl   $0x6,-0x1dc(%rbp)
    b016:	7e dc                	jle    aff4 <func_8+0x2e7>
    b018:	c7 85 24 fe ff ff 00 	movl   $0x0,-0x1dc(%rbp)
    b01f:	00 00 00 
    b022:	eb 1e                	jmp    b042 <func_8+0x335>
    b024:	8b 85 24 fe ff ff    	mov    -0x1dc(%rbp),%eax
    b02a:	48 98                	cltq   
    b02c:	48 8d 15 19 09 01 00 	lea    0x10919(%rip),%rdx        # 1b94c <g_258>
    b033:	48 89 94 c5 40 ff ff 	mov    %rdx,-0xc0(%rbp,%rax,8)
    b03a:	ff 
    b03b:	83 85 24 fe ff ff 01 	addl   $0x1,-0x1dc(%rbp)
    b042:	83 bd 24 fe ff ff 02 	cmpl   $0x2,-0x1dc(%rbp)
    b049:	7e d9                	jle    b024 <func_8+0x317>
    b04b:	83 bd 18 fe ff ff 00 	cmpl   $0x0,-0x1e8(%rbp)
    b052:	74 05                	je     b059 <func_8+0x34c>
    b054:	e9 91 fe ff ff       	jmpq   aeea <func_8+0x1dd>
    b059:	8b 85 14 fe ff ff    	mov    -0x1ec(%rbp),%eax
    b05f:	0f b6 c0             	movzbl %al,%eax
    b062:	be 09 00 00 00       	mov    $0x9,%esi
    b067:	89 c7                	mov    %eax,%edi
    b069:	e8 ec ea ff ff       	callq  9b5a <safe_add_func_uint8_t_u_u>
    b06e:	0f b6 c0             	movzbl %al,%eax
    b071:	89 85 14 fe ff ff    	mov    %eax,-0x1ec(%rbp)
    b077:	83 bd 14 fe ff ff 15 	cmpl   $0x15,-0x1ec(%rbp)
    b07e:	0f 8e 7c fe ff ff    	jle    af00 <func_8+0x1f3>
    b084:	48 8b 85 b8 fe ff ff 	mov    -0x148(%rbp),%rax
    b08b:	8b 00                	mov    (%rax),%eax
    b08d:	48 8b 75 f8          	mov    -0x8(%rbp),%rsi
    b091:	64 48 33 34 25 28 00 	xor    %fs:0x28,%rsi
    b098:	00 00 
    b09a:	74 05                	je     b0a1 <func_8+0x394>
    b09c:	e8 cf df ff ff       	callq  9070 <__stack_chk_fail@plt>
    b0a1:	c9                   	leaveq 
    b0a2:	c3                   	retq   

000000000000b0a3 <func_38>:
    b0a3:	f3 0f 1e fa          	endbr64 
    b0a7:	55                   	push   %rbp
    b0a8:	48 89 e5             	mov    %rsp,%rbp
    b0ab:	41 57                	push   %r15
    b0ad:	41 56                	push   %r14
    b0af:	41 55                	push   %r13
    b0b1:	41 54                	push   %r12
    b0b3:	53                   	push   %rbx
    b0b4:	48 81 ec a8 0c 00 00 	sub    $0xca8,%rsp
    b0bb:	89 f8                	mov    %edi,%eax
    b0bd:	48 89 b5 40 f3 ff ff 	mov    %rsi,-0xcc0(%rbp)
    b0c4:	88 85 4c f3 ff ff    	mov    %al,-0xcb4(%rbp)
    b0ca:	64 48 8b 04 25 28 00 	mov    %fs:0x28,%rax
    b0d1:	00 00 
    b0d3:	48 89 45 c8          	mov    %rax,-0x38(%rbp)
    b0d7:	31 c0                	xor    %eax,%eax
    b0d9:	c7 85 a0 f3 ff ff cc 	movl   $0x2443ffcc,-0xc60(%rbp)
    b0e0:	ff 43 24 
    b0e3:	c7 85 a4 f3 ff ff 04 	movl   $0xffff0104,-0xc5c(%rbp)
    b0ea:	01 ff ff 
    b0ed:	c7 85 a8 f3 ff ff f7 	movl   $0x9fff7f7,-0xc58(%rbp)
    b0f4:	f7 ff 09 
    b0f7:	c7 85 ac f3 ff ff 04 	movl   $0x1430704,-0xc54(%rbp)
    b0fe:	07 43 01 
    b101:	c7 85 b0 f3 ff ff cc 	movl   $0x430943cc,-0xc50(%rbp)
    b108:	43 09 43 
    b10b:	c7 85 b4 f3 ff ff 09 	movl   $0x1cc4309,-0xc4c(%rbp)
    b112:	43 cc 01 
    b115:	c7 85 b8 f3 ff ff 43 	movl   $0x9040743,-0xc48(%rbp)
    b11c:	07 04 09 
    b11f:	c7 85 bc f3 ff ff ff 	movl   $0xfff7f7ff,-0xc44(%rbp)
    b126:	f7 f7 ff 
    b129:	c7 85 c0 f3 ff ff ff 	movl   $0x240401ff,-0xc40(%rbp)
    b130:	01 04 24 
    b133:	c7 85 c4 f3 ff ff 43 	movl   $0xdaccff43,-0xc3c(%rbp)
    b13a:	ff cc da 
    b13d:	c7 85 c8 f3 ff ff 09 	movl   $0xda090d09,-0xc38(%rbp)
    b144:	0d 09 da 
    b147:	c7 85 cc f3 ff ff cc 	movl   $0x2443ffcc,-0xc34(%rbp)
    b14e:	ff 43 24 
    b151:	c7 85 d0 f3 ff ff 04 	movl   $0xffff0104,-0xc30(%rbp)
    b158:	01 ff ff 
    b15b:	c7 85 d4 f3 ff ff f7 	movl   $0x9fff7f7,-0xc2c(%rbp)
    b162:	f7 ff 09 
    b165:	c7 85 d8 f3 ff ff 04 	movl   $0x1430704,-0xc28(%rbp)
    b16c:	07 43 01 
    b16f:	c7 85 dc f3 ff ff cc 	movl   $0x430943cc,-0xc24(%rbp)
    b176:	43 09 43 
    b179:	c7 85 e0 f3 ff ff 09 	movl   $0x1cc4309,-0xc20(%rbp)
    b180:	43 cc 01 
    b183:	c7 85 e4 f3 ff ff 43 	movl   $0x9040743,-0xc1c(%rbp)
    b18a:	07 04 09 
    b18d:	c7 85 e8 f3 ff ff ff 	movl   $0xfff7f7ff,-0xc18(%rbp)
    b194:	f7 f7 ff 
    b197:	c7 85 ec f3 ff ff ff 	movl   $0x240401ff,-0xc14(%rbp)
    b19e:	01 04 24 
    b1a1:	c7 85 f0 f3 ff ff 43 	movl   $0xdaccff43,-0xc10(%rbp)
    b1a8:	ff cc da 
    b1ab:	c7 85 f4 f3 ff ff 09 	movl   $0xda090d09,-0xc0c(%rbp)
    b1b2:	0d 09 da 
    b1b5:	c7 85 f8 f3 ff ff cc 	movl   $0x2443ffcc,-0xc08(%rbp)
    b1bc:	ff 43 24 
    b1bf:	c7 85 fc f3 ff ff 04 	movl   $0xffff0104,-0xc04(%rbp)
    b1c6:	01 ff ff 
    b1c9:	c7 85 00 f4 ff ff f7 	movl   $0x9fff7f7,-0xc00(%rbp)
    b1d0:	f7 ff 09 
    b1d3:	c7 85 04 f4 ff ff 04 	movl   $0x1430704,-0xbfc(%rbp)
    b1da:	07 43 01 
    b1dd:	c7 85 08 f4 ff ff cc 	movl   $0x430943cc,-0xbf8(%rbp)
    b1e4:	43 09 43 
    b1e7:	c7 85 0c f4 ff ff 09 	movl   $0x1cc4309,-0xbf4(%rbp)
    b1ee:	43 cc 01 
    b1f1:	c7 85 10 f4 ff ff 0d 	movl   $0x109cc0d,-0xbf0(%rbp)
    b1f8:	cc 09 01 
    b1fb:	c7 85 14 f4 ff ff f7 	movl   $0xf7dadaf7,-0xbec(%rbp)
    b202:	da da f7 
    b205:	48 8d 05 5c ce 00 00 	lea    0xce5c(%rip),%rax        # 18068 <g_42>
    b20c:	48 89 85 20 f4 ff ff 	mov    %rax,-0xbe0(%rbp)
    b213:	48 8d 05 4e ce 00 00 	lea    0xce4e(%rip),%rax        # 18068 <g_42>
    b21a:	48 89 85 28 f4 ff ff 	mov    %rax,-0xbd8(%rbp)
    b221:	48 8d 05 40 ce 00 00 	lea    0xce40(%rip),%rax        # 18068 <g_42>
    b228:	48 89 85 30 f4 ff ff 	mov    %rax,-0xbd0(%rbp)
    b22f:	48 8d 05 32 ce 00 00 	lea    0xce32(%rip),%rax        # 18068 <g_42>
    b236:	48 89 85 38 f4 ff ff 	mov    %rax,-0xbc8(%rbp)
    b23d:	48 8d 05 24 ce 00 00 	lea    0xce24(%rip),%rax        # 18068 <g_42>
    b244:	48 89 85 40 f4 ff ff 	mov    %rax,-0xbc0(%rbp)
    b24b:	48 8d 05 16 ce 00 00 	lea    0xce16(%rip),%rax        # 18068 <g_42>
    b252:	48 89 85 48 f4 ff ff 	mov    %rax,-0xbb8(%rbp)
    b259:	48 8d 05 08 ce 00 00 	lea    0xce08(%rip),%rax        # 18068 <g_42>
    b260:	48 89 85 50 f4 ff ff 	mov    %rax,-0xbb0(%rbp)
    b267:	48 8d 05 fa cd 00 00 	lea    0xcdfa(%rip),%rax        # 18068 <g_42>
    b26e:	48 89 85 58 f4 ff ff 	mov    %rax,-0xba8(%rbp)
    b275:	48 8d 05 ec cd 00 00 	lea    0xcdec(%rip),%rax        # 18068 <g_42>
    b27c:	48 89 85 60 f4 ff ff 	mov    %rax,-0xba0(%rbp)
    b283:	48 8d 05 de cd 00 00 	lea    0xcdde(%rip),%rax        # 18068 <g_42>
    b28a:	48 89 85 68 f4 ff ff 	mov    %rax,-0xb98(%rbp)
    b291:	48 8d 05 d0 cd 00 00 	lea    0xcdd0(%rip),%rax        # 18068 <g_42>
    b298:	48 89 85 70 f4 ff ff 	mov    %rax,-0xb90(%rbp)
    b29f:	48 8d 05 c2 cd 00 00 	lea    0xcdc2(%rip),%rax        # 18068 <g_42>
    b2a6:	48 89 85 78 f4 ff ff 	mov    %rax,-0xb88(%rbp)
    b2ad:	48 8d 05 b4 cd 00 00 	lea    0xcdb4(%rip),%rax        # 18068 <g_42>
    b2b4:	48 89 85 80 f4 ff ff 	mov    %rax,-0xb80(%rbp)
    b2bb:	48 8d 05 a6 cd 00 00 	lea    0xcda6(%rip),%rax        # 18068 <g_42>
    b2c2:	48 89 85 88 f4 ff ff 	mov    %rax,-0xb78(%rbp)
    b2c9:	48 8d 05 98 cd 00 00 	lea    0xcd98(%rip),%rax        # 18068 <g_42>
    b2d0:	48 89 85 90 f4 ff ff 	mov    %rax,-0xb70(%rbp)
    b2d7:	c7 85 80 f3 ff ff 19 	movl   $0xecde8719,-0xc80(%rbp)
    b2de:	87 de ec 
    b2e1:	c7 85 84 f3 ff ff 19 	movl   $0xecde8719,-0xc7c(%rbp)
    b2e8:	87 de ec 
    b2eb:	c7 85 88 f3 ff ff 19 	movl   $0xecde8719,-0xc78(%rbp)
    b2f2:	87 de ec 
    b2f5:	c7 85 8c f3 ff ff 19 	movl   $0xecde8719,-0xc74(%rbp)
    b2fc:	87 de ec 
    b2ff:	c7 85 90 f3 ff ff 19 	movl   $0xecde8719,-0xc70(%rbp)
    b306:	87 de ec 
    b309:	c7 85 94 f3 ff ff 19 	movl   $0xecde8719,-0xc6c(%rbp)
    b310:	87 de ec 
    b313:	c7 85 98 f3 ff ff 19 	movl   $0xecde8719,-0xc68(%rbp)
    b31a:	87 de ec 
    b31d:	c7 85 9c f3 ff ff 19 	movl   $0xecde8719,-0xc64(%rbp)
    b324:	87 de ec 
    b327:	66 c7 85 5c f3 ff ff 	movw   $0x1,-0xca4(%rbp)
    b32e:	01 00 
    b330:	48 c7 85 68 f3 ff ff 	movq   $0x0,-0xc98(%rbp)
    b337:	00 00 00 00 
    b33b:	48 8d 05 2a 7d 00 00 	lea    0x7d2a(%rip),%rax        # 1306c <g_2811>
    b342:	48 89 85 70 f3 ff ff 	mov    %rax,-0xc90(%rbp)
    b349:	48 c7 85 c0 f5 ff ff 	movq   $0x0,-0xa40(%rbp)
    b350:	00 00 00 00 
    b354:	48 8d 85 70 f3 ff ff 	lea    -0xc90(%rbp),%rax
    b35b:	48 89 85 c8 f5 ff ff 	mov    %rax,-0xa38(%rbp)
    b362:	48 8d 85 70 f3 ff ff 	lea    -0xc90(%rbp),%rax
    b369:	48 89 85 d0 f5 ff ff 	mov    %rax,-0xa30(%rbp)
    b370:	48 8d 85 70 f3 ff ff 	lea    -0xc90(%rbp),%rax
    b377:	48 89 85 d8 f5 ff ff 	mov    %rax,-0xa28(%rbp)
    b37e:	48 c7 85 e0 f5 ff ff 	movq   $0x0,-0xa20(%rbp)
    b385:	00 00 00 00 
    b389:	48 8d 85 70 f3 ff ff 	lea    -0xc90(%rbp),%rax
    b390:	48 89 85 e8 f5 ff ff 	mov    %rax,-0xa18(%rbp)
    b397:	48 8d 85 70 f3 ff ff 	lea    -0xc90(%rbp),%rax
    b39e:	48 89 85 f0 f5 ff ff 	mov    %rax,-0xa10(%rbp)
    b3a5:	48 8d 85 70 f3 ff ff 	lea    -0xc90(%rbp),%rax
    b3ac:	48 89 85 f8 f5 ff ff 	mov    %rax,-0xa08(%rbp)
    b3b3:	48 8d 85 70 f3 ff ff 	lea    -0xc90(%rbp),%rax
    b3ba:	48 89 85 00 f6 ff ff 	mov    %rax,-0xa00(%rbp)
    b3c1:	48 8d 85 70 f3 ff ff 	lea    -0xc90(%rbp),%rax
    b3c8:	48 89 85 08 f6 ff ff 	mov    %rax,-0x9f8(%rbp)
    b3cf:	48 8d 85 70 f3 ff ff 	lea    -0xc90(%rbp),%rax
    b3d6:	48 89 85 10 f6 ff ff 	mov    %rax,-0x9f0(%rbp)
    b3dd:	48 8d 85 70 f3 ff ff 	lea    -0xc90(%rbp),%rax
    b3e4:	48 89 85 18 f6 ff ff 	mov    %rax,-0x9e8(%rbp)
    b3eb:	48 8d 85 70 f3 ff ff 	lea    -0xc90(%rbp),%rax
    b3f2:	48 89 85 20 f6 ff ff 	mov    %rax,-0x9e0(%rbp)
    b3f9:	48 8d 85 70 f3 ff ff 	lea    -0xc90(%rbp),%rax
    b400:	48 89 85 28 f6 ff ff 	mov    %rax,-0x9d8(%rbp)
    b407:	48 8d 85 70 f3 ff ff 	lea    -0xc90(%rbp),%rax
    b40e:	48 89 85 30 f6 ff ff 	mov    %rax,-0x9d0(%rbp)
    b415:	48 8d 85 70 f3 ff ff 	lea    -0xc90(%rbp),%rax
    b41c:	48 89 85 38 f6 ff ff 	mov    %rax,-0x9c8(%rbp)
    b423:	48 8d 85 70 f3 ff ff 	lea    -0xc90(%rbp),%rax
    b42a:	48 89 85 40 f6 ff ff 	mov    %rax,-0x9c0(%rbp)
    b431:	48 8d 85 70 f3 ff ff 	lea    -0xc90(%rbp),%rax
    b438:	48 89 85 48 f6 ff ff 	mov    %rax,-0x9b8(%rbp)
    b43f:	48 8d 85 70 f3 ff ff 	lea    -0xc90(%rbp),%rax
    b446:	48 89 85 50 f6 ff ff 	mov    %rax,-0x9b0(%rbp)
    b44d:	48 8d 85 70 f3 ff ff 	lea    -0xc90(%rbp),%rax
    b454:	48 89 85 58 f6 ff ff 	mov    %rax,-0x9a8(%rbp)
    b45b:	48 8d 85 70 f3 ff ff 	lea    -0xc90(%rbp),%rax
    b462:	48 89 85 60 f6 ff ff 	mov    %rax,-0x9a0(%rbp)
    b469:	48 8d 85 70 f3 ff ff 	lea    -0xc90(%rbp),%rax
    b470:	48 89 85 68 f6 ff ff 	mov    %rax,-0x998(%rbp)
    b477:	48 8d 85 70 f3 ff ff 	lea    -0xc90(%rbp),%rax
    b47e:	48 89 85 70 f6 ff ff 	mov    %rax,-0x990(%rbp)
    b485:	48 c7 85 78 f6 ff ff 	movq   $0x0,-0x988(%rbp)
    b48c:	00 00 00 00 
    b490:	48 8d 85 70 f3 ff ff 	lea    -0xc90(%rbp),%rax
    b497:	48 89 85 80 f6 ff ff 	mov    %rax,-0x980(%rbp)
    b49e:	48 8d 85 70 f3 ff ff 	lea    -0xc90(%rbp),%rax
    b4a5:	48 89 85 88 f6 ff ff 	mov    %rax,-0x978(%rbp)
    b4ac:	48 8d 85 70 f3 ff ff 	lea    -0xc90(%rbp),%rax
    b4b3:	48 89 85 90 f6 ff ff 	mov    %rax,-0x970(%rbp)
    b4ba:	48 8d 85 70 f3 ff ff 	lea    -0xc90(%rbp),%rax
    b4c1:	48 89 85 98 f6 ff ff 	mov    %rax,-0x968(%rbp)
    b4c8:	48 8d 85 70 f3 ff ff 	lea    -0xc90(%rbp),%rax
    b4cf:	48 89 85 a0 f6 ff ff 	mov    %rax,-0x960(%rbp)
    b4d6:	48 c7 85 a8 f6 ff ff 	movq   $0x0,-0x958(%rbp)
    b4dd:	00 00 00 00 
    b4e1:	48 c7 85 b0 f6 ff ff 	movq   $0x0,-0x950(%rbp)
    b4e8:	00 00 00 00 
    b4ec:	48 8d 85 70 f3 ff ff 	lea    -0xc90(%rbp),%rax
    b4f3:	48 89 85 b8 f6 ff ff 	mov    %rax,-0x948(%rbp)
    b4fa:	48 8d 85 70 f3 ff ff 	lea    -0xc90(%rbp),%rax
    b501:	48 89 85 c0 f6 ff ff 	mov    %rax,-0x940(%rbp)
    b508:	48 c7 85 c8 f6 ff ff 	movq   $0x0,-0x938(%rbp)
    b50f:	00 00 00 00 
    b513:	48 8d 85 70 f3 ff ff 	lea    -0xc90(%rbp),%rax
    b51a:	48 89 85 d0 f6 ff ff 	mov    %rax,-0x930(%rbp)
    b521:	48 c7 85 d8 f6 ff ff 	movq   $0x0,-0x928(%rbp)
    b528:	00 00 00 00 
    b52c:	48 8d 85 70 f3 ff ff 	lea    -0xc90(%rbp),%rax
    b533:	48 89 85 e0 f6 ff ff 	mov    %rax,-0x920(%rbp)
    b53a:	48 8d 85 70 f3 ff ff 	lea    -0xc90(%rbp),%rax
    b541:	48 89 85 e8 f6 ff ff 	mov    %rax,-0x918(%rbp)
    b548:	48 8d 85 70 f3 ff ff 	lea    -0xc90(%rbp),%rax
    b54f:	48 89 85 f0 f6 ff ff 	mov    %rax,-0x910(%rbp)
    b556:	48 c7 85 f8 f6 ff ff 	movq   $0x0,-0x908(%rbp)
    b55d:	00 00 00 00 
    b561:	48 c7 85 00 f7 ff ff 	movq   $0x0,-0x900(%rbp)
    b568:	00 00 00 00 
    b56c:	48 8d 85 70 f3 ff ff 	lea    -0xc90(%rbp),%rax
    b573:	48 89 85 08 f7 ff ff 	mov    %rax,-0x8f8(%rbp)
    b57a:	48 c7 85 10 f7 ff ff 	movq   $0x0,-0x8f0(%rbp)
    b581:	00 00 00 00 
    b585:	48 8d 85 70 f3 ff ff 	lea    -0xc90(%rbp),%rax
    b58c:	48 89 85 18 f7 ff ff 	mov    %rax,-0x8e8(%rbp)
    b593:	48 8d 85 70 f3 ff ff 	lea    -0xc90(%rbp),%rax
    b59a:	48 89 85 20 f7 ff ff 	mov    %rax,-0x8e0(%rbp)
    b5a1:	48 8d 85 70 f3 ff ff 	lea    -0xc90(%rbp),%rax
    b5a8:	48 89 85 28 f7 ff ff 	mov    %rax,-0x8d8(%rbp)
    b5af:	48 c7 85 30 f7 ff ff 	movq   $0x0,-0x8d0(%rbp)
    b5b6:	00 00 00 00 
    b5ba:	48 8d 85 70 f3 ff ff 	lea    -0xc90(%rbp),%rax
    b5c1:	48 89 85 38 f7 ff ff 	mov    %rax,-0x8c8(%rbp)
    b5c8:	48 8d 85 70 f3 ff ff 	lea    -0xc90(%rbp),%rax
    b5cf:	48 89 85 40 f7 ff ff 	mov    %rax,-0x8c0(%rbp)
    b5d6:	48 8d 85 70 f3 ff ff 	lea    -0xc90(%rbp),%rax
    b5dd:	48 89 85 48 f7 ff ff 	mov    %rax,-0x8b8(%rbp)
    b5e4:	48 8d 85 70 f3 ff ff 	lea    -0xc90(%rbp),%rax
    b5eb:	48 89 85 50 f7 ff ff 	mov    %rax,-0x8b0(%rbp)
    b5f2:	48 8d 85 70 f3 ff ff 	lea    -0xc90(%rbp),%rax
    b5f9:	48 89 85 58 f7 ff ff 	mov    %rax,-0x8a8(%rbp)
    b600:	48 8d 85 70 f3 ff ff 	lea    -0xc90(%rbp),%rax
    b607:	48 89 85 60 f7 ff ff 	mov    %rax,-0x8a0(%rbp)
    b60e:	48 8d 85 70 f3 ff ff 	lea    -0xc90(%rbp),%rax
    b615:	48 89 85 68 f7 ff ff 	mov    %rax,-0x898(%rbp)
    b61c:	48 8d 85 70 f3 ff ff 	lea    -0xc90(%rbp),%rax
    b623:	48 89 85 70 f7 ff ff 	mov    %rax,-0x890(%rbp)
    b62a:	48 8d 85 70 f3 ff ff 	lea    -0xc90(%rbp),%rax
    b631:	48 89 85 78 f7 ff ff 	mov    %rax,-0x888(%rbp)
    b638:	48 8d 85 70 f3 ff ff 	lea    -0xc90(%rbp),%rax
    b63f:	48 89 85 80 f7 ff ff 	mov    %rax,-0x880(%rbp)
    b646:	48 8d 85 70 f3 ff ff 	lea    -0xc90(%rbp),%rax
    b64d:	48 89 85 88 f7 ff ff 	mov    %rax,-0x878(%rbp)
    b654:	48 8d 85 70 f3 ff ff 	lea    -0xc90(%rbp),%rax
    b65b:	48 89 85 90 f7 ff ff 	mov    %rax,-0x870(%rbp)
    b662:	48 8d 85 70 f3 ff ff 	lea    -0xc90(%rbp),%rax
    b669:	48 89 85 98 f7 ff ff 	mov    %rax,-0x868(%rbp)
    b670:	48 8d 85 70 f3 ff ff 	lea    -0xc90(%rbp),%rax
    b677:	48 89 85 a0 f7 ff ff 	mov    %rax,-0x860(%rbp)
    b67e:	48 8d 85 70 f3 ff ff 	lea    -0xc90(%rbp),%rax
    b685:	48 89 85 a8 f7 ff ff 	mov    %rax,-0x858(%rbp)
    b68c:	48 8d 85 70 f3 ff ff 	lea    -0xc90(%rbp),%rax
    b693:	48 89 85 b0 f7 ff ff 	mov    %rax,-0x850(%rbp)
    b69a:	48 8d 85 70 f3 ff ff 	lea    -0xc90(%rbp),%rax
    b6a1:	48 89 85 b8 f7 ff ff 	mov    %rax,-0x848(%rbp)
    b6a8:	48 8d 85 70 f3 ff ff 	lea    -0xc90(%rbp),%rax
    b6af:	48 89 85 c0 f7 ff ff 	mov    %rax,-0x840(%rbp)
    b6b6:	48 c7 85 c8 f7 ff ff 	movq   $0x0,-0x838(%rbp)
    b6bd:	00 00 00 00 
    b6c1:	48 8d 85 70 f3 ff ff 	lea    -0xc90(%rbp),%rax
    b6c8:	48 89 85 d0 f7 ff ff 	mov    %rax,-0x830(%rbp)
    b6cf:	48 8d 85 70 f3 ff ff 	lea    -0xc90(%rbp),%rax
    b6d6:	48 89 85 d8 f7 ff ff 	mov    %rax,-0x828(%rbp)
    b6dd:	48 8d 85 70 f3 ff ff 	lea    -0xc90(%rbp),%rax
    b6e4:	48 89 85 e0 f7 ff ff 	mov    %rax,-0x820(%rbp)
    b6eb:	48 8d 85 70 f3 ff ff 	lea    -0xc90(%rbp),%rax
    b6f2:	48 89 85 e8 f7 ff ff 	mov    %rax,-0x818(%rbp)
    b6f9:	48 8d 85 70 f3 ff ff 	lea    -0xc90(%rbp),%rax
    b700:	48 89 85 f0 f7 ff ff 	mov    %rax,-0x810(%rbp)
    b707:	48 c7 85 f8 f7 ff ff 	movq   $0x0,-0x808(%rbp)
    b70e:	00 00 00 00 
    b712:	48 c7 85 00 f8 ff ff 	movq   $0x0,-0x800(%rbp)
    b719:	00 00 00 00 
    b71d:	48 8d 85 70 f3 ff ff 	lea    -0xc90(%rbp),%rax
    b724:	48 89 85 08 f8 ff ff 	mov    %rax,-0x7f8(%rbp)
    b72b:	48 8d 85 70 f3 ff ff 	lea    -0xc90(%rbp),%rax
    b732:	48 89 85 10 f8 ff ff 	mov    %rax,-0x7f0(%rbp)
    b739:	48 8d 85 a0 f4 ff ff 	lea    -0xb60(%rbp),%rax
    b740:	48 8d 15 39 d7 00 00 	lea    0xd739(%rip),%rdx        # 18e80 <g_3326+0x7ec>
    b747:	b9 24 00 00 00       	mov    $0x24,%ecx
    b74c:	48 89 c7             	mov    %rax,%rdi
    b74f:	48 89 d6             	mov    %rdx,%rsi
    b752:	f3 48 a5             	rep movsq %ds:(%rsi),%es:(%rdi)
    b755:	c7 85 60 f3 ff ff ff 	movl   $0xffffffff,-0xca0(%rbp)
    b75c:	ff ff ff 
    b75f:	66 c7 85 5e f3 ff ff 	movw   $0x5,-0xca2(%rbp)
    b766:	05 00 
    b768:	0f b6 05 01 c9 00 00 	movzbl 0xc901(%rip),%eax        # 18070 <g_49>
    b76f:	44 0f b6 e0          	movzbl %al,%r12d
    b773:	0f b6 05 f9 cb 00 00 	movzbl 0xcbf9(%rip),%eax        # 18373 <g_2386+0x13>
    b77a:	0f be d8             	movsbl %al,%ebx
    b77d:	0f b6 85 e2 f3 ff ff 	movzbl -0xc1e(%rbp),%eax
    b784:	44 0f be e8          	movsbl %al,%r13d
    b788:	4c 0f be b5 4c f3 ff 	movsbq -0xcb4(%rbp),%r14
    b78f:	ff 
    b790:	4c 8d 3d 39 ca 00 00 	lea    0xca39(%rip),%r15        # 181d0 <g_929>
    b797:	8b 05 87 c8 00 00    	mov    0xc887(%rip),%eax        # 18024 <g_3>
    b79d:	48 63 f0             	movslq %eax,%rsi
    b7a0:	8b 05 9e c8 00 00    	mov    0xc89e(%rip),%eax        # 18044 <g_4+0x4>
    b7a6:	48 8b 0d cb c8 00 00 	mov    0xc8cb(%rip),%rcx        # 18078 <g_88>
    b7ad:	48 8b 95 68 f3 ff ff 	mov    -0xc98(%rbp),%rdx
    b7b4:	89 c7                	mov    %eax,%edi
    b7b6:	e8 d2 2a 00 00       	callq  e28d <func_82>
    b7bb:	48 8b 15 ae e9 00 00 	mov    0xe9ae(%rip),%rdx        # 1a170 <g_924>
    b7c2:	48 85 d2             	test   %rdx,%rdx
    b7c5:	0f 95 c2             	setne  %dl
    b7c8:	0f b6 d2             	movzbl %dl,%edx
    b7cb:	48 39 d0             	cmp    %rdx,%rax
    b7ce:	0f 93 c0             	setae  %al
    b7d1:	0f b6 c0             	movzbl %al,%eax
    b7d4:	48 8d 8d 80 f3 ff ff 	lea    -0xc80(%rbp),%rcx
    b7db:	48 8b 15 e6 c9 00 00 	mov    0xc9e6(%rip),%rdx        # 181c8 <g_927>
    b7e2:	49 89 c8             	mov    %rcx,%r8
    b7e5:	4c 89 f9             	mov    %r15,%rcx
    b7e8:	48 8d 35 d9 c8 00 00 	lea    0xc8d9(%rip),%rsi        # 180c8 <g_186>
    b7ef:	89 c7                	mov    %eax,%edi
    b7f1:	e8 5e 2a 00 00       	callq  e254 <func_76>
    b7f6:	0f b6 c0             	movzbl %al,%eax
    b7f9:	89 c7                	mov    %eax,%edi
    b7fb:	e8 30 23 00 00       	callq  db30 <func_74>
    b800:	0f b6 05 69 c8 00 00 	movzbl 0xc869(%rip),%eax        # 18070 <g_49>
    b807:	0f be c0             	movsbl %al,%eax
    b80a:	be 00 00 00 00       	mov    $0x0,%esi
    b80f:	89 c7                	mov    %eax,%edi
    b811:	e8 be d9 ff ff       	callq  91d4 <safe_add_func_int8_t_s_s>
    b816:	4c 89 f6             	mov    %r14,%rsi
    b819:	bf 01 00 00 00       	mov    $0x1,%edi
    b81e:	e8 28 e8 ff ff       	callq  a04b <safe_sub_func_uint64_t_u_u>
    b823:	48 8b 8d 68 f4 ff ff 	mov    -0xb98(%rbp),%rcx
    b82a:	48 8b 05 37 c8 00 00 	mov    0xc837(%rip),%rax        # 18068 <g_42>
    b831:	48 83 c0 01          	add    $0x1,%rax
    b835:	48 89 05 2c c8 00 00 	mov    %rax,0xc82c(%rip)        # 18068 <g_42>
    b83c:	48 8b 05 25 c8 00 00 	mov    0xc825(%rip),%rax        # 18068 <g_42>
    b843:	44 89 ea             	mov    %r13d,%edx
    b846:	48 89 ce             	mov    %rcx,%rsi
    b849:	48 89 c7             	mov    %rax,%rdi
    b84c:	e8 1b 19 00 00       	callq  d16c <func_60>
    b851:	48 89 05 80 01 01 00 	mov    %rax,0x10180(%rip)        # 1b9d8 <g_2812>
    b858:	48 8b 05 79 01 01 00 	mov    0x10179(%rip),%rax        # 1b9d8 <g_2812>
    b85f:	48 8d 95 a0 f3 ff ff 	lea    -0xc60(%rbp),%rdx
    b866:	48 83 c2 42          	add    $0x42,%rdx
    b86a:	44 89 e1             	mov    %r12d,%ecx
    b86d:	89 de                	mov    %ebx,%esi
    b86f:	48 89 c7             	mov    %rax,%rdi
    b872:	e8 3c 0f 00 00       	callq  c7b3 <func_55>
    b877:	3c 07                	cmp    $0x7,%al
    b879:	77 0d                	ja     b888 <func_38+0x7e5>
    b87b:	66 0f be 85 4c f3 ff 	movsbw -0xcb4(%rbp),%ax
    b882:	ff 
    b883:	e9 05 0f 00 00       	jmpq   c78d <func_38+0x16ea>
    b888:	48 c7 85 78 f3 ff ff 	movq   $0xfffffffffffffffa,-0xc88(%rbp)
    b88f:	fa ff ff ff 
    b893:	0f be 9d 4c f3 ff ff 	movsbl -0xcb4(%rbp),%ebx
    b89a:	44 0f be a5 4c f3 ff 	movsbl -0xcb4(%rbp),%r12d
    b8a1:	ff 
    b8a2:	44 0f be ad 4c f3 ff 	movsbl -0xcb4(%rbp),%r13d
    b8a9:	ff 
    b8aa:	0f b6 85 e2 f3 ff ff 	movzbl -0xc1e(%rbp),%eax
    b8b1:	44 0f be f0          	movsbl %al,%r14d
    b8b5:	44 0f be bd 4c f3 ff 	movsbl -0xcb4(%rbp),%r15d
    b8bc:	ff 
    b8bd:	66 0f be 85 4c f3 ff 	movsbw -0xcb4(%rbp),%ax
    b8c4:	ff 
    b8c5:	66 89 85 4a f3 ff ff 	mov    %ax,-0xcb6(%rbp)
    b8cc:	48 c7 85 10 f5 ff ff 	movq   $0x0,-0xaf0(%rbp)
    b8d3:	00 00 00 00 
    b8d7:	48 8b 85 68 f3 ff ff 	mov    -0xc98(%rbp),%rax
    b8de:	0f be f0             	movsbl %al,%esi
    b8e1:	89 b5 3c f3 ff ff    	mov    %esi,-0xcc4(%rbp)
    b8e7:	bf 09 00 00 00       	mov    $0x9,%edi
    b8ec:	e8 ac da ff ff       	callq  939d <safe_unary_minus_func_int16_t_s>
    b8f1:	0f bf d0             	movswl %ax,%edx
    b8f4:	48 8b 05 2d e9 00 00 	mov    0xe92d(%rip),%rax        # 1a228 <g_1638>
    b8fb:	48 8b 00             	mov    (%rax),%rax
    b8fe:	48 8b 00             	mov    (%rax),%rax
    b901:	0f b7 00             	movzwl (%rax),%eax
    b904:	0f b7 c0             	movzwl %ax,%eax
    b907:	39 c2                	cmp    %eax,%edx
    b909:	0f 9d c0             	setge  %al
    b90c:	0f b6 c0             	movzbl %al,%eax
    b90f:	8b b5 3c f3 ff ff    	mov    -0xcc4(%rbp),%esi
    b915:	89 c7                	mov    %eax,%edi
    b917:	e8 f6 d8 ff ff       	callq  9212 <safe_mul_func_int8_t_s_s>
    b91c:	be 00 00 00 00       	mov    $0x0,%esi
    b921:	bf d3 ff ff ff       	mov    $0xffffffd3,%edi
    b926:	e8 e7 d8 ff ff       	callq  9212 <safe_mul_func_int8_t_s_s>
    b92b:	66 98                	cbtw   
    b92d:	66 35 82 54          	xor    $0x5482,%ax
    b931:	66 0b 85 4a f3 ff ff 	or     -0xcb6(%rbp),%ax
    b938:	0f bf d0             	movswl %ax,%edx
    b93b:	48 8b 05 0e f3 00 00 	mov    0xf30e(%rip),%rax        # 1ac50 <g_2162>
    b942:	48 8b 00             	mov    (%rax),%rax
    b945:	48 8b 00             	mov    (%rax),%rax
    b948:	0f b7 00             	movzwl (%rax),%eax
    b94b:	98                   	cwtl   
    b94c:	89 d6                	mov    %edx,%esi
    b94e:	89 c7                	mov    %eax,%edi
    b950:	e8 a0 da ff ff       	callq  93f5 <safe_mul_func_int16_t_s_s>
    b955:	98                   	cwtl   
    b956:	44 89 fe             	mov    %r15d,%esi
    b959:	89 c7                	mov    %eax,%edi
    b95b:	e8 c5 e5 ff ff       	callq  9f25 <safe_div_func_uint32_t_u_u>
    b960:	44 89 f6             	mov    %r14d,%esi
    b963:	89 c7                	mov    %eax,%edi
    b965:	e8 4c dc ff ff       	callq  95b6 <safe_add_func_int32_t_s_s>
    b96a:	89 c2                	mov    %eax,%edx
    b96c:	8b 85 68 f3 ff ff    	mov    -0xc98(%rbp),%eax
    b972:	39 c2                	cmp    %eax,%edx
    b974:	0f 96 c0             	setbe  %al
    b977:	0f b6 d0             	movzbl %al,%edx
    b97a:	0f bf 85 5c f3 ff ff 	movswl -0xca4(%rbp),%eax
    b981:	09 d0                	or     %edx,%eax
    b983:	48 63 d0             	movslq %eax,%rdx
    b986:	48 8b 05 d3 cc 00 00 	mov    0xccd3(%rip),%rax        # 18660 <g_3154>
    b98d:	48 31 c2             	xor    %rax,%rdx
    b990:	48 0f be 85 4c f3 ff 	movsbq -0xcb4(%rbp),%rax
    b997:	ff 
    b998:	48 39 c2             	cmp    %rax,%rdx
    b99b:	0f 96 c0             	setbe  %al
    b99e:	0f b6 c0             	movzbl %al,%eax
    b9a1:	33 85 60 f3 ff ff    	xor    -0xca0(%rbp),%eax
    b9a7:	83 f8 2f             	cmp    $0x2f,%eax
    b9aa:	0f 9f c0             	setg   %al
    b9ad:	0f b6 c0             	movzbl %al,%eax
    b9b0:	44 89 ee             	mov    %r13d,%esi
    b9b3:	89 c7                	mov    %eax,%edi
    b9b5:	e8 43 e5 ff ff       	callq  9efd <safe_mod_func_uint32_t_u_u>
    b9ba:	0f be c0             	movsbl %al,%eax
    b9bd:	44 89 e6             	mov    %r12d,%esi
    b9c0:	89 c7                	mov    %eax,%edi
    b9c2:	e8 6e d9 ff ff       	callq  9335 <safe_rshift_func_int8_t_s_s>
    b9c7:	0f b6 c0             	movzbl %al,%eax
    b9ca:	89 de                	mov    %ebx,%esi
    b9cc:	89 c7                	mov    %eax,%edi
    b9ce:	e8 ba e2 ff ff       	callq  9c8d <safe_rshift_func_uint8_t_u_s>
    b9d3:	84 c0                	test   %al,%al
    b9d5:	74 6f                	je     ba46 <func_38+0x9a3>
    b9d7:	c7 85 64 f3 ff ff 01 	movl   $0x1,-0xc9c(%rbp)
    b9de:	00 00 00 
    b9e1:	0f b7 85 5e f3 ff ff 	movzwl -0xca2(%rbp),%eax
    b9e8:	33 85 64 f3 ff ff    	xor    -0xc9c(%rbp),%eax
    b9ee:	89 c3                	mov    %eax,%ebx
    b9f0:	48 0f be 85 4c f3 ff 	movsbq -0xcb4(%rbp),%rax
    b9f7:	ff 
    b9f8:	48 be 22 2b ca 30 c9 	movabs $0x187270c930ca2b22,%rsi
    b9ff:	70 72 18 
    ba02:	48 89 c7             	mov    %rax,%rdi
    ba05:	e8 a5 e6 ff ff       	callq  a0af <safe_div_func_uint64_t_u_u>
    ba0a:	48 39 c3             	cmp    %rax,%rbx
    ba0d:	0f 96 c0             	setbe  %al
    ba10:	0f b6 c0             	movzbl %al,%eax
    ba13:	89 85 78 f3 ff ff    	mov    %eax,-0xc88(%rbp)
    ba19:	48 c7 85 68 f3 ff ff 	movq   $0x0,-0xc98(%rbp)
    ba20:	00 00 00 00 
    ba24:	90                   	nop
    ba25:	48 8b 85 68 f3 ff ff 	mov    -0xc98(%rbp),%rax
    ba2c:	48 83 f8 e7          	cmp    $0xffffffffffffffe7,%rax
    ba30:	0f 84 4d 0d 00 00    	je     c783 <func_38+0x16e0>
    ba36:	8b 85 78 f3 ff ff    	mov    -0xc88(%rbp),%eax
    ba3c:	25 ff ff 1f 00       	and    $0x1fffff,%eax
    ba41:	e9 47 0d 00 00       	jmpq   c78d <func_38+0x16ea>
    ba46:	48 8d 05 d7 c5 00 00 	lea    0xc5d7(%rip),%rax        # 18024 <g_3>
    ba4d:	48 89 85 20 f8 ff ff 	mov    %rax,-0x7e0(%rbp)
    ba54:	48 8d 85 68 f3 ff ff 	lea    -0xc98(%rbp),%rax
    ba5b:	48 89 85 28 f8 ff ff 	mov    %rax,-0x7d8(%rbp)
    ba62:	48 8d 85 68 f3 ff ff 	lea    -0xc98(%rbp),%rax
    ba69:	48 89 85 30 f8 ff ff 	mov    %rax,-0x7d0(%rbp)
    ba70:	48 8d 05 55 c6 00 00 	lea    0xc655(%rip),%rax        # 180cc <g_189>
    ba77:	48 89 85 38 f8 ff ff 	mov    %rax,-0x7c8(%rbp)
    ba7e:	48 8d 05 d3 c5 00 00 	lea    0xc5d3(%rip),%rax        # 18058 <g_4+0x18>
    ba85:	48 89 85 40 f8 ff ff 	mov    %rax,-0x7c0(%rbp)
    ba8c:	48 8d 05 39 c6 00 00 	lea    0xc639(%rip),%rax        # 180cc <g_189>
    ba93:	48 89 85 48 f8 ff ff 	mov    %rax,-0x7b8(%rbp)
    ba9a:	48 8d 85 68 f3 ff ff 	lea    -0xc98(%rbp),%rax
    baa1:	48 89 85 50 f8 ff ff 	mov    %rax,-0x7b0(%rbp)
    baa8:	48 8d 85 80 f3 ff ff 	lea    -0xc80(%rbp),%rax
    baaf:	48 89 85 58 f8 ff ff 	mov    %rax,-0x7a8(%rbp)
    bab6:	48 8d 85 80 f3 ff ff 	lea    -0xc80(%rbp),%rax
    babd:	48 89 85 60 f8 ff ff 	mov    %rax,-0x7a0(%rbp)
    bac4:	48 8d 05 ed c5 00 00 	lea    0xc5ed(%rip),%rax        # 180b8 <g_113>
    bacb:	48 89 85 68 f8 ff ff 	mov    %rax,-0x798(%rbp)
    bad2:	48 8d 05 df c5 00 00 	lea    0xc5df(%rip),%rax        # 180b8 <g_113>
    bad9:	48 89 85 70 f8 ff ff 	mov    %rax,-0x790(%rbp)
    bae0:	48 8d 85 68 f3 ff ff 	lea    -0xc98(%rbp),%rax
    bae7:	48 89 85 78 f8 ff ff 	mov    %rax,-0x788(%rbp)
    baee:	48 c7 85 80 f8 ff ff 	movq   $0x0,-0x780(%rbp)
    baf5:	00 00 00 00 
    baf9:	48 8d 05 b8 c5 00 00 	lea    0xc5b8(%rip),%rax        # 180b8 <g_113>
    bb00:	48 89 85 88 f8 ff ff 	mov    %rax,-0x778(%rbp)
    bb07:	48 8d 05 aa c5 00 00 	lea    0xc5aa(%rip),%rax        # 180b8 <g_113>
    bb0e:	48 89 85 90 f8 ff ff 	mov    %rax,-0x770(%rbp)
    bb15:	48 8d 05 b0 c5 00 00 	lea    0xc5b0(%rip),%rax        # 180cc <g_189>
    bb1c:	48 89 85 98 f8 ff ff 	mov    %rax,-0x768(%rbp)
    bb23:	48 8d 05 fa c4 00 00 	lea    0xc4fa(%rip),%rax        # 18024 <g_3>
    bb2a:	48 89 85 a0 f8 ff ff 	mov    %rax,-0x760(%rbp)
    bb31:	48 8d 05 94 c5 00 00 	lea    0xc594(%rip),%rax        # 180cc <g_189>
    bb38:	48 89 85 a8 f8 ff ff 	mov    %rax,-0x758(%rbp)
    bb3f:	48 8d 05 86 c5 00 00 	lea    0xc586(%rip),%rax        # 180cc <g_189>
    bb46:	48 89 85 b0 f8 ff ff 	mov    %rax,-0x750(%rbp)
    bb4d:	48 8d 05 d0 c4 00 00 	lea    0xc4d0(%rip),%rax        # 18024 <g_3>
    bb54:	48 89 85 b8 f8 ff ff 	mov    %rax,-0x748(%rbp)
    bb5b:	48 8d 05 f6 c4 00 00 	lea    0xc4f6(%rip),%rax        # 18058 <g_4+0x18>
    bb62:	48 89 85 c0 f8 ff ff 	mov    %rax,-0x740(%rbp)
    bb69:	48 8d 05 b4 c4 00 00 	lea    0xc4b4(%rip),%rax        # 18024 <g_3>
    bb70:	48 89 85 c8 f8 ff ff 	mov    %rax,-0x738(%rbp)
    bb77:	48 8d 05 4e c5 00 00 	lea    0xc54e(%rip),%rax        # 180cc <g_189>
    bb7e:	48 89 85 d0 f8 ff ff 	mov    %rax,-0x730(%rbp)
    bb85:	48 8d 85 68 f3 ff ff 	lea    -0xc98(%rbp),%rax
    bb8c:	48 89 85 d8 f8 ff ff 	mov    %rax,-0x728(%rbp)
    bb93:	48 8d 05 2e c5 00 00 	lea    0xc52e(%rip),%rax        # 180c8 <g_186>
    bb9a:	48 89 85 e0 f8 ff ff 	mov    %rax,-0x720(%rbp)
    bba1:	48 8d 85 68 f3 ff ff 	lea    -0xc98(%rbp),%rax
    bba8:	48 89 85 e8 f8 ff ff 	mov    %rax,-0x718(%rbp)
    bbaf:	48 8d 05 6e c4 00 00 	lea    0xc46e(%rip),%rax        # 18024 <g_3>
    bbb6:	48 89 85 f0 f8 ff ff 	mov    %rax,-0x710(%rbp)
    bbbd:	48 8d 05 04 c5 00 00 	lea    0xc504(%rip),%rax        # 180c8 <g_186>
    bbc4:	48 89 85 f8 f8 ff ff 	mov    %rax,-0x708(%rbp)
    bbcb:	48 8d 05 e6 c4 00 00 	lea    0xc4e6(%rip),%rax        # 180b8 <g_113>
    bbd2:	48 89 85 00 f9 ff ff 	mov    %rax,-0x700(%rbp)
    bbd9:	48 8d 05 98 c4 00 00 	lea    0xc498(%rip),%rax        # 18078 <g_88>
    bbe0:	48 89 85 08 f9 ff ff 	mov    %rax,-0x6f8(%rbp)
    bbe7:	48 8d 05 ea c5 00 00 	lea    0xc5ea(%rip),%rax        # 181d8 <g_1129>
    bbee:	48 89 85 10 f9 ff ff 	mov    %rax,-0x6f0(%rbp)
    bbf5:	48 8d 05 28 c4 00 00 	lea    0xc428(%rip),%rax        # 18024 <g_3>
    bbfc:	48 89 85 18 f9 ff ff 	mov    %rax,-0x6e8(%rbp)
    bc03:	48 8d 05 4e c4 00 00 	lea    0xc44e(%rip),%rax        # 18058 <g_4+0x18>
    bc0a:	48 89 85 20 f9 ff ff 	mov    %rax,-0x6e0(%rbp)
    bc11:	48 8d 05 30 c4 00 00 	lea    0xc430(%rip),%rax        # 18048 <g_4+0x8>
    bc18:	48 89 85 28 f9 ff ff 	mov    %rax,-0x6d8(%rbp)
    bc1f:	48 8d 05 92 c4 00 00 	lea    0xc492(%rip),%rax        # 180b8 <g_113>
    bc26:	48 89 85 30 f9 ff ff 	mov    %rax,-0x6d0(%rbp)
    bc2d:	48 8d 85 80 f3 ff ff 	lea    -0xc80(%rbp),%rax
    bc34:	48 89 85 38 f9 ff ff 	mov    %rax,-0x6c8(%rbp)
    bc3b:	48 8d 05 e2 c3 00 00 	lea    0xc3e2(%rip),%rax        # 18024 <g_3>
    bc42:	48 89 85 40 f9 ff ff 	mov    %rax,-0x6c0(%rbp)
    bc49:	48 8d 05 d4 c3 00 00 	lea    0xc3d4(%rip),%rax        # 18024 <g_3>
    bc50:	48 89 85 48 f9 ff ff 	mov    %rax,-0x6b8(%rbp)
    bc57:	48 8d 05 c6 c3 00 00 	lea    0xc3c6(%rip),%rax        # 18024 <g_3>
    bc5e:	48 89 85 50 f9 ff ff 	mov    %rax,-0x6b0(%rbp)
    bc65:	48 8d 05 b8 c3 00 00 	lea    0xc3b8(%rip),%rax        # 18024 <g_3>
    bc6c:	48 89 85 58 f9 ff ff 	mov    %rax,-0x6a8(%rbp)
    bc73:	48 8d 05 aa c3 00 00 	lea    0xc3aa(%rip),%rax        # 18024 <g_3>
    bc7a:	48 89 85 60 f9 ff ff 	mov    %rax,-0x6a0(%rbp)
    bc81:	48 8d 85 80 f3 ff ff 	lea    -0xc80(%rbp),%rax
    bc88:	48 89 85 68 f9 ff ff 	mov    %rax,-0x698(%rbp)
    bc8f:	48 8d 05 8e c3 00 00 	lea    0xc38e(%rip),%rax        # 18024 <g_3>
    bc96:	48 89 85 70 f9 ff ff 	mov    %rax,-0x690(%rbp)
    bc9d:	48 8d 85 78 f3 ff ff 	lea    -0xc88(%rbp),%rax
    bca4:	48 89 85 78 f9 ff ff 	mov    %rax,-0x688(%rbp)
    bcab:	48 8d 05 72 c3 00 00 	lea    0xc372(%rip),%rax        # 18024 <g_3>
    bcb2:	48 89 85 80 f9 ff ff 	mov    %rax,-0x680(%rbp)
    bcb9:	48 8d 05 08 c4 00 00 	lea    0xc408(%rip),%rax        # 180c8 <g_186>
    bcc0:	48 89 85 88 f9 ff ff 	mov    %rax,-0x678(%rbp)
    bcc7:	48 8d 85 80 f3 ff ff 	lea    -0xc80(%rbp),%rax
    bcce:	48 89 85 90 f9 ff ff 	mov    %rax,-0x670(%rbp)
    bcd5:	48 8d 05 48 c3 00 00 	lea    0xc348(%rip),%rax        # 18024 <g_3>
    bcdc:	48 89 85 98 f9 ff ff 	mov    %rax,-0x668(%rbp)
    bce3:	48 c7 85 a0 f9 ff ff 	movq   $0x0,-0x660(%rbp)
    bcea:	00 00 00 00 
    bcee:	48 8d 05 eb c3 00 00 	lea    0xc3eb(%rip),%rax        # 180e0 <g_255>
    bcf5:	48 89 85 a8 f9 ff ff 	mov    %rax,-0x658(%rbp)
    bcfc:	48 8d 05 21 c3 00 00 	lea    0xc321(%rip),%rax        # 18024 <g_3>
    bd03:	48 89 85 b0 f9 ff ff 	mov    %rax,-0x650(%rbp)
    bd0a:	48 8d 05 13 c3 00 00 	lea    0xc313(%rip),%rax        # 18024 <g_3>
    bd11:	48 89 85 b8 f9 ff ff 	mov    %rax,-0x648(%rbp)
    bd18:	48 8d 05 c1 c3 00 00 	lea    0xc3c1(%rip),%rax        # 180e0 <g_255>
    bd1f:	48 89 85 c0 f9 ff ff 	mov    %rax,-0x640(%rbp)
    bd26:	48 8d 05 9f c3 00 00 	lea    0xc39f(%rip),%rax        # 180cc <g_189>
    bd2d:	48 89 85 c8 f9 ff ff 	mov    %rax,-0x638(%rbp)
    bd34:	48 8d 05 91 c3 00 00 	lea    0xc391(%rip),%rax        # 180cc <g_189>
    bd3b:	48 89 85 d0 f9 ff ff 	mov    %rax,-0x630(%rbp)
    bd42:	48 8d 85 68 f3 ff ff 	lea    -0xc98(%rbp),%rax
    bd49:	48 89 85 d8 f9 ff ff 	mov    %rax,-0x628(%rbp)
    bd50:	48 8d 05 71 c4 00 00 	lea    0xc471(%rip),%rax        # 181c8 <g_927>
    bd57:	48 89 85 e0 f9 ff ff 	mov    %rax,-0x620(%rbp)
    bd5e:	48 8d 05 e3 c2 00 00 	lea    0xc2e3(%rip),%rax        # 18048 <g_4+0x8>
    bd65:	48 89 85 e8 f9 ff ff 	mov    %rax,-0x618(%rbp)
    bd6c:	48 8d 05 65 c4 00 00 	lea    0xc465(%rip),%rax        # 181d8 <g_1129>
    bd73:	48 89 85 f0 f9 ff ff 	mov    %rax,-0x610(%rbp)
    bd7a:	48 8d 05 4b c3 00 00 	lea    0xc34b(%rip),%rax        # 180cc <g_189>
    bd81:	48 89 85 f8 f9 ff ff 	mov    %rax,-0x608(%rbp)
    bd88:	48 8d 05 b5 c2 00 00 	lea    0xc2b5(%rip),%rax        # 18044 <g_4+0x4>
    bd8f:	48 89 85 00 fa ff ff 	mov    %rax,-0x600(%rbp)
    bd96:	48 8d 05 3b c4 00 00 	lea    0xc43b(%rip),%rax        # 181d8 <g_1129>
    bd9d:	48 89 85 08 fa ff ff 	mov    %rax,-0x5f8(%rbp)
    bda4:	48 8d 05 79 c2 00 00 	lea    0xc279(%rip),%rax        # 18024 <g_3>
    bdab:	48 89 85 10 fa ff ff 	mov    %rax,-0x5f0(%rbp)
    bdb2:	48 8d 05 8b c2 00 00 	lea    0xc28b(%rip),%rax        # 18044 <g_4+0x4>
    bdb9:	48 89 85 18 fa ff ff 	mov    %rax,-0x5e8(%rbp)
    bdc0:	48 8d 05 01 c4 00 00 	lea    0xc401(%rip),%rax        # 181c8 <g_927>
    bdc7:	48 89 85 20 fa ff ff 	mov    %rax,-0x5e0(%rbp)
    bdce:	48 8d 05 4f c2 00 00 	lea    0xc24f(%rip),%rax        # 18024 <g_3>
    bdd5:	48 89 85 28 fa ff ff 	mov    %rax,-0x5d8(%rbp)
    bddc:	48 8d 05 d5 c2 00 00 	lea    0xc2d5(%rip),%rax        # 180b8 <g_113>
    bde3:	48 89 85 30 fa ff ff 	mov    %rax,-0x5d0(%rbp)
    bdea:	48 8d 05 33 c2 00 00 	lea    0xc233(%rip),%rax        # 18024 <g_3>
    bdf1:	48 89 85 38 fa ff ff 	mov    %rax,-0x5c8(%rbp)
    bdf8:	48 c7 85 40 fa ff ff 	movq   $0x0,-0x5c0(%rbp)
    bdff:	00 00 00 00 
    be03:	48 c7 85 48 fa ff ff 	movq   $0x0,-0x5b8(%rbp)
    be0a:	00 00 00 00 
    be0e:	48 8d 05 0f c2 00 00 	lea    0xc20f(%rip),%rax        # 18024 <g_3>
    be15:	48 89 85 50 fa ff ff 	mov    %rax,-0x5b0(%rbp)
    be1c:	48 8d 05 a5 c3 00 00 	lea    0xc3a5(%rip),%rax        # 181c8 <g_927>
    be23:	48 89 85 58 fa ff ff 	mov    %rax,-0x5a8(%rbp)
    be2a:	48 8d 85 78 f3 ff ff 	lea    -0xc88(%rbp),%rax
    be31:	48 89 85 60 fa ff ff 	mov    %rax,-0x5a0(%rbp)
    be38:	48 8d 05 89 c3 00 00 	lea    0xc389(%rip),%rax        # 181c8 <g_927>
    be3f:	48 89 85 68 fa ff ff 	mov    %rax,-0x598(%rbp)
    be46:	48 8d 05 d7 c1 00 00 	lea    0xc1d7(%rip),%rax        # 18024 <g_3>
    be4d:	48 89 85 70 fa ff ff 	mov    %rax,-0x590(%rbp)
    be54:	48 8d 05 71 c2 00 00 	lea    0xc271(%rip),%rax        # 180cc <g_189>
    be5b:	48 89 85 78 fa ff ff 	mov    %rax,-0x588(%rbp)
    be62:	48 8d 05 bb c1 00 00 	lea    0xc1bb(%rip),%rax        # 18024 <g_3>
    be69:	48 89 85 80 fa ff ff 	mov    %rax,-0x580(%rbp)
    be70:	48 8d 85 80 f3 ff ff 	lea    -0xc80(%rbp),%rax
    be77:	48 83 c0 0c          	add    $0xc,%rax
    be7b:	48 89 85 88 fa ff ff 	mov    %rax,-0x578(%rbp)
    be82:	48 8d 05 bf c1 00 00 	lea    0xc1bf(%rip),%rax        # 18048 <g_4+0x8>
    be89:	48 89 85 90 fa ff ff 	mov    %rax,-0x570(%rbp)
    be90:	48 8d 85 80 f3 ff ff 	lea    -0xc80(%rbp),%rax
    be97:	48 89 85 98 fa ff ff 	mov    %rax,-0x568(%rbp)
    be9e:	48 8d 05 7f c1 00 00 	lea    0xc17f(%rip),%rax        # 18024 <g_3>
    bea5:	48 89 85 a0 fa ff ff 	mov    %rax,-0x560(%rbp)
    beac:	48 c7 85 a8 fa ff ff 	movq   $0x0,-0x558(%rbp)
    beb3:	00 00 00 00 
    beb7:	48 8d 05 fa c1 00 00 	lea    0xc1fa(%rip),%rax        # 180b8 <g_113>
    bebe:	48 89 85 b0 fa ff ff 	mov    %rax,-0x550(%rbp)
    bec5:	48 8d 05 fc c2 00 00 	lea    0xc2fc(%rip),%rax        # 181c8 <g_927>
    becc:	48 89 85 b8 fa ff ff 	mov    %rax,-0x548(%rbp)
    bed3:	48 c7 85 c0 fa ff ff 	movq   $0x0,-0x540(%rbp)
    beda:	00 00 00 00 
    bede:	48 8d 05 3f c1 00 00 	lea    0xc13f(%rip),%rax        # 18024 <g_3>
    bee5:	48 89 85 c8 fa ff ff 	mov    %rax,-0x538(%rbp)
    beec:	48 8d 85 78 f3 ff ff 	lea    -0xc88(%rbp),%rax
    bef3:	48 89 85 d0 fa ff ff 	mov    %rax,-0x530(%rbp)
    befa:	48 8d 05 43 c1 00 00 	lea    0xc143(%rip),%rax        # 18044 <g_4+0x4>
    bf01:	48 89 85 d8 fa ff ff 	mov    %rax,-0x528(%rbp)
    bf08:	48 8d 05 15 c1 00 00 	lea    0xc115(%rip),%rax        # 18024 <g_3>
    bf0f:	48 89 85 e0 fa ff ff 	mov    %rax,-0x520(%rbp)
    bf16:	48 c7 85 e8 fa ff ff 	movq   $0x0,-0x518(%rbp)
    bf1d:	00 00 00 00 
    bf21:	48 8d 05 b0 c2 00 00 	lea    0xc2b0(%rip),%rax        # 181d8 <g_1129>
    bf28:	48 89 85 f0 fa ff ff 	mov    %rax,-0x510(%rbp)
    bf2f:	48 8d 85 80 f3 ff ff 	lea    -0xc80(%rbp),%rax
    bf36:	48 83 c0 0c          	add    $0xc,%rax
    bf3a:	48 89 85 f8 fa ff ff 	mov    %rax,-0x508(%rbp)
    bf41:	48 8d 05 dc c0 00 00 	lea    0xc0dc(%rip),%rax        # 18024 <g_3>
    bf48:	48 89 85 00 fb ff ff 	mov    %rax,-0x500(%rbp)
    bf4f:	48 8d 85 80 f3 ff ff 	lea    -0xc80(%rbp),%rax
    bf56:	48 89 85 08 fb ff ff 	mov    %rax,-0x4f8(%rbp)
    bf5d:	48 8d 05 7c c1 00 00 	lea    0xc17c(%rip),%rax        # 180e0 <g_255>
    bf64:	48 89 85 10 fb ff ff 	mov    %rax,-0x4f0(%rbp)
    bf6b:	48 8d 05 b2 c0 00 00 	lea    0xc0b2(%rip),%rax        # 18024 <g_3>
    bf72:	48 89 85 18 fb ff ff 	mov    %rax,-0x4e8(%rbp)
    bf79:	48 8d 05 38 c1 00 00 	lea    0xc138(%rip),%rax        # 180b8 <g_113>
    bf80:	48 89 85 20 fb ff ff 	mov    %rax,-0x4e0(%rbp)
    bf87:	48 8d 05 96 c0 00 00 	lea    0xc096(%rip),%rax        # 18024 <g_3>
    bf8e:	48 89 85 28 fb ff ff 	mov    %rax,-0x4d8(%rbp)
    bf95:	48 8d 05 88 c0 00 00 	lea    0xc088(%rip),%rax        # 18024 <g_3>
    bf9c:	48 89 85 30 fb ff ff 	mov    %rax,-0x4d0(%rbp)
    bfa3:	48 8d 85 78 f3 ff ff 	lea    -0xc88(%rbp),%rax
    bfaa:	48 89 85 38 fb ff ff 	mov    %rax,-0x4c8(%rbp)
    bfb1:	48 8d 85 80 f3 ff ff 	lea    -0xc80(%rbp),%rax
    bfb8:	48 89 85 40 fb ff ff 	mov    %rax,-0x4c0(%rbp)
    bfbf:	48 8d 05 5e c0 00 00 	lea    0xc05e(%rip),%rax        # 18024 <g_3>
    bfc6:	48 89 85 48 fb ff ff 	mov    %rax,-0x4b8(%rbp)
    bfcd:	48 8d 05 74 c0 00 00 	lea    0xc074(%rip),%rax        # 18048 <g_4+0x8>
    bfd4:	48 89 85 50 fb ff ff 	mov    %rax,-0x4b0(%rbp)
    bfdb:	48 8d 05 66 c0 00 00 	lea    0xc066(%rip),%rax        # 18048 <g_4+0x8>
    bfe2:	48 89 85 58 fb ff ff 	mov    %rax,-0x4a8(%rbp)
    bfe9:	48 8d 05 34 c0 00 00 	lea    0xc034(%rip),%rax        # 18024 <g_3>
    bff0:	48 89 85 60 fb ff ff 	mov    %rax,-0x4a0(%rbp)
    bff7:	48 8d 05 46 c0 00 00 	lea    0xc046(%rip),%rax        # 18044 <g_4+0x4>
    bffe:	48 89 85 68 fb ff ff 	mov    %rax,-0x498(%rbp)
    c005:	48 8d 05 bc c0 00 00 	lea    0xc0bc(%rip),%rax        # 180c8 <g_186>
    c00c:	48 89 85 70 fb ff ff 	mov    %rax,-0x490(%rbp)
    c013:	48 8d 05 2a c0 00 00 	lea    0xc02a(%rip),%rax        # 18044 <g_4+0x4>
    c01a:	48 89 85 78 fb ff ff 	mov    %rax,-0x488(%rbp)
    c021:	48 c7 85 80 fb ff ff 	movq   $0x0,-0x480(%rbp)
    c028:	00 00 00 00 
    c02c:	48 8d 05 f1 bf 00 00 	lea    0xbff1(%rip),%rax        # 18024 <g_3>
    c033:	48 89 85 88 fb ff ff 	mov    %rax,-0x478(%rbp)
    c03a:	48 8d 05 e3 bf 00 00 	lea    0xbfe3(%rip),%rax        # 18024 <g_3>
    c041:	48 89 85 90 fb ff ff 	mov    %rax,-0x470(%rbp)
    c048:	48 8d 05 89 c1 00 00 	lea    0xc189(%rip),%rax        # 181d8 <g_1129>
    c04f:	48 89 85 98 fb ff ff 	mov    %rax,-0x468(%rbp)
    c056:	48 8d 05 6b c1 00 00 	lea    0xc16b(%rip),%rax        # 181c8 <g_927>
    c05d:	48 89 85 a0 fb ff ff 	mov    %rax,-0x460(%rbp)
    c064:	48 8d 05 75 c0 00 00 	lea    0xc075(%rip),%rax        # 180e0 <g_255>
    c06b:	48 89 85 a8 fb ff ff 	mov    %rax,-0x458(%rbp)
    c072:	48 8d 05 3f c0 00 00 	lea    0xc03f(%rip),%rax        # 180b8 <g_113>
    c079:	48 89 85 b0 fb ff ff 	mov    %rax,-0x450(%rbp)
    c080:	48 8d 85 68 f3 ff ff 	lea    -0xc98(%rbp),%rax
    c087:	48 89 85 b8 fb ff ff 	mov    %rax,-0x448(%rbp)
    c08e:	48 8d 05 8f bf 00 00 	lea    0xbf8f(%rip),%rax        # 18024 <g_3>
    c095:	48 89 85 c0 fb ff ff 	mov    %rax,-0x440(%rbp)
    c09c:	48 8d 85 80 f3 ff ff 	lea    -0xc80(%rbp),%rax
    c0a3:	48 89 85 c8 fb ff ff 	mov    %rax,-0x438(%rbp)
    c0aa:	48 8d 05 17 c1 00 00 	lea    0xc117(%rip),%rax        # 181c8 <g_927>
    c0b1:	48 89 85 d0 fb ff ff 	mov    %rax,-0x430(%rbp)
    c0b8:	48 8d 05 21 c0 00 00 	lea    0xc021(%rip),%rax        # 180e0 <g_255>
    c0bf:	48 89 85 d8 fb ff ff 	mov    %rax,-0x428(%rbp)
    c0c6:	48 8d 05 eb bf 00 00 	lea    0xbfeb(%rip),%rax        # 180b8 <g_113>
    c0cd:	48 89 85 e0 fb ff ff 	mov    %rax,-0x420(%rbp)
    c0d4:	48 8d 05 fd c0 00 00 	lea    0xc0fd(%rip),%rax        # 181d8 <g_1129>
    c0db:	48 89 85 e8 fb ff ff 	mov    %rax,-0x418(%rbp)
    c0e2:	48 8d 05 3b bf 00 00 	lea    0xbf3b(%rip),%rax        # 18024 <g_3>
    c0e9:	48 89 85 f0 fb ff ff 	mov    %rax,-0x410(%rbp)
    c0f0:	48 c7 85 f8 fb ff ff 	movq   $0x0,-0x408(%rbp)
    c0f7:	00 00 00 00 
    c0fb:	48 8d 05 22 bf 00 00 	lea    0xbf22(%rip),%rax        # 18024 <g_3>
    c102:	48 89 85 00 fc ff ff 	mov    %rax,-0x400(%rbp)
    c109:	48 8d 05 14 bf 00 00 	lea    0xbf14(%rip),%rax        # 18024 <g_3>
    c110:	48 89 85 08 fc ff ff 	mov    %rax,-0x3f8(%rbp)
    c117:	48 8d 85 78 f3 ff ff 	lea    -0xc88(%rbp),%rax
    c11e:	48 89 85 10 fc ff ff 	mov    %rax,-0x3f0(%rbp)
    c125:	48 8d 05 f8 be 00 00 	lea    0xbef8(%rip),%rax        # 18024 <g_3>
    c12c:	48 89 85 18 fc ff ff 	mov    %rax,-0x3e8(%rbp)
    c133:	48 c7 85 20 fc ff ff 	movq   $0x0,-0x3e0(%rbp)
    c13a:	00 00 00 00 
    c13e:	48 8d 85 78 f3 ff ff 	lea    -0xc88(%rbp),%rax
    c145:	48 89 85 28 fc ff ff 	mov    %rax,-0x3d8(%rbp)
    c14c:	48 8d 05 79 bf 00 00 	lea    0xbf79(%rip),%rax        # 180cc <g_189>
    c153:	48 89 85 30 fc ff ff 	mov    %rax,-0x3d0(%rbp)
    c15a:	48 8d 05 e7 be 00 00 	lea    0xbee7(%rip),%rax        # 18048 <g_4+0x8>
    c161:	48 89 85 38 fc ff ff 	mov    %rax,-0x3c8(%rbp)
    c168:	48 c7 85 40 fc ff ff 	movq   $0x0,-0x3c0(%rbp)
    c16f:	00 00 00 00 
    c173:	48 8d 05 4e c0 00 00 	lea    0xc04e(%rip),%rax        # 181c8 <g_927>
    c17a:	48 89 85 48 fc ff ff 	mov    %rax,-0x3b8(%rbp)
    c181:	48 8d 05 9c be 00 00 	lea    0xbe9c(%rip),%rax        # 18024 <g_3>
    c188:	48 89 85 50 fc ff ff 	mov    %rax,-0x3b0(%rbp)
    c18f:	48 8d 05 22 bf 00 00 	lea    0xbf22(%rip),%rax        # 180b8 <g_113>
    c196:	48 89 85 58 fc ff ff 	mov    %rax,-0x3a8(%rbp)
    c19d:	48 8d 05 28 bf 00 00 	lea    0xbf28(%rip),%rax        # 180cc <g_189>
    c1a4:	48 89 85 60 fc ff ff 	mov    %rax,-0x3a0(%rbp)
    c1ab:	48 8d 05 1a bf 00 00 	lea    0xbf1a(%rip),%rax        # 180cc <g_189>
    c1b2:	48 89 85 68 fc ff ff 	mov    %rax,-0x398(%rbp)
    c1b9:	48 8d 05 f8 be 00 00 	lea    0xbef8(%rip),%rax        # 180b8 <g_113>
    c1c0:	48 89 85 70 fc ff ff 	mov    %rax,-0x390(%rbp)
    c1c7:	48 8d 05 56 be 00 00 	lea    0xbe56(%rip),%rax        # 18024 <g_3>
    c1ce:	48 89 85 78 fc ff ff 	mov    %rax,-0x388(%rbp)
    c1d5:	48 8d 05 f0 be 00 00 	lea    0xbef0(%rip),%rax        # 180cc <g_189>
    c1dc:	48 89 85 80 fc ff ff 	mov    %rax,-0x380(%rbp)
    c1e3:	48 8d 85 80 f3 ff ff 	lea    -0xc80(%rbp),%rax
    c1ea:	48 89 85 88 fc ff ff 	mov    %rax,-0x378(%rbp)
    c1f1:	48 8d 05 2c be 00 00 	lea    0xbe2c(%rip),%rax        # 18024 <g_3>
    c1f8:	48 89 85 90 fc ff ff 	mov    %rax,-0x370(%rbp)
    c1ff:	48 8d 05 1e be 00 00 	lea    0xbe1e(%rip),%rax        # 18024 <g_3>
    c206:	48 89 85 98 fc ff ff 	mov    %rax,-0x368(%rbp)
    c20d:	48 c7 85 a0 fc ff ff 	movq   $0x0,-0x360(%rbp)
    c214:	00 00 00 00 
    c218:	48 c7 85 a8 fc ff ff 	movq   $0x0,-0x358(%rbp)
    c21f:	00 00 00 00 
    c223:	48 8d 85 68 f3 ff ff 	lea    -0xc98(%rbp),%rax
    c22a:	48 89 85 b0 fc ff ff 	mov    %rax,-0x350(%rbp)
    c231:	48 8d 05 ec bd 00 00 	lea    0xbdec(%rip),%rax        # 18024 <g_3>
    c238:	48 89 85 b8 fc ff ff 	mov    %rax,-0x348(%rbp)
    c23f:	48 8d 05 82 bf 00 00 	lea    0xbf82(%rip),%rax        # 181c8 <g_927>
    c246:	48 89 85 c0 fc ff ff 	mov    %rax,-0x340(%rbp)
    c24d:	48 8d 05 f0 bd 00 00 	lea    0xbdf0(%rip),%rax        # 18044 <g_4+0x4>
    c254:	48 89 85 c8 fc ff ff 	mov    %rax,-0x338(%rbp)
    c25b:	48 8d 85 80 f3 ff ff 	lea    -0xc80(%rbp),%rax
    c262:	48 89 85 d0 fc ff ff 	mov    %rax,-0x330(%rbp)
    c269:	48 8d 05 b4 bd 00 00 	lea    0xbdb4(%rip),%rax        # 18024 <g_3>
    c270:	48 89 85 d8 fc ff ff 	mov    %rax,-0x328(%rbp)
    c277:	48 8d 05 3a be 00 00 	lea    0xbe3a(%rip),%rax        # 180b8 <g_113>
    c27e:	48 89 85 e0 fc ff ff 	mov    %rax,-0x320(%rbp)
    c285:	48 c7 85 e8 fc ff ff 	movq   $0x0,-0x318(%rbp)
    c28c:	00 00 00 00 
    c290:	48 8d 85 80 f3 ff ff 	lea    -0xc80(%rbp),%rax
    c297:	48 83 c0 0c          	add    $0xc,%rax
    c29b:	48 89 85 f0 fc ff ff 	mov    %rax,-0x310(%rbp)
    c2a2:	48 8d 05 7b bd 00 00 	lea    0xbd7b(%rip),%rax        # 18024 <g_3>
    c2a9:	48 89 85 f8 fc ff ff 	mov    %rax,-0x308(%rbp)
    c2b0:	48 8d 05 c1 bd 00 00 	lea    0xbdc1(%rip),%rax        # 18078 <g_88>
    c2b7:	48 89 85 00 fd ff ff 	mov    %rax,-0x300(%rbp)
    c2be:	48 8d 05 5f bd 00 00 	lea    0xbd5f(%rip),%rax        # 18024 <g_3>
    c2c5:	48 89 85 08 fd ff ff 	mov    %rax,-0x2f8(%rbp)
    c2cc:	48 8d 05 51 bd 00 00 	lea    0xbd51(%rip),%rax        # 18024 <g_3>
    c2d3:	48 89 85 10 fd ff ff 	mov    %rax,-0x2f0(%rbp)
    c2da:	48 8d 05 eb bd 00 00 	lea    0xbdeb(%rip),%rax        # 180cc <g_189>
    c2e1:	48 89 85 18 fd ff ff 	mov    %rax,-0x2e8(%rbp)
    c2e8:	48 8d 05 d9 be 00 00 	lea    0xbed9(%rip),%rax        # 181c8 <g_927>
    c2ef:	48 89 85 20 fd ff ff 	mov    %rax,-0x2e0(%rbp)
    c2f6:	48 8d 05 27 bd 00 00 	lea    0xbd27(%rip),%rax        # 18024 <g_3>
    c2fd:	48 89 85 28 fd ff ff 	mov    %rax,-0x2d8(%rbp)
    c304:	48 c7 85 30 fd ff ff 	movq   $0x0,-0x2d0(%rbp)
    c30b:	00 00 00 00 
    c30f:	48 8d 85 78 f3 ff ff 	lea    -0xc88(%rbp),%rax
    c316:	48 89 85 38 fd ff ff 	mov    %rax,-0x2c8(%rbp)
    c31d:	48 8d 05 a8 bd 00 00 	lea    0xbda8(%rip),%rax        # 180cc <g_189>
    c324:	48 89 85 40 fd ff ff 	mov    %rax,-0x2c0(%rbp)
    c32b:	48 8d 05 16 bd 00 00 	lea    0xbd16(%rip),%rax        # 18048 <g_4+0x8>
    c332:	48 89 85 48 fd ff ff 	mov    %rax,-0x2b8(%rbp)
    c339:	48 c7 85 50 fd ff ff 	movq   $0x0,-0x2b0(%rbp)
    c340:	00 00 00 00 
    c344:	48 8d 85 80 f3 ff ff 	lea    -0xc80(%rbp),%rax
    c34b:	48 83 c0 0c          	add    $0xc,%rax
    c34f:	48 89 85 58 fd ff ff 	mov    %rax,-0x2a8(%rbp)
    c356:	48 8d 05 7b be 00 00 	lea    0xbe7b(%rip),%rax        # 181d8 <g_1129>
    c35d:	48 89 85 60 fd ff ff 	mov    %rax,-0x2a0(%rbp)
    c364:	48 8d 05 b9 bc 00 00 	lea    0xbcb9(%rip),%rax        # 18024 <g_3>
    c36b:	48 89 85 68 fd ff ff 	mov    %rax,-0x298(%rbp)
    c372:	48 8d 85 78 f3 ff ff 	lea    -0xc88(%rbp),%rax
    c379:	48 89 85 70 fd ff ff 	mov    %rax,-0x290(%rbp)
    c380:	48 8d 85 78 f3 ff ff 	lea    -0xc88(%rbp),%rax
    c387:	48 89 85 78 fd ff ff 	mov    %rax,-0x288(%rbp)
    c38e:	48 8d 05 8f bc 00 00 	lea    0xbc8f(%rip),%rax        # 18024 <g_3>
    c395:	48 89 85 80 fd ff ff 	mov    %rax,-0x280(%rbp)
    c39c:	48 8d 05 35 be 00 00 	lea    0xbe35(%rip),%rax        # 181d8 <g_1129>
    c3a3:	48 89 85 88 fd ff ff 	mov    %rax,-0x278(%rbp)
    c3aa:	48 c7 85 90 fd ff ff 	movq   $0x0,-0x270(%rbp)
    c3b1:	00 00 00 00 
    c3b5:	48 8d 05 68 bc 00 00 	lea    0xbc68(%rip),%rax        # 18024 <g_3>
    c3bc:	48 89 85 98 fd ff ff 	mov    %rax,-0x268(%rbp)
    c3c3:	48 8d 05 16 bd 00 00 	lea    0xbd16(%rip),%rax        # 180e0 <g_255>
    c3ca:	48 89 85 a0 fd ff ff 	mov    %rax,-0x260(%rbp)
    c3d1:	48 8d 05 a0 bc 00 00 	lea    0xbca0(%rip),%rax        # 18078 <g_88>
    c3d8:	48 89 85 a8 fd ff ff 	mov    %rax,-0x258(%rbp)
    c3df:	48 8d 05 3e bc 00 00 	lea    0xbc3e(%rip),%rax        # 18024 <g_3>
    c3e6:	48 89 85 b0 fd ff ff 	mov    %rax,-0x250(%rbp)
    c3ed:	48 8d 05 30 bc 00 00 	lea    0xbc30(%rip),%rax        # 18024 <g_3>
    c3f4:	48 89 85 b8 fd ff ff 	mov    %rax,-0x248(%rbp)
    c3fb:	48 8d 05 ca bc 00 00 	lea    0xbcca(%rip),%rax        # 180cc <g_189>
    c402:	48 89 85 c0 fd ff ff 	mov    %rax,-0x240(%rbp)
    c409:	48 8d 05 14 bc 00 00 	lea    0xbc14(%rip),%rax        # 18024 <g_3>
    c410:	48 89 85 c8 fd ff ff 	mov    %rax,-0x238(%rbp)
    c417:	48 8d 05 ae bc 00 00 	lea    0xbcae(%rip),%rax        # 180cc <g_189>
    c41e:	48 89 85 d0 fd ff ff 	mov    %rax,-0x230(%rbp)
    c425:	48 c7 85 d8 fd ff ff 	movq   $0x0,-0x228(%rbp)
    c42c:	00 00 00 00 
    c430:	48 8d 05 0d bc 00 00 	lea    0xbc0d(%rip),%rax        # 18044 <g_4+0x4>
    c437:	48 89 85 e0 fd ff ff 	mov    %rax,-0x220(%rbp)
    c43e:	48 8d 85 68 f3 ff ff 	lea    -0xc98(%rbp),%rax
    c445:	48 89 85 e8 fd ff ff 	mov    %rax,-0x218(%rbp)
    c44c:	48 c7 85 f0 fd ff ff 	movq   $0x0,-0x210(%rbp)
    c453:	00 00 00 00 
    c457:	48 8d 05 c6 bb 00 00 	lea    0xbbc6(%rip),%rax        # 18024 <g_3>
    c45e:	48 89 85 f8 fd ff ff 	mov    %rax,-0x208(%rbp)
    c465:	48 8d 85 80 f3 ff ff 	lea    -0xc80(%rbp),%rax
    c46c:	48 83 c0 0c          	add    $0xc,%rax
    c470:	48 89 85 00 fe ff ff 	mov    %rax,-0x200(%rbp)
    c477:	48 8d 85 80 f3 ff ff 	lea    -0xc80(%rbp),%rax
    c47e:	48 89 85 08 fe ff ff 	mov    %rax,-0x1f8(%rbp)
    c485:	48 8d 05 54 bc 00 00 	lea    0xbc54(%rip),%rax        # 180e0 <g_255>
    c48c:	48 89 85 10 fe ff ff 	mov    %rax,-0x1f0(%rbp)
    c493:	48 8d 05 8a bb 00 00 	lea    0xbb8a(%rip),%rax        # 18024 <g_3>
    c49a:	48 89 85 18 fe ff ff 	mov    %rax,-0x1e8(%rbp)
    c4a1:	48 c7 85 20 fe ff ff 	movq   $0x0,-0x1e0(%rbp)
    c4a8:	00 00 00 00 
    c4ac:	48 8d 05 71 bb 00 00 	lea    0xbb71(%rip),%rax        # 18024 <g_3>
    c4b3:	48 89 85 28 fe ff ff 	mov    %rax,-0x1d8(%rbp)
    c4ba:	48 8d 85 78 f3 ff ff 	lea    -0xc88(%rbp),%rax
    c4c1:	48 89 85 30 fe ff ff 	mov    %rax,-0x1d0(%rbp)
    c4c8:	48 8d 85 80 f3 ff ff 	lea    -0xc80(%rbp),%rax
    c4cf:	48 89 85 38 fe ff ff 	mov    %rax,-0x1c8(%rbp)
    c4d6:	48 8d 05 03 bc 00 00 	lea    0xbc03(%rip),%rax        # 180e0 <g_255>
    c4dd:	48 89 85 40 fe ff ff 	mov    %rax,-0x1c0(%rbp)
    c4e4:	48 8d 05 39 bb 00 00 	lea    0xbb39(%rip),%rax        # 18024 <g_3>
    c4eb:	48 89 85 48 fe ff ff 	mov    %rax,-0x1b8(%rbp)
    c4f2:	48 8d 05 bf bb 00 00 	lea    0xbbbf(%rip),%rax        # 180b8 <g_113>
    c4f9:	48 89 85 50 fe ff ff 	mov    %rax,-0x1b0(%rbp)
    c500:	48 8d 05 1d bb 00 00 	lea    0xbb1d(%rip),%rax        # 18024 <g_3>
    c507:	48 89 85 58 fe ff ff 	mov    %rax,-0x1a8(%rbp)
    c50e:	48 8d 05 0f bb 00 00 	lea    0xbb0f(%rip),%rax        # 18024 <g_3>
    c515:	48 89 85 60 fe ff ff 	mov    %rax,-0x1a0(%rbp)
    c51c:	48 8d 05 95 bb 00 00 	lea    0xbb95(%rip),%rax        # 180b8 <g_113>
    c523:	48 89 85 68 fe ff ff 	mov    %rax,-0x198(%rbp)
    c52a:	48 8d 05 f3 ba 00 00 	lea    0xbaf3(%rip),%rax        # 18024 <g_3>
    c531:	48 89 85 70 fe ff ff 	mov    %rax,-0x190(%rbp)
    c538:	48 8d 05 a1 bb 00 00 	lea    0xbba1(%rip),%rax        # 180e0 <g_255>
    c53f:	48 89 85 78 fe ff ff 	mov    %rax,-0x188(%rbp)
    c546:	48 c7 85 80 fe ff ff 	movq   $0x0,-0x180(%rbp)
    c54d:	00 00 00 00 
    c551:	48 c7 85 88 fe ff ff 	movq   $0x0,-0x178(%rbp)
    c558:	00 00 00 00 
    c55c:	48 8d 05 7d bb 00 00 	lea    0xbb7d(%rip),%rax        # 180e0 <g_255>
    c563:	48 89 85 90 fe ff ff 	mov    %rax,-0x170(%rbp)
    c56a:	48 8d 05 d3 ba 00 00 	lea    0xbad3(%rip),%rax        # 18044 <g_4+0x4>
    c571:	48 89 85 98 fe ff ff 	mov    %rax,-0x168(%rbp)
    c578:	48 8d 05 c9 ba 00 00 	lea    0xbac9(%rip),%rax        # 18048 <g_4+0x8>
    c57f:	48 89 85 a0 fe ff ff 	mov    %rax,-0x160(%rbp)
    c586:	48 8d 85 68 f3 ff ff 	lea    -0xc98(%rbp),%rax
    c58d:	48 89 85 a8 fe ff ff 	mov    %rax,-0x158(%rbp)
    c594:	48 8d 85 80 f3 ff ff 	lea    -0xc80(%rbp),%rax
    c59b:	48 89 85 b0 fe ff ff 	mov    %rax,-0x150(%rbp)
    c5a2:	48 8d 05 7b ba 00 00 	lea    0xba7b(%rip),%rax        # 18024 <g_3>
    c5a9:	48 89 85 b8 fe ff ff 	mov    %rax,-0x148(%rbp)
    c5b0:	48 8d 05 21 bc 00 00 	lea    0xbc21(%rip),%rax        # 181d8 <g_1129>
    c5b7:	48 89 85 c0 fe ff ff 	mov    %rax,-0x140(%rbp)
    c5be:	48 8d 05 7f ba 00 00 	lea    0xba7f(%rip),%rax        # 18044 <g_4+0x4>
    c5c5:	48 89 85 c8 fe ff ff 	mov    %rax,-0x138(%rbp)
    c5cc:	48 8d 05 f9 ba 00 00 	lea    0xbaf9(%rip),%rax        # 180cc <g_189>
    c5d3:	48 89 85 d0 fe ff ff 	mov    %rax,-0x130(%rbp)
    c5da:	48 8d 05 f7 bb 00 00 	lea    0xbbf7(%rip),%rax        # 181d8 <g_1129>
    c5e1:	48 89 85 d8 fe ff ff 	mov    %rax,-0x128(%rbp)
    c5e8:	48 8d 05 59 ba 00 00 	lea    0xba59(%rip),%rax        # 18048 <g_4+0x8>
    c5ef:	48 89 85 e0 fe ff ff 	mov    %rax,-0x120(%rbp)
    c5f6:	48 8d 05 cf ba 00 00 	lea    0xbacf(%rip),%rax        # 180cc <g_189>
    c5fd:	48 89 85 e8 fe ff ff 	mov    %rax,-0x118(%rbp)
    c604:	48 8d 05 bd bb 00 00 	lea    0xbbbd(%rip),%rax        # 181c8 <g_927>
    c60b:	48 89 85 f0 fe ff ff 	mov    %rax,-0x110(%rbp)
    c612:	48 8d 05 9f ba 00 00 	lea    0xba9f(%rip),%rax        # 180b8 <g_113>
    c619:	48 89 85 f8 fe ff ff 	mov    %rax,-0x108(%rbp)
    c620:	48 8d 05 fd b9 00 00 	lea    0xb9fd(%rip),%rax        # 18024 <g_3>
    c627:	48 89 85 00 ff ff ff 	mov    %rax,-0x100(%rbp)
    c62e:	48 8d 05 ef b9 00 00 	lea    0xb9ef(%rip),%rax        # 18024 <g_3>
    c635:	48 89 85 08 ff ff ff 	mov    %rax,-0xf8(%rbp)
    c63c:	48 8d 85 80 f3 ff ff 	lea    -0xc80(%rbp),%rax
    c643:	48 89 85 10 ff ff ff 	mov    %rax,-0xf0(%rbp)
    c64a:	48 8d 85 68 f3 ff ff 	lea    -0xc98(%rbp),%rax
    c651:	48 89 85 18 ff ff ff 	mov    %rax,-0xe8(%rbp)
    c658:	48 8d 05 c5 b9 00 00 	lea    0xb9c5(%rip),%rax        # 18024 <g_3>
    c65f:	48 89 85 20 ff ff ff 	mov    %rax,-0xe0(%rbp)
    c666:	48 8d 85 80 f3 ff ff 	lea    -0xc80(%rbp),%rax
    c66d:	48 89 85 28 ff ff ff 	mov    %rax,-0xd8(%rbp)
    c674:	48 8d 05 c9 b9 00 00 	lea    0xb9c9(%rip),%rax        # 18044 <g_4+0x4>
    c67b:	48 89 85 30 ff ff ff 	mov    %rax,-0xd0(%rbp)
    c682:	48 8d 05 3f bb 00 00 	lea    0xbb3f(%rip),%rax        # 181c8 <g_927>
    c689:	48 89 85 38 ff ff ff 	mov    %rax,-0xc8(%rbp)
    c690:	48 8d 05 8d b9 00 00 	lea    0xb98d(%rip),%rax        # 18024 <g_3>
    c697:	48 89 85 40 ff ff ff 	mov    %rax,-0xc0(%rbp)
    c69e:	48 8d 05 13 ba 00 00 	lea    0xba13(%rip),%rax        # 180b8 <g_113>
    c6a5:	48 89 85 48 ff ff ff 	mov    %rax,-0xb8(%rbp)
    c6ac:	48 8d 05 71 b9 00 00 	lea    0xb971(%rip),%rax        # 18024 <g_3>
    c6b3:	48 89 85 50 ff ff ff 	mov    %rax,-0xb0(%rbp)
    c6ba:	48 8d 05 17 bb 00 00 	lea    0xbb17(%rip),%rax        # 181d8 <g_1129>
    c6c1:	48 89 85 58 ff ff ff 	mov    %rax,-0xa8(%rbp)
    c6c8:	48 8d 05 55 b9 00 00 	lea    0xb955(%rip),%rax        # 18024 <g_3>
    c6cf:	48 89 85 60 ff ff ff 	mov    %rax,-0xa0(%rbp)
    c6d6:	48 8d 85 80 f3 ff ff 	lea    -0xc80(%rbp),%rax
    c6dd:	48 89 85 68 ff ff ff 	mov    %rax,-0x98(%rbp)
    c6e4:	48 8d 05 cd b9 00 00 	lea    0xb9cd(%rip),%rax        # 180b8 <g_113>
    c6eb:	48 89 85 70 ff ff ff 	mov    %rax,-0x90(%rbp)
    c6f2:	48 8d 05 2b b9 00 00 	lea    0xb92b(%rip),%rax        # 18024 <g_3>
    c6f9:	48 89 85 78 ff ff ff 	mov    %rax,-0x88(%rbp)
    c700:	48 8d 05 b1 b9 00 00 	lea    0xb9b1(%rip),%rax        # 180b8 <g_113>
    c707:	48 89 45 80          	mov    %rax,-0x80(%rbp)
    c70b:	48 8d 85 80 f3 ff ff 	lea    -0xc80(%rbp),%rax
    c712:	48 89 45 88          	mov    %rax,-0x78(%rbp)
    c716:	48 8d 05 07 b9 00 00 	lea    0xb907(%rip),%rax        # 18024 <g_3>
    c71d:	48 89 45 90          	mov    %rax,-0x70(%rbp)
    c721:	48 c7 45 98 00 00 00 	movq   $0x0,-0x68(%rbp)
    c728:	00 
    c729:	48 8d 05 f4 b8 00 00 	lea    0xb8f4(%rip),%rax        # 18024 <g_3>
    c730:	48 89 45 a0          	mov    %rax,-0x60(%rbp)
    c734:	48 8d 05 7d b9 00 00 	lea    0xb97d(%rip),%rax        # 180b8 <g_113>
    c73b:	48 89 45 a8          	mov    %rax,-0x58(%rbp)
    c73f:	48 8d 05 de b8 00 00 	lea    0xb8de(%rip),%rax        # 18024 <g_3>
    c746:	48 89 45 b0          	mov    %rax,-0x50(%rbp)
    c74a:	48 8d 05 77 ba 00 00 	lea    0xba77(%rip),%rax        # 181c8 <g_927>
    c751:	48 89 45 b8          	mov    %rax,-0x48(%rbp)
    c755:	48 8d 05 e8 b8 00 00 	lea    0xb8e8(%rip),%rax        # 18044 <g_4+0x4>
    c75c:	48 89 45 c0          	mov    %rax,-0x40(%rbp)
    c760:	48 8d 85 80 f3 ff ff 	lea    -0xc80(%rbp),%rax
    c767:	48 89 85 60 fd ff ff 	mov    %rax,-0x2a0(%rbp)
    c76e:	48 8b 05 db ea 00 00 	mov    0xeadb(%rip),%rax        # 1b250 <g_3081>
    c775:	48 8d 95 80 f3 ff ff 	lea    -0xc80(%rbp),%rdx
    c77c:	48 83 c2 08          	add    $0x8,%rdx
    c780:	48 89 10             	mov    %rdx,(%rax)
    c783:	48 8b 05 3e e4 00 00 	mov    0xe43e(%rip),%rax        # 1abc8 <g_1921>
    c78a:	0f b7 00             	movzwl (%rax),%eax
    c78d:	48 8b 5d c8          	mov    -0x38(%rbp),%rbx
    c791:	64 48 33 1c 25 28 00 	xor    %fs:0x28,%rbx
    c798:	00 00 
    c79a:	74 05                	je     c7a1 <func_38+0x16fe>
    c79c:	e8 cf c8 ff ff       	callq  9070 <__stack_chk_fail@plt>
    c7a1:	48 81 c4 a8 0c 00 00 	add    $0xca8,%rsp
    c7a8:	5b                   	pop    %rbx
    c7a9:	41 5c                	pop    %r12
    c7ab:	41 5d                	pop    %r13
    c7ad:	41 5e                	pop    %r14
    c7af:	41 5f                	pop    %r15
    c7b1:	5d                   	pop    %rbp
    c7b2:	c3                   	retq   

000000000000c7b3 <func_55>:
    c7b3:	f3 0f 1e fa          	endbr64 
    c7b7:	55                   	push   %rbp
    c7b8:	48 89 e5             	mov    %rsp,%rbp
    c7bb:	41 54                	push   %r12
    c7bd:	53                   	push   %rbx
    c7be:	48 81 ec 00 10 00 00 	sub    $0x1000,%rsp
    c7c5:	48 83 0c 24 00       	orq    $0x0,(%rsp)
    c7ca:	48 83 ec 60          	sub    $0x60,%rsp
    c7ce:	48 89 bd a8 ef ff ff 	mov    %rdi,-0x1058(%rbp)
    c7d5:	89 b5 a4 ef ff ff    	mov    %esi,-0x105c(%rbp)
    c7db:	48 89 95 98 ef ff ff 	mov    %rdx,-0x1068(%rbp)
    c7e2:	89 8d a0 ef ff ff    	mov    %ecx,-0x1060(%rbp)
    c7e8:	64 48 8b 04 25 28 00 	mov    %fs:0x28,%rax
    c7ef:	00 00 
    c7f1:	48 89 45 e8          	mov    %rax,-0x18(%rbp)
    c7f5:	31 c0                	xor    %eax,%eax
    c7f7:	48 8d 85 00 f4 ff ff 	lea    -0xc00(%rbp),%rax
    c7fe:	48 8d 15 fb 6f 00 00 	lea    0x6ffb(%rip),%rdx        # 13800 <g_2811+0x794>
    c805:	b9 25 00 00 00       	mov    $0x25,%ecx
    c80a:	48 89 c7             	mov    %rax,%rdi
    c80d:	48 89 d6             	mov    %rdx,%rsi
    c810:	f3 48 a5             	rep movsq %ds:(%rsi),%es:(%rdi)
    c813:	48 89 f2             	mov    %rsi,%rdx
    c816:	48 89 f8             	mov    %rdi,%rax
    c819:	8b 0a                	mov    (%rdx),%ecx
    c81b:	89 08                	mov    %ecx,(%rax)
    c81d:	48 8d 40 04          	lea    0x4(%rax),%rax
    c821:	48 8d 52 04          	lea    0x4(%rdx),%rdx
    c825:	48 c7 85 10 f0 ff ff 	movq   $0x0,-0xff0(%rbp)
    c82c:	00 00 00 00 
    c830:	48 8d 85 d0 fa ff ff 	lea    -0x530(%rbp),%rax
    c837:	48 8d 15 62 c7 00 00 	lea    0xc762(%rip),%rdx        # 18fa0 <g_3326+0x90c>
    c83e:	b9 a2 00 00 00       	mov    $0xa2,%ecx
    c843:	48 89 c7             	mov    %rax,%rdi
    c846:	48 89 d6             	mov    %rdx,%rsi
    c849:	f3 48 a5             	rep movsq %ds:(%rsi),%es:(%rdi)
    c84c:	c7 85 bc ef ff ff 04 	movl   $0x4,-0x1044(%rbp)
    c853:	00 00 00 
    c856:	48 8d 85 e0 f2 ff ff 	lea    -0xd20(%rbp),%rax
    c85d:	48 8d 15 5c cc 00 00 	lea    0xcc5c(%rip),%rdx        # 194c0 <g_3326+0xe2c>
    c864:	b9 23 00 00 00       	mov    $0x23,%ecx
    c869:	48 89 c7             	mov    %rax,%rdi
    c86c:	48 89 d6             	mov    %rdx,%rsi
    c86f:	f3 48 a5             	rep movsq %ds:(%rsi),%es:(%rdi)
    c872:	48 8d 85 70 f6 ff ff 	lea    -0x990(%rbp),%rax
    c879:	48 8d 15 c0 70 00 00 	lea    0x70c0(%rip),%rdx        # 13940 <g_2811+0x8d4>
    c880:	b9 8c 00 00 00       	mov    $0x8c,%ecx
    c885:	48 89 c7             	mov    %rax,%rdi
    c888:	48 89 d6             	mov    %rdx,%rsi
    c88b:	f3 48 a5             	rep movsq %ds:(%rsi),%es:(%rdi)
    c88e:	c7 85 c0 ef ff ff c5 	movl   $0x7ddd17c5,-0x1040(%rbp)
    c895:	17 dd 7d 
    c898:	c7 85 d8 ef ff ff 01 	movl   $0xaebaa601,-0x1028(%rbp)
    c89f:	a6 ba ae 
    c8a2:	48 8d 05 c7 f0 00 00 	lea    0xf0c7(%rip),%rax        # 1b970 <g_1277>
    c8a9:	48 89 85 18 f0 ff ff 	mov    %rax,-0xfe8(%rbp)
    c8b0:	c7 85 40 f1 ff ff b7 	movl   $0x51eed6b7,-0xec0(%rbp)
    c8b7:	d6 ee 51 
    c8ba:	c7 85 44 f1 ff ff b3 	movl   $0xa2f4f4b3,-0xebc(%rbp)
    c8c1:	f4 f4 a2 
    c8c4:	c7 85 48 f1 ff ff b7 	movl   $0x51eed6b7,-0xeb8(%rbp)
    c8cb:	d6 ee 51 
    c8ce:	c7 85 4c f1 ff ff b7 	movl   $0x51eed6b7,-0xeb4(%rbp)
    c8d5:	d6 ee 51 
    c8d8:	c7 85 50 f1 ff ff b3 	movl   $0xa2f4f4b3,-0xeb0(%rbp)
    c8df:	f4 f4 a2 
    c8e2:	c7 85 54 f1 ff ff b7 	movl   $0x51eed6b7,-0xeac(%rbp)
    c8e9:	d6 ee 51 
    c8ec:	c7 85 58 f1 ff ff b7 	movl   $0x51eed6b7,-0xea8(%rbp)
    c8f3:	d6 ee 51 
    c8f6:	c7 85 5c f1 ff ff b3 	movl   $0xa2f4f4b3,-0xea4(%rbp)
    c8fd:	f4 f4 a2 
    c900:	c7 85 60 f1 ff ff b3 	movl   $0xa2f4f4b3,-0xea0(%rbp)
    c907:	f4 f4 a2 
    c90a:	c7 85 64 f1 ff ff 3e 	movl   $0x99eb9a3e,-0xe9c(%rbp)
    c911:	9a eb 99 
    c914:	c7 85 68 f1 ff ff b3 	movl   $0xa2f4f4b3,-0xe98(%rbp)
    c91b:	f4 f4 a2 
    c91e:	c7 85 6c f1 ff ff b3 	movl   $0xa2f4f4b3,-0xe94(%rbp)
    c925:	f4 f4 a2 
    c928:	c7 85 70 f1 ff ff 3e 	movl   $0x99eb9a3e,-0xe90(%rbp)
    c92f:	9a eb 99 
    c932:	c7 85 74 f1 ff ff b3 	movl   $0xa2f4f4b3,-0xe8c(%rbp)
    c939:	f4 f4 a2 
    c93c:	c7 85 78 f1 ff ff b3 	movl   $0xa2f4f4b3,-0xe88(%rbp)
    c943:	f4 f4 a2 
    c946:	c7 85 7c f1 ff ff b7 	movl   $0x51eed6b7,-0xe84(%rbp)
    c94d:	d6 ee 51 
    c950:	c7 85 80 f1 ff ff b7 	movl   $0x51eed6b7,-0xe80(%rbp)
    c957:	d6 ee 51 
    c95a:	c7 85 84 f1 ff ff b3 	movl   $0xa2f4f4b3,-0xe7c(%rbp)
    c961:	f4 f4 a2 
    c964:	c7 85 88 f1 ff ff b7 	movl   $0x51eed6b7,-0xe78(%rbp)
    c96b:	d6 ee 51 
    c96e:	c7 85 8c f1 ff ff b7 	movl   $0x51eed6b7,-0xe74(%rbp)
    c975:	d6 ee 51 
    c978:	c7 85 90 f1 ff ff b3 	movl   $0xa2f4f4b3,-0xe70(%rbp)
    c97f:	f4 f4 a2 
    c982:	c7 85 94 f1 ff ff b7 	movl   $0x51eed6b7,-0xe6c(%rbp)
    c989:	d6 ee 51 
    c98c:	c7 85 98 f1 ff ff b3 	movl   $0xa2f4f4b3,-0xe68(%rbp)
    c993:	f4 f4 a2 
    c996:	c7 85 9c f1 ff ff b7 	movl   $0x51eed6b7,-0xe64(%rbp)
    c99d:	d6 ee 51 
    c9a0:	c7 85 a0 f1 ff ff b7 	movl   $0x51eed6b7,-0xe60(%rbp)
    c9a7:	d6 ee 51 
    c9aa:	c7 85 a4 f1 ff ff b3 	movl   $0xa2f4f4b3,-0xe5c(%rbp)
    c9b1:	f4 f4 a2 
    c9b4:	c7 85 a8 f1 ff ff b7 	movl   $0x51eed6b7,-0xe58(%rbp)
    c9bb:	d6 ee 51 
    c9be:	c7 85 ac f1 ff ff b7 	movl   $0x51eed6b7,-0xe54(%rbp)
    c9c5:	d6 ee 51 
    c9c8:	c7 85 b0 f1 ff ff b3 	movl   $0xa2f4f4b3,-0xe50(%rbp)
    c9cf:	f4 f4 a2 
    c9d2:	c7 85 b4 f1 ff ff b3 	movl   $0xa2f4f4b3,-0xe4c(%rbp)
    c9d9:	f4 f4 a2 
    c9dc:	c7 85 b8 f1 ff ff 3e 	movl   $0x99eb9a3e,-0xe48(%rbp)
    c9e3:	9a eb 99 
    c9e6:	c7 85 bc f1 ff ff b3 	movl   $0xa2f4f4b3,-0xe44(%rbp)
    c9ed:	f4 f4 a2 
    c9f0:	c7 85 c0 f1 ff ff b3 	movl   $0xa2f4f4b3,-0xe40(%rbp)
    c9f7:	f4 f4 a2 
    c9fa:	c7 85 c4 f1 ff ff 3e 	movl   $0x99eb9a3e,-0xe3c(%rbp)
    ca01:	9a eb 99 
    ca04:	c7 85 c8 f1 ff ff b3 	movl   $0xa2f4f4b3,-0xe38(%rbp)
    ca0b:	f4 f4 a2 
    ca0e:	c7 85 cc f1 ff ff b3 	movl   $0xa2f4f4b3,-0xe34(%rbp)
    ca15:	f4 f4 a2 
    ca18:	c7 85 d0 f1 ff ff b7 	movl   $0x51eed6b7,-0xe30(%rbp)
    ca1f:	d6 ee 51 
    ca22:	c7 85 d4 f1 ff ff b7 	movl   $0x51eed6b7,-0xe2c(%rbp)
    ca29:	d6 ee 51 
    ca2c:	c7 85 d8 f1 ff ff b3 	movl   $0xa2f4f4b3,-0xe28(%rbp)
    ca33:	f4 f4 a2 
    ca36:	c7 85 dc f1 ff ff b7 	movl   $0x51eed6b7,-0xe24(%rbp)
    ca3d:	d6 ee 51 
    ca40:	c7 85 e0 f1 ff ff b7 	movl   $0x51eed6b7,-0xe20(%rbp)
    ca47:	d6 ee 51 
    ca4a:	c7 85 e4 f1 ff ff b3 	movl   $0xa2f4f4b3,-0xe1c(%rbp)
    ca51:	f4 f4 a2 
    ca54:	c7 85 c4 ef ff ff e3 	movl   $0x56439e3,-0x103c(%rbp)
    ca5b:	39 64 05 
    ca5e:	48 8d 05 4b d7 00 00 	lea    0xd74b(%rip),%rax        # 1a1b0 <g_1288+0x10>
    ca65:	48 89 85 20 f0 ff ff 	mov    %rax,-0xfe0(%rbp)
    ca6c:	48 c7 85 f8 ef ff ff 	movq   $0x0,-0x1008(%rbp)
    ca73:	00 00 00 00 
    ca77:	c7 85 cc ef ff ff 00 	movl   $0x0,-0x1034(%rbp)
    ca7e:	00 00 00 
    ca81:	eb 1e                	jmp    caa1 <func_55+0x2ee>
    ca83:	8b 85 cc ef ff ff    	mov    -0x1034(%rbp),%eax
    ca89:	48 98                	cltq   
    ca8b:	48 8d 15 86 d7 00 00 	lea    0xd786(%rip),%rdx        # 1a218 <g_1616+0x8>
    ca92:	48 89 94 c5 40 f0 ff 	mov    %rdx,-0xfc0(%rbp,%rax,8)
    ca99:	ff 
    ca9a:	83 85 cc ef ff ff 01 	addl   $0x1,-0x1034(%rbp)
    caa1:	83 bd cc ef ff ff 05 	cmpl   $0x5,-0x1034(%rbp)
    caa8:	7e d9                	jle    ca83 <func_55+0x2d0>
    caaa:	c7 85 cc ef ff ff 00 	movl   $0x0,-0x1034(%rbp)
    cab1:	00 00 00 
    cab4:	eb 71                	jmp    cb27 <func_55+0x374>
    cab6:	c7 85 d0 ef ff ff 00 	movl   $0x0,-0x1030(%rbp)
    cabd:	00 00 00 
    cac0:	eb 55                	jmp    cb17 <func_55+0x364>
    cac2:	c7 85 d4 ef ff ff 00 	movl   $0x0,-0x102c(%rbp)
    cac9:	00 00 00 
    cacc:	eb 39                	jmp    cb07 <func_55+0x354>
    cace:	8b 85 d4 ef ff ff    	mov    -0x102c(%rbp),%eax
    cad4:	48 98                	cltq   
    cad6:	8b 95 cc ef ff ff    	mov    -0x1034(%rbp),%edx
    cadc:	48 63 ca             	movslq %edx,%rcx
    cadf:	8b 95 d0 ef ff ff    	mov    -0x1030(%rbp),%edx
    cae5:	48 63 d2             	movslq %edx,%rdx
    cae8:	48 01 c9             	add    %rcx,%rcx
    caeb:	48 01 ca             	add    %rcx,%rdx
    caee:	48 c1 e2 03          	shl    $0x3,%rdx
    caf2:	48 01 d0             	add    %rdx,%rax
    caf5:	c7 84 85 30 f5 ff ff 	movl   $0xffffffff,-0xad0(%rbp,%rax,4)
    cafc:	ff ff ff ff 
    cb00:	83 85 d4 ef ff ff 01 	addl   $0x1,-0x102c(%rbp)
    cb07:	83 bd d4 ef ff ff 07 	cmpl   $0x7,-0x102c(%rbp)
    cb0e:	7e be                	jle    cace <func_55+0x31b>
    cb10:	83 85 d0 ef ff ff 01 	addl   $0x1,-0x1030(%rbp)
    cb17:	83 bd d0 ef ff ff 01 	cmpl   $0x1,-0x1030(%rbp)
    cb1e:	7e a2                	jle    cac2 <func_55+0x30f>
    cb20:	83 85 cc ef ff ff 01 	addl   $0x1,-0x1034(%rbp)
    cb27:	83 bd cc ef ff ff 04 	cmpl   $0x4,-0x1034(%rbp)
    cb2e:	7e 86                	jle    cab6 <func_55+0x303>
    cb30:	0f b7 95 fa f4 ff ff 	movzwl -0xb06(%rbp),%edx
    cb37:	48 8b 05 e2 e6 00 00 	mov    0xe6e2(%rip),%rax        # 1b220 <g_2814>
    cb3e:	0f bf d2             	movswl %dx,%edx
    cb41:	89 10                	mov    %edx,(%rax)
    cb43:	0f b7 85 fa f4 ff ff 	movzwl -0xb06(%rbp),%eax
    cb4a:	0f b6 c0             	movzbl %al,%eax
    cb4d:	be 00 00 00 00       	mov    $0x0,%esi
    cb52:	89 c7                	mov    %eax,%edi
    cb54:	e8 ac d0 ff ff       	callq  9c05 <safe_lshift_func_uint8_t_u_s>
    cb59:	0f b6 d0             	movzbl %al,%edx
    cb5c:	48 8b 0d 65 b6 00 00 	mov    0xb665(%rip),%rcx        # 181c8 <g_927>
    cb63:	0f b7 05 e2 ed 00 00 	movzwl 0xede2(%rip),%eax        # 1b94c <g_258>
    cb6a:	48 0f bf c0          	movswq %ax,%rax
    cb6e:	48 21 c8             	and    %rcx,%rax
    cb71:	48 89 05 50 b6 00 00 	mov    %rax,0xb650(%rip)        # 181c8 <g_927>
    cb78:	48 8b 05 49 b6 00 00 	mov    0xb649(%rip),%rax        # 181c8 <g_927>
    cb7f:	48 39 c2             	cmp    %rax,%rdx
    cb82:	48 8b 85 98 ef ff ff 	mov    -0x1068(%rbp),%rax
    cb89:	0f b6 00             	movzbl (%rax),%eax
    cb8c:	0f be d0             	movsbl %al,%edx
    cb8f:	0f b7 85 fa f4 ff ff 	movzwl -0xb06(%rbp),%eax
    cb96:	0f bf c8             	movswl %ax,%ecx
    cb99:	8b 85 bc ef ff ff    	mov    -0x1044(%rbp),%eax
    cb9f:	21 c8                	and    %ecx,%eax
    cba1:	89 85 bc ef ff ff    	mov    %eax,-0x1044(%rbp)
    cba7:	8b 85 bc ef ff ff    	mov    -0x1044(%rbp),%eax
    cbad:	39 c2                	cmp    %eax,%edx
    cbaf:	0f 9c c0             	setl   %al
    cbb2:	0f b6 d0             	movzbl %al,%edx
    cbb5:	48 8b 85 98 ef ff ff 	mov    -0x1068(%rbp),%rax
    cbbc:	0f b6 00             	movzbl (%rax),%eax
    cbbf:	0f be c0             	movsbl %al,%eax
    cbc2:	39 c2                	cmp    %eax,%edx
    cbc4:	0f 9c c0             	setl   %al
    cbc7:	0f b6 d0             	movzbl %al,%edx
    cbca:	48 8b 05 77 e0 00 00 	mov    0xe077(%rip),%rax        # 1ac48 <g_2163>
    cbd1:	48 8b 00             	mov    (%rax),%rax
    cbd4:	0f b7 00             	movzwl (%rax),%eax
    cbd7:	98                   	cwtl   
    cbd8:	39 c2                	cmp    %eax,%edx
    cbda:	75 09                	jne    cbe5 <func_55+0x432>
    cbdc:	83 bd a4 ef ff ff 00 	cmpl   $0x0,-0x105c(%rbp)
    cbe3:	74 07                	je     cbec <func_55+0x439>
    cbe5:	b8 01 00 00 00       	mov    $0x1,%eax
    cbea:	eb 05                	jmp    cbf1 <func_55+0x43e>
    cbec:	b8 00 00 00 00       	mov    $0x0,%eax
    cbf1:	48 98                	cltq   
    cbf3:	48 89 85 b0 fa ff ff 	mov    %rax,-0x550(%rbp)
    cbfa:	0f b6 05 b5 b6 00 00 	movzbl 0xb6b5(%rip),%eax        # 182b6 <g_1301>
    cc01:	0f b6 c0             	movzbl %al,%eax
    cc04:	39 85 a4 ef ff ff    	cmp    %eax,-0x105c(%rbp)
    cc0a:	0f 95 c0             	setne  %al
    cc0d:	0f b6 c0             	movzbl %al,%eax
    cc10:	8b 95 a0 ef ff ff    	mov    -0x1060(%rbp),%edx
    cc16:	89 d6                	mov    %edx,%esi
    cc18:	89 c7                	mov    %eax,%edi
    cc1a:	e8 4d c7 ff ff       	callq  936c <safe_rshift_func_int8_t_s_u>
    cc1f:	4c 0f be e0          	movsbq %al,%r12
    cc23:	8b 9d a0 ef ff ff    	mov    -0x1060(%rbp),%ebx
    cc29:	48 8b 05 10 d5 00 00 	mov    0xd510(%rip),%rax        # 1a140 <g_565>
    cc30:	8b 10                	mov    (%rax),%edx
    cc32:	83 ea 01             	sub    $0x1,%edx
    cc35:	89 10                	mov    %edx,(%rax)
    cc37:	83 bd d8 ef ff ff 00 	cmpl   $0x0,-0x1028(%rbp)
    cc3e:	0f 94 c2             	sete   %dl
    cc41:	48 8b 05 f0 d5 00 00 	mov    0xd5f0(%rip),%rax        # 1a238 <g_1640>
    cc48:	48 8b 00             	mov    (%rax),%rax
    cc4b:	48 8b 00             	mov    (%rax),%rax
    cc4e:	0f b6 d2             	movzbl %dl,%edx
    cc51:	66 89 10             	mov    %dx,(%rax)
    cc54:	8b 95 a0 ef ff ff    	mov    -0x1060(%rbp),%edx
    cc5a:	48 8b 05 5f df 00 00 	mov    0xdf5f(%rip),%rax        # 1abc0 <g_1845>
    cc61:	8b 00                	mov    (%rax),%eax
    cc63:	f7 d0                	not    %eax
    cc65:	c1 e8 1f             	shr    $0x1f,%eax
    cc68:	0f b6 c0             	movzbl %al,%eax
    cc6b:	48 89 d6             	mov    %rdx,%rsi
    cc6e:	48 89 c7             	mov    %rax,%rdi
    cc71:	e8 cb cb ff ff       	callq  9841 <safe_add_func_int64_t_s_s>
    cc76:	0f b6 d0             	movzbl %al,%edx
    cc79:	8b 85 a0 ef ff ff    	mov    -0x1060(%rbp),%eax
    cc7f:	0f b6 c0             	movzbl %al,%eax
    cc82:	89 d6                	mov    %edx,%esi
    cc84:	89 c7                	mov    %eax,%edi
    cc86:	e8 23 cf ff ff       	callq  9bae <safe_mod_func_uint8_t_u_u>
    cc8b:	0f b6 c0             	movzbl %al,%eax
    cc8e:	48 89 de             	mov    %rbx,%rsi
    cc91:	48 89 c7             	mov    %rax,%rdi
    cc94:	e8 95 d3 ff ff       	callq  a02e <safe_add_func_uint64_t_u_u>
    cc99:	49 39 c4             	cmp    %rax,%r12
    cc9c:	0f 95 c0             	setne  %al
    cc9f:	0f b6 c0             	movzbl %al,%eax
    cca2:	be 0f 00 00 00       	mov    $0xf,%esi
    cca7:	89 c7                	mov    %eax,%edi
    cca9:	e8 10 d1 ff ff       	callq  9dbe <safe_lshift_func_uint16_t_u_s>
    ccae:	0f b7 c0             	movzwl %ax,%eax
    ccb1:	8b 95 a4 ef ff ff    	mov    -0x105c(%rbp),%edx
    ccb7:	89 d6                	mov    %edx,%esi
    ccb9:	89 c7                	mov    %eax,%edi
    ccbb:	e8 10 d2 ff ff       	callq  9ed0 <safe_sub_func_uint32_t_u_u>
    ccc0:	85 c0                	test   %eax,%eax
    ccc2:	74 2d                	je     ccf1 <func_55+0x53e>
    ccc4:	c7 85 dc ef ff ff bd 	movl   $0x46af7cbd,-0x1024(%rbp)
    cccb:	7c af 46 
    ccce:	83 ad dc ef ff ff 01 	subl   $0x1,-0x1024(%rbp)
    ccd5:	48 8d 05 94 ec 00 00 	lea    0xec94(%rip),%rax        # 1b970 <g_1277>
    ccdc:	48 89 85 18 f0 ff ff 	mov    %rax,-0xfe8(%rbp)
    cce3:	66 c7 05 c6 b5 00 00 	movw   $0x0,0xb5c6(%rip)        # 182b2 <g_1262>
    ccea:	00 00 
    ccec:	e9 44 04 00 00       	jmpq   d135 <func_55+0x982>
    ccf1:	8b 85 a4 ef ff ff    	mov    -0x105c(%rbp),%eax
    ccf7:	e9 50 04 00 00       	jmpq   d14c <func_55+0x999>
    ccfc:	c7 85 e0 ef ff ff ff 	movl   $0x7cb9d5ff,-0x1020(%rbp)
    cd03:	d5 b9 7c 
    cd06:	c7 85 e4 ef ff ff 0c 	movl   $0x1d34990c,-0x101c(%rbp)
    cd0d:	99 34 1d 
    cd10:	48 c7 85 00 f0 ff ff 	movq   $0x0,-0x1000(%rbp)
    cd17:	00 00 00 00 
    cd1b:	c7 85 c8 ef ff ff 03 	movl   $0x3,-0x1038(%rbp)
    cd22:	00 00 00 
    cd25:	c7 85 e8 ef ff ff b6 	movl   $0xcf8b8b6,-0x1018(%rbp)
    cd2c:	b8 f8 0c 
    cd2f:	66 c7 85 b0 f0 ff ff 	movw   $0x1730,-0xf50(%rbp)
    cd36:	30 17 
    cd38:	66 c7 85 b2 f0 ff ff 	movw   $0xffff,-0xf4e(%rbp)
    cd3f:	ff ff 
    cd41:	66 c7 85 b4 f0 ff ff 	movw   $0x3894,-0xf4c(%rbp)
    cd48:	94 38 
    cd4a:	66 c7 85 b6 f0 ff ff 	movw   $0x9,-0xf4a(%rbp)
    cd51:	09 00 
    cd53:	66 c7 85 b8 f0 ff ff 	movw   $0xffff,-0xf48(%rbp)
    cd5a:	ff ff 
    cd5c:	66 c7 85 ba f0 ff ff 	movw   $0xac5a,-0xf46(%rbp)
    cd63:	5a ac 
    cd65:	66 c7 85 bc f0 ff ff 	movw   $0xfffa,-0xf44(%rbp)
    cd6c:	fa ff 
    cd6e:	66 c7 85 be f0 ff ff 	movw   $0x3894,-0xf42(%rbp)
    cd75:	94 38 
    cd77:	66 c7 85 c0 f0 ff ff 	movw   $0x3894,-0xf40(%rbp)
    cd7e:	94 38 
    cd80:	66 c7 85 c2 f0 ff ff 	movw   $0xfffa,-0xf3e(%rbp)
    cd87:	fa ff 
    cd89:	66 c7 85 c4 f0 ff ff 	movw   $0xac5a,-0xf3c(%rbp)
    cd90:	5a ac 
    cd92:	66 c7 85 c6 f0 ff ff 	movw   $0xffff,-0xf3a(%rbp)
    cd99:	ff ff 
    cd9b:	66 c7 85 c8 f0 ff ff 	movw   $0x9,-0xf38(%rbp)
    cda2:	09 00 
    cda4:	66 c7 85 ca f0 ff ff 	movw   $0x3894,-0xf36(%rbp)
    cdab:	94 38 
    cdad:	66 c7 85 cc f0 ff ff 	movw   $0xffff,-0xf34(%rbp)
    cdb4:	ff ff 
    cdb6:	66 c7 85 ce f0 ff ff 	movw   $0x1730,-0xf32(%rbp)
    cdbd:	30 17 
    cdbf:	66 c7 85 d0 f0 ff ff 	movw   $0xffff,-0xf30(%rbp)
    cdc6:	ff ff 
    cdc8:	66 c7 85 d2 f0 ff ff 	movw   $0x3894,-0xf2e(%rbp)
    cdcf:	94 38 
    cdd1:	66 c7 85 d4 f0 ff ff 	movw   $0x9,-0xf2c(%rbp)
    cdd8:	09 00 
    cdda:	66 c7 85 d6 f0 ff ff 	movw   $0xffff,-0xf2a(%rbp)
    cde1:	ff ff 
    cde3:	66 c7 85 d8 f0 ff ff 	movw   $0xac5a,-0xf28(%rbp)
    cdea:	5a ac 
    cdec:	66 c7 85 da f0 ff ff 	movw   $0xfffa,-0xf26(%rbp)
    cdf3:	fa ff 
    cdf5:	66 c7 85 dc f0 ff ff 	movw   $0x3894,-0xf24(%rbp)
    cdfc:	94 38 
    cdfe:	66 c7 85 de f0 ff ff 	movw   $0x3894,-0xf22(%rbp)
    ce05:	94 38 
    ce07:	66 c7 85 e0 f0 ff ff 	movw   $0xfffa,-0xf20(%rbp)
    ce0e:	fa ff 
    ce10:	66 c7 85 e2 f0 ff ff 	movw   $0xac5a,-0xf1e(%rbp)
    ce17:	5a ac 
    ce19:	66 c7 85 e4 f0 ff ff 	movw   $0xffff,-0xf1c(%rbp)
    ce20:	ff ff 
    ce22:	66 c7 85 e6 f0 ff ff 	movw   $0x9,-0xf1a(%rbp)
    ce29:	09 00 
    ce2b:	66 c7 85 e8 f0 ff ff 	movw   $0x3894,-0xf18(%rbp)
    ce32:	94 38 
    ce34:	66 c7 85 ea f0 ff ff 	movw   $0xffff,-0xf16(%rbp)
    ce3b:	ff ff 
    ce3d:	c6 85 bb ef ff ff a9 	movb   $0xa9,-0x1045(%rbp)
    ce44:	48 8d 05 55 d3 00 00 	lea    0xd355(%rip),%rax        # 1a1a0 <g_1288>
    ce4b:	48 89 85 f0 f0 ff ff 	mov    %rax,-0xf10(%rbp)
    ce52:	48 8d 05 47 d3 00 00 	lea    0xd347(%rip),%rax        # 1a1a0 <g_1288>
    ce59:	48 89 85 f8 f0 ff ff 	mov    %rax,-0xf08(%rbp)
    ce60:	48 8d 05 39 d3 00 00 	lea    0xd339(%rip),%rax        # 1a1a0 <g_1288>
    ce67:	48 89 85 00 f1 ff ff 	mov    %rax,-0xf00(%rbp)
    ce6e:	48 8d 05 2b d3 00 00 	lea    0xd32b(%rip),%rax        # 1a1a0 <g_1288>
    ce75:	48 89 85 08 f1 ff ff 	mov    %rax,-0xef8(%rbp)
    ce7c:	48 8d 05 1d d3 00 00 	lea    0xd31d(%rip),%rax        # 1a1a0 <g_1288>
    ce83:	48 89 85 10 f1 ff ff 	mov    %rax,-0xef0(%rbp)
    ce8a:	48 8d 05 0f d3 00 00 	lea    0xd30f(%rip),%rax        # 1a1a0 <g_1288>
    ce91:	48 89 85 18 f1 ff ff 	mov    %rax,-0xee8(%rbp)
    ce98:	48 8d 05 01 d3 00 00 	lea    0xd301(%rip),%rax        # 1a1a0 <g_1288>
    ce9f:	48 89 85 20 f1 ff ff 	mov    %rax,-0xee0(%rbp)
    cea6:	48 8d 05 f3 d2 00 00 	lea    0xd2f3(%rip),%rax        # 1a1a0 <g_1288>
    cead:	48 89 85 28 f1 ff ff 	mov    %rax,-0xed8(%rbp)
    ceb4:	48 c7 85 30 f1 ff ff 	movq   $0x0,-0xed0(%rbp)
    cebb:	00 00 00 00 
    cebf:	48 8d 05 12 d3 00 00 	lea    0xd312(%rip),%rax        # 1a1d8 <g_1540>
    cec6:	48 89 85 28 f0 ff ff 	mov    %rax,-0xfd8(%rbp)
    cecd:	48 8d 05 7c dd 00 00 	lea    0xdd7c(%rip),%rax        # 1ac50 <g_2162>
    ced4:	48 89 85 70 f0 ff ff 	mov    %rax,-0xf90(%rbp)
    cedb:	48 8d 05 6e dd 00 00 	lea    0xdd6e(%rip),%rax        # 1ac50 <g_2162>
    cee2:	48 89 85 78 f0 ff ff 	mov    %rax,-0xf88(%rbp)
    cee9:	48 8d 05 60 dd 00 00 	lea    0xdd60(%rip),%rax        # 1ac50 <g_2162>
    cef0:	48 89 85 80 f0 ff ff 	mov    %rax,-0xf80(%rbp)
    cef7:	48 8d 05 52 dd 00 00 	lea    0xdd52(%rip),%rax        # 1ac50 <g_2162>
    cefe:	48 89 85 88 f0 ff ff 	mov    %rax,-0xf78(%rbp)
    cf05:	48 8d 05 44 dd 00 00 	lea    0xdd44(%rip),%rax        # 1ac50 <g_2162>
    cf0c:	48 89 85 90 f0 ff ff 	mov    %rax,-0xf70(%rbp)
    cf13:	48 8d 05 36 dd 00 00 	lea    0xdd36(%rip),%rax        # 1ac50 <g_2162>
    cf1a:	48 89 85 98 f0 ff ff 	mov    %rax,-0xf68(%rbp)
    cf21:	48 8d 05 28 dd 00 00 	lea    0xdd28(%rip),%rax        # 1ac50 <g_2162>
    cf28:	48 89 85 a0 f0 ff ff 	mov    %rax,-0xf60(%rbp)
    cf2f:	c7 85 ec ef ff ff 01 	movl   $0x1,-0x1014(%rbp)
    cf36:	00 00 00 
    cf39:	48 b8 4f fb c8 ab 49 	movabs $0xfecee49abc8fb4f,%rax
    cf40:	ee ec 0f 
    cf43:	48 89 85 30 f0 ff ff 	mov    %rax,-0xfd0(%rbp)
    cf4a:	48 8d 85 e0 f2 ff ff 	lea    -0xd20(%rbp),%rax
    cf51:	48 05 88 00 00 00    	add    $0x88,%rax
    cf57:	48 89 85 08 f0 ff ff 	mov    %rax,-0xff8(%rbp)
    cf5e:	48 8d 85 08 f0 ff ff 	lea    -0xff8(%rbp),%rax
    cf65:	48 89 85 38 f0 ff ff 	mov    %rax,-0xfc8(%rbp)
    cf6c:	48 8d 85 c8 ef ff ff 	lea    -0x1038(%rbp),%rax
    cf73:	48 89 85 f0 f1 ff ff 	mov    %rax,-0xe10(%rbp)
    cf7a:	48 8d 05 c3 b0 00 00 	lea    0xb0c3(%rip),%rax        # 18044 <g_4+0x4>
    cf81:	48 89 85 f8 f1 ff ff 	mov    %rax,-0xe08(%rbp)
    cf88:	48 8d 85 bc ef ff ff 	lea    -0x1044(%rbp),%rax
    cf8f:	48 89 85 00 f2 ff ff 	mov    %rax,-0xe00(%rbp)
    cf96:	48 8d 85 c8 ef ff ff 	lea    -0x1038(%rbp),%rax
    cf9d:	48 89 85 08 f2 ff ff 	mov    %rax,-0xdf8(%rbp)
    cfa4:	48 8d 85 c8 ef ff ff 	lea    -0x1038(%rbp),%rax
    cfab:	48 89 85 10 f2 ff ff 	mov    %rax,-0xdf0(%rbp)
    cfb2:	48 8d 05 8b b0 00 00 	lea    0xb08b(%rip),%rax        # 18044 <g_4+0x4>
    cfb9:	48 89 85 18 f2 ff ff 	mov    %rax,-0xde8(%rbp)
    cfc0:	48 8d 05 7d b0 00 00 	lea    0xb07d(%rip),%rax        # 18044 <g_4+0x4>
    cfc7:	48 89 85 20 f2 ff ff 	mov    %rax,-0xde0(%rbp)
    cfce:	48 8d 05 6f b0 00 00 	lea    0xb06f(%rip),%rax        # 18044 <g_4+0x4>
    cfd5:	48 89 85 28 f2 ff ff 	mov    %rax,-0xdd8(%rbp)
    cfdc:	48 8d 05 61 b0 00 00 	lea    0xb061(%rip),%rax        # 18044 <g_4+0x4>
    cfe3:	48 89 85 30 f2 ff ff 	mov    %rax,-0xdd0(%rbp)
    cfea:	48 8d 05 53 b0 00 00 	lea    0xb053(%rip),%rax        # 18044 <g_4+0x4>
    cff1:	48 89 85 38 f2 ff ff 	mov    %rax,-0xdc8(%rbp)
    cff8:	48 8d 05 59 b0 00 00 	lea    0xb059(%rip),%rax        # 18058 <g_4+0x18>
    cfff:	48 89 85 40 f2 ff ff 	mov    %rax,-0xdc0(%rbp)
    d006:	48 8d 85 bc ef ff ff 	lea    -0x1044(%rbp),%rax
    d00d:	48 89 85 48 f2 ff ff 	mov    %rax,-0xdb8(%rbp)
    d014:	48 8d 05 29 b0 00 00 	lea    0xb029(%rip),%rax        # 18044 <g_4+0x4>
    d01b:	48 89 85 50 f2 ff ff 	mov    %rax,-0xdb0(%rbp)
    d022:	48 8d 05 2f b0 00 00 	lea    0xb02f(%rip),%rax        # 18058 <g_4+0x18>
    d029:	48 89 85 58 f2 ff ff 	mov    %rax,-0xda8(%rbp)
    d030:	48 8d 05 0d b0 00 00 	lea    0xb00d(%rip),%rax        # 18044 <g_4+0x4>
    d037:	48 89 85 60 f2 ff ff 	mov    %rax,-0xda0(%rbp)
    d03e:	48 8d 85 c8 ef ff ff 	lea    -0x1038(%rbp),%rax
    d045:	48 89 85 68 f2 ff ff 	mov    %rax,-0xd98(%rbp)
    d04c:	48 8d 05 f1 af 00 00 	lea    0xaff1(%rip),%rax        # 18044 <g_4+0x4>
    d053:	48 89 85 70 f2 ff ff 	mov    %rax,-0xd90(%rbp)
    d05a:	48 8d 85 bc ef ff ff 	lea    -0x1044(%rbp),%rax
    d061:	48 89 85 78 f2 ff ff 	mov    %rax,-0xd88(%rbp)
    d068:	48 8d 85 c8 ef ff ff 	lea    -0x1038(%rbp),%rax
    d06f:	48 89 85 80 f2 ff ff 	mov    %rax,-0xd80(%rbp)
    d076:	48 8d 85 c8 ef ff ff 	lea    -0x1038(%rbp),%rax
    d07d:	48 89 85 88 f2 ff ff 	mov    %rax,-0xd78(%rbp)
    d084:	48 8d 05 b9 af 00 00 	lea    0xafb9(%rip),%rax        # 18044 <g_4+0x4>
    d08b:	48 89 85 90 f2 ff ff 	mov    %rax,-0xd70(%rbp)
    d092:	48 8d 05 ab af 00 00 	lea    0xafab(%rip),%rax        # 18044 <g_4+0x4>
    d099:	48 89 85 98 f2 ff ff 	mov    %rax,-0xd68(%rbp)
    d0a0:	48 8d 05 9d af 00 00 	lea    0xaf9d(%rip),%rax        # 18044 <g_4+0x4>
    d0a7:	48 89 85 a0 f2 ff ff 	mov    %rax,-0xd60(%rbp)
    d0ae:	48 8d 05 8f af 00 00 	lea    0xaf8f(%rip),%rax        # 18044 <g_4+0x4>
    d0b5:	48 89 85 a8 f2 ff ff 	mov    %rax,-0xd58(%rbp)
    d0bc:	48 8d 05 81 af 00 00 	lea    0xaf81(%rip),%rax        # 18044 <g_4+0x4>
    d0c3:	48 89 85 b0 f2 ff ff 	mov    %rax,-0xd50(%rbp)
    d0ca:	48 8d 05 87 af 00 00 	lea    0xaf87(%rip),%rax        # 18058 <g_4+0x18>
    d0d1:	48 89 85 b8 f2 ff ff 	mov    %rax,-0xd48(%rbp)
    d0d8:	48 8d 85 bc ef ff ff 	lea    -0x1044(%rbp),%rax
    d0df:	48 89 85 c0 f2 ff ff 	mov    %rax,-0xd40(%rbp)
    d0e6:	48 8d 05 57 af 00 00 	lea    0xaf57(%rip),%rax        # 18044 <g_4+0x4>
    d0ed:	48 89 85 c8 f2 ff ff 	mov    %rax,-0xd38(%rbp)
    d0f4:	48 8d 05 5d af 00 00 	lea    0xaf5d(%rip),%rax        # 18058 <g_4+0x18>
    d0fb:	48 89 85 d0 f2 ff ff 	mov    %rax,-0xd30(%rbp)
    d102:	48 8d 05 3b af 00 00 	lea    0xaf3b(%rip),%rax        # 18044 <g_4+0x4>
    d109:	48 89 85 d8 f2 ff ff 	mov    %rax,-0xd28(%rbp)
    d110:	c7 85 f0 ef ff ff 09 	movl   $0x9,-0x1010(%rbp)
    d117:	00 00 00 
    d11a:	c7 85 f4 ef ff ff fc 	movl   $0xfffffffc,-0x100c(%rbp)
    d121:	ff ff ff 
    d124:	0f b7 05 87 b1 00 00 	movzwl 0xb187(%rip),%eax        # 182b2 <g_1262>
    d12b:	83 c0 01             	add    $0x1,%eax
    d12e:	66 89 05 7d b1 00 00 	mov    %ax,0xb17d(%rip)        # 182b2 <g_1262>
    d135:	0f b7 05 76 b1 00 00 	movzwl 0xb176(%rip),%eax        # 182b2 <g_1262>
    d13c:	66 83 f8 02          	cmp    $0x2,%ax
    d140:	0f 8e b6 fb ff ff    	jle    ccfc <func_55+0x549>
    d146:	8b 85 a4 ef ff ff    	mov    -0x105c(%rbp),%eax
    d14c:	48 8b 5d e8          	mov    -0x18(%rbp),%rbx
    d150:	64 48 33 1c 25 28 00 	xor    %fs:0x28,%rbx
    d157:	00 00 
    d159:	74 05                	je     d160 <func_55+0x9ad>
    d15b:	e8 10 bf ff ff       	callq  9070 <__stack_chk_fail@plt>
    d160:	48 81 c4 60 10 00 00 	add    $0x1060,%rsp
    d167:	5b                   	pop    %rbx
    d168:	41 5c                	pop    %r12
    d16a:	5d                   	pop    %rbp
    d16b:	c3                   	retq   

000000000000d16c <func_60>:
    d16c:	f3 0f 1e fa          	endbr64 
    d170:	55                   	push   %rbp
    d171:	48 89 e5             	mov    %rsp,%rbp
    d174:	41 55                	push   %r13
    d176:	41 54                	push   %r12
    d178:	53                   	push   %rbx
    d179:	48 81 ec d8 06 00 00 	sub    $0x6d8,%rsp
    d180:	48 89 bd 28 f9 ff ff 	mov    %rdi,-0x6d8(%rbp)
    d187:	48 89 b5 20 f9 ff ff 	mov    %rsi,-0x6e0(%rbp)
    d18e:	89 d0                	mov    %edx,%eax
    d190:	88 85 1c f9 ff ff    	mov    %al,-0x6e4(%rbp)
    d196:	64 48 8b 04 25 28 00 	mov    %fs:0x28,%rax
    d19d:	00 00 
    d19f:	48 89 45 d8          	mov    %rax,-0x28(%rbp)
    d1a3:	31 c0                	xor    %eax,%eax
    d1a5:	66 c7 85 3c f9 ff ff 	movw   $0xf8fe,-0x6c4(%rbp)
    d1ac:	fe f8 
    d1ae:	48 b8 ed a8 cf 8c 64 	movabs $0xa65785648ccfa8ed,%rax
    d1b5:	85 57 a6 
    d1b8:	48 89 85 60 fa ff ff 	mov    %rax,-0x5a0(%rbp)
    d1bf:	c7 85 78 f9 ff ff 38 	movl   $0xbc795c38,-0x688(%rbp)
    d1c6:	5c 79 bc 
    d1c9:	c7 85 7c f9 ff ff be 	movl   $0x42676ebe,-0x684(%rbp)
    d1d0:	6e 67 42 
    d1d3:	48 8d 05 7e cf 00 00 	lea    0xcf7e(%rip),%rax        # 1a158 <g_686>
    d1da:	48 89 85 58 fa ff ff 	mov    %rax,-0x5a8(%rbp)
    d1e1:	48 b8 8a c6 be d5 92 	movabs $0x1185e692d5bec68a,%rax
    d1e8:	e6 85 11 
    d1eb:	48 89 85 80 f9 ff ff 	mov    %rax,-0x680(%rbp)
    d1f2:	48 c7 85 88 f9 ff ff 	movq   $0x0,-0x678(%rbp)
    d1f9:	00 00 00 00 
    d1fd:	48 8d 85 88 f9 ff ff 	lea    -0x678(%rbp),%rax
    d204:	48 89 85 90 f9 ff ff 	mov    %rax,-0x670(%rbp)
    d20b:	48 8d 85 90 f9 ff ff 	lea    -0x670(%rbp),%rax
    d212:	48 89 85 50 fa ff ff 	mov    %rax,-0x5b0(%rbp)
    d219:	c6 85 3b f9 ff ff ba 	movb   $0xba,-0x6c5(%rbp)
    d220:	48 8d 05 a9 cf 00 00 	lea    0xcfa9(%rip),%rax        # 1a1d0 <g_1541>
    d227:	48 89 85 d0 fa ff ff 	mov    %rax,-0x530(%rbp)
    d22e:	48 8d 05 9b cf 00 00 	lea    0xcf9b(%rip),%rax        # 1a1d0 <g_1541>
    d235:	48 89 85 d8 fa ff ff 	mov    %rax,-0x528(%rbp)
    d23c:	48 c7 85 e0 fa ff ff 	movq   $0x0,-0x520(%rbp)
    d243:	00 00 00 00 
    d247:	48 8d 05 82 cf 00 00 	lea    0xcf82(%rip),%rax        # 1a1d0 <g_1541>
    d24e:	48 89 85 e8 fa ff ff 	mov    %rax,-0x518(%rbp)
    d255:	48 8d 05 74 cf 00 00 	lea    0xcf74(%rip),%rax        # 1a1d0 <g_1541>
    d25c:	48 89 85 f0 fa ff ff 	mov    %rax,-0x510(%rbp)
    d263:	48 c7 85 f8 fa ff ff 	movq   $0x0,-0x508(%rbp)
    d26a:	00 00 00 00 
    d26e:	48 8d 05 5b cf 00 00 	lea    0xcf5b(%rip),%rax        # 1a1d0 <g_1541>
    d275:	48 89 85 00 fb ff ff 	mov    %rax,-0x500(%rbp)
    d27c:	48 8d 05 4d cf 00 00 	lea    0xcf4d(%rip),%rax        # 1a1d0 <g_1541>
    d283:	48 89 85 08 fb ff ff 	mov    %rax,-0x4f8(%rbp)
    d28a:	48 c7 85 10 fb ff ff 	movq   $0x0,-0x4f0(%rbp)
    d291:	00 00 00 00 
    d295:	48 8d 05 34 cf 00 00 	lea    0xcf34(%rip),%rax        # 1a1d0 <g_1541>
    d29c:	48 89 85 18 fb ff ff 	mov    %rax,-0x4e8(%rbp)
    d2a3:	48 8d 05 26 cf 00 00 	lea    0xcf26(%rip),%rax        # 1a1d0 <g_1541>
    d2aa:	48 89 85 20 fb ff ff 	mov    %rax,-0x4e0(%rbp)
    d2b1:	48 c7 85 28 fb ff ff 	movq   $0x0,-0x4d8(%rbp)
    d2b8:	00 00 00 00 
    d2bc:	48 8d 05 0d cf 00 00 	lea    0xcf0d(%rip),%rax        # 1a1d0 <g_1541>
    d2c3:	48 89 85 30 fb ff ff 	mov    %rax,-0x4d0(%rbp)
    d2ca:	48 8d 05 ff ce 00 00 	lea    0xceff(%rip),%rax        # 1a1d0 <g_1541>
    d2d1:	48 89 85 38 fb ff ff 	mov    %rax,-0x4c8(%rbp)
    d2d8:	48 c7 85 40 fb ff ff 	movq   $0x0,-0x4c0(%rbp)
    d2df:	00 00 00 00 
    d2e3:	48 8d 05 e6 ce 00 00 	lea    0xcee6(%rip),%rax        # 1a1d0 <g_1541>
    d2ea:	48 89 85 48 fb ff ff 	mov    %rax,-0x4b8(%rbp)
    d2f1:	48 8d 05 d8 ce 00 00 	lea    0xced8(%rip),%rax        # 1a1d0 <g_1541>
    d2f8:	48 89 85 50 fb ff ff 	mov    %rax,-0x4b0(%rbp)
    d2ff:	48 c7 85 58 fb ff ff 	movq   $0x0,-0x4a8(%rbp)
    d306:	00 00 00 00 
    d30a:	48 8d 05 bf ce 00 00 	lea    0xcebf(%rip),%rax        # 1a1d0 <g_1541>
    d311:	48 89 85 60 fb ff ff 	mov    %rax,-0x4a0(%rbp)
    d318:	48 8d 05 b1 ce 00 00 	lea    0xceb1(%rip),%rax        # 1a1d0 <g_1541>
    d31f:	48 89 85 68 fb ff ff 	mov    %rax,-0x498(%rbp)
    d326:	48 b8 a4 e1 77 9e 33 	movabs $0xd93436339e77e1a4,%rax
    d32d:	36 34 d9 
    d330:	48 89 85 d8 f9 ff ff 	mov    %rax,-0x628(%rbp)
    d337:	48 b8 7c 7f 91 f3 50 	movabs $0x58667150f3917f7c,%rax
    d33e:	71 66 58 
    d341:	48 89 85 48 fa ff ff 	mov    %rax,-0x5b8(%rbp)
    d348:	c7 85 50 f9 ff ff 00 	movl   $0x0,-0x6b0(%rbp)
    d34f:	00 00 00 
    d352:	eb 1a                	jmp    d36e <func_60+0x202>
    d354:	8b 85 50 f9 ff ff    	mov    -0x6b0(%rbp),%eax
    d35a:	48 98                	cltq   
    d35c:	c7 84 85 68 fa ff ff 	movl   $0xfffffff9,-0x598(%rbp,%rax,4)
    d363:	f9 ff ff ff 
    d367:	83 85 50 f9 ff ff 01 	addl   $0x1,-0x6b0(%rbp)
    d36e:	83 bd 50 f9 ff ff 02 	cmpl   $0x2,-0x6b0(%rbp)
    d375:	7e dd                	jle    d354 <func_60+0x1e8>
    d377:	c7 85 50 f9 ff ff 00 	movl   $0x0,-0x6b0(%rbp)
    d37e:	00 00 00 
    d381:	eb 14                	jmp    d397 <func_60+0x22b>
    d383:	8b 85 50 f9 ff ff    	mov    -0x6b0(%rbp),%eax
    d389:	48 98                	cltq   
    d38b:	c6 44 05 d5 00       	movb   $0x0,-0x2b(%rbp,%rax,1)
    d390:	83 85 50 f9 ff ff 01 	addl   $0x1,-0x6b0(%rbp)
    d397:	83 bd 50 f9 ff ff 02 	cmpl   $0x2,-0x6b0(%rbp)
    d39e:	7e e3                	jle    d383 <func_60+0x217>
    d3a0:	c7 05 46 ad 00 00 00 	movl   $0x0,0xad46(%rip)        # 180f0 <g_566>
    d3a7:	00 00 00 
    d3aa:	e9 49 07 00 00       	jmpq   daf8 <func_60+0x98c>
    d3af:	48 c7 85 f8 f9 ff ff 	movq   $0xffffffffffffffff,-0x608(%rbp)
    d3b6:	ff ff ff ff 
    d3ba:	c6 85 3a f9 ff ff 02 	movb   $0x2,-0x6c6(%rbp)
    d3c1:	48 8d 05 ee ae 00 00 	lea    0xaeee(%rip),%rax        # 182b6 <g_1301>
    d3c8:	48 89 85 00 fa ff ff 	mov    %rax,-0x600(%rbp)
    d3cf:	c7 85 40 f9 ff ff 8a 	movl   $0x78a2098a,-0x6c0(%rbp)
    d3d6:	09 a2 78 
    d3d9:	48 8d 05 6c e5 00 00 	lea    0xe56c(%rip),%rax        # 1b94c <g_258>
    d3e0:	48 89 85 98 f9 ff ff 	mov    %rax,-0x668(%rbp)
    d3e7:	48 8d 05 8a ac 00 00 	lea    0xac8a(%rip),%rax        # 18078 <g_88>
    d3ee:	48 89 85 08 fa ff ff 	mov    %rax,-0x5f8(%rbp)
    d3f5:	48 8d 85 70 fb ff ff 	lea    -0x490(%rbp),%rax
    d3fc:	48 8d 15 dd c1 00 00 	lea    0xc1dd(%rip),%rdx        # 195e0 <g_3326+0xf4c>
    d403:	b9 8c 00 00 00       	mov    $0x8c,%ecx
    d408:	48 89 c7             	mov    %rax,%rdi
    d40b:	48 89 d6             	mov    %rdx,%rsi
    d40e:	f3 48 a5             	rep movsq %ds:(%rsi),%es:(%rdi)
    d411:	48 8d 85 70 fb ff ff 	lea    -0x490(%rbp),%rax
    d418:	48 05 38 01 00 00    	add    $0x138,%rax
    d41e:	48 89 85 10 fa ff ff 	mov    %rax,-0x5f0(%rbp)
    d425:	c7 85 60 f9 ff ff 01 	movl   $0x1,-0x6a0(%rbp)
    d42c:	00 00 00 
    d42f:	c7 85 64 f9 ff ff 06 	movl   $0xd6af106,-0x69c(%rbp)
    d436:	f1 6a 0d 
    d439:	c7 85 68 f9 ff ff 00 	movl   $0x0,-0x698(%rbp)
    d440:	00 00 00 
    d443:	c7 85 6c f9 ff ff bc 	movl   $0x987f47bc,-0x694(%rbp)
    d44a:	47 7f 98 
    d44d:	c7 85 70 f9 ff ff fa 	movl   $0xfffffffa,-0x690(%rbp)
    d454:	ff ff ff 
    d457:	66 c7 85 3e f9 ff ff 	movw   $0xaf4f,-0x6c2(%rbp)
    d45e:	4f af 
    d460:	c7 85 74 f9 ff ff 09 	movl   $0x9,-0x68c(%rbp)
    d467:	00 00 00 
    d46a:	48 8d 05 5b ac 00 00 	lea    0xac5b(%rip),%rax        # 180cc <g_189>
    d471:	48 89 85 a0 f9 ff ff 	mov    %rax,-0x660(%rbp)
    d478:	48 c7 85 18 fa ff ff 	movq   $0x0,-0x5e8(%rbp)
    d47f:	00 00 00 00 
    d483:	48 8d 85 a0 f9 ff ff 	lea    -0x660(%rbp),%rax
    d48a:	48 89 85 a8 f9 ff ff 	mov    %rax,-0x658(%rbp)
    d491:	48 8d 85 a8 f9 ff ff 	lea    -0x658(%rbp),%rax
    d498:	48 89 85 20 fa ff ff 	mov    %rax,-0x5e0(%rbp)
    d49f:	48 8d 05 f6 ab 00 00 	lea    0xabf6(%rip),%rax        # 1809c <g_100+0x1c>
    d4a6:	48 89 85 28 fa ff ff 	mov    %rax,-0x5d8(%rbp)
    d4ad:	48 8d 05 1c cd 00 00 	lea    0xcd1c(%rip),%rax        # 1a1d0 <g_1541>
    d4b4:	48 89 85 30 fa ff ff 	mov    %rax,-0x5d0(%rbp)
    d4bb:	48 8b 85 28 f9 ff ff 	mov    -0x6d8(%rbp),%rax
    d4c2:	41 89 c5             	mov    %eax,%r13d
    d4c5:	66 0f be 85 1c f9 ff 	movsbw -0x6e4(%rbp),%ax
    d4cc:	ff 
    d4cd:	0f b7 d8             	movzwl %ax,%ebx
    d4d0:	0f b6 85 3a f9 ff ff 	movzbl -0x6c6(%rbp),%eax
    d4d7:	44 0f be e0          	movsbl %al,%r12d
    d4db:	0f b6 85 1c f9 ff ff 	movzbl -0x6e4(%rbp),%eax
    d4e2:	88 05 28 ad 00 00    	mov    %al,0xad28(%rip)        # 18210 <g_1260+0x30>
    d4e8:	0f b6 05 21 ad 00 00 	movzbl 0xad21(%rip),%eax        # 18210 <g_1260+0x30>
    d4ef:	84 c0                	test   %al,%al
    d4f1:	74 1b                	je     d50e <func_60+0x3a2>
    d4f3:	be ff ff ff ff       	mov    $0xffffffff,%esi
    d4f8:	bf 00 00 00 00       	mov    $0x0,%edi
    d4fd:	e8 d1 be ff ff       	callq  93d3 <safe_sub_func_int16_t_s_s>
    d502:	66 85 c0             	test   %ax,%ax
    d505:	74 07                	je     d50e <func_60+0x3a2>
    d507:	b8 01 00 00 00       	mov    $0x1,%eax
    d50c:	eb 05                	jmp    d513 <func_60+0x3a7>
    d50e:	b8 00 00 00 00       	mov    $0x0,%eax
    d513:	44 39 e0             	cmp    %r12d,%eax
    d516:	0f 9c c0             	setl   %al
    d519:	0f b6 d0             	movzbl %al,%edx
    d51c:	48 8b 85 00 fa ff ff 	mov    -0x600(%rbp),%rax
    d523:	0f b6 00             	movzbl (%rax),%eax
    d526:	89 c1                	mov    %eax,%ecx
    d528:	89 d0                	mov    %edx,%eax
    d52a:	21 c8                	and    %ecx,%eax
    d52c:	89 c2                	mov    %eax,%edx
    d52e:	48 8b 85 00 fa ff ff 	mov    -0x600(%rbp),%rax
    d535:	88 10                	mov    %dl,(%rax)
    d537:	48 8b 85 00 fa ff ff 	mov    -0x600(%rbp),%rax
    d53e:	0f b6 00             	movzbl (%rax),%eax
    d541:	0f b6 d0             	movzbl %al,%edx
    d544:	0f b7 85 3c f9 ff ff 	movzwl -0x6c4(%rbp),%eax
    d54b:	0f b7 c0             	movzwl %ax,%eax
    d54e:	09 d0                	or     %edx,%eax
    d550:	48 63 d0             	movslq %eax,%rdx
    d553:	48 8b 85 20 f9 ff ff 	mov    -0x6e0(%rbp),%rax
    d55a:	48 8b 00             	mov    (%rax),%rax
    d55d:	48 39 c2             	cmp    %rax,%rdx
    d560:	0f 92 c0             	setb   %al
    d563:	0f b6 c0             	movzbl %al,%eax
    d566:	89 de                	mov    %ebx,%esi
    d568:	89 c7                	mov    %eax,%edi
    d56a:	e8 ce c7 ff ff       	callq  9d3d <safe_mul_func_uint16_t_u_u>
    d56f:	44 89 ee             	mov    %r13d,%esi
    d572:	bf 01 00 00 00       	mov    $0x1,%edi
    d577:	e8 d0 c6 ff ff       	callq  9c4c <safe_lshift_func_uint8_t_u_u>
    d57c:	48 8b 15 d5 d6 00 00 	mov    0xd6d5(%rip),%rdx        # 1ac58 <g_2254>
    d583:	48 8b 0a             	mov    (%rdx),%rcx
    d586:	48 8d 95 28 f9 ff ff 	lea    -0x6d8(%rbp),%rdx
    d58d:	48 39 d1             	cmp    %rdx,%rcx
    d590:	0f 94 c2             	sete   %dl
    d593:	0f b6 d2             	movzbl %dl,%edx
    d596:	0f b6 c8             	movzbl %al,%ecx
    d599:	8b 85 40 f9 ff ff    	mov    -0x6c0(%rbp),%eax
    d59f:	31 c8                	xor    %ecx,%eax
    d5a1:	89 85 40 f9 ff ff    	mov    %eax,-0x6c0(%rbp)
    d5a7:	8b 85 40 f9 ff ff    	mov    -0x6c0(%rbp),%eax
    d5ad:	39 c2                	cmp    %eax,%edx
    d5af:	0f 8f 53 02 00 00    	jg     d808 <func_60+0x69c>
    d5b5:	c7 85 44 f9 ff ff 18 	movl   $0x8c404218,-0x6bc(%rbp)
    d5bc:	42 40 8c 
    d5bf:	c7 85 54 f9 ff ff ff 	movl   $0xffffffff,-0x6ac(%rbp)
    d5c6:	ff ff ff 
    d5c9:	48 8d 05 b8 ca 00 00 	lea    0xcab8(%rip),%rax        # 1a088 <g_142>
    d5d0:	48 89 85 b0 f9 ff ff 	mov    %rax,-0x650(%rbp)
    d5d7:	48 c7 85 b8 f9 ff ff 	movq   $0x0,-0x648(%rbp)
    d5de:	00 00 00 00 
    d5e2:	48 8d 05 67 d6 00 00 	lea    0xd667(%rip),%rax        # 1ac50 <g_2162>
    d5e9:	48 89 85 40 fa ff ff 	mov    %rax,-0x5c0(%rbp)
    d5f0:	48 8d 05 61 cb 00 00 	lea    0xcb61(%rip),%rax        # 1a158 <g_686>
    d5f7:	48 89 85 c0 f9 ff ff 	mov    %rax,-0x640(%rbp)
    d5fe:	48 8d 85 c0 f9 ff ff 	lea    -0x640(%rbp),%rax
    d605:	48 89 85 90 fa ff ff 	mov    %rax,-0x570(%rbp)
    d60c:	48 8d 85 c0 f9 ff ff 	lea    -0x640(%rbp),%rax
    d613:	48 89 85 98 fa ff ff 	mov    %rax,-0x568(%rbp)
    d61a:	48 8d 85 c0 f9 ff ff 	lea    -0x640(%rbp),%rax
    d621:	48 89 85 a0 fa ff ff 	mov    %rax,-0x560(%rbp)
    d628:	48 8d 85 c0 f9 ff ff 	lea    -0x640(%rbp),%rax
    d62f:	48 89 85 a8 fa ff ff 	mov    %rax,-0x558(%rbp)
    d636:	48 8d 85 c0 f9 ff ff 	lea    -0x640(%rbp),%rax
    d63d:	48 89 85 b0 fa ff ff 	mov    %rax,-0x550(%rbp)
    d644:	48 8d 85 c0 f9 ff ff 	lea    -0x640(%rbp),%rax
    d64b:	48 89 85 b8 fa ff ff 	mov    %rax,-0x548(%rbp)
    d652:	48 8d 85 c0 f9 ff ff 	lea    -0x640(%rbp),%rax
    d659:	48 89 85 c0 fa ff ff 	mov    %rax,-0x540(%rbp)
    d660:	48 8d 85 c0 f9 ff ff 	lea    -0x640(%rbp),%rax
    d667:	48 89 85 c8 fa ff ff 	mov    %rax,-0x538(%rbp)
    d66e:	c7 85 48 f9 ff ff 9e 	movl   $0x4107a49e,-0x6b8(%rbp)
    d675:	a4 07 41 
    d678:	48 8d 05 e1 ad 00 00 	lea    0xade1(%rip),%rax        # 18460 <g_2387>
    d67f:	48 89 85 e0 f9 ff ff 	mov    %rax,-0x620(%rbp)
    d686:	48 8d 85 80 fa ff ff 	lea    -0x580(%rbp),%rax
    d68d:	48 83 c0 08          	add    $0x8,%rax
    d691:	48 89 85 e8 f9 ff ff 	mov    %rax,-0x618(%rbp)
    d698:	48 c7 85 c8 f9 ff ff 	movq   $0x0,-0x638(%rbp)
    d69f:	00 00 00 00 
    d6a3:	48 8d 85 c8 f9 ff ff 	lea    -0x638(%rbp),%rax
    d6aa:	48 89 85 f0 f9 ff ff 	mov    %rax,-0x610(%rbp)
    d6b1:	c7 85 58 f9 ff ff 00 	movl   $0x0,-0x6a8(%rbp)
    d6b8:	00 00 00 
    d6bb:	eb 1b                	jmp    d6d8 <func_60+0x56c>
    d6bd:	8b 85 58 f9 ff ff    	mov    -0x6a8(%rbp),%eax
    d6c3:	48 98                	cltq   
    d6c5:	48 c7 84 c5 80 fa ff 	movq   $0x0,-0x580(%rbp,%rax,8)
    d6cc:	ff 00 00 00 00 
    d6d1:	83 85 58 f9 ff ff 01 	addl   $0x1,-0x6a8(%rbp)
    d6d8:	83 bd 58 f9 ff ff 01 	cmpl   $0x1,-0x6a8(%rbp)
    d6df:	7e dc                	jle    d6bd <func_60+0x551>
    d6e1:	c7 85 58 f9 ff ff 00 	movl   $0x0,-0x6a8(%rbp)
    d6e8:	00 00 00 
    d6eb:	eb 1a                	jmp    d707 <func_60+0x59b>
    d6ed:	8b 85 58 f9 ff ff    	mov    -0x6a8(%rbp),%eax
    d6f3:	48 98                	cltq   
    d6f5:	c7 84 85 74 fa ff ff 	movl   $0xffffffff,-0x58c(%rbp,%rax,4)
    d6fc:	ff ff ff ff 
    d700:	83 85 58 f9 ff ff 01 	addl   $0x1,-0x6a8(%rbp)
    d707:	83 bd 58 f9 ff ff 02 	cmpl   $0x2,-0x6a8(%rbp)
    d70e:	7e dd                	jle    d6ed <func_60+0x581>
    d710:	0f b7 85 3c f9 ff ff 	movzwl -0x6c4(%rbp),%eax
    d717:	0f b7 d8             	movzwl %ax,%ebx
    d71a:	44 0f be a5 1c f9 ff 	movsbl -0x6e4(%rbp),%r12d
    d721:	ff 
    d722:	80 bd 1c f9 ff ff 00 	cmpb   $0x0,-0x6e4(%rbp)
    d729:	74 07                	je     d732 <func_60+0x5c6>
    d72b:	b8 01 00 00 00       	mov    $0x1,%eax
    d730:	eb 05                	jmp    d737 <func_60+0x5cb>
    d732:	b8 00 00 00 00       	mov    $0x0,%eax
    d737:	89 c6                	mov    %eax,%esi
    d739:	bf 88 00 00 00       	mov    $0x88,%edi
    d73e:	e8 4a c5 ff ff       	callq  9c8d <safe_rshift_func_uint8_t_u_s>
    d743:	0f b6 d0             	movzbl %al,%edx
    d746:	0f b7 85 3c f9 ff ff 	movzwl -0x6c4(%rbp),%eax
    d74d:	66 39 c2             	cmp    %ax,%dx
    d750:	0f 96 c0             	setbe  %al
    d753:	0f b6 c0             	movzbl %al,%eax
    d756:	41 39 c4             	cmp    %eax,%r12d
    d759:	0f 94 c0             	sete   %al
    d75c:	0f b6 c8             	movzbl %al,%ecx
    d75f:	48 8b 05 7a c9 00 00 	mov    0xc97a(%rip),%rax        # 1a0e0 <g_428>
    d766:	0f b7 10             	movzwl (%rax),%edx
    d769:	48 8b 05 70 c9 00 00 	mov    0xc970(%rip),%rax        # 1a0e0 <g_428>
    d770:	09 ca                	or     %ecx,%edx
    d772:	66 89 10             	mov    %dx,(%rax)
    d775:	0f b7 00             	movzwl (%rax),%eax
    d778:	98                   	cwtl   
    d779:	89 de                	mov    %ebx,%esi
    d77b:	89 c7                	mov    %eax,%edi
    d77d:	e8 5f bd ff ff       	callq  94e1 <safe_lshift_func_int16_t_s_u>
    d782:	0f bf d0             	movswl %ax,%edx
    d785:	48 8b 85 98 f9 ff ff 	mov    -0x668(%rbp),%rax
    d78c:	48 85 c0             	test   %rax,%rax
    d78f:	0f 94 c0             	sete   %al
    d792:	0f b6 c0             	movzbl %al,%eax
    d795:	89 d6                	mov    %edx,%esi
    d797:	89 c7                	mov    %eax,%edi
    d799:	e8 1a c7 ff ff       	callq  9eb8 <safe_add_func_uint32_t_u_u>
    d79e:	48 8b 85 98 f9 ff ff 	mov    -0x668(%rbp),%rax
    d7a5:	48 85 c0             	test   %rax,%rax
    d7a8:	0f 95 c0             	setne  %al
    d7ab:	0f b6 d8             	movzbl %al,%ebx
    d7ae:	48 8b 85 20 f9 ff ff 	mov    -0x6e0(%rbp),%rax
    d7b5:	48 8b 00             	mov    (%rax),%rax
    d7b8:	48 be 6c ac 08 8e 5d 	movabs $0x2bfb5a5d8e08ac6c,%rsi
    d7bf:	5a fb 2b 
    d7c2:	48 89 c7             	mov    %rax,%rdi
    d7c5:	e8 64 c8 ff ff       	callq  a02e <safe_add_func_uint64_t_u_u>
    d7ca:	0f be c0             	movsbl %al,%eax
    d7cd:	89 de                	mov    %ebx,%esi
    d7cf:	89 c7                	mov    %eax,%edi
    d7d1:	e8 fe b9 ff ff       	callq  91d4 <safe_add_func_int8_t_s_s>
    d7d6:	66 98                	cbtw   
    d7d8:	0f b7 c8             	movzwl %ax,%ecx
    d7db:	48 8b 05 56 ca 00 00 	mov    0xca56(%rip),%rax        # 1a238 <g_1640>
    d7e2:	48 8b 00             	mov    (%rax),%rax
    d7e5:	48 8b 00             	mov    (%rax),%rax
    d7e8:	0f b7 10             	movzwl (%rax),%edx
    d7eb:	8d 72 ff             	lea    -0x1(%rdx),%esi
    d7ee:	66 89 30             	mov    %si,(%rax)
    d7f1:	0f b7 c2             	movzwl %dx,%eax
    d7f4:	89 ce                	mov    %ecx,%esi
    d7f6:	89 c7                	mov    %eax,%edi
    d7f8:	e8 40 c5 ff ff       	callq  9d3d <safe_mul_func_uint16_t_u_u>
    d7fd:	0f b7 c0             	movzwl %ax,%eax
    d800:	89 85 54 f9 ff ff    	mov    %eax,-0x6ac(%rbp)
    d806:	eb 2e                	jmp    d836 <func_60+0x6ca>
    d808:	48 8d 05 81 a8 00 00 	lea    0xa881(%rip),%rax        # 18090 <g_100+0x10>
    d80f:	48 89 85 38 fa ff ff 	mov    %rax,-0x5c8(%rbp)
    d816:	48 8b 85 58 fa ff ff 	mov    -0x5a8(%rbp),%rax
    d81d:	48 8b 00             	mov    (%rax),%rax
    d820:	48 8b 00             	mov    (%rax),%rax
    d823:	48 39 85 38 fa ff ff 	cmp    %rax,-0x5c8(%rbp)
    d82a:	0f 94 c0             	sete   %al
    d82d:	0f b6 c0             	movzbl %al,%eax
    d830:	89 85 70 fa ff ff    	mov    %eax,-0x590(%rbp)
    d836:	c7 05 8c a8 00 00 00 	movl   $0x0,0xa88c(%rip)        # 180cc <g_189>
    d83d:	00 00 00 
    d840:	e9 86 02 00 00       	jmpq   dacb <func_60+0x95f>
    d845:	c7 85 5c f9 ff ff 01 	movl   $0x1,-0x6a4(%rbp)
    d84c:	00 00 00 
    d84f:	48 8d 05 62 a8 00 00 	lea    0xa862(%rip),%rax        # 180b8 <g_113>
    d856:	48 89 85 90 fa ff ff 	mov    %rax,-0x570(%rbp)
    d85d:	48 8d 05 54 a8 00 00 	lea    0xa854(%rip),%rax        # 180b8 <g_113>
    d864:	48 89 85 98 fa ff ff 	mov    %rax,-0x568(%rbp)
    d86b:	48 8d 05 46 a8 00 00 	lea    0xa846(%rip),%rax        # 180b8 <g_113>
    d872:	48 89 85 a0 fa ff ff 	mov    %rax,-0x560(%rbp)
    d879:	48 8d 05 38 a8 00 00 	lea    0xa838(%rip),%rax        # 180b8 <g_113>
    d880:	48 89 85 a8 fa ff ff 	mov    %rax,-0x558(%rbp)
    d887:	48 8d 05 2a a8 00 00 	lea    0xa82a(%rip),%rax        # 180b8 <g_113>
    d88e:	48 89 85 b0 fa ff ff 	mov    %rax,-0x550(%rbp)
    d895:	48 8d 05 1c a8 00 00 	lea    0xa81c(%rip),%rax        # 180b8 <g_113>
    d89c:	48 89 85 b8 fa ff ff 	mov    %rax,-0x548(%rbp)
    d8a3:	48 8d 05 0e a8 00 00 	lea    0xa80e(%rip),%rax        # 180b8 <g_113>
    d8aa:	48 89 85 c0 fa ff ff 	mov    %rax,-0x540(%rbp)
    d8b1:	48 8d 05 00 a8 00 00 	lea    0xa800(%rip),%rax        # 180b8 <g_113>
    d8b8:	48 89 85 c8 fa ff ff 	mov    %rax,-0x538(%rbp)
    d8bf:	8b 9d 5c f9 ff ff    	mov    -0x6a4(%rbp),%ebx
    d8c5:	48 8b 85 28 f9 ff ff 	mov    -0x6d8(%rbp),%rax
    d8cc:	0f be d0             	movsbl %al,%edx
    d8cf:	48 8b 85 80 f9 ff ff 	mov    -0x680(%rbp),%rax
    d8d6:	0f be c0             	movsbl %al,%eax
    d8d9:	89 d6                	mov    %edx,%esi
    d8db:	89 c7                	mov    %eax,%edi
    d8dd:	e8 30 b9 ff ff       	callq  9212 <safe_mul_func_int8_t_s_s>
    d8e2:	0f be d0             	movsbl %al,%edx
    d8e5:	48 8b 85 f8 fa ff ff 	mov    -0x508(%rbp),%rax
    d8ec:	48 39 85 30 fa ff ff 	cmp    %rax,-0x5d0(%rbp)
    d8f3:	0f 94 c0             	sete   %al
    d8f6:	0f b6 c0             	movzbl %al,%eax
    d8f9:	39 c2                	cmp    %eax,%edx
    d8fb:	0f 9f c0             	setg   %al
    d8fe:	0f b6 d0             	movzbl %al,%edx
    d901:	0f be 85 1c f9 ff ff 	movsbl -0x6e4(%rbp),%eax
    d908:	39 c2                	cmp    %eax,%edx
    d90a:	0f 94 c0             	sete   %al
    d90d:	0f b6 c0             	movzbl %al,%eax
    d910:	be 00 00 00 00       	mov    $0x0,%esi
    d915:	89 c7                	mov    %eax,%edi
    d917:	e8 e9 bc ff ff       	callq  9605 <safe_sub_func_int32_t_s_s>
    d91c:	0f be 95 1c f9 ff ff 	movsbl -0x6e4(%rbp),%edx
    d923:	39 d0                	cmp    %edx,%eax
    d925:	0f 9f c0             	setg   %al
    d928:	0f b6 c0             	movzbl %al,%eax
    d92b:	48 89 de             	mov    %rbx,%rsi
    d92e:	48 89 c7             	mov    %rax,%rdi
    d931:	e8 4a c7 ff ff       	callq  a080 <safe_mod_func_uint64_t_u_u>
    d936:	48 8b 85 20 fa ff ff 	mov    -0x5e0(%rbp),%rax
    d93d:	48 8b 00             	mov    (%rax),%rax
    d940:	48 8b 00             	mov    (%rax),%rax
    d943:	8b 00                	mov    (%rax),%eax
    d945:	83 f8 01             	cmp    $0x1,%eax
    d948:	0f 94 c2             	sete   %dl
    d94b:	48 8b 05 06 d3 00 00 	mov    0xd306(%rip),%rax        # 1ac58 <g_2254>
    d952:	48 8b 00             	mov    (%rax),%rax
    d955:	0f b6 d2             	movzbl %dl,%edx
    d958:	48 89 10             	mov    %rdx,(%rax)
    d95b:	48 8b 00             	mov    (%rax),%rax
    d95e:	48 85 c0             	test   %rax,%rax
    d961:	74 07                	je     d96a <func_60+0x7fe>
    d963:	b8 01 00 00 00       	mov    $0x1,%eax
    d968:	eb 05                	jmp    d96f <func_60+0x803>
    d96a:	b8 00 00 00 00       	mov    $0x0,%eax
    d96f:	0f be c0             	movsbl %al,%eax
    d972:	be 00 00 00 00       	mov    $0x0,%esi
    d977:	89 c7                	mov    %eax,%edi
    d979:	e8 56 b8 ff ff       	callq  91d4 <safe_add_func_int8_t_s_s>
    d97e:	c7 85 70 fa ff ff ce 	movl   $0x3fc8d8ce,-0x590(%rbp)
    d985:	d8 c8 3f 
    d988:	c6 05 a1 a9 00 00 00 	movb   $0x0,0xa9a1(%rip)        # 18330 <g_2120>
    d98f:	eb 3c                	jmp    d9cd <func_60+0x861>
    d991:	48 c7 85 d0 f9 ff ff 	movq   $0x0,-0x630(%rbp)
    d998:	00 00 00 00 
    d99c:	c7 85 4c f9 ff ff ff 	movl   $0xffffffff,-0x6b4(%rbp)
    d9a3:	ff ff ff 
    d9a6:	48 83 85 d8 f9 ff ff 	addq   $0x1,-0x628(%rbp)
    d9ad:	01 
    d9ae:	8b 85 6c fa ff ff    	mov    -0x594(%rbp),%eax
    d9b4:	83 f0 01             	xor    $0x1,%eax
    d9b7:	89 85 6c fa ff ff    	mov    %eax,-0x594(%rbp)
    d9bd:	0f b6 05 6c a9 00 00 	movzbl 0xa96c(%rip),%eax        # 18330 <g_2120>
    d9c4:	83 c0 01             	add    $0x1,%eax
    d9c7:	88 05 63 a9 00 00    	mov    %al,0xa963(%rip)        # 18330 <g_2120>
    d9cd:	0f b6 05 5c a9 00 00 	movzbl 0xa95c(%rip),%eax        # 18330 <g_2120>
    d9d4:	84 c0                	test   %al,%al
    d9d6:	74 b9                	je     d991 <func_60+0x825>
    d9d8:	0f be 9d 1c f9 ff ff 	movsbl -0x6e4(%rbp),%ebx
    d9df:	b8 f7 ff ff ff       	mov    $0xfffffff7,%eax
    d9e4:	0f be d0             	movsbl %al,%edx
    d9e7:	48 8b 05 92 c6 00 00 	mov    0xc692(%rip),%rax        # 1a080 <g_135>
    d9ee:	66 c7 00 01 00       	movw   $0x1,(%rax)
    d9f3:	48 8b 85 a0 f9 ff ff 	mov    -0x660(%rbp),%rax
    d9fa:	8b 00                	mov    (%rax),%eax
    d9fc:	85 c0                	test   %eax,%eax
    d9fe:	0f 9f c0             	setg   %al
    da01:	0f b6 c0             	movzbl %al,%eax
    da04:	89 d6                	mov    %edx,%esi
    da06:	89 c7                	mov    %eax,%edi
    da08:	e8 5d b8 ff ff       	callq  926a <safe_div_func_int8_t_s_s>
    da0d:	48 8b 85 a0 f9 ff ff 	mov    -0x660(%rbp),%rax
    da14:	8b 00                	mov    (%rax),%eax
    da16:	83 f8 01             	cmp    $0x1,%eax
    da19:	0f 95 c0             	setne  %al
    da1c:	0f b6 c0             	movzbl %al,%eax
    da1f:	48 89 c6             	mov    %rax,%rsi
    da22:	48 c7 c7 ff ff ff ff 	mov    $0xffffffffffffffff,%rdi
    da29:	e8 7a be ff ff       	callq  98a8 <safe_sub_func_int64_t_s_s>
    da2e:	0f be c0             	movsbl %al,%eax
    da31:	89 de                	mov    %ebx,%esi
    da33:	89 c7                	mov    %eax,%edi
    da35:	e8 d8 b7 ff ff       	callq  9212 <safe_mul_func_int8_t_s_s>
    da3a:	48 8b 85 28 f9 ff ff 	mov    -0x6d8(%rbp),%rax
    da41:	48 83 f8 01          	cmp    $0x1,%rax
    da45:	0f 97 c0             	seta   %al
    da48:	0f b6 d0             	movzbl %al,%edx
    da4b:	48 8b 05 5e c6 00 00 	mov    0xc65e(%rip),%rax        # 1a0b0 <g_316>
    da52:	48 8d 8d 68 fa ff ff 	lea    -0x598(%rbp),%rcx
    da59:	48 83 c1 08          	add    $0x8,%rcx
    da5d:	48 89 08             	mov    %rcx,(%rax)
    da60:	48 8b 00             	mov    (%rax),%rax
    da63:	48 8d 8d 68 fa ff ff 	lea    -0x598(%rbp),%rcx
    da6a:	48 83 c1 04          	add    $0x4,%rcx
    da6e:	48 39 c8             	cmp    %rcx,%rax
    da71:	0f 95 c0             	setne  %al
    da74:	0f b6 c0             	movzbl %al,%eax
    da77:	89 d6                	mov    %edx,%esi
    da79:	89 c7                	mov    %eax,%edi
    da7b:	e8 75 b9 ff ff       	callq  93f5 <safe_mul_func_int16_t_s_s>
    da80:	48 8b 85 20 fa ff ff 	mov    -0x5e0(%rbp),%rax
    da87:	48 8b 10             	mov    (%rax),%rdx
    da8a:	48 8b 85 20 fa ff ff 	mov    -0x5e0(%rbp),%rax
    da91:	48 89 10             	mov    %rdx,(%rax)
    da94:	48 8b 85 20 fa ff ff 	mov    -0x5e0(%rbp),%rax
    da9b:	48 8b 00             	mov    (%rax),%rax
    da9e:	48 8d 15 bb de 00 00 	lea    0xdebb(%rip),%rdx        # 1b960 <g_542>
    daa5:	48 39 d0             	cmp    %rdx,%rax
    daa8:	0f 95 c0             	setne  %al
    daab:	0f b6 d0             	movzbl %al,%edx
    daae:	8b 85 70 fa ff ff    	mov    -0x590(%rbp),%eax
    dab4:	31 d0                	xor    %edx,%eax
    dab6:	89 85 70 fa ff ff    	mov    %eax,-0x590(%rbp)
    dabc:	8b 05 0a a6 00 00    	mov    0xa60a(%rip),%eax        # 180cc <g_189>
    dac2:	83 c0 01             	add    $0x1,%eax
    dac5:	89 05 01 a6 00 00    	mov    %eax,0xa601(%rip)        # 180cc <g_189>
    dacb:	8b 05 fb a5 00 00    	mov    0xa5fb(%rip),%eax        # 180cc <g_189>
    dad1:	83 f8 05             	cmp    $0x5,%eax
    dad4:	0f 8e 6b fd ff ff    	jle    d845 <func_60+0x6d9>
    dada:	8b 05 10 a6 00 00    	mov    0xa610(%rip),%eax        # 180f0 <g_566>
    dae0:	0f b7 c0             	movzwl %ax,%eax
    dae3:	be 05 00 00 00       	mov    $0x5,%esi
    dae8:	89 c7                	mov    %eax,%edi
    daea:	e8 10 c2 ff ff       	callq  9cff <safe_add_func_uint16_t_u_u>
    daef:	0f b7 c0             	movzwl %ax,%eax
    daf2:	89 05 f8 a5 00 00    	mov    %eax,0xa5f8(%rip)        # 180f0 <g_566>
    daf8:	8b 05 f2 a5 00 00    	mov    0xa5f2(%rip),%eax        # 180f0 <g_566>
    dafe:	83 f8 23             	cmp    $0x23,%eax
    db01:	0f 84 a8 f8 ff ff    	je     d3af <func_60+0x243>
    db07:	48 8b 05 0a d7 00 00 	mov    0xd70a(%rip),%rax        # 1b218 <g_2808+0x458>
    db0e:	48 8b 5d d8          	mov    -0x28(%rbp),%rbx
    db12:	64 48 33 1c 25 28 00 	xor    %fs:0x28,%rbx
    db19:	00 00 
    db1b:	74 05                	je     db22 <func_60+0x9b6>
    db1d:	e8 4e b5 ff ff       	callq  9070 <__stack_chk_fail@plt>
    db22:	48 81 c4 d8 06 00 00 	add    $0x6d8,%rsp
    db29:	5b                   	pop    %rbx
    db2a:	41 5c                	pop    %r12
    db2c:	41 5d                	pop    %r13
    db2e:	5d                   	pop    %rbp
    db2f:	c3                   	retq   

000000000000db30 <func_74>:
    db30:	f3 0f 1e fa          	endbr64 
    db34:	55                   	push   %rbp
    db35:	48 89 e5             	mov    %rsp,%rbp
    db38:	48 81 ec 50 05 00 00 	sub    $0x550,%rsp
    db3f:	89 f8                	mov    %edi,%eax
    db41:	88 85 bc fa ff ff    	mov    %al,-0x544(%rbp)
    db47:	64 48 8b 04 25 28 00 	mov    %fs:0x28,%rax
    db4e:	00 00 
    db50:	48 89 45 f8          	mov    %rax,-0x8(%rbp)
    db54:	31 c0                	xor    %eax,%eax
    db56:	48 c7 85 10 fb ff ff 	movq   $0x0,-0x4f0(%rbp)
    db5d:	00 00 00 00 
    db61:	48 8d 05 20 c5 00 00 	lea    0xc520(%rip),%rax        # 1a088 <g_142>
    db68:	48 89 85 18 fb ff ff 	mov    %rax,-0x4e8(%rbp)
    db6f:	48 c7 85 20 fb ff ff 	movq   $0xfffffffffffffffd,-0x4e0(%rbp)
    db76:	fd ff ff ff 
    db7a:	48 c7 85 00 fb ff ff 	movq   $0x2,-0x500(%rbp)
    db81:	02 00 00 00 
    db85:	c7 45 f4 d1 d1 d1 d1 	movl   $0xd1d1d1d1,-0xc(%rbp)
    db8c:	48 8d 05 dd a4 00 00 	lea    0xa4dd(%rip),%rax        # 18070 <g_49>
    db93:	48 89 85 28 fb ff ff 	mov    %rax,-0x4d8(%rbp)
    db9a:	48 8d 05 4f a5 00 00 	lea    0xa54f(%rip),%rax        # 180f0 <g_566>
    dba1:	48 89 85 30 fb ff ff 	mov    %rax,-0x4d0(%rbp)
    dba8:	c7 85 d8 fa ff ff fb 	movl   $0xfffffffb,-0x528(%rbp)
    dbaf:	ff ff ff 
    dbb2:	48 8d 85 b0 fd ff ff 	lea    -0x250(%rbp),%rax
    dbb9:	48 8d 15 e0 61 00 00 	lea    0x61e0(%rip),%rdx        # 13da0 <g_2811+0xd34>
    dbc0:	b9 48 00 00 00       	mov    $0x48,%ecx
    dbc5:	48 89 c7             	mov    %rax,%rdi
    dbc8:	48 89 d6             	mov    %rdx,%rsi
    dbcb:	f3 48 a5             	rep movsq %ds:(%rsi),%es:(%rdi)
    dbce:	c7 85 dc fa ff ff ff 	movl   $0xffffffff,-0x524(%rbp)
    dbd5:	ff ff ff 
    dbd8:	c7 85 e0 fa ff ff 47 	movl   $0x8a197d47,-0x520(%rbp)
    dbdf:	7d 19 8a 
    dbe2:	c6 85 c4 fa ff ff ff 	movb   $0xff,-0x53c(%rbp)
    dbe9:	48 c7 85 38 fb ff ff 	movq   $0x0,-0x4c8(%rbp)
    dbf0:	00 00 00 00 
    dbf4:	c7 85 e4 fa ff ff a7 	movl   $0x8d9a5ba7,-0x51c(%rbp)
    dbfb:	5b 9a 8d 
    dbfe:	c7 85 60 fc ff ff 09 	movl   $0x9,-0x3a0(%rbp)
    dc05:	00 00 00 
    dc08:	c7 85 64 fc ff ff ff 	movl   $0xa0da42ff,-0x39c(%rbp)
    dc0f:	42 da a0 
    dc12:	c7 85 68 fc ff ff 61 	movl   $0x3e44461,-0x398(%rbp)
    dc19:	44 e4 03 
    dc1c:	c7 85 6c fc ff ff 19 	movl   $0x74226419,-0x394(%rbp)
    dc23:	64 22 74 
    dc26:	c7 85 70 fc ff ff 19 	movl   $0x74226419,-0x390(%rbp)
    dc2d:	64 22 74 
    dc30:	c7 85 74 fc ff ff ff 	movl   $0xa0da42ff,-0x38c(%rbp)
    dc37:	42 da a0 
    dc3a:	c7 85 78 fc ff ff a4 	movl   $0xf7f6cfa4,-0x388(%rbp)
    dc41:	cf f6 f7 
    dc44:	c7 85 7c fc ff ff ff 	movl   $0xffffffff,-0x384(%rbp)
    dc4b:	ff ff ff 
    dc4e:	c7 85 80 fc ff ff 27 	movl   $0x85ca7f27,-0x380(%rbp)
    dc55:	7f ca 85 
    dc58:	c7 85 84 fc ff ff a4 	movl   $0xf7f6cfa4,-0x37c(%rbp)
    dc5f:	cf f6 f7 
    dc62:	c7 85 88 fc ff ff 82 	movl   $0x9cff7b82,-0x378(%rbp)
    dc69:	7b ff 9c 
    dc6c:	c7 85 8c fc ff ff 09 	movl   $0x9,-0x374(%rbp)
    dc73:	00 00 00 
    dc76:	c7 85 90 fc ff ff 19 	movl   $0x74226419,-0x370(%rbp)
    dc7d:	64 22 74 
    dc80:	c7 85 94 fc ff ff fa 	movl   $0xfffffffa,-0x36c(%rbp)
    dc87:	ff ff ff 
    dc8a:	c7 85 98 fc ff ff ff 	movl   $0xffffffff,-0x368(%rbp)
    dc91:	ff ff ff 
    dc94:	c7 85 9c fc ff ff 09 	movl   $0x9,-0x364(%rbp)
    dc9b:	00 00 00 
    dc9e:	c7 85 a0 fc ff ff a4 	movl   $0xf7f6cfa4,-0x360(%rbp)
    dca5:	cf f6 f7 
    dca8:	c7 85 a4 fc ff ff 09 	movl   $0x9,-0x35c(%rbp)
    dcaf:	00 00 00 
    dcb2:	c7 85 a8 fc ff ff 2c 	movl   $0x9dfb602c,-0x358(%rbp)
    dcb9:	60 fb 9d 
    dcbc:	c7 85 ac fc ff ff 02 	movl   $0x2,-0x354(%rbp)
    dcc3:	00 00 00 
    dcc6:	c7 85 b0 fc ff ff 27 	movl   $0x85ca7f27,-0x350(%rbp)
    dccd:	7f ca 85 
    dcd0:	c7 85 b4 fc ff ff 00 	movl   $0x0,-0x34c(%rbp)
    dcd7:	00 00 00 
    dcda:	c7 85 b8 fc ff ff 02 	movl   $0x2,-0x348(%rbp)
    dce1:	00 00 00 
    dce4:	c7 85 bc fc ff ff ff 	movl   $0xa0da42ff,-0x344(%rbp)
    dceb:	42 da a0 
    dcee:	c7 85 c0 fc ff ff fa 	movl   $0xfffffffa,-0x340(%rbp)
    dcf5:	ff ff ff 
    dcf8:	c7 85 c4 fc ff ff a4 	movl   $0xf7f6cfa4,-0x33c(%rbp)
    dcff:	cf f6 f7 
    dd02:	c7 85 c8 fc ff ff 61 	movl   $0x3e44461,-0x338(%rbp)
    dd09:	44 e4 03 
    dd0c:	66 c7 85 c6 fa ff ff 	movw   $0x940f,-0x53a(%rbp)
    dd13:	0f 94 
    dd15:	48 c7 85 40 fb ff ff 	movq   $0x0,-0x4c0(%rbp)
    dd1c:	00 00 00 00 
    dd20:	48 8d 05 a9 c4 00 00 	lea    0xc4a9(%rip),%rax        # 1a1d0 <g_1541>
    dd27:	48 89 85 48 fb ff ff 	mov    %rax,-0x4b8(%rbp)
    dd2e:	c6 85 c5 fa ff ff 99 	movb   $0x99,-0x53b(%rbp)
    dd35:	66 c7 85 a0 fb ff ff 	movw   $0x1db0,-0x460(%rbp)
    dd3c:	b0 1d 
    dd3e:	66 c7 85 a2 fb ff ff 	movw   $0xf788,-0x45e(%rbp)
    dd45:	88 f7 
    dd47:	66 c7 85 a4 fb ff ff 	movw   $0x1db0,-0x45c(%rbp)
    dd4e:	b0 1d 
    dd50:	66 c7 85 a6 fb ff ff 	movw   $0xf788,-0x45a(%rbp)
    dd57:	88 f7 
    dd59:	66 c7 85 a8 fb ff ff 	movw   $0x1db0,-0x458(%rbp)
    dd60:	b0 1d 
    dd62:	66 c7 85 aa fb ff ff 	movw   $0xf788,-0x456(%rbp)
    dd69:	88 f7 
    dd6b:	66 c7 85 ac fb ff ff 	movw   $0x1db0,-0x454(%rbp)
    dd72:	b0 1d 
    dd74:	66 c7 85 ae fb ff ff 	movw   $0xf788,-0x452(%rbp)
    dd7b:	88 f7 
    dd7d:	66 c7 85 b0 fb ff ff 	movw   $0x1db0,-0x450(%rbp)
    dd84:	b0 1d 
    dd86:	66 c7 85 b2 fb ff ff 	movw   $0xf788,-0x44e(%rbp)
    dd8d:	88 f7 
    dd8f:	66 c7 85 b4 fb ff ff 	movw   $0x1db0,-0x44c(%rbp)
    dd96:	b0 1d 
    dd98:	66 c7 85 b6 fb ff ff 	movw   $0xf788,-0x44a(%rbp)
    dd9f:	88 f7 
    dda1:	66 c7 85 b8 fb ff ff 	movw   $0x1db0,-0x448(%rbp)
    dda8:	b0 1d 
    ddaa:	66 c7 85 ba fb ff ff 	movw   $0xf788,-0x446(%rbp)
    ddb1:	88 f7 
    ddb3:	66 c7 85 bc fb ff ff 	movw   $0x1db0,-0x444(%rbp)
    ddba:	b0 1d 
    ddbc:	66 c7 85 be fb ff ff 	movw   $0xf788,-0x442(%rbp)
    ddc3:	88 f7 
    ddc5:	48 8d 05 8c c3 00 00 	lea    0xc38c(%rip),%rax        # 1a158 <g_686>
    ddcc:	48 89 85 08 fb ff ff 	mov    %rax,-0x4f8(%rbp)
    ddd3:	48 8d 85 08 fb ff ff 	lea    -0x4f8(%rbp),%rax
    ddda:	48 89 85 50 fb ff ff 	mov    %rax,-0x4b0(%rbp)
    dde1:	48 c7 85 f0 fb ff ff 	movq   $0x0,-0x410(%rbp)
    dde8:	00 00 00 00 
    ddec:	48 c7 85 f8 fb ff ff 	movq   $0x0,-0x408(%rbp)
    ddf3:	00 00 00 00 
    ddf7:	48 c7 85 00 fc ff ff 	movq   $0x0,-0x400(%rbp)
    ddfe:	00 00 00 00 
    de02:	48 c7 85 08 fc ff ff 	movq   $0x0,-0x3f8(%rbp)
    de09:	00 00 00 00 
    de0d:	48 c7 85 10 fc ff ff 	movq   $0x0,-0x3f0(%rbp)
    de14:	00 00 00 00 
    de18:	c7 85 d0 fc ff ff 16 	movl   $0xbef15d16,-0x330(%rbp)
    de1f:	5d f1 be 
    de22:	c7 85 d4 fc ff ff a8 	movl   $0xa495ea8,-0x32c(%rbp)
    de29:	5e 49 0a 
    de2c:	c7 85 d8 fc ff ff c0 	movl   $0xb04466c0,-0x328(%rbp)
    de33:	66 44 b0 
    de36:	c7 85 dc fc ff ff b8 	movl   $0xc98ae9b8,-0x324(%rbp)
    de3d:	e9 8a c9 
    de40:	c7 85 e0 fc ff ff a4 	movl   $0xdee833a4,-0x320(%rbp)
    de47:	33 e8 de 
    de4a:	c7 85 e4 fc ff ff 7e 	movl   $0xacbbcf7e,-0x31c(%rbp)
    de51:	cf bb ac 
    de54:	c7 85 e8 fc ff ff a4 	movl   $0xdee833a4,-0x318(%rbp)
    de5b:	33 e8 de 
    de5e:	c7 85 ec fc ff ff fd 	movl   $0xfffffffd,-0x314(%rbp)
    de65:	ff ff ff 
    de68:	c7 85 f0 fc ff ff ff 	movl   $0xffffffff,-0x310(%rbp)
    de6f:	ff ff ff 
    de72:	c7 85 f4 fc ff ff 3a 	movl   $0x7a23013a,-0x30c(%rbp)
    de79:	01 23 7a 
    de7c:	c7 85 f8 fc ff ff ff 	movl   $0xffffffff,-0x308(%rbp)
    de83:	ff ff ff 
    de86:	c7 85 fc fc ff ff b8 	movl   $0xc98ae9b8,-0x304(%rbp)
    de8d:	e9 8a c9 
    de90:	c7 85 00 fd ff ff 16 	movl   $0xbef15d16,-0x300(%rbp)
    de97:	5d f1 be 
    de9a:	c7 85 04 fd ff ff 03 	movl   $0x3,-0x2fc(%rbp)
    dea1:	00 00 00 
    dea4:	c7 85 08 fd ff ff 23 	movl   $0xff4b6423,-0x2f8(%rbp)
    deab:	64 4b ff 
    deae:	c7 85 0c fd ff ff 08 	movl   $0x8,-0x2f4(%rbp)
    deb5:	00 00 00 
    deb8:	c7 85 10 fd ff ff 23 	movl   $0xff4b6423,-0x2f0(%rbp)
    debf:	64 4b ff 
    dec2:	c7 85 14 fd ff ff 03 	movl   $0x3,-0x2ec(%rbp)
    dec9:	00 00 00 
    decc:	c7 85 18 fd ff ff 16 	movl   $0xbef15d16,-0x2e8(%rbp)
    ded3:	5d f1 be 
    ded6:	c7 85 1c fd ff ff b8 	movl   $0xc98ae9b8,-0x2e4(%rbp)
    dedd:	e9 8a c9 
    dee0:	c7 85 20 fd ff ff ff 	movl   $0xffffffff,-0x2e0(%rbp)
    dee7:	ff ff ff 
    deea:	c7 85 24 fd ff ff 3a 	movl   $0x7a23013a,-0x2dc(%rbp)
    def1:	01 23 7a 
    def4:	c7 85 28 fd ff ff ff 	movl   $0xffffffff,-0x2d8(%rbp)
    defb:	ff ff ff 
    defe:	c7 85 2c fd ff ff fd 	movl   $0xfffffffd,-0x2d4(%rbp)
    df05:	ff ff ff 
    df08:	c7 85 30 fd ff ff a4 	movl   $0xdee833a4,-0x2d0(%rbp)
    df0f:	33 e8 de 
    df12:	c7 85 34 fd ff ff 7e 	movl   $0xacbbcf7e,-0x2cc(%rbp)
    df19:	cf bb ac 
    df1c:	c7 85 38 fd ff ff 18 	movl   $0x757e7418,-0x2c8(%rbp)
    df23:	74 7e 75 
    df26:	c7 85 3c fd ff ff 7e 	movl   $0xacbbcf7e,-0x2c4(%rbp)
    df2d:	cf bb ac 
    df30:	c7 85 40 fd ff ff a4 	movl   $0xdee833a4,-0x2c0(%rbp)
    df37:	33 e8 de 
    df3a:	c7 85 44 fd ff ff fd 	movl   $0xfffffffd,-0x2bc(%rbp)
    df41:	ff ff ff 
    df44:	c7 85 48 fd ff ff ff 	movl   $0xffffffff,-0x2b8(%rbp)
    df4b:	ff ff ff 
    df4e:	c7 85 4c fd ff ff 3a 	movl   $0x7a23013a,-0x2b4(%rbp)
    df55:	01 23 7a 
    df58:	c7 85 50 fd ff ff ff 	movl   $0xffffffff,-0x2b0(%rbp)
    df5f:	ff ff ff 
    df62:	c7 85 54 fd ff ff b8 	movl   $0xc98ae9b8,-0x2ac(%rbp)
    df69:	e9 8a c9 
    df6c:	c7 85 58 fd ff ff 16 	movl   $0xbef15d16,-0x2a8(%rbp)
    df73:	5d f1 be 
    df76:	c7 85 5c fd ff ff 03 	movl   $0x3,-0x2a4(%rbp)
    df7d:	00 00 00 
    df80:	c7 85 60 fd ff ff 23 	movl   $0xff4b6423,-0x2a0(%rbp)
    df87:	64 4b ff 
    df8a:	c7 85 64 fd ff ff 08 	movl   $0x8,-0x29c(%rbp)
    df91:	00 00 00 
    df94:	c7 85 68 fd ff ff 23 	movl   $0xff4b6423,-0x298(%rbp)
    df9b:	64 4b ff 
    df9e:	c7 85 6c fd ff ff 03 	movl   $0x3,-0x294(%rbp)
    dfa5:	00 00 00 
    dfa8:	c7 85 70 fd ff ff 16 	movl   $0xbef15d16,-0x290(%rbp)
    dfaf:	5d f1 be 
    dfb2:	c7 85 74 fd ff ff b8 	movl   $0xc98ae9b8,-0x28c(%rbp)
    dfb9:	e9 8a c9 
    dfbc:	c7 85 78 fd ff ff ff 	movl   $0xffffffff,-0x288(%rbp)
    dfc3:	ff ff ff 
    dfc6:	c7 85 7c fd ff ff 3a 	movl   $0x7a23013a,-0x284(%rbp)
    dfcd:	01 23 7a 
    dfd0:	c7 85 80 fd ff ff ff 	movl   $0xffffffff,-0x280(%rbp)
    dfd7:	ff ff ff 
    dfda:	c7 85 84 fd ff ff fd 	movl   $0xfffffffd,-0x27c(%rbp)
    dfe1:	ff ff ff 
    dfe4:	c7 85 88 fd ff ff a4 	movl   $0xdee833a4,-0x278(%rbp)
    dfeb:	33 e8 de 
    dfee:	c7 85 8c fd ff ff 7e 	movl   $0xacbbcf7e,-0x274(%rbp)
    dff5:	cf bb ac 
    dff8:	c7 85 90 fd ff ff 18 	movl   $0x757e7418,-0x270(%rbp)
    dfff:	74 7e 75 
    e002:	c7 85 94 fd ff ff 7e 	movl   $0xacbbcf7e,-0x26c(%rbp)
    e009:	cf bb ac 
    e00c:	c7 85 98 fd ff ff a4 	movl   $0xdee833a4,-0x268(%rbp)
    e013:	33 e8 de 
    e016:	c7 85 9c fd ff ff fd 	movl   $0xfffffffd,-0x264(%rbp)
    e01d:	ff ff ff 
    e020:	c7 85 a0 fd ff ff ff 	movl   $0xffffffff,-0x260(%rbp)
    e027:	ff ff ff 
    e02a:	c7 85 a4 fd ff ff 3a 	movl   $0x7a23013a,-0x25c(%rbp)
    e031:	01 23 7a 
    e034:	c7 85 e8 fa ff ff 01 	movl   $0x1,-0x518(%rbp)
    e03b:	00 00 00 
    e03e:	66 c7 85 c8 fa ff ff 	movw   $0x6c54,-0x538(%rbp)
    e045:	54 6c 
    e047:	48 8d 05 fa cb 00 00 	lea    0xcbfa(%rip),%rax        # 1ac48 <g_2163>
    e04e:	48 89 85 58 fb ff ff 	mov    %rax,-0x4a8(%rbp)
    e055:	c7 85 ec fa ff ff 1e 	movl   $0x51b67e1e,-0x514(%rbp)
    e05c:	7e b6 51 
    e05f:	c7 85 f0 fa ff ff 3b 	movl   $0x52cadb3b,-0x510(%rbp)
    e066:	db ca 52 
    e069:	48 8d 05 68 a0 00 00 	lea    0xa068(%rip),%rax        # 180d8 <g_207>
    e070:	48 89 85 20 fc ff ff 	mov    %rax,-0x3e0(%rbp)
    e077:	48 8d 05 5a a0 00 00 	lea    0xa05a(%rip),%rax        # 180d8 <g_207>
    e07e:	48 89 85 28 fc ff ff 	mov    %rax,-0x3d8(%rbp)
    e085:	48 8d 85 a0 fb ff ff 	lea    -0x460(%rbp),%rax
    e08c:	48 83 c0 12          	add    $0x12,%rax
    e090:	48 89 85 30 fc ff ff 	mov    %rax,-0x3d0(%rbp)
    e097:	48 8d 05 3a a0 00 00 	lea    0xa03a(%rip),%rax        # 180d8 <g_207>
    e09e:	48 89 85 38 fc ff ff 	mov    %rax,-0x3c8(%rbp)
    e0a5:	48 8d 05 2c a0 00 00 	lea    0xa02c(%rip),%rax        # 180d8 <g_207>
    e0ac:	48 89 85 40 fc ff ff 	mov    %rax,-0x3c0(%rbp)
    e0b3:	48 8d 85 a0 fb ff ff 	lea    -0x460(%rbp),%rax
    e0ba:	48 83 c0 12          	add    $0x12,%rax
    e0be:	48 89 85 48 fc ff ff 	mov    %rax,-0x3b8(%rbp)
    e0c5:	48 8d 05 0c a0 00 00 	lea    0xa00c(%rip),%rax        # 180d8 <g_207>
    e0cc:	48 89 85 50 fc ff ff 	mov    %rax,-0x3b0(%rbp)
    e0d3:	48 8d 05 fe 9f 00 00 	lea    0x9ffe(%rip),%rax        # 180d8 <g_207>
    e0da:	48 89 85 58 fc ff ff 	mov    %rax,-0x3a8(%rbp)
    e0e1:	c7 85 f4 fa ff ff cb 	movl   $0xd6eb6ecb,-0x50c(%rbp)
    e0e8:	6e eb d6 
    e0eb:	48 c7 85 60 fb ff ff 	movq   $0x0,-0x4a0(%rbp)
    e0f2:	00 00 00 00 
    e0f6:	c7 85 f8 fa ff ff e5 	movl   $0xab3997e5,-0x508(%rbp)
    e0fd:	97 39 ab 
    e100:	c7 85 fc fa ff ff ff 	movl   $0xffffffff,-0x504(%rbp)
    e107:	ff ff ff 
    e10a:	48 c7 85 68 fb ff ff 	movq   $0x0,-0x498(%rbp)
    e111:	00 00 00 00 
    e115:	66 c7 85 ca fa ff ff 	movw   $0x4f1f,-0x536(%rbp)
    e11c:	1f 4f 
    e11e:	c7 85 cc fa ff ff 00 	movl   $0x0,-0x534(%rbp)
    e125:	00 00 00 
    e128:	eb 1e                	jmp    e148 <func_74+0x618>
    e12a:	8b 85 cc fa ff ff    	mov    -0x534(%rbp),%eax
    e130:	48 98                	cltq   
    e132:	48 8d 15 af 9f 00 00 	lea    0x9faf(%rip),%rdx        # 180e8 <g_315>
    e139:	48 89 94 c5 80 fb ff 	mov    %rdx,-0x480(%rbp,%rax,8)
    e140:	ff 
    e141:	83 85 cc fa ff ff 01 	addl   $0x1,-0x534(%rbp)
    e148:	83 bd cc fa ff ff 02 	cmpl   $0x2,-0x534(%rbp)
    e14f:	7e d9                	jle    e12a <func_74+0x5fa>
    e151:	c7 85 cc fa ff ff 00 	movl   $0x0,-0x534(%rbp)
    e158:	00 00 00 
    e15b:	eb 75                	jmp    e1d2 <func_74+0x6a2>
    e15d:	c7 85 d0 fa ff ff 00 	movl   $0x0,-0x530(%rbp)
    e164:	00 00 00 
    e167:	eb 59                	jmp    e1c2 <func_74+0x692>
    e169:	c7 85 d4 fa ff ff 00 	movl   $0x0,-0x52c(%rbp)
    e170:	00 00 00 
    e173:	eb 3d                	jmp    e1b2 <func_74+0x682>
    e175:	8b 85 d4 fa ff ff    	mov    -0x52c(%rbp),%eax
    e17b:	48 63 f0             	movslq %eax,%rsi
    e17e:	8b 85 d0 fa ff ff    	mov    -0x530(%rbp),%eax
    e184:	48 63 c8             	movslq %eax,%rcx
    e187:	8b 85 cc fa ff ff    	mov    -0x534(%rbp),%eax
    e18d:	48 63 d0             	movslq %eax,%rdx
    e190:	48 89 d0             	mov    %rdx,%rax
    e193:	48 c1 e0 02          	shl    $0x2,%rax
    e197:	48 01 d0             	add    %rdx,%rax
    e19a:	48 01 f0             	add    %rsi,%rax
    e19d:	48 01 c8             	add    %rcx,%rax
    e1a0:	c7 84 85 c0 fb ff ff 	movl   $0xffffffff,-0x440(%rbp,%rax,4)
    e1a7:	ff ff ff ff 
    e1ab:	83 85 d4 fa ff ff 01 	addl   $0x1,-0x52c(%rbp)
    e1b2:	83 bd d4 fa ff ff 00 	cmpl   $0x0,-0x52c(%rbp)
    e1b9:	7e ba                	jle    e175 <func_74+0x645>
    e1bb:	83 85 d0 fa ff ff 01 	addl   $0x1,-0x530(%rbp)
    e1c2:	83 bd d0 fa ff ff 04 	cmpl   $0x4,-0x530(%rbp)
    e1c9:	7e 9e                	jle    e169 <func_74+0x639>
    e1cb:	83 85 cc fa ff ff 01 	addl   $0x1,-0x534(%rbp)
    e1d2:	83 bd cc fa ff ff 01 	cmpl   $0x1,-0x534(%rbp)
    e1d9:	7e 82                	jle    e15d <func_74+0x62d>
    e1db:	c7 85 cc fa ff ff 00 	movl   $0x0,-0x534(%rbp)
    e1e2:	00 00 00 
    e1e5:	eb 1b                	jmp    e202 <func_74+0x6d2>
    e1e7:	8b 85 cc fa ff ff    	mov    -0x534(%rbp),%eax
    e1ed:	48 98                	cltq   
    e1ef:	48 c7 84 c5 70 fb ff 	movq   $0xfffffffffffffffb,-0x490(%rbp,%rax,8)
    e1f6:	ff fb ff ff ff 
    e1fb:	83 85 cc fa ff ff 01 	addl   $0x1,-0x534(%rbp)
    e202:	83 bd cc fa ff ff 01 	cmpl   $0x1,-0x534(%rbp)
    e209:	7e dc                	jle    e1e7 <func_74+0x6b7>
    e20b:	48 8b 05 76 be 00 00 	mov    0xbe76(%rip),%rax        # 1a088 <g_142>
    e212:	8b 08                	mov    (%rax),%ecx
    e214:	0f b6 95 bc fa ff ff 	movzbl -0x544(%rbp),%edx
    e21b:	48 8b 05 66 be 00 00 	mov    0xbe66(%rip),%rax        # 1a088 <g_142>
    e222:	09 ca                	or     %ecx,%edx
    e224:	89 10                	mov    %edx,(%rax)
    e226:	48 8b 85 18 fb ff ff 	mov    -0x4e8(%rbp),%rax
    e22d:	48 8b 95 10 fb ff ff 	mov    -0x4f0(%rbp),%rdx
    e234:	48 89 10             	mov    %rdx,(%rax)
    e237:	0f b6 85 bc fa ff ff 	movzbl -0x544(%rbp),%eax
    e23e:	48 8b 7d f8          	mov    -0x8(%rbp),%rdi
    e242:	64 48 33 3c 25 28 00 	xor    %fs:0x28,%rdi
    e249:	00 00 
    e24b:	74 05                	je     e252 <func_74+0x722>
    e24d:	e8 1e ae ff ff       	callq  9070 <__stack_chk_fail@plt>
    e252:	c9                   	leaveq 
    e253:	c3                   	retq   

000000000000e254 <func_76>:
    e254:	f3 0f 1e fa          	endbr64 
    e258:	55                   	push   %rbp
    e259:	48 89 e5             	mov    %rsp,%rbp
    e25c:	89 7d ec             	mov    %edi,-0x14(%rbp)
    e25f:	48 89 75 e0          	mov    %rsi,-0x20(%rbp)
    e263:	48 89 55 d8          	mov    %rdx,-0x28(%rbp)
    e267:	48 89 4d d0          	mov    %rcx,-0x30(%rbp)
    e26b:	4c 89 45 c8          	mov    %r8,-0x38(%rbp)
    e26f:	48 8d 05 12 be 00 00 	lea    0xbe12(%rip),%rax        # 1a088 <g_142>
    e276:	48 89 45 f8          	mov    %rax,-0x8(%rbp)
    e27a:	48 8b 45 f8          	mov    -0x8(%rbp),%rax
    e27e:	48 8b 55 e0          	mov    -0x20(%rbp),%rdx
    e282:	48 89 10             	mov    %rdx,(%rax)
    e285:	8b 05 49 9e 00 00    	mov    0x9e49(%rip),%eax        # 180d4 <g_197>
    e28b:	5d                   	pop    %rbp
    e28c:	c3                   	retq   

000000000000e28d <func_82>:
    e28d:	f3 0f 1e fa          	endbr64 
    e291:	55                   	push   %rbp
    e292:	48 89 e5             	mov    %rsp,%rbp
    e295:	41 57                	push   %r15
    e297:	41 56                	push   %r14
    e299:	41 55                	push   %r13
    e29b:	41 54                	push   %r12
    e29d:	53                   	push   %rbx
    e29e:	48 81 ec 48 0d 00 00 	sub    $0xd48,%rsp
    e2a5:	89 bd bc f2 ff ff    	mov    %edi,-0xd44(%rbp)
    e2ab:	48 89 b5 b0 f2 ff ff 	mov    %rsi,-0xd50(%rbp)
    e2b2:	48 89 95 a8 f2 ff ff 	mov    %rdx,-0xd58(%rbp)
    e2b9:	48 89 8d a0 f2 ff ff 	mov    %rcx,-0xd60(%rbp)
    e2c0:	64 48 8b 04 25 28 00 	mov    %fs:0x28,%rax
    e2c7:	00 00 
    e2c9:	48 89 45 c8          	mov    %rax,-0x38(%rbp)
    e2cd:	31 c0                	xor    %eax,%eax
    e2cf:	48 8d 05 9b 9d 00 00 	lea    0x9d9b(%rip),%rax        # 18071 <g_54>
    e2d6:	48 89 85 a0 f3 ff ff 	mov    %rax,-0xc60(%rbp)
    e2dd:	c7 85 20 f3 ff ff 79 	movl   $0x1a435c79,-0xce0(%rbp)
    e2e4:	5c 43 1a 
    e2e7:	c7 85 24 f3 ff ff 04 	movl   $0x4,-0xcdc(%rbp)
    e2ee:	00 00 00 
    e2f1:	c7 85 d8 f2 ff ff 01 	movl   $0x1,-0xd28(%rbp)
    e2f8:	00 00 00 
    e2fb:	c6 85 c7 f2 ff ff 01 	movb   $0x1,-0xd39(%rbp)
    e302:	66 c7 85 ce f2 ff ff 	movw   $0xfffa,-0xd32(%rbp)
    e309:	fa ff 
    e30b:	48 8d 05 ce 9d 00 00 	lea    0x9dce(%rip),%rax        # 180e0 <g_255>
    e312:	48 89 85 a8 f3 ff ff 	mov    %rax,-0xc58(%rbp)
    e319:	48 8d 05 68 bd 00 00 	lea    0xbd68(%rip),%rax        # 1a088 <g_142>
    e320:	48 89 85 68 f3 ff ff 	mov    %rax,-0xc98(%rbp)
    e327:	48 8d 85 68 f3 ff ff 	lea    -0xc98(%rbp),%rax
    e32e:	48 89 85 b0 f3 ff ff 	mov    %rax,-0xc50(%rbp)
    e335:	c7 85 20 f5 ff ff b3 	movl   $0xfe50afb3,-0xae0(%rbp)
    e33c:	af 50 fe 
    e33f:	c7 85 24 f5 ff ff 7b 	movl   $0x44cfde7b,-0xadc(%rbp)
    e346:	de cf 44 
    e349:	c7 85 28 f5 ff ff b3 	movl   $0xfe50afb3,-0xad8(%rbp)
    e350:	af 50 fe 
    e353:	c7 85 2c f5 ff ff b3 	movl   $0xfe50afb3,-0xad4(%rbp)
    e35a:	af 50 fe 
    e35d:	c7 85 30 f5 ff ff 7b 	movl   $0x44cfde7b,-0xad0(%rbp)
    e364:	de cf 44 
    e367:	c7 85 34 f5 ff ff b3 	movl   $0xfe50afb3,-0xacc(%rbp)
    e36e:	af 50 fe 
    e371:	48 b8 80 d5 f8 9c f6 	movabs $0x3c9576f69cf8d580,%rax
    e378:	76 95 3c 
    e37b:	48 89 85 b8 f3 ff ff 	mov    %rax,-0xc48(%rbp)
    e382:	c7 85 e8 f2 ff ff bb 	movl   $0x8e3621bb,-0xd18(%rbp)
    e389:	21 36 8e 
    e38c:	c6 85 c6 f2 ff ff 05 	movb   $0x5,-0xd3a(%rbp)
    e393:	48 8d 85 d0 f8 ff ff 	lea    -0x730(%rbp),%rax
    e39a:	48 8d 15 9f b6 00 00 	lea    0xb69f(%rip),%rdx        # 19a40 <g_3326+0x13ac>
    e3a1:	b9 60 00 00 00       	mov    $0x60,%ecx
    e3a6:	48 89 c7             	mov    %rax,%rdi
    e3a9:	48 89 d6             	mov    %rdx,%rsi
    e3ac:	f3 48 a5             	rep movsq %ds:(%rsi),%es:(%rdi)
    e3af:	48 c7 85 c0 f3 ff ff 	movq   $0x0,-0xc40(%rbp)
    e3b6:	00 00 00 00 
    e3ba:	c7 85 dc f2 ff ff 09 	movl   $0x9,-0xd24(%rbp)
    e3c1:	00 00 00 
    e3c4:	c6 85 c8 f2 ff ff 1b 	movb   $0x1b,-0xd38(%rbp)
    e3cb:	c7 85 ec f2 ff ff 00 	movl   $0x0,-0xd14(%rbp)
    e3d2:	00 00 00 
    e3d5:	eb 1e                	jmp    e3f5 <func_82+0x168>
    e3d7:	8b 85 ec f2 ff ff    	mov    -0xd14(%rbp),%eax
    e3dd:	48 98                	cltq   
    e3df:	48 8d 15 66 d5 00 00 	lea    0xd566(%rip),%rdx        # 1b94c <g_258>
    e3e6:	48 89 94 c5 60 f5 ff 	mov    %rdx,-0xaa0(%rbp,%rax,8)
    e3ed:	ff 
    e3ee:	83 85 ec f2 ff ff 01 	addl   $0x1,-0xd14(%rbp)
    e3f5:	83 bd ec f2 ff ff 04 	cmpl   $0x4,-0xd14(%rbp)
    e3fc:	7e d9                	jle    e3d7 <func_82+0x14a>
    e3fe:	48 8b 0d 93 98 00 00 	mov    0x9893(%rip),%rcx        # 17c98 <l_99.4682+0xd8>
    e405:	8b 3d 91 9c 00 00    	mov    0x9c91(%rip),%edi        # 1809c <g_100+0x1c>
    e40b:	48 8b 95 a0 f3 ff ff 	mov    -0xc60(%rbp),%rdx
    e412:	48 8b 35 5f 9c 00 00 	mov    0x9c5f(%rip),%rsi        # 18078 <g_88>
    e419:	48 8b 85 a0 f3 ff ff 	mov    -0xc60(%rbp),%rax
    e420:	41 89 f8             	mov    %edi,%r8d
    e423:	48 89 c7             	mov    %rax,%rdi
    e426:	e8 72 25 00 00       	callq  1099d <func_92>
    e42b:	48 89 c2             	mov    %rax,%rdx
    e42e:	48 8b 1d 73 bc 00 00 	mov    0xbc73(%rip),%rbx        # 1a0a8 <g_287>
    e435:	48 8b 05 3c 9c 00 00 	mov    0x9c3c(%rip),%rax        # 18078 <g_88>
    e43c:	48 89 c6             	mov    %rax,%rsi
    e43f:	48 89 d7             	mov    %rdx,%rdi
    e442:	e8 2d 1d 00 00       	callq  10174 <func_89>
    e447:	48 89 03             	mov    %rax,(%rbx)
    e44a:	48 8b 05 27 9c 00 00 	mov    0x9c27(%rip),%rax        # 18078 <g_88>
    e451:	0f b6 d8             	movzbl %al,%ebx
    e454:	8b 85 24 f3 ff ff    	mov    -0xcdc(%rbp),%eax
    e45a:	44 0f b6 e0          	movzbl %al,%r12d
    e45e:	0f b7 05 73 9c 00 00 	movzwl 0x9c73(%rip),%eax        # 180d8 <g_207>
    e465:	66 85 c0             	test   %ax,%ax
    e468:	74 3e                	je     e4a8 <func_82+0x21b>
    e46a:	83 bd 24 f3 ff ff 00 	cmpl   $0x0,-0xcdc(%rbp)
    e471:	75 14                	jne    e487 <func_82+0x1fa>
    e473:	8b 85 a8 f2 ff ff    	mov    -0xd58(%rbp),%eax
    e479:	85 c0                	test   %eax,%eax
    e47b:	75 0a                	jne    e487 <func_82+0x1fa>
    e47d:	8b 85 d8 f2 ff ff    	mov    -0xd28(%rbp),%eax
    e483:	85 c0                	test   %eax,%eax
    e485:	74 07                	je     e48e <func_82+0x201>
    e487:	b8 01 00 00 00       	mov    $0x1,%eax
    e48c:	eb 05                	jmp    e493 <func_82+0x206>
    e48e:	b8 00 00 00 00       	mov    $0x0,%eax
    e493:	0f b7 d0             	movzwl %ax,%edx
    e496:	8b 85 24 f3 ff ff    	mov    -0xcdc(%rbp),%eax
    e49c:	0f b7 c0             	movzwl %ax,%eax
    e49f:	89 d6                	mov    %edx,%esi
    e4a1:	89 c7                	mov    %eax,%edi
    e4a3:	e8 95 b8 ff ff       	callq  9d3d <safe_mul_func_uint16_t_u_u>
    e4a8:	b8 00 00 00 00       	mov    $0x0,%eax
    e4ad:	3b 85 24 f3 ff ff    	cmp    -0xcdc(%rbp),%eax
    e4b3:	0f 94 c0             	sete   %al
    e4b6:	0f b6 d0             	movzbl %al,%edx
    e4b9:	8b 85 a0 f2 ff ff    	mov    -0xd60(%rbp),%eax
    e4bf:	39 c2                	cmp    %eax,%edx
    e4c1:	0f 9d c0             	setge  %al
    e4c4:	0f b6 d0             	movzbl %al,%edx
    e4c7:	0f b7 85 ce f2 ff ff 	movzwl -0xd32(%rbp),%eax
    e4ce:	0f b7 c0             	movzwl %ax,%eax
    e4d1:	39 c2                	cmp    %eax,%edx
    e4d3:	0f 95 c0             	setne  %al
    e4d6:	0f b6 c0             	movzbl %al,%eax
    e4d9:	be 0a 00 00 00       	mov    $0xa,%esi
    e4de:	89 c7                	mov    %eax,%edi
    e4e0:	e8 ad af ff ff       	callq  9492 <safe_lshift_func_int16_t_s_s>
    e4e5:	0f bf d0             	movswl %ax,%edx
    e4e8:	8b 05 da 9b 00 00    	mov    0x9bda(%rip),%eax        # 180c8 <g_186>
    e4ee:	39 c2                	cmp    %eax,%edx
    e4f0:	0f 9f c0             	setg   %al
    e4f3:	0f b6 c0             	movzbl %al,%eax
    e4f6:	be b7 97 61 bf       	mov    $0xbf6197b7,%esi
    e4fb:	89 c7                	mov    %eax,%edi
    e4fd:	e8 fb b9 ff ff       	callq  9efd <safe_mod_func_uint32_t_u_u>
    e502:	0f b6 c0             	movzbl %al,%eax
    e505:	44 89 e6             	mov    %r12d,%esi
    e508:	89 c7                	mov    %eax,%edi
    e50a:	e8 9f b6 ff ff       	callq  9bae <safe_mod_func_uint8_t_u_u>
    e50f:	84 c0                	test   %al,%al
    e511:	0f 94 c0             	sete   %al
    e514:	0f b6 d0             	movzbl %al,%edx
    e517:	48 8b 85 a8 f2 ff ff 	mov    -0xd58(%rbp),%rax
    e51e:	48 39 c2             	cmp    %rax,%rdx
    e521:	0f 9f c0             	setg   %al
    e524:	0f b6 c0             	movzbl %al,%eax
    e527:	39 85 20 f3 ff ff    	cmp    %eax,-0xce0(%rbp)
    e52d:	0f 9e c0             	setle  %al
    e530:	0f b6 d0             	movzbl %al,%edx
    e533:	48 8b 85 a8 f3 ff ff 	mov    -0xc58(%rbp),%rax
    e53a:	48 89 10             	mov    %rdx,(%rax)
    e53d:	48 8b 85 a8 f3 ff ff 	mov    -0xc58(%rbp),%rax
    e544:	48 8b 00             	mov    (%rax),%rax
    e547:	48 85 c0             	test   %rax,%rax
    e54a:	74 11                	je     e55d <func_82+0x2d0>
    e54c:	8b 85 a8 f2 ff ff    	mov    -0xd58(%rbp),%eax
    e552:	85 c0                	test   %eax,%eax
    e554:	74 07                	je     e55d <func_82+0x2d0>
    e556:	b8 01 00 00 00       	mov    $0x1,%eax
    e55b:	eb 05                	jmp    e562 <func_82+0x2d5>
    e55d:	b8 00 00 00 00       	mov    $0x0,%eax
    e562:	89 c2                	mov    %eax,%edx
    e564:	0f b7 05 7d 9b 00 00 	movzwl 0x9b7d(%rip),%eax        # 180e8 <g_315>
    e56b:	09 d0                	or     %edx,%eax
    e56d:	66 89 05 74 9b 00 00 	mov    %ax,0x9b74(%rip)        # 180e8 <g_315>
    e574:	89 de                	mov    %ebx,%esi
    e576:	bf 00 00 00 00       	mov    $0x0,%edi
    e57b:	e8 da b5 ff ff       	callq  9b5a <safe_add_func_uint8_t_u_u>
    e580:	8b 85 a0 f2 ff ff    	mov    -0xd60(%rbp),%eax
    e586:	25 ff ff 1f 00       	and    $0x1fffff,%eax
    e58b:	85 c0                	test   %eax,%eax
    e58d:	74 07                	je     e596 <func_82+0x309>
    e58f:	ba 01 00 00 00       	mov    $0x1,%edx
    e594:	eb 05                	jmp    e59b <func_82+0x30e>
    e596:	ba 00 00 00 00       	mov    $0x0,%edx
    e59b:	48 8b 05 e6 ba 00 00 	mov    0xbae6(%rip),%rax        # 1a088 <g_142>
    e5a2:	8b 00                	mov    (%rax),%eax
    e5a4:	89 d6                	mov    %edx,%esi
    e5a6:	89 c7                	mov    %eax,%edi
    e5a8:	e8 52 b1 ff ff       	callq  96ff <safe_div_func_int32_t_s_s>
    e5ad:	0b 85 20 f3 ff ff    	or     -0xce0(%rbp),%eax
    e5b3:	85 c0                	test   %eax,%eax
    e5b5:	0f 95 c0             	setne  %al
    e5b8:	0f b6 d0             	movzbl %al,%edx
    e5bb:	48 8b 85 a0 f2 ff ff 	mov    -0xd60(%rbp),%rax
    e5c2:	48 89 d6             	mov    %rdx,%rsi
    e5c5:	48 89 c7             	mov    %rax,%rdi
    e5c8:	e8 db b2 ff ff       	callq  98a8 <safe_sub_func_int64_t_s_s>
    e5cd:	8b 05 e5 9a 00 00    	mov    0x9ae5(%rip),%eax        # 180b8 <g_113>
    e5d3:	0f be c0             	movsbl %al,%eax
    e5d6:	89 c6                	mov    %eax,%esi
    e5d8:	bf c5 ff ff ff       	mov    $0xffffffc5,%edi
    e5dd:	e8 30 ac ff ff       	callq  9212 <safe_mul_func_int8_t_s_s>
    e5e2:	81 bd 24 f3 ff ff b6 	cmpl   $0x70ab4fb6,-0xcdc(%rbp)
    e5e9:	4f ab 70 
    e5ec:	48 8b 05 a5 ba 00 00 	mov    0xbaa5(%rip),%rax        # 1a098 <g_284>
    e5f3:	48 8b 10             	mov    (%rax),%rdx
    e5f6:	48 8b 05 8b ba 00 00 	mov    0xba8b(%rip),%rax        # 1a088 <g_142>
    e5fd:	8b 12                	mov    (%rdx),%edx
    e5ff:	89 10                	mov    %edx,(%rax)
    e601:	8b 00                	mov    (%rax),%eax
    e603:	85 c0                	test   %eax,%eax
    e605:	0f 84 51 02 00 00    	je     e85c <func_82+0x5cf>
    e60b:	48 8d 05 d6 9a 00 00 	lea    0x9ad6(%rip),%rax        # 180e8 <g_315>
    e612:	48 89 85 b0 f4 ff ff 	mov    %rax,-0xb50(%rbp)
    e619:	48 8d 05 80 ba 00 00 	lea    0xba80(%rip),%rax        # 1a0a0 <g_288>
    e620:	48 89 85 90 f3 ff ff 	mov    %rax,-0xc70(%rbp)
    e627:	48 8d 85 90 f3 ff ff 	lea    -0xc70(%rbp),%rax
    e62e:	48 89 85 b8 f4 ff ff 	mov    %rax,-0xb48(%rbp)
    e635:	48 8d 05 7c 9a 00 00 	lea    0x9a7c(%rip),%rax        # 180b8 <g_113>
    e63c:	48 89 85 c0 f4 ff ff 	mov    %rax,-0xb40(%rbp)
    e643:	c7 85 3c f3 ff ff 98 	movl   $0x73eab098,-0xcc4(%rbp)
    e64a:	b0 ea 73 
    e64d:	c7 85 88 f3 ff ff 70 	movl   $0x27d7d170,-0xc78(%rbp)
    e654:	d1 d7 27 
    e657:	c7 85 40 f3 ff ff b6 	movl   $0x9123e0b6,-0xcc0(%rbp)
    e65e:	e0 23 91 
    e661:	c7 85 44 f3 ff ff 52 	movl   $0xf694d52,-0xcbc(%rbp)
    e668:	4d 69 0f 
    e66b:	48 c7 85 98 f3 ff ff 	movq   $0x0,-0xc68(%rbp)
    e672:	00 00 00 00 
    e676:	c7 85 48 f3 ff ff cd 	movl   $0xc3bf75cd,-0xcb8(%rbp)
    e67d:	75 bf c3 
    e680:	c7 85 4c f3 ff ff 07 	movl   $0x4170b407,-0xcb4(%rbp)
    e687:	b4 70 41 
    e68a:	48 8d 05 e7 99 00 00 	lea    0x99e7(%rip),%rax        # 18078 <g_88>
    e691:	48 89 85 40 f7 ff ff 	mov    %rax,-0x8c0(%rbp)
    e698:	48 8d 05 d9 99 00 00 	lea    0x99d9(%rip),%rax        # 18078 <g_88>
    e69f:	48 89 85 48 f7 ff ff 	mov    %rax,-0x8b8(%rbp)
    e6a6:	48 8d 05 cb 99 00 00 	lea    0x99cb(%rip),%rax        # 18078 <g_88>
    e6ad:	48 89 85 50 f7 ff ff 	mov    %rax,-0x8b0(%rbp)
    e6b4:	48 8d 05 bd 99 00 00 	lea    0x99bd(%rip),%rax        # 18078 <g_88>
    e6bb:	48 89 85 58 f7 ff ff 	mov    %rax,-0x8a8(%rbp)
    e6c2:	48 8d 05 af 99 00 00 	lea    0x99af(%rip),%rax        # 18078 <g_88>
    e6c9:	48 89 85 60 f7 ff ff 	mov    %rax,-0x8a0(%rbp)
    e6d0:	48 8d 05 a1 99 00 00 	lea    0x99a1(%rip),%rax        # 18078 <g_88>
    e6d7:	48 89 85 68 f7 ff ff 	mov    %rax,-0x898(%rbp)
    e6de:	48 8d 05 93 99 00 00 	lea    0x9993(%rip),%rax        # 18078 <g_88>
    e6e5:	48 89 85 70 f7 ff ff 	mov    %rax,-0x890(%rbp)
    e6ec:	48 8d 05 85 99 00 00 	lea    0x9985(%rip),%rax        # 18078 <g_88>
    e6f3:	48 89 85 78 f7 ff ff 	mov    %rax,-0x888(%rbp)
    e6fa:	48 8d 05 77 99 00 00 	lea    0x9977(%rip),%rax        # 18078 <g_88>
    e701:	48 89 85 80 f7 ff ff 	mov    %rax,-0x880(%rbp)
    e708:	c7 85 50 f3 ff ff 5d 	movl   $0x719a145d,-0xcb0(%rbp)
    e70f:	14 9a 71 
    e712:	66 c7 85 d4 f2 ff ff 	movw   $0x9c28,-0xd2c(%rbp)
    e719:	28 9c 
    e71b:	c7 85 54 f3 ff ff ff 	movl   $0xffffffff,-0xcac(%rbp)
    e722:	ff ff ff 
    e725:	48 c7 85 a0 f2 ff ff 	movq   $0x0,-0xd60(%rbp)
    e72c:	00 00 00 00 
    e730:	eb 35                	jmp    e767 <func_82+0x4da>
    e732:	48 8b 95 a0 f2 ff ff 	mov    -0xd60(%rbp),%rdx
    e739:	48 8b 05 70 b9 00 00 	mov    0xb970(%rip),%rax        # 1a0b0 <g_316>
    e740:	48 8d 0c 95 00 00 00 	lea    0x0(,%rdx,4),%rcx
    e747:	00 
    e748:	48 8d 15 d5 98 00 00 	lea    0x98d5(%rip),%rdx        # 18024 <g_3>
    e74f:	48 01 ca             	add    %rcx,%rdx
    e752:	48 89 10             	mov    %rdx,(%rax)
    e755:	48 8b 85 a0 f2 ff ff 	mov    -0xd60(%rbp),%rax
    e75c:	48 83 c0 01          	add    $0x1,%rax
    e760:	48 89 85 a0 f2 ff ff 	mov    %rax,-0xd60(%rbp)
    e767:	48 8b 85 a0 f2 ff ff 	mov    -0xd60(%rbp),%rax
    e76e:	48 85 c0             	test   %rax,%rax
    e771:	74 bf                	je     e732 <func_82+0x4a5>
    e773:	48 c7 85 a8 f2 ff ff 	movq   $0x12,-0xd58(%rbp)
    e77a:	12 00 00 00 
    e77e:	e9 c3 00 00 00       	jmpq   e846 <func_82+0x5b9>
    e783:	c6 85 cc f2 ff ff 42 	movb   $0x42,-0xd34(%rbp)
    e78a:	48 8d 05 b7 d1 00 00 	lea    0xd1b7(%rip),%rax        # 1b948 <g_170>
    e791:	48 89 85 c8 f4 ff ff 	mov    %rax,-0xb38(%rbp)
    e798:	c7 85 58 f3 ff ff 00 	movl   $0x0,-0xca8(%rbp)
    e79f:	00 00 00 
    e7a2:	c7 85 5c f3 ff ff 00 	movl   $0x0,-0xca4(%rbp)
    e7a9:	00 00 00 
    e7ac:	66 c7 85 d6 f2 ff ff 	movw   $0xd502,-0xd2a(%rbp)
    e7b3:	02 d5 
    e7b5:	c7 85 60 f3 ff ff 00 	movl   $0x0,-0xca0(%rbp)
    e7bc:	00 00 00 
    e7bf:	c6 85 cd f2 ff ff 02 	movb   $0x2,-0xd33(%rbp)
    e7c6:	48 c7 85 d0 f4 ff ff 	movq   $0x0,-0xb30(%rbp)
    e7cd:	00 00 00 00 
    e7d1:	48 8d 85 88 f3 ff ff 	lea    -0xc78(%rbp),%rax
    e7d8:	48 89 85 d8 f4 ff ff 	mov    %rax,-0xb28(%rbp)
    e7df:	c7 85 64 f3 ff ff 07 	movl   $0xbfab4407,-0xc9c(%rbp)
    e7e6:	44 ab bf 
    e7e9:	48 8d 85 d0 fb ff ff 	lea    -0x430(%rbp),%rax
    e7f0:	48 8d 15 e9 57 00 00 	lea    0x57e9(%rip),%rdx        # 13fe0 <g_2811+0xf74>
    e7f7:	b9 7e 00 00 00       	mov    $0x7e,%ecx
    e7fc:	48 89 c7             	mov    %rax,%rdi
    e7ff:	48 89 d6             	mov    %rdx,%rsi
    e802:	f3 48 a5             	rep movsq %ds:(%rsi),%es:(%rdi)
    e805:	c7 85 f0 f2 ff ff 00 	movl   $0x0,-0xd10(%rbp)
    e80c:	00 00 00 
    e80f:	eb 1a                	jmp    e82b <func_82+0x59e>
    e811:	8b 85 f0 f2 ff ff    	mov    -0xd10(%rbp),%eax
    e817:	48 98                	cltq   
    e819:	c7 84 85 d0 f5 ff ff 	movl   $0x123db373,-0xa30(%rbp,%rax,4)
    e820:	73 b3 3d 12 
    e824:	83 85 f0 f2 ff ff 01 	addl   $0x1,-0xd10(%rbp)
    e82b:	83 bd f0 f2 ff ff 02 	cmpl   $0x2,-0xd10(%rbp)
    e832:	7e dd                	jle    e811 <func_82+0x584>
    e834:	48 8b 85 a8 f2 ff ff 	mov    -0xd58(%rbp),%rax
    e83b:	48 83 c0 01          	add    $0x1,%rax
    e83f:	48 89 85 a8 f2 ff ff 	mov    %rax,-0xd58(%rbp)
    e846:	48 8b 85 a8 f2 ff ff 	mov    -0xd58(%rbp),%rax
    e84d:	48 83 f8 30          	cmp    $0x30,%rax
    e851:	0f 85 2c ff ff ff    	jne    e783 <func_82+0x4f6>
    e857:	e9 eb 18 00 00       	jmpq   10147 <func_82+0x1eba>
    e85c:	48 8d 85 d8 f2 ff ff 	lea    -0xd28(%rbp),%rax
    e863:	48 89 85 c8 f3 ff ff 	mov    %rax,-0xc38(%rbp)
    e86a:	48 8d 05 07 98 00 00 	lea    0x9807(%rip),%rax        # 18078 <g_88>
    e871:	48 89 85 d0 f3 ff ff 	mov    %rax,-0xc30(%rbp)
    e878:	c7 85 e0 f2 ff ff 71 	movl   $0x73aee771,-0xd20(%rbp)
    e87f:	e7 ae 73 
    e882:	48 8d 05 ef 97 00 00 	lea    0x97ef(%rip),%rax        # 18078 <g_88>
    e889:	48 89 85 d8 f3 ff ff 	mov    %rax,-0xc28(%rbp)
    e890:	48 8d 85 ce f2 ff ff 	lea    -0xd32(%rbp),%rax
    e897:	48 89 85 70 f3 ff ff 	mov    %rax,-0xc90(%rbp)
    e89e:	48 8d 85 d0 f5 ff ff 	lea    -0xa30(%rbp),%rax
    e8a5:	48 8d 15 34 5b 00 00 	lea    0x5b34(%rip),%rdx        # 143e0 <g_2811+0x1374>
    e8ac:	b9 2d 00 00 00       	mov    $0x2d,%ecx
    e8b1:	48 89 c7             	mov    %rax,%rdi
    e8b4:	48 89 d6             	mov    %rdx,%rsi
    e8b7:	f3 48 a5             	rep movsq %ds:(%rsi),%es:(%rdi)
    e8ba:	48 8d 05 97 d0 00 00 	lea    0xd097(%rip),%rax        # 1b958 <g_431>
    e8c1:	48 89 85 e0 f3 ff ff 	mov    %rax,-0xc20(%rbp)
    e8c8:	48 8d 05 09 98 00 00 	lea    0x9809(%rip),%rax        # 180d8 <g_207>
    e8cf:	48 89 85 78 f3 ff ff 	mov    %rax,-0xc88(%rbp)
    e8d6:	c7 85 f4 f2 ff ff 00 	movl   $0x0,-0xd0c(%rbp)
    e8dd:	00 00 00 
    e8e0:	eb 1e                	jmp    e900 <func_82+0x673>
    e8e2:	8b 85 f4 f2 ff ff    	mov    -0xd0c(%rbp),%eax
    e8e8:	48 98                	cltq   
    e8ea:	48 8d 15 af b7 00 00 	lea    0xb7af(%rip),%rdx        # 1a0a0 <g_288>
    e8f1:	48 89 94 c5 f0 f4 ff 	mov    %rdx,-0xb10(%rbp,%rax,8)
    e8f8:	ff 
    e8f9:	83 85 f4 f2 ff ff 01 	addl   $0x1,-0xd0c(%rbp)
    e900:	83 bd f4 f2 ff ff 01 	cmpl   $0x1,-0xd0c(%rbp)
    e907:	7e d9                	jle    e8e2 <func_82+0x655>
    e909:	48 8b 85 c8 f3 ff ff 	mov    -0xc38(%rbp),%rax
    e910:	8b 00                	mov    (%rax),%eax
    e912:	8d 50 01             	lea    0x1(%rax),%edx
    e915:	48 8b 85 c8 f3 ff ff 	mov    -0xc38(%rbp),%rax
    e91c:	89 10                	mov    %edx,(%rax)
    e91e:	48 8b 85 c8 f3 ff ff 	mov    -0xc38(%rbp),%rax
    e925:	8b 00                	mov    (%rax),%eax
    e927:	35 96 0b 74 5f       	xor    $0x5f740b96,%eax
    e92c:	89 c2                	mov    %eax,%edx
    e92e:	48 8b 85 d0 f3 ff ff 	mov    -0xc30(%rbp),%rax
    e935:	48 89 10             	mov    %rdx,(%rax)
    e938:	48 8b 85 d0 f3 ff ff 	mov    -0xc30(%rbp),%rax
    e93f:	48 8b 00             	mov    (%rax),%rax
    e942:	48 c7 c6 ff ff ff ff 	mov    $0xffffffffffffffff,%rsi
    e949:	48 89 c7             	mov    %rax,%rdi
    e94c:	e8 2f b7 ff ff       	callq  a080 <safe_mod_func_uint64_t_u_u>
    e951:	48 85 c0             	test   %rax,%rax
    e954:	0f 84 9a 02 00 00    	je     ebf4 <func_82+0x967>
    e95a:	c7 85 28 f3 ff ff 9a 	movl   $0x9d8cca9a,-0xcd8(%rbp)
    e961:	ca 8c 9d 
    e964:	48 8d 85 f0 f4 ff ff 	lea    -0xb10(%rbp),%rax
    e96b:	48 83 c0 08          	add    $0x8,%rax
    e96f:	48 89 85 f0 f3 ff ff 	mov    %rax,-0xc10(%rbp)
    e976:	66 c7 85 d0 f2 ff ff 	movw   $0x19d7,-0xd30(%rbp)
    e97d:	d7 19 
    e97f:	48 8d 05 ce 46 00 00 	lea    0x46ce(%rip),%rax        # 13054 <g_712>
    e986:	48 89 85 90 f3 ff ff 	mov    %rax,-0xc70(%rbp)
    e98d:	48 8d 85 d0 fb ff ff 	lea    -0x430(%rbp),%rax
    e994:	48 89 85 98 f3 ff ff 	mov    %rax,-0xc68(%rbp)
    e99b:	48 8d 85 98 f3 ff ff 	lea    -0xc68(%rbp),%rax
    e9a2:	48 89 85 f8 f3 ff ff 	mov    %rax,-0xc08(%rbp)
    e9a9:	48 8d 05 6d 97 00 00 	lea    0x976d(%rip),%rax        # 1811d <g_658+0x1d>
    e9b0:	48 89 85 00 f4 ff ff 	mov    %rax,-0xc00(%rbp)
    e9b7:	48 8d 05 1c 97 00 00 	lea    0x971c(%rip),%rax        # 180da <g_246>
    e9be:	48 89 85 08 f4 ff ff 	mov    %rax,-0xbf8(%rbp)
    e9c5:	48 8d 05 14 97 00 00 	lea    0x9714(%rip),%rax        # 180e0 <g_255>
    e9cc:	48 89 85 10 f4 ff ff 	mov    %rax,-0xbf0(%rbp)
    e9d3:	c7 85 f8 f2 ff ff 00 	movl   $0x0,-0xd08(%rbp)
    e9da:	00 00 00 
    e9dd:	eb 1e                	jmp    e9fd <func_82+0x770>
    e9df:	8b 85 f8 f2 ff ff    	mov    -0xd08(%rbp),%eax
    e9e5:	48 98                	cltq   
    e9e7:	48 8d 95 90 f3 ff ff 	lea    -0xc70(%rbp),%rdx
    e9ee:	48 89 94 c5 d0 fb ff 	mov    %rdx,-0x430(%rbp,%rax,8)
    e9f5:	ff 
    e9f6:	83 85 f8 f2 ff ff 01 	addl   $0x1,-0xd08(%rbp)
    e9fd:	83 bd f8 f2 ff ff 02 	cmpl   $0x2,-0xd08(%rbp)
    ea04:	7e d9                	jle    e9df <func_82+0x752>
    ea06:	48 8b 05 53 b7 00 00 	mov    0xb753(%rip),%rax        # 1a160 <g_685>
    ea0d:	48 8d 15 34 b7 00 00 	lea    0xb734(%rip),%rdx        # 1a148 <g_594>
    ea14:	48 89 10             	mov    %rdx,(%rax)
    ea17:	48 8b 85 b0 f3 ff ff 	mov    -0xc50(%rbp),%rax
    ea1e:	48 8b 00             	mov    (%rax),%rax
    ea21:	48 8b 00             	mov    (%rax),%rax
    ea24:	8b 10                	mov    (%rax),%edx
    ea26:	48 8b 85 b0 f3 ff ff 	mov    -0xc50(%rbp),%rax
    ea2d:	48 8b 00             	mov    (%rax),%rax
    ea30:	48 8b 00             	mov    (%rax),%rax
    ea33:	23 95 bc f2 ff ff    	and    -0xd44(%rbp),%edx
    ea39:	89 10                	mov    %edx,(%rax)
    ea3b:	48 8b 05 46 b6 00 00 	mov    0xb646(%rip),%rax        # 1a088 <g_142>
    ea42:	8b 95 28 f3 ff ff    	mov    -0xcd8(%rbp),%edx
    ea48:	89 10                	mov    %edx,(%rax)
    ea4a:	48 8b 95 f8 f4 ff ff 	mov    -0xb08(%rbp),%rdx
    ea51:	48 8b 85 f0 f3 ff ff 	mov    -0xc10(%rbp),%rax
    ea58:	48 89 10             	mov    %rdx,(%rax)
    ea5b:	48 8b 85 f0 f3 ff ff 	mov    -0xc10(%rbp),%rax
    ea62:	48 8b 00             	mov    (%rax),%rax
    ea65:	48 8d 15 34 b6 00 00 	lea    0xb634(%rip),%rdx        # 1a0a0 <g_288>
    ea6c:	48 39 d0             	cmp    %rdx,%rax
    ea6f:	8b 1d 7b 96 00 00    	mov    0x967b(%rip),%ebx        # 180f0 <g_566>
    ea75:	8b 85 e0 f2 ff ff    	mov    -0xd20(%rbp),%eax
    ea7b:	44 0f b7 e0          	movzwl %ax,%r12d
    ea7f:	48 8b 05 fa b5 00 00 	mov    0xb5fa(%rip),%rax        # 1a080 <g_135>
    ea86:	0f b7 00             	movzwl (%rax),%eax
    ea89:	44 0f b7 e8          	movzwl %ax,%r13d
    ea8d:	8b 85 e0 f2 ff ff    	mov    -0xd20(%rbp),%eax
    ea93:	4c 63 f0             	movslq %eax,%r14
    ea96:	48 8b 85 a0 f2 ff ff 	mov    -0xd60(%rbp),%rax
    ea9d:	0f b7 c0             	movzwl %ax,%eax
    eaa0:	be 87 43 00 00       	mov    $0x4387,%esi
    eaa5:	89 c7                	mov    %eax,%edi
    eaa7:	e8 73 b2 ff ff       	callq  9d1f <safe_sub_func_uint16_t_u_u>
    eaac:	0f be c0             	movsbl %al,%eax
    eaaf:	8b 95 28 f3 ff ff    	mov    -0xcd8(%rbp),%edx
    eab5:	89 d6                	mov    %edx,%esi
    eab7:	89 c7                	mov    %eax,%edi
    eab9:	e8 77 a8 ff ff       	callq  9335 <safe_rshift_func_int8_t_s_s>
    eabe:	0f b7 05 23 96 00 00 	movzwl 0x9623(%rip),%eax        # 180e8 <g_315>
    eac5:	98                   	cwtl   
    eac6:	be 01 00 00 00       	mov    $0x1,%esi
    eacb:	89 c7                	mov    %eax,%edi
    eacd:	e8 fe b3 ff ff       	callq  9ed0 <safe_sub_func_uint32_t_u_u>
    ead2:	4c 89 f6             	mov    %r14,%rsi
    ead5:	bf 00 00 00 00       	mov    $0x0,%edi
    eada:	e8 a1 b5 ff ff       	callq  a080 <safe_mod_func_uint64_t_u_u>
    eadf:	48 8b 85 38 fa ff ff 	mov    -0x5c8(%rbp),%rax
    eae6:	48 8d 15 e7 95 00 00 	lea    0x95e7(%rip),%rdx        # 180d4 <g_197>
    eaed:	48 39 d0             	cmp    %rdx,%rax
    eaf0:	0f 94 c0             	sete   %al
    eaf3:	0f b6 c0             	movzbl %al,%eax
    eaf6:	8b 95 a0 f2 ff ff    	mov    -0xd60(%rbp),%edx
    eafc:	81 e2 ff ff 1f 00    	and    $0x1fffff,%edx
    eb02:	39 d0                	cmp    %edx,%eax
    eb04:	0f 95 c0             	setne  %al
    eb07:	0f b6 c0             	movzbl %al,%eax
    eb0a:	44 89 ee             	mov    %r13d,%esi
    eb0d:	89 c7                	mov    %eax,%edi
    eb0f:	e8 4f aa ff ff       	callq  9563 <safe_rshift_func_int16_t_s_u>
    eb14:	48 8b 85 f8 f3 ff ff 	mov    -0xc08(%rbp),%rax
    eb1b:	48 c7 00 00 00 00 00 	movq   $0x0,(%rax)
    eb22:	48 8b 85 f8 f3 ff ff 	mov    -0xc08(%rbp),%rax
    eb29:	48 8b 00             	mov    (%rax),%rax
    eb2c:	48 85 c0             	test   %rax,%rax
    eb2f:	0f 95 c0             	setne  %al
    eb32:	0f b6 c0             	movzbl %al,%eax
    eb35:	be 2f eb 00 00       	mov    $0xeb2f,%esi
    eb3a:	89 c7                	mov    %eax,%edi
    eb3c:	e8 1b b2 ff ff       	callq  9d5c <safe_mod_func_uint16_t_u_u>
    eb41:	48 8b 85 b0 f3 ff ff 	mov    -0xc50(%rbp),%rax
    eb48:	48 8b 00             	mov    (%rax),%rax
    eb4b:	48 8b 00             	mov    (%rax),%rax
    eb4e:	8b 00                	mov    (%rax),%eax
    eb50:	83 f8 05             	cmp    $0x5,%eax
    eb53:	0f 94 c0             	sete   %al
    eb56:	89 c2                	mov    %eax,%edx
    eb58:	48 8b 85 00 f4 ff ff 	mov    -0xc00(%rbp),%rax
    eb5f:	88 10                	mov    %dl,(%rax)
    eb61:	48 8b 85 00 f4 ff ff 	mov    -0xc00(%rbp),%rax
    eb68:	0f b6 00             	movzbl (%rax),%eax
    eb6b:	0f b6 c0             	movzbl %al,%eax
    eb6e:	48 8b 95 b0 f2 ff ff 	mov    -0xd50(%rbp),%rdx
    eb75:	09 d0                	or     %edx,%eax
    eb77:	0f b7 c0             	movzwl %ax,%eax
    eb7a:	44 89 e6             	mov    %r12d,%esi
    eb7d:	89 c7                	mov    %eax,%edi
    eb7f:	e8 d8 b1 ff ff       	callq  9d5c <safe_mod_func_uint16_t_u_u>
    eb84:	89 c2                	mov    %eax,%edx
    eb86:	48 8b 85 08 f4 ff ff 	mov    -0xbf8(%rbp),%rax
    eb8d:	88 10                	mov    %dl,(%rax)
    eb8f:	48 8b 85 08 f4 ff ff 	mov    -0xbf8(%rbp),%rax
    eb96:	0f b6 00             	movzbl (%rax),%eax
    eb99:	0f b6 c0             	movzbl %al,%eax
    eb9c:	89 de                	mov    %ebx,%esi
    eb9e:	89 c7                	mov    %eax,%edi
    eba0:	e8 19 b1 ff ff       	callq  9cbe <safe_rshift_func_uint8_t_u_u>
    eba5:	48 8b 95 a8 f2 ff ff 	mov    -0xd58(%rbp),%rdx
    ebac:	48 8b 85 68 f3 ff ff 	mov    -0xc98(%rbp),%rax
    ebb3:	48 8b 00             	mov    (%rax),%rax
    ebb6:	89 10                	mov    %edx,(%rax)
    ebb8:	8b 00                	mov    (%rax),%eax
    ebba:	83 c8 01             	or     $0x1,%eax
    ebbd:	89 c2                	mov    %eax,%edx
    ebbf:	8b 05 7f 94 00 00    	mov    0x947f(%rip),%eax        # 18044 <g_4+0x4>
    ebc5:	39 c2                	cmp    %eax,%edx
    ebc7:	7f 0e                	jg     ebd7 <func_82+0x94a>
    ebc9:	48 8b 05 c8 b4 00 00 	mov    0xb4c8(%rip),%rax        # 1a098 <g_284>
    ebd0:	48 8b 00             	mov    (%rax),%rax
    ebd3:	8b 00                	mov    (%rax),%eax
    ebd5:	85 c0                	test   %eax,%eax
    ebd7:	48 c7 c2 ff ff ff ff 	mov    $0xffffffffffffffff,%rdx
    ebde:	48 8b 85 10 f4 ff ff 	mov    -0xbf0(%rbp),%rax
    ebe5:	8b 00                	mov    (%rax),%eax
    ebe7:	31 c2                	xor    %eax,%edx
    ebe9:	48 8b 85 10 f4 ff ff 	mov    -0xbf0(%rbp),%rax
    ebf0:	89 10                	mov    %edx,(%rax)
    ebf2:	eb 3c                	jmp    ec30 <func_82+0x9a3>
    ebf4:	48 c7 85 e8 f3 ff ff 	movq   $0x0,-0xc18(%rbp)
    ebfb:	00 00 00 00 
    ebff:	48 8b 85 68 f3 ff ff 	mov    -0xc98(%rbp),%rax
    ec06:	48 8d 95 e0 f2 ff ff 	lea    -0xd20(%rbp),%rdx
    ec0d:	48 89 10             	mov    %rdx,(%rax)
    ec10:	48 8b 85 b0 f3 ff ff 	mov    -0xc50(%rbp),%rax
    ec17:	48 8b 00             	mov    (%rax),%rax
    ec1a:	48 8b 00             	mov    (%rax),%rax
    ec1d:	c7 00 32 f7 5f 8d    	movl   $0x8d5ff732,(%rax)
    ec23:	48 8b 05 5e b4 00 00 	mov    0xb45e(%rip),%rax        # 1a088 <g_142>
    ec2a:	c7 00 01 00 00 00    	movl   $0x1,(%rax)
    ec30:	48 8b 85 b0 f3 ff ff 	mov    -0xc50(%rbp),%rax
    ec37:	48 8b 00             	mov    (%rax),%rax
    ec3a:	48 8b 00             	mov    (%rax),%rax
    ec3d:	8b 00                	mov    (%rax),%eax
    ec3f:	85 c0                	test   %eax,%eax
    ec41:	0f 84 4d 07 00 00    	je     f394 <func_82+0x1107>
    ec47:	c7 85 38 f3 ff ff f7 	movl   $0xfffffff7,-0xcc8(%rbp)
    ec4e:	ff ff ff 
    ec51:	48 8d 85 40 f7 ff ff 	lea    -0x8c0(%rbp),%rax
    ec58:	48 8d 15 01 59 00 00 	lea    0x5901(%rip),%rdx        # 14560 <g_2811+0x14f4>
    ec5f:	b9 32 00 00 00       	mov    $0x32,%ecx
    ec64:	48 89 c7             	mov    %rax,%rdi
    ec67:	48 89 d6             	mov    %rdx,%rsi
    ec6a:	f3 48 a5             	rep movsq %ds:(%rsi),%es:(%rdi)
    ec6d:	48 8d 05 f4 cc 00 00 	lea    0xccf4(%rip),%rax        # 1b968 <g_752>
    ec74:	48 89 85 a8 f4 ff ff 	mov    %rax,-0xb58(%rbp)
    ec7b:	c7 85 fc f2 ff ff 00 	movl   $0x0,-0xd04(%rbp)
    ec82:	00 00 00 
    ec85:	eb 1e                	jmp    eca5 <func_82+0xa18>
    ec87:	8b 85 fc f2 ff ff    	mov    -0xd04(%rbp),%eax
    ec8d:	48 98                	cltq   
    ec8f:	48 8d 15 06 94 00 00 	lea    0x9406(%rip),%rdx        # 1809c <g_100+0x1c>
    ec96:	48 89 94 c5 e0 f4 ff 	mov    %rdx,-0xb20(%rbp,%rax,8)
    ec9d:	ff 
    ec9e:	83 85 fc f2 ff ff 01 	addl   $0x1,-0xd04(%rbp)
    eca5:	83 bd fc f2 ff ff 00 	cmpl   $0x0,-0xd04(%rbp)
    ecac:	7e d9                	jle    ec87 <func_82+0x9fa>
    ecae:	83 bd bc f2 ff ff 00 	cmpl   $0x0,-0xd44(%rbp)
    ecb5:	0f 84 c7 06 00 00    	je     f382 <func_82+0x10f5>
    ecbb:	48 c7 85 98 f3 ff ff 	movq   $0x0,-0xc68(%rbp)
    ecc2:	00 00 00 00 
    ecc6:	c7 85 00 f5 ff ff fe 	movl   $0xfffffffe,-0xb00(%rbp)
    eccd:	ff ff ff 
    ecd0:	c7 85 04 f5 ff ff fe 	movl   $0xfffffffe,-0xafc(%rbp)
    ecd7:	ff ff ff 
    ecda:	c7 85 08 f5 ff ff fe 	movl   $0xfffffffe,-0xaf8(%rbp)
    ece1:	ff ff ff 
    ece4:	c7 85 0c f5 ff ff fe 	movl   $0xfffffffe,-0xaf4(%rbp)
    eceb:	ff ff ff 
    ecee:	c7 85 10 f5 ff ff fe 	movl   $0xfffffffe,-0xaf0(%rbp)
    ecf5:	ff ff ff 
    ecf8:	c7 85 00 f3 ff ff 00 	movl   $0x0,-0xd00(%rbp)
    ecff:	00 00 00 
    ed02:	eb 21                	jmp    ed25 <func_82+0xa98>
    ed04:	8b 85 00 f3 ff ff    	mov    -0xd00(%rbp),%eax
    ed0a:	48 98                	cltq   
    ed0c:	48 bb 25 a5 fb 81 28 	movabs $0x4be2542881fba525,%rbx
    ed13:	54 e2 4b 
    ed16:	48 89 9c c5 e8 f4 ff 	mov    %rbx,-0xb18(%rbp,%rax,8)
    ed1d:	ff 
    ed1e:	83 85 00 f3 ff ff 01 	addl   $0x1,-0xd00(%rbp)
    ed25:	83 bd 00 f3 ff ff 00 	cmpl   $0x0,-0xd00(%rbp)
    ed2c:	7e d6                	jle    ed04 <func_82+0xa77>
    ed2e:	48 83 bd b0 f2 ff ff 	cmpq   $0x0,-0xd50(%rbp)
    ed35:	00 
    ed36:	0f 84 8f 01 00 00    	je     eecb <func_82+0xc3e>
    ed3c:	66 c7 85 d2 f2 ff ff 	movw   $0x3af2,-0xd2e(%rbp)
    ed43:	f2 3a 
    ed45:	48 8d 85 d0 fb ff ff 	lea    -0x430(%rbp),%rax
    ed4c:	48 8d 15 ad 59 00 00 	lea    0x59ad(%rip),%rdx        # 14700 <g_2811+0x1694>
    ed53:	b9 50 00 00 00       	mov    $0x50,%ecx
    ed58:	48 89 c7             	mov    %rax,%rdi
    ed5b:	48 89 d6             	mov    %rdx,%rsi
    ed5e:	f3 48 a5             	rep movsq %ds:(%rsi),%es:(%rdi)
    ed61:	48 8b 85 b0 f3 ff ff 	mov    -0xc50(%rbp),%rax
    ed68:	48 8b 00             	mov    (%rax),%rax
    ed6b:	48 8b 00             	mov    (%rax),%rax
    ed6e:	48 89 85 d8 f3 ff ff 	mov    %rax,-0xc28(%rbp)
    ed75:	c7 85 a0 f2 ff ff fc 	movl   $0xfffffffc,-0xd60(%rbp)
    ed7c:	ff ff ff 
    ed7f:	e9 0f 01 00 00       	jmpq   ee93 <func_82+0xc06>
    ed84:	48 8b 15 0d b3 00 00 	mov    0xb30d(%rip),%rdx        # 1a098 <g_284>
    ed8b:	48 8b 85 68 f3 ff ff 	mov    -0xc98(%rbp),%rax
    ed92:	48 8b 12             	mov    (%rdx),%rdx
    ed95:	48 89 10             	mov    %rdx,(%rax)
    ed98:	0f b6 05 4b 93 00 00 	movzbl 0x934b(%rip),%eax        # 180ea <g_546>
    ed9f:	8b 05 d3 92 00 00    	mov    0x92d3(%rip),%eax        # 18078 <g_88>
    eda5:	89 c6                	mov    %eax,%esi
    eda7:	bf f9 ff ff ff       	mov    $0xfffffff9,%edi
    edac:	e8 84 a5 ff ff       	callq  9335 <safe_rshift_func_int8_t_s_s>
    edb1:	83 f0 fa             	xor    $0xfffffffa,%eax
    edb4:	66 0f be d0          	movsbw %al,%dx
    edb8:	0f b7 05 29 93 00 00 	movzwl 0x9329(%rip),%eax        # 180e8 <g_315>
    edbf:	66 39 c2             	cmp    %ax,%dx
    edc2:	0f 95 c0             	setne  %al
    edc5:	0f b6 c0             	movzbl %al,%eax
    edc8:	be fd ff ff ff       	mov    $0xfffffffd,%esi
    edcd:	89 c7                	mov    %eax,%edi
    edcf:	e8 1e a4 ff ff       	callq  91f2 <safe_sub_func_int8_t_s_s>
    edd4:	48 0f be d0          	movsbq %al,%rdx
    edd8:	48 8b 85 a8 f3 ff ff 	mov    -0xc58(%rbp),%rax
    eddf:	48 89 10             	mov    %rdx,(%rax)
    ede2:	48 8b 85 a8 f3 ff ff 	mov    -0xc58(%rbp),%rax
    ede9:	48 8b 10             	mov    (%rax),%rdx
    edec:	48 8b 85 e8 f4 ff ff 	mov    -0xb18(%rbp),%rax
    edf3:	48 89 d6             	mov    %rdx,%rsi
    edf6:	48 89 c7             	mov    %rax,%rdi
    edf9:	e8 43 aa ff ff       	callq  9841 <safe_add_func_int64_t_s_s>
    edfe:	48 8b 15 83 b2 00 00 	mov    0xb283(%rip),%rdx        # 1a088 <g_142>
    ee05:	8b 12                	mov    (%rdx),%edx
    ee07:	48 63 d2             	movslq %edx,%rdx
    ee0a:	48 39 d0             	cmp    %rdx,%rax
    ee0d:	0f 94 c0             	sete   %al
    ee10:	0f b6 c0             	movzbl %al,%eax
    ee13:	48 8b 1d 66 b2 00 00 	mov    0xb266(%rip),%rbx        # 1a080 <g_135>
    ee1a:	be 0c 00 00 00       	mov    $0xc,%esi
    ee1f:	89 c7                	mov    %eax,%edi
    ee21:	e8 54 b0 ff ff       	callq  9e7a <safe_rshift_func_uint16_t_u_u>
    ee26:	66 89 03             	mov    %ax,(%rbx)
    ee29:	66 83 bd d2 f2 ff ff 	cmpw   $0x1,-0xd2e(%rbp)
    ee30:	01 
    ee31:	0f 94 c0             	sete   %al
    ee34:	0f b6 d0             	movzbl %al,%edx
    ee37:	8b 85 a0 f2 ff ff    	mov    -0xd60(%rbp),%eax
    ee3d:	31 c2                	xor    %eax,%edx
    ee3f:	8b 85 10 f5 ff ff    	mov    -0xaf0(%rbp),%eax
    ee45:	09 c2                	or     %eax,%edx
    ee47:	8b 85 a0 f2 ff ff    	mov    -0xd60(%rbp),%eax
    ee4d:	25 ff ff 1f 00       	and    $0x1fffff,%eax
    ee52:	21 d0                	and    %edx,%eax
    ee54:	3d cb 8f 48 bf       	cmp    $0xbf488fcb,%eax
    ee59:	0f 97 c2             	seta   %dl
    ee5c:	48 8b 85 68 f3 ff ff 	mov    -0xc98(%rbp),%rax
    ee63:	48 8b 00             	mov    (%rax),%rax
    ee66:	0f b6 d2             	movzbl %dl,%edx
    ee69:	89 10                	mov    %edx,(%rax)
    ee6b:	48 8b 85 a8 f2 ff ff 	mov    -0xd58(%rbp),%rax
    ee72:	48 85 c0             	test   %rax,%rax
    ee75:	8b 85 a0 f2 ff ff    	mov    -0xd60(%rbp),%eax
    ee7b:	0f b6 c0             	movzbl %al,%eax
    ee7e:	be 02 00 00 00       	mov    $0x2,%esi
    ee83:	89 c7                	mov    %eax,%edi
    ee85:	e8 ee ac ff ff       	callq  9b78 <safe_sub_func_uint8_t_u_u>
    ee8a:	0f b6 c0             	movzbl %al,%eax
    ee8d:	89 85 a0 f2 ff ff    	mov    %eax,-0xd60(%rbp)
    ee93:	8b 85 a0 f2 ff ff    	mov    -0xd60(%rbp),%eax
    ee99:	83 f8 e9             	cmp    $0xffffffe9,%eax
    ee9c:	0f 84 e2 fe ff ff    	je     ed84 <func_82+0xaf7>
    eea2:	48 8b 85 c0 f3 ff ff 	mov    -0xc40(%rbp),%rax
    eea9:	48 89 85 a8 f4 ff ff 	mov    %rax,-0xb58(%rbp)
    eeb0:	48 8b 85 a8 f4 ff ff 	mov    -0xb58(%rbp),%rax
    eeb7:	48 89 85 c0 f3 ff ff 	mov    %rax,-0xc40(%rbp)
    eebe:	b8 d3 d7 ff ff       	mov    $0xffffd7d3,%eax
    eec3:	0f b7 c0             	movzwl %ax,%eax
    eec6:	e9 83 12 00 00       	jmpq   1014e <func_82+0x1ec1>
    eecb:	c7 85 90 f5 ff ff 01 	movl   $0x1,-0xa70(%rbp)
    eed2:	00 00 00 
    eed5:	c7 85 94 f5 ff ff 2a 	movl   $0x3a91582a,-0xa6c(%rbp)
    eedc:	58 91 3a 
    eedf:	c7 85 98 f5 ff ff 01 	movl   $0x1,-0xa68(%rbp)
    eee6:	00 00 00 
    eee9:	c7 85 9c f5 ff ff 01 	movl   $0x1,-0xa64(%rbp)
    eef0:	00 00 00 
    eef3:	c7 85 a0 f5 ff ff 2a 	movl   $0x3a91582a,-0xa60(%rbp)
    eefa:	58 91 3a 
    eefd:	c7 85 a4 f5 ff ff 01 	movl   $0x1,-0xa5c(%rbp)
    ef04:	00 00 00 
    ef07:	c7 85 a8 f5 ff ff 01 	movl   $0x1,-0xa58(%rbp)
    ef0e:	00 00 00 
    ef11:	c7 85 ac f5 ff ff 2a 	movl   $0x3a91582a,-0xa54(%rbp)
    ef18:	58 91 3a 
    ef1b:	c7 85 b0 f5 ff ff 2a 	movl   $0x3a91582a,-0xa50(%rbp)
    ef22:	58 91 3a 
    ef25:	c7 85 b4 f5 ff ff 2a 	movl   $0x3a91582a,-0xa4c(%rbp)
    ef2c:	58 91 3a 
    ef2f:	c7 85 b8 f5 ff ff 01 	movl   $0x1,-0xa48(%rbp)
    ef36:	00 00 00 
    ef39:	c7 85 bc f5 ff ff 2a 	movl   $0x3a91582a,-0xa44(%rbp)
    ef40:	58 91 3a 
    ef43:	c7 85 c0 f5 ff ff 2a 	movl   $0x3a91582a,-0xa40(%rbp)
    ef4a:	58 91 3a 
    ef4d:	c7 85 c4 f5 ff ff 01 	movl   $0x1,-0xa3c(%rbp)
    ef54:	00 00 00 
    ef57:	c7 85 c8 f5 ff ff 2a 	movl   $0x3a91582a,-0xa38(%rbp)
    ef5e:	58 91 3a 
    ef61:	c7 85 cc f5 ff ff 2a 	movl   $0x3a91582a,-0xa34(%rbp)
    ef68:	58 91 3a 
    ef6b:	48 8b 85 d8 f3 ff ff 	mov    -0xc28(%rbp),%rax
    ef72:	8b 00                	mov    (%rax),%eax
    ef74:	0b 85 38 f3 ff ff    	or     -0xcc8(%rbp),%eax
    ef7a:	89 c2                	mov    %eax,%edx
    ef7c:	48 8b 85 d8 f3 ff ff 	mov    -0xc28(%rbp),%rax
    ef83:	89 10                	mov    %edx,(%rax)
    ef85:	66 c7 05 5a 91 00 00 	movw   $0x0,0x915a(%rip)        # 180e8 <g_315>
    ef8c:	00 00 
    ef8e:	90                   	nop
    ef8f:	0f b7 05 52 91 00 00 	movzwl 0x9152(%rip),%eax        # 180e8 <g_315>
    ef96:	66 83 f8 14          	cmp    $0x14,%ax
    ef9a:	0f 84 c5 03 00 00    	je     f365 <func_82+0x10d8>
    efa0:	c7 85 d0 fb ff ff 2c 	movl   $0x2b31332c,-0x430(%rbp)
    efa7:	33 31 2b 
    efaa:	c7 85 d4 fb ff ff ff 	movl   $0xffffffff,-0x42c(%rbp)
    efb1:	ff ff ff 
    efb4:	c7 85 d8 fb ff ff a8 	movl   $0x2e29ca8,-0x428(%rbp)
    efbb:	9c e2 02 
    efbe:	c7 85 dc fb ff ff 34 	movl   $0xc6edff34,-0x424(%rbp)
    efc5:	ff ed c6 
    efc8:	c7 85 e0 fb ff ff 00 	movl   $0x0,-0x420(%rbp)
    efcf:	00 00 00 
    efd2:	c7 85 e4 fb ff ff 2d 	movl   $0xf7dfc2d,-0x41c(%rbp)
    efd9:	fc 7d 0f 
    efdc:	c7 85 e8 fb ff ff 00 	movl   $0x0,-0x418(%rbp)
    efe3:	00 00 00 
    efe6:	c7 85 ec fb ff ff 34 	movl   $0xc6edff34,-0x414(%rbp)
    efed:	ff ed c6 
    eff0:	c7 85 f0 fb ff ff a8 	movl   $0x2e29ca8,-0x410(%rbp)
    eff7:	9c e2 02 
    effa:	c7 85 f4 fb ff ff ff 	movl   $0xffffffff,-0x40c(%rbp)
    f001:	ff ff ff 
    f004:	c7 85 f8 fb ff ff c5 	movl   $0xa9904ac5,-0x408(%rbp)
    f00b:	4a 90 a9 
    f00e:	c7 85 fc fb ff ff f7 	movl   $0xfffffff7,-0x404(%rbp)
    f015:	ff ff ff 
    f018:	c7 85 00 fc ff ff 2d 	movl   $0xf7dfc2d,-0x400(%rbp)
    f01f:	fc 7d 0f 
    f022:	c7 85 04 fc ff ff ff 	movl   $0xffffffff,-0x3fc(%rbp)
    f029:	ff ff ff 
    f02c:	c7 85 08 fc ff ff 00 	movl   $0x0,-0x3f8(%rbp)
    f033:	00 00 00 
    f036:	c7 85 0c fc ff ff 00 	movl   $0x0,-0x3f4(%rbp)
    f03d:	00 00 00 
    f040:	c7 85 10 fc ff ff 00 	movl   $0x0,-0x3f0(%rbp)
    f047:	00 00 00 
    f04a:	c7 85 14 fc ff ff 00 	movl   $0x0,-0x3ec(%rbp)
    f051:	00 00 00 
    f054:	c7 85 18 fc ff ff ff 	movl   $0xffffffff,-0x3e8(%rbp)
    f05b:	ff ff ff 
    f05e:	c7 85 1c fc ff ff 2d 	movl   $0xf7dfc2d,-0x3e4(%rbp)
    f065:	fc 7d 0f 
    f068:	c7 85 20 fc ff ff 00 	movl   $0x0,-0x3e0(%rbp)
    f06f:	00 00 00 
    f072:	c7 85 24 fc ff ff 00 	movl   $0x0,-0x3dc(%rbp)
    f079:	00 00 00 
    f07c:	c7 85 28 fc ff ff 2c 	movl   $0x2b31332c,-0x3d8(%rbp)
    f083:	33 31 2b 
    f086:	c7 85 2c fc ff ff c5 	movl   $0xa9904ac5,-0x3d4(%rbp)
    f08d:	4a 90 a9 
    f090:	c7 85 30 fc ff ff 53 	movl   $0x889a1a53,-0x3d0(%rbp)
    f097:	1a 9a 88 
    f09a:	c7 85 34 fc ff ff 00 	movl   $0x0,-0x3cc(%rbp)
    f0a1:	00 00 00 
    f0a4:	c7 85 38 fc ff ff a8 	movl   $0x2e29ca8,-0x3c8(%rbp)
    f0ab:	9c e2 02 
    f0ae:	c7 85 3c fc ff ff 00 	movl   $0x0,-0x3c4(%rbp)
    f0b5:	00 00 00 
    f0b8:	c7 85 40 fc ff ff 53 	movl   $0x889a1a53,-0x3c0(%rbp)
    f0bf:	1a 9a 88 
    f0c2:	c7 85 44 fc ff ff c5 	movl   $0xa9904ac5,-0x3bc(%rbp)
    f0c9:	4a 90 a9 
    f0cc:	c7 85 48 fc ff ff c5 	movl   $0xa9904ac5,-0x3b8(%rbp)
    f0d3:	4a 90 a9 
    f0d6:	c7 85 4c fc ff ff 3a 	movl   $0x7875e93a,-0x3b4(%rbp)
    f0dd:	e9 75 78 
    f0e0:	c7 85 50 fc ff ff c5 	movl   $0xa9904ac5,-0x3b0(%rbp)
    f0e7:	4a 90 a9 
    f0ea:	c7 85 54 fc ff ff 00 	movl   $0x0,-0x3ac(%rbp)
    f0f1:	00 00 00 
    f0f4:	c7 85 58 fc ff ff 34 	movl   $0xc6edff34,-0x3a8(%rbp)
    f0fb:	ff ed c6 
    f0fe:	c7 85 5c fc ff ff 2d 	movl   $0xf7dfc2d,-0x3a4(%rbp)
    f105:	fc 7d 0f 
    f108:	c7 85 60 fc ff ff a8 	movl   $0x2e29ca8,-0x3a0(%rbp)
    f10f:	9c e2 02 
    f112:	c7 85 64 fc ff ff a8 	movl   $0x2e29ca8,-0x39c(%rbp)
    f119:	9c e2 02 
    f11c:	c7 85 68 fc ff ff 2d 	movl   $0xf7dfc2d,-0x398(%rbp)
    f123:	fc 7d 0f 
    f126:	c7 85 6c fc ff ff 34 	movl   $0xc6edff34,-0x394(%rbp)
    f12d:	ff ed c6 
    f130:	c7 85 70 fc ff ff 2c 	movl   $0x2b31332c,-0x390(%rbp)
    f137:	33 31 2b 
    f13a:	c7 85 74 fc ff ff 00 	movl   $0x0,-0x38c(%rbp)
    f141:	00 00 00 
    f144:	c7 85 78 fc ff ff 00 	movl   $0x0,-0x388(%rbp)
    f14b:	00 00 00 
    f14e:	c7 85 7c fc ff ff 2c 	movl   $0x2b31332c,-0x384(%rbp)
    f155:	33 31 2b 
    f158:	c7 85 80 fc ff ff c5 	movl   $0xa9904ac5,-0x380(%rbp)
    f15f:	4a 90 a9 
    f162:	c7 85 84 fc ff ff 53 	movl   $0x889a1a53,-0x37c(%rbp)
    f169:	1a 9a 88 
    f16c:	c7 85 88 fc ff ff 00 	movl   $0x0,-0x378(%rbp)
    f173:	00 00 00 
    f176:	c7 85 8c fc ff ff a8 	movl   $0x2e29ca8,-0x374(%rbp)
    f17d:	9c e2 02 
    f180:	c7 85 90 fc ff ff 00 	movl   $0x0,-0x370(%rbp)
    f187:	00 00 00 
    f18a:	c7 85 94 fc ff ff 53 	movl   $0x889a1a53,-0x36c(%rbp)
    f191:	1a 9a 88 
    f194:	c7 85 98 fc ff ff 2d 	movl   $0xf7dfc2d,-0x368(%rbp)
    f19b:	fc 7d 0f 
    f19e:	c7 85 9c fc ff ff f7 	movl   $0xfffffff7,-0x364(%rbp)
    f1a5:	ff ff ff 
    f1a8:	c7 85 a0 fc ff ff c5 	movl   $0xa9904ac5,-0x360(%rbp)
    f1af:	4a 90 a9 
    f1b2:	c7 85 a4 fc ff ff f7 	movl   $0xfffffff7,-0x35c(%rbp)
    f1b9:	ff ff ff 
    f1bc:	c7 85 a8 fc ff ff 2d 	movl   $0xf7dfc2d,-0x358(%rbp)
    f1c3:	fc 7d 0f 
    f1c6:	c7 85 ac fc ff ff ff 	movl   $0xffffffff,-0x354(%rbp)
    f1cd:	ff ff ff 
    f1d0:	c7 85 b0 fc ff ff 00 	movl   $0x0,-0x350(%rbp)
    f1d7:	00 00 00 
    f1da:	c7 85 b4 fc ff ff 00 	movl   $0x0,-0x34c(%rbp)
    f1e1:	00 00 00 
    f1e4:	c7 85 b8 fc ff ff 00 	movl   $0x0,-0x348(%rbp)
    f1eb:	00 00 00 
    f1ee:	c7 85 bc fc ff ff 00 	movl   $0x0,-0x344(%rbp)
    f1f5:	00 00 00 
    f1f8:	c7 85 04 f3 ff ff 00 	movl   $0x0,-0xcfc(%rbp)
    f1ff:	00 00 00 
    f202:	eb 74                	jmp    f278 <func_82+0xfeb>
    f204:	c7 85 08 f3 ff ff 00 	movl   $0x0,-0xcf8(%rbp)
    f20b:	00 00 00 
    f20e:	eb 58                	jmp    f268 <func_82+0xfdb>
    f210:	c7 85 0c f3 ff ff 00 	movl   $0x0,-0xcf4(%rbp)
    f217:	00 00 00 
    f21a:	eb 3c                	jmp    f258 <func_82+0xfcb>
    f21c:	8b 85 0c f3 ff ff    	mov    -0xcf4(%rbp),%eax
    f222:	48 98                	cltq   
    f224:	8b 95 04 f3 ff ff    	mov    -0xcfc(%rbp),%edx
    f22a:	48 63 ca             	movslq %edx,%rcx
    f22d:	8b 95 08 f3 ff ff    	mov    -0xcf8(%rbp),%edx
    f233:	48 63 d2             	movslq %edx,%rdx
    f236:	48 01 c9             	add    %rcx,%rcx
    f239:	48 01 ca             	add    %rcx,%rdx
    f23c:	48 01 d2             	add    %rdx,%rdx
    f23f:	48 01 d0             	add    %rdx,%rax
    f242:	48 8d 15 ab 8e 00 00 	lea    0x8eab(%rip),%rdx        # 180f4 <g_590>
    f249:	48 89 94 c5 40 f5 ff 	mov    %rdx,-0xac0(%rbp,%rax,8)
    f250:	ff 
    f251:	83 85 0c f3 ff ff 01 	addl   $0x1,-0xcf4(%rbp)
    f258:	83 bd 0c f3 ff ff 01 	cmpl   $0x1,-0xcf4(%rbp)
    f25f:	7e bb                	jle    f21c <func_82+0xf8f>
    f261:	83 85 08 f3 ff ff 01 	addl   $0x1,-0xcf8(%rbp)
    f268:	83 bd 08 f3 ff ff 01 	cmpl   $0x1,-0xcf8(%rbp)
    f26f:	7e 9f                	jle    f210 <func_82+0xf83>
    f271:	83 85 04 f3 ff ff 01 	addl   $0x1,-0xcfc(%rbp)
    f278:	83 bd 04 f3 ff ff 00 	cmpl   $0x0,-0xcfc(%rbp)
    f27f:	7e 83                	jle    f204 <func_82+0xf77>
    f281:	83 bd 38 f3 ff ff 00 	cmpl   $0x0,-0xcc8(%rbp)
    f288:	0f 85 d6 00 00 00    	jne    f364 <func_82+0x10d7>
    f28e:	8b 85 94 f5 ff ff    	mov    -0xa6c(%rbp),%eax
    f294:	89 c3                	mov    %eax,%ebx
    f296:	8b 85 a8 f2 ff ff    	mov    -0xd58(%rbp),%eax
    f29c:	85 c0                	test   %eax,%eax
    f29e:	74 49                	je     f2e9 <func_82+0x105c>
    f2a0:	48 8b 85 a8 f2 ff ff 	mov    -0xd58(%rbp),%rax
    f2a7:	0f be d0             	movsbl %al,%edx
    f2aa:	48 8b 8d 68 f3 ff ff 	mov    -0xc98(%rbp),%rcx
    f2b1:	48 8b 85 68 f3 ff ff 	mov    -0xc98(%rbp),%rax
    f2b8:	48 8b 09             	mov    (%rcx),%rcx
    f2bb:	48 89 08             	mov    %rcx,(%rax)
    f2be:	48 8b 00             	mov    (%rax),%rax
    f2c1:	48 8d 8d 00 f5 ff ff 	lea    -0xb00(%rbp),%rcx
    f2c8:	48 83 c1 08          	add    $0x8,%rcx
    f2cc:	48 39 c8             	cmp    %rcx,%rax
    f2cf:	0f 95 c0             	setne  %al
    f2d2:	0f b6 c0             	movzbl %al,%eax
    f2d5:	89 d6                	mov    %edx,%esi
    f2d7:	89 c7                	mov    %eax,%edi
    f2d9:	e8 14 9f ff ff       	callq  91f2 <safe_sub_func_int8_t_s_s>
    f2de:	84 c0                	test   %al,%al
    f2e0:	74 07                	je     f2e9 <func_82+0x105c>
    f2e2:	b8 01 00 00 00       	mov    $0x1,%eax
    f2e7:	eb 05                	jmp    f2ee <func_82+0x1061>
    f2e9:	b8 00 00 00 00       	mov    $0x0,%eax
    f2ee:	3b 85 38 f3 ff ff    	cmp    -0xcc8(%rbp),%eax
    f2f4:	c7 85 2c f8 ff ff 00 	movl   $0x0,-0x7d4(%rbp)
    f2fb:	00 00 00 
    f2fe:	8b 05 74 8d 00 00    	mov    0x8d74(%rip),%eax        # 18078 <g_88>
    f304:	25 ff ff 1f 00       	and    $0x1fffff,%eax
    f309:	89 c0                	mov    %eax,%eax
    f30b:	48 89 de             	mov    %rbx,%rsi
    f30e:	48 89 c7             	mov    %rax,%rdi
    f311:	e8 92 a5 ff ff       	callq  98a8 <safe_sub_func_int64_t_s_s>
    f316:	0f b6 05 1c 8e 00 00 	movzbl 0x8e1c(%rip),%eax        # 18139 <g_658+0x39>
    f31d:	3c 01                	cmp    $0x1,%al
    f31f:	0f 96 c0             	setbe  %al
    f322:	0f b6 c0             	movzbl %al,%eax
    f325:	be 0a 00 00 00       	mov    $0xa,%esi
    f32a:	89 c7                	mov    %eax,%edi
    f32c:	e8 17 ab ff ff       	callq  9e48 <safe_rshift_func_uint16_t_u_s>
    f331:	0f b7 c0             	movzwl %ax,%eax
    f334:	48 be f9 f2 80 72 ac 	movabs $0x457559ac7280f2f9,%rsi
    f33b:	59 75 45 
    f33e:	48 89 c7             	mov    %rax,%rdi
    f341:	e8 3a ad ff ff       	callq  a080 <safe_mod_func_uint64_t_u_u>
    f346:	8b 95 98 fc ff ff    	mov    -0x368(%rbp),%edx
    f34c:	09 d0                	or     %edx,%eax
    f34e:	89 85 98 fc ff ff    	mov    %eax,-0x368(%rbp)
    f354:	0f b6 05 16 8d 00 00 	movzbl 0x8d16(%rip),%eax        # 18071 <g_54>
    f35b:	48 0f be c0          	movsbq %al,%rax
    f35f:	e9 ea 0d 00 00       	jmpq   1014e <func_82+0x1ec1>
    f364:	90                   	nop
    f365:	48 8b 85 68 f3 ff ff 	mov    -0xc98(%rbp),%rax
    f36c:	48 8d 95 e0 f2 ff ff 	lea    -0xd20(%rbp),%rdx
    f373:	48 89 10             	mov    %rdx,(%rax)
    f376:	48 8b 05 43 8d 00 00 	mov    0x8d43(%rip),%rax        # 180c0 <g_115>
    f37d:	e9 cc 0d 00 00       	jmpq   1014e <func_82+0x1ec1>
    f382:	8b 05 58 8d 00 00    	mov    0x8d58(%rip),%eax        # 180e0 <g_255>
    f388:	25 ff ff 1f 00       	and    $0x1fffff,%eax
    f38d:	89 c0                	mov    %eax,%eax
    f38f:	e9 ba 0d 00 00       	jmpq   1014e <func_82+0x1ec1>
    f394:	c6 85 c9 f2 ff ff eb 	movb   $0xeb,-0xd37(%rbp)
    f39b:	48 c7 85 80 f3 ff ff 	movq   $0x0,-0xc80(%rbp)
    f3a2:	00 00 00 00 
    f3a6:	48 8d 05 9f c5 00 00 	lea    0xc59f(%rip),%rax        # 1b94c <g_258>
    f3ad:	48 89 85 18 f4 ff ff 	mov    %rax,-0xbe8(%rbp)
    f3b4:	48 b8 fd 5c f2 af 7f 	movabs $0x4ad5917faff25cfd,%rax
    f3bb:	91 d5 4a 
    f3be:	48 89 85 88 f3 ff ff 	mov    %rax,-0xc78(%rbp)
    f3c5:	48 8d 05 c4 8c 00 00 	lea    0x8cc4(%rip),%rax        # 18090 <g_100+0x10>
    f3cc:	48 89 85 20 f4 ff ff 	mov    %rax,-0xbe0(%rbp)
    f3d3:	c6 85 ca f2 ff ff f6 	movb   $0xf6,-0xd36(%rbp)
    f3da:	c7 85 10 f3 ff ff 00 	movl   $0x0,-0xcf0(%rbp)
    f3e1:	00 00 00 
    f3e4:	eb 21                	jmp    f407 <func_82+0x117a>
    f3e6:	8b 85 10 f3 ff ff    	mov    -0xcf0(%rbp),%eax
    f3ec:	48 98                	cltq   
    f3ee:	48 bb 9d 0c 85 88 f6 	movabs $0x7e938df688850c9d,%rbx
    f3f5:	8d 93 7e 
    f3f8:	48 89 9c c5 90 f5 ff 	mov    %rbx,-0xa70(%rbp,%rax,8)
    f3ff:	ff 
    f400:	83 85 10 f3 ff ff 01 	addl   $0x1,-0xcf0(%rbp)
    f407:	83 bd 10 f3 ff ff 01 	cmpl   $0x1,-0xcf0(%rbp)
    f40e:	7e d6                	jle    f3e6 <func_82+0x1159>
    f410:	0f be 9d c9 f2 ff ff 	movsbl -0xd37(%rbp),%ebx
    f417:	48 8b 85 b0 f2 ff ff 	mov    -0xd50(%rbp),%rax
    f41e:	44 0f bf e0          	movswl %ax,%r12d
    f422:	48 8b 85 a0 f2 ff ff 	mov    -0xd60(%rbp),%rax
    f429:	44 0f bf e8          	movswl %ax,%r13d
    f42d:	48 8b 85 b0 f2 ff ff 	mov    -0xd50(%rbp),%rax
    f434:	44 0f be f0          	movsbl %al,%r14d
    f438:	48 8b 85 d8 f3 ff ff 	mov    -0xc28(%rbp),%rax
    f43f:	8b 00                	mov    (%rax),%eax
    f441:	0f bf d0             	movswl %ax,%edx
    f444:	48 8b 85 90 f5 ff ff 	mov    -0xa70(%rbp),%rax
    f44b:	8b 8d a8 f2 ff ff    	mov    -0xd58(%rbp),%ecx
    f451:	81 e1 ff ff 1f 00    	and    $0x1fffff,%ecx
    f457:	89 c9                	mov    %ecx,%ecx
    f459:	48 31 c8             	xor    %rcx,%rax
    f45c:	48 89 85 90 f5 ff ff 	mov    %rax,-0xa70(%rbp)
    f463:	48 8b 85 90 f5 ff ff 	mov    -0xa70(%rbp),%rax
    f46a:	98                   	cwtl   
    f46b:	89 d6                	mov    %edx,%esi
    f46d:	89 c7                	mov    %eax,%edi
    f46f:	e8 e1 9f ff ff       	callq  9455 <safe_div_func_int16_t_s_s>
    f474:	89 c2                	mov    %eax,%edx
    f476:	48 8b 05 03 ac 00 00 	mov    0xac03(%rip),%rax        # 1a080 <g_135>
    f47d:	0f b7 00             	movzwl (%rax),%eax
    f480:	21 d0                	and    %edx,%eax
    f482:	0f be c0             	movsbl %al,%eax
    f485:	44 89 f6             	mov    %r14d,%esi
    f488:	89 c7                	mov    %eax,%edi
    f48a:	e8 45 9d ff ff       	callq  91d4 <safe_add_func_int8_t_s_s>
    f48f:	0f be c0             	movsbl %al,%eax
    f492:	44 89 ee             	mov    %r13d,%esi
    f495:	89 c7                	mov    %eax,%edi
    f497:	e8 17 9f ff ff       	callq  93b3 <safe_add_func_int16_t_s_s>
    f49c:	89 c2                	mov    %eax,%edx
    f49e:	48 8b 05 3b ac 00 00 	mov    0xac3b(%rip),%rax        # 1a0e0 <g_428>
    f4a5:	66 81 f2 af d0       	xor    $0xd0af,%dx
    f4aa:	66 89 10             	mov    %dx,(%rax)
    f4ad:	0f b7 00             	movzwl (%rax),%eax
    f4b0:	98                   	cwtl   
    f4b1:	44 89 e6             	mov    %r12d,%esi
    f4b4:	89 c7                	mov    %eax,%edi
    f4b6:	e8 3a 9f ff ff       	callq  93f5 <safe_mul_func_int16_t_s_s>
    f4bb:	0f bf d0             	movswl %ax,%edx
    f4be:	48 8b 85 d8 f3 ff ff 	mov    -0xc28(%rbp),%rax
    f4c5:	8b 00                	mov    (%rax),%eax
    f4c7:	39 c2                	cmp    %eax,%edx
    f4c9:	0f 9c c0             	setl   %al
    f4cc:	0f b6 c0             	movzbl %al,%eax
    f4cf:	89 de                	mov    %ebx,%esi
    f4d1:	89 c7                	mov    %eax,%edi
    f4d3:	e8 e6 a7 ff ff       	callq  9cbe <safe_rshift_func_uint8_t_u_u>
    f4d8:	48 8b 85 a0 f3 ff ff 	mov    -0xc60(%rbp),%rax
    f4df:	c6 00 01             	movb   $0x1,(%rax)
    f4e2:	be 00 00 00 00       	mov    $0x0,%esi
    f4e7:	bf 01 00 00 00       	mov    $0x1,%edi
    f4ec:	e8 21 9d ff ff       	callq  9212 <safe_mul_func_int8_t_s_s>
    f4f1:	0f be d0             	movsbl %al,%edx
    f4f4:	48 8b 85 d8 f3 ff ff 	mov    -0xc28(%rbp),%rax
    f4fb:	89 10                	mov    %edx,(%rax)
    f4fd:	48 8b 85 d8 f3 ff ff 	mov    -0xc28(%rbp),%rax
    f504:	8b 10                	mov    (%rax),%edx
    f506:	8b 85 20 f6 ff ff    	mov    -0x9e0(%rbp),%eax
    f50c:	09 d0                	or     %edx,%eax
    f50e:	89 85 20 f6 ff ff    	mov    %eax,-0x9e0(%rbp)
    f514:	8b 85 20 f6 ff ff    	mov    -0x9e0(%rbp),%eax
    f51a:	85 c0                	test   %eax,%eax
    f51c:	0f 84 38 06 00 00    	je     fb5a <func_82+0x18cd>
    f522:	c7 85 34 f3 ff ff 97 	movl   $0x62065e97,-0xccc(%rbp)
    f529:	5e 06 62 
    f52c:	c6 85 cb f2 ff ff cc 	movb   $0xcc,-0xd35(%rbp)
    f533:	48 c7 85 98 f3 ff ff 	movq   $0x0,-0xc68(%rbp)
    f53a:	00 00 00 00 
    f53e:	c7 85 14 f3 ff ff 00 	movl   $0x0,-0xcec(%rbp)
    f545:	00 00 00 
    f548:	eb 1e                	jmp    f568 <func_82+0x12db>
    f54a:	8b 85 14 f3 ff ff    	mov    -0xcec(%rbp),%eax
    f550:	48 98                	cltq   
    f552:	48 8d 15 ef ab 00 00 	lea    0xabef(%rip),%rdx        # 1a148 <g_594>
    f559:	48 89 94 c5 40 f7 ff 	mov    %rdx,-0x8c0(%rbp,%rax,8)
    f560:	ff 
    f561:	83 85 14 f3 ff ff 01 	addl   $0x1,-0xcec(%rbp)
    f568:	83 bd 14 f3 ff ff 01 	cmpl   $0x1,-0xcec(%rbp)
    f56f:	7e d9                	jle    f54a <func_82+0x12bd>
    f571:	c7 85 e8 f2 ff ff 00 	movl   $0x0,-0xd18(%rbp)
    f578:	00 00 00 
    f57b:	eb 6e                	jmp    f5eb <func_82+0x135e>
    f57d:	48 8d 05 c8 c3 00 00 	lea    0xc3c8(%rip),%rax        # 1b94c <g_258>
    f584:	48 89 85 88 f4 ff ff 	mov    %rax,-0xb78(%rbp)
    f58b:	48 8d 05 5e 8b 00 00 	lea    0x8b5e(%rip),%rax        # 180f0 <g_566>
    f592:	48 89 85 90 f4 ff ff 	mov    %rax,-0xb70(%rbp)
    f599:	48 8d 05 7c 8b 00 00 	lea    0x8b7c(%rip),%rax        # 1811c <g_658+0x1c>
    f5a0:	48 89 85 98 f4 ff ff 	mov    %rax,-0xb68(%rbp)
    f5a7:	48 8d 85 c6 f2 ff ff 	lea    -0xd3a(%rbp),%rax
    f5ae:	48 89 85 a0 f4 ff ff 	mov    %rax,-0xb60(%rbp)
    f5b5:	c7 85 18 f3 ff ff 00 	movl   $0x0,-0xce8(%rbp)
    f5bc:	00 00 00 
    f5bf:	eb 1a                	jmp    f5db <func_82+0x134e>
    f5c1:	8b 85 18 f3 ff ff    	mov    -0xce8(%rbp),%eax
    f5c7:	48 98                	cltq   
    f5c9:	c7 84 85 d0 fb ff ff 	movl   $0x5fcf9d69,-0x430(%rbp,%rax,4)
    f5d0:	69 9d cf 5f 
    f5d4:	83 85 18 f3 ff ff 01 	addl   $0x1,-0xce8(%rbp)
    f5db:	83 bd 18 f3 ff ff 03 	cmpl   $0x3,-0xce8(%rbp)
    f5e2:	7e dd                	jle    f5c1 <func_82+0x1334>
    f5e4:	83 85 e8 f2 ff ff 01 	addl   $0x1,-0xd18(%rbp)
    f5eb:	83 bd e8 f2 ff ff 34 	cmpl   $0x34,-0xd18(%rbp)
    f5f2:	74 89                	je     f57d <func_82+0x12f0>
    f5f4:	66 c7 85 ce f2 ff ff 	movw   $0x0,-0xd32(%rbp)
    f5fb:	00 00 
    f5fd:	e9 42 05 00 00       	jmpq   fb44 <func_82+0x18b7>
    f602:	48 c7 85 78 f4 ff ff 	movq   $0x0,-0xb88(%rbp)
    f609:	00 00 00 00 
    f60d:	48 8d 85 70 f3 ff ff 	lea    -0xc90(%rbp),%rax
    f614:	48 89 85 80 f4 ff ff 	mov    %rax,-0xb80(%rbp)
    f61b:	48 8d 85 98 f3 ff ff 	lea    -0xc68(%rbp),%rax
    f622:	48 89 85 d0 fb ff ff 	mov    %rax,-0x430(%rbp)
    f629:	48 8d 05 50 aa 00 00 	lea    0xaa50(%rip),%rax        # 1a080 <g_135>
    f630:	48 89 85 d8 fb ff ff 	mov    %rax,-0x428(%rbp)
    f637:	48 8d 05 42 aa 00 00 	lea    0xaa42(%rip),%rax        # 1a080 <g_135>
    f63e:	48 89 85 e0 fb ff ff 	mov    %rax,-0x420(%rbp)
    f645:	48 8d 85 98 f3 ff ff 	lea    -0xc68(%rbp),%rax
    f64c:	48 89 85 e8 fb ff ff 	mov    %rax,-0x418(%rbp)
    f653:	48 8d 85 98 f3 ff ff 	lea    -0xc68(%rbp),%rax
    f65a:	48 89 85 f0 fb ff ff 	mov    %rax,-0x410(%rbp)
    f661:	48 8d 05 18 aa 00 00 	lea    0xaa18(%rip),%rax        # 1a080 <g_135>
    f668:	48 89 85 f8 fb ff ff 	mov    %rax,-0x408(%rbp)
    f66f:	48 8d 05 0a aa 00 00 	lea    0xaa0a(%rip),%rax        # 1a080 <g_135>
    f676:	48 89 85 00 fc ff ff 	mov    %rax,-0x400(%rbp)
    f67d:	48 8d 05 fc a9 00 00 	lea    0xa9fc(%rip),%rax        # 1a080 <g_135>
    f684:	48 89 85 08 fc ff ff 	mov    %rax,-0x3f8(%rbp)
    f68b:	48 8d 05 ee a9 00 00 	lea    0xa9ee(%rip),%rax        # 1a080 <g_135>
    f692:	48 89 85 10 fc ff ff 	mov    %rax,-0x3f0(%rbp)
    f699:	48 8d 05 e0 a9 00 00 	lea    0xa9e0(%rip),%rax        # 1a080 <g_135>
    f6a0:	48 89 85 18 fc ff ff 	mov    %rax,-0x3e8(%rbp)
    f6a7:	48 8d 85 98 f3 ff ff 	lea    -0xc68(%rbp),%rax
    f6ae:	48 89 85 20 fc ff ff 	mov    %rax,-0x3e0(%rbp)
    f6b5:	48 8d 05 c4 a9 00 00 	lea    0xa9c4(%rip),%rax        # 1a080 <g_135>
    f6bc:	48 89 85 28 fc ff ff 	mov    %rax,-0x3d8(%rbp)
    f6c3:	48 c7 85 30 fc ff ff 	movq   $0x0,-0x3d0(%rbp)
    f6ca:	00 00 00 00 
    f6ce:	48 8d 85 98 f3 ff ff 	lea    -0xc68(%rbp),%rax
    f6d5:	48 89 85 38 fc ff ff 	mov    %rax,-0x3c8(%rbp)
    f6dc:	48 8d 85 98 f3 ff ff 	lea    -0xc68(%rbp),%rax
    f6e3:	48 89 85 40 fc ff ff 	mov    %rax,-0x3c0(%rbp)
    f6ea:	48 8d 85 98 f3 ff ff 	lea    -0xc68(%rbp),%rax
    f6f1:	48 89 85 48 fc ff ff 	mov    %rax,-0x3b8(%rbp)
    f6f8:	48 8d 85 98 f3 ff ff 	lea    -0xc68(%rbp),%rax
    f6ff:	48 89 85 50 fc ff ff 	mov    %rax,-0x3b0(%rbp)
    f706:	48 8d 85 98 f3 ff ff 	lea    -0xc68(%rbp),%rax
    f70d:	48 89 85 58 fc ff ff 	mov    %rax,-0x3a8(%rbp)
    f714:	48 8d 85 98 f3 ff ff 	lea    -0xc68(%rbp),%rax
    f71b:	48 89 85 60 fc ff ff 	mov    %rax,-0x3a0(%rbp)
    f722:	48 8d 85 98 f3 ff ff 	lea    -0xc68(%rbp),%rax
    f729:	48 89 85 68 fc ff ff 	mov    %rax,-0x398(%rbp)
    f730:	48 8d 85 98 f3 ff ff 	lea    -0xc68(%rbp),%rax
    f737:	48 89 85 70 fc ff ff 	mov    %rax,-0x390(%rbp)
    f73e:	48 c7 85 78 fc ff ff 	movq   $0x0,-0x388(%rbp)
    f745:	00 00 00 00 
    f749:	48 8d 85 98 f3 ff ff 	lea    -0xc68(%rbp),%rax
    f750:	48 89 85 80 fc ff ff 	mov    %rax,-0x380(%rbp)
    f757:	48 8d 85 98 f3 ff ff 	lea    -0xc68(%rbp),%rax
    f75e:	48 89 85 88 fc ff ff 	mov    %rax,-0x378(%rbp)
    f765:	48 8d 85 98 f3 ff ff 	lea    -0xc68(%rbp),%rax
    f76c:	48 89 85 90 fc ff ff 	mov    %rax,-0x370(%rbp)
    f773:	48 c7 85 98 fc ff ff 	movq   $0x0,-0x368(%rbp)
    f77a:	00 00 00 00 
    f77e:	48 8d 85 98 f3 ff ff 	lea    -0xc68(%rbp),%rax
    f785:	48 89 85 a0 fc ff ff 	mov    %rax,-0x360(%rbp)
    f78c:	48 c7 85 a8 fc ff ff 	movq   $0x0,-0x358(%rbp)
    f793:	00 00 00 00 
    f797:	48 c7 85 b0 fc ff ff 	movq   $0x0,-0x350(%rbp)
    f79e:	00 00 00 00 
    f7a2:	48 8d 05 d7 a8 00 00 	lea    0xa8d7(%rip),%rax        # 1a080 <g_135>
    f7a9:	48 89 85 b8 fc ff ff 	mov    %rax,-0x348(%rbp)
    f7b0:	48 8d 05 c9 a8 00 00 	lea    0xa8c9(%rip),%rax        # 1a080 <g_135>
    f7b7:	48 89 85 c0 fc ff ff 	mov    %rax,-0x340(%rbp)
    f7be:	48 8d 85 98 f3 ff ff 	lea    -0xc68(%rbp),%rax
    f7c5:	48 89 85 c8 fc ff ff 	mov    %rax,-0x338(%rbp)
    f7cc:	48 8d 85 98 f3 ff ff 	lea    -0xc68(%rbp),%rax
    f7d3:	48 89 85 d0 fc ff ff 	mov    %rax,-0x330(%rbp)
    f7da:	48 8d 05 9f a8 00 00 	lea    0xa89f(%rip),%rax        # 1a080 <g_135>
    f7e1:	48 89 85 d8 fc ff ff 	mov    %rax,-0x328(%rbp)
    f7e8:	48 8d 05 91 a8 00 00 	lea    0xa891(%rip),%rax        # 1a080 <g_135>
    f7ef:	48 89 85 e0 fc ff ff 	mov    %rax,-0x320(%rbp)
    f7f6:	48 8d 05 83 a8 00 00 	lea    0xa883(%rip),%rax        # 1a080 <g_135>
    f7fd:	48 89 85 e8 fc ff ff 	mov    %rax,-0x318(%rbp)
    f804:	48 8d 05 75 a8 00 00 	lea    0xa875(%rip),%rax        # 1a080 <g_135>
    f80b:	48 89 85 f0 fc ff ff 	mov    %rax,-0x310(%rbp)
    f812:	48 8d 85 98 f3 ff ff 	lea    -0xc68(%rbp),%rax
    f819:	48 89 85 f8 fc ff ff 	mov    %rax,-0x308(%rbp)
    f820:	48 8d 85 98 f3 ff ff 	lea    -0xc68(%rbp),%rax
    f827:	48 89 85 00 fd ff ff 	mov    %rax,-0x300(%rbp)
    f82e:	48 8d 85 98 f3 ff ff 	lea    -0xc68(%rbp),%rax
    f835:	48 89 85 08 fd ff ff 	mov    %rax,-0x2f8(%rbp)
    f83c:	48 8d 85 98 f3 ff ff 	lea    -0xc68(%rbp),%rax
    f843:	48 89 85 10 fd ff ff 	mov    %rax,-0x2f0(%rbp)
    f84a:	48 8d 85 98 f3 ff ff 	lea    -0xc68(%rbp),%rax
    f851:	48 89 85 18 fd ff ff 	mov    %rax,-0x2e8(%rbp)
    f858:	48 c7 85 20 fd ff ff 	movq   $0x0,-0x2e0(%rbp)
    f85f:	00 00 00 00 
    f863:	48 c7 85 28 fd ff ff 	movq   $0x0,-0x2d8(%rbp)
    f86a:	00 00 00 00 
    f86e:	48 8d 85 98 f3 ff ff 	lea    -0xc68(%rbp),%rax
    f875:	48 89 85 30 fd ff ff 	mov    %rax,-0x2d0(%rbp)
    f87c:	48 8d 85 98 f3 ff ff 	lea    -0xc68(%rbp),%rax
    f883:	48 89 85 38 fd ff ff 	mov    %rax,-0x2c8(%rbp)
    f88a:	48 8d 85 98 f3 ff ff 	lea    -0xc68(%rbp),%rax
    f891:	48 89 85 40 fd ff ff 	mov    %rax,-0x2c0(%rbp)
    f898:	48 8d 05 e1 a7 00 00 	lea    0xa7e1(%rip),%rax        # 1a080 <g_135>
    f89f:	48 89 85 48 fd ff ff 	mov    %rax,-0x2b8(%rbp)
    f8a6:	48 8d 05 d3 a7 00 00 	lea    0xa7d3(%rip),%rax        # 1a080 <g_135>
    f8ad:	48 89 85 50 fd ff ff 	mov    %rax,-0x2b0(%rbp)
    f8b4:	48 8d 85 98 f3 ff ff 	lea    -0xc68(%rbp),%rax
    f8bb:	48 89 85 58 fd ff ff 	mov    %rax,-0x2a8(%rbp)
    f8c2:	48 8d 85 98 f3 ff ff 	lea    -0xc68(%rbp),%rax
    f8c9:	48 89 85 60 fd ff ff 	mov    %rax,-0x2a0(%rbp)
    f8d0:	48 8d 05 a9 a7 00 00 	lea    0xa7a9(%rip),%rax        # 1a080 <g_135>
    f8d7:	48 89 85 68 fd ff ff 	mov    %rax,-0x298(%rbp)
    f8de:	48 8d 85 98 f3 ff ff 	lea    -0xc68(%rbp),%rax
    f8e5:	48 89 85 70 fd ff ff 	mov    %rax,-0x290(%rbp)
    f8ec:	48 c7 85 78 fd ff ff 	movq   $0x0,-0x288(%rbp)
    f8f3:	00 00 00 00 
    f8f7:	48 8d 05 82 a7 00 00 	lea    0xa782(%rip),%rax        # 1a080 <g_135>
    f8fe:	48 89 85 80 fd ff ff 	mov    %rax,-0x280(%rbp)
    f905:	48 8d 05 74 a7 00 00 	lea    0xa774(%rip),%rax        # 1a080 <g_135>
    f90c:	48 89 85 88 fd ff ff 	mov    %rax,-0x278(%rbp)
    f913:	48 8d 85 98 f3 ff ff 	lea    -0xc68(%rbp),%rax
    f91a:	48 89 85 90 fd ff ff 	mov    %rax,-0x270(%rbp)
    f921:	48 8d 05 58 a7 00 00 	lea    0xa758(%rip),%rax        # 1a080 <g_135>
    f928:	48 89 85 98 fd ff ff 	mov    %rax,-0x268(%rbp)
    f92f:	48 8d 05 4a a7 00 00 	lea    0xa74a(%rip),%rax        # 1a080 <g_135>
    f936:	48 89 85 a0 fd ff ff 	mov    %rax,-0x260(%rbp)
    f93d:	48 8d 85 98 f3 ff ff 	lea    -0xc68(%rbp),%rax
    f944:	48 89 85 a8 fd ff ff 	mov    %rax,-0x258(%rbp)
    f94b:	48 8d 85 98 f3 ff ff 	lea    -0xc68(%rbp),%rax
    f952:	48 89 85 b0 fd ff ff 	mov    %rax,-0x250(%rbp)
    f959:	48 8d 85 98 f3 ff ff 	lea    -0xc68(%rbp),%rax
    f960:	48 89 85 b8 fd ff ff 	mov    %rax,-0x248(%rbp)
    f967:	48 8d 85 98 f3 ff ff 	lea    -0xc68(%rbp),%rax
    f96e:	48 89 85 c0 fd ff ff 	mov    %rax,-0x240(%rbp)
    f975:	48 8d 85 98 f3 ff ff 	lea    -0xc68(%rbp),%rax
    f97c:	48 89 85 c8 fd ff ff 	mov    %rax,-0x238(%rbp)
    f983:	48 c7 85 d0 fd ff ff 	movq   $0x0,-0x230(%rbp)
    f98a:	00 00 00 00 
    f98e:	48 c7 85 d8 fd ff ff 	movq   $0x0,-0x228(%rbp)
    f995:	00 00 00 00 
    f999:	48 8d 85 98 f3 ff ff 	lea    -0xc68(%rbp),%rax
    f9a0:	48 89 85 e0 fd ff ff 	mov    %rax,-0x220(%rbp)
    f9a7:	48 8d 85 98 f3 ff ff 	lea    -0xc68(%rbp),%rax
    f9ae:	48 89 85 e8 fd ff ff 	mov    %rax,-0x218(%rbp)
    f9b5:	48 8d 85 98 f3 ff ff 	lea    -0xc68(%rbp),%rax
    f9bc:	48 89 85 f0 fd ff ff 	mov    %rax,-0x210(%rbp)
    f9c3:	48 8d 05 b6 a6 00 00 	lea    0xa6b6(%rip),%rax        # 1a080 <g_135>
    f9ca:	48 89 85 f8 fd ff ff 	mov    %rax,-0x208(%rbp)
    f9d1:	0f be 95 cb f2 ff ff 	movsbl -0xd35(%rbp),%edx
    f9d8:	48 8b 05 a1 a6 00 00 	mov    0xa6a1(%rip),%rax        # 1a080 <g_135>
    f9df:	0f b7 00             	movzwl (%rax),%eax
    f9e2:	0f b7 c0             	movzwl %ax,%eax
    f9e5:	89 d6                	mov    %edx,%esi
    f9e7:	89 c7                	mov    %eax,%edi
    f9e9:	e8 8c a4 ff ff       	callq  9e7a <safe_rshift_func_uint16_t_u_u>
    f9ee:	44 0f b7 e8          	movzwl %ax,%r13d
    f9f2:	8b 05 80 86 00 00    	mov    0x8680(%rip),%eax        # 18078 <g_88>
    f9f8:	0f be d8             	movsbl %al,%ebx
    f9fb:	44 8b b5 a8 f2 ff ff 	mov    -0xd58(%rbp),%r14d
    fa02:	48 8b 05 d7 a6 00 00 	mov    0xa6d7(%rip),%rax        # 1a0e0 <g_428>
    fa09:	0f b7 00             	movzwl (%rax),%eax
    fa0c:	44 0f b7 e0          	movzwl %ax,%r12d
    fa10:	48 8b 85 80 f4 ff ff 	mov    -0xb80(%rbp),%rax
    fa17:	48 8d 95 ce f2 ff ff 	lea    -0xd32(%rbp),%rdx
    fa1e:	48 89 10             	mov    %rdx,(%rax)
    fa21:	48 8b 85 98 f3 ff ff 	mov    -0xc68(%rbp),%rax
    fa28:	48 89 85 78 f3 ff ff 	mov    %rax,-0xc88(%rbp)
    fa2f:	48 8b 05 4a a6 00 00 	mov    0xa64a(%rip),%rax        # 1a080 <g_135>
    fa36:	0f b7 00             	movzwl (%rax),%eax
    fa39:	66 3d 6c d3          	cmp    $0xd36c,%ax
    fa3d:	0f 97 c0             	seta   %al
    fa40:	0f b6 c0             	movzbl %al,%eax
    fa43:	48 89 c7             	mov    %rax,%rdi
    fa46:	e8 ce a5 ff ff       	callq  a019 <safe_unary_minus_func_uint64_t_u>
    fa4b:	89 c7                	mov    %eax,%edi
    fa4d:	e8 44 9b ff ff       	callq  9596 <safe_unary_minus_func_int32_t_s>
    fa52:	85 c0                	test   %eax,%eax
    fa54:	74 11                	je     fa67 <func_82+0x17da>
    fa56:	48 83 bd b0 f2 ff ff 	cmpq   $0x0,-0xd50(%rbp)
    fa5d:	00 
    fa5e:	74 07                	je     fa67 <func_82+0x17da>
    fa60:	b8 01 00 00 00       	mov    $0x1,%eax
    fa65:	eb 05                	jmp    fa6c <func_82+0x17df>
    fa67:	b8 00 00 00 00       	mov    $0x0,%eax
    fa6c:	0f b7 c0             	movzwl %ax,%eax
    fa6f:	44 89 e6             	mov    %r12d,%esi
    fa72:	89 c7                	mov    %eax,%edi
    fa74:	e8 15 a3 ff ff       	callq  9d8e <safe_div_func_uint16_t_u_u>
    fa79:	0f b7 c0             	movzwl %ax,%eax
    fa7c:	41 39 c6             	cmp    %eax,%r14d
    fa7f:	7f 07                	jg     fa88 <func_82+0x17fb>
    fa81:	ba 01 00 00 00       	mov    $0x1,%edx
    fa86:	eb 05                	jmp    fa8d <func_82+0x1800>
    fa88:	ba 00 00 00 00       	mov    $0x0,%edx
    fa8d:	48 8b 85 b0 f3 ff ff 	mov    -0xc50(%rbp),%rax
    fa94:	48 8b 00             	mov    (%rax),%rax
    fa97:	48 8b 00             	mov    (%rax),%rax
    fa9a:	89 10                	mov    %edx,(%rax)
    fa9c:	89 de                	mov    %ebx,%esi
    fa9e:	bf 01 00 00 00       	mov    $0x1,%edi
    faa3:	e8 c2 97 ff ff       	callq  926a <safe_div_func_int8_t_s_s>
    faa8:	0f be c0             	movsbl %al,%eax
    faab:	41 39 c5             	cmp    %eax,%r13d
    faae:	0f 9e c0             	setle  %al
    fab1:	0f b6 c0             	movzbl %al,%eax
    fab4:	39 85 34 f3 ff ff    	cmp    %eax,-0xccc(%rbp)
    faba:	7d 0f                	jge    facb <func_82+0x183e>
    fabc:	48 8b 05 1d a6 00 00 	mov    0xa61d(%rip),%rax        # 1a0e0 <g_428>
    fac3:	0f b7 00             	movzwl (%rax),%eax
    fac6:	66 85 c0             	test   %ax,%ax
    fac9:	74 07                	je     fad2 <func_82+0x1845>
    facb:	ba 01 00 00 00       	mov    $0x1,%edx
    fad0:	eb 05                	jmp    fad7 <func_82+0x184a>
    fad2:	ba 00 00 00 00       	mov    $0x0,%edx
    fad7:	8b 05 eb 85 00 00    	mov    0x85eb(%rip),%eax        # 180c8 <g_186>
    fadd:	39 c2                	cmp    %eax,%edx
    fadf:	0f 9d c0             	setge  %al
    fae2:	0f b6 d0             	movzbl %al,%edx
    fae5:	48 8b 85 d8 f3 ff ff 	mov    -0xc28(%rbp),%rax
    faec:	89 10                	mov    %edx,(%rax)
    faee:	0f b7 05 93 86 00 00 	movzwl 0x8693(%rip),%eax        # 18188 <g_849>
    faf5:	83 c8 01             	or     $0x1,%eax
    faf8:	66 89 05 89 86 00 00 	mov    %ax,0x8689(%rip)        # 18188 <g_849>
    faff:	0f b7 05 82 86 00 00 	movzwl 0x8682(%rip),%eax        # 18188 <g_849>
    fb06:	0f bf d8             	movswl %ax,%ebx
    fb09:	be 01 00 00 00       	mov    $0x1,%esi
    fb0e:	bf 1d 00 00 00       	mov    $0x1d,%edi
    fb13:	e8 a6 a1 ff ff       	callq  9cbe <safe_rshift_func_uint8_t_u_u>
    fb18:	0f b6 c0             	movzbl %al,%eax
    fb1b:	89 c7                	mov    %eax,%edi
    fb1d:	e8 74 9a ff ff       	callq  9596 <safe_unary_minus_func_int32_t_s>
    fb22:	39 c3                	cmp    %eax,%ebx
    fb24:	0f 95 c2             	setne  %dl
    fb27:	48 8b 05 5a a5 00 00 	mov    0xa55a(%rip),%rax        # 1a088 <g_142>
    fb2e:	0f b6 d2             	movzbl %dl,%edx
    fb31:	89 10                	mov    %edx,(%rax)
    fb33:	0f b7 85 ce f2 ff ff 	movzwl -0xd32(%rbp),%eax
    fb3a:	83 c0 01             	add    $0x1,%eax
    fb3d:	66 89 85 ce f2 ff ff 	mov    %ax,-0xd32(%rbp)
    fb44:	0f b7 85 ce f2 ff ff 	movzwl -0xd32(%rbp),%eax
    fb4b:	66 83 f8 2d          	cmp    $0x2d,%ax
    fb4f:	0f 87 ad fa ff ff    	ja     f602 <func_82+0x1375>
    fb55:	e9 ed 05 00 00       	jmpq   10147 <func_82+0x1eba>
    fb5a:	c7 85 2c f3 ff ff ff 	movl   $0xffffffff,-0xcd4(%rbp)
    fb61:	ff ff ff 
    fb64:	66 c7 05 1b 86 00 00 	movw   $0x1,0x861b(%rip)        # 18188 <g_849>
    fb6b:	01 00 
    fb6d:	e9 c1 05 00 00       	jmpq   10133 <func_82+0x1ea6>
    fb72:	c7 85 e4 f2 ff ff f8 	movl   $0xfffffff8,-0xd1c(%rbp)
    fb79:	ff ff ff 
    fb7c:	48 c7 85 90 f3 ff ff 	movq   $0x0,-0xc70(%rbp)
    fb83:	00 00 00 00 
    fb87:	48 8d 85 90 f3 ff ff 	lea    -0xc70(%rbp),%rax
    fb8e:	48 89 85 28 f4 ff ff 	mov    %rax,-0xbd8(%rbp)
    fb95:	48 c7 85 30 f4 ff ff 	movq   $0x0,-0xbd0(%rbp)
    fb9c:	00 00 00 00 
    fba0:	48 8d 85 e4 f2 ff ff 	lea    -0xd1c(%rbp),%rax
    fba7:	48 89 85 38 f4 ff ff 	mov    %rax,-0xbc8(%rbp)
    fbae:	c7 85 30 f3 ff ff fb 	movl   $0xfffffffb,-0xcd0(%rbp)
    fbb5:	ff ff ff 
    fbb8:	66 c7 05 17 85 00 00 	movw   $0x0,0x8517(%rip)        # 180d8 <g_207>
    fbbf:	00 00 
    fbc1:	e9 03 03 00 00       	jmpq   fec9 <func_82+0x1c3c>
    fbc6:	48 c7 85 98 f3 ff ff 	movq   $0x0,-0xc68(%rbp)
    fbcd:	00 00 00 00 
    fbd1:	48 8d 85 d0 fb ff ff 	lea    -0x430(%rbp),%rax
    fbd8:	48 89 85 60 f4 ff ff 	mov    %rax,-0xba0(%rbp)
    fbdf:	48 8d 05 f4 84 00 00 	lea    0x84f4(%rip),%rax        # 180da <g_246>
    fbe6:	48 89 85 68 f4 ff ff 	mov    %rax,-0xb98(%rbp)
    fbed:	48 8d 05 29 85 00 00 	lea    0x8529(%rip),%rax        # 1811d <g_658+0x1d>
    fbf4:	48 89 85 70 f4 ff ff 	mov    %rax,-0xb90(%rbp)
    fbfb:	c7 85 1c f3 ff ff 00 	movl   $0x0,-0xce4(%rbp)
    fc02:	00 00 00 
    fc05:	eb 1e                	jmp    fc25 <func_82+0x1998>
    fc07:	8b 85 1c f3 ff ff    	mov    -0xce4(%rbp),%eax
    fc0d:	48 98                	cltq   
    fc0f:	48 8d 95 98 f3 ff ff 	lea    -0xc68(%rbp),%rdx
    fc16:	48 89 94 c5 d0 fb ff 	mov    %rdx,-0x430(%rbp,%rax,8)
    fc1d:	ff 
    fc1e:	83 85 1c f3 ff ff 01 	addl   $0x1,-0xce4(%rbp)
    fc25:	83 bd 1c f3 ff ff 00 	cmpl   $0x0,-0xce4(%rbp)
    fc2c:	7e d9                	jle    fc07 <func_82+0x197a>
    fc2e:	8b 05 44 84 00 00    	mov    0x8444(%rip),%eax        # 18078 <g_88>
    fc34:	89 85 b8 f2 ff ff    	mov    %eax,-0xd48(%rbp)
    fc3a:	48 83 bd 60 f4 ff ff 	cmpq   $0x0,-0xba0(%rbp)
    fc41:	00 
    fc42:	0f 95 85 9f f2 ff ff 	setne  -0xd61(%rbp)
    fc49:	8b 85 a0 f2 ff ff    	mov    -0xd60(%rbp),%eax
    fc4f:	89 85 98 f2 ff ff    	mov    %eax,-0xd68(%rbp)
    fc55:	48 8b 85 b0 f3 ff ff 	mov    -0xc50(%rbp),%rax
    fc5c:	48 8b 00             	mov    (%rax),%rax
    fc5f:	48 8b 00             	mov    (%rax),%rax
    fc62:	8b 00                	mov    (%rax),%eax
    fc64:	0f b7 d8             	movzwl %ax,%ebx
    fc67:	48 8b 85 68 f3 ff ff 	mov    -0xc98(%rbp),%rax
    fc6e:	48 8b 00             	mov    (%rax),%rax
    fc71:	8b 00                	mov    (%rax),%eax
    fc73:	44 0f b7 e0          	movzwl %ax,%r12d
    fc77:	44 8b ad a0 f2 ff ff 	mov    -0xd60(%rbp),%r13d
    fc7e:	48 8b 85 a0 f2 ff ff 	mov    -0xd60(%rbp),%rax
    fc85:	48 85 c0             	test   %rax,%rax
    fc88:	74 79                	je     fd03 <func_82+0x1a76>
    fc8a:	48 8b 05 f7 a3 00 00 	mov    0xa3f7(%rip),%rax        # 1a088 <g_142>
    fc91:	44 8b 30             	mov    (%rax),%r14d
    fc94:	8b 85 e4 f2 ff ff    	mov    -0xd1c(%rbp),%eax
    fc9a:	44 0f b7 f8          	movzwl %ax,%r15d
    fc9e:	48 8b 05 db a3 00 00 	mov    0xa3db(%rip),%rax        # 1a080 <g_135>
    fca5:	0f b7 00             	movzwl (%rax),%eax
    fca8:	0f bf d0             	movswl %ax,%edx
    fcab:	8b 85 a8 f2 ff ff    	mov    -0xd58(%rbp),%eax
    fcb1:	98                   	cwtl   
    fcb2:	89 d6                	mov    %edx,%esi
    fcb4:	89 c7                	mov    %eax,%edi
    fcb6:	e8 3a 97 ff ff       	callq  93f5 <safe_mul_func_int16_t_s_s>
    fcbb:	8b 05 cb 84 00 00    	mov    0x84cb(%rip),%eax        # 1818c <g_891>
    fcc1:	89 85 d0 f5 ff ff    	mov    %eax,-0xa30(%rbp)
    fcc7:	44 89 fe             	mov    %r15d,%esi
    fcca:	bf 73 bf 00 00       	mov    $0xbf73,%edi
    fccf:	e8 69 a0 ff ff       	callq  9d3d <safe_mul_func_uint16_t_u_u>
    fcd4:	66 3d b7 00          	cmp    $0xb7,%ax
    fcd8:	0f 96 c0             	setbe  %al
    fcdb:	0f b6 c0             	movzbl %al,%eax
    fcde:	be 03 00 00 00       	mov    $0x3,%esi
    fce3:	89 c7                	mov    %eax,%edi
    fce5:	e8 3b a2 ff ff       	callq  9f25 <safe_div_func_uint32_t_u_u>
    fcea:	44 89 f6             	mov    %r14d,%esi
    fced:	89 c7                	mov    %eax,%edi
    fcef:	e8 d8 99 ff ff       	callq  96cc <safe_mod_func_int32_t_s_s>
    fcf4:	39 85 2c f3 ff ff    	cmp    %eax,-0xcd4(%rbp)
    fcfa:	7c 07                	jl     fd03 <func_82+0x1a76>
    fcfc:	b9 01 00 00 00       	mov    $0x1,%ecx
    fd01:	eb 05                	jmp    fd08 <func_82+0x1a7b>
    fd03:	b9 00 00 00 00       	mov    $0x0,%ecx
    fd08:	48 8b 05 d1 a3 00 00 	mov    0xa3d1(%rip),%rax        # 1a0e0 <g_428>
    fd0f:	0f b7 10             	movzwl (%rax),%edx
    fd12:	48 8b 05 c7 a3 00 00 	mov    0xa3c7(%rip),%rax        # 1a0e0 <g_428>
    fd19:	31 ca                	xor    %ecx,%edx
    fd1b:	66 89 10             	mov    %dx,(%rax)
    fd1e:	8b 85 a0 f2 ff ff    	mov    -0xd60(%rbp),%eax
    fd24:	be f7 ff ff ff       	mov    $0xfffffff7,%esi
    fd29:	89 c7                	mov    %eax,%edi
    fd2b:	e8 a0 a1 ff ff       	callq  9ed0 <safe_sub_func_uint32_t_u_u>
    fd30:	89 c2                	mov    %eax,%edx
    fd32:	48 8b 85 68 f4 ff ff 	mov    -0xb98(%rbp),%rax
    fd39:	88 10                	mov    %dl,(%rax)
    fd3b:	48 8b 85 68 f4 ff ff 	mov    -0xb98(%rbp),%rax
    fd42:	0f b6 00             	movzbl (%rax),%eax
    fd45:	0f b6 c0             	movzbl %al,%eax
    fd48:	89 c6                	mov    %eax,%esi
    fd4a:	bf ff 00 00 00       	mov    $0xff,%edi
    fd4f:	e8 6a 9f ff ff       	callq  9cbe <safe_rshift_func_uint8_t_u_u>
    fd54:	0f b6 d0             	movzbl %al,%edx
    fd57:	48 8b 85 c8 f3 ff ff 	mov    -0xc38(%rbp),%rax
    fd5e:	89 10                	mov    %edx,(%rax)
    fd60:	48 8b 85 c8 f3 ff ff 	mov    -0xc38(%rbp),%rax
    fd67:	8b 00                	mov    (%rax),%eax
    fd69:	44 89 ee             	mov    %r13d,%esi
    fd6c:	89 c7                	mov    %eax,%edi
    fd6e:	e8 b2 a1 ff ff       	callq  9f25 <safe_div_func_uint32_t_u_u>
    fd73:	0f bf d0             	movswl %ax,%edx
    fd76:	48 8b 85 d8 f3 ff ff 	mov    -0xc28(%rbp),%rax
    fd7d:	8b 00                	mov    (%rax),%eax
    fd7f:	98                   	cwtl   
    fd80:	89 d6                	mov    %edx,%esi
    fd82:	89 c7                	mov    %eax,%edi
    fd84:	e8 4a 96 ff ff       	callq  93d3 <safe_sub_func_int16_t_s_s>
    fd89:	0f b7 c0             	movzwl %ax,%eax
    fd8c:	44 89 e6             	mov    %r12d,%esi
    fd8f:	89 c7                	mov    %eax,%edi
    fd91:	e8 69 9f ff ff       	callq  9cff <safe_add_func_uint16_t_u_u>
    fd96:	8b 05 dc 82 00 00    	mov    0x82dc(%rip),%eax        # 18078 <g_88>
    fd9c:	48 83 bd 20 f4 ff ff 	cmpq   $0x0,-0xbe0(%rbp)
    fda3:	00 
    fda4:	0f 94 c2             	sete   %dl
    fda7:	0f b6 ca             	movzbl %dl,%ecx
    fdaa:	8b 95 a0 f2 ff ff    	mov    -0xd60(%rbp),%edx
    fdb0:	09 ca                	or     %ecx,%edx
    fdb2:	39 d0                	cmp    %edx,%eax
    fdb4:	0f 93 c0             	setae  %al
    fdb7:	0f b6 d0             	movzbl %al,%edx
    fdba:	48 8b 85 70 f4 ff ff 	mov    -0xb90(%rbp),%rax
    fdc1:	0f b6 00             	movzbl (%rax),%eax
    fdc4:	89 c1                	mov    %eax,%ecx
    fdc6:	89 d0                	mov    %edx,%eax
    fdc8:	31 c8                	xor    %ecx,%eax
    fdca:	89 c2                	mov    %eax,%edx
    fdcc:	48 8b 85 70 f4 ff ff 	mov    -0xb90(%rbp),%rax
    fdd3:	88 10                	mov    %dl,(%rax)
    fdd5:	48 8b 85 70 f4 ff ff 	mov    -0xb90(%rbp),%rax
    fddc:	0f b6 00             	movzbl (%rax),%eax
    fddf:	0f b6 c0             	movzbl %al,%eax
    fde2:	89 c7                	mov    %eax,%edi
    fde4:	e8 5c 9d ff ff       	callq  9b45 <safe_unary_minus_func_uint8_t_u>
    fde9:	48 8b 95 70 f3 ff ff 	mov    -0xc90(%rbp),%rdx
    fdf0:	0f b7 0a             	movzwl (%rdx),%ecx
    fdf3:	0f b6 d0             	movzbl %al,%edx
    fdf6:	48 8b 85 70 f3 ff ff 	mov    -0xc90(%rbp),%rax
    fdfd:	09 ca                	or     %ecx,%edx
    fdff:	66 89 10             	mov    %dx,(%rax)
    fe02:	0f b7 00             	movzwl (%rax),%eax
    fe05:	0f b7 c0             	movzwl %ax,%eax
    fe08:	89 de                	mov    %ebx,%esi
    fe0a:	89 c7                	mov    %eax,%edi
    fe0c:	e8 4b 9f ff ff       	callq  9d5c <safe_mod_func_uint16_t_u_u>
    fe11:	0f b7 c0             	movzwl %ax,%eax
    fe14:	89 c6                	mov    %eax,%esi
    fe16:	bf 00 00 00 00       	mov    $0x0,%edi
    fe1b:	e8 05 a1 ff ff       	callq  9f25 <safe_div_func_uint32_t_u_u>
    fe20:	8b b5 98 f2 ff ff    	mov    -0xd68(%rbp),%esi
    fe26:	89 c7                	mov    %eax,%edi
    fe28:	e8 8b a0 ff ff       	callq  9eb8 <safe_add_func_uint32_t_u_u>
    fe2d:	89 c0                	mov    %eax,%eax
    fe2f:	be 01 00 00 00       	mov    $0x1,%esi
    fe34:	48 89 c7             	mov    %rax,%rdi
    fe37:	e8 f2 a1 ff ff       	callq  a02e <safe_add_func_uint64_t_u_u>
    fe3c:	48 85 c0             	test   %rax,%rax
    fe3f:	0f 95 c0             	setne  %al
    fe42:	32 85 9f f2 ff ff    	xor    -0xd61(%rbp),%al
    fe48:	84 c0                	test   %al,%al
    fe4a:	75 09                	jne    fe55 <func_82+0x1bc8>
    fe4c:	83 bd 2c f3 ff ff 00 	cmpl   $0x0,-0xcd4(%rbp)
    fe53:	74 07                	je     fe5c <func_82+0x1bcf>
    fe55:	b8 01 00 00 00       	mov    $0x1,%eax
    fe5a:	eb 05                	jmp    fe61 <func_82+0x1bd4>
    fe5c:	b8 00 00 00 00       	mov    $0x0,%eax
    fe61:	89 85 a8 f2 ff ff    	mov    %eax,-0xd58(%rbp)
    fe67:	8b 85 a8 f2 ff ff    	mov    -0xd58(%rbp),%eax
    fe6d:	8b 15 05 82 00 00    	mov    0x8205(%rip),%edx        # 18078 <g_88>
    fe73:	81 e2 ff ff 1f 00    	and    $0x1fffff,%edx
    fe79:	39 d0                	cmp    %edx,%eax
    fe7b:	0f 9e c0             	setle  %al
    fe7e:	0f b6 c0             	movzbl %al,%eax
    fe81:	8b b5 b8 f2 ff ff    	mov    -0xd48(%rbp),%esi
    fe87:	89 c7                	mov    %eax,%edi
    fe89:	e8 2a a0 ff ff       	callq  9eb8 <safe_add_func_uint32_t_u_u>
    fe8e:	48 8b 85 b0 f3 ff ff 	mov    -0xc50(%rbp),%rax
    fe95:	48 8b 00             	mov    (%rax),%rax
    fe98:	48 8b 00             	mov    (%rax),%rax
    fe9b:	c7 00 00 00 00 00    	movl   $0x0,(%rax)
    fea1:	48 8b 85 a0 f2 ff ff 	mov    -0xd60(%rbp),%rax
    fea8:	48 85 c0             	test   %rax,%rax
    feab:	0f b7 05 26 82 00 00 	movzwl 0x8226(%rip),%eax        # 180d8 <g_207>
    feb2:	0f b7 c0             	movzwl %ax,%eax
    feb5:	be 05 00 00 00       	mov    $0x5,%esi
    feba:	48 89 c7             	mov    %rax,%rdi
    febd:	e8 7f 99 ff ff       	callq  9841 <safe_add_func_int64_t_s_s>
    fec2:	66 89 05 0f 82 00 00 	mov    %ax,0x820f(%rip)        # 180d8 <g_207>
    fec9:	0f b7 05 08 82 00 00 	movzwl 0x8208(%rip),%eax        # 180d8 <g_207>
    fed0:	66 83 f8 31          	cmp    $0x31,%ax
    fed4:	0f 87 ec fc ff ff    	ja     fbc6 <func_82+0x1939>
    feda:	0f b6 05 09 82 00 00 	movzbl 0x8209(%rip),%eax        # 180ea <g_546>
    fee1:	0f be 85 ca f2 ff ff 	movsbl -0xd36(%rbp),%eax
    fee8:	83 bd 2c f3 ff ff 00 	cmpl   $0x0,-0xcd4(%rbp)
    feef:	75 7d                	jne    ff6e <func_82+0x1ce1>
    fef1:	48 8b 95 d8 f3 ff ff 	mov    -0xc28(%rbp),%rdx
    fef8:	8b 0a                	mov    (%rdx),%ecx
    fefa:	0f b6 15 e9 81 00 00 	movzbl 0x81e9(%rip),%edx        # 180ea <g_546>
    ff01:	0f be d2             	movsbl %dl,%edx
    ff04:	39 d1                	cmp    %edx,%ecx
    ff06:	0f 9f c1             	setg   %cl
    ff09:	48 8b 95 28 f4 ff ff 	mov    -0xbd8(%rbp),%rdx
    ff10:	48 c7 02 00 00 00 00 	movq   $0x0,(%rdx)
    ff17:	48 8b 95 28 f4 ff ff 	mov    -0xbd8(%rbp),%rdx
    ff1e:	48 8b 12             	mov    (%rdx),%rdx
    ff21:	48 8d 35 58 a1 00 00 	lea    0xa158(%rip),%rsi        # 1a080 <g_135>
    ff28:	48 39 f2             	cmp    %rsi,%rdx
    ff2b:	0f 95 c2             	setne  %dl
    ff2e:	0f b6 d2             	movzbl %dl,%edx
    ff31:	39 95 bc f2 ff ff    	cmp    %edx,-0xd44(%rbp)
    ff37:	0f 95 c2             	setne  %dl
    ff3a:	21 ca                	and    %ecx,%edx
    ff3c:	0f b6 ca             	movzbl %dl,%ecx
    ff3f:	0f be 95 ca f2 ff ff 	movsbl -0xd36(%rbp),%edx
    ff46:	39 d1                	cmp    %edx,%ecx
    ff48:	0f 9d c2             	setge  %dl
    ff4b:	0f b6 ca             	movzbl %dl,%ecx
    ff4e:	48 8b 95 38 f4 ff ff 	mov    -0xbc8(%rbp),%rdx
    ff55:	8b 12                	mov    (%rdx),%edx
    ff57:	31 d1                	xor    %edx,%ecx
    ff59:	48 8b 95 38 f4 ff ff 	mov    -0xbc8(%rbp),%rdx
    ff60:	89 0a                	mov    %ecx,(%rdx)
    ff62:	48 8b 95 a0 f2 ff ff 	mov    -0xd60(%rbp),%rdx
    ff69:	48 85 d2             	test   %rdx,%rdx
    ff6c:	74 07                	je     ff75 <func_82+0x1ce8>
    ff6e:	ba 01 00 00 00       	mov    $0x1,%edx
    ff73:	eb 05                	jmp    ff7a <func_82+0x1ced>
    ff75:	ba 00 00 00 00       	mov    $0x0,%edx
    ff7a:	89 c6                	mov    %eax,%esi
    ff7c:	89 d7                	mov    %edx,%edi
    ff7e:	e8 49 97 ff ff       	callq  96cc <safe_mod_func_int32_t_s_s>
    ff83:	48 98                	cltq   
    ff85:	48 89 05 ec 80 00 00 	mov    %rax,0x80ec(%rip)        # 18078 <g_88>
    ff8c:	48 8b 05 e5 80 00 00 	mov    0x80e5(%rip),%rax        # 18078 <g_88>
    ff93:	48 89 c6             	mov    %rax,%rsi
    ff96:	bf 01 00 00 00       	mov    $0x1,%edi
    ff9b:	e8 8e a0 ff ff       	callq  a02e <safe_add_func_uint64_t_u_u>
    ffa0:	48 8b 15 39 a1 00 00 	mov    0xa139(%rip),%rdx        # 1a0e0 <g_428>
    ffa7:	0f b7 12             	movzwl (%rdx),%edx
    ffaa:	48 0f bf d2          	movswq %dx,%rdx
    ffae:	48 39 d0             	cmp    %rdx,%rax
    ffb1:	0f 97 c0             	seta   %al
    ffb4:	0f b6 d0             	movzbl %al,%edx
    ffb7:	0f b6 05 1c 81 00 00 	movzbl 0x811c(%rip),%eax        # 180da <g_246>
    ffbe:	0f b6 c0             	movzbl %al,%eax
    ffc1:	39 c2                	cmp    %eax,%edx
    ffc3:	7d 0d                	jge    ffd2 <func_82+0x1d45>
    ffc5:	8b 85 bc f2 ff ff    	mov    -0xd44(%rbp),%eax
    ffcb:	48 98                	cltq   
    ffcd:	e9 7c 01 00 00       	jmpq   1014e <func_82+0x1ec1>
    ffd2:	48 c7 85 40 f4 ff ff 	movq   $0x0,-0xbc0(%rbp)
    ffd9:	00 00 00 00 
    ffdd:	48 c7 85 48 f4 ff ff 	movq   $0x0,-0xbb8(%rbp)
    ffe4:	00 00 00 00 
    ffe8:	48 8d 85 88 f3 ff ff 	lea    -0xc78(%rbp),%rax
    ffef:	48 89 85 50 f4 ff ff 	mov    %rax,-0xbb0(%rbp)
    fff6:	48 8d 05 c3 80 00 00 	lea    0x80c3(%rip),%rax        # 180c0 <g_115>
    fffd:	48 89 85 58 f4 ff ff 	mov    %rax,-0xba8(%rbp)
   10004:	48 8b 05 a5 a0 00 00 	mov    0xa0a5(%rip),%rax        # 1a0b0 <g_316>
   1000b:	48 8b 00             	mov    (%rax),%rax
   1000e:	8b 00                	mov    (%rax),%eax
   10010:	85 c0                	test   %eax,%eax
   10012:	0f 85 2e 01 00 00    	jne    10146 <func_82+0x1eb9>
   10018:	be fc ff 00 00       	mov    $0xfffc,%esi
   1001d:	bf 42 f7 00 00       	mov    $0xf742,%edi
   10022:	e8 35 9d ff ff       	callq  9d5c <safe_mod_func_uint16_t_u_u>
   10027:	66 85 c0             	test   %ax,%ax
   1002a:	0f 84 db 00 00 00    	je     1010b <func_82+0x1e7e>
   10030:	be 34 70 00 00       	mov    $0x7034,%esi
   10035:	bf 01 00 00 00       	mov    $0x1,%edi
   1003a:	e8 4f 9d ff ff       	callq  9d8e <safe_div_func_uint16_t_u_u>
   1003f:	48 8b 95 58 f4 ff ff 	mov    -0xba8(%rbp),%rdx
   10046:	48 8b 12             	mov    (%rdx),%rdx
   10049:	0f b7 c0             	movzwl %ax,%eax
   1004c:	48 21 c2             	and    %rax,%rdx
   1004f:	48 8b 85 58 f4 ff ff 	mov    -0xba8(%rbp),%rax
   10056:	48 89 10             	mov    %rdx,(%rax)
   10059:	48 8b 85 58 f4 ff ff 	mov    -0xba8(%rbp),%rax
   10060:	48 8b 00             	mov    (%rax),%rax
   10063:	48 89 c3             	mov    %rax,%rbx
   10066:	8b 15 0c 80 00 00    	mov    0x800c(%rip),%edx        # 18078 <g_88>
   1006c:	8b 85 2c f3 ff ff    	mov    -0xcd4(%rbp),%eax
   10072:	39 c2                	cmp    %eax,%edx
   10074:	0f 93 c0             	setae  %al
   10077:	0f b6 c0             	movzbl %al,%eax
   1007a:	89 c6                	mov    %eax,%esi
   1007c:	bf aa b5 00 00       	mov    $0xb5aa,%edi
   10081:	e8 b7 9c ff ff       	callq  9d3d <safe_mul_func_uint16_t_u_u>
   10086:	89 c2                	mov    %eax,%edx
   10088:	48 8b 05 f1 9f 00 00 	mov    0x9ff1(%rip),%rax        # 1a080 <g_135>
   1008f:	0f b7 08             	movzwl (%rax),%ecx
   10092:	48 8b 05 e7 9f 00 00 	mov    0x9fe7(%rip),%rax        # 1a080 <g_135>
   10099:	31 ca                	xor    %ecx,%edx
   1009b:	66 89 10             	mov    %dx,(%rax)
   1009e:	0f b7 00             	movzwl (%rax),%eax
   100a1:	0f b7 c0             	movzwl %ax,%eax
   100a4:	be 00 00 00 00       	mov    $0x0,%esi
   100a9:	89 c7                	mov    %eax,%edi
   100ab:	e8 ca 9d ff ff       	callq  9e7a <safe_rshift_func_uint16_t_u_u>
   100b0:	0f b7 c0             	movzwl %ax,%eax
   100b3:	89 c6                	mov    %eax,%esi
   100b5:	bf 01 00 00 00       	mov    $0x1,%edi
   100ba:	e8 7e 9c ff ff       	callq  9d3d <safe_mul_func_uint16_t_u_u>
   100bf:	0f b7 c8             	movzwl %ax,%ecx
   100c2:	48 8b 85 90 f5 ff ff 	mov    -0xa70(%rbp),%rax
   100c9:	48 89 05 10 80 00 00 	mov    %rax,0x8010(%rip)        # 180e0 <g_255>
   100d0:	48 8b 15 09 80 00 00 	mov    0x8009(%rip),%rdx        # 180e0 <g_255>
   100d7:	48 8b 85 50 f4 ff ff 	mov    -0xbb0(%rbp),%rax
   100de:	48 89 10             	mov    %rdx,(%rax)
   100e1:	48 8b 85 50 f4 ff ff 	mov    -0xbb0(%rbp),%rax
   100e8:	48 8b 00             	mov    (%rax),%rax
   100eb:	48 39 c1             	cmp    %rax,%rcx
   100ee:	0f 9f c0             	setg   %al
   100f1:	0f b6 c0             	movzbl %al,%eax
   100f4:	48 89 de             	mov    %rbx,%rsi
   100f7:	48 89 c7             	mov    %rax,%rdi
   100fa:	e8 81 9f ff ff       	callq  a080 <safe_mod_func_uint64_t_u_u>
   100ff:	48 85 c0             	test   %rax,%rax
   10102:	74 07                	je     1010b <func_82+0x1e7e>
   10104:	b8 01 00 00 00       	mov    $0x1,%eax
   10109:	eb 05                	jmp    10110 <func_82+0x1e83>
   1010b:	b8 00 00 00 00       	mov    $0x0,%eax
   10110:	89 85 30 f3 ff ff    	mov    %eax,-0xcd0(%rbp)
   10116:	0f b7 05 6b 80 00 00 	movzwl 0x806b(%rip),%eax        # 18188 <g_849>
   1011d:	0f b7 c0             	movzwl %ax,%eax
   10120:	be 05 00 00 00       	mov    $0x5,%esi
   10125:	89 c7                	mov    %eax,%edi
   10127:	e8 f3 9b ff ff       	callq  9d1f <safe_sub_func_uint16_t_u_u>
   1012c:	66 89 05 55 80 00 00 	mov    %ax,0x8055(%rip)        # 18188 <g_849>
   10133:	0f b7 05 4e 80 00 00 	movzwl 0x804e(%rip),%eax        # 18188 <g_849>
   1013a:	66 83 f8 ee          	cmp    $0xffee,%ax
   1013e:	0f 8c 2e fa ff ff    	jl     fb72 <func_82+0x18e5>
   10144:	eb 01                	jmp    10147 <func_82+0x1eba>
   10146:	90                   	nop
   10147:	b8 d3 d7 f1 a9       	mov    $0xa9f1d7d3,%eax
   1014c:	89 c0                	mov    %eax,%eax
   1014e:	48 8b 5d c8          	mov    -0x38(%rbp),%rbx
   10152:	64 48 33 1c 25 28 00 	xor    %fs:0x28,%rbx
   10159:	00 00 
   1015b:	74 05                	je     10162 <func_82+0x1ed5>
   1015d:	e8 0e 8f ff ff       	callq  9070 <__stack_chk_fail@plt>
   10162:	48 81 c4 48 0d 00 00 	add    $0xd48,%rsp
   10169:	5b                   	pop    %rbx
   1016a:	41 5c                	pop    %r12
   1016c:	41 5d                	pop    %r13
   1016e:	41 5e                	pop    %r14
   10170:	41 5f                	pop    %r15
   10172:	5d                   	pop    %rbp
   10173:	c3                   	retq   

0000000000010174 <func_89>:
   10174:	f3 0f 1e fa          	endbr64 
   10178:	55                   	push   %rbp
   10179:	48 89 e5             	mov    %rsp,%rbp
   1017c:	41 56                	push   %r14
   1017e:	41 55                	push   %r13
   10180:	41 54                	push   %r12
   10182:	53                   	push   %rbx
   10183:	48 81 ec 10 06 00 00 	sub    $0x610,%rsp
   1018a:	48 89 bd d8 f9 ff ff 	mov    %rdi,-0x628(%rbp)
   10191:	48 89 b5 d0 f9 ff ff 	mov    %rsi,-0x630(%rbp)
   10198:	64 48 8b 04 25 28 00 	mov    %fs:0x28,%rax
   1019f:	00 00 
   101a1:	48 89 45 d8          	mov    %rax,-0x28(%rbp)
   101a5:	31 c0                	xor    %eax,%eax
   101a7:	c7 85 f4 f9 ff ff 56 	movl   $0xb215ff56,-0x60c(%rbp)
   101ae:	ff 15 b2 
   101b1:	48 c7 85 38 fa ff ff 	movq   $0x0,-0x5c8(%rbp)
   101b8:	00 00 00 00 
   101bc:	48 8d 05 d9 7e 00 00 	lea    0x7ed9(%rip),%rax        # 1809c <g_100+0x1c>
   101c3:	48 89 85 40 fa ff ff 	mov    %rax,-0x5c0(%rbp)
   101ca:	48 8d 05 e7 7e 00 00 	lea    0x7ee7(%rip),%rax        # 180b8 <g_113>
   101d1:	48 89 85 18 fa ff ff 	mov    %rax,-0x5e8(%rbp)
   101d8:	48 c7 85 20 fa ff ff 	movq   $0x1,-0x5e0(%rbp)
   101df:	01 00 00 00 
   101e3:	48 8d 05 e2 7e 00 00 	lea    0x7ee2(%rip),%rax        # 180cc <g_189>
   101ea:	48 89 85 28 fa ff ff 	mov    %rax,-0x5d8(%rbp)
   101f1:	48 8d 85 28 fa ff ff 	lea    -0x5d8(%rbp),%rax
   101f8:	48 89 85 48 fa ff ff 	mov    %rax,-0x5b8(%rbp)
   101ff:	48 8d 85 90 fb ff ff 	lea    -0x470(%rbp),%rax
   10206:	48 8d 15 33 9b 00 00 	lea    0x9b33(%rip),%rdx        # 19d40 <g_3326+0x16ac>
   1020d:	b9 38 00 00 00       	mov    $0x38,%ecx
   10212:	48 89 c7             	mov    %rax,%rdi
   10215:	48 89 d6             	mov    %rdx,%rsi
   10218:	f3 48 a5             	rep movsq %ds:(%rsi),%es:(%rdi)
   1021b:	c6 85 ef f9 ff ff 13 	movb   $0x13,-0x611(%rbp)
   10222:	c6 85 f0 f9 ff ff 01 	movb   $0x1,-0x610(%rbp)
   10229:	c7 85 00 fa ff ff 26 	movl   $0x69eb0526,-0x600(%rbp)
   10230:	05 eb 69 
   10233:	48 8d 05 a6 7e 00 00 	lea    0x7ea6(%rip),%rax        # 180e0 <g_255>
   1023a:	48 89 85 50 fa ff ff 	mov    %rax,-0x5b0(%rbp)
   10241:	8b 85 d0 f9 ff ff    	mov    -0x630(%rbp),%eax
   10247:	25 ff ff 1f 00       	and    $0x1fffff,%eax
   1024c:	21 85 f4 f9 ff ff    	and    %eax,-0x60c(%rbp)
   10252:	48 8b 85 d0 f9 ff ff 	mov    -0x630(%rbp),%rax
   10259:	0f bf d8             	movswl %ax,%ebx
   1025c:	0f b6 05 0d 7e 00 00 	movzbl 0x7e0d(%rip),%eax        # 18070 <g_49>
   10263:	44 0f be e0          	movsbl %al,%r12d
   10267:	8b 05 b7 7d 00 00    	mov    0x7db7(%rip),%eax        # 18024 <g_3>
   1026d:	0f be d0             	movsbl %al,%edx
   10270:	48 8b 05 09 9e 00 00 	mov    0x9e09(%rip),%rax        # 1a080 <g_135>
   10277:	48 39 85 40 fa ff ff 	cmp    %rax,-0x5c0(%rbp)
   1027e:	0f 95 c0             	setne  %al
   10281:	0f b6 c0             	movzbl %al,%eax
   10284:	89 d6                	mov    %edx,%esi
   10286:	89 c7                	mov    %eax,%edi
   10288:	e8 a4 8f ff ff       	callq  9231 <safe_mod_func_int8_t_s_s>
   1028d:	44 89 e6             	mov    %r12d,%esi
   10290:	bf ec ff ff ff       	mov    $0xffffffec,%edi
   10295:	e8 d0 8f ff ff       	callq  926a <safe_div_func_int8_t_s_s>
   1029a:	48 0f be c0          	movsbq %al,%rax
   1029e:	8b 95 d0 f9 ff ff    	mov    -0x630(%rbp),%edx
   102a4:	81 e2 ff ff 1f 00    	and    $0x1fffff,%edx
   102aa:	89 d2                	mov    %edx,%edx
   102ac:	48 89 c6             	mov    %rax,%rsi
   102af:	48 89 d7             	mov    %rdx,%rdi
   102b2:	e8 94 9d ff ff       	callq  a04b <safe_sub_func_uint64_t_u_u>
   102b7:	0f be c0             	movsbl %al,%eax
   102ba:	be fd ff ff ff       	mov    $0xfffffffd,%esi
   102bf:	89 c7                	mov    %eax,%edi
   102c1:	e8 a4 8f ff ff       	callq  926a <safe_div_func_int8_t_s_s>
   102c6:	84 c0                	test   %al,%al
   102c8:	75 0f                	jne    102d9 <func_89+0x165>
   102ca:	8b 85 d0 f9 ff ff    	mov    -0x630(%rbp),%eax
   102d0:	25 ff ff 1f 00       	and    $0x1fffff,%eax
   102d5:	85 c0                	test   %eax,%eax
   102d7:	74 07                	je     102e0 <func_89+0x16c>
   102d9:	b8 01 00 00 00       	mov    $0x1,%eax
   102de:	eb 05                	jmp    102e5 <func_89+0x171>
   102e0:	b8 00 00 00 00       	mov    $0x0,%eax
   102e5:	83 c8 62             	or     $0x62,%eax
   102e8:	0f b7 c0             	movzwl %ax,%eax
   102eb:	be 1e 50 00 00       	mov    $0x501e,%esi
   102f0:	89 c7                	mov    %eax,%edi
   102f2:	e8 46 9a ff ff       	callq  9d3d <safe_mul_func_uint16_t_u_u>
   102f7:	98                   	cwtl   
   102f8:	89 de                	mov    %ebx,%esi
   102fa:	89 c7                	mov    %eax,%edi
   102fc:	e8 f4 90 ff ff       	callq  93f5 <safe_mul_func_int16_t_s_s>
   10301:	0f b6 c0             	movzbl %al,%eax
   10304:	89 c6                	mov    %eax,%esi
   10306:	bf 01 00 00 00       	mov    $0x1,%edi
   1030b:	e8 9e 98 ff ff       	callq  9bae <safe_mod_func_uint8_t_u_u>
   10310:	84 c0                	test   %al,%al
   10312:	74 18                	je     1032c <func_89+0x1b8>
   10314:	8b 85 d0 f9 ff ff    	mov    -0x630(%rbp),%eax
   1031a:	25 ff ff 1f 00       	and    $0x1fffff,%eax
   1031f:	85 c0                	test   %eax,%eax
   10321:	0f 84 dc 05 00 00    	je     10903 <func_89+0x78f>
   10327:	e9 15 ff ff ff       	jmpq   10241 <func_89+0xcd>
   1032c:	48 8d 95 30 fb ff ff 	lea    -0x4d0(%rbp),%rdx
   10333:	b8 00 00 00 00       	mov    $0x0,%eax
   10338:	b9 0c 00 00 00       	mov    $0xc,%ecx
   1033d:	48 89 d7             	mov    %rdx,%rdi
   10340:	f3 48 ab             	rep stos %rax,%es:(%rdi)
   10343:	c7 85 80 fa ff ff 1f 	movl   $0x17fabf1f,-0x580(%rbp)
   1034a:	bf fa 17 
   1034d:	c7 85 84 fa ff ff 1f 	movl   $0x17fabf1f,-0x57c(%rbp)
   10354:	bf fa 17 
   10357:	c7 85 88 fa ff ff 1f 	movl   $0x17fabf1f,-0x578(%rbp)
   1035e:	bf fa 17 
   10361:	c7 85 8c fa ff ff 1f 	movl   $0x17fabf1f,-0x574(%rbp)
   10368:	bf fa 17 
   1036b:	c7 85 90 fa ff ff 1f 	movl   $0x17fabf1f,-0x570(%rbp)
   10372:	bf fa 17 
   10375:	c7 85 94 fa ff ff 1f 	movl   $0x17fabf1f,-0x56c(%rbp)
   1037c:	bf fa 17 
   1037f:	c7 85 98 fa ff ff 1f 	movl   $0x17fabf1f,-0x568(%rbp)
   10386:	bf fa 17 
   10389:	c7 85 9c fa ff ff 1f 	movl   $0x17fabf1f,-0x564(%rbp)
   10390:	bf fa 17 
   10393:	48 8d 85 50 fd ff ff 	lea    -0x2b0(%rbp),%rax
   1039a:	48 8d 15 df 45 00 00 	lea    0x45df(%rip),%rdx        # 14980 <g_2811+0x1914>
   103a1:	b9 51 00 00 00       	mov    $0x51,%ecx
   103a6:	48 89 c7             	mov    %rax,%rdi
   103a9:	48 89 d6             	mov    %rdx,%rsi
   103ac:	f3 48 a5             	rep movsq %ds:(%rsi),%es:(%rdi)
   103af:	c7 85 f8 f9 ff ff 01 	movl   $0x1,-0x608(%rbp)
   103b6:	00 00 00 
   103b9:	48 c7 05 b4 7c 00 00 	movq   $0x0,0x7cb4(%rip)        # 18078 <g_88>
   103c0:	00 00 00 00 
   103c4:	e9 2a 05 00 00       	jmpq   108f3 <func_89+0x77f>
   103c9:	48 8d 05 e8 7c 00 00 	lea    0x7ce8(%rip),%rax        # 180b8 <g_113>
   103d0:	48 89 85 c0 fa ff ff 	mov    %rax,-0x540(%rbp)
   103d7:	48 8d 05 da 7c 00 00 	lea    0x7cda(%rip),%rax        # 180b8 <g_113>
   103de:	48 89 85 c8 fa ff ff 	mov    %rax,-0x538(%rbp)
   103e5:	48 8d 05 cc 7c 00 00 	lea    0x7ccc(%rip),%rax        # 180b8 <g_113>
   103ec:	48 89 85 d0 fa ff ff 	mov    %rax,-0x530(%rbp)
   103f3:	48 8d 05 be 7c 00 00 	lea    0x7cbe(%rip),%rax        # 180b8 <g_113>
   103fa:	48 89 85 d8 fa ff ff 	mov    %rax,-0x528(%rbp)
   10401:	48 8d 05 b0 7c 00 00 	lea    0x7cb0(%rip),%rax        # 180b8 <g_113>
   10408:	48 89 85 e0 fa ff ff 	mov    %rax,-0x520(%rbp)
   1040f:	66 c7 85 f2 f9 ff ff 	movw   $0xe83e,-0x60e(%rbp)
   10416:	3e e8 
   10418:	8b 85 d0 f9 ff ff    	mov    -0x630(%rbp),%eax
   1041e:	25 ff ff 1f 00       	and    $0x1fffff,%eax
   10423:	21 85 f4 f9 ff ff    	and    %eax,-0x60c(%rbp)
   10429:	8b 05 49 7c 00 00    	mov    0x7c49(%rip),%eax        # 18078 <g_88>
   1042f:	89 05 ef 7b 00 00    	mov    %eax,0x7bef(%rip)        # 18024 <g_3>
   10435:	48 8b 85 38 fb ff ff 	mov    -0x4c8(%rbp),%rax
   1043c:	48 89 85 18 fa ff ff 	mov    %rax,-0x5e8(%rbp)
   10443:	c7 85 f4 f9 ff ff f3 	movl   $0xfffffff3,-0x60c(%rbp)
   1044a:	ff ff ff 
   1044d:	e9 7f 04 00 00       	jmpq   108d1 <func_89+0x75d>
   10452:	c7 85 04 fa ff ff f5 	movl   $0x99311df5,-0x5fc(%rbp)
   10459:	1d 31 99 
   1045c:	48 8b 05 15 7c 00 00 	mov    0x7c15(%rip),%rax        # 18078 <g_88>
   10463:	89 c3                	mov    %eax,%ebx
   10465:	48 8b 85 d0 f9 ff ff 	mov    -0x630(%rbp),%rax
   1046c:	41 89 c4             	mov    %eax,%r12d
   1046f:	48 8b 85 d0 f9 ff ff 	mov    -0x630(%rbp),%rax
   10476:	41 89 c5             	mov    %eax,%r13d
   10479:	48 8b 85 d0 f9 ff ff 	mov    -0x630(%rbp),%rax
   10480:	41 89 c6             	mov    %eax,%r14d
   10483:	8b 85 d0 f9 ff ff    	mov    -0x630(%rbp),%eax
   10489:	8b 95 9c fa ff ff    	mov    -0x564(%rbp),%edx
   1048f:	89 95 04 fa ff ff    	mov    %edx,-0x5fc(%rbp)
   10495:	39 85 04 fa ff ff    	cmp    %eax,-0x5fc(%rbp)
   1049b:	0f 9e c0             	setle  %al
   1049e:	0f b6 c0             	movzbl %al,%eax
   104a1:	48 89 c6             	mov    %rax,%rsi
   104a4:	48 c7 c7 ff ff ff ff 	mov    $0xffffffffffffffff,%rdi
   104ab:	e8 91 93 ff ff       	callq  9841 <safe_add_func_int64_t_s_s>
   104b0:	44 89 f6             	mov    %r14d,%esi
   104b3:	89 c7                	mov    %eax,%edi
   104b5:	e8 43 9a ff ff       	callq  9efd <safe_mod_func_uint32_t_u_u>
   104ba:	0f be c0             	movsbl %al,%eax
   104bd:	89 c6                	mov    %eax,%esi
   104bf:	bf 00 00 00 00       	mov    $0x0,%edi
   104c4:	e8 68 8d ff ff       	callq  9231 <safe_mod_func_int8_t_s_s>
   104c9:	0f be c0             	movsbl %al,%eax
   104cc:	44 89 ee             	mov    %r13d,%esi
   104cf:	89 c7                	mov    %eax,%edi
   104d1:	e8 27 9a ff ff       	callq  9efd <safe_mod_func_uint32_t_u_u>
   104d6:	98                   	cwtl   
   104d7:	44 89 e6             	mov    %r12d,%esi
   104da:	89 c7                	mov    %eax,%edi
   104dc:	e8 b1 8f ff ff       	callq  9492 <safe_lshift_func_int16_t_s_s>
   104e1:	89 de                	mov    %ebx,%esi
   104e3:	bf 01 00 00 00       	mov    $0x1,%edi
   104e8:	e8 d1 97 ff ff       	callq  9cbe <safe_rshift_func_uint8_t_u_u>
   104ed:	66 83 bd f2 f9 ff ff 	cmpw   $0x0,-0x60e(%rbp)
   104f4:	00 
   104f5:	74 1c                	je     10513 <func_89+0x39f>
   104f7:	c7 85 0c fa ff ff ff 	movl   $0xffffffff,-0x5f4(%rbp)
   104fe:	ff ff ff 
   10501:	83 bd 0c fa ff ff 00 	cmpl   $0x0,-0x5f4(%rbp)
   10508:	0f 84 40 03 00 00    	je     1084e <func_89+0x6da>
   1050e:	e9 ce 03 00 00       	jmpq   108e1 <func_89+0x76d>
   10513:	48 8d 05 2e b4 00 00 	lea    0xb42e(%rip),%rax        # 1b948 <g_170>
   1051a:	48 89 85 58 fa ff ff 	mov    %rax,-0x5a8(%rbp)
   10521:	48 c7 85 f0 fa ff ff 	movq   $0x0,-0x510(%rbp)
   10528:	00 00 00 00 
   1052c:	48 c7 85 f8 fa ff ff 	movq   $0x0,-0x508(%rbp)
   10533:	00 00 00 00 
   10537:	48 c7 85 00 fb ff ff 	movq   $0x0,-0x500(%rbp)
   1053e:	00 00 00 00 
   10542:	48 c7 85 08 fb ff ff 	movq   $0x0,-0x4f8(%rbp)
   10549:	00 00 00 00 
   1054d:	48 c7 85 10 fb ff ff 	movq   $0x0,-0x4f0(%rbp)
   10554:	00 00 00 00 
   10558:	48 c7 85 18 fb ff ff 	movq   $0x0,-0x4e8(%rbp)
   1055f:	00 00 00 00 
   10563:	48 c7 85 20 fb ff ff 	movq   $0x0,-0x4e0(%rbp)
   1056a:	00 00 00 00 
   1056e:	48 8d 85 f0 fa ff ff 	lea    -0x510(%rbp),%rax
   10575:	48 83 c0 08          	add    $0x8,%rax
   10579:	48 89 85 30 fa ff ff 	mov    %rax,-0x5d0(%rbp)
   10580:	48 8d 05 49 7b 00 00 	lea    0x7b49(%rip),%rax        # 180d0 <g_193>
   10587:	48 89 85 60 fa ff ff 	mov    %rax,-0x5a0(%rbp)
   1058e:	c7 85 08 fa ff ff 22 	movl   $0xc3f20322,-0x5f8(%rbp)
   10595:	03 f2 c3 
   10598:	c6 85 f1 f9 ff ff 62 	movb   $0x62,-0x60f(%rbp)
   1059f:	48 8d 05 2e 7b 00 00 	lea    0x7b2e(%rip),%rax        # 180d4 <g_197>
   105a6:	48 89 85 68 fa ff ff 	mov    %rax,-0x598(%rbp)
   105ad:	48 8d 05 24 7b 00 00 	lea    0x7b24(%rip),%rax        # 180d8 <g_207>
   105b4:	48 89 85 70 fa ff ff 	mov    %rax,-0x590(%rbp)
   105bb:	c7 85 fc f9 ff ff 00 	movl   $0x0,-0x604(%rbp)
   105c2:	00 00 00 
   105c5:	eb 1e                	jmp    105e5 <func_89+0x471>
   105c7:	8b 85 fc f9 ff ff    	mov    -0x604(%rbp),%eax
   105cd:	48 98                	cltq   
   105cf:	48 8d 95 30 fa ff ff 	lea    -0x5d0(%rbp),%rdx
   105d6:	48 89 94 c5 a0 fa ff 	mov    %rdx,-0x560(%rbp,%rax,8)
   105dd:	ff 
   105de:	83 85 fc f9 ff ff 01 	addl   $0x1,-0x604(%rbp)
   105e5:	83 bd fc f9 ff ff 03 	cmpl   $0x3,-0x604(%rbp)
   105ec:	7e d9                	jle    105c7 <func_89+0x453>
   105ee:	48 8b 05 93 9a 00 00 	mov    0x9a93(%rip),%rax        # 1a088 <g_142>
   105f5:	8b 00                	mov    (%rax),%eax
   105f7:	85 c0                	test   %eax,%eax
   105f9:	0f 85 e1 02 00 00    	jne    108e0 <func_89+0x76c>
   105ff:	0f b6 05 6a 7a 00 00 	movzbl 0x7a6a(%rip),%eax        # 18070 <g_49>
   10606:	0f b6 d8             	movzbl %al,%ebx
   10609:	48 8b 05 70 9a 00 00 	mov    0x9a70(%rip),%rax        # 1a080 <g_135>
   10610:	0f b7 00             	movzwl (%rax),%eax
   10613:	44 0f bf e0          	movswl %ax,%r12d
   10617:	8b 85 d0 f9 ff ff    	mov    -0x630(%rbp),%eax
   1061d:	0f be d0             	movsbl %al,%edx
   10620:	48 8b 85 60 fa ff ff 	mov    -0x5a0(%rbp),%rax
   10627:	0f b6 08             	movzbl (%rax),%ecx
   1062a:	48 8b 85 d8 f9 ff ff 	mov    -0x628(%rbp),%rax
   10631:	0f b6 00             	movzbl (%rax),%eax
   10634:	31 c1                	xor    %eax,%ecx
   10636:	48 8b 85 60 fa ff ff 	mov    -0x5a0(%rbp),%rax
   1063d:	88 08                	mov    %cl,(%rax)
   1063f:	48 8b 85 60 fa ff ff 	mov    -0x5a0(%rbp),%rax
   10646:	0f b6 08             	movzbl (%rax),%ecx
   10649:	48 8b 85 d8 f9 ff ff 	mov    -0x628(%rbp),%rax
   10650:	88 08                	mov    %cl,(%rax)
   10652:	48 8b 85 d8 f9 ff ff 	mov    -0x628(%rbp),%rax
   10659:	0f b6 00             	movzbl (%rax),%eax
   1065c:	0f be c0             	movsbl %al,%eax
   1065f:	89 d6                	mov    %edx,%esi
   10661:	89 c7                	mov    %eax,%edi
   10663:	e8 02 8c ff ff       	callq  926a <safe_div_func_int8_t_s_s>
   10668:	0f be c0             	movsbl %al,%eax
   1066b:	8b 95 d0 f9 ff ff    	mov    -0x630(%rbp),%edx
   10671:	81 e2 ff ff 1f 00    	and    $0x1fffff,%edx
   10677:	39 d0                	cmp    %edx,%eax
   10679:	8b 85 d0 f9 ff ff    	mov    -0x630(%rbp),%eax
   1067f:	25 ff ff 1f 00       	and    $0x1fffff,%eax
   10684:	85 c0                	test   %eax,%eax
   10686:	48 c7 85 48 fa ff ff 	movq   $0x0,-0x5b8(%rbp)
   1068d:	00 00 00 00 
   10691:	48 8d 05 f0 99 00 00 	lea    0x99f0(%rip),%rax        # 1a088 <g_142>
   10698:	48 39 85 48 fa ff ff 	cmp    %rax,-0x5b8(%rbp)
   1069f:	0f be 85 f1 f9 ff ff 	movsbl -0x60f(%rbp),%eax
   106a6:	44 89 e6             	mov    %r12d,%esi
   106a9:	89 c7                	mov    %eax,%edi
   106ab:	e8 45 8d ff ff       	callq  93f5 <safe_mul_func_int16_t_s_s>
   106b0:	0f b7 c0             	movzwl %ax,%eax
   106b3:	be c6 4e 00 00       	mov    $0x4ec6,%esi
   106b8:	89 c7                	mov    %eax,%edi
   106ba:	e8 7e 96 ff ff       	callq  9d3d <safe_mul_func_uint16_t_u_u>
   106bf:	48 8b 05 ba 99 00 00 	mov    0x99ba(%rip),%rax        # 1a080 <g_135>
   106c6:	0f b7 00             	movzwl (%rax),%eax
   106c9:	0f b7 c0             	movzwl %ax,%eax
   106cc:	be 00 00 00 00       	mov    $0x0,%esi
   106d1:	89 c7                	mov    %eax,%edi
   106d3:	e8 65 96 ff ff       	callq  9d3d <safe_mul_func_uint16_t_u_u>
   106d8:	48 8b 95 68 fa ff ff 	mov    -0x598(%rbp),%rdx
   106df:	8b 12                	mov    (%rdx),%edx
   106e1:	0f b7 c0             	movzwl %ax,%eax
   106e4:	31 c2                	xor    %eax,%edx
   106e6:	48 8b 85 68 fa ff ff 	mov    -0x598(%rbp),%rax
   106ed:	89 10                	mov    %edx,(%rax)
   106ef:	8b 85 04 fa ff ff    	mov    -0x5fc(%rbp),%eax
   106f5:	89 de                	mov    %ebx,%esi
   106f7:	89 c7                	mov    %eax,%edi
   106f9:	e8 01 90 ff ff       	callq  96ff <safe_div_func_int32_t_s_s>
   106fe:	48 63 d8             	movslq %eax,%rbx
   10701:	48 8b 85 58 fa ff ff 	mov    -0x5a8(%rbp),%rax
   10708:	c7 00 a7 50 f4 af    	movl   $0xaff450a7,(%rax)
   1070e:	48 8b 85 58 fa ff ff 	mov    -0x5a8(%rbp),%rax
   10715:	8b 00                	mov    (%rax),%eax
   10717:	8b 15 3b 79 00 00    	mov    0x793b(%rip),%edx        # 18058 <g_4+0x18>
   1071d:	39 d0                	cmp    %edx,%eax
   1071f:	0f 94 c0             	sete   %al
   10722:	44 0f b6 e0          	movzbl %al,%r12d
   10726:	48 8b 05 53 99 00 00 	mov    0x9953(%rip),%rax        # 1a080 <g_135>
   1072d:	0f b7 00             	movzwl (%rax),%eax
   10730:	0f b7 c0             	movzwl %ax,%eax
   10733:	be 08 00 00 00       	mov    $0x8,%esi
   10738:	89 c7                	mov    %eax,%edi
   1073a:	e8 3b 97 ff ff       	callq  9e7a <safe_rshift_func_uint16_t_u_u>
   1073f:	98                   	cwtl   
   10740:	44 89 e6             	mov    %r12d,%esi
   10743:	89 c7                	mov    %eax,%edi
   10745:	e8 97 8d ff ff       	callq  94e1 <safe_lshift_func_int16_t_s_u>
   1074a:	48 0f bf c0          	movswq %ax,%rax
   1074e:	48 89 de             	mov    %rbx,%rsi
   10751:	48 89 c7             	mov    %rax,%rdi
   10754:	e8 4f 91 ff ff       	callq  98a8 <safe_sub_func_int64_t_s_s>
   10759:	48 85 c0             	test   %rax,%rax
   1075c:	74 11                	je     1076f <func_89+0x5fb>
   1075e:	8b 05 54 79 00 00    	mov    0x7954(%rip),%eax        # 180b8 <g_113>
   10764:	85 c0                	test   %eax,%eax
   10766:	74 07                	je     1076f <func_89+0x5fb>
   10768:	b8 01 00 00 00       	mov    $0x1,%eax
   1076d:	eb 05                	jmp    10774 <func_89+0x600>
   1076f:	b8 00 00 00 00       	mov    $0x0,%eax
   10774:	89 85 04 fa ff ff    	mov    %eax,-0x5fc(%rbp)
   1077a:	44 8b a5 d0 f9 ff ff 	mov    -0x630(%rbp),%r12d
   10781:	48 8b 85 d8 f9 ff ff 	mov    -0x628(%rbp),%rax
   10788:	0f b6 00             	movzbl (%rax),%eax
   1078b:	0f b6 c0             	movzbl %al,%eax
   1078e:	89 c6                	mov    %eax,%esi
   10790:	bf ff 00 00 00       	mov    $0xff,%edi
   10795:	e8 14 94 ff ff       	callq  9bae <safe_mod_func_uint8_t_u_u>
   1079a:	44 0f b6 e8          	movzbl %al,%r13d
   1079e:	8b 05 24 79 00 00    	mov    0x7924(%rip),%eax        # 180c8 <g_186>
   107a4:	48 63 d8             	movslq %eax,%rbx
   107a7:	48 8b 85 70 fa ff ff 	mov    -0x590(%rbp),%rax
   107ae:	0f b7 10             	movzwl (%rax),%edx
   107b1:	48 8b 05 c8 98 00 00 	mov    0x98c8(%rip),%rax        # 1a080 <g_135>
   107b8:	0f b7 00             	movzwl (%rax),%eax
   107bb:	21 c2                	and    %eax,%edx
   107bd:	48 8b 85 70 fa ff ff 	mov    -0x590(%rbp),%rax
   107c4:	66 89 10             	mov    %dx,(%rax)
   107c7:	48 8b 85 70 fa ff ff 	mov    -0x590(%rbp),%rax
   107ce:	0f b7 00             	movzwl (%rax),%eax
   107d1:	0f b7 c0             	movzwl %ax,%eax
   107d4:	89 c6                	mov    %eax,%esi
   107d6:	bf 01 00 00 00       	mov    $0x1,%edi
   107db:	e8 01 8d ff ff       	callq  94e1 <safe_lshift_func_int16_t_s_u>
   107e0:	48 0f bf c0          	movswq %ax,%rax
   107e4:	48 89 de             	mov    %rbx,%rsi
   107e7:	48 89 c7             	mov    %rax,%rdi
   107ea:	e8 b9 90 ff ff       	callq  98a8 <safe_sub_func_int64_t_s_s>
   107ef:	49 39 c5             	cmp    %rax,%r13
   107f2:	0f 9d c0             	setge  %al
   107f5:	0f b6 d0             	movzbl %al,%edx
   107f8:	8b 85 d0 f9 ff ff    	mov    -0x630(%rbp),%eax
   107fe:	25 ff ff 1f 00       	and    $0x1fffff,%eax
   10803:	89 c6                	mov    %eax,%esi
   10805:	48 8b 85 28 fa ff ff 	mov    -0x5d8(%rbp),%rax
   1080c:	8b 08                	mov    (%rax),%ecx
   1080e:	48 8b 85 d8 f9 ff ff 	mov    -0x628(%rbp),%rax
   10815:	0f b6 00             	movzbl (%rax),%eax
   10818:	0f be c0             	movsbl %al,%eax
   1081b:	31 c8                	xor    %ecx,%eax
   1081d:	39 c6                	cmp    %eax,%esi
   1081f:	0f 9e c0             	setle  %al
   10822:	0f b6 c0             	movzbl %al,%eax
   10825:	89 d6                	mov    %edx,%esi
   10827:	89 c7                	mov    %eax,%edi
   10829:	e8 8a 96 ff ff       	callq  9eb8 <safe_add_func_uint32_t_u_u>
   1082e:	89 c2                	mov    %eax,%edx
   10830:	48 8b 85 d0 f9 ff ff 	mov    -0x630(%rbp),%rax
   10837:	48 39 c2             	cmp    %rax,%rdx
   1083a:	0f 92 c0             	setb   %al
   1083d:	0f b6 c0             	movzbl %al,%eax
   10840:	44 89 e2             	mov    %r12d,%edx
   10843:	09 c2                	or     %eax,%edx
   10845:	48 8b 85 28 fa ff ff 	mov    -0x5d8(%rbp),%rax
   1084c:	89 10                	mov    %edx,(%rax)
   1084e:	83 85 f8 f9 ff ff 01 	addl   $0x1,-0x608(%rbp)
   10855:	c7 05 e9 b0 00 00 ea 	movl   $0xffffffea,0xb0e9(%rip)        # 1b948 <g_170>
   1085c:	ff ff ff 
   1085f:	eb 4b                	jmp    108ac <func_89+0x738>
   10861:	c7 85 20 fa ff ff 00 	movl   $0x0,-0x5e0(%rbp)
   10868:	00 00 00 
   1086b:	eb 22                	jmp    1088f <func_89+0x71b>
   1086d:	c7 85 10 fa ff ff ff 	movl   $0xffffffff,-0x5f0(%rbp)
   10874:	ff ff ff 
   10877:	83 bd 10 fa ff ff 00 	cmpl   $0x0,-0x5f0(%rbp)
   1087e:	75 1c                	jne    1089c <func_89+0x728>
   10880:	8b 85 20 fa ff ff    	mov    -0x5e0(%rbp),%eax
   10886:	83 c0 01             	add    $0x1,%eax
   10889:	89 85 20 fa ff ff    	mov    %eax,-0x5e0(%rbp)
   1088f:	8b 85 20 fa ff ff    	mov    -0x5e0(%rbp),%eax
   10895:	83 f8 04             	cmp    $0x4,%eax
   10898:	7e d3                	jle    1086d <func_89+0x6f9>
   1089a:	eb 01                	jmp    1089d <func_89+0x729>
   1089c:	90                   	nop
   1089d:	8b 05 a5 b0 00 00    	mov    0xb0a5(%rip),%eax        # 1b948 <g_170>
   108a3:	83 c0 01             	add    $0x1,%eax
   108a6:	89 05 9c b0 00 00    	mov    %eax,0xb09c(%rip)        # 1b948 <g_170>
   108ac:	8b 05 96 b0 00 00    	mov    0xb096(%rip),%eax        # 1b948 <g_170>
   108b2:	83 f8 39             	cmp    $0x39,%eax
   108b5:	77 aa                	ja     10861 <func_89+0x6ed>
   108b7:	8b 85 f4 f9 ff ff    	mov    -0x60c(%rbp),%eax
   108bd:	98                   	cwtl   
   108be:	be 08 00 00 00       	mov    $0x8,%esi
   108c3:	89 c7                	mov    %eax,%edi
   108c5:	e8 e9 8a ff ff       	callq  93b3 <safe_add_func_int16_t_s_s>
   108ca:	98                   	cwtl   
   108cb:	89 85 f4 f9 ff ff    	mov    %eax,-0x60c(%rbp)
   108d1:	83 bd f4 f9 ff ff f7 	cmpl   $0xfffffff7,-0x60c(%rbp)
   108d8:	0f 8c 74 fb ff ff    	jl     10452 <func_89+0x2de>
   108de:	eb 01                	jmp    108e1 <func_89+0x76d>
   108e0:	90                   	nop
   108e1:	48 8b 05 90 77 00 00 	mov    0x7790(%rip),%rax        # 18078 <g_88>
   108e8:	48 83 c0 01          	add    $0x1,%rax
   108ec:	48 89 05 85 77 00 00 	mov    %rax,0x7785(%rip)        # 18078 <g_88>
   108f3:	48 8b 05 7e 77 00 00 	mov    0x777e(%rip),%rax        # 18078 <g_88>
   108fa:	48 85 c0             	test   %rax,%rax
   108fd:	0f 8e c6 fa ff ff    	jle    103c9 <func_89+0x255>
   10903:	83 ad 00 fa ff ff 01 	subl   $0x1,-0x600(%rbp)
   1090a:	c7 05 34 b0 00 00 14 	movl   $0x14,0xb034(%rip)        # 1b948 <g_170>
   10911:	00 00 00 
   10914:	eb 51                	jmp    10967 <func_89+0x7f3>
   10916:	48 b8 ef 4f 87 68 f9 	movabs $0x9a4cdcf968874fef,%rax
   1091d:	dc 4c 9a 
   10920:	48 89 85 78 fa ff ff 	mov    %rax,-0x588(%rbp)
   10927:	48 8d 85 50 fd ff ff 	lea    -0x2b0(%rbp),%rax
   1092e:	48 8d 15 cb 95 00 00 	lea    0x95cb(%rip),%rdx        # 19f00 <g_3326+0x186c>
   10935:	b9 30 00 00 00       	mov    $0x30,%ecx
   1093a:	48 89 c7             	mov    %rax,%rdi
   1093d:	48 89 d6             	mov    %rdx,%rsi
   10940:	f3 48 a5             	rep movsq %ds:(%rsi),%es:(%rdi)
   10943:	c7 85 14 fa ff ff ff 	movl   $0xffffffff,-0x5ec(%rbp)
   1094a:	ff ff ff 
   1094d:	8b 05 f5 af 00 00    	mov    0xaff5(%rip),%eax        # 1b948 <g_170>
   10953:	98                   	cwtl   
   10954:	be 06 00 00 00       	mov    $0x6,%esi
   10959:	89 c7                	mov    %eax,%edi
   1095b:	e8 53 8a ff ff       	callq  93b3 <safe_add_func_int16_t_s_s>
   10960:	98                   	cwtl   
   10961:	89 05 e1 af 00 00    	mov    %eax,0xafe1(%rip)        # 1b948 <g_170>
   10967:	8b 05 db af 00 00    	mov    0xafdb(%rip),%eax        # 1b948 <g_170>
   1096d:	83 f8 15             	cmp    $0x15,%eax
   10970:	77 a4                	ja     10916 <func_89+0x7a2>
   10972:	48 8d 05 67 77 00 00 	lea    0x7767(%rip),%rax        # 180e0 <g_255>
   10979:	48 8b 5d d8          	mov    -0x28(%rbp),%rbx
   1097d:	64 48 33 1c 25 28 00 	xor    %fs:0x28,%rbx
   10984:	00 00 
   10986:	74 05                	je     1098d <func_89+0x819>
   10988:	e8 e3 86 ff ff       	callq  9070 <__stack_chk_fail@plt>
   1098d:	48 81 c4 10 06 00 00 	add    $0x610,%rsp
   10994:	5b                   	pop    %rbx
   10995:	41 5c                	pop    %r12
   10997:	41 5d                	pop    %r13
   10999:	41 5e                	pop    %r14
   1099b:	5d                   	pop    %rbp
   1099c:	c3                   	retq   

000000000001099d <func_92>:
   1099d:	f3 0f 1e fa          	endbr64 
   109a1:	55                   	push   %rbp
   109a2:	48 89 e5             	mov    %rsp,%rbp
   109a5:	53                   	push   %rbx
   109a6:	48 81 ec 18 04 00 00 	sub    $0x418,%rsp
   109ad:	48 89 bd 08 fc ff ff 	mov    %rdi,-0x3f8(%rbp)
   109b4:	48 89 b5 00 fc ff ff 	mov    %rsi,-0x400(%rbp)
   109bb:	48 89 95 f8 fb ff ff 	mov    %rdx,-0x408(%rbp)
   109c2:	48 89 8d f0 fb ff ff 	mov    %rcx,-0x410(%rbp)
   109c9:	44 89 85 ec fb ff ff 	mov    %r8d,-0x414(%rbp)
   109d0:	64 48 8b 04 25 28 00 	mov    %fs:0x28,%rax
   109d7:	00 00 
   109d9:	48 89 45 e8          	mov    %rax,-0x18(%rbp)
   109dd:	31 c0                	xor    %eax,%eax
   109df:	48 8d 05 62 76 00 00 	lea    0x7662(%rip),%rax        # 18048 <g_4+0x8>
   109e6:	48 89 85 60 fd ff ff 	mov    %rax,-0x2a0(%rbp)
   109ed:	48 c7 85 68 fd ff ff 	movq   $0x0,-0x298(%rbp)
   109f4:	00 00 00 00 
   109f8:	48 8d 05 79 76 00 00 	lea    0x7679(%rip),%rax        # 18078 <g_88>
   109ff:	48 89 85 70 fd ff ff 	mov    %rax,-0x290(%rbp)
   10a06:	48 8d 05 17 76 00 00 	lea    0x7617(%rip),%rax        # 18024 <g_3>
   10a0d:	48 89 85 78 fd ff ff 	mov    %rax,-0x288(%rbp)
   10a14:	48 c7 85 80 fd ff ff 	movq   $0x0,-0x280(%rbp)
   10a1b:	00 00 00 00 
   10a1f:	48 8d 85 20 fc ff ff 	lea    -0x3e0(%rbp),%rax
   10a26:	48 89 85 88 fd ff ff 	mov    %rax,-0x278(%rbp)
   10a2d:	48 c7 85 90 fd ff ff 	movq   $0x0,-0x270(%rbp)
   10a34:	00 00 00 00 
   10a38:	48 c7 85 98 fd ff ff 	movq   $0x0,-0x268(%rbp)
   10a3f:	00 00 00 00 
   10a43:	48 8d 85 20 fc ff ff 	lea    -0x3e0(%rbp),%rax
   10a4a:	48 89 85 a0 fd ff ff 	mov    %rax,-0x260(%rbp)
   10a51:	48 c7 85 a8 fd ff ff 	movq   $0x0,-0x258(%rbp)
   10a58:	00 00 00 00 
   10a5c:	48 c7 85 b0 fd ff ff 	movq   $0x0,-0x250(%rbp)
   10a63:	00 00 00 00 
   10a67:	48 8d 05 0a 76 00 00 	lea    0x760a(%rip),%rax        # 18078 <g_88>
   10a6e:	48 89 85 b8 fd ff ff 	mov    %rax,-0x248(%rbp)
   10a75:	48 8d 05 fc 75 00 00 	lea    0x75fc(%rip),%rax        # 18078 <g_88>
   10a7c:	48 89 85 c0 fd ff ff 	mov    %rax,-0x240(%rbp)
   10a83:	48 c7 85 c8 fd ff ff 	movq   $0x0,-0x238(%rbp)
   10a8a:	00 00 00 00 
   10a8e:	48 8d 05 b3 75 00 00 	lea    0x75b3(%rip),%rax        # 18048 <g_4+0x8>
   10a95:	48 89 85 d0 fd ff ff 	mov    %rax,-0x230(%rbp)
   10a9c:	48 c7 85 d8 fd ff ff 	movq   $0x0,-0x228(%rbp)
   10aa3:	00 00 00 00 
   10aa7:	48 c7 85 e0 fd ff ff 	movq   $0x0,-0x220(%rbp)
   10aae:	00 00 00 00 
   10ab2:	48 8d 85 20 fc ff ff 	lea    -0x3e0(%rbp),%rax
   10ab9:	48 89 85 e8 fd ff ff 	mov    %rax,-0x218(%rbp)
   10ac0:	48 c7 85 f0 fd ff ff 	movq   $0x0,-0x210(%rbp)
   10ac7:	00 00 00 00 
   10acb:	48 8d 05 52 75 00 00 	lea    0x7552(%rip),%rax        # 18024 <g_3>
   10ad2:	48 89 85 f8 fd ff ff 	mov    %rax,-0x208(%rbp)
   10ad9:	48 c7 85 00 fe ff ff 	movq   $0x0,-0x200(%rbp)
   10ae0:	00 00 00 00 
   10ae4:	48 c7 85 08 fe ff ff 	movq   $0x0,-0x1f8(%rbp)
   10aeb:	00 00 00 00 
   10aef:	48 c7 85 10 fe ff ff 	movq   $0x0,-0x1f0(%rbp)
   10af6:	00 00 00 00 
   10afa:	48 8d 05 77 75 00 00 	lea    0x7577(%rip),%rax        # 18078 <g_88>
   10b01:	48 89 85 18 fe ff ff 	mov    %rax,-0x1e8(%rbp)
   10b08:	48 8d 85 20 fc ff ff 	lea    -0x3e0(%rbp),%rax
   10b0f:	48 89 85 20 fe ff ff 	mov    %rax,-0x1e0(%rbp)
   10b16:	48 8d 85 20 fc ff ff 	lea    -0x3e0(%rbp),%rax
   10b1d:	48 89 85 28 fe ff ff 	mov    %rax,-0x1d8(%rbp)
   10b24:	48 8d 05 4d 75 00 00 	lea    0x754d(%rip),%rax        # 18078 <g_88>
   10b2b:	48 89 85 30 fe ff ff 	mov    %rax,-0x1d0(%rbp)
   10b32:	48 c7 85 38 fe ff ff 	movq   $0x0,-0x1c8(%rbp)
   10b39:	00 00 00 00 
   10b3d:	48 c7 85 40 fe ff ff 	movq   $0x0,-0x1c0(%rbp)
   10b44:	00 00 00 00 
   10b48:	48 c7 85 48 fe ff ff 	movq   $0x0,-0x1b8(%rbp)
   10b4f:	00 00 00 00 
   10b53:	48 8d 05 ee 74 00 00 	lea    0x74ee(%rip),%rax        # 18048 <g_4+0x8>
   10b5a:	48 89 85 50 fe ff ff 	mov    %rax,-0x1b0(%rbp)
   10b61:	48 8d 05 bc 74 00 00 	lea    0x74bc(%rip),%rax        # 18024 <g_3>
   10b68:	48 89 85 58 fe ff ff 	mov    %rax,-0x1a8(%rbp)
   10b6f:	48 c7 85 60 fe ff ff 	movq   $0x0,-0x1a0(%rbp)
   10b76:	00 00 00 00 
   10b7a:	48 c7 85 68 fe ff ff 	movq   $0x0,-0x198(%rbp)
   10b81:	00 00 00 00 
   10b85:	48 c7 85 70 fe ff ff 	movq   $0x0,-0x190(%rbp)
   10b8c:	00 00 00 00 
   10b90:	48 c7 85 78 fe ff ff 	movq   $0x0,-0x188(%rbp)
   10b97:	00 00 00 00 
   10b9b:	48 8d 05 d6 74 00 00 	lea    0x74d6(%rip),%rax        # 18078 <g_88>
   10ba2:	48 89 85 80 fe ff ff 	mov    %rax,-0x180(%rbp)
   10ba9:	48 8d 85 20 fc ff ff 	lea    -0x3e0(%rbp),%rax
   10bb0:	48 89 85 88 fe ff ff 	mov    %rax,-0x178(%rbp)
   10bb7:	48 8d 85 20 fc ff ff 	lea    -0x3e0(%rbp),%rax
   10bbe:	48 89 85 90 fe ff ff 	mov    %rax,-0x170(%rbp)
   10bc5:	48 8d 05 ac 74 00 00 	lea    0x74ac(%rip),%rax        # 18078 <g_88>
   10bcc:	48 89 85 98 fe ff ff 	mov    %rax,-0x168(%rbp)
   10bd3:	48 8d 85 20 fc ff ff 	lea    -0x3e0(%rbp),%rax
   10bda:	48 89 85 a0 fe ff ff 	mov    %rax,-0x160(%rbp)
   10be1:	48 c7 85 a8 fe ff ff 	movq   $0x0,-0x158(%rbp)
   10be8:	00 00 00 00 
   10bec:	48 8d 05 31 74 00 00 	lea    0x7431(%rip),%rax        # 18024 <g_3>
   10bf3:	48 89 85 b0 fe ff ff 	mov    %rax,-0x150(%rbp)
   10bfa:	48 8d 05 23 74 00 00 	lea    0x7423(%rip),%rax        # 18024 <g_3>
   10c01:	48 89 85 b8 fe ff ff 	mov    %rax,-0x148(%rbp)
   10c08:	48 c7 85 c0 fe ff ff 	movq   $0x0,-0x140(%rbp)
   10c0f:	00 00 00 00 
   10c13:	48 8d 85 20 fc ff ff 	lea    -0x3e0(%rbp),%rax
   10c1a:	48 89 85 c8 fe ff ff 	mov    %rax,-0x138(%rbp)
   10c21:	48 c7 85 d0 fe ff ff 	movq   $0x0,-0x130(%rbp)
   10c28:	00 00 00 00 
   10c2c:	48 c7 85 d8 fe ff ff 	movq   $0x0,-0x128(%rbp)
   10c33:	00 00 00 00 
   10c37:	48 8d 05 0a 74 00 00 	lea    0x740a(%rip),%rax        # 18048 <g_4+0x8>
   10c3e:	48 89 85 e0 fe ff ff 	mov    %rax,-0x120(%rbp)
   10c45:	48 c7 85 e8 fe ff ff 	movq   $0x0,-0x118(%rbp)
   10c4c:	00 00 00 00 
   10c50:	48 c7 85 f0 fe ff ff 	movq   $0x0,-0x110(%rbp)
   10c57:	00 00 00 00 
   10c5b:	48 8d 05 16 74 00 00 	lea    0x7416(%rip),%rax        # 18078 <g_88>
   10c62:	48 89 85 f8 fe ff ff 	mov    %rax,-0x108(%rbp)
   10c69:	48 8d 05 b4 73 00 00 	lea    0x73b4(%rip),%rax        # 18024 <g_3>
   10c70:	48 89 85 00 ff ff ff 	mov    %rax,-0x100(%rbp)
   10c77:	48 c7 85 08 ff ff ff 	movq   $0x0,-0xf8(%rbp)
   10c7e:	00 00 00 00 
   10c82:	48 8d 85 20 fc ff ff 	lea    -0x3e0(%rbp),%rax
   10c89:	48 89 85 10 ff ff ff 	mov    %rax,-0xf0(%rbp)
   10c90:	48 c7 85 18 ff ff ff 	movq   $0x0,-0xe8(%rbp)
   10c97:	00 00 00 00 
   10c9b:	48 c7 85 20 ff ff ff 	movq   $0x0,-0xe0(%rbp)
   10ca2:	00 00 00 00 
   10ca6:	48 8d 85 20 fc ff ff 	lea    -0x3e0(%rbp),%rax
   10cad:	48 89 85 28 ff ff ff 	mov    %rax,-0xd8(%rbp)
   10cb4:	48 c7 85 30 ff ff ff 	movq   $0x0,-0xd0(%rbp)
   10cbb:	00 00 00 00 
   10cbf:	48 8d 05 5e 73 00 00 	lea    0x735e(%rip),%rax        # 18024 <g_3>
   10cc6:	48 89 85 38 ff ff ff 	mov    %rax,-0xc8(%rbp)
   10ccd:	48 c7 85 40 ff ff ff 	movq   $0x0,-0xc0(%rbp)
   10cd4:	00 00 00 00 
   10cd8:	48 c7 85 48 ff ff ff 	movq   $0x0,-0xb8(%rbp)
   10cdf:	00 00 00 00 
   10ce3:	48 c7 85 50 ff ff ff 	movq   $0x0,-0xb0(%rbp)
   10cea:	00 00 00 00 
   10cee:	48 8d 05 83 73 00 00 	lea    0x7383(%rip),%rax        # 18078 <g_88>
   10cf5:	48 89 85 58 ff ff ff 	mov    %rax,-0xa8(%rbp)
   10cfc:	48 8d 05 45 73 00 00 	lea    0x7345(%rip),%rax        # 18048 <g_4+0x8>
   10d03:	48 89 85 60 ff ff ff 	mov    %rax,-0xa0(%rbp)
   10d0a:	48 8d 85 20 fc ff ff 	lea    -0x3e0(%rbp),%rax
   10d11:	48 89 85 68 ff ff ff 	mov    %rax,-0x98(%rbp)
   10d18:	48 8d 05 05 73 00 00 	lea    0x7305(%rip),%rax        # 18024 <g_3>
   10d1f:	48 89 85 70 ff ff ff 	mov    %rax,-0x90(%rbp)
   10d26:	48 c7 85 78 ff ff ff 	movq   $0x0,-0x88(%rbp)
   10d2d:	00 00 00 00 
   10d31:	48 c7 45 80 00 00 00 	movq   $0x0,-0x80(%rbp)
   10d38:	00 
   10d39:	48 c7 45 88 00 00 00 	movq   $0x0,-0x78(%rbp)
   10d40:	00 
   10d41:	48 8d 85 20 fc ff ff 	lea    -0x3e0(%rbp),%rax
   10d48:	48 89 45 90          	mov    %rax,-0x70(%rbp)
   10d4c:	48 8d 05 d1 72 00 00 	lea    0x72d1(%rip),%rax        # 18024 <g_3>
   10d53:	48 89 45 98          	mov    %rax,-0x68(%rbp)
   10d57:	48 c7 45 a0 00 00 00 	movq   $0x0,-0x60(%rbp)
   10d5e:	00 
   10d5f:	48 c7 45 a8 00 00 00 	movq   $0x0,-0x58(%rbp)
   10d66:	00 
   10d67:	48 c7 45 b0 00 00 00 	movq   $0x0,-0x50(%rbp)
   10d6e:	00 
   10d6f:	48 c7 45 b8 00 00 00 	movq   $0x0,-0x48(%rbp)
   10d76:	00 
   10d77:	48 8d 05 a6 72 00 00 	lea    0x72a6(%rip),%rax        # 18024 <g_3>
   10d7e:	48 89 45 c0          	mov    %rax,-0x40(%rbp)
   10d82:	48 8d 85 20 fc ff ff 	lea    -0x3e0(%rbp),%rax
   10d89:	48 89 45 c8          	mov    %rax,-0x38(%rbp)
   10d8d:	48 8d 05 b4 72 00 00 	lea    0x72b4(%rip),%rax        # 18048 <g_4+0x8>
   10d94:	48 89 45 d0          	mov    %rax,-0x30(%rbp)
   10d98:	48 8d 05 d9 72 00 00 	lea    0x72d9(%rip),%rax        # 18078 <g_88>
   10d9f:	48 89 45 d8          	mov    %rax,-0x28(%rbp)
   10da3:	48 8d 05 c7 72 00 00 	lea    0x72c7(%rip),%rax        # 18071 <g_54>
   10daa:	48 89 85 b0 fc ff ff 	mov    %rax,-0x350(%rbp)
   10db1:	48 8d 05 b9 72 00 00 	lea    0x72b9(%rip),%rax        # 18071 <g_54>
   10db8:	48 89 85 b8 fc ff ff 	mov    %rax,-0x348(%rbp)
   10dbf:	48 8d 05 ab 72 00 00 	lea    0x72ab(%rip),%rax        # 18071 <g_54>
   10dc6:	48 89 85 c0 fc ff ff 	mov    %rax,-0x340(%rbp)
   10dcd:	48 8d 05 9d 72 00 00 	lea    0x729d(%rip),%rax        # 18071 <g_54>
   10dd4:	48 89 85 c8 fc ff ff 	mov    %rax,-0x338(%rbp)
   10ddb:	48 8d 05 8f 72 00 00 	lea    0x728f(%rip),%rax        # 18071 <g_54>
   10de2:	48 89 85 d0 fc ff ff 	mov    %rax,-0x330(%rbp)
   10de9:	48 8d 05 81 72 00 00 	lea    0x7281(%rip),%rax        # 18071 <g_54>
   10df0:	48 89 85 d8 fc ff ff 	mov    %rax,-0x328(%rbp)
   10df7:	48 8d 05 73 72 00 00 	lea    0x7273(%rip),%rax        # 18071 <g_54>
   10dfe:	48 89 85 e0 fc ff ff 	mov    %rax,-0x320(%rbp)
   10e05:	48 8d 05 65 72 00 00 	lea    0x7265(%rip),%rax        # 18071 <g_54>
   10e0c:	48 89 85 e8 fc ff ff 	mov    %rax,-0x318(%rbp)
   10e13:	48 8d 05 57 72 00 00 	lea    0x7257(%rip),%rax        # 18071 <g_54>
   10e1a:	48 89 85 f0 fc ff ff 	mov    %rax,-0x310(%rbp)
   10e21:	48 8d 05 49 72 00 00 	lea    0x7249(%rip),%rax        # 18071 <g_54>
   10e28:	48 89 85 f8 fc ff ff 	mov    %rax,-0x308(%rbp)
   10e2f:	c7 85 1c fc ff ff 1f 	movl   $0x586bc1f,-0x3e4(%rbp)
   10e36:	bc 86 05 
   10e39:	c7 85 14 fc ff ff 00 	movl   $0x0,-0x3ec(%rbp)
   10e40:	00 00 00 
   10e43:	eb 1a                	jmp    10e5f <func_92+0x4c2>
   10e45:	8b 85 14 fc ff ff    	mov    -0x3ec(%rbp),%eax
   10e4b:	48 98                	cltq   
   10e4d:	c7 84 85 20 fc ff ff 	movl   $0x4,-0x3e0(%rbp,%rax,4)
   10e54:	04 00 00 00 
   10e58:	83 85 14 fc ff ff 01 	addl   $0x1,-0x3ec(%rbp)
   10e5f:	83 bd 14 fc ff ff 00 	cmpl   $0x0,-0x3ec(%rbp)
   10e66:	7e dd                	jle    10e45 <func_92+0x4a8>
   10e68:	c7 85 14 fc ff ff 00 	movl   $0x0,-0x3ec(%rbp)
   10e6f:	00 00 00 
   10e72:	eb 46                	jmp    10eba <func_92+0x51d>
   10e74:	c7 85 18 fc ff ff 00 	movl   $0x0,-0x3e8(%rbp)
   10e7b:	00 00 00 
   10e7e:	eb 2a                	jmp    10eaa <func_92+0x50d>
   10e80:	8b 85 18 fc ff ff    	mov    -0x3e8(%rbp),%eax
   10e86:	48 63 d0             	movslq %eax,%rdx
   10e89:	8b 85 14 fc ff ff    	mov    -0x3ec(%rbp),%eax
   10e8f:	48 98                	cltq   
   10e91:	48 01 d0             	add    %rdx,%rax
   10e94:	48 8d 15 01 72 00 00 	lea    0x7201(%rip),%rdx        # 1809c <g_100+0x1c>
   10e9b:	48 89 94 c5 70 fc ff 	mov    %rdx,-0x390(%rbp,%rax,8)
   10ea2:	ff 
   10ea3:	83 85 18 fc ff ff 01 	addl   $0x1,-0x3e8(%rbp)
   10eaa:	83 bd 18 fc ff ff 00 	cmpl   $0x0,-0x3e8(%rbp)
   10eb1:	7e cd                	jle    10e80 <func_92+0x4e3>
   10eb3:	83 85 14 fc ff ff 01 	addl   $0x1,-0x3ec(%rbp)
   10eba:	83 bd 14 fc ff ff 06 	cmpl   $0x6,-0x3ec(%rbp)
   10ec1:	7e b1                	jle    10e74 <func_92+0x4d7>
   10ec3:	c7 85 14 fc ff ff 00 	movl   $0x0,-0x3ec(%rbp)
   10eca:	00 00 00 
   10ecd:	eb 50                	jmp    10f1f <func_92+0x582>
   10ecf:	c7 85 18 fc ff ff 00 	movl   $0x0,-0x3e8(%rbp)
   10ed6:	00 00 00 
   10ed9:	eb 34                	jmp    10f0f <func_92+0x572>
   10edb:	8b 85 18 fc ff ff    	mov    -0x3e8(%rbp),%eax
   10ee1:	48 63 c8             	movslq %eax,%rcx
   10ee4:	8b 85 14 fc ff ff    	mov    -0x3ec(%rbp),%eax
   10eea:	48 63 d0             	movslq %eax,%rdx
   10eed:	48 89 d0             	mov    %rdx,%rax
   10ef0:	48 01 c0             	add    %rax,%rax
   10ef3:	48 01 d0             	add    %rdx,%rax
   10ef6:	48 01 c0             	add    %rax,%rax
   10ef9:	48 01 c8             	add    %rcx,%rax
   10efc:	48 c7 84 c5 00 fd ff 	movq   $0xffffffffffffffff,-0x300(%rbp,%rax,8)
   10f03:	ff ff ff ff ff 
   10f08:	83 85 18 fc ff ff 01 	addl   $0x1,-0x3e8(%rbp)
   10f0f:	83 bd 18 fc ff ff 05 	cmpl   $0x5,-0x3e8(%rbp)
   10f16:	7e c3                	jle    10edb <func_92+0x53e>
   10f18:	83 85 14 fc ff ff 01 	addl   $0x1,-0x3ec(%rbp)
   10f1f:	83 bd 14 fc ff ff 01 	cmpl   $0x1,-0x3ec(%rbp)
   10f26:	7e a7                	jle    10ecf <func_92+0x532>
   10f28:	c7 85 14 fc ff ff 00 	movl   $0x0,-0x3ec(%rbp)
   10f2f:	00 00 00 
   10f32:	eb 55                	jmp    10f89 <func_92+0x5ec>
   10f34:	c7 85 18 fc ff ff 00 	movl   $0x0,-0x3e8(%rbp)
   10f3b:	00 00 00 
   10f3e:	eb 39                	jmp    10f79 <func_92+0x5dc>
   10f40:	8b 85 18 fc ff ff    	mov    -0x3e8(%rbp),%eax
   10f46:	48 63 c8             	movslq %eax,%rcx
   10f49:	8b 85 14 fc ff ff    	mov    -0x3ec(%rbp),%eax
   10f4f:	48 63 d0             	movslq %eax,%rdx
   10f52:	48 89 d0             	mov    %rdx,%rax
   10f55:	48 c1 e0 02          	shl    $0x2,%rax
   10f59:	48 01 d0             	add    %rdx,%rax
   10f5c:	48 01 c0             	add    %rax,%rax
   10f5f:	48 8d 5d f0          	lea    -0x10(%rbp),%rbx
   10f63:	48 01 d8             	add    %rbx,%rax
   10f66:	48 01 c8             	add    %rcx,%rax
   10f69:	48 2d ca 03 00 00    	sub    $0x3ca,%rax
   10f6f:	c6 00 4f             	movb   $0x4f,(%rax)
   10f72:	83 85 18 fc ff ff 01 	addl   $0x1,-0x3e8(%rbp)
   10f79:	83 bd 18 fc ff ff 09 	cmpl   $0x9,-0x3e8(%rbp)
   10f80:	7e be                	jle    10f40 <func_92+0x5a3>
   10f82:	83 85 14 fc ff ff 01 	addl   $0x1,-0x3ec(%rbp)
   10f89:	83 bd 14 fc ff ff 00 	cmpl   $0x0,-0x3ec(%rbp)
   10f90:	7e a2                	jle    10f34 <func_92+0x597>
   10f92:	c7 85 14 fc ff ff 00 	movl   $0x0,-0x3ec(%rbp)
   10f99:	00 00 00 
   10f9c:	eb 1b                	jmp    10fb9 <func_92+0x61c>
   10f9e:	8b 85 14 fc ff ff    	mov    -0x3ec(%rbp),%eax
   10fa4:	48 98                	cltq   
   10fa6:	48 c7 84 c5 30 fc ff 	movq   $0x0,-0x3d0(%rbp,%rax,8)
   10fad:	ff 00 00 00 00 
   10fb2:	83 85 14 fc ff ff 01 	addl   $0x1,-0x3ec(%rbp)
   10fb9:	83 bd 14 fc ff ff 02 	cmpl   $0x2,-0x3ec(%rbp)
   10fc0:	7e dc                	jle    10f9e <func_92+0x601>
   10fc2:	c7 85 14 fc ff ff 00 	movl   $0x0,-0x3ec(%rbp)
   10fc9:	00 00 00 
   10fcc:	eb 1a                	jmp    10fe8 <func_92+0x64b>
   10fce:	8b 85 14 fc ff ff    	mov    -0x3ec(%rbp),%eax
   10fd4:	48 98                	cltq   
   10fd6:	c7 84 85 50 fc ff ff 	movl   $0x3,-0x3b0(%rbp,%rax,4)
   10fdd:	03 00 00 00 
   10fe1:	83 85 14 fc ff ff 01 	addl   $0x1,-0x3ec(%rbp)
   10fe8:	83 bd 14 fc ff ff 07 	cmpl   $0x7,-0x3ec(%rbp)
   10fef:	7e dd                	jle    10fce <func_92+0x631>
   10ff1:	8b 95 00 fc ff ff    	mov    -0x400(%rbp),%edx
   10ff7:	8b 85 20 fc ff ff    	mov    -0x3e0(%rbp),%eax
   10ffd:	21 d0                	and    %edx,%eax
   10fff:	89 85 00 fc ff ff    	mov    %eax,-0x400(%rbp)
   11005:	8b 85 00 fc ff ff    	mov    -0x400(%rbp),%eax
   1100b:	89 05 13 70 00 00    	mov    %eax,0x7013(%rip)        # 18024 <g_3>
   11011:	8b 85 00 fc ff ff    	mov    -0x400(%rbp),%eax
   11017:	0d e4 be ce a4       	or     $0xa4cebee4,%eax
   1101c:	89 85 00 fc ff ff    	mov    %eax,-0x400(%rbp)
   11022:	8b 85 00 fc ff ff    	mov    -0x400(%rbp),%eax
   11028:	89 05 f6 6f 00 00    	mov    %eax,0x6ff6(%rip)        # 18024 <g_3>
   1102e:	8b 9d ec fb ff ff    	mov    -0x414(%rbp),%ebx
   11034:	48 8b 85 f8 fb ff ff 	mov    -0x408(%rbp),%rax
   1103b:	0f b6 00             	movzbl (%rax),%eax
   1103e:	0f b6 d0             	movzbl %al,%edx
   11041:	48 8b 85 f8 fb ff ff 	mov    -0x408(%rbp),%rax
   11048:	0f b6 00             	movzbl (%rax),%eax
   1104b:	0f be c8             	movsbl %al,%ecx
   1104e:	0f b7 85 ec fb ff ff 	movzwl -0x414(%rbp),%eax
   11055:	0f b7 c0             	movzwl %ax,%eax
   11058:	39 c1                	cmp    %eax,%ecx
   1105a:	0f 9e c0             	setle  %al
   1105d:	0f b6 c0             	movzbl %al,%eax
   11060:	89 d6                	mov    %edx,%esi
   11062:	89 c7                	mov    %eax,%edi
   11064:	e8 2a 8b ff ff       	callq  9b93 <safe_mul_func_uint8_t_u_u>
   11069:	0f b6 d0             	movzbl %al,%edx
   1106c:	48 8b 05 05 70 00 00 	mov    0x7005(%rip),%rax        # 18078 <g_88>
   11073:	48 31 c2             	xor    %rax,%rdx
   11076:	0f b6 05 f3 6f 00 00 	movzbl 0x6ff3(%rip),%eax        # 18070 <g_49>
   1107d:	0f b6 c0             	movzbl %al,%eax
   11080:	48 39 c2             	cmp    %rax,%rdx
   11083:	0f 9d c0             	setge  %al
   11086:	0f b6 c0             	movzbl %al,%eax
   11089:	21 d8                	and    %ebx,%eax
   1108b:	be 00 00 00 00       	mov    $0x0,%esi
   11090:	89 c7                	mov    %eax,%edi
   11092:	e8 1f 85 ff ff       	callq  95b6 <safe_add_func_int32_t_s_s>
   11097:	48 8b 85 e8 fc ff ff 	mov    -0x318(%rbp),%rax
   1109e:	48 8d 15 cc 6f 00 00 	lea    0x6fcc(%rip),%rdx        # 18071 <g_54>
   110a5:	48 39 d0             	cmp    %rdx,%rax
   110a8:	0f 94 c2             	sete   %dl
   110ab:	48 8d 05 bf 6f 00 00 	lea    0x6fbf(%rip),%rax        # 18071 <g_54>
   110b2:	48 39 85 08 fc ff ff 	cmp    %rax,-0x3f8(%rbp)
   110b9:	0f 95 c0             	setne  %al
   110bc:	09 d0                	or     %edx,%eax
   110be:	0f b6 c0             	movzbl %al,%eax
   110c1:	66 89 05 d4 6f 00 00 	mov    %ax,0x6fd4(%rip)        # 1809c <g_100+0x1c>
   110c8:	0f b7 05 cd 6f 00 00 	movzwl 0x6fcd(%rip),%eax        # 1809c <g_100+0x1c>
   110cf:	83 e0 01             	and    $0x1,%eax
   110d2:	89 c2                	mov    %eax,%edx
   110d4:	48 8b 85 08 fc ff ff 	mov    -0x3f8(%rbp),%rax
   110db:	88 10                	mov    %dl,(%rax)
   110dd:	48 8b 85 08 fc ff ff 	mov    -0x3f8(%rbp),%rax
   110e4:	0f b6 00             	movzbl (%rax),%eax
   110e7:	84 c0                	test   %al,%al
   110e9:	0f 94 c0             	sete   %al
   110ec:	0f b6 c0             	movzbl %al,%eax
   110ef:	48 8b 95 50 fd ff ff 	mov    -0x2b0(%rbp),%rdx
   110f6:	48 98                	cltq   
   110f8:	48 09 d0             	or     %rdx,%rax
   110fb:	48 89 85 50 fd ff ff 	mov    %rax,-0x2b0(%rbp)
   11102:	c6 85 2d fc ff ff 00 	movb   $0x0,-0x3d3(%rbp)
   11109:	8b 85 64 fc ff ff    	mov    -0x39c(%rbp),%eax
   1110f:	83 c0 01             	add    $0x1,%eax
   11112:	89 85 64 fc ff ff    	mov    %eax,-0x39c(%rbp)
   11118:	48 8b 85 e8 fc ff ff 	mov    -0x318(%rbp),%rax
   1111f:	48 8b 75 e8          	mov    -0x18(%rbp),%rsi
   11123:	64 48 33 34 25 28 00 	xor    %fs:0x28,%rsi
   1112a:	00 00 
   1112c:	74 05                	je     11133 <func_92+0x796>
   1112e:	e8 3d 7f ff ff       	callq  9070 <__stack_chk_fail@plt>
   11133:	48 81 c4 18 04 00 00 	add    $0x418,%rsp
   1113a:	5b                   	pop    %rbx
   1113b:	5d                   	pop    %rbp
   1113c:	c3                   	retq   

000000000001113d <main>:
   1113d:	f3 0f 1e fa          	endbr64 
   11141:	55                   	push   %rbp
   11142:	48 89 e5             	mov    %rsp,%rbp
   11145:	48 83 ec 20          	sub    $0x20,%rsp
   11149:	89 7d ec             	mov    %edi,-0x14(%rbp)
   1114c:	48 89 75 e0          	mov    %rsi,-0x20(%rbp)
   11150:	c7 45 fc 00 00 00 00 	movl   $0x0,-0x4(%rbp)
   11157:	83 7d ec 02          	cmpl   $0x2,-0x14(%rbp)
   1115b:	75 25                	jne    11182 <main+0x45>
   1115d:	48 8b 45 e0          	mov    -0x20(%rbp),%rax
   11161:	48 83 c0 08          	add    $0x8,%rax
   11165:	48 8b 00             	mov    (%rax),%rax
   11168:	48 8d 35 99 3a 00 00 	lea    0x3a99(%rip),%rsi        # 14c08 <g_2811+0x1b9c>
   1116f:	48 89 c7             	mov    %rax,%rdi
   11172:	e8 19 7f ff ff       	callq  9090 <strcmp@plt>
   11177:	85 c0                	test   %eax,%eax
   11179:	75 07                	jne    11182 <main+0x45>
   1117b:	c7 45 fc 01 00 00 00 	movl   $0x1,-0x4(%rbp)
   11182:	e8 02 80 ff ff       	callq  9189 <platform_main_begin>
   11187:	e8 0c 94 ff ff       	callq  a598 <crc32_gentab>
   1118c:	e8 24 96 ff ff       	callq  a7b5 <func_1>
   11191:	c7 45 f0 00 00 00 00 	movl   $0x0,-0x10(%rbp)
   11198:	eb 4b                	jmp    111e5 <main+0xa8>
   1119a:	8b 45 f0             	mov    -0x10(%rbp),%eax
   1119d:	48 98                	cltq   
   1119f:	48 8d 14 85 00 00 00 	lea    0x0(,%rax,4),%rdx
   111a6:	00 
   111a7:	48 8d 05 76 6e 00 00 	lea    0x6e76(%rip),%rax        # 18024 <g_3>
   111ae:	8b 04 02             	mov    (%rdx,%rax,1),%eax
   111b1:	48 98                	cltq   
   111b3:	8b 55 fc             	mov    -0x4(%rbp),%edx
   111b6:	48 8d 35 4d 3a 00 00 	lea    0x3a4d(%rip),%rsi        # 14c0a <g_2811+0x1b9e>
   111bd:	48 89 c7             	mov    %rax,%rdi
   111c0:	e8 2e 95 ff ff       	callq  a6f3 <transparent_crc>
   111c5:	83 7d fc 00          	cmpl   $0x0,-0x4(%rbp)
   111c9:	74 16                	je     111e1 <main+0xa4>
   111cb:	8b 45 f0             	mov    -0x10(%rbp),%eax
   111ce:	89 c6                	mov    %eax,%esi
   111d0:	48 8d 3d 3a 3a 00 00 	lea    0x3a3a(%rip),%rdi        # 14c11 <g_2811+0x1ba5>
   111d7:	b8 00 00 00 00       	mov    $0x0,%eax
   111dc:	e8 9f 7e ff ff       	callq  9080 <printf@plt>
   111e1:	83 45 f0 01          	addl   $0x1,-0x10(%rbp)
   111e5:	83 7d f0 00          	cmpl   $0x0,-0x10(%rbp)
   111e9:	7e af                	jle    1119a <main+0x5d>
   111eb:	c7 45 f0 00 00 00 00 	movl   $0x0,-0x10(%rbp)
   111f2:	eb 4b                	jmp    1123f <main+0x102>
   111f4:	8b 45 f0             	mov    -0x10(%rbp),%eax
   111f7:	48 98                	cltq   
   111f9:	48 8d 14 85 00 00 00 	lea    0x0(,%rax,4),%rdx
   11200:	00 
   11201:	48 8d 05 38 6e 00 00 	lea    0x6e38(%rip),%rax        # 18040 <g_4>
   11208:	8b 04 02             	mov    (%rdx,%rax,1),%eax
   1120b:	48 98                	cltq   
   1120d:	8b 55 fc             	mov    -0x4(%rbp),%edx
   11210:	48 8d 35 08 3a 00 00 	lea    0x3a08(%rip),%rsi        # 14c1f <g_2811+0x1bb3>
   11217:	48 89 c7             	mov    %rax,%rdi
   1121a:	e8 d4 94 ff ff       	callq  a6f3 <transparent_crc>
   1121f:	83 7d fc 00          	cmpl   $0x0,-0x4(%rbp)
   11223:	74 16                	je     1123b <main+0xfe>
   11225:	8b 45 f0             	mov    -0x10(%rbp),%eax
   11228:	89 c6                	mov    %eax,%esi
   1122a:	48 8d 3d e0 39 00 00 	lea    0x39e0(%rip),%rdi        # 14c11 <g_2811+0x1ba5>
   11231:	b8 00 00 00 00       	mov    $0x0,%eax
   11236:	e8 45 7e ff ff       	callq  9080 <printf@plt>
   1123b:	83 45 f0 01          	addl   $0x1,-0x10(%rbp)
   1123f:	83 7d f0 09          	cmpl   $0x9,-0x10(%rbp)
   11243:	7e af                	jle    111f4 <main+0xb7>
   11245:	48 8b 05 1c 6e 00 00 	mov    0x6e1c(%rip),%rax        # 18068 <g_42>
   1124c:	8b 55 fc             	mov    -0x4(%rbp),%edx
   1124f:	48 8d 35 d0 39 00 00 	lea    0x39d0(%rip),%rsi        # 14c26 <g_2811+0x1bba>
   11256:	48 89 c7             	mov    %rax,%rdi
   11259:	e8 95 94 ff ff       	callq  a6f3 <transparent_crc>
   1125e:	0f b6 05 0b 6e 00 00 	movzbl 0x6e0b(%rip),%eax        # 18070 <g_49>
   11265:	0f b6 c0             	movzbl %al,%eax
   11268:	8b 55 fc             	mov    -0x4(%rbp),%edx
   1126b:	48 8d 35 b9 39 00 00 	lea    0x39b9(%rip),%rsi        # 14c2b <g_2811+0x1bbf>
   11272:	48 89 c7             	mov    %rax,%rdi
   11275:	e8 79 94 ff ff       	callq  a6f3 <transparent_crc>
   1127a:	0f b6 05 f0 6d 00 00 	movzbl 0x6df0(%rip),%eax        # 18071 <g_54>
   11281:	48 0f be c0          	movsbq %al,%rax
   11285:	8b 55 fc             	mov    -0x4(%rbp),%edx
   11288:	48 8d 35 a1 39 00 00 	lea    0x39a1(%rip),%rsi        # 14c30 <g_2811+0x1bc4>
   1128f:	48 89 c7             	mov    %rax,%rdi
   11292:	e8 5c 94 ff ff       	callq  a6f3 <transparent_crc>
   11297:	48 8b 05 da 6d 00 00 	mov    0x6dda(%rip),%rax        # 18078 <g_88>
   1129e:	48 89 c1             	mov    %rax,%rcx
   112a1:	8b 45 fc             	mov    -0x4(%rbp),%eax
   112a4:	89 c2                	mov    %eax,%edx
   112a6:	48 8d 35 88 39 00 00 	lea    0x3988(%rip),%rsi        # 14c35 <g_2811+0x1bc9>
   112ad:	48 89 cf             	mov    %rcx,%rdi
   112b0:	e8 3e 94 ff ff       	callq  a6f3 <transparent_crc>
   112b5:	8b 05 bd 6d 00 00    	mov    0x6dbd(%rip),%eax        # 18078 <g_88>
   112bb:	48 98                	cltq   
   112bd:	8b 55 fc             	mov    -0x4(%rbp),%edx
   112c0:	48 8d 35 76 39 00 00 	lea    0x3976(%rip),%rsi        # 14c3d <g_2811+0x1bd1>
   112c7:	48 89 c7             	mov    %rax,%rdi
   112ca:	e8 24 94 ff ff       	callq  a6f3 <transparent_crc>
   112cf:	8b 05 a3 6d 00 00    	mov    0x6da3(%rip),%eax        # 18078 <g_88>
   112d5:	89 c1                	mov    %eax,%ecx
   112d7:	8b 45 fc             	mov    -0x4(%rbp),%eax
   112da:	89 c2                	mov    %eax,%edx
   112dc:	48 8d 35 62 39 00 00 	lea    0x3962(%rip),%rsi        # 14c45 <g_2811+0x1bd9>
   112e3:	48 89 cf             	mov    %rcx,%rdi
   112e6:	e8 08 94 ff ff       	callq  a6f3 <transparent_crc>
   112eb:	48 8b 05 86 6d 00 00 	mov    0x6d86(%rip),%rax        # 18078 <g_88>
   112f2:	8b 55 fc             	mov    -0x4(%rbp),%edx
   112f5:	48 8d 35 51 39 00 00 	lea    0x3951(%rip),%rsi        # 14c4d <g_2811+0x1be1>
   112fc:	48 89 c7             	mov    %rax,%rdi
   112ff:	e8 ef 93 ff ff       	callq  a6f3 <transparent_crc>
   11304:	8b 05 6e 6d 00 00    	mov    0x6d6e(%rip),%eax        # 18078 <g_88>
   1130a:	25 ff ff 1f 00       	and    $0x1fffff,%eax
   1130f:	89 c1                	mov    %eax,%ecx
   11311:	8b 45 fc             	mov    -0x4(%rbp),%eax
   11314:	89 c2                	mov    %eax,%edx
   11316:	48 8d 35 38 39 00 00 	lea    0x3938(%rip),%rsi        # 14c55 <g_2811+0x1be9>
   1131d:	48 89 cf             	mov    %rcx,%rdi
   11320:	e8 ce 93 ff ff       	callq  a6f3 <transparent_crc>
   11325:	c7 45 f0 00 00 00 00 	movl   $0x0,-0x10(%rbp)
   1132c:	e9 f4 00 00 00       	jmpq   11425 <main+0x2e8>
   11331:	c7 45 f4 00 00 00 00 	movl   $0x0,-0xc(%rbp)
   11338:	e9 da 00 00 00       	jmpq   11417 <main+0x2da>
   1133d:	c7 45 f8 00 00 00 00 	movl   $0x0,-0x8(%rbp)
   11344:	e9 c0 00 00 00       	jmpq   11409 <main+0x2cc>
   11349:	8b 45 f8             	mov    -0x8(%rbp),%eax
   1134c:	48 63 c8             	movslq %eax,%rcx
   1134f:	8b 45 f0             	mov    -0x10(%rbp),%eax
   11352:	48 63 d0             	movslq %eax,%rdx
   11355:	8b 45 f4             	mov    -0xc(%rbp),%eax
   11358:	48 63 f0             	movslq %eax,%rsi
   1135b:	48 89 d0             	mov    %rdx,%rax
   1135e:	48 c1 e0 03          	shl    $0x3,%rax
   11362:	48 29 d0             	sub    %rdx,%rax
   11365:	48 01 f0             	add    %rsi,%rax
   11368:	48 01 c0             	add    %rax,%rax
   1136b:	48 01 c8             	add    %rcx,%rax
   1136e:	48 8d 14 85 00 00 00 	lea    0x0(,%rax,4),%rdx
   11375:	00 
   11376:	48 8d 05 03 6d 00 00 	lea    0x6d03(%rip),%rax        # 18080 <g_100>
   1137d:	8b 04 02             	mov    (%rdx,%rax,1),%eax
   11380:	89 c1                	mov    %eax,%ecx
   11382:	8b 45 fc             	mov    -0x4(%rbp),%eax
   11385:	89 c2                	mov    %eax,%edx
   11387:	48 8d 35 cf 38 00 00 	lea    0x38cf(%rip),%rsi        # 14c5d <g_2811+0x1bf1>
   1138e:	48 89 cf             	mov    %rcx,%rdi
   11391:	e8 5d 93 ff ff       	callq  a6f3 <transparent_crc>
   11396:	8b 45 f8             	mov    -0x8(%rbp),%eax
   11399:	48 63 c8             	movslq %eax,%rcx
   1139c:	8b 45 f0             	mov    -0x10(%rbp),%eax
   1139f:	48 63 d0             	movslq %eax,%rdx
   113a2:	8b 45 f4             	mov    -0xc(%rbp),%eax
   113a5:	48 63 f0             	movslq %eax,%rsi
   113a8:	48 89 d0             	mov    %rdx,%rax
   113ab:	48 c1 e0 03          	shl    $0x3,%rax
   113af:	48 29 d0             	sub    %rdx,%rax
   113b2:	48 01 f0             	add    %rsi,%rax
   113b5:	48 01 c0             	add    %rax,%rax
   113b8:	48 01 c8             	add    %rcx,%rax
   113bb:	48 8d 14 85 00 00 00 	lea    0x0(,%rax,4),%rdx
   113c2:	00 
   113c3:	48 8d 05 b6 6c 00 00 	lea    0x6cb6(%rip),%rax        # 18080 <g_100>
   113ca:	0f b7 04 02          	movzwl (%rdx,%rax,1),%eax
   113ce:	0f b7 c0             	movzwl %ax,%eax
   113d1:	8b 55 fc             	mov    -0x4(%rbp),%edx
   113d4:	48 8d 35 94 38 00 00 	lea    0x3894(%rip),%rsi        # 14c6f <g_2811+0x1c03>
   113db:	48 89 c7             	mov    %rax,%rdi
   113de:	e8 10 93 ff ff       	callq  a6f3 <transparent_crc>
   113e3:	83 7d fc 00          	cmpl   $0x0,-0x4(%rbp)
   113e7:	74 1c                	je     11405 <main+0x2c8>
   113e9:	8b 4d f8             	mov    -0x8(%rbp),%ecx
   113ec:	8b 55 f4             	mov    -0xc(%rbp),%edx
   113ef:	8b 45 f0             	mov    -0x10(%rbp),%eax
   113f2:	89 c6                	mov    %eax,%esi
   113f4:	48 8d 3d 86 38 00 00 	lea    0x3886(%rip),%rdi        # 14c81 <g_2811+0x1c15>
   113fb:	b8 00 00 00 00       	mov    $0x0,%eax
   11400:	e8 7b 7c ff ff       	callq  9080 <printf@plt>
   11405:	83 45 f8 01          	addl   $0x1,-0x8(%rbp)
   11409:	83 7d f8 01          	cmpl   $0x1,-0x8(%rbp)
   1140d:	0f 8e 36 ff ff ff    	jle    11349 <main+0x20c>
   11413:	83 45 f4 01          	addl   $0x1,-0xc(%rbp)
   11417:	83 7d f4 06          	cmpl   $0x6,-0xc(%rbp)
   1141b:	0f 8e 1c ff ff ff    	jle    1133d <main+0x200>
   11421:	83 45 f0 01          	addl   $0x1,-0x10(%rbp)
   11425:	83 7d f0 00          	cmpl   $0x0,-0x10(%rbp)
   11429:	0f 8e 02 ff ff ff    	jle    11331 <main+0x1f4>
   1142f:	8b 05 83 6c 00 00    	mov    0x6c83(%rip),%eax        # 180b8 <g_113>
   11435:	48 98                	cltq   
   11437:	8b 55 fc             	mov    -0x4(%rbp),%edx
   1143a:	48 8d 35 56 38 00 00 	lea    0x3856(%rip),%rsi        # 14c97 <g_2811+0x1c2b>
   11441:	48 89 c7             	mov    %rax,%rdi
   11444:	e8 aa 92 ff ff       	callq  a6f3 <transparent_crc>
   11449:	48 8b 05 70 6c 00 00 	mov    0x6c70(%rip),%rax        # 180c0 <g_115>
   11450:	48 89 c1             	mov    %rax,%rcx
   11453:	8b 45 fc             	mov    -0x4(%rbp),%eax
   11456:	89 c2                	mov    %eax,%edx
   11458:	48 8d 35 3e 38 00 00 	lea    0x383e(%rip),%rsi        # 14c9d <g_2811+0x1c31>
   1145f:	48 89 cf             	mov    %rcx,%rdi
   11462:	e8 8c 92 ff ff       	callq  a6f3 <transparent_crc>
   11467:	8b 05 db a4 00 00    	mov    0xa4db(%rip),%eax        # 1b948 <g_170>
   1146d:	89 c1                	mov    %eax,%ecx
   1146f:	8b 45 fc             	mov    -0x4(%rbp),%eax
   11472:	89 c2                	mov    %eax,%edx
   11474:	48 8d 35 28 38 00 00 	lea    0x3828(%rip),%rsi        # 14ca3 <g_2811+0x1c37>
   1147b:	48 89 cf             	mov    %rcx,%rdi
   1147e:	e8 70 92 ff ff       	callq  a6f3 <transparent_crc>
   11483:	8b 05 3f 6c 00 00    	mov    0x6c3f(%rip),%eax        # 180c8 <g_186>
   11489:	48 98                	cltq   
   1148b:	8b 55 fc             	mov    -0x4(%rbp),%edx
   1148e:	48 8d 35 14 38 00 00 	lea    0x3814(%rip),%rsi        # 14ca9 <g_2811+0x1c3d>
   11495:	48 89 c7             	mov    %rax,%rdi
   11498:	e8 56 92 ff ff       	callq  a6f3 <transparent_crc>
   1149d:	8b 05 29 6c 00 00    	mov    0x6c29(%rip),%eax        # 180cc <g_189>
   114a3:	48 98                	cltq   
   114a5:	8b 55 fc             	mov    -0x4(%rbp),%edx
   114a8:	48 8d 35 00 38 00 00 	lea    0x3800(%rip),%rsi        # 14caf <g_2811+0x1c43>
   114af:	48 89 c7             	mov    %rax,%rdi
   114b2:	e8 3c 92 ff ff       	callq  a6f3 <transparent_crc>
   114b7:	0f b6 05 12 6c 00 00 	movzbl 0x6c12(%rip),%eax        # 180d0 <g_193>
   114be:	48 0f be c0          	movsbq %al,%rax
   114c2:	8b 55 fc             	mov    -0x4(%rbp),%edx
   114c5:	48 8d 35 e9 37 00 00 	lea    0x37e9(%rip),%rsi        # 14cb5 <g_2811+0x1c49>
   114cc:	48 89 c7             	mov    %rax,%rdi
   114cf:	e8 1f 92 ff ff       	callq  a6f3 <transparent_crc>
   114d4:	8b 05 fa 6b 00 00    	mov    0x6bfa(%rip),%eax        # 180d4 <g_197>
   114da:	48 98                	cltq   
   114dc:	8b 55 fc             	mov    -0x4(%rbp),%edx
   114df:	48 8d 35 d5 37 00 00 	lea    0x37d5(%rip),%rsi        # 14cbb <g_2811+0x1c4f>
   114e6:	48 89 c7             	mov    %rax,%rdi
   114e9:	e8 05 92 ff ff       	callq  a6f3 <transparent_crc>
   114ee:	0f b7 05 e3 6b 00 00 	movzwl 0x6be3(%rip),%eax        # 180d8 <g_207>
   114f5:	0f b7 c0             	movzwl %ax,%eax
   114f8:	8b 55 fc             	mov    -0x4(%rbp),%edx
   114fb:	48 8d 35 bf 37 00 00 	lea    0x37bf(%rip),%rsi        # 14cc1 <g_2811+0x1c55>
   11502:	48 89 c7             	mov    %rax,%rdi
   11505:	e8 e9 91 ff ff       	callq  a6f3 <transparent_crc>
   1150a:	0f b6 05 c9 6b 00 00 	movzbl 0x6bc9(%rip),%eax        # 180da <g_246>
   11511:	0f b6 c0             	movzbl %al,%eax
   11514:	8b 55 fc             	mov    -0x4(%rbp),%edx
   11517:	48 8d 35 a9 37 00 00 	lea    0x37a9(%rip),%rsi        # 14cc7 <g_2811+0x1c5b>
   1151e:	48 89 c7             	mov    %rax,%rdi
   11521:	e8 cd 91 ff ff       	callq  a6f3 <transparent_crc>
   11526:	48 8b 05 b3 6b 00 00 	mov    0x6bb3(%rip),%rax        # 180e0 <g_255>
   1152d:	48 89 c1             	mov    %rax,%rcx
   11530:	8b 45 fc             	mov    -0x4(%rbp),%eax
   11533:	89 c2                	mov    %eax,%edx
   11535:	48 8d 35 91 37 00 00 	lea    0x3791(%rip),%rsi        # 14ccd <g_2811+0x1c61>
   1153c:	48 89 cf             	mov    %rcx,%rdi
   1153f:	e8 af 91 ff ff       	callq  a6f3 <transparent_crc>
   11544:	8b 05 96 6b 00 00    	mov    0x6b96(%rip),%eax        # 180e0 <g_255>
   1154a:	48 98                	cltq   
   1154c:	8b 55 fc             	mov    -0x4(%rbp),%edx
   1154f:	48 8d 35 80 37 00 00 	lea    0x3780(%rip),%rsi        # 14cd6 <g_2811+0x1c6a>
   11556:	48 89 c7             	mov    %rax,%rdi
   11559:	e8 95 91 ff ff       	callq  a6f3 <transparent_crc>
   1155e:	8b 05 7c 6b 00 00    	mov    0x6b7c(%rip),%eax        # 180e0 <g_255>
   11564:	89 c1                	mov    %eax,%ecx
   11566:	8b 45 fc             	mov    -0x4(%rbp),%eax
   11569:	89 c2                	mov    %eax,%edx
   1156b:	48 8d 35 6d 37 00 00 	lea    0x376d(%rip),%rsi        # 14cdf <g_2811+0x1c73>
   11572:	48 89 cf             	mov    %rcx,%rdi
   11575:	e8 79 91 ff ff       	callq  a6f3 <transparent_crc>
   1157a:	48 8b 05 5f 6b 00 00 	mov    0x6b5f(%rip),%rax        # 180e0 <g_255>
   11581:	8b 55 fc             	mov    -0x4(%rbp),%edx
   11584:	48 8d 35 5d 37 00 00 	lea    0x375d(%rip),%rsi        # 14ce8 <g_2811+0x1c7c>
   1158b:	48 89 c7             	mov    %rax,%rdi
   1158e:	e8 60 91 ff ff       	callq  a6f3 <transparent_crc>
   11593:	8b 05 47 6b 00 00    	mov    0x6b47(%rip),%eax        # 180e0 <g_255>
   11599:	25 ff ff 1f 00       	and    $0x1fffff,%eax
   1159e:	89 c1                	mov    %eax,%ecx
   115a0:	8b 45 fc             	mov    -0x4(%rbp),%eax
   115a3:	89 c2                	mov    %eax,%edx
   115a5:	48 8d 35 45 37 00 00 	lea    0x3745(%rip),%rsi        # 14cf1 <g_2811+0x1c85>
   115ac:	48 89 cf             	mov    %rcx,%rdi
   115af:	e8 3f 91 ff ff       	callq  a6f3 <transparent_crc>
   115b4:	0f b7 05 91 a3 00 00 	movzwl 0xa391(%rip),%eax        # 1b94c <g_258>
   115bb:	48 0f bf c0          	movswq %ax,%rax
   115bf:	8b 55 fc             	mov    -0x4(%rbp),%edx
   115c2:	48 8d 35 31 37 00 00 	lea    0x3731(%rip),%rsi        # 14cfa <g_2811+0x1c8e>
   115c9:	48 89 c7             	mov    %rax,%rdi
   115cc:	e8 22 91 ff ff       	callq  a6f3 <transparent_crc>
   115d1:	0f b7 05 10 6b 00 00 	movzwl 0x6b10(%rip),%eax        # 180e8 <g_315>
   115d8:	48 0f bf c0          	movswq %ax,%rax
   115dc:	8b 55 fc             	mov    -0x4(%rbp),%edx
   115df:	48 8d 35 1a 37 00 00 	lea    0x371a(%rip),%rsi        # 14d00 <g_2811+0x1c94>
   115e6:	48 89 c7             	mov    %rax,%rdi
   115e9:	e8 05 91 ff ff       	callq  a6f3 <transparent_crc>
   115ee:	c7 45 f0 00 00 00 00 	movl   $0x0,-0x10(%rbp)
   115f5:	eb 46                	jmp    1163d <main+0x500>
   115f7:	8b 45 f0             	mov    -0x10(%rbp),%eax
   115fa:	48 98                	cltq   
   115fc:	48 8d 15 e7 6a 00 00 	lea    0x6ae7(%rip),%rdx        # 180ea <g_546>
   11603:	0f b6 04 10          	movzbl (%rax,%rdx,1),%eax
   11607:	48 0f be c0          	movsbq %al,%rax
   1160b:	8b 55 fc             	mov    -0x4(%rbp),%edx
   1160e:	48 8d 35 f1 36 00 00 	lea    0x36f1(%rip),%rsi        # 14d06 <g_2811+0x1c9a>
   11615:	48 89 c7             	mov    %rax,%rdi
   11618:	e8 d6 90 ff ff       	callq  a6f3 <transparent_crc>
   1161d:	83 7d fc 00          	cmpl   $0x0,-0x4(%rbp)
   11621:	74 16                	je     11639 <main+0x4fc>
   11623:	8b 45 f0             	mov    -0x10(%rbp),%eax
   11626:	89 c6                	mov    %eax,%esi
   11628:	48 8d 3d e2 35 00 00 	lea    0x35e2(%rip),%rdi        # 14c11 <g_2811+0x1ba5>
   1162f:	b8 00 00 00 00       	mov    $0x0,%eax
   11634:	e8 47 7a ff ff       	callq  9080 <printf@plt>
   11639:	83 45 f0 01          	addl   $0x1,-0x10(%rbp)
   1163d:	83 7d f0 04          	cmpl   $0x4,-0x10(%rbp)
   11641:	7e b4                	jle    115f7 <main+0x4ba>
   11643:	8b 05 a7 6a 00 00    	mov    0x6aa7(%rip),%eax        # 180f0 <g_566>
   11649:	89 c1                	mov    %eax,%ecx
   1164b:	8b 45 fc             	mov    -0x4(%rbp),%eax
   1164e:	89 c2                	mov    %eax,%edx
   11650:	48 8d 35 b8 36 00 00 	lea    0x36b8(%rip),%rsi        # 14d0f <g_2811+0x1ca3>
   11657:	48 89 cf             	mov    %rcx,%rdi
   1165a:	e8 94 90 ff ff       	callq  a6f3 <transparent_crc>
   1165f:	8b 05 8f 6a 00 00    	mov    0x6a8f(%rip),%eax        # 180f4 <g_590>
   11665:	48 98                	cltq   
   11667:	8b 55 fc             	mov    -0x4(%rbp),%edx
   1166a:	48 8d 35 a4 36 00 00 	lea    0x36a4(%rip),%rsi        # 14d15 <g_2811+0x1ca9>
   11671:	48 89 c7             	mov    %rax,%rdi
   11674:	e8 7a 90 ff ff       	callq  a6f3 <transparent_crc>
   11679:	c7 45 f0 00 00 00 00 	movl   $0x0,-0x10(%rbp)
   11680:	e9 af 00 00 00       	jmpq   11734 <main+0x5f7>
   11685:	c7 45 f4 00 00 00 00 	movl   $0x0,-0xc(%rbp)
   1168c:	e9 95 00 00 00       	jmpq   11726 <main+0x5e9>
   11691:	c7 45 f8 00 00 00 00 	movl   $0x0,-0x8(%rbp)
   11698:	eb 7e                	jmp    11718 <main+0x5db>
   1169a:	8b 45 f8             	mov    -0x8(%rbp),%eax
   1169d:	48 63 f0             	movslq %eax,%rsi
   116a0:	8b 45 f0             	mov    -0x10(%rbp),%eax
   116a3:	48 63 d0             	movslq %eax,%rdx
   116a6:	8b 45 f4             	mov    -0xc(%rbp),%eax
   116a9:	48 63 c8             	movslq %eax,%rcx
   116ac:	48 89 d0             	mov    %rdx,%rax
   116af:	48 01 c0             	add    %rax,%rax
   116b2:	48 01 d0             	add    %rdx,%rax
   116b5:	48 89 c2             	mov    %rax,%rdx
   116b8:	48 c1 e2 04          	shl    $0x4,%rdx
   116bc:	48 29 c2             	sub    %rax,%rdx
   116bf:	48 89 c8             	mov    %rcx,%rax
   116c2:	48 c1 e0 03          	shl    $0x3,%rax
   116c6:	48 01 c8             	add    %rcx,%rax
   116c9:	48 01 d0             	add    %rdx,%rax
   116cc:	48 8d 14 30          	lea    (%rax,%rsi,1),%rdx
   116d0:	48 8d 05 29 6a 00 00 	lea    0x6a29(%rip),%rax        # 18100 <g_658>
   116d7:	48 01 d0             	add    %rdx,%rax
   116da:	0f b6 00             	movzbl (%rax),%eax
   116dd:	0f b6 c0             	movzbl %al,%eax
   116e0:	8b 55 fc             	mov    -0x4(%rbp),%edx
   116e3:	48 8d 35 31 36 00 00 	lea    0x3631(%rip),%rsi        # 14d1b <g_2811+0x1caf>
   116ea:	48 89 c7             	mov    %rax,%rdi
   116ed:	e8 01 90 ff ff       	callq  a6f3 <transparent_crc>
   116f2:	83 7d fc 00          	cmpl   $0x0,-0x4(%rbp)
   116f6:	74 1c                	je     11714 <main+0x5d7>
   116f8:	8b 4d f8             	mov    -0x8(%rbp),%ecx
   116fb:	8b 55 f4             	mov    -0xc(%rbp),%edx
   116fe:	8b 45 f0             	mov    -0x10(%rbp),%eax
   11701:	89 c6                	mov    %eax,%esi
   11703:	48 8d 3d 77 35 00 00 	lea    0x3577(%rip),%rdi        # 14c81 <g_2811+0x1c15>
   1170a:	b8 00 00 00 00       	mov    $0x0,%eax
   1170f:	e8 6c 79 ff ff       	callq  9080 <printf@plt>
   11714:	83 45 f8 01          	addl   $0x1,-0x8(%rbp)
   11718:	83 7d f8 08          	cmpl   $0x8,-0x8(%rbp)
   1171c:	0f 8e 78 ff ff ff    	jle    1169a <main+0x55d>
   11722:	83 45 f4 01          	addl   $0x1,-0xc(%rbp)
   11726:	83 7d f4 04          	cmpl   $0x4,-0xc(%rbp)
   1172a:	0f 8e 61 ff ff ff    	jle    11691 <main+0x554>
   11730:	83 45 f0 01          	addl   $0x1,-0x10(%rbp)
   11734:	83 7d f0 02          	cmpl   $0x2,-0x10(%rbp)
   11738:	0f 8e 47 ff ff ff    	jle    11685 <main+0x548>
   1173e:	b8 d3 d7 f1 a9       	mov    $0xa9f1d7d3,%eax
   11743:	89 c1                	mov    %eax,%ecx
   11745:	8b 45 fc             	mov    -0x4(%rbp),%eax
   11748:	89 c2                	mov    %eax,%edx
   1174a:	48 8d 35 d9 35 00 00 	lea    0x35d9(%rip),%rsi        # 14d2a <g_2811+0x1cbe>
   11751:	48 89 cf             	mov    %rcx,%rdi
   11754:	e8 9a 8f ff ff       	callq  a6f3 <transparent_crc>
   11759:	b8 d3 d7 ff ff       	mov    $0xffffd7d3,%eax
   1175e:	0f b7 c0             	movzwl %ax,%eax
   11761:	8b 55 fc             	mov    -0x4(%rbp),%edx
   11764:	48 8d 35 c8 35 00 00 	lea    0x35c8(%rip),%rsi        # 14d33 <g_2811+0x1cc7>
   1176b:	48 89 c7             	mov    %rax,%rdi
   1176e:	e8 80 8f ff ff       	callq  a6f3 <transparent_crc>
   11773:	b8 03 00 00 00       	mov    $0x3,%eax
   11778:	48 98                	cltq   
   1177a:	8b 55 fc             	mov    -0x4(%rbp),%edx
   1177d:	48 8d 35 b8 35 00 00 	lea    0x35b8(%rip),%rsi        # 14d3c <g_2811+0x1cd0>
   11784:	48 89 c7             	mov    %rax,%rdi
   11787:	e8 67 8f ff ff       	callq  a6f3 <transparent_crc>
   1178c:	0f b7 05 f5 69 00 00 	movzwl 0x69f5(%rip),%eax        # 18188 <g_849>
   11793:	48 0f bf c0          	movswq %ax,%rax
   11797:	8b 55 fc             	mov    -0x4(%rbp),%edx
   1179a:	48 8d 35 a1 35 00 00 	lea    0x35a1(%rip),%rsi        # 14d42 <g_2811+0x1cd6>
   117a1:	48 89 c7             	mov    %rax,%rdi
   117a4:	e8 4a 8f ff ff       	callq  a6f3 <transparent_crc>
   117a9:	8b 05 dd 69 00 00    	mov    0x69dd(%rip),%eax        # 1818c <g_891>
   117af:	89 c1                	mov    %eax,%ecx
   117b1:	8b 45 fc             	mov    -0x4(%rbp),%eax
   117b4:	89 c2                	mov    %eax,%edx
   117b6:	48 8d 35 8b 35 00 00 	lea    0x358b(%rip),%rsi        # 14d48 <g_2811+0x1cdc>
   117bd:	48 89 cf             	mov    %rcx,%rdi
   117c0:	e8 2e 8f ff ff       	callq  a6f3 <transparent_crc>
   117c5:	c7 45 f0 00 00 00 00 	movl   $0x0,-0x10(%rbp)
   117cc:	eb 4b                	jmp    11819 <main+0x6dc>
   117ce:	8b 45 f0             	mov    -0x10(%rbp),%eax
   117d1:	48 98                	cltq   
   117d3:	48 8d 14 85 00 00 00 	lea    0x0(,%rax,4),%rdx
   117da:	00 
   117db:	48 8d 05 be 69 00 00 	lea    0x69be(%rip),%rax        # 181a0 <g_926>
   117e2:	8b 04 02             	mov    (%rdx,%rax,1),%eax
   117e5:	48 98                	cltq   
   117e7:	8b 55 fc             	mov    -0x4(%rbp),%edx
   117ea:	48 8d 35 5d 35 00 00 	lea    0x355d(%rip),%rsi        # 14d4e <g_2811+0x1ce2>
   117f1:	48 89 c7             	mov    %rax,%rdi
   117f4:	e8 fa 8e ff ff       	callq  a6f3 <transparent_crc>
   117f9:	83 7d fc 00          	cmpl   $0x0,-0x4(%rbp)
   117fd:	74 16                	je     11815 <main+0x6d8>
   117ff:	8b 45 f0             	mov    -0x10(%rbp),%eax
   11802:	89 c6                	mov    %eax,%esi
   11804:	48 8d 3d 06 34 00 00 	lea    0x3406(%rip),%rdi        # 14c11 <g_2811+0x1ba5>
   1180b:	b8 00 00 00 00       	mov    $0x0,%eax
   11810:	e8 6b 78 ff ff       	callq  9080 <printf@plt>
   11815:	83 45 f0 01          	addl   $0x1,-0x10(%rbp)
   11819:	83 7d f0 09          	cmpl   $0x9,-0x10(%rbp)
   1181d:	7e af                	jle    117ce <main+0x691>
   1181f:	48 8b 05 a2 69 00 00 	mov    0x69a2(%rip),%rax        # 181c8 <g_927>
   11826:	48 89 c1             	mov    %rax,%rcx
   11829:	8b 45 fc             	mov    -0x4(%rbp),%eax
   1182c:	89 c2                	mov    %eax,%edx
   1182e:	48 8d 35 22 35 00 00 	lea    0x3522(%rip),%rsi        # 14d57 <g_2811+0x1ceb>
   11835:	48 89 cf             	mov    %rcx,%rdi
   11838:	e8 b6 8e ff ff       	callq  a6f3 <transparent_crc>
   1183d:	8b 05 85 69 00 00    	mov    0x6985(%rip),%eax        # 181c8 <g_927>
   11843:	48 98                	cltq   
   11845:	8b 55 fc             	mov    -0x4(%rbp),%edx
   11848:	48 8d 35 11 35 00 00 	lea    0x3511(%rip),%rsi        # 14d60 <g_2811+0x1cf4>
   1184f:	48 89 c7             	mov    %rax,%rdi
   11852:	e8 9c 8e ff ff       	callq  a6f3 <transparent_crc>
   11857:	8b 05 6b 69 00 00    	mov    0x696b(%rip),%eax        # 181c8 <g_927>
   1185d:	89 c1                	mov    %eax,%ecx
   1185f:	8b 45 fc             	mov    -0x4(%rbp),%eax
   11862:	89 c2                	mov    %eax,%edx
   11864:	48 8d 35 fe 34 00 00 	lea    0x34fe(%rip),%rsi        # 14d69 <g_2811+0x1cfd>
   1186b:	48 89 cf             	mov    %rcx,%rdi
   1186e:	e8 80 8e ff ff       	callq  a6f3 <transparent_crc>
   11873:	48 8b 05 4e 69 00 00 	mov    0x694e(%rip),%rax        # 181c8 <g_927>
   1187a:	8b 55 fc             	mov    -0x4(%rbp),%edx
   1187d:	48 8d 35 ee 34 00 00 	lea    0x34ee(%rip),%rsi        # 14d72 <g_2811+0x1d06>
   11884:	48 89 c7             	mov    %rax,%rdi
   11887:	e8 67 8e ff ff       	callq  a6f3 <transparent_crc>
   1188c:	8b 05 36 69 00 00    	mov    0x6936(%rip),%eax        # 181c8 <g_927>
   11892:	25 ff ff 1f 00       	and    $0x1fffff,%eax
   11897:	89 c1                	mov    %eax,%ecx
   11899:	8b 45 fc             	mov    -0x4(%rbp),%eax
   1189c:	89 c2                	mov    %eax,%edx
   1189e:	48 8d 35 d6 34 00 00 	lea    0x34d6(%rip),%rsi        # 14d7b <g_2811+0x1d0f>
   118a5:	48 89 cf             	mov    %rcx,%rdi
   118a8:	e8 46 8e ff ff       	callq  a6f3 <transparent_crc>
   118ad:	0f b6 05 1c 69 00 00 	movzbl 0x691c(%rip),%eax        # 181d0 <g_929>
   118b4:	48 0f be c0          	movsbq %al,%rax
   118b8:	8b 55 fc             	mov    -0x4(%rbp),%edx
   118bb:	48 8d 35 c2 34 00 00 	lea    0x34c2(%rip),%rsi        # 14d84 <g_2811+0x1d18>
   118c2:	48 89 c7             	mov    %rax,%rdi
   118c5:	e8 29 8e ff ff       	callq  a6f3 <transparent_crc>
   118ca:	8b 05 04 69 00 00    	mov    0x6904(%rip),%eax        # 181d4 <g_1028>
   118d0:	48 98                	cltq   
   118d2:	8b 55 fc             	mov    -0x4(%rbp),%edx
   118d5:	48 8d 35 ae 34 00 00 	lea    0x34ae(%rip),%rsi        # 14d8a <g_2811+0x1d1e>
   118dc:	48 89 c7             	mov    %rax,%rdi
   118df:	e8 0f 8e ff ff       	callq  a6f3 <transparent_crc>
   118e4:	8b 05 ee 68 00 00    	mov    0x68ee(%rip),%eax        # 181d8 <g_1129>
   118ea:	48 98                	cltq   
   118ec:	8b 55 fc             	mov    -0x4(%rbp),%edx
   118ef:	48 8d 35 9b 34 00 00 	lea    0x349b(%rip),%rsi        # 14d91 <g_2811+0x1d25>
   118f6:	48 89 c7             	mov    %rax,%rdi
   118f9:	e8 f5 8d ff ff       	callq  a6f3 <transparent_crc>
   118fe:	c7 45 f0 00 00 00 00 	movl   $0x0,-0x10(%rbp)
   11905:	e9 ad 00 00 00       	jmpq   119b7 <main+0x87a>
   1190a:	c7 45 f4 00 00 00 00 	movl   $0x0,-0xc(%rbp)
   11911:	e9 93 00 00 00       	jmpq   119a9 <main+0x86c>
   11916:	c7 45 f8 00 00 00 00 	movl   $0x0,-0x8(%rbp)
   1191d:	eb 7c                	jmp    1199b <main+0x85e>
   1191f:	8b 45 f8             	mov    -0x8(%rbp),%eax
   11922:	48 63 f0             	movslq %eax,%rsi
   11925:	8b 45 f0             	mov    -0x10(%rbp),%eax
   11928:	48 63 d0             	movslq %eax,%rdx
   1192b:	8b 45 f4             	mov    -0xc(%rbp),%eax
   1192e:	48 63 c8             	movslq %eax,%rcx
   11931:	48 89 d0             	mov    %rdx,%rax
   11934:	48 c1 e0 02          	shl    $0x2,%rax
   11938:	48 01 d0             	add    %rdx,%rax
   1193b:	48 c1 e0 02          	shl    $0x2,%rax
   1193f:	48 01 d0             	add    %rdx,%rax
   11942:	48 89 ca             	mov    %rcx,%rdx
   11945:	48 c1 e2 03          	shl    $0x3,%rdx
   11949:	48 29 ca             	sub    %rcx,%rdx
   1194c:	48 01 d0             	add    %rdx,%rax
   1194f:	48 8d 14 30          	lea    (%rax,%rsi,1),%rdx
   11953:	48 8d 05 86 68 00 00 	lea    0x6886(%rip),%rax        # 181e0 <g_1260>
   1195a:	48 01 d0             	add    %rdx,%rax
   1195d:	0f b6 00             	movzbl (%rax),%eax
   11960:	0f b6 c0             	movzbl %al,%eax
   11963:	8b 55 fc             	mov    -0x4(%rbp),%edx
   11966:	48 8d 35 2b 34 00 00 	lea    0x342b(%rip),%rsi        # 14d98 <g_2811+0x1d2c>
   1196d:	48 89 c7             	mov    %rax,%rdi
   11970:	e8 7e 8d ff ff       	callq  a6f3 <transparent_crc>
   11975:	83 7d fc 00          	cmpl   $0x0,-0x4(%rbp)
   11979:	74 1c                	je     11997 <main+0x85a>
   1197b:	8b 4d f8             	mov    -0x8(%rbp),%ecx
   1197e:	8b 55 f4             	mov    -0xc(%rbp),%edx
   11981:	8b 45 f0             	mov    -0x10(%rbp),%eax
   11984:	89 c6                	mov    %eax,%esi
   11986:	48 8d 3d f4 32 00 00 	lea    0x32f4(%rip),%rdi        # 14c81 <g_2811+0x1c15>
   1198d:	b8 00 00 00 00       	mov    $0x0,%eax
   11992:	e8 e9 76 ff ff       	callq  9080 <printf@plt>
   11997:	83 45 f8 01          	addl   $0x1,-0x8(%rbp)
   1199b:	83 7d f8 06          	cmpl   $0x6,-0x8(%rbp)
   1199f:	0f 8e 7a ff ff ff    	jle    1191f <main+0x7e2>
   119a5:	83 45 f4 01          	addl   $0x1,-0xc(%rbp)
   119a9:	83 7d f4 02          	cmpl   $0x2,-0xc(%rbp)
   119ad:	0f 8e 63 ff ff ff    	jle    11916 <main+0x7d9>
   119b3:	83 45 f0 01          	addl   $0x1,-0x10(%rbp)
   119b7:	83 7d f0 09          	cmpl   $0x9,-0x10(%rbp)
   119bb:	0f 8e 49 ff ff ff    	jle    1190a <main+0x7cd>
   119c1:	0f b7 05 ea 68 00 00 	movzwl 0x68ea(%rip),%eax        # 182b2 <g_1262>
   119c8:	48 0f bf c0          	movswq %ax,%rax
   119cc:	8b 55 fc             	mov    -0x4(%rbp),%edx
   119cf:	48 8d 35 d2 33 00 00 	lea    0x33d2(%rip),%rsi        # 14da8 <g_2811+0x1d3c>
   119d6:	48 89 c7             	mov    %rax,%rdi
   119d9:	e8 15 8d ff ff       	callq  a6f3 <transparent_crc>
   119de:	0f b7 05 cf 68 00 00 	movzwl 0x68cf(%rip),%eax        # 182b4 <g_1295>
   119e5:	48 0f bf c0          	movswq %ax,%rax
   119e9:	8b 55 fc             	mov    -0x4(%rbp),%edx
   119ec:	48 8d 35 bc 33 00 00 	lea    0x33bc(%rip),%rsi        # 14daf <g_2811+0x1d43>
   119f3:	48 89 c7             	mov    %rax,%rdi
   119f6:	e8 f8 8c ff ff       	callq  a6f3 <transparent_crc>
   119fb:	0f b6 05 b4 68 00 00 	movzbl 0x68b4(%rip),%eax        # 182b6 <g_1301>
   11a02:	0f b6 c0             	movzbl %al,%eax
   11a05:	8b 55 fc             	mov    -0x4(%rbp),%edx
   11a08:	48 8d 35 a7 33 00 00 	lea    0x33a7(%rip),%rsi        # 14db6 <g_2811+0x1d4a>
   11a0f:	48 89 c7             	mov    %rax,%rdi
   11a12:	e8 dc 8c ff ff       	callq  a6f3 <transparent_crc>
   11a17:	48 8b 05 9a 68 00 00 	mov    0x689a(%rip),%rax        # 182b8 <g_1419>
   11a1e:	8b 55 fc             	mov    -0x4(%rbp),%edx
   11a21:	48 8d 35 95 33 00 00 	lea    0x3395(%rip),%rsi        # 14dbd <g_2811+0x1d51>
   11a28:	48 89 c7             	mov    %rax,%rdi
   11a2b:	e8 c3 8c ff ff       	callq  a6f3 <transparent_crc>
   11a30:	8b 05 8a 68 00 00    	mov    0x688a(%rip),%eax        # 182c0 <g_1459>
   11a36:	89 c1                	mov    %eax,%ecx
   11a38:	8b 45 fc             	mov    -0x4(%rbp),%eax
   11a3b:	89 c2                	mov    %eax,%edx
   11a3d:	48 8d 35 80 33 00 00 	lea    0x3380(%rip),%rsi        # 14dc4 <g_2811+0x1d58>
   11a44:	48 89 cf             	mov    %rcx,%rdi
   11a47:	e8 a7 8c ff ff       	callq  a6f3 <transparent_crc>
   11a4c:	0f b6 05 71 68 00 00 	movzbl 0x6871(%rip),%eax        # 182c4 <g_1508>
   11a53:	48 0f be c0          	movsbq %al,%rax
   11a57:	8b 55 fc             	mov    -0x4(%rbp),%edx
   11a5a:	48 8d 35 6a 33 00 00 	lea    0x336a(%rip),%rsi        # 14dcb <g_2811+0x1d5f>
   11a61:	48 89 c7             	mov    %rax,%rdi
   11a64:	e8 8a 8c ff ff       	callq  a6f3 <transparent_crc>
   11a69:	0f b7 05 56 68 00 00 	movzwl 0x6856(%rip),%eax        # 182c6 <g_1510>
   11a70:	48 0f bf c0          	movswq %ax,%rax
   11a74:	8b 55 fc             	mov    -0x4(%rbp),%edx
   11a77:	48 8d 35 54 33 00 00 	lea    0x3354(%rip),%rsi        # 14dd2 <g_2811+0x1d66>
   11a7e:	48 89 c7             	mov    %rax,%rdi
   11a81:	e8 6d 8c ff ff       	callq  a6f3 <transparent_crc>
   11a86:	48 8b 05 3b 68 00 00 	mov    0x683b(%rip),%rax        # 182c8 <g_1737>
   11a8d:	48 89 c1             	mov    %rax,%rcx
   11a90:	8b 45 fc             	mov    -0x4(%rbp),%eax
   11a93:	89 c2                	mov    %eax,%edx
   11a95:	48 8d 35 3d 33 00 00 	lea    0x333d(%rip),%rsi        # 14dd9 <g_2811+0x1d6d>
   11a9c:	48 89 cf             	mov    %rcx,%rdi
   11a9f:	e8 4f 8c ff ff       	callq  a6f3 <transparent_crc>
   11aa4:	0f b6 05 25 68 00 00 	movzbl 0x6825(%rip),%eax        # 182d0 <g_1767>
   11aab:	0f b6 c0             	movzbl %al,%eax
   11aae:	8b 55 fc             	mov    -0x4(%rbp),%edx
   11ab1:	48 8d 35 28 33 00 00 	lea    0x3328(%rip),%rsi        # 14de0 <g_2811+0x1d74>
   11ab8:	48 89 c7             	mov    %rax,%rdi
   11abb:	e8 33 8c ff ff       	callq  a6f3 <transparent_crc>
   11ac0:	48 8b 05 11 68 00 00 	mov    0x6811(%rip),%rax        # 182d8 <g_1790>
   11ac7:	8b 55 fc             	mov    -0x4(%rbp),%edx
   11aca:	48 8d 35 16 33 00 00 	lea    0x3316(%rip),%rsi        # 14de7 <g_2811+0x1d7b>
   11ad1:	48 89 c7             	mov    %rax,%rdi
   11ad4:	e8 1a 8c ff ff       	callq  a6f3 <transparent_crc>
   11ad9:	0f b6 05 d8 9e 00 00 	movzbl 0x9ed8(%rip),%eax        # 1b9b8 <g_1824>
   11ae0:	0f b6 c0             	movzbl %al,%eax
   11ae3:	8b 55 fc             	mov    -0x4(%rbp),%edx
   11ae6:	48 8d 35 01 33 00 00 	lea    0x3301(%rip),%rsi        # 14dee <g_2811+0x1d82>
   11aed:	48 89 c7             	mov    %rax,%rdi
   11af0:	e8 fe 8b ff ff       	callq  a6f3 <transparent_crc>
   11af5:	8b 05 e5 67 00 00    	mov    0x67e5(%rip),%eax        # 182e0 <g_2031>
   11afb:	89 c1                	mov    %eax,%ecx
   11afd:	8b 45 fc             	mov    -0x4(%rbp),%eax
   11b00:	89 c2                	mov    %eax,%edx
   11b02:	48 8d 35 ec 32 00 00 	lea    0x32ec(%rip),%rsi        # 14df5 <g_2811+0x1d89>
   11b09:	48 89 cf             	mov    %rcx,%rdi
   11b0c:	e8 e2 8b ff ff       	callq  a6f3 <transparent_crc>
   11b11:	c7 45 f0 00 00 00 00 	movl   $0x0,-0x10(%rbp)
   11b18:	eb 4f                	jmp    11b69 <main+0xa2c>
   11b1a:	8b 45 f0             	mov    -0x10(%rbp),%eax
   11b1d:	48 98                	cltq   
   11b1f:	48 8d 14 c5 00 00 00 	lea    0x0(,%rax,8),%rdx
   11b26:	00 
   11b27:	48 8d 05 d2 67 00 00 	lea    0x67d2(%rip),%rax        # 18300 <g_2095>
   11b2e:	48 8b 04 02          	mov    (%rdx,%rax,1),%rax
   11b32:	48 89 c1             	mov    %rax,%rcx
   11b35:	8b 45 fc             	mov    -0x4(%rbp),%eax
   11b38:	89 c2                	mov    %eax,%edx
   11b3a:	48 8d 35 bb 32 00 00 	lea    0x32bb(%rip),%rsi        # 14dfc <g_2811+0x1d90>
   11b41:	48 89 cf             	mov    %rcx,%rdi
   11b44:	e8 aa 8b ff ff       	callq  a6f3 <transparent_crc>
   11b49:	83 7d fc 00          	cmpl   $0x0,-0x4(%rbp)
   11b4d:	74 16                	je     11b65 <main+0xa28>
   11b4f:	8b 45 f0             	mov    -0x10(%rbp),%eax
   11b52:	89 c6                	mov    %eax,%esi
   11b54:	48 8d 3d b6 30 00 00 	lea    0x30b6(%rip),%rdi        # 14c11 <g_2811+0x1ba5>
   11b5b:	b8 00 00 00 00       	mov    $0x0,%eax
   11b60:	e8 1b 75 ff ff       	callq  9080 <printf@plt>
   11b65:	83 45 f0 01          	addl   $0x1,-0x10(%rbp)
   11b69:	83 7d f0 05          	cmpl   $0x5,-0x10(%rbp)
   11b6d:	7e ab                	jle    11b1a <main+0x9dd>
   11b6f:	0f b6 05 ba 67 00 00 	movzbl 0x67ba(%rip),%eax        # 18330 <g_2120>
   11b76:	0f b6 c0             	movzbl %al,%eax
   11b79:	8b 55 fc             	mov    -0x4(%rbp),%edx
   11b7c:	48 8d 35 83 32 00 00 	lea    0x3283(%rip),%rsi        # 14e06 <g_2811+0x1d9a>
   11b83:	48 89 c7             	mov    %rax,%rdi
   11b86:	e8 68 8b ff ff       	callq  a6f3 <transparent_crc>
   11b8b:	48 8b 05 a6 67 00 00 	mov    0x67a6(%rip),%rax        # 18338 <g_2142>
   11b92:	48 89 c1             	mov    %rax,%rcx
   11b95:	8b 45 fc             	mov    -0x4(%rbp),%eax
   11b98:	89 c2                	mov    %eax,%edx
   11b9a:	48 8d 35 6c 32 00 00 	lea    0x326c(%rip),%rsi        # 14e0d <g_2811+0x1da1>
   11ba1:	48 89 cf             	mov    %rcx,%rdi
   11ba4:	e8 4a 8b ff ff       	callq  a6f3 <transparent_crc>
   11ba9:	b8 f7 ff ff ff       	mov    $0xfffffff7,%eax
   11bae:	89 c1                	mov    %eax,%ecx
   11bb0:	8b 45 fc             	mov    -0x4(%rbp),%eax
   11bb3:	89 c2                	mov    %eax,%edx
   11bb5:	48 8d 35 58 32 00 00 	lea    0x3258(%rip),%rsi        # 14e14 <g_2811+0x1da8>
   11bbc:	48 89 cf             	mov    %rcx,%rdi
   11bbf:	e8 2f 8b ff ff       	callq  a6f3 <transparent_crc>
   11bc4:	b8 f7 ff ff ff       	mov    $0xfffffff7,%eax
   11bc9:	0f b7 c0             	movzwl %ax,%eax
   11bcc:	8b 55 fc             	mov    -0x4(%rbp),%edx
   11bcf:	48 8d 35 48 32 00 00 	lea    0x3248(%rip),%rsi        # 14e1e <g_2811+0x1db2>
   11bd6:	48 89 c7             	mov    %rax,%rdi
   11bd9:	e8 15 8b ff ff       	callq  a6f3 <transparent_crc>
   11bde:	48 c7 c0 fb ff ff ff 	mov    $0xfffffffffffffffb,%rax
   11be5:	48 89 c1             	mov    %rax,%rcx
   11be8:	8b 45 fc             	mov    -0x4(%rbp),%eax
   11beb:	89 c2                	mov    %eax,%edx
   11bed:	48 8d 35 34 32 00 00 	lea    0x3234(%rip),%rsi        # 14e28 <g_2811+0x1dbc>
   11bf4:	48 89 cf             	mov    %rcx,%rdi
   11bf7:	e8 f7 8a ff ff       	callq  a6f3 <transparent_crc>
   11bfc:	48 8b 05 3d 67 00 00 	mov    0x673d(%rip),%rax        # 18340 <g_2300>
   11c03:	8b 55 fc             	mov    -0x4(%rbp),%edx
   11c06:	48 8d 35 22 32 00 00 	lea    0x3222(%rip),%rsi        # 14e2f <g_2811+0x1dc3>
   11c0d:	48 89 c7             	mov    %rax,%rdi
   11c10:	e8 de 8a ff ff       	callq  a6f3 <transparent_crc>
   11c15:	b8 02 00 00 00       	mov    $0x2,%eax
   11c1a:	89 c1                	mov    %eax,%ecx
   11c1c:	8b 45 fc             	mov    -0x4(%rbp),%eax
   11c1f:	89 c2                	mov    %eax,%edx
   11c21:	48 8d 35 0e 32 00 00 	lea    0x320e(%rip),%rsi        # 14e36 <g_2811+0x1dca>
   11c28:	48 89 cf             	mov    %rcx,%rdi
   11c2b:	e8 c3 8a ff ff       	callq  a6f3 <transparent_crc>
   11c30:	c7 45 f0 00 00 00 00 	movl   $0x0,-0x10(%rbp)
   11c37:	e9 92 00 00 00       	jmpq   11cce <main+0xb91>
   11c3c:	c7 45 f4 00 00 00 00 	movl   $0x0,-0xc(%rbp)
   11c43:	eb 7b                	jmp    11cc0 <main+0xb83>
   11c45:	c7 45 f8 00 00 00 00 	movl   $0x0,-0x8(%rbp)
   11c4c:	eb 68                	jmp    11cb6 <main+0xb79>
   11c4e:	8b 45 f8             	mov    -0x8(%rbp),%eax
   11c51:	48 98                	cltq   
   11c53:	8b 55 f0             	mov    -0x10(%rbp),%edx
   11c56:	48 63 ca             	movslq %edx,%rcx
   11c59:	8b 55 f4             	mov    -0xc(%rbp),%edx
   11c5c:	48 63 d2             	movslq %edx,%rdx
   11c5f:	48 c1 e1 03          	shl    $0x3,%rcx
   11c63:	48 01 ca             	add    %rcx,%rdx
   11c66:	48 c1 e2 03          	shl    $0x3,%rdx
   11c6a:	48 01 c2             	add    %rax,%rdx
   11c6d:	48 8d 05 ec 66 00 00 	lea    0x66ec(%rip),%rax        # 18360 <g_2386>
   11c74:	48 01 d0             	add    %rdx,%rax
   11c77:	0f b6 00             	movzbl (%rax),%eax
   11c7a:	48 0f be c0          	movsbq %al,%rax
   11c7e:	8b 55 fc             	mov    -0x4(%rbp),%edx
   11c81:	48 8d 35 b5 31 00 00 	lea    0x31b5(%rip),%rsi        # 14e3d <g_2811+0x1dd1>
   11c88:	48 89 c7             	mov    %rax,%rdi
   11c8b:	e8 63 8a ff ff       	callq  a6f3 <transparent_crc>
   11c90:	83 7d fc 00          	cmpl   $0x0,-0x4(%rbp)
   11c94:	74 1c                	je     11cb2 <main+0xb75>
   11c96:	8b 4d f8             	mov    -0x8(%rbp),%ecx
   11c99:	8b 55 f4             	mov    -0xc(%rbp),%edx
   11c9c:	8b 45 f0             	mov    -0x10(%rbp),%eax
   11c9f:	89 c6                	mov    %eax,%esi
   11ca1:	48 8d 3d d9 2f 00 00 	lea    0x2fd9(%rip),%rdi        # 14c81 <g_2811+0x1c15>
   11ca8:	b8 00 00 00 00       	mov    $0x0,%eax
   11cad:	e8 ce 73 ff ff       	callq  9080 <printf@plt>
   11cb2:	83 45 f8 01          	addl   $0x1,-0x8(%rbp)
   11cb6:	83 7d f8 07          	cmpl   $0x7,-0x8(%rbp)
   11cba:	7e 92                	jle    11c4e <main+0xb11>
   11cbc:	83 45 f4 01          	addl   $0x1,-0xc(%rbp)
   11cc0:	83 7d f4 07          	cmpl   $0x7,-0xc(%rbp)
   11cc4:	0f 8e 7b ff ff ff    	jle    11c45 <main+0xb08>
   11cca:	83 45 f0 01          	addl   $0x1,-0x10(%rbp)
   11cce:	83 7d f0 03          	cmpl   $0x3,-0x10(%rbp)
   11cd2:	0f 8e 64 ff ff ff    	jle    11c3c <main+0xaff>
   11cd8:	0f b6 05 81 67 00 00 	movzbl 0x6781(%rip),%eax        # 18460 <g_2387>
   11cdf:	48 0f be c0          	movsbq %al,%rax
   11ce3:	8b 55 fc             	mov    -0x4(%rbp),%edx
   11ce6:	48 8d 35 60 31 00 00 	lea    0x3160(%rip),%rsi        # 14e4d <g_2811+0x1de1>
   11ced:	48 89 c7             	mov    %rax,%rdi
   11cf0:	e8 fe 89 ff ff       	callq  a6f3 <transparent_crc>
   11cf5:	48 8b 05 6c 67 00 00 	mov    0x676c(%rip),%rax        # 18468 <g_2436>
   11cfc:	8b 55 fc             	mov    -0x4(%rbp),%edx
   11cff:	48 8d 35 4e 31 00 00 	lea    0x314e(%rip),%rsi        # 14e54 <g_2811+0x1de8>
   11d06:	48 89 c7             	mov    %rax,%rdi
   11d09:	e8 e5 89 ff ff       	callq  a6f3 <transparent_crc>
   11d0e:	0f b6 05 5b 67 00 00 	movzbl 0x675b(%rip),%eax        # 18470 <g_2681>
   11d15:	48 0f be c0          	movsbq %al,%rax
   11d19:	8b 55 fc             	mov    -0x4(%rbp),%edx
   11d1c:	48 8d 35 38 31 00 00 	lea    0x3138(%rip),%rsi        # 14e5b <g_2811+0x1def>
   11d23:	48 89 c7             	mov    %rax,%rdi
   11d26:	e8 c8 89 ff ff       	callq  a6f3 <transparent_crc>
   11d2b:	0f b6 05 3f 67 00 00 	movzbl 0x673f(%rip),%eax        # 18471 <g_2691>
   11d32:	48 0f be c0          	movsbq %al,%rax
   11d36:	8b 55 fc             	mov    -0x4(%rbp),%edx
   11d39:	48 8d 35 22 31 00 00 	lea    0x3122(%rip),%rsi        # 14e62 <g_2811+0x1df6>
   11d40:	48 89 c7             	mov    %rax,%rdi
   11d43:	e8 ab 89 ff ff       	callq  a6f3 <transparent_crc>
   11d48:	b8 95 ff ff ff       	mov    $0xffffff95,%eax
   11d4d:	48 0f be c0          	movsbq %al,%rax
   11d51:	8b 55 fc             	mov    -0x4(%rbp),%edx
   11d54:	48 8d 35 0e 31 00 00 	lea    0x310e(%rip),%rsi        # 14e69 <g_2811+0x1dfd>
   11d5b:	48 89 c7             	mov    %rax,%rdi
   11d5e:	e8 90 89 ff ff       	callq  a6f3 <transparent_crc>
   11d63:	c7 45 f0 00 00 00 00 	movl   $0x0,-0x10(%rbp)
   11d6a:	e9 ac 00 00 00       	jmpq   11e1b <main+0xcde>
   11d6f:	c7 45 f4 00 00 00 00 	movl   $0x0,-0xc(%rbp)
   11d76:	e9 92 00 00 00       	jmpq   11e0d <main+0xcd0>
   11d7b:	c7 45 f8 00 00 00 00 	movl   $0x0,-0x8(%rbp)
   11d82:	eb 7b                	jmp    11dff <main+0xcc2>
   11d84:	8b 45 f8             	mov    -0x8(%rbp),%eax
   11d87:	48 63 f0             	movslq %eax,%rsi
   11d8a:	8b 45 f0             	mov    -0x10(%rbp),%eax
   11d8d:	48 63 d0             	movslq %eax,%rdx
   11d90:	8b 45 f4             	mov    -0xc(%rbp),%eax
   11d93:	48 63 c8             	movslq %eax,%rcx
   11d96:	48 89 d0             	mov    %rdx,%rax
   11d99:	48 c1 e0 02          	shl    $0x2,%rax
   11d9d:	48 01 d0             	add    %rdx,%rax
   11da0:	48 c1 e0 03          	shl    $0x3,%rax
   11da4:	48 89 ca             	mov    %rcx,%rdx
   11da7:	48 c1 e2 02          	shl    $0x2,%rdx
   11dab:	48 01 ca             	add    %rcx,%rdx
   11dae:	48 01 d0             	add    %rdx,%rax
   11db1:	48 01 f0             	add    %rsi,%rax
   11db4:	48 8d 14 00          	lea    (%rax,%rax,1),%rdx
   11db8:	48 8d 05 c1 66 00 00 	lea    0x66c1(%rip),%rax        # 18480 <g_2887>
   11dbf:	0f b7 04 02          	movzwl (%rdx,%rax,1),%eax
   11dc3:	48 0f bf c0          	movswq %ax,%rax
   11dc7:	8b 55 fc             	mov    -0x4(%rbp),%edx
   11dca:	48 8d 35 9f 30 00 00 	lea    0x309f(%rip),%rsi        # 14e70 <g_2811+0x1e04>
   11dd1:	48 89 c7             	mov    %rax,%rdi
   11dd4:	e8 1a 89 ff ff       	callq  a6f3 <transparent_crc>
   11dd9:	83 7d fc 00          	cmpl   $0x0,-0x4(%rbp)
   11ddd:	74 1c                	je     11dfb <main+0xcbe>
   11ddf:	8b 4d f8             	mov    -0x8(%rbp),%ecx
   11de2:	8b 55 f4             	mov    -0xc(%rbp),%edx
   11de5:	8b 45 f0             	mov    -0x10(%rbp),%eax
   11de8:	89 c6                	mov    %eax,%esi
   11dea:	48 8d 3d 90 2e 00 00 	lea    0x2e90(%rip),%rdi        # 14c81 <g_2811+0x1c15>
   11df1:	b8 00 00 00 00       	mov    $0x0,%eax
   11df6:	e8 85 72 ff ff       	callq  9080 <printf@plt>
   11dfb:	83 45 f8 01          	addl   $0x1,-0x8(%rbp)
   11dff:	83 7d f8 04          	cmpl   $0x4,-0x8(%rbp)
   11e03:	0f 8e 7b ff ff ff    	jle    11d84 <main+0xc47>
   11e09:	83 45 f4 01          	addl   $0x1,-0xc(%rbp)
   11e0d:	83 7d f4 07          	cmpl   $0x7,-0xc(%rbp)
   11e11:	0f 8e 64 ff ff ff    	jle    11d7b <main+0xc3e>
   11e17:	83 45 f0 01          	addl   $0x1,-0x10(%rbp)
   11e1b:	83 7d f0 05          	cmpl   $0x5,-0x10(%rbp)
   11e1f:	0f 8e 4a ff ff ff    	jle    11d6f <main+0xc32>
   11e25:	8b 05 b5 9b 00 00    	mov    0x9bb5(%rip),%eax        # 1b9e0 <g_2961>
   11e2b:	48 98                	cltq   
   11e2d:	8b 55 fc             	mov    -0x4(%rbp),%edx
   11e30:	48 8d 35 49 30 00 00 	lea    0x3049(%rip),%rsi        # 14e80 <g_2811+0x1e14>
   11e37:	48 89 c7             	mov    %rax,%rdi
   11e3a:	e8 b4 88 ff ff       	callq  a6f3 <transparent_crc>
   11e3f:	48 8b 05 1a 68 00 00 	mov    0x681a(%rip),%rax        # 18660 <g_3154>
   11e46:	8b 55 fc             	mov    -0x4(%rbp),%edx
   11e49:	48 8d 35 37 30 00 00 	lea    0x3037(%rip),%rsi        # 14e87 <g_2811+0x1e1b>
   11e50:	48 89 c7             	mov    %rax,%rdi
   11e53:	e8 9b 88 ff ff       	callq  a6f3 <transparent_crc>
   11e58:	0f b7 05 09 68 00 00 	movzwl 0x6809(%rip),%eax        # 18668 <g_3167>
   11e5f:	0f b7 c0             	movzwl %ax,%eax
   11e62:	8b 55 fc             	mov    -0x4(%rbp),%edx
   11e65:	48 8d 35 22 30 00 00 	lea    0x3022(%rip),%rsi        # 14e8e <g_2811+0x1e22>
   11e6c:	48 89 c7             	mov    %rax,%rdi
   11e6f:	e8 7f 88 ff ff       	callq  a6f3 <transparent_crc>
   11e74:	0f b6 05 ef 67 00 00 	movzbl 0x67ef(%rip),%eax        # 1866a <g_3246>
   11e7b:	48 0f be c0          	movsbq %al,%rax
   11e7f:	8b 55 fc             	mov    -0x4(%rbp),%edx
   11e82:	48 8d 35 0c 30 00 00 	lea    0x300c(%rip),%rsi        # 14e95 <g_2811+0x1e29>
   11e89:	48 89 c7             	mov    %rax,%rdi
   11e8c:	e8 62 88 ff ff       	callq  a6f3 <transparent_crc>
   11e91:	8b 05 d5 67 00 00    	mov    0x67d5(%rip),%eax        # 1866c <g_3255>
   11e97:	48 98                	cltq   
   11e99:	8b 55 fc             	mov    -0x4(%rbp),%edx
   11e9c:	48 8d 35 f9 2f 00 00 	lea    0x2ff9(%rip),%rsi        # 14e9c <g_2811+0x1e30>
   11ea3:	48 89 c7             	mov    %rax,%rdi
   11ea6:	e8 48 88 ff ff       	callq  a6f3 <transparent_crc>
   11eab:	8b 05 bf 67 00 00    	mov    0x67bf(%rip),%eax        # 18670 <g_3268>
   11eb1:	89 c1                	mov    %eax,%ecx
   11eb3:	8b 45 fc             	mov    -0x4(%rbp),%eax
   11eb6:	89 c2                	mov    %eax,%edx
   11eb8:	48 8d 35 e4 2f 00 00 	lea    0x2fe4(%rip),%rsi        # 14ea3 <g_2811+0x1e37>
   11ebf:	48 89 cf             	mov    %rcx,%rdi
   11ec2:	e8 2c 88 ff ff       	callq  a6f3 <transparent_crc>
   11ec7:	0f b7 05 a6 67 00 00 	movzwl 0x67a6(%rip),%eax        # 18674 <g_3300>
   11ece:	48 0f bf c0          	movswq %ax,%rax
   11ed2:	8b 55 fc             	mov    -0x4(%rbp),%edx
   11ed5:	48 8d 35 ce 2f 00 00 	lea    0x2fce(%rip),%rsi        # 14eaa <g_2811+0x1e3e>
   11edc:	48 89 c7             	mov    %rax,%rdi
   11edf:	e8 0f 88 ff ff       	callq  a6f3 <transparent_crc>
   11ee4:	c7 45 f0 00 00 00 00 	movl   $0x0,-0x10(%rbp)
   11eeb:	eb 4d                	jmp    11f3a <main+0xdfd>
   11eed:	8b 45 f0             	mov    -0x10(%rbp),%eax
   11ef0:	48 98                	cltq   
   11ef2:	48 8d 14 85 00 00 00 	lea    0x0(,%rax,4),%rdx
   11ef9:	00 
   11efa:	48 8d 05 7f 67 00 00 	lea    0x677f(%rip),%rax        # 18680 <g_3302>
   11f01:	8b 04 02             	mov    (%rdx,%rax,1),%eax
   11f04:	89 c1                	mov    %eax,%ecx
   11f06:	8b 45 fc             	mov    -0x4(%rbp),%eax
   11f09:	89 c2                	mov    %eax,%edx
   11f0b:	48 8d 35 9f 2f 00 00 	lea    0x2f9f(%rip),%rsi        # 14eb1 <g_2811+0x1e45>
   11f12:	48 89 cf             	mov    %rcx,%rdi
   11f15:	e8 d9 87 ff ff       	callq  a6f3 <transparent_crc>
   11f1a:	83 7d fc 00          	cmpl   $0x0,-0x4(%rbp)
   11f1e:	74 16                	je     11f36 <main+0xdf9>
   11f20:	8b 45 f0             	mov    -0x10(%rbp),%eax
   11f23:	89 c6                	mov    %eax,%esi
   11f25:	48 8d 3d e5 2c 00 00 	lea    0x2ce5(%rip),%rdi        # 14c11 <g_2811+0x1ba5>
   11f2c:	b8 00 00 00 00       	mov    $0x0,%eax
   11f31:	e8 4a 71 ff ff       	callq  9080 <printf@plt>
   11f36:	83 45 f0 01          	addl   $0x1,-0x10(%rbp)
   11f3a:	83 7d f0 04          	cmpl   $0x4,-0x10(%rbp)
   11f3e:	7e ad                	jle    11eed <main+0xdb0>
   11f40:	8b 05 4e 67 00 00    	mov    0x674e(%rip),%eax        # 18694 <g_3326>
   11f46:	89 c1                	mov    %eax,%ecx
   11f48:	8b 45 fc             	mov    -0x4(%rbp),%eax
   11f4b:	89 c2                	mov    %eax,%edx
   11f4d:	48 8d 35 67 2f 00 00 	lea    0x2f67(%rip),%rsi        # 14ebb <g_2811+0x1e4f>
   11f54:	48 89 cf             	mov    %rcx,%rdi
   11f57:	e8 97 87 ff ff       	callq  a6f3 <transparent_crc>
   11f5c:	8b 05 be 60 00 00    	mov    0x60be(%rip),%eax        # 18020 <crc32_context>
   11f62:	f7 d0                	not    %eax
   11f64:	89 c2                	mov    %eax,%edx
   11f66:	8b 45 fc             	mov    -0x4(%rbp),%eax
   11f69:	89 c6                	mov    %eax,%esi
   11f6b:	89 d7                	mov    %edx,%edi
   11f6d:	e8 22 72 ff ff       	callq  9194 <platform_main_end>
   11f72:	b8 00 00 00 00       	mov    $0x0,%eax
   11f77:	c9                   	leaveq 
   11f78:	c3                   	retq   
   11f79:	0f 1f 80 00 00 00 00 	nopl   0x0(%rax)

0000000000011f80 <__libc_csu_init>:
   11f80:	f3 0f 1e fa          	endbr64 
   11f84:	41 57                	push   %r15
   11f86:	4c 8d 3d 03 5c 00 00 	lea    0x5c03(%rip),%r15        # 17b90 <__frame_dummy_init_array_entry>
   11f8d:	41 56                	push   %r14
   11f8f:	49 89 d6             	mov    %rdx,%r14
   11f92:	41 55                	push   %r13
   11f94:	49 89 f5             	mov    %rsi,%r13
   11f97:	41 54                	push   %r12
   11f99:	41 89 fc             	mov    %edi,%r12d
   11f9c:	55                   	push   %rbp
   11f9d:	48 8d 2d f4 5b 00 00 	lea    0x5bf4(%rip),%rbp        # 17b98 <__do_global_dtors_aux_fini_array_entry>
   11fa4:	53                   	push   %rbx
   11fa5:	4c 29 fd             	sub    %r15,%rbp
   11fa8:	48 83 ec 08          	sub    $0x8,%rsp
   11fac:	e8 4f 70 ff ff       	callq  9000 <_init>
   11fb1:	48 c1 fd 03          	sar    $0x3,%rbp
   11fb5:	74 1f                	je     11fd6 <__libc_csu_init+0x56>
   11fb7:	31 db                	xor    %ebx,%ebx
   11fb9:	0f 1f 80 00 00 00 00 	nopl   0x0(%rax)
   11fc0:	4c 89 f2             	mov    %r14,%rdx
   11fc3:	4c 89 ee             	mov    %r13,%rsi
   11fc6:	44 89 e7             	mov    %r12d,%edi
   11fc9:	41 ff 14 df          	callq  *(%r15,%rbx,8)
   11fcd:	48 83 c3 01          	add    $0x1,%rbx
   11fd1:	48 39 dd             	cmp    %rbx,%rbp
   11fd4:	75 ea                	jne    11fc0 <__libc_csu_init+0x40>
   11fd6:	48 83 c4 08          	add    $0x8,%rsp
   11fda:	5b                   	pop    %rbx
   11fdb:	5d                   	pop    %rbp
   11fdc:	41 5c                	pop    %r12
   11fde:	41 5d                	pop    %r13
   11fe0:	41 5e                	pop    %r14
   11fe2:	41 5f                	pop    %r15
   11fe4:	c3                   	retq   
   11fe5:	66 66 2e 0f 1f 84 00 	data16 nopw %cs:0x0(%rax,%rax,1)
   11fec:	00 00 00 00 

0000000000011ff0 <__libc_csu_fini>:
   11ff0:	f3 0f 1e fa          	endbr64 
   11ff4:	c3                   	retq   
