


Disassembly of section .text:

00000000000060a0 <_start>:
    60a0:	f3 0f 1e fa          	endbr64 
    60a4:	31 ed                	xor    %ebp,%ebp
    60a6:	49 89 d1             	mov    %rdx,%r9
    60a9:	5e                   	pop    %rsi
    60aa:	48 89 e2             	mov    %rsp,%rdx
    60ad:	48 83 e4 f0          	and    $0xfffffffffffffff0,%rsp
    60b1:	50                   	push   %rax
    60b2:	54                   	push   %rsp
    60b3:	4c 8d 05 96 1c 01 00 	lea    0x11c96(%rip),%r8        # 17d50 <__libc_csu_fini>
    60ba:	48 8d 0d 1f 1c 01 00 	lea    0x11c1f(%rip),%rcx        # 17ce0 <__libc_csu_init>
    60c1:	48 8d 3d ab 12 01 00 	lea    0x112ab(%rip),%rdi        # 17373 <main>
    60c8:	ff 15 12 6f 01 00    	callq  *0x16f12(%rip)        # 1cfe0 <__libc_start_main@GLIBC_2.2.5>
    60ce:	f4                   	hlt    
    60cf:	90                   	nop

00000000000060d0 <deregister_tm_clones>:
    60d0:	48 8d 3d 39 93 01 00 	lea    0x19339(%rip),%rdi        # 1f410 <__TMC_END__>
    60d7:	48 8d 05 32 93 01 00 	lea    0x19332(%rip),%rax        # 1f410 <__TMC_END__>
    60de:	48 39 f8             	cmp    %rdi,%rax
    60e1:	74 15                	je     60f8 <deregister_tm_clones+0x28>
    60e3:	48 8b 05 ee 6e 01 00 	mov    0x16eee(%rip),%rax        # 1cfd8 <_ITM_deregisterTMCloneTable>
    60ea:	48 85 c0             	test   %rax,%rax
    60ed:	74 09                	je     60f8 <deregister_tm_clones+0x28>
    60ef:	ff e0                	jmpq   *%rax
    60f1:	0f 1f 80 00 00 00 00 	nopl   0x0(%rax)
    60f8:	c3                   	retq   
    60f9:	0f 1f 80 00 00 00 00 	nopl   0x0(%rax)

0000000000006100 <register_tm_clones>:
    6100:	48 8d 3d 09 93 01 00 	lea    0x19309(%rip),%rdi        # 1f410 <__TMC_END__>
    6107:	48 8d 35 02 93 01 00 	lea    0x19302(%rip),%rsi        # 1f410 <__TMC_END__>
    610e:	48 29 fe             	sub    %rdi,%rsi
    6111:	48 89 f0             	mov    %rsi,%rax
    6114:	48 c1 ee 3f          	shr    $0x3f,%rsi
    6118:	48 c1 f8 03          	sar    $0x3,%rax
    611c:	48 01 c6             	add    %rax,%rsi
    611f:	48 d1 fe             	sar    %rsi
    6122:	74 14                	je     6138 <register_tm_clones+0x38>
    6124:	48 8b 05 c5 6e 01 00 	mov    0x16ec5(%rip),%rax        # 1cff0 <_ITM_registerTMCloneTable>
    612b:	48 85 c0             	test   %rax,%rax
    612e:	74 08                	je     6138 <register_tm_clones+0x38>
    6130:	ff e0                	jmpq   *%rax
    6132:	66 0f 1f 44 00 00    	nopw   0x0(%rax,%rax,1)
    6138:	c3                   	retq   
    6139:	0f 1f 80 00 00 00 00 	nopl   0x0(%rax)

0000000000006140 <__do_global_dtors_aux>:
    6140:	f3 0f 1e fa          	endbr64 
    6144:	80 3d d5 92 01 00 00 	cmpb   $0x0,0x192d5(%rip)        # 1f420 <completed.8061>
    614b:	75 2b                	jne    6178 <__do_global_dtors_aux+0x38>
    614d:	55                   	push   %rbp
    614e:	48 83 3d a2 6e 01 00 	cmpq   $0x0,0x16ea2(%rip)        # 1cff8 <__cxa_finalize@GLIBC_2.2.5>
    6155:	00 
    6156:	48 89 e5             	mov    %rsp,%rbp
    6159:	74 0c                	je     6167 <__do_global_dtors_aux+0x27>
    615b:	48 8b 3d a6 6e 01 00 	mov    0x16ea6(%rip),%rdi        # 1d008 <__dso_handle>
    6162:	e8 f9 fe ff ff       	callq  6060 <__cxa_finalize@plt>
    6167:	e8 64 ff ff ff       	callq  60d0 <deregister_tm_clones>
    616c:	c6 05 ad 92 01 00 01 	movb   $0x1,0x192ad(%rip)        # 1f420 <completed.8061>
    6173:	5d                   	pop    %rbp
    6174:	c3                   	retq   
    6175:	0f 1f 00             	nopl   (%rax)
    6178:	c3                   	retq   
    6179:	0f 1f 80 00 00 00 00 	nopl   0x0(%rax)

0000000000006180 <frame_dummy>:
    6180:	f3 0f 1e fa          	endbr64 
    6184:	e9 77 ff ff ff       	jmpq   6100 <register_tm_clones>

0000000000006189 <platform_main_begin>:
    6189:	f3 0f 1e fa          	endbr64 
    618d:	55                   	push   %rbp
    618e:	48 89 e5             	mov    %rsp,%rbp
    6191:	90                   	nop
    6192:	5d                   	pop    %rbp
    6193:	c3                   	retq   

0000000000006194 <platform_main_end>:
    6194:	f3 0f 1e fa          	endbr64 
    6198:	55                   	push   %rbp
    6199:	48 89 e5             	mov    %rsp,%rbp
    619c:	48 83 ec 10          	sub    $0x10,%rsp
    61a0:	89 7d fc             	mov    %edi,-0x4(%rbp)
    61a3:	89 75 f8             	mov    %esi,-0x8(%rbp)
    61a6:	8b 45 fc             	mov    -0x4(%rbp),%eax
    61a9:	89 c6                	mov    %eax,%esi
    61ab:	48 8d 3d 6e 1e 01 00 	lea    0x11e6e(%rip),%rdi        # 18020 <_IO_stdin_used+0x20>
    61b2:	b8 00 00 00 00       	mov    $0x0,%eax
    61b7:	e8 c4 fe ff ff       	callq  6080 <printf@plt>
    61bc:	90                   	nop
    61bd:	c9                   	leaveq 
    61be:	c3                   	retq   

00000000000061bf <safe_unary_minus_func_int8_t_s>:
    61bf:	f3 0f 1e fa          	endbr64 
    61c3:	55                   	push   %rbp
    61c4:	48 89 e5             	mov    %rsp,%rbp
    61c7:	89 f8                	mov    %edi,%eax
    61c9:	88 45 fc             	mov    %al,-0x4(%rbp)
    61cc:	0f b6 45 fc          	movzbl -0x4(%rbp),%eax
    61d0:	f7 d8                	neg    %eax
    61d2:	5d                   	pop    %rbp
    61d3:	c3                   	retq   

00000000000061d4 <safe_add_func_int8_t_s_s>:
    61d4:	f3 0f 1e fa          	endbr64 
    61d8:	55                   	push   %rbp
    61d9:	48 89 e5             	mov    %rsp,%rbp
    61dc:	89 fa                	mov    %edi,%edx
    61de:	89 f0                	mov    %esi,%eax
    61e0:	88 55 fc             	mov    %dl,-0x4(%rbp)
    61e3:	88 45 f8             	mov    %al,-0x8(%rbp)
    61e6:	0f b6 55 fc          	movzbl -0x4(%rbp),%edx
    61ea:	0f b6 45 f8          	movzbl -0x8(%rbp),%eax
    61ee:	01 d0                	add    %edx,%eax
    61f0:	5d                   	pop    %rbp
    61f1:	c3                   	retq   

00000000000061f2 <safe_sub_func_int8_t_s_s>:
    61f2:	f3 0f 1e fa          	endbr64 
    61f6:	55                   	push   %rbp
    61f7:	48 89 e5             	mov    %rsp,%rbp
    61fa:	89 fa                	mov    %edi,%edx
    61fc:	89 f0                	mov    %esi,%eax
    61fe:	88 55 fc             	mov    %dl,-0x4(%rbp)
    6201:	88 45 f8             	mov    %al,-0x8(%rbp)
    6204:	0f b6 55 fc          	movzbl -0x4(%rbp),%edx
    6208:	0f b6 45 f8          	movzbl -0x8(%rbp),%eax
    620c:	29 c2                	sub    %eax,%edx
    620e:	89 d0                	mov    %edx,%eax
    6210:	5d                   	pop    %rbp
    6211:	c3                   	retq   

0000000000006212 <safe_mul_func_int8_t_s_s>:
    6212:	f3 0f 1e fa          	endbr64 
    6216:	55                   	push   %rbp
    6217:	48 89 e5             	mov    %rsp,%rbp
    621a:	89 fa                	mov    %edi,%edx
    621c:	89 f0                	mov    %esi,%eax
    621e:	88 55 fc             	mov    %dl,-0x4(%rbp)
    6221:	88 45 f8             	mov    %al,-0x8(%rbp)
    6224:	0f b6 45 fc          	movzbl -0x4(%rbp),%eax
    6228:	0f b6 55 f8          	movzbl -0x8(%rbp),%edx
    622c:	0f af c2             	imul   %edx,%eax
    622f:	5d                   	pop    %rbp
    6230:	c3                   	retq   

0000000000006231 <safe_mod_func_int8_t_s_s>:
    6231:	f3 0f 1e fa          	endbr64 
    6235:	55                   	push   %rbp
    6236:	48 89 e5             	mov    %rsp,%rbp
    6239:	89 fa                	mov    %edi,%edx
    623b:	89 f0                	mov    %esi,%eax
    623d:	88 55 fc             	mov    %dl,-0x4(%rbp)
    6240:	88 45 f8             	mov    %al,-0x8(%rbp)
    6243:	80 7d f8 00          	cmpb   $0x0,-0x8(%rbp)
    6247:	74 1b                	je     6264 <safe_mod_func_int8_t_s_s+0x33>
    6249:	80 7d fc 80          	cmpb   $0x80,-0x4(%rbp)
    624d:	75 06                	jne    6255 <safe_mod_func_int8_t_s_s+0x24>
    624f:	80 7d f8 ff          	cmpb   $0xff,-0x8(%rbp)
    6253:	74 0f                	je     6264 <safe_mod_func_int8_t_s_s+0x33>
    6255:	0f be 45 fc          	movsbl -0x4(%rbp),%eax
    6259:	0f be 4d f8          	movsbl -0x8(%rbp),%ecx
    625d:	99                   	cltd   
    625e:	f7 f9                	idiv   %ecx
    6260:	89 d0                	mov    %edx,%eax
    6262:	eb 04                	jmp    6268 <safe_mod_func_int8_t_s_s+0x37>
    6264:	0f b6 45 fc          	movzbl -0x4(%rbp),%eax
    6268:	5d                   	pop    %rbp
    6269:	c3                   	retq   

000000000000626a <safe_div_func_int8_t_s_s>:
    626a:	f3 0f 1e fa          	endbr64 
    626e:	55                   	push   %rbp
    626f:	48 89 e5             	mov    %rsp,%rbp
    6272:	89 fa                	mov    %edi,%edx
    6274:	89 f0                	mov    %esi,%eax
    6276:	88 55 fc             	mov    %dl,-0x4(%rbp)
    6279:	88 45 f8             	mov    %al,-0x8(%rbp)
    627c:	80 7d f8 00          	cmpb   $0x0,-0x8(%rbp)
    6280:	74 19                	je     629b <safe_div_func_int8_t_s_s+0x31>
    6282:	80 7d fc 80          	cmpb   $0x80,-0x4(%rbp)
    6286:	75 06                	jne    628e <safe_div_func_int8_t_s_s+0x24>
    6288:	80 7d f8 ff          	cmpb   $0xff,-0x8(%rbp)
    628c:	74 0d                	je     629b <safe_div_func_int8_t_s_s+0x31>
    628e:	0f be 45 fc          	movsbl -0x4(%rbp),%eax
    6292:	0f be 4d f8          	movsbl -0x8(%rbp),%ecx
    6296:	99                   	cltd   
    6297:	f7 f9                	idiv   %ecx
    6299:	eb 04                	jmp    629f <safe_div_func_int8_t_s_s+0x35>
    629b:	0f b6 45 fc          	movzbl -0x4(%rbp),%eax
    629f:	5d                   	pop    %rbp
    62a0:	c3                   	retq   

00000000000062a1 <safe_lshift_func_int8_t_s_s>:
    62a1:	f3 0f 1e fa          	endbr64 
    62a5:	55                   	push   %rbp
    62a6:	48 89 e5             	mov    %rsp,%rbp
    62a9:	89 f8                	mov    %edi,%eax
    62ab:	89 75 f8             	mov    %esi,-0x8(%rbp)
    62ae:	88 45 fc             	mov    %al,-0x4(%rbp)
    62b1:	80 7d fc 00          	cmpb   $0x0,-0x4(%rbp)
    62b5:	78 31                	js     62e8 <safe_lshift_func_int8_t_s_s+0x47>
    62b7:	83 7d f8 00          	cmpl   $0x0,-0x8(%rbp)
    62bb:	78 2b                	js     62e8 <safe_lshift_func_int8_t_s_s+0x47>
    62bd:	83 7d f8 1f          	cmpl   $0x1f,-0x8(%rbp)
    62c1:	7f 25                	jg     62e8 <safe_lshift_func_int8_t_s_s+0x47>
    62c3:	0f be 55 fc          	movsbl -0x4(%rbp),%edx
    62c7:	8b 45 f8             	mov    -0x8(%rbp),%eax
    62ca:	be 7f 00 00 00       	mov    $0x7f,%esi
    62cf:	89 c1                	mov    %eax,%ecx
    62d1:	d3 fe                	sar    %cl,%esi
    62d3:	89 f0                	mov    %esi,%eax
    62d5:	39 c2                	cmp    %eax,%edx
    62d7:	7f 0f                	jg     62e8 <safe_lshift_func_int8_t_s_s+0x47>
    62d9:	0f be 55 fc          	movsbl -0x4(%rbp),%edx
    62dd:	8b 45 f8             	mov    -0x8(%rbp),%eax
    62e0:	89 c1                	mov    %eax,%ecx
    62e2:	d3 e2                	shl    %cl,%edx
    62e4:	89 d0                	mov    %edx,%eax
    62e6:	eb 04                	jmp    62ec <safe_lshift_func_int8_t_s_s+0x4b>
    62e8:	0f b6 45 fc          	movzbl -0x4(%rbp),%eax
    62ec:	5d                   	pop    %rbp
    62ed:	c3                   	retq   

00000000000062ee <safe_lshift_func_int8_t_s_u>:
    62ee:	f3 0f 1e fa          	endbr64 
    62f2:	55                   	push   %rbp
    62f3:	48 89 e5             	mov    %rsp,%rbp
    62f6:	89 f8                	mov    %edi,%eax
    62f8:	89 75 f8             	mov    %esi,-0x8(%rbp)
    62fb:	88 45 fc             	mov    %al,-0x4(%rbp)
    62fe:	80 7d fc 00          	cmpb   $0x0,-0x4(%rbp)
    6302:	78 2b                	js     632f <safe_lshift_func_int8_t_s_u+0x41>
    6304:	83 7d f8 1f          	cmpl   $0x1f,-0x8(%rbp)
    6308:	77 25                	ja     632f <safe_lshift_func_int8_t_s_u+0x41>
    630a:	0f be 55 fc          	movsbl -0x4(%rbp),%edx
    630e:	8b 45 f8             	mov    -0x8(%rbp),%eax
    6311:	be 7f 00 00 00       	mov    $0x7f,%esi
    6316:	89 c1                	mov    %eax,%ecx
    6318:	d3 fe                	sar    %cl,%esi
    631a:	89 f0                	mov    %esi,%eax
    631c:	39 c2                	cmp    %eax,%edx
    631e:	7f 0f                	jg     632f <safe_lshift_func_int8_t_s_u+0x41>
    6320:	0f be 55 fc          	movsbl -0x4(%rbp),%edx
    6324:	8b 45 f8             	mov    -0x8(%rbp),%eax
    6327:	89 c1                	mov    %eax,%ecx
    6329:	d3 e2                	shl    %cl,%edx
    632b:	89 d0                	mov    %edx,%eax
    632d:	eb 04                	jmp    6333 <safe_lshift_func_int8_t_s_u+0x45>
    632f:	0f b6 45 fc          	movzbl -0x4(%rbp),%eax
    6333:	5d                   	pop    %rbp
    6334:	c3                   	retq   

0000000000006335 <safe_rshift_func_int8_t_s_s>:
    6335:	f3 0f 1e fa          	endbr64 
    6339:	55                   	push   %rbp
    633a:	48 89 e5             	mov    %rsp,%rbp
    633d:	89 f8                	mov    %edi,%eax
    633f:	89 75 f8             	mov    %esi,-0x8(%rbp)
    6342:	88 45 fc             	mov    %al,-0x4(%rbp)
    6345:	80 7d fc 00          	cmpb   $0x0,-0x4(%rbp)
    6349:	78 1b                	js     6366 <safe_rshift_func_int8_t_s_s+0x31>
    634b:	83 7d f8 00          	cmpl   $0x0,-0x8(%rbp)
    634f:	78 15                	js     6366 <safe_rshift_func_int8_t_s_s+0x31>
    6351:	83 7d f8 1f          	cmpl   $0x1f,-0x8(%rbp)
    6355:	7f 0f                	jg     6366 <safe_rshift_func_int8_t_s_s+0x31>
    6357:	0f be 55 fc          	movsbl -0x4(%rbp),%edx
    635b:	8b 45 f8             	mov    -0x8(%rbp),%eax
    635e:	89 c1                	mov    %eax,%ecx
    6360:	d3 fa                	sar    %cl,%edx
    6362:	89 d0                	mov    %edx,%eax
    6364:	eb 04                	jmp    636a <safe_rshift_func_int8_t_s_s+0x35>
    6366:	0f b6 45 fc          	movzbl -0x4(%rbp),%eax
    636a:	5d                   	pop    %rbp
    636b:	c3                   	retq   

000000000000636c <safe_rshift_func_int8_t_s_u>:
    636c:	f3 0f 1e fa          	endbr64 
    6370:	55                   	push   %rbp
    6371:	48 89 e5             	mov    %rsp,%rbp
    6374:	89 f8                	mov    %edi,%eax
    6376:	89 75 f8             	mov    %esi,-0x8(%rbp)
    6379:	88 45 fc             	mov    %al,-0x4(%rbp)
    637c:	80 7d fc 00          	cmpb   $0x0,-0x4(%rbp)
    6380:	78 15                	js     6397 <safe_rshift_func_int8_t_s_u+0x2b>
    6382:	83 7d f8 1f          	cmpl   $0x1f,-0x8(%rbp)
    6386:	77 0f                	ja     6397 <safe_rshift_func_int8_t_s_u+0x2b>
    6388:	0f be 55 fc          	movsbl -0x4(%rbp),%edx
    638c:	8b 45 f8             	mov    -0x8(%rbp),%eax
    638f:	89 c1                	mov    %eax,%ecx
    6391:	d3 fa                	sar    %cl,%edx
    6393:	89 d0                	mov    %edx,%eax
    6395:	eb 04                	jmp    639b <safe_rshift_func_int8_t_s_u+0x2f>
    6397:	0f b6 45 fc          	movzbl -0x4(%rbp),%eax
    639b:	5d                   	pop    %rbp
    639c:	c3                   	retq   

000000000000639d <safe_unary_minus_func_int16_t_s>:
    639d:	f3 0f 1e fa          	endbr64 
    63a1:	55                   	push   %rbp
    63a2:	48 89 e5             	mov    %rsp,%rbp
    63a5:	89 f8                	mov    %edi,%eax
    63a7:	66 89 45 fc          	mov    %ax,-0x4(%rbp)
    63ab:	0f b7 45 fc          	movzwl -0x4(%rbp),%eax
    63af:	f7 d8                	neg    %eax
    63b1:	5d                   	pop    %rbp
    63b2:	c3                   	retq   

00000000000063b3 <safe_add_func_int16_t_s_s>:
    63b3:	f3 0f 1e fa          	endbr64 
    63b7:	55                   	push   %rbp
    63b8:	48 89 e5             	mov    %rsp,%rbp
    63bb:	89 fa                	mov    %edi,%edx
    63bd:	89 f0                	mov    %esi,%eax
    63bf:	66 89 55 fc          	mov    %dx,-0x4(%rbp)
    63c3:	66 89 45 f8          	mov    %ax,-0x8(%rbp)
    63c7:	0f b7 55 fc          	movzwl -0x4(%rbp),%edx
    63cb:	0f b7 45 f8          	movzwl -0x8(%rbp),%eax
    63cf:	01 d0                	add    %edx,%eax
    63d1:	5d                   	pop    %rbp
    63d2:	c3                   	retq   

00000000000063d3 <safe_sub_func_int16_t_s_s>:
    63d3:	f3 0f 1e fa          	endbr64 
    63d7:	55                   	push   %rbp
    63d8:	48 89 e5             	mov    %rsp,%rbp
    63db:	89 fa                	mov    %edi,%edx
    63dd:	89 f0                	mov    %esi,%eax
    63df:	66 89 55 fc          	mov    %dx,-0x4(%rbp)
    63e3:	66 89 45 f8          	mov    %ax,-0x8(%rbp)
    63e7:	0f b7 55 fc          	movzwl -0x4(%rbp),%edx
    63eb:	0f b7 45 f8          	movzwl -0x8(%rbp),%eax
    63ef:	29 c2                	sub    %eax,%edx
    63f1:	89 d0                	mov    %edx,%eax
    63f3:	5d                   	pop    %rbp
    63f4:	c3                   	retq   

00000000000063f5 <safe_mul_func_int16_t_s_s>:
    63f5:	f3 0f 1e fa          	endbr64 
    63f9:	55                   	push   %rbp
    63fa:	48 89 e5             	mov    %rsp,%rbp
    63fd:	89 fa                	mov    %edi,%edx
    63ff:	89 f0                	mov    %esi,%eax
    6401:	66 89 55 fc          	mov    %dx,-0x4(%rbp)
    6405:	66 89 45 f8          	mov    %ax,-0x8(%rbp)
    6409:	0f b7 55 fc          	movzwl -0x4(%rbp),%edx
    640d:	0f b7 45 f8          	movzwl -0x8(%rbp),%eax
    6411:	0f af c2             	imul   %edx,%eax
    6414:	5d                   	pop    %rbp
    6415:	c3                   	retq   

0000000000006416 <safe_mod_func_int16_t_s_s>:
    6416:	f3 0f 1e fa          	endbr64 
    641a:	55                   	push   %rbp
    641b:	48 89 e5             	mov    %rsp,%rbp
    641e:	89 fa                	mov    %edi,%edx
    6420:	89 f0                	mov    %esi,%eax
    6422:	66 89 55 fc          	mov    %dx,-0x4(%rbp)
    6426:	66 89 45 f8          	mov    %ax,-0x8(%rbp)
    642a:	66 83 7d f8 00       	cmpw   $0x0,-0x8(%rbp)
    642f:	74 1e                	je     644f <safe_mod_func_int16_t_s_s+0x39>
    6431:	66 81 7d fc 00 80    	cmpw   $0x8000,-0x4(%rbp)
    6437:	75 07                	jne    6440 <safe_mod_func_int16_t_s_s+0x2a>
    6439:	66 83 7d f8 ff       	cmpw   $0xffff,-0x8(%rbp)
    643e:	74 0f                	je     644f <safe_mod_func_int16_t_s_s+0x39>
    6440:	0f bf 45 fc          	movswl -0x4(%rbp),%eax
    6444:	0f bf 4d f8          	movswl -0x8(%rbp),%ecx
    6448:	99                   	cltd   
    6449:	f7 f9                	idiv   %ecx
    644b:	89 d0                	mov    %edx,%eax
    644d:	eb 04                	jmp    6453 <safe_mod_func_int16_t_s_s+0x3d>
    644f:	0f b7 45 fc          	movzwl -0x4(%rbp),%eax
    6453:	5d                   	pop    %rbp
    6454:	c3                   	retq   

0000000000006455 <safe_div_func_int16_t_s_s>:
    6455:	f3 0f 1e fa          	endbr64 
    6459:	55                   	push   %rbp
    645a:	48 89 e5             	mov    %rsp,%rbp
    645d:	89 fa                	mov    %edi,%edx
    645f:	89 f0                	mov    %esi,%eax
    6461:	66 89 55 fc          	mov    %dx,-0x4(%rbp)
    6465:	66 89 45 f8          	mov    %ax,-0x8(%rbp)
    6469:	66 83 7d f8 00       	cmpw   $0x0,-0x8(%rbp)
    646e:	74 1c                	je     648c <safe_div_func_int16_t_s_s+0x37>
    6470:	66 81 7d fc 00 80    	cmpw   $0x8000,-0x4(%rbp)
    6476:	75 07                	jne    647f <safe_div_func_int16_t_s_s+0x2a>
    6478:	66 83 7d f8 ff       	cmpw   $0xffff,-0x8(%rbp)
    647d:	74 0d                	je     648c <safe_div_func_int16_t_s_s+0x37>
    647f:	0f bf 45 fc          	movswl -0x4(%rbp),%eax
    6483:	0f bf 4d f8          	movswl -0x8(%rbp),%ecx
    6487:	99                   	cltd   
    6488:	f7 f9                	idiv   %ecx
    648a:	eb 04                	jmp    6490 <safe_div_func_int16_t_s_s+0x3b>
    648c:	0f b7 45 fc          	movzwl -0x4(%rbp),%eax
    6490:	5d                   	pop    %rbp
    6491:	c3                   	retq   

0000000000006492 <safe_lshift_func_int16_t_s_s>:
    6492:	f3 0f 1e fa          	endbr64 
    6496:	55                   	push   %rbp
    6497:	48 89 e5             	mov    %rsp,%rbp
    649a:	89 f8                	mov    %edi,%eax
    649c:	89 75 f8             	mov    %esi,-0x8(%rbp)
    649f:	66 89 45 fc          	mov    %ax,-0x4(%rbp)
    64a3:	66 83 7d fc 00       	cmpw   $0x0,-0x4(%rbp)
    64a8:	78 31                	js     64db <safe_lshift_func_int16_t_s_s+0x49>
    64aa:	83 7d f8 00          	cmpl   $0x0,-0x8(%rbp)
    64ae:	78 2b                	js     64db <safe_lshift_func_int16_t_s_s+0x49>
    64b0:	83 7d f8 1f          	cmpl   $0x1f,-0x8(%rbp)
    64b4:	7f 25                	jg     64db <safe_lshift_func_int16_t_s_s+0x49>
    64b6:	0f bf 55 fc          	movswl -0x4(%rbp),%edx
    64ba:	8b 45 f8             	mov    -0x8(%rbp),%eax
    64bd:	be ff 7f 00 00       	mov    $0x7fff,%esi
    64c2:	89 c1                	mov    %eax,%ecx
    64c4:	d3 fe                	sar    %cl,%esi
    64c6:	89 f0                	mov    %esi,%eax
    64c8:	39 c2                	cmp    %eax,%edx
    64ca:	7f 0f                	jg     64db <safe_lshift_func_int16_t_s_s+0x49>
    64cc:	0f bf 55 fc          	movswl -0x4(%rbp),%edx
    64d0:	8b 45 f8             	mov    -0x8(%rbp),%eax
    64d3:	89 c1                	mov    %eax,%ecx
    64d5:	d3 e2                	shl    %cl,%edx
    64d7:	89 d0                	mov    %edx,%eax
    64d9:	eb 04                	jmp    64df <safe_lshift_func_int16_t_s_s+0x4d>
    64db:	0f b7 45 fc          	movzwl -0x4(%rbp),%eax
    64df:	5d                   	pop    %rbp
    64e0:	c3                   	retq   

00000000000064e1 <safe_lshift_func_int16_t_s_u>:
    64e1:	f3 0f 1e fa          	endbr64 
    64e5:	55                   	push   %rbp
    64e6:	48 89 e5             	mov    %rsp,%rbp
    64e9:	89 f8                	mov    %edi,%eax
    64eb:	89 75 f8             	mov    %esi,-0x8(%rbp)
    64ee:	66 89 45 fc          	mov    %ax,-0x4(%rbp)
    64f2:	66 83 7d fc 00       	cmpw   $0x0,-0x4(%rbp)
    64f7:	78 2b                	js     6524 <safe_lshift_func_int16_t_s_u+0x43>
    64f9:	83 7d f8 1f          	cmpl   $0x1f,-0x8(%rbp)
    64fd:	77 25                	ja     6524 <safe_lshift_func_int16_t_s_u+0x43>
    64ff:	0f bf 55 fc          	movswl -0x4(%rbp),%edx
    6503:	8b 45 f8             	mov    -0x8(%rbp),%eax
    6506:	be ff 7f 00 00       	mov    $0x7fff,%esi
    650b:	89 c1                	mov    %eax,%ecx
    650d:	d3 fe                	sar    %cl,%esi
    650f:	89 f0                	mov    %esi,%eax
    6511:	39 c2                	cmp    %eax,%edx
    6513:	7f 0f                	jg     6524 <safe_lshift_func_int16_t_s_u+0x43>
    6515:	0f bf 55 fc          	movswl -0x4(%rbp),%edx
    6519:	8b 45 f8             	mov    -0x8(%rbp),%eax
    651c:	89 c1                	mov    %eax,%ecx
    651e:	d3 e2                	shl    %cl,%edx
    6520:	89 d0                	mov    %edx,%eax
    6522:	eb 04                	jmp    6528 <safe_lshift_func_int16_t_s_u+0x47>
    6524:	0f b7 45 fc          	movzwl -0x4(%rbp),%eax
    6528:	5d                   	pop    %rbp
    6529:	c3                   	retq   

000000000000652a <safe_rshift_func_int16_t_s_s>:
    652a:	f3 0f 1e fa          	endbr64 
    652e:	55                   	push   %rbp
    652f:	48 89 e5             	mov    %rsp,%rbp
    6532:	89 f8                	mov    %edi,%eax
    6534:	89 75 f8             	mov    %esi,-0x8(%rbp)
    6537:	66 89 45 fc          	mov    %ax,-0x4(%rbp)
    653b:	66 83 7d fc 00       	cmpw   $0x0,-0x4(%rbp)
    6540:	78 1b                	js     655d <safe_rshift_func_int16_t_s_s+0x33>
    6542:	83 7d f8 00          	cmpl   $0x0,-0x8(%rbp)
    6546:	78 15                	js     655d <safe_rshift_func_int16_t_s_s+0x33>
    6548:	83 7d f8 1f          	cmpl   $0x1f,-0x8(%rbp)
    654c:	7f 0f                	jg     655d <safe_rshift_func_int16_t_s_s+0x33>
    654e:	0f bf 55 fc          	movswl -0x4(%rbp),%edx
    6552:	8b 45 f8             	mov    -0x8(%rbp),%eax
    6555:	89 c1                	mov    %eax,%ecx
    6557:	d3 fa                	sar    %cl,%edx
    6559:	89 d0                	mov    %edx,%eax
    655b:	eb 04                	jmp    6561 <safe_rshift_func_int16_t_s_s+0x37>
    655d:	0f b7 45 fc          	movzwl -0x4(%rbp),%eax
    6561:	5d                   	pop    %rbp
    6562:	c3                   	retq   

0000000000006563 <safe_rshift_func_int16_t_s_u>:
    6563:	f3 0f 1e fa          	endbr64 
    6567:	55                   	push   %rbp
    6568:	48 89 e5             	mov    %rsp,%rbp
    656b:	89 f8                	mov    %edi,%eax
    656d:	89 75 f8             	mov    %esi,-0x8(%rbp)
    6570:	66 89 45 fc          	mov    %ax,-0x4(%rbp)
    6574:	66 83 7d fc 00       	cmpw   $0x0,-0x4(%rbp)
    6579:	78 15                	js     6590 <safe_rshift_func_int16_t_s_u+0x2d>
    657b:	83 7d f8 1f          	cmpl   $0x1f,-0x8(%rbp)
    657f:	77 0f                	ja     6590 <safe_rshift_func_int16_t_s_u+0x2d>
    6581:	0f bf 55 fc          	movswl -0x4(%rbp),%edx
    6585:	8b 45 f8             	mov    -0x8(%rbp),%eax
    6588:	89 c1                	mov    %eax,%ecx
    658a:	d3 fa                	sar    %cl,%edx
    658c:	89 d0                	mov    %edx,%eax
    658e:	eb 04                	jmp    6594 <safe_rshift_func_int16_t_s_u+0x31>
    6590:	0f b7 45 fc          	movzwl -0x4(%rbp),%eax
    6594:	5d                   	pop    %rbp
    6595:	c3                   	retq   

0000000000006596 <safe_unary_minus_func_int32_t_s>:
    6596:	f3 0f 1e fa          	endbr64 
    659a:	55                   	push   %rbp
    659b:	48 89 e5             	mov    %rsp,%rbp
    659e:	89 7d fc             	mov    %edi,-0x4(%rbp)
    65a1:	81 7d fc 00 00 00 80 	cmpl   $0x80000000,-0x4(%rbp)
    65a8:	74 07                	je     65b1 <safe_unary_minus_func_int32_t_s+0x1b>
    65aa:	8b 45 fc             	mov    -0x4(%rbp),%eax
    65ad:	f7 d8                	neg    %eax
    65af:	eb 03                	jmp    65b4 <safe_unary_minus_func_int32_t_s+0x1e>
    65b1:	8b 45 fc             	mov    -0x4(%rbp),%eax
    65b4:	5d                   	pop    %rbp
    65b5:	c3                   	retq   

00000000000065b6 <safe_add_func_int32_t_s_s>:
    65b6:	f3 0f 1e fa          	endbr64 
    65ba:	55                   	push   %rbp
    65bb:	48 89 e5             	mov    %rsp,%rbp
    65be:	89 7d fc             	mov    %edi,-0x4(%rbp)
    65c1:	89 75 f8             	mov    %esi,-0x8(%rbp)
    65c4:	83 7d fc 00          	cmpl   $0x0,-0x4(%rbp)
    65c8:	7e 13                	jle    65dd <safe_add_func_int32_t_s_s+0x27>
    65ca:	83 7d f8 00          	cmpl   $0x0,-0x8(%rbp)
    65ce:	7e 0d                	jle    65dd <safe_add_func_int32_t_s_s+0x27>
    65d0:	b8 ff ff ff 7f       	mov    $0x7fffffff,%eax
    65d5:	2b 45 f8             	sub    -0x8(%rbp),%eax
    65d8:	39 45 fc             	cmp    %eax,-0x4(%rbp)
    65db:	7f 23                	jg     6600 <safe_add_func_int32_t_s_s+0x4a>
    65dd:	83 7d fc 00          	cmpl   $0x0,-0x4(%rbp)
    65e1:	79 13                	jns    65f6 <safe_add_func_int32_t_s_s+0x40>
    65e3:	83 7d f8 00          	cmpl   $0x0,-0x8(%rbp)
    65e7:	79 0d                	jns    65f6 <safe_add_func_int32_t_s_s+0x40>
    65e9:	b8 00 00 00 80       	mov    $0x80000000,%eax
    65ee:	2b 45 f8             	sub    -0x8(%rbp),%eax
    65f1:	39 45 fc             	cmp    %eax,-0x4(%rbp)
    65f4:	7c 0a                	jl     6600 <safe_add_func_int32_t_s_s+0x4a>
    65f6:	8b 55 fc             	mov    -0x4(%rbp),%edx
    65f9:	8b 45 f8             	mov    -0x8(%rbp),%eax
    65fc:	01 d0                	add    %edx,%eax
    65fe:	eb 03                	jmp    6603 <safe_add_func_int32_t_s_s+0x4d>
    6600:	8b 45 fc             	mov    -0x4(%rbp),%eax
    6603:	5d                   	pop    %rbp
    6604:	c3                   	retq   

0000000000006605 <safe_sub_func_int32_t_s_s>:
    6605:	f3 0f 1e fa          	endbr64 
    6609:	55                   	push   %rbp
    660a:	48 89 e5             	mov    %rsp,%rbp
    660d:	89 7d fc             	mov    %edi,-0x4(%rbp)
    6610:	89 75 f8             	mov    %esi,-0x8(%rbp)
    6613:	8b 45 fc             	mov    -0x4(%rbp),%eax
    6616:	33 45 f8             	xor    -0x8(%rbp),%eax
    6619:	89 c2                	mov    %eax,%edx
    661b:	8b 45 fc             	mov    -0x4(%rbp),%eax
    661e:	33 45 f8             	xor    -0x8(%rbp),%eax
    6621:	25 00 00 00 80       	and    $0x80000000,%eax
    6626:	33 45 fc             	xor    -0x4(%rbp),%eax
    6629:	2b 45 f8             	sub    -0x8(%rbp),%eax
    662c:	33 45 f8             	xor    -0x8(%rbp),%eax
    662f:	21 d0                	and    %edx,%eax
    6631:	85 c0                	test   %eax,%eax
    6633:	78 08                	js     663d <safe_sub_func_int32_t_s_s+0x38>
    6635:	8b 45 fc             	mov    -0x4(%rbp),%eax
    6638:	2b 45 f8             	sub    -0x8(%rbp),%eax
    663b:	eb 03                	jmp    6640 <safe_sub_func_int32_t_s_s+0x3b>
    663d:	8b 45 fc             	mov    -0x4(%rbp),%eax
    6640:	5d                   	pop    %rbp
    6641:	c3                   	retq   

0000000000006642 <safe_mul_func_int32_t_s_s>:
    6642:	f3 0f 1e fa          	endbr64 
    6646:	55                   	push   %rbp
    6647:	48 89 e5             	mov    %rsp,%rbp
    664a:	89 7d fc             	mov    %edi,-0x4(%rbp)
    664d:	89 75 f8             	mov    %esi,-0x8(%rbp)
    6650:	83 7d fc 00          	cmpl   $0x0,-0x4(%rbp)
    6654:	7e 14                	jle    666a <safe_mul_func_int32_t_s_s+0x28>
    6656:	83 7d f8 00          	cmpl   $0x0,-0x8(%rbp)
    665a:	7e 0e                	jle    666a <safe_mul_func_int32_t_s_s+0x28>
    665c:	b8 ff ff ff 7f       	mov    $0x7fffffff,%eax
    6661:	99                   	cltd   
    6662:	f7 7d f8             	idivl  -0x8(%rbp)
    6665:	39 45 fc             	cmp    %eax,-0x4(%rbp)
    6668:	7f 5d                	jg     66c7 <safe_mul_func_int32_t_s_s+0x85>
    666a:	83 7d fc 00          	cmpl   $0x0,-0x4(%rbp)
    666e:	7e 14                	jle    6684 <safe_mul_func_int32_t_s_s+0x42>
    6670:	83 7d f8 00          	cmpl   $0x0,-0x8(%rbp)
    6674:	7f 0e                	jg     6684 <safe_mul_func_int32_t_s_s+0x42>
    6676:	b8 00 00 00 80       	mov    $0x80000000,%eax
    667b:	99                   	cltd   
    667c:	f7 7d fc             	idivl  -0x4(%rbp)
    667f:	39 45 f8             	cmp    %eax,-0x8(%rbp)
    6682:	7c 43                	jl     66c7 <safe_mul_func_int32_t_s_s+0x85>
    6684:	83 7d fc 00          	cmpl   $0x0,-0x4(%rbp)
    6688:	7f 14                	jg     669e <safe_mul_func_int32_t_s_s+0x5c>
    668a:	83 7d f8 00          	cmpl   $0x0,-0x8(%rbp)
    668e:	7e 0e                	jle    669e <safe_mul_func_int32_t_s_s+0x5c>
    6690:	b8 00 00 00 80       	mov    $0x80000000,%eax
    6695:	99                   	cltd   
    6696:	f7 7d f8             	idivl  -0x8(%rbp)
    6699:	39 45 fc             	cmp    %eax,-0x4(%rbp)
    669c:	7c 29                	jl     66c7 <safe_mul_func_int32_t_s_s+0x85>
    669e:	83 7d fc 00          	cmpl   $0x0,-0x4(%rbp)
    66a2:	7f 1a                	jg     66be <safe_mul_func_int32_t_s_s+0x7c>
    66a4:	83 7d f8 00          	cmpl   $0x0,-0x8(%rbp)
    66a8:	7f 14                	jg     66be <safe_mul_func_int32_t_s_s+0x7c>
    66aa:	83 7d fc 00          	cmpl   $0x0,-0x4(%rbp)
    66ae:	74 0e                	je     66be <safe_mul_func_int32_t_s_s+0x7c>
    66b0:	b8 ff ff ff 7f       	mov    $0x7fffffff,%eax
    66b5:	99                   	cltd   
    66b6:	f7 7d fc             	idivl  -0x4(%rbp)
    66b9:	39 45 f8             	cmp    %eax,-0x8(%rbp)
    66bc:	7c 09                	jl     66c7 <safe_mul_func_int32_t_s_s+0x85>
    66be:	8b 45 fc             	mov    -0x4(%rbp),%eax
    66c1:	0f af 45 f8          	imul   -0x8(%rbp),%eax
    66c5:	eb 03                	jmp    66ca <safe_mul_func_int32_t_s_s+0x88>
    66c7:	8b 45 fc             	mov    -0x4(%rbp),%eax
    66ca:	5d                   	pop    %rbp
    66cb:	c3                   	retq   

00000000000066cc <safe_mod_func_int32_t_s_s>:
    66cc:	f3 0f 1e fa          	endbr64 
    66d0:	55                   	push   %rbp
    66d1:	48 89 e5             	mov    %rsp,%rbp
    66d4:	89 7d fc             	mov    %edi,-0x4(%rbp)
    66d7:	89 75 f8             	mov    %esi,-0x8(%rbp)
    66da:	83 7d f8 00          	cmpl   $0x0,-0x8(%rbp)
    66de:	74 1a                	je     66fa <safe_mod_func_int32_t_s_s+0x2e>
    66e0:	81 7d fc 00 00 00 80 	cmpl   $0x80000000,-0x4(%rbp)
    66e7:	75 06                	jne    66ef <safe_mod_func_int32_t_s_s+0x23>
    66e9:	83 7d f8 ff          	cmpl   $0xffffffff,-0x8(%rbp)
    66ed:	74 0b                	je     66fa <safe_mod_func_int32_t_s_s+0x2e>
    66ef:	8b 45 fc             	mov    -0x4(%rbp),%eax
    66f2:	99                   	cltd   
    66f3:	f7 7d f8             	idivl  -0x8(%rbp)
    66f6:	89 d0                	mov    %edx,%eax
    66f8:	eb 03                	jmp    66fd <safe_mod_func_int32_t_s_s+0x31>
    66fa:	8b 45 fc             	mov    -0x4(%rbp),%eax
    66fd:	5d                   	pop    %rbp
    66fe:	c3                   	retq   

00000000000066ff <safe_div_func_int32_t_s_s>:
    66ff:	f3 0f 1e fa          	endbr64 
    6703:	55                   	push   %rbp
    6704:	48 89 e5             	mov    %rsp,%rbp
    6707:	89 7d fc             	mov    %edi,-0x4(%rbp)
    670a:	89 75 f8             	mov    %esi,-0x8(%rbp)
    670d:	83 7d f8 00          	cmpl   $0x0,-0x8(%rbp)
    6711:	74 18                	je     672b <safe_div_func_int32_t_s_s+0x2c>
    6713:	81 7d fc 00 00 00 80 	cmpl   $0x80000000,-0x4(%rbp)
    671a:	75 06                	jne    6722 <safe_div_func_int32_t_s_s+0x23>
    671c:	83 7d f8 ff          	cmpl   $0xffffffff,-0x8(%rbp)
    6720:	74 09                	je     672b <safe_div_func_int32_t_s_s+0x2c>
    6722:	8b 45 fc             	mov    -0x4(%rbp),%eax
    6725:	99                   	cltd   
    6726:	f7 7d f8             	idivl  -0x8(%rbp)
    6729:	eb 03                	jmp    672e <safe_div_func_int32_t_s_s+0x2f>
    672b:	8b 45 fc             	mov    -0x4(%rbp),%eax
    672e:	5d                   	pop    %rbp
    672f:	c3                   	retq   

0000000000006730 <safe_lshift_func_int32_t_s_s>:
    6730:	f3 0f 1e fa          	endbr64 
    6734:	55                   	push   %rbp
    6735:	48 89 e5             	mov    %rsp,%rbp
    6738:	89 7d fc             	mov    %edi,-0x4(%rbp)
    673b:	89 75 f8             	mov    %esi,-0x8(%rbp)
    673e:	83 7d fc 00          	cmpl   $0x0,-0x4(%rbp)
    6742:	78 2d                	js     6771 <safe_lshift_func_int32_t_s_s+0x41>
    6744:	83 7d f8 00          	cmpl   $0x0,-0x8(%rbp)
    6748:	78 27                	js     6771 <safe_lshift_func_int32_t_s_s+0x41>
    674a:	83 7d f8 1f          	cmpl   $0x1f,-0x8(%rbp)
    674e:	7f 21                	jg     6771 <safe_lshift_func_int32_t_s_s+0x41>
    6750:	8b 45 f8             	mov    -0x8(%rbp),%eax
    6753:	ba ff ff ff 7f       	mov    $0x7fffffff,%edx
    6758:	89 c1                	mov    %eax,%ecx
    675a:	d3 fa                	sar    %cl,%edx
    675c:	89 d0                	mov    %edx,%eax
    675e:	39 45 fc             	cmp    %eax,-0x4(%rbp)
    6761:	7f 0e                	jg     6771 <safe_lshift_func_int32_t_s_s+0x41>
    6763:	8b 45 f8             	mov    -0x8(%rbp),%eax
    6766:	8b 55 fc             	mov    -0x4(%rbp),%edx
    6769:	89 c1                	mov    %eax,%ecx
    676b:	d3 e2                	shl    %cl,%edx
    676d:	89 d0                	mov    %edx,%eax
    676f:	eb 03                	jmp    6774 <safe_lshift_func_int32_t_s_s+0x44>
    6771:	8b 45 fc             	mov    -0x4(%rbp),%eax
    6774:	5d                   	pop    %rbp
    6775:	c3                   	retq   

0000000000006776 <safe_lshift_func_int32_t_s_u>:
    6776:	f3 0f 1e fa          	endbr64 
    677a:	55                   	push   %rbp
    677b:	48 89 e5             	mov    %rsp,%rbp
    677e:	89 7d fc             	mov    %edi,-0x4(%rbp)
    6781:	89 75 f8             	mov    %esi,-0x8(%rbp)
    6784:	83 7d fc 00          	cmpl   $0x0,-0x4(%rbp)
    6788:	78 27                	js     67b1 <safe_lshift_func_int32_t_s_u+0x3b>
    678a:	83 7d f8 1f          	cmpl   $0x1f,-0x8(%rbp)
    678e:	77 21                	ja     67b1 <safe_lshift_func_int32_t_s_u+0x3b>
    6790:	8b 45 f8             	mov    -0x8(%rbp),%eax
    6793:	ba ff ff ff 7f       	mov    $0x7fffffff,%edx
    6798:	89 c1                	mov    %eax,%ecx
    679a:	d3 fa                	sar    %cl,%edx
    679c:	89 d0                	mov    %edx,%eax
    679e:	39 45 fc             	cmp    %eax,-0x4(%rbp)
    67a1:	7f 0e                	jg     67b1 <safe_lshift_func_int32_t_s_u+0x3b>
    67a3:	8b 45 f8             	mov    -0x8(%rbp),%eax
    67a6:	8b 55 fc             	mov    -0x4(%rbp),%edx
    67a9:	89 c1                	mov    %eax,%ecx
    67ab:	d3 e2                	shl    %cl,%edx
    67ad:	89 d0                	mov    %edx,%eax
    67af:	eb 03                	jmp    67b4 <safe_lshift_func_int32_t_s_u+0x3e>
    67b1:	8b 45 fc             	mov    -0x4(%rbp),%eax
    67b4:	5d                   	pop    %rbp
    67b5:	c3                   	retq   

00000000000067b6 <safe_rshift_func_int32_t_s_s>:
    67b6:	f3 0f 1e fa          	endbr64 
    67ba:	55                   	push   %rbp
    67bb:	48 89 e5             	mov    %rsp,%rbp
    67be:	89 7d fc             	mov    %edi,-0x4(%rbp)
    67c1:	89 75 f8             	mov    %esi,-0x8(%rbp)
    67c4:	83 7d fc 00          	cmpl   $0x0,-0x4(%rbp)
    67c8:	78 1a                	js     67e4 <safe_rshift_func_int32_t_s_s+0x2e>
    67ca:	83 7d f8 00          	cmpl   $0x0,-0x8(%rbp)
    67ce:	78 14                	js     67e4 <safe_rshift_func_int32_t_s_s+0x2e>
    67d0:	83 7d f8 1f          	cmpl   $0x1f,-0x8(%rbp)
    67d4:	7f 0e                	jg     67e4 <safe_rshift_func_int32_t_s_s+0x2e>
    67d6:	8b 45 f8             	mov    -0x8(%rbp),%eax
    67d9:	8b 55 fc             	mov    -0x4(%rbp),%edx
    67dc:	89 c1                	mov    %eax,%ecx
    67de:	d3 fa                	sar    %cl,%edx
    67e0:	89 d0                	mov    %edx,%eax
    67e2:	eb 03                	jmp    67e7 <safe_rshift_func_int32_t_s_s+0x31>
    67e4:	8b 45 fc             	mov    -0x4(%rbp),%eax
    67e7:	5d                   	pop    %rbp
    67e8:	c3                   	retq   

00000000000067e9 <safe_rshift_func_int32_t_s_u>:
    67e9:	f3 0f 1e fa          	endbr64 
    67ed:	55                   	push   %rbp
    67ee:	48 89 e5             	mov    %rsp,%rbp
    67f1:	89 7d fc             	mov    %edi,-0x4(%rbp)
    67f4:	89 75 f8             	mov    %esi,-0x8(%rbp)
    67f7:	83 7d fc 00          	cmpl   $0x0,-0x4(%rbp)
    67fb:	78 14                	js     6811 <safe_rshift_func_int32_t_s_u+0x28>
    67fd:	83 7d f8 1f          	cmpl   $0x1f,-0x8(%rbp)
    6801:	77 0e                	ja     6811 <safe_rshift_func_int32_t_s_u+0x28>
    6803:	8b 45 f8             	mov    -0x8(%rbp),%eax
    6806:	8b 55 fc             	mov    -0x4(%rbp),%edx
    6809:	89 c1                	mov    %eax,%ecx
    680b:	d3 fa                	sar    %cl,%edx
    680d:	89 d0                	mov    %edx,%eax
    680f:	eb 03                	jmp    6814 <safe_rshift_func_int32_t_s_u+0x2b>
    6811:	8b 45 fc             	mov    -0x4(%rbp),%eax
    6814:	5d                   	pop    %rbp
    6815:	c3                   	retq   

0000000000006816 <safe_unary_minus_func_int64_t_s>:
    6816:	f3 0f 1e fa          	endbr64 
    681a:	55                   	push   %rbp
    681b:	48 89 e5             	mov    %rsp,%rbp
    681e:	48 89 7d f8          	mov    %rdi,-0x8(%rbp)
    6822:	48 b8 00 00 00 00 00 	movabs $0x8000000000000000,%rax
    6829:	00 00 80 
    682c:	48 39 45 f8          	cmp    %rax,-0x8(%rbp)
    6830:	74 09                	je     683b <safe_unary_minus_func_int64_t_s+0x25>
    6832:	48 8b 45 f8          	mov    -0x8(%rbp),%rax
    6836:	48 f7 d8             	neg    %rax
    6839:	eb 04                	jmp    683f <safe_unary_minus_func_int64_t_s+0x29>
    683b:	48 8b 45 f8          	mov    -0x8(%rbp),%rax
    683f:	5d                   	pop    %rbp
    6840:	c3                   	retq   

0000000000006841 <safe_add_func_int64_t_s_s>:
    6841:	f3 0f 1e fa          	endbr64 
    6845:	55                   	push   %rbp
    6846:	48 89 e5             	mov    %rsp,%rbp
    6849:	48 89 7d f8          	mov    %rdi,-0x8(%rbp)
    684d:	48 89 75 f0          	mov    %rsi,-0x10(%rbp)
    6851:	48 83 7d f8 00       	cmpq   $0x0,-0x8(%rbp)
    6856:	7e 1b                	jle    6873 <safe_add_func_int64_t_s_s+0x32>
    6858:	48 83 7d f0 00       	cmpq   $0x0,-0x10(%rbp)
    685d:	7e 14                	jle    6873 <safe_add_func_int64_t_s_s+0x32>
    685f:	48 b8 ff ff ff ff ff 	movabs $0x7fffffffffffffff,%rax
    6866:	ff ff 7f 
    6869:	48 2b 45 f0          	sub    -0x10(%rbp),%rax
    686d:	48 39 45 f8          	cmp    %rax,-0x8(%rbp)
    6871:	7f 2f                	jg     68a2 <safe_add_func_int64_t_s_s+0x61>
    6873:	48 83 7d f8 00       	cmpq   $0x0,-0x8(%rbp)
    6878:	79 1b                	jns    6895 <safe_add_func_int64_t_s_s+0x54>
    687a:	48 83 7d f0 00       	cmpq   $0x0,-0x10(%rbp)
    687f:	79 14                	jns    6895 <safe_add_func_int64_t_s_s+0x54>
    6881:	48 b8 00 00 00 00 00 	movabs $0x8000000000000000,%rax
    6888:	00 00 80 
    688b:	48 2b 45 f0          	sub    -0x10(%rbp),%rax
    688f:	48 39 45 f8          	cmp    %rax,-0x8(%rbp)
    6893:	7c 0d                	jl     68a2 <safe_add_func_int64_t_s_s+0x61>
    6895:	48 8b 55 f8          	mov    -0x8(%rbp),%rdx
    6899:	48 8b 45 f0          	mov    -0x10(%rbp),%rax
    689d:	48 01 d0             	add    %rdx,%rax
    68a0:	eb 04                	jmp    68a6 <safe_add_func_int64_t_s_s+0x65>
    68a2:	48 8b 45 f8          	mov    -0x8(%rbp),%rax
    68a6:	5d                   	pop    %rbp
    68a7:	c3                   	retq   

00000000000068a8 <safe_sub_func_int64_t_s_s>:
    68a8:	f3 0f 1e fa          	endbr64 
    68ac:	55                   	push   %rbp
    68ad:	48 89 e5             	mov    %rsp,%rbp
    68b0:	48 89 7d f8          	mov    %rdi,-0x8(%rbp)
    68b4:	48 89 75 f0          	mov    %rsi,-0x10(%rbp)
    68b8:	48 8b 45 f8          	mov    -0x8(%rbp),%rax
    68bc:	48 33 45 f0          	xor    -0x10(%rbp),%rax
    68c0:	48 89 c2             	mov    %rax,%rdx
    68c3:	48 8b 45 f8          	mov    -0x8(%rbp),%rax
    68c7:	48 33 45 f0          	xor    -0x10(%rbp),%rax
    68cb:	48 b9 00 00 00 00 00 	movabs $0x8000000000000000,%rcx
    68d2:	00 00 80 
    68d5:	48 21 c8             	and    %rcx,%rax
    68d8:	48 33 45 f8          	xor    -0x8(%rbp),%rax
    68dc:	48 2b 45 f0          	sub    -0x10(%rbp),%rax
    68e0:	48 33 45 f0          	xor    -0x10(%rbp),%rax
    68e4:	48 21 d0             	and    %rdx,%rax
    68e7:	48 85 c0             	test   %rax,%rax
    68ea:	78 0a                	js     68f6 <safe_sub_func_int64_t_s_s+0x4e>
    68ec:	48 8b 45 f8          	mov    -0x8(%rbp),%rax
    68f0:	48 2b 45 f0          	sub    -0x10(%rbp),%rax
    68f4:	eb 04                	jmp    68fa <safe_sub_func_int64_t_s_s+0x52>
    68f6:	48 8b 45 f8          	mov    -0x8(%rbp),%rax
    68fa:	5d                   	pop    %rbp
    68fb:	c3                   	retq   

00000000000068fc <safe_mul_func_int64_t_s_s>:
    68fc:	f3 0f 1e fa          	endbr64 
    6900:	55                   	push   %rbp
    6901:	48 89 e5             	mov    %rsp,%rbp
    6904:	48 89 7d f8          	mov    %rdi,-0x8(%rbp)
    6908:	48 89 75 f0          	mov    %rsi,-0x10(%rbp)
    690c:	48 83 7d f8 00       	cmpq   $0x0,-0x8(%rbp)
    6911:	7e 1d                	jle    6930 <safe_mul_func_int64_t_s_s+0x34>
    6913:	48 83 7d f0 00       	cmpq   $0x0,-0x10(%rbp)
    6918:	7e 16                	jle    6930 <safe_mul_func_int64_t_s_s+0x34>
    691a:	48 b8 ff ff ff ff ff 	movabs $0x7fffffffffffffff,%rax
    6921:	ff ff 7f 
    6924:	48 99                	cqto   
    6926:	48 f7 7d f0          	idivq  -0x10(%rbp)
    692a:	48 39 45 f8          	cmp    %rax,-0x8(%rbp)
    692e:	7f 7e                	jg     69ae <safe_mul_func_int64_t_s_s+0xb2>
    6930:	48 83 7d f8 00       	cmpq   $0x0,-0x8(%rbp)
    6935:	7e 1d                	jle    6954 <safe_mul_func_int64_t_s_s+0x58>
    6937:	48 83 7d f0 00       	cmpq   $0x0,-0x10(%rbp)
    693c:	7f 16                	jg     6954 <safe_mul_func_int64_t_s_s+0x58>
    693e:	48 b8 00 00 00 00 00 	movabs $0x8000000000000000,%rax
    6945:	00 00 80 
    6948:	48 99                	cqto   
    694a:	48 f7 7d f8          	idivq  -0x8(%rbp)
    694e:	48 39 45 f0          	cmp    %rax,-0x10(%rbp)
    6952:	7c 5a                	jl     69ae <safe_mul_func_int64_t_s_s+0xb2>
    6954:	48 83 7d f8 00       	cmpq   $0x0,-0x8(%rbp)
    6959:	7f 1d                	jg     6978 <safe_mul_func_int64_t_s_s+0x7c>
    695b:	48 83 7d f0 00       	cmpq   $0x0,-0x10(%rbp)
    6960:	7e 16                	jle    6978 <safe_mul_func_int64_t_s_s+0x7c>
    6962:	48 b8 00 00 00 00 00 	movabs $0x8000000000000000,%rax
    6969:	00 00 80 
    696c:	48 99                	cqto   
    696e:	48 f7 7d f0          	idivq  -0x10(%rbp)
    6972:	48 39 45 f8          	cmp    %rax,-0x8(%rbp)
    6976:	7c 36                	jl     69ae <safe_mul_func_int64_t_s_s+0xb2>
    6978:	48 83 7d f8 00       	cmpq   $0x0,-0x8(%rbp)
    697d:	7f 24                	jg     69a3 <safe_mul_func_int64_t_s_s+0xa7>
    697f:	48 83 7d f0 00       	cmpq   $0x0,-0x10(%rbp)
    6984:	7f 1d                	jg     69a3 <safe_mul_func_int64_t_s_s+0xa7>
    6986:	48 83 7d f8 00       	cmpq   $0x0,-0x8(%rbp)
    698b:	74 16                	je     69a3 <safe_mul_func_int64_t_s_s+0xa7>
    698d:	48 b8 ff ff ff ff ff 	movabs $0x7fffffffffffffff,%rax
    6994:	ff ff 7f 
    6997:	48 99                	cqto   
    6999:	48 f7 7d f8          	idivq  -0x8(%rbp)
    699d:	48 39 45 f0          	cmp    %rax,-0x10(%rbp)
    69a1:	7c 0b                	jl     69ae <safe_mul_func_int64_t_s_s+0xb2>
    69a3:	48 8b 45 f8          	mov    -0x8(%rbp),%rax
    69a7:	48 0f af 45 f0       	imul   -0x10(%rbp),%rax
    69ac:	eb 04                	jmp    69b2 <safe_mul_func_int64_t_s_s+0xb6>
    69ae:	48 8b 45 f8          	mov    -0x8(%rbp),%rax
    69b2:	5d                   	pop    %rbp
    69b3:	c3                   	retq   

00000000000069b4 <safe_mod_func_int64_t_s_s>:
    69b4:	f3 0f 1e fa          	endbr64 
    69b8:	55                   	push   %rbp
    69b9:	48 89 e5             	mov    %rsp,%rbp
    69bc:	48 89 7d f8          	mov    %rdi,-0x8(%rbp)
    69c0:	48 89 75 f0          	mov    %rsi,-0x10(%rbp)
    69c4:	48 83 7d f0 00       	cmpq   $0x0,-0x10(%rbp)
    69c9:	74 26                	je     69f1 <safe_mod_func_int64_t_s_s+0x3d>
    69cb:	48 b8 00 00 00 00 00 	movabs $0x8000000000000000,%rax
    69d2:	00 00 80 
    69d5:	48 39 45 f8          	cmp    %rax,-0x8(%rbp)
    69d9:	75 07                	jne    69e2 <safe_mod_func_int64_t_s_s+0x2e>
    69db:	48 83 7d f0 ff       	cmpq   $0xffffffffffffffff,-0x10(%rbp)
    69e0:	74 0f                	je     69f1 <safe_mod_func_int64_t_s_s+0x3d>
    69e2:	48 8b 45 f8          	mov    -0x8(%rbp),%rax
    69e6:	48 99                	cqto   
    69e8:	48 f7 7d f0          	idivq  -0x10(%rbp)
    69ec:	48 89 d0             	mov    %rdx,%rax
    69ef:	eb 04                	jmp    69f5 <safe_mod_func_int64_t_s_s+0x41>
    69f1:	48 8b 45 f8          	mov    -0x8(%rbp),%rax
    69f5:	5d                   	pop    %rbp
    69f6:	c3                   	retq   

00000000000069f7 <safe_div_func_int64_t_s_s>:
    69f7:	f3 0f 1e fa          	endbr64 
    69fb:	55                   	push   %rbp
    69fc:	48 89 e5             	mov    %rsp,%rbp
    69ff:	48 89 7d f8          	mov    %rdi,-0x8(%rbp)
    6a03:	48 89 75 f0          	mov    %rsi,-0x10(%rbp)
    6a07:	48 83 7d f0 00       	cmpq   $0x0,-0x10(%rbp)
    6a0c:	74 23                	je     6a31 <safe_div_func_int64_t_s_s+0x3a>
    6a0e:	48 b8 00 00 00 00 00 	movabs $0x8000000000000000,%rax
    6a15:	00 00 80 
    6a18:	48 39 45 f8          	cmp    %rax,-0x8(%rbp)
    6a1c:	75 07                	jne    6a25 <safe_div_func_int64_t_s_s+0x2e>
    6a1e:	48 83 7d f0 ff       	cmpq   $0xffffffffffffffff,-0x10(%rbp)
    6a23:	74 0c                	je     6a31 <safe_div_func_int64_t_s_s+0x3a>
    6a25:	48 8b 45 f8          	mov    -0x8(%rbp),%rax
    6a29:	48 99                	cqto   
    6a2b:	48 f7 7d f0          	idivq  -0x10(%rbp)
    6a2f:	eb 04                	jmp    6a35 <safe_div_func_int64_t_s_s+0x3e>
    6a31:	48 8b 45 f8          	mov    -0x8(%rbp),%rax
    6a35:	5d                   	pop    %rbp
    6a36:	c3                   	retq   

0000000000006a37 <safe_lshift_func_int64_t_s_s>:
    6a37:	f3 0f 1e fa          	endbr64 
    6a3b:	55                   	push   %rbp
    6a3c:	48 89 e5             	mov    %rsp,%rbp
    6a3f:	48 89 7d f8          	mov    %rdi,-0x8(%rbp)
    6a43:	89 75 f4             	mov    %esi,-0xc(%rbp)
    6a46:	48 83 7d f8 00       	cmpq   $0x0,-0x8(%rbp)
    6a4b:	78 38                	js     6a85 <safe_lshift_func_int64_t_s_s+0x4e>
    6a4d:	83 7d f4 00          	cmpl   $0x0,-0xc(%rbp)
    6a51:	78 32                	js     6a85 <safe_lshift_func_int64_t_s_s+0x4e>
    6a53:	83 7d f4 1f          	cmpl   $0x1f,-0xc(%rbp)
    6a57:	7f 2c                	jg     6a85 <safe_lshift_func_int64_t_s_s+0x4e>
    6a59:	8b 45 f4             	mov    -0xc(%rbp),%eax
    6a5c:	48 ba ff ff ff ff ff 	movabs $0x7fffffffffffffff,%rdx
    6a63:	ff ff 7f 
    6a66:	89 c1                	mov    %eax,%ecx
    6a68:	48 d3 fa             	sar    %cl,%rdx
    6a6b:	48 89 d0             	mov    %rdx,%rax
    6a6e:	48 39 45 f8          	cmp    %rax,-0x8(%rbp)
    6a72:	7f 11                	jg     6a85 <safe_lshift_func_int64_t_s_s+0x4e>
    6a74:	8b 45 f4             	mov    -0xc(%rbp),%eax
    6a77:	48 8b 55 f8          	mov    -0x8(%rbp),%rdx
    6a7b:	89 c1                	mov    %eax,%ecx
    6a7d:	48 d3 e2             	shl    %cl,%rdx
    6a80:	48 89 d0             	mov    %rdx,%rax
    6a83:	eb 04                	jmp    6a89 <safe_lshift_func_int64_t_s_s+0x52>
    6a85:	48 8b 45 f8          	mov    -0x8(%rbp),%rax
    6a89:	5d                   	pop    %rbp
    6a8a:	c3                   	retq   

0000000000006a8b <safe_lshift_func_int64_t_s_u>:
    6a8b:	f3 0f 1e fa          	endbr64 
    6a8f:	55                   	push   %rbp
    6a90:	48 89 e5             	mov    %rsp,%rbp
    6a93:	48 89 7d f8          	mov    %rdi,-0x8(%rbp)
    6a97:	89 75 f4             	mov    %esi,-0xc(%rbp)
    6a9a:	48 83 7d f8 00       	cmpq   $0x0,-0x8(%rbp)
    6a9f:	78 32                	js     6ad3 <safe_lshift_func_int64_t_s_u+0x48>
    6aa1:	83 7d f4 1f          	cmpl   $0x1f,-0xc(%rbp)
    6aa5:	77 2c                	ja     6ad3 <safe_lshift_func_int64_t_s_u+0x48>
    6aa7:	8b 45 f4             	mov    -0xc(%rbp),%eax
    6aaa:	48 ba ff ff ff ff ff 	movabs $0x7fffffffffffffff,%rdx
    6ab1:	ff ff 7f 
    6ab4:	89 c1                	mov    %eax,%ecx
    6ab6:	48 d3 fa             	sar    %cl,%rdx
    6ab9:	48 89 d0             	mov    %rdx,%rax
    6abc:	48 39 45 f8          	cmp    %rax,-0x8(%rbp)
    6ac0:	7f 11                	jg     6ad3 <safe_lshift_func_int64_t_s_u+0x48>
    6ac2:	8b 45 f4             	mov    -0xc(%rbp),%eax
    6ac5:	48 8b 55 f8          	mov    -0x8(%rbp),%rdx
    6ac9:	89 c1                	mov    %eax,%ecx
    6acb:	48 d3 e2             	shl    %cl,%rdx
    6ace:	48 89 d0             	mov    %rdx,%rax
    6ad1:	eb 04                	jmp    6ad7 <safe_lshift_func_int64_t_s_u+0x4c>
    6ad3:	48 8b 45 f8          	mov    -0x8(%rbp),%rax
    6ad7:	5d                   	pop    %rbp
    6ad8:	c3                   	retq   

0000000000006ad9 <safe_rshift_func_int64_t_s_s>:
    6ad9:	f3 0f 1e fa          	endbr64 
    6add:	55                   	push   %rbp
    6ade:	48 89 e5             	mov    %rsp,%rbp
    6ae1:	48 89 7d f8          	mov    %rdi,-0x8(%rbp)
    6ae5:	89 75 f4             	mov    %esi,-0xc(%rbp)
    6ae8:	48 83 7d f8 00       	cmpq   $0x0,-0x8(%rbp)
    6aed:	78 1d                	js     6b0c <safe_rshift_func_int64_t_s_s+0x33>
    6aef:	83 7d f4 00          	cmpl   $0x0,-0xc(%rbp)
    6af3:	78 17                	js     6b0c <safe_rshift_func_int64_t_s_s+0x33>
    6af5:	83 7d f4 1f          	cmpl   $0x1f,-0xc(%rbp)
    6af9:	7f 11                	jg     6b0c <safe_rshift_func_int64_t_s_s+0x33>
    6afb:	8b 45 f4             	mov    -0xc(%rbp),%eax
    6afe:	48 8b 55 f8          	mov    -0x8(%rbp),%rdx
    6b02:	89 c1                	mov    %eax,%ecx
    6b04:	48 d3 fa             	sar    %cl,%rdx
    6b07:	48 89 d0             	mov    %rdx,%rax
    6b0a:	eb 04                	jmp    6b10 <safe_rshift_func_int64_t_s_s+0x37>
    6b0c:	48 8b 45 f8          	mov    -0x8(%rbp),%rax
    6b10:	5d                   	pop    %rbp
    6b11:	c3                   	retq   

0000000000006b12 <safe_rshift_func_int64_t_s_u>:
    6b12:	f3 0f 1e fa          	endbr64 
    6b16:	55                   	push   %rbp
    6b17:	48 89 e5             	mov    %rsp,%rbp
    6b1a:	48 89 7d f8          	mov    %rdi,-0x8(%rbp)
    6b1e:	89 75 f4             	mov    %esi,-0xc(%rbp)
    6b21:	48 83 7d f8 00       	cmpq   $0x0,-0x8(%rbp)
    6b26:	78 17                	js     6b3f <safe_rshift_func_int64_t_s_u+0x2d>
    6b28:	83 7d f4 1f          	cmpl   $0x1f,-0xc(%rbp)
    6b2c:	77 11                	ja     6b3f <safe_rshift_func_int64_t_s_u+0x2d>
    6b2e:	8b 45 f4             	mov    -0xc(%rbp),%eax
    6b31:	48 8b 55 f8          	mov    -0x8(%rbp),%rdx
    6b35:	89 c1                	mov    %eax,%ecx
    6b37:	48 d3 fa             	sar    %cl,%rdx
    6b3a:	48 89 d0             	mov    %rdx,%rax
    6b3d:	eb 04                	jmp    6b43 <safe_rshift_func_int64_t_s_u+0x31>
    6b3f:	48 8b 45 f8          	mov    -0x8(%rbp),%rax
    6b43:	5d                   	pop    %rbp
    6b44:	c3                   	retq   

0000000000006b45 <safe_unary_minus_func_uint8_t_u>:
    6b45:	f3 0f 1e fa          	endbr64 
    6b49:	55                   	push   %rbp
    6b4a:	48 89 e5             	mov    %rsp,%rbp
    6b4d:	89 f8                	mov    %edi,%eax
    6b4f:	88 45 fc             	mov    %al,-0x4(%rbp)
    6b52:	0f b6 45 fc          	movzbl -0x4(%rbp),%eax
    6b56:	f7 d8                	neg    %eax
    6b58:	5d                   	pop    %rbp
    6b59:	c3                   	retq   

0000000000006b5a <safe_add_func_uint8_t_u_u>:
    6b5a:	f3 0f 1e fa          	endbr64 
    6b5e:	55                   	push   %rbp
    6b5f:	48 89 e5             	mov    %rsp,%rbp
    6b62:	89 fa                	mov    %edi,%edx
    6b64:	89 f0                	mov    %esi,%eax
    6b66:	88 55 fc             	mov    %dl,-0x4(%rbp)
    6b69:	88 45 f8             	mov    %al,-0x8(%rbp)
    6b6c:	0f b6 55 fc          	movzbl -0x4(%rbp),%edx
    6b70:	0f b6 45 f8          	movzbl -0x8(%rbp),%eax
    6b74:	01 d0                	add    %edx,%eax
    6b76:	5d                   	pop    %rbp
    6b77:	c3                   	retq   

0000000000006b78 <safe_sub_func_uint8_t_u_u>:
    6b78:	f3 0f 1e fa          	endbr64 
    6b7c:	55                   	push   %rbp
    6b7d:	48 89 e5             	mov    %rsp,%rbp
    6b80:	89 fa                	mov    %edi,%edx
    6b82:	89 f0                	mov    %esi,%eax
    6b84:	88 55 fc             	mov    %dl,-0x4(%rbp)
    6b87:	88 45 f8             	mov    %al,-0x8(%rbp)
    6b8a:	0f b6 45 fc          	movzbl -0x4(%rbp),%eax
    6b8e:	2a 45 f8             	sub    -0x8(%rbp),%al
    6b91:	5d                   	pop    %rbp
    6b92:	c3                   	retq   

0000000000006b93 <safe_mul_func_uint8_t_u_u>:
    6b93:	f3 0f 1e fa          	endbr64 
    6b97:	55                   	push   %rbp
    6b98:	48 89 e5             	mov    %rsp,%rbp
    6b9b:	89 fa                	mov    %edi,%edx
    6b9d:	89 f0                	mov    %esi,%eax
    6b9f:	88 55 fc             	mov    %dl,-0x4(%rbp)
    6ba2:	88 45 f8             	mov    %al,-0x8(%rbp)
    6ba5:	0f b6 45 fc          	movzbl -0x4(%rbp),%eax
    6ba9:	f6 65 f8             	mulb   -0x8(%rbp)
    6bac:	5d                   	pop    %rbp
    6bad:	c3                   	retq   

0000000000006bae <safe_mod_func_uint8_t_u_u>:
    6bae:	f3 0f 1e fa          	endbr64 
    6bb2:	55                   	push   %rbp
    6bb3:	48 89 e5             	mov    %rsp,%rbp
    6bb6:	89 fa                	mov    %edi,%edx
    6bb8:	89 f0                	mov    %esi,%eax
    6bba:	88 55 fc             	mov    %dl,-0x4(%rbp)
    6bbd:	88 45 f8             	mov    %al,-0x8(%rbp)
    6bc0:	80 7d f8 00          	cmpb   $0x0,-0x8(%rbp)
    6bc4:	74 0f                	je     6bd5 <safe_mod_func_uint8_t_u_u+0x27>
    6bc6:	0f b6 45 fc          	movzbl -0x4(%rbp),%eax
    6bca:	0f b6 c0             	movzbl %al,%eax
    6bcd:	f6 75 f8             	divb   -0x8(%rbp)
    6bd0:	0f b6 c4             	movzbl %ah,%eax
    6bd3:	eb 04                	jmp    6bd9 <safe_mod_func_uint8_t_u_u+0x2b>
    6bd5:	0f b6 45 fc          	movzbl -0x4(%rbp),%eax
    6bd9:	5d                   	pop    %rbp
    6bda:	c3                   	retq   

0000000000006bdb <safe_div_func_uint8_t_u_u>:
    6bdb:	f3 0f 1e fa          	endbr64 
    6bdf:	55                   	push   %rbp
    6be0:	48 89 e5             	mov    %rsp,%rbp
    6be3:	89 fa                	mov    %edi,%edx
    6be5:	89 f0                	mov    %esi,%eax
    6be7:	88 55 fc             	mov    %dl,-0x4(%rbp)
    6bea:	88 45 f8             	mov    %al,-0x8(%rbp)
    6bed:	80 7d f8 00          	cmpb   $0x0,-0x8(%rbp)
    6bf1:	74 0c                	je     6bff <safe_div_func_uint8_t_u_u+0x24>
    6bf3:	0f b6 45 fc          	movzbl -0x4(%rbp),%eax
    6bf7:	0f b6 c0             	movzbl %al,%eax
    6bfa:	f6 75 f8             	divb   -0x8(%rbp)
    6bfd:	eb 04                	jmp    6c03 <safe_div_func_uint8_t_u_u+0x28>
    6bff:	0f b6 45 fc          	movzbl -0x4(%rbp),%eax
    6c03:	5d                   	pop    %rbp
    6c04:	c3                   	retq   

0000000000006c05 <safe_lshift_func_uint8_t_u_s>:
    6c05:	f3 0f 1e fa          	endbr64 
    6c09:	55                   	push   %rbp
    6c0a:	48 89 e5             	mov    %rsp,%rbp
    6c0d:	89 f8                	mov    %edi,%eax
    6c0f:	89 75 f8             	mov    %esi,-0x8(%rbp)
    6c12:	88 45 fc             	mov    %al,-0x4(%rbp)
    6c15:	83 7d f8 00          	cmpl   $0x0,-0x8(%rbp)
    6c19:	78 2b                	js     6c46 <safe_lshift_func_uint8_t_u_s+0x41>
    6c1b:	83 7d f8 1f          	cmpl   $0x1f,-0x8(%rbp)
    6c1f:	7f 25                	jg     6c46 <safe_lshift_func_uint8_t_u_s+0x41>
    6c21:	0f b6 55 fc          	movzbl -0x4(%rbp),%edx
    6c25:	8b 45 f8             	mov    -0x8(%rbp),%eax
    6c28:	be ff 00 00 00       	mov    $0xff,%esi
    6c2d:	89 c1                	mov    %eax,%ecx
    6c2f:	d3 fe                	sar    %cl,%esi
    6c31:	89 f0                	mov    %esi,%eax
    6c33:	39 c2                	cmp    %eax,%edx
    6c35:	7f 0f                	jg     6c46 <safe_lshift_func_uint8_t_u_s+0x41>
    6c37:	0f b6 55 fc          	movzbl -0x4(%rbp),%edx
    6c3b:	8b 45 f8             	mov    -0x8(%rbp),%eax
    6c3e:	89 c1                	mov    %eax,%ecx
    6c40:	d3 e2                	shl    %cl,%edx
    6c42:	89 d0                	mov    %edx,%eax
    6c44:	eb 04                	jmp    6c4a <safe_lshift_func_uint8_t_u_s+0x45>
    6c46:	0f b6 45 fc          	movzbl -0x4(%rbp),%eax
    6c4a:	5d                   	pop    %rbp
    6c4b:	c3                   	retq   

0000000000006c4c <safe_lshift_func_uint8_t_u_u>:
    6c4c:	f3 0f 1e fa          	endbr64 
    6c50:	55                   	push   %rbp
    6c51:	48 89 e5             	mov    %rsp,%rbp
    6c54:	89 f8                	mov    %edi,%eax
    6c56:	89 75 f8             	mov    %esi,-0x8(%rbp)
    6c59:	88 45 fc             	mov    %al,-0x4(%rbp)
    6c5c:	83 7d f8 1f          	cmpl   $0x1f,-0x8(%rbp)
    6c60:	77 25                	ja     6c87 <safe_lshift_func_uint8_t_u_u+0x3b>
    6c62:	0f b6 55 fc          	movzbl -0x4(%rbp),%edx
    6c66:	8b 45 f8             	mov    -0x8(%rbp),%eax
    6c69:	be ff 00 00 00       	mov    $0xff,%esi
    6c6e:	89 c1                	mov    %eax,%ecx
    6c70:	d3 fe                	sar    %cl,%esi
    6c72:	89 f0                	mov    %esi,%eax
    6c74:	39 c2                	cmp    %eax,%edx
    6c76:	7f 0f                	jg     6c87 <safe_lshift_func_uint8_t_u_u+0x3b>
    6c78:	0f b6 55 fc          	movzbl -0x4(%rbp),%edx
    6c7c:	8b 45 f8             	mov    -0x8(%rbp),%eax
    6c7f:	89 c1                	mov    %eax,%ecx
    6c81:	d3 e2                	shl    %cl,%edx
    6c83:	89 d0                	mov    %edx,%eax
    6c85:	eb 04                	jmp    6c8b <safe_lshift_func_uint8_t_u_u+0x3f>
    6c87:	0f b6 45 fc          	movzbl -0x4(%rbp),%eax
    6c8b:	5d                   	pop    %rbp
    6c8c:	c3                   	retq   

0000000000006c8d <safe_rshift_func_uint8_t_u_s>:
    6c8d:	f3 0f 1e fa          	endbr64 
    6c91:	55                   	push   %rbp
    6c92:	48 89 e5             	mov    %rsp,%rbp
    6c95:	89 f8                	mov    %edi,%eax
    6c97:	89 75 f8             	mov    %esi,-0x8(%rbp)
    6c9a:	88 45 fc             	mov    %al,-0x4(%rbp)
    6c9d:	83 7d f8 00          	cmpl   $0x0,-0x8(%rbp)
    6ca1:	78 15                	js     6cb8 <safe_rshift_func_uint8_t_u_s+0x2b>
    6ca3:	83 7d f8 1f          	cmpl   $0x1f,-0x8(%rbp)
    6ca7:	7f 0f                	jg     6cb8 <safe_rshift_func_uint8_t_u_s+0x2b>
    6ca9:	0f b6 55 fc          	movzbl -0x4(%rbp),%edx
    6cad:	8b 45 f8             	mov    -0x8(%rbp),%eax
    6cb0:	89 c1                	mov    %eax,%ecx
    6cb2:	d3 fa                	sar    %cl,%edx
    6cb4:	89 d0                	mov    %edx,%eax
    6cb6:	eb 04                	jmp    6cbc <safe_rshift_func_uint8_t_u_s+0x2f>
    6cb8:	0f b6 45 fc          	movzbl -0x4(%rbp),%eax
    6cbc:	5d                   	pop    %rbp
    6cbd:	c3                   	retq   

0000000000006cbe <safe_rshift_func_uint8_t_u_u>:
    6cbe:	f3 0f 1e fa          	endbr64 
    6cc2:	55                   	push   %rbp
    6cc3:	48 89 e5             	mov    %rsp,%rbp
    6cc6:	89 f8                	mov    %edi,%eax
    6cc8:	89 75 f8             	mov    %esi,-0x8(%rbp)
    6ccb:	88 45 fc             	mov    %al,-0x4(%rbp)
    6cce:	83 7d f8 1f          	cmpl   $0x1f,-0x8(%rbp)
    6cd2:	77 0f                	ja     6ce3 <safe_rshift_func_uint8_t_u_u+0x25>
    6cd4:	0f b6 55 fc          	movzbl -0x4(%rbp),%edx
    6cd8:	8b 45 f8             	mov    -0x8(%rbp),%eax
    6cdb:	89 c1                	mov    %eax,%ecx
    6cdd:	d3 fa                	sar    %cl,%edx
    6cdf:	89 d0                	mov    %edx,%eax
    6ce1:	eb 04                	jmp    6ce7 <safe_rshift_func_uint8_t_u_u+0x29>
    6ce3:	0f b6 45 fc          	movzbl -0x4(%rbp),%eax
    6ce7:	5d                   	pop    %rbp
    6ce8:	c3                   	retq   

0000000000006ce9 <safe_unary_minus_func_uint16_t_u>:
    6ce9:	f3 0f 1e fa          	endbr64 
    6ced:	55                   	push   %rbp
    6cee:	48 89 e5             	mov    %rsp,%rbp
    6cf1:	89 f8                	mov    %edi,%eax
    6cf3:	66 89 45 fc          	mov    %ax,-0x4(%rbp)
    6cf7:	0f b7 45 fc          	movzwl -0x4(%rbp),%eax
    6cfb:	f7 d8                	neg    %eax
    6cfd:	5d                   	pop    %rbp
    6cfe:	c3                   	retq   

0000000000006cff <safe_add_func_uint16_t_u_u>:
    6cff:	f3 0f 1e fa          	endbr64 
    6d03:	55                   	push   %rbp
    6d04:	48 89 e5             	mov    %rsp,%rbp
    6d07:	89 fa                	mov    %edi,%edx
    6d09:	89 f0                	mov    %esi,%eax
    6d0b:	66 89 55 fc          	mov    %dx,-0x4(%rbp)
    6d0f:	66 89 45 f8          	mov    %ax,-0x8(%rbp)
    6d13:	0f b7 55 fc          	movzwl -0x4(%rbp),%edx
    6d17:	0f b7 45 f8          	movzwl -0x8(%rbp),%eax
    6d1b:	01 d0                	add    %edx,%eax
    6d1d:	5d                   	pop    %rbp
    6d1e:	c3                   	retq   

0000000000006d1f <safe_sub_func_uint16_t_u_u>:
    6d1f:	f3 0f 1e fa          	endbr64 
    6d23:	55                   	push   %rbp
    6d24:	48 89 e5             	mov    %rsp,%rbp
    6d27:	89 fa                	mov    %edi,%edx
    6d29:	89 f0                	mov    %esi,%eax
    6d2b:	66 89 55 fc          	mov    %dx,-0x4(%rbp)
    6d2f:	66 89 45 f8          	mov    %ax,-0x8(%rbp)
    6d33:	0f b7 45 fc          	movzwl -0x4(%rbp),%eax
    6d37:	66 2b 45 f8          	sub    -0x8(%rbp),%ax
    6d3b:	5d                   	pop    %rbp
    6d3c:	c3                   	retq   

0000000000006d3d <safe_mul_func_uint16_t_u_u>:
    6d3d:	f3 0f 1e fa          	endbr64 
    6d41:	55                   	push   %rbp
    6d42:	48 89 e5             	mov    %rsp,%rbp
    6d45:	89 fa                	mov    %edi,%edx
    6d47:	89 f0                	mov    %esi,%eax
    6d49:	66 89 55 fc          	mov    %dx,-0x4(%rbp)
    6d4d:	66 89 45 f8          	mov    %ax,-0x8(%rbp)
    6d51:	0f b7 45 fc          	movzwl -0x4(%rbp),%eax
    6d55:	66 0f af 45 f8       	imul   -0x8(%rbp),%ax
    6d5a:	5d                   	pop    %rbp
    6d5b:	c3                   	retq   

0000000000006d5c <safe_mod_func_uint16_t_u_u>:
    6d5c:	f3 0f 1e fa          	endbr64 
    6d60:	55                   	push   %rbp
    6d61:	48 89 e5             	mov    %rsp,%rbp
    6d64:	89 fa                	mov    %edi,%edx
    6d66:	89 f0                	mov    %esi,%eax
    6d68:	66 89 55 fc          	mov    %dx,-0x4(%rbp)
    6d6c:	66 89 45 f8          	mov    %ax,-0x8(%rbp)
    6d70:	66 83 7d f8 00       	cmpw   $0x0,-0x8(%rbp)
    6d75:	74 11                	je     6d88 <safe_mod_func_uint16_t_u_u+0x2c>
    6d77:	0f b7 45 fc          	movzwl -0x4(%rbp),%eax
    6d7b:	ba 00 00 00 00       	mov    $0x0,%edx
    6d80:	66 f7 75 f8          	divw   -0x8(%rbp)
    6d84:	89 d0                	mov    %edx,%eax
    6d86:	eb 04                	jmp    6d8c <safe_mod_func_uint16_t_u_u+0x30>
    6d88:	0f b7 45 fc          	movzwl -0x4(%rbp),%eax
    6d8c:	5d                   	pop    %rbp
    6d8d:	c3                   	retq   

0000000000006d8e <safe_div_func_uint16_t_u_u>:
    6d8e:	f3 0f 1e fa          	endbr64 
    6d92:	55                   	push   %rbp
    6d93:	48 89 e5             	mov    %rsp,%rbp
    6d96:	89 fa                	mov    %edi,%edx
    6d98:	89 f0                	mov    %esi,%eax
    6d9a:	66 89 55 fc          	mov    %dx,-0x4(%rbp)
    6d9e:	66 89 45 f8          	mov    %ax,-0x8(%rbp)
    6da2:	66 83 7d f8 00       	cmpw   $0x0,-0x8(%rbp)
    6da7:	74 0f                	je     6db8 <safe_div_func_uint16_t_u_u+0x2a>
    6da9:	0f b7 45 fc          	movzwl -0x4(%rbp),%eax
    6dad:	ba 00 00 00 00       	mov    $0x0,%edx
    6db2:	66 f7 75 f8          	divw   -0x8(%rbp)
    6db6:	eb 04                	jmp    6dbc <safe_div_func_uint16_t_u_u+0x2e>
    6db8:	0f b7 45 fc          	movzwl -0x4(%rbp),%eax
    6dbc:	5d                   	pop    %rbp
    6dbd:	c3                   	retq   

0000000000006dbe <safe_lshift_func_uint16_t_u_s>:
    6dbe:	f3 0f 1e fa          	endbr64 
    6dc2:	55                   	push   %rbp
    6dc3:	48 89 e5             	mov    %rsp,%rbp
    6dc6:	89 f8                	mov    %edi,%eax
    6dc8:	89 75 f8             	mov    %esi,-0x8(%rbp)
    6dcb:	66 89 45 fc          	mov    %ax,-0x4(%rbp)
    6dcf:	83 7d f8 00          	cmpl   $0x0,-0x8(%rbp)
    6dd3:	78 2b                	js     6e00 <safe_lshift_func_uint16_t_u_s+0x42>
    6dd5:	83 7d f8 1f          	cmpl   $0x1f,-0x8(%rbp)
    6dd9:	7f 25                	jg     6e00 <safe_lshift_func_uint16_t_u_s+0x42>
    6ddb:	0f b7 55 fc          	movzwl -0x4(%rbp),%edx
    6ddf:	8b 45 f8             	mov    -0x8(%rbp),%eax
    6de2:	be ff ff 00 00       	mov    $0xffff,%esi
    6de7:	89 c1                	mov    %eax,%ecx
    6de9:	d3 fe                	sar    %cl,%esi
    6deb:	89 f0                	mov    %esi,%eax
    6ded:	39 c2                	cmp    %eax,%edx
    6def:	7f 0f                	jg     6e00 <safe_lshift_func_uint16_t_u_s+0x42>
    6df1:	0f b7 55 fc          	movzwl -0x4(%rbp),%edx
    6df5:	8b 45 f8             	mov    -0x8(%rbp),%eax
    6df8:	89 c1                	mov    %eax,%ecx
    6dfa:	d3 e2                	shl    %cl,%edx
    6dfc:	89 d0                	mov    %edx,%eax
    6dfe:	eb 04                	jmp    6e04 <safe_lshift_func_uint16_t_u_s+0x46>
    6e00:	0f b7 45 fc          	movzwl -0x4(%rbp),%eax
    6e04:	5d                   	pop    %rbp
    6e05:	c3                   	retq   

0000000000006e06 <safe_lshift_func_uint16_t_u_u>:
    6e06:	f3 0f 1e fa          	endbr64 
    6e0a:	55                   	push   %rbp
    6e0b:	48 89 e5             	mov    %rsp,%rbp
    6e0e:	89 f8                	mov    %edi,%eax
    6e10:	89 75 f8             	mov    %esi,-0x8(%rbp)
    6e13:	66 89 45 fc          	mov    %ax,-0x4(%rbp)
    6e17:	83 7d f8 1f          	cmpl   $0x1f,-0x8(%rbp)
    6e1b:	77 25                	ja     6e42 <safe_lshift_func_uint16_t_u_u+0x3c>
    6e1d:	0f b7 55 fc          	movzwl -0x4(%rbp),%edx
    6e21:	8b 45 f8             	mov    -0x8(%rbp),%eax
    6e24:	be ff ff 00 00       	mov    $0xffff,%esi
    6e29:	89 c1                	mov    %eax,%ecx
    6e2b:	d3 fe                	sar    %cl,%esi
    6e2d:	89 f0                	mov    %esi,%eax
    6e2f:	39 c2                	cmp    %eax,%edx
    6e31:	7f 0f                	jg     6e42 <safe_lshift_func_uint16_t_u_u+0x3c>
    6e33:	0f b7 55 fc          	movzwl -0x4(%rbp),%edx
    6e37:	8b 45 f8             	mov    -0x8(%rbp),%eax
    6e3a:	89 c1                	mov    %eax,%ecx
    6e3c:	d3 e2                	shl    %cl,%edx
    6e3e:	89 d0                	mov    %edx,%eax
    6e40:	eb 04                	jmp    6e46 <safe_lshift_func_uint16_t_u_u+0x40>
    6e42:	0f b7 45 fc          	movzwl -0x4(%rbp),%eax
    6e46:	5d                   	pop    %rbp
    6e47:	c3                   	retq   

0000000000006e48 <safe_rshift_func_uint16_t_u_s>:
    6e48:	f3 0f 1e fa          	endbr64 
    6e4c:	55                   	push   %rbp
    6e4d:	48 89 e5             	mov    %rsp,%rbp
    6e50:	89 f8                	mov    %edi,%eax
    6e52:	89 75 f8             	mov    %esi,-0x8(%rbp)
    6e55:	66 89 45 fc          	mov    %ax,-0x4(%rbp)
    6e59:	83 7d f8 00          	cmpl   $0x0,-0x8(%rbp)
    6e5d:	78 15                	js     6e74 <safe_rshift_func_uint16_t_u_s+0x2c>
    6e5f:	83 7d f8 1f          	cmpl   $0x1f,-0x8(%rbp)
    6e63:	7f 0f                	jg     6e74 <safe_rshift_func_uint16_t_u_s+0x2c>
    6e65:	0f b7 55 fc          	movzwl -0x4(%rbp),%edx
    6e69:	8b 45 f8             	mov    -0x8(%rbp),%eax
    6e6c:	89 c1                	mov    %eax,%ecx
    6e6e:	d3 fa                	sar    %cl,%edx
    6e70:	89 d0                	mov    %edx,%eax
    6e72:	eb 04                	jmp    6e78 <safe_rshift_func_uint16_t_u_s+0x30>
    6e74:	0f b7 45 fc          	movzwl -0x4(%rbp),%eax
    6e78:	5d                   	pop    %rbp
    6e79:	c3                   	retq   

0000000000006e7a <safe_rshift_func_uint16_t_u_u>:
    6e7a:	f3 0f 1e fa          	endbr64 
    6e7e:	55                   	push   %rbp
    6e7f:	48 89 e5             	mov    %rsp,%rbp
    6e82:	89 f8                	mov    %edi,%eax
    6e84:	89 75 f8             	mov    %esi,-0x8(%rbp)
    6e87:	66 89 45 fc          	mov    %ax,-0x4(%rbp)
    6e8b:	83 7d f8 1f          	cmpl   $0x1f,-0x8(%rbp)
    6e8f:	77 0f                	ja     6ea0 <safe_rshift_func_uint16_t_u_u+0x26>
    6e91:	0f b7 55 fc          	movzwl -0x4(%rbp),%edx
    6e95:	8b 45 f8             	mov    -0x8(%rbp),%eax
    6e98:	89 c1                	mov    %eax,%ecx
    6e9a:	d3 fa                	sar    %cl,%edx
    6e9c:	89 d0                	mov    %edx,%eax
    6e9e:	eb 04                	jmp    6ea4 <safe_rshift_func_uint16_t_u_u+0x2a>
    6ea0:	0f b7 45 fc          	movzwl -0x4(%rbp),%eax
    6ea4:	5d                   	pop    %rbp
    6ea5:	c3                   	retq   

0000000000006ea6 <safe_unary_minus_func_uint32_t_u>:
    6ea6:	f3 0f 1e fa          	endbr64 
    6eaa:	55                   	push   %rbp
    6eab:	48 89 e5             	mov    %rsp,%rbp
    6eae:	89 7d fc             	mov    %edi,-0x4(%rbp)
    6eb1:	8b 45 fc             	mov    -0x4(%rbp),%eax
    6eb4:	f7 d8                	neg    %eax
    6eb6:	5d                   	pop    %rbp
    6eb7:	c3                   	retq   

0000000000006eb8 <safe_add_func_uint32_t_u_u>:
    6eb8:	f3 0f 1e fa          	endbr64 
    6ebc:	55                   	push   %rbp
    6ebd:	48 89 e5             	mov    %rsp,%rbp
    6ec0:	89 7d fc             	mov    %edi,-0x4(%rbp)
    6ec3:	89 75 f8             	mov    %esi,-0x8(%rbp)
    6ec6:	8b 55 fc             	mov    -0x4(%rbp),%edx
    6ec9:	8b 45 f8             	mov    -0x8(%rbp),%eax
    6ecc:	01 d0                	add    %edx,%eax
    6ece:	5d                   	pop    %rbp
    6ecf:	c3                   	retq   

0000000000006ed0 <safe_sub_func_uint32_t_u_u>:
    6ed0:	f3 0f 1e fa          	endbr64 
    6ed4:	55                   	push   %rbp
    6ed5:	48 89 e5             	mov    %rsp,%rbp
    6ed8:	89 7d fc             	mov    %edi,-0x4(%rbp)
    6edb:	89 75 f8             	mov    %esi,-0x8(%rbp)
    6ede:	8b 45 fc             	mov    -0x4(%rbp),%eax
    6ee1:	2b 45 f8             	sub    -0x8(%rbp),%eax
    6ee4:	5d                   	pop    %rbp
    6ee5:	c3                   	retq   

0000000000006ee6 <safe_mul_func_uint32_t_u_u>:
    6ee6:	f3 0f 1e fa          	endbr64 
    6eea:	55                   	push   %rbp
    6eeb:	48 89 e5             	mov    %rsp,%rbp
    6eee:	89 7d fc             	mov    %edi,-0x4(%rbp)
    6ef1:	89 75 f8             	mov    %esi,-0x8(%rbp)
    6ef4:	8b 45 fc             	mov    -0x4(%rbp),%eax
    6ef7:	0f af 45 f8          	imul   -0x8(%rbp),%eax
    6efb:	5d                   	pop    %rbp
    6efc:	c3                   	retq   

0000000000006efd <safe_mod_func_uint32_t_u_u>:
    6efd:	f3 0f 1e fa          	endbr64 
    6f01:	55                   	push   %rbp
    6f02:	48 89 e5             	mov    %rsp,%rbp
    6f05:	89 7d fc             	mov    %edi,-0x4(%rbp)
    6f08:	89 75 f8             	mov    %esi,-0x8(%rbp)
    6f0b:	83 7d f8 00          	cmpl   $0x0,-0x8(%rbp)
    6f0f:	74 0f                	je     6f20 <safe_mod_func_uint32_t_u_u+0x23>
    6f11:	8b 45 fc             	mov    -0x4(%rbp),%eax
    6f14:	ba 00 00 00 00       	mov    $0x0,%edx
    6f19:	f7 75 f8             	divl   -0x8(%rbp)
    6f1c:	89 d0                	mov    %edx,%eax
    6f1e:	eb 03                	jmp    6f23 <safe_mod_func_uint32_t_u_u+0x26>
    6f20:	8b 45 fc             	mov    -0x4(%rbp),%eax
    6f23:	5d                   	pop    %rbp
    6f24:	c3                   	retq   

0000000000006f25 <safe_div_func_uint32_t_u_u>:
    6f25:	f3 0f 1e fa          	endbr64 
    6f29:	55                   	push   %rbp
    6f2a:	48 89 e5             	mov    %rsp,%rbp
    6f2d:	89 7d fc             	mov    %edi,-0x4(%rbp)
    6f30:	89 75 f8             	mov    %esi,-0x8(%rbp)
    6f33:	83 7d f8 00          	cmpl   $0x0,-0x8(%rbp)
    6f37:	74 0d                	je     6f46 <safe_div_func_uint32_t_u_u+0x21>
    6f39:	8b 45 fc             	mov    -0x4(%rbp),%eax
    6f3c:	ba 00 00 00 00       	mov    $0x0,%edx
    6f41:	f7 75 f8             	divl   -0x8(%rbp)
    6f44:	eb 03                	jmp    6f49 <safe_div_func_uint32_t_u_u+0x24>
    6f46:	8b 45 fc             	mov    -0x4(%rbp),%eax
    6f49:	5d                   	pop    %rbp
    6f4a:	c3                   	retq   

0000000000006f4b <safe_lshift_func_uint32_t_u_s>:
    6f4b:	f3 0f 1e fa          	endbr64 
    6f4f:	55                   	push   %rbp
    6f50:	48 89 e5             	mov    %rsp,%rbp
    6f53:	89 7d fc             	mov    %edi,-0x4(%rbp)
    6f56:	89 75 f8             	mov    %esi,-0x8(%rbp)
    6f59:	83 7d f8 00          	cmpl   $0x0,-0x8(%rbp)
    6f5d:	78 27                	js     6f86 <safe_lshift_func_uint32_t_u_s+0x3b>
    6f5f:	83 7d f8 1f          	cmpl   $0x1f,-0x8(%rbp)
    6f63:	7f 21                	jg     6f86 <safe_lshift_func_uint32_t_u_s+0x3b>
    6f65:	8b 45 f8             	mov    -0x8(%rbp),%eax
    6f68:	ba ff ff ff ff       	mov    $0xffffffff,%edx
    6f6d:	89 c1                	mov    %eax,%ecx
    6f6f:	d3 ea                	shr    %cl,%edx
    6f71:	89 d0                	mov    %edx,%eax
    6f73:	39 45 fc             	cmp    %eax,-0x4(%rbp)
    6f76:	77 0e                	ja     6f86 <safe_lshift_func_uint32_t_u_s+0x3b>
    6f78:	8b 45 f8             	mov    -0x8(%rbp),%eax
    6f7b:	8b 55 fc             	mov    -0x4(%rbp),%edx
    6f7e:	89 c1                	mov    %eax,%ecx
    6f80:	d3 e2                	shl    %cl,%edx
    6f82:	89 d0                	mov    %edx,%eax
    6f84:	eb 03                	jmp    6f89 <safe_lshift_func_uint32_t_u_s+0x3e>
    6f86:	8b 45 fc             	mov    -0x4(%rbp),%eax
    6f89:	5d                   	pop    %rbp
    6f8a:	c3                   	retq   

0000000000006f8b <safe_lshift_func_uint32_t_u_u>:
    6f8b:	f3 0f 1e fa          	endbr64 
    6f8f:	55                   	push   %rbp
    6f90:	48 89 e5             	mov    %rsp,%rbp
    6f93:	89 7d fc             	mov    %edi,-0x4(%rbp)
    6f96:	89 75 f8             	mov    %esi,-0x8(%rbp)
    6f99:	83 7d f8 1f          	cmpl   $0x1f,-0x8(%rbp)
    6f9d:	77 21                	ja     6fc0 <safe_lshift_func_uint32_t_u_u+0x35>
    6f9f:	8b 45 f8             	mov    -0x8(%rbp),%eax
    6fa2:	ba ff ff ff ff       	mov    $0xffffffff,%edx
    6fa7:	89 c1                	mov    %eax,%ecx
    6fa9:	d3 ea                	shr    %cl,%edx
    6fab:	89 d0                	mov    %edx,%eax
    6fad:	39 45 fc             	cmp    %eax,-0x4(%rbp)
    6fb0:	77 0e                	ja     6fc0 <safe_lshift_func_uint32_t_u_u+0x35>
    6fb2:	8b 45 f8             	mov    -0x8(%rbp),%eax
    6fb5:	8b 55 fc             	mov    -0x4(%rbp),%edx
    6fb8:	89 c1                	mov    %eax,%ecx
    6fba:	d3 e2                	shl    %cl,%edx
    6fbc:	89 d0                	mov    %edx,%eax
    6fbe:	eb 03                	jmp    6fc3 <safe_lshift_func_uint32_t_u_u+0x38>
    6fc0:	8b 45 fc             	mov    -0x4(%rbp),%eax
    6fc3:	5d                   	pop    %rbp
    6fc4:	c3                   	retq   

0000000000006fc5 <safe_rshift_func_uint32_t_u_s>:
    6fc5:	f3 0f 1e fa          	endbr64 
    6fc9:	55                   	push   %rbp
    6fca:	48 89 e5             	mov    %rsp,%rbp
    6fcd:	89 7d fc             	mov    %edi,-0x4(%rbp)
    6fd0:	89 75 f8             	mov    %esi,-0x8(%rbp)
    6fd3:	83 7d f8 00          	cmpl   $0x0,-0x8(%rbp)
    6fd7:	78 14                	js     6fed <safe_rshift_func_uint32_t_u_s+0x28>
    6fd9:	83 7d f8 1f          	cmpl   $0x1f,-0x8(%rbp)
    6fdd:	7f 0e                	jg     6fed <safe_rshift_func_uint32_t_u_s+0x28>
    6fdf:	8b 45 f8             	mov    -0x8(%rbp),%eax
    6fe2:	8b 55 fc             	mov    -0x4(%rbp),%edx
    6fe5:	89 c1                	mov    %eax,%ecx
    6fe7:	d3 ea                	shr    %cl,%edx
    6fe9:	89 d0                	mov    %edx,%eax
    6feb:	eb 03                	jmp    6ff0 <safe_rshift_func_uint32_t_u_s+0x2b>
    6fed:	8b 45 fc             	mov    -0x4(%rbp),%eax
    6ff0:	5d                   	pop    %rbp
    6ff1:	c3                   	retq   

0000000000006ff2 <safe_rshift_func_uint32_t_u_u>:
    6ff2:	f3 0f 1e fa          	endbr64 
    6ff6:	55                   	push   %rbp
    6ff7:	48 89 e5             	mov    %rsp,%rbp
    6ffa:	89 7d fc             	mov    %edi,-0x4(%rbp)
    6ffd:	89 75 f8             	mov    %esi,-0x8(%rbp)
    7000:	83 7d f8 1f          	cmpl   $0x1f,-0x8(%rbp)
    7004:	77 0e                	ja     7014 <safe_rshift_func_uint32_t_u_u+0x22>
    7006:	8b 45 f8             	mov    -0x8(%rbp),%eax
    7009:	8b 55 fc             	mov    -0x4(%rbp),%edx
    700c:	89 c1                	mov    %eax,%ecx
    700e:	d3 ea                	shr    %cl,%edx
    7010:	89 d0                	mov    %edx,%eax
    7012:	eb 03                	jmp    7017 <safe_rshift_func_uint32_t_u_u+0x25>
    7014:	8b 45 fc             	mov    -0x4(%rbp),%eax
    7017:	5d                   	pop    %rbp
    7018:	c3                   	retq   

0000000000007019 <safe_unary_minus_func_uint64_t_u>:
    7019:	f3 0f 1e fa          	endbr64 
    701d:	55                   	push   %rbp
    701e:	48 89 e5             	mov    %rsp,%rbp
    7021:	48 89 7d f8          	mov    %rdi,-0x8(%rbp)
    7025:	48 8b 45 f8          	mov    -0x8(%rbp),%rax
    7029:	48 f7 d8             	neg    %rax
    702c:	5d                   	pop    %rbp
    702d:	c3                   	retq   

000000000000702e <safe_add_func_uint64_t_u_u>:
    702e:	f3 0f 1e fa          	endbr64 
    7032:	55                   	push   %rbp
    7033:	48 89 e5             	mov    %rsp,%rbp
    7036:	48 89 7d f8          	mov    %rdi,-0x8(%rbp)
    703a:	48 89 75 f0          	mov    %rsi,-0x10(%rbp)
    703e:	48 8b 55 f8          	mov    -0x8(%rbp),%rdx
    7042:	48 8b 45 f0          	mov    -0x10(%rbp),%rax
    7046:	48 01 d0             	add    %rdx,%rax
    7049:	5d                   	pop    %rbp
    704a:	c3                   	retq   

000000000000704b <safe_sub_func_uint64_t_u_u>:
    704b:	f3 0f 1e fa          	endbr64 
    704f:	55                   	push   %rbp
    7050:	48 89 e5             	mov    %rsp,%rbp
    7053:	48 89 7d f8          	mov    %rdi,-0x8(%rbp)
    7057:	48 89 75 f0          	mov    %rsi,-0x10(%rbp)
    705b:	48 8b 45 f8          	mov    -0x8(%rbp),%rax
    705f:	48 2b 45 f0          	sub    -0x10(%rbp),%rax
    7063:	5d                   	pop    %rbp
    7064:	c3                   	retq   

0000000000007065 <safe_mul_func_uint64_t_u_u>:
    7065:	f3 0f 1e fa          	endbr64 
    7069:	55                   	push   %rbp
    706a:	48 89 e5             	mov    %rsp,%rbp
    706d:	48 89 7d f8          	mov    %rdi,-0x8(%rbp)
    7071:	48 89 75 f0          	mov    %rsi,-0x10(%rbp)
    7075:	48 8b 45 f8          	mov    -0x8(%rbp),%rax
    7079:	48 0f af 45 f0       	imul   -0x10(%rbp),%rax
    707e:	5d                   	pop    %rbp
    707f:	c3                   	retq   

0000000000007080 <safe_mod_func_uint64_t_u_u>:
    7080:	f3 0f 1e fa          	endbr64 
    7084:	55                   	push   %rbp
    7085:	48 89 e5             	mov    %rsp,%rbp
    7088:	48 89 7d f8          	mov    %rdi,-0x8(%rbp)
    708c:	48 89 75 f0          	mov    %rsi,-0x10(%rbp)
    7090:	48 83 7d f0 00       	cmpq   $0x0,-0x10(%rbp)
    7095:	74 12                	je     70a9 <safe_mod_func_uint64_t_u_u+0x29>
    7097:	48 8b 45 f8          	mov    -0x8(%rbp),%rax
    709b:	ba 00 00 00 00       	mov    $0x0,%edx
    70a0:	48 f7 75 f0          	divq   -0x10(%rbp)
    70a4:	48 89 d0             	mov    %rdx,%rax
    70a7:	eb 04                	jmp    70ad <safe_mod_func_uint64_t_u_u+0x2d>
    70a9:	48 8b 45 f8          	mov    -0x8(%rbp),%rax
    70ad:	5d                   	pop    %rbp
    70ae:	c3                   	retq   

00000000000070af <safe_div_func_uint64_t_u_u>:
    70af:	f3 0f 1e fa          	endbr64 
    70b3:	55                   	push   %rbp
    70b4:	48 89 e5             	mov    %rsp,%rbp
    70b7:	48 89 7d f8          	mov    %rdi,-0x8(%rbp)
    70bb:	48 89 75 f0          	mov    %rsi,-0x10(%rbp)
    70bf:	48 83 7d f0 00       	cmpq   $0x0,-0x10(%rbp)
    70c4:	74 0f                	je     70d5 <safe_div_func_uint64_t_u_u+0x26>
    70c6:	48 8b 45 f8          	mov    -0x8(%rbp),%rax
    70ca:	ba 00 00 00 00       	mov    $0x0,%edx
    70cf:	48 f7 75 f0          	divq   -0x10(%rbp)
    70d3:	eb 04                	jmp    70d9 <safe_div_func_uint64_t_u_u+0x2a>
    70d5:	48 8b 45 f8          	mov    -0x8(%rbp),%rax
    70d9:	5d                   	pop    %rbp
    70da:	c3                   	retq   

00000000000070db <safe_lshift_func_uint64_t_u_s>:
    70db:	f3 0f 1e fa          	endbr64 
    70df:	55                   	push   %rbp
    70e0:	48 89 e5             	mov    %rsp,%rbp
    70e3:	48 89 7d f8          	mov    %rdi,-0x8(%rbp)
    70e7:	89 75 f4             	mov    %esi,-0xc(%rbp)
    70ea:	83 7d f4 00          	cmpl   $0x0,-0xc(%rbp)
    70ee:	78 2f                	js     711f <safe_lshift_func_uint64_t_u_s+0x44>
    70f0:	83 7d f4 1f          	cmpl   $0x1f,-0xc(%rbp)
    70f4:	7f 29                	jg     711f <safe_lshift_func_uint64_t_u_s+0x44>
    70f6:	8b 45 f4             	mov    -0xc(%rbp),%eax
    70f9:	48 c7 c2 ff ff ff ff 	mov    $0xffffffffffffffff,%rdx
    7100:	89 c1                	mov    %eax,%ecx
    7102:	48 d3 ea             	shr    %cl,%rdx
    7105:	48 89 d0             	mov    %rdx,%rax
    7108:	48 39 45 f8          	cmp    %rax,-0x8(%rbp)
    710c:	77 11                	ja     711f <safe_lshift_func_uint64_t_u_s+0x44>
    710e:	8b 45 f4             	mov    -0xc(%rbp),%eax
    7111:	48 8b 55 f8          	mov    -0x8(%rbp),%rdx
    7115:	89 c1                	mov    %eax,%ecx
    7117:	48 d3 e2             	shl    %cl,%rdx
    711a:	48 89 d0             	mov    %rdx,%rax
    711d:	eb 04                	jmp    7123 <safe_lshift_func_uint64_t_u_s+0x48>
    711f:	48 8b 45 f8          	mov    -0x8(%rbp),%rax
    7123:	5d                   	pop    %rbp
    7124:	c3                   	retq   

0000000000007125 <safe_lshift_func_uint64_t_u_u>:
    7125:	f3 0f 1e fa          	endbr64 
    7129:	55                   	push   %rbp
    712a:	48 89 e5             	mov    %rsp,%rbp
    712d:	48 89 7d f8          	mov    %rdi,-0x8(%rbp)
    7131:	89 75 f4             	mov    %esi,-0xc(%rbp)
    7134:	83 7d f4 1f          	cmpl   $0x1f,-0xc(%rbp)
    7138:	77 29                	ja     7163 <safe_lshift_func_uint64_t_u_u+0x3e>
    713a:	8b 45 f4             	mov    -0xc(%rbp),%eax
    713d:	48 c7 c2 ff ff ff ff 	mov    $0xffffffffffffffff,%rdx
    7144:	89 c1                	mov    %eax,%ecx
    7146:	48 d3 ea             	shr    %cl,%rdx
    7149:	48 89 d0             	mov    %rdx,%rax
    714c:	48 39 45 f8          	cmp    %rax,-0x8(%rbp)
    7150:	77 11                	ja     7163 <safe_lshift_func_uint64_t_u_u+0x3e>
    7152:	8b 45 f4             	mov    -0xc(%rbp),%eax
    7155:	48 8b 55 f8          	mov    -0x8(%rbp),%rdx
    7159:	89 c1                	mov    %eax,%ecx
    715b:	48 d3 e2             	shl    %cl,%rdx
    715e:	48 89 d0             	mov    %rdx,%rax
    7161:	eb 04                	jmp    7167 <safe_lshift_func_uint64_t_u_u+0x42>
    7163:	48 8b 45 f8          	mov    -0x8(%rbp),%rax
    7167:	5d                   	pop    %rbp
    7168:	c3                   	retq   

0000000000007169 <safe_rshift_func_uint64_t_u_s>:
    7169:	f3 0f 1e fa          	endbr64 
    716d:	55                   	push   %rbp
    716e:	48 89 e5             	mov    %rsp,%rbp
    7171:	48 89 7d f8          	mov    %rdi,-0x8(%rbp)
    7175:	89 75 f4             	mov    %esi,-0xc(%rbp)
    7178:	83 7d f4 00          	cmpl   $0x0,-0xc(%rbp)
    717c:	78 17                	js     7195 <safe_rshift_func_uint64_t_u_s+0x2c>
    717e:	83 7d f4 1f          	cmpl   $0x1f,-0xc(%rbp)
    7182:	7f 11                	jg     7195 <safe_rshift_func_uint64_t_u_s+0x2c>
    7184:	8b 45 f4             	mov    -0xc(%rbp),%eax
    7187:	48 8b 55 f8          	mov    -0x8(%rbp),%rdx
    718b:	89 c1                	mov    %eax,%ecx
    718d:	48 d3 ea             	shr    %cl,%rdx
    7190:	48 89 d0             	mov    %rdx,%rax
    7193:	eb 04                	jmp    7199 <safe_rshift_func_uint64_t_u_s+0x30>
    7195:	48 8b 45 f8          	mov    -0x8(%rbp),%rax
    7199:	5d                   	pop    %rbp
    719a:	c3                   	retq   

000000000000719b <safe_rshift_func_uint64_t_u_u>:
    719b:	f3 0f 1e fa          	endbr64 
    719f:	55                   	push   %rbp
    71a0:	48 89 e5             	mov    %rsp,%rbp
    71a3:	48 89 7d f8          	mov    %rdi,-0x8(%rbp)
    71a7:	89 75 f4             	mov    %esi,-0xc(%rbp)
    71aa:	83 7d f4 1f          	cmpl   $0x1f,-0xc(%rbp)
    71ae:	77 11                	ja     71c1 <safe_rshift_func_uint64_t_u_u+0x26>
    71b0:	8b 45 f4             	mov    -0xc(%rbp),%eax
    71b3:	48 8b 55 f8          	mov    -0x8(%rbp),%rdx
    71b7:	89 c1                	mov    %eax,%ecx
    71b9:	48 d3 ea             	shr    %cl,%rdx
    71bc:	48 89 d0             	mov    %rdx,%rax
    71bf:	eb 04                	jmp    71c5 <safe_rshift_func_uint64_t_u_u+0x2a>
    71c1:	48 8b 45 f8          	mov    -0x8(%rbp),%rax
    71c5:	5d                   	pop    %rbp
    71c6:	c3                   	retq   

00000000000071c7 <safe_add_func_float_f_f>:
    71c7:	f3 0f 1e fa          	endbr64 
    71cb:	55                   	push   %rbp
    71cc:	48 89 e5             	mov    %rsp,%rbp
    71cf:	f3 0f 11 45 fc       	movss  %xmm0,-0x4(%rbp)
    71d4:	f3 0f 11 4d f8       	movss  %xmm1,-0x8(%rbp)
    71d9:	f3 0f 10 4d fc       	movss  -0x4(%rbp),%xmm1
    71de:	f3 0f 10 05 3a 2b 01 	movss  0x12b3a(%rip),%xmm0        # 19d20 <l_208.5014+0x240>
    71e5:	00 
    71e6:	f3 0f 59 c8          	mulss  %xmm0,%xmm1
    71ea:	f3 0f 10 55 f8       	movss  -0x8(%rbp),%xmm2
    71ef:	f3 0f 10 05 29 2b 01 	movss  0x12b29(%rip),%xmm0        # 19d20 <l_208.5014+0x240>
    71f6:	00 
    71f7:	f3 0f 59 c2          	mulss  %xmm2,%xmm0
    71fb:	f3 0f 58 c1          	addss  %xmm1,%xmm0
    71ff:	f3 0f 10 0d 29 2b 01 	movss  0x12b29(%rip),%xmm1        # 19d30 <l_208.5014+0x250>
    7206:	00 
    7207:	0f 54 c1             	andps  %xmm1,%xmm0
    720a:	0f 2f 05 2f 2b 01 00 	comiss 0x12b2f(%rip),%xmm0        # 19d40 <l_208.5014+0x260>
    7211:	76 07                	jbe    721a <safe_add_func_float_f_f+0x53>
    7213:	f3 0f 10 45 fc       	movss  -0x4(%rbp),%xmm0
    7218:	eb 0a                	jmp    7224 <safe_add_func_float_f_f+0x5d>
    721a:	f3 0f 10 45 fc       	movss  -0x4(%rbp),%xmm0
    721f:	f3 0f 58 45 f8       	addss  -0x8(%rbp),%xmm0
    7224:	5d                   	pop    %rbp
    7225:	c3                   	retq   

0000000000007226 <safe_sub_func_float_f_f>:
    7226:	f3 0f 1e fa          	endbr64 
    722a:	55                   	push   %rbp
    722b:	48 89 e5             	mov    %rsp,%rbp
    722e:	f3 0f 11 45 fc       	movss  %xmm0,-0x4(%rbp)
    7233:	f3 0f 11 4d f8       	movss  %xmm1,-0x8(%rbp)
    7238:	f3 0f 10 4d fc       	movss  -0x4(%rbp),%xmm1
    723d:	f3 0f 10 05 db 2a 01 	movss  0x12adb(%rip),%xmm0        # 19d20 <l_208.5014+0x240>
    7244:	00 
    7245:	f3 0f 59 c1          	mulss  %xmm1,%xmm0
    7249:	f3 0f 10 55 f8       	movss  -0x8(%rbp),%xmm2
    724e:	f3 0f 10 0d ca 2a 01 	movss  0x12aca(%rip),%xmm1        # 19d20 <l_208.5014+0x240>
    7255:	00 
    7256:	f3 0f 59 ca          	mulss  %xmm2,%xmm1
    725a:	f3 0f 5c c1          	subss  %xmm1,%xmm0
    725e:	f3 0f 10 0d ca 2a 01 	movss  0x12aca(%rip),%xmm1        # 19d30 <l_208.5014+0x250>
    7265:	00 
    7266:	0f 54 c1             	andps  %xmm1,%xmm0
    7269:	0f 2f 05 d0 2a 01 00 	comiss 0x12ad0(%rip),%xmm0        # 19d40 <l_208.5014+0x260>
    7270:	76 07                	jbe    7279 <safe_sub_func_float_f_f+0x53>
    7272:	f3 0f 10 45 fc       	movss  -0x4(%rbp),%xmm0
    7277:	eb 0a                	jmp    7283 <safe_sub_func_float_f_f+0x5d>
    7279:	f3 0f 10 45 fc       	movss  -0x4(%rbp),%xmm0
    727e:	f3 0f 5c 45 f8       	subss  -0x8(%rbp),%xmm0
    7283:	5d                   	pop    %rbp
    7284:	c3                   	retq   

0000000000007285 <safe_mul_func_float_f_f>:
    7285:	f3 0f 1e fa          	endbr64 
    7289:	55                   	push   %rbp
    728a:	48 89 e5             	mov    %rsp,%rbp
    728d:	f3 0f 11 45 fc       	movss  %xmm0,-0x4(%rbp)
    7292:	f3 0f 11 4d f8       	movss  %xmm1,-0x8(%rbp)
    7297:	f3 0f 10 4d fc       	movss  -0x4(%rbp),%xmm1
    729c:	f3 0f 10 05 a0 2a 01 	movss  0x12aa0(%rip),%xmm0        # 19d44 <l_208.5014+0x264>
    72a3:	00 
    72a4:	f3 0f 59 c8          	mulss  %xmm0,%xmm1
    72a8:	f3 0f 10 55 f8       	movss  -0x8(%rbp),%xmm2
    72ad:	f3 0f 10 05 93 2a 01 	movss  0x12a93(%rip),%xmm0        # 19d48 <l_208.5014+0x268>
    72b4:	00 
    72b5:	f3 0f 59 c2          	mulss  %xmm2,%xmm0
    72b9:	f3 0f 59 c1          	mulss  %xmm1,%xmm0
    72bd:	f3 0f 10 0d 6b 2a 01 	movss  0x12a6b(%rip),%xmm1        # 19d30 <l_208.5014+0x250>
    72c4:	00 
    72c5:	0f 54 c1             	andps  %xmm1,%xmm0
    72c8:	0f 2f 05 7d 2a 01 00 	comiss 0x12a7d(%rip),%xmm0        # 19d4c <l_208.5014+0x26c>
    72cf:	76 07                	jbe    72d8 <safe_mul_func_float_f_f+0x53>
    72d1:	f3 0f 10 45 fc       	movss  -0x4(%rbp),%xmm0
    72d6:	eb 0a                	jmp    72e2 <safe_mul_func_float_f_f+0x5d>
    72d8:	f3 0f 10 45 fc       	movss  -0x4(%rbp),%xmm0
    72dd:	f3 0f 59 45 f8       	mulss  -0x8(%rbp),%xmm0
    72e2:	5d                   	pop    %rbp
    72e3:	c3                   	retq   

00000000000072e4 <safe_div_func_float_f_f>:
    72e4:	f3 0f 1e fa          	endbr64 
    72e8:	55                   	push   %rbp
    72e9:	48 89 e5             	mov    %rsp,%rbp
    72ec:	f3 0f 11 45 fc       	movss  %xmm0,-0x4(%rbp)
    72f1:	f3 0f 11 4d f8       	movss  %xmm1,-0x8(%rbp)
    72f6:	f3 0f 10 45 f8       	movss  -0x8(%rbp),%xmm0
    72fb:	f3 0f 10 0d 2d 2a 01 	movss  0x12a2d(%rip),%xmm1        # 19d30 <l_208.5014+0x250>
    7302:	00 
    7303:	0f 54 c8             	andps  %xmm0,%xmm1
    7306:	f3 0f 10 05 42 2a 01 	movss  0x12a42(%rip),%xmm0        # 19d50 <l_208.5014+0x270>
    730d:	00 
    730e:	0f 2f c1             	comiss %xmm1,%xmm0
    7311:	0f 97 c0             	seta   %al
    7314:	83 f0 01             	xor    $0x1,%eax
    7317:	84 c0                	test   %al,%al
    7319:	75 56                	jne    7371 <safe_div_func_float_f_f+0x8d>
    731b:	66 0f ef c0          	pxor   %xmm0,%xmm0
    731f:	0f 2e 45 f8          	ucomiss -0x8(%rbp),%xmm0
    7323:	7a 0a                	jp     732f <safe_div_func_float_f_f+0x4b>
    7325:	66 0f ef c0          	pxor   %xmm0,%xmm0
    7329:	0f 2e 45 f8          	ucomiss -0x8(%rbp),%xmm0
    732d:	74 4e                	je     737d <safe_div_func_float_f_f+0x99>
    732f:	f3 0f 10 4d fc       	movss  -0x4(%rbp),%xmm1
    7334:	f3 0f 10 05 18 2a 01 	movss  0x12a18(%rip),%xmm0        # 19d54 <l_208.5014+0x274>
    733b:	00 
    733c:	f3 0f 59 c1          	mulss  %xmm1,%xmm0
    7340:	f3 0f 10 55 f8       	movss  -0x8(%rbp),%xmm2
    7345:	f3 0f 10 0d 0b 2a 01 	movss  0x12a0b(%rip),%xmm1        # 19d58 <l_208.5014+0x278>
    734c:	00 
    734d:	f3 0f 59 ca          	mulss  %xmm2,%xmm1
    7351:	f3 0f 5e c1          	divss  %xmm1,%xmm0
    7355:	f3 0f 10 0d d3 29 01 	movss  0x129d3(%rip),%xmm1        # 19d30 <l_208.5014+0x250>
    735c:	00 
    735d:	0f 54 c1             	andps  %xmm1,%xmm0
    7360:	0f 2f 05 f5 29 01 00 	comiss 0x129f5(%rip),%xmm0        # 19d5c <l_208.5014+0x27c>
    7367:	0f 97 c0             	seta   %al
    736a:	83 f0 01             	xor    $0x1,%eax
    736d:	84 c0                	test   %al,%al
    736f:	74 0c                	je     737d <safe_div_func_float_f_f+0x99>
    7371:	f3 0f 10 45 fc       	movss  -0x4(%rbp),%xmm0
    7376:	f3 0f 5e 45 f8       	divss  -0x8(%rbp),%xmm0
    737b:	eb 05                	jmp    7382 <safe_div_func_float_f_f+0x9e>
    737d:	f3 0f 10 45 fc       	movss  -0x4(%rbp),%xmm0
    7382:	5d                   	pop    %rbp
    7383:	c3                   	retq   

0000000000007384 <safe_add_func_double_f_f>:
    7384:	f3 0f 1e fa          	endbr64 
    7388:	55                   	push   %rbp
    7389:	48 89 e5             	mov    %rsp,%rbp
    738c:	f2 0f 11 45 f8       	movsd  %xmm0,-0x8(%rbp)
    7391:	f2 0f 11 4d f0       	movsd  %xmm1,-0x10(%rbp)
    7396:	f2 0f 10 4d f8       	movsd  -0x8(%rbp),%xmm1
    739b:	f2 0f 10 05 bd 29 01 	movsd  0x129bd(%rip),%xmm0        # 19d60 <l_208.5014+0x280>
    73a2:	00 
    73a3:	f2 0f 59 c8          	mulsd  %xmm0,%xmm1
    73a7:	f2 0f 10 55 f0       	movsd  -0x10(%rbp),%xmm2
    73ac:	f2 0f 10 05 ac 29 01 	movsd  0x129ac(%rip),%xmm0        # 19d60 <l_208.5014+0x280>
    73b3:	00 
    73b4:	f2 0f 59 c2          	mulsd  %xmm2,%xmm0
    73b8:	f2 0f 58 c1          	addsd  %xmm1,%xmm0
    73bc:	f3 0f 7e 0d ac 29 01 	movq   0x129ac(%rip),%xmm1        # 19d70 <l_208.5014+0x290>
    73c3:	00 
    73c4:	66 0f 54 c1          	andpd  %xmm1,%xmm0
    73c8:	66 0f 2f 05 b0 29 01 	comisd 0x129b0(%rip),%xmm0        # 19d80 <l_208.5014+0x2a0>
    73cf:	00 
    73d0:	76 07                	jbe    73d9 <safe_add_func_double_f_f+0x55>
    73d2:	f2 0f 10 45 f8       	movsd  -0x8(%rbp),%xmm0
    73d7:	eb 0a                	jmp    73e3 <safe_add_func_double_f_f+0x5f>
    73d9:	f2 0f 10 45 f8       	movsd  -0x8(%rbp),%xmm0
    73de:	f2 0f 58 45 f0       	addsd  -0x10(%rbp),%xmm0
    73e3:	5d                   	pop    %rbp
    73e4:	c3                   	retq   

00000000000073e5 <safe_sub_func_double_f_f>:
    73e5:	f3 0f 1e fa          	endbr64 
    73e9:	55                   	push   %rbp
    73ea:	48 89 e5             	mov    %rsp,%rbp
    73ed:	f2 0f 11 45 f8       	movsd  %xmm0,-0x8(%rbp)
    73f2:	f2 0f 11 4d f0       	movsd  %xmm1,-0x10(%rbp)
    73f7:	f2 0f 10 4d f8       	movsd  -0x8(%rbp),%xmm1
    73fc:	f2 0f 10 05 5c 29 01 	movsd  0x1295c(%rip),%xmm0        # 19d60 <l_208.5014+0x280>
    7403:	00 
    7404:	f2 0f 59 c1          	mulsd  %xmm1,%xmm0
    7408:	f2 0f 10 55 f0       	movsd  -0x10(%rbp),%xmm2
    740d:	f2 0f 10 0d 4b 29 01 	movsd  0x1294b(%rip),%xmm1        # 19d60 <l_208.5014+0x280>
    7414:	00 
    7415:	f2 0f 59 ca          	mulsd  %xmm2,%xmm1
    7419:	f2 0f 5c c1          	subsd  %xmm1,%xmm0
    741d:	f3 0f 7e 0d 4b 29 01 	movq   0x1294b(%rip),%xmm1        # 19d70 <l_208.5014+0x290>
    7424:	00 
    7425:	66 0f 54 c1          	andpd  %xmm1,%xmm0
    7429:	66 0f 2f 05 4f 29 01 	comisd 0x1294f(%rip),%xmm0        # 19d80 <l_208.5014+0x2a0>
    7430:	00 
    7431:	76 07                	jbe    743a <safe_sub_func_double_f_f+0x55>
    7433:	f2 0f 10 45 f8       	movsd  -0x8(%rbp),%xmm0
    7438:	eb 0a                	jmp    7444 <safe_sub_func_double_f_f+0x5f>
    743a:	f2 0f 10 45 f8       	movsd  -0x8(%rbp),%xmm0
    743f:	f2 0f 5c 45 f0       	subsd  -0x10(%rbp),%xmm0
    7444:	5d                   	pop    %rbp
    7445:	c3                   	retq   

0000000000007446 <safe_mul_func_double_f_f>:
    7446:	f3 0f 1e fa          	endbr64 
    744a:	55                   	push   %rbp
    744b:	48 89 e5             	mov    %rsp,%rbp
    744e:	f2 0f 11 45 f8       	movsd  %xmm0,-0x8(%rbp)
    7453:	f2 0f 11 4d f0       	movsd  %xmm1,-0x10(%rbp)
    7458:	f2 0f 10 4d f8       	movsd  -0x8(%rbp),%xmm1
    745d:	f2 0f 10 05 23 29 01 	movsd  0x12923(%rip),%xmm0        # 19d88 <l_208.5014+0x2a8>
    7464:	00 
    7465:	f2 0f 59 c8          	mulsd  %xmm0,%xmm1
    7469:	f2 0f 10 55 f0       	movsd  -0x10(%rbp),%xmm2
    746e:	f2 0f 10 05 1a 29 01 	movsd  0x1291a(%rip),%xmm0        # 19d90 <l_208.5014+0x2b0>
    7475:	00 
    7476:	f2 0f 59 c2          	mulsd  %xmm2,%xmm0
    747a:	f2 0f 59 c1          	mulsd  %xmm1,%xmm0
    747e:	f3 0f 7e 0d ea 28 01 	movq   0x128ea(%rip),%xmm1        # 19d70 <l_208.5014+0x290>
    7485:	00 
    7486:	66 0f 54 c1          	andpd  %xmm1,%xmm0
    748a:	66 0f 2f 05 06 29 01 	comisd 0x12906(%rip),%xmm0        # 19d98 <l_208.5014+0x2b8>
    7491:	00 
    7492:	76 07                	jbe    749b <safe_mul_func_double_f_f+0x55>
    7494:	f2 0f 10 45 f8       	movsd  -0x8(%rbp),%xmm0
    7499:	eb 0a                	jmp    74a5 <safe_mul_func_double_f_f+0x5f>
    749b:	f2 0f 10 45 f8       	movsd  -0x8(%rbp),%xmm0
    74a0:	f2 0f 59 45 f0       	mulsd  -0x10(%rbp),%xmm0
    74a5:	5d                   	pop    %rbp
    74a6:	c3                   	retq   

00000000000074a7 <safe_div_func_double_f_f>:
    74a7:	f3 0f 1e fa          	endbr64 
    74ab:	55                   	push   %rbp
    74ac:	48 89 e5             	mov    %rsp,%rbp
    74af:	f2 0f 11 45 f8       	movsd  %xmm0,-0x8(%rbp)
    74b4:	f2 0f 11 4d f0       	movsd  %xmm1,-0x10(%rbp)
    74b9:	f2 0f 10 45 f0       	movsd  -0x10(%rbp),%xmm0
    74be:	f3 0f 7e 0d aa 28 01 	movq   0x128aa(%rip),%xmm1        # 19d70 <l_208.5014+0x290>
    74c5:	00 
    74c6:	66 0f 54 c8          	andpd  %xmm0,%xmm1
    74ca:	f2 0f 10 05 ce 28 01 	movsd  0x128ce(%rip),%xmm0        # 19da0 <l_208.5014+0x2c0>
    74d1:	00 
    74d2:	66 0f 2f c1          	comisd %xmm1,%xmm0
    74d6:	0f 97 c0             	seta   %al
    74d9:	83 f0 01             	xor    $0x1,%eax
    74dc:	84 c0                	test   %al,%al
    74de:	75 5a                	jne    753a <safe_div_func_double_f_f+0x93>
    74e0:	66 0f ef c0          	pxor   %xmm0,%xmm0
    74e4:	66 0f 2e 45 f0       	ucomisd -0x10(%rbp),%xmm0
    74e9:	7a 0b                	jp     74f6 <safe_div_func_double_f_f+0x4f>
    74eb:	66 0f ef c0          	pxor   %xmm0,%xmm0
    74ef:	66 0f 2e 45 f0       	ucomisd -0x10(%rbp),%xmm0
    74f4:	74 50                	je     7546 <safe_div_func_double_f_f+0x9f>
    74f6:	f2 0f 10 4d f8       	movsd  -0x8(%rbp),%xmm1
    74fb:	f2 0f 10 05 a5 28 01 	movsd  0x128a5(%rip),%xmm0        # 19da8 <l_208.5014+0x2c8>
    7502:	00 
    7503:	f2 0f 59 c1          	mulsd  %xmm1,%xmm0
    7507:	f2 0f 10 55 f0       	movsd  -0x10(%rbp),%xmm2
    750c:	f2 0f 10 0d 9c 28 01 	movsd  0x1289c(%rip),%xmm1        # 19db0 <l_208.5014+0x2d0>
    7513:	00 
    7514:	f2 0f 59 ca          	mulsd  %xmm2,%xmm1
    7518:	f2 0f 5e c1          	divsd  %xmm1,%xmm0
    751c:	f3 0f 7e 0d 4c 28 01 	movq   0x1284c(%rip),%xmm1        # 19d70 <l_208.5014+0x290>
    7523:	00 
    7524:	66 0f 54 c1          	andpd  %xmm1,%xmm0
    7528:	66 0f 2f 05 88 28 01 	comisd 0x12888(%rip),%xmm0        # 19db8 <l_208.5014+0x2d8>
    752f:	00 
    7530:	0f 97 c0             	seta   %al
    7533:	83 f0 01             	xor    $0x1,%eax
    7536:	84 c0                	test   %al,%al
    7538:	74 0c                	je     7546 <safe_div_func_double_f_f+0x9f>
    753a:	f2 0f 10 45 f8       	movsd  -0x8(%rbp),%xmm0
    753f:	f2 0f 5e 45 f0       	divsd  -0x10(%rbp),%xmm0
    7544:	eb 05                	jmp    754b <safe_div_func_double_f_f+0xa4>
    7546:	f2 0f 10 45 f8       	movsd  -0x8(%rbp),%xmm0
    754b:	5d                   	pop    %rbp
    754c:	c3                   	retq   

000000000000754d <safe_convert_func_float_to_int32_t>:
    754d:	f3 0f 1e fa          	endbr64 
    7551:	55                   	push   %rbp
    7552:	48 89 e5             	mov    %rsp,%rbp
    7555:	f3 0f 11 45 fc       	movss  %xmm0,-0x4(%rbp)
    755a:	f3 0f 10 05 5e 28 01 	movss  0x1285e(%rip),%xmm0        # 19dc0 <l_208.5014+0x2e0>
    7561:	00 
    7562:	0f 2f 45 fc          	comiss -0x4(%rbp),%xmm0
    7566:	0f 93 c0             	setae  %al
    7569:	83 f0 01             	xor    $0x1,%eax
    756c:	84 c0                	test   %al,%al
    756e:	74 21                	je     7591 <safe_convert_func_float_to_int32_t+0x44>
    7570:	f3 0f 10 45 fc       	movss  -0x4(%rbp),%xmm0
    7575:	0f 2f 05 48 28 01 00 	comiss 0x12848(%rip),%xmm0        # 19dc4 <l_208.5014+0x2e4>
    757c:	0f 93 c0             	setae  %al
    757f:	83 f0 01             	xor    $0x1,%eax
    7582:	84 c0                	test   %al,%al
    7584:	74 0b                	je     7591 <safe_convert_func_float_to_int32_t+0x44>
    7586:	f3 0f 10 45 fc       	movss  -0x4(%rbp),%xmm0
    758b:	f3 0f 2c c0          	cvttss2si %xmm0,%eax
    758f:	eb 05                	jmp    7596 <safe_convert_func_float_to_int32_t+0x49>
    7591:	b8 ff ff ff 7f       	mov    $0x7fffffff,%eax
    7596:	5d                   	pop    %rbp
    7597:	c3                   	retq   

0000000000007598 <crc32_gentab>:
    7598:	f3 0f 1e fa          	endbr64 
    759c:	55                   	push   %rbp
    759d:	48 89 e5             	mov    %rsp,%rbp
    75a0:	c7 45 fc 20 83 b8 ed 	movl   $0xedb88320,-0x4(%rbp)
    75a7:	c7 45 f4 00 00 00 00 	movl   $0x0,-0xc(%rbp)
    75ae:	eb 51                	jmp    7601 <crc32_gentab+0x69>
    75b0:	8b 45 f4             	mov    -0xc(%rbp),%eax
    75b3:	89 45 f0             	mov    %eax,-0x10(%rbp)
    75b6:	c7 45 f8 08 00 00 00 	movl   $0x8,-0x8(%rbp)
    75bd:	eb 1e                	jmp    75dd <crc32_gentab+0x45>
    75bf:	8b 45 f0             	mov    -0x10(%rbp),%eax
    75c2:	83 e0 01             	and    $0x1,%eax
    75c5:	85 c0                	test   %eax,%eax
    75c7:	74 0d                	je     75d6 <crc32_gentab+0x3e>
    75c9:	8b 45 f0             	mov    -0x10(%rbp),%eax
    75cc:	d1 e8                	shr    %eax
    75ce:	33 45 fc             	xor    -0x4(%rbp),%eax
    75d1:	89 45 f0             	mov    %eax,-0x10(%rbp)
    75d4:	eb 03                	jmp    75d9 <crc32_gentab+0x41>
    75d6:	d1 6d f0             	shrl   -0x10(%rbp)
    75d9:	83 6d f8 01          	subl   $0x1,-0x8(%rbp)
    75dd:	83 7d f8 00          	cmpl   $0x0,-0x8(%rbp)
    75e1:	7f dc                	jg     75bf <crc32_gentab+0x27>
    75e3:	8b 45 f4             	mov    -0xc(%rbp),%eax
    75e6:	48 98                	cltq   
    75e8:	48 8d 0c 85 00 00 00 	lea    0x0(,%rax,4),%rcx
    75ef:	00 
    75f0:	48 8d 15 49 7e 01 00 	lea    0x17e49(%rip),%rdx        # 1f440 <crc32_tab>
    75f7:	8b 45 f0             	mov    -0x10(%rbp),%eax
    75fa:	89 04 11             	mov    %eax,(%rcx,%rdx,1)
    75fd:	83 45 f4 01          	addl   $0x1,-0xc(%rbp)
    7601:	81 7d f4 ff 00 00 00 	cmpl   $0xff,-0xc(%rbp)
    7608:	7e a6                	jle    75b0 <crc32_gentab+0x18>
    760a:	90                   	nop
    760b:	90                   	nop
    760c:	5d                   	pop    %rbp
    760d:	c3                   	retq   

000000000000760e <crc32_byte>:
    760e:	f3 0f 1e fa          	endbr64 
    7612:	55                   	push   %rbp
    7613:	48 89 e5             	mov    %rsp,%rbp
    7616:	89 f8                	mov    %edi,%eax
    7618:	88 45 fc             	mov    %al,-0x4(%rbp)
    761b:	8b 05 ff 59 01 00    	mov    0x159ff(%rip),%eax        # 1d020 <crc32_context>
    7621:	c1 e8 08             	shr    $0x8,%eax
    7624:	89 c1                	mov    %eax,%ecx
    7626:	0f b6 55 fc          	movzbl -0x4(%rbp),%edx
    762a:	8b 05 f0 59 01 00    	mov    0x159f0(%rip),%eax        # 1d020 <crc32_context>
    7630:	31 d0                	xor    %edx,%eax
    7632:	0f b6 c0             	movzbl %al,%eax
    7635:	89 c0                	mov    %eax,%eax
    7637:	48 8d 14 85 00 00 00 	lea    0x0(,%rax,4),%rdx
    763e:	00 
    763f:	48 8d 05 fa 7d 01 00 	lea    0x17dfa(%rip),%rax        # 1f440 <crc32_tab>
    7646:	8b 04 02             	mov    (%rdx,%rax,1),%eax
    7649:	31 c8                	xor    %ecx,%eax
    764b:	89 05 cf 59 01 00    	mov    %eax,0x159cf(%rip)        # 1d020 <crc32_context>
    7651:	90                   	nop
    7652:	5d                   	pop    %rbp
    7653:	c3                   	retq   

0000000000007654 <crc32_8bytes>:
    7654:	f3 0f 1e fa          	endbr64 
    7658:	55                   	push   %rbp
    7659:	48 89 e5             	mov    %rsp,%rbp
    765c:	48 83 ec 08          	sub    $0x8,%rsp
    7660:	48 89 7d f8          	mov    %rdi,-0x8(%rbp)
    7664:	48 8b 45 f8          	mov    -0x8(%rbp),%rax
    7668:	0f b6 c0             	movzbl %al,%eax
    766b:	89 c7                	mov    %eax,%edi
    766d:	e8 9c ff ff ff       	callq  760e <crc32_byte>
    7672:	48 8b 45 f8          	mov    -0x8(%rbp),%rax
    7676:	48 c1 e8 08          	shr    $0x8,%rax
    767a:	0f b6 c0             	movzbl %al,%eax
    767d:	89 c7                	mov    %eax,%edi
    767f:	e8 8a ff ff ff       	callq  760e <crc32_byte>
    7684:	48 8b 45 f8          	mov    -0x8(%rbp),%rax
    7688:	48 c1 e8 10          	shr    $0x10,%rax
    768c:	0f b6 c0             	movzbl %al,%eax
    768f:	89 c7                	mov    %eax,%edi
    7691:	e8 78 ff ff ff       	callq  760e <crc32_byte>
    7696:	48 8b 45 f8          	mov    -0x8(%rbp),%rax
    769a:	48 c1 e8 18          	shr    $0x18,%rax
    769e:	0f b6 c0             	movzbl %al,%eax
    76a1:	89 c7                	mov    %eax,%edi
    76a3:	e8 66 ff ff ff       	callq  760e <crc32_byte>
    76a8:	48 8b 45 f8          	mov    -0x8(%rbp),%rax
    76ac:	48 c1 e8 20          	shr    $0x20,%rax
    76b0:	0f b6 c0             	movzbl %al,%eax
    76b3:	89 c7                	mov    %eax,%edi
    76b5:	e8 54 ff ff ff       	callq  760e <crc32_byte>
    76ba:	48 8b 45 f8          	mov    -0x8(%rbp),%rax
    76be:	48 c1 e8 28          	shr    $0x28,%rax
    76c2:	0f b6 c0             	movzbl %al,%eax
    76c5:	89 c7                	mov    %eax,%edi
    76c7:	e8 42 ff ff ff       	callq  760e <crc32_byte>
    76cc:	48 8b 45 f8          	mov    -0x8(%rbp),%rax
    76d0:	48 c1 e8 30          	shr    $0x30,%rax
    76d4:	0f b6 c0             	movzbl %al,%eax
    76d7:	89 c7                	mov    %eax,%edi
    76d9:	e8 30 ff ff ff       	callq  760e <crc32_byte>
    76de:	48 8b 45 f8          	mov    -0x8(%rbp),%rax
    76e2:	48 c1 e8 38          	shr    $0x38,%rax
    76e6:	0f b6 c0             	movzbl %al,%eax
    76e9:	89 c7                	mov    %eax,%edi
    76eb:	e8 1e ff ff ff       	callq  760e <crc32_byte>
    76f0:	90                   	nop
    76f1:	c9                   	leaveq 
    76f2:	c3                   	retq   

00000000000076f3 <transparent_crc>:
    76f3:	f3 0f 1e fa          	endbr64 
    76f7:	55                   	push   %rbp
    76f8:	48 89 e5             	mov    %rsp,%rbp
    76fb:	48 83 ec 20          	sub    $0x20,%rsp
    76ff:	48 89 7d f8          	mov    %rdi,-0x8(%rbp)
    7703:	48 89 75 f0          	mov    %rsi,-0x10(%rbp)
    7707:	89 55 ec             	mov    %edx,-0x14(%rbp)
    770a:	48 8b 45 f8          	mov    -0x8(%rbp),%rax
    770e:	48 89 c7             	mov    %rax,%rdi
    7711:	e8 3e ff ff ff       	callq  7654 <crc32_8bytes>
    7716:	83 7d ec 00          	cmpl   $0x0,-0x14(%rbp)
    771a:	74 22                	je     773e <transparent_crc+0x4b>
    771c:	8b 05 fe 58 01 00    	mov    0x158fe(%rip),%eax        # 1d020 <crc32_context>
    7722:	f7 d0                	not    %eax
    7724:	89 c2                	mov    %eax,%edx
    7726:	48 8b 45 f0          	mov    -0x10(%rbp),%rax
    772a:	48 89 c6             	mov    %rax,%rsi
    772d:	48 8d 3d fc 08 01 00 	lea    0x108fc(%rip),%rdi        # 18030 <_IO_stdin_used+0x30>
    7734:	b8 00 00 00 00       	mov    $0x0,%eax
    7739:	e8 42 e9 ff ff       	callq  6080 <printf@plt>
    773e:	90                   	nop
    773f:	c9                   	leaveq 
    7740:	c3                   	retq   

0000000000007741 <transparent_crc_bytes>:
    7741:	f3 0f 1e fa          	endbr64 
    7745:	55                   	push   %rbp
    7746:	48 89 e5             	mov    %rsp,%rbp
    7749:	48 83 ec 30          	sub    $0x30,%rsp
    774d:	48 89 7d e8          	mov    %rdi,-0x18(%rbp)
    7751:	89 75 e4             	mov    %esi,-0x1c(%rbp)
    7754:	48 89 55 d8          	mov    %rdx,-0x28(%rbp)
    7758:	89 4d e0             	mov    %ecx,-0x20(%rbp)
    775b:	c7 45 fc 00 00 00 00 	movl   $0x0,-0x4(%rbp)
    7762:	eb 1e                	jmp    7782 <transparent_crc_bytes+0x41>
    7764:	8b 45 fc             	mov    -0x4(%rbp),%eax
    7767:	48 63 d0             	movslq %eax,%rdx
    776a:	48 8b 45 e8          	mov    -0x18(%rbp),%rax
    776e:	48 01 d0             	add    %rdx,%rax
    7771:	0f b6 00             	movzbl (%rax),%eax
    7774:	0f b6 c0             	movzbl %al,%eax
    7777:	89 c7                	mov    %eax,%edi
    7779:	e8 90 fe ff ff       	callq  760e <crc32_byte>
    777e:	83 45 fc 01          	addl   $0x1,-0x4(%rbp)
    7782:	8b 45 fc             	mov    -0x4(%rbp),%eax
    7785:	3b 45 e4             	cmp    -0x1c(%rbp),%eax
    7788:	7c da                	jl     7764 <transparent_crc_bytes+0x23>
    778a:	83 7d e0 00          	cmpl   $0x0,-0x20(%rbp)
    778e:	74 22                	je     77b2 <transparent_crc_bytes+0x71>
    7790:	8b 05 8a 58 01 00    	mov    0x1588a(%rip),%eax        # 1d020 <crc32_context>
    7796:	f7 d0                	not    %eax
    7798:	89 c2                	mov    %eax,%edx
    779a:	48 8b 45 d8          	mov    -0x28(%rbp),%rax
    779e:	48 89 c6             	mov    %rax,%rsi
    77a1:	48 8d 3d 88 08 01 00 	lea    0x10888(%rip),%rdi        # 18030 <_IO_stdin_used+0x30>
    77a8:	b8 00 00 00 00       	mov    $0x0,%eax
    77ad:	e8 ce e8 ff ff       	callq  6080 <printf@plt>
    77b2:	90                   	nop
    77b3:	c9                   	leaveq 
    77b4:	c3                   	retq   

00000000000077b5 <func_1>:
    77b5:	f3 0f 1e fa          	endbr64 
    77b9:	55                   	push   %rbp
    77ba:	48 89 e5             	mov    %rsp,%rbp
    77bd:	48 81 ec 90 01 00 00 	sub    $0x190,%rsp
    77c4:	64 48 8b 04 25 28 00 	mov    %fs:0x28,%rax
    77cb:	00 00 
    77cd:	48 89 45 f8          	mov    %rax,-0x8(%rbp)
    77d1:	31 c0                	xor    %eax,%eax
    77d3:	48 8d 85 f0 fe ff ff 	lea    -0x110(%rbp),%rax
    77da:	48 8d 15 9f 08 01 00 	lea    0x1089f(%rip),%rdx        # 18080 <g_1963+0x20>
    77e1:	b9 1f 00 00 00       	mov    $0x1f,%ecx
    77e6:	48 89 c7             	mov    %rax,%rdi
    77e9:	48 89 d6             	mov    %rdx,%rsi
    77ec:	f3 48 a5             	rep movsq %ds:(%rsi),%es:(%rdi)
    77ef:	48 89 f2             	mov    %rsi,%rdx
    77f2:	48 89 f8             	mov    %rdi,%rax
    77f5:	8b 0a                	mov    (%rdx),%ecx
    77f7:	89 08                	mov    %ecx,(%rax)
    77f9:	48 8d 40 04          	lea    0x4(%rax),%rax
    77fd:	48 8d 52 04          	lea    0x4(%rdx),%rdx
    7801:	c7 85 80 fe ff ff f9 	movl   $0xfffffff9,-0x180(%rbp)
    7808:	ff ff ff 
    780b:	c7 85 84 fe ff ff 00 	movl   $0x83be4400,-0x17c(%rbp)
    7812:	44 be 83 
    7815:	c7 85 88 fe ff ff eb 	movl   $0x55cab8eb,-0x178(%rbp)
    781c:	b8 ca 55 
    781f:	48 8d 05 ca 58 01 00 	lea    0x158ca(%rip),%rax        # 1d0f0 <g_623>
    7826:	48 89 85 98 fe ff ff 	mov    %rax,-0x168(%rbp)
    782d:	c7 85 8c fe ff ff 1d 	movl   $0x32aba41d,-0x174(%rbp)
    7834:	a4 ab 32 
    7837:	c6 85 78 fe ff ff f8 	movb   $0xf8,-0x188(%rbp)
    783e:	c7 85 90 fe ff ff 04 	movl   $0x4,-0x170(%rbp)
    7845:	00 00 00 
    7848:	c7 05 f6 7f 01 00 06 	movl   $0x6,0x17ff6(%rip)        # 1f848 <g_2>
    784f:	00 00 00 
    7852:	e9 99 00 00 00       	jmpq   78f0 <func_1+0x13b>
    7857:	c6 85 79 fe ff ff e3 	movb   $0xe3,-0x187(%rbp)
    785e:	c7 85 94 fe ff ff fb 	movl   $0xfffffffb,-0x16c(%rbp)
    7865:	ff ff ff 
    7868:	c6 85 7a fe ff ff 0d 	movb   $0xd,-0x186(%rbp)
    786f:	c6 85 7b fe ff ff 00 	movb   $0x0,-0x185(%rbp)
    7876:	c7 85 7c fe ff ff 00 	movl   $0x0,-0x184(%rbp)
    787d:	00 00 00 
    7880:	eb 1e                	jmp    78a0 <func_1+0xeb>
    7882:	8b 85 7c fe ff ff    	mov    -0x184(%rbp),%eax
    7888:	48 98                	cltq   
    788a:	48 8d 15 07 58 01 00 	lea    0x15807(%rip),%rdx        # 1d098 <g_104>
    7891:	48 89 94 c5 a0 fe ff 	mov    %rdx,-0x160(%rbp,%rax,8)
    7898:	ff 
    7899:	83 85 7c fe ff ff 01 	addl   $0x1,-0x184(%rbp)
    78a0:	83 bd 7c fe ff ff 02 	cmpl   $0x2,-0x184(%rbp)
    78a7:	7e d9                	jle    7882 <func_1+0xcd>
    78a9:	c7 85 7c fe ff ff 00 	movl   $0x0,-0x184(%rbp)
    78b0:	00 00 00 
    78b3:	eb 1a                	jmp    78cf <func_1+0x11a>
    78b5:	8b 85 7c fe ff ff    	mov    -0x184(%rbp),%eax
    78bb:	48 98                	cltq   
    78bd:	c7 84 85 c0 fe ff ff 	movl   $0xda7a851c,-0x140(%rbp,%rax,4)
    78c4:	1c 85 7a da 
    78c8:	83 85 7c fe ff ff 01 	addl   $0x1,-0x184(%rbp)
    78cf:	83 bd 7c fe ff ff 08 	cmpl   $0x8,-0x184(%rbp)
    78d6:	7e dd                	jle    78b5 <func_1+0x100>
    78d8:	8b 05 6a 7f 01 00    	mov    0x17f6a(%rip),%eax        # 1f848 <g_2>
    78de:	be 05 00 00 00       	mov    $0x5,%esi
    78e3:	89 c7                	mov    %eax,%edi
    78e5:	e8 1b ed ff ff       	callq  6605 <safe_sub_func_int32_t_s_s>
    78ea:	89 05 58 7f 01 00    	mov    %eax,0x17f58(%rip)        # 1f848 <g_2>
    78f0:	8b 05 52 7f 01 00    	mov    0x17f52(%rip),%eax        # 1f848 <g_2>
    78f6:	83 f8 ec             	cmp    $0xffffffec,%eax
    78f9:	0f 84 58 ff ff ff    	je     7857 <func_1+0xa2>
    78ff:	8b 85 90 fe ff ff    	mov    -0x170(%rbp),%eax
    7905:	48 8b 4d f8          	mov    -0x8(%rbp),%rcx
    7909:	64 48 33 0c 25 28 00 	xor    %fs:0x28,%rcx
    7910:	00 00 
    7912:	74 05                	je     7919 <func_1+0x164>
    7914:	e8 57 e7 ff ff       	callq  6070 <__stack_chk_fail@plt>
    7919:	c9                   	leaveq 
    791a:	c3                   	retq   

000000000000791b <func_5>:
    791b:	f3 0f 1e fa          	endbr64 
    791f:	55                   	push   %rbp
    7920:	48 89 e5             	mov    %rsp,%rbp
    7923:	41 56                	push   %r14
    7925:	41 55                	push   %r13
    7927:	41 54                	push   %r12
    7929:	53                   	push   %rbx
    792a:	48 83 ec 58          	sub    $0x58,%rsp
    792e:	89 7d 9c             	mov    %edi,-0x64(%rbp)
    7931:	48 89 55 90          	mov    %rdx,-0x70(%rbp)
    7935:	89 c8                	mov    %ecx,%eax
    7937:	44 89 c1             	mov    %r8d,%ecx
    793a:	89 f2                	mov    %esi,%edx
    793c:	88 55 98             	mov    %dl,-0x68(%rbp)
    793f:	66 89 45 8c          	mov    %ax,-0x74(%rbp)
    7943:	89 c8                	mov    %ecx,%eax
    7945:	88 45 88             	mov    %al,-0x78(%rbp)
    7948:	c6 45 af 08          	movb   $0x8,-0x51(%rbp)
    794c:	c7 45 b0 f6 ff ff ff 	movl   $0xfffffff6,-0x50(%rbp)
    7953:	48 b8 bd a9 bb 73 e6 	movabs $0x907d71e673bba9bd,%rax
    795a:	71 7d 90 
    795d:	48 89 45 b8          	mov    %rax,-0x48(%rbp)
    7961:	48 8d 05 da 57 01 00 	lea    0x157da(%rip),%rax        # 1d142 <g_1157>
    7968:	48 89 45 c0          	mov    %rax,-0x40(%rbp)
    796c:	48 8d 05 0d 7f 01 00 	lea    0x17f0d(%rip),%rax        # 1f880 <g_1241>
    7973:	48 89 45 c8          	mov    %rax,-0x38(%rbp)
    7977:	48 8d 05 52 58 01 00 	lea    0x15852(%rip),%rax        # 1d1d0 <g_2362>
    797e:	48 89 45 d0          	mov    %rax,-0x30(%rbp)
    7982:	c7 45 b4 00 00 00 00 	movl   $0x0,-0x4c(%rbp)
    7989:	0f b6 45 af          	movzbl -0x51(%rbp),%eax
    798d:	31 45 b0             	xor    %eax,-0x50(%rbp)
    7990:	80 7d 98 00          	cmpb   $0x0,-0x68(%rbp)
    7994:	0f 84 8d 01 00 00    	je     7b27 <func_5+0x20c>
    799a:	48 8b 05 ff 72 01 00 	mov    0x172ff(%rip),%rax        # 1eca0 <g_651>
    79a1:	48 8b 00             	mov    (%rax),%rax
    79a4:	48 8b 18             	mov    (%rax),%rbx
    79a7:	4c 8b 65 b8          	mov    -0x48(%rbp),%r12
    79ab:	48 8b 45 b8          	mov    -0x48(%rbp),%rax
    79af:	44 0f b6 e8          	movzbl %al,%r13d
    79b3:	48 8b 05 76 70 01 00 	mov    0x17076(%rip),%rax        # 1ea30 <g_351>
    79ba:	48 8b 00             	mov    (%rax),%rax
    79bd:	0f b7 00             	movzwl (%rax),%eax
    79c0:	98                   	cwtl   
    79c1:	be 06 00 00 00       	mov    $0x6,%esi
    79c6:	89 c7                	mov    %eax,%edi
    79c8:	e8 5d eb ff ff       	callq  652a <safe_rshift_func_int16_t_s_s>
    79cd:	66 83 7d 8c 01       	cmpw   $0x1,-0x74(%rbp)
    79d2:	0f 95 c0             	setne  %al
    79d5:	44 0f b6 f0          	movzbl %al,%r14d
    79d9:	48 8b 45 c0          	mov    -0x40(%rbp),%rax
    79dd:	0f b7 00             	movzwl (%rax),%eax
    79e0:	8d 48 ff             	lea    -0x1(%rax),%ecx
    79e3:	48 8b 55 c0          	mov    -0x40(%rbp),%rdx
    79e7:	66 89 0a             	mov    %cx,(%rdx)
    79ea:	0f b7 c0             	movzwl %ax,%eax
    79ed:	89 45 b0             	mov    %eax,-0x50(%rbp)
    79f0:	8b 55 b0             	mov    -0x50(%rbp),%edx
    79f3:	48 8b 05 36 70 01 00 	mov    0x17036(%rip),%rax        # 1ea30 <g_351>
    79fa:	48 8b 00             	mov    (%rax),%rax
    79fd:	48 8b 4d b8          	mov    -0x48(%rbp),%rcx
    7a01:	66 89 08             	mov    %cx,(%rax)
    7a04:	0f b7 00             	movzwl (%rax),%eax
    7a07:	98                   	cwtl   
    7a08:	89 d6                	mov    %edx,%esi
    7a0a:	89 c7                	mov    %eax,%edi
    7a0c:	e8 52 eb ff ff       	callq  6563 <safe_rshift_func_int16_t_s_u>
    7a11:	0f be d0             	movsbl %al,%edx
    7a14:	0f b7 45 8c          	movzwl -0x74(%rbp),%eax
    7a18:	0f be c0             	movsbl %al,%eax
    7a1b:	89 d6                	mov    %edx,%esi
    7a1d:	89 c7                	mov    %eax,%edi
    7a1f:	e8 ee e7 ff ff       	callq  6212 <safe_mul_func_int8_t_s_s>
    7a24:	66 98                	cbtw   
    7a26:	0f b7 c0             	movzwl %ax,%eax
    7a29:	44 89 f6             	mov    %r14d,%esi
    7a2c:	89 c7                	mov    %eax,%edi
    7a2e:	e8 0a f3 ff ff       	callq  6d3d <safe_mul_func_uint16_t_u_u>
    7a33:	0f b7 c0             	movzwl %ax,%eax
    7a36:	48 89 c7             	mov    %rax,%rdi
    7a39:	e8 d8 ed ff ff       	callq  6816 <safe_unary_minus_func_int64_t_s>
    7a3e:	be ff ff ff ff       	mov    $0xffffffff,%esi
    7a43:	89 c7                	mov    %eax,%edi
    7a45:	e8 6c eb ff ff       	callq  65b6 <safe_add_func_int32_t_s_s>
    7a4a:	0f b6 45 af          	movzbl -0x51(%rbp),%eax
    7a4e:	0f be c0             	movsbl %al,%eax
    7a51:	be ff ff ff ff       	mov    $0xffffffff,%esi
    7a56:	89 c7                	mov    %eax,%edi
    7a58:	e8 95 e7 ff ff       	callq  61f2 <safe_sub_func_int8_t_s_s>
    7a5d:	0f be d0             	movsbl %al,%edx
    7a60:	0f b6 45 af          	movzbl -0x51(%rbp),%eax
    7a64:	89 d6                	mov    %edx,%esi
    7a66:	89 c7                	mov    %eax,%edi
    7a68:	e8 90 f4 ff ff       	callq  6efd <safe_mod_func_uint32_t_u_u>
    7a6d:	0f b7 d0             	movzwl %ax,%edx
    7a70:	0f b6 45 af          	movzbl -0x51(%rbp),%eax
    7a74:	89 d6                	mov    %edx,%esi
    7a76:	89 c7                	mov    %eax,%edi
    7a78:	e8 c0 f2 ff ff       	callq  6d3d <safe_mul_func_uint16_t_u_u>
    7a7d:	0f b7 d0             	movzwl %ax,%edx
    7a80:	0f bf 45 8c          	movswl -0x74(%rbp),%eax
    7a84:	39 c2                	cmp    %eax,%edx
    7a86:	0f 9d c0             	setge  %al
    7a89:	0f b6 c0             	movzbl %al,%eax
    7a8c:	be 85 86 7c 0d       	mov    $0xd7c8685,%esi
    7a91:	89 c7                	mov    %eax,%edi
    7a93:	e8 65 f4 ff ff       	callq  6efd <safe_mod_func_uint32_t_u_u>
    7a98:	85 c0                	test   %eax,%eax
    7a9a:	75 07                	jne    7aa3 <func_5+0x188>
    7a9c:	66 83 7d 8c 00       	cmpw   $0x0,-0x74(%rbp)
    7aa1:	74 07                	je     7aaa <func_5+0x18f>
    7aa3:	b8 01 00 00 00       	mov    $0x1,%eax
    7aa8:	eb 05                	jmp    7aaf <func_5+0x194>
    7aaa:	b8 00 00 00 00       	mov    $0x0,%eax
    7aaf:	48 98                	cltq   
    7ab1:	48 be 04 af 4b a7 1f 	movabs $0x5e6e231fa74baf04,%rsi
    7ab8:	23 6e 5e 
    7abb:	48 89 c7             	mov    %rax,%rdi
    7abe:	e8 88 f5 ff ff       	callq  704b <safe_sub_func_uint64_t_u_u>
    7ac3:	48 89 c2             	mov    %rax,%rdx
    7ac6:	48 8b 05 93 72 01 00 	mov    0x17293(%rip),%rax        # 1ed60 <g_859>
    7acd:	48 8b 00             	mov    (%rax),%rax
    7ad0:	88 10                	mov    %dl,(%rax)
    7ad2:	0f b6 00             	movzbl (%rax),%eax
    7ad5:	0f b6 c0             	movzbl %al,%eax
    7ad8:	be fa 00 00 00       	mov    $0xfa,%esi
    7add:	89 c7                	mov    %eax,%edi
    7adf:	e8 ca f0 ff ff       	callq  6bae <safe_mod_func_uint8_t_u_u>
    7ae4:	32 45 af             	xor    -0x51(%rbp),%al
    7ae7:	0f b6 c0             	movzbl %al,%eax
    7aea:	44 89 ee             	mov    %r13d,%esi
    7aed:	89 c7                	mov    %eax,%edi
    7aef:	e8 84 f0 ff ff       	callq  6b78 <safe_sub_func_uint8_t_u_u>
    7af4:	0f b6 c0             	movzbl %al,%eax
    7af7:	4c 89 e6             	mov    %r12,%rsi
    7afa:	48 89 c7             	mov    %rax,%rdi
    7afd:	e8 ad f5 ff ff       	callq  70af <safe_div_func_uint64_t_u_u>
    7b02:	89 c2                	mov    %eax,%edx
    7b04:	48 8b 45 d0          	mov    -0x30(%rbp),%rax
    7b08:	66 89 10             	mov    %dx,(%rax)
    7b0b:	48 8b 45 d0          	mov    -0x30(%rbp),%rax
    7b0f:	0f b7 00             	movzwl (%rax),%eax
    7b12:	0f b7 c0             	movzwl %ax,%eax
    7b15:	48 33 45 b8          	xor    -0x48(%rbp),%rax
    7b19:	48 89 de             	mov    %rbx,%rsi
    7b1c:	48 89 c7             	mov    %rax,%rdi
    7b1f:	e8 8b f5 ff ff       	callq  70af <safe_div_func_uint64_t_u_u>
    7b24:	48 85 c0             	test   %rax,%rax
    7b27:	8b 45 9c             	mov    -0x64(%rbp),%eax
    7b2a:	21 45 b4             	and    %eax,-0x4c(%rbp)
    7b2d:	8b 55 b4             	mov    -0x4c(%rbp),%edx
    7b30:	48 8b 45 b8          	mov    -0x48(%rbp),%rax
    7b34:	89 c1                	mov    %eax,%ecx
    7b36:	48 8b 05 9b 6f 01 00 	mov    0x16f9b(%rip),%rax        # 1ead8 <g_449>
    7b3d:	09 ca                	or     %ecx,%edx
    7b3f:	89 10                	mov    %edx,(%rax)
    7b41:	48 c7 45 90 00 00 00 	movq   $0x0,-0x70(%rbp)
    7b48:	00 
    7b49:	e9 9b 00 00 00       	jmpq   7be9 <func_5+0x2ce>
    7b4e:	c7 05 74 56 01 00 12 	movl   $0x12,0x15674(%rip)        # 1d1cc <g_2272>
    7b55:	00 00 00 
    7b58:	eb 6f                	jmp    7bc9 <func_5+0x2ae>
    7b5a:	48 c7 45 d8 00 00 00 	movq   $0x0,-0x28(%rbp)
    7b61:	00 
    7b62:	48 8b 05 e7 71 01 00 	mov    0x171e7(%rip),%rax        # 1ed50 <g_811>
    7b69:	48 8b 00             	mov    (%rax),%rax
    7b6c:	48 8b 55 d8          	mov    -0x28(%rbp),%rdx
    7b70:	48 89 10             	mov    %rdx,(%rax)
    7b73:	be fb 00 00 00       	mov    $0xfb,%esi
    7b78:	bf 01 00 00 00       	mov    $0x1,%edi
    7b7d:	e8 2c f0 ff ff       	callq  6bae <safe_mod_func_uint8_t_u_u>
    7b82:	0f be c0             	movsbl %al,%eax
    7b85:	be 02 00 00 00       	mov    $0x2,%esi
    7b8a:	89 c7                	mov    %eax,%edi
    7b8c:	e8 5d e7 ff ff       	callq  62ee <safe_lshift_func_int8_t_s_u>
    7b91:	89 c2                	mov    %eax,%edx
    7b93:	48 8b 05 16 78 01 00 	mov    0x17816(%rip),%rax        # 1f3b0 <g_2206>
    7b9a:	48 8b 00             	mov    (%rax),%rax
    7b9d:	48 8b 00             	mov    (%rax),%rax
    7ba0:	48 8b 00             	mov    (%rax),%rax
    7ba3:	48 8b 00             	mov    (%rax),%rax
    7ba6:	0f be d2             	movsbl %dl,%edx
    7ba9:	89 10                	mov    %edx,(%rax)
    7bab:	8b 05 1b 56 01 00    	mov    0x1561b(%rip),%eax        # 1d1cc <g_2272>
    7bb1:	0f b6 c0             	movzbl %al,%eax
    7bb4:	be 07 00 00 00       	mov    $0x7,%esi
    7bb9:	89 c7                	mov    %eax,%edi
    7bbb:	e8 b8 ef ff ff       	callq  6b78 <safe_sub_func_uint8_t_u_u>
    7bc0:	0f b6 c0             	movzbl %al,%eax
    7bc3:	89 05 03 56 01 00    	mov    %eax,0x15603(%rip)        # 1d1cc <g_2272>
    7bc9:	8b 05 fd 55 01 00    	mov    0x155fd(%rip),%eax        # 1d1cc <g_2272>
    7bcf:	83 f8 04             	cmp    $0x4,%eax
    7bd2:	75 86                	jne    7b5a <func_5+0x23f>
    7bd4:	48 8b 45 90          	mov    -0x70(%rbp),%rax
    7bd8:	be 02 00 00 00       	mov    $0x2,%esi
    7bdd:	48 89 c7             	mov    %rax,%rdi
    7be0:	e8 49 f4 ff ff       	callq  702e <safe_add_func_uint64_t_u_u>
    7be5:	48 89 45 90          	mov    %rax,-0x70(%rbp)
    7be9:	48 83 7d 90 1d       	cmpq   $0x1d,-0x70(%rbp)
    7bee:	0f 8e 5a ff ff ff    	jle    7b4e <func_5+0x233>
    7bf4:	0f b6 45 98          	movzbl -0x68(%rbp),%eax
    7bf8:	48 83 c4 58          	add    $0x58,%rsp
    7bfc:	5b                   	pop    %rbx
    7bfd:	41 5c                	pop    %r12
    7bff:	41 5d                	pop    %r13
    7c01:	41 5e                	pop    %r14
    7c03:	5d                   	pop    %rbp
    7c04:	c3                   	retq   

0000000000007c05 <func_12>:
    7c05:	f3 0f 1e fa          	endbr64 
    7c09:	55                   	push   %rbp
    7c0a:	48 89 e5             	mov    %rsp,%rbp
    7c0d:	89 7d fc             	mov    %edi,-0x4(%rbp)
    7c10:	48 89 75 f0          	mov    %rsi,-0x10(%rbp)
    7c14:	48 8b 05 8d 77 01 00 	mov    0x1778d(%rip),%rax        # 1f3a8 <g_2207>
    7c1b:	48 8b 00             	mov    (%rax),%rax
    7c1e:	48 8b 00             	mov    (%rax),%rax
    7c21:	48 8b 00             	mov    (%rax),%rax
    7c24:	c7 00 f9 ff ff ff    	movl   $0xfffffff9,(%rax)
    7c2a:	8b 08                	mov    (%rax),%ecx
    7c2c:	48 8b 05 a5 6e 01 00 	mov    0x16ea5(%rip),%rax        # 1ead8 <g_449>
    7c33:	8b 10                	mov    (%rax),%edx
    7c35:	48 8b 05 9c 6e 01 00 	mov    0x16e9c(%rip),%rax        # 1ead8 <g_449>
    7c3c:	21 ca                	and    %ecx,%edx
    7c3e:	89 10                	mov    %edx,(%rax)
    7c40:	8b 45 fc             	mov    -0x4(%rbp),%eax
    7c43:	5d                   	pop    %rbp
    7c44:	c3                   	retq   

0000000000007c45 <func_20>:
    7c45:	f3 0f 1e fa          	endbr64 
    7c49:	55                   	push   %rbp
    7c4a:	48 89 e5             	mov    %rsp,%rbp
    7c4d:	53                   	push   %rbx
    7c4e:	48 81 ec 00 10 00 00 	sub    $0x1000,%rsp
    7c55:	48 83 0c 24 00       	orq    $0x0,(%rsp)
    7c5a:	48 81 ec 28 09 00 00 	sub    $0x928,%rsp
    7c61:	89 f8                	mov    %edi,%eax
    7c63:	89 b5 e8 e6 ff ff    	mov    %esi,-0x1918(%rbp)
    7c69:	89 95 e4 e6 ff ff    	mov    %edx,-0x191c(%rbp)
    7c6f:	89 8d e0 e6 ff ff    	mov    %ecx,-0x1920(%rbp)
    7c75:	4c 89 85 d8 e6 ff ff 	mov    %r8,-0x1928(%rbp)
    7c7c:	66 89 85 ec e6 ff ff 	mov    %ax,-0x1914(%rbp)
    7c83:	64 48 8b 04 25 28 00 	mov    %fs:0x28,%rax
    7c8a:	00 00 
    7c8c:	48 89 45 e8          	mov    %rax,-0x18(%rbp)
    7c90:	31 c0                	xor    %eax,%eax
    7c92:	48 8d 05 ef 70 01 00 	lea    0x170ef(%rip),%rax        # 1ed88 <g_912+0x8>
    7c99:	48 89 85 38 e7 ff ff 	mov    %rax,-0x18c8(%rbp)
    7ca0:	48 8d 85 38 e7 ff ff 	lea    -0x18c8(%rbp),%rax
    7ca7:	48 89 85 a0 e7 ff ff 	mov    %rax,-0x1860(%rbp)
    7cae:	48 8d 05 5b 71 01 00 	lea    0x1715b(%rip),%rax        # 1ee10 <g_1096>
    7cb5:	48 89 85 b0 e8 ff ff 	mov    %rax,-0x1750(%rbp)
    7cbc:	48 8d 05 4d 71 01 00 	lea    0x1714d(%rip),%rax        # 1ee10 <g_1096>
    7cc3:	48 89 85 b8 e8 ff ff 	mov    %rax,-0x1748(%rbp)
    7cca:	48 8d 05 3f 71 01 00 	lea    0x1713f(%rip),%rax        # 1ee10 <g_1096>
    7cd1:	48 89 85 c0 e8 ff ff 	mov    %rax,-0x1740(%rbp)
    7cd8:	48 8d 05 31 71 01 00 	lea    0x17131(%rip),%rax        # 1ee10 <g_1096>
    7cdf:	48 89 85 c8 e8 ff ff 	mov    %rax,-0x1738(%rbp)
    7ce6:	48 8d 05 23 71 01 00 	lea    0x17123(%rip),%rax        # 1ee10 <g_1096>
    7ced:	48 89 85 d0 e8 ff ff 	mov    %rax,-0x1730(%rbp)
    7cf4:	48 8d 05 15 71 01 00 	lea    0x17115(%rip),%rax        # 1ee10 <g_1096>
    7cfb:	48 89 85 d8 e8 ff ff 	mov    %rax,-0x1728(%rbp)
    7d02:	48 8d 05 07 71 01 00 	lea    0x17107(%rip),%rax        # 1ee10 <g_1096>
    7d09:	48 89 85 e0 e8 ff ff 	mov    %rax,-0x1720(%rbp)
    7d10:	48 8d 05 f9 70 01 00 	lea    0x170f9(%rip),%rax        # 1ee10 <g_1096>
    7d17:	48 89 85 e8 e8 ff ff 	mov    %rax,-0x1718(%rbp)
    7d1e:	48 8d 05 eb 70 01 00 	lea    0x170eb(%rip),%rax        # 1ee10 <g_1096>
    7d25:	48 89 85 f0 e8 ff ff 	mov    %rax,-0x1710(%rbp)
    7d2c:	48 8d 05 dd 70 01 00 	lea    0x170dd(%rip),%rax        # 1ee10 <g_1096>
    7d33:	48 89 85 f8 e8 ff ff 	mov    %rax,-0x1708(%rbp)
    7d3a:	48 8d 85 b0 e8 ff ff 	lea    -0x1750(%rbp),%rax
    7d41:	48 83 c0 10          	add    $0x10,%rax
    7d45:	48 89 85 40 e7 ff ff 	mov    %rax,-0x18c0(%rbp)
    7d4c:	48 8d 85 a0 e9 ff ff 	lea    -0x1660(%rbp),%rax
    7d53:	48 8d 15 26 56 01 00 	lea    0x15626(%rip),%rdx        # 1d380 <g_2905+0x18>
    7d5a:	b9 30 00 00 00       	mov    $0x30,%ecx
    7d5f:	48 89 c7             	mov    %rax,%rdi
    7d62:	48 89 d6             	mov    %rdx,%rsi
    7d65:	f3 48 a5             	rep movsq %ds:(%rsi),%es:(%rdi)
    7d68:	48 c7 85 70 e8 ff ff 	movq   $0x0,-0x1790(%rbp)
    7d6f:	00 00 00 00 
    7d73:	48 c7 85 78 e8 ff ff 	movq   $0x0,-0x1788(%rbp)
    7d7a:	00 00 00 00 
    7d7e:	48 c7 85 80 e8 ff ff 	movq   $0x0,-0x1780(%rbp)
    7d85:	00 00 00 00 
    7d89:	48 c7 85 88 e8 ff ff 	movq   $0x0,-0x1778(%rbp)
    7d90:	00 00 00 00 
    7d94:	48 c7 85 90 e8 ff ff 	movq   $0x0,-0x1770(%rbp)
    7d9b:	00 00 00 00 
    7d9f:	48 c7 85 98 e8 ff ff 	movq   $0x0,-0x1768(%rbp)
    7da6:	00 00 00 00 
    7daa:	48 c7 85 a0 e8 ff ff 	movq   $0x0,-0x1760(%rbp)
    7db1:	00 00 00 00 
    7db5:	48 c7 85 a8 e8 ff ff 	movq   $0x0,-0x1758(%rbp)
    7dbc:	00 00 00 00 
    7dc0:	48 c7 85 48 e7 ff ff 	movq   $0x0,-0x18b8(%rbp)
    7dc7:	00 00 00 00 
    7dcb:	48 8d 85 48 e7 ff ff 	lea    -0x18b8(%rbp),%rax
    7dd2:	48 89 85 a8 e7 ff ff 	mov    %rax,-0x1858(%rbp)
    7dd9:	48 8d 05 b8 6d 01 00 	lea    0x16db8(%rip),%rax        # 1eb98 <g_483+0x98>
    7de0:	48 89 85 b0 e7 ff ff 	mov    %rax,-0x1850(%rbp)
    7de7:	48 8d 85 b0 ec ff ff 	lea    -0x1350(%rbp),%rax
    7dee:	48 8d 15 0b 57 01 00 	lea    0x1570b(%rip),%rdx        # 1d500 <g_2905+0x198>
    7df5:	b9 48 00 00 00       	mov    $0x48,%ecx
    7dfa:	48 89 c7             	mov    %rax,%rdi
    7dfd:	48 89 d6             	mov    %rdx,%rsi
    7e00:	f3 48 a5             	rep movsq %ds:(%rsi),%es:(%rdi)
    7e03:	48 8d 05 9a 52 01 00 	lea    0x1529a(%rip),%rax        # 1d0a4 <g_109>
    7e0a:	48 89 85 b8 e7 ff ff 	mov    %rax,-0x1848(%rbp)
    7e11:	c6 85 f6 e6 ff ff 80 	movb   $0x80,-0x190a(%rbp)
    7e18:	48 8d 85 70 f1 ff ff 	lea    -0xe90(%rbp),%rax
    7e1f:	48 8d 15 1a 59 01 00 	lea    0x1591a(%rip),%rdx        # 1d740 <g_2905+0x3d8>
    7e26:	b9 5a 00 00 00       	mov    $0x5a,%ecx
    7e2b:	48 89 c7             	mov    %rax,%rdi
    7e2e:	48 89 d6             	mov    %rdx,%rsi
    7e31:	f3 48 a5             	rep movsq %ds:(%rsi),%es:(%rdi)
    7e34:	c7 85 0c e7 ff ff 06 	movl   $0x8758e006,-0x18f4(%rbp)
    7e3b:	e0 58 87 
    7e3e:	66 c7 85 fa e6 ff ff 	movw   $0x2e59,-0x1906(%rbp)
    7e45:	59 2e 
    7e47:	c7 85 00 e7 ff ff 8e 	movl   $0x757e908e,-0x1900(%rbp)
    7e4e:	90 7e 75 
    7e51:	48 8d 05 f8 6e 01 00 	lea    0x16ef8(%rip),%rax        # 1ed50 <g_811>
    7e58:	48 89 85 50 e7 ff ff 	mov    %rax,-0x18b0(%rbp)
    7e5f:	c7 85 10 e7 ff ff f8 	movl   $0xfffffff8,-0x18f0(%rbp)
    7e66:	ff ff ff 
    7e69:	48 c7 85 c0 e7 ff ff 	movq   $0x9,-0x1840(%rbp)
    7e70:	09 00 00 00 
    7e74:	66 c7 85 fc e6 ff ff 	movw   $0x1,-0x1904(%rbp)
    7e7b:	01 00 
    7e7d:	c7 85 14 e7 ff ff 07 	movl   $0x7,-0x18ec(%rbp)
    7e84:	00 00 00 
    7e87:	48 8d 05 42 7a 01 00 	lea    0x17a42(%rip),%rax        # 1f8d0 <g_2440>
    7e8e:	48 89 85 c8 e7 ff ff 	mov    %rax,-0x1838(%rbp)
    7e95:	48 8d 05 8c 6b 01 00 	lea    0x16b8c(%rip),%rax        # 1ea28 <g_352>
    7e9c:	48 89 85 58 e7 ff ff 	mov    %rax,-0x18a8(%rbp)
    7ea3:	48 8d 05 06 6c 01 00 	lea    0x16c06(%rip),%rax        # 1eab0 <g_436+0x70>
    7eaa:	48 89 85 d0 e7 ff ff 	mov    %rax,-0x1830(%rbp)
    7eb1:	48 8d 05 10 6c 01 00 	lea    0x16c10(%rip),%rax        # 1eac8 <g_436+0x88>
    7eb8:	48 89 85 40 f4 ff ff 	mov    %rax,-0xbc0(%rbp)
    7ebf:	48 8d 85 58 e7 ff ff 	lea    -0x18a8(%rbp),%rax
    7ec6:	48 89 85 48 f4 ff ff 	mov    %rax,-0xbb8(%rbp)
    7ecd:	48 8d 85 58 e7 ff ff 	lea    -0x18a8(%rbp),%rax
    7ed4:	48 89 85 50 f4 ff ff 	mov    %rax,-0xbb0(%rbp)
    7edb:	48 8d 85 58 e7 ff ff 	lea    -0x18a8(%rbp),%rax
    7ee2:	48 89 85 58 f4 ff ff 	mov    %rax,-0xba8(%rbp)
    7ee9:	48 8d 85 58 e7 ff ff 	lea    -0x18a8(%rbp),%rax
    7ef0:	48 89 85 60 f4 ff ff 	mov    %rax,-0xba0(%rbp)
    7ef7:	48 8d 05 ca 6b 01 00 	lea    0x16bca(%rip),%rax        # 1eac8 <g_436+0x88>
    7efe:	48 89 85 68 f4 ff ff 	mov    %rax,-0xb98(%rbp)
    7f05:	48 c7 85 70 f4 ff ff 	movq   $0x0,-0xb90(%rbp)
    7f0c:	00 00 00 00 
    7f10:	48 8d 05 99 6b 01 00 	lea    0x16b99(%rip),%rax        # 1eab0 <g_436+0x70>
    7f17:	48 89 85 78 f4 ff ff 	mov    %rax,-0xb88(%rbp)
    7f1e:	48 8d 85 58 e7 ff ff 	lea    -0x18a8(%rbp),%rax
    7f25:	48 89 85 80 f4 ff ff 	mov    %rax,-0xb80(%rbp)
    7f2c:	48 8d 05 7d 6b 01 00 	lea    0x16b7d(%rip),%rax        # 1eab0 <g_436+0x70>
    7f33:	48 89 85 88 f4 ff ff 	mov    %rax,-0xb78(%rbp)
    7f3a:	48 8d 05 17 6b 01 00 	lea    0x16b17(%rip),%rax        # 1ea58 <g_436+0x18>
    7f41:	48 89 85 90 f4 ff ff 	mov    %rax,-0xb70(%rbp)
    7f48:	48 8d 85 58 e7 ff ff 	lea    -0x18a8(%rbp),%rax
    7f4f:	48 89 85 98 f4 ff ff 	mov    %rax,-0xb68(%rbp)
    7f56:	48 8d 85 58 e7 ff ff 	lea    -0x18a8(%rbp),%rax
    7f5d:	48 89 85 a0 f4 ff ff 	mov    %rax,-0xb60(%rbp)
    7f64:	48 8d 05 45 6b 01 00 	lea    0x16b45(%rip),%rax        # 1eab0 <g_436+0x70>
    7f6b:	48 89 85 a8 f4 ff ff 	mov    %rax,-0xb58(%rbp)
    7f72:	48 8d 85 58 e7 ff ff 	lea    -0x18a8(%rbp),%rax
    7f79:	48 89 85 b0 f4 ff ff 	mov    %rax,-0xb50(%rbp)
    7f80:	48 8d 05 f1 6a 01 00 	lea    0x16af1(%rip),%rax        # 1ea78 <g_436+0x38>
    7f87:	48 89 85 b8 f4 ff ff 	mov    %rax,-0xb48(%rbp)
    7f8e:	48 8d 05 1b 6b 01 00 	lea    0x16b1b(%rip),%rax        # 1eab0 <g_436+0x70>
    7f95:	48 89 85 c0 f4 ff ff 	mov    %rax,-0xb40(%rbp)
    7f9c:	48 8d 05 f5 6a 01 00 	lea    0x16af5(%rip),%rax        # 1ea98 <g_436+0x58>
    7fa3:	48 89 85 c8 f4 ff ff 	mov    %rax,-0xb38(%rbp)
    7faa:	48 8d 05 9f 6a 01 00 	lea    0x16a9f(%rip),%rax        # 1ea50 <g_436+0x10>
    7fb1:	48 89 85 d0 f4 ff ff 	mov    %rax,-0xb30(%rbp)
    7fb8:	48 8d 85 58 e7 ff ff 	lea    -0x18a8(%rbp),%rax
    7fbf:	48 89 85 d8 f4 ff ff 	mov    %rax,-0xb28(%rbp)
    7fc6:	48 8d 05 e3 6a 01 00 	lea    0x16ae3(%rip),%rax        # 1eab0 <g_436+0x70>
    7fcd:	48 89 85 e0 f4 ff ff 	mov    %rax,-0xb20(%rbp)
    7fd4:	48 8d 05 d5 6a 01 00 	lea    0x16ad5(%rip),%rax        # 1eab0 <g_436+0x70>
    7fdb:	48 89 85 e8 f4 ff ff 	mov    %rax,-0xb18(%rbp)
    7fe2:	48 c7 85 f0 f4 ff ff 	movq   $0x0,-0xb10(%rbp)
    7fe9:	00 00 00 00 
    7fed:	48 8d 05 bc 6a 01 00 	lea    0x16abc(%rip),%rax        # 1eab0 <g_436+0x70>
    7ff4:	48 89 85 f8 f4 ff ff 	mov    %rax,-0xb08(%rbp)
    7ffb:	48 8d 05 66 6a 01 00 	lea    0x16a66(%rip),%rax        # 1ea68 <g_436+0x28>
    8002:	48 89 85 00 f5 ff ff 	mov    %rax,-0xb00(%rbp)
    8009:	48 8d 05 b0 6a 01 00 	lea    0x16ab0(%rip),%rax        # 1eac0 <g_436+0x80>
    8010:	48 89 85 08 f5 ff ff 	mov    %rax,-0xaf8(%rbp)
    8017:	48 8d 05 92 6a 01 00 	lea    0x16a92(%rip),%rax        # 1eab0 <g_436+0x70>
    801e:	48 89 85 10 f5 ff ff 	mov    %rax,-0xaf0(%rbp)
    8025:	48 8d 85 58 e7 ff ff 	lea    -0x18a8(%rbp),%rax
    802c:	48 89 85 18 f5 ff ff 	mov    %rax,-0xae8(%rbp)
    8033:	48 c7 85 20 f5 ff ff 	movq   $0x0,-0xae0(%rbp)
    803a:	00 00 00 00 
    803e:	48 8d 05 43 6a 01 00 	lea    0x16a43(%rip),%rax        # 1ea88 <g_436+0x48>
    8045:	48 89 85 28 f5 ff ff 	mov    %rax,-0xad8(%rbp)
    804c:	48 8d 85 58 e7 ff ff 	lea    -0x18a8(%rbp),%rax
    8053:	48 89 85 30 f5 ff ff 	mov    %rax,-0xad0(%rbp)
    805a:	48 8d 05 17 6a 01 00 	lea    0x16a17(%rip),%rax        # 1ea78 <g_436+0x38>
    8061:	48 89 85 38 f5 ff ff 	mov    %rax,-0xac8(%rbp)
    8068:	48 8d 85 58 e7 ff ff 	lea    -0x18a8(%rbp),%rax
    806f:	48 89 85 40 f5 ff ff 	mov    %rax,-0xac0(%rbp)
    8076:	48 8d 85 58 e7 ff ff 	lea    -0x18a8(%rbp),%rax
    807d:	48 89 85 48 f5 ff ff 	mov    %rax,-0xab8(%rbp)
    8084:	48 c7 85 50 f5 ff ff 	movq   $0x0,-0xab0(%rbp)
    808b:	00 00 00 00 
    808f:	48 8d 85 58 e7 ff ff 	lea    -0x18a8(%rbp),%rax
    8096:	48 89 85 58 f5 ff ff 	mov    %rax,-0xaa8(%rbp)
    809d:	48 8d 85 58 e7 ff ff 	lea    -0x18a8(%rbp),%rax
    80a4:	48 89 85 60 f5 ff ff 	mov    %rax,-0xaa0(%rbp)
    80ab:	48 8d 05 ce 69 01 00 	lea    0x169ce(%rip),%rax        # 1ea80 <g_436+0x40>
    80b2:	48 89 85 68 f5 ff ff 	mov    %rax,-0xa98(%rbp)
    80b9:	48 8d 05 98 69 01 00 	lea    0x16998(%rip),%rax        # 1ea58 <g_436+0x18>
    80c0:	48 89 85 70 f5 ff ff 	mov    %rax,-0xa90(%rbp)
    80c7:	48 8d 85 58 e7 ff ff 	lea    -0x18a8(%rbp),%rax
    80ce:	48 89 85 78 f5 ff ff 	mov    %rax,-0xa88(%rbp)
    80d5:	48 8d 05 e4 69 01 00 	lea    0x169e4(%rip),%rax        # 1eac0 <g_436+0x80>
    80dc:	48 89 85 80 f5 ff ff 	mov    %rax,-0xa80(%rbp)
    80e3:	48 8d 05 8e 69 01 00 	lea    0x1698e(%rip),%rax        # 1ea78 <g_436+0x38>
    80ea:	48 89 85 88 f5 ff ff 	mov    %rax,-0xa78(%rbp)
    80f1:	48 8d 05 90 69 01 00 	lea    0x16990(%rip),%rax        # 1ea88 <g_436+0x48>
    80f8:	48 89 85 90 f5 ff ff 	mov    %rax,-0xa70(%rbp)
    80ff:	48 8d 05 3a 69 01 00 	lea    0x1693a(%rip),%rax        # 1ea40 <g_436>
    8106:	48 89 85 98 f5 ff ff 	mov    %rax,-0xa68(%rbp)
    810d:	48 8d 05 44 69 01 00 	lea    0x16944(%rip),%rax        # 1ea58 <g_436+0x18>
    8114:	48 89 85 a0 f5 ff ff 	mov    %rax,-0xa60(%rbp)
    811b:	48 8d 05 66 69 01 00 	lea    0x16966(%rip),%rax        # 1ea88 <g_436+0x48>
    8122:	48 89 85 a8 f5 ff ff 	mov    %rax,-0xa58(%rbp)
    8129:	48 8d 85 58 e7 ff ff 	lea    -0x18a8(%rbp),%rax
    8130:	48 89 85 b0 f5 ff ff 	mov    %rax,-0xa50(%rbp)
    8137:	48 c7 85 b8 f5 ff ff 	movq   $0x0,-0xa48(%rbp)
    813e:	00 00 00 00 
    8142:	48 8d 05 1f 69 01 00 	lea    0x1691f(%rip),%rax        # 1ea68 <g_436+0x28>
    8149:	48 89 85 c0 f5 ff ff 	mov    %rax,-0xa40(%rbp)
    8150:	48 8d 85 58 e7 ff ff 	lea    -0x18a8(%rbp),%rax
    8157:	48 89 85 c8 f5 ff ff 	mov    %rax,-0xa38(%rbp)
    815e:	48 8d 85 58 e7 ff ff 	lea    -0x18a8(%rbp),%rax
    8165:	48 89 85 d0 f5 ff ff 	mov    %rax,-0xa30(%rbp)
    816c:	48 8d 05 0d 69 01 00 	lea    0x1690d(%rip),%rax        # 1ea80 <g_436+0x40>
    8173:	48 89 85 d8 f5 ff ff 	mov    %rax,-0xa28(%rbp)
    817a:	48 c7 85 e0 f5 ff ff 	movq   $0x0,-0xa20(%rbp)
    8181:	00 00 00 00 
    8185:	48 8d 05 c4 68 01 00 	lea    0x168c4(%rip),%rax        # 1ea50 <g_436+0x10>
    818c:	48 89 85 e8 f5 ff ff 	mov    %rax,-0xa18(%rbp)
    8193:	48 8d 05 16 69 01 00 	lea    0x16916(%rip),%rax        # 1eab0 <g_436+0x70>
    819a:	48 89 85 f0 f5 ff ff 	mov    %rax,-0xa10(%rbp)
    81a1:	48 8d 85 58 e7 ff ff 	lea    -0x18a8(%rbp),%rax
    81a8:	48 89 85 f8 f5 ff ff 	mov    %rax,-0xa08(%rbp)
    81af:	48 8d 85 58 e7 ff ff 	lea    -0x18a8(%rbp),%rax
    81b6:	48 89 85 00 f6 ff ff 	mov    %rax,-0xa00(%rbp)
    81bd:	48 8d 85 58 e7 ff ff 	lea    -0x18a8(%rbp),%rax
    81c4:	48 89 85 08 f6 ff ff 	mov    %rax,-0x9f8(%rbp)
    81cb:	48 8d 85 58 e7 ff ff 	lea    -0x18a8(%rbp),%rax
    81d2:	48 89 85 10 f6 ff ff 	mov    %rax,-0x9f0(%rbp)
    81d9:	48 c7 85 18 f6 ff ff 	movq   $0x0,-0x9e8(%rbp)
    81e0:	00 00 00 00 
    81e4:	48 8d 05 95 68 01 00 	lea    0x16895(%rip),%rax        # 1ea80 <g_436+0x40>
    81eb:	48 89 85 20 f6 ff ff 	mov    %rax,-0x9e0(%rbp)
    81f2:	48 8d 85 58 e7 ff ff 	lea    -0x18a8(%rbp),%rax
    81f9:	48 89 85 28 f6 ff ff 	mov    %rax,-0x9d8(%rbp)
    8200:	48 8d 05 39 68 01 00 	lea    0x16839(%rip),%rax        # 1ea40 <g_436>
    8207:	48 89 85 30 f6 ff ff 	mov    %rax,-0x9d0(%rbp)
    820e:	48 8d 85 58 e7 ff ff 	lea    -0x18a8(%rbp),%rax
    8215:	48 89 85 38 f6 ff ff 	mov    %rax,-0x9c8(%rbp)
    821c:	48 8d 05 8d 68 01 00 	lea    0x1688d(%rip),%rax        # 1eab0 <g_436+0x70>
    8223:	48 89 85 40 f6 ff ff 	mov    %rax,-0x9c0(%rbp)
    822a:	48 8d 05 7f 68 01 00 	lea    0x1687f(%rip),%rax        # 1eab0 <g_436+0x70>
    8231:	48 89 85 48 f6 ff ff 	mov    %rax,-0x9b8(%rbp)
    8238:	48 8d 05 71 68 01 00 	lea    0x16871(%rip),%rax        # 1eab0 <g_436+0x70>
    823f:	48 89 85 50 f6 ff ff 	mov    %rax,-0x9b0(%rbp)
    8246:	48 8d 05 63 68 01 00 	lea    0x16863(%rip),%rax        # 1eab0 <g_436+0x70>
    824d:	48 89 85 58 f6 ff ff 	mov    %rax,-0x9a8(%rbp)
    8254:	48 8d 05 55 68 01 00 	lea    0x16855(%rip),%rax        # 1eab0 <g_436+0x70>
    825b:	48 89 85 60 f6 ff ff 	mov    %rax,-0x9a0(%rbp)
    8262:	48 8d 05 1f 68 01 00 	lea    0x1681f(%rip),%rax        # 1ea88 <g_436+0x48>
    8269:	48 89 85 68 f6 ff ff 	mov    %rax,-0x998(%rbp)
    8270:	48 8d 05 39 68 01 00 	lea    0x16839(%rip),%rax        # 1eab0 <g_436+0x70>
    8277:	48 89 85 70 f6 ff ff 	mov    %rax,-0x990(%rbp)
    827e:	48 8d 05 c3 67 01 00 	lea    0x167c3(%rip),%rax        # 1ea48 <g_436+0x8>
    8285:	48 89 85 78 f6 ff ff 	mov    %rax,-0x988(%rbp)
    828c:	48 8d 85 58 e7 ff ff 	lea    -0x18a8(%rbp),%rax
    8293:	48 89 85 80 f6 ff ff 	mov    %rax,-0x980(%rbp)
    829a:	48 8d 85 58 e7 ff ff 	lea    -0x18a8(%rbp),%rax
    82a1:	48 89 85 88 f6 ff ff 	mov    %rax,-0x978(%rbp)
    82a8:	48 c7 85 90 f6 ff ff 	movq   $0x0,-0x970(%rbp)
    82af:	00 00 00 00 
    82b3:	48 8d 05 f6 67 01 00 	lea    0x167f6(%rip),%rax        # 1eab0 <g_436+0x70>
    82ba:	48 89 85 98 f6 ff ff 	mov    %rax,-0x968(%rbp)
    82c1:	48 8d 85 58 e7 ff ff 	lea    -0x18a8(%rbp),%rax
    82c8:	48 89 85 a0 f6 ff ff 	mov    %rax,-0x960(%rbp)
    82cf:	48 8d 05 82 67 01 00 	lea    0x16782(%rip),%rax        # 1ea58 <g_436+0x18>
    82d6:	48 89 85 a8 f6 ff ff 	mov    %rax,-0x958(%rbp)
    82dd:	48 8d 85 58 e7 ff ff 	lea    -0x18a8(%rbp),%rax
    82e4:	48 89 85 b0 f6 ff ff 	mov    %rax,-0x950(%rbp)
    82eb:	48 8d 05 be 67 01 00 	lea    0x167be(%rip),%rax        # 1eab0 <g_436+0x70>
    82f2:	48 89 85 b8 f6 ff ff 	mov    %rax,-0x948(%rbp)
    82f9:	48 8d 05 78 67 01 00 	lea    0x16778(%rip),%rax        # 1ea78 <g_436+0x38>
    8300:	48 89 85 c0 f6 ff ff 	mov    %rax,-0x940(%rbp)
    8307:	48 8d 85 58 e7 ff ff 	lea    -0x18a8(%rbp),%rax
    830e:	48 89 85 c8 f6 ff ff 	mov    %rax,-0x938(%rbp)
    8315:	48 c7 85 d0 f6 ff ff 	movq   $0x0,-0x930(%rbp)
    831c:	00 00 00 00 
    8320:	48 8d 05 89 67 01 00 	lea    0x16789(%rip),%rax        # 1eab0 <g_436+0x70>
    8327:	48 89 85 d8 f6 ff ff 	mov    %rax,-0x928(%rbp)
    832e:	48 8d 05 53 67 01 00 	lea    0x16753(%rip),%rax        # 1ea88 <g_436+0x48>
    8335:	48 89 85 e0 f6 ff ff 	mov    %rax,-0x920(%rbp)
    833c:	48 c7 85 e8 f6 ff ff 	movq   $0x0,-0x918(%rbp)
    8343:	00 00 00 00 
    8347:	48 8d 05 62 67 01 00 	lea    0x16762(%rip),%rax        # 1eab0 <g_436+0x70>
    834e:	48 89 85 f0 f6 ff ff 	mov    %rax,-0x910(%rbp)
    8355:	48 8d 05 0c 67 01 00 	lea    0x1670c(%rip),%rax        # 1ea68 <g_436+0x28>
    835c:	48 89 85 f8 f6 ff ff 	mov    %rax,-0x908(%rbp)
    8363:	48 8d 85 58 e7 ff ff 	lea    -0x18a8(%rbp),%rax
    836a:	48 89 85 00 f7 ff ff 	mov    %rax,-0x900(%rbp)
    8371:	48 c7 85 08 f7 ff ff 	movq   $0x0,-0x8f8(%rbp)
    8378:	00 00 00 00 
    837c:	48 8d 05 2d 67 01 00 	lea    0x1672d(%rip),%rax        # 1eab0 <g_436+0x70>
    8383:	48 89 85 10 f7 ff ff 	mov    %rax,-0x8f0(%rbp)
    838a:	48 8d 05 b7 66 01 00 	lea    0x166b7(%rip),%rax        # 1ea48 <g_436+0x8>
    8391:	48 89 85 18 f7 ff ff 	mov    %rax,-0x8e8(%rbp)
    8398:	48 8d 05 29 67 01 00 	lea    0x16729(%rip),%rax        # 1eac8 <g_436+0x88>
    839f:	48 89 85 20 f7 ff ff 	mov    %rax,-0x8e0(%rbp)
    83a6:	48 8d 85 58 e7 ff ff 	lea    -0x18a8(%rbp),%rax
    83ad:	48 89 85 28 f7 ff ff 	mov    %rax,-0x8d8(%rbp)
    83b4:	48 8d 05 85 66 01 00 	lea    0x16685(%rip),%rax        # 1ea40 <g_436>
    83bb:	48 89 85 30 f7 ff ff 	mov    %rax,-0x8d0(%rbp)
    83c2:	48 8d 85 58 e7 ff ff 	lea    -0x18a8(%rbp),%rax
    83c9:	48 89 85 38 f7 ff ff 	mov    %rax,-0x8c8(%rbp)
    83d0:	48 8d 85 58 e7 ff ff 	lea    -0x18a8(%rbp),%rax
    83d7:	48 89 85 40 f7 ff ff 	mov    %rax,-0x8c0(%rbp)
    83de:	48 8d 05 93 66 01 00 	lea    0x16693(%rip),%rax        # 1ea78 <g_436+0x38>
    83e5:	48 89 85 48 f7 ff ff 	mov    %rax,-0x8b8(%rbp)
    83ec:	48 8d 85 58 e7 ff ff 	lea    -0x18a8(%rbp),%rax
    83f3:	48 89 85 50 f7 ff ff 	mov    %rax,-0x8b0(%rbp)
    83fa:	48 8d 05 87 66 01 00 	lea    0x16687(%rip),%rax        # 1ea88 <g_436+0x48>
    8401:	48 89 85 58 f7 ff ff 	mov    %rax,-0x8a8(%rbp)
    8408:	48 c7 85 60 f7 ff ff 	movq   $0x0,-0x8a0(%rbp)
    840f:	00 00 00 00 
    8413:	48 8d 85 58 e7 ff ff 	lea    -0x18a8(%rbp),%rax
    841a:	48 89 85 68 f7 ff ff 	mov    %rax,-0x898(%rbp)
    8421:	48 8d 05 88 66 01 00 	lea    0x16688(%rip),%rax        # 1eab0 <g_436+0x70>
    8428:	48 89 85 70 f7 ff ff 	mov    %rax,-0x890(%rbp)
    842f:	48 8d 05 8a 66 01 00 	lea    0x1668a(%rip),%rax        # 1eac0 <g_436+0x80>
    8436:	48 89 85 78 f7 ff ff 	mov    %rax,-0x888(%rbp)
    843d:	48 8d 85 58 e7 ff ff 	lea    -0x18a8(%rbp),%rax
    8444:	48 89 85 80 f7 ff ff 	mov    %rax,-0x880(%rbp)
    844b:	48 8d 05 fe 65 01 00 	lea    0x165fe(%rip),%rax        # 1ea50 <g_436+0x10>
    8452:	48 89 85 88 f7 ff ff 	mov    %rax,-0x878(%rbp)
    8459:	48 8d 85 58 e7 ff ff 	lea    -0x18a8(%rbp),%rax
    8460:	48 89 85 90 f7 ff ff 	mov    %rax,-0x870(%rbp)
    8467:	48 8d 85 58 e7 ff ff 	lea    -0x18a8(%rbp),%rax
    846e:	48 89 85 98 f7 ff ff 	mov    %rax,-0x868(%rbp)
    8475:	48 c7 85 a0 f7 ff ff 	movq   $0x0,-0x860(%rbp)
    847c:	00 00 00 00 
    8480:	48 8d 05 29 66 01 00 	lea    0x16629(%rip),%rax        # 1eab0 <g_436+0x70>
    8487:	48 89 85 a8 f7 ff ff 	mov    %rax,-0x858(%rbp)
    848e:	48 8d 85 58 e7 ff ff 	lea    -0x18a8(%rbp),%rax
    8495:	48 89 85 b0 f7 ff ff 	mov    %rax,-0x850(%rbp)
    849c:	48 8d 05 c5 65 01 00 	lea    0x165c5(%rip),%rax        # 1ea68 <g_436+0x28>
    84a3:	48 89 85 b8 f7 ff ff 	mov    %rax,-0x848(%rbp)
    84aa:	48 c7 85 c0 f7 ff ff 	movq   $0x0,-0x840(%rbp)
    84b1:	00 00 00 00 
    84b5:	48 8d 05 8c 65 01 00 	lea    0x1658c(%rip),%rax        # 1ea48 <g_436+0x8>
    84bc:	48 89 85 c8 f7 ff ff 	mov    %rax,-0x838(%rbp)
    84c3:	48 8d 05 be 65 01 00 	lea    0x165be(%rip),%rax        # 1ea88 <g_436+0x48>
    84ca:	48 89 85 d0 f7 ff ff 	mov    %rax,-0x830(%rbp)
    84d1:	48 c7 85 d8 f7 ff ff 	movq   $0x0,-0x828(%rbp)
    84d8:	00 00 00 00 
    84dc:	48 8d 85 58 e7 ff ff 	lea    -0x18a8(%rbp),%rax
    84e3:	48 89 85 e0 f7 ff ff 	mov    %rax,-0x820(%rbp)
    84ea:	48 8d 85 58 e7 ff ff 	lea    -0x18a8(%rbp),%rax
    84f1:	48 89 85 e8 f7 ff ff 	mov    %rax,-0x818(%rbp)
    84f8:	48 8d 05 59 65 01 00 	lea    0x16559(%rip),%rax        # 1ea58 <g_436+0x18>
    84ff:	48 89 85 f0 f7 ff ff 	mov    %rax,-0x810(%rbp)
    8506:	48 8d 85 58 e7 ff ff 	lea    -0x18a8(%rbp),%rax
    850d:	48 89 85 f8 f7 ff ff 	mov    %rax,-0x808(%rbp)
    8514:	48 8d 05 3d 65 01 00 	lea    0x1653d(%rip),%rax        # 1ea58 <g_436+0x18>
    851b:	48 89 85 00 f8 ff ff 	mov    %rax,-0x800(%rbp)
    8522:	48 8d 85 58 e7 ff ff 	lea    -0x18a8(%rbp),%rax
    8529:	48 89 85 08 f8 ff ff 	mov    %rax,-0x7f8(%rbp)
    8530:	48 c7 85 10 f8 ff ff 	movq   $0x0,-0x7f0(%rbp)
    8537:	00 00 00 00 
    853b:	48 8d 05 6e 65 01 00 	lea    0x1656e(%rip),%rax        # 1eab0 <g_436+0x70>
    8542:	48 89 85 18 f8 ff ff 	mov    %rax,-0x7e8(%rbp)
    8549:	48 8d 05 60 65 01 00 	lea    0x16560(%rip),%rax        # 1eab0 <g_436+0x70>
    8550:	48 89 85 20 f8 ff ff 	mov    %rax,-0x7e0(%rbp)
    8557:	48 8d 85 58 e7 ff ff 	lea    -0x18a8(%rbp),%rax
    855e:	48 89 85 28 f8 ff ff 	mov    %rax,-0x7d8(%rbp)
    8565:	48 8d 85 58 e7 ff ff 	lea    -0x18a8(%rbp),%rax
    856c:	48 89 85 30 f8 ff ff 	mov    %rax,-0x7d0(%rbp)
    8573:	48 8d 05 36 65 01 00 	lea    0x16536(%rip),%rax        # 1eab0 <g_436+0x70>
    857a:	48 89 85 38 f8 ff ff 	mov    %rax,-0x7c8(%rbp)
    8581:	48 8d 85 58 e7 ff ff 	lea    -0x18a8(%rbp),%rax
    8588:	48 89 85 40 f8 ff ff 	mov    %rax,-0x7c0(%rbp)
    858f:	48 8d 05 1a 65 01 00 	lea    0x1651a(%rip),%rax        # 1eab0 <g_436+0x70>
    8596:	48 89 85 48 f8 ff ff 	mov    %rax,-0x7b8(%rbp)
    859d:	48 8d 05 0c 65 01 00 	lea    0x1650c(%rip),%rax        # 1eab0 <g_436+0x70>
    85a4:	48 89 85 50 f8 ff ff 	mov    %rax,-0x7b0(%rbp)
    85ab:	48 8d 85 58 e7 ff ff 	lea    -0x18a8(%rbp),%rax
    85b2:	48 89 85 58 f8 ff ff 	mov    %rax,-0x7a8(%rbp)
    85b9:	48 c7 85 60 f8 ff ff 	movq   $0x0,-0x7a0(%rbp)
    85c0:	00 00 00 00 
    85c4:	48 8d 05 8d 64 01 00 	lea    0x1648d(%rip),%rax        # 1ea58 <g_436+0x18>
    85cb:	48 89 85 68 f8 ff ff 	mov    %rax,-0x798(%rbp)
    85d2:	48 c7 85 70 f8 ff ff 	movq   $0x0,-0x790(%rbp)
    85d9:	00 00 00 00 
    85dd:	48 8d 85 58 e7 ff ff 	lea    -0x18a8(%rbp),%rax
    85e4:	48 89 85 78 f8 ff ff 	mov    %rax,-0x788(%rbp)
    85eb:	48 8d 85 58 e7 ff ff 	lea    -0x18a8(%rbp),%rax
    85f2:	48 89 85 80 f8 ff ff 	mov    %rax,-0x780(%rbp)
    85f9:	48 8d 85 58 e7 ff ff 	lea    -0x18a8(%rbp),%rax
    8600:	48 89 85 88 f8 ff ff 	mov    %rax,-0x778(%rbp)
    8607:	48 8d 85 58 e7 ff ff 	lea    -0x18a8(%rbp),%rax
    860e:	48 89 85 90 f8 ff ff 	mov    %rax,-0x770(%rbp)
    8615:	48 8d 05 3c 64 01 00 	lea    0x1643c(%rip),%rax        # 1ea58 <g_436+0x18>
    861c:	48 89 85 98 f8 ff ff 	mov    %rax,-0x768(%rbp)
    8623:	48 8d 05 16 64 01 00 	lea    0x16416(%rip),%rax        # 1ea40 <g_436>
    862a:	48 89 85 a0 f8 ff ff 	mov    %rax,-0x760(%rbp)
    8631:	48 8d 05 78 64 01 00 	lea    0x16478(%rip),%rax        # 1eab0 <g_436+0x70>
    8638:	48 89 85 a8 f8 ff ff 	mov    %rax,-0x758(%rbp)
    863f:	48 8d 05 6a 64 01 00 	lea    0x1646a(%rip),%rax        # 1eab0 <g_436+0x70>
    8646:	48 89 85 b0 f8 ff ff 	mov    %rax,-0x750(%rbp)
    864d:	48 8d 05 24 64 01 00 	lea    0x16424(%rip),%rax        # 1ea78 <g_436+0x38>
    8654:	48 89 85 b8 f8 ff ff 	mov    %rax,-0x748(%rbp)
    865b:	48 8d 85 58 e7 ff ff 	lea    -0x18a8(%rbp),%rax
    8662:	48 89 85 c0 f8 ff ff 	mov    %rax,-0x740(%rbp)
    8669:	48 8d 85 58 e7 ff ff 	lea    -0x18a8(%rbp),%rax
    8670:	48 89 85 c8 f8 ff ff 	mov    %rax,-0x738(%rbp)
    8677:	48 8d 05 0a 64 01 00 	lea    0x1640a(%rip),%rax        # 1ea88 <g_436+0x48>
    867e:	48 89 85 d0 f8 ff ff 	mov    %rax,-0x730(%rbp)
    8685:	48 8d 05 f4 63 01 00 	lea    0x163f4(%rip),%rax        # 1ea80 <g_436+0x40>
    868c:	48 89 85 d8 f8 ff ff 	mov    %rax,-0x728(%rbp)
    8693:	48 8d 85 58 e7 ff ff 	lea    -0x18a8(%rbp),%rax
    869a:	48 89 85 e0 f8 ff ff 	mov    %rax,-0x720(%rbp)
    86a1:	48 8d 05 b0 63 01 00 	lea    0x163b0(%rip),%rax        # 1ea58 <g_436+0x18>
    86a8:	48 89 85 e8 f8 ff ff 	mov    %rax,-0x718(%rbp)
    86af:	48 c7 85 f0 f8 ff ff 	movq   $0x0,-0x710(%rbp)
    86b6:	00 00 00 00 
    86ba:	48 8d 85 58 e7 ff ff 	lea    -0x18a8(%rbp),%rax
    86c1:	48 89 85 f8 f8 ff ff 	mov    %rax,-0x708(%rbp)
    86c8:	48 8d 05 f1 63 01 00 	lea    0x163f1(%rip),%rax        # 1eac0 <g_436+0x80>
    86cf:	48 89 85 00 f9 ff ff 	mov    %rax,-0x700(%rbp)
    86d6:	48 8d 05 d3 63 01 00 	lea    0x163d3(%rip),%rax        # 1eab0 <g_436+0x70>
    86dd:	48 89 85 08 f9 ff ff 	mov    %rax,-0x6f8(%rbp)
    86e4:	48 8d 85 58 e7 ff ff 	lea    -0x18a8(%rbp),%rax
    86eb:	48 89 85 10 f9 ff ff 	mov    %rax,-0x6f0(%rbp)
    86f2:	48 c7 85 18 f9 ff ff 	movq   $0x0,-0x6e8(%rbp)
    86f9:	00 00 00 00 
    86fd:	48 8d 05 84 63 01 00 	lea    0x16384(%rip),%rax        # 1ea88 <g_436+0x48>
    8704:	48 89 85 20 f9 ff ff 	mov    %rax,-0x6e0(%rbp)
    870b:	48 8d 85 58 e7 ff ff 	lea    -0x18a8(%rbp),%rax
    8712:	48 89 85 28 f9 ff ff 	mov    %rax,-0x6d8(%rbp)
    8719:	48 8d 05 58 63 01 00 	lea    0x16358(%rip),%rax        # 1ea78 <g_436+0x38>
    8720:	48 89 85 30 f9 ff ff 	mov    %rax,-0x6d0(%rbp)
    8727:	48 8d 85 58 e7 ff ff 	lea    -0x18a8(%rbp),%rax
    872e:	48 89 85 38 f9 ff ff 	mov    %rax,-0x6c8(%rbp)
    8735:	48 8d 85 40 f4 ff ff 	lea    -0xbc0(%rbp),%rax
    873c:	48 05 b0 02 00 00    	add    $0x2b0,%rax
    8742:	48 89 85 d8 e7 ff ff 	mov    %rax,-0x1828(%rbp)
    8749:	48 8d 05 80 6c 01 00 	lea    0x16c80(%rip),%rax        # 1f3d0 <g_2439+0x10>
    8750:	48 89 85 60 e7 ff ff 	mov    %rax,-0x18a0(%rbp)
    8757:	48 c7 85 40 f9 ff ff 	movq   $0x0,-0x6c0(%rbp)
    875e:	00 00 00 00 
    8762:	48 8d 85 60 e7 ff ff 	lea    -0x18a0(%rbp),%rax
    8769:	48 89 85 48 f9 ff ff 	mov    %rax,-0x6b8(%rbp)
    8770:	48 8d 85 60 e7 ff ff 	lea    -0x18a0(%rbp),%rax
    8777:	48 89 85 50 f9 ff ff 	mov    %rax,-0x6b0(%rbp)
    877e:	48 8d 85 60 e7 ff ff 	lea    -0x18a0(%rbp),%rax
    8785:	48 89 85 58 f9 ff ff 	mov    %rax,-0x6a8(%rbp)
    878c:	48 8d 85 60 e7 ff ff 	lea    -0x18a0(%rbp),%rax
    8793:	48 89 85 60 f9 ff ff 	mov    %rax,-0x6a0(%rbp)
    879a:	48 c7 85 68 f9 ff ff 	movq   $0x0,-0x698(%rbp)
    87a1:	00 00 00 00 
    87a5:	48 8d 85 60 e7 ff ff 	lea    -0x18a0(%rbp),%rax
    87ac:	48 89 85 70 f9 ff ff 	mov    %rax,-0x690(%rbp)
    87b3:	48 8d 85 60 e7 ff ff 	lea    -0x18a0(%rbp),%rax
    87ba:	48 89 85 78 f9 ff ff 	mov    %rax,-0x688(%rbp)
    87c1:	48 c7 85 80 f9 ff ff 	movq   $0x0,-0x680(%rbp)
    87c8:	00 00 00 00 
    87cc:	48 8d 85 60 e7 ff ff 	lea    -0x18a0(%rbp),%rax
    87d3:	48 89 85 88 f9 ff ff 	mov    %rax,-0x678(%rbp)
    87da:	48 8d 85 60 e7 ff ff 	lea    -0x18a0(%rbp),%rax
    87e1:	48 89 85 90 f9 ff ff 	mov    %rax,-0x670(%rbp)
    87e8:	48 8d 85 60 e7 ff ff 	lea    -0x18a0(%rbp),%rax
    87ef:	48 89 85 98 f9 ff ff 	mov    %rax,-0x668(%rbp)
    87f6:	48 8d 85 60 e7 ff ff 	lea    -0x18a0(%rbp),%rax
    87fd:	48 89 85 a0 f9 ff ff 	mov    %rax,-0x660(%rbp)
    8804:	48 c7 85 a8 f9 ff ff 	movq   $0x0,-0x658(%rbp)
    880b:	00 00 00 00 
    880f:	48 c7 85 b0 f9 ff ff 	movq   $0x0,-0x650(%rbp)
    8816:	00 00 00 00 
    881a:	48 8d 85 60 e7 ff ff 	lea    -0x18a0(%rbp),%rax
    8821:	48 89 85 b8 f9 ff ff 	mov    %rax,-0x648(%rbp)
    8828:	48 8d 85 60 e7 ff ff 	lea    -0x18a0(%rbp),%rax
    882f:	48 89 85 c0 f9 ff ff 	mov    %rax,-0x640(%rbp)
    8836:	48 8d 85 60 e7 ff ff 	lea    -0x18a0(%rbp),%rax
    883d:	48 89 85 c8 f9 ff ff 	mov    %rax,-0x638(%rbp)
    8844:	48 8d 85 60 e7 ff ff 	lea    -0x18a0(%rbp),%rax
    884b:	48 89 85 d0 f9 ff ff 	mov    %rax,-0x630(%rbp)
    8852:	48 8d 85 60 e7 ff ff 	lea    -0x18a0(%rbp),%rax
    8859:	48 89 85 d8 f9 ff ff 	mov    %rax,-0x628(%rbp)
    8860:	48 8d 85 60 e7 ff ff 	lea    -0x18a0(%rbp),%rax
    8867:	48 89 85 e0 f9 ff ff 	mov    %rax,-0x620(%rbp)
    886e:	48 8d 85 60 e7 ff ff 	lea    -0x18a0(%rbp),%rax
    8875:	48 89 85 e8 f9 ff ff 	mov    %rax,-0x618(%rbp)
    887c:	48 8d 85 60 e7 ff ff 	lea    -0x18a0(%rbp),%rax
    8883:	48 89 85 f0 f9 ff ff 	mov    %rax,-0x610(%rbp)
    888a:	48 8d 85 60 e7 ff ff 	lea    -0x18a0(%rbp),%rax
    8891:	48 89 85 f8 f9 ff ff 	mov    %rax,-0x608(%rbp)
    8898:	48 8d 85 60 e7 ff ff 	lea    -0x18a0(%rbp),%rax
    889f:	48 89 85 00 fa ff ff 	mov    %rax,-0x600(%rbp)
    88a6:	48 8d 85 60 e7 ff ff 	lea    -0x18a0(%rbp),%rax
    88ad:	48 89 85 08 fa ff ff 	mov    %rax,-0x5f8(%rbp)
    88b4:	48 8d 85 60 e7 ff ff 	lea    -0x18a0(%rbp),%rax
    88bb:	48 89 85 10 fa ff ff 	mov    %rax,-0x5f0(%rbp)
    88c2:	48 8d 85 60 e7 ff ff 	lea    -0x18a0(%rbp),%rax
    88c9:	48 89 85 18 fa ff ff 	mov    %rax,-0x5e8(%rbp)
    88d0:	48 8d 85 60 e7 ff ff 	lea    -0x18a0(%rbp),%rax
    88d7:	48 89 85 20 fa ff ff 	mov    %rax,-0x5e0(%rbp)
    88de:	48 8d 85 60 e7 ff ff 	lea    -0x18a0(%rbp),%rax
    88e5:	48 89 85 28 fa ff ff 	mov    %rax,-0x5d8(%rbp)
    88ec:	48 8d 85 60 e7 ff ff 	lea    -0x18a0(%rbp),%rax
    88f3:	48 89 85 30 fa ff ff 	mov    %rax,-0x5d0(%rbp)
    88fa:	48 8d 85 60 e7 ff ff 	lea    -0x18a0(%rbp),%rax
    8901:	48 89 85 38 fa ff ff 	mov    %rax,-0x5c8(%rbp)
    8908:	48 8d 85 60 e7 ff ff 	lea    -0x18a0(%rbp),%rax
    890f:	48 89 85 40 fa ff ff 	mov    %rax,-0x5c0(%rbp)
    8916:	48 8d 85 60 e7 ff ff 	lea    -0x18a0(%rbp),%rax
    891d:	48 89 85 48 fa ff ff 	mov    %rax,-0x5b8(%rbp)
    8924:	48 8d 85 60 e7 ff ff 	lea    -0x18a0(%rbp),%rax
    892b:	48 89 85 50 fa ff ff 	mov    %rax,-0x5b0(%rbp)
    8932:	48 8d 85 60 e7 ff ff 	lea    -0x18a0(%rbp),%rax
    8939:	48 89 85 58 fa ff ff 	mov    %rax,-0x5a8(%rbp)
    8940:	48 8d 85 60 e7 ff ff 	lea    -0x18a0(%rbp),%rax
    8947:	48 89 85 60 fa ff ff 	mov    %rax,-0x5a0(%rbp)
    894e:	48 8d 85 60 e7 ff ff 	lea    -0x18a0(%rbp),%rax
    8955:	48 89 85 68 fa ff ff 	mov    %rax,-0x598(%rbp)
    895c:	48 c7 85 70 fa ff ff 	movq   $0x0,-0x590(%rbp)
    8963:	00 00 00 00 
    8967:	48 8d 85 60 e7 ff ff 	lea    -0x18a0(%rbp),%rax
    896e:	48 89 85 78 fa ff ff 	mov    %rax,-0x588(%rbp)
    8975:	48 8d 85 60 e7 ff ff 	lea    -0x18a0(%rbp),%rax
    897c:	48 89 85 80 fa ff ff 	mov    %rax,-0x580(%rbp)
    8983:	48 8d 85 60 e7 ff ff 	lea    -0x18a0(%rbp),%rax
    898a:	48 89 85 88 fa ff ff 	mov    %rax,-0x578(%rbp)
    8991:	48 8d 85 60 e7 ff ff 	lea    -0x18a0(%rbp),%rax
    8998:	48 89 85 90 fa ff ff 	mov    %rax,-0x570(%rbp)
    899f:	48 c7 85 98 fa ff ff 	movq   $0x0,-0x568(%rbp)
    89a6:	00 00 00 00 
    89aa:	48 c7 85 a0 fa ff ff 	movq   $0x0,-0x560(%rbp)
    89b1:	00 00 00 00 
    89b5:	48 8d 85 60 e7 ff ff 	lea    -0x18a0(%rbp),%rax
    89bc:	48 89 85 a8 fa ff ff 	mov    %rax,-0x558(%rbp)
    89c3:	48 8d 85 60 e7 ff ff 	lea    -0x18a0(%rbp),%rax
    89ca:	48 89 85 b0 fa ff ff 	mov    %rax,-0x550(%rbp)
    89d1:	48 c7 85 b8 fa ff ff 	movq   $0x0,-0x548(%rbp)
    89d8:	00 00 00 00 
    89dc:	48 8d 85 60 e7 ff ff 	lea    -0x18a0(%rbp),%rax
    89e3:	48 89 85 c0 fa ff ff 	mov    %rax,-0x540(%rbp)
    89ea:	48 8d 85 60 e7 ff ff 	lea    -0x18a0(%rbp),%rax
    89f1:	48 89 85 c8 fa ff ff 	mov    %rax,-0x538(%rbp)
    89f8:	48 8d 85 60 e7 ff ff 	lea    -0x18a0(%rbp),%rax
    89ff:	48 89 85 d0 fa ff ff 	mov    %rax,-0x530(%rbp)
    8a06:	48 8d 85 60 e7 ff ff 	lea    -0x18a0(%rbp),%rax
    8a0d:	48 89 85 d8 fa ff ff 	mov    %rax,-0x528(%rbp)
    8a14:	48 8d 85 60 e7 ff ff 	lea    -0x18a0(%rbp),%rax
    8a1b:	48 89 85 e0 fa ff ff 	mov    %rax,-0x520(%rbp)
    8a22:	48 8d 85 60 e7 ff ff 	lea    -0x18a0(%rbp),%rax
    8a29:	48 89 85 e8 fa ff ff 	mov    %rax,-0x518(%rbp)
    8a30:	48 8d 85 60 e7 ff ff 	lea    -0x18a0(%rbp),%rax
    8a37:	48 89 85 f0 fa ff ff 	mov    %rax,-0x510(%rbp)
    8a3e:	48 8d 85 60 e7 ff ff 	lea    -0x18a0(%rbp),%rax
    8a45:	48 89 85 f8 fa ff ff 	mov    %rax,-0x508(%rbp)
    8a4c:	48 8d 85 60 e7 ff ff 	lea    -0x18a0(%rbp),%rax
    8a53:	48 89 85 00 fb ff ff 	mov    %rax,-0x500(%rbp)
    8a5a:	48 8d 85 60 e7 ff ff 	lea    -0x18a0(%rbp),%rax
    8a61:	48 89 85 08 fb ff ff 	mov    %rax,-0x4f8(%rbp)
    8a68:	48 8d 85 60 e7 ff ff 	lea    -0x18a0(%rbp),%rax
    8a6f:	48 89 85 10 fb ff ff 	mov    %rax,-0x4f0(%rbp)
    8a76:	48 8d 85 60 e7 ff ff 	lea    -0x18a0(%rbp),%rax
    8a7d:	48 89 85 18 fb ff ff 	mov    %rax,-0x4e8(%rbp)
    8a84:	48 8d 85 60 e7 ff ff 	lea    -0x18a0(%rbp),%rax
    8a8b:	48 89 85 20 fb ff ff 	mov    %rax,-0x4e0(%rbp)
    8a92:	48 8d 85 60 e7 ff ff 	lea    -0x18a0(%rbp),%rax
    8a99:	48 89 85 28 fb ff ff 	mov    %rax,-0x4d8(%rbp)
    8aa0:	48 c7 85 30 fb ff ff 	movq   $0x0,-0x4d0(%rbp)
    8aa7:	00 00 00 00 
    8aab:	48 8d 85 60 e7 ff ff 	lea    -0x18a0(%rbp),%rax
    8ab2:	48 89 85 38 fb ff ff 	mov    %rax,-0x4c8(%rbp)
    8ab9:	48 c7 85 40 fb ff ff 	movq   $0x0,-0x4c0(%rbp)
    8ac0:	00 00 00 00 
    8ac4:	48 8d 85 60 e7 ff ff 	lea    -0x18a0(%rbp),%rax
    8acb:	48 89 85 48 fb ff ff 	mov    %rax,-0x4b8(%rbp)
    8ad2:	48 8d 85 60 e7 ff ff 	lea    -0x18a0(%rbp),%rax
    8ad9:	48 89 85 50 fb ff ff 	mov    %rax,-0x4b0(%rbp)
    8ae0:	48 8d 85 60 e7 ff ff 	lea    -0x18a0(%rbp),%rax
    8ae7:	48 89 85 58 fb ff ff 	mov    %rax,-0x4a8(%rbp)
    8aee:	48 8d 85 60 e7 ff ff 	lea    -0x18a0(%rbp),%rax
    8af5:	48 89 85 60 fb ff ff 	mov    %rax,-0x4a0(%rbp)
    8afc:	48 c7 85 68 fb ff ff 	movq   $0x0,-0x498(%rbp)
    8b03:	00 00 00 00 
    8b07:	48 8d 85 60 e7 ff ff 	lea    -0x18a0(%rbp),%rax
    8b0e:	48 89 85 70 fb ff ff 	mov    %rax,-0x490(%rbp)
    8b15:	48 8d 85 60 e7 ff ff 	lea    -0x18a0(%rbp),%rax
    8b1c:	48 89 85 78 fb ff ff 	mov    %rax,-0x488(%rbp)
    8b23:	48 8d 85 60 e7 ff ff 	lea    -0x18a0(%rbp),%rax
    8b2a:	48 89 85 80 fb ff ff 	mov    %rax,-0x480(%rbp)
    8b31:	48 c7 85 88 fb ff ff 	movq   $0x0,-0x478(%rbp)
    8b38:	00 00 00 00 
    8b3c:	48 8d 85 60 e7 ff ff 	lea    -0x18a0(%rbp),%rax
    8b43:	48 89 85 90 fb ff ff 	mov    %rax,-0x470(%rbp)
    8b4a:	48 8d 85 60 e7 ff ff 	lea    -0x18a0(%rbp),%rax
    8b51:	48 89 85 98 fb ff ff 	mov    %rax,-0x468(%rbp)
    8b58:	48 8d 85 60 e7 ff ff 	lea    -0x18a0(%rbp),%rax
    8b5f:	48 89 85 a0 fb ff ff 	mov    %rax,-0x460(%rbp)
    8b66:	48 8d 85 60 e7 ff ff 	lea    -0x18a0(%rbp),%rax
    8b6d:	48 89 85 a8 fb ff ff 	mov    %rax,-0x458(%rbp)
    8b74:	48 8d 85 60 e7 ff ff 	lea    -0x18a0(%rbp),%rax
    8b7b:	48 89 85 b0 fb ff ff 	mov    %rax,-0x450(%rbp)
    8b82:	48 c7 85 b8 fb ff ff 	movq   $0x0,-0x448(%rbp)
    8b89:	00 00 00 00 
    8b8d:	48 8d 85 60 e7 ff ff 	lea    -0x18a0(%rbp),%rax
    8b94:	48 89 85 c0 fb ff ff 	mov    %rax,-0x440(%rbp)
    8b9b:	48 8d 85 60 e7 ff ff 	lea    -0x18a0(%rbp),%rax
    8ba2:	48 89 85 c8 fb ff ff 	mov    %rax,-0x438(%rbp)
    8ba9:	48 8d 85 60 e7 ff ff 	lea    -0x18a0(%rbp),%rax
    8bb0:	48 89 85 d0 fb ff ff 	mov    %rax,-0x430(%rbp)
    8bb7:	48 8d 85 60 e7 ff ff 	lea    -0x18a0(%rbp),%rax
    8bbe:	48 89 85 d8 fb ff ff 	mov    %rax,-0x428(%rbp)
    8bc5:	48 8d 85 60 e7 ff ff 	lea    -0x18a0(%rbp),%rax
    8bcc:	48 89 85 e0 fb ff ff 	mov    %rax,-0x420(%rbp)
    8bd3:	48 8d 85 60 e7 ff ff 	lea    -0x18a0(%rbp),%rax
    8bda:	48 89 85 e8 fb ff ff 	mov    %rax,-0x418(%rbp)
    8be1:	48 8d 85 60 e7 ff ff 	lea    -0x18a0(%rbp),%rax
    8be8:	48 89 85 f0 fb ff ff 	mov    %rax,-0x410(%rbp)
    8bef:	48 8d 85 60 e7 ff ff 	lea    -0x18a0(%rbp),%rax
    8bf6:	48 89 85 f8 fb ff ff 	mov    %rax,-0x408(%rbp)
    8bfd:	48 8d 85 60 e7 ff ff 	lea    -0x18a0(%rbp),%rax
    8c04:	48 89 85 00 fc ff ff 	mov    %rax,-0x400(%rbp)
    8c0b:	48 c7 85 08 fc ff ff 	movq   $0x0,-0x3f8(%rbp)
    8c12:	00 00 00 00 
    8c16:	48 8d 85 60 e7 ff ff 	lea    -0x18a0(%rbp),%rax
    8c1d:	48 89 85 10 fc ff ff 	mov    %rax,-0x3f0(%rbp)
    8c24:	48 8d 85 60 e7 ff ff 	lea    -0x18a0(%rbp),%rax
    8c2b:	48 89 85 18 fc ff ff 	mov    %rax,-0x3e8(%rbp)
    8c32:	48 8d 85 60 e7 ff ff 	lea    -0x18a0(%rbp),%rax
    8c39:	48 89 85 20 fc ff ff 	mov    %rax,-0x3e0(%rbp)
    8c40:	48 8d 85 60 e7 ff ff 	lea    -0x18a0(%rbp),%rax
    8c47:	48 89 85 28 fc ff ff 	mov    %rax,-0x3d8(%rbp)
    8c4e:	48 8d 85 60 e7 ff ff 	lea    -0x18a0(%rbp),%rax
    8c55:	48 89 85 30 fc ff ff 	mov    %rax,-0x3d0(%rbp)
    8c5c:	48 8d 85 60 e7 ff ff 	lea    -0x18a0(%rbp),%rax
    8c63:	48 89 85 38 fc ff ff 	mov    %rax,-0x3c8(%rbp)
    8c6a:	48 8d 85 60 e7 ff ff 	lea    -0x18a0(%rbp),%rax
    8c71:	48 89 85 40 fc ff ff 	mov    %rax,-0x3c0(%rbp)
    8c78:	48 8d 85 60 e7 ff ff 	lea    -0x18a0(%rbp),%rax
    8c7f:	48 89 85 48 fc ff ff 	mov    %rax,-0x3b8(%rbp)
    8c86:	48 8d 85 60 e7 ff ff 	lea    -0x18a0(%rbp),%rax
    8c8d:	48 89 85 50 fc ff ff 	mov    %rax,-0x3b0(%rbp)
    8c94:	48 8d 85 60 e7 ff ff 	lea    -0x18a0(%rbp),%rax
    8c9b:	48 89 85 58 fc ff ff 	mov    %rax,-0x3a8(%rbp)
    8ca2:	48 8d 85 60 e7 ff ff 	lea    -0x18a0(%rbp),%rax
    8ca9:	48 89 85 60 fc ff ff 	mov    %rax,-0x3a0(%rbp)
    8cb0:	48 8d 85 60 e7 ff ff 	lea    -0x18a0(%rbp),%rax
    8cb7:	48 89 85 68 fc ff ff 	mov    %rax,-0x398(%rbp)
    8cbe:	48 8d 85 60 e7 ff ff 	lea    -0x18a0(%rbp),%rax
    8cc5:	48 89 85 70 fc ff ff 	mov    %rax,-0x390(%rbp)
    8ccc:	48 8d 85 60 e7 ff ff 	lea    -0x18a0(%rbp),%rax
    8cd3:	48 89 85 78 fc ff ff 	mov    %rax,-0x388(%rbp)
    8cda:	48 8d 85 60 e7 ff ff 	lea    -0x18a0(%rbp),%rax
    8ce1:	48 89 85 80 fc ff ff 	mov    %rax,-0x380(%rbp)
    8ce8:	48 c7 85 88 fc ff ff 	movq   $0x0,-0x378(%rbp)
    8cef:	00 00 00 00 
    8cf3:	48 8d 85 60 e7 ff ff 	lea    -0x18a0(%rbp),%rax
    8cfa:	48 89 85 90 fc ff ff 	mov    %rax,-0x370(%rbp)
    8d01:	48 8d 85 60 e7 ff ff 	lea    -0x18a0(%rbp),%rax
    8d08:	48 89 85 98 fc ff ff 	mov    %rax,-0x368(%rbp)
    8d0f:	48 8d 85 60 e7 ff ff 	lea    -0x18a0(%rbp),%rax
    8d16:	48 89 85 a0 fc ff ff 	mov    %rax,-0x360(%rbp)
    8d1d:	48 8d 85 60 e7 ff ff 	lea    -0x18a0(%rbp),%rax
    8d24:	48 89 85 a8 fc ff ff 	mov    %rax,-0x358(%rbp)
    8d2b:	48 c7 85 b0 fc ff ff 	movq   $0x0,-0x350(%rbp)
    8d32:	00 00 00 00 
    8d36:	48 8d 85 60 e7 ff ff 	lea    -0x18a0(%rbp),%rax
    8d3d:	48 89 85 b8 fc ff ff 	mov    %rax,-0x348(%rbp)
    8d44:	48 8d 85 60 e7 ff ff 	lea    -0x18a0(%rbp),%rax
    8d4b:	48 89 85 c0 fc ff ff 	mov    %rax,-0x340(%rbp)
    8d52:	48 8d 85 60 e7 ff ff 	lea    -0x18a0(%rbp),%rax
    8d59:	48 89 85 c8 fc ff ff 	mov    %rax,-0x338(%rbp)
    8d60:	48 8d 85 60 e7 ff ff 	lea    -0x18a0(%rbp),%rax
    8d67:	48 89 85 d0 fc ff ff 	mov    %rax,-0x330(%rbp)
    8d6e:	48 8d 85 60 e7 ff ff 	lea    -0x18a0(%rbp),%rax
    8d75:	48 89 85 d8 fc ff ff 	mov    %rax,-0x328(%rbp)
    8d7c:	48 8d 85 60 e7 ff ff 	lea    -0x18a0(%rbp),%rax
    8d83:	48 89 85 e0 fc ff ff 	mov    %rax,-0x320(%rbp)
    8d8a:	48 8d 85 60 e7 ff ff 	lea    -0x18a0(%rbp),%rax
    8d91:	48 89 85 e8 fc ff ff 	mov    %rax,-0x318(%rbp)
    8d98:	48 8d 85 60 e7 ff ff 	lea    -0x18a0(%rbp),%rax
    8d9f:	48 89 85 f0 fc ff ff 	mov    %rax,-0x310(%rbp)
    8da6:	48 8d 85 60 e7 ff ff 	lea    -0x18a0(%rbp),%rax
    8dad:	48 89 85 f8 fc ff ff 	mov    %rax,-0x308(%rbp)
    8db4:	48 8d 85 60 e7 ff ff 	lea    -0x18a0(%rbp),%rax
    8dbb:	48 89 85 00 fd ff ff 	mov    %rax,-0x300(%rbp)
    8dc2:	48 8d 85 60 e7 ff ff 	lea    -0x18a0(%rbp),%rax
    8dc9:	48 89 85 08 fd ff ff 	mov    %rax,-0x2f8(%rbp)
    8dd0:	48 8d 85 60 e7 ff ff 	lea    -0x18a0(%rbp),%rax
    8dd7:	48 89 85 10 fd ff ff 	mov    %rax,-0x2f0(%rbp)
    8dde:	48 8d 85 60 e7 ff ff 	lea    -0x18a0(%rbp),%rax
    8de5:	48 89 85 18 fd ff ff 	mov    %rax,-0x2e8(%rbp)
    8dec:	48 c7 85 20 fd ff ff 	movq   $0x0,-0x2e0(%rbp)
    8df3:	00 00 00 00 
    8df7:	48 c7 85 28 fd ff ff 	movq   $0x0,-0x2d8(%rbp)
    8dfe:	00 00 00 00 
    8e02:	48 8d 85 60 e7 ff ff 	lea    -0x18a0(%rbp),%rax
    8e09:	48 89 85 30 fd ff ff 	mov    %rax,-0x2d0(%rbp)
    8e10:	48 8d 85 60 e7 ff ff 	lea    -0x18a0(%rbp),%rax
    8e17:	48 89 85 38 fd ff ff 	mov    %rax,-0x2c8(%rbp)
    8e1e:	48 8d 85 60 e7 ff ff 	lea    -0x18a0(%rbp),%rax
    8e25:	48 89 85 40 fd ff ff 	mov    %rax,-0x2c0(%rbp)
    8e2c:	48 8d 85 60 e7 ff ff 	lea    -0x18a0(%rbp),%rax
    8e33:	48 89 85 48 fd ff ff 	mov    %rax,-0x2b8(%rbp)
    8e3a:	48 8d 85 60 e7 ff ff 	lea    -0x18a0(%rbp),%rax
    8e41:	48 89 85 50 fd ff ff 	mov    %rax,-0x2b0(%rbp)
    8e48:	48 8d 85 60 e7 ff ff 	lea    -0x18a0(%rbp),%rax
    8e4f:	48 89 85 58 fd ff ff 	mov    %rax,-0x2a8(%rbp)
    8e56:	48 8d 85 60 e7 ff ff 	lea    -0x18a0(%rbp),%rax
    8e5d:	48 89 85 60 fd ff ff 	mov    %rax,-0x2a0(%rbp)
    8e64:	48 8d 85 60 e7 ff ff 	lea    -0x18a0(%rbp),%rax
    8e6b:	48 89 85 68 fd ff ff 	mov    %rax,-0x298(%rbp)
    8e72:	48 8d 85 60 e7 ff ff 	lea    -0x18a0(%rbp),%rax
    8e79:	48 89 85 70 fd ff ff 	mov    %rax,-0x290(%rbp)
    8e80:	48 8d 85 60 e7 ff ff 	lea    -0x18a0(%rbp),%rax
    8e87:	48 89 85 78 fd ff ff 	mov    %rax,-0x288(%rbp)
    8e8e:	48 8d 85 60 e7 ff ff 	lea    -0x18a0(%rbp),%rax
    8e95:	48 89 85 80 fd ff ff 	mov    %rax,-0x280(%rbp)
    8e9c:	48 8d 85 60 e7 ff ff 	lea    -0x18a0(%rbp),%rax
    8ea3:	48 89 85 88 fd ff ff 	mov    %rax,-0x278(%rbp)
    8eaa:	48 8d 85 60 e7 ff ff 	lea    -0x18a0(%rbp),%rax
    8eb1:	48 89 85 90 fd ff ff 	mov    %rax,-0x270(%rbp)
    8eb8:	48 8d 85 60 e7 ff ff 	lea    -0x18a0(%rbp),%rax
    8ebf:	48 89 85 98 fd ff ff 	mov    %rax,-0x268(%rbp)
    8ec6:	48 8d 85 60 e7 ff ff 	lea    -0x18a0(%rbp),%rax
    8ecd:	48 89 85 a0 fd ff ff 	mov    %rax,-0x260(%rbp)
    8ed4:	48 8d 85 60 e7 ff ff 	lea    -0x18a0(%rbp),%rax
    8edb:	48 89 85 a8 fd ff ff 	mov    %rax,-0x258(%rbp)
    8ee2:	48 8d 85 60 e7 ff ff 	lea    -0x18a0(%rbp),%rax
    8ee9:	48 89 85 b0 fd ff ff 	mov    %rax,-0x250(%rbp)
    8ef0:	48 8d 85 60 e7 ff ff 	lea    -0x18a0(%rbp),%rax
    8ef7:	48 89 85 b8 fd ff ff 	mov    %rax,-0x248(%rbp)
    8efe:	48 8d 85 60 e7 ff ff 	lea    -0x18a0(%rbp),%rax
    8f05:	48 89 85 c0 fd ff ff 	mov    %rax,-0x240(%rbp)
    8f0c:	48 8d 85 60 e7 ff ff 	lea    -0x18a0(%rbp),%rax
    8f13:	48 89 85 c8 fd ff ff 	mov    %rax,-0x238(%rbp)
    8f1a:	48 c7 85 d0 fd ff ff 	movq   $0x0,-0x230(%rbp)
    8f21:	00 00 00 00 
    8f25:	48 c7 85 d8 fd ff ff 	movq   $0x0,-0x228(%rbp)
    8f2c:	00 00 00 00 
    8f30:	48 8d 85 60 e7 ff ff 	lea    -0x18a0(%rbp),%rax
    8f37:	48 89 85 e0 fd ff ff 	mov    %rax,-0x220(%rbp)
    8f3e:	48 8d 85 60 e7 ff ff 	lea    -0x18a0(%rbp),%rax
    8f45:	48 89 85 e8 fd ff ff 	mov    %rax,-0x218(%rbp)
    8f4c:	48 c7 85 f0 fd ff ff 	movq   $0x0,-0x210(%rbp)
    8f53:	00 00 00 00 
    8f57:	48 8d 85 60 e7 ff ff 	lea    -0x18a0(%rbp),%rax
    8f5e:	48 89 85 f8 fd ff ff 	mov    %rax,-0x208(%rbp)
    8f65:	48 8d 85 60 e7 ff ff 	lea    -0x18a0(%rbp),%rax
    8f6c:	48 89 85 00 fe ff ff 	mov    %rax,-0x200(%rbp)
    8f73:	48 8d 85 60 e7 ff ff 	lea    -0x18a0(%rbp),%rax
    8f7a:	48 89 85 08 fe ff ff 	mov    %rax,-0x1f8(%rbp)
    8f81:	48 8d 85 60 e7 ff ff 	lea    -0x18a0(%rbp),%rax
    8f88:	48 89 85 10 fe ff ff 	mov    %rax,-0x1f0(%rbp)
    8f8f:	48 8d 85 60 e7 ff ff 	lea    -0x18a0(%rbp),%rax
    8f96:	48 89 85 18 fe ff ff 	mov    %rax,-0x1e8(%rbp)
    8f9d:	48 c7 85 20 fe ff ff 	movq   $0x0,-0x1e0(%rbp)
    8fa4:	00 00 00 00 
    8fa8:	48 8d 85 60 e7 ff ff 	lea    -0x18a0(%rbp),%rax
    8faf:	48 89 85 28 fe ff ff 	mov    %rax,-0x1d8(%rbp)
    8fb6:	48 8d 85 60 e7 ff ff 	lea    -0x18a0(%rbp),%rax
    8fbd:	48 89 85 30 fe ff ff 	mov    %rax,-0x1d0(%rbp)
    8fc4:	48 8d 85 60 e7 ff ff 	lea    -0x18a0(%rbp),%rax
    8fcb:	48 89 85 38 fe ff ff 	mov    %rax,-0x1c8(%rbp)
    8fd2:	48 8d 85 60 e7 ff ff 	lea    -0x18a0(%rbp),%rax
    8fd9:	48 89 85 40 fe ff ff 	mov    %rax,-0x1c0(%rbp)
    8fe0:	48 8d 85 60 e7 ff ff 	lea    -0x18a0(%rbp),%rax
    8fe7:	48 89 85 48 fe ff ff 	mov    %rax,-0x1b8(%rbp)
    8fee:	48 8d 85 60 e7 ff ff 	lea    -0x18a0(%rbp),%rax
    8ff5:	48 89 85 50 fe ff ff 	mov    %rax,-0x1b0(%rbp)
    8ffc:	48 8d 85 60 e7 ff ff 	lea    -0x18a0(%rbp),%rax
    9003:	48 89 85 58 fe ff ff 	mov    %rax,-0x1a8(%rbp)
    900a:	48 8d 85 60 e7 ff ff 	lea    -0x18a0(%rbp),%rax
    9011:	48 89 85 60 fe ff ff 	mov    %rax,-0x1a0(%rbp)
    9018:	48 8d 85 60 e7 ff ff 	lea    -0x18a0(%rbp),%rax
    901f:	48 89 85 68 fe ff ff 	mov    %rax,-0x198(%rbp)
    9026:	48 8d 85 60 e7 ff ff 	lea    -0x18a0(%rbp),%rax
    902d:	48 89 85 70 fe ff ff 	mov    %rax,-0x190(%rbp)
    9034:	48 8d 85 60 e7 ff ff 	lea    -0x18a0(%rbp),%rax
    903b:	48 89 85 78 fe ff ff 	mov    %rax,-0x188(%rbp)
    9042:	48 c7 85 80 fe ff ff 	movq   $0x0,-0x180(%rbp)
    9049:	00 00 00 00 
    904d:	48 8d 85 60 e7 ff ff 	lea    -0x18a0(%rbp),%rax
    9054:	48 89 85 88 fe ff ff 	mov    %rax,-0x178(%rbp)
    905b:	48 8d 85 60 e7 ff ff 	lea    -0x18a0(%rbp),%rax
    9062:	48 89 85 90 fe ff ff 	mov    %rax,-0x170(%rbp)
    9069:	48 8d 85 60 e7 ff ff 	lea    -0x18a0(%rbp),%rax
    9070:	48 89 85 98 fe ff ff 	mov    %rax,-0x168(%rbp)
    9077:	48 c7 85 a0 fe ff ff 	movq   $0x0,-0x160(%rbp)
    907e:	00 00 00 00 
    9082:	48 c7 85 a8 fe ff ff 	movq   $0x0,-0x158(%rbp)
    9089:	00 00 00 00 
    908d:	48 8d 85 60 e7 ff ff 	lea    -0x18a0(%rbp),%rax
    9094:	48 89 85 b0 fe ff ff 	mov    %rax,-0x150(%rbp)
    909b:	48 8d 85 60 e7 ff ff 	lea    -0x18a0(%rbp),%rax
    90a2:	48 89 85 b8 fe ff ff 	mov    %rax,-0x148(%rbp)
    90a9:	48 8d 85 60 e7 ff ff 	lea    -0x18a0(%rbp),%rax
    90b0:	48 89 85 c0 fe ff ff 	mov    %rax,-0x140(%rbp)
    90b7:	48 c7 85 c8 fe ff ff 	movq   $0x0,-0x138(%rbp)
    90be:	00 00 00 00 
    90c2:	48 8d 85 60 e7 ff ff 	lea    -0x18a0(%rbp),%rax
    90c9:	48 89 85 d0 fe ff ff 	mov    %rax,-0x130(%rbp)
    90d0:	48 8d 85 60 e7 ff ff 	lea    -0x18a0(%rbp),%rax
    90d7:	48 89 85 d8 fe ff ff 	mov    %rax,-0x128(%rbp)
    90de:	48 c7 85 e0 fe ff ff 	movq   $0x0,-0x120(%rbp)
    90e5:	00 00 00 00 
    90e9:	48 8d 85 60 e7 ff ff 	lea    -0x18a0(%rbp),%rax
    90f0:	48 89 85 e8 fe ff ff 	mov    %rax,-0x118(%rbp)
    90f7:	48 8d 85 60 e7 ff ff 	lea    -0x18a0(%rbp),%rax
    90fe:	48 89 85 f0 fe ff ff 	mov    %rax,-0x110(%rbp)
    9105:	48 8d 85 60 e7 ff ff 	lea    -0x18a0(%rbp),%rax
    910c:	48 89 85 f8 fe ff ff 	mov    %rax,-0x108(%rbp)
    9113:	48 8d 85 60 e7 ff ff 	lea    -0x18a0(%rbp),%rax
    911a:	48 89 85 00 ff ff ff 	mov    %rax,-0x100(%rbp)
    9121:	48 8d 85 60 e7 ff ff 	lea    -0x18a0(%rbp),%rax
    9128:	48 89 85 08 ff ff ff 	mov    %rax,-0xf8(%rbp)
    912f:	48 8d 85 60 e7 ff ff 	lea    -0x18a0(%rbp),%rax
    9136:	48 89 85 10 ff ff ff 	mov    %rax,-0xf0(%rbp)
    913d:	48 8d 85 60 e7 ff ff 	lea    -0x18a0(%rbp),%rax
    9144:	48 89 85 18 ff ff ff 	mov    %rax,-0xe8(%rbp)
    914b:	48 8d 85 60 e7 ff ff 	lea    -0x18a0(%rbp),%rax
    9152:	48 89 85 20 ff ff ff 	mov    %rax,-0xe0(%rbp)
    9159:	48 c7 85 28 ff ff ff 	movq   $0x0,-0xd8(%rbp)
    9160:	00 00 00 00 
    9164:	48 8d 85 60 e7 ff ff 	lea    -0x18a0(%rbp),%rax
    916b:	48 89 85 30 ff ff ff 	mov    %rax,-0xd0(%rbp)
    9172:	48 8d 85 60 e7 ff ff 	lea    -0x18a0(%rbp),%rax
    9179:	48 89 85 38 ff ff ff 	mov    %rax,-0xc8(%rbp)
    9180:	48 8d 85 60 e7 ff ff 	lea    -0x18a0(%rbp),%rax
    9187:	48 89 85 40 ff ff ff 	mov    %rax,-0xc0(%rbp)
    918e:	48 8d 85 60 e7 ff ff 	lea    -0x18a0(%rbp),%rax
    9195:	48 89 85 48 ff ff ff 	mov    %rax,-0xb8(%rbp)
    919c:	48 8d 85 60 e7 ff ff 	lea    -0x18a0(%rbp),%rax
    91a3:	48 89 85 50 ff ff ff 	mov    %rax,-0xb0(%rbp)
    91aa:	48 8d 85 60 e7 ff ff 	lea    -0x18a0(%rbp),%rax
    91b1:	48 89 85 58 ff ff ff 	mov    %rax,-0xa8(%rbp)
    91b8:	48 8d 85 60 e7 ff ff 	lea    -0x18a0(%rbp),%rax
    91bf:	48 89 85 60 ff ff ff 	mov    %rax,-0xa0(%rbp)
    91c6:	48 8d 85 60 e7 ff ff 	lea    -0x18a0(%rbp),%rax
    91cd:	48 89 85 68 ff ff ff 	mov    %rax,-0x98(%rbp)
    91d4:	48 8d 85 60 e7 ff ff 	lea    -0x18a0(%rbp),%rax
    91db:	48 89 85 70 ff ff ff 	mov    %rax,-0x90(%rbp)
    91e2:	48 8d 85 60 e7 ff ff 	lea    -0x18a0(%rbp),%rax
    91e9:	48 89 85 78 ff ff ff 	mov    %rax,-0x88(%rbp)
    91f0:	48 c7 45 80 00 00 00 	movq   $0x0,-0x80(%rbp)
    91f7:	00 
    91f8:	48 c7 45 88 00 00 00 	movq   $0x0,-0x78(%rbp)
    91ff:	00 
    9200:	48 8d 85 60 e7 ff ff 	lea    -0x18a0(%rbp),%rax
    9207:	48 89 45 90          	mov    %rax,-0x70(%rbp)
    920b:	48 c7 45 98 00 00 00 	movq   $0x0,-0x68(%rbp)
    9212:	00 
    9213:	48 8d 85 60 e7 ff ff 	lea    -0x18a0(%rbp),%rax
    921a:	48 89 45 a0          	mov    %rax,-0x60(%rbp)
    921e:	48 8d 85 60 e7 ff ff 	lea    -0x18a0(%rbp),%rax
    9225:	48 89 45 a8          	mov    %rax,-0x58(%rbp)
    9229:	48 8d 85 60 e7 ff ff 	lea    -0x18a0(%rbp),%rax
    9230:	48 89 45 b0          	mov    %rax,-0x50(%rbp)
    9234:	48 c7 45 b8 00 00 00 	movq   $0x0,-0x48(%rbp)
    923b:	00 
    923c:	48 8d 85 60 e7 ff ff 	lea    -0x18a0(%rbp),%rax
    9243:	48 89 45 c0          	mov    %rax,-0x40(%rbp)
    9247:	48 8d 85 60 e7 ff ff 	lea    -0x18a0(%rbp),%rax
    924e:	48 89 45 c8          	mov    %rax,-0x38(%rbp)
    9252:	48 8d 05 07 3e 01 00 	lea    0x13e07(%rip),%rax        # 1d060 <g_77+0x20>
    9259:	48 89 85 e0 e7 ff ff 	mov    %rax,-0x1820(%rbp)
    9260:	c7 85 18 e7 ff ff ff 	movl   $0xffffffff,-0x18e8(%rbp)
    9267:	ff ff ff 
    926a:	48 8d 05 7f 5a 01 00 	lea    0x15a7f(%rip),%rax        # 1ecf0 <g_767+0x30>
    9271:	48 89 85 e8 e7 ff ff 	mov    %rax,-0x1818(%rbp)
    9278:	c7 85 08 e7 ff ff 00 	movl   $0x0,-0x18f8(%rbp)
    927f:	00 00 00 
    9282:	eb 1e                	jmp    92a2 <func_20+0x165d>
    9284:	8b 85 08 e7 ff ff    	mov    -0x18f8(%rbp),%eax
    928a:	48 98                	cltq   
    928c:	48 8d 95 40 e7 ff ff 	lea    -0x18c0(%rbp),%rdx
    9293:	48 89 94 c5 40 e8 ff 	mov    %rdx,-0x17c0(%rbp,%rax,8)
    929a:	ff 
    929b:	83 85 08 e7 ff ff 01 	addl   $0x1,-0x18f8(%rbp)
    92a2:	83 bd 08 e7 ff ff 01 	cmpl   $0x1,-0x18f8(%rbp)
    92a9:	7e d9                	jle    9284 <func_20+0x163f>
    92ab:	c7 85 08 e7 ff ff 00 	movl   $0x0,-0x18f8(%rbp)
    92b2:	00 00 00 
    92b5:	eb 1e                	jmp    92d5 <func_20+0x1690>
    92b7:	8b 85 08 e7 ff ff    	mov    -0x18f8(%rbp),%eax
    92bd:	48 98                	cltq   
    92bf:	48 8d 95 50 e7 ff ff 	lea    -0x18b0(%rbp),%rdx
    92c6:	48 89 94 c5 00 e9 ff 	mov    %rdx,-0x1700(%rbp,%rax,8)
    92cd:	ff 
    92ce:	83 85 08 e7 ff ff 01 	addl   $0x1,-0x18f8(%rbp)
    92d5:	83 bd 08 e7 ff ff 09 	cmpl   $0x9,-0x18f8(%rbp)
    92dc:	7e d9                	jle    92b7 <func_20+0x1672>
    92de:	c7 85 08 e7 ff ff 00 	movl   $0x0,-0x18f8(%rbp)
    92e5:	00 00 00 
    92e8:	eb 14                	jmp    92fe <func_20+0x16b9>
    92ea:	8b 85 08 e7 ff ff    	mov    -0x18f8(%rbp),%eax
    92f0:	48 98                	cltq   
    92f2:	c6 44 05 d9 01       	movb   $0x1,-0x27(%rbp,%rax,1)
    92f7:	83 85 08 e7 ff ff 01 	addl   $0x1,-0x18f8(%rbp)
    92fe:	83 bd 08 e7 ff ff 04 	cmpl   $0x4,-0x18f8(%rbp)
    9305:	7e e3                	jle    92ea <func_20+0x16a5>
    9307:	48 8b 95 38 e7 ff ff 	mov    -0x18c8(%rbp),%rdx
    930e:	48 8b 85 a0 e7 ff ff 	mov    -0x1860(%rbp),%rax
    9315:	48 89 10             	mov    %rdx,(%rax)
    9318:	48 8b 85 a0 e7 ff ff 	mov    -0x1860(%rbp),%rax
    931f:	48 8b 10             	mov    (%rax),%rdx
    9322:	48 8b 85 40 e7 ff ff 	mov    -0x18c0(%rbp),%rax
    9329:	48 89 05 60 60 01 00 	mov    %rax,0x16060(%rip)        # 1f390 <g_2015>
    9330:	48 8b 05 59 60 01 00 	mov    0x16059(%rip),%rax        # 1f390 <g_2015>
    9337:	48 39 c2             	cmp    %rax,%rdx
    933a:	0f 94 c0             	sete   %al
    933d:	0f b6 d8             	movzbl %al,%ebx
    9340:	48 8b 05 41 59 01 00 	mov    0x15941(%rip),%rax        # 1ec88 <g_648>
    9347:	48 c7 00 00 00 00 00 	movq   $0x0,(%rax)
    934e:	48 8b 00             	mov    (%rax),%rax
    9351:	48 39 85 b8 e7 ff ff 	cmp    %rax,-0x1848(%rbp)
    9358:	0f 94 c0             	sete   %al
    935b:	0f b6 c0             	movzbl %al,%eax
    935e:	be 05 00 00 00       	mov    $0x5,%esi
    9363:	89 c7                	mov    %eax,%edi
    9365:	e8 37 cf ff ff       	callq  62a1 <safe_lshift_func_int8_t_s_s>
    936a:	48 8b 05 97 5a 01 00 	mov    0x15a97(%rip),%rax        # 1ee08 <g_1028>
    9371:	48 8b 95 90 ea ff ff 	mov    -0x1570(%rbp),%rdx
    9378:	48 89 10             	mov    %rdx,(%rax)
    937b:	48 8b 00             	mov    (%rax),%rax
    937e:	48 8b 15 eb 5d 01 00 	mov    0x15deb(%rip),%rdx        # 1f170 <g_1601>
    9385:	48 8b 12             	mov    (%rdx),%rdx
    9388:	48 8b 12             	mov    (%rdx),%rdx
    938b:	48 8b 12             	mov    (%rdx),%rdx
    938e:	48 89 95 a8 e7 ff ff 	mov    %rdx,-0x1858(%rbp)
    9395:	48 39 85 a8 e7 ff ff 	cmp    %rax,-0x1858(%rbp)
    939c:	0f 95 c0             	setne  %al
    939f:	0f b6 d0             	movzbl %al,%edx
    93a2:	48 8b 05 b7 59 01 00 	mov    0x159b7(%rip),%rax        # 1ed60 <g_859>
    93a9:	48 8b 00             	mov    (%rax),%rax
    93ac:	0f b6 00             	movzbl (%rax),%eax
    93af:	0f b6 c0             	movzbl %al,%eax
    93b2:	89 d6                	mov    %edx,%esi
    93b4:	89 c7                	mov    %eax,%edi
    93b6:	e8 bd d7 ff ff       	callq  6b78 <safe_sub_func_uint8_t_u_u>
    93bb:	0f b6 d0             	movzbl %al,%edx
    93be:	0f bf 85 ec e6 ff ff 	movswl -0x1914(%rbp),%eax
    93c5:	39 85 e8 e6 ff ff    	cmp    %eax,-0x1918(%rbp)
    93cb:	0f 9e c0             	setle  %al
    93ce:	0f b6 c0             	movzbl %al,%eax
    93d1:	89 d6                	mov    %edx,%esi
    93d3:	89 c7                	mov    %eax,%edi
    93d5:	e8 c7 ce ff ff       	callq  62a1 <safe_lshift_func_int8_t_s_s>
    93da:	b8 01 00 00 00       	mov    $0x1,%eax
    93df:	0f be c0             	movsbl %al,%eax
    93e2:	be 06 00 00 00       	mov    $0x6,%esi
    93e7:	89 c7                	mov    %eax,%edi
    93e9:	e8 00 cf ff ff       	callq  62ee <safe_lshift_func_int8_t_s_u>
    93ee:	0f be c0             	movsbl %al,%eax
    93f1:	48 8b 15 38 56 01 00 	mov    0x15638(%rip),%rdx        # 1ea30 <g_351>
    93f8:	48 8b 12             	mov    (%rdx),%rdx
    93fb:	66 c7 02 fb ff       	movw   $0xfffb,(%rdx)
    9400:	89 c6                	mov    %eax,%esi
    9402:	bf fb ff ff ff       	mov    $0xfffffffb,%edi
    9407:	e8 a7 cf ff ff       	callq  63b3 <safe_add_func_int16_t_s_s>
    940c:	98                   	cwtl   
    940d:	0b 85 e0 e6 ff ff    	or     -0x1920(%rbp),%eax
    9413:	39 c3                	cmp    %eax,%ebx
    9415:	0f 94 c0             	sete   %al
    9418:	0f b6 d0             	movzbl %al,%edx
    941b:	48 8b 85 b8 e7 ff ff 	mov    -0x1848(%rbp),%rax
    9422:	8b 00                	mov    (%rax),%eax
    9424:	31 c2                	xor    %eax,%edx
    9426:	48 8b 85 b8 e7 ff ff 	mov    -0x1848(%rbp),%rax
    942d:	89 10                	mov    %edx,(%rax)
    942f:	48 8b 05 1a 59 01 00 	mov    0x1591a(%rip),%rax        # 1ed50 <g_811>
    9436:	48 8b 00             	mov    (%rax),%rax
    9439:	48 8b 95 00 f2 ff ff 	mov    -0xe00(%rbp),%rdx
    9440:	48 89 10             	mov    %rdx,(%rax)
    9443:	66 c7 05 f6 3c 01 00 	movw   $0xc,0x13cf6(%rip)        # 1d142 <g_1157>
    944a:	0c 00 
    944c:	e9 16 05 00 00       	jmpq   9967 <func_20+0x1d22>
    9451:	c7 85 1c e7 ff ff 86 	movl   $0xb86e2286,-0x18e4(%rbp)
    9458:	22 6e b8 
    945b:	48 c7 85 68 e7 ff ff 	movq   $0x0,-0x1898(%rbp)
    9462:	00 00 00 00 
    9466:	48 8d 85 68 e7 ff ff 	lea    -0x1898(%rbp),%rax
    946d:	48 89 85 70 e7 ff ff 	mov    %rax,-0x1890(%rbp)
    9474:	48 8d 85 70 e7 ff ff 	lea    -0x1890(%rbp),%rax
    947b:	48 89 85 f0 e7 ff ff 	mov    %rax,-0x1810(%rbp)
    9482:	48 8d 05 d7 63 01 00 	lea    0x163d7(%rip),%rax        # 1f860 <g_375>
    9489:	48 89 85 f8 e7 ff ff 	mov    %rax,-0x1808(%rbp)
    9490:	48 b8 fd fd fd fd fd 	movabs $0xfdfdfdfdfdfdfdfd,%rax
    9497:	fd fd fd 
    949a:	48 89 45 de          	mov    %rax,-0x22(%rbp)
    949e:	66 c7 45 e6 fd fd    	movw   $0xfdfd,-0x1a(%rbp)
    94a4:	48 8d 05 a9 3c 01 00 	lea    0x13ca9(%rip),%rax        # 1d154 <g_1374>
    94ab:	48 89 85 00 e8 ff ff 	mov    %rax,-0x1800(%rbp)
    94b2:	48 8d 05 a7 57 01 00 	lea    0x157a7(%rip),%rax        # 1ec60 <g_554>
    94b9:	48 89 85 78 e7 ff ff 	mov    %rax,-0x1888(%rbp)
    94c0:	48 8d 85 78 e7 ff ff 	lea    -0x1888(%rbp),%rax
    94c7:	48 89 85 80 e7 ff ff 	mov    %rax,-0x1880(%rbp)
    94ce:	48 8d 85 80 e7 ff ff 	lea    -0x1880(%rbp),%rax
    94d5:	48 89 85 08 e8 ff ff 	mov    %rax,-0x17f8(%rbp)
    94dc:	66 c7 85 fe e6 ff ff 	movw   $0x59ab,-0x1902(%rbp)
    94e3:	ab 59 
    94e5:	c7 85 20 e7 ff ff fb 	movl   $0x56f90cfb,-0x18e0(%rbp)
    94ec:	0c f9 56 
    94ef:	c7 85 24 e7 ff ff 8a 	movl   $0x1599f08a,-0x18dc(%rbp)
    94f6:	f0 99 15 
    94f9:	48 8d 05 a0 3b 01 00 	lea    0x13ba0(%rip),%rax        # 1d0a0 <g_107>
    9500:	48 89 85 88 e7 ff ff 	mov    %rax,-0x1878(%rbp)
    9507:	48 8d 85 88 e7 ff ff 	lea    -0x1878(%rbp),%rax
    950e:	48 89 85 90 e7 ff ff 	mov    %rax,-0x1870(%rbp)
    9515:	48 8d 85 90 e7 ff ff 	lea    -0x1870(%rbp),%rax
    951c:	48 89 85 20 eb ff ff 	mov    %rax,-0x14e0(%rbp)
    9523:	48 8d 85 90 e7 ff ff 	lea    -0x1870(%rbp),%rax
    952a:	48 89 85 28 eb ff ff 	mov    %rax,-0x14d8(%rbp)
    9531:	48 8d 85 90 e7 ff ff 	lea    -0x1870(%rbp),%rax
    9538:	48 89 85 30 eb ff ff 	mov    %rax,-0x14d0(%rbp)
    953f:	48 8d 85 90 e7 ff ff 	lea    -0x1870(%rbp),%rax
    9546:	48 89 85 38 eb ff ff 	mov    %rax,-0x14c8(%rbp)
    954d:	48 8d 85 90 e7 ff ff 	lea    -0x1870(%rbp),%rax
    9554:	48 89 85 40 eb ff ff 	mov    %rax,-0x14c0(%rbp)
    955b:	48 8d 85 90 e7 ff ff 	lea    -0x1870(%rbp),%rax
    9562:	48 89 85 48 eb ff ff 	mov    %rax,-0x14b8(%rbp)
    9569:	48 8d 85 90 e7 ff ff 	lea    -0x1870(%rbp),%rax
    9570:	48 89 85 50 eb ff ff 	mov    %rax,-0x14b0(%rbp)
    9577:	48 8d 85 90 e7 ff ff 	lea    -0x1870(%rbp),%rax
    957e:	48 89 85 58 eb ff ff 	mov    %rax,-0x14a8(%rbp)
    9585:	48 8d 85 90 e7 ff ff 	lea    -0x1870(%rbp),%rax
    958c:	48 89 85 60 eb ff ff 	mov    %rax,-0x14a0(%rbp)
    9593:	48 8d 85 90 e7 ff ff 	lea    -0x1870(%rbp),%rax
    959a:	48 89 85 68 eb ff ff 	mov    %rax,-0x1498(%rbp)
    95a1:	48 8d 85 90 e7 ff ff 	lea    -0x1870(%rbp),%rax
    95a8:	48 89 85 70 eb ff ff 	mov    %rax,-0x1490(%rbp)
    95af:	48 8d 85 90 e7 ff ff 	lea    -0x1870(%rbp),%rax
    95b6:	48 89 85 78 eb ff ff 	mov    %rax,-0x1488(%rbp)
    95bd:	48 8d 85 90 e7 ff ff 	lea    -0x1870(%rbp),%rax
    95c4:	48 89 85 80 eb ff ff 	mov    %rax,-0x1480(%rbp)
    95cb:	48 8d 85 90 e7 ff ff 	lea    -0x1870(%rbp),%rax
    95d2:	48 89 85 88 eb ff ff 	mov    %rax,-0x1478(%rbp)
    95d9:	48 8d 85 90 e7 ff ff 	lea    -0x1870(%rbp),%rax
    95e0:	48 89 85 90 eb ff ff 	mov    %rax,-0x1470(%rbp)
    95e7:	48 8d 85 90 e7 ff ff 	lea    -0x1870(%rbp),%rax
    95ee:	48 89 85 98 eb ff ff 	mov    %rax,-0x1468(%rbp)
    95f5:	48 8d 85 90 e7 ff ff 	lea    -0x1870(%rbp),%rax
    95fc:	48 89 85 a0 eb ff ff 	mov    %rax,-0x1460(%rbp)
    9603:	48 8d 85 90 e7 ff ff 	lea    -0x1870(%rbp),%rax
    960a:	48 89 85 a8 eb ff ff 	mov    %rax,-0x1458(%rbp)
    9611:	48 8d 85 90 e7 ff ff 	lea    -0x1870(%rbp),%rax
    9618:	48 89 85 b0 eb ff ff 	mov    %rax,-0x1450(%rbp)
    961f:	48 8d 85 90 e7 ff ff 	lea    -0x1870(%rbp),%rax
    9626:	48 89 85 b8 eb ff ff 	mov    %rax,-0x1448(%rbp)
    962d:	48 8d 85 90 e7 ff ff 	lea    -0x1870(%rbp),%rax
    9634:	48 89 85 c0 eb ff ff 	mov    %rax,-0x1440(%rbp)
    963b:	48 8d 85 90 e7 ff ff 	lea    -0x1870(%rbp),%rax
    9642:	48 89 85 c8 eb ff ff 	mov    %rax,-0x1438(%rbp)
    9649:	48 c7 85 d0 eb ff ff 	movq   $0x0,-0x1430(%rbp)
    9650:	00 00 00 00 
    9654:	48 8d 85 90 e7 ff ff 	lea    -0x1870(%rbp),%rax
    965b:	48 89 85 d8 eb ff ff 	mov    %rax,-0x1428(%rbp)
    9662:	48 8d 85 90 e7 ff ff 	lea    -0x1870(%rbp),%rax
    9669:	48 89 85 e0 eb ff ff 	mov    %rax,-0x1420(%rbp)
    9670:	48 8d 85 90 e7 ff ff 	lea    -0x1870(%rbp),%rax
    9677:	48 89 85 e8 eb ff ff 	mov    %rax,-0x1418(%rbp)
    967e:	48 8d 85 90 e7 ff ff 	lea    -0x1870(%rbp),%rax
    9685:	48 89 85 f0 eb ff ff 	mov    %rax,-0x1410(%rbp)
    968c:	48 8d 85 90 e7 ff ff 	lea    -0x1870(%rbp),%rax
    9693:	48 89 85 f8 eb ff ff 	mov    %rax,-0x1408(%rbp)
    969a:	48 c7 85 00 ec ff ff 	movq   $0x0,-0x1400(%rbp)
    96a1:	00 00 00 00 
    96a5:	48 8d 85 90 e7 ff ff 	lea    -0x1870(%rbp),%rax
    96ac:	48 89 85 08 ec ff ff 	mov    %rax,-0x13f8(%rbp)
    96b3:	48 8d 85 90 e7 ff ff 	lea    -0x1870(%rbp),%rax
    96ba:	48 89 85 10 ec ff ff 	mov    %rax,-0x13f0(%rbp)
    96c1:	48 c7 85 18 ec ff ff 	movq   $0x0,-0x13e8(%rbp)
    96c8:	00 00 00 00 
    96cc:	48 c7 85 20 ec ff ff 	movq   $0x0,-0x13e0(%rbp)
    96d3:	00 00 00 00 
    96d7:	48 8d 85 90 e7 ff ff 	lea    -0x1870(%rbp),%rax
    96de:	48 89 85 28 ec ff ff 	mov    %rax,-0x13d8(%rbp)
    96e5:	48 8d 85 90 e7 ff ff 	lea    -0x1870(%rbp),%rax
    96ec:	48 89 85 30 ec ff ff 	mov    %rax,-0x13d0(%rbp)
    96f3:	48 8d 85 90 e7 ff ff 	lea    -0x1870(%rbp),%rax
    96fa:	48 89 85 38 ec ff ff 	mov    %rax,-0x13c8(%rbp)
    9701:	48 8d 85 90 e7 ff ff 	lea    -0x1870(%rbp),%rax
    9708:	48 89 85 40 ec ff ff 	mov    %rax,-0x13c0(%rbp)
    970f:	48 8d 85 90 e7 ff ff 	lea    -0x1870(%rbp),%rax
    9716:	48 89 85 48 ec ff ff 	mov    %rax,-0x13b8(%rbp)
    971d:	48 8d 85 90 e7 ff ff 	lea    -0x1870(%rbp),%rax
    9724:	48 89 85 50 ec ff ff 	mov    %rax,-0x13b0(%rbp)
    972b:	48 8d 85 90 e7 ff ff 	lea    -0x1870(%rbp),%rax
    9732:	48 89 85 58 ec ff ff 	mov    %rax,-0x13a8(%rbp)
    9739:	48 8d 85 90 e7 ff ff 	lea    -0x1870(%rbp),%rax
    9740:	48 89 85 60 ec ff ff 	mov    %rax,-0x13a0(%rbp)
    9747:	48 8d 85 90 e7 ff ff 	lea    -0x1870(%rbp),%rax
    974e:	48 89 85 68 ec ff ff 	mov    %rax,-0x1398(%rbp)
    9755:	48 c7 85 70 ec ff ff 	movq   $0x0,-0x1390(%rbp)
    975c:	00 00 00 00 
    9760:	48 c7 85 78 ec ff ff 	movq   $0x0,-0x1388(%rbp)
    9767:	00 00 00 00 
    976b:	48 8d 85 90 e7 ff ff 	lea    -0x1870(%rbp),%rax
    9772:	48 89 85 80 ec ff ff 	mov    %rax,-0x1380(%rbp)
    9779:	48 8d 85 90 e7 ff ff 	lea    -0x1870(%rbp),%rax
    9780:	48 89 85 88 ec ff ff 	mov    %rax,-0x1378(%rbp)
    9787:	48 c7 85 90 ec ff ff 	movq   $0x0,-0x1370(%rbp)
    978e:	00 00 00 00 
    9792:	48 8d 85 90 e7 ff ff 	lea    -0x1870(%rbp),%rax
    9799:	48 89 85 98 ec ff ff 	mov    %rax,-0x1368(%rbp)
    97a0:	48 8d 85 90 e7 ff ff 	lea    -0x1870(%rbp),%rax
    97a7:	48 89 85 a0 ec ff ff 	mov    %rax,-0x1360(%rbp)
    97ae:	48 8d 85 90 e7 ff ff 	lea    -0x1870(%rbp),%rax
    97b5:	48 89 85 a8 ec ff ff 	mov    %rax,-0x1358(%rbp)
    97bc:	48 c7 85 10 e8 ff ff 	movq   $0x1,-0x17f0(%rbp)
    97c3:	01 00 00 00 
    97c7:	48 8d 05 5a 52 01 00 	lea    0x1525a(%rip),%rax        # 1ea28 <g_352>
    97ce:	48 89 85 18 e8 ff ff 	mov    %rax,-0x17e8(%rbp)
    97d5:	c7 85 28 e7 ff ff 10 	movl   $0x40437e10,-0x18d8(%rbp)
    97dc:	7e 43 40 
    97df:	c6 85 f7 e6 ff ff 82 	movb   $0x82,-0x1909(%rbp)
    97e6:	c6 85 f8 e6 ff ff 94 	movb   $0x94,-0x1908(%rbp)
    97ed:	48 8d 05 dc 52 01 00 	lea    0x152dc(%rip),%rax        # 1ead0 <g_435>
    97f4:	48 89 85 20 e8 ff ff 	mov    %rax,-0x17e0(%rbp)
    97fb:	48 8d 05 5e 60 01 00 	lea    0x1605e(%rip),%rax        # 1f860 <g_375>
    9802:	48 89 85 28 e8 ff ff 	mov    %rax,-0x17d8(%rbp)
    9809:	c7 85 04 e7 ff ff 01 	movl   $0x1,-0x18fc(%rbp)
    9810:	00 00 00 
    9813:	c7 85 50 e8 ff ff 4f 	movl   $0xea54e84f,-0x17b0(%rbp)
    981a:	e8 54 ea 
    981d:	c7 85 54 e8 ff ff d4 	movl   $0x4458dfd4,-0x17ac(%rbp)
    9824:	df 58 44 
    9827:	c7 85 58 e8 ff ff 4f 	movl   $0xea54e84f,-0x17a8(%rbp)
    982e:	e8 54 ea 
    9831:	c7 85 5c e8 ff ff 4f 	movl   $0xea54e84f,-0x17a4(%rbp)
    9838:	e8 54 ea 
    983b:	c7 85 60 e8 ff ff d4 	movl   $0x4458dfd4,-0x17a0(%rbp)
    9842:	df 58 44 
    9845:	c7 85 64 e8 ff ff 4f 	movl   $0xea54e84f,-0x179c(%rbp)
    984c:	e8 54 ea 
    984f:	c7 85 68 e8 ff ff 4f 	movl   $0xea54e84f,-0x1798(%rbp)
    9856:	e8 54 ea 
    9859:	c7 85 2c e7 ff ff f9 	movl   $0xfffffff9,-0x18d4(%rbp)
    9860:	ff ff ff 
    9863:	48 8d 85 00 e7 ff ff 	lea    -0x1900(%rbp),%rax
    986a:	48 89 85 98 e7 ff ff 	mov    %rax,-0x1868(%rbp)
    9871:	48 8d 85 98 e7 ff ff 	lea    -0x1868(%rbp),%rax
    9878:	48 89 85 50 e9 ff ff 	mov    %rax,-0x16b0(%rbp)
    987f:	48 8d 85 98 e7 ff ff 	lea    -0x1868(%rbp),%rax
    9886:	48 89 85 58 e9 ff ff 	mov    %rax,-0x16a8(%rbp)
    988d:	48 c7 85 60 e9 ff ff 	movq   $0x0,-0x16a0(%rbp)
    9894:	00 00 00 00 
    9898:	48 8d 85 98 e7 ff ff 	lea    -0x1868(%rbp),%rax
    989f:	48 89 85 68 e9 ff ff 	mov    %rax,-0x1698(%rbp)
    98a6:	48 8d 85 98 e7 ff ff 	lea    -0x1868(%rbp),%rax
    98ad:	48 89 85 70 e9 ff ff 	mov    %rax,-0x1690(%rbp)
    98b4:	48 c7 85 78 e9 ff ff 	movq   $0x0,-0x1688(%rbp)
    98bb:	00 00 00 00 
    98bf:	48 8d 85 98 e7 ff ff 	lea    -0x1868(%rbp),%rax
    98c6:	48 89 85 80 e9 ff ff 	mov    %rax,-0x1680(%rbp)
    98cd:	48 8d 85 98 e7 ff ff 	lea    -0x1868(%rbp),%rax
    98d4:	48 89 85 88 e9 ff ff 	mov    %rax,-0x1678(%rbp)
    98db:	48 c7 85 90 e9 ff ff 	movq   $0x0,-0x1670(%rbp)
    98e2:	00 00 00 00 
    98e6:	48 8d 85 98 e7 ff ff 	lea    -0x1868(%rbp),%rax
    98ed:	48 89 85 98 e9 ff ff 	mov    %rax,-0x1668(%rbp)
    98f4:	48 8d 85 04 e7 ff ff 	lea    -0x18fc(%rbp),%rax
    98fb:	48 89 85 30 e8 ff ff 	mov    %rax,-0x17d0(%rbp)
    9902:	48 b8 1e 11 0a fe 49 	movabs $0x51e06e49fe0a111e,%rax
    9909:	6e e0 51 
    990c:	48 89 85 38 e8 ff ff 	mov    %rax,-0x17c8(%rbp)
    9913:	c7 85 30 e7 ff ff f0 	movl   $0x4b0044f0,-0x18d0(%rbp)
    991a:	44 00 4b 
    991d:	c7 85 34 e7 ff ff fe 	movl   $0xfffffffe,-0x18cc(%rbp)
    9924:	ff ff ff 
    9927:	c6 85 f9 e6 ff ff 06 	movb   $0x6,-0x1907(%rbp)
    992e:	48 8d 85 f0 ee ff ff 	lea    -0x1110(%rbp),%rax
    9935:	48 8d 15 e4 40 01 00 	lea    0x140e4(%rip),%rdx        # 1da20 <g_2905+0x6b8>
    993c:	b9 50 00 00 00       	mov    $0x50,%ecx
    9941:	48 89 c7             	mov    %rax,%rdi
    9944:	48 89 d6             	mov    %rdx,%rsi
    9947:	f3 48 a5             	rep movsq %ds:(%rsi),%es:(%rdi)
    994a:	0f b7 05 f1 37 01 00 	movzwl 0x137f1(%rip),%eax        # 1d142 <g_1157>
    9951:	0f b7 c0             	movzwl %ax,%eax
    9954:	be 01 00 00 00       	mov    $0x1,%esi
    9959:	89 c7                	mov    %eax,%edi
    995b:	e8 bf d3 ff ff       	callq  6d1f <safe_sub_func_uint16_t_u_u>
    9960:	66 89 05 db 37 01 00 	mov    %ax,0x137db(%rip)        # 1d142 <g_1157>
    9967:	0f b7 05 d4 37 01 00 	movzwl 0x137d4(%rip),%eax        # 1d142 <g_1157>
    996e:	66 83 f8 0a          	cmp    $0xa,%ax
    9972:	0f 86 d9 fa ff ff    	jbe    9451 <func_20+0x180c>
    9978:	48 8b 85 e0 e7 ff ff 	mov    -0x1820(%rbp),%rax
    997f:	8b 00                	mov    (%rax),%eax
    9981:	48 8b 5d e8          	mov    -0x18(%rbp),%rbx
    9985:	64 48 33 1c 25 28 00 	xor    %fs:0x28,%rbx
    998c:	00 00 
    998e:	74 05                	je     9995 <func_20+0x1d50>
    9990:	e8 db c6 ff ff       	callq  6070 <__stack_chk_fail@plt>
    9995:	48 81 c4 28 19 00 00 	add    $0x1928,%rsp
    999c:	5b                   	pop    %rbx
    999d:	5d                   	pop    %rbp
    999e:	c3                   	retq   

000000000000999f <func_31>:
    999f:	f3 0f 1e fa          	endbr64 
    99a3:	55                   	push   %rbp
    99a4:	48 89 e5             	mov    %rsp,%rbp
    99a7:	41 54                	push   %r12
    99a9:	53                   	push   %rbx
    99aa:	48 81 ec 00 04 00 00 	sub    $0x400,%rsp
    99b1:	89 f8                	mov    %edi,%eax
    99b3:	89 95 04 fc ff ff    	mov    %edx,-0x3fc(%rbp)
    99b9:	89 8d 00 fc ff ff    	mov    %ecx,-0x400(%rbp)
    99bf:	4c 89 85 f8 fb ff ff 	mov    %r8,-0x408(%rbp)
    99c6:	66 89 85 0c fc ff ff 	mov    %ax,-0x3f4(%rbp)
    99cd:	89 f0                	mov    %esi,%eax
    99cf:	88 85 08 fc ff ff    	mov    %al,-0x3f8(%rbp)
    99d5:	64 48 8b 04 25 28 00 	mov    %fs:0x28,%rax
    99dc:	00 00 
    99de:	48 89 45 e8          	mov    %rax,-0x18(%rbp)
    99e2:	31 c0                	xor    %eax,%eax
    99e4:	c7 85 24 fc ff ff 01 	movl   $0x1,-0x3dc(%rbp)
    99eb:	00 00 00 
    99ee:	48 8d 85 24 fc ff ff 	lea    -0x3dc(%rbp),%rax
    99f5:	48 89 85 b8 fc ff ff 	mov    %rax,-0x348(%rbp)
    99fc:	48 8d 05 1d 37 01 00 	lea    0x1371d(%rip),%rax        # 1d120 <g_929>
    9a03:	48 89 85 a0 fd ff ff 	mov    %rax,-0x260(%rbp)
    9a0a:	48 8d 05 0f 37 01 00 	lea    0x1370f(%rip),%rax        # 1d120 <g_929>
    9a11:	48 89 85 a8 fd ff ff 	mov    %rax,-0x258(%rbp)
    9a18:	48 8d 05 41 36 01 00 	lea    0x13641(%rip),%rax        # 1d060 <g_77+0x20>
    9a1f:	48 89 85 b0 fd ff ff 	mov    %rax,-0x250(%rbp)
    9a26:	48 8d 05 f3 36 01 00 	lea    0x136f3(%rip),%rax        # 1d120 <g_929>
    9a2d:	48 89 85 b8 fd ff ff 	mov    %rax,-0x248(%rbp)
    9a34:	48 8d 05 e5 36 01 00 	lea    0x136e5(%rip),%rax        # 1d120 <g_929>
    9a3b:	48 89 85 c0 fd ff ff 	mov    %rax,-0x240(%rbp)
    9a42:	48 8d 05 17 36 01 00 	lea    0x13617(%rip),%rax        # 1d060 <g_77+0x20>
    9a49:	48 89 85 c8 fd ff ff 	mov    %rax,-0x238(%rbp)
    9a50:	48 8d 05 c9 36 01 00 	lea    0x136c9(%rip),%rax        # 1d120 <g_929>
    9a57:	48 89 85 d0 fd ff ff 	mov    %rax,-0x230(%rbp)
    9a5e:	c7 85 48 fc ff ff ff 	movl   $0xffffffff,-0x3b8(%rbp)
    9a65:	ff ff ff 
    9a68:	48 b8 b4 77 8e e1 d9 	movabs $0xfbc319d9e18e77b4,%rax
    9a6f:	19 c3 fb 
    9a72:	48 89 85 b0 fc ff ff 	mov    %rax,-0x350(%rbp)
    9a79:	48 c7 85 c0 fc ff ff 	movq   $0xfffffffffffffffe,-0x340(%rbp)
    9a80:	fe ff ff ff 
    9a84:	48 8d 05 9d 35 01 00 	lea    0x1359d(%rip),%rax        # 1d028 <g_75>
    9a8b:	48 89 85 98 fc ff ff 	mov    %rax,-0x368(%rbp)
    9a92:	48 8d 85 98 fc ff ff 	lea    -0x368(%rbp),%rax
    9a99:	48 89 85 a0 fc ff ff 	mov    %rax,-0x360(%rbp)
    9aa0:	48 8d 85 a0 fc ff ff 	lea    -0x360(%rbp),%rax
    9aa7:	48 89 85 c8 fc ff ff 	mov    %rax,-0x338(%rbp)
    9aae:	48 8d 05 73 4f 01 00 	lea    0x14f73(%rip),%rax        # 1ea28 <g_352>
    9ab5:	48 89 85 d0 fc ff ff 	mov    %rax,-0x330(%rbp)
    9abc:	48 c7 85 f0 fe ff ff 	movq   $0x0,-0x110(%rbp)
    9ac3:	00 00 00 00 
    9ac7:	48 c7 85 f8 fe ff ff 	movq   $0x0,-0x108(%rbp)
    9ace:	00 00 00 00 
    9ad2:	48 c7 85 00 ff ff ff 	movq   $0x0,-0x100(%rbp)
    9ad9:	00 00 00 00 
    9add:	48 c7 85 08 ff ff ff 	movq   $0x0,-0xf8(%rbp)
    9ae4:	00 00 00 00 
    9ae8:	48 c7 85 10 ff ff ff 	movq   $0x0,-0xf0(%rbp)
    9aef:	00 00 00 00 
    9af3:	48 8d 05 56 51 01 00 	lea    0x15156(%rip),%rax        # 1ec50 <g_525>
    9afa:	48 89 85 18 ff ff ff 	mov    %rax,-0xe8(%rbp)
    9b01:	48 8d 05 48 51 01 00 	lea    0x15148(%rip),%rax        # 1ec50 <g_525>
    9b08:	48 89 85 20 ff ff ff 	mov    %rax,-0xe0(%rbp)
    9b0f:	48 8d 05 3a 51 01 00 	lea    0x1513a(%rip),%rax        # 1ec50 <g_525>
    9b16:	48 89 85 28 ff ff ff 	mov    %rax,-0xd8(%rbp)
    9b1d:	48 8d 05 2c 51 01 00 	lea    0x1512c(%rip),%rax        # 1ec50 <g_525>
    9b24:	48 89 85 30 ff ff ff 	mov    %rax,-0xd0(%rbp)
    9b2b:	48 8d 05 1e 51 01 00 	lea    0x1511e(%rip),%rax        # 1ec50 <g_525>
    9b32:	48 89 85 38 ff ff ff 	mov    %rax,-0xc8(%rbp)
    9b39:	48 c7 85 40 ff ff ff 	movq   $0x0,-0xc0(%rbp)
    9b40:	00 00 00 00 
    9b44:	48 c7 85 48 ff ff ff 	movq   $0x0,-0xb8(%rbp)
    9b4b:	00 00 00 00 
    9b4f:	48 c7 85 50 ff ff ff 	movq   $0x0,-0xb0(%rbp)
    9b56:	00 00 00 00 
    9b5a:	48 c7 85 58 ff ff ff 	movq   $0x0,-0xa8(%rbp)
    9b61:	00 00 00 00 
    9b65:	48 c7 85 60 ff ff ff 	movq   $0x0,-0xa0(%rbp)
    9b6c:	00 00 00 00 
    9b70:	48 8d 05 d9 50 01 00 	lea    0x150d9(%rip),%rax        # 1ec50 <g_525>
    9b77:	48 89 85 68 ff ff ff 	mov    %rax,-0x98(%rbp)
    9b7e:	48 8d 05 cb 50 01 00 	lea    0x150cb(%rip),%rax        # 1ec50 <g_525>
    9b85:	48 89 85 70 ff ff ff 	mov    %rax,-0x90(%rbp)
    9b8c:	48 8d 05 bd 50 01 00 	lea    0x150bd(%rip),%rax        # 1ec50 <g_525>
    9b93:	48 89 85 78 ff ff ff 	mov    %rax,-0x88(%rbp)
    9b9a:	48 8d 05 af 50 01 00 	lea    0x150af(%rip),%rax        # 1ec50 <g_525>
    9ba1:	48 89 45 80          	mov    %rax,-0x80(%rbp)
    9ba5:	48 8d 05 a4 50 01 00 	lea    0x150a4(%rip),%rax        # 1ec50 <g_525>
    9bac:	48 89 45 88          	mov    %rax,-0x78(%rbp)
    9bb0:	48 c7 45 90 00 00 00 	movq   $0x0,-0x70(%rbp)
    9bb7:	00 
    9bb8:	48 c7 45 98 00 00 00 	movq   $0x0,-0x68(%rbp)
    9bbf:	00 
    9bc0:	48 c7 45 a0 00 00 00 	movq   $0x0,-0x60(%rbp)
    9bc7:	00 
    9bc8:	48 c7 45 a8 00 00 00 	movq   $0x0,-0x58(%rbp)
    9bcf:	00 
    9bd0:	48 c7 45 b0 00 00 00 	movq   $0x0,-0x50(%rbp)
    9bd7:	00 
    9bd8:	48 8d 05 71 50 01 00 	lea    0x15071(%rip),%rax        # 1ec50 <g_525>
    9bdf:	48 89 45 b8          	mov    %rax,-0x48(%rbp)
    9be3:	48 8d 05 66 50 01 00 	lea    0x15066(%rip),%rax        # 1ec50 <g_525>
    9bea:	48 89 45 c0          	mov    %rax,-0x40(%rbp)
    9bee:	48 8d 05 5b 50 01 00 	lea    0x1505b(%rip),%rax        # 1ec50 <g_525>
    9bf5:	48 89 45 c8          	mov    %rax,-0x38(%rbp)
    9bf9:	48 8d 05 50 50 01 00 	lea    0x15050(%rip),%rax        # 1ec50 <g_525>
    9c00:	48 89 45 d0          	mov    %rax,-0x30(%rbp)
    9c04:	48 8d 05 45 50 01 00 	lea    0x15045(%rip),%rax        # 1ec50 <g_525>
    9c0b:	48 89 45 d8          	mov    %rax,-0x28(%rbp)
    9c0f:	48 c7 85 d8 fc ff ff 	movq   $0x0,-0x328(%rbp)
    9c16:	00 00 00 00 
    9c1a:	c7 85 4c fc ff ff 02 	movl   $0x2,-0x3b4(%rbp)
    9c21:	00 00 00 
    9c24:	c6 85 1f fc ff ff 41 	movb   $0x41,-0x3e1(%rbp)
    9c2b:	c7 85 28 fc ff ff 00 	movl   $0x0,-0x3d8(%rbp)
    9c32:	00 00 00 
    9c35:	eb 1e                	jmp    9c55 <func_31+0x2b6>
    9c37:	8b 85 28 fc ff ff    	mov    -0x3d8(%rbp),%eax
    9c3d:	48 98                	cltq   
    9c3f:	48 8d 15 3a 5c 01 00 	lea    0x15c3a(%rip),%rdx        # 1f880 <g_1241>
    9c46:	48 89 94 c5 40 fd ff 	mov    %rdx,-0x2c0(%rbp,%rax,8)
    9c4d:	ff 
    9c4e:	83 85 28 fc ff ff 01 	addl   $0x1,-0x3d8(%rbp)
    9c55:	83 bd 28 fc ff ff 04 	cmpl   $0x4,-0x3d8(%rbp)
    9c5c:	7e d9                	jle    9c37 <func_31+0x298>
    9c5e:	83 85 48 fc ff ff 01 	addl   $0x1,-0x3b8(%rbp)
    9c65:	48 83 85 c0 fc ff ff 	addq   $0x1,-0x340(%rbp)
    9c6c:	01 
    9c6d:	48 c7 85 b0 fc ff ff 	movq   $0x1,-0x350(%rbp)
    9c74:	01 00 00 00 
    9c78:	e9 ce 07 00 00       	jmpq   a44b <func_31+0xaac>
    9c7d:	c7 85 50 fc ff ff 62 	movl   $0xe97b6a62,-0x3b0(%rbp)
    9c84:	6a 7b e9 
    9c87:	48 8d 05 52 34 01 00 	lea    0x13452(%rip),%rax        # 1d0e0 <g_555>
    9c8e:	48 89 85 e0 fc ff ff 	mov    %rax,-0x320(%rbp)
    9c95:	48 8d 05 7c 4e 01 00 	lea    0x14e7c(%rip),%rax        # 1eb18 <g_483+0x18>
    9c9c:	48 89 85 e8 fc ff ff 	mov    %rax,-0x318(%rbp)
    9ca3:	c7 85 2c fc ff ff 12 	movl   $0xa0168112,-0x3d4(%rbp)
    9caa:	81 16 a0 
    9cad:	c7 85 54 fc ff ff ff 	movl   $0xe32fdaff,-0x3ac(%rbp)
    9cb4:	da 2f e3 
    9cb7:	c7 85 58 fc ff ff 00 	movl   $0x0,-0x3a8(%rbp)
    9cbe:	00 00 00 
    9cc1:	c7 85 20 fd ff ff 74 	movl   $0x80532274,-0x2e0(%rbp)
    9cc8:	22 53 80 
    9ccb:	c7 85 24 fd ff ff 74 	movl   $0x80532274,-0x2dc(%rbp)
    9cd2:	22 53 80 
    9cd5:	c7 85 28 fd ff ff 74 	movl   $0x80532274,-0x2d8(%rbp)
    9cdc:	22 53 80 
    9cdf:	c7 85 2c fd ff ff 74 	movl   $0x80532274,-0x2d4(%rbp)
    9ce6:	22 53 80 
    9ce9:	c7 85 30 fd ff ff 74 	movl   $0x80532274,-0x2d0(%rbp)
    9cf0:	22 53 80 
    9cf3:	c7 85 34 fd ff ff 74 	movl   $0x80532274,-0x2cc(%rbp)
    9cfa:	22 53 80 
    9cfd:	48 8d 05 0c 51 01 00 	lea    0x1510c(%rip),%rax        # 1ee10 <g_1096>
    9d04:	48 89 85 f0 fc ff ff 	mov    %rax,-0x310(%rbp)
    9d0b:	8b 9d 04 fc ff ff    	mov    -0x3fc(%rbp),%ebx
    9d11:	48 8b 85 e0 fc ff ff 	mov    -0x320(%rbp),%rax
    9d18:	c6 00 00             	movb   $0x0,(%rax)
    9d1b:	48 8b 85 e8 fc ff ff 	mov    -0x318(%rbp),%rax
    9d22:	48 89 45 80          	mov    %rax,-0x80(%rbp)
    9d26:	0f b7 85 0c fc ff ff 	movzwl -0x3f4(%rbp),%eax
    9d2d:	48 39 85 f8 fb ff ff 	cmp    %rax,-0x408(%rbp)
    9d34:	8b 85 50 fc ff ff    	mov    -0x3b0(%rbp),%eax
    9d3a:	be 00 00 00 00       	mov    $0x0,%esi
    9d3f:	48 89 c7             	mov    %rax,%rdi
    9d42:	e8 04 d3 ff ff       	callq  704b <safe_sub_func_uint64_t_u_u>
    9d47:	8b 15 57 33 01 00    	mov    0x13357(%rip),%edx        # 1d0a4 <g_109>
    9d4d:	48 63 d2             	movslq %edx,%rdx
    9d50:	48 39 d0             	cmp    %rdx,%rax
    9d53:	0f 95 c0             	setne  %al
    9d56:	0f b6 d0             	movzbl %al,%edx
    9d59:	0f be 85 08 fc ff ff 	movsbl -0x3f8(%rbp),%eax
    9d60:	31 d0                	xor    %edx,%eax
    9d62:	39 85 50 fc ff ff    	cmp    %eax,-0x3b0(%rbp)
    9d68:	0f 92 c0             	setb   %al
    9d6b:	0f b6 c0             	movzbl %al,%eax
    9d6e:	89 de                	mov    %ebx,%esi
    9d70:	89 c7                	mov    %eax,%edi
    9d72:	e8 b3 c7 ff ff       	callq  652a <safe_rshift_func_int16_t_s_s>
    9d77:	0f be c0             	movsbl %al,%eax
    9d7a:	be 05 00 00 00       	mov    $0x5,%esi
    9d7f:	89 c7                	mov    %eax,%edi
    9d81:	e8 ab c4 ff ff       	callq  6231 <safe_mod_func_int8_t_s_s>
    9d86:	0f be d0             	movsbl %al,%edx
    9d89:	48 8b 85 b8 fc ff ff 	mov    -0x348(%rbp),%rax
    9d90:	89 10                	mov    %edx,(%rax)
    9d92:	48 8b 85 b8 fc ff ff 	mov    -0x348(%rbp),%rax
    9d99:	8b 00                	mov    (%rax),%eax
    9d9b:	8b 95 00 fc ff ff    	mov    -0x400(%rbp),%edx
    9da1:	89 d6                	mov    %edx,%esi
    9da3:	89 c7                	mov    %eax,%edi
    9da5:	e8 5b c8 ff ff       	callq  6605 <safe_sub_func_int32_t_s_s>
    9daa:	48 8d 05 27 4d 01 00 	lea    0x14d27(%rip),%rax        # 1ead8 <g_449>
    9db1:	48 8b 00             	mov    (%rax),%rax
    9db4:	c7 00 fb ff ff ff    	movl   $0xfffffffb,(%rax)
    9dba:	c7 85 04 fc ff ff 00 	movl   $0x0,-0x3fc(%rbp)
    9dc1:	00 00 00 
    9dc4:	e9 41 06 00 00       	jmpq   a40a <func_31+0xa6b>
    9dc9:	48 c7 85 a8 fc ff ff 	movq   $0x1,-0x358(%rbp)
    9dd0:	01 00 00 00 
    9dd4:	c7 85 5c fc ff ff 88 	movl   $0x24e07988,-0x3a4(%rbp)
    9ddb:	79 e0 24 
    9dde:	c7 85 60 fc ff ff fd 	movl   $0xfffffffd,-0x3a0(%rbp)
    9de5:	ff ff ff 
    9de8:	c7 85 64 fc ff ff f0 	movl   $0x9bd411f0,-0x39c(%rbp)
    9def:	11 d4 9b 
    9df2:	c7 85 30 fc ff ff 17 	movl   $0x9c09d217,-0x3d0(%rbp)
    9df9:	d2 09 9c 
    9dfc:	c7 85 68 fc ff ff ff 	movl   $0xffffffff,-0x398(%rbp)
    9e03:	ff ff ff 
    9e06:	c7 85 34 fc ff ff 00 	movl   $0x0,-0x3cc(%rbp)
    9e0d:	00 00 00 
    9e10:	c7 85 6c fc ff ff 09 	movl   $0x9,-0x394(%rbp)
    9e17:	00 00 00 
    9e1a:	c7 85 70 fc ff ff ff 	movl   $0xffffffff,-0x390(%rbp)
    9e21:	ff ff ff 
    9e24:	c7 85 74 fc ff ff 0b 	movl   $0xf41f8d0b,-0x38c(%rbp)
    9e2b:	8d 1f f4 
    9e2e:	66 c7 85 20 fc ff ff 	movw   $0xfff9,-0x3e0(%rbp)
    9e35:	f9 ff 
    9e37:	48 c7 05 e6 31 01 00 	movq   $0x0,0x131e6(%rip)        # 1d028 <g_75>
    9e3e:	00 00 00 00 
    9e42:	e9 4a 05 00 00       	jmpq   a391 <func_31+0x9f2>
    9e47:	c7 85 38 fc ff ff 91 	movl   $0x62e8d691,-0x3c8(%rbp)
    9e4e:	d6 e8 62 
    9e51:	c7 85 78 fc ff ff 00 	movl   $0x0,-0x388(%rbp)
    9e58:	00 00 00 
    9e5b:	c7 85 7c fc ff ff 2e 	movl   $0x7b3b9f2e,-0x384(%rbp)
    9e62:	9f 3b 7b 
    9e65:	c7 85 80 fc ff ff 0b 	movl   $0x64760b,-0x380(%rbp)
    9e6c:	76 64 00 
    9e6f:	c7 85 84 fc ff ff 00 	movl   $0x0,-0x37c(%rbp)
    9e76:	00 00 00 
    9e79:	48 8d 05 90 4f 01 00 	lea    0x14f90(%rip),%rax        # 1ee10 <g_1096>
    9e80:	48 89 85 00 fd ff ff 	mov    %rax,-0x300(%rbp)
    9e87:	c7 85 3c fc ff ff 00 	movl   $0x0,-0x3c4(%rbp)
    9e8e:	00 00 00 
    9e91:	eb 46                	jmp    9ed9 <func_31+0x53a>
    9e93:	c7 85 40 fc ff ff 00 	movl   $0x0,-0x3c0(%rbp)
    9e9a:	00 00 00 
    9e9d:	eb 2a                	jmp    9ec9 <func_31+0x52a>
    9e9f:	8b 85 40 fc ff ff    	mov    -0x3c0(%rbp),%eax
    9ea5:	48 98                	cltq   
    9ea7:	8b 95 3c fc ff ff    	mov    -0x3c4(%rbp),%edx
    9ead:	48 63 d2             	movslq %edx,%rdx
    9eb0:	48 c1 e2 03          	shl    $0x3,%rdx
    9eb4:	48 01 d0             	add    %rdx,%rax
    9eb7:	c7 84 85 30 fe ff ff 	movl   $0x0,-0x1d0(%rbp,%rax,4)
    9ebe:	00 00 00 00 
    9ec2:	83 85 40 fc ff ff 01 	addl   $0x1,-0x3c0(%rbp)
    9ec9:	83 bd 40 fc ff ff 07 	cmpl   $0x7,-0x3c0(%rbp)
    9ed0:	7e cd                	jle    9e9f <func_31+0x500>
    9ed2:	83 85 3c fc ff ff 01 	addl   $0x1,-0x3c4(%rbp)
    9ed9:	83 bd 3c fc ff ff 05 	cmpl   $0x5,-0x3c4(%rbp)
    9ee0:	7e b1                	jle    9e93 <func_31+0x4f4>
    9ee2:	48 8b 05 3f 31 01 00 	mov    0x1313f(%rip),%rax        # 1d028 <g_75>
    9ee9:	48 8d 50 02          	lea    0x2(%rax),%rdx
    9eed:	48 8b 05 34 31 01 00 	mov    0x13134(%rip),%rax        # 1d028 <g_75>
    9ef4:	48 8d 48 01          	lea    0x1(%rax),%rcx
    9ef8:	48 89 d0             	mov    %rdx,%rax
    9efb:	48 01 c0             	add    %rax,%rax
    9efe:	48 01 d0             	add    %rdx,%rax
    9f01:	48 8d 14 08          	lea    (%rax,%rcx,1),%rdx
    9f05:	48 8d 05 fc 31 01 00 	lea    0x131fc(%rip),%rax        # 1d108 <g_778>
    9f0c:	48 01 d0             	add    %rdx,%rax
    9f0f:	0f b6 00             	movzbl (%rax),%eax
    9f12:	84 c0                	test   %al,%al
    9f14:	0f 84 a9 02 00 00    	je     a1c3 <func_31+0x824>
    9f1a:	48 8d 05 3f 59 01 00 	lea    0x1593f(%rip),%rax        # 1f860 <g_375>
    9f21:	48 89 85 08 fd ff ff 	mov    %rax,-0x2f8(%rbp)
    9f28:	c7 85 88 fc ff ff ff 	movl   $0xffffffff,-0x378(%rbp)
    9f2f:	ff ff ff 
    9f32:	c7 85 8c fc ff ff fa 	movl   $0xfffffffa,-0x374(%rbp)
    9f39:	ff ff ff 
    9f3c:	c7 85 90 fc ff ff fc 	movl   $0xfffffffc,-0x370(%rbp)
    9f43:	ff ff ff 
    9f46:	c7 85 70 fd ff ff ff 	movl   $0xffffffff,-0x290(%rbp)
    9f4d:	ff ff ff 
    9f50:	c7 85 74 fd ff ff ac 	movl   $0x3a0a41ac,-0x28c(%rbp)
    9f57:	41 0a 3a 
    9f5a:	c7 85 78 fd ff ff ac 	movl   $0x3a0a41ac,-0x288(%rbp)
    9f61:	41 0a 3a 
    9f64:	c7 85 7c fd ff ff ff 	movl   $0xffffffff,-0x284(%rbp)
    9f6b:	ff ff ff 
    9f6e:	c7 85 80 fd ff ff ac 	movl   $0x3a0a41ac,-0x280(%rbp)
    9f75:	41 0a 3a 
    9f78:	c7 85 84 fd ff ff ac 	movl   $0x3a0a41ac,-0x27c(%rbp)
    9f7f:	41 0a 3a 
    9f82:	c7 85 88 fd ff ff ff 	movl   $0xffffffff,-0x278(%rbp)
    9f89:	ff ff ff 
    9f8c:	c7 85 8c fd ff ff ac 	movl   $0x3a0a41ac,-0x274(%rbp)
    9f93:	41 0a 3a 
    9f96:	c7 85 90 fd ff ff ac 	movl   $0x3a0a41ac,-0x270(%rbp)
    9f9d:	41 0a 3a 
    9fa0:	c7 85 94 fd ff ff ff 	movl   $0xffffffff,-0x26c(%rbp)
    9fa7:	ff ff ff 
    9faa:	c7 05 04 31 01 00 02 	movl   $0x2,0x13104(%rip)        # 1d0b8 <g_257>
    9fb1:	00 00 00 
    9fb4:	e9 e4 01 00 00       	jmpq   a19d <func_31+0x7fe>
    9fb9:	66 c7 85 22 fc ff ff 	movw   $0x0,-0x3de(%rbp)
    9fc0:	00 00 
    9fc2:	48 8d 85 a8 fc ff ff 	lea    -0x358(%rbp),%rax
    9fc9:	48 89 85 10 fd ff ff 	mov    %rax,-0x2f0(%rbp)
    9fd0:	48 c7 85 18 fd ff ff 	movq   $0x0,-0x2e8(%rbp)
    9fd7:	00 00 00 00 
    9fdb:	c7 85 44 fc ff ff 00 	movl   $0x0,-0x3bc(%rbp)
    9fe2:	00 00 00 
    9fe5:	eb 1e                	jmp    a005 <func_31+0x666>
    9fe7:	8b 85 44 fc ff ff    	mov    -0x3bc(%rbp),%eax
    9fed:	48 98                	cltq   
    9fef:	48 8d 95 40 fd ff ff 	lea    -0x2c0(%rbp),%rdx
    9ff6:	48 89 94 c5 e0 fd ff 	mov    %rdx,-0x220(%rbp,%rax,8)
    9ffd:	ff 
    9ffe:	83 85 44 fc ff ff 01 	addl   $0x1,-0x3bc(%rbp)
    a005:	83 bd 44 fc ff ff 08 	cmpl   $0x8,-0x3bc(%rbp)
    a00c:	7e d9                	jle    9fe7 <func_31+0x648>
    a00e:	48 8b 05 fb 4d 01 00 	mov    0x14dfb(%rip),%rax        # 1ee10 <g_1096>
    a015:	48 8b 10             	mov    (%rax),%rdx
    a018:	48 83 ea 01          	sub    $0x1,%rdx
    a01c:	48 89 10             	mov    %rdx,(%rax)
    a01f:	48 8b 18             	mov    (%rax),%rbx
    a022:	48 8b 85 a8 fc ff ff 	mov    -0x358(%rbp),%rax
    a029:	0f bf d0             	movswl %ax,%edx
    a02c:	8b 05 6e 30 01 00    	mov    0x1306e(%rip),%eax        # 1d0a0 <g_107>
    a032:	89 c0                	mov    %eax,%eax
    a034:	48 39 85 f8 fb ff ff 	cmp    %rax,-0x408(%rbp)
    a03b:	0f 92 c0             	setb   %al
    a03e:	0f b6 c0             	movzbl %al,%eax
    a041:	89 d6                	mov    %edx,%esi
    a043:	89 c7                	mov    %eax,%edi
    a045:	e8 0b c4 ff ff       	callq  6455 <safe_div_func_int16_t_s_s>
    a04a:	8b 15 10 30 01 00    	mov    0x13010(%rip),%edx        # 1d060 <g_77+0x20>
    a050:	0f b7 85 22 fc ff ff 	movzwl -0x3de(%rbp),%eax
    a057:	89 d6                	mov    %edx,%esi
    a059:	89 c7                	mov    %eax,%edi
    a05b:	e8 9f c6 ff ff       	callq  66ff <safe_div_func_int32_t_s_s>
    a060:	48 8b 05 09 51 01 00 	mov    0x15109(%rip),%rax        # 1f170 <g_1601>
    a067:	48 8b 00             	mov    (%rax),%rax
    a06a:	48 8b 00             	mov    (%rax),%rax
    a06d:	48 8b 00             	mov    (%rax),%rax
    a070:	48 8b 00             	mov    (%rax),%rax
    a073:	0f b6 00             	movzbl (%rax),%eax
    a076:	0f b6 d0             	movzbl %al,%edx
    a079:	48 8b 85 10 fd ff ff 	mov    -0x2f0(%rbp),%rax
    a080:	48 89 10             	mov    %rdx,(%rax)
    a083:	48 8b 85 10 fd ff ff 	mov    -0x2f0(%rbp),%rax
    a08a:	48 8b 00             	mov    (%rax),%rax
    a08d:	48 39 c3             	cmp    %rax,%rbx
    a090:	0f 97 c0             	seta   %al
    a093:	0f b6 c0             	movzbl %al,%eax
    a096:	89 c2                	mov    %eax,%edx
    a098:	8b 85 2c fc ff ff    	mov    -0x3d4(%rbp),%eax
    a09e:	21 d0                	and    %edx,%eax
    a0a0:	89 85 2c fc ff ff    	mov    %eax,-0x3d4(%rbp)
    a0a6:	8b 8d 2c fc ff ff    	mov    -0x3d4(%rbp),%ecx
    a0ac:	48 8b 05 25 4a 01 00 	mov    0x14a25(%rip),%rax        # 1ead8 <g_449>
    a0b3:	8b 10                	mov    (%rax),%edx
    a0b5:	48 8b 05 1c 4a 01 00 	mov    0x14a1c(%rip),%rax        # 1ead8 <g_449>
    a0bc:	09 ca                	or     %ecx,%edx
    a0be:	89 10                	mov    %edx,(%rax)
    a0c0:	8b 85 00 fc ff ff    	mov    -0x400(%rbp),%eax
    a0c6:	48 98                	cltq   
    a0c8:	48 39 85 f8 fb ff ff 	cmp    %rax,-0x408(%rbp)
    a0cf:	0f 82 8c 00 00 00    	jb     a161 <func_31+0x7c2>
    a0d5:	0f b7 9d 0c fc ff ff 	movzwl -0x3f4(%rbp),%ebx
    a0dc:	48 8b 85 b8 fc ff ff 	mov    -0x348(%rbp),%rax
    a0e3:	c7 00 ff ff ff ff    	movl   $0xffffffff,(%rax)
    a0e9:	48 8b 85 b8 fc ff ff 	mov    -0x348(%rbp),%rax
    a0f0:	8b 00                	mov    (%rax),%eax
    a0f2:	be f9 ff ff ff       	mov    $0xfffffff9,%esi
    a0f7:	89 c7                	mov    %eax,%edi
    a0f9:	e8 ce c5 ff ff       	callq  66cc <safe_mod_func_int32_t_s_s>
    a0fe:	89 c2                	mov    %eax,%edx
    a100:	48 8b 05 51 4c 01 00 	mov    0x14c51(%rip),%rax        # 1ed58 <g_860>
    a107:	88 10                	mov    %dl,(%rax)
    a109:	48 8b 85 50 fd ff ff 	mov    -0x2b0(%rbp),%rax
    a110:	48 89 05 69 52 01 00 	mov    %rax,0x15269(%rip)        # 1f380 <g_1962>
    a117:	48 8b 15 62 52 01 00 	mov    0x15262(%rip),%rdx        # 1f380 <g_1962>
    a11e:	48 8b 85 50 fd ff ff 	mov    -0x2b0(%rbp),%rax
    a125:	48 39 c2             	cmp    %rax,%rdx
    a128:	0f 95 c0             	setne  %al
    a12b:	0f b6 c0             	movzbl %al,%eax
    a12e:	be 05 00 00 00       	mov    $0x5,%esi
    a133:	89 c7                	mov    %eax,%edi
    a135:	e8 12 cb ff ff       	callq  6c4c <safe_lshift_func_uint8_t_u_u>
    a13a:	84 c0                	test   %al,%al
    a13c:	74 0c                	je     a14a <func_31+0x7ab>
    a13e:	48 8b 05 63 4b 01 00 	mov    0x14b63(%rip),%rax        # 1eca8 <g_725>
    a145:	0f b6 00             	movzbl (%rax),%eax
    a148:	84 c0                	test   %al,%al
    a14a:	89 de                	mov    %ebx,%esi
    a14c:	bf 7a 39 37 1d       	mov    $0x1d37397a,%edi
    a151:	e8 76 c5 ff ff       	callq  66cc <safe_mod_func_int32_t_s_s>
    a156:	85 c0                	test   %eax,%eax
    a158:	74 07                	je     a161 <func_31+0x7c2>
    a15a:	b8 01 00 00 00       	mov    $0x1,%eax
    a15f:	eb 05                	jmp    a166 <func_31+0x7c7>
    a161:	b8 00 00 00 00       	mov    $0x0,%eax
    a166:	21 85 38 fc ff ff    	and    %eax,-0x3c8(%rbp)
    a16c:	66 83 bd 0c fc ff ff 	cmpw   $0x0,-0x3f4(%rbp)
    a173:	00 
    a174:	75 37                	jne    a1ad <func_31+0x80e>
    a176:	48 8b 05 5b 49 01 00 	mov    0x1495b(%rip),%rax        # 1ead8 <g_449>
    a17d:	8b 10                	mov    (%rax),%edx
    a17f:	48 8b 05 52 49 01 00 	mov    0x14952(%rip),%rax        # 1ead8 <g_449>
    a186:	81 e2 8e 5e de 1f    	and    $0x1fde5e8e,%edx
    a18c:	89 10                	mov    %edx,(%rax)
    a18e:	8b 05 24 2f 01 00    	mov    0x12f24(%rip),%eax        # 1d0b8 <g_257>
    a194:	83 e8 01             	sub    $0x1,%eax
    a197:	89 05 1b 2f 01 00    	mov    %eax,0x12f1b(%rip)        # 1d0b8 <g_257>
    a19d:	8b 05 15 2f 01 00    	mov    0x12f15(%rip),%eax        # 1d0b8 <g_257>
    a1a3:	85 c0                	test   %eax,%eax
    a1a5:	0f 89 0e fe ff ff    	jns    9fb9 <func_31+0x61a>
    a1ab:	eb 01                	jmp    a1ae <func_31+0x80f>
    a1ad:	90                   	nop
    a1ae:	0f b6 85 1f fc ff ff 	movzbl -0x3e1(%rbp),%eax
    a1b5:	83 c0 01             	add    $0x1,%eax
    a1b8:	88 85 1f fc ff ff    	mov    %al,-0x3e1(%rbp)
    a1be:	e9 21 01 00 00       	jmpq   a2e4 <func_31+0x945>
    a1c3:	c7 85 24 fc ff ff 00 	movl   $0x0,-0x3dc(%rbp)
    a1ca:	00 00 00 
    a1cd:	eb 5c                	jmp    a22b <func_31+0x88c>
    a1cf:	c7 85 30 fc ff ff 00 	movl   $0x0,-0x3d0(%rbp)
    a1d6:	00 00 00 
    a1d9:	eb 38                	jmp    a213 <func_31+0x874>
    a1db:	8b 95 24 fc ff ff    	mov    -0x3dc(%rbp),%edx
    a1e1:	8b 85 30 fc ff ff    	mov    -0x3d0(%rbp),%eax
    a1e7:	48 98                	cltq   
    a1e9:	48 63 d2             	movslq %edx,%rdx
    a1ec:	48 01 d2             	add    %rdx,%rdx
    a1ef:	48 01 d0             	add    %rdx,%rax
    a1f2:	48 8d 14 c5 00 00 00 	lea    0x0(,%rax,8),%rdx
    a1f9:	00 
    a1fa:	48 8d 05 3f 48 01 00 	lea    0x1483f(%rip),%rax        # 1ea40 <g_436>
    a201:	48 8d 0d 20 48 01 00 	lea    0x14820(%rip),%rcx        # 1ea28 <g_352>
    a208:	48 89 0c 02          	mov    %rcx,(%rdx,%rax,1)
    a20c:	83 85 30 fc ff ff 01 	addl   $0x1,-0x3d0(%rbp)
    a213:	83 bd 30 fc ff ff 01 	cmpl   $0x1,-0x3d0(%rbp)
    a21a:	7e bf                	jle    a1db <func_31+0x83c>
    a21c:	8b 85 24 fc ff ff    	mov    -0x3dc(%rbp),%eax
    a222:	83 c0 01             	add    $0x1,%eax
    a225:	89 85 24 fc ff ff    	mov    %eax,-0x3dc(%rbp)
    a22b:	8b 85 24 fc ff ff    	mov    -0x3dc(%rbp),%eax
    a231:	83 f8 08             	cmp    $0x8,%eax
    a234:	7e 99                	jle    a1cf <func_31+0x830>
    a236:	48 8b 85 f8 fb ff ff 	mov    -0x408(%rbp),%rax
    a23d:	41 89 c4             	mov    %eax,%r12d
    a240:	8b 85 04 fc ff ff    	mov    -0x3fc(%rbp),%eax
    a246:	0f bf d8             	movswl %ax,%ebx
    a249:	48 be b7 b1 ab 05 5a 	movabs $0x8febfd5a05abb1b7,%rsi
    a250:	fd eb 8f 
    a253:	bf 00 00 00 00       	mov    $0x0,%edi
    a258:	e8 ee cd ff ff       	callq  704b <safe_sub_func_uint64_t_u_u>
    a25d:	83 e0 61             	and    $0x61,%eax
    a260:	48 85 c0             	test   %rax,%rax
    a263:	0f 94 c0             	sete   %al
    a266:	0f b6 c0             	movzbl %al,%eax
    a269:	8b 15 a5 2e 01 00    	mov    0x12ea5(%rip),%edx        # 1d114 <g_798>
    a26f:	21 d0                	and    %edx,%eax
    a271:	98                   	cwtl   
    a272:	89 de                	mov    %ebx,%esi
    a274:	89 c7                	mov    %eax,%edi
    a276:	e8 da c1 ff ff       	callq  6455 <safe_div_func_int16_t_s_s>
    a27b:	44 89 e6             	mov    %r12d,%esi
    a27e:	bf 01 00 00 00       	mov    $0x1,%edi
    a283:	e8 48 cc ff ff       	callq  6ed0 <safe_sub_func_uint32_t_u_u>
    a288:	0f b7 85 20 fc ff ff 	movzwl -0x3e0(%rbp),%eax
    a28f:	83 c8 53             	or     $0x53,%eax
    a292:	0f be c0             	movsbl %al,%eax
    a295:	be 02 00 00 00       	mov    $0x2,%esi
    a29a:	89 c7                	mov    %eax,%edi
    a29c:	e8 94 c0 ff ff       	callq  6335 <safe_rshift_func_int8_t_s_s>
    a2a1:	0f be d0             	movsbl %al,%edx
    a2a4:	0f b7 85 0c fc ff ff 	movzwl -0x3f4(%rbp),%eax
    a2ab:	98                   	cwtl   
    a2ac:	89 d6                	mov    %edx,%esi
    a2ae:	89 c7                	mov    %eax,%edi
    a2b0:	e8 40 c1 ff ff       	callq  63f5 <safe_mul_func_int16_t_s_s>
    a2b5:	66 85 c0             	test   %ax,%ax
    a2b8:	75 0a                	jne    a2c4 <func_31+0x925>
    a2ba:	66 83 bd 0c fc ff ff 	cmpw   $0x0,-0x3f4(%rbp)
    a2c1:	00 
    a2c2:	74 07                	je     a2cb <func_31+0x92c>
    a2c4:	b9 01 00 00 00       	mov    $0x1,%ecx
    a2c9:	eb 05                	jmp    a2d0 <func_31+0x931>
    a2cb:	b9 00 00 00 00       	mov    $0x0,%ecx
    a2d0:	48 8b 05 01 48 01 00 	mov    0x14801(%rip),%rax        # 1ead8 <g_449>
    a2d7:	8b 10                	mov    (%rax),%edx
    a2d9:	48 8b 05 f8 47 01 00 	mov    0x147f8(%rip),%rax        # 1ead8 <g_449>
    a2e0:	09 ca                	or     %ecx,%edx
    a2e2:	89 10                	mov    %edx,(%rax)
    a2e4:	0f be 85 08 fc ff ff 	movsbl -0x3f8(%rbp),%eax
    a2eb:	21 85 34 fc ff ff    	and    %eax,-0x3cc(%rbp)
    a2f1:	83 bd 00 fc ff ff 00 	cmpl   $0x0,-0x400(%rbp)
    a2f8:	0f 85 80 00 00 00    	jne    a37e <func_31+0x9df>
    a2fe:	c6 05 d5 2d 01 00 00 	movb   $0x0,0x12dd5(%rip)        # 1d0da <g_438>
    a305:	eb 6a                	jmp    a371 <func_31+0x9d2>
    a307:	48 c7 05 4e 55 01 00 	movq   $0x0,0x1554e(%rip)        # 1f860 <g_375>
    a30e:	00 00 00 00 
    a312:	eb 40                	jmp    a354 <func_31+0x9b5>
    a314:	c7 85 94 fc ff ff 01 	movl   $0x1,-0x36c(%rbp)
    a31b:	00 00 00 
    a31e:	8b 85 94 fc ff ff    	mov    -0x36c(%rbp),%eax
    a324:	98                   	cwtl   
    a325:	be 66 e9 ff ff       	mov    $0xffffe966,%esi
    a32a:	89 c7                	mov    %eax,%edi
    a32c:	e8 24 c1 ff ff       	callq  6455 <safe_div_func_int16_t_s_s>
    a331:	89 c2                	mov    %eax,%edx
    a333:	48 8d 05 9e 47 01 00 	lea    0x1479e(%rip),%rax        # 1ead8 <g_449>
    a33a:	48 8b 00             	mov    (%rax),%rax
    a33d:	0f bf d2             	movswl %dx,%edx
    a340:	89 10                	mov    %edx,(%rax)
    a342:	48 8b 05 17 55 01 00 	mov    0x15517(%rip),%rax        # 1f860 <g_375>
    a349:	48 83 c0 01          	add    $0x1,%rax
    a34d:	48 89 05 0c 55 01 00 	mov    %rax,0x1550c(%rip)        # 1f860 <g_375>
    a354:	48 8b 05 05 55 01 00 	mov    0x15505(%rip),%rax        # 1f860 <g_375>
    a35b:	48 83 f8 03          	cmp    $0x3,%rax
    a35f:	7e b3                	jle    a314 <func_31+0x975>
    a361:	0f b6 05 72 2d 01 00 	movzbl 0x12d72(%rip),%eax        # 1d0da <g_438>
    a368:	83 c0 01             	add    $0x1,%eax
    a36b:	88 05 69 2d 01 00    	mov    %al,0x12d69(%rip)        # 1d0da <g_438>
    a371:	0f b6 05 62 2d 01 00 	movzbl 0x12d62(%rip),%eax        # 1d0da <g_438>
    a378:	3c 02                	cmp    $0x2,%al
    a37a:	76 8b                	jbe    a307 <func_31+0x968>
    a37c:	eb 01                	jmp    a37f <func_31+0x9e0>
    a37e:	90                   	nop
    a37f:	48 8b 05 a2 2c 01 00 	mov    0x12ca2(%rip),%rax        # 1d028 <g_75>
    a386:	48 83 c0 01          	add    $0x1,%rax
    a38a:	48 89 05 97 2c 01 00 	mov    %rax,0x12c97(%rip)        # 1d028 <g_75>
    a391:	48 8b 05 90 2c 01 00 	mov    0x12c90(%rip),%rax        # 1d028 <g_75>
    a398:	48 85 c0             	test   %rax,%rax
    a39b:	0f 84 a6 fa ff ff    	je     9e47 <func_31+0x4a8>
    a3a1:	8b 85 04 fc ff ff    	mov    -0x3fc(%rbp),%eax
    a3a7:	48 8b 94 c5 a0 fd ff 	mov    -0x260(%rbp,%rax,8),%rdx
    a3ae:	ff 
    a3af:	48 8b 85 e8 fc ff ff 	mov    -0x318(%rbp),%rax
    a3b6:	48 89 10             	mov    %rdx,(%rax)
    a3b9:	c6 05 fc 2c 01 00 00 	movb   $0x0,0x12cfc(%rip)        # 1d0bc <g_293>
    a3c0:	eb 36                	jmp    a3f8 <func_31+0xa59>
    a3c2:	48 c7 85 f8 fc ff ff 	movq   $0xffffffffffffffff,-0x308(%rbp)
    a3c9:	ff ff ff ff 
    a3cd:	48 83 85 f8 fc ff ff 	addq   $0x1,-0x308(%rbp)
    a3d4:	01 
    a3d5:	48 8d 05 fc 46 01 00 	lea    0x146fc(%rip),%rax        # 1ead8 <g_449>
    a3dc:	48 8b 00             	mov    (%rax),%rax
    a3df:	0f be 95 08 fc ff ff 	movsbl -0x3f8(%rbp),%edx
    a3e6:	89 10                	mov    %edx,(%rax)
    a3e8:	0f b6 05 cd 2c 01 00 	movzbl 0x12ccd(%rip),%eax        # 1d0bc <g_293>
    a3ef:	83 c0 01             	add    $0x1,%eax
    a3f2:	88 05 c4 2c 01 00    	mov    %al,0x12cc4(%rip)        # 1d0bc <g_293>
    a3f8:	0f b6 05 bd 2c 01 00 	movzbl 0x12cbd(%rip),%eax        # 1d0bc <g_293>
    a3ff:	3c 06                	cmp    $0x6,%al
    a401:	76 bf                	jbe    a3c2 <func_31+0xa23>
    a403:	83 85 04 fc ff ff 01 	addl   $0x1,-0x3fc(%rbp)
    a40a:	83 bd 04 fc ff ff 06 	cmpl   $0x6,-0x3fc(%rbp)
    a411:	0f 86 b2 f9 ff ff    	jbe    9dc9 <func_31+0x42a>
    a417:	48 8b 15 82 49 01 00 	mov    0x14982(%rip),%rdx        # 1eda0 <g_1010>
    a41e:	48 8b 05 7b 49 01 00 	mov    0x1497b(%rip),%rax        # 1eda0 <g_1010>
    a425:	48 8b 12             	mov    (%rdx),%rdx
    a428:	48 89 10             	mov    %rdx,(%rax)
    a42b:	48 8b 85 b0 fc ff ff 	mov    -0x350(%rbp),%rax
    a432:	0f b6 c0             	movzbl %al,%eax
    a435:	be 05 00 00 00       	mov    $0x5,%esi
    a43a:	89 c7                	mov    %eax,%edi
    a43c:	e8 19 c7 ff ff       	callq  6b5a <safe_add_func_uint8_t_u_u>
    a441:	0f b6 c0             	movzbl %al,%eax
    a444:	48 89 85 b0 fc ff ff 	mov    %rax,-0x350(%rbp)
    a44b:	48 83 bd b0 fc ff ff 	cmpq   $0x6,-0x350(%rbp)
    a452:	06 
    a453:	0f 85 24 f8 ff ff    	jne    9c7d <func_31+0x2de>
    a459:	0f b7 05 30 2c 01 00 	movzwl 0x12c30(%rip),%eax        # 1d090 <g_97>
    a460:	98                   	cwtl   
    a461:	48 8b 5d e8          	mov    -0x18(%rbp),%rbx
    a465:	64 48 33 1c 25 28 00 	xor    %fs:0x28,%rbx
    a46c:	00 00 
    a46e:	74 05                	je     a475 <func_31+0xad6>
    a470:	e8 fb bb ff ff       	callq  6070 <__stack_chk_fail@plt>
    a475:	48 81 c4 00 04 00 00 	add    $0x400,%rsp
    a47c:	5b                   	pop    %rbx
    a47d:	41 5c                	pop    %r12
    a47f:	5d                   	pop    %rbp
    a480:	c3                   	retq   

000000000000a481 <func_37>:
    a481:	f3 0f 1e fa          	endbr64 
    a485:	55                   	push   %rbp
    a486:	48 89 e5             	mov    %rsp,%rbp
    a489:	89 f8                	mov    %edi,%eax
    a48b:	89 75 f8             	mov    %esi,-0x8(%rbp)
    a48e:	48 89 4d e8          	mov    %rcx,-0x18(%rbp)
    a492:	66 89 45 fc          	mov    %ax,-0x4(%rbp)
    a496:	89 d0                	mov    %edx,%eax
    a498:	88 45 f4             	mov    %al,-0xc(%rbp)
    a49b:	48 8d 05 36 46 01 00 	lea    0x14636(%rip),%rax        # 1ead8 <g_449>
    a4a2:	48 8b 00             	mov    (%rax),%rax
    a4a5:	8b 10                	mov    (%rax),%edx
    a4a7:	c7 00 00 00 00 00    	movl   $0x0,(%rax)
    a4ad:	8b 05 19 2c 01 00    	mov    0x12c19(%rip),%eax        # 1d0cc <g_296>
    a4b3:	5d                   	pop    %rbp
    a4b4:	c3                   	retq   

000000000000a4b5 <func_50>:
    a4b5:	f3 0f 1e fa          	endbr64 
    a4b9:	55                   	push   %rbp
    a4ba:	48 89 e5             	mov    %rsp,%rbp
    a4bd:	41 57                	push   %r15
    a4bf:	41 56                	push   %r14
    a4c1:	41 55                	push   %r13
    a4c3:	41 54                	push   %r12
    a4c5:	53                   	push   %rbx
    a4c6:	48 81 ec 00 10 00 00 	sub    $0x1000,%rsp
    a4cd:	48 83 0c 24 00       	orq    $0x0,(%rsp)
    a4d2:	48 81 ec 00 10 00 00 	sub    $0x1000,%rsp
    a4d9:	48 83 0c 24 00       	orq    $0x0,(%rsp)
    a4de:	48 81 ec 98 0c 00 00 	sub    $0xc98,%rsp
    a4e5:	89 bd 4c d3 ff ff    	mov    %edi,-0x2cb4(%rbp)
    a4eb:	89 b5 48 d3 ff ff    	mov    %esi,-0x2cb8(%rbp)
    a4f1:	89 d0                	mov    %edx,%eax
    a4f3:	66 89 85 44 d3 ff ff 	mov    %ax,-0x2cbc(%rbp)
    a4fa:	64 48 8b 04 25 28 00 	mov    %fs:0x28,%rax
    a501:	00 00 
    a503:	48 89 45 c8          	mov    %rax,-0x38(%rbp)
    a507:	31 c0                	xor    %eax,%eax
    a509:	c6 85 52 d3 ff ff b2 	movb   $0xb2,-0x2cae(%rbp)
    a510:	48 8d 05 49 2b 01 00 	lea    0x12b49(%rip),%rax        # 1d060 <g_77+0x20>
    a517:	48 89 85 70 d4 ff ff 	mov    %rax,-0x2b90(%rbp)
    a51e:	c6 85 55 d3 ff ff 88 	movb   $0x88,-0x2cab(%rbp)
    a525:	c7 85 74 d3 ff ff 81 	movl   $0x58c9cd81,-0x2c8c(%rbp)
    a52c:	cd c9 58 
    a52f:	48 c7 85 60 d7 ff ff 	movq   $0x0,-0x28a0(%rbp)
    a536:	00 00 00 00 
    a53a:	48 c7 85 68 d7 ff ff 	movq   $0x0,-0x2898(%rbp)
    a541:	00 00 00 00 
    a545:	48 c7 85 70 d7 ff ff 	movq   $0x0,-0x2890(%rbp)
    a54c:	00 00 00 00 
    a550:	48 c7 85 78 d7 ff ff 	movq   $0x0,-0x2888(%rbp)
    a557:	00 00 00 00 
    a55b:	48 c7 85 80 d7 ff ff 	movq   $0x0,-0x2880(%rbp)
    a562:	00 00 00 00 
    a566:	48 8d 05 fb 46 01 00 	lea    0x146fb(%rip),%rax        # 1ec68 <g_554+0x8>
    a56d:	48 89 85 78 d4 ff ff 	mov    %rax,-0x2b88(%rbp)
    a574:	66 c7 85 68 d3 ff ff 	movw   $0x0,-0x2c98(%rbp)
    a57b:	00 00 
    a57d:	c7 85 78 d3 ff ff e2 	movl   $0x83cbe9e2,-0x2c88(%rbp)
    a584:	e9 cb 83 
    a587:	66 c7 85 6a d3 ff ff 	movw   $0x4913,-0x2c96(%rbp)
    a58e:	13 49 
    a590:	c6 85 56 d3 ff ff f7 	movb   $0xf7,-0x2caa(%rbp)
    a597:	c7 85 7c d3 ff ff 62 	movl   $0x6eac1b62,-0x2c84(%rbp)
    a59e:	1b ac 6e 
    a5a1:	c7 85 80 d3 ff ff 01 	movl   $0x1,-0x2c80(%rbp)
    a5a8:	00 00 00 
    a5ab:	c7 85 84 d3 ff ff ff 	movl   $0xffffffff,-0x2c7c(%rbp)
    a5b2:	ff ff ff 
    a5b5:	c7 85 88 d3 ff ff ba 	movl   $0xf08217ba,-0x2c78(%rbp)
    a5bc:	17 82 f0 
    a5bf:	c7 85 8c d3 ff ff 97 	movl   $0x67d70597,-0x2c74(%rbp)
    a5c6:	05 d7 67 
    a5c9:	c6 85 57 d3 ff ff ff 	movb   $0xff,-0x2ca9(%rbp)
    a5d0:	66 c7 85 5a d3 ff ff 	movw   $0xfd2e,-0x2ca6(%rbp)
    a5d7:	2e fd 
    a5d9:	c7 85 cc d3 ff ff 01 	movl   $0x1,-0x2c34(%rbp)
    a5e0:	00 00 00 
    a5e3:	48 8d 85 20 e2 ff ff 	lea    -0x1de0(%rbp),%rax
    a5ea:	48 8d 15 af 36 01 00 	lea    0x136af(%rip),%rdx        # 1dca0 <g_2905+0x938>
    a5f1:	b9 5a 00 00 00       	mov    $0x5a,%ecx
    a5f6:	48 89 c7             	mov    %rax,%rdi
    a5f9:	48 89 d6             	mov    %rdx,%rsi
    a5fc:	f3 48 a5             	rep movsq %ds:(%rsi),%es:(%rdi)
    a5ff:	66 c7 85 5c d3 ff ff 	movw   $0x0,-0x2ca4(%rbp)
    a606:	00 00 
    a608:	48 c7 85 40 d5 ff ff 	movq   $0x0,-0x2ac0(%rbp)
    a60f:	00 00 00 00 
    a613:	66 c7 85 5e d3 ff ff 	movw   $0x342b,-0x2ca2(%rbp)
    a61a:	2b 34 
    a61c:	48 8d 05 7d 47 01 00 	lea    0x1477d(%rip),%rax        # 1eda0 <g_1010>
    a623:	48 89 85 48 d5 ff ff 	mov    %rax,-0x2ab8(%rbp)
    a62a:	c7 85 d0 d3 ff ff 00 	movl   $0x0,-0x2c30(%rbp)
    a631:	00 00 00 
    a634:	48 8d 85 5a d3 ff ff 	lea    -0x2ca6(%rbp),%rax
    a63b:	48 89 85 50 d5 ff ff 	mov    %rax,-0x2ab0(%rbp)
    a642:	c7 85 b8 d3 ff ff 5d 	movl   $0xd417295d,-0x2c48(%rbp)
    a649:	29 17 d4 
    a64c:	c7 85 d4 d3 ff ff 00 	movl   $0x0,-0x2c2c(%rbp)
    a653:	00 00 00 
    a656:	eb 1a                	jmp    a672 <func_50+0x1bd>
    a658:	8b 85 d4 d3 ff ff    	mov    -0x2c2c(%rbp),%eax
    a65e:	48 98                	cltq   
    a660:	c7 84 85 40 d7 ff ff 	movl   $0xffe576fe,-0x28c0(%rbp,%rax,4)
    a667:	fe 76 e5 ff 
    a66b:	83 85 d4 d3 ff ff 01 	addl   $0x1,-0x2c2c(%rbp)
    a672:	83 bd d4 d3 ff ff 06 	cmpl   $0x6,-0x2c2c(%rbp)
    a679:	7e dd                	jle    a658 <func_50+0x1a3>
    a67b:	8b 05 53 2a 01 00    	mov    0x12a53(%rip),%eax        # 1d0d4 <g_399>
    a681:	0f bf d0             	movswl %ax,%edx
    a684:	48 8b 05 2d 46 01 00 	mov    0x1462d(%rip),%rax        # 1ecb8 <g_768>
    a68b:	48 8b 00             	mov    (%rax),%rax
    a68e:	0f b7 00             	movzwl (%rax),%eax
    a691:	98                   	cwtl   
    a692:	89 d6                	mov    %edx,%esi
    a694:	89 c7                	mov    %eax,%edi
    a696:	e8 5a bd ff ff       	callq  63f5 <safe_mul_func_int16_t_s_s>
    a69b:	66 85 c0             	test   %ax,%ax
    a69e:	0f 84 e8 68 00 00    	je     10f8c <func_50+0x6ad7>
    a6a4:	66 c7 85 6c d3 ff ff 	movw   $0x6,-0x2c94(%rbp)
    a6ab:	06 00 
    a6ad:	48 8d 05 5c 47 01 00 	lea    0x1475c(%rip),%rax        # 1ee10 <g_1096>
    a6b4:	48 89 85 80 d4 ff ff 	mov    %rax,-0x2b80(%rbp)
    a6bb:	48 8d 85 80 d4 ff ff 	lea    -0x2b80(%rbp),%rax
    a6c2:	48 89 85 78 d5 ff ff 	mov    %rax,-0x2a88(%rbp)
    a6c9:	48 8d 85 52 d3 ff ff 	lea    -0x2cae(%rbp),%rax
    a6d0:	48 89 85 80 d5 ff ff 	mov    %rax,-0x2a80(%rbp)
    a6d7:	c7 85 90 d3 ff ff 00 	movl   $0x0,-0x2c70(%rbp)
    a6de:	00 00 00 
    a6e1:	48 8d 05 90 51 01 00 	lea    0x15190(%rip),%rax        # 1f878 <g_861>
    a6e8:	48 89 85 40 d8 ff ff 	mov    %rax,-0x27c0(%rbp)
    a6ef:	48 8d 05 82 51 01 00 	lea    0x15182(%rip),%rax        # 1f878 <g_861>
    a6f6:	48 89 85 48 d8 ff ff 	mov    %rax,-0x27b8(%rbp)
    a6fd:	48 8d 05 74 51 01 00 	lea    0x15174(%rip),%rax        # 1f878 <g_861>
    a704:	48 89 85 50 d8 ff ff 	mov    %rax,-0x27b0(%rbp)
    a70b:	48 8d 05 66 51 01 00 	lea    0x15166(%rip),%rax        # 1f878 <g_861>
    a712:	48 89 85 58 d8 ff ff 	mov    %rax,-0x27a8(%rbp)
    a719:	48 8d 05 58 51 01 00 	lea    0x15158(%rip),%rax        # 1f878 <g_861>
    a720:	48 89 85 60 d8 ff ff 	mov    %rax,-0x27a0(%rbp)
    a727:	48 8d 05 4a 51 01 00 	lea    0x1514a(%rip),%rax        # 1f878 <g_861>
    a72e:	48 89 85 68 d8 ff ff 	mov    %rax,-0x2798(%rbp)
    a735:	48 8d 05 3c 51 01 00 	lea    0x1513c(%rip),%rax        # 1f878 <g_861>
    a73c:	48 89 85 70 d8 ff ff 	mov    %rax,-0x2790(%rbp)
    a743:	48 8d 05 2e 51 01 00 	lea    0x1512e(%rip),%rax        # 1f878 <g_861>
    a74a:	48 89 85 78 d8 ff ff 	mov    %rax,-0x2788(%rbp)
    a751:	48 8d 05 20 51 01 00 	lea    0x15120(%rip),%rax        # 1f878 <g_861>
    a758:	48 89 85 80 d8 ff ff 	mov    %rax,-0x2780(%rbp)
    a75f:	48 8d 05 12 51 01 00 	lea    0x15112(%rip),%rax        # 1f878 <g_861>
    a766:	48 89 85 88 d8 ff ff 	mov    %rax,-0x2778(%rbp)
    a76d:	48 8d 05 04 51 01 00 	lea    0x15104(%rip),%rax        # 1f878 <g_861>
    a774:	48 89 85 90 d8 ff ff 	mov    %rax,-0x2770(%rbp)
    a77b:	48 8d 05 f6 50 01 00 	lea    0x150f6(%rip),%rax        # 1f878 <g_861>
    a782:	48 89 85 98 d8 ff ff 	mov    %rax,-0x2768(%rbp)
    a789:	48 8d 85 74 d3 ff ff 	lea    -0x2c8c(%rbp),%rax
    a790:	48 89 85 88 d4 ff ff 	mov    %rax,-0x2b78(%rbp)
    a797:	48 8d 05 c2 50 01 00 	lea    0x150c2(%rip),%rax        # 1f860 <g_375>
    a79e:	48 89 85 c0 d7 ff ff 	mov    %rax,-0x2840(%rbp)
    a7a5:	48 8d 05 b4 50 01 00 	lea    0x150b4(%rip),%rax        # 1f860 <g_375>
    a7ac:	48 89 85 c8 d7 ff ff 	mov    %rax,-0x2838(%rbp)
    a7b3:	48 8d 05 a6 50 01 00 	lea    0x150a6(%rip),%rax        # 1f860 <g_375>
    a7ba:	48 89 85 d0 d7 ff ff 	mov    %rax,-0x2830(%rbp)
    a7c1:	48 8d 05 98 50 01 00 	lea    0x15098(%rip),%rax        # 1f860 <g_375>
    a7c8:	48 89 85 d8 d7 ff ff 	mov    %rax,-0x2828(%rbp)
    a7cf:	48 8d 05 8a 50 01 00 	lea    0x1508a(%rip),%rax        # 1f860 <g_375>
    a7d6:	48 89 85 e0 d7 ff ff 	mov    %rax,-0x2820(%rbp)
    a7dd:	48 8d 05 7c 50 01 00 	lea    0x1507c(%rip),%rax        # 1f860 <g_375>
    a7e4:	48 89 85 e8 d7 ff ff 	mov    %rax,-0x2818(%rbp)
    a7eb:	48 c7 85 58 d5 ff ff 	movq   $0xfffffffffffffff8,-0x2aa8(%rbp)
    a7f2:	f8 ff ff ff 
    a7f6:	48 8d 85 c0 e7 ff ff 	lea    -0x1840(%rbp),%rax
    a7fd:	48 8d 15 7c d9 00 00 	lea    0xd97c(%rip),%rdx        # 18180 <g_1963+0x120>
    a804:	b9 7e 00 00 00       	mov    $0x7e,%ecx
    a809:	48 89 c7             	mov    %rax,%rdi
    a80c:	48 89 d6             	mov    %rdx,%rsi
    a80f:	f3 48 a5             	rep movsq %ds:(%rsi),%es:(%rdi)
    a812:	48 8d 05 b7 42 01 00 	lea    0x142b7(%rip),%rax        # 1ead0 <g_435>
    a819:	48 89 85 88 d5 ff ff 	mov    %rax,-0x2a78(%rbp)
    a820:	48 c7 85 90 d5 ff ff 	movq   $0x0,-0x2a70(%rbp)
    a827:	00 00 00 00 
    a82b:	48 c7 85 98 d5 ff ff 	movq   $0x0,-0x2a68(%rbp)
    a832:	00 00 00 00 
    a836:	48 8d 05 23 28 01 00 	lea    0x12823(%rip),%rax        # 1d060 <g_77+0x20>
    a83d:	48 89 85 a0 d5 ff ff 	mov    %rax,-0x2a60(%rbp)
    a844:	48 8d 05 59 28 01 00 	lea    0x12859(%rip),%rax        # 1d0a4 <g_109>
    a84b:	48 89 85 20 d9 ff ff 	mov    %rax,-0x26e0(%rbp)
    a852:	48 8d 85 a0 d8 ff ff 	lea    -0x2760(%rbp),%rax
    a859:	48 83 c0 58          	add    $0x58,%rax
    a85d:	48 89 85 28 d9 ff ff 	mov    %rax,-0x26d8(%rbp)
    a864:	48 8d 85 a0 d8 ff ff 	lea    -0x2760(%rbp),%rax
    a86b:	48 83 c0 58          	add    $0x58,%rax
    a86f:	48 89 85 30 d9 ff ff 	mov    %rax,-0x26d0(%rbp)
    a876:	48 8d 05 27 28 01 00 	lea    0x12827(%rip),%rax        # 1d0a4 <g_109>
    a87d:	48 89 85 38 d9 ff ff 	mov    %rax,-0x26c8(%rbp)
    a884:	48 8d 05 19 28 01 00 	lea    0x12819(%rip),%rax        # 1d0a4 <g_109>
    a88b:	48 89 85 40 d9 ff ff 	mov    %rax,-0x26c0(%rbp)
    a892:	48 8d 85 a0 d8 ff ff 	lea    -0x2760(%rbp),%rax
    a899:	48 83 c0 58          	add    $0x58,%rax
    a89d:	48 89 85 48 d9 ff ff 	mov    %rax,-0x26b8(%rbp)
    a8a4:	48 8d 85 a0 d8 ff ff 	lea    -0x2760(%rbp),%rax
    a8ab:	48 83 c0 58          	add    $0x58,%rax
    a8af:	48 89 85 50 d9 ff ff 	mov    %rax,-0x26b0(%rbp)
    a8b6:	48 8d 05 e7 27 01 00 	lea    0x127e7(%rip),%rax        # 1d0a4 <g_109>
    a8bd:	48 89 85 58 d9 ff ff 	mov    %rax,-0x26a8(%rbp)
    a8c4:	48 8d 05 d9 27 01 00 	lea    0x127d9(%rip),%rax        # 1d0a4 <g_109>
    a8cb:	48 89 85 60 d9 ff ff 	mov    %rax,-0x26a0(%rbp)
    a8d2:	48 8d 85 a0 d8 ff ff 	lea    -0x2760(%rbp),%rax
    a8d9:	48 83 c0 58          	add    $0x58,%rax
    a8dd:	48 89 85 68 d9 ff ff 	mov    %rax,-0x2698(%rbp)
    a8e4:	48 8d 05 b9 27 01 00 	lea    0x127b9(%rip),%rax        # 1d0a4 <g_109>
    a8eb:	48 89 85 70 d9 ff ff 	mov    %rax,-0x2690(%rbp)
    a8f2:	48 8d 05 ab 27 01 00 	lea    0x127ab(%rip),%rax        # 1d0a4 <g_109>
    a8f9:	48 89 85 78 d9 ff ff 	mov    %rax,-0x2688(%rbp)
    a900:	48 8d 85 a0 d8 ff ff 	lea    -0x2760(%rbp),%rax
    a907:	48 83 c0 58          	add    $0x58,%rax
    a90b:	48 89 85 80 d9 ff ff 	mov    %rax,-0x2680(%rbp)
    a912:	48 8d 85 a0 d8 ff ff 	lea    -0x2760(%rbp),%rax
    a919:	48 83 c0 58          	add    $0x58,%rax
    a91d:	48 89 85 88 d9 ff ff 	mov    %rax,-0x2678(%rbp)
    a924:	48 8d 05 79 27 01 00 	lea    0x12779(%rip),%rax        # 1d0a4 <g_109>
    a92b:	48 89 85 90 d9 ff ff 	mov    %rax,-0x2670(%rbp)
    a932:	48 8d 05 6b 27 01 00 	lea    0x1276b(%rip),%rax        # 1d0a4 <g_109>
    a939:	48 89 85 98 d9 ff ff 	mov    %rax,-0x2668(%rbp)
    a940:	48 8d 85 a0 d8 ff ff 	lea    -0x2760(%rbp),%rax
    a947:	48 83 c0 58          	add    $0x58,%rax
    a94b:	48 89 85 a0 d9 ff ff 	mov    %rax,-0x2660(%rbp)
    a952:	48 8d 85 a0 d8 ff ff 	lea    -0x2760(%rbp),%rax
    a959:	48 83 c0 58          	add    $0x58,%rax
    a95d:	48 89 85 a8 d9 ff ff 	mov    %rax,-0x2658(%rbp)
    a964:	48 8d 05 39 27 01 00 	lea    0x12739(%rip),%rax        # 1d0a4 <g_109>
    a96b:	48 89 85 b0 d9 ff ff 	mov    %rax,-0x2650(%rbp)
    a972:	48 8d 05 2b 27 01 00 	lea    0x1272b(%rip),%rax        # 1d0a4 <g_109>
    a979:	48 89 85 b8 d9 ff ff 	mov    %rax,-0x2648(%rbp)
    a980:	c7 85 fc d3 ff ff 00 	movl   $0x0,-0x2c04(%rbp)
    a987:	00 00 00 
    a98a:	eb 50                	jmp    a9dc <func_50+0x527>
    a98c:	c7 85 00 d4 ff ff 00 	movl   $0x0,-0x2c00(%rbp)
    a993:	00 00 00 
    a996:	eb 34                	jmp    a9cc <func_50+0x517>
    a998:	8b 85 00 d4 ff ff    	mov    -0x2c00(%rbp),%eax
    a99e:	48 63 c8             	movslq %eax,%rcx
    a9a1:	8b 85 fc d3 ff ff    	mov    -0x2c04(%rbp),%eax
    a9a7:	48 63 d0             	movslq %eax,%rdx
    a9aa:	48 89 d0             	mov    %rdx,%rax
    a9ad:	48 c1 e0 02          	shl    $0x2,%rax
    a9b1:	48 01 d0             	add    %rdx,%rax
    a9b4:	48 01 c0             	add    %rax,%rax
    a9b7:	48 01 c8             	add    %rcx,%rax
    a9ba:	c7 84 85 a0 d8 ff ff 	movl   $0x7f15c8d,-0x2760(%rbp,%rax,4)
    a9c1:	8d 5c f1 07 
    a9c5:	83 85 00 d4 ff ff 01 	addl   $0x1,-0x2c00(%rbp)
    a9cc:	83 bd 00 d4 ff ff 09 	cmpl   $0x9,-0x2c00(%rbp)
    a9d3:	7e c3                	jle    a998 <func_50+0x4e3>
    a9d5:	83 85 fc d3 ff ff 01 	addl   $0x1,-0x2c04(%rbp)
    a9dc:	83 bd fc d3 ff ff 02 	cmpl   $0x2,-0x2c04(%rbp)
    a9e3:	7e a7                	jle    a98c <func_50+0x4d7>
    a9e5:	48 8b 05 3c 40 01 00 	mov    0x1403c(%rip),%rax        # 1ea28 <g_352>
    a9ec:	0f b7 95 44 d3 ff ff 	movzwl -0x2cbc(%rbp),%edx
    a9f3:	66 89 10             	mov    %dx,(%rax)
    a9f6:	0f b7 00             	movzwl (%rax),%eax
    a9f9:	0f bf d8             	movswl %ax,%ebx
    a9fc:	0f b7 85 44 d3 ff ff 	movzwl -0x2cbc(%rbp),%eax
    aa03:	98                   	cwtl   
    aa04:	be 03 00 00 00       	mov    $0x3,%esi
    aa09:	89 c7                	mov    %eax,%edi
    aa0b:	e8 53 bb ff ff       	callq  6563 <safe_rshift_func_int16_t_s_u>
    aa10:	0f b6 c0             	movzbl %al,%eax
    aa13:	89 c6                	mov    %eax,%esi
    aa15:	bf 00 00 00 00       	mov    $0x0,%edi
    aa1a:	e8 3b c1 ff ff       	callq  6b5a <safe_add_func_uint8_t_u_u>
    aa1f:	0f b6 c0             	movzbl %al,%eax
    aa22:	39 c3                	cmp    %eax,%ebx
    aa24:	0f 9c c0             	setl   %al
    aa27:	0f b6 d8             	movzbl %al,%ebx
    aa2a:	0f b7 95 6c d3 ff ff 	movzwl -0x2c94(%rbp),%edx
    aa31:	48 8b 85 70 d4 ff ff 	mov    -0x2b90(%rbp),%rax
    aa38:	8b 00                	mov    (%rax),%eax
    aa3a:	c1 e8 1f             	shr    $0x1f,%eax
    aa3d:	0f b6 c0             	movzbl %al,%eax
    aa40:	89 d6                	mov    %edx,%esi
    aa42:	89 c7                	mov    %eax,%edi
    aa44:	e8 e1 ba ff ff       	callq  652a <safe_rshift_func_int16_t_s_s>
    aa49:	0f b7 85 6c d3 ff ff 	movzwl -0x2c94(%rbp),%eax
    aa50:	0f b6 d0             	movzbl %al,%edx
    aa53:	0f b7 85 44 d3 ff ff 	movzwl -0x2cbc(%rbp),%eax
    aa5a:	98                   	cwtl   
    aa5b:	39 85 4c d3 ff ff    	cmp    %eax,-0x2cb4(%rbp)
    aa61:	0f 97 c0             	seta   %al
    aa64:	0f b6 c0             	movzbl %al,%eax
    aa67:	89 d6                	mov    %edx,%esi
    aa69:	89 c7                	mov    %eax,%edi
    aa6b:	e8 6b c1 ff ff       	callq  6bdb <safe_div_func_uint8_t_u_u>
    aa70:	0f b6 c0             	movzbl %al,%eax
    aa73:	be ff ff ff ff       	mov    $0xffffffff,%esi
    aa78:	89 c7                	mov    %eax,%edi
    aa7a:	e8 80 bc ff ff       	callq  66ff <safe_div_func_int32_t_s_s>
    aa7f:	39 c3                	cmp    %eax,%ebx
    aa81:	0f 94 c2             	sete   %dl
    aa84:	48 8b 05 4d 40 01 00 	mov    0x1404d(%rip),%rax        # 1ead8 <g_449>
    aa8b:	0f b6 d2             	movzbl %dl,%edx
    aa8e:	89 10                	mov    %edx,(%rax)
    aa90:	48 83 bd 78 d5 ff ff 	cmpq   $0x0,-0x2a88(%rbp)
    aa97:	00 
    aa98:	0f 94 c0             	sete   %al
    aa9b:	0f b6 d0             	movzbl %al,%edx
    aa9e:	48 8b 85 70 d4 ff ff 	mov    -0x2b90(%rbp),%rax
    aaa5:	8b 00                	mov    (%rax),%eax
    aaa7:	0f be c0             	movsbl %al,%eax
    aaaa:	89 d6                	mov    %edx,%esi
    aaac:	89 c7                	mov    %eax,%edi
    aaae:	e8 5f b7 ff ff       	callq  6212 <safe_mul_func_int8_t_s_s>
    aab3:	0f b7 05 1e 26 01 00 	movzwl 0x1261e(%rip),%eax        # 1d0d8 <g_421>
    aaba:	98                   	cwtl   
    aabb:	39 85 4c d3 ff ff    	cmp    %eax,-0x2cb4(%rbp)
    aac1:	0f 92 c3             	setb   %bl
    aac4:	48 8b 85 70 d4 ff ff 	mov    -0x2b90(%rbp),%rax
    aacb:	8b 00                	mov    (%rax),%eax
    aacd:	0f b7 c0             	movzwl %ax,%eax
    aad0:	89 c6                	mov    %eax,%esi
    aad2:	bf c6 b3 00 00       	mov    $0xb3c6,%edi
    aad7:	e8 80 c2 ff ff       	callq  6d5c <safe_mod_func_uint16_t_u_u>
    aadc:	0f b6 c0             	movzbl %al,%eax
    aadf:	be 06 00 00 00       	mov    $0x6,%esi
    aae4:	89 c7                	mov    %eax,%edi
    aae6:	e8 1a c1 ff ff       	callq  6c05 <safe_lshift_func_uint8_t_u_s>
    aaeb:	0f b7 85 44 d3 ff ff 	movzwl -0x2cbc(%rbp),%eax
    aaf2:	89 c2                	mov    %eax,%edx
    aaf4:	48 8b 85 80 d5 ff ff 	mov    -0x2a80(%rbp),%rax
    aafb:	88 10                	mov    %dl,(%rax)
    aafd:	48 8b 85 80 d5 ff ff 	mov    -0x2a80(%rbp),%rax
    ab04:	0f b6 00             	movzbl (%rax),%eax
    ab07:	66 0f be d0          	movsbw %al,%dx
    ab0b:	48 8b 85 70 d4 ff ff 	mov    -0x2b90(%rbp),%rax
    ab12:	8b 00                	mov    (%rax),%eax
    ab14:	09 c2                	or     %eax,%edx
    ab16:	0f b7 85 44 d3 ff ff 	movzwl -0x2cbc(%rbp),%eax
    ab1d:	21 d0                	and    %edx,%eax
    ab1f:	98                   	cwtl   
    ab20:	be 04 00 00 00       	mov    $0x4,%esi
    ab25:	89 c7                	mov    %eax,%edi
    ab27:	e8 b5 b9 ff ff       	callq  64e1 <safe_lshift_func_int16_t_s_u>
    ab2c:	66 85 c0             	test   %ax,%ax
    ab2f:	74 13                	je     ab44 <func_50+0x68f>
    ab31:	0f b7 85 44 d3 ff ff 	movzwl -0x2cbc(%rbp),%eax
    ab38:	66 85 c0             	test   %ax,%ax
    ab3b:	74 07                	je     ab44 <func_50+0x68f>
    ab3d:	b8 01 00 00 00       	mov    $0x1,%eax
    ab42:	eb 05                	jmp    ab49 <func_50+0x694>
    ab44:	b8 00 00 00 00       	mov    $0x0,%eax
    ab49:	83 e0 01             	and    $0x1,%eax
    ab4c:	31 d8                	xor    %ebx,%eax
    ab4e:	84 c0                	test   %al,%al
    ab50:	0f 84 38 04 00 00    	je     af8e <func_50+0xad9>
    ab56:	48 8d 05 f3 40 01 00 	lea    0x140f3(%rip),%rax        # 1ec50 <g_525>
    ab5d:	48 89 85 30 f0 ff ff 	mov    %rax,-0xfd0(%rbp)
    ab64:	48 8d 05 dd 3f 01 00 	lea    0x13fdd(%rip),%rax        # 1eb48 <g_483+0x48>
    ab6b:	48 89 85 38 f0 ff ff 	mov    %rax,-0xfc8(%rbp)
    ab72:	48 c7 85 40 f0 ff ff 	movq   $0x0,-0xfc0(%rbp)
    ab79:	00 00 00 00 
    ab7d:	48 8d 05 cc 40 01 00 	lea    0x140cc(%rip),%rax        # 1ec50 <g_525>
    ab84:	48 89 85 48 f0 ff ff 	mov    %rax,-0xfb8(%rbp)
    ab8b:	48 c7 85 50 f0 ff ff 	movq   $0x0,-0xfb0(%rbp)
    ab92:	00 00 00 00 
    ab96:	48 8d 05 b3 40 01 00 	lea    0x140b3(%rip),%rax        # 1ec50 <g_525>
    ab9d:	48 89 85 58 f0 ff ff 	mov    %rax,-0xfa8(%rbp)
    aba4:	48 c7 85 60 f0 ff ff 	movq   $0x0,-0xfa0(%rbp)
    abab:	00 00 00 00 
    abaf:	48 8d 05 9a 40 01 00 	lea    0x1409a(%rip),%rax        # 1ec50 <g_525>
    abb6:	48 89 85 68 f0 ff ff 	mov    %rax,-0xf98(%rbp)
    abbd:	48 c7 85 70 f0 ff ff 	movq   $0x0,-0xf90(%rbp)
    abc4:	00 00 00 00 
    abc8:	48 8d 05 79 3f 01 00 	lea    0x13f79(%rip),%rax        # 1eb48 <g_483+0x48>
    abcf:	48 89 85 78 f0 ff ff 	mov    %rax,-0xf88(%rbp)
    abd6:	48 8d 05 73 40 01 00 	lea    0x14073(%rip),%rax        # 1ec50 <g_525>
    abdd:	48 89 85 80 f0 ff ff 	mov    %rax,-0xf80(%rbp)
    abe4:	48 8d 85 70 d4 ff ff 	lea    -0x2b90(%rbp),%rax
    abeb:	48 89 85 88 f0 ff ff 	mov    %rax,-0xf78(%rbp)
    abf2:	48 8d 05 57 40 01 00 	lea    0x14057(%rip),%rax        # 1ec50 <g_525>
    abf9:	48 89 85 90 f0 ff ff 	mov    %rax,-0xf70(%rbp)
    ac00:	48 8d 05 49 40 01 00 	lea    0x14049(%rip),%rax        # 1ec50 <g_525>
    ac07:	48 89 85 98 f0 ff ff 	mov    %rax,-0xf68(%rbp)
    ac0e:	48 8d 05 3b 40 01 00 	lea    0x1403b(%rip),%rax        # 1ec50 <g_525>
    ac15:	48 89 85 a0 f0 ff ff 	mov    %rax,-0xf60(%rbp)
    ac1c:	48 c7 85 a8 f0 ff ff 	movq   $0x0,-0xf58(%rbp)
    ac23:	00 00 00 00 
    ac27:	48 c7 85 b0 f0 ff ff 	movq   $0x0,-0xf50(%rbp)
    ac2e:	00 00 00 00 
    ac32:	48 8d 05 5f 3f 01 00 	lea    0x13f5f(%rip),%rax        # 1eb98 <g_483+0x98>
    ac39:	48 89 85 b8 f0 ff ff 	mov    %rax,-0xf48(%rbp)
    ac40:	48 8d 05 09 40 01 00 	lea    0x14009(%rip),%rax        # 1ec50 <g_525>
    ac47:	48 89 85 c0 f0 ff ff 	mov    %rax,-0xf40(%rbp)
    ac4e:	48 8d 05 f3 3e 01 00 	lea    0x13ef3(%rip),%rax        # 1eb48 <g_483+0x48>
    ac55:	48 89 85 c8 f0 ff ff 	mov    %rax,-0xf38(%rbp)
    ac5c:	48 8d 05 35 3f 01 00 	lea    0x13f35(%rip),%rax        # 1eb98 <g_483+0x98>
    ac63:	48 89 85 d0 f0 ff ff 	mov    %rax,-0xf30(%rbp)
    ac6a:	48 8d 05 d7 3e 01 00 	lea    0x13ed7(%rip),%rax        # 1eb48 <g_483+0x48>
    ac71:	48 89 85 d8 f0 ff ff 	mov    %rax,-0xf28(%rbp)
    ac78:	48 8d 05 d1 3f 01 00 	lea    0x13fd1(%rip),%rax        # 1ec50 <g_525>
    ac7f:	48 89 85 e0 f0 ff ff 	mov    %rax,-0xf20(%rbp)
    ac86:	48 8d 05 0b 3f 01 00 	lea    0x13f0b(%rip),%rax        # 1eb98 <g_483+0x98>
    ac8d:	48 89 85 e8 f0 ff ff 	mov    %rax,-0xf18(%rbp)
    ac94:	48 c7 85 f0 f0 ff ff 	movq   $0x0,-0xf10(%rbp)
    ac9b:	00 00 00 00 
    ac9f:	48 c7 85 f8 f0 ff ff 	movq   $0x0,-0xf08(%rbp)
    aca6:	00 00 00 00 
    acaa:	48 8d 05 9f 3f 01 00 	lea    0x13f9f(%rip),%rax        # 1ec50 <g_525>
    acb1:	48 89 85 00 f1 ff ff 	mov    %rax,-0xf00(%rbp)
    acb8:	48 8d 05 91 3f 01 00 	lea    0x13f91(%rip),%rax        # 1ec50 <g_525>
    acbf:	48 89 85 08 f1 ff ff 	mov    %rax,-0xef8(%rbp)
    acc6:	48 8d 05 83 3f 01 00 	lea    0x13f83(%rip),%rax        # 1ec50 <g_525>
    accd:	48 89 85 10 f1 ff ff 	mov    %rax,-0xef0(%rbp)
    acd4:	48 8d 85 70 d4 ff ff 	lea    -0x2b90(%rbp),%rax
    acdb:	48 89 85 18 f1 ff ff 	mov    %rax,-0xee8(%rbp)
    ace2:	48 8d 05 07 24 01 00 	lea    0x12407(%rip),%rax        # 1d0f0 <g_623>
    ace9:	48 89 85 f0 d6 ff ff 	mov    %rax,-0x2910(%rbp)
    acf0:	48 8d 05 a1 23 01 00 	lea    0x123a1(%rip),%rax        # 1d098 <g_104>
    acf7:	48 89 85 f8 d6 ff ff 	mov    %rax,-0x2908(%rbp)
    acfe:	48 c7 85 00 d7 ff ff 	movq   $0x0,-0x2900(%rbp)
    ad05:	00 00 00 00 
    ad09:	c7 85 04 d4 ff ff 00 	movl   $0x0,-0x2bfc(%rbp)
    ad10:	00 00 00 
    ad13:	eb 1e                	jmp    ad33 <func_50+0x87e>
    ad15:	8b 85 04 d4 ff ff    	mov    -0x2bfc(%rbp),%eax
    ad1b:	48 98                	cltq   
    ad1d:	48 8d 15 1e 24 01 00 	lea    0x1241e(%rip),%rdx        # 1d142 <g_1157>
    ad24:	48 89 94 c5 b0 eb ff 	mov    %rdx,-0x1450(%rbp,%rax,8)
    ad2b:	ff 
    ad2c:	83 85 04 d4 ff ff 01 	addl   $0x1,-0x2bfc(%rbp)
    ad33:	83 bd 04 d4 ff ff 09 	cmpl   $0x9,-0x2bfc(%rbp)
    ad3a:	7e d9                	jle    ad15 <func_50+0x860>
    ad3c:	c6 05 97 23 01 00 08 	movb   $0x8,0x12397(%rip)        # 1d0da <g_438>
    ad43:	90                   	nop
    ad44:	0f b6 05 8f 23 01 00 	movzbl 0x1238f(%rip),%eax        # 1d0da <g_438>
    ad4b:	3c 09                	cmp    $0x9,%al
    ad4d:	0f 85 09 01 00 00    	jne    ae5c <func_50+0x9a7>
    ad53:	48 8d 05 26 4b 01 00 	lea    0x14b26(%rip),%rax        # 1f880 <g_1241>
    ad5a:	48 89 85 08 d7 ff ff 	mov    %rax,-0x28f8(%rbp)
    ad61:	48 c7 85 a8 d4 ff ff 	movq   $0x0,-0x2b58(%rbp)
    ad68:	00 00 00 00 
    ad6c:	48 8d 95 b0 f7 ff ff 	lea    -0x850(%rbp),%rdx
    ad73:	b8 00 00 00 00       	mov    $0x0,%eax
    ad78:	b9 48 00 00 00       	mov    $0x48,%ecx
    ad7d:	48 89 d7             	mov    %rdx,%rdi
    ad80:	f3 48 ab             	rep stos %rax,%es:(%rdi)
    ad83:	48 8d 85 a8 d4 ff ff 	lea    -0x2b58(%rbp),%rax
    ad8a:	48 89 85 b0 d4 ff ff 	mov    %rax,-0x2b50(%rbp)
    ad91:	48 8d 85 b0 d4 ff ff 	lea    -0x2b50(%rbp),%rax
    ad98:	48 89 85 10 d7 ff ff 	mov    %rax,-0x28f0(%rbp)
    ad9f:	8b 9d 4c d3 ff ff    	mov    -0x2cb4(%rbp),%ebx
    ada5:	0f b7 85 44 d3 ff ff 	movzwl -0x2cbc(%rbp),%eax
    adac:	44 0f b7 e0          	movzwl %ax,%r12d
    adb0:	0f b7 85 6c d3 ff ff 	movzwl -0x2c94(%rbp),%eax
    adb7:	44 0f b6 e8          	movzbl %al,%r13d
    adbb:	0f b7 05 16 23 01 00 	movzwl 0x12316(%rip),%eax        # 1d0d8 <g_421>
    adc2:	0f b7 c0             	movzwl %ax,%eax
    adc5:	89 c6                	mov    %eax,%esi
    adc7:	bf 00 00 00 00       	mov    $0x0,%edi
    adcc:	e8 4e bf ff ff       	callq  6d1f <safe_sub_func_uint16_t_u_u>
    add1:	0f b6 c0             	movzbl %al,%eax
    add4:	44 89 ee             	mov    %r13d,%esi
    add7:	89 c7                	mov    %eax,%edi
    add9:	e8 b5 bd ff ff       	callq  6b93 <safe_mul_func_uint8_t_u_u>
    adde:	0f b6 d0             	movzbl %al,%edx
    ade1:	0f b7 05 e8 22 01 00 	movzwl 0x122e8(%rip),%eax        # 1d0d0 <g_356>
    ade8:	0f b7 c0             	movzwl %ax,%eax
    adeb:	89 d6                	mov    %edx,%esi
    aded:	89 c7                	mov    %eax,%edi
    adef:	e8 49 bf ff ff       	callq  6d3d <safe_mul_func_uint16_t_u_u>
    adf4:	48 8b 15 5d 3f 01 00 	mov    0x13f5d(%rip),%rdx        # 1ed58 <g_860>
    adfb:	0f b6 12             	movzbl (%rdx),%edx
    adfe:	0f b6 d2             	movzbl %dl,%edx
    ae01:	66 39 d0             	cmp    %dx,%ax
    ae04:	44 89 e6             	mov    %r12d,%esi
    ae07:	bf 01 00 00 00       	mov    $0x1,%edi
    ae0c:	e8 2c bf ff ff       	callq  6d3d <safe_mul_func_uint16_t_u_u>
    ae11:	48 8b 05 a0 3e 01 00 	mov    0x13ea0(%rip),%rax        # 1ecb8 <g_768>
    ae18:	48 8b 00             	mov    (%rax),%rax
    ae1b:	0f b7 00             	movzwl (%rax),%eax
    ae1e:	98                   	cwtl   
    ae1f:	89 de                	mov    %ebx,%esi
    ae21:	89 c7                	mov    %eax,%edi
    ae23:	e8 02 b7 ff ff       	callq  652a <safe_rshift_func_int16_t_s_s>
    ae28:	98                   	cwtl   
    ae29:	89 85 90 d3 ff ff    	mov    %eax,-0x2c70(%rbp)
    ae2f:	48 8b 95 78 d4 ff ff 	mov    -0x2b88(%rbp),%rdx
    ae36:	48 8b 85 08 d7 ff ff 	mov    -0x28f8(%rbp),%rax
    ae3d:	48 89 10             	mov    %rdx,(%rax)
    ae40:	48 8b 95 c8 f8 ff ff 	mov    -0x738(%rbp),%rdx
    ae47:	48 8b 85 10 d7 ff ff 	mov    -0x28f0(%rbp),%rax
    ae4e:	48 89 10             	mov    %rdx,(%rax)
    ae51:	8b 05 61 22 01 00    	mov    0x12261(%rip),%eax        # 1d0b8 <g_257>
    ae57:	e9 46 75 00 00       	jmpq   123a2 <func_50+0x7eed>
    ae5c:	8b 85 48 d3 ff ff    	mov    -0x2cb8(%rbp),%eax
    ae62:	0f b6 d8             	movzbl %al,%ebx
    ae65:	0f b7 85 68 d3 ff ff 	movzwl -0x2c98(%rbp),%eax
    ae6c:	44 0f b7 e0          	movzwl %ax,%r12d
    ae70:	8b 95 48 d3 ff ff    	mov    -0x2cb8(%rbp),%edx
    ae76:	48 8b 85 f0 d6 ff ff 	mov    -0x2910(%rbp),%rax
    ae7d:	48 89 10             	mov    %rdx,(%rax)
    ae80:	48 8b 85 f0 d6 ff ff 	mov    -0x2910(%rbp),%rax
    ae87:	48 8b 10             	mov    (%rax),%rdx
    ae8a:	48 8b 85 f8 d6 ff ff 	mov    -0x2908(%rbp),%rax
    ae91:	48 89 10             	mov    %rdx,(%rax)
    ae94:	48 8b 85 f8 d6 ff ff 	mov    -0x2908(%rbp),%rax
    ae9b:	4c 8b 28             	mov    (%rax),%r13
    ae9e:	8b 85 4c d3 ff ff    	mov    -0x2cb4(%rbp),%eax
    aea4:	98                   	cwtl   
    aea5:	be 06 00 00 00       	mov    $0x6,%esi
    aeaa:	89 c7                	mov    %eax,%edi
    aeac:	e8 b2 b6 ff ff       	callq  6563 <safe_rshift_func_int16_t_s_u>
    aeb1:	8b 85 4c d3 ff ff    	mov    -0x2cb4(%rbp),%eax
    aeb7:	89 c6                	mov    %eax,%esi
    aeb9:	bf f4 d4 00 00       	mov    $0xd4f4,%edi
    aebe:	e8 b7 bf ff ff       	callq  6e7a <safe_rshift_func_uint16_t_u_u>
    aec3:	98                   	cwtl   
    aec4:	be 02 00 00 00       	mov    $0x2,%esi
    aec9:	89 c7                	mov    %eax,%edi
    aecb:	e8 25 b5 ff ff       	callq  63f5 <safe_mul_func_int16_t_s_s>
    aed0:	48 0f bf c0          	movswq %ax,%rax
    aed4:	4c 89 ea             	mov    %r13,%rdx
    aed7:	48 21 c2             	and    %rax,%rdx
    aeda:	8b 85 48 d3 ff ff    	mov    -0x2cb8(%rbp),%eax
    aee0:	48 39 c2             	cmp    %rax,%rdx
    aee3:	0f 95 c0             	setne  %al
    aee6:	0f b6 c0             	movzbl %al,%eax
    aee9:	39 85 4c d3 ff ff    	cmp    %eax,-0x2cb4(%rbp)
    aeef:	0f 93 c0             	setae  %al
    aef2:	0f b6 c0             	movzbl %al,%eax
    aef5:	66 89 05 44 22 01 00 	mov    %ax,0x12244(%rip)        # 1d140 <g_1109>
    aefc:	0f b7 05 3d 22 01 00 	movzwl 0x1223d(%rip),%eax        # 1d140 <g_1109>
    af03:	0f b7 d0             	movzwl %ax,%edx
    af06:	48 8b 05 5b 1e 01 00 	mov    0x11e5b(%rip),%rax        # 1cd68 <l_1258.4482+0xc8>
    af0d:	48 85 c0             	test   %rax,%rax
    af10:	0f 94 c0             	sete   %al
    af13:	0f b6 c0             	movzbl %al,%eax
    af16:	89 d6                	mov    %edx,%esi
    af18:	89 c7                	mov    %eax,%edi
    af1a:	e8 c2 b5 ff ff       	callq  64e1 <safe_lshift_func_int16_t_s_u>
    af1f:	48 8b 85 78 d5 ff ff 	mov    -0x2a88(%rbp),%rax
    af26:	48 8b 00             	mov    (%rax),%rax
    af29:	48 8d 15 28 d1 00 00 	lea    0xd128(%rip),%rdx        # 18058 <g_913>
    af30:	48 39 d0             	cmp    %rdx,%rax
    af33:	0f 94 c0             	sete   %al
    af36:	0f b6 c0             	movzbl %al,%eax
    af39:	39 85 48 d3 ff ff    	cmp    %eax,-0x2cb8(%rbp)
    af3f:	0f 92 c0             	setb   %al
    af42:	0f b6 c0             	movzbl %al,%eax
    af45:	44 89 e6             	mov    %r12d,%esi
    af48:	89 c7                	mov    %eax,%edi
    af4a:	e8 d0 bd ff ff       	callq  6d1f <safe_sub_func_uint16_t_u_u>
    af4f:	66 3d ef e9          	cmp    $0xe9ef,%ax
    af53:	0f 96 c0             	setbe  %al
    af56:	0f b6 c0             	movzbl %al,%eax
    af59:	89 de                	mov    %ebx,%esi
    af5b:	89 c7                	mov    %eax,%edi
    af5d:	e8 16 bc ff ff       	callq  6b78 <safe_sub_func_uint8_t_u_u>
    af62:	83 bd 4c d3 ff ff 01 	cmpl   $0x1,-0x2cb4(%rbp)
    af69:	0f 97 c0             	seta   %al
    af6c:	0f b6 c0             	movzbl %al,%eax
    af6f:	be 09 00 00 00       	mov    $0x9,%esi
    af74:	89 c7                	mov    %eax,%edi
    af76:	e8 da b4 ff ff       	callq  6455 <safe_div_func_int16_t_s_s>
    af7b:	89 c2                	mov    %eax,%edx
    af7d:	48 8b 85 70 d4 ff ff 	mov    -0x2b90(%rbp),%rax
    af84:	0f bf d2             	movswl %dx,%edx
    af87:	89 10                	mov    %edx,(%rax)
    af89:	e9 e8 5f 00 00       	jmpq   10f76 <func_50+0x6ac1>
    af8e:	c7 85 94 d3 ff ff 01 	movl   $0x1,-0x2c6c(%rbp)
    af95:	00 00 00 
    af98:	48 8d 85 90 d3 ff ff 	lea    -0x2c70(%rbp),%rax
    af9f:	48 89 85 a8 d5 ff ff 	mov    %rax,-0x2a58(%rbp)
    afa6:	48 8d 05 f7 20 01 00 	lea    0x120f7(%rip),%rax        # 1d0a4 <g_109>
    afad:	48 89 85 b0 d5 ff ff 	mov    %rax,-0x2a50(%rbp)
    afb4:	48 8d 85 90 dd ff ff 	lea    -0x2270(%rbp),%rax
    afbb:	48 8d 15 be d5 00 00 	lea    0xd5be(%rip),%rdx        # 18580 <g_1963+0x520>
    afc2:	b9 3f 00 00 00       	mov    $0x3f,%ecx
    afc7:	48 89 c7             	mov    %rax,%rdi
    afca:	48 89 d6             	mov    %rdx,%rsi
    afcd:	f3 48 a5             	rep movsq %ds:(%rsi),%es:(%rdi)
    afd0:	66 c7 85 6e d3 ff ff 	movw   $0xd569,-0x2c92(%rbp)
    afd7:	69 d5 
    afd9:	48 8d 85 78 d4 ff ff 	lea    -0x2b88(%rbp),%rax
    afe0:	48 89 85 60 d5 ff ff 	mov    %rax,-0x2aa0(%rbp)
    afe7:	66 c7 85 70 d3 ff ff 	movw   $0x0,-0x2c90(%rbp)
    afee:	00 00 
    aff0:	48 c7 85 90 d4 ff ff 	movq   $0x0,-0x2b70(%rbp)
    aff7:	00 00 00 00 
    affb:	48 8d 85 90 d4 ff ff 	lea    -0x2b70(%rbp),%rax
    b002:	48 89 85 98 d4 ff ff 	mov    %rax,-0x2b68(%rbp)
    b009:	48 8d 85 98 d4 ff ff 	lea    -0x2b68(%rbp),%rax
    b010:	48 89 85 a0 d4 ff ff 	mov    %rax,-0x2b60(%rbp)
    b017:	48 c7 85 f0 e4 ff ff 	movq   $0x0,-0x1b10(%rbp)
    b01e:	00 00 00 00 
    b022:	48 8d 85 a0 d4 ff ff 	lea    -0x2b60(%rbp),%rax
    b029:	48 89 85 f8 e4 ff ff 	mov    %rax,-0x1b08(%rbp)
    b030:	48 8d 85 a0 d4 ff ff 	lea    -0x2b60(%rbp),%rax
    b037:	48 89 85 00 e5 ff ff 	mov    %rax,-0x1b00(%rbp)
    b03e:	48 8d 85 a0 d4 ff ff 	lea    -0x2b60(%rbp),%rax
    b045:	48 89 85 08 e5 ff ff 	mov    %rax,-0x1af8(%rbp)
    b04c:	48 c7 85 10 e5 ff ff 	movq   $0x0,-0x1af0(%rbp)
    b053:	00 00 00 00 
    b057:	48 8d 85 a0 d4 ff ff 	lea    -0x2b60(%rbp),%rax
    b05e:	48 89 85 18 e5 ff ff 	mov    %rax,-0x1ae8(%rbp)
    b065:	48 8d 85 a0 d4 ff ff 	lea    -0x2b60(%rbp),%rax
    b06c:	48 89 85 20 e5 ff ff 	mov    %rax,-0x1ae0(%rbp)
    b073:	48 8d 85 a0 d4 ff ff 	lea    -0x2b60(%rbp),%rax
    b07a:	48 89 85 28 e5 ff ff 	mov    %rax,-0x1ad8(%rbp)
    b081:	48 8d 85 a0 d4 ff ff 	lea    -0x2b60(%rbp),%rax
    b088:	48 89 85 30 e5 ff ff 	mov    %rax,-0x1ad0(%rbp)
    b08f:	48 c7 85 38 e5 ff ff 	movq   $0x0,-0x1ac8(%rbp)
    b096:	00 00 00 00 
    b09a:	48 8d 85 a0 d4 ff ff 	lea    -0x2b60(%rbp),%rax
    b0a1:	48 89 85 40 e5 ff ff 	mov    %rax,-0x1ac0(%rbp)
    b0a8:	48 8d 85 a0 d4 ff ff 	lea    -0x2b60(%rbp),%rax
    b0af:	48 89 85 48 e5 ff ff 	mov    %rax,-0x1ab8(%rbp)
    b0b6:	48 8d 85 a0 d4 ff ff 	lea    -0x2b60(%rbp),%rax
    b0bd:	48 89 85 50 e5 ff ff 	mov    %rax,-0x1ab0(%rbp)
    b0c4:	48 c7 85 58 e5 ff ff 	movq   $0x0,-0x1aa8(%rbp)
    b0cb:	00 00 00 00 
    b0cf:	48 8d 85 a0 d4 ff ff 	lea    -0x2b60(%rbp),%rax
    b0d6:	48 89 85 60 e5 ff ff 	mov    %rax,-0x1aa0(%rbp)
    b0dd:	48 8d 85 a0 d4 ff ff 	lea    -0x2b60(%rbp),%rax
    b0e4:	48 89 85 68 e5 ff ff 	mov    %rax,-0x1a98(%rbp)
    b0eb:	48 8d 85 a0 d4 ff ff 	lea    -0x2b60(%rbp),%rax
    b0f2:	48 89 85 70 e5 ff ff 	mov    %rax,-0x1a90(%rbp)
    b0f9:	48 c7 85 78 e5 ff ff 	movq   $0x0,-0x1a88(%rbp)
    b100:	00 00 00 00 
    b104:	48 8d 85 a0 d4 ff ff 	lea    -0x2b60(%rbp),%rax
    b10b:	48 89 85 80 e5 ff ff 	mov    %rax,-0x1a80(%rbp)
    b112:	48 c7 85 88 e5 ff ff 	movq   $0x0,-0x1a78(%rbp)
    b119:	00 00 00 00 
    b11d:	48 c7 85 90 e5 ff ff 	movq   $0x0,-0x1a70(%rbp)
    b124:	00 00 00 00 
    b128:	48 c7 85 98 e5 ff ff 	movq   $0x0,-0x1a68(%rbp)
    b12f:	00 00 00 00 
    b133:	48 8d 85 a0 d4 ff ff 	lea    -0x2b60(%rbp),%rax
    b13a:	48 89 85 a0 e5 ff ff 	mov    %rax,-0x1a60(%rbp)
    b141:	48 c7 85 a8 e5 ff ff 	movq   $0x0,-0x1a58(%rbp)
    b148:	00 00 00 00 
    b14c:	48 c7 85 b0 e5 ff ff 	movq   $0x0,-0x1a50(%rbp)
    b153:	00 00 00 00 
    b157:	48 c7 85 b8 e5 ff ff 	movq   $0x0,-0x1a48(%rbp)
    b15e:	00 00 00 00 
    b162:	48 8d 85 a0 d4 ff ff 	lea    -0x2b60(%rbp),%rax
    b169:	48 89 85 c0 e5 ff ff 	mov    %rax,-0x1a40(%rbp)
    b170:	48 c7 85 c8 e5 ff ff 	movq   $0x0,-0x1a38(%rbp)
    b177:	00 00 00 00 
    b17b:	48 8d 85 a0 d4 ff ff 	lea    -0x2b60(%rbp),%rax
    b182:	48 89 85 d0 e5 ff ff 	mov    %rax,-0x1a30(%rbp)
    b189:	48 8d 85 a0 d4 ff ff 	lea    -0x2b60(%rbp),%rax
    b190:	48 89 85 d8 e5 ff ff 	mov    %rax,-0x1a28(%rbp)
    b197:	48 8d 85 a0 d4 ff ff 	lea    -0x2b60(%rbp),%rax
    b19e:	48 89 85 e0 e5 ff ff 	mov    %rax,-0x1a20(%rbp)
    b1a5:	48 c7 85 e8 e5 ff ff 	movq   $0x0,-0x1a18(%rbp)
    b1ac:	00 00 00 00 
    b1b0:	48 8d 85 a0 d4 ff ff 	lea    -0x2b60(%rbp),%rax
    b1b7:	48 89 85 f0 e5 ff ff 	mov    %rax,-0x1a10(%rbp)
    b1be:	48 8d 85 a0 d4 ff ff 	lea    -0x2b60(%rbp),%rax
    b1c5:	48 89 85 f8 e5 ff ff 	mov    %rax,-0x1a08(%rbp)
    b1cc:	48 8d 85 a0 d4 ff ff 	lea    -0x2b60(%rbp),%rax
    b1d3:	48 89 85 00 e6 ff ff 	mov    %rax,-0x1a00(%rbp)
    b1da:	48 c7 85 08 e6 ff ff 	movq   $0x0,-0x19f8(%rbp)
    b1e1:	00 00 00 00 
    b1e5:	48 8d 85 a0 d4 ff ff 	lea    -0x2b60(%rbp),%rax
    b1ec:	48 89 85 10 e6 ff ff 	mov    %rax,-0x19f0(%rbp)
    b1f3:	48 8d 85 a0 d4 ff ff 	lea    -0x2b60(%rbp),%rax
    b1fa:	48 89 85 18 e6 ff ff 	mov    %rax,-0x19e8(%rbp)
    b201:	48 8d 85 a0 d4 ff ff 	lea    -0x2b60(%rbp),%rax
    b208:	48 89 85 20 e6 ff ff 	mov    %rax,-0x19e0(%rbp)
    b20f:	48 8d 85 a0 d4 ff ff 	lea    -0x2b60(%rbp),%rax
    b216:	48 89 85 28 e6 ff ff 	mov    %rax,-0x19d8(%rbp)
    b21d:	48 c7 85 30 e6 ff ff 	movq   $0x0,-0x19d0(%rbp)
    b224:	00 00 00 00 
    b228:	48 8d 85 a0 d4 ff ff 	lea    -0x2b60(%rbp),%rax
    b22f:	48 89 85 38 e6 ff ff 	mov    %rax,-0x19c8(%rbp)
    b236:	48 8d 85 a0 d4 ff ff 	lea    -0x2b60(%rbp),%rax
    b23d:	48 89 85 40 e6 ff ff 	mov    %rax,-0x19c0(%rbp)
    b244:	48 8d 85 a0 d4 ff ff 	lea    -0x2b60(%rbp),%rax
    b24b:	48 89 85 48 e6 ff ff 	mov    %rax,-0x19b8(%rbp)
    b252:	48 c7 85 50 e6 ff ff 	movq   $0x0,-0x19b0(%rbp)
    b259:	00 00 00 00 
    b25d:	48 8d 85 a0 d4 ff ff 	lea    -0x2b60(%rbp),%rax
    b264:	48 89 85 58 e6 ff ff 	mov    %rax,-0x19a8(%rbp)
    b26b:	48 8d 85 a0 d4 ff ff 	lea    -0x2b60(%rbp),%rax
    b272:	48 89 85 60 e6 ff ff 	mov    %rax,-0x19a0(%rbp)
    b279:	48 8d 85 a0 d4 ff ff 	lea    -0x2b60(%rbp),%rax
    b280:	48 89 85 68 e6 ff ff 	mov    %rax,-0x1998(%rbp)
    b287:	48 8d 85 a0 d4 ff ff 	lea    -0x2b60(%rbp),%rax
    b28e:	48 89 85 70 e6 ff ff 	mov    %rax,-0x1990(%rbp)
    b295:	48 c7 85 78 e6 ff ff 	movq   $0x0,-0x1988(%rbp)
    b29c:	00 00 00 00 
    b2a0:	48 8d 85 a0 d4 ff ff 	lea    -0x2b60(%rbp),%rax
    b2a7:	48 89 85 80 e6 ff ff 	mov    %rax,-0x1980(%rbp)
    b2ae:	48 8d 85 a0 d4 ff ff 	lea    -0x2b60(%rbp),%rax
    b2b5:	48 89 85 88 e6 ff ff 	mov    %rax,-0x1978(%rbp)
    b2bc:	48 8d 85 a0 d4 ff ff 	lea    -0x2b60(%rbp),%rax
    b2c3:	48 89 85 90 e6 ff ff 	mov    %rax,-0x1970(%rbp)
    b2ca:	48 c7 85 98 e6 ff ff 	movq   $0x0,-0x1968(%rbp)
    b2d1:	00 00 00 00 
    b2d5:	48 8d 85 a0 d4 ff ff 	lea    -0x2b60(%rbp),%rax
    b2dc:	48 89 85 a0 e6 ff ff 	mov    %rax,-0x1960(%rbp)
    b2e3:	48 8d 85 a0 d4 ff ff 	lea    -0x2b60(%rbp),%rax
    b2ea:	48 89 85 a8 e6 ff ff 	mov    %rax,-0x1958(%rbp)
    b2f1:	48 8d 85 a0 d4 ff ff 	lea    -0x2b60(%rbp),%rax
    b2f8:	48 89 85 b0 e6 ff ff 	mov    %rax,-0x1950(%rbp)
    b2ff:	48 c7 85 b8 e6 ff ff 	movq   $0x0,-0x1948(%rbp)
    b306:	00 00 00 00 
    b30a:	48 8d 85 a0 d4 ff ff 	lea    -0x2b60(%rbp),%rax
    b311:	48 89 85 c0 e6 ff ff 	mov    %rax,-0x1940(%rbp)
    b318:	48 c7 85 c8 e6 ff ff 	movq   $0x0,-0x1938(%rbp)
    b31f:	00 00 00 00 
    b323:	48 c7 85 d0 e6 ff ff 	movq   $0x0,-0x1930(%rbp)
    b32a:	00 00 00 00 
    b32e:	48 c7 85 d8 e6 ff ff 	movq   $0x0,-0x1928(%rbp)
    b335:	00 00 00 00 
    b339:	48 8d 85 a0 d4 ff ff 	lea    -0x2b60(%rbp),%rax
    b340:	48 89 85 e0 e6 ff ff 	mov    %rax,-0x1920(%rbp)
    b347:	48 c7 85 e8 e6 ff ff 	movq   $0x0,-0x1918(%rbp)
    b34e:	00 00 00 00 
    b352:	48 c7 85 f0 e6 ff ff 	movq   $0x0,-0x1910(%rbp)
    b359:	00 00 00 00 
    b35d:	48 c7 85 f8 e6 ff ff 	movq   $0x0,-0x1908(%rbp)
    b364:	00 00 00 00 
    b368:	48 8d 85 a0 d4 ff ff 	lea    -0x2b60(%rbp),%rax
    b36f:	48 89 85 00 e7 ff ff 	mov    %rax,-0x1900(%rbp)
    b376:	48 c7 85 08 e7 ff ff 	movq   $0x0,-0x18f8(%rbp)
    b37d:	00 00 00 00 
    b381:	48 8d 85 a0 d4 ff ff 	lea    -0x2b60(%rbp),%rax
    b388:	48 89 85 10 e7 ff ff 	mov    %rax,-0x18f0(%rbp)
    b38f:	48 8d 85 a0 d4 ff ff 	lea    -0x2b60(%rbp),%rax
    b396:	48 89 85 18 e7 ff ff 	mov    %rax,-0x18e8(%rbp)
    b39d:	48 8d 85 a0 d4 ff ff 	lea    -0x2b60(%rbp),%rax
    b3a4:	48 89 85 20 e7 ff ff 	mov    %rax,-0x18e0(%rbp)
    b3ab:	48 c7 85 28 e7 ff ff 	movq   $0x0,-0x18d8(%rbp)
    b3b2:	00 00 00 00 
    b3b6:	48 8d 85 a0 d4 ff ff 	lea    -0x2b60(%rbp),%rax
    b3bd:	48 89 85 30 e7 ff ff 	mov    %rax,-0x18d0(%rbp)
    b3c4:	48 8d 85 a0 d4 ff ff 	lea    -0x2b60(%rbp),%rax
    b3cb:	48 89 85 38 e7 ff ff 	mov    %rax,-0x18c8(%rbp)
    b3d2:	48 8d 85 a0 d4 ff ff 	lea    -0x2b60(%rbp),%rax
    b3d9:	48 89 85 40 e7 ff ff 	mov    %rax,-0x18c0(%rbp)
    b3e0:	48 c7 85 48 e7 ff ff 	movq   $0x0,-0x18b8(%rbp)
    b3e7:	00 00 00 00 
    b3eb:	48 8d 85 a0 d4 ff ff 	lea    -0x2b60(%rbp),%rax
    b3f2:	48 89 85 50 e7 ff ff 	mov    %rax,-0x18b0(%rbp)
    b3f9:	48 8d 85 a0 d4 ff ff 	lea    -0x2b60(%rbp),%rax
    b400:	48 89 85 58 e7 ff ff 	mov    %rax,-0x18a8(%rbp)
    b407:	48 8d 85 a0 d4 ff ff 	lea    -0x2b60(%rbp),%rax
    b40e:	48 89 85 60 e7 ff ff 	mov    %rax,-0x18a0(%rbp)
    b415:	48 8d 85 a0 d4 ff ff 	lea    -0x2b60(%rbp),%rax
    b41c:	48 89 85 68 e7 ff ff 	mov    %rax,-0x1898(%rbp)
    b423:	48 c7 85 70 e7 ff ff 	movq   $0x0,-0x1890(%rbp)
    b42a:	00 00 00 00 
    b42e:	48 8d 85 a0 d4 ff ff 	lea    -0x2b60(%rbp),%rax
    b435:	48 89 85 78 e7 ff ff 	mov    %rax,-0x1888(%rbp)
    b43c:	48 8d 85 a0 d4 ff ff 	lea    -0x2b60(%rbp),%rax
    b443:	48 89 85 80 e7 ff ff 	mov    %rax,-0x1880(%rbp)
    b44a:	48 8d 85 a0 d4 ff ff 	lea    -0x2b60(%rbp),%rax
    b451:	48 89 85 88 e7 ff ff 	mov    %rax,-0x1878(%rbp)
    b458:	48 c7 85 90 e7 ff ff 	movq   $0x0,-0x1870(%rbp)
    b45f:	00 00 00 00 
    b463:	48 8d 85 a0 d4 ff ff 	lea    -0x2b60(%rbp),%rax
    b46a:	48 89 85 98 e7 ff ff 	mov    %rax,-0x1868(%rbp)
    b471:	48 8d 85 a0 d4 ff ff 	lea    -0x2b60(%rbp),%rax
    b478:	48 89 85 a0 e7 ff ff 	mov    %rax,-0x1860(%rbp)
    b47f:	48 8d 85 a0 d4 ff ff 	lea    -0x2b60(%rbp),%rax
    b486:	48 89 85 a8 e7 ff ff 	mov    %rax,-0x1858(%rbp)
    b48d:	48 8d 85 a0 d4 ff ff 	lea    -0x2b60(%rbp),%rax
    b494:	48 89 85 b0 e7 ff ff 	mov    %rax,-0x1850(%rbp)
    b49b:	48 c7 85 b8 e7 ff ff 	movq   $0x0,-0x1848(%rbp)
    b4a2:	00 00 00 00 
    b4a6:	c6 85 58 d3 ff ff 0e 	movb   $0xe,-0x2ca8(%rbp)
    b4ad:	48 8d 85 88 d4 ff ff 	lea    -0x2b78(%rbp),%rax
    b4b4:	48 89 85 b8 d5 ff ff 	mov    %rax,-0x2a48(%rbp)
    b4bb:	66 c7 85 c0 d9 ff ff 	movw   $0xffff,-0x2640(%rbp)
    b4c2:	ff ff 
    b4c4:	66 c7 85 c2 d9 ff ff 	movw   $0xfffb,-0x263e(%rbp)
    b4cb:	fb ff 
    b4cd:	66 c7 85 c4 d9 ff ff 	movw   $0xffff,-0x263c(%rbp)
    b4d4:	ff ff 
    b4d6:	66 c7 85 c6 d9 ff ff 	movw   $0xfff7,-0x263a(%rbp)
    b4dd:	f7 ff 
    b4df:	66 c7 85 c8 d9 ff ff 	movw   $0xb97e,-0x2638(%rbp)
    b4e6:	7e b9 
    b4e8:	66 c7 85 ca d9 ff ff 	movw   $0x4ad7,-0x2636(%rbp)
    b4ef:	d7 4a 
    b4f1:	66 c7 85 cc d9 ff ff 	movw   $0xdf56,-0x2634(%rbp)
    b4f8:	56 df 
    b4fa:	66 c7 85 ce d9 ff ff 	movw   $0x4,-0x2632(%rbp)
    b501:	04 00 
    b503:	66 c7 85 d0 d9 ff ff 	movw   $0xffff,-0x2630(%rbp)
    b50a:	ff ff 
    b50c:	66 c7 85 d2 d9 ff ff 	movw   $0x1a99,-0x262e(%rbp)
    b513:	99 1a 
    b515:	66 c7 85 d4 d9 ff ff 	movw   $0xfff6,-0x262c(%rbp)
    b51c:	f6 ff 
    b51e:	66 c7 85 d6 d9 ff ff 	movw   $0x1,-0x262a(%rbp)
    b525:	01 00 
    b527:	66 c7 85 d8 d9 ff ff 	movw   $0x4,-0x2628(%rbp)
    b52e:	04 00 
    b530:	66 c7 85 da d9 ff ff 	movw   $0x1,-0x2626(%rbp)
    b537:	01 00 
    b539:	66 c7 85 dc d9 ff ff 	movw   $0xfff6,-0x2624(%rbp)
    b540:	f6 ff 
    b542:	66 c7 85 de d9 ff ff 	movw   $0x1a99,-0x2622(%rbp)
    b549:	99 1a 
    b54b:	66 c7 85 e0 d9 ff ff 	movw   $0xffff,-0x2620(%rbp)
    b552:	ff ff 
    b554:	66 c7 85 e2 d9 ff ff 	movw   $0x4,-0x261e(%rbp)
    b55b:	04 00 
    b55d:	66 c7 85 e4 d9 ff ff 	movw   $0xdf56,-0x261c(%rbp)
    b564:	56 df 
    b566:	66 c7 85 e6 d9 ff ff 	movw   $0x4ad7,-0x261a(%rbp)
    b56d:	d7 4a 
    b56f:	66 c7 85 e8 d9 ff ff 	movw   $0xb97e,-0x2618(%rbp)
    b576:	7e b9 
    b578:	66 c7 85 ea d9 ff ff 	movw   $0xfff7,-0x2616(%rbp)
    b57f:	f7 ff 
    b581:	66 c7 85 ec d9 ff ff 	movw   $0xffff,-0x2614(%rbp)
    b588:	ff ff 
    b58a:	66 c7 85 ee d9 ff ff 	movw   $0xfffb,-0x2612(%rbp)
    b591:	fb ff 
    b593:	66 c7 85 f0 d9 ff ff 	movw   $0xffff,-0x2610(%rbp)
    b59a:	ff ff 
    b59c:	66 c7 85 f2 d9 ff ff 	movw   $0xffff,-0x260e(%rbp)
    b5a3:	ff ff 
    b5a5:	66 c7 85 f4 d9 ff ff 	movw   $0x5,-0x260c(%rbp)
    b5ac:	05 00 
    b5ae:	66 c7 85 f6 d9 ff ff 	movw   $0xc449,-0x260a(%rbp)
    b5b5:	49 c4 
    b5b7:	66 c7 85 f8 d9 ff ff 	movw   $0x4ad7,-0x2608(%rbp)
    b5be:	d7 4a 
    b5c0:	66 c7 85 fa d9 ff ff 	movw   $0x4443,-0x2606(%rbp)
    b5c7:	43 44 
    b5c9:	66 c7 85 fc d9 ff ff 	movw   $0xfff6,-0x2604(%rbp)
    b5d0:	f6 ff 
    b5d2:	66 c7 85 fe d9 ff ff 	movw   $0xffff,-0x2602(%rbp)
    b5d9:	ff ff 
    b5db:	66 c7 85 00 da ff ff 	movw   $0x32ee,-0x2600(%rbp)
    b5e2:	ee 32 
    b5e4:	66 c7 85 02 da ff ff 	movw   $0xfffb,-0x25fe(%rbp)
    b5eb:	fb ff 
    b5ed:	66 c7 85 04 da ff ff 	movw   $0x1,-0x25fc(%rbp)
    b5f4:	01 00 
    b5f6:	66 c7 85 06 da ff ff 	movw   $0x949b,-0x25fa(%rbp)
    b5fd:	9b 94 
    b5ff:	66 c7 85 08 da ff ff 	movw   $0x4ad7,-0x25f8(%rbp)
    b606:	d7 4a 
    b608:	66 c7 85 0a da ff ff 	movw   $0xfff6,-0x25f6(%rbp)
    b60f:	f6 ff 
    b611:	66 c7 85 0c da ff ff 	movw   $0x32ee,-0x25f4(%rbp)
    b618:	ee 32 
    b61a:	66 c7 85 0e da ff ff 	movw   $0xb97e,-0x25f2(%rbp)
    b621:	7e b9 
    b623:	66 c7 85 10 da ff ff 	movw   $0x4,-0x25f0(%rbp)
    b62a:	04 00 
    b62c:	66 c7 85 12 da ff ff 	movw   $0x4443,-0x25ee(%rbp)
    b633:	43 44 
    b635:	66 c7 85 14 da ff ff 	movw   $0x495c,-0x25ec(%rbp)
    b63c:	5c 49 
    b63e:	66 c7 85 16 da ff ff 	movw   $0xb97e,-0x25ea(%rbp)
    b645:	7e b9 
    b647:	66 c7 85 18 da ff ff 	movw   $0x5,-0x25e8(%rbp)
    b64e:	05 00 
    b650:	66 c7 85 1a da ff ff 	movw   $0x7713,-0x25e6(%rbp)
    b657:	13 77 
    b659:	66 c7 85 1c da ff ff 	movw   $0xfffb,-0x25e4(%rbp)
    b660:	fb ff 
    b662:	66 c7 85 1e da ff ff 	movw   $0xfffb,-0x25e2(%rbp)
    b669:	fb ff 
    b66b:	66 c7 85 20 da ff ff 	movw   $0x7713,-0x25e0(%rbp)
    b672:	13 77 
    b674:	66 c7 85 22 da ff ff 	movw   $0x5,-0x25de(%rbp)
    b67b:	05 00 
    b67d:	66 c7 85 24 da ff ff 	movw   $0xb97e,-0x25dc(%rbp)
    b684:	7e b9 
    b686:	66 c7 85 26 da ff ff 	movw   $0x495c,-0x25da(%rbp)
    b68d:	5c 49 
    b68f:	66 c7 85 28 da ff ff 	movw   $0x4443,-0x25d8(%rbp)
    b696:	43 44 
    b698:	66 c7 85 2a da ff ff 	movw   $0x4,-0x25d6(%rbp)
    b69f:	04 00 
    b6a1:	66 c7 85 2c da ff ff 	movw   $0xb97e,-0x25d4(%rbp)
    b6a8:	7e b9 
    b6aa:	66 c7 85 2e da ff ff 	movw   $0x32ee,-0x25d2(%rbp)
    b6b1:	ee 32 
    b6b3:	66 c7 85 30 da ff ff 	movw   $0xfff6,-0x25d0(%rbp)
    b6ba:	f6 ff 
    b6bc:	66 c7 85 32 da ff ff 	movw   $0x4ad7,-0x25ce(%rbp)
    b6c3:	d7 4a 
    b6c5:	66 c7 85 34 da ff ff 	movw   $0x949b,-0x25cc(%rbp)
    b6cc:	9b 94 
    b6ce:	66 c7 85 36 da ff ff 	movw   $0x1,-0x25ca(%rbp)
    b6d5:	01 00 
    b6d7:	66 c7 85 38 da ff ff 	movw   $0xfffb,-0x25c8(%rbp)
    b6de:	fb ff 
    b6e0:	66 c7 85 3a da ff ff 	movw   $0x32ee,-0x25c6(%rbp)
    b6e7:	ee 32 
    b6e9:	66 c7 85 3c da ff ff 	movw   $0xffff,-0x25c4(%rbp)
    b6f0:	ff ff 
    b6f2:	66 c7 85 3e da ff ff 	movw   $0xfff6,-0x25c2(%rbp)
    b6f9:	f6 ff 
    b6fb:	66 c7 85 40 da ff ff 	movw   $0x4443,-0x25c0(%rbp)
    b702:	43 44 
    b704:	66 c7 85 42 da ff ff 	movw   $0x4ad7,-0x25be(%rbp)
    b70b:	d7 4a 
    b70d:	66 c7 85 44 da ff ff 	movw   $0xc449,-0x25bc(%rbp)
    b714:	49 c4 
    b716:	66 c7 85 46 da ff ff 	movw   $0x5,-0x25ba(%rbp)
    b71d:	05 00 
    b71f:	66 c7 85 48 da ff ff 	movw   $0xffff,-0x25b8(%rbp)
    b726:	ff ff 
    b728:	66 c7 85 4a da ff ff 	movw   $0xffff,-0x25b6(%rbp)
    b72f:	ff ff 
    b731:	66 c7 85 4c da ff ff 	movw   $0xfffb,-0x25b4(%rbp)
    b738:	fb ff 
    b73a:	66 c7 85 4e da ff ff 	movw   $0xffff,-0x25b2(%rbp)
    b741:	ff ff 
    b743:	66 c7 85 50 da ff ff 	movw   $0xfff7,-0x25b0(%rbp)
    b74a:	f7 ff 
    b74c:	66 c7 85 52 da ff ff 	movw   $0xb97e,-0x25ae(%rbp)
    b753:	7e b9 
    b755:	66 c7 85 54 da ff ff 	movw   $0x4ad7,-0x25ac(%rbp)
    b75c:	d7 4a 
    b75e:	66 c7 85 56 da ff ff 	movw   $0xdf56,-0x25aa(%rbp)
    b765:	56 df 
    b767:	66 c7 85 58 da ff ff 	movw   $0x4,-0x25a8(%rbp)
    b76e:	04 00 
    b770:	66 c7 85 5a da ff ff 	movw   $0xffff,-0x25a6(%rbp)
    b777:	ff ff 
    b779:	66 c7 85 5c da ff ff 	movw   $0x1a99,-0x25a4(%rbp)
    b780:	99 1a 
    b782:	66 c7 85 5e da ff ff 	movw   $0xfff6,-0x25a2(%rbp)
    b789:	f6 ff 
    b78b:	66 c7 85 60 da ff ff 	movw   $0x1,-0x25a0(%rbp)
    b792:	01 00 
    b794:	48 8d 05 95 35 01 00 	lea    0x13595(%rip),%rax        # 1ed30 <g_812+0x10>
    b79b:	48 89 85 c0 d5 ff ff 	mov    %rax,-0x2a40(%rbp)
    b7a2:	c7 85 d8 d3 ff ff 00 	movl   $0x0,-0x2c28(%rbp)
    b7a9:	00 00 00 
    b7ac:	eb 19                	jmp    b7c7 <func_50+0x1312>
    b7ae:	8b 85 d8 d3 ff ff    	mov    -0x2c28(%rbp),%eax
    b7b4:	48 98                	cltq   
    b7b6:	66 c7 84 45 1e d7 ff 	movw   $0x0,-0x28e2(%rbp,%rax,2)
    b7bd:	ff 00 00 
    b7c0:	83 85 d8 d3 ff ff 01 	addl   $0x1,-0x2c28(%rbp)
    b7c7:	83 bd d8 d3 ff ff 00 	cmpl   $0x0,-0x2c28(%rbp)
    b7ce:	7e de                	jle    b7ae <func_50+0x12f9>
    b7d0:	8b 85 78 d3 ff ff    	mov    -0x2c88(%rbp),%eax
    b7d6:	83 c0 01             	add    $0x1,%eax
    b7d9:	89 85 78 d3 ff ff    	mov    %eax,-0x2c88(%rbp)
    b7df:	c6 05 d6 18 01 00 00 	movb   $0x0,0x118d6(%rip)        # 1d0bc <g_293>
    b7e6:	e9 83 3c 00 00       	jmpq   f46e <func_50+0x4fb9>
    b7eb:	48 8d 85 52 d3 ff ff 	lea    -0x2cae(%rbp),%rax
    b7f2:	48 89 85 c8 d5 ff ff 	mov    %rax,-0x2a38(%rbp)
    b7f9:	c7 85 0c d4 ff ff a6 	movl   $0xe84143a6,-0x2bf4(%rbp)
    b800:	43 41 e8 
    b803:	c7 85 98 d3 ff ff 01 	movl   $0x1,-0x2c68(%rbp)
    b80a:	00 00 00 
    b80d:	c7 85 9c d3 ff ff f0 	movl   $0xca457f0,-0x2c64(%rbp)
    b814:	57 a4 0c 
    b817:	c7 85 a0 d3 ff ff 00 	movl   $0x0,-0x2c60(%rbp)
    b81e:	00 00 00 
    b821:	c7 85 a4 d3 ff ff 29 	movl   $0x9f36d229,-0x2c5c(%rbp)
    b828:	d2 36 9f 
    b82b:	48 8d 85 70 da ff ff 	lea    -0x2590(%rbp),%rax
    b832:	48 8d 15 47 cf 00 00 	lea    0xcf47(%rip),%rdx        # 18780 <g_1963+0x720>
    b839:	b9 28 00 00 00       	mov    $0x28,%ecx
    b83e:	48 89 c7             	mov    %rax,%rdi
    b841:	48 89 d6             	mov    %rdx,%rsi
    b844:	f3 48 a5             	rep movsq %ds:(%rsi),%es:(%rdi)
    b847:	c7 85 10 d4 ff ff d3 	movl   $0x4b5cfcd3,-0x2bf0(%rbp)
    b84e:	fc 5c 4b 
    b851:	66 c7 85 20 d7 ff ff 	movw   $0x6a0c,-0x28e0(%rbp)
    b858:	0c 6a 
    b85a:	66 c7 85 22 d7 ff ff 	movw   $0xfe33,-0x28de(%rbp)
    b861:	33 fe 
    b863:	66 c7 85 24 d7 ff ff 	movw   $0xfe33,-0x28dc(%rbp)
    b86a:	33 fe 
    b86c:	66 c7 85 26 d7 ff ff 	movw   $0x6a0c,-0x28da(%rbp)
    b873:	0c 6a 
    b875:	66 c7 85 28 d7 ff ff 	movw   $0xfe33,-0x28d8(%rbp)
    b87c:	33 fe 
    b87e:	66 c7 85 2a d7 ff ff 	movw   $0xfe33,-0x28d6(%rbp)
    b885:	33 fe 
    b887:	66 c7 85 2c d7 ff ff 	movw   $0x6a0c,-0x28d4(%rbp)
    b88e:	0c 6a 
    b890:	66 c7 85 2e d7 ff ff 	movw   $0xfe33,-0x28d2(%rbp)
    b897:	33 fe 
    b899:	48 8d 85 74 d3 ff ff 	lea    -0x2c8c(%rbp),%rax
    b8a0:	48 89 85 d0 d5 ff ff 	mov    %rax,-0x2a30(%rbp)
    b8a7:	48 8d 05 ba 31 01 00 	lea    0x131ba(%rip),%rax        # 1ea68 <g_436+0x28>
    b8ae:	48 89 85 d8 d5 ff ff 	mov    %rax,-0x2a28(%rbp)
    b8b5:	48 8d 85 b0 f7 ff ff 	lea    -0x850(%rbp),%rax
    b8bc:	48 8d 15 bd 26 01 00 	lea    0x126bd(%rip),%rdx        # 1df80 <g_2905+0xc18>
    b8c3:	b9 00 01 00 00       	mov    $0x100,%ecx
    b8c8:	48 89 c7             	mov    %rax,%rdi
    b8cb:	48 89 d6             	mov    %rdx,%rsi
    b8ce:	f3 48 a5             	rep movsq %ds:(%rsi),%es:(%rdi)
    b8d1:	48 8d 85 30 d7 ff ff 	lea    -0x28d0(%rbp),%rax
    b8d8:	48 89 85 e0 d5 ff ff 	mov    %rax,-0x2a20(%rbp)
    b8df:	48 c7 85 e8 d5 ff ff 	movq   $0xffffffffffffffff,-0x2a18(%rbp)
    b8e6:	ff ff ff ff 
    b8ea:	c7 85 dc d3 ff ff 00 	movl   $0x0,-0x2c24(%rbp)
    b8f1:	00 00 00 
    b8f4:	eb 22                	jmp    b918 <func_50+0x1463>
    b8f6:	8b 85 dc d3 ff ff    	mov    -0x2c24(%rbp),%eax
    b8fc:	48 98                	cltq   
    b8fe:	48 8d 95 c0 d7 ff ff 	lea    -0x2840(%rbp),%rdx
    b905:	48 83 c2 10          	add    $0x10,%rdx
    b909:	48 89 94 c5 30 d7 ff 	mov    %rdx,-0x28d0(%rbp,%rax,8)
    b910:	ff 
    b911:	83 85 dc d3 ff ff 01 	addl   $0x1,-0x2c24(%rbp)
    b918:	83 bd dc d3 ff ff 01 	cmpl   $0x1,-0x2c24(%rbp)
    b91f:	7e d5                	jle    b8f6 <func_50+0x1441>
    b921:	be 0e 00 00 00       	mov    $0xe,%esi
    b926:	bf b1 d7 00 00       	mov    $0xd7b1,%edi
    b92b:	e8 4a b5 ff ff       	callq  6e7a <safe_rshift_func_uint16_t_u_u>
    b930:	0f b6 c0             	movzbl %al,%eax
    b933:	89 c7                	mov    %eax,%edi
    b935:	e8 0b b2 ff ff       	callq  6b45 <safe_unary_minus_func_uint8_t_u>
    b93a:	84 c0                	test   %al,%al
    b93c:	0f 84 e4 03 00 00    	je     bd26 <func_50+0x1871>
    b942:	48 c7 85 08 d6 ff ff 	movq   $0x0,-0x29f8(%rbp)
    b949:	00 00 00 00 
    b94d:	c7 85 e0 d3 ff ff 00 	movl   $0x0,-0x2c20(%rbp)
    b954:	00 00 00 
    b957:	c7 85 e4 d3 ff ff df 	movl   $0x897e79df,-0x2c1c(%rbp)
    b95e:	79 7e 89 
    b961:	c7 85 e8 d3 ff ff ff 	movl   $0xffffffff,-0x2c18(%rbp)
    b968:	ff ff ff 
    b96b:	c7 05 ab 17 01 00 00 	movl   $0x0,0x117ab(%rip)        # 1d120 <g_929>
    b972:	00 00 00 
    b975:	e9 92 01 00 00       	jmpq   bb0c <func_50+0x1657>
    b97a:	48 8d 85 80 d4 ff ff 	lea    -0x2b80(%rbp),%rax
    b981:	48 89 85 10 d6 ff ff 	mov    %rax,-0x29f0(%rbp)
    b988:	48 c7 85 18 d6 ff ff 	movq   $0x0,-0x29e8(%rbp)
    b98f:	00 00 00 00 
    b993:	48 8d 05 7a 17 01 00 	lea    0x1177a(%rip),%rax        # 1d114 <g_798>
    b99a:	48 89 85 20 d6 ff ff 	mov    %rax,-0x29e0(%rbp)
    b9a1:	c7 85 1c d4 ff ff 2f 	movl   $0x913d62f,-0x2be4(%rbp)
    b9a8:	d6 13 09 
    b9ab:	8b 85 4c d3 ff ff    	mov    -0x2cb4(%rbp),%eax
    b9b1:	0f bf d8             	movswl %ax,%ebx
    b9b4:	48 8b 85 08 d6 ff ff 	mov    -0x29f8(%rbp),%rax
    b9bb:	48 3b 85 80 d5 ff ff 	cmp    -0x2a80(%rbp),%rax
    b9c2:	41 0f 95 c4          	setne  %r12b
    b9c6:	8b 05 54 17 01 00    	mov    0x11754(%rip),%eax        # 1d120 <g_929>
    b9cc:	8b 15 4e 17 01 00    	mov    0x1174e(%rip),%edx        # 1d120 <g_929>
    b9d2:	48 63 ca             	movslq %edx,%rcx
    b9d5:	48 63 d0             	movslq %eax,%rdx
    b9d8:	48 89 d0             	mov    %rdx,%rax
    b9db:	48 01 c0             	add    %rax,%rax
    b9de:	48 01 d0             	add    %rdx,%rax
    b9e1:	48 8d 14 08          	lea    (%rax,%rcx,1),%rdx
    b9e5:	48 8d 05 1c 17 01 00 	lea    0x1171c(%rip),%rax        # 1d108 <g_778>
    b9ec:	48 01 d0             	add    %rdx,%rax
    b9ef:	0f b6 00             	movzbl (%rax),%eax
    b9f2:	0f b6 c0             	movzbl %al,%eax
    b9f5:	48 be bf 7a aa 70 f6 	movabs $0xa5591df670aa7abf,%rsi
    b9fc:	1d 59 a5 
    b9ff:	48 89 c7             	mov    %rax,%rdi
    ba02:	e8 a1 ae ff ff       	callq  68a8 <safe_sub_func_int64_t_s_s>
    ba07:	48 0f bf 95 6a d3 ff 	movswq -0x2c96(%rbp),%rdx
    ba0e:	ff 
    ba0f:	48 39 d0             	cmp    %rdx,%rax
    ba12:	0f 9d c0             	setge  %al
    ba15:	44 21 e0             	and    %r12d,%eax
    ba18:	0f b6 c0             	movzbl %al,%eax
    ba1b:	89 de                	mov    %ebx,%esi
    ba1d:	89 c7                	mov    %eax,%edi
    ba1f:	e8 31 aa ff ff       	callq  6455 <safe_div_func_int16_t_s_s>
    ba24:	0f bf d0             	movswl %ax,%edx
    ba27:	48 8b 85 20 d6 ff ff 	mov    -0x29e0(%rbp),%rax
    ba2e:	89 10                	mov    %edx,(%rax)
    ba30:	48 83 bd 10 d6 ff ff 	cmpq   $0x0,-0x29f0(%rbp)
    ba37:	00 
    ba38:	0f 94 c0             	sete   %al
    ba3b:	0f b6 d0             	movzbl %al,%edx
    ba3e:	0f b6 05 77 16 01 00 	movzbl 0x11677(%rip),%eax        # 1d0bc <g_293>
    ba45:	0f b6 c0             	movzbl %al,%eax
    ba48:	83 c0 06             	add    $0x6,%eax
    ba4b:	48 98                	cltq   
    ba4d:	48 8d 0c 00          	lea    (%rax,%rax,1),%rcx
    ba51:	48 8d 05 d8 16 01 00 	lea    0x116d8(%rip),%rax        # 1d130 <g_1107>
    ba58:	0f b7 04 01          	movzwl (%rcx,%rax,1),%eax
    ba5c:	66 85 c0             	test   %ax,%ax
    ba5f:	75 13                	jne    ba74 <func_50+0x15bf>
    ba61:	48 8b 85 70 d8 ff ff 	mov    -0x2790(%rbp),%rax
    ba68:	48 8d 0d 89 33 01 00 	lea    0x13389(%rip),%rcx        # 1edf8 <g_1029+0x38>
    ba6f:	48 39 c8             	cmp    %rcx,%rax
    ba72:	75 07                	jne    ba7b <func_50+0x15c6>
    ba74:	b8 01 00 00 00       	mov    $0x1,%eax
    ba79:	eb 05                	jmp    ba80 <func_50+0x15cb>
    ba7b:	b8 00 00 00 00       	mov    $0x0,%eax
    ba80:	89 c1                	mov    %eax,%ecx
    ba82:	48 8b 85 80 d5 ff ff 	mov    -0x2a80(%rbp),%rax
    ba89:	88 08                	mov    %cl,(%rax)
    ba8b:	48 8b 85 80 d5 ff ff 	mov    -0x2a80(%rbp),%rax
    ba92:	0f b6 00             	movzbl (%rax),%eax
    ba95:	0f be c0             	movsbl %al,%eax
    ba98:	89 d6                	mov    %edx,%esi
    ba9a:	89 c7                	mov    %eax,%edi
    ba9c:	e8 71 a7 ff ff       	callq  6212 <safe_mul_func_int8_t_s_s>
    baa1:	48 8b 85 70 d4 ff ff 	mov    -0x2b90(%rbp),%rax
    baa8:	8b 00                	mov    (%rax),%eax
    baaa:	85 c0                	test   %eax,%eax
    baac:	74 10                	je     babe <func_50+0x1609>
    baae:	83 bd 4c d3 ff ff 00 	cmpl   $0x0,-0x2cb4(%rbp)
    bab5:	74 07                	je     babe <func_50+0x1609>
    bab7:	ba 01 00 00 00       	mov    $0x1,%edx
    babc:	eb 05                	jmp    bac3 <func_50+0x160e>
    babe:	ba 00 00 00 00       	mov    $0x0,%edx
    bac3:	48 8b 85 a8 d5 ff ff 	mov    -0x2a58(%rbp),%rax
    baca:	8b 00                	mov    (%rax),%eax
    bacc:	31 c2                	xor    %eax,%edx
    bace:	48 8b 85 a8 d5 ff ff 	mov    -0x2a58(%rbp),%rax
    bad5:	89 10                	mov    %edx,(%rax)
    bad7:	48 8b 05 72 32 01 00 	mov    0x13272(%rip),%rax        # 1ed50 <g_811>
    bade:	48 8b 00             	mov    (%rax),%rax
    bae1:	48 8d 95 90 d3 ff ff 	lea    -0x2c70(%rbp),%rdx
    bae8:	48 89 10             	mov    %rdx,(%rax)
    baeb:	8b 85 1c d4 ff ff    	mov    -0x2be4(%rbp),%eax
    baf1:	33 85 48 d3 ff ff    	xor    -0x2cb8(%rbp),%eax
    baf7:	89 85 1c d4 ff ff    	mov    %eax,-0x2be4(%rbp)
    bafd:	8b 05 1d 16 01 00    	mov    0x1161d(%rip),%eax        # 1d120 <g_929>
    bb03:	83 c0 01             	add    $0x1,%eax
    bb06:	89 05 14 16 01 00    	mov    %eax,0x11614(%rip)        # 1d120 <g_929>
    bb0c:	8b 05 0e 16 01 00    	mov    0x1160e(%rip),%eax        # 1d120 <g_929>
    bb12:	83 f8 02             	cmp    $0x2,%eax
    bb15:	0f 8e 5f fe ff ff    	jle    b97a <func_50+0x14c5>
    bb1b:	c7 05 ff 15 01 00 00 	movl   $0x0,0x115ff(%rip)        # 1d124 <g_966>
    bb22:	00 00 00 
    bb25:	90                   	nop
    bb26:	8b 05 f8 15 01 00    	mov    0x115f8(%rip),%eax        # 1d124 <g_966>
    bb2c:	83 f8 01             	cmp    $0x1,%eax
    bb2f:	77 58                	ja     bb89 <func_50+0x16d4>
    bb31:	48 8d 85 74 d3 ff ff 	lea    -0x2c8c(%rbp),%rax
    bb38:	48 89 85 88 d4 ff ff 	mov    %rax,-0x2b78(%rbp)
    bb3f:	0f b6 05 76 15 01 00 	movzbl 0x11576(%rip),%eax        # 1d0bc <g_293>
    bb46:	0f b6 c0             	movzbl %al,%eax
    bb49:	83 c0 03             	add    $0x3,%eax
    bb4c:	48 98                	cltq   
    bb4e:	48 8d 14 00          	lea    (%rax,%rax,1),%rdx
    bb52:	48 8d 05 d7 15 01 00 	lea    0x115d7(%rip),%rax        # 1d130 <g_1107>
    bb59:	0f b7 04 02          	movzwl (%rdx,%rax,1),%eax
    bb5d:	66 85 c0             	test   %ax,%ax
    bb60:	0f 95 c0             	setne  %al
    bb63:	0f b6 d0             	movzbl %al,%edx
    bb66:	48 8b 85 b0 d5 ff ff 	mov    -0x2a50(%rbp),%rax
    bb6d:	8b 00                	mov    (%rax),%eax
    bb6f:	21 c2                	and    %eax,%edx
    bb71:	48 8b 85 b0 d5 ff ff 	mov    -0x2a50(%rbp),%rax
    bb78:	89 10                	mov    %edx,(%rax)
    bb7a:	0f b6 05 8a 15 01 00 	movzbl 0x1158a(%rip),%eax        # 1d10b <g_778+0x3>
    bb81:	0f b6 c0             	movzbl %al,%eax
    bb84:	e9 19 68 00 00       	jmpq   123a2 <func_50+0x7eed>
    bb89:	c7 05 11 15 01 00 04 	movl   $0x4,0x11511(%rip)        # 1d0a4 <g_109>
    bb90:	00 00 00 
    bb93:	e9 7b 01 00 00       	jmpq   bd13 <func_50+0x185e>
    bb98:	0f b6 05 1d 15 01 00 	movzbl 0x1151d(%rip),%eax        # 1d0bc <g_293>
    bb9f:	0f b6 c0             	movzbl %al,%eax
    bba2:	83 c0 04             	add    $0x4,%eax
    bba5:	48 98                	cltq   
    bba7:	48 8d 14 00          	lea    (%rax,%rax,1),%rdx
    bbab:	48 8d 05 7e 15 01 00 	lea    0x1157e(%rip),%rax        # 1d130 <g_1107>
    bbb2:	0f b7 04 02          	movzwl (%rdx,%rax,1),%eax
    bbb6:	66 85 c0             	test   %ax,%ax
    bbb9:	0f 85 6f 11 00 00    	jne    cd2e <func_50+0x2879>
    bbbf:	8b 85 48 d3 ff ff    	mov    -0x2cb8(%rbp),%eax
    bbc5:	0f b7 d8             	movzwl %ax,%ebx
    bbc8:	44 8b a5 48 d3 ff ff 	mov    -0x2cb8(%rbp),%r12d
    bbcf:	8b 85 4c d3 ff ff    	mov    -0x2cb4(%rbp),%eax
    bbd5:	44 0f be e8          	movsbl %al,%r13d
    bbd9:	8b 05 d9 14 01 00    	mov    0x114d9(%rip),%eax        # 1d0b8 <g_257>
    bbdf:	0f b7 d0             	movzwl %ax,%edx
    bbe2:	81 8d e0 d3 ff ff d6 	orl    $0xd6,-0x2c20(%rbp)
    bbe9:	00 00 00 
    bbec:	8b 85 e0 d3 ff ff    	mov    -0x2c20(%rbp),%eax
    bbf2:	89 c1                	mov    %eax,%ecx
    bbf4:	48 83 bd c8 d5 ff ff 	cmpq   $0x0,-0x2a38(%rbp)
    bbfb:	00 
    bbfc:	0f 94 c0             	sete   %al
    bbff:	0f b6 c0             	movzbl %al,%eax
    bc02:	21 c8                	and    %ecx,%eax
    bc04:	0f b7 c0             	movzwl %ax,%eax
    bc07:	89 d6                	mov    %edx,%esi
    bc09:	89 c7                	mov    %eax,%edi
    bc0b:	e8 2d b1 ff ff       	callq  6d3d <safe_mul_func_uint16_t_u_u>
    bc10:	66 85 c0             	test   %ax,%ax
    bc13:	74 10                	je     bc25 <func_50+0x1770>
    bc15:	80 bd 56 d3 ff ff 00 	cmpb   $0x0,-0x2caa(%rbp)
    bc1c:	74 07                	je     bc25 <func_50+0x1770>
    bc1e:	b8 01 00 00 00       	mov    $0x1,%eax
    bc23:	eb 05                	jmp    bc2a <func_50+0x1775>
    bc25:	b8 00 00 00 00       	mov    $0x0,%eax
    bc2a:	0f be c0             	movsbl %al,%eax
    bc2d:	44 89 ee             	mov    %r13d,%esi
    bc30:	89 c7                	mov    %eax,%edi
    bc32:	e8 9d a5 ff ff       	callq  61d4 <safe_add_func_int8_t_s_s>
    bc37:	8b 85 e0 d3 ff ff    	mov    -0x2c20(%rbp),%eax
    bc3d:	98                   	cwtl   
    bc3e:	89 c6                	mov    %eax,%esi
    bc40:	bf 44 ed ff ff       	mov    $0xffffed44,%edi
    bc45:	e8 ab a7 ff ff       	callq  63f5 <safe_mul_func_int16_t_s_s>
    bc4a:	66 3d f4 2b          	cmp    $0x2bf4,%ax
    bc4e:	0f 95 c0             	setne  %al
    bc51:	0f b6 d0             	movzbl %al,%edx
    bc54:	48 8b 85 b0 d5 ff ff 	mov    -0x2a50(%rbp),%rax
    bc5b:	8b 00                	mov    (%rax),%eax
    bc5d:	0f b6 c0             	movzbl %al,%eax
    bc60:	89 d6                	mov    %edx,%esi
    bc62:	89 c7                	mov    %eax,%edi
    bc64:	e8 2a af ff ff       	callq  6b93 <safe_mul_func_uint8_t_u_u>
    bc69:	0f b6 c0             	movzbl %al,%eax
    bc6c:	44 89 e6             	mov    %r12d,%esi
    bc6f:	89 c7                	mov    %eax,%edi
    bc71:	e8 d2 b1 ff ff       	callq  6e48 <safe_rshift_func_uint16_t_u_s>
    bc76:	0f b7 c0             	movzwl %ax,%eax
    bc79:	39 85 48 d3 ff ff    	cmp    %eax,-0x2cb8(%rbp)
    bc7f:	0f 97 c0             	seta   %al
    bc82:	0f b6 d0             	movzbl %al,%edx
    bc85:	8b 85 90 d3 ff ff    	mov    -0x2c70(%rbp),%eax
    bc8b:	39 c2                	cmp    %eax,%edx
    bc8d:	0f 95 c0             	setne  %al
    bc90:	0f b6 c0             	movzbl %al,%eax
    bc93:	89 de                	mov    %ebx,%esi
    bc95:	89 c7                	mov    %eax,%edi
    bc97:	e8 a1 b0 ff ff       	callq  6d3d <safe_mul_func_uint16_t_u_u>
    bc9c:	89 c2                	mov    %eax,%edx
    bc9e:	48 8b 85 80 d5 ff ff 	mov    -0x2a80(%rbp),%rax
    bca5:	88 10                	mov    %dl,(%rax)
    bca7:	48 8b 85 80 d5 ff ff 	mov    -0x2a80(%rbp),%rax
    bcae:	0f b6 00             	movzbl (%rax),%eax
    bcb1:	0f be d0             	movsbl %al,%edx
    bcb4:	0f b7 85 44 d3 ff ff 	movzwl -0x2cbc(%rbp),%eax
    bcbb:	0f be c0             	movsbl %al,%eax
    bcbe:	89 d6                	mov    %edx,%esi
    bcc0:	89 c7                	mov    %eax,%edi
    bcc2:	e8 da a5 ff ff       	callq  62a1 <safe_lshift_func_int8_t_s_s>
    bcc7:	b8 01 00 00 00       	mov    $0x1,%eax
    bccc:	21 85 e4 d3 ff ff    	and    %eax,-0x2c1c(%rbp)
    bcd2:	0f b6 05 e3 13 01 00 	movzbl 0x113e3(%rip),%eax        # 1d0bc <g_293>
    bcd9:	0f b6 c0             	movzbl %al,%eax
    bcdc:	39 85 e4 d3 ff ff    	cmp    %eax,-0x2c1c(%rbp)
    bce2:	0f 95 c0             	setne  %al
    bce5:	0f b6 c8             	movzbl %al,%ecx
    bce8:	48 8b 85 70 d4 ff ff 	mov    -0x2b90(%rbp),%rax
    bcef:	8b 10                	mov    (%rax),%edx
    bcf1:	48 8b 85 70 d4 ff ff 	mov    -0x2b90(%rbp),%rax
    bcf8:	21 ca                	and    %ecx,%edx
    bcfa:	89 10                	mov    %edx,(%rax)
    bcfc:	8b 00                	mov    (%rax),%eax
    bcfe:	21 85 e8 d3 ff ff    	and    %eax,-0x2c18(%rbp)
    bd04:	8b 05 9a 13 01 00    	mov    0x1139a(%rip),%eax        # 1d0a4 <g_109>
    bd0a:	83 e8 01             	sub    $0x1,%eax
    bd0d:	89 05 91 13 01 00    	mov    %eax,0x11391(%rip)        # 1d0a4 <g_109>
    bd13:	8b 05 8b 13 01 00    	mov    0x1138b(%rip),%eax        # 1d0a4 <g_109>
    bd19:	85 c0                	test   %eax,%eax
    bd1b:	0f 89 77 fe ff ff    	jns    bb98 <func_50+0x16e3>
    bd21:	e9 09 10 00 00       	jmpq   cd2f <func_50+0x287a>
    bd26:	48 8d 05 83 2d 01 00 	lea    0x12d83(%rip),%rax        # 1eab0 <g_436+0x70>
    bd2d:	48 89 85 a8 d4 ff ff 	mov    %rax,-0x2b58(%rbp)
    bd34:	48 8d 85 a8 d4 ff ff 	lea    -0x2b58(%rbp),%rax
    bd3b:	48 89 85 b0 d4 ff ff 	mov    %rax,-0x2b50(%rbp)
    bd42:	48 8d 85 b0 d4 ff ff 	lea    -0x2b50(%rbp),%rax
    bd49:	48 89 85 f0 d5 ff ff 	mov    %rax,-0x2a10(%rbp)
    bd50:	c7 85 90 df ff ff f7 	movl   $0xdc5591f7,-0x2070(%rbp)
    bd57:	91 55 dc 
    bd5a:	c7 85 94 df ff ff f7 	movl   $0xdc5591f7,-0x206c(%rbp)
    bd61:	91 55 dc 
    bd64:	c7 85 98 df ff ff f7 	movl   $0xdc5591f7,-0x2068(%rbp)
    bd6b:	91 55 dc 
    bd6e:	c7 85 9c df ff ff f7 	movl   $0xdc5591f7,-0x2064(%rbp)
    bd75:	91 55 dc 
    bd78:	c7 85 a0 df ff ff f7 	movl   $0xdc5591f7,-0x2060(%rbp)
    bd7f:	91 55 dc 
    bd82:	c7 85 a4 df ff ff f7 	movl   $0xdc5591f7,-0x205c(%rbp)
    bd89:	91 55 dc 
    bd8c:	c7 85 a8 df ff ff f7 	movl   $0xdc5591f7,-0x2058(%rbp)
    bd93:	91 55 dc 
    bd96:	c7 85 ac df ff ff f7 	movl   $0xdc5591f7,-0x2054(%rbp)
    bd9d:	91 55 dc 
    bda0:	c7 85 b0 df ff ff f7 	movl   $0xdc5591f7,-0x2050(%rbp)
    bda7:	91 55 dc 
    bdaa:	c7 85 ec d3 ff ff 00 	movl   $0x0,-0x2c14(%rbp)
    bdb1:	00 00 00 
    bdb4:	eb 21                	jmp    bdd7 <func_50+0x1922>
    bdb6:	8b 85 ec d3 ff ff    	mov    -0x2c14(%rbp),%eax
    bdbc:	48 98                	cltq   
    bdbe:	48 bb 2d be bb 61 5a 	movabs $0xc31a055a61bbbe2d,%rbx
    bdc5:	05 1a c3 
    bdc8:	48 89 9c c5 b0 eb ff 	mov    %rbx,-0x1450(%rbp,%rax,8)
    bdcf:	ff 
    bdd0:	83 85 ec d3 ff ff 01 	addl   $0x1,-0x2c14(%rbp)
    bdd7:	83 bd ec d3 ff ff 04 	cmpl   $0x4,-0x2c14(%rbp)
    bdde:	7e d6                	jle    bdb6 <func_50+0x1901>
    bde0:	48 c7 05 75 3a 01 00 	movq   $0x1,0x13a75(%rip)        # 1f860 <g_375>
    bde7:	01 00 00 00 
    bdeb:	e9 d2 00 00 00       	jmpq   bec2 <func_50+0x1a0d>
    bdf0:	48 8d 05 4b 13 01 00 	lea    0x1134b(%rip),%rax        # 1d142 <g_1157>
    bdf7:	48 89 85 f8 d5 ff ff 	mov    %rax,-0x2a08(%rbp)
    bdfe:	48 8d 05 3b 13 01 00 	lea    0x1133b(%rip),%rax        # 1d140 <g_1109>
    be05:	48 89 85 00 d6 ff ff 	mov    %rax,-0x2a00(%rbp)
    be0c:	48 8b 05 c5 2c 01 00 	mov    0x12cc5(%rip),%rax        # 1ead8 <g_449>
    be13:	8b 08                	mov    (%rax),%ecx
    be15:	0f b6 05 a0 12 01 00 	movzbl 0x112a0(%rip),%eax        # 1d0bc <g_293>
    be1c:	0f b6 c0             	movzbl %al,%eax
    be1f:	83 c0 06             	add    $0x6,%eax
    be22:	48 98                	cltq   
    be24:	48 8d 14 00          	lea    (%rax,%rax,1),%rdx
    be28:	48 8d 05 01 13 01 00 	lea    0x11301(%rip),%rax        # 1d130 <g_1107>
    be2f:	0f b7 04 02          	movzwl (%rdx,%rax,1),%eax
    be33:	0f bf d0             	movswl %ax,%edx
    be36:	48 8b 05 9b 2c 01 00 	mov    0x12c9b(%rip),%rax        # 1ead8 <g_449>
    be3d:	31 ca                	xor    %ecx,%edx
    be3f:	89 10                	mov    %edx,(%rax)
    be41:	48 8b 85 f8 d5 ff ff 	mov    -0x2a08(%rbp),%rax
    be48:	0f b7 00             	movzwl (%rax),%eax
    be4b:	8d 48 01             	lea    0x1(%rax),%ecx
    be4e:	48 8b 95 f8 d5 ff ff 	mov    -0x2a08(%rbp),%rdx
    be55:	66 89 0a             	mov    %cx,(%rdx)
    be58:	48 8b 95 00 d6 ff ff 	mov    -0x2a00(%rbp),%rdx
    be5f:	66 89 02             	mov    %ax,(%rdx)
    be62:	48 8b 85 00 d6 ff ff 	mov    -0x2a00(%rbp),%rax
    be69:	0f b7 00             	movzwl (%rax),%eax
    be6c:	0f b7 c0             	movzwl %ax,%eax
    be6f:	39 85 4c d3 ff ff    	cmp    %eax,-0x2cb4(%rbp)
    be75:	0f 95 c0             	setne  %al
    be78:	0f b6 c8             	movzbl %al,%ecx
    be7b:	48 8b 05 ce 2d 01 00 	mov    0x12dce(%rip),%rax        # 1ec50 <g_525>
    be82:	8b 10                	mov    (%rax),%edx
    be84:	48 8b 05 c5 2d 01 00 	mov    0x12dc5(%rip),%rax        # 1ec50 <g_525>
    be8b:	21 ca                	and    %ecx,%edx
    be8d:	89 10                	mov    %edx,(%rax)
    be8f:	48 8b 05 ba 2d 01 00 	mov    0x12dba(%rip),%rax        # 1ec50 <g_525>
    be96:	8b 95 48 d3 ff ff    	mov    -0x2cb8(%rbp),%edx
    be9c:	89 10                	mov    %edx,(%rax)
    be9e:	8b 08                	mov    (%rax),%ecx
    bea0:	48 8d 05 31 2c 01 00 	lea    0x12c31(%rip),%rax        # 1ead8 <g_449>
    bea7:	48 8b 00             	mov    (%rax),%rax
    beaa:	8b 10                	mov    (%rax),%edx
    beac:	31 ca                	xor    %ecx,%edx
    beae:	89 10                	mov    %edx,(%rax)
    beb0:	48 8b 05 a9 39 01 00 	mov    0x139a9(%rip),%rax        # 1f860 <g_375>
    beb7:	48 83 e8 01          	sub    $0x1,%rax
    bebb:	48 89 05 9e 39 01 00 	mov    %rax,0x1399e(%rip)        # 1f860 <g_375>
    bec2:	48 8b 05 97 39 01 00 	mov    0x13997(%rip),%rax        # 1f860 <g_375>
    bec9:	48 85 c0             	test   %rax,%rax
    becc:	0f 89 1e ff ff ff    	jns    bdf0 <func_50+0x193b>
    bed2:	83 bd 48 d3 ff ff 00 	cmpl   $0x0,-0x2cb8(%rbp)
    bed9:	0f 84 44 0e 00 00    	je     cd23 <func_50+0x286e>
    bedf:	c7 85 14 d4 ff ff 7a 	movl   $0xdc96e87a,-0x2bec(%rbp)
    bee6:	e8 96 dc 
    bee9:	48 8d 05 30 12 01 00 	lea    0x11230(%rip),%rax        # 1d120 <g_929>
    bef0:	48 89 85 30 f0 ff ff 	mov    %rax,-0xfd0(%rbp)
    bef7:	48 8d 85 90 df ff ff 	lea    -0x2070(%rbp),%rax
    befe:	48 83 c0 18          	add    $0x18,%rax
    bf02:	48 89 85 38 f0 ff ff 	mov    %rax,-0xfc8(%rbp)
    bf09:	48 8d 05 10 12 01 00 	lea    0x11210(%rip),%rax        # 1d120 <g_929>
    bf10:	48 89 85 40 f0 ff ff 	mov    %rax,-0xfc0(%rbp)
    bf17:	48 8d 85 90 df ff ff 	lea    -0x2070(%rbp),%rax
    bf1e:	48 83 c0 04          	add    $0x4,%rax
    bf22:	48 89 85 48 f0 ff ff 	mov    %rax,-0xfb8(%rbp)
    bf29:	48 8d 85 90 d3 ff ff 	lea    -0x2c70(%rbp),%rax
    bf30:	48 89 85 50 f0 ff ff 	mov    %rax,-0xfb0(%rbp)
    bf37:	48 8d 85 90 d3 ff ff 	lea    -0x2c70(%rbp),%rax
    bf3e:	48 89 85 58 f0 ff ff 	mov    %rax,-0xfa8(%rbp)
    bf45:	48 8d 85 94 d3 ff ff 	lea    -0x2c6c(%rbp),%rax
    bf4c:	48 89 85 60 f0 ff ff 	mov    %rax,-0xfa0(%rbp)
    bf53:	48 8d 05 02 39 01 00 	lea    0x13902(%rip),%rax        # 1f85c <g_320>
    bf5a:	48 89 85 68 f0 ff ff 	mov    %rax,-0xf98(%rbp)
    bf61:	48 c7 85 70 f0 ff ff 	movq   $0x0,-0xf90(%rbp)
    bf68:	00 00 00 00 
    bf6c:	48 8d 05 e9 38 01 00 	lea    0x138e9(%rip),%rax        # 1f85c <g_320>
    bf73:	48 89 85 78 f0 ff ff 	mov    %rax,-0xf88(%rbp)
    bf7a:	48 c7 85 80 f0 ff ff 	movq   $0x0,-0xf80(%rbp)
    bf81:	00 00 00 00 
    bf85:	48 8d 85 94 d3 ff ff 	lea    -0x2c6c(%rbp),%rax
    bf8c:	48 89 85 88 f0 ff ff 	mov    %rax,-0xf78(%rbp)
    bf93:	48 c7 85 90 f0 ff ff 	movq   $0x0,-0xf70(%rbp)
    bf9a:	00 00 00 00 
    bf9e:	48 8d 05 b7 38 01 00 	lea    0x138b7(%rip),%rax        # 1f85c <g_320>
    bfa5:	48 89 85 98 f0 ff ff 	mov    %rax,-0xf68(%rbp)
    bfac:	48 8d 85 90 d3 ff ff 	lea    -0x2c70(%rbp),%rax
    bfb3:	48 89 85 a0 f0 ff ff 	mov    %rax,-0xf60(%rbp)
    bfba:	48 8d 05 c3 10 01 00 	lea    0x110c3(%rip),%rax        # 1d084 <g_77+0x44>
    bfc1:	48 89 85 a8 f0 ff ff 	mov    %rax,-0xf58(%rbp)
    bfc8:	48 c7 85 b0 f0 ff ff 	movq   $0x0,-0xf50(%rbp)
    bfcf:	00 00 00 00 
    bfd3:	48 8d 85 94 d3 ff ff 	lea    -0x2c6c(%rbp),%rax
    bfda:	48 89 85 b8 f0 ff ff 	mov    %rax,-0xf48(%rbp)
    bfe1:	48 8d 85 94 d3 ff ff 	lea    -0x2c6c(%rbp),%rax
    bfe8:	48 89 85 c0 f0 ff ff 	mov    %rax,-0xf40(%rbp)
    bfef:	48 8d 05 2a 11 01 00 	lea    0x1112a(%rip),%rax        # 1d120 <g_929>
    bff6:	48 89 85 c8 f0 ff ff 	mov    %rax,-0xf38(%rbp)
    bffd:	48 8d 85 90 d3 ff ff 	lea    -0x2c70(%rbp),%rax
    c004:	48 89 85 d0 f0 ff ff 	mov    %rax,-0xf30(%rbp)
    c00b:	48 8d 85 94 d3 ff ff 	lea    -0x2c6c(%rbp),%rax
    c012:	48 89 85 d8 f0 ff ff 	mov    %rax,-0xf28(%rbp)
    c019:	48 8d 05 64 10 01 00 	lea    0x11064(%rip),%rax        # 1d084 <g_77+0x44>
    c020:	48 89 85 e0 f0 ff ff 	mov    %rax,-0xf20(%rbp)
    c027:	48 8d 05 76 10 01 00 	lea    0x11076(%rip),%rax        # 1d0a4 <g_109>
    c02e:	48 89 85 e8 f0 ff ff 	mov    %rax,-0xf18(%rbp)
    c035:	48 8d 05 e4 10 01 00 	lea    0x110e4(%rip),%rax        # 1d120 <g_929>
    c03c:	48 89 85 f0 f0 ff ff 	mov    %rax,-0xf10(%rbp)
    c043:	48 c7 85 f8 f0 ff ff 	movq   $0x0,-0xf08(%rbp)
    c04a:	00 00 00 00 
    c04e:	48 c7 85 00 f1 ff ff 	movq   $0x0,-0xf00(%rbp)
    c055:	00 00 00 00 
    c059:	48 8d 85 94 d3 ff ff 	lea    -0x2c6c(%rbp),%rax
    c060:	48 89 85 08 f1 ff ff 	mov    %rax,-0xef8(%rbp)
    c067:	48 8d 85 94 d3 ff ff 	lea    -0x2c6c(%rbp),%rax
    c06e:	48 89 85 10 f1 ff ff 	mov    %rax,-0xef0(%rbp)
    c075:	48 c7 85 18 f1 ff ff 	movq   $0x0,-0xee8(%rbp)
    c07c:	00 00 00 00 
    c080:	48 c7 85 20 f1 ff ff 	movq   $0x0,-0xee0(%rbp)
    c087:	00 00 00 00 
    c08b:	48 8d 05 8e 10 01 00 	lea    0x1108e(%rip),%rax        # 1d120 <g_929>
    c092:	48 89 85 28 f1 ff ff 	mov    %rax,-0xed8(%rbp)
    c099:	48 8d 05 bc 37 01 00 	lea    0x137bc(%rip),%rax        # 1f85c <g_320>
    c0a0:	48 89 85 30 f1 ff ff 	mov    %rax,-0xed0(%rbp)
    c0a7:	48 8d 05 b2 0f 01 00 	lea    0x10fb2(%rip),%rax        # 1d060 <g_77+0x20>
    c0ae:	48 89 85 38 f1 ff ff 	mov    %rax,-0xec8(%rbp)
    c0b5:	48 8d 05 a0 37 01 00 	lea    0x137a0(%rip),%rax        # 1f85c <g_320>
    c0bc:	48 89 85 40 f1 ff ff 	mov    %rax,-0xec0(%rbp)
    c0c3:	48 8d 85 94 d3 ff ff 	lea    -0x2c6c(%rbp),%rax
    c0ca:	48 89 85 48 f1 ff ff 	mov    %rax,-0xeb8(%rbp)
    c0d1:	48 8d 85 90 df ff ff 	lea    -0x2070(%rbp),%rax
    c0d8:	48 83 c0 04          	add    $0x4,%rax
    c0dc:	48 89 85 50 f1 ff ff 	mov    %rax,-0xeb0(%rbp)
    c0e3:	48 8d 05 76 0f 01 00 	lea    0x10f76(%rip),%rax        # 1d060 <g_77+0x20>
    c0ea:	48 89 85 58 f1 ff ff 	mov    %rax,-0xea8(%rbp)
    c0f1:	48 8d 05 ac 0f 01 00 	lea    0x10fac(%rip),%rax        # 1d0a4 <g_109>
    c0f8:	48 89 85 60 f1 ff ff 	mov    %rax,-0xea0(%rbp)
    c0ff:	48 c7 85 68 f1 ff ff 	movq   $0x0,-0xe98(%rbp)
    c106:	00 00 00 00 
    c10a:	48 8d 05 4b 37 01 00 	lea    0x1374b(%rip),%rax        # 1f85c <g_320>
    c111:	48 89 85 70 f1 ff ff 	mov    %rax,-0xe90(%rbp)
    c118:	48 8d 85 90 df ff ff 	lea    -0x2070(%rbp),%rax
    c11f:	48 83 c0 20          	add    $0x20,%rax
    c123:	48 89 85 78 f1 ff ff 	mov    %rax,-0xe88(%rbp)
    c12a:	48 c7 85 80 f1 ff ff 	movq   $0x0,-0xe80(%rbp)
    c131:	00 00 00 00 
    c135:	48 8d 85 90 d3 ff ff 	lea    -0x2c70(%rbp),%rax
    c13c:	48 89 85 88 f1 ff ff 	mov    %rax,-0xe78(%rbp)
    c143:	48 8d 85 94 d3 ff ff 	lea    -0x2c6c(%rbp),%rax
    c14a:	48 89 85 90 f1 ff ff 	mov    %rax,-0xe70(%rbp)
    c151:	48 8d 05 08 0f 01 00 	lea    0x10f08(%rip),%rax        # 1d060 <g_77+0x20>
    c158:	48 89 85 98 f1 ff ff 	mov    %rax,-0xe68(%rbp)
    c15f:	48 8d 05 ba 0f 01 00 	lea    0x10fba(%rip),%rax        # 1d120 <g_929>
    c166:	48 89 85 a0 f1 ff ff 	mov    %rax,-0xe60(%rbp)
    c16d:	48 8d 85 94 d3 ff ff 	lea    -0x2c6c(%rbp),%rax
    c174:	48 89 85 a8 f1 ff ff 	mov    %rax,-0xe58(%rbp)
    c17b:	48 8d 05 22 0f 01 00 	lea    0x10f22(%rip),%rax        # 1d0a4 <g_109>
    c182:	48 89 85 b0 f1 ff ff 	mov    %rax,-0xe50(%rbp)
    c189:	48 8d 05 d0 0e 01 00 	lea    0x10ed0(%rip),%rax        # 1d060 <g_77+0x20>
    c190:	48 89 85 b8 f1 ff ff 	mov    %rax,-0xe48(%rbp)
    c197:	48 c7 85 c0 f1 ff ff 	movq   $0x0,-0xe40(%rbp)
    c19e:	00 00 00 00 
    c1a2:	48 8d 05 db 0e 01 00 	lea    0x10edb(%rip),%rax        # 1d084 <g_77+0x44>
    c1a9:	48 89 85 c8 f1 ff ff 	mov    %rax,-0xe38(%rbp)
    c1b0:	48 8d 05 cd 0e 01 00 	lea    0x10ecd(%rip),%rax        # 1d084 <g_77+0x44>
    c1b7:	48 89 85 d0 f1 ff ff 	mov    %rax,-0xe30(%rbp)
    c1be:	48 c7 85 d8 f1 ff ff 	movq   $0x0,-0xe28(%rbp)
    c1c5:	00 00 00 00 
    c1c9:	48 8d 05 8c 36 01 00 	lea    0x1368c(%rip),%rax        # 1f85c <g_320>
    c1d0:	48 89 85 e0 f1 ff ff 	mov    %rax,-0xe20(%rbp)
    c1d7:	48 c7 85 e8 f1 ff ff 	movq   $0x0,-0xe18(%rbp)
    c1de:	00 00 00 00 
    c1e2:	48 8d 85 94 d3 ff ff 	lea    -0x2c6c(%rbp),%rax
    c1e9:	48 89 85 f0 f1 ff ff 	mov    %rax,-0xe10(%rbp)
    c1f0:	48 c7 85 f8 f1 ff ff 	movq   $0x0,-0xe08(%rbp)
    c1f7:	00 00 00 00 
    c1fb:	48 8d 05 82 0e 01 00 	lea    0x10e82(%rip),%rax        # 1d084 <g_77+0x44>
    c202:	48 89 85 00 f2 ff ff 	mov    %rax,-0xe00(%rbp)
    c209:	48 c7 85 08 f2 ff ff 	movq   $0x0,-0xdf8(%rbp)
    c210:	00 00 00 00 
    c214:	48 8d 85 94 d3 ff ff 	lea    -0x2c6c(%rbp),%rax
    c21b:	48 89 85 10 f2 ff ff 	mov    %rax,-0xdf0(%rbp)
    c222:	48 c7 85 18 f2 ff ff 	movq   $0x0,-0xde8(%rbp)
    c229:	00 00 00 00 
    c22d:	48 8d 05 28 36 01 00 	lea    0x13628(%rip),%rax        # 1f85c <g_320>
    c234:	48 89 85 20 f2 ff ff 	mov    %rax,-0xde0(%rbp)
    c23b:	48 c7 85 28 f2 ff ff 	movq   $0x0,-0xdd8(%rbp)
    c242:	00 00 00 00 
    c246:	48 8d 05 57 0e 01 00 	lea    0x10e57(%rip),%rax        # 1d0a4 <g_109>
    c24d:	48 89 85 30 f2 ff ff 	mov    %rax,-0xdd0(%rbp)
    c254:	48 8d 05 01 36 01 00 	lea    0x13601(%rip),%rax        # 1f85c <g_320>
    c25b:	48 89 85 38 f2 ff ff 	mov    %rax,-0xdc8(%rbp)
    c262:	48 8d 85 90 d3 ff ff 	lea    -0x2c70(%rbp),%rax
    c269:	48 89 85 40 f2 ff ff 	mov    %rax,-0xdc0(%rbp)
    c270:	48 8d 85 94 d3 ff ff 	lea    -0x2c6c(%rbp),%rax
    c277:	48 89 85 48 f2 ff ff 	mov    %rax,-0xdb8(%rbp)
    c27e:	48 8d 85 90 df ff ff 	lea    -0x2070(%rbp),%rax
    c285:	48 83 c0 18          	add    $0x18,%rax
    c289:	48 89 85 50 f2 ff ff 	mov    %rax,-0xdb0(%rbp)
    c290:	48 8d 05 c5 35 01 00 	lea    0x135c5(%rip),%rax        # 1f85c <g_320>
    c297:	48 89 85 58 f2 ff ff 	mov    %rax,-0xda8(%rbp)
    c29e:	48 8d 05 df 0d 01 00 	lea    0x10ddf(%rip),%rax        # 1d084 <g_77+0x44>
    c2a5:	48 89 85 60 f2 ff ff 	mov    %rax,-0xda0(%rbp)
    c2ac:	48 8d 85 90 d3 ff ff 	lea    -0x2c70(%rbp),%rax
    c2b3:	48 89 85 68 f2 ff ff 	mov    %rax,-0xd98(%rbp)
    c2ba:	48 8d 85 94 d3 ff ff 	lea    -0x2c6c(%rbp),%rax
    c2c1:	48 89 85 70 f2 ff ff 	mov    %rax,-0xd90(%rbp)
    c2c8:	48 8d 05 b5 0d 01 00 	lea    0x10db5(%rip),%rax        # 1d084 <g_77+0x44>
    c2cf:	48 89 85 78 f2 ff ff 	mov    %rax,-0xd88(%rbp)
    c2d6:	48 8d 85 90 d3 ff ff 	lea    -0x2c70(%rbp),%rax
    c2dd:	48 89 85 80 f2 ff ff 	mov    %rax,-0xd80(%rbp)
    c2e4:	48 8d 05 b9 0d 01 00 	lea    0x10db9(%rip),%rax        # 1d0a4 <g_109>
    c2eb:	48 89 85 88 f2 ff ff 	mov    %rax,-0xd78(%rbp)
    c2f2:	48 8d 85 90 d3 ff ff 	lea    -0x2c70(%rbp),%rax
    c2f9:	48 89 85 90 f2 ff ff 	mov    %rax,-0xd70(%rbp)
    c300:	48 8d 05 61 0d 01 00 	lea    0x10d61(%rip),%rax        # 1d068 <g_77+0x28>
    c307:	48 89 85 98 f2 ff ff 	mov    %rax,-0xd68(%rbp)
    c30e:	48 8d 05 47 35 01 00 	lea    0x13547(%rip),%rax        # 1f85c <g_320>
    c315:	48 89 85 a0 f2 ff ff 	mov    %rax,-0xd60(%rbp)
    c31c:	48 8d 85 94 d3 ff ff 	lea    -0x2c6c(%rbp),%rax
    c323:	48 89 85 a8 f2 ff ff 	mov    %rax,-0xd58(%rbp)
    c32a:	48 8d 85 90 df ff ff 	lea    -0x2070(%rbp),%rax
    c331:	48 83 c0 18          	add    $0x18,%rax
    c335:	48 89 85 b0 f2 ff ff 	mov    %rax,-0xd50(%rbp)
    c33c:	48 8d 05 19 35 01 00 	lea    0x13519(%rip),%rax        # 1f85c <g_320>
    c343:	48 89 85 b8 f2 ff ff 	mov    %rax,-0xd48(%rbp)
    c34a:	48 8d 05 0f 0d 01 00 	lea    0x10d0f(%rip),%rax        # 1d060 <g_77+0x20>
    c351:	48 89 85 c0 f2 ff ff 	mov    %rax,-0xd40(%rbp)
    c358:	48 c7 85 c8 f2 ff ff 	movq   $0x0,-0xd38(%rbp)
    c35f:	00 00 00 00 
    c363:	48 8d 85 90 d3 ff ff 	lea    -0x2c70(%rbp),%rax
    c36a:	48 89 85 d0 f2 ff ff 	mov    %rax,-0xd30(%rbp)
    c371:	48 8d 85 90 d3 ff ff 	lea    -0x2c70(%rbp),%rax
    c378:	48 89 85 d8 f2 ff ff 	mov    %rax,-0xd28(%rbp)
    c37f:	48 c7 85 e0 f2 ff ff 	movq   $0x0,-0xd20(%rbp)
    c386:	00 00 00 00 
    c38a:	48 8d 05 cf 0c 01 00 	lea    0x10ccf(%rip),%rax        # 1d060 <g_77+0x20>
    c391:	48 89 85 e8 f2 ff ff 	mov    %rax,-0xd18(%rbp)
    c398:	48 8d 85 94 d3 ff ff 	lea    -0x2c6c(%rbp),%rax
    c39f:	48 89 85 f0 f2 ff ff 	mov    %rax,-0xd10(%rbp)
    c3a6:	48 8d 85 94 d3 ff ff 	lea    -0x2c6c(%rbp),%rax
    c3ad:	48 89 85 f8 f2 ff ff 	mov    %rax,-0xd08(%rbp)
    c3b4:	48 8d 85 94 d3 ff ff 	lea    -0x2c6c(%rbp),%rax
    c3bb:	48 89 85 00 f3 ff ff 	mov    %rax,-0xd00(%rbp)
    c3c2:	48 8d 05 93 34 01 00 	lea    0x13493(%rip),%rax        # 1f85c <g_320>
    c3c9:	48 89 85 08 f3 ff ff 	mov    %rax,-0xcf8(%rbp)
    c3d0:	48 8d 05 91 0c 01 00 	lea    0x10c91(%rip),%rax        # 1d068 <g_77+0x28>
    c3d7:	48 89 85 10 f3 ff ff 	mov    %rax,-0xcf0(%rbp)
    c3de:	48 8d 85 90 d3 ff ff 	lea    -0x2c70(%rbp),%rax
    c3e5:	48 89 85 18 f3 ff ff 	mov    %rax,-0xce8(%rbp)
    c3ec:	48 8d 05 b1 0c 01 00 	lea    0x10cb1(%rip),%rax        # 1d0a4 <g_109>
    c3f3:	48 89 85 20 f3 ff ff 	mov    %rax,-0xce0(%rbp)
    c3fa:	48 8d 85 90 d3 ff ff 	lea    -0x2c70(%rbp),%rax
    c401:	48 89 85 28 f3 ff ff 	mov    %rax,-0xcd8(%rbp)
    c408:	48 8d 85 94 d3 ff ff 	lea    -0x2c6c(%rbp),%rax
    c40f:	48 89 85 30 f3 ff ff 	mov    %rax,-0xcd0(%rbp)
    c416:	48 c7 85 38 f3 ff ff 	movq   $0x0,-0xcc8(%rbp)
    c41d:	00 00 00 00 
    c421:	48 8d 85 90 d3 ff ff 	lea    -0x2c70(%rbp),%rax
    c428:	48 89 85 40 f3 ff ff 	mov    %rax,-0xcc0(%rbp)
    c42f:	48 8d 05 4e 0c 01 00 	lea    0x10c4e(%rip),%rax        # 1d084 <g_77+0x44>
    c436:	48 89 85 48 f3 ff ff 	mov    %rax,-0xcb8(%rbp)
    c43d:	48 8d 05 18 34 01 00 	lea    0x13418(%rip),%rax        # 1f85c <g_320>
    c444:	48 89 85 50 f3 ff ff 	mov    %rax,-0xcb0(%rbp)
    c44b:	48 8d 85 90 df ff ff 	lea    -0x2070(%rbp),%rax
    c452:	48 83 c0 18          	add    $0x18,%rax
    c456:	48 89 85 58 f3 ff ff 	mov    %rax,-0xca8(%rbp)
    c45d:	48 8d 85 94 d3 ff ff 	lea    -0x2c6c(%rbp),%rax
    c464:	48 89 85 60 f3 ff ff 	mov    %rax,-0xca0(%rbp)
    c46b:	48 8d 85 90 d3 ff ff 	lea    -0x2c70(%rbp),%rax
    c472:	48 89 85 68 f3 ff ff 	mov    %rax,-0xc98(%rbp)
    c479:	48 c7 85 70 f3 ff ff 	movq   $0x0,-0xc90(%rbp)
    c480:	00 00 00 00 
    c484:	48 8d 85 94 d3 ff ff 	lea    -0x2c6c(%rbp),%rax
    c48b:	48 89 85 78 f3 ff ff 	mov    %rax,-0xc88(%rbp)
    c492:	48 c7 85 80 f3 ff ff 	movq   $0x0,-0xc80(%rbp)
    c499:	00 00 00 00 
    c49d:	48 8d 05 b8 33 01 00 	lea    0x133b8(%rip),%rax        # 1f85c <g_320>
    c4a4:	48 89 85 88 f3 ff ff 	mov    %rax,-0xc78(%rbp)
    c4ab:	48 c7 85 90 f3 ff ff 	movq   $0x0,-0xc70(%rbp)
    c4b2:	00 00 00 00 
    c4b6:	48 8d 05 9f 33 01 00 	lea    0x1339f(%rip),%rax        # 1f85c <g_320>
    c4bd:	48 89 85 98 f3 ff ff 	mov    %rax,-0xc68(%rbp)
    c4c4:	48 8d 85 90 d3 ff ff 	lea    -0x2c70(%rbp),%rax
    c4cb:	48 89 85 a0 f3 ff ff 	mov    %rax,-0xc60(%rbp)
    c4d2:	48 8d 05 87 0b 01 00 	lea    0x10b87(%rip),%rax        # 1d060 <g_77+0x20>
    c4d9:	48 89 85 a8 f3 ff ff 	mov    %rax,-0xc58(%rbp)
    c4e0:	48 c7 85 b0 f3 ff ff 	movq   $0x0,-0xc50(%rbp)
    c4e7:	00 00 00 00 
    c4eb:	48 8d 05 6e 0b 01 00 	lea    0x10b6e(%rip),%rax        # 1d060 <g_77+0x20>
    c4f2:	48 89 85 b8 f3 ff ff 	mov    %rax,-0xc48(%rbp)
    c4f9:	48 8d 85 90 df ff ff 	lea    -0x2070(%rbp),%rax
    c500:	48 83 c0 20          	add    $0x20,%rax
    c504:	48 89 85 c0 f3 ff ff 	mov    %rax,-0xc40(%rbp)
    c50b:	48 c7 85 c8 f3 ff ff 	movq   $0x0,-0xc38(%rbp)
    c512:	00 00 00 00 
    c516:	48 8d 85 90 df ff ff 	lea    -0x2070(%rbp),%rax
    c51d:	48 83 c0 20          	add    $0x20,%rax
    c521:	48 89 85 d0 f3 ff ff 	mov    %rax,-0xc30(%rbp)
    c528:	48 8d 05 31 0b 01 00 	lea    0x10b31(%rip),%rax        # 1d060 <g_77+0x20>
    c52f:	48 89 85 d8 f3 ff ff 	mov    %rax,-0xc28(%rbp)
    c536:	48 c7 85 e0 f3 ff ff 	movq   $0x0,-0xc20(%rbp)
    c53d:	00 00 00 00 
    c541:	48 8d 85 94 d3 ff ff 	lea    -0x2c6c(%rbp),%rax
    c548:	48 89 85 e8 f3 ff ff 	mov    %rax,-0xc18(%rbp)
    c54f:	48 c7 85 f0 f3 ff ff 	movq   $0x0,-0xc10(%rbp)
    c556:	00 00 00 00 
    c55a:	48 8d 05 ff 0a 01 00 	lea    0x10aff(%rip),%rax        # 1d060 <g_77+0x20>
    c561:	48 89 85 f8 f3 ff ff 	mov    %rax,-0xc08(%rbp)
    c568:	48 8d 05 ed 32 01 00 	lea    0x132ed(%rip),%rax        # 1f85c <g_320>
    c56f:	48 89 85 00 f4 ff ff 	mov    %rax,-0xc00(%rbp)
    c576:	48 8d 05 27 0b 01 00 	lea    0x10b27(%rip),%rax        # 1d0a4 <g_109>
    c57d:	48 89 85 08 f4 ff ff 	mov    %rax,-0xbf8(%rbp)
    c584:	48 c7 85 10 f4 ff ff 	movq   $0x0,-0xbf0(%rbp)
    c58b:	00 00 00 00 
    c58f:	48 8d 05 8a 0b 01 00 	lea    0x10b8a(%rip),%rax        # 1d120 <g_929>
    c596:	48 89 85 18 f4 ff ff 	mov    %rax,-0xbe8(%rbp)
    c59d:	48 8d 05 7c 0b 01 00 	lea    0x10b7c(%rip),%rax        # 1d120 <g_929>
    c5a4:	48 89 85 20 f4 ff ff 	mov    %rax,-0xbe0(%rbp)
    c5ab:	48 8d 85 90 d3 ff ff 	lea    -0x2c70(%rbp),%rax
    c5b2:	48 89 85 28 f4 ff ff 	mov    %rax,-0xbd8(%rbp)
    c5b9:	48 8d 05 a8 0a 01 00 	lea    0x10aa8(%rip),%rax        # 1d068 <g_77+0x28>
    c5c0:	48 89 85 30 f4 ff ff 	mov    %rax,-0xbd0(%rbp)
    c5c7:	48 8d 05 8e 32 01 00 	lea    0x1328e(%rip),%rax        # 1f85c <g_320>
    c5ce:	48 89 85 38 f4 ff ff 	mov    %rax,-0xbc8(%rbp)
    c5d5:	48 8d 85 94 d3 ff ff 	lea    -0x2c6c(%rbp),%rax
    c5dc:	48 89 85 40 f4 ff ff 	mov    %rax,-0xbc0(%rbp)
    c5e3:	48 8d 85 94 d3 ff ff 	lea    -0x2c6c(%rbp),%rax
    c5ea:	48 89 85 48 f4 ff ff 	mov    %rax,-0xbb8(%rbp)
    c5f1:	48 c7 85 50 f4 ff ff 	movq   $0x0,-0xbb0(%rbp)
    c5f8:	00 00 00 00 
    c5fc:	48 8d 85 94 d3 ff ff 	lea    -0x2c6c(%rbp),%rax
    c603:	48 89 85 58 f4 ff ff 	mov    %rax,-0xba8(%rbp)
    c60a:	48 8d 05 0f 0b 01 00 	lea    0x10b0f(%rip),%rax        # 1d120 <g_929>
    c611:	48 89 85 60 f4 ff ff 	mov    %rax,-0xba0(%rbp)
    c618:	48 c7 85 68 f4 ff ff 	movq   $0x0,-0xb98(%rbp)
    c61f:	00 00 00 00 
    c623:	48 c7 85 70 f4 ff ff 	movq   $0x0,-0xb90(%rbp)
    c62a:	00 00 00 00 
    c62e:	48 8d 05 eb 0a 01 00 	lea    0x10aeb(%rip),%rax        # 1d120 <g_929>
    c635:	48 89 85 78 f4 ff ff 	mov    %rax,-0xb88(%rbp)
    c63c:	48 8d 85 94 d3 ff ff 	lea    -0x2c6c(%rbp),%rax
    c643:	48 89 85 80 f4 ff ff 	mov    %rax,-0xb80(%rbp)
    c64a:	48 8d 85 90 d3 ff ff 	lea    -0x2c70(%rbp),%rax
    c651:	48 89 85 88 f4 ff ff 	mov    %rax,-0xb78(%rbp)
    c658:	48 8d 85 90 df ff ff 	lea    -0x2070(%rbp),%rax
    c65f:	48 83 c0 20          	add    $0x20,%rax
    c663:	48 89 85 90 f4 ff ff 	mov    %rax,-0xb70(%rbp)
    c66a:	48 8d 85 94 d3 ff ff 	lea    -0x2c6c(%rbp),%rax
    c671:	48 89 85 98 f4 ff ff 	mov    %rax,-0xb68(%rbp)
    c678:	48 8d 85 94 d3 ff ff 	lea    -0x2c6c(%rbp),%rax
    c67f:	48 89 85 a0 f4 ff ff 	mov    %rax,-0xb60(%rbp)
    c686:	48 8d 85 90 df ff ff 	lea    -0x2070(%rbp),%rax
    c68d:	48 83 c0 20          	add    $0x20,%rax
    c691:	48 89 85 a8 f4 ff ff 	mov    %rax,-0xb58(%rbp)
    c698:	48 c7 85 b0 f4 ff ff 	movq   $0x0,-0xb50(%rbp)
    c69f:	00 00 00 00 
    c6a3:	48 8d 85 94 d3 ff ff 	lea    -0x2c6c(%rbp),%rax
    c6aa:	48 89 85 b8 f4 ff ff 	mov    %rax,-0xb48(%rbp)
    c6b1:	48 8d 85 94 d3 ff ff 	lea    -0x2c6c(%rbp),%rax
    c6b8:	48 89 85 c0 f4 ff ff 	mov    %rax,-0xb40(%rbp)
    c6bf:	48 c7 85 c8 f4 ff ff 	movq   $0x0,-0xb38(%rbp)
    c6c6:	00 00 00 00 
    c6ca:	48 c7 85 d0 f4 ff ff 	movq   $0x0,-0xb30(%rbp)
    c6d1:	00 00 00 00 
    c6d5:	48 8d 05 44 0a 01 00 	lea    0x10a44(%rip),%rax        # 1d120 <g_929>
    c6dc:	48 89 85 d8 f4 ff ff 	mov    %rax,-0xb28(%rbp)
    c6e3:	48 8d 85 90 d3 ff ff 	lea    -0x2c70(%rbp),%rax
    c6ea:	48 89 85 e0 f4 ff ff 	mov    %rax,-0xb20(%rbp)
    c6f1:	48 8d 05 64 31 01 00 	lea    0x13164(%rip),%rax        # 1f85c <g_320>
    c6f8:	48 89 85 e8 f4 ff ff 	mov    %rax,-0xb18(%rbp)
    c6ff:	48 c7 85 f0 f4 ff ff 	movq   $0x0,-0xb10(%rbp)
    c706:	00 00 00 00 
    c70a:	48 8d 85 90 df ff ff 	lea    -0x2070(%rbp),%rax
    c711:	48 83 c0 20          	add    $0x20,%rax
    c715:	48 89 85 f8 f4 ff ff 	mov    %rax,-0xb08(%rbp)
    c71c:	48 c7 85 00 f5 ff ff 	movq   $0x0,-0xb00(%rbp)
    c723:	00 00 00 00 
    c727:	48 8d 05 f2 09 01 00 	lea    0x109f2(%rip),%rax        # 1d120 <g_929>
    c72e:	48 89 85 08 f5 ff ff 	mov    %rax,-0xaf8(%rbp)
    c735:	48 8d 05 20 31 01 00 	lea    0x13120(%rip),%rax        # 1f85c <g_320>
    c73c:	48 89 85 10 f5 ff ff 	mov    %rax,-0xaf0(%rbp)
    c743:	48 8d 85 94 d3 ff ff 	lea    -0x2c6c(%rbp),%rax
    c74a:	48 89 85 18 f5 ff ff 	mov    %rax,-0xae8(%rbp)
    c751:	48 8d 05 08 09 01 00 	lea    0x10908(%rip),%rax        # 1d060 <g_77+0x20>
    c758:	48 89 85 20 f5 ff ff 	mov    %rax,-0xae0(%rbp)
    c75f:	48 8d 85 94 d3 ff ff 	lea    -0x2c6c(%rbp),%rax
    c766:	48 89 85 28 f5 ff ff 	mov    %rax,-0xad8(%rbp)
    c76d:	48 8d 85 94 d3 ff ff 	lea    -0x2c6c(%rbp),%rax
    c774:	48 89 85 30 f5 ff ff 	mov    %rax,-0xad0(%rbp)
    c77b:	48 8d 85 90 df ff ff 	lea    -0x2070(%rbp),%rax
    c782:	48 83 c0 20          	add    $0x20,%rax
    c786:	48 89 85 38 f5 ff ff 	mov    %rax,-0xac8(%rbp)
    c78d:	48 8d 05 f0 08 01 00 	lea    0x108f0(%rip),%rax        # 1d084 <g_77+0x44>
    c794:	48 89 85 40 f5 ff ff 	mov    %rax,-0xac0(%rbp)
    c79b:	48 8d 05 7e 09 01 00 	lea    0x1097e(%rip),%rax        # 1d120 <g_929>
    c7a2:	48 89 85 48 f5 ff ff 	mov    %rax,-0xab8(%rbp)
    c7a9:	48 8d 05 b8 08 01 00 	lea    0x108b8(%rip),%rax        # 1d068 <g_77+0x28>
    c7b0:	48 89 85 50 f5 ff ff 	mov    %rax,-0xab0(%rbp)
    c7b7:	48 8d 05 62 09 01 00 	lea    0x10962(%rip),%rax        # 1d120 <g_929>
    c7be:	48 89 85 58 f5 ff ff 	mov    %rax,-0xaa8(%rbp)
    c7c5:	48 8d 85 94 d3 ff ff 	lea    -0x2c6c(%rbp),%rax
    c7cc:	48 89 85 60 f5 ff ff 	mov    %rax,-0xaa0(%rbp)
    c7d3:	48 8d 85 94 d3 ff ff 	lea    -0x2c6c(%rbp),%rax
    c7da:	48 89 85 68 f5 ff ff 	mov    %rax,-0xa98(%rbp)
    c7e1:	48 8d 85 94 d3 ff ff 	lea    -0x2c6c(%rbp),%rax
    c7e8:	48 89 85 70 f5 ff ff 	mov    %rax,-0xa90(%rbp)
    c7ef:	48 8d 85 94 d3 ff ff 	lea    -0x2c6c(%rbp),%rax
    c7f6:	48 89 85 78 f5 ff ff 	mov    %rax,-0xa88(%rbp)
    c7fd:	48 8d 05 58 30 01 00 	lea    0x13058(%rip),%rax        # 1f85c <g_320>
    c804:	48 89 85 80 f5 ff ff 	mov    %rax,-0xa80(%rbp)
    c80b:	48 8d 85 94 d3 ff ff 	lea    -0x2c6c(%rbp),%rax
    c812:	48 89 85 88 f5 ff ff 	mov    %rax,-0xa78(%rbp)
    c819:	48 8d 85 90 d3 ff ff 	lea    -0x2c70(%rbp),%rax
    c820:	48 89 85 90 f5 ff ff 	mov    %rax,-0xa70(%rbp)
    c827:	48 8d 85 94 d3 ff ff 	lea    -0x2c6c(%rbp),%rax
    c82e:	48 89 85 98 f5 ff ff 	mov    %rax,-0xa68(%rbp)
    c835:	48 8d 05 20 30 01 00 	lea    0x13020(%rip),%rax        # 1f85c <g_320>
    c83c:	48 89 85 a0 f5 ff ff 	mov    %rax,-0xa60(%rbp)
    c843:	48 8d 85 94 d3 ff ff 	lea    -0x2c6c(%rbp),%rax
    c84a:	48 89 85 a8 f5 ff ff 	mov    %rax,-0xa58(%rbp)
    c851:	48 8d 85 90 df ff ff 	lea    -0x2070(%rbp),%rax
    c858:	48 83 c0 18          	add    $0x18,%rax
    c85c:	48 89 85 b0 f5 ff ff 	mov    %rax,-0xa50(%rbp)
    c863:	48 8d 05 b6 08 01 00 	lea    0x108b6(%rip),%rax        # 1d120 <g_929>
    c86a:	48 89 85 b8 f5 ff ff 	mov    %rax,-0xa48(%rbp)
    c871:	48 8d 85 90 df ff ff 	lea    -0x2070(%rbp),%rax
    c878:	48 83 c0 04          	add    $0x4,%rax
    c87c:	48 89 85 c0 f5 ff ff 	mov    %rax,-0xa40(%rbp)
    c883:	48 8d 85 90 d3 ff ff 	lea    -0x2c70(%rbp),%rax
    c88a:	48 89 85 c8 f5 ff ff 	mov    %rax,-0xa38(%rbp)
    c891:	48 8d 85 90 d3 ff ff 	lea    -0x2c70(%rbp),%rax
    c898:	48 89 85 d0 f5 ff ff 	mov    %rax,-0xa30(%rbp)
    c89f:	48 8d 85 94 d3 ff ff 	lea    -0x2c6c(%rbp),%rax
    c8a6:	48 89 85 d8 f5 ff ff 	mov    %rax,-0xa28(%rbp)
    c8ad:	48 8d 05 a8 2f 01 00 	lea    0x12fa8(%rip),%rax        # 1f85c <g_320>
    c8b4:	48 89 85 e0 f5 ff ff 	mov    %rax,-0xa20(%rbp)
    c8bb:	48 c7 85 e8 f5 ff ff 	movq   $0x0,-0xa18(%rbp)
    c8c2:	00 00 00 00 
    c8c6:	48 8d 85 94 d3 ff ff 	lea    -0x2c6c(%rbp),%rax
    c8cd:	48 89 85 f0 f5 ff ff 	mov    %rax,-0xa10(%rbp)
    c8d4:	48 8d 05 81 2f 01 00 	lea    0x12f81(%rip),%rax        # 1f85c <g_320>
    c8db:	48 89 85 f8 f5 ff ff 	mov    %rax,-0xa08(%rbp)
    c8e2:	48 8d 05 37 08 01 00 	lea    0x10837(%rip),%rax        # 1d120 <g_929>
    c8e9:	48 89 85 00 f6 ff ff 	mov    %rax,-0xa00(%rbp)
    c8f0:	48 8d 05 69 07 01 00 	lea    0x10769(%rip),%rax        # 1d060 <g_77+0x20>
    c8f7:	48 89 85 08 f6 ff ff 	mov    %rax,-0x9f8(%rbp)
    c8fe:	48 8d 85 90 df ff ff 	lea    -0x2070(%rbp),%rax
    c905:	48 83 c0 18          	add    $0x18,%rax
    c909:	48 89 85 10 f6 ff ff 	mov    %rax,-0x9f0(%rbp)
    c910:	48 8d 05 09 08 01 00 	lea    0x10809(%rip),%rax        # 1d120 <g_929>
    c917:	48 89 85 18 f6 ff ff 	mov    %rax,-0x9e8(%rbp)
    c91e:	48 8d 05 37 2f 01 00 	lea    0x12f37(%rip),%rax        # 1f85c <g_320>
    c925:	48 89 85 20 f6 ff ff 	mov    %rax,-0x9e0(%rbp)
    c92c:	48 8d 05 51 07 01 00 	lea    0x10751(%rip),%rax        # 1d084 <g_77+0x44>
    c933:	48 89 85 28 f6 ff ff 	mov    %rax,-0x9d8(%rbp)
    c93a:	48 8d 05 63 07 01 00 	lea    0x10763(%rip),%rax        # 1d0a4 <g_109>
    c941:	48 89 85 30 f6 ff ff 	mov    %rax,-0x9d0(%rbp)
    c948:	48 8d 05 11 07 01 00 	lea    0x10711(%rip),%rax        # 1d060 <g_77+0x20>
    c94f:	48 89 85 38 f6 ff ff 	mov    %rax,-0x9c8(%rbp)
    c956:	48 8d 85 90 df ff ff 	lea    -0x2070(%rbp),%rax
    c95d:	48 83 c0 04          	add    $0x4,%rax
    c961:	48 89 85 40 f6 ff ff 	mov    %rax,-0x9c0(%rbp)
    c968:	48 8d 85 94 d3 ff ff 	lea    -0x2c6c(%rbp),%rax
    c96f:	48 89 85 48 f6 ff ff 	mov    %rax,-0x9b8(%rbp)
    c976:	48 8d 05 df 2e 01 00 	lea    0x12edf(%rip),%rax        # 1f85c <g_320>
    c97d:	48 89 85 50 f6 ff ff 	mov    %rax,-0x9b0(%rbp)
    c984:	48 8d 05 d5 06 01 00 	lea    0x106d5(%rip),%rax        # 1d060 <g_77+0x20>
    c98b:	48 89 85 58 f6 ff ff 	mov    %rax,-0x9a8(%rbp)
    c992:	48 8d 05 c3 2e 01 00 	lea    0x12ec3(%rip),%rax        # 1f85c <g_320>
    c999:	48 89 85 60 f6 ff ff 	mov    %rax,-0x9a0(%rbp)
    c9a0:	48 8d 05 b5 2e 01 00 	lea    0x12eb5(%rip),%rax        # 1f85c <g_320>
    c9a7:	48 89 85 68 f6 ff ff 	mov    %rax,-0x998(%rbp)
    c9ae:	48 8d 05 a7 2e 01 00 	lea    0x12ea7(%rip),%rax        # 1f85c <g_320>
    c9b5:	48 89 85 70 f6 ff ff 	mov    %rax,-0x990(%rbp)
    c9bc:	48 8d 05 9d 06 01 00 	lea    0x1069d(%rip),%rax        # 1d060 <g_77+0x20>
    c9c3:	48 89 85 78 f6 ff ff 	mov    %rax,-0x988(%rbp)
    c9ca:	48 8d 05 8b 2e 01 00 	lea    0x12e8b(%rip),%rax        # 1f85c <g_320>
    c9d1:	48 89 85 80 f6 ff ff 	mov    %rax,-0x980(%rbp)
    c9d8:	48 8d 05 7d 2e 01 00 	lea    0x12e7d(%rip),%rax        # 1f85c <g_320>
    c9df:	48 89 85 88 f6 ff ff 	mov    %rax,-0x978(%rbp)
    c9e6:	48 8d 05 73 06 01 00 	lea    0x10673(%rip),%rax        # 1d060 <g_77+0x20>
    c9ed:	48 89 85 90 f6 ff ff 	mov    %rax,-0x970(%rbp)
    c9f4:	48 8d 05 61 2e 01 00 	lea    0x12e61(%rip),%rax        # 1f85c <g_320>
    c9fb:	48 89 85 98 f6 ff ff 	mov    %rax,-0x968(%rbp)
    ca02:	48 8d 85 94 d3 ff ff 	lea    -0x2c6c(%rbp),%rax
    ca09:	48 89 85 a0 f6 ff ff 	mov    %rax,-0x960(%rbp)
    ca10:	48 8d 85 90 df ff ff 	lea    -0x2070(%rbp),%rax
    ca17:	48 83 c0 04          	add    $0x4,%rax
    ca1b:	48 89 85 a8 f6 ff ff 	mov    %rax,-0x958(%rbp)
    ca22:	48 8d 85 94 d3 ff ff 	lea    -0x2c6c(%rbp),%rax
    ca29:	48 89 85 b0 f6 ff ff 	mov    %rax,-0x950(%rbp)
    ca30:	48 8d 85 94 d3 ff ff 	lea    -0x2c6c(%rbp),%rax
    ca37:	48 89 85 b8 f6 ff ff 	mov    %rax,-0x948(%rbp)
    ca3e:	48 8d 05 3f 06 01 00 	lea    0x1063f(%rip),%rax        # 1d084 <g_77+0x44>
    ca45:	48 89 85 c0 f6 ff ff 	mov    %rax,-0x940(%rbp)
    ca4c:	48 8d 05 09 2e 01 00 	lea    0x12e09(%rip),%rax        # 1f85c <g_320>
    ca53:	48 89 85 c8 f6 ff ff 	mov    %rax,-0x938(%rbp)
    ca5a:	48 8d 05 bf 06 01 00 	lea    0x106bf(%rip),%rax        # 1d120 <g_929>
    ca61:	48 89 85 d0 f6 ff ff 	mov    %rax,-0x930(%rbp)
    ca68:	48 8d 85 90 df ff ff 	lea    -0x2070(%rbp),%rax
    ca6f:	48 83 c0 18          	add    $0x18,%rax
    ca73:	48 89 85 d8 f6 ff ff 	mov    %rax,-0x928(%rbp)
    ca7a:	48 8d 05 df 05 01 00 	lea    0x105df(%rip),%rax        # 1d060 <g_77+0x20>
    ca81:	48 89 85 e0 f6 ff ff 	mov    %rax,-0x920(%rbp)
    ca88:	48 8d 05 91 06 01 00 	lea    0x10691(%rip),%rax        # 1d120 <g_929>
    ca8f:	48 89 85 e8 f6 ff ff 	mov    %rax,-0x918(%rbp)
    ca96:	48 8d 05 e7 05 01 00 	lea    0x105e7(%rip),%rax        # 1d084 <g_77+0x44>
    ca9d:	48 89 85 f0 f6 ff ff 	mov    %rax,-0x910(%rbp)
    caa4:	48 c7 85 f8 f6 ff ff 	movq   $0x0,-0x908(%rbp)
    caab:	00 00 00 00 
    caaf:	48 c7 85 00 f7 ff ff 	movq   $0x0,-0x900(%rbp)
    cab6:	00 00 00 00 
    caba:	48 8d 05 9b 2d 01 00 	lea    0x12d9b(%rip),%rax        # 1f85c <g_320>
    cac1:	48 89 85 08 f7 ff ff 	mov    %rax,-0x8f8(%rbp)
    cac8:	48 8d 85 94 d3 ff ff 	lea    -0x2c6c(%rbp),%rax
    cacf:	48 89 85 10 f7 ff ff 	mov    %rax,-0x8f0(%rbp)
    cad6:	48 8d 85 90 d3 ff ff 	lea    -0x2c70(%rbp),%rax
    cadd:	48 89 85 18 f7 ff ff 	mov    %rax,-0x8e8(%rbp)
    cae4:	48 8d 85 90 d3 ff ff 	lea    -0x2c70(%rbp),%rax
    caeb:	48 89 85 20 f7 ff ff 	mov    %rax,-0x8e0(%rbp)
    caf2:	48 8d 85 90 df ff ff 	lea    -0x2070(%rbp),%rax
    caf9:	48 83 c0 04          	add    $0x4,%rax
    cafd:	48 89 85 28 f7 ff ff 	mov    %rax,-0x8d8(%rbp)
    cb04:	48 8d 05 15 06 01 00 	lea    0x10615(%rip),%rax        # 1d120 <g_929>
    cb0b:	48 89 85 30 f7 ff ff 	mov    %rax,-0x8d0(%rbp)
    cb12:	48 8d 85 94 d3 ff ff 	lea    -0x2c6c(%rbp),%rax
    cb19:	48 89 85 38 f7 ff ff 	mov    %rax,-0x8c8(%rbp)
    cb20:	48 8d 85 94 d3 ff ff 	lea    -0x2c6c(%rbp),%rax
    cb27:	48 89 85 40 f7 ff ff 	mov    %rax,-0x8c0(%rbp)
    cb2e:	48 8d 05 27 2d 01 00 	lea    0x12d27(%rip),%rax        # 1f85c <g_320>
    cb35:	48 89 85 48 f7 ff ff 	mov    %rax,-0x8b8(%rbp)
    cb3c:	48 8d 85 94 d3 ff ff 	lea    -0x2c6c(%rbp),%rax
    cb43:	48 89 85 50 f7 ff ff 	mov    %rax,-0x8b0(%rbp)
    cb4a:	48 8d 85 90 d3 ff ff 	lea    -0x2c70(%rbp),%rax
    cb51:	48 89 85 58 f7 ff ff 	mov    %rax,-0x8a8(%rbp)
    cb58:	48 8d 85 94 d3 ff ff 	lea    -0x2c6c(%rbp),%rax
    cb5f:	48 89 85 60 f7 ff ff 	mov    %rax,-0x8a0(%rbp)
    cb66:	48 8d 05 ef 2c 01 00 	lea    0x12cef(%rip),%rax        # 1f85c <g_320>
    cb6d:	48 89 85 68 f7 ff ff 	mov    %rax,-0x898(%rbp)
    cb74:	48 8d 85 94 d3 ff ff 	lea    -0x2c6c(%rbp),%rax
    cb7b:	48 89 85 70 f7 ff ff 	mov    %rax,-0x890(%rbp)
    cb82:	48 8d 05 d3 2c 01 00 	lea    0x12cd3(%rip),%rax        # 1f85c <g_320>
    cb89:	48 89 85 78 f7 ff ff 	mov    %rax,-0x888(%rbp)
    cb90:	48 8d 85 94 d3 ff ff 	lea    -0x2c6c(%rbp),%rax
    cb97:	48 89 85 80 f7 ff ff 	mov    %rax,-0x880(%rbp)
    cb9e:	48 8d 85 94 d3 ff ff 	lea    -0x2c6c(%rbp),%rax
    cba5:	48 89 85 88 f7 ff ff 	mov    %rax,-0x878(%rbp)
    cbac:	48 8d 05 6d 05 01 00 	lea    0x1056d(%rip),%rax        # 1d120 <g_929>
    cbb3:	48 89 85 90 f7 ff ff 	mov    %rax,-0x870(%rbp)
    cbba:	48 8d 05 a7 04 01 00 	lea    0x104a7(%rip),%rax        # 1d068 <g_77+0x28>
    cbc1:	48 89 85 98 f7 ff ff 	mov    %rax,-0x868(%rbp)
    cbc8:	48 8d 05 51 05 01 00 	lea    0x10551(%rip),%rax        # 1d120 <g_929>
    cbcf:	48 89 85 a0 f7 ff ff 	mov    %rax,-0x860(%rbp)
    cbd6:	48 8d 05 a7 04 01 00 	lea    0x104a7(%rip),%rax        # 1d084 <g_77+0x44>
    cbdd:	48 89 85 a8 f7 ff ff 	mov    %rax,-0x858(%rbp)
    cbe4:	c7 85 18 d4 ff ff 06 	movl   $0x6,-0x2be8(%rbp)
    cbeb:	00 00 00 
    cbee:	8b 9d 48 d3 ff ff    	mov    -0x2cb8(%rbp),%ebx
    cbf4:	8b 85 4c d3 ff ff    	mov    -0x2cb4(%rbp),%eax
    cbfa:	0f b6 d0             	movzbl %al,%edx
    cbfd:	48 8b 05 a4 21 01 00 	mov    0x121a4(%rip),%rax        # 1eda8 <g_1030>
    cc04:	0f b6 00             	movzbl (%rax),%eax
    cc07:	0f b6 c0             	movzbl %al,%eax
    cc0a:	89 d6                	mov    %edx,%esi
    cc0c:	89 c7                	mov    %eax,%edi
    cc0e:	e8 47 9f ff ff       	callq  6b5a <safe_add_func_uint8_t_u_u>
    cc13:	48 8b 85 70 d4 ff ff 	mov    -0x2b90(%rbp),%rax
    cc1a:	8b 00                	mov    (%rax),%eax
    cc1c:	89 c2                	mov    %eax,%edx
    cc1e:	8b 05 b0 04 01 00    	mov    0x104b0(%rip),%eax        # 1d0d4 <g_399>
    cc24:	39 c2                	cmp    %eax,%edx
    cc26:	0f 93 c0             	setae  %al
    cc29:	0f b6 c0             	movzbl %al,%eax
    cc2c:	89 c6                	mov    %eax,%esi
    cc2e:	bf 56 f3 ff ff       	mov    $0xfffff356,%edi
    cc33:	e8 bd 97 ff ff       	callq  63f5 <safe_mul_func_int16_t_s_s>
    cc38:	0f be c0             	movsbl %al,%eax
    cc3b:	be 04 00 00 00       	mov    $0x4,%esi
    cc40:	89 c7                	mov    %eax,%edi
    cc42:	e8 ee 96 ff ff       	callq  6335 <safe_rshift_func_int8_t_s_s>
    cc47:	48 8b 95 80 d5 ff ff 	mov    -0x2a80(%rbp),%rdx
    cc4e:	88 02                	mov    %al,(%rdx)
    cc50:	48 8b 85 80 d5 ff ff 	mov    -0x2a80(%rbp),%rax
    cc57:	0f b6 00             	movzbl (%rax),%eax
    cc5a:	0f b6 d0             	movzbl %al,%edx
    cc5d:	0f b7 85 44 d3 ff ff 	movzwl -0x2cbc(%rbp),%eax
    cc64:	0f b6 c0             	movzbl %al,%eax
    cc67:	89 d6                	mov    %edx,%esi
    cc69:	89 c7                	mov    %eax,%edi
    cc6b:	e8 23 9f ff ff       	callq  6b93 <safe_mul_func_uint8_t_u_u>
    cc70:	48 8b 85 b8 eb ff ff 	mov    -0x1448(%rbp),%rax
    cc77:	be 84 5b 34 89       	mov    $0x89345b84,%esi
    cc7c:	89 c7                	mov    %eax,%edi
    cc7e:	e8 35 a2 ff ff       	callq  6eb8 <safe_add_func_uint32_t_u_u>
    cc83:	48 8d 05 16 21 01 00 	lea    0x12116(%rip),%rax        # 1eda0 <g_1010>
    cc8a:	48 39 85 f0 d5 ff ff 	cmp    %rax,-0x2a10(%rbp)
    cc91:	0f b6 05 2c 04 01 00 	movzbl 0x1042c(%rip),%eax        # 1d0c4 <g_294+0x4>
    cc98:	8b 95 0c d4 ff ff    	mov    -0x2bf4(%rbp),%edx
    cc9e:	48 8b 85 a8 d5 ff ff 	mov    -0x2a58(%rbp),%rax
    cca5:	89 10                	mov    %edx,(%rax)
    cca7:	48 8b 85 a8 d5 ff ff 	mov    -0x2a58(%rbp),%rax
    ccae:	8b 10                	mov    (%rax),%edx
    ccb0:	48 8b 85 78 d4 ff ff 	mov    -0x2b88(%rbp),%rax
    ccb7:	48 8b 00             	mov    (%rax),%rax
    ccba:	88 10                	mov    %dl,(%rax)
    ccbc:	0f b6 00             	movzbl (%rax),%eax
    ccbf:	3c 6f                	cmp    $0x6f,%al
    ccc1:	0f 9f c0             	setg   %al
    ccc4:	0f b6 c0             	movzbl %al,%eax
    ccc7:	89 de                	mov    %ebx,%esi
    ccc9:	89 c7                	mov    %eax,%edi
    cccb:	e8 65 96 ff ff       	callq  6335 <safe_rshift_func_int8_t_s_s>
    ccd0:	84 c0                	test   %al,%al
    ccd2:	74 10                	je     cce4 <func_50+0x282f>
    ccd4:	83 bd 4c d3 ff ff 00 	cmpl   $0x0,-0x2cb4(%rbp)
    ccdb:	74 07                	je     cce4 <func_50+0x282f>
    ccdd:	b8 01 00 00 00       	mov    $0x1,%eax
    cce2:	eb 05                	jmp    cce9 <func_50+0x2834>
    cce4:	b8 00 00 00 00       	mov    $0x0,%eax
    cce9:	39 85 0c d4 ff ff    	cmp    %eax,-0x2bf4(%rbp)
    ccef:	48 8b 95 b8 eb ff ff 	mov    -0x1448(%rbp),%rdx
    ccf6:	48 8b 05 53 1f 01 00 	mov    0x11f53(%rip),%rax        # 1ec50 <g_525>
    ccfd:	8b 00                	mov    (%rax),%eax
    ccff:	89 c1                	mov    %eax,%ecx
    cd01:	89 d0                	mov    %edx,%eax
    cd03:	31 c1                	xor    %eax,%ecx
    cd05:	89 ca                	mov    %ecx,%edx
    cd07:	48 8b 05 42 1f 01 00 	mov    0x11f42(%rip),%rax        # 1ec50 <g_525>
    cd0e:	89 10                	mov    %edx,(%rax)
    cd10:	81 a5 14 d4 ff ff 16 	andl   $0xb68a1316,-0x2bec(%rbp)
    cd17:	13 8a b6 
    cd1a:	83 85 18 d4 ff ff 01 	addl   $0x1,-0x2be8(%rbp)
    cd21:	eb 0c                	jmp    cd2f <func_50+0x287a>
    cd23:	8b 05 f7 03 01 00    	mov    0x103f7(%rip),%eax        # 1d120 <g_929>
    cd29:	e9 74 56 00 00       	jmpq   123a2 <func_50+0x7eed>
    cd2e:	90                   	nop
    cd2f:	48 8b 85 70 d4 ff ff 	mov    -0x2b90(%rbp),%rax
    cd36:	8b 10                	mov    (%rax),%edx
    cd38:	48 8b 05 21 20 01 00 	mov    0x12021(%rip),%rax        # 1ed60 <g_859>
    cd3f:	48 8b 00             	mov    (%rax),%rax
    cd42:	0f b6 00             	movzbl (%rax),%eax
    cd45:	0f b6 c0             	movzbl %al,%eax
    cd48:	39 c2                	cmp    %eax,%edx
    cd4a:	0f 85 93 09 00 00    	jne    d6e3 <func_50+0x322e>
    cd50:	c7 85 28 d4 ff ff 08 	movl   $0x8,-0x2bd8(%rbp)
    cd57:	00 00 00 
    cd5a:	c7 85 2c d4 ff ff fa 	movl   $0xfffffffa,-0x2bd4(%rbp)
    cd61:	ff ff ff 
    cd64:	c7 85 b0 eb ff ff ff 	movl   $0xffffffff,-0x1450(%rbp)
    cd6b:	ff ff ff 
    cd6e:	c7 85 b4 eb ff ff ff 	movl   $0xffffffff,-0x144c(%rbp)
    cd75:	ff ff ff 
    cd78:	c7 85 b8 eb ff ff ef 	movl   $0xace8e8ef,-0x1448(%rbp)
    cd7f:	e8 e8 ac 
    cd82:	c7 85 bc eb ff ff e2 	movl   $0x6b9417e2,-0x1444(%rbp)
    cd89:	17 94 6b 
    cd8c:	c7 85 c0 eb ff ff ff 	movl   $0xffffffff,-0x1440(%rbp)
    cd93:	ff ff ff 
    cd96:	c7 85 c4 eb ff ff e2 	movl   $0x6b9417e2,-0x143c(%rbp)
    cd9d:	17 94 6b 
    cda0:	c7 85 c8 eb ff ff ef 	movl   $0xace8e8ef,-0x1438(%rbp)
    cda7:	e8 e8 ac 
    cdaa:	c7 85 cc eb ff ff ff 	movl   $0xffffffff,-0x1434(%rbp)
    cdb1:	ff ff ff 
    cdb4:	c7 85 d0 eb ff ff ff 	movl   $0xffffffff,-0x1430(%rbp)
    cdbb:	ff ff ff 
    cdbe:	c7 85 d4 eb ff ff fe 	movl   $0xfffffffe,-0x142c(%rbp)
    cdc5:	ff ff ff 
    cdc8:	c7 85 d8 eb ff ff fa 	movl   $0xfffffffa,-0x1428(%rbp)
    cdcf:	ff ff ff 
    cdd2:	c7 85 dc eb ff ff ff 	movl   $0xffffffff,-0x1424(%rbp)
    cdd9:	ff ff ff 
    cddc:	c7 85 e0 eb ff ff 19 	movl   $0x66ab319,-0x1420(%rbp)
    cde3:	b3 6a 06 
    cde6:	c7 85 e4 eb ff ff ff 	movl   $0xffffffff,-0x141c(%rbp)
    cded:	ff ff ff 
    cdf0:	c7 85 e8 eb ff ff fe 	movl   $0xfffffffe,-0x1418(%rbp)
    cdf7:	ff ff ff 
    cdfa:	c7 85 ec eb ff ff e2 	movl   $0x6b9417e2,-0x1414(%rbp)
    ce01:	17 94 6b 
    ce04:	c7 85 f0 eb ff ff e2 	movl   $0x6b9417e2,-0x1410(%rbp)
    ce0b:	17 94 6b 
    ce0e:	c7 85 f4 eb ff ff fe 	movl   $0xfffffffe,-0x140c(%rbp)
    ce15:	ff ff ff 
    ce18:	66 c7 85 44 d3 ff ff 	movw   $0x0,-0x2cbc(%rbp)
    ce1f:	00 00 
    ce21:	90                   	nop
    ce22:	0f b7 85 44 d3 ff ff 	movzwl -0x2cbc(%rbp),%eax
    ce29:	66 83 f8 07          	cmp    $0x7,%ax
    ce2d:	7f 0e                	jg     ce3d <func_50+0x2988>
    ce2f:	48 8b 85 b0 d5 ff ff 	mov    -0x2a50(%rbp),%rax
    ce36:	8b 00                	mov    (%rax),%eax
    ce38:	e9 65 55 00 00       	jmpq   123a2 <func_50+0x7eed>
    ce3d:	8b 85 8c d3 ff ff    	mov    -0x2c74(%rbp),%eax
    ce43:	0f bf d0             	movswl %ax,%edx
    ce46:	0f b7 85 44 d3 ff ff 	movzwl -0x2cbc(%rbp),%eax
    ce4d:	98                   	cwtl   
    ce4e:	89 d6                	mov    %edx,%esi
    ce50:	89 c7                	mov    %eax,%edi
    ce52:	e8 9e 95 ff ff       	callq  63f5 <safe_mul_func_int16_t_s_s>
    ce57:	0f bf d0             	movswl %ax,%edx
    ce5a:	8b 05 c0 02 01 00    	mov    0x102c0(%rip),%eax        # 1d120 <g_929>
    ce60:	31 c2                	xor    %eax,%edx
    ce62:	48 8b 05 e7 1d 01 00 	mov    0x11de7(%rip),%rax        # 1ec50 <g_525>
    ce69:	81 ca bc 70 34 70    	or     $0x703470bc,%edx
    ce6f:	89 10                	mov    %edx,(%rax)
    ce71:	48 8b 05 60 1c 01 00 	mov    0x11c60(%rip),%rax        # 1ead8 <g_449>
    ce78:	c7 00 00 00 00 00    	movl   $0x0,(%rax)
    ce7e:	48 8b 05 53 1c 01 00 	mov    0x11c53(%rip),%rax        # 1ead8 <g_449>
    ce85:	8b 00                	mov    (%rax),%eax
    ce87:	85 c0                	test   %eax,%eax
    ce89:	0f 85 ce 25 00 00    	jne    f45d <func_50+0x4fa8>
    ce8f:	48 8b 85 a8 d5 ff ff 	mov    -0x2a58(%rbp),%rax
    ce96:	8b 10                	mov    (%rax),%edx
    ce98:	8b 85 9c d3 ff ff    	mov    -0x2c64(%rbp),%eax
    ce9e:	21 c2                	and    %eax,%edx
    cea0:	48 8b 85 a8 d5 ff ff 	mov    -0x2a58(%rbp),%rax
    cea7:	89 10                	mov    %edx,(%rax)
    cea9:	48 8b 85 a8 d5 ff ff 	mov    -0x2a58(%rbp),%rax
    ceb0:	8b 00                	mov    (%rax),%eax
    ceb2:	85 c0                	test   %eax,%eax
    ceb4:	0f 84 9e 07 00 00    	je     d658 <func_50+0x31a3>
    ceba:	48 c7 85 90 d6 ff ff 	movq   $0x0,-0x2970(%rbp)
    cec1:	00 00 00 00 
    cec5:	48 8d 05 d8 01 01 00 	lea    0x101d8(%rip),%rax        # 1d0a4 <g_109>
    cecc:	48 89 85 98 d6 ff ff 	mov    %rax,-0x2968(%rbp)
    ced3:	48 c7 85 a0 d6 ff ff 	movq   $0x0,-0x2960(%rbp)
    ceda:	00 00 00 00 
    cede:	48 8d 85 80 d3 ff ff 	lea    -0x2c80(%rbp),%rax
    cee5:	48 89 85 a8 d6 ff ff 	mov    %rax,-0x2958(%rbp)
    ceec:	48 8d 85 90 d3 ff ff 	lea    -0x2c70(%rbp),%rax
    cef3:	48 89 85 30 f0 ff ff 	mov    %rax,-0xfd0(%rbp)
    cefa:	48 8d 85 94 d3 ff ff 	lea    -0x2c6c(%rbp),%rax
    cf01:	48 89 85 38 f0 ff ff 	mov    %rax,-0xfc8(%rbp)
    cf08:	48 8d 05 51 01 01 00 	lea    0x10151(%rip),%rax        # 1d060 <g_77+0x20>
    cf0f:	48 89 85 40 f0 ff ff 	mov    %rax,-0xfc0(%rbp)
    cf16:	48 8d 85 90 d3 ff ff 	lea    -0x2c70(%rbp),%rax
    cf1d:	48 89 85 48 f0 ff ff 	mov    %rax,-0xfb8(%rbp)
    cf24:	48 8d 05 35 01 01 00 	lea    0x10135(%rip),%rax        # 1d060 <g_77+0x20>
    cf2b:	48 89 85 50 f0 ff ff 	mov    %rax,-0xfb0(%rbp)
    cf32:	48 8d 85 70 da ff ff 	lea    -0x2590(%rbp),%rax
    cf39:	48 05 b4 00 00 00    	add    $0xb4,%rax
    cf3f:	48 89 85 58 f0 ff ff 	mov    %rax,-0xfa8(%rbp)
    cf46:	48 8d 85 94 d3 ff ff 	lea    -0x2c6c(%rbp),%rax
    cf4d:	48 89 85 60 f0 ff ff 	mov    %rax,-0xfa0(%rbp)
    cf54:	48 8d 85 9c d3 ff ff 	lea    -0x2c64(%rbp),%rax
    cf5b:	48 89 85 68 f0 ff ff 	mov    %rax,-0xf98(%rbp)
    cf62:	48 8d 85 a4 d3 ff ff 	lea    -0x2c5c(%rbp),%rax
    cf69:	48 89 85 70 f0 ff ff 	mov    %rax,-0xf90(%rbp)
    cf70:	48 8d 85 90 dd ff ff 	lea    -0x2270(%rbp),%rax
    cf77:	48 83 e8 80          	sub    $0xffffffffffffff80,%rax
    cf7b:	48 89 85 78 f0 ff ff 	mov    %rax,-0xf88(%rbp)
    cf82:	48 8d 05 2f 01 01 00 	lea    0x1012f(%rip),%rax        # 1d0b8 <g_257>
    cf89:	48 89 85 80 f0 ff ff 	mov    %rax,-0xf80(%rbp)
    cf90:	48 8d 85 84 d3 ff ff 	lea    -0x2c7c(%rbp),%rax
    cf97:	48 89 85 88 f0 ff ff 	mov    %rax,-0xf78(%rbp)
    cf9e:	48 c7 85 90 f0 ff ff 	movq   $0x0,-0xf70(%rbp)
    cfa5:	00 00 00 00 
    cfa9:	48 8d 85 90 dd ff ff 	lea    -0x2270(%rbp),%rax
    cfb0:	48 83 e8 80          	sub    $0xffffffffffffff80,%rax
    cfb4:	48 89 85 98 f0 ff ff 	mov    %rax,-0xf68(%rbp)
    cfbb:	48 8d 85 70 da ff ff 	lea    -0x2590(%rbp),%rax
    cfc2:	48 05 8c 00 00 00    	add    $0x8c,%rax
    cfc8:	48 89 85 a0 f0 ff ff 	mov    %rax,-0xf60(%rbp)
    cfcf:	48 8d 85 70 da ff ff 	lea    -0x2590(%rbp),%rax
    cfd6:	48 05 b4 00 00 00    	add    $0xb4,%rax
    cfdc:	48 89 85 a8 f0 ff ff 	mov    %rax,-0xf58(%rbp)
    cfe3:	48 8d 85 90 d3 ff ff 	lea    -0x2c70(%rbp),%rax
    cfea:	48 89 85 b0 f0 ff ff 	mov    %rax,-0xf50(%rbp)
    cff1:	48 8d 85 90 d3 ff ff 	lea    -0x2c70(%rbp),%rax
    cff8:	48 89 85 b8 f0 ff ff 	mov    %rax,-0xf48(%rbp)
    cfff:	48 8d 85 70 da ff ff 	lea    -0x2590(%rbp),%rax
    d006:	48 05 b4 00 00 00    	add    $0xb4,%rax
    d00c:	48 89 85 c0 f0 ff ff 	mov    %rax,-0xf40(%rbp)
    d013:	48 8d 85 70 da ff ff 	lea    -0x2590(%rbp),%rax
    d01a:	48 05 8c 00 00 00    	add    $0x8c,%rax
    d020:	48 89 85 c8 f0 ff ff 	mov    %rax,-0xf38(%rbp)
    d027:	48 8d 85 90 d3 ff ff 	lea    -0x2c70(%rbp),%rax
    d02e:	48 89 85 d0 f0 ff ff 	mov    %rax,-0xf30(%rbp)
    d035:	48 c7 85 d8 f0 ff ff 	movq   $0x0,-0xf28(%rbp)
    d03c:	00 00 00 00 
    d040:	48 c7 85 e0 f0 ff ff 	movq   $0x0,-0xf20(%rbp)
    d047:	00 00 00 00 
    d04b:	48 8d 85 90 d3 ff ff 	lea    -0x2c70(%rbp),%rax
    d052:	48 89 85 e8 f0 ff ff 	mov    %rax,-0xf18(%rbp)
    d059:	48 8d 05 00 00 01 00 	lea    0x10000(%rip),%rax        # 1d060 <g_77+0x20>
    d060:	48 89 85 f0 f0 ff ff 	mov    %rax,-0xf10(%rbp)
    d067:	48 8d 85 98 d3 ff ff 	lea    -0x2c68(%rbp),%rax
    d06e:	48 89 85 f8 f0 ff ff 	mov    %rax,-0xf08(%rbp)
    d075:	48 8d 85 a4 d3 ff ff 	lea    -0x2c5c(%rbp),%rax
    d07c:	48 89 85 00 f1 ff ff 	mov    %rax,-0xf00(%rbp)
    d083:	48 8d 05 d6 ff 00 00 	lea    0xffd6(%rip),%rax        # 1d060 <g_77+0x20>
    d08a:	48 89 85 08 f1 ff ff 	mov    %rax,-0xef8(%rbp)
    d091:	48 c7 85 10 f1 ff ff 	movq   $0x0,-0xef0(%rbp)
    d098:	00 00 00 00 
    d09c:	48 8d 85 7c d3 ff ff 	lea    -0x2c84(%rbp),%rax
    d0a3:	48 89 85 18 f1 ff ff 	mov    %rax,-0xee8(%rbp)
    d0aa:	48 8d 85 90 dd ff ff 	lea    -0x2270(%rbp),%rax
    d0b1:	48 83 e8 80          	sub    $0xffffffffffffff80,%rax
    d0b5:	48 89 85 20 f1 ff ff 	mov    %rax,-0xee0(%rbp)
    d0bc:	48 c7 85 28 f1 ff ff 	movq   $0x0,-0xed8(%rbp)
    d0c3:	00 00 00 00 
    d0c7:	48 8d 85 84 d3 ff ff 	lea    -0x2c7c(%rbp),%rax
    d0ce:	48 89 85 30 f1 ff ff 	mov    %rax,-0xed0(%rbp)
    d0d5:	48 8d 05 dc ff 00 00 	lea    0xffdc(%rip),%rax        # 1d0b8 <g_257>
    d0dc:	48 89 85 38 f1 ff ff 	mov    %rax,-0xec8(%rbp)
    d0e3:	48 8d 85 98 d3 ff ff 	lea    -0x2c68(%rbp),%rax
    d0ea:	48 89 85 40 f1 ff ff 	mov    %rax,-0xec0(%rbp)
    d0f1:	48 8d 85 9c d3 ff ff 	lea    -0x2c64(%rbp),%rax
    d0f8:	48 89 85 48 f1 ff ff 	mov    %rax,-0xeb8(%rbp)
    d0ff:	48 c7 85 50 f1 ff ff 	movq   $0x0,-0xeb0(%rbp)
    d106:	00 00 00 00 
    d10a:	48 8d 85 a4 d3 ff ff 	lea    -0x2c5c(%rbp),%rax
    d111:	48 89 85 58 f1 ff ff 	mov    %rax,-0xea8(%rbp)
    d118:	48 c7 85 60 f1 ff ff 	movq   $0x0,-0xea0(%rbp)
    d11f:	00 00 00 00 
    d123:	48 8d 85 a4 d3 ff ff 	lea    -0x2c5c(%rbp),%rax
    d12a:	48 89 85 68 f1 ff ff 	mov    %rax,-0xe98(%rbp)
    d131:	48 8d 85 90 d3 ff ff 	lea    -0x2c70(%rbp),%rax
    d138:	48 89 85 70 f1 ff ff 	mov    %rax,-0xe90(%rbp)
    d13f:	48 8d 05 1a ff 00 00 	lea    0xff1a(%rip),%rax        # 1d060 <g_77+0x20>
    d146:	48 89 85 78 f1 ff ff 	mov    %rax,-0xe88(%rbp)
    d14d:	48 8d 85 94 d3 ff ff 	lea    -0x2c6c(%rbp),%rax
    d154:	48 89 85 80 f1 ff ff 	mov    %rax,-0xe80(%rbp)
    d15b:	48 8d 85 90 d3 ff ff 	lea    -0x2c70(%rbp),%rax
    d162:	48 89 85 88 f1 ff ff 	mov    %rax,-0xe78(%rbp)
    d169:	48 8d 85 94 d3 ff ff 	lea    -0x2c6c(%rbp),%rax
    d170:	48 89 85 90 f1 ff ff 	mov    %rax,-0xe70(%rbp)
    d177:	48 8d 05 e2 fe 00 00 	lea    0xfee2(%rip),%rax        # 1d060 <g_77+0x20>
    d17e:	48 89 85 98 f1 ff ff 	mov    %rax,-0xe68(%rbp)
    d185:	48 8d 85 90 d3 ff ff 	lea    -0x2c70(%rbp),%rax
    d18c:	48 89 85 a0 f1 ff ff 	mov    %rax,-0xe60(%rbp)
    d193:	48 8d 05 c6 fe 00 00 	lea    0xfec6(%rip),%rax        # 1d060 <g_77+0x20>
    d19a:	48 89 85 a8 f1 ff ff 	mov    %rax,-0xe58(%rbp)
    d1a1:	48 8d 85 70 da ff ff 	lea    -0x2590(%rbp),%rax
    d1a8:	48 05 b4 00 00 00    	add    $0xb4,%rax
    d1ae:	48 89 85 b0 f1 ff ff 	mov    %rax,-0xe50(%rbp)
    d1b5:	48 8d 85 94 d3 ff ff 	lea    -0x2c6c(%rbp),%rax
    d1bc:	48 89 85 b8 f1 ff ff 	mov    %rax,-0xe48(%rbp)
    d1c3:	48 8d 05 7e 26 01 00 	lea    0x1267e(%rip),%rax        # 1f848 <g_2>
    d1ca:	48 89 85 c0 f1 ff ff 	mov    %rax,-0xe40(%rbp)
    d1d1:	48 8d 05 e0 fe 00 00 	lea    0xfee0(%rip),%rax        # 1d0b8 <g_257>
    d1d8:	48 89 85 c8 f1 ff ff 	mov    %rax,-0xe38(%rbp)
    d1df:	48 8d 85 9c d3 ff ff 	lea    -0x2c64(%rbp),%rax
    d1e6:	48 89 85 d0 f1 ff ff 	mov    %rax,-0xe30(%rbp)
    d1ed:	48 8d 85 90 dd ff ff 	lea    -0x2270(%rbp),%rax
    d1f4:	48 83 e8 80          	sub    $0xffffffffffffff80,%rax
    d1f8:	48 89 85 d8 f1 ff ff 	mov    %rax,-0xe28(%rbp)
    d1ff:	48 8d 85 90 d3 ff ff 	lea    -0x2c70(%rbp),%rax
    d206:	48 89 85 e0 f1 ff ff 	mov    %rax,-0xe20(%rbp)
    d20d:	48 8d 85 94 d3 ff ff 	lea    -0x2c6c(%rbp),%rax
    d214:	48 89 85 e8 f1 ff ff 	mov    %rax,-0xe18(%rbp)
    d21b:	48 8d 05 3e fe 00 00 	lea    0xfe3e(%rip),%rax        # 1d060 <g_77+0x20>
    d222:	48 89 85 f0 f1 ff ff 	mov    %rax,-0xe10(%rbp)
    d229:	48 8d 05 88 fe 00 00 	lea    0xfe88(%rip),%rax        # 1d0b8 <g_257>
    d230:	48 89 85 f8 f1 ff ff 	mov    %rax,-0xe08(%rbp)
    d237:	48 8d 85 a4 d3 ff ff 	lea    -0x2c5c(%rbp),%rax
    d23e:	48 89 85 00 f2 ff ff 	mov    %rax,-0xe00(%rbp)
    d245:	48 8d 05 14 fe 00 00 	lea    0xfe14(%rip),%rax        # 1d060 <g_77+0x20>
    d24c:	48 89 85 08 f2 ff ff 	mov    %rax,-0xdf8(%rbp)
    d253:	48 8d 05 06 fe 00 00 	lea    0xfe06(%rip),%rax        # 1d060 <g_77+0x20>
    d25a:	48 89 85 10 f2 ff ff 	mov    %rax,-0xdf0(%rbp)
    d261:	48 8d 05 50 fe 00 00 	lea    0xfe50(%rip),%rax        # 1d0b8 <g_257>
    d268:	48 89 85 18 f2 ff ff 	mov    %rax,-0xde8(%rbp)
    d26f:	48 8d 85 94 d3 ff ff 	lea    -0x2c6c(%rbp),%rax
    d276:	48 89 85 20 f2 ff ff 	mov    %rax,-0xde0(%rbp)
    d27d:	48 8d 85 90 d3 ff ff 	lea    -0x2c70(%rbp),%rax
    d284:	48 89 85 28 f2 ff ff 	mov    %rax,-0xdd8(%rbp)
    d28b:	48 8d 85 84 d3 ff ff 	lea    -0x2c7c(%rbp),%rax
    d292:	48 89 85 30 f2 ff ff 	mov    %rax,-0xdd0(%rbp)
    d299:	48 8d 85 84 d3 ff ff 	lea    -0x2c7c(%rbp),%rax
    d2a0:	48 89 85 38 f2 ff ff 	mov    %rax,-0xdc8(%rbp)
    d2a7:	48 8d 85 90 d3 ff ff 	lea    -0x2c70(%rbp),%rax
    d2ae:	48 89 85 40 f2 ff ff 	mov    %rax,-0xdc0(%rbp)
    d2b5:	48 8d 85 94 d3 ff ff 	lea    -0x2c6c(%rbp),%rax
    d2bc:	48 89 85 48 f2 ff ff 	mov    %rax,-0xdb8(%rbp)
    d2c3:	48 8d 05 ee fd 00 00 	lea    0xfdee(%rip),%rax        # 1d0b8 <g_257>
    d2ca:	48 89 85 50 f2 ff ff 	mov    %rax,-0xdb0(%rbp)
    d2d1:	48 8d 05 88 fd 00 00 	lea    0xfd88(%rip),%rax        # 1d060 <g_77+0x20>
    d2d8:	48 89 85 58 f2 ff ff 	mov    %rax,-0xda8(%rbp)
    d2df:	48 8d 85 70 da ff ff 	lea    -0x2590(%rbp),%rax
    d2e6:	48 05 b4 00 00 00    	add    $0xb4,%rax
    d2ec:	48 89 85 60 f2 ff ff 	mov    %rax,-0xda0(%rbp)
    d2f3:	48 8d 05 66 fd 00 00 	lea    0xfd66(%rip),%rax        # 1d060 <g_77+0x20>
    d2fa:	48 89 85 68 f2 ff ff 	mov    %rax,-0xd98(%rbp)
    d301:	48 8d 85 7c d3 ff ff 	lea    -0x2c84(%rbp),%rax
    d308:	48 89 85 70 f2 ff ff 	mov    %rax,-0xd90(%rbp)
    d30f:	48 8d 05 32 25 01 00 	lea    0x12532(%rip),%rax        # 1f848 <g_2>
    d316:	48 89 85 78 f2 ff ff 	mov    %rax,-0xd88(%rbp)
    d31d:	48 8d 05 94 fd 00 00 	lea    0xfd94(%rip),%rax        # 1d0b8 <g_257>
    d324:	48 89 85 80 f2 ff ff 	mov    %rax,-0xd80(%rbp)
    d32b:	48 8d 85 90 d3 ff ff 	lea    -0x2c70(%rbp),%rax
    d332:	48 89 85 88 f2 ff ff 	mov    %rax,-0xd78(%rbp)
    d339:	48 c7 85 90 f2 ff ff 	movq   $0x0,-0xd70(%rbp)
    d340:	00 00 00 00 
    d344:	48 8d 85 90 dd ff ff 	lea    -0x2270(%rbp),%rax
    d34b:	48 83 e8 80          	sub    $0xffffffffffffff80,%rax
    d34f:	48 89 85 98 f2 ff ff 	mov    %rax,-0xd68(%rbp)
    d356:	48 8d 05 03 fd 00 00 	lea    0xfd03(%rip),%rax        # 1d060 <g_77+0x20>
    d35d:	48 89 85 a0 f2 ff ff 	mov    %rax,-0xd60(%rbp)
    d364:	48 8d 85 90 d3 ff ff 	lea    -0x2c70(%rbp),%rax
    d36b:	48 89 85 a8 f2 ff ff 	mov    %rax,-0xd58(%rbp)
    d372:	48 8d 85 7c d3 ff ff 	lea    -0x2c84(%rbp),%rax
    d379:	48 89 85 b0 f2 ff ff 	mov    %rax,-0xd50(%rbp)
    d380:	48 c7 85 b8 f2 ff ff 	movq   $0x0,-0xd48(%rbp)
    d387:	00 00 00 00 
    d38b:	48 8d 85 94 d3 ff ff 	lea    -0x2c6c(%rbp),%rax
    d392:	48 89 85 c0 f2 ff ff 	mov    %rax,-0xd40(%rbp)
    d399:	48 8d 05 c0 fc 00 00 	lea    0xfcc0(%rip),%rax        # 1d060 <g_77+0x20>
    d3a0:	48 89 85 c8 f2 ff ff 	mov    %rax,-0xd38(%rbp)
    d3a7:	48 8d 05 0a fd 00 00 	lea    0xfd0a(%rip),%rax        # 1d0b8 <g_257>
    d3ae:	48 89 85 d0 f2 ff ff 	mov    %rax,-0xd30(%rbp)
    d3b5:	48 8d 05 fc fc 00 00 	lea    0xfcfc(%rip),%rax        # 1d0b8 <g_257>
    d3bc:	48 89 85 d8 f2 ff ff 	mov    %rax,-0xd28(%rbp)
    d3c3:	48 8d 85 a4 d3 ff ff 	lea    -0x2c5c(%rbp),%rax
    d3ca:	48 89 85 e0 f2 ff ff 	mov    %rax,-0xd20(%rbp)
    d3d1:	48 8d 05 e0 fc 00 00 	lea    0xfce0(%rip),%rax        # 1d0b8 <g_257>
    d3d8:	48 89 85 e8 f2 ff ff 	mov    %rax,-0xd18(%rbp)
    d3df:	48 8d 05 d2 fc 00 00 	lea    0xfcd2(%rip),%rax        # 1d0b8 <g_257>
    d3e6:	48 89 85 f0 f2 ff ff 	mov    %rax,-0xd10(%rbp)
    d3ed:	48 8d 05 6c fc 00 00 	lea    0xfc6c(%rip),%rax        # 1d060 <g_77+0x20>
    d3f4:	48 89 85 f8 f2 ff ff 	mov    %rax,-0xd08(%rbp)
    d3fb:	48 8d 05 b6 fc 00 00 	lea    0xfcb6(%rip),%rax        # 1d0b8 <g_257>
    d402:	48 89 85 00 f3 ff ff 	mov    %rax,-0xd00(%rbp)
    d409:	48 c7 85 08 f3 ff ff 	movq   $0x0,-0xcf8(%rbp)
    d410:	00 00 00 00 
    d414:	48 8d 05 9d fc 00 00 	lea    0xfc9d(%rip),%rax        # 1d0b8 <g_257>
    d41b:	48 89 85 10 f3 ff ff 	mov    %rax,-0xcf0(%rbp)
    d422:	48 8d 85 70 da ff ff 	lea    -0x2590(%rbp),%rax
    d429:	48 05 b4 00 00 00    	add    $0xb4,%rax
    d42f:	48 89 85 18 f3 ff ff 	mov    %rax,-0xce8(%rbp)
    d436:	48 8d 85 84 d3 ff ff 	lea    -0x2c7c(%rbp),%rax
    d43d:	48 89 85 20 f3 ff ff 	mov    %rax,-0xce0(%rbp)
    d444:	48 8d 05 fd 23 01 00 	lea    0x123fd(%rip),%rax        # 1f848 <g_2>
    d44b:	48 89 85 28 f3 ff ff 	mov    %rax,-0xcd8(%rbp)
    d452:	48 8d 85 90 d3 ff ff 	lea    -0x2c70(%rbp),%rax
    d459:	48 89 85 30 f3 ff ff 	mov    %rax,-0xcd0(%rbp)
    d460:	48 8d 85 94 d3 ff ff 	lea    -0x2c6c(%rbp),%rax
    d467:	48 89 85 38 f3 ff ff 	mov    %rax,-0xcc8(%rbp)
    d46e:	48 8d 85 94 d3 ff ff 	lea    -0x2c6c(%rbp),%rax
    d475:	48 89 85 40 f3 ff ff 	mov    %rax,-0xcc0(%rbp)
    d47c:	48 8d 05 dd fb 00 00 	lea    0xfbdd(%rip),%rax        # 1d060 <g_77+0x20>
    d483:	48 89 85 48 f3 ff ff 	mov    %rax,-0xcb8(%rbp)
    d48a:	c7 85 30 d4 ff ff d0 	movl   $0xce05d9d0,-0x2bd0(%rbp)
    d491:	d9 05 ce 
    d494:	48 c7 85 b0 d6 ff ff 	movq   $0x0,-0x2950(%rbp)
    d49b:	00 00 00 00 
    d49f:	83 bd 28 d4 ff ff 00 	cmpl   $0x0,-0x2bd8(%rbp)
    d4a6:	0f 85 d1 1f 00 00    	jne    f47d <func_50+0x4fc8>
    d4ac:	8b 05 a6 fc 00 00    	mov    0xfca6(%rip),%eax        # 1d158 <g_1378>
    d4b2:	83 c0 01             	add    $0x1,%eax
    d4b5:	89 05 9d fc 00 00    	mov    %eax,0xfc9d(%rip)        # 1d158 <g_1378>
    d4bb:	0f b7 85 1e d7 ff ff 	movzwl -0x28e2(%rbp),%eax
    d4c2:	0f b7 d8             	movzwl %ax,%ebx
    d4c5:	0f b7 85 28 d7 ff ff 	movzwl -0x28d8(%rbp),%eax
    d4cc:	66 85 c0             	test   %ax,%ax
    d4cf:	0f 84 05 01 00 00    	je     d5da <func_50+0x3125>
    d4d5:	8b 05 01 fc 00 00    	mov    0xfc01(%rip),%eax        # 1d0dc <g_450>
    d4db:	44 0f bf e0          	movswl %ax,%r12d
    d4df:	83 bd 48 d3 ff ff 03 	cmpl   $0x3,-0x2cb8(%rbp)
    d4e6:	0f 94 c0             	sete   %al
    d4e9:	0f b6 d0             	movzbl %al,%edx
    d4ec:	8b 85 4c d3 ff ff    	mov    -0x2cb4(%rbp),%eax
    d4f2:	89 d6                	mov    %edx,%esi
    d4f4:	89 c7                	mov    %eax,%edi
    d4f6:	e8 bb 90 ff ff       	callq  65b6 <safe_add_func_int32_t_s_s>
    d4fb:	85 c0                	test   %eax,%eax
    d4fd:	74 3c                	je     d53b <func_50+0x3086>
    d4ff:	8b 85 48 d3 ff ff    	mov    -0x2cb8(%rbp),%eax
    d505:	34 fb                	xor    $0xfb,%al
    d507:	89 c2                	mov    %eax,%edx
    d509:	48 8b 05 18 15 01 00 	mov    0x11518(%rip),%rax        # 1ea28 <g_352>
    d510:	0f b7 00             	movzwl (%rax),%eax
    d513:	09 d0                	or     %edx,%eax
    d515:	98                   	cwtl   
    d516:	89 c6                	mov    %eax,%esi
    d518:	bf 09 90 ff ff       	mov    $0xffff9009,%edi
    d51d:	e8 91 8e ff ff       	callq  63b3 <safe_add_func_int16_t_s_s>
    d522:	48 8b 15 07 15 01 00 	mov    0x11507(%rip),%rdx        # 1ea30 <g_351>
    d529:	48 8b 12             	mov    (%rdx),%rdx
    d52c:	0f b7 12             	movzwl (%rdx),%edx
    d52f:	66 39 d0             	cmp    %dx,%ax
    d532:	7f 07                	jg     d53b <func_50+0x3086>
    d534:	ba 01 00 00 00       	mov    $0x1,%edx
    d539:	eb 05                	jmp    d540 <func_50+0x308b>
    d53b:	ba 00 00 00 00       	mov    $0x0,%edx
    d540:	48 8b 85 78 d4 ff ff 	mov    -0x2b88(%rbp),%rax
    d547:	48 8b 00             	mov    (%rax),%rax
    d54a:	88 10                	mov    %dl,(%rax)
    d54c:	0f b6 00             	movzbl (%rax),%eax
    d54f:	3c 05                	cmp    $0x5,%al
    d551:	0f 97 c0             	seta   %al
    d554:	0f b6 d0             	movzbl %al,%edx
    d557:	8b 85 14 d9 ff ff    	mov    -0x26ec(%rbp),%eax
    d55d:	89 c1                	mov    %eax,%ecx
    d55f:	0f b6 05 56 fb 00 00 	movzbl 0xfb56(%rip),%eax        # 1d0bc <g_293>
    d566:	0f b6 c0             	movzbl %al,%eax
    d569:	83 c0 04             	add    $0x4,%eax
    d56c:	89 d6                	mov    %edx,%esi
    d56e:	31 ce                	xor    %ecx,%esi
    d570:	48 63 d0             	movslq %eax,%rdx
    d573:	48 8d 0c 12          	lea    (%rdx,%rdx,1),%rcx
    d577:	48 8d 15 b2 fb 00 00 	lea    0xfbb2(%rip),%rdx        # 1d130 <g_1107>
    d57e:	66 89 34 11          	mov    %si,(%rcx,%rdx,1)
    d582:	48 98                	cltq   
    d584:	48 8d 14 00          	lea    (%rax,%rax,1),%rdx
    d588:	48 8d 05 a1 fb 00 00 	lea    0xfba1(%rip),%rax        # 1d130 <g_1107>
    d58f:	0f b7 04 02          	movzwl (%rdx,%rax,1),%eax
    d593:	98                   	cwtl   
    d594:	44 89 e6             	mov    %r12d,%esi
    d597:	89 c7                	mov    %eax,%edi
    d599:	e8 57 8e ff ff       	callq  63f5 <safe_mul_func_int16_t_s_s>
    d59e:	48 8b 85 98 d6 ff ff 	mov    -0x2968(%rbp),%rax
    d5a5:	8b 10                	mov    (%rax),%edx
    d5a7:	48 8b 05 7a fa 00 00 	mov    0xfa7a(%rip),%rax        # 1d028 <g_75>
    d5ae:	48 83 f8 04          	cmp    $0x4,%rax
    d5b2:	0f 94 c0             	sete   %al
    d5b5:	0f b6 c0             	movzbl %al,%eax
    d5b8:	39 c2                	cmp    %eax,%edx
    d5ba:	0f 9d c0             	setge  %al
    d5bd:	0f b6 c0             	movzbl %al,%eax
    d5c0:	8b 95 48 d3 ff ff    	mov    -0x2cb8(%rbp),%edx
    d5c6:	89 d6                	mov    %edx,%esi
    d5c8:	89 c7                	mov    %eax,%edi
    d5ca:	e8 ef 96 ff ff       	callq  6cbe <safe_rshift_func_uint8_t_u_u>
    d5cf:	84 c0                	test   %al,%al
    d5d1:	74 07                	je     d5da <func_50+0x3125>
    d5d3:	b8 01 00 00 00       	mov    $0x1,%eax
    d5d8:	eb 05                	jmp    d5df <func_50+0x312a>
    d5da:	b8 00 00 00 00       	mov    $0x0,%eax
    d5df:	3d db 77 08 15       	cmp    $0x150877db,%eax
    d5e4:	0f 9f c0             	setg   %al
    d5e7:	0f b6 c0             	movzbl %al,%eax
    d5ea:	89 c2                	mov    %eax,%edx
    d5ec:	8b 05 e2 fa 00 00    	mov    0xfae2(%rip),%eax        # 1d0d4 <g_399>
    d5f2:	21 d0                	and    %edx,%eax
    d5f4:	89 05 da fa 00 00    	mov    %eax,0xfada(%rip)        # 1d0d4 <g_399>
    d5fa:	8b 05 d4 fa 00 00    	mov    0xfad4(%rip),%eax        # 1d0d4 <g_399>
    d600:	f7 d0                	not    %eax
    d602:	89 c2                	mov    %eax,%edx
    d604:	48 8b 85 a8 d5 ff ff 	mov    -0x2a58(%rbp),%rax
    d60b:	8b 00                	mov    (%rax),%eax
    d60d:	48 98                	cltq   
    d60f:	48 89 d6             	mov    %rdx,%rsi
    d612:	48 89 c7             	mov    %rax,%rdi
    d615:	e8 9a 93 ff ff       	callq  69b4 <safe_mod_func_int64_t_s_s>
    d61a:	48 8b 85 70 d4 ff ff 	mov    -0x2b90(%rbp),%rax
    d621:	8b 00                	mov    (%rax),%eax
    d623:	c1 e8 1f             	shr    $0x1f,%eax
    d626:	0f b6 c0             	movzbl %al,%eax
    d629:	be 07 00 00 00       	mov    $0x7,%esi
    d62e:	89 c7                	mov    %eax,%edi
    d630:	e8 13 98 ff ff       	callq  6e48 <safe_rshift_func_uint16_t_u_s>
    d635:	0f be c0             	movsbl %al,%eax
    d638:	89 de                	mov    %ebx,%esi
    d63a:	89 c7                	mov    %eax,%edi
    d63c:	e8 60 8c ff ff       	callq  62a1 <safe_lshift_func_int8_t_s_s>
    d641:	48 8d 05 90 14 01 00 	lea    0x11490(%rip),%rax        # 1ead8 <g_449>
    d648:	48 8b 00             	mov    (%rax),%rax
    d64b:	8b 95 9c d3 ff ff    	mov    -0x2c64(%rbp),%edx
    d651:	89 10                	mov    %edx,(%rax)
    d653:	e9 fc 1d 00 00       	jmpq   f454 <func_50+0x4f9f>
    d658:	48 8d 05 c1 fa 00 00 	lea    0xfac1(%rip),%rax        # 1d120 <g_929>
    d65f:	48 89 85 70 d6 ff ff 	mov    %rax,-0x2990(%rbp)
    d666:	48 8d 85 70 da ff ff 	lea    -0x2590(%rbp),%rax
    d66d:	48 83 c0 28          	add    $0x28,%rax
    d671:	48 89 85 78 d6 ff ff 	mov    %rax,-0x2988(%rbp)
    d678:	48 8d 85 b0 eb ff ff 	lea    -0x1450(%rbp),%rax
    d67f:	48 83 c0 20          	add    $0x20,%rax
    d683:	48 89 85 80 d6 ff ff 	mov    %rax,-0x2980(%rbp)
    d68a:	48 c7 85 88 d6 ff ff 	movq   $0x0,-0x2978(%rbp)
    d691:	00 00 00 00 
    d695:	c7 85 f0 d3 ff ff 00 	movl   $0x0,-0x2c10(%rbp)
    d69c:	00 00 00 
    d69f:	eb 1e                	jmp    d6bf <func_50+0x320a>
    d6a1:	8b 85 f0 d3 ff ff    	mov    -0x2c10(%rbp),%eax
    d6a7:	48 98                	cltq   
    d6a9:	48 8d 95 70 da ff ff 	lea    -0x2590(%rbp),%rdx
    d6b0:	48 89 94 c5 30 f0 ff 	mov    %rdx,-0xfd0(%rbp,%rax,8)
    d6b7:	ff 
    d6b8:	83 85 f0 d3 ff ff 01 	addl   $0x1,-0x2c10(%rbp)
    d6bf:	83 bd f0 d3 ff ff 03 	cmpl   $0x3,-0x2c10(%rbp)
    d6c6:	7e d9                	jle    d6a1 <func_50+0x31ec>
    d6c8:	0f b6 85 57 d3 ff ff 	movzbl -0x2ca9(%rbp),%eax
    d6cf:	83 c0 01             	add    $0x1,%eax
    d6d2:	88 85 57 d3 ff ff    	mov    %al,-0x2ca9(%rbp)
    d6d8:	8b 85 4c d3 ff ff    	mov    -0x2cb4(%rbp),%eax
    d6de:	e9 bf 4c 00 00       	jmpq   123a2 <func_50+0x7eed>
    d6e3:	48 8d 85 40 d8 ff ff 	lea    -0x27c0(%rbp),%rax
    d6ea:	48 83 c0 30          	add    $0x30,%rax
    d6ee:	48 89 85 a8 d4 ff ff 	mov    %rax,-0x2b58(%rbp)
    d6f5:	48 8d 85 a8 d4 ff ff 	lea    -0x2b58(%rbp),%rax
    d6fc:	48 89 85 28 d6 ff ff 	mov    %rax,-0x29d8(%rbp)
    d703:	c7 85 a8 d3 ff ff b0 	movl   $0x6099b9b0,-0x2c58(%rbp)
    d70a:	b9 99 60 
    d70d:	48 8d 85 90 df ff ff 	lea    -0x2070(%rbp),%rax
    d714:	48 8d 15 65 10 01 00 	lea    0x11065(%rip),%rdx        # 1e780 <g_2905+0x1418>
    d71b:	b9 51 00 00 00       	mov    $0x51,%ecx
    d720:	48 89 c7             	mov    %rax,%rdi
    d723:	48 89 d6             	mov    %rdx,%rsi
    d726:	f3 48 a5             	rep movsq %ds:(%rsi),%es:(%rdi)
    d729:	48 c7 85 30 d6 ff ff 	movq   $0x0,-0x29d0(%rbp)
    d730:	00 00 00 00 
    d734:	48 8d 85 c0 d7 ff ff 	lea    -0x2840(%rbp),%rax
    d73b:	48 83 c0 10          	add    $0x10,%rax
    d73f:	48 89 85 f0 d7 ff ff 	mov    %rax,-0x2810(%rbp)
    d746:	48 8d 85 c0 d7 ff ff 	lea    -0x2840(%rbp),%rax
    d74d:	48 83 c0 10          	add    $0x10,%rax
    d751:	48 89 85 f8 d7 ff ff 	mov    %rax,-0x2808(%rbp)
    d758:	48 8d 85 c0 d7 ff ff 	lea    -0x2840(%rbp),%rax
    d75f:	48 83 c0 10          	add    $0x10,%rax
    d763:	48 89 85 00 d8 ff ff 	mov    %rax,-0x2800(%rbp)
    d76a:	48 c7 85 08 d8 ff ff 	movq   $0x0,-0x27f8(%rbp)
    d771:	00 00 00 00 
    d775:	48 8d 85 c0 d7 ff ff 	lea    -0x2840(%rbp),%rax
    d77c:	48 83 c0 10          	add    $0x10,%rax
    d780:	48 89 85 10 d8 ff ff 	mov    %rax,-0x27f0(%rbp)
    d787:	48 c7 85 18 d8 ff ff 	movq   $0x0,-0x27e8(%rbp)
    d78e:	00 00 00 00 
    d792:	48 c7 85 20 d8 ff ff 	movq   $0x0,-0x27e0(%rbp)
    d799:	00 00 00 00 
    d79d:	48 8d 85 c0 d7 ff ff 	lea    -0x2840(%rbp),%rax
    d7a4:	48 83 c0 10          	add    $0x10,%rax
    d7a8:	48 89 85 28 d8 ff ff 	mov    %rax,-0x27d8(%rbp)
    d7af:	48 c7 85 30 d8 ff ff 	movq   $0x0,-0x27d0(%rbp)
    d7b6:	00 00 00 00 
    d7ba:	48 8d 85 f0 d7 ff ff 	lea    -0x2810(%rbp),%rax
    d7c1:	48 83 c0 40          	add    $0x40,%rax
    d7c5:	48 89 85 b0 d4 ff ff 	mov    %rax,-0x2b50(%rbp)
    d7cc:	c7 85 20 d4 ff ff b5 	movl   $0x5b873cb5,-0x2be0(%rbp)
    d7d3:	3c 87 5b 
    d7d6:	c7 85 90 d7 ff ff fb 	movl   $0xfffffffb,-0x2870(%rbp)
    d7dd:	ff ff ff 
    d7e0:	c7 85 94 d7 ff ff 99 	movl   $0xeec96799,-0x286c(%rbp)
    d7e7:	67 c9 ee 
    d7ea:	c7 85 98 d7 ff ff 1e 	movl   $0x2d40f51e,-0x2868(%rbp)
    d7f1:	f5 40 2d 
    d7f4:	c7 85 9c d7 ff ff 1e 	movl   $0x2d40f51e,-0x2864(%rbp)
    d7fb:	f5 40 2d 
    d7fe:	c7 85 a0 d7 ff ff 99 	movl   $0xeec96799,-0x2860(%rbp)
    d805:	67 c9 ee 
    d808:	c7 85 a4 d7 ff ff fb 	movl   $0xfffffffb,-0x285c(%rbp)
    d80f:	ff ff ff 
    d812:	c7 85 a8 d7 ff ff 99 	movl   $0xeec96799,-0x2858(%rbp)
    d819:	67 c9 ee 
    d81c:	c7 85 ac d7 ff ff 1e 	movl   $0x2d40f51e,-0x2854(%rbp)
    d823:	f5 40 2d 
    d826:	c7 85 b0 d7 ff ff 1e 	movl   $0x2d40f51e,-0x2850(%rbp)
    d82d:	f5 40 2d 
    d830:	c7 85 b4 d7 ff ff 99 	movl   $0xeec96799,-0x284c(%rbp)
    d837:	67 c9 ee 
    d83a:	c7 85 24 d4 ff ff fc 	movl   $0xfffffffc,-0x2bdc(%rbp)
    d841:	ff ff ff 
    d844:	c7 85 9c d3 ff ff f8 	movl   $0xfffffff8,-0x2c64(%rbp)
    d84b:	ff ff ff 
    d84e:	e9 9b 03 00 00       	jmpq   dbee <func_50+0x3739>
    d853:	48 c7 85 38 d6 ff ff 	movq   $0x0,-0x29c8(%rbp)
    d85a:	00 00 00 00 
    d85e:	48 c7 85 40 d6 ff ff 	movq   $0x0,-0x29c0(%rbp)
    d865:	00 00 00 00 
    d869:	48 8d 05 48 f8 00 00 	lea    0xf848(%rip),%rax        # 1d0b8 <g_257>
    d870:	48 89 85 48 d6 ff ff 	mov    %rax,-0x29b8(%rbp)
    d877:	48 c7 85 30 f0 ff ff 	movq   $0x0,-0xfd0(%rbp)
    d87e:	00 00 00 00 
    d882:	48 8d 85 70 da ff ff 	lea    -0x2590(%rbp),%rax
    d889:	48 89 85 38 f0 ff ff 	mov    %rax,-0xfc8(%rbp)
    d890:	48 c7 85 40 f0 ff ff 	movq   $0x0,-0xfc0(%rbp)
    d897:	00 00 00 00 
    d89b:	48 c7 85 48 f0 ff ff 	movq   $0x0,-0xfb8(%rbp)
    d8a2:	00 00 00 00 
    d8a6:	48 8d 85 70 da ff ff 	lea    -0x2590(%rbp),%rax
    d8ad:	48 89 85 50 f0 ff ff 	mov    %rax,-0xfb0(%rbp)
    d8b4:	48 c7 85 58 f0 ff ff 	movq   $0x0,-0xfa8(%rbp)
    d8bb:	00 00 00 00 
    d8bf:	48 8d 85 70 da ff ff 	lea    -0x2590(%rbp),%rax
    d8c6:	48 89 85 60 f0 ff ff 	mov    %rax,-0xfa0(%rbp)
    d8cd:	48 c7 85 68 f0 ff ff 	movq   $0x0,-0xf98(%rbp)
    d8d4:	00 00 00 00 
    d8d8:	48 8d 85 70 da ff ff 	lea    -0x2590(%rbp),%rax
    d8df:	48 89 85 70 f0 ff ff 	mov    %rax,-0xf90(%rbp)
    d8e6:	48 8d 85 70 da ff ff 	lea    -0x2590(%rbp),%rax
    d8ed:	48 89 85 78 f0 ff ff 	mov    %rax,-0xf88(%rbp)
    d8f4:	48 c7 85 80 f0 ff ff 	movq   $0x0,-0xf80(%rbp)
    d8fb:	00 00 00 00 
    d8ff:	48 8d 85 90 dd ff ff 	lea    -0x2270(%rbp),%rax
    d906:	48 05 88 01 00 00    	add    $0x188,%rax
    d90c:	48 89 85 88 f0 ff ff 	mov    %rax,-0xf78(%rbp)
    d913:	48 c7 85 90 f0 ff ff 	movq   $0x0,-0xf70(%rbp)
    d91a:	00 00 00 00 
    d91e:	48 8d 85 70 da ff ff 	lea    -0x2590(%rbp),%rax
    d925:	48 89 85 98 f0 ff ff 	mov    %rax,-0xf68(%rbp)
    d92c:	48 8d 05 85 f7 00 00 	lea    0xf785(%rip),%rax        # 1d0b8 <g_257>
    d933:	48 89 85 a0 f0 ff ff 	mov    %rax,-0xf60(%rbp)
    d93a:	48 8d 05 77 f7 00 00 	lea    0xf777(%rip),%rax        # 1d0b8 <g_257>
    d941:	48 89 85 a8 f0 ff ff 	mov    %rax,-0xf58(%rbp)
    d948:	48 c7 85 b0 f0 ff ff 	movq   $0x0,-0xf50(%rbp)
    d94f:	00 00 00 00 
    d953:	48 c7 85 b8 f0 ff ff 	movq   $0x0,-0xf48(%rbp)
    d95a:	00 00 00 00 
    d95e:	48 c7 85 c0 f0 ff ff 	movq   $0x0,-0xf40(%rbp)
    d965:	00 00 00 00 
    d969:	48 8d 05 48 f7 00 00 	lea    0xf748(%rip),%rax        # 1d0b8 <g_257>
    d970:	48 89 85 c8 f0 ff ff 	mov    %rax,-0xf38(%rbp)
    d977:	48 8d 05 3a f7 00 00 	lea    0xf73a(%rip),%rax        # 1d0b8 <g_257>
    d97e:	48 89 85 d0 f0 ff ff 	mov    %rax,-0xf30(%rbp)
    d985:	48 8d 85 88 d3 ff ff 	lea    -0x2c78(%rbp),%rax
    d98c:	48 89 85 d8 f0 ff ff 	mov    %rax,-0xf28(%rbp)
    d993:	48 8d 85 70 da ff ff 	lea    -0x2590(%rbp),%rax
    d99a:	48 89 85 e0 f0 ff ff 	mov    %rax,-0xf20(%rbp)
    d9a1:	48 c7 85 e8 f0 ff ff 	movq   $0x0,-0xf18(%rbp)
    d9a8:	00 00 00 00 
    d9ac:	48 8d 85 70 da ff ff 	lea    -0x2590(%rbp),%rax
    d9b3:	48 89 85 f0 f0 ff ff 	mov    %rax,-0xf10(%rbp)
    d9ba:	48 8d 85 88 d3 ff ff 	lea    -0x2c78(%rbp),%rax
    d9c1:	48 89 85 f8 f0 ff ff 	mov    %rax,-0xf08(%rbp)
    d9c8:	48 8d 85 88 d3 ff ff 	lea    -0x2c78(%rbp),%rax
    d9cf:	48 89 85 00 f1 ff ff 	mov    %rax,-0xf00(%rbp)
    d9d6:	48 8d 85 70 da ff ff 	lea    -0x2590(%rbp),%rax
    d9dd:	48 89 85 08 f1 ff ff 	mov    %rax,-0xef8(%rbp)
    d9e4:	48 8d 05 75 f6 00 00 	lea    0xf675(%rip),%rax        # 1d060 <g_77+0x20>
    d9eb:	48 89 85 10 f1 ff ff 	mov    %rax,-0xef0(%rbp)
    d9f2:	48 8d 85 70 da ff ff 	lea    -0x2590(%rbp),%rax
    d9f9:	48 89 85 18 f1 ff ff 	mov    %rax,-0xee8(%rbp)
    da00:	48 8d 05 59 f6 00 00 	lea    0xf659(%rip),%rax        # 1d060 <g_77+0x20>
    da07:	48 89 85 20 f1 ff ff 	mov    %rax,-0xee0(%rbp)
    da0e:	48 c7 85 28 f1 ff ff 	movq   $0x0,-0xed8(%rbp)
    da15:	00 00 00 00 
    da19:	48 c7 85 30 f1 ff ff 	movq   $0x0,-0xed0(%rbp)
    da20:	00 00 00 00 
    da24:	48 8d 05 35 f6 00 00 	lea    0xf635(%rip),%rax        # 1d060 <g_77+0x20>
    da2b:	48 89 85 38 f1 ff ff 	mov    %rax,-0xec8(%rbp)
    da32:	48 8d 85 70 da ff ff 	lea    -0x2590(%rbp),%rax
    da39:	48 89 85 40 f1 ff ff 	mov    %rax,-0xec0(%rbp)
    da40:	48 8d 85 70 da ff ff 	lea    -0x2590(%rbp),%rax
    da47:	48 89 85 48 f1 ff ff 	mov    %rax,-0xeb8(%rbp)
    da4e:	48 8d 85 90 dd ff ff 	lea    -0x2270(%rbp),%rax
    da55:	48 05 88 01 00 00    	add    $0x188,%rax
    da5b:	48 89 85 50 f1 ff ff 	mov    %rax,-0xeb0(%rbp)
    da62:	48 c7 85 58 f1 ff ff 	movq   $0x0,-0xea8(%rbp)
    da69:	00 00 00 00 
    da6d:	48 c7 85 60 f1 ff ff 	movq   $0x0,-0xea0(%rbp)
    da74:	00 00 00 00 
    da78:	48 8d 85 90 dd ff ff 	lea    -0x2270(%rbp),%rax
    da7f:	48 05 88 01 00 00    	add    $0x188,%rax
    da85:	48 89 85 68 f1 ff ff 	mov    %rax,-0xe98(%rbp)
    da8c:	48 8d 85 70 da ff ff 	lea    -0x2590(%rbp),%rax
    da93:	48 89 85 70 f1 ff ff 	mov    %rax,-0xe90(%rbp)
    da9a:	48 8d 85 90 dd ff ff 	lea    -0x2270(%rbp),%rax
    daa1:	48 05 88 01 00 00    	add    $0x188,%rax
    daa7:	48 89 85 78 f1 ff ff 	mov    %rax,-0xe88(%rbp)
    daae:	48 8d 05 ab f5 00 00 	lea    0xf5ab(%rip),%rax        # 1d060 <g_77+0x20>
    dab5:	48 89 85 80 f1 ff ff 	mov    %rax,-0xe80(%rbp)
    dabc:	48 c7 85 88 f1 ff ff 	movq   $0x0,-0xe78(%rbp)
    dac3:	00 00 00 00 
    dac7:	48 c7 85 90 f1 ff ff 	movq   $0x0,-0xe70(%rbp)
    dace:	00 00 00 00 
    dad2:	48 8d 05 87 f5 00 00 	lea    0xf587(%rip),%rax        # 1d060 <g_77+0x20>
    dad9:	48 89 85 98 f1 ff ff 	mov    %rax,-0xe68(%rbp)
    dae0:	48 8d 85 70 da ff ff 	lea    -0x2590(%rbp),%rax
    dae7:	48 89 85 a0 f1 ff ff 	mov    %rax,-0xe60(%rbp)
    daee:	48 8d 05 6b f5 00 00 	lea    0xf56b(%rip),%rax        # 1d060 <g_77+0x20>
    daf5:	48 89 85 a8 f1 ff ff 	mov    %rax,-0xe58(%rbp)
    dafc:	48 c7 85 b0 f1 ff ff 	movq   $0x0,-0xe50(%rbp)
    db03:	00 00 00 00 
    db07:	48 8d 85 88 d3 ff ff 	lea    -0x2c78(%rbp),%rax
    db0e:	48 89 85 b8 f1 ff ff 	mov    %rax,-0xe48(%rbp)
    db15:	48 8d 85 88 d3 ff ff 	lea    -0x2c78(%rbp),%rax
    db1c:	48 89 85 c0 f1 ff ff 	mov    %rax,-0xe40(%rbp)
    db23:	48 8d 85 70 da ff ff 	lea    -0x2590(%rbp),%rax
    db2a:	48 89 85 c8 f1 ff ff 	mov    %rax,-0xe38(%rbp)
    db31:	48 c7 85 d0 f1 ff ff 	movq   $0x0,-0xe30(%rbp)
    db38:	00 00 00 00 
    db3c:	48 8d 85 70 da ff ff 	lea    -0x2590(%rbp),%rax
    db43:	48 89 85 d8 f1 ff ff 	mov    %rax,-0xe28(%rbp)
    db4a:	48 8d 85 88 d3 ff ff 	lea    -0x2c78(%rbp),%rax
    db51:	48 89 85 e0 f1 ff ff 	mov    %rax,-0xe20(%rbp)
    db58:	48 8d 85 88 d3 ff ff 	lea    -0x2c78(%rbp),%rax
    db5f:	48 89 85 e8 f1 ff ff 	mov    %rax,-0xe18(%rbp)
    db66:	48 8d 05 4b f5 00 00 	lea    0xf54b(%rip),%rax        # 1d0b8 <g_257>
    db6d:	48 89 85 f0 f1 ff ff 	mov    %rax,-0xe10(%rbp)
    db74:	48 c7 85 f8 f1 ff ff 	movq   $0x0,-0xe08(%rbp)
    db7b:	00 00 00 00 
    db7f:	48 c7 85 00 f2 ff ff 	movq   $0x0,-0xe00(%rbp)
    db86:	00 00 00 00 
    db8a:	48 c7 85 08 f2 ff ff 	movq   $0x0,-0xdf8(%rbp)
    db91:	00 00 00 00 
    db95:	48 8d 05 1c f5 00 00 	lea    0xf51c(%rip),%rax        # 1d0b8 <g_257>
    db9c:	48 89 85 10 f2 ff ff 	mov    %rax,-0xdf0(%rbp)
    dba3:	48 8d 05 0e f5 00 00 	lea    0xf50e(%rip),%rax        # 1d0b8 <g_257>
    dbaa:	48 89 85 18 f2 ff ff 	mov    %rax,-0xde8(%rbp)
    dbb1:	48 c7 85 20 f2 ff ff 	movq   $0x0,-0xde0(%rbp)
    dbb8:	00 00 00 00 
    dbbc:	c6 85 59 d3 ff ff 00 	movb   $0x0,-0x2ca7(%rbp)
    dbc3:	0f b7 85 44 d3 ff ff 	movzwl -0x2cbc(%rbp),%eax
    dbca:	66 85 c0             	test   %ax,%ax
    dbcd:	75 30                	jne    dbff <func_50+0x374a>
    dbcf:	0f b6 85 59 d3 ff ff 	movzbl -0x2ca7(%rbp),%eax
    dbd6:	83 e8 01             	sub    $0x1,%eax
    dbd9:	88 85 59 d3 ff ff    	mov    %al,-0x2ca7(%rbp)
    dbdf:	8b 85 9c d3 ff ff    	mov    -0x2c64(%rbp),%eax
    dbe5:	83 c0 01             	add    $0x1,%eax
    dbe8:	89 85 9c d3 ff ff    	mov    %eax,-0x2c64(%rbp)
    dbee:	8b 85 9c d3 ff ff    	mov    -0x2c64(%rbp),%eax
    dbf4:	83 f8 16             	cmp    $0x16,%eax
    dbf7:	0f 8f 56 fc ff ff    	jg     d853 <func_50+0x339e>
    dbfd:	eb 01                	jmp    dc00 <func_50+0x374b>
    dbff:	90                   	nop
    dc00:	8b 85 a8 d3 ff ff    	mov    -0x2c58(%rbp),%eax
    dc06:	89 c3                	mov    %eax,%ebx
    dc08:	48 8b 05 19 0e 01 00 	mov    0x10e19(%rip),%rax        # 1ea28 <g_352>
    dc0f:	0f b7 10             	movzwl (%rax),%edx
    dc12:	48 8b 85 70 d4 ff ff 	mov    -0x2b90(%rbp),%rax
    dc19:	8b 00                	mov    (%rax),%eax
    dc1b:	89 c1                	mov    %eax,%ecx
    dc1d:	48 8b 05 04 0e 01 00 	mov    0x10e04(%rip),%rax        # 1ea28 <g_352>
    dc24:	09 ca                	or     %ecx,%edx
    dc26:	66 89 10             	mov    %dx,(%rax)
    dc29:	0f b7 00             	movzwl (%rax),%eax
    dc2c:	66 89 85 44 d3 ff ff 	mov    %ax,-0x2cbc(%rbp)
    dc33:	0f b7 85 44 d3 ff ff 	movzwl -0x2cbc(%rbp),%eax
    dc3a:	98                   	cwtl   
    dc3b:	39 85 4c d3 ff ff    	cmp    %eax,-0x2cb4(%rbp)
    dc41:	0f b6 05 7c f4 00 00 	movzbl 0xf47c(%rip),%eax        # 1d0c4 <g_294+0x4>
    dc48:	0f b6 c0             	movzbl %al,%eax
    dc4b:	39 85 10 d4 ff ff    	cmp    %eax,-0x2bf0(%rbp)
    dc51:	74 08                	je     dc5b <func_50+0x37a6>
    dc53:	8b 85 a4 d3 ff ff    	mov    -0x2c5c(%rbp),%eax
    dc59:	85 c0                	test   %eax,%eax
    dc5b:	be 00 00 00 00       	mov    $0x0,%esi
    dc60:	bf bb 84 ff ff       	mov    $0xffff84bb,%edi
    dc65:	e8 69 87 ff ff       	callq  63d3 <safe_sub_func_int16_t_s_s>
    dc6a:	98                   	cwtl   
    dc6b:	89 c6                	mov    %eax,%esi
    dc6d:	bf 00 00 00 00       	mov    $0x0,%edi
    dc72:	e8 86 92 ff ff       	callq  6efd <safe_mod_func_uint32_t_u_u>
    dc77:	8b 15 df 1b 01 00    	mov    0x11bdf(%rip),%edx        # 1f85c <g_320>
    dc7d:	39 d0                	cmp    %edx,%eax
    dc7f:	0f 96 c0             	setbe  %al
    dc82:	0f b6 c0             	movzbl %al,%eax
    dc85:	89 de                	mov    %ebx,%esi
    dc87:	89 c7                	mov    %eax,%edi
    dc89:	e8 60 86 ff ff       	callq  62ee <safe_lshift_func_int8_t_s_u>
    dc8e:	0f be c0             	movsbl %al,%eax
    dc91:	f7 d0                	not    %eax
    dc93:	89 c2                	mov    %eax,%edx
    dc95:	8b 85 90 d3 ff ff    	mov    -0x2c70(%rbp),%eax
    dc9b:	0f be c0             	movsbl %al,%eax
    dc9e:	89 d6                	mov    %edx,%esi
    dca0:	89 c7                	mov    %eax,%edi
    dca2:	e8 8e 86 ff ff       	callq  6335 <safe_rshift_func_int8_t_s_s>
    dca7:	66 c7 85 60 d3 ff ff 	movw   $0x2,-0x2ca0(%rbp)
    dcae:	02 00 
    dcb0:	48 8d 05 5d f4 00 00 	lea    0xf45d(%rip),%rax        # 1d114 <g_798>
    dcb7:	48 89 85 50 d6 ff ff 	mov    %rax,-0x29b0(%rbp)
    dcbe:	48 8d 85 88 d4 ff ff 	lea    -0x2b78(%rbp),%rax
    dcc5:	48 89 85 58 d6 ff ff 	mov    %rax,-0x29a8(%rbp)
    dccc:	48 8d 05 6d f4 00 00 	lea    0xf46d(%rip),%rax        # 1d140 <g_1109>
    dcd3:	48 89 85 60 d6 ff ff 	mov    %rax,-0x29a0(%rbp)
    dcda:	48 8d 05 eb f3 00 00 	lea    0xf3eb(%rip),%rax        # 1d0cc <g_296>
    dce1:	48 89 85 b0 db ff ff 	mov    %rax,-0x2450(%rbp)
    dce8:	48 8d 85 8c d3 ff ff 	lea    -0x2c74(%rbp),%rax
    dcef:	48 89 85 b8 db ff ff 	mov    %rax,-0x2448(%rbp)
    dcf6:	48 8d 85 8c d3 ff ff 	lea    -0x2c74(%rbp),%rax
    dcfd:	48 89 85 c0 db ff ff 	mov    %rax,-0x2440(%rbp)
    dd04:	48 8d 85 78 d3 ff ff 	lea    -0x2c88(%rbp),%rax
    dd0b:	48 89 85 c8 db ff ff 	mov    %rax,-0x2438(%rbp)
    dd12:	48 8d 85 78 d3 ff ff 	lea    -0x2c88(%rbp),%rax
    dd19:	48 89 85 d0 db ff ff 	mov    %rax,-0x2430(%rbp)
    dd20:	48 8d 05 a5 f3 00 00 	lea    0xf3a5(%rip),%rax        # 1d0cc <g_296>
    dd27:	48 89 85 d8 db ff ff 	mov    %rax,-0x2428(%rbp)
    dd2e:	48 c7 85 e0 db ff ff 	movq   $0x0,-0x2420(%rbp)
    dd35:	00 00 00 00 
    dd39:	48 8d 85 78 d3 ff ff 	lea    -0x2c88(%rbp),%rax
    dd40:	48 89 85 e8 db ff ff 	mov    %rax,-0x2418(%rbp)
    dd47:	48 c7 85 f0 db ff ff 	movq   $0x0,-0x2410(%rbp)
    dd4e:	00 00 00 00 
    dd52:	48 8d 05 73 f3 00 00 	lea    0xf373(%rip),%rax        # 1d0cc <g_296>
    dd59:	48 89 85 f8 db ff ff 	mov    %rax,-0x2408(%rbp)
    dd60:	48 8d 85 8c d3 ff ff 	lea    -0x2c74(%rbp),%rax
    dd67:	48 89 85 00 dc ff ff 	mov    %rax,-0x2400(%rbp)
    dd6e:	48 c7 85 08 dc ff ff 	movq   $0x0,-0x23f8(%rbp)
    dd75:	00 00 00 00 
    dd79:	48 8d 85 78 d3 ff ff 	lea    -0x2c88(%rbp),%rax
    dd80:	48 89 85 10 dc ff ff 	mov    %rax,-0x23f0(%rbp)
    dd87:	48 8d 05 3e f3 00 00 	lea    0xf33e(%rip),%rax        # 1d0cc <g_296>
    dd8e:	48 89 85 18 dc ff ff 	mov    %rax,-0x23e8(%rbp)
    dd95:	48 8d 05 30 f3 00 00 	lea    0xf330(%rip),%rax        # 1d0cc <g_296>
    dd9c:	48 89 85 20 dc ff ff 	mov    %rax,-0x23e0(%rbp)
    dda3:	48 8d 05 22 f3 00 00 	lea    0xf322(%rip),%rax        # 1d0cc <g_296>
    ddaa:	48 89 85 28 dc ff ff 	mov    %rax,-0x23d8(%rbp)
    ddb1:	48 8d 05 14 f3 00 00 	lea    0xf314(%rip),%rax        # 1d0cc <g_296>
    ddb8:	48 89 85 30 dc ff ff 	mov    %rax,-0x23d0(%rbp)
    ddbf:	48 8d 85 78 d3 ff ff 	lea    -0x2c88(%rbp),%rax
    ddc6:	48 89 85 38 dc ff ff 	mov    %rax,-0x23c8(%rbp)
    ddcd:	48 c7 85 40 dc ff ff 	movq   $0x0,-0x23c0(%rbp)
    ddd4:	00 00 00 00 
    ddd8:	48 8d 85 8c d3 ff ff 	lea    -0x2c74(%rbp),%rax
    dddf:	48 89 85 48 dc ff ff 	mov    %rax,-0x23b8(%rbp)
    dde6:	48 8d 05 df f2 00 00 	lea    0xf2df(%rip),%rax        # 1d0cc <g_296>
    dded:	48 89 85 50 dc ff ff 	mov    %rax,-0x23b0(%rbp)
    ddf4:	48 c7 85 58 dc ff ff 	movq   $0x0,-0x23a8(%rbp)
    ddfb:	00 00 00 00 
    ddff:	48 8d 85 78 d3 ff ff 	lea    -0x2c88(%rbp),%rax
    de06:	48 89 85 60 dc ff ff 	mov    %rax,-0x23a0(%rbp)
    de0d:	48 c7 85 68 dc ff ff 	movq   $0x0,-0x2398(%rbp)
    de14:	00 00 00 00 
    de18:	48 8d 05 ad f2 00 00 	lea    0xf2ad(%rip),%rax        # 1d0cc <g_296>
    de1f:	48 89 85 70 dc ff ff 	mov    %rax,-0x2390(%rbp)
    de26:	48 8d 85 78 d3 ff ff 	lea    -0x2c88(%rbp),%rax
    de2d:	48 89 85 78 dc ff ff 	mov    %rax,-0x2388(%rbp)
    de34:	48 8d 85 78 d3 ff ff 	lea    -0x2c88(%rbp),%rax
    de3b:	48 89 85 80 dc ff ff 	mov    %rax,-0x2380(%rbp)
    de42:	48 8d 85 8c d3 ff ff 	lea    -0x2c74(%rbp),%rax
    de49:	48 89 85 88 dc ff ff 	mov    %rax,-0x2378(%rbp)
    de50:	48 8d 85 8c d3 ff ff 	lea    -0x2c74(%rbp),%rax
    de57:	48 89 85 90 dc ff ff 	mov    %rax,-0x2370(%rbp)
    de5e:	48 8d 05 67 f2 00 00 	lea    0xf267(%rip),%rax        # 1d0cc <g_296>
    de65:	48 89 85 98 dc ff ff 	mov    %rax,-0x2368(%rbp)
    de6c:	48 8d 05 59 f2 00 00 	lea    0xf259(%rip),%rax        # 1d0cc <g_296>
    de73:	48 89 85 a0 dc ff ff 	mov    %rax,-0x2360(%rbp)
    de7a:	48 8d 05 4b f2 00 00 	lea    0xf24b(%rip),%rax        # 1d0cc <g_296>
    de81:	48 89 85 a8 dc ff ff 	mov    %rax,-0x2358(%rbp)
    de88:	48 8d 85 8c d3 ff ff 	lea    -0x2c74(%rbp),%rax
    de8f:	48 89 85 b0 dc ff ff 	mov    %rax,-0x2350(%rbp)
    de96:	48 c7 85 b8 dc ff ff 	movq   $0x0,-0x2348(%rbp)
    de9d:	00 00 00 00 
    dea1:	48 8d 85 78 d3 ff ff 	lea    -0x2c88(%rbp),%rax
    dea8:	48 89 85 c0 dc ff ff 	mov    %rax,-0x2340(%rbp)
    deaf:	48 8d 85 8c d3 ff ff 	lea    -0x2c74(%rbp),%rax
    deb6:	48 89 85 c8 dc ff ff 	mov    %rax,-0x2338(%rbp)
    debd:	48 c7 85 d0 dc ff ff 	movq   $0x0,-0x2330(%rbp)
    dec4:	00 00 00 00 
    dec8:	48 8d 85 78 d3 ff ff 	lea    -0x2c88(%rbp),%rax
    decf:	48 89 85 d8 dc ff ff 	mov    %rax,-0x2328(%rbp)
    ded6:	48 8d 85 8c d3 ff ff 	lea    -0x2c74(%rbp),%rax
    dedd:	48 89 85 e0 dc ff ff 	mov    %rax,-0x2320(%rbp)
    dee4:	48 8d 05 e1 f1 00 00 	lea    0xf1e1(%rip),%rax        # 1d0cc <g_296>
    deeb:	48 89 85 e8 dc ff ff 	mov    %rax,-0x2318(%rbp)
    def2:	48 8d 85 8c d3 ff ff 	lea    -0x2c74(%rbp),%rax
    def9:	48 89 85 f0 dc ff ff 	mov    %rax,-0x2310(%rbp)
    df00:	48 8d 85 78 d3 ff ff 	lea    -0x2c88(%rbp),%rax
    df07:	48 89 85 f8 dc ff ff 	mov    %rax,-0x2308(%rbp)
    df0e:	48 8d 85 78 d3 ff ff 	lea    -0x2c88(%rbp),%rax
    df15:	48 89 85 00 dd ff ff 	mov    %rax,-0x2300(%rbp)
    df1c:	48 8d 85 78 d3 ff ff 	lea    -0x2c88(%rbp),%rax
    df23:	48 89 85 08 dd ff ff 	mov    %rax,-0x22f8(%rbp)
    df2a:	48 8d 85 8c d3 ff ff 	lea    -0x2c74(%rbp),%rax
    df31:	48 89 85 10 dd ff ff 	mov    %rax,-0x22f0(%rbp)
    df38:	48 8d 05 8d f1 00 00 	lea    0xf18d(%rip),%rax        # 1d0cc <g_296>
    df3f:	48 89 85 18 dd ff ff 	mov    %rax,-0x22e8(%rbp)
    df46:	48 8d 05 7f f1 00 00 	lea    0xf17f(%rip),%rax        # 1d0cc <g_296>
    df4d:	48 89 85 20 dd ff ff 	mov    %rax,-0x22e0(%rbp)
    df54:	48 8d 85 78 d3 ff ff 	lea    -0x2c88(%rbp),%rax
    df5b:	48 89 85 28 dd ff ff 	mov    %rax,-0x22d8(%rbp)
    df62:	48 c7 85 30 dd ff ff 	movq   $0x0,-0x22d0(%rbp)
    df69:	00 00 00 00 
    df6d:	48 c7 85 38 dd ff ff 	movq   $0x0,-0x22c8(%rbp)
    df74:	00 00 00 00 
    df78:	48 8d 85 78 d3 ff ff 	lea    -0x2c88(%rbp),%rax
    df7f:	48 89 85 40 dd ff ff 	mov    %rax,-0x22c0(%rbp)
    df86:	48 8d 85 78 d3 ff ff 	lea    -0x2c88(%rbp),%rax
    df8d:	48 89 85 48 dd ff ff 	mov    %rax,-0x22b8(%rbp)
    df94:	48 8d 85 78 d3 ff ff 	lea    -0x2c88(%rbp),%rax
    df9b:	48 89 85 50 dd ff ff 	mov    %rax,-0x22b0(%rbp)
    dfa2:	48 8d 85 8c d3 ff ff 	lea    -0x2c74(%rbp),%rax
    dfa9:	48 89 85 58 dd ff ff 	mov    %rax,-0x22a8(%rbp)
    dfb0:	48 8d 05 15 f1 00 00 	lea    0xf115(%rip),%rax        # 1d0cc <g_296>
    dfb7:	48 89 85 60 dd ff ff 	mov    %rax,-0x22a0(%rbp)
    dfbe:	48 c7 85 68 dd ff ff 	movq   $0x0,-0x2298(%rbp)
    dfc5:	00 00 00 00 
    dfc9:	48 8d 85 8c d3 ff ff 	lea    -0x2c74(%rbp),%rax
    dfd0:	48 89 85 70 dd ff ff 	mov    %rax,-0x2290(%rbp)
    dfd7:	48 8d 85 8c d3 ff ff 	lea    -0x2c74(%rbp),%rax
    dfde:	48 89 85 78 dd ff ff 	mov    %rax,-0x2288(%rbp)
    dfe5:	48 8d 05 e0 f0 00 00 	lea    0xf0e0(%rip),%rax        # 1d0cc <g_296>
    dfec:	48 89 85 80 dd ff ff 	mov    %rax,-0x2280(%rbp)
    dff3:	48 8d 05 d2 f0 00 00 	lea    0xf0d2(%rip),%rax        # 1d0cc <g_296>
    dffa:	48 89 85 88 dd ff ff 	mov    %rax,-0x2278(%rbp)
    e001:	48 8d 05 90 18 01 00 	lea    0x11890(%rip),%rax        # 1f898 <g_1476>
    e008:	48 89 85 68 d6 ff ff 	mov    %rax,-0x2998(%rbp)
    e00f:	48 8d 85 b0 d4 ff ff 	lea    -0x2b50(%rbp),%rax
    e016:	48 89 85 30 f0 ff ff 	mov    %rax,-0xfd0(%rbp)
    e01d:	48 8d 85 b0 d4 ff ff 	lea    -0x2b50(%rbp),%rax
    e024:	48 89 85 38 f0 ff ff 	mov    %rax,-0xfc8(%rbp)
    e02b:	48 c7 85 40 f0 ff ff 	movq   $0x0,-0xfc0(%rbp)
    e032:	00 00 00 00 
    e036:	48 c7 85 48 f0 ff ff 	movq   $0x0,-0xfb8(%rbp)
    e03d:	00 00 00 00 
    e041:	48 8d 85 b0 d4 ff ff 	lea    -0x2b50(%rbp),%rax
    e048:	48 89 85 50 f0 ff ff 	mov    %rax,-0xfb0(%rbp)
    e04f:	48 c7 85 58 f0 ff ff 	movq   $0x0,-0xfa8(%rbp)
    e056:	00 00 00 00 
    e05a:	48 c7 85 60 f0 ff ff 	movq   $0x0,-0xfa0(%rbp)
    e061:	00 00 00 00 
    e065:	48 8d 85 b0 d4 ff ff 	lea    -0x2b50(%rbp),%rax
    e06c:	48 89 85 68 f0 ff ff 	mov    %rax,-0xf98(%rbp)
    e073:	48 c7 85 70 f0 ff ff 	movq   $0x0,-0xf90(%rbp)
    e07a:	00 00 00 00 
    e07e:	48 8d 85 b0 d4 ff ff 	lea    -0x2b50(%rbp),%rax
    e085:	48 89 85 78 f0 ff ff 	mov    %rax,-0xf88(%rbp)
    e08c:	48 8d 85 b0 d4 ff ff 	lea    -0x2b50(%rbp),%rax
    e093:	48 89 85 80 f0 ff ff 	mov    %rax,-0xf80(%rbp)
    e09a:	48 c7 85 88 f0 ff ff 	movq   $0x0,-0xf78(%rbp)
    e0a1:	00 00 00 00 
    e0a5:	48 8d 85 b0 d4 ff ff 	lea    -0x2b50(%rbp),%rax
    e0ac:	48 89 85 90 f0 ff ff 	mov    %rax,-0xf70(%rbp)
    e0b3:	48 8d 85 b0 d4 ff ff 	lea    -0x2b50(%rbp),%rax
    e0ba:	48 89 85 98 f0 ff ff 	mov    %rax,-0xf68(%rbp)
    e0c1:	48 c7 85 a0 f0 ff ff 	movq   $0x0,-0xf60(%rbp)
    e0c8:	00 00 00 00 
    e0cc:	48 8d 85 b0 d4 ff ff 	lea    -0x2b50(%rbp),%rax
    e0d3:	48 89 85 a8 f0 ff ff 	mov    %rax,-0xf58(%rbp)
    e0da:	48 8d 85 b0 d4 ff ff 	lea    -0x2b50(%rbp),%rax
    e0e1:	48 89 85 b0 f0 ff ff 	mov    %rax,-0xf50(%rbp)
    e0e8:	48 8d 85 b0 d4 ff ff 	lea    -0x2b50(%rbp),%rax
    e0ef:	48 89 85 b8 f0 ff ff 	mov    %rax,-0xf48(%rbp)
    e0f6:	48 8d 85 b0 d4 ff ff 	lea    -0x2b50(%rbp),%rax
    e0fd:	48 89 85 c0 f0 ff ff 	mov    %rax,-0xf40(%rbp)
    e104:	48 c7 85 c8 f0 ff ff 	movq   $0x0,-0xf38(%rbp)
    e10b:	00 00 00 00 
    e10f:	48 8d 85 b0 d4 ff ff 	lea    -0x2b50(%rbp),%rax
    e116:	48 89 85 d0 f0 ff ff 	mov    %rax,-0xf30(%rbp)
    e11d:	48 8d 85 b0 d4 ff ff 	lea    -0x2b50(%rbp),%rax
    e124:	48 89 85 d8 f0 ff ff 	mov    %rax,-0xf28(%rbp)
    e12b:	48 8d 85 b0 d4 ff ff 	lea    -0x2b50(%rbp),%rax
    e132:	48 89 85 e0 f0 ff ff 	mov    %rax,-0xf20(%rbp)
    e139:	48 8d 85 b0 d4 ff ff 	lea    -0x2b50(%rbp),%rax
    e140:	48 89 85 e8 f0 ff ff 	mov    %rax,-0xf18(%rbp)
    e147:	48 8d 85 b0 d4 ff ff 	lea    -0x2b50(%rbp),%rax
    e14e:	48 89 85 f0 f0 ff ff 	mov    %rax,-0xf10(%rbp)
    e155:	48 8d 85 b0 d4 ff ff 	lea    -0x2b50(%rbp),%rax
    e15c:	48 89 85 f8 f0 ff ff 	mov    %rax,-0xf08(%rbp)
    e163:	48 8d 85 b0 d4 ff ff 	lea    -0x2b50(%rbp),%rax
    e16a:	48 89 85 00 f1 ff ff 	mov    %rax,-0xf00(%rbp)
    e171:	48 8d 85 b0 d4 ff ff 	lea    -0x2b50(%rbp),%rax
    e178:	48 89 85 08 f1 ff ff 	mov    %rax,-0xef8(%rbp)
    e17f:	48 8d 85 b0 d4 ff ff 	lea    -0x2b50(%rbp),%rax
    e186:	48 89 85 10 f1 ff ff 	mov    %rax,-0xef0(%rbp)
    e18d:	48 8d 85 b0 d4 ff ff 	lea    -0x2b50(%rbp),%rax
    e194:	48 89 85 18 f1 ff ff 	mov    %rax,-0xee8(%rbp)
    e19b:	48 8d 85 b0 d4 ff ff 	lea    -0x2b50(%rbp),%rax
    e1a2:	48 89 85 20 f1 ff ff 	mov    %rax,-0xee0(%rbp)
    e1a9:	48 8d 85 b0 d4 ff ff 	lea    -0x2b50(%rbp),%rax
    e1b0:	48 89 85 28 f1 ff ff 	mov    %rax,-0xed8(%rbp)
    e1b7:	48 8d 85 b0 d4 ff ff 	lea    -0x2b50(%rbp),%rax
    e1be:	48 89 85 30 f1 ff ff 	mov    %rax,-0xed0(%rbp)
    e1c5:	48 8d 85 b0 d4 ff ff 	lea    -0x2b50(%rbp),%rax
    e1cc:	48 89 85 38 f1 ff ff 	mov    %rax,-0xec8(%rbp)
    e1d3:	48 8d 85 b0 d4 ff ff 	lea    -0x2b50(%rbp),%rax
    e1da:	48 89 85 40 f1 ff ff 	mov    %rax,-0xec0(%rbp)
    e1e1:	48 8d 85 b0 d4 ff ff 	lea    -0x2b50(%rbp),%rax
    e1e8:	48 89 85 48 f1 ff ff 	mov    %rax,-0xeb8(%rbp)
    e1ef:	48 c7 85 50 f1 ff ff 	movq   $0x0,-0xeb0(%rbp)
    e1f6:	00 00 00 00 
    e1fa:	48 8d 85 b0 d4 ff ff 	lea    -0x2b50(%rbp),%rax
    e201:	48 89 85 58 f1 ff ff 	mov    %rax,-0xea8(%rbp)
    e208:	48 8d 85 b0 d4 ff ff 	lea    -0x2b50(%rbp),%rax
    e20f:	48 89 85 60 f1 ff ff 	mov    %rax,-0xea0(%rbp)
    e216:	48 8d 85 b0 d4 ff ff 	lea    -0x2b50(%rbp),%rax
    e21d:	48 89 85 68 f1 ff ff 	mov    %rax,-0xe98(%rbp)
    e224:	48 c7 85 70 f1 ff ff 	movq   $0x0,-0xe90(%rbp)
    e22b:	00 00 00 00 
    e22f:	48 8d 85 b0 d4 ff ff 	lea    -0x2b50(%rbp),%rax
    e236:	48 89 85 78 f1 ff ff 	mov    %rax,-0xe88(%rbp)
    e23d:	48 8d 85 b0 d4 ff ff 	lea    -0x2b50(%rbp),%rax
    e244:	48 89 85 80 f1 ff ff 	mov    %rax,-0xe80(%rbp)
    e24b:	48 c7 85 88 f1 ff ff 	movq   $0x0,-0xe78(%rbp)
    e252:	00 00 00 00 
    e256:	48 8d 85 b0 d4 ff ff 	lea    -0x2b50(%rbp),%rax
    e25d:	48 89 85 90 f1 ff ff 	mov    %rax,-0xe70(%rbp)
    e264:	48 c7 85 98 f1 ff ff 	movq   $0x0,-0xe68(%rbp)
    e26b:	00 00 00 00 
    e26f:	48 8d 85 b0 d4 ff ff 	lea    -0x2b50(%rbp),%rax
    e276:	48 89 85 a0 f1 ff ff 	mov    %rax,-0xe60(%rbp)
    e27d:	48 8d 85 b0 d4 ff ff 	lea    -0x2b50(%rbp),%rax
    e284:	48 89 85 a8 f1 ff ff 	mov    %rax,-0xe58(%rbp)
    e28b:	48 c7 85 b0 f1 ff ff 	movq   $0x0,-0xe50(%rbp)
    e292:	00 00 00 00 
    e296:	48 8d 85 b0 d4 ff ff 	lea    -0x2b50(%rbp),%rax
    e29d:	48 89 85 b8 f1 ff ff 	mov    %rax,-0xe48(%rbp)
    e2a4:	48 8d 85 b0 d4 ff ff 	lea    -0x2b50(%rbp),%rax
    e2ab:	48 89 85 c0 f1 ff ff 	mov    %rax,-0xe40(%rbp)
    e2b2:	48 8d 85 b0 d4 ff ff 	lea    -0x2b50(%rbp),%rax
    e2b9:	48 89 85 c8 f1 ff ff 	mov    %rax,-0xe38(%rbp)
    e2c0:	48 8d 85 b0 d4 ff ff 	lea    -0x2b50(%rbp),%rax
    e2c7:	48 89 85 d0 f1 ff ff 	mov    %rax,-0xe30(%rbp)
    e2ce:	48 c7 85 d8 f1 ff ff 	movq   $0x0,-0xe28(%rbp)
    e2d5:	00 00 00 00 
    e2d9:	48 8d 85 b0 d4 ff ff 	lea    -0x2b50(%rbp),%rax
    e2e0:	48 89 85 e0 f1 ff ff 	mov    %rax,-0xe20(%rbp)
    e2e7:	48 8d 85 b0 d4 ff ff 	lea    -0x2b50(%rbp),%rax
    e2ee:	48 89 85 e8 f1 ff ff 	mov    %rax,-0xe18(%rbp)
    e2f5:	48 8d 85 b0 d4 ff ff 	lea    -0x2b50(%rbp),%rax
    e2fc:	48 89 85 f0 f1 ff ff 	mov    %rax,-0xe10(%rbp)
    e303:	48 8d 85 b0 d4 ff ff 	lea    -0x2b50(%rbp),%rax
    e30a:	48 89 85 f8 f1 ff ff 	mov    %rax,-0xe08(%rbp)
    e311:	48 8d 85 b0 d4 ff ff 	lea    -0x2b50(%rbp),%rax
    e318:	48 89 85 00 f2 ff ff 	mov    %rax,-0xe00(%rbp)
    e31f:	48 8d 85 b0 d4 ff ff 	lea    -0x2b50(%rbp),%rax
    e326:	48 89 85 08 f2 ff ff 	mov    %rax,-0xdf8(%rbp)
    e32d:	48 c7 85 10 f2 ff ff 	movq   $0x0,-0xdf0(%rbp)
    e334:	00 00 00 00 
    e338:	48 c7 85 18 f2 ff ff 	movq   $0x0,-0xde8(%rbp)
    e33f:	00 00 00 00 
    e343:	48 c7 85 20 f2 ff ff 	movq   $0x0,-0xde0(%rbp)
    e34a:	00 00 00 00 
    e34e:	48 8d 85 b0 d4 ff ff 	lea    -0x2b50(%rbp),%rax
    e355:	48 89 85 28 f2 ff ff 	mov    %rax,-0xdd8(%rbp)
    e35c:	48 8d 85 b0 d4 ff ff 	lea    -0x2b50(%rbp),%rax
    e363:	48 89 85 30 f2 ff ff 	mov    %rax,-0xdd0(%rbp)
    e36a:	48 8d 85 b0 d4 ff ff 	lea    -0x2b50(%rbp),%rax
    e371:	48 89 85 38 f2 ff ff 	mov    %rax,-0xdc8(%rbp)
    e378:	48 8d 85 b0 d4 ff ff 	lea    -0x2b50(%rbp),%rax
    e37f:	48 89 85 40 f2 ff ff 	mov    %rax,-0xdc0(%rbp)
    e386:	48 8d 85 b0 d4 ff ff 	lea    -0x2b50(%rbp),%rax
    e38d:	48 89 85 48 f2 ff ff 	mov    %rax,-0xdb8(%rbp)
    e394:	48 8d 85 b0 d4 ff ff 	lea    -0x2b50(%rbp),%rax
    e39b:	48 89 85 50 f2 ff ff 	mov    %rax,-0xdb0(%rbp)
    e3a2:	48 c7 85 58 f2 ff ff 	movq   $0x0,-0xda8(%rbp)
    e3a9:	00 00 00 00 
    e3ad:	48 8d 85 b0 d4 ff ff 	lea    -0x2b50(%rbp),%rax
    e3b4:	48 89 85 60 f2 ff ff 	mov    %rax,-0xda0(%rbp)
    e3bb:	48 8d 85 b0 d4 ff ff 	lea    -0x2b50(%rbp),%rax
    e3c2:	48 89 85 68 f2 ff ff 	mov    %rax,-0xd98(%rbp)
    e3c9:	48 8d 85 b0 d4 ff ff 	lea    -0x2b50(%rbp),%rax
    e3d0:	48 89 85 70 f2 ff ff 	mov    %rax,-0xd90(%rbp)
    e3d7:	48 c7 85 78 f2 ff ff 	movq   $0x0,-0xd88(%rbp)
    e3de:	00 00 00 00 
    e3e2:	48 8d 85 b0 d4 ff ff 	lea    -0x2b50(%rbp),%rax
    e3e9:	48 89 85 80 f2 ff ff 	mov    %rax,-0xd80(%rbp)
    e3f0:	48 8d 85 b0 d4 ff ff 	lea    -0x2b50(%rbp),%rax
    e3f7:	48 89 85 88 f2 ff ff 	mov    %rax,-0xd78(%rbp)
    e3fe:	48 8d 85 b0 d4 ff ff 	lea    -0x2b50(%rbp),%rax
    e405:	48 89 85 90 f2 ff ff 	mov    %rax,-0xd70(%rbp)
    e40c:	48 8d 85 b0 d4 ff ff 	lea    -0x2b50(%rbp),%rax
    e413:	48 89 85 98 f2 ff ff 	mov    %rax,-0xd68(%rbp)
    e41a:	48 8d 85 b0 d4 ff ff 	lea    -0x2b50(%rbp),%rax
    e421:	48 89 85 a0 f2 ff ff 	mov    %rax,-0xd60(%rbp)
    e428:	48 8d 85 b0 d4 ff ff 	lea    -0x2b50(%rbp),%rax
    e42f:	48 89 85 a8 f2 ff ff 	mov    %rax,-0xd58(%rbp)
    e436:	48 8d 85 b0 d4 ff ff 	lea    -0x2b50(%rbp),%rax
    e43d:	48 89 85 b0 f2 ff ff 	mov    %rax,-0xd50(%rbp)
    e444:	48 8d 85 b0 d4 ff ff 	lea    -0x2b50(%rbp),%rax
    e44b:	48 89 85 b8 f2 ff ff 	mov    %rax,-0xd48(%rbp)
    e452:	48 8d 85 b0 d4 ff ff 	lea    -0x2b50(%rbp),%rax
    e459:	48 89 85 c0 f2 ff ff 	mov    %rax,-0xd40(%rbp)
    e460:	48 8d 85 b0 d4 ff ff 	lea    -0x2b50(%rbp),%rax
    e467:	48 89 85 c8 f2 ff ff 	mov    %rax,-0xd38(%rbp)
    e46e:	48 8d 85 b0 d4 ff ff 	lea    -0x2b50(%rbp),%rax
    e475:	48 89 85 d0 f2 ff ff 	mov    %rax,-0xd30(%rbp)
    e47c:	48 c7 85 d8 f2 ff ff 	movq   $0x0,-0xd28(%rbp)
    e483:	00 00 00 00 
    e487:	48 8d 85 b0 d4 ff ff 	lea    -0x2b50(%rbp),%rax
    e48e:	48 89 85 e0 f2 ff ff 	mov    %rax,-0xd20(%rbp)
    e495:	48 c7 85 e8 f2 ff ff 	movq   $0x0,-0xd18(%rbp)
    e49c:	00 00 00 00 
    e4a0:	48 8d 85 b0 d4 ff ff 	lea    -0x2b50(%rbp),%rax
    e4a7:	48 89 85 f0 f2 ff ff 	mov    %rax,-0xd10(%rbp)
    e4ae:	48 8d 85 b0 d4 ff ff 	lea    -0x2b50(%rbp),%rax
    e4b5:	48 89 85 f8 f2 ff ff 	mov    %rax,-0xd08(%rbp)
    e4bc:	48 8d 85 b0 d4 ff ff 	lea    -0x2b50(%rbp),%rax
    e4c3:	48 89 85 00 f3 ff ff 	mov    %rax,-0xd00(%rbp)
    e4ca:	48 8d 85 b0 d4 ff ff 	lea    -0x2b50(%rbp),%rax
    e4d1:	48 89 85 08 f3 ff ff 	mov    %rax,-0xcf8(%rbp)
    e4d8:	48 8d 85 b0 d4 ff ff 	lea    -0x2b50(%rbp),%rax
    e4df:	48 89 85 10 f3 ff ff 	mov    %rax,-0xcf0(%rbp)
    e4e6:	48 c7 85 18 f3 ff ff 	movq   $0x0,-0xce8(%rbp)
    e4ed:	00 00 00 00 
    e4f1:	48 8d 85 b0 d4 ff ff 	lea    -0x2b50(%rbp),%rax
    e4f8:	48 89 85 20 f3 ff ff 	mov    %rax,-0xce0(%rbp)
    e4ff:	48 8d 85 b0 d4 ff ff 	lea    -0x2b50(%rbp),%rax
    e506:	48 89 85 28 f3 ff ff 	mov    %rax,-0xcd8(%rbp)
    e50d:	48 8d 85 b0 d4 ff ff 	lea    -0x2b50(%rbp),%rax
    e514:	48 89 85 30 f3 ff ff 	mov    %rax,-0xcd0(%rbp)
    e51b:	48 8d 85 b0 d4 ff ff 	lea    -0x2b50(%rbp),%rax
    e522:	48 89 85 38 f3 ff ff 	mov    %rax,-0xcc8(%rbp)
    e529:	48 8d 85 b0 d4 ff ff 	lea    -0x2b50(%rbp),%rax
    e530:	48 89 85 40 f3 ff ff 	mov    %rax,-0xcc0(%rbp)
    e537:	48 c7 85 48 f3 ff ff 	movq   $0x0,-0xcb8(%rbp)
    e53e:	00 00 00 00 
    e542:	48 8d 85 b0 d4 ff ff 	lea    -0x2b50(%rbp),%rax
    e549:	48 89 85 50 f3 ff ff 	mov    %rax,-0xcb0(%rbp)
    e550:	48 8d 85 b0 d4 ff ff 	lea    -0x2b50(%rbp),%rax
    e557:	48 89 85 58 f3 ff ff 	mov    %rax,-0xca8(%rbp)
    e55e:	48 8d 85 b0 d4 ff ff 	lea    -0x2b50(%rbp),%rax
    e565:	48 89 85 60 f3 ff ff 	mov    %rax,-0xca0(%rbp)
    e56c:	48 8d 85 b0 d4 ff ff 	lea    -0x2b50(%rbp),%rax
    e573:	48 89 85 68 f3 ff ff 	mov    %rax,-0xc98(%rbp)
    e57a:	48 c7 85 70 f3 ff ff 	movq   $0x0,-0xc90(%rbp)
    e581:	00 00 00 00 
    e585:	48 8d 85 b0 d4 ff ff 	lea    -0x2b50(%rbp),%rax
    e58c:	48 89 85 78 f3 ff ff 	mov    %rax,-0xc88(%rbp)
    e593:	48 c7 85 80 f3 ff ff 	movq   $0x0,-0xc80(%rbp)
    e59a:	00 00 00 00 
    e59e:	48 8d 85 b0 d4 ff ff 	lea    -0x2b50(%rbp),%rax
    e5a5:	48 89 85 88 f3 ff ff 	mov    %rax,-0xc78(%rbp)
    e5ac:	48 8d 85 b0 d4 ff ff 	lea    -0x2b50(%rbp),%rax
    e5b3:	48 89 85 90 f3 ff ff 	mov    %rax,-0xc70(%rbp)
    e5ba:	48 c7 85 98 f3 ff ff 	movq   $0x0,-0xc68(%rbp)
    e5c1:	00 00 00 00 
    e5c5:	48 8d 85 b0 d4 ff ff 	lea    -0x2b50(%rbp),%rax
    e5cc:	48 89 85 a0 f3 ff ff 	mov    %rax,-0xc60(%rbp)
    e5d3:	48 c7 85 a8 f3 ff ff 	movq   $0x0,-0xc58(%rbp)
    e5da:	00 00 00 00 
    e5de:	48 8d 85 b0 d4 ff ff 	lea    -0x2b50(%rbp),%rax
    e5e5:	48 89 85 b0 f3 ff ff 	mov    %rax,-0xc50(%rbp)
    e5ec:	48 8d 85 b0 d4 ff ff 	lea    -0x2b50(%rbp),%rax
    e5f3:	48 89 85 b8 f3 ff ff 	mov    %rax,-0xc48(%rbp)
    e5fa:	48 c7 85 c0 f3 ff ff 	movq   $0x0,-0xc40(%rbp)
    e601:	00 00 00 00 
    e605:	48 8d 85 b0 d4 ff ff 	lea    -0x2b50(%rbp),%rax
    e60c:	48 89 85 c8 f3 ff ff 	mov    %rax,-0xc38(%rbp)
    e613:	48 8d 85 b0 d4 ff ff 	lea    -0x2b50(%rbp),%rax
    e61a:	48 89 85 d0 f3 ff ff 	mov    %rax,-0xc30(%rbp)
    e621:	48 c7 85 d8 f3 ff ff 	movq   $0x0,-0xc28(%rbp)
    e628:	00 00 00 00 
    e62c:	48 8d 85 b0 d4 ff ff 	lea    -0x2b50(%rbp),%rax
    e633:	48 89 85 e0 f3 ff ff 	mov    %rax,-0xc20(%rbp)
    e63a:	48 8d 85 b0 d4 ff ff 	lea    -0x2b50(%rbp),%rax
    e641:	48 89 85 e8 f3 ff ff 	mov    %rax,-0xc18(%rbp)
    e648:	48 8d 85 b0 d4 ff ff 	lea    -0x2b50(%rbp),%rax
    e64f:	48 89 85 f0 f3 ff ff 	mov    %rax,-0xc10(%rbp)
    e656:	48 8d 85 b0 d4 ff ff 	lea    -0x2b50(%rbp),%rax
    e65d:	48 89 85 f8 f3 ff ff 	mov    %rax,-0xc08(%rbp)
    e664:	48 8d 85 b0 d4 ff ff 	lea    -0x2b50(%rbp),%rax
    e66b:	48 89 85 00 f4 ff ff 	mov    %rax,-0xc00(%rbp)
    e672:	48 8d 85 b0 d4 ff ff 	lea    -0x2b50(%rbp),%rax
    e679:	48 89 85 08 f4 ff ff 	mov    %rax,-0xbf8(%rbp)
    e680:	48 c7 85 10 f4 ff ff 	movq   $0x0,-0xbf0(%rbp)
    e687:	00 00 00 00 
    e68b:	48 c7 85 18 f4 ff ff 	movq   $0x0,-0xbe8(%rbp)
    e692:	00 00 00 00 
    e696:	48 8d 85 b0 d4 ff ff 	lea    -0x2b50(%rbp),%rax
    e69d:	48 89 85 20 f4 ff ff 	mov    %rax,-0xbe0(%rbp)
    e6a4:	48 8d 85 b0 d4 ff ff 	lea    -0x2b50(%rbp),%rax
    e6ab:	48 89 85 28 f4 ff ff 	mov    %rax,-0xbd8(%rbp)
    e6b2:	48 8d 85 b0 d4 ff ff 	lea    -0x2b50(%rbp),%rax
    e6b9:	48 89 85 30 f4 ff ff 	mov    %rax,-0xbd0(%rbp)
    e6c0:	48 8d 85 b0 d4 ff ff 	lea    -0x2b50(%rbp),%rax
    e6c7:	48 89 85 38 f4 ff ff 	mov    %rax,-0xbc8(%rbp)
    e6ce:	48 8d 85 b0 d4 ff ff 	lea    -0x2b50(%rbp),%rax
    e6d5:	48 89 85 40 f4 ff ff 	mov    %rax,-0xbc0(%rbp)
    e6dc:	48 8d 85 b0 d4 ff ff 	lea    -0x2b50(%rbp),%rax
    e6e3:	48 89 85 48 f4 ff ff 	mov    %rax,-0xbb8(%rbp)
    e6ea:	48 8d 85 b0 d4 ff ff 	lea    -0x2b50(%rbp),%rax
    e6f1:	48 89 85 50 f4 ff ff 	mov    %rax,-0xbb0(%rbp)
    e6f8:	48 8d 85 b0 d4 ff ff 	lea    -0x2b50(%rbp),%rax
    e6ff:	48 89 85 58 f4 ff ff 	mov    %rax,-0xba8(%rbp)
    e706:	48 8d 85 b0 d4 ff ff 	lea    -0x2b50(%rbp),%rax
    e70d:	48 89 85 60 f4 ff ff 	mov    %rax,-0xba0(%rbp)
    e714:	48 8d 85 b0 d4 ff ff 	lea    -0x2b50(%rbp),%rax
    e71b:	48 89 85 68 f4 ff ff 	mov    %rax,-0xb98(%rbp)
    e722:	48 8d 85 b0 d4 ff ff 	lea    -0x2b50(%rbp),%rax
    e729:	48 89 85 70 f4 ff ff 	mov    %rax,-0xb90(%rbp)
    e730:	48 8d 85 b0 d4 ff ff 	lea    -0x2b50(%rbp),%rax
    e737:	48 89 85 78 f4 ff ff 	mov    %rax,-0xb88(%rbp)
    e73e:	48 8d 85 b0 d4 ff ff 	lea    -0x2b50(%rbp),%rax
    e745:	48 89 85 80 f4 ff ff 	mov    %rax,-0xb80(%rbp)
    e74c:	48 8d 85 b0 d4 ff ff 	lea    -0x2b50(%rbp),%rax
    e753:	48 89 85 88 f4 ff ff 	mov    %rax,-0xb78(%rbp)
    e75a:	48 8d 85 b0 d4 ff ff 	lea    -0x2b50(%rbp),%rax
    e761:	48 89 85 90 f4 ff ff 	mov    %rax,-0xb70(%rbp)
    e768:	48 8d 85 b0 d4 ff ff 	lea    -0x2b50(%rbp),%rax
    e76f:	48 89 85 98 f4 ff ff 	mov    %rax,-0xb68(%rbp)
    e776:	48 8d 85 b0 d4 ff ff 	lea    -0x2b50(%rbp),%rax
    e77d:	48 89 85 a0 f4 ff ff 	mov    %rax,-0xb60(%rbp)
    e784:	48 8d 85 b0 d4 ff ff 	lea    -0x2b50(%rbp),%rax
    e78b:	48 89 85 a8 f4 ff ff 	mov    %rax,-0xb58(%rbp)
    e792:	48 8d 85 b0 d4 ff ff 	lea    -0x2b50(%rbp),%rax
    e799:	48 89 85 b0 f4 ff ff 	mov    %rax,-0xb50(%rbp)
    e7a0:	48 8d 85 b0 d4 ff ff 	lea    -0x2b50(%rbp),%rax
    e7a7:	48 89 85 b8 f4 ff ff 	mov    %rax,-0xb48(%rbp)
    e7ae:	48 8d 85 b0 d4 ff ff 	lea    -0x2b50(%rbp),%rax
    e7b5:	48 89 85 c0 f4 ff ff 	mov    %rax,-0xb40(%rbp)
    e7bc:	48 8d 85 b0 d4 ff ff 	lea    -0x2b50(%rbp),%rax
    e7c3:	48 89 85 c8 f4 ff ff 	mov    %rax,-0xb38(%rbp)
    e7ca:	48 8d 85 b0 d4 ff ff 	lea    -0x2b50(%rbp),%rax
    e7d1:	48 89 85 d0 f4 ff ff 	mov    %rax,-0xb30(%rbp)
    e7d8:	48 8d 85 b0 d4 ff ff 	lea    -0x2b50(%rbp),%rax
    e7df:	48 89 85 d8 f4 ff ff 	mov    %rax,-0xb28(%rbp)
    e7e6:	48 8d 85 b0 d4 ff ff 	lea    -0x2b50(%rbp),%rax
    e7ed:	48 89 85 e0 f4 ff ff 	mov    %rax,-0xb20(%rbp)
    e7f4:	48 8d 85 b0 d4 ff ff 	lea    -0x2b50(%rbp),%rax
    e7fb:	48 89 85 e8 f4 ff ff 	mov    %rax,-0xb18(%rbp)
    e802:	48 8d 85 b0 d4 ff ff 	lea    -0x2b50(%rbp),%rax
    e809:	48 89 85 f0 f4 ff ff 	mov    %rax,-0xb10(%rbp)
    e810:	48 c7 85 f8 f4 ff ff 	movq   $0x0,-0xb08(%rbp)
    e817:	00 00 00 00 
    e81b:	48 c7 85 00 f5 ff ff 	movq   $0x0,-0xb00(%rbp)
    e822:	00 00 00 00 
    e826:	48 8d 85 b0 d4 ff ff 	lea    -0x2b50(%rbp),%rax
    e82d:	48 89 85 08 f5 ff ff 	mov    %rax,-0xaf8(%rbp)
    e834:	48 8d 85 b0 d4 ff ff 	lea    -0x2b50(%rbp),%rax
    e83b:	48 89 85 10 f5 ff ff 	mov    %rax,-0xaf0(%rbp)
    e842:	48 8d 85 b0 d4 ff ff 	lea    -0x2b50(%rbp),%rax
    e849:	48 89 85 18 f5 ff ff 	mov    %rax,-0xae8(%rbp)
    e850:	48 8d 85 b0 d4 ff ff 	lea    -0x2b50(%rbp),%rax
    e857:	48 89 85 20 f5 ff ff 	mov    %rax,-0xae0(%rbp)
    e85e:	48 8d 85 b0 d4 ff ff 	lea    -0x2b50(%rbp),%rax
    e865:	48 89 85 28 f5 ff ff 	mov    %rax,-0xad8(%rbp)
    e86c:	48 8d 85 b0 d4 ff ff 	lea    -0x2b50(%rbp),%rax
    e873:	48 89 85 30 f5 ff ff 	mov    %rax,-0xad0(%rbp)
    e87a:	48 8d 85 b0 d4 ff ff 	lea    -0x2b50(%rbp),%rax
    e881:	48 89 85 38 f5 ff ff 	mov    %rax,-0xac8(%rbp)
    e888:	48 c7 85 b0 eb ff ff 	movq   $0x0,-0x1450(%rbp)
    e88f:	00 00 00 00 
    e893:	48 8d 85 1e d7 ff ff 	lea    -0x28e2(%rbp),%rax
    e89a:	48 89 85 b8 eb ff ff 	mov    %rax,-0x1448(%rbp)
    e8a1:	48 8d 05 9a e8 00 00 	lea    0xe89a(%rip),%rax        # 1d142 <g_1157>
    e8a8:	48 89 85 c0 eb ff ff 	mov    %rax,-0x1440(%rbp)
    e8af:	48 8d 85 60 d3 ff ff 	lea    -0x2ca0(%rbp),%rax
    e8b6:	48 89 85 c8 eb ff ff 	mov    %rax,-0x1438(%rbp)
    e8bd:	48 8d 05 7e e8 00 00 	lea    0xe87e(%rip),%rax        # 1d142 <g_1157>
    e8c4:	48 89 85 d0 eb ff ff 	mov    %rax,-0x1430(%rbp)
    e8cb:	48 8d 85 1e d7 ff ff 	lea    -0x28e2(%rbp),%rax
    e8d2:	48 89 85 d8 eb ff ff 	mov    %rax,-0x1428(%rbp)
    e8d9:	48 8d 05 62 e8 00 00 	lea    0xe862(%rip),%rax        # 1d142 <g_1157>
    e8e0:	48 89 85 e0 eb ff ff 	mov    %rax,-0x1420(%rbp)
    e8e7:	48 c7 85 e8 eb ff ff 	movq   $0x0,-0x1418(%rbp)
    e8ee:	00 00 00 00 
    e8f2:	48 8d 05 49 e8 00 00 	lea    0xe849(%rip),%rax        # 1d142 <g_1157>
    e8f9:	48 89 85 f0 eb ff ff 	mov    %rax,-0x1410(%rbp)
    e900:	48 8d 85 1e d7 ff ff 	lea    -0x28e2(%rbp),%rax
    e907:	48 89 85 f8 eb ff ff 	mov    %rax,-0x1408(%rbp)
    e90e:	48 8d 05 2d e8 00 00 	lea    0xe82d(%rip),%rax        # 1d142 <g_1157>
    e915:	48 89 85 00 ec ff ff 	mov    %rax,-0x1400(%rbp)
    e91c:	48 8d 05 1f e8 00 00 	lea    0xe81f(%rip),%rax        # 1d142 <g_1157>
    e923:	48 89 85 08 ec ff ff 	mov    %rax,-0x13f8(%rbp)
    e92a:	48 8d 05 11 e8 00 00 	lea    0xe811(%rip),%rax        # 1d142 <g_1157>
    e931:	48 89 85 10 ec ff ff 	mov    %rax,-0x13f0(%rbp)
    e938:	48 8d 85 1e d7 ff ff 	lea    -0x28e2(%rbp),%rax
    e93f:	48 89 85 18 ec ff ff 	mov    %rax,-0x13e8(%rbp)
    e946:	48 8d 85 1e d7 ff ff 	lea    -0x28e2(%rbp),%rax
    e94d:	48 89 85 20 ec ff ff 	mov    %rax,-0x13e0(%rbp)
    e954:	48 8d 85 60 d3 ff ff 	lea    -0x2ca0(%rbp),%rax
    e95b:	48 89 85 28 ec ff ff 	mov    %rax,-0x13d8(%rbp)
    e962:	48 c7 85 30 ec ff ff 	movq   $0x0,-0x13d0(%rbp)
    e969:	00 00 00 00 
    e96d:	48 c7 85 38 ec ff ff 	movq   $0x0,-0x13c8(%rbp)
    e974:	00 00 00 00 
    e978:	48 c7 85 40 ec ff ff 	movq   $0x0,-0x13c0(%rbp)
    e97f:	00 00 00 00 
    e983:	48 8d 05 b8 e7 00 00 	lea    0xe7b8(%rip),%rax        # 1d142 <g_1157>
    e98a:	48 89 85 48 ec ff ff 	mov    %rax,-0x13b8(%rbp)
    e991:	48 8d 85 5a d3 ff ff 	lea    -0x2ca6(%rbp),%rax
    e998:	48 89 85 50 ec ff ff 	mov    %rax,-0x13b0(%rbp)
    e99f:	48 8d 05 9c e7 00 00 	lea    0xe79c(%rip),%rax        # 1d142 <g_1157>
    e9a6:	48 89 85 58 ec ff ff 	mov    %rax,-0x13a8(%rbp)
    e9ad:	48 8d 85 1e d7 ff ff 	lea    -0x28e2(%rbp),%rax
    e9b4:	48 89 85 60 ec ff ff 	mov    %rax,-0x13a0(%rbp)
    e9bb:	48 8d 85 1e d7 ff ff 	lea    -0x28e2(%rbp),%rax
    e9c2:	48 89 85 68 ec ff ff 	mov    %rax,-0x1398(%rbp)
    e9c9:	48 8d 85 1e d7 ff ff 	lea    -0x28e2(%rbp),%rax
    e9d0:	48 89 85 70 ec ff ff 	mov    %rax,-0x1390(%rbp)
    e9d7:	48 8d 85 60 d3 ff ff 	lea    -0x2ca0(%rbp),%rax
    e9de:	48 89 85 78 ec ff ff 	mov    %rax,-0x1388(%rbp)
    e9e5:	48 8d 85 1e d7 ff ff 	lea    -0x28e2(%rbp),%rax
    e9ec:	48 89 85 80 ec ff ff 	mov    %rax,-0x1380(%rbp)
    e9f3:	48 c7 85 88 ec ff ff 	movq   $0x0,-0x1378(%rbp)
    e9fa:	00 00 00 00 
    e9fe:	48 8d 85 1e d7 ff ff 	lea    -0x28e2(%rbp),%rax
    ea05:	48 89 85 90 ec ff ff 	mov    %rax,-0x1370(%rbp)
    ea0c:	48 8d 85 60 d3 ff ff 	lea    -0x2ca0(%rbp),%rax
    ea13:	48 89 85 98 ec ff ff 	mov    %rax,-0x1368(%rbp)
    ea1a:	48 8d 85 1e d7 ff ff 	lea    -0x28e2(%rbp),%rax
    ea21:	48 89 85 a0 ec ff ff 	mov    %rax,-0x1360(%rbp)
    ea28:	48 8d 05 13 e7 00 00 	lea    0xe713(%rip),%rax        # 1d142 <g_1157>
    ea2f:	48 89 85 a8 ec ff ff 	mov    %rax,-0x1358(%rbp)
    ea36:	48 c7 85 b0 ec ff ff 	movq   $0x0,-0x1350(%rbp)
    ea3d:	00 00 00 00 
    ea41:	48 c7 85 b8 ec ff ff 	movq   $0x0,-0x1348(%rbp)
    ea48:	00 00 00 00 
    ea4c:	48 8d 85 1e d7 ff ff 	lea    -0x28e2(%rbp),%rax
    ea53:	48 89 85 c0 ec ff ff 	mov    %rax,-0x1340(%rbp)
    ea5a:	48 8d 05 e1 e6 00 00 	lea    0xe6e1(%rip),%rax        # 1d142 <g_1157>
    ea61:	48 89 85 c8 ec ff ff 	mov    %rax,-0x1338(%rbp)
    ea68:	48 8d 85 1e d7 ff ff 	lea    -0x28e2(%rbp),%rax
    ea6f:	48 89 85 d0 ec ff ff 	mov    %rax,-0x1330(%rbp)
    ea76:	48 8d 85 5a d3 ff ff 	lea    -0x2ca6(%rbp),%rax
    ea7d:	48 89 85 d8 ec ff ff 	mov    %rax,-0x1328(%rbp)
    ea84:	48 8d 85 1e d7 ff ff 	lea    -0x28e2(%rbp),%rax
    ea8b:	48 89 85 e0 ec ff ff 	mov    %rax,-0x1320(%rbp)
    ea92:	48 8d 85 1e d7 ff ff 	lea    -0x28e2(%rbp),%rax
    ea99:	48 89 85 e8 ec ff ff 	mov    %rax,-0x1318(%rbp)
    eaa0:	48 c7 85 f0 ec ff ff 	movq   $0x0,-0x1310(%rbp)
    eaa7:	00 00 00 00 
    eaab:	48 8d 85 5a d3 ff ff 	lea    -0x2ca6(%rbp),%rax
    eab2:	48 89 85 f8 ec ff ff 	mov    %rax,-0x1308(%rbp)
    eab9:	48 8d 05 82 e6 00 00 	lea    0xe682(%rip),%rax        # 1d142 <g_1157>
    eac0:	48 89 85 00 ed ff ff 	mov    %rax,-0x1300(%rbp)
    eac7:	48 8d 85 5a d3 ff ff 	lea    -0x2ca6(%rbp),%rax
    eace:	48 89 85 08 ed ff ff 	mov    %rax,-0x12f8(%rbp)
    ead5:	48 8d 85 60 d3 ff ff 	lea    -0x2ca0(%rbp),%rax
    eadc:	48 89 85 10 ed ff ff 	mov    %rax,-0x12f0(%rbp)
    eae3:	48 c7 85 18 ed ff ff 	movq   $0x0,-0x12e8(%rbp)
    eaea:	00 00 00 00 
    eaee:	48 8d 85 1e d7 ff ff 	lea    -0x28e2(%rbp),%rax
    eaf5:	48 89 85 20 ed ff ff 	mov    %rax,-0x12e0(%rbp)
    eafc:	48 c7 85 28 ed ff ff 	movq   $0x0,-0x12d8(%rbp)
    eb03:	00 00 00 00 
    eb07:	48 8d 85 5a d3 ff ff 	lea    -0x2ca6(%rbp),%rax
    eb0e:	48 89 85 30 ed ff ff 	mov    %rax,-0x12d0(%rbp)
    eb15:	48 8d 05 26 e6 00 00 	lea    0xe626(%rip),%rax        # 1d142 <g_1157>
    eb1c:	48 89 85 38 ed ff ff 	mov    %rax,-0x12c8(%rbp)
    eb23:	48 8d 85 1e d7 ff ff 	lea    -0x28e2(%rbp),%rax
    eb2a:	48 89 85 40 ed ff ff 	mov    %rax,-0x12c0(%rbp)
    eb31:	48 8d 05 0a e6 00 00 	lea    0xe60a(%rip),%rax        # 1d142 <g_1157>
    eb38:	48 89 85 48 ed ff ff 	mov    %rax,-0x12b8(%rbp)
    eb3f:	48 8d 85 1e d7 ff ff 	lea    -0x28e2(%rbp),%rax
    eb46:	48 89 85 50 ed ff ff 	mov    %rax,-0x12b0(%rbp)
    eb4d:	48 c7 85 58 ed ff ff 	movq   $0x0,-0x12a8(%rbp)
    eb54:	00 00 00 00 
    eb58:	48 8d 85 5a d3 ff ff 	lea    -0x2ca6(%rbp),%rax
    eb5f:	48 89 85 60 ed ff ff 	mov    %rax,-0x12a0(%rbp)
    eb66:	48 8d 85 60 d3 ff ff 	lea    -0x2ca0(%rbp),%rax
    eb6d:	48 89 85 68 ed ff ff 	mov    %rax,-0x1298(%rbp)
    eb74:	48 c7 85 70 ed ff ff 	movq   $0x0,-0x1290(%rbp)
    eb7b:	00 00 00 00 
    eb7f:	48 8d 85 1e d7 ff ff 	lea    -0x28e2(%rbp),%rax
    eb86:	48 89 85 78 ed ff ff 	mov    %rax,-0x1288(%rbp)
    eb8d:	48 8d 85 1e d7 ff ff 	lea    -0x28e2(%rbp),%rax
    eb94:	48 89 85 80 ed ff ff 	mov    %rax,-0x1280(%rbp)
    eb9b:	48 c7 85 88 ed ff ff 	movq   $0x0,-0x1278(%rbp)
    eba2:	00 00 00 00 
    eba6:	48 8d 05 95 e5 00 00 	lea    0xe595(%rip),%rax        # 1d142 <g_1157>
    ebad:	48 89 85 90 ed ff ff 	mov    %rax,-0x1270(%rbp)
    ebb4:	48 8d 05 87 e5 00 00 	lea    0xe587(%rip),%rax        # 1d142 <g_1157>
    ebbb:	48 89 85 98 ed ff ff 	mov    %rax,-0x1268(%rbp)
    ebc2:	48 c7 85 a0 ed ff ff 	movq   $0x0,-0x1260(%rbp)
    ebc9:	00 00 00 00 
    ebcd:	48 8d 05 6e e5 00 00 	lea    0xe56e(%rip),%rax        # 1d142 <g_1157>
    ebd4:	48 89 85 a8 ed ff ff 	mov    %rax,-0x1258(%rbp)
    ebdb:	48 c7 85 b0 ed ff ff 	movq   $0x0,-0x1250(%rbp)
    ebe2:	00 00 00 00 
    ebe6:	48 8d 85 1e d7 ff ff 	lea    -0x28e2(%rbp),%rax
    ebed:	48 89 85 b8 ed ff ff 	mov    %rax,-0x1248(%rbp)
    ebf4:	48 c7 85 c0 ed ff ff 	movq   $0x0,-0x1240(%rbp)
    ebfb:	00 00 00 00 
    ebff:	48 8d 85 1e d7 ff ff 	lea    -0x28e2(%rbp),%rax
    ec06:	48 89 85 c8 ed ff ff 	mov    %rax,-0x1238(%rbp)
    ec0d:	48 8d 85 1e d7 ff ff 	lea    -0x28e2(%rbp),%rax
    ec14:	48 89 85 d0 ed ff ff 	mov    %rax,-0x1230(%rbp)
    ec1b:	48 8d 85 1e d7 ff ff 	lea    -0x28e2(%rbp),%rax
    ec22:	48 89 85 d8 ed ff ff 	mov    %rax,-0x1228(%rbp)
    ec29:	48 8d 05 12 e5 00 00 	lea    0xe512(%rip),%rax        # 1d142 <g_1157>
    ec30:	48 89 85 e0 ed ff ff 	mov    %rax,-0x1220(%rbp)
    ec37:	48 c7 85 e8 ed ff ff 	movq   $0x0,-0x1218(%rbp)
    ec3e:	00 00 00 00 
    ec42:	48 c7 85 f0 ed ff ff 	movq   $0x0,-0x1210(%rbp)
    ec49:	00 00 00 00 
    ec4d:	48 c7 85 f8 ed ff ff 	movq   $0x0,-0x1208(%rbp)
    ec54:	00 00 00 00 
    ec58:	48 8d 85 1e d7 ff ff 	lea    -0x28e2(%rbp),%rax
    ec5f:	48 89 85 00 ee ff ff 	mov    %rax,-0x1200(%rbp)
    ec66:	48 8d 85 1e d7 ff ff 	lea    -0x28e2(%rbp),%rax
    ec6d:	48 89 85 08 ee ff ff 	mov    %rax,-0x11f8(%rbp)
    ec74:	48 8d 05 c7 e4 00 00 	lea    0xe4c7(%rip),%rax        # 1d142 <g_1157>
    ec7b:	48 89 85 10 ee ff ff 	mov    %rax,-0x11f0(%rbp)
    ec82:	48 8d 85 1e d7 ff ff 	lea    -0x28e2(%rbp),%rax
    ec89:	48 89 85 18 ee ff ff 	mov    %rax,-0x11e8(%rbp)
    ec90:	48 8d 05 ab e4 00 00 	lea    0xe4ab(%rip),%rax        # 1d142 <g_1157>
    ec97:	48 89 85 20 ee ff ff 	mov    %rax,-0x11e0(%rbp)
    ec9e:	48 8d 85 1e d7 ff ff 	lea    -0x28e2(%rbp),%rax
    eca5:	48 89 85 28 ee ff ff 	mov    %rax,-0x11d8(%rbp)
    ecac:	48 c7 85 30 ee ff ff 	movq   $0x0,-0x11d0(%rbp)
    ecb3:	00 00 00 00 
    ecb7:	48 8d 85 5a d3 ff ff 	lea    -0x2ca6(%rbp),%rax
    ecbe:	48 89 85 38 ee ff ff 	mov    %rax,-0x11c8(%rbp)
    ecc5:	48 8d 05 76 e4 00 00 	lea    0xe476(%rip),%rax        # 1d142 <g_1157>
    eccc:	48 89 85 40 ee ff ff 	mov    %rax,-0x11c0(%rbp)
    ecd3:	48 8d 85 1e d7 ff ff 	lea    -0x28e2(%rbp),%rax
    ecda:	48 89 85 48 ee ff ff 	mov    %rax,-0x11b8(%rbp)
    ece1:	48 8d 85 5a d3 ff ff 	lea    -0x2ca6(%rbp),%rax
    ece8:	48 89 85 50 ee ff ff 	mov    %rax,-0x11b0(%rbp)
    ecef:	48 8d 05 4c e4 00 00 	lea    0xe44c(%rip),%rax        # 1d142 <g_1157>
    ecf6:	48 89 85 58 ee ff ff 	mov    %rax,-0x11a8(%rbp)
    ecfd:	48 8d 85 1e d7 ff ff 	lea    -0x28e2(%rbp),%rax
    ed04:	48 89 85 60 ee ff ff 	mov    %rax,-0x11a0(%rbp)
    ed0b:	48 8d 85 1e d7 ff ff 	lea    -0x28e2(%rbp),%rax
    ed12:	48 89 85 68 ee ff ff 	mov    %rax,-0x1198(%rbp)
    ed19:	48 8d 05 22 e4 00 00 	lea    0xe422(%rip),%rax        # 1d142 <g_1157>
    ed20:	48 89 85 70 ee ff ff 	mov    %rax,-0x1190(%rbp)
    ed27:	48 8d 85 1e d7 ff ff 	lea    -0x28e2(%rbp),%rax
    ed2e:	48 89 85 78 ee ff ff 	mov    %rax,-0x1188(%rbp)
    ed35:	48 8d 85 1e d7 ff ff 	lea    -0x28e2(%rbp),%rax
    ed3c:	48 89 85 80 ee ff ff 	mov    %rax,-0x1180(%rbp)
    ed43:	48 8d 05 f8 e3 00 00 	lea    0xe3f8(%rip),%rax        # 1d142 <g_1157>
    ed4a:	48 89 85 88 ee ff ff 	mov    %rax,-0x1178(%rbp)
    ed51:	48 8d 85 1e d7 ff ff 	lea    -0x28e2(%rbp),%rax
    ed58:	48 89 85 90 ee ff ff 	mov    %rax,-0x1170(%rbp)
    ed5f:	48 8d 85 1e d7 ff ff 	lea    -0x28e2(%rbp),%rax
    ed66:	48 89 85 98 ee ff ff 	mov    %rax,-0x1168(%rbp)
    ed6d:	48 c7 85 a0 ee ff ff 	movq   $0x0,-0x1160(%rbp)
    ed74:	00 00 00 00 
    ed78:	48 c7 85 a8 ee ff ff 	movq   $0x0,-0x1158(%rbp)
    ed7f:	00 00 00 00 
    ed83:	48 c7 85 b0 ee ff ff 	movq   $0x0,-0x1150(%rbp)
    ed8a:	00 00 00 00 
    ed8e:	48 8d 85 1e d7 ff ff 	lea    -0x28e2(%rbp),%rax
    ed95:	48 89 85 b8 ee ff ff 	mov    %rax,-0x1148(%rbp)
    ed9c:	48 c7 85 c0 ee ff ff 	movq   $0x0,-0x1140(%rbp)
    eda3:	00 00 00 00 
    eda7:	48 8d 85 60 d3 ff ff 	lea    -0x2ca0(%rbp),%rax
    edae:	48 89 85 c8 ee ff ff 	mov    %rax,-0x1138(%rbp)
    edb5:	48 c7 85 d0 ee ff ff 	movq   $0x0,-0x1130(%rbp)
    edbc:	00 00 00 00 
    edc0:	48 8d 85 60 d3 ff ff 	lea    -0x2ca0(%rbp),%rax
    edc7:	48 89 85 d8 ee ff ff 	mov    %rax,-0x1128(%rbp)
    edce:	48 8d 05 6d e3 00 00 	lea    0xe36d(%rip),%rax        # 1d142 <g_1157>
    edd5:	48 89 85 e0 ee ff ff 	mov    %rax,-0x1120(%rbp)
    eddc:	48 8d 05 5f e3 00 00 	lea    0xe35f(%rip),%rax        # 1d142 <g_1157>
    ede3:	48 89 85 e8 ee ff ff 	mov    %rax,-0x1118(%rbp)
    edea:	48 8d 85 1e d7 ff ff 	lea    -0x28e2(%rbp),%rax
    edf1:	48 89 85 f0 ee ff ff 	mov    %rax,-0x1110(%rbp)
    edf8:	48 8d 85 60 d3 ff ff 	lea    -0x2ca0(%rbp),%rax
    edff:	48 89 85 f8 ee ff ff 	mov    %rax,-0x1108(%rbp)
    ee06:	48 c7 85 00 ef ff ff 	movq   $0x0,-0x1100(%rbp)
    ee0d:	00 00 00 00 
    ee11:	48 8d 85 1e d7 ff ff 	lea    -0x28e2(%rbp),%rax
    ee18:	48 89 85 08 ef ff ff 	mov    %rax,-0x10f8(%rbp)
    ee1f:	48 c7 85 10 ef ff ff 	movq   $0x0,-0x10f0(%rbp)
    ee26:	00 00 00 00 
    ee2a:	48 8d 05 11 e3 00 00 	lea    0xe311(%rip),%rax        # 1d142 <g_1157>
    ee31:	48 89 85 18 ef ff ff 	mov    %rax,-0x10e8(%rbp)
    ee38:	48 8d 85 1e d7 ff ff 	lea    -0x28e2(%rbp),%rax
    ee3f:	48 89 85 20 ef ff ff 	mov    %rax,-0x10e0(%rbp)
    ee46:	48 8d 85 1e d7 ff ff 	lea    -0x28e2(%rbp),%rax
    ee4d:	48 89 85 28 ef ff ff 	mov    %rax,-0x10d8(%rbp)
    ee54:	48 8d 85 1e d7 ff ff 	lea    -0x28e2(%rbp),%rax
    ee5b:	48 89 85 30 ef ff ff 	mov    %rax,-0x10d0(%rbp)
    ee62:	48 c7 85 38 ef ff ff 	movq   $0x0,-0x10c8(%rbp)
    ee69:	00 00 00 00 
    ee6d:	48 8d 85 1e d7 ff ff 	lea    -0x28e2(%rbp),%rax
    ee74:	48 89 85 40 ef ff ff 	mov    %rax,-0x10c0(%rbp)
    ee7b:	48 8d 05 c0 e2 00 00 	lea    0xe2c0(%rip),%rax        # 1d142 <g_1157>
    ee82:	48 89 85 48 ef ff ff 	mov    %rax,-0x10b8(%rbp)
    ee89:	48 c7 85 50 ef ff ff 	movq   $0x0,-0x10b0(%rbp)
    ee90:	00 00 00 00 
    ee94:	48 8d 85 1e d7 ff ff 	lea    -0x28e2(%rbp),%rax
    ee9b:	48 89 85 58 ef ff ff 	mov    %rax,-0x10a8(%rbp)
    eea2:	48 8d 85 1e d7 ff ff 	lea    -0x28e2(%rbp),%rax
    eea9:	48 89 85 60 ef ff ff 	mov    %rax,-0x10a0(%rbp)
    eeb0:	48 8d 85 1e d7 ff ff 	lea    -0x28e2(%rbp),%rax
    eeb7:	48 89 85 68 ef ff ff 	mov    %rax,-0x1098(%rbp)
    eebe:	48 8d 85 5a d3 ff ff 	lea    -0x2ca6(%rbp),%rax
    eec5:	48 89 85 70 ef ff ff 	mov    %rax,-0x1090(%rbp)
    eecc:	48 8d 85 1e d7 ff ff 	lea    -0x28e2(%rbp),%rax
    eed3:	48 89 85 78 ef ff ff 	mov    %rax,-0x1088(%rbp)
    eeda:	48 8d 85 1e d7 ff ff 	lea    -0x28e2(%rbp),%rax
    eee1:	48 89 85 80 ef ff ff 	mov    %rax,-0x1080(%rbp)
    eee8:	48 8d 85 5a d3 ff ff 	lea    -0x2ca6(%rbp),%rax
    eeef:	48 89 85 88 ef ff ff 	mov    %rax,-0x1078(%rbp)
    eef6:	48 8d 05 45 e2 00 00 	lea    0xe245(%rip),%rax        # 1d142 <g_1157>
    eefd:	48 89 85 90 ef ff ff 	mov    %rax,-0x1070(%rbp)
    ef04:	48 8d 85 5a d3 ff ff 	lea    -0x2ca6(%rbp),%rax
    ef0b:	48 89 85 98 ef ff ff 	mov    %rax,-0x1068(%rbp)
    ef12:	48 8d 05 29 e2 00 00 	lea    0xe229(%rip),%rax        # 1d142 <g_1157>
    ef19:	48 89 85 a0 ef ff ff 	mov    %rax,-0x1060(%rbp)
    ef20:	48 8d 85 1e d7 ff ff 	lea    -0x28e2(%rbp),%rax
    ef27:	48 89 85 a8 ef ff ff 	mov    %rax,-0x1058(%rbp)
    ef2e:	48 c7 85 b0 ef ff ff 	movq   $0x0,-0x1050(%rbp)
    ef35:	00 00 00 00 
    ef39:	48 c7 85 b8 ef ff ff 	movq   $0x0,-0x1048(%rbp)
    ef40:	00 00 00 00 
    ef44:	48 8d 85 1e d7 ff ff 	lea    -0x28e2(%rbp),%rax
    ef4b:	48 89 85 c0 ef ff ff 	mov    %rax,-0x1040(%rbp)
    ef52:	48 c7 85 c8 ef ff ff 	movq   $0x0,-0x1038(%rbp)
    ef59:	00 00 00 00 
    ef5d:	48 8d 05 de e1 00 00 	lea    0xe1de(%rip),%rax        # 1d142 <g_1157>
    ef64:	48 89 85 d0 ef ff ff 	mov    %rax,-0x1030(%rbp)
    ef6b:	48 8d 85 1e d7 ff ff 	lea    -0x28e2(%rbp),%rax
    ef72:	48 89 85 d8 ef ff ff 	mov    %rax,-0x1028(%rbp)
    ef79:	48 8d 85 5a d3 ff ff 	lea    -0x2ca6(%rbp),%rax
    ef80:	48 89 85 e0 ef ff ff 	mov    %rax,-0x1020(%rbp)
    ef87:	48 8d 85 1e d7 ff ff 	lea    -0x28e2(%rbp),%rax
    ef8e:	48 89 85 e8 ef ff ff 	mov    %rax,-0x1018(%rbp)
    ef95:	48 8d 85 1e d7 ff ff 	lea    -0x28e2(%rbp),%rax
    ef9c:	48 89 85 f0 ef ff ff 	mov    %rax,-0x1010(%rbp)
    efa3:	48 8d 85 1e d7 ff ff 	lea    -0x28e2(%rbp),%rax
    efaa:	48 89 85 f8 ef ff ff 	mov    %rax,-0x1008(%rbp)
    efb1:	48 c7 85 00 f0 ff ff 	movq   $0x0,-0x1000(%rbp)
    efb8:	00 00 00 00 
    efbc:	48 8d 85 1e d7 ff ff 	lea    -0x28e2(%rbp),%rax
    efc3:	48 89 85 08 f0 ff ff 	mov    %rax,-0xff8(%rbp)
    efca:	48 8d 05 71 e1 00 00 	lea    0xe171(%rip),%rax        # 1d142 <g_1157>
    efd1:	48 89 85 10 f0 ff ff 	mov    %rax,-0xff0(%rbp)
    efd8:	48 8d 05 63 e1 00 00 	lea    0xe163(%rip),%rax        # 1d142 <g_1157>
    efdf:	48 89 85 18 f0 ff ff 	mov    %rax,-0xfe8(%rbp)
    efe6:	48 8d 05 55 e1 00 00 	lea    0xe155(%rip),%rax        # 1d142 <g_1157>
    efed:	48 89 85 20 f0 ff ff 	mov    %rax,-0xfe0(%rbp)
    eff4:	48 8d 05 47 e1 00 00 	lea    0xe147(%rip),%rax        # 1d142 <g_1157>
    effb:	48 89 85 28 f0 ff ff 	mov    %rax,-0xfd8(%rbp)
    f002:	0f b7 85 44 d3 ff ff 	movzwl -0x2cbc(%rbp),%eax
    f009:	0f bf d8             	movswl %ax,%ebx
    f00c:	8b 85 e4 d8 ff ff    	mov    -0x271c(%rbp),%eax
    f012:	44 0f b6 e0          	movzbl %al,%r12d
    f016:	0f b7 85 5a d3 ff ff 	movzwl -0x2ca6(%rbp),%eax
    f01d:	44 0f b7 e8          	movzwl %ax,%r13d
    f021:	8b 85 a4 d8 ff ff    	mov    -0x275c(%rbp),%eax
    f027:	4c 63 f0             	movslq %eax,%r14
    f02a:	48 8b 85 70 d4 ff ff 	mov    -0x2b90(%rbp),%rax
    f031:	8b 00                	mov    (%rax),%eax
    f033:	4c 63 f8             	movslq %eax,%r15
    f036:	48 8b 85 20 e1 ff ff 	mov    -0x1ee0(%rbp),%rax
    f03d:	48 89 05 44 fd 00 00 	mov    %rax,0xfd44(%rip)        # 1ed88 <g_912+0x8>
    f044:	48 8b 05 3d fd 00 00 	mov    0xfd3d(%rip),%rax        # 1ed88 <g_912+0x8>
    f04b:	48 85 c0             	test   %rax,%rax
    f04e:	0f 95 85 43 d3 ff ff 	setne  -0x2cbd(%rbp)
    f055:	8b 95 b8 d8 ff ff    	mov    -0x2748(%rbp),%edx
    f05b:	0f b7 85 60 d3 ff ff 	movzwl -0x2ca0(%rbp),%eax
    f062:	0f b7 c0             	movzwl %ax,%eax
    f065:	39 c2                	cmp    %eax,%edx
    f067:	0f 9d c0             	setge  %al
    f06a:	0f b6 c8             	movzbl %al,%ecx
    f06d:	48 8b 85 50 d6 ff ff 	mov    -0x29b0(%rbp),%rax
    f074:	8b 00                	mov    (%rax),%eax
    f076:	8d 50 ff             	lea    -0x1(%rax),%edx
    f079:	48 8b 85 50 d6 ff ff 	mov    -0x29b0(%rbp),%rax
    f080:	89 10                	mov    %edx,(%rax)
    f082:	48 8b 85 50 d6 ff ff 	mov    -0x29b0(%rbp),%rax
    f089:	8b 00                	mov    (%rax),%eax
    f08b:	85 c0                	test   %eax,%eax
    f08d:	75 64                	jne    f0f3 <func_50+0x4c3e>
    f08f:	0f b7 85 44 d3 ff ff 	movzwl -0x2cbc(%rbp),%eax
    f096:	0f bf f0             	movswl %ax,%esi
    f099:	83 bd 48 d3 ff ff 00 	cmpl   $0x0,-0x2cb8(%rbp)
    f0a0:	74 2b                	je     f0cd <func_50+0x4c18>
    f0a2:	48 8b 95 88 d4 ff ff 	mov    -0x2b78(%rbp),%rdx
    f0a9:	48 8b 85 58 d6 ff ff 	mov    -0x29a8(%rbp),%rax
    f0b0:	48 89 10             	mov    %rdx,(%rax)
    f0b3:	48 8b 85 58 d6 ff ff 	mov    -0x29a8(%rbp),%rax
    f0ba:	48 8b 00             	mov    (%rax),%rax
    f0bd:	48 39 85 d0 d5 ff ff 	cmp    %rax,-0x2a30(%rbp)
    f0c4:	75 07                	jne    f0cd <func_50+0x4c18>
    f0c6:	ba 01 00 00 00       	mov    $0x1,%edx
    f0cb:	eb 05                	jmp    f0d2 <func_50+0x4c1d>
    f0cd:	ba 00 00 00 00       	mov    $0x0,%edx
    f0d2:	8b 85 a8 d3 ff ff    	mov    -0x2c58(%rbp),%eax
    f0d8:	31 d0                	xor    %edx,%eax
    f0da:	34 f7                	xor    $0xf7,%al
    f0dc:	39 c6                	cmp    %eax,%esi
    f0de:	0f 9e c2             	setle  %dl
    f0e1:	48 8b 05 68 fb 00 00 	mov    0xfb68(%rip),%rax        # 1ec50 <g_525>
    f0e8:	0f b6 d2             	movzbl %dl,%edx
    f0eb:	89 10                	mov    %edx,(%rax)
    f0ed:	8b 00                	mov    (%rax),%eax
    f0ef:	85 c0                	test   %eax,%eax
    f0f1:	74 07                	je     f0fa <func_50+0x4c45>
    f0f3:	b8 01 00 00 00       	mov    $0x1,%eax
    f0f8:	eb 05                	jmp    f0ff <func_50+0x4c4a>
    f0fa:	b8 00 00 00 00       	mov    $0x0,%eax
    f0ff:	39 c8                	cmp    %ecx,%eax
    f101:	0f 9f c0             	setg   %al
    f104:	0f b6 c0             	movzbl %al,%eax
    f107:	be e3 ff ff ff       	mov    $0xffffffe3,%esi
    f10c:	89 c7                	mov    %eax,%edi
    f10e:	e8 57 71 ff ff       	callq  626a <safe_div_func_int8_t_s_s>
    f113:	84 c0                	test   %al,%al
    f115:	74 11                	je     f128 <func_50+0x4c73>
    f117:	8b 85 a8 d3 ff ff    	mov    -0x2c58(%rbp),%eax
    f11d:	85 c0                	test   %eax,%eax
    f11f:	74 07                	je     f128 <func_50+0x4c73>
    f121:	b8 01 00 00 00       	mov    $0x1,%eax
    f126:	eb 05                	jmp    f12d <func_50+0x4c78>
    f128:	b8 00 00 00 00       	mov    $0x0,%eax
    f12d:	3d 77 79 00 00       	cmp    $0x7977,%eax
    f132:	0f 9f c0             	setg   %al
    f135:	22 85 43 d3 ff ff    	and    -0x2cbd(%rbp),%al
    f13b:	0f b6 d0             	movzbl %al,%edx
    f13e:	48 8b 85 60 d6 ff ff 	mov    -0x29a0(%rbp),%rax
    f145:	66 89 10             	mov    %dx,(%rax)
    f148:	8b 85 48 d3 ff ff    	mov    -0x2cb8(%rbp),%eax
    f14e:	4c 89 fe             	mov    %r15,%rsi
    f151:	48 89 c7             	mov    %rax,%rdi
    f154:	e8 27 7f ff ff       	callq  7080 <safe_mod_func_uint64_t_u_u>
    f159:	4c 89 f6             	mov    %r14,%rsi
    f15c:	48 bf 62 08 71 c9 79 	movabs $0xd5ec3379c9710862,%rdi
    f163:	33 ec d5 
    f166:	e8 3d 77 ff ff       	callq  68a8 <safe_sub_func_int64_t_s_s>
    f16b:	48 8b 15 ee fd 00 00 	mov    0xfdee(%rip),%rdx        # 1ef60 <g_1360>
    f172:	48 8b 12             	mov    (%rdx),%rdx
    f175:	48 39 d0             	cmp    %rdx,%rax
    f178:	0f 94 c0             	sete   %al
    f17b:	0f b6 d0             	movzbl %al,%edx
    f17e:	0f b7 05 c7 06 01 00 	movzwl 0x106c7(%rip),%eax        # 1f84c <g_95>
    f185:	98                   	cwtl   
    f186:	39 c2                	cmp    %eax,%edx
    f188:	0f 9f c0             	setg   %al
    f18b:	0f b6 c0             	movzbl %al,%eax
    f18e:	48 f7 d0             	not    %rax
    f191:	48 89 c2             	mov    %rax,%rdx
    f194:	8b 85 4c d3 ff ff    	mov    -0x2cb4(%rbp),%eax
    f19a:	48 39 c2             	cmp    %rax,%rdx
    f19d:	0f 9c c0             	setl   %al
    f1a0:	0f b6 c0             	movzbl %al,%eax
    f1a3:	44 89 ee             	mov    %r13d,%esi
    f1a6:	89 c7                	mov    %eax,%edi
    f1a8:	e8 e5 72 ff ff       	callq  6492 <safe_lshift_func_int16_t_s_s>
    f1ad:	0f bf d0             	movswl %ax,%edx
    f1b0:	48 8b 85 b0 d5 ff ff 	mov    -0x2a50(%rbp),%rax
    f1b7:	89 10                	mov    %edx,(%rax)
    f1b9:	48 8b 85 b0 d5 ff ff 	mov    -0x2a50(%rbp),%rax
    f1c0:	8b 00                	mov    (%rax),%eax
    f1c2:	89 85 10 d4 ff ff    	mov    %eax,-0x2bf0(%rbp)
    f1c8:	48 8b 85 70 d4 ff ff 	mov    -0x2b90(%rbp),%rax
    f1cf:	8b 00                	mov    (%rax),%eax
    f1d1:	39 85 10 d4 ff ff    	cmp    %eax,-0x2bf0(%rbp)
    f1d7:	0f 9e c0             	setle  %al
    f1da:	0f b6 c0             	movzbl %al,%eax
    f1dd:	44 89 e6             	mov    %r12d,%esi
    f1e0:	89 c7                	mov    %eax,%edi
    f1e2:	e8 ac 79 ff ff       	callq  6b93 <safe_mul_func_uint8_t_u_u>
    f1e7:	84 c0                	test   %al,%al
    f1e9:	74 11                	je     f1fc <func_50+0x4d47>
    f1eb:	8b 05 5f df 00 00    	mov    0xdf5f(%rip),%eax        # 1d150 <g_1364>
    f1f1:	85 c0                	test   %eax,%eax
    f1f3:	74 07                	je     f1fc <func_50+0x4d47>
    f1f5:	ba 01 00 00 00       	mov    $0x1,%edx
    f1fa:	eb 05                	jmp    f201 <func_50+0x4d4c>
    f1fc:	ba 00 00 00 00       	mov    $0x0,%edx
    f201:	8b 85 a4 d3 ff ff    	mov    -0x2c5c(%rbp),%eax
    f207:	09 d0                	or     %edx,%eax
    f209:	89 05 bd de 00 00    	mov    %eax,0xdebd(%rip)        # 1d0cc <g_296>
    f20f:	8b 05 b7 de 00 00    	mov    0xdeb7(%rip),%eax        # 1d0cc <g_296>
    f215:	88 05 41 df 00 00    	mov    %al,0xdf41(%rip)        # 1d15c <g_1453>
    f21b:	0f b7 85 44 d3 ff ff 	movzwl -0x2cbc(%rbp),%eax
    f222:	98                   	cwtl   
    f223:	89 de                	mov    %ebx,%esi
    f225:	89 c7                	mov    %eax,%edi
    f227:	e8 a0 74 ff ff       	callq  66cc <safe_mod_func_int32_t_s_s>
    f22c:	0f b7 85 60 d3 ff ff 	movzwl -0x2ca0(%rbp),%eax
    f233:	66 85 c0             	test   %ax,%ax
    f236:	0f 94 c0             	sete   %al
    f239:	0f b6 c0             	movzbl %al,%eax
    f23c:	0b 85 48 d3 ff ff    	or     -0x2cb8(%rbp),%eax
    f242:	89 c2                	mov    %eax,%edx
    f244:	48 8b 85 a8 d5 ff ff 	mov    -0x2a58(%rbp),%rax
    f24b:	89 10                	mov    %edx,(%rax)
    f24d:	48 8b 05 84 f8 00 00 	mov    0xf884(%rip),%rax        # 1ead8 <g_449>
    f254:	48 8b 95 a8 d5 ff ff 	mov    -0x2a58(%rbp),%rdx
    f25b:	8b 12                	mov    (%rdx),%edx
    f25d:	89 10                	mov    %edx,(%rax)
    f25f:	48 8b 05 3a fb 00 00 	mov    0xfb3a(%rip),%rax        # 1eda0 <g_1010>
    f266:	48 8b 95 30 d6 ff ff 	mov    -0x29d0(%rbp),%rdx
    f26d:	48 89 10             	mov    %rdx,(%rax)
    f270:	48 8b 00             	mov    (%rax),%rax
    f273:	48 89 85 d8 d5 ff ff 	mov    %rax,-0x2a28(%rbp)
    f27a:	48 8b 85 68 fc ff ff 	mov    -0x398(%rbp),%rax
    f281:	48 89 05 88 fe 00 00 	mov    %rax,0xfe88(%rip)        # 1f110 <g_1457>
    f288:	48 8b 05 81 fe 00 00 	mov    0xfe81(%rip),%rax        # 1f110 <g_1457>
    f28f:	48 39 85 d8 d5 ff ff 	cmp    %rax,-0x2a28(%rbp)
    f296:	0f 95 c0             	setne  %al
    f299:	0f b6 d0             	movzbl %al,%edx
    f29c:	48 8b 85 b0 d5 ff ff 	mov    -0x2a50(%rbp),%rax
    f2a3:	8b 00                	mov    (%rax),%eax
    f2a5:	31 c2                	xor    %eax,%edx
    f2a7:	48 8b 85 b0 d5 ff ff 	mov    -0x2a50(%rbp),%rax
    f2ae:	89 10                	mov    %edx,(%rax)
    f2b0:	8b 9d 48 d3 ff ff    	mov    -0x2cb8(%rbp),%ebx
    f2b6:	c7 85 9c d3 ff ff ab 	movl   $0xab,-0x2c64(%rbp)
    f2bd:	00 00 00 
    f2c0:	48 8b 85 b0 d5 ff ff 	mov    -0x2a50(%rbp),%rax
    f2c7:	8b 00                	mov    (%rax),%eax
    f2c9:	41 89 c5             	mov    %eax,%r13d
    f2cc:	0f b7 85 44 d3 ff ff 	movzwl -0x2cbc(%rbp),%eax
    f2d3:	0f bf d0             	movswl %ax,%edx
    f2d6:	8b 85 a8 d3 ff ff    	mov    -0x2c58(%rbp),%eax
    f2dc:	39 c2                	cmp    %eax,%edx
    f2de:	0f 9e c0             	setle  %al
    f2e1:	44 0f b6 e0          	movzbl %al,%r12d
    f2e5:	48 8b 15 ac 05 01 00 	mov    0x105ac(%rip),%rdx        # 1f898 <g_1476>
    f2ec:	48 8b 85 68 d6 ff ff 	mov    -0x2998(%rbp),%rax
    f2f3:	48 89 10             	mov    %rdx,(%rax)
    f2f6:	48 8b 85 68 d6 ff ff 	mov    -0x2998(%rbp),%rax
    f2fd:	48 8b 00             	mov    (%rax),%rax
    f300:	48 8b 95 b0 d4 ff ff 	mov    -0x2b50(%rbp),%rdx
    f307:	48 89 95 e0 d5 ff ff 	mov    %rdx,-0x2a20(%rbp)
    f30e:	48 39 85 e0 d5 ff ff 	cmp    %rax,-0x2a20(%rbp)
    f315:	0f 95 c0             	setne  %al
    f318:	0f b6 c0             	movzbl %al,%eax
    f31b:	89 c6                	mov    %eax,%esi
    f31d:	bf 91 2e 00 00       	mov    $0x2e91,%edi
    f322:	e8 f8 79 ff ff       	callq  6d1f <safe_sub_func_uint16_t_u_u>
    f327:	98                   	cwtl   
    f328:	be 08 00 00 00       	mov    $0x8,%esi
    f32d:	89 c7                	mov    %eax,%edi
    f32f:	e8 c1 70 ff ff       	callq  63f5 <safe_mul_func_int16_t_s_s>
    f334:	48 8b 05 6d f9 00 00 	mov    0xf96d(%rip),%rax        # 1eca8 <g_725>
    f33b:	48 8b 05 0e f9 00 00 	mov    0xf90e(%rip),%rax        # 1ec50 <g_525>
    f342:	8b 10                	mov    (%rax),%edx
    f344:	8b 85 90 d3 ff ff    	mov    -0x2c70(%rbp),%eax
    f34a:	39 c2                	cmp    %eax,%edx
    f34c:	0f 9d c0             	setge  %al
    f34f:	0f b6 c0             	movzbl %al,%eax
    f352:	89 c2                	mov    %eax,%edx
    f354:	0f b7 05 e7 dd 00 00 	movzwl 0xdde7(%rip),%eax        # 1d142 <g_1157>
    f35b:	31 d0                	xor    %edx,%eax
    f35d:	66 89 05 de dd 00 00 	mov    %ax,0xddde(%rip)        # 1d142 <g_1157>
    f364:	0f b7 05 d7 dd 00 00 	movzwl 0xddd7(%rip),%eax        # 1d142 <g_1157>
    f36b:	0f b7 c0             	movzwl %ax,%eax
    f36e:	89 85 10 d4 ff ff    	mov    %eax,-0x2bf0(%rbp)
    f374:	44 89 e0             	mov    %r12d,%eax
    f377:	23 85 10 d4 ff ff    	and    -0x2bf0(%rbp),%eax
    f37d:	85 c0                	test   %eax,%eax
    f37f:	74 07                	je     f388 <func_50+0x4ed3>
    f381:	b8 01 00 00 00       	mov    $0x1,%eax
    f386:	eb 05                	jmp    f38d <func_50+0x4ed8>
    f388:	b8 00 00 00 00       	mov    $0x0,%eax
    f38d:	39 85 4c d3 ff ff    	cmp    %eax,-0x2cb4(%rbp)
    f393:	0f 92 c0             	setb   %al
    f396:	0f b6 c0             	movzbl %al,%eax
    f399:	be 01 00 00 00       	mov    $0x1,%esi
    f39e:	89 c7                	mov    %eax,%edi
    f3a0:	e8 13 7b ff ff       	callq  6eb8 <safe_add_func_uint32_t_u_u>
    f3a5:	8b 05 21 dd 00 00    	mov    0xdd21(%rip),%eax        # 1d0cc <g_296>
    f3ab:	44 89 ee             	mov    %r13d,%esi
    f3ae:	89 c7                	mov    %eax,%edi
    f3b0:	e8 03 7b ff ff       	callq  6eb8 <safe_add_func_uint32_t_u_u>
    f3b5:	89 c0                	mov    %eax,%eax
    f3b7:	25 60 f8 af be       	and    $0xbeaff860,%eax
    f3bc:	be 01 00 00 00       	mov    $0x1,%esi
    f3c1:	48 89 c7             	mov    %rax,%rdi
    f3c4:	e8 eb 75 ff ff       	callq  69b4 <safe_mod_func_int64_t_s_s>
    f3c9:	0f b6 15 84 dd 00 00 	movzbl 0xdd84(%rip),%edx        # 1d154 <g_1374>
    f3d0:	48 0f be d2          	movsbq %dl,%rdx
    f3d4:	48 39 d0             	cmp    %rdx,%rax
    f3d7:	0f 9e c2             	setle  %dl
    f3da:	48 8b 05 47 f6 00 00 	mov    0xf647(%rip),%rax        # 1ea28 <g_352>
    f3e1:	0f b6 d2             	movzbl %dl,%edx
    f3e4:	66 89 10             	mov    %dx,(%rax)
    f3e7:	0f b7 00             	movzwl (%rax),%eax
    f3ea:	0f b7 d0             	movzwl %ax,%edx
    f3ed:	0f b7 05 4c dd 00 00 	movzwl 0xdd4c(%rip),%eax        # 1d140 <g_1109>
    f3f4:	8d 48 01             	lea    0x1(%rax),%ecx
    f3f7:	66 89 0d 42 dd 00 00 	mov    %cx,0xdd42(%rip)        # 1d140 <g_1109>
    f3fe:	0f b7 c0             	movzwl %ax,%eax
    f401:	89 d6                	mov    %edx,%esi
    f403:	89 c7                	mov    %eax,%edi
    f405:	e8 33 79 ff ff       	callq  6d3d <safe_mul_func_uint16_t_u_u>
    f40a:	66 3d aa 00          	cmp    $0xaa,%ax
    f40e:	0f 96 c0             	setbe  %al
    f411:	0f b6 c0             	movzbl %al,%eax
    f414:	be 05 00 00 00       	mov    $0x5,%esi
    f419:	89 c7                	mov    %eax,%edi
    f41b:	e8 5a 7a ff ff       	callq  6e7a <safe_rshift_func_uint16_t_u_u>
    f420:	0f b7 c0             	movzwl %ax,%eax
    f423:	48 89 de             	mov    %rbx,%rsi
    f426:	48 89 c7             	mov    %rax,%rdi
    f429:	e8 7a 74 ff ff       	callq  68a8 <safe_sub_func_int64_t_s_s>
    f42e:	89 c1                	mov    %eax,%ecx
    f430:	8b 95 2c db ff ff    	mov    -0x24d4(%rbp),%edx
    f436:	48 8b 05 9b f6 00 00 	mov    0xf69b(%rip),%rax        # 1ead8 <g_449>
    f43d:	21 ca                	and    %ecx,%edx
    f43f:	89 10                	mov    %edx,(%rax)
    f441:	0f b7 95 60 d3 ff ff 	movzwl -0x2ca0(%rbp),%edx
    f448:	48 8b 05 01 f8 00 00 	mov    0xf801(%rip),%rax        # 1ec50 <g_525>
    f44f:	0f b7 d2             	movzwl %dx,%edx
    f452:	89 10                	mov    %edx,(%rax)
    f454:	83 bd 48 d3 ff ff 00 	cmpl   $0x0,-0x2cb8(%rbp)
    f45b:	eb 01                	jmp    f45e <func_50+0x4fa9>
    f45d:	90                   	nop
    f45e:	0f b6 05 57 dc 00 00 	movzbl 0xdc57(%rip),%eax        # 1d0bc <g_293>
    f465:	83 c0 01             	add    $0x1,%eax
    f468:	88 05 4e dc 00 00    	mov    %al,0xdc4e(%rip)        # 1d0bc <g_293>
    f46e:	0f b6 05 47 dc 00 00 	movzbl 0xdc47(%rip),%eax        # 1d0bc <g_293>
    f475:	3c 01                	cmp    $0x1,%al
    f477:	0f 86 6e c3 ff ff    	jbe    b7eb <func_50+0x1336>
    f47d:	c7 05 99 dc 00 00 00 	movl   $0x0,0xdc99(%rip)        # 1d120 <g_929>
    f484:	00 00 00 
    f487:	e9 f3 11 00 00       	jmpq   1067f <func_50+0x61ca>
    f48c:	c7 85 50 d4 ff ff fe 	movl   $0xfffffffe,-0x2bb0(%rbp)
    f493:	ff ff ff 
    f496:	48 c7 85 e0 d6 ff ff 	movq   $0x0,-0x2920(%rbp)
    f49d:	00 00 00 00 
    f4a1:	c7 85 54 d4 ff ff 3c 	movl   $0xf1dc6c3c,-0x2bac(%rbp)
    f4a8:	6c dc f1 
    f4ab:	c7 85 58 d4 ff ff ff 	movl   $0xffffffff,-0x2ba8(%rbp)
    f4b2:	ff ff ff 
    f4b5:	c7 85 5c d4 ff ff fc 	movl   $0xc5ed44fc,-0x2ba4(%rbp)
    f4bc:	44 ed c5 
    f4bf:	83 bd 48 d3 ff ff 00 	cmpl   $0x0,-0x2cb8(%rbp)
    f4c6:	74 12                	je     f4da <func_50+0x5025>
    f4c8:	48 8b 05 81 f7 00 00 	mov    0xf781(%rip),%rax        # 1ec50 <g_525>
    f4cf:	c7 00 32 7c 0e ee    	movl   $0xee0e7c32,(%rax)
    f4d5:	e9 87 11 00 00       	jmpq   10661 <func_50+0x61ac>
    f4da:	48 8d 05 3f dc 00 00 	lea    0xdc3f(%rip),%rax        # 1d120 <g_929>
    f4e1:	48 89 85 b0 f7 ff ff 	mov    %rax,-0x850(%rbp)
    f4e8:	48 8d 85 a0 d8 ff ff 	lea    -0x2760(%rbp),%rax
    f4ef:	48 83 c0 04          	add    $0x4,%rax
    f4f3:	48 89 85 b8 f7 ff ff 	mov    %rax,-0x848(%rbp)
    f4fa:	48 8d 05 47 03 01 00 	lea    0x10347(%rip),%rax        # 1f848 <g_2>
    f501:	48 89 85 c0 f7 ff ff 	mov    %rax,-0x840(%rbp)
    f508:	48 8d 05 39 03 01 00 	lea    0x10339(%rip),%rax        # 1f848 <g_2>
    f50f:	48 89 85 c8 f7 ff ff 	mov    %rax,-0x838(%rbp)
    f516:	48 8d 85 a0 d8 ff ff 	lea    -0x2760(%rbp),%rax
    f51d:	48 83 c0 04          	add    $0x4,%rax
    f521:	48 89 85 d0 f7 ff ff 	mov    %rax,-0x830(%rbp)
    f528:	48 8d 05 f1 db 00 00 	lea    0xdbf1(%rip),%rax        # 1d120 <g_929>
    f52f:	48 89 85 d8 f7 ff ff 	mov    %rax,-0x828(%rbp)
    f536:	48 8d 85 80 d3 ff ff 	lea    -0x2c80(%rbp),%rax
    f53d:	48 89 85 e0 f7 ff ff 	mov    %rax,-0x820(%rbp)
    f544:	48 8d 85 a0 d8 ff ff 	lea    -0x2760(%rbp),%rax
    f54b:	48 83 c0 04          	add    $0x4,%rax
    f54f:	48 89 85 e8 f7 ff ff 	mov    %rax,-0x818(%rbp)
    f556:	48 8d 85 90 dd ff ff 	lea    -0x2270(%rbp),%rax
    f55d:	48 05 b4 01 00 00    	add    $0x1b4,%rax
    f563:	48 89 85 f0 f7 ff ff 	mov    %rax,-0x810(%rbp)
    f56a:	48 8d 85 80 d3 ff ff 	lea    -0x2c80(%rbp),%rax
    f571:	48 89 85 f8 f7 ff ff 	mov    %rax,-0x808(%rbp)
    f578:	48 8d 05 c9 02 01 00 	lea    0x102c9(%rip),%rax        # 1f848 <g_2>
    f57f:	48 89 85 00 f8 ff ff 	mov    %rax,-0x800(%rbp)
    f586:	48 8d 85 90 dd ff ff 	lea    -0x2270(%rbp),%rax
    f58d:	48 05 b4 01 00 00    	add    $0x1b4,%rax
    f593:	48 89 85 08 f8 ff ff 	mov    %rax,-0x7f8(%rbp)
    f59a:	48 8d 05 a7 02 01 00 	lea    0x102a7(%rip),%rax        # 1f848 <g_2>
    f5a1:	48 89 85 10 f8 ff ff 	mov    %rax,-0x7f0(%rbp)
    f5a8:	48 8d 85 80 d3 ff ff 	lea    -0x2c80(%rbp),%rax
    f5af:	48 89 85 18 f8 ff ff 	mov    %rax,-0x7e8(%rbp)
    f5b6:	48 8d 85 90 dd ff ff 	lea    -0x2270(%rbp),%rax
    f5bd:	48 05 b4 01 00 00    	add    $0x1b4,%rax
    f5c3:	48 89 85 20 f8 ff ff 	mov    %rax,-0x7e0(%rbp)
    f5ca:	48 8d 05 4f db 00 00 	lea    0xdb4f(%rip),%rax        # 1d120 <g_929>
    f5d1:	48 89 85 28 f8 ff ff 	mov    %rax,-0x7d8(%rbp)
    f5d8:	48 8d 85 a0 d8 ff ff 	lea    -0x2760(%rbp),%rax
    f5df:	48 83 c0 04          	add    $0x4,%rax
    f5e3:	48 89 85 30 f8 ff ff 	mov    %rax,-0x7d0(%rbp)
    f5ea:	48 8d 85 a0 d8 ff ff 	lea    -0x2760(%rbp),%rax
    f5f1:	48 83 c0 44          	add    $0x44,%rax
    f5f5:	48 89 85 38 f8 ff ff 	mov    %rax,-0x7c8(%rbp)
    f5fc:	48 8d 85 80 d3 ff ff 	lea    -0x2c80(%rbp),%rax
    f603:	48 89 85 40 f8 ff ff 	mov    %rax,-0x7c0(%rbp)
    f60a:	48 8d 85 90 dd ff ff 	lea    -0x2270(%rbp),%rax
    f611:	48 05 b4 01 00 00    	add    $0x1b4,%rax
    f617:	48 89 85 48 f8 ff ff 	mov    %rax,-0x7b8(%rbp)
    f61e:	48 8d 85 90 dd ff ff 	lea    -0x2270(%rbp),%rax
    f625:	48 05 b4 01 00 00    	add    $0x1b4,%rax
    f62b:	48 89 85 50 f8 ff ff 	mov    %rax,-0x7b0(%rbp)
    f632:	48 8d 85 80 d3 ff ff 	lea    -0x2c80(%rbp),%rax
    f639:	48 89 85 58 f8 ff ff 	mov    %rax,-0x7a8(%rbp)
    f640:	48 8d 85 a0 d8 ff ff 	lea    -0x2760(%rbp),%rax
    f647:	48 83 c0 44          	add    $0x44,%rax
    f64b:	48 89 85 60 f8 ff ff 	mov    %rax,-0x7a0(%rbp)
    f652:	48 8d 85 a0 d8 ff ff 	lea    -0x2760(%rbp),%rax
    f659:	48 83 c0 04          	add    $0x4,%rax
    f65d:	48 89 85 68 f8 ff ff 	mov    %rax,-0x798(%rbp)
    f664:	48 8d 05 b5 da 00 00 	lea    0xdab5(%rip),%rax        # 1d120 <g_929>
    f66b:	48 89 85 70 f8 ff ff 	mov    %rax,-0x790(%rbp)
    f672:	48 8d 85 90 dd ff ff 	lea    -0x2270(%rbp),%rax
    f679:	48 05 b4 01 00 00    	add    $0x1b4,%rax
    f67f:	48 89 85 78 f8 ff ff 	mov    %rax,-0x788(%rbp)
    f686:	48 8d 85 80 d3 ff ff 	lea    -0x2c80(%rbp),%rax
    f68d:	48 89 85 80 f8 ff ff 	mov    %rax,-0x780(%rbp)
    f694:	48 8d 05 ad 01 01 00 	lea    0x101ad(%rip),%rax        # 1f848 <g_2>
    f69b:	48 89 85 88 f8 ff ff 	mov    %rax,-0x778(%rbp)
    f6a2:	48 8d 85 90 dd ff ff 	lea    -0x2270(%rbp),%rax
    f6a9:	48 05 b4 01 00 00    	add    $0x1b4,%rax
    f6af:	48 89 85 90 f8 ff ff 	mov    %rax,-0x770(%rbp)
    f6b6:	48 8d 05 8b 01 01 00 	lea    0x1018b(%rip),%rax        # 1f848 <g_2>
    f6bd:	48 89 85 98 f8 ff ff 	mov    %rax,-0x768(%rbp)
    f6c4:	48 8d 85 80 d3 ff ff 	lea    -0x2c80(%rbp),%rax
    f6cb:	48 89 85 a0 f8 ff ff 	mov    %rax,-0x760(%rbp)
    f6d2:	48 8d 85 90 dd ff ff 	lea    -0x2270(%rbp),%rax
    f6d9:	48 05 b4 01 00 00    	add    $0x1b4,%rax
    f6df:	48 89 85 a8 f8 ff ff 	mov    %rax,-0x758(%rbp)
    f6e6:	48 8d 85 a0 d8 ff ff 	lea    -0x2760(%rbp),%rax
    f6ed:	48 83 c0 04          	add    $0x4,%rax
    f6f1:	48 89 85 b0 f8 ff ff 	mov    %rax,-0x750(%rbp)
    f6f8:	48 8d 85 80 d3 ff ff 	lea    -0x2c80(%rbp),%rax
    f6ff:	48 89 85 b8 f8 ff ff 	mov    %rax,-0x748(%rbp)
    f706:	48 8d 05 13 da 00 00 	lea    0xda13(%rip),%rax        # 1d120 <g_929>
    f70d:	48 89 85 c0 f8 ff ff 	mov    %rax,-0x740(%rbp)
    f714:	48 8d 85 a0 d8 ff ff 	lea    -0x2760(%rbp),%rax
    f71b:	48 83 c0 04          	add    $0x4,%rax
    f71f:	48 89 85 c8 f8 ff ff 	mov    %rax,-0x738(%rbp)
    f726:	48 8d 05 1b 01 01 00 	lea    0x1011b(%rip),%rax        # 1f848 <g_2>
    f72d:	48 89 85 d0 f8 ff ff 	mov    %rax,-0x730(%rbp)
    f734:	48 8d 05 0d 01 01 00 	lea    0x1010d(%rip),%rax        # 1f848 <g_2>
    f73b:	48 89 85 d8 f8 ff ff 	mov    %rax,-0x728(%rbp)
    f742:	48 8d 85 a0 d8 ff ff 	lea    -0x2760(%rbp),%rax
    f749:	48 83 c0 04          	add    $0x4,%rax
    f74d:	48 89 85 e0 f8 ff ff 	mov    %rax,-0x720(%rbp)
    f754:	48 8d 05 c5 d9 00 00 	lea    0xd9c5(%rip),%rax        # 1d120 <g_929>
    f75b:	48 89 85 e8 f8 ff ff 	mov    %rax,-0x718(%rbp)
    f762:	48 8d 85 90 dd ff ff 	lea    -0x2270(%rbp),%rax
    f769:	48 05 b4 01 00 00    	add    $0x1b4,%rax
    f76f:	48 89 85 f0 f8 ff ff 	mov    %rax,-0x710(%rbp)
    f776:	48 8d 85 90 dd ff ff 	lea    -0x2270(%rbp),%rax
    f77d:	48 05 b4 01 00 00    	add    $0x1b4,%rax
    f783:	48 89 85 f8 f8 ff ff 	mov    %rax,-0x708(%rbp)
    f78a:	48 8d 85 80 d3 ff ff 	lea    -0x2c80(%rbp),%rax
    f791:	48 89 85 00 f9 ff ff 	mov    %rax,-0x700(%rbp)
    f798:	48 8d 85 a0 d8 ff ff 	lea    -0x2760(%rbp),%rax
    f79f:	48 83 c0 44          	add    $0x44,%rax
    f7a3:	48 89 85 08 f9 ff ff 	mov    %rax,-0x6f8(%rbp)
    f7aa:	48 8d 85 a0 d8 ff ff 	lea    -0x2760(%rbp),%rax
    f7b1:	48 83 c0 04          	add    $0x4,%rax
    f7b5:	48 89 85 10 f9 ff ff 	mov    %rax,-0x6f0(%rbp)
    f7bc:	48 8d 85 80 d3 ff ff 	lea    -0x2c80(%rbp),%rax
    f7c3:	48 89 85 18 f9 ff ff 	mov    %rax,-0x6e8(%rbp)
    f7ca:	48 8d 85 a0 d8 ff ff 	lea    -0x2760(%rbp),%rax
    f7d1:	48 83 c0 04          	add    $0x4,%rax
    f7d5:	48 89 85 20 f9 ff ff 	mov    %rax,-0x6e0(%rbp)
    f7dc:	48 8d 85 a0 d8 ff ff 	lea    -0x2760(%rbp),%rax
    f7e3:	48 83 c0 44          	add    $0x44,%rax
    f7e7:	48 89 85 28 f9 ff ff 	mov    %rax,-0x6d8(%rbp)
    f7ee:	48 8d 05 2b d9 00 00 	lea    0xd92b(%rip),%rax        # 1d120 <g_929>
    f7f5:	48 89 85 30 f9 ff ff 	mov    %rax,-0x6d0(%rbp)
    f7fc:	48 8d 85 a0 d8 ff ff 	lea    -0x2760(%rbp),%rax
    f803:	48 83 c0 44          	add    $0x44,%rax
    f807:	48 89 85 38 f9 ff ff 	mov    %rax,-0x6c8(%rbp)
    f80e:	48 8d 05 0b d9 00 00 	lea    0xd90b(%rip),%rax        # 1d120 <g_929>
    f815:	48 89 85 40 f9 ff ff 	mov    %rax,-0x6c0(%rbp)
    f81c:	48 8d 05 25 00 01 00 	lea    0x10025(%rip),%rax        # 1f848 <g_2>
    f823:	48 89 85 48 f9 ff ff 	mov    %rax,-0x6b8(%rbp)
    f82a:	48 8d 85 a0 d8 ff ff 	lea    -0x2760(%rbp),%rax
    f831:	48 83 c0 44          	add    $0x44,%rax
    f835:	48 89 85 50 f9 ff ff 	mov    %rax,-0x6b0(%rbp)
    f83c:	48 8d 85 80 d3 ff ff 	lea    -0x2c80(%rbp),%rax
    f843:	48 89 85 58 f9 ff ff 	mov    %rax,-0x6a8(%rbp)
    f84a:	48 8d 85 80 d3 ff ff 	lea    -0x2c80(%rbp),%rax
    f851:	48 89 85 60 f9 ff ff 	mov    %rax,-0x6a0(%rbp)
    f858:	48 8d 85 a0 d8 ff ff 	lea    -0x2760(%rbp),%rax
    f85f:	48 83 c0 44          	add    $0x44,%rax
    f863:	48 89 85 68 f9 ff ff 	mov    %rax,-0x698(%rbp)
    f86a:	48 8d 85 a0 d8 ff ff 	lea    -0x2760(%rbp),%rax
    f871:	48 83 c0 44          	add    $0x44,%rax
    f875:	48 89 85 70 f9 ff ff 	mov    %rax,-0x690(%rbp)
    f87c:	48 8d 85 80 d3 ff ff 	lea    -0x2c80(%rbp),%rax
    f883:	48 89 85 78 f9 ff ff 	mov    %rax,-0x688(%rbp)
    f88a:	48 8d 85 80 d3 ff ff 	lea    -0x2c80(%rbp),%rax
    f891:	48 89 85 80 f9 ff ff 	mov    %rax,-0x680(%rbp)
    f898:	48 8d 85 a0 d8 ff ff 	lea    -0x2760(%rbp),%rax
    f89f:	48 83 c0 44          	add    $0x44,%rax
    f8a3:	48 89 85 88 f9 ff ff 	mov    %rax,-0x678(%rbp)
    f8aa:	48 8d 05 97 ff 00 00 	lea    0xff97(%rip),%rax        # 1f848 <g_2>
    f8b1:	48 89 85 90 f9 ff ff 	mov    %rax,-0x670(%rbp)
    f8b8:	48 8d 05 61 d8 00 00 	lea    0xd861(%rip),%rax        # 1d120 <g_929>
    f8bf:	48 89 85 98 f9 ff ff 	mov    %rax,-0x668(%rbp)
    f8c6:	48 8d 85 a0 d8 ff ff 	lea    -0x2760(%rbp),%rax
    f8cd:	48 83 c0 44          	add    $0x44,%rax
    f8d1:	48 89 85 a0 f9 ff ff 	mov    %rax,-0x660(%rbp)
    f8d8:	48 8d 05 41 d8 00 00 	lea    0xd841(%rip),%rax        # 1d120 <g_929>
    f8df:	48 89 85 a8 f9 ff ff 	mov    %rax,-0x658(%rbp)
    f8e6:	48 8d 85 a0 d8 ff ff 	lea    -0x2760(%rbp),%rax
    f8ed:	48 83 c0 44          	add    $0x44,%rax
    f8f1:	48 89 85 b0 f9 ff ff 	mov    %rax,-0x650(%rbp)
    f8f8:	48 8d 85 a0 d8 ff ff 	lea    -0x2760(%rbp),%rax
    f8ff:	48 83 c0 04          	add    $0x4,%rax
    f903:	48 89 85 b8 f9 ff ff 	mov    %rax,-0x648(%rbp)
    f90a:	48 8d 85 80 d3 ff ff 	lea    -0x2c80(%rbp),%rax
    f911:	48 89 85 c0 f9 ff ff 	mov    %rax,-0x640(%rbp)
    f918:	48 8d 85 a0 d8 ff ff 	lea    -0x2760(%rbp),%rax
    f91f:	48 83 c0 04          	add    $0x4,%rax
    f923:	48 89 85 c8 f9 ff ff 	mov    %rax,-0x638(%rbp)
    f92a:	48 8d 85 a0 d8 ff ff 	lea    -0x2760(%rbp),%rax
    f931:	48 83 c0 44          	add    $0x44,%rax
    f935:	48 89 85 d0 f9 ff ff 	mov    %rax,-0x630(%rbp)
    f93c:	48 8d 85 80 d3 ff ff 	lea    -0x2c80(%rbp),%rax
    f943:	48 89 85 d8 f9 ff ff 	mov    %rax,-0x628(%rbp)
    f94a:	48 8d 85 90 dd ff ff 	lea    -0x2270(%rbp),%rax
    f951:	48 05 b4 01 00 00    	add    $0x1b4,%rax
    f957:	48 89 85 e0 f9 ff ff 	mov    %rax,-0x620(%rbp)
    f95e:	48 8d 85 90 dd ff ff 	lea    -0x2270(%rbp),%rax
    f965:	48 05 b4 01 00 00    	add    $0x1b4,%rax
    f96b:	48 89 85 e8 f9 ff ff 	mov    %rax,-0x618(%rbp)
    f972:	48 8d 05 a7 d7 00 00 	lea    0xd7a7(%rip),%rax        # 1d120 <g_929>
    f979:	48 89 85 f0 f9 ff ff 	mov    %rax,-0x610(%rbp)
    f980:	48 8d 85 a0 d8 ff ff 	lea    -0x2760(%rbp),%rax
    f987:	48 83 c0 04          	add    $0x4,%rax
    f98b:	48 89 85 f8 f9 ff ff 	mov    %rax,-0x608(%rbp)
    f992:	48 8d 05 af fe 00 00 	lea    0xfeaf(%rip),%rax        # 1f848 <g_2>
    f999:	48 89 85 00 fa ff ff 	mov    %rax,-0x600(%rbp)
    f9a0:	48 8d 05 a1 fe 00 00 	lea    0xfea1(%rip),%rax        # 1f848 <g_2>
    f9a7:	48 89 85 08 fa ff ff 	mov    %rax,-0x5f8(%rbp)
    f9ae:	48 8d 85 a0 d8 ff ff 	lea    -0x2760(%rbp),%rax
    f9b5:	48 83 c0 04          	add    $0x4,%rax
    f9b9:	48 89 85 10 fa ff ff 	mov    %rax,-0x5f0(%rbp)
    f9c0:	48 8d 05 59 d7 00 00 	lea    0xd759(%rip),%rax        # 1d120 <g_929>
    f9c7:	48 89 85 18 fa ff ff 	mov    %rax,-0x5e8(%rbp)
    f9ce:	48 8d 85 80 d3 ff ff 	lea    -0x2c80(%rbp),%rax
    f9d5:	48 89 85 20 fa ff ff 	mov    %rax,-0x5e0(%rbp)
    f9dc:	48 8d 85 a0 d8 ff ff 	lea    -0x2760(%rbp),%rax
    f9e3:	48 83 c0 04          	add    $0x4,%rax
    f9e7:	48 89 85 28 fa ff ff 	mov    %rax,-0x5d8(%rbp)
    f9ee:	48 8d 85 90 dd ff ff 	lea    -0x2270(%rbp),%rax
    f9f5:	48 05 b4 01 00 00    	add    $0x1b4,%rax
    f9fb:	48 89 85 30 fa ff ff 	mov    %rax,-0x5d0(%rbp)
    fa02:	48 8d 85 80 d3 ff ff 	lea    -0x2c80(%rbp),%rax
    fa09:	48 89 85 38 fa ff ff 	mov    %rax,-0x5c8(%rbp)
    fa10:	48 8d 05 31 fe 00 00 	lea    0xfe31(%rip),%rax        # 1f848 <g_2>
    fa17:	48 89 85 40 fa ff ff 	mov    %rax,-0x5c0(%rbp)
    fa1e:	48 8d 85 90 dd ff ff 	lea    -0x2270(%rbp),%rax
    fa25:	48 05 b4 01 00 00    	add    $0x1b4,%rax
    fa2b:	48 89 85 48 fa ff ff 	mov    %rax,-0x5b8(%rbp)
    fa32:	48 8d 05 0f fe 00 00 	lea    0xfe0f(%rip),%rax        # 1f848 <g_2>
    fa39:	48 89 85 50 fa ff ff 	mov    %rax,-0x5b0(%rbp)
    fa40:	48 8d 85 80 d3 ff ff 	lea    -0x2c80(%rbp),%rax
    fa47:	48 89 85 58 fa ff ff 	mov    %rax,-0x5a8(%rbp)
    fa4e:	48 8d 85 90 dd ff ff 	lea    -0x2270(%rbp),%rax
    fa55:	48 05 b4 01 00 00    	add    $0x1b4,%rax
    fa5b:	48 89 85 60 fa ff ff 	mov    %rax,-0x5a0(%rbp)
    fa62:	48 8d 05 b7 d6 00 00 	lea    0xd6b7(%rip),%rax        # 1d120 <g_929>
    fa69:	48 89 85 68 fa ff ff 	mov    %rax,-0x598(%rbp)
    fa70:	48 8d 85 a0 d8 ff ff 	lea    -0x2760(%rbp),%rax
    fa77:	48 83 c0 04          	add    $0x4,%rax
    fa7b:	48 89 85 70 fa ff ff 	mov    %rax,-0x590(%rbp)
    fa82:	48 8d 85 a0 d8 ff ff 	lea    -0x2760(%rbp),%rax
    fa89:	48 83 c0 44          	add    $0x44,%rax
    fa8d:	48 89 85 78 fa ff ff 	mov    %rax,-0x588(%rbp)
    fa94:	48 8d 85 80 d3 ff ff 	lea    -0x2c80(%rbp),%rax
    fa9b:	48 89 85 80 fa ff ff 	mov    %rax,-0x580(%rbp)
    faa2:	48 8d 85 90 dd ff ff 	lea    -0x2270(%rbp),%rax
    faa9:	48 05 b4 01 00 00    	add    $0x1b4,%rax
    faaf:	48 89 85 88 fa ff ff 	mov    %rax,-0x578(%rbp)
    fab6:	48 8d 85 90 dd ff ff 	lea    -0x2270(%rbp),%rax
    fabd:	48 05 b4 01 00 00    	add    $0x1b4,%rax
    fac3:	48 89 85 90 fa ff ff 	mov    %rax,-0x570(%rbp)
    faca:	48 8d 85 80 d3 ff ff 	lea    -0x2c80(%rbp),%rax
    fad1:	48 89 85 98 fa ff ff 	mov    %rax,-0x568(%rbp)
    fad8:	48 8d 85 a0 d8 ff ff 	lea    -0x2760(%rbp),%rax
    fadf:	48 83 c0 44          	add    $0x44,%rax
    fae3:	48 89 85 a0 fa ff ff 	mov    %rax,-0x560(%rbp)
    faea:	48 8d 05 57 fd 00 00 	lea    0xfd57(%rip),%rax        # 1f848 <g_2>
    faf1:	48 89 85 a8 fa ff ff 	mov    %rax,-0x558(%rbp)
    faf8:	48 8d 85 80 d3 ff ff 	lea    -0x2c80(%rbp),%rax
    faff:	48 89 85 b0 fa ff ff 	mov    %rax,-0x550(%rbp)
    fb06:	48 8d 05 13 d6 00 00 	lea    0xd613(%rip),%rax        # 1d120 <g_929>
    fb0d:	48 89 85 b8 fa ff ff 	mov    %rax,-0x548(%rbp)
    fb14:	48 8d 85 80 d3 ff ff 	lea    -0x2c80(%rbp),%rax
    fb1b:	48 89 85 c0 fa ff ff 	mov    %rax,-0x540(%rbp)
    fb22:	48 8d 85 88 d3 ff ff 	lea    -0x2c78(%rbp),%rax
    fb29:	48 89 85 c8 fa ff ff 	mov    %rax,-0x538(%rbp)
    fb30:	48 8d 05 e9 d5 00 00 	lea    0xd5e9(%rip),%rax        # 1d120 <g_929>
    fb37:	48 89 85 d0 fa ff ff 	mov    %rax,-0x530(%rbp)
    fb3e:	48 8d 85 88 d3 ff ff 	lea    -0x2c78(%rbp),%rax
    fb45:	48 89 85 d8 fa ff ff 	mov    %rax,-0x528(%rbp)
    fb4c:	48 8d 85 80 d3 ff ff 	lea    -0x2c80(%rbp),%rax
    fb53:	48 89 85 e0 fa ff ff 	mov    %rax,-0x520(%rbp)
    fb5a:	48 8d 05 bf d5 00 00 	lea    0xd5bf(%rip),%rax        # 1d120 <g_929>
    fb61:	48 89 85 e8 fa ff ff 	mov    %rax,-0x518(%rbp)
    fb68:	48 8d 05 d9 fc 00 00 	lea    0xfcd9(%rip),%rax        # 1f848 <g_2>
    fb6f:	48 89 85 f0 fa ff ff 	mov    %rax,-0x510(%rbp)
    fb76:	48 8d 85 80 d3 ff ff 	lea    -0x2c80(%rbp),%rax
    fb7d:	48 89 85 f8 fa ff ff 	mov    %rax,-0x508(%rbp)
    fb84:	48 8d 85 80 d3 ff ff 	lea    -0x2c80(%rbp),%rax
    fb8b:	48 89 85 00 fb ff ff 	mov    %rax,-0x500(%rbp)
    fb92:	48 8d 05 af fc 00 00 	lea    0xfcaf(%rip),%rax        # 1f848 <g_2>
    fb99:	48 89 85 08 fb ff ff 	mov    %rax,-0x4f8(%rbp)
    fba0:	48 8d 85 88 d3 ff ff 	lea    -0x2c78(%rbp),%rax
    fba7:	48 89 85 10 fb ff ff 	mov    %rax,-0x4f0(%rbp)
    fbae:	48 8d 85 88 d3 ff ff 	lea    -0x2c78(%rbp),%rax
    fbb5:	48 89 85 18 fb ff ff 	mov    %rax,-0x4e8(%rbp)
    fbbc:	48 8d 05 85 fc 00 00 	lea    0xfc85(%rip),%rax        # 1f848 <g_2>
    fbc3:	48 89 85 20 fb ff ff 	mov    %rax,-0x4e0(%rbp)
    fbca:	48 8d 85 80 d3 ff ff 	lea    -0x2c80(%rbp),%rax
    fbd1:	48 89 85 28 fb ff ff 	mov    %rax,-0x4d8(%rbp)
    fbd8:	48 8d 05 41 d5 00 00 	lea    0xd541(%rip),%rax        # 1d120 <g_929>
    fbdf:	48 89 85 30 fb ff ff 	mov    %rax,-0x4d0(%rbp)
    fbe6:	48 8d 05 33 d5 00 00 	lea    0xd533(%rip),%rax        # 1d120 <g_929>
    fbed:	48 89 85 38 fb ff ff 	mov    %rax,-0x4c8(%rbp)
    fbf4:	48 8d 85 90 dd ff ff 	lea    -0x2270(%rbp),%rax
    fbfb:	48 05 b4 01 00 00    	add    $0x1b4,%rax
    fc01:	48 89 85 40 fb ff ff 	mov    %rax,-0x4c0(%rbp)
    fc08:	48 8d 85 80 d3 ff ff 	lea    -0x2c80(%rbp),%rax
    fc0f:	48 89 85 48 fb ff ff 	mov    %rax,-0x4b8(%rbp)
    fc16:	48 8d 05 2b fc 00 00 	lea    0xfc2b(%rip),%rax        # 1f848 <g_2>
    fc1d:	48 89 85 50 fb ff ff 	mov    %rax,-0x4b0(%rbp)
    fc24:	48 8d 85 90 dd ff ff 	lea    -0x2270(%rbp),%rax
    fc2b:	48 05 b4 01 00 00    	add    $0x1b4,%rax
    fc31:	48 89 85 58 fb ff ff 	mov    %rax,-0x4a8(%rbp)
    fc38:	48 8d 05 09 fc 00 00 	lea    0xfc09(%rip),%rax        # 1f848 <g_2>
    fc3f:	48 89 85 60 fb ff ff 	mov    %rax,-0x4a0(%rbp)
    fc46:	48 8d 85 80 d3 ff ff 	lea    -0x2c80(%rbp),%rax
    fc4d:	48 89 85 68 fb ff ff 	mov    %rax,-0x498(%rbp)
    fc54:	48 8d 85 80 d3 ff ff 	lea    -0x2c80(%rbp),%rax
    fc5b:	48 89 85 70 fb ff ff 	mov    %rax,-0x490(%rbp)
    fc62:	48 8d 85 80 d3 ff ff 	lea    -0x2c80(%rbp),%rax
    fc69:	48 89 85 78 fb ff ff 	mov    %rax,-0x488(%rbp)
    fc70:	48 8d 85 80 d3 ff ff 	lea    -0x2c80(%rbp),%rax
    fc77:	48 89 85 80 fb ff ff 	mov    %rax,-0x480(%rbp)
    fc7e:	48 8d 85 88 d3 ff ff 	lea    -0x2c78(%rbp),%rax
    fc85:	48 89 85 88 fb ff ff 	mov    %rax,-0x478(%rbp)
    fc8c:	48 8d 85 80 d3 ff ff 	lea    -0x2c80(%rbp),%rax
    fc93:	48 89 85 90 fb ff ff 	mov    %rax,-0x470(%rbp)
    fc9a:	48 8d 85 80 d3 ff ff 	lea    -0x2c80(%rbp),%rax
    fca1:	48 89 85 98 fb ff ff 	mov    %rax,-0x468(%rbp)
    fca8:	48 8d 85 80 d3 ff ff 	lea    -0x2c80(%rbp),%rax
    fcaf:	48 89 85 a0 fb ff ff 	mov    %rax,-0x460(%rbp)
    fcb6:	48 8d 85 80 d3 ff ff 	lea    -0x2c80(%rbp),%rax
    fcbd:	48 89 85 a8 fb ff ff 	mov    %rax,-0x458(%rbp)
    fcc4:	48 8d 85 80 d3 ff ff 	lea    -0x2c80(%rbp),%rax
    fccb:	48 89 85 b0 fb ff ff 	mov    %rax,-0x450(%rbp)
    fcd2:	48 8d 85 80 d3 ff ff 	lea    -0x2c80(%rbp),%rax
    fcd9:	48 89 85 b8 fb ff ff 	mov    %rax,-0x448(%rbp)
    fce0:	48 8d 85 80 d3 ff ff 	lea    -0x2c80(%rbp),%rax
    fce7:	48 89 85 c0 fb ff ff 	mov    %rax,-0x440(%rbp)
    fcee:	48 8d 85 80 d3 ff ff 	lea    -0x2c80(%rbp),%rax
    fcf5:	48 89 85 c8 fb ff ff 	mov    %rax,-0x438(%rbp)
    fcfc:	48 8d 85 88 d3 ff ff 	lea    -0x2c78(%rbp),%rax
    fd03:	48 89 85 d0 fb ff ff 	mov    %rax,-0x430(%rbp)
    fd0a:	48 8d 85 80 d3 ff ff 	lea    -0x2c80(%rbp),%rax
    fd11:	48 89 85 d8 fb ff ff 	mov    %rax,-0x428(%rbp)
    fd18:	48 8d 85 80 d3 ff ff 	lea    -0x2c80(%rbp),%rax
    fd1f:	48 89 85 e0 fb ff ff 	mov    %rax,-0x420(%rbp)
    fd26:	48 8d 85 80 d3 ff ff 	lea    -0x2c80(%rbp),%rax
    fd2d:	48 89 85 e8 fb ff ff 	mov    %rax,-0x418(%rbp)
    fd34:	48 8d 85 80 d3 ff ff 	lea    -0x2c80(%rbp),%rax
    fd3b:	48 89 85 f0 fb ff ff 	mov    %rax,-0x410(%rbp)
    fd42:	48 8d 05 ff fa 00 00 	lea    0xfaff(%rip),%rax        # 1f848 <g_2>
    fd49:	48 89 85 f8 fb ff ff 	mov    %rax,-0x408(%rbp)
    fd50:	48 8d 85 90 dd ff ff 	lea    -0x2270(%rbp),%rax
    fd57:	48 05 b4 01 00 00    	add    $0x1b4,%rax
    fd5d:	48 89 85 00 fc ff ff 	mov    %rax,-0x400(%rbp)
    fd64:	48 8d 05 dd fa 00 00 	lea    0xfadd(%rip),%rax        # 1f848 <g_2>
    fd6b:	48 89 85 08 fc ff ff 	mov    %rax,-0x3f8(%rbp)
    fd72:	48 8d 85 80 d3 ff ff 	lea    -0x2c80(%rbp),%rax
    fd79:	48 89 85 10 fc ff ff 	mov    %rax,-0x3f0(%rbp)
    fd80:	48 8d 85 90 dd ff ff 	lea    -0x2270(%rbp),%rax
    fd87:	48 05 b4 01 00 00    	add    $0x1b4,%rax
    fd8d:	48 89 85 18 fc ff ff 	mov    %rax,-0x3e8(%rbp)
    fd94:	48 8d 05 85 d3 00 00 	lea    0xd385(%rip),%rax        # 1d120 <g_929>
    fd9b:	48 89 85 20 fc ff ff 	mov    %rax,-0x3e0(%rbp)
    fda2:	48 8d 05 77 d3 00 00 	lea    0xd377(%rip),%rax        # 1d120 <g_929>
    fda9:	48 89 85 28 fc ff ff 	mov    %rax,-0x3d8(%rbp)
    fdb0:	48 8d 85 80 d3 ff ff 	lea    -0x2c80(%rbp),%rax
    fdb7:	48 89 85 30 fc ff ff 	mov    %rax,-0x3d0(%rbp)
    fdbe:	48 8d 05 83 fa 00 00 	lea    0xfa83(%rip),%rax        # 1f848 <g_2>
    fdc5:	48 89 85 38 fc ff ff 	mov    %rax,-0x3c8(%rbp)
    fdcc:	48 8d 85 88 d3 ff ff 	lea    -0x2c78(%rbp),%rax
    fdd3:	48 89 85 40 fc ff ff 	mov    %rax,-0x3c0(%rbp)
    fdda:	48 8d 85 88 d3 ff ff 	lea    -0x2c78(%rbp),%rax
    fde1:	48 89 85 48 fc ff ff 	mov    %rax,-0x3b8(%rbp)
    fde8:	48 8d 05 59 fa 00 00 	lea    0xfa59(%rip),%rax        # 1f848 <g_2>
    fdef:	48 89 85 50 fc ff ff 	mov    %rax,-0x3b0(%rbp)
    fdf6:	48 8d 85 80 d3 ff ff 	lea    -0x2c80(%rbp),%rax
    fdfd:	48 89 85 58 fc ff ff 	mov    %rax,-0x3a8(%rbp)
    fe04:	48 8d 85 80 d3 ff ff 	lea    -0x2c80(%rbp),%rax
    fe0b:	48 89 85 60 fc ff ff 	mov    %rax,-0x3a0(%rbp)
    fe12:	48 8d 05 2f fa 00 00 	lea    0xfa2f(%rip),%rax        # 1f848 <g_2>
    fe19:	48 89 85 68 fc ff ff 	mov    %rax,-0x398(%rbp)
    fe20:	48 8d 05 f9 d2 00 00 	lea    0xd2f9(%rip),%rax        # 1d120 <g_929>
    fe27:	48 89 85 70 fc ff ff 	mov    %rax,-0x390(%rbp)
    fe2e:	48 8d 85 80 d3 ff ff 	lea    -0x2c80(%rbp),%rax
    fe35:	48 89 85 78 fc ff ff 	mov    %rax,-0x388(%rbp)
    fe3c:	48 8d 85 88 d3 ff ff 	lea    -0x2c78(%rbp),%rax
    fe43:	48 89 85 80 fc ff ff 	mov    %rax,-0x380(%rbp)
    fe4a:	48 8d 05 cf d2 00 00 	lea    0xd2cf(%rip),%rax        # 1d120 <g_929>
    fe51:	48 89 85 88 fc ff ff 	mov    %rax,-0x378(%rbp)
    fe58:	48 8d 85 88 d3 ff ff 	lea    -0x2c78(%rbp),%rax
    fe5f:	48 89 85 90 fc ff ff 	mov    %rax,-0x370(%rbp)
    fe66:	48 8d 85 80 d3 ff ff 	lea    -0x2c80(%rbp),%rax
    fe6d:	48 89 85 98 fc ff ff 	mov    %rax,-0x368(%rbp)
    fe74:	48 8d 05 a5 d2 00 00 	lea    0xd2a5(%rip),%rax        # 1d120 <g_929>
    fe7b:	48 89 85 a0 fc ff ff 	mov    %rax,-0x360(%rbp)
    fe82:	48 8d 85 80 d3 ff ff 	lea    -0x2c80(%rbp),%rax
    fe89:	48 89 85 a8 fc ff ff 	mov    %rax,-0x358(%rbp)
    fe90:	48 8d 05 b1 f9 00 00 	lea    0xf9b1(%rip),%rax        # 1f848 <g_2>
    fe97:	48 89 85 b0 fc ff ff 	mov    %rax,-0x350(%rbp)
    fe9e:	48 8d 85 80 d3 ff ff 	lea    -0x2c80(%rbp),%rax
    fea5:	48 89 85 b8 fc ff ff 	mov    %rax,-0x348(%rbp)
    feac:	48 8d 85 90 dd ff ff 	lea    -0x2270(%rbp),%rax
    feb3:	48 05 b4 01 00 00    	add    $0x1b4,%rax
    feb9:	48 89 85 c0 fc ff ff 	mov    %rax,-0x340(%rbp)
    fec0:	48 8d 05 59 d2 00 00 	lea    0xd259(%rip),%rax        # 1d120 <g_929>
    fec7:	48 89 85 c8 fc ff ff 	mov    %rax,-0x338(%rbp)
    fece:	48 8d 05 4b d2 00 00 	lea    0xd24b(%rip),%rax        # 1d120 <g_929>
    fed5:	48 89 85 d0 fc ff ff 	mov    %rax,-0x330(%rbp)
    fedc:	48 8d 85 90 dd ff ff 	lea    -0x2270(%rbp),%rax
    fee3:	48 05 b4 01 00 00    	add    $0x1b4,%rax
    fee9:	48 89 85 d8 fc ff ff 	mov    %rax,-0x328(%rbp)
    fef0:	48 8d 85 80 d3 ff ff 	lea    -0x2c80(%rbp),%rax
    fef7:	48 89 85 e0 fc ff ff 	mov    %rax,-0x320(%rbp)
    fefe:	48 8d 05 43 f9 00 00 	lea    0xf943(%rip),%rax        # 1f848 <g_2>
    ff05:	48 89 85 e8 fc ff ff 	mov    %rax,-0x318(%rbp)
    ff0c:	48 8d 85 80 d3 ff ff 	lea    -0x2c80(%rbp),%rax
    ff13:	48 89 85 f0 fc ff ff 	mov    %rax,-0x310(%rbp)
    ff1a:	48 8d 05 ff d1 00 00 	lea    0xd1ff(%rip),%rax        # 1d120 <g_929>
    ff21:	48 89 85 f8 fc ff ff 	mov    %rax,-0x308(%rbp)
    ff28:	48 8d 85 80 d3 ff ff 	lea    -0x2c80(%rbp),%rax
    ff2f:	48 89 85 00 fd ff ff 	mov    %rax,-0x300(%rbp)
    ff36:	48 8d 85 88 d3 ff ff 	lea    -0x2c78(%rbp),%rax
    ff3d:	48 89 85 08 fd ff ff 	mov    %rax,-0x2f8(%rbp)
    ff44:	48 8d 05 d5 d1 00 00 	lea    0xd1d5(%rip),%rax        # 1d120 <g_929>
    ff4b:	48 89 85 10 fd ff ff 	mov    %rax,-0x2f0(%rbp)
    ff52:	48 8d 85 88 d3 ff ff 	lea    -0x2c78(%rbp),%rax
    ff59:	48 89 85 18 fd ff ff 	mov    %rax,-0x2e8(%rbp)
    ff60:	48 8d 85 80 d3 ff ff 	lea    -0x2c80(%rbp),%rax
    ff67:	48 89 85 20 fd ff ff 	mov    %rax,-0x2e0(%rbp)
    ff6e:	48 8d 05 ab d1 00 00 	lea    0xd1ab(%rip),%rax        # 1d120 <g_929>
    ff75:	48 89 85 28 fd ff ff 	mov    %rax,-0x2d8(%rbp)
    ff7c:	48 8d 05 c5 f8 00 00 	lea    0xf8c5(%rip),%rax        # 1f848 <g_2>
    ff83:	48 89 85 30 fd ff ff 	mov    %rax,-0x2d0(%rbp)
    ff8a:	48 8d 85 80 d3 ff ff 	lea    -0x2c80(%rbp),%rax
    ff91:	48 89 85 38 fd ff ff 	mov    %rax,-0x2c8(%rbp)
    ff98:	48 8d 85 80 d3 ff ff 	lea    -0x2c80(%rbp),%rax
    ff9f:	48 89 85 40 fd ff ff 	mov    %rax,-0x2c0(%rbp)
    ffa6:	48 8d 05 9b f8 00 00 	lea    0xf89b(%rip),%rax        # 1f848 <g_2>
    ffad:	48 89 85 48 fd ff ff 	mov    %rax,-0x2b8(%rbp)
    ffb4:	48 8d 85 88 d3 ff ff 	lea    -0x2c78(%rbp),%rax
    ffbb:	48 89 85 50 fd ff ff 	mov    %rax,-0x2b0(%rbp)
    ffc2:	48 8d 85 88 d3 ff ff 	lea    -0x2c78(%rbp),%rax
    ffc9:	48 89 85 58 fd ff ff 	mov    %rax,-0x2a8(%rbp)
    ffd0:	48 8d 05 71 f8 00 00 	lea    0xf871(%rip),%rax        # 1f848 <g_2>
    ffd7:	48 89 85 60 fd ff ff 	mov    %rax,-0x2a0(%rbp)
    ffde:	48 8d 85 80 d3 ff ff 	lea    -0x2c80(%rbp),%rax
    ffe5:	48 89 85 68 fd ff ff 	mov    %rax,-0x298(%rbp)
    ffec:	48 8d 05 2d d1 00 00 	lea    0xd12d(%rip),%rax        # 1d120 <g_929>
    fff3:	48 89 85 70 fd ff ff 	mov    %rax,-0x290(%rbp)
    fffa:	48 8d 05 1f d1 00 00 	lea    0xd11f(%rip),%rax        # 1d120 <g_929>
   10001:	48 89 85 78 fd ff ff 	mov    %rax,-0x288(%rbp)
   10008:	48 8d 85 90 dd ff ff 	lea    -0x2270(%rbp),%rax
   1000f:	48 05 b4 01 00 00    	add    $0x1b4,%rax
   10015:	48 89 85 80 fd ff ff 	mov    %rax,-0x280(%rbp)
   1001c:	48 8d 85 80 d3 ff ff 	lea    -0x2c80(%rbp),%rax
   10023:	48 89 85 88 fd ff ff 	mov    %rax,-0x278(%rbp)
   1002a:	48 8d 05 17 f8 00 00 	lea    0xf817(%rip),%rax        # 1f848 <g_2>
   10031:	48 89 85 90 fd ff ff 	mov    %rax,-0x270(%rbp)
   10038:	48 8d 85 90 dd ff ff 	lea    -0x2270(%rbp),%rax
   1003f:	48 05 b4 01 00 00    	add    $0x1b4,%rax
   10045:	48 89 85 98 fd ff ff 	mov    %rax,-0x268(%rbp)
   1004c:	48 8d 05 f5 f7 00 00 	lea    0xf7f5(%rip),%rax        # 1f848 <g_2>
   10053:	48 89 85 a0 fd ff ff 	mov    %rax,-0x260(%rbp)
   1005a:	48 8d 85 80 d3 ff ff 	lea    -0x2c80(%rbp),%rax
   10061:	48 89 85 a8 fd ff ff 	mov    %rax,-0x258(%rbp)
   10068:	48 8d 85 80 d3 ff ff 	lea    -0x2c80(%rbp),%rax
   1006f:	48 89 85 b0 fd ff ff 	mov    %rax,-0x250(%rbp)
   10076:	48 8d 85 80 d3 ff ff 	lea    -0x2c80(%rbp),%rax
   1007d:	48 89 85 b8 fd ff ff 	mov    %rax,-0x248(%rbp)
   10084:	48 8d 85 80 d3 ff ff 	lea    -0x2c80(%rbp),%rax
   1008b:	48 89 85 c0 fd ff ff 	mov    %rax,-0x240(%rbp)
   10092:	48 8d 85 88 d3 ff ff 	lea    -0x2c78(%rbp),%rax
   10099:	48 89 85 c8 fd ff ff 	mov    %rax,-0x238(%rbp)
   100a0:	48 8d 85 80 d3 ff ff 	lea    -0x2c80(%rbp),%rax
   100a7:	48 89 85 d0 fd ff ff 	mov    %rax,-0x230(%rbp)
   100ae:	48 8d 85 80 d3 ff ff 	lea    -0x2c80(%rbp),%rax
   100b5:	48 89 85 d8 fd ff ff 	mov    %rax,-0x228(%rbp)
   100bc:	48 8d 85 80 d3 ff ff 	lea    -0x2c80(%rbp),%rax
   100c3:	48 89 85 e0 fd ff ff 	mov    %rax,-0x220(%rbp)
   100ca:	48 8d 85 80 d3 ff ff 	lea    -0x2c80(%rbp),%rax
   100d1:	48 89 85 e8 fd ff ff 	mov    %rax,-0x218(%rbp)
   100d8:	48 8d 85 80 d3 ff ff 	lea    -0x2c80(%rbp),%rax
   100df:	48 89 85 f0 fd ff ff 	mov    %rax,-0x210(%rbp)
   100e6:	48 8d 85 80 d3 ff ff 	lea    -0x2c80(%rbp),%rax
   100ed:	48 89 85 f8 fd ff ff 	mov    %rax,-0x208(%rbp)
   100f4:	48 8d 85 80 d3 ff ff 	lea    -0x2c80(%rbp),%rax
   100fb:	48 89 85 00 fe ff ff 	mov    %rax,-0x200(%rbp)
   10102:	48 8d 85 80 d3 ff ff 	lea    -0x2c80(%rbp),%rax
   10109:	48 89 85 08 fe ff ff 	mov    %rax,-0x1f8(%rbp)
   10110:	48 8d 85 88 d3 ff ff 	lea    -0x2c78(%rbp),%rax
   10117:	48 89 85 10 fe ff ff 	mov    %rax,-0x1f0(%rbp)
   1011e:	48 8d 85 80 d3 ff ff 	lea    -0x2c80(%rbp),%rax
   10125:	48 89 85 18 fe ff ff 	mov    %rax,-0x1e8(%rbp)
   1012c:	48 8d 85 80 d3 ff ff 	lea    -0x2c80(%rbp),%rax
   10133:	48 89 85 20 fe ff ff 	mov    %rax,-0x1e0(%rbp)
   1013a:	48 8d 85 80 d3 ff ff 	lea    -0x2c80(%rbp),%rax
   10141:	48 89 85 28 fe ff ff 	mov    %rax,-0x1d8(%rbp)
   10148:	48 8d 85 80 d3 ff ff 	lea    -0x2c80(%rbp),%rax
   1014f:	48 89 85 30 fe ff ff 	mov    %rax,-0x1d0(%rbp)
   10156:	48 8d 05 eb f6 00 00 	lea    0xf6eb(%rip),%rax        # 1f848 <g_2>
   1015d:	48 89 85 38 fe ff ff 	mov    %rax,-0x1c8(%rbp)
   10164:	48 8d 85 90 dd ff ff 	lea    -0x2270(%rbp),%rax
   1016b:	48 05 b4 01 00 00    	add    $0x1b4,%rax
   10171:	48 89 85 40 fe ff ff 	mov    %rax,-0x1c0(%rbp)
   10178:	48 8d 05 c9 f6 00 00 	lea    0xf6c9(%rip),%rax        # 1f848 <g_2>
   1017f:	48 89 85 48 fe ff ff 	mov    %rax,-0x1b8(%rbp)
   10186:	48 8d 85 80 d3 ff ff 	lea    -0x2c80(%rbp),%rax
   1018d:	48 89 85 50 fe ff ff 	mov    %rax,-0x1b0(%rbp)
   10194:	48 8d 85 90 dd ff ff 	lea    -0x2270(%rbp),%rax
   1019b:	48 05 b4 01 00 00    	add    $0x1b4,%rax
   101a1:	48 89 85 58 fe ff ff 	mov    %rax,-0x1a8(%rbp)
   101a8:	48 8d 05 71 cf 00 00 	lea    0xcf71(%rip),%rax        # 1d120 <g_929>
   101af:	48 89 85 60 fe ff ff 	mov    %rax,-0x1a0(%rbp)
   101b6:	48 8d 05 63 cf 00 00 	lea    0xcf63(%rip),%rax        # 1d120 <g_929>
   101bd:	48 89 85 68 fe ff ff 	mov    %rax,-0x198(%rbp)
   101c4:	48 8d 85 80 d3 ff ff 	lea    -0x2c80(%rbp),%rax
   101cb:	48 89 85 70 fe ff ff 	mov    %rax,-0x190(%rbp)
   101d2:	48 8d 05 6f f6 00 00 	lea    0xf66f(%rip),%rax        # 1f848 <g_2>
   101d9:	48 89 85 78 fe ff ff 	mov    %rax,-0x188(%rbp)
   101e0:	48 8d 85 88 d3 ff ff 	lea    -0x2c78(%rbp),%rax
   101e7:	48 89 85 80 fe ff ff 	mov    %rax,-0x180(%rbp)
   101ee:	48 8d 85 88 d3 ff ff 	lea    -0x2c78(%rbp),%rax
   101f5:	48 89 85 88 fe ff ff 	mov    %rax,-0x178(%rbp)
   101fc:	48 8d 05 45 f6 00 00 	lea    0xf645(%rip),%rax        # 1f848 <g_2>
   10203:	48 89 85 90 fe ff ff 	mov    %rax,-0x170(%rbp)
   1020a:	48 8d 85 80 d3 ff ff 	lea    -0x2c80(%rbp),%rax
   10211:	48 89 85 98 fe ff ff 	mov    %rax,-0x168(%rbp)
   10218:	48 8d 85 80 d3 ff ff 	lea    -0x2c80(%rbp),%rax
   1021f:	48 89 85 a0 fe ff ff 	mov    %rax,-0x160(%rbp)
   10226:	48 8d 05 1b f6 00 00 	lea    0xf61b(%rip),%rax        # 1f848 <g_2>
   1022d:	48 89 85 a8 fe ff ff 	mov    %rax,-0x158(%rbp)
   10234:	48 8d 05 e5 ce 00 00 	lea    0xcee5(%rip),%rax        # 1d120 <g_929>
   1023b:	48 89 85 b0 fe ff ff 	mov    %rax,-0x150(%rbp)
   10242:	48 8d 85 80 d3 ff ff 	lea    -0x2c80(%rbp),%rax
   10249:	48 89 85 b8 fe ff ff 	mov    %rax,-0x148(%rbp)
   10250:	48 8d 85 88 d3 ff ff 	lea    -0x2c78(%rbp),%rax
   10257:	48 89 85 c0 fe ff ff 	mov    %rax,-0x140(%rbp)
   1025e:	48 8d 05 bb ce 00 00 	lea    0xcebb(%rip),%rax        # 1d120 <g_929>
   10265:	48 89 85 c8 fe ff ff 	mov    %rax,-0x138(%rbp)
   1026c:	48 8d 85 88 d3 ff ff 	lea    -0x2c78(%rbp),%rax
   10273:	48 89 85 d0 fe ff ff 	mov    %rax,-0x130(%rbp)
   1027a:	48 8d 85 80 d3 ff ff 	lea    -0x2c80(%rbp),%rax
   10281:	48 89 85 d8 fe ff ff 	mov    %rax,-0x128(%rbp)
   10288:	48 8d 05 91 ce 00 00 	lea    0xce91(%rip),%rax        # 1d120 <g_929>
   1028f:	48 89 85 e0 fe ff ff 	mov    %rax,-0x120(%rbp)
   10296:	48 8d 85 80 d3 ff ff 	lea    -0x2c80(%rbp),%rax
   1029d:	48 89 85 e8 fe ff ff 	mov    %rax,-0x118(%rbp)
   102a4:	48 8d 05 9d f5 00 00 	lea    0xf59d(%rip),%rax        # 1f848 <g_2>
   102ab:	48 89 85 f0 fe ff ff 	mov    %rax,-0x110(%rbp)
   102b2:	48 8d 85 80 d3 ff ff 	lea    -0x2c80(%rbp),%rax
   102b9:	48 89 85 f8 fe ff ff 	mov    %rax,-0x108(%rbp)
   102c0:	48 8d 85 90 dd ff ff 	lea    -0x2270(%rbp),%rax
   102c7:	48 05 b4 01 00 00    	add    $0x1b4,%rax
   102cd:	48 89 85 00 ff ff ff 	mov    %rax,-0x100(%rbp)
   102d4:	48 8d 05 45 ce 00 00 	lea    0xce45(%rip),%rax        # 1d120 <g_929>
   102db:	48 89 85 08 ff ff ff 	mov    %rax,-0xf8(%rbp)
   102e2:	48 8d 05 37 ce 00 00 	lea    0xce37(%rip),%rax        # 1d120 <g_929>
   102e9:	48 89 85 10 ff ff ff 	mov    %rax,-0xf0(%rbp)
   102f0:	48 8d 85 90 dd ff ff 	lea    -0x2270(%rbp),%rax
   102f7:	48 05 b4 01 00 00    	add    $0x1b4,%rax
   102fd:	48 89 85 18 ff ff ff 	mov    %rax,-0xe8(%rbp)
   10304:	48 8d 85 80 d3 ff ff 	lea    -0x2c80(%rbp),%rax
   1030b:	48 89 85 20 ff ff ff 	mov    %rax,-0xe0(%rbp)
   10312:	48 8d 05 2f f5 00 00 	lea    0xf52f(%rip),%rax        # 1f848 <g_2>
   10319:	48 89 85 28 ff ff ff 	mov    %rax,-0xd8(%rbp)
   10320:	48 8d 85 80 d3 ff ff 	lea    -0x2c80(%rbp),%rax
   10327:	48 89 85 30 ff ff ff 	mov    %rax,-0xd0(%rbp)
   1032e:	48 8d 05 eb cd 00 00 	lea    0xcdeb(%rip),%rax        # 1d120 <g_929>
   10335:	48 89 85 38 ff ff ff 	mov    %rax,-0xc8(%rbp)
   1033c:	48 8d 85 80 d3 ff ff 	lea    -0x2c80(%rbp),%rax
   10343:	48 89 85 40 ff ff ff 	mov    %rax,-0xc0(%rbp)
   1034a:	48 8d 85 88 d3 ff ff 	lea    -0x2c78(%rbp),%rax
   10351:	48 89 85 48 ff ff ff 	mov    %rax,-0xb8(%rbp)
   10358:	48 8d 05 c1 cd 00 00 	lea    0xcdc1(%rip),%rax        # 1d120 <g_929>
   1035f:	48 89 85 50 ff ff ff 	mov    %rax,-0xb0(%rbp)
   10366:	48 8d 85 88 d3 ff ff 	lea    -0x2c78(%rbp),%rax
   1036d:	48 89 85 58 ff ff ff 	mov    %rax,-0xa8(%rbp)
   10374:	48 8d 85 80 d3 ff ff 	lea    -0x2c80(%rbp),%rax
   1037b:	48 89 85 60 ff ff ff 	mov    %rax,-0xa0(%rbp)
   10382:	48 8d 05 97 cd 00 00 	lea    0xcd97(%rip),%rax        # 1d120 <g_929>
   10389:	48 89 85 68 ff ff ff 	mov    %rax,-0x98(%rbp)
   10390:	48 8d 05 b1 f4 00 00 	lea    0xf4b1(%rip),%rax        # 1f848 <g_2>
   10397:	48 89 85 70 ff ff ff 	mov    %rax,-0x90(%rbp)
   1039e:	48 8d 85 80 d3 ff ff 	lea    -0x2c80(%rbp),%rax
   103a5:	48 89 85 78 ff ff ff 	mov    %rax,-0x88(%rbp)
   103ac:	48 8d 85 80 d3 ff ff 	lea    -0x2c80(%rbp),%rax
   103b3:	48 89 45 80          	mov    %rax,-0x80(%rbp)
   103b7:	48 8d 05 8a f4 00 00 	lea    0xf48a(%rip),%rax        # 1f848 <g_2>
   103be:	48 89 45 88          	mov    %rax,-0x78(%rbp)
   103c2:	48 8d 85 88 d3 ff ff 	lea    -0x2c78(%rbp),%rax
   103c9:	48 89 45 90          	mov    %rax,-0x70(%rbp)
   103cd:	48 8d 85 88 d3 ff ff 	lea    -0x2c78(%rbp),%rax
   103d4:	48 89 45 98          	mov    %rax,-0x68(%rbp)
   103d8:	48 8d 05 69 f4 00 00 	lea    0xf469(%rip),%rax        # 1f848 <g_2>
   103df:	48 89 45 a0          	mov    %rax,-0x60(%rbp)
   103e3:	48 8d 85 80 d3 ff ff 	lea    -0x2c80(%rbp),%rax
   103ea:	48 89 45 a8          	mov    %rax,-0x58(%rbp)
   103ee:	83 85 50 d4 ff ff 01 	addl   $0x1,-0x2bb0(%rbp)
   103f5:	48 c7 85 58 d5 ff ff 	movq   $0xffffffffffffffe6,-0x2aa8(%rbp)
   103fc:	e6 ff ff ff 
   10400:	e9 9f 00 00 00       	jmpq   104a4 <func_50+0x5fef>
   10405:	48 8b 05 e4 cc 00 00 	mov    0xcce4(%rip),%rax        # 1d0f0 <g_623>
   1040c:	48 83 f0 f6          	xor    $0xfffffffffffffff6,%rax
   10410:	48 89 05 d9 cc 00 00 	mov    %rax,0xccd9(%rip)        # 1d0f0 <g_623>
   10417:	48 8b 05 82 e8 00 00 	mov    0xe882(%rip),%rax        # 1eca0 <g_651>
   1041e:	48 8b 00             	mov    (%rax),%rax
   10421:	48 8b 08             	mov    (%rax),%rcx
   10424:	48 8b 85 78 d5 ff ff 	mov    -0x2a88(%rbp),%rax
   1042b:	48 8b 00             	mov    (%rax),%rax
   1042e:	48 8b 00             	mov    (%rax),%rax
   10431:	48 8b 10             	mov    (%rax),%rdx
   10434:	48 8b 85 78 d5 ff ff 	mov    -0x2a88(%rbp),%rax
   1043b:	48 8b 00             	mov    (%rax),%rax
   1043e:	48 8b 00             	mov    (%rax),%rax
   10441:	48 31 ca             	xor    %rcx,%rdx
   10444:	48 89 10             	mov    %rdx,(%rax)
   10447:	8b 85 4c d3 ff ff    	mov    -0x2cb4(%rbp),%eax
   1044d:	0f b7 d8             	movzwl %ax,%ebx
   10450:	83 bd 48 d3 ff ff 00 	cmpl   $0x0,-0x2cb8(%rbp)
   10457:	0f 95 c0             	setne  %al
   1045a:	0f b6 d0             	movzbl %al,%edx
   1045d:	8b 85 48 d3 ff ff    	mov    -0x2cb8(%rbp),%eax
   10463:	89 d6                	mov    %edx,%esi
   10465:	89 c7                	mov    %eax,%edi
   10467:	e8 93 62 ff ff       	callq  66ff <safe_div_func_int32_t_s_s>
   1046c:	0b 85 4c d3 ff ff    	or     -0x2cb4(%rbp),%eax
   10472:	85 c0                	test   %eax,%eax
   10474:	0f 94 c0             	sete   %al
   10477:	0f b6 c0             	movzbl %al,%eax
   1047a:	89 de                	mov    %ebx,%esi
   1047c:	89 c7                	mov    %eax,%edi
   1047e:	e8 9c 68 ff ff       	callq  6d1f <safe_sub_func_uint16_t_u_u>
   10483:	b9 01 00 00 00       	mov    $0x1,%ecx
   10488:	48 8b 05 c1 e7 00 00 	mov    0xe7c1(%rip),%rax        # 1ec50 <g_525>
   1048f:	8b 10                	mov    (%rax),%edx
   10491:	48 8b 05 b8 e7 00 00 	mov    0xe7b8(%rip),%rax        # 1ec50 <g_525>
   10498:	09 ca                	or     %ecx,%edx
   1049a:	89 10                	mov    %edx,(%rax)
   1049c:	48 83 85 58 d5 ff ff 	addq   $0x1,-0x2aa8(%rbp)
   104a3:	01 
   104a4:	48 83 bd 58 d5 ff ff 	cmpq   $0xfffffffffffffffe,-0x2aa8(%rbp)
   104ab:	fe 
   104ac:	0f 8d 53 ff ff ff    	jge    10405 <func_50+0x5f50>
   104b2:	c7 85 48 d3 ff ff f3 	movl   $0xfffffff3,-0x2cb8(%rbp)
   104b9:	ff ff ff 
   104bc:	e9 90 01 00 00       	jmpq   10651 <func_50+0x619c>
   104c1:	48 8d 05 4c cc 00 00 	lea    0xcc4c(%rip),%rax        # 1d114 <g_798>
   104c8:	48 89 85 e8 d6 ff ff 	mov    %rax,-0x2918(%rbp)
   104cf:	c7 85 60 d4 ff ff ff 	movl   $0xffffffff,-0x2ba0(%rbp)
   104d6:	ff ff ff 
   104d9:	c7 85 64 d4 ff ff 02 	movl   $0x2,-0x2b9c(%rbp)
   104e0:	00 00 00 
   104e3:	c7 85 68 d4 ff ff a5 	movl   $0x79bc33a5,-0x2b98(%rbp)
   104ea:	33 bc 79 
   104ed:	c7 85 6c d4 ff ff 00 	movl   $0x0,-0x2b94(%rbp)
   104f4:	00 00 00 
   104f7:	48 8d 85 78 d4 ff ff 	lea    -0x2b88(%rbp),%rax
   104fe:	48 89 85 60 d5 ff ff 	mov    %rax,-0x2aa0(%rbp)
   10505:	8b 05 d1 cb 00 00    	mov    0xcbd1(%rip),%eax        # 1d0dc <g_450>
   1050b:	0f b7 85 44 d3 ff ff 	movzwl -0x2cbc(%rbp),%eax
   10512:	0f bf d8             	movswl %ax,%ebx
   10515:	48 8b 85 b0 d5 ff ff 	mov    -0x2a50(%rbp),%rax
   1051c:	8b 00                	mov    (%rax),%eax
   1051e:	41 89 c5             	mov    %eax,%r13d
   10521:	44 8b a5 4c d3 ff ff 	mov    -0x2cb4(%rbp),%r12d
   10528:	48 8b 85 60 d5 ff ff 	mov    -0x2aa0(%rbp),%rax
   1052f:	48 8b 10             	mov    (%rax),%rdx
   10532:	48 8b 85 60 d5 ff ff 	mov    -0x2aa0(%rbp),%rax
   10539:	48 8b 00             	mov    (%rax),%rax
   1053c:	48 8b 12             	mov    (%rdx),%rdx
   1053f:	48 89 10             	mov    %rdx,(%rax)
   10542:	0f b7 85 44 d3 ff ff 	movzwl -0x2cbc(%rbp),%eax
   10549:	98                   	cwtl   
   1054a:	be 00 00 00 00       	mov    $0x0,%esi
   1054f:	89 c7                	mov    %eax,%edi
   10551:	e8 3c 5f ff ff       	callq  6492 <safe_lshift_func_int16_t_s_s>
   10556:	0f be c0             	movsbl %al,%eax
   10559:	44 89 e6             	mov    %r12d,%esi
   1055c:	89 c7                	mov    %eax,%edi
   1055e:	e8 3e 5d ff ff       	callq  62a1 <safe_lshift_func_int8_t_s_s>
   10563:	ba 01 00 00 00       	mov    $0x1,%edx
   10568:	48 8b 85 e8 d6 ff ff 	mov    -0x2918(%rbp),%rax
   1056f:	8b 00                	mov    (%rax),%eax
   10571:	21 c2                	and    %eax,%edx
   10573:	48 8b 85 e8 d6 ff ff 	mov    -0x2918(%rbp),%rax
   1057a:	89 10                	mov    %edx,(%rax)
   1057c:	48 8b 85 e8 d6 ff ff 	mov    -0x2918(%rbp),%rax
   10583:	8b 00                	mov    (%rax),%eax
   10585:	89 05 99 cb 00 00    	mov    %eax,0xcb99(%rip)        # 1d124 <g_966>
   1058b:	8b 05 93 cb 00 00    	mov    0xcb93(%rip),%eax        # 1d124 <g_966>
   10591:	44 89 ee             	mov    %r13d,%esi
   10594:	89 c7                	mov    %eax,%edi
   10596:	e8 35 69 ff ff       	callq  6ed0 <safe_sub_func_uint32_t_u_u>
   1059b:	0f b7 85 44 d3 ff ff 	movzwl -0x2cbc(%rbp),%eax
   105a2:	98                   	cwtl   
   105a3:	89 de                	mov    %ebx,%esi
   105a5:	89 c7                	mov    %eax,%edi
   105a7:	e8 35 5f ff ff       	callq  64e1 <safe_lshift_func_int16_t_s_u>
   105ac:	0f b7 95 44 d3 ff ff 	movzwl -0x2cbc(%rbp),%edx
   105b3:	66 39 d0             	cmp    %dx,%ax
   105b6:	0f 9f c0             	setg   %al
   105b9:	0f b6 c0             	movzbl %al,%eax
   105bc:	39 85 4c d3 ff ff    	cmp    %eax,-0x2cb4(%rbp)
   105c2:	0f 94 c0             	sete   %al
   105c5:	0f b6 c0             	movzbl %al,%eax
   105c8:	8b 95 e4 d8 ff ff    	mov    -0x271c(%rbp),%edx
   105ce:	09 d0                	or     %edx,%eax
   105d0:	0f b7 d0             	movzwl %ax,%edx
   105d3:	8b 85 4c d3 ff ff    	mov    -0x2cb4(%rbp),%eax
   105d9:	0f b7 c0             	movzwl %ax,%eax
   105dc:	89 d6                	mov    %edx,%esi
   105de:	89 c7                	mov    %eax,%edi
   105e0:	e8 1a 67 ff ff       	callq  6cff <safe_add_func_uint16_t_u_u>
   105e5:	bf 01 00 00 00       	mov    $0x1,%edi
   105ea:	e8 ae 5d ff ff       	callq  639d <safe_unary_minus_func_int16_t_s>
   105ef:	66 85 c0             	test   %ax,%ax
   105f2:	74 17                	je     1060b <func_50+0x6156>
   105f4:	48 8b 05 8d e6 00 00 	mov    0xe68d(%rip),%rax        # 1ec88 <g_648>
   105fb:	48 8b 00             	mov    (%rax),%rax
   105fe:	8b 00                	mov    (%rax),%eax
   10600:	85 c0                	test   %eax,%eax
   10602:	74 07                	je     1060b <func_50+0x6156>
   10604:	ba 01 00 00 00       	mov    $0x1,%edx
   10609:	eb 05                	jmp    10610 <func_50+0x615b>
   1060b:	ba 00 00 00 00       	mov    $0x0,%edx
   10610:	48 8b 05 39 e6 00 00 	mov    0xe639(%rip),%rax        # 1ec50 <g_525>
   10617:	89 10                	mov    %edx,(%rax)
   10619:	0f b7 85 5c d3 ff ff 	movzwl -0x2ca4(%rbp),%eax
   10620:	83 e8 01             	sub    $0x1,%eax
   10623:	66 89 85 5c d3 ff ff 	mov    %ax,-0x2ca4(%rbp)
   1062a:	48 8b 85 70 d4 ff ff 	mov    -0x2b90(%rbp),%rax
   10631:	8b 00                	mov    (%rax),%eax
   10633:	85 c0                	test   %eax,%eax
   10635:	75 29                	jne    10660 <func_50+0x61ab>
   10637:	8b 85 48 d3 ff ff    	mov    -0x2cb8(%rbp),%eax
   1063d:	98                   	cwtl   
   1063e:	be 02 00 00 00       	mov    $0x2,%esi
   10643:	89 c7                	mov    %eax,%edi
   10645:	e8 69 5d ff ff       	callq  63b3 <safe_add_func_int16_t_s_s>
   1064a:	98                   	cwtl   
   1064b:	89 85 48 d3 ff ff    	mov    %eax,-0x2cb8(%rbp)
   10651:	83 bd 48 d3 ff ff 05 	cmpl   $0x5,-0x2cb8(%rbp)
   10658:	0f 87 63 fe ff ff    	ja     104c1 <func_50+0x600c>
   1065e:	eb 01                	jmp    10661 <func_50+0x61ac>
   10660:	90                   	nop
   10661:	8b 05 b9 ca 00 00    	mov    0xcab9(%rip),%eax        # 1d120 <g_929>
   10667:	0f b7 c0             	movzwl %ax,%eax
   1066a:	be 04 00 00 00       	mov    $0x4,%esi
   1066f:	89 c7                	mov    %eax,%edi
   10671:	e8 89 66 ff ff       	callq  6cff <safe_add_func_uint16_t_u_u>
   10676:	0f b7 c0             	movzwl %ax,%eax
   10679:	89 05 a1 ca 00 00    	mov    %eax,0xcaa1(%rip)        # 1d120 <g_929>
   1067f:	8b 05 9b ca 00 00    	mov    0xca9b(%rip),%eax        # 1d120 <g_929>
   10685:	83 f8 09             	cmp    $0x9,%eax
   10688:	0f 84 fe ed ff ff    	je     f48c <func_50+0x4fd7>
   1068e:	c7 05 c0 f1 00 00 00 	movl   $0x0,0xf1c0(%rip)        # 1f858 <g_101>
   10695:	00 00 00 
   10698:	e9 cb 08 00 00       	jmpq   10f68 <func_50+0x6ab3>
   1069d:	c7 85 34 d4 ff ff fc 	movl   $0xfffffffc,-0x2bcc(%rbp)
   106a4:	ff ff ff 
   106a7:	c7 85 38 d4 ff ff f9 	movl   $0xfffffff9,-0x2bc8(%rbp)
   106ae:	ff ff ff 
   106b1:	48 8d 05 70 e6 00 00 	lea    0xe670(%rip),%rax        # 1ed28 <g_812+0x8>
   106b8:	48 89 85 b8 d6 ff ff 	mov    %rax,-0x2948(%rbp)
   106bf:	66 c7 85 6a d3 ff ff 	movw   $0x0,-0x2c96(%rbp)
   106c6:	00 00 
   106c8:	e9 61 04 00 00       	jmpq   10b2e <func_50+0x6679>
   106cd:	c7 85 4c d4 ff ff f4 	movl   $0x48bf45f4,-0x2bb4(%rbp)
   106d4:	45 bf 48 
   106d7:	66 c7 85 72 d3 ff ff 	movw   $0x919a,-0x2c8e(%rbp)
   106de:	9a 91 
   106e0:	48 8d 05 41 e3 00 00 	lea    0xe341(%rip),%rax        # 1ea28 <g_352>
   106e7:	48 89 85 c8 d6 ff ff 	mov    %rax,-0x2938(%rbp)
   106ee:	48 b8 40 57 7b 4e 7e 	movabs $0x6e4f9a7e4e7b5740,%rax
   106f5:	9a 4f 6e 
   106f8:	48 89 85 d0 d6 ff ff 	mov    %rax,-0x2930(%rbp)
   106ff:	48 c7 85 b0 d4 ff ff 	movq   $0x0,-0x2b50(%rbp)
   10706:	00 00 00 00 
   1070a:	48 8d 85 b0 d4 ff ff 	lea    -0x2b50(%rbp),%rax
   10711:	48 89 85 d8 d6 ff ff 	mov    %rax,-0x2928(%rbp)
   10718:	c7 85 f4 d3 ff ff 00 	movl   $0x0,-0x2c0c(%rbp)
   1071f:	00 00 00 
   10722:	eb 1e                	jmp    10742 <func_50+0x628d>
   10724:	8b 85 f4 d3 ff ff    	mov    -0x2c0c(%rbp),%eax
   1072a:	48 98                	cltq   
   1072c:	48 8d 15 6d c9 00 00 	lea    0xc96d(%rip),%rdx        # 1d0a0 <g_107>
   10733:	48 89 94 c5 b0 f7 ff 	mov    %rdx,-0x850(%rbp,%rax,8)
   1073a:	ff 
   1073b:	83 85 f4 d3 ff ff 01 	addl   $0x1,-0x2c0c(%rbp)
   10742:	83 bd f4 d3 ff ff 01 	cmpl   $0x1,-0x2c0c(%rbp)
   10749:	7e d9                	jle    10724 <func_50+0x626f>
   1074b:	48 8b 05 be e6 00 00 	mov    0xe6be(%rip),%rax        # 1ee10 <g_1096>
   10752:	48 8b 00             	mov    (%rax),%rax
   10755:	48 89 c3             	mov    %rax,%rbx
   10758:	81 bd 4c d4 ff ff af 	cmpl   $0x4b18dcaf,-0x2bb4(%rbp)
   1075f:	dc 18 4b 
   10762:	0f b7 95 72 d3 ff ff 	movzwl -0x2c8e(%rbp),%edx
   10769:	48 8b 05 88 c9 00 00 	mov    0xc988(%rip),%rax        # 1d0f8 <g_653>
   10770:	48 39 c2             	cmp    %rax,%rdx
   10773:	0f 93 c0             	setae  %al
   10776:	0f b6 d0             	movzbl %al,%edx
   10779:	8b 85 34 d4 ff ff    	mov    -0x2bcc(%rbp),%eax
   1077f:	48 89 d6             	mov    %rdx,%rsi
   10782:	48 89 c7             	mov    %rax,%rdi
   10785:	e8 1e 61 ff ff       	callq  68a8 <safe_sub_func_int64_t_s_s>
   1078a:	8b 85 48 d3 ff ff    	mov    -0x2cb8(%rbp),%eax
   10790:	89 05 c2 c9 00 00    	mov    %eax,0xc9c2(%rip)        # 1d158 <g_1378>
   10796:	8b 05 bc c9 00 00    	mov    0xc9bc(%rip),%eax        # 1d158 <g_1378>
   1079c:	be c7 3b 00 c3       	mov    $0xc3003bc7,%esi
   107a1:	89 c7                	mov    %eax,%edi
   107a3:	e8 55 67 ff ff       	callq  6efd <safe_mod_func_uint32_t_u_u>
   107a8:	85 c0                	test   %eax,%eax
   107aa:	74 13                	je     107bf <func_50+0x630a>
   107ac:	48 8b 05 3d c9 00 00 	mov    0xc93d(%rip),%rax        # 1d0f0 <g_623>
   107b3:	48 85 c0             	test   %rax,%rax
   107b6:	74 07                	je     107bf <func_50+0x630a>
   107b8:	b8 01 00 00 00       	mov    $0x1,%eax
   107bd:	eb 05                	jmp    107c4 <func_50+0x630f>
   107bf:	b8 00 00 00 00       	mov    $0x0,%eax
   107c4:	0f b7 d0             	movzwl %ax,%edx
   107c7:	0f b6 05 96 c9 00 00 	movzbl 0xc996(%rip),%eax        # 1d164 <g_1506>
   107ce:	0f b6 c0             	movzbl %al,%eax
   107d1:	89 d6                	mov    %edx,%esi
   107d3:	89 c7                	mov    %eax,%edi
   107d5:	e8 45 65 ff ff       	callq  6d1f <safe_sub_func_uint16_t_u_u>
   107da:	0f b7 c0             	movzwl %ax,%eax
   107dd:	48 89 de             	mov    %rbx,%rsi
   107e0:	48 89 c7             	mov    %rax,%rdi
   107e3:	e8 59 60 ff ff       	callq  6841 <safe_add_func_int64_t_s_s>
   107e8:	48 8b 85 a8 d5 ff ff 	mov    -0x2a58(%rbp),%rax
   107ef:	8b 00                	mov    (%rax),%eax
   107f1:	be 00 00 00 00       	mov    $0x0,%esi
   107f6:	89 c7                	mov    %eax,%edi
   107f8:	e8 b9 5d ff ff       	callq  65b6 <safe_add_func_int32_t_s_s>
   107fd:	0f b7 85 44 d3 ff ff 	movzwl -0x2cbc(%rbp),%eax
   10804:	0f bf d0             	movswl %ax,%edx
   10807:	48 8b 85 70 d4 ff ff 	mov    -0x2b90(%rbp),%rax
   1080e:	8b 00                	mov    (%rax),%eax
   10810:	39 c2                	cmp    %eax,%edx
   10812:	0f 95 c2             	setne  %dl
   10815:	48 8b 05 14 e2 00 00 	mov    0xe214(%rip),%rax        # 1ea30 <g_351>
   1081c:	48 8b 00             	mov    (%rax),%rax
   1081f:	0f b6 d2             	movzbl %dl,%edx
   10822:	66 89 10             	mov    %dx,(%rax)
   10825:	0f b7 00             	movzwl (%rax),%eax
   10828:	0f bf d0             	movswl %ax,%edx
   1082b:	0f b6 05 8a c8 00 00 	movzbl 0xc88a(%rip),%eax        # 1d0bc <g_293>
   10832:	0f b6 c0             	movzbl %al,%eax
   10835:	39 c2                	cmp    %eax,%edx
   10837:	0f 9f c0             	setg   %al
   1083a:	0f b6 c0             	movzbl %al,%eax
   1083d:	39 85 48 d3 ff ff    	cmp    %eax,-0x2cb8(%rbp)
   10843:	0f 97 c0             	seta   %al
   10846:	0f b6 d0             	movzbl %al,%edx
   10849:	48 8b 85 b0 d5 ff ff 	mov    -0x2a50(%rbp),%rax
   10850:	8b 08                	mov    (%rax),%ecx
   10852:	48 8b 85 b0 d5 ff ff 	mov    -0x2a50(%rbp),%rax
   10859:	89 08                	mov    %ecx,(%rax)
   1085b:	48 8b 85 b0 d5 ff ff 	mov    -0x2a50(%rbp),%rax
   10862:	8b 00                	mov    (%rax),%eax
   10864:	0f be c0             	movsbl %al,%eax
   10867:	89 d6                	mov    %edx,%esi
   10869:	89 c7                	mov    %eax,%edi
   1086b:	e8 a2 59 ff ff       	callq  6212 <safe_mul_func_int8_t_s_s>
   10870:	89 c2                	mov    %eax,%edx
   10872:	48 8b 05 d7 e3 00 00 	mov    0xe3d7(%rip),%rax        # 1ec50 <g_525>
   10879:	0f be d2             	movsbl %dl,%edx
   1087c:	89 10                	mov    %edx,(%rax)
   1087e:	48 8b 95 e0 e3 ff ff 	mov    -0x1c20(%rbp),%rdx
   10885:	48 8b 85 38 e4 ff ff 	mov    -0x1bc8(%rbp),%rax
   1088c:	48 39 c2             	cmp    %rax,%rdx
   1088f:	0f 84 cc 00 00 00    	je     10961 <func_50+0x64ac>
   10895:	48 8b 05 c4 e4 00 00 	mov    0xe4c4(%rip),%rax        # 1ed60 <g_859>
   1089c:	48 8b 00             	mov    (%rax),%rax
   1089f:	0f b6 00             	movzbl (%rax),%eax
   108a2:	0f b6 d8             	movzbl %al,%ebx
   108a5:	8b 85 4c d3 ff ff    	mov    -0x2cb4(%rbp),%eax
   108ab:	44 0f bf e0          	movswl %ax,%r12d
   108af:	8b 85 38 d4 ff ff    	mov    -0x2bc8(%rbp),%eax
   108b5:	0f bf d0             	movswl %ax,%edx
   108b8:	48 8b 85 a8 d5 ff ff 	mov    -0x2a58(%rbp),%rax
   108bf:	8b 00                	mov    (%rax),%eax
   108c1:	85 c0                	test   %eax,%eax
   108c3:	75 0d                	jne    108d2 <func_50+0x641d>
   108c5:	0f b7 85 44 d3 ff ff 	movzwl -0x2cbc(%rbp),%eax
   108cc:	66 83 f8 ff          	cmp    $0xffff,%ax
   108d0:	74 07                	je     108d9 <func_50+0x6424>
   108d2:	b8 01 00 00 00       	mov    $0x1,%eax
   108d7:	eb 05                	jmp    108de <func_50+0x6429>
   108d9:	b8 00 00 00 00       	mov    $0x0,%eax
   108de:	98                   	cwtl   
   108df:	89 d6                	mov    %edx,%esi
   108e1:	89 c7                	mov    %eax,%edi
   108e3:	e8 0d 5b ff ff       	callq  63f5 <safe_mul_func_int16_t_s_s>
   108e8:	98                   	cwtl   
   108e9:	44 89 e6             	mov    %r12d,%esi
   108ec:	89 c7                	mov    %eax,%edi
   108ee:	e8 23 5b ff ff       	callq  6416 <safe_mod_func_int16_t_s_s>
   108f3:	48 8b 85 b0 d5 ff ff 	mov    -0x2a50(%rbp),%rax
   108fa:	8b 10                	mov    (%rax),%edx
   108fc:	48 8b 05 b5 e3 00 00 	mov    0xe3b5(%rip),%rax        # 1ecb8 <g_768>
   10903:	48 8b 00             	mov    (%rax),%rax
   10906:	0f b7 00             	movzwl (%rax),%eax
   10909:	98                   	cwtl   
   1090a:	39 c2                	cmp    %eax,%edx
   1090c:	0f 9f c0             	setg   %al
   1090f:	0f b6 c0             	movzbl %al,%eax
   10912:	89 de                	mov    %ebx,%esi
   10914:	89 c7                	mov    %eax,%edi
   10916:	e8 78 62 ff ff       	callq  6b93 <safe_mul_func_uint8_t_u_u>
   1091b:	0f b6 c0             	movzbl %al,%eax
   1091e:	8b 95 38 d4 ff ff    	mov    -0x2bc8(%rbp),%edx
   10924:	21 d0                	and    %edx,%eax
   10926:	0f bf d0             	movswl %ax,%edx
   10929:	48 8b 85 c8 d6 ff ff 	mov    -0x2938(%rbp),%rax
   10930:	48 89 85 40 d5 ff ff 	mov    %rax,-0x2ac0(%rbp)
   10937:	48 8b 05 da e7 00 00 	mov    0xe7da(%rip),%rax        # 1f118 <g_1588>
   1093e:	48 39 85 40 d5 ff ff 	cmp    %rax,-0x2ac0(%rbp)
   10945:	0f 94 c0             	sete   %al
   10948:	0f b6 c0             	movzbl %al,%eax
   1094b:	89 d6                	mov    %edx,%esi
   1094d:	89 c7                	mov    %eax,%edi
   1094f:	e8 7f 5a ff ff       	callq  63d3 <safe_sub_func_int16_t_s_s>
   10954:	48 0f bf c0          	movswq %ax,%rax
   10958:	48 39 85 d0 d6 ff ff 	cmp    %rax,-0x2930(%rbp)
   1095f:	75 07                	jne    10968 <func_50+0x64b3>
   10961:	ba 01 00 00 00       	mov    $0x1,%edx
   10966:	eb 05                	jmp    1096d <func_50+0x64b8>
   10968:	ba 00 00 00 00       	mov    $0x0,%edx
   1096d:	48 8b 85 a8 d5 ff ff 	mov    -0x2a58(%rbp),%rax
   10974:	89 10                	mov    %edx,(%rax)
   10976:	66 c7 05 c3 c7 00 00 	movw   $0x0,0xc7c3(%rip)        # 1d142 <g_1157>
   1097d:	00 00 
   1097f:	e9 89 01 00 00       	jmpq   10b0d <func_50+0x6658>
   10984:	0f b7 85 44 d3 ff ff 	movzwl -0x2cbc(%rbp),%eax
   1098b:	44 0f be e0          	movsbl %al,%r12d
   1098f:	48 8b 85 d8 d6 ff ff 	mov    -0x2928(%rbp),%rax
   10996:	48 89 85 a8 e6 ff ff 	mov    %rax,-0x1958(%rbp)
   1099d:	48 8b 95 a8 e6 ff ff 	mov    -0x1958(%rbp),%rdx
   109a4:	48 8b 05 c5 e7 00 00 	mov    0xe7c5(%rip),%rax        # 1f170 <g_1601>
   109ab:	48 39 c2             	cmp    %rax,%rdx
   109ae:	0f 95 c0             	setne  %al
   109b1:	44 0f b6 e8          	movzbl %al,%r13d
   109b5:	0f b6 85 58 d3 ff ff 	movzbl -0x2ca8(%rbp),%eax
   109bc:	0f be d8             	movsbl %al,%ebx
   109bf:	48 8b 85 a8 d5 ff ff 	mov    -0x2a58(%rbp),%rax
   109c6:	8b 00                	mov    (%rax),%eax
   109c8:	89 c6                	mov    %eax,%esi
   109ca:	bf f8 ff ff ff       	mov    $0xfffffff8,%edi
   109cf:	e8 e4 64 ff ff       	callq  6eb8 <safe_add_func_uint32_t_u_u>
   109d4:	8b 05 7e ee 00 00    	mov    0xee7e(%rip),%eax        # 1f858 <g_101>
   109da:	8d 48 03             	lea    0x3(%rax),%ecx
   109dd:	0f b7 05 5e c7 00 00 	movzwl 0xc75e(%rip),%eax        # 1d142 <g_1157>
   109e4:	0f b7 d0             	movzwl %ax,%edx
   109e7:	0f bf 85 6a d3 ff ff 	movswl -0x2c96(%rbp),%eax
   109ee:	48 98                	cltq   
   109f0:	89 c9                	mov    %ecx,%ecx
   109f2:	48 63 d2             	movslq %edx,%rdx
   109f5:	48 01 c9             	add    %rcx,%rcx
   109f8:	48 01 ca             	add    %rcx,%rdx
   109fb:	48 01 d2             	add    %rdx,%rdx
   109fe:	48 01 d0             	add    %rdx,%rax
   10a01:	48 8d 14 85 00 00 00 	lea    0x0(,%rax,4),%rdx
   10a08:	00 
   10a09:	48 8d 05 30 c6 00 00 	lea    0xc630(%rip),%rax        # 1d040 <g_77>
   10a10:	8b 04 02             	mov    (%rdx,%rax,1),%eax
   10a13:	89 c2                	mov    %eax,%edx
   10a15:	83 bd 4c d4 ff ff 01 	cmpl   $0x1,-0x2bb4(%rbp)
   10a1c:	0f 9e c0             	setle  %al
   10a1f:	0f b6 c0             	movzbl %al,%eax
   10a22:	39 85 4c d3 ff ff    	cmp    %eax,-0x2cb4(%rbp)
   10a28:	0f 95 c0             	setne  %al
   10a2b:	0f b6 c0             	movzbl %al,%eax
   10a2e:	0b 85 48 d3 ff ff    	or     -0x2cb8(%rbp),%eax
   10a34:	39 c2                	cmp    %eax,%edx
   10a36:	0f 97 c0             	seta   %al
   10a39:	0f b6 c0             	movzbl %al,%eax
   10a3c:	89 de                	mov    %ebx,%esi
   10a3e:	89 c7                	mov    %eax,%edi
   10a40:	e8 8f 57 ff ff       	callq  61d4 <safe_add_func_int8_t_s_s>
   10a45:	0f be c0             	movsbl %al,%eax
   10a48:	41 39 c5             	cmp    %eax,%r13d
   10a4b:	7d 10                	jge    10a5d <func_50+0x65a8>
   10a4d:	48 8b 05 64 e2 00 00 	mov    0xe264(%rip),%rax        # 1ecb8 <g_768>
   10a54:	48 8b 00             	mov    (%rax),%rax
   10a57:	0f b7 00             	movzwl (%rax),%eax
   10a5a:	66 85 c0             	test   %ax,%ax
   10a5d:	48 8b 05 74 e0 00 00 	mov    0xe074(%rip),%rax        # 1ead8 <g_449>
   10a64:	8b 00                	mov    (%rax),%eax
   10a66:	0f b7 85 44 d3 ff ff 	movzwl -0x2cbc(%rbp),%eax
   10a6d:	98                   	cwtl   
   10a6e:	39 85 34 d4 ff ff    	cmp    %eax,-0x2bcc(%rbp)
   10a74:	0f 93 c0             	setae  %al
   10a77:	89 c6                	mov    %eax,%esi
   10a79:	8b 05 d9 ed 00 00    	mov    0xedd9(%rip),%eax        # 1f858 <g_101>
   10a7f:	8d 48 03             	lea    0x3(%rax),%ecx
   10a82:	0f b7 05 b9 c6 00 00 	movzwl 0xc6b9(%rip),%eax        # 1d142 <g_1157>
   10a89:	0f b7 d0             	movzwl %ax,%edx
   10a8c:	0f bf 85 6a d3 ff ff 	movswl -0x2c96(%rbp),%eax
   10a93:	48 98                	cltq   
   10a95:	89 c9                	mov    %ecx,%ecx
   10a97:	48 63 d2             	movslq %edx,%rdx
   10a9a:	48 01 c9             	add    %rcx,%rcx
   10a9d:	48 01 ca             	add    %rcx,%rdx
   10aa0:	48 01 d2             	add    %rdx,%rdx
   10aa3:	48 01 d0             	add    %rdx,%rax
   10aa6:	48 8d 14 85 00 00 00 	lea    0x0(,%rax,4),%rdx
   10aad:	00 
   10aae:	48 8d 05 8b c5 00 00 	lea    0xc58b(%rip),%rax        # 1d040 <g_77>
   10ab5:	8b 04 02             	mov    (%rdx,%rax,1),%eax
   10ab8:	09 f0                	or     %esi,%eax
   10aba:	0f be c0             	movsbl %al,%eax
   10abd:	48 8b 95 60 d5 ff ff 	mov    -0x2aa0(%rbp),%rdx
   10ac4:	48 8b 12             	mov    (%rdx),%rdx
   10ac7:	48 8b 1a             	mov    (%rdx),%rbx
   10aca:	44 89 e6             	mov    %r12d,%esi
   10acd:	89 c7                	mov    %eax,%edi
   10acf:	e8 3e 57 ff ff       	callq  6212 <safe_mul_func_int8_t_s_s>
   10ad4:	88 03                	mov    %al,(%rbx)
   10ad6:	0f b6 03             	movzbl (%rbx),%eax
   10ad9:	0f be c0             	movsbl %al,%eax
   10adc:	39 85 34 d4 ff ff    	cmp    %eax,-0x2bcc(%rbp)
   10ae2:	0f 95 c0             	setne  %al
   10ae5:	0f b6 c8             	movzbl %al,%ecx
   10ae8:	48 8b 05 61 e1 00 00 	mov    0xe161(%rip),%rax        # 1ec50 <g_525>
   10aef:	8b 10                	mov    (%rax),%edx
   10af1:	48 8b 05 58 e1 00 00 	mov    0xe158(%rip),%rax        # 1ec50 <g_525>
   10af8:	21 ca                	and    %ecx,%edx
   10afa:	89 10                	mov    %edx,(%rax)
   10afc:	0f b7 05 3f c6 00 00 	movzwl 0xc63f(%rip),%eax        # 1d142 <g_1157>
   10b03:	83 c0 01             	add    $0x1,%eax
   10b06:	66 89 05 35 c6 00 00 	mov    %ax,0xc635(%rip)        # 1d142 <g_1157>
   10b0d:	0f b7 05 2e c6 00 00 	movzwl 0xc62e(%rip),%eax        # 1d142 <g_1157>
   10b14:	66 85 c0             	test   %ax,%ax
   10b17:	0f 84 67 fe ff ff    	je     10984 <func_50+0x64cf>
   10b1d:	0f b7 85 6a d3 ff ff 	movzwl -0x2c96(%rbp),%eax
   10b24:	83 c0 01             	add    $0x1,%eax
   10b27:	66 89 85 6a d3 ff ff 	mov    %ax,-0x2c96(%rbp)
   10b2e:	66 83 bd 6a d3 ff ff 	cmpw   $0x1,-0x2c96(%rbp)
   10b35:	01 
   10b36:	0f 8e 91 fb ff ff    	jle    106cd <func_50+0x6218>
   10b3c:	c6 85 58 d3 ff ff 00 	movb   $0x0,-0x2ca8(%rbp)
   10b43:	eb 66                	jmp    10bab <func_50+0x66f6>
   10b45:	48 8b 85 70 d4 ff ff 	mov    -0x2b90(%rbp),%rax
   10b4c:	c7 00 ff ff ff ff    	movl   $0xffffffff,(%rax)
   10b52:	c7 05 fc c5 00 00 01 	movl   $0x1,0xc5fc(%rip)        # 1d158 <g_1378>
   10b59:	00 00 00 
   10b5c:	eb 3b                	jmp    10b99 <func_50+0x66e4>
   10b5e:	48 8b 85 70 d4 ff ff 	mov    -0x2b90(%rbp),%rax
   10b65:	8b 10                	mov    (%rax),%edx
   10b67:	48 8b 85 70 d4 ff ff 	mov    -0x2b90(%rbp),%rax
   10b6e:	83 f2 fe             	xor    $0xfffffffe,%edx
   10b71:	89 10                	mov    %edx,(%rax)
   10b73:	83 bd 4c d3 ff ff 00 	cmpl   $0x0,-0x2cb4(%rbp)
   10b7a:	74 11                	je     10b8d <func_50+0x66d8>
   10b7c:	8b 05 d6 c5 00 00    	mov    0xc5d6(%rip),%eax        # 1d158 <g_1378>
   10b82:	83 c0 01             	add    $0x1,%eax
   10b85:	89 05 cd c5 00 00    	mov    %eax,0xc5cd(%rip)        # 1d158 <g_1378>
   10b8b:	eb 0c                	jmp    10b99 <func_50+0x66e4>
   10b8d:	0f b7 05 f2 8c 00 00 	movzwl 0x8cf2(%rip),%eax        # 19886 <l_1616.4444+0x6>
   10b94:	e9 09 18 00 00       	jmpq   123a2 <func_50+0x7eed>
   10b99:	8b 05 b9 c5 00 00    	mov    0xc5b9(%rip),%eax        # 1d158 <g_1378>
   10b9f:	83 f8 04             	cmp    $0x4,%eax
   10ba2:	76 ba                	jbe    10b5e <func_50+0x66a9>
   10ba4:	80 85 58 d3 ff ff 01 	addb   $0x1,-0x2ca8(%rbp)
   10bab:	80 bd 58 d3 ff ff 04 	cmpb   $0x4,-0x2ca8(%rbp)
   10bb2:	76 91                	jbe    10b45 <func_50+0x6690>
   10bb4:	c6 05 25 c5 00 00 00 	movb   $0x0,0xc525(%rip)        # 1d0e0 <g_555>
   10bbb:	e9 8a 03 00 00       	jmpq   10f4a <func_50+0x6a95>
   10bc0:	c7 85 3c d4 ff ff 08 	movl   $0x8,-0x2bc4(%rbp)
   10bc7:	00 00 00 
   10bca:	c7 85 78 d3 ff ff 00 	movl   $0x0,-0x2c88(%rbp)
   10bd1:	00 00 00 
   10bd4:	90                   	nop
   10bd5:	8b 85 78 d3 ff ff    	mov    -0x2c88(%rbp),%eax
   10bdb:	85 c0                	test   %eax,%eax
   10bdd:	75 0c                	jne    10beb <func_50+0x6736>
   10bdf:	0f b7 85 44 d3 ff ff 	movzwl -0x2cbc(%rbp),%eax
   10be6:	e9 b7 17 00 00       	jmpq   123a2 <func_50+0x7eed>
   10beb:	48 8b 85 b0 d5 ff ff 	mov    -0x2a50(%rbp),%rax
   10bf2:	8b 00                	mov    (%rax),%eax
   10bf4:	0f be d0             	movsbl %al,%edx
   10bf7:	48 8b 85 b0 d5 ff ff 	mov    -0x2a50(%rbp),%rax
   10bfe:	8b 00                	mov    (%rax),%eax
   10c00:	0f be c0             	movsbl %al,%eax
   10c03:	89 d6                	mov    %edx,%esi
   10c05:	89 c7                	mov    %eax,%edi
   10c07:	e8 06 56 ff ff       	callq  6212 <safe_mul_func_int8_t_s_s>
   10c0c:	8b 95 2c e8 ff ff    	mov    -0x17d4(%rbp),%edx
   10c12:	0f be c0             	movsbl %al,%eax
   10c15:	31 d0                	xor    %edx,%eax
   10c17:	89 85 2c e8 ff ff    	mov    %eax,-0x17d4(%rbp)
   10c1d:	c7 05 91 c4 00 00 00 	movl   $0x0,0xc491(%rip)        # 1d0b8 <g_257>
   10c24:	00 00 00 
   10c27:	90                   	nop
   10c28:	8b 05 8a c4 00 00    	mov    0xc48a(%rip),%eax        # 1d0b8 <g_257>
   10c2e:	85 c0                	test   %eax,%eax
   10c30:	0f 8f 46 02 00 00    	jg     10e7c <func_50+0x69c7>
   10c36:	48 8d 05 eb c3 00 00 	lea    0xc3eb(%rip),%rax        # 1d028 <g_75>
   10c3d:	48 89 85 c0 d6 ff ff 	mov    %rax,-0x2940(%rbp)
   10c44:	c7 85 40 d4 ff ff f9 	movl   $0xfffffff9,-0x2bc0(%rbp)
   10c4b:	ff ff ff 
   10c4e:	c7 85 44 d4 ff ff ff 	movl   $0xffffffff,-0x2bbc(%rbp)
   10c55:	ff ff ff 
   10c58:	c7 85 48 d4 ff ff 01 	movl   $0x1,-0x2bb8(%rbp)
   10c5f:	00 00 00 
   10c62:	48 8b 9d 90 d5 ff ff 	mov    -0x2a70(%rbp),%rbx
   10c69:	48 8b 85 70 d4 ff ff 	mov    -0x2b90(%rbp),%rax
   10c70:	8b 00                	mov    (%rax),%eax
   10c72:	0f b7 c0             	movzwl %ax,%eax
   10c75:	be 06 00 00 00       	mov    $0x6,%esi
   10c7a:	89 c7                	mov    %eax,%edi
   10c7c:	e8 85 61 ff ff       	callq  6e06 <safe_lshift_func_uint16_t_u_u>
   10c81:	89 c2                	mov    %eax,%edx
   10c83:	48 8b 05 86 e1 00 00 	mov    0xe186(%rip),%rax        # 1ee10 <g_1096>
   10c8a:	0f b7 d2             	movzwl %dx,%edx
   10c8d:	48 89 10             	mov    %rdx,(%rax)
   10c90:	48 8b 10             	mov    (%rax),%rdx
   10c93:	48 8b 85 c0 d6 ff ff 	mov    -0x2940(%rbp),%rax
   10c9a:	48 89 10             	mov    %rdx,(%rax)
   10c9d:	48 8b 85 c0 d6 ff ff 	mov    -0x2940(%rbp),%rax
   10ca4:	48 8b 00             	mov    (%rax),%rax
   10ca7:	48 89 de             	mov    %rbx,%rsi
   10caa:	48 89 c7             	mov    %rax,%rdi
   10cad:	e8 ce 63 ff ff       	callq  7080 <safe_mod_func_uint64_t_u_u>
   10cb2:	48 89 c2             	mov    %rax,%rdx
   10cb5:	48 8b 05 9c e0 00 00 	mov    0xe09c(%rip),%rax        # 1ed58 <g_860>
   10cbc:	88 10                	mov    %dl,(%rax)
   10cbe:	0f b6 00             	movzbl (%rax),%eax
   10cc1:	0f b6 d8             	movzbl %al,%ebx
   10cc4:	8b 85 4c d3 ff ff    	mov    -0x2cb4(%rbp),%eax
   10cca:	0f be c0             	movsbl %al,%eax
   10ccd:	be 05 00 00 00       	mov    $0x5,%esi
   10cd2:	89 c7                	mov    %eax,%edi
   10cd4:	e8 5c 56 ff ff       	callq  6335 <safe_rshift_func_int8_t_s_s>
   10cd9:	48 8b 85 70 d4 ff ff 	mov    -0x2b90(%rbp),%rax
   10ce0:	8b 00                	mov    (%rax),%eax
   10ce2:	89 85 4c e9 ff ff    	mov    %eax,-0x16b4(%rbp)
   10ce8:	8b 85 4c e9 ff ff    	mov    -0x16b4(%rbp),%eax
   10cee:	89 85 3c d4 ff ff    	mov    %eax,-0x2bc4(%rbp)
   10cf4:	39 9d 3c d4 ff ff    	cmp    %ebx,-0x2bc4(%rbp)
   10cfa:	0f 9f c0             	setg   %al
   10cfd:	0f b6 d0             	movzbl %al,%edx
   10d00:	48 8b 85 b0 d5 ff ff 	mov    -0x2a50(%rbp),%rax
   10d07:	8b 00                	mov    (%rax),%eax
   10d09:	09 c2                	or     %eax,%edx
   10d0b:	48 8b 85 b0 d5 ff ff 	mov    -0x2a50(%rbp),%rax
   10d12:	89 10                	mov    %edx,(%rax)
   10d14:	0f b6 05 39 c4 00 00 	movzbl 0xc439(%rip),%eax        # 1d154 <g_1374>
   10d1b:	0f be d8             	movsbl %al,%ebx
   10d1e:	0f b7 05 ab c3 00 00 	movzwl 0xc3ab(%rip),%eax        # 1d0d0 <g_356>
   10d25:	44 0f bf e0          	movswl %ax,%r12d
   10d29:	48 8b 85 70 d4 ff ff 	mov    -0x2b90(%rbp),%rax
   10d30:	8b 00                	mov    (%rax),%eax
   10d32:	44 0f be e8          	movsbl %al,%r13d
   10d36:	48 8b 05 6b df 00 00 	mov    0xdf6b(%rip),%rax        # 1eca8 <g_725>
   10d3d:	0f b6 00             	movzbl (%rax),%eax
   10d40:	0f be c0             	movsbl %al,%eax
   10d43:	89 85 44 d4 ff ff    	mov    %eax,-0x2bbc(%rbp)
   10d49:	8b 85 44 d4 ff ff    	mov    -0x2bbc(%rbp),%eax
   10d4f:	44 0f b6 f0          	movzbl %al,%r14d
   10d53:	48 8b 85 80 d4 ff ff 	mov    -0x2b80(%rbp),%rax
   10d5a:	48 8b 00             	mov    (%rax),%rax
   10d5d:	48 8b 08             	mov    (%rax),%rcx
   10d60:	8b 95 48 d3 ff ff    	mov    -0x2cb8(%rbp),%edx
   10d66:	48 8b 85 80 d4 ff ff 	mov    -0x2b80(%rbp),%rax
   10d6d:	48 8b 00             	mov    (%rax),%rax
   10d70:	48 09 ca             	or     %rcx,%rdx
   10d73:	48 89 10             	mov    %rdx,(%rax)
   10d76:	48 8b 10             	mov    (%rax),%rdx
   10d79:	48 8b 85 c0 d6 ff ff 	mov    -0x2940(%rbp),%rax
   10d80:	48 8b 00             	mov    (%rax),%rax
   10d83:	48 09 c2             	or     %rax,%rdx
   10d86:	48 8b 85 c0 d6 ff ff 	mov    -0x2940(%rbp),%rax
   10d8d:	48 89 10             	mov    %rdx,(%rax)
   10d90:	48 8b 85 c0 d6 ff ff 	mov    -0x2940(%rbp),%rax
   10d97:	48 8b 00             	mov    (%rax),%rax
   10d9a:	48 89 c2             	mov    %rax,%rdx
   10d9d:	81 bd 40 d4 ff ff fd 	cmpl   $0xfd,-0x2bc0(%rbp)
   10da4:	00 00 00 
   10da7:	0f 96 c1             	setbe  %cl
   10daa:	48 8b 05 f7 e4 00 00 	mov    0xe4f7(%rip),%rax        # 1f2a8 <g_1641+0x128>
   10db1:	48 39 85 b8 d5 ff ff 	cmp    %rax,-0x2a48(%rbp)
   10db8:	0f 94 c0             	sete   %al
   10dbb:	31 c8                	xor    %ecx,%eax
   10dbd:	0f b6 c0             	movzbl %al,%eax
   10dc0:	0c f2                	or     $0xf2,%al
   10dc2:	48 89 d6             	mov    %rdx,%rsi
   10dc5:	48 89 c7             	mov    %rax,%rdi
   10dc8:	e8 2a 5c ff ff       	callq  69f7 <safe_div_func_int64_t_s_s>
   10dcd:	89 c2                	mov    %eax,%edx
   10dcf:	48 8b 85 b0 d5 ff ff 	mov    -0x2a50(%rbp),%rax
   10dd6:	89 10                	mov    %edx,(%rax)
   10dd8:	48 8b 85 b0 d5 ff ff 	mov    -0x2a50(%rbp),%rax
   10ddf:	8b 00                	mov    (%rax),%eax
   10de1:	0f b6 c0             	movzbl %al,%eax
   10de4:	44 89 f6             	mov    %r14d,%esi
   10de7:	89 c7                	mov    %eax,%edi
   10de9:	e8 a5 5d ff ff       	callq  6b93 <safe_mul_func_uint8_t_u_u>
   10dee:	83 f0 fb             	xor    $0xfffffffb,%eax
   10df1:	0f b6 c0             	movzbl %al,%eax
   10df4:	39 85 40 d4 ff ff    	cmp    %eax,-0x2bc0(%rbp)
   10dfa:	0f 96 c0             	setbe  %al
   10dfd:	89 c2                	mov    %eax,%edx
   10dff:	48 8b 85 80 d5 ff ff 	mov    -0x2a80(%rbp),%rax
   10e06:	88 10                	mov    %dl,(%rax)
   10e08:	48 8b 85 80 d5 ff ff 	mov    -0x2a80(%rbp),%rax
   10e0f:	0f b6 00             	movzbl (%rax),%eax
   10e12:	0f be c0             	movsbl %al,%eax
   10e15:	44 89 ee             	mov    %r13d,%esi
   10e18:	89 c7                	mov    %eax,%edi
   10e1a:	e8 4b 54 ff ff       	callq  626a <safe_div_func_int8_t_s_s>
   10e1f:	0f be c0             	movsbl %al,%eax
   10e22:	39 85 40 d4 ff ff    	cmp    %eax,-0x2bc0(%rbp)
   10e28:	0f 94 c0             	sete   %al
   10e2b:	0f b6 c0             	movzbl %al,%eax
   10e2e:	44 89 e6             	mov    %r12d,%esi
   10e31:	89 c7                	mov    %eax,%edi
   10e33:	e8 7e 57 ff ff       	callq  65b6 <safe_add_func_int32_t_s_s>
   10e38:	0f b7 85 58 da ff ff 	movzwl -0x25a8(%rbp),%eax
   10e3f:	83 f0 01             	xor    $0x1,%eax
   10e42:	98                   	cwtl   
   10e43:	89 de                	mov    %ebx,%esi
   10e45:	89 c7                	mov    %eax,%edi
   10e47:	e8 87 55 ff ff       	callq  63d3 <safe_sub_func_int16_t_s_s>
   10e4c:	0f b7 c0             	movzwl %ax,%eax
   10e4f:	be 02 00 00 00       	mov    $0x2,%esi
   10e54:	89 c7                	mov    %eax,%edi
   10e56:	e8 1f 60 ff ff       	callq  6e7a <safe_rshift_func_uint16_t_u_u>
   10e5b:	0f b7 c0             	movzwl %ax,%eax
   10e5e:	39 85 48 d3 ff ff    	cmp    %eax,-0x2cb8(%rbp)
   10e64:	0f 95 c0             	setne  %al
   10e67:	0f b6 c0             	movzbl %al,%eax
   10e6a:	21 85 48 d4 ff ff    	and    %eax,-0x2bb8(%rbp)
   10e70:	0f b7 85 44 d3 ff ff 	movzwl -0x2cbc(%rbp),%eax
   10e77:	e9 26 15 00 00       	jmpq   123a2 <func_50+0x7eed>
   10e7c:	83 bd 48 d3 ff ff 00 	cmpl   $0x0,-0x2cb8(%rbp)
   10e83:	74 6e                	je     10ef3 <func_50+0x6a3e>
   10e85:	48 83 bd b8 d6 ff ff 	cmpq   $0x0,-0x2948(%rbp)
   10e8c:	00 
   10e8d:	48 83 bd c0 d5 ff ff 	cmpq   $0x0,-0x2a40(%rbp)
   10e94:	00 
   10e95:	0f 95 c2             	setne  %dl
   10e98:	48 8b 85 78 d5 ff ff 	mov    -0x2a88(%rbp),%rax
   10e9f:	48 8b 00             	mov    (%rax),%rax
   10ea2:	48 8b 00             	mov    (%rax),%rax
   10ea5:	0f b6 d2             	movzbl %dl,%edx
   10ea8:	48 89 10             	mov    %rdx,(%rax)
   10eab:	48 8b 10             	mov    (%rax),%rdx
   10eae:	48 8b 85 70 d4 ff ff 	mov    -0x2b90(%rbp),%rax
   10eb5:	89 10                	mov    %edx,(%rax)
   10eb7:	8b 00                	mov    (%rax),%eax
   10eb9:	39 85 4c d3 ff ff    	cmp    %eax,-0x2cb4(%rbp)
   10ebf:	0f b7 85 44 d3 ff ff 	movzwl -0x2cbc(%rbp),%eax
   10ec6:	83 f0 01             	xor    $0x1,%eax
   10ec9:	66 25 17 e6          	and    $0xe617,%ax
   10ecd:	98                   	cwtl   
   10ece:	89 c6                	mov    %eax,%esi
   10ed0:	bf 2d 81 ff ff       	mov    $0xffff812d,%edi
   10ed5:	e8 7b 55 ff ff       	callq  6455 <safe_div_func_int16_t_s_s>
   10eda:	66 85 c0             	test   %ax,%ax
   10edd:	75 0d                	jne    10eec <func_50+0x6a37>
   10edf:	48 8b 85 b0 d5 ff ff 	mov    -0x2a50(%rbp),%rax
   10ee6:	8b 00                	mov    (%rax),%eax
   10ee8:	85 c0                	test   %eax,%eax
   10eea:	74 07                	je     10ef3 <func_50+0x6a3e>
   10eec:	b8 01 00 00 00       	mov    $0x1,%eax
   10ef1:	eb 05                	jmp    10ef8 <func_50+0x6a43>
   10ef3:	b8 00 00 00 00       	mov    $0x0,%eax
   10ef8:	0f b6 d0             	movzbl %al,%edx
   10efb:	8b 85 4c d3 ff ff    	mov    -0x2cb4(%rbp),%eax
   10f01:	0f b6 c0             	movzbl %al,%eax
   10f04:	89 d6                	mov    %edx,%esi
   10f06:	89 c7                	mov    %eax,%edi
   10f08:	e8 6b 5c ff ff       	callq  6b78 <safe_sub_func_uint8_t_u_u>
   10f0d:	84 c0                	test   %al,%al
   10f0f:	75 09                	jne    10f1a <func_50+0x6a65>
   10f11:	83 bd 4c d3 ff ff 00 	cmpl   $0x0,-0x2cb4(%rbp)
   10f18:	74 07                	je     10f21 <func_50+0x6a6c>
   10f1a:	b9 01 00 00 00       	mov    $0x1,%ecx
   10f1f:	eb 05                	jmp    10f26 <func_50+0x6a71>
   10f21:	b9 00 00 00 00       	mov    $0x0,%ecx
   10f26:	48 8b 05 ab db 00 00 	mov    0xdbab(%rip),%rax        # 1ead8 <g_449>
   10f2d:	8b 10                	mov    (%rax),%edx
   10f2f:	48 8b 05 a2 db 00 00 	mov    0xdba2(%rip),%rax        # 1ead8 <g_449>
   10f36:	31 ca                	xor    %ecx,%edx
   10f38:	89 10                	mov    %edx,(%rax)
   10f3a:	0f b6 05 9f c1 00 00 	movzbl 0xc19f(%rip),%eax        # 1d0e0 <g_555>
   10f41:	83 c0 01             	add    $0x1,%eax
   10f44:	88 05 96 c1 00 00    	mov    %al,0xc196(%rip)        # 1d0e0 <g_555>
   10f4a:	0f b6 05 8f c1 00 00 	movzbl 0xc18f(%rip),%eax        # 1d0e0 <g_555>
   10f51:	84 c0                	test   %al,%al
   10f53:	0f 8e 67 fc ff ff    	jle    10bc0 <func_50+0x670b>
   10f59:	8b 05 f9 e8 00 00    	mov    0xe8f9(%rip),%eax        # 1f858 <g_101>
   10f5f:	83 c0 01             	add    $0x1,%eax
   10f62:	89 05 f0 e8 00 00    	mov    %eax,0xe8f0(%rip)        # 1f858 <g_101>
   10f68:	8b 05 ea e8 00 00    	mov    0xe8ea(%rip),%eax        # 1f858 <g_101>
   10f6e:	85 c0                	test   %eax,%eax
   10f70:	0f 84 27 f7 ff ff    	je     1069d <func_50+0x61e8>
   10f76:	0f b7 85 5e d3 ff ff 	movzwl -0x2ca2(%rbp),%eax
   10f7d:	83 c0 01             	add    $0x1,%eax
   10f80:	66 89 85 5e d3 ff ff 	mov    %ax,-0x2ca2(%rbp)
   10f87:	e9 0f 14 00 00       	jmpq   1239b <func_50+0x7ee6>
   10f8c:	66 c7 85 66 d3 ff ff 	movw   $0x46cb,-0x2c9a(%rbp)
   10f93:	cb 46 
   10f95:	c7 85 c8 d3 ff ff fd 	movl   $0xfffffffd,-0x2c38(%rbp)
   10f9c:	ff ff ff 
   10f9f:	48 8d 05 6e c1 00 00 	lea    0xc16e(%rip),%rax        # 1d114 <g_798>
   10fa6:	48 89 85 38 d5 ff ff 	mov    %rax,-0x2ac8(%rbp)
   10fad:	48 8d 05 0c db 00 00 	lea    0xdb0c(%rip),%rax        # 1eac0 <g_436+0x80>
   10fb4:	48 89 85 30 d5 ff ff 	mov    %rax,-0x2ad0(%rbp)
   10fbb:	c7 85 c4 d3 ff ff 00 	movl   $0x0,-0x2c3c(%rbp)
   10fc2:	00 00 00 
   10fc5:	c7 85 98 d4 ff ff ef 	movl   $0x53ff7def,-0x2b68(%rbp)
   10fcc:	7d ff 53 
   10fcf:	48 8d 85 30 f0 ff ff 	lea    -0xfd0(%rbp),%rax
   10fd6:	48 8d 15 e3 78 00 00 	lea    0x78e3(%rip),%rdx        # 188c0 <g_1963+0x860>
   10fdd:	b9 5a 00 00 00       	mov    $0x5a,%ecx
   10fe2:	48 89 c7             	mov    %rax,%rdi
   10fe5:	48 89 d6             	mov    %rdx,%rsi
   10fe8:	f3 48 a5             	rep movsq %ds:(%rsi),%es:(%rdi)
   10feb:	48 8d 85 98 d4 ff ff 	lea    -0x2b68(%rbp),%rax
   10ff2:	48 89 85 b8 d4 ff ff 	mov    %rax,-0x2b48(%rbp)
   10ff9:	48 8d 05 54 c1 00 00 	lea    0xc154(%rip),%rax        # 1d154 <g_1374>
   11000:	48 89 85 10 d5 ff ff 	mov    %rax,-0x2af0(%rbp)
   11007:	48 c7 05 9e c0 00 00 	movq   $0x0,0xc09e(%rip)        # 1d0b0 <g_173>
   1100e:	00 00 00 00 
   11012:	e9 5a 02 00 00       	jmpq   11271 <func_50+0x6dbc>
   11017:	48 8d 05 42 dd 00 00 	lea    0xdd42(%rip),%rax        # 1ed60 <g_859>
   1101e:	48 89 85 70 d5 ff ff 	mov    %rax,-0x2a90(%rbp)
   11025:	c7 85 08 d4 ff ff a4 	movl   $0xc58ca4a4,-0x2bf8(%rbp)
   1102c:	a4 8c c5 
   1102f:	c7 85 f8 d3 ff ff 00 	movl   $0x0,-0x2c08(%rbp)
   11036:	00 00 00 
   11039:	eb 1a                	jmp    11055 <func_50+0x6ba0>
   1103b:	8b 85 f8 d3 ff ff    	mov    -0x2c08(%rbp),%eax
   11041:	48 98                	cltq   
   11043:	c7 84 85 b0 f7 ff ff 	movl   $0x5e0a2ca6,-0x850(%rbp,%rax,4)
   1104a:	a6 2c 0a 5e 
   1104e:	83 85 f8 d3 ff ff 01 	addl   $0x1,-0x2c08(%rbp)
   11055:	83 bd f8 d3 ff ff 00 	cmpl   $0x0,-0x2c08(%rbp)
   1105c:	7e dd                	jle    1103b <func_50+0x6b86>
   1105e:	48 8b 05 03 e1 00 00 	mov    0xe103(%rip),%rax        # 1f168 <g_1602>
   11065:	48 8b 00             	mov    (%rax),%rax
   11068:	48 39 85 70 d5 ff ff 	cmp    %rax,-0x2a90(%rbp)
   1106f:	0f 94 c0             	sete   %al
   11072:	0f b6 d0             	movzbl %al,%edx
   11075:	48 8b 05 e4 de 00 00 	mov    0xdee4(%rip),%rax        # 1ef60 <g_1360>
   1107c:	48 8b 00             	mov    (%rax),%rax
   1107f:	48 39 c2             	cmp    %rax,%rdx
   11082:	0f 9d c0             	setge  %al
   11085:	0f b6 d0             	movzbl %al,%edx
   11088:	48 8b 85 48 d5 ff ff 	mov    -0x2ab8(%rbp),%rax
   1108f:	48 89 05 0a e8 00 00 	mov    %rax,0xe80a(%rip)        # 1f8a0 <g_1669>
   11096:	48 8b 05 03 e8 00 00 	mov    0xe803(%rip),%rax        # 1f8a0 <g_1669>
   1109d:	48 39 85 48 d5 ff ff 	cmp    %rax,-0x2ab8(%rbp)
   110a4:	0f 95 c0             	setne  %al
   110a7:	0f b6 c0             	movzbl %al,%eax
   110aa:	31 85 48 d3 ff ff    	xor    %eax,-0x2cb8(%rbp)
   110b0:	83 bd 48 d3 ff ff 00 	cmpl   $0x0,-0x2cb8(%rbp)
   110b7:	0f 94 c0             	sete   %al
   110ba:	0f b6 c0             	movzbl %al,%eax
   110bd:	89 d6                	mov    %edx,%esi
   110bf:	89 c7                	mov    %eax,%edi
   110c1:	e8 cd 5a ff ff       	callq  6b93 <safe_mul_func_uint8_t_u_u>
   110c6:	0f b6 c0             	movzbl %al,%eax
   110c9:	66 89 85 44 d3 ff ff 	mov    %ax,-0x2cbc(%rbp)
   110d0:	be 00 00 00 00       	mov    $0x0,%esi
   110d5:	48 c7 c7 fd ff ff ff 	mov    $0xfffffffffffffffd,%rdi
   110dc:	e8 4d 5f ff ff       	callq  702e <safe_add_func_uint64_t_u_u>
   110e1:	48 85 c0             	test   %rax,%rax
   110e4:	0f 94 c0             	sete   %al
   110e7:	0f b6 c8             	movzbl %al,%ecx
   110ea:	48 8b 05 5f db 00 00 	mov    0xdb5f(%rip),%rax        # 1ec50 <g_525>
   110f1:	8b 10                	mov    (%rax),%edx
   110f3:	48 8b 05 56 db 00 00 	mov    0xdb56(%rip),%rax        # 1ec50 <g_525>
   110fa:	31 ca                	xor    %ecx,%edx
   110fc:	89 10                	mov    %edx,(%rax)
   110fe:	48 8b 05 23 d9 00 00 	mov    0xd923(%rip),%rax        # 1ea28 <g_352>
   11105:	0f b7 10             	movzwl (%rax),%edx
   11108:	48 8b 05 19 d9 00 00 	mov    0xd919(%rip),%rax        # 1ea28 <g_352>
   1110f:	83 ca 01             	or     $0x1,%edx
   11112:	66 89 10             	mov    %dx,(%rax)
   11115:	0f b7 00             	movzwl (%rax),%eax
   11118:	98                   	cwtl   
   11119:	8b 95 b0 f7 ff ff    	mov    -0x850(%rbp),%edx
   1111f:	39 d0                	cmp    %edx,%eax
   11121:	0f 92 c0             	setb   %al
   11124:	0f b6 c0             	movzbl %al,%eax
   11127:	be 0b 00 00 00       	mov    $0xb,%esi
   1112c:	89 c7                	mov    %eax,%edi
   1112e:	e8 8b 5c ff ff       	callq  6dbe <safe_lshift_func_uint16_t_u_s>
   11133:	48 8b 15 9e d9 00 00 	mov    0xd99e(%rip),%rdx        # 1ead8 <g_449>
   1113a:	8b 0a                	mov    (%rdx),%ecx
   1113c:	0f b7 d0             	movzwl %ax,%edx
   1113f:	48 8b 05 92 d9 00 00 	mov    0xd992(%rip),%rax        # 1ead8 <g_449>
   11146:	31 ca                	xor    %ecx,%edx
   11148:	89 10                	mov    %edx,(%rax)
   1114a:	0f b7 85 44 d3 ff ff 	movzwl -0x2cbc(%rbp),%eax
   11151:	0f bf d8             	movswl %ax,%ebx
   11154:	48 8b 85 78 d4 ff ff 	mov    -0x2b88(%rbp),%rax
   1115b:	48 8b 00             	mov    (%rax),%rax
   1115e:	c6 00 d7             	movb   $0xd7,(%rax)
   11161:	48 8b 85 70 d4 ff ff 	mov    -0x2b90(%rbp),%rax
   11168:	8b 00                	mov    (%rax),%eax
   1116a:	89 c2                	mov    %eax,%edx
   1116c:	8b 05 2e bf 00 00    	mov    0xbf2e(%rip),%eax        # 1d0a0 <g_107>
   11172:	39 c2                	cmp    %eax,%edx
   11174:	0f 96 c0             	setbe  %al
   11177:	44 0f b6 e8          	movzbl %al,%r13d
   1117b:	0f b7 05 b8 bf 00 00 	movzwl 0xbfb8(%rip),%eax        # 1d13a <g_1107+0xa>
   11182:	44 0f bf e0          	movswl %ax,%r12d
   11186:	0f b6 05 d7 bf 00 00 	movzbl 0xbfd7(%rip),%eax        # 1d164 <g_1506>
   1118d:	0f b6 c0             	movzbl %al,%eax
   11190:	89 c6                	mov    %eax,%esi
   11192:	bf 01 00 00 00       	mov    $0x1,%edi
   11197:	e8 a1 5b ff ff       	callq  6d3d <safe_mul_func_uint16_t_u_u>
   1119c:	0f b7 c0             	movzwl %ax,%eax
   1119f:	44 89 e6             	mov    %r12d,%esi
   111a2:	89 c7                	mov    %eax,%edi
   111a4:	e8 0d 54 ff ff       	callq  65b6 <safe_add_func_int32_t_s_s>
   111a9:	44 89 ea             	mov    %r13d,%edx
   111ac:	31 c2                	xor    %eax,%edx
   111ae:	48 8b 05 9b da 00 00 	mov    0xda9b(%rip),%rax        # 1ec50 <g_525>
   111b5:	8b 00                	mov    (%rax),%eax
   111b7:	39 c2                	cmp    %eax,%edx
   111b9:	0f 95 c0             	setne  %al
   111bc:	44 0f b6 e0          	movzbl %al,%r12d
   111c0:	8b 85 c8 d3 ff ff    	mov    -0x2c38(%rbp),%eax
   111c6:	8d 50 ff             	lea    -0x1(%rax),%edx
   111c9:	89 95 c8 d3 ff ff    	mov    %edx,-0x2c38(%rbp)
   111cf:	89 c0                	mov    %eax,%eax
   111d1:	48 be ea 40 21 bc c9 	movabs $0xf7ffd4c9bc2140ea,%rsi
   111d8:	d4 ff f7 
   111db:	48 89 c7             	mov    %rax,%rdi
   111de:	e8 9d 5e ff ff       	callq  7080 <safe_mod_func_uint64_t_u_u>
   111e3:	48 85 c0             	test   %rax,%rax
   111e6:	0f 94 c0             	sete   %al
   111e9:	0f b6 c0             	movzbl %al,%eax
   111ec:	44 89 e6             	mov    %r12d,%esi
   111ef:	89 c7                	mov    %eax,%edi
   111f1:	e8 bd 51 ff ff       	callq  63b3 <safe_add_func_int16_t_s_s>
   111f6:	48 8b 15 73 df 00 00 	mov    0xdf73(%rip),%rdx        # 1f170 <g_1601>
   111fd:	48 8b 12             	mov    (%rdx),%rdx
   11200:	48 8b 12             	mov    (%rdx),%rdx
   11203:	48 8b 12             	mov    (%rdx),%rdx
   11206:	48 8b 12             	mov    (%rdx),%rdx
   11209:	0f b6 12             	movzbl (%rdx),%edx
   1120c:	0f b6 d2             	movzbl %dl,%edx
   1120f:	21 d0                	and    %edx,%eax
   11211:	0f b7 c0             	movzwl %ax,%eax
   11214:	be 00 00 00 00       	mov    $0x0,%esi
   11219:	89 c7                	mov    %eax,%edi
   1121b:	e8 df 5a ff ff       	callq  6cff <safe_add_func_uint16_t_u_u>
   11220:	0f b7 c0             	movzwl %ax,%eax
   11223:	89 85 b0 f7 ff ff    	mov    %eax,-0x850(%rbp)
   11229:	8b 85 c8 d3 ff ff    	mov    -0x2c38(%rbp),%eax
   1122f:	83 e0 d7             	and    $0xffffffd7,%eax
   11232:	f7 d0                	not    %eax
   11234:	98                   	cwtl   
   11235:	89 de                	mov    %ebx,%esi
   11237:	89 c7                	mov    %eax,%edi
   11239:	e8 a3 52 ff ff       	callq  64e1 <safe_lshift_func_int16_t_s_u>
   1123e:	98                   	cwtl   
   1123f:	89 85 08 d4 ff ff    	mov    %eax,-0x2bf8(%rbp)
   11245:	8b 95 48 d3 ff ff    	mov    -0x2cb8(%rbp),%edx
   1124b:	48 8b 05 86 d8 00 00 	mov    0xd886(%rip),%rax        # 1ead8 <g_449>
   11252:	8b 00                	mov    (%rax),%eax
   11254:	31 c2                	xor    %eax,%edx
   11256:	48 8b 05 7b d8 00 00 	mov    0xd87b(%rip),%rax        # 1ead8 <g_449>
   1125d:	89 10                	mov    %edx,(%rax)
   1125f:	48 8b 05 4a be 00 00 	mov    0xbe4a(%rip),%rax        # 1d0b0 <g_173>
   11266:	48 83 c0 01          	add    $0x1,%rax
   1126a:	48 89 05 3f be 00 00 	mov    %rax,0xbe3f(%rip)        # 1d0b0 <g_173>
   11271:	48 8b 05 38 be 00 00 	mov    0xbe38(%rip),%rax        # 1d0b0 <g_173>
   11278:	48 83 f8 22          	cmp    $0x22,%rax
   1127c:	0f 87 95 fd ff ff    	ja     11017 <func_50+0x6b62>
   11282:	48 8b 85 38 d5 ff ff 	mov    -0x2ac8(%rbp),%rax
   11289:	8b 00                	mov    (%rax),%eax
   1128b:	8d 50 ff             	lea    -0x1(%rax),%edx
   1128e:	48 8b 85 38 d5 ff ff 	mov    -0x2ac8(%rbp),%rax
   11295:	89 10                	mov    %edx,(%rax)
   11297:	48 8b 05 02 db 00 00 	mov    0xdb02(%rip),%rax        # 1eda0 <g_1010>
   1129e:	48 8b 95 30 d5 ff ff 	mov    -0x2ad0(%rbp),%rdx
   112a5:	48 89 10             	mov    %rdx,(%rax)
   112a8:	48 8b 00             	mov    (%rax),%rax
   112ab:	48 85 c0             	test   %rax,%rax
   112ae:	c7 85 a0 d4 ff ff 00 	movl   $0x0,-0x2b60(%rbp)
   112b5:	00 00 00 
   112b8:	c6 85 54 d3 ff ff 06 	movb   $0x6,-0x2cac(%rbp)
   112bf:	48 c7 85 18 d5 ff ff 	movq   $0x0,-0x2ae8(%rbp)
   112c6:	00 00 00 00 
   112ca:	48 8d 85 74 d3 ff ff 	lea    -0x2c8c(%rbp),%rax
   112d1:	48 89 85 20 d5 ff ff 	mov    %rax,-0x2ae0(%rbp)
   112d8:	48 8d 85 b0 eb ff ff 	lea    -0x1450(%rbp),%rax
   112df:	48 8d 15 ba 78 00 00 	lea    0x78ba(%rip),%rdx        # 18ba0 <g_1963+0xb40>
   112e6:	b9 2d 00 00 00       	mov    $0x2d,%ecx
   112eb:	48 89 c7             	mov    %rax,%rdi
   112ee:	48 89 d6             	mov    %rdx,%rsi
   112f1:	f3 48 a5             	rep movsq %ds:(%rsi),%es:(%rdi)
   112f4:	48 b8 75 4f 5a 69 94 	movabs $0x11b07a94695a4f75,%rax
   112fb:	7a b0 11 
   112fe:	48 89 85 c0 d4 ff ff 	mov    %rax,-0x2b40(%rbp)
   11305:	48 8d 05 8c bd 00 00 	lea    0xbd8c(%rip),%rax        # 1d098 <g_104>
   1130c:	48 89 85 28 d5 ff ff 	mov    %rax,-0x2ad8(%rbp)
   11313:	c7 85 c0 e7 ff ff 30 	movl   $0x507b0230,-0x1840(%rbp)
   1131a:	02 7b 50 
   1131d:	66 c7 85 c4 e7 ff ff 	movw   $0x5564,-0x183c(%rbp)
   11324:	64 55 
   11326:	c7 85 c6 e7 ff ff 00 	movl   $0xfff70200,-0x183a(%rbp)
   1132d:	02 f7 ff 
   11330:	66 c7 85 ca e7 ff ff 	movw   $0x7b7b,-0x1836(%rbp)
   11337:	7b 7b 
   11339:	c7 85 cc e7 ff ff f9 	movl   $0xf9f7f7f9,-0x1834(%rbp)
   11340:	f7 f7 f9 
   11343:	66 c7 85 d0 e7 ff ff 	movw   $0x5502,-0x1830(%rbp)
   1134a:	02 55 
   1134c:	c7 85 d2 e7 ff ff 50 	movl   $0xf97b0050,-0x182e(%rbp)
   11353:	00 7b f9 
   11356:	66 c7 85 d6 e7 ff ff 	movw   $0x1b55,-0x182a(%rbp)
   1135d:	55 1b 
   1135f:	c7 85 d8 e7 ff ff f9 	movl   $0xff1b55f9,-0x1828(%rbp)
   11366:	55 1b ff 
   11369:	66 c7 85 dc e7 ff ff 	movw   $0x55,-0x1824(%rbp)
   11370:	55 00 
   11372:	c7 85 de e7 ff ff 00 	movl   $0x50020000,-0x1822(%rbp)
   11379:	00 02 50 
   1137c:	66 c7 85 e2 e7 ff ff 	movw   $0x2,-0x181e(%rbp)
   11383:	02 00 
   11385:	c7 85 e4 e7 ff ff 30 	movl   $0xfa1bf730,-0x181c(%rbp)
   1138c:	f7 1b fa 
   1138f:	66 c7 85 e8 e7 ff ff 	movw   $0x1b7b,-0x1818(%rbp)
   11396:	7b 1b 
   11398:	c7 85 ea e7 ff ff 30 	movl   $0x507b0230,-0x1816(%rbp)
   1139f:	02 7b 50 
   113a2:	66 c7 85 ee e7 ff ff 	movw   $0x5564,-0x1812(%rbp)
   113a9:	64 55 
   113ab:	c7 85 f0 e7 ff ff 00 	movl   $0xfff70200,-0x1810(%rbp)
   113b2:	02 f7 ff 
   113b5:	66 c7 85 f4 e7 ff ff 	movw   $0x7b7b,-0x180c(%rbp)
   113bc:	7b 7b 
   113be:	c7 85 f6 e7 ff ff f9 	movl   $0xf9f7f7f9,-0x180a(%rbp)
   113c5:	f7 f7 f9 
   113c8:	66 c7 85 fa e7 ff ff 	movw   $0x5502,-0x1806(%rbp)
   113cf:	02 55 
   113d1:	c7 85 fc e7 ff ff 50 	movl   $0xf97b0050,-0x1804(%rbp)
   113d8:	00 7b f9 
   113db:	66 c7 85 00 e8 ff ff 	movw   $0x1b55,-0x1800(%rbp)
   113e2:	55 1b 
   113e4:	c7 85 02 e8 ff ff f9 	movl   $0xff1b55f9,-0x17fe(%rbp)
   113eb:	55 1b ff 
   113ee:	66 c7 85 06 e8 ff ff 	movw   $0x55,-0x17fa(%rbp)
   113f5:	55 00 
   113f7:	c7 85 08 e8 ff ff 00 	movl   $0x50020000,-0x17f8(%rbp)
   113fe:	00 02 50 
   11401:	66 c7 85 0c e8 ff ff 	movw   $0x2,-0x17f4(%rbp)
   11408:	02 00 
   1140a:	c7 85 0e e8 ff ff 30 	movl   $0xfa1bf730,-0x17f2(%rbp)
   11411:	f7 1b fa 
   11414:	66 c7 85 12 e8 ff ff 	movw   $0x1b7b,-0x17ee(%rbp)
   1141b:	7b 1b 
   1141d:	8b 85 a0 d4 ff ff    	mov    -0x2b60(%rbp),%eax
   11423:	85 c0                	test   %eax,%eax
   11425:	74 5d                	je     11484 <func_50+0x6fcf>
   11427:	c7 85 88 d3 ff ff 00 	movl   $0x0,-0x2c78(%rbp)
   1142e:	00 00 00 
   11431:	eb 26                	jmp    11459 <func_50+0x6fa4>
   11433:	48 c7 05 3a df 00 00 	movq   $0x0,0xdf3a(%rip)        # 1f378 <g_1799>
   1143a:	00 00 00 00 
   1143e:	8b 85 88 d3 ff ff    	mov    -0x2c78(%rbp),%eax
   11444:	48 98                	cltq   
   11446:	be 02 00 00 00       	mov    $0x2,%esi
   1144b:	48 89 c7             	mov    %rax,%rdi
   1144e:	e8 db 5b ff ff       	callq  702e <safe_add_func_uint64_t_u_u>
   11453:	89 85 88 d3 ff ff    	mov    %eax,-0x2c78(%rbp)
   11459:	8b 85 88 d3 ff ff    	mov    -0x2c78(%rbp),%eax
   1145f:	83 f8 13             	cmp    $0x13,%eax
   11462:	74 cf                	je     11433 <func_50+0x6f7e>
   11464:	48 8b 85 48 d5 ff ff 	mov    -0x2ab8(%rbp),%rax
   1146b:	48 8b 00             	mov    (%rax),%rax
   1146e:	48 8b 95 30 d5 ff ff 	mov    -0x2ad0(%rbp),%rdx
   11475:	48 89 10             	mov    %rdx,(%rax)
   11478:	c6 05 e5 bc 00 00 00 	movb   $0x0,0xbce5(%rip)        # 1d164 <g_1506>
   1147f:	e9 e1 08 00 00       	jmpq   11d65 <func_50+0x78b0>
   11484:	8b 85 4c d3 ff ff    	mov    -0x2cb4(%rbp),%eax
   1148a:	e9 13 0f 00 00       	jmpq   123a2 <func_50+0x7eed>
   1148f:	c7 85 ac d3 ff ff 2c 	movl   $0xcf09192c,-0x2c54(%rbp)
   11496:	19 09 cf 
   11499:	c6 85 53 d3 ff ff af 	movb   $0xaf,-0x2cad(%rbp)
   114a0:	c7 85 8c d3 ff ff 00 	movl   $0x0,-0x2c74(%rbp)
   114a7:	00 00 00 
   114aa:	e9 56 06 00 00       	jmpq   11b05 <func_50+0x7650>
   114af:	48 8d 05 8c bc 00 00 	lea    0xbc8c(%rip),%rax        # 1d142 <g_1157>
   114b6:	48 89 85 b0 f7 ff ff 	mov    %rax,-0x850(%rbp)
   114bd:	48 8d 05 7e bc 00 00 	lea    0xbc7e(%rip),%rax        # 1d142 <g_1157>
   114c4:	48 89 85 b8 f7 ff ff 	mov    %rax,-0x848(%rbp)
   114cb:	48 8d 05 70 bc 00 00 	lea    0xbc70(%rip),%rax        # 1d142 <g_1157>
   114d2:	48 89 85 c0 f7 ff ff 	mov    %rax,-0x840(%rbp)
   114d9:	48 8d 85 5e d3 ff ff 	lea    -0x2ca2(%rbp),%rax
   114e0:	48 89 85 c8 f7 ff ff 	mov    %rax,-0x838(%rbp)
   114e7:	48 8d 85 5e d3 ff ff 	lea    -0x2ca2(%rbp),%rax
   114ee:	48 89 85 d0 f7 ff ff 	mov    %rax,-0x830(%rbp)
   114f5:	48 8d 85 5e d3 ff ff 	lea    -0x2ca2(%rbp),%rax
   114fc:	48 89 85 d8 f7 ff ff 	mov    %rax,-0x828(%rbp)
   11503:	48 8d 85 5e d3 ff ff 	lea    -0x2ca2(%rbp),%rax
   1150a:	48 89 85 e0 f7 ff ff 	mov    %rax,-0x820(%rbp)
   11511:	48 8d 05 2a bc 00 00 	lea    0xbc2a(%rip),%rax        # 1d142 <g_1157>
   11518:	48 89 85 e8 f7 ff ff 	mov    %rax,-0x818(%rbp)
   1151f:	48 8d 85 5e d3 ff ff 	lea    -0x2ca2(%rbp),%rax
   11526:	48 89 85 f0 f7 ff ff 	mov    %rax,-0x810(%rbp)
   1152d:	48 8d 85 5e d3 ff ff 	lea    -0x2ca2(%rbp),%rax
   11534:	48 89 85 f8 f7 ff ff 	mov    %rax,-0x808(%rbp)
   1153b:	48 8d 85 5e d3 ff ff 	lea    -0x2ca2(%rbp),%rax
   11542:	48 89 85 00 f8 ff ff 	mov    %rax,-0x800(%rbp)
   11549:	48 8d 05 f2 bb 00 00 	lea    0xbbf2(%rip),%rax        # 1d142 <g_1157>
   11550:	48 89 85 08 f8 ff ff 	mov    %rax,-0x7f8(%rbp)
   11557:	48 8d 85 5e d3 ff ff 	lea    -0x2ca2(%rbp),%rax
   1155e:	48 89 85 10 f8 ff ff 	mov    %rax,-0x7f0(%rbp)
   11565:	48 8d 85 5e d3 ff ff 	lea    -0x2ca2(%rbp),%rax
   1156c:	48 89 85 18 f8 ff ff 	mov    %rax,-0x7e8(%rbp)
   11573:	48 8d 85 5e d3 ff ff 	lea    -0x2ca2(%rbp),%rax
   1157a:	48 89 85 20 f8 ff ff 	mov    %rax,-0x7e0(%rbp)
   11581:	48 8d 05 ba bb 00 00 	lea    0xbbba(%rip),%rax        # 1d142 <g_1157>
   11588:	48 89 85 28 f8 ff ff 	mov    %rax,-0x7d8(%rbp)
   1158f:	48 8d 85 5e d3 ff ff 	lea    -0x2ca2(%rbp),%rax
   11596:	48 89 85 30 f8 ff ff 	mov    %rax,-0x7d0(%rbp)
   1159d:	48 8d 85 5e d3 ff ff 	lea    -0x2ca2(%rbp),%rax
   115a4:	48 89 85 38 f8 ff ff 	mov    %rax,-0x7c8(%rbp)
   115ab:	48 8d 85 5e d3 ff ff 	lea    -0x2ca2(%rbp),%rax
   115b2:	48 89 85 40 f8 ff ff 	mov    %rax,-0x7c0(%rbp)
   115b9:	48 8d 85 5e d3 ff ff 	lea    -0x2ca2(%rbp),%rax
   115c0:	48 89 85 48 f8 ff ff 	mov    %rax,-0x7b8(%rbp)
   115c7:	48 8d 05 74 bb 00 00 	lea    0xbb74(%rip),%rax        # 1d142 <g_1157>
   115ce:	48 89 85 50 f8 ff ff 	mov    %rax,-0x7b0(%rbp)
   115d5:	48 8d 05 66 bb 00 00 	lea    0xbb66(%rip),%rax        # 1d142 <g_1157>
   115dc:	48 89 85 58 f8 ff ff 	mov    %rax,-0x7a8(%rbp)
   115e3:	48 8d 05 58 bb 00 00 	lea    0xbb58(%rip),%rax        # 1d142 <g_1157>
   115ea:	48 89 85 60 f8 ff ff 	mov    %rax,-0x7a0(%rbp)
   115f1:	48 8d 05 4a bb 00 00 	lea    0xbb4a(%rip),%rax        # 1d142 <g_1157>
   115f8:	48 89 85 68 f8 ff ff 	mov    %rax,-0x798(%rbp)
   115ff:	48 8d 85 5e d3 ff ff 	lea    -0x2ca2(%rbp),%rax
   11606:	48 89 85 70 f8 ff ff 	mov    %rax,-0x790(%rbp)
   1160d:	48 8d 85 5e d3 ff ff 	lea    -0x2ca2(%rbp),%rax
   11614:	48 89 85 78 f8 ff ff 	mov    %rax,-0x788(%rbp)
   1161b:	48 8d 85 5e d3 ff ff 	lea    -0x2ca2(%rbp),%rax
   11622:	48 89 85 80 f8 ff ff 	mov    %rax,-0x780(%rbp)
   11629:	48 8d 85 5e d3 ff ff 	lea    -0x2ca2(%rbp),%rax
   11630:	48 89 85 88 f8 ff ff 	mov    %rax,-0x778(%rbp)
   11637:	48 8d 05 04 bb 00 00 	lea    0xbb04(%rip),%rax        # 1d142 <g_1157>
   1163e:	48 89 85 90 f8 ff ff 	mov    %rax,-0x770(%rbp)
   11645:	48 8d 85 5e d3 ff ff 	lea    -0x2ca2(%rbp),%rax
   1164c:	48 89 85 98 f8 ff ff 	mov    %rax,-0x768(%rbp)
   11653:	48 8d 85 5e d3 ff ff 	lea    -0x2ca2(%rbp),%rax
   1165a:	48 89 85 a0 f8 ff ff 	mov    %rax,-0x760(%rbp)
   11661:	48 8d 85 5e d3 ff ff 	lea    -0x2ca2(%rbp),%rax
   11668:	48 89 85 a8 f8 ff ff 	mov    %rax,-0x758(%rbp)
   1166f:	48 8d 05 cc ba 00 00 	lea    0xbacc(%rip),%rax        # 1d142 <g_1157>
   11676:	48 89 85 b0 f8 ff ff 	mov    %rax,-0x750(%rbp)
   1167d:	48 8d 85 5e d3 ff ff 	lea    -0x2ca2(%rbp),%rax
   11684:	48 89 85 b8 f8 ff ff 	mov    %rax,-0x748(%rbp)
   1168b:	48 8d 85 5e d3 ff ff 	lea    -0x2ca2(%rbp),%rax
   11692:	48 89 85 c0 f8 ff ff 	mov    %rax,-0x740(%rbp)
   11699:	48 8d 85 5e d3 ff ff 	lea    -0x2ca2(%rbp),%rax
   116a0:	48 89 85 c8 f8 ff ff 	mov    %rax,-0x738(%rbp)
   116a7:	48 8d 05 94 ba 00 00 	lea    0xba94(%rip),%rax        # 1d142 <g_1157>
   116ae:	48 89 85 d0 f8 ff ff 	mov    %rax,-0x730(%rbp)
   116b5:	48 8d 85 5e d3 ff ff 	lea    -0x2ca2(%rbp),%rax
   116bc:	48 89 85 d8 f8 ff ff 	mov    %rax,-0x728(%rbp)
   116c3:	48 8d 85 5e d3 ff ff 	lea    -0x2ca2(%rbp),%rax
   116ca:	48 89 85 e0 f8 ff ff 	mov    %rax,-0x720(%rbp)
   116d1:	48 8d 85 5e d3 ff ff 	lea    -0x2ca2(%rbp),%rax
   116d8:	48 89 85 e8 f8 ff ff 	mov    %rax,-0x718(%rbp)
   116df:	48 8d 85 5e d3 ff ff 	lea    -0x2ca2(%rbp),%rax
   116e6:	48 89 85 f0 f8 ff ff 	mov    %rax,-0x710(%rbp)
   116ed:	48 8d 05 4e ba 00 00 	lea    0xba4e(%rip),%rax        # 1d142 <g_1157>
   116f4:	48 89 85 f8 f8 ff ff 	mov    %rax,-0x708(%rbp)
   116fb:	48 8d 05 40 ba 00 00 	lea    0xba40(%rip),%rax        # 1d142 <g_1157>
   11702:	48 89 85 00 f9 ff ff 	mov    %rax,-0x700(%rbp)
   11709:	48 8d 05 32 ba 00 00 	lea    0xba32(%rip),%rax        # 1d142 <g_1157>
   11710:	48 89 85 08 f9 ff ff 	mov    %rax,-0x6f8(%rbp)
   11717:	48 8d 05 24 ba 00 00 	lea    0xba24(%rip),%rax        # 1d142 <g_1157>
   1171e:	48 89 85 10 f9 ff ff 	mov    %rax,-0x6f0(%rbp)
   11725:	48 8d 85 5e d3 ff ff 	lea    -0x2ca2(%rbp),%rax
   1172c:	48 89 85 18 f9 ff ff 	mov    %rax,-0x6e8(%rbp)
   11733:	48 8d 85 5e d3 ff ff 	lea    -0x2ca2(%rbp),%rax
   1173a:	48 89 85 20 f9 ff ff 	mov    %rax,-0x6e0(%rbp)
   11741:	48 8d 85 5e d3 ff ff 	lea    -0x2ca2(%rbp),%rax
   11748:	48 89 85 28 f9 ff ff 	mov    %rax,-0x6d8(%rbp)
   1174f:	48 8d 85 5e d3 ff ff 	lea    -0x2ca2(%rbp),%rax
   11756:	48 89 85 30 f9 ff ff 	mov    %rax,-0x6d0(%rbp)
   1175d:	48 8d 05 de b9 00 00 	lea    0xb9de(%rip),%rax        # 1d142 <g_1157>
   11764:	48 89 85 38 f9 ff ff 	mov    %rax,-0x6c8(%rbp)
   1176b:	48 8d 85 5e d3 ff ff 	lea    -0x2ca2(%rbp),%rax
   11772:	48 89 85 40 f9 ff ff 	mov    %rax,-0x6c0(%rbp)
   11779:	48 8d 85 5e d3 ff ff 	lea    -0x2ca2(%rbp),%rax
   11780:	48 89 85 48 f9 ff ff 	mov    %rax,-0x6b8(%rbp)
   11787:	48 8d 85 5e d3 ff ff 	lea    -0x2ca2(%rbp),%rax
   1178e:	48 89 85 50 f9 ff ff 	mov    %rax,-0x6b0(%rbp)
   11795:	48 8d 05 a6 b9 00 00 	lea    0xb9a6(%rip),%rax        # 1d142 <g_1157>
   1179c:	48 89 85 58 f9 ff ff 	mov    %rax,-0x6a8(%rbp)
   117a3:	48 8d 85 5e d3 ff ff 	lea    -0x2ca2(%rbp),%rax
   117aa:	48 89 85 60 f9 ff ff 	mov    %rax,-0x6a0(%rbp)
   117b1:	48 8d 85 5e d3 ff ff 	lea    -0x2ca2(%rbp),%rax
   117b8:	48 89 85 68 f9 ff ff 	mov    %rax,-0x698(%rbp)
   117bf:	48 8d 85 5e d3 ff ff 	lea    -0x2ca2(%rbp),%rax
   117c6:	48 89 85 70 f9 ff ff 	mov    %rax,-0x690(%rbp)
   117cd:	48 8d 05 6e b9 00 00 	lea    0xb96e(%rip),%rax        # 1d142 <g_1157>
   117d4:	48 89 85 78 f9 ff ff 	mov    %rax,-0x688(%rbp)
   117db:	48 8d 85 5e d3 ff ff 	lea    -0x2ca2(%rbp),%rax
   117e2:	48 89 85 80 f9 ff ff 	mov    %rax,-0x680(%rbp)
   117e9:	48 8d 85 5e d3 ff ff 	lea    -0x2ca2(%rbp),%rax
   117f0:	48 89 85 88 f9 ff ff 	mov    %rax,-0x678(%rbp)
   117f7:	48 8d 85 5e d3 ff ff 	lea    -0x2ca2(%rbp),%rax
   117fe:	48 89 85 90 f9 ff ff 	mov    %rax,-0x670(%rbp)
   11805:	48 8d 85 5e d3 ff ff 	lea    -0x2ca2(%rbp),%rax
   1180c:	48 89 85 98 f9 ff ff 	mov    %rax,-0x668(%rbp)
   11813:	48 8d 05 28 b9 00 00 	lea    0xb928(%rip),%rax        # 1d142 <g_1157>
   1181a:	48 89 85 a0 f9 ff ff 	mov    %rax,-0x660(%rbp)
   11821:	48 8d 05 1a b9 00 00 	lea    0xb91a(%rip),%rax        # 1d142 <g_1157>
   11828:	48 89 85 a8 f9 ff ff 	mov    %rax,-0x658(%rbp)
   1182f:	48 8d 05 0c b9 00 00 	lea    0xb90c(%rip),%rax        # 1d142 <g_1157>
   11836:	48 89 85 b0 f9 ff ff 	mov    %rax,-0x650(%rbp)
   1183d:	48 8d 05 fe b8 00 00 	lea    0xb8fe(%rip),%rax        # 1d142 <g_1157>
   11844:	48 89 85 b8 f9 ff ff 	mov    %rax,-0x648(%rbp)
   1184b:	48 8d 85 5e d3 ff ff 	lea    -0x2ca2(%rbp),%rax
   11852:	48 89 85 c0 f9 ff ff 	mov    %rax,-0x640(%rbp)
   11859:	48 8d 85 5e d3 ff ff 	lea    -0x2ca2(%rbp),%rax
   11860:	48 89 85 c8 f9 ff ff 	mov    %rax,-0x638(%rbp)
   11867:	48 8d 85 5e d3 ff ff 	lea    -0x2ca2(%rbp),%rax
   1186e:	48 89 85 d0 f9 ff ff 	mov    %rax,-0x630(%rbp)
   11875:	48 8d 85 5e d3 ff ff 	lea    -0x2ca2(%rbp),%rax
   1187c:	48 89 85 d8 f9 ff ff 	mov    %rax,-0x628(%rbp)
   11883:	48 8d 05 b8 b8 00 00 	lea    0xb8b8(%rip),%rax        # 1d142 <g_1157>
   1188a:	48 89 85 e0 f9 ff ff 	mov    %rax,-0x620(%rbp)
   11891:	48 8d 85 5e d3 ff ff 	lea    -0x2ca2(%rbp),%rax
   11898:	48 89 85 e8 f9 ff ff 	mov    %rax,-0x618(%rbp)
   1189f:	48 8d 85 5e d3 ff ff 	lea    -0x2ca2(%rbp),%rax
   118a6:	48 89 85 f0 f9 ff ff 	mov    %rax,-0x610(%rbp)
   118ad:	48 8d 85 5e d3 ff ff 	lea    -0x2ca2(%rbp),%rax
   118b4:	48 89 85 f8 f9 ff ff 	mov    %rax,-0x608(%rbp)
   118bb:	48 8d 05 80 b8 00 00 	lea    0xb880(%rip),%rax        # 1d142 <g_1157>
   118c2:	48 89 85 00 fa ff ff 	mov    %rax,-0x600(%rbp)
   118c9:	48 8d 85 5e d3 ff ff 	lea    -0x2ca2(%rbp),%rax
   118d0:	48 89 85 08 fa ff ff 	mov    %rax,-0x5f8(%rbp)
   118d7:	48 8d 85 5e d3 ff ff 	lea    -0x2ca2(%rbp),%rax
   118de:	48 89 85 10 fa ff ff 	mov    %rax,-0x5f0(%rbp)
   118e5:	48 8d 85 5e d3 ff ff 	lea    -0x2ca2(%rbp),%rax
   118ec:	48 89 85 18 fa ff ff 	mov    %rax,-0x5e8(%rbp)
   118f3:	48 8d 05 48 b8 00 00 	lea    0xb848(%rip),%rax        # 1d142 <g_1157>
   118fa:	48 89 85 20 fa ff ff 	mov    %rax,-0x5e0(%rbp)
   11901:	48 8d 85 5e d3 ff ff 	lea    -0x2ca2(%rbp),%rax
   11908:	48 89 85 28 fa ff ff 	mov    %rax,-0x5d8(%rbp)
   1190f:	48 8d 85 5e d3 ff ff 	lea    -0x2ca2(%rbp),%rax
   11916:	48 89 85 30 fa ff ff 	mov    %rax,-0x5d0(%rbp)
   1191d:	48 8d 85 5e d3 ff ff 	lea    -0x2ca2(%rbp),%rax
   11924:	48 89 85 38 fa ff ff 	mov    %rax,-0x5c8(%rbp)
   1192b:	48 8d 85 5e d3 ff ff 	lea    -0x2ca2(%rbp),%rax
   11932:	48 89 85 40 fa ff ff 	mov    %rax,-0x5c0(%rbp)
   11939:	48 8d 05 02 b8 00 00 	lea    0xb802(%rip),%rax        # 1d142 <g_1157>
   11940:	48 89 85 48 fa ff ff 	mov    %rax,-0x5b8(%rbp)
   11947:	48 8d 05 f4 b7 00 00 	lea    0xb7f4(%rip),%rax        # 1d142 <g_1157>
   1194e:	48 89 85 50 fa ff ff 	mov    %rax,-0x5b0(%rbp)
   11955:	48 8d 05 e6 b7 00 00 	lea    0xb7e6(%rip),%rax        # 1d142 <g_1157>
   1195c:	48 89 85 58 fa ff ff 	mov    %rax,-0x5a8(%rbp)
   11963:	48 8d 05 d8 b7 00 00 	lea    0xb7d8(%rip),%rax        # 1d142 <g_1157>
   1196a:	48 89 85 60 fa ff ff 	mov    %rax,-0x5a0(%rbp)
   11971:	48 8d 85 5e d3 ff ff 	lea    -0x2ca2(%rbp),%rax
   11978:	48 89 85 68 fa ff ff 	mov    %rax,-0x598(%rbp)
   1197f:	48 8d 85 5e d3 ff ff 	lea    -0x2ca2(%rbp),%rax
   11986:	48 89 85 70 fa ff ff 	mov    %rax,-0x590(%rbp)
   1198d:	48 8d 05 ae b7 00 00 	lea    0xb7ae(%rip),%rax        # 1d142 <g_1157>
   11994:	48 89 85 78 fa ff ff 	mov    %rax,-0x588(%rbp)
   1199b:	48 8d 85 5e d3 ff ff 	lea    -0x2ca2(%rbp),%rax
   119a2:	48 89 85 80 fa ff ff 	mov    %rax,-0x580(%rbp)
   119a9:	48 c7 85 88 fa ff ff 	movq   $0x0,-0x578(%rbp)
   119b0:	00 00 00 00 
   119b4:	48 8d 85 5e d3 ff ff 	lea    -0x2ca2(%rbp),%rax
   119bb:	48 89 85 90 fa ff ff 	mov    %rax,-0x570(%rbp)
   119c2:	48 8d 85 5e d3 ff ff 	lea    -0x2ca2(%rbp),%rax
   119c9:	48 89 85 98 fa ff ff 	mov    %rax,-0x568(%rbp)
   119d0:	48 8d 85 5e d3 ff ff 	lea    -0x2ca2(%rbp),%rax
   119d7:	48 89 85 a0 fa ff ff 	mov    %rax,-0x560(%rbp)
   119de:	48 c7 85 a8 fa ff ff 	movq   $0x0,-0x558(%rbp)
   119e5:	00 00 00 00 
   119e9:	c6 05 ea b6 00 00 00 	movb   $0x0,0xb6ea(%rip)        # 1d0da <g_438>
   119f0:	90                   	nop
   119f1:	0f b6 05 e2 b6 00 00 	movzbl 0xb6e2(%rip),%eax        # 1d0da <g_438>
   119f8:	3c 03                	cmp    $0x3,%al
   119fa:	77 0f                	ja     11a0b <func_50+0x7556>
   119fc:	0f b6 05 0a b7 00 00 	movzbl 0xb70a(%rip),%eax        # 1d10d <g_778+0x5>
   11a03:	0f b6 c0             	movzbl %al,%eax
   11a06:	e9 97 09 00 00       	jmpq   123a2 <func_50+0x7eed>
   11a0b:	8b 9d 48 d3 ff ff    	mov    -0x2cb8(%rbp),%ebx
   11a11:	be 00 00 00 00       	mov    $0x0,%esi
   11a16:	bf da ff ff ff       	mov    $0xffffffda,%edi
   11a1b:	e8 ce 48 ff ff       	callq  62ee <safe_lshift_func_int8_t_s_u>
   11a20:	66 98                	cbtw   
   11a22:	0f b7 95 44 d3 ff ff 	movzwl -0x2cbc(%rbp),%edx
   11a29:	83 f2 fa             	xor    $0xfffffffa,%edx
   11a2c:	66 39 d0             	cmp    %dx,%ax
   11a2f:	0f 8e 92 00 00 00    	jle    11ac7 <func_50+0x7612>
   11a35:	c7 85 c4 d3 ff ff ff 	movl   $0xffffffff,-0x2c3c(%rbp)
   11a3c:	ff ff ff 
   11a3f:	48 8b 05 0a d2 00 00 	mov    0xd20a(%rip),%rax        # 1ec50 <g_525>
   11a46:	8b 95 c4 d3 ff ff    	mov    -0x2c3c(%rbp),%edx
   11a4c:	89 10                	mov    %edx,(%rax)
   11a4e:	8b 00                	mov    (%rax),%eax
   11a50:	39 85 ac d3 ff ff    	cmp    %eax,-0x2c54(%rbp)
   11a56:	0f 94 c0             	sete   %al
   11a59:	44 0f b6 e0          	movzbl %al,%r12d
   11a5d:	8b 85 ac d3 ff ff    	mov    -0x2c54(%rbp),%eax
   11a63:	0f b7 d0             	movzwl %ax,%edx
   11a66:	8b 85 ac d3 ff ff    	mov    -0x2c54(%rbp),%eax
   11a6c:	89 85 88 f1 ff ff    	mov    %eax,-0xe78(%rbp)
   11a72:	8b 85 88 f1 ff ff    	mov    -0xe78(%rbp),%eax
   11a78:	89 c1                	mov    %eax,%ecx
   11a7a:	48 8b 85 50 d5 ff ff 	mov    -0x2ab0(%rbp),%rax
   11a81:	66 89 08             	mov    %cx,(%rax)
   11a84:	48 8b 85 50 d5 ff ff 	mov    -0x2ab0(%rbp),%rax
   11a8b:	0f b7 08             	movzwl (%rax),%ecx
   11a8e:	0f b7 05 ad b6 00 00 	movzwl 0xb6ad(%rip),%eax        # 1d142 <g_1157>
   11a95:	21 c8                	and    %ecx,%eax
   11a97:	66 89 05 a4 b6 00 00 	mov    %ax,0xb6a4(%rip)        # 1d142 <g_1157>
   11a9e:	0f b7 05 9d b6 00 00 	movzwl 0xb69d(%rip),%eax        # 1d142 <g_1157>
   11aa5:	0f b7 c0             	movzwl %ax,%eax
   11aa8:	89 d6                	mov    %edx,%esi
   11aaa:	89 c7                	mov    %eax,%edi
   11aac:	e8 8c 52 ff ff       	callq  6d3d <safe_mul_func_uint16_t_u_u>
   11ab1:	66 3d c4 00          	cmp    $0xc4,%ax
   11ab5:	0f 94 c0             	sete   %al
   11ab8:	0f b6 c0             	movzbl %al,%eax
   11abb:	41 39 c4             	cmp    %eax,%r12d
   11abe:	7d 07                	jge    11ac7 <func_50+0x7612>
   11ac0:	b8 01 00 00 00       	mov    $0x1,%eax
   11ac5:	eb 05                	jmp    11acc <func_50+0x7617>
   11ac7:	b8 00 00 00 00       	mov    $0x0,%eax
   11acc:	83 f8 5f             	cmp    $0x5f,%eax
   11acf:	0f 9f c0             	setg   %al
   11ad2:	0f b6 c0             	movzbl %al,%eax
   11ad5:	89 de                	mov    %ebx,%esi
   11ad7:	89 c7                	mov    %eax,%edi
   11ad9:	e8 4c 4a ff ff       	callq  652a <safe_rshift_func_int16_t_s_s>
   11ade:	0f b7 95 44 d3 ff ff 	movzwl -0x2cbc(%rbp),%edx
   11ae5:	21 c2                	and    %eax,%edx
   11ae7:	48 8d 05 ea cf 00 00 	lea    0xcfea(%rip),%rax        # 1ead8 <g_449>
   11aee:	48 8b 00             	mov    (%rax),%rax
   11af1:	0f bf d2             	movswl %dx,%edx
   11af4:	89 10                	mov    %edx,(%rax)
   11af6:	8b 85 8c d3 ff ff    	mov    -0x2c74(%rbp),%eax
   11afc:	83 c0 01             	add    $0x1,%eax
   11aff:	89 85 8c d3 ff ff    	mov    %eax,-0x2c74(%rbp)
   11b05:	8b 85 8c d3 ff ff    	mov    -0x2c74(%rbp),%eax
   11b0b:	83 f8 28             	cmp    $0x28,%eax
   11b0e:	0f 87 9b f9 ff ff    	ja     114af <func_50+0x6ffa>
   11b14:	48 8b 05 6d d1 00 00 	mov    0xd16d(%rip),%rax        # 1ec88 <g_648>
   11b1b:	48 8b 00             	mov    (%rax),%rax
   11b1e:	48 89 85 b8 d4 ff ff 	mov    %rax,-0x2b48(%rbp)
   11b25:	c7 05 f1 b5 00 00 00 	movl   $0x0,0xb5f1(%rip)        # 1d120 <g_929>
   11b2c:	00 00 00 
   11b2f:	90                   	nop
   11b30:	8b 05 ea b5 00 00    	mov    0xb5ea(%rip),%eax        # 1d120 <g_929>
   11b36:	83 f8 f1             	cmp    $0xfffffff1,%eax
   11b39:	0f 8d 16 01 00 00    	jge    11c55 <func_50+0x77a0>
   11b3f:	48 8d 85 88 d3 ff ff 	lea    -0x2c78(%rbp),%rax
   11b46:	48 89 85 68 d5 ff ff 	mov    %rax,-0x2a98(%rbp)
   11b4d:	48 c7 85 a8 d4 ff ff 	movq   $0x0,-0x2b58(%rbp)
   11b54:	00 00 00 00 
   11b58:	48 8d 85 a8 d4 ff ff 	lea    -0x2b58(%rbp),%rax
   11b5f:	48 89 85 b0 d4 ff ff 	mov    %rax,-0x2b50(%rbp)
   11b66:	48 8b 05 e3 d1 00 00 	mov    0xd1e3(%rip),%rax        # 1ed50 <g_811>
   11b6d:	48 8b 00             	mov    (%rax),%rax
   11b70:	48 8b 95 68 d5 ff ff 	mov    -0x2a98(%rbp),%rdx
   11b77:	48 89 10             	mov    %rdx,(%rax)
   11b7a:	48 8b 05 cf d1 00 00 	mov    0xd1cf(%rip),%rax        # 1ed50 <g_811>
   11b81:	48 8b 00             	mov    (%rax),%rax
   11b84:	48 8b 95 68 d5 ff ff 	mov    -0x2a98(%rbp),%rdx
   11b8b:	48 89 10             	mov    %rdx,(%rax)
   11b8e:	48 8b 85 68 d5 ff ff 	mov    -0x2a98(%rbp),%rax
   11b95:	8b 18                	mov    (%rax),%ebx
   11b97:	be 91 ff ff ff       	mov    $0xffffff91,%esi
   11b9c:	bf 01 00 00 00       	mov    $0x1,%edi
   11ba1:	e8 2e 46 ff ff       	callq  61d4 <safe_add_func_int8_t_s_s>
   11ba6:	0f b6 c0             	movzbl %al,%eax
   11ba9:	89 de                	mov    %ebx,%esi
   11bab:	89 c7                	mov    %eax,%edi
   11bad:	e8 53 50 ff ff       	callq  6c05 <safe_lshift_func_uint8_t_u_s>
   11bb2:	84 c0                	test   %al,%al
   11bb4:	75 31                	jne    11be7 <func_50+0x7732>
   11bb6:	48 8b 15 9b d1 00 00 	mov    0xd19b(%rip),%rdx        # 1ed58 <g_860>
   11bbd:	48 8b 05 9c d1 00 00 	mov    0xd19c(%rip),%rax        # 1ed60 <g_859>
   11bc4:	48 8b 00             	mov    (%rax),%rax
   11bc7:	0f b6 12             	movzbl (%rdx),%edx
   11bca:	88 10                	mov    %dl,(%rax)
   11bcc:	0f b6 00             	movzbl (%rax),%eax
   11bcf:	84 c0                	test   %al,%al
   11bd1:	0f 94 c0             	sete   %al
   11bd4:	0f b6 d0             	movzbl %al,%edx
   11bd7:	48 8b 05 d2 b4 00 00 	mov    0xb4d2(%rip),%rax        # 1d0b0 <g_173>
   11bde:	48 09 d0             	or     %rdx,%rax
   11be1:	48 83 f8 43          	cmp    $0x43,%rax
   11be5:	77 07                	ja     11bee <func_50+0x7739>
   11be7:	b8 01 00 00 00       	mov    $0x1,%eax
   11bec:	eb 05                	jmp    11bf3 <func_50+0x773e>
   11bee:	b8 00 00 00 00       	mov    $0x0,%eax
   11bf3:	98                   	cwtl   
   11bf4:	be 0a 00 00 00       	mov    $0xa,%esi
   11bf9:	89 c7                	mov    %eax,%edi
   11bfb:	e8 e1 48 ff ff       	callq  64e1 <safe_lshift_func_int16_t_s_u>
   11c00:	0f b7 d0             	movzwl %ax,%edx
   11c03:	0f b7 85 44 d3 ff ff 	movzwl -0x2cbc(%rbp),%eax
   11c0a:	0f b7 c0             	movzwl %ax,%eax
   11c0d:	89 d6                	mov    %edx,%esi
   11c0f:	89 c7                	mov    %eax,%edi
   11c11:	e8 27 51 ff ff       	callq  6d3d <safe_mul_func_uint16_t_u_u>
   11c16:	0f b7 d8             	movzwl %ax,%ebx
   11c19:	be 09 00 00 00       	mov    $0x9,%esi
   11c1e:	bf e9 dd 00 00       	mov    $0xdde9,%edi
   11c23:	e8 96 51 ff ff       	callq  6dbe <safe_lshift_func_uint16_t_u_s>
   11c28:	0f b7 c0             	movzwl %ax,%eax
   11c2b:	48 89 de             	mov    %rbx,%rsi
   11c2e:	48 89 c7             	mov    %rax,%rdi
   11c31:	e8 c1 4d ff ff       	callq  69f7 <safe_div_func_int64_t_s_s>
   11c36:	48 8b 05 0b b5 00 00 	mov    0xb50b(%rip),%rax        # 1d148 <g_1343>
   11c3d:	48 8b 05 1c d3 00 00 	mov    0xd31c(%rip),%rax        # 1ef60 <g_1360>
   11c44:	48 8b 00             	mov    (%rax),%rax
   11c47:	48 8b 85 70 d4 ff ff 	mov    -0x2b90(%rbp),%rax
   11c4e:	8b 00                	mov    (%rax),%eax
   11c50:	e9 4d 07 00 00       	jmpq   123a2 <func_50+0x7eed>
   11c55:	48 8b 05 04 dc 00 00 	mov    0xdc04(%rip),%rax        # 1f860 <g_375>
   11c5c:	41 89 c5             	mov    %eax,%r13d
   11c5f:	0f be 9d 54 d3 ff ff 	movsbl -0x2cac(%rbp),%ebx
   11c66:	0f b7 85 44 d3 ff ff 	movzwl -0x2cbc(%rbp),%eax
   11c6d:	44 0f bf e0          	movswl %ax,%r12d
   11c71:	48 8b 05 b8 cd 00 00 	mov    0xcdb8(%rip),%rax        # 1ea30 <g_351>
   11c78:	48 8b 00             	mov    (%rax),%rax
   11c7b:	0f b7 00             	movzwl (%rax),%eax
   11c7e:	0f bf d0             	movswl %ax,%edx
   11c81:	0f b7 85 44 d3 ff ff 	movzwl -0x2cbc(%rbp),%eax
   11c88:	98                   	cwtl   
   11c89:	89 d6                	mov    %edx,%esi
   11c8b:	89 c7                	mov    %eax,%edi
   11c8d:	e8 63 47 ff ff       	callq  63f5 <safe_mul_func_int16_t_s_s>
   11c92:	0f bf d0             	movswl %ax,%edx
   11c95:	8b 05 c5 b4 00 00    	mov    0xb4c5(%rip),%eax        # 1d160 <g_1498>
   11c9b:	31 d0                	xor    %edx,%eax
   11c9d:	3d 97 23 00 00       	cmp    $0x2397,%eax
   11ca2:	0f 9f c0             	setg   %al
   11ca5:	0f b6 c0             	movzbl %al,%eax
   11ca8:	41 39 c4             	cmp    %eax,%r12d
   11cab:	0f 9e c0             	setle  %al
   11cae:	0f b6 d0             	movzbl %al,%edx
   11cb1:	48 8b 85 70 d4 ff ff 	mov    -0x2b90(%rbp),%rax
   11cb8:	8b 00                	mov    (%rax),%eax
   11cba:	21 c2                	and    %eax,%edx
   11cbc:	8b 85 4c d3 ff ff    	mov    -0x2cb4(%rbp),%eax
   11cc2:	39 c2                	cmp    %eax,%edx
   11cc4:	74 07                	je     11ccd <func_50+0x7818>
   11cc6:	b8 01 00 00 00       	mov    $0x1,%eax
   11ccb:	eb 05                	jmp    11cd2 <func_50+0x781d>
   11ccd:	b8 00 00 00 00       	mov    $0x0,%eax
   11cd2:	0f b6 c0             	movzbl %al,%eax
   11cd5:	89 de                	mov    %ebx,%esi
   11cd7:	89 c7                	mov    %eax,%edi
   11cd9:	e8 6e 4f ff ff       	callq  6c4c <safe_lshift_func_uint8_t_u_u>
   11cde:	48 8b 85 50 d5 ff ff 	mov    -0x2ab0(%rbp),%rax
   11ce5:	0f b7 00             	movzwl (%rax),%eax
   11ce8:	89 c2                	mov    %eax,%edx
   11cea:	8b 85 a0 d4 ff ff    	mov    -0x2b60(%rbp),%eax
   11cf0:	09 d0                	or     %edx,%eax
   11cf2:	89 c2                	mov    %eax,%edx
   11cf4:	48 8b 85 50 d5 ff ff 	mov    -0x2ab0(%rbp),%rax
   11cfb:	66 89 10             	mov    %dx,(%rax)
   11cfe:	48 8b 85 50 d5 ff ff 	mov    -0x2ab0(%rbp),%rax
   11d05:	0f b7 00             	movzwl (%rax),%eax
   11d08:	0f b7 c0             	movzwl %ax,%eax
   11d0b:	23 85 48 d3 ff ff    	and    -0x2cb8(%rbp),%eax
   11d11:	8b 15 45 db 00 00    	mov    0xdb45(%rip),%edx        # 1f85c <g_320>
   11d17:	89 d1                	mov    %edx,%ecx
   11d19:	f7 d1                	not    %ecx
   11d1b:	0f be 95 53 d3 ff ff 	movsbl -0x2cad(%rbp),%edx
   11d22:	09 ca                	or     %ecx,%edx
   11d24:	21 d0                	and    %edx,%eax
   11d26:	44 89 ee             	mov    %r13d,%esi
   11d29:	89 c7                	mov    %eax,%edi
   11d2b:	e8 a0 51 ff ff       	callq  6ed0 <safe_sub_func_uint32_t_u_u>
   11d30:	48 8b 85 70 d4 ff ff 	mov    -0x2b90(%rbp),%rax
   11d37:	8b 00                	mov    (%rax),%eax
   11d39:	23 85 ac d3 ff ff    	and    -0x2c54(%rbp),%eax
   11d3f:	89 c1                	mov    %eax,%ecx
   11d41:	48 8b 05 08 cf 00 00 	mov    0xcf08(%rip),%rax        # 1ec50 <g_525>
   11d48:	8b 10                	mov    (%rax),%edx
   11d4a:	48 8b 05 ff ce 00 00 	mov    0xceff(%rip),%rax        # 1ec50 <g_525>
   11d51:	09 ca                	or     %ecx,%edx
   11d53:	89 10                	mov    %edx,(%rax)
   11d55:	0f b6 05 08 b4 00 00 	movzbl 0xb408(%rip),%eax        # 1d164 <g_1506>
   11d5c:	83 c0 01             	add    $0x1,%eax
   11d5f:	88 05 ff b3 00 00    	mov    %al,0xb3ff(%rip)        # 1d164 <g_1506>
   11d65:	0f b6 05 f8 b3 00 00 	movzbl 0xb3f8(%rip),%eax        # 1d164 <g_1506>
   11d6c:	3c 13                	cmp    $0x13,%al
   11d6e:	0f 86 1b f7 ff ff    	jbe    1148f <func_50+0x6fda>
   11d74:	c7 05 a2 b3 00 00 00 	movl   $0x0,0xb3a2(%rip)        # 1d120 <g_929>
   11d7b:	00 00 00 
   11d7e:	e9 09 06 00 00       	jmpq   1238c <func_50+0x7ed7>
   11d83:	66 c7 85 62 d3 ff ff 	movw   $0x1862,-0x2c9e(%rbp)
   11d8a:	62 18 
   11d8c:	c7 85 a8 d4 ff ff 00 	movl   $0x0,-0x2b58(%rbp)
   11d93:	00 00 00 
   11d96:	0f be 9d 54 d3 ff ff 	movsbl -0x2cac(%rbp),%ebx
   11d9d:	48 8b 85 38 d5 ff ff 	mov    -0x2ac8(%rbp),%rax
   11da4:	48 3b 85 20 d5 ff ff 	cmp    -0x2ae0(%rbp),%rax
   11dab:	0f 94 c0             	sete   %al
   11dae:	44 0f b6 e0          	movzbl %al,%r12d
   11db2:	48 8b 05 3f b3 00 00 	mov    0xb33f(%rip),%rax        # 1d0f8 <g_653>
   11db9:	0f bf d0             	movswl %ax,%edx
   11dbc:	48 8b 05 65 cc 00 00 	mov    0xcc65(%rip),%rax        # 1ea28 <g_352>
   11dc3:	0f b7 00             	movzwl (%rax),%eax
   11dc6:	98                   	cwtl   
   11dc7:	89 d6                	mov    %edx,%esi
   11dc9:	89 c7                	mov    %eax,%edi
   11dcb:	e8 25 46 ff ff       	callq  63f5 <safe_mul_func_int16_t_s_s>
   11dd0:	98                   	cwtl   
   11dd1:	41 39 c4             	cmp    %eax,%r12d
   11dd4:	0f 9c c0             	setl   %al
   11dd7:	0f b6 d0             	movzbl %al,%edx
   11dda:	8b 05 44 b3 00 00    	mov    0xb344(%rip),%eax        # 1d124 <g_966>
   11de0:	39 c2                	cmp    %eax,%edx
   11de2:	0f 97 c0             	seta   %al
   11de5:	0f b6 d0             	movzbl %al,%edx
   11de8:	0f b7 85 44 d3 ff ff 	movzwl -0x2cbc(%rbp),%eax
   11def:	98                   	cwtl   
   11df0:	39 c2                	cmp    %eax,%edx
   11df2:	0f 9e c0             	setle  %al
   11df5:	0f b6 d0             	movzbl %al,%edx
   11df8:	8b 85 a0 d4 ff ff    	mov    -0x2b60(%rbp),%eax
   11dfe:	39 c2                	cmp    %eax,%edx
   11e00:	74 0d                	je     11e0f <func_50+0x795a>
   11e02:	48 8b 85 b8 d4 ff ff 	mov    -0x2b48(%rbp),%rax
   11e09:	8b 00                	mov    (%rax),%eax
   11e0b:	85 c0                	test   %eax,%eax
   11e0d:	74 07                	je     11e16 <func_50+0x7961>
   11e0f:	b8 01 00 00 00       	mov    $0x1,%eax
   11e14:	eb 05                	jmp    11e1b <func_50+0x7966>
   11e16:	b8 00 00 00 00       	mov    $0x0,%eax
   11e1b:	0f b7 c0             	movzwl %ax,%eax
   11e1e:	be 0d 00 00 00       	mov    $0xd,%esi
   11e23:	89 c7                	mov    %eax,%edi
   11e25:	e8 dc 4f ff ff       	callq  6e06 <safe_lshift_func_uint16_t_u_u>
   11e2a:	0f be d0             	movsbl %al,%edx
   11e2d:	48 8b 85 b8 d4 ff ff 	mov    -0x2b48(%rbp),%rax
   11e34:	8b 00                	mov    (%rax),%eax
   11e36:	0f be c0             	movsbl %al,%eax
   11e39:	89 d6                	mov    %edx,%esi
   11e3b:	89 c7                	mov    %eax,%edi
   11e3d:	e8 92 43 ff ff       	callq  61d4 <safe_add_func_int8_t_s_s>
   11e42:	84 c0                	test   %al,%al
   11e44:	0f 9e c0             	setle  %al
   11e47:	0f b6 c0             	movzbl %al,%eax
   11e4a:	be 06 00 00 00       	mov    $0x6,%esi
   11e4f:	89 c7                	mov    %eax,%edi
   11e51:	e8 af 4d ff ff       	callq  6c05 <safe_lshift_func_uint8_t_u_s>
   11e56:	be 01 00 00 00       	mov    $0x1,%esi
   11e5b:	bf 01 00 00 00       	mov    $0x1,%edi
   11e60:	e8 89 44 ff ff       	callq  62ee <safe_lshift_func_int8_t_s_u>
   11e65:	48 8b 05 34 ce 00 00 	mov    0xce34(%rip),%rax        # 1eca0 <g_651>
   11e6c:	48 8b 00             	mov    (%rax),%rax
   11e6f:	48 8b 00             	mov    (%rax),%rax
   11e72:	48 89 c2             	mov    %rax,%rdx
   11e75:	48 8b 85 10 d5 ff ff 	mov    -0x2af0(%rbp),%rax
   11e7c:	48 3b 85 18 d5 ff ff 	cmp    -0x2ae8(%rbp),%rax
   11e83:	0f 94 c0             	sete   %al
   11e86:	0f b6 c0             	movzbl %al,%eax
   11e89:	48 89 d6             	mov    %rdx,%rsi
   11e8c:	48 89 c7             	mov    %rax,%rdi
   11e8f:	e8 63 4b ff ff       	callq  69f7 <safe_div_func_int64_t_s_s>
   11e94:	be c0 a5 2d df       	mov    $0xdf2da5c0,%esi
   11e99:	89 c7                	mov    %eax,%edi
   11e9b:	e8 5d 50 ff ff       	callq  6efd <safe_mod_func_uint32_t_u_u>
   11ea0:	89 c2                	mov    %eax,%edx
   11ea2:	48 8b 85 b8 d4 ff ff 	mov    -0x2b48(%rbp),%rax
   11ea9:	8b 00                	mov    (%rax),%eax
   11eab:	31 d0                	xor    %edx,%eax
   11ead:	83 f0 01             	xor    $0x1,%eax
   11eb0:	0f b6 d0             	movzbl %al,%edx
   11eb3:	8b 85 48 d3 ff ff    	mov    -0x2cb8(%rbp),%eax
   11eb9:	0f b6 c0             	movzbl %al,%eax
   11ebc:	89 d6                	mov    %edx,%esi
   11ebe:	89 c7                	mov    %eax,%edi
   11ec0:	e8 b3 4c ff ff       	callq  6b78 <safe_sub_func_uint8_t_u_u>
   11ec5:	0f b6 c0             	movzbl %al,%eax
   11ec8:	83 e0 04             	and    $0x4,%eax
   11ecb:	48 89 c2             	mov    %rax,%rdx
   11ece:	48 8b 85 b8 d4 ff ff 	mov    -0x2b48(%rbp),%rax
   11ed5:	8b 00                	mov    (%rax),%eax
   11ed7:	48 98                	cltq   
   11ed9:	48 39 c2             	cmp    %rax,%rdx
   11edc:	0f 92 c0             	setb   %al
   11edf:	0f b6 c0             	movzbl %al,%eax
   11ee2:	89 de                	mov    %ebx,%esi
   11ee4:	89 c7                	mov    %eax,%edi
   11ee6:	e8 1a 4d ff ff       	callq  6c05 <safe_lshift_func_uint8_t_u_s>
   11eeb:	84 c0                	test   %al,%al
   11eed:	0f 84 18 01 00 00    	je     1200b <func_50+0x7b56>
   11ef3:	c7 85 b4 d3 ff ff 00 	movl   $0x0,-0x2c4c(%rbp)
   11efa:	00 00 00 
   11efd:	eb 46                	jmp    11f45 <func_50+0x7a90>
   11eff:	c7 85 b0 d3 ff ff 00 	movl   $0x0,-0x2c50(%rbp)
   11f06:	00 00 00 
   11f09:	eb 2a                	jmp    11f35 <func_50+0x7a80>
   11f0b:	8b 85 b0 d3 ff ff    	mov    -0x2c50(%rbp),%eax
   11f11:	48 63 d0             	movslq %eax,%rdx
   11f14:	8b 85 b4 d3 ff ff    	mov    -0x2c4c(%rbp),%eax
   11f1a:	48 98                	cltq   
   11f1c:	48 01 d0             	add    %rdx,%rax
   11f1f:	48 8d 15 62 b1 00 00 	lea    0xb162(%rip),%rdx        # 1d088 <g_77+0x48>
   11f26:	48 89 94 c5 b0 f7 ff 	mov    %rdx,-0x850(%rbp,%rax,8)
   11f2d:	ff 
   11f2e:	83 85 b0 d3 ff ff 01 	addl   $0x1,-0x2c50(%rbp)
   11f35:	83 bd b0 d3 ff ff 00 	cmpl   $0x0,-0x2c50(%rbp)
   11f3c:	7e cd                	jle    11f0b <func_50+0x7a56>
   11f3e:	83 85 b4 d3 ff ff 01 	addl   $0x1,-0x2c4c(%rbp)
   11f45:	83 bd b4 d3 ff ff 02 	cmpl   $0x2,-0x2c4c(%rbp)
   11f4c:	7e b1                	jle    11eff <func_50+0x7a4a>
   11f4e:	c7 85 b4 d3 ff ff 00 	movl   $0x0,-0x2c4c(%rbp)
   11f55:	00 00 00 
   11f58:	eb 49                	jmp    11fa3 <func_50+0x7aee>
   11f5a:	c7 85 b0 d3 ff ff 00 	movl   $0x0,-0x2c50(%rbp)
   11f61:	00 00 00 
   11f64:	eb 2d                	jmp    11f93 <func_50+0x7ade>
   11f66:	8b 85 b0 d3 ff ff    	mov    -0x2c50(%rbp),%eax
   11f6c:	48 98                	cltq   
   11f6e:	8b 95 b4 d3 ff ff    	mov    -0x2c4c(%rbp),%edx
   11f74:	48 63 d2             	movslq %edx,%rdx
   11f77:	48 01 d2             	add    %rdx,%rdx
   11f7a:	48 01 d0             	add    %rdx,%rax
   11f7d:	48 8d 15 14 b1 00 00 	lea    0xb114(%rip),%rdx        # 1d098 <g_104>
   11f84:	48 89 94 c5 f0 e4 ff 	mov    %rdx,-0x1b10(%rbp,%rax,8)
   11f8b:	ff 
   11f8c:	83 85 b0 d3 ff ff 01 	addl   $0x1,-0x2c50(%rbp)
   11f93:	83 bd b0 d3 ff ff 01 	cmpl   $0x1,-0x2c50(%rbp)
   11f9a:	7e ca                	jle    11f66 <func_50+0x7ab1>
   11f9c:	83 85 b4 d3 ff ff 01 	addl   $0x1,-0x2c4c(%rbp)
   11fa3:	83 bd b4 d3 ff ff 00 	cmpl   $0x0,-0x2c4c(%rbp)
   11faa:	7e ae                	jle    11f5a <func_50+0x7aa5>
   11fac:	48 83 ad c0 d4 ff ff 	subq   $0x1,-0x2b40(%rbp)
   11fb3:	01 
   11fb4:	48 8b 85 b8 d4 ff ff 	mov    -0x2b48(%rbp),%rax
   11fbb:	8b 10                	mov    (%rax),%edx
   11fbd:	66 83 bd 62 d3 ff ff 	cmpw   $0x0,-0x2c9e(%rbp)
   11fc4:	00 
   11fc5:	75 10                	jne    11fd7 <func_50+0x7b22>
   11fc7:	48 8b 85 f8 e4 ff ff 	mov    -0x1b08(%rbp),%rax
   11fce:	48 39 85 28 d5 ff ff 	cmp    %rax,-0x2ad8(%rbp)
   11fd5:	74 07                	je     11fde <func_50+0x7b29>
   11fd7:	b8 01 00 00 00       	mov    $0x1,%eax
   11fdc:	eb 05                	jmp    11fe3 <func_50+0x7b2e>
   11fde:	b8 00 00 00 00       	mov    $0x0,%eax
   11fe3:	09 c2                	or     %eax,%edx
   11fe5:	48 8b 85 b8 d4 ff ff 	mov    -0x2b48(%rbp),%rax
   11fec:	89 10                	mov    %edx,(%rax)
   11fee:	83 85 b8 d3 ff ff 01 	addl   $0x1,-0x2c48(%rbp)
   11ff5:	48 8b 05 dc ca 00 00 	mov    0xcadc(%rip),%rax        # 1ead8 <g_449>
   11ffc:	8b 00                	mov    (%rax),%eax
   11ffe:	85 c0                	test   %eax,%eax
   12000:	0f 84 6b 03 00 00    	je     12371 <func_50+0x7ebc>
   12006:	e9 90 03 00 00       	jmpq   1239b <func_50+0x7ee6>
   1200b:	66 c7 85 64 d3 ff ff 	movw   $0xffff,-0x2c9c(%rbp)
   12012:	ff ff 
   12014:	c7 85 bc d3 ff ff da 	movl   $0x9af635da,-0x2c44(%rbp)
   1201b:	35 f6 9a 
   1201e:	48 c7 05 c7 b0 00 00 	movq   $0x0,0xb0c7(%rip)        # 1d0f0 <g_623>
   12025:	00 00 00 00 
   12029:	e9 32 03 00 00       	jmpq   12360 <func_50+0x7eab>
   1202e:	48 b8 ff b1 b1 ff b1 	movabs $0xb1ffb1b1ffb1b1ff,%rax
   12035:	b1 ff b1 
   12038:	48 89 45 be          	mov    %rax,-0x42(%rbp)
   1203c:	66 c7 45 c6 b1 ff    	movw   $0xffb1,-0x3a(%rbp)
   12042:	c7 85 c0 d3 ff ff f0 	movl   $0x62d347f0,-0x2c40(%rbp)
   12049:	47 d3 62 
   1204c:	48 8d 05 0d d8 00 00 	lea    0xd80d(%rip),%rax        # 1f860 <g_375>
   12053:	48 89 85 00 d5 ff ff 	mov    %rax,-0x2b00(%rbp)
   1205a:	48 8d 05 e1 b0 00 00 	lea    0xb0e1(%rip),%rax        # 1d142 <g_1157>
   12061:	48 89 85 08 d5 ff ff 	mov    %rax,-0x2af8(%rbp)
   12068:	48 8d 05 41 cf 00 00 	lea    0xcf41(%rip),%rax        # 1efb0 <g_1358+0x30>
   1206f:	48 89 85 b0 d4 ff ff 	mov    %rax,-0x2b50(%rbp)
   12076:	48 8d 85 b0 d4 ff ff 	lea    -0x2b50(%rbp),%rax
   1207d:	48 89 85 c8 d4 ff ff 	mov    %rax,-0x2b38(%rbp)
   12084:	48 8d 85 30 f0 ff ff 	lea    -0xfd0(%rbp),%rax
   1208b:	48 05 fc 01 00 00    	add    $0x1fc,%rax
   12091:	48 89 85 d0 d4 ff ff 	mov    %rax,-0x2b30(%rbp)
   12098:	48 8d 05 bd d7 00 00 	lea    0xd7bd(%rip),%rax        # 1f85c <g_320>
   1209f:	48 89 85 d8 d4 ff ff 	mov    %rax,-0x2b28(%rbp)
   120a6:	48 c7 85 e0 d4 ff ff 	movq   $0x0,-0x2b20(%rbp)
   120ad:	00 00 00 00 
   120b1:	48 8d 85 40 d7 ff ff 	lea    -0x28c0(%rbp),%rax
   120b8:	48 89 85 e8 d4 ff ff 	mov    %rax,-0x2b18(%rbp)
   120bf:	48 8d 85 a0 d4 ff ff 	lea    -0x2b60(%rbp),%rax
   120c6:	48 89 85 f0 d4 ff ff 	mov    %rax,-0x2b10(%rbp)
   120cd:	48 8d 85 88 d3 ff ff 	lea    -0x2c78(%rbp),%rax
   120d4:	48 89 85 f8 d4 ff ff 	mov    %rax,-0x2b08(%rbp)
   120db:	48 8d 85 a8 d4 ff ff 	lea    -0x2b58(%rbp),%rax
   120e2:	48 89 85 b0 f7 ff ff 	mov    %rax,-0x850(%rbp)
   120e9:	48 8d 85 a8 d4 ff ff 	lea    -0x2b58(%rbp),%rax
   120f0:	48 89 85 b8 f7 ff ff 	mov    %rax,-0x848(%rbp)
   120f7:	48 8d 85 a8 d4 ff ff 	lea    -0x2b58(%rbp),%rax
   120fe:	48 89 85 c0 f7 ff ff 	mov    %rax,-0x840(%rbp)
   12105:	48 8d 85 a8 d4 ff ff 	lea    -0x2b58(%rbp),%rax
   1210c:	48 89 85 c8 f7 ff ff 	mov    %rax,-0x838(%rbp)
   12113:	48 8d 85 a8 d4 ff ff 	lea    -0x2b58(%rbp),%rax
   1211a:	48 89 85 d0 f7 ff ff 	mov    %rax,-0x830(%rbp)
   12121:	48 8d 85 a8 d4 ff ff 	lea    -0x2b58(%rbp),%rax
   12128:	48 89 85 d8 f7 ff ff 	mov    %rax,-0x828(%rbp)
   1212f:	48 8d 85 a8 d4 ff ff 	lea    -0x2b58(%rbp),%rax
   12136:	48 89 85 e0 f7 ff ff 	mov    %rax,-0x820(%rbp)
   1213d:	48 8d 85 a0 d4 ff ff 	lea    -0x2b60(%rbp),%rax
   12144:	48 89 85 e8 f7 ff ff 	mov    %rax,-0x818(%rbp)
   1214b:	48 8d 85 a0 d4 ff ff 	lea    -0x2b60(%rbp),%rax
   12152:	48 89 85 f0 f7 ff ff 	mov    %rax,-0x810(%rbp)
   12159:	48 8d 85 a0 d4 ff ff 	lea    -0x2b60(%rbp),%rax
   12160:	48 89 85 f8 f7 ff ff 	mov    %rax,-0x808(%rbp)
   12167:	48 8d 85 a0 d4 ff ff 	lea    -0x2b60(%rbp),%rax
   1216e:	48 89 85 00 f8 ff ff 	mov    %rax,-0x800(%rbp)
   12175:	48 8d 85 a0 d4 ff ff 	lea    -0x2b60(%rbp),%rax
   1217c:	48 89 85 08 f8 ff ff 	mov    %rax,-0x7f8(%rbp)
   12183:	48 8d 85 a0 d4 ff ff 	lea    -0x2b60(%rbp),%rax
   1218a:	48 89 85 10 f8 ff ff 	mov    %rax,-0x7f0(%rbp)
   12191:	48 8d 85 a0 d4 ff ff 	lea    -0x2b60(%rbp),%rax
   12198:	48 89 85 18 f8 ff ff 	mov    %rax,-0x7e8(%rbp)
   1219f:	48 8d 85 a8 d4 ff ff 	lea    -0x2b58(%rbp),%rax
   121a6:	48 89 85 20 f8 ff ff 	mov    %rax,-0x7e0(%rbp)
   121ad:	48 8d 85 a8 d4 ff ff 	lea    -0x2b58(%rbp),%rax
   121b4:	48 89 85 28 f8 ff ff 	mov    %rax,-0x7d8(%rbp)
   121bb:	48 8d 85 a8 d4 ff ff 	lea    -0x2b58(%rbp),%rax
   121c2:	48 89 85 30 f8 ff ff 	mov    %rax,-0x7d0(%rbp)
   121c9:	48 8d 85 a8 d4 ff ff 	lea    -0x2b58(%rbp),%rax
   121d0:	48 89 85 38 f8 ff ff 	mov    %rax,-0x7c8(%rbp)
   121d7:	48 8d 85 a8 d4 ff ff 	lea    -0x2b58(%rbp),%rax
   121de:	48 89 85 40 f8 ff ff 	mov    %rax,-0x7c0(%rbp)
   121e5:	48 8d 85 a8 d4 ff ff 	lea    -0x2b58(%rbp),%rax
   121ec:	48 89 85 48 f8 ff ff 	mov    %rax,-0x7b8(%rbp)
   121f3:	48 8d 85 a8 d4 ff ff 	lea    -0x2b58(%rbp),%rax
   121fa:	48 89 85 50 f8 ff ff 	mov    %rax,-0x7b0(%rbp)
   12201:	0f b7 9d 62 d3 ff ff 	movzwl -0x2c9e(%rbp),%ebx
   12208:	0f b6 45 c7          	movzbl -0x39(%rbp),%eax
   1220c:	44 0f b6 e0          	movzbl %al,%r12d
   12210:	48 8b 05 19 c8 00 00 	mov    0xc819(%rip),%rax        # 1ea30 <g_351>
   12217:	48 8b 00             	mov    (%rax),%rax
   1221a:	8b 95 c0 d3 ff ff    	mov    -0x2c40(%rbp),%edx
   12220:	66 89 10             	mov    %dx,(%rax)
   12223:	0f b7 00             	movzwl (%rax),%eax
   12226:	66 85 c0             	test   %ax,%ax
   12229:	75 4d                	jne    12278 <func_50+0x7dc3>
   1222b:	48 8b 85 70 d4 ff ff 	mov    -0x2b90(%rbp),%rax
   12232:	8b 00                	mov    (%rax),%eax
   12234:	89 c6                	mov    %eax,%esi
   12236:	bf 01 00 00 00       	mov    $0x1,%edi
   1223b:	e8 e5 4c ff ff       	callq  6f25 <safe_div_func_uint32_t_u_u>
   12240:	89 c2                	mov    %eax,%edx
   12242:	48 8b 85 28 d5 ff ff 	mov    -0x2ad8(%rbp),%rax
   12249:	48 89 10             	mov    %rdx,(%rax)
   1224c:	48 8b 85 28 d5 ff ff 	mov    -0x2ad8(%rbp),%rax
   12253:	4c 8b 28             	mov    (%rax),%r13
   12256:	0f b7 95 64 d3 ff ff 	movzwl -0x2c9c(%rbp),%edx
   1225d:	8b 05 41 ae 00 00    	mov    0xae41(%rip),%eax        # 1d0a4 <g_109>
   12263:	09 d0                	or     %edx,%eax
   12265:	be f0 43 93 1d       	mov    $0x1d9343f0,%esi
   1226a:	89 c7                	mov    %eax,%edi
   1226c:	e8 5f 4c ff ff       	callq  6ed0 <safe_sub_func_uint32_t_u_u>
   12271:	89 c0                	mov    %eax,%eax
   12273:	49 39 c5             	cmp    %rax,%r13
   12276:	74 07                	je     1227f <func_50+0x7dca>
   12278:	b8 01 00 00 00       	mov    $0x1,%eax
   1227d:	eb 05                	jmp    12284 <func_50+0x7dcf>
   1227f:	b8 00 00 00 00       	mov    $0x0,%eax
   12284:	f7 d0                	not    %eax
   12286:	22 85 54 d3 ff ff    	and    -0x2cac(%rbp),%al
   1228c:	0f b6 c0             	movzbl %al,%eax
   1228f:	be 67 00 00 00       	mov    $0x67,%esi
   12294:	89 c7                	mov    %eax,%edi
   12296:	e8 f8 48 ff ff       	callq  6b93 <safe_mul_func_uint8_t_u_u>
   1229b:	48 8b 85 00 d5 ff ff 	mov    -0x2b00(%rbp),%rax
   122a2:	48 c7 00 00 00 00 00 	movq   $0x0,(%rax)
   122a9:	48 8b 85 00 d5 ff ff 	mov    -0x2b00(%rbp),%rax
   122b0:	48 8b 00             	mov    (%rax),%rax
   122b3:	49 39 c4             	cmp    %rax,%r12
   122b6:	0f 94 c0             	sete   %al
   122b9:	0f b6 c0             	movzbl %al,%eax
   122bc:	48 89 de             	mov    %rbx,%rsi
   122bf:	48 89 c7             	mov    %rax,%rdi
   122c2:	e8 30 47 ff ff       	callq  69f7 <safe_div_func_int64_t_s_s>
   122c7:	48 3d b9 00 00 00    	cmp    $0xb9,%rax
   122cd:	0f 95 c0             	setne  %al
   122d0:	0f b6 d0             	movzbl %al,%edx
   122d3:	48 8b 85 50 d5 ff ff 	mov    -0x2ab0(%rbp),%rax
   122da:	66 89 10             	mov    %dx,(%rax)
   122dd:	48 8b 85 50 d5 ff ff 	mov    -0x2ab0(%rbp),%rax
   122e4:	0f b7 10             	movzwl (%rax),%edx
   122e7:	48 8b 85 08 d5 ff ff 	mov    -0x2af8(%rbp),%rax
   122ee:	66 89 10             	mov    %dx,(%rax)
   122f1:	48 8b 85 08 d5 ff ff 	mov    -0x2af8(%rbp),%rax
   122f8:	0f b7 00             	movzwl (%rax),%eax
   122fb:	0f b7 d0             	movzwl %ax,%edx
   122fe:	48 8b 85 70 d4 ff ff 	mov    -0x2b90(%rbp),%rax
   12305:	8b 00                	mov    (%rax),%eax
   12307:	39 c2                	cmp    %eax,%edx
   12309:	0f 95 c2             	setne  %dl
   1230c:	48 8b 85 70 d4 ff ff 	mov    -0x2b90(%rbp),%rax
   12313:	0f b6 d2             	movzbl %dl,%edx
   12316:	89 10                	mov    %edx,(%rax)
   12318:	48 8b 85 70 d4 ff ff 	mov    -0x2b90(%rbp),%rax
   1231f:	c7 00 ff ff ff ff    	movl   $0xffffffff,(%rax)
   12325:	48 8b 85 c8 d4 ff ff 	mov    -0x2b38(%rbp),%rax
   1232c:	48 8d 15 1d cd 00 00 	lea    0xcd1d(%rip),%rdx        # 1f050 <g_1358+0xd0>
   12333:	48 89 10             	mov    %rdx,(%rax)
   12336:	8b 05 2c ae 00 00    	mov    0xae2c(%rip),%eax        # 1d168 <g_1904>
   1233c:	83 c0 01             	add    $0x1,%eax
   1233f:	89 05 23 ae 00 00    	mov    %eax,0xae23(%rip)        # 1d168 <g_1904>
   12345:	48 8b 05 a4 ad 00 00 	mov    0xada4(%rip),%rax        # 1d0f0 <g_623>
   1234c:	be 01 00 00 00       	mov    $0x1,%esi
   12351:	48 89 c7             	mov    %rax,%rdi
   12354:	e8 f2 4c ff ff       	callq  704b <safe_sub_func_uint64_t_u_u>
   12359:	48 89 05 90 ad 00 00 	mov    %rax,0xad90(%rip)        # 1d0f0 <g_623>
   12360:	48 8b 05 89 ad 00 00 	mov    0xad89(%rip),%rax        # 1d0f0 <g_623>
   12367:	48 83 f8 e2          	cmp    $0xffffffffffffffe2,%rax
   1236b:	0f 8c bd fc ff ff    	jl     1202e <func_50+0x7b79>
   12371:	8b 05 a9 ad 00 00    	mov    0xada9(%rip),%eax        # 1d120 <g_929>
   12377:	48 98                	cltq   
   12379:	be 01 00 00 00       	mov    $0x1,%esi
   1237e:	48 89 c7             	mov    %rax,%rdi
   12381:	e8 22 45 ff ff       	callq  68a8 <safe_sub_func_int64_t_s_s>
   12386:	89 05 94 ad 00 00    	mov    %eax,0xad94(%rip)        # 1d120 <g_929>
   1238c:	8b 05 8e ad 00 00    	mov    0xad8e(%rip),%eax        # 1d120 <g_929>
   12392:	83 f8 f7             	cmp    $0xfffffff7,%eax
   12395:	0f 85 e8 f9 ff ff    	jne    11d83 <func_50+0x78ce>
   1239b:	0f b7 05 ee ac 00 00 	movzwl 0xacee(%rip),%eax        # 1d090 <g_97>
   123a2:	48 8b 5d c8          	mov    -0x38(%rbp),%rbx
   123a6:	64 48 33 1c 25 28 00 	xor    %fs:0x28,%rbx
   123ad:	00 00 
   123af:	74 05                	je     123b6 <func_50+0x7f01>
   123b1:	e8 ba 3c ff ff       	callq  6070 <__stack_chk_fail@plt>
   123b6:	48 81 c4 98 2c 00 00 	add    $0x2c98,%rsp
   123bd:	5b                   	pop    %rbx
   123be:	41 5c                	pop    %r12
   123c0:	41 5d                	pop    %r13
   123c2:	41 5e                	pop    %r14
   123c4:	41 5f                	pop    %r15
   123c6:	5d                   	pop    %rbp
   123c7:	c3                   	retq   

00000000000123c8 <func_60>:
   123c8:	f3 0f 1e fa          	endbr64 
   123cc:	55                   	push   %rbp
   123cd:	48 89 e5             	mov    %rsp,%rbp
   123d0:	41 57                	push   %r15
   123d2:	41 56                	push   %r14
   123d4:	41 55                	push   %r13
   123d6:	41 54                	push   %r12
   123d8:	53                   	push   %rbx
   123d9:	48 81 ec 28 09 00 00 	sub    $0x928,%rsp
   123e0:	89 bd cc f6 ff ff    	mov    %edi,-0x934(%rbp)
   123e6:	89 b5 c8 f6 ff ff    	mov    %esi,-0x938(%rbp)
   123ec:	89 95 c4 f6 ff ff    	mov    %edx,-0x93c(%rbp)
   123f2:	48 89 8d b8 f6 ff ff 	mov    %rcx,-0x948(%rbp)
   123f9:	64 48 8b 04 25 28 00 	mov    %fs:0x28,%rax
   12400:	00 00 
   12402:	48 89 45 c8          	mov    %rax,-0x38(%rbp)
   12406:	31 c0                	xor    %eax,%eax
   12408:	c6 85 d7 f6 ff ff f6 	movb   $0xf6,-0x929(%rbp)
   1240f:	66 c7 85 d8 f6 ff ff 	movw   $0xffff,-0x928(%rbp)
   12416:	ff ff 
   12418:	c7 85 10 f8 ff ff fe 	movl   $0xfffffffe,-0x7f0(%rbp)
   1241f:	ff ff ff 
   12422:	c7 85 14 f8 ff ff fe 	movl   $0xfffffffe,-0x7ec(%rbp)
   12429:	ff ff ff 
   1242c:	c7 85 18 f8 ff ff fe 	movl   $0xfffffffe,-0x7e8(%rbp)
   12433:	ff ff ff 
   12436:	c7 85 1c f8 ff ff fe 	movl   $0xfffffffe,-0x7e4(%rbp)
   1243d:	ff ff ff 
   12440:	c7 85 20 f8 ff ff fe 	movl   $0xfffffffe,-0x7e0(%rbp)
   12447:	ff ff ff 
   1244a:	c7 85 24 f8 ff ff fe 	movl   $0xfffffffe,-0x7dc(%rbp)
   12451:	ff ff ff 
   12454:	c7 85 28 f8 ff ff fe 	movl   $0xfffffffe,-0x7d8(%rbp)
   1245b:	ff ff ff 
   1245e:	c7 85 2c f8 ff ff fe 	movl   $0xfffffffe,-0x7d4(%rbp)
   12465:	ff ff ff 
   12468:	c7 85 dc f6 ff ff 76 	movl   $0x3b15b976,-0x924(%rbp)
   1246f:	b9 15 3b 
   12472:	48 c7 85 30 f7 ff ff 	movq   $0x0,-0x8d0(%rbp)
   12479:	00 00 00 00 
   1247d:	48 8d 05 dc c8 00 00 	lea    0xc8dc(%rip),%rax        # 1ed60 <g_859>
   12484:	48 89 85 00 f7 ff ff 	mov    %rax,-0x900(%rbp)
   1248b:	48 8d 85 00 f7 ff ff 	lea    -0x900(%rbp),%rax
   12492:	48 89 85 38 f7 ff ff 	mov    %rax,-0x8c8(%rbp)
   12499:	c7 85 f8 f6 ff ff 03 	movl   $0x3,-0x908(%rbp)
   124a0:	00 00 00 
   124a3:	48 8d 05 36 ac 00 00 	lea    0xac36(%rip),%rax        # 1d0e0 <g_555>
   124aa:	48 89 85 08 f7 ff ff 	mov    %rax,-0x8f8(%rbp)
   124b1:	48 8d 85 08 f7 ff ff 	lea    -0x8f8(%rbp),%rax
   124b8:	48 89 85 40 f7 ff ff 	mov    %rax,-0x8c0(%rbp)
   124bf:	48 8d 05 d2 ab 00 00 	lea    0xabd2(%rip),%rax        # 1d098 <g_104>
   124c6:	48 89 85 48 f7 ff ff 	mov    %rax,-0x8b8(%rbp)
   124cd:	48 8d 05 1c ac 00 00 	lea    0xac1c(%rip),%rax        # 1d0f0 <g_623>
   124d4:	48 89 85 50 f7 ff ff 	mov    %rax,-0x8b0(%rbp)
   124db:	48 8d 05 fe ab 00 00 	lea    0xabfe(%rip),%rax        # 1d0e0 <g_555>
   124e2:	48 89 85 58 f7 ff ff 	mov    %rax,-0x8a8(%rbp)
   124e9:	48 8d 05 b4 ab 00 00 	lea    0xabb4(%rip),%rax        # 1d0a4 <g_109>
   124f0:	48 89 85 60 f7 ff ff 	mov    %rax,-0x8a0(%rbp)
   124f7:	48 8d 05 5e d3 00 00 	lea    0xd35e(%rip),%rax        # 1f85c <g_320>
   124fe:	48 89 85 68 f7 ff ff 	mov    %rax,-0x898(%rbp)
   12505:	48 8d 05 14 ac 00 00 	lea    0xac14(%rip),%rax        # 1d120 <g_929>
   1250c:	48 89 85 70 f7 ff ff 	mov    %rax,-0x890(%rbp)
   12513:	48 c7 85 78 f7 ff ff 	movq   $0x0,-0x888(%rbp)
   1251a:	00 00 00 00 
   1251e:	48 c7 85 80 f7 ff ff 	movq   $0x0,-0x880(%rbp)
   12525:	00 00 00 00 
   12529:	c7 85 30 f8 ff ff fc 	movl   $0xfffffffc,-0x7d0(%rbp)
   12530:	ff ff ff 
   12533:	c7 85 34 f8 ff ff ff 	movl   $0xffffffff,-0x7cc(%rbp)
   1253a:	ff ff ff 
   1253d:	c7 85 38 f8 ff ff 01 	movl   $0x1,-0x7c8(%rbp)
   12544:	00 00 00 
   12547:	c7 85 3c f8 ff ff f0 	movl   $0x6e676ff0,-0x7c4(%rbp)
   1254e:	6f 67 6e 
   12551:	c7 85 40 f8 ff ff ff 	movl   $0xffffffff,-0x7c0(%rbp)
   12558:	ff ff ff 
   1255b:	c7 85 44 f8 ff ff f0 	movl   $0x6e676ff0,-0x7bc(%rbp)
   12562:	6f 67 6e 
   12565:	c7 85 48 f8 ff ff 01 	movl   $0x1,-0x7b8(%rbp)
   1256c:	00 00 00 
   1256f:	c7 85 4c f8 ff ff ff 	movl   $0xffffffff,-0x7b4(%rbp)
   12576:	ff ff ff 
   12579:	c7 85 50 f8 ff ff fc 	movl   $0xfffffffc,-0x7b0(%rbp)
   12580:	ff ff ff 
   12583:	c7 85 54 f8 ff ff fc 	movl   $0xfffffffc,-0x7ac(%rbp)
   1258a:	ff ff ff 
   1258d:	c7 85 58 f8 ff ff fc 	movl   $0xfffffffc,-0x7a8(%rbp)
   12594:	ff ff ff 
   12597:	c7 85 5c f8 ff ff ff 	movl   $0xffffffff,-0x7a4(%rbp)
   1259e:	ff ff ff 
   125a1:	c7 85 60 f8 ff ff 01 	movl   $0x1,-0x7a0(%rbp)
   125a8:	00 00 00 
   125ab:	c7 85 64 f8 ff ff f0 	movl   $0x6e676ff0,-0x79c(%rbp)
   125b2:	6f 67 6e 
   125b5:	c7 85 68 f8 ff ff ff 	movl   $0xffffffff,-0x798(%rbp)
   125bc:	ff ff ff 
   125bf:	c7 85 6c f8 ff ff f0 	movl   $0x6e676ff0,-0x794(%rbp)
   125c6:	6f 67 6e 
   125c9:	c7 85 70 f8 ff ff 01 	movl   $0x1,-0x790(%rbp)
   125d0:	00 00 00 
   125d3:	c7 85 74 f8 ff ff ff 	movl   $0xffffffff,-0x78c(%rbp)
   125da:	ff ff ff 
   125dd:	66 c7 05 f2 aa 00 00 	movw   $0x0,0xaaf2(%rip)        # 1d0d8 <g_421>
   125e4:	00 00 
   125e6:	e9 f2 11 00 00       	jmpq   137dd <func_60+0x1415>
   125eb:	48 8d 05 a6 aa 00 00 	lea    0xaaa6(%rip),%rax        # 1d098 <g_104>
   125f2:	48 89 85 10 f7 ff ff 	mov    %rax,-0x8f0(%rbp)
   125f9:	48 8d 85 10 f7 ff ff 	lea    -0x8f0(%rbp),%rax
   12600:	48 89 85 88 f7 ff ff 	mov    %rax,-0x878(%rbp)
   12607:	48 8d 05 52 c6 00 00 	lea    0xc652(%rip),%rax        # 1ec60 <g_554>
   1260e:	48 89 85 18 f7 ff ff 	mov    %rax,-0x8e8(%rbp)
   12615:	48 8d 85 18 f7 ff ff 	lea    -0x8e8(%rbp),%rax
   1261c:	48 89 85 90 f7 ff ff 	mov    %rax,-0x870(%rbp)
   12623:	48 8d 05 a6 c4 00 00 	lea    0xc4a6(%rip),%rax        # 1ead0 <g_435>
   1262a:	48 89 85 98 f7 ff ff 	mov    %rax,-0x868(%rbp)
   12631:	c7 85 fc f6 ff ff ab 	movl   $0xd0cf9dab,-0x904(%rbp)
   12638:	9d cf d0 
   1263b:	c7 85 e0 f6 ff ff 30 	movl   $0xb233d330,-0x920(%rbp)
   12642:	d3 33 b2 
   12645:	48 8d 05 c4 c7 00 00 	lea    0xc7c4(%rip),%rax        # 1ee10 <g_1096>
   1264c:	48 89 85 20 f7 ff ff 	mov    %rax,-0x8e0(%rbp)
   12653:	48 8d 85 20 f7 ff ff 	lea    -0x8e0(%rbp),%rax
   1265a:	48 89 85 a0 f7 ff ff 	mov    %rax,-0x860(%rbp)
   12661:	48 8d 05 d8 aa 00 00 	lea    0xaad8(%rip),%rax        # 1d140 <g_1109>
   12668:	48 89 85 a8 f7 ff ff 	mov    %rax,-0x858(%rbp)
   1266f:	c7 85 e8 f6 ff ff 00 	movl   $0x0,-0x918(%rbp)
   12676:	00 00 00 
   12679:	eb 1a                	jmp    12695 <func_60+0x2cd>
   1267b:	8b 85 e8 f6 ff ff    	mov    -0x918(%rbp),%eax
   12681:	48 98                	cltq   
   12683:	c7 84 85 04 f8 ff ff 	movl   $0x4,-0x7fc(%rbp,%rax,4)
   1268a:	04 00 00 00 
   1268e:	83 85 e8 f6 ff ff 01 	addl   $0x1,-0x918(%rbp)
   12695:	83 bd e8 f6 ff ff 02 	cmpl   $0x2,-0x918(%rbp)
   1269c:	7e dd                	jle    1267b <func_60+0x2b3>
   1269e:	48 8b 85 88 f7 ff ff 	mov    -0x878(%rbp),%rax
   126a5:	48 c7 00 00 00 00 00 	movq   $0x0,(%rax)
   126ac:	48 83 bd 90 f7 ff ff 	cmpq   $0x0,-0x870(%rbp)
   126b3:	00 
   126b4:	0f 94 c0             	sete   %al
   126b7:	0f b6 c0             	movzbl %al,%eax
   126ba:	48 89 c6             	mov    %rax,%rsi
   126bd:	bf 04 00 00 00       	mov    $0x4,%edi
   126c2:	e8 7a 41 ff ff       	callq  6841 <safe_add_func_int64_t_s_s>
   126c7:	48 85 c0             	test   %rax,%rax
   126ca:	75 23                	jne    126ef <func_60+0x327>
   126cc:	8b 05 76 d1 00 00    	mov    0xd176(%rip),%eax        # 1f848 <g_2>
   126d2:	48 63 d0             	movslq %eax,%rdx
   126d5:	8b 85 04 f8 ff ff    	mov    -0x7fc(%rbp),%eax
   126db:	48 98                	cltq   
   126dd:	48 89 d6             	mov    %rdx,%rsi
   126e0:	48 89 c7             	mov    %rax,%rdi
   126e3:	e8 cc 42 ff ff       	callq  69b4 <safe_mod_func_int64_t_s_s>
   126e8:	b8 00 00 00 00       	mov    $0x0,%eax
   126ed:	eb 05                	jmp    126f4 <func_60+0x32c>
   126ef:	b8 01 00 00 00       	mov    $0x1,%eax
   126f4:	39 85 cc f6 ff ff    	cmp    %eax,-0x934(%rbp)
   126fa:	0f 94 c0             	sete   %al
   126fd:	0f b6 c0             	movzbl %al,%eax
   12700:	be 0b 00 00 00       	mov    $0xb,%esi
   12705:	89 c7                	mov    %eax,%edi
   12707:	e8 3c 47 ff ff       	callq  6e48 <safe_rshift_func_uint16_t_u_s>
   1270c:	66 3d 29 02          	cmp    $0x229,%ax
   12710:	0f 94 c0             	sete   %al
   12713:	0f b6 c0             	movzbl %al,%eax
   12716:	be 31 c7 00 00       	mov    $0xc731,%esi
   1271b:	89 c7                	mov    %eax,%edi
   1271d:	e8 fd 45 ff ff       	callq  6d1f <safe_sub_func_uint16_t_u_u>
   12722:	0f b6 c0             	movzbl %al,%eax
   12725:	be fd 00 00 00       	mov    $0xfd,%esi
   1272a:	89 c7                	mov    %eax,%edi
   1272c:	e8 47 44 ff ff       	callq  6b78 <safe_sub_func_uint8_t_u_u>
   12731:	89 c2                	mov    %eax,%edx
   12733:	48 8b 05 9e c3 00 00 	mov    0xc39e(%rip),%rax        # 1ead8 <g_449>
   1273a:	0f b6 d2             	movzbl %dl,%edx
   1273d:	89 10                	mov    %edx,(%rax)
   1273f:	c7 05 6f a9 00 00 01 	movl   $0x1,0xa96f(%rip)        # 1d0b8 <g_257>
   12746:	00 00 00 
   12749:	e9 70 10 00 00       	jmpq   137be <func_60+0x13f6>
   1274e:	66 c7 85 da f6 ff ff 	movw   $0x2661,-0x926(%rbp)
   12755:	61 26 
   12757:	48 8d 05 9a c6 00 00 	lea    0xc69a(%rip),%rax        # 1edf8 <g_1029+0x38>
   1275e:	48 89 85 b0 f7 ff ff 	mov    %rax,-0x850(%rbp)
   12765:	c7 85 e4 f6 ff ff ff 	movl   $0xffffffff,-0x91c(%rbp)
   1276c:	ff ff ff 
   1276f:	c7 85 ec f6 ff ff 4c 	movl   $0xfbc94c4c,-0x914(%rbp)
   12776:	4c c9 fb 
   12779:	48 8d 05 50 a9 00 00 	lea    0xa950(%rip),%rax        # 1d0d0 <g_356>
   12780:	48 89 85 b8 f7 ff ff 	mov    %rax,-0x848(%rbp)
   12787:	48 8d 85 e0 f6 ff ff 	lea    -0x920(%rbp),%rax
   1278e:	48 89 85 c0 f7 ff ff 	mov    %rax,-0x840(%rbp)
   12795:	48 8d 05 84 a9 00 00 	lea    0xa984(%rip),%rax        # 1d120 <g_929>
   1279c:	48 89 85 c8 f7 ff ff 	mov    %rax,-0x838(%rbp)
   127a3:	48 8d 05 76 a9 00 00 	lea    0xa976(%rip),%rax        # 1d120 <g_929>
   127aa:	48 89 85 d0 f7 ff ff 	mov    %rax,-0x830(%rbp)
   127b1:	48 c7 85 80 f9 ff ff 	movq   $0x0,-0x680(%rbp)
   127b8:	00 00 00 00 
   127bc:	48 c7 85 88 f9 ff ff 	movq   $0x0,-0x678(%rbp)
   127c3:	00 00 00 00 
   127c7:	48 c7 85 90 f9 ff ff 	movq   $0x0,-0x670(%rbp)
   127ce:	00 00 00 00 
   127d2:	48 c7 85 98 f9 ff ff 	movq   $0x0,-0x668(%rbp)
   127d9:	00 00 00 00 
   127dd:	48 8d 85 10 f8 ff ff 	lea    -0x7f0(%rbp),%rax
   127e4:	48 83 c0 14          	add    $0x14,%rax
   127e8:	48 89 85 a0 f9 ff ff 	mov    %rax,-0x660(%rbp)
   127ef:	48 8d 85 10 f8 ff ff 	lea    -0x7f0(%rbp),%rax
   127f6:	48 83 c0 14          	add    $0x14,%rax
   127fa:	48 89 85 a8 f9 ff ff 	mov    %rax,-0x658(%rbp)
   12801:	48 c7 85 b0 f9 ff ff 	movq   $0x0,-0x650(%rbp)
   12808:	00 00 00 00 
   1280c:	48 c7 85 b8 f9 ff ff 	movq   $0x0,-0x648(%rbp)
   12813:	00 00 00 00 
   12817:	48 c7 85 c0 f9 ff ff 	movq   $0x0,-0x640(%rbp)
   1281e:	00 00 00 00 
   12822:	48 c7 85 c8 f9 ff ff 	movq   $0x0,-0x638(%rbp)
   12829:	00 00 00 00 
   1282d:	48 8d 05 14 d0 00 00 	lea    0xd014(%rip),%rax        # 1f848 <g_2>
   12834:	48 89 85 d0 f9 ff ff 	mov    %rax,-0x630(%rbp)
   1283b:	48 8d 85 e0 f6 ff ff 	lea    -0x920(%rbp),%rax
   12842:	48 89 85 d8 f9 ff ff 	mov    %rax,-0x628(%rbp)
   12849:	48 8d 85 dc f6 ff ff 	lea    -0x924(%rbp),%rax
   12850:	48 89 85 e0 f9 ff ff 	mov    %rax,-0x620(%rbp)
   12857:	48 8d 85 fc f7 ff ff 	lea    -0x804(%rbp),%rax
   1285e:	48 83 c0 04          	add    $0x4,%rax
   12862:	48 89 85 e8 f9 ff ff 	mov    %rax,-0x618(%rbp)
   12869:	48 8d 85 e0 f6 ff ff 	lea    -0x920(%rbp),%rax
   12870:	48 89 85 f0 f9 ff ff 	mov    %rax,-0x610(%rbp)
   12877:	48 c7 85 f8 f9 ff ff 	movq   $0x0,-0x608(%rbp)
   1287e:	00 00 00 00 
   12882:	48 8d 05 bf cf 00 00 	lea    0xcfbf(%rip),%rax        # 1f848 <g_2>
   12889:	48 89 85 00 fa ff ff 	mov    %rax,-0x600(%rbp)
   12890:	48 8d 05 c9 a7 00 00 	lea    0xa7c9(%rip),%rax        # 1d060 <g_77+0x20>
   12897:	48 89 85 08 fa ff ff 	mov    %rax,-0x5f8(%rbp)
   1289e:	48 8d 85 10 f8 ff ff 	lea    -0x7f0(%rbp),%rax
   128a5:	48 83 c0 14          	add    $0x14,%rax
   128a9:	48 89 85 10 fa ff ff 	mov    %rax,-0x5f0(%rbp)
   128b0:	48 8d 05 01 a8 00 00 	lea    0xa801(%rip),%rax        # 1d0b8 <g_257>
   128b7:	48 89 85 18 fa ff ff 	mov    %rax,-0x5e8(%rbp)
   128be:	48 8d 05 83 cf 00 00 	lea    0xcf83(%rip),%rax        # 1f848 <g_2>
   128c5:	48 89 85 20 fa ff ff 	mov    %rax,-0x5e0(%rbp)
   128cc:	48 8d 05 e5 a7 00 00 	lea    0xa7e5(%rip),%rax        # 1d0b8 <g_257>
   128d3:	48 89 85 28 fa ff ff 	mov    %rax,-0x5d8(%rbp)
   128da:	48 8d 85 10 f8 ff ff 	lea    -0x7f0(%rbp),%rax
   128e1:	48 83 c0 14          	add    $0x14,%rax
   128e5:	48 89 85 30 fa ff ff 	mov    %rax,-0x5d0(%rbp)
   128ec:	48 8d 85 e0 f6 ff ff 	lea    -0x920(%rbp),%rax
   128f3:	48 89 85 38 fa ff ff 	mov    %rax,-0x5c8(%rbp)
   128fa:	48 8d 85 e0 f6 ff ff 	lea    -0x920(%rbp),%rax
   12901:	48 89 85 40 fa ff ff 	mov    %rax,-0x5c0(%rbp)
   12908:	48 c7 85 48 fa ff ff 	movq   $0x0,-0x5b8(%rbp)
   1290f:	00 00 00 00 
   12913:	48 8d 05 26 a7 00 00 	lea    0xa726(%rip),%rax        # 1d040 <g_77>
   1291a:	48 89 85 50 fa ff ff 	mov    %rax,-0x5b0(%rbp)
   12921:	48 c7 85 58 fa ff ff 	movq   $0x0,-0x5a8(%rbp)
   12928:	00 00 00 00 
   1292c:	48 c7 85 60 fa ff ff 	movq   $0x0,-0x5a0(%rbp)
   12933:	00 00 00 00 
   12937:	48 c7 85 68 fa ff ff 	movq   $0x0,-0x598(%rbp)
   1293e:	00 00 00 00 
   12942:	48 8d 85 e0 f6 ff ff 	lea    -0x920(%rbp),%rax
   12949:	48 89 85 70 fa ff ff 	mov    %rax,-0x590(%rbp)
   12950:	48 8d 05 f1 ce 00 00 	lea    0xcef1(%rip),%rax        # 1f848 <g_2>
   12957:	48 89 85 78 fa ff ff 	mov    %rax,-0x588(%rbp)
   1295e:	48 8d 05 fb a6 00 00 	lea    0xa6fb(%rip),%rax        # 1d060 <g_77+0x20>
   12965:	48 89 85 80 fa ff ff 	mov    %rax,-0x580(%rbp)
   1296c:	48 8d 85 10 f8 ff ff 	lea    -0x7f0(%rbp),%rax
   12973:	48 83 c0 1c          	add    $0x1c,%rax
   12977:	48 89 85 88 fa ff ff 	mov    %rax,-0x578(%rbp)
   1297e:	48 8d 85 10 f8 ff ff 	lea    -0x7f0(%rbp),%rax
   12985:	48 83 c0 14          	add    $0x14,%rax
   12989:	48 89 85 90 fa ff ff 	mov    %rax,-0x570(%rbp)
   12990:	48 8d 85 10 f8 ff ff 	lea    -0x7f0(%rbp),%rax
   12997:	48 83 c0 14          	add    $0x14,%rax
   1299b:	48 89 85 98 fa ff ff 	mov    %rax,-0x568(%rbp)
   129a2:	48 c7 85 a0 fa ff ff 	movq   $0x0,-0x560(%rbp)
   129a9:	00 00 00 00 
   129ad:	48 8d 85 10 f8 ff ff 	lea    -0x7f0(%rbp),%rax
   129b4:	48 83 c0 14          	add    $0x14,%rax
   129b8:	48 89 85 a8 fa ff ff 	mov    %rax,-0x558(%rbp)
   129bf:	48 8d 85 dc f6 ff ff 	lea    -0x924(%rbp),%rax
   129c6:	48 89 85 b0 fa ff ff 	mov    %rax,-0x550(%rbp)
   129cd:	48 c7 85 b8 fa ff ff 	movq   $0x0,-0x548(%rbp)
   129d4:	00 00 00 00 
   129d8:	48 8d 85 10 f8 ff ff 	lea    -0x7f0(%rbp),%rax
   129df:	48 83 c0 14          	add    $0x14,%rax
   129e3:	48 89 85 c0 fa ff ff 	mov    %rax,-0x540(%rbp)
   129ea:	48 8d 85 e4 f6 ff ff 	lea    -0x91c(%rbp),%rax
   129f1:	48 89 85 c8 fa ff ff 	mov    %rax,-0x538(%rbp)
   129f8:	48 8d 05 49 ce 00 00 	lea    0xce49(%rip),%rax        # 1f848 <g_2>
   129ff:	48 89 85 d0 fa ff ff 	mov    %rax,-0x530(%rbp)
   12a06:	48 8d 85 fc f7 ff ff 	lea    -0x804(%rbp),%rax
   12a0d:	48 83 c0 04          	add    $0x4,%rax
   12a11:	48 89 85 d8 fa ff ff 	mov    %rax,-0x528(%rbp)
   12a18:	48 8d 05 3d ce 00 00 	lea    0xce3d(%rip),%rax        # 1f85c <g_320>
   12a1f:	48 89 85 e0 fa ff ff 	mov    %rax,-0x520(%rbp)
   12a26:	48 c7 85 e8 fa ff ff 	movq   $0x0,-0x518(%rbp)
   12a2d:	00 00 00 00 
   12a31:	48 8d 05 24 ce 00 00 	lea    0xce24(%rip),%rax        # 1f85c <g_320>
   12a38:	48 89 85 f0 fa ff ff 	mov    %rax,-0x510(%rbp)
   12a3f:	48 8d 85 fc f7 ff ff 	lea    -0x804(%rbp),%rax
   12a46:	48 83 c0 04          	add    $0x4,%rax
   12a4a:	48 89 85 f8 fa ff ff 	mov    %rax,-0x508(%rbp)
   12a51:	48 8d 05 f0 cd 00 00 	lea    0xcdf0(%rip),%rax        # 1f848 <g_2>
   12a58:	48 89 85 00 fb ff ff 	mov    %rax,-0x500(%rbp)
   12a5f:	48 8d 85 e4 f6 ff ff 	lea    -0x91c(%rbp),%rax
   12a66:	48 89 85 08 fb ff ff 	mov    %rax,-0x4f8(%rbp)
   12a6d:	48 c7 85 10 fb ff ff 	movq   $0x0,-0x4f0(%rbp)
   12a74:	00 00 00 00 
   12a78:	48 8d 85 10 f8 ff ff 	lea    -0x7f0(%rbp),%rax
   12a7f:	48 83 c0 14          	add    $0x14,%rax
   12a83:	48 89 85 18 fb ff ff 	mov    %rax,-0x4e8(%rbp)
   12a8a:	48 8d 85 dc f6 ff ff 	lea    -0x924(%rbp),%rax
   12a91:	48 89 85 20 fb ff ff 	mov    %rax,-0x4e0(%rbp)
   12a98:	48 8d 05 05 a6 00 00 	lea    0xa605(%rip),%rax        # 1d0a4 <g_109>
   12a9f:	48 89 85 28 fb ff ff 	mov    %rax,-0x4d8(%rbp)
   12aa6:	48 8d 05 f7 a5 00 00 	lea    0xa5f7(%rip),%rax        # 1d0a4 <g_109>
   12aad:	48 89 85 30 fb ff ff 	mov    %rax,-0x4d0(%rbp)
   12ab4:	48 8d 85 e4 f6 ff ff 	lea    -0x91c(%rbp),%rax
   12abb:	48 89 85 38 fb ff ff 	mov    %rax,-0x4c8(%rbp)
   12ac2:	48 8d 05 97 a5 00 00 	lea    0xa597(%rip),%rax        # 1d060 <g_77+0x20>
   12ac9:	48 89 85 40 fb ff ff 	mov    %rax,-0x4c0(%rbp)
   12ad0:	48 8d 85 10 f8 ff ff 	lea    -0x7f0(%rbp),%rax
   12ad7:	48 83 c0 14          	add    $0x14,%rax
   12adb:	48 89 85 48 fb ff ff 	mov    %rax,-0x4b8(%rbp)
   12ae2:	48 8d 85 fc f7 ff ff 	lea    -0x804(%rbp),%rax
   12ae9:	48 83 c0 04          	add    $0x4,%rax
   12aed:	48 89 85 50 fb ff ff 	mov    %rax,-0x4b0(%rbp)
   12af4:	48 8d 85 fc f7 ff ff 	lea    -0x804(%rbp),%rax
   12afb:	48 89 85 58 fb ff ff 	mov    %rax,-0x4a8(%rbp)
   12b02:	48 8d 05 37 a5 00 00 	lea    0xa537(%rip),%rax        # 1d040 <g_77>
   12b09:	48 89 85 60 fb ff ff 	mov    %rax,-0x4a0(%rbp)
   12b10:	48 c7 85 68 fb ff ff 	movq   $0x0,-0x498(%rbp)
   12b17:	00 00 00 00 
   12b1b:	48 c7 85 70 fb ff ff 	movq   $0x0,-0x490(%rbp)
   12b22:	00 00 00 00 
   12b26:	48 8d 05 1b cd 00 00 	lea    0xcd1b(%rip),%rax        # 1f848 <g_2>
   12b2d:	48 89 85 78 fb ff ff 	mov    %rax,-0x488(%rbp)
   12b34:	48 8d 85 fc f7 ff ff 	lea    -0x804(%rbp),%rax
   12b3b:	48 83 c0 04          	add    $0x4,%rax
   12b3f:	48 89 85 80 fb ff ff 	mov    %rax,-0x480(%rbp)
   12b46:	48 8d 85 e4 f6 ff ff 	lea    -0x91c(%rbp),%rax
   12b4d:	48 89 85 88 fb ff ff 	mov    %rax,-0x478(%rbp)
   12b54:	48 8d 05 5d a5 00 00 	lea    0xa55d(%rip),%rax        # 1d0b8 <g_257>
   12b5b:	48 89 85 90 fb ff ff 	mov    %rax,-0x470(%rbp)
   12b62:	48 c7 85 98 fb ff ff 	movq   $0x0,-0x468(%rbp)
   12b69:	00 00 00 00 
   12b6d:	48 8d 05 d4 cc 00 00 	lea    0xccd4(%rip),%rax        # 1f848 <g_2>
   12b74:	48 89 85 a0 fb ff ff 	mov    %rax,-0x460(%rbp)
   12b7b:	48 8d 85 e0 f6 ff ff 	lea    -0x920(%rbp),%rax
   12b82:	48 89 85 a8 fb ff ff 	mov    %rax,-0x458(%rbp)
   12b89:	48 c7 85 b0 fb ff ff 	movq   $0x0,-0x450(%rbp)
   12b90:	00 00 00 00 
   12b94:	48 8d 85 10 f8 ff ff 	lea    -0x7f0(%rbp),%rax
   12b9b:	48 83 c0 1c          	add    $0x1c,%rax
   12b9f:	48 89 85 b8 fb ff ff 	mov    %rax,-0x448(%rbp)
   12ba6:	48 8d 05 af cc 00 00 	lea    0xccaf(%rip),%rax        # 1f85c <g_320>
   12bad:	48 89 85 c0 fb ff ff 	mov    %rax,-0x440(%rbp)
   12bb4:	48 c7 85 c8 fb ff ff 	movq   $0x0,-0x438(%rbp)
   12bbb:	00 00 00 00 
   12bbf:	48 c7 85 d0 fb ff ff 	movq   $0x0,-0x430(%rbp)
   12bc6:	00 00 00 00 
   12bca:	48 c7 85 d8 fb ff ff 	movq   $0x0,-0x428(%rbp)
   12bd1:	00 00 00 00 
   12bd5:	48 8d 05 74 a4 00 00 	lea    0xa474(%rip),%rax        # 1d050 <g_77+0x10>
   12bdc:	48 89 85 e0 fb ff ff 	mov    %rax,-0x420(%rbp)
   12be3:	48 8d 85 e4 f6 ff ff 	lea    -0x91c(%rbp),%rax
   12bea:	48 89 85 e8 fb ff ff 	mov    %rax,-0x418(%rbp)
   12bf1:	48 8d 05 c0 a4 00 00 	lea    0xa4c0(%rip),%rax        # 1d0b8 <g_257>
   12bf8:	48 89 85 f0 fb ff ff 	mov    %rax,-0x410(%rbp)
   12bff:	48 c7 85 f8 fb ff ff 	movq   $0x0,-0x408(%rbp)
   12c06:	00 00 00 00 
   12c0a:	48 8d 85 10 f8 ff ff 	lea    -0x7f0(%rbp),%rax
   12c11:	48 83 c0 14          	add    $0x14,%rax
   12c15:	48 89 85 00 fc ff ff 	mov    %rax,-0x400(%rbp)
   12c1c:	48 8d 85 dc f6 ff ff 	lea    -0x924(%rbp),%rax
   12c23:	48 89 85 08 fc ff ff 	mov    %rax,-0x3f8(%rbp)
   12c2a:	48 8d 05 73 a4 00 00 	lea    0xa473(%rip),%rax        # 1d0a4 <g_109>
   12c31:	48 89 85 10 fc ff ff 	mov    %rax,-0x3f0(%rbp)
   12c38:	48 8d 05 1d cc 00 00 	lea    0xcc1d(%rip),%rax        # 1f85c <g_320>
   12c3f:	48 89 85 18 fc ff ff 	mov    %rax,-0x3e8(%rbp)
   12c46:	48 8d 85 fc f7 ff ff 	lea    -0x804(%rbp),%rax
   12c4d:	48 89 85 20 fc ff ff 	mov    %rax,-0x3e0(%rbp)
   12c54:	48 8d 85 10 f8 ff ff 	lea    -0x7f0(%rbp),%rax
   12c5b:	48 83 c0 14          	add    $0x14,%rax
   12c5f:	48 89 85 28 fc ff ff 	mov    %rax,-0x3d8(%rbp)
   12c66:	48 8d 85 10 f8 ff ff 	lea    -0x7f0(%rbp),%rax
   12c6d:	48 83 c0 14          	add    $0x14,%rax
   12c71:	48 89 85 30 fc ff ff 	mov    %rax,-0x3d0(%rbp)
   12c78:	48 8d 85 fc f7 ff ff 	lea    -0x804(%rbp),%rax
   12c7f:	48 89 85 38 fc ff ff 	mov    %rax,-0x3c8(%rbp)
   12c86:	48 8d 05 cf cb 00 00 	lea    0xcbcf(%rip),%rax        # 1f85c <g_320>
   12c8d:	48 89 85 40 fc ff ff 	mov    %rax,-0x3c0(%rbp)
   12c94:	48 8d 05 09 a4 00 00 	lea    0xa409(%rip),%rax        # 1d0a4 <g_109>
   12c9b:	48 89 85 48 fc ff ff 	mov    %rax,-0x3b8(%rbp)
   12ca2:	48 8d 85 e0 f6 ff ff 	lea    -0x920(%rbp),%rax
   12ca9:	48 89 85 50 fc ff ff 	mov    %rax,-0x3b0(%rbp)
   12cb0:	48 8d 85 e0 f6 ff ff 	lea    -0x920(%rbp),%rax
   12cb7:	48 89 85 58 fc ff ff 	mov    %rax,-0x3a8(%rbp)
   12cbe:	48 8d 05 8b a3 00 00 	lea    0xa38b(%rip),%rax        # 1d050 <g_77+0x10>
   12cc5:	48 89 85 60 fc ff ff 	mov    %rax,-0x3a0(%rbp)
   12ccc:	48 c7 85 68 fc ff ff 	movq   $0x0,-0x398(%rbp)
   12cd3:	00 00 00 00 
   12cd7:	48 c7 85 70 fc ff ff 	movq   $0x0,-0x390(%rbp)
   12cde:	00 00 00 00 
   12ce2:	48 c7 85 78 fc ff ff 	movq   $0x0,-0x388(%rbp)
   12ce9:	00 00 00 00 
   12ced:	48 c7 85 80 fc ff ff 	movq   $0x0,-0x380(%rbp)
   12cf4:	00 00 00 00 
   12cf8:	48 8d 05 41 a3 00 00 	lea    0xa341(%rip),%rax        # 1d040 <g_77>
   12cff:	48 89 85 88 fc ff ff 	mov    %rax,-0x378(%rbp)
   12d06:	48 8d 05 ab a3 00 00 	lea    0xa3ab(%rip),%rax        # 1d0b8 <g_257>
   12d0d:	48 89 85 90 fc ff ff 	mov    %rax,-0x370(%rbp)
   12d14:	48 8d 85 10 f8 ff ff 	lea    -0x7f0(%rbp),%rax
   12d1b:	48 83 c0 1c          	add    $0x1c,%rax
   12d1f:	48 89 85 98 fc ff ff 	mov    %rax,-0x368(%rbp)
   12d26:	48 8d 05 1b cb 00 00 	lea    0xcb1b(%rip),%rax        # 1f848 <g_2>
   12d2d:	48 89 85 a0 fc ff ff 	mov    %rax,-0x360(%rbp)
   12d34:	48 8d 85 10 f8 ff ff 	lea    -0x7f0(%rbp),%rax
   12d3b:	48 83 c0 14          	add    $0x14,%rax
   12d3f:	48 89 85 a8 fc ff ff 	mov    %rax,-0x358(%rbp)
   12d46:	48 8d 85 04 f8 ff ff 	lea    -0x7fc(%rbp),%rax
   12d4d:	48 89 85 b0 fc ff ff 	mov    %rax,-0x350(%rbp)
   12d54:	48 8d 05 f1 a2 00 00 	lea    0xa2f1(%rip),%rax        # 1d04c <g_77+0xc>
   12d5b:	48 89 85 b8 fc ff ff 	mov    %rax,-0x348(%rbp)
   12d62:	48 8d 85 fc f7 ff ff 	lea    -0x804(%rbp),%rax
   12d69:	48 83 c0 04          	add    $0x4,%rax
   12d6d:	48 89 85 c0 fc ff ff 	mov    %rax,-0x340(%rbp)
   12d74:	48 c7 85 c8 fc ff ff 	movq   $0x0,-0x338(%rbp)
   12d7b:	00 00 00 00 
   12d7f:	48 c7 85 d0 fc ff ff 	movq   $0x0,-0x330(%rbp)
   12d86:	00 00 00 00 
   12d8a:	48 8d 85 10 f8 ff ff 	lea    -0x7f0(%rbp),%rax
   12d91:	48 83 c0 14          	add    $0x14,%rax
   12d95:	48 89 85 d8 fc ff ff 	mov    %rax,-0x328(%rbp)
   12d9c:	48 8d 85 e4 f6 ff ff 	lea    -0x91c(%rbp),%rax
   12da3:	48 89 85 e0 fc ff ff 	mov    %rax,-0x320(%rbp)
   12daa:	48 c7 85 e8 fc ff ff 	movq   $0x0,-0x318(%rbp)
   12db1:	00 00 00 00 
   12db5:	48 8d 05 8c ca 00 00 	lea    0xca8c(%rip),%rax        # 1f848 <g_2>
   12dbc:	48 89 85 f0 fc ff ff 	mov    %rax,-0x310(%rbp)
   12dc3:	48 8d 85 e0 f6 ff ff 	lea    -0x920(%rbp),%rax
   12dca:	48 89 85 f8 fc ff ff 	mov    %rax,-0x308(%rbp)
   12dd1:	48 8d 05 70 ca 00 00 	lea    0xca70(%rip),%rax        # 1f848 <g_2>
   12dd8:	48 89 85 00 fd ff ff 	mov    %rax,-0x300(%rbp)
   12ddf:	48 8d 05 7a a2 00 00 	lea    0xa27a(%rip),%rax        # 1d060 <g_77+0x20>
   12de6:	48 89 85 08 fd ff ff 	mov    %rax,-0x2f8(%rbp)
   12ded:	48 8d 85 10 f8 ff ff 	lea    -0x7f0(%rbp),%rax
   12df4:	48 83 c0 1c          	add    $0x1c,%rax
   12df8:	48 89 85 10 fd ff ff 	mov    %rax,-0x2f0(%rbp)
   12dff:	48 8d 85 10 f8 ff ff 	lea    -0x7f0(%rbp),%rax
   12e06:	48 83 c0 14          	add    $0x14,%rax
   12e0a:	48 89 85 18 fd ff ff 	mov    %rax,-0x2e8(%rbp)
   12e11:	48 8d 85 10 f8 ff ff 	lea    -0x7f0(%rbp),%rax
   12e18:	48 83 c0 14          	add    $0x14,%rax
   12e1c:	48 89 85 20 fd ff ff 	mov    %rax,-0x2e0(%rbp)
   12e23:	48 c7 85 28 fd ff ff 	movq   $0x0,-0x2d8(%rbp)
   12e2a:	00 00 00 00 
   12e2e:	48 8d 85 10 f8 ff ff 	lea    -0x7f0(%rbp),%rax
   12e35:	48 83 c0 14          	add    $0x14,%rax
   12e39:	48 89 85 30 fd ff ff 	mov    %rax,-0x2d0(%rbp)
   12e40:	48 8d 85 dc f6 ff ff 	lea    -0x924(%rbp),%rax
   12e47:	48 89 85 38 fd ff ff 	mov    %rax,-0x2c8(%rbp)
   12e4e:	48 c7 85 40 fd ff ff 	movq   $0x0,-0x2c0(%rbp)
   12e55:	00 00 00 00 
   12e59:	48 8d 85 dc f6 ff ff 	lea    -0x924(%rbp),%rax
   12e60:	48 89 85 48 fd ff ff 	mov    %rax,-0x2b8(%rbp)
   12e67:	48 8d 85 10 f8 ff ff 	lea    -0x7f0(%rbp),%rax
   12e6e:	48 83 c0 14          	add    $0x14,%rax
   12e72:	48 89 85 50 fd ff ff 	mov    %rax,-0x2b0(%rbp)
   12e79:	48 8d 85 10 f8 ff ff 	lea    -0x7f0(%rbp),%rax
   12e80:	48 83 c0 14          	add    $0x14,%rax
   12e84:	48 89 85 58 fd ff ff 	mov    %rax,-0x2a8(%rbp)
   12e8b:	48 c7 85 60 fd ff ff 	movq   $0x0,-0x2a0(%rbp)
   12e92:	00 00 00 00 
   12e96:	48 8d 05 c3 a1 00 00 	lea    0xa1c3(%rip),%rax        # 1d060 <g_77+0x20>
   12e9d:	48 89 85 68 fd ff ff 	mov    %rax,-0x298(%rbp)
   12ea4:	48 c7 85 70 fd ff ff 	movq   $0x0,-0x290(%rbp)
   12eab:	00 00 00 00 
   12eaf:	48 8d 05 aa a1 00 00 	lea    0xa1aa(%rip),%rax        # 1d060 <g_77+0x20>
   12eb6:	48 89 85 78 fd ff ff 	mov    %rax,-0x288(%rbp)
   12ebd:	48 8d 85 e0 f6 ff ff 	lea    -0x920(%rbp),%rax
   12ec4:	48 89 85 80 fd ff ff 	mov    %rax,-0x280(%rbp)
   12ecb:	48 8d 05 8a c9 00 00 	lea    0xc98a(%rip),%rax        # 1f85c <g_320>
   12ed2:	48 89 85 88 fd ff ff 	mov    %rax,-0x278(%rbp)
   12ed9:	48 8d 05 d8 a1 00 00 	lea    0xa1d8(%rip),%rax        # 1d0b8 <g_257>
   12ee0:	48 89 85 90 fd ff ff 	mov    %rax,-0x270(%rbp)
   12ee7:	48 8d 85 fc f7 ff ff 	lea    -0x804(%rbp),%rax
   12eee:	48 83 c0 04          	add    $0x4,%rax
   12ef2:	48 89 85 98 fd ff ff 	mov    %rax,-0x268(%rbp)
   12ef9:	48 8d 05 b8 a1 00 00 	lea    0xa1b8(%rip),%rax        # 1d0b8 <g_257>
   12f00:	48 89 85 a0 fd ff ff 	mov    %rax,-0x260(%rbp)
   12f07:	48 8d 85 10 f8 ff ff 	lea    -0x7f0(%rbp),%rax
   12f0e:	48 83 c0 14          	add    $0x14,%rax
   12f12:	48 89 85 a8 fd ff ff 	mov    %rax,-0x258(%rbp)
   12f19:	48 8d 05 20 a1 00 00 	lea    0xa120(%rip),%rax        # 1d040 <g_77>
   12f20:	48 89 85 b0 fd ff ff 	mov    %rax,-0x250(%rbp)
   12f27:	48 8d 85 e0 f6 ff ff 	lea    -0x920(%rbp),%rax
   12f2e:	48 89 85 b8 fd ff ff 	mov    %rax,-0x248(%rbp)
   12f35:	48 8d 05 10 a1 00 00 	lea    0xa110(%rip),%rax        # 1d04c <g_77+0xc>
   12f3c:	48 89 85 c0 fd ff ff 	mov    %rax,-0x240(%rbp)
   12f43:	48 8d 85 e4 f6 ff ff 	lea    -0x91c(%rbp),%rax
   12f4a:	48 89 85 c8 fd ff ff 	mov    %rax,-0x238(%rbp)
   12f51:	48 8d 85 e0 f6 ff ff 	lea    -0x920(%rbp),%rax
   12f58:	48 89 85 d0 fd ff ff 	mov    %rax,-0x230(%rbp)
   12f5f:	48 8d 05 52 a1 00 00 	lea    0xa152(%rip),%rax        # 1d0b8 <g_257>
   12f66:	48 89 85 d8 fd ff ff 	mov    %rax,-0x228(%rbp)
   12f6d:	48 8d 05 ec a0 00 00 	lea    0xa0ec(%rip),%rax        # 1d060 <g_77+0x20>
   12f74:	48 89 85 e0 fd ff ff 	mov    %rax,-0x220(%rbp)
   12f7b:	48 8d 85 dc f6 ff ff 	lea    -0x924(%rbp),%rax
   12f82:	48 89 85 e8 fd ff ff 	mov    %rax,-0x218(%rbp)
   12f89:	48 c7 85 f0 fd ff ff 	movq   $0x0,-0x210(%rbp)
   12f90:	00 00 00 00 
   12f94:	48 c7 85 f8 fd ff ff 	movq   $0x0,-0x208(%rbp)
   12f9b:	00 00 00 00 
   12f9f:	48 c7 85 00 fe ff ff 	movq   $0x0,-0x200(%rbp)
   12fa6:	00 00 00 00 
   12faa:	48 8d 05 07 a1 00 00 	lea    0xa107(%rip),%rax        # 1d0b8 <g_257>
   12fb1:	48 89 85 08 fe ff ff 	mov    %rax,-0x1f8(%rbp)
   12fb8:	48 8d 85 10 f8 ff ff 	lea    -0x7f0(%rbp),%rax
   12fbf:	48 83 c0 14          	add    $0x14,%rax
   12fc3:	48 89 85 10 fe ff ff 	mov    %rax,-0x1f0(%rbp)
   12fca:	48 8d 85 e4 f6 ff ff 	lea    -0x91c(%rbp),%rax
   12fd1:	48 89 85 18 fe ff ff 	mov    %rax,-0x1e8(%rbp)
   12fd8:	48 c7 85 20 fe ff ff 	movq   $0x0,-0x1e0(%rbp)
   12fdf:	00 00 00 00 
   12fe3:	48 8d 85 e4 f6 ff ff 	lea    -0x91c(%rbp),%rax
   12fea:	48 89 85 28 fe ff ff 	mov    %rax,-0x1d8(%rbp)
   12ff1:	48 8d 85 e4 f6 ff ff 	lea    -0x91c(%rbp),%rax
   12ff8:	48 89 85 30 fe ff ff 	mov    %rax,-0x1d0(%rbp)
   12fff:	48 8d 05 56 c8 00 00 	lea    0xc856(%rip),%rax        # 1f85c <g_320>
   13006:	48 89 85 38 fe ff ff 	mov    %rax,-0x1c8(%rbp)
   1300d:	48 8d 05 a4 a0 00 00 	lea    0xa0a4(%rip),%rax        # 1d0b8 <g_257>
   13014:	48 89 85 40 fe ff ff 	mov    %rax,-0x1c0(%rbp)
   1301b:	48 8d 85 fc f7 ff ff 	lea    -0x804(%rbp),%rax
   13022:	48 83 c0 04          	add    $0x4,%rax
   13026:	48 89 85 48 fe ff ff 	mov    %rax,-0x1b8(%rbp)
   1302d:	48 8d 85 e0 f6 ff ff 	lea    -0x920(%rbp),%rax
   13034:	48 89 85 50 fe ff ff 	mov    %rax,-0x1b0(%rbp)
   1303b:	48 8d 85 dc f6 ff ff 	lea    -0x924(%rbp),%rax
   13042:	48 89 85 58 fe ff ff 	mov    %rax,-0x1a8(%rbp)
   13049:	48 8d 05 68 a0 00 00 	lea    0xa068(%rip),%rax        # 1d0b8 <g_257>
   13050:	48 89 85 60 fe ff ff 	mov    %rax,-0x1a0(%rbp)
   13057:	48 8d 05 02 a0 00 00 	lea    0xa002(%rip),%rax        # 1d060 <g_77+0x20>
   1305e:	48 89 85 68 fe ff ff 	mov    %rax,-0x198(%rbp)
   13065:	48 c7 85 70 fe ff ff 	movq   $0x0,-0x190(%rbp)
   1306c:	00 00 00 00 
   13070:	48 8d 85 10 f8 ff ff 	lea    -0x7f0(%rbp),%rax
   13077:	48 83 c0 14          	add    $0x14,%rax
   1307b:	48 89 85 78 fe ff ff 	mov    %rax,-0x188(%rbp)
   13082:	48 8d 05 b7 9f 00 00 	lea    0x9fb7(%rip),%rax        # 1d040 <g_77>
   13089:	48 89 85 80 fe ff ff 	mov    %rax,-0x180(%rbp)
   13090:	48 c7 85 88 fe ff ff 	movq   $0x0,-0x178(%rbp)
   13097:	00 00 00 00 
   1309b:	48 c7 85 90 fe ff ff 	movq   $0x0,-0x170(%rbp)
   130a2:	00 00 00 00 
   130a6:	48 c7 85 98 fe ff ff 	movq   $0x0,-0x168(%rbp)
   130ad:	00 00 00 00 
   130b1:	48 c7 85 a0 fe ff ff 	movq   $0x0,-0x160(%rbp)
   130b8:	00 00 00 00 
   130bc:	48 8d 05 8d 9f 00 00 	lea    0x9f8d(%rip),%rax        # 1d050 <g_77+0x10>
   130c3:	48 89 85 a8 fe ff ff 	mov    %rax,-0x158(%rbp)
   130ca:	48 8d 85 e0 f6 ff ff 	lea    -0x920(%rbp),%rax
   130d1:	48 89 85 b0 fe ff ff 	mov    %rax,-0x150(%rbp)
   130d8:	48 8d 85 e0 f6 ff ff 	lea    -0x920(%rbp),%rax
   130df:	48 89 85 b8 fe ff ff 	mov    %rax,-0x148(%rbp)
   130e6:	48 8d 05 63 9f 00 00 	lea    0x9f63(%rip),%rax        # 1d050 <g_77+0x10>
   130ed:	48 89 85 c0 fe ff ff 	mov    %rax,-0x140(%rbp)
   130f4:	48 c7 85 c8 fe ff ff 	movq   $0x0,-0x138(%rbp)
   130fb:	00 00 00 00 
   130ff:	48 8d 05 9e 9f 00 00 	lea    0x9f9e(%rip),%rax        # 1d0a4 <g_109>
   13106:	48 89 85 d0 fe ff ff 	mov    %rax,-0x130(%rbp)
   1310d:	48 c7 85 d8 fe ff ff 	movq   $0x0,-0x128(%rbp)
   13114:	00 00 00 00 
   13118:	48 c7 85 e0 fe ff ff 	movq   $0x0,-0x120(%rbp)
   1311f:	00 00 00 00 
   13123:	48 8d 05 7a 9f 00 00 	lea    0x9f7a(%rip),%rax        # 1d0a4 <g_109>
   1312a:	48 89 85 e8 fe ff ff 	mov    %rax,-0x118(%rbp)
   13131:	48 c7 85 f0 fe ff ff 	movq   $0x0,-0x110(%rbp)
   13138:	00 00 00 00 
   1313c:	48 8d 05 1d 9f 00 00 	lea    0x9f1d(%rip),%rax        # 1d060 <g_77+0x20>
   13143:	48 89 85 f8 fe ff ff 	mov    %rax,-0x108(%rbp)
   1314a:	48 8d 85 04 f8 ff ff 	lea    -0x7fc(%rbp),%rax
   13151:	48 89 85 00 ff ff ff 	mov    %rax,-0x100(%rbp)
   13158:	48 8d 05 fd c6 00 00 	lea    0xc6fd(%rip),%rax        # 1f85c <g_320>
   1315f:	48 89 85 08 ff ff ff 	mov    %rax,-0xf8(%rbp)
   13166:	48 c7 85 10 ff ff ff 	movq   $0x0,-0xf0(%rbp)
   1316d:	00 00 00 00 
   13171:	48 c7 85 18 ff ff ff 	movq   $0x0,-0xe8(%rbp)
   13178:	00 00 00 00 
   1317c:	48 8d 85 e4 f6 ff ff 	lea    -0x91c(%rbp),%rax
   13183:	48 89 85 20 ff ff ff 	mov    %rax,-0xe0(%rbp)
   1318a:	48 8d 05 cf 9e 00 00 	lea    0x9ecf(%rip),%rax        # 1d060 <g_77+0x20>
   13191:	48 89 85 28 ff ff ff 	mov    %rax,-0xd8(%rbp)
   13198:	48 8d 05 c1 9e 00 00 	lea    0x9ec1(%rip),%rax        # 1d060 <g_77+0x20>
   1319f:	48 89 85 30 ff ff ff 	mov    %rax,-0xd0(%rbp)
   131a6:	48 8d 05 9f 9e 00 00 	lea    0x9e9f(%rip),%rax        # 1d04c <g_77+0xc>
   131ad:	48 89 85 38 ff ff ff 	mov    %rax,-0xc8(%rbp)
   131b4:	48 8d 85 10 f8 ff ff 	lea    -0x7f0(%rbp),%rax
   131bb:	48 83 c0 1c          	add    $0x1c,%rax
   131bf:	48 89 85 40 ff ff ff 	mov    %rax,-0xc0(%rbp)
   131c6:	48 c7 85 48 ff ff ff 	movq   $0x0,-0xb8(%rbp)
   131cd:	00 00 00 00 
   131d1:	48 c7 85 50 ff ff ff 	movq   $0x0,-0xb0(%rbp)
   131d8:	00 00 00 00 
   131dc:	48 8d 85 04 f8 ff ff 	lea    -0x7fc(%rbp),%rax
   131e3:	48 89 85 58 ff ff ff 	mov    %rax,-0xa8(%rbp)
   131ea:	48 c7 85 60 ff ff ff 	movq   $0x0,-0xa0(%rbp)
   131f1:	00 00 00 00 
   131f5:	48 8d 85 e0 f6 ff ff 	lea    -0x920(%rbp),%rax
   131fc:	48 89 85 68 ff ff ff 	mov    %rax,-0x98(%rbp)
   13203:	48 8d 85 10 f8 ff ff 	lea    -0x7f0(%rbp),%rax
   1320a:	48 83 c0 14          	add    $0x14,%rax
   1320e:	48 89 85 70 ff ff ff 	mov    %rax,-0x90(%rbp)
   13215:	48 c7 85 78 ff ff ff 	movq   $0x0,-0x88(%rbp)
   1321c:	00 00 00 00 
   13220:	48 c7 45 80 00 00 00 	movq   $0x0,-0x80(%rbp)
   13227:	00 
   13228:	48 8d 05 75 9e 00 00 	lea    0x9e75(%rip),%rax        # 1d0a4 <g_109>
   1322f:	48 89 45 88          	mov    %rax,-0x78(%rbp)
   13233:	48 8d 85 fc f7 ff ff 	lea    -0x804(%rbp),%rax
   1323a:	48 89 45 90          	mov    %rax,-0x70(%rbp)
   1323e:	48 8d 85 e4 f6 ff ff 	lea    -0x91c(%rbp),%rax
   13245:	48 89 45 98          	mov    %rax,-0x68(%rbp)
   13249:	48 8d 05 f8 c5 00 00 	lea    0xc5f8(%rip),%rax        # 1f848 <g_2>
   13250:	48 89 45 a0          	mov    %rax,-0x60(%rbp)
   13254:	48 8d 85 10 f8 ff ff 	lea    -0x7f0(%rbp),%rax
   1325b:	48 83 c0 14          	add    $0x14,%rax
   1325f:	48 89 45 a8          	mov    %rax,-0x58(%rbp)
   13263:	48 8d 05 e6 9d 00 00 	lea    0x9de6(%rip),%rax        # 1d050 <g_77+0x10>
   1326a:	48 89 45 b0          	mov    %rax,-0x50(%rbp)
   1326e:	48 8d 05 eb 9d 00 00 	lea    0x9deb(%rip),%rax        # 1d060 <g_77+0x20>
   13275:	48 89 45 b8          	mov    %rax,-0x48(%rbp)
   13279:	c7 85 f0 f6 ff ff 00 	movl   $0x0,-0x910(%rbp)
   13280:	00 00 00 
   13283:	eb 1a                	jmp    1329f <func_60+0xed7>
   13285:	8b 85 f0 f6 ff ff    	mov    -0x910(%rbp),%eax
   1328b:	48 98                	cltq   
   1328d:	c7 84 85 fc f7 ff ff 	movl   $0x0,-0x804(%rbp,%rax,4)
   13294:	00 00 00 00 
   13298:	83 85 f0 f6 ff ff 01 	addl   $0x1,-0x910(%rbp)
   1329f:	83 bd f0 f6 ff ff 01 	cmpl   $0x1,-0x910(%rbp)
   132a6:	7e dd                	jle    13285 <func_60+0xebd>
   132a8:	c6 05 0d 9e 00 00 00 	movb   $0x0,0x9e0d(%rip)        # 1d0bc <g_293>
   132af:	e9 eb 03 00 00       	jmpq   1369f <func_60+0x12d7>
   132b4:	48 8d 05 15 b8 00 00 	lea    0xb815(%rip),%rax        # 1ead0 <g_435>
   132bb:	48 89 85 28 f7 ff ff 	mov    %rax,-0x8d8(%rbp)
   132c2:	48 c7 85 d8 f7 ff ff 	movq   $0x0,-0x828(%rbp)
   132c9:	00 00 00 00 
   132cd:	48 8d 05 7c b9 00 00 	lea    0xb97c(%rip),%rax        # 1ec50 <g_525>
   132d4:	48 89 85 e0 f7 ff ff 	mov    %rax,-0x820(%rbp)
   132db:	48 c7 85 e8 f7 ff ff 	movq   $0x0,-0x818(%rbp)
   132e2:	00 00 00 00 
   132e6:	66 c7 05 e1 9d 00 00 	movw   $0x1,0x9de1(%rip)        # 1d0d0 <g_356>
   132ed:	01 00 
   132ef:	e9 8b 03 00 00       	jmpq   1367f <func_60+0x12b7>
   132f4:	48 8d 85 28 f7 ff ff 	lea    -0x8d8(%rbp),%rax
   132fb:	48 89 85 80 f8 ff ff 	mov    %rax,-0x780(%rbp)
   13302:	48 8d 85 28 f7 ff ff 	lea    -0x8d8(%rbp),%rax
   13309:	48 89 85 88 f8 ff ff 	mov    %rax,-0x778(%rbp)
   13310:	48 8d 85 28 f7 ff ff 	lea    -0x8d8(%rbp),%rax
   13317:	48 89 85 90 f8 ff ff 	mov    %rax,-0x770(%rbp)
   1331e:	48 8d 85 28 f7 ff ff 	lea    -0x8d8(%rbp),%rax
   13325:	48 89 85 98 f8 ff ff 	mov    %rax,-0x768(%rbp)
   1332c:	48 8d 85 28 f7 ff ff 	lea    -0x8d8(%rbp),%rax
   13333:	48 89 85 a0 f8 ff ff 	mov    %rax,-0x760(%rbp)
   1333a:	48 8d 85 28 f7 ff ff 	lea    -0x8d8(%rbp),%rax
   13341:	48 89 85 a8 f8 ff ff 	mov    %rax,-0x758(%rbp)
   13348:	48 8d 85 28 f7 ff ff 	lea    -0x8d8(%rbp),%rax
   1334f:	48 89 85 b0 f8 ff ff 	mov    %rax,-0x750(%rbp)
   13356:	48 8d 85 28 f7 ff ff 	lea    -0x8d8(%rbp),%rax
   1335d:	48 89 85 b8 f8 ff ff 	mov    %rax,-0x748(%rbp)
   13364:	48 8d 85 28 f7 ff ff 	lea    -0x8d8(%rbp),%rax
   1336b:	48 89 85 c0 f8 ff ff 	mov    %rax,-0x740(%rbp)
   13372:	48 8d 85 28 f7 ff ff 	lea    -0x8d8(%rbp),%rax
   13379:	48 89 85 c8 f8 ff ff 	mov    %rax,-0x738(%rbp)
   13380:	48 8d 85 28 f7 ff ff 	lea    -0x8d8(%rbp),%rax
   13387:	48 89 85 d0 f8 ff ff 	mov    %rax,-0x730(%rbp)
   1338e:	48 8d 85 28 f7 ff ff 	lea    -0x8d8(%rbp),%rax
   13395:	48 89 85 d8 f8 ff ff 	mov    %rax,-0x728(%rbp)
   1339c:	48 8d 85 28 f7 ff ff 	lea    -0x8d8(%rbp),%rax
   133a3:	48 89 85 e0 f8 ff ff 	mov    %rax,-0x720(%rbp)
   133aa:	48 8d 85 28 f7 ff ff 	lea    -0x8d8(%rbp),%rax
   133b1:	48 89 85 e8 f8 ff ff 	mov    %rax,-0x718(%rbp)
   133b8:	48 8d 85 28 f7 ff ff 	lea    -0x8d8(%rbp),%rax
   133bf:	48 89 85 f0 f8 ff ff 	mov    %rax,-0x710(%rbp)
   133c6:	48 8d 85 28 f7 ff ff 	lea    -0x8d8(%rbp),%rax
   133cd:	48 89 85 f8 f8 ff ff 	mov    %rax,-0x708(%rbp)
   133d4:	48 8d 85 28 f7 ff ff 	lea    -0x8d8(%rbp),%rax
   133db:	48 89 85 00 f9 ff ff 	mov    %rax,-0x700(%rbp)
   133e2:	48 8d 85 28 f7 ff ff 	lea    -0x8d8(%rbp),%rax
   133e9:	48 89 85 08 f9 ff ff 	mov    %rax,-0x6f8(%rbp)
   133f0:	48 8d 85 28 f7 ff ff 	lea    -0x8d8(%rbp),%rax
   133f7:	48 89 85 10 f9 ff ff 	mov    %rax,-0x6f0(%rbp)
   133fe:	48 8d 85 28 f7 ff ff 	lea    -0x8d8(%rbp),%rax
   13405:	48 89 85 18 f9 ff ff 	mov    %rax,-0x6e8(%rbp)
   1340c:	48 8d 85 28 f7 ff ff 	lea    -0x8d8(%rbp),%rax
   13413:	48 89 85 20 f9 ff ff 	mov    %rax,-0x6e0(%rbp)
   1341a:	48 8d 85 28 f7 ff ff 	lea    -0x8d8(%rbp),%rax
   13421:	48 89 85 28 f9 ff ff 	mov    %rax,-0x6d8(%rbp)
   13428:	48 8d 85 28 f7 ff ff 	lea    -0x8d8(%rbp),%rax
   1342f:	48 89 85 30 f9 ff ff 	mov    %rax,-0x6d0(%rbp)
   13436:	48 8d 85 28 f7 ff ff 	lea    -0x8d8(%rbp),%rax
   1343d:	48 89 85 38 f9 ff ff 	mov    %rax,-0x6c8(%rbp)
   13444:	48 8d 85 28 f7 ff ff 	lea    -0x8d8(%rbp),%rax
   1344b:	48 89 85 40 f9 ff ff 	mov    %rax,-0x6c0(%rbp)
   13452:	48 8d 85 28 f7 ff ff 	lea    -0x8d8(%rbp),%rax
   13459:	48 89 85 48 f9 ff ff 	mov    %rax,-0x6b8(%rbp)
   13460:	48 8d 85 28 f7 ff ff 	lea    -0x8d8(%rbp),%rax
   13467:	48 89 85 50 f9 ff ff 	mov    %rax,-0x6b0(%rbp)
   1346e:	48 8d 85 28 f7 ff ff 	lea    -0x8d8(%rbp),%rax
   13475:	48 89 85 58 f9 ff ff 	mov    %rax,-0x6a8(%rbp)
   1347c:	48 8d 85 28 f7 ff ff 	lea    -0x8d8(%rbp),%rax
   13483:	48 89 85 60 f9 ff ff 	mov    %rax,-0x6a0(%rbp)
   1348a:	48 8d 85 28 f7 ff ff 	lea    -0x8d8(%rbp),%rax
   13491:	48 89 85 68 f9 ff ff 	mov    %rax,-0x698(%rbp)
   13498:	48 8d 85 28 f7 ff ff 	lea    -0x8d8(%rbp),%rax
   1349f:	48 89 85 70 f9 ff ff 	mov    %rax,-0x690(%rbp)
   134a6:	48 8d 85 28 f7 ff ff 	lea    -0x8d8(%rbp),%rax
   134ad:	48 89 85 78 f9 ff ff 	mov    %rax,-0x688(%rbp)
   134b4:	48 8d 05 a1 c3 00 00 	lea    0xc3a1(%rip),%rax        # 1f85c <g_320>
   134bb:	48 89 85 f0 f7 ff ff 	mov    %rax,-0x810(%rbp)
   134c2:	c7 85 f4 f6 ff ff 00 	movl   $0x0,-0x90c(%rbp)
   134c9:	00 00 00 
   134cc:	eb 1a                	jmp    134e8 <func_60+0x1120>
   134ce:	8b 85 f4 f6 ff ff    	mov    -0x90c(%rbp),%eax
   134d4:	48 98                	cltq   
   134d6:	c7 84 85 f8 f7 ff ff 	movl   $0x2,-0x808(%rbp,%rax,4)
   134dd:	02 00 00 00 
   134e1:	83 85 f4 f6 ff ff 01 	addl   $0x1,-0x90c(%rbp)
   134e8:	83 bd f4 f6 ff ff 00 	cmpl   $0x0,-0x90c(%rbp)
   134ef:	7e dd                	jle    134ce <func_60+0x1106>
   134f1:	8b 9d c8 f6 ff ff    	mov    -0x938(%rbp),%ebx
   134f7:	0f b7 05 d2 9b 00 00 	movzwl 0x9bd2(%rip),%eax        # 1d0d0 <g_356>
   134fe:	98                   	cwtl   
   134ff:	8d 50 01             	lea    0x1(%rax),%edx
   13502:	8b 05 b0 9b 00 00    	mov    0x9bb0(%rip),%eax        # 1d0b8 <g_257>
   13508:	48 98                	cltq   
   1350a:	48 63 d2             	movslq %edx,%rdx
   1350d:	48 01 d2             	add    %rdx,%rdx
   13510:	48 01 c2             	add    %rax,%rdx
   13513:	48 8d 05 a6 9b 00 00 	lea    0x9ba6(%rip),%rax        # 1d0c0 <g_294>
   1351a:	48 01 d0             	add    %rdx,%rax
   1351d:	0f b6 00             	movzbl (%rax),%eax
   13520:	44 0f b6 e0          	movzbl %al,%r12d
   13524:	8b 85 f8 f7 ff ff    	mov    -0x808(%rbp),%eax
   1352a:	98                   	cwtl   
   1352b:	be 0e 00 00 00       	mov    $0xe,%esi
   13530:	89 c7                	mov    %eax,%edi
   13532:	e8 5b 2f ff ff       	callq  6492 <safe_lshift_func_int16_t_s_s>
   13537:	66 85 c0             	test   %ax,%ax
   1353a:	75 65                	jne    135a1 <func_60+0x11d9>
   1353c:	48 8b 85 28 f7 ff ff 	mov    -0x8d8(%rbp),%rax
   13543:	48 89 05 56 b8 00 00 	mov    %rax,0xb856(%rip)        # 1eda0 <g_1010>
   1354a:	48 8b 05 4f b8 00 00 	mov    0xb84f(%rip),%rax        # 1eda0 <g_1010>
   13551:	48 89 85 98 f7 ff ff 	mov    %rax,-0x868(%rbp)
   13558:	0f b6 05 5d 9b 00 00 	movzbl 0x9b5d(%rip),%eax        # 1d0bc <g_293>
   1355f:	83 f0 01             	xor    $0x1,%eax
   13562:	0f b6 d0             	movzbl %al,%edx
   13565:	8b 85 04 f8 ff ff    	mov    -0x7fc(%rbp),%eax
   1356b:	39 c2                	cmp    %eax,%edx
   1356d:	7f 11                	jg     13580 <func_60+0x11b8>
   1356f:	8b 05 2b 9b 00 00    	mov    0x9b2b(%rip),%eax        # 1d0a0 <g_107>
   13575:	85 c0                	test   %eax,%eax
   13577:	74 07                	je     13580 <func_60+0x11b8>
   13579:	b8 01 00 00 00       	mov    $0x1,%eax
   1357e:	eb 05                	jmp    13585 <func_60+0x11bd>
   13580:	b8 00 00 00 00       	mov    $0x0,%eax
   13585:	39 85 c8 f6 ff ff    	cmp    %eax,-0x938(%rbp)
   1358b:	0f 97 c0             	seta   %al
   1358e:	f7 d0                	not    %eax
   13590:	0f be c0             	movsbl %al,%eax
   13593:	be 01 00 00 00       	mov    $0x1,%esi
   13598:	89 c7                	mov    %eax,%edi
   1359a:	e8 4f 2d ff ff       	callq  62ee <safe_lshift_func_int8_t_s_u>
   1359f:	84 c0                	test   %al,%al
   135a1:	be 01 00 00 00       	mov    $0x1,%esi
   135a6:	bf 00 00 00 00       	mov    $0x0,%edi
   135ab:	e8 85 2d ff ff       	callq  6335 <safe_rshift_func_int8_t_s_s>
   135b0:	84 c0                	test   %al,%al
   135b2:	0f 95 c0             	setne  %al
   135b5:	0f b6 c0             	movzbl %al,%eax
   135b8:	be 53 00 00 00       	mov    $0x53,%esi
   135bd:	89 c7                	mov    %eax,%edi
   135bf:	e8 10 2c ff ff       	callq  61d4 <safe_add_func_int8_t_s_s>
   135c4:	89 c2                	mov    %eax,%edx
   135c6:	48 8b 05 5b b4 00 00 	mov    0xb45b(%rip),%rax        # 1ea28 <g_352>
   135cd:	66 0f be d2          	movsbw %dl,%dx
   135d1:	66 89 10             	mov    %dx,(%rax)
   135d4:	0f b7 00             	movzwl (%rax),%eax
   135d7:	98                   	cwtl   
   135d8:	be 02 00 00 00       	mov    $0x2,%esi
   135dd:	89 c7                	mov    %eax,%edi
   135df:	e8 7f 2f ff ff       	callq  6563 <safe_rshift_func_int16_t_s_u>
   135e4:	66 85 c0             	test   %ax,%ax
   135e7:	75 09                	jne    135f2 <func_60+0x122a>
   135e9:	83 bd c4 f6 ff ff 00 	cmpl   $0x0,-0x93c(%rbp)
   135f0:	74 07                	je     135f9 <func_60+0x1231>
   135f2:	ba 01 00 00 00       	mov    $0x1,%edx
   135f7:	eb 05                	jmp    135fe <func_60+0x1236>
   135f9:	ba 00 00 00 00       	mov    $0x0,%edx
   135fe:	48 8b 85 90 f7 ff ff 	mov    -0x870(%rbp),%rax
   13605:	48 8b 00             	mov    (%rax),%rax
   13608:	48 8b 00             	mov    (%rax),%rax
   1360b:	88 10                	mov    %dl,(%rax)
   1360d:	0f b6 00             	movzbl (%rax),%eax
   13610:	0f be c0             	movsbl %al,%eax
   13613:	be f9 ff ff ff       	mov    $0xfffffff9,%esi
   13618:	89 c7                	mov    %eax,%edi
   1361a:	e8 d3 2b ff ff       	callq  61f2 <safe_sub_func_int8_t_s_s>
   1361f:	48 0f be c0          	movsbq %al,%rax
   13623:	ba 5f bd 43 b9       	mov    $0xb943bd5f,%edx
   13628:	48 31 d0             	xor    %rdx,%rax
   1362b:	4c 21 e0             	and    %r12,%rax
   1362e:	48 89 de             	mov    %rbx,%rsi
   13631:	48 89 c7             	mov    %rax,%rdi
   13634:	e8 08 32 ff ff       	callq  6841 <safe_add_func_int64_t_s_s>
   13639:	0f b6 c0             	movzbl %al,%eax
   1363c:	be 02 00 00 00       	mov    $0x2,%esi
   13641:	89 c7                	mov    %eax,%edi
   13643:	e8 bd 35 ff ff       	callq  6c05 <safe_lshift_func_uint8_t_u_s>
   13648:	0f b6 d0             	movzbl %al,%edx
   1364b:	0f bf 85 da f6 ff ff 	movswl -0x926(%rbp),%eax
   13652:	39 c2                	cmp    %eax,%edx
   13654:	0f 9c c0             	setl   %al
   13657:	0f b6 d0             	movzbl %al,%edx
   1365a:	48 8b 85 f0 f7 ff ff 	mov    -0x810(%rbp),%rax
   13661:	8b 00                	mov    (%rax),%eax
   13663:	21 c2                	and    %eax,%edx
   13665:	48 8b 85 f0 f7 ff ff 	mov    -0x810(%rbp),%rax
   1366c:	89 10                	mov    %edx,(%rax)
   1366e:	0f b7 05 5b 9a 00 00 	movzwl 0x9a5b(%rip),%eax        # 1d0d0 <g_356>
   13675:	83 e8 01             	sub    $0x1,%eax
   13678:	66 89 05 51 9a 00 00 	mov    %ax,0x9a51(%rip)        # 1d0d0 <g_356>
   1367f:	0f b7 05 4a 9a 00 00 	movzwl 0x9a4a(%rip),%eax        # 1d0d0 <g_356>
   13686:	66 85 c0             	test   %ax,%ax
   13689:	0f 89 65 fc ff ff    	jns    132f4 <func_60+0xf2c>
   1368f:	0f b6 05 26 9a 00 00 	movzbl 0x9a26(%rip),%eax        # 1d0bc <g_293>
   13696:	83 c0 01             	add    $0x1,%eax
   13699:	88 05 1d 9a 00 00    	mov    %al,0x9a1d(%rip)        # 1d0bc <g_293>
   1369f:	0f b6 05 16 9a 00 00 	movzbl 0x9a16(%rip),%eax        # 1d0bc <g_293>
   136a6:	3c 01                	cmp    $0x1,%al
   136a8:	0f 86 06 fc ff ff    	jbe    132b4 <func_60+0xeec>
   136ae:	0f b7 05 8d 9a 00 00 	movzwl 0x9a8d(%rip),%eax        # 1d142 <g_1157>
   136b5:	83 e8 01             	sub    $0x1,%eax
   136b8:	66 89 05 83 9a 00 00 	mov    %ax,0x9a83(%rip)        # 1d142 <g_1157>
   136bf:	c7 85 c4 f6 ff ff 00 	movl   $0x0,-0x93c(%rbp)
   136c6:	00 00 00 
   136c9:	e9 d4 00 00 00       	jmpq   137a2 <func_60+0x13da>
   136ce:	c7 85 ec f6 ff ff 00 	movl   $0x0,-0x914(%rbp)
   136d5:	00 00 00 
   136d8:	e9 b1 00 00 00       	jmpq   1378e <func_60+0x13c6>
   136dd:	c7 05 bd 99 00 00 00 	movl   $0x0,0x99bd(%rip)        # 1d0a4 <g_109>
   136e4:	00 00 00 
   136e7:	e9 8c 00 00 00       	jmpq   13778 <func_60+0x13b0>
   136ec:	48 8b 85 c0 f7 ff ff 	mov    -0x840(%rbp),%rax
   136f3:	8b 10                	mov    (%rax),%edx
   136f5:	8b 85 c4 f6 ff ff    	mov    -0x93c(%rbp),%eax
   136fb:	83 c0 01             	add    $0x1,%eax
   136fe:	89 c0                	mov    %eax,%eax
   13700:	8b 84 85 04 f8 ff ff 	mov    -0x7fc(%rbp,%rax,4),%eax
   13707:	09 c2                	or     %eax,%edx
   13709:	48 8b 85 c0 f7 ff ff 	mov    -0x840(%rbp),%rax
   13710:	89 10                	mov    %edx,(%rax)
   13712:	8b 85 ec f6 ff ff    	mov    -0x914(%rbp),%eax
   13718:	8d 50 05             	lea    0x5(%rax),%edx
   1371b:	8b 85 ec f6 ff ff    	mov    -0x914(%rbp),%eax
   13721:	83 c0 02             	add    $0x2,%eax
   13724:	89 c6                	mov    %eax,%esi
   13726:	89 d0                	mov    %edx,%eax
   13728:	8b 8d c4 f6 ff ff    	mov    -0x93c(%rbp),%ecx
   1372e:	48 89 c2             	mov    %rax,%rdx
   13731:	48 c1 e2 02          	shl    $0x2,%rdx
   13735:	48 01 c2             	add    %rax,%rdx
   13738:	48 8d 04 95 00 00 00 	lea    0x0(,%rdx,4),%rax
   1373f:	00 
   13740:	48 89 c2             	mov    %rax,%rdx
   13743:	48 89 c8             	mov    %rcx,%rax
   13746:	48 c1 e0 02          	shl    $0x2,%rax
   1374a:	48 01 c8             	add    %rcx,%rax
   1374d:	48 01 c0             	add    %rax,%rax
   13750:	48 01 d0             	add    %rdx,%rax
   13753:	48 01 f0             	add    %rsi,%rax
   13756:	48 8d 95 10 f8 ff ff 	lea    -0x7f0(%rbp),%rdx
   1375d:	48 83 c2 14          	add    $0x14,%rdx
   13761:	48 89 94 c5 80 f9 ff 	mov    %rdx,-0x680(%rbp,%rax,8)
   13768:	ff 
   13769:	8b 05 35 99 00 00    	mov    0x9935(%rip),%eax        # 1d0a4 <g_109>
   1376f:	83 c0 01             	add    $0x1,%eax
   13772:	89 05 2c 99 00 00    	mov    %eax,0x992c(%rip)        # 1d0a4 <g_109>
   13778:	8b 05 26 99 00 00    	mov    0x9926(%rip),%eax        # 1d0a4 <g_109>
   1377e:	83 f8 03             	cmp    $0x3,%eax
   13781:	0f 8e 65 ff ff ff    	jle    136ec <func_60+0x1324>
   13787:	83 85 ec f6 ff ff 01 	addl   $0x1,-0x914(%rbp)
   1378e:	83 bd ec f6 ff ff 02 	cmpl   $0x2,-0x914(%rbp)
   13795:	0f 86 42 ff ff ff    	jbe    136dd <func_60+0x1315>
   1379b:	83 85 c4 f6 ff ff 01 	addl   $0x1,-0x93c(%rbp)
   137a2:	83 bd c4 f6 ff ff 01 	cmpl   $0x1,-0x93c(%rbp)
   137a9:	0f 86 1f ff ff ff    	jbe    136ce <func_60+0x1306>
   137af:	8b 05 03 99 00 00    	mov    0x9903(%rip),%eax        # 1d0b8 <g_257>
   137b5:	83 e8 01             	sub    $0x1,%eax
   137b8:	89 05 fa 98 00 00    	mov    %eax,0x98fa(%rip)        # 1d0b8 <g_257>
   137be:	8b 05 f4 98 00 00    	mov    0x98f4(%rip),%eax        # 1d0b8 <g_257>
   137c4:	85 c0                	test   %eax,%eax
   137c6:	0f 89 82 ef ff ff    	jns    1274e <func_60+0x386>
   137cc:	0f b7 05 05 99 00 00 	movzwl 0x9905(%rip),%eax        # 1d0d8 <g_421>
   137d3:	83 c0 01             	add    $0x1,%eax
   137d6:	66 89 05 fb 98 00 00 	mov    %ax,0x98fb(%rip)        # 1d0d8 <g_421>
   137dd:	0f b7 05 f4 98 00 00 	movzwl 0x98f4(%rip),%eax        # 1d0d8 <g_421>
   137e4:	66 83 f8 03          	cmp    $0x3,%ax
   137e8:	0f 8e fd ed ff ff    	jle    125eb <func_60+0x223>
   137ee:	8b 9d c4 f6 ff ff    	mov    -0x93c(%rbp),%ebx
   137f4:	48 c7 85 38 f7 ff ff 	movq   $0x0,-0x8c8(%rbp)
   137fb:	00 00 00 00 
   137ff:	48 8b 85 b8 f6 ff ff 	mov    -0x948(%rbp),%rax
   13806:	be 88 89 83 e2       	mov    $0xe2838988,%esi
   1380b:	89 c7                	mov    %eax,%edi
   1380d:	e8 f3 2d ff ff       	callq  6605 <safe_sub_func_int32_t_s_s>
   13812:	48 8b 95 b8 f6 ff ff 	mov    -0x948(%rbp),%rdx
   13819:	89 c6                	mov    %eax,%esi
   1381b:	89 d7                	mov    %edx,%edi
   1381d:	e8 aa 2e ff ff       	callq  66cc <safe_mod_func_int32_t_s_s>
   13822:	48 8b 05 2f b5 00 00 	mov    0xb52f(%rip),%rax        # 1ed58 <g_860>
   13829:	c6 00 00             	movb   $0x0,(%rax)
   1382c:	0f b6 00             	movzbl (%rax),%eax
   1382f:	0f b6 c0             	movzbl %al,%eax
   13832:	89 de                	mov    %ebx,%esi
   13834:	89 c7                	mov    %eax,%edi
   13836:	e8 ca 33 ff ff       	callq  6c05 <safe_lshift_func_uint8_t_u_s>
   1383b:	0f b6 d0             	movzbl %al,%edx
   1383e:	8b 05 98 98 00 00    	mov    0x9898(%rip),%eax        # 1d0dc <g_450>
   13844:	39 c2                	cmp    %eax,%edx
   13846:	0f 9d c0             	setge  %al
   13849:	0f b6 c8             	movzbl %al,%ecx
   1384c:	48 8b 85 08 f7 ff ff 	mov    -0x8f8(%rbp),%rax
   13853:	0f b6 10             	movzbl (%rax),%edx
   13856:	48 8b 85 08 f7 ff ff 	mov    -0x8f8(%rbp),%rax
   1385d:	31 ca                	xor    %ecx,%edx
   1385f:	88 10                	mov    %dl,(%rax)
   13861:	0f b6 00             	movzbl (%rax),%eax
   13864:	84 c0                	test   %al,%al
   13866:	0f 94 c2             	sete   %dl
   13869:	48 8b 05 e0 b3 00 00 	mov    0xb3e0(%rip),%rax        # 1ec50 <g_525>
   13870:	0f b6 d2             	movzbl %dl,%edx
   13873:	89 10                	mov    %edx,(%rax)
   13875:	8b 00                	mov    (%rax),%eax
   13877:	85 c0                	test   %eax,%eax
   13879:	74 07                	je     13882 <func_60+0x14ba>
   1387b:	83 bd c8 f6 ff ff 00 	cmpl   $0x0,-0x938(%rbp)
   13882:	48 8b 05 c7 b4 00 00 	mov    0xb4c7(%rip),%rax        # 1ed50 <g_811>
   13889:	48 8b 00             	mov    (%rax),%rax
   1388c:	48 8d 95 10 f8 ff ff 	lea    -0x7f0(%rbp),%rdx
   13893:	48 83 c2 14          	add    $0x14,%rdx
   13897:	48 89 10             	mov    %rdx,(%rax)
   1389a:	0f b6 05 77 98 00 00 	movzbl 0x9877(%rip),%eax        # 1d118 <g_868>
   138a1:	0f b6 d8             	movzbl %al,%ebx
   138a4:	48 8b 05 fd b4 00 00 	mov    0xb4fd(%rip),%rax        # 1eda8 <g_1030>
   138ab:	0f b6 00             	movzbl (%rax),%eax
   138ae:	44 0f b6 e0          	movzbl %al,%r12d
   138b2:	8b 85 f8 f6 ff ff    	mov    -0x908(%rbp),%eax
   138b8:	44 0f be e8          	movsbl %al,%r13d
   138bc:	8b 85 2c f8 ff ff    	mov    -0x7d4(%rbp),%eax
   138c2:	44 0f bf f0          	movswl %ax,%r14d
   138c6:	48 8b 85 40 f7 ff ff 	mov    -0x8c0(%rbp),%rax
   138cd:	48 8d 15 0c 98 00 00 	lea    0x980c(%rip),%rdx        # 1d0e0 <g_555>
   138d4:	48 89 10             	mov    %rdx,(%rax)
   138d7:	48 8b 85 40 f7 ff ff 	mov    -0x8c0(%rbp),%rax
   138de:	48 8b 00             	mov    (%rax),%rax
   138e1:	48 8d 15 f8 97 00 00 	lea    0x97f8(%rip),%rdx        # 1d0e0 <g_555>
   138e8:	48 39 d0             	cmp    %rdx,%rax
   138eb:	0f 95 c0             	setne  %al
   138ee:	44 0f b6 f8          	movzbl %al,%r15d
   138f2:	8b 95 c4 f6 ff ff    	mov    -0x93c(%rbp),%edx
   138f8:	48 8b 85 48 f7 ff ff 	mov    -0x8b8(%rbp),%rax
   138ff:	48 c7 00 03 00 00 00 	movq   $0x3,(%rax)
   13906:	48 8b 85 48 f7 ff ff 	mov    -0x8b8(%rbp),%rax
   1390d:	48 8b 08             	mov    (%rax),%rcx
   13910:	48 8b 85 50 f7 ff ff 	mov    -0x8b0(%rbp),%rax
   13917:	48 89 08             	mov    %rcx,(%rax)
   1391a:	48 8b 85 50 f7 ff ff 	mov    -0x8b0(%rbp),%rax
   13921:	48 8b 08             	mov    (%rax),%rcx
   13924:	0f b7 05 07 98 00 00 	movzwl 0x9807(%rip),%eax        # 1d132 <g_1107+0x2>
   1392b:	48 0f bf c0          	movswq %ax,%rax
   1392f:	48 39 c1             	cmp    %rax,%rcx
   13932:	0f 9d c0             	setge  %al
   13935:	0f b6 c0             	movzbl %al,%eax
   13938:	89 d6                	mov    %edx,%esi
   1393a:	89 c7                	mov    %eax,%edi
   1393c:	e8 4c 33 ff ff       	callq  6c8d <safe_rshift_func_uint8_t_u_s>
   13941:	89 c2                	mov    %eax,%edx
   13943:	48 8b 85 58 f7 ff ff 	mov    -0x8a8(%rbp),%rax
   1394a:	88 10                	mov    %dl,(%rax)
   1394c:	be 52 1c 00 00       	mov    $0x1c52,%esi
   13951:	bf 00 00 00 00       	mov    $0x0,%edi
   13956:	e8 e2 33 ff ff       	callq  6d3d <safe_mul_func_uint16_t_u_u>
   1395b:	f7 d0                	not    %eax
   1395d:	98                   	cwtl   
   1395e:	89 c6                	mov    %eax,%esi
   13960:	bf f8 ff ff ff       	mov    $0xfffffff8,%edi
   13965:	e8 ac 2a ff ff       	callq  6416 <safe_mod_func_int16_t_s_s>
   1396a:	48 0f bf c0          	movswq %ax,%rax
   1396e:	48 0d f7 ff 00 00    	or     $0xfff7,%rax
   13974:	48 89 c2             	mov    %rax,%rdx
   13977:	48 8b 85 b8 f6 ff ff 	mov    -0x948(%rbp),%rax
   1397e:	48 39 c2             	cmp    %rax,%rdx
   13981:	0f 93 c0             	setae  %al
   13984:	0f b6 c0             	movzbl %al,%eax
   13987:	8b 95 c4 f6 ff ff    	mov    -0x93c(%rbp),%edx
   1398d:	21 d0                	and    %edx,%eax
   1398f:	44 31 f8             	xor    %r15d,%eax
   13992:	98                   	cwtl   
   13993:	be 5d 59 00 00       	mov    $0x595d,%esi
   13998:	89 c7                	mov    %eax,%edi
   1399a:	e8 56 2a ff ff       	callq  63f5 <safe_mul_func_int16_t_s_s>
   1399f:	66 0f be 95 d7 f6 ff 	movsbw -0x929(%rbp),%dx
   139a6:	ff 
   139a7:	21 d0                	and    %edx,%eax
   139a9:	98                   	cwtl   
   139aa:	44 89 f6             	mov    %r14d,%esi
   139ad:	89 c7                	mov    %eax,%edi
   139af:	e8 62 2a ff ff       	callq  6416 <safe_mod_func_int16_t_s_s>
   139b4:	89 c2                	mov    %eax,%edx
   139b6:	8b 85 cc f6 ff ff    	mov    -0x934(%rbp),%eax
   139bc:	21 d0                	and    %edx,%eax
   139be:	0f be c0             	movsbl %al,%eax
   139c1:	44 89 ee             	mov    %r13d,%esi
   139c4:	89 c7                	mov    %eax,%edi
   139c6:	e8 66 28 ff ff       	callq  6231 <safe_mod_func_int8_t_s_s>
   139cb:	3c 08                	cmp    $0x8,%al
   139cd:	0f 94 c0             	sete   %al
   139d0:	0f b6 c0             	movzbl %al,%eax
   139d3:	44 89 e6             	mov    %r12d,%esi
   139d6:	89 c7                	mov    %eax,%edi
   139d8:	e8 11 29 ff ff       	callq  62ee <safe_lshift_func_int8_t_s_u>
   139dd:	0f be d0             	movsbl %al,%edx
   139e0:	8b 05 d2 96 00 00    	mov    0x96d2(%rip),%eax        # 1d0b8 <g_257>
   139e6:	31 c2                	xor    %eax,%edx
   139e8:	48 8b 05 61 b2 00 00 	mov    0xb261(%rip),%rax        # 1ec50 <g_525>
   139ef:	f7 d2                	not    %edx
   139f1:	89 10                	mov    %edx,(%rax)
   139f3:	8b 00                	mov    (%rax),%eax
   139f5:	89 de                	mov    %ebx,%esi
   139f7:	89 c7                	mov    %eax,%edi
   139f9:	e8 07 2c ff ff       	callq  6605 <safe_sub_func_int32_t_s_s>
   139fe:	48 8d 05 d3 b0 00 00 	lea    0xb0d3(%rip),%rax        # 1ead8 <g_449>
   13a05:	48 8b 00             	mov    (%rax),%rax
   13a08:	c7 00 01 00 00 00    	movl   $0x1,(%rax)
   13a0e:	8b 85 48 f8 ff ff    	mov    -0x7b8(%rbp),%eax
   13a14:	83 c0 01             	add    $0x1,%eax
   13a17:	89 85 48 f8 ff ff    	mov    %eax,-0x7b8(%rbp)
   13a1d:	48 8b 85 70 f7 ff ff 	mov    -0x890(%rbp),%rax
   13a24:	8b 00                	mov    (%rax),%eax
   13a26:	48 8b 5d c8          	mov    -0x38(%rbp),%rbx
   13a2a:	64 48 33 1c 25 28 00 	xor    %fs:0x28,%rbx
   13a31:	00 00 
   13a33:	74 05                	je     13a3a <func_60+0x1672>
   13a35:	e8 36 26 ff ff       	callq  6070 <__stack_chk_fail@plt>
   13a3a:	48 81 c4 28 09 00 00 	add    $0x928,%rsp
   13a41:	5b                   	pop    %rbx
   13a42:	41 5c                	pop    %r12
   13a44:	41 5d                	pop    %r13
   13a46:	41 5e                	pop    %r14
   13a48:	41 5f                	pop    %r15
   13a4a:	5d                   	pop    %rbp
   13a4b:	c3                   	retq   

0000000000013a4c <func_68>:
   13a4c:	f3 0f 1e fa          	endbr64 
   13a50:	55                   	push   %rbp
   13a51:	48 89 e5             	mov    %rsp,%rbp
   13a54:	41 57                	push   %r15
   13a56:	41 56                	push   %r14
   13a58:	41 55                	push   %r13
   13a5a:	41 54                	push   %r12
   13a5c:	53                   	push   %rbx
   13a5d:	48 81 ec 00 10 00 00 	sub    $0x1000,%rsp
   13a64:	48 83 0c 24 00       	orq    $0x0,(%rsp)
   13a69:	48 81 ec a8 02 00 00 	sub    $0x2a8,%rsp
   13a70:	89 bd 3c ed ff ff    	mov    %edi,-0x12c4(%rbp)
   13a76:	89 b5 38 ed ff ff    	mov    %esi,-0x12c8(%rbp)
   13a7c:	64 48 8b 04 25 28 00 	mov    %fs:0x28,%rax
   13a83:	00 00 
   13a85:	48 89 45 c8          	mov    %rax,-0x38(%rbp)
   13a89:	31 c0                	xor    %eax,%eax
   13a8b:	48 b8 e0 8b 9f 5b b6 	movabs $0xf10bacb65b9f8be0,%rax
   13a92:	ac 0b f1 
   13a95:	48 89 85 b8 ed ff ff 	mov    %rax,-0x1248(%rbp)
   13a9c:	c7 85 64 ed ff ff fb 	movl   $0xfffffffb,-0x129c(%rbp)
   13aa3:	ff ff ff 
   13aa6:	c7 85 50 f1 ff ff f8 	movl   $0x50932f8,-0xeb0(%rbp)
   13aad:	32 09 05 
   13ab0:	c6 85 54 f1 ff ff f6 	movb   $0xf6,-0xeac(%rbp)
   13ab7:	c7 85 55 f1 ff ff 00 	movl   $0xf648f900,-0xeab(%rbp)
   13abe:	f9 48 f6 
   13ac1:	c6 85 59 f1 ff ff 00 	movb   $0x0,-0xea7(%rbp)
   13ac8:	c7 85 5a f1 ff ff 76 	movl   $0xc8ff0376,-0xea6(%rbp)
   13acf:	03 ff c8 
   13ad2:	c6 85 5e f1 ff ff 0f 	movb   $0xf,-0xea2(%rbp)
   13ad9:	c7 85 5f f1 ff ff f8 	movl   $0xfc0602f8,-0xea1(%rbp)
   13ae0:	02 06 fc 
   13ae3:	c6 85 63 f1 ff ff ff 	movb   $0xff,-0xe9d(%rbp)
   13aea:	c7 85 64 f1 ff ff 9e 	movl   $0xfa08bc9e,-0xe9c(%rbp)
   13af1:	bc 08 fa 
   13af4:	c6 85 68 f1 ff ff 86 	movb   $0x86,-0xe98(%rbp)
   13afb:	c7 85 69 f1 ff ff 03 	movl   $0xcd015b03,-0xe97(%rbp)
   13b02:	5b 01 cd 
   13b05:	c6 85 6d f1 ff ff eb 	movb   $0xeb,-0xe93(%rbp)
   13b0c:	c7 85 6e f1 ff ff a9 	movl   $0x86ff06a9,-0xe92(%rbp)
   13b13:	06 ff 86 
   13b16:	c6 85 72 f1 ff ff 00 	movb   $0x0,-0xe8e(%rbp)
   13b1d:	c7 85 73 f1 ff ff 02 	movl   $0xe5860102,-0xe8d(%rbp)
   13b24:	01 86 e5 
   13b27:	c6 85 77 f1 ff ff 09 	movb   $0x9,-0xe89(%rbp)
   13b2e:	c7 85 78 f1 ff ff a5 	movl   $0xffffeba5,-0xe88(%rbp)
   13b35:	eb ff ff 
   13b38:	c6 85 7c f1 ff ff 32 	movb   $0x32,-0xe84(%rbp)
   13b3f:	c7 85 7d f1 ff ff f8 	movl   $0x1c8f8,-0xe83(%rbp)
   13b46:	c8 01 00 
   13b49:	c6 85 81 f1 ff ff 32 	movb   $0x32,-0xe7f(%rbp)
   13b50:	c7 85 82 f1 ff ff ff 	movl   $0x3eaa2ff,-0xe7e(%rbp)
   13b57:	a2 ea 03 
   13b5a:	c6 85 86 f1 ff ff 09 	movb   $0x9,-0xe7a(%rbp)
   13b61:	c7 85 87 f1 ff ff fc 	movl   $0x4e03fc,-0xe79(%rbp)
   13b68:	03 4e 00 
   13b6b:	c6 85 8b f1 ff ff 00 	movb   $0x0,-0xe75(%rbp)
   13b72:	c7 85 8c f1 ff ff cc 	movl   $0x4ff01cc,-0xe74(%rbp)
   13b79:	01 ff 04 
   13b7c:	c6 85 90 f1 ff ff eb 	movb   $0xeb,-0xe70(%rbp)
   13b83:	c7 85 91 f1 ff ff fc 	movl   $0xfafffffc,-0xe6f(%rbp)
   13b8a:	ff ff fa 
   13b8d:	c6 85 95 f1 ff ff 86 	movb   $0x86,-0xe6b(%rbp)
   13b94:	c7 85 96 f1 ff ff 00 	movl   $0x17cfa00,-0xe6a(%rbp)
   13b9b:	fa 7c 01 
   13b9e:	c6 85 9a f1 ff ff ff 	movb   $0xff,-0xe66(%rbp)
   13ba5:	c7 85 9b f1 ff ff fc 	movl   $0x1fa9fcfc,-0xe65(%rbp)
   13bac:	fc a9 1f 
   13baf:	c6 85 9f f1 ff ff 0f 	movb   $0xf,-0xe61(%rbp)
   13bb6:	c7 85 a0 f1 ff ff 01 	movl   $0x186a201,-0xe60(%rbp)
   13bbd:	a2 86 01 
   13bc0:	c6 85 a4 f1 ff ff 00 	movb   $0x0,-0xe5c(%rbp)
   13bc7:	c7 85 a5 f1 ff ff 63 	movl   $0xfa00cd63,-0xe5b(%rbp)
   13bce:	cd 00 fa 
   13bd1:	c6 85 a9 f1 ff ff f6 	movb   $0xf6,-0xe57(%rbp)
   13bd8:	c7 85 aa f1 ff ff ff 	movl   $0x1f1fffff,-0xe56(%rbp)
   13bdf:	ff 1f 1f 
   13be2:	c6 85 ae f1 ff ff ff 	movb   $0xff,-0xe52(%rbp)
   13be9:	c7 85 af f1 ff ff ff 	movl   $0xf6ff01ff,-0xe51(%rbp)
   13bf0:	01 ff f6 
   13bf3:	c6 85 b3 f1 ff ff 01 	movb   $0x1,-0xe4d(%rbp)
   13bfa:	c7 85 b4 f1 ff ff 30 	movl   $0x32ff3130,-0xe4c(%rbp)
   13c01:	31 ff 32 
   13c04:	c6 85 b8 f1 ff ff e4 	movb   $0xe4,-0xe48(%rbp)
   13c0b:	c7 85 b9 f1 ff ff 09 	movl   $0x441eb09,-0xe47(%rbp)
   13c12:	eb 41 04 
   13c15:	c6 85 bd f1 ff ff e5 	movb   $0xe5,-0xe43(%rbp)
   13c1c:	c7 85 be f1 ff ff 30 	movl   $0x7629bc30,-0xe42(%rbp)
   13c23:	bc 29 76 
   13c26:	c6 85 c2 f1 ff ff 05 	movb   $0x5,-0xe3e(%rbp)
   13c2d:	c7 85 c3 f1 ff ff ff 	movl   $0xff6c30ff,-0xe3d(%rbp)
   13c34:	30 6c ff 
   13c37:	c6 85 c7 f1 ff ff 65 	movb   $0x65,-0xe39(%rbp)
   13c3e:	c7 85 c8 f1 ff ff ff 	movl   $0xfcff,-0xe38(%rbp)
   13c45:	fc 00 00 
   13c48:	c6 85 cc f1 ff ff 00 	movb   $0x0,-0xe34(%rbp)
   13c4f:	c7 85 cd f1 ff ff 63 	movl   $0xa505f963,-0xe33(%rbp)
   13c56:	f9 05 a5 
   13c59:	c6 85 d1 f1 ff ff 01 	movb   $0x1,-0xe2f(%rbp)
   13c60:	c7 85 d2 f1 ff ff 01 	movl   $0xfa6ce501,-0xe2e(%rbp)
   13c67:	e5 6c fa 
   13c6a:	c6 85 d6 f1 ff ff f6 	movb   $0xf6,-0xe2a(%rbp)
   13c71:	c7 85 d7 f1 ff ff fc 	movl   $0x86011dfc,-0xe29(%rbp)
   13c78:	1d 01 86 
   13c7b:	c6 85 db f1 ff ff 03 	movb   $0x3,-0xe25(%rbp)
   13c82:	c7 85 dc f1 ff ff 00 	movl   $0xc8a90800,-0xe24(%rbp)
   13c89:	08 a9 c8 
   13c8c:	c6 85 e0 f1 ff ff 1f 	movb   $0x1f,-0xe20(%rbp)
   13c93:	c7 85 e1 f1 ff ff fc 	movl   $0x1dfff7fc,-0xe1f(%rbp)
   13c9a:	f7 ff 1d 
   13c9d:	c6 85 e5 f1 ff ff fc 	movb   $0xfc,-0xe1b(%rbp)
   13ca4:	c7 85 e6 f1 ff ff cc 	movl   $0xfc08cdcc,-0xe1a(%rbp)
   13cab:	cd 08 fc 
   13cae:	c6 85 ea f1 ff ff 01 	movb   $0x1,-0xe16(%rbp)
   13cb5:	c7 85 eb f1 ff ff fc 	movl   $0xfbc41fc,-0xe15(%rbp)
   13cbc:	41 bc 0f 
   13cbf:	c6 85 ef f1 ff ff 01 	movb   $0x1,-0xe11(%rbp)
   13cc6:	c7 85 f0 f1 ff ff ff 	movl   $0x10006ff,-0xe10(%rbp)
   13ccd:	06 00 01 
   13cd0:	c6 85 f4 f1 ff ff ab 	movb   $0xab,-0xe0c(%rbp)
   13cd7:	c7 85 f5 f1 ff ff f8 	movl   $0x5f806f8,-0xe0b(%rbp)
   13cde:	06 f8 05 
   13ce1:	c6 85 f9 f1 ff ff e4 	movb   $0xe4,-0xe07(%rbp)
   13ce8:	c7 85 fa f1 ff ff a5 	movl   $0xa50141a5,-0xe06(%rbp)
   13cef:	41 01 a5 
   13cf2:	c6 85 fe f1 ff ff 05 	movb   $0x5,-0xe02(%rbp)
   13cf9:	c7 85 ff f1 ff ff 02 	movl   $0x767ccd02,-0xe01(%rbp)
   13d00:	cd 7c 76 
   13d03:	c6 85 03 f2 ff ff 03 	movb   $0x3,-0xdfd(%rbp)
   13d0a:	c7 85 04 f2 ff ff ff 	movl   $0x540000ff,-0xdfc(%rbp)
   13d11:	00 00 54 
   13d14:	c6 85 08 f2 ff ff 49 	movb   $0x49,-0xdf8(%rbp)
   13d1b:	c7 85 09 f2 ff ff 05 	movl   $0xfc014e05,-0xdf7(%rbp)
   13d22:	4e 01 fc 
   13d25:	c6 85 0d f2 ff ff ff 	movb   $0xff,-0xdf3(%rbp)
   13d2c:	c7 85 0e f2 ff ff 06 	movl   $0x2ff06,-0xdf2(%rbp)
   13d33:	ff 02 00 
   13d36:	c6 85 12 f2 ff ff 09 	movb   $0x9,-0xdee(%rbp)
   13d3d:	c7 85 13 f2 ff ff 04 	movl   $0xf0b6f804,-0xded(%rbp)
   13d44:	f8 b6 f0 
   13d47:	c6 85 17 f2 ff ff 12 	movb   $0x12,-0xde9(%rbp)
   13d4e:	c7 85 18 f2 ff ff f9 	movl   $0xbc6cfbf9,-0xde8(%rbp)
   13d55:	fb 6c bc 
   13d58:	c6 85 1c f2 ff ff 54 	movb   $0x54,-0xde4(%rbp)
   13d5f:	c7 85 1d f2 ff ff fc 	movl   $0xa9a5fffc,-0xde3(%rbp)
   13d66:	ff a5 a9 
   13d69:	c6 85 21 f2 ff ff a9 	movb   $0xa9,-0xddf(%rbp)
   13d70:	c7 85 22 f2 ff ff 04 	movl   $0xed040604,-0xdde(%rbp)
   13d77:	06 04 ed 
   13d7a:	c6 85 26 f2 ff ff ff 	movb   $0xff,-0xdda(%rbp)
   13d81:	c7 85 27 f2 ff ff f8 	movl   $0x54fff8,-0xdd9(%rbp)
   13d88:	ff 54 00 
   13d8b:	c6 85 2b f2 ff ff 70 	movb   $0x70,-0xdd5(%rbp)
   13d92:	c7 85 2c f2 ff ff 00 	movl   $0x41eb0900,-0xdd4(%rbp)
   13d99:	09 eb 41 
   13d9c:	c6 85 30 f2 ff ff 04 	movb   $0x4,-0xdd0(%rbp)
   13da3:	c7 85 31 f2 ff ff ff 	movl   $0x705401ff,-0xdcf(%rbp)
   13daa:	01 54 70 
   13dad:	c6 85 35 f2 ff ff 09 	movb   $0x9,-0xdcb(%rbp)
   13db4:	c7 85 36 f2 ff ff 00 	movl   $0x3047c00,-0xdca(%rbp)
   13dbb:	7c 04 03 
   13dbe:	c6 85 3a f2 ff ff 00 	movb   $0x0,-0xdc6(%rbp)
   13dc5:	c7 85 3b f2 ff ff 08 	movl   $0xa50408,-0xdc5(%rbp)
   13dcc:	04 a5 00 
   13dcf:	c6 85 3f f2 ff ff a2 	movb   $0xa2,-0xdc1(%rbp)
   13dd6:	48 b8 00 05 05 00 01 	movabs $0x505000100050500,%rax
   13ddd:	00 05 05 
   13de0:	48 89 45 b4          	mov    %rax,-0x4c(%rbp)
   13de4:	66 c7 45 bc 00 01    	movw   $0x100,-0x44(%rbp)
   13dea:	48 c7 85 c0 ed ff ff 	movq   $0x0,-0x1240(%rbp)
   13df1:	00 00 00 00 
   13df5:	48 8d 85 c0 ed ff ff 	lea    -0x1240(%rbp),%rax
   13dfc:	48 89 85 c8 ed ff ff 	mov    %rax,-0x1238(%rbp)
   13e03:	48 8d 85 c8 ed ff ff 	lea    -0x1238(%rbp),%rax
   13e0a:	48 89 85 d0 ed ff ff 	mov    %rax,-0x1230(%rbp)
   13e11:	c7 85 60 ed ff ff ff 	movl   $0xffffffff,-0x12a0(%rbp)
   13e18:	ff ff ff 
   13e1b:	48 c7 85 c0 ef ff ff 	movq   $0x0,-0x1040(%rbp)
   13e22:	00 00 00 00 
   13e26:	48 c7 85 c8 ef ff ff 	movq   $0x0,-0x1038(%rbp)
   13e2d:	00 00 00 00 
   13e31:	48 c7 85 d0 ef ff ff 	movq   $0x0,-0x1030(%rbp)
   13e38:	00 00 00 00 
   13e3c:	48 c7 85 d8 ef ff ff 	movq   $0x0,-0x1028(%rbp)
   13e43:	00 00 00 00 
   13e47:	48 c7 85 e0 ef ff ff 	movq   $0x0,-0x1020(%rbp)
   13e4e:	00 00 00 00 
   13e52:	48 c7 85 e8 ef ff ff 	movq   $0x0,-0x1018(%rbp)
   13e59:	00 00 00 00 
   13e5d:	48 c7 85 f0 ef ff ff 	movq   $0x0,-0x1010(%rbp)
   13e64:	00 00 00 00 
   13e68:	48 c7 85 f8 ef ff ff 	movq   $0x0,-0x1008(%rbp)
   13e6f:	00 00 00 00 
   13e73:	48 c7 85 00 f0 ff ff 	movq   $0x0,-0x1000(%rbp)
   13e7a:	00 00 00 00 
   13e7e:	66 c7 85 54 ed ff ff 	movw   $0xb7b9,-0x12ac(%rbp)
   13e85:	b9 b7 
   13e87:	c6 85 4c ed ff ff be 	movb   $0xbe,-0x12b4(%rbp)
   13e8e:	c6 85 4d ed ff ff ff 	movb   $0xff,-0x12b3(%rbp)
   13e95:	66 c7 85 56 ed ff ff 	movw   $0x0,-0x12aa(%rbp)
   13e9c:	00 00 
   13e9e:	48 8d 05 bb b9 00 00 	lea    0xb9bb(%rip),%rax        # 1f860 <g_375>
   13ea5:	48 89 85 00 ee ff ff 	mov    %rax,-0x1200(%rbp)
   13eac:	c7 85 84 ed ff ff 00 	movl   $0x0,-0x127c(%rbp)
   13eb3:	00 00 00 
   13eb6:	48 8d 05 73 ae 00 00 	lea    0xae73(%rip),%rax        # 1ed30 <g_812+0x10>
   13ebd:	48 89 85 40 f2 ff ff 	mov    %rax,-0xdc0(%rbp)
   13ec4:	48 c7 85 48 f2 ff ff 	movq   $0x0,-0xdb8(%rbp)
   13ecb:	00 00 00 00 
   13ecf:	48 8d 05 5a ae 00 00 	lea    0xae5a(%rip),%rax        # 1ed30 <g_812+0x10>
   13ed6:	48 89 85 50 f2 ff ff 	mov    %rax,-0xdb0(%rbp)
   13edd:	48 8d 05 4c ae 00 00 	lea    0xae4c(%rip),%rax        # 1ed30 <g_812+0x10>
   13ee4:	48 89 85 58 f2 ff ff 	mov    %rax,-0xda8(%rbp)
   13eeb:	48 8d 05 3e ae 00 00 	lea    0xae3e(%rip),%rax        # 1ed30 <g_812+0x10>
   13ef2:	48 89 85 60 f2 ff ff 	mov    %rax,-0xda0(%rbp)
   13ef9:	48 c7 85 68 f2 ff ff 	movq   $0x0,-0xd98(%rbp)
   13f00:	00 00 00 00 
   13f04:	48 8d 05 25 ae 00 00 	lea    0xae25(%rip),%rax        # 1ed30 <g_812+0x10>
   13f0b:	48 89 85 70 f2 ff ff 	mov    %rax,-0xd90(%rbp)
   13f12:	48 8d 05 17 ae 00 00 	lea    0xae17(%rip),%rax        # 1ed30 <g_812+0x10>
   13f19:	48 89 85 78 f2 ff ff 	mov    %rax,-0xd88(%rbp)
   13f20:	48 8d 05 09 ae 00 00 	lea    0xae09(%rip),%rax        # 1ed30 <g_812+0x10>
   13f27:	48 89 85 80 f2 ff ff 	mov    %rax,-0xd80(%rbp)
   13f2e:	48 c7 85 88 f2 ff ff 	movq   $0x0,-0xd78(%rbp)
   13f35:	00 00 00 00 
   13f39:	48 8d 05 f0 ad 00 00 	lea    0xadf0(%rip),%rax        # 1ed30 <g_812+0x10>
   13f40:	48 89 85 90 f2 ff ff 	mov    %rax,-0xd70(%rbp)
   13f47:	48 8d 05 e2 ad 00 00 	lea    0xade2(%rip),%rax        # 1ed30 <g_812+0x10>
   13f4e:	48 89 85 98 f2 ff ff 	mov    %rax,-0xd68(%rbp)
   13f55:	48 8d 05 d4 ad 00 00 	lea    0xadd4(%rip),%rax        # 1ed30 <g_812+0x10>
   13f5c:	48 89 85 a0 f2 ff ff 	mov    %rax,-0xd60(%rbp)
   13f63:	48 c7 85 a8 f2 ff ff 	movq   $0x0,-0xd58(%rbp)
   13f6a:	00 00 00 00 
   13f6e:	48 8d 05 bb ad 00 00 	lea    0xadbb(%rip),%rax        # 1ed30 <g_812+0x10>
   13f75:	48 89 85 b0 f2 ff ff 	mov    %rax,-0xd50(%rbp)
   13f7c:	48 8d 05 ad ad 00 00 	lea    0xadad(%rip),%rax        # 1ed30 <g_812+0x10>
   13f83:	48 89 85 b8 f2 ff ff 	mov    %rax,-0xd48(%rbp)
   13f8a:	48 8d 05 9f ad 00 00 	lea    0xad9f(%rip),%rax        # 1ed30 <g_812+0x10>
   13f91:	48 89 85 c0 f2 ff ff 	mov    %rax,-0xd40(%rbp)
   13f98:	48 c7 85 c8 f2 ff ff 	movq   $0x0,-0xd38(%rbp)
   13f9f:	00 00 00 00 
   13fa3:	48 8d 05 86 ad 00 00 	lea    0xad86(%rip),%rax        # 1ed30 <g_812+0x10>
   13faa:	48 89 85 d0 f2 ff ff 	mov    %rax,-0xd30(%rbp)
   13fb1:	48 8d 05 78 ad 00 00 	lea    0xad78(%rip),%rax        # 1ed30 <g_812+0x10>
   13fb8:	48 89 85 d8 f2 ff ff 	mov    %rax,-0xd28(%rbp)
   13fbf:	48 8d 05 6a ad 00 00 	lea    0xad6a(%rip),%rax        # 1ed30 <g_812+0x10>
   13fc6:	48 89 85 e0 f2 ff ff 	mov    %rax,-0xd20(%rbp)
   13fcd:	48 c7 85 e8 f2 ff ff 	movq   $0x0,-0xd18(%rbp)
   13fd4:	00 00 00 00 
   13fd8:	48 8d 05 51 ad 00 00 	lea    0xad51(%rip),%rax        # 1ed30 <g_812+0x10>
   13fdf:	48 89 85 f0 f2 ff ff 	mov    %rax,-0xd10(%rbp)
   13fe6:	48 8d 05 43 ad 00 00 	lea    0xad43(%rip),%rax        # 1ed30 <g_812+0x10>
   13fed:	48 89 85 f8 f2 ff ff 	mov    %rax,-0xd08(%rbp)
   13ff4:	48 8d 05 35 ad 00 00 	lea    0xad35(%rip),%rax        # 1ed30 <g_812+0x10>
   13ffb:	48 89 85 00 f3 ff ff 	mov    %rax,-0xd00(%rbp)
   14002:	48 c7 85 08 f3 ff ff 	movq   $0x0,-0xcf8(%rbp)
   14009:	00 00 00 00 
   1400d:	48 8d 05 1c ad 00 00 	lea    0xad1c(%rip),%rax        # 1ed30 <g_812+0x10>
   14014:	48 89 85 10 f3 ff ff 	mov    %rax,-0xcf0(%rbp)
   1401b:	48 8d 05 0e ad 00 00 	lea    0xad0e(%rip),%rax        # 1ed30 <g_812+0x10>
   14022:	48 89 85 18 f3 ff ff 	mov    %rax,-0xce8(%rbp)
   14029:	48 8d 05 00 ad 00 00 	lea    0xad00(%rip),%rax        # 1ed30 <g_812+0x10>
   14030:	48 89 85 20 f3 ff ff 	mov    %rax,-0xce0(%rbp)
   14037:	48 c7 85 28 f3 ff ff 	movq   $0x0,-0xcd8(%rbp)
   1403e:	00 00 00 00 
   14042:	48 8d 05 e7 ac 00 00 	lea    0xace7(%rip),%rax        # 1ed30 <g_812+0x10>
   14049:	48 89 85 30 f3 ff ff 	mov    %rax,-0xcd0(%rbp)
   14050:	48 8d 05 d9 ac 00 00 	lea    0xacd9(%rip),%rax        # 1ed30 <g_812+0x10>
   14057:	48 89 85 38 f3 ff ff 	mov    %rax,-0xcc8(%rbp)
   1405e:	c7 85 10 f0 ff ff 21 	movl   $0xac08d321,-0xff0(%rbp)
   14065:	d3 08 ac 
   14068:	c7 85 14 f0 ff ff 21 	movl   $0xac08d321,-0xfec(%rbp)
   1406f:	d3 08 ac 
   14072:	c7 85 18 f0 ff ff 21 	movl   $0xac08d321,-0xfe8(%rbp)
   14079:	d3 08 ac 
   1407c:	c7 85 1c f0 ff ff 21 	movl   $0xac08d321,-0xfe4(%rbp)
   14083:	d3 08 ac 
   14086:	c7 85 20 f0 ff ff 21 	movl   $0xac08d321,-0xfe0(%rbp)
   1408d:	d3 08 ac 
   14090:	c7 85 24 f0 ff ff 21 	movl   $0xac08d321,-0xfdc(%rbp)
   14097:	d3 08 ac 
   1409a:	c7 85 28 f0 ff ff 21 	movl   $0xac08d321,-0xfd8(%rbp)
   140a1:	d3 08 ac 
   140a4:	c7 85 2c f0 ff ff 21 	movl   $0xac08d321,-0xfd4(%rbp)
   140ab:	d3 08 ac 
   140ae:	c7 85 30 f0 ff ff 21 	movl   $0xac08d321,-0xfd0(%rbp)
   140b5:	d3 08 ac 
   140b8:	c7 85 34 f0 ff ff 00 	movl   $0x0,-0xfcc(%rbp)
   140bf:	00 00 00 
   140c2:	c7 85 38 f0 ff ff 09 	movl   $0x9,-0xfc8(%rbp)
   140c9:	00 00 00 
   140cc:	c7 85 3c f0 ff ff 00 	movl   $0x0,-0xfc4(%rbp)
   140d3:	00 00 00 
   140d6:	c7 85 40 f0 ff ff 09 	movl   $0x9,-0xfc0(%rbp)
   140dd:	00 00 00 
   140e0:	c7 85 44 f0 ff ff 00 	movl   $0x0,-0xfbc(%rbp)
   140e7:	00 00 00 
   140ea:	c7 85 48 f0 ff ff 09 	movl   $0x9,-0xfb8(%rbp)
   140f1:	00 00 00 
   140f4:	c7 85 4c f0 ff ff 00 	movl   $0x0,-0xfb4(%rbp)
   140fb:	00 00 00 
   140fe:	c7 85 50 f0 ff ff 09 	movl   $0x9,-0xfb0(%rbp)
   14105:	00 00 00 
   14108:	c7 85 54 f0 ff ff 00 	movl   $0x0,-0xfac(%rbp)
   1410f:	00 00 00 
   14112:	c7 85 58 f0 ff ff 21 	movl   $0xac08d321,-0xfa8(%rbp)
   14119:	d3 08 ac 
   1411c:	c7 85 5c f0 ff ff 21 	movl   $0xac08d321,-0xfa4(%rbp)
   14123:	d3 08 ac 
   14126:	c7 85 60 f0 ff ff 21 	movl   $0xac08d321,-0xfa0(%rbp)
   1412d:	d3 08 ac 
   14130:	c7 85 64 f0 ff ff 21 	movl   $0xac08d321,-0xf9c(%rbp)
   14137:	d3 08 ac 
   1413a:	c7 85 68 f0 ff ff 21 	movl   $0xac08d321,-0xf98(%rbp)
   14141:	d3 08 ac 
   14144:	c7 85 6c f0 ff ff 21 	movl   $0xac08d321,-0xf94(%rbp)
   1414b:	d3 08 ac 
   1414e:	c7 85 70 f0 ff ff 21 	movl   $0xac08d321,-0xf90(%rbp)
   14155:	d3 08 ac 
   14158:	c7 85 74 f0 ff ff 21 	movl   $0xac08d321,-0xf8c(%rbp)
   1415f:	d3 08 ac 
   14162:	c7 85 78 f0 ff ff 21 	movl   $0xac08d321,-0xf88(%rbp)
   14169:	d3 08 ac 
   1416c:	c7 85 7c f0 ff ff 00 	movl   $0x0,-0xf84(%rbp)
   14173:	00 00 00 
   14176:	c7 85 80 f0 ff ff 09 	movl   $0x9,-0xf80(%rbp)
   1417d:	00 00 00 
   14180:	c7 85 84 f0 ff ff 00 	movl   $0x0,-0xf7c(%rbp)
   14187:	00 00 00 
   1418a:	c7 85 88 f0 ff ff 09 	movl   $0x9,-0xf78(%rbp)
   14191:	00 00 00 
   14194:	c7 85 8c f0 ff ff 00 	movl   $0x0,-0xf74(%rbp)
   1419b:	00 00 00 
   1419e:	c7 85 90 f0 ff ff 09 	movl   $0x9,-0xf70(%rbp)
   141a5:	00 00 00 
   141a8:	c7 85 94 f0 ff ff 00 	movl   $0x0,-0xf6c(%rbp)
   141af:	00 00 00 
   141b2:	c7 85 98 f0 ff ff 09 	movl   $0x9,-0xf68(%rbp)
   141b9:	00 00 00 
   141bc:	c7 85 9c f0 ff ff 00 	movl   $0x0,-0xf64(%rbp)
   141c3:	00 00 00 
   141c6:	48 8d 05 0d 8f 00 00 	lea    0x8f0d(%rip),%rax        # 1d0da <g_438>
   141cd:	48 89 85 d8 ed ff ff 	mov    %rax,-0x1228(%rbp)
   141d4:	48 8d 85 d8 ed ff ff 	lea    -0x1228(%rbp),%rax
   141db:	48 89 85 08 ee ff ff 	mov    %rax,-0x11f8(%rbp)
   141e2:	66 c7 85 50 ed ff ff 	movw   $0x324b,-0x12b0(%rbp)
   141e9:	4b 32 
   141eb:	66 c7 85 58 ed ff ff 	movw   $0x3,-0x12a8(%rbp)
   141f2:	03 00 
   141f4:	c7 85 68 ed ff ff 00 	movl   $0x0,-0x1298(%rbp)
   141fb:	00 00 00 
   141fe:	eb 1a                	jmp    1421a <func_68+0x7ce>
   14200:	8b 85 68 ed ff ff    	mov    -0x1298(%rbp),%eax
   14206:	48 98                	cltq   
   14208:	c7 84 85 20 ef ff ff 	movl   $0x1b637ea3,-0x10e0(%rbp,%rax,4)
   1420f:	a3 7e 63 1b 
   14213:	83 85 68 ed ff ff 01 	addl   $0x1,-0x1298(%rbp)
   1421a:	83 bd 68 ed ff ff 09 	cmpl   $0x9,-0x1298(%rbp)
   14221:	7e dd                	jle    14200 <func_68+0x7b4>
   14223:	c7 85 68 ed ff ff 00 	movl   $0x0,-0x1298(%rbp)
   1422a:	00 00 00 
   1422d:	eb 14                	jmp    14243 <func_68+0x7f7>
   1422f:	8b 85 68 ed ff ff    	mov    -0x1298(%rbp),%eax
   14235:	48 98                	cltq   
   14237:	c6 44 05 be 44       	movb   $0x44,-0x42(%rbp,%rax,1)
   1423c:	83 85 68 ed ff ff 01 	addl   $0x1,-0x1298(%rbp)
   14243:	83 bd 68 ed ff ff 09 	cmpl   $0x9,-0x1298(%rbp)
   1424a:	7e e3                	jle    1422f <func_68+0x7e3>
   1424c:	90                   	nop
   1424d:	c7 85 38 ed ff ff 00 	movl   $0x0,-0x12c8(%rbp)
   14254:	00 00 00 
   14257:	e9 35 23 00 00       	jmpq   16591 <func_68+0x2b45>
   1425c:	66 c7 85 52 ed ff ff 	movw   $0x0,-0x12ae(%rbp)
   14263:	00 00 
   14265:	48 8d 05 e0 b5 00 00 	lea    0xb5e0(%rip),%rax        # 1f84c <g_95>
   1426c:	48 89 85 e0 ed ff ff 	mov    %rax,-0x1220(%rbp)
   14273:	c7 85 88 ed ff ff 00 	movl   $0x0,-0x1278(%rbp)
   1427a:	00 00 00 
   1427d:	c7 85 6c ed ff ff 07 	movl   $0x7,-0x1294(%rbp)
   14284:	00 00 00 
   14287:	c7 85 e0 ee ff ff 01 	movl   $0x1,-0x1120(%rbp)
   1428e:	00 00 00 
   14291:	c7 85 e4 ee ff ff 01 	movl   $0x1,-0x111c(%rbp)
   14298:	00 00 00 
   1429b:	c7 85 e8 ee ff ff 01 	movl   $0x1,-0x1118(%rbp)
   142a2:	00 00 00 
   142a5:	c7 85 ec ee ff ff 01 	movl   $0x1,-0x1114(%rbp)
   142ac:	00 00 00 
   142af:	c7 85 f0 ee ff ff 01 	movl   $0x1,-0x1110(%rbp)
   142b6:	00 00 00 
   142b9:	48 8d 85 50 f1 ff ff 	lea    -0xeb0(%rbp),%rax
   142c0:	48 05 a1 00 00 00    	add    $0xa1,%rax
   142c6:	48 89 85 f0 f5 ff ff 	mov    %rax,-0xa10(%rbp)
   142cd:	48 c7 85 f8 f5 ff ff 	movq   $0x0,-0xa08(%rbp)
   142d4:	00 00 00 00 
   142d8:	48 8d 85 50 f1 ff ff 	lea    -0xeb0(%rbp),%rax
   142df:	48 83 c0 72          	add    $0x72,%rax
   142e3:	48 89 85 00 f6 ff ff 	mov    %rax,-0xa00(%rbp)
   142ea:	48 8d 85 50 f1 ff ff 	lea    -0xeb0(%rbp),%rax
   142f1:	48 83 c0 72          	add    $0x72,%rax
   142f5:	48 89 85 08 f6 ff ff 	mov    %rax,-0x9f8(%rbp)
   142fc:	48 c7 85 10 f6 ff ff 	movq   $0x0,-0x9f0(%rbp)
   14303:	00 00 00 00 
   14307:	48 8d 85 50 f1 ff ff 	lea    -0xeb0(%rbp),%rax
   1430e:	48 83 c0 72          	add    $0x72,%rax
   14312:	48 89 85 18 f6 ff ff 	mov    %rax,-0x9e8(%rbp)
   14319:	48 c7 85 20 f6 ff ff 	movq   $0x0,-0x9e0(%rbp)
   14320:	00 00 00 00 
   14324:	48 8d 85 50 f1 ff ff 	lea    -0xeb0(%rbp),%rax
   1432b:	48 83 c0 72          	add    $0x72,%rax
   1432f:	48 89 85 28 f6 ff ff 	mov    %rax,-0x9d8(%rbp)
   14336:	48 8d 85 50 f1 ff ff 	lea    -0xeb0(%rbp),%rax
   1433d:	48 83 c0 72          	add    $0x72,%rax
   14341:	48 89 85 30 f6 ff ff 	mov    %rax,-0x9d0(%rbp)
   14348:	48 c7 85 38 f6 ff ff 	movq   $0x0,-0x9c8(%rbp)
   1434f:	00 00 00 00 
   14353:	48 c7 85 40 f6 ff ff 	movq   $0x0,-0x9c0(%rbp)
   1435a:	00 00 00 00 
   1435e:	48 8d 85 50 f1 ff ff 	lea    -0xeb0(%rbp),%rax
   14365:	48 05 da 00 00 00    	add    $0xda,%rax
   1436b:	48 89 85 48 f6 ff ff 	mov    %rax,-0x9b8(%rbp)
   14372:	48 8d 85 50 f1 ff ff 	lea    -0xeb0(%rbp),%rax
   14379:	48 83 c0 72          	add    $0x72,%rax
   1437d:	48 89 85 50 f6 ff ff 	mov    %rax,-0x9b0(%rbp)
   14384:	48 8d 85 50 f1 ff ff 	lea    -0xeb0(%rbp),%rax
   1438b:	48 05 e2 00 00 00    	add    $0xe2,%rax
   14391:	48 89 85 58 f6 ff ff 	mov    %rax,-0x9a8(%rbp)
   14398:	48 8d 85 50 f1 ff ff 	lea    -0xeb0(%rbp),%rax
   1439f:	48 83 c0 72          	add    $0x72,%rax
   143a3:	48 89 85 60 f6 ff ff 	mov    %rax,-0x9a0(%rbp)
   143aa:	48 8d 85 50 f1 ff ff 	lea    -0xeb0(%rbp),%rax
   143b1:	48 83 c0 6d          	add    $0x6d,%rax
   143b5:	48 89 85 68 f6 ff ff 	mov    %rax,-0x998(%rbp)
   143bc:	48 8d 85 50 f1 ff ff 	lea    -0xeb0(%rbp),%rax
   143c3:	48 83 c0 72          	add    $0x72,%rax
   143c7:	48 89 85 70 f6 ff ff 	mov    %rax,-0x990(%rbp)
   143ce:	48 c7 85 78 f6 ff ff 	movq   $0x0,-0x988(%rbp)
   143d5:	00 00 00 00 
   143d9:	48 8d 85 50 f1 ff ff 	lea    -0xeb0(%rbp),%rax
   143e0:	48 83 c0 27          	add    $0x27,%rax
   143e4:	48 89 85 80 f6 ff ff 	mov    %rax,-0x980(%rbp)
   143eb:	48 8d 85 50 f1 ff ff 	lea    -0xeb0(%rbp),%rax
   143f2:	48 05 a1 00 00 00    	add    $0xa1,%rax
   143f8:	48 89 85 88 f6 ff ff 	mov    %rax,-0x978(%rbp)
   143ff:	48 8d 85 50 f1 ff ff 	lea    -0xeb0(%rbp),%rax
   14406:	48 83 c0 72          	add    $0x72,%rax
   1440a:	48 89 85 90 f6 ff ff 	mov    %rax,-0x970(%rbp)
   14411:	48 8d 85 50 f1 ff ff 	lea    -0xeb0(%rbp),%rax
   14418:	48 83 c0 11          	add    $0x11,%rax
   1441c:	48 89 85 98 f6 ff ff 	mov    %rax,-0x968(%rbp)
   14423:	48 8d 85 50 f1 ff ff 	lea    -0xeb0(%rbp),%rax
   1442a:	48 83 c0 72          	add    $0x72,%rax
   1442e:	48 89 85 a0 f6 ff ff 	mov    %rax,-0x960(%rbp)
   14435:	48 8d 85 50 f1 ff ff 	lea    -0xeb0(%rbp),%rax
   1443c:	48 05 a1 00 00 00    	add    $0xa1,%rax
   14442:	48 89 85 a8 f6 ff ff 	mov    %rax,-0x958(%rbp)
   14449:	48 8d 85 50 f1 ff ff 	lea    -0xeb0(%rbp),%rax
   14450:	48 83 c0 60          	add    $0x60,%rax
   14454:	48 89 85 b0 f6 ff ff 	mov    %rax,-0x950(%rbp)
   1445b:	48 8d 85 50 f1 ff ff 	lea    -0xeb0(%rbp),%rax
   14462:	48 83 c0 6d          	add    $0x6d,%rax
   14466:	48 89 85 b8 f6 ff ff 	mov    %rax,-0x948(%rbp)
   1446d:	48 c7 85 c0 f6 ff ff 	movq   $0x0,-0x940(%rbp)
   14474:	00 00 00 00 
   14478:	48 c7 85 c8 f6 ff ff 	movq   $0x0,-0x938(%rbp)
   1447f:	00 00 00 00 
   14483:	48 8d 85 50 f1 ff ff 	lea    -0xeb0(%rbp),%rax
   1448a:	48 83 c0 6d          	add    $0x6d,%rax
   1448e:	48 89 85 d0 f6 ff ff 	mov    %rax,-0x930(%rbp)
   14495:	48 8d 85 50 f1 ff ff 	lea    -0xeb0(%rbp),%rax
   1449c:	48 83 c0 60          	add    $0x60,%rax
   144a0:	48 89 85 d8 f6 ff ff 	mov    %rax,-0x928(%rbp)
   144a7:	48 c7 85 e0 f6 ff ff 	movq   $0x0,-0x920(%rbp)
   144ae:	00 00 00 00 
   144b2:	48 c7 85 e8 f6 ff ff 	movq   $0x0,-0x918(%rbp)
   144b9:	00 00 00 00 
   144bd:	48 c7 85 f0 f6 ff ff 	movq   $0x0,-0x910(%rbp)
   144c4:	00 00 00 00 
   144c8:	48 c7 85 f8 f6 ff ff 	movq   $0x0,-0x908(%rbp)
   144cf:	00 00 00 00 
   144d3:	48 8d 85 50 f1 ff ff 	lea    -0xeb0(%rbp),%rax
   144da:	48 83 c0 72          	add    $0x72,%rax
   144de:	48 89 85 00 f7 ff ff 	mov    %rax,-0x900(%rbp)
   144e5:	48 8d 85 50 f1 ff ff 	lea    -0xeb0(%rbp),%rax
   144ec:	48 83 c0 72          	add    $0x72,%rax
   144f0:	48 89 85 08 f7 ff ff 	mov    %rax,-0x8f8(%rbp)
   144f7:	48 8d 85 50 f1 ff ff 	lea    -0xeb0(%rbp),%rax
   144fe:	48 83 c0 27          	add    $0x27,%rax
   14502:	48 89 85 10 f7 ff ff 	mov    %rax,-0x8f0(%rbp)
   14509:	48 8d 85 50 f1 ff ff 	lea    -0xeb0(%rbp),%rax
   14510:	48 83 c0 72          	add    $0x72,%rax
   14514:	48 89 85 18 f7 ff ff 	mov    %rax,-0x8e8(%rbp)
   1451b:	48 c7 85 20 f7 ff ff 	movq   $0x0,-0x8e0(%rbp)
   14522:	00 00 00 00 
   14526:	48 8d 85 50 f1 ff ff 	lea    -0xeb0(%rbp),%rax
   1452d:	48 83 c0 6d          	add    $0x6d,%rax
   14531:	48 89 85 28 f7 ff ff 	mov    %rax,-0x8d8(%rbp)
   14538:	48 8d 85 50 f1 ff ff 	lea    -0xeb0(%rbp),%rax
   1453f:	48 83 c0 60          	add    $0x60,%rax
   14543:	48 89 85 30 f7 ff ff 	mov    %rax,-0x8d0(%rbp)
   1454a:	48 8d 85 50 f1 ff ff 	lea    -0xeb0(%rbp),%rax
   14551:	48 83 c0 72          	add    $0x72,%rax
   14555:	48 89 85 38 f7 ff ff 	mov    %rax,-0x8c8(%rbp)
   1455c:	48 8d 85 50 f1 ff ff 	lea    -0xeb0(%rbp),%rax
   14563:	48 05 da 00 00 00    	add    $0xda,%rax
   14569:	48 89 85 40 f7 ff ff 	mov    %rax,-0x8c0(%rbp)
   14570:	48 8d 85 50 f1 ff ff 	lea    -0xeb0(%rbp),%rax
   14577:	48 83 c0 72          	add    $0x72,%rax
   1457b:	48 89 85 48 f7 ff ff 	mov    %rax,-0x8b8(%rbp)
   14582:	48 8d 85 50 f1 ff ff 	lea    -0xeb0(%rbp),%rax
   14589:	48 83 c0 72          	add    $0x72,%rax
   1458d:	48 89 85 50 f7 ff ff 	mov    %rax,-0x8b0(%rbp)
   14594:	48 8d 85 50 f1 ff ff 	lea    -0xeb0(%rbp),%rax
   1459b:	48 83 c0 72          	add    $0x72,%rax
   1459f:	48 89 85 58 f7 ff ff 	mov    %rax,-0x8a8(%rbp)
   145a6:	48 c7 85 60 f7 ff ff 	movq   $0x0,-0x8a0(%rbp)
   145ad:	00 00 00 00 
   145b1:	48 8d 85 50 f1 ff ff 	lea    -0xeb0(%rbp),%rax
   145b8:	48 05 a1 00 00 00    	add    $0xa1,%rax
   145be:	48 89 85 68 f7 ff ff 	mov    %rax,-0x898(%rbp)
   145c5:	48 c7 85 70 f7 ff ff 	movq   $0x0,-0x890(%rbp)
   145cc:	00 00 00 00 
   145d0:	48 8d 85 50 f1 ff ff 	lea    -0xeb0(%rbp),%rax
   145d7:	48 05 a1 00 00 00    	add    $0xa1,%rax
   145dd:	48 89 85 78 f7 ff ff 	mov    %rax,-0x888(%rbp)
   145e4:	48 c7 85 80 f7 ff ff 	movq   $0x0,-0x880(%rbp)
   145eb:	00 00 00 00 
   145ef:	48 c7 85 88 f7 ff ff 	movq   $0x0,-0x878(%rbp)
   145f6:	00 00 00 00 
   145fa:	48 8d 85 50 f1 ff ff 	lea    -0xeb0(%rbp),%rax
   14601:	48 83 c0 27          	add    $0x27,%rax
   14605:	48 89 85 90 f7 ff ff 	mov    %rax,-0x870(%rbp)
   1460c:	48 c7 85 98 f7 ff ff 	movq   $0x0,-0x868(%rbp)
   14613:	00 00 00 00 
   14617:	48 8d 85 50 f1 ff ff 	lea    -0xeb0(%rbp),%rax
   1461e:	48 83 c0 27          	add    $0x27,%rax
   14622:	48 89 85 a0 f7 ff ff 	mov    %rax,-0x860(%rbp)
   14629:	48 c7 85 a8 f7 ff ff 	movq   $0x0,-0x858(%rbp)
   14630:	00 00 00 00 
   14634:	48 c7 85 b0 f7 ff ff 	movq   $0x0,-0x850(%rbp)
   1463b:	00 00 00 00 
   1463f:	48 8d 85 50 f1 ff ff 	lea    -0xeb0(%rbp),%rax
   14646:	48 83 c0 72          	add    $0x72,%rax
   1464a:	48 89 85 b8 f7 ff ff 	mov    %rax,-0x848(%rbp)
   14651:	48 8d 85 50 f1 ff ff 	lea    -0xeb0(%rbp),%rax
   14658:	48 83 c0 72          	add    $0x72,%rax
   1465c:	48 89 85 c0 f7 ff ff 	mov    %rax,-0x840(%rbp)
   14663:	48 8d 85 50 f1 ff ff 	lea    -0xeb0(%rbp),%rax
   1466a:	48 83 c0 11          	add    $0x11,%rax
   1466e:	48 89 85 c8 f7 ff ff 	mov    %rax,-0x838(%rbp)
   14675:	48 c7 85 d0 f7 ff ff 	movq   $0x0,-0x830(%rbp)
   1467c:	00 00 00 00 
   14680:	48 8d 85 50 f1 ff ff 	lea    -0xeb0(%rbp),%rax
   14687:	48 83 c0 72          	add    $0x72,%rax
   1468b:	48 89 85 d8 f7 ff ff 	mov    %rax,-0x828(%rbp)
   14692:	48 8d 85 50 f1 ff ff 	lea    -0xeb0(%rbp),%rax
   14699:	48 83 c0 72          	add    $0x72,%rax
   1469d:	48 89 85 e0 f7 ff ff 	mov    %rax,-0x820(%rbp)
   146a4:	48 8d 85 50 f1 ff ff 	lea    -0xeb0(%rbp),%rax
   146ab:	48 83 c0 60          	add    $0x60,%rax
   146af:	48 89 85 e8 f7 ff ff 	mov    %rax,-0x818(%rbp)
   146b6:	48 c7 85 f0 f7 ff ff 	movq   $0x0,-0x810(%rbp)
   146bd:	00 00 00 00 
   146c1:	48 8d 85 50 f1 ff ff 	lea    -0xeb0(%rbp),%rax
   146c8:	48 83 c0 11          	add    $0x11,%rax
   146cc:	48 89 85 f8 f7 ff ff 	mov    %rax,-0x808(%rbp)
   146d3:	48 8d 85 50 f1 ff ff 	lea    -0xeb0(%rbp),%rax
   146da:	48 83 c0 72          	add    $0x72,%rax
   146de:	48 89 85 00 f8 ff ff 	mov    %rax,-0x800(%rbp)
   146e5:	48 8d 85 50 f1 ff ff 	lea    -0xeb0(%rbp),%rax
   146ec:	48 83 c0 72          	add    $0x72,%rax
   146f0:	48 89 85 08 f8 ff ff 	mov    %rax,-0x7f8(%rbp)
   146f7:	48 8d 85 50 f1 ff ff 	lea    -0xeb0(%rbp),%rax
   146fe:	48 05 a1 00 00 00    	add    $0xa1,%rax
   14704:	48 89 85 10 f8 ff ff 	mov    %rax,-0x7f0(%rbp)
   1470b:	48 8d 85 50 f1 ff ff 	lea    -0xeb0(%rbp),%rax
   14712:	48 83 c0 72          	add    $0x72,%rax
   14716:	48 89 85 18 f8 ff ff 	mov    %rax,-0x7e8(%rbp)
   1471d:	48 8d 85 c8 ed ff ff 	lea    -0x1238(%rbp),%rax
   14724:	48 89 85 10 ee ff ff 	mov    %rax,-0x11f0(%rbp)
   1472b:	48 8d 05 7e 89 00 00 	lea    0x897e(%rip),%rax        # 1d0b0 <g_173>
   14732:	48 89 85 e8 ed ff ff 	mov    %rax,-0x1218(%rbp)
   14739:	c7 85 8c ed ff ff ff 	movl   $0xffffffff,-0x1274(%rbp)
   14740:	ff ff ff 
   14743:	48 8d 05 5e 89 00 00 	lea    0x895e(%rip),%rax        # 1d0a8 <g_145>
   1474a:	48 89 85 40 f4 ff ff 	mov    %rax,-0xbc0(%rbp)
   14751:	48 8d 05 50 89 00 00 	lea    0x8950(%rip),%rax        # 1d0a8 <g_145>
   14758:	48 89 85 48 f4 ff ff 	mov    %rax,-0xbb8(%rbp)
   1475f:	48 c7 85 50 f4 ff ff 	movq   $0x0,-0xbb0(%rbp)
   14766:	00 00 00 00 
   1476a:	48 8d 05 e7 b0 00 00 	lea    0xb0e7(%rip),%rax        # 1f858 <g_101>
   14771:	48 89 85 58 f4 ff ff 	mov    %rax,-0xba8(%rbp)
   14778:	48 8d 05 29 89 00 00 	lea    0x8929(%rip),%rax        # 1d0a8 <g_145>
   1477f:	48 89 85 60 f4 ff ff 	mov    %rax,-0xba0(%rbp)
   14786:	48 8d 85 60 ed ff ff 	lea    -0x12a0(%rbp),%rax
   1478d:	48 89 85 68 f4 ff ff 	mov    %rax,-0xb98(%rbp)
   14794:	48 8d 05 05 89 00 00 	lea    0x8905(%rip),%rax        # 1d0a0 <g_107>
   1479b:	48 89 85 70 f4 ff ff 	mov    %rax,-0xb90(%rbp)
   147a2:	48 c7 85 78 f4 ff ff 	movq   $0x0,-0xb88(%rbp)
   147a9:	00 00 00 00 
   147ad:	48 c7 85 80 f4 ff ff 	movq   $0x0,-0xb80(%rbp)
   147b4:	00 00 00 00 
   147b8:	48 8d 05 e1 88 00 00 	lea    0x88e1(%rip),%rax        # 1d0a0 <g_107>
   147bf:	48 89 85 88 f4 ff ff 	mov    %rax,-0xb78(%rbp)
   147c6:	48 8d 85 60 ed ff ff 	lea    -0x12a0(%rbp),%rax
   147cd:	48 89 85 90 f4 ff ff 	mov    %rax,-0xb70(%rbp)
   147d4:	48 8d 05 cd 88 00 00 	lea    0x88cd(%rip),%rax        # 1d0a8 <g_145>
   147db:	48 89 85 98 f4 ff ff 	mov    %rax,-0xb68(%rbp)
   147e2:	48 8d 05 6f b0 00 00 	lea    0xb06f(%rip),%rax        # 1f858 <g_101>
   147e9:	48 89 85 a0 f4 ff ff 	mov    %rax,-0xb60(%rbp)
   147f0:	48 c7 85 a8 f4 ff ff 	movq   $0x0,-0xb58(%rbp)
   147f7:	00 00 00 00 
   147fb:	48 8d 05 a6 88 00 00 	lea    0x88a6(%rip),%rax        # 1d0a8 <g_145>
   14802:	48 89 85 b0 f4 ff ff 	mov    %rax,-0xb50(%rbp)
   14809:	48 8d 05 98 88 00 00 	lea    0x8898(%rip),%rax        # 1d0a8 <g_145>
   14810:	48 89 85 b8 f4 ff ff 	mov    %rax,-0xb48(%rbp)
   14817:	48 c7 85 c0 f4 ff ff 	movq   $0x0,-0xb40(%rbp)
   1481e:	00 00 00 00 
   14822:	48 8d 05 77 88 00 00 	lea    0x8877(%rip),%rax        # 1d0a0 <g_107>
   14829:	48 89 85 c8 f4 ff ff 	mov    %rax,-0xb38(%rbp)
   14830:	48 c7 85 d0 f4 ff ff 	movq   $0x0,-0xb30(%rbp)
   14837:	00 00 00 00 
   1483b:	48 8d 85 60 ed ff ff 	lea    -0x12a0(%rbp),%rax
   14842:	48 89 85 d8 f4 ff ff 	mov    %rax,-0xb28(%rbp)
   14849:	48 c7 85 e0 f4 ff ff 	movq   $0x0,-0xb20(%rbp)
   14850:	00 00 00 00 
   14854:	48 c7 85 e8 f4 ff ff 	movq   $0x0,-0xb18(%rbp)
   1485b:	00 00 00 00 
   1485f:	48 c7 85 f0 f4 ff ff 	movq   $0x0,-0xb10(%rbp)
   14866:	00 00 00 00 
   1486a:	48 8d 05 37 88 00 00 	lea    0x8837(%rip),%rax        # 1d0a8 <g_145>
   14871:	48 89 85 f8 f4 ff ff 	mov    %rax,-0xb08(%rbp)
   14878:	48 8d 05 21 88 00 00 	lea    0x8821(%rip),%rax        # 1d0a0 <g_107>
   1487f:	48 89 85 00 f5 ff ff 	mov    %rax,-0xb00(%rbp)
   14886:	48 c7 85 08 f5 ff ff 	movq   $0x0,-0xaf8(%rbp)
   1488d:	00 00 00 00 
   14891:	48 c7 85 10 f5 ff ff 	movq   $0x0,-0xaf0(%rbp)
   14898:	00 00 00 00 
   1489c:	48 8d 05 b5 af 00 00 	lea    0xafb5(%rip),%rax        # 1f858 <g_101>
   148a3:	48 89 85 18 f5 ff ff 	mov    %rax,-0xae8(%rbp)
   148aa:	48 8d 85 60 ed ff ff 	lea    -0x12a0(%rbp),%rax
   148b1:	48 89 85 20 f5 ff ff 	mov    %rax,-0xae0(%rbp)
   148b8:	48 8d 85 60 ed ff ff 	lea    -0x12a0(%rbp),%rax
   148bf:	48 89 85 28 f5 ff ff 	mov    %rax,-0xad8(%rbp)
   148c6:	48 8d 85 60 ed ff ff 	lea    -0x12a0(%rbp),%rax
   148cd:	48 89 85 30 f5 ff ff 	mov    %rax,-0xad0(%rbp)
   148d4:	48 c7 85 38 f5 ff ff 	movq   $0x0,-0xac8(%rbp)
   148db:	00 00 00 00 
   148df:	48 8d 85 60 ed ff ff 	lea    -0x12a0(%rbp),%rax
   148e6:	48 89 85 40 f5 ff ff 	mov    %rax,-0xac0(%rbp)
   148ed:	48 8d 05 e0 87 00 00 	lea    0x87e0(%rip),%rax        # 1d0d4 <g_399>
   148f4:	48 89 85 48 f5 ff ff 	mov    %rax,-0xab8(%rbp)
   148fb:	48 8d 05 a6 87 00 00 	lea    0x87a6(%rip),%rax        # 1d0a8 <g_145>
   14902:	48 89 85 50 f5 ff ff 	mov    %rax,-0xab0(%rbp)
   14909:	48 c7 85 58 f5 ff ff 	movq   $0x0,-0xaa8(%rbp)
   14910:	00 00 00 00 
   14914:	48 c7 85 60 f5 ff ff 	movq   $0x0,-0xaa0(%rbp)
   1491b:	00 00 00 00 
   1491f:	48 8d 05 82 87 00 00 	lea    0x8782(%rip),%rax        # 1d0a8 <g_145>
   14926:	48 89 85 68 f5 ff ff 	mov    %rax,-0xa98(%rbp)
   1492d:	48 8d 05 74 87 00 00 	lea    0x8774(%rip),%rax        # 1d0a8 <g_145>
   14934:	48 89 85 70 f5 ff ff 	mov    %rax,-0xa90(%rbp)
   1493b:	48 c7 85 78 f5 ff ff 	movq   $0x0,-0xa88(%rbp)
   14942:	00 00 00 00 
   14946:	48 8d 05 53 87 00 00 	lea    0x8753(%rip),%rax        # 1d0a0 <g_107>
   1494d:	48 89 85 80 f5 ff ff 	mov    %rax,-0xa80(%rbp)
   14954:	48 c7 85 88 f5 ff ff 	movq   $0x0,-0xa78(%rbp)
   1495b:	00 00 00 00 
   1495f:	48 8d 05 42 87 00 00 	lea    0x8742(%rip),%rax        # 1d0a8 <g_145>
   14966:	48 89 85 90 f5 ff ff 	mov    %rax,-0xa70(%rbp)
   1496d:	48 c7 85 98 f5 ff ff 	movq   $0x0,-0xa68(%rbp)
   14974:	00 00 00 00 
   14978:	48 8d 05 21 87 00 00 	lea    0x8721(%rip),%rax        # 1d0a0 <g_107>
   1497f:	48 89 85 a0 f5 ff ff 	mov    %rax,-0xa60(%rbp)
   14986:	48 c7 85 a8 f5 ff ff 	movq   $0x0,-0xa58(%rbp)
   1498d:	00 00 00 00 
   14991:	48 8d 05 10 87 00 00 	lea    0x8710(%rip),%rax        # 1d0a8 <g_145>
   14998:	48 89 85 b0 f5 ff ff 	mov    %rax,-0xa50(%rbp)
   1499f:	48 8d 05 02 87 00 00 	lea    0x8702(%rip),%rax        # 1d0a8 <g_145>
   149a6:	48 89 85 b8 f5 ff ff 	mov    %rax,-0xa48(%rbp)
   149ad:	48 c7 85 c0 f5 ff ff 	movq   $0x0,-0xa40(%rbp)
   149b4:	00 00 00 00 
   149b8:	48 c7 85 c8 f5 ff ff 	movq   $0x0,-0xa38(%rbp)
   149bf:	00 00 00 00 
   149c3:	48 8d 05 de 86 00 00 	lea    0x86de(%rip),%rax        # 1d0a8 <g_145>
   149ca:	48 89 85 d0 f5 ff ff 	mov    %rax,-0xa30(%rbp)
   149d1:	48 8d 05 fc 86 00 00 	lea    0x86fc(%rip),%rax        # 1d0d4 <g_399>
   149d8:	48 89 85 d8 f5 ff ff 	mov    %rax,-0xa28(%rbp)
   149df:	48 8d 85 60 ed ff ff 	lea    -0x12a0(%rbp),%rax
   149e6:	48 89 85 e0 f5 ff ff 	mov    %rax,-0xa20(%rbp)
   149ed:	48 c7 85 e8 f5 ff ff 	movq   $0x0,-0xa18(%rbp)
   149f4:	00 00 00 00 
   149f8:	c7 85 90 ed ff ff 01 	movl   $0x1,-0x1270(%rbp)
   149ff:	00 00 00 
   14a02:	66 c7 85 5a ed ff ff 	movw   $0xd81,-0x12a6(%rbp)
   14a09:	81 0d 
   14a0b:	48 b8 f6 f6 f6 f6 f6 	movabs $0xf6f6f6f6f6f6f6f6,%rax
   14a12:	f6 f6 f6 
   14a15:	48 89 45 ab          	mov    %rax,-0x55(%rbp)
   14a19:	c6 45 b3 f6          	movb   $0xf6,-0x4d(%rbp)
   14a1d:	48 8d 05 94 a2 00 00 	lea    0xa294(%rip),%rax        # 1ecb8 <g_768>
   14a24:	48 89 85 18 ee ff ff 	mov    %rax,-0x11e8(%rbp)
   14a2b:	c7 85 94 ed ff ff 51 	movl   $0x5c547451,-0x126c(%rbp)
   14a32:	74 54 5c 
   14a35:	c7 85 98 ed ff ff 31 	movl   $0x40823731,-0x1268(%rbp)
   14a3c:	37 82 40 
   14a3f:	48 8d 05 1a 86 00 00 	lea    0x861a(%rip),%rax        # 1d060 <g_77+0x20>
   14a46:	48 89 85 20 ee ff ff 	mov    %rax,-0x11e0(%rbp)
   14a4d:	c6 85 4e ed ff ff 91 	movb   $0x91,-0x12b2(%rbp)
   14a54:	48 8d 85 c0 ef ff ff 	lea    -0x1040(%rbp),%rax
   14a5b:	48 83 c0 28          	add    $0x28,%rax
   14a5f:	48 89 85 28 ee ff ff 	mov    %rax,-0x11d8(%rbp)
   14a66:	8b 05 dc 85 00 00    	mov    0x85dc(%rip),%eax        # 1d048 <g_77+0x8>
   14a6c:	85 c0                	test   %eax,%eax
   14a6e:	0f 85 2c 1b 00 00    	jne    165a0 <func_68+0x2b54>
   14a74:	48 c7 05 a9 85 00 00 	movq   $0x0,0x85a9(%rip)        # 1d028 <g_75>
   14a7b:	00 00 00 00 
   14a7f:	e9 16 1a 00 00       	jmpq   1649a <func_68+0x2a4e>
   14a84:	c7 85 9c ed ff ff f9 	movl   $0xfffffff9,-0x1264(%rbp)
   14a8b:	ff ff ff 
   14a8e:	48 c7 85 30 ee ff ff 	movq   $0x0,-0x11d0(%rbp)
   14a95:	00 00 00 00 
   14a99:	48 8d 05 ac ad 00 00 	lea    0xadac(%rip),%rax        # 1f84c <g_95>
   14aa0:	48 89 85 40 f3 ff ff 	mov    %rax,-0xcc0(%rbp)
   14aa7:	48 8d 05 9e ad 00 00 	lea    0xad9e(%rip),%rax        # 1f84c <g_95>
   14aae:	48 89 85 48 f3 ff ff 	mov    %rax,-0xcb8(%rbp)
   14ab5:	48 8d 05 90 ad 00 00 	lea    0xad90(%rip),%rax        # 1f84c <g_95>
   14abc:	48 89 85 50 f3 ff ff 	mov    %rax,-0xcb0(%rbp)
   14ac3:	48 8d 05 82 ad 00 00 	lea    0xad82(%rip),%rax        # 1f84c <g_95>
   14aca:	48 89 85 58 f3 ff ff 	mov    %rax,-0xca8(%rbp)
   14ad1:	48 8d 05 74 ad 00 00 	lea    0xad74(%rip),%rax        # 1f84c <g_95>
   14ad8:	48 89 85 60 f3 ff ff 	mov    %rax,-0xca0(%rbp)
   14adf:	48 8d 05 66 ad 00 00 	lea    0xad66(%rip),%rax        # 1f84c <g_95>
   14ae6:	48 89 85 68 f3 ff ff 	mov    %rax,-0xc98(%rbp)
   14aed:	48 8d 05 58 ad 00 00 	lea    0xad58(%rip),%rax        # 1f84c <g_95>
   14af4:	48 89 85 70 f3 ff ff 	mov    %rax,-0xc90(%rbp)
   14afb:	48 c7 85 78 f3 ff ff 	movq   $0x0,-0xc88(%rbp)
   14b02:	00 00 00 00 
   14b06:	48 8d 05 3f ad 00 00 	lea    0xad3f(%rip),%rax        # 1f84c <g_95>
   14b0d:	48 89 85 80 f3 ff ff 	mov    %rax,-0xc80(%rbp)
   14b14:	48 c7 85 88 f3 ff ff 	movq   $0x0,-0xc78(%rbp)
   14b1b:	00 00 00 00 
   14b1f:	48 8d 05 26 ad 00 00 	lea    0xad26(%rip),%rax        # 1f84c <g_95>
   14b26:	48 89 85 90 f3 ff ff 	mov    %rax,-0xc70(%rbp)
   14b2d:	48 8d 05 18 ad 00 00 	lea    0xad18(%rip),%rax        # 1f84c <g_95>
   14b34:	48 89 85 98 f3 ff ff 	mov    %rax,-0xc68(%rbp)
   14b3b:	48 8d 05 0a ad 00 00 	lea    0xad0a(%rip),%rax        # 1f84c <g_95>
   14b42:	48 89 85 a0 f3 ff ff 	mov    %rax,-0xc60(%rbp)
   14b49:	48 8d 05 fc ac 00 00 	lea    0xacfc(%rip),%rax        # 1f84c <g_95>
   14b50:	48 89 85 a8 f3 ff ff 	mov    %rax,-0xc58(%rbp)
   14b57:	48 8d 05 ee ac 00 00 	lea    0xacee(%rip),%rax        # 1f84c <g_95>
   14b5e:	48 89 85 b0 f3 ff ff 	mov    %rax,-0xc50(%rbp)
   14b65:	48 8d 05 e0 ac 00 00 	lea    0xace0(%rip),%rax        # 1f84c <g_95>
   14b6c:	48 89 85 b8 f3 ff ff 	mov    %rax,-0xc48(%rbp)
   14b73:	48 8d 05 d2 ac 00 00 	lea    0xacd2(%rip),%rax        # 1f84c <g_95>
   14b7a:	48 89 85 c0 f3 ff ff 	mov    %rax,-0xc40(%rbp)
   14b81:	48 c7 85 c8 f3 ff ff 	movq   $0x0,-0xc38(%rbp)
   14b88:	00 00 00 00 
   14b8c:	48 8d 05 b9 ac 00 00 	lea    0xacb9(%rip),%rax        # 1f84c <g_95>
   14b93:	48 89 85 d0 f3 ff ff 	mov    %rax,-0xc30(%rbp)
   14b9a:	48 c7 85 d8 f3 ff ff 	movq   $0x0,-0xc28(%rbp)
   14ba1:	00 00 00 00 
   14ba5:	48 8d 05 a0 ac 00 00 	lea    0xaca0(%rip),%rax        # 1f84c <g_95>
   14bac:	48 89 85 e0 f3 ff ff 	mov    %rax,-0xc20(%rbp)
   14bb3:	48 8d 05 92 ac 00 00 	lea    0xac92(%rip),%rax        # 1f84c <g_95>
   14bba:	48 89 85 e8 f3 ff ff 	mov    %rax,-0xc18(%rbp)
   14bc1:	48 8d 05 84 ac 00 00 	lea    0xac84(%rip),%rax        # 1f84c <g_95>
   14bc8:	48 89 85 f0 f3 ff ff 	mov    %rax,-0xc10(%rbp)
   14bcf:	48 8d 05 76 ac 00 00 	lea    0xac76(%rip),%rax        # 1f84c <g_95>
   14bd6:	48 89 85 f8 f3 ff ff 	mov    %rax,-0xc08(%rbp)
   14bdd:	48 8d 05 68 ac 00 00 	lea    0xac68(%rip),%rax        # 1f84c <g_95>
   14be4:	48 89 85 00 f4 ff ff 	mov    %rax,-0xc00(%rbp)
   14beb:	48 8d 05 5a ac 00 00 	lea    0xac5a(%rip),%rax        # 1f84c <g_95>
   14bf2:	48 89 85 08 f4 ff ff 	mov    %rax,-0xbf8(%rbp)
   14bf9:	48 8d 05 4c ac 00 00 	lea    0xac4c(%rip),%rax        # 1f84c <g_95>
   14c00:	48 89 85 10 f4 ff ff 	mov    %rax,-0xbf0(%rbp)
   14c07:	48 c7 85 18 f4 ff ff 	movq   $0x0,-0xbe8(%rbp)
   14c0e:	00 00 00 00 
   14c12:	48 8d 05 33 ac 00 00 	lea    0xac33(%rip),%rax        # 1f84c <g_95>
   14c19:	48 89 85 20 f4 ff ff 	mov    %rax,-0xbe0(%rbp)
   14c20:	48 c7 85 28 f4 ff ff 	movq   $0x0,-0xbd8(%rbp)
   14c27:	00 00 00 00 
   14c2b:	48 8d 05 1a ac 00 00 	lea    0xac1a(%rip),%rax        # 1f84c <g_95>
   14c32:	48 89 85 30 f4 ff ff 	mov    %rax,-0xbd0(%rbp)
   14c39:	48 8d 05 0c ac 00 00 	lea    0xac0c(%rip),%rax        # 1f84c <g_95>
   14c40:	48 89 85 38 f4 ff ff 	mov    %rax,-0xbc8(%rbp)
   14c47:	48 8d 85 40 f3 ff ff 	lea    -0xcc0(%rbp),%rax
   14c4e:	48 83 c0 50          	add    $0x50,%rax
   14c52:	48 89 85 38 ee ff ff 	mov    %rax,-0x11c8(%rbp)
   14c59:	c7 85 c0 ee ff ff c0 	movl   $0x803233c0,-0x1140(%rbp)
   14c60:	33 32 80 
   14c63:	c7 85 c4 ee ff ff c0 	movl   $0x803233c0,-0x113c(%rbp)
   14c6a:	33 32 80 
   14c6d:	c7 85 c8 ee ff ff c0 	movl   $0x803233c0,-0x1138(%rbp)
   14c74:	33 32 80 
   14c77:	c7 85 cc ee ff ff c0 	movl   $0x803233c0,-0x1134(%rbp)
   14c7e:	33 32 80 
   14c81:	48 8d 05 00 84 00 00 	lea    0x8400(%rip),%rax        # 1d088 <g_77+0x48>
   14c88:	48 89 85 40 ee ff ff 	mov    %rax,-0x11c0(%rbp)
   14c8f:	48 c7 85 20 f8 ff ff 	movq   $0x0,-0x7e0(%rbp)
   14c96:	00 00 00 00 
   14c9a:	48 8d 85 e8 ed ff ff 	lea    -0x1218(%rbp),%rax
   14ca1:	48 89 85 28 f8 ff ff 	mov    %rax,-0x7d8(%rbp)
   14ca8:	48 c7 85 30 f8 ff ff 	movq   $0x0,-0x7d0(%rbp)
   14caf:	00 00 00 00 
   14cb3:	48 8d 85 e8 ed ff ff 	lea    -0x1218(%rbp),%rax
   14cba:	48 89 85 38 f8 ff ff 	mov    %rax,-0x7c8(%rbp)
   14cc1:	48 8d 85 e8 ed ff ff 	lea    -0x1218(%rbp),%rax
   14cc8:	48 89 85 40 f8 ff ff 	mov    %rax,-0x7c0(%rbp)
   14ccf:	48 8d 85 e8 ed ff ff 	lea    -0x1218(%rbp),%rax
   14cd6:	48 89 85 48 f8 ff ff 	mov    %rax,-0x7b8(%rbp)
   14cdd:	48 8d 85 e8 ed ff ff 	lea    -0x1218(%rbp),%rax
   14ce4:	48 89 85 50 f8 ff ff 	mov    %rax,-0x7b0(%rbp)
   14ceb:	48 8d 85 e8 ed ff ff 	lea    -0x1218(%rbp),%rax
   14cf2:	48 89 85 58 f8 ff ff 	mov    %rax,-0x7a8(%rbp)
   14cf9:	48 8d 85 e8 ed ff ff 	lea    -0x1218(%rbp),%rax
   14d00:	48 89 85 60 f8 ff ff 	mov    %rax,-0x7a0(%rbp)
   14d07:	48 8d 85 e8 ed ff ff 	lea    -0x1218(%rbp),%rax
   14d0e:	48 89 85 68 f8 ff ff 	mov    %rax,-0x798(%rbp)
   14d15:	48 8d 85 e8 ed ff ff 	lea    -0x1218(%rbp),%rax
   14d1c:	48 89 85 70 f8 ff ff 	mov    %rax,-0x790(%rbp)
   14d23:	48 8d 85 e8 ed ff ff 	lea    -0x1218(%rbp),%rax
   14d2a:	48 89 85 78 f8 ff ff 	mov    %rax,-0x788(%rbp)
   14d31:	48 8d 85 e8 ed ff ff 	lea    -0x1218(%rbp),%rax
   14d38:	48 89 85 80 f8 ff ff 	mov    %rax,-0x780(%rbp)
   14d3f:	48 8d 85 e8 ed ff ff 	lea    -0x1218(%rbp),%rax
   14d46:	48 89 85 88 f8 ff ff 	mov    %rax,-0x778(%rbp)
   14d4d:	48 8d 85 e8 ed ff ff 	lea    -0x1218(%rbp),%rax
   14d54:	48 89 85 90 f8 ff ff 	mov    %rax,-0x770(%rbp)
   14d5b:	48 8d 85 e8 ed ff ff 	lea    -0x1218(%rbp),%rax
   14d62:	48 89 85 98 f8 ff ff 	mov    %rax,-0x768(%rbp)
   14d69:	48 8d 85 e8 ed ff ff 	lea    -0x1218(%rbp),%rax
   14d70:	48 89 85 a0 f8 ff ff 	mov    %rax,-0x760(%rbp)
   14d77:	48 8d 85 e8 ed ff ff 	lea    -0x1218(%rbp),%rax
   14d7e:	48 89 85 a8 f8 ff ff 	mov    %rax,-0x758(%rbp)
   14d85:	48 8d 85 e8 ed ff ff 	lea    -0x1218(%rbp),%rax
   14d8c:	48 89 85 b0 f8 ff ff 	mov    %rax,-0x750(%rbp)
   14d93:	48 c7 85 b8 f8 ff ff 	movq   $0x0,-0x748(%rbp)
   14d9a:	00 00 00 00 
   14d9e:	48 8d 85 e8 ed ff ff 	lea    -0x1218(%rbp),%rax
   14da5:	48 89 85 c0 f8 ff ff 	mov    %rax,-0x740(%rbp)
   14dac:	48 8d 85 e8 ed ff ff 	lea    -0x1218(%rbp),%rax
   14db3:	48 89 85 c8 f8 ff ff 	mov    %rax,-0x738(%rbp)
   14dba:	48 c7 85 d0 f8 ff ff 	movq   $0x0,-0x730(%rbp)
   14dc1:	00 00 00 00 
   14dc5:	48 8d 85 e8 ed ff ff 	lea    -0x1218(%rbp),%rax
   14dcc:	48 89 85 d8 f8 ff ff 	mov    %rax,-0x728(%rbp)
   14dd3:	48 c7 85 e0 f8 ff ff 	movq   $0x0,-0x720(%rbp)
   14dda:	00 00 00 00 
   14dde:	48 8d 85 e8 ed ff ff 	lea    -0x1218(%rbp),%rax
   14de5:	48 89 85 e8 f8 ff ff 	mov    %rax,-0x718(%rbp)
   14dec:	48 8d 85 e8 ed ff ff 	lea    -0x1218(%rbp),%rax
   14df3:	48 89 85 f0 f8 ff ff 	mov    %rax,-0x710(%rbp)
   14dfa:	48 c7 85 f8 f8 ff ff 	movq   $0x0,-0x708(%rbp)
   14e01:	00 00 00 00 
   14e05:	48 8d 85 e8 ed ff ff 	lea    -0x1218(%rbp),%rax
   14e0c:	48 89 85 00 f9 ff ff 	mov    %rax,-0x700(%rbp)
   14e13:	48 8d 85 e8 ed ff ff 	lea    -0x1218(%rbp),%rax
   14e1a:	48 89 85 08 f9 ff ff 	mov    %rax,-0x6f8(%rbp)
   14e21:	48 8d 85 e8 ed ff ff 	lea    -0x1218(%rbp),%rax
   14e28:	48 89 85 10 f9 ff ff 	mov    %rax,-0x6f0(%rbp)
   14e2f:	48 8d 85 e8 ed ff ff 	lea    -0x1218(%rbp),%rax
   14e36:	48 89 85 18 f9 ff ff 	mov    %rax,-0x6e8(%rbp)
   14e3d:	48 8d 85 e8 ed ff ff 	lea    -0x1218(%rbp),%rax
   14e44:	48 89 85 20 f9 ff ff 	mov    %rax,-0x6e0(%rbp)
   14e4b:	48 8d 85 e8 ed ff ff 	lea    -0x1218(%rbp),%rax
   14e52:	48 89 85 28 f9 ff ff 	mov    %rax,-0x6d8(%rbp)
   14e59:	48 8d 85 e8 ed ff ff 	lea    -0x1218(%rbp),%rax
   14e60:	48 89 85 30 f9 ff ff 	mov    %rax,-0x6d0(%rbp)
   14e67:	48 c7 85 38 f9 ff ff 	movq   $0x0,-0x6c8(%rbp)
   14e6e:	00 00 00 00 
   14e72:	48 8d 85 e8 ed ff ff 	lea    -0x1218(%rbp),%rax
   14e79:	48 89 85 40 f9 ff ff 	mov    %rax,-0x6c0(%rbp)
   14e80:	48 8d 85 e8 ed ff ff 	lea    -0x1218(%rbp),%rax
   14e87:	48 89 85 48 f9 ff ff 	mov    %rax,-0x6b8(%rbp)
   14e8e:	48 8d 85 e8 ed ff ff 	lea    -0x1218(%rbp),%rax
   14e95:	48 89 85 50 f9 ff ff 	mov    %rax,-0x6b0(%rbp)
   14e9c:	48 8d 85 e8 ed ff ff 	lea    -0x1218(%rbp),%rax
   14ea3:	48 89 85 58 f9 ff ff 	mov    %rax,-0x6a8(%rbp)
   14eaa:	48 8d 85 e8 ed ff ff 	lea    -0x1218(%rbp),%rax
   14eb1:	48 89 85 60 f9 ff ff 	mov    %rax,-0x6a0(%rbp)
   14eb8:	48 8d 85 e8 ed ff ff 	lea    -0x1218(%rbp),%rax
   14ebf:	48 89 85 68 f9 ff ff 	mov    %rax,-0x698(%rbp)
   14ec6:	48 8d 85 e8 ed ff ff 	lea    -0x1218(%rbp),%rax
   14ecd:	48 89 85 70 f9 ff ff 	mov    %rax,-0x690(%rbp)
   14ed4:	48 8d 85 e8 ed ff ff 	lea    -0x1218(%rbp),%rax
   14edb:	48 89 85 78 f9 ff ff 	mov    %rax,-0x688(%rbp)
   14ee2:	48 8d 85 e8 ed ff ff 	lea    -0x1218(%rbp),%rax
   14ee9:	48 89 85 80 f9 ff ff 	mov    %rax,-0x680(%rbp)
   14ef0:	48 8d 85 e8 ed ff ff 	lea    -0x1218(%rbp),%rax
   14ef7:	48 89 85 88 f9 ff ff 	mov    %rax,-0x678(%rbp)
   14efe:	48 8d 85 e8 ed ff ff 	lea    -0x1218(%rbp),%rax
   14f05:	48 89 85 90 f9 ff ff 	mov    %rax,-0x670(%rbp)
   14f0c:	48 8d 85 e8 ed ff ff 	lea    -0x1218(%rbp),%rax
   14f13:	48 89 85 98 f9 ff ff 	mov    %rax,-0x668(%rbp)
   14f1a:	48 8d 85 e8 ed ff ff 	lea    -0x1218(%rbp),%rax
   14f21:	48 89 85 a0 f9 ff ff 	mov    %rax,-0x660(%rbp)
   14f28:	48 8d 85 e8 ed ff ff 	lea    -0x1218(%rbp),%rax
   14f2f:	48 89 85 a8 f9 ff ff 	mov    %rax,-0x658(%rbp)
   14f36:	48 8d 85 e8 ed ff ff 	lea    -0x1218(%rbp),%rax
   14f3d:	48 89 85 b0 f9 ff ff 	mov    %rax,-0x650(%rbp)
   14f44:	48 8d 85 e8 ed ff ff 	lea    -0x1218(%rbp),%rax
   14f4b:	48 89 85 b8 f9 ff ff 	mov    %rax,-0x648(%rbp)
   14f52:	48 8d 85 e8 ed ff ff 	lea    -0x1218(%rbp),%rax
   14f59:	48 89 85 c0 f9 ff ff 	mov    %rax,-0x640(%rbp)
   14f60:	48 8d 85 e8 ed ff ff 	lea    -0x1218(%rbp),%rax
   14f67:	48 89 85 c8 f9 ff ff 	mov    %rax,-0x638(%rbp)
   14f6e:	48 8d 85 e8 ed ff ff 	lea    -0x1218(%rbp),%rax
   14f75:	48 89 85 d0 f9 ff ff 	mov    %rax,-0x630(%rbp)
   14f7c:	48 c7 85 d8 f9 ff ff 	movq   $0x0,-0x628(%rbp)
   14f83:	00 00 00 00 
   14f87:	48 8d 85 e8 ed ff ff 	lea    -0x1218(%rbp),%rax
   14f8e:	48 89 85 e0 f9 ff ff 	mov    %rax,-0x620(%rbp)
   14f95:	48 8d 85 e8 ed ff ff 	lea    -0x1218(%rbp),%rax
   14f9c:	48 89 85 e8 f9 ff ff 	mov    %rax,-0x618(%rbp)
   14fa3:	48 8d 85 e8 ed ff ff 	lea    -0x1218(%rbp),%rax
   14faa:	48 89 85 f0 f9 ff ff 	mov    %rax,-0x610(%rbp)
   14fb1:	48 8d 85 e8 ed ff ff 	lea    -0x1218(%rbp),%rax
   14fb8:	48 89 85 f8 f9 ff ff 	mov    %rax,-0x608(%rbp)
   14fbf:	48 8d 85 e8 ed ff ff 	lea    -0x1218(%rbp),%rax
   14fc6:	48 89 85 00 fa ff ff 	mov    %rax,-0x600(%rbp)
   14fcd:	48 8d 85 e8 ed ff ff 	lea    -0x1218(%rbp),%rax
   14fd4:	48 89 85 08 fa ff ff 	mov    %rax,-0x5f8(%rbp)
   14fdb:	48 8d 85 e8 ed ff ff 	lea    -0x1218(%rbp),%rax
   14fe2:	48 89 85 10 fa ff ff 	mov    %rax,-0x5f0(%rbp)
   14fe9:	48 8d 85 e8 ed ff ff 	lea    -0x1218(%rbp),%rax
   14ff0:	48 89 85 18 fa ff ff 	mov    %rax,-0x5e8(%rbp)
   14ff7:	48 8d 85 e8 ed ff ff 	lea    -0x1218(%rbp),%rax
   14ffe:	48 89 85 20 fa ff ff 	mov    %rax,-0x5e0(%rbp)
   15005:	48 c7 85 28 fa ff ff 	movq   $0x0,-0x5d8(%rbp)
   1500c:	00 00 00 00 
   15010:	48 8d 85 e8 ed ff ff 	lea    -0x1218(%rbp),%rax
   15017:	48 89 85 30 fa ff ff 	mov    %rax,-0x5d0(%rbp)
   1501e:	48 8d 85 e8 ed ff ff 	lea    -0x1218(%rbp),%rax
   15025:	48 89 85 38 fa ff ff 	mov    %rax,-0x5c8(%rbp)
   1502c:	48 8d 85 e8 ed ff ff 	lea    -0x1218(%rbp),%rax
   15033:	48 89 85 40 fa ff ff 	mov    %rax,-0x5c0(%rbp)
   1503a:	48 8d 85 e8 ed ff ff 	lea    -0x1218(%rbp),%rax
   15041:	48 89 85 48 fa ff ff 	mov    %rax,-0x5b8(%rbp)
   15048:	48 8d 85 e8 ed ff ff 	lea    -0x1218(%rbp),%rax
   1504f:	48 89 85 50 fa ff ff 	mov    %rax,-0x5b0(%rbp)
   15056:	48 c7 85 58 fa ff ff 	movq   $0x0,-0x5a8(%rbp)
   1505d:	00 00 00 00 
   15061:	48 8d 85 e8 ed ff ff 	lea    -0x1218(%rbp),%rax
   15068:	48 89 85 60 fa ff ff 	mov    %rax,-0x5a0(%rbp)
   1506f:	48 8d 85 e8 ed ff ff 	lea    -0x1218(%rbp),%rax
   15076:	48 89 85 68 fa ff ff 	mov    %rax,-0x598(%rbp)
   1507d:	48 8d 85 e8 ed ff ff 	lea    -0x1218(%rbp),%rax
   15084:	48 89 85 70 fa ff ff 	mov    %rax,-0x590(%rbp)
   1508b:	48 8d 85 e8 ed ff ff 	lea    -0x1218(%rbp),%rax
   15092:	48 89 85 78 fa ff ff 	mov    %rax,-0x588(%rbp)
   15099:	48 8d 85 e8 ed ff ff 	lea    -0x1218(%rbp),%rax
   150a0:	48 89 85 80 fa ff ff 	mov    %rax,-0x580(%rbp)
   150a7:	48 8d 85 e8 ed ff ff 	lea    -0x1218(%rbp),%rax
   150ae:	48 89 85 88 fa ff ff 	mov    %rax,-0x578(%rbp)
   150b5:	48 8d 85 e8 ed ff ff 	lea    -0x1218(%rbp),%rax
   150bc:	48 89 85 90 fa ff ff 	mov    %rax,-0x570(%rbp)
   150c3:	48 8d 85 e8 ed ff ff 	lea    -0x1218(%rbp),%rax
   150ca:	48 89 85 98 fa ff ff 	mov    %rax,-0x568(%rbp)
   150d1:	48 8d 85 e8 ed ff ff 	lea    -0x1218(%rbp),%rax
   150d8:	48 89 85 a0 fa ff ff 	mov    %rax,-0x560(%rbp)
   150df:	48 8d 85 e8 ed ff ff 	lea    -0x1218(%rbp),%rax
   150e6:	48 89 85 a8 fa ff ff 	mov    %rax,-0x558(%rbp)
   150ed:	48 8d 85 e8 ed ff ff 	lea    -0x1218(%rbp),%rax
   150f4:	48 89 85 b0 fa ff ff 	mov    %rax,-0x550(%rbp)
   150fb:	48 c7 85 b8 fa ff ff 	movq   $0x0,-0x548(%rbp)
   15102:	00 00 00 00 
   15106:	48 8d 85 e8 ed ff ff 	lea    -0x1218(%rbp),%rax
   1510d:	48 89 85 c0 fa ff ff 	mov    %rax,-0x540(%rbp)
   15114:	48 c7 85 c8 fa ff ff 	movq   $0x0,-0x538(%rbp)
   1511b:	00 00 00 00 
   1511f:	48 8d 85 e8 ed ff ff 	lea    -0x1218(%rbp),%rax
   15126:	48 89 85 d0 fa ff ff 	mov    %rax,-0x530(%rbp)
   1512d:	48 8d 85 e8 ed ff ff 	lea    -0x1218(%rbp),%rax
   15134:	48 89 85 d8 fa ff ff 	mov    %rax,-0x528(%rbp)
   1513b:	48 8d 85 e8 ed ff ff 	lea    -0x1218(%rbp),%rax
   15142:	48 89 85 e0 fa ff ff 	mov    %rax,-0x520(%rbp)
   15149:	48 c7 85 e8 fa ff ff 	movq   $0x0,-0x518(%rbp)
   15150:	00 00 00 00 
   15154:	48 8d 85 e8 ed ff ff 	lea    -0x1218(%rbp),%rax
   1515b:	48 89 85 f0 fa ff ff 	mov    %rax,-0x510(%rbp)
   15162:	48 c7 85 f8 fa ff ff 	movq   $0x0,-0x508(%rbp)
   15169:	00 00 00 00 
   1516d:	48 c7 85 00 fb ff ff 	movq   $0x0,-0x500(%rbp)
   15174:	00 00 00 00 
   15178:	48 8d 85 e8 ed ff ff 	lea    -0x1218(%rbp),%rax
   1517f:	48 89 85 08 fb ff ff 	mov    %rax,-0x4f8(%rbp)
   15186:	48 8d 85 e8 ed ff ff 	lea    -0x1218(%rbp),%rax
   1518d:	48 89 85 10 fb ff ff 	mov    %rax,-0x4f0(%rbp)
   15194:	48 8d 85 e8 ed ff ff 	lea    -0x1218(%rbp),%rax
   1519b:	48 89 85 18 fb ff ff 	mov    %rax,-0x4e8(%rbp)
   151a2:	48 8d 85 e8 ed ff ff 	lea    -0x1218(%rbp),%rax
   151a9:	48 89 85 20 fb ff ff 	mov    %rax,-0x4e0(%rbp)
   151b0:	48 8d 85 e8 ed ff ff 	lea    -0x1218(%rbp),%rax
   151b7:	48 89 85 28 fb ff ff 	mov    %rax,-0x4d8(%rbp)
   151be:	48 8d 85 e8 ed ff ff 	lea    -0x1218(%rbp),%rax
   151c5:	48 89 85 30 fb ff ff 	mov    %rax,-0x4d0(%rbp)
   151cc:	48 8d 85 e8 ed ff ff 	lea    -0x1218(%rbp),%rax
   151d3:	48 89 85 38 fb ff ff 	mov    %rax,-0x4c8(%rbp)
   151da:	48 8d 85 e8 ed ff ff 	lea    -0x1218(%rbp),%rax
   151e1:	48 89 85 40 fb ff ff 	mov    %rax,-0x4c0(%rbp)
   151e8:	48 8d 85 e8 ed ff ff 	lea    -0x1218(%rbp),%rax
   151ef:	48 89 85 48 fb ff ff 	mov    %rax,-0x4b8(%rbp)
   151f6:	48 c7 85 50 fb ff ff 	movq   $0x0,-0x4b0(%rbp)
   151fd:	00 00 00 00 
   15201:	48 c7 85 58 fb ff ff 	movq   $0x0,-0x4a8(%rbp)
   15208:	00 00 00 00 
   1520c:	48 8d 85 e8 ed ff ff 	lea    -0x1218(%rbp),%rax
   15213:	48 89 85 60 fb ff ff 	mov    %rax,-0x4a0(%rbp)
   1521a:	48 8d 85 e8 ed ff ff 	lea    -0x1218(%rbp),%rax
   15221:	48 89 85 68 fb ff ff 	mov    %rax,-0x498(%rbp)
   15228:	48 8d 85 e8 ed ff ff 	lea    -0x1218(%rbp),%rax
   1522f:	48 89 85 70 fb ff ff 	mov    %rax,-0x490(%rbp)
   15236:	48 8d 85 e8 ed ff ff 	lea    -0x1218(%rbp),%rax
   1523d:	48 89 85 78 fb ff ff 	mov    %rax,-0x488(%rbp)
   15244:	48 8d 85 e8 ed ff ff 	lea    -0x1218(%rbp),%rax
   1524b:	48 89 85 80 fb ff ff 	mov    %rax,-0x480(%rbp)
   15252:	48 c7 85 88 fb ff ff 	movq   $0x0,-0x478(%rbp)
   15259:	00 00 00 00 
   1525d:	48 8d 85 e8 ed ff ff 	lea    -0x1218(%rbp),%rax
   15264:	48 89 85 90 fb ff ff 	mov    %rax,-0x470(%rbp)
   1526b:	48 8d 85 e8 ed ff ff 	lea    -0x1218(%rbp),%rax
   15272:	48 89 85 98 fb ff ff 	mov    %rax,-0x468(%rbp)
   15279:	48 c7 85 a0 fb ff ff 	movq   $0x0,-0x460(%rbp)
   15280:	00 00 00 00 
   15284:	48 8d 85 e8 ed ff ff 	lea    -0x1218(%rbp),%rax
   1528b:	48 89 85 a8 fb ff ff 	mov    %rax,-0x458(%rbp)
   15292:	48 8d 85 e8 ed ff ff 	lea    -0x1218(%rbp),%rax
   15299:	48 89 85 b0 fb ff ff 	mov    %rax,-0x450(%rbp)
   152a0:	48 8d 85 e8 ed ff ff 	lea    -0x1218(%rbp),%rax
   152a7:	48 89 85 b8 fb ff ff 	mov    %rax,-0x448(%rbp)
   152ae:	48 8d 85 e8 ed ff ff 	lea    -0x1218(%rbp),%rax
   152b5:	48 89 85 c0 fb ff ff 	mov    %rax,-0x440(%rbp)
   152bc:	48 8d 85 e8 ed ff ff 	lea    -0x1218(%rbp),%rax
   152c3:	48 89 85 c8 fb ff ff 	mov    %rax,-0x438(%rbp)
   152ca:	48 8d 85 e8 ed ff ff 	lea    -0x1218(%rbp),%rax
   152d1:	48 89 85 d0 fb ff ff 	mov    %rax,-0x430(%rbp)
   152d8:	48 8d 85 e8 ed ff ff 	lea    -0x1218(%rbp),%rax
   152df:	48 89 85 d8 fb ff ff 	mov    %rax,-0x428(%rbp)
   152e6:	48 8d 85 e8 ed ff ff 	lea    -0x1218(%rbp),%rax
   152ed:	48 89 85 e0 fb ff ff 	mov    %rax,-0x420(%rbp)
   152f4:	48 8d 85 e8 ed ff ff 	lea    -0x1218(%rbp),%rax
   152fb:	48 89 85 e8 fb ff ff 	mov    %rax,-0x418(%rbp)
   15302:	48 8d 85 e8 ed ff ff 	lea    -0x1218(%rbp),%rax
   15309:	48 89 85 f0 fb ff ff 	mov    %rax,-0x410(%rbp)
   15310:	48 8d 85 e8 ed ff ff 	lea    -0x1218(%rbp),%rax
   15317:	48 89 85 f8 fb ff ff 	mov    %rax,-0x408(%rbp)
   1531e:	48 8d 85 e8 ed ff ff 	lea    -0x1218(%rbp),%rax
   15325:	48 89 85 00 fc ff ff 	mov    %rax,-0x400(%rbp)
   1532c:	48 c7 85 08 fc ff ff 	movq   $0x0,-0x3f8(%rbp)
   15333:	00 00 00 00 
   15337:	48 8d 85 e8 ed ff ff 	lea    -0x1218(%rbp),%rax
   1533e:	48 89 85 10 fc ff ff 	mov    %rax,-0x3f0(%rbp)
   15345:	48 8d 85 e8 ed ff ff 	lea    -0x1218(%rbp),%rax
   1534c:	48 89 85 18 fc ff ff 	mov    %rax,-0x3e8(%rbp)
   15353:	48 8d 85 e8 ed ff ff 	lea    -0x1218(%rbp),%rax
   1535a:	48 89 85 20 fc ff ff 	mov    %rax,-0x3e0(%rbp)
   15361:	48 8d 85 e8 ed ff ff 	lea    -0x1218(%rbp),%rax
   15368:	48 89 85 28 fc ff ff 	mov    %rax,-0x3d8(%rbp)
   1536f:	48 8d 85 e8 ed ff ff 	lea    -0x1218(%rbp),%rax
   15376:	48 89 85 30 fc ff ff 	mov    %rax,-0x3d0(%rbp)
   1537d:	48 c7 85 38 fc ff ff 	movq   $0x0,-0x3c8(%rbp)
   15384:	00 00 00 00 
   15388:	48 8d 85 e8 ed ff ff 	lea    -0x1218(%rbp),%rax
   1538f:	48 89 85 40 fc ff ff 	mov    %rax,-0x3c0(%rbp)
   15396:	48 8d 85 e8 ed ff ff 	lea    -0x1218(%rbp),%rax
   1539d:	48 89 85 48 fc ff ff 	mov    %rax,-0x3b8(%rbp)
   153a4:	48 8d 85 e8 ed ff ff 	lea    -0x1218(%rbp),%rax
   153ab:	48 89 85 50 fc ff ff 	mov    %rax,-0x3b0(%rbp)
   153b2:	48 8d 85 e8 ed ff ff 	lea    -0x1218(%rbp),%rax
   153b9:	48 89 85 58 fc ff ff 	mov    %rax,-0x3a8(%rbp)
   153c0:	48 8d 85 e8 ed ff ff 	lea    -0x1218(%rbp),%rax
   153c7:	48 89 85 60 fc ff ff 	mov    %rax,-0x3a0(%rbp)
   153ce:	48 8d 85 e8 ed ff ff 	lea    -0x1218(%rbp),%rax
   153d5:	48 89 85 68 fc ff ff 	mov    %rax,-0x398(%rbp)
   153dc:	48 8d 85 e8 ed ff ff 	lea    -0x1218(%rbp),%rax
   153e3:	48 89 85 70 fc ff ff 	mov    %rax,-0x390(%rbp)
   153ea:	48 8d 85 e8 ed ff ff 	lea    -0x1218(%rbp),%rax
   153f1:	48 89 85 78 fc ff ff 	mov    %rax,-0x388(%rbp)
   153f8:	48 8d 85 e8 ed ff ff 	lea    -0x1218(%rbp),%rax
   153ff:	48 89 85 80 fc ff ff 	mov    %rax,-0x380(%rbp)
   15406:	48 8d 85 e8 ed ff ff 	lea    -0x1218(%rbp),%rax
   1540d:	48 89 85 88 fc ff ff 	mov    %rax,-0x378(%rbp)
   15414:	48 8d 85 e8 ed ff ff 	lea    -0x1218(%rbp),%rax
   1541b:	48 89 85 90 fc ff ff 	mov    %rax,-0x370(%rbp)
   15422:	48 c7 85 98 fc ff ff 	movq   $0x0,-0x368(%rbp)
   15429:	00 00 00 00 
   1542d:	48 8d 85 e8 ed ff ff 	lea    -0x1218(%rbp),%rax
   15434:	48 89 85 a0 fc ff ff 	mov    %rax,-0x360(%rbp)
   1543b:	48 c7 85 a8 fc ff ff 	movq   $0x0,-0x358(%rbp)
   15442:	00 00 00 00 
   15446:	48 8d 85 e8 ed ff ff 	lea    -0x1218(%rbp),%rax
   1544d:	48 89 85 b0 fc ff ff 	mov    %rax,-0x350(%rbp)
   15454:	48 8d 85 e8 ed ff ff 	lea    -0x1218(%rbp),%rax
   1545b:	48 89 85 b8 fc ff ff 	mov    %rax,-0x348(%rbp)
   15462:	48 8d 85 e8 ed ff ff 	lea    -0x1218(%rbp),%rax
   15469:	48 89 85 c0 fc ff ff 	mov    %rax,-0x340(%rbp)
   15470:	48 c7 85 c8 fc ff ff 	movq   $0x0,-0x338(%rbp)
   15477:	00 00 00 00 
   1547b:	48 8d 85 e8 ed ff ff 	lea    -0x1218(%rbp),%rax
   15482:	48 89 85 d0 fc ff ff 	mov    %rax,-0x330(%rbp)
   15489:	48 c7 85 d8 fc ff ff 	movq   $0x0,-0x328(%rbp)
   15490:	00 00 00 00 
   15494:	48 c7 85 e0 fc ff ff 	movq   $0x0,-0x320(%rbp)
   1549b:	00 00 00 00 
   1549f:	48 8d 85 e8 ed ff ff 	lea    -0x1218(%rbp),%rax
   154a6:	48 89 85 e8 fc ff ff 	mov    %rax,-0x318(%rbp)
   154ad:	48 8d 85 e8 ed ff ff 	lea    -0x1218(%rbp),%rax
   154b4:	48 89 85 f0 fc ff ff 	mov    %rax,-0x310(%rbp)
   154bb:	48 8d 85 e8 ed ff ff 	lea    -0x1218(%rbp),%rax
   154c2:	48 89 85 f8 fc ff ff 	mov    %rax,-0x308(%rbp)
   154c9:	48 8d 85 e8 ed ff ff 	lea    -0x1218(%rbp),%rax
   154d0:	48 89 85 00 fd ff ff 	mov    %rax,-0x300(%rbp)
   154d7:	48 8d 85 e8 ed ff ff 	lea    -0x1218(%rbp),%rax
   154de:	48 89 85 08 fd ff ff 	mov    %rax,-0x2f8(%rbp)
   154e5:	48 8d 85 e8 ed ff ff 	lea    -0x1218(%rbp),%rax
   154ec:	48 89 85 10 fd ff ff 	mov    %rax,-0x2f0(%rbp)
   154f3:	48 8d 85 e8 ed ff ff 	lea    -0x1218(%rbp),%rax
   154fa:	48 89 85 18 fd ff ff 	mov    %rax,-0x2e8(%rbp)
   15501:	48 8d 85 e8 ed ff ff 	lea    -0x1218(%rbp),%rax
   15508:	48 89 85 20 fd ff ff 	mov    %rax,-0x2e0(%rbp)
   1550f:	48 8d 85 e8 ed ff ff 	lea    -0x1218(%rbp),%rax
   15516:	48 89 85 28 fd ff ff 	mov    %rax,-0x2d8(%rbp)
   1551d:	48 c7 85 30 fd ff ff 	movq   $0x0,-0x2d0(%rbp)
   15524:	00 00 00 00 
   15528:	48 c7 85 38 fd ff ff 	movq   $0x0,-0x2c8(%rbp)
   1552f:	00 00 00 00 
   15533:	48 8d 85 e8 ed ff ff 	lea    -0x1218(%rbp),%rax
   1553a:	48 89 85 40 fd ff ff 	mov    %rax,-0x2c0(%rbp)
   15541:	48 8d 85 e8 ed ff ff 	lea    -0x1218(%rbp),%rax
   15548:	48 89 85 48 fd ff ff 	mov    %rax,-0x2b8(%rbp)
   1554f:	48 8d 85 e8 ed ff ff 	lea    -0x1218(%rbp),%rax
   15556:	48 89 85 50 fd ff ff 	mov    %rax,-0x2b0(%rbp)
   1555d:	48 8d 85 e8 ed ff ff 	lea    -0x1218(%rbp),%rax
   15564:	48 89 85 58 fd ff ff 	mov    %rax,-0x2a8(%rbp)
   1556b:	48 8d 85 e8 ed ff ff 	lea    -0x1218(%rbp),%rax
   15572:	48 89 85 60 fd ff ff 	mov    %rax,-0x2a0(%rbp)
   15579:	48 c7 85 68 fd ff ff 	movq   $0x0,-0x298(%rbp)
   15580:	00 00 00 00 
   15584:	48 8d 85 e8 ed ff ff 	lea    -0x1218(%rbp),%rax
   1558b:	48 89 85 70 fd ff ff 	mov    %rax,-0x290(%rbp)
   15592:	48 8d 85 e8 ed ff ff 	lea    -0x1218(%rbp),%rax
   15599:	48 89 85 78 fd ff ff 	mov    %rax,-0x288(%rbp)
   155a0:	48 c7 85 80 fd ff ff 	movq   $0x0,-0x280(%rbp)
   155a7:	00 00 00 00 
   155ab:	48 8d 85 e8 ed ff ff 	lea    -0x1218(%rbp),%rax
   155b2:	48 89 85 88 fd ff ff 	mov    %rax,-0x278(%rbp)
   155b9:	48 8d 85 e8 ed ff ff 	lea    -0x1218(%rbp),%rax
   155c0:	48 89 85 90 fd ff ff 	mov    %rax,-0x270(%rbp)
   155c7:	48 8d 85 e8 ed ff ff 	lea    -0x1218(%rbp),%rax
   155ce:	48 89 85 98 fd ff ff 	mov    %rax,-0x268(%rbp)
   155d5:	48 8d 85 e8 ed ff ff 	lea    -0x1218(%rbp),%rax
   155dc:	48 89 85 a0 fd ff ff 	mov    %rax,-0x260(%rbp)
   155e3:	48 8d 85 e8 ed ff ff 	lea    -0x1218(%rbp),%rax
   155ea:	48 89 85 a8 fd ff ff 	mov    %rax,-0x258(%rbp)
   155f1:	48 8d 85 e8 ed ff ff 	lea    -0x1218(%rbp),%rax
   155f8:	48 89 85 b0 fd ff ff 	mov    %rax,-0x250(%rbp)
   155ff:	48 8d 85 e8 ed ff ff 	lea    -0x1218(%rbp),%rax
   15606:	48 89 85 b8 fd ff ff 	mov    %rax,-0x248(%rbp)
   1560d:	48 8d 85 e8 ed ff ff 	lea    -0x1218(%rbp),%rax
   15614:	48 89 85 c0 fd ff ff 	mov    %rax,-0x240(%rbp)
   1561b:	48 8d 85 e8 ed ff ff 	lea    -0x1218(%rbp),%rax
   15622:	48 89 85 c8 fd ff ff 	mov    %rax,-0x238(%rbp)
   15629:	48 8d 85 e8 ed ff ff 	lea    -0x1218(%rbp),%rax
   15630:	48 89 85 d0 fd ff ff 	mov    %rax,-0x230(%rbp)
   15637:	48 8d 85 e8 ed ff ff 	lea    -0x1218(%rbp),%rax
   1563e:	48 89 85 d8 fd ff ff 	mov    %rax,-0x228(%rbp)
   15645:	48 8d 85 e8 ed ff ff 	lea    -0x1218(%rbp),%rax
   1564c:	48 89 85 e0 fd ff ff 	mov    %rax,-0x220(%rbp)
   15653:	48 c7 85 e8 fd ff ff 	movq   $0x0,-0x218(%rbp)
   1565a:	00 00 00 00 
   1565e:	48 8d 85 e8 ed ff ff 	lea    -0x1218(%rbp),%rax
   15665:	48 89 85 f0 fd ff ff 	mov    %rax,-0x210(%rbp)
   1566c:	48 8d 85 e8 ed ff ff 	lea    -0x1218(%rbp),%rax
   15673:	48 89 85 f8 fd ff ff 	mov    %rax,-0x208(%rbp)
   1567a:	48 8d 85 e8 ed ff ff 	lea    -0x1218(%rbp),%rax
   15681:	48 89 85 00 fe ff ff 	mov    %rax,-0x200(%rbp)
   15688:	48 8d 85 e8 ed ff ff 	lea    -0x1218(%rbp),%rax
   1568f:	48 89 85 08 fe ff ff 	mov    %rax,-0x1f8(%rbp)
   15696:	48 8d 85 e8 ed ff ff 	lea    -0x1218(%rbp),%rax
   1569d:	48 89 85 10 fe ff ff 	mov    %rax,-0x1f0(%rbp)
   156a4:	48 c7 85 18 fe ff ff 	movq   $0x0,-0x1e8(%rbp)
   156ab:	00 00 00 00 
   156af:	48 8d 85 e8 ed ff ff 	lea    -0x1218(%rbp),%rax
   156b6:	48 89 85 20 fe ff ff 	mov    %rax,-0x1e0(%rbp)
   156bd:	48 8d 85 e8 ed ff ff 	lea    -0x1218(%rbp),%rax
   156c4:	48 89 85 28 fe ff ff 	mov    %rax,-0x1d8(%rbp)
   156cb:	48 8d 85 e8 ed ff ff 	lea    -0x1218(%rbp),%rax
   156d2:	48 89 85 30 fe ff ff 	mov    %rax,-0x1d0(%rbp)
   156d9:	48 8d 85 e8 ed ff ff 	lea    -0x1218(%rbp),%rax
   156e0:	48 89 85 38 fe ff ff 	mov    %rax,-0x1c8(%rbp)
   156e7:	48 8d 85 e8 ed ff ff 	lea    -0x1218(%rbp),%rax
   156ee:	48 89 85 40 fe ff ff 	mov    %rax,-0x1c0(%rbp)
   156f5:	48 8d 85 e8 ed ff ff 	lea    -0x1218(%rbp),%rax
   156fc:	48 89 85 48 fe ff ff 	mov    %rax,-0x1b8(%rbp)
   15703:	48 8d 85 e8 ed ff ff 	lea    -0x1218(%rbp),%rax
   1570a:	48 89 85 50 fe ff ff 	mov    %rax,-0x1b0(%rbp)
   15711:	48 8d 85 e8 ed ff ff 	lea    -0x1218(%rbp),%rax
   15718:	48 89 85 58 fe ff ff 	mov    %rax,-0x1a8(%rbp)
   1571f:	48 8d 85 e8 ed ff ff 	lea    -0x1218(%rbp),%rax
   15726:	48 89 85 60 fe ff ff 	mov    %rax,-0x1a0(%rbp)
   1572d:	48 8d 85 e8 ed ff ff 	lea    -0x1218(%rbp),%rax
   15734:	48 89 85 68 fe ff ff 	mov    %rax,-0x198(%rbp)
   1573b:	48 8d 85 e8 ed ff ff 	lea    -0x1218(%rbp),%rax
   15742:	48 89 85 70 fe ff ff 	mov    %rax,-0x190(%rbp)
   15749:	48 c7 85 78 fe ff ff 	movq   $0x0,-0x188(%rbp)
   15750:	00 00 00 00 
   15754:	48 8d 85 e8 ed ff ff 	lea    -0x1218(%rbp),%rax
   1575b:	48 89 85 80 fe ff ff 	mov    %rax,-0x180(%rbp)
   15762:	48 c7 85 88 fe ff ff 	movq   $0x0,-0x178(%rbp)
   15769:	00 00 00 00 
   1576d:	48 8d 85 e8 ed ff ff 	lea    -0x1218(%rbp),%rax
   15774:	48 89 85 90 fe ff ff 	mov    %rax,-0x170(%rbp)
   1577b:	48 8d 85 e8 ed ff ff 	lea    -0x1218(%rbp),%rax
   15782:	48 89 85 98 fe ff ff 	mov    %rax,-0x168(%rbp)
   15789:	48 8d 85 e8 ed ff ff 	lea    -0x1218(%rbp),%rax
   15790:	48 89 85 a0 fe ff ff 	mov    %rax,-0x160(%rbp)
   15797:	48 c7 85 a8 fe ff ff 	movq   $0x0,-0x158(%rbp)
   1579e:	00 00 00 00 
   157a2:	48 8d 85 e8 ed ff ff 	lea    -0x1218(%rbp),%rax
   157a9:	48 89 85 b0 fe ff ff 	mov    %rax,-0x150(%rbp)
   157b0:	48 c7 85 b8 fe ff ff 	movq   $0x0,-0x148(%rbp)
   157b7:	00 00 00 00 
   157bb:	48 c7 85 c0 fe ff ff 	movq   $0x0,-0x140(%rbp)
   157c2:	00 00 00 00 
   157c6:	48 8d 85 e8 ed ff ff 	lea    -0x1218(%rbp),%rax
   157cd:	48 89 85 c8 fe ff ff 	mov    %rax,-0x138(%rbp)
   157d4:	48 8d 85 e8 ed ff ff 	lea    -0x1218(%rbp),%rax
   157db:	48 89 85 d0 fe ff ff 	mov    %rax,-0x130(%rbp)
   157e2:	48 8d 85 e8 ed ff ff 	lea    -0x1218(%rbp),%rax
   157e9:	48 89 85 d8 fe ff ff 	mov    %rax,-0x128(%rbp)
   157f0:	48 8d 85 e8 ed ff ff 	lea    -0x1218(%rbp),%rax
   157f7:	48 89 85 e0 fe ff ff 	mov    %rax,-0x120(%rbp)
   157fe:	48 8d 85 e8 ed ff ff 	lea    -0x1218(%rbp),%rax
   15805:	48 89 85 e8 fe ff ff 	mov    %rax,-0x118(%rbp)
   1580c:	48 8d 85 e8 ed ff ff 	lea    -0x1218(%rbp),%rax
   15813:	48 89 85 f0 fe ff ff 	mov    %rax,-0x110(%rbp)
   1581a:	48 8d 85 e8 ed ff ff 	lea    -0x1218(%rbp),%rax
   15821:	48 89 85 f8 fe ff ff 	mov    %rax,-0x108(%rbp)
   15828:	48 8d 85 e8 ed ff ff 	lea    -0x1218(%rbp),%rax
   1582f:	48 89 85 00 ff ff ff 	mov    %rax,-0x100(%rbp)
   15836:	48 8d 85 e8 ed ff ff 	lea    -0x1218(%rbp),%rax
   1583d:	48 89 85 08 ff ff ff 	mov    %rax,-0xf8(%rbp)
   15844:	48 c7 85 10 ff ff ff 	movq   $0x0,-0xf0(%rbp)
   1584b:	00 00 00 00 
   1584f:	48 c7 85 18 ff ff ff 	movq   $0x0,-0xe8(%rbp)
   15856:	00 00 00 00 
   1585a:	48 8d 85 e8 ed ff ff 	lea    -0x1218(%rbp),%rax
   15861:	48 89 85 20 ff ff ff 	mov    %rax,-0xe0(%rbp)
   15868:	48 8d 85 e8 ed ff ff 	lea    -0x1218(%rbp),%rax
   1586f:	48 89 85 28 ff ff ff 	mov    %rax,-0xd8(%rbp)
   15876:	48 8d 85 e8 ed ff ff 	lea    -0x1218(%rbp),%rax
   1587d:	48 89 85 30 ff ff ff 	mov    %rax,-0xd0(%rbp)
   15884:	48 8d 85 e8 ed ff ff 	lea    -0x1218(%rbp),%rax
   1588b:	48 89 85 38 ff ff ff 	mov    %rax,-0xc8(%rbp)
   15892:	48 8d 85 e8 ed ff ff 	lea    -0x1218(%rbp),%rax
   15899:	48 89 85 40 ff ff ff 	mov    %rax,-0xc0(%rbp)
   158a0:	48 c7 85 48 ff ff ff 	movq   $0x0,-0xb8(%rbp)
   158a7:	00 00 00 00 
   158ab:	48 8d 85 e8 ed ff ff 	lea    -0x1218(%rbp),%rax
   158b2:	48 89 85 50 ff ff ff 	mov    %rax,-0xb0(%rbp)
   158b9:	48 8d 85 e8 ed ff ff 	lea    -0x1218(%rbp),%rax
   158c0:	48 89 85 58 ff ff ff 	mov    %rax,-0xa8(%rbp)
   158c7:	48 c7 85 60 ff ff ff 	movq   $0x0,-0xa0(%rbp)
   158ce:	00 00 00 00 
   158d2:	48 8d 85 e8 ed ff ff 	lea    -0x1218(%rbp),%rax
   158d9:	48 89 85 68 ff ff ff 	mov    %rax,-0x98(%rbp)
   158e0:	48 8d 85 e8 ed ff ff 	lea    -0x1218(%rbp),%rax
   158e7:	48 89 85 70 ff ff ff 	mov    %rax,-0x90(%rbp)
   158ee:	48 8d 85 e8 ed ff ff 	lea    -0x1218(%rbp),%rax
   158f5:	48 89 85 78 ff ff ff 	mov    %rax,-0x88(%rbp)
   158fc:	48 8d 85 e8 ed ff ff 	lea    -0x1218(%rbp),%rax
   15903:	48 89 45 80          	mov    %rax,-0x80(%rbp)
   15907:	48 8d 85 e8 ed ff ff 	lea    -0x1218(%rbp),%rax
   1590e:	48 89 45 88          	mov    %rax,-0x78(%rbp)
   15912:	48 8d 85 e8 ed ff ff 	lea    -0x1218(%rbp),%rax
   15919:	48 89 45 90          	mov    %rax,-0x70(%rbp)
   1591d:	48 8d 85 e8 ed ff ff 	lea    -0x1218(%rbp),%rax
   15924:	48 89 45 98          	mov    %rax,-0x68(%rbp)
   15928:	48 8d 05 a1 77 00 00 	lea    0x77a1(%rip),%rax        # 1d0d0 <g_356>
   1592f:	48 89 85 f0 ed ff ff 	mov    %rax,-0x1210(%rbp)
   15936:	48 8d 85 f0 ed ff ff 	lea    -0x1210(%rbp),%rax
   1593d:	48 89 85 48 ee ff ff 	mov    %rax,-0x11b8(%rbp)
   15944:	48 8d 05 4d 77 00 00 	lea    0x774d(%rip),%rax        # 1d098 <g_104>
   1594b:	48 89 85 50 ee ff ff 	mov    %rax,-0x11b0(%rbp)
   15952:	48 8d 85 d0 ed ff ff 	lea    -0x1230(%rbp),%rax
   15959:	48 89 85 f8 ed ff ff 	mov    %rax,-0x1208(%rbp)
   15960:	48 8d 85 f8 ed ff ff 	lea    -0x1208(%rbp),%rax
   15967:	48 89 85 58 ee ff ff 	mov    %rax,-0x11a8(%rbp)
   1596e:	c7 85 a0 ed ff ff 49 	movl   $0x968caf49,-0x1260(%rbp)
   15975:	af 8c 96 
   15978:	48 8d 85 50 f1 ff ff 	lea    -0xeb0(%rbp),%rax
   1597f:	48 83 c0 64          	add    $0x64,%rax
   15983:	48 89 85 60 ee ff ff 	mov    %rax,-0x11a0(%rbp)
   1598a:	66 c7 85 5c ed ff ff 	movw   $0xfffd,-0x12a4(%rbp)
   15991:	fd ff 
   15993:	48 8d 05 1e 93 00 00 	lea    0x931e(%rip),%rax        # 1ecb8 <g_768>
   1599a:	48 89 85 68 ee ff ff 	mov    %rax,-0x1198(%rbp)
   159a1:	48 8d 05 a8 93 00 00 	lea    0x93a8(%rip),%rax        # 1ed50 <g_811>
   159a8:	48 89 85 70 ee ff ff 	mov    %rax,-0x1190(%rbp)
   159af:	66 c7 85 5e ed ff ff 	movw   $0x792,-0x12a2(%rbp)
   159b6:	92 07 
   159b8:	c7 85 a4 ed ff ff a4 	movl   $0x931cd8a4,-0x125c(%rbp)
   159bf:	d8 1c 93 
   159c2:	48 c7 85 78 ee ff ff 	movq   $0x1,-0x1188(%rbp)
   159c9:	01 00 00 00 
   159cd:	c7 85 70 ed ff ff 00 	movl   $0x0,-0x1290(%rbp)
   159d4:	00 00 00 
   159d7:	eb 1b                	jmp    159f4 <func_68+0x1fa8>
   159d9:	8b 85 70 ed ff ff    	mov    -0x1290(%rbp),%eax
   159df:	48 98                	cltq   
   159e1:	48 c7 84 c5 50 ef ff 	movq   $0x0,-0x10b0(%rbp,%rax,8)
   159e8:	ff 00 00 00 00 
   159ed:	83 85 70 ed ff ff 01 	addl   $0x1,-0x1290(%rbp)
   159f4:	83 bd 70 ed ff ff 05 	cmpl   $0x5,-0x1290(%rbp)
   159fb:	7e dc                	jle    159d9 <func_68+0x1f8d>
   159fd:	c7 85 70 ed ff ff 00 	movl   $0x0,-0x1290(%rbp)
   15a04:	00 00 00 
   15a07:	eb 1e                	jmp    15a27 <func_68+0x1fdb>
   15a09:	8b 85 70 ed ff ff    	mov    -0x1290(%rbp),%eax
   15a0f:	48 98                	cltq   
   15a11:	48 8d 95 52 ed ff ff 	lea    -0x12ae(%rbp),%rdx
   15a18:	48 89 94 c5 b8 ee ff 	mov    %rdx,-0x1148(%rbp,%rax,8)
   15a1f:	ff 
   15a20:	83 85 70 ed ff ff 01 	addl   $0x1,-0x1290(%rbp)
   15a27:	83 bd 70 ed ff ff 00 	cmpl   $0x0,-0x1290(%rbp)
   15a2e:	7e d9                	jle    15a09 <func_68+0x1fbd>
   15a30:	8b 9d 9c ed ff ff    	mov    -0x1264(%rbp),%ebx
   15a36:	44 8b 25 67 76 00 00 	mov    0x7667(%rip),%r12d        # 1d0a4 <g_109>
   15a3d:	0f b7 85 52 ed ff ff 	movzwl -0x12ae(%rbp),%eax
   15a44:	44 0f b7 f8          	movzwl %ax,%r15d
   15a48:	0f b7 05 41 76 00 00 	movzwl 0x7641(%rip),%eax        # 1d090 <g_97>
   15a4f:	44 0f bf e8          	movswl %ax,%r13d
   15a53:	8b 85 38 ed ff ff    	mov    -0x12c8(%rbp),%eax
   15a59:	4c 63 f0             	movslq %eax,%r14
   15a5c:	8b 05 3e 76 00 00    	mov    0x763e(%rip),%eax        # 1d0a0 <g_107>
   15a62:	0f b6 d0             	movzbl %al,%edx
   15a65:	8b 05 21 76 00 00    	mov    0x7621(%rip),%eax        # 1d08c <g_77+0x4c>
   15a6b:	0f b6 c0             	movzbl %al,%eax
   15a6e:	89 d6                	mov    %edx,%esi
   15a70:	89 c7                	mov    %eax,%edi
   15a72:	e8 e3 10 ff ff       	callq  6b5a <safe_add_func_uint8_t_u_u>
   15a77:	0f b6 c0             	movzbl %al,%eax
   15a7a:	4c 89 f6             	mov    %r14,%rsi
   15a7d:	48 89 c7             	mov    %rax,%rdi
   15a80:	e8 23 0e ff ff       	callq  68a8 <safe_sub_func_int64_t_s_s>
   15a85:	44 89 ee             	mov    %r13d,%esi
   15a88:	89 c7                	mov    %eax,%edi
   15a8a:	e8 29 14 ff ff       	callq  6eb8 <safe_add_func_uint32_t_u_u>
   15a8f:	89 c2                	mov    %eax,%edx
   15a91:	8b 85 3c ed ff ff    	mov    -0x12c4(%rbp),%eax
   15a97:	21 d0                	and    %edx,%eax
   15a99:	44 0f b6 e8          	movzbl %al,%r13d
   15a9d:	48 8b 85 38 ee ff ff 	mov    -0x11c8(%rbp),%rax
   15aa4:	48 c7 00 00 00 00 00 	movq   $0x0,(%rax)
   15aab:	48 8b 85 38 ee ff ff 	mov    -0x11c8(%rbp),%rax
   15ab2:	48 8b 10             	mov    (%rax),%rdx
   15ab5:	48 8b 85 e0 ed ff ff 	mov    -0x1220(%rbp),%rax
   15abc:	48 39 c2             	cmp    %rax,%rdx
   15abf:	0f 94 c0             	sete   %al
   15ac2:	0f b6 c0             	movzbl %al,%eax
   15ac5:	48 89 05 e4 75 00 00 	mov    %rax,0x75e4(%rip)        # 1d0b0 <g_173>
   15acc:	48 8b 05 dd 75 00 00 	mov    0x75dd(%rip),%rax        # 1d0b0 <g_173>
   15ad3:	89 c2                	mov    %eax,%edx
   15ad5:	48 8b 05 bc 75 00 00 	mov    0x75bc(%rip),%rax        # 1d098 <g_104>
   15adc:	48 3d ff 00 00 00    	cmp    $0xff,%rax
   15ae2:	0f 94 c0             	sete   %al
   15ae5:	0f b6 c0             	movzbl %al,%eax
   15ae8:	31 d0                	xor    %edx,%eax
   15aea:	89 c6                	mov    %eax,%esi
   15aec:	bf 08 9d b0 f0       	mov    $0xf0b09d08,%edi
   15af1:	e8 09 0c ff ff       	callq  66ff <safe_div_func_int32_t_s_s>
   15af6:	0f b6 c0             	movzbl %al,%eax
   15af9:	44 89 ee             	mov    %r13d,%esi
   15afc:	89 c7                	mov    %eax,%edi
   15afe:	e8 90 10 ff ff       	callq  6b93 <safe_mul_func_uint8_t_u_u>
   15b03:	0f b6 d0             	movzbl %al,%edx
   15b06:	48 8b 85 b8 ed ff ff 	mov    -0x1248(%rbp),%rax
   15b0d:	48 09 d0             	or     %rdx,%rax
   15b10:	49 39 c7             	cmp    %rax,%r15
   15b13:	0f 97 c0             	seta   %al
   15b16:	0f b6 c0             	movzbl %al,%eax
   15b19:	39 85 3c ed ff ff    	cmp    %eax,-0x12c4(%rbp)
   15b1f:	0f 94 c0             	sete   %al
   15b22:	0f b6 c0             	movzbl %al,%eax
   15b25:	44 89 e6             	mov    %r12d,%esi
   15b28:	89 c7                	mov    %eax,%edi
   15b2a:	e8 8f 12 ff ff       	callq  6dbe <safe_lshift_func_uint16_t_u_s>
   15b2f:	0f b7 c0             	movzwl %ax,%eax
   15b32:	39 85 9c ed ff ff    	cmp    %eax,-0x1264(%rbp)
   15b38:	0f 92 c0             	setb   %al
   15b3b:	0f b6 d0             	movzbl %al,%edx
   15b3e:	48 8b 85 b8 ed ff ff 	mov    -0x1248(%rbp),%rax
   15b45:	48 39 c2             	cmp    %rax,%rdx
   15b48:	0f 96 c0             	setbe  %al
   15b4b:	0f b6 d0             	movzbl %al,%edx
   15b4e:	8b 05 04 9d 00 00    	mov    0x9d04(%rip),%eax        # 1f858 <g_101>
   15b54:	21 d0                	and    %edx,%eax
   15b56:	3d a5 7f 00 00       	cmp    $0x7fa5,%eax
   15b5b:	0f 95 c0             	setne  %al
   15b5e:	0f b6 c0             	movzbl %al,%eax
   15b61:	8b 95 9c ed ff ff    	mov    -0x1264(%rbp),%edx
   15b67:	89 d6                	mov    %edx,%esi
   15b69:	89 c7                	mov    %eax,%edi
   15b6b:	e8 b5 13 ff ff       	callq  6f25 <safe_div_func_uint32_t_u_u>
   15b70:	89 c0                	mov    %eax,%eax
   15b72:	48 89 de             	mov    %rbx,%rsi
   15b75:	48 89 c7             	mov    %rax,%rdi
   15b78:	e8 b1 14 ff ff       	callq  702e <safe_add_func_uint64_t_u_u>
   15b7d:	48 85 c0             	test   %rax,%rax
   15b80:	74 07                	je     15b89 <func_68+0x213d>
   15b82:	b8 01 00 00 00       	mov    $0x1,%eax
   15b87:	eb 05                	jmp    15b8e <func_68+0x2142>
   15b89:	b8 00 00 00 00       	mov    $0x0,%eax
   15b8e:	0f be c0             	movsbl %al,%eax
   15b91:	89 c7                	mov    %eax,%edi
   15b93:	e8 27 06 ff ff       	callq  61bf <safe_unary_minus_func_int8_t_s>
   15b98:	83 bd 3c ed ff ff 00 	cmpl   $0x0,-0x12c4(%rbp)
   15b9f:	0f 85 08 09 00 00    	jne    164ad <func_68+0x2a61>
   15ba5:	8b 15 c1 74 00 00    	mov    0x74c1(%rip),%edx        # 1d06c <g_77+0x2c>
   15bab:	8b 85 c8 ee ff ff    	mov    -0x1138(%rbp),%eax
   15bb1:	21 d0                	and    %edx,%eax
   15bb3:	89 05 b3 74 00 00    	mov    %eax,0x74b3(%rip)        # 1d06c <g_77+0x2c>
   15bb9:	8b 05 ad 74 00 00    	mov    0x74ad(%rip),%eax        # 1d06c <g_77+0x2c>
   15bbf:	85 c0                	test   %eax,%eax
   15bc1:	0f 84 32 05 00 00    	je     160f9 <func_68+0x26ad>
   15bc7:	48 b8 1e b3 29 69 84 	movabs $0x57a09a846929b31e,%rax
   15bce:	9a a0 57 
   15bd1:	48 89 85 a0 f0 ff ff 	mov    %rax,-0xf60(%rbp)
   15bd8:	48 89 85 a8 f0 ff ff 	mov    %rax,-0xf58(%rbp)
   15bdf:	48 bb 86 53 3b b2 65 	movabs $0xea250765b23b5386,%rbx
   15be6:	07 25 ea 
   15be9:	48 89 9d b0 f0 ff ff 	mov    %rbx,-0xf50(%rbp)
   15bf0:	48 c7 85 b8 f0 ff ff 	movq   $0x0,-0xf48(%rbp)
   15bf7:	00 00 00 00 
   15bfb:	48 c7 85 c0 f0 ff ff 	movq   $0x2,-0xf40(%rbp)
   15c02:	02 00 00 00 
   15c06:	48 c7 85 c8 f0 ff ff 	movq   $0x0,-0xf38(%rbp)
   15c0d:	00 00 00 00 
   15c11:	48 89 85 d0 f0 ff ff 	mov    %rax,-0xf30(%rbp)
   15c18:	48 89 9d d8 f0 ff ff 	mov    %rbx,-0xf28(%rbp)
   15c1f:	48 89 9d e0 f0 ff ff 	mov    %rbx,-0xf20(%rbp)
   15c26:	48 c7 85 e8 f0 ff ff 	movq   $0xfffffffffffffff8,-0xf18(%rbp)
   15c2d:	f8 ff ff ff 
   15c31:	48 c7 85 f0 f0 ff ff 	movq   $0x2,-0xf10(%rbp)
   15c38:	02 00 00 00 
   15c3c:	48 c7 85 f8 f0 ff ff 	movq   $0xfffffffffffffff8,-0xf08(%rbp)
   15c43:	f8 ff ff ff 
   15c47:	48 89 85 00 f1 ff ff 	mov    %rax,-0xf00(%rbp)
   15c4e:	48 89 85 08 f1 ff ff 	mov    %rax,-0xef8(%rbp)
   15c55:	48 89 9d 10 f1 ff ff 	mov    %rbx,-0xef0(%rbp)
   15c5c:	48 c7 85 18 f1 ff ff 	movq   $0x0,-0xee8(%rbp)
   15c63:	00 00 00 00 
   15c67:	48 c7 85 20 f1 ff ff 	movq   $0x2,-0xee0(%rbp)
   15c6e:	02 00 00 00 
   15c72:	48 c7 85 28 f1 ff ff 	movq   $0x0,-0xed8(%rbp)
   15c79:	00 00 00 00 
   15c7d:	48 89 85 30 f1 ff ff 	mov    %rax,-0xed0(%rbp)
   15c84:	48 89 9d 38 f1 ff ff 	mov    %rbx,-0xec8(%rbp)
   15c8b:	48 89 9d 40 f1 ff ff 	mov    %rbx,-0xec0(%rbp)
   15c92:	48 8d 85 50 f1 ff ff 	lea    -0xeb0(%rbp),%rax
   15c99:	48 05 89 00 00 00    	add    $0x89,%rax
   15c9f:	48 89 85 80 ef ff ff 	mov    %rax,-0x1080(%rbp)
   15ca6:	48 8d 85 50 f1 ff ff 	lea    -0xeb0(%rbp),%rax
   15cad:	48 83 c0 54          	add    $0x54,%rax
   15cb1:	48 89 85 88 ef ff ff 	mov    %rax,-0x1078(%rbp)
   15cb8:	48 8d 85 50 f1 ff ff 	lea    -0xeb0(%rbp),%rax
   15cbf:	48 05 89 00 00 00    	add    $0x89,%rax
   15cc5:	48 89 85 90 ef ff ff 	mov    %rax,-0x1070(%rbp)
   15ccc:	48 8d 85 50 f1 ff ff 	lea    -0xeb0(%rbp),%rax
   15cd3:	48 05 89 00 00 00    	add    $0x89,%rax
   15cd9:	48 89 85 98 ef ff ff 	mov    %rax,-0x1068(%rbp)
   15ce0:	48 8d 85 50 f1 ff ff 	lea    -0xeb0(%rbp),%rax
   15ce7:	48 83 c0 54          	add    $0x54,%rax
   15ceb:	48 89 85 a0 ef ff ff 	mov    %rax,-0x1060(%rbp)
   15cf2:	48 8d 85 50 f1 ff ff 	lea    -0xeb0(%rbp),%rax
   15cf9:	48 05 89 00 00 00    	add    $0x89,%rax
   15cff:	48 89 85 a8 ef ff ff 	mov    %rax,-0x1058(%rbp)
   15d06:	48 8d 85 50 f1 ff ff 	lea    -0xeb0(%rbp),%rax
   15d0d:	48 05 89 00 00 00    	add    $0x89,%rax
   15d13:	48 89 85 b0 ef ff ff 	mov    %rax,-0x1050(%rbp)
   15d1a:	48 8d 85 50 f1 ff ff 	lea    -0xeb0(%rbp),%rax
   15d21:	48 83 c0 54          	add    $0x54,%rax
   15d25:	48 89 85 b8 ef ff ff 	mov    %rax,-0x1048(%rbp)
   15d2c:	48 8d 85 52 ed ff ff 	lea    -0x12ae(%rbp),%rax
   15d33:	48 89 85 90 ee ff ff 	mov    %rax,-0x1170(%rbp)
   15d3a:	c6 85 4f ed ff ff 01 	movb   $0x1,-0x12b1(%rbp)
   15d41:	48 8b 85 f0 f0 ff ff 	mov    -0xf10(%rbp),%rax
   15d48:	48 83 e8 01          	sub    $0x1,%rax
   15d4c:	48 89 85 f0 f0 ff ff 	mov    %rax,-0xf10(%rbp)
   15d53:	c7 85 64 ed ff ff 00 	movl   $0x0,-0x129c(%rbp)
   15d5a:	00 00 00 
   15d5d:	e9 67 02 00 00       	jmpq   15fc9 <func_68+0x257d>
   15d62:	c7 85 6c ed ff ff 01 	movl   $0x1,-0x1294(%rbp)
   15d69:	00 00 00 
   15d6c:	e9 41 02 00 00       	jmpq   15fb2 <func_68+0x2566>
   15d71:	48 8d 85 40 f3 ff ff 	lea    -0xcc0(%rbp),%rax
   15d78:	48 05 90 00 00 00    	add    $0x90,%rax
   15d7e:	48 89 85 98 ee ff ff 	mov    %rax,-0x1168(%rbp)
   15d85:	48 8d 05 1c 73 00 00 	lea    0x731c(%rip),%rax        # 1d0a8 <g_145>
   15d8c:	48 89 85 a0 ee ff ff 	mov    %rax,-0x1160(%rbp)
   15d93:	8b 85 64 ed ff ff    	mov    -0x129c(%rbp),%eax
   15d99:	8d 48 01             	lea    0x1(%rax),%ecx
   15d9c:	48 8b 15 85 72 00 00 	mov    0x7285(%rip),%rdx        # 1d028 <g_75>
   15da3:	8b 85 6c ed ff ff    	mov    -0x1294(%rbp),%eax
   15da9:	48 98                	cltq   
   15dab:	48 63 c9             	movslq %ecx,%rcx
   15dae:	48 01 c9             	add    %rcx,%rcx
   15db1:	48 01 ca             	add    %rcx,%rdx
   15db4:	48 01 d2             	add    %rdx,%rdx
   15db7:	48 01 d0             	add    %rdx,%rax
   15dba:	48 8d 14 85 00 00 00 	lea    0x0(,%rax,4),%rdx
   15dc1:	00 
   15dc2:	48 8d 05 77 72 00 00 	lea    0x7277(%rip),%rax        # 1d040 <g_77>
   15dc9:	8b 04 02             	mov    (%rdx,%rax,1),%eax
   15dcc:	85 c0                	test   %eax,%eax
   15dce:	0f 85 bf 00 00 00    	jne    15e93 <func_68+0x2447>
   15dd4:	8b 85 38 ed ff ff    	mov    -0x12c8(%rbp),%eax
   15dda:	0f be d8             	movsbl %al,%ebx
   15ddd:	48 83 bd 98 ee ff ff 	cmpq   $0x0,-0x1168(%rbp)
   15de4:	00 
   15de5:	0f 94 c0             	sete   %al
   15de8:	0f b6 c0             	movzbl %al,%eax
   15deb:	39 85 38 ed ff ff    	cmp    %eax,-0x12c8(%rbp)
   15df1:	74 60                	je     15e53 <func_68+0x2407>
   15df3:	8b 05 4f 9a 00 00    	mov    0x9a4f(%rip),%eax        # 1f848 <g_2>
   15df9:	0f b7 c0             	movzwl %ax,%eax
   15dfc:	be 21 46 00 00       	mov    $0x4621,%esi
   15e01:	89 c7                	mov    %eax,%edi
   15e03:	e8 b6 0f ff ff       	callq  6dbe <safe_lshift_func_uint16_t_u_s>
   15e08:	8b 05 92 72 00 00    	mov    0x7292(%rip),%eax        # 1d0a0 <g_107>
   15e0e:	85 c0                	test   %eax,%eax
   15e10:	0f 94 c0             	sete   %al
   15e13:	0f b6 d0             	movzbl %al,%edx
   15e16:	48 8b 85 a0 ee ff ff 	mov    -0x1160(%rbp),%rax
   15e1d:	8b 00                	mov    (%rax),%eax
   15e1f:	21 c2                	and    %eax,%edx
   15e21:	48 8b 85 a0 ee ff ff 	mov    -0x1160(%rbp),%rax
   15e28:	89 10                	mov    %edx,(%rax)
   15e2a:	48 8b 85 a0 ee ff ff 	mov    -0x1160(%rbp),%rax
   15e31:	8b 00                	mov    (%rax),%eax
   15e33:	be 08 00 00 00       	mov    $0x8,%esi
   15e38:	89 c7                	mov    %eax,%edi
   15e3a:	e8 e6 10 ff ff       	callq  6f25 <safe_div_func_uint32_t_u_u>
   15e3f:	85 c0                	test   %eax,%eax
   15e41:	75 09                	jne    15e4c <func_68+0x2400>
   15e43:	83 bd 38 ed ff ff 00 	cmpl   $0x0,-0x12c8(%rbp)
   15e4a:	74 07                	je     15e53 <func_68+0x2407>
   15e4c:	b8 01 00 00 00       	mov    $0x1,%eax
   15e51:	eb 05                	jmp    15e58 <func_68+0x240c>
   15e53:	b8 00 00 00 00       	mov    $0x0,%eax
   15e58:	0f be c0             	movsbl %al,%eax
   15e5b:	89 de                	mov    %ebx,%esi
   15e5d:	89 c7                	mov    %eax,%edi
   15e5f:	e8 ae 03 ff ff       	callq  6212 <safe_mul_func_int8_t_s_s>
   15e64:	0f be c0             	movsbl %al,%eax
   15e67:	0f b7 15 22 72 00 00 	movzwl 0x7222(%rip),%edx        # 1d090 <g_97>
   15e6e:	89 c6                	mov    %eax,%esi
   15e70:	bf 01 00 00 00       	mov    $0x1,%edi
   15e75:	e8 8b 07 ff ff       	callq  6605 <safe_sub_func_int32_t_s_s>
   15e7a:	0f b6 d0             	movzbl %al,%edx
   15e7d:	8b 85 3c ed ff ff    	mov    -0x12c4(%rbp),%eax
   15e83:	0f b6 c0             	movzbl %al,%eax
   15e86:	89 d6                	mov    %edx,%esi
   15e88:	89 c7                	mov    %eax,%edi
   15e8a:	e8 e9 0c ff ff       	callq  6b78 <safe_sub_func_uint8_t_u_u>
   15e8f:	84 c0                	test   %al,%al
   15e91:	74 07                	je     15e9a <func_68+0x244e>
   15e93:	be 01 00 00 00       	mov    $0x1,%esi
   15e98:	eb 05                	jmp    15e9f <func_68+0x2453>
   15e9a:	be 00 00 00 00       	mov    $0x0,%esi
   15e9f:	8b 85 64 ed ff ff    	mov    -0x129c(%rbp),%eax
   15ea5:	8d 48 01             	lea    0x1(%rax),%ecx
   15ea8:	48 8b 15 79 71 00 00 	mov    0x7179(%rip),%rdx        # 1d028 <g_75>
   15eaf:	8b 85 6c ed ff ff    	mov    -0x1294(%rbp),%eax
   15eb5:	48 98                	cltq   
   15eb7:	48 63 c9             	movslq %ecx,%rcx
   15eba:	48 01 c9             	add    %rcx,%rcx
   15ebd:	48 01 ca             	add    %rcx,%rdx
   15ec0:	48 01 d2             	add    %rdx,%rdx
   15ec3:	48 01 d0             	add    %rdx,%rax
   15ec6:	48 8d 14 85 00 00 00 	lea    0x0(,%rax,4),%rdx
   15ecd:	00 
   15ece:	48 8d 05 6b 71 00 00 	lea    0x716b(%rip),%rax        # 1d040 <g_77>
   15ed5:	8b 04 02             	mov    (%rdx,%rax,1),%eax
   15ed8:	39 c6                	cmp    %eax,%esi
   15eda:	0f 9d c0             	setge  %al
   15edd:	0f b6 c0             	movzbl %al,%eax
   15ee0:	8b 95 3c ed ff ff    	mov    -0x12c4(%rbp),%edx
   15ee6:	89 d6                	mov    %edx,%esi
   15ee8:	89 c7                	mov    %eax,%edi
   15eea:	e8 9e 0d ff ff       	callq  6c8d <safe_rshift_func_uint8_t_u_s>
   15eef:	48 8b 15 32 71 00 00 	mov    0x7132(%rip),%rdx        # 1d028 <g_75>
   15ef6:	48 8d 72 03          	lea    0x3(%rdx),%rsi
   15efa:	48 8b 0d 27 71 00 00 	mov    0x7127(%rip),%rcx        # 1d028 <g_75>
   15f01:	0f b6 c0             	movzbl %al,%eax
   15f04:	8b 95 64 ed ff ff    	mov    -0x129c(%rbp),%edx
   15f0a:	48 63 d2             	movslq %edx,%rdx
   15f0d:	48 01 f6             	add    %rsi,%rsi
   15f10:	48 01 f1             	add    %rsi,%rcx
   15f13:	48 01 c9             	add    %rcx,%rcx
   15f16:	48 01 ca             	add    %rcx,%rdx
   15f19:	48 8d 0c 95 00 00 00 	lea    0x0(,%rdx,4),%rcx
   15f20:	00 
   15f21:	48 8d 15 18 71 00 00 	lea    0x7118(%rip),%rdx        # 1d040 <g_77>
   15f28:	89 04 11             	mov    %eax,(%rcx,%rdx,1)
   15f2b:	0f b7 05 1a 99 00 00 	movzwl 0x991a(%rip),%eax        # 1f84c <g_95>
   15f32:	83 c8 f6             	or     $0xfffffff6,%eax
   15f35:	0f be d0             	movsbl %al,%edx
   15f38:	48 8b 05 e1 8a 00 00 	mov    0x8ae1(%rip),%rax        # 1ea20 <g_96>
   15f3f:	48 85 c0             	test   %rax,%rax
   15f42:	0f 95 c0             	setne  %al
   15f45:	0f b6 c0             	movzbl %al,%eax
   15f48:	89 d6                	mov    %edx,%esi
   15f4a:	89 c7                	mov    %eax,%edi
   15f4c:	e8 c1 02 ff ff       	callq  6212 <safe_mul_func_int8_t_s_s>
   15f51:	0f be d0             	movsbl %al,%edx
   15f54:	8b 05 4a 71 00 00    	mov    0x714a(%rip),%eax        # 1d0a4 <g_109>
   15f5a:	23 85 3c ed ff ff    	and    -0x12c4(%rbp),%eax
   15f60:	39 c2                	cmp    %eax,%edx
   15f62:	0f 9c c0             	setl   %al
   15f65:	48 8b 35 bc 70 00 00 	mov    0x70bc(%rip),%rsi        # 1d028 <g_75>
   15f6c:	0f b6 c0             	movzbl %al,%eax
   15f6f:	8b 95 64 ed ff ff    	mov    -0x129c(%rbp),%edx
   15f75:	48 63 d2             	movslq %edx,%rdx
   15f78:	8b 8d 6c ed ff ff    	mov    -0x1294(%rbp),%ecx
   15f7e:	48 63 c9             	movslq %ecx,%rcx
   15f81:	48 01 f6             	add    %rsi,%rsi
   15f84:	48 01 f1             	add    %rsi,%rcx
   15f87:	48 01 c9             	add    %rcx,%rcx
   15f8a:	48 01 ca             	add    %rcx,%rdx
   15f8d:	48 8d 0c 95 00 00 00 	lea    0x0(,%rdx,4),%rcx
   15f94:	00 
   15f95:	48 8d 15 a4 70 00 00 	lea    0x70a4(%rip),%rdx        # 1d040 <g_77>
   15f9c:	89 04 11             	mov    %eax,(%rcx,%rdx,1)
   15f9f:	48 8b 85 e0 f0 ff ff 	mov    -0xf20(%rbp),%rax
   15fa6:	48 85 c0             	test   %rax,%rax
   15fa9:	75 16                	jne    15fc1 <func_68+0x2575>
   15fab:	83 ad 6c ed ff ff 01 	subl   $0x1,-0x1294(%rbp)
   15fb2:	83 bd 6c ed ff ff 00 	cmpl   $0x0,-0x1294(%rbp)
   15fb9:	0f 89 b2 fd ff ff    	jns    15d71 <func_68+0x2325>
   15fbf:	eb 01                	jmp    15fc2 <func_68+0x2576>
   15fc1:	90                   	nop
   15fc2:	83 85 64 ed ff ff 01 	addl   $0x1,-0x129c(%rbp)
   15fc9:	83 bd 64 ed ff ff 01 	cmpl   $0x1,-0x129c(%rbp)
   15fd0:	0f 8e 8c fd ff ff    	jle    15d62 <func_68+0x2316>
   15fd6:	8b 05 c4 70 00 00    	mov    0x70c4(%rip),%eax        # 1d0a0 <g_107>
   15fdc:	0f be d8             	movsbl %al,%ebx
   15fdf:	48 8b 85 90 ee ff ff 	mov    -0x1170(%rbp),%rax
   15fe6:	0f b7 00             	movzwl (%rax),%eax
   15fe9:	8d 50 ff             	lea    -0x1(%rax),%edx
   15fec:	48 8b 85 90 ee ff ff 	mov    -0x1170(%rbp),%rax
   15ff3:	66 89 10             	mov    %dx,(%rax)
   15ff6:	44 8b a5 3c ed ff ff 	mov    -0x12c4(%rbp),%r12d
   15ffd:	0f b6 85 c2 f1 ff ff 	movzbl -0xe3e(%rbp),%eax
   16004:	44 0f be e8          	movsbl %al,%r13d
   16008:	8b 05 96 70 00 00    	mov    0x7096(%rip),%eax        # 1d0a4 <g_109>
   1600e:	89 05 a4 70 00 00    	mov    %eax,0x70a4(%rip)        # 1d0b8 <g_257>
   16014:	8b 15 9e 70 00 00    	mov    0x709e(%rip),%edx        # 1d0b8 <g_257>
   1601a:	8b 05 84 70 00 00    	mov    0x7084(%rip),%eax        # 1d0a4 <g_109>
   16020:	39 c2                	cmp    %eax,%edx
   16022:	0f 94 c0             	sete   %al
   16025:	0f b6 d0             	movzbl %al,%edx
   16028:	8b 05 1a 98 00 00    	mov    0x981a(%rip),%eax        # 1f848 <g_2>
   1602e:	39 c2                	cmp    %eax,%edx
   16030:	0f 9f c0             	setg   %al
   16033:	0f b6 c0             	movzbl %al,%eax
   16036:	be ce 06 63 01       	mov    $0x16306ce,%esi
   1603b:	89 c7                	mov    %eax,%edi
   1603d:	e8 76 0e ff ff       	callq  6eb8 <safe_add_func_uint32_t_u_u>
   16042:	89 c2                	mov    %eax,%edx
   16044:	48 8b 85 b8 ed ff ff 	mov    -0x1248(%rbp),%rax
   1604b:	48 09 d0             	or     %rdx,%rax
   1604e:	48 85 c0             	test   %rax,%rax
   16051:	0f 94 c0             	sete   %al
   16054:	0f b6 c0             	movzbl %al,%eax
   16057:	44 21 e8             	and    %r13d,%eax
   1605a:	85 c0                	test   %eax,%eax
   1605c:	75 07                	jne    16065 <func_68+0x2619>
   1605e:	83 bd 3c ed ff ff 00 	cmpl   $0x0,-0x12c4(%rbp)
   16065:	80 bd 4f ed ff ff 01 	cmpb   $0x1,-0x12b1(%rbp)
   1606c:	0f 94 c0             	sete   %al
   1606f:	0f b6 d0             	movzbl %al,%edx
   16072:	0f b7 05 d3 97 00 00 	movzwl 0x97d3(%rip),%eax        # 1f84c <g_95>
   16079:	98                   	cwtl   
   1607a:	21 d0                	and    %edx,%eax
   1607c:	44 89 e6             	mov    %r12d,%esi
   1607f:	89 c7                	mov    %eax,%edi
   16081:	e8 77 0e ff ff       	callq  6efd <safe_mod_func_uint32_t_u_u>
   16086:	8b 95 3c ed ff ff    	mov    -0x12c4(%rbp),%edx
   1608c:	39 d0                	cmp    %edx,%eax
   1608e:	0f 92 c0             	setb   %al
   16091:	0f b6 c0             	movzbl %al,%eax
   16094:	48 8b 15 fd 6f 00 00 	mov    0x6ffd(%rip),%rdx        # 1d098 <g_104>
   1609b:	21 c2                	and    %eax,%edx
   1609d:	8b 85 88 ed ff ff    	mov    -0x1278(%rbp),%eax
   160a3:	98                   	cwtl   
   160a4:	89 d6                	mov    %edx,%esi
   160a6:	89 c7                	mov    %eax,%edi
   160a8:	e8 e5 03 ff ff       	callq  6492 <safe_lshift_func_int16_t_s_s>
   160ad:	48 0f bf d0          	movswq %ax,%rdx
   160b1:	48 8b 05 f8 6f 00 00 	mov    0x6ff8(%rip),%rax        # 1d0b0 <g_173>
   160b8:	48 39 c2             	cmp    %rax,%rdx
   160bb:	0f 96 c0             	setbe  %al
   160be:	0f b6 c0             	movzbl %al,%eax
   160c1:	89 de                	mov    %ebx,%esi
   160c3:	89 c7                	mov    %eax,%edi
   160c5:	e8 67 01 ff ff       	callq  6231 <safe_mod_func_int8_t_s_s>
   160ca:	84 c0                	test   %al,%al
   160cc:	75 0c                	jne    160da <func_68+0x268e>
   160ce:	48 8b 05 53 6f 00 00 	mov    0x6f53(%rip),%rax        # 1d028 <g_75>
   160d5:	48 85 c0             	test   %rax,%rax
   160d8:	74 07                	je     160e1 <func_68+0x2695>
   160da:	ba 01 00 00 00       	mov    $0x1,%edx
   160df:	eb 05                	jmp    160e6 <func_68+0x269a>
   160e1:	ba 00 00 00 00       	mov    $0x0,%edx
   160e6:	8b 85 20 ef ff ff    	mov    -0x10e0(%rbp),%eax
   160ec:	21 d0                	and    %edx,%eax
   160ee:	89 85 20 ef ff ff    	mov    %eax,-0x10e0(%rbp)
   160f4:	e9 8f 03 00 00       	jmpq   16488 <func_68+0x2a3c>
   160f9:	48 8d 05 bc 6f 00 00 	lea    0x6fbc(%rip),%rax        # 1d0bc <g_293>
   16100:	48 89 85 80 ee ff ff 	mov    %rax,-0x1180(%rbp)
   16107:	48 c7 85 88 ee ff ff 	movq   $0x0,-0x1178(%rbp)
   1610e:	00 00 00 00 
   16112:	c7 85 74 ed ff ff 00 	movl   $0x0,-0x128c(%rbp)
   16119:	00 00 00 
   1611c:	eb 21                	jmp    1613f <func_68+0x26f3>
   1611e:	8b 85 74 ed ff ff    	mov    -0x128c(%rbp),%eax
   16124:	48 98                	cltq   
   16126:	48 bb d7 c2 fe d2 74 	movabs $0xdce41174d2fec2d7,%rbx
   1612d:	11 e4 dc 
   16130:	48 89 9c c5 00 ef ff 	mov    %rbx,-0x1100(%rbp,%rax,8)
   16137:	ff 
   16138:	83 85 74 ed ff ff 01 	addl   $0x1,-0x128c(%rbp)
   1613f:	83 bd 74 ed ff ff 02 	cmpl   $0x2,-0x128c(%rbp)
   16146:	7e d6                	jle    1611e <func_68+0x26d2>
   16148:	c7 85 74 ed ff ff 00 	movl   $0x0,-0x128c(%rbp)
   1614f:	00 00 00 
   16152:	eb 74                	jmp    161c8 <func_68+0x277c>
   16154:	c7 85 78 ed ff ff 00 	movl   $0x0,-0x1288(%rbp)
   1615b:	00 00 00 
   1615e:	eb 58                	jmp    161b8 <func_68+0x276c>
   16160:	c7 85 7c ed ff ff 00 	movl   $0x0,-0x1284(%rbp)
   16167:	00 00 00 
   1616a:	eb 3c                	jmp    161a8 <func_68+0x275c>
   1616c:	8b 85 7c ed ff ff    	mov    -0x1284(%rbp),%eax
   16172:	48 63 d0             	movslq %eax,%rdx
   16175:	8b 85 78 ed ff ff    	mov    -0x1288(%rbp),%eax
   1617b:	48 98                	cltq   
   1617d:	8b 8d 74 ed ff ff    	mov    -0x128c(%rbp),%ecx
   16183:	48 63 c9             	movslq %ecx,%rcx
   16186:	48 01 c9             	add    %rcx,%rcx
   16189:	48 01 ca             	add    %rcx,%rdx
   1618c:	48 01 d0             	add    %rdx,%rax
   1618f:	48 bb 77 18 f4 d6 89 	movabs $0x68c0c089d6f41877,%rbx
   16196:	c0 c0 68 
   16199:	48 89 9c c5 d0 ee ff 	mov    %rbx,-0x1130(%rbp,%rax,8)
   161a0:	ff 
   161a1:	83 85 7c ed ff ff 01 	addl   $0x1,-0x1284(%rbp)
   161a8:	83 bd 7c ed ff ff 00 	cmpl   $0x0,-0x1284(%rbp)
   161af:	7e bb                	jle    1616c <func_68+0x2720>
   161b1:	83 85 78 ed ff ff 01 	addl   $0x1,-0x1288(%rbp)
   161b8:	83 bd 78 ed ff ff 01 	cmpl   $0x1,-0x1288(%rbp)
   161bf:	7e 9f                	jle    16160 <func_68+0x2714>
   161c1:	83 85 74 ed ff ff 01 	addl   $0x1,-0x128c(%rbp)
   161c8:	83 bd 74 ed ff ff 00 	cmpl   $0x0,-0x128c(%rbp)
   161cf:	7e 83                	jle    16154 <func_68+0x2708>
   161d1:	c7 85 74 ed ff ff 00 	movl   $0x0,-0x128c(%rbp)
   161d8:	00 00 00 
   161db:	eb 1e                	jmp    161fb <func_68+0x27af>
   161dd:	8b 85 74 ed ff ff    	mov    -0x128c(%rbp),%eax
   161e3:	48 98                	cltq   
   161e5:	48 8d 95 b8 ed ff ff 	lea    -0x1248(%rbp),%rdx
   161ec:	48 89 94 c5 a0 f0 ff 	mov    %rdx,-0xf60(%rbp,%rax,8)
   161f3:	ff 
   161f4:	83 85 74 ed ff ff 01 	addl   $0x1,-0x128c(%rbp)
   161fb:	83 bd 74 ed ff ff 05 	cmpl   $0x5,-0x128c(%rbp)
   16202:	7e d9                	jle    161dd <func_68+0x2791>
   16204:	c7 85 74 ed ff ff 00 	movl   $0x0,-0x128c(%rbp)
   1620b:	00 00 00 
   1620e:	eb 1b                	jmp    1622b <func_68+0x27df>
   16210:	8b 85 74 ed ff ff    	mov    -0x128c(%rbp),%eax
   16216:	48 98                	cltq   
   16218:	48 c7 84 c5 80 ef ff 	movq   $0x0,-0x1080(%rbp,%rax,8)
   1621f:	ff 00 00 00 00 
   16224:	83 85 74 ed ff ff 01 	addl   $0x1,-0x128c(%rbp)
   1622b:	83 bd 74 ed ff ff 02 	cmpl   $0x2,-0x128c(%rbp)
   16232:	7e dc                	jle    16210 <func_68+0x27c4>
   16234:	48 8b 85 d8 ee ff ff 	mov    -0x1128(%rbp),%rax
   1623b:	0f b7 d8             	movzwl %ax,%ebx
   1623e:	8b 05 74 6e 00 00    	mov    0x6e74(%rip),%eax        # 1d0b8 <g_257>
   16244:	41 89 c7             	mov    %eax,%r15d
   16247:	8b 05 fb 95 00 00    	mov    0x95fb(%rip),%eax        # 1f848 <g_2>
   1624d:	44 0f b6 e0          	movzbl %al,%r12d
   16251:	48 8b 05 40 6e 00 00 	mov    0x6e40(%rip),%rax        # 1d098 <g_104>
   16258:	48 89 85 30 ed ff ff 	mov    %rax,-0x12d0(%rbp)
   1625f:	44 8b 2d e2 95 00 00 	mov    0x95e2(%rip),%r13d        # 1f848 <g_2>
   16266:	8b 85 38 ed ff ff    	mov    -0x12c8(%rbp),%eax
   1626c:	44 0f b7 f0          	movzwl %ax,%r14d
   16270:	48 8b 85 00 ef ff ff 	mov    -0x1100(%rbp),%rax
   16277:	89 c2                	mov    %eax,%edx
   16279:	48 8b 85 00 ef ff ff 	mov    -0x1100(%rbp),%rax
   16280:	89 c1                	mov    %eax,%ecx
   16282:	48 8b 85 80 ee ff ff 	mov    -0x1180(%rbp),%rax
   16289:	88 08                	mov    %cl,(%rax)
   1628b:	48 8b 85 80 ee ff ff 	mov    -0x1180(%rbp),%rax
   16292:	0f b6 00             	movzbl (%rax),%eax
   16295:	0f b6 c0             	movzbl %al,%eax
   16298:	89 d6                	mov    %edx,%esi
   1629a:	89 c7                	mov    %eax,%edi
   1629c:	e8 ab 09 ff ff       	callq  6c4c <safe_lshift_func_uint8_t_u_u>
   162a1:	0f b6 c0             	movzbl %al,%eax
   162a4:	44 89 f6             	mov    %r14d,%esi
   162a7:	89 c7                	mov    %eax,%edi
   162a9:	e8 e0 0a ff ff       	callq  6d8e <safe_div_func_uint16_t_u_u>
   162ae:	0f b6 05 0f 6e 00 00 	movzbl 0x6e0f(%rip),%eax        # 1d0c4 <g_294+0x4>
   162b5:	0f b6 c0             	movzbl %al,%eax
   162b8:	39 85 38 ed ff ff    	cmp    %eax,-0x12c8(%rbp)
   162be:	0f 9f c0             	setg   %al
   162c1:	0f b6 c0             	movzbl %al,%eax
   162c4:	44 89 ee             	mov    %r13d,%esi
   162c7:	89 c7                	mov    %eax,%edi
   162c9:	e8 7a 0b ff ff       	callq  6e48 <safe_rshift_func_uint16_t_u_s>
   162ce:	0f b7 d0             	movzwl %ax,%edx
   162d1:	8b 85 ec ee ff ff    	mov    -0x1114(%rbp),%eax
   162d7:	21 c2                	and    %eax,%edx
   162d9:	0f b7 85 52 ed ff ff 	movzwl -0x12ae(%rbp),%eax
   162e0:	0f b7 c0             	movzwl %ax,%eax
   162e3:	39 c2                	cmp    %eax,%edx
   162e5:	0f 95 c0             	setne  %al
   162e8:	0f b6 d0             	movzbl %al,%edx
   162eb:	48 8b 85 40 ee ff ff 	mov    -0x11c0(%rbp),%rax
   162f2:	89 10                	mov    %edx,(%rax)
   162f4:	48 8b 85 40 ee ff ff 	mov    -0x11c0(%rbp),%rax
   162fb:	8b 00                	mov    (%rax),%eax
   162fd:	3d 89 00 00 00       	cmp    $0x89,%eax
   16302:	0f 94 c0             	sete   %al
   16305:	0f b6 c0             	movzbl %al,%eax
   16308:	8b 15 4a 95 00 00    	mov    0x954a(%rip),%edx        # 1f858 <g_101>
   1630e:	89 d2                	mov    %edx,%edx
   16310:	48 39 d0             	cmp    %rdx,%rax
   16313:	0f 95 c0             	setne  %al
   16316:	0f b6 d0             	movzbl %al,%edx
   16319:	8b 05 99 6d 00 00    	mov    0x6d99(%rip),%eax        # 1d0b8 <g_257>
   1631f:	39 c2                	cmp    %eax,%edx
   16321:	0f 9c c0             	setl   %al
   16324:	0f b6 c0             	movzbl %al,%eax
   16327:	48 8b b5 30 ed ff ff 	mov    -0x12d0(%rbp),%rsi
   1632e:	48 89 c7             	mov    %rax,%rdi
   16331:	e8 4a 0d ff ff       	callq  7080 <safe_mod_func_uint64_t_u_u>
   16336:	0f b6 c0             	movzbl %al,%eax
   16339:	44 89 e6             	mov    %r12d,%esi
   1633c:	89 c7                	mov    %eax,%edi
   1633e:	e8 6b 08 ff ff       	callq  6bae <safe_mod_func_uint8_t_u_u>
   16343:	0f b6 c0             	movzbl %al,%eax
   16346:	f7 d0                	not    %eax
   16348:	0f b7 c0             	movzwl %ax,%eax
   1634b:	be 0c 00 00 00       	mov    $0xc,%esi
   16350:	89 c7                	mov    %eax,%edi
   16352:	e8 67 0a ff ff       	callq  6dbe <safe_lshift_func_uint16_t_u_s>
   16357:	0f b7 c0             	movzwl %ax,%eax
   1635a:	39 85 3c ed ff ff    	cmp    %eax,-0x12c4(%rbp)
   16360:	7c 07                	jl     16369 <func_68+0x291d>
   16362:	b8 1d f9 28 f4       	mov    $0xf428f91d,%eax
   16367:	eb 05                	jmp    1636e <func_68+0x2922>
   16369:	b8 1c f9 28 f4       	mov    $0xf428f91c,%eax
   1636e:	8b 15 e4 94 00 00    	mov    0x94e4(%rip),%edx        # 1f858 <g_101>
   16374:	89 d2                	mov    %edx,%edx
   16376:	48 39 d0             	cmp    %rdx,%rax
   16379:	0f 9e c0             	setle  %al
   1637c:	0f b6 c0             	movzbl %al,%eax
   1637f:	44 89 fe             	mov    %r15d,%esi
   16382:	89 c7                	mov    %eax,%edi
   16384:	e8 7d 0a ff ff       	callq  6e06 <safe_lshift_func_uint16_t_u_u>
   16389:	0f b7 d0             	movzwl %ax,%edx
   1638c:	8b 05 3a 6d 00 00    	mov    0x6d3a(%rip),%eax        # 1d0cc <g_296>
   16392:	09 d0                	or     %edx,%eax
   16394:	89 05 32 6d 00 00    	mov    %eax,0x6d32(%rip)        # 1d0cc <g_296>
   1639a:	8b 05 2c 6d 00 00    	mov    0x6d2c(%rip),%eax        # 1d0cc <g_296>
   163a0:	44 0f be e0          	movsbl %al,%r12d
   163a4:	be 09 00 00 00       	mov    $0x9,%esi
   163a9:	bf 04 00 00 00       	mov    $0x4,%edi
   163ae:	e8 95 0a ff ff       	callq  6e48 <safe_rshift_func_uint16_t_u_s>
   163b3:	0f be c0             	movsbl %al,%eax
   163b6:	44 89 e6             	mov    %r12d,%esi
   163b9:	89 c7                	mov    %eax,%edi
   163bb:	e8 32 fe fe ff       	callq  61f2 <safe_sub_func_int8_t_s_s>
   163c0:	48 0f be c0          	movsbq %al,%rax
   163c4:	48 be 81 7f 18 d5 83 	movabs $0xc4312d83d5187f81,%rsi
   163cb:	2d 31 c4 
   163ce:	48 89 c7             	mov    %rax,%rdi
   163d1:	e8 75 0c ff ff       	callq  704b <safe_sub_func_uint64_t_u_u>
   163d6:	0f b7 c0             	movzwl %ax,%eax
   163d9:	89 de                	mov    %ebx,%esi
   163db:	89 c7                	mov    %eax,%edi
   163dd:	e8 5b 09 ff ff       	callq  6d3d <safe_mul_func_uint16_t_u_u>
   163e2:	8b 95 30 ef ff ff    	mov    -0x10d0(%rbp),%edx
   163e8:	0f b7 c0             	movzwl %ax,%eax
   163eb:	21 d0                	and    %edx,%eax
   163ed:	89 85 30 ef ff ff    	mov    %eax,-0x10d0(%rbp)
   163f3:	be ff ff 00 00       	mov    $0xffff,%esi
   163f8:	bf 00 00 00 00       	mov    $0x0,%edi
   163fd:	e8 1d 09 ff ff       	callq  6d1f <safe_sub_func_uint16_t_u_u>
   16402:	0f b7 c0             	movzwl %ax,%eax
   16405:	be f6 ff 00 00       	mov    $0xfff6,%esi
   1640a:	89 c7                	mov    %eax,%edi
   1640c:	e8 7d 09 ff ff       	callq  6d8e <safe_div_func_uint16_t_u_u>
   16411:	48 8d 05 8c 6c 00 00 	lea    0x6c8c(%rip),%rax        # 1d0a4 <g_109>
   16418:	48 39 85 40 ee ff ff 	cmp    %rax,-0x11c0(%rbp)
   1641f:	0f 95 c0             	setne  %al
   16422:	0f b6 c0             	movzbl %al,%eax
   16425:	be d2 76 41 d1       	mov    $0xd14176d2,%esi
   1642a:	89 c7                	mov    %eax,%edi
   1642c:	e8 85 01 ff ff       	callq  65b6 <safe_add_func_int32_t_s_s>
   16431:	0f b6 c0             	movzbl %al,%eax
   16434:	be 01 00 00 00       	mov    $0x1,%esi
   16439:	89 c7                	mov    %eax,%edi
   1643b:	e8 53 07 ff ff       	callq  6b93 <safe_mul_func_uint8_t_u_u>
   16440:	3c 04                	cmp    $0x4,%al
   16442:	0f 95 c0             	setne  %al
   16445:	0f b6 d0             	movzbl %al,%edx
   16448:	0f b6 45 bd          	movzbl -0x43(%rbp),%eax
   1644c:	0f be c0             	movsbl %al,%eax
   1644f:	21 d0                	and    %edx,%eax
   16451:	39 85 3c ed ff ff    	cmp    %eax,-0x12c4(%rbp)
   16457:	0f 94 c0             	sete   %al
   1645a:	0f b6 d0             	movzbl %al,%edx
   1645d:	8b 05 41 6c 00 00    	mov    0x6c41(%rip),%eax        # 1d0a4 <g_109>
   16463:	21 d0                	and    %edx,%eax
   16465:	89 05 39 6c 00 00    	mov    %eax,0x6c39(%rip)        # 1d0a4 <g_109>
   1646b:	48 8b 85 d0 ed ff ff 	mov    -0x1230(%rbp),%rax
   16472:	48 89 85 10 ee ff ff 	mov    %rax,-0x11f0(%rbp)
   16479:	48 8b 85 10 ef ff ff 	mov    -0x10f0(%rbp),%rax
   16480:	48 85 c0             	test   %rax,%rax
   16483:	74 03                	je     16488 <func_68+0x2a3c>
   16485:	90                   	nop
   16486:	eb 25                	jmp    164ad <func_68+0x2a61>
   16488:	48 8b 05 99 6b 00 00 	mov    0x6b99(%rip),%rax        # 1d028 <g_75>
   1648f:	48 83 c0 01          	add    $0x1,%rax
   16493:	48 89 05 8e 6b 00 00 	mov    %rax,0x6b8e(%rip)        # 1d028 <g_75>
   1649a:	48 8b 05 87 6b 00 00 	mov    0x6b87(%rip),%rax        # 1d028 <g_75>
   164a1:	48 83 f8 01          	cmp    $0x1,%rax
   164a5:	0f 86 d9 e5 ff ff    	jbe    14a84 <func_68+0x1038>
   164ab:	eb 01                	jmp    164ae <func_68+0x2a62>
   164ad:	90                   	nop
   164ae:	83 bd 3c ed ff ff 00 	cmpl   $0x0,-0x12c4(%rbp)
   164b5:	0f 85 e8 00 00 00    	jne    165a3 <func_68+0x2b57>
   164bb:	8b 85 8c ed ff ff    	mov    -0x1274(%rbp),%eax
   164c1:	0f bf c8             	movswl %ax,%ecx
   164c4:	48 8b 05 0d 86 00 00 	mov    0x860d(%rip),%rax        # 1ead8 <g_449>
   164cb:	8b 10                	mov    (%rax),%edx
   164cd:	48 8b 85 20 ee ff ff 	mov    -0x11e0(%rbp),%rax
   164d4:	8b 00                	mov    (%rax),%eax
   164d6:	31 c2                	xor    %eax,%edx
   164d8:	48 8b 85 20 ee ff ff 	mov    -0x11e0(%rbp),%rax
   164df:	89 10                	mov    %edx,(%rax)
   164e1:	8b 05 35 6c 00 00    	mov    0x6c35(%rip),%eax        # 1d11c <g_882>
   164e7:	48 8b 85 e8 ed ff ff 	mov    -0x1218(%rbp),%rax
   164ee:	48 8b 10             	mov    (%rax),%rdx
   164f1:	48 8d 72 01          	lea    0x1(%rdx),%rsi
   164f5:	48 89 30             	mov    %rsi,(%rax)
   164f8:	48 83 fa 01          	cmp    $0x1,%rdx
   164fc:	0f 96 c0             	setbe  %al
   164ff:	0f b6 c0             	movzbl %al,%eax
   16502:	39 85 38 ed ff ff    	cmp    %eax,-0x12c8(%rbp)
   16508:	0f 9e c0             	setle  %al
   1650b:	0f b6 f0             	movzbl %al,%esi
   1650e:	48 8b 05 3b 87 00 00 	mov    0x873b(%rip),%rax        # 1ec50 <g_525>
   16515:	8b 10                	mov    (%rax),%edx
   16517:	48 8b 05 32 87 00 00 	mov    0x8732(%rip),%rax        # 1ec50 <g_525>
   1651e:	31 f2                	xor    %esi,%edx
   16520:	89 10                	mov    %edx,(%rax)
   16522:	8b 00                	mov    (%rax),%eax
   16524:	f7 d0                	not    %eax
   16526:	39 85 38 ed ff ff    	cmp    %eax,-0x12c8(%rbp)
   1652c:	0f 9d c0             	setge  %al
   1652f:	0f b6 f0             	movzbl %al,%esi
   16532:	48 8b 05 ef 84 00 00 	mov    0x84ef(%rip),%rax        # 1ea28 <g_352>
   16539:	0f b7 10             	movzwl (%rax),%edx
   1653c:	48 8b 05 e5 84 00 00 	mov    0x84e5(%rip),%rax        # 1ea28 <g_352>
   16543:	09 f2                	or     %esi,%edx
   16545:	66 89 10             	mov    %dx,(%rax)
   16548:	48 8b 05 61 87 00 00 	mov    0x8761(%rip),%rax        # 1ecb0 <g_769>
   1654f:	0f b7 00             	movzwl (%rax),%eax
   16552:	98                   	cwtl   
   16553:	89 ce                	mov    %ecx,%esi
   16555:	89 c7                	mov    %eax,%edi
   16557:	e8 99 fe fe ff       	callq  63f5 <safe_mul_func_int16_t_s_s>
   1655c:	98                   	cwtl   
   1655d:	be 02 00 00 00       	mov    $0x2,%esi
   16562:	89 c7                	mov    %eax,%edi
   16564:	e8 78 ff fe ff       	callq  64e1 <safe_lshift_func_int16_t_s_u>
   16569:	48 8b 05 68 85 00 00 	mov    0x8568(%rip),%rax        # 1ead8 <g_449>
   16570:	c7 00 01 00 00 00    	movl   $0x1,(%rax)
   16576:	8b 85 38 ed ff ff    	mov    -0x12c8(%rbp),%eax
   1657c:	48 98                	cltq   
   1657e:	be 08 00 00 00       	mov    $0x8,%esi
   16583:	48 89 c7             	mov    %rax,%rdi
   16586:	e8 a3 0a ff ff       	callq  702e <safe_add_func_uint64_t_u_u>
   1658b:	89 85 38 ed ff ff    	mov    %eax,-0x12c8(%rbp)
   16591:	83 bd 38 ed ff ff 04 	cmpl   $0x4,-0x12c8(%rbp)
   16598:	0f 8f be dc ff ff    	jg     1425c <func_68+0x810>
   1659e:	eb 04                	jmp    165a4 <func_68+0x2b58>
   165a0:	90                   	nop
   165a1:	eb 01                	jmp    165a4 <func_68+0x2b58>
   165a3:	90                   	nop
   165a4:	c7 85 3c ed ff ff 00 	movl   $0x0,-0x12c4(%rbp)
   165ab:	00 00 00 
   165ae:	e9 88 04 00 00       	jmpq   16a3b <func_68+0x2fef>
   165b3:	c7 85 f0 f5 ff ff 6a 	movl   $0x4ff1ed6a,-0xa10(%rbp)
   165ba:	ed f1 4f 
   165bd:	c7 85 f4 f5 ff ff ff 	movl   $0xffffffff,-0xa0c(%rbp)
   165c4:	ff ff ff 
   165c7:	c7 85 f8 f5 ff ff ff 	movl   $0xffffffff,-0xa08(%rbp)
   165ce:	ff ff ff 
   165d1:	c7 85 fc f5 ff ff 6a 	movl   $0x4ff1ed6a,-0xa04(%rbp)
   165d8:	ed f1 4f 
   165db:	c7 85 00 f6 ff ff ff 	movl   $0xffffffff,-0xa00(%rbp)
   165e2:	ff ff ff 
   165e5:	c7 85 04 f6 ff ff ff 	movl   $0xffffffff,-0x9fc(%rbp)
   165ec:	ff ff ff 
   165ef:	c7 85 a8 ed ff ff 07 	movl   $0x7,-0x1258(%rbp)
   165f6:	00 00 00 
   165f9:	48 8d 85 40 f4 ff ff 	lea    -0xbc0(%rbp),%rax
   16600:	48 89 85 a8 ee ff ff 	mov    %rax,-0x1158(%rbp)
   16607:	c7 85 80 ed ff ff 00 	movl   $0x0,-0x1280(%rbp)
   1660e:	00 00 00 
   16611:	eb 1e                	jmp    16631 <func_68+0x2be5>
   16613:	8b 85 80 ed ff ff    	mov    -0x1280(%rbp),%eax
   16619:	48 98                	cltq   
   1661b:	48 8d 95 c8 ed ff ff 	lea    -0x1238(%rbp),%rdx
   16622:	48 89 94 c5 40 f4 ff 	mov    %rdx,-0xbc0(%rbp,%rax,8)
   16629:	ff 
   1662a:	83 85 80 ed ff ff 01 	addl   $0x1,-0x1280(%rbp)
   16631:	83 bd 80 ed ff ff 00 	cmpl   $0x0,-0x1280(%rbp)
   16638:	7e d9                	jle    16613 <func_68+0x2bc7>
   1663a:	66 c7 85 54 ed ff ff 	movw   $0xb,-0x12ac(%rbp)
   16641:	0b 00 
   16643:	66 83 bd 54 ed ff ff 	cmpw   $0x29,-0x12ac(%rbp)
   1664a:	29 
   1664b:	0f 87 27 02 00 00    	ja     16878 <func_68+0x2e2c>
   16651:	48 c7 85 b0 ee ff ff 	movq   $0x1,-0x1150(%rbp)
   16658:	01 00 00 00 
   1665c:	48 8d 85 50 ed ff ff 	lea    -0x12b0(%rbp),%rax
   16663:	48 89 85 20 f8 ff ff 	mov    %rax,-0x7e0(%rbp)
   1666a:	48 8d 85 50 ed ff ff 	lea    -0x12b0(%rbp),%rax
   16671:	48 89 85 28 f8 ff ff 	mov    %rax,-0x7d8(%rbp)
   16678:	48 8d 85 50 ed ff ff 	lea    -0x12b0(%rbp),%rax
   1667f:	48 89 85 30 f8 ff ff 	mov    %rax,-0x7d0(%rbp)
   16686:	48 8d 85 50 ed ff ff 	lea    -0x12b0(%rbp),%rax
   1668d:	48 89 85 38 f8 ff ff 	mov    %rax,-0x7c8(%rbp)
   16694:	48 8d 85 50 ed ff ff 	lea    -0x12b0(%rbp),%rax
   1669b:	48 89 85 40 f8 ff ff 	mov    %rax,-0x7c0(%rbp)
   166a2:	48 8d 85 50 ed ff ff 	lea    -0x12b0(%rbp),%rax
   166a9:	48 89 85 48 f8 ff ff 	mov    %rax,-0x7b8(%rbp)
   166b0:	48 8d 85 50 ed ff ff 	lea    -0x12b0(%rbp),%rax
   166b7:	48 89 85 50 f8 ff ff 	mov    %rax,-0x7b0(%rbp)
   166be:	48 8d 85 50 ed ff ff 	lea    -0x12b0(%rbp),%rax
   166c5:	48 89 85 58 f8 ff ff 	mov    %rax,-0x7a8(%rbp)
   166cc:	c7 85 b0 ed ff ff 40 	movl   $0x629b7940,-0x1250(%rbp)
   166d3:	79 9b 62 
   166d6:	c7 85 b4 ed ff ff fa 	movl   $0x1dcd4efa,-0x124c(%rbp)
   166dd:	4e cd 1d 
   166e0:	8b 1d ba 69 00 00    	mov    0x69ba(%rip),%ebx        # 1d0a0 <g_107>
   166e6:	8b 85 38 ed ff ff    	mov    -0x12c8(%rbp),%eax
   166ec:	0f b7 c0             	movzwl %ax,%eax
   166ef:	89 c6                	mov    %eax,%esi
   166f1:	bf c4 44 00 00       	mov    $0x44c4,%edi
   166f6:	e8 61 06 ff ff       	callq  6d5c <safe_mod_func_uint16_t_u_u>
   166fb:	0f b7 c8             	movzwl %ax,%ecx
   166fe:	48 8b 85 b0 ee ff ff 	mov    -0x1150(%rbp),%rax
   16705:	48 8d 50 01          	lea    0x1(%rax),%rdx
   16709:	48 89 95 b0 ee ff ff 	mov    %rdx,-0x1150(%rbp)
   16710:	48 39 c1             	cmp    %rax,%rcx
   16713:	0f 94 c2             	sete   %dl
   16716:	48 8b 05 33 85 00 00 	mov    0x8533(%rip),%rax        # 1ec50 <g_525>
   1671d:	0f b6 d2             	movzbl %dl,%edx
   16720:	89 10                	mov    %edx,(%rax)
   16722:	8b 10                	mov    (%rax),%edx
   16724:	8b 85 00 f6 ff ff    	mov    -0xa00(%rbp),%eax
   1672a:	31 d0                	xor    %edx,%eax
   1672c:	89 85 00 f6 ff ff    	mov    %eax,-0xa00(%rbp)
   16732:	8b 85 00 f6 ff ff    	mov    -0xa00(%rbp),%eax
   16738:	85 c0                	test   %eax,%eax
   1673a:	75 1f                	jne    1675b <func_68+0x2d0f>
   1673c:	8b 85 38 ed ff ff    	mov    -0x12c8(%rbp),%eax
   16742:	98                   	cwtl   
   16743:	89 c7                	mov    %eax,%edi
   16745:	e8 53 fc fe ff       	callq  639d <safe_unary_minus_func_int16_t_s>
   1674a:	0f b6 c0             	movzbl %al,%eax
   1674d:	be 07 00 00 00       	mov    $0x7,%esi
   16752:	89 c7                	mov    %eax,%edi
   16754:	e8 f3 04 ff ff       	callq  6c4c <safe_lshift_func_uint8_t_u_u>
   16759:	84 c0                	test   %al,%al
   1675b:	48 8b 85 b0 ee ff ff 	mov    -0x1150(%rbp),%rax
   16762:	44 0f b7 e0          	movzwl %ax,%r12d
   16766:	48 8b 05 1b 86 00 00 	mov    0x861b(%rip),%rax        # 1ed88 <g_912+0x8>
   1676d:	48 89 05 14 86 00 00 	mov    %rax,0x8614(%rip)        # 1ed88 <g_912+0x8>
   16774:	48 8b 05 0d 86 00 00 	mov    0x860d(%rip),%rax        # 1ed88 <g_912+0x8>
   1677b:	48 8d 15 16 85 00 00 	lea    0x8516(%rip),%rdx        # 1ec98 <g_652+0x8>
   16782:	48 39 d0             	cmp    %rdx,%rax
   16785:	0f 95 c0             	setne  %al
   16788:	44 0f b6 e8          	movzbl %al,%r13d
   1678c:	48 8b 05 cd 85 00 00 	mov    0x85cd(%rip),%rax        # 1ed60 <g_859>
   16793:	48 8b 00             	mov    (%rax),%rax
   16796:	0f b6 00             	movzbl (%rax),%eax
   16799:	0f b6 c0             	movzbl %al,%eax
   1679c:	8b 95 3c ed ff ff    	mov    -0x12c4(%rbp),%edx
   167a2:	89 95 b0 ed ff ff    	mov    %edx,-0x1250(%rbp)
   167a8:	83 bd b0 ed ff ff 00 	cmpl   $0x0,-0x1250(%rbp)
   167af:	75 10                	jne    167c1 <func_68+0x2d75>
   167b1:	48 8b 15 78 82 00 00 	mov    0x8278(%rip),%rdx        # 1ea30 <g_351>
   167b8:	48 8b 12             	mov    (%rdx),%rdx
   167bb:	0f b7 12             	movzwl (%rdx),%edx
   167be:	66 85 d2             	test   %dx,%dx
   167c1:	89 c6                	mov    %eax,%esi
   167c3:	bf 00 00 00 00       	mov    $0x0,%edi
   167c8:	e8 7f 04 ff ff       	callq  6c4c <safe_lshift_func_uint8_t_u_u>
   167cd:	0f b6 c0             	movzbl %al,%eax
   167d0:	44 21 e8             	and    %r13d,%eax
   167d3:	0f b7 c0             	movzwl %ax,%eax
   167d6:	44 89 e6             	mov    %r12d,%esi
   167d9:	89 c7                	mov    %eax,%edi
   167db:	e8 5d 05 ff ff       	callq  6d3d <safe_mul_func_uint16_t_u_u>
   167e0:	98                   	cwtl   
   167e1:	8b 95 38 ed ff ff    	mov    -0x12c8(%rbp),%edx
   167e7:	89 d6                	mov    %edx,%esi
   167e9:	89 c7                	mov    %eax,%edi
   167eb:	e8 3a fd fe ff       	callq  652a <safe_rshift_func_int16_t_s_s>
   167f0:	8b 95 f0 f5 ff ff    	mov    -0xa10(%rbp),%edx
   167f6:	8b 85 a8 ed ff ff    	mov    -0x1258(%rbp),%eax
   167fc:	39 c2                	cmp    %eax,%edx
   167fe:	8b 15 5c 68 00 00    	mov    0x685c(%rip),%edx        # 1d060 <g_77+0x20>
   16804:	8b 05 12 69 00 00    	mov    0x6912(%rip),%eax        # 1d11c <g_882>
   1680a:	39 c2                	cmp    %eax,%edx
   1680c:	0f 9c c0             	setl   %al
   1680f:	0f b6 c0             	movzbl %al,%eax
   16812:	8b 95 a8 ed ff ff    	mov    -0x1258(%rbp),%edx
   16818:	89 d6                	mov    %edx,%esi
   1681a:	89 c7                	mov    %eax,%edi
   1681c:	e8 71 fc fe ff       	callq  6492 <safe_lshift_func_int16_t_s_s>
   16821:	8b 85 3c ed ff ff    	mov    -0x12c4(%rbp),%eax
   16827:	98                   	cwtl   
   16828:	be ff ff ff ff       	mov    $0xffffffff,%esi
   1682d:	89 c7                	mov    %eax,%edi
   1682f:	e8 c1 fb fe ff       	callq  63f5 <safe_mul_func_int16_t_s_s>
   16834:	98                   	cwtl   
   16835:	89 de                	mov    %ebx,%esi
   16837:	89 c7                	mov    %eax,%edi
   16839:	e8 bf 06 ff ff       	callq  6efd <safe_mod_func_uint32_t_u_u>
   1683e:	8b 95 38 ed ff ff    	mov    -0x12c8(%rbp),%edx
   16844:	39 d0                	cmp    %edx,%eax
   16846:	0f 97 c0             	seta   %al
   16849:	0f b6 c0             	movzbl %al,%eax
   1684c:	be ff ff ff ff       	mov    $0xffffffff,%esi
   16851:	89 c7                	mov    %eax,%edi
   16853:	e8 7b fb fe ff       	callq  63d3 <safe_sub_func_int16_t_s_s>
   16858:	98                   	cwtl   
   16859:	f7 d0                	not    %eax
   1685b:	39 85 38 ed ff ff    	cmp    %eax,-0x12c8(%rbp)
   16861:	0f 9d c0             	setge  %al
   16864:	0f b6 c0             	movzbl %al,%eax
   16867:	21 85 b4 ed ff ff    	and    %eax,-0x124c(%rbp)
   1686d:	8b 85 b0 ed ff ff    	mov    -0x1250(%rbp),%eax
   16873:	e9 dd 01 00 00       	jmpq   16a55 <func_68+0x3009>
   16878:	be 04 00 00 00       	mov    $0x4,%esi
   1687d:	bf 19 00 00 00       	mov    $0x19,%edi
   16882:	e8 7e 03 ff ff       	callq  6c05 <safe_lshift_func_uint8_t_u_s>
   16887:	0f b6 c0             	movzbl %al,%eax
   1688a:	be f6 ff 00 00       	mov    $0xfff6,%esi
   1688f:	89 c7                	mov    %eax,%edi
   16891:	e8 89 04 ff ff       	callq  6d1f <safe_sub_func_uint16_t_u_u>
   16896:	0f be c0             	movsbl %al,%eax
   16899:	be 05 00 00 00       	mov    $0x5,%esi
   1689e:	89 c7                	mov    %eax,%edi
   168a0:	e8 90 fa fe ff       	callq  6335 <safe_rshift_func_int8_t_s_s>
   168a5:	84 c0                	test   %al,%al
   168a7:	74 36                	je     168df <func_68+0x2e93>
   168a9:	83 bd a8 ed ff ff 00 	cmpl   $0x0,-0x1258(%rbp)
   168b0:	74 05                	je     168b7 <func_68+0x2e6b>
   168b2:	e9 96 d9 ff ff       	jmpq   1424d <func_68+0x801>
   168b7:	83 bd 3c ed ff ff 00 	cmpl   $0x0,-0x12c4(%rbp)
   168be:	0f 85 5b 01 00 00    	jne    16a1f <func_68+0x2fd3>
   168c4:	83 bd 3c ed ff ff 00 	cmpl   $0x0,-0x12c4(%rbp)
   168cb:	0f 85 51 01 00 00    	jne    16a22 <func_68+0x2fd6>
   168d1:	83 bd 38 ed ff ff 00 	cmpl   $0x0,-0x12c8(%rbp)
   168d8:	74 21                	je     168fb <func_68+0x2eaf>
   168da:	e9 6c 01 00 00       	jmpq   16a4b <func_68+0x2fff>
   168df:	c7 85 ac ed ff ff a1 	movl   $0xce7d52a1,-0x1254(%rbp)
   168e6:	52 7d ce 
   168e9:	83 85 ac ed ff ff 01 	addl   $0x1,-0x1254(%rbp)
   168f0:	8b 85 ac ed ff ff    	mov    -0x1254(%rbp),%eax
   168f6:	e9 5a 01 00 00       	jmpq   16a55 <func_68+0x3009>
   168fb:	8b 85 38 ed ff ff    	mov    -0x12c8(%rbp),%eax
   16901:	0f bf d8             	movswl %ax,%ebx
   16904:	0f b6 05 b9 67 00 00 	movzbl 0x67b9(%rip),%eax        # 1d0c4 <g_294+0x4>
   1690b:	0f b6 c0             	movzbl %al,%eax
   1690e:	be 07 00 00 00       	mov    $0x7,%esi
   16913:	89 c7                	mov    %eax,%edi
   16915:	e8 ec 04 ff ff       	callq  6e06 <safe_lshift_func_uint16_t_u_u>
   1691a:	66 85 c0             	test   %ax,%ax
   1691d:	0f 85 b4 00 00 00    	jne    169d7 <func_68+0x2f8b>
   16923:	8b 85 38 ed ff ff    	mov    -0x12c8(%rbp),%eax
   16929:	44 0f b6 e0          	movzbl %al,%r12d
   1692d:	48 8b 05 6c 83 00 00 	mov    0x836c(%rip),%rax        # 1eca0 <g_651>
   16934:	48 8b 00             	mov    (%rax),%rax
   16937:	4c 8b 28             	mov    (%rax),%r13
   1693a:	bf 4e 15 a0 ba       	mov    $0xbaa0154e,%edi
   1693f:	e8 52 fc fe ff       	callq  6596 <safe_unary_minus_func_int32_t_s>
   16944:	83 bd 3c ed ff ff fe 	cmpl   $0xfffffffe,-0x12c4(%rbp)
   1694b:	0f 9c c2             	setl   %dl
   1694e:	0f b6 d2             	movzbl %dl,%edx
   16951:	21 d0                	and    %edx,%eax
   16953:	48 98                	cltq   
   16955:	49 39 c5             	cmp    %rax,%r13
   16958:	0f 93 c0             	setae  %al
   1695b:	0f b6 c0             	movzbl %al,%eax
   1695e:	89 05 c0 67 00 00    	mov    %eax,0x67c0(%rip)        # 1d124 <g_966>
   16964:	8b 05 ba 67 00 00    	mov    0x67ba(%rip),%eax        # 1d124 <g_966>
   1696a:	89 c2                	mov    %eax,%edx
   1696c:	8b 85 38 ed ff ff    	mov    -0x12c8(%rbp),%eax
   16972:	21 d0                	and    %edx,%eax
   16974:	0f b6 c0             	movzbl %al,%eax
   16977:	44 89 e6             	mov    %r12d,%esi
   1697a:	89 c7                	mov    %eax,%edi
   1697c:	e8 5a 02 ff ff       	callq  6bdb <safe_div_func_uint8_t_u_u>
   16981:	0f b6 d0             	movzbl %al,%edx
   16984:	48 8b 05 c5 82 00 00 	mov    0x82c5(%rip),%rax        # 1ec50 <g_525>
   1698b:	8b 8d 3c ed ff ff    	mov    -0x12c4(%rbp),%ecx
   16991:	89 08                	mov    %ecx,(%rax)
   16993:	8b 00                	mov    (%rax),%eax
   16995:	89 d6                	mov    %edx,%esi
   16997:	89 c7                	mov    %eax,%edi
   16999:	e8 61 fd fe ff       	callq  66ff <safe_div_func_int32_t_s_s>
   1699e:	0f b7 d0             	movzwl %ax,%edx
   169a1:	8b 85 3c ed ff ff    	mov    -0x12c4(%rbp),%eax
   169a7:	0f b7 c0             	movzwl %ax,%eax
   169aa:	89 d6                	mov    %edx,%esi
   169ac:	89 c7                	mov    %eax,%edi
   169ae:	e8 4c 03 ff ff       	callq  6cff <safe_add_func_uint16_t_u_u>
   169b3:	0f b7 d0             	movzwl %ax,%edx
   169b6:	8b 85 3c ed ff ff    	mov    -0x12c4(%rbp),%eax
   169bc:	48 98                	cltq   
   169be:	48 89 d6             	mov    %rdx,%rsi
   169c1:	48 89 c7             	mov    %rax,%rdi
   169c4:	e8 82 06 ff ff       	callq  704b <safe_sub_func_uint64_t_u_u>
   169c9:	8b 95 00 f6 ff ff    	mov    -0xa00(%rbp),%edx
   169cf:	89 d2                	mov    %edx,%edx
   169d1:	48 21 d0             	and    %rdx,%rax
   169d4:	48 85 c0             	test   %rax,%rax
   169d7:	48 8b 05 82 83 00 00 	mov    0x8382(%rip),%rax        # 1ed60 <g_859>
   169de:	48 8b 00             	mov    (%rax),%rax
   169e1:	0f b6 00             	movzbl (%rax),%eax
   169e4:	0f b6 c0             	movzbl %al,%eax
   169e7:	be 01 00 00 00       	mov    $0x1,%esi
   169ec:	89 c7                	mov    %eax,%edi
   169ee:	e8 59 02 ff ff       	callq  6c4c <safe_lshift_func_uint8_t_u_u>
   169f3:	8b 85 38 ed ff ff    	mov    -0x12c8(%rbp),%eax
   169f9:	98                   	cwtl   
   169fa:	89 de                	mov    %ebx,%esi
   169fc:	89 c7                	mov    %eax,%edi
   169fe:	e8 b0 f9 fe ff       	callq  63b3 <safe_add_func_int16_t_s_s>
   16a03:	89 c2                	mov    %eax,%edx
   16a05:	48 8d 05 cc 80 00 00 	lea    0x80cc(%rip),%rax        # 1ead8 <g_449>
   16a0c:	48 8b 00             	mov    (%rax),%rax
   16a0f:	0f bf d2             	movswl %dx,%edx
   16a12:	89 10                	mov    %edx,(%rax)
   16a14:	83 bd 3c ed ff ff 00 	cmpl   $0x0,-0x12c4(%rbp)
   16a1b:	75 2d                	jne    16a4a <func_68+0x2ffe>
   16a1d:	eb 04                	jmp    16a23 <func_68+0x2fd7>
   16a1f:	90                   	nop
   16a20:	eb 01                	jmp    16a23 <func_68+0x2fd7>
   16a22:	90                   	nop
   16a23:	8b 85 3c ed ff ff    	mov    -0x12c4(%rbp),%eax
   16a29:	be 01 00 00 00       	mov    $0x1,%esi
   16a2e:	89 c7                	mov    %eax,%edi
   16a30:	e8 83 04 ff ff       	callq  6eb8 <safe_add_func_uint32_t_u_u>
   16a35:	89 85 3c ed ff ff    	mov    %eax,-0x12c4(%rbp)
   16a3b:	83 bd 3c ed ff ff 0a 	cmpl   $0xa,-0x12c4(%rbp)
   16a42:	0f 85 6b fb ff ff    	jne    165b3 <func_68+0x2b67>
   16a48:	eb 01                	jmp    16a4b <func_68+0x2fff>
   16a4a:	90                   	nop
   16a4b:	48 8b 05 56 82 00 00 	mov    0x8256(%rip),%rax        # 1eca8 <g_725>
   16a52:	0f b6 00             	movzbl (%rax),%eax
   16a55:	48 8b 5d c8          	mov    -0x38(%rbp),%rbx
   16a59:	64 48 33 1c 25 28 00 	xor    %fs:0x28,%rbx
   16a60:	00 00 
   16a62:	74 05                	je     16a69 <func_68+0x301d>
   16a64:	e8 07 f6 fe ff       	callq  6070 <__stack_chk_fail@plt>
   16a69:	48 81 c4 a8 12 00 00 	add    $0x12a8,%rsp
   16a70:	5b                   	pop    %rbx
   16a71:	41 5c                	pop    %r12
   16a73:	41 5d                	pop    %r13
   16a75:	41 5e                	pop    %r14
   16a77:	41 5f                	pop    %r15
   16a79:	5d                   	pop    %rbp
   16a7a:	c3                   	retq   

0000000000016a7b <func_71>:
   16a7b:	f3 0f 1e fa          	endbr64 
   16a7f:	55                   	push   %rbp
   16a80:	48 89 e5             	mov    %rsp,%rbp
   16a83:	41 57                	push   %r15
   16a85:	41 56                	push   %r14
   16a87:	41 55                	push   %r13
   16a89:	41 54                	push   %r12
   16a8b:	53                   	push   %rbx
   16a8c:	48 81 ec e8 0a 00 00 	sub    $0xae8,%rsp
   16a93:	48 89 bd 08 f5 ff ff 	mov    %rdi,-0xaf8(%rbp)
   16a9a:	64 48 8b 04 25 28 00 	mov    %fs:0x28,%rax
   16aa1:	00 00 
   16aa3:	48 89 45 c8          	mov    %rax,-0x38(%rbp)
   16aa7:	31 c0                	xor    %eax,%eax
   16aa9:	c7 85 18 f5 ff ff a6 	movl   $0x327bc4a6,-0xae8(%rbp)
   16ab0:	c4 7b 32 
   16ab3:	48 c7 85 50 f5 ff ff 	movq   $0x0,-0xab0(%rbp)
   16aba:	00 00 00 00 
   16abe:	48 8d 05 87 8d 00 00 	lea    0x8d87(%rip),%rax        # 1f84c <g_95>
   16ac5:	48 89 85 48 f5 ff ff 	mov    %rax,-0xab8(%rbp)
   16acc:	48 c7 85 58 f5 ff ff 	movq   $0x0,-0xaa8(%rbp)
   16ad3:	00 00 00 00 
   16ad7:	48 8d 05 7a 8d 00 00 	lea    0x8d7a(%rip),%rax        # 1f858 <g_101>
   16ade:	48 89 85 60 f5 ff ff 	mov    %rax,-0xaa0(%rbp)
   16ae5:	48 c7 85 68 f5 ff ff 	movq   $0x0,-0xa98(%rbp)
   16aec:	00 00 00 00 
   16af0:	c7 85 1c f5 ff ff f9 	movl   $0xfffffff9,-0xae4(%rbp)
   16af7:	ff ff ff 
   16afa:	c7 85 20 f5 ff ff 43 	movl   $0x5f1f4743,-0xae0(%rbp)
   16b01:	47 1f 5f 
   16b04:	48 8d 05 95 65 00 00 	lea    0x6595(%rip),%rax        # 1d0a0 <g_107>
   16b0b:	48 89 85 c0 f5 ff ff 	mov    %rax,-0xa40(%rbp)
   16b12:	48 8d 05 87 65 00 00 	lea    0x6587(%rip),%rax        # 1d0a0 <g_107>
   16b19:	48 89 85 c8 f5 ff ff 	mov    %rax,-0xa38(%rbp)
   16b20:	48 8d 05 79 65 00 00 	lea    0x6579(%rip),%rax        # 1d0a0 <g_107>
   16b27:	48 89 85 d0 f5 ff ff 	mov    %rax,-0xa30(%rbp)
   16b2e:	48 c7 85 d8 f5 ff ff 	movq   $0x0,-0xa28(%rbp)
   16b35:	00 00 00 00 
   16b39:	48 8d 05 60 65 00 00 	lea    0x6560(%rip),%rax        # 1d0a0 <g_107>
   16b40:	48 89 85 e0 f5 ff ff 	mov    %rax,-0xa20(%rbp)
   16b47:	48 c7 85 e8 f5 ff ff 	movq   $0x0,-0xa18(%rbp)
   16b4e:	00 00 00 00 
   16b52:	48 8d 05 47 65 00 00 	lea    0x6547(%rip),%rax        # 1d0a0 <g_107>
   16b59:	48 89 85 f0 f5 ff ff 	mov    %rax,-0xa10(%rbp)
   16b60:	48 8d 05 39 65 00 00 	lea    0x6539(%rip),%rax        # 1d0a0 <g_107>
   16b67:	48 89 85 f8 f5 ff ff 	mov    %rax,-0xa08(%rbp)
   16b6e:	48 8d 05 2b 65 00 00 	lea    0x652b(%rip),%rax        # 1d0a0 <g_107>
   16b75:	48 89 85 00 f6 ff ff 	mov    %rax,-0xa00(%rbp)
   16b7c:	48 8d 05 1d 65 00 00 	lea    0x651d(%rip),%rax        # 1d0a0 <g_107>
   16b83:	48 89 85 08 f6 ff ff 	mov    %rax,-0x9f8(%rbp)
   16b8a:	48 8d 05 0f 65 00 00 	lea    0x650f(%rip),%rax        # 1d0a0 <g_107>
   16b91:	48 89 85 10 f6 ff ff 	mov    %rax,-0x9f0(%rbp)
   16b98:	48 8d 05 01 65 00 00 	lea    0x6501(%rip),%rax        # 1d0a0 <g_107>
   16b9f:	48 89 85 18 f6 ff ff 	mov    %rax,-0x9e8(%rbp)
   16ba6:	48 8d 05 f3 64 00 00 	lea    0x64f3(%rip),%rax        # 1d0a0 <g_107>
   16bad:	48 89 85 20 f6 ff ff 	mov    %rax,-0x9e0(%rbp)
   16bb4:	48 c7 85 28 f6 ff ff 	movq   $0x0,-0x9d8(%rbp)
   16bbb:	00 00 00 00 
   16bbf:	48 8d 05 da 64 00 00 	lea    0x64da(%rip),%rax        # 1d0a0 <g_107>
   16bc6:	48 89 85 30 f6 ff ff 	mov    %rax,-0x9d0(%rbp)
   16bcd:	48 c7 85 38 f6 ff ff 	movq   $0x0,-0x9c8(%rbp)
   16bd4:	00 00 00 00 
   16bd8:	48 8d 05 c1 64 00 00 	lea    0x64c1(%rip),%rax        # 1d0a0 <g_107>
   16bdf:	48 89 85 40 f6 ff ff 	mov    %rax,-0x9c0(%rbp)
   16be6:	48 8d 05 b3 64 00 00 	lea    0x64b3(%rip),%rax        # 1d0a0 <g_107>
   16bed:	48 89 85 48 f6 ff ff 	mov    %rax,-0x9b8(%rbp)
   16bf4:	48 8d 05 a5 64 00 00 	lea    0x64a5(%rip),%rax        # 1d0a0 <g_107>
   16bfb:	48 89 85 50 f6 ff ff 	mov    %rax,-0x9b0(%rbp)
   16c02:	48 8d 05 97 64 00 00 	lea    0x6497(%rip),%rax        # 1d0a0 <g_107>
   16c09:	48 89 85 58 f6 ff ff 	mov    %rax,-0x9a8(%rbp)
   16c10:	48 8d 05 89 64 00 00 	lea    0x6489(%rip),%rax        # 1d0a0 <g_107>
   16c17:	48 89 85 60 f6 ff ff 	mov    %rax,-0x9a0(%rbp)
   16c1e:	48 8d 05 7b 64 00 00 	lea    0x647b(%rip),%rax        # 1d0a0 <g_107>
   16c25:	48 89 85 68 f6 ff ff 	mov    %rax,-0x998(%rbp)
   16c2c:	48 8d 05 6d 64 00 00 	lea    0x646d(%rip),%rax        # 1d0a0 <g_107>
   16c33:	48 89 85 70 f6 ff ff 	mov    %rax,-0x990(%rbp)
   16c3a:	48 c7 85 78 f6 ff ff 	movq   $0x0,-0x988(%rbp)
   16c41:	00 00 00 00 
   16c45:	48 8d 05 54 64 00 00 	lea    0x6454(%rip),%rax        # 1d0a0 <g_107>
   16c4c:	48 89 85 80 f6 ff ff 	mov    %rax,-0x980(%rbp)
   16c53:	48 c7 85 88 f6 ff ff 	movq   $0x0,-0x978(%rbp)
   16c5a:	00 00 00 00 
   16c5e:	48 8d 05 3b 64 00 00 	lea    0x643b(%rip),%rax        # 1d0a0 <g_107>
   16c65:	48 89 85 90 f6 ff ff 	mov    %rax,-0x970(%rbp)
   16c6c:	48 8d 05 d1 63 00 00 	lea    0x63d1(%rip),%rax        # 1d044 <g_77+0x4>
   16c73:	48 89 85 a0 f6 ff ff 	mov    %rax,-0x960(%rbp)
   16c7a:	48 8d 05 23 64 00 00 	lea    0x6423(%rip),%rax        # 1d0a4 <g_109>
   16c81:	48 89 85 a8 f6 ff ff 	mov    %rax,-0x958(%rbp)
   16c88:	48 8d 05 b9 8b 00 00 	lea    0x8bb9(%rip),%rax        # 1f848 <g_2>
   16c8f:	48 89 85 b0 f6 ff ff 	mov    %rax,-0x950(%rbp)
   16c96:	48 8d 05 07 64 00 00 	lea    0x6407(%rip),%rax        # 1d0a4 <g_109>
   16c9d:	48 89 85 b8 f6 ff ff 	mov    %rax,-0x948(%rbp)
   16ca4:	48 8d 05 b5 63 00 00 	lea    0x63b5(%rip),%rax        # 1d060 <g_77+0x20>
   16cab:	48 89 85 c0 f6 ff ff 	mov    %rax,-0x940(%rbp)
   16cb2:	48 8d 05 eb 63 00 00 	lea    0x63eb(%rip),%rax        # 1d0a4 <g_109>
   16cb9:	48 89 85 c8 f6 ff ff 	mov    %rax,-0x938(%rbp)
   16cc0:	48 c7 85 d0 f6 ff ff 	movq   $0x0,-0x930(%rbp)
   16cc7:	00 00 00 00 
   16ccb:	48 8d 05 d2 63 00 00 	lea    0x63d2(%rip),%rax        # 1d0a4 <g_109>
   16cd2:	48 89 85 d8 f6 ff ff 	mov    %rax,-0x928(%rbp)
   16cd9:	48 8d 05 c4 63 00 00 	lea    0x63c4(%rip),%rax        # 1d0a4 <g_109>
   16ce0:	48 89 85 e0 f6 ff ff 	mov    %rax,-0x920(%rbp)
   16ce7:	48 8d 05 5a 8b 00 00 	lea    0x8b5a(%rip),%rax        # 1f848 <g_2>
   16cee:	48 89 85 e8 f6 ff ff 	mov    %rax,-0x918(%rbp)
   16cf5:	48 c7 85 f0 f6 ff ff 	movq   $0x0,-0x910(%rbp)
   16cfc:	00 00 00 00 
   16d00:	48 8d 05 41 8b 00 00 	lea    0x8b41(%rip),%rax        # 1f848 <g_2>
   16d07:	48 89 85 f8 f6 ff ff 	mov    %rax,-0x908(%rbp)
   16d0e:	48 8d 05 8f 63 00 00 	lea    0x638f(%rip),%rax        # 1d0a4 <g_109>
   16d15:	48 89 85 00 f7 ff ff 	mov    %rax,-0x900(%rbp)
   16d1c:	48 8d 05 81 63 00 00 	lea    0x6381(%rip),%rax        # 1d0a4 <g_109>
   16d23:	48 89 85 08 f7 ff ff 	mov    %rax,-0x8f8(%rbp)
   16d2a:	48 c7 85 10 f7 ff ff 	movq   $0x0,-0x8f0(%rbp)
   16d31:	00 00 00 00 
   16d35:	48 8d 05 24 63 00 00 	lea    0x6324(%rip),%rax        # 1d060 <g_77+0x20>
   16d3c:	48 89 85 18 f7 ff ff 	mov    %rax,-0x8e8(%rbp)
   16d43:	48 8d 05 5a 63 00 00 	lea    0x635a(%rip),%rax        # 1d0a4 <g_109>
   16d4a:	48 89 85 20 f7 ff ff 	mov    %rax,-0x8e0(%rbp)
   16d51:	48 8d 05 4c 63 00 00 	lea    0x634c(%rip),%rax        # 1d0a4 <g_109>
   16d58:	48 89 85 28 f7 ff ff 	mov    %rax,-0x8d8(%rbp)
   16d5f:	48 8d 05 e2 8a 00 00 	lea    0x8ae2(%rip),%rax        # 1f848 <g_2>
   16d66:	48 89 85 30 f7 ff ff 	mov    %rax,-0x8d0(%rbp)
   16d6d:	48 8d 05 30 63 00 00 	lea    0x6330(%rip),%rax        # 1d0a4 <g_109>
   16d74:	48 89 85 38 f7 ff ff 	mov    %rax,-0x8c8(%rbp)
   16d7b:	48 c7 85 40 f7 ff ff 	movq   $0x0,-0x8c0(%rbp)
   16d82:	00 00 00 00 
   16d86:	48 c7 85 48 f7 ff ff 	movq   $0x0,-0x8b8(%rbp)
   16d8d:	00 00 00 00 
   16d91:	48 8d 05 0c 63 00 00 	lea    0x630c(%rip),%rax        # 1d0a4 <g_109>
   16d98:	48 89 85 50 f7 ff ff 	mov    %rax,-0x8b0(%rbp)
   16d9f:	48 8d 05 a2 8a 00 00 	lea    0x8aa2(%rip),%rax        # 1f848 <g_2>
   16da6:	48 89 85 58 f7 ff ff 	mov    %rax,-0x8a8(%rbp)
   16dad:	48 8d 05 ac 62 00 00 	lea    0x62ac(%rip),%rax        # 1d060 <g_77+0x20>
   16db4:	48 89 85 60 f7 ff ff 	mov    %rax,-0x8a0(%rbp)
   16dbb:	48 8d 05 9e 62 00 00 	lea    0x629e(%rip),%rax        # 1d060 <g_77+0x20>
   16dc2:	48 89 85 68 f7 ff ff 	mov    %rax,-0x898(%rbp)
   16dc9:	48 8d 05 78 8a 00 00 	lea    0x8a78(%rip),%rax        # 1f848 <g_2>
   16dd0:	48 89 85 70 f7 ff ff 	mov    %rax,-0x890(%rbp)
   16dd7:	48 8d 05 66 62 00 00 	lea    0x6266(%rip),%rax        # 1d044 <g_77+0x4>
   16dde:	48 89 85 78 f7 ff ff 	mov    %rax,-0x888(%rbp)
   16de5:	48 8d 05 5c 8a 00 00 	lea    0x8a5c(%rip),%rax        # 1f848 <g_2>
   16dec:	48 89 85 80 f7 ff ff 	mov    %rax,-0x880(%rbp)
   16df3:	48 8d 05 4e 8a 00 00 	lea    0x8a4e(%rip),%rax        # 1f848 <g_2>
   16dfa:	48 89 85 88 f7 ff ff 	mov    %rax,-0x878(%rbp)
   16e01:	48 c7 85 90 f7 ff ff 	movq   $0x0,-0x870(%rbp)
   16e08:	00 00 00 00 
   16e0c:	48 8d 05 91 62 00 00 	lea    0x6291(%rip),%rax        # 1d0a4 <g_109>
   16e13:	48 89 85 98 f7 ff ff 	mov    %rax,-0x868(%rbp)
   16e1a:	c7 85 24 f5 ff ff 00 	movl   $0x0,-0xadc(%rbp)
   16e21:	00 00 00 
   16e24:	eb 19                	jmp    16e3f <func_71+0x3c4>
   16e26:	8b 85 24 f5 ff ff    	mov    -0xadc(%rbp),%eax
   16e2c:	48 98                	cltq   
   16e2e:	66 c7 84 45 9a f5 ff 	movw   $0x5f96,-0xa66(%rbp,%rax,2)
   16e35:	ff 96 5f 
   16e38:	83 85 24 f5 ff ff 01 	addl   $0x1,-0xadc(%rbp)
   16e3f:	83 bd 24 f5 ff ff 02 	cmpl   $0x2,-0xadc(%rbp)
   16e46:	7e de                	jle    16e26 <func_71+0x3ab>
   16e48:	48 8b 05 d9 61 00 00 	mov    0x61d9(%rip),%rax        # 1d028 <g_75>
   16e4f:	41 89 c5             	mov    %eax,%r13d
   16e52:	44 8b 25 33 62 00 00 	mov    0x6233(%rip),%r12d        # 1d08c <g_77+0x4c>
   16e59:	48 8b 85 08 f5 ff ff 	mov    -0xaf8(%rbp),%rax
   16e60:	0f bf d8             	movswl %ax,%ebx
   16e63:	48 8b 05 b6 7b 00 00 	mov    0x7bb6(%rip),%rax        # 1ea20 <g_96>
   16e6a:	8b 05 e4 61 00 00    	mov    0x61e4(%rip),%eax        # 1d054 <g_77+0x14>
   16e70:	89 c1                	mov    %eax,%ecx
   16e72:	8b 95 18 f5 ff ff    	mov    -0xae8(%rbp),%edx
   16e78:	48 8b 85 48 f5 ff ff 	mov    -0xab8(%rbp),%rax
   16e7f:	66 89 10             	mov    %dx,(%rax)
   16e82:	0f b7 00             	movzwl (%rax),%eax
   16e85:	98                   	cwtl   
   16e86:	89 ce                	mov    %ecx,%esi
   16e88:	89 c7                	mov    %eax,%edi
   16e8a:	e8 52 f6 fe ff       	callq  64e1 <safe_lshift_func_int16_t_s_u>
   16e8f:	48 8d 15 ca 61 00 00 	lea    0x61ca(%rip),%rdx        # 1d060 <g_77+0x20>
   16e96:	48 39 95 58 f5 ff ff 	cmp    %rdx,-0xaa8(%rbp)
   16e9d:	0f 94 c2             	sete   %dl
   16ea0:	0f b6 d2             	movzbl %dl,%edx
   16ea3:	21 d0                	and    %edx,%eax
   16ea5:	98                   	cwtl   
   16ea6:	89 de                	mov    %ebx,%esi
   16ea8:	89 c7                	mov    %eax,%edi
   16eaa:	e8 24 f5 fe ff       	callq  63d3 <safe_sub_func_int16_t_s_s>
   16eaf:	0f bf d0             	movswl %ax,%edx
   16eb2:	8b 05 90 89 00 00    	mov    0x8990(%rip),%eax        # 1f848 <g_2>
   16eb8:	39 c2                	cmp    %eax,%edx
   16eba:	0f 9f c0             	setg   %al
   16ebd:	0f b6 c0             	movzbl %al,%eax
   16ec0:	41 39 c4             	cmp    %eax,%r12d
   16ec3:	0f 9c c0             	setl   %al
   16ec6:	0f b6 d0             	movzbl %al,%edx
   16ec9:	48 8b 85 60 f5 ff ff 	mov    -0xaa0(%rbp),%rax
   16ed0:	89 10                	mov    %edx,(%rax)
   16ed2:	48 8b 85 08 f5 ff ff 	mov    -0xaf8(%rbp),%rax
   16ed9:	be ff ff ff ff       	mov    $0xffffffff,%esi
   16ede:	89 c7                	mov    %eax,%edi
   16ee0:	e8 d1 f6 fe ff       	callq  65b6 <safe_add_func_int32_t_s_s>
   16ee5:	44 89 ee             	mov    %r13d,%esi
   16ee8:	89 c7                	mov    %eax,%edi
   16eea:	e8 c9 ff fe ff       	callq  6eb8 <safe_add_func_uint32_t_u_u>
   16eef:	48 8b 05 2a 7b 00 00 	mov    0x7b2a(%rip),%rax        # 1ea20 <g_96>
   16ef6:	0f b7 00             	movzwl (%rax),%eax
   16ef9:	0f bf d0             	movswl %ax,%edx
   16efc:	8b 85 1c f5 ff ff    	mov    -0xae4(%rbp),%eax
   16f02:	09 d0                	or     %edx,%eax
   16f04:	89 85 1c f5 ff ff    	mov    %eax,-0xae4(%rbp)
   16f0a:	8b 85 1c f5 ff ff    	mov    -0xae4(%rbp),%eax
   16f10:	48 98                	cltq   
   16f12:	48 89 05 7f 61 00 00 	mov    %rax,0x617f(%rip)        # 1d098 <g_104>
   16f19:	83 bd 20 f5 ff ff 00 	cmpl   $0x0,-0xae0(%rbp)
   16f20:	0f 95 c0             	setne  %al
   16f23:	0f b6 c0             	movzbl %al,%eax
   16f26:	be 02 00 00 00       	mov    $0x2,%esi
   16f2b:	89 c7                	mov    %eax,%edi
   16f2d:	e8 bc f3 fe ff       	callq  62ee <safe_lshift_func_int8_t_s_u>
   16f32:	8b 05 10 89 00 00    	mov    0x8910(%rip),%eax        # 1f848 <g_2>
   16f38:	85 c0                	test   %eax,%eax
   16f3a:	0f 94 c0             	sete   %al
   16f3d:	0f b6 c0             	movzbl %al,%eax
   16f40:	be 64 00 00 00       	mov    $0x64,%esi
   16f45:	89 c7                	mov    %eax,%edi
   16f47:	e8 8f fc fe ff       	callq  6bdb <safe_div_func_uint8_t_u_u>
   16f4c:	0f b6 d0             	movzbl %al,%edx
   16f4f:	48 8b 05 d2 60 00 00 	mov    0x60d2(%rip),%rax        # 1d028 <g_75>
   16f56:	48 21 d0             	and    %rdx,%rax
   16f59:	48 83 f8 fd          	cmp    $0xfffffffffffffffd,%rax
   16f5d:	0f 94 c0             	sete   %al
   16f60:	0f b6 c0             	movzbl %al,%eax
   16f63:	89 85 20 f5 ff ff    	mov    %eax,-0xae0(%rbp)
   16f69:	8b 85 20 f5 ff ff    	mov    -0xae0(%rbp),%eax
   16f6f:	89 05 2b 61 00 00    	mov    %eax,0x612b(%rip)        # 1d0a0 <g_107>
   16f75:	8b 05 25 61 00 00    	mov    0x6125(%rip),%eax        # 1d0a0 <g_107>
   16f7b:	85 c0                	test   %eax,%eax
   16f7d:	74 08                	je     16f87 <func_71+0x50c>
   16f7f:	8b 05 d7 60 00 00    	mov    0x60d7(%rip),%eax        # 1d05c <g_77+0x1c>
   16f85:	85 c0                	test   %eax,%eax
   16f87:	48 8b 85 08 f5 ff ff 	mov    -0xaf8(%rbp),%rax
   16f8e:	89 c2                	mov    %eax,%edx
   16f90:	8b 05 0e 61 00 00    	mov    0x610e(%rip),%eax        # 1d0a4 <g_109>
   16f96:	31 d0                	xor    %edx,%eax
   16f98:	89 05 06 61 00 00    	mov    %eax,0x6106(%rip)        # 1d0a4 <g_109>
   16f9e:	48 c7 05 ef 60 00 00 	movq   $0xffffffffffffffeb,0x60ef(%rip)        # 1d098 <g_104>
   16fa5:	eb ff ff ff 
   16fa9:	e9 87 03 00 00       	jmpq   17335 <func_71+0x8ba>
   16fae:	c6 85 17 f5 ff ff 01 	movb   $0x1,-0xae9(%rbp)
   16fb5:	48 8d 05 90 88 00 00 	lea    0x8890(%rip),%rax        # 1f84c <g_95>
   16fbc:	48 89 85 70 f5 ff ff 	mov    %rax,-0xa90(%rbp)
   16fc3:	c7 85 28 f5 ff ff fc 	movl   $0xfffffffc,-0xad8(%rbp)
   16fca:	ff ff ff 
   16fcd:	c7 85 2c f5 ff ff 03 	movl   $0x3,-0xad4(%rbp)
   16fd4:	00 00 00 
   16fd7:	c7 85 30 f5 ff ff f6 	movl   $0xfffffff6,-0xad0(%rbp)
   16fde:	ff ff ff 
   16fe1:	c7 85 a0 f5 ff ff 5e 	movl   $0xd49c445e,-0xa60(%rbp)
   16fe8:	44 9c d4 
   16feb:	c7 85 a4 f5 ff ff 5e 	movl   $0xd49c445e,-0xa5c(%rbp)
   16ff2:	44 9c d4 
   16ff5:	c7 85 a8 f5 ff ff 5e 	movl   $0xd49c445e,-0xa58(%rbp)
   16ffc:	44 9c d4 
   16fff:	c7 85 ac f5 ff ff 5e 	movl   $0xd49c445e,-0xa54(%rbp)
   17006:	44 9c d4 
   17009:	c7 85 b0 f5 ff ff 5e 	movl   $0xd49c445e,-0xa50(%rbp)
   17010:	44 9c d4 
   17013:	c7 85 b4 f5 ff ff 5e 	movl   $0xd49c445e,-0xa4c(%rbp)
   1701a:	44 9c d4 
   1701d:	c7 85 b8 f5 ff ff 5e 	movl   $0xd49c445e,-0xa48(%rbp)
   17024:	44 9c d4 
   17027:	c6 85 16 f5 ff ff 47 	movb   $0x47,-0xaea(%rbp)
   1702e:	48 c7 85 78 f5 ff ff 	movq   $0x0,-0xa88(%rbp)
   17035:	00 00 00 00 
   17039:	48 8d 95 a0 f7 ff ff 	lea    -0x860(%rbp),%rdx
   17040:	b8 00 00 00 00       	mov    $0x0,%eax
   17045:	b9 3c 00 00 00       	mov    $0x3c,%ecx
   1704a:	48 89 d7             	mov    %rdx,%rdi
   1704d:	f3 48 ab             	rep stos %rax,%es:(%rdi)
   17050:	48 8d 85 16 f5 ff ff 	lea    -0xaea(%rbp),%rax
   17057:	48 89 85 80 f5 ff ff 	mov    %rax,-0xa80(%rbp)
   1705e:	48 c7 85 88 f5 ff ff 	movq   $0x0,-0xa78(%rbp)
   17065:	00 00 00 00 
   17069:	c7 05 2d 60 00 00 00 	movl   $0x0,0x602d(%rip)        # 1d0a0 <g_107>
   17070:	00 00 00 
   17073:	e9 d7 00 00 00       	jmpq   1714f <func_71+0x6d4>
   17078:	48 8d 85 48 f5 ff ff 	lea    -0xab8(%rbp),%rax
   1707f:	48 89 85 90 f5 ff ff 	mov    %rax,-0xa70(%rbp)
   17086:	c7 85 34 f5 ff ff 08 	movl   $0x8,-0xacc(%rbp)
   1708d:	00 00 00 
   17090:	48 8d 85 80 f9 ff ff 	lea    -0x680(%rbp),%rax
   17097:	48 8d 15 82 1c 00 00 	lea    0x1c82(%rip),%rdx        # 18d20 <g_1963+0xcc0>
   1709e:	b9 c8 00 00 00       	mov    $0xc8,%ecx
   170a3:	48 89 c7             	mov    %rax,%rdi
   170a6:	48 89 d6             	mov    %rdx,%rsi
   170a9:	f3 48 a5             	rep movsq %ds:(%rsi),%es:(%rdi)
   170ac:	c7 85 38 f5 ff ff ae 	movl   $0x25df1cae,-0xac8(%rbp)
   170b3:	1c df 25 
   170b6:	c7 85 3c f5 ff ff 90 	movl   $0x25250d90,-0xac4(%rbp)
   170bd:	0d 25 25 
   170c0:	c7 85 40 f5 ff ff fb 	movl   $0xfffffffb,-0xac0(%rbp)
   170c7:	ff ff ff 
   170ca:	c7 85 44 f5 ff ff 00 	movl   $0x0,-0xabc(%rbp)
   170d1:	00 00 00 
   170d4:	be 0d 00 00 00       	mov    $0xd,%esi
   170d9:	bf fb fd 00 00       	mov    $0xfdfb,%edi
   170de:	e8 23 fd fe ff       	callq  6e06 <safe_lshift_func_uint16_t_u_u>
   170e3:	89 c2                	mov    %eax,%edx
   170e5:	8b 05 b9 5f 00 00    	mov    0x5fb9(%rip),%eax        # 1d0a4 <g_109>
   170eb:	21 d0                	and    %edx,%eax
   170ed:	0f b6 c0             	movzbl %al,%eax
   170f0:	be 01 00 00 00       	mov    $0x1,%esi
   170f5:	89 c7                	mov    %eax,%edi
   170f7:	e8 c2 fb fe ff       	callq  6cbe <safe_rshift_func_uint8_t_u_u>
   170fc:	0f b6 d0             	movzbl %al,%edx
   170ff:	8b 05 53 87 00 00    	mov    0x8753(%rip),%eax        # 1f858 <g_101>
   17105:	39 c2                	cmp    %eax,%edx
   17107:	73 11                	jae    1711a <func_71+0x69f>
   17109:	b8 00 00 00 00       	mov    $0x0,%eax
   1710e:	be 03 00 00 00       	mov    $0x3,%esi
   17113:	89 c7                	mov    %eax,%edi
   17115:	e8 b6 fd fe ff       	callq  6ed0 <safe_sub_func_uint32_t_u_u>
   1711a:	8b 05 5c 5f 00 00    	mov    0x5f5c(%rip),%eax        # 1d07c <g_77+0x3c>
   17120:	83 f8 01             	cmp    $0x1,%eax
   17123:	0f 94 c0             	sete   %al
   17126:	0f b6 c0             	movzbl %al,%eax
   17129:	09 85 28 f5 ff ff    	or     %eax,-0xad8(%rbp)
   1712f:	0f b7 85 9a f5 ff ff 	movzwl -0xa66(%rbp),%eax
   17136:	83 c0 01             	add    $0x1,%eax
   17139:	66 89 85 9a f5 ff ff 	mov    %ax,-0xa66(%rbp)
   17140:	8b 05 5a 5f 00 00    	mov    0x5f5a(%rip),%eax        # 1d0a0 <g_107>
   17146:	83 c0 01             	add    $0x1,%eax
   17149:	89 05 51 5f 00 00    	mov    %eax,0x5f51(%rip)        # 1d0a0 <g_107>
   1714f:	8b 05 4b 5f 00 00    	mov    0x5f4b(%rip),%eax        # 1d0a0 <g_107>
   17155:	83 f8 08             	cmp    $0x8,%eax
   17158:	0f 85 1a ff ff ff    	jne    17078 <func_71+0x5fd>
   1715e:	8b 05 44 5f 00 00    	mov    0x5f44(%rip),%eax        # 1d0a8 <g_145>
   17164:	83 e8 01             	sub    $0x1,%eax
   17167:	89 05 3b 5f 00 00    	mov    %eax,0x5f3b(%rip)        # 1d0a8 <g_145>
   1716d:	44 8b 3d 34 5f 00 00 	mov    0x5f34(%rip),%r15d        # 1d0a8 <g_145>
   17174:	48 8b 85 08 f5 ff ff 	mov    -0xaf8(%rbp),%rax
   1717b:	0f b6 d8             	movzbl %al,%ebx
   1717e:	8b 15 dc 5e 00 00    	mov    0x5edc(%rip),%edx        # 1d060 <g_77+0x20>
   17184:	8b 05 1a 5f 00 00    	mov    0x5f1a(%rip),%eax        # 1d0a4 <g_109>
   1718a:	31 d0                	xor    %edx,%eax
   1718c:	89 05 12 5f 00 00    	mov    %eax,0x5f12(%rip)        # 1d0a4 <g_109>
   17192:	8b 05 0c 5f 00 00    	mov    0x5f0c(%rip),%eax        # 1d0a4 <g_109>
   17198:	89 c1                	mov    %eax,%ecx
   1719a:	48 8b 85 60 f5 ff ff 	mov    -0xaa0(%rbp),%rax
   171a1:	8b 00                	mov    (%rax),%eax
   171a3:	0d 1a da 9a a5       	or     $0xa59ada1a,%eax
   171a8:	89 c2                	mov    %eax,%edx
   171aa:	48 8b 85 60 f5 ff ff 	mov    -0xaa0(%rbp),%rax
   171b1:	89 10                	mov    %edx,(%rax)
   171b3:	48 8b 85 60 f5 ff ff 	mov    -0xaa0(%rbp),%rax
   171ba:	8b 00                	mov    (%rax),%eax
   171bc:	39 c1                	cmp    %eax,%ecx
   171be:	0f 96 c0             	setbe  %al
   171c1:	88 85 07 f5 ff ff    	mov    %al,-0xaf9(%rbp)
   171c7:	48 8b 05 ca 5e 00 00 	mov    0x5eca(%rip),%rax        # 1d098 <g_104>
   171ce:	44 0f be e0          	movsbl %al,%r12d
   171d2:	8b 05 70 86 00 00    	mov    0x8670(%rip),%eax        # 1f848 <g_2>
   171d8:	89 85 00 f5 ff ff    	mov    %eax,-0xb00(%rbp)
   171de:	8b 85 28 f5 ff ff    	mov    -0xad8(%rbp),%eax
   171e4:	44 0f b7 e8          	movzwl %ax,%r13d
   171e8:	48 8b 85 08 f5 ff ff 	mov    -0xaf8(%rbp),%rax
   171ef:	89 85 fc f4 ff ff    	mov    %eax,-0xb04(%rbp)
   171f5:	8b 05 4d 86 00 00    	mov    0x864d(%rip),%eax        # 1f848 <g_2>
   171fb:	4c 63 f0             	movslq %eax,%r14
   171fe:	be 98 b7 b4 83       	mov    $0x83b4b798,%esi
   17203:	bf 00 00 00 00       	mov    $0x0,%edi
   17208:	e8 f2 f4 fe ff       	callq  66ff <safe_div_func_int32_t_s_s>
   1720d:	89 c2                	mov    %eax,%edx
   1720f:	8b 05 4b 5e 00 00    	mov    0x5e4b(%rip),%eax        # 1d060 <g_77+0x20>
   17215:	89 c1                	mov    %eax,%ecx
   17217:	48 8b 85 80 f5 ff ff 	mov    -0xa80(%rbp),%rax
   1721e:	88 08                	mov    %cl,(%rax)
   17220:	48 8b 85 80 f5 ff ff 	mov    -0xa80(%rbp),%rax
   17227:	0f b6 00             	movzbl (%rax),%eax
   1722a:	48 0f be c0          	movsbq %al,%rax
   1722e:	48 39 85 08 f5 ff ff 	cmp    %rax,-0xaf8(%rbp)
   17235:	0f 94 c0             	sete   %al
   17238:	0f b6 c0             	movzbl %al,%eax
   1723b:	89 d6                	mov    %edx,%esi
   1723d:	89 c7                	mov    %eax,%edi
   1723f:	e8 28 f1 fe ff       	callq  636c <safe_rshift_func_int8_t_s_u>
   17244:	48 0f be c0          	movsbq %al,%rax
   17248:	48 0b 85 08 f5 ff ff 	or     -0xaf8(%rbp),%rax
   1724f:	48 f7 d0             	not    %rax
   17252:	4c 89 f6             	mov    %r14,%rsi
   17255:	48 89 c7             	mov    %rax,%rdi
   17258:	e8 57 f7 fe ff       	callq  69b4 <safe_mod_func_int64_t_s_s>
   1725d:	41 89 c6             	mov    %eax,%r14d
   17260:	be 0a 00 00 00       	mov    $0xa,%esi
   17265:	bf a5 ec ff ff       	mov    $0xffffeca5,%edi
   1726a:	e8 72 f2 fe ff       	callq  64e1 <safe_lshift_func_int16_t_s_u>
   1726f:	98                   	cwtl   
   17270:	44 89 f6             	mov    %r14d,%esi
   17273:	89 c7                	mov    %eax,%edi
   17275:	e8 56 fc fe ff       	callq  6ed0 <safe_sub_func_uint32_t_u_u>
   1727a:	0f b6 c0             	movzbl %al,%eax
   1727d:	8b b5 fc f4 ff ff    	mov    -0xb04(%rbp),%esi
   17283:	89 c7                	mov    %eax,%edi
   17285:	e8 c2 f9 fe ff       	callq  6c4c <safe_lshift_func_uint8_t_u_u>
   1728a:	0f b6 c0             	movzbl %al,%eax
   1728d:	44 89 ee             	mov    %r13d,%esi
   17290:	89 c7                	mov    %eax,%edi
   17292:	e8 a6 fa fe ff       	callq  6d3d <safe_mul_func_uint16_t_u_u>
   17297:	89 c2                	mov    %eax,%edx
   17299:	8b 85 30 f5 ff ff    	mov    -0xad0(%rbp),%eax
   1729f:	09 d0                	or     %edx,%eax
   172a1:	0f b7 c0             	movzwl %ax,%eax
   172a4:	8b b5 00 f5 ff ff    	mov    -0xb00(%rbp),%esi
   172aa:	89 c7                	mov    %eax,%edi
   172ac:	e8 c9 fb fe ff       	callq  6e7a <safe_rshift_func_uint16_t_u_u>
   172b1:	0f b7 c0             	movzwl %ax,%eax
   172b4:	be ff ff ff ff       	mov    $0xffffffff,%esi
   172b9:	89 c7                	mov    %eax,%edi
   172bb:	e8 10 fc fe ff       	callq  6ed0 <safe_sub_func_uint32_t_u_u>
   172c0:	48 8b 85 48 f5 ff ff 	mov    -0xab8(%rbp),%rax
   172c7:	48 8d 15 c2 5d 00 00 	lea    0x5dc2(%rip),%rdx        # 1d090 <g_97>
   172ce:	48 39 d0             	cmp    %rdx,%rax
   172d1:	0f 95 c0             	setne  %al
   172d4:	0f b6 c0             	movzbl %al,%eax
   172d7:	44 89 e6             	mov    %r12d,%esi
   172da:	89 c7                	mov    %eax,%edi
   172dc:	e8 11 ef fe ff       	callq  61f2 <safe_sub_func_int8_t_s_s>
   172e1:	0a 85 07 f5 ff ff    	or     -0xaf9(%rbp),%al
   172e7:	0f b6 c0             	movzbl %al,%eax
   172ea:	89 de                	mov    %ebx,%esi
   172ec:	89 c7                	mov    %eax,%edi
   172ee:	e8 bb f8 fe ff       	callq  6bae <safe_mod_func_uint8_t_u_u>
   172f3:	0f b6 c0             	movzbl %al,%eax
   172f6:	44 31 f8             	xor    %r15d,%eax
   172f9:	89 c2                	mov    %eax,%edx
   172fb:	48 8b 05 ae 5d 00 00 	mov    0x5dae(%rip),%rax        # 1d0b0 <g_173>
   17302:	48 21 d0             	and    %rdx,%rax
   17305:	48 89 05 a4 5d 00 00 	mov    %rax,0x5da4(%rip)        # 1d0b0 <g_173>
   1730c:	8b 85 a0 f5 ff ff    	mov    -0xa60(%rbp),%eax
   17312:	89 c2                	mov    %eax,%edx
   17314:	48 8b 85 08 f5 ff ff 	mov    -0xaf8(%rbp),%rax
   1731b:	09 d0                	or     %edx,%eax
   1731d:	89 85 a0 f5 ff ff    	mov    %eax,-0xa60(%rbp)
   17323:	48 8b 05 6e 5d 00 00 	mov    0x5d6e(%rip),%rax        # 1d098 <g_104>
   1732a:	48 83 c0 01          	add    $0x1,%rax
   1732e:	48 89 05 63 5d 00 00 	mov    %rax,0x5d63(%rip)        # 1d098 <g_104>
   17335:	48 8b 05 5c 5d 00 00 	mov    0x5d5c(%rip),%rax        # 1d098 <g_104>
   1733c:	48 83 f8 fc          	cmp    $0xfffffffffffffffc,%rax
   17340:	0f 8d 68 fc ff ff    	jge    16fae <func_71+0x533>
   17346:	48 8b 85 08 f5 ff ff 	mov    -0xaf8(%rbp),%rax
   1734d:	48 8b 5d c8          	mov    -0x38(%rbp),%rbx
   17351:	64 48 33 1c 25 28 00 	xor    %fs:0x28,%rbx
   17358:	00 00 
   1735a:	74 05                	je     17361 <func_71+0x8e6>
   1735c:	e8 0f ed fe ff       	callq  6070 <__stack_chk_fail@plt>
   17361:	48 81 c4 e8 0a 00 00 	add    $0xae8,%rsp
   17368:	5b                   	pop    %rbx
   17369:	41 5c                	pop    %r12
   1736b:	41 5d                	pop    %r13
   1736d:	41 5e                	pop    %r14
   1736f:	41 5f                	pop    %r15
   17371:	5d                   	pop    %rbp
   17372:	c3                   	retq   

0000000000017373 <main>:
   17373:	f3 0f 1e fa          	endbr64 
   17377:	55                   	push   %rbp
   17378:	48 89 e5             	mov    %rsp,%rbp
   1737b:	48 83 ec 20          	sub    $0x20,%rsp
   1737f:	89 7d ec             	mov    %edi,-0x14(%rbp)
   17382:	48 89 75 e0          	mov    %rsi,-0x20(%rbp)
   17386:	c7 45 fc 00 00 00 00 	movl   $0x0,-0x4(%rbp)
   1738d:	83 7d ec 02          	cmpl   $0x2,-0x14(%rbp)
   17391:	75 25                	jne    173b8 <main+0x45>
   17393:	48 8b 45 e0          	mov    -0x20(%rbp),%rax
   17397:	48 83 c0 08          	add    $0x8,%rax
   1739b:	48 8b 00             	mov    (%rax),%rax
   1739e:	48 8d 35 bb 1f 00 00 	lea    0x1fbb(%rip),%rsi        # 19360 <g_1963+0x1300>
   173a5:	48 89 c7             	mov    %rax,%rdi
   173a8:	e8 e3 ec fe ff       	callq  6090 <strcmp@plt>
   173ad:	85 c0                	test   %eax,%eax
   173af:	75 07                	jne    173b8 <main+0x45>
   173b1:	c7 45 fc 01 00 00 00 	movl   $0x1,-0x4(%rbp)
   173b8:	e8 cc ed fe ff       	callq  6189 <platform_main_begin>
   173bd:	e8 d6 01 ff ff       	callq  7598 <crc32_gentab>
   173c2:	e8 ee 03 ff ff       	callq  77b5 <func_1>
   173c7:	8b 05 7b 84 00 00    	mov    0x847b(%rip),%eax        # 1f848 <g_2>
   173cd:	48 98                	cltq   
   173cf:	8b 55 fc             	mov    -0x4(%rbp),%edx
   173d2:	48 8d 35 89 1f 00 00 	lea    0x1f89(%rip),%rsi        # 19362 <g_1963+0x1302>
   173d9:	48 89 c7             	mov    %rax,%rdi
   173dc:	e8 12 03 ff ff       	callq  76f3 <transparent_crc>
   173e1:	48 8b 05 40 5c 00 00 	mov    0x5c40(%rip),%rax        # 1d028 <g_75>
   173e8:	8b 55 fc             	mov    -0x4(%rbp),%edx
   173eb:	48 8d 35 74 1f 00 00 	lea    0x1f74(%rip),%rsi        # 19366 <g_1963+0x1306>
   173f2:	48 89 c7             	mov    %rax,%rdi
   173f5:	e8 f9 02 ff ff       	callq  76f3 <transparent_crc>
   173fa:	c7 45 f0 00 00 00 00 	movl   $0x0,-0x10(%rbp)
   17401:	e9 93 00 00 00       	jmpq   17499 <main+0x126>
   17406:	c7 45 f4 00 00 00 00 	movl   $0x0,-0xc(%rbp)
   1740d:	eb 7c                	jmp    1748b <main+0x118>
   1740f:	c7 45 f8 00 00 00 00 	movl   $0x0,-0x8(%rbp)
   17416:	eb 69                	jmp    17481 <main+0x10e>
   17418:	8b 45 f8             	mov    -0x8(%rbp),%eax
   1741b:	48 98                	cltq   
   1741d:	8b 55 f0             	mov    -0x10(%rbp),%edx
   17420:	48 63 ca             	movslq %edx,%rcx
   17423:	8b 55 f4             	mov    -0xc(%rbp),%edx
   17426:	48 63 d2             	movslq %edx,%rdx
   17429:	48 01 c9             	add    %rcx,%rcx
   1742c:	48 01 ca             	add    %rcx,%rdx
   1742f:	48 01 d2             	add    %rdx,%rdx
   17432:	48 01 d0             	add    %rdx,%rax
   17435:	48 8d 14 85 00 00 00 	lea    0x0(,%rax,4),%rdx
   1743c:	00 
   1743d:	48 8d 05 fc 5b 00 00 	lea    0x5bfc(%rip),%rax        # 1d040 <g_77>
   17444:	8b 04 02             	mov    (%rdx,%rax,1),%eax
   17447:	48 98                	cltq   
   17449:	8b 55 fc             	mov    -0x4(%rbp),%edx
   1744c:	48 8d 35 18 1f 00 00 	lea    0x1f18(%rip),%rsi        # 1936b <g_1963+0x130b>
   17453:	48 89 c7             	mov    %rax,%rdi
   17456:	e8 98 02 ff ff       	callq  76f3 <transparent_crc>
   1745b:	83 7d fc 00          	cmpl   $0x0,-0x4(%rbp)
   1745f:	74 1c                	je     1747d <main+0x10a>
   17461:	8b 4d f8             	mov    -0x8(%rbp),%ecx
   17464:	8b 55 f4             	mov    -0xc(%rbp),%edx
   17467:	8b 45 f0             	mov    -0x10(%rbp),%eax
   1746a:	89 c6                	mov    %eax,%esi
   1746c:	48 8d 3d 06 1f 00 00 	lea    0x1f06(%rip),%rdi        # 19379 <g_1963+0x1319>
   17473:	b8 00 00 00 00       	mov    $0x0,%eax
   17478:	e8 03 ec fe ff       	callq  6080 <printf@plt>
   1747d:	83 45 f8 01          	addl   $0x1,-0x8(%rbp)
   17481:	83 7d f8 01          	cmpl   $0x1,-0x8(%rbp)
   17485:	7e 91                	jle    17418 <main+0xa5>
   17487:	83 45 f4 01          	addl   $0x1,-0xc(%rbp)
   1748b:	83 7d f4 01          	cmpl   $0x1,-0xc(%rbp)
   1748f:	0f 8e 7a ff ff ff    	jle    1740f <main+0x9c>
   17495:	83 45 f0 01          	addl   $0x1,-0x10(%rbp)
   17499:	83 7d f0 04          	cmpl   $0x4,-0x10(%rbp)
   1749d:	0f 8e 63 ff ff ff    	jle    17406 <main+0x93>
   174a3:	0f b7 05 a2 83 00 00 	movzwl 0x83a2(%rip),%eax        # 1f84c <g_95>
   174aa:	48 0f bf c0          	movswq %ax,%rax
   174ae:	8b 55 fc             	mov    -0x4(%rbp),%edx
   174b1:	48 8d 35 d7 1e 00 00 	lea    0x1ed7(%rip),%rsi        # 1938f <g_1963+0x132f>
   174b8:	48 89 c7             	mov    %rax,%rdi
   174bb:	e8 33 02 ff ff       	callq  76f3 <transparent_crc>
   174c0:	0f b7 05 c9 5b 00 00 	movzwl 0x5bc9(%rip),%eax        # 1d090 <g_97>
   174c7:	48 0f bf c0          	movswq %ax,%rax
   174cb:	8b 55 fc             	mov    -0x4(%rbp),%edx
   174ce:	48 8d 35 bf 1e 00 00 	lea    0x1ebf(%rip),%rsi        # 19394 <g_1963+0x1334>
   174d5:	48 89 c7             	mov    %rax,%rdi
   174d8:	e8 16 02 ff ff       	callq  76f3 <transparent_crc>
   174dd:	8b 05 75 83 00 00    	mov    0x8375(%rip),%eax        # 1f858 <g_101>
   174e3:	89 c1                	mov    %eax,%ecx
   174e5:	8b 45 fc             	mov    -0x4(%rbp),%eax
   174e8:	89 c2                	mov    %eax,%edx
   174ea:	48 8d 35 a8 1e 00 00 	lea    0x1ea8(%rip),%rsi        # 19399 <g_1963+0x1339>
   174f1:	48 89 cf             	mov    %rcx,%rdi
   174f4:	e8 fa 01 ff ff       	callq  76f3 <transparent_crc>
   174f9:	48 8b 05 98 5b 00 00 	mov    0x5b98(%rip),%rax        # 1d098 <g_104>
   17500:	48 89 c1             	mov    %rax,%rcx
   17503:	8b 45 fc             	mov    -0x4(%rbp),%eax
   17506:	89 c2                	mov    %eax,%edx
   17508:	48 8d 35 90 1e 00 00 	lea    0x1e90(%rip),%rsi        # 1939f <g_1963+0x133f>
   1750f:	48 89 cf             	mov    %rcx,%rdi
   17512:	e8 dc 01 ff ff       	callq  76f3 <transparent_crc>
   17517:	8b 05 83 5b 00 00    	mov    0x5b83(%rip),%eax        # 1d0a0 <g_107>
   1751d:	89 c1                	mov    %eax,%ecx
   1751f:	8b 45 fc             	mov    -0x4(%rbp),%eax
   17522:	89 c2                	mov    %eax,%edx
   17524:	48 8d 35 7a 1e 00 00 	lea    0x1e7a(%rip),%rsi        # 193a5 <g_1963+0x1345>
   1752b:	48 89 cf             	mov    %rcx,%rdi
   1752e:	e8 c0 01 ff ff       	callq  76f3 <transparent_crc>
   17533:	8b 05 6b 5b 00 00    	mov    0x5b6b(%rip),%eax        # 1d0a4 <g_109>
   17539:	48 98                	cltq   
   1753b:	8b 55 fc             	mov    -0x4(%rbp),%edx
   1753e:	48 8d 35 66 1e 00 00 	lea    0x1e66(%rip),%rsi        # 193ab <g_1963+0x134b>
   17545:	48 89 c7             	mov    %rax,%rdi
   17548:	e8 a6 01 ff ff       	callq  76f3 <transparent_crc>
   1754d:	8b 05 55 5b 00 00    	mov    0x5b55(%rip),%eax        # 1d0a8 <g_145>
   17553:	89 c1                	mov    %eax,%ecx
   17555:	8b 45 fc             	mov    -0x4(%rbp),%eax
   17558:	89 c2                	mov    %eax,%edx
   1755a:	48 8d 35 50 1e 00 00 	lea    0x1e50(%rip),%rsi        # 193b1 <g_1963+0x1351>
   17561:	48 89 cf             	mov    %rcx,%rdi
   17564:	e8 8a 01 ff ff       	callq  76f3 <transparent_crc>
   17569:	48 8b 05 40 5b 00 00 	mov    0x5b40(%rip),%rax        # 1d0b0 <g_173>
   17570:	8b 55 fc             	mov    -0x4(%rbp),%edx
   17573:	48 8d 35 3d 1e 00 00 	lea    0x1e3d(%rip),%rsi        # 193b7 <g_1963+0x1357>
   1757a:	48 89 c7             	mov    %rax,%rdi
   1757d:	e8 71 01 ff ff       	callq  76f3 <transparent_crc>
   17582:	8b 05 30 5b 00 00    	mov    0x5b30(%rip),%eax        # 1d0b8 <g_257>
   17588:	48 98                	cltq   
   1758a:	8b 55 fc             	mov    -0x4(%rbp),%edx
   1758d:	48 8d 35 29 1e 00 00 	lea    0x1e29(%rip),%rsi        # 193bd <g_1963+0x135d>
   17594:	48 89 c7             	mov    %rax,%rdi
   17597:	e8 57 01 ff ff       	callq  76f3 <transparent_crc>
   1759c:	0f b6 05 19 5b 00 00 	movzbl 0x5b19(%rip),%eax        # 1d0bc <g_293>
   175a3:	0f b6 c0             	movzbl %al,%eax
   175a6:	8b 55 fc             	mov    -0x4(%rbp),%edx
   175a9:	48 8d 35 13 1e 00 00 	lea    0x1e13(%rip),%rsi        # 193c3 <g_1963+0x1363>
   175b0:	48 89 c7             	mov    %rax,%rdi
   175b3:	e8 3b 01 ff ff       	callq  76f3 <transparent_crc>
   175b8:	c7 45 f0 00 00 00 00 	movl   $0x0,-0x10(%rbp)
   175bf:	eb 69                	jmp    1762a <main+0x2b7>
   175c1:	c7 45 f4 00 00 00 00 	movl   $0x0,-0xc(%rbp)
   175c8:	eb 56                	jmp    17620 <main+0x2ad>
   175ca:	8b 45 f4             	mov    -0xc(%rbp),%eax
   175cd:	48 98                	cltq   
   175cf:	8b 55 f0             	mov    -0x10(%rbp),%edx
   175d2:	48 63 d2             	movslq %edx,%rdx
   175d5:	48 01 d2             	add    %rdx,%rdx
   175d8:	48 01 c2             	add    %rax,%rdx
   175db:	48 8d 05 de 5a 00 00 	lea    0x5ade(%rip),%rax        # 1d0c0 <g_294>
   175e2:	48 01 d0             	add    %rdx,%rax
   175e5:	0f b6 00             	movzbl (%rax),%eax
   175e8:	0f b6 c0             	movzbl %al,%eax
   175eb:	8b 55 fc             	mov    -0x4(%rbp),%edx
   175ee:	48 8d 35 d4 1d 00 00 	lea    0x1dd4(%rip),%rsi        # 193c9 <g_1963+0x1369>
   175f5:	48 89 c7             	mov    %rax,%rdi
   175f8:	e8 f6 00 ff ff       	callq  76f3 <transparent_crc>
   175fd:	83 7d fc 00          	cmpl   $0x0,-0x4(%rbp)
   17601:	74 19                	je     1761c <main+0x2a9>
   17603:	8b 55 f4             	mov    -0xc(%rbp),%edx
   17606:	8b 45 f0             	mov    -0x10(%rbp),%eax
   17609:	89 c6                	mov    %eax,%esi
   1760b:	48 8d 3d c3 1d 00 00 	lea    0x1dc3(%rip),%rdi        # 193d5 <g_1963+0x1375>
   17612:	b8 00 00 00 00       	mov    $0x0,%eax
   17617:	e8 64 ea fe ff       	callq  6080 <printf@plt>
   1761c:	83 45 f4 01          	addl   $0x1,-0xc(%rbp)
   17620:	83 7d f4 01          	cmpl   $0x1,-0xc(%rbp)
   17624:	7e a4                	jle    175ca <main+0x257>
   17626:	83 45 f0 01          	addl   $0x1,-0x10(%rbp)
   1762a:	83 7d f0 05          	cmpl   $0x5,-0x10(%rbp)
   1762e:	7e 91                	jle    175c1 <main+0x24e>
   17630:	8b 05 96 5a 00 00    	mov    0x5a96(%rip),%eax        # 1d0cc <g_296>
   17636:	89 c1                	mov    %eax,%ecx
   17638:	8b 45 fc             	mov    -0x4(%rbp),%eax
   1763b:	89 c2                	mov    %eax,%edx
   1763d:	48 8d 35 a3 1d 00 00 	lea    0x1da3(%rip),%rsi        # 193e7 <g_1963+0x1387>
   17644:	48 89 cf             	mov    %rcx,%rdi
   17647:	e8 a7 00 ff ff       	callq  76f3 <transparent_crc>
   1764c:	8b 05 0a 82 00 00    	mov    0x820a(%rip),%eax        # 1f85c <g_320>
   17652:	48 98                	cltq   
   17654:	8b 55 fc             	mov    -0x4(%rbp),%edx
   17657:	48 8d 35 8f 1d 00 00 	lea    0x1d8f(%rip),%rsi        # 193ed <g_1963+0x138d>
   1765e:	48 89 c7             	mov    %rax,%rdi
   17661:	e8 8d 00 ff ff       	callq  76f3 <transparent_crc>
   17666:	0f b7 05 63 5a 00 00 	movzwl 0x5a63(%rip),%eax        # 1d0d0 <g_356>
   1766d:	48 0f bf c0          	movswq %ax,%rax
   17671:	8b 55 fc             	mov    -0x4(%rbp),%edx
   17674:	48 8d 35 78 1d 00 00 	lea    0x1d78(%rip),%rsi        # 193f3 <g_1963+0x1393>
   1767b:	48 89 c7             	mov    %rax,%rdi
   1767e:	e8 70 00 ff ff       	callq  76f3 <transparent_crc>
   17683:	48 8b 05 d6 81 00 00 	mov    0x81d6(%rip),%rax        # 1f860 <g_375>
   1768a:	48 89 c1             	mov    %rax,%rcx
   1768d:	8b 45 fc             	mov    -0x4(%rbp),%eax
   17690:	89 c2                	mov    %eax,%edx
   17692:	48 8d 35 60 1d 00 00 	lea    0x1d60(%rip),%rsi        # 193f9 <g_1963+0x1399>
   17699:	48 89 cf             	mov    %rcx,%rdi
   1769c:	e8 52 00 ff ff       	callq  76f3 <transparent_crc>
   176a1:	8b 05 2d 5a 00 00    	mov    0x5a2d(%rip),%eax        # 1d0d4 <g_399>
   176a7:	89 c1                	mov    %eax,%ecx
   176a9:	8b 45 fc             	mov    -0x4(%rbp),%eax
   176ac:	89 c2                	mov    %eax,%edx
   176ae:	48 8d 35 4a 1d 00 00 	lea    0x1d4a(%rip),%rsi        # 193ff <g_1963+0x139f>
   176b5:	48 89 cf             	mov    %rcx,%rdi
   176b8:	e8 36 00 ff ff       	callq  76f3 <transparent_crc>
   176bd:	0f b7 05 14 5a 00 00 	movzwl 0x5a14(%rip),%eax        # 1d0d8 <g_421>
   176c4:	48 0f bf c0          	movswq %ax,%rax
   176c8:	8b 55 fc             	mov    -0x4(%rbp),%edx
   176cb:	48 8d 35 33 1d 00 00 	lea    0x1d33(%rip),%rsi        # 19405 <g_1963+0x13a5>
   176d2:	48 89 c7             	mov    %rax,%rdi
   176d5:	e8 19 00 ff ff       	callq  76f3 <transparent_crc>
   176da:	0f b6 05 f9 59 00 00 	movzbl 0x59f9(%rip),%eax        # 1d0da <g_438>
   176e1:	0f b6 c0             	movzbl %al,%eax
   176e4:	8b 55 fc             	mov    -0x4(%rbp),%edx
   176e7:	48 8d 35 1d 1d 00 00 	lea    0x1d1d(%rip),%rsi        # 1940b <g_1963+0x13ab>
   176ee:	48 89 c7             	mov    %rax,%rdi
   176f1:	e8 fd ff fe ff       	callq  76f3 <transparent_crc>
   176f6:	8b 05 e0 59 00 00    	mov    0x59e0(%rip),%eax        # 1d0dc <g_450>
   176fc:	48 98                	cltq   
   176fe:	8b 55 fc             	mov    -0x4(%rbp),%edx
   17701:	48 8d 35 09 1d 00 00 	lea    0x1d09(%rip),%rsi        # 19411 <g_1963+0x13b1>
   17708:	48 89 c7             	mov    %rax,%rdi
   1770b:	e8 e3 ff fe ff       	callq  76f3 <transparent_crc>
   17710:	0f b6 05 c9 59 00 00 	movzbl 0x59c9(%rip),%eax        # 1d0e0 <g_555>
   17717:	48 0f be c0          	movsbq %al,%rax
   1771b:	8b 55 fc             	mov    -0x4(%rbp),%edx
   1771e:	48 8d 35 f2 1c 00 00 	lea    0x1cf2(%rip),%rsi        # 19417 <g_1963+0x13b7>
   17725:	48 89 c7             	mov    %rax,%rdi
   17728:	e8 c6 ff fe ff       	callq  76f3 <transparent_crc>
   1772d:	48 8b 05 b4 59 00 00 	mov    0x59b4(%rip),%rax        # 1d0e8 <g_565>
   17734:	48 89 c1             	mov    %rax,%rcx
   17737:	8b 45 fc             	mov    -0x4(%rbp),%eax
   1773a:	89 c2                	mov    %eax,%edx
   1773c:	48 8d 35 da 1c 00 00 	lea    0x1cda(%rip),%rsi        # 1941d <g_1963+0x13bd>
   17743:	48 89 cf             	mov    %rcx,%rdi
   17746:	e8 a8 ff fe ff       	callq  76f3 <transparent_crc>
   1774b:	48 8b 05 9e 59 00 00 	mov    0x599e(%rip),%rax        # 1d0f0 <g_623>
   17752:	48 89 c1             	mov    %rax,%rcx
   17755:	8b 45 fc             	mov    -0x4(%rbp),%eax
   17758:	89 c2                	mov    %eax,%edx
   1775a:	48 8d 35 c2 1c 00 00 	lea    0x1cc2(%rip),%rsi        # 19423 <g_1963+0x13c3>
   17761:	48 89 cf             	mov    %rcx,%rdi
   17764:	e8 8a ff fe ff       	callq  76f3 <transparent_crc>
   17769:	48 8b 05 88 59 00 00 	mov    0x5988(%rip),%rax        # 1d0f8 <g_653>
   17770:	8b 55 fc             	mov    -0x4(%rbp),%edx
   17773:	48 8d 35 af 1c 00 00 	lea    0x1caf(%rip),%rsi        # 19429 <g_1963+0x13c9>
   1777a:	48 89 c7             	mov    %rax,%rdi
   1777d:	e8 71 ff fe ff       	callq  76f3 <transparent_crc>
   17782:	8b 05 78 59 00 00    	mov    0x5978(%rip),%eax        # 1d100 <g_697>
   17788:	48 98                	cltq   
   1778a:	8b 55 fc             	mov    -0x4(%rbp),%edx
   1778d:	48 8d 35 9b 1c 00 00 	lea    0x1c9b(%rip),%rsi        # 1942f <g_1963+0x13cf>
   17794:	48 89 c7             	mov    %rax,%rdi
   17797:	e8 57 ff fe ff       	callq  76f3 <transparent_crc>
   1779c:	c7 45 f0 00 00 00 00 	movl   $0x0,-0x10(%rbp)
   177a3:	eb 71                	jmp    17816 <main+0x4a3>
   177a5:	c7 45 f4 00 00 00 00 	movl   $0x0,-0xc(%rbp)
   177ac:	eb 5e                	jmp    1780c <main+0x499>
   177ae:	8b 45 f4             	mov    -0xc(%rbp),%eax
   177b1:	48 63 c8             	movslq %eax,%rcx
   177b4:	8b 45 f0             	mov    -0x10(%rbp),%eax
   177b7:	48 63 d0             	movslq %eax,%rdx
   177ba:	48 89 d0             	mov    %rdx,%rax
   177bd:	48 01 c0             	add    %rax,%rax
   177c0:	48 01 d0             	add    %rdx,%rax
   177c3:	48 8d 14 08          	lea    (%rax,%rcx,1),%rdx
   177c7:	48 8d 05 3a 59 00 00 	lea    0x593a(%rip),%rax        # 1d108 <g_778>
   177ce:	48 01 d0             	add    %rdx,%rax
   177d1:	0f b6 00             	movzbl (%rax),%eax
   177d4:	0f b6 c0             	movzbl %al,%eax
   177d7:	8b 55 fc             	mov    -0x4(%rbp),%edx
   177da:	48 8d 35 54 1c 00 00 	lea    0x1c54(%rip),%rsi        # 19435 <g_1963+0x13d5>
   177e1:	48 89 c7             	mov    %rax,%rdi
   177e4:	e8 0a ff fe ff       	callq  76f3 <transparent_crc>
   177e9:	83 7d fc 00          	cmpl   $0x0,-0x4(%rbp)
   177ed:	74 19                	je     17808 <main+0x495>
   177ef:	8b 55 f4             	mov    -0xc(%rbp),%edx
   177f2:	8b 45 f0             	mov    -0x10(%rbp),%eax
   177f5:	89 c6                	mov    %eax,%esi
   177f7:	48 8d 3d d7 1b 00 00 	lea    0x1bd7(%rip),%rdi        # 193d5 <g_1963+0x1375>
   177fe:	b8 00 00 00 00       	mov    $0x0,%eax
   17803:	e8 78 e8 fe ff       	callq  6080 <printf@plt>
   17808:	83 45 f4 01          	addl   $0x1,-0xc(%rbp)
   1780c:	83 7d f4 02          	cmpl   $0x2,-0xc(%rbp)
   17810:	7e 9c                	jle    177ae <main+0x43b>
   17812:	83 45 f0 01          	addl   $0x1,-0x10(%rbp)
   17816:	83 7d f0 02          	cmpl   $0x2,-0x10(%rbp)
   1781a:	7e 89                	jle    177a5 <main+0x432>
   1781c:	8b 05 f2 58 00 00    	mov    0x58f2(%rip),%eax        # 1d114 <g_798>
   17822:	89 c1                	mov    %eax,%ecx
   17824:	8b 45 fc             	mov    -0x4(%rbp),%eax
   17827:	89 c2                	mov    %eax,%edx
   17829:	48 8d 35 11 1c 00 00 	lea    0x1c11(%rip),%rsi        # 19441 <g_1963+0x13e1>
   17830:	48 89 cf             	mov    %rcx,%rdi
   17833:	e8 bb fe fe ff       	callq  76f3 <transparent_crc>
   17838:	0f b6 05 d9 58 00 00 	movzbl 0x58d9(%rip),%eax        # 1d118 <g_868>
   1783f:	0f b6 c0             	movzbl %al,%eax
   17842:	8b 55 fc             	mov    -0x4(%rbp),%edx
   17845:	48 8d 35 fb 1b 00 00 	lea    0x1bfb(%rip),%rsi        # 19447 <g_1963+0x13e7>
   1784c:	48 89 c7             	mov    %rax,%rdi
   1784f:	e8 9f fe fe ff       	callq  76f3 <transparent_crc>
   17854:	8b 05 c2 58 00 00    	mov    0x58c2(%rip),%eax        # 1d11c <g_882>
   1785a:	48 98                	cltq   
   1785c:	8b 55 fc             	mov    -0x4(%rbp),%edx
   1785f:	48 8d 35 e7 1b 00 00 	lea    0x1be7(%rip),%rsi        # 1944d <g_1963+0x13ed>
   17866:	48 89 c7             	mov    %rax,%rdi
   17869:	e8 85 fe fe ff       	callq  76f3 <transparent_crc>
   1786e:	8b 05 ac 58 00 00    	mov    0x58ac(%rip),%eax        # 1d120 <g_929>
   17874:	48 98                	cltq   
   17876:	8b 55 fc             	mov    -0x4(%rbp),%edx
   17879:	48 8d 35 d3 1b 00 00 	lea    0x1bd3(%rip),%rsi        # 19453 <g_1963+0x13f3>
   17880:	48 89 c7             	mov    %rax,%rdi
   17883:	e8 6b fe fe ff       	callq  76f3 <transparent_crc>
   17888:	8b 05 96 58 00 00    	mov    0x5896(%rip),%eax        # 1d124 <g_966>
   1788e:	89 c1                	mov    %eax,%ecx
   17890:	8b 45 fc             	mov    -0x4(%rbp),%eax
   17893:	89 c2                	mov    %eax,%edx
   17895:	48 8d 35 bd 1b 00 00 	lea    0x1bbd(%rip),%rsi        # 19459 <g_1963+0x13f9>
   1789c:	48 89 cf             	mov    %rcx,%rdi
   1789f:	e8 4f fe fe ff       	callq  76f3 <transparent_crc>
   178a4:	c7 45 f0 00 00 00 00 	movl   $0x0,-0x10(%rbp)
   178ab:	eb 4a                	jmp    178f7 <main+0x584>
   178ad:	8b 45 f0             	mov    -0x10(%rbp),%eax
   178b0:	48 98                	cltq   
   178b2:	48 8d 14 00          	lea    (%rax,%rax,1),%rdx
   178b6:	48 8d 05 73 58 00 00 	lea    0x5873(%rip),%rax        # 1d130 <g_1107>
   178bd:	0f b7 04 02          	movzwl (%rdx,%rax,1),%eax
   178c1:	48 0f bf c0          	movswq %ax,%rax
   178c5:	8b 55 fc             	mov    -0x4(%rbp),%edx
   178c8:	48 8d 35 90 1b 00 00 	lea    0x1b90(%rip),%rsi        # 1945f <g_1963+0x13ff>
   178cf:	48 89 c7             	mov    %rax,%rdi
   178d2:	e8 1c fe fe ff       	callq  76f3 <transparent_crc>
   178d7:	83 7d fc 00          	cmpl   $0x0,-0x4(%rbp)
   178db:	74 16                	je     178f3 <main+0x580>
   178dd:	8b 45 f0             	mov    -0x10(%rbp),%eax
   178e0:	89 c6                	mov    %eax,%esi
   178e2:	48 8d 3d 80 1b 00 00 	lea    0x1b80(%rip),%rdi        # 19469 <g_1963+0x1409>
   178e9:	b8 00 00 00 00       	mov    $0x0,%eax
   178ee:	e8 8d e7 fe ff       	callq  6080 <printf@plt>
   178f3:	83 45 f0 01          	addl   $0x1,-0x10(%rbp)
   178f7:	83 7d f0 07          	cmpl   $0x7,-0x10(%rbp)
   178fb:	7e b0                	jle    178ad <main+0x53a>
   178fd:	0f b7 05 3c 58 00 00 	movzwl 0x583c(%rip),%eax        # 1d140 <g_1109>
   17904:	0f b7 c0             	movzwl %ax,%eax
   17907:	8b 55 fc             	mov    -0x4(%rbp),%edx
   1790a:	48 8d 35 66 1b 00 00 	lea    0x1b66(%rip),%rsi        # 19477 <g_1963+0x1417>
   17911:	48 89 c7             	mov    %rax,%rdi
   17914:	e8 da fd fe ff       	callq  76f3 <transparent_crc>
   17919:	0f b7 05 22 58 00 00 	movzwl 0x5822(%rip),%eax        # 1d142 <g_1157>
   17920:	0f b7 c0             	movzwl %ax,%eax
   17923:	8b 55 fc             	mov    -0x4(%rbp),%edx
   17926:	48 8d 35 51 1b 00 00 	lea    0x1b51(%rip),%rsi        # 1947e <g_1963+0x141e>
   1792d:	48 89 c7             	mov    %rax,%rdi
   17930:	e8 be fd fe ff       	callq  76f3 <transparent_crc>
   17935:	48 8b 05 0c 58 00 00 	mov    0x580c(%rip),%rax        # 1d148 <g_1343>
   1793c:	48 89 c1             	mov    %rax,%rcx
   1793f:	8b 45 fc             	mov    -0x4(%rbp),%eax
   17942:	89 c2                	mov    %eax,%edx
   17944:	48 8d 35 3a 1b 00 00 	lea    0x1b3a(%rip),%rsi        # 19485 <g_1963+0x1425>
   1794b:	48 89 cf             	mov    %rcx,%rdi
   1794e:	e8 a0 fd fe ff       	callq  76f3 <transparent_crc>
   17953:	8b 05 f7 57 00 00    	mov    0x57f7(%rip),%eax        # 1d150 <g_1364>
   17959:	48 98                	cltq   
   1795b:	8b 55 fc             	mov    -0x4(%rbp),%edx
   1795e:	48 8d 35 27 1b 00 00 	lea    0x1b27(%rip),%rsi        # 1948c <g_1963+0x142c>
   17965:	48 89 c7             	mov    %rax,%rdi
   17968:	e8 86 fd fe ff       	callq  76f3 <transparent_crc>
   1796d:	0f b6 05 e0 57 00 00 	movzbl 0x57e0(%rip),%eax        # 1d154 <g_1374>
   17974:	48 0f be c0          	movsbq %al,%rax
   17978:	8b 55 fc             	mov    -0x4(%rbp),%edx
   1797b:	48 8d 35 11 1b 00 00 	lea    0x1b11(%rip),%rsi        # 19493 <g_1963+0x1433>
   17982:	48 89 c7             	mov    %rax,%rdi
   17985:	e8 69 fd fe ff       	callq  76f3 <transparent_crc>
   1798a:	8b 05 c8 57 00 00    	mov    0x57c8(%rip),%eax        # 1d158 <g_1378>
   17990:	89 c1                	mov    %eax,%ecx
   17992:	8b 45 fc             	mov    -0x4(%rbp),%eax
   17995:	89 c2                	mov    %eax,%edx
   17997:	48 8d 35 fc 1a 00 00 	lea    0x1afc(%rip),%rsi        # 1949a <g_1963+0x143a>
   1799e:	48 89 cf             	mov    %rcx,%rdi
   179a1:	e8 4d fd fe ff       	callq  76f3 <transparent_crc>
   179a6:	0f b6 05 af 57 00 00 	movzbl 0x57af(%rip),%eax        # 1d15c <g_1453>
   179ad:	0f b6 c0             	movzbl %al,%eax
   179b0:	8b 55 fc             	mov    -0x4(%rbp),%edx
   179b3:	48 8d 35 e7 1a 00 00 	lea    0x1ae7(%rip),%rsi        # 194a1 <g_1963+0x1441>
   179ba:	48 89 c7             	mov    %rax,%rdi
   179bd:	e8 31 fd fe ff       	callq  76f3 <transparent_crc>
   179c2:	8b 05 98 57 00 00    	mov    0x5798(%rip),%eax        # 1d160 <g_1498>
   179c8:	48 98                	cltq   
   179ca:	8b 55 fc             	mov    -0x4(%rbp),%edx
   179cd:	48 8d 35 d4 1a 00 00 	lea    0x1ad4(%rip),%rsi        # 194a8 <g_1963+0x1448>
   179d4:	48 89 c7             	mov    %rax,%rdi
   179d7:	e8 17 fd fe ff       	callq  76f3 <transparent_crc>
   179dc:	0f b6 05 81 57 00 00 	movzbl 0x5781(%rip),%eax        # 1d164 <g_1506>
   179e3:	0f b6 c0             	movzbl %al,%eax
   179e6:	8b 55 fc             	mov    -0x4(%rbp),%edx
   179e9:	48 8d 35 bf 1a 00 00 	lea    0x1abf(%rip),%rsi        # 194af <g_1963+0x144f>
   179f0:	48 89 c7             	mov    %rax,%rdi
   179f3:	e8 fb fc fe ff       	callq  76f3 <transparent_crc>
   179f8:	8b 05 6a 57 00 00    	mov    0x576a(%rip),%eax        # 1d168 <g_1904>
   179fe:	89 c1                	mov    %eax,%ecx
   17a00:	8b 45 fc             	mov    -0x4(%rbp),%eax
   17a03:	89 c2                	mov    %eax,%edx
   17a05:	48 8d 35 aa 1a 00 00 	lea    0x1aaa(%rip),%rsi        # 194b6 <g_1963+0x1456>
   17a0c:	48 89 cf             	mov    %rcx,%rdi
   17a0f:	e8 df fc fe ff       	callq  76f3 <transparent_crc>
   17a14:	c7 45 f0 00 00 00 00 	movl   $0x0,-0x10(%rbp)
   17a1b:	eb 4d                	jmp    17a6a <main+0x6f7>
   17a1d:	8b 45 f0             	mov    -0x10(%rbp),%eax
   17a20:	48 98                	cltq   
   17a22:	48 8d 14 85 00 00 00 	lea    0x0(,%rax,4),%rdx
   17a29:	00 
   17a2a:	48 8d 05 3f 57 00 00 	lea    0x573f(%rip),%rax        # 1d170 <g_2064>
   17a31:	8b 04 02             	mov    (%rdx,%rax,1),%eax
   17a34:	89 c1                	mov    %eax,%ecx
   17a36:	8b 45 fc             	mov    -0x4(%rbp),%eax
   17a39:	89 c2                	mov    %eax,%edx
   17a3b:	48 8d 35 7b 1a 00 00 	lea    0x1a7b(%rip),%rsi        # 194bd <g_1963+0x145d>
   17a42:	48 89 cf             	mov    %rcx,%rdi
   17a45:	e8 a9 fc fe ff       	callq  76f3 <transparent_crc>
   17a4a:	83 7d fc 00          	cmpl   $0x0,-0x4(%rbp)
   17a4e:	74 16                	je     17a66 <main+0x6f3>
   17a50:	8b 45 f0             	mov    -0x10(%rbp),%eax
   17a53:	89 c6                	mov    %eax,%esi
   17a55:	48 8d 3d 0d 1a 00 00 	lea    0x1a0d(%rip),%rdi        # 19469 <g_1963+0x1409>
   17a5c:	b8 00 00 00 00       	mov    $0x0,%eax
   17a61:	e8 1a e6 fe ff       	callq  6080 <printf@plt>
   17a66:	83 45 f0 01          	addl   $0x1,-0x10(%rbp)
   17a6a:	83 7d f0 02          	cmpl   $0x2,-0x10(%rbp)
   17a6e:	7e ad                	jle    17a1d <main+0x6aa>
   17a70:	c7 45 f0 00 00 00 00 	movl   $0x0,-0x10(%rbp)
   17a77:	eb 4a                	jmp    17ac3 <main+0x750>
   17a79:	8b 45 f0             	mov    -0x10(%rbp),%eax
   17a7c:	48 98                	cltq   
   17a7e:	48 8d 14 c5 00 00 00 	lea    0x0(,%rax,8),%rdx
   17a85:	00 
   17a86:	48 8d 05 f3 56 00 00 	lea    0x56f3(%rip),%rax        # 1d180 <g_2100>
   17a8d:	48 8b 04 02          	mov    (%rdx,%rax,1),%rax
   17a91:	8b 55 fc             	mov    -0x4(%rbp),%edx
   17a94:	48 8d 35 2c 1a 00 00 	lea    0x1a2c(%rip),%rsi        # 194c7 <g_1963+0x1467>
   17a9b:	48 89 c7             	mov    %rax,%rdi
   17a9e:	e8 50 fc fe ff       	callq  76f3 <transparent_crc>
   17aa3:	83 7d fc 00          	cmpl   $0x0,-0x4(%rbp)
   17aa7:	74 16                	je     17abf <main+0x74c>
   17aa9:	8b 45 f0             	mov    -0x10(%rbp),%eax
   17aac:	89 c6                	mov    %eax,%esi
   17aae:	48 8d 3d b4 19 00 00 	lea    0x19b4(%rip),%rdi        # 19469 <g_1963+0x1409>
   17ab5:	b8 00 00 00 00       	mov    $0x0,%eax
   17aba:	e8 c1 e5 fe ff       	callq  6080 <printf@plt>
   17abf:	83 45 f0 01          	addl   $0x1,-0x10(%rbp)
   17ac3:	83 7d f0 08          	cmpl   $0x8,-0x10(%rbp)
   17ac7:	7e b0                	jle    17a79 <main+0x706>
   17ac9:	8b 05 f9 56 00 00    	mov    0x56f9(%rip),%eax        # 1d1c8 <g_2211>
   17acf:	48 98                	cltq   
   17ad1:	8b 55 fc             	mov    -0x4(%rbp),%edx
   17ad4:	48 8d 35 f6 19 00 00 	lea    0x19f6(%rip),%rsi        # 194d1 <g_1963+0x1471>
   17adb:	48 89 c7             	mov    %rax,%rdi
   17ade:	e8 10 fc fe ff       	callq  76f3 <transparent_crc>
   17ae3:	8b 05 e3 56 00 00    	mov    0x56e3(%rip),%eax        # 1d1cc <g_2272>
   17ae9:	89 c1                	mov    %eax,%ecx
   17aeb:	8b 45 fc             	mov    -0x4(%rbp),%eax
   17aee:	89 c2                	mov    %eax,%edx
   17af0:	48 8d 35 e1 19 00 00 	lea    0x19e1(%rip),%rsi        # 194d8 <g_1963+0x1478>
   17af7:	48 89 cf             	mov    %rcx,%rdi
   17afa:	e8 f4 fb fe ff       	callq  76f3 <transparent_crc>
   17aff:	0f b7 05 ca 56 00 00 	movzwl 0x56ca(%rip),%eax        # 1d1d0 <g_2362>
   17b06:	0f b7 c0             	movzwl %ax,%eax
   17b09:	8b 55 fc             	mov    -0x4(%rbp),%edx
   17b0c:	48 8d 35 cc 19 00 00 	lea    0x19cc(%rip),%rsi        # 194df <g_1963+0x147f>
   17b13:	48 89 c7             	mov    %rax,%rdi
   17b16:	e8 d8 fb fe ff       	callq  76f3 <transparent_crc>
   17b1b:	48 8b 05 a6 7d 00 00 	mov    0x7da6(%rip),%rax        # 1f8c8 <g_2384>
   17b22:	48 89 c1             	mov    %rax,%rcx
   17b25:	8b 45 fc             	mov    -0x4(%rbp),%eax
   17b28:	89 c2                	mov    %eax,%edx
   17b2a:	48 8d 35 b5 19 00 00 	lea    0x19b5(%rip),%rsi        # 194e6 <g_1963+0x1486>
   17b31:	48 89 cf             	mov    %rcx,%rdi
   17b34:	e8 ba fb fe ff       	callq  76f3 <transparent_crc>
   17b39:	48 8b 05 98 56 00 00 	mov    0x5698(%rip),%rax        # 1d1d8 <g_2560>
   17b40:	8b 55 fc             	mov    -0x4(%rbp),%edx
   17b43:	48 8d 35 a3 19 00 00 	lea    0x19a3(%rip),%rsi        # 194ed <g_1963+0x148d>
   17b4a:	48 89 c7             	mov    %rax,%rdi
   17b4d:	e8 a1 fb fe ff       	callq  76f3 <transparent_crc>
   17b52:	8b 05 88 56 00 00    	mov    0x5688(%rip),%eax        # 1d1e0 <g_2605>
   17b58:	89 c1                	mov    %eax,%ecx
   17b5a:	8b 45 fc             	mov    -0x4(%rbp),%eax
   17b5d:	89 c2                	mov    %eax,%edx
   17b5f:	48 8d 35 8e 19 00 00 	lea    0x198e(%rip),%rsi        # 194f4 <g_1963+0x1494>
   17b66:	48 89 cf             	mov    %rcx,%rdi
   17b69:	e8 85 fb fe ff       	callq  76f3 <transparent_crc>
   17b6e:	0f b7 05 6f 56 00 00 	movzwl 0x566f(%rip),%eax        # 1d1e4 <g_2611>
   17b75:	48 0f bf c0          	movswq %ax,%rax
   17b79:	8b 55 fc             	mov    -0x4(%rbp),%edx
   17b7c:	48 8d 35 78 19 00 00 	lea    0x1978(%rip),%rsi        # 194fb <g_1963+0x149b>
   17b83:	48 89 c7             	mov    %rax,%rdi
   17b86:	e8 68 fb fe ff       	callq  76f3 <transparent_crc>
   17b8b:	8b 05 57 56 00 00    	mov    0x5657(%rip),%eax        # 1d1e8 <g_2637>
   17b91:	89 c1                	mov    %eax,%ecx
   17b93:	8b 45 fc             	mov    -0x4(%rbp),%eax
   17b96:	89 c2                	mov    %eax,%edx
   17b98:	48 8d 35 63 19 00 00 	lea    0x1963(%rip),%rsi        # 19502 <g_1963+0x14a2>
   17b9f:	48 89 cf             	mov    %rcx,%rdi
   17ba2:	e8 4c fb fe ff       	callq  76f3 <transparent_crc>
   17ba7:	8b 05 33 7d 00 00    	mov    0x7d33(%rip),%eax        # 1f8e0 <g_2787>
   17bad:	48 98                	cltq   
   17baf:	8b 55 fc             	mov    -0x4(%rbp),%edx
   17bb2:	48 8d 35 50 19 00 00 	lea    0x1950(%rip),%rsi        # 19509 <g_1963+0x14a9>
   17bb9:	48 89 c7             	mov    %rax,%rdi
   17bbc:	e8 32 fb fe ff       	callq  76f3 <transparent_crc>
   17bc1:	0f b6 05 24 56 00 00 	movzbl 0x5624(%rip),%eax        # 1d1ec <g_2806>
   17bc8:	0f b6 c0             	movzbl %al,%eax
   17bcb:	8b 55 fc             	mov    -0x4(%rbp),%edx
   17bce:	48 8d 35 3b 19 00 00 	lea    0x193b(%rip),%rsi        # 19510 <g_1963+0x14b0>
   17bd5:	48 89 c7             	mov    %rax,%rdi
   17bd8:	e8 16 fb fe ff       	callq  76f3 <transparent_crc>
   17bdd:	c7 45 f0 00 00 00 00 	movl   $0x0,-0x10(%rbp)
   17be4:	e9 a7 00 00 00       	jmpq   17c90 <main+0x91d>
   17be9:	c7 45 f4 00 00 00 00 	movl   $0x0,-0xc(%rbp)
   17bf0:	e9 8d 00 00 00       	jmpq   17c82 <main+0x90f>
   17bf5:	c7 45 f8 00 00 00 00 	movl   $0x0,-0x8(%rbp)
   17bfc:	eb 7a                	jmp    17c78 <main+0x905>
   17bfe:	8b 45 f8             	mov    -0x8(%rbp),%eax
   17c01:	48 63 f0             	movslq %eax,%rsi
   17c04:	8b 45 f0             	mov    -0x10(%rbp),%eax
   17c07:	48 63 d0             	movslq %eax,%rdx
   17c0a:	8b 45 f4             	mov    -0xc(%rbp),%eax
   17c0d:	48 63 c8             	movslq %eax,%rcx
   17c10:	48 89 d0             	mov    %rdx,%rax
   17c13:	48 c1 e0 04          	shl    $0x4,%rax
   17c17:	48 29 d0             	sub    %rdx,%rax
   17c1a:	48 01 c0             	add    %rax,%rax
   17c1d:	48 89 ca             	mov    %rcx,%rdx
   17c20:	48 01 d2             	add    %rdx,%rdx
   17c23:	48 01 ca             	add    %rcx,%rdx
   17c26:	48 01 d0             	add    %rdx,%rax
   17c29:	48 01 f0             	add    %rsi,%rax
   17c2c:	48 8d 14 85 00 00 00 	lea    0x0(,%rax,4),%rdx
   17c33:	00 
   17c34:	48 8d 05 c5 55 00 00 	lea    0x55c5(%rip),%rax        # 1d200 <g_2814>
   17c3b:	8b 04 02             	mov    (%rdx,%rax,1),%eax
   17c3e:	48 98                	cltq   
   17c40:	8b 55 fc             	mov    -0x4(%rbp),%edx
   17c43:	48 8d 35 cd 18 00 00 	lea    0x18cd(%rip),%rsi        # 19517 <g_1963+0x14b7>
   17c4a:	48 89 c7             	mov    %rax,%rdi
   17c4d:	e8 a1 fa fe ff       	callq  76f3 <transparent_crc>
   17c52:	83 7d fc 00          	cmpl   $0x0,-0x4(%rbp)
   17c56:	74 1c                	je     17c74 <main+0x901>
   17c58:	8b 4d f8             	mov    -0x8(%rbp),%ecx
   17c5b:	8b 55 f4             	mov    -0xc(%rbp),%edx
   17c5e:	8b 45 f0             	mov    -0x10(%rbp),%eax
   17c61:	89 c6                	mov    %eax,%esi
   17c63:	48 8d 3d 0f 17 00 00 	lea    0x170f(%rip),%rdi        # 19379 <g_1963+0x1319>
   17c6a:	b8 00 00 00 00       	mov    $0x0,%eax
   17c6f:	e8 0c e4 fe ff       	callq  6080 <printf@plt>
   17c74:	83 45 f8 01          	addl   $0x1,-0x8(%rbp)
   17c78:	83 7d f8 02          	cmpl   $0x2,-0x8(%rbp)
   17c7c:	7e 80                	jle    17bfe <main+0x88b>
   17c7e:	83 45 f4 01          	addl   $0x1,-0xc(%rbp)
   17c82:	83 7d f4 09          	cmpl   $0x9,-0xc(%rbp)
   17c86:	0f 8e 69 ff ff ff    	jle    17bf5 <main+0x882>
   17c8c:	83 45 f0 01          	addl   $0x1,-0x10(%rbp)
   17c90:	83 7d f0 02          	cmpl   $0x2,-0x10(%rbp)
   17c94:	0f 8e 4f ff ff ff    	jle    17be9 <main+0x876>
   17c9a:	0f b7 05 c7 56 00 00 	movzwl 0x56c7(%rip),%eax        # 1d368 <g_2905>
   17ca1:	48 0f bf c0          	movswq %ax,%rax
   17ca5:	8b 55 fc             	mov    -0x4(%rbp),%edx
   17ca8:	48 8d 35 78 18 00 00 	lea    0x1878(%rip),%rsi        # 19527 <g_1963+0x14c7>
   17caf:	48 89 c7             	mov    %rax,%rdi
   17cb2:	e8 3c fa fe ff       	callq  76f3 <transparent_crc>
   17cb7:	8b 05 63 53 00 00    	mov    0x5363(%rip),%eax        # 1d020 <crc32_context>
   17cbd:	f7 d0                	not    %eax
   17cbf:	89 c2                	mov    %eax,%edx
   17cc1:	8b 45 fc             	mov    -0x4(%rbp),%eax
   17cc4:	89 c6                	mov    %eax,%esi
   17cc6:	89 d7                	mov    %edx,%edi
   17cc8:	e8 c7 e4 fe ff       	callq  6194 <platform_main_end>
   17ccd:	b8 00 00 00 00       	mov    $0x0,%eax
   17cd2:	c9                   	leaveq 
   17cd3:	c3                   	retq   
   17cd4:	66 2e 0f 1f 84 00 00 	nopw   %cs:0x0(%rax,%rax,1)
   17cdb:	00 00 00 
   17cde:	66 90                	xchg   %ax,%ax

0000000000017ce0 <__libc_csu_init>:
   17ce0:	f3 0f 1e fa          	endbr64 
   17ce4:	41 57                	push   %r15
   17ce6:	4c 8d 3d 83 4f 00 00 	lea    0x4f83(%rip),%r15        # 1cc70 <__frame_dummy_init_array_entry>
   17ced:	41 56                	push   %r14
   17cef:	49 89 d6             	mov    %rdx,%r14
   17cf2:	41 55                	push   %r13
   17cf4:	49 89 f5             	mov    %rsi,%r13
   17cf7:	41 54                	push   %r12
   17cf9:	41 89 fc             	mov    %edi,%r12d
   17cfc:	55                   	push   %rbp
   17cfd:	48 8d 2d 74 4f 00 00 	lea    0x4f74(%rip),%rbp        # 1cc78 <__do_global_dtors_aux_fini_array_entry>
   17d04:	53                   	push   %rbx
   17d05:	4c 29 fd             	sub    %r15,%rbp
   17d08:	48 83 ec 08          	sub    $0x8,%rsp
   17d0c:	e8 ef e2 fe ff       	callq  6000 <_init>
   17d11:	48 c1 fd 03          	sar    $0x3,%rbp
   17d15:	74 1f                	je     17d36 <__libc_csu_init+0x56>
   17d17:	31 db                	xor    %ebx,%ebx
   17d19:	0f 1f 80 00 00 00 00 	nopl   0x0(%rax)
   17d20:	4c 89 f2             	mov    %r14,%rdx
   17d23:	4c 89 ee             	mov    %r13,%rsi
   17d26:	44 89 e7             	mov    %r12d,%edi
   17d29:	41 ff 14 df          	callq  *(%r15,%rbx,8)
   17d2d:	48 83 c3 01          	add    $0x1,%rbx
   17d31:	48 39 dd             	cmp    %rbx,%rbp
   17d34:	75 ea                	jne    17d20 <__libc_csu_init+0x40>
   17d36:	48 83 c4 08          	add    $0x8,%rsp
   17d3a:	5b                   	pop    %rbx
   17d3b:	5d                   	pop    %rbp
   17d3c:	41 5c                	pop    %r12
   17d3e:	41 5d                	pop    %r13
   17d40:	41 5e                	pop    %r14
   17d42:	41 5f                	pop    %r15
   17d44:	c3                   	retq   
   17d45:	66 66 2e 0f 1f 84 00 	data16 nopw %cs:0x0(%rax,%rax,1)
   17d4c:	00 00 00 00 

0000000000017d50 <__libc_csu_fini>:
   17d50:	f3 0f 1e fa          	endbr64 
   17d54:	c3                   	retq   
