


Disassembly of section .text:

00000000000050a0 <_start>:
    50a0:	f3 0f 1e fa          	endbr64 
    50a4:	31 ed                	xor    %ebp,%ebp
    50a6:	49 89 d1             	mov    %rdx,%r9
    50a9:	5e                   	pop    %rsi
    50aa:	48 89 e2             	mov    %rsp,%rdx
    50ad:	48 83 e4 f0          	and    $0xfffffffffffffff0,%rsp
    50b1:	50                   	push   %rax
    50b2:	54                   	push   %rsp
    50b3:	4c 8d 05 c6 a8 00 00 	lea    0xa8c6(%rip),%r8        # f980 <__libc_csu_fini>
    50ba:	48 8d 0d 4f a8 00 00 	lea    0xa84f(%rip),%rcx        # f910 <__libc_csu_init>
    50c1:	48 8d 3d 32 90 00 00 	lea    0x9032(%rip),%rdi        # e0fa <main>
    50c8:	ff 15 12 ff 00 00    	callq  *0xff12(%rip)        # 14fe0 <__libc_start_main@GLIBC_2.2.5>
    50ce:	f4                   	hlt    
    50cf:	90                   	nop

00000000000050d0 <deregister_tm_clones>:
    50d0:	48 8d 3d 71 28 01 00 	lea    0x12871(%rip),%rdi        # 17948 <__TMC_END__>
    50d7:	48 8d 05 6a 28 01 00 	lea    0x1286a(%rip),%rax        # 17948 <__TMC_END__>
    50de:	48 39 f8             	cmp    %rdi,%rax
    50e1:	74 15                	je     50f8 <deregister_tm_clones+0x28>
    50e3:	48 8b 05 ee fe 00 00 	mov    0xfeee(%rip),%rax        # 14fd8 <_ITM_deregisterTMCloneTable>
    50ea:	48 85 c0             	test   %rax,%rax
    50ed:	74 09                	je     50f8 <deregister_tm_clones+0x28>
    50ef:	ff e0                	jmpq   *%rax
    50f1:	0f 1f 80 00 00 00 00 	nopl   0x0(%rax)
    50f8:	c3                   	retq   
    50f9:	0f 1f 80 00 00 00 00 	nopl   0x0(%rax)

0000000000005100 <register_tm_clones>:
    5100:	48 8d 3d 41 28 01 00 	lea    0x12841(%rip),%rdi        # 17948 <__TMC_END__>
    5107:	48 8d 35 3a 28 01 00 	lea    0x1283a(%rip),%rsi        # 17948 <__TMC_END__>
    510e:	48 29 fe             	sub    %rdi,%rsi
    5111:	48 89 f0             	mov    %rsi,%rax
    5114:	48 c1 ee 3f          	shr    $0x3f,%rsi
    5118:	48 c1 f8 03          	sar    $0x3,%rax
    511c:	48 01 c6             	add    %rax,%rsi
    511f:	48 d1 fe             	sar    %rsi
    5122:	74 14                	je     5138 <register_tm_clones+0x38>
    5124:	48 8b 05 c5 fe 00 00 	mov    0xfec5(%rip),%rax        # 14ff0 <_ITM_registerTMCloneTable>
    512b:	48 85 c0             	test   %rax,%rax
    512e:	74 08                	je     5138 <register_tm_clones+0x38>
    5130:	ff e0                	jmpq   *%rax
    5132:	66 0f 1f 44 00 00    	nopw   0x0(%rax,%rax,1)
    5138:	c3                   	retq   
    5139:	0f 1f 80 00 00 00 00 	nopl   0x0(%rax)

0000000000005140 <__do_global_dtors_aux>:
    5140:	f3 0f 1e fa          	endbr64 
    5144:	80 3d 15 28 01 00 00 	cmpb   $0x0,0x12815(%rip)        # 17960 <completed.8061>
    514b:	75 2b                	jne    5178 <__do_global_dtors_aux+0x38>
    514d:	55                   	push   %rbp
    514e:	48 83 3d a2 fe 00 00 	cmpq   $0x0,0xfea2(%rip)        # 14ff8 <__cxa_finalize@GLIBC_2.2.5>
    5155:	00 
    5156:	48 89 e5             	mov    %rsp,%rbp
    5159:	74 0c                	je     5167 <__do_global_dtors_aux+0x27>
    515b:	48 8b 3d a6 fe 00 00 	mov    0xfea6(%rip),%rdi        # 15008 <__dso_handle>
    5162:	e8 f9 fe ff ff       	callq  5060 <__cxa_finalize@plt>
    5167:	e8 64 ff ff ff       	callq  50d0 <deregister_tm_clones>
    516c:	c6 05 ed 27 01 00 01 	movb   $0x1,0x127ed(%rip)        # 17960 <completed.8061>
    5173:	5d                   	pop    %rbp
    5174:	c3                   	retq   
    5175:	0f 1f 00             	nopl   (%rax)
    5178:	c3                   	retq   
    5179:	0f 1f 80 00 00 00 00 	nopl   0x0(%rax)

0000000000005180 <frame_dummy>:
    5180:	f3 0f 1e fa          	endbr64 
    5184:	e9 77 ff ff ff       	jmpq   5100 <register_tm_clones>

0000000000005189 <platform_main_begin>:
    5189:	f3 0f 1e fa          	endbr64 
    518d:	55                   	push   %rbp
    518e:	48 89 e5             	mov    %rsp,%rbp
    5191:	90                   	nop
    5192:	5d                   	pop    %rbp
    5193:	c3                   	retq   

0000000000005194 <platform_main_end>:
    5194:	f3 0f 1e fa          	endbr64 
    5198:	55                   	push   %rbp
    5199:	48 89 e5             	mov    %rsp,%rbp
    519c:	48 83 ec 10          	sub    $0x10,%rsp
    51a0:	89 7d fc             	mov    %edi,-0x4(%rbp)
    51a3:	89 75 f8             	mov    %esi,-0x8(%rbp)
    51a6:	8b 45 fc             	mov    -0x4(%rbp),%eax
    51a9:	89 c6                	mov    %eax,%esi
    51ab:	48 8d 3d 6e ae 00 00 	lea    0xae6e(%rip),%rdi        # 10020 <_IO_stdin_used+0x20>
    51b2:	b8 00 00 00 00       	mov    $0x0,%eax
    51b7:	e8 c4 fe ff ff       	callq  5080 <printf@plt>
    51bc:	90                   	nop
    51bd:	c9                   	leaveq 
    51be:	c3                   	retq   

00000000000051bf <safe_unary_minus_func_int8_t_s>:
    51bf:	f3 0f 1e fa          	endbr64 
    51c3:	55                   	push   %rbp
    51c4:	48 89 e5             	mov    %rsp,%rbp
    51c7:	89 f8                	mov    %edi,%eax
    51c9:	88 45 fc             	mov    %al,-0x4(%rbp)
    51cc:	0f b6 45 fc          	movzbl -0x4(%rbp),%eax
    51d0:	f7 d8                	neg    %eax
    51d2:	5d                   	pop    %rbp
    51d3:	c3                   	retq   

00000000000051d4 <safe_add_func_int8_t_s_s>:
    51d4:	f3 0f 1e fa          	endbr64 
    51d8:	55                   	push   %rbp
    51d9:	48 89 e5             	mov    %rsp,%rbp
    51dc:	89 fa                	mov    %edi,%edx
    51de:	89 f0                	mov    %esi,%eax
    51e0:	88 55 fc             	mov    %dl,-0x4(%rbp)
    51e3:	88 45 f8             	mov    %al,-0x8(%rbp)
    51e6:	0f b6 55 fc          	movzbl -0x4(%rbp),%edx
    51ea:	0f b6 45 f8          	movzbl -0x8(%rbp),%eax
    51ee:	01 d0                	add    %edx,%eax
    51f0:	5d                   	pop    %rbp
    51f1:	c3                   	retq   

00000000000051f2 <safe_sub_func_int8_t_s_s>:
    51f2:	f3 0f 1e fa          	endbr64 
    51f6:	55                   	push   %rbp
    51f7:	48 89 e5             	mov    %rsp,%rbp
    51fa:	89 fa                	mov    %edi,%edx
    51fc:	89 f0                	mov    %esi,%eax
    51fe:	88 55 fc             	mov    %dl,-0x4(%rbp)
    5201:	88 45 f8             	mov    %al,-0x8(%rbp)
    5204:	0f b6 55 fc          	movzbl -0x4(%rbp),%edx
    5208:	0f b6 45 f8          	movzbl -0x8(%rbp),%eax
    520c:	29 c2                	sub    %eax,%edx
    520e:	89 d0                	mov    %edx,%eax
    5210:	5d                   	pop    %rbp
    5211:	c3                   	retq   

0000000000005212 <safe_mul_func_int8_t_s_s>:
    5212:	f3 0f 1e fa          	endbr64 
    5216:	55                   	push   %rbp
    5217:	48 89 e5             	mov    %rsp,%rbp
    521a:	89 fa                	mov    %edi,%edx
    521c:	89 f0                	mov    %esi,%eax
    521e:	88 55 fc             	mov    %dl,-0x4(%rbp)
    5221:	88 45 f8             	mov    %al,-0x8(%rbp)
    5224:	0f b6 45 fc          	movzbl -0x4(%rbp),%eax
    5228:	0f b6 55 f8          	movzbl -0x8(%rbp),%edx
    522c:	0f af c2             	imul   %edx,%eax
    522f:	5d                   	pop    %rbp
    5230:	c3                   	retq   

0000000000005231 <safe_mod_func_int8_t_s_s>:
    5231:	f3 0f 1e fa          	endbr64 
    5235:	55                   	push   %rbp
    5236:	48 89 e5             	mov    %rsp,%rbp
    5239:	89 fa                	mov    %edi,%edx
    523b:	89 f0                	mov    %esi,%eax
    523d:	88 55 fc             	mov    %dl,-0x4(%rbp)
    5240:	88 45 f8             	mov    %al,-0x8(%rbp)
    5243:	80 7d f8 00          	cmpb   $0x0,-0x8(%rbp)
    5247:	74 1b                	je     5264 <safe_mod_func_int8_t_s_s+0x33>
    5249:	80 7d fc 80          	cmpb   $0x80,-0x4(%rbp)
    524d:	75 06                	jne    5255 <safe_mod_func_int8_t_s_s+0x24>
    524f:	80 7d f8 ff          	cmpb   $0xff,-0x8(%rbp)
    5253:	74 0f                	je     5264 <safe_mod_func_int8_t_s_s+0x33>
    5255:	0f be 45 fc          	movsbl -0x4(%rbp),%eax
    5259:	0f be 4d f8          	movsbl -0x8(%rbp),%ecx
    525d:	99                   	cltd   
    525e:	f7 f9                	idiv   %ecx
    5260:	89 d0                	mov    %edx,%eax
    5262:	eb 04                	jmp    5268 <safe_mod_func_int8_t_s_s+0x37>
    5264:	0f b6 45 fc          	movzbl -0x4(%rbp),%eax
    5268:	5d                   	pop    %rbp
    5269:	c3                   	retq   

000000000000526a <safe_div_func_int8_t_s_s>:
    526a:	f3 0f 1e fa          	endbr64 
    526e:	55                   	push   %rbp
    526f:	48 89 e5             	mov    %rsp,%rbp
    5272:	89 fa                	mov    %edi,%edx
    5274:	89 f0                	mov    %esi,%eax
    5276:	88 55 fc             	mov    %dl,-0x4(%rbp)
    5279:	88 45 f8             	mov    %al,-0x8(%rbp)
    527c:	80 7d f8 00          	cmpb   $0x0,-0x8(%rbp)
    5280:	74 19                	je     529b <safe_div_func_int8_t_s_s+0x31>
    5282:	80 7d fc 80          	cmpb   $0x80,-0x4(%rbp)
    5286:	75 06                	jne    528e <safe_div_func_int8_t_s_s+0x24>
    5288:	80 7d f8 ff          	cmpb   $0xff,-0x8(%rbp)
    528c:	74 0d                	je     529b <safe_div_func_int8_t_s_s+0x31>
    528e:	0f be 45 fc          	movsbl -0x4(%rbp),%eax
    5292:	0f be 4d f8          	movsbl -0x8(%rbp),%ecx
    5296:	99                   	cltd   
    5297:	f7 f9                	idiv   %ecx
    5299:	eb 04                	jmp    529f <safe_div_func_int8_t_s_s+0x35>
    529b:	0f b6 45 fc          	movzbl -0x4(%rbp),%eax
    529f:	5d                   	pop    %rbp
    52a0:	c3                   	retq   

00000000000052a1 <safe_lshift_func_int8_t_s_s>:
    52a1:	f3 0f 1e fa          	endbr64 
    52a5:	55                   	push   %rbp
    52a6:	48 89 e5             	mov    %rsp,%rbp
    52a9:	89 f8                	mov    %edi,%eax
    52ab:	89 75 f8             	mov    %esi,-0x8(%rbp)
    52ae:	88 45 fc             	mov    %al,-0x4(%rbp)
    52b1:	80 7d fc 00          	cmpb   $0x0,-0x4(%rbp)
    52b5:	78 31                	js     52e8 <safe_lshift_func_int8_t_s_s+0x47>
    52b7:	83 7d f8 00          	cmpl   $0x0,-0x8(%rbp)
    52bb:	78 2b                	js     52e8 <safe_lshift_func_int8_t_s_s+0x47>
    52bd:	83 7d f8 1f          	cmpl   $0x1f,-0x8(%rbp)
    52c1:	7f 25                	jg     52e8 <safe_lshift_func_int8_t_s_s+0x47>
    52c3:	0f be 55 fc          	movsbl -0x4(%rbp),%edx
    52c7:	8b 45 f8             	mov    -0x8(%rbp),%eax
    52ca:	be 7f 00 00 00       	mov    $0x7f,%esi
    52cf:	89 c1                	mov    %eax,%ecx
    52d1:	d3 fe                	sar    %cl,%esi
    52d3:	89 f0                	mov    %esi,%eax
    52d5:	39 c2                	cmp    %eax,%edx
    52d7:	7f 0f                	jg     52e8 <safe_lshift_func_int8_t_s_s+0x47>
    52d9:	0f be 55 fc          	movsbl -0x4(%rbp),%edx
    52dd:	8b 45 f8             	mov    -0x8(%rbp),%eax
    52e0:	89 c1                	mov    %eax,%ecx
    52e2:	d3 e2                	shl    %cl,%edx
    52e4:	89 d0                	mov    %edx,%eax
    52e6:	eb 04                	jmp    52ec <safe_lshift_func_int8_t_s_s+0x4b>
    52e8:	0f b6 45 fc          	movzbl -0x4(%rbp),%eax
    52ec:	5d                   	pop    %rbp
    52ed:	c3                   	retq   

00000000000052ee <safe_lshift_func_int8_t_s_u>:
    52ee:	f3 0f 1e fa          	endbr64 
    52f2:	55                   	push   %rbp
    52f3:	48 89 e5             	mov    %rsp,%rbp
    52f6:	89 f8                	mov    %edi,%eax
    52f8:	89 75 f8             	mov    %esi,-0x8(%rbp)
    52fb:	88 45 fc             	mov    %al,-0x4(%rbp)
    52fe:	80 7d fc 00          	cmpb   $0x0,-0x4(%rbp)
    5302:	78 2b                	js     532f <safe_lshift_func_int8_t_s_u+0x41>
    5304:	83 7d f8 1f          	cmpl   $0x1f,-0x8(%rbp)
    5308:	77 25                	ja     532f <safe_lshift_func_int8_t_s_u+0x41>
    530a:	0f be 55 fc          	movsbl -0x4(%rbp),%edx
    530e:	8b 45 f8             	mov    -0x8(%rbp),%eax
    5311:	be 7f 00 00 00       	mov    $0x7f,%esi
    5316:	89 c1                	mov    %eax,%ecx
    5318:	d3 fe                	sar    %cl,%esi
    531a:	89 f0                	mov    %esi,%eax
    531c:	39 c2                	cmp    %eax,%edx
    531e:	7f 0f                	jg     532f <safe_lshift_func_int8_t_s_u+0x41>
    5320:	0f be 55 fc          	movsbl -0x4(%rbp),%edx
    5324:	8b 45 f8             	mov    -0x8(%rbp),%eax
    5327:	89 c1                	mov    %eax,%ecx
    5329:	d3 e2                	shl    %cl,%edx
    532b:	89 d0                	mov    %edx,%eax
    532d:	eb 04                	jmp    5333 <safe_lshift_func_int8_t_s_u+0x45>
    532f:	0f b6 45 fc          	movzbl -0x4(%rbp),%eax
    5333:	5d                   	pop    %rbp
    5334:	c3                   	retq   

0000000000005335 <safe_rshift_func_int8_t_s_s>:
    5335:	f3 0f 1e fa          	endbr64 
    5339:	55                   	push   %rbp
    533a:	48 89 e5             	mov    %rsp,%rbp
    533d:	89 f8                	mov    %edi,%eax
    533f:	89 75 f8             	mov    %esi,-0x8(%rbp)
    5342:	88 45 fc             	mov    %al,-0x4(%rbp)
    5345:	80 7d fc 00          	cmpb   $0x0,-0x4(%rbp)
    5349:	78 1b                	js     5366 <safe_rshift_func_int8_t_s_s+0x31>
    534b:	83 7d f8 00          	cmpl   $0x0,-0x8(%rbp)
    534f:	78 15                	js     5366 <safe_rshift_func_int8_t_s_s+0x31>
    5351:	83 7d f8 1f          	cmpl   $0x1f,-0x8(%rbp)
    5355:	7f 0f                	jg     5366 <safe_rshift_func_int8_t_s_s+0x31>
    5357:	0f be 55 fc          	movsbl -0x4(%rbp),%edx
    535b:	8b 45 f8             	mov    -0x8(%rbp),%eax
    535e:	89 c1                	mov    %eax,%ecx
    5360:	d3 fa                	sar    %cl,%edx
    5362:	89 d0                	mov    %edx,%eax
    5364:	eb 04                	jmp    536a <safe_rshift_func_int8_t_s_s+0x35>
    5366:	0f b6 45 fc          	movzbl -0x4(%rbp),%eax
    536a:	5d                   	pop    %rbp
    536b:	c3                   	retq   

000000000000536c <safe_rshift_func_int8_t_s_u>:
    536c:	f3 0f 1e fa          	endbr64 
    5370:	55                   	push   %rbp
    5371:	48 89 e5             	mov    %rsp,%rbp
    5374:	89 f8                	mov    %edi,%eax
    5376:	89 75 f8             	mov    %esi,-0x8(%rbp)
    5379:	88 45 fc             	mov    %al,-0x4(%rbp)
    537c:	80 7d fc 00          	cmpb   $0x0,-0x4(%rbp)
    5380:	78 15                	js     5397 <safe_rshift_func_int8_t_s_u+0x2b>
    5382:	83 7d f8 1f          	cmpl   $0x1f,-0x8(%rbp)
    5386:	77 0f                	ja     5397 <safe_rshift_func_int8_t_s_u+0x2b>
    5388:	0f be 55 fc          	movsbl -0x4(%rbp),%edx
    538c:	8b 45 f8             	mov    -0x8(%rbp),%eax
    538f:	89 c1                	mov    %eax,%ecx
    5391:	d3 fa                	sar    %cl,%edx
    5393:	89 d0                	mov    %edx,%eax
    5395:	eb 04                	jmp    539b <safe_rshift_func_int8_t_s_u+0x2f>
    5397:	0f b6 45 fc          	movzbl -0x4(%rbp),%eax
    539b:	5d                   	pop    %rbp
    539c:	c3                   	retq   

000000000000539d <safe_unary_minus_func_int16_t_s>:
    539d:	f3 0f 1e fa          	endbr64 
    53a1:	55                   	push   %rbp
    53a2:	48 89 e5             	mov    %rsp,%rbp
    53a5:	89 f8                	mov    %edi,%eax
    53a7:	66 89 45 fc          	mov    %ax,-0x4(%rbp)
    53ab:	0f b7 45 fc          	movzwl -0x4(%rbp),%eax
    53af:	f7 d8                	neg    %eax
    53b1:	5d                   	pop    %rbp
    53b2:	c3                   	retq   

00000000000053b3 <safe_add_func_int16_t_s_s>:
    53b3:	f3 0f 1e fa          	endbr64 
    53b7:	55                   	push   %rbp
    53b8:	48 89 e5             	mov    %rsp,%rbp
    53bb:	89 fa                	mov    %edi,%edx
    53bd:	89 f0                	mov    %esi,%eax
    53bf:	66 89 55 fc          	mov    %dx,-0x4(%rbp)
    53c3:	66 89 45 f8          	mov    %ax,-0x8(%rbp)
    53c7:	0f b7 55 fc          	movzwl -0x4(%rbp),%edx
    53cb:	0f b7 45 f8          	movzwl -0x8(%rbp),%eax
    53cf:	01 d0                	add    %edx,%eax
    53d1:	5d                   	pop    %rbp
    53d2:	c3                   	retq   

00000000000053d3 <safe_sub_func_int16_t_s_s>:
    53d3:	f3 0f 1e fa          	endbr64 
    53d7:	55                   	push   %rbp
    53d8:	48 89 e5             	mov    %rsp,%rbp
    53db:	89 fa                	mov    %edi,%edx
    53dd:	89 f0                	mov    %esi,%eax
    53df:	66 89 55 fc          	mov    %dx,-0x4(%rbp)
    53e3:	66 89 45 f8          	mov    %ax,-0x8(%rbp)
    53e7:	0f b7 55 fc          	movzwl -0x4(%rbp),%edx
    53eb:	0f b7 45 f8          	movzwl -0x8(%rbp),%eax
    53ef:	29 c2                	sub    %eax,%edx
    53f1:	89 d0                	mov    %edx,%eax
    53f3:	5d                   	pop    %rbp
    53f4:	c3                   	retq   

00000000000053f5 <safe_mul_func_int16_t_s_s>:
    53f5:	f3 0f 1e fa          	endbr64 
    53f9:	55                   	push   %rbp
    53fa:	48 89 e5             	mov    %rsp,%rbp
    53fd:	89 fa                	mov    %edi,%edx
    53ff:	89 f0                	mov    %esi,%eax
    5401:	66 89 55 fc          	mov    %dx,-0x4(%rbp)
    5405:	66 89 45 f8          	mov    %ax,-0x8(%rbp)
    5409:	0f b7 55 fc          	movzwl -0x4(%rbp),%edx
    540d:	0f b7 45 f8          	movzwl -0x8(%rbp),%eax
    5411:	0f af c2             	imul   %edx,%eax
    5414:	5d                   	pop    %rbp
    5415:	c3                   	retq   

0000000000005416 <safe_mod_func_int16_t_s_s>:
    5416:	f3 0f 1e fa          	endbr64 
    541a:	55                   	push   %rbp
    541b:	48 89 e5             	mov    %rsp,%rbp
    541e:	89 fa                	mov    %edi,%edx
    5420:	89 f0                	mov    %esi,%eax
    5422:	66 89 55 fc          	mov    %dx,-0x4(%rbp)
    5426:	66 89 45 f8          	mov    %ax,-0x8(%rbp)
    542a:	66 83 7d f8 00       	cmpw   $0x0,-0x8(%rbp)
    542f:	74 1e                	je     544f <safe_mod_func_int16_t_s_s+0x39>
    5431:	66 81 7d fc 00 80    	cmpw   $0x8000,-0x4(%rbp)
    5437:	75 07                	jne    5440 <safe_mod_func_int16_t_s_s+0x2a>
    5439:	66 83 7d f8 ff       	cmpw   $0xffff,-0x8(%rbp)
    543e:	74 0f                	je     544f <safe_mod_func_int16_t_s_s+0x39>
    5440:	0f bf 45 fc          	movswl -0x4(%rbp),%eax
    5444:	0f bf 4d f8          	movswl -0x8(%rbp),%ecx
    5448:	99                   	cltd   
    5449:	f7 f9                	idiv   %ecx
    544b:	89 d0                	mov    %edx,%eax
    544d:	eb 04                	jmp    5453 <safe_mod_func_int16_t_s_s+0x3d>
    544f:	0f b7 45 fc          	movzwl -0x4(%rbp),%eax
    5453:	5d                   	pop    %rbp
    5454:	c3                   	retq   

0000000000005455 <safe_div_func_int16_t_s_s>:
    5455:	f3 0f 1e fa          	endbr64 
    5459:	55                   	push   %rbp
    545a:	48 89 e5             	mov    %rsp,%rbp
    545d:	89 fa                	mov    %edi,%edx
    545f:	89 f0                	mov    %esi,%eax
    5461:	66 89 55 fc          	mov    %dx,-0x4(%rbp)
    5465:	66 89 45 f8          	mov    %ax,-0x8(%rbp)
    5469:	66 83 7d f8 00       	cmpw   $0x0,-0x8(%rbp)
    546e:	74 1c                	je     548c <safe_div_func_int16_t_s_s+0x37>
    5470:	66 81 7d fc 00 80    	cmpw   $0x8000,-0x4(%rbp)
    5476:	75 07                	jne    547f <safe_div_func_int16_t_s_s+0x2a>
    5478:	66 83 7d f8 ff       	cmpw   $0xffff,-0x8(%rbp)
    547d:	74 0d                	je     548c <safe_div_func_int16_t_s_s+0x37>
    547f:	0f bf 45 fc          	movswl -0x4(%rbp),%eax
    5483:	0f bf 4d f8          	movswl -0x8(%rbp),%ecx
    5487:	99                   	cltd   
    5488:	f7 f9                	idiv   %ecx
    548a:	eb 04                	jmp    5490 <safe_div_func_int16_t_s_s+0x3b>
    548c:	0f b7 45 fc          	movzwl -0x4(%rbp),%eax
    5490:	5d                   	pop    %rbp
    5491:	c3                   	retq   

0000000000005492 <safe_lshift_func_int16_t_s_s>:
    5492:	f3 0f 1e fa          	endbr64 
    5496:	55                   	push   %rbp
    5497:	48 89 e5             	mov    %rsp,%rbp
    549a:	89 f8                	mov    %edi,%eax
    549c:	89 75 f8             	mov    %esi,-0x8(%rbp)
    549f:	66 89 45 fc          	mov    %ax,-0x4(%rbp)
    54a3:	66 83 7d fc 00       	cmpw   $0x0,-0x4(%rbp)
    54a8:	78 31                	js     54db <safe_lshift_func_int16_t_s_s+0x49>
    54aa:	83 7d f8 00          	cmpl   $0x0,-0x8(%rbp)
    54ae:	78 2b                	js     54db <safe_lshift_func_int16_t_s_s+0x49>
    54b0:	83 7d f8 1f          	cmpl   $0x1f,-0x8(%rbp)
    54b4:	7f 25                	jg     54db <safe_lshift_func_int16_t_s_s+0x49>
    54b6:	0f bf 55 fc          	movswl -0x4(%rbp),%edx
    54ba:	8b 45 f8             	mov    -0x8(%rbp),%eax
    54bd:	be ff 7f 00 00       	mov    $0x7fff,%esi
    54c2:	89 c1                	mov    %eax,%ecx
    54c4:	d3 fe                	sar    %cl,%esi
    54c6:	89 f0                	mov    %esi,%eax
    54c8:	39 c2                	cmp    %eax,%edx
    54ca:	7f 0f                	jg     54db <safe_lshift_func_int16_t_s_s+0x49>
    54cc:	0f bf 55 fc          	movswl -0x4(%rbp),%edx
    54d0:	8b 45 f8             	mov    -0x8(%rbp),%eax
    54d3:	89 c1                	mov    %eax,%ecx
    54d5:	d3 e2                	shl    %cl,%edx
    54d7:	89 d0                	mov    %edx,%eax
    54d9:	eb 04                	jmp    54df <safe_lshift_func_int16_t_s_s+0x4d>
    54db:	0f b7 45 fc          	movzwl -0x4(%rbp),%eax
    54df:	5d                   	pop    %rbp
    54e0:	c3                   	retq   

00000000000054e1 <safe_lshift_func_int16_t_s_u>:
    54e1:	f3 0f 1e fa          	endbr64 
    54e5:	55                   	push   %rbp
    54e6:	48 89 e5             	mov    %rsp,%rbp
    54e9:	89 f8                	mov    %edi,%eax
    54eb:	89 75 f8             	mov    %esi,-0x8(%rbp)
    54ee:	66 89 45 fc          	mov    %ax,-0x4(%rbp)
    54f2:	66 83 7d fc 00       	cmpw   $0x0,-0x4(%rbp)
    54f7:	78 2b                	js     5524 <safe_lshift_func_int16_t_s_u+0x43>
    54f9:	83 7d f8 1f          	cmpl   $0x1f,-0x8(%rbp)
    54fd:	77 25                	ja     5524 <safe_lshift_func_int16_t_s_u+0x43>
    54ff:	0f bf 55 fc          	movswl -0x4(%rbp),%edx
    5503:	8b 45 f8             	mov    -0x8(%rbp),%eax
    5506:	be ff 7f 00 00       	mov    $0x7fff,%esi
    550b:	89 c1                	mov    %eax,%ecx
    550d:	d3 fe                	sar    %cl,%esi
    550f:	89 f0                	mov    %esi,%eax
    5511:	39 c2                	cmp    %eax,%edx
    5513:	7f 0f                	jg     5524 <safe_lshift_func_int16_t_s_u+0x43>
    5515:	0f bf 55 fc          	movswl -0x4(%rbp),%edx
    5519:	8b 45 f8             	mov    -0x8(%rbp),%eax
    551c:	89 c1                	mov    %eax,%ecx
    551e:	d3 e2                	shl    %cl,%edx
    5520:	89 d0                	mov    %edx,%eax
    5522:	eb 04                	jmp    5528 <safe_lshift_func_int16_t_s_u+0x47>
    5524:	0f b7 45 fc          	movzwl -0x4(%rbp),%eax
    5528:	5d                   	pop    %rbp
    5529:	c3                   	retq   

000000000000552a <safe_rshift_func_int16_t_s_s>:
    552a:	f3 0f 1e fa          	endbr64 
    552e:	55                   	push   %rbp
    552f:	48 89 e5             	mov    %rsp,%rbp
    5532:	89 f8                	mov    %edi,%eax
    5534:	89 75 f8             	mov    %esi,-0x8(%rbp)
    5537:	66 89 45 fc          	mov    %ax,-0x4(%rbp)
    553b:	66 83 7d fc 00       	cmpw   $0x0,-0x4(%rbp)
    5540:	78 1b                	js     555d <safe_rshift_func_int16_t_s_s+0x33>
    5542:	83 7d f8 00          	cmpl   $0x0,-0x8(%rbp)
    5546:	78 15                	js     555d <safe_rshift_func_int16_t_s_s+0x33>
    5548:	83 7d f8 1f          	cmpl   $0x1f,-0x8(%rbp)
    554c:	7f 0f                	jg     555d <safe_rshift_func_int16_t_s_s+0x33>
    554e:	0f bf 55 fc          	movswl -0x4(%rbp),%edx
    5552:	8b 45 f8             	mov    -0x8(%rbp),%eax
    5555:	89 c1                	mov    %eax,%ecx
    5557:	d3 fa                	sar    %cl,%edx
    5559:	89 d0                	mov    %edx,%eax
    555b:	eb 04                	jmp    5561 <safe_rshift_func_int16_t_s_s+0x37>
    555d:	0f b7 45 fc          	movzwl -0x4(%rbp),%eax
    5561:	5d                   	pop    %rbp
    5562:	c3                   	retq   

0000000000005563 <safe_rshift_func_int16_t_s_u>:
    5563:	f3 0f 1e fa          	endbr64 
    5567:	55                   	push   %rbp
    5568:	48 89 e5             	mov    %rsp,%rbp
    556b:	89 f8                	mov    %edi,%eax
    556d:	89 75 f8             	mov    %esi,-0x8(%rbp)
    5570:	66 89 45 fc          	mov    %ax,-0x4(%rbp)
    5574:	66 83 7d fc 00       	cmpw   $0x0,-0x4(%rbp)
    5579:	78 15                	js     5590 <safe_rshift_func_int16_t_s_u+0x2d>
    557b:	83 7d f8 1f          	cmpl   $0x1f,-0x8(%rbp)
    557f:	77 0f                	ja     5590 <safe_rshift_func_int16_t_s_u+0x2d>
    5581:	0f bf 55 fc          	movswl -0x4(%rbp),%edx
    5585:	8b 45 f8             	mov    -0x8(%rbp),%eax
    5588:	89 c1                	mov    %eax,%ecx
    558a:	d3 fa                	sar    %cl,%edx
    558c:	89 d0                	mov    %edx,%eax
    558e:	eb 04                	jmp    5594 <safe_rshift_func_int16_t_s_u+0x31>
    5590:	0f b7 45 fc          	movzwl -0x4(%rbp),%eax
    5594:	5d                   	pop    %rbp
    5595:	c3                   	retq   

0000000000005596 <safe_unary_minus_func_int32_t_s>:
    5596:	f3 0f 1e fa          	endbr64 
    559a:	55                   	push   %rbp
    559b:	48 89 e5             	mov    %rsp,%rbp
    559e:	89 7d fc             	mov    %edi,-0x4(%rbp)
    55a1:	81 7d fc 00 00 00 80 	cmpl   $0x80000000,-0x4(%rbp)
    55a8:	74 07                	je     55b1 <safe_unary_minus_func_int32_t_s+0x1b>
    55aa:	8b 45 fc             	mov    -0x4(%rbp),%eax
    55ad:	f7 d8                	neg    %eax
    55af:	eb 03                	jmp    55b4 <safe_unary_minus_func_int32_t_s+0x1e>
    55b1:	8b 45 fc             	mov    -0x4(%rbp),%eax
    55b4:	5d                   	pop    %rbp
    55b5:	c3                   	retq   

00000000000055b6 <safe_add_func_int32_t_s_s>:
    55b6:	f3 0f 1e fa          	endbr64 
    55ba:	55                   	push   %rbp
    55bb:	48 89 e5             	mov    %rsp,%rbp
    55be:	89 7d fc             	mov    %edi,-0x4(%rbp)
    55c1:	89 75 f8             	mov    %esi,-0x8(%rbp)
    55c4:	83 7d fc 00          	cmpl   $0x0,-0x4(%rbp)
    55c8:	7e 13                	jle    55dd <safe_add_func_int32_t_s_s+0x27>
    55ca:	83 7d f8 00          	cmpl   $0x0,-0x8(%rbp)
    55ce:	7e 0d                	jle    55dd <safe_add_func_int32_t_s_s+0x27>
    55d0:	b8 ff ff ff 7f       	mov    $0x7fffffff,%eax
    55d5:	2b 45 f8             	sub    -0x8(%rbp),%eax
    55d8:	39 45 fc             	cmp    %eax,-0x4(%rbp)
    55db:	7f 23                	jg     5600 <safe_add_func_int32_t_s_s+0x4a>
    55dd:	83 7d fc 00          	cmpl   $0x0,-0x4(%rbp)
    55e1:	79 13                	jns    55f6 <safe_add_func_int32_t_s_s+0x40>
    55e3:	83 7d f8 00          	cmpl   $0x0,-0x8(%rbp)
    55e7:	79 0d                	jns    55f6 <safe_add_func_int32_t_s_s+0x40>
    55e9:	b8 00 00 00 80       	mov    $0x80000000,%eax
    55ee:	2b 45 f8             	sub    -0x8(%rbp),%eax
    55f1:	39 45 fc             	cmp    %eax,-0x4(%rbp)
    55f4:	7c 0a                	jl     5600 <safe_add_func_int32_t_s_s+0x4a>
    55f6:	8b 55 fc             	mov    -0x4(%rbp),%edx
    55f9:	8b 45 f8             	mov    -0x8(%rbp),%eax
    55fc:	01 d0                	add    %edx,%eax
    55fe:	eb 03                	jmp    5603 <safe_add_func_int32_t_s_s+0x4d>
    5600:	8b 45 fc             	mov    -0x4(%rbp),%eax
    5603:	5d                   	pop    %rbp
    5604:	c3                   	retq   

0000000000005605 <safe_sub_func_int32_t_s_s>:
    5605:	f3 0f 1e fa          	endbr64 
    5609:	55                   	push   %rbp
    560a:	48 89 e5             	mov    %rsp,%rbp
    560d:	89 7d fc             	mov    %edi,-0x4(%rbp)
    5610:	89 75 f8             	mov    %esi,-0x8(%rbp)
    5613:	8b 45 fc             	mov    -0x4(%rbp),%eax
    5616:	33 45 f8             	xor    -0x8(%rbp),%eax
    5619:	89 c2                	mov    %eax,%edx
    561b:	8b 45 fc             	mov    -0x4(%rbp),%eax
    561e:	33 45 f8             	xor    -0x8(%rbp),%eax
    5621:	25 00 00 00 80       	and    $0x80000000,%eax
    5626:	33 45 fc             	xor    -0x4(%rbp),%eax
    5629:	2b 45 f8             	sub    -0x8(%rbp),%eax
    562c:	33 45 f8             	xor    -0x8(%rbp),%eax
    562f:	21 d0                	and    %edx,%eax
    5631:	85 c0                	test   %eax,%eax
    5633:	78 08                	js     563d <safe_sub_func_int32_t_s_s+0x38>
    5635:	8b 45 fc             	mov    -0x4(%rbp),%eax
    5638:	2b 45 f8             	sub    -0x8(%rbp),%eax
    563b:	eb 03                	jmp    5640 <safe_sub_func_int32_t_s_s+0x3b>
    563d:	8b 45 fc             	mov    -0x4(%rbp),%eax
    5640:	5d                   	pop    %rbp
    5641:	c3                   	retq   

0000000000005642 <safe_mul_func_int32_t_s_s>:
    5642:	f3 0f 1e fa          	endbr64 
    5646:	55                   	push   %rbp
    5647:	48 89 e5             	mov    %rsp,%rbp
    564a:	89 7d fc             	mov    %edi,-0x4(%rbp)
    564d:	89 75 f8             	mov    %esi,-0x8(%rbp)
    5650:	83 7d fc 00          	cmpl   $0x0,-0x4(%rbp)
    5654:	7e 14                	jle    566a <safe_mul_func_int32_t_s_s+0x28>
    5656:	83 7d f8 00          	cmpl   $0x0,-0x8(%rbp)
    565a:	7e 0e                	jle    566a <safe_mul_func_int32_t_s_s+0x28>
    565c:	b8 ff ff ff 7f       	mov    $0x7fffffff,%eax
    5661:	99                   	cltd   
    5662:	f7 7d f8             	idivl  -0x8(%rbp)
    5665:	39 45 fc             	cmp    %eax,-0x4(%rbp)
    5668:	7f 5d                	jg     56c7 <safe_mul_func_int32_t_s_s+0x85>
    566a:	83 7d fc 00          	cmpl   $0x0,-0x4(%rbp)
    566e:	7e 14                	jle    5684 <safe_mul_func_int32_t_s_s+0x42>
    5670:	83 7d f8 00          	cmpl   $0x0,-0x8(%rbp)
    5674:	7f 0e                	jg     5684 <safe_mul_func_int32_t_s_s+0x42>
    5676:	b8 00 00 00 80       	mov    $0x80000000,%eax
    567b:	99                   	cltd   
    567c:	f7 7d fc             	idivl  -0x4(%rbp)
    567f:	39 45 f8             	cmp    %eax,-0x8(%rbp)
    5682:	7c 43                	jl     56c7 <safe_mul_func_int32_t_s_s+0x85>
    5684:	83 7d fc 00          	cmpl   $0x0,-0x4(%rbp)
    5688:	7f 14                	jg     569e <safe_mul_func_int32_t_s_s+0x5c>
    568a:	83 7d f8 00          	cmpl   $0x0,-0x8(%rbp)
    568e:	7e 0e                	jle    569e <safe_mul_func_int32_t_s_s+0x5c>
    5690:	b8 00 00 00 80       	mov    $0x80000000,%eax
    5695:	99                   	cltd   
    5696:	f7 7d f8             	idivl  -0x8(%rbp)
    5699:	39 45 fc             	cmp    %eax,-0x4(%rbp)
    569c:	7c 29                	jl     56c7 <safe_mul_func_int32_t_s_s+0x85>
    569e:	83 7d fc 00          	cmpl   $0x0,-0x4(%rbp)
    56a2:	7f 1a                	jg     56be <safe_mul_func_int32_t_s_s+0x7c>
    56a4:	83 7d f8 00          	cmpl   $0x0,-0x8(%rbp)
    56a8:	7f 14                	jg     56be <safe_mul_func_int32_t_s_s+0x7c>
    56aa:	83 7d fc 00          	cmpl   $0x0,-0x4(%rbp)
    56ae:	74 0e                	je     56be <safe_mul_func_int32_t_s_s+0x7c>
    56b0:	b8 ff ff ff 7f       	mov    $0x7fffffff,%eax
    56b5:	99                   	cltd   
    56b6:	f7 7d fc             	idivl  -0x4(%rbp)
    56b9:	39 45 f8             	cmp    %eax,-0x8(%rbp)
    56bc:	7c 09                	jl     56c7 <safe_mul_func_int32_t_s_s+0x85>
    56be:	8b 45 fc             	mov    -0x4(%rbp),%eax
    56c1:	0f af 45 f8          	imul   -0x8(%rbp),%eax
    56c5:	eb 03                	jmp    56ca <safe_mul_func_int32_t_s_s+0x88>
    56c7:	8b 45 fc             	mov    -0x4(%rbp),%eax
    56ca:	5d                   	pop    %rbp
    56cb:	c3                   	retq   

00000000000056cc <safe_mod_func_int32_t_s_s>:
    56cc:	f3 0f 1e fa          	endbr64 
    56d0:	55                   	push   %rbp
    56d1:	48 89 e5             	mov    %rsp,%rbp
    56d4:	89 7d fc             	mov    %edi,-0x4(%rbp)
    56d7:	89 75 f8             	mov    %esi,-0x8(%rbp)
    56da:	83 7d f8 00          	cmpl   $0x0,-0x8(%rbp)
    56de:	74 1a                	je     56fa <safe_mod_func_int32_t_s_s+0x2e>
    56e0:	81 7d fc 00 00 00 80 	cmpl   $0x80000000,-0x4(%rbp)
    56e7:	75 06                	jne    56ef <safe_mod_func_int32_t_s_s+0x23>
    56e9:	83 7d f8 ff          	cmpl   $0xffffffff,-0x8(%rbp)
    56ed:	74 0b                	je     56fa <safe_mod_func_int32_t_s_s+0x2e>
    56ef:	8b 45 fc             	mov    -0x4(%rbp),%eax
    56f2:	99                   	cltd   
    56f3:	f7 7d f8             	idivl  -0x8(%rbp)
    56f6:	89 d0                	mov    %edx,%eax
    56f8:	eb 03                	jmp    56fd <safe_mod_func_int32_t_s_s+0x31>
    56fa:	8b 45 fc             	mov    -0x4(%rbp),%eax
    56fd:	5d                   	pop    %rbp
    56fe:	c3                   	retq   

00000000000056ff <safe_div_func_int32_t_s_s>:
    56ff:	f3 0f 1e fa          	endbr64 
    5703:	55                   	push   %rbp
    5704:	48 89 e5             	mov    %rsp,%rbp
    5707:	89 7d fc             	mov    %edi,-0x4(%rbp)
    570a:	89 75 f8             	mov    %esi,-0x8(%rbp)
    570d:	83 7d f8 00          	cmpl   $0x0,-0x8(%rbp)
    5711:	74 18                	je     572b <safe_div_func_int32_t_s_s+0x2c>
    5713:	81 7d fc 00 00 00 80 	cmpl   $0x80000000,-0x4(%rbp)
    571a:	75 06                	jne    5722 <safe_div_func_int32_t_s_s+0x23>
    571c:	83 7d f8 ff          	cmpl   $0xffffffff,-0x8(%rbp)
    5720:	74 09                	je     572b <safe_div_func_int32_t_s_s+0x2c>
    5722:	8b 45 fc             	mov    -0x4(%rbp),%eax
    5725:	99                   	cltd   
    5726:	f7 7d f8             	idivl  -0x8(%rbp)
    5729:	eb 03                	jmp    572e <safe_div_func_int32_t_s_s+0x2f>
    572b:	8b 45 fc             	mov    -0x4(%rbp),%eax
    572e:	5d                   	pop    %rbp
    572f:	c3                   	retq   

0000000000005730 <safe_lshift_func_int32_t_s_s>:
    5730:	f3 0f 1e fa          	endbr64 
    5734:	55                   	push   %rbp
    5735:	48 89 e5             	mov    %rsp,%rbp
    5738:	89 7d fc             	mov    %edi,-0x4(%rbp)
    573b:	89 75 f8             	mov    %esi,-0x8(%rbp)
    573e:	83 7d fc 00          	cmpl   $0x0,-0x4(%rbp)
    5742:	78 2d                	js     5771 <safe_lshift_func_int32_t_s_s+0x41>
    5744:	83 7d f8 00          	cmpl   $0x0,-0x8(%rbp)
    5748:	78 27                	js     5771 <safe_lshift_func_int32_t_s_s+0x41>
    574a:	83 7d f8 1f          	cmpl   $0x1f,-0x8(%rbp)
    574e:	7f 21                	jg     5771 <safe_lshift_func_int32_t_s_s+0x41>
    5750:	8b 45 f8             	mov    -0x8(%rbp),%eax
    5753:	ba ff ff ff 7f       	mov    $0x7fffffff,%edx
    5758:	89 c1                	mov    %eax,%ecx
    575a:	d3 fa                	sar    %cl,%edx
    575c:	89 d0                	mov    %edx,%eax
    575e:	39 45 fc             	cmp    %eax,-0x4(%rbp)
    5761:	7f 0e                	jg     5771 <safe_lshift_func_int32_t_s_s+0x41>
    5763:	8b 45 f8             	mov    -0x8(%rbp),%eax
    5766:	8b 55 fc             	mov    -0x4(%rbp),%edx
    5769:	89 c1                	mov    %eax,%ecx
    576b:	d3 e2                	shl    %cl,%edx
    576d:	89 d0                	mov    %edx,%eax
    576f:	eb 03                	jmp    5774 <safe_lshift_func_int32_t_s_s+0x44>
    5771:	8b 45 fc             	mov    -0x4(%rbp),%eax
    5774:	5d                   	pop    %rbp
    5775:	c3                   	retq   

0000000000005776 <safe_lshift_func_int32_t_s_u>:
    5776:	f3 0f 1e fa          	endbr64 
    577a:	55                   	push   %rbp
    577b:	48 89 e5             	mov    %rsp,%rbp
    577e:	89 7d fc             	mov    %edi,-0x4(%rbp)
    5781:	89 75 f8             	mov    %esi,-0x8(%rbp)
    5784:	83 7d fc 00          	cmpl   $0x0,-0x4(%rbp)
    5788:	78 27                	js     57b1 <safe_lshift_func_int32_t_s_u+0x3b>
    578a:	83 7d f8 1f          	cmpl   $0x1f,-0x8(%rbp)
    578e:	77 21                	ja     57b1 <safe_lshift_func_int32_t_s_u+0x3b>
    5790:	8b 45 f8             	mov    -0x8(%rbp),%eax
    5793:	ba ff ff ff 7f       	mov    $0x7fffffff,%edx
    5798:	89 c1                	mov    %eax,%ecx
    579a:	d3 fa                	sar    %cl,%edx
    579c:	89 d0                	mov    %edx,%eax
    579e:	39 45 fc             	cmp    %eax,-0x4(%rbp)
    57a1:	7f 0e                	jg     57b1 <safe_lshift_func_int32_t_s_u+0x3b>
    57a3:	8b 45 f8             	mov    -0x8(%rbp),%eax
    57a6:	8b 55 fc             	mov    -0x4(%rbp),%edx
    57a9:	89 c1                	mov    %eax,%ecx
    57ab:	d3 e2                	shl    %cl,%edx
    57ad:	89 d0                	mov    %edx,%eax
    57af:	eb 03                	jmp    57b4 <safe_lshift_func_int32_t_s_u+0x3e>
    57b1:	8b 45 fc             	mov    -0x4(%rbp),%eax
    57b4:	5d                   	pop    %rbp
    57b5:	c3                   	retq   

00000000000057b6 <safe_rshift_func_int32_t_s_s>:
    57b6:	f3 0f 1e fa          	endbr64 
    57ba:	55                   	push   %rbp
    57bb:	48 89 e5             	mov    %rsp,%rbp
    57be:	89 7d fc             	mov    %edi,-0x4(%rbp)
    57c1:	89 75 f8             	mov    %esi,-0x8(%rbp)
    57c4:	83 7d fc 00          	cmpl   $0x0,-0x4(%rbp)
    57c8:	78 1a                	js     57e4 <safe_rshift_func_int32_t_s_s+0x2e>
    57ca:	83 7d f8 00          	cmpl   $0x0,-0x8(%rbp)
    57ce:	78 14                	js     57e4 <safe_rshift_func_int32_t_s_s+0x2e>
    57d0:	83 7d f8 1f          	cmpl   $0x1f,-0x8(%rbp)
    57d4:	7f 0e                	jg     57e4 <safe_rshift_func_int32_t_s_s+0x2e>
    57d6:	8b 45 f8             	mov    -0x8(%rbp),%eax
    57d9:	8b 55 fc             	mov    -0x4(%rbp),%edx
    57dc:	89 c1                	mov    %eax,%ecx
    57de:	d3 fa                	sar    %cl,%edx
    57e0:	89 d0                	mov    %edx,%eax
    57e2:	eb 03                	jmp    57e7 <safe_rshift_func_int32_t_s_s+0x31>
    57e4:	8b 45 fc             	mov    -0x4(%rbp),%eax
    57e7:	5d                   	pop    %rbp
    57e8:	c3                   	retq   

00000000000057e9 <safe_rshift_func_int32_t_s_u>:
    57e9:	f3 0f 1e fa          	endbr64 
    57ed:	55                   	push   %rbp
    57ee:	48 89 e5             	mov    %rsp,%rbp
    57f1:	89 7d fc             	mov    %edi,-0x4(%rbp)
    57f4:	89 75 f8             	mov    %esi,-0x8(%rbp)
    57f7:	83 7d fc 00          	cmpl   $0x0,-0x4(%rbp)
    57fb:	78 14                	js     5811 <safe_rshift_func_int32_t_s_u+0x28>
    57fd:	83 7d f8 1f          	cmpl   $0x1f,-0x8(%rbp)
    5801:	77 0e                	ja     5811 <safe_rshift_func_int32_t_s_u+0x28>
    5803:	8b 45 f8             	mov    -0x8(%rbp),%eax
    5806:	8b 55 fc             	mov    -0x4(%rbp),%edx
    5809:	89 c1                	mov    %eax,%ecx
    580b:	d3 fa                	sar    %cl,%edx
    580d:	89 d0                	mov    %edx,%eax
    580f:	eb 03                	jmp    5814 <safe_rshift_func_int32_t_s_u+0x2b>
    5811:	8b 45 fc             	mov    -0x4(%rbp),%eax
    5814:	5d                   	pop    %rbp
    5815:	c3                   	retq   

0000000000005816 <safe_unary_minus_func_int64_t_s>:
    5816:	f3 0f 1e fa          	endbr64 
    581a:	55                   	push   %rbp
    581b:	48 89 e5             	mov    %rsp,%rbp
    581e:	48 89 7d f8          	mov    %rdi,-0x8(%rbp)
    5822:	48 b8 00 00 00 00 00 	movabs $0x8000000000000000,%rax
    5829:	00 00 80 
    582c:	48 39 45 f8          	cmp    %rax,-0x8(%rbp)
    5830:	74 09                	je     583b <safe_unary_minus_func_int64_t_s+0x25>
    5832:	48 8b 45 f8          	mov    -0x8(%rbp),%rax
    5836:	48 f7 d8             	neg    %rax
    5839:	eb 04                	jmp    583f <safe_unary_minus_func_int64_t_s+0x29>
    583b:	48 8b 45 f8          	mov    -0x8(%rbp),%rax
    583f:	5d                   	pop    %rbp
    5840:	c3                   	retq   

0000000000005841 <safe_add_func_int64_t_s_s>:
    5841:	f3 0f 1e fa          	endbr64 
    5845:	55                   	push   %rbp
    5846:	48 89 e5             	mov    %rsp,%rbp
    5849:	48 89 7d f8          	mov    %rdi,-0x8(%rbp)
    584d:	48 89 75 f0          	mov    %rsi,-0x10(%rbp)
    5851:	48 83 7d f8 00       	cmpq   $0x0,-0x8(%rbp)
    5856:	7e 1b                	jle    5873 <safe_add_func_int64_t_s_s+0x32>
    5858:	48 83 7d f0 00       	cmpq   $0x0,-0x10(%rbp)
    585d:	7e 14                	jle    5873 <safe_add_func_int64_t_s_s+0x32>
    585f:	48 b8 ff ff ff ff ff 	movabs $0x7fffffffffffffff,%rax
    5866:	ff ff 7f 
    5869:	48 2b 45 f0          	sub    -0x10(%rbp),%rax
    586d:	48 39 45 f8          	cmp    %rax,-0x8(%rbp)
    5871:	7f 2f                	jg     58a2 <safe_add_func_int64_t_s_s+0x61>
    5873:	48 83 7d f8 00       	cmpq   $0x0,-0x8(%rbp)
    5878:	79 1b                	jns    5895 <safe_add_func_int64_t_s_s+0x54>
    587a:	48 83 7d f0 00       	cmpq   $0x0,-0x10(%rbp)
    587f:	79 14                	jns    5895 <safe_add_func_int64_t_s_s+0x54>
    5881:	48 b8 00 00 00 00 00 	movabs $0x8000000000000000,%rax
    5888:	00 00 80 
    588b:	48 2b 45 f0          	sub    -0x10(%rbp),%rax
    588f:	48 39 45 f8          	cmp    %rax,-0x8(%rbp)
    5893:	7c 0d                	jl     58a2 <safe_add_func_int64_t_s_s+0x61>
    5895:	48 8b 55 f8          	mov    -0x8(%rbp),%rdx
    5899:	48 8b 45 f0          	mov    -0x10(%rbp),%rax
    589d:	48 01 d0             	add    %rdx,%rax
    58a0:	eb 04                	jmp    58a6 <safe_add_func_int64_t_s_s+0x65>
    58a2:	48 8b 45 f8          	mov    -0x8(%rbp),%rax
    58a6:	5d                   	pop    %rbp
    58a7:	c3                   	retq   

00000000000058a8 <safe_sub_func_int64_t_s_s>:
    58a8:	f3 0f 1e fa          	endbr64 
    58ac:	55                   	push   %rbp
    58ad:	48 89 e5             	mov    %rsp,%rbp
    58b0:	48 89 7d f8          	mov    %rdi,-0x8(%rbp)
    58b4:	48 89 75 f0          	mov    %rsi,-0x10(%rbp)
    58b8:	48 8b 45 f8          	mov    -0x8(%rbp),%rax
    58bc:	48 33 45 f0          	xor    -0x10(%rbp),%rax
    58c0:	48 89 c2             	mov    %rax,%rdx
    58c3:	48 8b 45 f8          	mov    -0x8(%rbp),%rax
    58c7:	48 33 45 f0          	xor    -0x10(%rbp),%rax
    58cb:	48 b9 00 00 00 00 00 	movabs $0x8000000000000000,%rcx
    58d2:	00 00 80 
    58d5:	48 21 c8             	and    %rcx,%rax
    58d8:	48 33 45 f8          	xor    -0x8(%rbp),%rax
    58dc:	48 2b 45 f0          	sub    -0x10(%rbp),%rax
    58e0:	48 33 45 f0          	xor    -0x10(%rbp),%rax
    58e4:	48 21 d0             	and    %rdx,%rax
    58e7:	48 85 c0             	test   %rax,%rax
    58ea:	78 0a                	js     58f6 <safe_sub_func_int64_t_s_s+0x4e>
    58ec:	48 8b 45 f8          	mov    -0x8(%rbp),%rax
    58f0:	48 2b 45 f0          	sub    -0x10(%rbp),%rax
    58f4:	eb 04                	jmp    58fa <safe_sub_func_int64_t_s_s+0x52>
    58f6:	48 8b 45 f8          	mov    -0x8(%rbp),%rax
    58fa:	5d                   	pop    %rbp
    58fb:	c3                   	retq   

00000000000058fc <safe_mul_func_int64_t_s_s>:
    58fc:	f3 0f 1e fa          	endbr64 
    5900:	55                   	push   %rbp
    5901:	48 89 e5             	mov    %rsp,%rbp
    5904:	48 89 7d f8          	mov    %rdi,-0x8(%rbp)
    5908:	48 89 75 f0          	mov    %rsi,-0x10(%rbp)
    590c:	48 83 7d f8 00       	cmpq   $0x0,-0x8(%rbp)
    5911:	7e 1d                	jle    5930 <safe_mul_func_int64_t_s_s+0x34>
    5913:	48 83 7d f0 00       	cmpq   $0x0,-0x10(%rbp)
    5918:	7e 16                	jle    5930 <safe_mul_func_int64_t_s_s+0x34>
    591a:	48 b8 ff ff ff ff ff 	movabs $0x7fffffffffffffff,%rax
    5921:	ff ff 7f 
    5924:	48 99                	cqto   
    5926:	48 f7 7d f0          	idivq  -0x10(%rbp)
    592a:	48 39 45 f8          	cmp    %rax,-0x8(%rbp)
    592e:	7f 7e                	jg     59ae <safe_mul_func_int64_t_s_s+0xb2>
    5930:	48 83 7d f8 00       	cmpq   $0x0,-0x8(%rbp)
    5935:	7e 1d                	jle    5954 <safe_mul_func_int64_t_s_s+0x58>
    5937:	48 83 7d f0 00       	cmpq   $0x0,-0x10(%rbp)
    593c:	7f 16                	jg     5954 <safe_mul_func_int64_t_s_s+0x58>
    593e:	48 b8 00 00 00 00 00 	movabs $0x8000000000000000,%rax
    5945:	00 00 80 
    5948:	48 99                	cqto   
    594a:	48 f7 7d f8          	idivq  -0x8(%rbp)
    594e:	48 39 45 f0          	cmp    %rax,-0x10(%rbp)
    5952:	7c 5a                	jl     59ae <safe_mul_func_int64_t_s_s+0xb2>
    5954:	48 83 7d f8 00       	cmpq   $0x0,-0x8(%rbp)
    5959:	7f 1d                	jg     5978 <safe_mul_func_int64_t_s_s+0x7c>
    595b:	48 83 7d f0 00       	cmpq   $0x0,-0x10(%rbp)
    5960:	7e 16                	jle    5978 <safe_mul_func_int64_t_s_s+0x7c>
    5962:	48 b8 00 00 00 00 00 	movabs $0x8000000000000000,%rax
    5969:	00 00 80 
    596c:	48 99                	cqto   
    596e:	48 f7 7d f0          	idivq  -0x10(%rbp)
    5972:	48 39 45 f8          	cmp    %rax,-0x8(%rbp)
    5976:	7c 36                	jl     59ae <safe_mul_func_int64_t_s_s+0xb2>
    5978:	48 83 7d f8 00       	cmpq   $0x0,-0x8(%rbp)
    597d:	7f 24                	jg     59a3 <safe_mul_func_int64_t_s_s+0xa7>
    597f:	48 83 7d f0 00       	cmpq   $0x0,-0x10(%rbp)
    5984:	7f 1d                	jg     59a3 <safe_mul_func_int64_t_s_s+0xa7>
    5986:	48 83 7d f8 00       	cmpq   $0x0,-0x8(%rbp)
    598b:	74 16                	je     59a3 <safe_mul_func_int64_t_s_s+0xa7>
    598d:	48 b8 ff ff ff ff ff 	movabs $0x7fffffffffffffff,%rax
    5994:	ff ff 7f 
    5997:	48 99                	cqto   
    5999:	48 f7 7d f8          	idivq  -0x8(%rbp)
    599d:	48 39 45 f0          	cmp    %rax,-0x10(%rbp)
    59a1:	7c 0b                	jl     59ae <safe_mul_func_int64_t_s_s+0xb2>
    59a3:	48 8b 45 f8          	mov    -0x8(%rbp),%rax
    59a7:	48 0f af 45 f0       	imul   -0x10(%rbp),%rax
    59ac:	eb 04                	jmp    59b2 <safe_mul_func_int64_t_s_s+0xb6>
    59ae:	48 8b 45 f8          	mov    -0x8(%rbp),%rax
    59b2:	5d                   	pop    %rbp
    59b3:	c3                   	retq   

00000000000059b4 <safe_mod_func_int64_t_s_s>:
    59b4:	f3 0f 1e fa          	endbr64 
    59b8:	55                   	push   %rbp
    59b9:	48 89 e5             	mov    %rsp,%rbp
    59bc:	48 89 7d f8          	mov    %rdi,-0x8(%rbp)
    59c0:	48 89 75 f0          	mov    %rsi,-0x10(%rbp)
    59c4:	48 83 7d f0 00       	cmpq   $0x0,-0x10(%rbp)
    59c9:	74 26                	je     59f1 <safe_mod_func_int64_t_s_s+0x3d>
    59cb:	48 b8 00 00 00 00 00 	movabs $0x8000000000000000,%rax
    59d2:	00 00 80 
    59d5:	48 39 45 f8          	cmp    %rax,-0x8(%rbp)
    59d9:	75 07                	jne    59e2 <safe_mod_func_int64_t_s_s+0x2e>
    59db:	48 83 7d f0 ff       	cmpq   $0xffffffffffffffff,-0x10(%rbp)
    59e0:	74 0f                	je     59f1 <safe_mod_func_int64_t_s_s+0x3d>
    59e2:	48 8b 45 f8          	mov    -0x8(%rbp),%rax
    59e6:	48 99                	cqto   
    59e8:	48 f7 7d f0          	idivq  -0x10(%rbp)
    59ec:	48 89 d0             	mov    %rdx,%rax
    59ef:	eb 04                	jmp    59f5 <safe_mod_func_int64_t_s_s+0x41>
    59f1:	48 8b 45 f8          	mov    -0x8(%rbp),%rax
    59f5:	5d                   	pop    %rbp
    59f6:	c3                   	retq   

00000000000059f7 <safe_div_func_int64_t_s_s>:
    59f7:	f3 0f 1e fa          	endbr64 
    59fb:	55                   	push   %rbp
    59fc:	48 89 e5             	mov    %rsp,%rbp
    59ff:	48 89 7d f8          	mov    %rdi,-0x8(%rbp)
    5a03:	48 89 75 f0          	mov    %rsi,-0x10(%rbp)
    5a07:	48 83 7d f0 00       	cmpq   $0x0,-0x10(%rbp)
    5a0c:	74 23                	je     5a31 <safe_div_func_int64_t_s_s+0x3a>
    5a0e:	48 b8 00 00 00 00 00 	movabs $0x8000000000000000,%rax
    5a15:	00 00 80 
    5a18:	48 39 45 f8          	cmp    %rax,-0x8(%rbp)
    5a1c:	75 07                	jne    5a25 <safe_div_func_int64_t_s_s+0x2e>
    5a1e:	48 83 7d f0 ff       	cmpq   $0xffffffffffffffff,-0x10(%rbp)
    5a23:	74 0c                	je     5a31 <safe_div_func_int64_t_s_s+0x3a>
    5a25:	48 8b 45 f8          	mov    -0x8(%rbp),%rax
    5a29:	48 99                	cqto   
    5a2b:	48 f7 7d f0          	idivq  -0x10(%rbp)
    5a2f:	eb 04                	jmp    5a35 <safe_div_func_int64_t_s_s+0x3e>
    5a31:	48 8b 45 f8          	mov    -0x8(%rbp),%rax
    5a35:	5d                   	pop    %rbp
    5a36:	c3                   	retq   

0000000000005a37 <safe_lshift_func_int64_t_s_s>:
    5a37:	f3 0f 1e fa          	endbr64 
    5a3b:	55                   	push   %rbp
    5a3c:	48 89 e5             	mov    %rsp,%rbp
    5a3f:	48 89 7d f8          	mov    %rdi,-0x8(%rbp)
    5a43:	89 75 f4             	mov    %esi,-0xc(%rbp)
    5a46:	48 83 7d f8 00       	cmpq   $0x0,-0x8(%rbp)
    5a4b:	78 38                	js     5a85 <safe_lshift_func_int64_t_s_s+0x4e>
    5a4d:	83 7d f4 00          	cmpl   $0x0,-0xc(%rbp)
    5a51:	78 32                	js     5a85 <safe_lshift_func_int64_t_s_s+0x4e>
    5a53:	83 7d f4 1f          	cmpl   $0x1f,-0xc(%rbp)
    5a57:	7f 2c                	jg     5a85 <safe_lshift_func_int64_t_s_s+0x4e>
    5a59:	8b 45 f4             	mov    -0xc(%rbp),%eax
    5a5c:	48 ba ff ff ff ff ff 	movabs $0x7fffffffffffffff,%rdx
    5a63:	ff ff 7f 
    5a66:	89 c1                	mov    %eax,%ecx
    5a68:	48 d3 fa             	sar    %cl,%rdx
    5a6b:	48 89 d0             	mov    %rdx,%rax
    5a6e:	48 39 45 f8          	cmp    %rax,-0x8(%rbp)
    5a72:	7f 11                	jg     5a85 <safe_lshift_func_int64_t_s_s+0x4e>
    5a74:	8b 45 f4             	mov    -0xc(%rbp),%eax
    5a77:	48 8b 55 f8          	mov    -0x8(%rbp),%rdx
    5a7b:	89 c1                	mov    %eax,%ecx
    5a7d:	48 d3 e2             	shl    %cl,%rdx
    5a80:	48 89 d0             	mov    %rdx,%rax
    5a83:	eb 04                	jmp    5a89 <safe_lshift_func_int64_t_s_s+0x52>
    5a85:	48 8b 45 f8          	mov    -0x8(%rbp),%rax
    5a89:	5d                   	pop    %rbp
    5a8a:	c3                   	retq   

0000000000005a8b <safe_lshift_func_int64_t_s_u>:
    5a8b:	f3 0f 1e fa          	endbr64 
    5a8f:	55                   	push   %rbp
    5a90:	48 89 e5             	mov    %rsp,%rbp
    5a93:	48 89 7d f8          	mov    %rdi,-0x8(%rbp)
    5a97:	89 75 f4             	mov    %esi,-0xc(%rbp)
    5a9a:	48 83 7d f8 00       	cmpq   $0x0,-0x8(%rbp)
    5a9f:	78 32                	js     5ad3 <safe_lshift_func_int64_t_s_u+0x48>
    5aa1:	83 7d f4 1f          	cmpl   $0x1f,-0xc(%rbp)
    5aa5:	77 2c                	ja     5ad3 <safe_lshift_func_int64_t_s_u+0x48>
    5aa7:	8b 45 f4             	mov    -0xc(%rbp),%eax
    5aaa:	48 ba ff ff ff ff ff 	movabs $0x7fffffffffffffff,%rdx
    5ab1:	ff ff 7f 
    5ab4:	89 c1                	mov    %eax,%ecx
    5ab6:	48 d3 fa             	sar    %cl,%rdx
    5ab9:	48 89 d0             	mov    %rdx,%rax
    5abc:	48 39 45 f8          	cmp    %rax,-0x8(%rbp)
    5ac0:	7f 11                	jg     5ad3 <safe_lshift_func_int64_t_s_u+0x48>
    5ac2:	8b 45 f4             	mov    -0xc(%rbp),%eax
    5ac5:	48 8b 55 f8          	mov    -0x8(%rbp),%rdx
    5ac9:	89 c1                	mov    %eax,%ecx
    5acb:	48 d3 e2             	shl    %cl,%rdx
    5ace:	48 89 d0             	mov    %rdx,%rax
    5ad1:	eb 04                	jmp    5ad7 <safe_lshift_func_int64_t_s_u+0x4c>
    5ad3:	48 8b 45 f8          	mov    -0x8(%rbp),%rax
    5ad7:	5d                   	pop    %rbp
    5ad8:	c3                   	retq   

0000000000005ad9 <safe_rshift_func_int64_t_s_s>:
    5ad9:	f3 0f 1e fa          	endbr64 
    5add:	55                   	push   %rbp
    5ade:	48 89 e5             	mov    %rsp,%rbp
    5ae1:	48 89 7d f8          	mov    %rdi,-0x8(%rbp)
    5ae5:	89 75 f4             	mov    %esi,-0xc(%rbp)
    5ae8:	48 83 7d f8 00       	cmpq   $0x0,-0x8(%rbp)
    5aed:	78 1d                	js     5b0c <safe_rshift_func_int64_t_s_s+0x33>
    5aef:	83 7d f4 00          	cmpl   $0x0,-0xc(%rbp)
    5af3:	78 17                	js     5b0c <safe_rshift_func_int64_t_s_s+0x33>
    5af5:	83 7d f4 1f          	cmpl   $0x1f,-0xc(%rbp)
    5af9:	7f 11                	jg     5b0c <safe_rshift_func_int64_t_s_s+0x33>
    5afb:	8b 45 f4             	mov    -0xc(%rbp),%eax
    5afe:	48 8b 55 f8          	mov    -0x8(%rbp),%rdx
    5b02:	89 c1                	mov    %eax,%ecx
    5b04:	48 d3 fa             	sar    %cl,%rdx
    5b07:	48 89 d0             	mov    %rdx,%rax
    5b0a:	eb 04                	jmp    5b10 <safe_rshift_func_int64_t_s_s+0x37>
    5b0c:	48 8b 45 f8          	mov    -0x8(%rbp),%rax
    5b10:	5d                   	pop    %rbp
    5b11:	c3                   	retq   

0000000000005b12 <safe_rshift_func_int64_t_s_u>:
    5b12:	f3 0f 1e fa          	endbr64 
    5b16:	55                   	push   %rbp
    5b17:	48 89 e5             	mov    %rsp,%rbp
    5b1a:	48 89 7d f8          	mov    %rdi,-0x8(%rbp)
    5b1e:	89 75 f4             	mov    %esi,-0xc(%rbp)
    5b21:	48 83 7d f8 00       	cmpq   $0x0,-0x8(%rbp)
    5b26:	78 17                	js     5b3f <safe_rshift_func_int64_t_s_u+0x2d>
    5b28:	83 7d f4 1f          	cmpl   $0x1f,-0xc(%rbp)
    5b2c:	77 11                	ja     5b3f <safe_rshift_func_int64_t_s_u+0x2d>
    5b2e:	8b 45 f4             	mov    -0xc(%rbp),%eax
    5b31:	48 8b 55 f8          	mov    -0x8(%rbp),%rdx
    5b35:	89 c1                	mov    %eax,%ecx
    5b37:	48 d3 fa             	sar    %cl,%rdx
    5b3a:	48 89 d0             	mov    %rdx,%rax
    5b3d:	eb 04                	jmp    5b43 <safe_rshift_func_int64_t_s_u+0x31>
    5b3f:	48 8b 45 f8          	mov    -0x8(%rbp),%rax
    5b43:	5d                   	pop    %rbp
    5b44:	c3                   	retq   

0000000000005b45 <safe_unary_minus_func_uint8_t_u>:
    5b45:	f3 0f 1e fa          	endbr64 
    5b49:	55                   	push   %rbp
    5b4a:	48 89 e5             	mov    %rsp,%rbp
    5b4d:	89 f8                	mov    %edi,%eax
    5b4f:	88 45 fc             	mov    %al,-0x4(%rbp)
    5b52:	0f b6 45 fc          	movzbl -0x4(%rbp),%eax
    5b56:	f7 d8                	neg    %eax
    5b58:	5d                   	pop    %rbp
    5b59:	c3                   	retq   

0000000000005b5a <safe_add_func_uint8_t_u_u>:
    5b5a:	f3 0f 1e fa          	endbr64 
    5b5e:	55                   	push   %rbp
    5b5f:	48 89 e5             	mov    %rsp,%rbp
    5b62:	89 fa                	mov    %edi,%edx
    5b64:	89 f0                	mov    %esi,%eax
    5b66:	88 55 fc             	mov    %dl,-0x4(%rbp)
    5b69:	88 45 f8             	mov    %al,-0x8(%rbp)
    5b6c:	0f b6 55 fc          	movzbl -0x4(%rbp),%edx
    5b70:	0f b6 45 f8          	movzbl -0x8(%rbp),%eax
    5b74:	01 d0                	add    %edx,%eax
    5b76:	5d                   	pop    %rbp
    5b77:	c3                   	retq   

0000000000005b78 <safe_sub_func_uint8_t_u_u>:
    5b78:	f3 0f 1e fa          	endbr64 
    5b7c:	55                   	push   %rbp
    5b7d:	48 89 e5             	mov    %rsp,%rbp
    5b80:	89 fa                	mov    %edi,%edx
    5b82:	89 f0                	mov    %esi,%eax
    5b84:	88 55 fc             	mov    %dl,-0x4(%rbp)
    5b87:	88 45 f8             	mov    %al,-0x8(%rbp)
    5b8a:	0f b6 45 fc          	movzbl -0x4(%rbp),%eax
    5b8e:	2a 45 f8             	sub    -0x8(%rbp),%al
    5b91:	5d                   	pop    %rbp
    5b92:	c3                   	retq   

0000000000005b93 <safe_mul_func_uint8_t_u_u>:
    5b93:	f3 0f 1e fa          	endbr64 
    5b97:	55                   	push   %rbp
    5b98:	48 89 e5             	mov    %rsp,%rbp
    5b9b:	89 fa                	mov    %edi,%edx
    5b9d:	89 f0                	mov    %esi,%eax
    5b9f:	88 55 fc             	mov    %dl,-0x4(%rbp)
    5ba2:	88 45 f8             	mov    %al,-0x8(%rbp)
    5ba5:	0f b6 45 fc          	movzbl -0x4(%rbp),%eax
    5ba9:	f6 65 f8             	mulb   -0x8(%rbp)
    5bac:	5d                   	pop    %rbp
    5bad:	c3                   	retq   

0000000000005bae <safe_mod_func_uint8_t_u_u>:
    5bae:	f3 0f 1e fa          	endbr64 
    5bb2:	55                   	push   %rbp
    5bb3:	48 89 e5             	mov    %rsp,%rbp
    5bb6:	89 fa                	mov    %edi,%edx
    5bb8:	89 f0                	mov    %esi,%eax
    5bba:	88 55 fc             	mov    %dl,-0x4(%rbp)
    5bbd:	88 45 f8             	mov    %al,-0x8(%rbp)
    5bc0:	80 7d f8 00          	cmpb   $0x0,-0x8(%rbp)
    5bc4:	74 0f                	je     5bd5 <safe_mod_func_uint8_t_u_u+0x27>
    5bc6:	0f b6 45 fc          	movzbl -0x4(%rbp),%eax
    5bca:	0f b6 c0             	movzbl %al,%eax
    5bcd:	f6 75 f8             	divb   -0x8(%rbp)
    5bd0:	0f b6 c4             	movzbl %ah,%eax
    5bd3:	eb 04                	jmp    5bd9 <safe_mod_func_uint8_t_u_u+0x2b>
    5bd5:	0f b6 45 fc          	movzbl -0x4(%rbp),%eax
    5bd9:	5d                   	pop    %rbp
    5bda:	c3                   	retq   

0000000000005bdb <safe_div_func_uint8_t_u_u>:
    5bdb:	f3 0f 1e fa          	endbr64 
    5bdf:	55                   	push   %rbp
    5be0:	48 89 e5             	mov    %rsp,%rbp
    5be3:	89 fa                	mov    %edi,%edx
    5be5:	89 f0                	mov    %esi,%eax
    5be7:	88 55 fc             	mov    %dl,-0x4(%rbp)
    5bea:	88 45 f8             	mov    %al,-0x8(%rbp)
    5bed:	80 7d f8 00          	cmpb   $0x0,-0x8(%rbp)
    5bf1:	74 0c                	je     5bff <safe_div_func_uint8_t_u_u+0x24>
    5bf3:	0f b6 45 fc          	movzbl -0x4(%rbp),%eax
    5bf7:	0f b6 c0             	movzbl %al,%eax
    5bfa:	f6 75 f8             	divb   -0x8(%rbp)
    5bfd:	eb 04                	jmp    5c03 <safe_div_func_uint8_t_u_u+0x28>
    5bff:	0f b6 45 fc          	movzbl -0x4(%rbp),%eax
    5c03:	5d                   	pop    %rbp
    5c04:	c3                   	retq   

0000000000005c05 <safe_lshift_func_uint8_t_u_s>:
    5c05:	f3 0f 1e fa          	endbr64 
    5c09:	55                   	push   %rbp
    5c0a:	48 89 e5             	mov    %rsp,%rbp
    5c0d:	89 f8                	mov    %edi,%eax
    5c0f:	89 75 f8             	mov    %esi,-0x8(%rbp)
    5c12:	88 45 fc             	mov    %al,-0x4(%rbp)
    5c15:	83 7d f8 00          	cmpl   $0x0,-0x8(%rbp)
    5c19:	78 2b                	js     5c46 <safe_lshift_func_uint8_t_u_s+0x41>
    5c1b:	83 7d f8 1f          	cmpl   $0x1f,-0x8(%rbp)
    5c1f:	7f 25                	jg     5c46 <safe_lshift_func_uint8_t_u_s+0x41>
    5c21:	0f b6 55 fc          	movzbl -0x4(%rbp),%edx
    5c25:	8b 45 f8             	mov    -0x8(%rbp),%eax
    5c28:	be ff 00 00 00       	mov    $0xff,%esi
    5c2d:	89 c1                	mov    %eax,%ecx
    5c2f:	d3 fe                	sar    %cl,%esi
    5c31:	89 f0                	mov    %esi,%eax
    5c33:	39 c2                	cmp    %eax,%edx
    5c35:	7f 0f                	jg     5c46 <safe_lshift_func_uint8_t_u_s+0x41>
    5c37:	0f b6 55 fc          	movzbl -0x4(%rbp),%edx
    5c3b:	8b 45 f8             	mov    -0x8(%rbp),%eax
    5c3e:	89 c1                	mov    %eax,%ecx
    5c40:	d3 e2                	shl    %cl,%edx
    5c42:	89 d0                	mov    %edx,%eax
    5c44:	eb 04                	jmp    5c4a <safe_lshift_func_uint8_t_u_s+0x45>
    5c46:	0f b6 45 fc          	movzbl -0x4(%rbp),%eax
    5c4a:	5d                   	pop    %rbp
    5c4b:	c3                   	retq   

0000000000005c4c <safe_lshift_func_uint8_t_u_u>:
    5c4c:	f3 0f 1e fa          	endbr64 
    5c50:	55                   	push   %rbp
    5c51:	48 89 e5             	mov    %rsp,%rbp
    5c54:	89 f8                	mov    %edi,%eax
    5c56:	89 75 f8             	mov    %esi,-0x8(%rbp)
    5c59:	88 45 fc             	mov    %al,-0x4(%rbp)
    5c5c:	83 7d f8 1f          	cmpl   $0x1f,-0x8(%rbp)
    5c60:	77 25                	ja     5c87 <safe_lshift_func_uint8_t_u_u+0x3b>
    5c62:	0f b6 55 fc          	movzbl -0x4(%rbp),%edx
    5c66:	8b 45 f8             	mov    -0x8(%rbp),%eax
    5c69:	be ff 00 00 00       	mov    $0xff,%esi
    5c6e:	89 c1                	mov    %eax,%ecx
    5c70:	d3 fe                	sar    %cl,%esi
    5c72:	89 f0                	mov    %esi,%eax
    5c74:	39 c2                	cmp    %eax,%edx
    5c76:	7f 0f                	jg     5c87 <safe_lshift_func_uint8_t_u_u+0x3b>
    5c78:	0f b6 55 fc          	movzbl -0x4(%rbp),%edx
    5c7c:	8b 45 f8             	mov    -0x8(%rbp),%eax
    5c7f:	89 c1                	mov    %eax,%ecx
    5c81:	d3 e2                	shl    %cl,%edx
    5c83:	89 d0                	mov    %edx,%eax
    5c85:	eb 04                	jmp    5c8b <safe_lshift_func_uint8_t_u_u+0x3f>
    5c87:	0f b6 45 fc          	movzbl -0x4(%rbp),%eax
    5c8b:	5d                   	pop    %rbp
    5c8c:	c3                   	retq   

0000000000005c8d <safe_rshift_func_uint8_t_u_s>:
    5c8d:	f3 0f 1e fa          	endbr64 
    5c91:	55                   	push   %rbp
    5c92:	48 89 e5             	mov    %rsp,%rbp
    5c95:	89 f8                	mov    %edi,%eax
    5c97:	89 75 f8             	mov    %esi,-0x8(%rbp)
    5c9a:	88 45 fc             	mov    %al,-0x4(%rbp)
    5c9d:	83 7d f8 00          	cmpl   $0x0,-0x8(%rbp)
    5ca1:	78 15                	js     5cb8 <safe_rshift_func_uint8_t_u_s+0x2b>
    5ca3:	83 7d f8 1f          	cmpl   $0x1f,-0x8(%rbp)
    5ca7:	7f 0f                	jg     5cb8 <safe_rshift_func_uint8_t_u_s+0x2b>
    5ca9:	0f b6 55 fc          	movzbl -0x4(%rbp),%edx
    5cad:	8b 45 f8             	mov    -0x8(%rbp),%eax
    5cb0:	89 c1                	mov    %eax,%ecx
    5cb2:	d3 fa                	sar    %cl,%edx
    5cb4:	89 d0                	mov    %edx,%eax
    5cb6:	eb 04                	jmp    5cbc <safe_rshift_func_uint8_t_u_s+0x2f>
    5cb8:	0f b6 45 fc          	movzbl -0x4(%rbp),%eax
    5cbc:	5d                   	pop    %rbp
    5cbd:	c3                   	retq   

0000000000005cbe <safe_rshift_func_uint8_t_u_u>:
    5cbe:	f3 0f 1e fa          	endbr64 
    5cc2:	55                   	push   %rbp
    5cc3:	48 89 e5             	mov    %rsp,%rbp
    5cc6:	89 f8                	mov    %edi,%eax
    5cc8:	89 75 f8             	mov    %esi,-0x8(%rbp)
    5ccb:	88 45 fc             	mov    %al,-0x4(%rbp)
    5cce:	83 7d f8 1f          	cmpl   $0x1f,-0x8(%rbp)
    5cd2:	77 0f                	ja     5ce3 <safe_rshift_func_uint8_t_u_u+0x25>
    5cd4:	0f b6 55 fc          	movzbl -0x4(%rbp),%edx
    5cd8:	8b 45 f8             	mov    -0x8(%rbp),%eax
    5cdb:	89 c1                	mov    %eax,%ecx
    5cdd:	d3 fa                	sar    %cl,%edx
    5cdf:	89 d0                	mov    %edx,%eax
    5ce1:	eb 04                	jmp    5ce7 <safe_rshift_func_uint8_t_u_u+0x29>
    5ce3:	0f b6 45 fc          	movzbl -0x4(%rbp),%eax
    5ce7:	5d                   	pop    %rbp
    5ce8:	c3                   	retq   

0000000000005ce9 <safe_unary_minus_func_uint16_t_u>:
    5ce9:	f3 0f 1e fa          	endbr64 
    5ced:	55                   	push   %rbp
    5cee:	48 89 e5             	mov    %rsp,%rbp
    5cf1:	89 f8                	mov    %edi,%eax
    5cf3:	66 89 45 fc          	mov    %ax,-0x4(%rbp)
    5cf7:	0f b7 45 fc          	movzwl -0x4(%rbp),%eax
    5cfb:	f7 d8                	neg    %eax
    5cfd:	5d                   	pop    %rbp
    5cfe:	c3                   	retq   

0000000000005cff <safe_add_func_uint16_t_u_u>:
    5cff:	f3 0f 1e fa          	endbr64 
    5d03:	55                   	push   %rbp
    5d04:	48 89 e5             	mov    %rsp,%rbp
    5d07:	89 fa                	mov    %edi,%edx
    5d09:	89 f0                	mov    %esi,%eax
    5d0b:	66 89 55 fc          	mov    %dx,-0x4(%rbp)
    5d0f:	66 89 45 f8          	mov    %ax,-0x8(%rbp)
    5d13:	0f b7 55 fc          	movzwl -0x4(%rbp),%edx
    5d17:	0f b7 45 f8          	movzwl -0x8(%rbp),%eax
    5d1b:	01 d0                	add    %edx,%eax
    5d1d:	5d                   	pop    %rbp
    5d1e:	c3                   	retq   

0000000000005d1f <safe_sub_func_uint16_t_u_u>:
    5d1f:	f3 0f 1e fa          	endbr64 
    5d23:	55                   	push   %rbp
    5d24:	48 89 e5             	mov    %rsp,%rbp
    5d27:	89 fa                	mov    %edi,%edx
    5d29:	89 f0                	mov    %esi,%eax
    5d2b:	66 89 55 fc          	mov    %dx,-0x4(%rbp)
    5d2f:	66 89 45 f8          	mov    %ax,-0x8(%rbp)
    5d33:	0f b7 45 fc          	movzwl -0x4(%rbp),%eax
    5d37:	66 2b 45 f8          	sub    -0x8(%rbp),%ax
    5d3b:	5d                   	pop    %rbp
    5d3c:	c3                   	retq   

0000000000005d3d <safe_mul_func_uint16_t_u_u>:
    5d3d:	f3 0f 1e fa          	endbr64 
    5d41:	55                   	push   %rbp
    5d42:	48 89 e5             	mov    %rsp,%rbp
    5d45:	89 fa                	mov    %edi,%edx
    5d47:	89 f0                	mov    %esi,%eax
    5d49:	66 89 55 fc          	mov    %dx,-0x4(%rbp)
    5d4d:	66 89 45 f8          	mov    %ax,-0x8(%rbp)
    5d51:	0f b7 45 fc          	movzwl -0x4(%rbp),%eax
    5d55:	66 0f af 45 f8       	imul   -0x8(%rbp),%ax
    5d5a:	5d                   	pop    %rbp
    5d5b:	c3                   	retq   

0000000000005d5c <safe_mod_func_uint16_t_u_u>:
    5d5c:	f3 0f 1e fa          	endbr64 
    5d60:	55                   	push   %rbp
    5d61:	48 89 e5             	mov    %rsp,%rbp
    5d64:	89 fa                	mov    %edi,%edx
    5d66:	89 f0                	mov    %esi,%eax
    5d68:	66 89 55 fc          	mov    %dx,-0x4(%rbp)
    5d6c:	66 89 45 f8          	mov    %ax,-0x8(%rbp)
    5d70:	66 83 7d f8 00       	cmpw   $0x0,-0x8(%rbp)
    5d75:	74 11                	je     5d88 <safe_mod_func_uint16_t_u_u+0x2c>
    5d77:	0f b7 45 fc          	movzwl -0x4(%rbp),%eax
    5d7b:	ba 00 00 00 00       	mov    $0x0,%edx
    5d80:	66 f7 75 f8          	divw   -0x8(%rbp)
    5d84:	89 d0                	mov    %edx,%eax
    5d86:	eb 04                	jmp    5d8c <safe_mod_func_uint16_t_u_u+0x30>
    5d88:	0f b7 45 fc          	movzwl -0x4(%rbp),%eax
    5d8c:	5d                   	pop    %rbp
    5d8d:	c3                   	retq   

0000000000005d8e <safe_div_func_uint16_t_u_u>:
    5d8e:	f3 0f 1e fa          	endbr64 
    5d92:	55                   	push   %rbp
    5d93:	48 89 e5             	mov    %rsp,%rbp
    5d96:	89 fa                	mov    %edi,%edx
    5d98:	89 f0                	mov    %esi,%eax
    5d9a:	66 89 55 fc          	mov    %dx,-0x4(%rbp)
    5d9e:	66 89 45 f8          	mov    %ax,-0x8(%rbp)
    5da2:	66 83 7d f8 00       	cmpw   $0x0,-0x8(%rbp)
    5da7:	74 0f                	je     5db8 <safe_div_func_uint16_t_u_u+0x2a>
    5da9:	0f b7 45 fc          	movzwl -0x4(%rbp),%eax
    5dad:	ba 00 00 00 00       	mov    $0x0,%edx
    5db2:	66 f7 75 f8          	divw   -0x8(%rbp)
    5db6:	eb 04                	jmp    5dbc <safe_div_func_uint16_t_u_u+0x2e>
    5db8:	0f b7 45 fc          	movzwl -0x4(%rbp),%eax
    5dbc:	5d                   	pop    %rbp
    5dbd:	c3                   	retq   

0000000000005dbe <safe_lshift_func_uint16_t_u_s>:
    5dbe:	f3 0f 1e fa          	endbr64 
    5dc2:	55                   	push   %rbp
    5dc3:	48 89 e5             	mov    %rsp,%rbp
    5dc6:	89 f8                	mov    %edi,%eax
    5dc8:	89 75 f8             	mov    %esi,-0x8(%rbp)
    5dcb:	66 89 45 fc          	mov    %ax,-0x4(%rbp)
    5dcf:	83 7d f8 00          	cmpl   $0x0,-0x8(%rbp)
    5dd3:	78 2b                	js     5e00 <safe_lshift_func_uint16_t_u_s+0x42>
    5dd5:	83 7d f8 1f          	cmpl   $0x1f,-0x8(%rbp)
    5dd9:	7f 25                	jg     5e00 <safe_lshift_func_uint16_t_u_s+0x42>
    5ddb:	0f b7 55 fc          	movzwl -0x4(%rbp),%edx
    5ddf:	8b 45 f8             	mov    -0x8(%rbp),%eax
    5de2:	be ff ff 00 00       	mov    $0xffff,%esi
    5de7:	89 c1                	mov    %eax,%ecx
    5de9:	d3 fe                	sar    %cl,%esi
    5deb:	89 f0                	mov    %esi,%eax
    5ded:	39 c2                	cmp    %eax,%edx
    5def:	7f 0f                	jg     5e00 <safe_lshift_func_uint16_t_u_s+0x42>
    5df1:	0f b7 55 fc          	movzwl -0x4(%rbp),%edx
    5df5:	8b 45 f8             	mov    -0x8(%rbp),%eax
    5df8:	89 c1                	mov    %eax,%ecx
    5dfa:	d3 e2                	shl    %cl,%edx
    5dfc:	89 d0                	mov    %edx,%eax
    5dfe:	eb 04                	jmp    5e04 <safe_lshift_func_uint16_t_u_s+0x46>
    5e00:	0f b7 45 fc          	movzwl -0x4(%rbp),%eax
    5e04:	5d                   	pop    %rbp
    5e05:	c3                   	retq   

0000000000005e06 <safe_lshift_func_uint16_t_u_u>:
    5e06:	f3 0f 1e fa          	endbr64 
    5e0a:	55                   	push   %rbp
    5e0b:	48 89 e5             	mov    %rsp,%rbp
    5e0e:	89 f8                	mov    %edi,%eax
    5e10:	89 75 f8             	mov    %esi,-0x8(%rbp)
    5e13:	66 89 45 fc          	mov    %ax,-0x4(%rbp)
    5e17:	83 7d f8 1f          	cmpl   $0x1f,-0x8(%rbp)
    5e1b:	77 25                	ja     5e42 <safe_lshift_func_uint16_t_u_u+0x3c>
    5e1d:	0f b7 55 fc          	movzwl -0x4(%rbp),%edx
    5e21:	8b 45 f8             	mov    -0x8(%rbp),%eax
    5e24:	be ff ff 00 00       	mov    $0xffff,%esi
    5e29:	89 c1                	mov    %eax,%ecx
    5e2b:	d3 fe                	sar    %cl,%esi
    5e2d:	89 f0                	mov    %esi,%eax
    5e2f:	39 c2                	cmp    %eax,%edx
    5e31:	7f 0f                	jg     5e42 <safe_lshift_func_uint16_t_u_u+0x3c>
    5e33:	0f b7 55 fc          	movzwl -0x4(%rbp),%edx
    5e37:	8b 45 f8             	mov    -0x8(%rbp),%eax
    5e3a:	89 c1                	mov    %eax,%ecx
    5e3c:	d3 e2                	shl    %cl,%edx
    5e3e:	89 d0                	mov    %edx,%eax
    5e40:	eb 04                	jmp    5e46 <safe_lshift_func_uint16_t_u_u+0x40>
    5e42:	0f b7 45 fc          	movzwl -0x4(%rbp),%eax
    5e46:	5d                   	pop    %rbp
    5e47:	c3                   	retq   

0000000000005e48 <safe_rshift_func_uint16_t_u_s>:
    5e48:	f3 0f 1e fa          	endbr64 
    5e4c:	55                   	push   %rbp
    5e4d:	48 89 e5             	mov    %rsp,%rbp
    5e50:	89 f8                	mov    %edi,%eax
    5e52:	89 75 f8             	mov    %esi,-0x8(%rbp)
    5e55:	66 89 45 fc          	mov    %ax,-0x4(%rbp)
    5e59:	83 7d f8 00          	cmpl   $0x0,-0x8(%rbp)
    5e5d:	78 15                	js     5e74 <safe_rshift_func_uint16_t_u_s+0x2c>
    5e5f:	83 7d f8 1f          	cmpl   $0x1f,-0x8(%rbp)
    5e63:	7f 0f                	jg     5e74 <safe_rshift_func_uint16_t_u_s+0x2c>
    5e65:	0f b7 55 fc          	movzwl -0x4(%rbp),%edx
    5e69:	8b 45 f8             	mov    -0x8(%rbp),%eax
    5e6c:	89 c1                	mov    %eax,%ecx
    5e6e:	d3 fa                	sar    %cl,%edx
    5e70:	89 d0                	mov    %edx,%eax
    5e72:	eb 04                	jmp    5e78 <safe_rshift_func_uint16_t_u_s+0x30>
    5e74:	0f b7 45 fc          	movzwl -0x4(%rbp),%eax
    5e78:	5d                   	pop    %rbp
    5e79:	c3                   	retq   

0000000000005e7a <safe_rshift_func_uint16_t_u_u>:
    5e7a:	f3 0f 1e fa          	endbr64 
    5e7e:	55                   	push   %rbp
    5e7f:	48 89 e5             	mov    %rsp,%rbp
    5e82:	89 f8                	mov    %edi,%eax
    5e84:	89 75 f8             	mov    %esi,-0x8(%rbp)
    5e87:	66 89 45 fc          	mov    %ax,-0x4(%rbp)
    5e8b:	83 7d f8 1f          	cmpl   $0x1f,-0x8(%rbp)
    5e8f:	77 0f                	ja     5ea0 <safe_rshift_func_uint16_t_u_u+0x26>
    5e91:	0f b7 55 fc          	movzwl -0x4(%rbp),%edx
    5e95:	8b 45 f8             	mov    -0x8(%rbp),%eax
    5e98:	89 c1                	mov    %eax,%ecx
    5e9a:	d3 fa                	sar    %cl,%edx
    5e9c:	89 d0                	mov    %edx,%eax
    5e9e:	eb 04                	jmp    5ea4 <safe_rshift_func_uint16_t_u_u+0x2a>
    5ea0:	0f b7 45 fc          	movzwl -0x4(%rbp),%eax
    5ea4:	5d                   	pop    %rbp
    5ea5:	c3                   	retq   

0000000000005ea6 <safe_unary_minus_func_uint32_t_u>:
    5ea6:	f3 0f 1e fa          	endbr64 
    5eaa:	55                   	push   %rbp
    5eab:	48 89 e5             	mov    %rsp,%rbp
    5eae:	89 7d fc             	mov    %edi,-0x4(%rbp)
    5eb1:	8b 45 fc             	mov    -0x4(%rbp),%eax
    5eb4:	f7 d8                	neg    %eax
    5eb6:	5d                   	pop    %rbp
    5eb7:	c3                   	retq   

0000000000005eb8 <safe_add_func_uint32_t_u_u>:
    5eb8:	f3 0f 1e fa          	endbr64 
    5ebc:	55                   	push   %rbp
    5ebd:	48 89 e5             	mov    %rsp,%rbp
    5ec0:	89 7d fc             	mov    %edi,-0x4(%rbp)
    5ec3:	89 75 f8             	mov    %esi,-0x8(%rbp)
    5ec6:	8b 55 fc             	mov    -0x4(%rbp),%edx
    5ec9:	8b 45 f8             	mov    -0x8(%rbp),%eax
    5ecc:	01 d0                	add    %edx,%eax
    5ece:	5d                   	pop    %rbp
    5ecf:	c3                   	retq   

0000000000005ed0 <safe_sub_func_uint32_t_u_u>:
    5ed0:	f3 0f 1e fa          	endbr64 
    5ed4:	55                   	push   %rbp
    5ed5:	48 89 e5             	mov    %rsp,%rbp
    5ed8:	89 7d fc             	mov    %edi,-0x4(%rbp)
    5edb:	89 75 f8             	mov    %esi,-0x8(%rbp)
    5ede:	8b 45 fc             	mov    -0x4(%rbp),%eax
    5ee1:	2b 45 f8             	sub    -0x8(%rbp),%eax
    5ee4:	5d                   	pop    %rbp
    5ee5:	c3                   	retq   

0000000000005ee6 <safe_mul_func_uint32_t_u_u>:
    5ee6:	f3 0f 1e fa          	endbr64 
    5eea:	55                   	push   %rbp
    5eeb:	48 89 e5             	mov    %rsp,%rbp
    5eee:	89 7d fc             	mov    %edi,-0x4(%rbp)
    5ef1:	89 75 f8             	mov    %esi,-0x8(%rbp)
    5ef4:	8b 45 fc             	mov    -0x4(%rbp),%eax
    5ef7:	0f af 45 f8          	imul   -0x8(%rbp),%eax
    5efb:	5d                   	pop    %rbp
    5efc:	c3                   	retq   

0000000000005efd <safe_mod_func_uint32_t_u_u>:
    5efd:	f3 0f 1e fa          	endbr64 
    5f01:	55                   	push   %rbp
    5f02:	48 89 e5             	mov    %rsp,%rbp
    5f05:	89 7d fc             	mov    %edi,-0x4(%rbp)
    5f08:	89 75 f8             	mov    %esi,-0x8(%rbp)
    5f0b:	83 7d f8 00          	cmpl   $0x0,-0x8(%rbp)
    5f0f:	74 0f                	je     5f20 <safe_mod_func_uint32_t_u_u+0x23>
    5f11:	8b 45 fc             	mov    -0x4(%rbp),%eax
    5f14:	ba 00 00 00 00       	mov    $0x0,%edx
    5f19:	f7 75 f8             	divl   -0x8(%rbp)
    5f1c:	89 d0                	mov    %edx,%eax
    5f1e:	eb 03                	jmp    5f23 <safe_mod_func_uint32_t_u_u+0x26>
    5f20:	8b 45 fc             	mov    -0x4(%rbp),%eax
    5f23:	5d                   	pop    %rbp
    5f24:	c3                   	retq   

0000000000005f25 <safe_div_func_uint32_t_u_u>:
    5f25:	f3 0f 1e fa          	endbr64 
    5f29:	55                   	push   %rbp
    5f2a:	48 89 e5             	mov    %rsp,%rbp
    5f2d:	89 7d fc             	mov    %edi,-0x4(%rbp)
    5f30:	89 75 f8             	mov    %esi,-0x8(%rbp)
    5f33:	83 7d f8 00          	cmpl   $0x0,-0x8(%rbp)
    5f37:	74 0d                	je     5f46 <safe_div_func_uint32_t_u_u+0x21>
    5f39:	8b 45 fc             	mov    -0x4(%rbp),%eax
    5f3c:	ba 00 00 00 00       	mov    $0x0,%edx
    5f41:	f7 75 f8             	divl   -0x8(%rbp)
    5f44:	eb 03                	jmp    5f49 <safe_div_func_uint32_t_u_u+0x24>
    5f46:	8b 45 fc             	mov    -0x4(%rbp),%eax
    5f49:	5d                   	pop    %rbp
    5f4a:	c3                   	retq   

0000000000005f4b <safe_lshift_func_uint32_t_u_s>:
    5f4b:	f3 0f 1e fa          	endbr64 
    5f4f:	55                   	push   %rbp
    5f50:	48 89 e5             	mov    %rsp,%rbp
    5f53:	89 7d fc             	mov    %edi,-0x4(%rbp)
    5f56:	89 75 f8             	mov    %esi,-0x8(%rbp)
    5f59:	83 7d f8 00          	cmpl   $0x0,-0x8(%rbp)
    5f5d:	78 27                	js     5f86 <safe_lshift_func_uint32_t_u_s+0x3b>
    5f5f:	83 7d f8 1f          	cmpl   $0x1f,-0x8(%rbp)
    5f63:	7f 21                	jg     5f86 <safe_lshift_func_uint32_t_u_s+0x3b>
    5f65:	8b 45 f8             	mov    -0x8(%rbp),%eax
    5f68:	ba ff ff ff ff       	mov    $0xffffffff,%edx
    5f6d:	89 c1                	mov    %eax,%ecx
    5f6f:	d3 ea                	shr    %cl,%edx
    5f71:	89 d0                	mov    %edx,%eax
    5f73:	39 45 fc             	cmp    %eax,-0x4(%rbp)
    5f76:	77 0e                	ja     5f86 <safe_lshift_func_uint32_t_u_s+0x3b>
    5f78:	8b 45 f8             	mov    -0x8(%rbp),%eax
    5f7b:	8b 55 fc             	mov    -0x4(%rbp),%edx
    5f7e:	89 c1                	mov    %eax,%ecx
    5f80:	d3 e2                	shl    %cl,%edx
    5f82:	89 d0                	mov    %edx,%eax
    5f84:	eb 03                	jmp    5f89 <safe_lshift_func_uint32_t_u_s+0x3e>
    5f86:	8b 45 fc             	mov    -0x4(%rbp),%eax
    5f89:	5d                   	pop    %rbp
    5f8a:	c3                   	retq   

0000000000005f8b <safe_lshift_func_uint32_t_u_u>:
    5f8b:	f3 0f 1e fa          	endbr64 
    5f8f:	55                   	push   %rbp
    5f90:	48 89 e5             	mov    %rsp,%rbp
    5f93:	89 7d fc             	mov    %edi,-0x4(%rbp)
    5f96:	89 75 f8             	mov    %esi,-0x8(%rbp)
    5f99:	83 7d f8 1f          	cmpl   $0x1f,-0x8(%rbp)
    5f9d:	77 21                	ja     5fc0 <safe_lshift_func_uint32_t_u_u+0x35>
    5f9f:	8b 45 f8             	mov    -0x8(%rbp),%eax
    5fa2:	ba ff ff ff ff       	mov    $0xffffffff,%edx
    5fa7:	89 c1                	mov    %eax,%ecx
    5fa9:	d3 ea                	shr    %cl,%edx
    5fab:	89 d0                	mov    %edx,%eax
    5fad:	39 45 fc             	cmp    %eax,-0x4(%rbp)
    5fb0:	77 0e                	ja     5fc0 <safe_lshift_func_uint32_t_u_u+0x35>
    5fb2:	8b 45 f8             	mov    -0x8(%rbp),%eax
    5fb5:	8b 55 fc             	mov    -0x4(%rbp),%edx
    5fb8:	89 c1                	mov    %eax,%ecx
    5fba:	d3 e2                	shl    %cl,%edx
    5fbc:	89 d0                	mov    %edx,%eax
    5fbe:	eb 03                	jmp    5fc3 <safe_lshift_func_uint32_t_u_u+0x38>
    5fc0:	8b 45 fc             	mov    -0x4(%rbp),%eax
    5fc3:	5d                   	pop    %rbp
    5fc4:	c3                   	retq   

0000000000005fc5 <safe_rshift_func_uint32_t_u_s>:
    5fc5:	f3 0f 1e fa          	endbr64 
    5fc9:	55                   	push   %rbp
    5fca:	48 89 e5             	mov    %rsp,%rbp
    5fcd:	89 7d fc             	mov    %edi,-0x4(%rbp)
    5fd0:	89 75 f8             	mov    %esi,-0x8(%rbp)
    5fd3:	83 7d f8 00          	cmpl   $0x0,-0x8(%rbp)
    5fd7:	78 14                	js     5fed <safe_rshift_func_uint32_t_u_s+0x28>
    5fd9:	83 7d f8 1f          	cmpl   $0x1f,-0x8(%rbp)
    5fdd:	7f 0e                	jg     5fed <safe_rshift_func_uint32_t_u_s+0x28>
    5fdf:	8b 45 f8             	mov    -0x8(%rbp),%eax
    5fe2:	8b 55 fc             	mov    -0x4(%rbp),%edx
    5fe5:	89 c1                	mov    %eax,%ecx
    5fe7:	d3 ea                	shr    %cl,%edx
    5fe9:	89 d0                	mov    %edx,%eax
    5feb:	eb 03                	jmp    5ff0 <safe_rshift_func_uint32_t_u_s+0x2b>
    5fed:	8b 45 fc             	mov    -0x4(%rbp),%eax
    5ff0:	5d                   	pop    %rbp
    5ff1:	c3                   	retq   

0000000000005ff2 <safe_rshift_func_uint32_t_u_u>:
    5ff2:	f3 0f 1e fa          	endbr64 
    5ff6:	55                   	push   %rbp
    5ff7:	48 89 e5             	mov    %rsp,%rbp
    5ffa:	89 7d fc             	mov    %edi,-0x4(%rbp)
    5ffd:	89 75 f8             	mov    %esi,-0x8(%rbp)
    6000:	83 7d f8 1f          	cmpl   $0x1f,-0x8(%rbp)
    6004:	77 0e                	ja     6014 <safe_rshift_func_uint32_t_u_u+0x22>
    6006:	8b 45 f8             	mov    -0x8(%rbp),%eax
    6009:	8b 55 fc             	mov    -0x4(%rbp),%edx
    600c:	89 c1                	mov    %eax,%ecx
    600e:	d3 ea                	shr    %cl,%edx
    6010:	89 d0                	mov    %edx,%eax
    6012:	eb 03                	jmp    6017 <safe_rshift_func_uint32_t_u_u+0x25>
    6014:	8b 45 fc             	mov    -0x4(%rbp),%eax
    6017:	5d                   	pop    %rbp
    6018:	c3                   	retq   

0000000000006019 <safe_unary_minus_func_uint64_t_u>:
    6019:	f3 0f 1e fa          	endbr64 
    601d:	55                   	push   %rbp
    601e:	48 89 e5             	mov    %rsp,%rbp
    6021:	48 89 7d f8          	mov    %rdi,-0x8(%rbp)
    6025:	48 8b 45 f8          	mov    -0x8(%rbp),%rax
    6029:	48 f7 d8             	neg    %rax
    602c:	5d                   	pop    %rbp
    602d:	c3                   	retq   

000000000000602e <safe_add_func_uint64_t_u_u>:
    602e:	f3 0f 1e fa          	endbr64 
    6032:	55                   	push   %rbp
    6033:	48 89 e5             	mov    %rsp,%rbp
    6036:	48 89 7d f8          	mov    %rdi,-0x8(%rbp)
    603a:	48 89 75 f0          	mov    %rsi,-0x10(%rbp)
    603e:	48 8b 55 f8          	mov    -0x8(%rbp),%rdx
    6042:	48 8b 45 f0          	mov    -0x10(%rbp),%rax
    6046:	48 01 d0             	add    %rdx,%rax
    6049:	5d                   	pop    %rbp
    604a:	c3                   	retq   

000000000000604b <safe_sub_func_uint64_t_u_u>:
    604b:	f3 0f 1e fa          	endbr64 
    604f:	55                   	push   %rbp
    6050:	48 89 e5             	mov    %rsp,%rbp
    6053:	48 89 7d f8          	mov    %rdi,-0x8(%rbp)
    6057:	48 89 75 f0          	mov    %rsi,-0x10(%rbp)
    605b:	48 8b 45 f8          	mov    -0x8(%rbp),%rax
    605f:	48 2b 45 f0          	sub    -0x10(%rbp),%rax
    6063:	5d                   	pop    %rbp
    6064:	c3                   	retq   

0000000000006065 <safe_mul_func_uint64_t_u_u>:
    6065:	f3 0f 1e fa          	endbr64 
    6069:	55                   	push   %rbp
    606a:	48 89 e5             	mov    %rsp,%rbp
    606d:	48 89 7d f8          	mov    %rdi,-0x8(%rbp)
    6071:	48 89 75 f0          	mov    %rsi,-0x10(%rbp)
    6075:	48 8b 45 f8          	mov    -0x8(%rbp),%rax
    6079:	48 0f af 45 f0       	imul   -0x10(%rbp),%rax
    607e:	5d                   	pop    %rbp
    607f:	c3                   	retq   

0000000000006080 <safe_mod_func_uint64_t_u_u>:
    6080:	f3 0f 1e fa          	endbr64 
    6084:	55                   	push   %rbp
    6085:	48 89 e5             	mov    %rsp,%rbp
    6088:	48 89 7d f8          	mov    %rdi,-0x8(%rbp)
    608c:	48 89 75 f0          	mov    %rsi,-0x10(%rbp)
    6090:	48 83 7d f0 00       	cmpq   $0x0,-0x10(%rbp)
    6095:	74 12                	je     60a9 <safe_mod_func_uint64_t_u_u+0x29>
    6097:	48 8b 45 f8          	mov    -0x8(%rbp),%rax
    609b:	ba 00 00 00 00       	mov    $0x0,%edx
    60a0:	48 f7 75 f0          	divq   -0x10(%rbp)
    60a4:	48 89 d0             	mov    %rdx,%rax
    60a7:	eb 04                	jmp    60ad <safe_mod_func_uint64_t_u_u+0x2d>
    60a9:	48 8b 45 f8          	mov    -0x8(%rbp),%rax
    60ad:	5d                   	pop    %rbp
    60ae:	c3                   	retq   

00000000000060af <safe_div_func_uint64_t_u_u>:
    60af:	f3 0f 1e fa          	endbr64 
    60b3:	55                   	push   %rbp
    60b4:	48 89 e5             	mov    %rsp,%rbp
    60b7:	48 89 7d f8          	mov    %rdi,-0x8(%rbp)
    60bb:	48 89 75 f0          	mov    %rsi,-0x10(%rbp)
    60bf:	48 83 7d f0 00       	cmpq   $0x0,-0x10(%rbp)
    60c4:	74 0f                	je     60d5 <safe_div_func_uint64_t_u_u+0x26>
    60c6:	48 8b 45 f8          	mov    -0x8(%rbp),%rax
    60ca:	ba 00 00 00 00       	mov    $0x0,%edx
    60cf:	48 f7 75 f0          	divq   -0x10(%rbp)
    60d3:	eb 04                	jmp    60d9 <safe_div_func_uint64_t_u_u+0x2a>
    60d5:	48 8b 45 f8          	mov    -0x8(%rbp),%rax
    60d9:	5d                   	pop    %rbp
    60da:	c3                   	retq   

00000000000060db <safe_lshift_func_uint64_t_u_s>:
    60db:	f3 0f 1e fa          	endbr64 
    60df:	55                   	push   %rbp
    60e0:	48 89 e5             	mov    %rsp,%rbp
    60e3:	48 89 7d f8          	mov    %rdi,-0x8(%rbp)
    60e7:	89 75 f4             	mov    %esi,-0xc(%rbp)
    60ea:	83 7d f4 00          	cmpl   $0x0,-0xc(%rbp)
    60ee:	78 2f                	js     611f <safe_lshift_func_uint64_t_u_s+0x44>
    60f0:	83 7d f4 1f          	cmpl   $0x1f,-0xc(%rbp)
    60f4:	7f 29                	jg     611f <safe_lshift_func_uint64_t_u_s+0x44>
    60f6:	8b 45 f4             	mov    -0xc(%rbp),%eax
    60f9:	48 c7 c2 ff ff ff ff 	mov    $0xffffffffffffffff,%rdx
    6100:	89 c1                	mov    %eax,%ecx
    6102:	48 d3 ea             	shr    %cl,%rdx
    6105:	48 89 d0             	mov    %rdx,%rax
    6108:	48 39 45 f8          	cmp    %rax,-0x8(%rbp)
    610c:	77 11                	ja     611f <safe_lshift_func_uint64_t_u_s+0x44>
    610e:	8b 45 f4             	mov    -0xc(%rbp),%eax
    6111:	48 8b 55 f8          	mov    -0x8(%rbp),%rdx
    6115:	89 c1                	mov    %eax,%ecx
    6117:	48 d3 e2             	shl    %cl,%rdx
    611a:	48 89 d0             	mov    %rdx,%rax
    611d:	eb 04                	jmp    6123 <safe_lshift_func_uint64_t_u_s+0x48>
    611f:	48 8b 45 f8          	mov    -0x8(%rbp),%rax
    6123:	5d                   	pop    %rbp
    6124:	c3                   	retq   

0000000000006125 <safe_lshift_func_uint64_t_u_u>:
    6125:	f3 0f 1e fa          	endbr64 
    6129:	55                   	push   %rbp
    612a:	48 89 e5             	mov    %rsp,%rbp
    612d:	48 89 7d f8          	mov    %rdi,-0x8(%rbp)
    6131:	89 75 f4             	mov    %esi,-0xc(%rbp)
    6134:	83 7d f4 1f          	cmpl   $0x1f,-0xc(%rbp)
    6138:	77 29                	ja     6163 <safe_lshift_func_uint64_t_u_u+0x3e>
    613a:	8b 45 f4             	mov    -0xc(%rbp),%eax
    613d:	48 c7 c2 ff ff ff ff 	mov    $0xffffffffffffffff,%rdx
    6144:	89 c1                	mov    %eax,%ecx
    6146:	48 d3 ea             	shr    %cl,%rdx
    6149:	48 89 d0             	mov    %rdx,%rax
    614c:	48 39 45 f8          	cmp    %rax,-0x8(%rbp)
    6150:	77 11                	ja     6163 <safe_lshift_func_uint64_t_u_u+0x3e>
    6152:	8b 45 f4             	mov    -0xc(%rbp),%eax
    6155:	48 8b 55 f8          	mov    -0x8(%rbp),%rdx
    6159:	89 c1                	mov    %eax,%ecx
    615b:	48 d3 e2             	shl    %cl,%rdx
    615e:	48 89 d0             	mov    %rdx,%rax
    6161:	eb 04                	jmp    6167 <safe_lshift_func_uint64_t_u_u+0x42>
    6163:	48 8b 45 f8          	mov    -0x8(%rbp),%rax
    6167:	5d                   	pop    %rbp
    6168:	c3                   	retq   

0000000000006169 <safe_rshift_func_uint64_t_u_s>:
    6169:	f3 0f 1e fa          	endbr64 
    616d:	55                   	push   %rbp
    616e:	48 89 e5             	mov    %rsp,%rbp
    6171:	48 89 7d f8          	mov    %rdi,-0x8(%rbp)
    6175:	89 75 f4             	mov    %esi,-0xc(%rbp)
    6178:	83 7d f4 00          	cmpl   $0x0,-0xc(%rbp)
    617c:	78 17                	js     6195 <safe_rshift_func_uint64_t_u_s+0x2c>
    617e:	83 7d f4 1f          	cmpl   $0x1f,-0xc(%rbp)
    6182:	7f 11                	jg     6195 <safe_rshift_func_uint64_t_u_s+0x2c>
    6184:	8b 45 f4             	mov    -0xc(%rbp),%eax
    6187:	48 8b 55 f8          	mov    -0x8(%rbp),%rdx
    618b:	89 c1                	mov    %eax,%ecx
    618d:	48 d3 ea             	shr    %cl,%rdx
    6190:	48 89 d0             	mov    %rdx,%rax
    6193:	eb 04                	jmp    6199 <safe_rshift_func_uint64_t_u_s+0x30>
    6195:	48 8b 45 f8          	mov    -0x8(%rbp),%rax
    6199:	5d                   	pop    %rbp
    619a:	c3                   	retq   

000000000000619b <safe_rshift_func_uint64_t_u_u>:
    619b:	f3 0f 1e fa          	endbr64 
    619f:	55                   	push   %rbp
    61a0:	48 89 e5             	mov    %rsp,%rbp
    61a3:	48 89 7d f8          	mov    %rdi,-0x8(%rbp)
    61a7:	89 75 f4             	mov    %esi,-0xc(%rbp)
    61aa:	83 7d f4 1f          	cmpl   $0x1f,-0xc(%rbp)
    61ae:	77 11                	ja     61c1 <safe_rshift_func_uint64_t_u_u+0x26>
    61b0:	8b 45 f4             	mov    -0xc(%rbp),%eax
    61b3:	48 8b 55 f8          	mov    -0x8(%rbp),%rdx
    61b7:	89 c1                	mov    %eax,%ecx
    61b9:	48 d3 ea             	shr    %cl,%rdx
    61bc:	48 89 d0             	mov    %rdx,%rax
    61bf:	eb 04                	jmp    61c5 <safe_rshift_func_uint64_t_u_u+0x2a>
    61c1:	48 8b 45 f8          	mov    -0x8(%rbp),%rax
    61c5:	5d                   	pop    %rbp
    61c6:	c3                   	retq   

00000000000061c7 <safe_add_func_float_f_f>:
    61c7:	f3 0f 1e fa          	endbr64 
    61cb:	55                   	push   %rbp
    61cc:	48 89 e5             	mov    %rsp,%rbp
    61cf:	f3 0f 11 45 fc       	movss  %xmm0,-0x4(%rbp)
    61d4:	f3 0f 11 4d f8       	movss  %xmm1,-0x8(%rbp)
    61d9:	f3 0f 10 4d fc       	movss  -0x4(%rbp),%xmm1
    61de:	f3 0f 10 05 d6 c4 00 	movss  0xc4d6(%rip),%xmm0        # 126bc <l_1185.4369+0x1c>
    61e5:	00 
    61e6:	f3 0f 59 c8          	mulss  %xmm0,%xmm1
    61ea:	f3 0f 10 55 f8       	movss  -0x8(%rbp),%xmm2
    61ef:	f3 0f 10 05 c5 c4 00 	movss  0xc4c5(%rip),%xmm0        # 126bc <l_1185.4369+0x1c>
    61f6:	00 
    61f7:	f3 0f 59 c2          	mulss  %xmm2,%xmm0
    61fb:	f3 0f 58 c1          	addss  %xmm1,%xmm0
    61ff:	f3 0f 10 0d b9 c4 00 	movss  0xc4b9(%rip),%xmm1        # 126c0 <l_1185.4369+0x20>
    6206:	00 
    6207:	0f 54 c1             	andps  %xmm1,%xmm0
    620a:	0f 2f 05 bf c4 00 00 	comiss 0xc4bf(%rip),%xmm0        # 126d0 <l_1185.4369+0x30>
    6211:	76 07                	jbe    621a <safe_add_func_float_f_f+0x53>
    6213:	f3 0f 10 45 fc       	movss  -0x4(%rbp),%xmm0
    6218:	eb 0a                	jmp    6224 <safe_add_func_float_f_f+0x5d>
    621a:	f3 0f 10 45 fc       	movss  -0x4(%rbp),%xmm0
    621f:	f3 0f 58 45 f8       	addss  -0x8(%rbp),%xmm0
    6224:	5d                   	pop    %rbp
    6225:	c3                   	retq   

0000000000006226 <safe_sub_func_float_f_f>:
    6226:	f3 0f 1e fa          	endbr64 
    622a:	55                   	push   %rbp
    622b:	48 89 e5             	mov    %rsp,%rbp
    622e:	f3 0f 11 45 fc       	movss  %xmm0,-0x4(%rbp)
    6233:	f3 0f 11 4d f8       	movss  %xmm1,-0x8(%rbp)
    6238:	f3 0f 10 4d fc       	movss  -0x4(%rbp),%xmm1
    623d:	f3 0f 10 05 77 c4 00 	movss  0xc477(%rip),%xmm0        # 126bc <l_1185.4369+0x1c>
    6244:	00 
    6245:	f3 0f 59 c1          	mulss  %xmm1,%xmm0
    6249:	f3 0f 10 55 f8       	movss  -0x8(%rbp),%xmm2
    624e:	f3 0f 10 0d 66 c4 00 	movss  0xc466(%rip),%xmm1        # 126bc <l_1185.4369+0x1c>
    6255:	00 
    6256:	f3 0f 59 ca          	mulss  %xmm2,%xmm1
    625a:	f3 0f 5c c1          	subss  %xmm1,%xmm0
    625e:	f3 0f 10 0d 5a c4 00 	movss  0xc45a(%rip),%xmm1        # 126c0 <l_1185.4369+0x20>
    6265:	00 
    6266:	0f 54 c1             	andps  %xmm1,%xmm0
    6269:	0f 2f 05 60 c4 00 00 	comiss 0xc460(%rip),%xmm0        # 126d0 <l_1185.4369+0x30>
    6270:	76 07                	jbe    6279 <safe_sub_func_float_f_f+0x53>
    6272:	f3 0f 10 45 fc       	movss  -0x4(%rbp),%xmm0
    6277:	eb 0a                	jmp    6283 <safe_sub_func_float_f_f+0x5d>
    6279:	f3 0f 10 45 fc       	movss  -0x4(%rbp),%xmm0
    627e:	f3 0f 5c 45 f8       	subss  -0x8(%rbp),%xmm0
    6283:	5d                   	pop    %rbp
    6284:	c3                   	retq   

0000000000006285 <safe_mul_func_float_f_f>:
    6285:	f3 0f 1e fa          	endbr64 
    6289:	55                   	push   %rbp
    628a:	48 89 e5             	mov    %rsp,%rbp
    628d:	f3 0f 11 45 fc       	movss  %xmm0,-0x4(%rbp)
    6292:	f3 0f 11 4d f8       	movss  %xmm1,-0x8(%rbp)
    6297:	f3 0f 10 4d fc       	movss  -0x4(%rbp),%xmm1
    629c:	f3 0f 10 05 30 c4 00 	movss  0xc430(%rip),%xmm0        # 126d4 <l_1185.4369+0x34>
    62a3:	00 
    62a4:	f3 0f 59 c8          	mulss  %xmm0,%xmm1
    62a8:	f3 0f 10 55 f8       	movss  -0x8(%rbp),%xmm2
    62ad:	f3 0f 10 05 23 c4 00 	movss  0xc423(%rip),%xmm0        # 126d8 <l_1185.4369+0x38>
    62b4:	00 
    62b5:	f3 0f 59 c2          	mulss  %xmm2,%xmm0
    62b9:	f3 0f 59 c1          	mulss  %xmm1,%xmm0
    62bd:	f3 0f 10 0d fb c3 00 	movss  0xc3fb(%rip),%xmm1        # 126c0 <l_1185.4369+0x20>
    62c4:	00 
    62c5:	0f 54 c1             	andps  %xmm1,%xmm0
    62c8:	0f 2f 05 0d c4 00 00 	comiss 0xc40d(%rip),%xmm0        # 126dc <l_1185.4369+0x3c>
    62cf:	76 07                	jbe    62d8 <safe_mul_func_float_f_f+0x53>
    62d1:	f3 0f 10 45 fc       	movss  -0x4(%rbp),%xmm0
    62d6:	eb 0a                	jmp    62e2 <safe_mul_func_float_f_f+0x5d>
    62d8:	f3 0f 10 45 fc       	movss  -0x4(%rbp),%xmm0
    62dd:	f3 0f 59 45 f8       	mulss  -0x8(%rbp),%xmm0
    62e2:	5d                   	pop    %rbp
    62e3:	c3                   	retq   

00000000000062e4 <safe_div_func_float_f_f>:
    62e4:	f3 0f 1e fa          	endbr64 
    62e8:	55                   	push   %rbp
    62e9:	48 89 e5             	mov    %rsp,%rbp
    62ec:	f3 0f 11 45 fc       	movss  %xmm0,-0x4(%rbp)
    62f1:	f3 0f 11 4d f8       	movss  %xmm1,-0x8(%rbp)
    62f6:	f3 0f 10 45 f8       	movss  -0x8(%rbp),%xmm0
    62fb:	f3 0f 10 0d bd c3 00 	movss  0xc3bd(%rip),%xmm1        # 126c0 <l_1185.4369+0x20>
    6302:	00 
    6303:	0f 54 c8             	andps  %xmm0,%xmm1
    6306:	f3 0f 10 05 d2 c3 00 	movss  0xc3d2(%rip),%xmm0        # 126e0 <l_1185.4369+0x40>
    630d:	00 
    630e:	0f 2f c1             	comiss %xmm1,%xmm0
    6311:	0f 97 c0             	seta   %al
    6314:	83 f0 01             	xor    $0x1,%eax
    6317:	84 c0                	test   %al,%al
    6319:	75 56                	jne    6371 <safe_div_func_float_f_f+0x8d>
    631b:	66 0f ef c0          	pxor   %xmm0,%xmm0
    631f:	0f 2e 45 f8          	ucomiss -0x8(%rbp),%xmm0
    6323:	7a 0a                	jp     632f <safe_div_func_float_f_f+0x4b>
    6325:	66 0f ef c0          	pxor   %xmm0,%xmm0
    6329:	0f 2e 45 f8          	ucomiss -0x8(%rbp),%xmm0
    632d:	74 4e                	je     637d <safe_div_func_float_f_f+0x99>
    632f:	f3 0f 10 4d fc       	movss  -0x4(%rbp),%xmm1
    6334:	f3 0f 10 05 a8 c3 00 	movss  0xc3a8(%rip),%xmm0        # 126e4 <l_1185.4369+0x44>
    633b:	00 
    633c:	f3 0f 59 c1          	mulss  %xmm1,%xmm0
    6340:	f3 0f 10 55 f8       	movss  -0x8(%rbp),%xmm2
    6345:	f3 0f 10 0d 9b c3 00 	movss  0xc39b(%rip),%xmm1        # 126e8 <l_1185.4369+0x48>
    634c:	00 
    634d:	f3 0f 59 ca          	mulss  %xmm2,%xmm1
    6351:	f3 0f 5e c1          	divss  %xmm1,%xmm0
    6355:	f3 0f 10 0d 63 c3 00 	movss  0xc363(%rip),%xmm1        # 126c0 <l_1185.4369+0x20>
    635c:	00 
    635d:	0f 54 c1             	andps  %xmm1,%xmm0
    6360:	0f 2f 05 85 c3 00 00 	comiss 0xc385(%rip),%xmm0        # 126ec <l_1185.4369+0x4c>
    6367:	0f 97 c0             	seta   %al
    636a:	83 f0 01             	xor    $0x1,%eax
    636d:	84 c0                	test   %al,%al
    636f:	74 0c                	je     637d <safe_div_func_float_f_f+0x99>
    6371:	f3 0f 10 45 fc       	movss  -0x4(%rbp),%xmm0
    6376:	f3 0f 5e 45 f8       	divss  -0x8(%rbp),%xmm0
    637b:	eb 05                	jmp    6382 <safe_div_func_float_f_f+0x9e>
    637d:	f3 0f 10 45 fc       	movss  -0x4(%rbp),%xmm0
    6382:	5d                   	pop    %rbp
    6383:	c3                   	retq   

0000000000006384 <safe_add_func_double_f_f>:
    6384:	f3 0f 1e fa          	endbr64 
    6388:	55                   	push   %rbp
    6389:	48 89 e5             	mov    %rsp,%rbp
    638c:	f2 0f 11 45 f8       	movsd  %xmm0,-0x8(%rbp)
    6391:	f2 0f 11 4d f0       	movsd  %xmm1,-0x10(%rbp)
    6396:	f2 0f 10 4d f8       	movsd  -0x8(%rbp),%xmm1
    639b:	f2 0f 10 05 4d c3 00 	movsd  0xc34d(%rip),%xmm0        # 126f0 <l_1185.4369+0x50>
    63a2:	00 
    63a3:	f2 0f 59 c8          	mulsd  %xmm0,%xmm1
    63a7:	f2 0f 10 55 f0       	movsd  -0x10(%rbp),%xmm2
    63ac:	f2 0f 10 05 3c c3 00 	movsd  0xc33c(%rip),%xmm0        # 126f0 <l_1185.4369+0x50>
    63b3:	00 
    63b4:	f2 0f 59 c2          	mulsd  %xmm2,%xmm0
    63b8:	f2 0f 58 c1          	addsd  %xmm1,%xmm0
    63bc:	f3 0f 7e 0d 3c c3 00 	movq   0xc33c(%rip),%xmm1        # 12700 <l_1185.4369+0x60>
    63c3:	00 
    63c4:	66 0f 54 c1          	andpd  %xmm1,%xmm0
    63c8:	66 0f 2f 05 40 c3 00 	comisd 0xc340(%rip),%xmm0        # 12710 <l_1185.4369+0x70>
    63cf:	00 
    63d0:	76 07                	jbe    63d9 <safe_add_func_double_f_f+0x55>
    63d2:	f2 0f 10 45 f8       	movsd  -0x8(%rbp),%xmm0
    63d7:	eb 0a                	jmp    63e3 <safe_add_func_double_f_f+0x5f>
    63d9:	f2 0f 10 45 f8       	movsd  -0x8(%rbp),%xmm0
    63de:	f2 0f 58 45 f0       	addsd  -0x10(%rbp),%xmm0
    63e3:	5d                   	pop    %rbp
    63e4:	c3                   	retq   

00000000000063e5 <safe_sub_func_double_f_f>:
    63e5:	f3 0f 1e fa          	endbr64 
    63e9:	55                   	push   %rbp
    63ea:	48 89 e5             	mov    %rsp,%rbp
    63ed:	f2 0f 11 45 f8       	movsd  %xmm0,-0x8(%rbp)
    63f2:	f2 0f 11 4d f0       	movsd  %xmm1,-0x10(%rbp)
    63f7:	f2 0f 10 4d f8       	movsd  -0x8(%rbp),%xmm1
    63fc:	f2 0f 10 05 ec c2 00 	movsd  0xc2ec(%rip),%xmm0        # 126f0 <l_1185.4369+0x50>
    6403:	00 
    6404:	f2 0f 59 c1          	mulsd  %xmm1,%xmm0
    6408:	f2 0f 10 55 f0       	movsd  -0x10(%rbp),%xmm2
    640d:	f2 0f 10 0d db c2 00 	movsd  0xc2db(%rip),%xmm1        # 126f0 <l_1185.4369+0x50>
    6414:	00 
    6415:	f2 0f 59 ca          	mulsd  %xmm2,%xmm1
    6419:	f2 0f 5c c1          	subsd  %xmm1,%xmm0
    641d:	f3 0f 7e 0d db c2 00 	movq   0xc2db(%rip),%xmm1        # 12700 <l_1185.4369+0x60>
    6424:	00 
    6425:	66 0f 54 c1          	andpd  %xmm1,%xmm0
    6429:	66 0f 2f 05 df c2 00 	comisd 0xc2df(%rip),%xmm0        # 12710 <l_1185.4369+0x70>
    6430:	00 
    6431:	76 07                	jbe    643a <safe_sub_func_double_f_f+0x55>
    6433:	f2 0f 10 45 f8       	movsd  -0x8(%rbp),%xmm0
    6438:	eb 0a                	jmp    6444 <safe_sub_func_double_f_f+0x5f>
    643a:	f2 0f 10 45 f8       	movsd  -0x8(%rbp),%xmm0
    643f:	f2 0f 5c 45 f0       	subsd  -0x10(%rbp),%xmm0
    6444:	5d                   	pop    %rbp
    6445:	c3                   	retq   

0000000000006446 <safe_mul_func_double_f_f>:
    6446:	f3 0f 1e fa          	endbr64 
    644a:	55                   	push   %rbp
    644b:	48 89 e5             	mov    %rsp,%rbp
    644e:	f2 0f 11 45 f8       	movsd  %xmm0,-0x8(%rbp)
    6453:	f2 0f 11 4d f0       	movsd  %xmm1,-0x10(%rbp)
    6458:	f2 0f 10 4d f8       	movsd  -0x8(%rbp),%xmm1
    645d:	f2 0f 10 05 b3 c2 00 	movsd  0xc2b3(%rip),%xmm0        # 12718 <l_1185.4369+0x78>
    6464:	00 
    6465:	f2 0f 59 c8          	mulsd  %xmm0,%xmm1
    6469:	f2 0f 10 55 f0       	movsd  -0x10(%rbp),%xmm2
    646e:	f2 0f 10 05 aa c2 00 	movsd  0xc2aa(%rip),%xmm0        # 12720 <l_1185.4369+0x80>
    6475:	00 
    6476:	f2 0f 59 c2          	mulsd  %xmm2,%xmm0
    647a:	f2 0f 59 c1          	mulsd  %xmm1,%xmm0
    647e:	f3 0f 7e 0d 7a c2 00 	movq   0xc27a(%rip),%xmm1        # 12700 <l_1185.4369+0x60>
    6485:	00 
    6486:	66 0f 54 c1          	andpd  %xmm1,%xmm0
    648a:	66 0f 2f 05 96 c2 00 	comisd 0xc296(%rip),%xmm0        # 12728 <l_1185.4369+0x88>
    6491:	00 
    6492:	76 07                	jbe    649b <safe_mul_func_double_f_f+0x55>
    6494:	f2 0f 10 45 f8       	movsd  -0x8(%rbp),%xmm0
    6499:	eb 0a                	jmp    64a5 <safe_mul_func_double_f_f+0x5f>
    649b:	f2 0f 10 45 f8       	movsd  -0x8(%rbp),%xmm0
    64a0:	f2 0f 59 45 f0       	mulsd  -0x10(%rbp),%xmm0
    64a5:	5d                   	pop    %rbp
    64a6:	c3                   	retq   

00000000000064a7 <safe_div_func_double_f_f>:
    64a7:	f3 0f 1e fa          	endbr64 
    64ab:	55                   	push   %rbp
    64ac:	48 89 e5             	mov    %rsp,%rbp
    64af:	f2 0f 11 45 f8       	movsd  %xmm0,-0x8(%rbp)
    64b4:	f2 0f 11 4d f0       	movsd  %xmm1,-0x10(%rbp)
    64b9:	f2 0f 10 45 f0       	movsd  -0x10(%rbp),%xmm0
    64be:	f3 0f 7e 0d 3a c2 00 	movq   0xc23a(%rip),%xmm1        # 12700 <l_1185.4369+0x60>
    64c5:	00 
    64c6:	66 0f 54 c8          	andpd  %xmm0,%xmm1
    64ca:	f2 0f 10 05 5e c2 00 	movsd  0xc25e(%rip),%xmm0        # 12730 <l_1185.4369+0x90>
    64d1:	00 
    64d2:	66 0f 2f c1          	comisd %xmm1,%xmm0
    64d6:	0f 97 c0             	seta   %al
    64d9:	83 f0 01             	xor    $0x1,%eax
    64dc:	84 c0                	test   %al,%al
    64de:	75 5a                	jne    653a <safe_div_func_double_f_f+0x93>
    64e0:	66 0f ef c0          	pxor   %xmm0,%xmm0
    64e4:	66 0f 2e 45 f0       	ucomisd -0x10(%rbp),%xmm0
    64e9:	7a 0b                	jp     64f6 <safe_div_func_double_f_f+0x4f>
    64eb:	66 0f ef c0          	pxor   %xmm0,%xmm0
    64ef:	66 0f 2e 45 f0       	ucomisd -0x10(%rbp),%xmm0
    64f4:	74 50                	je     6546 <safe_div_func_double_f_f+0x9f>
    64f6:	f2 0f 10 4d f8       	movsd  -0x8(%rbp),%xmm1
    64fb:	f2 0f 10 05 35 c2 00 	movsd  0xc235(%rip),%xmm0        # 12738 <l_1185.4369+0x98>
    6502:	00 
    6503:	f2 0f 59 c1          	mulsd  %xmm1,%xmm0
    6507:	f2 0f 10 55 f0       	movsd  -0x10(%rbp),%xmm2
    650c:	f2 0f 10 0d 2c c2 00 	movsd  0xc22c(%rip),%xmm1        # 12740 <l_1185.4369+0xa0>
    6513:	00 
    6514:	f2 0f 59 ca          	mulsd  %xmm2,%xmm1
    6518:	f2 0f 5e c1          	divsd  %xmm1,%xmm0
    651c:	f3 0f 7e 0d dc c1 00 	movq   0xc1dc(%rip),%xmm1        # 12700 <l_1185.4369+0x60>
    6523:	00 
    6524:	66 0f 54 c1          	andpd  %xmm1,%xmm0
    6528:	66 0f 2f 05 18 c2 00 	comisd 0xc218(%rip),%xmm0        # 12748 <l_1185.4369+0xa8>
    652f:	00 
    6530:	0f 97 c0             	seta   %al
    6533:	83 f0 01             	xor    $0x1,%eax
    6536:	84 c0                	test   %al,%al
    6538:	74 0c                	je     6546 <safe_div_func_double_f_f+0x9f>
    653a:	f2 0f 10 45 f8       	movsd  -0x8(%rbp),%xmm0
    653f:	f2 0f 5e 45 f0       	divsd  -0x10(%rbp),%xmm0
    6544:	eb 05                	jmp    654b <safe_div_func_double_f_f+0xa4>
    6546:	f2 0f 10 45 f8       	movsd  -0x8(%rbp),%xmm0
    654b:	5d                   	pop    %rbp
    654c:	c3                   	retq   

000000000000654d <safe_convert_func_float_to_int32_t>:
    654d:	f3 0f 1e fa          	endbr64 
    6551:	55                   	push   %rbp
    6552:	48 89 e5             	mov    %rsp,%rbp
    6555:	f3 0f 11 45 fc       	movss  %xmm0,-0x4(%rbp)
    655a:	f3 0f 10 05 ee c1 00 	movss  0xc1ee(%rip),%xmm0        # 12750 <l_1185.4369+0xb0>
    6561:	00 
    6562:	0f 2f 45 fc          	comiss -0x4(%rbp),%xmm0
    6566:	0f 93 c0             	setae  %al
    6569:	83 f0 01             	xor    $0x1,%eax
    656c:	84 c0                	test   %al,%al
    656e:	74 21                	je     6591 <safe_convert_func_float_to_int32_t+0x44>
    6570:	f3 0f 10 45 fc       	movss  -0x4(%rbp),%xmm0
    6575:	0f 2f 05 d8 c1 00 00 	comiss 0xc1d8(%rip),%xmm0        # 12754 <l_1185.4369+0xb4>
    657c:	0f 93 c0             	setae  %al
    657f:	83 f0 01             	xor    $0x1,%eax
    6582:	84 c0                	test   %al,%al
    6584:	74 0b                	je     6591 <safe_convert_func_float_to_int32_t+0x44>
    6586:	f3 0f 10 45 fc       	movss  -0x4(%rbp),%xmm0
    658b:	f3 0f 2c c0          	cvttss2si %xmm0,%eax
    658f:	eb 05                	jmp    6596 <safe_convert_func_float_to_int32_t+0x49>
    6591:	b8 ff ff ff 7f       	mov    $0x7fffffff,%eax
    6596:	5d                   	pop    %rbp
    6597:	c3                   	retq   

0000000000006598 <crc32_gentab>:
    6598:	f3 0f 1e fa          	endbr64 
    659c:	55                   	push   %rbp
    659d:	48 89 e5             	mov    %rsp,%rbp
    65a0:	c7 45 fc 20 83 b8 ed 	movl   $0xedb88320,-0x4(%rbp)
    65a7:	c7 45 f4 00 00 00 00 	movl   $0x0,-0xc(%rbp)
    65ae:	eb 51                	jmp    6601 <crc32_gentab+0x69>
    65b0:	8b 45 f4             	mov    -0xc(%rbp),%eax
    65b3:	89 45 f0             	mov    %eax,-0x10(%rbp)
    65b6:	c7 45 f8 08 00 00 00 	movl   $0x8,-0x8(%rbp)
    65bd:	eb 1e                	jmp    65dd <crc32_gentab+0x45>
    65bf:	8b 45 f0             	mov    -0x10(%rbp),%eax
    65c2:	83 e0 01             	and    $0x1,%eax
    65c5:	85 c0                	test   %eax,%eax
    65c7:	74 0d                	je     65d6 <crc32_gentab+0x3e>
    65c9:	8b 45 f0             	mov    -0x10(%rbp),%eax
    65cc:	d1 e8                	shr    %eax
    65ce:	33 45 fc             	xor    -0x4(%rbp),%eax
    65d1:	89 45 f0             	mov    %eax,-0x10(%rbp)
    65d4:	eb 03                	jmp    65d9 <crc32_gentab+0x41>
    65d6:	d1 6d f0             	shrl   -0x10(%rbp)
    65d9:	83 6d f8 01          	subl   $0x1,-0x8(%rbp)
    65dd:	83 7d f8 00          	cmpl   $0x0,-0x8(%rbp)
    65e1:	7f dc                	jg     65bf <crc32_gentab+0x27>
    65e3:	8b 45 f4             	mov    -0xc(%rbp),%eax
    65e6:	48 98                	cltq   
    65e8:	48 8d 0c 85 00 00 00 	lea    0x0(,%rax,4),%rcx
    65ef:	00 
    65f0:	48 8d 15 89 13 01 00 	lea    0x11389(%rip),%rdx        # 17980 <crc32_tab>
    65f7:	8b 45 f0             	mov    -0x10(%rbp),%eax
    65fa:	89 04 11             	mov    %eax,(%rcx,%rdx,1)
    65fd:	83 45 f4 01          	addl   $0x1,-0xc(%rbp)
    6601:	81 7d f4 ff 00 00 00 	cmpl   $0xff,-0xc(%rbp)
    6608:	7e a6                	jle    65b0 <crc32_gentab+0x18>
    660a:	90                   	nop
    660b:	90                   	nop
    660c:	5d                   	pop    %rbp
    660d:	c3                   	retq   

000000000000660e <crc32_byte>:
    660e:	f3 0f 1e fa          	endbr64 
    6612:	55                   	push   %rbp
    6613:	48 89 e5             	mov    %rsp,%rbp
    6616:	89 f8                	mov    %edi,%eax
    6618:	88 45 fc             	mov    %al,-0x4(%rbp)
    661b:	8b 05 ff e9 00 00    	mov    0xe9ff(%rip),%eax        # 15020 <crc32_context>
    6621:	c1 e8 08             	shr    $0x8,%eax
    6624:	89 c1                	mov    %eax,%ecx
    6626:	0f b6 55 fc          	movzbl -0x4(%rbp),%edx
    662a:	8b 05 f0 e9 00 00    	mov    0xe9f0(%rip),%eax        # 15020 <crc32_context>
    6630:	31 d0                	xor    %edx,%eax
    6632:	0f b6 c0             	movzbl %al,%eax
    6635:	89 c0                	mov    %eax,%eax
    6637:	48 8d 14 85 00 00 00 	lea    0x0(,%rax,4),%rdx
    663e:	00 
    663f:	48 8d 05 3a 13 01 00 	lea    0x1133a(%rip),%rax        # 17980 <crc32_tab>
    6646:	8b 04 02             	mov    (%rdx,%rax,1),%eax
    6649:	31 c8                	xor    %ecx,%eax
    664b:	89 05 cf e9 00 00    	mov    %eax,0xe9cf(%rip)        # 15020 <crc32_context>
    6651:	90                   	nop
    6652:	5d                   	pop    %rbp
    6653:	c3                   	retq   

0000000000006654 <crc32_8bytes>:
    6654:	f3 0f 1e fa          	endbr64 
    6658:	55                   	push   %rbp
    6659:	48 89 e5             	mov    %rsp,%rbp
    665c:	48 83 ec 08          	sub    $0x8,%rsp
    6660:	48 89 7d f8          	mov    %rdi,-0x8(%rbp)
    6664:	48 8b 45 f8          	mov    -0x8(%rbp),%rax
    6668:	0f b6 c0             	movzbl %al,%eax
    666b:	89 c7                	mov    %eax,%edi
    666d:	e8 9c ff ff ff       	callq  660e <crc32_byte>
    6672:	48 8b 45 f8          	mov    -0x8(%rbp),%rax
    6676:	48 c1 e8 08          	shr    $0x8,%rax
    667a:	0f b6 c0             	movzbl %al,%eax
    667d:	89 c7                	mov    %eax,%edi
    667f:	e8 8a ff ff ff       	callq  660e <crc32_byte>
    6684:	48 8b 45 f8          	mov    -0x8(%rbp),%rax
    6688:	48 c1 e8 10          	shr    $0x10,%rax
    668c:	0f b6 c0             	movzbl %al,%eax
    668f:	89 c7                	mov    %eax,%edi
    6691:	e8 78 ff ff ff       	callq  660e <crc32_byte>
    6696:	48 8b 45 f8          	mov    -0x8(%rbp),%rax
    669a:	48 c1 e8 18          	shr    $0x18,%rax
    669e:	0f b6 c0             	movzbl %al,%eax
    66a1:	89 c7                	mov    %eax,%edi
    66a3:	e8 66 ff ff ff       	callq  660e <crc32_byte>
    66a8:	48 8b 45 f8          	mov    -0x8(%rbp),%rax
    66ac:	48 c1 e8 20          	shr    $0x20,%rax
    66b0:	0f b6 c0             	movzbl %al,%eax
    66b3:	89 c7                	mov    %eax,%edi
    66b5:	e8 54 ff ff ff       	callq  660e <crc32_byte>
    66ba:	48 8b 45 f8          	mov    -0x8(%rbp),%rax
    66be:	48 c1 e8 28          	shr    $0x28,%rax
    66c2:	0f b6 c0             	movzbl %al,%eax
    66c5:	89 c7                	mov    %eax,%edi
    66c7:	e8 42 ff ff ff       	callq  660e <crc32_byte>
    66cc:	48 8b 45 f8          	mov    -0x8(%rbp),%rax
    66d0:	48 c1 e8 30          	shr    $0x30,%rax
    66d4:	0f b6 c0             	movzbl %al,%eax
    66d7:	89 c7                	mov    %eax,%edi
    66d9:	e8 30 ff ff ff       	callq  660e <crc32_byte>
    66de:	48 8b 45 f8          	mov    -0x8(%rbp),%rax
    66e2:	48 c1 e8 38          	shr    $0x38,%rax
    66e6:	0f b6 c0             	movzbl %al,%eax
    66e9:	89 c7                	mov    %eax,%edi
    66eb:	e8 1e ff ff ff       	callq  660e <crc32_byte>
    66f0:	90                   	nop
    66f1:	c9                   	leaveq 
    66f2:	c3                   	retq   

00000000000066f3 <transparent_crc>:
    66f3:	f3 0f 1e fa          	endbr64 
    66f7:	55                   	push   %rbp
    66f8:	48 89 e5             	mov    %rsp,%rbp
    66fb:	48 83 ec 20          	sub    $0x20,%rsp
    66ff:	48 89 7d f8          	mov    %rdi,-0x8(%rbp)
    6703:	48 89 75 f0          	mov    %rsi,-0x10(%rbp)
    6707:	89 55 ec             	mov    %edx,-0x14(%rbp)
    670a:	48 8b 45 f8          	mov    -0x8(%rbp),%rax
    670e:	48 89 c7             	mov    %rax,%rdi
    6711:	e8 3e ff ff ff       	callq  6654 <crc32_8bytes>
    6716:	83 7d ec 00          	cmpl   $0x0,-0x14(%rbp)
    671a:	74 22                	je     673e <transparent_crc+0x4b>
    671c:	8b 05 fe e8 00 00    	mov    0xe8fe(%rip),%eax        # 15020 <crc32_context>
    6722:	f7 d0                	not    %eax
    6724:	89 c2                	mov    %eax,%edx
    6726:	48 8b 45 f0          	mov    -0x10(%rbp),%rax
    672a:	48 89 c6             	mov    %rax,%rsi
    672d:	48 8d 3d fc 98 00 00 	lea    0x98fc(%rip),%rdi        # 10030 <_IO_stdin_used+0x30>
    6734:	b8 00 00 00 00       	mov    $0x0,%eax
    6739:	e8 42 e9 ff ff       	callq  5080 <printf@plt>
    673e:	90                   	nop
    673f:	c9                   	leaveq 
    6740:	c3                   	retq   

0000000000006741 <transparent_crc_bytes>:
    6741:	f3 0f 1e fa          	endbr64 
    6745:	55                   	push   %rbp
    6746:	48 89 e5             	mov    %rsp,%rbp
    6749:	48 83 ec 30          	sub    $0x30,%rsp
    674d:	48 89 7d e8          	mov    %rdi,-0x18(%rbp)
    6751:	89 75 e4             	mov    %esi,-0x1c(%rbp)
    6754:	48 89 55 d8          	mov    %rdx,-0x28(%rbp)
    6758:	89 4d e0             	mov    %ecx,-0x20(%rbp)
    675b:	c7 45 fc 00 00 00 00 	movl   $0x0,-0x4(%rbp)
    6762:	eb 1e                	jmp    6782 <transparent_crc_bytes+0x41>
    6764:	8b 45 fc             	mov    -0x4(%rbp),%eax
    6767:	48 63 d0             	movslq %eax,%rdx
    676a:	48 8b 45 e8          	mov    -0x18(%rbp),%rax
    676e:	48 01 d0             	add    %rdx,%rax
    6771:	0f b6 00             	movzbl (%rax),%eax
    6774:	0f b6 c0             	movzbl %al,%eax
    6777:	89 c7                	mov    %eax,%edi
    6779:	e8 90 fe ff ff       	callq  660e <crc32_byte>
    677e:	83 45 fc 01          	addl   $0x1,-0x4(%rbp)
    6782:	8b 45 fc             	mov    -0x4(%rbp),%eax
    6785:	3b 45 e4             	cmp    -0x1c(%rbp),%eax
    6788:	7c da                	jl     6764 <transparent_crc_bytes+0x23>
    678a:	83 7d e0 00          	cmpl   $0x0,-0x20(%rbp)
    678e:	74 22                	je     67b2 <transparent_crc_bytes+0x71>
    6790:	8b 05 8a e8 00 00    	mov    0xe88a(%rip),%eax        # 15020 <crc32_context>
    6796:	f7 d0                	not    %eax
    6798:	89 c2                	mov    %eax,%edx
    679a:	48 8b 45 d8          	mov    -0x28(%rbp),%rax
    679e:	48 89 c6             	mov    %rax,%rsi
    67a1:	48 8d 3d 88 98 00 00 	lea    0x9888(%rip),%rdi        # 10030 <_IO_stdin_used+0x30>
    67a8:	b8 00 00 00 00       	mov    $0x0,%eax
    67ad:	e8 ce e8 ff ff       	callq  5080 <printf@plt>
    67b2:	90                   	nop
    67b3:	c9                   	leaveq 
    67b4:	c3                   	retq   

00000000000067b5 <func_1>:
    67b5:	f3 0f 1e fa          	endbr64 
    67b9:	55                   	push   %rbp
    67ba:	48 89 e5             	mov    %rsp,%rbp
    67bd:	48 81 ec 20 0e 00 00 	sub    $0xe20,%rsp
    67c4:	64 48 8b 04 25 28 00 	mov    %fs:0x28,%rax
    67cb:	00 00 
    67cd:	48 89 45 f8          	mov    %rax,-0x8(%rbp)
    67d1:	31 c0                	xor    %eax,%eax
    67d3:	48 c7 85 f8 f1 ff ff 	movq   $0x0,-0xe08(%rbp)
    67da:	00 00 00 00 
    67de:	48 8d 05 33 e9 00 00 	lea    0xe933(%rip),%rax        # 15118 <g_4>
    67e5:	48 89 85 30 f2 ff ff 	mov    %rax,-0xdd0(%rbp)
    67ec:	48 8d 05 25 e9 00 00 	lea    0xe925(%rip),%rax        # 15118 <g_4>
    67f3:	48 89 85 38 f2 ff ff 	mov    %rax,-0xdc8(%rbp)
    67fa:	48 8d 05 17 e9 00 00 	lea    0xe917(%rip),%rax        # 15118 <g_4>
    6801:	48 89 85 40 f2 ff ff 	mov    %rax,-0xdc0(%rbp)
    6808:	48 8d 05 09 e9 00 00 	lea    0xe909(%rip),%rax        # 15118 <g_4>
    680f:	48 89 85 48 f2 ff ff 	mov    %rax,-0xdb8(%rbp)
    6816:	48 8d 05 fb e8 00 00 	lea    0xe8fb(%rip),%rax        # 15118 <g_4>
    681d:	48 89 85 50 f2 ff ff 	mov    %rax,-0xdb0(%rbp)
    6824:	48 8d 05 ed e8 00 00 	lea    0xe8ed(%rip),%rax        # 15118 <g_4>
    682b:	48 89 85 58 f2 ff ff 	mov    %rax,-0xda8(%rbp)
    6832:	48 8d 05 df e8 00 00 	lea    0xe8df(%rip),%rax        # 15118 <g_4>
    6839:	48 89 85 60 f2 ff ff 	mov    %rax,-0xda0(%rbp)
    6840:	48 8d 05 d1 e8 00 00 	lea    0xe8d1(%rip),%rax        # 15118 <g_4>
    6847:	48 89 85 68 f2 ff ff 	mov    %rax,-0xd98(%rbp)
    684e:	48 8d 05 c3 e8 00 00 	lea    0xe8c3(%rip),%rax        # 15118 <g_4>
    6855:	48 89 85 70 f2 ff ff 	mov    %rax,-0xd90(%rbp)
    685c:	48 8d 05 b5 e8 00 00 	lea    0xe8b5(%rip),%rax        # 15118 <g_4>
    6863:	48 89 85 78 f2 ff ff 	mov    %rax,-0xd88(%rbp)
    686a:	48 8d 05 a7 e8 00 00 	lea    0xe8a7(%rip),%rax        # 15118 <g_4>
    6871:	48 89 85 80 f2 ff ff 	mov    %rax,-0xd80(%rbp)
    6878:	48 8d 05 99 e8 00 00 	lea    0xe899(%rip),%rax        # 15118 <g_4>
    687f:	48 89 85 88 f2 ff ff 	mov    %rax,-0xd78(%rbp)
    6886:	48 8d 05 8b e8 00 00 	lea    0xe88b(%rip),%rax        # 15118 <g_4>
    688d:	48 89 85 90 f2 ff ff 	mov    %rax,-0xd70(%rbp)
    6894:	48 8d 05 7d e8 00 00 	lea    0xe87d(%rip),%rax        # 15118 <g_4>
    689b:	48 89 85 98 f2 ff ff 	mov    %rax,-0xd68(%rbp)
    68a2:	48 8d 05 6f e8 00 00 	lea    0xe86f(%rip),%rax        # 15118 <g_4>
    68a9:	48 89 85 a0 f2 ff ff 	mov    %rax,-0xd60(%rbp)
    68b0:	48 8d 05 61 e8 00 00 	lea    0xe861(%rip),%rax        # 15118 <g_4>
    68b7:	48 89 85 a8 f2 ff ff 	mov    %rax,-0xd58(%rbp)
    68be:	48 8d 05 53 e8 00 00 	lea    0xe853(%rip),%rax        # 15118 <g_4>
    68c5:	48 89 85 b0 f2 ff ff 	mov    %rax,-0xd50(%rbp)
    68cc:	48 8d 05 45 e8 00 00 	lea    0xe845(%rip),%rax        # 15118 <g_4>
    68d3:	48 89 85 b8 f2 ff ff 	mov    %rax,-0xd48(%rbp)
    68da:	48 8d 05 37 e8 00 00 	lea    0xe837(%rip),%rax        # 15118 <g_4>
    68e1:	48 89 85 c0 f2 ff ff 	mov    %rax,-0xd40(%rbp)
    68e8:	48 8d 05 29 e8 00 00 	lea    0xe829(%rip),%rax        # 15118 <g_4>
    68ef:	48 89 85 c8 f2 ff ff 	mov    %rax,-0xd38(%rbp)
    68f6:	48 8d 05 27 e8 00 00 	lea    0xe827(%rip),%rax        # 15124 <g_28+0x4>
    68fd:	48 89 85 00 f2 ff ff 	mov    %rax,-0xe00(%rbp)
    6904:	48 8d 05 15 06 01 00 	lea    0x10615(%rip),%rax        # 16f20 <g_366>
    690b:	48 89 85 e0 f1 ff ff 	mov    %rax,-0xe20(%rbp)
    6912:	c7 05 fc e7 00 00 00 	movl   $0x0,0xe7fc(%rip)        # 15118 <g_4>
    6919:	00 00 00 
    691c:	e9 62 0b 00 00       	jmpq   7483 <func_1+0xcce>
    6921:	48 8d 05 f0 e7 00 00 	lea    0xe7f0(%rip),%rax        # 15118 <g_4>
    6928:	48 89 85 e8 f1 ff ff 	mov    %rax,-0xe18(%rbp)
    692f:	48 8d 05 ee e7 00 00 	lea    0xe7ee(%rip),%rax        # 15124 <g_28+0x4>
    6936:	48 89 85 08 f2 ff ff 	mov    %rax,-0xdf8(%rbp)
    693d:	48 c7 85 10 f2 ff ff 	movq   $0x0,-0xdf0(%rbp)
    6944:	00 00 00 00 
    6948:	48 8d 05 e9 e7 00 00 	lea    0xe7e9(%rip),%rax        # 15138 <g_28+0x18>
    694f:	48 89 85 f0 f1 ff ff 	mov    %rax,-0xe10(%rbp)
    6956:	48 8d 85 f0 f1 ff ff 	lea    -0xe10(%rbp),%rax
    695d:	48 89 85 18 f2 ff ff 	mov    %rax,-0xde8(%rbp)
    6964:	48 8d 05 35 05 01 00 	lea    0x10535(%rip),%rax        # 16ea0 <g_50>
    696b:	48 89 85 d0 f2 ff ff 	mov    %rax,-0xd30(%rbp)
    6972:	48 8d 85 e8 f1 ff ff 	lea    -0xe18(%rbp),%rax
    6979:	48 89 85 d8 f2 ff ff 	mov    %rax,-0xd28(%rbp)
    6980:	48 8d 85 30 f2 ff ff 	lea    -0xdd0(%rbp),%rax
    6987:	48 83 c0 30          	add    $0x30,%rax
    698b:	48 89 85 e0 f2 ff ff 	mov    %rax,-0xd20(%rbp)
    6992:	48 8d 85 30 f2 ff ff 	lea    -0xdd0(%rbp),%rax
    6999:	48 83 c0 70          	add    $0x70,%rax
    699d:	48 89 85 e8 f2 ff ff 	mov    %rax,-0xd18(%rbp)
    69a4:	48 8d 85 30 f2 ff ff 	lea    -0xdd0(%rbp),%rax
    69ab:	48 83 c0 40          	add    $0x40,%rax
    69af:	48 89 85 f0 f2 ff ff 	mov    %rax,-0xd10(%rbp)
    69b6:	48 8d 05 e3 04 01 00 	lea    0x104e3(%rip),%rax        # 16ea0 <g_50>
    69bd:	48 89 85 f8 f2 ff ff 	mov    %rax,-0xd08(%rbp)
    69c4:	48 8d 85 30 f2 ff ff 	lea    -0xdd0(%rbp),%rax
    69cb:	48 83 c0 40          	add    $0x40,%rax
    69cf:	48 89 85 00 f3 ff ff 	mov    %rax,-0xd00(%rbp)
    69d6:	48 8d 85 30 f2 ff ff 	lea    -0xdd0(%rbp),%rax
    69dd:	48 83 c0 40          	add    $0x40,%rax
    69e1:	48 89 85 08 f3 ff ff 	mov    %rax,-0xcf8(%rbp)
    69e8:	48 8d 85 30 f2 ff ff 	lea    -0xdd0(%rbp),%rax
    69ef:	48 83 c0 30          	add    $0x30,%rax
    69f3:	48 89 85 10 f3 ff ff 	mov    %rax,-0xcf0(%rbp)
    69fa:	48 8d 85 30 f2 ff ff 	lea    -0xdd0(%rbp),%rax
    6a01:	48 83 c0 40          	add    $0x40,%rax
    6a05:	48 89 85 18 f3 ff ff 	mov    %rax,-0xce8(%rbp)
    6a0c:	48 c7 85 20 f3 ff ff 	movq   $0x0,-0xce0(%rbp)
    6a13:	00 00 00 00 
    6a17:	48 8d 85 30 f2 ff ff 	lea    -0xdd0(%rbp),%rax
    6a1e:	48 83 c0 40          	add    $0x40,%rax
    6a22:	48 89 85 28 f3 ff ff 	mov    %rax,-0xcd8(%rbp)
    6a29:	48 8d 85 30 f2 ff ff 	lea    -0xdd0(%rbp),%rax
    6a30:	48 83 c0 40          	add    $0x40,%rax
    6a34:	48 89 85 30 f3 ff ff 	mov    %rax,-0xcd0(%rbp)
    6a3b:	48 8d 05 5e 04 01 00 	lea    0x1045e(%rip),%rax        # 16ea0 <g_50>
    6a42:	48 89 85 38 f3 ff ff 	mov    %rax,-0xcc8(%rbp)
    6a49:	48 8d 85 e8 f1 ff ff 	lea    -0xe18(%rbp),%rax
    6a50:	48 89 85 40 f3 ff ff 	mov    %rax,-0xcc0(%rbp)
    6a57:	48 c7 85 48 f3 ff ff 	movq   $0x0,-0xcb8(%rbp)
    6a5e:	00 00 00 00 
    6a62:	48 8d 85 e8 f1 ff ff 	lea    -0xe18(%rbp),%rax
    6a69:	48 89 85 50 f3 ff ff 	mov    %rax,-0xcb0(%rbp)
    6a70:	48 8d 85 30 f2 ff ff 	lea    -0xdd0(%rbp),%rax
    6a77:	48 83 c0 18          	add    $0x18,%rax
    6a7b:	48 89 85 58 f3 ff ff 	mov    %rax,-0xca8(%rbp)
    6a82:	48 8d 05 17 04 01 00 	lea    0x10417(%rip),%rax        # 16ea0 <g_50>
    6a89:	48 89 85 60 f3 ff ff 	mov    %rax,-0xca0(%rbp)
    6a90:	48 c7 85 68 f3 ff ff 	movq   $0x0,-0xc98(%rbp)
    6a97:	00 00 00 00 
    6a9b:	48 c7 85 70 f3 ff ff 	movq   $0x0,-0xc90(%rbp)
    6aa2:	00 00 00 00 
    6aa6:	48 c7 85 78 f3 ff ff 	movq   $0x0,-0xc88(%rbp)
    6aad:	00 00 00 00 
    6ab1:	48 8d 85 30 f2 ff ff 	lea    -0xdd0(%rbp),%rax
    6ab8:	48 83 c0 40          	add    $0x40,%rax
    6abc:	48 89 85 80 f3 ff ff 	mov    %rax,-0xc80(%rbp)
    6ac3:	48 c7 85 88 f3 ff ff 	movq   $0x0,-0xc78(%rbp)
    6aca:	00 00 00 00 
    6ace:	48 8d 85 30 f2 ff ff 	lea    -0xdd0(%rbp),%rax
    6ad5:	48 83 c0 68          	add    $0x68,%rax
    6ad9:	48 89 85 90 f3 ff ff 	mov    %rax,-0xc70(%rbp)
    6ae0:	48 8d 05 b9 03 01 00 	lea    0x103b9(%rip),%rax        # 16ea0 <g_50>
    6ae7:	48 89 85 98 f3 ff ff 	mov    %rax,-0xc68(%rbp)
    6aee:	48 8d 85 30 f2 ff ff 	lea    -0xdd0(%rbp),%rax
    6af5:	48 83 c0 40          	add    $0x40,%rax
    6af9:	48 89 85 a0 f3 ff ff 	mov    %rax,-0xc60(%rbp)
    6b00:	48 8d 05 99 03 01 00 	lea    0x10399(%rip),%rax        # 16ea0 <g_50>
    6b07:	48 89 85 a8 f3 ff ff 	mov    %rax,-0xc58(%rbp)
    6b0e:	48 8d 05 8b 03 01 00 	lea    0x1038b(%rip),%rax        # 16ea0 <g_50>
    6b15:	48 89 85 b0 f3 ff ff 	mov    %rax,-0xc50(%rbp)
    6b1c:	48 8d 85 30 f2 ff ff 	lea    -0xdd0(%rbp),%rax
    6b23:	48 83 c0 40          	add    $0x40,%rax
    6b27:	48 89 85 b8 f3 ff ff 	mov    %rax,-0xc48(%rbp)
    6b2e:	48 8d 05 6b 03 01 00 	lea    0x1036b(%rip),%rax        # 16ea0 <g_50>
    6b35:	48 89 85 c0 f3 ff ff 	mov    %rax,-0xc40(%rbp)
    6b3c:	48 8d 85 30 f2 ff ff 	lea    -0xdd0(%rbp),%rax
    6b43:	48 83 c0 40          	add    $0x40,%rax
    6b47:	48 89 85 c8 f3 ff ff 	mov    %rax,-0xc38(%rbp)
    6b4e:	48 8d 05 4b 03 01 00 	lea    0x1034b(%rip),%rax        # 16ea0 <g_50>
    6b55:	48 89 85 d0 f3 ff ff 	mov    %rax,-0xc30(%rbp)
    6b5c:	48 8d 05 3d 03 01 00 	lea    0x1033d(%rip),%rax        # 16ea0 <g_50>
    6b63:	48 89 85 d8 f3 ff ff 	mov    %rax,-0xc28(%rbp)
    6b6a:	48 8d 85 30 f2 ff ff 	lea    -0xdd0(%rbp),%rax
    6b71:	48 83 c0 40          	add    $0x40,%rax
    6b75:	48 89 85 e0 f3 ff ff 	mov    %rax,-0xc20(%rbp)
    6b7c:	48 8d 05 1d 03 01 00 	lea    0x1031d(%rip),%rax        # 16ea0 <g_50>
    6b83:	48 89 85 e8 f3 ff ff 	mov    %rax,-0xc18(%rbp)
    6b8a:	48 8d 85 30 f2 ff ff 	lea    -0xdd0(%rbp),%rax
    6b91:	48 83 c0 68          	add    $0x68,%rax
    6b95:	48 89 85 f0 f3 ff ff 	mov    %rax,-0xc10(%rbp)
    6b9c:	48 c7 85 f8 f3 ff ff 	movq   $0x0,-0xc08(%rbp)
    6ba3:	00 00 00 00 
    6ba7:	48 8d 85 30 f2 ff ff 	lea    -0xdd0(%rbp),%rax
    6bae:	48 83 c0 40          	add    $0x40,%rax
    6bb2:	48 89 85 00 f4 ff ff 	mov    %rax,-0xc00(%rbp)
    6bb9:	48 c7 85 08 f4 ff ff 	movq   $0x0,-0xbf8(%rbp)
    6bc0:	00 00 00 00 
    6bc4:	48 c7 85 10 f4 ff ff 	movq   $0x0,-0xbf0(%rbp)
    6bcb:	00 00 00 00 
    6bcf:	48 c7 85 18 f4 ff ff 	movq   $0x0,-0xbe8(%rbp)
    6bd6:	00 00 00 00 
    6bda:	48 8d 05 bf 02 01 00 	lea    0x102bf(%rip),%rax        # 16ea0 <g_50>
    6be1:	48 89 85 20 f4 ff ff 	mov    %rax,-0xbe0(%rbp)
    6be8:	48 8d 85 30 f2 ff ff 	lea    -0xdd0(%rbp),%rax
    6bef:	48 83 c0 18          	add    $0x18,%rax
    6bf3:	48 89 85 28 f4 ff ff 	mov    %rax,-0xbd8(%rbp)
    6bfa:	48 8d 85 e8 f1 ff ff 	lea    -0xe18(%rbp),%rax
    6c01:	48 89 85 30 f4 ff ff 	mov    %rax,-0xbd0(%rbp)
    6c08:	48 c7 85 38 f4 ff ff 	movq   $0x0,-0xbc8(%rbp)
    6c0f:	00 00 00 00 
    6c13:	48 8d 85 e8 f1 ff ff 	lea    -0xe18(%rbp),%rax
    6c1a:	48 89 85 40 f4 ff ff 	mov    %rax,-0xbc0(%rbp)
    6c21:	48 8d 05 78 02 01 00 	lea    0x10278(%rip),%rax        # 16ea0 <g_50>
    6c28:	48 89 85 48 f4 ff ff 	mov    %rax,-0xbb8(%rbp)
    6c2f:	48 8d 85 30 f2 ff ff 	lea    -0xdd0(%rbp),%rax
    6c36:	48 83 c0 40          	add    $0x40,%rax
    6c3a:	48 89 85 50 f4 ff ff 	mov    %rax,-0xbb0(%rbp)
    6c41:	48 8d 85 30 f2 ff ff 	lea    -0xdd0(%rbp),%rax
    6c48:	48 83 c0 40          	add    $0x40,%rax
    6c4c:	48 89 85 58 f4 ff ff 	mov    %rax,-0xba8(%rbp)
    6c53:	48 c7 85 60 f4 ff ff 	movq   $0x0,-0xba0(%rbp)
    6c5a:	00 00 00 00 
    6c5e:	48 8d 85 30 f2 ff ff 	lea    -0xdd0(%rbp),%rax
    6c65:	48 83 c0 40          	add    $0x40,%rax
    6c69:	48 89 85 68 f4 ff ff 	mov    %rax,-0xb98(%rbp)
    6c70:	48 8d 85 30 f2 ff ff 	lea    -0xdd0(%rbp),%rax
    6c77:	48 83 c0 30          	add    $0x30,%rax
    6c7b:	48 89 85 70 f4 ff ff 	mov    %rax,-0xb90(%rbp)
    6c82:	48 8d 85 30 f2 ff ff 	lea    -0xdd0(%rbp),%rax
    6c89:	48 83 c0 40          	add    $0x40,%rax
    6c8d:	48 89 85 78 f4 ff ff 	mov    %rax,-0xb88(%rbp)
    6c94:	48 8d 85 30 f2 ff ff 	lea    -0xdd0(%rbp),%rax
    6c9b:	48 83 c0 40          	add    $0x40,%rax
    6c9f:	48 89 85 80 f4 ff ff 	mov    %rax,-0xb80(%rbp)
    6ca6:	48 8d 05 f3 01 01 00 	lea    0x101f3(%rip),%rax        # 16ea0 <g_50>
    6cad:	48 89 85 88 f4 ff ff 	mov    %rax,-0xb78(%rbp)
    6cb4:	48 8d 85 30 f2 ff ff 	lea    -0xdd0(%rbp),%rax
    6cbb:	48 83 c0 40          	add    $0x40,%rax
    6cbf:	48 89 85 90 f4 ff ff 	mov    %rax,-0xb70(%rbp)
    6cc6:	48 8d 85 30 f2 ff ff 	lea    -0xdd0(%rbp),%rax
    6ccd:	48 83 c0 70          	add    $0x70,%rax
    6cd1:	48 89 85 98 f4 ff ff 	mov    %rax,-0xb68(%rbp)
    6cd8:	48 8d 85 30 f2 ff ff 	lea    -0xdd0(%rbp),%rax
    6cdf:	48 83 c0 30          	add    $0x30,%rax
    6ce3:	48 89 85 a0 f4 ff ff 	mov    %rax,-0xb60(%rbp)
    6cea:	48 8d 85 e8 f1 ff ff 	lea    -0xe18(%rbp),%rax
    6cf1:	48 89 85 a8 f4 ff ff 	mov    %rax,-0xb58(%rbp)
    6cf8:	48 8d 05 a1 01 01 00 	lea    0x101a1(%rip),%rax        # 16ea0 <g_50>
    6cff:	48 89 85 b0 f4 ff ff 	mov    %rax,-0xb50(%rbp)
    6d06:	48 8d 85 30 f2 ff ff 	lea    -0xdd0(%rbp),%rax
    6d0d:	48 83 c0 40          	add    $0x40,%rax
    6d11:	48 89 85 b8 f4 ff ff 	mov    %rax,-0xb48(%rbp)
    6d18:	48 8d 85 30 f2 ff ff 	lea    -0xdd0(%rbp),%rax
    6d1f:	48 83 c0 70          	add    $0x70,%rax
    6d23:	48 89 85 c0 f4 ff ff 	mov    %rax,-0xb40(%rbp)
    6d2a:	48 8d 85 30 f2 ff ff 	lea    -0xdd0(%rbp),%rax
    6d31:	48 83 c0 30          	add    $0x30,%rax
    6d35:	48 89 85 c8 f4 ff ff 	mov    %rax,-0xb38(%rbp)
    6d3c:	48 8d 85 e8 f1 ff ff 	lea    -0xe18(%rbp),%rax
    6d43:	48 89 85 d0 f4 ff ff 	mov    %rax,-0xb30(%rbp)
    6d4a:	48 8d 05 4f 01 01 00 	lea    0x1014f(%rip),%rax        # 16ea0 <g_50>
    6d51:	48 89 85 d8 f4 ff ff 	mov    %rax,-0xb28(%rbp)
    6d58:	48 c7 85 e0 f4 ff ff 	movq   $0x0,-0xb20(%rbp)
    6d5f:	00 00 00 00 
    6d63:	48 8d 85 30 f2 ff ff 	lea    -0xdd0(%rbp),%rax
    6d6a:	48 83 c0 18          	add    $0x18,%rax
    6d6e:	48 89 85 e8 f4 ff ff 	mov    %rax,-0xb18(%rbp)
    6d75:	48 8d 85 30 f2 ff ff 	lea    -0xdd0(%rbp),%rax
    6d7c:	48 83 e8 80          	sub    $0xffffffffffffff80,%rax
    6d80:	48 89 85 f0 f4 ff ff 	mov    %rax,-0xb10(%rbp)
    6d87:	48 8d 85 30 f2 ff ff 	lea    -0xdd0(%rbp),%rax
    6d8e:	48 83 c0 68          	add    $0x68,%rax
    6d92:	48 89 85 f8 f4 ff ff 	mov    %rax,-0xb08(%rbp)
    6d99:	48 c7 85 00 f5 ff ff 	movq   $0x0,-0xb00(%rbp)
    6da0:	00 00 00 00 
    6da4:	48 8d 85 e8 f1 ff ff 	lea    -0xe18(%rbp),%rax
    6dab:	48 89 85 08 f5 ff ff 	mov    %rax,-0xaf8(%rbp)
    6db2:	48 c7 85 10 f5 ff ff 	movq   $0x0,-0xaf0(%rbp)
    6db9:	00 00 00 00 
    6dbd:	48 c7 85 18 f5 ff ff 	movq   $0x0,-0xae8(%rbp)
    6dc4:	00 00 00 00 
    6dc8:	48 c7 85 20 f5 ff ff 	movq   $0x0,-0xae0(%rbp)
    6dcf:	00 00 00 00 
    6dd3:	48 c7 85 28 f5 ff ff 	movq   $0x0,-0xad8(%rbp)
    6dda:	00 00 00 00 
    6dde:	48 8d 85 30 f2 ff ff 	lea    -0xdd0(%rbp),%rax
    6de5:	48 83 c0 40          	add    $0x40,%rax
    6de9:	48 89 85 30 f5 ff ff 	mov    %rax,-0xad0(%rbp)
    6df0:	48 8d 85 e8 f1 ff ff 	lea    -0xe18(%rbp),%rax
    6df7:	48 89 85 38 f5 ff ff 	mov    %rax,-0xac8(%rbp)
    6dfe:	48 8d 85 30 f2 ff ff 	lea    -0xdd0(%rbp),%rax
    6e05:	48 83 c0 40          	add    $0x40,%rax
    6e09:	48 89 85 40 f5 ff ff 	mov    %rax,-0xac0(%rbp)
    6e10:	48 8d 85 30 f2 ff ff 	lea    -0xdd0(%rbp),%rax
    6e17:	48 83 c0 40          	add    $0x40,%rax
    6e1b:	48 89 85 48 f5 ff ff 	mov    %rax,-0xab8(%rbp)
    6e22:	48 c7 85 50 f5 ff ff 	movq   $0x0,-0xab0(%rbp)
    6e29:	00 00 00 00 
    6e2d:	48 8d 85 e8 f1 ff ff 	lea    -0xe18(%rbp),%rax
    6e34:	48 89 85 58 f5 ff ff 	mov    %rax,-0xaa8(%rbp)
    6e3b:	48 8d 05 5e 00 01 00 	lea    0x1005e(%rip),%rax        # 16ea0 <g_50>
    6e42:	48 89 85 60 f5 ff ff 	mov    %rax,-0xaa0(%rbp)
    6e49:	48 8d 85 e8 f1 ff ff 	lea    -0xe18(%rbp),%rax
    6e50:	48 89 85 68 f5 ff ff 	mov    %rax,-0xa98(%rbp)
    6e57:	48 8d 85 e8 f1 ff ff 	lea    -0xe18(%rbp),%rax
    6e5e:	48 89 85 70 f5 ff ff 	mov    %rax,-0xa90(%rbp)
    6e65:	48 8d 05 34 00 01 00 	lea    0x10034(%rip),%rax        # 16ea0 <g_50>
    6e6c:	48 89 85 78 f5 ff ff 	mov    %rax,-0xa88(%rbp)
    6e73:	48 c7 85 80 f5 ff ff 	movq   $0x0,-0xa80(%rbp)
    6e7a:	00 00 00 00 
    6e7e:	48 8d 85 30 f2 ff ff 	lea    -0xdd0(%rbp),%rax
    6e85:	48 83 e8 80          	sub    $0xffffffffffffff80,%rax
    6e89:	48 89 85 88 f5 ff ff 	mov    %rax,-0xa78(%rbp)
    6e90:	48 8d 85 30 f2 ff ff 	lea    -0xdd0(%rbp),%rax
    6e97:	48 83 c0 40          	add    $0x40,%rax
    6e9b:	48 89 85 90 f5 ff ff 	mov    %rax,-0xa70(%rbp)
    6ea2:	48 8d 85 e8 f1 ff ff 	lea    -0xe18(%rbp),%rax
    6ea9:	48 89 85 98 f5 ff ff 	mov    %rax,-0xa68(%rbp)
    6eb0:	48 8d 05 e9 ff 00 00 	lea    0xffe9(%rip),%rax        # 16ea0 <g_50>
    6eb7:	48 89 85 a0 f5 ff ff 	mov    %rax,-0xa60(%rbp)
    6ebe:	48 c7 85 a8 f5 ff ff 	movq   $0x0,-0xa58(%rbp)
    6ec5:	00 00 00 00 
    6ec9:	48 8d 85 30 f2 ff ff 	lea    -0xdd0(%rbp),%rax
    6ed0:	48 83 e8 80          	sub    $0xffffffffffffff80,%rax
    6ed4:	48 89 85 b0 f5 ff ff 	mov    %rax,-0xa50(%rbp)
    6edb:	48 8d 85 30 f2 ff ff 	lea    -0xdd0(%rbp),%rax
    6ee2:	48 83 c0 40          	add    $0x40,%rax
    6ee6:	48 89 85 b8 f5 ff ff 	mov    %rax,-0xa48(%rbp)
    6eed:	48 8d 85 e8 f1 ff ff 	lea    -0xe18(%rbp),%rax
    6ef4:	48 89 85 c0 f5 ff ff 	mov    %rax,-0xa40(%rbp)
    6efb:	48 8d 05 9e ff 00 00 	lea    0xff9e(%rip),%rax        # 16ea0 <g_50>
    6f02:	48 89 85 c8 f5 ff ff 	mov    %rax,-0xa38(%rbp)
    6f09:	48 8d 85 30 f2 ff ff 	lea    -0xdd0(%rbp),%rax
    6f10:	48 83 c0 40          	add    $0x40,%rax
    6f14:	48 89 85 d0 f5 ff ff 	mov    %rax,-0xa30(%rbp)
    6f1b:	48 8d 05 7e ff 00 00 	lea    0xff7e(%rip),%rax        # 16ea0 <g_50>
    6f22:	48 89 85 d8 f5 ff ff 	mov    %rax,-0xa28(%rbp)
    6f29:	48 8d 85 30 f2 ff ff 	lea    -0xdd0(%rbp),%rax
    6f30:	48 83 c0 70          	add    $0x70,%rax
    6f34:	48 89 85 e0 f5 ff ff 	mov    %rax,-0xa20(%rbp)
    6f3b:	48 8d 85 30 f2 ff ff 	lea    -0xdd0(%rbp),%rax
    6f42:	48 83 c0 40          	add    $0x40,%rax
    6f46:	48 89 85 e8 f5 ff ff 	mov    %rax,-0xa18(%rbp)
    6f4d:	48 c7 85 f0 f5 ff ff 	movq   $0x0,-0xa10(%rbp)
    6f54:	00 00 00 00 
    6f58:	48 8d 85 e8 f1 ff ff 	lea    -0xe18(%rbp),%rax
    6f5f:	48 89 85 f8 f5 ff ff 	mov    %rax,-0xa08(%rbp)
    6f66:	48 8d 85 30 f2 ff ff 	lea    -0xdd0(%rbp),%rax
    6f6d:	48 83 c0 40          	add    $0x40,%rax
    6f71:	48 89 85 00 f6 ff ff 	mov    %rax,-0xa00(%rbp)
    6f78:	48 8d 85 30 f2 ff ff 	lea    -0xdd0(%rbp),%rax
    6f7f:	48 83 c0 40          	add    $0x40,%rax
    6f83:	48 89 85 08 f6 ff ff 	mov    %rax,-0x9f8(%rbp)
    6f8a:	48 8d 85 30 f2 ff ff 	lea    -0xdd0(%rbp),%rax
    6f91:	48 83 c0 40          	add    $0x40,%rax
    6f95:	48 89 85 10 f6 ff ff 	mov    %rax,-0x9f0(%rbp)
    6f9c:	48 c7 85 18 f6 ff ff 	movq   $0x0,-0x9e8(%rbp)
    6fa3:	00 00 00 00 
    6fa7:	48 8d 85 30 f2 ff ff 	lea    -0xdd0(%rbp),%rax
    6fae:	48 83 c0 40          	add    $0x40,%rax
    6fb2:	48 89 85 20 f6 ff ff 	mov    %rax,-0x9e0(%rbp)
    6fb9:	48 8d 85 30 f2 ff ff 	lea    -0xdd0(%rbp),%rax
    6fc0:	48 83 c0 40          	add    $0x40,%rax
    6fc4:	48 89 85 28 f6 ff ff 	mov    %rax,-0x9d8(%rbp)
    6fcb:	48 8d 85 30 f2 ff ff 	lea    -0xdd0(%rbp),%rax
    6fd2:	48 83 c0 40          	add    $0x40,%rax
    6fd6:	48 89 85 30 f6 ff ff 	mov    %rax,-0x9d0(%rbp)
    6fdd:	48 8d 85 e8 f1 ff ff 	lea    -0xe18(%rbp),%rax
    6fe4:	48 89 85 38 f6 ff ff 	mov    %rax,-0x9c8(%rbp)
    6feb:	48 8d 85 e8 f1 ff ff 	lea    -0xe18(%rbp),%rax
    6ff2:	48 89 85 40 f6 ff ff 	mov    %rax,-0x9c0(%rbp)
    6ff9:	48 8d 85 30 f2 ff ff 	lea    -0xdd0(%rbp),%rax
    7000:	48 83 c0 48          	add    $0x48,%rax
    7004:	48 89 85 48 f6 ff ff 	mov    %rax,-0x9b8(%rbp)
    700b:	48 8d 85 30 f2 ff ff 	lea    -0xdd0(%rbp),%rax
    7012:	48 83 c0 40          	add    $0x40,%rax
    7016:	48 89 85 50 f6 ff ff 	mov    %rax,-0x9b0(%rbp)
    701d:	48 c7 85 58 f6 ff ff 	movq   $0x0,-0x9a8(%rbp)
    7024:	00 00 00 00 
    7028:	48 8d 85 30 f2 ff ff 	lea    -0xdd0(%rbp),%rax
    702f:	48 83 c0 40          	add    $0x40,%rax
    7033:	48 89 85 60 f6 ff ff 	mov    %rax,-0x9a0(%rbp)
    703a:	48 8d 85 e8 f1 ff ff 	lea    -0xe18(%rbp),%rax
    7041:	48 89 85 68 f6 ff ff 	mov    %rax,-0x998(%rbp)
    7048:	48 c7 85 70 f6 ff ff 	movq   $0x0,-0x990(%rbp)
    704f:	00 00 00 00 
    7053:	48 8d 85 30 f2 ff ff 	lea    -0xdd0(%rbp),%rax
    705a:	48 83 c0 40          	add    $0x40,%rax
    705e:	48 89 85 78 f6 ff ff 	mov    %rax,-0x988(%rbp)
    7065:	48 8d 85 30 f2 ff ff 	lea    -0xdd0(%rbp),%rax
    706c:	48 83 c0 40          	add    $0x40,%rax
    7070:	48 89 85 80 f6 ff ff 	mov    %rax,-0x980(%rbp)
    7077:	48 8d 05 22 fe 00 00 	lea    0xfe22(%rip),%rax        # 16ea0 <g_50>
    707e:	48 89 85 88 f6 ff ff 	mov    %rax,-0x978(%rbp)
    7085:	48 8d 85 e8 f1 ff ff 	lea    -0xe18(%rbp),%rax
    708c:	48 89 85 90 f6 ff ff 	mov    %rax,-0x970(%rbp)
    7093:	48 c7 85 98 f6 ff ff 	movq   $0x0,-0x968(%rbp)
    709a:	00 00 00 00 
    709e:	48 8d 85 30 f2 ff ff 	lea    -0xdd0(%rbp),%rax
    70a5:	48 83 c0 40          	add    $0x40,%rax
    70a9:	48 89 85 a0 f6 ff ff 	mov    %rax,-0x960(%rbp)
    70b0:	48 8d 85 30 f2 ff ff 	lea    -0xdd0(%rbp),%rax
    70b7:	48 83 c0 40          	add    $0x40,%rax
    70bb:	48 89 85 a8 f6 ff ff 	mov    %rax,-0x958(%rbp)
    70c2:	48 8d 05 d7 fd 00 00 	lea    0xfdd7(%rip),%rax        # 16ea0 <g_50>
    70c9:	48 89 85 b0 f6 ff ff 	mov    %rax,-0x950(%rbp)
    70d0:	48 8d 85 e8 f1 ff ff 	lea    -0xe18(%rbp),%rax
    70d7:	48 89 85 b8 f6 ff ff 	mov    %rax,-0x948(%rbp)
    70de:	48 8d 85 30 f2 ff ff 	lea    -0xdd0(%rbp),%rax
    70e5:	48 05 88 00 00 00    	add    $0x88,%rax
    70eb:	48 89 85 c0 f6 ff ff 	mov    %rax,-0x940(%rbp)
    70f2:	48 8d 85 e8 f1 ff ff 	lea    -0xe18(%rbp),%rax
    70f9:	48 89 85 c8 f6 ff ff 	mov    %rax,-0x938(%rbp)
    7100:	48 8d 85 e8 f1 ff ff 	lea    -0xe18(%rbp),%rax
    7107:	48 89 85 d0 f6 ff ff 	mov    %rax,-0x930(%rbp)
    710e:	48 8d 85 30 f2 ff ff 	lea    -0xdd0(%rbp),%rax
    7115:	48 05 88 00 00 00    	add    $0x88,%rax
    711b:	48 89 85 d8 f6 ff ff 	mov    %rax,-0x928(%rbp)
    7122:	48 8d 85 e8 f1 ff ff 	lea    -0xe18(%rbp),%rax
    7129:	48 89 85 e0 f6 ff ff 	mov    %rax,-0x920(%rbp)
    7130:	48 8d 85 30 f2 ff ff 	lea    -0xdd0(%rbp),%rax
    7137:	48 83 c0 40          	add    $0x40,%rax
    713b:	48 89 85 e8 f6 ff ff 	mov    %rax,-0x918(%rbp)
    7142:	48 8d 85 30 f2 ff ff 	lea    -0xdd0(%rbp),%rax
    7149:	48 83 c0 40          	add    $0x40,%rax
    714d:	48 89 85 f0 f6 ff ff 	mov    %rax,-0x910(%rbp)
    7154:	48 8d 85 e8 f1 ff ff 	lea    -0xe18(%rbp),%rax
    715b:	48 89 85 f8 f6 ff ff 	mov    %rax,-0x908(%rbp)
    7162:	48 8d 85 30 f2 ff ff 	lea    -0xdd0(%rbp),%rax
    7169:	48 83 c0 40          	add    $0x40,%rax
    716d:	48 89 85 00 f7 ff ff 	mov    %rax,-0x900(%rbp)
    7174:	48 8d 85 30 f2 ff ff 	lea    -0xdd0(%rbp),%rax
    717b:	48 83 c0 40          	add    $0x40,%rax
    717f:	48 89 85 08 f7 ff ff 	mov    %rax,-0x8f8(%rbp)
    7186:	48 8d 05 13 fd 00 00 	lea    0xfd13(%rip),%rax        # 16ea0 <g_50>
    718d:	48 89 85 10 f7 ff ff 	mov    %rax,-0x8f0(%rbp)
    7194:	48 8d 85 30 f2 ff ff 	lea    -0xdd0(%rbp),%rax
    719b:	48 83 c0 40          	add    $0x40,%rax
    719f:	48 89 85 18 f7 ff ff 	mov    %rax,-0x8e8(%rbp)
    71a6:	48 8d 85 30 f2 ff ff 	lea    -0xdd0(%rbp),%rax
    71ad:	48 83 c0 40          	add    $0x40,%rax
    71b1:	48 89 85 20 f7 ff ff 	mov    %rax,-0x8e0(%rbp)
    71b8:	48 c7 85 28 f7 ff ff 	movq   $0x0,-0x8d8(%rbp)
    71bf:	00 00 00 00 
    71c3:	48 8d 85 e8 f1 ff ff 	lea    -0xe18(%rbp),%rax
    71ca:	48 89 85 30 f7 ff ff 	mov    %rax,-0x8d0(%rbp)
    71d1:	48 8d 85 e8 f1 ff ff 	lea    -0xe18(%rbp),%rax
    71d8:	48 89 85 38 f7 ff ff 	mov    %rax,-0x8c8(%rbp)
    71df:	48 8d 85 30 f2 ff ff 	lea    -0xdd0(%rbp),%rax
    71e6:	48 83 c0 40          	add    $0x40,%rax
    71ea:	48 89 85 40 f7 ff ff 	mov    %rax,-0x8c0(%rbp)
    71f1:	48 8d 85 30 f2 ff ff 	lea    -0xdd0(%rbp),%rax
    71f8:	48 83 c0 40          	add    $0x40,%rax
    71fc:	48 89 85 48 f7 ff ff 	mov    %rax,-0x8b8(%rbp)
    7203:	48 8d 05 96 fc 00 00 	lea    0xfc96(%rip),%rax        # 16ea0 <g_50>
    720a:	48 89 85 50 f7 ff ff 	mov    %rax,-0x8b0(%rbp)
    7211:	48 8d 85 e8 f1 ff ff 	lea    -0xe18(%rbp),%rax
    7218:	48 89 85 58 f7 ff ff 	mov    %rax,-0x8a8(%rbp)
    721f:	48 8d 85 e8 f1 ff ff 	lea    -0xe18(%rbp),%rax
    7226:	48 89 85 60 f7 ff ff 	mov    %rax,-0x8a0(%rbp)
    722d:	48 8d 85 30 f2 ff ff 	lea    -0xdd0(%rbp),%rax
    7234:	48 05 88 00 00 00    	add    $0x88,%rax
    723a:	48 89 85 68 f7 ff ff 	mov    %rax,-0x898(%rbp)
    7241:	48 8d 85 30 f2 ff ff 	lea    -0xdd0(%rbp),%rax
    7248:	48 83 c0 40          	add    $0x40,%rax
    724c:	48 89 85 70 f7 ff ff 	mov    %rax,-0x890(%rbp)
    7253:	48 8d 85 30 f2 ff ff 	lea    -0xdd0(%rbp),%rax
    725a:	48 83 c0 78          	add    $0x78,%rax
    725e:	48 89 85 78 f7 ff ff 	mov    %rax,-0x888(%rbp)
    7265:	48 8d 85 e8 f1 ff ff 	lea    -0xe18(%rbp),%rax
    726c:	48 89 85 80 f7 ff ff 	mov    %rax,-0x880(%rbp)
    7273:	48 8d 85 e8 f1 ff ff 	lea    -0xe18(%rbp),%rax
    727a:	48 89 85 88 f7 ff ff 	mov    %rax,-0x878(%rbp)
    7281:	48 8d 85 30 f2 ff ff 	lea    -0xdd0(%rbp),%rax
    7288:	48 05 88 00 00 00    	add    $0x88,%rax
    728e:	48 89 85 90 f7 ff ff 	mov    %rax,-0x870(%rbp)
    7295:	48 8d 85 30 f2 ff ff 	lea    -0xdd0(%rbp),%rax
    729c:	48 83 c0 40          	add    $0x40,%rax
    72a0:	48 89 85 98 f7 ff ff 	mov    %rax,-0x868(%rbp)
    72a7:	48 8d 85 30 f2 ff ff 	lea    -0xdd0(%rbp),%rax
    72ae:	48 83 c0 78          	add    $0x78,%rax
    72b2:	48 89 85 a0 f7 ff ff 	mov    %rax,-0x860(%rbp)
    72b9:	48 8d 85 e8 f1 ff ff 	lea    -0xe18(%rbp),%rax
    72c0:	48 89 85 a8 f7 ff ff 	mov    %rax,-0x858(%rbp)
    72c7:	48 8d 85 30 f2 ff ff 	lea    -0xdd0(%rbp),%rax
    72ce:	48 83 c0 48          	add    $0x48,%rax
    72d2:	48 89 85 b0 f7 ff ff 	mov    %rax,-0x850(%rbp)
    72d9:	48 8d 85 30 f2 ff ff 	lea    -0xdd0(%rbp),%rax
    72e0:	48 83 c0 68          	add    $0x68,%rax
    72e4:	48 89 85 b8 f7 ff ff 	mov    %rax,-0x848(%rbp)
    72eb:	48 8d 85 30 f2 ff ff 	lea    -0xdd0(%rbp),%rax
    72f2:	48 05 88 00 00 00    	add    $0x88,%rax
    72f8:	48 89 85 c0 f7 ff ff 	mov    %rax,-0x840(%rbp)
    72ff:	48 8d 85 30 f2 ff ff 	lea    -0xdd0(%rbp),%rax
    7306:	48 83 c0 40          	add    $0x40,%rax
    730a:	48 89 85 c8 f7 ff ff 	mov    %rax,-0x838(%rbp)
    7311:	48 8d 85 e8 f1 ff ff 	lea    -0xe18(%rbp),%rax
    7318:	48 89 85 d0 f7 ff ff 	mov    %rax,-0x830(%rbp)
    731f:	48 8d 85 30 f2 ff ff 	lea    -0xdd0(%rbp),%rax
    7326:	48 83 c0 78          	add    $0x78,%rax
    732a:	48 89 85 d8 f7 ff ff 	mov    %rax,-0x828(%rbp)
    7331:	48 c7 85 e0 f7 ff ff 	movq   $0x0,-0x820(%rbp)
    7338:	00 00 00 00 
    733c:	48 c7 85 e8 f7 ff ff 	movq   $0x0,-0x818(%rbp)
    7343:	00 00 00 00 
    7347:	48 8d 85 e8 f1 ff ff 	lea    -0xe18(%rbp),%rax
    734e:	48 89 85 f0 f7 ff ff 	mov    %rax,-0x810(%rbp)
    7355:	48 8d 85 30 f2 ff ff 	lea    -0xdd0(%rbp),%rax
    735c:	48 83 c0 40          	add    $0x40,%rax
    7360:	48 89 85 f8 f7 ff ff 	mov    %rax,-0x808(%rbp)
    7367:	48 c7 85 00 f8 ff ff 	movq   $0x0,-0x800(%rbp)
    736e:	00 00 00 00 
    7372:	48 8d 85 30 f2 ff ff 	lea    -0xdd0(%rbp),%rax
    7379:	48 83 c0 40          	add    $0x40,%rax
    737d:	48 89 85 08 f8 ff ff 	mov    %rax,-0x7f8(%rbp)
    7384:	48 8d 85 e8 f1 ff ff 	lea    -0xe18(%rbp),%rax
    738b:	48 89 85 10 f8 ff ff 	mov    %rax,-0x7f0(%rbp)
    7392:	48 8d 05 07 fb 00 00 	lea    0xfb07(%rip),%rax        # 16ea0 <g_50>
    7399:	48 89 85 18 f8 ff ff 	mov    %rax,-0x7e8(%rbp)
    73a0:	48 8d 85 e8 f1 ff ff 	lea    -0xe18(%rbp),%rax
    73a7:	48 89 85 20 f8 ff ff 	mov    %rax,-0x7e0(%rbp)
    73ae:	48 8d 05 eb fa 00 00 	lea    0xfaeb(%rip),%rax        # 16ea0 <g_50>
    73b5:	48 89 85 28 f8 ff ff 	mov    %rax,-0x7d8(%rbp)
    73bc:	48 8d 85 30 f2 ff ff 	lea    -0xdd0(%rbp),%rax
    73c3:	48 83 c0 40          	add    $0x40,%rax
    73c7:	48 89 85 30 f8 ff ff 	mov    %rax,-0x7d0(%rbp)
    73ce:	48 8d 85 30 f2 ff ff 	lea    -0xdd0(%rbp),%rax
    73d5:	48 83 c0 40          	add    $0x40,%rax
    73d9:	48 89 85 38 f8 ff ff 	mov    %rax,-0x7c8(%rbp)
    73e0:	48 8d 85 e8 f1 ff ff 	lea    -0xe18(%rbp),%rax
    73e7:	48 89 85 40 f8 ff ff 	mov    %rax,-0x7c0(%rbp)
    73ee:	48 8d 85 e8 f1 ff ff 	lea    -0xe18(%rbp),%rax
    73f5:	48 89 85 48 f8 ff ff 	mov    %rax,-0x7b8(%rbp)
    73fc:	48 8d 85 30 f2 ff ff 	lea    -0xdd0(%rbp),%rax
    7403:	48 83 c0 40          	add    $0x40,%rax
    7407:	48 89 85 50 f8 ff ff 	mov    %rax,-0x7b0(%rbp)
    740e:	48 8d 85 e8 f1 ff ff 	lea    -0xe18(%rbp),%rax
    7415:	48 89 85 58 f8 ff ff 	mov    %rax,-0x7a8(%rbp)
    741c:	48 8d 85 e8 f1 ff ff 	lea    -0xe18(%rbp),%rax
    7423:	48 89 85 60 f8 ff ff 	mov    %rax,-0x7a0(%rbp)
    742a:	48 8d 85 30 f2 ff ff 	lea    -0xdd0(%rbp),%rax
    7431:	48 83 c0 40          	add    $0x40,%rax
    7435:	48 89 85 68 f8 ff ff 	mov    %rax,-0x798(%rbp)
    743c:	48 8d 05 9f e6 00 00 	lea    0xe69f(%rip),%rax        # 15ae2 <g_1029>
    7443:	48 89 85 20 f2 ff ff 	mov    %rax,-0xde0(%rbp)
    744a:	48 8d 85 70 f8 ff ff 	lea    -0x790(%rbp),%rax
    7451:	48 8d 15 48 e7 00 00 	lea    0xe748(%rip),%rdx        # 15ba0 <g_1532+0x10>
    7458:	b9 f0 00 00 00       	mov    $0xf0,%ecx
    745d:	48 89 c7             	mov    %rax,%rdi
    7460:	48 89 d6             	mov    %rdx,%rsi
    7463:	f3 48 a5             	rep movsq %ds:(%rsi),%es:(%rdi)
    7466:	48 8d 85 e0 f1 ff ff 	lea    -0xe20(%rbp),%rax
    746d:	48 89 85 28 f2 ff ff 	mov    %rax,-0xdd8(%rbp)
    7474:	8b 05 9e dc 00 00    	mov    0xdc9e(%rip),%eax        # 15118 <g_4>
    747a:	83 c0 01             	add    $0x1,%eax
    747d:	89 05 95 dc 00 00    	mov    %eax,0xdc95(%rip)        # 15118 <g_4>
    7483:	8b 05 8f dc 00 00    	mov    0xdc8f(%rip),%eax        # 15118 <g_4>
    7489:	83 f8 07             	cmp    $0x7,%eax
    748c:	0f 8e 8f f4 ff ff    	jle    6921 <func_1+0x16c>
    7492:	48 8b 05 47 fa 00 00 	mov    0xfa47(%rip),%rax        # 16ee0 <g_221>
    7499:	48 8b 00             	mov    (%rax),%rax
    749c:	8b 00                	mov    (%rax),%eax
    749e:	48 8b 55 f8          	mov    -0x8(%rbp),%rdx
    74a2:	64 48 33 14 25 28 00 	xor    %fs:0x28,%rdx
    74a9:	00 00 
    74ab:	74 05                	je     74b2 <func_1+0xcfd>
    74ad:	e8 be db ff ff       	callq  5070 <__stack_chk_fail@plt>
    74b2:	c9                   	leaveq 
    74b3:	c3                   	retq   

00000000000074b4 <func_7>:
    74b4:	f3 0f 1e fa          	endbr64 
    74b8:	55                   	push   %rbp
    74b9:	48 89 e5             	mov    %rsp,%rbp
    74bc:	48 81 ec 80 02 00 00 	sub    $0x280,%rsp
    74c3:	48 89 bd 88 fd ff ff 	mov    %rdi,-0x278(%rbp)
    74ca:	89 b5 84 fd ff ff    	mov    %esi,-0x27c(%rbp)
    74d0:	64 48 8b 04 25 28 00 	mov    %fs:0x28,%rax
    74d7:	00 00 
    74d9:	48 89 45 f8          	mov    %rax,-0x8(%rbp)
    74dd:	31 c0                	xor    %eax,%eax
    74df:	66 c7 85 94 fd ff ff 	movw   $0x155c,-0x26c(%rbp)
    74e6:	5c 15 
    74e8:	48 8d 05 05 e0 00 00 	lea    0xe005(%rip),%rax        # 154f4 <g_440>
    74ef:	48 89 85 98 fd ff ff 	mov    %rax,-0x268(%rbp)
    74f6:	48 8d 85 60 fe ff ff 	lea    -0x1a0(%rbp),%rax
    74fd:	48 8d 15 1c ee 00 00 	lea    0xee1c(%rip),%rdx        # 16320 <g_1532+0x790>
    7504:	b9 32 00 00 00       	mov    $0x32,%ecx
    7509:	48 89 c7             	mov    %rax,%rdi
    750c:	48 89 d6             	mov    %rdx,%rsi
    750f:	f3 48 a5             	rep movsq %ds:(%rsi),%es:(%rdi)
    7512:	c7 85 a0 fd ff ff 01 	movl   $0x1,-0x260(%rbp)
    7519:	00 00 00 
    751c:	c7 85 a4 fd ff ff fa 	movl   $0xfffffffa,-0x25c(%rbp)
    7523:	ff ff ff 
    7526:	c7 85 a8 fd ff ff 11 	movl   $0x3f96211,-0x258(%rbp)
    752d:	62 f9 03 
    7530:	c7 85 ac fd ff ff 01 	movl   $0x1,-0x254(%rbp)
    7537:	00 00 00 
    753a:	c7 85 b0 fd ff ff f9 	movl   $0xfffffff9,-0x250(%rbp)
    7541:	ff ff ff 
    7544:	c7 85 b4 fd ff ff 00 	movl   $0x0,-0x24c(%rbp)
    754b:	00 00 00 
    754e:	c7 85 b8 fd ff ff 01 	movl   $0x1,-0x248(%rbp)
    7555:	00 00 00 
    7558:	c7 85 bc fd ff ff 01 	movl   $0x1,-0x244(%rbp)
    755f:	00 00 00 
    7562:	c7 85 c0 fd ff ff 01 	movl   $0x1,-0x240(%rbp)
    7569:	00 00 00 
    756c:	c7 85 c4 fd ff ff 00 	movl   $0x0,-0x23c(%rbp)
    7573:	00 00 00 
    7576:	c7 85 c8 fd ff ff 11 	movl   $0x3f96211,-0x238(%rbp)
    757d:	62 f9 03 
    7580:	c7 85 cc fd ff ff 87 	movl   $0xb73e087,-0x234(%rbp)
    7587:	e0 73 0b 
    758a:	c7 85 d0 fd ff ff fa 	movl   $0xfffffffa,-0x230(%rbp)
    7591:	ff ff ff 
    7594:	c7 85 d4 fd ff ff f9 	movl   $0xfffffff9,-0x22c(%rbp)
    759b:	ff ff ff 
    759e:	c7 85 d8 fd ff ff 87 	movl   $0xb73e087,-0x228(%rbp)
    75a5:	e0 73 0b 
    75a8:	c7 85 dc fd ff ff 00 	movl   $0x0,-0x224(%rbp)
    75af:	00 00 00 
    75b2:	c7 85 e0 fd ff ff fa 	movl   $0xfffffffa,-0x220(%rbp)
    75b9:	ff ff ff 
    75bc:	c7 85 e4 fd ff ff fa 	movl   $0xfffffffa,-0x21c(%rbp)
    75c3:	ff ff ff 
    75c6:	c7 85 e8 fd ff ff 00 	movl   $0x0,-0x218(%rbp)
    75cd:	00 00 00 
    75d0:	c7 85 ec fd ff ff f9 	movl   $0xfffffff9,-0x214(%rbp)
    75d7:	ff ff ff 
    75da:	c7 85 f0 fd ff ff 01 	movl   $0x1,-0x210(%rbp)
    75e1:	00 00 00 
    75e4:	c7 85 f4 fd ff ff 00 	movl   $0x0,-0x20c(%rbp)
    75eb:	00 00 00 
    75ee:	c7 85 f8 fd ff ff 87 	movl   $0xb73e087,-0x208(%rbp)
    75f5:	e0 73 0b 
    75f8:	c7 85 fc fd ff ff 11 	movl   $0x3f96211,-0x204(%rbp)
    75ff:	62 f9 03 
    7602:	c7 85 00 fe ff ff 11 	movl   $0x3f96211,-0x200(%rbp)
    7609:	62 f9 03 
    760c:	c7 85 04 fe ff ff 00 	movl   $0x0,-0x1fc(%rbp)
    7613:	00 00 00 
    7616:	c7 85 08 fe ff ff fa 	movl   $0xfffffffa,-0x1f8(%rbp)
    761d:	ff ff ff 
    7620:	c7 85 0c fe ff ff 00 	movl   $0x0,-0x1f4(%rbp)
    7627:	00 00 00 
    762a:	c7 85 10 fe ff ff 10 	movl   $0x976b9310,-0x1f0(%rbp)
    7631:	93 6b 97 
    7634:	c7 85 14 fe ff ff fa 	movl   $0xfffffffa,-0x1ec(%rbp)
    763b:	ff ff ff 
    763e:	c7 85 18 fe ff ff 11 	movl   $0x3f96211,-0x1e8(%rbp)
    7645:	62 f9 03 
    7648:	c7 85 1c fe ff ff 01 	movl   $0x1,-0x1e4(%rbp)
    764f:	00 00 00 
    7652:	c7 85 20 fe ff ff 10 	movl   $0x976b9310,-0x1e0(%rbp)
    7659:	93 6b 97 
    765c:	c7 85 24 fe ff ff 11 	movl   $0x3f96211,-0x1dc(%rbp)
    7663:	62 f9 03 
    7666:	c7 85 28 fe ff ff 10 	movl   $0x976b9310,-0x1d8(%rbp)
    766d:	93 6b 97 
    7670:	c7 85 2c fe ff ff 11 	movl   $0x3f96211,-0x1d4(%rbp)
    7677:	62 f9 03 
    767a:	c7 85 30 fe ff ff 11 	movl   $0x3f96211,-0x1d0(%rbp)
    7681:	62 f9 03 
    7684:	c7 85 34 fe ff ff 87 	movl   $0xb73e087,-0x1cc(%rbp)
    768b:	e0 73 0b 
    768e:	c7 85 38 fe ff ff fa 	movl   $0xfffffffa,-0x1c8(%rbp)
    7695:	ff ff ff 
    7698:	c7 85 3c fe ff ff f9 	movl   $0xfffffff9,-0x1c4(%rbp)
    769f:	ff ff ff 
    76a2:	c7 85 40 fe ff ff 00 	movl   $0x0,-0x1c0(%rbp)
    76a9:	00 00 00 
    76ac:	c7 85 44 fe ff ff f9 	movl   $0xfffffff9,-0x1bc(%rbp)
    76b3:	ff ff ff 
    76b6:	c7 85 48 fe ff ff 10 	movl   $0x976b9310,-0x1b8(%rbp)
    76bd:	93 6b 97 
    76c0:	c7 85 4c fe ff ff 10 	movl   $0x976b9310,-0x1b4(%rbp)
    76c7:	93 6b 97 
    76ca:	c7 85 50 fe ff ff f9 	movl   $0xfffffff9,-0x1b0(%rbp)
    76d1:	ff ff ff 
    76d4:	66 c7 85 96 fd ff ff 	movw   $0x1,-0x26a(%rbp)
    76db:	01 00 
    76dd:	66 83 85 96 fd ff ff 	addw   $0x1,-0x26a(%rbp)
    76e4:	01 
    76e5:	48 8b 85 88 fd ff ff 	mov    -0x278(%rbp),%rax
    76ec:	48 8b 55 f8          	mov    -0x8(%rbp),%rdx
    76f0:	64 48 33 14 25 28 00 	xor    %fs:0x28,%rdx
    76f7:	00 00 
    76f9:	74 05                	je     7700 <func_7+0x24c>
    76fb:	e8 70 d9 ff ff       	callq  5070 <__stack_chk_fail@plt>
    7700:	c9                   	leaveq 
    7701:	c3                   	retq   

0000000000007702 <func_10>:
    7702:	f3 0f 1e fa          	endbr64 
    7706:	55                   	push   %rbp
    7707:	48 89 e5             	mov    %rsp,%rbp
    770a:	48 89 7d e8          	mov    %rdi,-0x18(%rbp)
    770e:	48 89 75 e0          	mov    %rsi,-0x20(%rbp)
    7712:	89 55 dc             	mov    %edx,-0x24(%rbp)
    7715:	c6 45 ff 99          	movb   $0x99,-0x1(%rbp)
    7719:	0f b6 45 ff          	movzbl -0x1(%rbp),%eax
    771d:	83 e8 01             	sub    $0x1,%eax
    7720:	88 45 ff             	mov    %al,-0x1(%rbp)
    7723:	48 8b 45 e8          	mov    -0x18(%rbp),%rax
    7727:	5d                   	pop    %rbp
    7728:	c3                   	retq   

0000000000007729 <func_14>:
    7729:	f3 0f 1e fa          	endbr64 
    772d:	55                   	push   %rbp
    772e:	48 89 e5             	mov    %rsp,%rbp
    7731:	41 57                	push   %r15
    7733:	41 56                	push   %r14
    7735:	41 55                	push   %r13
    7737:	41 54                	push   %r12
    7739:	53                   	push   %rbx
    773a:	48 81 ec 00 10 00 00 	sub    $0x1000,%rsp
    7741:	48 83 0c 24 00       	orq    $0x0,(%rsp)
    7746:	48 81 ec e8 03 00 00 	sub    $0x3e8,%rsp
    774d:	48 89 bd 18 ec ff ff 	mov    %rdi,-0x13e8(%rbp)
    7754:	48 89 b5 10 ec ff ff 	mov    %rsi,-0x13f0(%rbp)
    775b:	48 89 95 08 ec ff ff 	mov    %rdx,-0x13f8(%rbp)
    7762:	48 89 8d 00 ec ff ff 	mov    %rcx,-0x1400(%rbp)
    7769:	44 89 85 fc eb ff ff 	mov    %r8d,-0x1404(%rbp)
    7770:	64 48 8b 04 25 28 00 	mov    %fs:0x28,%rax
    7777:	00 00 
    7779:	48 89 45 c8          	mov    %rax,-0x38(%rbp)
    777d:	31 c0                	xor    %eax,%eax
    777f:	48 c7 85 c0 ec ff ff 	movq   $0x0,-0x1340(%rbp)
    7786:	00 00 00 00 
    778a:	48 8d 85 c0 ec ff ff 	lea    -0x1340(%rbp),%rax
    7791:	48 89 85 c8 ec ff ff 	mov    %rax,-0x1338(%rbp)
    7798:	48 8d 85 c8 ec ff ff 	lea    -0x1338(%rbp),%rax
    779f:	48 89 85 60 ee ff ff 	mov    %rax,-0x11a0(%rbp)
    77a6:	48 8d 85 c8 ec ff ff 	lea    -0x1338(%rbp),%rax
    77ad:	48 89 85 68 ee ff ff 	mov    %rax,-0x1198(%rbp)
    77b4:	48 8d 85 c8 ec ff ff 	lea    -0x1338(%rbp),%rax
    77bb:	48 89 85 70 ee ff ff 	mov    %rax,-0x1190(%rbp)
    77c2:	48 8d 85 c8 ec ff ff 	lea    -0x1338(%rbp),%rax
    77c9:	48 89 85 78 ee ff ff 	mov    %rax,-0x1188(%rbp)
    77d0:	48 8d 85 c8 ec ff ff 	lea    -0x1338(%rbp),%rax
    77d7:	48 89 85 80 ee ff ff 	mov    %rax,-0x1180(%rbp)
    77de:	48 8d 85 60 ee ff ff 	lea    -0x11a0(%rbp),%rax
    77e5:	48 89 85 18 ed ff ff 	mov    %rax,-0x12e8(%rbp)
    77ec:	c7 85 5c ec ff ff 8c 	movl   $0xb55f448c,-0x13a4(%rbp)
    77f3:	44 5f b5 
    77f6:	48 8d 05 2b 06 01 00 	lea    0x1062b(%rip),%rax        # 17e28 <g_1253+0x8>
    77fd:	48 89 85 20 ed ff ff 	mov    %rax,-0x12e0(%rbp)
    7804:	c7 85 60 ec ff ff bd 	movl   $0x29340bd,-0x13a0(%rbp)
    780b:	40 93 02 
    780e:	48 8d 05 cf da 00 00 	lea    0xdacf(%rip),%rax        # 152e4 <g_246>
    7815:	48 89 85 28 ed ff ff 	mov    %rax,-0x12d8(%rbp)
    781c:	48 c7 85 d0 ec ff ff 	movq   $0xfffffffffffffffb,-0x1330(%rbp)
    7823:	fb ff ff ff 
    7827:	48 8d 05 3a da 00 00 	lea    0xda3a(%rip),%rax        # 15268 <g_111>
    782e:	48 89 85 30 ed ff ff 	mov    %rax,-0x12d0(%rbp)
    7835:	c7 85 64 ec ff ff 82 	movl   $0xe7dbc082,-0x139c(%rbp)
    783c:	c0 db e7 
    783f:	c7 85 68 ec ff ff 01 	movl   $0x1bbd1701,-0x1398(%rbp)
    7846:	17 bd 1b 
    7849:	c7 85 34 ec ff ff 09 	movl   $0x9,-0x13cc(%rbp)
    7850:	00 00 00 
    7853:	c7 85 2c ec ff ff 01 	movl   $0x1,-0x13d4(%rbp)
    785a:	00 00 00 
    785d:	c6 85 23 ec ff ff 17 	movb   $0x17,-0x13dd(%rbp)
    7864:	c7 85 00 ee ff ff fd 	movl   $0x101fdfd,-0x1200(%rbp)
    786b:	fd 01 01 
    786e:	c7 85 04 ee ff ff ff 	movl   $0x98c0faff,-0x11fc(%rbp)
    7875:	fa c0 98 
    7878:	c7 85 08 ee ff ff 4c 	movl   $0xc001c04c,-0x11f8(%rbp)
    787f:	c0 01 c0 
    7882:	c7 85 0c ee ff ff 01 	movl   $0x984cc001,-0x11f4(%rbp)
    7889:	c0 4c 98 
    788c:	c7 85 10 ee ff ff c0 	movl   $0x1fffac0,-0x11f0(%rbp)
    7893:	fa ff 01 
    7896:	c7 85 14 ee ff ff 01 	movl   $0x1fdfd01,-0x11ec(%rbp)
    789d:	fd fd 01 
    78a0:	c7 85 18 ee ff ff 01 	movl   $0xfaff9801,-0x11e8(%rbp)
    78a7:	98 ff fa 
    78aa:	48 8d 05 6f f6 00 00 	lea    0xf66f(%rip),%rax        # 16f20 <g_366>
    78b1:	48 89 85 38 ed ff ff 	mov    %rax,-0x12c8(%rbp)
    78b8:	c7 85 30 ec ff ff 00 	movl   $0x0,-0x13d0(%rbp)
    78bf:	00 00 00 
    78c2:	c7 85 38 ec ff ff 00 	movl   $0x0,-0x13c8(%rbp)
    78c9:	00 00 00 
    78cc:	eb 1a                	jmp    78e8 <func_14+0x1bf>
    78ce:	8b 85 38 ec ff ff    	mov    -0x13c8(%rbp),%eax
    78d4:	48 98                	cltq   
    78d6:	c7 84 85 e0 ed ff ff 	movl   $0x3,-0x1220(%rbp,%rax,4)
    78dd:	03 00 00 00 
    78e1:	83 85 38 ec ff ff 01 	addl   $0x1,-0x13c8(%rbp)
    78e8:	83 bd 38 ec ff ff 04 	cmpl   $0x4,-0x13c8(%rbp)
    78ef:	7e dd                	jle    78ce <func_14+0x1a5>
    78f1:	8b 85 fc eb ff ff    	mov    -0x1404(%rbp),%eax
    78f7:	0f b6 d8             	movzbl %al,%ebx
    78fa:	0f b6 05 0f dc 00 00 	movzbl 0xdc0f(%rip),%eax        # 15510 <g_612>
    7901:	83 e0 01             	and    $0x1,%eax
    7904:	0f b6 d0             	movzbl %al,%edx
    7907:	48 83 bd 18 ed ff ff 	cmpq   $0x0,-0x12e8(%rbp)
    790e:	00 
    790f:	0f 95 c0             	setne  %al
    7912:	0f b6 c0             	movzbl %al,%eax
    7915:	89 85 5c ec ff ff    	mov    %eax,-0x13a4(%rbp)
    791b:	8b 85 5c ec ff ff    	mov    -0x13a4(%rbp),%eax
    7921:	98                   	cwtl   
    7922:	89 d6                	mov    %edx,%esi
    7924:	89 c7                	mov    %eax,%edi
    7926:	e8 38 dc ff ff       	callq  5563 <safe_rshift_func_int16_t_s_u>
    792b:	44 0f bf e0          	movswl %ax,%r12d
    792f:	48 c7 05 46 f8 00 00 	movq   $0x0,0xf846(%rip)        # 17180 <g_1247+0x20>
    7936:	00 00 00 00 
    793a:	48 8b 05 3f f8 00 00 	mov    0xf83f(%rip),%rax        # 17180 <g_1247+0x20>
    7941:	48 85 c0             	test   %rax,%rax
    7944:	0f 95 c0             	setne  %al
    7947:	44 0f b6 e8          	movzbl %al,%r13d
    794b:	48 8b 85 20 ed ff ff 	mov    -0x12e0(%rbp),%rax
    7952:	8b 10                	mov    (%rax),%edx
    7954:	48 8b 05 fd f7 00 00 	mov    0xf7fd(%rip),%rax        # 17158 <g_1176>
    795b:	8b 00                	mov    (%rax),%eax
    795d:	21 c2                	and    %eax,%edx
    795f:	48 8b 85 20 ed ff ff 	mov    -0x12e0(%rbp),%rax
    7966:	89 10                	mov    %edx,(%rax)
    7968:	8b 85 e4 ed ff ff    	mov    -0x121c(%rbp),%eax
    796e:	0b 85 fc eb ff ff    	or     -0x1404(%rbp),%eax
    7974:	85 c0                	test   %eax,%eax
    7976:	74 10                	je     7988 <func_14+0x25f>
    7978:	83 bd fc eb ff ff 00 	cmpl   $0x0,-0x1404(%rbp)
    797f:	74 07                	je     7988 <func_14+0x25f>
    7981:	b8 01 00 00 00       	mov    $0x1,%eax
    7986:	eb 05                	jmp    798d <func_14+0x264>
    7988:	b8 00 00 00 00       	mov    $0x0,%eax
    798d:	89 c2                	mov    %eax,%edx
    798f:	48 8b 05 aa f5 00 00 	mov    0xf5aa(%rip),%rax        # 16f40 <g_442>
    7996:	48 8b 00             	mov    (%rax),%rax
    7999:	8b 00                	mov    (%rax),%eax
    799b:	39 c2                	cmp    %eax,%edx
    799d:	0f 96 c0             	setbe  %al
    79a0:	0f b6 c0             	movzbl %al,%eax
    79a3:	89 85 e0 ed ff ff    	mov    %eax,-0x1220(%rbp)
    79a9:	8b 05 35 e1 00 00    	mov    0xe135(%rip),%eax        # 15ae4 <g_1050>
    79af:	0f b7 c0             	movzwl %ax,%eax
    79b2:	be 0e 00 00 00       	mov    $0xe,%esi
    79b7:	89 c7                	mov    %eax,%edi
    79b9:	e8 bc e4 ff ff       	callq  5e7a <safe_rshift_func_uint16_t_u_u>
    79be:	66 85 c0             	test   %ax,%ax
    79c1:	74 07                	je     79ca <func_14+0x2a1>
    79c3:	b8 01 00 00 00       	mov    $0x1,%eax
    79c8:	eb 05                	jmp    79cf <func_14+0x2a6>
    79ca:	b8 00 00 00 00       	mov    $0x0,%eax
    79cf:	89 c6                	mov    %eax,%esi
    79d1:	bf a6 ff ff ff       	mov    $0xffffffa6,%edi
    79d6:	e8 91 d9 ff ff       	callq  536c <safe_rshift_func_int8_t_s_u>
    79db:	0f be c0             	movsbl %al,%eax
    79de:	44 21 e8             	and    %r13d,%eax
    79e1:	41 39 c4             	cmp    %eax,%r12d
    79e4:	0f 9f c0             	setg   %al
    79e7:	0f b6 c0             	movzbl %al,%eax
    79ea:	39 85 fc eb ff ff    	cmp    %eax,-0x1404(%rbp)
    79f0:	7f 10                	jg     7a02 <func_14+0x2d9>
    79f2:	83 bd fc eb ff ff 00 	cmpl   $0x0,-0x1404(%rbp)
    79f9:	74 07                	je     7a02 <func_14+0x2d9>
    79fb:	b8 01 00 00 00       	mov    $0x1,%eax
    7a00:	eb 05                	jmp    7a07 <func_14+0x2de>
    7a02:	b8 00 00 00 00       	mov    $0x0,%eax
    7a07:	3b 85 fc eb ff ff    	cmp    -0x1404(%rbp),%eax
    7a0d:	0f 9d c0             	setge  %al
    7a10:	0f b6 c0             	movzbl %al,%eax
    7a13:	39 85 60 ec ff ff    	cmp    %eax,-0x13a0(%rbp)
    7a19:	0f 95 c0             	setne  %al
    7a1c:	0f b6 c0             	movzbl %al,%eax
    7a1f:	89 de                	mov    %ebx,%esi
    7a21:	89 c7                	mov    %eax,%edi
    7a23:	e8 6b e1 ff ff       	callq  5b93 <safe_mul_func_uint8_t_u_u>
    7a28:	48 8b 95 28 ed ff ff 	mov    -0x12d8(%rbp),%rdx
    7a2f:	8b 12                	mov    (%rdx),%edx
    7a31:	0f b6 c0             	movzbl %al,%eax
    7a34:	21 c2                	and    %eax,%edx
    7a36:	48 8b 85 28 ed ff ff 	mov    -0x12d8(%rbp),%rax
    7a3d:	89 10                	mov    %edx,(%rax)
    7a3f:	48 c7 85 d0 ec ff ff 	movq   $0x0,-0x1330(%rbp)
    7a46:	00 00 00 00 
    7a4a:	be 0d 00 00 00       	mov    $0xd,%esi
    7a4f:	bf ff ff 00 00       	mov    $0xffff,%edi
    7a54:	e8 ad e3 ff ff       	callq  5e06 <safe_lshift_func_uint16_t_u_u>
    7a59:	48 8b 05 98 f4 00 00 	mov    0xf498(%rip),%rax        # 16ef8 <g_334>
    7a60:	48 8b 00             	mov    (%rax),%rax
    7a63:	48 85 c0             	test   %rax,%rax
    7a66:	0f 94 c0             	sete   %al
    7a69:	0f b6 d0             	movzbl %al,%edx
    7a6c:	48 8b 85 28 ed ff ff 	mov    -0x12d8(%rbp),%rax
    7a73:	8b 00                	mov    (%rax),%eax
    7a75:	39 c2                	cmp    %eax,%edx
    7a77:	0f b6 05 02 df 00 00 	movzbl 0xdf02(%rip),%eax        # 15980 <g_927>
    7a7e:	83 e0 01             	and    $0x1,%eax
    7a81:	0f b6 d8             	movzbl %al,%ebx
    7a84:	be 05 00 00 00       	mov    $0x5,%esi
    7a89:	bf fd ff ff ff       	mov    $0xfffffffd,%edi
    7a8e:	e8 a2 d8 ff ff       	callq  5335 <safe_rshift_func_int8_t_s_s>
    7a93:	89 c2                	mov    %eax,%edx
    7a95:	48 8b 85 30 ed ff ff 	mov    -0x12d0(%rbp),%rax
    7a9c:	88 10                	mov    %dl,(%rax)
    7a9e:	48 8b 85 30 ed ff ff 	mov    -0x12d0(%rbp),%rax
    7aa5:	0f b6 00             	movzbl (%rax),%eax
    7aa8:	0f b6 c0             	movzbl %al,%eax
    7aab:	39 c3                	cmp    %eax,%ebx
    7aad:	48 8b 05 f4 f3 00 00 	mov    0xf3f4(%rip),%rax        # 16ea8 <g_172>
    7ab4:	8b 10                	mov    (%rax),%edx
    7ab6:	48 8b 85 28 ed ff ff 	mov    -0x12d8(%rbp),%rax
    7abd:	89 10                	mov    %edx,(%rax)
    7abf:	8b 85 fc eb ff ff    	mov    -0x1404(%rbp),%eax
    7ac5:	0f be c0             	movsbl %al,%eax
    7ac8:	be 02 00 00 00       	mov    $0x2,%esi
    7acd:	89 c7                	mov    %eax,%edi
    7acf:	e8 98 d8 ff ff       	callq  536c <safe_rshift_func_int8_t_s_u>
    7ad4:	48 8b 05 75 f6 00 00 	mov    0xf675(%rip),%rax        # 17150 <g_1019>
    7adb:	48 8b 00             	mov    (%rax),%rax
    7ade:	0f b6 00             	movzbl (%rax),%eax
    7ae1:	44 0f b6 e0          	movzbl %al,%r12d
    7ae5:	8b 85 fc eb ff ff    	mov    -0x1404(%rbp),%eax
    7aeb:	0f b7 d8             	movzwl %ax,%ebx
    7aee:	48 8b 05 fb f3 00 00 	mov    0xf3fb(%rip),%rax        # 16ef0 <g_335>
    7af5:	48 8b 00             	mov    (%rax),%rax
    7af8:	48 8b 10             	mov    (%rax),%rdx
    7afb:	48 8b 05 4e f4 00 00 	mov    0xf44e(%rip),%rax        # 16f50 <g_449>
    7b02:	0f b7 00             	movzwl (%rax),%eax
    7b05:	48 0f bf c0          	movswq %ax,%rax
    7b09:	48 39 c2             	cmp    %rax,%rdx
    7b0c:	0f 9e c0             	setle  %al
    7b0f:	0f b6 d0             	movzbl %al,%edx
    7b12:	48 8b 85 28 ed ff ff 	mov    -0x12d8(%rbp),%rax
    7b19:	8b 00                	mov    (%rax),%eax
    7b1b:	39 c2                	cmp    %eax,%edx
    7b1d:	0f 94 c0             	sete   %al
    7b20:	0f b6 c0             	movzbl %al,%eax
    7b23:	89 85 f0 ed ff ff    	mov    %eax,-0x1210(%rbp)
    7b29:	8b 85 f0 ed ff ff    	mov    -0x1210(%rbp),%eax
    7b2f:	85 c0                	test   %eax,%eax
    7b31:	74 14                	je     7b47 <func_14+0x41e>
    7b33:	48 8b 85 28 ed ff ff 	mov    -0x12d8(%rbp),%rax
    7b3a:	8b 00                	mov    (%rax),%eax
    7b3c:	85 c0                	test   %eax,%eax
    7b3e:	74 07                	je     7b47 <func_14+0x41e>
    7b40:	b8 01 00 00 00       	mov    $0x1,%eax
    7b45:	eb 05                	jmp    7b4c <func_14+0x423>
    7b47:	b8 00 00 00 00       	mov    $0x0,%eax
    7b4c:	3b 85 fc eb ff ff    	cmp    -0x1404(%rbp),%eax
    7b52:	0f 94 c0             	sete   %al
    7b55:	0f b6 d0             	movzbl %al,%edx
    7b58:	48 8b 85 28 ed ff ff 	mov    -0x12d8(%rbp),%rax
    7b5f:	8b 00                	mov    (%rax),%eax
    7b61:	48 98                	cltq   
    7b63:	48 89 d6             	mov    %rdx,%rsi
    7b66:	48 89 c7             	mov    %rax,%rdi
    7b69:	e8 c0 e4 ff ff       	callq  602e <safe_add_func_uint64_t_u_u>
    7b6e:	89 de                	mov    %ebx,%esi
    7b70:	bf 01 00 00 00       	mov    $0x1,%edi
    7b75:	e8 a5 e1 ff ff       	callq  5d1f <safe_sub_func_uint16_t_u_u>
    7b7a:	0f b7 d0             	movzwl %ax,%edx
    7b7d:	48 8b 85 28 ed ff ff 	mov    -0x12d8(%rbp),%rax
    7b84:	8b 00                	mov    (%rax),%eax
    7b86:	09 d0                	or     %edx,%eax
    7b88:	83 f8 05             	cmp    $0x5,%eax
    7b8b:	0f 95 c0             	setne  %al
    7b8e:	0f b6 c0             	movzbl %al,%eax
    7b91:	41 39 c4             	cmp    %eax,%r12d
    7b94:	0f 95 c2             	setne  %dl
    7b97:	48 8b 05 2a f3 00 00 	mov    0xf32a(%rip),%rax        # 16ec8 <g_195>
    7b9e:	0f b6 d2             	movzbl %dl,%edx
    7ba1:	89 10                	mov    %edx,(%rax)
    7ba3:	48 8d 05 3a d7 00 00 	lea    0xd73a(%rip),%rax        # 152e4 <g_246>
    7baa:	48 89 85 40 ed ff ff 	mov    %rax,-0x12c0(%rbp)
    7bb1:	48 8d 05 2c d7 00 00 	lea    0xd72c(%rip),%rax        # 152e4 <g_246>
    7bb8:	48 89 85 48 ed ff ff 	mov    %rax,-0x12b8(%rbp)
    7bbf:	48 8d 05 9a d5 00 00 	lea    0xd59a(%rip),%rax        # 15160 <g_28+0x40>
    7bc6:	48 89 85 d8 ec ff ff 	mov    %rax,-0x1328(%rbp)
    7bcd:	48 b8 27 2d ff f2 aa 	movabs $0x28af0faaf2ff2d27,%rax
    7bd4:	0f af 28 
    7bd7:	48 89 85 60 ef ff ff 	mov    %rax,-0x10a0(%rbp)
    7bde:	48 89 85 68 ef ff ff 	mov    %rax,-0x1098(%rbp)
    7be5:	48 89 85 70 ef ff ff 	mov    %rax,-0x1090(%rbp)
    7bec:	48 89 85 78 ef ff ff 	mov    %rax,-0x1088(%rbp)
    7bf3:	48 89 85 80 ef ff ff 	mov    %rax,-0x1080(%rbp)
    7bfa:	48 89 85 88 ef ff ff 	mov    %rax,-0x1078(%rbp)
    7c01:	48 89 85 90 ef ff ff 	mov    %rax,-0x1070(%rbp)
    7c08:	48 89 85 98 ef ff ff 	mov    %rax,-0x1068(%rbp)
    7c0f:	48 89 85 a0 ef ff ff 	mov    %rax,-0x1060(%rbp)
    7c16:	48 89 85 a8 ef ff ff 	mov    %rax,-0x1058(%rbp)
    7c1d:	48 89 85 b0 ef ff ff 	mov    %rax,-0x1050(%rbp)
    7c24:	48 89 85 b8 ef ff ff 	mov    %rax,-0x1048(%rbp)
    7c2b:	48 89 85 c0 ef ff ff 	mov    %rax,-0x1040(%rbp)
    7c32:	48 89 85 c8 ef ff ff 	mov    %rax,-0x1038(%rbp)
    7c39:	48 89 85 d0 ef ff ff 	mov    %rax,-0x1030(%rbp)
    7c40:	48 89 85 d8 ef ff ff 	mov    %rax,-0x1028(%rbp)
    7c47:	48 89 85 e0 ef ff ff 	mov    %rax,-0x1020(%rbp)
    7c4e:	48 89 85 e8 ef ff ff 	mov    %rax,-0x1018(%rbp)
    7c55:	48 89 85 f0 ef ff ff 	mov    %rax,-0x1010(%rbp)
    7c5c:	48 89 85 f8 ef ff ff 	mov    %rax,-0x1008(%rbp)
    7c63:	48 89 85 00 f0 ff ff 	mov    %rax,-0x1000(%rbp)
    7c6a:	48 89 85 08 f0 ff ff 	mov    %rax,-0xff8(%rbp)
    7c71:	48 89 85 10 f0 ff ff 	mov    %rax,-0xff0(%rbp)
    7c78:	48 89 85 18 f0 ff ff 	mov    %rax,-0xfe8(%rbp)
    7c7f:	48 8d 85 d0 ec ff ff 	lea    -0x1330(%rbp),%rax
    7c86:	48 89 85 50 ed ff ff 	mov    %rax,-0x12b0(%rbp)
    7c8d:	c6 85 22 ec ff ff 75 	movb   $0x75,-0x13de(%rbp)
    7c94:	c7 85 3c ec ff ff ff 	movl   $0xffffffff,-0x13c4(%rbp)
    7c9b:	ff ff ff 
    7c9e:	c6 85 24 ec ff ff 69 	movb   $0x69,-0x13dc(%rbp)
    7ca5:	48 c7 85 58 ed ff ff 	movq   $0x0,-0x12a8(%rbp)
    7cac:	00 00 00 00 
    7cb0:	48 8d 85 20 f0 ff ff 	lea    -0xfe0(%rbp),%rax
    7cb7:	48 8d 15 a2 83 00 00 	lea    0x83a2(%rip),%rdx        # 10060 <g_589+0x8>
    7cbe:	b9 1f 00 00 00       	mov    $0x1f,%ecx
    7cc3:	48 89 c7             	mov    %rax,%rdi
    7cc6:	48 89 d6             	mov    %rdx,%rsi
    7cc9:	f3 48 a5             	rep movsq %ds:(%rsi),%es:(%rdi)
    7ccc:	48 89 f2             	mov    %rsi,%rdx
    7ccf:	48 89 f8             	mov    %rdi,%rax
    7cd2:	8b 0a                	mov    (%rdx),%ecx
    7cd4:	89 08                	mov    %ecx,(%rax)
    7cd6:	48 8d 40 04          	lea    0x4(%rax),%rax
    7cda:	48 8d 52 04          	lea    0x4(%rdx),%rdx
    7cde:	66 c7 85 26 ec ff ff 	movw   $0xfffa,-0x13da(%rbp)
    7ce5:	fa ff 
    7ce7:	48 8d 05 02 f2 00 00 	lea    0xf202(%rip),%rax        # 16ef0 <g_335>
    7cee:	48 89 85 60 ed ff ff 	mov    %rax,-0x12a0(%rbp)
    7cf5:	c7 85 40 ec ff ff 00 	movl   $0x0,-0x13c0(%rbp)
    7cfc:	00 00 00 
    7cff:	eb 7e                	jmp    7d7f <func_14+0x656>
    7d01:	f3 0f 1e fa          	endbr64 
    7d05:	c7 05 d9 dd 00 00 16 	movl   $0x16,0xddd9(%rip)        # 15ae8 <g_1062>
    7d0c:	00 00 00 
    7d0f:	eb 40                	jmp    7d51 <func_14+0x628>
    7d11:	48 8b 05 90 f1 00 00 	mov    0xf190(%rip),%rax        # 16ea8 <g_172>
    7d18:	48 8b 95 28 ed ff ff 	mov    -0x12d8(%rbp),%rdx
    7d1f:	8b 12                	mov    (%rdx),%edx
    7d21:	89 10                	mov    %edx,(%rax)
    7d23:	48 8b 85 10 ec ff ff 	mov    -0x13f0(%rbp),%rax
    7d2a:	8b 00                	mov    (%rax),%eax
    7d2c:	85 c0                	test   %eax,%eax
    7d2e:	0f 85 80 15 00 00    	jne    92b4 <func_14+0x1b8b>
    7d34:	83 bd fc eb ff ff 00 	cmpl   $0x0,-0x1404(%rbp)
    7d3b:	74 05                	je     7d42 <func_14+0x619>
    7d3d:	e9 fd fc ff ff       	jmpq   7a3f <func_14+0x316>
    7d42:	8b 05 a0 dd 00 00    	mov    0xdda0(%rip),%eax        # 15ae8 <g_1062>
    7d48:	83 e8 01             	sub    $0x1,%eax
    7d4b:	89 05 97 dd 00 00    	mov    %eax,0xdd97(%rip)        # 15ae8 <g_1062>
    7d51:	8b 05 91 dd 00 00    	mov    0xdd91(%rip),%eax        # 15ae8 <g_1062>
    7d57:	83 f8 15             	cmp    $0x15,%eax
    7d5a:	75 b5                	jne    7d11 <func_14+0x5e8>
    7d5c:	e9 54 15 00 00       	jmpq   92b5 <func_14+0x1b8c>
    7d61:	8b 85 40 ec ff ff    	mov    -0x13c0(%rbp),%eax
    7d67:	48 98                	cltq   
    7d69:	48 8d 15 30 d4 00 00 	lea    0xd430(%rip),%rdx        # 151a0 <g_51>
    7d70:	48 89 94 c5 20 ee ff 	mov    %rdx,-0x11e0(%rbp,%rax,8)
    7d77:	ff 
    7d78:	83 85 40 ec ff ff 01 	addl   $0x1,-0x13c0(%rbp)
    7d7f:	83 bd 40 ec ff ff 03 	cmpl   $0x3,-0x13c0(%rbp)
    7d86:	7e d9                	jle    7d61 <func_14+0x638>
    7d88:	83 ad 34 ec ff ff 01 	subl   $0x1,-0x13cc(%rbp)
    7d8f:	48 8b 85 28 ed ff ff 	mov    -0x12d8(%rbp),%rax
    7d96:	8b 18                	mov    (%rax),%ebx
    7d98:	44 8b a5 fc eb ff ff 	mov    -0x1404(%rbp),%r12d
    7d9f:	48 8b 05 ba f1 00 00 	mov    0xf1ba(%rip),%rax        # 16f60 <g_447>
    7da6:	48 8b 00             	mov    (%rax),%rax
    7da9:	48 8b 00             	mov    (%rax),%rax
    7dac:	0f b7 00             	movzwl (%rax),%eax
    7daf:	44 0f b7 e8          	movzwl %ax,%r13d
    7db3:	8b 85 fc eb ff ff    	mov    -0x1404(%rbp),%eax
    7db9:	4c 63 f0             	movslq %eax,%r14
    7dbc:	8b 85 fc eb ff ff    	mov    -0x1404(%rbp),%eax
    7dc2:	44 0f b7 f8          	movzwl %ax,%r15d
    7dc6:	48 8b 05 e3 f3 00 00 	mov    0xf3e3(%rip),%rax        # 171b0 <g_1307>
    7dcd:	48 85 c0             	test   %rax,%rax
    7dd0:	0f 94 c0             	sete   %al
    7dd3:	0f b6 d0             	movzbl %al,%edx
    7dd6:	48 8b 85 20 ed ff ff 	mov    -0x12e0(%rbp),%rax
    7ddd:	89 10                	mov    %edx,(%rax)
    7ddf:	48 8b 05 e2 f0 00 00 	mov    0xf0e2(%rip),%rax        # 16ec8 <g_195>
    7de6:	8b 10                	mov    (%rax),%edx
    7de8:	48 8b 85 28 ed ff ff 	mov    -0x12d8(%rbp),%rax
    7def:	8b 00                	mov    (%rax),%eax
    7df1:	89 c1                	mov    %eax,%ecx
    7df3:	48 8b 05 ce f0 00 00 	mov    0xf0ce(%rip),%rax        # 16ec8 <g_195>
    7dfa:	21 ca                	and    %ecx,%edx
    7dfc:	89 10                	mov    %edx,(%rax)
    7dfe:	8b 00                	mov    (%rax),%eax
    7e00:	85 c0                	test   %eax,%eax
    7e02:	74 74                	je     7e78 <func_14+0x74f>
    7e04:	8b 85 fc eb ff ff    	mov    -0x1404(%rbp),%eax
    7e0a:	48 98                	cltq   
    7e0c:	48 89 85 f0 eb ff ff 	mov    %rax,-0x1410(%rbp)
    7e13:	0f b6 05 e6 da 00 00 	movzbl 0xdae6(%rip),%eax        # 15900 <g_651>
    7e1a:	83 e0 01             	and    $0x1,%eax
    7e1d:	84 c0                	test   %al,%al
    7e1f:	75 07                	jne    7e28 <func_14+0x6ff>
    7e21:	83 bd fc eb ff ff 00 	cmpl   $0x0,-0x1404(%rbp)
    7e28:	48 8b 05 19 f1 00 00 	mov    0xf119(%rip),%rax        # 16f48 <g_441>
    7e2f:	48 8b 00             	mov    (%rax),%rax
    7e32:	48 8b 00             	mov    (%rax),%rax
    7e35:	8b 00                	mov    (%rax),%eax
    7e37:	85 c0                	test   %eax,%eax
    7e39:	74 07                	je     7e42 <func_14+0x719>
    7e3b:	ba 01 00 00 00       	mov    $0x1,%edx
    7e40:	eb 05                	jmp    7e47 <func_14+0x71e>
    7e42:	ba 00 00 00 00       	mov    $0x0,%edx
    7e47:	48 8b 85 40 ed ff ff 	mov    -0x12c0(%rbp),%rax
    7e4e:	8b 00                	mov    (%rax),%eax
    7e50:	39 c2                	cmp    %eax,%edx
    7e52:	0f 9c c0             	setl   %al
    7e55:	0f b6 c0             	movzbl %al,%eax
    7e58:	be 0b 00 00 00       	mov    $0xb,%esi
    7e5d:	89 c7                	mov    %eax,%edi
    7e5f:	e8 a2 df ff ff       	callq  5e06 <safe_lshift_func_uint16_t_u_u>
    7e64:	66 85 c0             	test   %ax,%ax
    7e67:	48 8b b5 f0 eb ff ff 	mov    -0x1410(%rbp),%rsi
    7e6e:	bf 00 00 00 00       	mov    $0x0,%edi
    7e73:	e8 c9 d9 ff ff       	callq  5841 <safe_add_func_int64_t_s_s>
    7e78:	48 8b 05 29 f3 00 00 	mov    0xf329(%rip),%rax        # 171a8 <g_1308>
    7e7f:	48 8b 00             	mov    (%rax),%rax
    7e82:	48 8b 00             	mov    (%rax),%rax
    7e85:	48 8b 00             	mov    (%rax),%rax
    7e88:	0f b7 00             	movzwl (%rax),%eax
    7e8b:	98                   	cwtl   
    7e8c:	89 c7                	mov    %eax,%edi
    7e8e:	e8 0a d5 ff ff       	callq  539d <safe_unary_minus_func_int16_t_s>
    7e93:	48 8b 95 50 ed ff ff 	mov    -0x12b0(%rbp),%rdx
    7e9a:	48 8b 12             	mov    (%rdx),%rdx
    7e9d:	48 0f bf c0          	movswq %ax,%rax
    7ea1:	48 09 c2             	or     %rax,%rdx
    7ea4:	48 8b 85 50 ed ff ff 	mov    -0x12b0(%rbp),%rax
    7eab:	48 89 10             	mov    %rdx,(%rax)
    7eae:	48 8b 85 d8 ec ff ff 	mov    -0x1328(%rbp),%rax
    7eb5:	8b 00                	mov    (%rax),%eax
    7eb7:	0f b7 c0             	movzwl %ax,%eax
    7eba:	44 89 fe             	mov    %r15d,%esi
    7ebd:	89 c7                	mov    %eax,%edi
    7ebf:	e8 98 de ff ff       	callq  5d5c <safe_mod_func_uint16_t_u_u>
    7ec4:	0f be c0             	movsbl %al,%eax
    7ec7:	be 03 00 00 00       	mov    $0x3,%esi
    7ecc:	89 c7                	mov    %eax,%edi
    7ece:	e8 62 d4 ff ff       	callq  5335 <safe_rshift_func_int8_t_s_s>
    7ed3:	0f be c0             	movsbl %al,%eax
    7ed6:	33 85 fc eb ff ff    	xor    -0x1404(%rbp),%eax
    7edc:	89 c2                	mov    %eax,%edx
    7ede:	8b 85 2c ec ff ff    	mov    -0x13d4(%rbp),%eax
    7ee4:	39 c2                	cmp    %eax,%edx
    7ee6:	48 8b 05 03 f0 00 00 	mov    0xf003(%rip),%rax        # 16ef0 <g_335>
    7eed:	48 8b 10             	mov    (%rax),%rdx
    7ef0:	48 8b 05 f9 ef 00 00 	mov    0xeff9(%rip),%rax        # 16ef0 <g_335>
    7ef7:	48 8b 00             	mov    (%rax),%rax
    7efa:	48 8b 12             	mov    (%rdx),%rdx
    7efd:	48 89 10             	mov    %rdx,(%rax)
    7f00:	48 8b 85 d8 ec ff ff 	mov    -0x1328(%rbp),%rax
    7f07:	8b 00                	mov    (%rax),%eax
    7f09:	0f be c0             	movsbl %al,%eax
    7f0c:	be ae ff ff ff       	mov    $0xffffffae,%esi
    7f11:	89 c7                	mov    %eax,%edi
    7f13:	e8 da d2 ff ff       	callq  51f2 <safe_sub_func_int8_t_s_s>
    7f18:	48 0f be c0          	movsbq %al,%rax
    7f1c:	48 be 74 9e 1d 28 a9 	movabs $0xaf3e33a9281d9e74,%rsi
    7f23:	33 3e af 
    7f26:	48 89 c7             	mov    %rax,%rdi
    7f29:	e8 52 e1 ff ff       	callq  6080 <safe_mod_func_uint64_t_u_u>
    7f2e:	4c 89 f6             	mov    %r14,%rsi
    7f31:	48 89 c7             	mov    %rax,%rdi
    7f34:	e8 6f d9 ff ff       	callq  58a8 <safe_sub_func_int64_t_s_s>
    7f39:	44 89 ee             	mov    %r13d,%esi
    7f3c:	bf 00 00 00 00       	mov    $0x0,%edi
    7f41:	e8 d9 dd ff ff       	callq  5d1f <safe_sub_func_uint16_t_u_u>
    7f46:	98                   	cwtl   
    7f47:	44 89 e6             	mov    %r12d,%esi
    7f4a:	89 c7                	mov    %eax,%edi
    7f4c:	e8 90 d5 ff ff       	callq  54e1 <safe_lshift_func_int16_t_s_u>
    7f51:	0f b7 c0             	movzwl %ax,%eax
    7f54:	be 01 00 00 00       	mov    $0x1,%esi
    7f59:	89 c7                	mov    %eax,%edi
    7f5b:	e8 9f dd ff ff       	callq  5cff <safe_add_func_uint16_t_u_u>
    7f60:	66 0f be 85 23 ec ff 	movsbw -0x13dd(%rbp),%ax
    7f67:	ff 
    7f68:	0f b7 c0             	movzwl %ax,%eax
    7f6b:	be 06 00 00 00       	mov    $0x6,%esi
    7f70:	89 c7                	mov    %eax,%edi
    7f72:	e8 d1 de ff ff       	callq  5e48 <safe_rshift_func_uint16_t_u_s>
    7f77:	0f b7 c0             	movzwl %ax,%eax
    7f7a:	89 de                	mov    %ebx,%esi
    7f7c:	89 c7                	mov    %eax,%edi
    7f7e:	e8 82 d6 ff ff       	callq  5605 <safe_sub_func_int32_t_s_s>
    7f83:	48 8b 95 40 ed ff ff 	mov    -0x12c0(%rbp),%rdx
    7f8a:	89 02                	mov    %eax,(%rdx)
    7f8c:	48 8b 85 40 ed ff ff 	mov    -0x12c0(%rbp),%rax
    7f93:	8b 00                	mov    (%rax),%eax
    7f95:	85 c0                	test   %eax,%eax
    7f97:	0f 84 ee 01 00 00    	je     818b <func_14+0xa62>
    7f9d:	c7 85 b0 ec ff ff f8 	movl   $0xfffffff8,-0x1350(%rbp)
    7fa4:	ff ff ff 
    7fa7:	83 bd b0 ec ff ff 00 	cmpl   $0x0,-0x1350(%rbp)
    7fae:	0f 84 bc 00 00 00    	je     8070 <func_14+0x947>
    7fb4:	48 8d 05 31 d2 00 00 	lea    0xd231(%rip),%rax        # 151ec <g_75+0x2c>
    7fbb:	48 89 85 c8 ed ff ff 	mov    %rax,-0x1238(%rbp)
    7fc2:	c7 85 bc ec ff ff 6b 	movl   $0xbdb8f16b,-0x1344(%rbp)
    7fc9:	f1 b8 bd 
    7fcc:	48 8b 85 28 ed ff ff 	mov    -0x12d8(%rbp),%rax
    7fd3:	8b 00                	mov    (%rax),%eax
    7fd5:	85 c0                	test   %eax,%eax
    7fd7:	75 6b                	jne    8044 <func_14+0x91b>
    7fd9:	48 8b 05 68 f1 00 00 	mov    0xf168(%rip),%rax        # 17148 <g_1020>
    7fe0:	0f b6 00             	movzbl (%rax),%eax
    7fe3:	0f b6 d0             	movzbl %al,%edx
    7fe6:	48 8b 05 db ee 00 00 	mov    0xeedb(%rip),%rax        # 16ec8 <g_195>
    7fed:	c7 00 ff ff ff ff    	movl   $0xffffffff,(%rax)
    7ff3:	8b 00                	mov    (%rax),%eax
    7ff5:	83 f8 01             	cmp    $0x1,%eax
    7ff8:	0f 94 c0             	sete   %al
    7ffb:	0f b6 c0             	movzbl %al,%eax
    7ffe:	89 d6                	mov    %edx,%esi
    8000:	89 c7                	mov    %eax,%edi
    8002:	e8 e7 d2 ff ff       	callq  52ee <safe_lshift_func_int8_t_s_u>
    8007:	84 c0                	test   %al,%al
    8009:	48 8b 85 18 ed ff ff 	mov    -0x12e8(%rbp),%rax
    8010:	48 8b 00             	mov    (%rax),%rax
    8013:	48 8b 00             	mov    (%rax),%rax
    8016:	48 8b 00             	mov    (%rax),%rax
    8019:	48 39 85 c8 ed ff ff 	cmp    %rax,-0x1238(%rbp)
    8020:	0f 94 c0             	sete   %al
    8023:	0f b6 d8             	movzbl %al,%ebx
    8026:	be 04 00 00 00       	mov    $0x4,%esi
    802b:	bf 01 00 00 00       	mov    $0x1,%edi
    8030:	e8 f5 d4 ff ff       	callq  552a <safe_rshift_func_int16_t_s_s>
    8035:	98                   	cwtl   
    8036:	89 de                	mov    %ebx,%esi
    8038:	89 c7                	mov    %eax,%edi
    803a:	e8 94 d3 ff ff       	callq  53d3 <safe_sub_func_int16_t_s_s>
    803f:	66 85 c0             	test   %ax,%ax
    8042:	74 07                	je     804b <func_14+0x922>
    8044:	b8 01 00 00 00       	mov    $0x1,%eax
    8049:	eb 05                	jmp    8050 <func_14+0x927>
    804b:	b8 00 00 00 00       	mov    $0x0,%eax
    8050:	98                   	cwtl   
    8051:	89 c6                	mov    %eax,%esi
    8053:	bf 7e 37 00 00       	mov    $0x377e,%edi
    8058:	e8 56 d3 ff ff       	callq  53b3 <safe_add_func_int16_t_s_s>
    805d:	98                   	cwtl   
    805e:	31 85 bc ec ff ff    	xor    %eax,-0x1344(%rbp)
    8064:	48 8b 85 00 ec ff ff 	mov    -0x1400(%rbp),%rax
    806b:	e9 4c 12 00 00       	jmpq   92bc <func_14+0x1b93>
    8070:	c7 85 b4 ec ff ff f9 	movl   $0xfffffff9,-0x134c(%rbp)
    8077:	ff ff ff 
    807a:	c7 85 b8 ec ff ff 09 	movl   $0x9,-0x1348(%rbp)
    8081:	00 00 00 
    8084:	c7 05 4e d4 00 00 00 	movl   $0x0,0xd44e(%rip)        # 154dc <g_424>
    808b:	00 00 00 
    808e:	eb 22                	jmp    80b2 <func_14+0x989>
    8090:	8b 05 46 d4 00 00    	mov    0xd446(%rip),%eax        # 154dc <g_424>
    8096:	48 98                	cltq   
    8098:	c7 84 85 e0 ed ff ff 	movl   $0x925e7d17,-0x1220(%rbp,%rax,4)
    809f:	17 7d 5e 92 
    80a3:	8b 05 33 d4 00 00    	mov    0xd433(%rip),%eax        # 154dc <g_424>
    80a9:	83 c0 01             	add    $0x1,%eax
    80ac:	89 05 2a d4 00 00    	mov    %eax,0xd42a(%rip)        # 154dc <g_424>
    80b2:	8b 05 24 d4 00 00    	mov    0xd424(%rip),%eax        # 154dc <g_424>
    80b8:	83 f8 04             	cmp    $0x4,%eax
    80bb:	7e d3                	jle    8090 <func_14+0x967>
    80bd:	83 bd b0 ec ff ff 00 	cmpl   $0x0,-0x1350(%rbp)
    80c4:	0f 85 9d 00 00 00    	jne    8167 <func_14+0xa3e>
    80ca:	48 8b 05 a7 ee 00 00 	mov    0xeea7(%rip),%rax        # 16f78 <g_559>
    80d1:	8b 85 fc eb ff ff    	mov    -0x1404(%rbp),%eax
    80d7:	0f bf d8             	movswl %ax,%ebx
    80da:	48 8b 85 28 ed ff ff 	mov    -0x12d8(%rbp),%rax
    80e1:	8b 00                	mov    (%rax),%eax
    80e3:	4c 63 e0             	movslq %eax,%r12
    80e6:	8b 85 b0 ec ff ff    	mov    -0x1350(%rbp),%eax
    80ec:	0f b7 c0             	movzwl %ax,%eax
    80ef:	be 0e 00 00 00       	mov    $0xe,%esi
    80f4:	89 c7                	mov    %eax,%edi
    80f6:	e8 4d dd ff ff       	callq  5e48 <safe_rshift_func_uint16_t_u_s>
    80fb:	0f b7 c0             	movzwl %ax,%eax
    80fe:	4c 89 e6             	mov    %r12,%rsi
    8101:	48 89 c7             	mov    %rax,%rdi
    8104:	e8 42 df ff ff       	callq  604b <safe_sub_func_uint64_t_u_u>
    8109:	48 83 f8 ff          	cmp    $0xffffffffffffffff,%rax
    810d:	0f 94 c0             	sete   %al
    8110:	0f b6 c0             	movzbl %al,%eax
    8113:	89 de                	mov    %ebx,%esi
    8115:	89 c7                	mov    %eax,%edi
    8117:	e8 97 d2 ff ff       	callq  53b3 <safe_add_func_int16_t_s_s>
    811c:	8b 85 b8 ec ff ff    	mov    -0x1348(%rbp),%eax
    8122:	89 c6                	mov    %eax,%esi
    8124:	bf 01 00 00 00       	mov    $0x1,%edi
    8129:	e8 a2 dd ff ff       	callq  5ed0 <safe_sub_func_uint32_t_u_u>
    812e:	83 bd fc eb ff ff 01 	cmpl   $0x1,-0x1404(%rbp)
    8135:	0f 9f c0             	setg   %al
    8138:	0f b6 c0             	movzbl %al,%eax
    813b:	be 09 00 00 00       	mov    $0x9,%esi
    8140:	89 c7                	mov    %eax,%edi
    8142:	e8 bf dc ff ff       	callq  5e06 <safe_lshift_func_uint16_t_u_u>
    8147:	0f be d0             	movsbl %al,%edx
    814a:	8b 05 3d d3 00 00    	mov    0xd33d(%rip),%eax        # 1548d <g_267+0xd>
    8150:	f7 d0                	not    %eax
    8152:	0f be c0             	movsbl %al,%eax
    8155:	89 d6                	mov    %edx,%esi
    8157:	89 c7                	mov    %eax,%edi
    8159:	e8 d3 d0 ff ff       	callq  5231 <safe_mod_func_int8_t_s_s>
    815e:	0f be c0             	movsbl %al,%eax
    8161:	39 85 b0 ec ff ff    	cmp    %eax,-0x1350(%rbp)
    8167:	83 bd b8 ec ff ff 00 	cmpl   $0x0,-0x1348(%rbp)
    816e:	74 0c                	je     817c <func_14+0xa53>
    8170:	48 8b 85 10 ec ff ff 	mov    -0x13f0(%rbp),%rax
    8177:	e9 40 11 00 00       	jmpq   92bc <func_14+0x1b93>
    817c:	48 8b 05 ad ef 00 00 	mov    0xefad(%rip),%rax        # 17130 <g_566>
    8183:	48 8b 00             	mov    (%rax),%rax
    8186:	e9 31 11 00 00       	jmpq   92bc <func_14+0x1b93>
    818b:	c7 85 6c ec ff ff 07 	movl   $0x7,-0x1394(%rbp)
    8192:	00 00 00 
    8195:	c7 85 44 ec ff ff 08 	movl   $0x8,-0x13bc(%rbp)
    819c:	00 00 00 
    819f:	c7 85 48 ec ff ff 7d 	movl   $0xa9e9447d,-0x13b8(%rbp)
    81a6:	44 e9 a9 
    81a9:	c7 85 70 ec ff ff ff 	movl   $0xffffffff,-0x1390(%rbp)
    81b0:	ff ff ff 
    81b3:	c7 85 74 ec ff ff 95 	movl   $0xbea32e95,-0x138c(%rbp)
    81ba:	2e a3 be 
    81bd:	c7 85 78 ec ff ff a2 	movl   $0x9421f1a2,-0x1388(%rbp)
    81c4:	f1 21 94 
    81c7:	48 8d 05 0a d3 00 00 	lea    0xd30a(%rip),%rax        # 154d8 <g_357>
    81ce:	48 89 85 68 ed ff ff 	mov    %rax,-0x1298(%rbp)
    81d5:	48 8d 05 0c d1 00 00 	lea    0xd10c(%rip),%rax        # 152e8 <g_247>
    81dc:	48 89 85 e0 ec ff ff 	mov    %rax,-0x1320(%rbp)
    81e3:	48 8d 85 20 f1 ff ff 	lea    -0xee0(%rbp),%rax
    81ea:	48 8d 15 cf e2 00 00 	lea    0xe2cf(%rip),%rdx        # 164c0 <g_1532+0x930>
    81f1:	b9 36 00 00 00       	mov    $0x36,%ecx
    81f6:	48 89 c7             	mov    %rax,%rdi
    81f9:	48 89 d6             	mov    %rdx,%rsi
    81fc:	f3 48 a5             	rep movsq %ds:(%rsi),%es:(%rdi)
    81ff:	48 c7 85 70 ed ff ff 	movq   $0x0,-0x1290(%rbp)
    8206:	00 00 00 00 
    820a:	c7 85 90 ee ff ff de 	movl   $0xde0707de,-0x1170(%rbp)
    8211:	07 07 de 
    8214:	c7 85 94 ee ff ff 07 	movl   $0x707de07,-0x116c(%rbp)
    821b:	de 07 07 
    821e:	c7 85 98 ee ff ff de 	movl   $0xdeffdede,-0x1168(%rbp)
    8225:	de ff de 
    8228:	c7 85 9c ee ff ff de 	movl   $0xde0707de,-0x1164(%rbp)
    822f:	07 07 de 
    8232:	c7 85 a0 ee ff ff 07 	movl   $0x707de07,-0x1160(%rbp)
    8239:	de 07 07 
    823c:	c7 85 a4 ee ff ff de 	movl   $0xdeffdede,-0x115c(%rbp)
    8243:	de ff de 
    8246:	c7 85 a8 ee ff ff de 	movl   $0xde0707de,-0x1158(%rbp)
    824d:	07 07 de 
    8250:	c7 85 ac ee ff ff 07 	movl   $0x707de07,-0x1154(%rbp)
    8257:	de 07 07 
    825a:	c7 85 b0 ee ff ff de 	movl   $0xdeffdede,-0x1150(%rbp)
    8261:	de ff de 
    8264:	c7 85 b4 ee ff ff de 	movl   $0xde0707de,-0x114c(%rbp)
    826b:	07 07 de 
    826e:	c7 85 b8 ee ff ff 07 	movl   $0x707de07,-0x1148(%rbp)
    8275:	de 07 07 
    8278:	c7 85 bc ee ff ff de 	movl   $0xdeffdede,-0x1144(%rbp)
    827f:	de ff de 
    8282:	48 c7 85 40 ee ff ff 	movq   $0x0,-0x11c0(%rbp)
    8289:	00 00 00 00 
    828d:	48 c7 85 48 ee ff ff 	movq   $0x0,-0x11b8(%rbp)
    8294:	00 00 00 00 
    8298:	48 c7 85 50 ee ff ff 	movq   $0x0,-0x11b0(%rbp)
    829f:	00 00 00 00 
    82a3:	48 c7 85 58 ee ff ff 	movq   $0x0,-0x11a8(%rbp)
    82aa:	00 00 00 00 
    82ae:	c7 85 4c ec ff ff 00 	movl   $0x0,-0x13b4(%rbp)
    82b5:	00 00 00 
    82b8:	eb 19                	jmp    82d3 <func_14+0xbaa>
    82ba:	8b 85 4c ec ff ff    	mov    -0x13b4(%rbp),%eax
    82c0:	48 98                	cltq   
    82c2:	66 c7 84 45 d2 ed ff 	movw   $0xdefd,-0x122e(%rbp,%rax,2)
    82c9:	ff fd de 
    82cc:	83 85 4c ec ff ff 01 	addl   $0x1,-0x13b4(%rbp)
    82d3:	83 bd 4c ec ff ff 06 	cmpl   $0x6,-0x13b4(%rbp)
    82da:	7e de                	jle    82ba <func_14+0xb91>
    82dc:	c7 05 37 d2 00 00 01 	movl   $0x1,0xd237(%rip)        # 1551d <g_612+0xd>
    82e3:	00 00 00 
    82e6:	e9 40 01 00 00       	jmpq   842b <func_14+0xd02>
    82eb:	48 b8 97 ee 41 46 1c 	movabs $0x5033671c4641ee97,%rax
    82f2:	67 33 50 
    82f5:	48 89 85 c0 ed ff ff 	mov    %rax,-0x1240(%rbp)
    82fc:	c7 85 a0 ec ff ff c3 	movl   $0xf0fb4bc3,-0x1360(%rbp)
    8303:	4b fb f0 
    8306:	c7 85 a4 ec ff ff 9f 	movl   $0x5eb6149f,-0x135c(%rbp)
    830d:	14 b6 5e 
    8310:	c7 85 a8 ec ff ff 00 	movl   $0x0,-0x1358(%rbp)
    8317:	00 00 00 
    831a:	48 8d 85 80 f9 ff ff 	lea    -0x680(%rbp),%rax
    8321:	48 8d 15 38 7e 00 00 	lea    0x7e38(%rip),%rdx        # 10160 <g_589+0x108>
    8328:	b9 2d 00 00 00       	mov    $0x2d,%ecx
    832d:	48 89 c7             	mov    %rax,%rdi
    8330:	48 89 d6             	mov    %rdx,%rsi
    8333:	f3 48 a5             	rep movsq %ds:(%rsi),%es:(%rdi)
    8336:	0f b7 85 d4 ed ff ff 	movzwl -0x122c(%rbp),%eax
    833d:	66 85 c0             	test   %ax,%ax
    8340:	74 4a                	je     838c <func_14+0xc63>
    8342:	c7 05 c1 d5 00 00 00 	movl   $0x0,0xd5c1(%rip)        # 1590d <g_651+0xd>
    8349:	00 00 00 
    834c:	eb 2e                	jmp    837c <func_14+0xc53>
    834e:	8b 85 fc eb ff ff    	mov    -0x1404(%rbp),%eax
    8354:	98                   	cwtl   
    8355:	be 05 00 00 00       	mov    $0x5,%esi
    835a:	89 c7                	mov    %eax,%edi
    835c:	e8 c9 d1 ff ff       	callq  552a <safe_rshift_func_int16_t_s_s>
    8361:	0f bf d0             	movswl %ax,%edx
    8364:	48 8b 85 40 ed ff ff 	mov    -0x12c0(%rbp),%rax
    836b:	89 10                	mov    %edx,(%rax)
    836d:	8b 05 9a d5 00 00    	mov    0xd59a(%rip),%eax        # 1590d <g_651+0xd>
    8373:	83 c0 01             	add    $0x1,%eax
    8376:	89 05 91 d5 00 00    	mov    %eax,0xd591(%rip)        # 1590d <g_651+0xd>
    837c:	8b 05 8b d5 00 00    	mov    0xd58b(%rip),%eax        # 1590d <g_651+0xd>
    8382:	83 f8 05             	cmp    $0x5,%eax
    8385:	76 c7                	jbe    834e <func_14+0xc25>
    8387:	e9 89 00 00 00       	jmpq   8415 <func_14+0xcec>
    838c:	c7 85 ac ec ff ff 01 	movl   $0x1,-0x1354(%rbp)
    8393:	00 00 00 
    8396:	c7 85 50 ec ff ff 00 	movl   $0x0,-0x13b0(%rbp)
    839d:	00 00 00 
    83a0:	eb 19                	jmp    83bb <func_14+0xc92>
    83a2:	8b 85 50 ec ff ff    	mov    -0x13b0(%rbp),%eax
    83a8:	48 98                	cltq   
    83aa:	66 c7 84 45 90 f5 ff 	movw   $0xaf53,-0xa70(%rbp,%rax,2)
    83b1:	ff 53 af 
    83b4:	83 85 50 ec ff ff 01 	addl   $0x1,-0x13b0(%rbp)
    83bb:	83 bd 50 ec ff ff 00 	cmpl   $0x0,-0x13b0(%rbp)
    83c2:	7e de                	jle    83a2 <func_14+0xc79>
    83c4:	48 83 ad c0 ed ff ff 	subq   $0x1,-0x1240(%rbp)
    83cb:	01 
    83cc:	48 8b 85 40 ed ff ff 	mov    -0x12c0(%rbp),%rax
    83d3:	8b 10                	mov    (%rax),%edx
    83d5:	48 8b 85 40 ed ff ff 	mov    -0x12c0(%rbp),%rax
    83dc:	89 10                	mov    %edx,(%rax)
    83de:	c6 05 ab f9 00 00 00 	movb   $0x0,0xf9ab(%rip)        # 17d90 <g_170>
    83e5:	90                   	nop
    83e6:	0f b6 05 a3 f9 00 00 	movzbl 0xf9a3(%rip),%eax        # 17d90 <g_170>
    83ed:	3c 05                	cmp    $0x5,%al
    83ef:	77 1d                	ja     840e <func_14+0xce5>
    83f1:	48 8b 05 c0 ed 00 00 	mov    0xedc0(%rip),%rax        # 171b8 <g_1351>
    83f8:	48 8b 95 08 ec ff ff 	mov    -0x13f8(%rbp),%rdx
    83ff:	48 89 10             	mov    %rdx,(%rax)
    8402:	48 8b 85 10 ec ff ff 	mov    -0x13f0(%rbp),%rax
    8409:	e9 ae 0e 00 00       	jmpq   92bc <func_14+0x1b93>
    840e:	80 ad 22 ec ff ff 01 	subb   $0x1,-0x13de(%rbp)
    8415:	83 ad 3c ec ff ff 01 	subl   $0x1,-0x13c4(%rbp)
    841c:	8b 05 fb d0 00 00    	mov    0xd0fb(%rip),%eax        # 1551d <g_612+0xd>
    8422:	83 c0 01             	add    $0x1,%eax
    8425:	89 05 f2 d0 00 00    	mov    %eax,0xd0f2(%rip)        # 1551d <g_612+0xd>
    842b:	8b 05 ec d0 00 00    	mov    0xd0ec(%rip),%eax        # 1551d <g_612+0xd>
    8431:	83 f8 05             	cmp    $0x5,%eax
    8434:	0f 86 b1 fe ff ff    	jbe    82eb <func_14+0xbc2>
    843a:	83 bd 70 ec ff ff 00 	cmpl   $0x0,-0x1390(%rbp)
    8441:	0f 84 21 01 00 00    	je     8568 <func_14+0xe3f>
    8447:	c7 05 77 ce 00 00 00 	movl   $0x0,0xce77(%rip)        # 152c8 <g_149>
    844e:	00 00 00 
    8451:	e9 fe 00 00 00       	jmpq   8554 <func_14+0xe2b>
    8456:	c7 05 2d d5 00 00 00 	movl   $0x0,0xd52d(%rip)        # 1598d <g_927+0xd>
    845d:	00 00 00 
    8460:	eb 50                	jmp    84b2 <func_14+0xd89>
    8462:	48 8d 85 2c ec ff ff 	lea    -0x13d4(%rbp),%rax
    8469:	48 89 85 88 ed ff ff 	mov    %rax,-0x1278(%rbp)
    8470:	8b 05 17 d5 00 00    	mov    0xd517(%rip),%eax        # 1598d <g_927+0xd>
    8476:	89 c0                	mov    %eax,%eax
    8478:	0f b7 84 45 d2 ed ff 	movzwl -0x122e(%rbp,%rax,2),%eax
    847f:	ff 
    8480:	66 85 c0             	test   %ax,%ax
    8483:	75 3a                	jne    84bf <func_14+0xd96>
    8485:	48 8b 85 28 ed ff ff 	mov    -0x12d8(%rbp),%rax
    848c:	8b 00                	mov    (%rax),%eax
    848e:	85 c0                	test   %eax,%eax
    8490:	75 10                	jne    84a2 <func_14+0xd79>
    8492:	48 8b 85 08 ec ff ff 	mov    -0x13f8(%rbp),%rax
    8499:	48 89 85 88 ed ff ff 	mov    %rax,-0x1278(%rbp)
    84a0:	eb 01                	jmp    84a3 <func_14+0xd7a>
    84a2:	90                   	nop
    84a3:	8b 05 e4 d4 00 00    	mov    0xd4e4(%rip),%eax        # 1598d <g_927+0xd>
    84a9:	83 c0 01             	add    $0x1,%eax
    84ac:	89 05 db d4 00 00    	mov    %eax,0xd4db(%rip)        # 1598d <g_927+0xd>
    84b2:	8b 05 d5 d4 00 00    	mov    0xd4d5(%rip),%eax        # 1598d <g_927+0xd>
    84b8:	83 f8 06             	cmp    $0x6,%eax
    84bb:	76 a5                	jbe    8462 <func_14+0xd39>
    84bd:	eb 01                	jmp    84c0 <func_14+0xd97>
    84bf:	90                   	nop
    84c0:	c7 05 f2 cd 00 00 06 	movl   $0x6,0xcdf2(%rip)        # 152bc <g_116>
    84c7:	00 00 00 
    84ca:	90                   	nop
    84cb:	8b 05 eb cd 00 00    	mov    0xcdeb(%rip),%eax        # 152bc <g_116>
    84d1:	83 f8 17             	cmp    $0x17,%eax
    84d4:	77 0f                	ja     84e5 <func_14+0xdbc>
    84d6:	48 8b 05 53 ec 00 00 	mov    0xec53(%rip),%rax        # 17130 <g_566>
    84dd:	48 8b 00             	mov    (%rax),%rax
    84e0:	e9 d7 0d 00 00       	jmpq   92bc <func_14+0x1b93>
    84e5:	c7 05 f9 d5 00 00 00 	movl   $0x0,0xd5f9(%rip)        # 15ae8 <g_1062>
    84ec:	00 00 00 
    84ef:	eb 3e                	jmp    852f <func_14+0xe06>
    84f1:	48 8d 85 d8 ec ff ff 	lea    -0x1328(%rbp),%rax
    84f8:	48 89 85 90 ed ff ff 	mov    %rax,-0x1270(%rbp)
    84ff:	8b 15 e3 d5 00 00    	mov    0xd5e3(%rip),%edx        # 15ae8 <g_1062>
    8505:	48 8d 85 e0 ed ff ff 	lea    -0x1220(%rbp),%rax
    850c:	48 63 d2             	movslq %edx,%rdx
    850f:	48 c1 e2 02          	shl    $0x2,%rdx
    8513:	48 01 c2             	add    %rax,%rdx
    8516:	48 8b 85 90 ed ff ff 	mov    -0x1270(%rbp),%rax
    851d:	48 89 10             	mov    %rdx,(%rax)
    8520:	8b 05 c2 d5 00 00    	mov    0xd5c2(%rip),%eax        # 15ae8 <g_1062>
    8526:	83 c0 01             	add    $0x1,%eax
    8529:	89 05 b9 d5 00 00    	mov    %eax,0xd5b9(%rip)        # 15ae8 <g_1062>
    852f:	8b 05 b3 d5 00 00    	mov    0xd5b3(%rip),%eax        # 15ae8 <g_1062>
    8535:	83 f8 04             	cmp    $0x4,%eax
    8538:	7e b7                	jle    84f1 <func_14+0xdc8>
    853a:	8b 05 88 cd 00 00    	mov    0xcd88(%rip),%eax        # 152c8 <g_149>
    8540:	98                   	cwtl   
    8541:	be 01 00 00 00       	mov    $0x1,%esi
    8546:	89 c7                	mov    %eax,%edi
    8548:	e8 66 ce ff ff       	callq  53b3 <safe_add_func_int16_t_s_s>
    854d:	98                   	cwtl   
    854e:	89 05 74 cd 00 00    	mov    %eax,0xcd74(%rip)        # 152c8 <g_149>
    8554:	8b 05 6e cd 00 00    	mov    0xcd6e(%rip),%eax        # 152c8 <g_149>
    855a:	83 f8 2f             	cmp    $0x2f,%eax
    855d:	0f 87 f3 fe ff ff    	ja     8456 <func_14+0xd2d>
    8563:	e9 08 01 00 00       	jmpq   8670 <func_14+0xf47>
    8568:	48 8d 85 e0 ec ff ff 	lea    -0x1320(%rbp),%rax
    856f:	48 89 85 78 ed ff ff 	mov    %rax,-0x1288(%rbp)
    8576:	48 8d 85 20 f1 ff ff 	lea    -0xee0(%rbp),%rax
    857d:	48 05 a8 00 00 00    	add    $0xa8,%rax
    8583:	48 89 85 80 ed ff ff 	mov    %rax,-0x1280(%rbp)
    858a:	c7 85 44 ec ff ff f4 	movl   $0xfffffff4,-0x13bc(%rbp)
    8591:	ff ff ff 
    8594:	eb 40                	jmp    85d6 <func_14+0xead>
    8596:	48 8b 95 10 ec ff ff 	mov    -0x13f0(%rbp),%rdx
    859d:	48 8b 05 04 e9 00 00 	mov    0xe904(%rip),%rax        # 16ea8 <g_172>
    85a4:	8b 12                	mov    (%rdx),%edx
    85a6:	89 10                	mov    %edx,(%rax)
    85a8:	48 8b 85 d8 ec ff ff 	mov    -0x1328(%rbp),%rax
    85af:	0f be 95 24 ec ff ff 	movsbl -0x13dc(%rbp),%edx
    85b6:	89 10                	mov    %edx,(%rax)
    85b8:	8b 85 44 ec ff ff    	mov    -0x13bc(%rbp),%eax
    85be:	0f be c0             	movsbl %al,%eax
    85c1:	be 09 00 00 00       	mov    $0x9,%esi
    85c6:	89 c7                	mov    %eax,%edi
    85c8:	e8 07 cc ff ff       	callq  51d4 <safe_add_func_int8_t_s_s>
    85cd:	0f be c0             	movsbl %al,%eax
    85d0:	89 85 44 ec ff ff    	mov    %eax,-0x13bc(%rbp)
    85d6:	83 bd 44 ec ff ff 0e 	cmpl   $0xe,-0x13bc(%rbp)
    85dd:	7e b7                	jle    8596 <func_14+0xe6d>
    85df:	48 8b 05 7a e9 00 00 	mov    0xe97a(%rip),%rax        # 16f60 <g_447>
    85e6:	48 8b 00             	mov    (%rax),%rax
    85e9:	48 8b 08             	mov    (%rax),%rcx
    85ec:	48 8b 95 e0 ec ff ff 	mov    -0x1320(%rbp),%rdx
    85f3:	48 8b 85 78 ed ff ff 	mov    -0x1288(%rbp),%rax
    85fa:	48 89 10             	mov    %rdx,(%rax)
    85fd:	48 8b 85 78 ed ff ff 	mov    -0x1288(%rbp),%rax
    8604:	48 8b 00             	mov    (%rax),%rax
    8607:	48 39 c1             	cmp    %rax,%rcx
    860a:	0f 95 c1             	setne  %cl
    860d:	48 8b 95 c8 f1 ff ff 	mov    -0xe38(%rbp),%rdx
    8614:	48 8b 85 80 ed ff ff 	mov    -0x1280(%rbp),%rax
    861b:	48 89 10             	mov    %rdx,(%rax)
    861e:	48 8b 85 80 ed ff ff 	mov    -0x1280(%rbp),%rax
    8625:	48 8b 00             	mov    (%rax),%rax
    8628:	48 39 85 58 ed ff ff 	cmp    %rax,-0x12a8(%rbp)
    862f:	0f 95 c0             	setne  %al
    8632:	31 c8                	xor    %ecx,%eax
    8634:	0f b6 d0             	movzbl %al,%edx
    8637:	48 8b 85 c0 ec ff ff 	mov    -0x1340(%rbp),%rax
    863e:	48 39 85 68 ed ff ff 	cmp    %rax,-0x1298(%rbp)
    8645:	0f 94 c0             	sete   %al
    8648:	0f b6 c8             	movzbl %al,%ecx
    864b:	0f b6 85 1a ee ff ff 	movzbl -0x11e6(%rbp),%eax
    8652:	66 98                	cbtw   
    8654:	21 c8                	and    %ecx,%eax
    8656:	0f b7 c0             	movzwl %ax,%eax
    8659:	89 d6                	mov    %edx,%esi
    865b:	89 c7                	mov    %eax,%edi
    865d:	e8 bd d6 ff ff       	callq  5d1f <safe_sub_func_uint16_t_u_u>
    8662:	89 c2                	mov    %eax,%edx
    8664:	48 8b 85 d8 ec ff ff 	mov    -0x1328(%rbp),%rax
    866b:	0f b7 d2             	movzwl %dx,%edx
    866e:	89 10                	mov    %edx,(%rax)
    8670:	c7 05 9a d2 00 00 00 	movl   $0x0,0xd29a(%rip)        # 15914 <g_677>
    8677:	00 00 00 
    867a:	e9 10 0c 00 00       	jmpq   928f <func_14+0x1b66>
    867f:	c6 85 25 ec ff ff b2 	movb   $0xb2,-0x13db(%rbp)
    8686:	48 8d 05 fb f6 00 00 	lea    0xf6fb(%rip),%rax        # 17d88 <g_121>
    868d:	48 89 85 e8 ec ff ff 	mov    %rax,-0x1318(%rbp)
    8694:	48 8d 85 e8 ec ff ff 	lea    -0x1318(%rbp),%rax
    869b:	48 89 85 c0 ee ff ff 	mov    %rax,-0x1140(%rbp)
    86a2:	48 8d 85 e8 ec ff ff 	lea    -0x1318(%rbp),%rax
    86a9:	48 89 85 c8 ee ff ff 	mov    %rax,-0x1138(%rbp)
    86b0:	48 8d 85 e8 ec ff ff 	lea    -0x1318(%rbp),%rax
    86b7:	48 89 85 d0 ee ff ff 	mov    %rax,-0x1130(%rbp)
    86be:	48 8d 85 e8 ec ff ff 	lea    -0x1318(%rbp),%rax
    86c5:	48 89 85 d8 ee ff ff 	mov    %rax,-0x1128(%rbp)
    86cc:	48 c7 85 e0 ee ff ff 	movq   $0x0,-0x1120(%rbp)
    86d3:	00 00 00 00 
    86d7:	48 8d 85 e8 ec ff ff 	lea    -0x1318(%rbp),%rax
    86de:	48 89 85 e8 ee ff ff 	mov    %rax,-0x1118(%rbp)
    86e5:	48 c7 85 f0 ee ff ff 	movq   $0x0,-0x1110(%rbp)
    86ec:	00 00 00 00 
    86f0:	48 8d 85 e8 ec ff ff 	lea    -0x1318(%rbp),%rax
    86f7:	48 89 85 f8 ee ff ff 	mov    %rax,-0x1108(%rbp)
    86fe:	48 8d 85 e8 ec ff ff 	lea    -0x1318(%rbp),%rax
    8705:	48 89 85 00 ef ff ff 	mov    %rax,-0x1100(%rbp)
    870c:	48 8d 85 e8 ec ff ff 	lea    -0x1318(%rbp),%rax
    8713:	48 89 85 08 ef ff ff 	mov    %rax,-0x10f8(%rbp)
    871a:	48 8d 85 e8 ec ff ff 	lea    -0x1318(%rbp),%rax
    8721:	48 89 85 10 ef ff ff 	mov    %rax,-0x10f0(%rbp)
    8728:	48 8d 85 e8 ec ff ff 	lea    -0x1318(%rbp),%rax
    872f:	48 89 85 18 ef ff ff 	mov    %rax,-0x10e8(%rbp)
    8736:	48 8d 85 e8 ec ff ff 	lea    -0x1318(%rbp),%rax
    873d:	48 89 85 20 ef ff ff 	mov    %rax,-0x10e0(%rbp)
    8744:	48 c7 85 28 ef ff ff 	movq   $0x0,-0x10d8(%rbp)
    874b:	00 00 00 00 
    874f:	48 8d 85 e8 ec ff ff 	lea    -0x1318(%rbp),%rax
    8756:	48 89 85 30 ef ff ff 	mov    %rax,-0x10d0(%rbp)
    875d:	48 c7 85 38 ef ff ff 	movq   $0x0,-0x10c8(%rbp)
    8764:	00 00 00 00 
    8768:	48 8d 85 e8 ec ff ff 	lea    -0x1318(%rbp),%rax
    876f:	48 89 85 40 ef ff ff 	mov    %rax,-0x10c0(%rbp)
    8776:	48 8d 85 e8 ec ff ff 	lea    -0x1318(%rbp),%rax
    877d:	48 89 85 48 ef ff ff 	mov    %rax,-0x10b8(%rbp)
    8784:	48 8d 85 e8 ec ff ff 	lea    -0x1318(%rbp),%rax
    878b:	48 89 85 50 ef ff ff 	mov    %rax,-0x10b0(%rbp)
    8792:	48 8d 85 e8 ec ff ff 	lea    -0x1318(%rbp),%rax
    8799:	48 89 85 58 ef ff ff 	mov    %rax,-0x10a8(%rbp)
    87a0:	c7 85 7c ec ff ff 48 	movl   $0x9c4e5848,-0x1384(%rbp)
    87a7:	58 4e 9c 
    87aa:	c7 85 80 ec ff ff 09 	movl   $0x9,-0x1380(%rbp)
    87b1:	00 00 00 
    87b4:	c7 85 84 ec ff ff 64 	movl   $0x9cc4a364,-0x137c(%rbp)
    87bb:	a3 c4 9c 
    87be:	c7 85 88 ec ff ff 26 	movl   $0x639f9e26,-0x1378(%rbp)
    87c5:	9e 9f 63 
    87c8:	48 8d 85 d0 f2 ff ff 	lea    -0xd30(%rbp),%rax
    87cf:	48 8d 15 0a 7b 00 00 	lea    0x7b0a(%rip),%rdx        # 102e0 <g_589+0x288>
    87d6:	b9 57 00 00 00       	mov    $0x57,%ecx
    87db:	48 89 c7             	mov    %rax,%rdi
    87de:	48 89 d6             	mov    %rdx,%rsi
    87e1:	f3 48 a5             	rep movsq %ds:(%rsi),%es:(%rdi)
    87e4:	48 89 f2             	mov    %rsi,%rdx
    87e7:	48 89 f8             	mov    %rdi,%rax
    87ea:	8b 0a                	mov    (%rdx),%ecx
    87ec:	89 08                	mov    %ecx,(%rax)
    87ee:	48 8d 40 04          	lea    0x4(%rax),%rax
    87f2:	48 8d 52 04          	lea    0x4(%rdx),%rdx
    87f6:	66 c7 85 28 ec ff ff 	movw   $0xffff,-0x13d8(%rbp)
    87fd:	ff ff 
    87ff:	c7 85 8c ec ff ff f9 	movl   $0xfffffff9,-0x1374(%rbp)
    8806:	ff ff ff 
    8809:	48 8d 85 30 ec ff ff 	lea    -0x13d0(%rbp),%rax
    8810:	48 89 85 f0 ec ff ff 	mov    %rax,-0x1310(%rbp)
    8817:	48 8b 85 10 ec ff ff 	mov    -0x13f0(%rbp),%rax
    881e:	48 89 85 10 ec ff ff 	mov    %rax,-0x13f0(%rbp)
    8825:	80 bd 25 ec ff ff 00 	cmpb   $0x0,-0x13db(%rbp)
    882c:	0f 84 9f 07 00 00    	je     8fd1 <func_14+0x18a8>
    8832:	48 c7 85 f8 ec ff ff 	movq   $0x0,-0x1308(%rbp)
    8839:	00 00 00 00 
    883d:	c7 85 54 ec ff ff f8 	movl   $0xfffffff8,-0x13ac(%rbp)
    8844:	ff ff ff 
    8847:	48 8d 85 e0 ec ff ff 	lea    -0x1320(%rbp),%rax
    884e:	48 89 85 00 ed ff ff 	mov    %rax,-0x1300(%rbp)
    8855:	48 8d 85 00 ed ff ff 	lea    -0x1300(%rbp),%rax
    885c:	48 89 85 08 ed ff ff 	mov    %rax,-0x12f8(%rbp)
    8863:	48 8d 85 08 ed ff ff 	lea    -0x12f8(%rbp),%rax
    886a:	48 89 85 10 ed ff ff 	mov    %rax,-0x12f0(%rbp)
    8871:	48 8d 85 10 ed ff ff 	lea    -0x12f0(%rbp),%rax
    8878:	48 89 85 a0 ed ff ff 	mov    %rax,-0x1260(%rbp)
    887f:	c7 85 90 ec ff ff 85 	movl   $0xeefd9f85,-0x1370(%rbp)
    8886:	9f fd ee 
    8889:	48 8d 85 80 f9 ff ff 	lea    -0x680(%rbp),%rax
    8890:	48 8d 15 09 7d 00 00 	lea    0x7d09(%rip),%rdx        # 105a0 <g_589+0x548>
    8897:	b9 c8 00 00 00       	mov    $0xc8,%ecx
    889c:	48 89 c7             	mov    %rax,%rdi
    889f:	48 89 d6             	mov    %rdx,%rsi
    88a2:	f3 48 a5             	rep movsq %ds:(%rsi),%es:(%rdi)
    88a5:	c7 85 94 ec ff ff 89 	movl   $0xd0dd9889,-0x136c(%rbp)
    88ac:	98 dd d0 
    88af:	48 8d 85 90 f5 ff ff 	lea    -0xa70(%rbp),%rax
    88b6:	48 8d 15 23 83 00 00 	lea    0x8323(%rip),%rdx        # 10be0 <g_589+0xb88>
    88bd:	b9 7e 00 00 00       	mov    $0x7e,%ecx
    88c2:	48 89 c7             	mov    %rax,%rdi
    88c5:	48 89 d6             	mov    %rdx,%rsi
    88c8:	f3 48 a5             	rep movsq %ds:(%rsi),%es:(%rdi)
    88cb:	48 b8 62 aa d3 97 1b 	movabs $0x8ee1581b97d3aa62,%rax
    88d2:	58 e1 8e 
    88d5:	48 89 85 a8 ed ff ff 	mov    %rax,-0x1258(%rbp)
    88dc:	48 8b 85 10 ec ff ff 	mov    -0x13f0(%rbp),%rax
    88e3:	8b 00                	mov    (%rax),%eax
    88e5:	85 c0                	test   %eax,%eax
    88e7:	0f 85 b1 09 00 00    	jne    929e <func_14+0x1b75>
    88ed:	c6 05 74 c9 00 00 00 	movb   $0x0,0xc974(%rip)        # 15268 <g_111>
    88f4:	e9 2e 02 00 00       	jmpq   8b27 <func_14+0x13fe>
    88f9:	48 8d 85 f8 ec ff ff 	lea    -0x1308(%rbp),%rax
    8900:	48 89 85 b8 ed ff ff 	mov    %rax,-0x1248(%rbp)
    8907:	c7 85 9c ec ff ff 6b 	movl   $0xaf9d4c6b,-0x1364(%rbp)
    890e:	4c 9d af 
    8911:	48 8b 05 18 e8 00 00 	mov    0xe818(%rip),%rax        # 17130 <g_566>
    8918:	48 8b 95 08 ec ff ff 	mov    -0x13f8(%rbp),%rdx
    891f:	48 89 10             	mov    %rdx,(%rax)
    8922:	8b 85 9c ec ff ff    	mov    -0x1364(%rbp),%eax
    8928:	0f b6 d8             	movzbl %al,%ebx
    892b:	48 8b 05 86 d0 00 00 	mov    0xd086(%rip),%rax        # 159b8 <g_940+0x18>
    8932:	48 8b 05 67 cb 00 00 	mov    0xcb67(%rip),%rax        # 154a0 <g_270>
    8939:	48 c1 e8 32          	shr    $0x32,%rax
    893d:	48 89 c2             	mov    %rax,%rdx
    8940:	48 8b 05 61 cb 00 00 	mov    0xcb61(%rip),%rax        # 154a8 <g_270+0x8>
    8947:	83 e0 01             	and    $0x1,%eax
    894a:	48 c1 e0 0e          	shl    $0xe,%rax
    894e:	48 09 d0             	or     %rdx,%rax
    8951:	48 c1 e0 31          	shl    $0x31,%rax
    8955:	48 c1 f8 31          	sar    $0x31,%rax
    8959:	44 0f bf e0          	movswl %ax,%r12d
    895d:	48 8b 95 f8 ec ff ff 	mov    -0x1308(%rbp),%rdx
    8964:	48 8b 85 b8 ed ff ff 	mov    -0x1248(%rbp),%rax
    896b:	48 89 10             	mov    %rdx,(%rax)
    896e:	48 8b 85 b8 ed ff ff 	mov    -0x1248(%rbp),%rax
    8975:	48 8b 00             	mov    (%rax),%rax
    8978:	48 85 c0             	test   %rax,%rax
    897b:	0f 95 c0             	setne  %al
    897e:	0f b6 c0             	movzbl %al,%eax
    8981:	f7 d0                	not    %eax
    8983:	89 c2                	mov    %eax,%edx
    8985:	0f b6 05 56 d1 00 00 	movzbl 0xd156(%rip),%eax        # 15ae2 <g_1029>
    898c:	0f be c0             	movsbl %al,%eax
    898f:	09 d0                	or     %edx,%eax
    8991:	89 c7                	mov    %eax,%edi
    8993:	e8 fe cb ff ff       	callq  5596 <safe_unary_minus_func_int32_t_s>
    8998:	8b 85 fc eb ff ff    	mov    -0x1404(%rbp),%eax
    899e:	89 c2                	mov    %eax,%edx
    89a0:	48 8b 85 68 ed ff ff 	mov    -0x1298(%rbp),%rax
    89a7:	66 89 10             	mov    %dx,(%rax)
    89aa:	48 8b 85 68 ed ff ff 	mov    -0x1298(%rbp),%rax
    89b1:	0f b7 00             	movzwl (%rax),%eax
    89b4:	66 85 c0             	test   %ax,%ax
    89b7:	74 07                	je     89c0 <func_14+0x1297>
    89b9:	b8 01 00 00 00       	mov    $0x1,%eax
    89be:	eb 05                	jmp    89c5 <func_14+0x129c>
    89c0:	b8 00 00 00 00       	mov    $0x0,%eax
    89c5:	0f b6 c0             	movzbl %al,%eax
    89c8:	44 89 e6             	mov    %r12d,%esi
    89cb:	89 c7                	mov    %eax,%edi
    89cd:	e8 33 d2 ff ff       	callq  5c05 <safe_lshift_func_uint8_t_u_s>
    89d2:	0f b6 c0             	movzbl %al,%eax
    89d5:	89 de                	mov    %ebx,%esi
    89d7:	89 c7                	mov    %eax,%edi
    89d9:	e8 d0 d1 ff ff       	callq  5bae <safe_mod_func_uint8_t_u_u>
    89de:	83 bd fc eb ff ff 01 	cmpl   $0x1,-0x1404(%rbp)
    89e5:	0f 9f c2             	setg   %dl
    89e8:	48 8b 05 01 e5 00 00 	mov    0xe501(%rip),%rax        # 16ef0 <g_335>
    89ef:	48 8b 00             	mov    (%rax),%rax
    89f2:	0f b6 d2             	movzbl %dl,%edx
    89f5:	48 89 10             	mov    %rdx,(%rax)
    89f8:	48 8b 00             	mov    (%rax),%rax
    89fb:	89 c2                	mov    %eax,%edx
    89fd:	8b 85 9c ec ff ff    	mov    -0x1364(%rbp),%eax
    8a03:	21 c2                	and    %eax,%edx
    8a05:	48 8b 05 4c e5 00 00 	mov    0xe54c(%rip),%rax        # 16f58 <g_448>
    8a0c:	48 8b 00             	mov    (%rax),%rax
    8a0f:	0f b7 00             	movzwl (%rax),%eax
    8a12:	21 d0                	and    %edx,%eax
    8a14:	0f b6 c0             	movzbl %al,%eax
    8a17:	8b 95 fc eb ff ff    	mov    -0x1404(%rbp),%edx
    8a1d:	89 d6                	mov    %edx,%esi
    8a1f:	89 c7                	mov    %eax,%edi
    8a21:	e8 67 d2 ff ff       	callq  5c8d <safe_rshift_func_uint8_t_u_s>
    8a26:	b8 00 00 00 00       	mov    $0x0,%eax
    8a2b:	31 85 54 ec ff ff    	xor    %eax,-0x13ac(%rbp)
    8a31:	0f b6 05 d8 ca 00 00 	movzbl 0xcad8(%rip),%eax        # 15510 <g_612>
    8a38:	83 e0 01             	and    $0x1,%eax
    8a3b:	84 c0                	test   %al,%al
    8a3d:	74 05                	je     8a44 <func_14+0x131b>
    8a3f:	e9 fb ef ff ff       	jmpq   7a3f <func_14+0x316>
    8a44:	8b 85 fc eb ff ff    	mov    -0x1404(%rbp),%eax
    8a4a:	0f be d8             	movsbl %al,%ebx
    8a4d:	48 8b 05 ac ce 00 00 	mov    0xceac(%rip),%rax        # 15900 <g_651>
    8a54:	48 c1 e8 1c          	shr    $0x1c,%rax
    8a58:	25 ff ff 3f 00       	and    $0x3fffff,%eax
    8a5d:	44 0f be e0          	movsbl %al,%r12d
    8a61:	48 8b 85 28 ed ff ff 	mov    -0x12d8(%rbp),%rax
    8a68:	8b 00                	mov    (%rax),%eax
    8a6a:	89 c6                	mov    %eax,%esi
    8a6c:	bf 46 72 00 00       	mov    $0x7246,%edi
    8a71:	e8 b4 ca ff ff       	callq  552a <safe_rshift_func_int16_t_s_s>
    8a76:	0f be c0             	movsbl %al,%eax
    8a79:	44 89 e6             	mov    %r12d,%esi
    8a7c:	89 c7                	mov    %eax,%edi
    8a7e:	e8 6f c7 ff ff       	callq  51f2 <safe_sub_func_int8_t_s_s>
    8a83:	66 98                	cbtw   
    8a85:	0f b7 c0             	movzwl %ax,%eax
    8a88:	be 0f 00 00 00       	mov    $0xf,%esi
    8a8d:	89 c7                	mov    %eax,%edi
    8a8f:	e8 2a d3 ff ff       	callq  5dbe <safe_lshift_func_uint16_t_u_s>
    8a94:	83 c8 01             	or     $0x1,%eax
    8a97:	66 83 f8 07          	cmp    $0x7,%ax
    8a9b:	0f 95 c0             	setne  %al
    8a9e:	0f b6 c0             	movzbl %al,%eax
    8aa1:	39 85 fc eb ff ff    	cmp    %eax,-0x1404(%rbp)
    8aa7:	8b 85 fc eb ff ff    	mov    -0x1404(%rbp),%eax
    8aad:	0f be c0             	movsbl %al,%eax
    8ab0:	89 de                	mov    %ebx,%esi
    8ab2:	89 c7                	mov    %eax,%edi
    8ab4:	e8 59 c7 ff ff       	callq  5212 <safe_mul_func_int8_t_s_s>
    8ab9:	0f be d0             	movsbl %al,%edx
    8abc:	8b 05 eb c9 00 00    	mov    0xc9eb(%rip),%eax        # 154ad <g_270+0xd>
    8ac2:	34 c0                	xor    $0xc0,%al
    8ac4:	98                   	cwtl   
    8ac5:	89 d6                	mov    %edx,%esi
    8ac7:	89 c7                	mov    %eax,%edi
    8ac9:	e8 05 c9 ff ff       	callq  53d3 <safe_sub_func_int16_t_s_s>
    8ace:	48 8b 15 7b e4 00 00 	mov    0xe47b(%rip),%rdx        # 16f50 <g_449>
    8ad5:	0f b7 12             	movzwl (%rdx),%edx
    8ad8:	66 39 d0             	cmp    %dx,%ax
    8adb:	0f 95 c0             	setne  %al
    8ade:	0f b6 d0             	movzbl %al,%edx
    8ae1:	8b 05 95 c6 00 00    	mov    0xc695(%rip),%eax        # 1517c <g_28+0x5c>
    8ae7:	39 c2                	cmp    %eax,%edx
    8ae9:	0f 94 c0             	sete   %al
    8aec:	0f b6 d0             	movzbl %al,%edx
    8aef:	48 8b 05 d2 e3 00 00 	mov    0xe3d2(%rip),%rax        # 16ec8 <g_195>
    8af6:	8b 00                	mov    (%rax),%eax
    8af8:	09 d0                	or     %edx,%eax
    8afa:	85 c0                	test   %eax,%eax
    8afc:	0f 94 c2             	sete   %dl
    8aff:	48 8b 85 d8 ec ff ff 	mov    -0x1328(%rbp),%rax
    8b06:	0f b6 d2             	movzbl %dl,%edx
    8b09:	89 10                	mov    %edx,(%rax)
    8b0b:	0f b6 05 56 c7 00 00 	movzbl 0xc756(%rip),%eax        # 15268 <g_111>
    8b12:	0f b6 c0             	movzbl %al,%eax
    8b15:	be 01 00 00 00       	mov    $0x1,%esi
    8b1a:	89 c7                	mov    %eax,%edi
    8b1c:	e8 39 d0 ff ff       	callq  5b5a <safe_add_func_uint8_t_u_u>
    8b21:	88 05 41 c7 00 00    	mov    %al,0xc741(%rip)        # 15268 <g_111>
    8b27:	0f b6 05 3a c7 00 00 	movzbl 0xc73a(%rip),%eax        # 15268 <g_111>
    8b2e:	3c 30                	cmp    $0x30,%al
    8b30:	0f 87 c3 fd ff ff    	ja     88f9 <func_14+0x11d0>
    8b36:	8b 85 fc eb ff ff    	mov    -0x1404(%rbp),%eax
    8b3c:	4c 63 e0             	movslq %eax,%r12
    8b3f:	0f b6 05 2e cf 00 00 	movzbl 0xcf2e(%rip),%eax        # 15a74 <g_961+0x74>
    8b46:	48 0f be d8          	movsbq %al,%rbx
    8b4a:	48 8b 85 f8 ee ff ff 	mov    -0x1108(%rbp),%rax
    8b51:	48 85 c0             	test   %rax,%rax
    8b54:	0f 95 c0             	setne  %al
    8b57:	44 0f b6 e8          	movzbl %al,%r13d
    8b5b:	48 8b 05 4e e6 00 00 	mov    0xe64e(%rip),%rax        # 171b0 <g_1307>
    8b62:	48 8b 00             	mov    (%rax),%rax
    8b65:	48 8b 00             	mov    (%rax),%rax
    8b68:	48 8b 10             	mov    (%rax),%rdx
    8b6b:	48 8b 05 4e e7 00 00 	mov    0xe74e(%rip),%rax        # 172c0 <g_1442+0x100>
    8b72:	48 89 05 d7 e9 00 00 	mov    %rax,0xe9d7(%rip)        # 17550 <g_1442+0x390>
    8b79:	48 8b 05 d0 e9 00 00 	mov    0xe9d0(%rip),%rax        # 17550 <g_1442+0x390>
    8b80:	48 39 c2             	cmp    %rax,%rdx
    8b83:	0f 95 c0             	setne  %al
    8b86:	0f b6 c0             	movzbl %al,%eax
    8b89:	be 33 2e 00 00       	mov    $0x2e33,%esi
    8b8e:	89 c7                	mov    %eax,%edi
    8b90:	e8 c0 c8 ff ff       	callq  5455 <safe_div_func_int16_t_s_s>
    8b95:	48 0f bf c0          	movswq %ax,%rax
    8b99:	48 c7 c6 ff ff ff ff 	mov    $0xffffffffffffffff,%rsi
    8ba0:	48 89 c7             	mov    %rax,%rdi
    8ba3:	e8 86 d4 ff ff       	callq  602e <safe_add_func_uint64_t_u_u>
    8ba8:	98                   	cwtl   
    8ba9:	be a8 72 00 00       	mov    $0x72a8,%esi
    8bae:	89 c7                	mov    %eax,%edi
    8bb0:	e8 1e c8 ff ff       	callq  53d3 <safe_sub_func_int16_t_s_s>
    8bb5:	48 0f bf c0          	movswq %ax,%rax
    8bb9:	48 0d 84 b9 00 00    	or     $0xb984,%rax
    8bbf:	4c 89 ea             	mov    %r13,%rdx
    8bc2:	48 09 c2             	or     %rax,%rdx
    8bc5:	0f b6 85 25 ec ff ff 	movzbl -0x13db(%rbp),%eax
    8bcc:	48 39 c2             	cmp    %rax,%rdx
    8bcf:	0f 9f c0             	setg   %al
    8bd2:	0f b6 c0             	movzbl %al,%eax
    8bd5:	be 05 00 00 00       	mov    $0x5,%esi
    8bda:	89 c7                	mov    %eax,%edi
    8bdc:	e8 25 d2 ff ff       	callq  5e06 <safe_lshift_func_uint16_t_u_u>
    8be1:	0f b7 d0             	movzwl %ax,%edx
    8be4:	8b 05 9e cb 00 00    	mov    0xcb9e(%rip),%eax        # 15788 <g_638+0x248>
    8bea:	48 98                	cltq   
    8bec:	48 89 d6             	mov    %rdx,%rsi
    8bef:	48 89 c7             	mov    %rax,%rdi
    8bf2:	e8 b8 d4 ff ff       	callq  60af <safe_div_func_uint64_t_u_u>
    8bf7:	48 89 c6             	mov    %rax,%rsi
    8bfa:	48 bf 41 9a 45 88 30 	movabs $0x70d4b43088459a41,%rdi
    8c01:	b4 d4 70 
    8c04:	e8 a6 d4 ff ff       	callq  60af <safe_div_func_uint64_t_u_u>
    8c09:	0f b7 c0             	movzwl %ax,%eax
    8c0c:	be 02 00 00 00       	mov    $0x2,%esi
    8c11:	89 c7                	mov    %eax,%edi
    8c13:	e8 30 d2 ff ff       	callq  5e48 <safe_rshift_func_uint16_t_u_s>
    8c18:	0f b7 c0             	movzwl %ax,%eax
    8c1b:	48 89 de             	mov    %rbx,%rsi
    8c1e:	48 89 c7             	mov    %rax,%rdi
    8c21:	e8 08 d4 ff ff       	callq  602e <safe_add_func_uint64_t_u_u>
    8c26:	48 89 c6             	mov    %rax,%rsi
    8c29:	48 c7 c7 fa ff ff ff 	mov    $0xfffffffffffffffa,%rdi
    8c30:	e8 73 cc ff ff       	callq  58a8 <safe_sub_func_int64_t_s_s>
    8c35:	49 39 c4             	cmp    %rax,%r12
    8c38:	0f 84 45 01 00 00    	je     8d83 <func_14+0x165a>
    8c3e:	c7 85 58 ec ff ff 00 	movl   $0x0,-0x13a8(%rbp)
    8c45:	00 00 00 
    8c48:	eb 14                	jmp    8c5e <func_14+0x1535>
    8c4a:	8b 85 58 ec ff ff    	mov    -0x13a8(%rbp),%eax
    8c50:	48 98                	cltq   
    8c52:	c6 44 05 c7 94       	movb   $0x94,-0x39(%rbp,%rax,1)
    8c57:	83 85 58 ec ff ff 01 	addl   $0x1,-0x13a8(%rbp)
    8c5e:	83 bd 58 ec ff ff 00 	cmpl   $0x0,-0x13a8(%rbp)
    8c65:	7e e3                	jle    8c4a <func_14+0x1521>
    8c67:	48 8b 85 70 ed ff ff 	mov    -0x1290(%rbp),%rax
    8c6e:	48 3b 85 38 ed ff ff 	cmp    -0x12c8(%rbp),%rax
    8c75:	0f 95 c0             	setne  %al
    8c78:	0f b6 c0             	movzbl %al,%eax
    8c7b:	23 85 fc eb ff ff    	and    -0x1404(%rbp),%eax
    8c81:	41 89 c4             	mov    %eax,%r12d
    8c84:	48 8b 05 bd e4 00 00 	mov    0xe4bd(%rip),%rax        # 17148 <g_1020>
    8c8b:	0f b6 00             	movzbl (%rax),%eax
    8c8e:	0f be d8             	movsbl %al,%ebx
    8c91:	48 8b 05 58 e2 00 00 	mov    0xe258(%rip),%rax        # 16ef0 <g_335>
    8c98:	48 8b 00             	mov    (%rax),%rax
    8c9b:	48 8b 08             	mov    (%rax),%rcx
    8c9e:	8b 85 fc eb ff ff    	mov    -0x1404(%rbp),%eax
    8ca4:	48 63 d0             	movslq %eax,%rdx
    8ca7:	48 8b 05 42 e2 00 00 	mov    0xe242(%rip),%rax        # 16ef0 <g_335>
    8cae:	48 8b 00             	mov    (%rax),%rax
    8cb1:	48 31 ca             	xor    %rcx,%rdx
    8cb4:	48 89 10             	mov    %rdx,(%rax)
    8cb7:	8b 85 fc eb ff ff    	mov    -0x1404(%rbp),%eax
    8cbd:	0f b7 d0             	movzwl %ax,%edx
    8cc0:	48 8d 05 e1 e4 00 00 	lea    0xe4e1(%rip),%rax        # 171a8 <g_1308>
    8cc7:	48 39 85 a0 ed ff ff 	cmp    %rax,-0x1260(%rbp)
    8cce:	0f 94 c0             	sete   %al
    8cd1:	0f b6 c8             	movzbl %al,%ecx
    8cd4:	0f b6 45 c7          	movzbl -0x39(%rbp),%eax
    8cd8:	66 98                	cbtw   
    8cda:	21 c8                	and    %ecx,%eax
    8cdc:	0f b7 c0             	movzwl %ax,%eax
    8cdf:	89 d6                	mov    %edx,%esi
    8ce1:	89 c7                	mov    %eax,%edi
    8ce3:	e8 55 d0 ff ff       	callq  5d3d <safe_mul_func_uint16_t_u_u>
    8ce8:	0f b7 c0             	movzwl %ax,%eax
    8ceb:	39 85 fc eb ff ff    	cmp    %eax,-0x1404(%rbp)
    8cf1:	89 de                	mov    %ebx,%esi
    8cf3:	bf b1 ff ff ff       	mov    $0xffffffb1,%edi
    8cf8:	e8 6d c5 ff ff       	callq  526a <safe_div_func_int8_t_s_s>
    8cfd:	0f be c0             	movsbl %al,%eax
    8d00:	23 85 fc eb ff ff    	and    -0x1404(%rbp),%eax
    8d06:	85 c0                	test   %eax,%eax
    8d08:	74 07                	je     8d11 <func_14+0x15e8>
    8d0a:	b8 01 00 00 00       	mov    $0x1,%eax
    8d0f:	eb 05                	jmp    8d16 <func_14+0x15ed>
    8d11:	b8 00 00 00 00       	mov    $0x0,%eax
    8d16:	89 c6                	mov    %eax,%esi
    8d18:	bf 00 00 00 00       	mov    $0x0,%edi
    8d1d:	e8 db d1 ff ff       	callq  5efd <safe_mod_func_uint32_t_u_u>
    8d22:	be 06 00 00 00       	mov    $0x6,%esi
    8d27:	bf 02 00 00 00       	mov    $0x2,%edi
    8d2c:	e8 1b cf ff ff       	callq  5c4c <safe_lshift_func_uint8_t_u_u>
    8d31:	0f b6 d0             	movzbl %al,%edx
    8d34:	8b 85 fc eb ff ff    	mov    -0x1404(%rbp),%eax
    8d3a:	89 d6                	mov    %edx,%esi
    8d3c:	89 c7                	mov    %eax,%edi
    8d3e:	e8 e2 d1 ff ff       	callq  5f25 <safe_div_func_uint32_t_u_u>
    8d43:	3d 81 37 35 f1       	cmp    $0xf1353781,%eax
    8d48:	0f 96 c0             	setbe  %al
    8d4b:	0f b6 c0             	movzbl %al,%eax
    8d4e:	be cd 78 00 00       	mov    $0x78cd,%esi
    8d53:	89 c7                	mov    %eax,%edi
    8d55:	e8 a5 cf ff ff       	callq  5cff <safe_add_func_uint16_t_u_u>
    8d5a:	0f b7 c0             	movzwl %ax,%eax
    8d5d:	39 85 fc eb ff ff    	cmp    %eax,-0x1404(%rbp)
    8d63:	0f 9d c0             	setge  %al
    8d66:	0f b6 c0             	movzbl %al,%eax
    8d69:	44 89 e2             	mov    %r12d,%edx
    8d6c:	09 c2                	or     %eax,%edx
    8d6e:	48 8b 85 28 ed ff ff 	mov    -0x12d8(%rbp),%rax
    8d75:	89 10                	mov    %edx,(%rax)
    8d77:	48 8b 85 00 ec ff ff 	mov    -0x1400(%rbp),%rax
    8d7e:	e9 39 05 00 00       	jmpq   92bc <func_14+0x1b93>
    8d83:	48 8d 05 5e e1 00 00 	lea    0xe15e(%rip),%rax        # 16ee8 <g_336>
    8d8a:	48 89 85 b0 ed ff ff 	mov    %rax,-0x1250(%rbp)
    8d91:	c7 85 98 ec ff ff 50 	movl   $0xe72c3350,-0x1368(%rbp)
    8d98:	33 2c e7 
    8d9b:	48 8b 05 96 e3 00 00 	mov    0xe396(%rip),%rax        # 17138 <g_652>
    8da2:	48 c7 00 00 00 00 00 	movq   $0x0,(%rax)
    8da9:	48 8b 85 48 ed ff ff 	mov    -0x12b8(%rbp),%rax
    8db0:	8b 00                	mov    (%rax),%eax
    8db2:	83 e0 01             	and    $0x1,%eax
    8db5:	89 c2                	mov    %eax,%edx
    8db7:	48 8b 85 48 ed ff ff 	mov    -0x12b8(%rbp),%rax
    8dbe:	89 10                	mov    %edx,(%rax)
    8dc0:	8b 85 98 ec ff ff    	mov    -0x1368(%rbp),%eax
    8dc6:	48 63 d8             	movslq %eax,%rbx
    8dc9:	8b 05 b9 98 00 00    	mov    0x98b9(%rip),%eax        # 12688 <l_1408.4314+0x228>
    8dcf:	8b 95 fc eb ff ff    	mov    -0x1404(%rbp),%edx
    8dd5:	89 d6                	mov    %edx,%esi
    8dd7:	89 c7                	mov    %eax,%edi
    8dd9:	e8 d8 c7 ff ff       	callq  55b6 <safe_add_func_int32_t_s_s>
    8dde:	0f b7 d0             	movzwl %ax,%edx
    8de1:	48 8b 85 48 ed ff ff 	mov    -0x12b8(%rbp),%rax
    8de8:	8b 00                	mov    (%rax),%eax
    8dea:	89 c1                	mov    %eax,%ecx
    8dec:	48 8b 05 d5 e0 00 00 	mov    0xe0d5(%rip),%rax        # 16ec8 <g_195>
    8df3:	8b 00                	mov    (%rax),%eax
    8df5:	31 c1                	xor    %eax,%ecx
    8df7:	48 8b 85 20 ed ff ff 	mov    -0x12e0(%rbp),%rax
    8dfe:	89 08                	mov    %ecx,(%rax)
    8e00:	8b 85 fc eb ff ff    	mov    -0x1404(%rbp),%eax
    8e06:	0f b7 c0             	movzwl %ax,%eax
    8e09:	89 d6                	mov    %edx,%esi
    8e0b:	89 c7                	mov    %eax,%edi
    8e0d:	e8 4a cf ff ff       	callq  5d5c <safe_mod_func_uint16_t_u_u>
    8e12:	0f b7 d0             	movzwl %ax,%edx
    8e15:	0f b6 85 25 ec ff ff 	movzbl -0x13db(%rbp),%eax
    8e1c:	09 d0                	or     %edx,%eax
    8e1e:	48 98                	cltq   
    8e20:	be 01 00 00 00       	mov    $0x1,%esi
    8e25:	48 89 c7             	mov    %rax,%rdi
    8e28:	e8 7b ca ff ff       	callq  58a8 <safe_sub_func_int64_t_s_s>
    8e2d:	48 39 c3             	cmp    %rax,%rbx
    8e30:	7f 10                	jg     8e42 <func_14+0x1719>
    8e32:	80 bd 25 ec ff ff 00 	cmpb   $0x0,-0x13db(%rbp)
    8e39:	74 07                	je     8e42 <func_14+0x1719>
    8e3b:	b8 01 00 00 00       	mov    $0x1,%eax
    8e40:	eb 05                	jmp    8e47 <func_14+0x171e>
    8e42:	b8 00 00 00 00       	mov    $0x0,%eax
    8e47:	0f be d0             	movsbl %al,%edx
    8e4a:	48 8b 05 5f e0 00 00 	mov    0xe05f(%rip),%rax        # 16eb0 <g_171>
    8e51:	48 8b 00             	mov    (%rax),%rax
    8e54:	8b 00                	mov    (%rax),%eax
    8e56:	85 c0                	test   %eax,%eax
    8e58:	75 0a                	jne    8e64 <func_14+0x173b>
    8e5a:	48 83 bd b0 ed ff ff 	cmpq   $0x0,-0x1250(%rbp)
    8e61:	00 
    8e62:	75 07                	jne    8e6b <func_14+0x1742>
    8e64:	b8 01 00 00 00       	mov    $0x1,%eax
    8e69:	eb 05                	jmp    8e70 <func_14+0x1747>
    8e6b:	b8 00 00 00 00       	mov    $0x0,%eax
    8e70:	0f be c0             	movsbl %al,%eax
    8e73:	89 d6                	mov    %edx,%esi
    8e75:	89 c7                	mov    %eax,%edi
    8e77:	e8 b5 c3 ff ff       	callq  5231 <safe_mod_func_int8_t_s_s>
    8e7c:	0f be d0             	movsbl %al,%edx
    8e7f:	48 8b 85 48 ed ff ff 	mov    -0x12b8(%rbp),%rax
    8e86:	8b 00                	mov    (%rax),%eax
    8e88:	39 c2                	cmp    %eax,%edx
    8e8a:	0f 9e c0             	setle  %al
    8e8d:	0f b6 c0             	movzbl %al,%eax
    8e90:	31 85 7c ec ff ff    	xor    %eax,-0x1384(%rbp)
    8e96:	48 8b 85 28 ed ff ff 	mov    -0x12d8(%rbp),%rax
    8e9d:	44 8b 28             	mov    (%rax),%r13d
    8ea0:	8b 85 98 ec ff ff    	mov    -0x1368(%rbp),%eax
    8ea6:	0f bf d8             	movswl %ax,%ebx
    8ea9:	48 8b 85 68 ed ff ff 	mov    -0x1298(%rbp),%rax
    8eb0:	66 c7 00 ad e8       	movw   $0xe8ad,(%rax)
    8eb5:	48 8b 85 28 ed ff ff 	mov    -0x12d8(%rbp),%rax
    8ebc:	8b 00                	mov    (%rax),%eax
    8ebe:	44 0f bf e0          	movswl %ax,%r12d
    8ec2:	48 8b 85 10 ec ff ff 	mov    -0x13f0(%rbp),%rax
    8ec9:	8b 10                	mov    (%rax),%edx
    8ecb:	48 8b 85 d8 ec ff ff 	mov    -0x1328(%rbp),%rax
    8ed2:	8b 00                	mov    (%rax),%eax
    8ed4:	89 d6                	mov    %edx,%esi
    8ed6:	89 c7                	mov    %eax,%edi
    8ed8:	e8 22 c8 ff ff       	callq  56ff <safe_div_func_int32_t_s_s>
    8edd:	3d fd ff 00 00       	cmp    $0xfffd,%eax
    8ee2:	0f 94 c0             	sete   %al
    8ee5:	0f b6 c0             	movzbl %al,%eax
    8ee8:	be 02 00 00 00       	mov    $0x2,%esi
    8eed:	89 c7                	mov    %eax,%edi
    8eef:	e8 ca ce ff ff       	callq  5dbe <safe_lshift_func_uint16_t_u_s>
    8ef4:	0f b7 d0             	movzwl %ax,%edx
    8ef7:	8b 05 8f 96 00 00    	mov    0x968f(%rip),%eax        # 1258c <l_1408.4314+0x12c>
    8efd:	89 c1                	mov    %eax,%ecx
    8eff:	8b 85 fc eb ff ff    	mov    -0x1404(%rbp),%eax
    8f05:	09 c8                	or     %ecx,%eax
    8f07:	0f b7 c0             	movzwl %ax,%eax
    8f0a:	89 d6                	mov    %edx,%esi
    8f0c:	89 c7                	mov    %eax,%edi
    8f0e:	e8 2a ce ff ff       	callq  5d3d <safe_mul_func_uint16_t_u_u>
    8f13:	81 bd 98 ec ff ff 0c 	cmpl   $0xd10c,-0x1368(%rbp)
    8f1a:	d1 00 00 
    8f1d:	0f 9f c0             	setg   %al
    8f20:	0f b6 d0             	movzbl %al,%edx
    8f23:	48 8b 85 50 ed ff ff 	mov    -0x12b0(%rbp),%rax
    8f2a:	48 89 10             	mov    %rdx,(%rax)
    8f2d:	48 8b 85 50 ed ff ff 	mov    -0x12b0(%rbp),%rax
    8f34:	48 8b 10             	mov    (%rax),%rdx
    8f37:	0f b7 05 da c5 00 00 	movzwl 0xc5da(%rip),%eax        # 15518 <g_612+0x8>
    8f3e:	c1 e0 03             	shl    $0x3,%eax
    8f41:	66 c1 f8 04          	sar    $0x4,%ax
    8f45:	48 0f bf c0          	movswq %ax,%rax
    8f49:	48 39 c2             	cmp    %rax,%rdx
    8f4c:	0f 92 c0             	setb   %al
    8f4f:	0f b6 c0             	movzbl %al,%eax
    8f52:	44 89 e6             	mov    %r12d,%esi
    8f55:	89 c7                	mov    %eax,%edi
    8f57:	e8 f9 c4 ff ff       	callq  5455 <safe_div_func_int16_t_s_s>
    8f5c:	0f b6 85 b2 ee ff ff 	movzbl -0x114e(%rbp),%eax
    8f63:	0f b6 c0             	movzbl %al,%eax
    8f66:	39 85 fc eb ff ff    	cmp    %eax,-0x1404(%rbp)
    8f6c:	7c 10                	jl     8f7e <func_14+0x1855>
    8f6e:	83 bd fc eb ff ff 00 	cmpl   $0x0,-0x1404(%rbp)
    8f75:	74 07                	je     8f7e <func_14+0x1855>
    8f77:	b8 01 00 00 00       	mov    $0x1,%eax
    8f7c:	eb 05                	jmp    8f83 <func_14+0x185a>
    8f7e:	b8 00 00 00 00       	mov    $0x0,%eax
    8f83:	83 f8 07             	cmp    $0x7,%eax
    8f86:	0f 97 c0             	seta   %al
    8f89:	0f b6 c0             	movzbl %al,%eax
    8f8c:	89 de                	mov    %ebx,%esi
    8f8e:	89 c7                	mov    %eax,%edi
    8f90:	e8 60 c4 ff ff       	callq  53f5 <safe_mul_func_int16_t_s_s>
    8f95:	98                   	cwtl   
    8f96:	41 39 c5             	cmp    %eax,%r13d
    8f99:	0f 9c c0             	setl   %al
    8f9c:	0f b6 c0             	movzbl %al,%eax
    8f9f:	33 85 98 ec ff ff    	xor    -0x1368(%rbp),%eax
    8fa5:	3d a1 00 00 00       	cmp    $0xa1,%eax
    8faa:	0f 9f c0             	setg   %al
    8fad:	0f b6 c0             	movzbl %al,%eax
    8fb0:	39 85 fc eb ff ff    	cmp    %eax,-0x1404(%rbp)
    8fb6:	0f 9f c0             	setg   %al
    8fb9:	0f b6 d0             	movzbl %al,%edx
    8fbc:	48 8b 85 28 ed ff ff 	mov    -0x12d8(%rbp),%rax
    8fc3:	89 10                	mov    %edx,(%rax)
    8fc5:	83 85 8c ec ff ff 01 	addl   $0x1,-0x1374(%rbp)
    8fcc:	e9 81 02 00 00       	jmpq   9252 <func_14+0x1b29>
    8fd1:	66 c7 85 2a ec ff ff 	movw   $0x0,-0x13d6(%rbp)
    8fd8:	00 00 
    8fda:	c6 05 23 c5 00 00 00 	movb   $0x0,0xc523(%rip)        # 15504 <g_593>
    8fe1:	eb 59                	jmp    903c <func_14+0x1913>
    8fe3:	48 8b 05 be de 00 00 	mov    0xdebe(%rip),%rax        # 16ea8 <g_172>
    8fea:	8b 10                	mov    (%rax),%edx
    8fec:	48 8b 05 b5 de 00 00 	mov    0xdeb5(%rip),%rax        # 16ea8 <g_172>
    8ff3:	81 f2 fc 19 ba c3    	xor    $0xc3ba19fc,%edx
    8ff9:	89 10                	mov    %edx,(%rax)
    8ffb:	48 8b 85 d8 ec ff ff 	mov    -0x1328(%rbp),%rax
    9002:	8b 10                	mov    (%rax),%edx
    9004:	48 8b 85 40 ed ff ff 	mov    -0x12c0(%rbp),%rax
    900b:	89 10                	mov    %edx,(%rax)
    900d:	48 8b 05 2c e9 00 00 	mov    0xe92c(%rip),%rax        # 17940 <g_1501>
    9014:	48 89 85 f0 ec ff ff 	mov    %rax,-0x1310(%rbp)
    901b:	48 8b 85 f0 ec ff ff 	mov    -0x1310(%rbp),%rax
    9022:	8b 10                	mov    (%rax),%edx
    9024:	81 f2 6a c9 02 2a    	xor    $0x2a02c96a,%edx
    902a:	89 10                	mov    %edx,(%rax)
    902c:	0f b6 05 d1 c4 00 00 	movzbl 0xc4d1(%rip),%eax        # 15504 <g_593>
    9033:	83 c0 01             	add    $0x1,%eax
    9036:	88 05 c8 c4 00 00    	mov    %al,0xc4c8(%rip)        # 15504 <g_593>
    903c:	0f b6 05 c1 c4 00 00 	movzbl 0xc4c1(%rip),%eax        # 15504 <g_593>
    9043:	3c 04                	cmp    $0x4,%al
    9045:	76 9c                	jbe    8fe3 <func_14+0x18ba>
    9047:	c7 85 48 ec ff ff 00 	movl   $0x0,-0x13b8(%rbp)
    904e:	00 00 00 
    9051:	e9 c1 01 00 00       	jmpq   9217 <func_14+0x1aee>
    9056:	48 8d 85 e0 ec ff ff 	lea    -0x1320(%rbp),%rax
    905d:	48 89 85 10 ed ff ff 	mov    %rax,-0x12f0(%rbp)
    9064:	48 8d 85 10 ed ff ff 	lea    -0x12f0(%rbp),%rax
    906b:	48 89 85 98 ed ff ff 	mov    %rax,-0x1268(%rbp)
    9072:	48 8d 85 80 f9 ff ff 	lea    -0x680(%rbp),%rax
    9079:	48 8d 15 60 7f 00 00 	lea    0x7f60(%rip),%rdx        # 10fe0 <g_589+0xf88>
    9080:	b9 36 00 00 00       	mov    $0x36,%ecx
    9085:	48 89 c7             	mov    %rax,%rdi
    9088:	48 89 d6             	mov    %rdx,%rsi
    908b:	f3 48 a5             	rep movsq %ds:(%rsi),%es:(%rdi)
    908e:	48 8b 05 6b c8 00 00 	mov    0xc86b(%rip),%rax        # 15900 <g_651>
    9095:	48 c1 e8 1c          	shr    $0x1c,%rax
    9099:	25 ff ff 3f 00       	and    $0x3fffff,%eax
    909e:	85 c0                	test   %eax,%eax
    90a0:	0f 85 5b ec ff ff    	jne    7d01 <func_14+0x5d8>
    90a6:	66 83 bd 2a ec ff ff 	cmpw   $0x0,-0x13d6(%rbp)
    90ad:	00 
    90ae:	0f 85 48 01 00 00    	jne    91fc <func_14+0x1ad3>
    90b4:	8b 85 fc eb ff ff    	mov    -0x1404(%rbp),%eax
    90ba:	0f be d8             	movsbl %al,%ebx
    90bd:	48 8b 85 10 ec ff ff 	mov    -0x13f0(%rbp),%rax
    90c4:	44 8b 20             	mov    (%rax),%r12d
    90c7:	8b 85 fc eb ff ff    	mov    -0x1404(%rbp),%eax
    90cd:	44 0f b7 e8          	movzwl %ax,%r13d
    90d1:	8b 05 e1 c1 00 00    	mov    0xc1e1(%rip),%eax        # 152b8 <g_114>
    90d7:	44 0f b6 f0          	movzbl %al,%r14d
    90db:	48 8b 05 e6 dd 00 00 	mov    0xdde6(%rip),%rax        # 16ec8 <g_195>
    90e2:	8b 00                	mov    (%rax),%eax
    90e4:	89 c2                	mov    %eax,%edx
    90e6:	83 bd fc eb ff ff 01 	cmpl   $0x1,-0x1404(%rbp)
    90ed:	0f 94 c0             	sete   %al
    90f0:	0f b6 c0             	movzbl %al,%eax
    90f3:	89 d6                	mov    %edx,%esi
    90f5:	89 c7                	mov    %eax,%edi
    90f7:	e8 09 c5 ff ff       	callq  5605 <safe_sub_func_int32_t_s_s>
    90fc:	0f be c0             	movsbl %al,%eax
    90ff:	89 c6                	mov    %eax,%esi
    9101:	bf 01 00 00 00       	mov    $0x1,%edi
    9106:	e8 26 c1 ff ff       	callq  5231 <safe_mod_func_int8_t_s_s>
    910b:	0f b6 c0             	movzbl %al,%eax
    910e:	44 89 f6             	mov    %r14d,%esi
    9111:	89 c7                	mov    %eax,%edi
    9113:	e8 c3 ca ff ff       	callq  5bdb <safe_div_func_uint8_t_u_u>
    9118:	0f b6 c0             	movzbl %al,%eax
    911b:	44 89 ee             	mov    %r13d,%esi
    911e:	89 c7                	mov    %eax,%edi
    9120:	e8 37 cc ff ff       	callq  5d5c <safe_mod_func_uint16_t_u_u>
    9125:	66 85 c0             	test   %ax,%ax
    9128:	0f 95 c0             	setne  %al
    912b:	0f b6 c0             	movzbl %al,%eax
    912e:	44 89 e6             	mov    %r12d,%esi
    9131:	89 c7                	mov    %eax,%edi
    9133:	e8 cd c4 ff ff       	callq  5605 <safe_sub_func_int32_t_s_s>
    9138:	85 c0                	test   %eax,%eax
    913a:	74 07                	je     9143 <func_14+0x1a1a>
    913c:	83 bd fc eb ff ff 00 	cmpl   $0x0,-0x1404(%rbp)
    9143:	8b 85 a4 fa ff ff    	mov    -0x55c(%rbp),%eax
    9149:	33 85 fc eb ff ff    	xor    -0x1404(%rbp),%eax
    914f:	48 98                	cltq   
    9151:	48 89 c6             	mov    %rax,%rsi
    9154:	48 bf 4d 29 bd be bb 	movabs $0x1bbb9ebbbebd294d,%rdi
    915b:	9e bb 1b 
    915e:	e8 94 c8 ff ff       	callq  59f7 <safe_div_func_int64_t_s_s>
    9163:	0f b6 c0             	movzbl %al,%eax
    9166:	be 7d 00 00 00       	mov    $0x7d,%esi
    916b:	89 c7                	mov    %eax,%edi
    916d:	e8 21 ca ff ff       	callq  5b93 <safe_mul_func_uint8_t_u_u>
    9172:	48 8b 05 77 dd 00 00 	mov    0xdd77(%rip),%rax        # 16ef0 <g_335>
    9179:	48 8b 00             	mov    (%rax),%rax
    917c:	48 8b 10             	mov    (%rax),%rdx
    917f:	48 8b 05 72 dd 00 00 	mov    0xdd72(%rip),%rax        # 16ef8 <g_334>
    9186:	48 8b 00             	mov    (%rax),%rax
    9189:	48 8b 00             	mov    (%rax),%rax
    918c:	48 8b 00             	mov    (%rax),%rax
    918f:	48 89 d6             	mov    %rdx,%rsi
    9192:	48 89 c7             	mov    %rax,%rdi
    9195:	e8 5d c8 ff ff       	callq  59f7 <safe_div_func_int64_t_s_s>
    919a:	8b 95 7c ec ff ff    	mov    -0x1384(%rbp),%edx
    91a0:	48 63 d2             	movslq %edx,%rdx
    91a3:	48 39 d0             	cmp    %rdx,%rax
    91a6:	0f 9c c0             	setl   %al
    91a9:	0f b6 d0             	movzbl %al,%edx
    91ac:	8b 05 82 c7 00 00    	mov    0xc782(%rip),%eax        # 15934 <g_702>
    91b2:	09 c2                	or     %eax,%edx
    91b4:	8b 85 fc eb ff ff    	mov    -0x1404(%rbp),%eax
    91ba:	21 c2                	and    %eax,%edx
    91bc:	0f b7 85 2a ec ff ff 	movzwl -0x13d6(%rbp),%eax
    91c3:	39 c2                	cmp    %eax,%edx
    91c5:	0f 92 c0             	setb   %al
    91c8:	0f b6 c0             	movzbl %al,%eax
    91cb:	89 de                	mov    %ebx,%esi
    91cd:	89 c7                	mov    %eax,%edi
    91cf:	e8 00 c0 ff ff       	callq  51d4 <safe_add_func_int8_t_s_s>
    91d4:	0f b6 c0             	movzbl %al,%eax
    91d7:	be 76 00 00 00       	mov    $0x76,%esi
    91dc:	89 c7                	mov    %eax,%edi
    91de:	e8 95 c9 ff ff       	callq  5b78 <safe_sub_func_uint8_t_u_u>
    91e3:	48 8b 95 48 ed ff ff 	mov    -0x12b8(%rbp),%rdx
    91ea:	8b 12                	mov    (%rdx),%edx
    91ec:	0f b6 c0             	movzbl %al,%eax
    91ef:	31 c2                	xor    %eax,%edx
    91f1:	48 8b 85 48 ed ff ff 	mov    -0x12b8(%rbp),%rax
    91f8:	89 10                	mov    %edx,(%rax)
    91fa:	eb 01                	jmp    91fd <func_14+0x1ad4>
    91fc:	90                   	nop
    91fd:	8b 85 48 ec ff ff    	mov    -0x13b8(%rbp),%eax
    9203:	98                   	cwtl   
    9204:	be 01 00 00 00       	mov    $0x1,%esi
    9209:	89 c7                	mov    %eax,%edi
    920b:	e8 c3 c1 ff ff       	callq  53d3 <safe_sub_func_int16_t_s_s>
    9210:	98                   	cwtl   
    9211:	89 85 48 ec ff ff    	mov    %eax,-0x13b8(%rbp)
    9217:	83 bd 48 ec ff ff ff 	cmpl   $0xffffffff,-0x13b8(%rbp)
    921e:	0f 8c 32 fe ff ff    	jl     9056 <func_14+0x192d>
    9224:	48 8b 95 f0 ec ff ff 	mov    -0x1310(%rbp),%rdx
    922b:	48 8b 85 f0 ec ff ff 	mov    -0x1310(%rbp),%rax
    9232:	8b 12                	mov    (%rdx),%edx
    9234:	89 10                	mov    %edx,(%rax)
    9236:	48 8b 05 73 dc 00 00 	mov    0xdc73(%rip),%rax        # 16eb0 <g_171>
    923d:	48 8b 00             	mov    (%rax),%rax
    9240:	8b 00                	mov    (%rax),%eax
    9242:	48 8b 9d d8 ec ff ff 	mov    -0x1328(%rbp),%rbx
    9249:	89 c7                	mov    %eax,%edi
    924b:	e8 46 c3 ff ff       	callq  5596 <safe_unary_minus_func_int32_t_s>
    9250:	89 03                	mov    %eax,(%rbx)
    9252:	48 8b 85 28 ed ff ff 	mov    -0x12d8(%rbp),%rax
    9259:	8b 00                	mov    (%rax),%eax
    925b:	85 c0                	test   %eax,%eax
    925d:	75 11                	jne    9270 <func_14+0x1b47>
    925f:	8b 05 2b c9 00 00    	mov    0xc92b(%rip),%eax        # 15b90 <g_1532>
    9265:	83 c0 01             	add    $0x1,%eax
    9268:	89 05 22 c9 00 00    	mov    %eax,0xc922(%rip)        # 15b90 <g_1532>
    926e:	eb 01                	jmp    9271 <func_14+0x1b48>
    9270:	90                   	nop
    9271:	8b 05 9d c6 00 00    	mov    0xc69d(%rip),%eax        # 15914 <g_677>
    9277:	0f b7 c0             	movzwl %ax,%eax
    927a:	be 07 00 00 00       	mov    $0x7,%esi
    927f:	89 c7                	mov    %eax,%edi
    9281:	e8 79 ca ff ff       	callq  5cff <safe_add_func_uint16_t_u_u>
    9286:	0f b7 c0             	movzwl %ax,%eax
    9289:	89 05 85 c6 00 00    	mov    %eax,0xc685(%rip)        # 15914 <g_677>
    928f:	8b 05 7f c6 00 00    	mov    0xc67f(%rip),%eax        # 15914 <g_677>
    9295:	83 f8 1e             	cmp    $0x1e,%eax
    9298:	0f 86 e1 f3 ff ff    	jbe    867f <func_14+0xf56>
    929e:	48 8b 05 53 dc 00 00 	mov    0xdc53(%rip),%rax        # 16ef8 <g_334>
    92a5:	48 8b 10             	mov    (%rax),%rdx
    92a8:	48 8b 85 60 ed ff ff 	mov    -0x12a0(%rbp),%rax
    92af:	48 89 10             	mov    %rdx,(%rax)
    92b2:	eb 01                	jmp    92b5 <func_14+0x1b8c>
    92b4:	90                   	nop
    92b5:	48 8b 85 00 ec ff ff 	mov    -0x1400(%rbp),%rax
    92bc:	48 8b 5d c8          	mov    -0x38(%rbp),%rbx
    92c0:	64 48 33 1c 25 28 00 	xor    %fs:0x28,%rbx
    92c7:	00 00 
    92c9:	74 05                	je     92d0 <func_14+0x1ba7>
    92cb:	e8 a0 bd ff ff       	callq  5070 <__stack_chk_fail@plt>
    92d0:	48 81 c4 e8 13 00 00 	add    $0x13e8,%rsp
    92d7:	5b                   	pop    %rbx
    92d8:	41 5c                	pop    %r12
    92da:	41 5d                	pop    %r13
    92dc:	41 5e                	pop    %r14
    92de:	41 5f                	pop    %r15
    92e0:	5d                   	pop    %rbp
    92e1:	c3                   	retq   

00000000000092e2 <func_21>:
    92e2:	f3 0f 1e fa          	endbr64 
    92e6:	55                   	push   %rbp
    92e7:	48 89 e5             	mov    %rsp,%rbp
    92ea:	41 57                	push   %r15
    92ec:	41 56                	push   %r14
    92ee:	41 55                	push   %r13
    92f0:	41 54                	push   %r12
    92f2:	53                   	push   %rbx
    92f3:	48 81 ec b8 03 00 00 	sub    $0x3b8,%rsp
    92fa:	48 89 bd 38 fc ff ff 	mov    %rdi,-0x3c8(%rbp)
    9301:	48 89 b5 30 fc ff ff 	mov    %rsi,-0x3d0(%rbp)
    9308:	48 89 95 28 fc ff ff 	mov    %rdx,-0x3d8(%rbp)
    930f:	64 48 8b 04 25 28 00 	mov    %fs:0x28,%rax
    9316:	00 00 
    9318:	48 89 45 c8          	mov    %rax,-0x38(%rbp)
    931c:	31 c0                	xor    %eax,%eax
    931e:	48 8d 05 f3 ea 00 00 	lea    0xeaf3(%rip),%rax        # 17e18 <g_1175>
    9325:	48 89 85 58 fc ff ff 	mov    %rax,-0x3a8(%rbp)
    932c:	48 8d 85 58 fc ff ff 	lea    -0x3a8(%rbp),%rax
    9333:	48 89 85 60 fc ff ff 	mov    %rax,-0x3a0(%rbp)
    933a:	48 8d 85 a0 fd ff ff 	lea    -0x260(%rbp),%rax
    9341:	48 8d 15 58 7e 00 00 	lea    0x7e58(%rip),%rdx        # 111a0 <g_589+0x1148>
    9348:	b9 43 00 00 00       	mov    $0x43,%ecx
    934d:	48 89 c7             	mov    %rax,%rdi
    9350:	48 89 d6             	mov    %rdx,%rsi
    9353:	f3 48 a5             	rep movsq %ds:(%rsi),%es:(%rdi)
    9356:	48 89 f2             	mov    %rsi,%rdx
    9359:	48 89 f8             	mov    %rdi,%rax
    935c:	8b 0a                	mov    (%rdx),%ecx
    935e:	89 08                	mov    %ecx,(%rax)
    9360:	48 8d 05 99 ea 00 00 	lea    0xea99(%rip),%rax        # 17e00 <g_508>
    9367:	48 89 85 68 fc ff ff 	mov    %rax,-0x398(%rbp)
    936e:	c7 85 54 fc ff ff ff 	movl   $0xffffffff,-0x3ac(%rbp)
    9375:	ff ff ff 
    9378:	48 b8 6f 4b c8 7d 0d 	movabs $0x776d320d7dc84b6f,%rax
    937f:	32 6d 77 
    9382:	48 89 85 50 fd ff ff 	mov    %rax,-0x2b0(%rbp)
    9389:	48 89 85 58 fd ff ff 	mov    %rax,-0x2a8(%rbp)
    9390:	48 c7 85 60 fd ff ff 	movq   $0x1,-0x2a0(%rbp)
    9397:	01 00 00 00 
    939b:	48 89 85 68 fd ff ff 	mov    %rax,-0x298(%rbp)
    93a2:	48 89 85 70 fd ff ff 	mov    %rax,-0x290(%rbp)
    93a9:	48 c7 85 78 fd ff ff 	movq   $0x1,-0x288(%rbp)
    93b0:	01 00 00 00 
    93b4:	48 89 85 80 fd ff ff 	mov    %rax,-0x280(%rbp)
    93bb:	48 89 85 88 fd ff ff 	mov    %rax,-0x278(%rbp)
    93c2:	48 c7 85 90 fd ff ff 	movq   $0x1,-0x270(%rbp)
    93c9:	01 00 00 00 
    93cd:	48 c7 85 70 fc ff ff 	movq   $0x0,-0x390(%rbp)
    93d4:	00 00 00 00 
    93d8:	48 c7 85 78 fc ff ff 	movq   $0x0,-0x388(%rbp)
    93df:	00 00 00 00 
    93e3:	48 8d 85 50 fd ff ff 	lea    -0x2b0(%rbp),%rax
    93ea:	48 83 c0 20          	add    $0x20,%rax
    93ee:	48 89 85 80 fc ff ff 	mov    %rax,-0x380(%rbp)
    93f5:	48 c7 85 88 fc ff ff 	movq   $0x0,-0x378(%rbp)
    93fc:	00 00 00 00 
    9400:	48 8d 05 79 c7 00 00 	lea    0xc779(%rip),%rax        # 15b80 <g_1192>
    9407:	48 89 85 90 fc ff ff 	mov    %rax,-0x370(%rbp)
    940e:	48 c7 85 98 fc ff ff 	movq   $0x0,-0x368(%rbp)
    9415:	00 00 00 00 
    9419:	48 8d 05 c2 c6 00 00 	lea    0xc6c2(%rip),%rax        # 15ae2 <g_1029>
    9420:	48 89 85 a0 fc ff ff 	mov    %rax,-0x360(%rbp)
    9427:	48 c7 85 a8 fc ff ff 	movq   $0x0,-0x358(%rbp)
    942e:	00 00 00 00 
    9432:	c7 85 44 fc ff ff 00 	movl   $0x0,-0x3bc(%rbp)
    9439:	00 00 00 
    943c:	eb 1e                	jmp    945c <func_21+0x17a>
    943e:	8b 85 44 fc ff ff    	mov    -0x3bc(%rbp),%eax
    9444:	48 98                	cltq   
    9446:	48 8d 15 8b c0 00 00 	lea    0xc08b(%rip),%rdx        # 154d8 <g_357>
    944d:	48 89 94 c5 10 fd ff 	mov    %rdx,-0x2f0(%rbp,%rax,8)
    9454:	ff 
    9455:	83 85 44 fc ff ff 01 	addl   $0x1,-0x3bc(%rbp)
    945c:	83 bd 44 fc ff ff 06 	cmpl   $0x6,-0x3bc(%rbp)
    9463:	7e d9                	jle    943e <func_21+0x15c>
    9465:	48 8b 85 28 fc ff ff 	mov    -0x3d8(%rbp),%rax
    946c:	0f be d8             	movsbl %al,%ebx
    946f:	48 8b 85 28 fc ff ff 	mov    -0x3d8(%rbp),%rax
    9476:	41 89 c7             	mov    %eax,%r15d
    9479:	48 8b 85 28 fc ff ff 	mov    -0x3d8(%rbp),%rax
    9480:	44 0f b6 e0          	movzbl %al,%r12d
    9484:	48 8b 85 30 fc ff ff 	mov    -0x3d0(%rbp),%rax
    948b:	8b 00                	mov    (%rax),%eax
    948d:	89 85 24 fc ff ff    	mov    %eax,-0x3dc(%rbp)
    9493:	48 8b 85 28 fc ff ff 	mov    -0x3d8(%rbp),%rax
    949a:	44 0f be e8          	movsbl %al,%r13d
    949e:	0f b7 05 23 c0 00 00 	movzwl 0xc023(%rip),%eax        # 154c8 <g_326+0x8>
    94a5:	c1 e0 03             	shl    $0x3,%eax
    94a8:	66 c1 f8 04          	sar    $0x4,%ax
    94ac:	44 0f be f0          	movsbl %al,%r14d
    94b0:	48 8b 85 60 fc ff ff 	mov    -0x3a0(%rbp),%rax
    94b7:	48 8b 95 38 fc ff ff 	mov    -0x3c8(%rbp),%rdx
    94be:	48 89 10             	mov    %rdx,(%rax)
    94c1:	48 8b 85 60 fc ff ff 	mov    -0x3a0(%rbp),%rax
    94c8:	48 8b 10             	mov    (%rax),%rdx
    94cb:	48 8b 85 30 fc ff ff 	mov    -0x3d0(%rbp),%rax
    94d2:	48 89 05 7f dc 00 00 	mov    %rax,0xdc7f(%rip)        # 17158 <g_1176>
    94d9:	48 8b 05 78 dc 00 00 	mov    0xdc78(%rip),%rax        # 17158 <g_1176>
    94e0:	48 39 c2             	cmp    %rax,%rdx
    94e3:	0f 94 85 23 fc ff ff 	sete   -0x3dd(%rbp)
    94ea:	8b 45 94             	mov    -0x6c(%rbp),%eax
    94ed:	89 45 94             	mov    %eax,-0x6c(%rbp)
    94f0:	8b 45 94             	mov    -0x6c(%rbp),%eax
    94f3:	89 c1                	mov    %eax,%ecx
    94f5:	48 8b 05 cc d9 00 00 	mov    0xd9cc(%rip),%rax        # 16ec8 <g_195>
    94fc:	8b 10                	mov    (%rax),%edx
    94fe:	83 ea 01             	sub    $0x1,%edx
    9501:	89 10                	mov    %edx,(%rax)
    9503:	8b 00                	mov    (%rax),%eax
    9505:	39 c1                	cmp    %eax,%ecx
    9507:	0f 96 c0             	setbe  %al
    950a:	0f b6 d0             	movzbl %al,%edx
    950d:	48 83 bd 30 fc ff ff 	cmpq   $0x0,-0x3d0(%rbp)
    9514:	00 
    9515:	0f 95 c0             	setne  %al
    9518:	0f b6 c0             	movzbl %al,%eax
    951b:	39 c2                	cmp    %eax,%edx
    951d:	0f 9f c0             	setg   %al
    9520:	0f b6 c0             	movzbl %al,%eax
    9523:	be 00 00 00 00       	mov    $0x0,%esi
    9528:	89 c7                	mov    %eax,%edi
    952a:	e8 d0 c7 ff ff       	callq  5cff <safe_add_func_uint16_t_u_u>
    952f:	0f b7 c0             	movzwl %ax,%eax
    9532:	39 85 54 fc ff ff    	cmp    %eax,-0x3ac(%rbp)
    9538:	0f 9c c0             	setl   %al
    953b:	0a 85 23 fc ff ff    	or     -0x3dd(%rbp),%al
    9541:	0f b6 d0             	movzbl %al,%edx
    9544:	48 8b 85 30 fc ff ff 	mov    -0x3d0(%rbp),%rax
    954b:	8b 00                	mov    (%rax),%eax
    954d:	89 d6                	mov    %edx,%esi
    954f:	89 c7                	mov    %eax,%edi
    9551:	e8 af c0 ff ff       	callq  5605 <safe_sub_func_int32_t_s_s>
    9556:	0f b7 15 e3 c3 00 00 	movzwl 0xc3e3(%rip),%edx        # 15940 <g_832>
    955d:	0f b7 d2             	movzwl %dx,%edx
    9560:	21 d0                	and    %edx,%eax
    9562:	89 c2                	mov    %eax,%edx
    9564:	0f b7 05 61 bd 00 00 	movzwl 0xbd61(%rip),%eax        # 152cc <g_163>
    956b:	09 d0                	or     %edx,%eax
    956d:	66 89 05 58 bd 00 00 	mov    %ax,0xbd58(%rip)        # 152cc <g_163>
    9574:	8b 05 36 91 00 00    	mov    0x9136(%rip),%eax        # 126b0 <l_1185.4369+0x10>
    957a:	0f be c0             	movsbl %al,%eax
    957d:	44 89 f6             	mov    %r14d,%esi
    9580:	89 c7                	mov    %eax,%edi
    9582:	e8 aa bc ff ff       	callq  5231 <safe_mod_func_int8_t_s_s>
    9587:	84 c0                	test   %al,%al
    9589:	75 08                	jne    9593 <func_21+0x2b1>
    958b:	8b 05 1f 91 00 00    	mov    0x911f(%rip),%eax        # 126b0 <l_1185.4369+0x10>
    9591:	85 c0                	test   %eax,%eax
    9593:	48 8b 05 5e d9 00 00 	mov    0xd95e(%rip),%rax        # 16ef8 <g_334>
    959a:	48 8b 00             	mov    (%rax),%rax
    959d:	48 8b 00             	mov    (%rax),%rax
    95a0:	48 8b 00             	mov    (%rax),%rax
    95a3:	48 89 c7             	mov    %rax,%rdi
    95a6:	e8 6b c2 ff ff       	callq  5816 <safe_unary_minus_func_int64_t_s>
    95ab:	0f b6 c0             	movzbl %al,%eax
    95ae:	be 05 00 00 00       	mov    $0x5,%esi
    95b3:	89 c7                	mov    %eax,%edi
    95b5:	e8 04 c7 ff ff       	callq  5cbe <safe_rshift_func_uint8_t_u_u>
    95ba:	0f b6 c0             	movzbl %al,%eax
    95bd:	be 01 00 00 00       	mov    $0x1,%esi
    95c2:	89 c7                	mov    %eax,%edi
    95c4:	e8 3d c8 ff ff       	callq  5e06 <safe_lshift_func_uint16_t_u_u>
    95c9:	0f be c0             	movsbl %al,%eax
    95cc:	44 89 ee             	mov    %r13d,%esi
    95cf:	89 c7                	mov    %eax,%edi
    95d1:	e8 94 bc ff ff       	callq  526a <safe_div_func_int8_t_s_s>
    95d6:	48 0f be c0          	movsbq %al,%rax
    95da:	48 89 05 df bc 00 00 	mov    %rax,0xbcdf(%rip)        # 152c0 <g_147>
    95e1:	48 8b 15 d8 bc 00 00 	mov    0xbcd8(%rip),%rdx        # 152c0 <g_147>
    95e8:	48 8b 85 80 fc ff ff 	mov    -0x380(%rbp),%rax
    95ef:	48 89 10             	mov    %rdx,(%rax)
    95f2:	48 8b 85 80 fc ff ff 	mov    -0x380(%rbp),%rax
    95f9:	48 8b 00             	mov    (%rax),%rax
    95fc:	35 13 89 48 ef       	xor    $0xef488913,%eax
    9601:	8b b5 24 fc ff ff    	mov    -0x3dc(%rbp),%esi
    9607:	89 c7                	mov    %eax,%edi
    9609:	e8 17 c9 ff ff       	callq  5f25 <safe_div_func_uint32_t_u_u>
    960e:	85 c0                	test   %eax,%eax
    9610:	75 0a                	jne    961c <func_21+0x33a>
    9612:	48 83 bd 28 fc ff ff 	cmpq   $0x0,-0x3d8(%rbp)
    9619:	00 
    961a:	74 07                	je     9623 <func_21+0x341>
    961c:	b8 01 00 00 00       	mov    $0x1,%eax
    9621:	eb 05                	jmp    9628 <func_21+0x346>
    9623:	b8 00 00 00 00       	mov    $0x0,%eax
    9628:	0f b6 c0             	movzbl %al,%eax
    962b:	44 89 e6             	mov    %r12d,%esi
    962e:	89 c7                	mov    %eax,%edi
    9630:	e8 5e c5 ff ff       	callq  5b93 <safe_mul_func_uint8_t_u_u>
    9635:	0f b6 c0             	movzbl %al,%eax
    9638:	39 85 54 fc ff ff    	cmp    %eax,-0x3ac(%rbp)
    963e:	0f 95 c0             	setne  %al
    9641:	0f b6 c8             	movzbl %al,%ecx
    9644:	48 8b 85 90 fc ff ff 	mov    -0x370(%rbp),%rax
    964b:	48 8b 10             	mov    (%rax),%rdx
    964e:	48 63 c1             	movslq %ecx,%rax
    9651:	48 21 c2             	and    %rax,%rdx
    9654:	48 8b 85 90 fc ff ff 	mov    -0x370(%rbp),%rax
    965b:	48 89 10             	mov    %rdx,(%rax)
    965e:	44 89 fe             	mov    %r15d,%esi
    9661:	bf 01 00 00 00       	mov    $0x1,%edi
    9666:	e8 94 c0 ff ff       	callq  56ff <safe_div_func_int32_t_s_s>
    966b:	85 c0                	test   %eax,%eax
    966d:	0f 95 c0             	setne  %al
    9670:	0f b6 c0             	movzbl %al,%eax
    9673:	be 01 00 00 00       	mov    $0x1,%esi
    9678:	89 c7                	mov    %eax,%edi
    967a:	e8 db c4 ff ff       	callq  5b5a <safe_add_func_uint8_t_u_u>
    967f:	0f be c0             	movsbl %al,%eax
    9682:	89 de                	mov    %ebx,%esi
    9684:	89 c7                	mov    %eax,%edi
    9686:	e8 a6 bb ff ff       	callq  5231 <safe_mod_func_int8_t_s_s>
    968b:	0f be c0             	movsbl %al,%eax
    968e:	89 85 54 fc ff ff    	mov    %eax,-0x3ac(%rbp)
    9694:	48 8b 05 0d d8 00 00 	mov    0xd80d(%rip),%rax        # 16ea8 <g_172>
    969b:	8b 95 54 fc ff ff    	mov    -0x3ac(%rbp),%edx
    96a1:	89 10                	mov    %edx,(%rax)
    96a3:	8b 05 0f 90 00 00    	mov    0x900f(%rip),%eax        # 126b8 <l_1185.4369+0x18>
    96a9:	0f b6 d8             	movzbl %al,%ebx
    96ac:	48 8b 85 28 fc ff ff 	mov    -0x3d8(%rbp),%rax
    96b3:	44 0f b6 e0          	movzbl %al,%r12d
    96b7:	48 8b 05 52 be 00 00 	mov    0xbe52(%rip),%rax        # 15510 <g_612>
    96be:	48 c1 e8 32          	shr    $0x32,%rax
    96c2:	48 89 c2             	mov    %rax,%rdx
    96c5:	48 8b 05 4c be 00 00 	mov    0xbe4c(%rip),%rax        # 15518 <g_612+0x8>
    96cc:	83 e0 01             	and    $0x1,%eax
    96cf:	48 c1 e0 0e          	shl    $0xe,%rax
    96d3:	48 09 d0             	or     %rdx,%rax
    96d6:	48 c1 e0 31          	shl    $0x31,%rax
    96da:	48 c1 f8 31          	sar    $0x31,%rax
    96de:	44 0f bf e8          	movswl %ax,%r13d
    96e2:	48 8b 05 3f d8 00 00 	mov    0xd83f(%rip),%rax        # 16f28 <g_365>
    96e9:	48 8b 00             	mov    (%rax),%rax
    96ec:	48 8b 95 98 fc ff ff 	mov    -0x368(%rbp),%rdx
    96f3:	48 89 10             	mov    %rdx,(%rax)
    96f6:	48 8b 00             	mov    (%rax),%rax
    96f9:	48 39 85 98 fc ff ff 	cmp    %rax,-0x368(%rbp)
    9700:	0f 94 c0             	sete   %al
    9703:	44 0f b6 f0          	movzbl %al,%r14d
    9707:	48 8b 85 28 fc ff ff 	mov    -0x3d8(%rbp),%rax
    970e:	41 89 c7             	mov    %eax,%r15d
    9711:	48 8b 05 48 d8 00 00 	mov    0xd848(%rip),%rax        # 16f60 <g_447>
    9718:	48 8b 00             	mov    (%rax),%rax
    971b:	48 8b 00             	mov    (%rax),%rax
    971e:	0f b7 00             	movzwl (%rax),%eax
    9721:	98                   	cwtl   
    9722:	be 00 00 00 00       	mov    $0x0,%esi
    9727:	89 c7                	mov    %eax,%edi
    9729:	e8 85 bc ff ff       	callq  53b3 <safe_add_func_int16_t_s_s>
    972e:	66 83 f8 ff          	cmp    $0xffff,%ax
    9732:	0f 9d c0             	setge  %al
    9735:	0f b6 c0             	movzbl %al,%eax
    9738:	48 8b 95 28 fc ff ff 	mov    -0x3d8(%rbp),%rdx
    973f:	48 89 d6             	mov    %rdx,%rsi
    9742:	48 89 c7             	mov    %rax,%rdi
    9745:	e8 65 c9 ff ff       	callq  60af <safe_div_func_uint64_t_u_u>
    974a:	48 8b 05 9f d7 00 00 	mov    0xd79f(%rip),%rax        # 16ef0 <g_335>
    9751:	48 8b 00             	mov    (%rax),%rax
    9754:	48 8b 00             	mov    (%rax),%rax
    9757:	48 be 89 13 c7 b3 b1 	movabs $0xa817ecb1b3c71389,%rsi
    975e:	ec 17 a8 
    9761:	48 89 c7             	mov    %rax,%rdi
    9764:	e8 8e c2 ff ff       	callq  59f7 <safe_div_func_int64_t_s_s>
    9769:	98                   	cwtl   
    976a:	44 89 fe             	mov    %r15d,%esi
    976d:	89 c7                	mov    %eax,%edi
    976f:	e8 b6 bd ff ff       	callq  552a <safe_rshift_func_int16_t_s_s>
    9774:	98                   	cwtl   
    9775:	41 39 c6             	cmp    %eax,%r14d
    9778:	0f 9e c0             	setle  %al
    977b:	0f b6 c0             	movzbl %al,%eax
    977e:	41 39 c5             	cmp    %eax,%r13d
    9781:	0f 94 c0             	sete   %al
    9784:	0f b6 d0             	movzbl %al,%edx
    9787:	48 8b 85 80 fc ff ff 	mov    -0x380(%rbp),%rax
    978e:	48 89 10             	mov    %rdx,(%rax)
    9791:	48 8b 85 80 fc ff ff 	mov    -0x380(%rbp),%rax
    9798:	48 8b 00             	mov    (%rax),%rax
    979b:	49 89 c5             	mov    %rax,%r13
    979e:	8b 05 80 b9 00 00    	mov    0xb980(%rip),%eax        # 15124 <g_28+0x4>
    97a4:	0f be c0             	movsbl %al,%eax
    97a7:	be 06 00 00 00       	mov    $0x6,%esi
    97ac:	89 c7                	mov    %eax,%edi
    97ae:	e8 3b bb ff ff       	callq  52ee <safe_lshift_func_int8_t_s_u>
    97b3:	48 0f be c0          	movsbq %al,%rax
    97b7:	4c 89 ee             	mov    %r13,%rsi
    97ba:	48 89 c7             	mov    %rax,%rdi
    97bd:	e8 7f c0 ff ff       	callq  5841 <safe_add_func_int64_t_s_s>
    97c2:	89 c2                	mov    %eax,%edx
    97c4:	48 8b 85 a0 fc ff ff 	mov    -0x360(%rbp),%rax
    97cb:	88 10                	mov    %dl,(%rax)
    97cd:	48 8b 05 7c d7 00 00 	mov    0xd77c(%rip),%rax        # 16f50 <g_449>
    97d4:	0f b7 00             	movzwl (%rax),%eax
    97d7:	48 0f bf c0          	movswq %ax,%rax
    97db:	48 39 85 28 fc ff ff 	cmp    %rax,-0x3d8(%rbp)
    97e2:	0f 92 c0             	setb   %al
    97e5:	0f b6 c0             	movzbl %al,%eax
    97e8:	be 00 00 00 00       	mov    $0x0,%esi
    97ed:	89 c7                	mov    %eax,%edi
    97ef:	e8 61 bc ff ff       	callq  5455 <safe_div_func_int16_t_s_s>
    97f4:	0f b6 c0             	movzbl %al,%eax
    97f7:	44 89 e6             	mov    %r12d,%esi
    97fa:	89 c7                	mov    %eax,%edi
    97fc:	e8 da c3 ff ff       	callq  5bdb <safe_div_func_uint8_t_u_u>
    9801:	0f b6 c0             	movzbl %al,%eax
    9804:	89 de                	mov    %ebx,%esi
    9806:	89 c7                	mov    %eax,%edi
    9808:	e8 4d c3 ff ff       	callq  5b5a <safe_add_func_uint8_t_u_u>
    980d:	0f b6 c0             	movzbl %al,%eax
    9810:	83 e0 08             	and    $0x8,%eax
    9813:	48 85 c0             	test   %rax,%rax
    9816:	74 1f                	je     9837 <func_21+0x555>
    9818:	48 8b 05 89 d6 00 00 	mov    0xd689(%rip),%rax        # 16ea8 <g_172>
    981f:	8b 08                	mov    (%rax),%ecx
    9821:	48 8b 85 30 fc ff ff 	mov    -0x3d0(%rbp),%rax
    9828:	8b 10                	mov    (%rax),%edx
    982a:	48 8b 05 77 d6 00 00 	mov    0xd677(%rip),%rax        # 16ea8 <g_172>
    9831:	09 ca                	or     %ecx,%edx
    9833:	89 10                	mov    %edx,(%rax)
    9835:	eb 20                	jmp    9857 <func_21+0x575>
    9837:	48 8b 05 02 d9 00 00 	mov    0xd902(%rip),%rax        # 17140 <g_881>
    983e:	48 8b 95 38 fc ff ff 	mov    -0x3c8(%rbp),%rdx
    9845:	48 89 10             	mov    %rdx,(%rax)
    9848:	48 83 bd 28 fc ff ff 	cmpq   $0x0,-0x3d8(%rbp)
    984f:	00 
    9850:	74 05                	je     9857 <func_21+0x575>
    9852:	e9 4c fe ff ff       	jmpq   96a3 <func_21+0x3c1>
    9857:	c7 05 67 ba 00 00 0c 	movl   $0xc,0xba67(%rip)        # 152c8 <g_149>
    985e:	00 00 00 
    9861:	e9 26 02 00 00       	jmpq   9a8c <func_21+0x7aa>
    9866:	48 c7 85 b0 fc ff ff 	movq   $0x0,-0x350(%rbp)
    986d:	00 00 00 00 
    9871:	c7 85 c0 fc ff ff 41 	movl   $0xdc5f1141,-0x340(%rbp)
    9878:	11 5f dc 
    987b:	c7 85 c4 fc ff ff 41 	movl   $0xdc5f1141,-0x33c(%rbp)
    9882:	11 5f dc 
    9885:	c7 85 c8 fc ff ff f5 	movl   $0xb8b22af5,-0x338(%rbp)
    988c:	2a b2 b8 
    988f:	c7 85 cc fc ff ff 41 	movl   $0xdc5f1141,-0x334(%rbp)
    9896:	11 5f dc 
    9899:	c7 85 d0 fc ff ff 41 	movl   $0xdc5f1141,-0x330(%rbp)
    98a0:	11 5f dc 
    98a3:	c7 85 d4 fc ff ff f5 	movl   $0xb8b22af5,-0x32c(%rbp)
    98aa:	2a b2 b8 
    98ad:	c7 85 d8 fc ff ff 41 	movl   $0xdc5f1141,-0x328(%rbp)
    98b4:	11 5f dc 
    98b7:	c7 85 dc fc ff ff 41 	movl   $0xdc5f1141,-0x324(%rbp)
    98be:	11 5f dc 
    98c1:	c7 85 48 fc ff ff 29 	movl   $0xdeb21229,-0x3b8(%rbp)
    98c8:	12 b2 de 
    98cb:	c7 85 4c fc ff ff 01 	movl   $0x1,-0x3b4(%rbp)
    98d2:	00 00 00 
    98d5:	48 8d 05 c4 b8 00 00 	lea    0xb8c4(%rip),%rax        # 151a0 <g_51>
    98dc:	48 89 85 b8 fc ff ff 	mov    %rax,-0x348(%rbp)
    98e3:	48 8b 05 be d5 00 00 	mov    0xd5be(%rip),%rax        # 16ea8 <g_172>
    98ea:	c7 00 dc 51 fa 29    	movl   $0x29fa51dc,(%rax)
    98f0:	c7 05 93 c0 00 00 03 	movl   $0x3,0xc093(%rip)        # 1598d <g_927+0xd>
    98f7:	00 00 00 
    98fa:	e9 61 01 00 00       	jmpq   9a60 <func_21+0x77e>
    98ff:	c7 85 50 fc ff ff 00 	movl   $0x0,-0x3b0(%rbp)
    9906:	00 00 00 
    9909:	eb 1e                	jmp    9929 <func_21+0x647>
    990b:	8b 85 50 fc ff ff    	mov    -0x3b0(%rbp),%eax
    9911:	48 98                	cltq   
    9913:	48 8d 15 76 e4 00 00 	lea    0xe476(%rip),%rdx        # 17d90 <g_170>
    991a:	48 89 94 c5 e0 fc ff 	mov    %rdx,-0x320(%rbp,%rax,8)
    9921:	ff 
    9922:	83 85 50 fc ff ff 01 	addl   $0x1,-0x3b0(%rbp)
    9929:	83 bd 50 fc ff ff 05 	cmpl   $0x5,-0x3b0(%rbp)
    9930:	7e d9                	jle    990b <func_21+0x629>
    9932:	48 8b 85 30 fc ff ff 	mov    -0x3d0(%rbp),%rax
    9939:	8b 00                	mov    (%rax),%eax
    993b:	41 89 c5             	mov    %eax,%r13d
    993e:	be ff ff ff ff       	mov    $0xffffffff,%esi
    9943:	bf 01 00 00 00       	mov    $0x1,%edi
    9948:	e8 7f bd ff ff       	callq  56cc <safe_mod_func_int32_t_s_s>
    994d:	89 c2                	mov    %eax,%edx
    994f:	48 8b 85 a0 fc ff ff 	mov    -0x360(%rbp),%rax
    9956:	88 10                	mov    %dl,(%rax)
    9958:	48 8b 85 a0 fc ff ff 	mov    -0x360(%rbp),%rax
    995f:	0f b6 00             	movzbl (%rax),%eax
    9962:	0f be d0             	movsbl %al,%edx
    9965:	48 8b 85 28 fc ff ff 	mov    -0x3d8(%rbp),%rax
    996c:	0f b6 c0             	movzbl %al,%eax
    996f:	89 d6                	mov    %edx,%esi
    9971:	89 c7                	mov    %eax,%edi
    9973:	e8 8d c2 ff ff       	callq  5c05 <safe_lshift_func_uint8_t_u_s>
    9978:	0f b6 c0             	movzbl %al,%eax
    997b:	be 08 00 00 00       	mov    $0x8,%esi
    9980:	89 c7                	mov    %eax,%edi
    9982:	e8 37 c4 ff ff       	callq  5dbe <safe_lshift_func_uint16_t_u_s>
    9987:	8b 85 c0 fc ff ff    	mov    -0x340(%rbp),%eax
    998d:	09 85 4c fc ff ff    	or     %eax,-0x3b4(%rbp)
    9993:	8b 85 4c fc ff ff    	mov    -0x3b4(%rbp),%eax
    9999:	48 98                	cltq   
    999b:	48 39 85 28 fc ff ff 	cmp    %rax,-0x3d8(%rbp)
    99a2:	0f 92 c0             	setb   %al
    99a5:	0f b6 d8             	movzbl %al,%ebx
    99a8:	8b 05 df bf 00 00    	mov    0xbfdf(%rip),%eax        # 1598d <g_927+0xd>
    99ae:	89 c0                	mov    %eax,%eax
    99b0:	48 8d 14 00          	lea    (%rax,%rax,1),%rdx
    99b4:	48 8d 05 85 bf 00 00 	lea    0xbf85(%rip),%rax        # 15940 <g_832>
    99bb:	44 0f b7 24 02       	movzwl (%rdx,%rax,1),%r12d
    99c0:	8b 95 c0 fc ff ff    	mov    -0x340(%rbp),%edx
    99c6:	48 8b 85 a8 fc ff ff 	mov    -0x358(%rbp),%rax
    99cd:	48 3b 85 b0 fc ff ff 	cmp    -0x350(%rbp),%rax
    99d4:	0f 95 c0             	setne  %al
    99d7:	0f b6 c0             	movzbl %al,%eax
    99da:	89 d6                	mov    %edx,%esi
    99dc:	89 c7                	mov    %eax,%edi
    99de:	e8 22 bc ff ff       	callq  5605 <safe_sub_func_int32_t_s_s>
    99e3:	83 f8 07             	cmp    $0x7,%eax
    99e6:	0f 97 c0             	seta   %al
    99e9:	0f b6 c0             	movzbl %al,%eax
    99ec:	be 03 00 00 00       	mov    $0x3,%esi
    99f1:	89 c7                	mov    %eax,%edi
    99f3:	e8 c6 c3 ff ff       	callq  5dbe <safe_lshift_func_uint16_t_u_s>
    99f8:	66 41 39 c4          	cmp    %ax,%r12w
    99fc:	0f 94 c0             	sete   %al
    99ff:	0f b6 d0             	movzbl %al,%edx
    9a02:	8b 85 c0 fc ff ff    	mov    -0x340(%rbp),%eax
    9a08:	09 d0                	or     %edx,%eax
    9a0a:	09 85 48 fc ff ff    	or     %eax,-0x3b8(%rbp)
    9a10:	8b 85 48 fc ff ff    	mov    -0x3b8(%rbp),%eax
    9a16:	0f b6 c0             	movzbl %al,%eax
    9a19:	89 de                	mov    %ebx,%esi
    9a1b:	89 c7                	mov    %eax,%edi
    9a1d:	e8 71 c1 ff ff       	callq  5b93 <safe_mul_func_uint8_t_u_u>
    9a22:	0f b6 c0             	movzbl %al,%eax
    9a25:	48 33 85 28 fc ff ff 	xor    -0x3d8(%rbp),%rax
    9a2c:	48 83 f8 02          	cmp    $0x2,%rax
    9a30:	0f 94 c0             	sete   %al
    9a33:	0f b6 c0             	movzbl %al,%eax
    9a36:	44 89 ee             	mov    %r13d,%esi
    9a39:	89 c7                	mov    %eax,%edi
    9a3b:	e8 e5 c4 ff ff       	callq  5f25 <safe_div_func_uint32_t_u_u>
    9a40:	89 85 d8 fc ff ff    	mov    %eax,-0x328(%rbp)
    9a46:	48 8b 85 30 fc ff ff 	mov    -0x3d0(%rbp),%rax
    9a4d:	8b 00                	mov    (%rax),%eax
    9a4f:	85 c0                	test   %eax,%eax
    9a51:	8b 05 36 bf 00 00    	mov    0xbf36(%rip),%eax        # 1598d <g_927+0xd>
    9a57:	83 c0 01             	add    $0x1,%eax
    9a5a:	89 05 2d bf 00 00    	mov    %eax,0xbf2d(%rip)        # 1598d <g_927+0xd>
    9a60:	8b 05 27 bf 00 00    	mov    0xbf27(%rip),%eax        # 1598d <g_927+0xd>
    9a66:	83 f8 08             	cmp    $0x8,%eax
    9a69:	0f 86 90 fe ff ff    	jbe    98ff <func_21+0x61d>
    9a6f:	48 8b 85 38 fc ff ff 	mov    -0x3c8(%rbp),%rax
    9a76:	48 89 85 b8 fc ff ff 	mov    %rax,-0x348(%rbp)
    9a7d:	8b 05 45 b8 00 00    	mov    0xb845(%rip),%eax        # 152c8 <g_149>
    9a83:	83 c0 01             	add    $0x1,%eax
    9a86:	89 05 3c b8 00 00    	mov    %eax,0xb83c(%rip)        # 152c8 <g_149>
    9a8c:	8b 05 36 b8 00 00    	mov    0xb836(%rip),%eax        # 152c8 <g_149>
    9a92:	83 f8 14             	cmp    $0x14,%eax
    9a95:	0f 86 cb fd ff ff    	jbe    9866 <func_21+0x584>
    9a9b:	48 8b 85 30 fc ff ff 	mov    -0x3d0(%rbp),%rax
    9aa2:	8b 00                	mov    (%rax),%eax
    9aa4:	48 8b 5d c8          	mov    -0x38(%rbp),%rbx
    9aa8:	64 48 33 1c 25 28 00 	xor    %fs:0x28,%rbx
    9aaf:	00 00 
    9ab1:	74 05                	je     9ab8 <func_21+0x7d6>
    9ab3:	e8 b8 b5 ff ff       	callq  5070 <__stack_chk_fail@plt>
    9ab8:	48 81 c4 b8 03 00 00 	add    $0x3b8,%rsp
    9abf:	5b                   	pop    %rbx
    9ac0:	41 5c                	pop    %r12
    9ac2:	41 5d                	pop    %r13
    9ac4:	41 5e                	pop    %r14
    9ac6:	41 5f                	pop    %r15
    9ac8:	5d                   	pop    %rbp
    9ac9:	c3                   	retq   

0000000000009aca <func_29>:
    9aca:	f3 0f 1e fa          	endbr64 
    9ace:	55                   	push   %rbp
    9acf:	48 89 e5             	mov    %rsp,%rbp
    9ad2:	89 7d ec             	mov    %edi,-0x14(%rbp)
    9ad5:	48 89 75 e0          	mov    %rsi,-0x20(%rbp)
    9ad9:	48 b8 82 7a 72 be e5 	movabs $0x4298e0e5be727a82,%rax
    9ae0:	e0 98 42 
    9ae3:	48 89 45 f8          	mov    %rax,-0x8(%rbp)
    9ae7:	48 8b 45 f8          	mov    -0x8(%rbp),%rax
    9aeb:	5d                   	pop    %rbp
    9aec:	c3                   	retq   

0000000000009aed <func_34>:
    9aed:	f3 0f 1e fa          	endbr64 
    9af1:	55                   	push   %rbp
    9af2:	48 89 e5             	mov    %rsp,%rbp
    9af5:	41 57                	push   %r15
    9af7:	41 56                	push   %r14
    9af9:	41 55                	push   %r13
    9afb:	41 54                	push   %r12
    9afd:	53                   	push   %rbx
    9afe:	48 81 ec d8 04 00 00 	sub    $0x4d8,%rsp
    9b05:	89 f8                	mov    %edi,%eax
    9b07:	89 b5 08 fb ff ff    	mov    %esi,-0x4f8(%rbp)
    9b0d:	88 85 0c fb ff ff    	mov    %al,-0x4f4(%rbp)
    9b13:	64 48 8b 04 25 28 00 	mov    %fs:0x28,%rax
    9b1a:	00 00 
    9b1c:	48 89 45 c8          	mov    %rax,-0x38(%rbp)
    9b20:	31 c0                	xor    %eax,%eax
    9b22:	66 c7 85 12 fb ff ff 	movw   $0x0,-0x4ee(%rbp)
    9b29:	00 00 
    9b2b:	48 8d 05 3e d4 00 00 	lea    0xd43e(%rip),%rax        # 16f70 <g_560>
    9b32:	48 89 85 68 fb ff ff 	mov    %rax,-0x498(%rbp)
    9b39:	48 8d 05 a8 b7 00 00 	lea    0xb7a8(%rip),%rax        # 152e8 <g_247>
    9b40:	48 89 85 70 fb ff ff 	mov    %rax,-0x490(%rbp)
    9b47:	48 8d 05 d2 d4 00 00 	lea    0xd4d2(%rip),%rax        # 17020 <g_563+0xa0>
    9b4e:	48 89 85 58 fb ff ff 	mov    %rax,-0x4a8(%rbp)
    9b55:	c7 85 28 fb ff ff ff 	movl   $0xffffffff,-0x4d8(%rbp)
    9b5c:	ff ff ff 
    9b5f:	48 b8 47 22 a1 3b 16 	movabs $0xaed024163ba12247,%rax
    9b66:	24 d0 ae 
    9b69:	48 89 85 78 fb ff ff 	mov    %rax,-0x488(%rbp)
    9b70:	c7 85 2c fb ff ff fe 	movl   $0xfffffffe,-0x4d4(%rbp)
    9b77:	ff ff ff 
    9b7a:	c7 85 30 fb ff ff 31 	movl   $0xa9b0f131,-0x4d0(%rbp)
    9b81:	f1 b0 a9 
    9b84:	48 8d 05 15 d3 00 00 	lea    0xd315(%rip),%rax        # 16ea0 <g_50>
    9b8b:	48 89 85 80 fb ff ff 	mov    %rax,-0x480(%rbp)
    9b92:	48 c7 85 88 fb ff ff 	movq   $0x0,-0x478(%rbp)
    9b99:	00 00 00 00 
    9b9d:	c7 85 34 fb ff ff 01 	movl   $0x1,-0x4cc(%rbp)
    9ba4:	00 00 00 
    9ba7:	c6 85 10 fb ff ff 7d 	movb   $0x7d,-0x4f0(%rbp)
    9bae:	c7 85 1c fb ff ff 00 	movl   $0x0,-0x4e4(%rbp)
    9bb5:	00 00 00 
    9bb8:	eb 46                	jmp    9c00 <func_34+0x113>
    9bba:	c7 85 20 fb ff ff 00 	movl   $0x0,-0x4e0(%rbp)
    9bc1:	00 00 00 
    9bc4:	eb 2a                	jmp    9bf0 <func_34+0x103>
    9bc6:	8b 85 20 fb ff ff    	mov    -0x4e0(%rbp),%eax
    9bcc:	48 63 d0             	movslq %eax,%rdx
    9bcf:	8b 85 1c fb ff ff    	mov    -0x4e4(%rbp),%eax
    9bd5:	48 98                	cltq   
    9bd7:	48 01 d0             	add    %rdx,%rax
    9bda:	48 8d 15 1f b9 00 00 	lea    0xb91f(%rip),%rdx        # 15500 <g_543>
    9be1:	48 89 94 c5 40 fc ff 	mov    %rdx,-0x3c0(%rbp,%rax,8)
    9be8:	ff 
    9be9:	83 85 20 fb ff ff 01 	addl   $0x1,-0x4e0(%rbp)
    9bf0:	83 bd 20 fb ff ff 00 	cmpl   $0x0,-0x4e0(%rbp)
    9bf7:	7e cd                	jle    9bc6 <func_34+0xd9>
    9bf9:	83 85 1c fb ff ff 01 	addl   $0x1,-0x4e4(%rbp)
    9c00:	83 bd 1c fb ff ff 05 	cmpl   $0x5,-0x4e4(%rbp)
    9c07:	7e b1                	jle    9bba <func_34+0xcd>
    9c09:	c7 85 1c fb ff ff 00 	movl   $0x0,-0x4e4(%rbp)
    9c10:	00 00 00 
    9c13:	eb 51                	jmp    9c66 <func_34+0x179>
    9c15:	c7 85 20 fb ff ff 00 	movl   $0x0,-0x4e0(%rbp)
    9c1c:	00 00 00 
    9c1f:	eb 35                	jmp    9c56 <func_34+0x169>
    9c21:	8b 85 20 fb ff ff    	mov    -0x4e0(%rbp),%eax
    9c27:	48 63 c8             	movslq %eax,%rcx
    9c2a:	8b 85 1c fb ff ff    	mov    -0x4e4(%rbp),%eax
    9c30:	48 63 d0             	movslq %eax,%rdx
    9c33:	48 89 d0             	mov    %rdx,%rax
    9c36:	48 c1 e0 03          	shl    $0x3,%rax
    9c3a:	48 29 d0             	sub    %rdx,%rax
    9c3d:	48 01 c8             	add    %rcx,%rax
    9c40:	48 8d 15 ff bc 00 00 	lea    0xbcff(%rip),%rdx        # 15946 <g_832+0x6>
    9c47:	48 89 94 c5 a0 fc ff 	mov    %rdx,-0x360(%rbp,%rax,8)
    9c4e:	ff 
    9c4f:	83 85 20 fb ff ff 01 	addl   $0x1,-0x4e0(%rbp)
    9c56:	83 bd 20 fb ff ff 06 	cmpl   $0x6,-0x4e0(%rbp)
    9c5d:	7e c2                	jle    9c21 <func_34+0x134>
    9c5f:	83 85 1c fb ff ff 01 	addl   $0x1,-0x4e4(%rbp)
    9c66:	83 bd 1c fb ff ff 00 	cmpl   $0x0,-0x4e4(%rbp)
    9c6d:	7e a6                	jle    9c15 <func_34+0x128>
    9c6f:	0f b7 85 12 fb ff ff 	movzwl -0x4ee(%rbp),%eax
    9c76:	83 c0 01             	add    $0x1,%eax
    9c79:	66 89 85 12 fb ff ff 	mov    %ax,-0x4ee(%rbp)
    9c80:	8b 85 08 fb ff ff    	mov    -0x4f8(%rbp),%eax
    9c86:	41 89 c5             	mov    %eax,%r13d
    9c89:	48 83 bd 68 fb ff ff 	cmpq   $0x0,-0x498(%rbp)
    9c90:	00 
    9c91:	0f 95 c0             	setne  %al
    9c94:	44 0f b6 e0          	movzbl %al,%r12d
    9c98:	48 8b 05 61 bc 00 00 	mov    0xbc61(%rip),%rax        # 15900 <g_651>
    9c9f:	48 c1 e8 1c          	shr    $0x1c,%rax
    9ca3:	25 ff ff 3f 00       	and    $0x3fffff,%eax
    9ca8:	41 89 c6             	mov    %eax,%r14d
    9cab:	8b 1d 33 be 00 00    	mov    0xbe33(%rip),%ebx        # 15ae4 <g_1050>
    9cb1:	8b 85 08 fb ff ff    	mov    -0x4f8(%rbp),%eax
    9cb7:	41 89 c7             	mov    %eax,%r15d
    9cba:	8b 85 08 fb ff ff    	mov    -0x4f8(%rbp),%eax
    9cc0:	48 63 d0             	movslq %eax,%rdx
    9cc3:	48 8b 05 96 d2 00 00 	mov    0xd296(%rip),%rax        # 16f60 <g_447>
    9cca:	48 8b 00             	mov    (%rax),%rax
    9ccd:	48 8b 00             	mov    (%rax),%rax
    9cd0:	0f b7 08             	movzwl (%rax),%ecx
    9cd3:	48 8b 85 70 fb ff ff 	mov    -0x490(%rbp),%rax
    9cda:	66 89 08             	mov    %cx,(%rax)
    9cdd:	48 8b 85 70 fb ff ff 	mov    -0x490(%rbp),%rax
    9ce4:	0f b7 00             	movzwl (%rax),%eax
    9ce7:	66 85 c0             	test   %ax,%ax
    9cea:	74 07                	je     9cf3 <func_34+0x206>
    9cec:	b8 01 00 00 00       	mov    $0x1,%eax
    9cf1:	eb 05                	jmp    9cf8 <func_34+0x20b>
    9cf3:	b8 00 00 00 00       	mov    $0x0,%eax
    9cf8:	48 98                	cltq   
    9cfa:	48 89 d6             	mov    %rdx,%rsi
    9cfd:	48 89 c7             	mov    %rax,%rdi
    9d00:	e8 29 c3 ff ff       	callq  602e <safe_add_func_uint64_t_u_u>
    9d05:	8b 85 08 fb ff ff    	mov    -0x4f8(%rbp),%eax
    9d0b:	48 98                	cltq   
    9d0d:	48 ba 7d d1 28 af ad 	movabs $0x9775c2adaf28d17d,%rdx
    9d14:	c2 75 97 
    9d17:	48 39 d0             	cmp    %rdx,%rax
    9d1a:	0f 95 c0             	setne  %al
    9d1d:	0f b6 c0             	movzbl %al,%eax
    9d20:	44 89 fe             	mov    %r15d,%esi
    9d23:	89 c7                	mov    %eax,%edi
    9d25:	e8 fb c1 ff ff       	callq  5f25 <safe_div_func_uint32_t_u_u>
    9d2a:	41 89 c7             	mov    %eax,%r15d
    9d2d:	be 0a 00 00 00       	mov    $0xa,%esi
    9d32:	bf 01 00 00 00       	mov    $0x1,%edi
    9d37:	e8 82 c0 ff ff       	callq  5dbe <safe_lshift_func_uint16_t_u_s>
    9d3c:	0f b7 d0             	movzwl %ax,%edx
    9d3f:	48 8b 05 e2 d1 00 00 	mov    0xd1e2(%rip),%rax        # 16f28 <g_365>
    9d46:	48 8b 00             	mov    (%rax),%rax
    9d49:	48 8b 00             	mov    (%rax),%rax
    9d4c:	0f b6 08             	movzbl (%rax),%ecx
    9d4f:	44 89 fe             	mov    %r15d,%esi
    9d52:	48 8b 05 cf d1 00 00 	mov    0xd1cf(%rip),%rax        # 16f28 <g_365>
    9d59:	48 8b 00             	mov    (%rax),%rax
    9d5c:	48 8b 00             	mov    (%rax),%rax
    9d5f:	31 f1                	xor    %esi,%ecx
    9d61:	88 08                	mov    %cl,(%rax)
    9d63:	0f b6 00             	movzbl (%rax),%eax
    9d66:	0f b6 c8             	movzbl %al,%ecx
    9d69:	8b 85 08 fb ff ff    	mov    -0x4f8(%rbp),%eax
    9d6f:	31 c8                	xor    %ecx,%eax
    9d71:	39 c2                	cmp    %eax,%edx
    9d73:	74 10                	je     9d85 <func_34+0x298>
    9d75:	80 bd 0c fb ff ff 00 	cmpb   $0x0,-0x4f4(%rbp)
    9d7c:	74 07                	je     9d85 <func_34+0x298>
    9d7e:	b8 01 00 00 00       	mov    $0x1,%eax
    9d83:	eb 05                	jmp    9d8a <func_34+0x29d>
    9d85:	b8 00 00 00 00       	mov    $0x0,%eax
    9d8a:	0f be c0             	movsbl %al,%eax
    9d8d:	89 de                	mov    %ebx,%esi
    9d8f:	89 c7                	mov    %eax,%edi
    9d91:	e8 9f b5 ff ff       	callq  5335 <safe_rshift_func_int8_t_s_s>
    9d96:	89 c2                	mov    %eax,%edx
    9d98:	48 8b 05 51 d1 00 00 	mov    0xd151(%rip),%rax        # 16ef0 <g_335>
    9d9f:	48 8b 00             	mov    (%rax),%rax
    9da2:	48 0f be d2          	movsbq %dl,%rdx
    9da6:	48 89 10             	mov    %rdx,(%rax)
    9da9:	48 8b 00             	mov    (%rax),%rax
    9dac:	4c 89 f6             	mov    %r14,%rsi
    9daf:	48 89 c7             	mov    %rax,%rdi
    9db2:	e8 8a ba ff ff       	callq  5841 <safe_add_func_int64_t_s_s>
    9db7:	0f be c0             	movsbl %al,%eax
    9dba:	89 c6                	mov    %eax,%esi
    9dbc:	bf 04 00 00 00       	mov    $0x4,%edi
    9dc1:	e8 4c b4 ff ff       	callq  5212 <safe_mul_func_int8_t_s_s>
    9dc6:	0f be c0             	movsbl %al,%eax
    9dc9:	41 39 c4             	cmp    %eax,%r12d
    9dcc:	0f 94 c0             	sete   %al
    9dcf:	0f b6 c0             	movzbl %al,%eax
    9dd2:	44 89 ee             	mov    %r13d,%esi
    9dd5:	89 c7                	mov    %eax,%edi
    9dd7:	e8 f4 c0 ff ff       	callq  5ed0 <safe_sub_func_uint32_t_u_u>
    9ddc:	85 c0                	test   %eax,%eax
    9dde:	0f 84 6f 0b 00 00    	je     a953 <func_34+0xe66>
    9de4:	48 c7 85 98 fb ff ff 	movq   $0x1,-0x468(%rbp)
    9deb:	01 00 00 00 
    9def:	48 8d 85 58 fb ff ff 	lea    -0x4a8(%rbp),%rax
    9df6:	48 89 85 a0 fb ff ff 	mov    %rax,-0x460(%rbp)
    9dfd:	c7 85 40 fb ff ff fa 	movl   $0xfffffffa,-0x4c0(%rbp)
    9e04:	ff ff ff 
    9e07:	c7 85 44 fb ff ff 01 	movl   $0x1,-0x4bc(%rbp)
    9e0e:	00 00 00 
    9e11:	c7 85 48 fb ff ff f7 	movl   $0xfffffff7,-0x4b8(%rbp)
    9e18:	ff ff ff 
    9e1b:	c7 85 4c fb ff ff a3 	movl   $0xab800aa3,-0x4b4(%rbp)
    9e22:	0a 80 ab 
    9e25:	c7 85 50 fb ff ff 01 	movl   $0x1,-0x4b0(%rbp)
    9e2c:	00 00 00 
    9e2f:	48 b8 64 e0 82 4d 06 	movabs $0xe58c18064d82e064,%rax
    9e36:	18 8c e5 
    9e39:	48 89 85 a8 fb ff ff 	mov    %rax,-0x458(%rbp)
    9e40:	48 8d 05 2d bc 00 00 	lea    0xbc2d(%rip),%rax        # 15a74 <g_961+0x74>
    9e47:	48 89 85 b0 fb ff ff 	mov    %rax,-0x450(%rbp)
    9e4e:	48 8d 05 77 b4 00 00 	lea    0xb477(%rip),%rax        # 152cc <g_163>
    9e55:	48 89 85 40 fd ff ff 	mov    %rax,-0x2c0(%rbp)
    9e5c:	48 8d 85 12 fb ff ff 	lea    -0x4ee(%rbp),%rax
    9e63:	48 89 85 48 fd ff ff 	mov    %rax,-0x2b8(%rbp)
    9e6a:	48 8d 85 12 fb ff ff 	lea    -0x4ee(%rbp),%rax
    9e71:	48 89 85 50 fd ff ff 	mov    %rax,-0x2b0(%rbp)
    9e78:	48 8d 85 12 fb ff ff 	lea    -0x4ee(%rbp),%rax
    9e7f:	48 89 85 58 fd ff ff 	mov    %rax,-0x2a8(%rbp)
    9e86:	48 8d 85 12 fb ff ff 	lea    -0x4ee(%rbp),%rax
    9e8d:	48 89 85 60 fd ff ff 	mov    %rax,-0x2a0(%rbp)
    9e94:	48 8d 05 31 b4 00 00 	lea    0xb431(%rip),%rax        # 152cc <g_163>
    9e9b:	48 89 85 68 fd ff ff 	mov    %rax,-0x298(%rbp)
    9ea2:	48 8d 05 23 b4 00 00 	lea    0xb423(%rip),%rax        # 152cc <g_163>
    9ea9:	48 89 85 70 fd ff ff 	mov    %rax,-0x290(%rbp)
    9eb0:	48 8d 05 95 ba 00 00 	lea    0xba95(%rip),%rax        # 1594c <g_832+0xc>
    9eb7:	48 89 85 78 fd ff ff 	mov    %rax,-0x288(%rbp)
    9ebe:	48 8d 05 81 ba 00 00 	lea    0xba81(%rip),%rax        # 15946 <g_832+0x6>
    9ec5:	48 89 85 80 fd ff ff 	mov    %rax,-0x280(%rbp)
    9ecc:	48 8d 05 79 ba 00 00 	lea    0xba79(%rip),%rax        # 1594c <g_832+0xc>
    9ed3:	48 89 85 88 fd ff ff 	mov    %rax,-0x278(%rbp)
    9eda:	48 8d 05 eb b3 00 00 	lea    0xb3eb(%rip),%rax        # 152cc <g_163>
    9ee1:	48 89 85 90 fd ff ff 	mov    %rax,-0x270(%rbp)
    9ee8:	48 8d 05 5d ba 00 00 	lea    0xba5d(%rip),%rax        # 1594c <g_832+0xc>
    9eef:	48 89 85 98 fd ff ff 	mov    %rax,-0x268(%rbp)
    9ef6:	48 8d 05 49 ba 00 00 	lea    0xba49(%rip),%rax        # 15946 <g_832+0x6>
    9efd:	48 89 85 a0 fd ff ff 	mov    %rax,-0x260(%rbp)
    9f04:	48 8d 05 41 ba 00 00 	lea    0xba41(%rip),%rax        # 1594c <g_832+0xc>
    9f0b:	48 89 85 a8 fd ff ff 	mov    %rax,-0x258(%rbp)
    9f12:	48 8d 05 b3 b3 00 00 	lea    0xb3b3(%rip),%rax        # 152cc <g_163>
    9f19:	48 89 85 b0 fd ff ff 	mov    %rax,-0x250(%rbp)
    9f20:	48 8d 85 12 fb ff ff 	lea    -0x4ee(%rbp),%rax
    9f27:	48 89 85 b8 fd ff ff 	mov    %rax,-0x248(%rbp)
    9f2e:	48 8d 05 97 b3 00 00 	lea    0xb397(%rip),%rax        # 152cc <g_163>
    9f35:	48 89 85 c0 fd ff ff 	mov    %rax,-0x240(%rbp)
    9f3c:	48 8d 85 12 fb ff ff 	lea    -0x4ee(%rbp),%rax
    9f43:	48 89 85 c8 fd ff ff 	mov    %rax,-0x238(%rbp)
    9f4a:	48 8d 85 12 fb ff ff 	lea    -0x4ee(%rbp),%rax
    9f51:	48 89 85 d0 fd ff ff 	mov    %rax,-0x230(%rbp)
    9f58:	48 8d 05 6d b3 00 00 	lea    0xb36d(%rip),%rax        # 152cc <g_163>
    9f5f:	48 89 85 d8 fd ff ff 	mov    %rax,-0x228(%rbp)
    9f66:	48 8d 85 12 fb ff ff 	lea    -0x4ee(%rbp),%rax
    9f6d:	48 89 85 e0 fd ff ff 	mov    %rax,-0x220(%rbp)
    9f74:	48 8d 05 cb b9 00 00 	lea    0xb9cb(%rip),%rax        # 15946 <g_832+0x6>
    9f7b:	48 89 85 e8 fd ff ff 	mov    %rax,-0x218(%rbp)
    9f82:	48 8d 05 bd b9 00 00 	lea    0xb9bd(%rip),%rax        # 15946 <g_832+0x6>
    9f89:	48 89 85 f0 fd ff ff 	mov    %rax,-0x210(%rbp)
    9f90:	48 8d 05 35 b3 00 00 	lea    0xb335(%rip),%rax        # 152cc <g_163>
    9f97:	48 89 85 f8 fd ff ff 	mov    %rax,-0x208(%rbp)
    9f9e:	48 8d 05 a1 b9 00 00 	lea    0xb9a1(%rip),%rax        # 15946 <g_832+0x6>
    9fa5:	48 89 85 00 fe ff ff 	mov    %rax,-0x200(%rbp)
    9fac:	48 8d 05 93 b9 00 00 	lea    0xb993(%rip),%rax        # 15946 <g_832+0x6>
    9fb3:	48 89 85 08 fe ff ff 	mov    %rax,-0x1f8(%rbp)
    9fba:	48 8d 05 85 b9 00 00 	lea    0xb985(%rip),%rax        # 15946 <g_832+0x6>
    9fc1:	48 89 85 10 fe ff ff 	mov    %rax,-0x1f0(%rbp)
    9fc8:	48 8d 05 fd b2 00 00 	lea    0xb2fd(%rip),%rax        # 152cc <g_163>
    9fcf:	48 89 85 18 fe ff ff 	mov    %rax,-0x1e8(%rbp)
    9fd6:	48 8d 85 12 fb ff ff 	lea    -0x4ee(%rbp),%rax
    9fdd:	48 89 85 20 fe ff ff 	mov    %rax,-0x1e0(%rbp)
    9fe4:	48 8d 85 12 fb ff ff 	lea    -0x4ee(%rbp),%rax
    9feb:	48 89 85 28 fe ff ff 	mov    %rax,-0x1d8(%rbp)
    9ff2:	48 8d 05 d3 b2 00 00 	lea    0xb2d3(%rip),%rax        # 152cc <g_163>
    9ff9:	48 89 85 30 fe ff ff 	mov    %rax,-0x1d0(%rbp)
    a000:	48 8d 85 12 fb ff ff 	lea    -0x4ee(%rbp),%rax
    a007:	48 89 85 38 fe ff ff 	mov    %rax,-0x1c8(%rbp)
    a00e:	48 8d 05 b7 b2 00 00 	lea    0xb2b7(%rip),%rax        # 152cc <g_163>
    a015:	48 89 85 40 fe ff ff 	mov    %rax,-0x1c0(%rbp)
    a01c:	48 8d 05 a9 b2 00 00 	lea    0xb2a9(%rip),%rax        # 152cc <g_163>
    a023:	48 89 85 48 fe ff ff 	mov    %rax,-0x1b8(%rbp)
    a02a:	48 8d 85 12 fb ff ff 	lea    -0x4ee(%rbp),%rax
    a031:	48 89 85 50 fe ff ff 	mov    %rax,-0x1b0(%rbp)
    a038:	48 8d 05 0d b9 00 00 	lea    0xb90d(%rip),%rax        # 1594c <g_832+0xc>
    a03f:	48 89 85 58 fe ff ff 	mov    %rax,-0x1a8(%rbp)
    a046:	48 8d 05 7f b2 00 00 	lea    0xb27f(%rip),%rax        # 152cc <g_163>
    a04d:	48 89 85 60 fe ff ff 	mov    %rax,-0x1a0(%rbp)
    a054:	48 8d 05 f1 b8 00 00 	lea    0xb8f1(%rip),%rax        # 1594c <g_832+0xc>
    a05b:	48 89 85 68 fe ff ff 	mov    %rax,-0x198(%rbp)
    a062:	48 8d 05 dd b8 00 00 	lea    0xb8dd(%rip),%rax        # 15946 <g_832+0x6>
    a069:	48 89 85 70 fe ff ff 	mov    %rax,-0x190(%rbp)
    a070:	48 8d 05 d5 b8 00 00 	lea    0xb8d5(%rip),%rax        # 1594c <g_832+0xc>
    a077:	48 89 85 78 fe ff ff 	mov    %rax,-0x188(%rbp)
    a07e:	48 8d 05 47 b2 00 00 	lea    0xb247(%rip),%rax        # 152cc <g_163>
    a085:	48 89 85 80 fe ff ff 	mov    %rax,-0x180(%rbp)
    a08c:	48 8d 05 b9 b8 00 00 	lea    0xb8b9(%rip),%rax        # 1594c <g_832+0xc>
    a093:	48 89 85 88 fe ff ff 	mov    %rax,-0x178(%rbp)
    a09a:	48 8d 85 12 fb ff ff 	lea    -0x4ee(%rbp),%rax
    a0a1:	48 89 85 90 fe ff ff 	mov    %rax,-0x170(%rbp)
    a0a8:	48 8d 85 12 fb ff ff 	lea    -0x4ee(%rbp),%rax
    a0af:	48 89 85 98 fe ff ff 	mov    %rax,-0x168(%rbp)
    a0b6:	48 8d 85 12 fb ff ff 	lea    -0x4ee(%rbp),%rax
    a0bd:	48 89 85 a0 fe ff ff 	mov    %rax,-0x160(%rbp)
    a0c4:	48 8d 85 12 fb ff ff 	lea    -0x4ee(%rbp),%rax
    a0cb:	48 89 85 a8 fe ff ff 	mov    %rax,-0x158(%rbp)
    a0d2:	48 8d 05 f3 b1 00 00 	lea    0xb1f3(%rip),%rax        # 152cc <g_163>
    a0d9:	48 89 85 b0 fe ff ff 	mov    %rax,-0x150(%rbp)
    a0e0:	48 8d 05 e5 b1 00 00 	lea    0xb1e5(%rip),%rax        # 152cc <g_163>
    a0e7:	48 89 85 b8 fe ff ff 	mov    %rax,-0x148(%rbp)
    a0ee:	48 8d 05 d7 b1 00 00 	lea    0xb1d7(%rip),%rax        # 152cc <g_163>
    a0f5:	48 89 85 c0 fe ff ff 	mov    %rax,-0x140(%rbp)
    a0fc:	48 8d 05 43 b8 00 00 	lea    0xb843(%rip),%rax        # 15946 <g_832+0x6>
    a103:	48 89 85 c8 fe ff ff 	mov    %rax,-0x138(%rbp)
    a10a:	48 8d 05 bb b1 00 00 	lea    0xb1bb(%rip),%rax        # 152cc <g_163>
    a111:	48 89 85 d0 fe ff ff 	mov    %rax,-0x130(%rbp)
    a118:	48 8d 05 ad b1 00 00 	lea    0xb1ad(%rip),%rax        # 152cc <g_163>
    a11f:	48 89 85 d8 fe ff ff 	mov    %rax,-0x128(%rbp)
    a126:	48 8d 05 9f b1 00 00 	lea    0xb19f(%rip),%rax        # 152cc <g_163>
    a12d:	48 89 85 e0 fe ff ff 	mov    %rax,-0x120(%rbp)
    a134:	48 8d 05 0b b8 00 00 	lea    0xb80b(%rip),%rax        # 15946 <g_832+0x6>
    a13b:	48 89 85 e8 fe ff ff 	mov    %rax,-0x118(%rbp)
    a142:	48 8d 05 83 b1 00 00 	lea    0xb183(%rip),%rax        # 152cc <g_163>
    a149:	48 89 85 f0 fe ff ff 	mov    %rax,-0x110(%rbp)
    a150:	48 8d 05 75 b1 00 00 	lea    0xb175(%rip),%rax        # 152cc <g_163>
    a157:	48 89 85 f8 fe ff ff 	mov    %rax,-0x108(%rbp)
    a15e:	48 8d 05 67 b1 00 00 	lea    0xb167(%rip),%rax        # 152cc <g_163>
    a165:	48 89 85 00 ff ff ff 	mov    %rax,-0x100(%rbp)
    a16c:	48 8d 85 12 fb ff ff 	lea    -0x4ee(%rbp),%rax
    a173:	48 89 85 08 ff ff ff 	mov    %rax,-0xf8(%rbp)
    a17a:	48 8d 85 12 fb ff ff 	lea    -0x4ee(%rbp),%rax
    a181:	48 89 85 10 ff ff ff 	mov    %rax,-0xf0(%rbp)
    a188:	48 8d 85 12 fb ff ff 	lea    -0x4ee(%rbp),%rax
    a18f:	48 89 85 18 ff ff ff 	mov    %rax,-0xe8(%rbp)
    a196:	48 8d 85 12 fb ff ff 	lea    -0x4ee(%rbp),%rax
    a19d:	48 89 85 20 ff ff ff 	mov    %rax,-0xe0(%rbp)
    a1a4:	48 8d 05 21 b1 00 00 	lea    0xb121(%rip),%rax        # 152cc <g_163>
    a1ab:	48 89 85 28 ff ff ff 	mov    %rax,-0xd8(%rbp)
    a1b2:	48 8d 05 13 b1 00 00 	lea    0xb113(%rip),%rax        # 152cc <g_163>
    a1b9:	48 89 85 30 ff ff ff 	mov    %rax,-0xd0(%rbp)
    a1c0:	48 8d 05 dd af 00 00 	lea    0xafdd(%rip),%rax        # 151a4 <g_55>
    a1c7:	48 89 85 b8 fb ff ff 	mov    %rax,-0x448(%rbp)
    a1ce:	48 8d 05 eb b2 00 00 	lea    0xb2eb(%rip),%rax        # 154c0 <g_326>
    a1d5:	48 89 85 70 fc ff ff 	mov    %rax,-0x390(%rbp)
    a1dc:	48 8d 05 dd b2 00 00 	lea    0xb2dd(%rip),%rax        # 154c0 <g_326>
    a1e3:	48 89 85 78 fc ff ff 	mov    %rax,-0x388(%rbp)
    a1ea:	48 8d 05 cf b2 00 00 	lea    0xb2cf(%rip),%rax        # 154c0 <g_326>
    a1f1:	48 89 85 80 fc ff ff 	mov    %rax,-0x380(%rbp)
    a1f8:	48 8d 05 c1 b2 00 00 	lea    0xb2c1(%rip),%rax        # 154c0 <g_326>
    a1ff:	48 89 85 88 fc ff ff 	mov    %rax,-0x378(%rbp)
    a206:	48 8d 05 b3 b2 00 00 	lea    0xb2b3(%rip),%rax        # 154c0 <g_326>
    a20d:	48 89 85 90 fc ff ff 	mov    %rax,-0x370(%rbp)
    a214:	48 8d 05 a5 b2 00 00 	lea    0xb2a5(%rip),%rax        # 154c0 <g_326>
    a21b:	48 89 85 98 fc ff ff 	mov    %rax,-0x368(%rbp)
    a222:	8b 85 08 fb ff ff    	mov    -0x4f8(%rbp),%eax
    a228:	0f b7 d8             	movzwl %ax,%ebx
    a22b:	48 8b 05 96 cc 00 00 	mov    0xcc96(%rip),%rax        # 16ec8 <g_195>
    a232:	8b 10                	mov    (%rax),%edx
    a234:	8b 05 9a b2 00 00    	mov    0xb29a(%rip),%eax        # 154d4 <g_344>
    a23a:	85 c0                	test   %eax,%eax
    a23c:	0f 94 c0             	sete   %al
    a23f:	0f b6 c0             	movzbl %al,%eax
    a242:	89 d6                	mov    %edx,%esi
    a244:	89 c7                	mov    %eax,%edi
    a246:	e8 85 bc ff ff       	callq  5ed0 <safe_sub_func_uint32_t_u_u>
    a24b:	89 c0                	mov    %eax,%eax
    a24d:	be 01 00 00 00       	mov    $0x1,%esi
    a252:	48 89 c7             	mov    %rax,%rdi
    a255:	e8 f1 bd ff ff       	callq  604b <safe_sub_func_uint64_t_u_u>
    a25a:	0f b7 c0             	movzwl %ax,%eax
    a25d:	89 de                	mov    %ebx,%esi
    a25f:	89 c7                	mov    %eax,%edi
    a261:	e8 b9 ba ff ff       	callq  5d1f <safe_sub_func_uint16_t_u_u>
    a266:	0f b7 d0             	movzwl %ax,%edx
    a269:	8b 05 79 b8 00 00    	mov    0xb879(%rip),%eax        # 15ae8 <g_1062>
    a26f:	39 c2                	cmp    %eax,%edx
    a271:	0f 9f c2             	setg   %dl
    a274:	48 8b 05 4d cc 00 00 	mov    0xcc4d(%rip),%rax        # 16ec8 <g_195>
    a27b:	0f b6 d2             	movzbl %dl,%edx
    a27e:	89 10                	mov    %edx,(%rax)
    a280:	8b 00                	mov    (%rax),%eax
    a282:	85 c0                	test   %eax,%eax
    a284:	0f 84 3d 01 00 00    	je     a3c7 <func_34+0x8da>
    a28a:	c7 85 54 fb ff ff 84 	movl   $0xec80f384,-0x4ac(%rbp)
    a291:	f3 80 ec 
    a294:	c7 85 e0 fc ff ff f6 	movl   $0xfffffff6,-0x320(%rbp)
    a29b:	ff ff ff 
    a29e:	c7 85 e4 fc ff ff a8 	movl   $0xc6c15ca8,-0x31c(%rbp)
    a2a5:	5c c1 c6 
    a2a8:	c7 85 e8 fc ff ff f6 	movl   $0xfffffff6,-0x318(%rbp)
    a2af:	ff ff ff 
    a2b2:	c7 85 ec fc ff ff c9 	movl   $0x5d9074c9,-0x314(%rbp)
    a2b9:	74 90 5d 
    a2bc:	c7 85 f0 fc ff ff 12 	movl   $0xc6441912,-0x310(%rbp)
    a2c3:	19 44 c6 
    a2c6:	c7 85 f4 fc ff ff c9 	movl   $0x5d9074c9,-0x30c(%rbp)
    a2cd:	74 90 5d 
    a2d0:	c7 85 f8 fc ff ff f6 	movl   $0xfffffff6,-0x308(%rbp)
    a2d7:	ff ff ff 
    a2da:	c7 85 fc fc ff ff a8 	movl   $0xc6c15ca8,-0x304(%rbp)
    a2e1:	5c c1 c6 
    a2e4:	c7 85 00 fd ff ff f6 	movl   $0xfffffff6,-0x300(%rbp)
    a2eb:	ff ff ff 
    a2ee:	c7 85 04 fd ff ff c9 	movl   $0x5d9074c9,-0x2fc(%rbp)
    a2f5:	74 90 5d 
    a2f8:	c7 85 08 fd ff ff 12 	movl   $0xc6441912,-0x2f8(%rbp)
    a2ff:	19 44 c6 
    a302:	c7 85 0c fd ff ff c9 	movl   $0x5d9074c9,-0x2f4(%rbp)
    a309:	74 90 5d 
    a30c:	c7 85 10 fd ff ff f6 	movl   $0xfffffff6,-0x2f0(%rbp)
    a313:	ff ff ff 
    a316:	c7 85 14 fd ff ff a8 	movl   $0xc6c15ca8,-0x2ec(%rbp)
    a31d:	5c c1 c6 
    a320:	c7 85 18 fd ff ff f6 	movl   $0xfffffff6,-0x2e8(%rbp)
    a327:	ff ff ff 
    a32a:	c7 85 1c fd ff ff c9 	movl   $0x5d9074c9,-0x2e4(%rbp)
    a331:	74 90 5d 
    a334:	c7 85 20 fd ff ff 12 	movl   $0xc6441912,-0x2e0(%rbp)
    a33b:	19 44 c6 
    a33e:	c7 85 24 fd ff ff c9 	movl   $0x5d9074c9,-0x2dc(%rbp)
    a345:	74 90 5d 
    a348:	c7 85 28 fd ff ff f6 	movl   $0xfffffff6,-0x2d8(%rbp)
    a34f:	ff ff ff 
    a352:	c7 85 2c fd ff ff a8 	movl   $0xc6c15ca8,-0x2d4(%rbp)
    a359:	5c c1 c6 
    a35c:	c7 85 30 fd ff ff f6 	movl   $0xfffffff6,-0x2d0(%rbp)
    a363:	ff ff ff 
    a366:	c7 85 34 fd ff ff c9 	movl   $0x5d9074c9,-0x2cc(%rbp)
    a36d:	74 90 5d 
    a370:	c7 85 38 fd ff ff 12 	movl   $0xc6441912,-0x2c8(%rbp)
    a377:	19 44 c6 
    a37a:	c7 85 3c fd ff ff c9 	movl   $0x5d9074c9,-0x2c4(%rbp)
    a381:	74 90 5d 
    a384:	c7 85 54 fb ff ff ff 	movl   $0xffffffff,-0x4ac(%rbp)
    a38b:	ff ff ff 
    a38e:	83 85 50 fb ff ff 01 	addl   $0x1,-0x4b0(%rbp)
    a395:	48 8b 05 34 cb 00 00 	mov    0xcb34(%rip),%rax        # 16ed0 <g_194>
    a39c:	48 8b 00             	mov    (%rax),%rax
    a39f:	8b 00                	mov    (%rax),%eax
    a3a1:	8b 95 08 fb ff ff    	mov    -0x4f8(%rbp),%edx
    a3a7:	39 d0                	cmp    %edx,%eax
    a3a9:	0f 97 c2             	seta   %dl
    a3ac:	48 8b 05 f5 ca 00 00 	mov    0xcaf5(%rip),%rax        # 16ea8 <g_172>
    a3b3:	0f b6 d2             	movzbl %dl,%edx
    a3b6:	89 10                	mov    %edx,(%rax)
    a3b8:	48 8b 85 a8 fb ff ff 	mov    -0x458(%rbp),%rax
    a3bf:	89 85 08 fb ff ff    	mov    %eax,-0x4f8(%rbp)
    a3c5:	eb 1f                	jmp    a3e6 <func_34+0x8f9>
    a3c7:	48 8d 85 40 fc ff ff 	lea    -0x3c0(%rbp),%rax
    a3ce:	48 89 85 c0 fb ff ff 	mov    %rax,-0x440(%rbp)
    a3d5:	48 8b 85 c0 fb ff ff 	mov    -0x440(%rbp),%rax
    a3dc:	48 8d 95 08 fb ff ff 	lea    -0x4f8(%rbp),%rdx
    a3e3:	48 89 10             	mov    %rdx,(%rax)
    a3e6:	c7 05 cc ae 00 00 00 	movl   $0x0,0xaecc(%rip)        # 152bc <g_116>
    a3ed:	00 00 00 
    a3f0:	90                   	nop
    a3f1:	8b 05 c5 ae 00 00    	mov    0xaec5(%rip),%eax        # 152bc <g_116>
    a3f7:	83 f8 12             	cmp    $0x12,%eax
    a3fa:	75 39                	jne    a435 <func_34+0x948>
    a3fc:	48 8d 05 c5 ca 00 00 	lea    0xcac5(%rip),%rax        # 16ec8 <g_195>
    a403:	48 89 85 60 fb ff ff 	mov    %rax,-0x4a0(%rbp)
    a40a:	48 8d 85 60 fb ff ff 	lea    -0x4a0(%rbp),%rax
    a411:	48 89 85 e8 fb ff ff 	mov    %rax,-0x418(%rbp)
    a418:	48 8b 95 60 fb ff ff 	mov    -0x4a0(%rbp),%rdx
    a41f:	48 8b 85 e8 fb ff ff 	mov    -0x418(%rbp),%rax
    a426:	48 89 10             	mov    %rdx,(%rax)
    a429:	0f b6 85 0c fb ff ff 	movzbl -0x4f4(%rbp),%eax
    a430:	e9 d5 06 00 00       	jmpq   ab0a <func_34+0x101d>
    a435:	48 8d 85 08 fb ff ff 	lea    -0x4f8(%rbp),%rax
    a43c:	48 89 85 40 fc ff ff 	mov    %rax,-0x3c0(%rbp)
    a443:	8b 05 d4 b0 00 00    	mov    0xb0d4(%rip),%eax        # 1551d <g_612+0xd>
    a449:	89 c2                	mov    %eax,%edx
    a44b:	48 8b 85 b0 fb ff ff 	mov    -0x450(%rbp),%rax
    a452:	88 10                	mov    %dl,(%rax)
    a454:	48 8b 85 b0 fb ff ff 	mov    -0x450(%rbp),%rax
    a45b:	0f b6 00             	movzbl (%rax),%eax
    a45e:	0f be c0             	movsbl %al,%eax
    a461:	be 00 00 00 00       	mov    $0x0,%esi
    a466:	89 c7                	mov    %eax,%edi
    a468:	e8 34 ae ff ff       	callq  52a1 <safe_lshift_func_int8_t_s_s>
    a46d:	44 0f be e8          	movsbl %al,%r13d
    a471:	48 8b 85 70 fb ff ff 	mov    -0x490(%rbp),%rax
    a478:	0f b7 10             	movzwl (%rax),%edx
    a47b:	66 0f be 85 0c fb ff 	movsbw -0x4f4(%rbp),%ax
    a482:	ff 
    a483:	09 c2                	or     %eax,%edx
    a485:	48 8b 85 70 fb ff ff 	mov    -0x490(%rbp),%rax
    a48c:	66 89 10             	mov    %dx,(%rax)
    a48f:	48 8b 85 70 fb ff ff 	mov    -0x490(%rbp),%rax
    a496:	0f b7 00             	movzwl (%rax),%eax
    a499:	83 f0 01             	xor    $0x1,%eax
    a49c:	4c 0f bf f0          	movswq %ax,%r14
    a4a0:	0f b6 85 0c fb ff ff 	movzbl -0x4f4(%rbp),%eax
    a4a7:	0f b6 d8             	movzbl %al,%ebx
    a4aa:	8b 85 08 fb ff ff    	mov    -0x4f8(%rbp),%eax
    a4b0:	44 0f be e0          	movsbl %al,%r12d
    a4b4:	8b 85 08 fb ff ff    	mov    -0x4f8(%rbp),%eax
    a4ba:	98                   	cwtl   
    a4bb:	be 97 1b 00 00       	mov    $0x1b97,%esi
    a4c0:	89 c7                	mov    %eax,%edi
    a4c2:	e8 0c af ff ff       	callq  53d3 <safe_sub_func_int16_t_s_s>
    a4c7:	0f be c0             	movsbl %al,%eax
    a4ca:	44 89 e6             	mov    %r12d,%esi
    a4cd:	89 c7                	mov    %eax,%edi
    a4cf:	e8 3e ad ff ff       	callq  5212 <safe_mul_func_int8_t_s_s>
    a4d4:	66 0f be d0          	movsbw %al,%dx
    a4d8:	48 8b 85 b8 fb ff ff 	mov    -0x448(%rbp),%rax
    a4df:	66 89 10             	mov    %dx,(%rax)
    a4e2:	48 8b 85 b8 fb ff ff 	mov    -0x448(%rbp),%rax
    a4e9:	0f b7 00             	movzwl (%rax),%eax
    a4ec:	0f b7 d0             	movzwl %ax,%edx
    a4ef:	8b 85 48 fb ff ff    	mov    -0x4b8(%rbp),%eax
    a4f5:	66 89 05 4c b4 00 00 	mov    %ax,0xb44c(%rip)        # 15948 <g_832+0x8>
    a4fc:	0f b7 05 45 b4 00 00 	movzwl 0xb445(%rip),%eax        # 15948 <g_832+0x8>
    a503:	0f b7 c0             	movzwl %ax,%eax
    a506:	89 d6                	mov    %edx,%esi
    a508:	89 c7                	mov    %eax,%edi
    a50a:	e8 2e b8 ff ff       	callq  5d3d <safe_mul_func_uint16_t_u_u>
    a50f:	66 0f be 85 0c fb ff 	movsbw -0x4f4(%rbp),%ax
    a516:	ff 
    a517:	8b 95 08 fb ff ff    	mov    -0x4f8(%rbp),%edx
    a51d:	21 d0                	and    %edx,%eax
    a51f:	0f b7 d0             	movzwl %ax,%edx
    a522:	83 85 28 fb ff ff 01 	addl   $0x1,-0x4d8(%rbp)
    a529:	8b 85 28 fb ff ff    	mov    -0x4d8(%rbp),%eax
    a52f:	f7 d0                	not    %eax
    a531:	0f b7 c0             	movzwl %ax,%eax
    a534:	89 d6                	mov    %edx,%esi
    a536:	89 c7                	mov    %eax,%edi
    a538:	e8 1f b8 ff ff       	callq  5d5c <safe_mod_func_uint16_t_u_u>
    a53d:	0f b6 c0             	movzbl %al,%eax
    a540:	89 de                	mov    %ebx,%esi
    a542:	89 c7                	mov    %eax,%edi
    a544:	e8 11 b6 ff ff       	callq  5b5a <safe_add_func_uint8_t_u_u>
    a549:	48 8b 15 00 cc 00 00 	mov    0xcc00(%rip),%rdx        # 17150 <g_1019>
    a550:	48 8b 12             	mov    (%rdx),%rdx
    a553:	0f b6 12             	movzbl (%rdx),%edx
    a556:	38 d0                	cmp    %dl,%al
    a558:	0f 97 c0             	seta   %al
    a55b:	0f b6 c0             	movzbl %al,%eax
    a55e:	4c 89 f2             	mov    %r14,%rdx
    a561:	48 21 c2             	and    %rax,%rdx
    a564:	0f b7 05 81 ac 00 00 	movzwl 0xac81(%rip),%eax        # 151ec <g_75+0x2c>
    a56b:	48 0f bf c0          	movswq %ax,%rax
    a56f:	48 39 c2             	cmp    %rax,%rdx
    a572:	0f 9c c0             	setl   %al
    a575:	0f b6 d0             	movzbl %al,%edx
    a578:	8b 05 82 b3 00 00    	mov    0xb382(%rip),%eax        # 15900 <g_651>
    a57e:	c1 e0 0b             	shl    $0xb,%eax
    a581:	c1 f8 0c             	sar    $0xc,%eax
    a584:	39 c2                	cmp    %eax,%edx
    a586:	0f 9e c0             	setle  %al
    a589:	0f b6 c0             	movzbl %al,%eax
    a58c:	44 89 ea             	mov    %r13d,%edx
    a58f:	09 c2                	or     %eax,%edx
    a591:	0f be 85 0c fb ff ff 	movsbl -0x4f4(%rbp),%eax
    a598:	21 d0                	and    %edx,%eax
    a59a:	89 85 08 fb ff ff    	mov    %eax,-0x4f8(%rbp)
    a5a0:	8b 85 08 fb ff ff    	mov    -0x4f8(%rbp),%eax
    a5a6:	21 85 4c fb ff ff    	and    %eax,-0x4b4(%rbp)
    a5ac:	83 bd 4c fb ff ff 00 	cmpl   $0x0,-0x4b4(%rbp)
    a5b3:	0f 84 66 03 00 00    	je     a91f <func_34+0xe32>
    a5b9:	48 8d 05 08 c9 00 00 	lea    0xc908(%rip),%rax        # 16ec8 <g_195>
    a5c0:	48 89 85 60 fb ff ff 	mov    %rax,-0x4a0(%rbp)
    a5c7:	48 8d 85 60 fb ff ff 	lea    -0x4a0(%rbp),%rax
    a5ce:	48 89 85 c8 fb ff ff 	mov    %rax,-0x438(%rbp)
    a5d5:	c7 85 14 fb ff ff 00 	movl   $0x0,-0x4ec(%rbp)
    a5dc:	00 00 00 
    a5df:	eb 7b                	jmp    a65c <func_34+0xb6f>
    a5e1:	c7 85 18 fb ff ff 00 	movl   $0x0,-0x4e8(%rbp)
    a5e8:	00 00 00 
    a5eb:	eb 5f                	jmp    a64c <func_34+0xb5f>
    a5ed:	c7 85 24 fb ff ff 00 	movl   $0x0,-0x4dc(%rbp)
    a5f4:	00 00 00 
    a5f7:	eb 43                	jmp    a63c <func_34+0xb4f>
    a5f9:	8b 85 24 fb ff ff    	mov    -0x4dc(%rbp),%eax
    a5ff:	48 63 c8             	movslq %eax,%rcx
    a602:	8b 85 14 fb ff ff    	mov    -0x4ec(%rbp),%eax
    a608:	48 63 d0             	movslq %eax,%rdx
    a60b:	8b 85 18 fb ff ff    	mov    -0x4e8(%rbp),%eax
    a611:	48 63 f0             	movslq %eax,%rsi
    a614:	48 89 d0             	mov    %rdx,%rax
    a617:	48 01 c0             	add    %rax,%rax
    a61a:	48 01 d0             	add    %rdx,%rax
    a61d:	48 01 c0             	add    %rax,%rax
    a620:	48 01 f0             	add    %rsi,%rax
    a623:	48 c1 e0 02          	shl    $0x2,%rax
    a627:	48 01 c8             	add    %rcx,%rax
    a62a:	c7 84 85 e0 fc ff ff 	movl   $0xffffffff,-0x320(%rbp,%rax,4)
    a631:	ff ff ff ff 
    a635:	83 85 24 fb ff ff 01 	addl   $0x1,-0x4dc(%rbp)
    a63c:	83 bd 24 fb ff ff 03 	cmpl   $0x3,-0x4dc(%rbp)
    a643:	7e b4                	jle    a5f9 <func_34+0xb0c>
    a645:	83 85 18 fb ff ff 01 	addl   $0x1,-0x4e8(%rbp)
    a64c:	83 bd 18 fb ff ff 05 	cmpl   $0x5,-0x4e8(%rbp)
    a653:	7e 98                	jle    a5ed <func_34+0xb00>
    a655:	83 85 14 fb ff ff 01 	addl   $0x1,-0x4ec(%rbp)
    a65c:	83 bd 14 fb ff ff 00 	cmpl   $0x0,-0x4ec(%rbp)
    a663:	0f 8e 78 ff ff ff    	jle    a5e1 <func_34+0xaf4>
    a669:	90                   	nop
    a66a:	48 8b 05 37 c8 00 00 	mov    0xc837(%rip),%rax        # 16ea8 <g_172>
    a671:	8b 08                	mov    (%rax),%ecx
    a673:	8b 95 0c fd ff ff    	mov    -0x2f4(%rbp),%edx
    a679:	48 8b 05 28 c8 00 00 	mov    0xc828(%rip),%rax        # 16ea8 <g_172>
    a680:	09 ca                	or     %ecx,%edx
    a682:	89 10                	mov    %edx,(%rax)
    a684:	8b 85 08 fb ff ff    	mov    -0x4f8(%rbp),%eax
    a68a:	85 c0                	test   %eax,%eax
    a68c:	0f 84 7a 02 00 00    	je     a90c <func_34+0xe1f>
    a692:	48 c7 85 d0 fb ff ff 	movq   $0xfffffffffffffff6,-0x430(%rbp)
    a699:	f6 ff ff ff 
    a69d:	c7 85 f0 fb ff ff 01 	movl   $0xff011401,-0x410(%rbp)
    a6a4:	14 01 ff 
    a6a7:	c7 85 f4 fb ff ff ff 	movl   $0x140114ff,-0x40c(%rbp)
    a6ae:	14 01 14 
    a6b1:	c7 85 f8 fb ff ff ff 	movl   $0x1401ffff,-0x408(%rbp)
    a6b8:	ff 01 14 
    a6bb:	c7 85 fc fb ff ff 01 	movl   $0xff011401,-0x404(%rbp)
    a6c2:	14 01 ff 
    a6c5:	c7 85 00 fc ff ff ff 	movl   $0x140114ff,-0x400(%rbp)
    a6cc:	14 01 14 
    a6cf:	c7 85 04 fc ff ff ff 	movl   $0x1401ffff,-0x3fc(%rbp)
    a6d6:	ff 01 14 
    a6d9:	48 c7 85 d8 fb ff ff 	movq   $0x0,-0x428(%rbp)
    a6e0:	00 00 00 00 
    a6e4:	48 8d 05 15 c8 00 00 	lea    0xc815(%rip),%rax        # 16f00 <g_367>
    a6eb:	48 89 85 e0 fb ff ff 	mov    %rax,-0x420(%rbp)
    a6f2:	c7 85 10 fc ff ff 37 	movl   $0x3f7ba437,-0x3f0(%rbp)
    a6f9:	a4 7b 3f 
    a6fc:	c7 85 14 fc ff ff 38 	movl   $0xcfe24d38,-0x3ec(%rbp)
    a703:	4d e2 cf 
    a706:	c7 85 18 fc ff ff 37 	movl   $0x3f7ba437,-0x3e8(%rbp)
    a70d:	a4 7b 3f 
    a710:	c7 85 1c fc ff ff 37 	movl   $0x3f7ba437,-0x3e4(%rbp)
    a717:	a4 7b 3f 
    a71a:	c7 85 20 fc ff ff 38 	movl   $0xcfe24d38,-0x3e0(%rbp)
    a721:	4d e2 cf 
    a724:	c7 85 24 fc ff ff 37 	movl   $0x3f7ba437,-0x3dc(%rbp)
    a72b:	a4 7b 3f 
    a72e:	c7 85 28 fc ff ff 37 	movl   $0x3f7ba437,-0x3d8(%rbp)
    a735:	a4 7b 3f 
    a738:	c7 85 2c fc ff ff 38 	movl   $0xcfe24d38,-0x3d4(%rbp)
    a73f:	4d e2 cf 
    a742:	c7 85 30 fc ff ff 37 	movl   $0x3f7ba437,-0x3d0(%rbp)
    a749:	a4 7b 3f 
    a74c:	0f be 8d 0c fb ff ff 	movsbl -0x4f4(%rbp),%ecx
    a753:	0f b7 05 7e ad 00 00 	movzwl 0xad7e(%rip),%eax        # 154d8 <g_357>
    a75a:	8d 50 ff             	lea    -0x1(%rax),%edx
    a75d:	66 89 15 74 ad 00 00 	mov    %dx,0xad74(%rip)        # 154d8 <g_357>
    a764:	0f b7 c0             	movzwl %ax,%eax
    a767:	39 c1                	cmp    %eax,%ecx
    a769:	48 8d 05 60 c7 00 00 	lea    0xc760(%rip),%rax        # 16ed0 <g_194>
    a770:	48 39 85 c8 fb ff ff 	cmp    %rax,-0x438(%rbp)
    a777:	0f 94 c0             	sete   %al
    a77a:	0f b6 d0             	movzbl %al,%edx
    a77d:	80 bd 0c fb ff ff 00 	cmpb   $0x0,-0x4f4(%rbp)
    a784:	74 11                	je     a797 <func_34+0xcaa>
    a786:	8b 85 08 fb ff ff    	mov    -0x4f8(%rbp),%eax
    a78c:	85 c0                	test   %eax,%eax
    a78e:	74 07                	je     a797 <func_34+0xcaa>
    a790:	b8 01 00 00 00       	mov    $0x1,%eax
    a795:	eb 05                	jmp    a79c <func_34+0xcaf>
    a797:	b8 00 00 00 00       	mov    $0x0,%eax
    a79c:	0f b6 c0             	movzbl %al,%eax
    a79f:	89 d6                	mov    %edx,%esi
    a7a1:	89 c7                	mov    %eax,%edi
    a7a3:	e8 eb b3 ff ff       	callq  5b93 <safe_mul_func_uint8_t_u_u>
    a7a8:	be 06 00 00 00       	mov    $0x6,%esi
    a7ad:	bf 01 00 00 00       	mov    $0x1,%edi
    a7b2:	e8 95 b4 ff ff       	callq  5c4c <safe_lshift_func_uint8_t_u_u>
    a7b7:	0f b6 c0             	movzbl %al,%eax
    a7ba:	48 39 85 d0 fb ff ff 	cmp    %rax,-0x430(%rbp)
    a7c1:	0f 9f c0             	setg   %al
    a7c4:	0f b6 d0             	movzbl %al,%edx
    a7c7:	8b 05 17 b3 00 00    	mov    0xb317(%rip),%eax        # 15ae4 <g_1050>
    a7cd:	39 c2                	cmp    %eax,%edx
    a7cf:	48 83 bd d0 fb ff ff 	cmpq   $0x0,-0x430(%rbp)
    a7d6:	00 
    a7d7:	74 1c                	je     a7f5 <func_34+0xd08>
    a7d9:	48 8b 05 80 c7 00 00 	mov    0xc780(%rip),%rax        # 16f60 <g_447>
    a7e0:	48 8b 00             	mov    (%rax),%rax
    a7e3:	48 8b 00             	mov    (%rax),%rax
    a7e6:	0f b7 00             	movzwl (%rax),%eax
    a7e9:	66 85 c0             	test   %ax,%ax
    a7ec:	74 07                	je     a7f5 <func_34+0xd08>
    a7ee:	ba 01 00 00 00       	mov    $0x1,%edx
    a7f3:	eb 05                	jmp    a7fa <func_34+0xd0d>
    a7f5:	ba 00 00 00 00       	mov    $0x0,%edx
    a7fa:	48 8b 05 4f c7 00 00 	mov    0xc74f(%rip),%rax        # 16f50 <g_449>
    a801:	0f b7 00             	movzwl (%rax),%eax
    a804:	98                   	cwtl   
    a805:	39 c2                	cmp    %eax,%edx
    a807:	0f 9c c0             	setl   %al
    a80a:	0f b6 c0             	movzbl %al,%eax
    a80d:	66 89 05 d4 aa 00 00 	mov    %ax,0xaad4(%rip)        # 152e8 <g_247>
    a814:	48 8b 05 8d c6 00 00 	mov    0xc68d(%rip),%rax        # 16ea8 <g_172>
    a81b:	c7 00 00 00 00 00    	movl   $0x0,(%rax)
    a821:	8b 05 41 b3 00 00    	mov    0xb341(%rip),%eax        # 15b68 <g_1119+0x68>
    a827:	89 c3                	mov    %eax,%ebx
    a829:	0f b6 85 f2 fb ff ff 	movzbl -0x40e(%rbp),%eax
    a830:	0f b6 c0             	movzbl %al,%eax
    a833:	be 16 72 00 00       	mov    $0x7216,%esi
    a838:	89 c7                	mov    %eax,%edi
    a83a:	e8 16 ac ff ff       	callq  5455 <safe_div_func_int16_t_s_s>
    a83f:	48 83 bd e0 fb ff ff 	cmpq   $0x0,-0x420(%rbp)
    a846:	00 
    a847:	0f 95 c0             	setne  %al
    a84a:	0f b6 d0             	movzbl %al,%edx
    a84d:	8b 85 08 fb ff ff    	mov    -0x4f8(%rbp),%eax
    a853:	39 c2                	cmp    %eax,%edx
    a855:	0f 9d c0             	setge  %al
    a858:	0f b6 c0             	movzbl %al,%eax
    a85b:	48 89 de             	mov    %rbx,%rsi
    a85e:	48 89 c7             	mov    %rax,%rdi
    a861:	e8 49 b8 ff ff       	callq  60af <safe_div_func_uint64_t_u_u>
    a866:	48 8b 15 13 b1 00 00 	mov    0xb113(%rip),%rdx        # 15980 <g_927>
    a86d:	48 c1 ea 1c          	shr    $0x1c,%rdx
    a871:	81 e2 ff ff 3f 00    	and    $0x3fffff,%edx
    a877:	89 d2                	mov    %edx,%edx
    a879:	48 39 d0             	cmp    %rdx,%rax
    a87c:	73 07                	jae    a885 <func_34+0xd98>
    a87e:	ba 01 00 00 00       	mov    $0x1,%edx
    a883:	eb 05                	jmp    a88a <func_34+0xd9d>
    a885:	ba 00 00 00 00       	mov    $0x0,%edx
    a88a:	48 8b 05 cf c6 00 00 	mov    0xc6cf(%rip),%rax        # 16f60 <g_447>
    a891:	48 8b 00             	mov    (%rax),%rax
    a894:	48 8b 00             	mov    (%rax),%rax
    a897:	0f b7 00             	movzwl (%rax),%eax
    a89a:	98                   	cwtl   
    a89b:	39 c2                	cmp    %eax,%edx
    a89d:	0f 94 c0             	sete   %al
    a8a0:	0f b6 c0             	movzbl %al,%eax
    a8a3:	89 c7                	mov    %eax,%edi
    a8a5:	e8 15 a9 ff ff       	callq  51bf <safe_unary_minus_func_int8_t_s>
    a8aa:	48 0f be d0          	movsbq %al,%rdx
    a8ae:	48 8b 05 3b c6 00 00 	mov    0xc63b(%rip),%rax        # 16ef0 <g_335>
    a8b5:	48 8b 00             	mov    (%rax),%rax
    a8b8:	48 8b 00             	mov    (%rax),%rax
    a8bb:	48 39 c2             	cmp    %rax,%rdx
    a8be:	0f 95 c0             	setne  %al
    a8c1:	0f b6 d0             	movzbl %al,%edx
    a8c4:	8b 85 30 fd ff ff    	mov    -0x2d0(%rbp),%eax
    a8ca:	21 c2                	and    %eax,%edx
    a8cc:	0f b7 05 45 ac 00 00 	movzwl 0xac45(%rip),%eax        # 15518 <g_612+0x8>
    a8d3:	c1 e0 03             	shl    $0x3,%eax
    a8d6:	66 c1 f8 04          	sar    $0x4,%ax
    a8da:	98                   	cwtl   
    a8db:	39 c2                	cmp    %eax,%edx
    a8dd:	75 16                	jne    a8f5 <func_34+0xe08>
    a8df:	0f b6 85 fd fb ff ff 	movzbl -0x403(%rbp),%eax
    a8e6:	84 c0                	test   %al,%al
    a8e8:	75 0b                	jne    a8f5 <func_34+0xe08>
    a8ea:	0f b6 85 f2 fb ff ff 	movzbl -0x40e(%rbp),%eax
    a8f1:	84 c0                	test   %al,%al
    a8f3:	74 07                	je     a8fc <func_34+0xe0f>
    a8f5:	b8 01 00 00 00       	mov    $0x1,%eax
    a8fa:	eb 05                	jmp    a901 <func_34+0xe14>
    a8fc:	b8 00 00 00 00       	mov    $0x0,%eax
    a901:	89 85 1c fc ff ff    	mov    %eax,-0x3e4(%rbp)
    a907:	e9 b5 00 00 00       	jmpq   a9c1 <func_34+0xed4>
    a90c:	8b 05 d6 b1 00 00    	mov    0xb1d6(%rip),%eax        # 15ae8 <g_1062>
    a912:	85 c0                	test   %eax,%eax
    a914:	0f 84 a7 00 00 00    	je     a9c1 <func_34+0xed4>
    a91a:	e9 4b fd ff ff       	jmpq   a66a <func_34+0xb7d>
    a91f:	0f be 85 0c fb ff ff 	movsbl -0x4f4(%rbp),%eax
    a926:	be 03 00 00 00       	mov    $0x3,%esi
    a92b:	89 c7                	mov    %eax,%edi
    a92d:	e8 60 ab ff ff       	callq  5492 <safe_lshift_func_int16_t_s_s>
    a932:	89 c2                	mov    %eax,%edx
    a934:	48 8b 05 6d c5 00 00 	mov    0xc56d(%rip),%rax        # 16ea8 <g_172>
    a93b:	0f bf d2             	movswl %dx,%edx
    a93e:	89 10                	mov    %edx,(%rax)
    a940:	48 8b 95 70 fc ff ff 	mov    -0x390(%rbp),%rdx
    a947:	48 8b 85 68 fb ff ff 	mov    -0x498(%rbp),%rax
    a94e:	48 89 10             	mov    %rdx,(%rax)
    a951:	eb 6e                	jmp    a9c1 <func_34+0xed4>
    a953:	c7 85 38 fb ff ff 45 	movl   $0x3b17fd45,-0x4c8(%rbp)
    a95a:	fd 17 3b 
    a95d:	c7 85 3c fb ff ff 2f 	movl   $0xbab7d2f,-0x4c4(%rbp)
    a964:	7d ab 0b 
    a967:	48 8d 85 40 fd ff ff 	lea    -0x2c0(%rbp),%rax
    a96e:	48 8d 15 4b 6a 00 00 	lea    0x6a4b(%rip),%rdx        # 113c0 <g_589+0x1368>
    a975:	b9 51 00 00 00       	mov    $0x51,%ecx
    a97a:	48 89 c7             	mov    %rax,%rdi
    a97d:	48 89 d6             	mov    %rdx,%rsi
    a980:	f3 48 a5             	rep movsq %ds:(%rsi),%es:(%rdi)
    a983:	c6 85 11 fb ff ff 05 	movb   $0x5,-0x4ef(%rbp)
    a98a:	48 b8 be 68 b1 cc 79 	movabs $0x42c6b079ccb168be,%rax
    a991:	b0 c6 42 
    a994:	48 89 85 90 fb ff ff 	mov    %rax,-0x470(%rbp)
    a99b:	80 ad 11 fb ff ff 01 	subb   $0x1,-0x4ef(%rbp)
    a9a2:	c6 05 e7 d3 00 00 fb 	movb   $0xfb,0xd3e7(%rip)        # 17d90 <g_170>
    a9a9:	90                   	nop
    a9aa:	0f b6 05 df d3 00 00 	movzbl 0xd3df(%rip),%eax        # 17d90 <g_170>
    a9b1:	3c 09                	cmp    $0x9,%al
    a9b3:	74 0c                	je     a9c1 <func_34+0xed4>
    a9b5:	48 8b 85 90 fb ff ff 	mov    -0x470(%rbp),%rax
    a9bc:	e9 49 01 00 00       	jmpq   ab0a <func_34+0x101d>
    a9c1:	48 8b 85 88 fb ff ff 	mov    -0x478(%rbp),%rax
    a9c8:	0f b7 d8             	movzwl %ax,%ebx
    a9cb:	4c 0f be ad 0c fb ff 	movsbq -0x4f4(%rbp),%r13
    a9d2:	ff 
    a9d3:	44 0f be a5 0c fb ff 	movsbl -0x4f4(%rbp),%r12d
    a9da:	ff 
    a9db:	0f be 95 0c fb ff ff 	movsbl -0x4f4(%rbp),%edx
    a9e2:	48 8b 85 40 fc ff ff 	mov    -0x3c0(%rbp),%rax
    a9e9:	89 d6                	mov    %edx,%esi
    a9eb:	48 89 c7             	mov    %rax,%rdi
    a9ee:	e8 3d 01 00 00       	callq  ab30 <func_47>
    a9f3:	48 8b 95 80 fb ff ff 	mov    -0x480(%rbp),%rdx
    a9fa:	48 89 02             	mov    %rax,(%rdx)
    a9fd:	48 8b 85 80 fb ff ff 	mov    -0x480(%rbp),%rax
    aa04:	48 8b 10             	mov    (%rax),%rdx
    aa07:	48 8d 85 08 fb ff ff 	lea    -0x4f8(%rbp),%rax
    aa0e:	48 39 c2             	cmp    %rax,%rdx
    aa11:	0f 95 c0             	setne  %al
    aa14:	0f b6 c0             	movzbl %al,%eax
    aa17:	44 89 e6             	mov    %r12d,%esi
    aa1a:	89 c7                	mov    %eax,%edi
    aa1c:	e8 af b4 ff ff       	callq  5ed0 <safe_sub_func_uint32_t_u_u>
    aa21:	0f be 95 0c fb ff ff 	movsbl -0x4f4(%rbp),%edx
    aa28:	0f be 85 0c fb ff ff 	movsbl -0x4f4(%rbp),%eax
    aa2f:	89 d6                	mov    %edx,%esi
    aa31:	89 c7                	mov    %eax,%edi
    aa33:	e8 c7 ac ff ff       	callq  56ff <safe_div_func_int32_t_s_s>
    aa38:	48 8b 05 71 af 00 00 	mov    0xaf71(%rip),%rax        # 159b0 <g_940+0x10>
    aa3f:	48 c1 e8 24          	shr    $0x24,%rax
    aa43:	25 ff ff 3f 00       	and    $0x3fffff,%eax
    aa48:	89 c0                	mov    %eax,%eax
    aa4a:	48 83 c8 fe          	or     $0xfffffffffffffffe,%rax
    aa4e:	8b 15 e4 b0 00 00    	mov    0xb0e4(%rip),%edx        # 15b38 <g_1119+0x38>
    aa54:	89 d2                	mov    %edx,%edx
    aa56:	48 09 c2             	or     %rax,%rdx
    aa59:	0f b6 05 30 d3 00 00 	movzbl 0xd330(%rip),%eax        # 17d90 <g_170>
    aa60:	0f b6 c0             	movzbl %al,%eax
    aa63:	48 39 c2             	cmp    %rax,%rdx
    aa66:	0f 94 c0             	sete   %al
    aa69:	0f b6 c0             	movzbl %al,%eax
    aa6c:	48 8b 15 55 aa 00 00 	mov    0xaa55(%rip),%rdx        # 154c8 <g_326+0x8>
    aa73:	48 c1 ea 0d          	shr    $0xd,%rdx
    aa77:	81 e2 ff ff ff 07    	and    $0x7ffffff,%edx
    aa7d:	39 d0                	cmp    %edx,%eax
    aa7f:	0f 9c c2             	setl   %dl
    aa82:	48 8b 05 67 c4 00 00 	mov    0xc467(%rip),%rax        # 16ef0 <g_335>
    aa89:	48 8b 00             	mov    (%rax),%rax
    aa8c:	0f b6 d2             	movzbl %dl,%edx
    aa8f:	48 89 10             	mov    %rdx,(%rax)
    aa92:	48 8b 00             	mov    (%rax),%rax
    aa95:	4c 09 e8             	or     %r13,%rax
    aa98:	48 85 c0             	test   %rax,%rax
    aa9b:	74 10                	je     aaad <func_34+0xfc0>
    aa9d:	80 bd 0c fb ff ff 00 	cmpb   $0x0,-0x4f4(%rbp)
    aaa4:	74 07                	je     aaad <func_34+0xfc0>
    aaa6:	b8 01 00 00 00       	mov    $0x1,%eax
    aaab:	eb 05                	jmp    aab2 <func_34+0xfc5>
    aaad:	b8 00 00 00 00       	mov    $0x0,%eax
    aab2:	0f b7 c0             	movzwl %ax,%eax
    aab5:	89 de                	mov    %ebx,%esi
    aab7:	89 c7                	mov    %eax,%edi
    aab9:	e8 7f b2 ff ff       	callq  5d3d <safe_mul_func_uint16_t_u_u>
    aabe:	0f b6 c0             	movzbl %al,%eax
    aac1:	be 02 00 00 00       	mov    $0x2,%esi
    aac6:	89 c7                	mov    %eax,%edi
    aac8:	e8 c0 b1 ff ff       	callq  5c8d <safe_rshift_func_uint8_t_u_s>
    aacd:	0f b6 c0             	movzbl %al,%eax
    aad0:	66 89 05 6f ae 00 00 	mov    %ax,0xae6f(%rip)        # 15946 <g_832+0x6>
    aad7:	0f b7 05 68 ae 00 00 	movzwl 0xae68(%rip),%eax        # 15946 <g_832+0x6>
    aade:	66 85 c0             	test   %ax,%ax
    aae1:	80 bd 0c fb ff ff 00 	cmpb   $0x0,-0x4f4(%rbp)
    aae8:	0f 9e c0             	setle  %al
    aaeb:	0f b6 c0             	movzbl %al,%eax
    aaee:	89 c7                	mov    %eax,%edi
    aaf0:	e8 b1 b3 ff ff       	callq  5ea6 <safe_unary_minus_func_uint32_t_u>
    aaf5:	8b 95 34 fb ff ff    	mov    -0x4cc(%rbp),%edx
    aafb:	31 d0                	xor    %edx,%eax
    aafd:	89 85 34 fb ff ff    	mov    %eax,-0x4cc(%rbp)
    ab03:	0f b6 85 10 fb ff ff 	movzbl -0x4f0(%rbp),%eax
    ab0a:	48 8b 5d c8          	mov    -0x38(%rbp),%rbx
    ab0e:	64 48 33 1c 25 28 00 	xor    %fs:0x28,%rbx
    ab15:	00 00 
    ab17:	74 05                	je     ab1e <func_34+0x1031>
    ab19:	e8 52 a5 ff ff       	callq  5070 <__stack_chk_fail@plt>
    ab1e:	48 81 c4 d8 04 00 00 	add    $0x4d8,%rsp
    ab25:	5b                   	pop    %rbx
    ab26:	41 5c                	pop    %r12
    ab28:	41 5d                	pop    %r13
    ab2a:	41 5e                	pop    %r14
    ab2c:	41 5f                	pop    %r15
    ab2e:	5d                   	pop    %rbp
    ab2f:	c3                   	retq   

000000000000ab30 <func_47>:
    ab30:	f3 0f 1e fa          	endbr64 
    ab34:	55                   	push   %rbp
    ab35:	48 89 e5             	mov    %rsp,%rbp
    ab38:	41 56                	push   %r14
    ab3a:	41 55                	push   %r13
    ab3c:	41 54                	push   %r12
    ab3e:	53                   	push   %rbx
    ab3f:	48 81 ec 00 0f 00 00 	sub    $0xf00,%rsp
    ab46:	48 89 bd e8 f0 ff ff 	mov    %rdi,-0xf18(%rbp)
    ab4d:	89 b5 e4 f0 ff ff    	mov    %esi,-0xf1c(%rbp)
    ab53:	64 48 8b 04 25 28 00 	mov    %fs:0x28,%rax
    ab5a:	00 00 
    ab5c:	48 89 45 d8          	mov    %rax,-0x28(%rbp)
    ab60:	31 c0                	xor    %eax,%eax
    ab62:	48 8d 05 7f a7 00 00 	lea    0xa77f(%rip),%rax        # 152e8 <g_247>
    ab69:	48 89 85 28 f1 ff ff 	mov    %rax,-0xed8(%rbp)
    ab70:	48 8d 85 28 f1 ff ff 	lea    -0xed8(%rbp),%rax
    ab77:	48 89 85 30 f1 ff ff 	mov    %rax,-0xed0(%rbp)
    ab7e:	48 8d 85 30 f1 ff ff 	lea    -0xed0(%rbp),%rax
    ab85:	48 89 85 38 f1 ff ff 	mov    %rax,-0xec8(%rbp)
    ab8c:	48 8d 85 38 f1 ff ff 	lea    -0xec8(%rbp),%rax
    ab93:	48 89 85 40 f1 ff ff 	mov    %rax,-0xec0(%rbp)
    ab9a:	48 8d 85 40 f1 ff ff 	lea    -0xec0(%rbp),%rax
    aba1:	48 89 85 60 f1 ff ff 	mov    %rax,-0xea0(%rbp)
    aba8:	66 c7 85 f6 f0 ff ff 	movw   $0x8,-0xf0a(%rbp)
    abaf:	08 00 
    abb1:	c7 85 00 f1 ff ff 22 	movl   $0x1f9fae22,-0xf00(%rbp)
    abb8:	ae 9f 1f 
    abbb:	48 8d 05 16 a9 00 00 	lea    0xa916(%rip),%rax        # 154d8 <g_357>
    abc2:	48 89 85 68 f1 ff ff 	mov    %rax,-0xe98(%rbp)
    abc9:	c6 85 f5 f0 ff ff 04 	movb   $0x4,-0xf0b(%rbp)
    abd0:	48 8d 05 29 a9 00 00 	lea    0xa929(%rip),%rax        # 15500 <g_543>
    abd7:	48 89 85 70 f1 ff ff 	mov    %rax,-0xe90(%rbp)
    abde:	48 8d 05 df a9 00 00 	lea    0xa9df(%rip),%rax        # 155c4 <g_638+0x84>
    abe5:	48 89 85 f0 f2 ff ff 	mov    %rax,-0xd10(%rbp)
    abec:	48 8d 05 49 a5 00 00 	lea    0xa549(%rip),%rax        # 1513c <g_28+0x1c>
    abf3:	48 89 85 f8 f2 ff ff 	mov    %rax,-0xd08(%rbp)
    abfa:	48 8d 85 00 f1 ff ff 	lea    -0xf00(%rbp),%rax
    ac01:	48 89 85 00 f3 ff ff 	mov    %rax,-0xd00(%rbp)
    ac08:	48 8d 85 00 f1 ff ff 	lea    -0xf00(%rbp),%rax
    ac0f:	48 89 85 08 f3 ff ff 	mov    %rax,-0xcf8(%rbp)
    ac16:	48 8d 05 1f a5 00 00 	lea    0xa51f(%rip),%rax        # 1513c <g_28+0x1c>
    ac1d:	48 89 85 10 f3 ff ff 	mov    %rax,-0xcf0(%rbp)
    ac24:	48 8d 05 99 a9 00 00 	lea    0xa999(%rip),%rax        # 155c4 <g_638+0x84>
    ac2b:	48 89 85 18 f3 ff ff 	mov    %rax,-0xce8(%rbp)
    ac32:	48 8d 05 03 a5 00 00 	lea    0xa503(%rip),%rax        # 1513c <g_28+0x1c>
    ac39:	48 89 85 20 f3 ff ff 	mov    %rax,-0xce0(%rbp)
    ac40:	48 c7 85 28 f3 ff ff 	movq   $0x0,-0xcd8(%rbp)
    ac47:	00 00 00 00 
    ac4b:	48 8d 05 72 a9 00 00 	lea    0xa972(%rip),%rax        # 155c4 <g_638+0x84>
    ac52:	48 89 85 30 f3 ff ff 	mov    %rax,-0xcd0(%rbp)
    ac59:	48 8d 05 64 a9 00 00 	lea    0xa964(%rip),%rax        # 155c4 <g_638+0x84>
    ac60:	48 89 85 38 f3 ff ff 	mov    %rax,-0xcc8(%rbp)
    ac67:	48 c7 85 40 f3 ff ff 	movq   $0x0,-0xcc0(%rbp)
    ac6e:	00 00 00 00 
    ac72:	48 8d 05 c3 a4 00 00 	lea    0xa4c3(%rip),%rax        # 1513c <g_28+0x1c>
    ac79:	48 89 85 48 f3 ff ff 	mov    %rax,-0xcb8(%rbp)
    ac80:	48 c7 85 50 f3 ff ff 	movq   $0x0,-0xcb0(%rbp)
    ac87:	00 00 00 00 
    ac8b:	48 8d 05 32 a9 00 00 	lea    0xa932(%rip),%rax        # 155c4 <g_638+0x84>
    ac92:	48 89 85 58 f3 ff ff 	mov    %rax,-0xca8(%rbp)
    ac99:	48 8d 05 8c a9 00 00 	lea    0xa98c(%rip),%rax        # 1562c <g_638+0xec>
    aca0:	48 89 85 60 f3 ff ff 	mov    %rax,-0xca0(%rbp)
    aca7:	48 8d 05 7e a9 00 00 	lea    0xa97e(%rip),%rax        # 1562c <g_638+0xec>
    acae:	48 89 85 68 f3 ff ff 	mov    %rax,-0xc98(%rbp)
    acb5:	48 8d 05 08 a9 00 00 	lea    0xa908(%rip),%rax        # 155c4 <g_638+0x84>
    acbc:	48 89 85 70 f3 ff ff 	mov    %rax,-0xc90(%rbp)
    acc3:	48 8d 85 00 f1 ff ff 	lea    -0xf00(%rbp),%rax
    acca:	48 89 85 78 f3 ff ff 	mov    %rax,-0xc88(%rbp)
    acd1:	48 8d 05 ec a8 00 00 	lea    0xa8ec(%rip),%rax        # 155c4 <g_638+0x84>
    acd8:	48 89 85 80 f3 ff ff 	mov    %rax,-0xc80(%rbp)
    acdf:	48 8d 05 46 a9 00 00 	lea    0xa946(%rip),%rax        # 1562c <g_638+0xec>
    ace6:	48 89 85 88 f3 ff ff 	mov    %rax,-0xc78(%rbp)
    aced:	48 8d 05 38 a9 00 00 	lea    0xa938(%rip),%rax        # 1562c <g_638+0xec>
    acf4:	48 89 85 90 f3 ff ff 	mov    %rax,-0xc70(%rbp)
    acfb:	48 8d 05 2a a9 00 00 	lea    0xa92a(%rip),%rax        # 1562c <g_638+0xec>
    ad02:	48 89 85 98 f3 ff ff 	mov    %rax,-0xc68(%rbp)
    ad09:	48 8d 05 b4 a8 00 00 	lea    0xa8b4(%rip),%rax        # 155c4 <g_638+0x84>
    ad10:	48 89 85 a0 f3 ff ff 	mov    %rax,-0xc60(%rbp)
    ad17:	48 8d 85 00 f1 ff ff 	lea    -0xf00(%rbp),%rax
    ad1e:	48 89 85 a8 f3 ff ff 	mov    %rax,-0xc58(%rbp)
    ad25:	48 8d 05 98 a8 00 00 	lea    0xa898(%rip),%rax        # 155c4 <g_638+0x84>
    ad2c:	48 89 85 b0 f3 ff ff 	mov    %rax,-0xc50(%rbp)
    ad33:	48 8d 05 f2 a8 00 00 	lea    0xa8f2(%rip),%rax        # 1562c <g_638+0xec>
    ad3a:	48 89 85 b8 f3 ff ff 	mov    %rax,-0xc48(%rbp)
    ad41:	48 8d 05 e4 a8 00 00 	lea    0xa8e4(%rip),%rax        # 1562c <g_638+0xec>
    ad48:	48 89 85 c0 f3 ff ff 	mov    %rax,-0xc40(%rbp)
    ad4f:	48 8d 05 6e a8 00 00 	lea    0xa86e(%rip),%rax        # 155c4 <g_638+0x84>
    ad56:	48 89 85 c8 f3 ff ff 	mov    %rax,-0xc38(%rbp)
    ad5d:	48 c7 85 78 f1 ff ff 	movq   $0x2,-0xe88(%rbp)
    ad64:	02 00 00 00 
    ad68:	66 c7 85 f8 f0 ff ff 	movw   $0x1dac,-0xf08(%rbp)
    ad6f:	ac 1d 
    ad71:	c7 85 20 f2 ff ff 04 	movl   $0x4,-0xde0(%rbp)
    ad78:	00 00 00 
    ad7b:	c7 85 24 f2 ff ff 04 	movl   $0x4,-0xddc(%rbp)
    ad82:	00 00 00 
    ad85:	c7 85 28 f2 ff ff 04 	movl   $0x4,-0xdd8(%rbp)
    ad8c:	00 00 00 
    ad8f:	c7 85 2c f2 ff ff 04 	movl   $0x4,-0xdd4(%rbp)
    ad96:	00 00 00 
    ad99:	c7 85 04 f1 ff ff 00 	movl   $0x0,-0xefc(%rbp)
    ada0:	00 00 00 
    ada3:	eb 42                	jmp    ade7 <func_47+0x2b7>
    ada5:	c7 85 08 f1 ff ff 00 	movl   $0x0,-0xef8(%rbp)
    adac:	00 00 00 
    adaf:	eb 26                	jmp    add7 <func_47+0x2a7>
    adb1:	8b 85 08 f1 ff ff    	mov    -0xef8(%rbp),%eax
    adb7:	48 63 d0             	movslq %eax,%rdx
    adba:	8b 85 04 f1 ff ff    	mov    -0xefc(%rbp),%eax
    adc0:	48 98                	cltq   
    adc2:	48 01 d0             	add    %rdx,%rax
    adc5:	c7 84 85 50 f2 ff ff 	movl   $0xfffffffc,-0xdb0(%rbp,%rax,4)
    adcc:	fc ff ff ff 
    add0:	83 85 08 f1 ff ff 01 	addl   $0x1,-0xef8(%rbp)
    add7:	83 bd 08 f1 ff ff 00 	cmpl   $0x0,-0xef8(%rbp)
    adde:	7e d1                	jle    adb1 <func_47+0x281>
    ade0:	83 85 04 f1 ff ff 01 	addl   $0x1,-0xefc(%rbp)
    ade7:	83 bd 04 f1 ff ff 09 	cmpl   $0x9,-0xefc(%rbp)
    adee:	7e b5                	jle    ada5 <func_47+0x275>
    adf0:	c7 85 e4 f0 ff ff 05 	movl   $0x5,-0xf1c(%rbp)
    adf7:	00 00 00 
    adfa:	e9 85 15 00 00       	jmpq   c384 <func_47+0x1854>
    adff:	48 8d 05 9a a3 00 00 	lea    0xa39a(%rip),%rax        # 151a0 <g_51>
    ae06:	48 89 85 80 f1 ff ff 	mov    %rax,-0xe80(%rbp)
    ae0d:	48 8d 05 ac a4 00 00 	lea    0xa4ac(%rip),%rax        # 152c0 <g_147>
    ae14:	48 89 85 88 f1 ff ff 	mov    %rax,-0xe78(%rbp)
    ae1b:	48 8d 85 30 f1 ff ff 	lea    -0xed0(%rbp),%rax
    ae22:	48 89 85 90 f1 ff ff 	mov    %rax,-0xe70(%rbp)
    ae29:	66 c7 85 fa f0 ff ff 	movw   $0x4699,-0xf06(%rbp)
    ae30:	99 46 
    ae32:	48 8b 85 80 f1 ff ff 	mov    -0xe80(%rbp),%rax
    ae39:	8b 00                	mov    (%rax),%eax
    ae3b:	83 c8 f7             	or     $0xfffffff7,%eax
    ae3e:	89 c2                	mov    %eax,%edx
    ae40:	48 8b 85 80 f1 ff ff 	mov    -0xe80(%rbp),%rax
    ae47:	89 10                	mov    %edx,(%rax)
    ae49:	c7 05 4d a3 00 00 01 	movl   $0x1,0xa34d(%rip)        # 151a0 <g_51>
    ae50:	00 00 00 
    ae53:	e9 16 15 00 00       	jmpq   c36e <func_47+0x183e>
    ae58:	48 8d 05 45 a3 00 00 	lea    0xa345(%rip),%rax        # 151a4 <g_55>
    ae5f:	48 89 85 98 f1 ff ff 	mov    %rax,-0xe68(%rbp)
    ae66:	48 8d 05 27 a3 00 00 	lea    0xa327(%rip),%rax        # 15194 <g_28+0x74>
    ae6d:	48 89 85 a0 f1 ff ff 	mov    %rax,-0xe60(%rbp)
    ae74:	48 8d 85 50 f2 ff ff 	lea    -0xdb0(%rbp),%rax
    ae7b:	48 83 c0 04          	add    $0x4,%rax
    ae7f:	48 89 85 a8 f1 ff ff 	mov    %rax,-0xe58(%rbp)
    ae86:	48 c7 85 b0 f1 ff ff 	movq   $0x0,-0xe50(%rbp)
    ae8d:	00 00 00 00 
    ae91:	48 8d 05 0c a9 00 00 	lea    0xa90c(%rip),%rax        # 157a4 <g_638+0x264>
    ae98:	48 89 85 b8 f1 ff ff 	mov    %rax,-0xe48(%rbp)
    ae9f:	48 8d 05 7a c0 00 00 	lea    0xc07a(%rip),%rax        # 16f20 <g_366>
    aea6:	48 89 85 c0 f1 ff ff 	mov    %rax,-0xe40(%rbp)
    aead:	c7 85 1c f1 ff ff fe 	movl   $0x3625f9fe,-0xee4(%rbp)
    aeb4:	f9 25 36 
    aeb7:	66 c7 85 fc f0 ff ff 	movw   $0xdf76,-0xf04(%rbp)
    aebe:	76 df 
    aec0:	48 8b 85 98 f1 ff ff 	mov    -0xe68(%rbp),%rax
    aec7:	66 c7 00 31 ad       	movw   $0xad31,(%rax)
    aecc:	8b 05 ce a2 00 00    	mov    0xa2ce(%rip),%eax        # 151a0 <g_51>
    aed2:	8d 50 03             	lea    0x3(%rax),%edx
    aed5:	8b 85 e4 f0 ff ff    	mov    -0xf1c(%rbp),%eax
    aedb:	48 63 c8             	movslq %eax,%rcx
    aede:	48 63 d2             	movslq %edx,%rdx
    aee1:	48 89 d0             	mov    %rdx,%rax
    aee4:	48 01 c0             	add    %rax,%rax
    aee7:	48 01 d0             	add    %rdx,%rax
    aeea:	48 01 c0             	add    %rax,%rax
    aeed:	48 01 c8             	add    %rcx,%rax
    aef0:	48 8d 14 85 00 00 00 	lea    0x0(,%rax,4),%rdx
    aef7:	00 
    aef8:	48 8d 05 41 a1 00 00 	lea    0xa141(%rip),%rax        # 15040 <g_3>
    aeff:	8b 04 02             	mov    (%rdx,%rax,1),%eax
    af02:	85 c0                	test   %eax,%eax
    af04:	74 0c                	je     af12 <func_47+0x3e2>
    af06:	48 8b 85 a0 f1 ff ff 	mov    -0xe60(%rbp),%rax
    af0d:	e9 35 16 00 00       	jmpq   c547 <func_47+0x1a17>
    af12:	48 8d 05 ab a6 00 00 	lea    0xa6ab(%rip),%rax        # 155c4 <g_638+0x84>
    af19:	48 89 85 c8 f1 ff ff 	mov    %rax,-0xe38(%rbp)
    af20:	c7 85 30 f2 ff ff ff 	movl   $0xffffffff,-0xdd0(%rbp)
    af27:	ff ff ff 
    af2a:	c7 85 34 f2 ff ff 6a 	movl   $0x62b1ae6a,-0xdcc(%rbp)
    af31:	ae b1 62 
    af34:	c7 85 38 f2 ff ff 6a 	movl   $0x62b1ae6a,-0xdc8(%rbp)
    af3b:	ae b1 62 
    af3e:	c7 85 3c f2 ff ff ff 	movl   $0xffffffff,-0xdc4(%rbp)
    af45:	ff ff ff 
    af48:	c7 85 40 f2 ff ff 6a 	movl   $0x62b1ae6a,-0xdc0(%rbp)
    af4f:	ae b1 62 
    af52:	c7 85 44 f2 ff ff ff 	movl   $0xffffffff,-0xdbc(%rbp)
    af59:	ff ff ff 
    af5c:	c7 85 48 f2 ff ff 6a 	movl   $0x62b1ae6a,-0xdb8(%rbp)
    af63:	ae b1 62 
    af66:	c7 85 4c f2 ff ff 6a 	movl   $0x62b1ae6a,-0xdb4(%rbp)
    af6d:	ae b1 62 
    af70:	66 c7 85 fe f0 ff ff 	movw   $0xffff,-0xf02(%rbp)
    af77:	ff ff 
    af79:	48 8d 85 d0 f3 ff ff 	lea    -0xc30(%rbp),%rax
    af80:	48 8d 15 f9 b6 00 00 	lea    0xb6f9(%rip),%rdx        # 16680 <g_1532+0xaf0>
    af87:	b9 a0 00 00 00       	mov    $0xa0,%ecx
    af8c:	48 89 c7             	mov    %rax,%rdi
    af8f:	48 89 d6             	mov    %rdx,%rsi
    af92:	f3 48 a5             	rep movsq %ds:(%rsi),%es:(%rdi)
    af95:	48 8d 05 68 a5 00 00 	lea    0xa568(%rip),%rax        # 15504 <g_593>
    af9c:	48 89 85 48 f1 ff ff 	mov    %rax,-0xeb8(%rbp)
    afa3:	48 8d 85 48 f1 ff ff 	lea    -0xeb8(%rbp),%rax
    afaa:	48 89 85 50 f1 ff ff 	mov    %rax,-0xeb0(%rbp)
    afb1:	48 8d 85 50 f1 ff ff 	lea    -0xeb0(%rbp),%rax
    afb8:	48 89 85 d0 f1 ff ff 	mov    %rax,-0xe30(%rbp)
    afbf:	48 8d 05 5e a1 00 00 	lea    0xa15e(%rip),%rax        # 15124 <g_28+0x4>
    afc6:	48 89 05 d3 be 00 00 	mov    %rax,0xbed3(%rip)        # 16ea0 <g_50>
    afcd:	8b 85 e4 f0 ff ff    	mov    -0xf1c(%rbp),%eax
    afd3:	0f be c0             	movsbl %al,%eax
    afd6:	89 c7                	mov    %eax,%edi
    afd8:	e8 8e 15 00 00       	callq  c56b <func_57>
    afdd:	48 8b 95 c8 f1 ff ff 	mov    -0xe38(%rbp),%rdx
    afe4:	8b 12                	mov    (%rdx),%edx
    afe6:	31 c2                	xor    %eax,%edx
    afe8:	48 8b 85 c8 f1 ff ff 	mov    -0xe38(%rbp),%rax
    afef:	89 10                	mov    %edx,(%rax)
    aff1:	c7 05 cd a2 00 00 00 	movl   $0x0,0xa2cd(%rip)        # 152c8 <g_149>
    aff8:	00 00 00 
    affb:	e9 d5 02 00 00       	jmpq   b2d5 <func_47+0x7a5>
    b000:	c7 85 0c f1 ff ff 4f 	movl   $0x8c32774f,-0xef4(%rbp)
    b007:	77 32 8c 
    b00a:	c6 05 57 a2 00 00 ff 	movb   $0xff,0xa257(%rip)        # 15268 <g_111>
    b011:	eb 24                	jmp    b037 <func_47+0x507>
    b013:	48 8b 15 1e c1 00 00 	mov    0xc11e(%rip),%rdx        # 17138 <g_652>
    b01a:	48 8b 05 1f c1 00 00 	mov    0xc11f(%rip),%rax        # 17140 <g_881>
    b021:	48 8b 12             	mov    (%rdx),%rdx
    b024:	48 89 10             	mov    %rdx,(%rax)
    b027:	0f b6 05 3a a2 00 00 	movzbl 0xa23a(%rip),%eax        # 15268 <g_111>
    b02e:	83 c0 01             	add    $0x1,%eax
    b031:	88 05 31 a2 00 00    	mov    %al,0xa231(%rip)        # 15268 <g_111>
    b037:	0f b6 05 2a a2 00 00 	movzbl 0xa22a(%rip),%eax        # 15268 <g_111>
    b03e:	3c 37                	cmp    $0x37,%al
    b040:	77 d1                	ja     b013 <func_47+0x4e3>
    b042:	48 8b 05 67 be 00 00 	mov    0xbe67(%rip),%rax        # 16eb0 <g_171>
    b049:	48 8b 00             	mov    (%rax),%rax
    b04c:	8b 10                	mov    (%rax),%edx
    b04e:	48 8b 85 c8 f1 ff ff 	mov    -0xe38(%rbp),%rax
    b055:	8b 00                	mov    (%rax),%eax
    b057:	31 c2                	xor    %eax,%edx
    b059:	48 8b 85 c8 f1 ff ff 	mov    -0xe38(%rbp),%rax
    b060:	89 10                	mov    %edx,(%rax)
    b062:	c7 05 61 a4 00 00 00 	movl   $0x0,0xa461(%rip)        # 154cd <g_326+0xd>
    b069:	00 00 00 
    b06c:	e9 a5 01 00 00       	jmpq   b216 <func_47+0x6e6>
    b071:	48 c7 85 f0 f1 ff ff 	movq   $0x0,-0xe10(%rbp)
    b078:	00 00 00 00 
    b07c:	48 c7 85 f8 f1 ff ff 	movq   $0x0,-0xe08(%rbp)
    b083:	00 00 00 00 
    b087:	48 8d 05 b8 a8 00 00 	lea    0xa8b8(%rip),%rax        # 15946 <g_832+0x6>
    b08e:	48 89 85 00 f2 ff ff 	mov    %rax,-0xe00(%rbp)
    b095:	48 8d 85 b0 f2 ff ff 	lea    -0xd50(%rbp),%rax
    b09c:	48 89 85 08 f2 ff ff 	mov    %rax,-0xdf8(%rbp)
    b0a3:	c7 85 58 f1 ff ff 8e 	movl   $0x6f3dc48e,-0xea8(%rbp)
    b0aa:	c4 3d 6f 
    b0ad:	c7 85 24 f1 ff ff 9a 	movl   $0x1a4369a,-0xedc(%rbp)
    b0b4:	36 a4 01 
    b0b7:	48 8d 85 58 f1 ff ff 	lea    -0xea8(%rbp),%rax
    b0be:	48 89 85 10 f2 ff ff 	mov    %rax,-0xdf0(%rbp)
    b0c5:	48 8d 05 f8 a4 00 00 	lea    0xa4f8(%rip),%rax        # 155c4 <g_638+0x84>
    b0cc:	48 89 85 18 f2 ff ff 	mov    %rax,-0xde8(%rbp)
    b0d3:	c7 85 10 f1 ff ff 00 	movl   $0x0,-0xef0(%rbp)
    b0da:	00 00 00 
    b0dd:	eb 1e                	jmp    b0fd <func_47+0x5cd>
    b0df:	8b 85 10 f1 ff ff    	mov    -0xef0(%rbp),%eax
    b0e5:	48 98                	cltq   
    b0e7:	48 8d 15 d2 a1 00 00 	lea    0xa1d2(%rip),%rdx        # 152c0 <g_147>
    b0ee:	48 89 94 c5 b0 f2 ff 	mov    %rdx,-0xd50(%rbp,%rax,8)
    b0f5:	ff 
    b0f6:	83 85 10 f1 ff ff 01 	addl   $0x1,-0xef0(%rbp)
    b0fd:	83 bd 10 f1 ff ff 00 	cmpl   $0x0,-0xef0(%rbp)
    b104:	7e d9                	jle    b0df <func_47+0x5af>
    b106:	c7 85 10 f1 ff ff 00 	movl   $0x0,-0xef0(%rbp)
    b10d:	00 00 00 
    b110:	eb 4a                	jmp    b15c <func_47+0x62c>
    b112:	c7 85 14 f1 ff ff 00 	movl   $0x0,-0xeec(%rbp)
    b119:	00 00 00 
    b11c:	eb 2e                	jmp    b14c <func_47+0x61c>
    b11e:	8b 85 14 f1 ff ff    	mov    -0xeec(%rbp),%eax
    b124:	48 63 d0             	movslq %eax,%rdx
    b127:	8b 85 10 f1 ff ff    	mov    -0xef0(%rbp),%eax
    b12d:	48 98                	cltq   
    b12f:	48 01 d0             	add    %rdx,%rax
    b132:	48 8d 95 50 f2 ff ff 	lea    -0xdb0(%rbp),%rdx
    b139:	48 83 c2 04          	add    $0x4,%rdx
    b13d:	48 89 94 c5 d0 f8 ff 	mov    %rdx,-0x730(%rbp,%rax,8)
    b144:	ff 
    b145:	83 85 14 f1 ff ff 01 	addl   $0x1,-0xeec(%rbp)
    b14c:	83 bd 14 f1 ff ff 00 	cmpl   $0x0,-0xeec(%rbp)
    b153:	7e c9                	jle    b11e <func_47+0x5ee>
    b155:	83 85 10 f1 ff ff 01 	addl   $0x1,-0xef0(%rbp)
    b15c:	83 bd 10 f1 ff ff 00 	cmpl   $0x0,-0xef0(%rbp)
    b163:	7e ad                	jle    b112 <func_47+0x5e2>
    b165:	48 8b 85 00 f2 ff ff 	mov    -0xe00(%rbp),%rax
    b16c:	66 c7 00 f6 ff       	movw   $0xfff6,(%rax)
    b171:	8b 85 e4 f0 ff ff    	mov    -0xf1c(%rbp),%eax
    b177:	25 f6 ff 00 00       	and    $0xfff6,%eax
    b17c:	89 c2                	mov    %eax,%edx
    b17e:	8b 85 e4 f0 ff ff    	mov    -0xf1c(%rbp),%eax
    b184:	98                   	cwtl   
    b185:	89 d6                	mov    %edx,%esi
    b187:	89 c7                	mov    %eax,%edi
    b189:	e8 9c a3 ff ff       	callq  552a <safe_rshift_func_int16_t_s_s>
    b18e:	48 8b 05 5b bd 00 00 	mov    0xbd5b(%rip),%rax        # 16ef0 <g_335>
    b195:	48 8b 00             	mov    (%rax),%rax
    b198:	48 85 c0             	test   %rax,%rax
    b19b:	0f 95 c0             	setne  %al
    b19e:	0f b6 c0             	movzbl %al,%eax
    b1a1:	31 85 0c f1 ff ff    	xor    %eax,-0xef4(%rbp)
    b1a7:	48 8b 05 72 bd 00 00 	mov    0xbd72(%rip),%rax        # 16f20 <g_366>
    b1ae:	48 8b 00             	mov    (%rax),%rax
    b1b1:	8b 95 0c f1 ff ff    	mov    -0xef4(%rbp),%edx
    b1b7:	88 10                	mov    %dl,(%rax)
    b1b9:	48 8b 85 08 f2 ff ff 	mov    -0xdf8(%rbp),%rax
    b1c0:	48 c7 00 00 00 00 00 	movq   $0x0,(%rax)
    b1c7:	be 0c 00 00 00       	mov    $0xc,%esi
    b1cc:	bf fe ff ff ff       	mov    $0xfffffffe,%edi
    b1d1:	e8 bc a2 ff ff       	callq  5492 <safe_lshift_func_int16_t_s_s>
    b1d6:	48 8b 05 83 a7 00 00 	mov    0xa783(%rip),%rax        # 15960 <g_890>
    b1dd:	48 8b 85 c8 f1 ff ff 	mov    -0xe38(%rbp),%rax
    b1e4:	c7 00 00 00 00 00    	movl   $0x0,(%rax)
    b1ea:	0f b7 85 f6 f0 ff ff 	movzwl -0xf0a(%rbp),%eax
    b1f1:	83 e8 01             	sub    $0x1,%eax
    b1f4:	66 89 85 f6 f0 ff ff 	mov    %ax,-0xf0a(%rbp)
    b1fb:	8b 05 cc a2 00 00    	mov    0xa2cc(%rip),%eax        # 154cd <g_326+0xd>
    b201:	89 c0                	mov    %eax,%eax
    b203:	be 07 00 00 00       	mov    $0x7,%esi
    b208:	48 89 c7             	mov    %rax,%rdi
    b20b:	e8 31 a6 ff ff       	callq  5841 <safe_add_func_int64_t_s_s>
    b210:	89 05 b7 a2 00 00    	mov    %eax,0xa2b7(%rip)        # 154cd <g_326+0xd>
    b216:	8b 05 b1 a2 00 00    	mov    0xa2b1(%rip),%eax        # 154cd <g_326+0xd>
    b21c:	83 f8 35             	cmp    $0x35,%eax
    b21f:	0f 84 4c fe ff ff    	je     b071 <func_47+0x541>
    b225:	8b 85 e4 f0 ff ff    	mov    -0xf1c(%rbp),%eax
    b22b:	48 63 d8             	movslq %eax,%rbx
    b22e:	44 8b a5 e4 f0 ff ff 	mov    -0xf1c(%rbp),%r12d
    b235:	48 8b 05 e4 bc 00 00 	mov    0xbce4(%rip),%rax        # 16f20 <g_366>
    b23c:	48 8b 00             	mov    (%rax),%rax
    b23f:	0f b6 00             	movzbl (%rax),%eax
    b242:	44 0f b6 e8          	movzbl %al,%r13d
    b246:	48 8b 05 ab bc 00 00 	mov    0xbcab(%rip),%rax        # 16ef8 <g_334>
    b24d:	48 8b 05 74 bc 00 00 	mov    0xbc74(%rip),%rax        # 16ec8 <g_195>
    b254:	8b 00                	mov    (%rax),%eax
    b256:	41 89 c6             	mov    %eax,%r14d
    b259:	8b 85 e4 f0 ff ff    	mov    -0xf1c(%rbp),%eax
    b25f:	0f b6 c0             	movzbl %al,%eax
    b262:	be 01 00 00 00       	mov    $0x1,%esi
    b267:	89 c7                	mov    %eax,%edi
    b269:	e8 ec a8 ff ff       	callq  5b5a <safe_add_func_uint8_t_u_u>
    b26e:	0f b6 c0             	movzbl %al,%eax
    b271:	44 89 f6             	mov    %r14d,%esi
    b274:	89 c7                	mov    %eax,%edi
    b276:	e8 51 a4 ff ff       	callq  56cc <safe_mod_func_int32_t_s_s>
    b27b:	8b 85 e4 f0 ff ff    	mov    -0xf1c(%rbp),%eax
    b281:	0f be c0             	movsbl %al,%eax
    b284:	44 89 ee             	mov    %r13d,%esi
    b287:	89 c7                	mov    %eax,%edi
    b289:	e8 de a0 ff ff       	callq  536c <safe_rshift_func_int8_t_s_u>
    b28e:	0f be c0             	movsbl %al,%eax
    b291:	44 89 e6             	mov    %r12d,%esi
    b294:	89 c7                	mov    %eax,%edi
    b296:	e8 d1 a0 ff ff       	callq  536c <safe_rshift_func_int8_t_s_u>
    b29b:	48 89 de             	mov    %rbx,%rsi
    b29e:	bf 01 00 00 00       	mov    $0x1,%edi
    b2a3:	e8 0c a7 ff ff       	callq  59b4 <safe_mod_func_int64_t_s_s>
    b2a8:	48 8b 95 80 f1 ff ff 	mov    -0xe80(%rbp),%rdx
    b2af:	8b 12                	mov    (%rdx),%edx
    b2b1:	48 63 d2             	movslq %edx,%rdx
    b2b4:	48 39 d0             	cmp    %rdx,%rax
    b2b7:	0f 95 c2             	setne  %dl
    b2ba:	48 8b 05 e7 bb 00 00 	mov    0xbbe7(%rip),%rax        # 16ea8 <g_172>
    b2c1:	0f b6 d2             	movzbl %dl,%edx
    b2c4:	89 10                	mov    %edx,(%rax)
    b2c6:	8b 05 fc 9f 00 00    	mov    0x9ffc(%rip),%eax        # 152c8 <g_149>
    b2cc:	83 c0 01             	add    $0x1,%eax
    b2cf:	89 05 f3 9f 00 00    	mov    %eax,0x9ff3(%rip)        # 152c8 <g_149>
    b2d5:	8b 05 ed 9f 00 00    	mov    0x9fed(%rip),%eax        # 152c8 <g_149>
    b2db:	83 f8 3c             	cmp    $0x3c,%eax
    b2de:	0f 87 1c fd ff ff    	ja     b000 <func_47+0x4d0>
    b2e4:	8b 85 54 f2 ff ff    	mov    -0xdac(%rbp),%eax
    b2ea:	0f be c0             	movsbl %al,%eax
    b2ed:	be 01 00 00 00       	mov    $0x1,%esi
    b2f2:	89 c7                	mov    %eax,%edi
    b2f4:	e8 19 9f ff ff       	callq  5212 <safe_mul_func_int8_t_s_s>
    b2f9:	0f be c0             	movsbl %al,%eax
    b2fc:	39 85 e4 f0 ff ff    	cmp    %eax,-0xf1c(%rbp)
    b302:	0f 9f c0             	setg   %al
    b305:	0f b6 d0             	movzbl %al,%edx
    b308:	48 8b 85 80 f1 ff ff 	mov    -0xe80(%rbp),%rax
    b30f:	8b 00                	mov    (%rax),%eax
    b311:	39 c2                	cmp    %eax,%edx
    b313:	74 2f                	je     b344 <func_47+0x814>
    b315:	48 8b 05 8c bb 00 00 	mov    0xbb8c(%rip),%rax        # 16ea8 <g_172>
    b31c:	8b 08                	mov    (%rax),%ecx
    b31e:	48 8b 85 80 f1 ff ff 	mov    -0xe80(%rbp),%rax
    b325:	8b 10                	mov    (%rax),%edx
    b327:	48 8b 05 7a bb 00 00 	mov    0xbb7a(%rip),%rax        # 16ea8 <g_172>
    b32e:	31 ca                	xor    %ecx,%edx
    b330:	89 10                	mov    %edx,(%rax)
    b332:	48 8b 05 6f bb 00 00 	mov    0xbb6f(%rip),%rax        # 16ea8 <g_172>
    b339:	c7 00 57 69 40 d0    	movl   $0xd0406957,(%rax)
    b33f:	e9 20 0e 00 00       	jmpq   c164 <func_47+0x1634>
    b344:	48 b8 f8 a2 88 50 f0 	movabs $0x380571f05088a2f8,%rax
    b34b:	71 05 38 
    b34e:	48 89 85 b0 f2 ff ff 	mov    %rax,-0xd50(%rbp)
    b355:	48 89 85 b8 f2 ff ff 	mov    %rax,-0xd48(%rbp)
    b35c:	48 89 85 c0 f2 ff ff 	mov    %rax,-0xd40(%rbp)
    b363:	48 89 85 c8 f2 ff ff 	mov    %rax,-0xd38(%rbp)
    b36a:	48 89 85 d0 f2 ff ff 	mov    %rax,-0xd30(%rbp)
    b371:	48 89 85 d8 f2 ff ff 	mov    %rax,-0xd28(%rbp)
    b378:	48 89 85 e0 f2 ff ff 	mov    %rax,-0xd20(%rbp)
    b37f:	48 89 85 e8 f2 ff ff 	mov    %rax,-0xd18(%rbp)
    b386:	48 8d 05 93 bb 00 00 	lea    0xbb93(%rip),%rax        # 16f20 <g_366>
    b38d:	48 89 85 d8 f1 ff ff 	mov    %rax,-0xe28(%rbp)
    b394:	48 8d 05 1a a7 00 00 	lea    0xa71a(%rip),%rax        # 15ab5 <g_961+0xb5>
    b39b:	48 89 85 e0 f1 ff ff 	mov    %rax,-0xe20(%rbp)
    b3a2:	c7 85 20 f1 ff ff f9 	movl   $0x3c5464f9,-0xee0(%rbp)
    b3a9:	64 54 3c 
    b3ac:	48 8b 85 b8 f2 ff ff 	mov    -0xd48(%rbp),%rax
    b3b3:	48 85 c0             	test   %rax,%rax
    b3b6:	74 24                	je     b3dc <func_47+0x8ac>
    b3b8:	48 b8 bf fb 63 47 b1 	movabs $0xd61c6db14763fbbf,%rax
    b3bf:	6d 1c d6 
    b3c2:	48 89 85 e8 f1 ff ff 	mov    %rax,-0xe18(%rbp)
    b3c9:	48 83 bd e8 f1 ff ff 	cmpq   $0x0,-0xe18(%rbp)
    b3d0:	00 
    b3d1:	0f 84 8d 0d 00 00    	je     c164 <func_47+0x1634>
    b3d7:	e9 a1 0f 00 00       	jmpq   c37d <func_47+0x184d>
    b3dc:	48 8d 05 3d bb 00 00 	lea    0xbb3d(%rip),%rax        # 16f20 <g_366>
    b3e3:	48 89 85 58 f1 ff ff 	mov    %rax,-0xea8(%rbp)
    b3ea:	48 8d 85 00 f1 ff ff 	lea    -0xf00(%rbp),%rax
    b3f1:	48 89 85 d0 f8 ff ff 	mov    %rax,-0x730(%rbp)
    b3f8:	48 8d 85 00 f1 ff ff 	lea    -0xf00(%rbp),%rax
    b3ff:	48 89 85 d8 f8 ff ff 	mov    %rax,-0x728(%rbp)
    b406:	48 8d 85 50 f2 ff ff 	lea    -0xdb0(%rbp),%rax
    b40d:	48 83 c0 14          	add    $0x14,%rax
    b411:	48 89 85 e0 f8 ff ff 	mov    %rax,-0x720(%rbp)
    b418:	48 8d 05 c5 9e 00 00 	lea    0x9ec5(%rip),%rax        # 152e4 <g_246>
    b41f:	48 89 85 e8 f8 ff ff 	mov    %rax,-0x718(%rbp)
    b426:	48 8d 05 4f 9d 00 00 	lea    0x9d4f(%rip),%rax        # 1517c <g_28+0x5c>
    b42d:	48 89 85 f0 f8 ff ff 	mov    %rax,-0x710(%rbp)
    b434:	48 8d 85 50 f2 ff ff 	lea    -0xdb0(%rbp),%rax
    b43b:	48 83 c0 14          	add    $0x14,%rax
    b43f:	48 89 85 f8 f8 ff ff 	mov    %rax,-0x708(%rbp)
    b446:	48 8d 05 77 a1 00 00 	lea    0xa177(%rip),%rax        # 155c4 <g_638+0x84>
    b44d:	48 89 85 00 f9 ff ff 	mov    %rax,-0x700(%rbp)
    b454:	48 c7 85 08 f9 ff ff 	movq   $0x0,-0x6f8(%rbp)
    b45b:	00 00 00 00 
    b45f:	48 8d 05 9a a0 00 00 	lea    0xa09a(%rip),%rax        # 15500 <g_543>
    b466:	48 89 85 10 f9 ff ff 	mov    %rax,-0x6f0(%rbp)
    b46d:	48 8d 05 70 9e 00 00 	lea    0x9e70(%rip),%rax        # 152e4 <g_246>
    b474:	48 89 85 18 f9 ff ff 	mov    %rax,-0x6e8(%rbp)
    b47b:	48 8d 05 96 9c 00 00 	lea    0x9c96(%rip),%rax        # 15118 <g_4>
    b482:	48 89 85 20 f9 ff ff 	mov    %rax,-0x6e0(%rbp)
    b489:	48 c7 85 28 f9 ff ff 	movq   $0x0,-0x6d8(%rbp)
    b490:	00 00 00 00 
    b494:	48 c7 85 30 f9 ff ff 	movq   $0x0,-0x6d0(%rbp)
    b49b:	00 00 00 00 
    b49f:	48 8d 85 00 f1 ff ff 	lea    -0xf00(%rbp),%rax
    b4a6:	48 89 85 38 f9 ff ff 	mov    %rax,-0x6c8(%rbp)
    b4ad:	48 8d 05 10 a1 00 00 	lea    0xa110(%rip),%rax        # 155c4 <g_638+0x84>
    b4b4:	48 89 85 40 f9 ff ff 	mov    %rax,-0x6c0(%rbp)
    b4bb:	48 8d 05 32 a0 00 00 	lea    0xa032(%rip),%rax        # 154f4 <g_440>
    b4c2:	48 89 85 48 f9 ff ff 	mov    %rax,-0x6b8(%rbp)
    b4c9:	48 8d 85 00 f1 ff ff 	lea    -0xf00(%rbp),%rax
    b4d0:	48 89 85 50 f9 ff ff 	mov    %rax,-0x6b0(%rbp)
    b4d7:	48 8d 05 e6 a0 00 00 	lea    0xa0e6(%rip),%rax        # 155c4 <g_638+0x84>
    b4de:	48 89 85 58 f9 ff ff 	mov    %rax,-0x6a8(%rbp)
    b4e5:	48 8d 85 00 f1 ff ff 	lea    -0xf00(%rbp),%rax
    b4ec:	48 89 85 60 f9 ff ff 	mov    %rax,-0x6a0(%rbp)
    b4f3:	48 8d 05 2a 9c 00 00 	lea    0x9c2a(%rip),%rax        # 15124 <g_28+0x4>
    b4fa:	48 89 85 68 f9 ff ff 	mov    %rax,-0x698(%rbp)
    b501:	48 8d 05 dc 9d 00 00 	lea    0x9ddc(%rip),%rax        # 152e4 <g_246>
    b508:	48 89 85 70 f9 ff ff 	mov    %rax,-0x690(%rbp)
    b50f:	48 8d 05 ae a0 00 00 	lea    0xa0ae(%rip),%rax        # 155c4 <g_638+0x84>
    b516:	48 89 85 78 f9 ff ff 	mov    %rax,-0x688(%rbp)
    b51d:	48 8d 05 f4 9b 00 00 	lea    0x9bf4(%rip),%rax        # 15118 <g_4>
    b524:	48 89 85 80 f9 ff ff 	mov    %rax,-0x680(%rbp)
    b52b:	48 8d 05 b2 9d 00 00 	lea    0x9db2(%rip),%rax        # 152e4 <g_246>
    b532:	48 89 85 88 f9 ff ff 	mov    %rax,-0x678(%rbp)
    b539:	48 8d 05 3c 9c 00 00 	lea    0x9c3c(%rip),%rax        # 1517c <g_28+0x5c>
    b540:	48 89 85 90 f9 ff ff 	mov    %rax,-0x670(%rbp)
    b547:	48 8d 05 96 9d 00 00 	lea    0x9d96(%rip),%rax        # 152e4 <g_246>
    b54e:	48 89 85 98 f9 ff ff 	mov    %rax,-0x668(%rbp)
    b555:	48 8d 05 c8 9b 00 00 	lea    0x9bc8(%rip),%rax        # 15124 <g_28+0x4>
    b55c:	48 89 85 a0 f9 ff ff 	mov    %rax,-0x660(%rbp)
    b563:	48 8d 05 5a a0 00 00 	lea    0xa05a(%rip),%rax        # 155c4 <g_638+0x84>
    b56a:	48 89 85 a8 f9 ff ff 	mov    %rax,-0x658(%rbp)
    b571:	48 8d 05 7c 9f 00 00 	lea    0x9f7c(%rip),%rax        # 154f4 <g_440>
    b578:	48 89 85 b0 f9 ff ff 	mov    %rax,-0x650(%rbp)
    b57f:	48 8d 05 92 9b 00 00 	lea    0x9b92(%rip),%rax        # 15118 <g_4>
    b586:	48 89 85 b8 f9 ff ff 	mov    %rax,-0x648(%rbp)
    b58d:	48 8d 05 90 9b 00 00 	lea    0x9b90(%rip),%rax        # 15124 <g_28+0x4>
    b594:	48 89 85 c0 f9 ff ff 	mov    %rax,-0x640(%rbp)
    b59b:	48 8d 05 5e 9f 00 00 	lea    0x9f5e(%rip),%rax        # 15500 <g_543>
    b5a2:	48 89 85 c8 f9 ff ff 	mov    %rax,-0x638(%rbp)
    b5a9:	48 8d 05 cc 9b 00 00 	lea    0x9bcc(%rip),%rax        # 1517c <g_28+0x5c>
    b5b0:	48 89 85 d0 f9 ff ff 	mov    %rax,-0x630(%rbp)
    b5b7:	48 8d 05 5a 9b 00 00 	lea    0x9b5a(%rip),%rax        # 15118 <g_4>
    b5be:	48 89 85 d8 f9 ff ff 	mov    %rax,-0x628(%rbp)
    b5c5:	48 8d 05 4c 9b 00 00 	lea    0x9b4c(%rip),%rax        # 15118 <g_4>
    b5cc:	48 89 85 e0 f9 ff ff 	mov    %rax,-0x620(%rbp)
    b5d3:	48 8d 05 a2 9b 00 00 	lea    0x9ba2(%rip),%rax        # 1517c <g_28+0x5c>
    b5da:	48 89 85 e8 f9 ff ff 	mov    %rax,-0x618(%rbp)
    b5e1:	48 8d 05 fc 9c 00 00 	lea    0x9cfc(%rip),%rax        # 152e4 <g_246>
    b5e8:	48 89 85 f0 f9 ff ff 	mov    %rax,-0x610(%rbp)
    b5ef:	48 8d 05 fe 9e 00 00 	lea    0x9efe(%rip),%rax        # 154f4 <g_440>
    b5f6:	48 89 85 f8 f9 ff ff 	mov    %rax,-0x608(%rbp)
    b5fd:	48 8d 85 00 f1 ff ff 	lea    -0xf00(%rbp),%rax
    b604:	48 89 85 00 fa ff ff 	mov    %rax,-0x600(%rbp)
    b60b:	48 8d 85 00 f1 ff ff 	lea    -0xf00(%rbp),%rax
    b612:	48 89 85 08 fa ff ff 	mov    %rax,-0x5f8(%rbp)
    b619:	48 8d 85 00 f1 ff ff 	lea    -0xf00(%rbp),%rax
    b620:	48 89 85 10 fa ff ff 	mov    %rax,-0x5f0(%rbp)
    b627:	48 8d 85 00 f1 ff ff 	lea    -0xf00(%rbp),%rax
    b62e:	48 89 85 18 fa ff ff 	mov    %rax,-0x5e8(%rbp)
    b635:	48 8d 05 88 9f 00 00 	lea    0x9f88(%rip),%rax        # 155c4 <g_638+0x84>
    b63c:	48 89 85 20 fa ff ff 	mov    %rax,-0x5e0(%rbp)
    b643:	48 8d 05 ce 9a 00 00 	lea    0x9ace(%rip),%rax        # 15118 <g_4>
    b64a:	48 89 85 28 fa ff ff 	mov    %rax,-0x5d8(%rbp)
    b651:	48 c7 85 30 fa ff ff 	movq   $0x0,-0x5d0(%rbp)
    b658:	00 00 00 00 
    b65c:	48 8d 85 30 f2 ff ff 	lea    -0xdd0(%rbp),%rax
    b663:	48 83 c0 18          	add    $0x18,%rax
    b667:	48 89 85 38 fa ff ff 	mov    %rax,-0x5c8(%rbp)
    b66e:	48 8d 05 e3 9a 00 00 	lea    0x9ae3(%rip),%rax        # 15158 <g_28+0x38>
    b675:	48 89 85 40 fa ff ff 	mov    %rax,-0x5c0(%rbp)
    b67c:	48 8d 05 95 9a 00 00 	lea    0x9a95(%rip),%rax        # 15118 <g_4>
    b683:	48 89 85 48 fa ff ff 	mov    %rax,-0x5b8(%rbp)
    b68a:	48 8d 05 53 9c 00 00 	lea    0x9c53(%rip),%rax        # 152e4 <g_246>
    b691:	48 89 85 50 fa ff ff 	mov    %rax,-0x5b0(%rbp)
    b698:	48 8d 85 00 f1 ff ff 	lea    -0xf00(%rbp),%rax
    b69f:	48 89 85 58 fa ff ff 	mov    %rax,-0x5a8(%rbp)
    b6a6:	48 c7 85 60 fa ff ff 	movq   $0x0,-0x5a0(%rbp)
    b6ad:	00 00 00 00 
    b6b1:	48 8d 85 00 f1 ff ff 	lea    -0xf00(%rbp),%rax
    b6b8:	48 89 85 68 fa ff ff 	mov    %rax,-0x598(%rbp)
    b6bf:	48 8d 05 1e 9c 00 00 	lea    0x9c1e(%rip),%rax        # 152e4 <g_246>
    b6c6:	48 89 85 70 fa ff ff 	mov    %rax,-0x590(%rbp)
    b6cd:	48 8d 05 20 9e 00 00 	lea    0x9e20(%rip),%rax        # 154f4 <g_440>
    b6d4:	48 89 85 78 fa ff ff 	mov    %rax,-0x588(%rbp)
    b6db:	48 8d 05 e2 9e 00 00 	lea    0x9ee2(%rip),%rax        # 155c4 <g_638+0x84>
    b6e2:	48 89 85 80 fa ff ff 	mov    %rax,-0x580(%rbp)
    b6e9:	48 8d 05 8c 9a 00 00 	lea    0x9a8c(%rip),%rax        # 1517c <g_28+0x5c>
    b6f0:	48 89 85 88 fa ff ff 	mov    %rax,-0x578(%rbp)
    b6f7:	48 8d 05 c6 9e 00 00 	lea    0x9ec6(%rip),%rax        # 155c4 <g_638+0x84>
    b6fe:	48 89 85 90 fa ff ff 	mov    %rax,-0x570(%rbp)
    b705:	48 8d 05 0c 9a 00 00 	lea    0x9a0c(%rip),%rax        # 15118 <g_4>
    b70c:	48 89 85 98 fa ff ff 	mov    %rax,-0x568(%rbp)
    b713:	48 8d 05 ca 9b 00 00 	lea    0x9bca(%rip),%rax        # 152e4 <g_246>
    b71a:	48 89 85 a0 fa ff ff 	mov    %rax,-0x560(%rbp)
    b721:	48 8d 05 d8 9d 00 00 	lea    0x9dd8(%rip),%rax        # 15500 <g_543>
    b728:	48 89 85 a8 fa ff ff 	mov    %rax,-0x558(%rbp)
    b72f:	48 8d 85 30 f2 ff ff 	lea    -0xdd0(%rbp),%rax
    b736:	48 83 c0 18          	add    $0x18,%rax
    b73a:	48 89 85 b0 fa ff ff 	mov    %rax,-0x550(%rbp)
    b741:	48 8d 05 d0 99 00 00 	lea    0x99d0(%rip),%rax        # 15118 <g_4>
    b748:	48 89 85 b8 fa ff ff 	mov    %rax,-0x548(%rbp)
    b74f:	48 8d 05 aa 9d 00 00 	lea    0x9daa(%rip),%rax        # 15500 <g_543>
    b756:	48 89 85 c0 fa ff ff 	mov    %rax,-0x540(%rbp)
    b75d:	48 8d 05 60 9e 00 00 	lea    0x9e60(%rip),%rax        # 155c4 <g_638+0x84>
    b764:	48 89 85 c8 fa ff ff 	mov    %rax,-0x538(%rbp)
    b76b:	48 8d 85 30 f2 ff ff 	lea    -0xdd0(%rbp),%rax
    b772:	48 83 c0 18          	add    $0x18,%rax
    b776:	48 89 85 d0 fa ff ff 	mov    %rax,-0x530(%rbp)
    b77d:	48 8d 05 60 9b 00 00 	lea    0x9b60(%rip),%rax        # 152e4 <g_246>
    b784:	48 89 85 d8 fa ff ff 	mov    %rax,-0x528(%rbp)
    b78b:	48 8d 05 52 9b 00 00 	lea    0x9b52(%rip),%rax        # 152e4 <g_246>
    b792:	48 89 85 e0 fa ff ff 	mov    %rax,-0x520(%rbp)
    b799:	48 8d 05 44 9b 00 00 	lea    0x9b44(%rip),%rax        # 152e4 <g_246>
    b7a0:	48 89 85 e8 fa ff ff 	mov    %rax,-0x518(%rbp)
    b7a7:	48 8d 05 16 9e 00 00 	lea    0x9e16(%rip),%rax        # 155c4 <g_638+0x84>
    b7ae:	48 89 85 f0 fa ff ff 	mov    %rax,-0x510(%rbp)
    b7b5:	48 8d 05 08 9e 00 00 	lea    0x9e08(%rip),%rax        # 155c4 <g_638+0x84>
    b7bc:	48 89 85 f8 fa ff ff 	mov    %rax,-0x508(%rbp)
    b7c3:	48 8d 05 fa 9d 00 00 	lea    0x9dfa(%rip),%rax        # 155c4 <g_638+0x84>
    b7ca:	48 89 85 00 fb ff ff 	mov    %rax,-0x500(%rbp)
    b7d1:	48 8d 05 4c 99 00 00 	lea    0x994c(%rip),%rax        # 15124 <g_28+0x4>
    b7d8:	48 89 85 08 fb ff ff 	mov    %rax,-0x4f8(%rbp)
    b7df:	48 8d 05 fe 9a 00 00 	lea    0x9afe(%rip),%rax        # 152e4 <g_246>
    b7e6:	48 89 85 10 fb ff ff 	mov    %rax,-0x4f0(%rbp)
    b7ed:	48 8d 05 d0 9d 00 00 	lea    0x9dd0(%rip),%rax        # 155c4 <g_638+0x84>
    b7f4:	48 89 85 18 fb ff ff 	mov    %rax,-0x4e8(%rbp)
    b7fb:	48 c7 85 20 fb ff ff 	movq   $0x0,-0x4e0(%rbp)
    b802:	00 00 00 00 
    b806:	48 8d 05 e7 9c 00 00 	lea    0x9ce7(%rip),%rax        # 154f4 <g_440>
    b80d:	48 89 85 28 fb ff ff 	mov    %rax,-0x4d8(%rbp)
    b814:	48 8d 05 c9 9a 00 00 	lea    0x9ac9(%rip),%rax        # 152e4 <g_246>
    b81b:	48 89 85 30 fb ff ff 	mov    %rax,-0x4d0(%rbp)
    b822:	48 8d 85 00 f1 ff ff 	lea    -0xf00(%rbp),%rax
    b829:	48 89 85 38 fb ff ff 	mov    %rax,-0x4c8(%rbp)
    b830:	48 8d 05 21 99 00 00 	lea    0x9921(%rip),%rax        # 15158 <g_28+0x38>
    b837:	48 89 85 40 fb ff ff 	mov    %rax,-0x4c0(%rbp)
    b83e:	48 c7 85 48 fb ff ff 	movq   $0x0,-0x4b8(%rbp)
    b845:	00 00 00 00 
    b849:	48 c7 85 50 fb ff ff 	movq   $0x0,-0x4b0(%rbp)
    b850:	00 00 00 00 
    b854:	48 8d 85 00 f1 ff ff 	lea    -0xf00(%rbp),%rax
    b85b:	48 89 85 58 fb ff ff 	mov    %rax,-0x4a8(%rbp)
    b862:	48 8d 05 5b 9d 00 00 	lea    0x9d5b(%rip),%rax        # 155c4 <g_638+0x84>
    b869:	48 89 85 60 fb ff ff 	mov    %rax,-0x4a0(%rbp)
    b870:	48 8d 05 7d 9c 00 00 	lea    0x9c7d(%rip),%rax        # 154f4 <g_440>
    b877:	48 89 85 68 fb ff ff 	mov    %rax,-0x498(%rbp)
    b87e:	48 8d 85 00 f1 ff ff 	lea    -0xf00(%rbp),%rax
    b885:	48 89 85 70 fb ff ff 	mov    %rax,-0x490(%rbp)
    b88c:	48 8d 05 31 9d 00 00 	lea    0x9d31(%rip),%rax        # 155c4 <g_638+0x84>
    b893:	48 89 85 78 fb ff ff 	mov    %rax,-0x488(%rbp)
    b89a:	48 8d 85 00 f1 ff ff 	lea    -0xf00(%rbp),%rax
    b8a1:	48 89 85 80 fb ff ff 	mov    %rax,-0x480(%rbp)
    b8a8:	48 8d 05 75 98 00 00 	lea    0x9875(%rip),%rax        # 15124 <g_28+0x4>
    b8af:	48 89 85 88 fb ff ff 	mov    %rax,-0x478(%rbp)
    b8b6:	48 8d 05 27 9a 00 00 	lea    0x9a27(%rip),%rax        # 152e4 <g_246>
    b8bd:	48 89 85 90 fb ff ff 	mov    %rax,-0x470(%rbp)
    b8c4:	48 8d 05 f9 9c 00 00 	lea    0x9cf9(%rip),%rax        # 155c4 <g_638+0x84>
    b8cb:	48 89 85 98 fb ff ff 	mov    %rax,-0x468(%rbp)
    b8d2:	48 8d 05 3f 98 00 00 	lea    0x983f(%rip),%rax        # 15118 <g_4>
    b8d9:	48 89 85 a0 fb ff ff 	mov    %rax,-0x460(%rbp)
    b8e0:	48 8d 05 fd 99 00 00 	lea    0x99fd(%rip),%rax        # 152e4 <g_246>
    b8e7:	48 89 85 a8 fb ff ff 	mov    %rax,-0x458(%rbp)
    b8ee:	48 8d 05 87 98 00 00 	lea    0x9887(%rip),%rax        # 1517c <g_28+0x5c>
    b8f5:	48 89 85 b0 fb ff ff 	mov    %rax,-0x450(%rbp)
    b8fc:	48 8d 05 e1 99 00 00 	lea    0x99e1(%rip),%rax        # 152e4 <g_246>
    b903:	48 89 85 b8 fb ff ff 	mov    %rax,-0x448(%rbp)
    b90a:	48 8d 05 13 98 00 00 	lea    0x9813(%rip),%rax        # 15124 <g_28+0x4>
    b911:	48 89 85 c0 fb ff ff 	mov    %rax,-0x440(%rbp)
    b918:	48 8d 05 a5 9c 00 00 	lea    0x9ca5(%rip),%rax        # 155c4 <g_638+0x84>
    b91f:	48 89 85 c8 fb ff ff 	mov    %rax,-0x438(%rbp)
    b926:	48 8d 05 c7 9b 00 00 	lea    0x9bc7(%rip),%rax        # 154f4 <g_440>
    b92d:	48 89 85 d0 fb ff ff 	mov    %rax,-0x430(%rbp)
    b934:	48 8d 05 dd 97 00 00 	lea    0x97dd(%rip),%rax        # 15118 <g_4>
    b93b:	48 89 85 d8 fb ff ff 	mov    %rax,-0x428(%rbp)
    b942:	48 8d 05 db 97 00 00 	lea    0x97db(%rip),%rax        # 15124 <g_28+0x4>
    b949:	48 89 85 e0 fb ff ff 	mov    %rax,-0x420(%rbp)
    b950:	48 8d 05 a9 9b 00 00 	lea    0x9ba9(%rip),%rax        # 15500 <g_543>
    b957:	48 89 85 e8 fb ff ff 	mov    %rax,-0x418(%rbp)
    b95e:	48 8d 05 17 98 00 00 	lea    0x9817(%rip),%rax        # 1517c <g_28+0x5c>
    b965:	48 89 85 f0 fb ff ff 	mov    %rax,-0x410(%rbp)
    b96c:	48 8d 05 a5 97 00 00 	lea    0x97a5(%rip),%rax        # 15118 <g_4>
    b973:	48 89 85 f8 fb ff ff 	mov    %rax,-0x408(%rbp)
    b97a:	48 8d 05 97 97 00 00 	lea    0x9797(%rip),%rax        # 15118 <g_4>
    b981:	48 89 85 00 fc ff ff 	mov    %rax,-0x400(%rbp)
    b988:	48 8d 05 ed 97 00 00 	lea    0x97ed(%rip),%rax        # 1517c <g_28+0x5c>
    b98f:	48 89 85 08 fc ff ff 	mov    %rax,-0x3f8(%rbp)
    b996:	48 8d 05 47 99 00 00 	lea    0x9947(%rip),%rax        # 152e4 <g_246>
    b99d:	48 89 85 10 fc ff ff 	mov    %rax,-0x3f0(%rbp)
    b9a4:	48 8d 05 49 9b 00 00 	lea    0x9b49(%rip),%rax        # 154f4 <g_440>
    b9ab:	48 89 85 18 fc ff ff 	mov    %rax,-0x3e8(%rbp)
    b9b2:	48 8d 85 00 f1 ff ff 	lea    -0xf00(%rbp),%rax
    b9b9:	48 89 85 20 fc ff ff 	mov    %rax,-0x3e0(%rbp)
    b9c0:	48 8d 85 00 f1 ff ff 	lea    -0xf00(%rbp),%rax
    b9c7:	48 89 85 28 fc ff ff 	mov    %rax,-0x3d8(%rbp)
    b9ce:	48 8d 85 00 f1 ff ff 	lea    -0xf00(%rbp),%rax
    b9d5:	48 89 85 30 fc ff ff 	mov    %rax,-0x3d0(%rbp)
    b9dc:	48 8d 85 00 f1 ff ff 	lea    -0xf00(%rbp),%rax
    b9e3:	48 89 85 38 fc ff ff 	mov    %rax,-0x3c8(%rbp)
    b9ea:	48 8d 05 d3 9b 00 00 	lea    0x9bd3(%rip),%rax        # 155c4 <g_638+0x84>
    b9f1:	48 89 85 40 fc ff ff 	mov    %rax,-0x3c0(%rbp)
    b9f8:	48 8d 05 19 97 00 00 	lea    0x9719(%rip),%rax        # 15118 <g_4>
    b9ff:	48 89 85 48 fc ff ff 	mov    %rax,-0x3b8(%rbp)
    ba06:	48 c7 85 50 fc ff ff 	movq   $0x0,-0x3b0(%rbp)
    ba0d:	00 00 00 00 
    ba11:	48 8d 85 30 f2 ff ff 	lea    -0xdd0(%rbp),%rax
    ba18:	48 83 c0 18          	add    $0x18,%rax
    ba1c:	48 89 85 58 fc ff ff 	mov    %rax,-0x3a8(%rbp)
    ba23:	48 8d 05 2e 97 00 00 	lea    0x972e(%rip),%rax        # 15158 <g_28+0x38>
    ba2a:	48 89 85 60 fc ff ff 	mov    %rax,-0x3a0(%rbp)
    ba31:	48 8d 05 e0 96 00 00 	lea    0x96e0(%rip),%rax        # 15118 <g_4>
    ba38:	48 89 85 68 fc ff ff 	mov    %rax,-0x398(%rbp)
    ba3f:	48 8d 05 9e 98 00 00 	lea    0x989e(%rip),%rax        # 152e4 <g_246>
    ba46:	48 89 85 70 fc ff ff 	mov    %rax,-0x390(%rbp)
    ba4d:	48 8d 85 00 f1 ff ff 	lea    -0xf00(%rbp),%rax
    ba54:	48 89 85 78 fc ff ff 	mov    %rax,-0x388(%rbp)
    ba5b:	48 c7 85 80 fc ff ff 	movq   $0x0,-0x380(%rbp)
    ba62:	00 00 00 00 
    ba66:	48 8d 85 00 f1 ff ff 	lea    -0xf00(%rbp),%rax
    ba6d:	48 89 85 88 fc ff ff 	mov    %rax,-0x378(%rbp)
    ba74:	48 8d 05 69 98 00 00 	lea    0x9869(%rip),%rax        # 152e4 <g_246>
    ba7b:	48 89 85 90 fc ff ff 	mov    %rax,-0x370(%rbp)
    ba82:	48 8d 05 6b 9a 00 00 	lea    0x9a6b(%rip),%rax        # 154f4 <g_440>
    ba89:	48 89 85 98 fc ff ff 	mov    %rax,-0x368(%rbp)
    ba90:	48 8d 05 2d 9b 00 00 	lea    0x9b2d(%rip),%rax        # 155c4 <g_638+0x84>
    ba97:	48 89 85 a0 fc ff ff 	mov    %rax,-0x360(%rbp)
    ba9e:	48 8d 05 d7 96 00 00 	lea    0x96d7(%rip),%rax        # 1517c <g_28+0x5c>
    baa5:	48 89 85 a8 fc ff ff 	mov    %rax,-0x358(%rbp)
    baac:	48 8d 05 11 9b 00 00 	lea    0x9b11(%rip),%rax        # 155c4 <g_638+0x84>
    bab3:	48 89 85 b0 fc ff ff 	mov    %rax,-0x350(%rbp)
    baba:	48 8d 05 57 96 00 00 	lea    0x9657(%rip),%rax        # 15118 <g_4>
    bac1:	48 89 85 b8 fc ff ff 	mov    %rax,-0x348(%rbp)
    bac8:	48 8d 05 15 98 00 00 	lea    0x9815(%rip),%rax        # 152e4 <g_246>
    bacf:	48 89 85 c0 fc ff ff 	mov    %rax,-0x340(%rbp)
    bad6:	48 8d 05 23 9a 00 00 	lea    0x9a23(%rip),%rax        # 15500 <g_543>
    badd:	48 89 85 c8 fc ff ff 	mov    %rax,-0x338(%rbp)
    bae4:	48 8d 85 30 f2 ff ff 	lea    -0xdd0(%rbp),%rax
    baeb:	48 83 c0 18          	add    $0x18,%rax
    baef:	48 89 85 d0 fc ff ff 	mov    %rax,-0x330(%rbp)
    baf6:	48 8d 05 1b 96 00 00 	lea    0x961b(%rip),%rax        # 15118 <g_4>
    bafd:	48 89 85 d8 fc ff ff 	mov    %rax,-0x328(%rbp)
    bb04:	48 8d 05 f5 99 00 00 	lea    0x99f5(%rip),%rax        # 15500 <g_543>
    bb0b:	48 89 85 e0 fc ff ff 	mov    %rax,-0x320(%rbp)
    bb12:	48 8d 05 ab 9a 00 00 	lea    0x9aab(%rip),%rax        # 155c4 <g_638+0x84>
    bb19:	48 89 85 e8 fc ff ff 	mov    %rax,-0x318(%rbp)
    bb20:	48 8d 85 30 f2 ff ff 	lea    -0xdd0(%rbp),%rax
    bb27:	48 83 c0 18          	add    $0x18,%rax
    bb2b:	48 89 85 f0 fc ff ff 	mov    %rax,-0x310(%rbp)
    bb32:	48 8d 05 ab 97 00 00 	lea    0x97ab(%rip),%rax        # 152e4 <g_246>
    bb39:	48 89 85 f8 fc ff ff 	mov    %rax,-0x308(%rbp)
    bb40:	48 8d 05 9d 97 00 00 	lea    0x979d(%rip),%rax        # 152e4 <g_246>
    bb47:	48 89 85 00 fd ff ff 	mov    %rax,-0x300(%rbp)
    bb4e:	48 8d 05 8f 97 00 00 	lea    0x978f(%rip),%rax        # 152e4 <g_246>
    bb55:	48 89 85 08 fd ff ff 	mov    %rax,-0x2f8(%rbp)
    bb5c:	48 8d 05 61 9a 00 00 	lea    0x9a61(%rip),%rax        # 155c4 <g_638+0x84>
    bb63:	48 89 85 10 fd ff ff 	mov    %rax,-0x2f0(%rbp)
    bb6a:	48 8d 05 53 9a 00 00 	lea    0x9a53(%rip),%rax        # 155c4 <g_638+0x84>
    bb71:	48 89 85 18 fd ff ff 	mov    %rax,-0x2e8(%rbp)
    bb78:	48 8d 05 45 9a 00 00 	lea    0x9a45(%rip),%rax        # 155c4 <g_638+0x84>
    bb7f:	48 89 85 20 fd ff ff 	mov    %rax,-0x2e0(%rbp)
    bb86:	48 8d 05 97 95 00 00 	lea    0x9597(%rip),%rax        # 15124 <g_28+0x4>
    bb8d:	48 89 85 28 fd ff ff 	mov    %rax,-0x2d8(%rbp)
    bb94:	48 8d 05 49 97 00 00 	lea    0x9749(%rip),%rax        # 152e4 <g_246>
    bb9b:	48 89 85 30 fd ff ff 	mov    %rax,-0x2d0(%rbp)
    bba2:	48 8d 05 1b 9a 00 00 	lea    0x9a1b(%rip),%rax        # 155c4 <g_638+0x84>
    bba9:	48 89 85 38 fd ff ff 	mov    %rax,-0x2c8(%rbp)
    bbb0:	48 c7 85 40 fd ff ff 	movq   $0x0,-0x2c0(%rbp)
    bbb7:	00 00 00 00 
    bbbb:	48 8d 05 32 99 00 00 	lea    0x9932(%rip),%rax        # 154f4 <g_440>
    bbc2:	48 89 85 48 fd ff ff 	mov    %rax,-0x2b8(%rbp)
    bbc9:	48 8d 05 14 97 00 00 	lea    0x9714(%rip),%rax        # 152e4 <g_246>
    bbd0:	48 89 85 50 fd ff ff 	mov    %rax,-0x2b0(%rbp)
    bbd7:	48 8d 85 00 f1 ff ff 	lea    -0xf00(%rbp),%rax
    bbde:	48 89 85 58 fd ff ff 	mov    %rax,-0x2a8(%rbp)
    bbe5:	48 8d 05 6c 95 00 00 	lea    0x956c(%rip),%rax        # 15158 <g_28+0x38>
    bbec:	48 89 85 60 fd ff ff 	mov    %rax,-0x2a0(%rbp)
    bbf3:	48 c7 85 68 fd ff ff 	movq   $0x0,-0x298(%rbp)
    bbfa:	00 00 00 00 
    bbfe:	48 c7 85 70 fd ff ff 	movq   $0x0,-0x290(%rbp)
    bc05:	00 00 00 00 
    bc09:	48 8d 85 00 f1 ff ff 	lea    -0xf00(%rbp),%rax
    bc10:	48 89 85 78 fd ff ff 	mov    %rax,-0x288(%rbp)
    bc17:	48 8d 05 a6 99 00 00 	lea    0x99a6(%rip),%rax        # 155c4 <g_638+0x84>
    bc1e:	48 89 85 80 fd ff ff 	mov    %rax,-0x280(%rbp)
    bc25:	48 8d 05 c8 98 00 00 	lea    0x98c8(%rip),%rax        # 154f4 <g_440>
    bc2c:	48 89 85 88 fd ff ff 	mov    %rax,-0x278(%rbp)
    bc33:	48 8d 85 00 f1 ff ff 	lea    -0xf00(%rbp),%rax
    bc3a:	48 89 85 90 fd ff ff 	mov    %rax,-0x270(%rbp)
    bc41:	48 8d 05 7c 99 00 00 	lea    0x997c(%rip),%rax        # 155c4 <g_638+0x84>
    bc48:	48 89 85 98 fd ff ff 	mov    %rax,-0x268(%rbp)
    bc4f:	48 8d 85 00 f1 ff ff 	lea    -0xf00(%rbp),%rax
    bc56:	48 89 85 a0 fd ff ff 	mov    %rax,-0x260(%rbp)
    bc5d:	48 8d 05 c0 94 00 00 	lea    0x94c0(%rip),%rax        # 15124 <g_28+0x4>
    bc64:	48 89 85 a8 fd ff ff 	mov    %rax,-0x258(%rbp)
    bc6b:	48 8d 05 72 96 00 00 	lea    0x9672(%rip),%rax        # 152e4 <g_246>
    bc72:	48 89 85 b0 fd ff ff 	mov    %rax,-0x250(%rbp)
    bc79:	48 8d 05 44 99 00 00 	lea    0x9944(%rip),%rax        # 155c4 <g_638+0x84>
    bc80:	48 89 85 b8 fd ff ff 	mov    %rax,-0x248(%rbp)
    bc87:	48 8d 05 8a 94 00 00 	lea    0x948a(%rip),%rax        # 15118 <g_4>
    bc8e:	48 89 85 c0 fd ff ff 	mov    %rax,-0x240(%rbp)
    bc95:	48 8d 05 48 96 00 00 	lea    0x9648(%rip),%rax        # 152e4 <g_246>
    bc9c:	48 89 85 c8 fd ff ff 	mov    %rax,-0x238(%rbp)
    bca3:	48 8d 05 d2 94 00 00 	lea    0x94d2(%rip),%rax        # 1517c <g_28+0x5c>
    bcaa:	48 89 85 d0 fd ff ff 	mov    %rax,-0x230(%rbp)
    bcb1:	48 8d 05 2c 96 00 00 	lea    0x962c(%rip),%rax        # 152e4 <g_246>
    bcb8:	48 89 85 d8 fd ff ff 	mov    %rax,-0x228(%rbp)
    bcbf:	48 8d 05 5e 94 00 00 	lea    0x945e(%rip),%rax        # 15124 <g_28+0x4>
    bcc6:	48 89 85 e0 fd ff ff 	mov    %rax,-0x220(%rbp)
    bccd:	48 8d 05 f0 98 00 00 	lea    0x98f0(%rip),%rax        # 155c4 <g_638+0x84>
    bcd4:	48 89 85 e8 fd ff ff 	mov    %rax,-0x218(%rbp)
    bcdb:	48 8d 05 12 98 00 00 	lea    0x9812(%rip),%rax        # 154f4 <g_440>
    bce2:	48 89 85 f0 fd ff ff 	mov    %rax,-0x210(%rbp)
    bce9:	48 8d 05 28 94 00 00 	lea    0x9428(%rip),%rax        # 15118 <g_4>
    bcf0:	48 89 85 f8 fd ff ff 	mov    %rax,-0x208(%rbp)
    bcf7:	48 8d 05 26 94 00 00 	lea    0x9426(%rip),%rax        # 15124 <g_28+0x4>
    bcfe:	48 89 85 00 fe ff ff 	mov    %rax,-0x200(%rbp)
    bd05:	48 8d 05 f4 97 00 00 	lea    0x97f4(%rip),%rax        # 15500 <g_543>
    bd0c:	48 89 85 08 fe ff ff 	mov    %rax,-0x1f8(%rbp)
    bd13:	48 8d 05 62 94 00 00 	lea    0x9462(%rip),%rax        # 1517c <g_28+0x5c>
    bd1a:	48 89 85 10 fe ff ff 	mov    %rax,-0x1f0(%rbp)
    bd21:	48 8d 05 f0 93 00 00 	lea    0x93f0(%rip),%rax        # 15118 <g_4>
    bd28:	48 89 85 18 fe ff ff 	mov    %rax,-0x1e8(%rbp)
    bd2f:	48 8d 05 e2 93 00 00 	lea    0x93e2(%rip),%rax        # 15118 <g_4>
    bd36:	48 89 85 20 fe ff ff 	mov    %rax,-0x1e0(%rbp)
    bd3d:	48 8d 05 38 94 00 00 	lea    0x9438(%rip),%rax        # 1517c <g_28+0x5c>
    bd44:	48 89 85 28 fe ff ff 	mov    %rax,-0x1d8(%rbp)
    bd4b:	48 8d 05 92 95 00 00 	lea    0x9592(%rip),%rax        # 152e4 <g_246>
    bd52:	48 89 85 30 fe ff ff 	mov    %rax,-0x1d0(%rbp)
    bd59:	48 8d 05 94 97 00 00 	lea    0x9794(%rip),%rax        # 154f4 <g_440>
    bd60:	48 89 85 38 fe ff ff 	mov    %rax,-0x1c8(%rbp)
    bd67:	48 8d 85 00 f1 ff ff 	lea    -0xf00(%rbp),%rax
    bd6e:	48 89 85 40 fe ff ff 	mov    %rax,-0x1c0(%rbp)
    bd75:	48 8d 85 00 f1 ff ff 	lea    -0xf00(%rbp),%rax
    bd7c:	48 89 85 48 fe ff ff 	mov    %rax,-0x1b8(%rbp)
    bd83:	48 8d 85 00 f1 ff ff 	lea    -0xf00(%rbp),%rax
    bd8a:	48 89 85 50 fe ff ff 	mov    %rax,-0x1b0(%rbp)
    bd91:	48 8d 85 00 f1 ff ff 	lea    -0xf00(%rbp),%rax
    bd98:	48 89 85 58 fe ff ff 	mov    %rax,-0x1a8(%rbp)
    bd9f:	48 8d 05 1e 98 00 00 	lea    0x981e(%rip),%rax        # 155c4 <g_638+0x84>
    bda6:	48 89 85 60 fe ff ff 	mov    %rax,-0x1a0(%rbp)
    bdad:	48 8d 05 64 93 00 00 	lea    0x9364(%rip),%rax        # 15118 <g_4>
    bdb4:	48 89 85 68 fe ff ff 	mov    %rax,-0x198(%rbp)
    bdbb:	48 c7 85 70 fe ff ff 	movq   $0x0,-0x190(%rbp)
    bdc2:	00 00 00 00 
    bdc6:	48 8d 85 30 f2 ff ff 	lea    -0xdd0(%rbp),%rax
    bdcd:	48 83 c0 18          	add    $0x18,%rax
    bdd1:	48 89 85 78 fe ff ff 	mov    %rax,-0x188(%rbp)
    bdd8:	48 8d 05 79 93 00 00 	lea    0x9379(%rip),%rax        # 15158 <g_28+0x38>
    bddf:	48 89 85 80 fe ff ff 	mov    %rax,-0x180(%rbp)
    bde6:	48 8d 05 2b 93 00 00 	lea    0x932b(%rip),%rax        # 15118 <g_4>
    bded:	48 89 85 88 fe ff ff 	mov    %rax,-0x178(%rbp)
    bdf4:	48 8d 05 e9 94 00 00 	lea    0x94e9(%rip),%rax        # 152e4 <g_246>
    bdfb:	48 89 85 90 fe ff ff 	mov    %rax,-0x170(%rbp)
    be02:	48 8d 85 00 f1 ff ff 	lea    -0xf00(%rbp),%rax
    be09:	48 89 85 98 fe ff ff 	mov    %rax,-0x168(%rbp)
    be10:	48 c7 85 a0 fe ff ff 	movq   $0x0,-0x160(%rbp)
    be17:	00 00 00 00 
    be1b:	48 8d 85 00 f1 ff ff 	lea    -0xf00(%rbp),%rax
    be22:	48 89 85 a8 fe ff ff 	mov    %rax,-0x158(%rbp)
    be29:	48 8d 05 b4 94 00 00 	lea    0x94b4(%rip),%rax        # 152e4 <g_246>
    be30:	48 89 85 b0 fe ff ff 	mov    %rax,-0x150(%rbp)
    be37:	48 8d 05 b6 96 00 00 	lea    0x96b6(%rip),%rax        # 154f4 <g_440>
    be3e:	48 89 85 b8 fe ff ff 	mov    %rax,-0x148(%rbp)
    be45:	48 8d 05 78 97 00 00 	lea    0x9778(%rip),%rax        # 155c4 <g_638+0x84>
    be4c:	48 89 85 c0 fe ff ff 	mov    %rax,-0x140(%rbp)
    be53:	48 8d 05 22 93 00 00 	lea    0x9322(%rip),%rax        # 1517c <g_28+0x5c>
    be5a:	48 89 85 c8 fe ff ff 	mov    %rax,-0x138(%rbp)
    be61:	48 8d 05 5c 97 00 00 	lea    0x975c(%rip),%rax        # 155c4 <g_638+0x84>
    be68:	48 89 85 d0 fe ff ff 	mov    %rax,-0x130(%rbp)
    be6f:	48 8d 05 a2 92 00 00 	lea    0x92a2(%rip),%rax        # 15118 <g_4>
    be76:	48 89 85 d8 fe ff ff 	mov    %rax,-0x128(%rbp)
    be7d:	48 8d 05 60 94 00 00 	lea    0x9460(%rip),%rax        # 152e4 <g_246>
    be84:	48 89 85 e0 fe ff ff 	mov    %rax,-0x120(%rbp)
    be8b:	48 8d 05 6e 96 00 00 	lea    0x966e(%rip),%rax        # 15500 <g_543>
    be92:	48 89 85 e8 fe ff ff 	mov    %rax,-0x118(%rbp)
    be99:	48 8d 85 30 f2 ff ff 	lea    -0xdd0(%rbp),%rax
    bea0:	48 83 c0 18          	add    $0x18,%rax
    bea4:	48 89 85 f0 fe ff ff 	mov    %rax,-0x110(%rbp)
    beab:	48 8d 05 66 92 00 00 	lea    0x9266(%rip),%rax        # 15118 <g_4>
    beb2:	48 89 85 f8 fe ff ff 	mov    %rax,-0x108(%rbp)
    beb9:	48 8d 05 40 96 00 00 	lea    0x9640(%rip),%rax        # 15500 <g_543>
    bec0:	48 89 85 00 ff ff ff 	mov    %rax,-0x100(%rbp)
    bec7:	48 8d 05 f6 96 00 00 	lea    0x96f6(%rip),%rax        # 155c4 <g_638+0x84>
    bece:	48 89 85 08 ff ff ff 	mov    %rax,-0xf8(%rbp)
    bed5:	48 8d 85 30 f2 ff ff 	lea    -0xdd0(%rbp),%rax
    bedc:	48 83 c0 18          	add    $0x18,%rax
    bee0:	48 89 85 10 ff ff ff 	mov    %rax,-0xf0(%rbp)
    bee7:	48 8d 05 f6 93 00 00 	lea    0x93f6(%rip),%rax        # 152e4 <g_246>
    beee:	48 89 85 18 ff ff ff 	mov    %rax,-0xe8(%rbp)
    bef5:	48 8d 85 00 f1 ff ff 	lea    -0xf00(%rbp),%rax
    befc:	48 89 85 20 ff ff ff 	mov    %rax,-0xe0(%rbp)
    bf03:	48 8d 85 00 f1 ff ff 	lea    -0xf00(%rbp),%rax
    bf0a:	48 89 85 28 ff ff ff 	mov    %rax,-0xd8(%rbp)
    bf11:	48 c7 85 30 ff ff ff 	movq   $0x0,-0xd0(%rbp)
    bf18:	00 00 00 00 
    bf1c:	48 c7 85 38 ff ff ff 	movq   $0x0,-0xc8(%rbp)
    bf23:	00 00 00 00 
    bf27:	48 8d 05 ea 91 00 00 	lea    0x91ea(%rip),%rax        # 15118 <g_4>
    bf2e:	48 89 85 40 ff ff ff 	mov    %rax,-0xc0(%rbp)
    bf35:	48 8d 05 a8 93 00 00 	lea    0x93a8(%rip),%rax        # 152e4 <g_246>
    bf3c:	48 89 85 48 ff ff ff 	mov    %rax,-0xb8(%rbp)
    bf43:	48 8d 05 da 91 00 00 	lea    0x91da(%rip),%rax        # 15124 <g_28+0x4>
    bf4a:	48 89 85 50 ff ff ff 	mov    %rax,-0xb0(%rbp)
    bf51:	48 8d 05 c0 91 00 00 	lea    0x91c0(%rip),%rax        # 15118 <g_4>
    bf58:	48 89 85 58 ff ff ff 	mov    %rax,-0xa8(%rbp)
    bf5f:	48 8d 05 8e 95 00 00 	lea    0x958e(%rip),%rax        # 154f4 <g_440>
    bf66:	48 89 85 60 ff ff ff 	mov    %rax,-0xa0(%rbp)
    bf6d:	48 8d 05 08 92 00 00 	lea    0x9208(%rip),%rax        # 1517c <g_28+0x5c>
    bf74:	48 89 85 68 ff ff ff 	mov    %rax,-0x98(%rbp)
    bf7b:	48 8d 85 00 f1 ff ff 	lea    -0xf00(%rbp),%rax
    bf82:	48 89 85 70 ff ff ff 	mov    %rax,-0x90(%rbp)
    bf89:	48 8d 85 50 f2 ff ff 	lea    -0xdb0(%rbp),%rax
    bf90:	48 83 c0 14          	add    $0x14,%rax
    bf94:	48 89 85 78 ff ff ff 	mov    %rax,-0x88(%rbp)
    bf9b:	48 8d 05 5e 95 00 00 	lea    0x955e(%rip),%rax        # 15500 <g_543>
    bfa2:	48 89 45 80          	mov    %rax,-0x80(%rbp)
    bfa6:	48 8d 05 47 95 00 00 	lea    0x9547(%rip),%rax        # 154f4 <g_440>
    bfad:	48 89 45 88          	mov    %rax,-0x78(%rbp)
    bfb1:	48 8d 05 3c 95 00 00 	lea    0x953c(%rip),%rax        # 154f4 <g_440>
    bfb8:	48 89 45 90          	mov    %rax,-0x70(%rbp)
    bfbc:	48 8d 85 50 f2 ff ff 	lea    -0xdb0(%rbp),%rax
    bfc3:	48 83 c0 14          	add    $0x14,%rax
    bfc7:	48 89 45 98          	mov    %rax,-0x68(%rbp)
    bfcb:	48 c7 45 a0 00 00 00 	movq   $0x0,-0x60(%rbp)
    bfd2:	00 
    bfd3:	48 8d 05 a2 91 00 00 	lea    0x91a2(%rip),%rax        # 1517c <g_28+0x5c>
    bfda:	48 89 45 a8          	mov    %rax,-0x58(%rbp)
    bfde:	48 8d 85 50 f2 ff ff 	lea    -0xdb0(%rbp),%rax
    bfe5:	48 83 c0 14          	add    $0x14,%rax
    bfe9:	48 89 45 b0          	mov    %rax,-0x50(%rbp)
    bfed:	48 8d 05 24 91 00 00 	lea    0x9124(%rip),%rax        # 15118 <g_4>
    bff4:	48 89 45 b8          	mov    %rax,-0x48(%rbp)
    bff8:	48 8d 85 50 f2 ff ff 	lea    -0xdb0(%rbp),%rax
    bfff:	48 83 c0 14          	add    $0x14,%rax
    c003:	48 89 45 c0          	mov    %rax,-0x40(%rbp)
    c007:	48 8d 05 d6 92 00 00 	lea    0x92d6(%rip),%rax        # 152e4 <g_246>
    c00e:	48 89 45 c8          	mov    %rax,-0x38(%rbp)
    c012:	c7 85 18 f1 ff ff 00 	movl   $0x0,-0xee8(%rbp)
    c019:	00 00 00 
    c01c:	eb 1e                	jmp    c03c <func_47+0x150c>
    c01e:	8b 85 18 f1 ff ff    	mov    -0xee8(%rbp),%eax
    c024:	48 98                	cltq   
    c026:	48 8d 95 58 f1 ff ff 	lea    -0xea8(%rbp),%rdx
    c02d:	48 89 94 c5 80 f2 ff 	mov    %rdx,-0xd80(%rbp,%rax,8)
    c034:	ff 
    c035:	83 85 18 f1 ff ff 01 	addl   $0x1,-0xee8(%rbp)
    c03c:	83 bd 18 f1 ff ff 04 	cmpl   $0x4,-0xee8(%rbp)
    c043:	7e d9                	jle    c01e <func_47+0x14ee>
    c045:	48 8b 85 c8 f1 ff ff 	mov    -0xe38(%rbp),%rax
    c04c:	c7 00 01 00 00 00    	movl   $0x1,(%rax)
    c052:	48 8b 85 c8 f1 ff ff 	mov    -0xe38(%rbp),%rax
    c059:	8b 00                	mov    (%rax),%eax
    c05b:	25 13 0a 56 d9       	and    $0xd9560a13,%eax
    c060:	89 c2                	mov    %eax,%edx
    c062:	48 8b 85 c8 f1 ff ff 	mov    -0xe38(%rbp),%rax
    c069:	89 10                	mov    %edx,(%rax)
    c06b:	48 8b 05 e6 ae 00 00 	mov    0xaee6(%rip),%rax        # 16f58 <g_448>
    c072:	48 8b 00             	mov    (%rax),%rax
    c075:	0f b7 00             	movzwl (%rax),%eax
    c078:	0f b7 d8             	movzwl %ax,%ebx
    c07b:	48 8b 05 ae ae 00 00 	mov    0xaeae(%rip),%rax        # 16f30 <g_364>
    c082:	48 8b 00             	mov    (%rax),%rax
    c085:	48 85 c0             	test   %rax,%rax
    c088:	48 8b 85 c8 f1 ff ff 	mov    -0xe38(%rbp),%rax
    c08f:	8b 00                	mov    (%rax),%eax
    c091:	41 89 c4             	mov    %eax,%r12d
    c094:	48 8b 85 b8 f2 ff ff 	mov    -0xd48(%rbp),%rax
    c09b:	89 c1                	mov    %eax,%ecx
    c09d:	48 8d 05 7c ae 00 00 	lea    0xae7c(%rip),%rax        # 16f20 <g_366>
    c0a4:	48 89 85 d8 f1 ff ff 	mov    %rax,-0xe28(%rbp)
    c0ab:	48 8b 05 16 ae 00 00 	mov    0xae16(%rip),%rax        # 16ec8 <g_195>
    c0b2:	8b 00                	mov    (%rax),%eax
    c0b4:	85 c0                	test   %eax,%eax
    c0b6:	0f 94 c0             	sete   %al
    c0b9:	0f b6 c0             	movzbl %al,%eax
    c0bc:	39 85 e4 f0 ff ff    	cmp    %eax,-0xf1c(%rbp)
    c0c2:	0f 9e c0             	setle  %al
    c0c5:	0f b6 d0             	movzbl %al,%edx
    c0c8:	48 8b 85 c8 f1 ff ff 	mov    -0xe38(%rbp),%rax
    c0cf:	8b 00                	mov    (%rax),%eax
    c0d1:	39 c2                	cmp    %eax,%edx
    c0d3:	0f 94 c0             	sete   %al
    c0d6:	0f b6 c0             	movzbl %al,%eax
    c0d9:	39 85 e4 f0 ff ff    	cmp    %eax,-0xf1c(%rbp)
    c0df:	0f 94 c0             	sete   %al
    c0e2:	0f b6 c0             	movzbl %al,%eax
    c0e5:	89 ce                	mov    %ecx,%esi
    c0e7:	89 c7                	mov    %eax,%edi
    c0e9:	e8 ca 9d ff ff       	callq  5eb8 <safe_add_func_uint32_t_u_u>
    c0ee:	44 89 e2             	mov    %r12d,%edx
    c0f1:	31 c2                	xor    %eax,%edx
    c0f3:	8b 85 e4 f0 ff ff    	mov    -0xf1c(%rbp),%eax
    c0f9:	39 c2                	cmp    %eax,%edx
    c0fb:	0f 96 c0             	setbe  %al
    c0fe:	0f b6 d0             	movzbl %al,%edx
    c101:	48 8b 85 b8 f2 ff ff 	mov    -0xd48(%rbp),%rax
    c108:	48 39 c2             	cmp    %rax,%rdx
    c10b:	0f 9e c0             	setle  %al
    c10e:	0f b6 d0             	movzbl %al,%edx
    c111:	48 8b 05 40 ae 00 00 	mov    0xae40(%rip),%rax        # 16f58 <g_448>
    c118:	48 8b 00             	mov    (%rax),%rax
    c11b:	0f b7 00             	movzwl (%rax),%eax
    c11e:	98                   	cwtl   
    c11f:	39 c2                	cmp    %eax,%edx
    c121:	8b 85 00 f1 ff ff    	mov    -0xf00(%rbp),%eax
    c127:	85 c0                	test   %eax,%eax
    c129:	74 10                	je     c13b <func_47+0x160b>
    c12b:	83 bd e4 f0 ff ff 00 	cmpl   $0x0,-0xf1c(%rbp)
    c132:	74 07                	je     c13b <func_47+0x160b>
    c134:	b8 01 00 00 00       	mov    $0x1,%eax
    c139:	eb 05                	jmp    c140 <func_47+0x1610>
    c13b:	b8 00 00 00 00       	mov    $0x0,%eax
    c140:	0f b7 c0             	movzwl %ax,%eax
    c143:	89 de                	mov    %ebx,%esi
    c145:	89 c7                	mov    %eax,%edi
    c147:	e8 d3 9b ff ff       	callq  5d1f <safe_sub_func_uint16_t_u_u>
    c14c:	0f b7 c0             	movzwl %ax,%eax
    c14f:	09 85 20 f1 ff ff    	or     %eax,-0xee0(%rbp)
    c155:	48 8b 05 e4 af 00 00 	mov    0xafe4(%rip),%rax        # 17140 <g_881>
    c15c:	48 8b 00             	mov    (%rax),%rax
    c15f:	e9 e3 03 00 00       	jmpq   c547 <func_47+0x1a17>
    c164:	8b 85 1c f1 ff ff    	mov    -0xee4(%rbp),%eax
    c16a:	0f b7 d8             	movzwl %ax,%ebx
    c16d:	8b 05 9d 93 00 00    	mov    0x939d(%rip),%eax        # 15510 <g_612>
    c173:	c1 e0 0b             	shl    $0xb,%eax
    c176:	c1 f8 0c             	sar    $0xc,%eax
    c179:	44 0f bf e0          	movswl %ax,%r12d
    c17d:	48 8b 05 b4 ad 00 00 	mov    0xadb4(%rip),%rax        # 16f38 <g_443>
    c184:	8b 00                	mov    (%rax),%eax
    c186:	0f b7 05 b9 97 00 00 	movzwl 0x97b9(%rip),%eax        # 15946 <g_832+0x6>
    c18d:	44 0f be e8          	movsbl %al,%r13d
    c191:	48 8b 85 80 f1 ff ff 	mov    -0xe80(%rbp),%rax
    c198:	8b 00                	mov    (%rax),%eax
    c19a:	89 c1                	mov    %eax,%ecx
    c19c:	0f b6 05 d1 98 00 00 	movzbl 0x98d1(%rip),%eax        # 15a74 <g_961+0x74>
    c1a3:	0f be d0             	movsbl %al,%edx
    c1a6:	48 8b 85 80 f1 ff ff 	mov    -0xe80(%rbp),%rax
    c1ad:	8b 00                	mov    (%rax),%eax
    c1af:	0b 85 e4 f0 ff ff    	or     -0xf1c(%rbp),%eax
    c1b5:	09 d0                	or     %edx,%eax
    c1b7:	83 f8 26             	cmp    $0x26,%eax
    c1ba:	0f 9f c0             	setg   %al
    c1bd:	0f b6 d0             	movzbl %al,%edx
    c1c0:	8b 85 00 f1 ff ff    	mov    -0xf00(%rbp),%eax
    c1c6:	21 d0                	and    %edx,%eax
    c1c8:	89 85 00 f1 ff ff    	mov    %eax,-0xf00(%rbp)
    c1ce:	8b 85 00 f1 ff ff    	mov    -0xf00(%rbp),%eax
    c1d4:	98                   	cwtl   
    c1d5:	89 ce                	mov    %ecx,%esi
    c1d7:	89 c7                	mov    %eax,%edi
    c1d9:	e8 03 93 ff ff       	callq  54e1 <safe_lshift_func_int16_t_s_u>
    c1de:	66 85 c0             	test   %ax,%ax
    c1e1:	74 14                	je     c1f7 <func_47+0x16c7>
    c1e3:	48 8b 85 80 f1 ff ff 	mov    -0xe80(%rbp),%rax
    c1ea:	8b 00                	mov    (%rax),%eax
    c1ec:	85 c0                	test   %eax,%eax
    c1ee:	74 07                	je     c1f7 <func_47+0x16c7>
    c1f0:	b8 01 00 00 00       	mov    $0x1,%eax
    c1f5:	eb 05                	jmp    c1fc <func_47+0x16cc>
    c1f7:	b8 00 00 00 00       	mov    $0x0,%eax
    c1fc:	89 c1                	mov    %eax,%ecx
    c1fe:	48 8b 85 b8 f1 ff ff 	mov    -0xe48(%rbp),%rax
    c205:	8b 10                	mov    (%rax),%edx
    c207:	0f b7 85 f6 f0 ff ff 	movzwl -0xf0a(%rbp),%eax
    c20e:	21 c2                	and    %eax,%edx
    c210:	48 8b 85 b8 f1 ff ff 	mov    -0xe48(%rbp),%rax
    c217:	89 10                	mov    %edx,(%rax)
    c219:	48 8b 85 b8 f1 ff ff 	mov    -0xe48(%rbp),%rax
    c220:	8b 00                	mov    (%rax),%eax
    c222:	83 c8 fc             	or     $0xfffffffc,%eax
    c225:	89 ce                	mov    %ecx,%esi
    c227:	89 c7                	mov    %eax,%edi
    c229:	e8 cf 9c ff ff       	callq  5efd <safe_mod_func_uint32_t_u_u>
    c22e:	44 89 ee             	mov    %r13d,%esi
    c231:	bf 00 00 00 00       	mov    $0x0,%edi
    c236:	e8 2f 90 ff ff       	callq  526a <safe_div_func_int8_t_s_s>
    c23b:	48 8b 05 86 ac 00 00 	mov    0xac86(%rip),%rax        # 16ec8 <g_195>
    c242:	c7 00 00 00 00 00    	movl   $0x0,(%rax)
    c248:	48 8b 85 90 f1 ff ff 	mov    -0xe70(%rbp),%rax
    c24f:	48 8b 10             	mov    (%rax),%rdx
    c252:	48 8b 85 40 f1 ff ff 	mov    -0xec0(%rbp),%rax
    c259:	48 8b 00             	mov    (%rax),%rax
    c25c:	48 8b 00             	mov    (%rax),%rax
    c25f:	48 8b 12             	mov    (%rdx),%rdx
    c262:	48 89 10             	mov    %rdx,(%rax)
    c265:	48 8b 10             	mov    (%rax),%rdx
    c268:	48 8b 05 e9 ac 00 00 	mov    0xace9(%rip),%rax        # 16f58 <g_448>
    c26f:	48 8b 00             	mov    (%rax),%rax
    c272:	48 39 c2             	cmp    %rax,%rdx
    c275:	0f 95 c0             	setne  %al
    c278:	0f b6 c0             	movzbl %al,%eax
    c27b:	44 89 e6             	mov    %r12d,%esi
    c27e:	89 c7                	mov    %eax,%edi
    c280:	e8 d0 91 ff ff       	callq  5455 <safe_div_func_int16_t_s_s>
    c285:	0f bf d0             	movswl %ax,%edx
    c288:	48 8b 85 80 f1 ff ff 	mov    -0xe80(%rbp),%rax
    c28f:	8b 08                	mov    (%rax),%ecx
    c291:	48 8b 85 a8 f1 ff ff 	mov    -0xe58(%rbp),%rax
    c298:	89 08                	mov    %ecx,(%rax)
    c29a:	48 8b 85 a8 f1 ff ff 	mov    -0xe58(%rbp),%rax
    c2a1:	8b 00                	mov    (%rax),%eax
    c2a3:	89 d6                	mov    %edx,%esi
    c2a5:	89 c7                	mov    %eax,%edi
    c2a7:	e8 20 94 ff ff       	callq  56cc <safe_mod_func_int32_t_s_s>
    c2ac:	85 c0                	test   %eax,%eax
    c2ae:	74 1b                	je     c2cb <func_47+0x179b>
    c2b0:	48 8b 05 d1 91 00 00 	mov    0x91d1(%rip),%rax        # 15488 <g_267+0x8>
    c2b7:	48 c1 e8 0d          	shr    $0xd,%rax
    c2bb:	25 ff ff ff 07       	and    $0x7ffffff,%eax
    c2c0:	85 c0                	test   %eax,%eax
    c2c2:	74 07                	je     c2cb <func_47+0x179b>
    c2c4:	ba 01 00 00 00       	mov    $0x1,%edx
    c2c9:	eb 05                	jmp    c2d0 <func_47+0x17a0>
    c2cb:	ba 00 00 00 00       	mov    $0x0,%edx
    c2d0:	0f b7 05 b1 91 00 00 	movzwl 0x91b1(%rip),%eax        # 15488 <g_267+0x8>
    c2d7:	c1 e0 03             	shl    $0x3,%eax
    c2da:	66 c1 f8 04          	sar    $0x4,%ax
    c2de:	98                   	cwtl   
    c2df:	39 c2                	cmp    %eax,%edx
    c2e1:	0f 9c c0             	setl   %al
    c2e4:	0f b6 c0             	movzbl %al,%eax
    c2e7:	23 85 e4 f0 ff ff    	and    -0xf1c(%rbp),%eax
    c2ed:	89 c2                	mov    %eax,%edx
    c2ef:	0f b7 85 f6 f0 ff ff 	movzwl -0xf0a(%rbp),%eax
    c2f6:	39 c2                	cmp    %eax,%edx
    c2f8:	7e 07                	jle    c301 <func_47+0x17d1>
    c2fa:	b8 60 cc 00 00       	mov    $0xcc60,%eax
    c2ff:	eb 05                	jmp    c306 <func_47+0x17d6>
    c301:	b8 61 cc 00 00       	mov    $0xcc61,%eax
    c306:	89 de                	mov    %ebx,%esi
    c308:	89 c7                	mov    %eax,%edi
    c30a:	e8 10 9a ff ff       	callq  5d1f <safe_sub_func_uint16_t_u_u>
    c30f:	0f b7 d0             	movzwl %ax,%edx
    c312:	48 8b 85 80 f1 ff ff 	mov    -0xe80(%rbp),%rax
    c319:	8b 00                	mov    (%rax),%eax
    c31b:	39 c2                	cmp    %eax,%edx
    c31d:	0f 9e c0             	setle  %al
    c320:	0f b6 d0             	movzbl %al,%edx
    c323:	8b 05 77 8e 00 00    	mov    0x8e77(%rip),%eax        # 151a0 <g_51>
    c329:	39 c2                	cmp    %eax,%edx
    c32b:	7d 11                	jge    c33e <func_47+0x180e>
    c32d:	8b 05 a9 91 00 00    	mov    0x91a9(%rip),%eax        # 154dc <g_424>
    c333:	85 c0                	test   %eax,%eax
    c335:	74 07                	je     c33e <func_47+0x180e>
    c337:	ba 01 00 00 00       	mov    $0x1,%edx
    c33c:	eb 05                	jmp    c343 <func_47+0x1813>
    c33e:	ba 00 00 00 00       	mov    $0x0,%edx
    c343:	48 8b 05 5e ab 00 00 	mov    0xab5e(%rip),%rax        # 16ea8 <g_172>
    c34a:	89 10                	mov    %edx,(%rax)
    c34c:	48 8b 05 8d ab 00 00 	mov    0xab8d(%rip),%rax        # 16ee0 <g_221>
    c353:	48 8b 00             	mov    (%rax),%rax
    c356:	8b 00                	mov    (%rax),%eax
    c358:	66 89 85 fc f0 ff ff 	mov    %ax,-0xf04(%rbp)
    c35f:	8b 05 3b 8e 00 00    	mov    0x8e3b(%rip),%eax        # 151a0 <g_51>
    c365:	83 c0 01             	add    $0x1,%eax
    c368:	89 05 32 8e 00 00    	mov    %eax,0x8e32(%rip)        # 151a0 <g_51>
    c36e:	8b 05 2c 8e 00 00    	mov    0x8e2c(%rip),%eax        # 151a0 <g_51>
    c374:	83 f8 05             	cmp    $0x5,%eax
    c377:	0f 8e db ea ff ff    	jle    ae58 <func_47+0x328>
    c37d:	83 ad e4 f0 ff ff 01 	subl   $0x1,-0xf1c(%rbp)
    c384:	83 bd e4 f0 ff ff 00 	cmpl   $0x0,-0xf1c(%rbp)
    c38b:	0f 89 6e ea ff ff    	jns    adff <func_47+0x2cf>
    c391:	8b 85 e4 f0 ff ff    	mov    -0xf1c(%rbp),%eax
    c397:	0f b6 d8             	movzbl %al,%ebx
    c39a:	8b 85 e4 f0 ff ff    	mov    -0xf1c(%rbp),%eax
    c3a0:	44 0f b7 e0          	movzwl %ax,%r12d
    c3a4:	48 8b 85 68 f1 ff ff 	mov    -0xe98(%rbp),%rax
    c3ab:	0f b7 00             	movzwl (%rax),%eax
    c3ae:	8d 48 ff             	lea    -0x1(%rax),%ecx
    c3b1:	48 8b 95 68 f1 ff ff 	mov    -0xe98(%rbp),%rdx
    c3b8:	66 89 0a             	mov    %cx,(%rdx)
    c3bb:	0f b7 c0             	movzwl %ax,%eax
    c3be:	89 c7                	mov    %eax,%edi
    c3c0:	e8 24 99 ff ff       	callq  5ce9 <safe_unary_minus_func_uint16_t_u>
    c3c5:	41 89 c5             	mov    %eax,%r13d
    c3c8:	0f b6 95 f5 f0 ff ff 	movzbl -0xf0b(%rbp),%edx
    c3cf:	0f b7 85 f6 f0 ff ff 	movzwl -0xf0a(%rbp),%eax
    c3d6:	09 d0                	or     %edx,%eax
    c3d8:	be f7 ff ff ff       	mov    $0xfffffff7,%esi
    c3dd:	89 c7                	mov    %eax,%edi
    c3df:	e8 e8 92 ff ff       	callq  56cc <safe_mod_func_int32_t_s_s>
    c3e4:	8b 85 50 f2 ff ff    	mov    -0xdb0(%rbp),%eax
    c3ea:	48 98                	cltq   
    c3ec:	48 89 c6             	mov    %rax,%rsi
    c3ef:	bf 01 00 00 00       	mov    $0x1,%edi
    c3f4:	e8 b6 9c ff ff       	callq  60af <safe_div_func_uint64_t_u_u>
    c3f9:	48 85 c0             	test   %rax,%rax
    c3fc:	75 0d                	jne    c40b <func_47+0x18db>
    c3fe:	48 8b 05 c3 aa 00 00 	mov    0xaac3(%rip),%rax        # 16ec8 <g_195>
    c405:	8b 00                	mov    (%rax),%eax
    c407:	85 c0                	test   %eax,%eax
    c409:	74 07                	je     c412 <func_47+0x18e2>
    c40b:	ba 01 00 00 00       	mov    $0x1,%edx
    c410:	eb 05                	jmp    c417 <func_47+0x18e7>
    c412:	ba 00 00 00 00       	mov    $0x0,%edx
    c417:	8b 85 e4 f0 ff ff    	mov    -0xf1c(%rbp),%eax
    c41d:	89 d6                	mov    %edx,%esi
    c41f:	89 c7                	mov    %eax,%edi
    c421:	e8 a6 92 ff ff       	callq  56cc <safe_mod_func_int32_t_s_s>
    c426:	be 01 00 00 00       	mov    $0x1,%esi
    c42b:	bf 01 00 00 00       	mov    $0x1,%edi
    c430:	e8 37 8f ff ff       	callq  536c <safe_rshift_func_int8_t_s_u>
    c435:	0f b7 05 06 95 00 00 	movzwl 0x9506(%rip),%eax        # 15942 <g_832+0x2>
    c43c:	0f b7 c0             	movzwl %ax,%eax
    c43f:	be 06 00 00 00       	mov    $0x6,%esi
    c444:	89 c7                	mov    %eax,%edi
    c446:	e8 73 99 ff ff       	callq  5dbe <safe_lshift_func_uint16_t_u_s>
    c44b:	0f b7 d0             	movzwl %ax,%edx
    c44e:	48 8b 05 fb ac 00 00 	mov    0xacfb(%rip),%rax        # 17150 <g_1019>
    c455:	48 85 c0             	test   %rax,%rax
    c458:	0f 95 c0             	setne  %al
    c45b:	0f b6 c0             	movzbl %al,%eax
    c45e:	39 c2                	cmp    %eax,%edx
    c460:	0f 9c c0             	setl   %al
    c463:	0f b6 c0             	movzbl %al,%eax
    c466:	8b 95 e4 f0 ff ff    	mov    -0xf1c(%rbp),%edx
    c46c:	89 d6                	mov    %edx,%esi
    c46e:	89 c7                	mov    %eax,%edi
    c470:	e8 18 98 ff ff       	callq  5c8d <safe_rshift_func_uint8_t_u_s>
    c475:	0f b6 c0             	movzbl %al,%eax
    c478:	44 21 e8             	and    %r13d,%eax
    c47b:	0f b7 c0             	movzwl %ax,%eax
    c47e:	44 89 e6             	mov    %r12d,%esi
    c481:	89 c7                	mov    %eax,%edi
    c483:	e8 b5 98 ff ff       	callq  5d3d <safe_mul_func_uint16_t_u_u>
    c488:	0f b7 d0             	movzwl %ax,%edx
    c48b:	48 8b 85 70 f1 ff ff 	mov    -0xe90(%rbp),%rax
    c492:	89 10                	mov    %edx,(%rax)
    c494:	48 8b 85 70 f1 ff ff 	mov    -0xe90(%rbp),%rax
    c49b:	8b 00                	mov    (%rax),%eax
    c49d:	48 98                	cltq   
    c49f:	48 89 85 78 f1 ff ff 	mov    %rax,-0xe88(%rbp)
    c4a6:	b8 01 00 00 00       	mov    $0x1,%eax
    c4ab:	0f b6 c0             	movzbl %al,%eax
    c4ae:	be 01 00 00 00       	mov    $0x1,%esi
    c4b3:	89 c7                	mov    %eax,%edi
    c4b5:	e8 d3 97 ff ff       	callq  5c8d <safe_rshift_func_uint8_t_u_s>
    c4ba:	0f b6 c0             	movzbl %al,%eax
    c4bd:	39 85 e4 f0 ff ff    	cmp    %eax,-0xf1c(%rbp)
    c4c3:	0f 95 c0             	setne  %al
    c4c6:	0f b6 c0             	movzbl %al,%eax
    c4c9:	39 85 e4 f0 ff ff    	cmp    %eax,-0xf1c(%rbp)
    c4cf:	0f 9d c0             	setge  %al
    c4d2:	0f b6 c0             	movzbl %al,%eax
    c4d5:	66 89 85 f8 f0 ff ff 	mov    %ax,-0xf08(%rbp)
    c4dc:	0f bf 85 f8 f0 ff ff 	movswl -0xf08(%rbp),%eax
    c4e3:	39 85 e4 f0 ff ff    	cmp    %eax,-0xf1c(%rbp)
    c4e9:	7e 07                	jle    c4f2 <func_47+0x19c2>
    c4eb:	b8 05 00 00 00       	mov    $0x5,%eax
    c4f0:	eb 05                	jmp    c4f7 <func_47+0x19c7>
    c4f2:	b8 04 00 00 00       	mov    $0x4,%eax
    c4f7:	89 de                	mov    %ebx,%esi
    c4f9:	89 c7                	mov    %eax,%edi
    c4fb:	e8 78 96 ff ff       	callq  5b78 <safe_sub_func_uint8_t_u_u>
    c500:	84 c0                	test   %al,%al
    c502:	74 10                	je     c514 <func_47+0x19e4>
    c504:	83 bd e4 f0 ff ff 00 	cmpl   $0x0,-0xf1c(%rbp)
    c50b:	74 07                	je     c514 <func_47+0x19e4>
    c50d:	b8 01 00 00 00       	mov    $0x1,%eax
    c512:	eb 05                	jmp    c519 <func_47+0x19e9>
    c514:	b8 00 00 00 00       	mov    $0x0,%eax
    c519:	48 98                	cltq   
    c51b:	48 89 c7             	mov    %rax,%rdi
    c51e:	e8 f6 9a ff ff       	callq  6019 <safe_unary_minus_func_uint64_t_u>
    c523:	8b 95 e4 f0 ff ff    	mov    -0xf1c(%rbp),%edx
    c529:	48 63 d2             	movslq %edx,%rdx
    c52c:	48 09 c2             	or     %rax,%rdx
    c52f:	8b 85 24 f2 ff ff    	mov    -0xddc(%rbp),%eax
    c535:	31 d0                	xor    %edx,%eax
    c537:	89 85 24 f2 ff ff    	mov    %eax,-0xddc(%rbp)
    c53d:	48 8b 05 ec ab 00 00 	mov    0xabec(%rip),%rax        # 17130 <g_566>
    c544:	48 8b 00             	mov    (%rax),%rax
    c547:	48 8b 5d d8          	mov    -0x28(%rbp),%rbx
    c54b:	64 48 33 1c 25 28 00 	xor    %fs:0x28,%rbx
    c552:	00 00 
    c554:	74 05                	je     c55b <func_47+0x1a2b>
    c556:	e8 15 8b ff ff       	callq  5070 <__stack_chk_fail@plt>
    c55b:	48 81 c4 00 0f 00 00 	add    $0xf00,%rsp
    c562:	5b                   	pop    %rbx
    c563:	41 5c                	pop    %r12
    c565:	41 5d                	pop    %r13
    c567:	41 5e                	pop    %r14
    c569:	5d                   	pop    %rbp
    c56a:	c3                   	retq   

000000000000c56b <func_57>:
    c56b:	f3 0f 1e fa          	endbr64 
    c56f:	55                   	push   %rbp
    c570:	48 89 e5             	mov    %rsp,%rbp
    c573:	41 54                	push   %r12
    c575:	53                   	push   %rbx
    c576:	48 81 ec 00 10 00 00 	sub    $0x1000,%rsp
    c57d:	48 83 0c 24 00       	orq    $0x0,(%rsp)
    c582:	48 81 ec 00 06 00 00 	sub    $0x600,%rsp
    c589:	89 f8                	mov    %edi,%eax
    c58b:	88 85 fc e9 ff ff    	mov    %al,-0x1604(%rbp)
    c591:	64 48 8b 04 25 28 00 	mov    %fs:0x28,%rax
    c598:	00 00 
    c59a:	48 89 45 e8          	mov    %rax,-0x18(%rbp)
    c59e:	31 c0                	xor    %eax,%eax
    c5a0:	48 c7 85 e0 ea ff ff 	movq   $0x0,-0x1520(%rbp)
    c5a7:	00 00 00 00 
    c5ab:	c7 85 4c ea ff ff 06 	movl   $0x6,-0x15b4(%rbp)
    c5b2:	00 00 00 
    c5b5:	c6 85 03 ea ff ff 58 	movb   $0x58,-0x15fd(%rbp)
    c5bc:	c7 85 10 ea ff ff 67 	movl   $0x52d96c67,-0x15f0(%rbp)
    c5c3:	6c d9 52 
    c5c6:	c7 85 50 ea ff ff ff 	movl   $0xffffffff,-0x15b0(%rbp)
    c5cd:	ff ff ff 
    c5d0:	c7 85 14 ea ff ff 00 	movl   $0x0,-0x15ec(%rbp)
    c5d7:	00 00 00 
    c5da:	c7 85 18 ea ff ff 00 	movl   $0x0,-0x15e8(%rbp)
    c5e1:	00 00 00 
    c5e4:	48 c7 85 e8 ea ff ff 	movq   $0xfffffffffffffffa,-0x1518(%rbp)
    c5eb:	fa ff ff ff 
    c5ef:	48 c7 85 a0 ea ff ff 	movq   $0x8,-0x1560(%rbp)
    c5f6:	08 00 00 00 
    c5fa:	48 8d 05 07 a9 00 00 	lea    0xa907(%rip),%rax        # 16f08 <g_367+0x8>
    c601:	48 89 85 f0 ea ff ff 	mov    %rax,-0x1510(%rbp)
    c608:	c7 85 54 ea ff ff c9 	movl   $0x21e1bfc9,-0x15ac(%rbp)
    c60f:	bf e1 21 
    c612:	c7 85 58 ea ff ff 3b 	movl   $0xf70f9a3b,-0x15a8(%rbp)
    c619:	9a 0f f7 
    c61c:	c7 85 30 ea ff ff ff 	movl   $0xffffffff,-0x15d0(%rbp)
    c623:	ff ff ff 
    c626:	48 8d 85 e0 ec ff ff 	lea    -0x1320(%rbp),%rax
    c62d:	48 83 c0 08          	add    $0x8,%rax
    c631:	48 89 85 f8 ea ff ff 	mov    %rax,-0x1508(%rbp)
    c638:	c7 85 5c ea ff ff 84 	movl   $0x56fd6e84,-0x15a4(%rbp)
    c63f:	6e fd 56 
    c642:	48 8d 85 10 ea ff ff 	lea    -0x15f0(%rbp),%rax
    c649:	48 89 85 90 ec ff ff 	mov    %rax,-0x1370(%rbp)
    c650:	48 8d 85 10 ea ff ff 	lea    -0x15f0(%rbp),%rax
    c657:	48 89 85 98 ec ff ff 	mov    %rax,-0x1368(%rbp)
    c65e:	48 8d 85 10 ea ff ff 	lea    -0x15f0(%rbp),%rax
    c665:	48 89 85 a0 ec ff ff 	mov    %rax,-0x1360(%rbp)
    c66c:	48 8d 85 10 ea ff ff 	lea    -0x15f0(%rbp),%rax
    c673:	48 89 85 a8 ec ff ff 	mov    %rax,-0x1358(%rbp)
    c67a:	48 c7 85 00 eb ff ff 	movq   $0x0,-0x1500(%rbp)
    c681:	00 00 00 00 
    c685:	66 c7 85 08 ea ff ff 	movw   $0xfff8,-0x15f8(%rbp)
    c68c:	f8 ff 
    c68e:	c6 85 05 ea ff ff 4e 	movb   $0x4e,-0x15fb(%rbp)
    c695:	48 c7 85 a8 ea ff ff 	movq   $0x0,-0x1558(%rbp)
    c69c:	00 00 00 00 
    c6a0:	48 c7 85 10 ee ff ff 	movq   $0x0,-0x11f0(%rbp)
    c6a7:	00 00 00 00 
    c6ab:	48 c7 85 18 ee ff ff 	movq   $0x0,-0x11e8(%rbp)
    c6b2:	00 00 00 00 
    c6b6:	48 8d 85 a8 ea ff ff 	lea    -0x1558(%rbp),%rax
    c6bd:	48 89 85 20 ee ff ff 	mov    %rax,-0x11e0(%rbp)
    c6c4:	48 8d 85 a8 ea ff ff 	lea    -0x1558(%rbp),%rax
    c6cb:	48 89 85 28 ee ff ff 	mov    %rax,-0x11d8(%rbp)
    c6d2:	48 8d 85 a8 ea ff ff 	lea    -0x1558(%rbp),%rax
    c6d9:	48 89 85 30 ee ff ff 	mov    %rax,-0x11d0(%rbp)
    c6e0:	48 8d 85 a8 ea ff ff 	lea    -0x1558(%rbp),%rax
    c6e7:	48 89 85 38 ee ff ff 	mov    %rax,-0x11c8(%rbp)
    c6ee:	48 8d 85 a8 ea ff ff 	lea    -0x1558(%rbp),%rax
    c6f5:	48 89 85 40 ee ff ff 	mov    %rax,-0x11c0(%rbp)
    c6fc:	48 8d 85 a8 ea ff ff 	lea    -0x1558(%rbp),%rax
    c703:	48 89 85 48 ee ff ff 	mov    %rax,-0x11b8(%rbp)
    c70a:	48 c7 85 50 ee ff ff 	movq   $0x0,-0x11b0(%rbp)
    c711:	00 00 00 00 
    c715:	48 8d 85 a8 ea ff ff 	lea    -0x1558(%rbp),%rax
    c71c:	48 89 85 58 ee ff ff 	mov    %rax,-0x11a8(%rbp)
    c723:	48 c7 85 60 ee ff ff 	movq   $0x0,-0x11a0(%rbp)
    c72a:	00 00 00 00 
    c72e:	48 8d 85 a8 ea ff ff 	lea    -0x1558(%rbp),%rax
    c735:	48 89 85 68 ee ff ff 	mov    %rax,-0x1198(%rbp)
    c73c:	48 c7 85 70 ee ff ff 	movq   $0x0,-0x1190(%rbp)
    c743:	00 00 00 00 
    c747:	48 8d 85 a8 ea ff ff 	lea    -0x1558(%rbp),%rax
    c74e:	48 89 85 78 ee ff ff 	mov    %rax,-0x1188(%rbp)
    c755:	48 c7 85 80 ee ff ff 	movq   $0x0,-0x1180(%rbp)
    c75c:	00 00 00 00 
    c760:	48 8d 85 a8 ea ff ff 	lea    -0x1558(%rbp),%rax
    c767:	48 89 85 88 ee ff ff 	mov    %rax,-0x1178(%rbp)
    c76e:	48 c7 85 90 ee ff ff 	movq   $0x0,-0x1170(%rbp)
    c775:	00 00 00 00 
    c779:	48 8d 85 a8 ea ff ff 	lea    -0x1558(%rbp),%rax
    c780:	48 89 85 98 ee ff ff 	mov    %rax,-0x1168(%rbp)
    c787:	48 8d 85 a8 ea ff ff 	lea    -0x1558(%rbp),%rax
    c78e:	48 89 85 a0 ee ff ff 	mov    %rax,-0x1160(%rbp)
    c795:	48 8d 85 a8 ea ff ff 	lea    -0x1558(%rbp),%rax
    c79c:	48 89 85 a8 ee ff ff 	mov    %rax,-0x1158(%rbp)
    c7a3:	48 8d 85 a8 ea ff ff 	lea    -0x1558(%rbp),%rax
    c7aa:	48 89 85 b0 ee ff ff 	mov    %rax,-0x1150(%rbp)
    c7b1:	48 c7 85 b8 ee ff ff 	movq   $0x0,-0x1148(%rbp)
    c7b8:	00 00 00 00 
    c7bc:	48 c7 85 c0 ee ff ff 	movq   $0x0,-0x1140(%rbp)
    c7c3:	00 00 00 00 
    c7c7:	48 8d 85 a8 ea ff ff 	lea    -0x1558(%rbp),%rax
    c7ce:	48 89 85 c8 ee ff ff 	mov    %rax,-0x1138(%rbp)
    c7d5:	48 8d 85 a8 ea ff ff 	lea    -0x1558(%rbp),%rax
    c7dc:	48 89 85 d0 ee ff ff 	mov    %rax,-0x1130(%rbp)
    c7e3:	48 8d 85 a8 ea ff ff 	lea    -0x1558(%rbp),%rax
    c7ea:	48 89 85 d8 ee ff ff 	mov    %rax,-0x1128(%rbp)
    c7f1:	48 8d 85 a8 ea ff ff 	lea    -0x1558(%rbp),%rax
    c7f8:	48 89 85 e0 ee ff ff 	mov    %rax,-0x1120(%rbp)
    c7ff:	48 c7 85 e8 ee ff ff 	movq   $0x0,-0x1118(%rbp)
    c806:	00 00 00 00 
    c80a:	48 c7 85 f0 ee ff ff 	movq   $0x0,-0x1110(%rbp)
    c811:	00 00 00 00 
    c815:	48 c7 85 f8 ee ff ff 	movq   $0x0,-0x1108(%rbp)
    c81c:	00 00 00 00 
    c820:	48 8d 85 a8 ea ff ff 	lea    -0x1558(%rbp),%rax
    c827:	48 89 85 00 ef ff ff 	mov    %rax,-0x1100(%rbp)
    c82e:	48 c7 85 08 ef ff ff 	movq   $0x0,-0x10f8(%rbp)
    c835:	00 00 00 00 
    c839:	48 c7 85 10 ef ff ff 	movq   $0x0,-0x10f0(%rbp)
    c840:	00 00 00 00 
    c844:	48 c7 85 18 ef ff ff 	movq   $0x0,-0x10e8(%rbp)
    c84b:	00 00 00 00 
    c84f:	48 8d 85 a8 ea ff ff 	lea    -0x1558(%rbp),%rax
    c856:	48 89 85 20 ef ff ff 	mov    %rax,-0x10e0(%rbp)
    c85d:	48 c7 85 28 ef ff ff 	movq   $0x0,-0x10d8(%rbp)
    c864:	00 00 00 00 
    c868:	48 8d 85 a8 ea ff ff 	lea    -0x1558(%rbp),%rax
    c86f:	48 89 85 30 ef ff ff 	mov    %rax,-0x10d0(%rbp)
    c876:	48 c7 85 38 ef ff ff 	movq   $0x0,-0x10c8(%rbp)
    c87d:	00 00 00 00 
    c881:	48 8d 85 a8 ea ff ff 	lea    -0x1558(%rbp),%rax
    c888:	48 89 85 40 ef ff ff 	mov    %rax,-0x10c0(%rbp)
    c88f:	48 8d 85 a8 ea ff ff 	lea    -0x1558(%rbp),%rax
    c896:	48 89 85 48 ef ff ff 	mov    %rax,-0x10b8(%rbp)
    c89d:	48 c7 85 50 ef ff ff 	movq   $0x0,-0x10b0(%rbp)
    c8a4:	00 00 00 00 
    c8a8:	48 8d 85 a8 ea ff ff 	lea    -0x1558(%rbp),%rax
    c8af:	48 89 85 58 ef ff ff 	mov    %rax,-0x10a8(%rbp)
    c8b6:	48 8d 85 a8 ea ff ff 	lea    -0x1558(%rbp),%rax
    c8bd:	48 89 85 60 ef ff ff 	mov    %rax,-0x10a0(%rbp)
    c8c4:	48 8d 85 a8 ea ff ff 	lea    -0x1558(%rbp),%rax
    c8cb:	48 89 85 68 ef ff ff 	mov    %rax,-0x1098(%rbp)
    c8d2:	48 8d 85 a8 ea ff ff 	lea    -0x1558(%rbp),%rax
    c8d9:	48 89 85 70 ef ff ff 	mov    %rax,-0x1090(%rbp)
    c8e0:	48 8d 85 c0 f1 ff ff 	lea    -0xe40(%rbp),%rax
    c8e7:	48 8d 15 72 4d 00 00 	lea    0x4d72(%rip),%rdx        # 11660 <g_589+0x1608>
    c8ee:	b9 64 00 00 00       	mov    $0x64,%ecx
    c8f3:	48 89 c7             	mov    %rax,%rdi
    c8f6:	48 89 d6             	mov    %rdx,%rsi
    c8f9:	f3 48 a5             	rep movsq %ds:(%rsi),%es:(%rdi)
    c8fc:	c7 85 34 ea ff ff 00 	movl   $0x0,-0x15cc(%rbp)
    c903:	00 00 00 
    c906:	eb 1a                	jmp    c922 <func_57+0x3b7>
    c908:	8b 85 34 ea ff ff    	mov    -0x15cc(%rbp),%eax
    c90e:	48 98                	cltq   
    c910:	c7 84 85 34 ec ff ff 	movl   $0x0,-0x13cc(%rbp,%rax,4)
    c917:	00 00 00 00 
    c91b:	83 85 34 ea ff ff 01 	addl   $0x1,-0x15cc(%rbp)
    c922:	83 bd 34 ea ff ff 02 	cmpl   $0x2,-0x15cc(%rbp)
    c929:	7e dd                	jle    c908 <func_57+0x39d>
    c92b:	c7 85 34 ea ff ff 00 	movl   $0x0,-0x15cc(%rbp)
    c932:	00 00 00 
    c935:	eb 1e                	jmp    c955 <func_57+0x3ea>
    c937:	8b 85 34 ea ff ff    	mov    -0x15cc(%rbp),%eax
    c93d:	48 98                	cltq   
    c93f:	48 8d 15 82 a5 00 00 	lea    0xa582(%rip),%rdx        # 16ec8 <g_195>
    c946:	48 89 94 c5 e0 ec ff 	mov    %rdx,-0x1320(%rbp,%rax,8)
    c94d:	ff 
    c94e:	83 85 34 ea ff ff 01 	addl   $0x1,-0x15cc(%rbp)
    c955:	83 bd 34 ea ff ff 05 	cmpl   $0x5,-0x15cc(%rbp)
    c95c:	7e d9                	jle    c937 <func_57+0x3cc>
    c95e:	c7 85 34 ea ff ff 00 	movl   $0x0,-0x15cc(%rbp)
    c965:	00 00 00 
    c968:	eb 1b                	jmp    c985 <func_57+0x41a>
    c96a:	8b 85 34 ea ff ff    	mov    -0x15cc(%rbp),%eax
    c970:	48 98                	cltq   
    c972:	48 c7 84 c5 10 ed ff 	movq   $0x0,-0x12f0(%rbp,%rax,8)
    c979:	ff 00 00 00 00 
    c97e:	83 85 34 ea ff ff 01 	addl   $0x1,-0x15cc(%rbp)
    c985:	83 bd 34 ea ff ff 05 	cmpl   $0x5,-0x15cc(%rbp)
    c98c:	7e dc                	jle    c96a <func_57+0x3ff>
    c98e:	48 83 bd e0 ea ff ff 	cmpq   $0x0,-0x1520(%rbp)
    c995:	00 
    c996:	0f 84 6b 16 00 00    	je     e007 <func_57+0x1a9c>
    c99c:	48 8d 05 01 88 00 00 	lea    0x8801(%rip),%rax        # 151a4 <g_55>
    c9a3:	48 89 85 b0 ea ff ff 	mov    %rax,-0x1550(%rbp)
    c9aa:	48 8d 85 b0 ea ff ff 	lea    -0x1550(%rbp),%rax
    c9b1:	48 89 85 18 eb ff ff 	mov    %rax,-0x14e8(%rbp)
    c9b8:	c7 85 38 ea ff ff d3 	movl   $0xd1843ad3,-0x15c8(%rbp)
    c9bf:	3a 84 d1 
    c9c2:	48 8d 05 23 88 00 00 	lea    0x8823(%rip),%rax        # 151ec <g_75+0x2c>
    c9c9:	48 89 85 20 eb ff ff 	mov    %rax,-0x14e0(%rbp)
    c9d0:	48 8d 05 89 88 00 00 	lea    0x8889(%rip),%rax        # 15260 <g_77>
    c9d7:	48 89 85 b8 ea ff ff 	mov    %rax,-0x1548(%rbp)
    c9de:	48 8d 05 07 88 00 00 	lea    0x8807(%rip),%rax        # 151ec <g_75+0x2c>
    c9e5:	48 89 85 c0 ea ff ff 	mov    %rax,-0x1540(%rbp)
    c9ec:	48 8d 85 c0 ea ff ff 	lea    -0x1540(%rbp),%rax
    c9f3:	48 89 85 c8 ea ff ff 	mov    %rax,-0x1538(%rbp)
    c9fa:	c7 85 1c ea ff ff 0b 	movl   $0x56aea00b,-0x15e4(%rbp)
    ca01:	a0 ae 56 
    ca04:	c6 85 04 ea ff ff 87 	movb   $0x87,-0x15fc(%rbp)
    ca0b:	c7 85 60 ea ff ff 01 	movl   $0x1,-0x15a0(%rbp)
    ca12:	00 00 00 
    ca15:	c7 85 64 ea ff ff ca 	movl   $0x8d3784ca,-0x159c(%rbp)
    ca1c:	84 37 8d 
    ca1f:	c7 85 20 ea ff ff 16 	movl   $0x2f4cf316,-0x15e0(%rbp)
    ca26:	f3 4c 2f 
    ca29:	c7 85 68 ea ff ff 25 	movl   $0xab89a725,-0x1598(%rbp)
    ca30:	a7 89 ab 
    ca33:	c7 85 6c ea ff ff 6c 	movl   $0x48992c6c,-0x1594(%rbp)
    ca3a:	2c 99 48 
    ca3d:	c7 85 24 ea ff ff f7 	movl   $0xfffffff7,-0x15dc(%rbp)
    ca44:	ff ff ff 
    ca47:	48 c7 85 28 eb ff ff 	movq   $0x0,-0x14d8(%rbp)
    ca4e:	00 00 00 00 
    ca52:	c7 85 70 ea ff ff ff 	movl   $0xffffffff,-0x1590(%rbp)
    ca59:	ff ff ff 
    ca5c:	c7 85 74 ea ff ff 03 	movl   $0x3,-0x158c(%rbp)
    ca63:	00 00 00 
    ca66:	48 c7 85 30 eb ff ff 	movq   $0x6,-0x14d0(%rbp)
    ca6d:	06 00 00 00 
    ca71:	48 c7 85 d0 ea ff ff 	movq   $0x0,-0x1530(%rbp)
    ca78:	00 00 00 00 
    ca7c:	48 8d 85 d0 ea ff ff 	lea    -0x1530(%rbp),%rax
    ca83:	48 89 85 38 eb ff ff 	mov    %rax,-0x14c8(%rbp)
    ca8a:	c6 85 06 ea ff ff 00 	movb   $0x0,-0x15fa(%rbp)
    ca91:	c7 85 b0 ec ff ff 32 	movl   $0x9c8e9132,-0x1350(%rbp)
    ca98:	91 8e 9c 
    ca9b:	c7 85 b4 ec ff ff fc 	movl   $0xfffffffc,-0x134c(%rbp)
    caa2:	ff ff ff 
    caa5:	c7 85 b8 ec ff ff 96 	movl   $0x805e1196,-0x1348(%rbp)
    caac:	11 5e 80 
    caaf:	c7 85 bc ec ff ff fc 	movl   $0xfffffffc,-0x1344(%rbp)
    cab6:	ff ff ff 
    cab9:	c7 85 c0 ec ff ff 32 	movl   $0x9c8e9132,-0x1340(%rbp)
    cac0:	91 8e 9c 
    cac3:	c7 85 c4 ec ff ff 32 	movl   $0x9c8e9132,-0x133c(%rbp)
    caca:	91 8e 9c 
    cacd:	c7 85 c8 ec ff ff fc 	movl   $0xfffffffc,-0x1338(%rbp)
    cad4:	ff ff ff 
    cad7:	c7 85 cc ec ff ff 96 	movl   $0x805e1196,-0x1334(%rbp)
    cade:	11 5e 80 
    cae1:	c7 85 d0 ec ff ff fc 	movl   $0xfffffffc,-0x1330(%rbp)
    cae8:	ff ff ff 
    caeb:	c7 85 d4 ec ff ff 32 	movl   $0x9c8e9132,-0x132c(%rbp)
    caf2:	91 8e 9c 
    caf5:	c7 85 78 ea ff ff 01 	movl   $0x1,-0x1588(%rbp)
    cafc:	00 00 00 
    caff:	c7 85 7c ea ff ff 01 	movl   $0x1,-0x1584(%rbp)
    cb06:	00 00 00 
    cb09:	c7 85 50 ec ff ff 06 	movl   $0x6,-0x13b0(%rbp)
    cb10:	00 00 00 
    cb13:	c7 85 54 ec ff ff 06 	movl   $0x6,-0x13ac(%rbp)
    cb1a:	00 00 00 
    cb1d:	c7 85 58 ec ff ff 06 	movl   $0x6,-0x13a8(%rbp)
    cb24:	00 00 00 
    cb27:	c7 85 5c ec ff ff 06 	movl   $0x6,-0x13a4(%rbp)
    cb2e:	00 00 00 
    cb31:	c7 85 60 ec ff ff 06 	movl   $0x6,-0x13a0(%rbp)
    cb38:	00 00 00 
    cb3b:	c7 85 64 ec ff ff 06 	movl   $0x6,-0x139c(%rbp)
    cb42:	00 00 00 
    cb45:	48 8d 85 40 ec ff ff 	lea    -0x13c0(%rbp),%rax
    cb4c:	48 89 85 40 eb ff ff 	mov    %rax,-0x14c0(%rbp)
    cb53:	48 8d 05 16 a4 00 00 	lea    0xa416(%rip),%rax        # 16f70 <g_560>
    cb5a:	48 89 85 48 eb ff ff 	mov    %rax,-0x14b8(%rbp)
    cb61:	c7 85 80 ea ff ff 55 	movl   $0x835ddb55,-0x1580(%rbp)
    cb68:	db 5d 83 
    cb6b:	48 8d 85 e0 f4 ff ff 	lea    -0xb20(%rbp),%rax
    cb72:	48 8d 15 07 a0 00 00 	lea    0xa007(%rip),%rdx        # 16b80 <g_1532+0xff0>
    cb79:	b9 64 00 00 00       	mov    $0x64,%ecx
    cb7e:	48 89 c7             	mov    %rax,%rdi
    cb81:	48 89 d6             	mov    %rdx,%rsi
    cb84:	f3 48 a5             	rep movsq %ds:(%rsi),%es:(%rdi)
    cb87:	c7 85 84 ea ff ff ee 	movl   $0x464c5ee,-0x157c(%rbp)
    cb8e:	c5 64 04 
    cb91:	48 b8 3e 5c 1c 70 82 	movabs $0x26f48082701c5c3e,%rax
    cb98:	80 f4 26 
    cb9b:	48 89 85 50 eb ff ff 	mov    %rax,-0x14b0(%rbp)
    cba2:	48 c7 85 58 eb ff ff 	movq   $0x0,-0x14a8(%rbp)
    cba9:	00 00 00 00 
    cbad:	66 c7 85 0a ea ff ff 	movw   $0x1,-0x15f6(%rbp)
    cbb4:	01 00 
    cbb6:	c7 85 3c ea ff ff 00 	movl   $0x0,-0x15c4(%rbp)
    cbbd:	00 00 00 
    cbc0:	eb 1e                	jmp    cbe0 <func_57+0x675>
    cbc2:	8b 85 3c ea ff ff    	mov    -0x15c4(%rbp),%eax
    cbc8:	48 98                	cltq   
    cbca:	48 8d 15 1f a3 00 00 	lea    0xa31f(%rip),%rdx        # 16ef0 <g_335>
    cbd1:	48 89 94 c5 40 ec ff 	mov    %rdx,-0x13c0(%rbp,%rax,8)
    cbd8:	ff 
    cbd9:	83 85 3c ea ff ff 01 	addl   $0x1,-0x15c4(%rbp)
    cbe0:	83 bd 3c ea ff ff 01 	cmpl   $0x1,-0x15c4(%rbp)
    cbe7:	7e d9                	jle    cbc2 <func_57+0x657>
    cbe9:	8b 05 99 84 00 00    	mov    0x8499(%rip),%eax        # 15088 <g_3+0x48>
    cbef:	41 89 c4             	mov    %eax,%r12d
    cbf2:	66 0f be 85 fc e9 ff 	movsbw -0x1604(%rbp),%ax
    cbf9:	ff 
    cbfa:	0f b7 d8             	movzwl %ax,%ebx
    cbfd:	48 8b 95 b0 ea ff ff 	mov    -0x1550(%rbp),%rdx
    cc04:	48 8b 85 18 eb ff ff 	mov    -0x14e8(%rbp),%rax
    cc0b:	48 89 10             	mov    %rdx,(%rax)
    cc0e:	48 8b 85 18 eb ff ff 	mov    -0x14e8(%rbp),%rax
    cc15:	48 8b 00             	mov    (%rax),%rax
    cc18:	48 85 c0             	test   %rax,%rax
    cc1b:	0f b6 85 fc e9 ff ff 	movzbl -0x1604(%rbp),%eax
    cc22:	c0 e8 07             	shr    $0x7,%al
    cc25:	0f b6 d0             	movzbl %al,%edx
    cc28:	48 8b 85 20 eb ff ff 	mov    -0x14e0(%rbp),%rax
    cc2f:	66 89 10             	mov    %dx,(%rax)
    cc32:	48 8b 85 20 eb ff ff 	mov    -0x14e0(%rbp),%rax
    cc39:	0f b7 00             	movzwl (%rax),%eax
    cc3c:	0f bf d0             	movswl %ax,%edx
    cc3f:	0f b7 05 5e 85 00 00 	movzwl 0x855e(%rip),%eax        # 151a4 <g_55>
    cc46:	0f b7 c0             	movzwl %ax,%eax
    cc49:	89 d6                	mov    %edx,%esi
    cc4b:	89 c7                	mov    %eax,%edi
    cc4d:	e8 f6 91 ff ff       	callq  5e48 <safe_rshift_func_uint16_t_u_s>
    cc52:	0f b7 d0             	movzwl %ax,%edx
    cc55:	0f be 85 fc e9 ff ff 	movsbl -0x1604(%rbp),%eax
    cc5c:	39 c2                	cmp    %eax,%edx
    cc5e:	0f be 95 fc e9 ff ff 	movsbl -0x1604(%rbp),%edx
    cc65:	48 8b 05 34 a2 00 00 	mov    0xa234(%rip),%rax        # 16ea0 <g_50>
    cc6c:	8b 00                	mov    (%rax),%eax
    cc6e:	31 d0                	xor    %edx,%eax
    cc70:	83 f8 1d             	cmp    $0x1d,%eax
    cc73:	0f 9e c0             	setle  %al
    cc76:	0f b6 d0             	movzbl %al,%edx
    cc79:	0f be 85 fc e9 ff ff 	movsbl -0x1604(%rbp),%eax
    cc80:	39 c2                	cmp    %eax,%edx
    cc82:	0f 9c c0             	setl   %al
    cc85:	0f b6 d0             	movzbl %al,%edx
    cc88:	48 8b 85 b8 ea ff ff 	mov    -0x1548(%rbp),%rax
    cc8f:	48 8b 08             	mov    (%rax),%rcx
    cc92:	48 63 d2             	movslq %edx,%rdx
    cc95:	48 8b 85 b8 ea ff ff 	mov    -0x1548(%rbp),%rax
    cc9c:	48 21 ca             	and    %rcx,%rdx
    cc9f:	48 89 10             	mov    %rdx,(%rax)
    cca2:	48 8b 10             	mov    (%rax),%rdx
    cca5:	8b 85 38 ea ff ff    	mov    -0x15c8(%rbp),%eax
    ccab:	48 98                	cltq   
    ccad:	48 39 c2             	cmp    %rax,%rdx
    ccb0:	0f 9c c0             	setl   %al
    ccb3:	0f b6 c0             	movzbl %al,%eax
    ccb6:	48 be 4f 7c 8f 24 a1 	movabs $0xa7f359a1248f7c4f,%rsi
    ccbd:	59 f3 a7 
    ccc0:	48 89 c7             	mov    %rax,%rdi
    ccc3:	e8 66 93 ff ff       	callq  602e <safe_add_func_uint64_t_u_u>
    ccc8:	89 de                	mov    %ebx,%esi
    ccca:	bf 05 00 00 00       	mov    $0x5,%edi
    cccf:	e8 88 90 ff ff       	callq  5d5c <safe_mod_func_uint16_t_u_u>
    ccd4:	98                   	cwtl   
    ccd5:	44 89 e6             	mov    %r12d,%esi
    ccd8:	89 c7                	mov    %eax,%edi
    ccda:	e8 84 88 ff ff       	callq  5563 <safe_rshift_func_int16_t_s_u>
    ccdf:	48 0f bf c0          	movswq %ax,%rax
    cce3:	48 89 c7             	mov    %rax,%rdi
    cce6:	e8 2b 8b ff ff       	callq  5816 <safe_unary_minus_func_int64_t_s>
    cceb:	0f b6 c0             	movzbl %al,%eax
    ccee:	89 c7                	mov    %eax,%edi
    ccf0:	e8 f0 13 00 00       	callq  e0e5 <func_60>
    ccf5:	0f b6 d0             	movzbl %al,%edx
    ccf8:	0f be 85 fc e9 ff ff 	movsbl -0x1604(%rbp),%eax
    ccff:	39 c2                	cmp    %eax,%edx
    cd01:	0f 9d c0             	setge  %al
    cd04:	0f b6 d0             	movzbl %al,%edx
    cd07:	48 8b 05 92 a1 00 00 	mov    0xa192(%rip),%rax        # 16ea0 <g_50>
    cd0e:	8b 00                	mov    (%rax),%eax
    cd10:	39 c2                	cmp    %eax,%edx
    cd12:	0f 9c c0             	setl   %al
    cd15:	0f b6 c0             	movzbl %al,%eax
    cd18:	89 85 38 ea ff ff    	mov    %eax,-0x15c8(%rbp)
    cd1e:	c7 85 38 ea ff ff 15 	movl   $0x15,-0x15c8(%rbp)
    cd25:	00 00 00 
    cd28:	e9 f9 02 00 00       	jmpq   d026 <func_57+0xabb>
    cd2d:	48 8d 85 00 f8 ff ff 	lea    -0x800(%rbp),%rax
    cd34:	48 8d 15 45 4c 00 00 	lea    0x4c45(%rip),%rdx        # 11980 <g_589+0x1928>
    cd3b:	b9 7a 00 00 00       	mov    $0x7a,%ecx
    cd40:	48 89 c7             	mov    %rax,%rdi
    cd43:	48 89 d6             	mov    %rdx,%rsi
    cd46:	f3 48 a5             	rep movsq %ds:(%rsi),%es:(%rdi)
    cd49:	48 89 f2             	mov    %rsi,%rdx
    cd4c:	48 89 f8             	mov    %rdi,%rax
    cd4f:	8b 0a                	mov    (%rdx),%ecx
    cd51:	89 08                	mov    %ecx,(%rax)
    cd53:	48 8d 40 04          	lea    0x4(%rax),%rax
    cd57:	48 8d 52 04          	lea    0x4(%rdx),%rdx
    cd5b:	c7 85 90 ea ff ff 0f 	movl   $0x1bb8370f,-0x1570(%rbp)
    cd62:	37 b8 1b 
    cd65:	48 8d 05 4c 85 00 00 	lea    0x854c(%rip),%rax        # 152b8 <g_114>
    cd6c:	48 89 85 90 eb ff ff 	mov    %rax,-0x1470(%rbp)
    cd73:	48 8d 05 42 85 00 00 	lea    0x8542(%rip),%rax        # 152bc <g_116>
    cd7a:	48 89 85 98 eb ff ff 	mov    %rax,-0x1468(%rbp)
    cd81:	48 8d 85 c8 ea ff ff 	lea    -0x1538(%rbp),%rax
    cd88:	48 89 85 40 ed ff ff 	mov    %rax,-0x12c0(%rbp)
    cd8f:	48 8d 85 c8 ea ff ff 	lea    -0x1538(%rbp),%rax
    cd96:	48 89 85 48 ed ff ff 	mov    %rax,-0x12b8(%rbp)
    cd9d:	48 8d 85 c8 ea ff ff 	lea    -0x1538(%rbp),%rax
    cda4:	48 89 85 50 ed ff ff 	mov    %rax,-0x12b0(%rbp)
    cdab:	48 8d 85 c8 ea ff ff 	lea    -0x1538(%rbp),%rax
    cdb2:	48 89 85 58 ed ff ff 	mov    %rax,-0x12a8(%rbp)
    cdb9:	48 8d 85 c8 ea ff ff 	lea    -0x1538(%rbp),%rax
    cdc0:	48 89 85 60 ed ff ff 	mov    %rax,-0x12a0(%rbp)
    cdc7:	48 8d 85 c8 ea ff ff 	lea    -0x1538(%rbp),%rax
    cdce:	48 89 85 68 ed ff ff 	mov    %rax,-0x1298(%rbp)
    cdd5:	48 8d 85 c8 ea ff ff 	lea    -0x1538(%rbp),%rax
    cddc:	48 89 85 70 ed ff ff 	mov    %rax,-0x1290(%rbp)
    cde3:	48 8d 85 c8 ea ff ff 	lea    -0x1538(%rbp),%rax
    cdea:	48 89 85 78 ed ff ff 	mov    %rax,-0x1288(%rbp)
    cdf1:	48 8d 85 c8 ea ff ff 	lea    -0x1538(%rbp),%rax
    cdf8:	48 89 85 80 ed ff ff 	mov    %rax,-0x1280(%rbp)
    cdff:	48 b8 51 98 6c 40 fe 	movabs $0x5e9e55fe406c9851,%rax
    ce06:	55 9e 5e 
    ce09:	48 89 85 a0 eb ff ff 	mov    %rax,-0x1460(%rbp)
    ce10:	c7 85 28 ea ff ff 25 	movl   $0x918f5825,-0x15d8(%rbp)
    ce17:	58 8f 91 
    ce1a:	c7 85 94 ea ff ff 08 	movl   $0x8,-0x156c(%rbp)
    ce21:	00 00 00 
    ce24:	c7 85 98 ea ff ff 01 	movl   $0x1,-0x1568(%rbp)
    ce2b:	00 00 00 
    ce2e:	c7 85 9c ea ff ff fc 	movl   $0xfffffffc,-0x1564(%rbp)
    ce35:	ff ff ff 
    ce38:	c7 85 2c ea ff ff ff 	movl   $0xffffffff,-0x15d4(%rbp)
    ce3f:	ff ff ff 
    ce42:	c7 85 d8 ea ff ff 00 	movl   $0x0,-0x1528(%rbp)
    ce49:	00 00 00 
    ce4c:	48 c7 85 a8 eb ff ff 	movq   $0x6,-0x1458(%rbp)
    ce53:	06 00 00 00 
    ce57:	48 8d 85 80 ef ff ff 	lea    -0x1080(%rbp),%rax
    ce5e:	48 8d 15 fb 4e 00 00 	lea    0x4efb(%rip),%rdx        # 11d60 <g_589+0x1d08>
    ce65:	b9 48 00 00 00       	mov    $0x48,%ecx
    ce6a:	48 89 c7             	mov    %rax,%rdi
    ce6d:	48 89 d6             	mov    %rdx,%rsi
    ce70:	f3 48 a5             	rep movsq %ds:(%rsi),%es:(%rdi)
    ce73:	48 b8 19 22 0b 9b d4 	movabs $0xf254add49b0b2219,%rax
    ce7a:	ad 54 f2 
    ce7d:	48 89 85 b0 eb ff ff 	mov    %rax,-0x1450(%rbp)
    ce84:	48 8d 85 b8 ea ff ff 	lea    -0x1548(%rbp),%rax
    ce8b:	48 89 85 b8 eb ff ff 	mov    %rax,-0x1448(%rbp)
    ce92:	48 b8 df 4e ba 27 f4 	movabs $0xbfe9d7f427ba4edf,%rax
    ce99:	d7 e9 bf 
    ce9c:	48 89 85 c0 eb ff ff 	mov    %rax,-0x1440(%rbp)
    cea3:	48 8d 85 d8 ea ff ff 	lea    -0x1528(%rbp),%rax
    ceaa:	48 89 85 c8 eb ff ff 	mov    %rax,-0x1438(%rbp)
    ceb1:	48 8d 85 2c ea ff ff 	lea    -0x15d4(%rbp),%rax
    ceb8:	48 89 85 d0 eb ff ff 	mov    %rax,-0x1430(%rbp)
    cebf:	48 8d 85 28 ea ff ff 	lea    -0x15d8(%rbp),%rax
    cec6:	48 89 85 d8 eb ff ff 	mov    %rax,-0x1428(%rbp)
    cecd:	48 8d 85 28 ea ff ff 	lea    -0x15d8(%rbp),%rax
    ced4:	48 89 85 e0 eb ff ff 	mov    %rax,-0x1420(%rbp)
    cedb:	48 8d 05 02 84 00 00 	lea    0x8402(%rip),%rax        # 152e4 <g_246>
    cee2:	48 89 85 e8 eb ff ff 	mov    %rax,-0x1418(%rbp)
    cee9:	48 8d 85 1c ea ff ff 	lea    -0x15e4(%rbp),%rax
    cef0:	48 89 85 f0 eb ff ff 	mov    %rax,-0x1410(%rbp)
    cef7:	48 8d 85 20 ea ff ff 	lea    -0x15e0(%rbp),%rax
    cefe:	48 89 85 f8 eb ff ff 	mov    %rax,-0x1408(%rbp)
    cf05:	48 c7 85 00 ec ff ff 	movq   $0x0,-0x1400(%rbp)
    cf0c:	00 00 00 00 
    cf10:	48 8d 05 dd 85 00 00 	lea    0x85dd(%rip),%rax        # 154f4 <g_440>
    cf17:	48 89 85 08 ec ff ff 	mov    %rax,-0x13f8(%rbp)
    cf1e:	48 c7 85 10 ec ff ff 	movq   $0x0,-0x13f0(%rbp)
    cf25:	00 00 00 00 
    cf29:	48 8d 85 80 ef ff ff 	lea    -0x1080(%rbp),%rax
    cf30:	48 05 b8 00 00 00    	add    $0xb8,%rax
    cf36:	48 89 85 18 ec ff ff 	mov    %rax,-0x13e8(%rbp)
    cf3d:	48 8d 85 18 ea ff ff 	lea    -0x15e8(%rbp),%rax
    cf44:	48 89 85 20 ec ff ff 	mov    %rax,-0x13e0(%rbp)
    cf4b:	66 c7 85 0e ea ff ff 	movw   $0xebd3,-0x15f2(%rbp)
    cf52:	d3 eb 
    cf54:	c7 85 40 ea ff ff 00 	movl   $0x0,-0x15c0(%rbp)
    cf5b:	00 00 00 
    cf5e:	eb 50                	jmp    cfb0 <func_57+0xa45>
    cf60:	c7 85 44 ea ff ff 00 	movl   $0x0,-0x15bc(%rbp)
    cf67:	00 00 00 
    cf6a:	eb 34                	jmp    cfa0 <func_57+0xa35>
    cf6c:	8b 85 44 ea ff ff    	mov    -0x15bc(%rbp),%eax
    cf72:	48 63 c8             	movslq %eax,%rcx
    cf75:	8b 85 40 ea ff ff    	mov    -0x15c0(%rbp),%eax
    cf7b:	48 63 d0             	movslq %eax,%rdx
    cf7e:	48 89 d0             	mov    %rdx,%rax
    cf81:	48 01 c0             	add    %rax,%rax
    cf84:	48 01 d0             	add    %rdx,%rax
    cf87:	48 01 c8             	add    %rcx,%rax
    cf8a:	48 8d 15 d7 82 00 00 	lea    0x82d7(%rip),%rdx        # 15268 <g_111>
    cf91:	48 89 94 c5 90 ed ff 	mov    %rdx,-0x1270(%rbp,%rax,8)
    cf98:	ff 
    cf99:	83 85 44 ea ff ff 01 	addl   $0x1,-0x15bc(%rbp)
    cfa0:	83 bd 44 ea ff ff 02 	cmpl   $0x2,-0x15bc(%rbp)
    cfa7:	7e c3                	jle    cf6c <func_57+0xa01>
    cfa9:	83 85 40 ea ff ff 01 	addl   $0x1,-0x15c0(%rbp)
    cfb0:	83 bd 40 ea ff ff 04 	cmpl   $0x4,-0x15c0(%rbp)
    cfb7:	7e a7                	jle    cf60 <func_57+0x9f5>
    cfb9:	c7 85 40 ea ff ff 00 	movl   $0x0,-0x15c0(%rbp)
    cfc0:	00 00 00 
    cfc3:	eb 1e                	jmp    cfe3 <func_57+0xa78>
    cfc5:	8b 85 40 ea ff ff    	mov    -0x15c0(%rbp),%eax
    cfcb:	48 98                	cltq   
    cfcd:	48 8d 95 03 ea ff ff 	lea    -0x15fd(%rbp),%rdx
    cfd4:	48 89 94 c5 28 ec ff 	mov    %rdx,-0x13d8(%rbp,%rax,8)
    cfdb:	ff 
    cfdc:	83 85 40 ea ff ff 01 	addl   $0x1,-0x15c0(%rbp)
    cfe3:	83 bd 40 ea ff ff 00 	cmpl   $0x0,-0x15c0(%rbp)
    cfea:	7e d9                	jle    cfc5 <func_57+0xa5a>
    cfec:	c7 85 40 ea ff ff 00 	movl   $0x0,-0x15c0(%rbp)
    cff3:	00 00 00 
    cff6:	eb 1e                	jmp    d016 <func_57+0xaab>
    cff8:	8b 85 40 ea ff ff    	mov    -0x15c0(%rbp),%eax
    cffe:	48 98                	cltq   
    d000:	48 8d 95 14 ea ff ff 	lea    -0x15ec(%rbp),%rdx
    d007:	48 89 94 c5 70 ec ff 	mov    %rdx,-0x1390(%rbp,%rax,8)
    d00e:	ff 
    d00f:	83 85 40 ea ff ff 01 	addl   $0x1,-0x15c0(%rbp)
    d016:	83 bd 40 ea ff ff 02 	cmpl   $0x2,-0x15c0(%rbp)
    d01d:	7e d9                	jle    cff8 <func_57+0xa8d>
    d01f:	83 85 38 ea ff ff 01 	addl   $0x1,-0x15c8(%rbp)
    d026:	83 bd 38 ea ff ff 15 	cmpl   $0x15,-0x15c8(%rbp)
    d02d:	0f 85 fa fc ff ff    	jne    cd2d <func_57+0x7c2>
    d033:	90                   	nop
    d034:	48 8b 85 40 eb ff ff 	mov    -0x14c0(%rbp),%rax
    d03b:	48 c7 00 00 00 00 00 	movq   $0x0,(%rax)
    d042:	48 8b 85 40 eb ff ff 	mov    -0x14c0(%rbp),%rax
    d049:	48 8b 00             	mov    (%rax),%rax
    d04c:	48 8d 15 9d 9e 00 00 	lea    0x9e9d(%rip),%rdx        # 16ef0 <g_335>
    d053:	48 39 d0             	cmp    %rdx,%rax
    d056:	0f 95 c2             	setne  %dl
    d059:	48 8b 05 48 9e 00 00 	mov    0x9e48(%rip),%rax        # 16ea8 <g_172>
    d060:	0f b6 d2             	movzbl %dl,%edx
    d063:	89 10                	mov    %edx,(%rax)
    d065:	c7 85 30 ea ff ff 00 	movl   $0x0,-0x15d0(%rbp)
    d06c:	00 00 00 
    d06f:	e9 81 0f 00 00       	jmpq   dff5 <func_57+0x1a8a>
    d074:	48 8d 05 65 84 00 00 	lea    0x8465(%rip),%rax        # 154e0 <g_439>
    d07b:	48 89 85 60 eb ff ff 	mov    %rax,-0x14a0(%rbp)
    d082:	c7 85 88 ea ff ff 02 	movl   $0x2,-0x1578(%rbp)
    d089:	00 00 00 
    d08c:	48 8d 85 24 ea ff ff 	lea    -0x15dc(%rbp),%rax
    d093:	48 89 85 68 eb ff ff 	mov    %rax,-0x1498(%rbp)
    d09a:	48 c7 85 00 f8 ff ff 	movq   $0x0,-0x800(%rbp)
    d0a1:	00 00 00 00 
    d0a5:	48 8d 05 e4 ac 00 00 	lea    0xace4(%rip),%rax        # 17d90 <g_170>
    d0ac:	48 89 85 08 f8 ff ff 	mov    %rax,-0x7f8(%rbp)
    d0b3:	48 8d 85 04 ea ff ff 	lea    -0x15fc(%rbp),%rax
    d0ba:	48 89 85 10 f8 ff ff 	mov    %rax,-0x7f0(%rbp)
    d0c1:	48 8d 05 c8 ac 00 00 	lea    0xacc8(%rip),%rax        # 17d90 <g_170>
    d0c8:	48 89 85 18 f8 ff ff 	mov    %rax,-0x7e8(%rbp)
    d0cf:	48 8d 85 04 ea ff ff 	lea    -0x15fc(%rbp),%rax
    d0d6:	48 89 85 20 f8 ff ff 	mov    %rax,-0x7e0(%rbp)
    d0dd:	48 8d 05 ac ac 00 00 	lea    0xacac(%rip),%rax        # 17d90 <g_170>
    d0e4:	48 89 85 28 f8 ff ff 	mov    %rax,-0x7d8(%rbp)
    d0eb:	48 8d 85 04 ea ff ff 	lea    -0x15fc(%rbp),%rax
    d0f2:	48 89 85 30 f8 ff ff 	mov    %rax,-0x7d0(%rbp)
    d0f9:	48 8d 05 90 ac 00 00 	lea    0xac90(%rip),%rax        # 17d90 <g_170>
    d100:	48 89 85 38 f8 ff ff 	mov    %rax,-0x7c8(%rbp)
    d107:	48 8d 05 82 ac 00 00 	lea    0xac82(%rip),%rax        # 17d90 <g_170>
    d10e:	48 89 85 40 f8 ff ff 	mov    %rax,-0x7c0(%rbp)
    d115:	48 8d 05 74 ac 00 00 	lea    0xac74(%rip),%rax        # 17d90 <g_170>
    d11c:	48 89 85 48 f8 ff ff 	mov    %rax,-0x7b8(%rbp)
    d123:	48 8d 85 04 ea ff ff 	lea    -0x15fc(%rbp),%rax
    d12a:	48 89 85 50 f8 ff ff 	mov    %rax,-0x7b0(%rbp)
    d131:	48 c7 85 58 f8 ff ff 	movq   $0x0,-0x7a8(%rbp)
    d138:	00 00 00 00 
    d13c:	48 8d 05 4d ac 00 00 	lea    0xac4d(%rip),%rax        # 17d90 <g_170>
    d143:	48 89 85 60 f8 ff ff 	mov    %rax,-0x7a0(%rbp)
    d14a:	48 8d 05 3f ac 00 00 	lea    0xac3f(%rip),%rax        # 17d90 <g_170>
    d151:	48 89 85 68 f8 ff ff 	mov    %rax,-0x798(%rbp)
    d158:	48 8d 05 31 ac 00 00 	lea    0xac31(%rip),%rax        # 17d90 <g_170>
    d15f:	48 89 85 70 f8 ff ff 	mov    %rax,-0x790(%rbp)
    d166:	48 8d 05 23 ac 00 00 	lea    0xac23(%rip),%rax        # 17d90 <g_170>
    d16d:	48 89 85 78 f8 ff ff 	mov    %rax,-0x788(%rbp)
    d174:	48 8d 85 04 ea ff ff 	lea    -0x15fc(%rbp),%rax
    d17b:	48 89 85 80 f8 ff ff 	mov    %rax,-0x780(%rbp)
    d182:	48 c7 85 88 f8 ff ff 	movq   $0x0,-0x778(%rbp)
    d189:	00 00 00 00 
    d18d:	48 8d 05 fc ab 00 00 	lea    0xabfc(%rip),%rax        # 17d90 <g_170>
    d194:	48 89 85 90 f8 ff ff 	mov    %rax,-0x770(%rbp)
    d19b:	48 8d 05 ee ab 00 00 	lea    0xabee(%rip),%rax        # 17d90 <g_170>
    d1a2:	48 89 85 98 f8 ff ff 	mov    %rax,-0x768(%rbp)
    d1a9:	48 c7 85 a0 f8 ff ff 	movq   $0x0,-0x760(%rbp)
    d1b0:	00 00 00 00 
    d1b4:	48 8d 85 04 ea ff ff 	lea    -0x15fc(%rbp),%rax
    d1bb:	48 89 85 a8 f8 ff ff 	mov    %rax,-0x758(%rbp)
    d1c2:	48 c7 85 b0 f8 ff ff 	movq   $0x0,-0x750(%rbp)
    d1c9:	00 00 00 00 
    d1cd:	48 8d 85 04 ea ff ff 	lea    -0x15fc(%rbp),%rax
    d1d4:	48 89 85 b8 f8 ff ff 	mov    %rax,-0x748(%rbp)
    d1db:	48 8d 85 04 ea ff ff 	lea    -0x15fc(%rbp),%rax
    d1e2:	48 89 85 c0 f8 ff ff 	mov    %rax,-0x740(%rbp)
    d1e9:	48 8d 85 04 ea ff ff 	lea    -0x15fc(%rbp),%rax
    d1f0:	48 89 85 c8 f8 ff ff 	mov    %rax,-0x738(%rbp)
    d1f7:	48 c7 85 d0 f8 ff ff 	movq   $0x0,-0x730(%rbp)
    d1fe:	00 00 00 00 
    d202:	48 8d 85 04 ea ff ff 	lea    -0x15fc(%rbp),%rax
    d209:	48 89 85 d8 f8 ff ff 	mov    %rax,-0x728(%rbp)
    d210:	48 8d 05 79 ab 00 00 	lea    0xab79(%rip),%rax        # 17d90 <g_170>
    d217:	48 89 85 e0 f8 ff ff 	mov    %rax,-0x720(%rbp)
    d21e:	48 8d 05 6b ab 00 00 	lea    0xab6b(%rip),%rax        # 17d90 <g_170>
    d225:	48 89 85 e8 f8 ff ff 	mov    %rax,-0x718(%rbp)
    d22c:	48 c7 85 f0 f8 ff ff 	movq   $0x0,-0x710(%rbp)
    d233:	00 00 00 00 
    d237:	48 c7 85 f8 f8 ff ff 	movq   $0x0,-0x708(%rbp)
    d23e:	00 00 00 00 
    d242:	48 8d 85 04 ea ff ff 	lea    -0x15fc(%rbp),%rax
    d249:	48 89 85 00 f9 ff ff 	mov    %rax,-0x700(%rbp)
    d250:	48 8d 05 39 ab 00 00 	lea    0xab39(%rip),%rax        # 17d90 <g_170>
    d257:	48 89 85 08 f9 ff ff 	mov    %rax,-0x6f8(%rbp)
    d25e:	48 8d 85 04 ea ff ff 	lea    -0x15fc(%rbp),%rax
    d265:	48 89 85 10 f9 ff ff 	mov    %rax,-0x6f0(%rbp)
    d26c:	48 8d 05 1d ab 00 00 	lea    0xab1d(%rip),%rax        # 17d90 <g_170>
    d273:	48 89 85 18 f9 ff ff 	mov    %rax,-0x6e8(%rbp)
    d27a:	48 8d 85 04 ea ff ff 	lea    -0x15fc(%rbp),%rax
    d281:	48 89 85 20 f9 ff ff 	mov    %rax,-0x6e0(%rbp)
    d288:	48 8d 85 04 ea ff ff 	lea    -0x15fc(%rbp),%rax
    d28f:	48 89 85 28 f9 ff ff 	mov    %rax,-0x6d8(%rbp)
    d296:	48 c7 85 30 f9 ff ff 	movq   $0x0,-0x6d0(%rbp)
    d29d:	00 00 00 00 
    d2a1:	48 c7 85 38 f9 ff ff 	movq   $0x0,-0x6c8(%rbp)
    d2a8:	00 00 00 00 
    d2ac:	48 8d 05 dd aa 00 00 	lea    0xaadd(%rip),%rax        # 17d90 <g_170>
    d2b3:	48 89 85 40 f9 ff ff 	mov    %rax,-0x6c0(%rbp)
    d2ba:	48 8d 85 04 ea ff ff 	lea    -0x15fc(%rbp),%rax
    d2c1:	48 89 85 48 f9 ff ff 	mov    %rax,-0x6b8(%rbp)
    d2c8:	48 8d 05 c1 aa 00 00 	lea    0xaac1(%rip),%rax        # 17d90 <g_170>
    d2cf:	48 89 85 50 f9 ff ff 	mov    %rax,-0x6b0(%rbp)
    d2d6:	48 8d 05 b3 aa 00 00 	lea    0xaab3(%rip),%rax        # 17d90 <g_170>
    d2dd:	48 89 85 58 f9 ff ff 	mov    %rax,-0x6a8(%rbp)
    d2e4:	48 8d 05 a5 aa 00 00 	lea    0xaaa5(%rip),%rax        # 17d90 <g_170>
    d2eb:	48 89 85 60 f9 ff ff 	mov    %rax,-0x6a0(%rbp)
    d2f2:	48 8d 85 04 ea ff ff 	lea    -0x15fc(%rbp),%rax
    d2f9:	48 89 85 68 f9 ff ff 	mov    %rax,-0x698(%rbp)
    d300:	48 8d 05 89 aa 00 00 	lea    0xaa89(%rip),%rax        # 17d90 <g_170>
    d307:	48 89 85 70 f9 ff ff 	mov    %rax,-0x690(%rbp)
    d30e:	48 8d 85 04 ea ff ff 	lea    -0x15fc(%rbp),%rax
    d315:	48 89 85 78 f9 ff ff 	mov    %rax,-0x688(%rbp)
    d31c:	48 8d 05 6d aa 00 00 	lea    0xaa6d(%rip),%rax        # 17d90 <g_170>
    d323:	48 89 85 80 f9 ff ff 	mov    %rax,-0x680(%rbp)
    d32a:	48 c7 85 88 f9 ff ff 	movq   $0x0,-0x678(%rbp)
    d331:	00 00 00 00 
    d335:	48 8d 85 04 ea ff ff 	lea    -0x15fc(%rbp),%rax
    d33c:	48 89 85 90 f9 ff ff 	mov    %rax,-0x670(%rbp)
    d343:	48 8d 05 46 aa 00 00 	lea    0xaa46(%rip),%rax        # 17d90 <g_170>
    d34a:	48 89 85 98 f9 ff ff 	mov    %rax,-0x668(%rbp)
    d351:	48 8d 85 04 ea ff ff 	lea    -0x15fc(%rbp),%rax
    d358:	48 89 85 a0 f9 ff ff 	mov    %rax,-0x660(%rbp)
    d35f:	48 c7 85 a8 f9 ff ff 	movq   $0x0,-0x658(%rbp)
    d366:	00 00 00 00 
    d36a:	48 8d 05 1f aa 00 00 	lea    0xaa1f(%rip),%rax        # 17d90 <g_170>
    d371:	48 89 85 b0 f9 ff ff 	mov    %rax,-0x650(%rbp)
    d378:	48 8d 05 11 aa 00 00 	lea    0xaa11(%rip),%rax        # 17d90 <g_170>
    d37f:	48 89 85 b8 f9 ff ff 	mov    %rax,-0x648(%rbp)
    d386:	48 8d 85 04 ea ff ff 	lea    -0x15fc(%rbp),%rax
    d38d:	48 89 85 c0 f9 ff ff 	mov    %rax,-0x640(%rbp)
    d394:	48 8d 05 f5 a9 00 00 	lea    0xa9f5(%rip),%rax        # 17d90 <g_170>
    d39b:	48 89 85 c8 f9 ff ff 	mov    %rax,-0x638(%rbp)
    d3a2:	48 8d 05 e7 a9 00 00 	lea    0xa9e7(%rip),%rax        # 17d90 <g_170>
    d3a9:	48 89 85 d0 f9 ff ff 	mov    %rax,-0x630(%rbp)
    d3b0:	48 8d 85 04 ea ff ff 	lea    -0x15fc(%rbp),%rax
    d3b7:	48 89 85 d8 f9 ff ff 	mov    %rax,-0x628(%rbp)
    d3be:	48 8d 05 cb a9 00 00 	lea    0xa9cb(%rip),%rax        # 17d90 <g_170>
    d3c5:	48 89 85 e0 f9 ff ff 	mov    %rax,-0x620(%rbp)
    d3cc:	48 8d 05 bd a9 00 00 	lea    0xa9bd(%rip),%rax        # 17d90 <g_170>
    d3d3:	48 89 85 e8 f9 ff ff 	mov    %rax,-0x618(%rbp)
    d3da:	48 c7 85 f0 f9 ff ff 	movq   $0x0,-0x610(%rbp)
    d3e1:	00 00 00 00 
    d3e5:	48 8d 85 04 ea ff ff 	lea    -0x15fc(%rbp),%rax
    d3ec:	48 89 85 f8 f9 ff ff 	mov    %rax,-0x608(%rbp)
    d3f3:	48 8d 05 96 a9 00 00 	lea    0xa996(%rip),%rax        # 17d90 <g_170>
    d3fa:	48 89 85 00 fa ff ff 	mov    %rax,-0x600(%rbp)
    d401:	48 8d 85 04 ea ff ff 	lea    -0x15fc(%rbp),%rax
    d408:	48 89 85 08 fa ff ff 	mov    %rax,-0x5f8(%rbp)
    d40f:	48 8d 05 7a a9 00 00 	lea    0xa97a(%rip),%rax        # 17d90 <g_170>
    d416:	48 89 85 10 fa ff ff 	mov    %rax,-0x5f0(%rbp)
    d41d:	48 8d 05 6c a9 00 00 	lea    0xa96c(%rip),%rax        # 17d90 <g_170>
    d424:	48 89 85 18 fa ff ff 	mov    %rax,-0x5e8(%rbp)
    d42b:	48 c7 85 20 fa ff ff 	movq   $0x0,-0x5e0(%rbp)
    d432:	00 00 00 00 
    d436:	48 8d 05 53 a9 00 00 	lea    0xa953(%rip),%rax        # 17d90 <g_170>
    d43d:	48 89 85 28 fa ff ff 	mov    %rax,-0x5d8(%rbp)
    d444:	48 8d 85 04 ea ff ff 	lea    -0x15fc(%rbp),%rax
    d44b:	48 89 85 30 fa ff ff 	mov    %rax,-0x5d0(%rbp)
    d452:	48 8d 05 37 a9 00 00 	lea    0xa937(%rip),%rax        # 17d90 <g_170>
    d459:	48 89 85 38 fa ff ff 	mov    %rax,-0x5c8(%rbp)
    d460:	48 8d 05 29 a9 00 00 	lea    0xa929(%rip),%rax        # 17d90 <g_170>
    d467:	48 89 85 40 fa ff ff 	mov    %rax,-0x5c0(%rbp)
    d46e:	48 c7 85 48 fa ff ff 	movq   $0x0,-0x5b8(%rbp)
    d475:	00 00 00 00 
    d479:	48 c7 85 50 fa ff ff 	movq   $0x0,-0x5b0(%rbp)
    d480:	00 00 00 00 
    d484:	48 c7 85 58 fa ff ff 	movq   $0x0,-0x5a8(%rbp)
    d48b:	00 00 00 00 
    d48f:	48 c7 85 60 fa ff ff 	movq   $0x0,-0x5a0(%rbp)
    d496:	00 00 00 00 
    d49a:	48 8d 05 ef a8 00 00 	lea    0xa8ef(%rip),%rax        # 17d90 <g_170>
    d4a1:	48 89 85 68 fa ff ff 	mov    %rax,-0x598(%rbp)
    d4a8:	48 8d 85 04 ea ff ff 	lea    -0x15fc(%rbp),%rax
    d4af:	48 89 85 70 fa ff ff 	mov    %rax,-0x590(%rbp)
    d4b6:	48 8d 05 d3 a8 00 00 	lea    0xa8d3(%rip),%rax        # 17d90 <g_170>
    d4bd:	48 89 85 78 fa ff ff 	mov    %rax,-0x588(%rbp)
    d4c4:	48 c7 85 80 fa ff ff 	movq   $0x0,-0x580(%rbp)
    d4cb:	00 00 00 00 
    d4cf:	48 8d 85 04 ea ff ff 	lea    -0x15fc(%rbp),%rax
    d4d6:	48 89 85 88 fa ff ff 	mov    %rax,-0x578(%rbp)
    d4dd:	48 c7 85 90 fa ff ff 	movq   $0x0,-0x570(%rbp)
    d4e4:	00 00 00 00 
    d4e8:	48 8d 05 a1 a8 00 00 	lea    0xa8a1(%rip),%rax        # 17d90 <g_170>
    d4ef:	48 89 85 98 fa ff ff 	mov    %rax,-0x568(%rbp)
    d4f6:	48 c7 85 a0 fa ff ff 	movq   $0x0,-0x560(%rbp)
    d4fd:	00 00 00 00 
    d501:	48 8d 05 88 a8 00 00 	lea    0xa888(%rip),%rax        # 17d90 <g_170>
    d508:	48 89 85 a8 fa ff ff 	mov    %rax,-0x558(%rbp)
    d50f:	48 c7 85 b0 fa ff ff 	movq   $0x0,-0x550(%rbp)
    d516:	00 00 00 00 
    d51a:	48 8d 05 6f a8 00 00 	lea    0xa86f(%rip),%rax        # 17d90 <g_170>
    d521:	48 89 85 b8 fa ff ff 	mov    %rax,-0x548(%rbp)
    d528:	48 8d 05 61 a8 00 00 	lea    0xa861(%rip),%rax        # 17d90 <g_170>
    d52f:	48 89 85 c0 fa ff ff 	mov    %rax,-0x540(%rbp)
    d536:	48 8d 05 53 a8 00 00 	lea    0xa853(%rip),%rax        # 17d90 <g_170>
    d53d:	48 89 85 c8 fa ff ff 	mov    %rax,-0x538(%rbp)
    d544:	48 c7 85 d0 fa ff ff 	movq   $0x0,-0x530(%rbp)
    d54b:	00 00 00 00 
    d54f:	48 8d 05 3a a8 00 00 	lea    0xa83a(%rip),%rax        # 17d90 <g_170>
    d556:	48 89 85 d8 fa ff ff 	mov    %rax,-0x528(%rbp)
    d55d:	48 8d 05 2c a8 00 00 	lea    0xa82c(%rip),%rax        # 17d90 <g_170>
    d564:	48 89 85 e0 fa ff ff 	mov    %rax,-0x520(%rbp)
    d56b:	48 8d 85 04 ea ff ff 	lea    -0x15fc(%rbp),%rax
    d572:	48 89 85 e8 fa ff ff 	mov    %rax,-0x518(%rbp)
    d579:	48 8d 05 10 a8 00 00 	lea    0xa810(%rip),%rax        # 17d90 <g_170>
    d580:	48 89 85 f0 fa ff ff 	mov    %rax,-0x510(%rbp)
    d587:	48 c7 85 f8 fa ff ff 	movq   $0x0,-0x508(%rbp)
    d58e:	00 00 00 00 
    d592:	48 8d 85 04 ea ff ff 	lea    -0x15fc(%rbp),%rax
    d599:	48 89 85 00 fb ff ff 	mov    %rax,-0x500(%rbp)
    d5a0:	48 c7 85 08 fb ff ff 	movq   $0x0,-0x4f8(%rbp)
    d5a7:	00 00 00 00 
    d5ab:	48 8d 85 04 ea ff ff 	lea    -0x15fc(%rbp),%rax
    d5b2:	48 89 85 10 fb ff ff 	mov    %rax,-0x4f0(%rbp)
    d5b9:	48 c7 85 18 fb ff ff 	movq   $0x0,-0x4e8(%rbp)
    d5c0:	00 00 00 00 
    d5c4:	48 c7 85 20 fb ff ff 	movq   $0x0,-0x4e0(%rbp)
    d5cb:	00 00 00 00 
    d5cf:	48 8d 05 ba a7 00 00 	lea    0xa7ba(%rip),%rax        # 17d90 <g_170>
    d5d6:	48 89 85 28 fb ff ff 	mov    %rax,-0x4d8(%rbp)
    d5dd:	48 8d 05 ac a7 00 00 	lea    0xa7ac(%rip),%rax        # 17d90 <g_170>
    d5e4:	48 89 85 30 fb ff ff 	mov    %rax,-0x4d0(%rbp)
    d5eb:	48 c7 85 38 fb ff ff 	movq   $0x0,-0x4c8(%rbp)
    d5f2:	00 00 00 00 
    d5f6:	48 8d 05 93 a7 00 00 	lea    0xa793(%rip),%rax        # 17d90 <g_170>
    d5fd:	48 89 85 40 fb ff ff 	mov    %rax,-0x4c0(%rbp)
    d604:	48 8d 05 85 a7 00 00 	lea    0xa785(%rip),%rax        # 17d90 <g_170>
    d60b:	48 89 85 48 fb ff ff 	mov    %rax,-0x4b8(%rbp)
    d612:	48 8d 05 77 a7 00 00 	lea    0xa777(%rip),%rax        # 17d90 <g_170>
    d619:	48 89 85 50 fb ff ff 	mov    %rax,-0x4b0(%rbp)
    d620:	48 8d 05 69 a7 00 00 	lea    0xa769(%rip),%rax        # 17d90 <g_170>
    d627:	48 89 85 58 fb ff ff 	mov    %rax,-0x4a8(%rbp)
    d62e:	48 8d 05 5b a7 00 00 	lea    0xa75b(%rip),%rax        # 17d90 <g_170>
    d635:	48 89 85 60 fb ff ff 	mov    %rax,-0x4a0(%rbp)
    d63c:	48 8d 85 04 ea ff ff 	lea    -0x15fc(%rbp),%rax
    d643:	48 89 85 68 fb ff ff 	mov    %rax,-0x498(%rbp)
    d64a:	48 c7 85 70 fb ff ff 	movq   $0x0,-0x490(%rbp)
    d651:	00 00 00 00 
    d655:	48 8d 85 04 ea ff ff 	lea    -0x15fc(%rbp),%rax
    d65c:	48 89 85 78 fb ff ff 	mov    %rax,-0x488(%rbp)
    d663:	48 c7 85 80 fb ff ff 	movq   $0x0,-0x480(%rbp)
    d66a:	00 00 00 00 
    d66e:	48 8d 85 04 ea ff ff 	lea    -0x15fc(%rbp),%rax
    d675:	48 89 85 88 fb ff ff 	mov    %rax,-0x478(%rbp)
    d67c:	48 8d 05 0d a7 00 00 	lea    0xa70d(%rip),%rax        # 17d90 <g_170>
    d683:	48 89 85 90 fb ff ff 	mov    %rax,-0x470(%rbp)
    d68a:	48 c7 85 98 fb ff ff 	movq   $0x0,-0x468(%rbp)
    d691:	00 00 00 00 
    d695:	48 8d 05 f4 a6 00 00 	lea    0xa6f4(%rip),%rax        # 17d90 <g_170>
    d69c:	48 89 85 a0 fb ff ff 	mov    %rax,-0x460(%rbp)
    d6a3:	48 8d 05 e6 a6 00 00 	lea    0xa6e6(%rip),%rax        # 17d90 <g_170>
    d6aa:	48 89 85 a8 fb ff ff 	mov    %rax,-0x458(%rbp)
    d6b1:	48 8d 85 04 ea ff ff 	lea    -0x15fc(%rbp),%rax
    d6b8:	48 89 85 b0 fb ff ff 	mov    %rax,-0x450(%rbp)
    d6bf:	48 8d 85 04 ea ff ff 	lea    -0x15fc(%rbp),%rax
    d6c6:	48 89 85 b8 fb ff ff 	mov    %rax,-0x448(%rbp)
    d6cd:	48 8d 05 bc a6 00 00 	lea    0xa6bc(%rip),%rax        # 17d90 <g_170>
    d6d4:	48 89 85 c0 fb ff ff 	mov    %rax,-0x440(%rbp)
    d6db:	48 8d 85 04 ea ff ff 	lea    -0x15fc(%rbp),%rax
    d6e2:	48 89 85 c8 fb ff ff 	mov    %rax,-0x438(%rbp)
    d6e9:	48 c7 85 d0 fb ff ff 	movq   $0x0,-0x430(%rbp)
    d6f0:	00 00 00 00 
    d6f4:	48 8d 05 95 a6 00 00 	lea    0xa695(%rip),%rax        # 17d90 <g_170>
    d6fb:	48 89 85 d8 fb ff ff 	mov    %rax,-0x428(%rbp)
    d702:	48 c7 85 e0 fb ff ff 	movq   $0x0,-0x420(%rbp)
    d709:	00 00 00 00 
    d70d:	48 8d 05 7c a6 00 00 	lea    0xa67c(%rip),%rax        # 17d90 <g_170>
    d714:	48 89 85 e8 fb ff ff 	mov    %rax,-0x418(%rbp)
    d71b:	48 8d 05 6e a6 00 00 	lea    0xa66e(%rip),%rax        # 17d90 <g_170>
    d722:	48 89 85 f0 fb ff ff 	mov    %rax,-0x410(%rbp)
    d729:	48 8d 85 04 ea ff ff 	lea    -0x15fc(%rbp),%rax
    d730:	48 89 85 f8 fb ff ff 	mov    %rax,-0x408(%rbp)
    d737:	48 8d 85 04 ea ff ff 	lea    -0x15fc(%rbp),%rax
    d73e:	48 89 85 00 fc ff ff 	mov    %rax,-0x400(%rbp)
    d745:	48 8d 85 04 ea ff ff 	lea    -0x15fc(%rbp),%rax
    d74c:	48 89 85 08 fc ff ff 	mov    %rax,-0x3f8(%rbp)
    d753:	48 8d 85 04 ea ff ff 	lea    -0x15fc(%rbp),%rax
    d75a:	48 89 85 10 fc ff ff 	mov    %rax,-0x3f0(%rbp)
    d761:	48 8d 05 28 a6 00 00 	lea    0xa628(%rip),%rax        # 17d90 <g_170>
    d768:	48 89 85 18 fc ff ff 	mov    %rax,-0x3e8(%rbp)
    d76f:	48 8d 05 1a a6 00 00 	lea    0xa61a(%rip),%rax        # 17d90 <g_170>
    d776:	48 89 85 20 fc ff ff 	mov    %rax,-0x3e0(%rbp)
    d77d:	48 8d 05 0c a6 00 00 	lea    0xa60c(%rip),%rax        # 17d90 <g_170>
    d784:	48 89 85 28 fc ff ff 	mov    %rax,-0x3d8(%rbp)
    d78b:	48 8d 85 04 ea ff ff 	lea    -0x15fc(%rbp),%rax
    d792:	48 89 85 30 fc ff ff 	mov    %rax,-0x3d0(%rbp)
    d799:	48 c7 85 38 fc ff ff 	movq   $0x0,-0x3c8(%rbp)
    d7a0:	00 00 00 00 
    d7a4:	48 8d 05 e5 a5 00 00 	lea    0xa5e5(%rip),%rax        # 17d90 <g_170>
    d7ab:	48 89 85 40 fc ff ff 	mov    %rax,-0x3c0(%rbp)
    d7b2:	48 8d 05 d7 a5 00 00 	lea    0xa5d7(%rip),%rax        # 17d90 <g_170>
    d7b9:	48 89 85 48 fc ff ff 	mov    %rax,-0x3b8(%rbp)
    d7c0:	48 8d 85 04 ea ff ff 	lea    -0x15fc(%rbp),%rax
    d7c7:	48 89 85 50 fc ff ff 	mov    %rax,-0x3b0(%rbp)
    d7ce:	48 8d 05 bb a5 00 00 	lea    0xa5bb(%rip),%rax        # 17d90 <g_170>
    d7d5:	48 89 85 58 fc ff ff 	mov    %rax,-0x3a8(%rbp)
    d7dc:	48 8d 05 ad a5 00 00 	lea    0xa5ad(%rip),%rax        # 17d90 <g_170>
    d7e3:	48 89 85 60 fc ff ff 	mov    %rax,-0x3a0(%rbp)
    d7ea:	48 8d 05 9f a5 00 00 	lea    0xa59f(%rip),%rax        # 17d90 <g_170>
    d7f1:	48 89 85 68 fc ff ff 	mov    %rax,-0x398(%rbp)
    d7f8:	48 8d 05 91 a5 00 00 	lea    0xa591(%rip),%rax        # 17d90 <g_170>
    d7ff:	48 89 85 70 fc ff ff 	mov    %rax,-0x390(%rbp)
    d806:	48 8d 85 04 ea ff ff 	lea    -0x15fc(%rbp),%rax
    d80d:	48 89 85 78 fc ff ff 	mov    %rax,-0x388(%rbp)
    d814:	48 c7 85 80 fc ff ff 	movq   $0x0,-0x380(%rbp)
    d81b:	00 00 00 00 
    d81f:	48 8d 05 6a a5 00 00 	lea    0xa56a(%rip),%rax        # 17d90 <g_170>
    d826:	48 89 85 88 fc ff ff 	mov    %rax,-0x378(%rbp)
    d82d:	48 8d 05 5c a5 00 00 	lea    0xa55c(%rip),%rax        # 17d90 <g_170>
    d834:	48 89 85 90 fc ff ff 	mov    %rax,-0x370(%rbp)
    d83b:	48 8d 85 04 ea ff ff 	lea    -0x15fc(%rbp),%rax
    d842:	48 89 85 98 fc ff ff 	mov    %rax,-0x368(%rbp)
    d849:	48 8d 05 40 a5 00 00 	lea    0xa540(%rip),%rax        # 17d90 <g_170>
    d850:	48 89 85 a0 fc ff ff 	mov    %rax,-0x360(%rbp)
    d857:	48 8d 85 04 ea ff ff 	lea    -0x15fc(%rbp),%rax
    d85e:	48 89 85 a8 fc ff ff 	mov    %rax,-0x358(%rbp)
    d865:	48 8d 85 04 ea ff ff 	lea    -0x15fc(%rbp),%rax
    d86c:	48 89 85 b0 fc ff ff 	mov    %rax,-0x350(%rbp)
    d873:	48 c7 85 b8 fc ff ff 	movq   $0x0,-0x348(%rbp)
    d87a:	00 00 00 00 
    d87e:	48 8d 05 0b a5 00 00 	lea    0xa50b(%rip),%rax        # 17d90 <g_170>
    d885:	48 89 85 c0 fc ff ff 	mov    %rax,-0x340(%rbp)
    d88c:	48 8d 85 04 ea ff ff 	lea    -0x15fc(%rbp),%rax
    d893:	48 89 85 c8 fc ff ff 	mov    %rax,-0x338(%rbp)
    d89a:	48 c7 85 d0 fc ff ff 	movq   $0x0,-0x330(%rbp)
    d8a1:	00 00 00 00 
    d8a5:	48 c7 85 d8 fc ff ff 	movq   $0x0,-0x328(%rbp)
    d8ac:	00 00 00 00 
    d8b0:	48 8d 05 d9 a4 00 00 	lea    0xa4d9(%rip),%rax        # 17d90 <g_170>
    d8b7:	48 89 85 e0 fc ff ff 	mov    %rax,-0x320(%rbp)
    d8be:	48 8d 85 04 ea ff ff 	lea    -0x15fc(%rbp),%rax
    d8c5:	48 89 85 e8 fc ff ff 	mov    %rax,-0x318(%rbp)
    d8cc:	48 8d 05 bd a4 00 00 	lea    0xa4bd(%rip),%rax        # 17d90 <g_170>
    d8d3:	48 89 85 f0 fc ff ff 	mov    %rax,-0x310(%rbp)
    d8da:	48 8d 05 af a4 00 00 	lea    0xa4af(%rip),%rax        # 17d90 <g_170>
    d8e1:	48 89 85 f8 fc ff ff 	mov    %rax,-0x308(%rbp)
    d8e8:	48 8d 05 a1 a4 00 00 	lea    0xa4a1(%rip),%rax        # 17d90 <g_170>
    d8ef:	48 89 85 00 fd ff ff 	mov    %rax,-0x300(%rbp)
    d8f6:	48 c7 85 08 fd ff ff 	movq   $0x0,-0x2f8(%rbp)
    d8fd:	00 00 00 00 
    d901:	48 8d 05 88 a4 00 00 	lea    0xa488(%rip),%rax        # 17d90 <g_170>
    d908:	48 89 85 10 fd ff ff 	mov    %rax,-0x2f0(%rbp)
    d90f:	48 8d 05 7a a4 00 00 	lea    0xa47a(%rip),%rax        # 17d90 <g_170>
    d916:	48 89 85 18 fd ff ff 	mov    %rax,-0x2e8(%rbp)
    d91d:	48 c7 85 20 fd ff ff 	movq   $0x0,-0x2e0(%rbp)
    d924:	00 00 00 00 
    d928:	48 8d 05 61 a4 00 00 	lea    0xa461(%rip),%rax        # 17d90 <g_170>
    d92f:	48 89 85 28 fd ff ff 	mov    %rax,-0x2d8(%rbp)
    d936:	48 8d 05 53 a4 00 00 	lea    0xa453(%rip),%rax        # 17d90 <g_170>
    d93d:	48 89 85 30 fd ff ff 	mov    %rax,-0x2d0(%rbp)
    d944:	48 8d 85 04 ea ff ff 	lea    -0x15fc(%rbp),%rax
    d94b:	48 89 85 38 fd ff ff 	mov    %rax,-0x2c8(%rbp)
    d952:	48 8d 85 04 ea ff ff 	lea    -0x15fc(%rbp),%rax
    d959:	48 89 85 40 fd ff ff 	mov    %rax,-0x2c0(%rbp)
    d960:	48 8d 05 29 a4 00 00 	lea    0xa429(%rip),%rax        # 17d90 <g_170>
    d967:	48 89 85 48 fd ff ff 	mov    %rax,-0x2b8(%rbp)
    d96e:	48 c7 85 50 fd ff ff 	movq   $0x0,-0x2b0(%rbp)
    d975:	00 00 00 00 
    d979:	48 c7 85 58 fd ff ff 	movq   $0x0,-0x2a8(%rbp)
    d980:	00 00 00 00 
    d984:	48 8d 05 05 a4 00 00 	lea    0xa405(%rip),%rax        # 17d90 <g_170>
    d98b:	48 89 85 60 fd ff ff 	mov    %rax,-0x2a0(%rbp)
    d992:	48 8d 85 04 ea ff ff 	lea    -0x15fc(%rbp),%rax
    d999:	48 89 85 68 fd ff ff 	mov    %rax,-0x298(%rbp)
    d9a0:	48 8d 05 e9 a3 00 00 	lea    0xa3e9(%rip),%rax        # 17d90 <g_170>
    d9a7:	48 89 85 70 fd ff ff 	mov    %rax,-0x290(%rbp)
    d9ae:	48 8d 05 db a3 00 00 	lea    0xa3db(%rip),%rax        # 17d90 <g_170>
    d9b5:	48 89 85 78 fd ff ff 	mov    %rax,-0x288(%rbp)
    d9bc:	48 8d 05 cd a3 00 00 	lea    0xa3cd(%rip),%rax        # 17d90 <g_170>
    d9c3:	48 89 85 80 fd ff ff 	mov    %rax,-0x280(%rbp)
    d9ca:	48 8d 05 bf a3 00 00 	lea    0xa3bf(%rip),%rax        # 17d90 <g_170>
    d9d1:	48 89 85 88 fd ff ff 	mov    %rax,-0x278(%rbp)
    d9d8:	48 8d 05 b1 a3 00 00 	lea    0xa3b1(%rip),%rax        # 17d90 <g_170>
    d9df:	48 89 85 90 fd ff ff 	mov    %rax,-0x270(%rbp)
    d9e6:	48 8d 85 04 ea ff ff 	lea    -0x15fc(%rbp),%rax
    d9ed:	48 89 85 98 fd ff ff 	mov    %rax,-0x268(%rbp)
    d9f4:	48 8d 85 04 ea ff ff 	lea    -0x15fc(%rbp),%rax
    d9fb:	48 89 85 a0 fd ff ff 	mov    %rax,-0x260(%rbp)
    da02:	48 8d 05 87 a3 00 00 	lea    0xa387(%rip),%rax        # 17d90 <g_170>
    da09:	48 89 85 a8 fd ff ff 	mov    %rax,-0x258(%rbp)
    da10:	48 c7 85 b0 fd ff ff 	movq   $0x0,-0x250(%rbp)
    da17:	00 00 00 00 
    da1b:	48 8d 85 04 ea ff ff 	lea    -0x15fc(%rbp),%rax
    da22:	48 89 85 b8 fd ff ff 	mov    %rax,-0x248(%rbp)
    da29:	48 8d 85 04 ea ff ff 	lea    -0x15fc(%rbp),%rax
    da30:	48 89 85 c0 fd ff ff 	mov    %rax,-0x240(%rbp)
    da37:	48 8d 05 52 a3 00 00 	lea    0xa352(%rip),%rax        # 17d90 <g_170>
    da3e:	48 89 85 c8 fd ff ff 	mov    %rax,-0x238(%rbp)
    da45:	48 8d 05 44 a3 00 00 	lea    0xa344(%rip),%rax        # 17d90 <g_170>
    da4c:	48 89 85 d0 fd ff ff 	mov    %rax,-0x230(%rbp)
    da53:	48 8d 05 36 a3 00 00 	lea    0xa336(%rip),%rax        # 17d90 <g_170>
    da5a:	48 89 85 d8 fd ff ff 	mov    %rax,-0x228(%rbp)
    da61:	48 8d 05 28 a3 00 00 	lea    0xa328(%rip),%rax        # 17d90 <g_170>
    da68:	48 89 85 e0 fd ff ff 	mov    %rax,-0x220(%rbp)
    da6f:	48 8d 85 04 ea ff ff 	lea    -0x15fc(%rbp),%rax
    da76:	48 89 85 e8 fd ff ff 	mov    %rax,-0x218(%rbp)
    da7d:	48 8d 05 0c a3 00 00 	lea    0xa30c(%rip),%rax        # 17d90 <g_170>
    da84:	48 89 85 f0 fd ff ff 	mov    %rax,-0x210(%rbp)
    da8b:	48 8d 85 04 ea ff ff 	lea    -0x15fc(%rbp),%rax
    da92:	48 89 85 f8 fd ff ff 	mov    %rax,-0x208(%rbp)
    da99:	48 8d 05 f0 a2 00 00 	lea    0xa2f0(%rip),%rax        # 17d90 <g_170>
    daa0:	48 89 85 00 fe ff ff 	mov    %rax,-0x200(%rbp)
    daa7:	48 c7 85 08 fe ff ff 	movq   $0x0,-0x1f8(%rbp)
    daae:	00 00 00 00 
    dab2:	48 8d 05 d7 a2 00 00 	lea    0xa2d7(%rip),%rax        # 17d90 <g_170>
    dab9:	48 89 85 10 fe ff ff 	mov    %rax,-0x1f0(%rbp)
    dac0:	48 8d 85 04 ea ff ff 	lea    -0x15fc(%rbp),%rax
    dac7:	48 89 85 18 fe ff ff 	mov    %rax,-0x1e8(%rbp)
    dace:	48 8d 05 bb a2 00 00 	lea    0xa2bb(%rip),%rax        # 17d90 <g_170>
    dad5:	48 89 85 20 fe ff ff 	mov    %rax,-0x1e0(%rbp)
    dadc:	48 8d 85 04 ea ff ff 	lea    -0x15fc(%rbp),%rax
    dae3:	48 89 85 28 fe ff ff 	mov    %rax,-0x1d8(%rbp)
    daea:	48 c7 85 30 fe ff ff 	movq   $0x0,-0x1d0(%rbp)
    daf1:	00 00 00 00 
    daf5:	48 8d 85 04 ea ff ff 	lea    -0x15fc(%rbp),%rax
    dafc:	48 89 85 38 fe ff ff 	mov    %rax,-0x1c8(%rbp)
    db03:	48 c7 85 40 fe ff ff 	movq   $0x0,-0x1c0(%rbp)
    db0a:	00 00 00 00 
    db0e:	48 8d 85 04 ea ff ff 	lea    -0x15fc(%rbp),%rax
    db15:	48 89 85 48 fe ff ff 	mov    %rax,-0x1b8(%rbp)
    db1c:	48 8d 85 04 ea ff ff 	lea    -0x15fc(%rbp),%rax
    db23:	48 89 85 50 fe ff ff 	mov    %rax,-0x1b0(%rbp)
    db2a:	48 8d 05 5f a2 00 00 	lea    0xa25f(%rip),%rax        # 17d90 <g_170>
    db31:	48 89 85 58 fe ff ff 	mov    %rax,-0x1a8(%rbp)
    db38:	48 c7 85 60 fe ff ff 	movq   $0x0,-0x1a0(%rbp)
    db3f:	00 00 00 00 
    db43:	48 8d 85 04 ea ff ff 	lea    -0x15fc(%rbp),%rax
    db4a:	48 89 85 68 fe ff ff 	mov    %rax,-0x198(%rbp)
    db51:	48 c7 85 70 fe ff ff 	movq   $0x0,-0x190(%rbp)
    db58:	00 00 00 00 
    db5c:	48 8d 05 2d a2 00 00 	lea    0xa22d(%rip),%rax        # 17d90 <g_170>
    db63:	48 89 85 78 fe ff ff 	mov    %rax,-0x188(%rbp)
    db6a:	48 8d 85 04 ea ff ff 	lea    -0x15fc(%rbp),%rax
    db71:	48 89 85 80 fe ff ff 	mov    %rax,-0x180(%rbp)
    db78:	48 8d 05 11 a2 00 00 	lea    0xa211(%rip),%rax        # 17d90 <g_170>
    db7f:	48 89 85 88 fe ff ff 	mov    %rax,-0x178(%rbp)
    db86:	48 8d 85 04 ea ff ff 	lea    -0x15fc(%rbp),%rax
    db8d:	48 89 85 90 fe ff ff 	mov    %rax,-0x170(%rbp)
    db94:	48 8d 05 f5 a1 00 00 	lea    0xa1f5(%rip),%rax        # 17d90 <g_170>
    db9b:	48 89 85 98 fe ff ff 	mov    %rax,-0x168(%rbp)
    dba2:	48 c7 85 a0 fe ff ff 	movq   $0x0,-0x160(%rbp)
    dba9:	00 00 00 00 
    dbad:	48 8d 85 04 ea ff ff 	lea    -0x15fc(%rbp),%rax
    dbb4:	48 89 85 a8 fe ff ff 	mov    %rax,-0x158(%rbp)
    dbbb:	48 8d 05 ce a1 00 00 	lea    0xa1ce(%rip),%rax        # 17d90 <g_170>
    dbc2:	48 89 85 b0 fe ff ff 	mov    %rax,-0x150(%rbp)
    dbc9:	48 8d 05 c0 a1 00 00 	lea    0xa1c0(%rip),%rax        # 17d90 <g_170>
    dbd0:	48 89 85 b8 fe ff ff 	mov    %rax,-0x148(%rbp)
    dbd7:	48 c7 85 c0 fe ff ff 	movq   $0x0,-0x140(%rbp)
    dbde:	00 00 00 00 
    dbe2:	48 8d 05 a7 a1 00 00 	lea    0xa1a7(%rip),%rax        # 17d90 <g_170>
    dbe9:	48 89 85 c8 fe ff ff 	mov    %rax,-0x138(%rbp)
    dbf0:	48 8d 05 99 a1 00 00 	lea    0xa199(%rip),%rax        # 17d90 <g_170>
    dbf7:	48 89 85 d0 fe ff ff 	mov    %rax,-0x130(%rbp)
    dbfe:	48 c7 85 d8 fe ff ff 	movq   $0x0,-0x128(%rbp)
    dc05:	00 00 00 00 
    dc09:	48 8d 85 04 ea ff ff 	lea    -0x15fc(%rbp),%rax
    dc10:	48 89 85 e0 fe ff ff 	mov    %rax,-0x120(%rbp)
    dc17:	48 8d 85 04 ea ff ff 	lea    -0x15fc(%rbp),%rax
    dc1e:	48 89 85 e8 fe ff ff 	mov    %rax,-0x118(%rbp)
    dc25:	48 8d 05 64 a1 00 00 	lea    0xa164(%rip),%rax        # 17d90 <g_170>
    dc2c:	48 89 85 f0 fe ff ff 	mov    %rax,-0x110(%rbp)
    dc33:	48 c7 85 f8 fe ff ff 	movq   $0x0,-0x108(%rbp)
    dc3a:	00 00 00 00 
    dc3e:	48 8d 85 04 ea ff ff 	lea    -0x15fc(%rbp),%rax
    dc45:	48 89 85 00 ff ff ff 	mov    %rax,-0x100(%rbp)
    dc4c:	48 8d 85 04 ea ff ff 	lea    -0x15fc(%rbp),%rax
    dc53:	48 89 85 08 ff ff ff 	mov    %rax,-0xf8(%rbp)
    dc5a:	48 c7 85 10 ff ff ff 	movq   $0x0,-0xf0(%rbp)
    dc61:	00 00 00 00 
    dc65:	48 c7 85 18 ff ff ff 	movq   $0x0,-0xe8(%rbp)
    dc6c:	00 00 00 00 
    dc70:	48 8d 85 04 ea ff ff 	lea    -0x15fc(%rbp),%rax
    dc77:	48 89 85 20 ff ff ff 	mov    %rax,-0xe0(%rbp)
    dc7e:	48 8d 85 04 ea ff ff 	lea    -0x15fc(%rbp),%rax
    dc85:	48 89 85 28 ff ff ff 	mov    %rax,-0xd8(%rbp)
    dc8c:	48 8d 05 fd a0 00 00 	lea    0xa0fd(%rip),%rax        # 17d90 <g_170>
    dc93:	48 89 85 30 ff ff ff 	mov    %rax,-0xd0(%rbp)
    dc9a:	48 c7 85 38 ff ff ff 	movq   $0x0,-0xc8(%rbp)
    dca1:	00 00 00 00 
    dca5:	48 8d 05 e4 a0 00 00 	lea    0xa0e4(%rip),%rax        # 17d90 <g_170>
    dcac:	48 89 85 40 ff ff ff 	mov    %rax,-0xc0(%rbp)
    dcb3:	48 8d 05 d6 a0 00 00 	lea    0xa0d6(%rip),%rax        # 17d90 <g_170>
    dcba:	48 89 85 48 ff ff ff 	mov    %rax,-0xb8(%rbp)
    dcc1:	48 8d 85 04 ea ff ff 	lea    -0x15fc(%rbp),%rax
    dcc8:	48 89 85 50 ff ff ff 	mov    %rax,-0xb0(%rbp)
    dccf:	48 8d 85 04 ea ff ff 	lea    -0x15fc(%rbp),%rax
    dcd6:	48 89 85 58 ff ff ff 	mov    %rax,-0xa8(%rbp)
    dcdd:	48 c7 85 60 ff ff ff 	movq   $0x0,-0xa0(%rbp)
    dce4:	00 00 00 00 
    dce8:	48 8d 85 04 ea ff ff 	lea    -0x15fc(%rbp),%rax
    dcef:	48 89 85 68 ff ff ff 	mov    %rax,-0x98(%rbp)
    dcf6:	48 8d 05 93 a0 00 00 	lea    0xa093(%rip),%rax        # 17d90 <g_170>
    dcfd:	48 89 85 70 ff ff ff 	mov    %rax,-0x90(%rbp)
    dd04:	48 8d 05 85 a0 00 00 	lea    0xa085(%rip),%rax        # 17d90 <g_170>
    dd0b:	48 89 85 78 ff ff ff 	mov    %rax,-0x88(%rbp)
    dd12:	48 c7 45 80 00 00 00 	movq   $0x0,-0x80(%rbp)
    dd19:	00 
    dd1a:	48 8d 05 6f a0 00 00 	lea    0xa06f(%rip),%rax        # 17d90 <g_170>
    dd21:	48 89 45 88          	mov    %rax,-0x78(%rbp)
    dd25:	48 c7 45 90 00 00 00 	movq   $0x0,-0x70(%rbp)
    dd2c:	00 
    dd2d:	48 8d 85 04 ea ff ff 	lea    -0x15fc(%rbp),%rax
    dd34:	48 89 45 98          	mov    %rax,-0x68(%rbp)
    dd38:	48 8d 05 51 a0 00 00 	lea    0xa051(%rip),%rax        # 17d90 <g_170>
    dd3f:	48 89 45 a0          	mov    %rax,-0x60(%rbp)
    dd43:	48 c7 45 a8 00 00 00 	movq   $0x0,-0x58(%rbp)
    dd4a:	00 
    dd4b:	48 c7 45 b0 00 00 00 	movq   $0x0,-0x50(%rbp)
    dd52:	00 
    dd53:	48 8d 05 36 a0 00 00 	lea    0xa036(%rip),%rax        # 17d90 <g_170>
    dd5a:	48 89 45 b8          	mov    %rax,-0x48(%rbp)
    dd5e:	48 8d 05 2b a0 00 00 	lea    0xa02b(%rip),%rax        # 17d90 <g_170>
    dd65:	48 89 45 c0          	mov    %rax,-0x40(%rbp)
    dd69:	48 8d 05 20 a0 00 00 	lea    0xa020(%rip),%rax        # 17d90 <g_170>
    dd70:	48 89 45 c8          	mov    %rax,-0x38(%rbp)
    dd74:	48 c7 45 d0 00 00 00 	movq   $0x0,-0x30(%rbp)
    dd7b:	00 
    dd7c:	48 c7 45 d8 00 00 00 	movq   $0x0,-0x28(%rbp)
    dd83:	00 
    dd84:	48 8d 85 00 f8 ff ff 	lea    -0x800(%rbp),%rax
    dd8b:	48 05 20 06 00 00    	add    $0x620,%rax
    dd91:	48 89 85 70 eb ff ff 	mov    %rax,-0x1490(%rbp)
    dd98:	c7 85 8c ea ff ff 63 	movl   $0x920b3c63,-0x1574(%rbp)
    dd9f:	3c 0b 92 
    dda2:	66 c7 85 0c ea ff ff 	movw   $0x3,-0x15f4(%rbp)
    dda9:	03 00 
    ddab:	48 8d 85 a0 ea ff ff 	lea    -0x1560(%rbp),%rax
    ddb2:	48 89 85 d8 ea ff ff 	mov    %rax,-0x1528(%rbp)
    ddb9:	48 8d 85 d8 ea ff ff 	lea    -0x1528(%rbp),%rax
    ddc0:	48 89 85 78 eb ff ff 	mov    %rax,-0x1488(%rbp)
    ddc7:	48 8d 85 b0 ea ff ff 	lea    -0x1550(%rbp),%rax
    ddce:	48 89 85 80 ef ff ff 	mov    %rax,-0x1080(%rbp)
    ddd5:	48 8d 85 b0 ea ff ff 	lea    -0x1550(%rbp),%rax
    dddc:	48 89 85 88 ef ff ff 	mov    %rax,-0x1078(%rbp)
    dde3:	48 8d 85 b0 ea ff ff 	lea    -0x1550(%rbp),%rax
    ddea:	48 89 85 90 ef ff ff 	mov    %rax,-0x1070(%rbp)
    ddf1:	48 8d 85 b0 ea ff ff 	lea    -0x1550(%rbp),%rax
    ddf8:	48 89 85 98 ef ff ff 	mov    %rax,-0x1068(%rbp)
    ddff:	48 8d 85 b0 ea ff ff 	lea    -0x1550(%rbp),%rax
    de06:	48 89 85 a0 ef ff ff 	mov    %rax,-0x1060(%rbp)
    de0d:	48 8d 85 b0 ea ff ff 	lea    -0x1550(%rbp),%rax
    de14:	48 89 85 a8 ef ff ff 	mov    %rax,-0x1058(%rbp)
    de1b:	48 8d 85 b0 ea ff ff 	lea    -0x1550(%rbp),%rax
    de22:	48 89 85 b0 ef ff ff 	mov    %rax,-0x1050(%rbp)
    de29:	48 c7 85 b8 ef ff ff 	movq   $0x0,-0x1048(%rbp)
    de30:	00 00 00 00 
    de34:	48 8d 85 b0 ea ff ff 	lea    -0x1550(%rbp),%rax
    de3b:	48 89 85 c0 ef ff ff 	mov    %rax,-0x1040(%rbp)
    de42:	48 8d 85 b0 ea ff ff 	lea    -0x1550(%rbp),%rax
    de49:	48 89 85 c8 ef ff ff 	mov    %rax,-0x1038(%rbp)
    de50:	48 8d 85 b0 ea ff ff 	lea    -0x1550(%rbp),%rax
    de57:	48 89 85 d0 ef ff ff 	mov    %rax,-0x1030(%rbp)
    de5e:	48 8d 85 b0 ea ff ff 	lea    -0x1550(%rbp),%rax
    de65:	48 89 85 d8 ef ff ff 	mov    %rax,-0x1028(%rbp)
    de6c:	48 8d 85 b0 ea ff ff 	lea    -0x1550(%rbp),%rax
    de73:	48 89 85 e0 ef ff ff 	mov    %rax,-0x1020(%rbp)
    de7a:	48 8d 85 b0 ea ff ff 	lea    -0x1550(%rbp),%rax
    de81:	48 89 85 e8 ef ff ff 	mov    %rax,-0x1018(%rbp)
    de88:	48 8d 85 b0 ea ff ff 	lea    -0x1550(%rbp),%rax
    de8f:	48 89 85 f0 ef ff ff 	mov    %rax,-0x1010(%rbp)
    de96:	48 8d 85 b0 ea ff ff 	lea    -0x1550(%rbp),%rax
    de9d:	48 89 85 f8 ef ff ff 	mov    %rax,-0x1008(%rbp)
    dea4:	48 8d 85 b0 ea ff ff 	lea    -0x1550(%rbp),%rax
    deab:	48 89 85 00 f0 ff ff 	mov    %rax,-0x1000(%rbp)
    deb2:	48 8d 85 b0 ea ff ff 	lea    -0x1550(%rbp),%rax
    deb9:	48 89 85 08 f0 ff ff 	mov    %rax,-0xff8(%rbp)
    dec0:	48 8d 85 b0 ea ff ff 	lea    -0x1550(%rbp),%rax
    dec7:	48 89 85 10 f0 ff ff 	mov    %rax,-0xff0(%rbp)
    dece:	48 8d 85 b0 ea ff ff 	lea    -0x1550(%rbp),%rax
    ded5:	48 89 85 18 f0 ff ff 	mov    %rax,-0xfe8(%rbp)
    dedc:	48 8d 85 b0 ea ff ff 	lea    -0x1550(%rbp),%rax
    dee3:	48 89 85 20 f0 ff ff 	mov    %rax,-0xfe0(%rbp)
    deea:	48 8d 85 b0 ea ff ff 	lea    -0x1550(%rbp),%rax
    def1:	48 89 85 28 f0 ff ff 	mov    %rax,-0xfd8(%rbp)
    def8:	48 c7 85 30 f0 ff ff 	movq   $0x0,-0xfd0(%rbp)
    deff:	00 00 00 00 
    df03:	48 8d 85 b0 ea ff ff 	lea    -0x1550(%rbp),%rax
    df0a:	48 89 85 38 f0 ff ff 	mov    %rax,-0xfc8(%rbp)
    df11:	48 8d 85 b0 ea ff ff 	lea    -0x1550(%rbp),%rax
    df18:	48 89 85 40 f0 ff ff 	mov    %rax,-0xfc0(%rbp)
    df1f:	48 8d 85 b0 ea ff ff 	lea    -0x1550(%rbp),%rax
    df26:	48 89 85 48 f0 ff ff 	mov    %rax,-0xfb8(%rbp)
    df2d:	48 8d 85 b0 ea ff ff 	lea    -0x1550(%rbp),%rax
    df34:	48 89 85 50 f0 ff ff 	mov    %rax,-0xfb0(%rbp)
    df3b:	48 8d 85 b0 ea ff ff 	lea    -0x1550(%rbp),%rax
    df42:	48 89 85 58 f0 ff ff 	mov    %rax,-0xfa8(%rbp)
    df49:	48 8d 85 b0 ea ff ff 	lea    -0x1550(%rbp),%rax
    df50:	48 89 85 60 f0 ff ff 	mov    %rax,-0xfa0(%rbp)
    df57:	48 8d 85 b0 ea ff ff 	lea    -0x1550(%rbp),%rax
    df5e:	48 89 85 68 f0 ff ff 	mov    %rax,-0xf98(%rbp)
    df65:	48 8d 05 bc 8f 00 00 	lea    0x8fbc(%rip),%rax        # 16f28 <g_365>
    df6c:	48 89 85 80 eb ff ff 	mov    %rax,-0x1480(%rbp)
    df73:	48 c7 85 88 eb ff ff 	movq   $0x0,-0x1478(%rbp)
    df7a:	00 00 00 00 
    df7e:	c6 85 07 ea ff ff f6 	movb   $0xf6,-0x15f9(%rbp)
    df85:	c7 85 48 ea ff ff 00 	movl   $0x0,-0x15b8(%rbp)
    df8c:	00 00 00 
    df8f:	eb 1a                	jmp    dfab <func_57+0x1a40>
    df91:	8b 85 48 ea ff ff    	mov    -0x15b8(%rbp),%eax
    df97:	48 98                	cltq   
    df99:	c7 84 85 90 ed ff ff 	movl   $0x4d473167,-0x1270(%rbp,%rax,4)
    dfa0:	67 31 47 4d 
    dfa4:	83 85 48 ea ff ff 01 	addl   $0x1,-0x15b8(%rbp)
    dfab:	83 bd 48 ea ff ff 02 	cmpl   $0x2,-0x15b8(%rbp)
    dfb2:	7e dd                	jle    df91 <func_57+0x1a26>
    dfb4:	48 c7 85 a0 ea ff ff 	movq   $0x0,-0x1560(%rbp)
    dfbb:	00 00 00 00 
    dfbf:	eb 20                	jmp    dfe1 <func_57+0x1a76>
    dfc1:	80 bd fc e9 ff ff 00 	cmpb   $0x0,-0x1604(%rbp)
    dfc8:	74 05                	je     dfcf <func_57+0x1a64>
    dfca:	e9 65 f0 ff ff       	jmpq   d034 <func_57+0xac9>
    dfcf:	48 8b 85 a0 ea ff ff 	mov    -0x1560(%rbp),%rax
    dfd6:	48 83 c0 01          	add    $0x1,%rax
    dfda:	48 89 85 a0 ea ff ff 	mov    %rax,-0x1560(%rbp)
    dfe1:	48 8b 85 a0 ea ff ff 	mov    -0x1560(%rbp),%rax
    dfe8:	48 83 f8 03          	cmp    $0x3,%rax
    dfec:	76 d3                	jbe    dfc1 <func_57+0x1a56>
    dfee:	83 85 30 ea ff ff 01 	addl   $0x1,-0x15d0(%rbp)
    dff5:	83 bd 30 ea ff ff 03 	cmpl   $0x3,-0x15d0(%rbp)
    dffc:	0f 86 72 f0 ff ff    	jbe    d074 <func_57+0xb09>
    e002:	e9 b7 00 00 00       	jmpq   e0be <func_57+0x1b53>
    e007:	66 c7 05 bc 72 00 00 	movw   $0x0,0x72bc(%rip)        # 152cc <g_163>
    e00e:	00 00 
    e010:	90                   	nop
    e011:	0f b7 05 b4 72 00 00 	movzwl 0x72b4(%rip),%eax        # 152cc <g_163>
    e018:	66 83 f8 02          	cmp    $0x2,%ax
    e01c:	77 43                	ja     e061 <func_57+0x1af6>
    e01e:	48 c7 85 08 eb ff ff 	movq   $0x0,-0x14f8(%rbp)
    e025:	00 00 00 00 
    e029:	48 8d 85 90 ec ff ff 	lea    -0x1370(%rbp),%rax
    e030:	48 89 85 10 eb ff ff 	mov    %rax,-0x14f0(%rbp)
    e037:	48 8b 85 10 eb ff ff 	mov    -0x14f0(%rbp),%rax
    e03e:	48 8b 95 08 eb ff ff 	mov    -0x14f8(%rbp),%rdx
    e045:	48 89 10             	mov    %rdx,(%rax)
    e048:	0f b7 05 7d 72 00 00 	movzwl 0x727d(%rip),%eax        # 152cc <g_163>
    e04f:	0f b7 c0             	movzwl %ax,%eax
    e052:	83 c0 03             	add    $0x3,%eax
    e055:	48 98                	cltq   
    e057:	48 8b 84 c5 10 ed ff 	mov    -0x12f0(%rbp,%rax,8),%rax
    e05e:	ff 
    e05f:	eb 64                	jmp    e0c5 <func_57+0x1b5a>
    e061:	48 8b 05 40 8e 00 00 	mov    0x8e40(%rip),%rax        # 16ea8 <g_172>
    e068:	0f be 95 fc e9 ff ff 	movsbl -0x1604(%rbp),%edx
    e06f:	89 10                	mov    %edx,(%rax)
    e071:	48 c7 85 a0 ea ff ff 	movq   $0x0,-0x1560(%rbp)
    e078:	00 00 00 00 
    e07c:	eb 33                	jmp    e0b1 <func_57+0x1b46>
    e07e:	48 8b 85 a0 ea ff ff 	mov    -0x1560(%rbp),%rax
    e085:	48 8d 14 c5 00 00 00 	lea    0x0(,%rax,8),%rdx
    e08c:	00 
    e08d:	48 8d 05 6c 8e 00 00 	lea    0x8e6c(%rip),%rax        # 16f00 <g_367>
    e094:	48 8d 0d cd 71 00 00 	lea    0x71cd(%rip),%rcx        # 15268 <g_111>
    e09b:	48 89 0c 02          	mov    %rcx,(%rdx,%rax,1)
    e09f:	48 8b 85 a0 ea ff ff 	mov    -0x1560(%rbp),%rax
    e0a6:	48 83 c0 01          	add    $0x1,%rax
    e0aa:	48 89 85 a0 ea ff ff 	mov    %rax,-0x1560(%rbp)
    e0b1:	48 8b 85 a0 ea ff ff 	mov    -0x1560(%rbp),%rax
    e0b8:	48 83 f8 03          	cmp    $0x3,%rax
    e0bc:	76 c0                	jbe    e07e <func_57+0x1b13>
    e0be:	0f be 85 fc e9 ff ff 	movsbl -0x1604(%rbp),%eax
    e0c5:	48 8b 5d e8          	mov    -0x18(%rbp),%rbx
    e0c9:	64 48 33 1c 25 28 00 	xor    %fs:0x28,%rbx
    e0d0:	00 00 
    e0d2:	74 05                	je     e0d9 <func_57+0x1b6e>
    e0d4:	e8 97 6f ff ff       	callq  5070 <__stack_chk_fail@plt>
    e0d9:	48 81 c4 00 16 00 00 	add    $0x1600,%rsp
    e0e0:	5b                   	pop    %rbx
    e0e1:	41 5c                	pop    %r12
    e0e3:	5d                   	pop    %rbp
    e0e4:	c3                   	retq   

000000000000e0e5 <func_60>:
    e0e5:	f3 0f 1e fa          	endbr64 
    e0e9:	55                   	push   %rbp
    e0ea:	48 89 e5             	mov    %rsp,%rbp
    e0ed:	89 f8                	mov    %edi,%eax
    e0ef:	88 45 fc             	mov    %al,-0x4(%rbp)
    e0f2:	8b 05 20 70 00 00    	mov    0x7020(%rip),%eax        # 15118 <g_4>
    e0f8:	5d                   	pop    %rbp
    e0f9:	c3                   	retq   

000000000000e0fa <main>:
    e0fa:	f3 0f 1e fa          	endbr64 
    e0fe:	55                   	push   %rbp
    e0ff:	48 89 e5             	mov    %rsp,%rbp
    e102:	48 83 ec 20          	sub    $0x20,%rsp
    e106:	89 7d ec             	mov    %edi,-0x14(%rbp)
    e109:	48 89 75 e0          	mov    %rsi,-0x20(%rbp)
    e10d:	c7 45 fc 00 00 00 00 	movl   $0x0,-0x4(%rbp)
    e114:	83 7d ec 02          	cmpl   $0x2,-0x14(%rbp)
    e118:	75 25                	jne    e13f <main+0x45>
    e11a:	48 8b 45 e0          	mov    -0x20(%rbp),%rax
    e11e:	48 83 c0 08          	add    $0x8,%rax
    e122:	48 8b 00             	mov    (%rax),%rax
    e125:	48 8d 35 74 3e 00 00 	lea    0x3e74(%rip),%rsi        # 11fa0 <g_589+0x1f48>
    e12c:	48 89 c7             	mov    %rax,%rdi
    e12f:	e8 5c 6f ff ff       	callq  5090 <strcmp@plt>
    e134:	85 c0                	test   %eax,%eax
    e136:	75 07                	jne    e13f <main+0x45>
    e138:	c7 45 fc 01 00 00 00 	movl   $0x1,-0x4(%rbp)
    e13f:	e8 45 70 ff ff       	callq  5189 <platform_main_begin>
    e144:	e8 4f 84 ff ff       	callq  6598 <crc32_gentab>
    e149:	e8 67 86 ff ff       	callq  67b5 <func_1>
    e14e:	8b 05 d0 6e 00 00    	mov    0x6ed0(%rip),%eax        # 15024 <g_2>
    e154:	48 98                	cltq   
    e156:	8b 55 fc             	mov    -0x4(%rbp),%edx
    e159:	48 8d 35 42 3e 00 00 	lea    0x3e42(%rip),%rsi        # 11fa2 <g_589+0x1f4a>
    e160:	48 89 c7             	mov    %rax,%rdi
    e163:	e8 8b 85 ff ff       	callq  66f3 <transparent_crc>
    e168:	c7 45 f0 00 00 00 00 	movl   $0x0,-0x10(%rbp)
    e16f:	eb 77                	jmp    e1e8 <main+0xee>
    e171:	c7 45 f4 00 00 00 00 	movl   $0x0,-0xc(%rbp)
    e178:	eb 64                	jmp    e1de <main+0xe4>
    e17a:	8b 45 f4             	mov    -0xc(%rbp),%eax
    e17d:	48 63 c8             	movslq %eax,%rcx
    e180:	8b 45 f0             	mov    -0x10(%rbp),%eax
    e183:	48 63 d0             	movslq %eax,%rdx
    e186:	48 89 d0             	mov    %rdx,%rax
    e189:	48 01 c0             	add    %rax,%rax
    e18c:	48 01 d0             	add    %rdx,%rax
    e18f:	48 01 c0             	add    %rax,%rax
    e192:	48 01 c8             	add    %rcx,%rax
    e195:	48 8d 14 85 00 00 00 	lea    0x0(,%rax,4),%rdx
    e19c:	00 
    e19d:	48 8d 05 9c 6e 00 00 	lea    0x6e9c(%rip),%rax        # 15040 <g_3>
    e1a4:	8b 04 02             	mov    (%rdx,%rax,1),%eax
    e1a7:	48 98                	cltq   
    e1a9:	8b 55 fc             	mov    -0x4(%rbp),%edx
    e1ac:	48 8d 35 f3 3d 00 00 	lea    0x3df3(%rip),%rsi        # 11fa6 <g_589+0x1f4e>
    e1b3:	48 89 c7             	mov    %rax,%rdi
    e1b6:	e8 38 85 ff ff       	callq  66f3 <transparent_crc>
    e1bb:	83 7d fc 00          	cmpl   $0x0,-0x4(%rbp)
    e1bf:	74 19                	je     e1da <main+0xe0>
    e1c1:	8b 55 f4             	mov    -0xc(%rbp),%edx
    e1c4:	8b 45 f0             	mov    -0x10(%rbp),%eax
    e1c7:	89 c6                	mov    %eax,%esi
    e1c9:	48 8d 3d e0 3d 00 00 	lea    0x3de0(%rip),%rdi        # 11fb0 <g_589+0x1f58>
    e1d0:	b8 00 00 00 00       	mov    $0x0,%eax
    e1d5:	e8 a6 6e ff ff       	callq  5080 <printf@plt>
    e1da:	83 45 f4 01          	addl   $0x1,-0xc(%rbp)
    e1de:	83 7d f4 05          	cmpl   $0x5,-0xc(%rbp)
    e1e2:	7e 96                	jle    e17a <main+0x80>
    e1e4:	83 45 f0 01          	addl   $0x1,-0x10(%rbp)
    e1e8:	83 7d f0 08          	cmpl   $0x8,-0x10(%rbp)
    e1ec:	7e 83                	jle    e171 <main+0x77>
    e1ee:	8b 05 24 6f 00 00    	mov    0x6f24(%rip),%eax        # 15118 <g_4>
    e1f4:	48 98                	cltq   
    e1f6:	8b 55 fc             	mov    -0x4(%rbp),%edx
    e1f9:	48 8d 35 c2 3d 00 00 	lea    0x3dc2(%rip),%rsi        # 11fc2 <g_589+0x1f6a>
    e200:	48 89 c7             	mov    %rax,%rdi
    e203:	e8 eb 84 ff ff       	callq  66f3 <transparent_crc>
    e208:	c7 45 f0 00 00 00 00 	movl   $0x0,-0x10(%rbp)
    e20f:	eb 6e                	jmp    e27f <main+0x185>
    e211:	c7 45 f4 00 00 00 00 	movl   $0x0,-0xc(%rbp)
    e218:	eb 5b                	jmp    e275 <main+0x17b>
    e21a:	8b 45 f4             	mov    -0xc(%rbp),%eax
    e21d:	48 98                	cltq   
    e21f:	8b 55 f0             	mov    -0x10(%rbp),%edx
    e222:	48 63 d2             	movslq %edx,%rdx
    e225:	48 c1 e2 03          	shl    $0x3,%rdx
    e229:	48 01 d0             	add    %rdx,%rax
    e22c:	48 8d 14 85 00 00 00 	lea    0x0(,%rax,4),%rdx
    e233:	00 
    e234:	48 8d 05 e5 6e 00 00 	lea    0x6ee5(%rip),%rax        # 15120 <g_28>
    e23b:	8b 04 02             	mov    (%rdx,%rax,1),%eax
    e23e:	48 98                	cltq   
    e240:	8b 55 fc             	mov    -0x4(%rbp),%edx
    e243:	48 8d 35 7c 3d 00 00 	lea    0x3d7c(%rip),%rsi        # 11fc6 <g_589+0x1f6e>
    e24a:	48 89 c7             	mov    %rax,%rdi
    e24d:	e8 a1 84 ff ff       	callq  66f3 <transparent_crc>
    e252:	83 7d fc 00          	cmpl   $0x0,-0x4(%rbp)
    e256:	74 19                	je     e271 <main+0x177>
    e258:	8b 55 f4             	mov    -0xc(%rbp),%edx
    e25b:	8b 45 f0             	mov    -0x10(%rbp),%eax
    e25e:	89 c6                	mov    %eax,%esi
    e260:	48 8d 3d 49 3d 00 00 	lea    0x3d49(%rip),%rdi        # 11fb0 <g_589+0x1f58>
    e267:	b8 00 00 00 00       	mov    $0x0,%eax
    e26c:	e8 0f 6e ff ff       	callq  5080 <printf@plt>
    e271:	83 45 f4 01          	addl   $0x1,-0xc(%rbp)
    e275:	83 7d f4 07          	cmpl   $0x7,-0xc(%rbp)
    e279:	7e 9f                	jle    e21a <main+0x120>
    e27b:	83 45 f0 01          	addl   $0x1,-0x10(%rbp)
    e27f:	83 7d f0 03          	cmpl   $0x3,-0x10(%rbp)
    e283:	7e 8c                	jle    e211 <main+0x117>
    e285:	8b 05 15 6f 00 00    	mov    0x6f15(%rip),%eax        # 151a0 <g_51>
    e28b:	48 98                	cltq   
    e28d:	8b 55 fc             	mov    -0x4(%rbp),%edx
    e290:	48 8d 35 3a 3d 00 00 	lea    0x3d3a(%rip),%rsi        # 11fd1 <g_589+0x1f79>
    e297:	48 89 c7             	mov    %rax,%rdi
    e29a:	e8 54 84 ff ff       	callq  66f3 <transparent_crc>
    e29f:	0f b7 05 fe 6e 00 00 	movzwl 0x6efe(%rip),%eax        # 151a4 <g_55>
    e2a6:	48 0f bf c0          	movswq %ax,%rax
    e2aa:	8b 55 fc             	mov    -0x4(%rbp),%edx
    e2ad:	48 8d 35 22 3d 00 00 	lea    0x3d22(%rip),%rsi        # 11fd6 <g_589+0x1f7e>
    e2b4:	48 89 c7             	mov    %rax,%rdi
    e2b7:	e8 37 84 ff ff       	callq  66f3 <transparent_crc>
    e2bc:	c7 45 f0 00 00 00 00 	movl   $0x0,-0x10(%rbp)
    e2c3:	eb 6d                	jmp    e332 <main+0x238>
    e2c5:	c7 45 f4 00 00 00 00 	movl   $0x0,-0xc(%rbp)
    e2cc:	eb 5a                	jmp    e328 <main+0x22e>
    e2ce:	8b 45 f4             	mov    -0xc(%rbp),%eax
    e2d1:	48 98                	cltq   
    e2d3:	8b 55 f0             	mov    -0x10(%rbp),%edx
    e2d6:	48 63 d2             	movslq %edx,%rdx
    e2d9:	48 c1 e2 03          	shl    $0x3,%rdx
    e2dd:	48 01 d0             	add    %rdx,%rax
    e2e0:	48 8d 14 00          	lea    (%rax,%rax,1),%rdx
    e2e4:	48 8d 05 d5 6e 00 00 	lea    0x6ed5(%rip),%rax        # 151c0 <g_75>
    e2eb:	0f b7 04 02          	movzwl (%rdx,%rax,1),%eax
    e2ef:	48 0f bf c0          	movswq %ax,%rax
    e2f3:	8b 55 fc             	mov    -0x4(%rbp),%edx
    e2f6:	48 8d 35 de 3c 00 00 	lea    0x3cde(%rip),%rsi        # 11fdb <g_589+0x1f83>
    e2fd:	48 89 c7             	mov    %rax,%rdi
    e300:	e8 ee 83 ff ff       	callq  66f3 <transparent_crc>
    e305:	83 7d fc 00          	cmpl   $0x0,-0x4(%rbp)
    e309:	74 19                	je     e324 <main+0x22a>
    e30b:	8b 55 f4             	mov    -0xc(%rbp),%edx
    e30e:	8b 45 f0             	mov    -0x10(%rbp),%eax
    e311:	89 c6                	mov    %eax,%esi
    e313:	48 8d 3d 96 3c 00 00 	lea    0x3c96(%rip),%rdi        # 11fb0 <g_589+0x1f58>
    e31a:	b8 00 00 00 00       	mov    $0x0,%eax
    e31f:	e8 5c 6d ff ff       	callq  5080 <printf@plt>
    e324:	83 45 f4 01          	addl   $0x1,-0xc(%rbp)
    e328:	83 7d f4 07          	cmpl   $0x7,-0xc(%rbp)
    e32c:	7e a0                	jle    e2ce <main+0x1d4>
    e32e:	83 45 f0 01          	addl   $0x1,-0x10(%rbp)
    e332:	83 7d f0 09          	cmpl   $0x9,-0x10(%rbp)
    e336:	7e 8d                	jle    e2c5 <main+0x1cb>
    e338:	48 8b 05 21 6f 00 00 	mov    0x6f21(%rip),%rax        # 15260 <g_77>
    e33f:	48 89 c1             	mov    %rax,%rcx
    e342:	8b 45 fc             	mov    -0x4(%rbp),%eax
    e345:	89 c2                	mov    %eax,%edx
    e347:	48 8d 35 98 3c 00 00 	lea    0x3c98(%rip),%rsi        # 11fe6 <g_589+0x1f8e>
    e34e:	48 89 cf             	mov    %rcx,%rdi
    e351:	e8 9d 83 ff ff       	callq  66f3 <transparent_crc>
    e356:	0f b6 05 0b 6f 00 00 	movzbl 0x6f0b(%rip),%eax        # 15268 <g_111>
    e35d:	0f b6 c0             	movzbl %al,%eax
    e360:	8b 55 fc             	mov    -0x4(%rbp),%edx
    e363:	48 8d 35 81 3c 00 00 	lea    0x3c81(%rip),%rsi        # 11feb <g_589+0x1f93>
    e36a:	48 89 c7             	mov    %rax,%rdi
    e36d:	e8 81 83 ff ff       	callq  66f3 <transparent_crc>
    e372:	c7 45 f0 00 00 00 00 	movl   $0x0,-0x10(%rbp)
    e379:	eb 4f                	jmp    e3ca <main+0x2d0>
    e37b:	8b 45 f0             	mov    -0x10(%rbp),%eax
    e37e:	48 98                	cltq   
    e380:	48 8d 14 c5 00 00 00 	lea    0x0(,%rax,8),%rdx
    e387:	00 
    e388:	48 8d 05 f1 6e 00 00 	lea    0x6ef1(%rip),%rax        # 15280 <g_112>
    e38f:	48 8b 04 02          	mov    (%rdx,%rax,1),%rax
    e393:	48 89 c1             	mov    %rax,%rcx
    e396:	8b 45 fc             	mov    -0x4(%rbp),%eax
    e399:	89 c2                	mov    %eax,%edx
    e39b:	48 8d 35 4f 3c 00 00 	lea    0x3c4f(%rip),%rsi        # 11ff1 <g_589+0x1f99>
    e3a2:	48 89 cf             	mov    %rcx,%rdi
    e3a5:	e8 49 83 ff ff       	callq  66f3 <transparent_crc>
    e3aa:	83 7d fc 00          	cmpl   $0x0,-0x4(%rbp)
    e3ae:	74 16                	je     e3c6 <main+0x2cc>
    e3b0:	8b 45 f0             	mov    -0x10(%rbp),%eax
    e3b3:	89 c6                	mov    %eax,%esi
    e3b5:	48 8d 3d 3e 3c 00 00 	lea    0x3c3e(%rip),%rdi        # 11ffa <g_589+0x1fa2>
    e3bc:	b8 00 00 00 00       	mov    $0x0,%eax
    e3c1:	e8 ba 6c ff ff       	callq  5080 <printf@plt>
    e3c6:	83 45 f0 01          	addl   $0x1,-0x10(%rbp)
    e3ca:	83 7d f0 06          	cmpl   $0x6,-0x10(%rbp)
    e3ce:	7e ab                	jle    e37b <main+0x281>
    e3d0:	8b 05 e2 6e 00 00    	mov    0x6ee2(%rip),%eax        # 152b8 <g_114>
    e3d6:	89 c1                	mov    %eax,%ecx
    e3d8:	8b 45 fc             	mov    -0x4(%rbp),%eax
    e3db:	89 c2                	mov    %eax,%edx
    e3dd:	48 8d 35 24 3c 00 00 	lea    0x3c24(%rip),%rsi        # 12008 <g_589+0x1fb0>
    e3e4:	48 89 cf             	mov    %rcx,%rdi
    e3e7:	e8 07 83 ff ff       	callq  66f3 <transparent_crc>
    e3ec:	8b 05 ca 6e 00 00    	mov    0x6eca(%rip),%eax        # 152bc <g_116>
    e3f2:	89 c1                	mov    %eax,%ecx
    e3f4:	8b 45 fc             	mov    -0x4(%rbp),%eax
    e3f7:	89 c2                	mov    %eax,%edx
    e3f9:	48 8d 35 0e 3c 00 00 	lea    0x3c0e(%rip),%rsi        # 1200e <g_589+0x1fb6>
    e400:	48 89 cf             	mov    %rcx,%rdi
    e403:	e8 eb 82 ff ff       	callq  66f3 <transparent_crc>
    e408:	48 8b 05 b1 6e 00 00 	mov    0x6eb1(%rip),%rax        # 152c0 <g_147>
    e40f:	8b 55 fc             	mov    -0x4(%rbp),%edx
    e412:	48 8d 35 fb 3b 00 00 	lea    0x3bfb(%rip),%rsi        # 12014 <g_589+0x1fbc>
    e419:	48 89 c7             	mov    %rax,%rdi
    e41c:	e8 d2 82 ff ff       	callq  66f3 <transparent_crc>
    e421:	8b 05 a1 6e 00 00    	mov    0x6ea1(%rip),%eax        # 152c8 <g_149>
    e427:	89 c1                	mov    %eax,%ecx
    e429:	8b 45 fc             	mov    -0x4(%rbp),%eax
    e42c:	89 c2                	mov    %eax,%edx
    e42e:	48 8d 35 e5 3b 00 00 	lea    0x3be5(%rip),%rsi        # 1201a <g_589+0x1fc2>
    e435:	48 89 cf             	mov    %rcx,%rdi
    e438:	e8 b6 82 ff ff       	callq  66f3 <transparent_crc>
    e43d:	0f b7 05 88 6e 00 00 	movzwl 0x6e88(%rip),%eax        # 152cc <g_163>
    e444:	0f b7 c0             	movzwl %ax,%eax
    e447:	8b 55 fc             	mov    -0x4(%rbp),%edx
    e44a:	48 8d 35 cf 3b 00 00 	lea    0x3bcf(%rip),%rsi        # 12020 <g_589+0x1fc8>
    e451:	48 89 c7             	mov    %rax,%rdi
    e454:	e8 9a 82 ff ff       	callq  66f3 <transparent_crc>
    e459:	0f b6 05 30 99 00 00 	movzbl 0x9930(%rip),%eax        # 17d90 <g_170>
    e460:	0f b6 c0             	movzbl %al,%eax
    e463:	8b 55 fc             	mov    -0x4(%rbp),%edx
    e466:	48 8d 35 b9 3b 00 00 	lea    0x3bb9(%rip),%rsi        # 12026 <g_589+0x1fce>
    e46d:	48 89 c7             	mov    %rax,%rdi
    e470:	e8 7e 82 ff ff       	callq  66f3 <transparent_crc>
    e475:	48 8b 05 54 6e 00 00 	mov    0x6e54(%rip),%rax        # 152d0 <g_180>
    e47c:	83 e0 01             	and    $0x1,%eax
    e47f:	0f b6 c0             	movzbl %al,%eax
    e482:	8b 55 fc             	mov    -0x4(%rbp),%edx
    e485:	48 8d 35 a0 3b 00 00 	lea    0x3ba0(%rip),%rsi        # 1202c <g_589+0x1fd4>
    e48c:	48 89 c7             	mov    %rax,%rdi
    e48f:	e8 5f 82 ff ff       	callq  66f3 <transparent_crc>
    e494:	48 8b 05 35 6e 00 00 	mov    0x6e35(%rip),%rax        # 152d0 <g_180>
    e49b:	c1 e0 0b             	shl    $0xb,%eax
    e49e:	c1 f8 0c             	sar    $0xc,%eax
    e4a1:	48 98                	cltq   
    e4a3:	8b 55 fc             	mov    -0x4(%rbp),%edx
    e4a6:	48 8d 35 88 3b 00 00 	lea    0x3b88(%rip),%rsi        # 12035 <g_589+0x1fdd>
    e4ad:	48 89 c7             	mov    %rax,%rdi
    e4b0:	e8 3e 82 ff ff       	callq  66f3 <transparent_crc>
    e4b5:	48 8b 05 14 6e 00 00 	mov    0x6e14(%rip),%rax        # 152d0 <g_180>
    e4bc:	c1 e0 04             	shl    $0x4,%eax
    e4bf:	c1 f8 19             	sar    $0x19,%eax
    e4c2:	48 0f be c0          	movsbq %al,%rax
    e4c6:	8b 55 fc             	mov    -0x4(%rbp),%edx
    e4c9:	48 8d 35 6e 3b 00 00 	lea    0x3b6e(%rip),%rsi        # 1203e <g_589+0x1fe6>
    e4d0:	48 89 c7             	mov    %rax,%rdi
    e4d3:	e8 1b 82 ff ff       	callq  66f3 <transparent_crc>
    e4d8:	48 8b 05 f1 6d 00 00 	mov    0x6df1(%rip),%rax        # 152d0 <g_180>
    e4df:	48 c1 e8 1c          	shr    $0x1c,%rax
    e4e3:	25 ff ff 3f 00       	and    $0x3fffff,%eax
    e4e8:	89 c1                	mov    %eax,%ecx
    e4ea:	8b 45 fc             	mov    -0x4(%rbp),%eax
    e4ed:	89 c2                	mov    %eax,%edx
    e4ef:	48 8d 35 51 3b 00 00 	lea    0x3b51(%rip),%rsi        # 12047 <g_589+0x1fef>
    e4f6:	48 89 cf             	mov    %rcx,%rdi
    e4f9:	e8 f5 81 ff ff       	callq  66f3 <transparent_crc>
    e4fe:	48 8b 05 cb 6d 00 00 	mov    0x6dcb(%rip),%rax        # 152d0 <g_180>
    e505:	48 c1 e8 32          	shr    $0x32,%rax
    e509:	48 89 c2             	mov    %rax,%rdx
    e50c:	48 8b 05 c5 6d 00 00 	mov    0x6dc5(%rip),%rax        # 152d8 <g_180+0x8>
    e513:	83 e0 01             	and    $0x1,%eax
    e516:	48 c1 e0 0e          	shl    $0xe,%rax
    e51a:	48 09 d0             	or     %rdx,%rax
    e51d:	48 c1 e0 31          	shl    $0x31,%rax
    e521:	48 c1 f8 31          	sar    $0x31,%rax
    e525:	48 0f bf c0          	movswq %ax,%rax
    e529:	8b 55 fc             	mov    -0x4(%rbp),%edx
    e52c:	48 8d 35 1d 3b 00 00 	lea    0x3b1d(%rip),%rsi        # 12050 <g_589+0x1ff8>
    e533:	48 89 c7             	mov    %rax,%rdi
    e536:	e8 b8 81 ff ff       	callq  66f3 <transparent_crc>
    e53b:	48 8b 05 96 6d 00 00 	mov    0x6d96(%rip),%rax        # 152d8 <g_180+0x8>
    e542:	c1 e0 03             	shl    $0x3,%eax
    e545:	66 c1 f8 04          	sar    $0x4,%ax
    e549:	48 0f bf c0          	movswq %ax,%rax
    e54d:	8b 55 fc             	mov    -0x4(%rbp),%edx
    e550:	48 8d 35 02 3b 00 00 	lea    0x3b02(%rip),%rsi        # 12059 <g_589+0x2001>
    e557:	48 89 c7             	mov    %rax,%rdi
    e55a:	e8 94 81 ff ff       	callq  66f3 <transparent_crc>
    e55f:	48 8b 05 72 6d 00 00 	mov    0x6d72(%rip),%rax        # 152d8 <g_180+0x8>
    e566:	48 c1 e8 0d          	shr    $0xd,%rax
    e56a:	25 ff ff ff 07       	and    $0x7ffffff,%eax
    e56f:	89 c1                	mov    %eax,%ecx
    e571:	8b 45 fc             	mov    -0x4(%rbp),%eax
    e574:	89 c2                	mov    %eax,%edx
    e576:	48 8d 35 e5 3a 00 00 	lea    0x3ae5(%rip),%rsi        # 12062 <g_589+0x200a>
    e57d:	48 89 cf             	mov    %rcx,%rdi
    e580:	e8 6e 81 ff ff       	callq  66f3 <transparent_crc>
    e585:	8b 05 52 6d 00 00    	mov    0x6d52(%rip),%eax        # 152dd <g_180+0xd>
    e58b:	89 c1                	mov    %eax,%ecx
    e58d:	8b 45 fc             	mov    -0x4(%rbp),%eax
    e590:	89 c2                	mov    %eax,%edx
    e592:	48 8d 35 d2 3a 00 00 	lea    0x3ad2(%rip),%rsi        # 1206b <g_589+0x2013>
    e599:	48 89 cf             	mov    %rcx,%rdi
    e59c:	e8 52 81 ff ff       	callq  66f3 <transparent_crc>
    e5a1:	8b 05 3d 6d 00 00    	mov    0x6d3d(%rip),%eax        # 152e4 <g_246>
    e5a7:	48 98                	cltq   
    e5a9:	8b 55 fc             	mov    -0x4(%rbp),%edx
    e5ac:	48 8d 35 c1 3a 00 00 	lea    0x3ac1(%rip),%rsi        # 12074 <g_589+0x201c>
    e5b3:	48 89 c7             	mov    %rax,%rdi
    e5b6:	e8 38 81 ff ff       	callq  66f3 <transparent_crc>
    e5bb:	0f b7 05 26 6d 00 00 	movzwl 0x6d26(%rip),%eax        # 152e8 <g_247>
    e5c2:	48 0f bf c0          	movswq %ax,%rax
    e5c6:	8b 55 fc             	mov    -0x4(%rbp),%edx
    e5c9:	48 8d 35 aa 3a 00 00 	lea    0x3aaa(%rip),%rsi        # 1207a <g_589+0x2022>
    e5d0:	48 89 c7             	mov    %rax,%rdi
    e5d3:	e8 1b 81 ff ff       	callq  66f3 <transparent_crc>
    e5d8:	c7 45 f0 00 00 00 00 	movl   $0x0,-0x10(%rbp)
    e5df:	e9 bb 00 00 00       	jmpq   e69f <main+0x5a5>
    e5e4:	c7 45 f4 00 00 00 00 	movl   $0x0,-0xc(%rbp)
    e5eb:	e9 a1 00 00 00       	jmpq   e691 <main+0x597>
    e5f0:	c7 45 f8 00 00 00 00 	movl   $0x0,-0x8(%rbp)
    e5f7:	e9 87 00 00 00       	jmpq   e683 <main+0x589>
    e5fc:	8b 45 f8             	mov    -0x8(%rbp),%eax
    e5ff:	48 63 f0             	movslq %eax,%rsi
    e602:	8b 45 f0             	mov    -0x10(%rbp),%eax
    e605:	48 98                	cltq   
    e607:	8b 55 f4             	mov    -0xc(%rbp),%edx
    e60a:	48 63 ca             	movslq %edx,%rcx
    e60d:	48 89 c2             	mov    %rax,%rdx
    e610:	48 01 d2             	add    %rdx,%rdx
    e613:	48 01 c2             	add    %rax,%rdx
    e616:	48 8d 04 95 00 00 00 	lea    0x0(,%rdx,4),%rax
    e61d:	00 
    e61e:	48 89 c2             	mov    %rax,%rdx
    e621:	48 89 c8             	mov    %rcx,%rax
    e624:	48 01 c0             	add    %rax,%rax
    e627:	48 01 c8             	add    %rcx,%rax
    e62a:	48 01 c0             	add    %rax,%rax
    e62d:	48 01 d0             	add    %rdx,%rax
    e630:	48 01 f0             	add    %rsi,%rax
    e633:	48 8d 14 c5 00 00 00 	lea    0x0(,%rax,8),%rdx
    e63a:	00 
    e63b:	48 8d 05 be 6c 00 00 	lea    0x6cbe(%rip),%rax        # 15300 <g_266>
    e642:	48 8b 04 02          	mov    (%rdx,%rax,1),%rax
    e646:	48 89 c1             	mov    %rax,%rcx
    e649:	8b 45 fc             	mov    -0x4(%rbp),%eax
    e64c:	89 c2                	mov    %eax,%edx
    e64e:	48 8d 35 2b 3a 00 00 	lea    0x3a2b(%rip),%rsi        # 12080 <g_589+0x2028>
    e655:	48 89 cf             	mov    %rcx,%rdi
    e658:	e8 96 80 ff ff       	callq  66f3 <transparent_crc>
    e65d:	83 7d fc 00          	cmpl   $0x0,-0x4(%rbp)
    e661:	74 1c                	je     e67f <main+0x585>
    e663:	8b 4d f8             	mov    -0x8(%rbp),%ecx
    e666:	8b 55 f4             	mov    -0xc(%rbp),%edx
    e669:	8b 45 f0             	mov    -0x10(%rbp),%eax
    e66c:	89 c6                	mov    %eax,%esi
    e66e:	48 8d 3d 1a 3a 00 00 	lea    0x3a1a(%rip),%rdi        # 1208f <g_589+0x2037>
    e675:	b8 00 00 00 00       	mov    $0x0,%eax
    e67a:	e8 01 6a ff ff       	callq  5080 <printf@plt>
    e67f:	83 45 f8 01          	addl   $0x1,-0x8(%rbp)
    e683:	83 7d f8 05          	cmpl   $0x5,-0x8(%rbp)
    e687:	0f 8e 6f ff ff ff    	jle    e5fc <main+0x502>
    e68d:	83 45 f4 01          	addl   $0x1,-0xc(%rbp)
    e691:	83 7d f4 01          	cmpl   $0x1,-0xc(%rbp)
    e695:	0f 8e 55 ff ff ff    	jle    e5f0 <main+0x4f6>
    e69b:	83 45 f0 01          	addl   $0x1,-0x10(%rbp)
    e69f:	83 7d f0 03          	cmpl   $0x3,-0x10(%rbp)
    e6a3:	0f 8e 3b ff ff ff    	jle    e5e4 <main+0x4ea>
    e6a9:	0f b6 05 d0 6d 00 00 	movzbl 0x6dd0(%rip),%eax        # 15480 <g_267>
    e6b0:	83 e0 01             	and    $0x1,%eax
    e6b3:	0f b6 c0             	movzbl %al,%eax
    e6b6:	8b 55 fc             	mov    -0x4(%rbp),%edx
    e6b9:	48 8d 35 e5 39 00 00 	lea    0x39e5(%rip),%rsi        # 120a5 <g_589+0x204d>
    e6c0:	48 89 c7             	mov    %rax,%rdi
    e6c3:	e8 2b 80 ff ff       	callq  66f3 <transparent_crc>
    e6c8:	8b 05 b2 6d 00 00    	mov    0x6db2(%rip),%eax        # 15480 <g_267>
    e6ce:	c1 e0 0b             	shl    $0xb,%eax
    e6d1:	c1 f8 0c             	sar    $0xc,%eax
    e6d4:	48 98                	cltq   
    e6d6:	8b 55 fc             	mov    -0x4(%rbp),%edx
    e6d9:	48 8d 35 ce 39 00 00 	lea    0x39ce(%rip),%rsi        # 120ae <g_589+0x2056>
    e6e0:	48 89 c7             	mov    %rax,%rdi
    e6e3:	e8 0b 80 ff ff       	callq  66f3 <transparent_crc>
    e6e8:	48 8b 05 91 6d 00 00 	mov    0x6d91(%rip),%rax        # 15480 <g_267>
    e6ef:	c1 e0 04             	shl    $0x4,%eax
    e6f2:	c1 f8 19             	sar    $0x19,%eax
    e6f5:	48 0f be c0          	movsbq %al,%rax
    e6f9:	8b 55 fc             	mov    -0x4(%rbp),%edx
    e6fc:	48 8d 35 b4 39 00 00 	lea    0x39b4(%rip),%rsi        # 120b7 <g_589+0x205f>
    e703:	48 89 c7             	mov    %rax,%rdi
    e706:	e8 e8 7f ff ff       	callq  66f3 <transparent_crc>
    e70b:	48 8b 05 6e 6d 00 00 	mov    0x6d6e(%rip),%rax        # 15480 <g_267>
    e712:	48 c1 e8 1c          	shr    $0x1c,%rax
    e716:	25 ff ff 3f 00       	and    $0x3fffff,%eax
    e71b:	89 c1                	mov    %eax,%ecx
    e71d:	8b 45 fc             	mov    -0x4(%rbp),%eax
    e720:	89 c2                	mov    %eax,%edx
    e722:	48 8d 35 97 39 00 00 	lea    0x3997(%rip),%rsi        # 120c0 <g_589+0x2068>
    e729:	48 89 cf             	mov    %rcx,%rdi
    e72c:	e8 c2 7f ff ff       	callq  66f3 <transparent_crc>
    e731:	48 8b 05 48 6d 00 00 	mov    0x6d48(%rip),%rax        # 15480 <g_267>
    e738:	48 c1 e8 32          	shr    $0x32,%rax
    e73c:	48 89 c2             	mov    %rax,%rdx
    e73f:	48 8b 05 42 6d 00 00 	mov    0x6d42(%rip),%rax        # 15488 <g_267+0x8>
    e746:	83 e0 01             	and    $0x1,%eax
    e749:	48 c1 e0 0e          	shl    $0xe,%rax
    e74d:	48 09 d0             	or     %rdx,%rax
    e750:	48 c1 e0 31          	shl    $0x31,%rax
    e754:	48 c1 f8 31          	sar    $0x31,%rax
    e758:	48 0f bf c0          	movswq %ax,%rax
    e75c:	8b 55 fc             	mov    -0x4(%rbp),%edx
    e75f:	48 8d 35 63 39 00 00 	lea    0x3963(%rip),%rsi        # 120c9 <g_589+0x2071>
    e766:	48 89 c7             	mov    %rax,%rdi
    e769:	e8 85 7f ff ff       	callq  66f3 <transparent_crc>
    e76e:	0f b7 05 13 6d 00 00 	movzwl 0x6d13(%rip),%eax        # 15488 <g_267+0x8>
    e775:	c1 e0 03             	shl    $0x3,%eax
    e778:	66 c1 f8 04          	sar    $0x4,%ax
    e77c:	48 0f bf c0          	movswq %ax,%rax
    e780:	8b 55 fc             	mov    -0x4(%rbp),%edx
    e783:	48 8d 35 48 39 00 00 	lea    0x3948(%rip),%rsi        # 120d2 <g_589+0x207a>
    e78a:	48 89 c7             	mov    %rax,%rdi
    e78d:	e8 61 7f ff ff       	callq  66f3 <transparent_crc>
    e792:	48 8b 05 ef 6c 00 00 	mov    0x6cef(%rip),%rax        # 15488 <g_267+0x8>
    e799:	48 c1 e8 0d          	shr    $0xd,%rax
    e79d:	25 ff ff ff 07       	and    $0x7ffffff,%eax
    e7a2:	89 c1                	mov    %eax,%ecx
    e7a4:	8b 45 fc             	mov    -0x4(%rbp),%eax
    e7a7:	89 c2                	mov    %eax,%edx
    e7a9:	48 8d 35 2b 39 00 00 	lea    0x392b(%rip),%rsi        # 120db <g_589+0x2083>
    e7b0:	48 89 cf             	mov    %rcx,%rdi
    e7b3:	e8 3b 7f ff ff       	callq  66f3 <transparent_crc>
    e7b8:	8b 05 cf 6c 00 00    	mov    0x6ccf(%rip),%eax        # 1548d <g_267+0xd>
    e7be:	89 c1                	mov    %eax,%ecx
    e7c0:	8b 45 fc             	mov    -0x4(%rbp),%eax
    e7c3:	89 c2                	mov    %eax,%edx
    e7c5:	48 8d 35 18 39 00 00 	lea    0x3918(%rip),%rsi        # 120e4 <g_589+0x208c>
    e7cc:	48 89 cf             	mov    %rcx,%rdi
    e7cf:	e8 1f 7f ff ff       	callq  66f3 <transparent_crc>
    e7d4:	48 8b 05 c5 6c 00 00 	mov    0x6cc5(%rip),%rax        # 154a0 <g_270>
    e7db:	83 e0 01             	and    $0x1,%eax
    e7de:	0f b6 c0             	movzbl %al,%eax
    e7e1:	8b 55 fc             	mov    -0x4(%rbp),%edx
    e7e4:	48 8d 35 02 39 00 00 	lea    0x3902(%rip),%rsi        # 120ed <g_589+0x2095>
    e7eb:	48 89 c7             	mov    %rax,%rdi
    e7ee:	e8 00 7f ff ff       	callq  66f3 <transparent_crc>
    e7f3:	48 8b 05 a6 6c 00 00 	mov    0x6ca6(%rip),%rax        # 154a0 <g_270>
    e7fa:	c1 e0 0b             	shl    $0xb,%eax
    e7fd:	c1 f8 0c             	sar    $0xc,%eax
    e800:	48 98                	cltq   
    e802:	8b 55 fc             	mov    -0x4(%rbp),%edx
    e805:	48 8d 35 ea 38 00 00 	lea    0x38ea(%rip),%rsi        # 120f6 <g_589+0x209e>
    e80c:	48 89 c7             	mov    %rax,%rdi
    e80f:	e8 df 7e ff ff       	callq  66f3 <transparent_crc>
    e814:	48 8b 05 85 6c 00 00 	mov    0x6c85(%rip),%rax        # 154a0 <g_270>
    e81b:	c1 e0 04             	shl    $0x4,%eax
    e81e:	c1 f8 19             	sar    $0x19,%eax
    e821:	48 0f be c0          	movsbq %al,%rax
    e825:	8b 55 fc             	mov    -0x4(%rbp),%edx
    e828:	48 8d 35 d0 38 00 00 	lea    0x38d0(%rip),%rsi        # 120ff <g_589+0x20a7>
    e82f:	48 89 c7             	mov    %rax,%rdi
    e832:	e8 bc 7e ff ff       	callq  66f3 <transparent_crc>
    e837:	48 8b 05 62 6c 00 00 	mov    0x6c62(%rip),%rax        # 154a0 <g_270>
    e83e:	48 c1 e8 1c          	shr    $0x1c,%rax
    e842:	25 ff ff 3f 00       	and    $0x3fffff,%eax
    e847:	89 c1                	mov    %eax,%ecx
    e849:	8b 45 fc             	mov    -0x4(%rbp),%eax
    e84c:	89 c2                	mov    %eax,%edx
    e84e:	48 8d 35 b3 38 00 00 	lea    0x38b3(%rip),%rsi        # 12108 <g_589+0x20b0>
    e855:	48 89 cf             	mov    %rcx,%rdi
    e858:	e8 96 7e ff ff       	callq  66f3 <transparent_crc>
    e85d:	48 8b 05 3c 6c 00 00 	mov    0x6c3c(%rip),%rax        # 154a0 <g_270>
    e864:	48 c1 e8 32          	shr    $0x32,%rax
    e868:	48 89 c2             	mov    %rax,%rdx
    e86b:	48 8b 05 36 6c 00 00 	mov    0x6c36(%rip),%rax        # 154a8 <g_270+0x8>
    e872:	83 e0 01             	and    $0x1,%eax
    e875:	48 c1 e0 0e          	shl    $0xe,%rax
    e879:	48 09 d0             	or     %rdx,%rax
    e87c:	48 c1 e0 31          	shl    $0x31,%rax
    e880:	48 c1 f8 31          	sar    $0x31,%rax
    e884:	48 0f bf c0          	movswq %ax,%rax
    e888:	8b 55 fc             	mov    -0x4(%rbp),%edx
    e88b:	48 8d 35 7f 38 00 00 	lea    0x387f(%rip),%rsi        # 12111 <g_589+0x20b9>
    e892:	48 89 c7             	mov    %rax,%rdi
    e895:	e8 59 7e ff ff       	callq  66f3 <transparent_crc>
    e89a:	48 8b 05 07 6c 00 00 	mov    0x6c07(%rip),%rax        # 154a8 <g_270+0x8>
    e8a1:	c1 e0 03             	shl    $0x3,%eax
    e8a4:	66 c1 f8 04          	sar    $0x4,%ax
    e8a8:	48 0f bf c0          	movswq %ax,%rax
    e8ac:	8b 55 fc             	mov    -0x4(%rbp),%edx
    e8af:	48 8d 35 64 38 00 00 	lea    0x3864(%rip),%rsi        # 1211a <g_589+0x20c2>
    e8b6:	48 89 c7             	mov    %rax,%rdi
    e8b9:	e8 35 7e ff ff       	callq  66f3 <transparent_crc>
    e8be:	48 8b 05 e3 6b 00 00 	mov    0x6be3(%rip),%rax        # 154a8 <g_270+0x8>
    e8c5:	48 c1 e8 0d          	shr    $0xd,%rax
    e8c9:	25 ff ff ff 07       	and    $0x7ffffff,%eax
    e8ce:	89 c1                	mov    %eax,%ecx
    e8d0:	8b 45 fc             	mov    -0x4(%rbp),%eax
    e8d3:	89 c2                	mov    %eax,%edx
    e8d5:	48 8d 35 47 38 00 00 	lea    0x3847(%rip),%rsi        # 12123 <g_589+0x20cb>
    e8dc:	48 89 cf             	mov    %rcx,%rdi
    e8df:	e8 0f 7e ff ff       	callq  66f3 <transparent_crc>
    e8e4:	8b 05 c3 6b 00 00    	mov    0x6bc3(%rip),%eax        # 154ad <g_270+0xd>
    e8ea:	89 c1                	mov    %eax,%ecx
    e8ec:	8b 45 fc             	mov    -0x4(%rbp),%eax
    e8ef:	89 c2                	mov    %eax,%edx
    e8f1:	48 8d 35 34 38 00 00 	lea    0x3834(%rip),%rsi        # 1212c <g_589+0x20d4>
    e8f8:	48 89 cf             	mov    %rcx,%rdi
    e8fb:	e8 f3 7d ff ff       	callq  66f3 <transparent_crc>
    e900:	0f b6 05 b9 6b 00 00 	movzbl 0x6bb9(%rip),%eax        # 154c0 <g_326>
    e907:	83 e0 01             	and    $0x1,%eax
    e90a:	0f b6 c0             	movzbl %al,%eax
    e90d:	8b 55 fc             	mov    -0x4(%rbp),%edx
    e910:	48 8d 35 1e 38 00 00 	lea    0x381e(%rip),%rsi        # 12135 <g_589+0x20dd>
    e917:	48 89 c7             	mov    %rax,%rdi
    e91a:	e8 d4 7d ff ff       	callq  66f3 <transparent_crc>
    e91f:	8b 05 9b 6b 00 00    	mov    0x6b9b(%rip),%eax        # 154c0 <g_326>
    e925:	c1 e0 0b             	shl    $0xb,%eax
    e928:	c1 f8 0c             	sar    $0xc,%eax
    e92b:	48 98                	cltq   
    e92d:	8b 55 fc             	mov    -0x4(%rbp),%edx
    e930:	48 8d 35 07 38 00 00 	lea    0x3807(%rip),%rsi        # 1213e <g_589+0x20e6>
    e937:	48 89 c7             	mov    %rax,%rdi
    e93a:	e8 b4 7d ff ff       	callq  66f3 <transparent_crc>
    e93f:	48 8b 05 7a 6b 00 00 	mov    0x6b7a(%rip),%rax        # 154c0 <g_326>
    e946:	c1 e0 04             	shl    $0x4,%eax
    e949:	c1 f8 19             	sar    $0x19,%eax
    e94c:	48 0f be c0          	movsbq %al,%rax
    e950:	8b 55 fc             	mov    -0x4(%rbp),%edx
    e953:	48 8d 35 ed 37 00 00 	lea    0x37ed(%rip),%rsi        # 12147 <g_589+0x20ef>
    e95a:	48 89 c7             	mov    %rax,%rdi
    e95d:	e8 91 7d ff ff       	callq  66f3 <transparent_crc>
    e962:	48 8b 05 57 6b 00 00 	mov    0x6b57(%rip),%rax        # 154c0 <g_326>
    e969:	48 c1 e8 1c          	shr    $0x1c,%rax
    e96d:	25 ff ff 3f 00       	and    $0x3fffff,%eax
    e972:	89 c1                	mov    %eax,%ecx
    e974:	8b 45 fc             	mov    -0x4(%rbp),%eax
    e977:	89 c2                	mov    %eax,%edx
    e979:	48 8d 35 d0 37 00 00 	lea    0x37d0(%rip),%rsi        # 12150 <g_589+0x20f8>
    e980:	48 89 cf             	mov    %rcx,%rdi
    e983:	e8 6b 7d ff ff       	callq  66f3 <transparent_crc>
    e988:	48 8b 05 31 6b 00 00 	mov    0x6b31(%rip),%rax        # 154c0 <g_326>
    e98f:	48 c1 e8 32          	shr    $0x32,%rax
    e993:	48 89 c2             	mov    %rax,%rdx
    e996:	48 8b 05 2b 6b 00 00 	mov    0x6b2b(%rip),%rax        # 154c8 <g_326+0x8>
    e99d:	83 e0 01             	and    $0x1,%eax
    e9a0:	48 c1 e0 0e          	shl    $0xe,%rax
    e9a4:	48 09 d0             	or     %rdx,%rax
    e9a7:	48 c1 e0 31          	shl    $0x31,%rax
    e9ab:	48 c1 f8 31          	sar    $0x31,%rax
    e9af:	48 0f bf c0          	movswq %ax,%rax
    e9b3:	8b 55 fc             	mov    -0x4(%rbp),%edx
    e9b6:	48 8d 35 9c 37 00 00 	lea    0x379c(%rip),%rsi        # 12159 <g_589+0x2101>
    e9bd:	48 89 c7             	mov    %rax,%rdi
    e9c0:	e8 2e 7d ff ff       	callq  66f3 <transparent_crc>
    e9c5:	0f b7 05 fc 6a 00 00 	movzwl 0x6afc(%rip),%eax        # 154c8 <g_326+0x8>
    e9cc:	c1 e0 03             	shl    $0x3,%eax
    e9cf:	66 c1 f8 04          	sar    $0x4,%ax
    e9d3:	48 0f bf c0          	movswq %ax,%rax
    e9d7:	8b 55 fc             	mov    -0x4(%rbp),%edx
    e9da:	48 8d 35 81 37 00 00 	lea    0x3781(%rip),%rsi        # 12162 <g_589+0x210a>
    e9e1:	48 89 c7             	mov    %rax,%rdi
    e9e4:	e8 0a 7d ff ff       	callq  66f3 <transparent_crc>
    e9e9:	48 8b 05 d8 6a 00 00 	mov    0x6ad8(%rip),%rax        # 154c8 <g_326+0x8>
    e9f0:	48 c1 e8 0d          	shr    $0xd,%rax
    e9f4:	25 ff ff ff 07       	and    $0x7ffffff,%eax
    e9f9:	89 c1                	mov    %eax,%ecx
    e9fb:	8b 45 fc             	mov    -0x4(%rbp),%eax
    e9fe:	89 c2                	mov    %eax,%edx
    ea00:	48 8d 35 64 37 00 00 	lea    0x3764(%rip),%rsi        # 1216b <g_589+0x2113>
    ea07:	48 89 cf             	mov    %rcx,%rdi
    ea0a:	e8 e4 7c ff ff       	callq  66f3 <transparent_crc>
    ea0f:	8b 05 b8 6a 00 00    	mov    0x6ab8(%rip),%eax        # 154cd <g_326+0xd>
    ea15:	89 c1                	mov    %eax,%ecx
    ea17:	8b 45 fc             	mov    -0x4(%rbp),%eax
    ea1a:	89 c2                	mov    %eax,%edx
    ea1c:	48 8d 35 51 37 00 00 	lea    0x3751(%rip),%rsi        # 12174 <g_589+0x211c>
    ea23:	48 89 cf             	mov    %rcx,%rdi
    ea26:	e8 c8 7c ff ff       	callq  66f3 <transparent_crc>
    ea2b:	8b 05 a3 6a 00 00    	mov    0x6aa3(%rip),%eax        # 154d4 <g_344>
    ea31:	89 c1                	mov    %eax,%ecx
    ea33:	8b 45 fc             	mov    -0x4(%rbp),%eax
    ea36:	89 c2                	mov    %eax,%edx
    ea38:	48 8d 35 3e 37 00 00 	lea    0x373e(%rip),%rsi        # 1217d <g_589+0x2125>
    ea3f:	48 89 cf             	mov    %rcx,%rdi
    ea42:	e8 ac 7c ff ff       	callq  66f3 <transparent_crc>
    ea47:	0f b7 05 8a 6a 00 00 	movzwl 0x6a8a(%rip),%eax        # 154d8 <g_357>
    ea4e:	0f b7 c0             	movzwl %ax,%eax
    ea51:	8b 55 fc             	mov    -0x4(%rbp),%edx
    ea54:	48 8d 35 28 37 00 00 	lea    0x3728(%rip),%rsi        # 12183 <g_589+0x212b>
    ea5b:	48 89 c7             	mov    %rax,%rdi
    ea5e:	e8 90 7c ff ff       	callq  66f3 <transparent_crc>
    ea63:	8b 05 73 6a 00 00    	mov    0x6a73(%rip),%eax        # 154dc <g_424>
    ea69:	48 98                	cltq   
    ea6b:	8b 55 fc             	mov    -0x4(%rbp),%edx
    ea6e:	48 8d 35 14 37 00 00 	lea    0x3714(%rip),%rsi        # 12189 <g_589+0x2131>
    ea75:	48 89 c7             	mov    %rax,%rdi
    ea78:	e8 76 7c ff ff       	callq  66f3 <transparent_crc>
    ea7d:	0f b6 05 5c 6a 00 00 	movzbl 0x6a5c(%rip),%eax        # 154e0 <g_439>
    ea84:	83 e0 01             	and    $0x1,%eax
    ea87:	0f b6 c0             	movzbl %al,%eax
    ea8a:	8b 55 fc             	mov    -0x4(%rbp),%edx
    ea8d:	48 8d 35 fb 36 00 00 	lea    0x36fb(%rip),%rsi        # 1218f <g_589+0x2137>
    ea94:	48 89 c7             	mov    %rax,%rdi
    ea97:	e8 57 7c ff ff       	callq  66f3 <transparent_crc>
    ea9c:	8b 05 3e 6a 00 00    	mov    0x6a3e(%rip),%eax        # 154e0 <g_439>
    eaa2:	c1 e0 0b             	shl    $0xb,%eax
    eaa5:	c1 f8 0c             	sar    $0xc,%eax
    eaa8:	48 98                	cltq   
    eaaa:	8b 55 fc             	mov    -0x4(%rbp),%edx
    eaad:	48 8d 35 e4 36 00 00 	lea    0x36e4(%rip),%rsi        # 12198 <g_589+0x2140>
    eab4:	48 89 c7             	mov    %rax,%rdi
    eab7:	e8 37 7c ff ff       	callq  66f3 <transparent_crc>
    eabc:	48 8b 05 1d 6a 00 00 	mov    0x6a1d(%rip),%rax        # 154e0 <g_439>
    eac3:	c1 e0 04             	shl    $0x4,%eax
    eac6:	c1 f8 19             	sar    $0x19,%eax
    eac9:	48 0f be c0          	movsbq %al,%rax
    eacd:	8b 55 fc             	mov    -0x4(%rbp),%edx
    ead0:	48 8d 35 ca 36 00 00 	lea    0x36ca(%rip),%rsi        # 121a1 <g_589+0x2149>
    ead7:	48 89 c7             	mov    %rax,%rdi
    eada:	e8 14 7c ff ff       	callq  66f3 <transparent_crc>
    eadf:	48 8b 05 fa 69 00 00 	mov    0x69fa(%rip),%rax        # 154e0 <g_439>
    eae6:	48 c1 e8 1c          	shr    $0x1c,%rax
    eaea:	25 ff ff 3f 00       	and    $0x3fffff,%eax
    eaef:	89 c1                	mov    %eax,%ecx
    eaf1:	8b 45 fc             	mov    -0x4(%rbp),%eax
    eaf4:	89 c2                	mov    %eax,%edx
    eaf6:	48 8d 35 ad 36 00 00 	lea    0x36ad(%rip),%rsi        # 121aa <g_589+0x2152>
    eafd:	48 89 cf             	mov    %rcx,%rdi
    eb00:	e8 ee 7b ff ff       	callq  66f3 <transparent_crc>
    eb05:	48 8b 05 d4 69 00 00 	mov    0x69d4(%rip),%rax        # 154e0 <g_439>
    eb0c:	48 c1 e8 32          	shr    $0x32,%rax
    eb10:	48 89 c2             	mov    %rax,%rdx
    eb13:	48 8b 05 ce 69 00 00 	mov    0x69ce(%rip),%rax        # 154e8 <g_439+0x8>
    eb1a:	83 e0 01             	and    $0x1,%eax
    eb1d:	48 c1 e0 0e          	shl    $0xe,%rax
    eb21:	48 09 d0             	or     %rdx,%rax
    eb24:	48 c1 e0 31          	shl    $0x31,%rax
    eb28:	48 c1 f8 31          	sar    $0x31,%rax
    eb2c:	48 0f bf c0          	movswq %ax,%rax
    eb30:	8b 55 fc             	mov    -0x4(%rbp),%edx
    eb33:	48 8d 35 79 36 00 00 	lea    0x3679(%rip),%rsi        # 121b3 <g_589+0x215b>
    eb3a:	48 89 c7             	mov    %rax,%rdi
    eb3d:	e8 b1 7b ff ff       	callq  66f3 <transparent_crc>
    eb42:	0f b7 05 9f 69 00 00 	movzwl 0x699f(%rip),%eax        # 154e8 <g_439+0x8>
    eb49:	c1 e0 03             	shl    $0x3,%eax
    eb4c:	66 c1 f8 04          	sar    $0x4,%ax
    eb50:	48 0f bf c0          	movswq %ax,%rax
    eb54:	8b 55 fc             	mov    -0x4(%rbp),%edx
    eb57:	48 8d 35 5e 36 00 00 	lea    0x365e(%rip),%rsi        # 121bc <g_589+0x2164>
    eb5e:	48 89 c7             	mov    %rax,%rdi
    eb61:	e8 8d 7b ff ff       	callq  66f3 <transparent_crc>
    eb66:	48 8b 05 7b 69 00 00 	mov    0x697b(%rip),%rax        # 154e8 <g_439+0x8>
    eb6d:	48 c1 e8 0d          	shr    $0xd,%rax
    eb71:	25 ff ff ff 07       	and    $0x7ffffff,%eax
    eb76:	89 c1                	mov    %eax,%ecx
    eb78:	8b 45 fc             	mov    -0x4(%rbp),%eax
    eb7b:	89 c2                	mov    %eax,%edx
    eb7d:	48 8d 35 41 36 00 00 	lea    0x3641(%rip),%rsi        # 121c5 <g_589+0x216d>
    eb84:	48 89 cf             	mov    %rcx,%rdi
    eb87:	e8 67 7b ff ff       	callq  66f3 <transparent_crc>
    eb8c:	8b 05 5b 69 00 00    	mov    0x695b(%rip),%eax        # 154ed <g_439+0xd>
    eb92:	89 c1                	mov    %eax,%ecx
    eb94:	8b 45 fc             	mov    -0x4(%rbp),%eax
    eb97:	89 c2                	mov    %eax,%edx
    eb99:	48 8d 35 2e 36 00 00 	lea    0x362e(%rip),%rsi        # 121ce <g_589+0x2176>
    eba0:	48 89 cf             	mov    %rcx,%rdi
    eba3:	e8 4b 7b ff ff       	callq  66f3 <transparent_crc>
    eba8:	8b 05 46 69 00 00    	mov    0x6946(%rip),%eax        # 154f4 <g_440>
    ebae:	48 98                	cltq   
    ebb0:	8b 55 fc             	mov    -0x4(%rbp),%edx
    ebb3:	48 8d 35 1d 36 00 00 	lea    0x361d(%rip),%rsi        # 121d7 <g_589+0x217f>
    ebba:	48 89 c7             	mov    %rax,%rdi
    ebbd:	e8 31 7b ff ff       	callq  66f3 <transparent_crc>
    ebc2:	8b 05 30 69 00 00    	mov    0x6930(%rip),%eax        # 154f8 <g_444>
    ebc8:	89 c1                	mov    %eax,%ecx
    ebca:	8b 45 fc             	mov    -0x4(%rbp),%eax
    ebcd:	89 c2                	mov    %eax,%edx
    ebcf:	48 8d 35 07 36 00 00 	lea    0x3607(%rip),%rsi        # 121dd <g_589+0x2185>
    ebd6:	48 89 cf             	mov    %rcx,%rdi
    ebd9:	e8 15 7b ff ff       	callq  66f3 <transparent_crc>
    ebde:	8b 05 18 69 00 00    	mov    0x6918(%rip),%eax        # 154fc <g_469>
    ebe4:	89 c1                	mov    %eax,%ecx
    ebe6:	8b 45 fc             	mov    -0x4(%rbp),%eax
    ebe9:	89 c2                	mov    %eax,%edx
    ebeb:	48 8d 35 f1 35 00 00 	lea    0x35f1(%rip),%rsi        # 121e3 <g_589+0x218b>
    ebf2:	48 89 cf             	mov    %rcx,%rdi
    ebf5:	e8 f9 7a ff ff       	callq  66f3 <transparent_crc>
    ebfa:	8b 05 00 69 00 00    	mov    0x6900(%rip),%eax        # 15500 <g_543>
    ec00:	48 98                	cltq   
    ec02:	8b 55 fc             	mov    -0x4(%rbp),%edx
    ec05:	48 8d 35 dd 35 00 00 	lea    0x35dd(%rip),%rsi        # 121e9 <g_589+0x2191>
    ec0c:	48 89 c7             	mov    %rax,%rdi
    ec0f:	e8 df 7a ff ff       	callq  66f3 <transparent_crc>
    ec14:	b9 01 00 00 00       	mov    $0x1,%ecx
    ec19:	8b 45 fc             	mov    -0x4(%rbp),%eax
    ec1c:	89 c2                	mov    %eax,%edx
    ec1e:	48 8d 35 ca 35 00 00 	lea    0x35ca(%rip),%rsi        # 121ef <g_589+0x2197>
    ec25:	48 89 cf             	mov    %rcx,%rdi
    ec28:	e8 c6 7a ff ff       	callq  66f3 <transparent_crc>
    ec2d:	0f b6 05 d0 68 00 00 	movzbl 0x68d0(%rip),%eax        # 15504 <g_593>
    ec34:	0f b6 c0             	movzbl %al,%eax
    ec37:	8b 55 fc             	mov    -0x4(%rbp),%edx
    ec3a:	48 8d 35 b4 35 00 00 	lea    0x35b4(%rip),%rsi        # 121f5 <g_589+0x219d>
    ec41:	48 89 c7             	mov    %rax,%rdi
    ec44:	e8 aa 7a ff ff       	callq  66f3 <transparent_crc>
    ec49:	0f b6 05 c0 68 00 00 	movzbl 0x68c0(%rip),%eax        # 15510 <g_612>
    ec50:	83 e0 01             	and    $0x1,%eax
    ec53:	0f b6 c0             	movzbl %al,%eax
    ec56:	8b 55 fc             	mov    -0x4(%rbp),%edx
    ec59:	48 8d 35 9b 35 00 00 	lea    0x359b(%rip),%rsi        # 121fb <g_589+0x21a3>
    ec60:	48 89 c7             	mov    %rax,%rdi
    ec63:	e8 8b 7a ff ff       	callq  66f3 <transparent_crc>
    ec68:	8b 05 a2 68 00 00    	mov    0x68a2(%rip),%eax        # 15510 <g_612>
    ec6e:	c1 e0 0b             	shl    $0xb,%eax
    ec71:	c1 f8 0c             	sar    $0xc,%eax
    ec74:	48 98                	cltq   
    ec76:	8b 55 fc             	mov    -0x4(%rbp),%edx
    ec79:	48 8d 35 84 35 00 00 	lea    0x3584(%rip),%rsi        # 12204 <g_589+0x21ac>
    ec80:	48 89 c7             	mov    %rax,%rdi
    ec83:	e8 6b 7a ff ff       	callq  66f3 <transparent_crc>
    ec88:	48 8b 05 81 68 00 00 	mov    0x6881(%rip),%rax        # 15510 <g_612>
    ec8f:	c1 e0 04             	shl    $0x4,%eax
    ec92:	c1 f8 19             	sar    $0x19,%eax
    ec95:	48 0f be c0          	movsbq %al,%rax
    ec99:	8b 55 fc             	mov    -0x4(%rbp),%edx
    ec9c:	48 8d 35 6a 35 00 00 	lea    0x356a(%rip),%rsi        # 1220d <g_589+0x21b5>
    eca3:	48 89 c7             	mov    %rax,%rdi
    eca6:	e8 48 7a ff ff       	callq  66f3 <transparent_crc>
    ecab:	48 8b 05 5e 68 00 00 	mov    0x685e(%rip),%rax        # 15510 <g_612>
    ecb2:	48 c1 e8 1c          	shr    $0x1c,%rax
    ecb6:	25 ff ff 3f 00       	and    $0x3fffff,%eax
    ecbb:	89 c1                	mov    %eax,%ecx
    ecbd:	8b 45 fc             	mov    -0x4(%rbp),%eax
    ecc0:	89 c2                	mov    %eax,%edx
    ecc2:	48 8d 35 4d 35 00 00 	lea    0x354d(%rip),%rsi        # 12216 <g_589+0x21be>
    ecc9:	48 89 cf             	mov    %rcx,%rdi
    eccc:	e8 22 7a ff ff       	callq  66f3 <transparent_crc>
    ecd1:	48 8b 05 38 68 00 00 	mov    0x6838(%rip),%rax        # 15510 <g_612>
    ecd8:	48 c1 e8 32          	shr    $0x32,%rax
    ecdc:	48 89 c2             	mov    %rax,%rdx
    ecdf:	48 8b 05 32 68 00 00 	mov    0x6832(%rip),%rax        # 15518 <g_612+0x8>
    ece6:	83 e0 01             	and    $0x1,%eax
    ece9:	48 c1 e0 0e          	shl    $0xe,%rax
    eced:	48 09 d0             	or     %rdx,%rax
    ecf0:	48 c1 e0 31          	shl    $0x31,%rax
    ecf4:	48 c1 f8 31          	sar    $0x31,%rax
    ecf8:	48 0f bf c0          	movswq %ax,%rax
    ecfc:	8b 55 fc             	mov    -0x4(%rbp),%edx
    ecff:	48 8d 35 19 35 00 00 	lea    0x3519(%rip),%rsi        # 1221f <g_589+0x21c7>
    ed06:	48 89 c7             	mov    %rax,%rdi
    ed09:	e8 e5 79 ff ff       	callq  66f3 <transparent_crc>
    ed0e:	0f b7 05 03 68 00 00 	movzwl 0x6803(%rip),%eax        # 15518 <g_612+0x8>
    ed15:	c1 e0 03             	shl    $0x3,%eax
    ed18:	66 c1 f8 04          	sar    $0x4,%ax
    ed1c:	48 0f bf c0          	movswq %ax,%rax
    ed20:	8b 55 fc             	mov    -0x4(%rbp),%edx
    ed23:	48 8d 35 fe 34 00 00 	lea    0x34fe(%rip),%rsi        # 12228 <g_589+0x21d0>
    ed2a:	48 89 c7             	mov    %rax,%rdi
    ed2d:	e8 c1 79 ff ff       	callq  66f3 <transparent_crc>
    ed32:	48 8b 05 df 67 00 00 	mov    0x67df(%rip),%rax        # 15518 <g_612+0x8>
    ed39:	48 c1 e8 0d          	shr    $0xd,%rax
    ed3d:	25 ff ff ff 07       	and    $0x7ffffff,%eax
    ed42:	89 c1                	mov    %eax,%ecx
    ed44:	8b 45 fc             	mov    -0x4(%rbp),%eax
    ed47:	89 c2                	mov    %eax,%edx
    ed49:	48 8d 35 e1 34 00 00 	lea    0x34e1(%rip),%rsi        # 12231 <g_589+0x21d9>
    ed50:	48 89 cf             	mov    %rcx,%rdi
    ed53:	e8 9b 79 ff ff       	callq  66f3 <transparent_crc>
    ed58:	8b 05 bf 67 00 00    	mov    0x67bf(%rip),%eax        # 1551d <g_612+0xd>
    ed5e:	89 c1                	mov    %eax,%ecx
    ed60:	8b 45 fc             	mov    -0x4(%rbp),%eax
    ed63:	89 c2                	mov    %eax,%edx
    ed65:	48 8d 35 ce 34 00 00 	lea    0x34ce(%rip),%rsi        # 1223a <g_589+0x21e2>
    ed6c:	48 89 cf             	mov    %rcx,%rdi
    ed6f:	e8 7f 79 ff ff       	callq  66f3 <transparent_crc>
    ed74:	c7 45 f0 00 00 00 00 	movl   $0x0,-0x10(%rbp)
    ed7b:	e9 ad 00 00 00       	jmpq   ee2d <main+0xd33>
    ed80:	c7 45 f4 00 00 00 00 	movl   $0x0,-0xc(%rbp)
    ed87:	e9 93 00 00 00       	jmpq   ee1f <main+0xd25>
    ed8c:	c7 45 f8 00 00 00 00 	movl   $0x0,-0x8(%rbp)
    ed93:	eb 7c                	jmp    ee11 <main+0xd17>
    ed95:	8b 45 f8             	mov    -0x8(%rbp),%eax
    ed98:	48 63 f0             	movslq %eax,%rsi
    ed9b:	8b 45 f0             	mov    -0x10(%rbp),%eax
    ed9e:	48 63 d0             	movslq %eax,%rdx
    eda1:	8b 45 f4             	mov    -0xc(%rbp),%eax
    eda4:	48 63 c8             	movslq %eax,%rcx
    eda7:	48 89 d0             	mov    %rdx,%rax
    edaa:	48 c1 e0 02          	shl    $0x2,%rax
    edae:	48 01 d0             	add    %rdx,%rax
    edb1:	48 c1 e0 03          	shl    $0x3,%rax
    edb5:	48 89 ca             	mov    %rcx,%rdx
    edb8:	48 c1 e2 02          	shl    $0x2,%rdx
    edbc:	48 01 ca             	add    %rcx,%rdx
    edbf:	48 01 d0             	add    %rdx,%rax
    edc2:	48 01 f0             	add    %rsi,%rax
    edc5:	48 8d 14 85 00 00 00 	lea    0x0(,%rax,4),%rdx
    edcc:	00 
    edcd:	48 8d 05 6c 67 00 00 	lea    0x676c(%rip),%rax        # 15540 <g_638>
    edd4:	8b 04 02             	mov    (%rdx,%rax,1),%eax
    edd7:	48 98                	cltq   
    edd9:	8b 55 fc             	mov    -0x4(%rbp),%edx
    eddc:	48 8d 35 60 34 00 00 	lea    0x3460(%rip),%rsi        # 12243 <g_589+0x21eb>
    ede3:	48 89 c7             	mov    %rax,%rdi
    ede6:	e8 08 79 ff ff       	callq  66f3 <transparent_crc>
    edeb:	83 7d fc 00          	cmpl   $0x0,-0x4(%rbp)
    edef:	74 1c                	je     ee0d <main+0xd13>
    edf1:	8b 4d f8             	mov    -0x8(%rbp),%ecx
    edf4:	8b 55 f4             	mov    -0xc(%rbp),%edx
    edf7:	8b 45 f0             	mov    -0x10(%rbp),%eax
    edfa:	89 c6                	mov    %eax,%esi
    edfc:	48 8d 3d 8c 32 00 00 	lea    0x328c(%rip),%rdi        # 1208f <g_589+0x2037>
    ee03:	b8 00 00 00 00       	mov    $0x0,%eax
    ee08:	e8 73 62 ff ff       	callq  5080 <printf@plt>
    ee0d:	83 45 f8 01          	addl   $0x1,-0x8(%rbp)
    ee11:	83 7d f8 04          	cmpl   $0x4,-0x8(%rbp)
    ee15:	0f 8e 7a ff ff ff    	jle    ed95 <main+0xc9b>
    ee1b:	83 45 f4 01          	addl   $0x1,-0xc(%rbp)
    ee1f:	83 7d f4 07          	cmpl   $0x7,-0xc(%rbp)
    ee23:	0f 8e 63 ff ff ff    	jle    ed8c <main+0xc92>
    ee29:	83 45 f0 01          	addl   $0x1,-0x10(%rbp)
    ee2d:	83 7d f0 05          	cmpl   $0x5,-0x10(%rbp)
    ee31:	0f 8e 49 ff ff ff    	jle    ed80 <main+0xc86>
    ee37:	0f b6 05 c2 6a 00 00 	movzbl 0x6ac2(%rip),%eax        # 15900 <g_651>
    ee3e:	83 e0 01             	and    $0x1,%eax
    ee41:	0f b6 c0             	movzbl %al,%eax
    ee44:	8b 55 fc             	mov    -0x4(%rbp),%edx
    ee47:	48 8d 35 04 34 00 00 	lea    0x3404(%rip),%rsi        # 12252 <g_589+0x21fa>
    ee4e:	48 89 c7             	mov    %rax,%rdi
    ee51:	e8 9d 78 ff ff       	callq  66f3 <transparent_crc>
    ee56:	8b 05 a4 6a 00 00    	mov    0x6aa4(%rip),%eax        # 15900 <g_651>
    ee5c:	c1 e0 0b             	shl    $0xb,%eax
    ee5f:	c1 f8 0c             	sar    $0xc,%eax
    ee62:	48 98                	cltq   
    ee64:	8b 55 fc             	mov    -0x4(%rbp),%edx
    ee67:	48 8d 35 ed 33 00 00 	lea    0x33ed(%rip),%rsi        # 1225b <g_589+0x2203>
    ee6e:	48 89 c7             	mov    %rax,%rdi
    ee71:	e8 7d 78 ff ff       	callq  66f3 <transparent_crc>
    ee76:	48 8b 05 83 6a 00 00 	mov    0x6a83(%rip),%rax        # 15900 <g_651>
    ee7d:	c1 e0 04             	shl    $0x4,%eax
    ee80:	c1 f8 19             	sar    $0x19,%eax
    ee83:	48 0f be c0          	movsbq %al,%rax
    ee87:	8b 55 fc             	mov    -0x4(%rbp),%edx
    ee8a:	48 8d 35 d3 33 00 00 	lea    0x33d3(%rip),%rsi        # 12264 <g_589+0x220c>
    ee91:	48 89 c7             	mov    %rax,%rdi
    ee94:	e8 5a 78 ff ff       	callq  66f3 <transparent_crc>
    ee99:	48 8b 05 60 6a 00 00 	mov    0x6a60(%rip),%rax        # 15900 <g_651>
    eea0:	48 c1 e8 1c          	shr    $0x1c,%rax
    eea4:	25 ff ff 3f 00       	and    $0x3fffff,%eax
    eea9:	89 c1                	mov    %eax,%ecx
    eeab:	8b 45 fc             	mov    -0x4(%rbp),%eax
    eeae:	89 c2                	mov    %eax,%edx
    eeb0:	48 8d 35 b6 33 00 00 	lea    0x33b6(%rip),%rsi        # 1226d <g_589+0x2215>
    eeb7:	48 89 cf             	mov    %rcx,%rdi
    eeba:	e8 34 78 ff ff       	callq  66f3 <transparent_crc>
    eebf:	48 8b 05 3a 6a 00 00 	mov    0x6a3a(%rip),%rax        # 15900 <g_651>
    eec6:	48 c1 e8 32          	shr    $0x32,%rax
    eeca:	48 89 c2             	mov    %rax,%rdx
    eecd:	48 8b 05 34 6a 00 00 	mov    0x6a34(%rip),%rax        # 15908 <g_651+0x8>
    eed4:	83 e0 01             	and    $0x1,%eax
    eed7:	48 c1 e0 0e          	shl    $0xe,%rax
    eedb:	48 09 d0             	or     %rdx,%rax
    eede:	48 c1 e0 31          	shl    $0x31,%rax
    eee2:	48 c1 f8 31          	sar    $0x31,%rax
    eee6:	48 0f bf c0          	movswq %ax,%rax
    eeea:	8b 55 fc             	mov    -0x4(%rbp),%edx
    eeed:	48 8d 35 82 33 00 00 	lea    0x3382(%rip),%rsi        # 12276 <g_589+0x221e>
    eef4:	48 89 c7             	mov    %rax,%rdi
    eef7:	e8 f7 77 ff ff       	callq  66f3 <transparent_crc>
    eefc:	0f b7 05 05 6a 00 00 	movzwl 0x6a05(%rip),%eax        # 15908 <g_651+0x8>
    ef03:	c1 e0 03             	shl    $0x3,%eax
    ef06:	66 c1 f8 04          	sar    $0x4,%ax
    ef0a:	48 0f bf c0          	movswq %ax,%rax
    ef0e:	8b 55 fc             	mov    -0x4(%rbp),%edx
    ef11:	48 8d 35 67 33 00 00 	lea    0x3367(%rip),%rsi        # 1227f <g_589+0x2227>
    ef18:	48 89 c7             	mov    %rax,%rdi
    ef1b:	e8 d3 77 ff ff       	callq  66f3 <transparent_crc>
    ef20:	48 8b 05 e1 69 00 00 	mov    0x69e1(%rip),%rax        # 15908 <g_651+0x8>
    ef27:	48 c1 e8 0d          	shr    $0xd,%rax
    ef2b:	25 ff ff ff 07       	and    $0x7ffffff,%eax
    ef30:	89 c1                	mov    %eax,%ecx
    ef32:	8b 45 fc             	mov    -0x4(%rbp),%eax
    ef35:	89 c2                	mov    %eax,%edx
    ef37:	48 8d 35 4a 33 00 00 	lea    0x334a(%rip),%rsi        # 12288 <g_589+0x2230>
    ef3e:	48 89 cf             	mov    %rcx,%rdi
    ef41:	e8 ad 77 ff ff       	callq  66f3 <transparent_crc>
    ef46:	8b 05 c1 69 00 00    	mov    0x69c1(%rip),%eax        # 1590d <g_651+0xd>
    ef4c:	89 c1                	mov    %eax,%ecx
    ef4e:	8b 45 fc             	mov    -0x4(%rbp),%eax
    ef51:	89 c2                	mov    %eax,%edx
    ef53:	48 8d 35 37 33 00 00 	lea    0x3337(%rip),%rsi        # 12291 <g_589+0x2239>
    ef5a:	48 89 cf             	mov    %rcx,%rdi
    ef5d:	e8 91 77 ff ff       	callq  66f3 <transparent_crc>
    ef62:	8b 05 ac 69 00 00    	mov    0x69ac(%rip),%eax        # 15914 <g_677>
    ef68:	89 c1                	mov    %eax,%ecx
    ef6a:	8b 45 fc             	mov    -0x4(%rbp),%eax
    ef6d:	89 c2                	mov    %eax,%edx
    ef6f:	48 8d 35 24 33 00 00 	lea    0x3324(%rip),%rsi        # 1229a <g_589+0x2242>
    ef76:	48 89 cf             	mov    %rcx,%rdi
    ef79:	e8 75 77 ff ff       	callq  66f3 <transparent_crc>
    ef7e:	48 8b 05 9b 69 00 00 	mov    0x699b(%rip),%rax        # 15920 <g_682>
    ef85:	83 e0 01             	and    $0x1,%eax
    ef88:	0f b6 c0             	movzbl %al,%eax
    ef8b:	8b 55 fc             	mov    -0x4(%rbp),%edx
    ef8e:	48 8d 35 0b 33 00 00 	lea    0x330b(%rip),%rsi        # 122a0 <g_589+0x2248>
    ef95:	48 89 c7             	mov    %rax,%rdi
    ef98:	e8 56 77 ff ff       	callq  66f3 <transparent_crc>
    ef9d:	48 8b 05 7c 69 00 00 	mov    0x697c(%rip),%rax        # 15920 <g_682>
    efa4:	c1 e0 0b             	shl    $0xb,%eax
    efa7:	c1 f8 0c             	sar    $0xc,%eax
    efaa:	48 98                	cltq   
    efac:	8b 55 fc             	mov    -0x4(%rbp),%edx
    efaf:	48 8d 35 f3 32 00 00 	lea    0x32f3(%rip),%rsi        # 122a9 <g_589+0x2251>
    efb6:	48 89 c7             	mov    %rax,%rdi
    efb9:	e8 35 77 ff ff       	callq  66f3 <transparent_crc>
    efbe:	48 8b 05 5b 69 00 00 	mov    0x695b(%rip),%rax        # 15920 <g_682>
    efc5:	c1 e0 04             	shl    $0x4,%eax
    efc8:	c1 f8 19             	sar    $0x19,%eax
    efcb:	48 0f be c0          	movsbq %al,%rax
    efcf:	8b 55 fc             	mov    -0x4(%rbp),%edx
    efd2:	48 8d 35 d9 32 00 00 	lea    0x32d9(%rip),%rsi        # 122b2 <g_589+0x225a>
    efd9:	48 89 c7             	mov    %rax,%rdi
    efdc:	e8 12 77 ff ff       	callq  66f3 <transparent_crc>
    efe1:	48 8b 05 38 69 00 00 	mov    0x6938(%rip),%rax        # 15920 <g_682>
    efe8:	48 c1 e8 1c          	shr    $0x1c,%rax
    efec:	25 ff ff 3f 00       	and    $0x3fffff,%eax
    eff1:	89 c1                	mov    %eax,%ecx
    eff3:	8b 45 fc             	mov    -0x4(%rbp),%eax
    eff6:	89 c2                	mov    %eax,%edx
    eff8:	48 8d 35 bc 32 00 00 	lea    0x32bc(%rip),%rsi        # 122bb <g_589+0x2263>
    efff:	48 89 cf             	mov    %rcx,%rdi
    f002:	e8 ec 76 ff ff       	callq  66f3 <transparent_crc>
    f007:	48 8b 05 12 69 00 00 	mov    0x6912(%rip),%rax        # 15920 <g_682>
    f00e:	48 c1 e8 32          	shr    $0x32,%rax
    f012:	48 89 c2             	mov    %rax,%rdx
    f015:	48 8b 05 0c 69 00 00 	mov    0x690c(%rip),%rax        # 15928 <g_682+0x8>
    f01c:	83 e0 01             	and    $0x1,%eax
    f01f:	48 c1 e0 0e          	shl    $0xe,%rax
    f023:	48 09 d0             	or     %rdx,%rax
    f026:	48 c1 e0 31          	shl    $0x31,%rax
    f02a:	48 c1 f8 31          	sar    $0x31,%rax
    f02e:	48 0f bf c0          	movswq %ax,%rax
    f032:	8b 55 fc             	mov    -0x4(%rbp),%edx
    f035:	48 8d 35 88 32 00 00 	lea    0x3288(%rip),%rsi        # 122c4 <g_589+0x226c>
    f03c:	48 89 c7             	mov    %rax,%rdi
    f03f:	e8 af 76 ff ff       	callq  66f3 <transparent_crc>
    f044:	48 8b 05 dd 68 00 00 	mov    0x68dd(%rip),%rax        # 15928 <g_682+0x8>
    f04b:	c1 e0 03             	shl    $0x3,%eax
    f04e:	66 c1 f8 04          	sar    $0x4,%ax
    f052:	48 0f bf c0          	movswq %ax,%rax
    f056:	8b 55 fc             	mov    -0x4(%rbp),%edx
    f059:	48 8d 35 6d 32 00 00 	lea    0x326d(%rip),%rsi        # 122cd <g_589+0x2275>
    f060:	48 89 c7             	mov    %rax,%rdi
    f063:	e8 8b 76 ff ff       	callq  66f3 <transparent_crc>
    f068:	48 8b 05 b9 68 00 00 	mov    0x68b9(%rip),%rax        # 15928 <g_682+0x8>
    f06f:	48 c1 e8 0d          	shr    $0xd,%rax
    f073:	25 ff ff ff 07       	and    $0x7ffffff,%eax
    f078:	89 c1                	mov    %eax,%ecx
    f07a:	8b 45 fc             	mov    -0x4(%rbp),%eax
    f07d:	89 c2                	mov    %eax,%edx
    f07f:	48 8d 35 50 32 00 00 	lea    0x3250(%rip),%rsi        # 122d6 <g_589+0x227e>
    f086:	48 89 cf             	mov    %rcx,%rdi
    f089:	e8 65 76 ff ff       	callq  66f3 <transparent_crc>
    f08e:	8b 05 99 68 00 00    	mov    0x6899(%rip),%eax        # 1592d <g_682+0xd>
    f094:	89 c1                	mov    %eax,%ecx
    f096:	8b 45 fc             	mov    -0x4(%rbp),%eax
    f099:	89 c2                	mov    %eax,%edx
    f09b:	48 8d 35 3d 32 00 00 	lea    0x323d(%rip),%rsi        # 122df <g_589+0x2287>
    f0a2:	48 89 cf             	mov    %rcx,%rdi
    f0a5:	e8 49 76 ff ff       	callq  66f3 <transparent_crc>
    f0aa:	8b 05 84 68 00 00    	mov    0x6884(%rip),%eax        # 15934 <g_702>
    f0b0:	89 c1                	mov    %eax,%ecx
    f0b2:	8b 45 fc             	mov    -0x4(%rbp),%eax
    f0b5:	89 c2                	mov    %eax,%edx
    f0b7:	48 8d 35 2a 32 00 00 	lea    0x322a(%rip),%rsi        # 122e8 <g_589+0x2290>
    f0be:	48 89 cf             	mov    %rcx,%rdi
    f0c1:	e8 2d 76 ff ff       	callq  66f3 <transparent_crc>
    f0c6:	c7 45 f0 00 00 00 00 	movl   $0x0,-0x10(%rbp)
    f0cd:	eb 49                	jmp    f118 <main+0x101e>
    f0cf:	8b 45 f0             	mov    -0x10(%rbp),%eax
    f0d2:	48 98                	cltq   
    f0d4:	48 8d 14 00          	lea    (%rax,%rax,1),%rdx
    f0d8:	48 8d 05 61 68 00 00 	lea    0x6861(%rip),%rax        # 15940 <g_832>
    f0df:	0f b7 04 02          	movzwl (%rdx,%rax,1),%eax
    f0e3:	0f b7 c0             	movzwl %ax,%eax
    f0e6:	8b 55 fc             	mov    -0x4(%rbp),%edx
    f0e9:	48 8d 35 fe 31 00 00 	lea    0x31fe(%rip),%rsi        # 122ee <g_589+0x2296>
    f0f0:	48 89 c7             	mov    %rax,%rdi
    f0f3:	e8 fb 75 ff ff       	callq  66f3 <transparent_crc>
    f0f8:	83 7d fc 00          	cmpl   $0x0,-0x4(%rbp)
    f0fc:	74 16                	je     f114 <main+0x101a>
    f0fe:	8b 45 f0             	mov    -0x10(%rbp),%eax
    f101:	89 c6                	mov    %eax,%esi
    f103:	48 8d 3d f0 2e 00 00 	lea    0x2ef0(%rip),%rdi        # 11ffa <g_589+0x1fa2>
    f10a:	b8 00 00 00 00       	mov    $0x0,%eax
    f10f:	e8 6c 5f ff ff       	callq  5080 <printf@plt>
    f114:	83 45 f0 01          	addl   $0x1,-0x10(%rbp)
    f118:	83 7d f0 08          	cmpl   $0x8,-0x10(%rbp)
    f11c:	7e b1                	jle    f0cf <main+0xfd5>
    f11e:	48 8b 05 3b 68 00 00 	mov    0x683b(%rip),%rax        # 15960 <g_890>
    f125:	83 e0 01             	and    $0x1,%eax
    f128:	0f b6 c0             	movzbl %al,%eax
    f12b:	8b 55 fc             	mov    -0x4(%rbp),%edx
    f12e:	48 8d 35 c2 31 00 00 	lea    0x31c2(%rip),%rsi        # 122f7 <g_589+0x229f>
    f135:	48 89 c7             	mov    %rax,%rdi
    f138:	e8 b6 75 ff ff       	callq  66f3 <transparent_crc>
    f13d:	48 8b 05 1c 68 00 00 	mov    0x681c(%rip),%rax        # 15960 <g_890>
    f144:	c1 e0 0b             	shl    $0xb,%eax
    f147:	c1 f8 0c             	sar    $0xc,%eax
    f14a:	48 98                	cltq   
    f14c:	8b 55 fc             	mov    -0x4(%rbp),%edx
    f14f:	48 8d 35 aa 31 00 00 	lea    0x31aa(%rip),%rsi        # 12300 <g_589+0x22a8>
    f156:	48 89 c7             	mov    %rax,%rdi
    f159:	e8 95 75 ff ff       	callq  66f3 <transparent_crc>
    f15e:	48 8b 05 fb 67 00 00 	mov    0x67fb(%rip),%rax        # 15960 <g_890>
    f165:	c1 e0 04             	shl    $0x4,%eax
    f168:	c1 f8 19             	sar    $0x19,%eax
    f16b:	48 0f be c0          	movsbq %al,%rax
    f16f:	8b 55 fc             	mov    -0x4(%rbp),%edx
    f172:	48 8d 35 90 31 00 00 	lea    0x3190(%rip),%rsi        # 12309 <g_589+0x22b1>
    f179:	48 89 c7             	mov    %rax,%rdi
    f17c:	e8 72 75 ff ff       	callq  66f3 <transparent_crc>
    f181:	48 8b 05 d8 67 00 00 	mov    0x67d8(%rip),%rax        # 15960 <g_890>
    f188:	48 c1 e8 1c          	shr    $0x1c,%rax
    f18c:	25 ff ff 3f 00       	and    $0x3fffff,%eax
    f191:	89 c1                	mov    %eax,%ecx
    f193:	8b 45 fc             	mov    -0x4(%rbp),%eax
    f196:	89 c2                	mov    %eax,%edx
    f198:	48 8d 35 73 31 00 00 	lea    0x3173(%rip),%rsi        # 12312 <g_589+0x22ba>
    f19f:	48 89 cf             	mov    %rcx,%rdi
    f1a2:	e8 4c 75 ff ff       	callq  66f3 <transparent_crc>
    f1a7:	48 8b 05 b2 67 00 00 	mov    0x67b2(%rip),%rax        # 15960 <g_890>
    f1ae:	48 c1 e8 32          	shr    $0x32,%rax
    f1b2:	48 89 c2             	mov    %rax,%rdx
    f1b5:	48 8b 05 ac 67 00 00 	mov    0x67ac(%rip),%rax        # 15968 <g_890+0x8>
    f1bc:	83 e0 01             	and    $0x1,%eax
    f1bf:	48 c1 e0 0e          	shl    $0xe,%rax
    f1c3:	48 09 d0             	or     %rdx,%rax
    f1c6:	48 c1 e0 31          	shl    $0x31,%rax
    f1ca:	48 c1 f8 31          	sar    $0x31,%rax
    f1ce:	48 0f bf c0          	movswq %ax,%rax
    f1d2:	8b 55 fc             	mov    -0x4(%rbp),%edx
    f1d5:	48 8d 35 3f 31 00 00 	lea    0x313f(%rip),%rsi        # 1231b <g_589+0x22c3>
    f1dc:	48 89 c7             	mov    %rax,%rdi
    f1df:	e8 0f 75 ff ff       	callq  66f3 <transparent_crc>
    f1e4:	48 8b 05 7d 67 00 00 	mov    0x677d(%rip),%rax        # 15968 <g_890+0x8>
    f1eb:	c1 e0 03             	shl    $0x3,%eax
    f1ee:	66 c1 f8 04          	sar    $0x4,%ax
    f1f2:	48 0f bf c0          	movswq %ax,%rax
    f1f6:	8b 55 fc             	mov    -0x4(%rbp),%edx
    f1f9:	48 8d 35 24 31 00 00 	lea    0x3124(%rip),%rsi        # 12324 <g_589+0x22cc>
    f200:	48 89 c7             	mov    %rax,%rdi
    f203:	e8 eb 74 ff ff       	callq  66f3 <transparent_crc>
    f208:	48 8b 05 59 67 00 00 	mov    0x6759(%rip),%rax        # 15968 <g_890+0x8>
    f20f:	48 c1 e8 0d          	shr    $0xd,%rax
    f213:	25 ff ff ff 07       	and    $0x7ffffff,%eax
    f218:	89 c1                	mov    %eax,%ecx
    f21a:	8b 45 fc             	mov    -0x4(%rbp),%eax
    f21d:	89 c2                	mov    %eax,%edx
    f21f:	48 8d 35 07 31 00 00 	lea    0x3107(%rip),%rsi        # 1232d <g_589+0x22d5>
    f226:	48 89 cf             	mov    %rcx,%rdi
    f229:	e8 c5 74 ff ff       	callq  66f3 <transparent_crc>
    f22e:	8b 05 39 67 00 00    	mov    0x6739(%rip),%eax        # 1596d <g_890+0xd>
    f234:	89 c1                	mov    %eax,%ecx
    f236:	8b 45 fc             	mov    -0x4(%rbp),%eax
    f239:	89 c2                	mov    %eax,%edx
    f23b:	48 8d 35 f4 30 00 00 	lea    0x30f4(%rip),%rsi        # 12336 <g_589+0x22de>
    f242:	48 89 cf             	mov    %rcx,%rdi
    f245:	e8 a9 74 ff ff       	callq  66f3 <transparent_crc>
    f24a:	0f b6 05 2f 67 00 00 	movzbl 0x672f(%rip),%eax        # 15980 <g_927>
    f251:	83 e0 01             	and    $0x1,%eax
    f254:	0f b6 c0             	movzbl %al,%eax
    f257:	8b 55 fc             	mov    -0x4(%rbp),%edx
    f25a:	48 8d 35 de 30 00 00 	lea    0x30de(%rip),%rsi        # 1233f <g_589+0x22e7>
    f261:	48 89 c7             	mov    %rax,%rdi
    f264:	e8 8a 74 ff ff       	callq  66f3 <transparent_crc>
    f269:	8b 05 11 67 00 00    	mov    0x6711(%rip),%eax        # 15980 <g_927>
    f26f:	c1 e0 0b             	shl    $0xb,%eax
    f272:	c1 f8 0c             	sar    $0xc,%eax
    f275:	48 98                	cltq   
    f277:	8b 55 fc             	mov    -0x4(%rbp),%edx
    f27a:	48 8d 35 c7 30 00 00 	lea    0x30c7(%rip),%rsi        # 12348 <g_589+0x22f0>
    f281:	48 89 c7             	mov    %rax,%rdi
    f284:	e8 6a 74 ff ff       	callq  66f3 <transparent_crc>
    f289:	48 8b 05 f0 66 00 00 	mov    0x66f0(%rip),%rax        # 15980 <g_927>
    f290:	c1 e0 04             	shl    $0x4,%eax
    f293:	c1 f8 19             	sar    $0x19,%eax
    f296:	48 0f be c0          	movsbq %al,%rax
    f29a:	8b 55 fc             	mov    -0x4(%rbp),%edx
    f29d:	48 8d 35 ad 30 00 00 	lea    0x30ad(%rip),%rsi        # 12351 <g_589+0x22f9>
    f2a4:	48 89 c7             	mov    %rax,%rdi
    f2a7:	e8 47 74 ff ff       	callq  66f3 <transparent_crc>
    f2ac:	48 8b 05 cd 66 00 00 	mov    0x66cd(%rip),%rax        # 15980 <g_927>
    f2b3:	48 c1 e8 1c          	shr    $0x1c,%rax
    f2b7:	25 ff ff 3f 00       	and    $0x3fffff,%eax
    f2bc:	89 c1                	mov    %eax,%ecx
    f2be:	8b 45 fc             	mov    -0x4(%rbp),%eax
    f2c1:	89 c2                	mov    %eax,%edx
    f2c3:	48 8d 35 90 30 00 00 	lea    0x3090(%rip),%rsi        # 1235a <g_589+0x2302>
    f2ca:	48 89 cf             	mov    %rcx,%rdi
    f2cd:	e8 21 74 ff ff       	callq  66f3 <transparent_crc>
    f2d2:	48 8b 05 a7 66 00 00 	mov    0x66a7(%rip),%rax        # 15980 <g_927>
    f2d9:	48 c1 e8 32          	shr    $0x32,%rax
    f2dd:	48 89 c2             	mov    %rax,%rdx
    f2e0:	48 8b 05 a1 66 00 00 	mov    0x66a1(%rip),%rax        # 15988 <g_927+0x8>
    f2e7:	83 e0 01             	and    $0x1,%eax
    f2ea:	48 c1 e0 0e          	shl    $0xe,%rax
    f2ee:	48 09 d0             	or     %rdx,%rax
    f2f1:	48 c1 e0 31          	shl    $0x31,%rax
    f2f5:	48 c1 f8 31          	sar    $0x31,%rax
    f2f9:	48 0f bf c0          	movswq %ax,%rax
    f2fd:	8b 55 fc             	mov    -0x4(%rbp),%edx
    f300:	48 8d 35 5c 30 00 00 	lea    0x305c(%rip),%rsi        # 12363 <g_589+0x230b>
    f307:	48 89 c7             	mov    %rax,%rdi
    f30a:	e8 e4 73 ff ff       	callq  66f3 <transparent_crc>
    f30f:	0f b7 05 72 66 00 00 	movzwl 0x6672(%rip),%eax        # 15988 <g_927+0x8>
    f316:	c1 e0 03             	shl    $0x3,%eax
    f319:	66 c1 f8 04          	sar    $0x4,%ax
    f31d:	48 0f bf c0          	movswq %ax,%rax
    f321:	8b 55 fc             	mov    -0x4(%rbp),%edx
    f324:	48 8d 35 41 30 00 00 	lea    0x3041(%rip),%rsi        # 1236c <g_589+0x2314>
    f32b:	48 89 c7             	mov    %rax,%rdi
    f32e:	e8 c0 73 ff ff       	callq  66f3 <transparent_crc>
    f333:	48 8b 05 4e 66 00 00 	mov    0x664e(%rip),%rax        # 15988 <g_927+0x8>
    f33a:	48 c1 e8 0d          	shr    $0xd,%rax
    f33e:	25 ff ff ff 07       	and    $0x7ffffff,%eax
    f343:	89 c1                	mov    %eax,%ecx
    f345:	8b 45 fc             	mov    -0x4(%rbp),%eax
    f348:	89 c2                	mov    %eax,%edx
    f34a:	48 8d 35 24 30 00 00 	lea    0x3024(%rip),%rsi        # 12375 <g_589+0x231d>
    f351:	48 89 cf             	mov    %rcx,%rdi
    f354:	e8 9a 73 ff ff       	callq  66f3 <transparent_crc>
    f359:	8b 05 2e 66 00 00    	mov    0x662e(%rip),%eax        # 1598d <g_927+0xd>
    f35f:	89 c1                	mov    %eax,%ecx
    f361:	8b 45 fc             	mov    -0x4(%rbp),%eax
    f364:	89 c2                	mov    %eax,%edx
    f366:	48 8d 35 11 30 00 00 	lea    0x3011(%rip),%rsi        # 1237e <g_589+0x2326>
    f36d:	48 89 cf             	mov    %rcx,%rdi
    f370:	e8 7e 73 ff ff       	callq  66f3 <transparent_crc>
    f375:	c7 45 f0 00 00 00 00 	movl   $0x0,-0x10(%rbp)
    f37c:	e9 b6 02 00 00       	jmpq   f637 <main+0x153d>
    f381:	8b 45 f0             	mov    -0x10(%rbp),%eax
    f384:	48 63 d0             	movslq %eax,%rdx
    f387:	48 89 d0             	mov    %rdx,%rax
    f38a:	48 c1 e0 04          	shl    $0x4,%rax
    f38e:	48 01 c2             	add    %rax,%rdx
    f391:	48 8d 05 08 66 00 00 	lea    0x6608(%rip),%rax        # 159a0 <g_940>
    f398:	0f b6 04 02          	movzbl (%rdx,%rax,1),%eax
    f39c:	83 e0 01             	and    $0x1,%eax
    f39f:	0f b6 c0             	movzbl %al,%eax
    f3a2:	8b 55 fc             	mov    -0x4(%rbp),%edx
    f3a5:	48 8d 35 db 2f 00 00 	lea    0x2fdb(%rip),%rsi        # 12387 <g_589+0x232f>
    f3ac:	48 89 c7             	mov    %rax,%rdi
    f3af:	e8 3f 73 ff ff       	callq  66f3 <transparent_crc>
    f3b4:	8b 45 f0             	mov    -0x10(%rbp),%eax
    f3b7:	48 63 d0             	movslq %eax,%rdx
    f3ba:	48 89 d0             	mov    %rdx,%rax
    f3bd:	48 c1 e0 04          	shl    $0x4,%rax
    f3c1:	48 01 c2             	add    %rax,%rdx
    f3c4:	48 8d 05 d5 65 00 00 	lea    0x65d5(%rip),%rax        # 159a0 <g_940>
    f3cb:	0f b6 0c 02          	movzbl (%rdx,%rax,1),%ecx
    f3cf:	d0 e9                	shr    %cl
    f3d1:	0f b6 c9             	movzbl %cl,%ecx
    f3d4:	0f b6 74 02 01       	movzbl 0x1(%rdx,%rax,1),%esi
    f3d9:	40 0f b6 f6          	movzbl %sil,%esi
    f3dd:	48 c1 e6 07          	shl    $0x7,%rsi
    f3e1:	48 09 f1             	or     %rsi,%rcx
    f3e4:	0f b6 44 02 02       	movzbl 0x2(%rdx,%rax,1),%eax
    f3e9:	0f b6 c0             	movzbl %al,%eax
    f3ec:	83 e0 1f             	and    $0x1f,%eax
    f3ef:	48 c1 e0 0f          	shl    $0xf,%rax
    f3f3:	48 09 c8             	or     %rcx,%rax
    f3f6:	48 c1 e0 2c          	shl    $0x2c,%rax
    f3fa:	48 c1 f8 2c          	sar    $0x2c,%rax
    f3fe:	48 98                	cltq   
    f400:	8b 55 fc             	mov    -0x4(%rbp),%edx
    f403:	48 8d 35 89 2f 00 00 	lea    0x2f89(%rip),%rsi        # 12393 <g_589+0x233b>
    f40a:	48 89 c7             	mov    %rax,%rdi
    f40d:	e8 e1 72 ff ff       	callq  66f3 <transparent_crc>
    f412:	8b 45 f0             	mov    -0x10(%rbp),%eax
    f415:	48 63 d0             	movslq %eax,%rdx
    f418:	48 89 d0             	mov    %rdx,%rax
    f41b:	48 c1 e0 04          	shl    $0x4,%rax
    f41f:	48 01 c2             	add    %rax,%rdx
    f422:	48 8d 05 77 65 00 00 	lea    0x6577(%rip),%rax        # 159a0 <g_940>
    f429:	0f b6 4c 02 02       	movzbl 0x2(%rdx,%rax,1),%ecx
    f42e:	c0 e9 05             	shr    $0x5,%cl
    f431:	0f b6 c9             	movzbl %cl,%ecx
    f434:	0f b6 44 02 03       	movzbl 0x3(%rdx,%rax,1),%eax
    f439:	0f b6 c0             	movzbl %al,%eax
    f43c:	83 e0 0f             	and    $0xf,%eax
    f43f:	48 c1 e0 03          	shl    $0x3,%rax
    f443:	48 09 c8             	or     %rcx,%rax
    f446:	48 c1 e0 39          	shl    $0x39,%rax
    f44a:	48 c1 f8 39          	sar    $0x39,%rax
    f44e:	48 0f be c0          	movsbq %al,%rax
    f452:	8b 55 fc             	mov    -0x4(%rbp),%edx
    f455:	48 8d 35 43 2f 00 00 	lea    0x2f43(%rip),%rsi        # 1239f <g_589+0x2347>
    f45c:	48 89 c7             	mov    %rax,%rdi
    f45f:	e8 8f 72 ff ff       	callq  66f3 <transparent_crc>
    f464:	8b 45 f0             	mov    -0x10(%rbp),%eax
    f467:	48 63 d0             	movslq %eax,%rdx
    f46a:	48 89 d0             	mov    %rdx,%rax
    f46d:	48 c1 e0 04          	shl    $0x4,%rax
    f471:	48 01 c2             	add    %rax,%rdx
    f474:	48 8d 05 25 65 00 00 	lea    0x6525(%rip),%rax        # 159a0 <g_940>
    f47b:	0f b6 4c 02 03       	movzbl 0x3(%rdx,%rax,1),%ecx
    f480:	c0 e9 04             	shr    $0x4,%cl
    f483:	0f b6 c9             	movzbl %cl,%ecx
    f486:	0f b6 74 02 04       	movzbl 0x4(%rdx,%rax,1),%esi
    f48b:	40 0f b6 f6          	movzbl %sil,%esi
    f48f:	48 c1 e6 04          	shl    $0x4,%rsi
    f493:	48 09 ce             	or     %rcx,%rsi
    f496:	0f b6 4c 02 05       	movzbl 0x5(%rdx,%rax,1),%ecx
    f49b:	0f b6 c9             	movzbl %cl,%ecx
    f49e:	48 c1 e1 0c          	shl    $0xc,%rcx
    f4a2:	48 09 f1             	or     %rsi,%rcx
    f4a5:	0f b6 44 02 06       	movzbl 0x6(%rdx,%rax,1),%eax
    f4aa:	0f b6 c0             	movzbl %al,%eax
    f4ad:	83 e0 03             	and    $0x3,%eax
    f4b0:	48 c1 e0 14          	shl    $0x14,%rax
    f4b4:	48 09 c8             	or     %rcx,%rax
    f4b7:	89 c1                	mov    %eax,%ecx
    f4b9:	8b 45 fc             	mov    -0x4(%rbp),%eax
    f4bc:	89 c2                	mov    %eax,%edx
    f4be:	48 8d 35 e6 2e 00 00 	lea    0x2ee6(%rip),%rsi        # 123ab <g_589+0x2353>
    f4c5:	48 89 cf             	mov    %rcx,%rdi
    f4c8:	e8 26 72 ff ff       	callq  66f3 <transparent_crc>
    f4cd:	8b 45 f0             	mov    -0x10(%rbp),%eax
    f4d0:	48 63 d0             	movslq %eax,%rdx
    f4d3:	48 89 d0             	mov    %rdx,%rax
    f4d6:	48 c1 e0 04          	shl    $0x4,%rax
    f4da:	48 01 c2             	add    %rax,%rdx
    f4dd:	48 8d 05 bc 64 00 00 	lea    0x64bc(%rip),%rax        # 159a0 <g_940>
    f4e4:	0f b6 4c 02 06       	movzbl 0x6(%rdx,%rax,1),%ecx
    f4e9:	c0 e9 02             	shr    $0x2,%cl
    f4ec:	0f b6 c9             	movzbl %cl,%ecx
    f4ef:	0f b6 74 02 07       	movzbl 0x7(%rdx,%rax,1),%esi
    f4f4:	40 0f b6 f6          	movzbl %sil,%esi
    f4f8:	48 c1 e6 06          	shl    $0x6,%rsi
    f4fc:	48 09 f1             	or     %rsi,%rcx
    f4ff:	0f b6 44 02 08       	movzbl 0x8(%rdx,%rax,1),%eax
    f504:	0f b6 c0             	movzbl %al,%eax
    f507:	83 e0 01             	and    $0x1,%eax
    f50a:	48 c1 e0 0e          	shl    $0xe,%rax
    f50e:	48 09 c8             	or     %rcx,%rax
    f511:	48 c1 e0 31          	shl    $0x31,%rax
    f515:	48 c1 f8 31          	sar    $0x31,%rax
    f519:	48 0f bf c0          	movswq %ax,%rax
    f51d:	8b 55 fc             	mov    -0x4(%rbp),%edx
    f520:	48 8d 35 90 2e 00 00 	lea    0x2e90(%rip),%rsi        # 123b7 <g_589+0x235f>
    f527:	48 89 c7             	mov    %rax,%rdi
    f52a:	e8 c4 71 ff ff       	callq  66f3 <transparent_crc>
    f52f:	8b 45 f0             	mov    -0x10(%rbp),%eax
    f532:	48 63 d0             	movslq %eax,%rdx
    f535:	48 89 d0             	mov    %rdx,%rax
    f538:	48 c1 e0 04          	shl    $0x4,%rax
    f53c:	48 01 c2             	add    %rax,%rdx
    f53f:	48 8d 05 5a 64 00 00 	lea    0x645a(%rip),%rax        # 159a0 <g_940>
    f546:	0f b6 4c 02 08       	movzbl 0x8(%rdx,%rax,1),%ecx
    f54b:	d0 e9                	shr    %cl
    f54d:	0f b6 c9             	movzbl %cl,%ecx
    f550:	0f b6 44 02 09       	movzbl 0x9(%rdx,%rax,1),%eax
    f555:	0f b6 c0             	movzbl %al,%eax
    f558:	83 e0 1f             	and    $0x1f,%eax
    f55b:	48 c1 e0 07          	shl    $0x7,%rax
    f55f:	48 09 c8             	or     %rcx,%rax
    f562:	48 c1 e0 34          	shl    $0x34,%rax
    f566:	48 c1 f8 34          	sar    $0x34,%rax
    f56a:	48 0f bf c0          	movswq %ax,%rax
    f56e:	8b 55 fc             	mov    -0x4(%rbp),%edx
    f571:	48 8d 35 4b 2e 00 00 	lea    0x2e4b(%rip),%rsi        # 123c3 <g_589+0x236b>
    f578:	48 89 c7             	mov    %rax,%rdi
    f57b:	e8 73 71 ff ff       	callq  66f3 <transparent_crc>
    f580:	8b 45 f0             	mov    -0x10(%rbp),%eax
    f583:	48 63 d0             	movslq %eax,%rdx
    f586:	48 89 d0             	mov    %rdx,%rax
    f589:	48 c1 e0 04          	shl    $0x4,%rax
    f58d:	48 01 c2             	add    %rax,%rdx
    f590:	48 8d 05 09 64 00 00 	lea    0x6409(%rip),%rax        # 159a0 <g_940>
    f597:	0f b6 4c 02 09       	movzbl 0x9(%rdx,%rax,1),%ecx
    f59c:	c0 e9 05             	shr    $0x5,%cl
    f59f:	0f b6 c9             	movzbl %cl,%ecx
    f5a2:	0f b6 74 02 0a       	movzbl 0xa(%rdx,%rax,1),%esi
    f5a7:	40 0f b6 f6          	movzbl %sil,%esi
    f5ab:	48 c1 e6 03          	shl    $0x3,%rsi
    f5af:	48 09 ce             	or     %rcx,%rsi
    f5b2:	0f b6 4c 02 0b       	movzbl 0xb(%rdx,%rax,1),%ecx
    f5b7:	0f b6 c9             	movzbl %cl,%ecx
    f5ba:	48 c1 e1 0b          	shl    $0xb,%rcx
    f5be:	48 09 f1             	or     %rsi,%rcx
    f5c1:	0f b6 44 02 0c       	movzbl 0xc(%rdx,%rax,1),%eax
    f5c6:	0f b6 c0             	movzbl %al,%eax
    f5c9:	48 c1 e0 13          	shl    $0x13,%rax
    f5cd:	48 09 c8             	or     %rcx,%rax
    f5d0:	89 c1                	mov    %eax,%ecx
    f5d2:	8b 45 fc             	mov    -0x4(%rbp),%eax
    f5d5:	89 c2                	mov    %eax,%edx
    f5d7:	48 8d 35 f1 2d 00 00 	lea    0x2df1(%rip),%rsi        # 123cf <g_589+0x2377>
    f5de:	48 89 cf             	mov    %rcx,%rdi
    f5e1:	e8 0d 71 ff ff       	callq  66f3 <transparent_crc>
    f5e6:	8b 45 f0             	mov    -0x10(%rbp),%eax
    f5e9:	48 63 d0             	movslq %eax,%rdx
    f5ec:	48 89 d0             	mov    %rdx,%rax
    f5ef:	48 c1 e0 04          	shl    $0x4,%rax
    f5f3:	48 01 c2             	add    %rax,%rdx
    f5f6:	48 8d 05 a3 63 00 00 	lea    0x63a3(%rip),%rax        # 159a0 <g_940>
    f5fd:	8b 44 02 0d          	mov    0xd(%rdx,%rax,1),%eax
    f601:	89 c1                	mov    %eax,%ecx
    f603:	8b 45 fc             	mov    -0x4(%rbp),%eax
    f606:	89 c2                	mov    %eax,%edx
    f608:	48 8d 35 cc 2d 00 00 	lea    0x2dcc(%rip),%rsi        # 123db <g_589+0x2383>
    f60f:	48 89 cf             	mov    %rcx,%rdi
    f612:	e8 dc 70 ff ff       	callq  66f3 <transparent_crc>
    f617:	83 7d fc 00          	cmpl   $0x0,-0x4(%rbp)
    f61b:	74 16                	je     f633 <main+0x1539>
    f61d:	8b 45 f0             	mov    -0x10(%rbp),%eax
    f620:	89 c6                	mov    %eax,%esi
    f622:	48 8d 3d d1 29 00 00 	lea    0x29d1(%rip),%rdi        # 11ffa <g_589+0x1fa2>
    f629:	b8 00 00 00 00       	mov    $0x0,%eax
    f62e:	e8 4d 5a ff ff       	callq  5080 <printf@plt>
    f633:	83 45 f0 01          	addl   $0x1,-0x10(%rbp)
    f637:	83 7d f0 04          	cmpl   $0x4,-0x10(%rbp)
    f63b:	0f 8e 40 fd ff ff    	jle    f381 <main+0x1287>
    f641:	c7 45 f0 00 00 00 00 	movl   $0x0,-0x10(%rbp)
    f648:	e9 b0 00 00 00       	jmpq   f6fd <main+0x1603>
    f64d:	c7 45 f4 00 00 00 00 	movl   $0x0,-0xc(%rbp)
    f654:	e9 96 00 00 00       	jmpq   f6ef <main+0x15f5>
    f659:	c7 45 f8 00 00 00 00 	movl   $0x0,-0x8(%rbp)
    f660:	eb 7f                	jmp    f6e1 <main+0x15e7>
    f662:	8b 45 f8             	mov    -0x8(%rbp),%eax
    f665:	48 63 f0             	movslq %eax,%rsi
    f668:	8b 45 f0             	mov    -0x10(%rbp),%eax
    f66b:	48 63 d0             	movslq %eax,%rdx
    f66e:	8b 45 f4             	mov    -0xc(%rbp),%eax
    f671:	48 63 c8             	movslq %eax,%rcx
    f674:	48 89 d0             	mov    %rdx,%rax
    f677:	48 01 c0             	add    %rax,%rax
    f67a:	48 01 d0             	add    %rdx,%rax
    f67d:	48 89 c2             	mov    %rax,%rdx
    f680:	48 c1 e2 04          	shl    $0x4,%rdx
    f684:	48 29 c2             	sub    %rax,%rdx
    f687:	48 89 c8             	mov    %rcx,%rax
    f68a:	48 c1 e0 02          	shl    $0x2,%rax
    f68e:	48 01 c8             	add    %rcx,%rax
    f691:	48 01 d0             	add    %rdx,%rax
    f694:	48 8d 14 30          	lea    (%rax,%rsi,1),%rdx
    f698:	48 8d 05 61 63 00 00 	lea    0x6361(%rip),%rax        # 15a00 <g_961>
    f69f:	48 01 d0             	add    %rdx,%rax
    f6a2:	0f b6 00             	movzbl (%rax),%eax
    f6a5:	48 0f be c0          	movsbq %al,%rax
    f6a9:	8b 55 fc             	mov    -0x4(%rbp),%edx
    f6ac:	48 8d 35 34 2d 00 00 	lea    0x2d34(%rip),%rsi        # 123e7 <g_589+0x238f>
    f6b3:	48 89 c7             	mov    %rax,%rdi
    f6b6:	e8 38 70 ff ff       	callq  66f3 <transparent_crc>
    f6bb:	83 7d fc 00          	cmpl   $0x0,-0x4(%rbp)
    f6bf:	74 1c                	je     f6dd <main+0x15e3>
    f6c1:	8b 4d f8             	mov    -0x8(%rbp),%ecx
    f6c4:	8b 55 f4             	mov    -0xc(%rbp),%edx
    f6c7:	8b 45 f0             	mov    -0x10(%rbp),%eax
    f6ca:	89 c6                	mov    %eax,%esi
    f6cc:	48 8d 3d bc 29 00 00 	lea    0x29bc(%rip),%rdi        # 1208f <g_589+0x2037>
    f6d3:	b8 00 00 00 00       	mov    $0x0,%eax
    f6d8:	e8 a3 59 ff ff       	callq  5080 <printf@plt>
    f6dd:	83 45 f8 01          	addl   $0x1,-0x8(%rbp)
    f6e1:	83 7d f8 04          	cmpl   $0x4,-0x8(%rbp)
    f6e5:	0f 8e 77 ff ff ff    	jle    f662 <main+0x1568>
    f6eb:	83 45 f4 01          	addl   $0x1,-0xc(%rbp)
    f6ef:	83 7d f4 08          	cmpl   $0x8,-0xc(%rbp)
    f6f3:	0f 8e 60 ff ff ff    	jle    f659 <main+0x155f>
    f6f9:	83 45 f0 01          	addl   $0x1,-0x10(%rbp)
    f6fd:	83 7d f0 04          	cmpl   $0x4,-0x10(%rbp)
    f701:	0f 8e 46 ff ff ff    	jle    f64d <main+0x1553>
    f707:	0f b6 05 d3 63 00 00 	movzbl 0x63d3(%rip),%eax        # 15ae1 <g_1021>
    f70e:	0f b6 c0             	movzbl %al,%eax
    f711:	8b 55 fc             	mov    -0x4(%rbp),%edx
    f714:	48 8d 35 db 2c 00 00 	lea    0x2cdb(%rip),%rsi        # 123f6 <g_589+0x239e>
    f71b:	48 89 c7             	mov    %rax,%rdi
    f71e:	e8 d0 6f ff ff       	callq  66f3 <transparent_crc>
    f723:	0f b6 05 b8 63 00 00 	movzbl 0x63b8(%rip),%eax        # 15ae2 <g_1029>
    f72a:	48 0f be c0          	movsbq %al,%rax
    f72e:	8b 55 fc             	mov    -0x4(%rbp),%edx
    f731:	48 8d 35 c5 2c 00 00 	lea    0x2cc5(%rip),%rsi        # 123fd <g_589+0x23a5>
    f738:	48 89 c7             	mov    %rax,%rdi
    f73b:	e8 b3 6f ff ff       	callq  66f3 <transparent_crc>
    f740:	8b 05 9e 63 00 00    	mov    0x639e(%rip),%eax        # 15ae4 <g_1050>
    f746:	48 98                	cltq   
    f748:	8b 55 fc             	mov    -0x4(%rbp),%edx
    f74b:	48 8d 35 b2 2c 00 00 	lea    0x2cb2(%rip),%rsi        # 12404 <g_589+0x23ac>
    f752:	48 89 c7             	mov    %rax,%rdi
    f755:	e8 99 6f ff ff       	callq  66f3 <transparent_crc>
    f75a:	8b 05 88 63 00 00    	mov    0x6388(%rip),%eax        # 15ae8 <g_1062>
    f760:	48 98                	cltq   
    f762:	8b 55 fc             	mov    -0x4(%rbp),%edx
    f765:	48 8d 35 9f 2c 00 00 	lea    0x2c9f(%rip),%rsi        # 1240b <g_589+0x23b3>
    f76c:	48 89 c7             	mov    %rax,%rdi
    f76f:	e8 7f 6f ff ff       	callq  66f3 <transparent_crc>
    f774:	c7 45 f0 00 00 00 00 	movl   $0x0,-0x10(%rbp)
    f77b:	e9 96 00 00 00       	jmpq   f816 <main+0x171c>
    f780:	c7 45 f4 00 00 00 00 	movl   $0x0,-0xc(%rbp)
    f787:	eb 7f                	jmp    f808 <main+0x170e>
    f789:	c7 45 f8 00 00 00 00 	movl   $0x0,-0x8(%rbp)
    f790:	eb 6c                	jmp    f7fe <main+0x1704>
    f792:	8b 45 f8             	mov    -0x8(%rbp),%eax
    f795:	48 98                	cltq   
    f797:	8b 55 f0             	mov    -0x10(%rbp),%edx
    f79a:	48 63 ca             	movslq %edx,%rcx
    f79d:	8b 55 f4             	mov    -0xc(%rbp),%edx
    f7a0:	48 63 d2             	movslq %edx,%rdx
    f7a3:	48 01 c9             	add    %rcx,%rcx
    f7a6:	48 01 ca             	add    %rcx,%rdx
    f7a9:	48 c1 e2 03          	shl    $0x3,%rdx
    f7ad:	48 01 d0             	add    %rdx,%rax
    f7b0:	48 8d 14 85 00 00 00 	lea    0x0(,%rax,4),%rdx
    f7b7:	00 
    f7b8:	48 8d 05 41 63 00 00 	lea    0x6341(%rip),%rax        # 15b00 <g_1119>
    f7bf:	8b 04 02             	mov    (%rdx,%rax,1),%eax
    f7c2:	89 c1                	mov    %eax,%ecx
    f7c4:	8b 45 fc             	mov    -0x4(%rbp),%eax
    f7c7:	89 c2                	mov    %eax,%edx
    f7c9:	48 8d 35 42 2c 00 00 	lea    0x2c42(%rip),%rsi        # 12412 <g_589+0x23ba>
    f7d0:	48 89 cf             	mov    %rcx,%rdi
    f7d3:	e8 1b 6f ff ff       	callq  66f3 <transparent_crc>
    f7d8:	83 7d fc 00          	cmpl   $0x0,-0x4(%rbp)
    f7dc:	74 1c                	je     f7fa <main+0x1700>
    f7de:	8b 4d f8             	mov    -0x8(%rbp),%ecx
    f7e1:	8b 55 f4             	mov    -0xc(%rbp),%edx
    f7e4:	8b 45 f0             	mov    -0x10(%rbp),%eax
    f7e7:	89 c6                	mov    %eax,%esi
    f7e9:	48 8d 3d 9f 28 00 00 	lea    0x289f(%rip),%rdi        # 1208f <g_589+0x2037>
    f7f0:	b8 00 00 00 00       	mov    $0x0,%eax
    f7f5:	e8 86 58 ff ff       	callq  5080 <printf@plt>
    f7fa:	83 45 f8 01          	addl   $0x1,-0x8(%rbp)
    f7fe:	83 7d f8 07          	cmpl   $0x7,-0x8(%rbp)
    f802:	7e 8e                	jle    f792 <main+0x1698>
    f804:	83 45 f4 01          	addl   $0x1,-0xc(%rbp)
    f808:	83 7d f4 01          	cmpl   $0x1,-0xc(%rbp)
    f80c:	0f 8e 77 ff ff ff    	jle    f789 <main+0x168f>
    f812:	83 45 f0 01          	addl   $0x1,-0x10(%rbp)
    f816:	83 7d f0 01          	cmpl   $0x1,-0x10(%rbp)
    f81a:	0f 8e 60 ff ff ff    	jle    f780 <main+0x1686>
    f820:	8b 05 f2 85 00 00    	mov    0x85f2(%rip),%eax        # 17e18 <g_1175>
    f826:	89 c1                	mov    %eax,%ecx
    f828:	8b 45 fc             	mov    -0x4(%rbp),%eax
    f82b:	89 c2                	mov    %eax,%edx
    f82d:	48 8d 35 ee 2b 00 00 	lea    0x2bee(%rip),%rsi        # 12422 <g_589+0x23ca>
    f834:	48 89 cf             	mov    %rcx,%rdi
    f837:	e8 b7 6e ff ff       	callq  66f3 <transparent_crc>
    f83c:	48 8b 05 3d 63 00 00 	mov    0x633d(%rip),%rax        # 15b80 <g_1192>
    f843:	8b 55 fc             	mov    -0x4(%rbp),%edx
    f846:	48 8d 35 dc 2b 00 00 	lea    0x2bdc(%rip),%rsi        # 12429 <g_589+0x23d1>
    f84d:	48 89 c7             	mov    %rax,%rdi
    f850:	e8 9e 6e ff ff       	callq  66f3 <transparent_crc>
    f855:	c7 45 f0 00 00 00 00 	movl   $0x0,-0x10(%rbp)
    f85c:	eb 4d                	jmp    f8ab <main+0x17b1>
    f85e:	8b 45 f0             	mov    -0x10(%rbp),%eax
    f861:	48 98                	cltq   
    f863:	48 8d 14 85 00 00 00 	lea    0x0(,%rax,4),%rdx
    f86a:	00 
    f86b:	48 8d 05 ae 85 00 00 	lea    0x85ae(%rip),%rax        # 17e20 <g_1253>
    f872:	8b 04 02             	mov    (%rdx,%rax,1),%eax
    f875:	89 c1                	mov    %eax,%ecx
    f877:	8b 45 fc             	mov    -0x4(%rbp),%eax
    f87a:	89 c2                	mov    %eax,%edx
    f87c:	48 8d 35 ad 2b 00 00 	lea    0x2bad(%rip),%rsi        # 12430 <g_589+0x23d8>
    f883:	48 89 cf             	mov    %rcx,%rdi
    f886:	e8 68 6e ff ff       	callq  66f3 <transparent_crc>
    f88b:	83 7d fc 00          	cmpl   $0x0,-0x4(%rbp)
    f88f:	74 16                	je     f8a7 <main+0x17ad>
    f891:	8b 45 f0             	mov    -0x10(%rbp),%eax
    f894:	89 c6                	mov    %eax,%esi
    f896:	48 8d 3d 5d 27 00 00 	lea    0x275d(%rip),%rdi        # 11ffa <g_589+0x1fa2>
    f89d:	b8 00 00 00 00       	mov    $0x0,%eax
    f8a2:	e8 d9 57 ff ff       	callq  5080 <printf@plt>
    f8a7:	83 45 f0 01          	addl   $0x1,-0x10(%rbp)
    f8ab:	83 7d f0 06          	cmpl   $0x6,-0x10(%rbp)
    f8af:	7e ad                	jle    f85e <main+0x1764>
    f8b1:	48 8b 05 d0 62 00 00 	mov    0x62d0(%rip),%rax        # 15b88 <g_1385>
    f8b8:	8b 55 fc             	mov    -0x4(%rbp),%edx
    f8bb:	48 8d 35 78 2b 00 00 	lea    0x2b78(%rip),%rsi        # 1243a <g_589+0x23e2>
    f8c2:	48 89 c7             	mov    %rax,%rdi
    f8c5:	e8 29 6e ff ff       	callq  66f3 <transparent_crc>
    f8ca:	8b 05 c0 62 00 00    	mov    0x62c0(%rip),%eax        # 15b90 <g_1532>
    f8d0:	89 c1                	mov    %eax,%ecx
    f8d2:	8b 45 fc             	mov    -0x4(%rbp),%eax
    f8d5:	89 c2                	mov    %eax,%edx
    f8d7:	48 8d 35 63 2b 00 00 	lea    0x2b63(%rip),%rsi        # 12441 <g_589+0x23e9>
    f8de:	48 89 cf             	mov    %rcx,%rdi
    f8e1:	e8 0d 6e ff ff       	callq  66f3 <transparent_crc>
    f8e6:	8b 05 34 57 00 00    	mov    0x5734(%rip),%eax        # 15020 <crc32_context>
    f8ec:	f7 d0                	not    %eax
    f8ee:	89 c2                	mov    %eax,%edx
    f8f0:	8b 45 fc             	mov    -0x4(%rbp),%eax
    f8f3:	89 c6                	mov    %eax,%esi
    f8f5:	89 d7                	mov    %edx,%edi
    f8f7:	e8 98 58 ff ff       	callq  5194 <platform_main_end>
    f8fc:	b8 00 00 00 00       	mov    $0x0,%eax
    f901:	c9                   	leaveq 
    f902:	c3                   	retq   
    f903:	66 2e 0f 1f 84 00 00 	nopw   %cs:0x0(%rax,%rax,1)
    f90a:	00 00 00 
    f90d:	0f 1f 00             	nopl   (%rax)

000000000000f910 <__libc_csu_init>:
    f910:	f3 0f 1e fa          	endbr64 
    f914:	41 57                	push   %r15
    f916:	4c 8d 3d 33 54 00 00 	lea    0x5433(%rip),%r15        # 14d50 <__frame_dummy_init_array_entry>
    f91d:	41 56                	push   %r14
    f91f:	49 89 d6             	mov    %rdx,%r14
    f922:	41 55                	push   %r13
    f924:	49 89 f5             	mov    %rsi,%r13
    f927:	41 54                	push   %r12
    f929:	41 89 fc             	mov    %edi,%r12d
    f92c:	55                   	push   %rbp
    f92d:	48 8d 2d 24 54 00 00 	lea    0x5424(%rip),%rbp        # 14d58 <__do_global_dtors_aux_fini_array_entry>
    f934:	53                   	push   %rbx
    f935:	4c 29 fd             	sub    %r15,%rbp
    f938:	48 83 ec 08          	sub    $0x8,%rsp
    f93c:	e8 bf 56 ff ff       	callq  5000 <_init>
    f941:	48 c1 fd 03          	sar    $0x3,%rbp
    f945:	74 1f                	je     f966 <__libc_csu_init+0x56>
    f947:	31 db                	xor    %ebx,%ebx
    f949:	0f 1f 80 00 00 00 00 	nopl   0x0(%rax)
    f950:	4c 89 f2             	mov    %r14,%rdx
    f953:	4c 89 ee             	mov    %r13,%rsi
    f956:	44 89 e7             	mov    %r12d,%edi
    f959:	41 ff 14 df          	callq  *(%r15,%rbx,8)
    f95d:	48 83 c3 01          	add    $0x1,%rbx
    f961:	48 39 dd             	cmp    %rbx,%rbp
    f964:	75 ea                	jne    f950 <__libc_csu_init+0x40>
    f966:	48 83 c4 08          	add    $0x8,%rsp
    f96a:	5b                   	pop    %rbx
    f96b:	5d                   	pop    %rbp
    f96c:	41 5c                	pop    %r12
    f96e:	41 5d                	pop    %r13
    f970:	41 5e                	pop    %r14
    f972:	41 5f                	pop    %r15
    f974:	c3                   	retq   
    f975:	66 66 2e 0f 1f 84 00 	data16 nopw %cs:0x0(%rax,%rax,1)
    f97c:	00 00 00 00 

000000000000f980 <__libc_csu_fini>:
    f980:	f3 0f 1e fa          	endbr64 
    f984:	c3                   	retq   
