


Disassembly of section .text:

00000000000090a0 <_start>:
    90a0:	f3 0f 1e fa          	endbr64 
    90a4:	31 ed                	xor    %ebp,%ebp
    90a6:	49 89 d1             	mov    %rdx,%r9
    90a9:	5e                   	pop    %rsi
    90aa:	48 89 e2             	mov    %rsp,%rdx
    90ad:	48 83 e4 f0          	and    $0xfffffffffffffff0,%rsp
    90b1:	50                   	push   %rax
    90b2:	54                   	push   %rsp
    90b3:	4c 8d 05 26 cc 00 00 	lea    0xcc26(%rip),%r8        # 15ce0 <__libc_csu_fini>
    90ba:	48 8d 0d af cb 00 00 	lea    0xcbaf(%rip),%rcx        # 15c70 <__libc_csu_init>
    90c1:	48 8d 3d d8 b3 00 00 	lea    0xb3d8(%rip),%rdi        # 144a0 <main>
    90c8:	ff 15 fa 1e 01 00    	callq  *0x11efa(%rip)        # 1afc8 <__libc_start_main@GLIBC_2.2.5>
    90ce:	f4                   	hlt    
    90cf:	90                   	nop

00000000000090d0 <deregister_tm_clones>:
    90d0:	48 8d 3d 11 6f 01 00 	lea    0x16f11(%rip),%rdi        # 1ffe8 <__TMC_END__>
    90d7:	48 8d 05 0a 6f 01 00 	lea    0x16f0a(%rip),%rax        # 1ffe8 <__TMC_END__>
    90de:	48 39 f8             	cmp    %rdi,%rax
    90e1:	74 15                	je     90f8 <deregister_tm_clones+0x28>
    90e3:	48 8b 05 d6 1e 01 00 	mov    0x11ed6(%rip),%rax        # 1afc0 <_ITM_deregisterTMCloneTable>
    90ea:	48 85 c0             	test   %rax,%rax
    90ed:	74 09                	je     90f8 <deregister_tm_clones+0x28>
    90ef:	ff e0                	jmpq   *%rax
    90f1:	0f 1f 80 00 00 00 00 	nopl   0x0(%rax)
    90f8:	c3                   	retq   
    90f9:	0f 1f 80 00 00 00 00 	nopl   0x0(%rax)

0000000000009100 <register_tm_clones>:
    9100:	48 8d 3d e1 6e 01 00 	lea    0x16ee1(%rip),%rdi        # 1ffe8 <__TMC_END__>
    9107:	48 8d 35 da 6e 01 00 	lea    0x16eda(%rip),%rsi        # 1ffe8 <__TMC_END__>
    910e:	48 29 fe             	sub    %rdi,%rsi
    9111:	48 89 f0             	mov    %rsi,%rax
    9114:	48 c1 ee 3f          	shr    $0x3f,%rsi
    9118:	48 c1 f8 03          	sar    $0x3,%rax
    911c:	48 01 c6             	add    %rax,%rsi
    911f:	48 d1 fe             	sar    %rsi
    9122:	74 14                	je     9138 <register_tm_clones+0x38>
    9124:	48 8b 05 ad 1e 01 00 	mov    0x11ead(%rip),%rax        # 1afd8 <_ITM_registerTMCloneTable>
    912b:	48 85 c0             	test   %rax,%rax
    912e:	74 08                	je     9138 <register_tm_clones+0x38>
    9130:	ff e0                	jmpq   *%rax
    9132:	66 0f 1f 44 00 00    	nopw   0x0(%rax,%rax,1)
    9138:	c3                   	retq   
    9139:	0f 1f 80 00 00 00 00 	nopl   0x0(%rax)

0000000000009140 <__do_global_dtors_aux>:
    9140:	f3 0f 1e fa          	endbr64 
    9144:	80 3d b5 6e 01 00 00 	cmpb   $0x0,0x16eb5(%rip)        # 20000 <completed.8061>
    914b:	75 2b                	jne    9178 <__do_global_dtors_aux+0x38>
    914d:	55                   	push   %rbp
    914e:	48 83 3d 8a 1e 01 00 	cmpq   $0x0,0x11e8a(%rip)        # 1afe0 <__cxa_finalize@GLIBC_2.2.5>
    9155:	00 
    9156:	48 89 e5             	mov    %rsp,%rbp
    9159:	74 0c                	je     9167 <__do_global_dtors_aux+0x27>
    915b:	48 8b 3d a6 1e 01 00 	mov    0x11ea6(%rip),%rdi        # 1b008 <__dso_handle>
    9162:	e8 f9 fe ff ff       	callq  9060 <__cxa_finalize@plt>
    9167:	e8 64 ff ff ff       	callq  90d0 <deregister_tm_clones>
    916c:	c6 05 8d 6e 01 00 01 	movb   $0x1,0x16e8d(%rip)        # 20000 <completed.8061>
    9173:	5d                   	pop    %rbp
    9174:	c3                   	retq   
    9175:	0f 1f 00             	nopl   (%rax)
    9178:	c3                   	retq   
    9179:	0f 1f 80 00 00 00 00 	nopl   0x0(%rax)

0000000000009180 <frame_dummy>:
    9180:	f3 0f 1e fa          	endbr64 
    9184:	e9 77 ff ff ff       	jmpq   9100 <register_tm_clones>

0000000000009189 <platform_main_begin>:
    9189:	f3 0f 1e fa          	endbr64 
    918d:	55                   	push   %rbp
    918e:	48 89 e5             	mov    %rsp,%rbp
    9191:	90                   	nop
    9192:	5d                   	pop    %rbp
    9193:	c3                   	retq   

0000000000009194 <platform_main_end>:
    9194:	f3 0f 1e fa          	endbr64 
    9198:	55                   	push   %rbp
    9199:	48 89 e5             	mov    %rsp,%rbp
    919c:	48 83 ec 10          	sub    $0x10,%rsp
    91a0:	89 7d fc             	mov    %edi,-0x4(%rbp)
    91a3:	89 75 f8             	mov    %esi,-0x8(%rbp)
    91a6:	8b 45 fc             	mov    -0x4(%rbp),%eax
    91a9:	89 c6                	mov    %eax,%esi
    91ab:	48 8d 3d 6e ce 00 00 	lea    0xce6e(%rip),%rdi        # 16020 <_IO_stdin_used+0x20>
    91b2:	b8 00 00 00 00       	mov    $0x0,%eax
    91b7:	e8 c4 fe ff ff       	callq  9080 <printf@plt>
    91bc:	90                   	nop
    91bd:	c9                   	leaveq 
    91be:	c3                   	retq   

00000000000091bf <safe_unary_minus_func_int8_t_s>:
    91bf:	f3 0f 1e fa          	endbr64 
    91c3:	55                   	push   %rbp
    91c4:	48 89 e5             	mov    %rsp,%rbp
    91c7:	89 f8                	mov    %edi,%eax
    91c9:	88 45 fc             	mov    %al,-0x4(%rbp)
    91cc:	0f b6 45 fc          	movzbl -0x4(%rbp),%eax
    91d0:	f7 d8                	neg    %eax
    91d2:	5d                   	pop    %rbp
    91d3:	c3                   	retq   

00000000000091d4 <safe_add_func_int8_t_s_s>:
    91d4:	f3 0f 1e fa          	endbr64 
    91d8:	55                   	push   %rbp
    91d9:	48 89 e5             	mov    %rsp,%rbp
    91dc:	89 fa                	mov    %edi,%edx
    91de:	89 f0                	mov    %esi,%eax
    91e0:	88 55 fc             	mov    %dl,-0x4(%rbp)
    91e3:	88 45 f8             	mov    %al,-0x8(%rbp)
    91e6:	0f b6 55 fc          	movzbl -0x4(%rbp),%edx
    91ea:	0f b6 45 f8          	movzbl -0x8(%rbp),%eax
    91ee:	01 d0                	add    %edx,%eax
    91f0:	5d                   	pop    %rbp
    91f1:	c3                   	retq   

00000000000091f2 <safe_sub_func_int8_t_s_s>:
    91f2:	f3 0f 1e fa          	endbr64 
    91f6:	55                   	push   %rbp
    91f7:	48 89 e5             	mov    %rsp,%rbp
    91fa:	89 fa                	mov    %edi,%edx
    91fc:	89 f0                	mov    %esi,%eax
    91fe:	88 55 fc             	mov    %dl,-0x4(%rbp)
    9201:	88 45 f8             	mov    %al,-0x8(%rbp)
    9204:	0f b6 55 fc          	movzbl -0x4(%rbp),%edx
    9208:	0f b6 45 f8          	movzbl -0x8(%rbp),%eax
    920c:	29 c2                	sub    %eax,%edx
    920e:	89 d0                	mov    %edx,%eax
    9210:	5d                   	pop    %rbp
    9211:	c3                   	retq   

0000000000009212 <safe_mul_func_int8_t_s_s>:
    9212:	f3 0f 1e fa          	endbr64 
    9216:	55                   	push   %rbp
    9217:	48 89 e5             	mov    %rsp,%rbp
    921a:	89 fa                	mov    %edi,%edx
    921c:	89 f0                	mov    %esi,%eax
    921e:	88 55 fc             	mov    %dl,-0x4(%rbp)
    9221:	88 45 f8             	mov    %al,-0x8(%rbp)
    9224:	0f b6 45 fc          	movzbl -0x4(%rbp),%eax
    9228:	0f b6 55 f8          	movzbl -0x8(%rbp),%edx
    922c:	0f af c2             	imul   %edx,%eax
    922f:	5d                   	pop    %rbp
    9230:	c3                   	retq   

0000000000009231 <safe_mod_func_int8_t_s_s>:
    9231:	f3 0f 1e fa          	endbr64 
    9235:	55                   	push   %rbp
    9236:	48 89 e5             	mov    %rsp,%rbp
    9239:	89 fa                	mov    %edi,%edx
    923b:	89 f0                	mov    %esi,%eax
    923d:	88 55 fc             	mov    %dl,-0x4(%rbp)
    9240:	88 45 f8             	mov    %al,-0x8(%rbp)
    9243:	80 7d f8 00          	cmpb   $0x0,-0x8(%rbp)
    9247:	74 1b                	je     9264 <safe_mod_func_int8_t_s_s+0x33>
    9249:	80 7d fc 80          	cmpb   $0x80,-0x4(%rbp)
    924d:	75 06                	jne    9255 <safe_mod_func_int8_t_s_s+0x24>
    924f:	80 7d f8 ff          	cmpb   $0xff,-0x8(%rbp)
    9253:	74 0f                	je     9264 <safe_mod_func_int8_t_s_s+0x33>
    9255:	0f be 45 fc          	movsbl -0x4(%rbp),%eax
    9259:	0f be 4d f8          	movsbl -0x8(%rbp),%ecx
    925d:	99                   	cltd   
    925e:	f7 f9                	idiv   %ecx
    9260:	89 d0                	mov    %edx,%eax
    9262:	eb 04                	jmp    9268 <safe_mod_func_int8_t_s_s+0x37>
    9264:	0f b6 45 fc          	movzbl -0x4(%rbp),%eax
    9268:	5d                   	pop    %rbp
    9269:	c3                   	retq   

000000000000926a <safe_div_func_int8_t_s_s>:
    926a:	f3 0f 1e fa          	endbr64 
    926e:	55                   	push   %rbp
    926f:	48 89 e5             	mov    %rsp,%rbp
    9272:	89 fa                	mov    %edi,%edx
    9274:	89 f0                	mov    %esi,%eax
    9276:	88 55 fc             	mov    %dl,-0x4(%rbp)
    9279:	88 45 f8             	mov    %al,-0x8(%rbp)
    927c:	80 7d f8 00          	cmpb   $0x0,-0x8(%rbp)
    9280:	74 19                	je     929b <safe_div_func_int8_t_s_s+0x31>
    9282:	80 7d fc 80          	cmpb   $0x80,-0x4(%rbp)
    9286:	75 06                	jne    928e <safe_div_func_int8_t_s_s+0x24>
    9288:	80 7d f8 ff          	cmpb   $0xff,-0x8(%rbp)
    928c:	74 0d                	je     929b <safe_div_func_int8_t_s_s+0x31>
    928e:	0f be 45 fc          	movsbl -0x4(%rbp),%eax
    9292:	0f be 4d f8          	movsbl -0x8(%rbp),%ecx
    9296:	99                   	cltd   
    9297:	f7 f9                	idiv   %ecx
    9299:	eb 04                	jmp    929f <safe_div_func_int8_t_s_s+0x35>
    929b:	0f b6 45 fc          	movzbl -0x4(%rbp),%eax
    929f:	5d                   	pop    %rbp
    92a0:	c3                   	retq   

00000000000092a1 <safe_lshift_func_int8_t_s_s>:
    92a1:	f3 0f 1e fa          	endbr64 
    92a5:	55                   	push   %rbp
    92a6:	48 89 e5             	mov    %rsp,%rbp
    92a9:	89 f8                	mov    %edi,%eax
    92ab:	89 75 f8             	mov    %esi,-0x8(%rbp)
    92ae:	88 45 fc             	mov    %al,-0x4(%rbp)
    92b1:	80 7d fc 00          	cmpb   $0x0,-0x4(%rbp)
    92b5:	78 31                	js     92e8 <safe_lshift_func_int8_t_s_s+0x47>
    92b7:	83 7d f8 00          	cmpl   $0x0,-0x8(%rbp)
    92bb:	78 2b                	js     92e8 <safe_lshift_func_int8_t_s_s+0x47>
    92bd:	83 7d f8 1f          	cmpl   $0x1f,-0x8(%rbp)
    92c1:	7f 25                	jg     92e8 <safe_lshift_func_int8_t_s_s+0x47>
    92c3:	0f be 55 fc          	movsbl -0x4(%rbp),%edx
    92c7:	8b 45 f8             	mov    -0x8(%rbp),%eax
    92ca:	be 7f 00 00 00       	mov    $0x7f,%esi
    92cf:	89 c1                	mov    %eax,%ecx
    92d1:	d3 fe                	sar    %cl,%esi
    92d3:	89 f0                	mov    %esi,%eax
    92d5:	39 c2                	cmp    %eax,%edx
    92d7:	7f 0f                	jg     92e8 <safe_lshift_func_int8_t_s_s+0x47>
    92d9:	0f be 55 fc          	movsbl -0x4(%rbp),%edx
    92dd:	8b 45 f8             	mov    -0x8(%rbp),%eax
    92e0:	89 c1                	mov    %eax,%ecx
    92e2:	d3 e2                	shl    %cl,%edx
    92e4:	89 d0                	mov    %edx,%eax
    92e6:	eb 04                	jmp    92ec <safe_lshift_func_int8_t_s_s+0x4b>
    92e8:	0f b6 45 fc          	movzbl -0x4(%rbp),%eax
    92ec:	5d                   	pop    %rbp
    92ed:	c3                   	retq   

00000000000092ee <safe_lshift_func_int8_t_s_u>:
    92ee:	f3 0f 1e fa          	endbr64 
    92f2:	55                   	push   %rbp
    92f3:	48 89 e5             	mov    %rsp,%rbp
    92f6:	89 f8                	mov    %edi,%eax
    92f8:	89 75 f8             	mov    %esi,-0x8(%rbp)
    92fb:	88 45 fc             	mov    %al,-0x4(%rbp)
    92fe:	80 7d fc 00          	cmpb   $0x0,-0x4(%rbp)
    9302:	78 2b                	js     932f <safe_lshift_func_int8_t_s_u+0x41>
    9304:	83 7d f8 1f          	cmpl   $0x1f,-0x8(%rbp)
    9308:	77 25                	ja     932f <safe_lshift_func_int8_t_s_u+0x41>
    930a:	0f be 55 fc          	movsbl -0x4(%rbp),%edx
    930e:	8b 45 f8             	mov    -0x8(%rbp),%eax
    9311:	be 7f 00 00 00       	mov    $0x7f,%esi
    9316:	89 c1                	mov    %eax,%ecx
    9318:	d3 fe                	sar    %cl,%esi
    931a:	89 f0                	mov    %esi,%eax
    931c:	39 c2                	cmp    %eax,%edx
    931e:	7f 0f                	jg     932f <safe_lshift_func_int8_t_s_u+0x41>
    9320:	0f be 55 fc          	movsbl -0x4(%rbp),%edx
    9324:	8b 45 f8             	mov    -0x8(%rbp),%eax
    9327:	89 c1                	mov    %eax,%ecx
    9329:	d3 e2                	shl    %cl,%edx
    932b:	89 d0                	mov    %edx,%eax
    932d:	eb 04                	jmp    9333 <safe_lshift_func_int8_t_s_u+0x45>
    932f:	0f b6 45 fc          	movzbl -0x4(%rbp),%eax
    9333:	5d                   	pop    %rbp
    9334:	c3                   	retq   

0000000000009335 <safe_rshift_func_int8_t_s_s>:
    9335:	f3 0f 1e fa          	endbr64 
    9339:	55                   	push   %rbp
    933a:	48 89 e5             	mov    %rsp,%rbp
    933d:	89 f8                	mov    %edi,%eax
    933f:	89 75 f8             	mov    %esi,-0x8(%rbp)
    9342:	88 45 fc             	mov    %al,-0x4(%rbp)
    9345:	80 7d fc 00          	cmpb   $0x0,-0x4(%rbp)
    9349:	78 1b                	js     9366 <safe_rshift_func_int8_t_s_s+0x31>
    934b:	83 7d f8 00          	cmpl   $0x0,-0x8(%rbp)
    934f:	78 15                	js     9366 <safe_rshift_func_int8_t_s_s+0x31>
    9351:	83 7d f8 1f          	cmpl   $0x1f,-0x8(%rbp)
    9355:	7f 0f                	jg     9366 <safe_rshift_func_int8_t_s_s+0x31>
    9357:	0f be 55 fc          	movsbl -0x4(%rbp),%edx
    935b:	8b 45 f8             	mov    -0x8(%rbp),%eax
    935e:	89 c1                	mov    %eax,%ecx
    9360:	d3 fa                	sar    %cl,%edx
    9362:	89 d0                	mov    %edx,%eax
    9364:	eb 04                	jmp    936a <safe_rshift_func_int8_t_s_s+0x35>
    9366:	0f b6 45 fc          	movzbl -0x4(%rbp),%eax
    936a:	5d                   	pop    %rbp
    936b:	c3                   	retq   

000000000000936c <safe_rshift_func_int8_t_s_u>:
    936c:	f3 0f 1e fa          	endbr64 
    9370:	55                   	push   %rbp
    9371:	48 89 e5             	mov    %rsp,%rbp
    9374:	89 f8                	mov    %edi,%eax
    9376:	89 75 f8             	mov    %esi,-0x8(%rbp)
    9379:	88 45 fc             	mov    %al,-0x4(%rbp)
    937c:	80 7d fc 00          	cmpb   $0x0,-0x4(%rbp)
    9380:	78 15                	js     9397 <safe_rshift_func_int8_t_s_u+0x2b>
    9382:	83 7d f8 1f          	cmpl   $0x1f,-0x8(%rbp)
    9386:	77 0f                	ja     9397 <safe_rshift_func_int8_t_s_u+0x2b>
    9388:	0f be 55 fc          	movsbl -0x4(%rbp),%edx
    938c:	8b 45 f8             	mov    -0x8(%rbp),%eax
    938f:	89 c1                	mov    %eax,%ecx
    9391:	d3 fa                	sar    %cl,%edx
    9393:	89 d0                	mov    %edx,%eax
    9395:	eb 04                	jmp    939b <safe_rshift_func_int8_t_s_u+0x2f>
    9397:	0f b6 45 fc          	movzbl -0x4(%rbp),%eax
    939b:	5d                   	pop    %rbp
    939c:	c3                   	retq   

000000000000939d <safe_unary_minus_func_int16_t_s>:
    939d:	f3 0f 1e fa          	endbr64 
    93a1:	55                   	push   %rbp
    93a2:	48 89 e5             	mov    %rsp,%rbp
    93a5:	89 f8                	mov    %edi,%eax
    93a7:	66 89 45 fc          	mov    %ax,-0x4(%rbp)
    93ab:	0f b7 45 fc          	movzwl -0x4(%rbp),%eax
    93af:	f7 d8                	neg    %eax
    93b1:	5d                   	pop    %rbp
    93b2:	c3                   	retq   

00000000000093b3 <safe_add_func_int16_t_s_s>:
    93b3:	f3 0f 1e fa          	endbr64 
    93b7:	55                   	push   %rbp
    93b8:	48 89 e5             	mov    %rsp,%rbp
    93bb:	89 fa                	mov    %edi,%edx
    93bd:	89 f0                	mov    %esi,%eax
    93bf:	66 89 55 fc          	mov    %dx,-0x4(%rbp)
    93c3:	66 89 45 f8          	mov    %ax,-0x8(%rbp)
    93c7:	0f b7 55 fc          	movzwl -0x4(%rbp),%edx
    93cb:	0f b7 45 f8          	movzwl -0x8(%rbp),%eax
    93cf:	01 d0                	add    %edx,%eax
    93d1:	5d                   	pop    %rbp
    93d2:	c3                   	retq   

00000000000093d3 <safe_sub_func_int16_t_s_s>:
    93d3:	f3 0f 1e fa          	endbr64 
    93d7:	55                   	push   %rbp
    93d8:	48 89 e5             	mov    %rsp,%rbp
    93db:	89 fa                	mov    %edi,%edx
    93dd:	89 f0                	mov    %esi,%eax
    93df:	66 89 55 fc          	mov    %dx,-0x4(%rbp)
    93e3:	66 89 45 f8          	mov    %ax,-0x8(%rbp)
    93e7:	0f b7 55 fc          	movzwl -0x4(%rbp),%edx
    93eb:	0f b7 45 f8          	movzwl -0x8(%rbp),%eax
    93ef:	29 c2                	sub    %eax,%edx
    93f1:	89 d0                	mov    %edx,%eax
    93f3:	5d                   	pop    %rbp
    93f4:	c3                   	retq   

00000000000093f5 <safe_mul_func_int16_t_s_s>:
    93f5:	f3 0f 1e fa          	endbr64 
    93f9:	55                   	push   %rbp
    93fa:	48 89 e5             	mov    %rsp,%rbp
    93fd:	89 fa                	mov    %edi,%edx
    93ff:	89 f0                	mov    %esi,%eax
    9401:	66 89 55 fc          	mov    %dx,-0x4(%rbp)
    9405:	66 89 45 f8          	mov    %ax,-0x8(%rbp)
    9409:	0f b7 55 fc          	movzwl -0x4(%rbp),%edx
    940d:	0f b7 45 f8          	movzwl -0x8(%rbp),%eax
    9411:	0f af c2             	imul   %edx,%eax
    9414:	5d                   	pop    %rbp
    9415:	c3                   	retq   

0000000000009416 <safe_mod_func_int16_t_s_s>:
    9416:	f3 0f 1e fa          	endbr64 
    941a:	55                   	push   %rbp
    941b:	48 89 e5             	mov    %rsp,%rbp
    941e:	89 fa                	mov    %edi,%edx
    9420:	89 f0                	mov    %esi,%eax
    9422:	66 89 55 fc          	mov    %dx,-0x4(%rbp)
    9426:	66 89 45 f8          	mov    %ax,-0x8(%rbp)
    942a:	66 83 7d f8 00       	cmpw   $0x0,-0x8(%rbp)
    942f:	74 1e                	je     944f <safe_mod_func_int16_t_s_s+0x39>
    9431:	66 81 7d fc 00 80    	cmpw   $0x8000,-0x4(%rbp)
    9437:	75 07                	jne    9440 <safe_mod_func_int16_t_s_s+0x2a>
    9439:	66 83 7d f8 ff       	cmpw   $0xffff,-0x8(%rbp)
    943e:	74 0f                	je     944f <safe_mod_func_int16_t_s_s+0x39>
    9440:	0f bf 45 fc          	movswl -0x4(%rbp),%eax
    9444:	0f bf 4d f8          	movswl -0x8(%rbp),%ecx
    9448:	99                   	cltd   
    9449:	f7 f9                	idiv   %ecx
    944b:	89 d0                	mov    %edx,%eax
    944d:	eb 04                	jmp    9453 <safe_mod_func_int16_t_s_s+0x3d>
    944f:	0f b7 45 fc          	movzwl -0x4(%rbp),%eax
    9453:	5d                   	pop    %rbp
    9454:	c3                   	retq   

0000000000009455 <safe_div_func_int16_t_s_s>:
    9455:	f3 0f 1e fa          	endbr64 
    9459:	55                   	push   %rbp
    945a:	48 89 e5             	mov    %rsp,%rbp
    945d:	89 fa                	mov    %edi,%edx
    945f:	89 f0                	mov    %esi,%eax
    9461:	66 89 55 fc          	mov    %dx,-0x4(%rbp)
    9465:	66 89 45 f8          	mov    %ax,-0x8(%rbp)
    9469:	66 83 7d f8 00       	cmpw   $0x0,-0x8(%rbp)
    946e:	74 1c                	je     948c <safe_div_func_int16_t_s_s+0x37>
    9470:	66 81 7d fc 00 80    	cmpw   $0x8000,-0x4(%rbp)
    9476:	75 07                	jne    947f <safe_div_func_int16_t_s_s+0x2a>
    9478:	66 83 7d f8 ff       	cmpw   $0xffff,-0x8(%rbp)
    947d:	74 0d                	je     948c <safe_div_func_int16_t_s_s+0x37>
    947f:	0f bf 45 fc          	movswl -0x4(%rbp),%eax
    9483:	0f bf 4d f8          	movswl -0x8(%rbp),%ecx
    9487:	99                   	cltd   
    9488:	f7 f9                	idiv   %ecx
    948a:	eb 04                	jmp    9490 <safe_div_func_int16_t_s_s+0x3b>
    948c:	0f b7 45 fc          	movzwl -0x4(%rbp),%eax
    9490:	5d                   	pop    %rbp
    9491:	c3                   	retq   

0000000000009492 <safe_lshift_func_int16_t_s_s>:
    9492:	f3 0f 1e fa          	endbr64 
    9496:	55                   	push   %rbp
    9497:	48 89 e5             	mov    %rsp,%rbp
    949a:	89 f8                	mov    %edi,%eax
    949c:	89 75 f8             	mov    %esi,-0x8(%rbp)
    949f:	66 89 45 fc          	mov    %ax,-0x4(%rbp)
    94a3:	66 83 7d fc 00       	cmpw   $0x0,-0x4(%rbp)
    94a8:	78 31                	js     94db <safe_lshift_func_int16_t_s_s+0x49>
    94aa:	83 7d f8 00          	cmpl   $0x0,-0x8(%rbp)
    94ae:	78 2b                	js     94db <safe_lshift_func_int16_t_s_s+0x49>
    94b0:	83 7d f8 1f          	cmpl   $0x1f,-0x8(%rbp)
    94b4:	7f 25                	jg     94db <safe_lshift_func_int16_t_s_s+0x49>
    94b6:	0f bf 55 fc          	movswl -0x4(%rbp),%edx
    94ba:	8b 45 f8             	mov    -0x8(%rbp),%eax
    94bd:	be ff 7f 00 00       	mov    $0x7fff,%esi
    94c2:	89 c1                	mov    %eax,%ecx
    94c4:	d3 fe                	sar    %cl,%esi
    94c6:	89 f0                	mov    %esi,%eax
    94c8:	39 c2                	cmp    %eax,%edx
    94ca:	7f 0f                	jg     94db <safe_lshift_func_int16_t_s_s+0x49>
    94cc:	0f bf 55 fc          	movswl -0x4(%rbp),%edx
    94d0:	8b 45 f8             	mov    -0x8(%rbp),%eax
    94d3:	89 c1                	mov    %eax,%ecx
    94d5:	d3 e2                	shl    %cl,%edx
    94d7:	89 d0                	mov    %edx,%eax
    94d9:	eb 04                	jmp    94df <safe_lshift_func_int16_t_s_s+0x4d>
    94db:	0f b7 45 fc          	movzwl -0x4(%rbp),%eax
    94df:	5d                   	pop    %rbp
    94e0:	c3                   	retq   

00000000000094e1 <safe_lshift_func_int16_t_s_u>:
    94e1:	f3 0f 1e fa          	endbr64 
    94e5:	55                   	push   %rbp
    94e6:	48 89 e5             	mov    %rsp,%rbp
    94e9:	89 f8                	mov    %edi,%eax
    94eb:	89 75 f8             	mov    %esi,-0x8(%rbp)
    94ee:	66 89 45 fc          	mov    %ax,-0x4(%rbp)
    94f2:	66 83 7d fc 00       	cmpw   $0x0,-0x4(%rbp)
    94f7:	78 2b                	js     9524 <safe_lshift_func_int16_t_s_u+0x43>
    94f9:	83 7d f8 1f          	cmpl   $0x1f,-0x8(%rbp)
    94fd:	77 25                	ja     9524 <safe_lshift_func_int16_t_s_u+0x43>
    94ff:	0f bf 55 fc          	movswl -0x4(%rbp),%edx
    9503:	8b 45 f8             	mov    -0x8(%rbp),%eax
    9506:	be ff 7f 00 00       	mov    $0x7fff,%esi
    950b:	89 c1                	mov    %eax,%ecx
    950d:	d3 fe                	sar    %cl,%esi
    950f:	89 f0                	mov    %esi,%eax
    9511:	39 c2                	cmp    %eax,%edx
    9513:	7f 0f                	jg     9524 <safe_lshift_func_int16_t_s_u+0x43>
    9515:	0f bf 55 fc          	movswl -0x4(%rbp),%edx
    9519:	8b 45 f8             	mov    -0x8(%rbp),%eax
    951c:	89 c1                	mov    %eax,%ecx
    951e:	d3 e2                	shl    %cl,%edx
    9520:	89 d0                	mov    %edx,%eax
    9522:	eb 04                	jmp    9528 <safe_lshift_func_int16_t_s_u+0x47>
    9524:	0f b7 45 fc          	movzwl -0x4(%rbp),%eax
    9528:	5d                   	pop    %rbp
    9529:	c3                   	retq   

000000000000952a <safe_rshift_func_int16_t_s_s>:
    952a:	f3 0f 1e fa          	endbr64 
    952e:	55                   	push   %rbp
    952f:	48 89 e5             	mov    %rsp,%rbp
    9532:	89 f8                	mov    %edi,%eax
    9534:	89 75 f8             	mov    %esi,-0x8(%rbp)
    9537:	66 89 45 fc          	mov    %ax,-0x4(%rbp)
    953b:	66 83 7d fc 00       	cmpw   $0x0,-0x4(%rbp)
    9540:	78 1b                	js     955d <safe_rshift_func_int16_t_s_s+0x33>
    9542:	83 7d f8 00          	cmpl   $0x0,-0x8(%rbp)
    9546:	78 15                	js     955d <safe_rshift_func_int16_t_s_s+0x33>
    9548:	83 7d f8 1f          	cmpl   $0x1f,-0x8(%rbp)
    954c:	7f 0f                	jg     955d <safe_rshift_func_int16_t_s_s+0x33>
    954e:	0f bf 55 fc          	movswl -0x4(%rbp),%edx
    9552:	8b 45 f8             	mov    -0x8(%rbp),%eax
    9555:	89 c1                	mov    %eax,%ecx
    9557:	d3 fa                	sar    %cl,%edx
    9559:	89 d0                	mov    %edx,%eax
    955b:	eb 04                	jmp    9561 <safe_rshift_func_int16_t_s_s+0x37>
    955d:	0f b7 45 fc          	movzwl -0x4(%rbp),%eax
    9561:	5d                   	pop    %rbp
    9562:	c3                   	retq   

0000000000009563 <safe_rshift_func_int16_t_s_u>:
    9563:	f3 0f 1e fa          	endbr64 
    9567:	55                   	push   %rbp
    9568:	48 89 e5             	mov    %rsp,%rbp
    956b:	89 f8                	mov    %edi,%eax
    956d:	89 75 f8             	mov    %esi,-0x8(%rbp)
    9570:	66 89 45 fc          	mov    %ax,-0x4(%rbp)
    9574:	66 83 7d fc 00       	cmpw   $0x0,-0x4(%rbp)
    9579:	78 15                	js     9590 <safe_rshift_func_int16_t_s_u+0x2d>
    957b:	83 7d f8 1f          	cmpl   $0x1f,-0x8(%rbp)
    957f:	77 0f                	ja     9590 <safe_rshift_func_int16_t_s_u+0x2d>
    9581:	0f bf 55 fc          	movswl -0x4(%rbp),%edx
    9585:	8b 45 f8             	mov    -0x8(%rbp),%eax
    9588:	89 c1                	mov    %eax,%ecx
    958a:	d3 fa                	sar    %cl,%edx
    958c:	89 d0                	mov    %edx,%eax
    958e:	eb 04                	jmp    9594 <safe_rshift_func_int16_t_s_u+0x31>
    9590:	0f b7 45 fc          	movzwl -0x4(%rbp),%eax
    9594:	5d                   	pop    %rbp
    9595:	c3                   	retq   

0000000000009596 <safe_unary_minus_func_int32_t_s>:
    9596:	f3 0f 1e fa          	endbr64 
    959a:	55                   	push   %rbp
    959b:	48 89 e5             	mov    %rsp,%rbp
    959e:	89 7d fc             	mov    %edi,-0x4(%rbp)
    95a1:	81 7d fc 00 00 00 80 	cmpl   $0x80000000,-0x4(%rbp)
    95a8:	74 07                	je     95b1 <safe_unary_minus_func_int32_t_s+0x1b>
    95aa:	8b 45 fc             	mov    -0x4(%rbp),%eax
    95ad:	f7 d8                	neg    %eax
    95af:	eb 03                	jmp    95b4 <safe_unary_minus_func_int32_t_s+0x1e>
    95b1:	8b 45 fc             	mov    -0x4(%rbp),%eax
    95b4:	5d                   	pop    %rbp
    95b5:	c3                   	retq   

00000000000095b6 <safe_add_func_int32_t_s_s>:
    95b6:	f3 0f 1e fa          	endbr64 
    95ba:	55                   	push   %rbp
    95bb:	48 89 e5             	mov    %rsp,%rbp
    95be:	89 7d fc             	mov    %edi,-0x4(%rbp)
    95c1:	89 75 f8             	mov    %esi,-0x8(%rbp)
    95c4:	83 7d fc 00          	cmpl   $0x0,-0x4(%rbp)
    95c8:	7e 13                	jle    95dd <safe_add_func_int32_t_s_s+0x27>
    95ca:	83 7d f8 00          	cmpl   $0x0,-0x8(%rbp)
    95ce:	7e 0d                	jle    95dd <safe_add_func_int32_t_s_s+0x27>
    95d0:	b8 ff ff ff 7f       	mov    $0x7fffffff,%eax
    95d5:	2b 45 f8             	sub    -0x8(%rbp),%eax
    95d8:	39 45 fc             	cmp    %eax,-0x4(%rbp)
    95db:	7f 23                	jg     9600 <safe_add_func_int32_t_s_s+0x4a>
    95dd:	83 7d fc 00          	cmpl   $0x0,-0x4(%rbp)
    95e1:	79 13                	jns    95f6 <safe_add_func_int32_t_s_s+0x40>
    95e3:	83 7d f8 00          	cmpl   $0x0,-0x8(%rbp)
    95e7:	79 0d                	jns    95f6 <safe_add_func_int32_t_s_s+0x40>
    95e9:	b8 00 00 00 80       	mov    $0x80000000,%eax
    95ee:	2b 45 f8             	sub    -0x8(%rbp),%eax
    95f1:	39 45 fc             	cmp    %eax,-0x4(%rbp)
    95f4:	7c 0a                	jl     9600 <safe_add_func_int32_t_s_s+0x4a>
    95f6:	8b 55 fc             	mov    -0x4(%rbp),%edx
    95f9:	8b 45 f8             	mov    -0x8(%rbp),%eax
    95fc:	01 d0                	add    %edx,%eax
    95fe:	eb 03                	jmp    9603 <safe_add_func_int32_t_s_s+0x4d>
    9600:	8b 45 fc             	mov    -0x4(%rbp),%eax
    9603:	5d                   	pop    %rbp
    9604:	c3                   	retq   

0000000000009605 <safe_sub_func_int32_t_s_s>:
    9605:	f3 0f 1e fa          	endbr64 
    9609:	55                   	push   %rbp
    960a:	48 89 e5             	mov    %rsp,%rbp
    960d:	89 7d fc             	mov    %edi,-0x4(%rbp)
    9610:	89 75 f8             	mov    %esi,-0x8(%rbp)
    9613:	8b 45 fc             	mov    -0x4(%rbp),%eax
    9616:	33 45 f8             	xor    -0x8(%rbp),%eax
    9619:	89 c2                	mov    %eax,%edx
    961b:	8b 45 fc             	mov    -0x4(%rbp),%eax
    961e:	33 45 f8             	xor    -0x8(%rbp),%eax
    9621:	25 00 00 00 80       	and    $0x80000000,%eax
    9626:	33 45 fc             	xor    -0x4(%rbp),%eax
    9629:	2b 45 f8             	sub    -0x8(%rbp),%eax
    962c:	33 45 f8             	xor    -0x8(%rbp),%eax
    962f:	21 d0                	and    %edx,%eax
    9631:	85 c0                	test   %eax,%eax
    9633:	78 08                	js     963d <safe_sub_func_int32_t_s_s+0x38>
    9635:	8b 45 fc             	mov    -0x4(%rbp),%eax
    9638:	2b 45 f8             	sub    -0x8(%rbp),%eax
    963b:	eb 03                	jmp    9640 <safe_sub_func_int32_t_s_s+0x3b>
    963d:	8b 45 fc             	mov    -0x4(%rbp),%eax
    9640:	5d                   	pop    %rbp
    9641:	c3                   	retq   

0000000000009642 <safe_mul_func_int32_t_s_s>:
    9642:	f3 0f 1e fa          	endbr64 
    9646:	55                   	push   %rbp
    9647:	48 89 e5             	mov    %rsp,%rbp
    964a:	89 7d fc             	mov    %edi,-0x4(%rbp)
    964d:	89 75 f8             	mov    %esi,-0x8(%rbp)
    9650:	83 7d fc 00          	cmpl   $0x0,-0x4(%rbp)
    9654:	7e 14                	jle    966a <safe_mul_func_int32_t_s_s+0x28>
    9656:	83 7d f8 00          	cmpl   $0x0,-0x8(%rbp)
    965a:	7e 0e                	jle    966a <safe_mul_func_int32_t_s_s+0x28>
    965c:	b8 ff ff ff 7f       	mov    $0x7fffffff,%eax
    9661:	99                   	cltd   
    9662:	f7 7d f8             	idivl  -0x8(%rbp)
    9665:	39 45 fc             	cmp    %eax,-0x4(%rbp)
    9668:	7f 5d                	jg     96c7 <safe_mul_func_int32_t_s_s+0x85>
    966a:	83 7d fc 00          	cmpl   $0x0,-0x4(%rbp)
    966e:	7e 14                	jle    9684 <safe_mul_func_int32_t_s_s+0x42>
    9670:	83 7d f8 00          	cmpl   $0x0,-0x8(%rbp)
    9674:	7f 0e                	jg     9684 <safe_mul_func_int32_t_s_s+0x42>
    9676:	b8 00 00 00 80       	mov    $0x80000000,%eax
    967b:	99                   	cltd   
    967c:	f7 7d fc             	idivl  -0x4(%rbp)
    967f:	39 45 f8             	cmp    %eax,-0x8(%rbp)
    9682:	7c 43                	jl     96c7 <safe_mul_func_int32_t_s_s+0x85>
    9684:	83 7d fc 00          	cmpl   $0x0,-0x4(%rbp)
    9688:	7f 14                	jg     969e <safe_mul_func_int32_t_s_s+0x5c>
    968a:	83 7d f8 00          	cmpl   $0x0,-0x8(%rbp)
    968e:	7e 0e                	jle    969e <safe_mul_func_int32_t_s_s+0x5c>
    9690:	b8 00 00 00 80       	mov    $0x80000000,%eax
    9695:	99                   	cltd   
    9696:	f7 7d f8             	idivl  -0x8(%rbp)
    9699:	39 45 fc             	cmp    %eax,-0x4(%rbp)
    969c:	7c 29                	jl     96c7 <safe_mul_func_int32_t_s_s+0x85>
    969e:	83 7d fc 00          	cmpl   $0x0,-0x4(%rbp)
    96a2:	7f 1a                	jg     96be <safe_mul_func_int32_t_s_s+0x7c>
    96a4:	83 7d f8 00          	cmpl   $0x0,-0x8(%rbp)
    96a8:	7f 14                	jg     96be <safe_mul_func_int32_t_s_s+0x7c>
    96aa:	83 7d fc 00          	cmpl   $0x0,-0x4(%rbp)
    96ae:	74 0e                	je     96be <safe_mul_func_int32_t_s_s+0x7c>
    96b0:	b8 ff ff ff 7f       	mov    $0x7fffffff,%eax
    96b5:	99                   	cltd   
    96b6:	f7 7d fc             	idivl  -0x4(%rbp)
    96b9:	39 45 f8             	cmp    %eax,-0x8(%rbp)
    96bc:	7c 09                	jl     96c7 <safe_mul_func_int32_t_s_s+0x85>
    96be:	8b 45 fc             	mov    -0x4(%rbp),%eax
    96c1:	0f af 45 f8          	imul   -0x8(%rbp),%eax
    96c5:	eb 03                	jmp    96ca <safe_mul_func_int32_t_s_s+0x88>
    96c7:	8b 45 fc             	mov    -0x4(%rbp),%eax
    96ca:	5d                   	pop    %rbp
    96cb:	c3                   	retq   

00000000000096cc <safe_mod_func_int32_t_s_s>:
    96cc:	f3 0f 1e fa          	endbr64 
    96d0:	55                   	push   %rbp
    96d1:	48 89 e5             	mov    %rsp,%rbp
    96d4:	89 7d fc             	mov    %edi,-0x4(%rbp)
    96d7:	89 75 f8             	mov    %esi,-0x8(%rbp)
    96da:	83 7d f8 00          	cmpl   $0x0,-0x8(%rbp)
    96de:	74 1a                	je     96fa <safe_mod_func_int32_t_s_s+0x2e>
    96e0:	81 7d fc 00 00 00 80 	cmpl   $0x80000000,-0x4(%rbp)
    96e7:	75 06                	jne    96ef <safe_mod_func_int32_t_s_s+0x23>
    96e9:	83 7d f8 ff          	cmpl   $0xffffffff,-0x8(%rbp)
    96ed:	74 0b                	je     96fa <safe_mod_func_int32_t_s_s+0x2e>
    96ef:	8b 45 fc             	mov    -0x4(%rbp),%eax
    96f2:	99                   	cltd   
    96f3:	f7 7d f8             	idivl  -0x8(%rbp)
    96f6:	89 d0                	mov    %edx,%eax
    96f8:	eb 03                	jmp    96fd <safe_mod_func_int32_t_s_s+0x31>
    96fa:	8b 45 fc             	mov    -0x4(%rbp),%eax
    96fd:	5d                   	pop    %rbp
    96fe:	c3                   	retq   

00000000000096ff <safe_div_func_int32_t_s_s>:
    96ff:	f3 0f 1e fa          	endbr64 
    9703:	55                   	push   %rbp
    9704:	48 89 e5             	mov    %rsp,%rbp
    9707:	89 7d fc             	mov    %edi,-0x4(%rbp)
    970a:	89 75 f8             	mov    %esi,-0x8(%rbp)
    970d:	83 7d f8 00          	cmpl   $0x0,-0x8(%rbp)
    9711:	74 18                	je     972b <safe_div_func_int32_t_s_s+0x2c>
    9713:	81 7d fc 00 00 00 80 	cmpl   $0x80000000,-0x4(%rbp)
    971a:	75 06                	jne    9722 <safe_div_func_int32_t_s_s+0x23>
    971c:	83 7d f8 ff          	cmpl   $0xffffffff,-0x8(%rbp)
    9720:	74 09                	je     972b <safe_div_func_int32_t_s_s+0x2c>
    9722:	8b 45 fc             	mov    -0x4(%rbp),%eax
    9725:	99                   	cltd   
    9726:	f7 7d f8             	idivl  -0x8(%rbp)
    9729:	eb 03                	jmp    972e <safe_div_func_int32_t_s_s+0x2f>
    972b:	8b 45 fc             	mov    -0x4(%rbp),%eax
    972e:	5d                   	pop    %rbp
    972f:	c3                   	retq   

0000000000009730 <safe_lshift_func_int32_t_s_s>:
    9730:	f3 0f 1e fa          	endbr64 
    9734:	55                   	push   %rbp
    9735:	48 89 e5             	mov    %rsp,%rbp
    9738:	89 7d fc             	mov    %edi,-0x4(%rbp)
    973b:	89 75 f8             	mov    %esi,-0x8(%rbp)
    973e:	83 7d fc 00          	cmpl   $0x0,-0x4(%rbp)
    9742:	78 2d                	js     9771 <safe_lshift_func_int32_t_s_s+0x41>
    9744:	83 7d f8 00          	cmpl   $0x0,-0x8(%rbp)
    9748:	78 27                	js     9771 <safe_lshift_func_int32_t_s_s+0x41>
    974a:	83 7d f8 1f          	cmpl   $0x1f,-0x8(%rbp)
    974e:	7f 21                	jg     9771 <safe_lshift_func_int32_t_s_s+0x41>
    9750:	8b 45 f8             	mov    -0x8(%rbp),%eax
    9753:	ba ff ff ff 7f       	mov    $0x7fffffff,%edx
    9758:	89 c1                	mov    %eax,%ecx
    975a:	d3 fa                	sar    %cl,%edx
    975c:	89 d0                	mov    %edx,%eax
    975e:	39 45 fc             	cmp    %eax,-0x4(%rbp)
    9761:	7f 0e                	jg     9771 <safe_lshift_func_int32_t_s_s+0x41>
    9763:	8b 45 f8             	mov    -0x8(%rbp),%eax
    9766:	8b 55 fc             	mov    -0x4(%rbp),%edx
    9769:	89 c1                	mov    %eax,%ecx
    976b:	d3 e2                	shl    %cl,%edx
    976d:	89 d0                	mov    %edx,%eax
    976f:	eb 03                	jmp    9774 <safe_lshift_func_int32_t_s_s+0x44>
    9771:	8b 45 fc             	mov    -0x4(%rbp),%eax
    9774:	5d                   	pop    %rbp
    9775:	c3                   	retq   

0000000000009776 <safe_lshift_func_int32_t_s_u>:
    9776:	f3 0f 1e fa          	endbr64 
    977a:	55                   	push   %rbp
    977b:	48 89 e5             	mov    %rsp,%rbp
    977e:	89 7d fc             	mov    %edi,-0x4(%rbp)
    9781:	89 75 f8             	mov    %esi,-0x8(%rbp)
    9784:	83 7d fc 00          	cmpl   $0x0,-0x4(%rbp)
    9788:	78 27                	js     97b1 <safe_lshift_func_int32_t_s_u+0x3b>
    978a:	83 7d f8 1f          	cmpl   $0x1f,-0x8(%rbp)
    978e:	77 21                	ja     97b1 <safe_lshift_func_int32_t_s_u+0x3b>
    9790:	8b 45 f8             	mov    -0x8(%rbp),%eax
    9793:	ba ff ff ff 7f       	mov    $0x7fffffff,%edx
    9798:	89 c1                	mov    %eax,%ecx
    979a:	d3 fa                	sar    %cl,%edx
    979c:	89 d0                	mov    %edx,%eax
    979e:	39 45 fc             	cmp    %eax,-0x4(%rbp)
    97a1:	7f 0e                	jg     97b1 <safe_lshift_func_int32_t_s_u+0x3b>
    97a3:	8b 45 f8             	mov    -0x8(%rbp),%eax
    97a6:	8b 55 fc             	mov    -0x4(%rbp),%edx
    97a9:	89 c1                	mov    %eax,%ecx
    97ab:	d3 e2                	shl    %cl,%edx
    97ad:	89 d0                	mov    %edx,%eax
    97af:	eb 03                	jmp    97b4 <safe_lshift_func_int32_t_s_u+0x3e>
    97b1:	8b 45 fc             	mov    -0x4(%rbp),%eax
    97b4:	5d                   	pop    %rbp
    97b5:	c3                   	retq   

00000000000097b6 <safe_rshift_func_int32_t_s_s>:
    97b6:	f3 0f 1e fa          	endbr64 
    97ba:	55                   	push   %rbp
    97bb:	48 89 e5             	mov    %rsp,%rbp
    97be:	89 7d fc             	mov    %edi,-0x4(%rbp)
    97c1:	89 75 f8             	mov    %esi,-0x8(%rbp)
    97c4:	83 7d fc 00          	cmpl   $0x0,-0x4(%rbp)
    97c8:	78 1a                	js     97e4 <safe_rshift_func_int32_t_s_s+0x2e>
    97ca:	83 7d f8 00          	cmpl   $0x0,-0x8(%rbp)
    97ce:	78 14                	js     97e4 <safe_rshift_func_int32_t_s_s+0x2e>
    97d0:	83 7d f8 1f          	cmpl   $0x1f,-0x8(%rbp)
    97d4:	7f 0e                	jg     97e4 <safe_rshift_func_int32_t_s_s+0x2e>
    97d6:	8b 45 f8             	mov    -0x8(%rbp),%eax
    97d9:	8b 55 fc             	mov    -0x4(%rbp),%edx
    97dc:	89 c1                	mov    %eax,%ecx
    97de:	d3 fa                	sar    %cl,%edx
    97e0:	89 d0                	mov    %edx,%eax
    97e2:	eb 03                	jmp    97e7 <safe_rshift_func_int32_t_s_s+0x31>
    97e4:	8b 45 fc             	mov    -0x4(%rbp),%eax
    97e7:	5d                   	pop    %rbp
    97e8:	c3                   	retq   

00000000000097e9 <safe_rshift_func_int32_t_s_u>:
    97e9:	f3 0f 1e fa          	endbr64 
    97ed:	55                   	push   %rbp
    97ee:	48 89 e5             	mov    %rsp,%rbp
    97f1:	89 7d fc             	mov    %edi,-0x4(%rbp)
    97f4:	89 75 f8             	mov    %esi,-0x8(%rbp)
    97f7:	83 7d fc 00          	cmpl   $0x0,-0x4(%rbp)
    97fb:	78 14                	js     9811 <safe_rshift_func_int32_t_s_u+0x28>
    97fd:	83 7d f8 1f          	cmpl   $0x1f,-0x8(%rbp)
    9801:	77 0e                	ja     9811 <safe_rshift_func_int32_t_s_u+0x28>
    9803:	8b 45 f8             	mov    -0x8(%rbp),%eax
    9806:	8b 55 fc             	mov    -0x4(%rbp),%edx
    9809:	89 c1                	mov    %eax,%ecx
    980b:	d3 fa                	sar    %cl,%edx
    980d:	89 d0                	mov    %edx,%eax
    980f:	eb 03                	jmp    9814 <safe_rshift_func_int32_t_s_u+0x2b>
    9811:	8b 45 fc             	mov    -0x4(%rbp),%eax
    9814:	5d                   	pop    %rbp
    9815:	c3                   	retq   

0000000000009816 <safe_unary_minus_func_int64_t_s>:
    9816:	f3 0f 1e fa          	endbr64 
    981a:	55                   	push   %rbp
    981b:	48 89 e5             	mov    %rsp,%rbp
    981e:	48 89 7d f8          	mov    %rdi,-0x8(%rbp)
    9822:	48 b8 00 00 00 00 00 	movabs $0x8000000000000000,%rax
    9829:	00 00 80 
    982c:	48 39 45 f8          	cmp    %rax,-0x8(%rbp)
    9830:	74 09                	je     983b <safe_unary_minus_func_int64_t_s+0x25>
    9832:	48 8b 45 f8          	mov    -0x8(%rbp),%rax
    9836:	48 f7 d8             	neg    %rax
    9839:	eb 04                	jmp    983f <safe_unary_minus_func_int64_t_s+0x29>
    983b:	48 8b 45 f8          	mov    -0x8(%rbp),%rax
    983f:	5d                   	pop    %rbp
    9840:	c3                   	retq   

0000000000009841 <safe_add_func_int64_t_s_s>:
    9841:	f3 0f 1e fa          	endbr64 
    9845:	55                   	push   %rbp
    9846:	48 89 e5             	mov    %rsp,%rbp
    9849:	48 89 7d f8          	mov    %rdi,-0x8(%rbp)
    984d:	48 89 75 f0          	mov    %rsi,-0x10(%rbp)
    9851:	48 83 7d f8 00       	cmpq   $0x0,-0x8(%rbp)
    9856:	7e 1b                	jle    9873 <safe_add_func_int64_t_s_s+0x32>
    9858:	48 83 7d f0 00       	cmpq   $0x0,-0x10(%rbp)
    985d:	7e 14                	jle    9873 <safe_add_func_int64_t_s_s+0x32>
    985f:	48 b8 ff ff ff ff ff 	movabs $0x7fffffffffffffff,%rax
    9866:	ff ff 7f 
    9869:	48 2b 45 f0          	sub    -0x10(%rbp),%rax
    986d:	48 39 45 f8          	cmp    %rax,-0x8(%rbp)
    9871:	7f 2f                	jg     98a2 <safe_add_func_int64_t_s_s+0x61>
    9873:	48 83 7d f8 00       	cmpq   $0x0,-0x8(%rbp)
    9878:	79 1b                	jns    9895 <safe_add_func_int64_t_s_s+0x54>
    987a:	48 83 7d f0 00       	cmpq   $0x0,-0x10(%rbp)
    987f:	79 14                	jns    9895 <safe_add_func_int64_t_s_s+0x54>
    9881:	48 b8 00 00 00 00 00 	movabs $0x8000000000000000,%rax
    9888:	00 00 80 
    988b:	48 2b 45 f0          	sub    -0x10(%rbp),%rax
    988f:	48 39 45 f8          	cmp    %rax,-0x8(%rbp)
    9893:	7c 0d                	jl     98a2 <safe_add_func_int64_t_s_s+0x61>
    9895:	48 8b 55 f8          	mov    -0x8(%rbp),%rdx
    9899:	48 8b 45 f0          	mov    -0x10(%rbp),%rax
    989d:	48 01 d0             	add    %rdx,%rax
    98a0:	eb 04                	jmp    98a6 <safe_add_func_int64_t_s_s+0x65>
    98a2:	48 8b 45 f8          	mov    -0x8(%rbp),%rax
    98a6:	5d                   	pop    %rbp
    98a7:	c3                   	retq   

00000000000098a8 <safe_sub_func_int64_t_s_s>:
    98a8:	f3 0f 1e fa          	endbr64 
    98ac:	55                   	push   %rbp
    98ad:	48 89 e5             	mov    %rsp,%rbp
    98b0:	48 89 7d f8          	mov    %rdi,-0x8(%rbp)
    98b4:	48 89 75 f0          	mov    %rsi,-0x10(%rbp)
    98b8:	48 8b 45 f8          	mov    -0x8(%rbp),%rax
    98bc:	48 33 45 f0          	xor    -0x10(%rbp),%rax
    98c0:	48 89 c2             	mov    %rax,%rdx
    98c3:	48 8b 45 f8          	mov    -0x8(%rbp),%rax
    98c7:	48 33 45 f0          	xor    -0x10(%rbp),%rax
    98cb:	48 b9 00 00 00 00 00 	movabs $0x8000000000000000,%rcx
    98d2:	00 00 80 
    98d5:	48 21 c8             	and    %rcx,%rax
    98d8:	48 33 45 f8          	xor    -0x8(%rbp),%rax
    98dc:	48 2b 45 f0          	sub    -0x10(%rbp),%rax
    98e0:	48 33 45 f0          	xor    -0x10(%rbp),%rax
    98e4:	48 21 d0             	and    %rdx,%rax
    98e7:	48 85 c0             	test   %rax,%rax
    98ea:	78 0a                	js     98f6 <safe_sub_func_int64_t_s_s+0x4e>
    98ec:	48 8b 45 f8          	mov    -0x8(%rbp),%rax
    98f0:	48 2b 45 f0          	sub    -0x10(%rbp),%rax
    98f4:	eb 04                	jmp    98fa <safe_sub_func_int64_t_s_s+0x52>
    98f6:	48 8b 45 f8          	mov    -0x8(%rbp),%rax
    98fa:	5d                   	pop    %rbp
    98fb:	c3                   	retq   

00000000000098fc <safe_mul_func_int64_t_s_s>:
    98fc:	f3 0f 1e fa          	endbr64 
    9900:	55                   	push   %rbp
    9901:	48 89 e5             	mov    %rsp,%rbp
    9904:	48 89 7d f8          	mov    %rdi,-0x8(%rbp)
    9908:	48 89 75 f0          	mov    %rsi,-0x10(%rbp)
    990c:	48 83 7d f8 00       	cmpq   $0x0,-0x8(%rbp)
    9911:	7e 1d                	jle    9930 <safe_mul_func_int64_t_s_s+0x34>
    9913:	48 83 7d f0 00       	cmpq   $0x0,-0x10(%rbp)
    9918:	7e 16                	jle    9930 <safe_mul_func_int64_t_s_s+0x34>
    991a:	48 b8 ff ff ff ff ff 	movabs $0x7fffffffffffffff,%rax
    9921:	ff ff 7f 
    9924:	48 99                	cqto   
    9926:	48 f7 7d f0          	idivq  -0x10(%rbp)
    992a:	48 39 45 f8          	cmp    %rax,-0x8(%rbp)
    992e:	7f 7e                	jg     99ae <safe_mul_func_int64_t_s_s+0xb2>
    9930:	48 83 7d f8 00       	cmpq   $0x0,-0x8(%rbp)
    9935:	7e 1d                	jle    9954 <safe_mul_func_int64_t_s_s+0x58>
    9937:	48 83 7d f0 00       	cmpq   $0x0,-0x10(%rbp)
    993c:	7f 16                	jg     9954 <safe_mul_func_int64_t_s_s+0x58>
    993e:	48 b8 00 00 00 00 00 	movabs $0x8000000000000000,%rax
    9945:	00 00 80 
    9948:	48 99                	cqto   
    994a:	48 f7 7d f8          	idivq  -0x8(%rbp)
    994e:	48 39 45 f0          	cmp    %rax,-0x10(%rbp)
    9952:	7c 5a                	jl     99ae <safe_mul_func_int64_t_s_s+0xb2>
    9954:	48 83 7d f8 00       	cmpq   $0x0,-0x8(%rbp)
    9959:	7f 1d                	jg     9978 <safe_mul_func_int64_t_s_s+0x7c>
    995b:	48 83 7d f0 00       	cmpq   $0x0,-0x10(%rbp)
    9960:	7e 16                	jle    9978 <safe_mul_func_int64_t_s_s+0x7c>
    9962:	48 b8 00 00 00 00 00 	movabs $0x8000000000000000,%rax
    9969:	00 00 80 
    996c:	48 99                	cqto   
    996e:	48 f7 7d f0          	idivq  -0x10(%rbp)
    9972:	48 39 45 f8          	cmp    %rax,-0x8(%rbp)
    9976:	7c 36                	jl     99ae <safe_mul_func_int64_t_s_s+0xb2>
    9978:	48 83 7d f8 00       	cmpq   $0x0,-0x8(%rbp)
    997d:	7f 24                	jg     99a3 <safe_mul_func_int64_t_s_s+0xa7>
    997f:	48 83 7d f0 00       	cmpq   $0x0,-0x10(%rbp)
    9984:	7f 1d                	jg     99a3 <safe_mul_func_int64_t_s_s+0xa7>
    9986:	48 83 7d f8 00       	cmpq   $0x0,-0x8(%rbp)
    998b:	74 16                	je     99a3 <safe_mul_func_int64_t_s_s+0xa7>
    998d:	48 b8 ff ff ff ff ff 	movabs $0x7fffffffffffffff,%rax
    9994:	ff ff 7f 
    9997:	48 99                	cqto   
    9999:	48 f7 7d f8          	idivq  -0x8(%rbp)
    999d:	48 39 45 f0          	cmp    %rax,-0x10(%rbp)
    99a1:	7c 0b                	jl     99ae <safe_mul_func_int64_t_s_s+0xb2>
    99a3:	48 8b 45 f8          	mov    -0x8(%rbp),%rax
    99a7:	48 0f af 45 f0       	imul   -0x10(%rbp),%rax
    99ac:	eb 04                	jmp    99b2 <safe_mul_func_int64_t_s_s+0xb6>
    99ae:	48 8b 45 f8          	mov    -0x8(%rbp),%rax
    99b2:	5d                   	pop    %rbp
    99b3:	c3                   	retq   

00000000000099b4 <safe_mod_func_int64_t_s_s>:
    99b4:	f3 0f 1e fa          	endbr64 
    99b8:	55                   	push   %rbp
    99b9:	48 89 e5             	mov    %rsp,%rbp
    99bc:	48 89 7d f8          	mov    %rdi,-0x8(%rbp)
    99c0:	48 89 75 f0          	mov    %rsi,-0x10(%rbp)
    99c4:	48 83 7d f0 00       	cmpq   $0x0,-0x10(%rbp)
    99c9:	74 26                	je     99f1 <safe_mod_func_int64_t_s_s+0x3d>
    99cb:	48 b8 00 00 00 00 00 	movabs $0x8000000000000000,%rax
    99d2:	00 00 80 
    99d5:	48 39 45 f8          	cmp    %rax,-0x8(%rbp)
    99d9:	75 07                	jne    99e2 <safe_mod_func_int64_t_s_s+0x2e>
    99db:	48 83 7d f0 ff       	cmpq   $0xffffffffffffffff,-0x10(%rbp)
    99e0:	74 0f                	je     99f1 <safe_mod_func_int64_t_s_s+0x3d>
    99e2:	48 8b 45 f8          	mov    -0x8(%rbp),%rax
    99e6:	48 99                	cqto   
    99e8:	48 f7 7d f0          	idivq  -0x10(%rbp)
    99ec:	48 89 d0             	mov    %rdx,%rax
    99ef:	eb 04                	jmp    99f5 <safe_mod_func_int64_t_s_s+0x41>
    99f1:	48 8b 45 f8          	mov    -0x8(%rbp),%rax
    99f5:	5d                   	pop    %rbp
    99f6:	c3                   	retq   

00000000000099f7 <safe_div_func_int64_t_s_s>:
    99f7:	f3 0f 1e fa          	endbr64 
    99fb:	55                   	push   %rbp
    99fc:	48 89 e5             	mov    %rsp,%rbp
    99ff:	48 89 7d f8          	mov    %rdi,-0x8(%rbp)
    9a03:	48 89 75 f0          	mov    %rsi,-0x10(%rbp)
    9a07:	48 83 7d f0 00       	cmpq   $0x0,-0x10(%rbp)
    9a0c:	74 23                	je     9a31 <safe_div_func_int64_t_s_s+0x3a>
    9a0e:	48 b8 00 00 00 00 00 	movabs $0x8000000000000000,%rax
    9a15:	00 00 80 
    9a18:	48 39 45 f8          	cmp    %rax,-0x8(%rbp)
    9a1c:	75 07                	jne    9a25 <safe_div_func_int64_t_s_s+0x2e>
    9a1e:	48 83 7d f0 ff       	cmpq   $0xffffffffffffffff,-0x10(%rbp)
    9a23:	74 0c                	je     9a31 <safe_div_func_int64_t_s_s+0x3a>
    9a25:	48 8b 45 f8          	mov    -0x8(%rbp),%rax
    9a29:	48 99                	cqto   
    9a2b:	48 f7 7d f0          	idivq  -0x10(%rbp)
    9a2f:	eb 04                	jmp    9a35 <safe_div_func_int64_t_s_s+0x3e>
    9a31:	48 8b 45 f8          	mov    -0x8(%rbp),%rax
    9a35:	5d                   	pop    %rbp
    9a36:	c3                   	retq   

0000000000009a37 <safe_lshift_func_int64_t_s_s>:
    9a37:	f3 0f 1e fa          	endbr64 
    9a3b:	55                   	push   %rbp
    9a3c:	48 89 e5             	mov    %rsp,%rbp
    9a3f:	48 89 7d f8          	mov    %rdi,-0x8(%rbp)
    9a43:	89 75 f4             	mov    %esi,-0xc(%rbp)
    9a46:	48 83 7d f8 00       	cmpq   $0x0,-0x8(%rbp)
    9a4b:	78 38                	js     9a85 <safe_lshift_func_int64_t_s_s+0x4e>
    9a4d:	83 7d f4 00          	cmpl   $0x0,-0xc(%rbp)
    9a51:	78 32                	js     9a85 <safe_lshift_func_int64_t_s_s+0x4e>
    9a53:	83 7d f4 1f          	cmpl   $0x1f,-0xc(%rbp)
    9a57:	7f 2c                	jg     9a85 <safe_lshift_func_int64_t_s_s+0x4e>
    9a59:	8b 45 f4             	mov    -0xc(%rbp),%eax
    9a5c:	48 ba ff ff ff ff ff 	movabs $0x7fffffffffffffff,%rdx
    9a63:	ff ff 7f 
    9a66:	89 c1                	mov    %eax,%ecx
    9a68:	48 d3 fa             	sar    %cl,%rdx
    9a6b:	48 89 d0             	mov    %rdx,%rax
    9a6e:	48 39 45 f8          	cmp    %rax,-0x8(%rbp)
    9a72:	7f 11                	jg     9a85 <safe_lshift_func_int64_t_s_s+0x4e>
    9a74:	8b 45 f4             	mov    -0xc(%rbp),%eax
    9a77:	48 8b 55 f8          	mov    -0x8(%rbp),%rdx
    9a7b:	89 c1                	mov    %eax,%ecx
    9a7d:	48 d3 e2             	shl    %cl,%rdx
    9a80:	48 89 d0             	mov    %rdx,%rax
    9a83:	eb 04                	jmp    9a89 <safe_lshift_func_int64_t_s_s+0x52>
    9a85:	48 8b 45 f8          	mov    -0x8(%rbp),%rax
    9a89:	5d                   	pop    %rbp
    9a8a:	c3                   	retq   

0000000000009a8b <safe_lshift_func_int64_t_s_u>:
    9a8b:	f3 0f 1e fa          	endbr64 
    9a8f:	55                   	push   %rbp
    9a90:	48 89 e5             	mov    %rsp,%rbp
    9a93:	48 89 7d f8          	mov    %rdi,-0x8(%rbp)
    9a97:	89 75 f4             	mov    %esi,-0xc(%rbp)
    9a9a:	48 83 7d f8 00       	cmpq   $0x0,-0x8(%rbp)
    9a9f:	78 32                	js     9ad3 <safe_lshift_func_int64_t_s_u+0x48>
    9aa1:	83 7d f4 1f          	cmpl   $0x1f,-0xc(%rbp)
    9aa5:	77 2c                	ja     9ad3 <safe_lshift_func_int64_t_s_u+0x48>
    9aa7:	8b 45 f4             	mov    -0xc(%rbp),%eax
    9aaa:	48 ba ff ff ff ff ff 	movabs $0x7fffffffffffffff,%rdx
    9ab1:	ff ff 7f 
    9ab4:	89 c1                	mov    %eax,%ecx
    9ab6:	48 d3 fa             	sar    %cl,%rdx
    9ab9:	48 89 d0             	mov    %rdx,%rax
    9abc:	48 39 45 f8          	cmp    %rax,-0x8(%rbp)
    9ac0:	7f 11                	jg     9ad3 <safe_lshift_func_int64_t_s_u+0x48>
    9ac2:	8b 45 f4             	mov    -0xc(%rbp),%eax
    9ac5:	48 8b 55 f8          	mov    -0x8(%rbp),%rdx
    9ac9:	89 c1                	mov    %eax,%ecx
    9acb:	48 d3 e2             	shl    %cl,%rdx
    9ace:	48 89 d0             	mov    %rdx,%rax
    9ad1:	eb 04                	jmp    9ad7 <safe_lshift_func_int64_t_s_u+0x4c>
    9ad3:	48 8b 45 f8          	mov    -0x8(%rbp),%rax
    9ad7:	5d                   	pop    %rbp
    9ad8:	c3                   	retq   

0000000000009ad9 <safe_rshift_func_int64_t_s_s>:
    9ad9:	f3 0f 1e fa          	endbr64 
    9add:	55                   	push   %rbp
    9ade:	48 89 e5             	mov    %rsp,%rbp
    9ae1:	48 89 7d f8          	mov    %rdi,-0x8(%rbp)
    9ae5:	89 75 f4             	mov    %esi,-0xc(%rbp)
    9ae8:	48 83 7d f8 00       	cmpq   $0x0,-0x8(%rbp)
    9aed:	78 1d                	js     9b0c <safe_rshift_func_int64_t_s_s+0x33>
    9aef:	83 7d f4 00          	cmpl   $0x0,-0xc(%rbp)
    9af3:	78 17                	js     9b0c <safe_rshift_func_int64_t_s_s+0x33>
    9af5:	83 7d f4 1f          	cmpl   $0x1f,-0xc(%rbp)
    9af9:	7f 11                	jg     9b0c <safe_rshift_func_int64_t_s_s+0x33>
    9afb:	8b 45 f4             	mov    -0xc(%rbp),%eax
    9afe:	48 8b 55 f8          	mov    -0x8(%rbp),%rdx
    9b02:	89 c1                	mov    %eax,%ecx
    9b04:	48 d3 fa             	sar    %cl,%rdx
    9b07:	48 89 d0             	mov    %rdx,%rax
    9b0a:	eb 04                	jmp    9b10 <safe_rshift_func_int64_t_s_s+0x37>
    9b0c:	48 8b 45 f8          	mov    -0x8(%rbp),%rax
    9b10:	5d                   	pop    %rbp
    9b11:	c3                   	retq   

0000000000009b12 <safe_rshift_func_int64_t_s_u>:
    9b12:	f3 0f 1e fa          	endbr64 
    9b16:	55                   	push   %rbp
    9b17:	48 89 e5             	mov    %rsp,%rbp
    9b1a:	48 89 7d f8          	mov    %rdi,-0x8(%rbp)
    9b1e:	89 75 f4             	mov    %esi,-0xc(%rbp)
    9b21:	48 83 7d f8 00       	cmpq   $0x0,-0x8(%rbp)
    9b26:	78 17                	js     9b3f <safe_rshift_func_int64_t_s_u+0x2d>
    9b28:	83 7d f4 1f          	cmpl   $0x1f,-0xc(%rbp)
    9b2c:	77 11                	ja     9b3f <safe_rshift_func_int64_t_s_u+0x2d>
    9b2e:	8b 45 f4             	mov    -0xc(%rbp),%eax
    9b31:	48 8b 55 f8          	mov    -0x8(%rbp),%rdx
    9b35:	89 c1                	mov    %eax,%ecx
    9b37:	48 d3 fa             	sar    %cl,%rdx
    9b3a:	48 89 d0             	mov    %rdx,%rax
    9b3d:	eb 04                	jmp    9b43 <safe_rshift_func_int64_t_s_u+0x31>
    9b3f:	48 8b 45 f8          	mov    -0x8(%rbp),%rax
    9b43:	5d                   	pop    %rbp
    9b44:	c3                   	retq   

0000000000009b45 <safe_unary_minus_func_uint8_t_u>:
    9b45:	f3 0f 1e fa          	endbr64 
    9b49:	55                   	push   %rbp
    9b4a:	48 89 e5             	mov    %rsp,%rbp
    9b4d:	89 f8                	mov    %edi,%eax
    9b4f:	88 45 fc             	mov    %al,-0x4(%rbp)
    9b52:	0f b6 45 fc          	movzbl -0x4(%rbp),%eax
    9b56:	f7 d8                	neg    %eax
    9b58:	5d                   	pop    %rbp
    9b59:	c3                   	retq   

0000000000009b5a <safe_add_func_uint8_t_u_u>:
    9b5a:	f3 0f 1e fa          	endbr64 
    9b5e:	55                   	push   %rbp
    9b5f:	48 89 e5             	mov    %rsp,%rbp
    9b62:	89 fa                	mov    %edi,%edx
    9b64:	89 f0                	mov    %esi,%eax
    9b66:	88 55 fc             	mov    %dl,-0x4(%rbp)
    9b69:	88 45 f8             	mov    %al,-0x8(%rbp)
    9b6c:	0f b6 55 fc          	movzbl -0x4(%rbp),%edx
    9b70:	0f b6 45 f8          	movzbl -0x8(%rbp),%eax
    9b74:	01 d0                	add    %edx,%eax
    9b76:	5d                   	pop    %rbp
    9b77:	c3                   	retq   

0000000000009b78 <safe_sub_func_uint8_t_u_u>:
    9b78:	f3 0f 1e fa          	endbr64 
    9b7c:	55                   	push   %rbp
    9b7d:	48 89 e5             	mov    %rsp,%rbp
    9b80:	89 fa                	mov    %edi,%edx
    9b82:	89 f0                	mov    %esi,%eax
    9b84:	88 55 fc             	mov    %dl,-0x4(%rbp)
    9b87:	88 45 f8             	mov    %al,-0x8(%rbp)
    9b8a:	0f b6 45 fc          	movzbl -0x4(%rbp),%eax
    9b8e:	2a 45 f8             	sub    -0x8(%rbp),%al
    9b91:	5d                   	pop    %rbp
    9b92:	c3                   	retq   

0000000000009b93 <safe_mul_func_uint8_t_u_u>:
    9b93:	f3 0f 1e fa          	endbr64 
    9b97:	55                   	push   %rbp
    9b98:	48 89 e5             	mov    %rsp,%rbp
    9b9b:	89 fa                	mov    %edi,%edx
    9b9d:	89 f0                	mov    %esi,%eax
    9b9f:	88 55 fc             	mov    %dl,-0x4(%rbp)
    9ba2:	88 45 f8             	mov    %al,-0x8(%rbp)
    9ba5:	0f b6 45 fc          	movzbl -0x4(%rbp),%eax
    9ba9:	f6 65 f8             	mulb   -0x8(%rbp)
    9bac:	5d                   	pop    %rbp
    9bad:	c3                   	retq   

0000000000009bae <safe_mod_func_uint8_t_u_u>:
    9bae:	f3 0f 1e fa          	endbr64 
    9bb2:	55                   	push   %rbp
    9bb3:	48 89 e5             	mov    %rsp,%rbp
    9bb6:	89 fa                	mov    %edi,%edx
    9bb8:	89 f0                	mov    %esi,%eax
    9bba:	88 55 fc             	mov    %dl,-0x4(%rbp)
    9bbd:	88 45 f8             	mov    %al,-0x8(%rbp)
    9bc0:	80 7d f8 00          	cmpb   $0x0,-0x8(%rbp)
    9bc4:	74 0f                	je     9bd5 <safe_mod_func_uint8_t_u_u+0x27>
    9bc6:	0f b6 45 fc          	movzbl -0x4(%rbp),%eax
    9bca:	0f b6 c0             	movzbl %al,%eax
    9bcd:	f6 75 f8             	divb   -0x8(%rbp)
    9bd0:	0f b6 c4             	movzbl %ah,%eax
    9bd3:	eb 04                	jmp    9bd9 <safe_mod_func_uint8_t_u_u+0x2b>
    9bd5:	0f b6 45 fc          	movzbl -0x4(%rbp),%eax
    9bd9:	5d                   	pop    %rbp
    9bda:	c3                   	retq   

0000000000009bdb <safe_div_func_uint8_t_u_u>:
    9bdb:	f3 0f 1e fa          	endbr64 
    9bdf:	55                   	push   %rbp
    9be0:	48 89 e5             	mov    %rsp,%rbp
    9be3:	89 fa                	mov    %edi,%edx
    9be5:	89 f0                	mov    %esi,%eax
    9be7:	88 55 fc             	mov    %dl,-0x4(%rbp)
    9bea:	88 45 f8             	mov    %al,-0x8(%rbp)
    9bed:	80 7d f8 00          	cmpb   $0x0,-0x8(%rbp)
    9bf1:	74 0c                	je     9bff <safe_div_func_uint8_t_u_u+0x24>
    9bf3:	0f b6 45 fc          	movzbl -0x4(%rbp),%eax
    9bf7:	0f b6 c0             	movzbl %al,%eax
    9bfa:	f6 75 f8             	divb   -0x8(%rbp)
    9bfd:	eb 04                	jmp    9c03 <safe_div_func_uint8_t_u_u+0x28>
    9bff:	0f b6 45 fc          	movzbl -0x4(%rbp),%eax
    9c03:	5d                   	pop    %rbp
    9c04:	c3                   	retq   

0000000000009c05 <safe_lshift_func_uint8_t_u_s>:
    9c05:	f3 0f 1e fa          	endbr64 
    9c09:	55                   	push   %rbp
    9c0a:	48 89 e5             	mov    %rsp,%rbp
    9c0d:	89 f8                	mov    %edi,%eax
    9c0f:	89 75 f8             	mov    %esi,-0x8(%rbp)
    9c12:	88 45 fc             	mov    %al,-0x4(%rbp)
    9c15:	83 7d f8 00          	cmpl   $0x0,-0x8(%rbp)
    9c19:	78 2b                	js     9c46 <safe_lshift_func_uint8_t_u_s+0x41>
    9c1b:	83 7d f8 1f          	cmpl   $0x1f,-0x8(%rbp)
    9c1f:	7f 25                	jg     9c46 <safe_lshift_func_uint8_t_u_s+0x41>
    9c21:	0f b6 55 fc          	movzbl -0x4(%rbp),%edx
    9c25:	8b 45 f8             	mov    -0x8(%rbp),%eax
    9c28:	be ff 00 00 00       	mov    $0xff,%esi
    9c2d:	89 c1                	mov    %eax,%ecx
    9c2f:	d3 fe                	sar    %cl,%esi
    9c31:	89 f0                	mov    %esi,%eax
    9c33:	39 c2                	cmp    %eax,%edx
    9c35:	7f 0f                	jg     9c46 <safe_lshift_func_uint8_t_u_s+0x41>
    9c37:	0f b6 55 fc          	movzbl -0x4(%rbp),%edx
    9c3b:	8b 45 f8             	mov    -0x8(%rbp),%eax
    9c3e:	89 c1                	mov    %eax,%ecx
    9c40:	d3 e2                	shl    %cl,%edx
    9c42:	89 d0                	mov    %edx,%eax
    9c44:	eb 04                	jmp    9c4a <safe_lshift_func_uint8_t_u_s+0x45>
    9c46:	0f b6 45 fc          	movzbl -0x4(%rbp),%eax
    9c4a:	5d                   	pop    %rbp
    9c4b:	c3                   	retq   

0000000000009c4c <safe_lshift_func_uint8_t_u_u>:
    9c4c:	f3 0f 1e fa          	endbr64 
    9c50:	55                   	push   %rbp
    9c51:	48 89 e5             	mov    %rsp,%rbp
    9c54:	89 f8                	mov    %edi,%eax
    9c56:	89 75 f8             	mov    %esi,-0x8(%rbp)
    9c59:	88 45 fc             	mov    %al,-0x4(%rbp)
    9c5c:	83 7d f8 1f          	cmpl   $0x1f,-0x8(%rbp)
    9c60:	77 25                	ja     9c87 <safe_lshift_func_uint8_t_u_u+0x3b>
    9c62:	0f b6 55 fc          	movzbl -0x4(%rbp),%edx
    9c66:	8b 45 f8             	mov    -0x8(%rbp),%eax
    9c69:	be ff 00 00 00       	mov    $0xff,%esi
    9c6e:	89 c1                	mov    %eax,%ecx
    9c70:	d3 fe                	sar    %cl,%esi
    9c72:	89 f0                	mov    %esi,%eax
    9c74:	39 c2                	cmp    %eax,%edx
    9c76:	7f 0f                	jg     9c87 <safe_lshift_func_uint8_t_u_u+0x3b>
    9c78:	0f b6 55 fc          	movzbl -0x4(%rbp),%edx
    9c7c:	8b 45 f8             	mov    -0x8(%rbp),%eax
    9c7f:	89 c1                	mov    %eax,%ecx
    9c81:	d3 e2                	shl    %cl,%edx
    9c83:	89 d0                	mov    %edx,%eax
    9c85:	eb 04                	jmp    9c8b <safe_lshift_func_uint8_t_u_u+0x3f>
    9c87:	0f b6 45 fc          	movzbl -0x4(%rbp),%eax
    9c8b:	5d                   	pop    %rbp
    9c8c:	c3                   	retq   

0000000000009c8d <safe_rshift_func_uint8_t_u_s>:
    9c8d:	f3 0f 1e fa          	endbr64 
    9c91:	55                   	push   %rbp
    9c92:	48 89 e5             	mov    %rsp,%rbp
    9c95:	89 f8                	mov    %edi,%eax
    9c97:	89 75 f8             	mov    %esi,-0x8(%rbp)
    9c9a:	88 45 fc             	mov    %al,-0x4(%rbp)
    9c9d:	83 7d f8 00          	cmpl   $0x0,-0x8(%rbp)
    9ca1:	78 15                	js     9cb8 <safe_rshift_func_uint8_t_u_s+0x2b>
    9ca3:	83 7d f8 1f          	cmpl   $0x1f,-0x8(%rbp)
    9ca7:	7f 0f                	jg     9cb8 <safe_rshift_func_uint8_t_u_s+0x2b>
    9ca9:	0f b6 55 fc          	movzbl -0x4(%rbp),%edx
    9cad:	8b 45 f8             	mov    -0x8(%rbp),%eax
    9cb0:	89 c1                	mov    %eax,%ecx
    9cb2:	d3 fa                	sar    %cl,%edx
    9cb4:	89 d0                	mov    %edx,%eax
    9cb6:	eb 04                	jmp    9cbc <safe_rshift_func_uint8_t_u_s+0x2f>
    9cb8:	0f b6 45 fc          	movzbl -0x4(%rbp),%eax
    9cbc:	5d                   	pop    %rbp
    9cbd:	c3                   	retq   

0000000000009cbe <safe_rshift_func_uint8_t_u_u>:
    9cbe:	f3 0f 1e fa          	endbr64 
    9cc2:	55                   	push   %rbp
    9cc3:	48 89 e5             	mov    %rsp,%rbp
    9cc6:	89 f8                	mov    %edi,%eax
    9cc8:	89 75 f8             	mov    %esi,-0x8(%rbp)
    9ccb:	88 45 fc             	mov    %al,-0x4(%rbp)
    9cce:	83 7d f8 1f          	cmpl   $0x1f,-0x8(%rbp)
    9cd2:	77 0f                	ja     9ce3 <safe_rshift_func_uint8_t_u_u+0x25>
    9cd4:	0f b6 55 fc          	movzbl -0x4(%rbp),%edx
    9cd8:	8b 45 f8             	mov    -0x8(%rbp),%eax
    9cdb:	89 c1                	mov    %eax,%ecx
    9cdd:	d3 fa                	sar    %cl,%edx
    9cdf:	89 d0                	mov    %edx,%eax
    9ce1:	eb 04                	jmp    9ce7 <safe_rshift_func_uint8_t_u_u+0x29>
    9ce3:	0f b6 45 fc          	movzbl -0x4(%rbp),%eax
    9ce7:	5d                   	pop    %rbp
    9ce8:	c3                   	retq   

0000000000009ce9 <safe_unary_minus_func_uint16_t_u>:
    9ce9:	f3 0f 1e fa          	endbr64 
    9ced:	55                   	push   %rbp
    9cee:	48 89 e5             	mov    %rsp,%rbp
    9cf1:	89 f8                	mov    %edi,%eax
    9cf3:	66 89 45 fc          	mov    %ax,-0x4(%rbp)
    9cf7:	0f b7 45 fc          	movzwl -0x4(%rbp),%eax
    9cfb:	f7 d8                	neg    %eax
    9cfd:	5d                   	pop    %rbp
    9cfe:	c3                   	retq   

0000000000009cff <safe_add_func_uint16_t_u_u>:
    9cff:	f3 0f 1e fa          	endbr64 
    9d03:	55                   	push   %rbp
    9d04:	48 89 e5             	mov    %rsp,%rbp
    9d07:	89 fa                	mov    %edi,%edx
    9d09:	89 f0                	mov    %esi,%eax
    9d0b:	66 89 55 fc          	mov    %dx,-0x4(%rbp)
    9d0f:	66 89 45 f8          	mov    %ax,-0x8(%rbp)
    9d13:	0f b7 55 fc          	movzwl -0x4(%rbp),%edx
    9d17:	0f b7 45 f8          	movzwl -0x8(%rbp),%eax
    9d1b:	01 d0                	add    %edx,%eax
    9d1d:	5d                   	pop    %rbp
    9d1e:	c3                   	retq   

0000000000009d1f <safe_sub_func_uint16_t_u_u>:
    9d1f:	f3 0f 1e fa          	endbr64 
    9d23:	55                   	push   %rbp
    9d24:	48 89 e5             	mov    %rsp,%rbp
    9d27:	89 fa                	mov    %edi,%edx
    9d29:	89 f0                	mov    %esi,%eax
    9d2b:	66 89 55 fc          	mov    %dx,-0x4(%rbp)
    9d2f:	66 89 45 f8          	mov    %ax,-0x8(%rbp)
    9d33:	0f b7 45 fc          	movzwl -0x4(%rbp),%eax
    9d37:	66 2b 45 f8          	sub    -0x8(%rbp),%ax
    9d3b:	5d                   	pop    %rbp
    9d3c:	c3                   	retq   

0000000000009d3d <safe_mul_func_uint16_t_u_u>:
    9d3d:	f3 0f 1e fa          	endbr64 
    9d41:	55                   	push   %rbp
    9d42:	48 89 e5             	mov    %rsp,%rbp
    9d45:	89 fa                	mov    %edi,%edx
    9d47:	89 f0                	mov    %esi,%eax
    9d49:	66 89 55 fc          	mov    %dx,-0x4(%rbp)
    9d4d:	66 89 45 f8          	mov    %ax,-0x8(%rbp)
    9d51:	0f b7 45 fc          	movzwl -0x4(%rbp),%eax
    9d55:	66 0f af 45 f8       	imul   -0x8(%rbp),%ax
    9d5a:	5d                   	pop    %rbp
    9d5b:	c3                   	retq   

0000000000009d5c <safe_mod_func_uint16_t_u_u>:
    9d5c:	f3 0f 1e fa          	endbr64 
    9d60:	55                   	push   %rbp
    9d61:	48 89 e5             	mov    %rsp,%rbp
    9d64:	89 fa                	mov    %edi,%edx
    9d66:	89 f0                	mov    %esi,%eax
    9d68:	66 89 55 fc          	mov    %dx,-0x4(%rbp)
    9d6c:	66 89 45 f8          	mov    %ax,-0x8(%rbp)
    9d70:	66 83 7d f8 00       	cmpw   $0x0,-0x8(%rbp)
    9d75:	74 11                	je     9d88 <safe_mod_func_uint16_t_u_u+0x2c>
    9d77:	0f b7 45 fc          	movzwl -0x4(%rbp),%eax
    9d7b:	ba 00 00 00 00       	mov    $0x0,%edx
    9d80:	66 f7 75 f8          	divw   -0x8(%rbp)
    9d84:	89 d0                	mov    %edx,%eax
    9d86:	eb 04                	jmp    9d8c <safe_mod_func_uint16_t_u_u+0x30>
    9d88:	0f b7 45 fc          	movzwl -0x4(%rbp),%eax
    9d8c:	5d                   	pop    %rbp
    9d8d:	c3                   	retq   

0000000000009d8e <safe_div_func_uint16_t_u_u>:
    9d8e:	f3 0f 1e fa          	endbr64 
    9d92:	55                   	push   %rbp
    9d93:	48 89 e5             	mov    %rsp,%rbp
    9d96:	89 fa                	mov    %edi,%edx
    9d98:	89 f0                	mov    %esi,%eax
    9d9a:	66 89 55 fc          	mov    %dx,-0x4(%rbp)
    9d9e:	66 89 45 f8          	mov    %ax,-0x8(%rbp)
    9da2:	66 83 7d f8 00       	cmpw   $0x0,-0x8(%rbp)
    9da7:	74 0f                	je     9db8 <safe_div_func_uint16_t_u_u+0x2a>
    9da9:	0f b7 45 fc          	movzwl -0x4(%rbp),%eax
    9dad:	ba 00 00 00 00       	mov    $0x0,%edx
    9db2:	66 f7 75 f8          	divw   -0x8(%rbp)
    9db6:	eb 04                	jmp    9dbc <safe_div_func_uint16_t_u_u+0x2e>
    9db8:	0f b7 45 fc          	movzwl -0x4(%rbp),%eax
    9dbc:	5d                   	pop    %rbp
    9dbd:	c3                   	retq   

0000000000009dbe <safe_lshift_func_uint16_t_u_s>:
    9dbe:	f3 0f 1e fa          	endbr64 
    9dc2:	55                   	push   %rbp
    9dc3:	48 89 e5             	mov    %rsp,%rbp
    9dc6:	89 f8                	mov    %edi,%eax
    9dc8:	89 75 f8             	mov    %esi,-0x8(%rbp)
    9dcb:	66 89 45 fc          	mov    %ax,-0x4(%rbp)
    9dcf:	83 7d f8 00          	cmpl   $0x0,-0x8(%rbp)
    9dd3:	78 2b                	js     9e00 <safe_lshift_func_uint16_t_u_s+0x42>
    9dd5:	83 7d f8 1f          	cmpl   $0x1f,-0x8(%rbp)
    9dd9:	7f 25                	jg     9e00 <safe_lshift_func_uint16_t_u_s+0x42>
    9ddb:	0f b7 55 fc          	movzwl -0x4(%rbp),%edx
    9ddf:	8b 45 f8             	mov    -0x8(%rbp),%eax
    9de2:	be ff ff 00 00       	mov    $0xffff,%esi
    9de7:	89 c1                	mov    %eax,%ecx
    9de9:	d3 fe                	sar    %cl,%esi
    9deb:	89 f0                	mov    %esi,%eax
    9ded:	39 c2                	cmp    %eax,%edx
    9def:	7f 0f                	jg     9e00 <safe_lshift_func_uint16_t_u_s+0x42>
    9df1:	0f b7 55 fc          	movzwl -0x4(%rbp),%edx
    9df5:	8b 45 f8             	mov    -0x8(%rbp),%eax
    9df8:	89 c1                	mov    %eax,%ecx
    9dfa:	d3 e2                	shl    %cl,%edx
    9dfc:	89 d0                	mov    %edx,%eax
    9dfe:	eb 04                	jmp    9e04 <safe_lshift_func_uint16_t_u_s+0x46>
    9e00:	0f b7 45 fc          	movzwl -0x4(%rbp),%eax
    9e04:	5d                   	pop    %rbp
    9e05:	c3                   	retq   

0000000000009e06 <safe_lshift_func_uint16_t_u_u>:
    9e06:	f3 0f 1e fa          	endbr64 
    9e0a:	55                   	push   %rbp
    9e0b:	48 89 e5             	mov    %rsp,%rbp
    9e0e:	89 f8                	mov    %edi,%eax
    9e10:	89 75 f8             	mov    %esi,-0x8(%rbp)
    9e13:	66 89 45 fc          	mov    %ax,-0x4(%rbp)
    9e17:	83 7d f8 1f          	cmpl   $0x1f,-0x8(%rbp)
    9e1b:	77 25                	ja     9e42 <safe_lshift_func_uint16_t_u_u+0x3c>
    9e1d:	0f b7 55 fc          	movzwl -0x4(%rbp),%edx
    9e21:	8b 45 f8             	mov    -0x8(%rbp),%eax
    9e24:	be ff ff 00 00       	mov    $0xffff,%esi
    9e29:	89 c1                	mov    %eax,%ecx
    9e2b:	d3 fe                	sar    %cl,%esi
    9e2d:	89 f0                	mov    %esi,%eax
    9e2f:	39 c2                	cmp    %eax,%edx
    9e31:	7f 0f                	jg     9e42 <safe_lshift_func_uint16_t_u_u+0x3c>
    9e33:	0f b7 55 fc          	movzwl -0x4(%rbp),%edx
    9e37:	8b 45 f8             	mov    -0x8(%rbp),%eax
    9e3a:	89 c1                	mov    %eax,%ecx
    9e3c:	d3 e2                	shl    %cl,%edx
    9e3e:	89 d0                	mov    %edx,%eax
    9e40:	eb 04                	jmp    9e46 <safe_lshift_func_uint16_t_u_u+0x40>
    9e42:	0f b7 45 fc          	movzwl -0x4(%rbp),%eax
    9e46:	5d                   	pop    %rbp
    9e47:	c3                   	retq   

0000000000009e48 <safe_rshift_func_uint16_t_u_s>:
    9e48:	f3 0f 1e fa          	endbr64 
    9e4c:	55                   	push   %rbp
    9e4d:	48 89 e5             	mov    %rsp,%rbp
    9e50:	89 f8                	mov    %edi,%eax
    9e52:	89 75 f8             	mov    %esi,-0x8(%rbp)
    9e55:	66 89 45 fc          	mov    %ax,-0x4(%rbp)
    9e59:	83 7d f8 00          	cmpl   $0x0,-0x8(%rbp)
    9e5d:	78 15                	js     9e74 <safe_rshift_func_uint16_t_u_s+0x2c>
    9e5f:	83 7d f8 1f          	cmpl   $0x1f,-0x8(%rbp)
    9e63:	7f 0f                	jg     9e74 <safe_rshift_func_uint16_t_u_s+0x2c>
    9e65:	0f b7 55 fc          	movzwl -0x4(%rbp),%edx
    9e69:	8b 45 f8             	mov    -0x8(%rbp),%eax
    9e6c:	89 c1                	mov    %eax,%ecx
    9e6e:	d3 fa                	sar    %cl,%edx
    9e70:	89 d0                	mov    %edx,%eax
    9e72:	eb 04                	jmp    9e78 <safe_rshift_func_uint16_t_u_s+0x30>
    9e74:	0f b7 45 fc          	movzwl -0x4(%rbp),%eax
    9e78:	5d                   	pop    %rbp
    9e79:	c3                   	retq   

0000000000009e7a <safe_rshift_func_uint16_t_u_u>:
    9e7a:	f3 0f 1e fa          	endbr64 
    9e7e:	55                   	push   %rbp
    9e7f:	48 89 e5             	mov    %rsp,%rbp
    9e82:	89 f8                	mov    %edi,%eax
    9e84:	89 75 f8             	mov    %esi,-0x8(%rbp)
    9e87:	66 89 45 fc          	mov    %ax,-0x4(%rbp)
    9e8b:	83 7d f8 1f          	cmpl   $0x1f,-0x8(%rbp)
    9e8f:	77 0f                	ja     9ea0 <safe_rshift_func_uint16_t_u_u+0x26>
    9e91:	0f b7 55 fc          	movzwl -0x4(%rbp),%edx
    9e95:	8b 45 f8             	mov    -0x8(%rbp),%eax
    9e98:	89 c1                	mov    %eax,%ecx
    9e9a:	d3 fa                	sar    %cl,%edx
    9e9c:	89 d0                	mov    %edx,%eax
    9e9e:	eb 04                	jmp    9ea4 <safe_rshift_func_uint16_t_u_u+0x2a>
    9ea0:	0f b7 45 fc          	movzwl -0x4(%rbp),%eax
    9ea4:	5d                   	pop    %rbp
    9ea5:	c3                   	retq   

0000000000009ea6 <safe_unary_minus_func_uint32_t_u>:
    9ea6:	f3 0f 1e fa          	endbr64 
    9eaa:	55                   	push   %rbp
    9eab:	48 89 e5             	mov    %rsp,%rbp
    9eae:	89 7d fc             	mov    %edi,-0x4(%rbp)
    9eb1:	8b 45 fc             	mov    -0x4(%rbp),%eax
    9eb4:	f7 d8                	neg    %eax
    9eb6:	5d                   	pop    %rbp
    9eb7:	c3                   	retq   

0000000000009eb8 <safe_add_func_uint32_t_u_u>:
    9eb8:	f3 0f 1e fa          	endbr64 
    9ebc:	55                   	push   %rbp
    9ebd:	48 89 e5             	mov    %rsp,%rbp
    9ec0:	89 7d fc             	mov    %edi,-0x4(%rbp)
    9ec3:	89 75 f8             	mov    %esi,-0x8(%rbp)
    9ec6:	8b 55 fc             	mov    -0x4(%rbp),%edx
    9ec9:	8b 45 f8             	mov    -0x8(%rbp),%eax
    9ecc:	01 d0                	add    %edx,%eax
    9ece:	5d                   	pop    %rbp
    9ecf:	c3                   	retq   

0000000000009ed0 <safe_sub_func_uint32_t_u_u>:
    9ed0:	f3 0f 1e fa          	endbr64 
    9ed4:	55                   	push   %rbp
    9ed5:	48 89 e5             	mov    %rsp,%rbp
    9ed8:	89 7d fc             	mov    %edi,-0x4(%rbp)
    9edb:	89 75 f8             	mov    %esi,-0x8(%rbp)
    9ede:	8b 45 fc             	mov    -0x4(%rbp),%eax
    9ee1:	2b 45 f8             	sub    -0x8(%rbp),%eax
    9ee4:	5d                   	pop    %rbp
    9ee5:	c3                   	retq   

0000000000009ee6 <safe_mul_func_uint32_t_u_u>:
    9ee6:	f3 0f 1e fa          	endbr64 
    9eea:	55                   	push   %rbp
    9eeb:	48 89 e5             	mov    %rsp,%rbp
    9eee:	89 7d fc             	mov    %edi,-0x4(%rbp)
    9ef1:	89 75 f8             	mov    %esi,-0x8(%rbp)
    9ef4:	8b 45 fc             	mov    -0x4(%rbp),%eax
    9ef7:	0f af 45 f8          	imul   -0x8(%rbp),%eax
    9efb:	5d                   	pop    %rbp
    9efc:	c3                   	retq   

0000000000009efd <safe_mod_func_uint32_t_u_u>:
    9efd:	f3 0f 1e fa          	endbr64 
    9f01:	55                   	push   %rbp
    9f02:	48 89 e5             	mov    %rsp,%rbp
    9f05:	89 7d fc             	mov    %edi,-0x4(%rbp)
    9f08:	89 75 f8             	mov    %esi,-0x8(%rbp)
    9f0b:	83 7d f8 00          	cmpl   $0x0,-0x8(%rbp)
    9f0f:	74 0f                	je     9f20 <safe_mod_func_uint32_t_u_u+0x23>
    9f11:	8b 45 fc             	mov    -0x4(%rbp),%eax
    9f14:	ba 00 00 00 00       	mov    $0x0,%edx
    9f19:	f7 75 f8             	divl   -0x8(%rbp)
    9f1c:	89 d0                	mov    %edx,%eax
    9f1e:	eb 03                	jmp    9f23 <safe_mod_func_uint32_t_u_u+0x26>
    9f20:	8b 45 fc             	mov    -0x4(%rbp),%eax
    9f23:	5d                   	pop    %rbp
    9f24:	c3                   	retq   

0000000000009f25 <safe_div_func_uint32_t_u_u>:
    9f25:	f3 0f 1e fa          	endbr64 
    9f29:	55                   	push   %rbp
    9f2a:	48 89 e5             	mov    %rsp,%rbp
    9f2d:	89 7d fc             	mov    %edi,-0x4(%rbp)
    9f30:	89 75 f8             	mov    %esi,-0x8(%rbp)
    9f33:	83 7d f8 00          	cmpl   $0x0,-0x8(%rbp)
    9f37:	74 0d                	je     9f46 <safe_div_func_uint32_t_u_u+0x21>
    9f39:	8b 45 fc             	mov    -0x4(%rbp),%eax
    9f3c:	ba 00 00 00 00       	mov    $0x0,%edx
    9f41:	f7 75 f8             	divl   -0x8(%rbp)
    9f44:	eb 03                	jmp    9f49 <safe_div_func_uint32_t_u_u+0x24>
    9f46:	8b 45 fc             	mov    -0x4(%rbp),%eax
    9f49:	5d                   	pop    %rbp
    9f4a:	c3                   	retq   

0000000000009f4b <safe_lshift_func_uint32_t_u_s>:
    9f4b:	f3 0f 1e fa          	endbr64 
    9f4f:	55                   	push   %rbp
    9f50:	48 89 e5             	mov    %rsp,%rbp
    9f53:	89 7d fc             	mov    %edi,-0x4(%rbp)
    9f56:	89 75 f8             	mov    %esi,-0x8(%rbp)
    9f59:	83 7d f8 00          	cmpl   $0x0,-0x8(%rbp)
    9f5d:	78 27                	js     9f86 <safe_lshift_func_uint32_t_u_s+0x3b>
    9f5f:	83 7d f8 1f          	cmpl   $0x1f,-0x8(%rbp)
    9f63:	7f 21                	jg     9f86 <safe_lshift_func_uint32_t_u_s+0x3b>
    9f65:	8b 45 f8             	mov    -0x8(%rbp),%eax
    9f68:	ba ff ff ff ff       	mov    $0xffffffff,%edx
    9f6d:	89 c1                	mov    %eax,%ecx
    9f6f:	d3 ea                	shr    %cl,%edx
    9f71:	89 d0                	mov    %edx,%eax
    9f73:	39 45 fc             	cmp    %eax,-0x4(%rbp)
    9f76:	77 0e                	ja     9f86 <safe_lshift_func_uint32_t_u_s+0x3b>
    9f78:	8b 45 f8             	mov    -0x8(%rbp),%eax
    9f7b:	8b 55 fc             	mov    -0x4(%rbp),%edx
    9f7e:	89 c1                	mov    %eax,%ecx
    9f80:	d3 e2                	shl    %cl,%edx
    9f82:	89 d0                	mov    %edx,%eax
    9f84:	eb 03                	jmp    9f89 <safe_lshift_func_uint32_t_u_s+0x3e>
    9f86:	8b 45 fc             	mov    -0x4(%rbp),%eax
    9f89:	5d                   	pop    %rbp
    9f8a:	c3                   	retq   

0000000000009f8b <safe_lshift_func_uint32_t_u_u>:
    9f8b:	f3 0f 1e fa          	endbr64 
    9f8f:	55                   	push   %rbp
    9f90:	48 89 e5             	mov    %rsp,%rbp
    9f93:	89 7d fc             	mov    %edi,-0x4(%rbp)
    9f96:	89 75 f8             	mov    %esi,-0x8(%rbp)
    9f99:	83 7d f8 1f          	cmpl   $0x1f,-0x8(%rbp)
    9f9d:	77 21                	ja     9fc0 <safe_lshift_func_uint32_t_u_u+0x35>
    9f9f:	8b 45 f8             	mov    -0x8(%rbp),%eax
    9fa2:	ba ff ff ff ff       	mov    $0xffffffff,%edx
    9fa7:	89 c1                	mov    %eax,%ecx
    9fa9:	d3 ea                	shr    %cl,%edx
    9fab:	89 d0                	mov    %edx,%eax
    9fad:	39 45 fc             	cmp    %eax,-0x4(%rbp)
    9fb0:	77 0e                	ja     9fc0 <safe_lshift_func_uint32_t_u_u+0x35>
    9fb2:	8b 45 f8             	mov    -0x8(%rbp),%eax
    9fb5:	8b 55 fc             	mov    -0x4(%rbp),%edx
    9fb8:	89 c1                	mov    %eax,%ecx
    9fba:	d3 e2                	shl    %cl,%edx
    9fbc:	89 d0                	mov    %edx,%eax
    9fbe:	eb 03                	jmp    9fc3 <safe_lshift_func_uint32_t_u_u+0x38>
    9fc0:	8b 45 fc             	mov    -0x4(%rbp),%eax
    9fc3:	5d                   	pop    %rbp
    9fc4:	c3                   	retq   

0000000000009fc5 <safe_rshift_func_uint32_t_u_s>:
    9fc5:	f3 0f 1e fa          	endbr64 
    9fc9:	55                   	push   %rbp
    9fca:	48 89 e5             	mov    %rsp,%rbp
    9fcd:	89 7d fc             	mov    %edi,-0x4(%rbp)
    9fd0:	89 75 f8             	mov    %esi,-0x8(%rbp)
    9fd3:	83 7d f8 00          	cmpl   $0x0,-0x8(%rbp)
    9fd7:	78 14                	js     9fed <safe_rshift_func_uint32_t_u_s+0x28>
    9fd9:	83 7d f8 1f          	cmpl   $0x1f,-0x8(%rbp)
    9fdd:	7f 0e                	jg     9fed <safe_rshift_func_uint32_t_u_s+0x28>
    9fdf:	8b 45 f8             	mov    -0x8(%rbp),%eax
    9fe2:	8b 55 fc             	mov    -0x4(%rbp),%edx
    9fe5:	89 c1                	mov    %eax,%ecx
    9fe7:	d3 ea                	shr    %cl,%edx
    9fe9:	89 d0                	mov    %edx,%eax
    9feb:	eb 03                	jmp    9ff0 <safe_rshift_func_uint32_t_u_s+0x2b>
    9fed:	8b 45 fc             	mov    -0x4(%rbp),%eax
    9ff0:	5d                   	pop    %rbp
    9ff1:	c3                   	retq   

0000000000009ff2 <safe_rshift_func_uint32_t_u_u>:
    9ff2:	f3 0f 1e fa          	endbr64 
    9ff6:	55                   	push   %rbp
    9ff7:	48 89 e5             	mov    %rsp,%rbp
    9ffa:	89 7d fc             	mov    %edi,-0x4(%rbp)
    9ffd:	89 75 f8             	mov    %esi,-0x8(%rbp)
    a000:	83 7d f8 1f          	cmpl   $0x1f,-0x8(%rbp)
    a004:	77 0e                	ja     a014 <safe_rshift_func_uint32_t_u_u+0x22>
    a006:	8b 45 f8             	mov    -0x8(%rbp),%eax
    a009:	8b 55 fc             	mov    -0x4(%rbp),%edx
    a00c:	89 c1                	mov    %eax,%ecx
    a00e:	d3 ea                	shr    %cl,%edx
    a010:	89 d0                	mov    %edx,%eax
    a012:	eb 03                	jmp    a017 <safe_rshift_func_uint32_t_u_u+0x25>
    a014:	8b 45 fc             	mov    -0x4(%rbp),%eax
    a017:	5d                   	pop    %rbp
    a018:	c3                   	retq   

000000000000a019 <safe_unary_minus_func_uint64_t_u>:
    a019:	f3 0f 1e fa          	endbr64 
    a01d:	55                   	push   %rbp
    a01e:	48 89 e5             	mov    %rsp,%rbp
    a021:	48 89 7d f8          	mov    %rdi,-0x8(%rbp)
    a025:	48 8b 45 f8          	mov    -0x8(%rbp),%rax
    a029:	48 f7 d8             	neg    %rax
    a02c:	5d                   	pop    %rbp
    a02d:	c3                   	retq   

000000000000a02e <safe_add_func_uint64_t_u_u>:
    a02e:	f3 0f 1e fa          	endbr64 
    a032:	55                   	push   %rbp
    a033:	48 89 e5             	mov    %rsp,%rbp
    a036:	48 89 7d f8          	mov    %rdi,-0x8(%rbp)
    a03a:	48 89 75 f0          	mov    %rsi,-0x10(%rbp)
    a03e:	48 8b 55 f8          	mov    -0x8(%rbp),%rdx
    a042:	48 8b 45 f0          	mov    -0x10(%rbp),%rax
    a046:	48 01 d0             	add    %rdx,%rax
    a049:	5d                   	pop    %rbp
    a04a:	c3                   	retq   

000000000000a04b <safe_sub_func_uint64_t_u_u>:
    a04b:	f3 0f 1e fa          	endbr64 
    a04f:	55                   	push   %rbp
    a050:	48 89 e5             	mov    %rsp,%rbp
    a053:	48 89 7d f8          	mov    %rdi,-0x8(%rbp)
    a057:	48 89 75 f0          	mov    %rsi,-0x10(%rbp)
    a05b:	48 8b 45 f8          	mov    -0x8(%rbp),%rax
    a05f:	48 2b 45 f0          	sub    -0x10(%rbp),%rax
    a063:	5d                   	pop    %rbp
    a064:	c3                   	retq   

000000000000a065 <safe_mul_func_uint64_t_u_u>:
    a065:	f3 0f 1e fa          	endbr64 
    a069:	55                   	push   %rbp
    a06a:	48 89 e5             	mov    %rsp,%rbp
    a06d:	48 89 7d f8          	mov    %rdi,-0x8(%rbp)
    a071:	48 89 75 f0          	mov    %rsi,-0x10(%rbp)
    a075:	48 8b 45 f8          	mov    -0x8(%rbp),%rax
    a079:	48 0f af 45 f0       	imul   -0x10(%rbp),%rax
    a07e:	5d                   	pop    %rbp
    a07f:	c3                   	retq   

000000000000a080 <safe_mod_func_uint64_t_u_u>:
    a080:	f3 0f 1e fa          	endbr64 
    a084:	55                   	push   %rbp
    a085:	48 89 e5             	mov    %rsp,%rbp
    a088:	48 89 7d f8          	mov    %rdi,-0x8(%rbp)
    a08c:	48 89 75 f0          	mov    %rsi,-0x10(%rbp)
    a090:	48 83 7d f0 00       	cmpq   $0x0,-0x10(%rbp)
    a095:	74 12                	je     a0a9 <safe_mod_func_uint64_t_u_u+0x29>
    a097:	48 8b 45 f8          	mov    -0x8(%rbp),%rax
    a09b:	ba 00 00 00 00       	mov    $0x0,%edx
    a0a0:	48 f7 75 f0          	divq   -0x10(%rbp)
    a0a4:	48 89 d0             	mov    %rdx,%rax
    a0a7:	eb 04                	jmp    a0ad <safe_mod_func_uint64_t_u_u+0x2d>
    a0a9:	48 8b 45 f8          	mov    -0x8(%rbp),%rax
    a0ad:	5d                   	pop    %rbp
    a0ae:	c3                   	retq   

000000000000a0af <safe_div_func_uint64_t_u_u>:
    a0af:	f3 0f 1e fa          	endbr64 
    a0b3:	55                   	push   %rbp
    a0b4:	48 89 e5             	mov    %rsp,%rbp
    a0b7:	48 89 7d f8          	mov    %rdi,-0x8(%rbp)
    a0bb:	48 89 75 f0          	mov    %rsi,-0x10(%rbp)
    a0bf:	48 83 7d f0 00       	cmpq   $0x0,-0x10(%rbp)
    a0c4:	74 0f                	je     a0d5 <safe_div_func_uint64_t_u_u+0x26>
    a0c6:	48 8b 45 f8          	mov    -0x8(%rbp),%rax
    a0ca:	ba 00 00 00 00       	mov    $0x0,%edx
    a0cf:	48 f7 75 f0          	divq   -0x10(%rbp)
    a0d3:	eb 04                	jmp    a0d9 <safe_div_func_uint64_t_u_u+0x2a>
    a0d5:	48 8b 45 f8          	mov    -0x8(%rbp),%rax
    a0d9:	5d                   	pop    %rbp
    a0da:	c3                   	retq   

000000000000a0db <safe_lshift_func_uint64_t_u_s>:
    a0db:	f3 0f 1e fa          	endbr64 
    a0df:	55                   	push   %rbp
    a0e0:	48 89 e5             	mov    %rsp,%rbp
    a0e3:	48 89 7d f8          	mov    %rdi,-0x8(%rbp)
    a0e7:	89 75 f4             	mov    %esi,-0xc(%rbp)
    a0ea:	83 7d f4 00          	cmpl   $0x0,-0xc(%rbp)
    a0ee:	78 2f                	js     a11f <safe_lshift_func_uint64_t_u_s+0x44>
    a0f0:	83 7d f4 1f          	cmpl   $0x1f,-0xc(%rbp)
    a0f4:	7f 29                	jg     a11f <safe_lshift_func_uint64_t_u_s+0x44>
    a0f6:	8b 45 f4             	mov    -0xc(%rbp),%eax
    a0f9:	48 c7 c2 ff ff ff ff 	mov    $0xffffffffffffffff,%rdx
    a100:	89 c1                	mov    %eax,%ecx
    a102:	48 d3 ea             	shr    %cl,%rdx
    a105:	48 89 d0             	mov    %rdx,%rax
    a108:	48 39 45 f8          	cmp    %rax,-0x8(%rbp)
    a10c:	77 11                	ja     a11f <safe_lshift_func_uint64_t_u_s+0x44>
    a10e:	8b 45 f4             	mov    -0xc(%rbp),%eax
    a111:	48 8b 55 f8          	mov    -0x8(%rbp),%rdx
    a115:	89 c1                	mov    %eax,%ecx
    a117:	48 d3 e2             	shl    %cl,%rdx
    a11a:	48 89 d0             	mov    %rdx,%rax
    a11d:	eb 04                	jmp    a123 <safe_lshift_func_uint64_t_u_s+0x48>
    a11f:	48 8b 45 f8          	mov    -0x8(%rbp),%rax
    a123:	5d                   	pop    %rbp
    a124:	c3                   	retq   

000000000000a125 <safe_lshift_func_uint64_t_u_u>:
    a125:	f3 0f 1e fa          	endbr64 
    a129:	55                   	push   %rbp
    a12a:	48 89 e5             	mov    %rsp,%rbp
    a12d:	48 89 7d f8          	mov    %rdi,-0x8(%rbp)
    a131:	89 75 f4             	mov    %esi,-0xc(%rbp)
    a134:	83 7d f4 1f          	cmpl   $0x1f,-0xc(%rbp)
    a138:	77 29                	ja     a163 <safe_lshift_func_uint64_t_u_u+0x3e>
    a13a:	8b 45 f4             	mov    -0xc(%rbp),%eax
    a13d:	48 c7 c2 ff ff ff ff 	mov    $0xffffffffffffffff,%rdx
    a144:	89 c1                	mov    %eax,%ecx
    a146:	48 d3 ea             	shr    %cl,%rdx
    a149:	48 89 d0             	mov    %rdx,%rax
    a14c:	48 39 45 f8          	cmp    %rax,-0x8(%rbp)
    a150:	77 11                	ja     a163 <safe_lshift_func_uint64_t_u_u+0x3e>
    a152:	8b 45 f4             	mov    -0xc(%rbp),%eax
    a155:	48 8b 55 f8          	mov    -0x8(%rbp),%rdx
    a159:	89 c1                	mov    %eax,%ecx
    a15b:	48 d3 e2             	shl    %cl,%rdx
    a15e:	48 89 d0             	mov    %rdx,%rax
    a161:	eb 04                	jmp    a167 <safe_lshift_func_uint64_t_u_u+0x42>
    a163:	48 8b 45 f8          	mov    -0x8(%rbp),%rax
    a167:	5d                   	pop    %rbp
    a168:	c3                   	retq   

000000000000a169 <safe_rshift_func_uint64_t_u_s>:
    a169:	f3 0f 1e fa          	endbr64 
    a16d:	55                   	push   %rbp
    a16e:	48 89 e5             	mov    %rsp,%rbp
    a171:	48 89 7d f8          	mov    %rdi,-0x8(%rbp)
    a175:	89 75 f4             	mov    %esi,-0xc(%rbp)
    a178:	83 7d f4 00          	cmpl   $0x0,-0xc(%rbp)
    a17c:	78 17                	js     a195 <safe_rshift_func_uint64_t_u_s+0x2c>
    a17e:	83 7d f4 1f          	cmpl   $0x1f,-0xc(%rbp)
    a182:	7f 11                	jg     a195 <safe_rshift_func_uint64_t_u_s+0x2c>
    a184:	8b 45 f4             	mov    -0xc(%rbp),%eax
    a187:	48 8b 55 f8          	mov    -0x8(%rbp),%rdx
    a18b:	89 c1                	mov    %eax,%ecx
    a18d:	48 d3 ea             	shr    %cl,%rdx
    a190:	48 89 d0             	mov    %rdx,%rax
    a193:	eb 04                	jmp    a199 <safe_rshift_func_uint64_t_u_s+0x30>
    a195:	48 8b 45 f8          	mov    -0x8(%rbp),%rax
    a199:	5d                   	pop    %rbp
    a19a:	c3                   	retq   

000000000000a19b <safe_rshift_func_uint64_t_u_u>:
    a19b:	f3 0f 1e fa          	endbr64 
    a19f:	55                   	push   %rbp
    a1a0:	48 89 e5             	mov    %rsp,%rbp
    a1a3:	48 89 7d f8          	mov    %rdi,-0x8(%rbp)
    a1a7:	89 75 f4             	mov    %esi,-0xc(%rbp)
    a1aa:	83 7d f4 1f          	cmpl   $0x1f,-0xc(%rbp)
    a1ae:	77 11                	ja     a1c1 <safe_rshift_func_uint64_t_u_u+0x26>
    a1b0:	8b 45 f4             	mov    -0xc(%rbp),%eax
    a1b3:	48 8b 55 f8          	mov    -0x8(%rbp),%rdx
    a1b7:	89 c1                	mov    %eax,%ecx
    a1b9:	48 d3 ea             	shr    %cl,%rdx
    a1bc:	48 89 d0             	mov    %rdx,%rax
    a1bf:	eb 04                	jmp    a1c5 <safe_rshift_func_uint64_t_u_u+0x2a>
    a1c1:	48 8b 45 f8          	mov    -0x8(%rbp),%rax
    a1c5:	5d                   	pop    %rbp
    a1c6:	c3                   	retq   

000000000000a1c7 <safe_add_func_float_f_f>:
    a1c7:	f3 0f 1e fa          	endbr64 
    a1cb:	55                   	push   %rbp
    a1cc:	48 89 e5             	mov    %rsp,%rbp
    a1cf:	f3 0f 11 45 fc       	movss  %xmm0,-0x4(%rbp)
    a1d4:	f3 0f 11 4d f8       	movss  %xmm1,-0x8(%rbp)
    a1d9:	f3 0f 10 4d fc       	movss  -0x4(%rbp),%xmm1
    a1de:	f3 0f 10 05 06 e6 00 	movss  0xe606(%rip),%xmm0        # 187ec <l_18.4195+0x2c>
    a1e5:	00 
    a1e6:	f3 0f 59 c8          	mulss  %xmm0,%xmm1
    a1ea:	f3 0f 10 55 f8       	movss  -0x8(%rbp),%xmm2
    a1ef:	f3 0f 10 05 f5 e5 00 	movss  0xe5f5(%rip),%xmm0        # 187ec <l_18.4195+0x2c>
    a1f6:	00 
    a1f7:	f3 0f 59 c2          	mulss  %xmm2,%xmm0
    a1fb:	f3 0f 58 c1          	addss  %xmm1,%xmm0
    a1ff:	f3 0f 10 0d e9 e5 00 	movss  0xe5e9(%rip),%xmm1        # 187f0 <l_18.4195+0x30>
    a206:	00 
    a207:	0f 54 c1             	andps  %xmm1,%xmm0
    a20a:	0f 2f 05 ef e5 00 00 	comiss 0xe5ef(%rip),%xmm0        # 18800 <l_18.4195+0x40>
    a211:	76 07                	jbe    a21a <safe_add_func_float_f_f+0x53>
    a213:	f3 0f 10 45 fc       	movss  -0x4(%rbp),%xmm0
    a218:	eb 0a                	jmp    a224 <safe_add_func_float_f_f+0x5d>
    a21a:	f3 0f 10 45 fc       	movss  -0x4(%rbp),%xmm0
    a21f:	f3 0f 58 45 f8       	addss  -0x8(%rbp),%xmm0
    a224:	5d                   	pop    %rbp
    a225:	c3                   	retq   

000000000000a226 <safe_sub_func_float_f_f>:
    a226:	f3 0f 1e fa          	endbr64 
    a22a:	55                   	push   %rbp
    a22b:	48 89 e5             	mov    %rsp,%rbp
    a22e:	f3 0f 11 45 fc       	movss  %xmm0,-0x4(%rbp)
    a233:	f3 0f 11 4d f8       	movss  %xmm1,-0x8(%rbp)
    a238:	f3 0f 10 4d fc       	movss  -0x4(%rbp),%xmm1
    a23d:	f3 0f 10 05 a7 e5 00 	movss  0xe5a7(%rip),%xmm0        # 187ec <l_18.4195+0x2c>
    a244:	00 
    a245:	f3 0f 59 c1          	mulss  %xmm1,%xmm0
    a249:	f3 0f 10 55 f8       	movss  -0x8(%rbp),%xmm2
    a24e:	f3 0f 10 0d 96 e5 00 	movss  0xe596(%rip),%xmm1        # 187ec <l_18.4195+0x2c>
    a255:	00 
    a256:	f3 0f 59 ca          	mulss  %xmm2,%xmm1
    a25a:	f3 0f 5c c1          	subss  %xmm1,%xmm0
    a25e:	f3 0f 10 0d 8a e5 00 	movss  0xe58a(%rip),%xmm1        # 187f0 <l_18.4195+0x30>
    a265:	00 
    a266:	0f 54 c1             	andps  %xmm1,%xmm0
    a269:	0f 2f 05 90 e5 00 00 	comiss 0xe590(%rip),%xmm0        # 18800 <l_18.4195+0x40>
    a270:	76 07                	jbe    a279 <safe_sub_func_float_f_f+0x53>
    a272:	f3 0f 10 45 fc       	movss  -0x4(%rbp),%xmm0
    a277:	eb 0a                	jmp    a283 <safe_sub_func_float_f_f+0x5d>
    a279:	f3 0f 10 45 fc       	movss  -0x4(%rbp),%xmm0
    a27e:	f3 0f 5c 45 f8       	subss  -0x8(%rbp),%xmm0
    a283:	5d                   	pop    %rbp
    a284:	c3                   	retq   

000000000000a285 <safe_mul_func_float_f_f>:
    a285:	f3 0f 1e fa          	endbr64 
    a289:	55                   	push   %rbp
    a28a:	48 89 e5             	mov    %rsp,%rbp
    a28d:	f3 0f 11 45 fc       	movss  %xmm0,-0x4(%rbp)
    a292:	f3 0f 11 4d f8       	movss  %xmm1,-0x8(%rbp)
    a297:	f3 0f 10 4d fc       	movss  -0x4(%rbp),%xmm1
    a29c:	f3 0f 10 05 60 e5 00 	movss  0xe560(%rip),%xmm0        # 18804 <l_18.4195+0x44>
    a2a3:	00 
    a2a4:	f3 0f 59 c8          	mulss  %xmm0,%xmm1
    a2a8:	f3 0f 10 55 f8       	movss  -0x8(%rbp),%xmm2
    a2ad:	f3 0f 10 05 53 e5 00 	movss  0xe553(%rip),%xmm0        # 18808 <l_18.4195+0x48>
    a2b4:	00 
    a2b5:	f3 0f 59 c2          	mulss  %xmm2,%xmm0
    a2b9:	f3 0f 59 c1          	mulss  %xmm1,%xmm0
    a2bd:	f3 0f 10 0d 2b e5 00 	movss  0xe52b(%rip),%xmm1        # 187f0 <l_18.4195+0x30>
    a2c4:	00 
    a2c5:	0f 54 c1             	andps  %xmm1,%xmm0
    a2c8:	0f 2f 05 3d e5 00 00 	comiss 0xe53d(%rip),%xmm0        # 1880c <l_18.4195+0x4c>
    a2cf:	76 07                	jbe    a2d8 <safe_mul_func_float_f_f+0x53>
    a2d1:	f3 0f 10 45 fc       	movss  -0x4(%rbp),%xmm0
    a2d6:	eb 0a                	jmp    a2e2 <safe_mul_func_float_f_f+0x5d>
    a2d8:	f3 0f 10 45 fc       	movss  -0x4(%rbp),%xmm0
    a2dd:	f3 0f 59 45 f8       	mulss  -0x8(%rbp),%xmm0
    a2e2:	5d                   	pop    %rbp
    a2e3:	c3                   	retq   

000000000000a2e4 <safe_div_func_float_f_f>:
    a2e4:	f3 0f 1e fa          	endbr64 
    a2e8:	55                   	push   %rbp
    a2e9:	48 89 e5             	mov    %rsp,%rbp
    a2ec:	f3 0f 11 45 fc       	movss  %xmm0,-0x4(%rbp)
    a2f1:	f3 0f 11 4d f8       	movss  %xmm1,-0x8(%rbp)
    a2f6:	f3 0f 10 45 f8       	movss  -0x8(%rbp),%xmm0
    a2fb:	f3 0f 10 0d ed e4 00 	movss  0xe4ed(%rip),%xmm1        # 187f0 <l_18.4195+0x30>
    a302:	00 
    a303:	0f 54 c8             	andps  %xmm0,%xmm1
    a306:	f3 0f 10 05 02 e5 00 	movss  0xe502(%rip),%xmm0        # 18810 <l_18.4195+0x50>
    a30d:	00 
    a30e:	0f 2f c1             	comiss %xmm1,%xmm0
    a311:	0f 97 c0             	seta   %al
    a314:	83 f0 01             	xor    $0x1,%eax
    a317:	84 c0                	test   %al,%al
    a319:	75 56                	jne    a371 <safe_div_func_float_f_f+0x8d>
    a31b:	66 0f ef c0          	pxor   %xmm0,%xmm0
    a31f:	0f 2e 45 f8          	ucomiss -0x8(%rbp),%xmm0
    a323:	7a 0a                	jp     a32f <safe_div_func_float_f_f+0x4b>
    a325:	66 0f ef c0          	pxor   %xmm0,%xmm0
    a329:	0f 2e 45 f8          	ucomiss -0x8(%rbp),%xmm0
    a32d:	74 4e                	je     a37d <safe_div_func_float_f_f+0x99>
    a32f:	f3 0f 10 4d fc       	movss  -0x4(%rbp),%xmm1
    a334:	f3 0f 10 05 d8 e4 00 	movss  0xe4d8(%rip),%xmm0        # 18814 <l_18.4195+0x54>
    a33b:	00 
    a33c:	f3 0f 59 c1          	mulss  %xmm1,%xmm0
    a340:	f3 0f 10 55 f8       	movss  -0x8(%rbp),%xmm2
    a345:	f3 0f 10 0d cb e4 00 	movss  0xe4cb(%rip),%xmm1        # 18818 <l_18.4195+0x58>
    a34c:	00 
    a34d:	f3 0f 59 ca          	mulss  %xmm2,%xmm1
    a351:	f3 0f 5e c1          	divss  %xmm1,%xmm0
    a355:	f3 0f 10 0d 93 e4 00 	movss  0xe493(%rip),%xmm1        # 187f0 <l_18.4195+0x30>
    a35c:	00 
    a35d:	0f 54 c1             	andps  %xmm1,%xmm0
    a360:	0f 2f 05 b5 e4 00 00 	comiss 0xe4b5(%rip),%xmm0        # 1881c <l_18.4195+0x5c>
    a367:	0f 97 c0             	seta   %al
    a36a:	83 f0 01             	xor    $0x1,%eax
    a36d:	84 c0                	test   %al,%al
    a36f:	74 0c                	je     a37d <safe_div_func_float_f_f+0x99>
    a371:	f3 0f 10 45 fc       	movss  -0x4(%rbp),%xmm0
    a376:	f3 0f 5e 45 f8       	divss  -0x8(%rbp),%xmm0
    a37b:	eb 05                	jmp    a382 <safe_div_func_float_f_f+0x9e>
    a37d:	f3 0f 10 45 fc       	movss  -0x4(%rbp),%xmm0
    a382:	5d                   	pop    %rbp
    a383:	c3                   	retq   

000000000000a384 <safe_add_func_double_f_f>:
    a384:	f3 0f 1e fa          	endbr64 
    a388:	55                   	push   %rbp
    a389:	48 89 e5             	mov    %rsp,%rbp
    a38c:	f2 0f 11 45 f8       	movsd  %xmm0,-0x8(%rbp)
    a391:	f2 0f 11 4d f0       	movsd  %xmm1,-0x10(%rbp)
    a396:	f2 0f 10 4d f8       	movsd  -0x8(%rbp),%xmm1
    a39b:	f2 0f 10 05 7d e4 00 	movsd  0xe47d(%rip),%xmm0        # 18820 <l_18.4195+0x60>
    a3a2:	00 
    a3a3:	f2 0f 59 c8          	mulsd  %xmm0,%xmm1
    a3a7:	f2 0f 10 55 f0       	movsd  -0x10(%rbp),%xmm2
    a3ac:	f2 0f 10 05 6c e4 00 	movsd  0xe46c(%rip),%xmm0        # 18820 <l_18.4195+0x60>
    a3b3:	00 
    a3b4:	f2 0f 59 c2          	mulsd  %xmm2,%xmm0
    a3b8:	f2 0f 58 c1          	addsd  %xmm1,%xmm0
    a3bc:	f3 0f 7e 0d 6c e4 00 	movq   0xe46c(%rip),%xmm1        # 18830 <l_18.4195+0x70>
    a3c3:	00 
    a3c4:	66 0f 54 c1          	andpd  %xmm1,%xmm0
    a3c8:	66 0f 2f 05 70 e4 00 	comisd 0xe470(%rip),%xmm0        # 18840 <l_18.4195+0x80>
    a3cf:	00 
    a3d0:	76 07                	jbe    a3d9 <safe_add_func_double_f_f+0x55>
    a3d2:	f2 0f 10 45 f8       	movsd  -0x8(%rbp),%xmm0
    a3d7:	eb 0a                	jmp    a3e3 <safe_add_func_double_f_f+0x5f>
    a3d9:	f2 0f 10 45 f8       	movsd  -0x8(%rbp),%xmm0
    a3de:	f2 0f 58 45 f0       	addsd  -0x10(%rbp),%xmm0
    a3e3:	5d                   	pop    %rbp
    a3e4:	c3                   	retq   

000000000000a3e5 <safe_sub_func_double_f_f>:
    a3e5:	f3 0f 1e fa          	endbr64 
    a3e9:	55                   	push   %rbp
    a3ea:	48 89 e5             	mov    %rsp,%rbp
    a3ed:	f2 0f 11 45 f8       	movsd  %xmm0,-0x8(%rbp)
    a3f2:	f2 0f 11 4d f0       	movsd  %xmm1,-0x10(%rbp)
    a3f7:	f2 0f 10 4d f8       	movsd  -0x8(%rbp),%xmm1
    a3fc:	f2 0f 10 05 1c e4 00 	movsd  0xe41c(%rip),%xmm0        # 18820 <l_18.4195+0x60>
    a403:	00 
    a404:	f2 0f 59 c1          	mulsd  %xmm1,%xmm0
    a408:	f2 0f 10 55 f0       	movsd  -0x10(%rbp),%xmm2
    a40d:	f2 0f 10 0d 0b e4 00 	movsd  0xe40b(%rip),%xmm1        # 18820 <l_18.4195+0x60>
    a414:	00 
    a415:	f2 0f 59 ca          	mulsd  %xmm2,%xmm1
    a419:	f2 0f 5c c1          	subsd  %xmm1,%xmm0
    a41d:	f3 0f 7e 0d 0b e4 00 	movq   0xe40b(%rip),%xmm1        # 18830 <l_18.4195+0x70>
    a424:	00 
    a425:	66 0f 54 c1          	andpd  %xmm1,%xmm0
    a429:	66 0f 2f 05 0f e4 00 	comisd 0xe40f(%rip),%xmm0        # 18840 <l_18.4195+0x80>
    a430:	00 
    a431:	76 07                	jbe    a43a <safe_sub_func_double_f_f+0x55>
    a433:	f2 0f 10 45 f8       	movsd  -0x8(%rbp),%xmm0
    a438:	eb 0a                	jmp    a444 <safe_sub_func_double_f_f+0x5f>
    a43a:	f2 0f 10 45 f8       	movsd  -0x8(%rbp),%xmm0
    a43f:	f2 0f 5c 45 f0       	subsd  -0x10(%rbp),%xmm0
    a444:	5d                   	pop    %rbp
    a445:	c3                   	retq   

000000000000a446 <safe_mul_func_double_f_f>:
    a446:	f3 0f 1e fa          	endbr64 
    a44a:	55                   	push   %rbp
    a44b:	48 89 e5             	mov    %rsp,%rbp
    a44e:	f2 0f 11 45 f8       	movsd  %xmm0,-0x8(%rbp)
    a453:	f2 0f 11 4d f0       	movsd  %xmm1,-0x10(%rbp)
    a458:	f2 0f 10 4d f8       	movsd  -0x8(%rbp),%xmm1
    a45d:	f2 0f 10 05 e3 e3 00 	movsd  0xe3e3(%rip),%xmm0        # 18848 <l_18.4195+0x88>
    a464:	00 
    a465:	f2 0f 59 c8          	mulsd  %xmm0,%xmm1
    a469:	f2 0f 10 55 f0       	movsd  -0x10(%rbp),%xmm2
    a46e:	f2 0f 10 05 da e3 00 	movsd  0xe3da(%rip),%xmm0        # 18850 <l_18.4195+0x90>
    a475:	00 
    a476:	f2 0f 59 c2          	mulsd  %xmm2,%xmm0
    a47a:	f2 0f 59 c1          	mulsd  %xmm1,%xmm0
    a47e:	f3 0f 7e 0d aa e3 00 	movq   0xe3aa(%rip),%xmm1        # 18830 <l_18.4195+0x70>
    a485:	00 
    a486:	66 0f 54 c1          	andpd  %xmm1,%xmm0
    a48a:	66 0f 2f 05 c6 e3 00 	comisd 0xe3c6(%rip),%xmm0        # 18858 <l_18.4195+0x98>
    a491:	00 
    a492:	76 07                	jbe    a49b <safe_mul_func_double_f_f+0x55>
    a494:	f2 0f 10 45 f8       	movsd  -0x8(%rbp),%xmm0
    a499:	eb 0a                	jmp    a4a5 <safe_mul_func_double_f_f+0x5f>
    a49b:	f2 0f 10 45 f8       	movsd  -0x8(%rbp),%xmm0
    a4a0:	f2 0f 59 45 f0       	mulsd  -0x10(%rbp),%xmm0
    a4a5:	5d                   	pop    %rbp
    a4a6:	c3                   	retq   

000000000000a4a7 <safe_div_func_double_f_f>:
    a4a7:	f3 0f 1e fa          	endbr64 
    a4ab:	55                   	push   %rbp
    a4ac:	48 89 e5             	mov    %rsp,%rbp
    a4af:	f2 0f 11 45 f8       	movsd  %xmm0,-0x8(%rbp)
    a4b4:	f2 0f 11 4d f0       	movsd  %xmm1,-0x10(%rbp)
    a4b9:	f2 0f 10 45 f0       	movsd  -0x10(%rbp),%xmm0
    a4be:	f3 0f 7e 0d 6a e3 00 	movq   0xe36a(%rip),%xmm1        # 18830 <l_18.4195+0x70>
    a4c5:	00 
    a4c6:	66 0f 54 c8          	andpd  %xmm0,%xmm1
    a4ca:	f2 0f 10 05 8e e3 00 	movsd  0xe38e(%rip),%xmm0        # 18860 <l_18.4195+0xa0>
    a4d1:	00 
    a4d2:	66 0f 2f c1          	comisd %xmm1,%xmm0
    a4d6:	0f 97 c0             	seta   %al
    a4d9:	83 f0 01             	xor    $0x1,%eax
    a4dc:	84 c0                	test   %al,%al
    a4de:	75 5a                	jne    a53a <safe_div_func_double_f_f+0x93>
    a4e0:	66 0f ef c0          	pxor   %xmm0,%xmm0
    a4e4:	66 0f 2e 45 f0       	ucomisd -0x10(%rbp),%xmm0
    a4e9:	7a 0b                	jp     a4f6 <safe_div_func_double_f_f+0x4f>
    a4eb:	66 0f ef c0          	pxor   %xmm0,%xmm0
    a4ef:	66 0f 2e 45 f0       	ucomisd -0x10(%rbp),%xmm0
    a4f4:	74 50                	je     a546 <safe_div_func_double_f_f+0x9f>
    a4f6:	f2 0f 10 4d f8       	movsd  -0x8(%rbp),%xmm1
    a4fb:	f2 0f 10 05 65 e3 00 	movsd  0xe365(%rip),%xmm0        # 18868 <l_18.4195+0xa8>
    a502:	00 
    a503:	f2 0f 59 c1          	mulsd  %xmm1,%xmm0
    a507:	f2 0f 10 55 f0       	movsd  -0x10(%rbp),%xmm2
    a50c:	f2 0f 10 0d 5c e3 00 	movsd  0xe35c(%rip),%xmm1        # 18870 <l_18.4195+0xb0>
    a513:	00 
    a514:	f2 0f 59 ca          	mulsd  %xmm2,%xmm1
    a518:	f2 0f 5e c1          	divsd  %xmm1,%xmm0
    a51c:	f3 0f 7e 0d 0c e3 00 	movq   0xe30c(%rip),%xmm1        # 18830 <l_18.4195+0x70>
    a523:	00 
    a524:	66 0f 54 c1          	andpd  %xmm1,%xmm0
    a528:	66 0f 2f 05 48 e3 00 	comisd 0xe348(%rip),%xmm0        # 18878 <l_18.4195+0xb8>
    a52f:	00 
    a530:	0f 97 c0             	seta   %al
    a533:	83 f0 01             	xor    $0x1,%eax
    a536:	84 c0                	test   %al,%al
    a538:	74 0c                	je     a546 <safe_div_func_double_f_f+0x9f>
    a53a:	f2 0f 10 45 f8       	movsd  -0x8(%rbp),%xmm0
    a53f:	f2 0f 5e 45 f0       	divsd  -0x10(%rbp),%xmm0
    a544:	eb 05                	jmp    a54b <safe_div_func_double_f_f+0xa4>
    a546:	f2 0f 10 45 f8       	movsd  -0x8(%rbp),%xmm0
    a54b:	5d                   	pop    %rbp
    a54c:	c3                   	retq   

000000000000a54d <safe_convert_func_float_to_int32_t>:
    a54d:	f3 0f 1e fa          	endbr64 
    a551:	55                   	push   %rbp
    a552:	48 89 e5             	mov    %rsp,%rbp
    a555:	f3 0f 11 45 fc       	movss  %xmm0,-0x4(%rbp)
    a55a:	f3 0f 10 05 1e e3 00 	movss  0xe31e(%rip),%xmm0        # 18880 <l_18.4195+0xc0>
    a561:	00 
    a562:	0f 2f 45 fc          	comiss -0x4(%rbp),%xmm0
    a566:	0f 93 c0             	setae  %al
    a569:	83 f0 01             	xor    $0x1,%eax
    a56c:	84 c0                	test   %al,%al
    a56e:	74 21                	je     a591 <safe_convert_func_float_to_int32_t+0x44>
    a570:	f3 0f 10 45 fc       	movss  -0x4(%rbp),%xmm0
    a575:	0f 2f 05 08 e3 00 00 	comiss 0xe308(%rip),%xmm0        # 18884 <l_18.4195+0xc4>
    a57c:	0f 93 c0             	setae  %al
    a57f:	83 f0 01             	xor    $0x1,%eax
    a582:	84 c0                	test   %al,%al
    a584:	74 0b                	je     a591 <safe_convert_func_float_to_int32_t+0x44>
    a586:	f3 0f 10 45 fc       	movss  -0x4(%rbp),%xmm0
    a58b:	f3 0f 2c c0          	cvttss2si %xmm0,%eax
    a58f:	eb 05                	jmp    a596 <safe_convert_func_float_to_int32_t+0x49>
    a591:	b8 ff ff ff 7f       	mov    $0x7fffffff,%eax
    a596:	5d                   	pop    %rbp
    a597:	c3                   	retq   

000000000000a598 <crc32_gentab>:
    a598:	f3 0f 1e fa          	endbr64 
    a59c:	55                   	push   %rbp
    a59d:	48 89 e5             	mov    %rsp,%rbp
    a5a0:	c7 45 fc 20 83 b8 ed 	movl   $0xedb88320,-0x4(%rbp)
    a5a7:	c7 45 f4 00 00 00 00 	movl   $0x0,-0xc(%rbp)
    a5ae:	eb 51                	jmp    a601 <crc32_gentab+0x69>
    a5b0:	8b 45 f4             	mov    -0xc(%rbp),%eax
    a5b3:	89 45 f0             	mov    %eax,-0x10(%rbp)
    a5b6:	c7 45 f8 08 00 00 00 	movl   $0x8,-0x8(%rbp)
    a5bd:	eb 1e                	jmp    a5dd <crc32_gentab+0x45>
    a5bf:	8b 45 f0             	mov    -0x10(%rbp),%eax
    a5c2:	83 e0 01             	and    $0x1,%eax
    a5c5:	85 c0                	test   %eax,%eax
    a5c7:	74 0d                	je     a5d6 <crc32_gentab+0x3e>
    a5c9:	8b 45 f0             	mov    -0x10(%rbp),%eax
    a5cc:	d1 e8                	shr    %eax
    a5ce:	33 45 fc             	xor    -0x4(%rbp),%eax
    a5d1:	89 45 f0             	mov    %eax,-0x10(%rbp)
    a5d4:	eb 03                	jmp    a5d9 <crc32_gentab+0x41>
    a5d6:	d1 6d f0             	shrl   -0x10(%rbp)
    a5d9:	83 6d f8 01          	subl   $0x1,-0x8(%rbp)
    a5dd:	83 7d f8 00          	cmpl   $0x0,-0x8(%rbp)
    a5e1:	7f dc                	jg     a5bf <crc32_gentab+0x27>
    a5e3:	8b 45 f4             	mov    -0xc(%rbp),%eax
    a5e6:	48 98                	cltq   
    a5e8:	48 8d 0c 85 00 00 00 	lea    0x0(,%rax,4),%rcx
    a5ef:	00 
    a5f0:	48 8d 15 29 5a 01 00 	lea    0x15a29(%rip),%rdx        # 20020 <crc32_tab>
    a5f7:	8b 45 f0             	mov    -0x10(%rbp),%eax
    a5fa:	89 04 11             	mov    %eax,(%rcx,%rdx,1)
    a5fd:	83 45 f4 01          	addl   $0x1,-0xc(%rbp)
    a601:	81 7d f4 ff 00 00 00 	cmpl   $0xff,-0xc(%rbp)
    a608:	7e a6                	jle    a5b0 <crc32_gentab+0x18>
    a60a:	90                   	nop
    a60b:	90                   	nop
    a60c:	5d                   	pop    %rbp
    a60d:	c3                   	retq   

000000000000a60e <crc32_byte>:
    a60e:	f3 0f 1e fa          	endbr64 
    a612:	55                   	push   %rbp
    a613:	48 89 e5             	mov    %rsp,%rbp
    a616:	89 f8                	mov    %edi,%eax
    a618:	88 45 fc             	mov    %al,-0x4(%rbp)
    a61b:	8b 05 ff 09 01 00    	mov    0x109ff(%rip),%eax        # 1b020 <crc32_context>
    a621:	c1 e8 08             	shr    $0x8,%eax
    a624:	89 c1                	mov    %eax,%ecx
    a626:	0f b6 55 fc          	movzbl -0x4(%rbp),%edx
    a62a:	8b 05 f0 09 01 00    	mov    0x109f0(%rip),%eax        # 1b020 <crc32_context>
    a630:	31 d0                	xor    %edx,%eax
    a632:	0f b6 c0             	movzbl %al,%eax
    a635:	89 c0                	mov    %eax,%eax
    a637:	48 8d 14 85 00 00 00 	lea    0x0(,%rax,4),%rdx
    a63e:	00 
    a63f:	48 8d 05 da 59 01 00 	lea    0x159da(%rip),%rax        # 20020 <crc32_tab>
    a646:	8b 04 02             	mov    (%rdx,%rax,1),%eax
    a649:	31 c8                	xor    %ecx,%eax
    a64b:	89 05 cf 09 01 00    	mov    %eax,0x109cf(%rip)        # 1b020 <crc32_context>
    a651:	90                   	nop
    a652:	5d                   	pop    %rbp
    a653:	c3                   	retq   

000000000000a654 <crc32_8bytes>:
    a654:	f3 0f 1e fa          	endbr64 
    a658:	55                   	push   %rbp
    a659:	48 89 e5             	mov    %rsp,%rbp
    a65c:	48 83 ec 08          	sub    $0x8,%rsp
    a660:	48 89 7d f8          	mov    %rdi,-0x8(%rbp)
    a664:	48 8b 45 f8          	mov    -0x8(%rbp),%rax
    a668:	0f b6 c0             	movzbl %al,%eax
    a66b:	89 c7                	mov    %eax,%edi
    a66d:	e8 9c ff ff ff       	callq  a60e <crc32_byte>
    a672:	48 8b 45 f8          	mov    -0x8(%rbp),%rax
    a676:	48 c1 e8 08          	shr    $0x8,%rax
    a67a:	0f b6 c0             	movzbl %al,%eax
    a67d:	89 c7                	mov    %eax,%edi
    a67f:	e8 8a ff ff ff       	callq  a60e <crc32_byte>
    a684:	48 8b 45 f8          	mov    -0x8(%rbp),%rax
    a688:	48 c1 e8 10          	shr    $0x10,%rax
    a68c:	0f b6 c0             	movzbl %al,%eax
    a68f:	89 c7                	mov    %eax,%edi
    a691:	e8 78 ff ff ff       	callq  a60e <crc32_byte>
    a696:	48 8b 45 f8          	mov    -0x8(%rbp),%rax
    a69a:	48 c1 e8 18          	shr    $0x18,%rax
    a69e:	0f b6 c0             	movzbl %al,%eax
    a6a1:	89 c7                	mov    %eax,%edi
    a6a3:	e8 66 ff ff ff       	callq  a60e <crc32_byte>
    a6a8:	48 8b 45 f8          	mov    -0x8(%rbp),%rax
    a6ac:	48 c1 e8 20          	shr    $0x20,%rax
    a6b0:	0f b6 c0             	movzbl %al,%eax
    a6b3:	89 c7                	mov    %eax,%edi
    a6b5:	e8 54 ff ff ff       	callq  a60e <crc32_byte>
    a6ba:	48 8b 45 f8          	mov    -0x8(%rbp),%rax
    a6be:	48 c1 e8 28          	shr    $0x28,%rax
    a6c2:	0f b6 c0             	movzbl %al,%eax
    a6c5:	89 c7                	mov    %eax,%edi
    a6c7:	e8 42 ff ff ff       	callq  a60e <crc32_byte>
    a6cc:	48 8b 45 f8          	mov    -0x8(%rbp),%rax
    a6d0:	48 c1 e8 30          	shr    $0x30,%rax
    a6d4:	0f b6 c0             	movzbl %al,%eax
    a6d7:	89 c7                	mov    %eax,%edi
    a6d9:	e8 30 ff ff ff       	callq  a60e <crc32_byte>
    a6de:	48 8b 45 f8          	mov    -0x8(%rbp),%rax
    a6e2:	48 c1 e8 38          	shr    $0x38,%rax
    a6e6:	0f b6 c0             	movzbl %al,%eax
    a6e9:	89 c7                	mov    %eax,%edi
    a6eb:	e8 1e ff ff ff       	callq  a60e <crc32_byte>
    a6f0:	90                   	nop
    a6f1:	c9                   	leaveq 
    a6f2:	c3                   	retq   

000000000000a6f3 <transparent_crc>:
    a6f3:	f3 0f 1e fa          	endbr64 
    a6f7:	55                   	push   %rbp
    a6f8:	48 89 e5             	mov    %rsp,%rbp
    a6fb:	48 83 ec 20          	sub    $0x20,%rsp
    a6ff:	48 89 7d f8          	mov    %rdi,-0x8(%rbp)
    a703:	48 89 75 f0          	mov    %rsi,-0x10(%rbp)
    a707:	89 55 ec             	mov    %edx,-0x14(%rbp)
    a70a:	48 8b 45 f8          	mov    -0x8(%rbp),%rax
    a70e:	48 89 c7             	mov    %rax,%rdi
    a711:	e8 3e ff ff ff       	callq  a654 <crc32_8bytes>
    a716:	83 7d ec 00          	cmpl   $0x0,-0x14(%rbp)
    a71a:	74 22                	je     a73e <transparent_crc+0x4b>
    a71c:	8b 05 fe 08 01 00    	mov    0x108fe(%rip),%eax        # 1b020 <crc32_context>
    a722:	f7 d0                	not    %eax
    a724:	89 c2                	mov    %eax,%edx
    a726:	48 8b 45 f0          	mov    -0x10(%rbp),%rax
    a72a:	48 89 c6             	mov    %rax,%rsi
    a72d:	48 8d 3d fc b8 00 00 	lea    0xb8fc(%rip),%rdi        # 16030 <_IO_stdin_used+0x30>
    a734:	b8 00 00 00 00       	mov    $0x0,%eax
    a739:	e8 42 e9 ff ff       	callq  9080 <printf@plt>
    a73e:	90                   	nop
    a73f:	c9                   	leaveq 
    a740:	c3                   	retq   

000000000000a741 <transparent_crc_bytes>:
    a741:	f3 0f 1e fa          	endbr64 
    a745:	55                   	push   %rbp
    a746:	48 89 e5             	mov    %rsp,%rbp
    a749:	48 83 ec 30          	sub    $0x30,%rsp
    a74d:	48 89 7d e8          	mov    %rdi,-0x18(%rbp)
    a751:	89 75 e4             	mov    %esi,-0x1c(%rbp)
    a754:	48 89 55 d8          	mov    %rdx,-0x28(%rbp)
    a758:	89 4d e0             	mov    %ecx,-0x20(%rbp)
    a75b:	c7 45 fc 00 00 00 00 	movl   $0x0,-0x4(%rbp)
    a762:	eb 1e                	jmp    a782 <transparent_crc_bytes+0x41>
    a764:	8b 45 fc             	mov    -0x4(%rbp),%eax
    a767:	48 63 d0             	movslq %eax,%rdx
    a76a:	48 8b 45 e8          	mov    -0x18(%rbp),%rax
    a76e:	48 01 d0             	add    %rdx,%rax
    a771:	0f b6 00             	movzbl (%rax),%eax
    a774:	0f b6 c0             	movzbl %al,%eax
    a777:	89 c7                	mov    %eax,%edi
    a779:	e8 90 fe ff ff       	callq  a60e <crc32_byte>
    a77e:	83 45 fc 01          	addl   $0x1,-0x4(%rbp)
    a782:	8b 45 fc             	mov    -0x4(%rbp),%eax
    a785:	3b 45 e4             	cmp    -0x1c(%rbp),%eax
    a788:	7c da                	jl     a764 <transparent_crc_bytes+0x23>
    a78a:	83 7d e0 00          	cmpl   $0x0,-0x20(%rbp)
    a78e:	74 22                	je     a7b2 <transparent_crc_bytes+0x71>
    a790:	8b 05 8a 08 01 00    	mov    0x1088a(%rip),%eax        # 1b020 <crc32_context>
    a796:	f7 d0                	not    %eax
    a798:	89 c2                	mov    %eax,%edx
    a79a:	48 8b 45 d8          	mov    -0x28(%rbp),%rax
    a79e:	48 89 c6             	mov    %rax,%rsi
    a7a1:	48 8d 3d 88 b8 00 00 	lea    0xb888(%rip),%rdi        # 16030 <_IO_stdin_used+0x30>
    a7a8:	b8 00 00 00 00       	mov    $0x0,%eax
    a7ad:	e8 ce e8 ff ff       	callq  9080 <printf@plt>
    a7b2:	90                   	nop
    a7b3:	c9                   	leaveq 
    a7b4:	c3                   	retq   

000000000000a7b5 <func_1>:
    a7b5:	f3 0f 1e fa          	endbr64 
    a7b9:	55                   	push   %rbp
    a7ba:	48 89 e5             	mov    %rsp,%rbp
    a7bd:	48 81 ec 20 07 00 00 	sub    $0x720,%rsp
    a7c4:	64 48 8b 04 25 28 00 	mov    %fs:0x28,%rax
    a7cb:	00 00 
    a7cd:	48 89 45 f8          	mov    %rax,-0x8(%rbp)
    a7d1:	31 c0                	xor    %eax,%eax
    a7d3:	48 c7 85 20 f9 ff ff 	movq   $0x0,-0x6e0(%rbp)
    a7da:	00 00 00 00 
    a7de:	48 8d 05 3f 08 01 00 	lea    0x1083f(%rip),%rax        # 1b024 <g_4>
    a7e5:	48 89 85 28 f9 ff ff 	mov    %rax,-0x6d8(%rbp)
    a7ec:	c7 85 f8 f8 ff ff fb 	movl   $0xfffffffb,-0x708(%rbp)
    a7f3:	ff ff ff 
    a7f6:	48 8d 85 f8 f8 ff ff 	lea    -0x708(%rbp),%rax
    a7fd:	48 89 85 30 f9 ff ff 	mov    %rax,-0x6d0(%rbp)
    a804:	48 8d 05 19 08 01 00 	lea    0x10819(%rip),%rax        # 1b024 <g_4>
    a80b:	48 89 85 b0 f9 ff ff 	mov    %rax,-0x650(%rbp)
    a812:	48 8d 05 0b 08 01 00 	lea    0x1080b(%rip),%rax        # 1b024 <g_4>
    a819:	48 89 85 b8 f9 ff ff 	mov    %rax,-0x648(%rbp)
    a820:	48 8d 85 f8 f8 ff ff 	lea    -0x708(%rbp),%rax
    a827:	48 89 85 c0 f9 ff ff 	mov    %rax,-0x640(%rbp)
    a82e:	48 c7 85 c8 f9 ff ff 	movq   $0x0,-0x638(%rbp)
    a835:	00 00 00 00 
    a839:	48 8d 85 f8 f8 ff ff 	lea    -0x708(%rbp),%rax
    a840:	48 89 85 d0 f9 ff ff 	mov    %rax,-0x630(%rbp)
    a847:	48 8d 85 f8 f8 ff ff 	lea    -0x708(%rbp),%rax
    a84e:	48 89 85 d8 f9 ff ff 	mov    %rax,-0x628(%rbp)
    a855:	48 8d 05 c8 07 01 00 	lea    0x107c8(%rip),%rax        # 1b024 <g_4>
    a85c:	48 89 85 e0 f9 ff ff 	mov    %rax,-0x620(%rbp)
    a863:	48 8d 85 f8 f8 ff ff 	lea    -0x708(%rbp),%rax
    a86a:	48 89 85 e8 f9 ff ff 	mov    %rax,-0x618(%rbp)
    a871:	48 c7 85 f0 f9 ff ff 	movq   $0x0,-0x610(%rbp)
    a878:	00 00 00 00 
    a87c:	48 8d 85 f8 f8 ff ff 	lea    -0x708(%rbp),%rax
    a883:	48 89 85 f8 f9 ff ff 	mov    %rax,-0x608(%rbp)
    a88a:	48 c7 85 00 fa ff ff 	movq   $0x0,-0x600(%rbp)
    a891:	00 00 00 00 
    a895:	48 8d 85 f8 f8 ff ff 	lea    -0x708(%rbp),%rax
    a89c:	48 89 85 08 fa ff ff 	mov    %rax,-0x5f8(%rbp)
    a8a3:	48 c7 85 10 fa ff ff 	movq   $0x0,-0x5f0(%rbp)
    a8aa:	00 00 00 00 
    a8ae:	48 8d 85 f8 f8 ff ff 	lea    -0x708(%rbp),%rax
    a8b5:	48 89 85 18 fa ff ff 	mov    %rax,-0x5e8(%rbp)
    a8bc:	48 8d 85 f8 f8 ff ff 	lea    -0x708(%rbp),%rax
    a8c3:	48 89 85 20 fa ff ff 	mov    %rax,-0x5e0(%rbp)
    a8ca:	48 8d 85 f8 f8 ff ff 	lea    -0x708(%rbp),%rax
    a8d1:	48 89 85 28 fa ff ff 	mov    %rax,-0x5d8(%rbp)
    a8d8:	48 c7 85 30 fa ff ff 	movq   $0x0,-0x5d0(%rbp)
    a8df:	00 00 00 00 
    a8e3:	48 8d 05 3a 07 01 00 	lea    0x1073a(%rip),%rax        # 1b024 <g_4>
    a8ea:	48 89 85 38 fa ff ff 	mov    %rax,-0x5c8(%rbp)
    a8f1:	48 8d 85 f8 f8 ff ff 	lea    -0x708(%rbp),%rax
    a8f8:	48 89 85 40 fa ff ff 	mov    %rax,-0x5c0(%rbp)
    a8ff:	48 8d 05 1e 07 01 00 	lea    0x1071e(%rip),%rax        # 1b024 <g_4>
    a906:	48 89 85 48 fa ff ff 	mov    %rax,-0x5b8(%rbp)
    a90d:	48 8d 05 10 07 01 00 	lea    0x10710(%rip),%rax        # 1b024 <g_4>
    a914:	48 89 85 50 fa ff ff 	mov    %rax,-0x5b0(%rbp)
    a91b:	48 8d 05 02 07 01 00 	lea    0x10702(%rip),%rax        # 1b024 <g_4>
    a922:	48 89 85 58 fa ff ff 	mov    %rax,-0x5a8(%rbp)
    a929:	48 8d 05 f4 06 01 00 	lea    0x106f4(%rip),%rax        # 1b024 <g_4>
    a930:	48 89 85 60 fa ff ff 	mov    %rax,-0x5a0(%rbp)
    a937:	48 8d 85 f8 f8 ff ff 	lea    -0x708(%rbp),%rax
    a93e:	48 89 85 68 fa ff ff 	mov    %rax,-0x598(%rbp)
    a945:	48 8d 85 f8 f8 ff ff 	lea    -0x708(%rbp),%rax
    a94c:	48 89 85 70 fa ff ff 	mov    %rax,-0x590(%rbp)
    a953:	48 8d 85 f8 f8 ff ff 	lea    -0x708(%rbp),%rax
    a95a:	48 89 85 78 fa ff ff 	mov    %rax,-0x588(%rbp)
    a961:	48 8d 85 f8 f8 ff ff 	lea    -0x708(%rbp),%rax
    a968:	48 89 85 80 fa ff ff 	mov    %rax,-0x580(%rbp)
    a96f:	48 8d 05 ae 06 01 00 	lea    0x106ae(%rip),%rax        # 1b024 <g_4>
    a976:	48 89 85 88 fa ff ff 	mov    %rax,-0x578(%rbp)
    a97d:	48 8d 85 f8 f8 ff ff 	lea    -0x708(%rbp),%rax
    a984:	48 89 85 90 fa ff ff 	mov    %rax,-0x570(%rbp)
    a98b:	48 8d 85 f8 f8 ff ff 	lea    -0x708(%rbp),%rax
    a992:	48 89 85 98 fa ff ff 	mov    %rax,-0x568(%rbp)
    a999:	48 8d 85 f8 f8 ff ff 	lea    -0x708(%rbp),%rax
    a9a0:	48 89 85 a0 fa ff ff 	mov    %rax,-0x560(%rbp)
    a9a7:	48 c7 85 a8 fa ff ff 	movq   $0x0,-0x558(%rbp)
    a9ae:	00 00 00 00 
    a9b2:	48 8d 05 6b 06 01 00 	lea    0x1066b(%rip),%rax        # 1b024 <g_4>
    a9b9:	48 89 85 b0 fa ff ff 	mov    %rax,-0x550(%rbp)
    a9c0:	48 8d 85 f8 f8 ff ff 	lea    -0x708(%rbp),%rax
    a9c7:	48 89 85 b8 fa ff ff 	mov    %rax,-0x548(%rbp)
    a9ce:	48 c7 85 c0 fa ff ff 	movq   $0x0,-0x540(%rbp)
    a9d5:	00 00 00 00 
    a9d9:	48 8d 85 f8 f8 ff ff 	lea    -0x708(%rbp),%rax
    a9e0:	48 89 85 c8 fa ff ff 	mov    %rax,-0x538(%rbp)
    a9e7:	48 c7 85 d0 fa ff ff 	movq   $0x0,-0x530(%rbp)
    a9ee:	00 00 00 00 
    a9f2:	48 8d 85 f8 f8 ff ff 	lea    -0x708(%rbp),%rax
    a9f9:	48 89 85 d8 fa ff ff 	mov    %rax,-0x528(%rbp)
    aa00:	48 8d 05 1d 06 01 00 	lea    0x1061d(%rip),%rax        # 1b024 <g_4>
    aa07:	48 89 85 e0 fa ff ff 	mov    %rax,-0x520(%rbp)
    aa0e:	48 c7 85 e8 fa ff ff 	movq   $0x0,-0x518(%rbp)
    aa15:	00 00 00 00 
    aa19:	48 8d 85 f8 f8 ff ff 	lea    -0x708(%rbp),%rax
    aa20:	48 89 85 f0 fa ff ff 	mov    %rax,-0x510(%rbp)
    aa27:	48 8d 85 f8 f8 ff ff 	lea    -0x708(%rbp),%rax
    aa2e:	48 89 85 f8 fa ff ff 	mov    %rax,-0x508(%rbp)
    aa35:	48 8d 85 f8 f8 ff ff 	lea    -0x708(%rbp),%rax
    aa3c:	48 89 85 00 fb ff ff 	mov    %rax,-0x500(%rbp)
    aa43:	48 8d 05 da 05 01 00 	lea    0x105da(%rip),%rax        # 1b024 <g_4>
    aa4a:	48 89 85 08 fb ff ff 	mov    %rax,-0x4f8(%rbp)
    aa51:	48 8d 85 f8 f8 ff ff 	lea    -0x708(%rbp),%rax
    aa58:	48 89 85 10 fb ff ff 	mov    %rax,-0x4f0(%rbp)
    aa5f:	48 8d 85 f8 f8 ff ff 	lea    -0x708(%rbp),%rax
    aa66:	48 89 85 18 fb ff ff 	mov    %rax,-0x4e8(%rbp)
    aa6d:	48 8d 85 f8 f8 ff ff 	lea    -0x708(%rbp),%rax
    aa74:	48 89 85 20 fb ff ff 	mov    %rax,-0x4e0(%rbp)
    aa7b:	48 8d 85 f8 f8 ff ff 	lea    -0x708(%rbp),%rax
    aa82:	48 89 85 28 fb ff ff 	mov    %rax,-0x4d8(%rbp)
    aa89:	48 8d 05 94 05 01 00 	lea    0x10594(%rip),%rax        # 1b024 <g_4>
    aa90:	48 89 85 30 fb ff ff 	mov    %rax,-0x4d0(%rbp)
    aa97:	48 8d 05 86 05 01 00 	lea    0x10586(%rip),%rax        # 1b024 <g_4>
    aa9e:	48 89 85 38 fb ff ff 	mov    %rax,-0x4c8(%rbp)
    aaa5:	48 8d 05 78 05 01 00 	lea    0x10578(%rip),%rax        # 1b024 <g_4>
    aaac:	48 89 85 40 fb ff ff 	mov    %rax,-0x4c0(%rbp)
    aab3:	48 8d 05 6a 05 01 00 	lea    0x1056a(%rip),%rax        # 1b024 <g_4>
    aaba:	48 89 85 48 fb ff ff 	mov    %rax,-0x4b8(%rbp)
    aac1:	48 8d 85 f8 f8 ff ff 	lea    -0x708(%rbp),%rax
    aac8:	48 89 85 50 fb ff ff 	mov    %rax,-0x4b0(%rbp)
    aacf:	48 8d 05 4e 05 01 00 	lea    0x1054e(%rip),%rax        # 1b024 <g_4>
    aad6:	48 89 85 58 fb ff ff 	mov    %rax,-0x4a8(%rbp)
    aadd:	48 c7 85 60 fb ff ff 	movq   $0x0,-0x4a0(%rbp)
    aae4:	00 00 00 00 
    aae8:	48 8d 85 f8 f8 ff ff 	lea    -0x708(%rbp),%rax
    aaef:	48 89 85 68 fb ff ff 	mov    %rax,-0x498(%rbp)
    aaf6:	48 8d 85 f8 f8 ff ff 	lea    -0x708(%rbp),%rax
    aafd:	48 89 85 70 fb ff ff 	mov    %rax,-0x490(%rbp)
    ab04:	48 8d 85 f8 f8 ff ff 	lea    -0x708(%rbp),%rax
    ab0b:	48 89 85 78 fb ff ff 	mov    %rax,-0x488(%rbp)
    ab12:	48 c7 85 80 fb ff ff 	movq   $0x0,-0x480(%rbp)
    ab19:	00 00 00 00 
    ab1d:	48 8d 85 f8 f8 ff ff 	lea    -0x708(%rbp),%rax
    ab24:	48 89 85 88 fb ff ff 	mov    %rax,-0x478(%rbp)
    ab2b:	48 c7 85 90 fb ff ff 	movq   $0x0,-0x470(%rbp)
    ab32:	00 00 00 00 
    ab36:	48 8d 85 f8 f8 ff ff 	lea    -0x708(%rbp),%rax
    ab3d:	48 89 85 98 fb ff ff 	mov    %rax,-0x468(%rbp)
    ab44:	48 c7 85 a0 fb ff ff 	movq   $0x0,-0x460(%rbp)
    ab4b:	00 00 00 00 
    ab4f:	48 8d 85 f8 f8 ff ff 	lea    -0x708(%rbp),%rax
    ab56:	48 89 85 a8 fb ff ff 	mov    %rax,-0x458(%rbp)
    ab5d:	48 8d 05 c0 04 01 00 	lea    0x104c0(%rip),%rax        # 1b024 <g_4>
    ab64:	48 89 85 b0 fb ff ff 	mov    %rax,-0x450(%rbp)
    ab6b:	48 8d 85 f8 f8 ff ff 	lea    -0x708(%rbp),%rax
    ab72:	48 89 85 b8 fb ff ff 	mov    %rax,-0x448(%rbp)
    ab79:	48 8d 85 f8 f8 ff ff 	lea    -0x708(%rbp),%rax
    ab80:	48 89 85 c0 fb ff ff 	mov    %rax,-0x440(%rbp)
    ab87:	48 c7 85 c8 fb ff ff 	movq   $0x0,-0x438(%rbp)
    ab8e:	00 00 00 00 
    ab92:	48 8d 85 f8 f8 ff ff 	lea    -0x708(%rbp),%rax
    ab99:	48 89 85 d0 fb ff ff 	mov    %rax,-0x430(%rbp)
    aba0:	48 8d 05 7d 04 01 00 	lea    0x1047d(%rip),%rax        # 1b024 <g_4>
    aba7:	48 89 85 d8 fb ff ff 	mov    %rax,-0x428(%rbp)
    abae:	48 8d 05 6f 04 01 00 	lea    0x1046f(%rip),%rax        # 1b024 <g_4>
    abb5:	48 89 85 e0 fb ff ff 	mov    %rax,-0x420(%rbp)
    abbc:	48 8d 05 61 04 01 00 	lea    0x10461(%rip),%rax        # 1b024 <g_4>
    abc3:	48 89 85 e8 fb ff ff 	mov    %rax,-0x418(%rbp)
    abca:	48 8d 85 f8 f8 ff ff 	lea    -0x708(%rbp),%rax
    abd1:	48 89 85 f0 fb ff ff 	mov    %rax,-0x410(%rbp)
    abd8:	48 8d 05 45 04 01 00 	lea    0x10445(%rip),%rax        # 1b024 <g_4>
    abdf:	48 89 85 f8 fb ff ff 	mov    %rax,-0x408(%rbp)
    abe6:	48 8d 85 f8 f8 ff ff 	lea    -0x708(%rbp),%rax
    abed:	48 89 85 00 fc ff ff 	mov    %rax,-0x400(%rbp)
    abf4:	48 8d 85 f8 f8 ff ff 	lea    -0x708(%rbp),%rax
    abfb:	48 89 85 08 fc ff ff 	mov    %rax,-0x3f8(%rbp)
    ac02:	48 8d 05 1b 04 01 00 	lea    0x1041b(%rip),%rax        # 1b024 <g_4>
    ac09:	48 89 85 10 fc ff ff 	mov    %rax,-0x3f0(%rbp)
    ac10:	48 8d 85 f8 f8 ff ff 	lea    -0x708(%rbp),%rax
    ac17:	48 89 85 18 fc ff ff 	mov    %rax,-0x3e8(%rbp)
    ac1e:	48 8d 05 ff 03 01 00 	lea    0x103ff(%rip),%rax        # 1b024 <g_4>
    ac25:	48 89 85 20 fc ff ff 	mov    %rax,-0x3e0(%rbp)
    ac2c:	48 c7 85 28 fc ff ff 	movq   $0x0,-0x3d8(%rbp)
    ac33:	00 00 00 00 
    ac37:	48 c7 85 30 fc ff ff 	movq   $0x0,-0x3d0(%rbp)
    ac3e:	00 00 00 00 
    ac42:	48 8d 85 f8 f8 ff ff 	lea    -0x708(%rbp),%rax
    ac49:	48 89 85 38 fc ff ff 	mov    %rax,-0x3c8(%rbp)
    ac50:	48 8d 85 f8 f8 ff ff 	lea    -0x708(%rbp),%rax
    ac57:	48 89 85 40 fc ff ff 	mov    %rax,-0x3c0(%rbp)
    ac5e:	48 8d 05 bf 03 01 00 	lea    0x103bf(%rip),%rax        # 1b024 <g_4>
    ac65:	48 89 85 48 fc ff ff 	mov    %rax,-0x3b8(%rbp)
    ac6c:	48 c7 85 50 fc ff ff 	movq   $0x0,-0x3b0(%rbp)
    ac73:	00 00 00 00 
    ac77:	48 8d 85 f8 f8 ff ff 	lea    -0x708(%rbp),%rax
    ac7e:	48 89 85 58 fc ff ff 	mov    %rax,-0x3a8(%rbp)
    ac85:	48 c7 85 60 fc ff ff 	movq   $0x0,-0x3a0(%rbp)
    ac8c:	00 00 00 00 
    ac90:	48 8d 05 8d 03 01 00 	lea    0x1038d(%rip),%rax        # 1b024 <g_4>
    ac97:	48 89 85 68 fc ff ff 	mov    %rax,-0x398(%rbp)
    ac9e:	48 c7 85 70 fc ff ff 	movq   $0x0,-0x390(%rbp)
    aca5:	00 00 00 00 
    aca9:	48 8d 85 f8 f8 ff ff 	lea    -0x708(%rbp),%rax
    acb0:	48 89 85 78 fc ff ff 	mov    %rax,-0x388(%rbp)
    acb7:	48 c7 85 80 fc ff ff 	movq   $0x0,-0x380(%rbp)
    acbe:	00 00 00 00 
    acc2:	48 8d 05 5b 03 01 00 	lea    0x1035b(%rip),%rax        # 1b024 <g_4>
    acc9:	48 89 85 88 fc ff ff 	mov    %rax,-0x378(%rbp)
    acd0:	48 8d 85 f8 f8 ff ff 	lea    -0x708(%rbp),%rax
    acd7:	48 89 85 90 fc ff ff 	mov    %rax,-0x370(%rbp)
    acde:	48 8d 85 f8 f8 ff ff 	lea    -0x708(%rbp),%rax
    ace5:	48 89 85 98 fc ff ff 	mov    %rax,-0x368(%rbp)
    acec:	48 c7 85 a0 fc ff ff 	movq   $0x0,-0x360(%rbp)
    acf3:	00 00 00 00 
    acf7:	48 c7 85 a8 fc ff ff 	movq   $0x0,-0x358(%rbp)
    acfe:	00 00 00 00 
    ad02:	48 8d 05 1b 03 01 00 	lea    0x1031b(%rip),%rax        # 1b024 <g_4>
    ad09:	48 89 85 b0 fc ff ff 	mov    %rax,-0x350(%rbp)
    ad10:	48 8d 85 f8 f8 ff ff 	lea    -0x708(%rbp),%rax
    ad17:	48 89 85 b8 fc ff ff 	mov    %rax,-0x348(%rbp)
    ad1e:	48 8d 05 ff 02 01 00 	lea    0x102ff(%rip),%rax        # 1b024 <g_4>
    ad25:	48 89 85 c0 fc ff ff 	mov    %rax,-0x340(%rbp)
    ad2c:	48 8d 85 f8 f8 ff ff 	lea    -0x708(%rbp),%rax
    ad33:	48 89 85 c8 fc ff ff 	mov    %rax,-0x338(%rbp)
    ad3a:	48 8d 85 f8 f8 ff ff 	lea    -0x708(%rbp),%rax
    ad41:	48 89 85 d0 fc ff ff 	mov    %rax,-0x330(%rbp)
    ad48:	48 8d 05 d5 02 01 00 	lea    0x102d5(%rip),%rax        # 1b024 <g_4>
    ad4f:	48 89 85 d8 fc ff ff 	mov    %rax,-0x328(%rbp)
    ad56:	48 8d 85 f8 f8 ff ff 	lea    -0x708(%rbp),%rax
    ad5d:	48 89 85 e0 fc ff ff 	mov    %rax,-0x320(%rbp)
    ad64:	48 8d 05 b9 02 01 00 	lea    0x102b9(%rip),%rax        # 1b024 <g_4>
    ad6b:	48 89 85 e8 fc ff ff 	mov    %rax,-0x318(%rbp)
    ad72:	48 8d 05 ab 02 01 00 	lea    0x102ab(%rip),%rax        # 1b024 <g_4>
    ad79:	48 89 85 f0 fc ff ff 	mov    %rax,-0x310(%rbp)
    ad80:	48 8d 05 9d 02 01 00 	lea    0x1029d(%rip),%rax        # 1b024 <g_4>
    ad87:	48 89 85 f8 fc ff ff 	mov    %rax,-0x308(%rbp)
    ad8e:	48 8d 85 f8 f8 ff ff 	lea    -0x708(%rbp),%rax
    ad95:	48 89 85 00 fd ff ff 	mov    %rax,-0x300(%rbp)
    ad9c:	48 c7 85 08 fd ff ff 	movq   $0x0,-0x2f8(%rbp)
    ada3:	00 00 00 00 
    ada7:	48 8d 85 f8 f8 ff ff 	lea    -0x708(%rbp),%rax
    adae:	48 89 85 10 fd ff ff 	mov    %rax,-0x2f0(%rbp)
    adb5:	48 8d 85 f8 f8 ff ff 	lea    -0x708(%rbp),%rax
    adbc:	48 89 85 18 fd ff ff 	mov    %rax,-0x2e8(%rbp)
    adc3:	48 8d 05 5a 02 01 00 	lea    0x1025a(%rip),%rax        # 1b024 <g_4>
    adca:	48 89 85 20 fd ff ff 	mov    %rax,-0x2e0(%rbp)
    add1:	48 8d 85 f8 f8 ff ff 	lea    -0x708(%rbp),%rax
    add8:	48 89 85 28 fd ff ff 	mov    %rax,-0x2d8(%rbp)
    addf:	48 c7 85 30 fd ff ff 	movq   $0x0,-0x2d0(%rbp)
    ade6:	00 00 00 00 
    adea:	48 8d 85 f8 f8 ff ff 	lea    -0x708(%rbp),%rax
    adf1:	48 89 85 38 fd ff ff 	mov    %rax,-0x2c8(%rbp)
    adf8:	48 c7 85 40 fd ff ff 	movq   $0x0,-0x2c0(%rbp)
    adff:	00 00 00 00 
    ae03:	48 8d 85 f8 f8 ff ff 	lea    -0x708(%rbp),%rax
    ae0a:	48 89 85 48 fd ff ff 	mov    %rax,-0x2b8(%rbp)
    ae11:	48 c7 85 50 fd ff ff 	movq   $0x0,-0x2b0(%rbp)
    ae18:	00 00 00 00 
    ae1c:	48 8d 85 f8 f8 ff ff 	lea    -0x708(%rbp),%rax
    ae23:	48 89 85 58 fd ff ff 	mov    %rax,-0x2a8(%rbp)
    ae2a:	48 8d 85 f8 f8 ff ff 	lea    -0x708(%rbp),%rax
    ae31:	48 89 85 60 fd ff ff 	mov    %rax,-0x2a0(%rbp)
    ae38:	48 8d 85 f8 f8 ff ff 	lea    -0x708(%rbp),%rax
    ae3f:	48 89 85 68 fd ff ff 	mov    %rax,-0x298(%rbp)
    ae46:	48 c7 85 70 fd ff ff 	movq   $0x0,-0x290(%rbp)
    ae4d:	00 00 00 00 
    ae51:	48 8d 05 cc 01 01 00 	lea    0x101cc(%rip),%rax        # 1b024 <g_4>
    ae58:	48 89 85 78 fd ff ff 	mov    %rax,-0x288(%rbp)
    ae5f:	48 8d 85 f8 f8 ff ff 	lea    -0x708(%rbp),%rax
    ae66:	48 89 85 80 fd ff ff 	mov    %rax,-0x280(%rbp)
    ae6d:	48 8d 05 b0 01 01 00 	lea    0x101b0(%rip),%rax        # 1b024 <g_4>
    ae74:	48 89 85 88 fd ff ff 	mov    %rax,-0x278(%rbp)
    ae7b:	48 8d 05 a2 01 01 00 	lea    0x101a2(%rip),%rax        # 1b024 <g_4>
    ae82:	48 89 85 90 fd ff ff 	mov    %rax,-0x270(%rbp)
    ae89:	48 8d 05 94 01 01 00 	lea    0x10194(%rip),%rax        # 1b024 <g_4>
    ae90:	48 89 85 98 fd ff ff 	mov    %rax,-0x268(%rbp)
    ae97:	48 8d 05 86 01 01 00 	lea    0x10186(%rip),%rax        # 1b024 <g_4>
    ae9e:	48 89 85 a0 fd ff ff 	mov    %rax,-0x260(%rbp)
    aea5:	48 8d 85 f8 f8 ff ff 	lea    -0x708(%rbp),%rax
    aeac:	48 89 85 a8 fd ff ff 	mov    %rax,-0x258(%rbp)
    aeb3:	48 8d 85 f8 f8 ff ff 	lea    -0x708(%rbp),%rax
    aeba:	48 89 85 b0 fd ff ff 	mov    %rax,-0x250(%rbp)
    aec1:	48 8d 85 f8 f8 ff ff 	lea    -0x708(%rbp),%rax
    aec8:	48 89 85 b8 fd ff ff 	mov    %rax,-0x248(%rbp)
    aecf:	48 8d 85 f8 f8 ff ff 	lea    -0x708(%rbp),%rax
    aed6:	48 89 85 c0 fd ff ff 	mov    %rax,-0x240(%rbp)
    aedd:	48 8d 05 40 01 01 00 	lea    0x10140(%rip),%rax        # 1b024 <g_4>
    aee4:	48 89 85 c8 fd ff ff 	mov    %rax,-0x238(%rbp)
    aeeb:	48 8d 85 f8 f8 ff ff 	lea    -0x708(%rbp),%rax
    aef2:	48 89 85 d0 fd ff ff 	mov    %rax,-0x230(%rbp)
    aef9:	48 8d 85 f8 f8 ff ff 	lea    -0x708(%rbp),%rax
    af00:	48 89 85 d8 fd ff ff 	mov    %rax,-0x228(%rbp)
    af07:	48 8d 85 f8 f8 ff ff 	lea    -0x708(%rbp),%rax
    af0e:	48 89 85 e0 fd ff ff 	mov    %rax,-0x220(%rbp)
    af15:	48 c7 85 e8 fd ff ff 	movq   $0x0,-0x218(%rbp)
    af1c:	00 00 00 00 
    af20:	48 8d 05 fd 00 01 00 	lea    0x100fd(%rip),%rax        # 1b024 <g_4>
    af27:	48 89 85 f0 fd ff ff 	mov    %rax,-0x210(%rbp)
    af2e:	48 8d 85 f8 f8 ff ff 	lea    -0x708(%rbp),%rax
    af35:	48 89 85 f8 fd ff ff 	mov    %rax,-0x208(%rbp)
    af3c:	48 c7 85 00 fe ff ff 	movq   $0x0,-0x200(%rbp)
    af43:	00 00 00 00 
    af47:	48 8d 85 f8 f8 ff ff 	lea    -0x708(%rbp),%rax
    af4e:	48 89 85 08 fe ff ff 	mov    %rax,-0x1f8(%rbp)
    af55:	48 c7 85 10 fe ff ff 	movq   $0x0,-0x1f0(%rbp)
    af5c:	00 00 00 00 
    af60:	48 8d 85 f8 f8 ff ff 	lea    -0x708(%rbp),%rax
    af67:	48 89 85 18 fe ff ff 	mov    %rax,-0x1e8(%rbp)
    af6e:	48 8d 05 af 00 01 00 	lea    0x100af(%rip),%rax        # 1b024 <g_4>
    af75:	48 89 85 20 fe ff ff 	mov    %rax,-0x1e0(%rbp)
    af7c:	48 c7 85 28 fe ff ff 	movq   $0x0,-0x1d8(%rbp)
    af83:	00 00 00 00 
    af87:	48 8d 85 f8 f8 ff ff 	lea    -0x708(%rbp),%rax
    af8e:	48 89 85 30 fe ff ff 	mov    %rax,-0x1d0(%rbp)
    af95:	48 8d 85 f8 f8 ff ff 	lea    -0x708(%rbp),%rax
    af9c:	48 89 85 38 fe ff ff 	mov    %rax,-0x1c8(%rbp)
    afa3:	48 8d 85 f8 f8 ff ff 	lea    -0x708(%rbp),%rax
    afaa:	48 89 85 40 fe ff ff 	mov    %rax,-0x1c0(%rbp)
    afb1:	48 8d 05 6c 00 01 00 	lea    0x1006c(%rip),%rax        # 1b024 <g_4>
    afb8:	48 89 85 48 fe ff ff 	mov    %rax,-0x1b8(%rbp)
    afbf:	48 8d 85 f8 f8 ff ff 	lea    -0x708(%rbp),%rax
    afc6:	48 89 85 50 fe ff ff 	mov    %rax,-0x1b0(%rbp)
    afcd:	48 8d 85 f8 f8 ff ff 	lea    -0x708(%rbp),%rax
    afd4:	48 89 85 58 fe ff ff 	mov    %rax,-0x1a8(%rbp)
    afdb:	48 8d 85 f8 f8 ff ff 	lea    -0x708(%rbp),%rax
    afe2:	48 89 85 60 fe ff ff 	mov    %rax,-0x1a0(%rbp)
    afe9:	48 8d 85 f8 f8 ff ff 	lea    -0x708(%rbp),%rax
    aff0:	48 89 85 68 fe ff ff 	mov    %rax,-0x198(%rbp)
    aff7:	48 8d 85 f8 f8 ff ff 	lea    -0x708(%rbp),%rax
    affe:	48 89 85 70 fe ff ff 	mov    %rax,-0x190(%rbp)
    b005:	48 8d 05 18 00 01 00 	lea    0x10018(%rip),%rax        # 1b024 <g_4>
    b00c:	48 89 85 78 fe ff ff 	mov    %rax,-0x188(%rbp)
    b013:	48 8d 05 0a 00 01 00 	lea    0x1000a(%rip),%rax        # 1b024 <g_4>
    b01a:	48 89 85 80 fe ff ff 	mov    %rax,-0x180(%rbp)
    b021:	48 8d 85 f8 f8 ff ff 	lea    -0x708(%rbp),%rax
    b028:	48 89 85 88 fe ff ff 	mov    %rax,-0x178(%rbp)
    b02f:	48 8d 85 f8 f8 ff ff 	lea    -0x708(%rbp),%rax
    b036:	48 89 85 90 fe ff ff 	mov    %rax,-0x170(%rbp)
    b03d:	48 8d 85 f8 f8 ff ff 	lea    -0x708(%rbp),%rax
    b044:	48 89 85 98 fe ff ff 	mov    %rax,-0x168(%rbp)
    b04b:	48 c7 85 a0 fe ff ff 	movq   $0x0,-0x160(%rbp)
    b052:	00 00 00 00 
    b056:	48 8d 85 f8 f8 ff ff 	lea    -0x708(%rbp),%rax
    b05d:	48 89 85 a8 fe ff ff 	mov    %rax,-0x158(%rbp)
    b064:	48 8d 05 b9 ff 00 00 	lea    0xffb9(%rip),%rax        # 1b024 <g_4>
    b06b:	48 89 85 b0 fe ff ff 	mov    %rax,-0x150(%rbp)
    b072:	48 8d 85 f8 f8 ff ff 	lea    -0x708(%rbp),%rax
    b079:	48 89 85 b8 fe ff ff 	mov    %rax,-0x148(%rbp)
    b080:	48 8d 85 f8 f8 ff ff 	lea    -0x708(%rbp),%rax
    b087:	48 89 85 c0 fe ff ff 	mov    %rax,-0x140(%rbp)
    b08e:	48 8d 85 f8 f8 ff ff 	lea    -0x708(%rbp),%rax
    b095:	48 89 85 c8 fe ff ff 	mov    %rax,-0x138(%rbp)
    b09c:	48 c7 85 d0 fe ff ff 	movq   $0x0,-0x130(%rbp)
    b0a3:	00 00 00 00 
    b0a7:	48 8d 85 f8 f8 ff ff 	lea    -0x708(%rbp),%rax
    b0ae:	48 89 85 d8 fe ff ff 	mov    %rax,-0x128(%rbp)
    b0b5:	48 8d 85 f8 f8 ff ff 	lea    -0x708(%rbp),%rax
    b0bc:	48 89 85 e0 fe ff ff 	mov    %rax,-0x120(%rbp)
    b0c3:	48 8d 85 f8 f8 ff ff 	lea    -0x708(%rbp),%rax
    b0ca:	48 89 85 e8 fe ff ff 	mov    %rax,-0x118(%rbp)
    b0d1:	48 8d 05 4c ff 00 00 	lea    0xff4c(%rip),%rax        # 1b024 <g_4>
    b0d8:	48 89 85 f0 fe ff ff 	mov    %rax,-0x110(%rbp)
    b0df:	48 8d 85 f8 f8 ff ff 	lea    -0x708(%rbp),%rax
    b0e6:	48 89 85 f8 fe ff ff 	mov    %rax,-0x108(%rbp)
    b0ed:	48 8d 85 f8 f8 ff ff 	lea    -0x708(%rbp),%rax
    b0f4:	48 89 85 00 ff ff ff 	mov    %rax,-0x100(%rbp)
    b0fb:	48 8d 85 f8 f8 ff ff 	lea    -0x708(%rbp),%rax
    b102:	48 89 85 08 ff ff ff 	mov    %rax,-0xf8(%rbp)
    b109:	48 c7 85 10 ff ff ff 	movq   $0x0,-0xf0(%rbp)
    b110:	00 00 00 00 
    b114:	48 8d 85 f8 f8 ff ff 	lea    -0x708(%rbp),%rax
    b11b:	48 89 85 18 ff ff ff 	mov    %rax,-0xe8(%rbp)
    b122:	48 8d 05 fb fe 00 00 	lea    0xfefb(%rip),%rax        # 1b024 <g_4>
    b129:	48 89 85 20 ff ff ff 	mov    %rax,-0xe0(%rbp)
    b130:	48 8d 05 ed fe 00 00 	lea    0xfeed(%rip),%rax        # 1b024 <g_4>
    b137:	48 89 85 28 ff ff ff 	mov    %rax,-0xd8(%rbp)
    b13e:	48 8d 85 f8 f8 ff ff 	lea    -0x708(%rbp),%rax
    b145:	48 89 85 30 ff ff ff 	mov    %rax,-0xd0(%rbp)
    b14c:	48 8d 05 d1 fe 00 00 	lea    0xfed1(%rip),%rax        # 1b024 <g_4>
    b153:	48 89 85 38 ff ff ff 	mov    %rax,-0xc8(%rbp)
    b15a:	48 8d 05 c3 fe 00 00 	lea    0xfec3(%rip),%rax        # 1b024 <g_4>
    b161:	48 89 85 40 ff ff ff 	mov    %rax,-0xc0(%rbp)
    b168:	48 8d 05 b5 fe 00 00 	lea    0xfeb5(%rip),%rax        # 1b024 <g_4>
    b16f:	48 89 85 48 ff ff ff 	mov    %rax,-0xb8(%rbp)
    b176:	48 8d 05 a7 fe 00 00 	lea    0xfea7(%rip),%rax        # 1b024 <g_4>
    b17d:	48 89 85 50 ff ff ff 	mov    %rax,-0xb0(%rbp)
    b184:	48 8d 85 f8 f8 ff ff 	lea    -0x708(%rbp),%rax
    b18b:	48 89 85 58 ff ff ff 	mov    %rax,-0xa8(%rbp)
    b192:	48 8d 05 8b fe 00 00 	lea    0xfe8b(%rip),%rax        # 1b024 <g_4>
    b199:	48 89 85 60 ff ff ff 	mov    %rax,-0xa0(%rbp)
    b1a0:	48 c7 85 68 ff ff ff 	movq   $0x0,-0x98(%rbp)
    b1a7:	00 00 00 00 
    b1ab:	48 c7 85 70 ff ff ff 	movq   $0x0,-0x90(%rbp)
    b1b2:	00 00 00 00 
    b1b6:	48 8d 05 67 fe 00 00 	lea    0xfe67(%rip),%rax        # 1b024 <g_4>
    b1bd:	48 89 85 78 ff ff ff 	mov    %rax,-0x88(%rbp)
    b1c4:	48 8d 85 f8 f8 ff ff 	lea    -0x708(%rbp),%rax
    b1cb:	48 89 45 80          	mov    %rax,-0x80(%rbp)
    b1cf:	48 8d 85 f8 f8 ff ff 	lea    -0x708(%rbp),%rax
    b1d6:	48 89 45 88          	mov    %rax,-0x78(%rbp)
    b1da:	48 8d 85 f8 f8 ff ff 	lea    -0x708(%rbp),%rax
    b1e1:	48 89 45 90          	mov    %rax,-0x70(%rbp)
    b1e5:	48 8d 05 38 fe 00 00 	lea    0xfe38(%rip),%rax        # 1b024 <g_4>
    b1ec:	48 89 45 98          	mov    %rax,-0x68(%rbp)
    b1f0:	48 8d 85 f8 f8 ff ff 	lea    -0x708(%rbp),%rax
    b1f7:	48 89 45 a0          	mov    %rax,-0x60(%rbp)
    b1fb:	48 8d 85 f8 f8 ff ff 	lea    -0x708(%rbp),%rax
    b202:	48 89 45 a8          	mov    %rax,-0x58(%rbp)
    b206:	48 8d 85 f8 f8 ff ff 	lea    -0x708(%rbp),%rax
    b20d:	48 89 45 b0          	mov    %rax,-0x50(%rbp)
    b211:	48 8d 05 0c fe 00 00 	lea    0xfe0c(%rip),%rax        # 1b024 <g_4>
    b218:	48 89 45 b8          	mov    %rax,-0x48(%rbp)
    b21c:	48 8d 85 f8 f8 ff ff 	lea    -0x708(%rbp),%rax
    b223:	48 89 45 c0          	mov    %rax,-0x40(%rbp)
    b227:	48 8d 85 f8 f8 ff ff 	lea    -0x708(%rbp),%rax
    b22e:	48 89 45 c8          	mov    %rax,-0x38(%rbp)
    b232:	48 8d 85 f8 f8 ff ff 	lea    -0x708(%rbp),%rax
    b239:	48 89 45 d0          	mov    %rax,-0x30(%rbp)
    b23d:	48 8d 05 e0 fd 00 00 	lea    0xfde0(%rip),%rax        # 1b024 <g_4>
    b244:	48 89 45 d8          	mov    %rax,-0x28(%rbp)
    b248:	48 c7 45 e0 00 00 00 	movq   $0x0,-0x20(%rbp)
    b24f:	00 
    b250:	48 c7 45 e8 00 00 00 	movq   $0x0,-0x18(%rbp)
    b257:	00 
    b258:	66 c7 85 f0 f8 ff ff 	movw   $0xffff,-0x710(%rbp)
    b25f:	ff ff 
    b261:	48 8d 05 98 01 01 00 	lea    0x10198(%rip),%rax        # 1b400 <g_33>
    b268:	48 89 85 38 f9 ff ff 	mov    %rax,-0x6c8(%rbp)
    b26f:	48 b8 71 23 6f 7f 80 	movabs $0x703b95807f6f2371,%rax
    b276:	95 3b 70 
    b279:	48 89 85 40 f9 ff ff 	mov    %rax,-0x6c0(%rbp)
    b280:	c7 85 0c f9 ff ff f8 	movl   $0xfffffff8,-0x6f4(%rbp)
    b287:	ff ff ff 
    b28a:	66 c7 85 f2 f8 ff ff 	movw   $0x0,-0x70e(%rbp)
    b291:	00 00 
    b293:	c7 85 10 f9 ff ff ff 	movl   $0xffffffff,-0x6f0(%rbp)
    b29a:	ff ff ff 
    b29d:	66 c7 85 f4 f8 ff ff 	movw   $0xd5e4,-0x70c(%rbp)
    b2a4:	e4 d5 
    b2a6:	c7 85 fc f8 ff ff 00 	movl   $0x0,-0x704(%rbp)
    b2ad:	00 00 00 
    b2b0:	66 c7 85 f6 f8 ff ff 	movw   $0xfff7,-0x70a(%rbp)
    b2b7:	f7 ff 
    b2b9:	c7 85 00 f9 ff ff 00 	movl   $0x0,-0x700(%rbp)
    b2c0:	00 00 00 
    b2c3:	eb 46                	jmp    b30b <func_1+0xb56>
    b2c5:	c7 85 04 f9 ff ff 00 	movl   $0x0,-0x6fc(%rbp)
    b2cc:	00 00 00 
    b2cf:	eb 2a                	jmp    b2fb <func_1+0xb46>
    b2d1:	8b 85 04 f9 ff ff    	mov    -0x6fc(%rbp),%eax
    b2d7:	48 98                	cltq   
    b2d9:	8b 95 00 f9 ff ff    	mov    -0x700(%rbp),%edx
    b2df:	48 63 d2             	movslq %edx,%rdx
    b2e2:	48 01 d2             	add    %rdx,%rdx
    b2e5:	48 01 ea             	add    %rbp,%rdx
    b2e8:	48 01 d0             	add    %rdx,%rax
    b2eb:	48 2d 96 06 00 00    	sub    $0x696,%rax
    b2f1:	c6 00 b6             	movb   $0xb6,(%rax)
    b2f4:	83 85 04 f9 ff ff 01 	addl   $0x1,-0x6fc(%rbp)
    b2fb:	83 bd 04 f9 ff ff 01 	cmpl   $0x1,-0x6fc(%rbp)
    b302:	7e cd                	jle    b2d1 <func_1+0xb1c>
    b304:	83 85 00 f9 ff ff 01 	addl   $0x1,-0x700(%rbp)
    b30b:	83 bd 00 f9 ff ff 02 	cmpl   $0x2,-0x700(%rbp)
    b312:	7e b1                	jle    b2c5 <func_1+0xb10>
    b314:	c7 85 00 f9 ff ff 00 	movl   $0x0,-0x700(%rbp)
    b31b:	00 00 00 
    b31e:	eb 1a                	jmp    b33a <func_1+0xb85>
    b320:	8b 85 00 f9 ff ff    	mov    -0x700(%rbp),%eax
    b326:	48 98                	cltq   
    b328:	c7 84 85 80 f9 ff ff 	movl   $0x9f9e766c,-0x680(%rbp,%rax,4)
    b32f:	6c 76 9e 9f 
    b333:	83 85 00 f9 ff ff 01 	addl   $0x1,-0x700(%rbp)
    b33a:	83 bd 00 f9 ff ff 09 	cmpl   $0x9,-0x700(%rbp)
    b341:	7e dd                	jle    b320 <func_1+0xb6b>
    b343:	0f b7 85 f0 f8 ff ff 	movzwl -0x710(%rbp),%eax
    b34a:	83 e8 01             	sub    $0x1,%eax
    b34d:	66 89 85 f0 f8 ff ff 	mov    %ax,-0x710(%rbp)
    b354:	66 c7 85 f0 f8 ff ff 	movw   $0x1,-0x710(%rbp)
    b35b:	01 00 
    b35d:	e9 8f 00 00 00       	jmpq   b3f1 <func_1+0xc3c>
    b362:	48 c7 85 48 f9 ff ff 	movq   $0x0,-0x6b8(%rbp)
    b369:	00 00 00 00 
    b36d:	48 8d 05 e4 08 01 00 	lea    0x108e4(%rip),%rax        # 1bc58 <g_252>
    b374:	48 89 85 50 f9 ff ff 	mov    %rax,-0x6b0(%rbp)
    b37b:	c7 85 14 f9 ff ff ef 	movl   $0x1b4af6ef,-0x6ec(%rbp)
    b382:	f6 4a 1b 
    b385:	48 8d 05 14 08 01 00 	lea    0x10814(%rip),%rax        # 1bba0 <g_95>
    b38c:	48 89 85 58 f9 ff ff 	mov    %rax,-0x6a8(%rbp)
    b393:	48 c7 85 60 f9 ff ff 	movq   $0x0,-0x6a0(%rbp)
    b39a:	00 00 00 00 
    b39e:	c7 85 18 f9 ff ff f6 	movl   $0xfffffff6,-0x6e8(%rbp)
    b3a5:	ff ff ff 
    b3a8:	c7 85 1c f9 ff ff 09 	movl   $0x9,-0x6e4(%rbp)
    b3af:	00 00 00 
    b3b2:	c6 85 ef f8 ff ff 01 	movb   $0x1,-0x711(%rbp)
    b3b9:	c7 85 08 f9 ff ff 00 	movl   $0x0,-0x6f8(%rbp)
    b3c0:	00 00 00 
    b3c3:	eb 1b                	jmp    b3e0 <func_1+0xc2b>
    b3c5:	8b 85 08 f9 ff ff    	mov    -0x6f8(%rbp),%eax
    b3cb:	48 98                	cltq   
    b3cd:	48 c7 84 c5 70 f9 ff 	movq   $0x0,-0x690(%rbp,%rax,8)
    b3d4:	ff 00 00 00 00 
    b3d9:	83 85 08 f9 ff ff 01 	addl   $0x1,-0x6f8(%rbp)
    b3e0:	83 bd 08 f9 ff ff 01 	cmpl   $0x1,-0x6f8(%rbp)
    b3e7:	7e dc                	jle    b3c5 <func_1+0xc10>
    b3e9:	66 83 85 f0 f8 ff ff 	addw   $0x1,-0x710(%rbp)
    b3f0:	01 
    b3f1:	66 83 bd f0 f8 ff ff 	cmpw   $0x4,-0x710(%rbp)
    b3f8:	04 
    b3f9:	0f 86 63 ff ff ff    	jbe    b362 <func_1+0xbad>
    b3ff:	48 8b 05 9a 3e 01 00 	mov    0x13e9a(%rip),%rax        # 1f2a0 <g_693>
    b406:	48 8b 00             	mov    (%rax),%rax
    b409:	48 8b 95 30 f9 ff ff 	mov    -0x6d0(%rbp),%rdx
    b410:	8b 12                	mov    (%rdx),%edx
    b412:	89 10                	mov    %edx,(%rax)
    b414:	48 8b 05 fd 42 01 00 	mov    0x142fd(%rip),%rax        # 1f718 <g_949>
    b41b:	48 8b 00             	mov    (%rax),%rax
    b41e:	48 8b 00             	mov    (%rax),%rax
    b421:	48 8b 4d f8          	mov    -0x8(%rbp),%rcx
    b425:	64 48 33 0c 25 28 00 	xor    %fs:0x28,%rcx
    b42c:	00 00 
    b42e:	74 05                	je     b435 <func_1+0xc80>
    b430:	e8 3b dc ff ff       	callq  9070 <__stack_chk_fail@plt>
    b435:	c9                   	leaveq 
    b436:	c3                   	retq   

000000000000b437 <func_19>:
    b437:	f3 0f 1e fa          	endbr64 
    b43b:	55                   	push   %rbp
    b43c:	48 89 e5             	mov    %rsp,%rbp
    b43f:	41 57                	push   %r15
    b441:	41 56                	push   %r14
    b443:	41 55                	push   %r13
    b445:	41 54                	push   %r12
    b447:	53                   	push   %rbx
    b448:	48 81 ec 28 0d 00 00 	sub    $0xd28,%rsp
    b44f:	89 f8                	mov    %edi,%eax
    b451:	88 85 bc f2 ff ff    	mov    %al,-0xd44(%rbp)
    b457:	64 48 8b 04 25 28 00 	mov    %fs:0x28,%rax
    b45e:	00 00 
    b460:	48 89 45 c8          	mov    %rax,-0x38(%rbp)
    b464:	31 c0                	xor    %eax,%eax
    b466:	48 c7 85 50 f3 ff ff 	movq   $0x1,-0xcb0(%rbp)
    b46d:	01 00 00 00 
    b471:	48 8d 05 d8 07 01 00 	lea    0x107d8(%rip),%rax        # 1bc50 <g_248>
    b478:	48 89 85 78 f3 ff ff 	mov    %rax,-0xc88(%rbp)
    b47f:	c7 85 dc f2 ff ff 06 	movl   $0x6,-0xd24(%rbp)
    b486:	00 00 00 
    b489:	c7 85 d0 f2 ff ff 00 	movl   $0x0,-0xd30(%rbp)
    b490:	00 00 00 
    b493:	c7 85 00 f3 ff ff e7 	movl   $0x220306e7,-0xd00(%rbp)
    b49a:	06 03 22 
    b49d:	c7 85 04 f3 ff ff 79 	movl   $0xebe23f79,-0xcfc(%rbp)
    b4a4:	3f e2 eb 
    b4a7:	c7 85 08 f3 ff ff 82 	movl   $0x69177882,-0xcf8(%rbp)
    b4ae:	78 17 69 
    b4b1:	c7 85 0c f3 ff ff 01 	movl   $0x1,-0xcf4(%rbp)
    b4b8:	00 00 00 
    b4bb:	c7 85 10 f3 ff ff f9 	movl   $0xfffffff9,-0xcf0(%rbp)
    b4c2:	ff ff ff 
    b4c5:	c7 85 d4 f2 ff ff 00 	movl   $0x0,-0xd2c(%rbp)
    b4cc:	00 00 00 
    b4cf:	48 8d 85 40 f8 ff ff 	lea    -0x7c0(%rbp),%rax
    b4d6:	48 8d 15 23 b3 00 00 	lea    0xb323(%rip),%rdx        # 16800 <g_1889+0x10>
    b4dd:	b9 78 00 00 00       	mov    $0x78,%ecx
    b4e2:	48 89 c7             	mov    %rax,%rdi
    b4e5:	48 89 d6             	mov    %rdx,%rsi
    b4e8:	f3 48 a5             	rep movsq %ds:(%rsi),%es:(%rdi)
    b4eb:	66 c7 85 cc f2 ff ff 	movw   $0x3,-0xd34(%rbp)
    b4f2:	03 00 
    b4f4:	48 b8 15 14 f2 88 e7 	movabs $0x2a224be788f21415,%rax
    b4fb:	4b 22 2a 
    b4fe:	48 89 85 a0 f4 ff ff 	mov    %rax,-0xb60(%rbp)
    b505:	48 89 85 a8 f4 ff ff 	mov    %rax,-0xb58(%rbp)
    b50c:	48 89 85 b0 f4 ff ff 	mov    %rax,-0xb50(%rbp)
    b513:	48 89 85 b8 f4 ff ff 	mov    %rax,-0xb48(%rbp)
    b51a:	48 89 85 c0 f4 ff ff 	mov    %rax,-0xb40(%rbp)
    b521:	48 89 85 c8 f4 ff ff 	mov    %rax,-0xb38(%rbp)
    b528:	48 89 85 d0 f4 ff ff 	mov    %rax,-0xb30(%rbp)
    b52f:	48 89 85 d8 f4 ff ff 	mov    %rax,-0xb28(%rbp)
    b536:	c7 85 e0 f2 ff ff 00 	movl   $0x0,-0xd20(%rbp)
    b53d:	00 00 00 
    b540:	c6 85 ca f2 ff ff ff 	movb   $0xff,-0xd36(%rbp)
    b547:	c7 85 d8 f2 ff ff ff 	movl   $0xffffffff,-0xd28(%rbp)
    b54e:	ff ff ff 
    b551:	48 8d 05 38 35 01 00 	lea    0x13538(%rip),%rax        # 1ea90 <g_107>
    b558:	48 89 85 80 f3 ff ff 	mov    %rax,-0xc80(%rbp)
    b55f:	48 8d 05 8e 08 01 00 	lea    0x1088e(%rip),%rax        # 1bdf4 <g_910>
    b566:	48 39 85 78 f3 ff ff 	cmp    %rax,-0xc88(%rbp)
    b56d:	0f 95 c0             	setne  %al
    b570:	0f b6 c0             	movzbl %al,%eax
    b573:	be 08 00 00 00       	mov    $0x8,%esi
    b578:	89 c7                	mov    %eax,%edi
    b57a:	e8 62 df ff ff       	callq  94e1 <safe_lshift_func_int16_t_s_u>
    b57f:	48 0f bf d0          	movswq %ax,%rdx
    b583:	48 8b 85 50 f3 ff ff 	mov    -0xcb0(%rbp),%rax
    b58a:	48 39 c2             	cmp    %rax,%rdx
    b58d:	0f 9f c0             	setg   %al
    b590:	0f b6 c0             	movzbl %al,%eax
    b593:	89 85 dc f2 ff ff    	mov    %eax,-0xd24(%rbp)
    b599:	8b 85 dc f2 ff ff    	mov    -0xd24(%rbp),%eax
    b59f:	0f bf d8             	movswl %ax,%ebx
    b5a2:	48 8b 05 f7 41 01 00 	mov    0x141f7(%rip),%rax        # 1f7a0 <g_1603>
    b5a9:	48 8b 00             	mov    (%rax),%rax
    b5ac:	0f b7 00             	movzwl (%rax),%eax
    b5af:	89 c2                	mov    %eax,%edx
    b5b1:	8b 05 e9 13 01 00    	mov    0x113e9(%rip),%eax        # 1c9a0 <g_1263>
    b5b7:	21 d0                	and    %edx,%eax
    b5b9:	0f b7 c0             	movzwl %ax,%eax
    b5bc:	be 01 00 00 00       	mov    $0x1,%esi
    b5c1:	89 c7                	mov    %eax,%edi
    b5c3:	e8 f6 e7 ff ff       	callq  9dbe <safe_lshift_func_uint16_t_u_s>
    b5c8:	89 c2                	mov    %eax,%edx
    b5ca:	48 8b 85 50 f3 ff ff 	mov    -0xcb0(%rbp),%rax
    b5d1:	21 d0                	and    %edx,%eax
    b5d3:	98                   	cwtl   
    b5d4:	89 de                	mov    %ebx,%esi
    b5d6:	89 c7                	mov    %eax,%edi
    b5d8:	e8 18 de ff ff       	callq  93f5 <safe_mul_func_int16_t_s_s>
    b5dd:	48 8b 85 50 f3 ff ff 	mov    -0xcb0(%rbp),%rax
    b5e4:	83 c8 fe             	or     $0xfffffffe,%eax
    b5e7:	0f b7 c0             	movzwl %ax,%eax
    b5ea:	be fe ff 00 00       	mov    $0xfffe,%esi
    b5ef:	89 c7                	mov    %eax,%edi
    b5f1:	e8 29 e7 ff ff       	callq  9d1f <safe_sub_func_uint16_t_u_u>
    b5f6:	89 c2                	mov    %eax,%edx
    b5f8:	48 8b 05 a1 36 01 00 	mov    0x136a1(%rip),%rax        # 1eca0 <g_134>
    b5ff:	48 8b 00             	mov    (%rax),%rax
    b602:	0f b7 d2             	movzwl %dx,%edx
    b605:	89 10                	mov    %edx,(%rax)
    b607:	48 8b 05 8a 36 01 00 	mov    0x1368a(%rip),%rax        # 1ec98 <g_135>
    b60e:	8b 00                	mov    (%rax),%eax
    b610:	85 c0                	test   %eax,%eax
    b612:	0f 84 90 00 00 00    	je     b6a8 <func_19+0x271>
    b618:	48 8d 05 69 16 01 00 	lea    0x11669(%rip),%rax        # 1cc88 <g_1594>
    b61f:	48 89 85 20 f4 ff ff 	mov    %rax,-0xbe0(%rbp)
    b626:	48 8d 05 5b 16 01 00 	lea    0x1165b(%rip),%rax        # 1cc88 <g_1594>
    b62d:	48 89 85 00 fc ff ff 	mov    %rax,-0x400(%rbp)
    b634:	48 8d 05 4d 16 01 00 	lea    0x1164d(%rip),%rax        # 1cc88 <g_1594>
    b63b:	48 89 85 08 fc ff ff 	mov    %rax,-0x3f8(%rbp)
    b642:	48 8d 05 3f 16 01 00 	lea    0x1163f(%rip),%rax        # 1cc88 <g_1594>
    b649:	48 89 85 10 fc ff ff 	mov    %rax,-0x3f0(%rbp)
    b650:	48 8d 05 31 16 01 00 	lea    0x11631(%rip),%rax        # 1cc88 <g_1594>
    b657:	48 89 85 18 fc ff ff 	mov    %rax,-0x3e8(%rbp)
    b65e:	48 8d 05 23 16 01 00 	lea    0x11623(%rip),%rax        # 1cc88 <g_1594>
    b665:	48 89 85 20 fc ff ff 	mov    %rax,-0x3e0(%rbp)
    b66c:	48 8d 05 15 16 01 00 	lea    0x11615(%rip),%rax        # 1cc88 <g_1594>
    b673:	48 89 85 28 fc ff ff 	mov    %rax,-0x3d8(%rbp)
    b67a:	48 8d 05 07 16 01 00 	lea    0x11607(%rip),%rax        # 1cc88 <g_1594>
    b681:	48 89 85 30 fc ff ff 	mov    %rax,-0x3d0(%rbp)
    b688:	c7 85 48 f3 ff ff e7 	movl   $0x9e3b79e7,-0xcb8(%rbp)
    b68f:	79 3b 9e 
    b692:	c7 85 4c f3 ff ff 00 	movl   $0x0,-0xcb4(%rbp)
    b699:	00 00 00 
    b69c:	83 85 4c f3 ff ff 01 	addl   $0x1,-0xcb4(%rbp)
    b6a3:	e9 b0 0e 00 00       	jmpq   c558 <func_19+0x1121>
    b6a8:	c7 85 14 f3 ff ff c2 	movl   $0x3f999cc2,-0xcec(%rbp)
    b6af:	9c 99 3f 
    b6b2:	c7 85 e4 f2 ff ff fa 	movl   $0xfffffffa,-0xd1c(%rbp)
    b6b9:	ff ff ff 
    b6bc:	48 8d 05 cd 33 01 00 	lea    0x133cd(%rip),%rax        # 1ea90 <g_107>
    b6c3:	48 89 85 58 f3 ff ff 	mov    %rax,-0xca8(%rbp)
    b6ca:	48 8d 85 58 f3 ff ff 	lea    -0xca8(%rbp),%rax
    b6d1:	48 89 85 88 f3 ff ff 	mov    %rax,-0xc78(%rbp)
    b6d8:	48 8d 85 00 fc ff ff 	lea    -0x400(%rbp),%rax
    b6df:	48 8d 15 da 15 01 00 	lea    0x115da(%rip),%rdx        # 1ccc0 <g_2112+0x10>
    b6e6:	b9 78 00 00 00       	mov    $0x78,%ecx
    b6eb:	48 89 c7             	mov    %rax,%rdi
    b6ee:	48 89 d6             	mov    %rdx,%rsi
    b6f1:	f3 48 a5             	rep movsq %ds:(%rsi),%es:(%rdi)
    b6f4:	c7 85 18 f3 ff ff f4 	movl   $0x70895df4,-0xce8(%rbp)
    b6fb:	5d 89 70 
    b6fe:	c6 85 cb f2 ff ff f8 	movb   $0xf8,-0xd35(%rbp)
    b705:	c7 85 30 f4 ff ff c1 	movl   $0x56ba40c1,-0xbd0(%rbp)
    b70c:	40 ba 56 
    b70f:	c7 85 34 f4 ff ff c1 	movl   $0x56ba40c1,-0xbcc(%rbp)
    b716:	40 ba 56 
    b719:	c7 85 38 f4 ff ff c1 	movl   $0x56ba40c1,-0xbc8(%rbp)
    b720:	40 ba 56 
    b723:	c7 85 3c f4 ff ff c1 	movl   $0x56ba40c1,-0xbc4(%rbp)
    b72a:	40 ba 56 
    b72d:	c7 85 e8 f2 ff ff 00 	movl   $0x0,-0xd18(%rbp)
    b734:	00 00 00 
    b737:	eb 46                	jmp    b77f <func_19+0x348>
    b739:	c7 85 ec f2 ff ff 00 	movl   $0x0,-0xd14(%rbp)
    b740:	00 00 00 
    b743:	eb 2a                	jmp    b76f <func_19+0x338>
    b745:	8b 85 ec f2 ff ff    	mov    -0xd14(%rbp),%eax
    b74b:	48 98                	cltq   
    b74d:	8b 95 e8 f2 ff ff    	mov    -0xd18(%rbp),%edx
    b753:	48 63 d2             	movslq %edx,%rdx
    b756:	48 01 d2             	add    %rdx,%rdx
    b759:	48 01 d0             	add    %rdx,%rax
    b75c:	48 c7 84 c5 e0 f4 ff 	movq   $0x0,-0xb20(%rbp,%rax,8)
    b763:	ff 00 00 00 00 
    b768:	83 85 ec f2 ff ff 01 	addl   $0x1,-0xd14(%rbp)
    b76f:	83 bd ec f2 ff ff 01 	cmpl   $0x1,-0xd14(%rbp)
    b776:	7e cd                	jle    b745 <func_19+0x30e>
    b778:	83 85 e8 f2 ff ff 01 	addl   $0x1,-0xd18(%rbp)
    b77f:	83 bd e8 f2 ff ff 03 	cmpl   $0x3,-0xd18(%rbp)
    b786:	7e b1                	jle    b739 <func_19+0x302>
    b788:	c7 85 e8 f2 ff ff 00 	movl   $0x0,-0xd18(%rbp)
    b78f:	00 00 00 
    b792:	eb 1a                	jmp    b7ae <func_19+0x377>
    b794:	8b 85 e8 f2 ff ff    	mov    -0xd18(%rbp),%eax
    b79a:	48 98                	cltq   
    b79c:	c7 84 85 2c f4 ff ff 	movl   $0xfa5bd536,-0xbd4(%rbp,%rax,4)
    b7a3:	36 d5 5b fa 
    b7a7:	83 85 e8 f2 ff ff 01 	addl   $0x1,-0xd18(%rbp)
    b7ae:	83 bd e8 f2 ff ff 00 	cmpl   $0x0,-0xd18(%rbp)
    b7b5:	7e dd                	jle    b794 <func_19+0x35d>
    b7b7:	90                   	nop
    b7b8:	48 8b 15 b1 3f 01 00 	mov    0x13fb1(%rip),%rdx        # 1f770 <g_1362>
    b7bf:	48 8b 05 aa 3f 01 00 	mov    0x13faa(%rip),%rax        # 1f770 <g_1362>
    b7c6:	48 8b 12             	mov    (%rdx),%rdx
    b7c9:	48 89 10             	mov    %rdx,(%rax)
    b7cc:	c7 85 dc f2 ff ff 00 	movl   $0x0,-0xd24(%rbp)
    b7d3:	00 00 00 
    b7d6:	e9 9a 0b 00 00       	jmpq   c375 <func_19+0xf3e>
    b7db:	c7 85 1c f3 ff ff 04 	movl   $0x4,-0xce4(%rbp)
    b7e2:	00 00 00 
    b7e5:	48 8d 05 40 4c 01 00 	lea    0x14c40(%rip),%rax        # 2042c <g_327>
    b7ec:	48 89 85 a0 f3 ff ff 	mov    %rax,-0xc60(%rbp)
    b7f3:	48 8d 05 2e fc 00 00 	lea    0xfc2e(%rip),%rax        # 1b428 <g_91+0x8>
    b7fa:	48 89 85 60 f3 ff ff 	mov    %rax,-0xca0(%rbp)
    b801:	48 8d 85 c0 f5 ff ff 	lea    -0xa40(%rbp),%rax
    b808:	48 8d 15 71 18 01 00 	lea    0x11871(%rip),%rdx        # 1d080 <g_2112+0x3d0>
    b80f:	b9 50 00 00 00       	mov    $0x50,%ecx
    b814:	48 89 c7             	mov    %rax,%rdi
    b817:	48 89 d6             	mov    %rdx,%rsi
    b81a:	f3 48 a5             	rep movsq %ds:(%rsi),%es:(%rdi)
    b81d:	48 c7 85 a8 f3 ff ff 	movq   $0x0,-0xc58(%rbp)
    b824:	00 00 00 00 
    b828:	c7 85 40 f4 ff ff 5a 	movl   $0x7de0dc5a,-0xbc0(%rbp)
    b82f:	dc e0 7d 
    b832:	c7 85 44 f4 ff ff 0e 	movl   $0x482c8d0e,-0xbbc(%rbp)
    b839:	8d 2c 48 
    b83c:	c7 85 48 f4 ff ff fc 	movl   $0xfffffffc,-0xbb8(%rbp)
    b843:	ff ff ff 
    b846:	c7 85 4c f4 ff ff fc 	movl   $0xfffffffc,-0xbb4(%rbp)
    b84d:	ff ff ff 
    b850:	c7 85 50 f4 ff ff fc 	movl   $0xfffffffc,-0xbb0(%rbp)
    b857:	ff ff ff 
    b85a:	c7 85 54 f4 ff ff 0e 	movl   $0x482c8d0e,-0xbac(%rbp)
    b861:	8d 2c 48 
    b864:	c7 85 58 f4 ff ff 5a 	movl   $0x7de0dc5a,-0xba8(%rbp)
    b86b:	dc e0 7d 
    b86e:	c7 85 5c f4 ff ff 4b 	movl   $0x748d24b,-0xba4(%rbp)
    b875:	d2 48 07 
    b878:	c7 85 60 f4 ff ff 0e 	movl   $0x482c8d0e,-0xba0(%rbp)
    b87f:	8d 2c 48 
    b882:	c7 85 64 f4 ff ff 4b 	movl   $0x748d24b,-0xb9c(%rbp)
    b889:	d2 48 07 
    b88c:	c7 85 20 f3 ff ff 00 	movl   $0x0,-0xce0(%rbp)
    b893:	00 00 00 
    b896:	c7 85 24 f3 ff ff 64 	movl   $0x7d248364,-0xcdc(%rbp)
    b89d:	83 24 7d 
    b8a0:	c7 85 28 f3 ff ff f7 	movl   $0xd2dcd8f7,-0xcd8(%rbp)
    b8a7:	d8 dc d2 
    b8aa:	c7 85 2c f3 ff ff f6 	movl   $0xfffffff6,-0xcd4(%rbp)
    b8b1:	ff ff ff 
    b8b4:	48 8d 05 ed 3e 01 00 	lea    0x13eed(%rip),%rax        # 1f7a8 <g_1602>
    b8bb:	48 89 85 20 f5 ff ff 	mov    %rax,-0xae0(%rbp)
    b8c2:	48 8d 05 df 3e 01 00 	lea    0x13edf(%rip),%rax        # 1f7a8 <g_1602>
    b8c9:	48 89 85 28 f5 ff ff 	mov    %rax,-0xad8(%rbp)
    b8d0:	48 8d 05 d1 3e 01 00 	lea    0x13ed1(%rip),%rax        # 1f7a8 <g_1602>
    b8d7:	48 89 85 30 f5 ff ff 	mov    %rax,-0xad0(%rbp)
    b8de:	48 8d 05 c3 3e 01 00 	lea    0x13ec3(%rip),%rax        # 1f7a8 <g_1602>
    b8e5:	48 89 85 38 f5 ff ff 	mov    %rax,-0xac8(%rbp)
    b8ec:	48 8d 05 b5 3e 01 00 	lea    0x13eb5(%rip),%rax        # 1f7a8 <g_1602>
    b8f3:	48 89 85 40 f5 ff ff 	mov    %rax,-0xac0(%rbp)
    b8fa:	48 8d 05 a7 3e 01 00 	lea    0x13ea7(%rip),%rax        # 1f7a8 <g_1602>
    b901:	48 89 85 48 f5 ff ff 	mov    %rax,-0xab8(%rbp)
    b908:	48 8d 05 99 3e 01 00 	lea    0x13e99(%rip),%rax        # 1f7a8 <g_1602>
    b90f:	48 89 85 50 f5 ff ff 	mov    %rax,-0xab0(%rbp)
    b916:	48 8d 05 8b 3e 01 00 	lea    0x13e8b(%rip),%rax        # 1f7a8 <g_1602>
    b91d:	48 89 85 58 f5 ff ff 	mov    %rax,-0xaa8(%rbp)
    b924:	48 8d 05 7d 3e 01 00 	lea    0x13e7d(%rip),%rax        # 1f7a8 <g_1602>
    b92b:	48 89 85 60 f5 ff ff 	mov    %rax,-0xaa0(%rbp)
    b932:	c7 85 30 f3 ff ff ff 	movl   $0xffffffff,-0xcd0(%rbp)
    b939:	ff ff ff 
    b93c:	be e2 ff ff ff       	mov    $0xffffffe2,%esi
    b941:	bf af ff ff ff       	mov    $0xffffffaf,%edi
    b946:	e8 89 d8 ff ff       	callq  91d4 <safe_add_func_int8_t_s_s>
    b94b:	41 89 c4             	mov    %eax,%r12d
    b94e:	8b 85 ac f8 ff ff    	mov    -0x754(%rbp),%eax
    b954:	48 63 d8             	movslq %eax,%rbx
    b957:	48 8b 85 e0 f4 ff ff 	mov    -0xb20(%rbp),%rax
    b95e:	48 85 c0             	test   %rax,%rax
    b961:	0f 95 c0             	setne  %al
    b964:	0f b6 c0             	movzbl %al,%eax
    b967:	8b 95 0c f3 ff ff    	mov    -0xcf4(%rbp),%edx
    b96d:	89 d6                	mov    %edx,%esi
    b96f:	89 c7                	mov    %eax,%edi
    b971:	e8 40 dc ff ff       	callq  95b6 <safe_add_func_int32_t_s_s>
    b976:	8b 85 1c f3 ff ff    	mov    -0xce4(%rbp),%eax
    b97c:	48 89 de             	mov    %rbx,%rsi
    b97f:	48 89 c7             	mov    %rax,%rdi
    b982:	e8 f9 e6 ff ff       	callq  a080 <safe_mod_func_uint64_t_u_u>
    b987:	48 83 c8 01          	or     $0x1,%rax
    b98b:	48 89 c2             	mov    %rax,%rdx
    b98e:	0f b6 85 bc f2 ff ff 	movzbl -0xd44(%rbp),%eax
    b995:	48 39 c2             	cmp    %rax,%rdx
    b998:	0f 95 c0             	setne  %al
    b99b:	0f b6 c0             	movzbl %al,%eax
    b99e:	39 85 14 f3 ff ff    	cmp    %eax,-0xcec(%rbp)
    b9a4:	0f 9f c0             	setg   %al
    b9a7:	0f b6 c0             	movzbl %al,%eax
    b9aa:	48 c7 c6 ff ff ff ff 	mov    $0xffffffffffffffff,%rsi
    b9b1:	48 89 c7             	mov    %rax,%rdi
    b9b4:	e8 75 e6 ff ff       	callq  a02e <safe_add_func_uint64_t_u_u>
    b9b9:	0f be d0             	movsbl %al,%edx
    b9bc:	48 8b 05 45 44 01 00 	mov    0x14445(%rip),%rax        # 1fe08 <g_1695>
    b9c3:	48 8b 00             	mov    (%rax),%rax
    b9c6:	0f b6 00             	movzbl (%rax),%eax
    b9c9:	0f be c0             	movsbl %al,%eax
    b9cc:	89 d6                	mov    %edx,%esi
    b9ce:	89 c7                	mov    %eax,%edi
    b9d0:	e8 95 d8 ff ff       	callq  926a <safe_div_func_int8_t_s_s>
    b9d5:	48 8b 15 bc 38 01 00 	mov    0x138bc(%rip),%rdx        # 1f298 <g_694>
    b9dc:	8b 12                	mov    (%rdx),%edx
    b9de:	21 d0                	and    %edx,%eax
    b9e0:	0f be c0             	movsbl %al,%eax
    b9e3:	be 00 00 00 00       	mov    $0x0,%esi
    b9e8:	89 c7                	mov    %eax,%edi
    b9ea:	e8 23 d8 ff ff       	callq  9212 <safe_mul_func_int8_t_s_s>
    b9ef:	0f be c0             	movsbl %al,%eax
    b9f2:	be 16 15 d4 1f       	mov    $0x1fd41516,%esi
    b9f7:	89 c7                	mov    %eax,%edi
    b9f9:	e8 07 dc ff ff       	callq  9605 <safe_sub_func_int32_t_s_s>
    b9fe:	89 c2                	mov    %eax,%edx
    ba00:	48 8d 05 41 0c 01 00 	lea    0x10c41(%rip),%rax        # 1c648 <g_951+0x68>
    ba07:	48 63 d2             	movslq %edx,%rdx
    ba0a:	48 89 10             	mov    %rdx,(%rax)
    ba0d:	48 8b 00             	mov    (%rax),%rax
    ba10:	44 31 e0             	xor    %r12d,%eax
    ba13:	0f b6 c0             	movzbl %al,%eax
    ba16:	89 c7                	mov    %eax,%edi
    ba18:	e8 28 e1 ff ff       	callq  9b45 <safe_unary_minus_func_uint8_t_u>
    ba1d:	84 c0                	test   %al,%al
    ba1f:	0f 84 11 02 00 00    	je     bc36 <func_19+0x7ff>
    ba25:	c7 85 70 f3 ff ff ff 	movl   $0xffffffff,-0xc90(%rbp)
    ba2c:	ff ff ff 
    ba2f:	48 8d 05 22 02 01 00 	lea    0x10222(%rip),%rax        # 1bc58 <g_252>
    ba36:	48 89 85 70 f5 ff ff 	mov    %rax,-0xa90(%rbp)
    ba3d:	48 8d 05 14 02 01 00 	lea    0x10214(%rip),%rax        # 1bc58 <g_252>
    ba44:	48 89 85 78 f5 ff ff 	mov    %rax,-0xa88(%rbp)
    ba4b:	48 8d 05 06 02 01 00 	lea    0x10206(%rip),%rax        # 1bc58 <g_252>
    ba52:	48 89 85 80 f5 ff ff 	mov    %rax,-0xa80(%rbp)
    ba59:	48 8d 05 f8 01 01 00 	lea    0x101f8(%rip),%rax        # 1bc58 <g_252>
    ba60:	48 89 85 88 f5 ff ff 	mov    %rax,-0xa78(%rbp)
    ba67:	48 8d 05 ea 01 01 00 	lea    0x101ea(%rip),%rax        # 1bc58 <g_252>
    ba6e:	48 89 85 90 f5 ff ff 	mov    %rax,-0xa70(%rbp)
    ba75:	48 8d 05 dc 01 01 00 	lea    0x101dc(%rip),%rax        # 1bc58 <g_252>
    ba7c:	48 89 85 98 f5 ff ff 	mov    %rax,-0xa68(%rbp)
    ba83:	48 8d 05 ce 01 01 00 	lea    0x101ce(%rip),%rax        # 1bc58 <g_252>
    ba8a:	48 89 85 a0 f5 ff ff 	mov    %rax,-0xa60(%rbp)
    ba91:	48 8d 05 c0 01 01 00 	lea    0x101c0(%rip),%rax        # 1bc58 <g_252>
    ba98:	48 89 85 a8 f5 ff ff 	mov    %rax,-0xa58(%rbp)
    ba9f:	48 8d 05 b2 01 01 00 	lea    0x101b2(%rip),%rax        # 1bc58 <g_252>
    baa6:	48 89 85 b0 f5 ff ff 	mov    %rax,-0xa50(%rbp)
    baad:	48 8d 05 a4 01 01 00 	lea    0x101a4(%rip),%rax        # 1bc58 <g_252>
    bab4:	48 89 85 b8 f5 ff ff 	mov    %rax,-0xa48(%rbp)
    babb:	48 8d 05 62 0e 01 00 	lea    0x10e62(%rip),%rax        # 1c924 <g_1114+0x4>
    bac2:	48 89 85 70 f4 ff ff 	mov    %rax,-0xb90(%rbp)
    bac9:	48 8d 05 a4 11 01 00 	lea    0x111a4(%rip),%rax        # 1cc74 <g_1588+0x4>
    bad0:	48 89 85 78 f4 ff ff 	mov    %rax,-0xb88(%rbp)
    bad7:	48 8d 05 46 0e 01 00 	lea    0x10e46(%rip),%rax        # 1c924 <g_1114+0x4>
    bade:	48 89 85 80 f4 ff ff 	mov    %rax,-0xb80(%rbp)
    bae5:	48 8d 05 88 11 01 00 	lea    0x11188(%rip),%rax        # 1cc74 <g_1588+0x4>
    baec:	48 89 85 88 f4 ff ff 	mov    %rax,-0xb78(%rbp)
    baf3:	48 8d 05 2a 0e 01 00 	lea    0x10e2a(%rip),%rax        # 1c924 <g_1114+0x4>
    bafa:	48 89 85 90 f4 ff ff 	mov    %rax,-0xb70(%rbp)
    bb01:	48 8d 05 6c 11 01 00 	lea    0x1116c(%rip),%rax        # 1cc74 <g_1588+0x4>
    bb08:	48 89 85 98 f4 ff ff 	mov    %rax,-0xb68(%rbp)
    bb0f:	8b 85 1c f3 ff ff    	mov    -0xce4(%rbp),%eax
    bb15:	0f b7 d8             	movzwl %ax,%ebx
    bb18:	8b 05 a9 02 01 00    	mov    0x102a9(%rip),%eax        # 1bdc7 <g_896+0x7>
    bb1e:	85 c0                	test   %eax,%eax
    bb20:	0f 84 b4 00 00 00    	je     bbda <func_19+0x7a3>
    bb26:	0f b6 05 55 01 01 00 	movzbl 0x10155(%rip),%eax        # 1bc82 <g_337>
    bb2d:	44 0f be e0          	movsbl %al,%r12d
    bb31:	48 8b 05 48 3c 01 00 	mov    0x13c48(%rip),%rax        # 1f780 <g_1492>
    bb38:	48 8b 00             	mov    (%rax),%rax
    bb3b:	0f b6 00             	movzbl (%rax),%eax
    bb3e:	0f b6 c0             	movzbl %al,%eax
    bb41:	89 c6                	mov    %eax,%esi
    bb43:	bf 59 00 00 00       	mov    $0x59,%edi
    bb48:	e8 8e e0 ff ff       	callq  9bdb <safe_div_func_uint8_t_u_u>
    bb4d:	0f b6 c0             	movzbl %al,%eax
    bb50:	44 89 e6             	mov    %r12d,%esi
    bb53:	89 c7                	mov    %eax,%edi
    bb55:	e8 bc d8 ff ff       	callq  9416 <safe_mod_func_int16_t_s_s>
    bb5a:	66 85 c0             	test   %ax,%ax
    bb5d:	75 16                	jne    bb75 <func_19+0x73e>
    bb5f:	48 8b 05 4a 0b 01 00 	mov    0x10b4a(%rip),%rax        # 1c6b0 <g_991+0x10>
    bb66:	89 85 e4 f2 ff ff    	mov    %eax,-0xd1c(%rbp)
    bb6c:	83 bd e4 f2 ff ff 01 	cmpl   $0x1,-0xd1c(%rbp)
    bb73:	74 07                	je     bb7c <func_19+0x745>
    bb75:	b8 01 00 00 00       	mov    $0x1,%eax
    bb7a:	eb 05                	jmp    bb81 <func_19+0x74a>
    bb7c:	b8 00 00 00 00       	mov    $0x0,%eax
    bb81:	23 85 14 f3 ff ff    	and    -0xcec(%rbp),%eax
    bb87:	89 c2                	mov    %eax,%edx
    bb89:	48 8b 05 78 42 01 00 	mov    0x14278(%rip),%rax        # 1fe08 <g_1695>
    bb90:	48 8b 00             	mov    (%rax),%rax
    bb93:	0f b6 00             	movzbl (%rax),%eax
    bb96:	0f be c0             	movsbl %al,%eax
    bb99:	39 c2                	cmp    %eax,%edx
    bb9b:	0f 9e c0             	setle  %al
    bb9e:	0f b6 c0             	movzbl %al,%eax
    bba1:	33 85 14 f3 ff ff    	xor    -0xcec(%rbp),%eax
    bba7:	89 85 d0 f2 ff ff    	mov    %eax,-0xd30(%rbp)
    bbad:	8b 85 d0 f2 ff ff    	mov    -0xd30(%rbp),%eax
    bbb3:	83 e0 fb             	and    $0xfffffffb,%eax
    bbb6:	0f be c0             	movsbl %al,%eax
    bbb9:	be 04 00 00 00       	mov    $0x4,%esi
    bbbe:	89 c7                	mov    %eax,%edi
    bbc0:	e8 a7 d7 ff ff       	callq  936c <safe_rshift_func_int8_t_s_u>
    bbc5:	0f be c0             	movsbl %al,%eax
    bbc8:	23 85 14 f3 ff ff    	and    -0xcec(%rbp),%eax
    bbce:	85 c0                	test   %eax,%eax
    bbd0:	75 07                	jne    bbd9 <func_19+0x7a2>
    bbd2:	80 bd bc f2 ff ff 00 	cmpb   $0x0,-0xd44(%rbp)
    bbd9:	90                   	nop
    bbda:	b9 00 00 00 00       	mov    $0x0,%ecx
    bbdf:	0f b7 05 8e 10 01 00 	movzwl 0x1108e(%rip),%eax        # 1cc74 <g_1588+0x4>
    bbe6:	89 c2                	mov    %eax,%edx
    bbe8:	89 c8                	mov    %ecx,%eax
    bbea:	21 d0                	and    %edx,%eax
    bbec:	66 89 05 81 10 01 00 	mov    %ax,0x11081(%rip)        # 1cc74 <g_1588+0x4>
    bbf3:	0f b7 05 7a 10 01 00 	movzwl 0x1107a(%rip),%eax        # 1cc74 <g_1588+0x4>
    bbfa:	0f b7 c0             	movzwl %ax,%eax
    bbfd:	89 de                	mov    %ebx,%esi
    bbff:	89 c7                	mov    %eax,%edi
    bc01:	e8 f9 e0 ff ff       	callq  9cff <safe_add_func_uint16_t_u_u>
    bc06:	b9 22 6b 17 5c       	mov    $0x5c176b22,%ecx
    bc0b:	48 8b 05 86 30 01 00 	mov    0x13086(%rip),%rax        # 1ec98 <g_135>
    bc12:	8b 00                	mov    (%rax),%eax
    bc14:	89 c2                	mov    %eax,%edx
    bc16:	89 c8                	mov    %ecx,%eax
    bc18:	09 c2                	or     %eax,%edx
    bc1a:	48 8b 05 77 30 01 00 	mov    0x13077(%rip),%rax        # 1ec98 <g_135>
    bc21:	89 10                	mov    %edx,(%rax)
    bc23:	8b 85 70 f3 ff ff    	mov    -0xc90(%rbp),%eax
    bc29:	85 c0                	test   %eax,%eax
    bc2b:	0f 84 f4 05 00 00    	je     c225 <func_19+0xdee>
    bc31:	e9 38 07 00 00       	jmpq   c36e <func_19+0xf37>
    bc36:	48 b8 9c e9 6c 08 6c 	movabs $0xa08b486c086ce99c,%rax
    bc3d:	48 8b a0 
    bc40:	48 89 85 b0 f3 ff ff 	mov    %rax,-0xc50(%rbp)
    bc47:	48 8d 05 f2 47 01 00 	lea    0x147f2(%rip),%rax        # 20440 <g_550>
    bc4e:	48 89 85 b8 f3 ff ff 	mov    %rax,-0xc48(%rbp)
    bc55:	83 bd 1c f3 ff ff 00 	cmpl   $0x0,-0xce4(%rbp)
    bc5c:	74 05                	je     bc63 <func_19+0x82c>
    bc5e:	e9 55 fb ff ff       	jmpq   b7b8 <func_19+0x381>
    bc63:	c7 85 d0 f2 ff ff 01 	movl   $0x1,-0xd30(%rbp)
    bc6a:	00 00 00 
    bc6d:	e9 2a 05 00 00       	jmpq   c19c <func_19+0xd65>
    bc72:	48 8d 05 bf 09 01 00 	lea    0x109bf(%rip),%rax        # 1c638 <g_951+0x58>
    bc79:	48 89 85 68 f3 ff ff 	mov    %rax,-0xc98(%rbp)
    bc80:	48 8d 85 68 f3 ff ff 	lea    -0xc98(%rbp),%rax
    bc87:	48 89 85 70 f3 ff ff 	mov    %rax,-0xc90(%rbp)
    bc8e:	48 8d 85 70 f4 ff ff 	lea    -0xb90(%rbp),%rax
    bc95:	48 83 c0 08          	add    $0x8,%rax
    bc99:	48 89 85 c0 f3 ff ff 	mov    %rax,-0xc40(%rbp)
    bca0:	c7 85 34 f3 ff ff 00 	movl   $0x0,-0xccc(%rbp)
    bca7:	00 00 00 
    bcaa:	c7 85 38 f3 ff ff 21 	movl   $0xa7f55021,-0xcc8(%rbp)
    bcb1:	50 f5 a7 
    bcb4:	c7 85 f0 f2 ff ff 00 	movl   $0x0,-0xd10(%rbp)
    bcbb:	00 00 00 
    bcbe:	eb 49                	jmp    bd09 <func_19+0x8d2>
    bcc0:	c7 85 f4 f2 ff ff 00 	movl   $0x0,-0xd0c(%rbp)
    bcc7:	00 00 00 
    bcca:	eb 2d                	jmp    bcf9 <func_19+0x8c2>
    bccc:	8b 85 f4 f2 ff ff    	mov    -0xd0c(%rbp),%eax
    bcd2:	48 98                	cltq   
    bcd4:	8b 95 f0 f2 ff ff    	mov    -0xd10(%rbp),%edx
    bcda:	48 63 d2             	movslq %edx,%rdx
    bcdd:	48 01 d2             	add    %rdx,%rdx
    bce0:	48 01 c2             	add    %rax,%rdx
    bce3:	48 8d 85 70 f3 ff ff 	lea    -0xc90(%rbp),%rax
    bcea:	48 89 84 d5 70 f4 ff 	mov    %rax,-0xb90(%rbp,%rdx,8)
    bcf1:	ff 
    bcf2:	83 85 f4 f2 ff ff 01 	addl   $0x1,-0xd0c(%rbp)
    bcf9:	83 bd f4 f2 ff ff 01 	cmpl   $0x1,-0xd0c(%rbp)
    bd00:	7e ca                	jle    bccc <func_19+0x895>
    bd02:	83 85 f0 f2 ff ff 01 	addl   $0x1,-0xd10(%rbp)
    bd09:	83 bd f0 f2 ff ff 02 	cmpl   $0x2,-0xd10(%rbp)
    bd10:	7e ae                	jle    bcc0 <func_19+0x889>
    bd12:	48 8b 85 b0 f3 ff ff 	mov    -0xc50(%rbp),%rax
    bd19:	0f b7 d8             	movzwl %ax,%ebx
    bd1c:	0f b7 05 5d ff 00 00 	movzwl 0xff5d(%rip),%eax        # 1bc80 <g_313>
    bd23:	44 0f bf e0          	movswl %ax,%r12d
    bd27:	44 0f b6 ad bc f2 ff 	movzbl -0xd44(%rbp),%r13d
    bd2e:	ff 
    bd2f:	48 8b 05 52 2d 01 00 	mov    0x12d52(%rip),%rax        # 1ea88 <g_108>
    bd36:	c6 00 41             	movb   $0x41,(%rax)
    bd39:	0f b6 85 bc f2 ff ff 	movzbl -0xd44(%rbp),%eax
    bd40:	0f be c0             	movsbl %al,%eax
    bd43:	be 41 00 00 00       	mov    $0x41,%esi
    bd48:	89 c7                	mov    %eax,%edi
    bd4a:	e8 1b d5 ff ff       	callq  926a <safe_div_func_int8_t_s_s>
    bd4f:	0f b6 85 bc f2 ff ff 	movzbl -0xd44(%rbp),%eax
    bd56:	89 c6                	mov    %eax,%esi
    bd58:	bf 00 00 00 00       	mov    $0x0,%edi
    bd5d:	e8 93 d6 ff ff       	callq  93f5 <safe_mul_func_int16_t_s_s>
    bd62:	48 0f bf c0          	movswq %ax,%rax
    bd66:	48 39 85 b0 f3 ff ff 	cmp    %rax,-0xc50(%rbp)
    bd6d:	44 89 ee             	mov    %r13d,%esi
    bd70:	bf 01 00 00 00       	mov    $0x1,%edi
    bd75:	e8 7b d6 ff ff       	callq  93f5 <safe_mul_func_int16_t_s_s>
    bd7a:	48 8b 85 c0 f3 ff ff 	mov    -0xc40(%rbp),%rax
    bd81:	48 c7 00 00 00 00 00 	movq   $0x0,(%rax)
    bd88:	48 8b 85 c0 f3 ff ff 	mov    -0xc40(%rbp),%rax
    bd8f:	48 8b 00             	mov    (%rax),%rax
    bd92:	48 8d 15 7f 39 01 00 	lea    0x1397f(%rip),%rdx        # 1f718 <g_949>
    bd99:	48 39 d0             	cmp    %rdx,%rax
    bd9c:	48 8b 05 ed 34 01 00 	mov    0x134ed(%rip),%rax        # 1f290 <g_612>
    bda3:	48 c7 00 00 00 00 00 	movq   $0x0,(%rax)
    bdaa:	0f b6 85 bc f2 ff ff 	movzbl -0xd44(%rbp),%eax
    bdb1:	39 85 0c f3 ff ff    	cmp    %eax,-0xcf4(%rbp)
    bdb7:	0f 9e c0             	setle  %al
    bdba:	0f b6 c0             	movzbl %al,%eax
    bdbd:	44 89 e6             	mov    %r12d,%esi
    bdc0:	89 c7                	mov    %eax,%edi
    bdc2:	e8 3f e0 ff ff       	callq  9e06 <safe_lshift_func_uint16_t_u_u>
    bdc7:	8b 05 83 ff 00 00    	mov    0xff83(%rip),%eax        # 1bd50 <g_711>
    bdcd:	0f be c0             	movsbl %al,%eax
    bdd0:	be 04 00 00 00       	mov    $0x4,%esi
    bdd5:	89 c7                	mov    %eax,%edi
    bdd7:	e8 59 d5 ff ff       	callq  9335 <safe_rshift_func_int8_t_s_s>
    bddc:	be 07 00 00 00       	mov    $0x7,%esi
    bde1:	bf 01 00 00 00       	mov    $0x1,%edi
    bde6:	e8 d3 de ff ff       	callq  9cbe <safe_rshift_func_uint8_t_u_u>
    bdeb:	0f b6 c0             	movzbl %al,%eax
    bdee:	89 de                	mov    %ebx,%esi
    bdf0:	89 c7                	mov    %eax,%edi
    bdf2:	e8 46 df ff ff       	callq  9d3d <safe_mul_func_uint16_t_u_u>
    bdf7:	0f b6 85 bc f2 ff ff 	movzbl -0xd44(%rbp),%eax
    bdfe:	be ff ff ff ff       	mov    $0xffffffff,%esi
    be03:	89 c7                	mov    %eax,%edi
    be05:	e8 f3 e0 ff ff       	callq  9efd <safe_mod_func_uint32_t_u_u>
    be0a:	0f b6 c0             	movzbl %al,%eax
    be0d:	be 07 00 00 00       	mov    $0x7,%esi
    be12:	89 c7                	mov    %eax,%edi
    be14:	e8 74 de ff ff       	callq  9c8d <safe_rshift_func_uint8_t_u_s>
    be19:	0f b6 c0             	movzbl %al,%eax
    be1c:	be 01 00 00 00       	mov    $0x1,%esi
    be21:	89 c7                	mov    %eax,%edi
    be23:	e8 90 e0 ff ff       	callq  9eb8 <safe_add_func_uint32_t_u_u>
    be28:	85 c0                	test   %eax,%eax
    be2a:	74 71                	je     be9d <func_19+0xa66>
    be2c:	48 c7 85 70 f5 ff ff 	movq   $0x0,-0xa90(%rbp)
    be33:	00 00 00 00 
    be37:	48 8d 85 60 f3 ff ff 	lea    -0xca0(%rbp),%rax
    be3e:	48 89 85 78 f5 ff ff 	mov    %rax,-0xa88(%rbp)
    be45:	48 8d 85 60 f3 ff ff 	lea    -0xca0(%rbp),%rax
    be4c:	48 89 85 80 f5 ff ff 	mov    %rax,-0xa80(%rbp)
    be53:	48 c7 85 88 f5 ff ff 	movq   $0x0,-0xa78(%rbp)
    be5a:	00 00 00 00 
    be5e:	48 8d 85 60 f3 ff ff 	lea    -0xca0(%rbp),%rax
    be65:	48 89 85 90 f5 ff ff 	mov    %rax,-0xa70(%rbp)
    be6c:	48 8d 85 60 f3 ff ff 	lea    -0xca0(%rbp),%rax
    be73:	48 89 85 98 f5 ff ff 	mov    %rax,-0xa68(%rbp)
    be7a:	80 bd bc f2 ff ff 00 	cmpb   $0x0,-0xd44(%rbp)
    be81:	0f 85 23 03 00 00    	jne    c1aa <func_19+0xd73>
    be87:	48 8b 05 d2 38 01 00 	mov    0x138d2(%rip),%rax        # 1f760 <g_1329>
    be8e:	48 8b 95 60 f3 ff ff 	mov    -0xca0(%rbp),%rdx
    be95:	48 89 10             	mov    %rdx,(%rax)
    be98:	e9 f0 02 00 00       	jmpq   c18d <func_19+0xd56>
    be9d:	c7 85 3c f3 ff ff 15 	movl   $0x684e6615,-0xcc4(%rbp)
    bea4:	66 4e 68 
    bea7:	48 8d 05 57 0a 01 00 	lea    0x10a57(%rip),%rax        # 1c905 <g_1113+0x65>
    beae:	48 89 85 70 f5 ff ff 	mov    %rax,-0xa90(%rbp)
    beb5:	48 8d 05 49 0a 01 00 	lea    0x10a49(%rip),%rax        # 1c905 <g_1113+0x65>
    bebc:	48 89 85 78 f5 ff ff 	mov    %rax,-0xa88(%rbp)
    bec3:	48 8d 05 3b 0a 01 00 	lea    0x10a3b(%rip),%rax        # 1c905 <g_1113+0x65>
    beca:	48 89 85 80 f5 ff ff 	mov    %rax,-0xa80(%rbp)
    bed1:	48 8d 05 2d 0a 01 00 	lea    0x10a2d(%rip),%rax        # 1c905 <g_1113+0x65>
    bed8:	48 89 85 88 f5 ff ff 	mov    %rax,-0xa78(%rbp)
    bedf:	48 8d 05 1f 0a 01 00 	lea    0x10a1f(%rip),%rax        # 1c905 <g_1113+0x65>
    bee6:	48 89 85 90 f5 ff ff 	mov    %rax,-0xa70(%rbp)
    beed:	8b 85 38 f3 ff ff    	mov    -0xcc8(%rbp),%eax
    bef3:	0f b6 d8             	movzbl %al,%ebx
    bef6:	44 8b a5 44 f4 ff ff 	mov    -0xbbc(%rbp),%r12d
    befd:	48 8b 05 04 3f 01 00 	mov    0x13f04(%rip),%rax        # 1fe08 <g_1695>
    bf04:	48 8b 00             	mov    (%rax),%rax
    bf07:	0f b6 00             	movzbl (%rax),%eax
    bf0a:	44 0f b6 e8          	movzbl %al,%r13d
    bf0e:	44 8b b5 1c f3 ff ff 	mov    -0xce4(%rbp),%r14d
    bf15:	44 0f b6 bd bc f2 ff 	movzbl -0xd44(%rbp),%r15d
    bf1c:	ff 
    bf1d:	8b 85 e4 f2 ff ff    	mov    -0xd1c(%rbp),%eax
    bf23:	98                   	cwtl   
    bf24:	89 85 b8 f2 ff ff    	mov    %eax,-0xd48(%rbp)
    bf2a:	8b 8d 04 f3 ff ff    	mov    -0xcfc(%rbp),%ecx
    bf30:	89 8d b4 f2 ff ff    	mov    %ecx,-0xd4c(%rbp)
    bf36:	0f b6 95 bc f2 ff ff 	movzbl -0xd44(%rbp),%edx
    bf3d:	48 83 bd b8 f3 ff ff 	cmpq   $0x0,-0xc48(%rbp)
    bf44:	00 
    bf45:	0f 95 c0             	setne  %al
    bf48:	0f b6 c0             	movzbl %al,%eax
    bf4b:	89 d6                	mov    %edx,%esi
    bf4d:	89 c7                	mov    %eax,%edi
    bf4f:	e8 0f d6 ff ff       	callq  9563 <safe_rshift_func_int16_t_s_u>
    bf54:	0f be c0             	movsbl %al,%eax
    bf57:	be 05 00 00 00       	mov    $0x5,%esi
    bf5c:	89 c7                	mov    %eax,%edi
    bf5e:	e8 09 d4 ff ff       	callq  936c <safe_rshift_func_int8_t_s_u>
    bf63:	0f b6 85 bc f2 ff ff 	movzbl -0xd44(%rbp),%eax
    bf6a:	8b b5 b4 f2 ff ff    	mov    -0xd4c(%rbp),%esi
    bf70:	89 c7                	mov    %eax,%edi
    bf72:	e8 ec d5 ff ff       	callq  9563 <safe_rshift_func_int16_t_s_u>
    bf77:	48 0f bf c0          	movswq %ax,%rax
    bf7b:	48 83 f0 f6          	xor    $0xfffffffffffffff6,%rax
    bf7f:	66 09 85 cc f2 ff ff 	or     %ax,-0xd34(%rbp)
    bf86:	48 8b 05 fb 2a 01 00 	mov    0x12afb(%rip),%rax        # 1ea88 <g_108>
    bf8d:	0f b6 00             	movzbl (%rax),%eax
    bf90:	0f b6 c0             	movzbl %al,%eax
    bf93:	66 39 85 cc f2 ff ff 	cmp    %ax,-0xd34(%rbp)
    bf9a:	0f 97 c0             	seta   %al
    bf9d:	0f b6 d0             	movzbl %al,%edx
    bfa0:	48 8b 05 d9 2a 01 00 	mov    0x12ad9(%rip),%rax        # 1ea80 <g_32>
    bfa7:	0f b6 00             	movzbl (%rax),%eax
    bfaa:	0f be c0             	movsbl %al,%eax
    bfad:	39 c2                	cmp    %eax,%edx
    bfaf:	0f 95 c0             	setne  %al
    bfb2:	0f b6 c0             	movzbl %al,%eax
    bfb5:	09 85 34 f3 ff ff    	or     %eax,-0xccc(%rbp)
    bfbb:	48 8b 05 c6 2a 01 00 	mov    0x12ac6(%rip),%rax        # 1ea88 <g_108>
    bfc2:	0f b6 00             	movzbl (%rax),%eax
    bfc5:	0f b6 d0             	movzbl %al,%edx
    bfc8:	48 8b 85 68 f3 ff ff 	mov    -0xc98(%rbp),%rax
    bfcf:	48 39 85 a8 f3 ff ff 	cmp    %rax,-0xc58(%rbp)
    bfd6:	0f 95 c0             	setne  %al
    bfd9:	0f b6 c0             	movzbl %al,%eax
    bfdc:	31 c2                	xor    %eax,%edx
    bfde:	48 8b 85 70 f3 ff ff 	mov    -0xc90(%rbp),%rax
    bfe5:	48 8b 00             	mov    (%rax),%rax
    bfe8:	48 8b 08             	mov    (%rax),%rcx
    bfeb:	48 63 d2             	movslq %edx,%rdx
    bfee:	48 8b 85 70 f3 ff ff 	mov    -0xc90(%rbp),%rax
    bff5:	48 8b 00             	mov    (%rax),%rax
    bff8:	48 31 ca             	xor    %rcx,%rdx
    bffb:	48 89 10             	mov    %rdx,(%rax)
    bffe:	0f b6 05 c1 fd 00 00 	movzbl 0xfdc1(%rip),%eax        # 1bdc6 <g_896+0x6>
    c005:	0f b6 c0             	movzbl %al,%eax
    c008:	f7 d0                	not    %eax
    c00a:	98                   	cwtl   
    c00b:	be f8 ff ff ff       	mov    $0xfffffff8,%esi
    c010:	89 c7                	mov    %eax,%edi
    c012:	e8 9c d3 ff ff       	callq  93b3 <safe_add_func_int16_t_s_s>
    c017:	8b 15 33 fc 00 00    	mov    0xfc33(%rip),%edx        # 1bc50 <g_248>
    c01d:	31 d0                	xor    %edx,%eax
    c01f:	98                   	cwtl   
    c020:	8b b5 b8 f2 ff ff    	mov    -0xd48(%rbp),%esi
    c026:	89 c7                	mov    %eax,%edi
    c028:	e8 c8 d3 ff ff       	callq  93f5 <safe_mul_func_int16_t_s_s>
    c02d:	0f b6 85 bc f2 ff ff 	movzbl -0xd44(%rbp),%eax
    c034:	44 89 fe             	mov    %r15d,%esi
    c037:	89 c7                	mov    %eax,%edi
    c039:	e8 ec d4 ff ff       	callq  952a <safe_rshift_func_int16_t_s_s>
    c03e:	98                   	cwtl   
    c03f:	8b 95 04 f3 ff ff    	mov    -0xcfc(%rbp),%edx
    c045:	89 d6                	mov    %edx,%esi
    c047:	89 c7                	mov    %eax,%edi
    c049:	e8 68 d5 ff ff       	callq  95b6 <safe_add_func_int32_t_s_s>
    c04e:	48 8b 95 a0 f3 ff ff 	mov    -0xc60(%rbp),%rdx
    c055:	8b 12                	mov    (%rdx),%edx
    c057:	31 c2                	xor    %eax,%edx
    c059:	48 8b 85 a0 f3 ff ff 	mov    -0xc60(%rbp),%rax
    c060:	89 10                	mov    %edx,(%rax)
    c062:	48 8b 85 a0 f3 ff ff 	mov    -0xc60(%rbp),%rax
    c069:	8b 00                	mov    (%rax),%eax
    c06b:	8b 95 1c f3 ff ff    	mov    -0xce4(%rbp),%edx
    c071:	89 d6                	mov    %edx,%esi
    c073:	89 c7                	mov    %eax,%edi
    c075:	e8 56 de ff ff       	callq  9ed0 <safe_sub_func_uint32_t_u_u>
    c07a:	85 c0                	test   %eax,%eax
    c07c:	75 09                	jne    c087 <func_19+0xc50>
    c07e:	83 bd 3c f3 ff ff 00 	cmpl   $0x0,-0xcc4(%rbp)
    c085:	74 07                	je     c08e <func_19+0xc57>
    c087:	b8 01 00 00 00       	mov    $0x1,%eax
    c08c:	eb 05                	jmp    c093 <func_19+0xc5c>
    c08e:	b8 00 00 00 00       	mov    $0x0,%eax
    c093:	3b 85 38 f3 ff ff    	cmp    -0xcc8(%rbp),%eax
    c099:	0f 9c c0             	setl   %al
    c09c:	0f b6 c0             	movzbl %al,%eax
    c09f:	4c 89 f6             	mov    %r14,%rsi
    c0a2:	48 89 c7             	mov    %rax,%rdi
    c0a5:	e8 84 df ff ff       	callq  a02e <safe_add_func_uint64_t_u_u>
    c0aa:	83 f0 46             	xor    $0x46,%eax
    c0ad:	0f b6 d0             	movzbl %al,%edx
    c0b0:	48 8b 05 d1 29 01 00 	mov    0x129d1(%rip),%rax        # 1ea88 <g_108>
    c0b7:	0f b6 00             	movzbl (%rax),%eax
    c0ba:	0f b6 c0             	movzbl %al,%eax
    c0bd:	89 d6                	mov    %edx,%esi
    c0bf:	89 c7                	mov    %eax,%edi
    c0c1:	e8 b2 da ff ff       	callq  9b78 <safe_sub_func_uint8_t_u_u>
    c0c6:	0f b6 c0             	movzbl %al,%eax
    c0c9:	25 ab 00 00 00       	and    $0xab,%eax
    c0ce:	44 89 ee             	mov    %r13d,%esi
    c0d1:	89 c7                	mov    %eax,%edi
    c0d3:	e8 bb da ff ff       	callq  9b93 <safe_mul_func_uint8_t_u_u>
    c0d8:	80 bd bc f2 ff ff 00 	cmpb   $0x0,-0xd44(%rbp)
    c0df:	0f 95 c0             	setne  %al
    c0e2:	0f b6 c0             	movzbl %al,%eax
    c0e5:	44 89 e6             	mov    %r12d,%esi
    c0e8:	89 c7                	mov    %eax,%edi
    c0ea:	e8 0e de ff ff       	callq  9efd <safe_mod_func_uint32_t_u_u>
    c0ef:	0f b6 c0             	movzbl %al,%eax
    c0f2:	89 de                	mov    %ebx,%esi
    c0f4:	89 c7                	mov    %eax,%edi
    c0f6:	e8 98 da ff ff       	callq  9b93 <safe_mul_func_uint8_t_u_u>
    c0fb:	8b 85 44 f4 ff ff    	mov    -0xbbc(%rbp),%eax
    c101:	89 c0                	mov    %eax,%eax
    c103:	48 0b 85 b0 f3 ff ff 	or     -0xc50(%rbp),%rax
    c10a:	48 89 c2             	mov    %rax,%rdx
    c10d:	0f b6 85 bc f2 ff ff 	movzbl -0xd44(%rbp),%eax
    c114:	48 39 c2             	cmp    %rax,%rdx
    c117:	7f 09                	jg     c122 <func_19+0xceb>
    c119:	80 bd bc f2 ff ff 00 	cmpb   $0x0,-0xd44(%rbp)
    c120:	74 07                	je     c129 <func_19+0xcf2>
    c122:	b8 01 00 00 00       	mov    $0x1,%eax
    c127:	eb 05                	jmp    c12e <func_19+0xcf7>
    c129:	b8 00 00 00 00       	mov    $0x0,%eax
    c12e:	3b 85 38 f3 ff ff    	cmp    -0xcc8(%rbp),%eax
    c134:	0f 9c c0             	setl   %al
    c137:	0f b6 c0             	movzbl %al,%eax
    c13a:	33 85 1c f3 ff ff    	xor    -0xce4(%rbp),%eax
    c140:	89 c1                	mov    %eax,%ecx
    c142:	48 8d 05 f7 35 01 00 	lea    0x135f7(%rip),%rax        # 1f740 <g_1287>
    c149:	48 8b 10             	mov    (%rax),%rdx
    c14c:	48 8b 85 38 f8 ff ff 	mov    -0x7c8(%rbp),%rax
    c153:	48 39 c2             	cmp    %rax,%rdx
    c156:	0f 95 c0             	setne  %al
    c159:	0f b6 c0             	movzbl %al,%eax
    c15c:	89 ce                	mov    %ecx,%esi
    c15e:	89 c7                	mov    %eax,%edi
    c160:	e8 c5 d3 ff ff       	callq  952a <safe_rshift_func_int16_t_s_s>
    c165:	98                   	cwtl   
    c166:	39 85 3c f3 ff ff    	cmp    %eax,-0xcc4(%rbp)
    c16c:	0f 95 c0             	setne  %al
    c16f:	0f b6 c8             	movzbl %al,%ecx
    c172:	48 8b 05 1f 2b 01 00 	mov    0x12b1f(%rip),%rax        # 1ec98 <g_135>
    c179:	8b 10                	mov    (%rax),%edx
    c17b:	48 8b 05 16 2b 01 00 	mov    0x12b16(%rip),%rax        # 1ec98 <g_135>
    c182:	09 ca                	or     %ecx,%edx
    c184:	89 10                	mov    %edx,(%rax)
    c186:	80 bd bc f2 ff ff 00 	cmpb   $0x0,-0xd44(%rbp)
    c18d:	8b 85 d0 f2 ff ff    	mov    -0xd30(%rbp),%eax
    c193:	83 e8 01             	sub    $0x1,%eax
    c196:	89 85 d0 f2 ff ff    	mov    %eax,-0xd30(%rbp)
    c19c:	8b 85 d0 f2 ff ff    	mov    -0xd30(%rbp),%eax
    c1a2:	85 c0                	test   %eax,%eax
    c1a4:	0f 89 c8 fa ff ff    	jns    bc72 <func_19+0x83b>
    c1aa:	66 c7 05 81 0a 01 00 	movw   $0x0,0x10a81(%rip)        # 1cc34 <g_1509+0x4>
    c1b1:	00 00 
    c1b3:	eb 60                	jmp    c215 <func_19+0xdde>
    c1b5:	66 c7 85 ce f2 ff ff 	movw   $0x95d7,-0xd32(%rbp)
    c1bc:	d7 95 
    c1be:	48 8b 05 d3 28 01 00 	mov    0x128d3(%rip),%rax        # 1ea98 <g_106>
    c1c5:	48 8b 00             	mov    (%rax),%rax
    c1c8:	48 8b 00             	mov    (%rax),%rax
    c1cb:	0f b6 00             	movzbl (%rax),%eax
    c1ce:	0f b6 c0             	movzbl %al,%eax
    c1d1:	be c8 00 00 00       	mov    $0xc8,%esi
    c1d6:	89 c7                	mov    %eax,%edi
    c1d8:	e8 b6 d9 ff ff       	callq  9b93 <safe_mul_func_uint8_t_u_u>
    c1dd:	48 8b 15 bc 2a 01 00 	mov    0x12abc(%rip),%rdx        # 1eca0 <g_134>
    c1e4:	48 8b 12             	mov    (%rdx),%rdx
    c1e7:	8b 0a                	mov    (%rdx),%ecx
    c1e9:	0f b6 d0             	movzbl %al,%edx
    c1ec:	48 8b 05 ad 2a 01 00 	mov    0x12aad(%rip),%rax        # 1eca0 <g_134>
    c1f3:	48 8b 00             	mov    (%rax),%rax
    c1f6:	09 ca                	or     %ecx,%edx
    c1f8:	89 10                	mov    %edx,(%rax)
    c1fa:	66 83 bd ce f2 ff ff 	cmpw   $0x0,-0xd32(%rbp)
    c201:	00 
    c202:	75 20                	jne    c224 <func_19+0xded>
    c204:	0f b7 05 29 0a 01 00 	movzwl 0x10a29(%rip),%eax        # 1cc34 <g_1509+0x4>
    c20b:	83 c0 01             	add    $0x1,%eax
    c20e:	66 89 05 1f 0a 01 00 	mov    %ax,0x10a1f(%rip)        # 1cc34 <g_1509+0x4>
    c215:	0f b7 05 18 0a 01 00 	movzwl 0x10a18(%rip),%eax        # 1cc34 <g_1509+0x4>
    c21c:	66 83 f8 01          	cmp    $0x1,%ax
    c220:	76 93                	jbe    c1b5 <func_19+0xd7e>
    c222:	eb 01                	jmp    c225 <func_19+0xdee>
    c224:	90                   	nop
    c225:	c7 05 41 0a 01 00 00 	movl   $0x0,0x10a41(%rip)        # 1cc70 <g_1588>
    c22c:	00 00 00 
    c22f:	e9 28 01 00 00       	jmpq   c35c <func_19+0xf25>
    c234:	48 8d 05 bd fb 00 00 	lea    0xfbbd(%rip),%rax        # 1bdf8 <g_922>
    c23b:	48 89 85 c8 f3 ff ff 	mov    %rax,-0xc38(%rbp)
    c242:	c7 85 40 f3 ff ff 01 	movl   $0x1,-0xcc0(%rbp)
    c249:	00 00 00 
    c24c:	48 8d 05 69 f9 00 00 	lea    0xf969(%rip),%rax        # 1bbbc <g_95+0x1c>
    c253:	48 89 85 d0 f3 ff ff 	mov    %rax,-0xc30(%rbp)
    c25a:	48 8d 85 40 f8 ff ff 	lea    -0x7c0(%rbp),%rax
    c261:	48 83 c0 04          	add    $0x4,%rax
    c265:	48 89 85 d8 f3 ff ff 	mov    %rax,-0xc28(%rbp)
    c26c:	48 8d 85 d4 f2 ff ff 	lea    -0xd2c(%rbp),%rax
    c273:	48 89 85 e0 f3 ff ff 	mov    %rax,-0xc20(%rbp)
    c27a:	48 c7 85 e8 f3 ff ff 	movq   $0x0,-0xc18(%rbp)
    c281:	00 00 00 00 
    c285:	48 c7 85 f0 f3 ff ff 	movq   $0x0,-0xc10(%rbp)
    c28c:	00 00 00 00 
    c290:	48 8d 85 d0 f2 ff ff 	lea    -0xd30(%rbp),%rax
    c297:	48 89 85 f8 f3 ff ff 	mov    %rax,-0xc08(%rbp)
    c29e:	48 c7 85 00 f4 ff ff 	movq   $0x0,-0xc00(%rbp)
    c2a5:	00 00 00 00 
    c2a9:	48 8d 05 d8 09 01 00 	lea    0x109d8(%rip),%rax        # 1cc88 <g_1594>
    c2b0:	48 89 85 08 f4 ff ff 	mov    %rax,-0xbf8(%rbp)
    c2b7:	48 8d 05 ea 2f 01 00 	lea    0x12fea(%rip),%rax        # 1f2a8 <g_734>
    c2be:	48 89 85 10 f4 ff ff 	mov    %rax,-0xbf0(%rbp)
    c2c5:	c7 85 f8 f2 ff ff 00 	movl   $0x0,-0xd08(%rbp)
    c2cc:	00 00 00 
    c2cf:	eb 22                	jmp    c2f3 <func_19+0xebc>
    c2d1:	8b 85 f8 f2 ff ff    	mov    -0xd08(%rbp),%eax
    c2d7:	48 98                	cltq   
    c2d9:	48 8d 95 40 f8 ff ff 	lea    -0x7c0(%rbp),%rdx
    c2e0:	48 83 c2 6c          	add    $0x6c,%rdx
    c2e4:	48 89 94 c5 70 f5 ff 	mov    %rdx,-0xa90(%rbp,%rax,8)
    c2eb:	ff 
    c2ec:	83 85 f8 f2 ff ff 01 	addl   $0x1,-0xd08(%rbp)
    c2f3:	83 bd f8 f2 ff ff 00 	cmpl   $0x0,-0xd08(%rbp)
    c2fa:	7e d5                	jle    c2d1 <func_19+0xe9a>
    c2fc:	83 bd e4 f2 ff ff 00 	cmpl   $0x0,-0xd1c(%rbp)
    c303:	75 68                	jne    c36d <func_19+0xf36>
    c305:	83 ad e0 f2 ff ff 01 	subl   $0x1,-0xd20(%rbp)
    c30c:	66 c7 05 af f9 00 00 	movw   $0x0,0xf9af(%rip)        # 1bcc4 <g_408+0x4>
    c313:	00 00 
    c315:	eb 29                	jmp    c340 <func_19+0xf09>
    c317:	48 8d 05 62 27 01 00 	lea    0x12762(%rip),%rax        # 1ea80 <g_32>
    c31e:	48 89 85 18 f4 ff ff 	mov    %rax,-0xbe8(%rbp)
    c325:	c7 85 44 f3 ff ff fd 	movl   $0x83edf2fd,-0xcbc(%rbp)
    c32c:	f2 ed 83 
    c32f:	0f b7 05 8e f9 00 00 	movzwl 0xf98e(%rip),%eax        # 1bcc4 <g_408+0x4>
    c336:	83 c0 01             	add    $0x1,%eax
    c339:	66 89 05 84 f9 00 00 	mov    %ax,0xf984(%rip)        # 1bcc4 <g_408+0x4>
    c340:	0f b7 05 7d f9 00 00 	movzwl 0xf97d(%rip),%eax        # 1bcc4 <g_408+0x4>
    c347:	66 83 f8 01          	cmp    $0x1,%ax
    c34b:	76 ca                	jbe    c317 <func_19+0xee0>
    c34d:	8b 05 1d 09 01 00    	mov    0x1091d(%rip),%eax        # 1cc70 <g_1588>
    c353:	83 c0 01             	add    $0x1,%eax
    c356:	89 05 14 09 01 00    	mov    %eax,0x10914(%rip)        # 1cc70 <g_1588>
    c35c:	8b 05 0e 09 01 00    	mov    0x1090e(%rip),%eax        # 1cc70 <g_1588>
    c362:	83 f8 01             	cmp    $0x1,%eax
    c365:	0f 86 c9 fe ff ff    	jbe    c234 <func_19+0xdfd>
    c36b:	eb 01                	jmp    c36e <func_19+0xf37>
    c36d:	90                   	nop
    c36e:	83 85 dc f2 ff ff 01 	addl   $0x1,-0xd24(%rbp)
    c375:	83 bd dc f2 ff ff 01 	cmpl   $0x1,-0xd24(%rbp)
    c37c:	0f 8e 59 f4 ff ff    	jle    b7db <func_19+0x3a4>
    c382:	48 8b 05 17 34 01 00 	mov    0x13417(%rip),%rax        # 1f7a0 <g_1603>
    c389:	48 8b 00             	mov    (%rax),%rax
    c38c:	0f b7 10             	movzwl (%rax),%edx
    c38f:	8b 85 14 f3 ff ff    	mov    -0xcec(%rbp),%eax
    c395:	89 c1                	mov    %eax,%ecx
    c397:	48 8b 05 02 34 01 00 	mov    0x13402(%rip),%rax        # 1f7a0 <g_1603>
    c39e:	48 8b 00             	mov    (%rax),%rax
    c3a1:	31 ca                	xor    %ecx,%edx
    c3a3:	66 89 10             	mov    %dx,(%rax)
    c3a6:	0f b7 00             	movzwl (%rax),%eax
    c3a9:	0f b7 d0             	movzwl %ax,%edx
    c3ac:	48 8b 85 88 f3 ff ff 	mov    -0xc78(%rbp),%rax
    c3b3:	48 8b 00             	mov    (%rax),%rax
    c3b6:	48 c7 85 80 f3 ff ff 	movq   $0x0,-0xc80(%rbp)
    c3bd:	00 00 00 00 
    c3c1:	48 39 85 80 f3 ff ff 	cmp    %rax,-0xc80(%rbp)
    c3c8:	0f 95 c0             	setne  %al
    c3cb:	0f b6 c0             	movzbl %al,%eax
    c3ce:	89 d6                	mov    %edx,%esi
    c3d0:	89 c7                	mov    %eax,%edi
    c3d2:	e8 66 d9 ff ff       	callq  9d3d <safe_mul_func_uint16_t_u_u>
    c3d7:	8b 85 2c f4 ff ff    	mov    -0xbd4(%rbp),%eax
    c3dd:	8b 95 2c f4 ff ff    	mov    -0xbd4(%rbp),%edx
    c3e3:	85 d2                	test   %edx,%edx
    c3e5:	75 18                	jne    c3ff <func_19+0xfc8>
    c3e7:	48 8b 15 2a 33 01 00 	mov    0x1332a(%rip),%rdx        # 1f718 <g_949>
    c3ee:	48 8b 12             	mov    (%rdx),%rdx
    c3f1:	48 c7 02 f7 ff ff ff 	movq   $0xfffffffffffffff7,(%rdx)
    c3f8:	ba 01 00 00 00       	mov    $0x1,%edx
    c3fd:	eb 05                	jmp    c404 <func_19+0xfcd>
    c3ff:	ba 00 00 00 00       	mov    $0x0,%edx
    c404:	21 85 e4 f2 ff ff    	and    %eax,-0xd1c(%rbp)
    c40a:	3b 95 e4 f2 ff ff    	cmp    -0xd1c(%rbp),%edx
    c410:	0f 9c c0             	setl   %al
    c413:	0f b6 d0             	movzbl %al,%edx
    c416:	48 0f be 85 ca f2 ff 	movsbq -0xd36(%rbp),%rax
    c41d:	ff 
    c41e:	48 89 d6             	mov    %rdx,%rsi
    c421:	48 89 c7             	mov    %rax,%rdi
    c424:	e8 05 dc ff ff       	callq  a02e <safe_add_func_uint64_t_u_u>
    c429:	48 89 c2             	mov    %rax,%rdx
    c42c:	0f b6 85 bc f2 ff ff 	movzbl -0xd44(%rbp),%eax
    c433:	48 89 d6             	mov    %rdx,%rsi
    c436:	48 89 c7             	mov    %rax,%rdi
    c439:	e8 71 dc ff ff       	callq  a0af <safe_div_func_uint64_t_u_u>
    c43e:	80 bd bc f2 ff ff 00 	cmpb   $0x0,-0xd44(%rbp)
    c445:	74 66                	je     c4ad <func_19+0x1076>
    c447:	48 c7 85 98 f3 ff ff 	movq   $0x0,-0xc68(%rbp)
    c44e:	00 00 00 00 
    c452:	c7 85 fc f2 ff ff 00 	movl   $0x0,-0xd04(%rbp)
    c459:	00 00 00 
    c45c:	eb 1e                	jmp    c47c <func_19+0x1045>
    c45e:	8b 85 fc f2 ff ff    	mov    -0xd04(%rbp),%eax
    c464:	48 98                	cltq   
    c466:	48 8d 95 d0 f2 ff ff 	lea    -0xd30(%rbp),%rdx
    c46d:	48 89 94 c5 c0 f5 ff 	mov    %rdx,-0xa40(%rbp,%rax,8)
    c474:	ff 
    c475:	83 85 fc f2 ff ff 01 	addl   $0x1,-0xd04(%rbp)
    c47c:	83 bd fc f2 ff ff 02 	cmpl   $0x2,-0xd04(%rbp)
    c483:	7e d9                	jle    c45e <func_19+0x1027>
    c485:	83 85 18 f3 ff ff 01 	addl   $0x1,-0xce8(%rbp)
    c48c:	0f b6 85 cb f2 ff ff 	movzbl -0xd35(%rbp),%eax
    c493:	83 c0 01             	add    $0x1,%eax
    c496:	88 85 cb f2 ff ff    	mov    %al,-0xd35(%rbp)
    c49c:	8b 85 34 f4 ff ff    	mov    -0xbcc(%rbp),%eax
    c4a2:	89 85 d8 f2 ff ff    	mov    %eax,-0xd28(%rbp)
    c4a8:	e9 ab 00 00 00       	jmpq   c558 <func_19+0x1121>
    c4ad:	48 8d 05 04 f0 00 00 	lea    0xf004(%rip),%rax        # 1b4b8 <g_91+0x98>
    c4b4:	48 89 85 70 f3 ff ff 	mov    %rax,-0xc90(%rbp)
    c4bb:	66 c7 05 00 f9 00 00 	movw   $0xfff9,0xf900(%rip)        # 1bdc4 <g_896+0x4>
    c4c2:	f9 ff 
    c4c4:	eb 79                	jmp    c53f <func_19+0x1108>
    c4c6:	48 8d 85 70 f3 ff ff 	lea    -0xc90(%rbp),%rax
    c4cd:	48 89 85 90 f3 ff ff 	mov    %rax,-0xc70(%rbp)
    c4d4:	48 8b 95 70 f3 ff ff 	mov    -0xc90(%rbp),%rdx
    c4db:	48 8b 85 90 f3 ff ff 	mov    -0xc70(%rbp),%rax
    c4e2:	48 89 10             	mov    %rdx,(%rax)
    c4e5:	48 c7 05 2b 07 01 00 	movq   $0x0,0x1072b(%rip)        # 1cc1b <g_1500+0xb>
    c4ec:	00 00 00 00 
    c4f0:	eb 2f                	jmp    c521 <func_19+0x10ea>
    c4f2:	48 8b 05 22 07 01 00 	mov    0x10722(%rip),%rax        # 1cc1b <g_1500+0xb>
    c4f9:	48 8d 14 85 00 00 00 	lea    0x0(,%rax,4),%rdx
    c500:	00 
    c501:	48 8d 05 80 07 01 00 	lea    0x10780(%rip),%rax        # 1cc88 <g_1594>
    c508:	c7 04 02 09 00 00 00 	movl   $0x9,(%rdx,%rax,1)
    c50f:	48 8b 05 05 07 01 00 	mov    0x10705(%rip),%rax        # 1cc1b <g_1500+0xb>
    c516:	48 83 c0 01          	add    $0x1,%rax
    c51a:	48 89 05 fa 06 01 00 	mov    %rax,0x106fa(%rip)        # 1cc1b <g_1500+0xb>
    c521:	48 8b 05 f3 06 01 00 	mov    0x106f3(%rip),%rax        # 1cc1b <g_1500+0xb>
    c528:	48 83 f8 01          	cmp    $0x1,%rax
    c52c:	7e c4                	jle    c4f2 <func_19+0x10bb>
    c52e:	0f b7 05 8f f8 00 00 	movzwl 0xf88f(%rip),%eax        # 1bdc4 <g_896+0x4>
    c535:	83 c0 01             	add    $0x1,%eax
    c538:	66 89 05 85 f8 00 00 	mov    %ax,0xf885(%rip)        # 1bdc4 <g_896+0x4>
    c53f:	0f b7 05 7e f8 00 00 	movzwl 0xf87e(%rip),%eax        # 1bdc4 <g_896+0x4>
    c546:	66 83 f8 22          	cmp    $0x22,%ax
    c54a:	0f 85 76 ff ff ff    	jne    c4c6 <func_19+0x108f>
    c550:	8b 85 08 f3 ff ff    	mov    -0xcf8(%rbp),%eax
    c556:	eb 07                	jmp    c55f <func_19+0x1128>
    c558:	0f b6 85 bc f2 ff ff 	movzbl -0xd44(%rbp),%eax
    c55f:	48 8b 5d c8          	mov    -0x38(%rbp),%rbx
    c563:	64 48 33 1c 25 28 00 	xor    %fs:0x28,%rbx
    c56a:	00 00 
    c56c:	74 05                	je     c573 <func_19+0x113c>
    c56e:	e8 fd ca ff ff       	callq  9070 <__stack_chk_fail@plt>
    c573:	48 81 c4 28 0d 00 00 	add    $0xd28,%rsp
    c57a:	5b                   	pop    %rbx
    c57b:	41 5c                	pop    %r12
    c57d:	41 5d                	pop    %r13
    c57f:	41 5e                	pop    %r14
    c581:	41 5f                	pop    %r15
    c583:	5d                   	pop    %rbp
    c584:	c3                   	retq   

000000000000c585 <func_27>:
    c585:	f3 0f 1e fa          	endbr64 
    c589:	55                   	push   %rbp
    c58a:	48 89 e5             	mov    %rsp,%rbp
    c58d:	41 55                	push   %r13
    c58f:	41 54                	push   %r12
    c591:	53                   	push   %rbx
    c592:	48 81 ec d8 0c 00 00 	sub    $0xcd8,%rsp
    c599:	89 bd 2c f3 ff ff    	mov    %edi,-0xcd4(%rbp)
    c59f:	48 89 b5 20 f3 ff ff 	mov    %rsi,-0xce0(%rbp)
    c5a6:	89 d0                	mov    %edx,%eax
    c5a8:	48 89 8d 18 f3 ff ff 	mov    %rcx,-0xce8(%rbp)
    c5af:	66 89 85 28 f3 ff ff 	mov    %ax,-0xcd8(%rbp)
    c5b6:	64 48 8b 04 25 28 00 	mov    %fs:0x28,%rax
    c5bd:	00 00 
    c5bf:	48 89 45 d8          	mov    %rax,-0x28(%rbp)
    c5c3:	31 c0                	xor    %eax,%eax
    c5c5:	48 8d 85 b0 f6 ff ff 	lea    -0x950(%rbp),%rax
    c5cc:	48 8d 15 ed a5 00 00 	lea    0xa5ed(%rip),%rdx        # 16bc0 <g_1889+0x3d0>
    c5d3:	b9 43 00 00 00       	mov    $0x43,%ecx
    c5d8:	48 89 c7             	mov    %rax,%rdi
    c5db:	48 89 d6             	mov    %rdx,%rsi
    c5de:	f3 48 a5             	rep movsq %ds:(%rsi),%es:(%rdi)
    c5e1:	48 89 f2             	mov    %rsi,%rdx
    c5e4:	48 89 f8             	mov    %rdi,%rax
    c5e7:	8b 0a                	mov    (%rdx),%ecx
    c5e9:	89 08                	mov    %ecx,(%rax)
    c5eb:	48 8d 40 04          	lea    0x4(%rax),%rax
    c5ef:	48 8d 52 04          	lea    0x4(%rdx),%rdx
    c5f3:	c7 85 70 f4 ff ff 09 	movl   $0x9,-0xb90(%rbp)
    c5fa:	00 00 00 
    c5fd:	c7 85 74 f4 ff ff fb 	movl   $0xfffffffb,-0xb8c(%rbp)
    c604:	ff ff ff 
    c607:	c7 85 78 f4 ff ff 01 	movl   $0x1,-0xb88(%rbp)
    c60e:	00 00 00 
    c611:	c7 85 7c f4 ff ff fb 	movl   $0xfffffffb,-0xb84(%rbp)
    c618:	ff ff ff 
    c61b:	c7 85 80 f4 ff ff 09 	movl   $0x9,-0xb80(%rbp)
    c622:	00 00 00 
    c625:	c7 85 84 f4 ff ff 01 	movl   $0x1,-0xb7c(%rbp)
    c62c:	00 00 00 
    c62f:	c7 85 88 f4 ff ff fb 	movl   $0xfffffffb,-0xb78(%rbp)
    c636:	ff ff ff 
    c639:	c7 85 8c f4 ff ff 09 	movl   $0x9,-0xb74(%rbp)
    c640:	00 00 00 
    c643:	c7 85 90 f4 ff ff 01 	movl   $0x1,-0xb70(%rbp)
    c64a:	00 00 00 
    c64d:	c7 85 94 f4 ff ff e8 	movl   $0x864c41e8,-0xb6c(%rbp)
    c654:	41 4c 86 
    c657:	c7 85 98 f4 ff ff e8 	movl   $0x864c41e8,-0xb68(%rbp)
    c65e:	41 4c 86 
    c661:	c7 85 9c f4 ff ff 01 	movl   $0x1,-0xb64(%rbp)
    c668:	00 00 00 
    c66b:	c7 85 a0 f4 ff ff e8 	movl   $0x864c41e8,-0xb60(%rbp)
    c672:	41 4c 86 
    c675:	c7 85 a4 f4 ff ff e8 	movl   $0x864c41e8,-0xb5c(%rbp)
    c67c:	41 4c 86 
    c67f:	c7 85 a8 f4 ff ff 01 	movl   $0x1,-0xb58(%rbp)
    c686:	00 00 00 
    c689:	c7 85 ac f4 ff ff 09 	movl   $0x9,-0xb54(%rbp)
    c690:	00 00 00 
    c693:	c7 85 b0 f4 ff ff fb 	movl   $0xfffffffb,-0xb50(%rbp)
    c69a:	ff ff ff 
    c69d:	c7 85 b4 f4 ff ff 01 	movl   $0x1,-0xb4c(%rbp)
    c6a4:	00 00 00 
    c6a7:	c7 85 b8 f4 ff ff 09 	movl   $0x9,-0xb48(%rbp)
    c6ae:	00 00 00 
    c6b1:	c7 85 bc f4 ff ff fb 	movl   $0xfffffffb,-0xb44(%rbp)
    c6b8:	ff ff ff 
    c6bb:	c7 85 c0 f4 ff ff 01 	movl   $0x1,-0xb40(%rbp)
    c6c2:	00 00 00 
    c6c5:	c7 85 c4 f4 ff ff fb 	movl   $0xfffffffb,-0xb3c(%rbp)
    c6cc:	ff ff ff 
    c6cf:	c7 85 c8 f4 ff ff 09 	movl   $0x9,-0xb38(%rbp)
    c6d6:	00 00 00 
    c6d9:	c7 85 cc f4 ff ff 01 	movl   $0x1,-0xb34(%rbp)
    c6e0:	00 00 00 
    c6e3:	48 8d 05 ea f5 00 00 	lea    0xf5ea(%rip),%rax        # 1bcd4 <g_464>
    c6ea:	48 89 85 40 f3 ff ff 	mov    %rax,-0xcc0(%rbp)
    c6f1:	48 8d 85 40 f3 ff ff 	lea    -0xcc0(%rbp),%rax
    c6f8:	48 89 85 48 f3 ff ff 	mov    %rax,-0xcb8(%rbp)
    c6ff:	48 8d 85 48 f3 ff ff 	lea    -0xcb8(%rbp),%rax
    c706:	48 89 85 88 f3 ff ff 	mov    %rax,-0xc78(%rbp)
    c70d:	c7 85 3c f3 ff ff 3b 	movl   $0x59af753b,-0xcc4(%rbp)
    c714:	75 af 59 
    c717:	48 8d 05 48 f5 00 00 	lea    0xf548(%rip),%rax        # 1bc66 <g_280+0x6>
    c71e:	48 89 85 90 f3 ff ff 	mov    %rax,-0xc70(%rbp)
    c725:	48 8d 05 fa 01 01 00 	lea    0x101fa(%rip),%rax        # 1c926 <g_1114+0x6>
    c72c:	48 89 85 98 f3 ff ff 	mov    %rax,-0xc68(%rbp)
    c733:	48 c7 85 20 f4 ff ff 	movq   $0x0,-0xbe0(%rbp)
    c73a:	00 00 00 00 
    c73e:	48 8d 05 77 f4 00 00 	lea    0xf477(%rip),%rax        # 1bbbc <g_95+0x1c>
    c745:	48 89 85 28 f4 ff ff 	mov    %rax,-0xbd8(%rbp)
    c74c:	48 c7 85 30 f4 ff ff 	movq   $0x0,-0xbd0(%rbp)
    c753:	00 00 00 00 
    c757:	48 8d 05 5e f4 00 00 	lea    0xf45e(%rip),%rax        # 1bbbc <g_95+0x1c>
    c75e:	48 89 85 38 f4 ff ff 	mov    %rax,-0xbc8(%rbp)
    c765:	48 8d 05 a4 04 01 00 	lea    0x104a4(%rip),%rax        # 1cc10 <g_1500>
    c76c:	48 89 85 a0 f3 ff ff 	mov    %rax,-0xc60(%rbp)
    c773:	48 8d 05 42 f4 00 00 	lea    0xf442(%rip),%rax        # 1bbbc <g_95+0x1c>
    c77a:	48 89 85 50 f3 ff ff 	mov    %rax,-0xcb0(%rbp)
    c781:	48 8d 05 fa f4 00 00 	lea    0xf4fa(%rip),%rax        # 1bc82 <g_337>
    c788:	48 89 85 a8 f3 ff ff 	mov    %rax,-0xc58(%rbp)
    c78f:	48 8d 05 0a 2b 01 00 	lea    0x12b0a(%rip),%rax        # 1f2a0 <g_693>
    c796:	48 89 85 58 f3 ff ff 	mov    %rax,-0xca8(%rbp)
    c79d:	48 8d 85 58 f3 ff ff 	lea    -0xca8(%rbp),%rax
    c7a4:	48 89 85 b0 f3 ff ff 	mov    %rax,-0xc50(%rbp)
    c7ab:	c6 05 4e ec 00 00 0e 	movb   $0xe,0xec4e(%rip)        # 1b400 <g_33>
    c7b2:	eb 45                	jmp    c7f9 <func_27+0x274>
    c7b4:	48 8d 05 69 e8 00 00 	lea    0xe869(%rip),%rax        # 1b024 <g_4>
    c7bb:	48 89 85 80 f3 ff ff 	mov    %rax,-0xc80(%rbp)
    c7c2:	48 8d 85 80 f3 ff ff 	lea    -0xc80(%rbp),%rax
    c7c9:	48 89 85 b8 f3 ff ff 	mov    %rax,-0xc48(%rbp)
    c7d0:	48 8b 85 b8 f3 ff ff 	mov    -0xc48(%rbp),%rax
    c7d7:	48 c7 00 00 00 00 00 	movq   $0x0,(%rax)
    c7de:	0f b6 05 1b ec 00 00 	movzbl 0xec1b(%rip),%eax        # 1b400 <g_33>
    c7e5:	84 c0                	test   %al,%al
    c7e7:	75 1d                	jne    c806 <func_27+0x281>
    c7e9:	0f b6 05 10 ec 00 00 	movzbl 0xec10(%rip),%eax        # 1b400 <g_33>
    c7f0:	83 e8 01             	sub    $0x1,%eax
    c7f3:	88 05 07 ec 00 00    	mov    %al,0xec07(%rip)        # 1b400 <g_33>
    c7f9:	0f b6 05 00 ec 00 00 	movzbl 0xec00(%rip),%eax        # 1b400 <g_33>
    c800:	3c 02                	cmp    $0x2,%al
    c802:	75 b0                	jne    c7b4 <func_27+0x22f>
    c804:	eb 01                	jmp    c807 <func_27+0x282>
    c806:	90                   	nop
    c807:	c6 05 f2 eb 00 00 03 	movb   $0x3,0xebf2(%rip)        # 1b400 <g_33>
    c80e:	e9 aa 04 00 00       	jmpq   ccbd <func_27+0x738>
    c813:	c6 85 3b f3 ff ff 0a 	movb   $0xa,-0xcc5(%rbp)
    c81a:	48 8d 05 67 04 01 00 	lea    0x10467(%rip),%rax        # 1cc88 <g_1594>
    c821:	48 89 85 40 f4 ff ff 	mov    %rax,-0xbc0(%rbp)
    c828:	48 8d 05 59 04 01 00 	lea    0x10459(%rip),%rax        # 1cc88 <g_1594>
    c82f:	48 89 85 48 f4 ff ff 	mov    %rax,-0xbb8(%rbp)
    c836:	48 8d 05 4b 04 01 00 	lea    0x1044b(%rip),%rax        # 1cc88 <g_1594>
    c83d:	48 89 85 50 f4 ff ff 	mov    %rax,-0xbb0(%rbp)
    c844:	48 8d 05 3d 04 01 00 	lea    0x1043d(%rip),%rax        # 1cc88 <g_1594>
    c84b:	48 89 85 58 f4 ff ff 	mov    %rax,-0xba8(%rbp)
    c852:	48 8d 05 2f 04 01 00 	lea    0x1042f(%rip),%rax        # 1cc88 <g_1594>
    c859:	48 89 85 60 f4 ff ff 	mov    %rax,-0xba0(%rbp)
    c860:	48 c7 85 e0 f3 ff ff 	movq   $0x0,-0xc20(%rbp)
    c867:	00 00 00 00 
    c86b:	48 8d 05 e6 fe 00 00 	lea    0xfee6(%rip),%rax        # 1c758 <g_1083+0x78>
    c872:	48 89 85 e8 f3 ff ff 	mov    %rax,-0xc18(%rbp)
    c879:	48 8d 85 d0 f8 ff ff 	lea    -0x730(%rbp),%rax
    c880:	48 8d 15 79 0a 01 00 	lea    0x10a79(%rip),%rdx        # 1d300 <g_2112+0x650>
    c887:	b9 e0 00 00 00       	mov    $0xe0,%ecx
    c88c:	48 89 c7             	mov    %rax,%rdi
    c88f:	48 89 d6             	mov    %rdx,%rsi
    c892:	f3 48 a5             	rep movsq %ds:(%rsi),%es:(%rdi)
    c895:	48 8d 05 f4 21 01 00 	lea    0x121f4(%rip),%rax        # 1ea90 <g_107>
    c89c:	48 89 85 f0 f3 ff ff 	mov    %rax,-0xc10(%rbp)
    c8a3:	48 c7 85 78 f3 ff ff 	movq   $0x0,-0xc88(%rbp)
    c8aa:	00 00 00 00 
    c8ae:	48 8d 85 78 f3 ff ff 	lea    -0xc88(%rbp),%rax
    c8b5:	48 89 85 80 f3 ff ff 	mov    %rax,-0xc80(%rbp)
    c8bc:	48 8d 85 80 f3 ff ff 	lea    -0xc80(%rbp),%rax
    c8c3:	48 89 85 f8 f3 ff ff 	mov    %rax,-0xc08(%rbp)
    c8ca:	48 8d 05 af 21 01 00 	lea    0x121af(%rip),%rax        # 1ea80 <g_32>
    c8d1:	48 89 85 00 f4 ff ff 	mov    %rax,-0xc00(%rbp)
    c8d8:	48 8d 05 a1 f3 00 00 	lea    0xf3a1(%rip),%rax        # 1bc80 <g_313>
    c8df:	48 89 85 08 f4 ff ff 	mov    %rax,-0xbf8(%rbp)
    c8e6:	48 c7 85 10 f4 ff ff 	movq   $0x0,-0xbf0(%rbp)
    c8ed:	00 00 00 00 
    c8f1:	48 8d 05 34 3b 01 00 	lea    0x13b34(%rip),%rax        # 2042c <g_327>
    c8f8:	48 89 85 18 f4 ff ff 	mov    %rax,-0xbe8(%rbp)
    c8ff:	48 c7 85 d0 f4 ff ff 	movq   $0x0,-0xb30(%rbp)
    c906:	00 00 00 00 
    c90a:	48 c7 85 d8 f4 ff ff 	movq   $0x0,-0xb28(%rbp)
    c911:	00 00 00 00 
    c915:	48 c7 85 e0 f4 ff ff 	movq   $0x0,-0xb20(%rbp)
    c91c:	00 00 00 00 
    c920:	48 c7 85 e8 f4 ff ff 	movq   $0x0,-0xb18(%rbp)
    c927:	00 00 00 00 
    c92b:	48 c7 85 f0 f4 ff ff 	movq   $0x0,-0xb10(%rbp)
    c932:	00 00 00 00 
    c936:	48 8d 85 d0 f8 ff ff 	lea    -0x730(%rbp),%rax
    c93d:	48 05 f8 01 00 00    	add    $0x1f8,%rax
    c943:	48 89 85 f8 f4 ff ff 	mov    %rax,-0xb08(%rbp)
    c94a:	48 8d 85 d0 f8 ff ff 	lea    -0x730(%rbp),%rax
    c951:	48 05 f8 01 00 00    	add    $0x1f8,%rax
    c957:	48 89 85 00 f5 ff ff 	mov    %rax,-0xb00(%rbp)
    c95e:	48 8d 85 d0 f8 ff ff 	lea    -0x730(%rbp),%rax
    c965:	48 05 98 06 00 00    	add    $0x698,%rax
    c96b:	48 89 85 08 f5 ff ff 	mov    %rax,-0xaf8(%rbp)
    c972:	48 c7 85 10 f5 ff ff 	movq   $0x0,-0xaf0(%rbp)
    c979:	00 00 00 00 
    c97d:	48 8d 85 50 f3 ff ff 	lea    -0xcb0(%rbp),%rax
    c984:	48 89 85 18 f5 ff ff 	mov    %rax,-0xae8(%rbp)
    c98b:	48 c7 85 20 f5 ff ff 	movq   $0x0,-0xae0(%rbp)
    c992:	00 00 00 00 
    c996:	48 8d 85 d0 f8 ff ff 	lea    -0x730(%rbp),%rax
    c99d:	48 05 00 04 00 00    	add    $0x400,%rax
    c9a3:	48 89 85 28 f5 ff ff 	mov    %rax,-0xad8(%rbp)
    c9aa:	48 c7 85 30 f5 ff ff 	movq   $0x0,-0xad0(%rbp)
    c9b1:	00 00 00 00 
    c9b5:	48 8d 85 d0 f8 ff ff 	lea    -0x730(%rbp),%rax
    c9bc:	48 05 f8 01 00 00    	add    $0x1f8,%rax
    c9c2:	48 89 85 38 f5 ff ff 	mov    %rax,-0xac8(%rbp)
    c9c9:	48 8d 85 d0 f8 ff ff 	lea    -0x730(%rbp),%rax
    c9d0:	48 05 f8 01 00 00    	add    $0x1f8,%rax
    c9d6:	48 89 85 40 f5 ff ff 	mov    %rax,-0xac0(%rbp)
    c9dd:	48 c7 85 48 f5 ff ff 	movq   $0x0,-0xab8(%rbp)
    c9e4:	00 00 00 00 
    c9e8:	48 c7 85 50 f5 ff ff 	movq   $0x0,-0xab0(%rbp)
    c9ef:	00 00 00 00 
    c9f3:	48 c7 85 58 f5 ff ff 	movq   $0x0,-0xaa8(%rbp)
    c9fa:	00 00 00 00 
    c9fe:	48 c7 85 60 f5 ff ff 	movq   $0x0,-0xaa0(%rbp)
    ca05:	00 00 00 00 
    ca09:	48 8d 85 d0 f8 ff ff 	lea    -0x730(%rbp),%rax
    ca10:	48 05 f8 01 00 00    	add    $0x1f8,%rax
    ca16:	48 89 85 68 f5 ff ff 	mov    %rax,-0xa98(%rbp)
    ca1d:	48 c7 85 70 f5 ff ff 	movq   $0x0,-0xa90(%rbp)
    ca24:	00 00 00 00 
    ca28:	48 8d 85 d0 f8 ff ff 	lea    -0x730(%rbp),%rax
    ca2f:	48 05 00 04 00 00    	add    $0x400,%rax
    ca35:	48 89 85 78 f5 ff ff 	mov    %rax,-0xa88(%rbp)
    ca3c:	48 c7 85 80 f5 ff ff 	movq   $0x0,-0xa80(%rbp)
    ca43:	00 00 00 00 
    ca47:	48 8d 85 d0 f8 ff ff 	lea    -0x730(%rbp),%rax
    ca4e:	48 05 f8 01 00 00    	add    $0x1f8,%rax
    ca54:	48 89 85 88 f5 ff ff 	mov    %rax,-0xa78(%rbp)
    ca5b:	48 8d 85 d0 f8 ff ff 	lea    -0x730(%rbp),%rax
    ca62:	48 05 10 03 00 00    	add    $0x310,%rax
    ca68:	48 89 85 90 f5 ff ff 	mov    %rax,-0xa70(%rbp)
    ca6f:	48 8d 85 d0 f8 ff ff 	lea    -0x730(%rbp),%rax
    ca76:	48 05 98 06 00 00    	add    $0x698,%rax
    ca7c:	48 89 85 98 f5 ff ff 	mov    %rax,-0xa68(%rbp)
    ca83:	48 8d 85 d0 f8 ff ff 	lea    -0x730(%rbp),%rax
    ca8a:	48 05 f8 01 00 00    	add    $0x1f8,%rax
    ca90:	48 89 85 a0 f5 ff ff 	mov    %rax,-0xa60(%rbp)
    ca97:	48 8d 85 d0 f8 ff ff 	lea    -0x730(%rbp),%rax
    ca9e:	48 05 f8 01 00 00    	add    $0x1f8,%rax
    caa4:	48 89 85 a8 f5 ff ff 	mov    %rax,-0xa58(%rbp)
    caab:	48 8d 85 d0 f8 ff ff 	lea    -0x730(%rbp),%rax
    cab2:	48 05 98 06 00 00    	add    $0x698,%rax
    cab8:	48 89 85 b0 f5 ff ff 	mov    %rax,-0xa50(%rbp)
    cabf:	48 c7 85 b8 f5 ff ff 	movq   $0x0,-0xa48(%rbp)
    cac6:	00 00 00 00 
    caca:	48 c7 85 c0 f5 ff ff 	movq   $0x0,-0xa40(%rbp)
    cad1:	00 00 00 00 
    cad5:	48 c7 85 c8 f5 ff ff 	movq   $0x0,-0xa38(%rbp)
    cadc:	00 00 00 00 
    cae0:	48 c7 85 d0 f5 ff ff 	movq   $0x0,-0xa30(%rbp)
    cae7:	00 00 00 00 
    caeb:	48 8d 85 d0 f8 ff ff 	lea    -0x730(%rbp),%rax
    caf2:	48 05 10 03 00 00    	add    $0x310,%rax
    caf8:	48 89 85 d8 f5 ff ff 	mov    %rax,-0xa28(%rbp)
    caff:	48 8d 85 d0 f8 ff ff 	lea    -0x730(%rbp),%rax
    cb06:	48 05 00 04 00 00    	add    $0x400,%rax
    cb0c:	48 89 85 e0 f5 ff ff 	mov    %rax,-0xa20(%rbp)
    cb13:	48 c7 85 e8 f5 ff ff 	movq   $0x0,-0xa18(%rbp)
    cb1a:	00 00 00 00 
    cb1e:	48 8d 85 d0 f8 ff ff 	lea    -0x730(%rbp),%rax
    cb25:	48 05 f8 01 00 00    	add    $0x1f8,%rax
    cb2b:	48 89 85 f0 f5 ff ff 	mov    %rax,-0xa10(%rbp)
    cb32:	48 c7 85 f8 f5 ff ff 	movq   $0x0,-0xa08(%rbp)
    cb39:	00 00 00 00 
    cb3d:	48 8d 85 d0 f8 ff ff 	lea    -0x730(%rbp),%rax
    cb44:	48 05 f8 01 00 00    	add    $0x1f8,%rax
    cb4a:	48 89 85 00 f6 ff ff 	mov    %rax,-0xa00(%rbp)
    cb51:	48 c7 85 08 f6 ff ff 	movq   $0x0,-0x9f8(%rbp)
    cb58:	00 00 00 00 
    cb5c:	48 c7 85 10 f6 ff ff 	movq   $0x0,-0x9f0(%rbp)
    cb63:	00 00 00 00 
    cb67:	48 8d 85 d0 f8 ff ff 	lea    -0x730(%rbp),%rax
    cb6e:	48 05 f8 01 00 00    	add    $0x1f8,%rax
    cb74:	48 89 85 18 f6 ff ff 	mov    %rax,-0x9e8(%rbp)
    cb7b:	48 c7 85 20 f6 ff ff 	movq   $0x0,-0x9e0(%rbp)
    cb82:	00 00 00 00 
    cb86:	48 8d 85 d0 f8 ff ff 	lea    -0x730(%rbp),%rax
    cb8d:	48 05 10 03 00 00    	add    $0x310,%rax
    cb93:	48 89 85 28 f6 ff ff 	mov    %rax,-0x9d8(%rbp)
    cb9a:	48 8d 85 d0 f8 ff ff 	lea    -0x730(%rbp),%rax
    cba1:	48 05 f8 01 00 00    	add    $0x1f8,%rax
    cba7:	48 89 85 30 f6 ff ff 	mov    %rax,-0x9d0(%rbp)
    cbae:	48 8d 85 d0 f8 ff ff 	lea    -0x730(%rbp),%rax
    cbb5:	48 05 f8 01 00 00    	add    $0x1f8,%rax
    cbbb:	48 89 85 38 f6 ff ff 	mov    %rax,-0x9c8(%rbp)
    cbc2:	48 8d 85 d0 f8 ff ff 	lea    -0x730(%rbp),%rax
    cbc9:	48 05 f8 00 00 00    	add    $0xf8,%rax
    cbcf:	48 89 85 40 f6 ff ff 	mov    %rax,-0x9c0(%rbp)
    cbd6:	48 8d 85 d0 f8 ff ff 	lea    -0x730(%rbp),%rax
    cbdd:	48 05 98 06 00 00    	add    $0x698,%rax
    cbe3:	48 89 85 48 f6 ff ff 	mov    %rax,-0x9b8(%rbp)
    cbea:	48 8d 85 d0 f8 ff ff 	lea    -0x730(%rbp),%rax
    cbf1:	48 05 98 06 00 00    	add    $0x698,%rax
    cbf7:	48 89 85 50 f6 ff ff 	mov    %rax,-0x9b0(%rbp)
    cbfe:	48 8d 85 d0 f8 ff ff 	lea    -0x730(%rbp),%rax
    cc05:	48 05 f8 00 00 00    	add    $0xf8,%rax
    cc0b:	48 89 85 58 f6 ff ff 	mov    %rax,-0x9a8(%rbp)
    cc12:	48 8d 85 d0 f8 ff ff 	lea    -0x730(%rbp),%rax
    cc19:	48 05 f8 01 00 00    	add    $0x1f8,%rax
    cc1f:	48 89 85 60 f6 ff ff 	mov    %rax,-0x9a0(%rbp)
    cc26:	48 c7 85 68 f6 ff ff 	movq   $0x0,-0x998(%rbp)
    cc2d:	00 00 00 00 
    cc31:	48 c7 85 70 f6 ff ff 	movq   $0x0,-0x990(%rbp)
    cc38:	00 00 00 00 
    cc3c:	48 8d 85 d0 f8 ff ff 	lea    -0x730(%rbp),%rax
    cc43:	48 05 f8 01 00 00    	add    $0x1f8,%rax
    cc49:	48 89 85 78 f6 ff ff 	mov    %rax,-0x988(%rbp)
    cc50:	48 8d 85 d0 f8 ff ff 	lea    -0x730(%rbp),%rax
    cc57:	48 05 f8 01 00 00    	add    $0x1f8,%rax
    cc5d:	48 89 85 80 f6 ff ff 	mov    %rax,-0x980(%rbp)
    cc64:	48 8d 85 d0 f8 ff ff 	lea    -0x730(%rbp),%rax
    cc6b:	48 05 f8 01 00 00    	add    $0x1f8,%rax
    cc71:	48 89 85 88 f6 ff ff 	mov    %rax,-0x978(%rbp)
    cc78:	48 8d 85 d0 f8 ff ff 	lea    -0x730(%rbp),%rax
    cc7f:	48 05 98 06 00 00    	add    $0x698,%rax
    cc85:	48 89 85 90 f6 ff ff 	mov    %rax,-0x970(%rbp)
    cc8c:	48 c7 85 98 f6 ff ff 	movq   $0x0,-0x968(%rbp)
    cc93:	00 00 00 00 
    cc97:	48 c7 85 a0 f6 ff ff 	movq   $0x0,-0x960(%rbp)
    cc9e:	00 00 00 00 
    cca2:	48 c7 85 a8 f6 ff ff 	movq   $0x0,-0x958(%rbp)
    cca9:	00 00 00 00 
    ccad:	0f b6 05 4c e7 00 00 	movzbl 0xe74c(%rip),%eax        # 1b400 <g_33>
    ccb4:	83 e8 01             	sub    $0x1,%eax
    ccb7:	88 05 43 e7 00 00    	mov    %al,0xe743(%rip)        # 1b400 <g_33>
    ccbd:	0f b6 05 3c e7 00 00 	movzbl 0xe73c(%rip),%eax        # 1b400 <g_33>
    ccc4:	84 c0                	test   %al,%al
    ccc6:	0f 89 47 fb ff ff    	jns    c813 <func_27+0x28e>
    cccc:	48 8b 85 88 f3 ff ff 	mov    -0xc78(%rbp),%rax
    ccd3:	48 8b 00             	mov    (%rax),%rax
    ccd6:	48 8b 00             	mov    (%rax),%rax
    ccd9:	0f b7 10             	movzwl (%rax),%edx
    ccdc:	8b 85 2c f3 ff ff    	mov    -0xcd4(%rbp),%eax
    cce2:	89 c1                	mov    %eax,%ecx
    cce4:	48 8b 85 88 f3 ff ff 	mov    -0xc78(%rbp),%rax
    cceb:	48 8b 00             	mov    (%rax),%rax
    ccee:	48 8b 00             	mov    (%rax),%rax
    ccf1:	09 ca                	or     %ecx,%edx
    ccf3:	66 89 10             	mov    %dx,(%rax)
    ccf6:	0f b7 00             	movzwl (%rax),%eax
    ccf9:	0f bf d0             	movswl %ax,%edx
    ccfc:	0f b7 85 28 f3 ff ff 	movzwl -0xcd8(%rbp),%eax
    cd03:	39 c2                	cmp    %eax,%edx
    cd05:	0f 95 c0             	setne  %al
    cd08:	89 c2                	mov    %eax,%edx
    cd0a:	48 8b 85 a8 f3 ff ff 	mov    -0xc58(%rbp),%rax
    cd11:	88 10                	mov    %dl,(%rax)
    cd13:	8b 05 4e ef 00 00    	mov    0xef4e(%rip),%eax        # 1bc67 <g_280+0x7>
    cd19:	41 89 c5             	mov    %eax,%r13d
    cd1c:	0f b6 05 95 f0 00 00 	movzbl 0xf095(%rip),%eax        # 1bdb8 <g_871>
    cd23:	0f b6 d8             	movzbl %al,%ebx
    cd26:	83 bd 2c f3 ff ff 00 	cmpl   $0x0,-0xcd4(%rbp)
    cd2d:	0f 95 c2             	setne  %dl
    cd30:	48 8b 05 51 1d 01 00 	mov    0x11d51(%rip),%rax        # 1ea88 <g_108>
    cd37:	88 10                	mov    %dl,(%rax)
    cd39:	0f b6 00             	movzbl (%rax),%eax
    cd3c:	84 c0                	test   %al,%al
    cd3e:	75 75                	jne    cdb5 <func_27+0x830>
    cd40:	44 0f b7 a5 28 f3 ff 	movzwl -0xcd8(%rbp),%r12d
    cd47:	ff 
    cd48:	8b 85 2c f3 ff ff    	mov    -0xcd4(%rbp),%eax
    cd4e:	0f b7 d0             	movzwl %ax,%edx
    cd51:	66 83 bd 28 f3 ff ff 	cmpw   $0x0,-0xcd8(%rbp)
    cd58:	00 
    cd59:	0f 94 c0             	sete   %al
    cd5c:	0f b6 c8             	movzbl %al,%ecx
    cd5f:	48 8b 05 3a 25 01 00 	mov    0x1253a(%rip),%rax        # 1f2a0 <g_693>
    cd66:	48 8b 00             	mov    (%rax),%rax
    cd69:	8b 00                	mov    (%rax),%eax
    cd6b:	39 c1                	cmp    %eax,%ecx
    cd6d:	0f 9c c0             	setl   %al
    cd70:	0f b6 c0             	movzbl %al,%eax
    cd73:	89 d6                	mov    %edx,%esi
    cd75:	89 c7                	mov    %eax,%edi
    cd77:	e8 a3 cf ff ff       	callq  9d1f <safe_sub_func_uint16_t_u_u>
    cd7c:	0f b7 c0             	movzwl %ax,%eax
    cd7f:	48 89 c6             	mov    %rax,%rsi
    cd82:	bf 06 00 00 00       	mov    $0x6,%edi
    cd87:	e8 bf d2 ff ff       	callq  a04b <safe_sub_func_uint64_t_u_u>
    cd8c:	44 89 e6             	mov    %r12d,%esi
    cd8f:	89 c7                	mov    %eax,%edi
    cd91:	e8 69 c9 ff ff       	callq  96ff <safe_div_func_int32_t_s_s>
    cd96:	0f b7 c0             	movzwl %ax,%eax
    cd99:	be 0d 00 00 00       	mov    $0xd,%esi
    cd9e:	89 c7                	mov    %eax,%edi
    cda0:	e8 d5 d0 ff ff       	callq  9e7a <safe_rshift_func_uint16_t_u_u>
    cda5:	48 8b 05 e4 38 01 00 	mov    0x138e4(%rip),%rax        # 20690 <g_1723>
    cdac:	48 39 85 b0 f3 ff ff 	cmp    %rax,-0xc50(%rbp)
    cdb3:	74 07                	je     cdbc <func_27+0x837>
    cdb5:	b8 01 00 00 00       	mov    $0x1,%eax
    cdba:	eb 05                	jmp    cdc1 <func_27+0x83c>
    cdbc:	b8 00 00 00 00       	mov    $0x0,%eax
    cdc1:	0f b7 c0             	movzwl %ax,%eax
    cdc4:	be 70 56 00 00       	mov    $0x5670,%esi
    cdc9:	89 c7                	mov    %eax,%edi
    cdcb:	e8 8c cf ff ff       	callq  9d5c <safe_mod_func_uint16_t_u_u>
    cdd0:	0f b7 c0             	movzwl %ax,%eax
    cdd3:	48 89 de             	mov    %rbx,%rsi
    cdd6:	48 89 c7             	mov    %rax,%rdi
    cdd9:	e8 d1 d2 ff ff       	callq  a0af <safe_div_func_uint64_t_u_u>
    cdde:	49 39 c5             	cmp    %rax,%r13
    cde1:	0f 95 c0             	setne  %al
    cde4:	0f b6 c0             	movzbl %al,%eax
    cde7:	be 19 78 00 00       	mov    $0x7819,%esi
    cdec:	89 c7                	mov    %eax,%edi
    cdee:	e8 02 c6 ff ff       	callq  93f5 <safe_mul_func_int16_t_s_s>
    cdf3:	48 83 bd 98 f3 ff ff 	cmpq   $0x0,-0xc68(%rbp)
    cdfa:	00 
    cdfb:	0f 95 c0             	setne  %al
    cdfe:	0f b6 d8             	movzbl %al,%ebx
    ce01:	0f b7 85 28 f3 ff ff 	movzwl -0xcd8(%rbp),%eax
    ce08:	0f b6 c0             	movzbl %al,%eax
    ce0b:	be 00 00 00 00       	mov    $0x0,%esi
    ce10:	89 c7                	mov    %eax,%edi
    ce12:	e8 35 ce ff ff       	callq  9c4c <safe_lshift_func_uint8_t_u_u>
    ce17:	89 c2                	mov    %eax,%edx
    ce19:	48 8b 85 20 f3 ff ff 	mov    -0xce0(%rbp),%rax
    ce20:	0f b6 00             	movzbl (%rax),%eax
    ce23:	21 c2                	and    %eax,%edx
    ce25:	48 8b 85 20 f3 ff ff 	mov    -0xce0(%rbp),%rax
    ce2c:	88 10                	mov    %dl,(%rax)
    ce2e:	48 8b 85 20 f3 ff ff 	mov    -0xce0(%rbp),%rax
    ce35:	0f b6 00             	movzbl (%rax),%eax
    ce38:	0f be c0             	movsbl %al,%eax
    ce3b:	89 de                	mov    %ebx,%esi
    ce3d:	89 c7                	mov    %eax,%edi
    ce3f:	e8 ce c3 ff ff       	callq  9212 <safe_mul_func_int8_t_s_s>
    ce44:	89 c2                	mov    %eax,%edx
    ce46:	48 8b 05 53 1e 01 00 	mov    0x11e53(%rip),%rax        # 1eca0 <g_134>
    ce4d:	48 8b 00             	mov    (%rax),%rax
    ce50:	0f be d2             	movsbl %dl,%edx
    ce53:	89 10                	mov    %edx,(%rax)
    ce55:	c6 05 6a ef 00 00 00 	movb   $0x0,0xef6a(%rip)        # 1bdc6 <g_896+0x6>
    ce5c:	e9 bb 00 00 00       	jmpq   cf1c <func_27+0x997>
    ce61:	48 c7 85 60 f3 ff ff 	movq   $0x0,-0xca0(%rbp)
    ce68:	00 00 00 00 
    ce6c:	48 8d 85 60 f3 ff ff 	lea    -0xca0(%rbp),%rax
    ce73:	48 89 85 68 f3 ff ff 	mov    %rax,-0xc98(%rbp)
    ce7a:	48 8d 85 68 f3 ff ff 	lea    -0xc98(%rbp),%rax
    ce81:	48 89 85 c0 f3 ff ff 	mov    %rax,-0xc40(%rbp)
    ce88:	48 c7 85 c8 f3 ff ff 	movq   $0x0,-0xc38(%rbp)
    ce8f:	00 00 00 00 
    ce93:	48 c7 85 70 f3 ff ff 	movq   $0x0,-0xc90(%rbp)
    ce9a:	00 00 00 00 
    ce9e:	48 8d 85 70 f3 ff ff 	lea    -0xc90(%rbp),%rax
    cea5:	48 89 85 d0 f3 ff ff 	mov    %rax,-0xc30(%rbp)
    ceac:	48 8d 05 fd 23 01 00 	lea    0x123fd(%rip),%rax        # 1f2b0 <g_733>
    ceb3:	48 89 85 78 f3 ff ff 	mov    %rax,-0xc88(%rbp)
    ceba:	48 8d 85 78 f3 ff ff 	lea    -0xc88(%rbp),%rax
    cec1:	48 89 85 80 f3 ff ff 	mov    %rax,-0xc80(%rbp)
    cec8:	48 8d 85 80 f3 ff ff 	lea    -0xc80(%rbp),%rax
    cecf:	48 89 85 d8 f3 ff ff 	mov    %rax,-0xc28(%rbp)
    ced6:	48 8b 95 68 f3 ff ff 	mov    -0xc98(%rbp),%rdx
    cedd:	48 8b 85 c0 f3 ff ff 	mov    -0xc40(%rbp),%rax
    cee4:	48 89 10             	mov    %rdx,(%rax)
    cee7:	48 8b 85 c0 f3 ff ff 	mov    -0xc40(%rbp),%rax
    ceee:	48 8b 10             	mov    (%rax),%rdx
    cef1:	48 8b 85 d0 f3 ff ff 	mov    -0xc30(%rbp),%rax
    cef8:	48 89 10             	mov    %rdx,(%rax)
    cefb:	48 8b 95 80 f3 ff ff 	mov    -0xc80(%rbp),%rdx
    cf02:	48 8b 85 d8 f3 ff ff 	mov    -0xc28(%rbp),%rax
    cf09:	48 89 10             	mov    %rdx,(%rax)
    cf0c:	0f b6 05 b3 ee 00 00 	movzbl 0xeeb3(%rip),%eax        # 1bdc6 <g_896+0x6>
    cf13:	83 c0 01             	add    $0x1,%eax
    cf16:	88 05 aa ee 00 00    	mov    %al,0xeeaa(%rip)        # 1bdc6 <g_896+0x6>
    cf1c:	0f b6 05 a3 ee 00 00 	movzbl 0xeea3(%rip),%eax        # 1bdc6 <g_896+0x6>
    cf23:	3c 12                	cmp    $0x12,%al
    cf25:	0f 87 36 ff ff ff    	ja     ce61 <func_27+0x8dc>
    cf2b:	0f b7 85 28 f3 ff ff 	movzwl -0xcd8(%rbp),%eax
    cf32:	48 8b 5d d8          	mov    -0x28(%rbp),%rbx
    cf36:	64 48 33 1c 25 28 00 	xor    %fs:0x28,%rbx
    cf3d:	00 00 
    cf3f:	74 05                	je     cf46 <func_27+0x9c1>
    cf41:	e8 2a c1 ff ff       	callq  9070 <__stack_chk_fail@plt>
    cf46:	48 81 c4 d8 0c 00 00 	add    $0xcd8,%rsp
    cf4d:	5b                   	pop    %rbx
    cf4e:	41 5c                	pop    %r12
    cf50:	41 5d                	pop    %r13
    cf52:	5d                   	pop    %rbp
    cf53:	c3                   	retq   

000000000000cf54 <func_41>:
    cf54:	f3 0f 1e fa          	endbr64 
    cf58:	55                   	push   %rbp
    cf59:	48 89 e5             	mov    %rsp,%rbp
    cf5c:	41 57                	push   %r15
    cf5e:	41 56                	push   %r14
    cf60:	41 55                	push   %r13
    cf62:	41 54                	push   %r12
    cf64:	53                   	push   %rbx
    cf65:	48 81 ec a8 0d 00 00 	sub    $0xda8,%rsp
    cf6c:	48 89 bd 48 f2 ff ff 	mov    %rdi,-0xdb8(%rbp)
    cf73:	89 f0                	mov    %esi,%eax
    cf75:	66 89 85 44 f2 ff ff 	mov    %ax,-0xdbc(%rbp)
    cf7c:	64 48 8b 04 25 28 00 	mov    %fs:0x28,%rax
    cf83:	00 00 
    cf85:	48 89 45 c8          	mov    %rax,-0x38(%rbp)
    cf89:	31 c0                	xor    %eax,%eax
    cf8b:	48 c7 85 48 f3 ff ff 	movq   $0x0,-0xcb8(%rbp)
    cf92:	00 00 00 00 
    cf96:	48 8d 85 80 f7 ff ff 	lea    -0x880(%rbp),%rax
    cf9d:	48 8d 15 5c 0a 01 00 	lea    0x10a5c(%rip),%rdx        # 1da00 <g_2112+0xd50>
    cfa4:	b9 30 00 00 00       	mov    $0x30,%ecx
    cfa9:	48 89 c7             	mov    %rax,%rdi
    cfac:	48 89 d6             	mov    %rdx,%rsi
    cfaf:	f3 48 a5             	rep movsq %ds:(%rsi),%es:(%rdi)
    cfb2:	c7 85 b0 f4 ff ff a2 	movl   $0xd9700ea2,-0xb50(%rbp)
    cfb9:	0e 70 d9 
    cfbc:	c7 85 b4 f4 ff ff a2 	movl   $0xd9700ea2,-0xb4c(%rbp)
    cfc3:	0e 70 d9 
    cfc6:	c7 85 b8 f4 ff ff a2 	movl   $0xd9700ea2,-0xb48(%rbp)
    cfcd:	0e 70 d9 
    cfd0:	c7 85 bc f4 ff ff a2 	movl   $0xd9700ea2,-0xb44(%rbp)
    cfd7:	0e 70 d9 
    cfda:	c7 85 c0 f4 ff ff a2 	movl   $0xd9700ea2,-0xb40(%rbp)
    cfe1:	0e 70 d9 
    cfe4:	c7 85 c4 f4 ff ff a2 	movl   $0xd9700ea2,-0xb3c(%rbp)
    cfeb:	0e 70 d9 
    cfee:	c7 85 c8 f4 ff ff a2 	movl   $0xd9700ea2,-0xb38(%rbp)
    cff5:	0e 70 d9 
    cff8:	c7 85 cc f4 ff ff a2 	movl   $0xd9700ea2,-0xb34(%rbp)
    cfff:	0e 70 d9 
    d002:	48 8d 05 ad ec 00 00 	lea    0xecad(%rip),%rax        # 1bcb6 <g_389+0x6>
    d009:	48 89 85 e8 f2 ff ff 	mov    %rax,-0xd18(%rbp)
    d010:	66 c7 85 60 f2 ff ff 	movw   $0x43f4,-0xda0(%rbp)
    d017:	f4 43 
    d019:	48 c7 85 f0 f2 ff ff 	movq   $0x0,-0xd10(%rbp)
    d020:	00 00 00 00 
    d024:	48 8d 85 f0 f2 ff ff 	lea    -0xd10(%rbp),%rax
    d02b:	48 89 85 50 f3 ff ff 	mov    %rax,-0xcb0(%rbp)
    d032:	48 8d 85 b0 fa ff ff 	lea    -0x550(%rbp),%rax
    d039:	48 8d 15 40 0b 01 00 	lea    0x10b40(%rip),%rdx        # 1db80 <g_2112+0xed0>
    d040:	b9 51 00 00 00       	mov    $0x51,%ecx
    d045:	48 89 c7             	mov    %rax,%rdi
    d048:	48 89 d6             	mov    %rdx,%rsi
    d04b:	f3 48 a5             	rep movsq %ds:(%rsi),%es:(%rdi)
    d04e:	48 8d 05 d3 21 01 00 	lea    0x121d3(%rip),%rax        # 1f228 <g_613+0x128>
    d055:	48 89 85 f8 f2 ff ff 	mov    %rax,-0xd08(%rbp)
    d05c:	48 8d 85 f8 f2 ff ff 	lea    -0xd08(%rbp),%rax
    d063:	48 89 85 00 f3 ff ff 	mov    %rax,-0xd00(%rbp)
    d06a:	66 c7 85 62 f2 ff ff 	movw   $0x6267,-0xd9e(%rbp)
    d071:	67 62 
    d073:	48 8d 05 96 e4 00 00 	lea    0xe496(%rip),%rax        # 1b510 <g_91+0xf0>
    d07a:	48 89 85 58 f3 ff ff 	mov    %rax,-0xca8(%rbp)
    d081:	c7 85 90 f2 ff ff 00 	movl   $0x0,-0xd70(%rbp)
    d088:	00 00 00 
    d08b:	48 8d 05 1e 22 01 00 	lea    0x1221e(%rip),%rax        # 1f2b0 <g_733>
    d092:	48 89 85 60 f3 ff ff 	mov    %rax,-0xca0(%rbp)
    d099:	48 8d 05 08 eb 00 00 	lea    0xeb08(%rip),%rax        # 1bba8 <g_95+0x8>
    d0a0:	48 89 85 68 f3 ff ff 	mov    %rax,-0xc98(%rbp)
    d0a7:	48 b8 38 d5 98 12 cb 	movabs $0x4f960bcb1298d538,%rax
    d0ae:	0b 96 4f 
    d0b1:	48 89 85 70 f3 ff ff 	mov    %rax,-0xc90(%rbp)
    d0b8:	c7 85 94 f2 ff ff 01 	movl   $0x1,-0xd6c(%rbp)
    d0bf:	00 00 00 
    d0c2:	c7 85 84 f2 ff ff 01 	movl   $0x1,-0xd7c(%rbp)
    d0c9:	00 00 00 
    d0cc:	48 c7 85 08 f3 ff ff 	movq   $0x0,-0xcf8(%rbp)
    d0d3:	00 00 00 00 
    d0d7:	48 8d 85 08 f3 ff ff 	lea    -0xcf8(%rbp),%rax
    d0de:	48 89 85 80 f5 ff ff 	mov    %rax,-0xa80(%rbp)
    d0e5:	48 8d 85 08 f3 ff ff 	lea    -0xcf8(%rbp),%rax
    d0ec:	48 89 85 88 f5 ff ff 	mov    %rax,-0xa78(%rbp)
    d0f3:	48 8d 85 08 f3 ff ff 	lea    -0xcf8(%rbp),%rax
    d0fa:	48 89 85 90 f5 ff ff 	mov    %rax,-0xa70(%rbp)
    d101:	48 8d 85 08 f3 ff ff 	lea    -0xcf8(%rbp),%rax
    d108:	48 89 85 98 f5 ff ff 	mov    %rax,-0xa68(%rbp)
    d10f:	48 8d 85 08 f3 ff ff 	lea    -0xcf8(%rbp),%rax
    d116:	48 89 85 a0 f5 ff ff 	mov    %rax,-0xa60(%rbp)
    d11d:	48 8d 85 08 f3 ff ff 	lea    -0xcf8(%rbp),%rax
    d124:	48 89 85 a8 f5 ff ff 	mov    %rax,-0xa58(%rbp)
    d12b:	48 8d 85 08 f3 ff ff 	lea    -0xcf8(%rbp),%rax
    d132:	48 89 85 b0 f5 ff ff 	mov    %rax,-0xa50(%rbp)
    d139:	48 8d 85 08 f3 ff ff 	lea    -0xcf8(%rbp),%rax
    d140:	48 89 85 b8 f5 ff ff 	mov    %rax,-0xa48(%rbp)
    d147:	48 8d 85 08 f3 ff ff 	lea    -0xcf8(%rbp),%rax
    d14e:	48 89 85 c0 f5 ff ff 	mov    %rax,-0xa40(%rbp)
    d155:	48 8d 85 08 f3 ff ff 	lea    -0xcf8(%rbp),%rax
    d15c:	48 89 85 c8 f5 ff ff 	mov    %rax,-0xa38(%rbp)
    d163:	48 8d 85 08 f3 ff ff 	lea    -0xcf8(%rbp),%rax
    d16a:	48 89 85 d0 f5 ff ff 	mov    %rax,-0xa30(%rbp)
    d171:	48 8d 85 08 f3 ff ff 	lea    -0xcf8(%rbp),%rax
    d178:	48 89 85 d8 f5 ff ff 	mov    %rax,-0xa28(%rbp)
    d17f:	48 8d 85 08 f3 ff ff 	lea    -0xcf8(%rbp),%rax
    d186:	48 89 85 e0 f5 ff ff 	mov    %rax,-0xa20(%rbp)
    d18d:	48 8d 85 08 f3 ff ff 	lea    -0xcf8(%rbp),%rax
    d194:	48 89 85 e8 f5 ff ff 	mov    %rax,-0xa18(%rbp)
    d19b:	48 8d 85 08 f3 ff ff 	lea    -0xcf8(%rbp),%rax
    d1a2:	48 89 85 f0 f5 ff ff 	mov    %rax,-0xa10(%rbp)
    d1a9:	c7 85 88 f2 ff ff 00 	movl   $0x0,-0xd78(%rbp)
    d1b0:	00 00 00 
    d1b3:	eb 19                	jmp    d1ce <func_41+0x27a>
    d1b5:	8b 85 88 f2 ff ff    	mov    -0xd78(%rbp),%eax
    d1bb:	48 98                	cltq   
    d1bd:	66 c7 84 45 8a f4 ff 	movw   $0x5,-0xb76(%rbp,%rax,2)
    d1c4:	ff 05 00 
    d1c7:	83 85 88 f2 ff ff 01 	addl   $0x1,-0xd78(%rbp)
    d1ce:	83 bd 88 f2 ff ff 02 	cmpl   $0x2,-0xd78(%rbp)
    d1d5:	7e de                	jle    d1b5 <func_41+0x261>
    d1d7:	48 8b 1d c2 20 01 00 	mov    0x120c2(%rip),%rbx        # 1f2a0 <g_693>
    d1de:	48 83 bd 48 f2 ff ff 	cmpq   $0x0,-0xdb8(%rbp)
    d1e5:	00 
    d1e6:	0f 84 db 00 00 00    	je     d2c7 <func_41+0x373>
    d1ec:	48 8b 05 d8 ea 00 00 	mov    0xead8(%rip),%rax        # 1bccb <g_408+0xb>
    d1f3:	44 0f bf e0          	movswl %ax,%r12d
    d1f7:	0f b7 85 44 f2 ff ff 	movzwl -0xdbc(%rbp),%eax
    d1fe:	44 0f be e8          	movsbl %al,%r13d
    d202:	48 8b 85 48 f2 ff ff 	mov    -0xdb8(%rbp),%rax
    d209:	89 85 40 f2 ff ff    	mov    %eax,-0xdc0(%rbp)
    d20f:	4c 8b 3d 8a 20 01 00 	mov    0x1208a(%rip),%r15        # 1f2a0 <g_693>
    d216:	0f b7 85 44 f2 ff ff 	movzwl -0xdbc(%rbp),%eax
    d21d:	44 0f be f0          	movsbl %al,%r14d
    d221:	48 8b 85 98 f8 ff ff 	mov    -0x768(%rbp),%rax
    d228:	48 8d 15 b9 e0 00 00 	lea    0xe0b9(%rip),%rdx        # 1b2e8 <g_8+0x2a8>
    d22f:	48 39 d0             	cmp    %rdx,%rax
    d232:	75 40                	jne    d274 <func_41+0x320>
    d234:	0f b7 85 8a f4 ff ff 	movzwl -0xb76(%rbp),%eax
    d23b:	0f b7 c0             	movzwl %ax,%eax
    d23e:	89 85 3c f2 ff ff    	mov    %eax,-0xdc4(%rbp)
    d244:	0f b6 05 b5 e1 00 00 	movzbl 0xe1b5(%rip),%eax        # 1b400 <g_33>
    d24b:	0f be c0             	movsbl %al,%eax
    d24e:	8b 15 54 e1 00 00    	mov    0xe154(%rip),%edx        # 1b3a8 <g_8+0x368>
    d254:	89 c2                	mov    %eax,%edx
    d256:	be 01 00 00 00       	mov    $0x1,%esi
    d25b:	48 8d 3d 9e e1 00 00 	lea    0xe19e(%rip),%rdi        # 1b400 <g_33>
    d262:	e8 66 43 00 00       	callq  115cd <func_68>
    d267:	8b b5 3c f2 ff ff    	mov    -0xdc4(%rbp),%esi
    d26d:	89 c7                	mov    %eax,%edi
    d26f:	e8 89 cc ff ff       	callq  9efd <safe_mod_func_uint32_t_u_u>
    d274:	b8 01 00 00 00       	mov    $0x1,%eax
    d279:	0f be c0             	movsbl %al,%eax
    d27c:	8b b5 b0 f4 ff ff    	mov    -0xb50(%rbp),%esi
    d282:	4c 8d 05 77 e1 00 00 	lea    0xe177(%rip),%r8        # 1b400 <g_33>
    d289:	4c 89 f9             	mov    %r15,%rcx
    d28c:	44 89 f2             	mov    %r14d,%edx
    d28f:	89 c7                	mov    %eax,%edi
    d291:	e8 27 42 00 00       	callq  114bd <func_59>
    d296:	48 89 c6             	mov    %rax,%rsi
    d299:	0f b6 05 60 e1 00 00 	movzbl 0xe160(%rip),%eax        # 1b400 <g_33>
    d2a0:	0f be c0             	movsbl %al,%eax
    d2a3:	44 89 e9             	mov    %r13d,%ecx
    d2a6:	8b 95 40 f2 ff ff    	mov    -0xdc0(%rbp),%edx
    d2ac:	89 c7                	mov    %eax,%edi
    d2ae:	e8 cc 41 00 00       	callq  1147f <func_54>
    d2b3:	44 89 e2             	mov    %r12d,%edx
    d2b6:	48 8d 35 43 e1 00 00 	lea    0xe143(%rip),%rsi        # 1b400 <g_33>
    d2bd:	48 89 c7             	mov    %rax,%rdi
    d2c0:	e8 88 1d 00 00       	callq  f04d <func_50>
    d2c5:	3c 7f                	cmp    $0x7f,%al
    d2c7:	48 8b 85 48 f2 ff ff 	mov    -0xdb8(%rbp),%rax
    d2ce:	48 89 da             	mov    %rbx,%rdx
    d2d1:	48 89 c6             	mov    %rax,%rsi
    d2d4:	bf 01 00 00 00       	mov    $0x1,%edi
    d2d9:	e8 63 1c 00 00       	callq  ef41 <func_45>
    d2de:	89 05 88 df 00 00    	mov    %eax,0xdf88(%rip)        # 1b26c <g_8+0x22c>
    d2e4:	66 c7 85 44 f2 ff ff 	movw   $0x0,-0xdbc(%rbp)
    d2eb:	00 00 
    d2ed:	66 83 bd 44 f2 ff ff 	cmpw   $0x3b,-0xdbc(%rbp)
    d2f4:	3b 
    d2f5:	0f 84 48 07 00 00    	je     da43 <func_41+0xaef>
    d2fb:	48 8d 85 40 fd ff ff 	lea    -0x2c0(%rbp),%rax
    d302:	48 8d 15 d7 9a 00 00 	lea    0x9ad7(%rip),%rdx        # 16de0 <g_1889+0x5f0>
    d309:	b9 2a 00 00 00       	mov    $0x2a,%ecx
    d30e:	48 89 c7             	mov    %rax,%rdi
    d311:	48 89 d6             	mov    %rdx,%rsi
    d314:	f3 48 a5             	rep movsq %ds:(%rsi),%es:(%rdi)
    d317:	66 c7 85 6a f2 ff ff 	movw   $0x1,-0xd96(%rbp)
    d31e:	01 00 
    d320:	c7 85 cc f2 ff ff ff 	movl   $0xffffffff,-0xd34(%rbp)
    d327:	ff ff ff 
    d32a:	c7 85 d0 f2 ff ff 00 	movl   $0x0,-0xd30(%rbp)
    d331:	00 00 00 
    d334:	66 c7 85 5e f2 ff ff 	movw   $0x1fbd,-0xda2(%rbp)
    d33b:	bd 1f 
    d33d:	c7 05 09 e9 00 00 00 	movl   $0x0,0xe909(%rip)        # 1bc50 <g_248>
    d344:	00 00 00 
    d347:	e9 dc 06 00 00       	jmpq   da28 <func_41+0xad4>
    d34c:	c7 85 d4 f2 ff ff 00 	movl   $0x0,-0xd2c(%rbp)
    d353:	00 00 00 
    d356:	48 8d 05 b4 e0 00 00 	lea    0xe0b4(%rip),%rax        # 1b411 <g_73+0x9>
    d35d:	48 89 85 50 f4 ff ff 	mov    %rax,-0xbb0(%rbp)
    d364:	48 c7 85 58 f4 ff ff 	movq   $0x0,-0xba8(%rbp)
    d36b:	00 00 00 00 
    d36f:	48 c7 85 60 f4 ff ff 	movq   $0x0,-0xba0(%rbp)
    d376:	00 00 00 00 
    d37a:	c7 85 80 f6 ff ff 00 	movl   $0x0,-0x980(%rbp)
    d381:	00 00 00 
    d384:	c7 85 84 f6 ff ff 04 	movl   $0x4,-0x97c(%rbp)
    d38b:	00 00 00 
    d38e:	c7 85 88 f6 ff ff 4a 	movl   $0x1867184a,-0x978(%rbp)
    d395:	18 67 18 
    d398:	c7 85 8c f6 ff ff 04 	movl   $0x4,-0x974(%rbp)
    d39f:	00 00 00 
    d3a2:	c7 85 90 f6 ff ff 00 	movl   $0x0,-0x970(%rbp)
    d3a9:	00 00 00 
    d3ac:	c7 85 94 f6 ff ff 00 	movl   $0x0,-0x96c(%rbp)
    d3b3:	00 00 00 
    d3b6:	c7 85 98 f6 ff ff 04 	movl   $0x4,-0x968(%rbp)
    d3bd:	00 00 00 
    d3c0:	c7 85 9c f6 ff ff 4a 	movl   $0x1867184a,-0x964(%rbp)
    d3c7:	18 67 18 
    d3ca:	c7 85 a0 f6 ff ff 04 	movl   $0x4,-0x960(%rbp)
    d3d1:	00 00 00 
    d3d4:	c7 85 a4 f6 ff ff 00 	movl   $0x0,-0x95c(%rbp)
    d3db:	00 00 00 
    d3de:	c6 05 e1 e9 00 00 f1 	movb   $0xf1,0xe9e1(%rip)        # 1bdc6 <g_896+0x6>
    d3e5:	e9 43 02 00 00       	jmpq   d62d <func_41+0x6d9>
    d3ea:	48 c7 85 80 f4 ff ff 	movq   $0x0,-0xb80(%rbp)
    d3f1:	00 00 00 00 
    d3f5:	c7 85 e4 f2 ff ff ff 	movl   $0xffffffff,-0xd1c(%rbp)
    d3fc:	ff ff ff 
    d3ff:	8b 85 b8 f4 ff ff    	mov    -0xb48(%rbp),%eax
    d405:	89 85 b4 f4 ff ff    	mov    %eax,-0xb4c(%rbp)
    d40b:	66 83 bd 44 f2 ff ff 	cmpw   $0x0,-0xdbc(%rbp)
    d412:	00 
    d413:	0f 85 03 02 00 00    	jne    d61c <func_41+0x6c8>
    d419:	0f b7 85 44 f2 ff ff 	movzwl -0xdbc(%rbp),%eax
    d420:	89 c6                	mov    %eax,%esi
    d422:	bf 01 00 00 00       	mov    $0x1,%edi
    d427:	e8 c2 be ff ff       	callq  92ee <safe_lshift_func_int8_t_s_u>
    d42c:	8b 85 b8 fd ff ff    	mov    -0x248(%rbp),%eax
    d432:	89 c6                	mov    %eax,%esi
    d434:	bf 01 00 00 00       	mov    $0x1,%edi
    d439:	e8 f7 be ff ff       	callq  9335 <safe_rshift_func_int8_t_s_s>
    d43e:	0f be d0             	movsbl %al,%edx
    d441:	8b 85 44 fe ff ff    	mov    -0x1bc(%rbp),%eax
    d447:	39 c2                	cmp    %eax,%edx
    d449:	c7 85 e4 f2 ff ff 01 	movl   $0x1,-0xd1c(%rbp)
    d450:	00 00 00 
    d453:	66 c7 05 18 e9 00 00 	movw   $0x0,0xe918(%rip)        # 1bd74 <g_744+0x4>
    d45a:	00 00 
    d45c:	e9 a8 01 00 00       	jmpq   d609 <func_41+0x6b5>
    d461:	c7 85 00 f9 ff ff 3d 	movl   $0xaaddb23d,-0x700(%rbp)
    d468:	b2 dd aa 
    d46b:	c7 85 04 f9 ff ff 01 	movl   $0x1,-0x6fc(%rbp)
    d472:	00 00 00 
    d475:	c7 85 08 f9 ff ff 3d 	movl   $0xaaddb23d,-0x6f8(%rbp)
    d47c:	b2 dd aa 
    d47f:	c7 85 0c f9 ff ff 0a 	movl   $0x833a520a,-0x6f4(%rbp)
    d486:	52 3a 83 
    d489:	c7 85 10 f9 ff ff 3d 	movl   $0xaaddb23d,-0x6f0(%rbp)
    d490:	b2 dd aa 
    d493:	c7 85 14 f9 ff ff 0a 	movl   $0x833a520a,-0x6ec(%rbp)
    d49a:	52 3a 83 
    d49d:	c7 85 18 f9 ff ff 3d 	movl   $0xaaddb23d,-0x6e8(%rbp)
    d4a4:	b2 dd aa 
    d4a7:	c7 85 1c f9 ff ff 01 	movl   $0x1,-0x6e4(%rbp)
    d4ae:	00 00 00 
    d4b1:	c7 85 20 f9 ff ff 3d 	movl   $0xaaddb23d,-0x6e0(%rbp)
    d4b8:	b2 dd aa 
    d4bb:	c7 85 24 f9 ff ff 01 	movl   $0x1,-0x6dc(%rbp)
    d4c2:	00 00 00 
    d4c5:	c7 85 28 f9 ff ff 3d 	movl   $0xaaddb23d,-0x6d8(%rbp)
    d4cc:	b2 dd aa 
    d4cf:	c7 85 2c f9 ff ff 0a 	movl   $0x833a520a,-0x6d4(%rbp)
    d4d6:	52 3a 83 
    d4d9:	c7 85 30 f9 ff ff 3d 	movl   $0xaaddb23d,-0x6d0(%rbp)
    d4e0:	b2 dd aa 
    d4e3:	c7 85 34 f9 ff ff 0a 	movl   $0x833a520a,-0x6cc(%rbp)
    d4ea:	52 3a 83 
    d4ed:	c7 85 38 f9 ff ff 3d 	movl   $0xaaddb23d,-0x6c8(%rbp)
    d4f4:	b2 dd aa 
    d4f7:	c7 85 3c f9 ff ff 01 	movl   $0x1,-0x6c4(%rbp)
    d4fe:	00 00 00 
    d501:	c7 85 40 f9 ff ff 3d 	movl   $0xaaddb23d,-0x6c0(%rbp)
    d508:	b2 dd aa 
    d50b:	c7 85 44 f9 ff ff 01 	movl   $0x1,-0x6bc(%rbp)
    d512:	00 00 00 
    d515:	c7 85 48 f9 ff ff 3d 	movl   $0xaaddb23d,-0x6b8(%rbp)
    d51c:	b2 dd aa 
    d51f:	c7 85 4c f9 ff ff 0a 	movl   $0x833a520a,-0x6b4(%rbp)
    d526:	52 3a 83 
    d529:	c7 85 50 f9 ff ff 3d 	movl   $0xaaddb23d,-0x6b0(%rbp)
    d530:	b2 dd aa 
    d533:	c7 85 54 f9 ff ff 0a 	movl   $0x833a520a,-0x6ac(%rbp)
    d53a:	52 3a 83 
    d53d:	c7 85 58 f9 ff ff 3d 	movl   $0xaaddb23d,-0x6a8(%rbp)
    d544:	b2 dd aa 
    d547:	c7 85 5c f9 ff ff 01 	movl   $0x1,-0x6a4(%rbp)
    d54e:	00 00 00 
    d551:	c7 85 60 f9 ff ff 3d 	movl   $0xaaddb23d,-0x6a0(%rbp)
    d558:	b2 dd aa 
    d55b:	c7 85 64 f9 ff ff 01 	movl   $0x1,-0x69c(%rbp)
    d562:	00 00 00 
    d565:	c7 85 68 f9 ff ff 3d 	movl   $0xaaddb23d,-0x698(%rbp)
    d56c:	b2 dd aa 
    d56f:	c7 85 6c f9 ff ff 0a 	movl   $0x833a520a,-0x694(%rbp)
    d576:	52 3a 83 
    d579:	c7 85 70 f9 ff ff 3d 	movl   $0xaaddb23d,-0x690(%rbp)
    d580:	b2 dd aa 
    d583:	c7 85 74 f9 ff ff 0a 	movl   $0x833a520a,-0x68c(%rbp)
    d58a:	52 3a 83 
    d58d:	c7 85 78 f9 ff ff 3d 	movl   $0xaaddb23d,-0x688(%rbp)
    d594:	b2 dd aa 
    d597:	c7 85 7c f9 ff ff 01 	movl   $0x1,-0x684(%rbp)
    d59e:	00 00 00 
    d5a1:	8b 8d 58 f9 ff ff    	mov    -0x6a8(%rbp),%ecx
    d5a7:	0f b7 05 c6 e7 00 00 	movzwl 0xe7c6(%rip),%eax        # 1bd74 <g_744+0x4>
    d5ae:	0f b7 c0             	movzwl %ax,%eax
    d5b1:	8d 50 05             	lea    0x5(%rax),%edx
    d5b4:	0f b7 05 b9 e7 00 00 	movzwl 0xe7b9(%rip),%eax        # 1bd74 <g_744+0x4>
    d5bb:	0f b7 c0             	movzwl %ax,%eax
    d5be:	48 63 f0             	movslq %eax,%rsi
    d5c1:	48 63 d2             	movslq %edx,%rdx
    d5c4:	48 89 d0             	mov    %rdx,%rax
    d5c7:	48 01 c0             	add    %rax,%rax
    d5ca:	48 01 d0             	add    %rdx,%rax
    d5cd:	48 01 f0             	add    %rsi,%rax
    d5d0:	48 8d 14 c5 00 00 00 	lea    0x0(,%rax,8),%rdx
    d5d7:	00 
    d5d8:	48 8d 05 01 f0 00 00 	lea    0xf001(%rip),%rax        # 1c5e0 <g_951>
    d5df:	48 8b 04 02          	mov    (%rdx,%rax,1),%rax
    d5e3:	48 39 85 48 f2 ff ff 	cmp    %rax,-0xdb8(%rbp)
    d5ea:	0f 92 c0             	setb   %al
    d5ed:	0f b6 c0             	movzbl %al,%eax
    d5f0:	21 c8                	and    %ecx,%eax
    d5f2:	89 85 58 f9 ff ff    	mov    %eax,-0x6a8(%rbp)
    d5f8:	0f b7 05 75 e7 00 00 	movzwl 0xe775(%rip),%eax        # 1bd74 <g_744+0x4>
    d5ff:	83 c0 01             	add    $0x1,%eax
    d602:	66 89 05 6b e7 00 00 	mov    %ax,0xe76b(%rip)        # 1bd74 <g_744+0x4>
    d609:	0f b7 05 64 e7 00 00 	movzwl 0xe764(%rip),%eax        # 1bd74 <g_744+0x4>
    d610:	66 83 f8 02          	cmp    $0x2,%ax
    d614:	0f 86 47 fe ff ff    	jbe    d461 <func_41+0x50d>
    d61a:	eb 01                	jmp    d61d <func_41+0x6c9>
    d61c:	90                   	nop
    d61d:	0f b6 05 a2 e7 00 00 	movzbl 0xe7a2(%rip),%eax        # 1bdc6 <g_896+0x6>
    d624:	83 c0 01             	add    $0x1,%eax
    d627:	88 05 99 e7 00 00    	mov    %al,0xe799(%rip)        # 1bdc6 <g_896+0x6>
    d62d:	0f b6 05 92 e7 00 00 	movzbl 0xe792(%rip),%eax        # 1bdc6 <g_896+0x6>
    d634:	84 c0                	test   %al,%al
    d636:	0f 85 ae fd ff ff    	jne    d3ea <func_41+0x496>
    d63c:	48 8b 05 6d 1c 01 00 	mov    0x11c6d(%rip),%rax        # 1f2b0 <g_733>
    d643:	48 8b 00             	mov    (%rax),%rax
    d646:	48 8b 0d 33 f3 00 00 	mov    0xf333(%rip),%rcx        # 1c980 <g_1248>
    d64d:	48 8b 1d 34 f3 00 00 	mov    0xf334(%rip),%rbx        # 1c988 <g_1248+0x8>
    d654:	48 89 08             	mov    %rcx,(%rax)
    d657:	48 89 58 08          	mov    %rbx,0x8(%rax)
    d65b:	0f b7 15 2e f3 00 00 	movzwl 0xf32e(%rip),%edx        # 1c990 <g_1248+0x10>
    d662:	66 89 50 10          	mov    %dx,0x10(%rax)
    d666:	0f b6 15 25 f3 00 00 	movzbl 0xf325(%rip),%edx        # 1c992 <g_1248+0x12>
    d66d:	88 50 12             	mov    %dl,0x12(%rax)
    d670:	c6 05 ff e6 00 00 00 	movb   $0x0,0xe6ff(%rip)        # 1bd76 <g_744+0x6>
    d677:	e9 7c 03 00 00       	jmpq   d9f8 <func_41+0xaa4>
    d67c:	48 8d 85 80 f7 ff ff 	lea    -0x880(%rbp),%rax
    d683:	48 05 18 01 00 00    	add    $0x118,%rax
    d689:	48 89 85 68 f4 ff ff 	mov    %rax,-0xb98(%rbp)
    d690:	66 c7 85 00 f9 ff ff 	movw   $0x7,-0x700(%rbp)
    d697:	07 00 
    d699:	66 c7 85 02 f9 ff ff 	movw   $0x0,-0x6fe(%rbp)
    d6a0:	00 00 
    d6a2:	66 c7 85 04 f9 ff ff 	movw   $0x0,-0x6fc(%rbp)
    d6a9:	00 00 
    d6ab:	66 c7 85 06 f9 ff ff 	movw   $0x7,-0x6fa(%rbp)
    d6b2:	07 00 
    d6b4:	66 c7 85 08 f9 ff ff 	movw   $0x0,-0x6f8(%rbp)
    d6bb:	00 00 
    d6bd:	66 c7 85 0a f9 ff ff 	movw   $0x0,-0x6f6(%rbp)
    d6c4:	00 00 
    d6c6:	c7 85 d8 f2 ff ff 7b 	movl   $0xe1c65e7b,-0xd28(%rbp)
    d6cd:	5e c6 e1 
    d6d0:	48 8b 85 68 f4 ff ff 	mov    -0xb98(%rbp),%rax
    d6d7:	48 8b 95 58 f4 ff ff 	mov    -0xba8(%rbp),%rdx
    d6de:	48 89 10             	mov    %rdx,(%rax)
    d6e1:	48 c7 05 9f f2 00 00 	movq   $0x10,0xf29f(%rip)        # 1c98b <g_1248+0xb>
    d6e8:	10 00 00 00 
    d6ec:	e9 3f 02 00 00       	jmpq   d930 <func_41+0x9dc>
    d6f1:	48 8d 85 8a f4 ff ff 	lea    -0xb76(%rbp),%rax
    d6f8:	48 83 c0 02          	add    $0x2,%rax
    d6fc:	48 89 85 70 f4 ff ff 	mov    %rax,-0xb90(%rbp)
    d703:	c7 85 e0 f2 ff ff 09 	movl   $0x9,-0xd20(%rbp)
    d70a:	00 00 00 
    d70d:	c7 85 8c f2 ff ff 00 	movl   $0x0,-0xd74(%rbp)
    d714:	00 00 00 
    d717:	eb 1a                	jmp    d733 <func_41+0x7df>
    d719:	8b 85 8c f2 ff ff    	mov    -0xd74(%rbp),%eax
    d71f:	48 98                	cltq   
    d721:	c7 84 85 00 f6 ff ff 	movl   $0xffffffff,-0xa00(%rbp,%rax,4)
    d728:	ff ff ff ff 
    d72c:	83 85 8c f2 ff ff 01 	addl   $0x1,-0xd74(%rbp)
    d733:	83 bd 8c f2 ff ff 02 	cmpl   $0x2,-0xd74(%rbp)
    d73a:	7e dd                	jle    d719 <func_41+0x7c5>
    d73c:	0f b7 9d 44 f2 ff ff 	movzwl -0xdbc(%rbp),%ebx
    d743:	0f b6 05 38 e5 00 00 	movzbl 0xe538(%rip),%eax        # 1bc82 <g_337>
    d74a:	66 98                	cbtw   
    d74c:	44 0f b7 e0          	movzwl %ax,%r12d
    d750:	0f b6 05 a9 dc 00 00 	movzbl 0xdca9(%rip),%eax        # 1b400 <g_33>
    d757:	0f be d0             	movsbl %al,%edx
    d75a:	0f b7 05 03 e5 00 00 	movzwl 0xe503(%rip),%eax        # 1bc64 <g_280+0x4>
    d761:	0f b7 c0             	movzwl %ax,%eax
    d764:	39 c2                	cmp    %eax,%edx
    d766:	7f 21                	jg     d789 <func_41+0x835>
    d768:	0f b7 85 60 f2 ff ff 	movzwl -0xda0(%rbp),%eax
    d76f:	0f b6 c0             	movzbl %al,%eax
    d772:	be 03 00 00 00       	mov    $0x3,%esi
    d777:	89 c7                	mov    %eax,%edi
    d779:	e8 40 c5 ff ff       	callq  9cbe <safe_rshift_func_uint8_t_u_u>
    d77e:	84 c0                	test   %al,%al
    d780:	74 07                	je     d789 <func_41+0x835>
    d782:	b8 01 00 00 00       	mov    $0x1,%eax
    d787:	eb 05                	jmp    d78e <func_41+0x83a>
    d789:	b8 00 00 00 00       	mov    $0x0,%eax
    d78e:	83 f8 05             	cmp    $0x5,%eax
    d791:	0f 9e c0             	setle  %al
    d794:	0f b6 d0             	movzbl %al,%edx
    d797:	48 8b 85 70 f4 ff ff 	mov    -0xb90(%rbp),%rax
    d79e:	0f b7 00             	movzwl (%rax),%eax
    d7a1:	89 c1                	mov    %eax,%ecx
    d7a3:	89 d0                	mov    %edx,%eax
    d7a5:	21 c8                	and    %ecx,%eax
    d7a7:	89 c2                	mov    %eax,%edx
    d7a9:	48 8b 85 70 f4 ff ff 	mov    -0xb90(%rbp),%rax
    d7b0:	66 89 10             	mov    %dx,(%rax)
    d7b3:	48 8b 85 70 f4 ff ff 	mov    -0xb90(%rbp),%rax
    d7ba:	0f b7 00             	movzwl (%rax),%eax
    d7bd:	0f b7 c0             	movzwl %ax,%eax
    d7c0:	44 89 e6             	mov    %r12d,%esi
    d7c3:	89 c7                	mov    %eax,%edi
    d7c5:	e8 73 c5 ff ff       	callq  9d3d <safe_mul_func_uint16_t_u_u>
    d7ca:	89 c2                	mov    %eax,%edx
    d7cc:	48 8b 05 ad 12 01 00 	mov    0x112ad(%rip),%rax        # 1ea80 <g_32>
    d7d3:	0f b6 00             	movzbl (%rax),%eax
    d7d6:	09 d0                	or     %edx,%eax
    d7d8:	83 c8 ec             	or     $0xffffffec,%eax
    d7db:	0f be d0             	movsbl %al,%edx
    d7de:	0f b7 85 44 f2 ff ff 	movzwl -0xdbc(%rbp),%eax
    d7e5:	0f be c0             	movsbl %al,%eax
    d7e8:	89 d6                	mov    %edx,%esi
    d7ea:	89 c7                	mov    %eax,%edi
    d7ec:	e8 40 ba ff ff       	callq  9231 <safe_mod_func_int8_t_s_s>
    d7f1:	84 c0                	test   %al,%al
    d7f3:	0f 94 c0             	sete   %al
    d7f6:	0f b6 c0             	movzbl %al,%eax
    d7f9:	89 de                	mov    %ebx,%esi
    d7fb:	89 c7                	mov    %eax,%edi
    d7fd:	e8 b6 c6 ff ff       	callq  9eb8 <safe_add_func_uint32_t_u_u>
    d802:	48 8d 05 0f 1f 01 00 	lea    0x11f0f(%rip),%rax        # 1f718 <g_949>
    d809:	48 39 85 60 f4 ff ff 	cmp    %rax,-0xba0(%rbp)
    d810:	0f 95 c0             	setne  %al
    d813:	0f b6 c0             	movzbl %al,%eax
    d816:	66 89 85 6a f2 ff ff 	mov    %ax,-0xd96(%rbp)
    d81d:	48 c7 05 c3 e5 00 00 	movq   $0x0,0xe5c3(%rip)        # 1bdeb <g_900+0xb>
    d824:	00 00 00 00 
    d828:	e9 d2 00 00 00       	jmpq   d8ff <func_41+0x9ab>
    d82d:	48 8d 05 5c 1a 01 00 	lea    0x11a5c(%rip),%rax        # 1f290 <g_612>
    d834:	48 89 85 40 f3 ff ff 	mov    %rax,-0xcc0(%rbp)
    d83b:	48 8d 85 40 f3 ff ff 	lea    -0xcc0(%rbp),%rax
    d842:	48 89 85 78 f4 ff ff 	mov    %rax,-0xb88(%rbp)
    d849:	c7 85 70 f2 ff ff 00 	movl   $0x0,-0xd90(%rbp)
    d850:	00 00 00 
    d853:	eb 1a                	jmp    d86f <func_41+0x91b>
    d855:	8b 85 70 f2 ff ff    	mov    -0xd90(%rbp),%eax
    d85b:	48 98                	cltq   
    d85d:	c7 84 85 30 f5 ff ff 	movl   $0x1,-0xad0(%rbp,%rax,4)
    d864:	01 00 00 00 
    d868:	83 85 70 f2 ff ff 01 	addl   $0x1,-0xd90(%rbp)
    d86f:	83 bd 70 f2 ff ff 00 	cmpl   $0x0,-0xd90(%rbp)
    d876:	7e dd                	jle    d855 <func_41+0x901>
    d878:	48 8b 85 78 f4 ff ff 	mov    -0xb88(%rbp),%rax
    d87f:	48 8d 15 0a 1a 01 00 	lea    0x11a0a(%rip),%rdx        # 1f290 <g_612>
    d886:	48 89 10             	mov    %rdx,(%rax)
    d889:	0f b7 85 5e f2 ff ff 	movzwl -0xda2(%rbp),%eax
    d890:	83 c0 01             	add    $0x1,%eax
    d893:	66 89 85 5e f2 ff ff 	mov    %ax,-0xda2(%rbp)
    d89a:	48 8d 05 d7 13 01 00 	lea    0x113d7(%rip),%rax        # 1ec78 <g_133+0x1d8>
    d8a1:	48 c7 00 00 00 00 00 	movq   $0x0,(%rax)
    d8a8:	48 8b 05 91 2d 01 00 	mov    0x12d91(%rip),%rax        # 20640 <g_1285>
    d8af:	48 39 85 50 f3 ff ff 	cmp    %rax,-0xcb0(%rbp)
    d8b6:	0f 95 c0             	setne  %al
    d8b9:	0f b6 d0             	movzbl %al,%edx
    d8bc:	b8 05 00 00 00       	mov    $0x5,%eax
    d8c1:	0f be c0             	movsbl %al,%eax
    d8c4:	39 c2                	cmp    %eax,%edx
    d8c6:	48 8d 15 73 1e 01 00 	lea    0x11e73(%rip),%rdx        # 1f740 <g_1287>
    d8cd:	48 8d 05 0c 1a 01 00 	lea    0x11a0c(%rip),%rax        # 1f2e0 <g_732+0x20>
    d8d4:	48 39 c2             	cmp    %rax,%rdx
    d8d7:	0f 95 c0             	setne  %al
    d8da:	0f b6 c0             	movzbl %al,%eax
    d8dd:	89 05 89 d9 00 00    	mov    %eax,0xd989(%rip)        # 1b26c <g_8+0x22c>
    d8e3:	48 8b 05 01 e5 00 00 	mov    0xe501(%rip),%rax        # 1bdeb <g_900+0xb>
    d8ea:	be 01 00 00 00       	mov    $0x1,%esi
    d8ef:	89 c7                	mov    %eax,%edi
    d8f1:	e8 0f bd ff ff       	callq  9605 <safe_sub_func_int32_t_s_s>
    d8f6:	48 98                	cltq   
    d8f8:	48 89 05 ec e4 00 00 	mov    %rax,0xe4ec(%rip)        # 1bdeb <g_900+0xb>
    d8ff:	48 8b 05 e5 e4 00 00 	mov    0xe4e5(%rip),%rax        # 1bdeb <g_900+0xb>
    d906:	48 83 f8 ed          	cmp    $0xffffffffffffffed,%rax
    d90a:	0f 85 1d ff ff ff    	jne    d82d <func_41+0x8d9>
    d910:	48 8b 05 74 f0 00 00 	mov    0xf074(%rip),%rax        # 1c98b <g_1248+0xb>
    d917:	0f b7 c0             	movzwl %ax,%eax
    d91a:	be 02 00 00 00       	mov    $0x2,%esi
    d91f:	89 c7                	mov    %eax,%edi
    d921:	e8 f9 c3 ff ff       	callq  9d1f <safe_sub_func_uint16_t_u_u>
    d926:	0f b7 c0             	movzwl %ax,%eax
    d929:	48 89 05 5b f0 00 00 	mov    %rax,0xf05b(%rip)        # 1c98b <g_1248+0xb>
    d930:	48 8b 05 54 f0 00 00 	mov    0xf054(%rip),%rax        # 1c98b <g_1248+0xb>
    d937:	48 83 f8 04          	cmp    $0x4,%rax
    d93b:	0f 8f b0 fd ff ff    	jg     d6f1 <func_41+0x79d>
    d941:	66 83 bd 44 f2 ff ff 	cmpw   $0x0,-0xdbc(%rbp)
    d948:	00 
    d949:	74 0c                	je     d957 <func_41+0xa03>
    d94b:	48 8b 85 48 f2 ff ff 	mov    -0xdb8(%rbp),%rax
    d952:	e9 c4 15 00 00       	jmpq   ef1b <func_41+0x1fc7>
    d957:	c7 85 dc f2 ff ff a0 	movl   $0x84f370a0,-0xd24(%rbp)
    d95e:	70 f3 84 
    d961:	66 c7 05 5a e4 00 00 	movw   $0x0,0xe45a(%rip)        # 1bdc4 <g_896+0x4>
    d968:	00 00 
    d96a:	eb 65                	jmp    d9d1 <func_41+0xa7d>
    d96c:	48 8b 05 2d 13 01 00 	mov    0x1132d(%rip),%rax        # 1eca0 <g_134>
    d973:	48 8b 95 68 f4 ff ff 	mov    -0xb98(%rbp),%rdx
    d97a:	48 8b 12             	mov    (%rdx),%rdx
    d97d:	48 89 10             	mov    %rdx,(%rax)
    d980:	48 8b 85 68 f4 ff ff 	mov    -0xb98(%rbp),%rax
    d987:	48 c7 00 00 00 00 00 	movq   $0x0,(%rax)
    d98e:	0f b7 05 2f e4 00 00 	movzwl 0xe42f(%rip),%eax        # 1bdc4 <g_896+0x4>
    d995:	0f b7 c0             	movzwl %ax,%eax
    d998:	48 98                	cltq   
    d99a:	0f b7 84 45 00 f9 ff 	movzwl -0x700(%rbp,%rax,2),%eax
    d9a1:	ff 
    d9a2:	89 c2                	mov    %eax,%edx
    d9a4:	8b 85 dc f2 ff ff    	mov    -0xd24(%rbp),%eax
    d9aa:	31 d0                	xor    %edx,%eax
    d9ac:	98                   	cwtl   
    d9ad:	be 08 00 00 00       	mov    $0x8,%esi
    d9b2:	89 c7                	mov    %eax,%edi
    d9b4:	e8 71 bb ff ff       	callq  952a <safe_rshift_func_int16_t_s_s>
    d9b9:	98                   	cwtl   
    d9ba:	89 85 84 f6 ff ff    	mov    %eax,-0x97c(%rbp)
    d9c0:	0f b7 05 fd e3 00 00 	movzwl 0xe3fd(%rip),%eax        # 1bdc4 <g_896+0x4>
    d9c7:	83 c0 01             	add    $0x1,%eax
    d9ca:	66 89 05 f3 e3 00 00 	mov    %ax,0xe3f3(%rip)        # 1bdc4 <g_896+0x4>
    d9d1:	0f b7 05 ec e3 00 00 	movzwl 0xe3ec(%rip),%eax        # 1bdc4 <g_896+0x4>
    d9d8:	66 83 f8 05          	cmp    $0x5,%ax
    d9dc:	76 8e                	jbe    d96c <func_41+0xa18>
    d9de:	66 83 bd 44 f2 ff ff 	cmpw   $0x0,-0xdbc(%rbp)
    d9e5:	00 
    d9e6:	75 21                	jne    da09 <func_41+0xab5>
    d9e8:	0f b6 05 87 e3 00 00 	movzbl 0xe387(%rip),%eax        # 1bd76 <g_744+0x6>
    d9ef:	83 c0 01             	add    $0x1,%eax
    d9f2:	88 05 7e e3 00 00    	mov    %al,0xe37e(%rip)        # 1bd76 <g_744+0x6>
    d9f8:	0f b6 05 77 e3 00 00 	movzbl 0xe377(%rip),%eax        # 1bd76 <g_744+0x6>
    d9ff:	3c 28                	cmp    $0x28,%al
    da01:	0f 85 75 fc ff ff    	jne    d67c <func_41+0x728>
    da07:	eb 01                	jmp    da0a <func_41+0xab6>
    da09:	90                   	nop
    da0a:	8b 05 40 e2 00 00    	mov    0xe240(%rip),%eax        # 1bc50 <g_248>
    da10:	0f b6 c0             	movzbl %al,%eax
    da13:	be 01 00 00 00       	mov    $0x1,%esi
    da18:	89 c7                	mov    %eax,%edi
    da1a:	e8 59 c1 ff ff       	callq  9b78 <safe_sub_func_uint8_t_u_u>
    da1f:	0f b6 c0             	movzbl %al,%eax
    da22:	89 05 28 e2 00 00    	mov    %eax,0xe228(%rip)        # 1bc50 <g_248>
    da28:	8b 05 22 e2 00 00    	mov    0xe222(%rip),%eax        # 1bc50 <g_248>
    da2e:	83 f8 ea             	cmp    $0xffffffea,%eax
    da31:	0f 8c 15 f9 ff ff    	jl     d34c <func_41+0x3f8>
    da37:	48 8b 85 48 f2 ff ff 	mov    -0xdb8(%rbp),%rax
    da3e:	e9 d8 14 00 00       	jmpq   ef1b <func_41+0x1fc7>
    da43:	48 8b 85 d8 fc ff ff 	mov    -0x328(%rbp),%rax
    da4a:	48 85 c0             	test   %rax,%rax
    da4d:	0f 84 1a 06 00 00    	je     e06d <func_41+0x1119>
    da53:	48 8d 05 16 e3 00 00 	lea    0xe316(%rip),%rax        # 1bd70 <g_744>
    da5a:	48 89 85 10 f4 ff ff 	mov    %rax,-0xbf0(%rbp)
    da61:	c7 85 30 f3 ff ff ff 	movl   $0xffffffff,-0xcd0(%rbp)
    da68:	ff ff ff 
    da6b:	c7 85 c0 f2 ff ff b5 	movl   $0xdcbf9fb5,-0xd40(%rbp)
    da72:	9f bf dc 
    da75:	48 8d 05 f0 ee 00 00 	lea    0xeef0(%rip),%rax        # 1c96c <g_1182+0xc>
    da7c:	48 89 85 40 f3 ff ff 	mov    %rax,-0xcc0(%rbp)
    da83:	c6 85 28 f3 ff ff 00 	movb   $0x0,-0xcd8(%rbp)
    da8a:	48 c7 85 18 f4 ff ff 	movq   $0x0,-0xbe8(%rbp)
    da91:	00 00 00 00 
    da95:	48 c7 85 20 f4 ff ff 	movq   $0x0,-0xbe0(%rbp)
    da9c:	00 00 00 00 
    daa0:	48 8d 85 e8 f2 ff ff 	lea    -0xd18(%rbp),%rax
    daa7:	48 89 85 28 f4 ff ff 	mov    %rax,-0xbd8(%rbp)
    daae:	c7 85 38 f3 ff ff 01 	movl   $0x1,-0xcc8(%rbp)
    dab5:	00 00 00 
    dab8:	c7 85 74 f2 ff ff 00 	movl   $0x0,-0xd8c(%rbp)
    dabf:	00 00 00 
    dac2:	eb 1e                	jmp    dae2 <func_41+0xb8e>
    dac4:	8b 85 74 f2 ff ff    	mov    -0xd8c(%rbp),%eax
    daca:	48 98                	cltq   
    dacc:	48 8d 15 59 29 01 00 	lea    0x12959(%rip),%rdx        # 2042c <g_327>
    dad3:	48 89 94 c5 40 fd ff 	mov    %rdx,-0x2c0(%rbp,%rax,8)
    dada:	ff 
    dadb:	83 85 74 f2 ff ff 01 	addl   $0x1,-0xd8c(%rbp)
    dae2:	83 bd 74 f2 ff ff 05 	cmpl   $0x5,-0xd8c(%rbp)
    dae9:	7e d9                	jle    dac4 <func_41+0xb70>
    daeb:	c7 85 74 f2 ff ff 00 	movl   $0x0,-0xd8c(%rbp)
    daf2:	00 00 00 
    daf5:	eb 1e                	jmp    db15 <func_41+0xbc1>
    daf7:	8b 85 74 f2 ff ff    	mov    -0xd8c(%rbp),%eax
    dafd:	48 98                	cltq   
    daff:	48 8d 15 52 ec 00 00 	lea    0xec52(%rip),%rdx        # 1c758 <g_1083+0x78>
    db06:	48 89 94 c5 00 f6 ff 	mov    %rdx,-0xa00(%rbp,%rax,8)
    db0d:	ff 
    db0e:	83 85 74 f2 ff ff 01 	addl   $0x1,-0xd8c(%rbp)
    db15:	83 bd 74 f2 ff ff 02 	cmpl   $0x2,-0xd8c(%rbp)
    db1c:	7e d9                	jle    daf7 <func_41+0xba3>
    db1e:	c7 85 74 f2 ff ff 00 	movl   $0x0,-0xd8c(%rbp)
    db25:	00 00 00 
    db28:	eb 1e                	jmp    db48 <func_41+0xbf4>
    db2a:	8b 85 74 f2 ff ff    	mov    -0xd8c(%rbp),%eax
    db30:	48 98                	cltq   
    db32:	48 8d 95 28 f3 ff ff 	lea    -0xcd8(%rbp),%rdx
    db39:	48 89 94 c5 80 f6 ff 	mov    %rdx,-0x980(%rbp,%rax,8)
    db40:	ff 
    db41:	83 85 74 f2 ff ff 01 	addl   $0x1,-0xd8c(%rbp)
    db48:	83 bd 74 f2 ff ff 02 	cmpl   $0x2,-0xd8c(%rbp)
    db4f:	7e d9                	jle    db2a <func_41+0xbd6>
    db51:	8b 85 30 f3 ff ff    	mov    -0xcd0(%rbp),%eax
    db57:	89 85 30 f3 ff ff    	mov    %eax,-0xcd0(%rbp)
    db5d:	8b 85 30 f3 ff ff    	mov    -0xcd0(%rbp),%eax
    db63:	89 c2                	mov    %eax,%edx
    db65:	0f b7 85 44 f2 ff ff 	movzwl -0xdbc(%rbp),%eax
    db6c:	39 85 c0 f2 ff ff    	cmp    %eax,-0xd40(%rbp)
    db72:	0f 95 c0             	setne  %al
    db75:	31 c2                	xor    %eax,%edx
    db77:	41 89 d4             	mov    %edx,%r12d
    db7a:	48 8b 85 48 f2 ff ff 	mov    -0xdb8(%rbp),%rax
    db81:	0f be d8             	movsbl %al,%ebx
    db84:	48 8b 85 00 f3 ff ff 	mov    -0xd00(%rbp),%rax
    db8b:	48 85 c0             	test   %rax,%rax
    db8e:	0f 95 c0             	setne  %al
    db91:	0f b6 c0             	movzbl %al,%eax
    db94:	be 08 00 00 00       	mov    $0x8,%esi
    db99:	89 c7                	mov    %eax,%edi
    db9b:	e8 c3 b9 ff ff       	callq  9563 <safe_rshift_func_int16_t_s_u>
    dba0:	98                   	cwtl   
    dba1:	39 85 c0 f2 ff ff    	cmp    %eax,-0xd40(%rbp)
    dba7:	0f 9c c0             	setl   %al
    dbaa:	0f b6 c0             	movzbl %al,%eax
    dbad:	89 de                	mov    %ebx,%esi
    dbaf:	89 c7                	mov    %eax,%edi
    dbb1:	e8 3c b6 ff ff       	callq  91f2 <safe_sub_func_int8_t_s_s>
    dbb6:	b8 01 00 00 00       	mov    $0x1,%eax
    dbbb:	44 31 e0             	xor    %r12d,%eax
    dbbe:	0f b6 d0             	movzbl %al,%edx
    dbc1:	48 8b 85 98 f8 ff ff 	mov    -0x768(%rbp),%rax
    dbc8:	48 39 85 10 f4 ff ff 	cmp    %rax,-0xbf0(%rbp)
    dbcf:	0f 95 c0             	setne  %al
    dbd2:	0f b6 c0             	movzbl %al,%eax
    dbd5:	89 d6                	mov    %edx,%esi
    dbd7:	89 c7                	mov    %eax,%edi
    dbd9:	e8 b5 bf ff ff       	callq  9b93 <safe_mul_func_uint8_t_u_u>
    dbde:	84 c0                	test   %al,%al
    dbe0:	0f 84 2a 02 00 00    	je     de10 <func_41+0xebc>
    dbe6:	48 8d 85 40 f3 ff ff 	lea    -0xcc0(%rbp),%rax
    dbed:	48 89 85 30 f4 ff ff 	mov    %rax,-0xbd0(%rbp)
    dbf4:	c7 85 c4 f2 ff ff 9b 	movl   $0xf4266a9b,-0xd3c(%rbp)
    dbfb:	6a 26 f4 
    dbfe:	48 c7 85 38 f4 ff ff 	movq   $0x0,-0xbc8(%rbp)
    dc05:	00 00 00 00 
    dc09:	c6 85 59 f2 ff ff 00 	movb   $0x0,-0xda7(%rbp)
    dc10:	c7 85 78 f2 ff ff 97 	movl   $0x70ca4897,-0xd88(%rbp)
    dc17:	48 ca 70 
    dc1a:	0f bf 9d 62 f2 ff ff 	movswl -0xd9e(%rbp),%ebx
    dc21:	44 0f b6 a5 59 f2 ff 	movzbl -0xda7(%rbp),%r12d
    dc28:	ff 
    dc29:	48 8b 85 48 f2 ff ff 	mov    -0xdb8(%rbp),%rax
    dc30:	44 0f b6 e8          	movzbl %al,%r13d
    dc34:	48 8d 05 3d 15 01 00 	lea    0x1153d(%rip),%rax        # 1f178 <g_613+0x78>
    dc3b:	48 39 85 38 f4 ff ff 	cmp    %rax,-0xbc8(%rbp)
    dc42:	0f 95 c2             	setne  %dl
    dc45:	8b 85 30 f3 ff ff    	mov    -0xcd0(%rbp),%eax
    dc4b:	f7 d0                	not    %eax
    dc4d:	c1 e8 1f             	shr    $0x1f,%eax
    dc50:	09 d0                	or     %edx,%eax
    dc52:	0f b6 d0             	movzbl %al,%edx
    dc55:	8b 85 c4 f2 ff ff    	mov    -0xd3c(%rbp),%eax
    dc5b:	0f be c0             	movsbl %al,%eax
    dc5e:	89 d6                	mov    %edx,%esi
    dc60:	89 c7                	mov    %eax,%edi
    dc62:	e8 ab b5 ff ff       	callq  9212 <safe_mul_func_int8_t_s_s>
    dc67:	48 0f be c0          	movsbq %al,%rax
    dc6b:	48 39 85 48 f2 ff ff 	cmp    %rax,-0xdb8(%rbp)
    dc72:	0f 96 c0             	setbe  %al
    dc75:	0f b6 c0             	movzbl %al,%eax
    dc78:	48 39 85 48 f2 ff ff 	cmp    %rax,-0xdb8(%rbp)
    dc7f:	0f 97 c0             	seta   %al
    dc82:	0f b6 c0             	movzbl %al,%eax
    dc85:	39 85 c4 f2 ff ff    	cmp    %eax,-0xd3c(%rbp)
    dc8b:	0f 95 c0             	setne  %al
    dc8e:	0f b6 c0             	movzbl %al,%eax
    dc91:	89 c6                	mov    %eax,%esi
    dc93:	bf fd ff ff ff       	mov    $0xfffffffd,%edi
    dc98:	e8 58 b7 ff ff       	callq  93f5 <safe_mul_func_int16_t_s_s>
    dc9d:	0f b6 c0             	movzbl %al,%eax
    dca0:	44 89 ee             	mov    %r13d,%esi
    dca3:	89 c7                	mov    %eax,%edi
    dca5:	e8 b0 be ff ff       	callq  9b5a <safe_add_func_uint8_t_u_u>
    dcaa:	0f b6 d0             	movzbl %al,%edx
    dcad:	8b 85 30 f3 ff ff    	mov    -0xcd0(%rbp),%eax
    dcb3:	39 c2                	cmp    %eax,%edx
    dcb5:	48 8b 95 40 f3 ff ff 	mov    -0xcc0(%rbp),%rdx
    dcbc:	48 8b 85 30 f4 ff ff 	mov    -0xbd0(%rbp),%rax
    dcc3:	48 89 10             	mov    %rdx,(%rax)
    dcc6:	48 8b 85 30 f4 ff ff 	mov    -0xbd0(%rbp),%rax
    dccd:	48 8b 10             	mov    (%rax),%rdx
    dcd0:	48 8b 85 18 fc ff ff 	mov    -0x3e8(%rbp),%rax
    dcd7:	48 39 c2             	cmp    %rax,%rdx
    dcda:	0f 95 c0             	setne  %al
    dcdd:	0f b6 c0             	movzbl %al,%eax
    dce0:	48 8b 95 48 f2 ff ff 	mov    -0xdb8(%rbp),%rdx
    dce7:	09 d0                	or     %edx,%eax
    dce9:	98                   	cwtl   
    dcea:	44 89 e6             	mov    %r12d,%esi
    dced:	89 c7                	mov    %eax,%edi
    dcef:	e8 6f b8 ff ff       	callq  9563 <safe_rshift_func_int16_t_s_u>
    dcf4:	66 3d d4 00          	cmp    $0xd4,%ax
    dcf8:	0f 95 c0             	setne  %al
    dcfb:	0f b6 c0             	movzbl %al,%eax
    dcfe:	8b 95 c0 f2 ff ff    	mov    -0xd40(%rbp),%edx
    dd04:	31 d0                	xor    %edx,%eax
    dd06:	98                   	cwtl   
    dd07:	89 de                	mov    %ebx,%esi
    dd09:	89 c7                	mov    %eax,%edi
    dd0b:	e8 e5 b6 ff ff       	callq  93f5 <safe_mul_func_int16_t_s_s>
    dd10:	66 85 c0             	test   %ax,%ax
    dd13:	74 07                	je     dd1c <func_41+0xdc8>
    dd15:	b8 01 00 00 00       	mov    $0x1,%eax
    dd1a:	eb 05                	jmp    dd21 <func_41+0xdcd>
    dd1c:	b8 00 00 00 00       	mov    $0x0,%eax
    dd21:	89 05 95 de 00 00    	mov    %eax,0xde95(%rip)        # 1bbbc <g_95+0x1c>
    dd27:	8b 05 8f de 00 00    	mov    0xde8f(%rip),%eax        # 1bbbc <g_95+0x1c>
    dd2d:	21 85 78 f2 ff ff    	and    %eax,-0xd88(%rbp)
    dd33:	c7 05 33 e0 00 00 17 	movl   $0x17,0xe033(%rip)        # 1bd70 <g_744>
    dd3a:	00 00 00 
    dd3d:	e9 9c 00 00 00       	jmpq   ddde <func_41+0xe8a>
    dd42:	c7 85 c8 f2 ff ff 87 	movl   $0xeed9d787,-0xd38(%rbp)
    dd49:	d7 d9 ee 
    dd4c:	48 8d 05 65 e0 00 00 	lea    0xe065(%rip),%rax        # 1bdb8 <g_871>
    dd53:	48 89 85 40 f4 ff ff 	mov    %rax,-0xbc0(%rbp)
    dd5a:	66 c7 05 11 e0 00 00 	movw   $0x0,0xe011(%rip)        # 1bd74 <g_744+0x4>
    dd61:	00 00 
    dd63:	eb 30                	jmp    dd95 <func_41+0xe41>
    dd65:	48 8d 05 bc da 00 00 	lea    0xdabc(%rip),%rax        # 1b828 <g_91+0x408>
    dd6c:	48 89 85 48 f4 ff ff 	mov    %rax,-0xbb8(%rbp)
    dd73:	48 8b 05 e6 19 01 00 	mov    0x119e6(%rip),%rax        # 1f760 <g_1329>
    dd7a:	48 8b 95 48 f4 ff ff 	mov    -0xbb8(%rbp),%rdx
    dd81:	48 89 10             	mov    %rdx,(%rax)
    dd84:	0f b7 05 e9 df 00 00 	movzwl 0xdfe9(%rip),%eax        # 1bd74 <g_744+0x4>
    dd8b:	83 c0 01             	add    $0x1,%eax
    dd8e:	66 89 05 df df 00 00 	mov    %ax,0xdfdf(%rip)        # 1bd74 <g_744+0x4>
    dd95:	0f b7 05 d8 df 00 00 	movzwl 0xdfd8(%rip),%eax        # 1bd74 <g_744+0x4>
    dd9c:	66 83 f8 08          	cmp    $0x8,%ax
    dda0:	76 c3                	jbe    dd65 <func_41+0xe11>
    dda2:	83 85 c8 f2 ff ff 01 	addl   $0x1,-0xd38(%rbp)
    dda9:	48 8b 85 e8 f2 ff ff 	mov    -0xd18(%rbp),%rax
    ddb0:	48 39 85 40 f4 ff ff 	cmp    %rax,-0xbc0(%rbp)
    ddb7:	0f 95 c0             	setne  %al
    ddba:	0f b6 c0             	movzbl %al,%eax
    ddbd:	21 85 78 f2 ff ff    	and    %eax,-0xd88(%rbp)
    ddc3:	8b 05 a7 df 00 00    	mov    0xdfa7(%rip),%eax        # 1bd70 <g_744>
    ddc9:	89 c0                	mov    %eax,%eax
    ddcb:	be 01 00 00 00       	mov    $0x1,%esi
    ddd0:	48 89 c7             	mov    %rax,%rdi
    ddd3:	e8 73 c2 ff ff       	callq  a04b <safe_sub_func_uint64_t_u_u>
    ddd8:	89 05 92 df 00 00    	mov    %eax,0xdf92(%rip)        # 1bd70 <g_744>
    ddde:	8b 05 8c df 00 00    	mov    0xdf8c(%rip),%eax        # 1bd70 <g_744>
    dde4:	83 f8 0e             	cmp    $0xe,%eax
    dde7:	0f 87 55 ff ff ff    	ja     dd42 <func_41+0xdee>
    dded:	0f b7 85 44 f2 ff ff 	movzwl -0xdbc(%rbp),%eax
    ddf4:	f7 d0                	not    %eax
    ddf6:	89 85 78 f2 ff ff    	mov    %eax,-0xd88(%rbp)
    ddfc:	48 8b 15 e5 12 01 00 	mov    0x112e5(%rip),%rdx        # 1f0e8 <g_246>
    de03:	48 8b 05 5e 19 01 00 	mov    0x1195e(%rip),%rax        # 1f768 <g_1336>
    de0a:	8b 12                	mov    (%rdx),%edx
    de0c:	89 10                	mov    %edx,(%rax)
    de0e:	eb 1a                	jmp    de2a <func_41+0xed6>
    de10:	48 8b 15 09 19 01 00 	mov    0x11909(%rip),%rdx        # 1f720 <g_1001>
    de17:	48 8d 05 22 19 01 00 	lea    0x11922(%rip),%rax        # 1f740 <g_1287>
    de1e:	48 8b 00             	mov    (%rax),%rax
    de21:	48 8b 00             	mov    (%rax),%rax
    de24:	48 8b 12             	mov    (%rdx),%rdx
    de27:	48 89 10             	mov    %rdx,(%rax)
    de2a:	48 8d 15 47 0e 01 00 	lea    0x10e47(%rip),%rdx        # 1ec78 <g_133+0x1d8>
    de31:	48 8d 85 30 f3 ff ff 	lea    -0xcd0(%rbp),%rax
    de38:	48 89 02             	mov    %rax,(%rdx)
    de3b:	66 c7 05 90 de 00 00 	movw   $0x46e3,0xde90(%rip)        # 1bcd4 <g_464>
    de42:	e3 46 
    de44:	b8 01 00 00 00       	mov    $0x1,%eax
    de49:	48 98                	cltq   
    de4b:	48 89 c7             	mov    %rax,%rdi
    de4e:	e8 c6 c1 ff ff       	callq  a019 <safe_unary_minus_func_uint64_t_u>
    de53:	0f b6 c0             	movzbl %al,%eax
    de56:	be 05 00 00 00       	mov    $0x5,%esi
    de5b:	89 c7                	mov    %eax,%edi
    de5d:	e8 2b be ff ff       	callq  9c8d <safe_rshift_func_uint8_t_u_s>
    de62:	0f b6 c0             	movzbl %al,%eax
    de65:	48 89 05 ec e8 00 00 	mov    %rax,0xe8ec(%rip)        # 1c758 <g_1083+0x78>
    de6c:	0f b6 85 28 f3 ff ff 	movzbl -0xcd8(%rbp),%eax
    de73:	0f be d8             	movsbl %al,%ebx
    de76:	8b 85 30 f3 ff ff    	mov    -0xcd0(%rbp),%eax
    de7c:	0f b6 c0             	movzbl %al,%eax
    de7f:	89 c6                	mov    %eax,%esi
    de81:	bf 01 00 00 00       	mov    $0x1,%edi
    de86:	e8 08 bd ff ff       	callq  9b93 <safe_mul_func_uint8_t_u_u>
    de8b:	89 c2                	mov    %eax,%edx
    de8d:	48 8d 05 b4 e7 00 00 	lea    0xe7b4(%rip),%rax        # 1c648 <g_951+0x68>
    de94:	0f b6 d2             	movzbl %dl,%edx
    de97:	48 89 10             	mov    %rdx,(%rax)
    de9a:	48 8b 00             	mov    (%rax),%rax
    de9d:	48 ba fd 40 e2 08 ef 	movabs $0x7d825fef08e240fd,%rdx
    dea4:	5f 82 7d 
    dea7:	48 39 d0             	cmp    %rdx,%rax
    deaa:	0f 94 c0             	sete   %al
    dead:	0f b6 c0             	movzbl %al,%eax
    deb0:	21 d8                	and    %ebx,%eax
    deb2:	89 05 40 df 00 00    	mov    %eax,0xdf40(%rip)        # 1bdf8 <g_922>
    deb8:	0f b6 85 28 f3 ff ff 	movzbl -0xcd8(%rbp),%eax
    debf:	0f be d8             	movsbl %al,%ebx
    dec2:	48 8b 85 48 f2 ff ff 	mov    -0xdb8(%rbp),%rax
    dec9:	41 89 c4             	mov    %eax,%r12d
    decc:	c7 85 30 f3 ff ff 0f 	movl   $0xea0f,-0xcd0(%rbp)
    ded3:	ea 00 00 
    ded6:	be 0d 00 00 00       	mov    $0xd,%esi
    dedb:	bf 0f 00 00 00       	mov    $0xf,%edi
    dee0:	e8 2d b3 ff ff       	callq  9212 <safe_mul_func_int8_t_s_s>
    dee5:	48 83 bd 28 f4 ff ff 	cmpq   $0x0,-0xbd8(%rbp)
    deec:	00 
    deed:	75 10                	jne    deff <func_41+0xfab>
    deef:	48 8b 05 aa 13 01 00 	mov    0x113aa(%rip),%rax        # 1f2a0 <g_693>
    def6:	48 8b 00             	mov    (%rax),%rax
    def9:	8b 00                	mov    (%rax),%eax
    defb:	85 c0                	test   %eax,%eax
    defd:	74 07                	je     df06 <func_41+0xfb2>
    deff:	b8 01 00 00 00       	mov    $0x1,%eax
    df04:	eb 05                	jmp    df0b <func_41+0xfb7>
    df06:	b8 00 00 00 00       	mov    $0x0,%eax
    df0b:	48 98                	cltq   
    df0d:	48 0b 85 48 f2 ff ff 	or     -0xdb8(%rbp),%rax
    df14:	48 85 c0             	test   %rax,%rax
    df17:	74 0a                	je     df23 <func_41+0xfcf>
    df19:	48 8b 05 e8 dd 00 00 	mov    0xdde8(%rip),%rax        # 1bd08 <g_525+0x28>
    df20:	48 85 c0             	test   %rax,%rax
    df23:	48 8b 05 7e de 00 00 	mov    0xde7e(%rip),%rax        # 1bda8 <g_754>
    df2a:	98                   	cwtl   
    df2b:	44 89 e6             	mov    %r12d,%esi
    df2e:	89 c7                	mov    %eax,%edi
    df30:	e8 ac b5 ff ff       	callq  94e1 <safe_lshift_func_int16_t_s_u>
    df35:	89 c2                	mov    %eax,%edx
    df37:	8b 85 c0 f2 ff ff    	mov    -0xd40(%rbp),%eax
    df3d:	21 d0                	and    %edx,%eax
    df3f:	89 c2                	mov    %eax,%edx
    df41:	48 8b 85 48 f2 ff ff 	mov    -0xdb8(%rbp),%rax
    df48:	21 d0                	and    %edx,%eax
    df4a:	0f b6 c0             	movzbl %al,%eax
    df4d:	be 01 00 00 00       	mov    $0x1,%esi
    df52:	89 c7                	mov    %eax,%edi
    df54:	e8 3a bc ff ff       	callq  9b93 <safe_mul_func_uint8_t_u_u>
    df59:	0f b6 c0             	movzbl %al,%eax
    df5c:	89 85 38 f3 ff ff    	mov    %eax,-0xcc8(%rbp)
    df62:	8b 95 38 f3 ff ff    	mov    -0xcc8(%rbp),%edx
    df68:	48 8b 05 29 13 01 00 	mov    0x11329(%rip),%rax        # 1f298 <g_694>
    df6f:	8b 08                	mov    (%rax),%ecx
    df71:	48 83 bd 58 f3 ff ff 	cmpq   $0x0,-0xca8(%rbp)
    df78:	00 
    df79:	0f 95 c0             	setne  %al
    df7c:	0f b6 c0             	movzbl %al,%eax
    df7f:	21 c8                	and    %ecx,%eax
    df81:	39 85 c0 f2 ff ff    	cmp    %eax,-0xd40(%rbp)
    df87:	0f 9f c0             	setg   %al
    df8a:	0f b6 c0             	movzbl %al,%eax
    df8d:	21 95 90 f2 ff ff    	and    %edx,-0xd70(%rbp)
    df93:	39 85 90 f2 ff ff    	cmp    %eax,-0xd70(%rbp)
    df99:	0f 9f c0             	setg   %al
    df9c:	0f b6 c0             	movzbl %al,%eax
    df9f:	89 de                	mov    %ebx,%esi
    dfa1:	89 c7                	mov    %eax,%edi
    dfa3:	e8 2b b4 ff ff       	callq  93d3 <safe_sub_func_int16_t_s_s>
    dfa8:	66 85 c0             	test   %ax,%ax
    dfab:	74 1c                	je     dfc9 <func_41+0x1075>
    dfad:	8b 05 6d dc 00 00    	mov    0xdc6d(%rip),%eax        # 1bc20 <g_247+0x20>
    dfb3:	89 c2                	mov    %eax,%edx
    dfb5:	48 8b 85 48 f2 ff ff 	mov    -0xdb8(%rbp),%rax
    dfbc:	09 d0                	or     %edx,%eax
    dfbe:	89 05 5c dc 00 00    	mov    %eax,0xdc5c(%rip)        # 1bc20 <g_247+0x20>
    dfc4:	e9 4b 0f 00 00       	jmpq   ef14 <func_41+0x1fc0>
    dfc9:	48 8d 85 38 f3 ff ff 	lea    -0xcc8(%rbp),%rax
    dfd0:	48 89 85 00 f9 ff ff 	mov    %rax,-0x700(%rbp)
    dfd7:	48 8d 85 38 f3 ff ff 	lea    -0xcc8(%rbp),%rax
    dfde:	48 89 85 08 f9 ff ff 	mov    %rax,-0x6f8(%rbp)
    dfe5:	48 8d 85 38 f3 ff ff 	lea    -0xcc8(%rbp),%rax
    dfec:	48 89 85 10 f9 ff ff 	mov    %rax,-0x6f0(%rbp)
    dff3:	48 8b 05 76 17 01 00 	mov    0x11776(%rip),%rax        # 1f770 <g_1362>
    dffa:	48 8b 95 00 f9 ff ff 	mov    -0x700(%rbp),%rdx
    e001:	48 89 10             	mov    %rdx,(%rax)
    e004:	c6 05 bb dc 00 00 02 	movb   $0x2,0xdcbb(%rip)        # 1bcc6 <g_408+0x6>
    e00b:	eb 50                	jmp    e05d <func_41+0x1109>
    e00d:	c7 05 9d dd 00 00 00 	movl   $0x0,0xdd9d(%rip)        # 1bdb4 <g_870>
    e014:	00 00 00 
    e017:	eb 23                	jmp    e03c <func_41+0x10e8>
    e019:	48 83 bd 48 f2 ff ff 	cmpq   $0x0,-0xdb8(%rbp)
    e020:	00 
    e021:	75 26                	jne    e049 <func_41+0x10f5>
    e023:	66 83 bd 44 f2 ff ff 	cmpw   $0x0,-0xdbc(%rbp)
    e02a:	00 
    e02b:	75 1f                	jne    e04c <func_41+0x10f8>
    e02d:	8b 05 81 dd 00 00    	mov    0xdd81(%rip),%eax        # 1bdb4 <g_870>
    e033:	83 c0 01             	add    $0x1,%eax
    e036:	89 05 78 dd 00 00    	mov    %eax,0xdd78(%rip)        # 1bdb4 <g_870>
    e03c:	8b 05 72 dd 00 00    	mov    0xdd72(%rip),%eax        # 1bdb4 <g_870>
    e042:	83 f8 02             	cmp    $0x2,%eax
    e045:	76 d2                	jbe    e019 <func_41+0x10c5>
    e047:	eb 04                	jmp    e04d <func_41+0x10f9>
    e049:	90                   	nop
    e04a:	eb 01                	jmp    e04d <func_41+0x10f9>
    e04c:	90                   	nop
    e04d:	0f b6 05 72 dc 00 00 	movzbl 0xdc72(%rip),%eax        # 1bcc6 <g_408+0x6>
    e054:	83 c0 01             	add    $0x1,%eax
    e057:	88 05 69 dc 00 00    	mov    %al,0xdc69(%rip)        # 1bcc6 <g_408+0x6>
    e05d:	0f b6 05 62 dc 00 00 	movzbl 0xdc62(%rip),%eax        # 1bcc6 <g_408+0x6>
    e064:	3c 06                	cmp    $0x6,%al
    e066:	76 a5                	jbe    e00d <func_41+0x10b9>
    e068:	e9 a7 0e 00 00       	jmpq   ef14 <func_41+0x1fc0>
    e06d:	66 c7 85 64 f2 ff ff 	movw   $0xfff7,-0xd9c(%rbp)
    e074:	f7 ff 
    e076:	48 8d 05 05 dc 00 00 	lea    0xdc05(%rip),%rax        # 1bc82 <g_337>
    e07d:	48 89 85 78 f3 ff ff 	mov    %rax,-0xc88(%rbp)
    e084:	c7 85 98 f2 ff ff fc 	movl   $0xfffffffc,-0xd68(%rbp)
    e08b:	ff ff ff 
    e08e:	48 8d 05 c3 db 00 00 	lea    0xdbc3(%rip),%rax        # 1bc58 <g_252>
    e095:	48 89 85 80 f3 ff ff 	mov    %rax,-0xc80(%rbp)
    e09c:	48 8d 85 90 f4 ff ff 	lea    -0xb70(%rbp),%rax
    e0a3:	48 89 85 10 f3 ff ff 	mov    %rax,-0xcf0(%rbp)
    e0aa:	48 8d 85 10 f3 ff ff 	lea    -0xcf0(%rbp),%rax
    e0b1:	48 89 85 18 f3 ff ff 	mov    %rax,-0xce8(%rbp)
    e0b8:	48 8d 85 18 f3 ff ff 	lea    -0xce8(%rbp),%rax
    e0bf:	48 89 85 88 f3 ff ff 	mov    %rax,-0xc78(%rbp)
    e0c6:	48 8d 85 80 f7 ff ff 	lea    -0x880(%rbp),%rax
    e0cd:	48 83 c0 58          	add    $0x58,%rax
    e0d1:	48 89 85 d0 f4 ff ff 	mov    %rax,-0xb30(%rbp)
    e0d8:	48 8d 85 80 f7 ff ff 	lea    -0x880(%rbp),%rax
    e0df:	48 83 c0 58          	add    $0x58,%rax
    e0e3:	48 89 85 d8 f4 ff ff 	mov    %rax,-0xb28(%rbp)
    e0ea:	48 8d 85 80 f7 ff ff 	lea    -0x880(%rbp),%rax
    e0f1:	48 83 c0 58          	add    $0x58,%rax
    e0f5:	48 89 85 e0 f4 ff ff 	mov    %rax,-0xb20(%rbp)
    e0fc:	48 8d 85 80 f7 ff ff 	lea    -0x880(%rbp),%rax
    e103:	48 83 c0 58          	add    $0x58,%rax
    e107:	48 89 85 e8 f4 ff ff 	mov    %rax,-0xb18(%rbp)
    e10e:	48 8d 85 80 f7 ff ff 	lea    -0x880(%rbp),%rax
    e115:	48 83 c0 58          	add    $0x58,%rax
    e119:	48 89 85 f0 f4 ff ff 	mov    %rax,-0xb10(%rbp)
    e120:	66 c7 85 66 f2 ff ff 	movw   $0xd39b,-0xd9a(%rbp)
    e127:	9b d3 
    e129:	48 c7 85 90 f3 ff ff 	movq   $0x0,-0xc70(%rbp)
    e130:	00 00 00 00 
    e134:	48 8d 05 0d e5 00 00 	lea    0xe50d(%rip),%rax        # 1c648 <g_951+0x68>
    e13b:	48 89 85 00 f6 ff ff 	mov    %rax,-0xa00(%rbp)
    e142:	48 8d 05 ff e4 00 00 	lea    0xe4ff(%rip),%rax        # 1c648 <g_951+0x68>
    e149:	48 89 85 08 f6 ff ff 	mov    %rax,-0x9f8(%rbp)
    e150:	48 8d 05 34 e8 00 00 	lea    0xe834(%rip),%rax        # 1c98b <g_1248+0xb>
    e157:	48 89 85 10 f6 ff ff 	mov    %rax,-0x9f0(%rbp)
    e15e:	48 8d 05 e3 e4 00 00 	lea    0xe4e3(%rip),%rax        # 1c648 <g_951+0x68>
    e165:	48 89 85 18 f6 ff ff 	mov    %rax,-0x9e8(%rbp)
    e16c:	48 8d 05 d5 e4 00 00 	lea    0xe4d5(%rip),%rax        # 1c648 <g_951+0x68>
    e173:	48 89 85 20 f6 ff ff 	mov    %rax,-0x9e0(%rbp)
    e17a:	48 c7 85 28 f6 ff ff 	movq   $0x0,-0x9d8(%rbp)
    e181:	00 00 00 00 
    e185:	48 8d 05 bc e4 00 00 	lea    0xe4bc(%rip),%rax        # 1c648 <g_951+0x68>
    e18c:	48 89 85 30 f6 ff ff 	mov    %rax,-0x9d0(%rbp)
    e193:	48 c7 85 38 f6 ff ff 	movq   $0x0,-0x9c8(%rbp)
    e19a:	00 00 00 00 
    e19e:	48 c7 85 40 f6 ff ff 	movq   $0x0,-0x9c0(%rbp)
    e1a5:	00 00 00 00 
    e1a9:	48 8d 05 98 e4 00 00 	lea    0xe498(%rip),%rax        # 1c648 <g_951+0x68>
    e1b0:	48 89 85 48 f6 ff ff 	mov    %rax,-0x9b8(%rbp)
    e1b7:	48 8d 05 8a e4 00 00 	lea    0xe48a(%rip),%rax        # 1c648 <g_951+0x68>
    e1be:	48 89 85 50 f6 ff ff 	mov    %rax,-0x9b0(%rbp)
    e1c5:	48 c7 85 58 f6 ff ff 	movq   $0x0,-0x9a8(%rbp)
    e1cc:	00 00 00 00 
    e1d0:	48 c7 85 60 f6 ff ff 	movq   $0x0,-0x9a0(%rbp)
    e1d7:	00 00 00 00 
    e1db:	48 8d 05 66 e4 00 00 	lea    0xe466(%rip),%rax        # 1c648 <g_951+0x68>
    e1e2:	48 89 85 68 f6 ff ff 	mov    %rax,-0x998(%rbp)
    e1e9:	48 c7 85 70 f6 ff ff 	movq   $0x0,-0x990(%rbp)
    e1f0:	00 00 00 00 
    e1f4:	48 8d 05 31 22 01 00 	lea    0x12231(%rip),%rax        # 2042c <g_327>
    e1fb:	48 89 85 30 f5 ff ff 	mov    %rax,-0xad0(%rbp)
    e202:	48 8d 05 23 22 01 00 	lea    0x12223(%rip),%rax        # 2042c <g_327>
    e209:	48 89 85 38 f5 ff ff 	mov    %rax,-0xac8(%rbp)
    e210:	48 8d 05 15 22 01 00 	lea    0x12215(%rip),%rax        # 2042c <g_327>
    e217:	48 89 85 40 f5 ff ff 	mov    %rax,-0xac0(%rbp)
    e21e:	48 8d 05 07 22 01 00 	lea    0x12207(%rip),%rax        # 2042c <g_327>
    e225:	48 89 85 48 f5 ff ff 	mov    %rax,-0xab8(%rbp)
    e22c:	48 8d 05 f9 21 01 00 	lea    0x121f9(%rip),%rax        # 2042c <g_327>
    e233:	48 89 85 50 f5 ff ff 	mov    %rax,-0xab0(%rbp)
    e23a:	48 8d 05 eb 21 01 00 	lea    0x121eb(%rip),%rax        # 2042c <g_327>
    e241:	48 89 85 58 f5 ff ff 	mov    %rax,-0xaa8(%rbp)
    e248:	48 8d 05 dd 21 01 00 	lea    0x121dd(%rip),%rax        # 2042c <g_327>
    e24f:	48 89 85 60 f5 ff ff 	mov    %rax,-0xaa0(%rbp)
    e256:	48 8d 05 cf 21 01 00 	lea    0x121cf(%rip),%rax        # 2042c <g_327>
    e25d:	48 89 85 68 f5 ff ff 	mov    %rax,-0xa98(%rbp)
    e264:	48 8d 05 c1 21 01 00 	lea    0x121c1(%rip),%rax        # 2042c <g_327>
    e26b:	48 89 85 70 f5 ff ff 	mov    %rax,-0xa90(%rbp)
    e272:	c6 85 57 f2 ff ff 00 	movb   $0x0,-0xda9(%rbp)
    e279:	48 8d 05 10 10 01 00 	lea    0x11010(%rip),%rax        # 1f290 <g_612>
    e280:	48 89 85 20 f3 ff ff 	mov    %rax,-0xce0(%rbp)
    e287:	48 8d 85 20 f3 ff ff 	lea    -0xce0(%rbp),%rax
    e28e:	48 89 85 98 f3 ff ff 	mov    %rax,-0xc68(%rbp)
    e295:	66 c7 85 5a f2 ff ff 	movw   $0x763,-0xda6(%rbp)
    e29c:	63 07 
    e29e:	c6 85 56 f2 ff ff 01 	movb   $0x1,-0xdaa(%rbp)
    e2a5:	c7 85 7c f2 ff ff 00 	movl   $0x0,-0xd84(%rbp)
    e2ac:	00 00 00 
    e2af:	eb 1e                	jmp    e2cf <func_41+0x137b>
    e2b1:	8b 85 7c f2 ff ff    	mov    -0xd84(%rbp),%eax
    e2b7:	48 98                	cltq   
    e2b9:	48 8d 15 98 e4 00 00 	lea    0xe498(%rip),%rdx        # 1c758 <g_1083+0x78>
    e2c0:	48 89 94 c5 90 f4 ff 	mov    %rdx,-0xb70(%rbp,%rax,8)
    e2c7:	ff 
    e2c8:	83 85 7c f2 ff ff 01 	addl   $0x1,-0xd84(%rbp)
    e2cf:	83 bd 7c f2 ff ff 01 	cmpl   $0x1,-0xd84(%rbp)
    e2d6:	7e d9                	jle    e2b1 <func_41+0x135d>
    e2d8:	48 8b 85 78 f3 ff ff 	mov    -0xc88(%rbp),%rax
    e2df:	0f b6 00             	movzbl (%rax),%eax
    e2e2:	89 c2                	mov    %eax,%edx
    e2e4:	0f b7 85 64 f2 ff ff 	movzwl -0xd9c(%rbp),%eax
    e2eb:	89 c1                	mov    %eax,%ecx
    e2ed:	48 8b 85 48 f2 ff ff 	mov    -0xdb8(%rbp),%rax
    e2f4:	09 c8                	or     %ecx,%eax
    e2f6:	09 d0                	or     %edx,%eax
    e2f8:	89 c2                	mov    %eax,%edx
    e2fa:	48 8b 85 78 f3 ff ff 	mov    -0xc88(%rbp),%rax
    e301:	88 10                	mov    %dl,(%rax)
    e303:	48 8b 85 78 f3 ff ff 	mov    -0xc88(%rbp),%rax
    e30a:	0f b6 00             	movzbl (%rax),%eax
    e30d:	0f be c0             	movsbl %al,%eax
    e310:	89 85 98 f2 ff ff    	mov    %eax,-0xd68(%rbp)
    e316:	48 8d 05 23 14 01 00 	lea    0x11423(%rip),%rax        # 1f740 <g_1287>
    e31d:	48 8b 00             	mov    (%rax),%rax
    e320:	48 8b 85 80 f3 ff ff 	mov    -0xc80(%rbp),%rax
    e327:	48 8b 00             	mov    (%rax),%rax
    e32a:	48 8d 50 ff          	lea    -0x1(%rax),%rdx
    e32e:	48 8b 85 80 f3 ff ff 	mov    -0xc80(%rbp),%rax
    e335:	48 89 10             	mov    %rdx,(%rax)
    e338:	48 8b 85 80 f3 ff ff 	mov    -0xc80(%rbp),%rax
    e33f:	48 8b 08             	mov    (%rax),%rcx
    e342:	48 8b 85 88 f3 ff ff 	mov    -0xc78(%rbp),%rax
    e349:	48 8d 95 f0 f2 ff ff 	lea    -0xd10(%rbp),%rdx
    e350:	48 89 10             	mov    %rdx,(%rax)
    e353:	48 8b 85 88 f3 ff ff 	mov    -0xc78(%rbp),%rax
    e35a:	48 8b 10             	mov    (%rax),%rdx
    e35d:	48 8b 05 dc 22 01 00 	mov    0x122dc(%rip),%rax        # 20640 <g_1285>
    e364:	48 39 c2             	cmp    %rax,%rdx
    e367:	0f 95 c0             	setne  %al
    e36a:	0f b6 c0             	movzbl %al,%eax
    e36d:	48 39 c1             	cmp    %rax,%rcx
    e370:	74 07                	je     e379 <func_41+0x1425>
    e372:	b8 01 00 00 00       	mov    $0x1,%eax
    e377:	eb 05                	jmp    e37e <func_41+0x142a>
    e379:	b8 00 00 00 00       	mov    $0x0,%eax
    e37e:	39 85 98 f2 ff ff    	cmp    %eax,-0xd68(%rbp)
    e384:	0f 9e c0             	setle  %al
    e387:	0f b6 c0             	movzbl %al,%eax
    e38a:	89 05 dc ce 00 00    	mov    %eax,0xcedc(%rip)        # 1b26c <g_8+0x22c>
    e390:	c6 05 df d9 00 00 01 	movb   $0x1,0xd9df(%rip)        # 1bd76 <g_744+0x6>
    e397:	e9 69 0b 00 00       	jmpq   ef05 <func_41+0x1fb1>
    e39c:	66 c7 85 5c f2 ff ff 	movw   $0xeba9,-0xda4(%rbp)
    e3a3:	a9 eb 
    e3a5:	48 8d 05 ec 08 01 00 	lea    0x108ec(%rip),%rax        # 1ec98 <g_135>
    e3ac:	48 89 85 a0 f3 ff ff 	mov    %rax,-0xc60(%rbp)
    e3b3:	48 8d 85 d0 f4 ff ff 	lea    -0xb30(%rbp),%rax
    e3ba:	48 83 c0 20          	add    $0x20,%rax
    e3be:	48 89 85 28 f3 ff ff 	mov    %rax,-0xcd8(%rbp)
    e3c5:	48 8d 85 28 f3 ff ff 	lea    -0xcd8(%rbp),%rax
    e3cc:	48 89 85 40 fd ff ff 	mov    %rax,-0x2c0(%rbp)
    e3d3:	48 8d 85 28 f3 ff ff 	lea    -0xcd8(%rbp),%rax
    e3da:	48 89 85 48 fd ff ff 	mov    %rax,-0x2b8(%rbp)
    e3e1:	48 c7 85 50 fd ff ff 	movq   $0x0,-0x2b0(%rbp)
    e3e8:	00 00 00 00 
    e3ec:	48 8d 85 28 f3 ff ff 	lea    -0xcd8(%rbp),%rax
    e3f3:	48 89 85 58 fd ff ff 	mov    %rax,-0x2a8(%rbp)
    e3fa:	48 8d 85 28 f3 ff ff 	lea    -0xcd8(%rbp),%rax
    e401:	48 89 85 60 fd ff ff 	mov    %rax,-0x2a0(%rbp)
    e408:	48 8d 85 28 f3 ff ff 	lea    -0xcd8(%rbp),%rax
    e40f:	48 89 85 68 fd ff ff 	mov    %rax,-0x298(%rbp)
    e416:	48 8d 85 28 f3 ff ff 	lea    -0xcd8(%rbp),%rax
    e41d:	48 89 85 70 fd ff ff 	mov    %rax,-0x290(%rbp)
    e424:	48 c7 85 78 fd ff ff 	movq   $0x0,-0x288(%rbp)
    e42b:	00 00 00 00 
    e42f:	48 8d 85 28 f3 ff ff 	lea    -0xcd8(%rbp),%rax
    e436:	48 89 85 80 fd ff ff 	mov    %rax,-0x280(%rbp)
    e43d:	48 8d 85 28 f3 ff ff 	lea    -0xcd8(%rbp),%rax
    e444:	48 89 85 88 fd ff ff 	mov    %rax,-0x278(%rbp)
    e44b:	48 8d 85 28 f3 ff ff 	lea    -0xcd8(%rbp),%rax
    e452:	48 89 85 90 fd ff ff 	mov    %rax,-0x270(%rbp)
    e459:	48 8d 85 28 f3 ff ff 	lea    -0xcd8(%rbp),%rax
    e460:	48 89 85 98 fd ff ff 	mov    %rax,-0x268(%rbp)
    e467:	48 c7 85 a0 fd ff ff 	movq   $0x0,-0x260(%rbp)
    e46e:	00 00 00 00 
    e472:	48 8d 85 28 f3 ff ff 	lea    -0xcd8(%rbp),%rax
    e479:	48 89 85 a8 fd ff ff 	mov    %rax,-0x258(%rbp)
    e480:	48 8d 85 28 f3 ff ff 	lea    -0xcd8(%rbp),%rax
    e487:	48 89 85 b0 fd ff ff 	mov    %rax,-0x250(%rbp)
    e48e:	48 8d 85 28 f3 ff ff 	lea    -0xcd8(%rbp),%rax
    e495:	48 89 85 b8 fd ff ff 	mov    %rax,-0x248(%rbp)
    e49c:	48 8d 85 28 f3 ff ff 	lea    -0xcd8(%rbp),%rax
    e4a3:	48 89 85 c0 fd ff ff 	mov    %rax,-0x240(%rbp)
    e4aa:	48 c7 85 c8 fd ff ff 	movq   $0x0,-0x238(%rbp)
    e4b1:	00 00 00 00 
    e4b5:	48 8d 85 28 f3 ff ff 	lea    -0xcd8(%rbp),%rax
    e4bc:	48 89 85 d0 fd ff ff 	mov    %rax,-0x230(%rbp)
    e4c3:	48 8d 85 28 f3 ff ff 	lea    -0xcd8(%rbp),%rax
    e4ca:	48 89 85 d8 fd ff ff 	mov    %rax,-0x228(%rbp)
    e4d1:	48 c7 85 e0 fd ff ff 	movq   $0x0,-0x220(%rbp)
    e4d8:	00 00 00 00 
    e4dc:	48 8d 85 28 f3 ff ff 	lea    -0xcd8(%rbp),%rax
    e4e3:	48 89 85 e8 fd ff ff 	mov    %rax,-0x218(%rbp)
    e4ea:	48 8d 85 28 f3 ff ff 	lea    -0xcd8(%rbp),%rax
    e4f1:	48 89 85 f0 fd ff ff 	mov    %rax,-0x210(%rbp)
    e4f8:	48 8d 85 28 f3 ff ff 	lea    -0xcd8(%rbp),%rax
    e4ff:	48 89 85 f8 fd ff ff 	mov    %rax,-0x208(%rbp)
    e506:	48 8d 85 28 f3 ff ff 	lea    -0xcd8(%rbp),%rax
    e50d:	48 89 85 00 fe ff ff 	mov    %rax,-0x200(%rbp)
    e514:	48 8d 85 28 f3 ff ff 	lea    -0xcd8(%rbp),%rax
    e51b:	48 89 85 08 fe ff ff 	mov    %rax,-0x1f8(%rbp)
    e522:	48 8d 85 28 f3 ff ff 	lea    -0xcd8(%rbp),%rax
    e529:	48 89 85 10 fe ff ff 	mov    %rax,-0x1f0(%rbp)
    e530:	48 8d 85 28 f3 ff ff 	lea    -0xcd8(%rbp),%rax
    e537:	48 89 85 18 fe ff ff 	mov    %rax,-0x1e8(%rbp)
    e53e:	48 8d 85 28 f3 ff ff 	lea    -0xcd8(%rbp),%rax
    e545:	48 89 85 20 fe ff ff 	mov    %rax,-0x1e0(%rbp)
    e54c:	48 8d 85 28 f3 ff ff 	lea    -0xcd8(%rbp),%rax
    e553:	48 89 85 28 fe ff ff 	mov    %rax,-0x1d8(%rbp)
    e55a:	48 8d 85 28 f3 ff ff 	lea    -0xcd8(%rbp),%rax
    e561:	48 89 85 30 fe ff ff 	mov    %rax,-0x1d0(%rbp)
    e568:	48 8d 85 28 f3 ff ff 	lea    -0xcd8(%rbp),%rax
    e56f:	48 89 85 38 fe ff ff 	mov    %rax,-0x1c8(%rbp)
    e576:	48 8d 85 28 f3 ff ff 	lea    -0xcd8(%rbp),%rax
    e57d:	48 89 85 40 fe ff ff 	mov    %rax,-0x1c0(%rbp)
    e584:	48 8d 85 28 f3 ff ff 	lea    -0xcd8(%rbp),%rax
    e58b:	48 89 85 48 fe ff ff 	mov    %rax,-0x1b8(%rbp)
    e592:	48 8d 85 28 f3 ff ff 	lea    -0xcd8(%rbp),%rax
    e599:	48 89 85 50 fe ff ff 	mov    %rax,-0x1b0(%rbp)
    e5a0:	48 8d 85 28 f3 ff ff 	lea    -0xcd8(%rbp),%rax
    e5a7:	48 89 85 58 fe ff ff 	mov    %rax,-0x1a8(%rbp)
    e5ae:	48 8d 85 28 f3 ff ff 	lea    -0xcd8(%rbp),%rax
    e5b5:	48 89 85 60 fe ff ff 	mov    %rax,-0x1a0(%rbp)
    e5bc:	48 8d 85 28 f3 ff ff 	lea    -0xcd8(%rbp),%rax
    e5c3:	48 89 85 68 fe ff ff 	mov    %rax,-0x198(%rbp)
    e5ca:	48 8d 85 28 f3 ff ff 	lea    -0xcd8(%rbp),%rax
    e5d1:	48 89 85 70 fe ff ff 	mov    %rax,-0x190(%rbp)
    e5d8:	48 8d 85 28 f3 ff ff 	lea    -0xcd8(%rbp),%rax
    e5df:	48 89 85 78 fe ff ff 	mov    %rax,-0x188(%rbp)
    e5e6:	48 8d 85 28 f3 ff ff 	lea    -0xcd8(%rbp),%rax
    e5ed:	48 89 85 80 fe ff ff 	mov    %rax,-0x180(%rbp)
    e5f4:	48 8d 85 28 f3 ff ff 	lea    -0xcd8(%rbp),%rax
    e5fb:	48 89 85 88 fe ff ff 	mov    %rax,-0x178(%rbp)
    e602:	48 8d 85 28 f3 ff ff 	lea    -0xcd8(%rbp),%rax
    e609:	48 89 85 90 fe ff ff 	mov    %rax,-0x170(%rbp)
    e610:	48 c7 85 98 fe ff ff 	movq   $0x0,-0x168(%rbp)
    e617:	00 00 00 00 
    e61b:	48 c7 85 a0 fe ff ff 	movq   $0x0,-0x160(%rbp)
    e622:	00 00 00 00 
    e626:	48 8d 85 28 f3 ff ff 	lea    -0xcd8(%rbp),%rax
    e62d:	48 89 85 a8 fe ff ff 	mov    %rax,-0x158(%rbp)
    e634:	48 8d 85 28 f3 ff ff 	lea    -0xcd8(%rbp),%rax
    e63b:	48 89 85 b0 fe ff ff 	mov    %rax,-0x150(%rbp)
    e642:	48 c7 85 b8 fe ff ff 	movq   $0x0,-0x148(%rbp)
    e649:	00 00 00 00 
    e64d:	48 8d 85 28 f3 ff ff 	lea    -0xcd8(%rbp),%rax
    e654:	48 89 85 c0 fe ff ff 	mov    %rax,-0x140(%rbp)
    e65b:	48 8d 85 28 f3 ff ff 	lea    -0xcd8(%rbp),%rax
    e662:	48 89 85 c8 fe ff ff 	mov    %rax,-0x138(%rbp)
    e669:	48 c7 85 d0 fe ff ff 	movq   $0x0,-0x130(%rbp)
    e670:	00 00 00 00 
    e674:	48 c7 85 d8 fe ff ff 	movq   $0x0,-0x128(%rbp)
    e67b:	00 00 00 00 
    e67f:	48 8d 85 28 f3 ff ff 	lea    -0xcd8(%rbp),%rax
    e686:	48 89 85 e0 fe ff ff 	mov    %rax,-0x120(%rbp)
    e68d:	48 8d 85 28 f3 ff ff 	lea    -0xcd8(%rbp),%rax
    e694:	48 89 85 e8 fe ff ff 	mov    %rax,-0x118(%rbp)
    e69b:	48 8d 85 28 f3 ff ff 	lea    -0xcd8(%rbp),%rax
    e6a2:	48 89 85 f0 fe ff ff 	mov    %rax,-0x110(%rbp)
    e6a9:	48 8d 85 28 f3 ff ff 	lea    -0xcd8(%rbp),%rax
    e6b0:	48 89 85 f8 fe ff ff 	mov    %rax,-0x108(%rbp)
    e6b7:	48 8d 85 28 f3 ff ff 	lea    -0xcd8(%rbp),%rax
    e6be:	48 89 85 00 ff ff ff 	mov    %rax,-0x100(%rbp)
    e6c5:	48 8d 85 28 f3 ff ff 	lea    -0xcd8(%rbp),%rax
    e6cc:	48 89 85 08 ff ff ff 	mov    %rax,-0xf8(%rbp)
    e6d3:	48 8d 85 28 f3 ff ff 	lea    -0xcd8(%rbp),%rax
    e6da:	48 89 85 10 ff ff ff 	mov    %rax,-0xf0(%rbp)
    e6e1:	48 8d 85 28 f3 ff ff 	lea    -0xcd8(%rbp),%rax
    e6e8:	48 89 85 18 ff ff ff 	mov    %rax,-0xe8(%rbp)
    e6ef:	48 8d 85 28 f3 ff ff 	lea    -0xcd8(%rbp),%rax
    e6f6:	48 89 85 20 ff ff ff 	mov    %rax,-0xe0(%rbp)
    e6fd:	48 8d 85 28 f3 ff ff 	lea    -0xcd8(%rbp),%rax
    e704:	48 89 85 28 ff ff ff 	mov    %rax,-0xd8(%rbp)
    e70b:	48 8d 85 28 f3 ff ff 	lea    -0xcd8(%rbp),%rax
    e712:	48 89 85 30 ff ff ff 	mov    %rax,-0xd0(%rbp)
    e719:	48 8d 85 28 f3 ff ff 	lea    -0xcd8(%rbp),%rax
    e720:	48 89 85 38 ff ff ff 	mov    %rax,-0xc8(%rbp)
    e727:	48 8d 85 28 f3 ff ff 	lea    -0xcd8(%rbp),%rax
    e72e:	48 89 85 40 ff ff ff 	mov    %rax,-0xc0(%rbp)
    e735:	48 8d 85 28 f3 ff ff 	lea    -0xcd8(%rbp),%rax
    e73c:	48 89 85 48 ff ff ff 	mov    %rax,-0xb8(%rbp)
    e743:	48 8d 85 28 f3 ff ff 	lea    -0xcd8(%rbp),%rax
    e74a:	48 89 85 50 ff ff ff 	mov    %rax,-0xb0(%rbp)
    e751:	48 8d 85 28 f3 ff ff 	lea    -0xcd8(%rbp),%rax
    e758:	48 89 85 58 ff ff ff 	mov    %rax,-0xa8(%rbp)
    e75f:	48 8d 85 28 f3 ff ff 	lea    -0xcd8(%rbp),%rax
    e766:	48 89 85 60 ff ff ff 	mov    %rax,-0xa0(%rbp)
    e76d:	48 8d 85 28 f3 ff ff 	lea    -0xcd8(%rbp),%rax
    e774:	48 89 85 68 ff ff ff 	mov    %rax,-0x98(%rbp)
    e77b:	48 8d 85 28 f3 ff ff 	lea    -0xcd8(%rbp),%rax
    e782:	48 89 85 70 ff ff ff 	mov    %rax,-0x90(%rbp)
    e789:	48 8d 85 28 f3 ff ff 	lea    -0xcd8(%rbp),%rax
    e790:	48 89 85 78 ff ff ff 	mov    %rax,-0x88(%rbp)
    e797:	48 8d 85 28 f3 ff ff 	lea    -0xcd8(%rbp),%rax
    e79e:	48 89 45 80          	mov    %rax,-0x80(%rbp)
    e7a2:	48 8d 85 28 f3 ff ff 	lea    -0xcd8(%rbp),%rax
    e7a9:	48 89 45 88          	mov    %rax,-0x78(%rbp)
    e7ad:	48 c7 45 90 00 00 00 	movq   $0x0,-0x70(%rbp)
    e7b4:	00 
    e7b5:	48 8d 85 28 f3 ff ff 	lea    -0xcd8(%rbp),%rax
    e7bc:	48 89 45 98          	mov    %rax,-0x68(%rbp)
    e7c0:	48 8d 85 28 f3 ff ff 	lea    -0xcd8(%rbp),%rax
    e7c7:	48 89 45 a0          	mov    %rax,-0x60(%rbp)
    e7cb:	48 c7 45 a8 00 00 00 	movq   $0x0,-0x58(%rbp)
    e7d2:	00 
    e7d3:	48 8d 85 28 f3 ff ff 	lea    -0xcd8(%rbp),%rax
    e7da:	48 89 45 b0          	mov    %rax,-0x50(%rbp)
    e7de:	48 8d 85 28 f3 ff ff 	lea    -0xcd8(%rbp),%rax
    e7e5:	48 89 45 b8          	mov    %rax,-0x48(%rbp)
    e7e9:	48 8d 85 28 f3 ff ff 	lea    -0xcd8(%rbp),%rax
    e7f0:	48 89 45 c0          	mov    %rax,-0x40(%rbp)
    e7f4:	48 8d 05 70 d4 00 00 	lea    0xd470(%rip),%rax        # 1bc6b <g_280+0xb>
    e7fb:	48 89 85 a8 f3 ff ff 	mov    %rax,-0xc58(%rbp)
    e802:	48 8d 85 00 f9 ff ff 	lea    -0x700(%rbp),%rax
    e809:	48 8d 15 30 87 00 00 	lea    0x8730(%rip),%rdx        # 16f40 <g_1889+0x750>
    e810:	b9 36 00 00 00       	mov    $0x36,%ecx
    e815:	48 89 c7             	mov    %rax,%rdi
    e818:	48 89 d6             	mov    %rdx,%rsi
    e81b:	f3 48 a5             	rep movsq %ds:(%rsi),%es:(%rdi)
    e81e:	48 8d 05 6b 02 01 00 	lea    0x1026b(%rip),%rax        # 1ea90 <g_107>
    e825:	48 89 85 30 f3 ff ff 	mov    %rax,-0xcd0(%rbp)
    e82c:	48 8d 85 30 f3 ff ff 	lea    -0xcd0(%rbp),%rax
    e833:	48 89 85 b0 f3 ff ff 	mov    %rax,-0xc50(%rbp)
    e83a:	c7 85 80 f2 ff ff 00 	movl   $0x0,-0xd80(%rbp)
    e841:	00 00 00 
    e844:	eb 1e                	jmp    e864 <func_41+0x1910>
    e846:	8b 85 80 f2 ff ff    	mov    -0xd80(%rbp),%eax
    e84c:	48 98                	cltq   
    e84e:	48 8d 15 43 04 01 00 	lea    0x10443(%rip),%rdx        # 1ec98 <g_135>
    e855:	48 89 94 c5 a0 f4 ff 	mov    %rdx,-0xb60(%rbp,%rax,8)
    e85c:	ff 
    e85d:	83 85 80 f2 ff ff 01 	addl   $0x1,-0xd80(%rbp)
    e864:	83 bd 80 f2 ff ff 01 	cmpl   $0x1,-0xd80(%rbp)
    e86b:	7e d9                	jle    e846 <func_41+0x18f2>
    e86d:	c6 05 b2 e0 00 00 00 	movb   $0x0,0xe0b2(%rip)        # 1c926 <g_1114+0x6>
    e874:	e9 df 00 00 00       	jmpq   e958 <func_41+0x1a04>
    e879:	c6 85 58 f2 ff ff 51 	movb   $0x51,-0xda8(%rbp)
    e880:	48 8d 05 71 d5 00 00 	lea    0xd571(%rip),%rax        # 1bdf8 <g_922>
    e887:	48 89 85 f8 f3 ff ff 	mov    %rax,-0xc08(%rbp)
    e88e:	c7 85 bc f2 ff ff 00 	movl   $0x0,-0xd44(%rbp)
    e895:	00 00 00 
    e898:	48 b8 16 f2 04 02 e1 	movabs $0xd9883ae10204f216,%rax
    e89f:	3a 88 d9 
    e8a2:	48 89 85 00 f4 ff ff 	mov    %rax,-0xc00(%rbp)
    e8a9:	48 c7 85 08 f4 ff ff 	movq   $0x0,-0xbf8(%rbp)
    e8b0:	00 00 00 00 
    e8b4:	48 8d 05 c5 08 01 00 	lea    0x108c5(%rip),%rax        # 1f180 <g_613+0x80>
    e8bb:	48 89 85 80 f6 ff ff 	mov    %rax,-0x980(%rbp)
    e8c2:	48 8d 05 b7 08 01 00 	lea    0x108b7(%rip),%rax        # 1f180 <g_613+0x80>
    e8c9:	48 89 85 88 f6 ff ff 	mov    %rax,-0x978(%rbp)
    e8d0:	48 8d 05 a9 08 01 00 	lea    0x108a9(%rip),%rax        # 1f180 <g_613+0x80>
    e8d7:	48 89 85 90 f6 ff ff 	mov    %rax,-0x970(%rbp)
    e8de:	48 8d 05 9b 08 01 00 	lea    0x1089b(%rip),%rax        # 1f180 <g_613+0x80>
    e8e5:	48 89 85 98 f6 ff ff 	mov    %rax,-0x968(%rbp)
    e8ec:	48 8d 05 8d 08 01 00 	lea    0x1088d(%rip),%rax        # 1f180 <g_613+0x80>
    e8f3:	48 89 85 a0 f6 ff ff 	mov    %rax,-0x960(%rbp)
    e8fa:	48 8d 05 7f 08 01 00 	lea    0x1087f(%rip),%rax        # 1f180 <g_613+0x80>
    e901:	48 89 85 a8 f6 ff ff 	mov    %rax,-0x958(%rbp)
    e908:	48 8d 05 71 08 01 00 	lea    0x10871(%rip),%rax        # 1f180 <g_613+0x80>
    e90f:	48 89 85 b0 f6 ff ff 	mov    %rax,-0x950(%rbp)
    e916:	48 8d 05 63 08 01 00 	lea    0x10863(%rip),%rax        # 1f180 <g_613+0x80>
    e91d:	48 89 85 b8 f6 ff ff 	mov    %rax,-0x948(%rbp)
    e924:	48 8d 05 55 08 01 00 	lea    0x10855(%rip),%rax        # 1f180 <g_613+0x80>
    e92b:	48 89 85 c0 f6 ff ff 	mov    %rax,-0x940(%rbp)
    e932:	48 8d 05 47 08 01 00 	lea    0x10847(%rip),%rax        # 1f180 <g_613+0x80>
    e939:	48 89 85 c8 f6 ff ff 	mov    %rax,-0x938(%rbp)
    e940:	66 83 85 5c f2 ff ff 	addw   $0x1,-0xda4(%rbp)
    e947:	01 
    e948:	0f b6 05 d7 df 00 00 	movzbl 0xdfd7(%rip),%eax        # 1c926 <g_1114+0x6>
    e94f:	83 c0 01             	add    $0x1,%eax
    e952:	88 05 ce df 00 00    	mov    %al,0xdfce(%rip)        # 1c926 <g_1114+0x6>
    e958:	0f b6 05 c7 df 00 00 	movzbl 0xdfc7(%rip),%eax        # 1c926 <g_1114+0x6>
    e95f:	3c 09                	cmp    $0x9,%al
    e961:	0f 86 12 ff ff ff    	jbe    e879 <func_41+0x1925>
    e967:	c7 05 43 d4 00 00 00 	movl   $0x0,0xd443(%rip)        # 1bdb4 <g_870>
    e96e:	00 00 00 
    e971:	e9 61 05 00 00       	jmpq   eed7 <func_41+0x1f83>
    e976:	48 c7 85 b8 f3 ff ff 	movq   $0x0,-0xc48(%rbp)
    e97d:	00 00 00 00 
    e981:	48 8d 05 08 01 01 00 	lea    0x10108(%rip),%rax        # 1ea90 <g_107>
    e988:	48 89 85 c0 f3 ff ff 	mov    %rax,-0xc40(%rbp)
    e98f:	c7 85 6c f2 ff ff fe 	movl   $0xfffffffe,-0xd94(%rbp)
    e996:	ff ff ff 
    e999:	c7 85 9c f2 ff ff 01 	movl   $0x1,-0xd64(%rbp)
    e9a0:	00 00 00 
    e9a3:	c7 85 a0 f2 ff ff 00 	movl   $0x0,-0xd60(%rbp)
    e9aa:	00 00 00 
    e9ad:	c7 85 00 f5 ff ff 00 	movl   $0x0,-0xb00(%rbp)
    e9b4:	00 00 00 
    e9b7:	c7 85 04 f5 ff ff 00 	movl   $0x0,-0xafc(%rbp)
    e9be:	00 00 00 
    e9c1:	c7 85 08 f5 ff ff 00 	movl   $0x0,-0xaf8(%rbp)
    e9c8:	00 00 00 
    e9cb:	c7 85 0c f5 ff ff 00 	movl   $0x0,-0xaf4(%rbp)
    e9d2:	00 00 00 
    e9d5:	c7 85 10 f5 ff ff 00 	movl   $0x0,-0xaf0(%rbp)
    e9dc:	00 00 00 
    e9df:	c7 85 14 f5 ff ff 01 	movl   $0x1,-0xaec(%rbp)
    e9e6:	00 00 00 
    e9e9:	c7 85 18 f5 ff ff 01 	movl   $0x1,-0xae8(%rbp)
    e9f0:	00 00 00 
    e9f3:	c7 85 1c f5 ff ff 01 	movl   $0x1,-0xae4(%rbp)
    e9fa:	00 00 00 
    e9fd:	c7 85 20 f5 ff ff 01 	movl   $0x1,-0xae0(%rbp)
    ea04:	00 00 00 
    ea07:	c7 85 24 f5 ff ff 01 	movl   $0x1,-0xadc(%rbp)
    ea0e:	00 00 00 
    ea11:	66 c7 05 ba d2 00 00 	movw   $0x0,0xd2ba(%rip)        # 1bcd4 <g_464>
    ea18:	00 00 
    ea1a:	eb 3e                	jmp    ea5a <func_41+0x1b06>
    ea1c:	48 c7 85 f0 f3 ff ff 	movq   $0x0,-0xc10(%rbp)
    ea23:	00 00 00 00 
    ea27:	48 8b 05 72 02 01 00 	mov    0x10272(%rip),%rax        # 1eca0 <g_134>
    ea2e:	48 8b 95 f0 f3 ff ff 	mov    -0xc10(%rbp),%rdx
    ea35:	48 89 10             	mov    %rdx,(%rax)
    ea38:	48 8b 05 61 02 01 00 	mov    0x10261(%rip),%rax        # 1eca0 <g_134>
    ea3f:	48 8b 95 b8 f3 ff ff 	mov    -0xc48(%rbp),%rdx
    ea46:	48 89 10             	mov    %rdx,(%rax)
    ea49:	0f b7 05 84 d2 00 00 	movzwl 0xd284(%rip),%eax        # 1bcd4 <g_464>
    ea50:	83 c0 01             	add    $0x1,%eax
    ea53:	66 89 05 7a d2 00 00 	mov    %ax,0xd27a(%rip)        # 1bcd4 <g_464>
    ea5a:	0f b7 05 73 d2 00 00 	movzwl 0xd273(%rip),%eax        # 1bcd4 <g_464>
    ea61:	66 85 c0             	test   %ax,%ax
    ea64:	7e b6                	jle    ea1c <func_41+0x1ac8>
    ea66:	48 8b 85 60 f3 ff ff 	mov    -0xca0(%rbp),%rax
    ea6d:	48 8b 00             	mov    (%rax),%rax
    ea70:	48 8b 00             	mov    (%rax),%rax
    ea73:	48 8b 0d b6 e1 00 00 	mov    0xe1b6(%rip),%rcx        # 1cc30 <g_1509>
    ea7a:	48 8b 1d b7 e1 00 00 	mov    0xe1b7(%rip),%rbx        # 1cc38 <g_1509+0x8>
    ea81:	48 89 08             	mov    %rcx,(%rax)
    ea84:	48 89 58 08          	mov    %rbx,0x8(%rax)
    ea88:	0f b7 15 b1 e1 00 00 	movzwl 0xe1b1(%rip),%edx        # 1cc40 <g_1509+0x10>
    ea8f:	66 89 50 10          	mov    %dx,0x10(%rax)
    ea93:	0f b6 15 a8 e1 00 00 	movzbl 0xe1a8(%rip),%edx        # 1cc42 <g_1509+0x12>
    ea9a:	88 50 12             	mov    %dl,0x12(%rax)
    ea9d:	be f8 ff 00 00       	mov    $0xfff8,%esi
    eaa2:	bf 92 a6 00 00       	mov    $0xa692,%edi
    eaa7:	e8 e2 b2 ff ff       	callq  9d8e <safe_div_func_uint16_t_u_u>
    eaac:	66 85 c0             	test   %ax,%ax
    eaaf:	0f 84 e4 01 00 00    	je     ec99 <func_41+0x1d45>
    eab5:	48 8d 05 d4 07 01 00 	lea    0x107d4(%rip),%rax        # 1f290 <g_612>
    eabc:	48 89 85 38 f3 ff ff 	mov    %rax,-0xcc8(%rbp)
    eac3:	48 8d 85 38 f3 ff ff 	lea    -0xcc8(%rbp),%rax
    eaca:	48 89 85 40 f3 ff ff 	mov    %rax,-0xcc0(%rbp)
    ead1:	48 8d 85 40 f3 ff ff 	lea    -0xcc0(%rbp),%rax
    ead8:	48 89 85 c8 f3 ff ff 	mov    %rax,-0xc38(%rbp)
    eadf:	c7 85 a4 f2 ff ff 24 	movl   $0x65730a24,-0xd5c(%rbp)
    eae6:	0a 73 65 
    eae9:	48 c7 85 d0 f3 ff ff 	movq   $0x0,-0xc30(%rbp)
    eaf0:	00 00 00 00 
    eaf4:	48 c7 85 d8 f3 ff ff 	movq   $0x0,-0xc28(%rbp)
    eafb:	00 00 00 00 
    eaff:	0f b7 9d 44 f2 ff ff 	movzwl -0xdbc(%rbp),%ebx
    eb06:	48 8b 85 48 f2 ff ff 	mov    -0xdb8(%rbp),%rax
    eb0d:	44 0f bf e0          	movswl %ax,%r12d
    eb11:	48 8b 05 80 07 01 00 	mov    0x10780(%rip),%rax        # 1f298 <g_694>
    eb18:	44 8b 28             	mov    (%rax),%r13d
    eb1b:	0f b7 05 82 de 00 00 	movzwl 0xde82(%rip),%eax        # 1c9a4 <g_1263+0x4>
    eb22:	44 0f b7 f0          	movzwl %ax,%r14d
    eb26:	48 8b 85 48 f2 ff ff 	mov    -0xdb8(%rbp),%rax
    eb2d:	0f b6 c0             	movzbl %al,%eax
    eb30:	be 03 00 00 00       	mov    $0x3,%esi
    eb35:	89 c7                	mov    %eax,%edi
    eb37:	e8 51 b1 ff ff       	callq  9c8d <safe_rshift_func_uint8_t_u_s>
    eb3c:	0f b6 c0             	movzbl %al,%eax
    eb3f:	44 89 f6             	mov    %r14d,%esi
    eb42:	89 c7                	mov    %eax,%edi
    eb44:	e8 d6 b1 ff ff       	callq  9d1f <safe_sub_func_uint16_t_u_u>
    eb49:	0f b7 c0             	movzwl %ax,%eax
    eb4c:	44 89 ee             	mov    %r13d,%esi
    eb4f:	89 c7                	mov    %eax,%edi
    eb51:	e8 76 ab ff ff       	callq  96cc <safe_mod_func_int32_t_s_s>
    eb56:	48 98                	cltq   
    eb58:	48 39 85 48 f2 ff ff 	cmp    %rax,-0xdb8(%rbp)
    eb5f:	0f 92 c0             	setb   %al
    eb62:	0f b6 c0             	movzbl %al,%eax
    eb65:	be 01 00 00 00       	mov    $0x1,%esi
    eb6a:	89 c7                	mov    %eax,%edi
    eb6c:	e8 cc b1 ff ff       	callq  9d3d <safe_mul_func_uint16_t_u_u>
    eb71:	48 8d 05 18 ff 00 00 	lea    0xff18(%rip),%rax        # 1ea90 <g_107>
    eb78:	48 39 85 c0 f3 ff ff 	cmp    %rax,-0xc40(%rbp)
    eb7f:	be f5 e3 ff ff       	mov    $0xffffe3f5,%esi
    eb84:	bf 01 00 00 00       	mov    $0x1,%edi
    eb89:	e8 c7 a8 ff ff       	callq  9455 <safe_div_func_int16_t_s_s>
    eb8e:	98                   	cwtl   
    eb8f:	44 89 e6             	mov    %r12d,%esi
    eb92:	89 c7                	mov    %eax,%edi
    eb94:	e8 7d a8 ff ff       	callq  9416 <safe_mod_func_int16_t_s_s>
    eb99:	8b 85 a4 f2 ff ff    	mov    -0xd5c(%rbp),%eax
    eb9f:	48 98                	cltq   
    eba1:	48 39 85 48 f2 ff ff 	cmp    %rax,-0xdb8(%rbp)
    eba8:	74 11                	je     ebbb <func_41+0x1c67>
    ebaa:	66 83 bd 44 f2 ff ff 	cmpw   $0x0,-0xdbc(%rbp)
    ebb1:	00 
    ebb2:	74 07                	je     ebbb <func_41+0x1c67>
    ebb4:	ba 01 00 00 00       	mov    $0x1,%edx
    ebb9:	eb 05                	jmp    ebc0 <func_41+0x1c6c>
    ebbb:	ba 00 00 00 00       	mov    $0x0,%edx
    ebc0:	0f b7 05 fd d1 00 00 	movzwl 0xd1fd(%rip),%eax        # 1bdc4 <g_896+0x4>
    ebc7:	89 c1                	mov    %eax,%ecx
    ebc9:	89 d0                	mov    %edx,%eax
    ebcb:	09 c8                	or     %ecx,%eax
    ebcd:	66 89 05 f0 d1 00 00 	mov    %ax,0xd1f0(%rip)        # 1bdc4 <g_896+0x4>
    ebd4:	0f b7 05 e9 d1 00 00 	movzwl 0xd1e9(%rip),%eax        # 1bdc4 <g_896+0x4>
    ebdb:	0f b7 c0             	movzwl %ax,%eax
    ebde:	89 de                	mov    %ebx,%esi
    ebe0:	89 c7                	mov    %eax,%edi
    ebe2:	e8 61 b2 ff ff       	callq  9e48 <safe_rshift_func_uint16_t_u_s>
    ebe7:	0f b7 c0             	movzwl %ax,%eax
    ebea:	89 c6                	mov    %eax,%esi
    ebec:	bf ff ff 00 00       	mov    $0xffff,%edi
    ebf1:	e8 52 b2 ff ff       	callq  9e48 <safe_rshift_func_uint16_t_u_s>
    ebf6:	66 3d 0f 1a          	cmp    $0x1a0f,%ax
    ebfa:	0f 96 c0             	setbe  %al
    ebfd:	0f b6 c0             	movzbl %al,%eax
    ec00:	48 8b 95 48 f2 ff ff 	mov    -0xdb8(%rbp),%rdx
    ec07:	31 d0                	xor    %edx,%eax
    ec09:	66 0b 85 44 f2 ff ff 	or     -0xdbc(%rbp),%ax
    ec10:	0f bf d8             	movswl %ax,%ebx
    ec13:	48 8b 95 40 f3 ff ff 	mov    -0xcc0(%rbp),%rdx
    ec1a:	48 8b 85 c8 f3 ff ff 	mov    -0xc38(%rbp),%rax
    ec21:	48 89 10             	mov    %rdx,(%rax)
    ec24:	48 8b 85 c8 f3 ff ff 	mov    -0xc38(%rbp),%rax
    ec2b:	48 8b 00             	mov    (%rax),%rax
    ec2e:	48 39 85 98 f3 ff ff 	cmp    %rax,-0xc68(%rbp)
    ec35:	75 18                	jne    ec4f <func_41+0x1cfb>
    ec37:	8b 05 13 d1 00 00    	mov    0xd113(%rip),%eax        # 1bd50 <g_711>
    ec3d:	98                   	cwtl   
    ec3e:	be 06 00 00 00       	mov    $0x6,%esi
    ec43:	89 c7                	mov    %eax,%edi
    ec45:	e8 e0 a8 ff ff       	callq  952a <safe_rshift_func_int16_t_s_s>
    ec4a:	66 85 c0             	test   %ax,%ax
    ec4d:	74 07                	je     ec56 <func_41+0x1d02>
    ec4f:	b8 01 00 00 00       	mov    $0x1,%eax
    ec54:	eb 05                	jmp    ec5b <func_41+0x1d07>
    ec56:	b8 00 00 00 00       	mov    $0x0,%eax
    ec5b:	98                   	cwtl   
    ec5c:	89 de                	mov    %ebx,%esi
    ec5e:	89 c7                	mov    %eax,%edi
    ec60:	e8 f0 a7 ff ff       	callq  9455 <safe_div_func_int16_t_s_s>
    ec65:	98                   	cwtl   
    ec66:	89 85 6c f2 ff ff    	mov    %eax,-0xd94(%rbp)
    ec6c:	c7 85 84 f2 ff ff 00 	movl   $0x0,-0xd7c(%rbp)
    ec73:	00 00 00 
    ec76:	eb 16                	jmp    ec8e <func_41+0x1d3a>
    ec78:	66 83 ad 5a f2 ff ff 	subw   $0x1,-0xda6(%rbp)
    ec7f:	01 
    ec80:	83 bd a4 f2 ff ff 00 	cmpl   $0x0,-0xd5c(%rbp)
    ec87:	83 ad 84 f2 ff ff 01 	subl   $0x1,-0xd7c(%rbp)
    ec8e:	83 bd 84 f2 ff ff 00 	cmpl   $0x0,-0xd7c(%rbp)
    ec95:	79 e1                	jns    ec78 <func_41+0x1d24>
    ec97:	eb 4a                	jmp    ece3 <func_41+0x1d8f>
    ec99:	48 c7 05 b7 df 00 00 	movq   $0x0,0xdfb7(%rip)        # 1cc5b <g_1510+0xb>
    eca0:	00 00 00 00 
    eca4:	eb 23                	jmp    ecc9 <func_41+0x1d75>
    eca6:	48 8d 15 cb ff 00 00 	lea    0xffcb(%rip),%rdx        # 1ec78 <g_133+0x1d8>
    ecad:	48 8d 85 6c f2 ff ff 	lea    -0xd94(%rbp),%rax
    ecb4:	48 89 02             	mov    %rax,(%rdx)
    ecb7:	48 8b 05 9d df 00 00 	mov    0xdf9d(%rip),%rax        # 1cc5b <g_1510+0xb>
    ecbe:	48 83 c0 01          	add    $0x1,%rax
    ecc2:	48 89 05 92 df 00 00 	mov    %rax,0xdf92(%rip)        # 1cc5b <g_1510+0xb>
    ecc9:	48 8b 05 8b df 00 00 	mov    0xdf8b(%rip),%rax        # 1cc5b <g_1510+0xb>
    ecd0:	48 85 c0             	test   %rax,%rax
    ecd3:	7e d1                	jle    eca6 <func_41+0x1d52>
    ecd5:	48 83 bd 48 f2 ff ff 	cmpq   $0x0,-0xdb8(%rbp)
    ecdc:	00 
    ecdd:	0f 85 e1 01 00 00    	jne    eec4 <func_41+0x1f70>
    ece3:	c7 05 93 dc 00 00 00 	movl   $0x0,0xdc93(%rip)        # 1c980 <g_1248>
    ecea:	00 00 00 
    eced:	e9 c1 01 00 00       	jmpq   eeb3 <func_41+0x1f5f>
    ecf2:	c7 85 a8 f2 ff ff 00 	movl   $0x0,-0xd58(%rbp)
    ecf9:	00 00 00 
    ecfc:	48 8d 85 80 f6 ff ff 	lea    -0x980(%rbp),%rax
    ed03:	48 8d 15 f6 83 00 00 	lea    0x83f6(%rip),%rdx        # 17100 <g_1889+0x910>
    ed0a:	b9 1f 00 00 00       	mov    $0x1f,%ecx
    ed0f:	48 89 c7             	mov    %rax,%rdi
    ed12:	48 89 d6             	mov    %rdx,%rsi
    ed15:	f3 48 a5             	rep movsq %ds:(%rsi),%es:(%rdi)
    ed18:	48 89 f2             	mov    %rsi,%rdx
    ed1b:	48 89 f8             	mov    %rdi,%rax
    ed1e:	8b 0a                	mov    (%rdx),%ecx
    ed20:	89 08                	mov    %ecx,(%rax)
    ed22:	c7 85 ac f2 ff ff 29 	movl   $0x7e556229,-0xd54(%rbp)
    ed29:	62 55 7e 
    ed2c:	83 ad a8 f2 ff ff 01 	subl   $0x1,-0xd58(%rbp)
    ed33:	66 c7 05 ec 16 01 00 	movw   $0x0,0x116ec(%rip)        # 20428 <g_161>
    ed3a:	00 00 
    ed3c:	e9 12 01 00 00       	jmpq   ee53 <func_41+0x1eff>
    ed41:	48 8d 85 80 f5 ff ff 	lea    -0xa80(%rbp),%rax
    ed48:	48 83 c0 38          	add    $0x38,%rax
    ed4c:	48 89 85 e0 f3 ff ff 	mov    %rax,-0xc20(%rbp)
    ed53:	c7 85 b0 f2 ff ff 01 	movl   $0x1,-0xd50(%rbp)
    ed5a:	00 00 00 
    ed5d:	c7 85 b4 f2 ff ff ff 	movl   $0xffffffff,-0xd4c(%rbp)
    ed64:	ff ff ff 
    ed67:	c7 85 b8 f2 ff ff 9b 	movl   $0x6b0e4d9b,-0xd48(%rbp)
    ed6e:	4d 0e 6b 
    ed71:	66 c7 85 68 f2 ff ff 	movw   $0xdfef,-0xd98(%rbp)
    ed78:	ef df 
    ed7a:	48 c7 85 e8 f3 ff ff 	movq   $0x1,-0xc18(%rbp)
    ed81:	01 00 00 00 
    ed85:	48 8b 95 b8 f5 ff ff 	mov    -0xa48(%rbp),%rdx
    ed8c:	48 8b 85 e0 f3 ff ff 	mov    -0xc20(%rbp),%rax
    ed93:	48 89 10             	mov    %rdx,(%rax)
    ed96:	0f b7 85 44 f2 ff ff 	movzwl -0xdbc(%rbp),%eax
    ed9d:	0f b6 d8             	movzbl %al,%ebx
    eda0:	c7 05 12 ce 00 00 00 	movl   $0x0,0xce12(%rip)        # 1bbbc <g_95+0x1c>
    eda7:	00 00 00 
    edaa:	b8 00 00 00 00       	mov    $0x0,%eax
    edaf:	0f b7 c0             	movzwl %ax,%eax
    edb2:	be 3b 5a 00 00       	mov    $0x5a3b,%esi
    edb7:	89 c7                	mov    %eax,%edi
    edb9:	e8 41 af ff ff       	callq  9cff <safe_add_func_uint16_t_u_u>
    edbe:	0f b6 c0             	movzbl %al,%eax
    edc1:	89 de                	mov    %ebx,%esi
    edc3:	89 c7                	mov    %eax,%edi
    edc5:	e8 11 ae ff ff       	callq  9bdb <safe_div_func_uint8_t_u_u>
    edca:	0f b6 c0             	movzbl %al,%eax
    edcd:	48 09 85 e8 f3 ff ff 	or     %rax,-0xc18(%rbp)
    edd4:	8b 85 a8 f2 ff ff    	mov    -0xd58(%rbp),%eax
    edda:	48 33 85 e8 f3 ff ff 	xor    -0xc18(%rbp),%rax
    ede1:	48 8d 15 60 d8 00 00 	lea    0xd860(%rip),%rdx        # 1c648 <g_951+0x68>
    ede8:	48 8b 12             	mov    (%rdx),%rdx
    edeb:	48 39 d0             	cmp    %rdx,%rax
    edee:	0f 95 c0             	setne  %al
    edf1:	0f b6 c0             	movzbl %al,%eax
    edf4:	48 8b 95 48 f2 ff ff 	mov    -0xdb8(%rbp),%rdx
    edfb:	48 f7 d2             	not    %rdx
    edfe:	48 21 c2             	and    %rax,%rdx
    ee01:	8b 05 65 c4 00 00    	mov    0xc465(%rip),%eax        # 1b26c <g_8+0x22c>
    ee07:	89 c1                	mov    %eax,%ecx
    ee09:	89 d0                	mov    %edx,%eax
    ee0b:	09 c8                	or     %ecx,%eax
    ee0d:	89 05 59 c4 00 00    	mov    %eax,0xc459(%rip)        # 1b26c <g_8+0x22c>
    ee13:	48 8b 85 60 f3 ff ff 	mov    -0xca0(%rbp),%rax
    ee1a:	48 8b 10             	mov    (%rax),%rdx
    ee1d:	48 8b 05 8c 04 01 00 	mov    0x1048c(%rip),%rax        # 1f2b0 <g_733>
    ee24:	48 8b 12             	mov    (%rdx),%rdx
    ee27:	48 89 10             	mov    %rdx,(%rax)
    ee2a:	be 0e 00 00 00       	mov    $0xe,%esi
    ee2f:	bf 01 00 00 00       	mov    $0x1,%edi
    ee34:	e8 0f b0 ff ff       	callq  9e48 <safe_rshift_func_uint16_t_u_s>
    ee39:	0f b7 c0             	movzwl %ax,%eax
    ee3c:	89 05 2a c4 00 00    	mov    %eax,0xc42a(%rip)        # 1b26c <g_8+0x22c>
    ee42:	0f b7 05 df 15 01 00 	movzwl 0x115df(%rip),%eax        # 20428 <g_161>
    ee49:	83 c0 01             	add    $0x1,%eax
    ee4c:	66 89 05 d5 15 01 00 	mov    %ax,0x115d5(%rip)        # 20428 <g_161>
    ee53:	0f b7 05 ce 15 01 00 	movzwl 0x115ce(%rip),%eax        # 20428 <g_161>
    ee5a:	66 85 c0             	test   %ax,%ax
    ee5d:	0f 84 de fe ff ff    	je     ed41 <func_41+0x1ded>
    ee63:	66 83 bd 44 f2 ff ff 	cmpw   $0x0,-0xdbc(%rbp)
    ee6a:	00 
    ee6b:	75 5a                	jne    eec7 <func_41+0x1f73>
    ee6d:	48 8b 85 60 f3 ff ff 	mov    -0xca0(%rbp),%rax
    ee74:	48 8b 00             	mov    (%rax),%rax
    ee77:	48 8b 00             	mov    (%rax),%rax
    ee7a:	48 8b 0d ef dd 00 00 	mov    0xddef(%rip),%rcx        # 1cc70 <g_1588>
    ee81:	48 8b 1d f0 dd 00 00 	mov    0xddf0(%rip),%rbx        # 1cc78 <g_1588+0x8>
    ee88:	48 89 08             	mov    %rcx,(%rax)
    ee8b:	48 89 58 08          	mov    %rbx,0x8(%rax)
    ee8f:	0f b7 15 ea dd 00 00 	movzwl 0xddea(%rip),%edx        # 1cc80 <g_1588+0x10>
    ee96:	66 89 50 10          	mov    %dx,0x10(%rax)
    ee9a:	0f b6 15 e1 dd 00 00 	movzbl 0xdde1(%rip),%edx        # 1cc82 <g_1588+0x12>
    eea1:	88 50 12             	mov    %dl,0x12(%rax)
    eea4:	8b 05 d6 da 00 00    	mov    0xdad6(%rip),%eax        # 1c980 <g_1248>
    eeaa:	83 c0 01             	add    $0x1,%eax
    eead:	89 05 cd da 00 00    	mov    %eax,0xdacd(%rip)        # 1c980 <g_1248>
    eeb3:	8b 05 c7 da 00 00    	mov    0xdac7(%rip),%eax        # 1c980 <g_1248>
    eeb9:	83 f8 01             	cmp    $0x1,%eax
    eebc:	0f 86 30 fe ff ff    	jbe    ecf2 <func_41+0x1d9e>
    eec2:	eb 04                	jmp    eec8 <func_41+0x1f74>
    eec4:	90                   	nop
    eec5:	eb 01                	jmp    eec8 <func_41+0x1f74>
    eec7:	90                   	nop
    eec8:	8b 05 e6 ce 00 00    	mov    0xcee6(%rip),%eax        # 1bdb4 <g_870>
    eece:	83 c0 01             	add    $0x1,%eax
    eed1:	89 05 dd ce 00 00    	mov    %eax,0xcedd(%rip)        # 1bdb4 <g_870>
    eed7:	8b 05 d7 ce 00 00    	mov    0xced7(%rip),%eax        # 1bdb4 <g_870>
    eedd:	85 c0                	test   %eax,%eax
    eedf:	0f 84 91 fa ff ff    	je     e976 <func_41+0x1a22>
    eee5:	0f b6 85 56 f2 ff ff 	movzbl -0xdaa(%rbp),%eax
    eeec:	83 c0 01             	add    $0x1,%eax
    eeef:	88 85 56 f2 ff ff    	mov    %al,-0xdaa(%rbp)
    eef5:	0f b6 05 7a ce 00 00 	movzbl 0xce7a(%rip),%eax        # 1bd76 <g_744+0x6>
    eefc:	83 c0 01             	add    $0x1,%eax
    eeff:	88 05 71 ce 00 00    	mov    %al,0xce71(%rip)        # 1bd76 <g_744+0x6>
    ef05:	0f b6 05 6a ce 00 00 	movzbl 0xce6a(%rip),%eax        # 1bd76 <g_744+0x6>
    ef0c:	3c 09                	cmp    $0x9,%al
    ef0e:	0f 86 88 f4 ff ff    	jbe    e39c <func_41+0x1448>
    ef14:	0f b7 85 44 f2 ff ff 	movzwl -0xdbc(%rbp),%eax
    ef1b:	48 8b 5d c8          	mov    -0x38(%rbp),%rbx
    ef1f:	64 48 33 1c 25 28 00 	xor    %fs:0x28,%rbx
    ef26:	00 00 
    ef28:	74 05                	je     ef2f <func_41+0x1fdb>
    ef2a:	e8 41 a1 ff ff       	callq  9070 <__stack_chk_fail@plt>
    ef2f:	48 81 c4 a8 0d 00 00 	add    $0xda8,%rsp
    ef36:	5b                   	pop    %rbx
    ef37:	41 5c                	pop    %r12
    ef39:	41 5d                	pop    %r13
    ef3b:	41 5e                	pop    %r14
    ef3d:	41 5f                	pop    %r15
    ef3f:	5d                   	pop    %rbp
    ef40:	c3                   	retq   

000000000000ef41 <func_45>:
    ef41:	f3 0f 1e fa          	endbr64 
    ef45:	55                   	push   %rbp
    ef46:	48 89 e5             	mov    %rsp,%rbp
    ef49:	48 81 ec 70 02 00 00 	sub    $0x270,%rsp
    ef50:	89 f8                	mov    %edi,%eax
    ef52:	48 89 b5 a0 fd ff ff 	mov    %rsi,-0x260(%rbp)
    ef59:	48 89 95 98 fd ff ff 	mov    %rdx,-0x268(%rbp)
    ef60:	66 89 85 ac fd ff ff 	mov    %ax,-0x254(%rbp)
    ef67:	64 48 8b 04 25 28 00 	mov    %fs:0x28,%rax
    ef6e:	00 00 
    ef70:	48 89 45 f8          	mov    %rax,-0x8(%rbp)
    ef74:	31 c0                	xor    %eax,%eax
    ef76:	66 c7 85 ba fd ff ff 	movw   $0x86a,-0x246(%rbp)
    ef7d:	6a 08 
    ef7f:	c6 85 b7 fd ff ff 3e 	movb   $0x3e,-0x249(%rbp)
    ef86:	c7 85 c4 fd ff ff fc 	movl   $0xfffffffc,-0x23c(%rbp)
    ef8d:	ff ff ff 
    ef90:	c7 85 bc fd ff ff 16 	movl   $0xb77c9c16,-0x244(%rbp)
    ef97:	9c 7c b7 
    ef9a:	48 8d 85 bc fd ff ff 	lea    -0x244(%rbp),%rax
    efa1:	48 89 85 c8 fd ff ff 	mov    %rax,-0x238(%rbp)
    efa8:	48 8d 85 f0 fd ff ff 	lea    -0x210(%rbp),%rax
    efaf:	48 8d 15 4a 82 00 00 	lea    0x824a(%rip),%rdx        # 17200 <g_1889+0xa10>
    efb6:	b9 40 00 00 00       	mov    $0x40,%ecx
    efbb:	48 89 c7             	mov    %rax,%rdi
    efbe:	48 89 d6             	mov    %rdx,%rsi
    efc1:	f3 48 a5             	rep movsq %ds:(%rsi),%es:(%rdi)
    efc4:	66 c7 85 b8 fd ff ff 	movw   $0x9551,-0x248(%rbp)
    efcb:	51 95 
    efcd:	c7 85 c0 fd ff ff 00 	movl   $0x0,-0x240(%rbp)
    efd4:	00 00 00 
    efd7:	eb 1e                	jmp    eff7 <func_45+0xb6>
    efd9:	8b 85 c0 fd ff ff    	mov    -0x240(%rbp),%eax
    efdf:	48 98                	cltq   
    efe1:	48 8d 15 10 ce 00 00 	lea    0xce10(%rip),%rdx        # 1bdf8 <g_922>
    efe8:	48 89 94 c5 d0 fd ff 	mov    %rdx,-0x230(%rbp,%rax,8)
    efef:	ff 
    eff0:	83 85 c0 fd ff ff 01 	addl   $0x1,-0x240(%rbp)
    eff7:	83 bd c0 fd ff ff 02 	cmpl   $0x2,-0x240(%rbp)
    effe:	7e d9                	jle    efd9 <func_45+0x98>
    f000:	90                   	nop
    f001:	0f b7 85 ba fd ff ff 	movzwl -0x246(%rbp),%eax
    f008:	08 85 b7 fd ff ff    	or     %al,-0x249(%rbp)
    f00e:	0f b7 85 b8 fd ff ff 	movzwl -0x248(%rbp),%eax
    f015:	83 c0 01             	add    $0x1,%eax
    f018:	66 89 85 b8 fd ff ff 	mov    %ax,-0x248(%rbp)
    f01f:	66 83 bd b8 fd ff ff 	cmpw   $0x0,-0x248(%rbp)
    f026:	00 
    f027:	74 02                	je     f02b <func_45+0xea>
    f029:	eb d6                	jmp    f001 <func_45+0xc0>
    f02b:	48 8b 85 98 fd ff ff 	mov    -0x268(%rbp),%rax
    f032:	48 8b 00             	mov    (%rax),%rax
    f035:	8b 00                	mov    (%rax),%eax
    f037:	48 8b 4d f8          	mov    -0x8(%rbp),%rcx
    f03b:	64 48 33 0c 25 28 00 	xor    %fs:0x28,%rcx
    f042:	00 00 
    f044:	74 05                	je     f04b <func_45+0x10a>
    f046:	e8 25 a0 ff ff       	callq  9070 <__stack_chk_fail@plt>
    f04b:	c9                   	leaveq 
    f04c:	c3                   	retq   

000000000000f04d <func_50>:
    f04d:	f3 0f 1e fa          	endbr64 
    f051:	55                   	push   %rbp
    f052:	48 89 e5             	mov    %rsp,%rbp
    f055:	41 57                	push   %r15
    f057:	41 56                	push   %r14
    f059:	41 55                	push   %r13
    f05b:	41 54                	push   %r12
    f05d:	53                   	push   %rbx
    f05e:	48 81 ec 00 10 00 00 	sub    $0x1000,%rsp
    f065:	48 83 0c 24 00       	orq    $0x0,(%rsp)
    f06a:	48 81 ec 68 07 00 00 	sub    $0x768,%rsp
    f071:	48 89 bd 88 e8 ff ff 	mov    %rdi,-0x1778(%rbp)
    f078:	48 89 b5 80 e8 ff ff 	mov    %rsi,-0x1780(%rbp)
    f07f:	89 d0                	mov    %edx,%eax
    f081:	66 89 85 7c e8 ff ff 	mov    %ax,-0x1784(%rbp)
    f088:	64 48 8b 04 25 28 00 	mov    %fs:0x28,%rax
    f08f:	00 00 
    f091:	48 89 45 c8          	mov    %rax,-0x38(%rbp)
    f095:	31 c0                	xor    %eax,%eax
    f097:	c7 85 40 e9 ff ff ca 	movl   $0xc160eaca,-0x16c0(%rbp)
    f09e:	ea 60 c1 
    f0a1:	c7 85 a0 e8 ff ff 34 	movl   $0x348b0f34,-0x1760(%rbp)
    f0a8:	0f 8b 34 
    f0ab:	48 8d 05 ae cb 00 00 	lea    0xcbae(%rip),%rax        # 1bc60 <g_280>
    f0b2:	48 89 85 60 e9 ff ff 	mov    %rax,-0x16a0(%rbp)
    f0b9:	66 c7 85 f0 ea ff ff 	movw   $0xa4a4,-0x1510(%rbp)
    f0c0:	a4 a4 
    f0c2:	66 c7 85 f2 ea ff ff 	movw   $0xa4a4,-0x150e(%rbp)
    f0c9:	a4 a4 
    f0cb:	66 c7 85 f4 ea ff ff 	movw   $0xa4a4,-0x150c(%rbp)
    f0d2:	a4 a4 
    f0d4:	66 c7 85 f6 ea ff ff 	movw   $0xa4a4,-0x150a(%rbp)
    f0db:	a4 a4 
    f0dd:	66 c7 85 f8 ea ff ff 	movw   $0xa4a4,-0x1508(%rbp)
    f0e4:	a4 a4 
    f0e6:	66 c7 85 fa ea ff ff 	movw   $0xa4a4,-0x1506(%rbp)
    f0ed:	a4 a4 
    f0ef:	66 c7 85 fc ea ff ff 	movw   $0xa4a4,-0x1504(%rbp)
    f0f6:	a4 a4 
    f0f8:	66 c7 85 fe ea ff ff 	movw   $0xa4a4,-0x1502(%rbp)
    f0ff:	a4 a4 
    f101:	48 c7 85 78 ea ff ff 	movq   $0x0,-0x1588(%rbp)
    f108:	00 00 00 00 
    f10c:	48 c7 85 80 ea ff ff 	movq   $0x0,-0x1580(%rbp)
    f113:	00 00 00 00 
    f117:	48 c7 85 68 e9 ff ff 	movq   $0x0,-0x1698(%rbp)
    f11e:	00 00 00 00 
    f122:	48 8d 85 68 e9 ff ff 	lea    -0x1698(%rbp),%rax
    f129:	48 89 85 70 e9 ff ff 	mov    %rax,-0x1690(%rbp)
    f130:	48 8d 85 70 e9 ff ff 	lea    -0x1690(%rbp),%rax
    f137:	48 89 85 68 ea ff ff 	mov    %rax,-0x1598(%rbp)
    f13e:	48 8d 05 c3 cf 00 00 	lea    0xcfc3(%rip),%rax        # 1c108 <g_948+0x2a8>
    f145:	48 89 85 78 e9 ff ff 	mov    %rax,-0x1688(%rbp)
    f14c:	48 8d 85 78 e9 ff ff 	lea    -0x1688(%rbp),%rax
    f153:	48 89 85 80 e9 ff ff 	mov    %rax,-0x1680(%rbp)
    f15a:	48 8d 85 80 e9 ff ff 	lea    -0x1680(%rbp),%rax
    f161:	48 89 85 50 eb ff ff 	mov    %rax,-0x14b0(%rbp)
    f168:	48 8d 85 80 e9 ff ff 	lea    -0x1680(%rbp),%rax
    f16f:	48 89 85 58 eb ff ff 	mov    %rax,-0x14a8(%rbp)
    f176:	48 8d 85 80 e9 ff ff 	lea    -0x1680(%rbp),%rax
    f17d:	48 89 85 60 eb ff ff 	mov    %rax,-0x14a0(%rbp)
    f184:	48 8d 85 80 e9 ff ff 	lea    -0x1680(%rbp),%rax
    f18b:	48 89 85 68 eb ff ff 	mov    %rax,-0x1498(%rbp)
    f192:	48 8d 85 80 e9 ff ff 	lea    -0x1680(%rbp),%rax
    f199:	48 89 85 70 eb ff ff 	mov    %rax,-0x1490(%rbp)
    f1a0:	48 8d 85 80 e9 ff ff 	lea    -0x1680(%rbp),%rax
    f1a7:	48 89 85 78 eb ff ff 	mov    %rax,-0x1488(%rbp)
    f1ae:	48 8d 85 80 e9 ff ff 	lea    -0x1680(%rbp),%rax
    f1b5:	48 89 85 80 eb ff ff 	mov    %rax,-0x1480(%rbp)
    f1bc:	48 8d 85 50 f4 ff ff 	lea    -0xbb0(%rbp),%rax
    f1c3:	48 8d 15 36 82 00 00 	lea    0x8236(%rip),%rdx        # 17400 <g_1889+0xc10>
    f1ca:	b9 7a 00 00 00       	mov    $0x7a,%ecx
    f1cf:	48 89 c7             	mov    %rax,%rdi
    f1d2:	48 89 d6             	mov    %rdx,%rsi
    f1d5:	f3 48 a5             	rep movsq %ds:(%rsi),%es:(%rdi)
    f1d8:	48 89 f2             	mov    %rsi,%rdx
    f1db:	48 89 f8             	mov    %rdi,%rax
    f1de:	8b 0a                	mov    (%rdx),%ecx
    f1e0:	89 08                	mov    %ecx,(%rax)
    f1e2:	48 c7 85 00 ea ff ff 	movq   $0x0,-0x1600(%rbp)
    f1e9:	00 00 00 00 
    f1ed:	66 c7 85 9c e8 ff ff 	movw   $0xc5e3,-0x1764(%rbp)
    f1f4:	e3 c5 
    f1f6:	c7 85 38 e9 ff ff bc 	movl   $0x360aa6bc,-0x16c8(%rbp)
    f1fd:	a6 0a 36 
    f200:	66 c7 85 9e e8 ff ff 	movw   $0x0,-0x1762(%rbp)
    f207:	00 00 
    f209:	c7 85 3c e9 ff ff ff 	movl   $0xffffffff,-0x16c4(%rbp)
    f210:	ff ff ff 
    f213:	48 8d 05 0c d7 00 00 	lea    0xd70c(%rip),%rax        # 1c926 <g_1114+0x6>
    f21a:	48 89 85 70 ea ff ff 	mov    %rax,-0x1590(%rbp)
    f221:	48 8d 05 18 12 01 00 	lea    0x11218(%rip),%rax        # 20440 <g_550>
    f228:	48 89 85 90 eb ff ff 	mov    %rax,-0x1470(%rbp)
    f22f:	48 8d 05 ca c1 00 00 	lea    0xc1ca(%rip),%rax        # 1b400 <g_33>
    f236:	48 89 85 98 eb ff ff 	mov    %rax,-0x1468(%rbp)
    f23d:	48 8d 05 bc c1 00 00 	lea    0xc1bc(%rip),%rax        # 1b400 <g_33>
    f244:	48 89 85 a0 eb ff ff 	mov    %rax,-0x1460(%rbp)
    f24b:	48 8d 05 ee 11 01 00 	lea    0x111ee(%rip),%rax        # 20440 <g_550>
    f252:	48 89 85 a8 eb ff ff 	mov    %rax,-0x1458(%rbp)
    f259:	48 8d 05 a0 c1 00 00 	lea    0xc1a0(%rip),%rax        # 1b400 <g_33>
    f260:	48 89 85 b0 eb ff ff 	mov    %rax,-0x1450(%rbp)
    f267:	48 8d 05 92 c1 00 00 	lea    0xc192(%rip),%rax        # 1b400 <g_33>
    f26e:	48 89 85 b8 eb ff ff 	mov    %rax,-0x1448(%rbp)
    f275:	48 8d 05 c4 11 01 00 	lea    0x111c4(%rip),%rax        # 20440 <g_550>
    f27c:	48 89 85 c0 eb ff ff 	mov    %rax,-0x1440(%rbp)
    f283:	c7 85 50 ec ff ff 01 	movl   $0x1,-0x13b0(%rbp)
    f28a:	00 00 00 
    f28d:	c7 85 54 ec ff ff 3b 	movl   $0x16a8e93b,-0x13ac(%rbp)
    f294:	e9 a8 16 
    f297:	c7 85 58 ec ff ff 01 	movl   $0x1,-0x13a8(%rbp)
    f29e:	00 00 00 
    f2a1:	c7 85 5c ec ff ff 58 	movl   $0x7c399858,-0x13a4(%rbp)
    f2a8:	98 39 7c 
    f2ab:	c7 85 60 ec ff ff 58 	movl   $0x7c399858,-0x13a0(%rbp)
    f2b2:	98 39 7c 
    f2b5:	c7 85 64 ec ff ff 01 	movl   $0x1,-0x139c(%rbp)
    f2bc:	00 00 00 
    f2bf:	c7 85 68 ec ff ff 3b 	movl   $0x16a8e93b,-0x1398(%rbp)
    f2c6:	e9 a8 16 
    f2c9:	c7 85 6c ec ff ff 01 	movl   $0x1,-0x1394(%rbp)
    f2d0:	00 00 00 
    f2d3:	c7 85 70 ec ff ff 58 	movl   $0x7c399858,-0x1390(%rbp)
    f2da:	98 39 7c 
    f2dd:	c7 85 74 ec ff ff ce 	movl   $0x80ee08ce,-0x138c(%rbp)
    f2e4:	08 ee 80 
    f2e7:	c7 85 78 ec ff ff 76 	movl   $0xf8340f76,-0x1388(%rbp)
    f2ee:	0f 34 f8 
    f2f1:	c7 85 7c ec ff ff 01 	movl   $0x1,-0x1384(%rbp)
    f2f8:	00 00 00 
    f2fb:	c7 85 80 ec ff ff 00 	movl   $0x0,-0x1380(%rbp)
    f302:	00 00 00 
    f305:	c7 85 84 ec ff ff f9 	movl   $0xfffffff9,-0x137c(%rbp)
    f30c:	ff ff ff 
    f30f:	c7 85 88 ec ff ff 00 	movl   $0x0,-0x1378(%rbp)
    f316:	00 00 00 
    f319:	c7 85 8c ec ff ff 01 	movl   $0x1,-0x1374(%rbp)
    f320:	00 00 00 
    f323:	c7 85 90 ec ff ff 76 	movl   $0xf8340f76,-0x1370(%rbp)
    f32a:	0f 34 f8 
    f32d:	c7 85 94 ec ff ff ce 	movl   $0x80ee08ce,-0x136c(%rbp)
    f334:	08 ee 80 
    f337:	c7 85 98 ec ff ff ff 	movl   $0xffffffff,-0x1368(%rbp)
    f33e:	ff ff ff 
    f341:	c7 85 9c ec ff ff 58 	movl   $0x7c399858,-0x1364(%rbp)
    f348:	98 39 7c 
    f34b:	c7 85 a0 ec ff ff 01 	movl   $0x1,-0x1360(%rbp)
    f352:	00 00 00 
    f355:	c7 85 a4 ec ff ff 58 	movl   $0x7c399858,-0x135c(%rbp)
    f35c:	98 39 7c 
    f35f:	c7 85 a8 ec ff ff ff 	movl   $0xffffffff,-0x1358(%rbp)
    f366:	ff ff ff 
    f369:	c7 85 ac ec ff ff ff 	movl   $0xffffffff,-0x1354(%rbp)
    f370:	ff ff ff 
    f373:	c7 85 b0 ec ff ff 58 	movl   $0x7c399858,-0x1350(%rbp)
    f37a:	98 39 7c 
    f37d:	c7 85 b4 ec ff ff 01 	movl   $0x1,-0x134c(%rbp)
    f384:	00 00 00 
    f387:	c7 85 b8 ec ff ff 58 	movl   $0x7c399858,-0x1348(%rbp)
    f38e:	98 39 7c 
    f391:	c7 85 bc ec ff ff 01 	movl   $0x1,-0x1344(%rbp)
    f398:	00 00 00 
    f39b:	c7 85 c0 ec ff ff fd 	movl   $0x903465fd,-0x1340(%rbp)
    f3a2:	65 34 90 
    f3a5:	c7 85 c4 ec ff ff 04 	movl   $0x4,-0x133c(%rbp)
    f3ac:	00 00 00 
    f3af:	c7 85 c8 ec ff ff 08 	movl   $0x8,-0x1338(%rbp)
    f3b6:	00 00 00 
    f3b9:	c7 85 cc ec ff ff f9 	movl   $0xfffffff9,-0x1334(%rbp)
    f3c0:	ff ff ff 
    f3c3:	c7 85 d0 ec ff ff 76 	movl   $0xf8340f76,-0x1330(%rbp)
    f3ca:	0f 34 f8 
    f3cd:	c7 85 d4 ec ff ff f9 	movl   $0xfffffff9,-0x132c(%rbp)
    f3d4:	ff ff ff 
    f3d7:	c7 85 d8 ec ff ff 08 	movl   $0x8,-0x1328(%rbp)
    f3de:	00 00 00 
    f3e1:	c7 85 dc ec ff ff 04 	movl   $0x4,-0x1324(%rbp)
    f3e8:	00 00 00 
    f3eb:	c7 85 e0 ec ff ff ff 	movl   $0xffffffff,-0x1320(%rbp)
    f3f2:	ff ff ff 
    f3f5:	c7 85 e4 ec ff ff ff 	movl   $0xffffffff,-0x131c(%rbp)
    f3fc:	ff ff ff 
    f3ff:	c7 85 e8 ec ff ff 58 	movl   $0x7c399858,-0x1318(%rbp)
    f406:	98 39 7c 
    f409:	c7 85 ec ec ff ff 01 	movl   $0x1,-0x1314(%rbp)
    f410:	00 00 00 
    f413:	c7 85 f0 ec ff ff 58 	movl   $0x7c399858,-0x1310(%rbp)
    f41a:	98 39 7c 
    f41d:	c7 85 f4 ec ff ff ff 	movl   $0xffffffff,-0x130c(%rbp)
    f424:	ff ff ff 
    f427:	c7 85 f8 ec ff ff ff 	movl   $0xffffffff,-0x1308(%rbp)
    f42e:	ff ff ff 
    f431:	c7 85 fc ec ff ff 58 	movl   $0x7c399858,-0x1304(%rbp)
    f438:	98 39 7c 
    f43b:	c7 85 00 ed ff ff 01 	movl   $0x1,-0x1300(%rbp)
    f442:	00 00 00 
    f445:	c7 85 04 ed ff ff ce 	movl   $0x80ee08ce,-0x12fc(%rbp)
    f44c:	08 ee 80 
    f44f:	c7 85 08 ed ff ff fd 	movl   $0x903465fd,-0x12f8(%rbp)
    f456:	65 34 90 
    f459:	c7 85 0c ed ff ff ce 	movl   $0x80ee08ce,-0x12f4(%rbp)
    f460:	08 ee 80 
    f463:	c7 85 10 ed ff ff 76 	movl   $0xf8340f76,-0x12f0(%rbp)
    f46a:	0f 34 f8 
    f46d:	c7 85 14 ed ff ff 01 	movl   $0x1,-0x12ec(%rbp)
    f474:	00 00 00 
    f477:	c7 85 18 ed ff ff 00 	movl   $0x0,-0x12e8(%rbp)
    f47e:	00 00 00 
    f481:	c7 85 1c ed ff ff f9 	movl   $0xfffffff9,-0x12e4(%rbp)
    f488:	ff ff ff 
    f48b:	c7 85 20 ed ff ff 00 	movl   $0x0,-0x12e0(%rbp)
    f492:	00 00 00 
    f495:	c7 85 24 ed ff ff 01 	movl   $0x1,-0x12dc(%rbp)
    f49c:	00 00 00 
    f49f:	c7 85 34 e9 ff ff 00 	movl   $0x0,-0x16cc(%rbp)
    f4a6:	00 00 00 
    f4a9:	eb 1a                	jmp    f4c5 <func_50+0x478>
    f4ab:	8b 85 34 e9 ff ff    	mov    -0x16cc(%rbp),%eax
    f4b1:	48 98                	cltq   
    f4b3:	c7 84 85 e0 ea ff ff 	movl   $0x1,-0x1520(%rbp,%rax,4)
    f4ba:	01 00 00 00 
    f4be:	83 85 34 e9 ff ff 01 	addl   $0x1,-0x16cc(%rbp)
    f4c5:	83 bd 34 e9 ff ff 01 	cmpl   $0x1,-0x16cc(%rbp)
    f4cc:	7e dd                	jle    f4ab <func_50+0x45e>
    f4ce:	48 8b 85 88 e8 ff ff 	mov    -0x1778(%rbp),%rax
    f4d5:	48 8b 00             	mov    (%rax),%rax
    f4d8:	8b 00                	mov    (%rax),%eax
    f4da:	85 c0                	test   %eax,%eax
    f4dc:	0f 84 e0 1b 00 00    	je     110c2 <func_50+0x2075>
    f4e2:	48 8d 05 d3 c6 00 00 	lea    0xc6d3(%rip),%rax        # 1bbbc <g_95+0x1c>
    f4e9:	48 89 85 60 ea ff ff 	mov    %rax,-0x15a0(%rbp)
    f4f0:	c7 85 20 e9 ff ff f9 	movl   $0xfffffff9,-0x16e0(%rbp)
    f4f7:	ff ff ff 
    f4fa:	c7 85 24 e9 ff ff 00 	movl   $0x0,-0x16dc(%rbp)
    f501:	00 00 00 
    f504:	c7 85 14 e9 ff ff d5 	movl   $0x36e2bd5,-0x16ec(%rbp)
    f50b:	2b 6e 03 
    f50e:	c7 85 28 e9 ff ff fd 	movl   $0xfffffffd,-0x16d8(%rbp)
    f515:	ff ff ff 
    f518:	c7 85 2c e9 ff ff 30 	movl   $0xd5149330,-0x16d4(%rbp)
    f51f:	93 14 d5 
    f522:	c7 85 1c e9 ff ff 00 	movl   $0x0,-0x16e4(%rbp)
    f529:	00 00 00 
    f52c:	c7 85 0c e9 ff ff 06 	movl   $0x6,-0x16f4(%rbp)
    f533:	00 00 00 
    f536:	48 8d 85 a0 e8 ff ff 	lea    -0x1760(%rbp),%rax
    f53d:	48 89 85 d0 eb ff ff 	mov    %rax,-0x1430(%rbp)
    f544:	48 8d 85 a0 e8 ff ff 	lea    -0x1760(%rbp),%rax
    f54b:	48 89 85 d8 eb ff ff 	mov    %rax,-0x1428(%rbp)
    f552:	48 8d 85 a0 e8 ff ff 	lea    -0x1760(%rbp),%rax
    f559:	48 89 85 e0 eb ff ff 	mov    %rax,-0x1420(%rbp)
    f560:	48 8d 85 a0 e8 ff ff 	lea    -0x1760(%rbp),%rax
    f567:	48 89 85 e8 eb ff ff 	mov    %rax,-0x1418(%rbp)
    f56e:	48 8d 85 a0 e8 ff ff 	lea    -0x1760(%rbp),%rax
    f575:	48 89 85 f0 eb ff ff 	mov    %rax,-0x1410(%rbp)
    f57c:	48 8d 85 a0 e8 ff ff 	lea    -0x1760(%rbp),%rax
    f583:	48 89 85 f8 eb ff ff 	mov    %rax,-0x1408(%rbp)
    f58a:	48 8d 85 a0 e8 ff ff 	lea    -0x1760(%rbp),%rax
    f591:	48 89 85 00 ec ff ff 	mov    %rax,-0x1400(%rbp)
    f598:	48 8d 85 a0 e8 ff ff 	lea    -0x1760(%rbp),%rax
    f59f:	48 89 85 08 ec ff ff 	mov    %rax,-0x13f8(%rbp)
    f5a6:	c7 85 20 eb ff ff fa 	movl   $0xfffffffa,-0x14e0(%rbp)
    f5ad:	ff ff ff 
    f5b0:	c7 85 24 eb ff ff 01 	movl   $0x1,-0x14dc(%rbp)
    f5b7:	00 00 00 
    f5ba:	c7 85 28 eb ff ff fa 	movl   $0xfffffffa,-0x14d8(%rbp)
    f5c1:	ff ff ff 
    f5c4:	c7 85 2c eb ff ff fa 	movl   $0xfffffffa,-0x14d4(%rbp)
    f5cb:	ff ff ff 
    f5ce:	c7 85 30 eb ff ff 01 	movl   $0x1,-0x14d0(%rbp)
    f5d5:	00 00 00 
    f5d8:	c7 85 34 eb ff ff fa 	movl   $0xfffffffa,-0x14cc(%rbp)
    f5df:	ff ff ff 
    f5e2:	c7 85 38 eb ff ff fa 	movl   $0xfffffffa,-0x14c8(%rbp)
    f5e9:	ff ff ff 
    f5ec:	c7 85 3c eb ff ff 01 	movl   $0x1,-0x14c4(%rbp)
    f5f3:	00 00 00 
    f5f6:	c7 85 40 eb ff ff fa 	movl   $0xfffffffa,-0x14c0(%rbp)
    f5fd:	ff ff ff 
    f600:	c7 85 44 eb ff ff fa 	movl   $0xfffffffa,-0x14bc(%rbp)
    f607:	ff ff ff 
    f60a:	48 c7 85 88 e9 ff ff 	movq   $0x0,-0x1678(%rbp)
    f611:	00 00 00 00 
    f615:	48 c7 85 58 ea ff ff 	movq   $0x0,-0x15a8(%rbp)
    f61c:	00 00 00 00 
    f620:	48 8d 85 88 e9 ff ff 	lea    -0x1678(%rbp),%rax
    f627:	48 89 85 50 ea ff ff 	mov    %rax,-0x15b0(%rbp)
    f62e:	48 c7 85 90 e9 ff ff 	movq   $0x0,-0x1670(%rbp)
    f635:	00 00 00 00 
    f639:	48 8d 85 90 e9 ff ff 	lea    -0x1670(%rbp),%rax
    f640:	48 89 85 28 ea ff ff 	mov    %rax,-0x15d8(%rbp)
    f647:	48 8d 85 50 ee ff ff 	lea    -0x11b0(%rbp),%rax
    f64e:	48 8d 15 cb e7 00 00 	lea    0xe7cb(%rip),%rdx        # 1de20 <g_2112+0x1170>
    f655:	b9 54 00 00 00       	mov    $0x54,%ecx
    f65a:	48 89 c7             	mov    %rax,%rdi
    f65d:	48 89 d6             	mov    %rdx,%rsi
    f660:	f3 48 a5             	rep movsq %ds:(%rsi),%es:(%rdi)
    f663:	48 c7 85 30 ea ff ff 	movq   $0x0,-0x15d0(%rbp)
    f66a:	00 00 00 00 
    f66e:	48 c7 85 38 ea ff ff 	movq   $0xffffffffffffffff,-0x15c8(%rbp)
    f675:	ff ff ff ff 
    f679:	c7 85 00 eb ff ff 01 	movl   $0x1,-0x1500(%rbp)
    f680:	00 00 00 
    f683:	c7 85 04 eb ff ff 01 	movl   $0x1,-0x14fc(%rbp)
    f68a:	00 00 00 
    f68d:	c7 85 08 eb ff ff 01 	movl   $0x1,-0x14f8(%rbp)
    f694:	00 00 00 
    f697:	c7 85 0c eb ff ff 01 	movl   $0x1,-0x14f4(%rbp)
    f69e:	00 00 00 
    f6a1:	8b 9d e4 ea ff ff    	mov    -0x151c(%rbp),%ebx
    f6a7:	0f bf 85 7c e8 ff ff 	movswl -0x1784(%rbp),%eax
    f6ae:	be 05 00 00 00       	mov    $0x5,%esi
    f6b3:	89 c7                	mov    %eax,%edi
    f6b5:	e8 70 9e ff ff       	callq  952a <safe_rshift_func_int16_t_s_s>
    f6ba:	98                   	cwtl   
    f6bb:	39 c3                	cmp    %eax,%ebx
    f6bd:	0f 9d c0             	setge  %al
    f6c0:	0f b6 d0             	movzbl %al,%edx
    f6c3:	48 8b 85 60 ea ff ff 	mov    -0x15a0(%rbp),%rax
    f6ca:	8b 00                	mov    (%rax),%eax
    f6cc:	21 c2                	and    %eax,%edx
    f6ce:	48 8b 85 60 ea ff ff 	mov    -0x15a0(%rbp),%rax
    f6d5:	89 10                	mov    %edx,(%rax)
    f6d7:	66 c7 05 f4 c5 00 00 	movw   $0x1,0xc5f4(%rip)        # 1bcd4 <g_464>
    f6de:	01 00 
    f6e0:	eb 20                	jmp    f702 <func_50+0x6b5>
    f6e2:	8b 95 e4 ea ff ff    	mov    -0x151c(%rbp),%edx
    f6e8:	48 8b 85 60 ea ff ff 	mov    -0x15a0(%rbp),%rax
    f6ef:	89 10                	mov    %edx,(%rax)
    f6f1:	0f b7 05 dc c5 00 00 	movzwl 0xc5dc(%rip),%eax        # 1bcd4 <g_464>
    f6f8:	83 e8 01             	sub    $0x1,%eax
    f6fb:	66 89 05 d2 c5 00 00 	mov    %ax,0xc5d2(%rip)        # 1bcd4 <g_464>
    f702:	0f b7 05 cb c5 00 00 	movzwl 0xc5cb(%rip),%eax        # 1bcd4 <g_464>
    f709:	66 85 c0             	test   %ax,%ax
    f70c:	79 d4                	jns    f6e2 <func_50+0x695>
    f70e:	c7 05 14 0d 01 00 00 	movl   $0x0,0x10d14(%rip)        # 2042c <g_327>
    f715:	00 00 00 
    f718:	e9 a7 13 00 00       	jmpq   10ac4 <func_50+0x1a77>
    f71d:	48 8d 05 9c c5 00 00 	lea    0xc59c(%rip),%rax        # 1bcc0 <g_408>
    f724:	48 89 85 98 e9 ff ff 	mov    %rax,-0x1668(%rbp)
    f72b:	48 8d 85 f0 f0 ff ff 	lea    -0xf10(%rbp),%rax
    f732:	48 8d 15 a7 80 00 00 	lea    0x80a7(%rip),%rdx        # 177e0 <g_1889+0xff0>
    f739:	b9 6c 00 00 00       	mov    $0x6c,%ecx
    f73e:	48 89 c7             	mov    %rax,%rdi
    f741:	48 89 d6             	mov    %rdx,%rsi
    f744:	f3 48 a5             	rep movsq %ds:(%rsi),%es:(%rdi)
    f747:	c7 85 f4 e8 ff ff 02 	movl   $0x2,-0x170c(%rbp)
    f74e:	00 00 00 
    f751:	c7 85 f8 e8 ff ff 00 	movl   $0x0,-0x1708(%rbp)
    f758:	00 00 00 
    f75b:	eb 49                	jmp    f7a6 <func_50+0x759>
    f75d:	c7 85 4c e9 ff ff 00 	movl   $0x0,-0x16b4(%rbp)
    f764:	00 00 00 
    f767:	eb 2d                	jmp    f796 <func_50+0x749>
    f769:	8b 85 4c e9 ff ff    	mov    -0x16b4(%rbp),%eax
    f76f:	48 98                	cltq   
    f771:	8b 95 f8 e8 ff ff    	mov    -0x1708(%rbp),%edx
    f777:	48 63 d2             	movslq %edx,%rdx
    f77a:	48 01 d2             	add    %rdx,%rdx
    f77d:	48 01 c2             	add    %rax,%rdx
    f780:	48 8d 85 98 e9 ff ff 	lea    -0x1668(%rbp),%rax
    f787:	48 89 84 d5 10 ec ff 	mov    %rax,-0x13f0(%rbp,%rdx,8)
    f78e:	ff 
    f78f:	83 85 4c e9 ff ff 01 	addl   $0x1,-0x16b4(%rbp)
    f796:	83 bd 4c e9 ff ff 01 	cmpl   $0x1,-0x16b4(%rbp)
    f79d:	7e ca                	jle    f769 <func_50+0x71c>
    f79f:	83 85 f8 e8 ff ff 01 	addl   $0x1,-0x1708(%rbp)
    f7a6:	83 bd f8 e8 ff ff 03 	cmpl   $0x3,-0x1708(%rbp)
    f7ad:	7e ae                	jle    f75d <func_50+0x710>
    f7af:	c7 85 f8 e8 ff ff 00 	movl   $0x0,-0x1708(%rbp)
    f7b6:	00 00 00 
    f7b9:	eb 1a                	jmp    f7d5 <func_50+0x788>
    f7bb:	8b 85 f8 e8 ff ff    	mov    -0x1708(%rbp),%eax
    f7c1:	48 98                	cltq   
    f7c3:	c7 84 85 e8 ea ff ff 	movl   $0x1,-0x1518(%rbp,%rax,4)
    f7ca:	01 00 00 00 
    f7ce:	83 85 f8 e8 ff ff 01 	addl   $0x1,-0x1708(%rbp)
    f7d5:	83 bd f8 e8 ff ff 01 	cmpl   $0x1,-0x1708(%rbp)
    f7dc:	7e dd                	jle    f7bb <func_50+0x76e>
    f7de:	c6 05 e1 c4 00 00 00 	movb   $0x0,0xc4e1(%rip)        # 1bcc6 <g_408+0x6>
    f7e5:	e9 a9 0c 00 00       	jmpq   10493 <func_50+0x1446>
    f7ea:	c7 45 bf ff ff ff ff 	movl   $0xffffffff,-0x41(%rbp)
    f7f1:	66 c7 45 c3 ff ff    	movw   $0xffff,-0x3d(%rbp)
    f7f7:	48 b8 2a 4c de 6f be 	movabs $0x8a0c83be6fde4c2a,%rax
    f7fe:	83 0c 8a 
    f801:	48 89 85 a0 e9 ff ff 	mov    %rax,-0x1660(%rbp)
    f808:	48 c7 85 90 ea ff ff 	movq   $0x0,-0x1570(%rbp)
    f80f:	00 00 00 00 
    f813:	c7 85 54 e9 ff ff 30 	movl   $0x5a83ee30,-0x16ac(%rbp)
    f81a:	ee 83 5a 
    f81d:	48 8d 05 7c f4 00 00 	lea    0xf47c(%rip),%rax        # 1eca0 <g_134>
    f824:	48 89 85 a8 e9 ff ff 	mov    %rax,-0x1658(%rbp)
    f82b:	48 8d 85 a8 e9 ff ff 	lea    -0x1658(%rbp),%rax
    f832:	48 89 85 98 ea ff ff 	mov    %rax,-0x1568(%rbp)
    f839:	48 8d 85 30 ed ff ff 	lea    -0x12d0(%rbp),%rax
    f840:	48 8d 15 f9 82 00 00 	lea    0x82f9(%rip),%rdx        # 17b40 <g_1889+0x1350>
    f847:	b9 24 00 00 00       	mov    $0x24,%ecx
    f84c:	48 89 c7             	mov    %rax,%rdi
    f84f:	48 89 d6             	mov    %rdx,%rsi
    f852:	f3 48 a5             	rep movsq %ds:(%rsi),%es:(%rdi)
    f855:	c7 85 44 e9 ff ff 00 	movl   $0x0,-0x16bc(%rbp)
    f85c:	00 00 00 
    f85f:	eb 1b                	jmp    f87c <func_50+0x82f>
    f861:	8b 85 44 e9 ff ff    	mov    -0x16bc(%rbp),%eax
    f867:	48 98                	cltq   
    f869:	48 c7 84 c5 10 eb ff 	movq   $0x0,-0x14f0(%rbp,%rax,8)
    f870:	ff 00 00 00 00 
    f875:	83 85 44 e9 ff ff 01 	addl   $0x1,-0x16bc(%rbp)
    f87c:	83 bd 44 e9 ff ff 01 	cmpl   $0x1,-0x16bc(%rbp)
    f883:	7e dc                	jle    f861 <func_50+0x814>
    f885:	48 8b 05 a4 c4 00 00 	mov    0xc4a4(%rip),%rax        # 1bd30 <g_710>
    f88c:	48 8b 15 a5 c4 00 00 	mov    0xc4a5(%rip),%rdx        # 1bd38 <g_710+0x8>
    f893:	48 89 05 b6 c4 00 00 	mov    %rax,0xc4b6(%rip)        # 1bd50 <g_711>
    f89a:	48 89 15 b7 c4 00 00 	mov    %rdx,0xc4b7(%rip)        # 1bd58 <g_711+0x8>
    f8a1:	0f b7 05 98 c4 00 00 	movzwl 0xc498(%rip),%eax        # 1bd40 <g_710+0x10>
    f8a8:	66 89 05 b1 c4 00 00 	mov    %ax,0xc4b1(%rip)        # 1bd60 <g_711+0x10>
    f8af:	0f b6 05 8c c4 00 00 	movzbl 0xc48c(%rip),%eax        # 1bd42 <g_710+0x12>
    f8b6:	88 05 a6 c4 00 00    	mov    %al,0xc4a6(%rip)        # 1bd62 <g_711+0x12>
    f8bc:	48 c7 05 91 c3 00 00 	movq   $0x0,0xc391(%rip)        # 1bc58 <g_252>
    f8c3:	00 00 00 00 
    f8c7:	e9 e8 01 00 00       	jmpq   fab4 <func_50+0xa67>
    f8cc:	48 8d 05 e9 c2 00 00 	lea    0xc2e9(%rip),%rax        # 1bbbc <g_95+0x1c>
    f8d3:	48 89 85 c8 ea ff ff 	mov    %rax,-0x1538(%rbp)
    f8da:	c7 85 5c e9 ff ff 01 	movl   $0x1,-0x16a4(%rbp)
    f8e1:	00 00 00 
    f8e4:	48 c7 85 d0 ea ff ff 	movq   $0x0,-0x1530(%rbp)
    f8eb:	00 00 00 00 
    f8ef:	48 8b 85 88 e8 ff ff 	mov    -0x1778(%rbp),%rax
    f8f6:	48 8b 00             	mov    (%rax),%rax
    f8f9:	8b 00                	mov    (%rax),%eax
    f8fb:	85 c0                	test   %eax,%eax
    f8fd:	0f 84 13 01 00 00    	je     fa16 <func_50+0x9c9>
    f903:	48 8d 05 61 c3 00 00 	lea    0xc361(%rip),%rax        # 1bc6b <g_280+0xb>
    f90a:	48 89 85 d8 ea ff ff 	mov    %rax,-0x1528(%rbp)
    f911:	0f b7 05 bc c3 00 00 	movzwl 0xc3bc(%rip),%eax        # 1bcd4 <g_464>
    f918:	44 0f bf e0          	movswl %ax,%r12d
    f91c:	0f b6 45 bf          	movzbl -0x41(%rbp),%eax
    f920:	84 c0                	test   %al,%al
    f922:	0f 84 ab 00 00 00    	je     f9d3 <func_50+0x986>
    f928:	0f bf 9d 7c e8 ff ff 	movswl -0x1784(%rbp),%ebx
    f92f:	0f bf 85 7c e8 ff ff 	movswl -0x1784(%rbp),%eax
    f936:	89 c6                	mov    %eax,%esi
    f938:	bf 48 e3 de 77       	mov    $0x77dee348,%edi
    f93d:	e8 74 9c ff ff       	callq  95b6 <safe_add_func_int32_t_s_s>
    f942:	48 63 d0             	movslq %eax,%rdx
    f945:	48 8b 05 4f c3 00 00 	mov    0xc34f(%rip),%rax        # 1bc9b <g_369+0xb>
    f94c:	48 31 d0             	xor    %rdx,%rax
    f94f:	48 f7 d0             	not    %rax
    f952:	48 89 c2             	mov    %rax,%rdx
    f955:	48 8b 85 d8 ea ff ff 	mov    -0x1528(%rbp),%rax
    f95c:	48 89 10             	mov    %rdx,(%rax)
    f95f:	be 01 00 00 00       	mov    $0x1,%esi
    f964:	bf 01 00 00 00       	mov    $0x1,%edi
    f969:	e8 97 9c ff ff       	callq  9605 <safe_sub_func_int32_t_s_s>
    f96e:	3d 81 00 00 00       	cmp    $0x81,%eax
    f973:	0f 9f c0             	setg   %al
    f976:	0f b6 c0             	movzbl %al,%eax
    f979:	89 de                	mov    %ebx,%esi
    f97b:	89 c7                	mov    %eax,%edi
    f97d:	e8 f8 a4 ff ff       	callq  9e7a <safe_rshift_func_uint16_t_u_u>
    f982:	89 c2                	mov    %eax,%edx
    f984:	0f b6 05 b5 0a 01 00 	movzbl 0x10ab5(%rip),%eax        # 20440 <g_550>
    f98b:	31 d0                	xor    %edx,%eax
    f98d:	0f b6 c0             	movzbl %al,%eax
    f990:	be 00 00 00 00       	mov    $0x0,%esi
    f995:	89 c7                	mov    %eax,%edi
    f997:	e8 b0 a2 ff ff       	callq  9c4c <safe_lshift_func_uint8_t_u_u>
    f99c:	83 c8 05             	or     $0x5,%eax
    f99f:	0f b6 c0             	movzbl %al,%eax
    f9a2:	48 be 4e 4f 6d be 4f 	movabs $0xbc89c34fbe6d4f4e,%rsi
    f9a9:	c3 89 bc 
    f9ac:	48 89 c7             	mov    %rax,%rdi
    f9af:	e8 cc a6 ff ff       	callq  a080 <safe_mod_func_uint64_t_u_u>
    f9b4:	48 0f bf 95 7c e8 ff 	movswq -0x1784(%rbp),%rdx
    f9bb:	ff 
    f9bc:	48 09 c2             	or     %rax,%rdx
    f9bf:	8b 85 5c e9 ff ff    	mov    -0x16a4(%rbp),%eax
    f9c5:	48 98                	cltq   
    f9c7:	48 39 c2             	cmp    %rax,%rdx
    f9ca:	74 07                	je     f9d3 <func_50+0x986>
    f9cc:	b8 01 00 00 00       	mov    $0x1,%eax
    f9d1:	eb 05                	jmp    f9d8 <func_50+0x98b>
    f9d3:	b8 00 00 00 00       	mov    $0x0,%eax
    f9d8:	44 39 e0             	cmp    %r12d,%eax
    f9db:	0f 95 c0             	setne  %al
    f9de:	0f b6 d0             	movzbl %al,%edx
    f9e1:	0f bf 85 7c e8 ff ff 	movswl -0x1784(%rbp),%eax
    f9e8:	39 c2                	cmp    %eax,%edx
    f9ea:	0f 9c c0             	setl   %al
    f9ed:	0f b6 c0             	movzbl %al,%eax
    f9f0:	21 85 40 e9 ff ff    	and    %eax,-0x16c0(%rbp)
    f9f6:	48 8b 85 48 ec ff ff 	mov    -0x13b8(%rbp),%rax
    f9fd:	48 89 85 d0 ea ff ff 	mov    %rax,-0x1530(%rbp)
    fa04:	48 8b 85 60 ea ff ff 	mov    -0x15a0(%rbp),%rax
    fa0b:	8b 00                	mov    (%rax),%eax
    fa0d:	85 c0                	test   %eax,%eax
    fa0f:	74 51                	je     fa62 <func_50+0xa15>
    fa11:	e9 8c 00 00 00       	jmpq   faa2 <func_50+0xa55>
    fa16:	0f b7 85 7c e8 ff ff 	movzwl -0x1784(%rbp),%eax
    fa1d:	0f b6 d0             	movzbl %al,%edx
    fa20:	0f b7 05 6d c2 00 00 	movzwl 0xc26d(%rip),%eax        # 1bc94 <g_369+0x4>
    fa27:	66 85 c0             	test   %ax,%ax
    fa2a:	0f 95 c0             	setne  %al
    fa2d:	0f b6 c0             	movzbl %al,%eax
    fa30:	89 d6                	mov    %edx,%esi
    fa32:	89 c7                	mov    %eax,%edi
    fa34:	e8 5a a1 ff ff       	callq  9b93 <safe_mul_func_uint8_t_u_u>
    fa39:	0f b7 85 7c e8 ff ff 	movzwl -0x1784(%rbp),%eax
    fa40:	66 83 f8 03          	cmp    $0x3,%ax
    fa44:	0f 96 c0             	setbe  %al
    fa47:	0f b6 d0             	movzbl %al,%edx
    fa4a:	48 8b 85 60 ea ff ff 	mov    -0x15a0(%rbp),%rax
    fa51:	89 10                	mov    %edx,(%rax)
    fa53:	48 8b 85 60 ea ff ff 	mov    -0x15a0(%rbp),%rax
    fa5a:	8b 00                	mov    (%rax),%eax
    fa5c:	89 85 54 e9 ff ff    	mov    %eax,-0x16ac(%rbp)
    fa62:	48 8b 05 37 f8 00 00 	mov    0xf837(%rip),%rax        # 1f2a0 <g_693>
    fa69:	48 8b 15 e8 c1 00 00 	mov    0xc1e8(%rip),%rdx        # 1bc58 <g_252>
    fa70:	48 83 c2 01          	add    $0x1,%rdx
    fa74:	8b 0d b2 09 01 00    	mov    0x109b2(%rip),%ecx        # 2042c <g_327>
    fa7a:	8d 71 01             	lea    0x1(%rcx),%esi
    fa7d:	48 8b 08             	mov    (%rax),%rcx
    fa80:	89 f6                	mov    %esi,%esi
    fa82:	48 89 d0             	mov    %rdx,%rax
    fa85:	48 c1 e0 03          	shl    $0x3,%rax
    fa89:	48 01 d0             	add    %rdx,%rax
    fa8c:	48 01 f0             	add    %rsi,%rax
    fa8f:	48 8d 14 c5 00 00 00 	lea    0x0(,%rax,8),%rdx
    fa96:	00 
    fa97:	48 8d 05 02 f0 00 00 	lea    0xf002(%rip),%rax        # 1eaa0 <g_133>
    fa9e:	48 89 0c 02          	mov    %rcx,(%rdx,%rax,1)
    faa2:	48 8b 05 af c1 00 00 	mov    0xc1af(%rip),%rax        # 1bc58 <g_252>
    faa9:	48 83 c0 01          	add    $0x1,%rax
    faad:	48 89 05 a4 c1 00 00 	mov    %rax,0xc1a4(%rip)        # 1bc58 <g_252>
    fab4:	48 8b 05 9d c1 00 00 	mov    0xc19d(%rip),%rax        # 1bc58 <g_252>
    fabb:	48 83 f8 04          	cmp    $0x4,%rax
    fabf:	0f 86 07 fe ff ff    	jbe    f8cc <func_50+0x87f>
    fac5:	48 8b 15 bc b2 00 00 	mov    0xb2bc(%rip),%rdx        # 1ad88 <l_740.4684+0x8>
    facc:	48 8b 85 98 ea ff ff 	mov    -0x1568(%rbp),%rax
    fad3:	48 89 10             	mov    %rdx,(%rax)
    fad6:	48 c7 05 8a c1 00 00 	movq   $0x0,0xc18a(%rip)        # 1bc6b <g_280+0xb>
    fadd:	00 00 00 00 
    fae1:	e9 8c 09 00 00       	jmpq   10472 <func_50+0x1425>
    fae6:	66 c7 85 98 e8 ff ff 	movw   $0x1fbf,-0x1768(%rbp)
    faed:	bf 1f 
    faef:	48 8d 05 ca c1 00 00 	lea    0xc1ca(%rip),%rax        # 1bcc0 <g_408>
    faf6:	48 89 85 a0 ea ff ff 	mov    %rax,-0x1560(%rbp)
    fafd:	48 c7 85 a8 ea ff ff 	movq   $0x0,-0x1558(%rbp)
    fb04:	00 00 00 00 
    fb08:	48 c7 85 30 f8 ff ff 	movq   $0x0,-0x7d0(%rbp)
    fb0f:	00 00 00 00 
    fb13:	48 8d 05 aa c1 00 00 	lea    0xc1aa(%rip),%rax        # 1bcc4 <g_408+0x4>
    fb1a:	48 89 85 38 f8 ff ff 	mov    %rax,-0x7c8(%rbp)
    fb21:	48 8d 05 9c c1 00 00 	lea    0xc19c(%rip),%rax        # 1bcc4 <g_408+0x4>
    fb28:	48 89 85 40 f8 ff ff 	mov    %rax,-0x7c0(%rbp)
    fb2f:	48 c7 85 48 f8 ff ff 	movq   $0x0,-0x7b8(%rbp)
    fb36:	00 00 00 00 
    fb3a:	48 8d 05 e7 08 01 00 	lea    0x108e7(%rip),%rax        # 20428 <g_161>
    fb41:	48 89 85 50 f8 ff ff 	mov    %rax,-0x7b0(%rbp)
    fb48:	48 8d 05 15 c1 00 00 	lea    0xc115(%rip),%rax        # 1bc64 <g_280+0x4>
    fb4f:	48 89 85 58 f8 ff ff 	mov    %rax,-0x7a8(%rbp)
    fb56:	48 8d 05 67 c1 00 00 	lea    0xc167(%rip),%rax        # 1bcc4 <g_408+0x4>
    fb5d:	48 89 85 60 f8 ff ff 	mov    %rax,-0x7a0(%rbp)
    fb64:	48 8d 05 bd 08 01 00 	lea    0x108bd(%rip),%rax        # 20428 <g_161>
    fb6b:	48 89 85 68 f8 ff ff 	mov    %rax,-0x798(%rbp)
    fb72:	48 c7 85 70 f8 ff ff 	movq   $0x0,-0x790(%rbp)
    fb79:	00 00 00 00 
    fb7d:	48 c7 85 78 f8 ff ff 	movq   $0x0,-0x788(%rbp)
    fb84:	00 00 00 00 
    fb88:	48 8d 85 98 e8 ff ff 	lea    -0x1768(%rbp),%rax
    fb8f:	48 89 85 80 f8 ff ff 	mov    %rax,-0x780(%rbp)
    fb96:	48 8d 05 27 c1 00 00 	lea    0xc127(%rip),%rax        # 1bcc4 <g_408+0x4>
    fb9d:	48 89 85 88 f8 ff ff 	mov    %rax,-0x778(%rbp)
    fba4:	48 8d 85 98 e8 ff ff 	lea    -0x1768(%rbp),%rax
    fbab:	48 89 85 90 f8 ff ff 	mov    %rax,-0x770(%rbp)
    fbb2:	48 c7 85 98 f8 ff ff 	movq   $0x0,-0x768(%rbp)
    fbb9:	00 00 00 00 
    fbbd:	48 8d 05 a0 c0 00 00 	lea    0xc0a0(%rip),%rax        # 1bc64 <g_280+0x4>
    fbc4:	48 89 85 a0 f8 ff ff 	mov    %rax,-0x760(%rbp)
    fbcb:	48 8d 05 92 c0 00 00 	lea    0xc092(%rip),%rax        # 1bc64 <g_280+0x4>
    fbd2:	48 89 85 a8 f8 ff ff 	mov    %rax,-0x758(%rbp)
    fbd9:	48 c7 85 b0 f8 ff ff 	movq   $0x0,-0x750(%rbp)
    fbe0:	00 00 00 00 
    fbe4:	48 c7 85 b8 f8 ff ff 	movq   $0x0,-0x748(%rbp)
    fbeb:	00 00 00 00 
    fbef:	48 8d 05 32 08 01 00 	lea    0x10832(%rip),%rax        # 20428 <g_161>
    fbf6:	48 89 85 c0 f8 ff ff 	mov    %rax,-0x740(%rbp)
    fbfd:	48 8d 05 c0 c0 00 00 	lea    0xc0c0(%rip),%rax        # 1bcc4 <g_408+0x4>
    fc04:	48 89 85 c8 f8 ff ff 	mov    %rax,-0x738(%rbp)
    fc0b:	48 8d 05 52 c0 00 00 	lea    0xc052(%rip),%rax        # 1bc64 <g_280+0x4>
    fc12:	48 89 85 d0 f8 ff ff 	mov    %rax,-0x730(%rbp)
    fc19:	48 8d 05 44 c0 00 00 	lea    0xc044(%rip),%rax        # 1bc64 <g_280+0x4>
    fc20:	48 89 85 d8 f8 ff ff 	mov    %rax,-0x728(%rbp)
    fc27:	48 8d 85 98 e8 ff ff 	lea    -0x1768(%rbp),%rax
    fc2e:	48 89 85 e0 f8 ff ff 	mov    %rax,-0x720(%rbp)
    fc35:	48 8d 85 98 e8 ff ff 	lea    -0x1768(%rbp),%rax
    fc3c:	48 89 85 e8 f8 ff ff 	mov    %rax,-0x718(%rbp)
    fc43:	48 8d 05 7a c0 00 00 	lea    0xc07a(%rip),%rax        # 1bcc4 <g_408+0x4>
    fc4a:	48 89 85 f0 f8 ff ff 	mov    %rax,-0x710(%rbp)
    fc51:	48 c7 85 f8 f8 ff ff 	movq   $0x0,-0x708(%rbp)
    fc58:	00 00 00 00 
    fc5c:	48 8d 05 61 c0 00 00 	lea    0xc061(%rip),%rax        # 1bcc4 <g_408+0x4>
    fc63:	48 89 85 00 f9 ff ff 	mov    %rax,-0x700(%rbp)
    fc6a:	48 c7 85 08 f9 ff ff 	movq   $0x0,-0x6f8(%rbp)
    fc71:	00 00 00 00 
    fc75:	48 8d 05 48 c0 00 00 	lea    0xc048(%rip),%rax        # 1bcc4 <g_408+0x4>
    fc7c:	48 89 85 10 f9 ff ff 	mov    %rax,-0x6f0(%rbp)
    fc83:	48 8d 05 da bf 00 00 	lea    0xbfda(%rip),%rax        # 1bc64 <g_280+0x4>
    fc8a:	48 89 85 18 f9 ff ff 	mov    %rax,-0x6e8(%rbp)
    fc91:	48 8d 85 98 e8 ff ff 	lea    -0x1768(%rbp),%rax
    fc98:	48 89 85 20 f9 ff ff 	mov    %rax,-0x6e0(%rbp)
    fc9f:	48 8d 05 be bf 00 00 	lea    0xbfbe(%rip),%rax        # 1bc64 <g_280+0x4>
    fca6:	48 89 85 28 f9 ff ff 	mov    %rax,-0x6d8(%rbp)
    fcad:	48 8d 85 98 e8 ff ff 	lea    -0x1768(%rbp),%rax
    fcb4:	48 89 85 30 f9 ff ff 	mov    %rax,-0x6d0(%rbp)
    fcbb:	48 8d 05 66 07 01 00 	lea    0x10766(%rip),%rax        # 20428 <g_161>
    fcc2:	48 89 85 38 f9 ff ff 	mov    %rax,-0x6c8(%rbp)
    fcc9:	48 8d 05 f4 bf 00 00 	lea    0xbff4(%rip),%rax        # 1bcc4 <g_408+0x4>
    fcd0:	48 89 85 40 f9 ff ff 	mov    %rax,-0x6c0(%rbp)
    fcd7:	48 8d 85 98 e8 ff ff 	lea    -0x1768(%rbp),%rax
    fcde:	48 89 85 48 f9 ff ff 	mov    %rax,-0x6b8(%rbp)
    fce5:	48 c7 85 50 f9 ff ff 	movq   $0x0,-0x6b0(%rbp)
    fcec:	00 00 00 00 
    fcf0:	48 8d 05 31 07 01 00 	lea    0x10731(%rip),%rax        # 20428 <g_161>
    fcf7:	48 89 85 58 f9 ff ff 	mov    %rax,-0x6a8(%rbp)
    fcfe:	48 8d 85 98 e8 ff ff 	lea    -0x1768(%rbp),%rax
    fd05:	48 89 85 60 f9 ff ff 	mov    %rax,-0x6a0(%rbp)
    fd0c:	48 8d 05 b1 bf 00 00 	lea    0xbfb1(%rip),%rax        # 1bcc4 <g_408+0x4>
    fd13:	48 89 85 68 f9 ff ff 	mov    %rax,-0x698(%rbp)
    fd1a:	48 8d 05 43 bf 00 00 	lea    0xbf43(%rip),%rax        # 1bc64 <g_280+0x4>
    fd21:	48 89 85 70 f9 ff ff 	mov    %rax,-0x690(%rbp)
    fd28:	48 8d 05 f9 06 01 00 	lea    0x106f9(%rip),%rax        # 20428 <g_161>
    fd2f:	48 89 85 78 f9 ff ff 	mov    %rax,-0x688(%rbp)
    fd36:	48 8d 05 27 bf 00 00 	lea    0xbf27(%rip),%rax        # 1bc64 <g_280+0x4>
    fd3d:	48 89 85 80 f9 ff ff 	mov    %rax,-0x680(%rbp)
    fd44:	48 8d 05 19 bf 00 00 	lea    0xbf19(%rip),%rax        # 1bc64 <g_280+0x4>
    fd4b:	48 89 85 88 f9 ff ff 	mov    %rax,-0x678(%rbp)
    fd52:	48 8d 05 6b bf 00 00 	lea    0xbf6b(%rip),%rax        # 1bcc4 <g_408+0x4>
    fd59:	48 89 85 90 f9 ff ff 	mov    %rax,-0x670(%rbp)
    fd60:	48 8d 05 fd be 00 00 	lea    0xbefd(%rip),%rax        # 1bc64 <g_280+0x4>
    fd67:	48 89 85 98 f9 ff ff 	mov    %rax,-0x668(%rbp)
    fd6e:	48 c7 85 a0 f9 ff ff 	movq   $0x0,-0x660(%rbp)
    fd75:	00 00 00 00 
    fd79:	48 8d 85 98 e8 ff ff 	lea    -0x1768(%rbp),%rax
    fd80:	48 89 85 a8 f9 ff ff 	mov    %rax,-0x658(%rbp)
    fd87:	48 c7 85 b0 f9 ff ff 	movq   $0x0,-0x650(%rbp)
    fd8e:	00 00 00 00 
    fd92:	48 8d 05 cb be 00 00 	lea    0xbecb(%rip),%rax        # 1bc64 <g_280+0x4>
    fd99:	48 89 85 b8 f9 ff ff 	mov    %rax,-0x648(%rbp)
    fda0:	48 8d 05 1d bf 00 00 	lea    0xbf1d(%rip),%rax        # 1bcc4 <g_408+0x4>
    fda7:	48 89 85 c0 f9 ff ff 	mov    %rax,-0x640(%rbp)
    fdae:	48 8d 05 af be 00 00 	lea    0xbeaf(%rip),%rax        # 1bc64 <g_280+0x4>
    fdb5:	48 89 85 c8 f9 ff ff 	mov    %rax,-0x638(%rbp)
    fdbc:	48 8d 05 a1 be 00 00 	lea    0xbea1(%rip),%rax        # 1bc64 <g_280+0x4>
    fdc3:	48 89 85 d0 f9 ff ff 	mov    %rax,-0x630(%rbp)
    fdca:	48 c7 85 d8 f9 ff ff 	movq   $0x0,-0x628(%rbp)
    fdd1:	00 00 00 00 
    fdd5:	48 c7 85 e0 f9 ff ff 	movq   $0x0,-0x620(%rbp)
    fddc:	00 00 00 00 
    fde0:	48 c7 85 e8 f9 ff ff 	movq   $0x0,-0x618(%rbp)
    fde7:	00 00 00 00 
    fdeb:	48 c7 85 f0 f9 ff ff 	movq   $0x0,-0x610(%rbp)
    fdf2:	00 00 00 00 
    fdf6:	48 8d 05 67 be 00 00 	lea    0xbe67(%rip),%rax        # 1bc64 <g_280+0x4>
    fdfd:	48 89 85 f8 f9 ff ff 	mov    %rax,-0x608(%rbp)
    fe04:	48 8d 05 b9 be 00 00 	lea    0xbeb9(%rip),%rax        # 1bcc4 <g_408+0x4>
    fe0b:	48 89 85 00 fa ff ff 	mov    %rax,-0x600(%rbp)
    fe12:	48 8d 05 ab be 00 00 	lea    0xbeab(%rip),%rax        # 1bcc4 <g_408+0x4>
    fe19:	48 89 85 08 fa ff ff 	mov    %rax,-0x5f8(%rbp)
    fe20:	48 8d 05 9d be 00 00 	lea    0xbe9d(%rip),%rax        # 1bcc4 <g_408+0x4>
    fe27:	48 89 85 10 fa ff ff 	mov    %rax,-0x5f0(%rbp)
    fe2e:	48 8d 05 8f be 00 00 	lea    0xbe8f(%rip),%rax        # 1bcc4 <g_408+0x4>
    fe35:	48 89 85 18 fa ff ff 	mov    %rax,-0x5e8(%rbp)
    fe3c:	48 c7 85 20 fa ff ff 	movq   $0x0,-0x5e0(%rbp)
    fe43:	00 00 00 00 
    fe47:	48 8d 05 16 be 00 00 	lea    0xbe16(%rip),%rax        # 1bc64 <g_280+0x4>
    fe4e:	48 89 85 28 fa ff ff 	mov    %rax,-0x5d8(%rbp)
    fe55:	48 c7 85 30 fa ff ff 	movq   $0x0,-0x5d0(%rbp)
    fe5c:	00 00 00 00 
    fe60:	48 8d 85 98 e8 ff ff 	lea    -0x1768(%rbp),%rax
    fe67:	48 89 85 38 fa ff ff 	mov    %rax,-0x5c8(%rbp)
    fe6e:	48 8d 05 4f be 00 00 	lea    0xbe4f(%rip),%rax        # 1bcc4 <g_408+0x4>
    fe75:	48 89 85 40 fa ff ff 	mov    %rax,-0x5c0(%rbp)
    fe7c:	48 8d 85 98 e8 ff ff 	lea    -0x1768(%rbp),%rax
    fe83:	48 89 85 48 fa ff ff 	mov    %rax,-0x5b8(%rbp)
    fe8a:	48 c7 85 50 fa ff ff 	movq   $0x0,-0x5b0(%rbp)
    fe91:	00 00 00 00 
    fe95:	48 8d 05 c8 bd 00 00 	lea    0xbdc8(%rip),%rax        # 1bc64 <g_280+0x4>
    fe9c:	48 89 85 58 fa ff ff 	mov    %rax,-0x5a8(%rbp)
    fea3:	48 c7 85 60 fa ff ff 	movq   $0x0,-0x5a0(%rbp)
    feaa:	00 00 00 00 
    feae:	48 8d 05 73 05 01 00 	lea    0x10573(%rip),%rax        # 20428 <g_161>
    feb5:	48 89 85 68 fa ff ff 	mov    %rax,-0x598(%rbp)
    febc:	48 8d 85 98 e8 ff ff 	lea    -0x1768(%rbp),%rax
    fec3:	48 89 85 70 fa ff ff 	mov    %rax,-0x590(%rbp)
    feca:	48 8d 05 a3 be 00 00 	lea    0xbea3(%rip),%rax        # 1bd74 <g_744+0x4>
    fed1:	48 89 85 78 fa ff ff 	mov    %rax,-0x588(%rbp)
    fed8:	48 8d 05 e5 bd 00 00 	lea    0xbde5(%rip),%rax        # 1bcc4 <g_408+0x4>
    fedf:	48 89 85 80 fa ff ff 	mov    %rax,-0x580(%rbp)
    fee6:	48 8d 85 98 e8 ff ff 	lea    -0x1768(%rbp),%rax
    feed:	48 89 85 88 fa ff ff 	mov    %rax,-0x578(%rbp)
    fef4:	48 8d 85 98 e8 ff ff 	lea    -0x1768(%rbp),%rax
    fefb:	48 89 85 90 fa ff ff 	mov    %rax,-0x570(%rbp)
    ff02:	48 8d 05 5b bd 00 00 	lea    0xbd5b(%rip),%rax        # 1bc64 <g_280+0x4>
    ff09:	48 89 85 98 fa ff ff 	mov    %rax,-0x568(%rbp)
    ff10:	48 8d 05 ad bd 00 00 	lea    0xbdad(%rip),%rax        # 1bcc4 <g_408+0x4>
    ff17:	48 89 85 a0 fa ff ff 	mov    %rax,-0x560(%rbp)
    ff1e:	48 8d 05 9f bd 00 00 	lea    0xbd9f(%rip),%rax        # 1bcc4 <g_408+0x4>
    ff25:	48 89 85 a8 fa ff ff 	mov    %rax,-0x558(%rbp)
    ff2c:	48 8d 85 98 e8 ff ff 	lea    -0x1768(%rbp),%rax
    ff33:	48 89 85 b0 fa ff ff 	mov    %rax,-0x550(%rbp)
    ff3a:	48 8d 05 23 bd 00 00 	lea    0xbd23(%rip),%rax        # 1bc64 <g_280+0x4>
    ff41:	48 89 85 b8 fa ff ff 	mov    %rax,-0x548(%rbp)
    ff48:	48 8d 05 d9 04 01 00 	lea    0x104d9(%rip),%rax        # 20428 <g_161>
    ff4f:	48 89 85 c0 fa ff ff 	mov    %rax,-0x540(%rbp)
    ff56:	48 c7 85 c8 fa ff ff 	movq   $0x0,-0x538(%rbp)
    ff5d:	00 00 00 00 
    ff61:	48 8d 05 c0 04 01 00 	lea    0x104c0(%rip),%rax        # 20428 <g_161>
    ff68:	48 89 85 d0 fa ff ff 	mov    %rax,-0x530(%rbp)
    ff6f:	48 c7 85 d8 fa ff ff 	movq   $0x0,-0x528(%rbp)
    ff76:	00 00 00 00 
    ff7a:	48 c7 85 e0 fa ff ff 	movq   $0x0,-0x520(%rbp)
    ff81:	00 00 00 00 
    ff85:	48 8d 85 98 e8 ff ff 	lea    -0x1768(%rbp),%rax
    ff8c:	48 89 85 e8 fa ff ff 	mov    %rax,-0x518(%rbp)
    ff93:	48 8d 05 2a bd 00 00 	lea    0xbd2a(%rip),%rax        # 1bcc4 <g_408+0x4>
    ff9a:	48 89 85 f0 fa ff ff 	mov    %rax,-0x510(%rbp)
    ffa1:	48 8d 85 98 e8 ff ff 	lea    -0x1768(%rbp),%rax
    ffa8:	48 89 85 f8 fa ff ff 	mov    %rax,-0x508(%rbp)
    ffaf:	48 8d 85 98 e8 ff ff 	lea    -0x1768(%rbp),%rax
    ffb6:	48 89 85 00 fb ff ff 	mov    %rax,-0x500(%rbp)
    ffbd:	48 c7 85 08 fb ff ff 	movq   $0x0,-0x4f8(%rbp)
    ffc4:	00 00 00 00 
    ffc8:	48 8d 05 f5 bc 00 00 	lea    0xbcf5(%rip),%rax        # 1bcc4 <g_408+0x4>
    ffcf:	48 89 85 10 fb ff ff 	mov    %rax,-0x4f0(%rbp)
    ffd6:	48 8d 05 87 bc 00 00 	lea    0xbc87(%rip),%rax        # 1bc64 <g_280+0x4>
    ffdd:	48 89 85 18 fb ff ff 	mov    %rax,-0x4e8(%rbp)
    ffe4:	48 8d 05 3d 04 01 00 	lea    0x1043d(%rip),%rax        # 20428 <g_161>
    ffeb:	48 89 85 20 fb ff ff 	mov    %rax,-0x4e0(%rbp)
    fff2:	48 8d 05 cb bc 00 00 	lea    0xbccb(%rip),%rax        # 1bcc4 <g_408+0x4>
    fff9:	48 89 85 28 fb ff ff 	mov    %rax,-0x4d8(%rbp)
   10000:	48 8d 05 5d bc 00 00 	lea    0xbc5d(%rip),%rax        # 1bc64 <g_280+0x4>
   10007:	48 89 85 30 fb ff ff 	mov    %rax,-0x4d0(%rbp)
   1000e:	48 8d 05 4f bc 00 00 	lea    0xbc4f(%rip),%rax        # 1bc64 <g_280+0x4>
   10015:	48 89 85 38 fb ff ff 	mov    %rax,-0x4c8(%rbp)
   1001c:	48 8d 85 98 e8 ff ff 	lea    -0x1768(%rbp),%rax
   10023:	48 89 85 40 fb ff ff 	mov    %rax,-0x4c0(%rbp)
   1002a:	48 c7 85 48 fb ff ff 	movq   $0x0,-0x4b8(%rbp)
   10031:	00 00 00 00 
   10035:	48 c7 85 50 fb ff ff 	movq   $0x0,-0x4b0(%rbp)
   1003c:	00 00 00 00 
   10040:	48 c7 85 58 fb ff ff 	movq   $0x0,-0x4a8(%rbp)
   10047:	00 00 00 00 
   1004b:	48 8d 05 22 bd 00 00 	lea    0xbd22(%rip),%rax        # 1bd74 <g_744+0x4>
   10052:	48 89 85 60 fb ff ff 	mov    %rax,-0x4a0(%rbp)
   10059:	48 8d 05 64 bc 00 00 	lea    0xbc64(%rip),%rax        # 1bcc4 <g_408+0x4>
   10060:	48 89 85 68 fb ff ff 	mov    %rax,-0x498(%rbp)
   10067:	48 8d 05 ba 03 01 00 	lea    0x103ba(%rip),%rax        # 20428 <g_161>
   1006e:	48 89 85 70 fb ff ff 	mov    %rax,-0x490(%rbp)
   10075:	48 8d 05 48 bc 00 00 	lea    0xbc48(%rip),%rax        # 1bcc4 <g_408+0x4>
   1007c:	48 89 85 78 fb ff ff 	mov    %rax,-0x488(%rbp)
   10083:	48 c7 85 80 fb ff ff 	movq   $0x0,-0x480(%rbp)
   1008a:	00 00 00 00 
   1008e:	48 8d 05 93 03 01 00 	lea    0x10393(%rip),%rax        # 20428 <g_161>
   10095:	48 89 85 88 fb ff ff 	mov    %rax,-0x478(%rbp)
   1009c:	48 8d 85 98 e8 ff ff 	lea    -0x1768(%rbp),%rax
   100a3:	48 89 85 90 fb ff ff 	mov    %rax,-0x470(%rbp)
   100aa:	48 8d 05 c3 bc 00 00 	lea    0xbcc3(%rip),%rax        # 1bd74 <g_744+0x4>
   100b1:	48 89 85 98 fb ff ff 	mov    %rax,-0x468(%rbp)
   100b8:	48 8d 05 a5 bb 00 00 	lea    0xbba5(%rip),%rax        # 1bc64 <g_280+0x4>
   100bf:	48 89 85 a0 fb ff ff 	mov    %rax,-0x460(%rbp)
   100c6:	48 8d 05 97 bb 00 00 	lea    0xbb97(%rip),%rax        # 1bc64 <g_280+0x4>
   100cd:	48 89 85 a8 fb ff ff 	mov    %rax,-0x458(%rbp)
   100d4:	48 8d 05 89 bb 00 00 	lea    0xbb89(%rip),%rax        # 1bc64 <g_280+0x4>
   100db:	48 89 85 b0 fb ff ff 	mov    %rax,-0x450(%rbp)
   100e2:	48 8d 05 db bb 00 00 	lea    0xbbdb(%rip),%rax        # 1bcc4 <g_408+0x4>
   100e9:	48 89 85 b8 fb ff ff 	mov    %rax,-0x448(%rbp)
   100f0:	48 c7 85 c0 fb ff ff 	movq   $0x0,-0x440(%rbp)
   100f7:	00 00 00 00 
   100fb:	48 8d 85 98 e8 ff ff 	lea    -0x1768(%rbp),%rax
   10102:	48 89 85 c8 fb ff ff 	mov    %rax,-0x438(%rbp)
   10109:	48 8d 85 98 e8 ff ff 	lea    -0x1768(%rbp),%rax
   10110:	48 89 85 d0 fb ff ff 	mov    %rax,-0x430(%rbp)
   10117:	48 8d 05 46 bb 00 00 	lea    0xbb46(%rip),%rax        # 1bc64 <g_280+0x4>
   1011e:	48 89 85 d8 fb ff ff 	mov    %rax,-0x428(%rbp)
   10125:	48 8d 05 38 bb 00 00 	lea    0xbb38(%rip),%rax        # 1bc64 <g_280+0x4>
   1012c:	48 89 85 e0 fb ff ff 	mov    %rax,-0x420(%rbp)
   10133:	48 8d 05 8a bb 00 00 	lea    0xbb8a(%rip),%rax        # 1bcc4 <g_408+0x4>
   1013a:	48 89 85 e8 fb ff ff 	mov    %rax,-0x418(%rbp)
   10141:	48 8d 05 1c bb 00 00 	lea    0xbb1c(%rip),%rax        # 1bc64 <g_280+0x4>
   10148:	48 89 85 f0 fb ff ff 	mov    %rax,-0x410(%rbp)
   1014f:	48 8d 05 d2 02 01 00 	lea    0x102d2(%rip),%rax        # 20428 <g_161>
   10156:	48 89 85 f8 fb ff ff 	mov    %rax,-0x408(%rbp)
   1015d:	48 8d 05 c4 02 01 00 	lea    0x102c4(%rip),%rax        # 20428 <g_161>
   10164:	48 89 85 00 fc ff ff 	mov    %rax,-0x400(%rbp)
   1016b:	48 8d 05 f2 ba 00 00 	lea    0xbaf2(%rip),%rax        # 1bc64 <g_280+0x4>
   10172:	48 89 85 08 fc ff ff 	mov    %rax,-0x3f8(%rbp)
   10179:	48 8d 05 e4 ba 00 00 	lea    0xbae4(%rip),%rax        # 1bc64 <g_280+0x4>
   10180:	48 89 85 10 fc ff ff 	mov    %rax,-0x3f0(%rbp)
   10187:	48 c7 85 18 fc ff ff 	movq   $0x0,-0x3e8(%rbp)
   1018e:	00 00 00 00 
   10192:	48 8d 05 2b bb 00 00 	lea    0xbb2b(%rip),%rax        # 1bcc4 <g_408+0x4>
   10199:	48 89 85 20 fc ff ff 	mov    %rax,-0x3e0(%rbp)
   101a0:	48 8d 05 cd bb 00 00 	lea    0xbbcd(%rip),%rax        # 1bd74 <g_744+0x4>
   101a7:	48 89 85 28 fc ff ff 	mov    %rax,-0x3d8(%rbp)
   101ae:	48 8d 05 73 02 01 00 	lea    0x10273(%rip),%rax        # 20428 <g_161>
   101b5:	48 89 85 30 fc ff ff 	mov    %rax,-0x3d0(%rbp)
   101bc:	48 8d 05 01 bb 00 00 	lea    0xbb01(%rip),%rax        # 1bcc4 <g_408+0x4>
   101c3:	48 89 85 38 fc ff ff 	mov    %rax,-0x3c8(%rbp)
   101ca:	48 c7 85 40 fc ff ff 	movq   $0x0,-0x3c0(%rbp)
   101d1:	00 00 00 00 
   101d5:	48 8d 05 e8 ba 00 00 	lea    0xbae8(%rip),%rax        # 1bcc4 <g_408+0x4>
   101dc:	48 89 85 48 fc ff ff 	mov    %rax,-0x3b8(%rbp)
   101e3:	48 8d 05 7a ba 00 00 	lea    0xba7a(%rip),%rax        # 1bc64 <g_280+0x4>
   101ea:	48 89 85 50 fc ff ff 	mov    %rax,-0x3b0(%rbp)
   101f1:	48 8d 05 7c bb 00 00 	lea    0xbb7c(%rip),%rax        # 1bd74 <g_744+0x4>
   101f8:	48 89 85 58 fc ff ff 	mov    %rax,-0x3a8(%rbp)
   101ff:	48 8d 05 be ba 00 00 	lea    0xbabe(%rip),%rax        # 1bcc4 <g_408+0x4>
   10206:	48 89 85 60 fc ff ff 	mov    %rax,-0x3a0(%rbp)
   1020d:	c7 85 58 e9 ff ff 00 	movl   $0x0,-0x16a8(%rbp)
   10214:	00 00 00 
   10217:	48 c7 85 b0 ea ff ff 	movq   $0x0,-0x1550(%rbp)
   1021e:	00 00 00 00 
   10222:	48 8d 85 a0 e9 ff ff 	lea    -0x1660(%rbp),%rax
   10229:	48 89 85 b8 ea ff ff 	mov    %rax,-0x1548(%rbp)
   10230:	48 8d 45 bf          	lea    -0x41(%rbp),%rax
   10234:	48 89 85 c0 ea ff ff 	mov    %rax,-0x1540(%rbp)
   1023b:	c7 85 40 e9 ff ff 00 	movl   $0x0,-0x16c0(%rbp)
   10242:	00 00 00 
   10245:	eb 6f                	jmp    102b6 <func_50+0x1269>
   10247:	48 8d 05 2a ea 00 00 	lea    0xea2a(%rip),%rax        # 1ec78 <g_133+0x1d8>
   1024e:	48 8d 15 23 ea 00 00 	lea    0xea23(%rip),%rdx        # 1ec78 <g_133+0x1d8>
   10255:	48 8b 00             	mov    (%rax),%rax
   10258:	48 89 02             	mov    %rax,(%rdx)
   1025b:	48 8b 05 3e f0 00 00 	mov    0xf03e(%rip),%rax        # 1f2a0 <g_693>
   10262:	48 8b 00             	mov    (%rax),%rax
   10265:	8b 00                	mov    (%rax),%eax
   10267:	85 c0                	test   %eax,%eax
   10269:	75 43                	jne    102ae <func_50+0x1261>
   1026b:	48 8b 05 36 f0 00 00 	mov    0xf036(%rip),%rax        # 1f2a8 <g_734>
   10272:	48 8b 08             	mov    (%rax),%rcx
   10275:	48 8b 58 08          	mov    0x8(%rax),%rbx
   10279:	48 89 0d f0 ba 00 00 	mov    %rcx,0xbaf0(%rip)        # 1bd70 <g_744>
   10280:	48 89 1d f1 ba 00 00 	mov    %rbx,0xbaf1(%rip)        # 1bd78 <g_744+0x8>
   10287:	0f b7 50 10          	movzwl 0x10(%rax),%edx
   1028b:	66 89 15 ee ba 00 00 	mov    %dx,0xbaee(%rip)        # 1bd80 <g_744+0x10>
   10292:	0f b6 40 12          	movzbl 0x12(%rax),%eax
   10296:	88 05 e6 ba 00 00    	mov    %al,0xbae6(%rip)        # 1bd82 <g_744+0x12>
   1029c:	48 8b 85 88 e8 ff ff 	mov    -0x1778(%rbp),%rax
   102a3:	48 8b 00             	mov    (%rax),%rax
   102a6:	8b 00                	mov    (%rax),%eax
   102a8:	85 c0                	test   %eax,%eax
   102aa:	75 15                	jne    102c1 <func_50+0x1274>
   102ac:	eb 01                	jmp    102af <func_50+0x1262>
   102ae:	90                   	nop
   102af:	83 85 40 e9 ff ff 01 	addl   $0x1,-0x16c0(%rbp)
   102b6:	83 bd 40 e9 ff ff 03 	cmpl   $0x3,-0x16c0(%rbp)
   102bd:	7e 88                	jle    10247 <func_50+0x11fa>
   102bf:	eb 01                	jmp    102c2 <func_50+0x1275>
   102c1:	90                   	nop
   102c2:	48 8b 85 60 ea ff ff 	mov    -0x15a0(%rbp),%rax
   102c9:	c7 00 ff ff ff ff    	movl   $0xffffffff,(%rax)
   102cf:	66 c7 85 98 e8 ff ff 	movw   $0xffff,-0x1768(%rbp)
   102d6:	ff ff 
   102d8:	0f b7 85 98 e8 ff ff 	movzwl -0x1768(%rbp),%eax
   102df:	8b 15 3b b9 00 00    	mov    0xb93b(%rip),%edx        # 1bc20 <g_247+0x20>
   102e5:	0f b7 c0             	movzwl %ax,%eax
   102e8:	21 d0                	and    %edx,%eax
   102ea:	89 05 30 b9 00 00    	mov    %eax,0xb930(%rip)        # 1bc20 <g_247+0x20>
   102f0:	48 8b 85 60 ea ff ff 	mov    -0x15a0(%rbp),%rax
   102f7:	8b 10                	mov    (%rax),%edx
   102f9:	48 8b 85 88 e8 ff ff 	mov    -0x1778(%rbp),%rax
   10300:	48 8b 00             	mov    (%rax),%rax
   10303:	8b 00                	mov    (%rax),%eax
   10305:	31 c2                	xor    %eax,%edx
   10307:	48 8b 85 60 ea ff ff 	mov    -0x15a0(%rbp),%rax
   1030e:	89 10                	mov    %edx,(%rax)
   10310:	0f b7 85 7c e8 ff ff 	movzwl -0x1784(%rbp),%eax
   10317:	0f b7 d8             	movzwl %ax,%ebx
   1031a:	48 8b 05 5a ba 00 00 	mov    0xba5a(%rip),%rax        # 1bd7b <g_744+0xb>
   10321:	89 c2                	mov    %eax,%edx
   10323:	48 8b 85 a0 ea ff ff 	mov    -0x1560(%rbp),%rax
   1032a:	89 10                	mov    %edx,(%rax)
   1032c:	0f b7 05 f5 00 01 00 	movzwl 0x100f5(%rip),%eax        # 20428 <g_161>
   10333:	83 c0 01             	add    $0x1,%eax
   10336:	66 89 05 eb 00 01 00 	mov    %ax,0x100eb(%rip)        # 20428 <g_161>
   1033d:	0f b7 05 e4 00 01 00 	movzwl 0x100e4(%rip),%eax        # 20428 <g_161>
   10344:	66 85 c0             	test   %ax,%ax
   10347:	74 4a                	je     10393 <func_50+0x1346>
   10349:	48 8b 05 98 f3 00 00 	mov    0xf398(%rip),%rax        # 1f6e8 <g_763+0xc8>
   10350:	48 85 c0             	test   %rax,%rax
   10353:	0f 95 c0             	setne  %al
   10356:	0f b6 c0             	movzbl %al,%eax
   10359:	be 00 00 00 00       	mov    $0x0,%esi
   1035e:	89 c7                	mov    %eax,%edi
   10360:	e8 8d 8e ff ff       	callq  91f2 <safe_sub_func_int8_t_s_s>
   10365:	48 8b 85 88 e8 ff ff 	mov    -0x1778(%rbp),%rax
   1036c:	48 8b 00             	mov    (%rax),%rax
   1036f:	8b 00                	mov    (%rax),%eax
   10371:	89 c2                	mov    %eax,%edx
   10373:	8b 85 78 ed ff ff    	mov    -0x1288(%rbp),%eax
   10379:	39 c2                	cmp    %eax,%edx
   1037b:	0f 93 c0             	setae  %al
   1037e:	0f b6 d0             	movzbl %al,%edx
   10381:	0f bf 85 7c e8 ff ff 	movswl -0x1784(%rbp),%eax
   10388:	39 c2                	cmp    %eax,%edx
   1038a:	74 07                	je     10393 <func_50+0x1346>
   1038c:	b8 01 00 00 00       	mov    $0x1,%eax
   10391:	eb 05                	jmp    10398 <func_50+0x134b>
   10393:	b8 00 00 00 00       	mov    $0x0,%eax
   10398:	f7 d0                	not    %eax
   1039a:	0f b6 c0             	movzbl %al,%eax
   1039d:	89 c6                	mov    %eax,%esi
   1039f:	bf 00 00 00 00       	mov    $0x0,%edi
   103a4:	e8 ea 97 ff ff       	callq  9b93 <safe_mul_func_uint8_t_u_u>
   103a9:	0f b6 d0             	movzbl %al,%edx
   103ac:	48 8b 85 b8 ea ff ff 	mov    -0x1548(%rbp),%rax
   103b3:	48 89 10             	mov    %rdx,(%rax)
   103b6:	48 8b 85 b8 ea ff ff 	mov    -0x1548(%rbp),%rax
   103bd:	48 8b 00             	mov    (%rax),%rax
   103c0:	8b 15 aa b9 00 00    	mov    0xb9aa(%rip),%edx        # 1bd70 <g_744>
   103c6:	89 d2                	mov    %edx,%edx
   103c8:	48 21 d0             	and    %rdx,%rax
   103cb:	48 85 c0             	test   %rax,%rax
   103ce:	8b 85 58 e9 ff ff    	mov    -0x16a8(%rbp),%eax
   103d4:	09 85 20 e9 ff ff    	or     %eax,-0x16e0(%rbp)
   103da:	48 8b 85 60 ea ff ff 	mov    -0x15a0(%rbp),%rax
   103e1:	8b 00                	mov    (%rax),%eax
   103e3:	0b 85 20 e9 ff ff    	or     -0x16e0(%rbp),%eax
   103e9:	89 c2                	mov    %eax,%edx
   103eb:	0f b6 05 1a b0 00 00 	movzbl 0xb01a(%rip),%eax        # 1b40c <g_73+0x4>
   103f2:	0f b6 c0             	movzbl %al,%eax
   103f5:	39 c2                	cmp    %eax,%edx
   103f7:	0f 9f c0             	setg   %al
   103fa:	0f b6 c0             	movzbl %al,%eax
   103fd:	89 de                	mov    %ebx,%esi
   103ff:	89 c7                	mov    %eax,%edi
   10401:	e8 56 99 ff ff       	callq  9d5c <safe_mod_func_uint16_t_u_u>
   10406:	0f b7 d0             	movzwl %ax,%edx
   10409:	0f bf 85 7c e8 ff ff 	movswl -0x1784(%rbp),%eax
   10410:	39 c2                	cmp    %eax,%edx
   10412:	0f 9d c0             	setge  %al
   10415:	0f b6 d0             	movzbl %al,%edx
   10418:	0f b7 05 55 b9 00 00 	movzwl 0xb955(%rip),%eax        # 1bd74 <g_744+0x4>
   1041f:	0f b7 c0             	movzwl %ax,%eax
   10422:	39 c2                	cmp    %eax,%edx
   10424:	0f 9f c0             	setg   %al
   10427:	0f b6 d0             	movzbl %al,%edx
   1042a:	48 8b 85 c0 ea ff ff 	mov    -0x1540(%rbp),%rax
   10431:	0f b6 00             	movzbl (%rax),%eax
   10434:	21 c2                	and    %eax,%edx
   10436:	48 8b 85 c0 ea ff ff 	mov    -0x1540(%rbp),%rax
   1043d:	88 10                	mov    %dl,(%rax)
   1043f:	66 81 bd 7c e8 ff ff 	cmpw   $0x3db3,-0x1784(%rbp)
   10446:	b3 3d 
   10448:	0f 95 c0             	setne  %al
   1044b:	0f b6 c0             	movzbl %al,%eax
   1044e:	89 c2                	mov    %eax,%edx
   10450:	0f b7 05 59 b9 00 00 	movzwl 0xb959(%rip),%eax        # 1bdb0 <g_770>
   10457:	09 d0                	or     %edx,%eax
   10459:	66 89 05 50 b9 00 00 	mov    %ax,0xb950(%rip)        # 1bdb0 <g_770>
   10460:	48 8b 05 04 b8 00 00 	mov    0xb804(%rip),%rax        # 1bc6b <g_280+0xb>
   10467:	48 83 c0 01          	add    $0x1,%rax
   1046b:	48 89 05 f9 b7 00 00 	mov    %rax,0xb7f9(%rip)        # 1bc6b <g_280+0xb>
   10472:	48 8b 05 f2 b7 00 00 	mov    0xb7f2(%rip),%rax        # 1bc6b <g_280+0xb>
   10479:	48 83 f8 04          	cmp    $0x4,%rax
   1047d:	0f 8e 63 f6 ff ff    	jle    fae6 <func_50+0xa99>
   10483:	0f b6 05 3c b8 00 00 	movzbl 0xb83c(%rip),%eax        # 1bcc6 <g_408+0x6>
   1048a:	83 c0 01             	add    $0x1,%eax
   1048d:	88 05 33 b8 00 00    	mov    %al,0xb833(%rip)        # 1bcc6 <g_408+0x6>
   10493:	0f b6 05 2c b8 00 00 	movzbl 0xb82c(%rip),%eax        # 1bcc6 <g_408+0x6>
   1049a:	3c 01                	cmp    $0x1,%al
   1049c:	0f 86 48 f3 ff ff    	jbe    f7ea <func_50+0x79d>
   104a2:	c7 05 a4 b7 00 00 00 	movl   $0x0,0xb7a4(%rip)        # 1bc50 <g_248>
   104a9:	00 00 00 
   104ac:	e9 f5 05 00 00       	jmpq   10aa6 <func_50+0x1a59>
   104b1:	48 8d 05 88 ff 00 00 	lea    0xff88(%rip),%rax        # 20440 <g_550>
   104b8:	48 89 85 e8 e9 ff ff 	mov    %rax,-0x1618(%rbp)
   104bf:	48 8d 05 b5 b8 00 00 	lea    0xb8b5(%rip),%rax        # 1bd7b <g_744+0xb>
   104c6:	48 89 85 a8 e9 ff ff 	mov    %rax,-0x1658(%rbp)
   104cd:	48 8d 85 a8 e9 ff ff 	lea    -0x1658(%rbp),%rax
   104d4:	48 89 85 f0 e9 ff ff 	mov    %rax,-0x1610(%rbp)
   104db:	c7 85 f0 e8 ff ff ff 	movl   $0xffffffff,-0x1710(%rbp)
   104e2:	ff ff ff 
   104e5:	48 8d 05 84 b8 00 00 	lea    0xb884(%rip),%rax        # 1bd70 <g_744>
   104ec:	48 89 85 e0 e9 ff ff 	mov    %rax,-0x1620(%rbp)
   104f3:	c7 85 e0 e8 ff ff a1 	movl   $0x5d8385a1,-0x1720(%rbp)
   104fa:	85 83 5d 
   104fd:	c7 85 e4 e8 ff ff 00 	movl   $0x0,-0x171c(%rbp)
   10504:	00 00 00 
   10507:	c7 85 e8 e8 ff ff 09 	movl   $0x9,-0x1718(%rbp)
   1050e:	00 00 00 
   10511:	c7 85 ec e8 ff ff 07 	movl   $0x7,-0x1714(%rbp)
   10518:	00 00 00 
   1051b:	c7 85 c4 e8 ff ff 64 	movl   $0xe6dc5564,-0x173c(%rbp)
   10522:	55 dc e6 
   10525:	c7 85 c8 e8 ff ff ff 	movl   $0xffffffff,-0x1738(%rbp)
   1052c:	ff ff ff 
   1052f:	c7 85 cc e8 ff ff f6 	movl   $0x3b7137f6,-0x1734(%rbp)
   10536:	37 71 3b 
   10539:	c7 85 d0 e8 ff ff 45 	movl   $0xb5a08745,-0x1730(%rbp)
   10540:	87 a0 b5 
   10543:	c7 85 d4 e8 ff ff b9 	movl   $0xf57ec9b9,-0x172c(%rbp)
   1054a:	c9 7e f5 
   1054d:	c7 85 d8 e8 ff ff fa 	movl   $0xfffffffa,-0x1728(%rbp)
   10554:	ff ff ff 
   10557:	c7 85 dc e8 ff ff c4 	movl   $0x62c491c4,-0x1724(%rbp)
   1055e:	91 c4 62 
   10561:	48 c7 05 0f b8 00 00 	movq   $0x6,0xb80f(%rip)        # 1bd7b <g_744+0xb>
   10568:	06 00 00 00 
   1056c:	e9 ed 01 00 00       	jmpq   1075e <func_50+0x1711>
   10571:	c7 85 a4 e8 ff ff fb 	movl   $0xfffffffb,-0x175c(%rbp)
   10578:	ff ff ff 
   1057b:	48 8d 05 f4 b7 00 00 	lea    0xb7f4(%rip),%rax        # 1bd76 <g_744+0x6>
   10582:	48 89 85 b8 e9 ff ff 	mov    %rax,-0x1648(%rbp)
   10589:	83 85 a4 e8 ff ff 01 	addl   $0x1,-0x175c(%rbp)
   10590:	c7 85 a4 e8 ff ff 00 	movl   $0x0,-0x175c(%rbp)
   10597:	00 00 00 
   1059a:	e9 a0 01 00 00       	jmpq   1073f <func_50+0x16f2>
   1059f:	48 8d 85 30 f8 ff ff 	lea    -0x7d0(%rbp),%rax
   105a6:	48 83 c0 18          	add    $0x18,%rax
   105aa:	48 89 85 b0 e9 ff ff 	mov    %rax,-0x1650(%rbp)
   105b1:	c7 85 30 ed ff ff f8 	movl   $0xfffffff8,-0x12d0(%rbp)
   105b8:	ff ff ff 
   105bb:	c7 85 34 ed ff ff 08 	movl   $0x8,-0x12cc(%rbp)
   105c2:	00 00 00 
   105c5:	c7 85 38 ed ff ff f8 	movl   $0xfffffff8,-0x12c8(%rbp)
   105cc:	ff ff ff 
   105cf:	c7 85 3c ed ff ff 08 	movl   $0x8,-0x12c4(%rbp)
   105d6:	00 00 00 
   105d9:	c7 85 40 ed ff ff f8 	movl   $0xfffffff8,-0x12c0(%rbp)
   105e0:	ff ff ff 
   105e3:	c7 85 44 ed ff ff 08 	movl   $0x8,-0x12bc(%rbp)
   105ea:	00 00 00 
   105ed:	c7 85 48 ed ff ff f8 	movl   $0xfffffff8,-0x12b8(%rbp)
   105f4:	ff ff ff 
   105f7:	c7 85 4c ed ff ff 08 	movl   $0x8,-0x12b4(%rbp)
   105fe:	00 00 00 
   10601:	c7 85 50 ed ff ff f8 	movl   $0xfffffff8,-0x12b0(%rbp)
   10608:	ff ff ff 
   1060b:	48 8d 05 b9 b6 00 00 	lea    0xb6b9(%rip),%rax        # 1bccb <g_408+0xb>
   10612:	48 89 85 88 ea ff ff 	mov    %rax,-0x1578(%rbp)
   10619:	c7 85 50 e9 ff ff 03 	movl   $0x3,-0x16b0(%rbp)
   10620:	00 00 00 
   10623:	c7 85 48 e9 ff ff 00 	movl   $0x0,-0x16b8(%rbp)
   1062a:	00 00 00 
   1062d:	eb 1e                	jmp    1064d <func_50+0x1600>
   1062f:	8b 85 48 e9 ff ff    	mov    -0x16b8(%rbp),%eax
   10635:	48 98                	cltq   
   10637:	48 8d 15 12 5b 00 00 	lea    0x5b12(%rip),%rdx        # 16150 <g_786>
   1063e:	48 89 94 c5 30 f8 ff 	mov    %rdx,-0x7d0(%rbp,%rax,8)
   10645:	ff 
   10646:	83 85 48 e9 ff ff 01 	addl   $0x1,-0x16b8(%rbp)
   1064d:	83 bd 48 e9 ff ff 06 	cmpl   $0x6,-0x16b8(%rbp)
   10654:	7e d9                	jle    1062f <func_50+0x15e2>
   10656:	8b 85 34 ed ff ff    	mov    -0x12cc(%rbp),%eax
   1065c:	48 63 d0             	movslq %eax,%rdx
   1065f:	48 8b 85 88 ea ff ff 	mov    -0x1578(%rbp),%rax
   10666:	48 89 10             	mov    %rdx,(%rax)
   10669:	48 8b 85 88 ea ff ff 	mov    -0x1578(%rbp),%rax
   10670:	48 8b 00             	mov    (%rax),%rax
   10673:	48 89 c3             	mov    %rax,%rbx
   10676:	48 8b 85 88 e8 ff ff 	mov    -0x1778(%rbp),%rax
   1067d:	48 8b 00             	mov    (%rax),%rax
   10680:	8b 00                	mov    (%rax),%eax
   10682:	89 c1                	mov    %eax,%ecx
   10684:	48 8b 85 b0 e9 ff ff 	mov    -0x1650(%rbp),%rax
   1068b:	48 8d 15 ae fd 00 00 	lea    0xfdae(%rip),%rdx        # 20440 <g_550>
   10692:	48 89 10             	mov    %rdx,(%rax)
   10695:	66 83 bd 7c e8 ff ff 	cmpw   $0xffff,-0x1784(%rbp)
   1069c:	ff 
   1069d:	75 0a                	jne    106a9 <func_50+0x165c>
   1069f:	48 83 bd f0 e9 ff ff 	cmpq   $0x0,-0x1610(%rbp)
   106a6:	00 
   106a7:	74 07                	je     106b0 <func_50+0x1663>
   106a9:	b8 01 00 00 00       	mov    $0x1,%eax
   106ae:	eb 05                	jmp    106b5 <func_50+0x1668>
   106b0:	b8 00 00 00 00       	mov    $0x0,%eax
   106b5:	89 ce                	mov    %ecx,%esi
   106b7:	89 c7                	mov    %eax,%edi
   106b9:	e8 12 98 ff ff       	callq  9ed0 <safe_sub_func_uint32_t_u_u>
   106be:	89 c0                	mov    %eax,%eax
   106c0:	48 89 de             	mov    %rbx,%rsi
   106c3:	48 89 c7             	mov    %rax,%rdi
   106c6:	e8 80 99 ff ff       	callq  a04b <safe_sub_func_uint64_t_u_u>
   106cb:	89 85 30 ed ff ff    	mov    %eax,-0x12d0(%rbp)
   106d1:	8b 85 30 ed ff ff    	mov    -0x12d0(%rbp),%eax
   106d7:	48 98                	cltq   
   106d9:	48 be 06 1e 3e b0 e0 	movabs $0xf58995e0b03e1e06,%rsi
   106e0:	95 89 f5 
   106e3:	48 89 c7             	mov    %rax,%rdi
   106e6:	e8 0c 93 ff ff       	callq  99f7 <safe_div_func_int64_t_s_s>
   106eb:	0f be d0             	movsbl %al,%edx
   106ee:	48 83 bd b8 e9 ff ff 	cmpq   $0x0,-0x1648(%rbp)
   106f5:	00 
   106f6:	0f 95 c0             	setne  %al
   106f9:	0f b6 c0             	movzbl %al,%eax
   106fc:	89 d6                	mov    %edx,%esi
   106fe:	89 c7                	mov    %eax,%edi
   10700:	e8 2c 8b ff ff       	callq  9231 <safe_mod_func_int8_t_s_s>
   10705:	8b 85 a4 e8 ff ff    	mov    -0x175c(%rbp),%eax
   1070b:	83 c8 01             	or     $0x1,%eax
   1070e:	89 85 50 e9 ff ff    	mov    %eax,-0x16b0(%rbp)
   10714:	48 8b 85 60 ea ff ff 	mov    -0x15a0(%rbp),%rax
   1071b:	8b 10                	mov    (%rax),%edx
   1071d:	48 8b 85 60 ea ff ff 	mov    -0x15a0(%rbp),%rax
   10724:	89 10                	mov    %edx,(%rax)
   10726:	48 8b 85 60 ea ff ff 	mov    -0x15a0(%rbp),%rax
   1072d:	8b 10                	mov    (%rax),%edx
   1072f:	48 8b 85 60 ea ff ff 	mov    -0x15a0(%rbp),%rax
   10736:	89 10                	mov    %edx,(%rax)
   10738:	83 85 a4 e8 ff ff 01 	addl   $0x1,-0x175c(%rbp)
   1073f:	83 bd a4 e8 ff ff 01 	cmpl   $0x1,-0x175c(%rbp)
   10746:	0f 86 53 fe ff ff    	jbe    1059f <func_50+0x1552>
   1074c:	48 8b 05 28 b6 00 00 	mov    0xb628(%rip),%rax        # 1bd7b <g_744+0xb>
   10753:	48 83 e8 01          	sub    $0x1,%rax
   10757:	48 89 05 1d b6 00 00 	mov    %rax,0xb61d(%rip)        # 1bd7b <g_744+0xb>
   1075e:	48 8b 05 16 b6 00 00 	mov    0xb616(%rip),%rax        # 1bd7b <g_744+0xb>
   10765:	48 83 f8 01          	cmp    $0x1,%rax
   10769:	0f 8f 02 fe ff ff    	jg     10571 <func_50+0x1524>
   1076f:	48 c7 05 2e b5 00 00 	movq   $0x0,0xb52e(%rip)        # 1bca8 <g_386>
   10776:	00 00 00 00 
   1077a:	90                   	nop
   1077b:	48 8b 05 26 b5 00 00 	mov    0xb526(%rip),%rax        # 1bca8 <g_386>
   10782:	48 83 f8 06          	cmp    $0x6,%rax
   10786:	7f 4c                	jg     107d4 <func_50+0x1787>
   10788:	48 c7 05 e8 b5 00 00 	movq   $0x0,0xb5e8(%rip)        # 1bd7b <g_744+0xb>
   1078f:	00 00 00 00 
   10793:	eb 24                	jmp    107b9 <func_50+0x176c>
   10795:	8b 85 74 f3 ff ff    	mov    -0xc8c(%rbp),%eax
   1079b:	23 85 f0 e8 ff ff    	and    -0x1710(%rbp),%eax
   107a1:	89 85 74 f3 ff ff    	mov    %eax,-0xc8c(%rbp)
   107a7:	48 8b 05 cd b5 00 00 	mov    0xb5cd(%rip),%rax        # 1bd7b <g_744+0xb>
   107ae:	48 83 c0 01          	add    $0x1,%rax
   107b2:	48 89 05 c2 b5 00 00 	mov    %rax,0xb5c2(%rip)        # 1bd7b <g_744+0xb>
   107b9:	48 8b 05 bb b5 00 00 	mov    0xb5bb(%rip),%rax        # 1bd7b <g_744+0xb>
   107c0:	48 83 f8 06          	cmp    $0x6,%rax
   107c4:	7e cf                	jle    10795 <func_50+0x1748>
   107c6:	48 8b 85 60 ea ff ff 	mov    -0x15a0(%rbp),%rax
   107cd:	8b 00                	mov    (%rax),%eax
   107cf:	e9 85 0c 00 00       	jmpq   11459 <func_50+0x240c>
   107d4:	66 c7 05 87 b4 00 00 	movw   $0x0,0xb487(%rip)        # 1bc64 <g_280+0x4>
   107db:	00 00 
   107dd:	e9 a1 02 00 00       	jmpq   10a83 <func_50+0x1a36>
   107e2:	48 c7 85 c8 e9 ff ff 	movq   $0x0,-0x1638(%rbp)
   107e9:	00 00 00 00 
   107ed:	48 8d 05 bc b5 00 00 	lea    0xb5bc(%rip),%rax        # 1bdb0 <g_770>
   107f4:	48 89 85 d0 e9 ff ff 	mov    %rax,-0x1630(%rbp)
   107fb:	48 c7 85 d8 e9 ff ff 	movq   $0x0,-0x1628(%rbp)
   10802:	00 00 00 00 
   10806:	48 8d 85 30 f8 ff ff 	lea    -0x7d0(%rbp),%rax
   1080d:	48 8d 15 ac d8 00 00 	lea    0xd8ac(%rip),%rdx        # 1e0c0 <g_2112+0x1410>
   10814:	b9 48 00 00 00       	mov    $0x48,%ecx
   10819:	48 89 c7             	mov    %rax,%rdi
   1081c:	48 89 d6             	mov    %rdx,%rsi
   1081f:	f3 48 a5             	rep movsq %ds:(%rsi),%es:(%rdi)
   10822:	48 8d 05 57 b4 00 00 	lea    0xb457(%rip),%rax        # 1bc80 <g_313>
   10829:	48 89 85 c0 e9 ff ff 	mov    %rax,-0x1640(%rbp)
   10830:	c7 85 ac e8 ff ff c8 	movl   $0xe8bf5fc8,-0x1754(%rbp)
   10837:	5f bf e8 
   1083a:	c7 85 b0 e8 ff ff 01 	movl   $0x1,-0x1750(%rbp)
   10841:	00 00 00 
   10844:	c7 85 b4 e8 ff ff ff 	movl   $0xffffffff,-0x174c(%rbp)
   1084b:	ff ff ff 
   1084e:	c7 85 b8 e8 ff ff 02 	movl   $0x2,-0x1748(%rbp)
   10855:	00 00 00 
   10858:	c7 85 bc e8 ff ff 0a 	movl   $0xf680b70a,-0x1744(%rbp)
   1085f:	b7 80 f6 
   10862:	c7 85 c0 e8 ff ff 71 	movl   $0xb2e4cb71,-0x1740(%rbp)
   10869:	cb e4 b2 
   1086c:	c6 85 97 e8 ff ff fd 	movb   $0xfd,-0x1769(%rbp)
   10873:	c7 85 a8 e8 ff ff 00 	movl   $0x0,-0x1758(%rbp)
   1087a:	00 00 00 
   1087d:	eb 1a                	jmp    10899 <func_50+0x184c>
   1087f:	8b 85 a8 e8 ff ff    	mov    -0x1758(%rbp),%eax
   10885:	48 98                	cltq   
   10887:	c7 84 85 30 ed ff ff 	movl   $0xfffffffc,-0x12d0(%rbp,%rax,4)
   1088e:	fc ff ff ff 
   10892:	83 85 a8 e8 ff ff 01 	addl   $0x1,-0x1758(%rbp)
   10899:	83 bd a8 e8 ff ff 00 	cmpl   $0x0,-0x1758(%rbp)
   108a0:	7e dd                	jle    1087f <func_50+0x1832>
   108a2:	8b 85 74 f3 ff ff    	mov    -0xc8c(%rbp),%eax
   108a8:	48 63 d8             	movslq %eax,%rbx
   108ab:	8b 05 df b3 00 00    	mov    0xb3df(%rip),%eax        # 1bc90 <g_369>
   108b1:	89 c2                	mov    %eax,%edx
   108b3:	48 8b 05 b1 b3 00 00 	mov    0xb3b1(%rip),%rax        # 1bc6b <g_280+0xb>
   108ba:	48 39 c2             	cmp    %rax,%rdx
   108bd:	0f 9d c0             	setge  %al
   108c0:	44 0f b6 e0          	movzbl %al,%r12d
   108c4:	8b 95 74 f3 ff ff    	mov    -0xc8c(%rbp),%edx
   108ca:	48 8b 85 d0 e9 ff ff 	mov    -0x1630(%rbp),%rax
   108d1:	0f b7 00             	movzwl (%rax),%eax
   108d4:	f7 d0                	not    %eax
   108d6:	89 c1                	mov    %eax,%ecx
   108d8:	48 8b 85 d0 e9 ff ff 	mov    -0x1630(%rbp),%rax
   108df:	66 89 08             	mov    %cx,(%rax)
   108e2:	48 8b 85 88 e8 ff ff 	mov    -0x1778(%rbp),%rax
   108e9:	48 8b 00             	mov    (%rax),%rax
   108ec:	8b 00                	mov    (%rax),%eax
   108ee:	83 f8 01             	cmp    $0x1,%eax
   108f1:	74 0e                	je     10901 <func_50+0x18b4>
   108f3:	48 8b 85 80 e8 ff ff 	mov    -0x1780(%rbp),%rax
   108fa:	0f b6 00             	movzbl (%rax),%eax
   108fd:	84 c0                	test   %al,%al
   108ff:	75 07                	jne    10908 <func_50+0x18bb>
   10901:	b8 01 00 00 00       	mov    $0x1,%eax
   10906:	eb 05                	jmp    1090d <func_50+0x18c0>
   10908:	b8 00 00 00 00       	mov    $0x0,%eax
   1090d:	0f b6 c0             	movzbl %al,%eax
   10910:	89 d6                	mov    %edx,%esi
   10912:	89 c7                	mov    %eax,%edi
   10914:	e8 74 93 ff ff       	callq  9c8d <safe_rshift_func_uint8_t_u_s>
   10919:	0f b7 85 7c e8 ff ff 	movzwl -0x1784(%rbp),%eax
   10920:	66 c1 e8 0f          	shr    $0xf,%ax
   10924:	0f b6 c0             	movzbl %al,%eax
   10927:	66 89 85 7c e8 ff ff 	mov    %ax,-0x1784(%rbp)
   1092e:	0f bf 85 7c e8 ff ff 	movswl -0x1784(%rbp),%eax
   10935:	be f6 ff ff ff       	mov    $0xfffffff6,%esi
   1093a:	89 c7                	mov    %eax,%edi
   1093c:	e8 92 8a ff ff       	callq  93d3 <safe_sub_func_int16_t_s_s>
   10941:	0f bf d0             	movswl %ax,%edx
   10944:	8b 85 74 f3 ff ff    	mov    -0xc8c(%rbp),%eax
   1094a:	39 c2                	cmp    %eax,%edx
   1094c:	0f 9e c0             	setle  %al
   1094f:	0f b6 c0             	movzbl %al,%eax
   10952:	41 39 c4             	cmp    %eax,%r12d
   10955:	48 89 de             	mov    %rbx,%rsi
   10958:	48 bf d2 85 b6 fe 9a 	movabs $0x93f62c9afeb685d2,%rdi
   1095f:	2c f6 93 
   10962:	e8 19 97 ff ff       	callq  a080 <safe_mod_func_uint64_t_u_u>
   10967:	48 89 05 ea b2 00 00 	mov    %rax,0xb2ea(%rip)        # 1bc58 <g_252>
   1096e:	48 8b 15 e3 b2 00 00 	mov    0xb2e3(%rip),%rdx        # 1bc58 <g_252>
   10975:	8b 85 74 f3 ff ff    	mov    -0xc8c(%rbp),%eax
   1097b:	48 98                	cltq   
   1097d:	48 39 c2             	cmp    %rax,%rdx
   10980:	0f 97 c0             	seta   %al
   10983:	0f b6 c0             	movzbl %al,%eax
   10986:	89 c6                	mov    %eax,%esi
   10988:	bf 07 00 00 00       	mov    $0x7,%edi
   1098d:	e8 63 8a ff ff       	callq  93f5 <safe_mul_func_int16_t_s_s>
   10992:	66 3d c8 00          	cmp    $0xc8,%ax
   10996:	0f 95 c0             	setne  %al
   10999:	0f b6 c0             	movzbl %al,%eax
   1099c:	be 00 00 00 00       	mov    $0x0,%esi
   109a1:	48 89 c7             	mov    %rax,%rdi
   109a4:	e8 85 96 ff ff       	callq  a02e <safe_add_func_uint64_t_u_u>
   109a9:	89 c2                	mov    %eax,%edx
   109ab:	48 8b 85 c0 e9 ff ff 	mov    -0x1640(%rbp),%rax
   109b2:	66 89 10             	mov    %dx,(%rax)
   109b5:	48 8b 85 c0 e9 ff ff 	mov    -0x1640(%rbp),%rax
   109bc:	0f b7 00             	movzwl (%rax),%eax
   109bf:	98                   	cwtl   
   109c0:	be 0b 00 00 00       	mov    $0xb,%esi
   109c5:	89 c7                	mov    %eax,%edi
   109c7:	e8 5e 8b ff ff       	callq  952a <safe_rshift_func_int16_t_s_s>
   109cc:	66 3d b7 00          	cmp    $0xb7,%ax
   109d0:	74 10                	je     109e2 <func_50+0x1995>
   109d2:	48 8b 05 2f ed 00 00 	mov    0xed2f(%rip),%rax        # 1f708 <g_815>
   109d9:	48 89 05 28 ed 00 00 	mov    %rax,0xed28(%rip)        # 1f708 <g_815>
   109e0:	eb 71                	jmp    10a53 <func_50+0x1a06>
   109e2:	48 8b 85 60 ea ff ff 	mov    -0x15a0(%rbp),%rax
   109e9:	8b 00                	mov    (%rax),%eax
   109eb:	31 85 ac e8 ff ff    	xor    %eax,-0x1754(%rbp)
   109f1:	48 8b 85 88 e8 ff ff 	mov    -0x1778(%rbp),%rax
   109f8:	48 8b 00             	mov    (%rax),%rax
   109fb:	8b 00                	mov    (%rax),%eax
   109fd:	85 c0                	test   %eax,%eax
   109ff:	75 6d                	jne    10a6e <func_50+0x1a21>
   10a01:	8b 35 25 fa 00 00    	mov    0xfa25(%rip),%esi        # 2042c <g_327>
   10a07:	0f b7 05 56 b2 00 00 	movzwl 0xb256(%rip),%eax        # 1bc64 <g_280+0x4>
   10a0e:	0f b7 c0             	movzwl %ax,%eax
   10a11:	8d 48 02             	lea    0x2(%rax),%ecx
   10a14:	48 8b 85 88 e8 ff ff 	mov    -0x1778(%rbp),%rax
   10a1b:	48 8b 10             	mov    (%rax),%rdx
   10a1e:	48 63 c9             	movslq %ecx,%rcx
   10a21:	89 f6                	mov    %esi,%esi
   10a23:	48 89 f0             	mov    %rsi,%rax
   10a26:	48 c1 e0 03          	shl    $0x3,%rax
   10a2a:	48 01 f0             	add    %rsi,%rax
   10a2d:	48 01 c8             	add    %rcx,%rax
   10a30:	48 8d 0c c5 00 00 00 	lea    0x0(,%rax,8),%rcx
   10a37:	00 
   10a38:	48 8d 05 61 e0 00 00 	lea    0xe061(%rip),%rax        # 1eaa0 <g_133>
   10a3f:	48 89 14 01          	mov    %rdx,(%rcx,%rax,1)
   10a43:	48 8b 85 88 e8 ff ff 	mov    -0x1778(%rbp),%rax
   10a4a:	48 8b 00             	mov    (%rax),%rax
   10a4d:	8b 00                	mov    (%rax),%eax
   10a4f:	85 c0                	test   %eax,%eax
   10a51:	75 1e                	jne    10a71 <func_50+0x1a24>
   10a53:	83 bd ac e8 ff ff 00 	cmpl   $0x0,-0x1754(%rbp)
   10a5a:	75 3a                	jne    10a96 <func_50+0x1a49>
   10a5c:	0f b6 85 97 e8 ff ff 	movzbl -0x1769(%rbp),%eax
   10a63:	83 c0 01             	add    $0x1,%eax
   10a66:	88 85 97 e8 ff ff    	mov    %al,-0x1769(%rbp)
   10a6c:	eb 04                	jmp    10a72 <func_50+0x1a25>
   10a6e:	90                   	nop
   10a6f:	eb 01                	jmp    10a72 <func_50+0x1a25>
   10a71:	90                   	nop
   10a72:	0f b7 05 eb b1 00 00 	movzwl 0xb1eb(%rip),%eax        # 1bc64 <g_280+0x4>
   10a79:	83 c0 01             	add    $0x1,%eax
   10a7c:	66 89 05 e1 b1 00 00 	mov    %ax,0xb1e1(%rip)        # 1bc64 <g_280+0x4>
   10a83:	0f b7 05 da b1 00 00 	movzwl 0xb1da(%rip),%eax        # 1bc64 <g_280+0x4>
   10a8a:	66 83 f8 06          	cmp    $0x6,%ax
   10a8e:	0f 86 4e fd ff ff    	jbe    107e2 <func_50+0x1795>
   10a94:	eb 01                	jmp    10a97 <func_50+0x1a4a>
   10a96:	90                   	nop
   10a97:	8b 05 b3 b1 00 00    	mov    0xb1b3(%rip),%eax        # 1bc50 <g_248>
   10a9d:	83 c0 01             	add    $0x1,%eax
   10aa0:	89 05 aa b1 00 00    	mov    %eax,0xb1aa(%rip)        # 1bc50 <g_248>
   10aa6:	8b 05 a4 b1 00 00    	mov    0xb1a4(%rip),%eax        # 1bc50 <g_248>
   10aac:	83 f8 06             	cmp    $0x6,%eax
   10aaf:	0f 8e fc f9 ff ff    	jle    104b1 <func_50+0x1464>
   10ab5:	8b 05 71 f9 00 00    	mov    0xf971(%rip),%eax        # 2042c <g_327>
   10abb:	83 c0 01             	add    $0x1,%eax
   10abe:	89 05 68 f9 00 00    	mov    %eax,0xf968(%rip)        # 2042c <g_327>
   10ac4:	8b 05 62 f9 00 00    	mov    0xf962(%rip),%eax        # 2042c <g_327>
   10aca:	83 f8 06             	cmp    $0x6,%eax
   10acd:	0f 86 4a ec ff ff    	jbe    f71d <func_50+0x6d0>
   10ad3:	48 8b 85 88 e8 ff ff 	mov    -0x1778(%rbp),%rax
   10ada:	48 8b 00             	mov    (%rax),%rax
   10add:	8b 00                	mov    (%rax),%eax
   10adf:	89 85 78 e8 ff ff    	mov    %eax,-0x1788(%rbp)
   10ae5:	8b 85 a0 e8 ff ff    	mov    -0x1760(%rbp),%eax
   10aeb:	89 85 3c eb ff ff    	mov    %eax,-0x14c4(%rbp)
   10af1:	48 8b 85 80 e8 ff ff 	mov    -0x1780(%rbp),%rax
   10af8:	0f b6 00             	movzbl (%rax),%eax
   10afb:	0f be d8             	movsbl %al,%ebx
   10afe:	8b 05 b0 b2 00 00    	mov    0xb2b0(%rip),%eax        # 1bdb4 <g_870>
   10b04:	44 0f b6 e0          	movzbl %al,%r12d
   10b08:	48 8b 05 49 b1 00 00 	mov    0xb149(%rip),%rax        # 1bc58 <g_252>
   10b0f:	48 85 c0             	test   %rax,%rax
   10b12:	0f 85 e3 00 00 00    	jne    10bfb <func_50+0x1bae>
   10b18:	48 8b 85 60 ea ff ff 	mov    -0x15a0(%rbp),%rax
   10b1f:	44 8b 28             	mov    (%rax),%r13d
   10b22:	48 8b 85 60 ea ff ff 	mov    -0x15a0(%rbp),%rax
   10b29:	8b 00                	mov    (%rax),%eax
   10b2b:	44 0f be f0          	movsbl %al,%r14d
   10b2f:	0f b7 85 7c e8 ff ff 	movzwl -0x1784(%rbp),%eax
   10b36:	44 0f be f8          	movsbl %al,%r15d
   10b3a:	66 83 bd 7c e8 ff ff 	cmpw   $0x1,-0x1784(%rbp)
   10b41:	01 
   10b42:	0f 95 c0             	setne  %al
   10b45:	0f b6 c0             	movzbl %al,%eax
   10b48:	be 05 00 00 00       	mov    $0x5,%esi
   10b4d:	89 c7                	mov    %eax,%edi
   10b4f:	e8 80 86 ff ff       	callq  91d4 <safe_add_func_int8_t_s_s>
   10b54:	84 c0                	test   %al,%al
   10b56:	75 0c                	jne    10b64 <func_50+0x1b17>
   10b58:	48 8b 85 80 e8 ff ff 	mov    -0x1780(%rbp),%rax
   10b5f:	0f b6 00             	movzbl (%rax),%eax
   10b62:	84 c0                	test   %al,%al
   10b64:	0f bf 85 7c e8 ff ff 	movswl -0x1784(%rbp),%eax
   10b6b:	be 46 52 00 00       	mov    $0x5246,%esi
   10b70:	89 c7                	mov    %eax,%edi
   10b72:	e8 de 88 ff ff       	callq  9455 <safe_div_func_int16_t_s_s>
   10b77:	48 8b 85 60 ea ff ff 	mov    -0x15a0(%rbp),%rax
   10b7e:	8b 00                	mov    (%rax),%eax
   10b80:	0f be c0             	movsbl %al,%eax
   10b83:	44 89 fe             	mov    %r15d,%esi
   10b86:	89 c7                	mov    %eax,%edi
   10b88:	e8 47 86 ff ff       	callq  91d4 <safe_add_func_int8_t_s_s>
   10b8d:	48 8b 95 90 e9 ff ff 	mov    -0x1670(%rbp),%rdx
   10b94:	48 8b 85 28 ea ff ff 	mov    -0x15d8(%rbp),%rax
   10b9b:	48 89 10             	mov    %rdx,(%rax)
   10b9e:	48 8b 85 28 ea ff ff 	mov    -0x15d8(%rbp),%rax
   10ba5:	48 8b 00             	mov    (%rax),%rax
   10ba8:	48 8d 15 01 e7 00 00 	lea    0xe701(%rip),%rdx        # 1f2b0 <g_733>
   10baf:	48 39 d0             	cmp    %rdx,%rax
   10bb2:	0f 95 c0             	setne  %al
   10bb5:	0f b6 c0             	movzbl %al,%eax
   10bb8:	44 89 f6             	mov    %r14d,%esi
   10bbb:	89 c7                	mov    %eax,%edi
   10bbd:	e8 12 86 ff ff       	callq  91d4 <safe_add_func_int8_t_s_s>
   10bc2:	48 8b 85 60 ea ff ff 	mov    -0x15a0(%rbp),%rax
   10bc9:	8b 00                	mov    (%rax),%eax
   10bcb:	83 c8 ed             	or     $0xffffffed,%eax
   10bce:	0f b6 c0             	movzbl %al,%eax
   10bd1:	44 89 ee             	mov    %r13d,%esi
   10bd4:	89 c7                	mov    %eax,%edi
   10bd6:	e8 b2 90 ff ff       	callq  9c8d <safe_rshift_func_uint8_t_u_s>
   10bdb:	0f b6 d0             	movzbl %al,%edx
   10bde:	0f bf 85 7c e8 ff ff 	movswl -0x1784(%rbp),%eax
   10be5:	21 c2                	and    %eax,%edx
   10be7:	48 8b 85 60 ea ff ff 	mov    -0x15a0(%rbp),%rax
   10bee:	89 10                	mov    %edx,(%rax)
   10bf0:	48 8b 85 60 ea ff ff 	mov    -0x15a0(%rbp),%rax
   10bf7:	8b 00                	mov    (%rax),%eax
   10bf9:	85 c0                	test   %eax,%eax
   10bfb:	48 8b 95 88 e9 ff ff 	mov    -0x1678(%rbp),%rdx
   10c02:	48 8b 85 50 ea ff ff 	mov    -0x15b0(%rbp),%rax
   10c09:	48 89 10             	mov    %rdx,(%rax)
   10c0c:	48 8b 85 50 ea ff ff 	mov    -0x15b0(%rbp),%rax
   10c13:	48 8b 10             	mov    (%rax),%rdx
   10c16:	48 8d 85 80 e8 ff ff 	lea    -0x1780(%rbp),%rax
   10c1d:	48 39 c2             	cmp    %rax,%rdx
   10c20:	0f 95 c0             	setne  %al
   10c23:	0f b6 c0             	movzbl %al,%eax
   10c26:	be 1d 00 00 00       	mov    $0x1d,%esi
   10c2b:	89 c7                	mov    %eax,%edi
   10c2d:	e8 ff 85 ff ff       	callq  9231 <safe_mod_func_int8_t_s_s>
   10c32:	0f b6 c0             	movzbl %al,%eax
   10c35:	44 89 e6             	mov    %r12d,%esi
   10c38:	89 c7                	mov    %eax,%edi
   10c3a:	e8 1b 8f ff ff       	callq  9b5a <safe_add_func_uint8_t_u_u>
   10c3f:	89 c2                	mov    %eax,%edx
   10c41:	48 8b 05 38 de 00 00 	mov    0xde38(%rip),%rax        # 1ea80 <g_32>
   10c48:	0f b6 00             	movzbl (%rax),%eax
   10c4b:	09 d0                	or     %edx,%eax
   10c4d:	0f b6 c0             	movzbl %al,%eax
   10c50:	89 de                	mov    %ebx,%esi
   10c52:	89 c7                	mov    %eax,%edi
   10c54:	e8 ac 8f ff ff       	callq  9c05 <safe_lshift_func_uint8_t_u_s>
   10c59:	0f b6 d0             	movzbl %al,%edx
   10c5c:	0f bf 85 7c e8 ff ff 	movswl -0x1784(%rbp),%eax
   10c63:	39 c2                	cmp    %eax,%edx
   10c65:	b8 01 00 00 00       	mov    $0x1,%eax
   10c6a:	3b 85 78 e8 ff ff    	cmp    -0x1788(%rbp),%eax
   10c70:	0f 9e c0             	setle  %al
   10c73:	0f b6 c0             	movzbl %al,%eax
   10c76:	89 c2                	mov    %eax,%edx
   10c78:	0f b6 05 39 b1 00 00 	movzbl 0xb139(%rip),%eax        # 1bdb8 <g_871>
   10c7f:	31 d0                	xor    %edx,%eax
   10c81:	88 05 31 b1 00 00    	mov    %al,0xb131(%rip)        # 1bdb8 <g_871>
   10c87:	0f b6 05 2a b1 00 00 	movzbl 0xb12a(%rip),%eax        # 1bdb8 <g_871>
   10c8e:	0f b6 c0             	movzbl %al,%eax
   10c91:	89 85 14 e9 ff ff    	mov    %eax,-0x16ec(%rbp)
   10c97:	83 bd 14 e9 ff ff 00 	cmpl   $0x0,-0x16ec(%rbp)
   10c9e:	0f 84 29 02 00 00    	je     10ecd <func_50+0x1e80>
   10ca4:	c7 85 10 e9 ff ff 36 	movl   $0x477d1036,-0x16f0(%rbp)
   10cab:	10 7d 47 
   10cae:	48 8d 05 5c a7 00 00 	lea    0xa75c(%rip),%rax        # 1b411 <g_73+0x9>
   10cb5:	48 89 85 18 ea ff ff 	mov    %rax,-0x15e8(%rbp)
   10cbc:	48 8d 05 95 af 00 00 	lea    0xaf95(%rip),%rax        # 1bc58 <g_252>
   10cc3:	48 89 85 20 ea ff ff 	mov    %rax,-0x15e0(%rbp)
   10cca:	48 b8 45 c6 3a 34 e3 	movabs $0xc5cb3de3343ac645,%rax
   10cd1:	3d cb c5 
   10cd4:	48 89 85 10 ea ff ff 	mov    %rax,-0x15f0(%rbp)
   10cdb:	48 8d 05 4a f7 00 00 	lea    0xf74a(%rip),%rax        # 2042c <g_327>
   10ce2:	48 89 85 08 ea ff ff 	mov    %rax,-0x15f8(%rbp)
   10ce9:	8b 95 10 e9 ff ff    	mov    -0x16f0(%rbp),%edx
   10cef:	48 8b 85 60 ea ff ff 	mov    -0x15a0(%rbp),%rax
   10cf6:	89 10                	mov    %edx,(%rax)
   10cf8:	48 8b 85 60 ea ff ff 	mov    -0x15a0(%rbp),%rax
   10cff:	8b 00                	mov    (%rax),%eax
   10d01:	31 85 0c e9 ff ff    	xor    %eax,-0x16f4(%rbp)
   10d07:	b8 05 00 00 00       	mov    $0x5,%eax
   10d0c:	48 0f be d8          	movsbq %al,%rbx
   10d10:	48 8b 85 18 ea ff ff 	mov    -0x15e8(%rbp),%rax
   10d17:	0f b6 00             	movzbl (%rax),%eax
   10d1a:	83 e0 d9             	and    $0xffffffd9,%eax
   10d1d:	89 c2                	mov    %eax,%edx
   10d1f:	48 8b 85 18 ea ff ff 	mov    -0x15e8(%rbp),%rax
   10d26:	88 10                	mov    %dl,(%rax)
   10d28:	48 8b 85 18 ea ff ff 	mov    -0x15e8(%rbp),%rax
   10d2f:	0f b6 00             	movzbl (%rax),%eax
   10d32:	0f b6 c0             	movzbl %al,%eax
   10d35:	be 06 00 00 00       	mov    $0x6,%esi
   10d3a:	89 c7                	mov    %eax,%edi
   10d3c:	e8 0b 8f ff ff       	callq  9c4c <safe_lshift_func_uint8_t_u_u>
   10d41:	8b 85 10 e9 ff ff    	mov    -0x16f0(%rbp),%eax
   10d47:	0f be d0             	movsbl %al,%edx
   10d4a:	48 8b 85 80 e8 ff ff 	mov    -0x1780(%rbp),%rax
   10d51:	0f b6 00             	movzbl (%rax),%eax
   10d54:	0f be c0             	movsbl %al,%eax
   10d57:	89 d6                	mov    %edx,%esi
   10d59:	89 c7                	mov    %eax,%edi
   10d5b:	e8 74 84 ff ff       	callq  91d4 <safe_add_func_int8_t_s_s>
   10d60:	c0 e8 07             	shr    $0x7,%al
   10d63:	0f b6 d0             	movzbl %al,%edx
   10d66:	48 8b 85 80 e8 ff ff 	mov    -0x1780(%rbp),%rax
   10d6d:	0f b6 00             	movzbl (%rax),%eax
   10d70:	48 0f be c0          	movsbq %al,%rax
   10d74:	48 35 53 ff 00 00    	xor    $0xff53,%rax
   10d7a:	48 89 c1             	mov    %rax,%rcx
   10d7d:	48 8b 85 60 ea ff ff 	mov    -0x15a0(%rbp),%rax
   10d84:	8b 00                	mov    (%rax),%eax
   10d86:	48 98                	cltq   
   10d88:	48 09 c8             	or     %rcx,%rax
   10d8b:	48 39 c2             	cmp    %rax,%rdx
   10d8e:	0f 9c c0             	setl   %al
   10d91:	0f b6 c0             	movzbl %al,%eax
   10d94:	48 89 de             	mov    %rbx,%rsi
   10d97:	48 89 c7             	mov    %rax,%rdi
   10d9a:	e8 09 8b ff ff       	callq  98a8 <safe_sub_func_int64_t_s_s>
   10d9f:	89 c2                	mov    %eax,%edx
   10da1:	48 8b 85 60 ea ff ff 	mov    -0x15a0(%rbp),%rax
   10da8:	89 10                	mov    %edx,(%rax)
   10daa:	0f b7 85 7c e8 ff ff 	movzwl -0x1784(%rbp),%eax
   10db1:	0f b6 d8             	movzbl %al,%ebx
   10db4:	66 83 bd 7c e8 ff ff 	cmpw   $0x0,-0x1784(%rbp)
   10dbb:	00 
   10dbc:	0f 85 d5 00 00 00    	jne    10e97 <func_50+0x1e4a>
   10dc2:	0f b7 85 7c e8 ff ff 	movzwl -0x1784(%rbp),%eax
   10dc9:	44 0f b7 e0          	movzwl %ax,%r12d
   10dcd:	0f b6 05 f2 ae 00 00 	movzbl 0xaef2(%rip),%eax        # 1bcc6 <g_408+0x6>
   10dd4:	44 0f b6 e8          	movzbl %al,%r13d
   10dd8:	48 8b 85 60 ea ff ff 	mov    -0x15a0(%rbp),%rax
   10ddf:	8b 00                	mov    (%rax),%eax
   10de1:	88 85 f5 ea ff ff    	mov    %al,-0x150b(%rbp)
   10de7:	0f b6 85 f5 ea ff ff 	movzbl -0x150b(%rbp),%eax
   10dee:	0f b6 d0             	movzbl %al,%edx
   10df1:	8b 85 10 e9 ff ff    	mov    -0x16f0(%rbp),%eax
   10df7:	0f be c0             	movsbl %al,%eax
   10dfa:	89 d6                	mov    %edx,%esi
   10dfc:	89 c7                	mov    %eax,%edi
   10dfe:	e8 32 85 ff ff       	callq  9335 <safe_rshift_func_int8_t_s_s>
   10e03:	83 f0 20             	xor    $0x20,%eax
   10e06:	44 0f b6 f0          	movzbl %al,%r14d
   10e0a:	48 8b 85 20 ea ff ff 	mov    -0x15e0(%rbp),%rax
   10e11:	48 8b 00             	mov    (%rax),%rax
   10e14:	48 8d 48 ff          	lea    -0x1(%rax),%rcx
   10e18:	48 8b 95 20 ea ff ff 	mov    -0x15e0(%rbp),%rdx
   10e1f:	48 89 0a             	mov    %rcx,(%rdx)
   10e22:	be 01 00 00 00       	mov    $0x1,%esi
   10e27:	48 89 c7             	mov    %rax,%rdi
   10e2a:	e8 ff 91 ff ff       	callq  a02e <safe_add_func_uint64_t_u_u>
   10e2f:	0f b6 c0             	movzbl %al,%eax
   10e32:	44 89 f6             	mov    %r14d,%esi
   10e35:	89 c7                	mov    %eax,%edi
   10e37:	e8 3c 8d ff ff       	callq  9b78 <safe_sub_func_uint8_t_u_u>
   10e3c:	0f b6 c0             	movzbl %al,%eax
   10e3f:	4c 89 ee             	mov    %r13,%rsi
   10e42:	48 89 c7             	mov    %rax,%rdi
   10e45:	e8 e4 91 ff ff       	callq  a02e <safe_add_func_uint64_t_u_u>
   10e4a:	48 0f bf 95 7c e8 ff 	movswq -0x1784(%rbp),%rdx
   10e51:	ff 
   10e52:	8b 85 10 e9 ff ff    	mov    -0x16f0(%rbp),%eax
   10e58:	48 0b 85 10 ea ff ff 	or     -0x15f0(%rbp),%rax
   10e5f:	48 39 c2             	cmp    %rax,%rdx
   10e62:	0f 95 c0             	setne  %al
   10e65:	0f b6 c0             	movzbl %al,%eax
   10e68:	44 89 e6             	mov    %r12d,%esi
   10e6b:	89 c7                	mov    %eax,%edi
   10e6d:	e8 8d 8e ff ff       	callq  9cff <safe_add_func_uint16_t_u_u>
   10e72:	0f b7 c0             	movzwl %ax,%eax
   10e75:	25 42 aa 25 6e       	and    $0x6e25aa42,%eax
   10e7a:	48 89 c2             	mov    %rax,%rdx
   10e7d:	48 8b 85 08 ea ff ff 	mov    -0x15f8(%rbp),%rax
   10e84:	8b 00                	mov    (%rax),%eax
   10e86:	89 c1                	mov    %eax,%ecx
   10e88:	89 d0                	mov    %edx,%eax
   10e8a:	09 c8                	or     %ecx,%eax
   10e8c:	89 c2                	mov    %eax,%edx
   10e8e:	48 8b 85 08 ea ff ff 	mov    -0x15f8(%rbp),%rax
   10e95:	89 10                	mov    %edx,(%rax)
   10e97:	b8 01 00 00 00       	mov    $0x1,%eax
   10e9c:	0f b6 c0             	movzbl %al,%eax
   10e9f:	89 de                	mov    %ebx,%esi
   10ea1:	89 c7                	mov    %eax,%edi
   10ea3:	e8 eb 8c ff ff       	callq  9b93 <safe_mul_func_uint8_t_u_u>
   10ea8:	0f b6 d0             	movzbl %al,%edx
   10eab:	48 8b 85 60 ea ff ff 	mov    -0x15a0(%rbp),%rax
   10eb2:	89 10                	mov    %edx,(%rax)
   10eb4:	8b 9d 88 f7 ff ff    	mov    -0x878(%rbp),%ebx
   10eba:	66 83 bd 7c e8 ff ff 	cmpw   $0x0,-0x1784(%rbp)
   10ec1:	00 
   10ec2:	0f 85 19 02 00 00    	jne    110e1 <func_50+0x2094>
   10ec8:	e9 0a 02 00 00       	jmpq   110d7 <func_50+0x208a>
   10ecd:	c7 85 18 e9 ff ff 01 	movl   $0x1,-0x16e8(%rbp)
   10ed4:	00 00 00 
   10ed7:	48 8d 05 e8 ad 00 00 	lea    0xade8(%rip),%rax        # 1bcc6 <g_408+0x6>
   10ede:	48 89 85 40 ea ff ff 	mov    %rax,-0x15c0(%rbp)
   10ee5:	c7 85 98 e9 ff ff 6c 	movl   $0x954c056c,-0x1668(%rbp)
   10eec:	05 4c 95 
   10eef:	48 8d 05 ca ad 00 00 	lea    0xadca(%rip),%rax        # 1bcc0 <g_408>
   10ef6:	48 89 85 a0 e9 ff ff 	mov    %rax,-0x1660(%rbp)
   10efd:	48 8d 85 a0 e9 ff ff 	lea    -0x1660(%rbp),%rax
   10f04:	48 89 85 a8 e9 ff ff 	mov    %rax,-0x1658(%rbp)
   10f0b:	48 8d 85 a8 e9 ff ff 	lea    -0x1658(%rbp),%rax
   10f12:	48 89 85 48 ea ff ff 	mov    %rax,-0x15b8(%rbp)
   10f19:	48 8b 05 88 e3 00 00 	mov    0xe388(%rip),%rax        # 1f2a8 <g_734>
   10f20:	48 8b 0d b9 ae 00 00 	mov    0xaeb9(%rip),%rcx        # 1bde0 <g_900>
   10f27:	48 8b 1d ba ae 00 00 	mov    0xaeba(%rip),%rbx        # 1bde8 <g_900+0x8>
   10f2e:	48 89 08             	mov    %rcx,(%rax)
   10f31:	48 89 58 08          	mov    %rbx,0x8(%rax)
   10f35:	0f b7 15 b4 ae 00 00 	movzwl 0xaeb4(%rip),%edx        # 1bdf0 <g_900+0x10>
   10f3c:	66 89 50 10          	mov    %dx,0x10(%rax)
   10f40:	0f b6 15 ab ae 00 00 	movzbl 0xaeab(%rip),%edx        # 1bdf2 <g_900+0x12>
   10f47:	88 50 12             	mov    %dl,0x12(%rax)
   10f4a:	44 8b a5 18 e9 ff ff 	mov    -0x16e8(%rbp),%r12d
   10f51:	48 8b 85 40 ea ff ff 	mov    -0x15c0(%rbp),%rax
   10f58:	c6 00 ff             	movb   $0xff,(%rax)
   10f5b:	8b 85 18 e9 ff ff    	mov    -0x16e8(%rbp),%eax
   10f61:	89 c3                	mov    %eax,%ebx
   10f63:	83 e3 01             	and    $0x1,%ebx
   10f66:	44 0f bf ad 7c e8 ff 	movswl -0x1784(%rbp),%r13d
   10f6d:	ff 
   10f6e:	48 8b 05 23 e3 00 00 	mov    0xe323(%rip),%rax        # 1f298 <g_694>
   10f75:	44 8b 30             	mov    (%rax),%r14d
   10f78:	48 8b 85 78 ea ff ff 	mov    -0x1588(%rbp),%rax
   10f7f:	48 89 85 30 ea ff ff 	mov    %rax,-0x15d0(%rbp)
   10f86:	48 8b 85 30 ea ff ff 	mov    -0x15d0(%rbp),%rax
   10f8d:	48 89 05 7c e7 00 00 	mov    %rax,0xe77c(%rip)        # 1f710 <g_925>
   10f94:	48 8b 05 75 e7 00 00 	mov    0xe775(%rip),%rax        # 1f710 <g_925>
   10f9b:	48 85 c0             	test   %rax,%rax
   10f9e:	0f 95 c0             	setne  %al
   10fa1:	0f b6 c0             	movzbl %al,%eax
   10fa4:	89 c7                	mov    %eax,%edi
   10fa6:	e8 eb 85 ff ff       	callq  9596 <safe_unary_minus_func_int32_t_s>
   10fab:	98                   	cwtl   
   10fac:	be 05 00 00 00       	mov    $0x5,%esi
   10fb1:	89 c7                	mov    %eax,%edi
   10fb3:	e8 72 85 ff ff       	callq  952a <safe_rshift_func_int16_t_s_s>
   10fb8:	66 85 c0             	test   %ax,%ax
   10fbb:	74 40                	je     10ffd <func_50+0x1fb0>
   10fbd:	48 8b 05 bc da 00 00 	mov    0xdabc(%rip),%rax        # 1ea80 <g_32>
   10fc4:	0f b6 00             	movzbl (%rax),%eax
   10fc7:	84 c0                	test   %al,%al
   10fc9:	74 11                	je     10fdc <func_50+0x1f8f>
   10fcb:	66 83 bd 7c e8 ff ff 	cmpw   $0x0,-0x1784(%rbp)
   10fd2:	00 
   10fd3:	74 07                	je     10fdc <func_50+0x1f8f>
   10fd5:	b8 01 00 00 00       	mov    $0x1,%eax
   10fda:	eb 05                	jmp    10fe1 <func_50+0x1f94>
   10fdc:	b8 00 00 00 00       	mov    $0x0,%eax
   10fe1:	35 b6 da 00 00       	xor    $0xdab6,%eax
   10fe6:	be cc b2 d8 91       	mov    $0x91d8b2cc,%esi
   10feb:	89 c7                	mov    %eax,%edi
   10fed:	e8 13 86 ff ff       	callq  9605 <safe_sub_func_int32_t_s_s>
   10ff2:	85 c0                	test   %eax,%eax
   10ff4:	74 07                	je     10ffd <func_50+0x1fb0>
   10ff6:	b8 01 00 00 00       	mov    $0x1,%eax
   10ffb:	eb 05                	jmp    11002 <func_50+0x1fb5>
   10ffd:	b8 00 00 00 00       	mov    $0x0,%eax
   11002:	44 89 f6             	mov    %r14d,%esi
   11005:	89 c7                	mov    %eax,%edi
   11007:	e8 f9 85 ff ff       	callq  9605 <safe_sub_func_int32_t_s_s>
   1100c:	83 f8 40             	cmp    $0x40,%eax
   1100f:	0f 9f c0             	setg   %al
   11012:	0f b6 c0             	movzbl %al,%eax
   11015:	89 c7                	mov    %eax,%edi
   11017:	e8 cd 8c ff ff       	callq  9ce9 <safe_unary_minus_func_uint16_t_u>
   1101c:	48 8b 85 60 ea ff ff 	mov    -0x15a0(%rbp),%rax
   11023:	8b 00                	mov    (%rax),%eax
   11025:	85 c0                	test   %eax,%eax
   11027:	74 07                	je     11030 <func_50+0x1fe3>
   11029:	ba 01 00 00 00       	mov    $0x1,%edx
   1102e:	eb 05                	jmp    11035 <func_50+0x1fe8>
   11030:	ba 00 00 00 00       	mov    $0x0,%edx
   11035:	0f b6 05 cf a3 00 00 	movzbl 0xa3cf(%rip),%eax        # 1b40b <g_73+0x3>
   1103c:	0f b6 c0             	movzbl %al,%eax
   1103f:	39 c2                	cmp    %eax,%edx
   11041:	0f 9e c0             	setle  %al
   11044:	0f b6 c0             	movzbl %al,%eax
   11047:	be 03 00 00 00       	mov    $0x3,%esi
   1104c:	89 c7                	mov    %eax,%edi
   1104e:	e8 6b 8c ff ff       	callq  9cbe <safe_rshift_func_uint8_t_u_u>
   11053:	0f b6 c0             	movzbl %al,%eax
   11056:	44 89 ee             	mov    %r13d,%esi
   11059:	89 c7                	mov    %eax,%edi
   1105b:	e8 03 85 ff ff       	callq  9563 <safe_rshift_func_int16_t_s_u>
   11060:	66 3d fe 00          	cmp    $0xfe,%ax
   11064:	0f 9f c0             	setg   %al
   11067:	31 d8                	xor    %ebx,%eax
   11069:	0f b6 c0             	movzbl %al,%eax
   1106c:	48 39 85 38 ea ff ff 	cmp    %rax,-0x15c8(%rbp)
   11073:	0f 93 c0             	setae  %al
   11076:	0f b6 c0             	movzbl %al,%eax
   11079:	8b 95 18 e9 ff ff    	mov    -0x16e8(%rbp),%edx
   1107f:	89 d6                	mov    %edx,%esi
   11081:	89 c7                	mov    %eax,%edi
   11083:	e8 36 8c ff ff       	callq  9cbe <safe_rshift_func_uint8_t_u_u>
   11088:	0f b6 c0             	movzbl %al,%eax
   1108b:	4c 89 e6             	mov    %r12,%rsi
   1108e:	48 89 c7             	mov    %rax,%rdi
   11091:	e8 ab 87 ff ff       	callq  9841 <safe_add_func_int64_t_s_s>
   11096:	48 3d f7 00 00 00    	cmp    $0xf7,%rax
   1109c:	0f 96 c0             	setbe  %al
   1109f:	0f b6 c0             	movzbl %al,%eax
   110a2:	48 be cf 47 f1 7e 38 	movabs $0x5c42a7387ef147cf,%rsi
   110a9:	a7 42 5c 
   110ac:	48 89 c7             	mov    %rax,%rdi
   110af:	e8 43 89 ff ff       	callq  99f7 <safe_div_func_int64_t_s_s>
   110b4:	48 8b 85 60 ea ff ff 	mov    -0x15a0(%rbp),%rax
   110bb:	8b 00                	mov    (%rax),%eax
   110bd:	e9 97 03 00 00       	jmpq   11459 <func_50+0x240c>
   110c2:	c7 85 30 e9 ff ff b1 	movl   $0xd88d23b1,-0x16d0(%rbp)
   110c9:	23 8d d8 
   110cc:	8b 85 30 e9 ff ff    	mov    -0x16d0(%rbp),%eax
   110d2:	e9 82 03 00 00       	jmpq   11459 <func_50+0x240c>
   110d7:	66 83 bd 7c e8 ff ff 	cmpw   $0x0,-0x1784(%rbp)
   110de:	00 
   110df:	74 07                	je     110e8 <func_50+0x209b>
   110e1:	b8 01 00 00 00       	mov    $0x1,%eax
   110e6:	eb 05                	jmp    110ed <func_50+0x20a0>
   110e8:	b8 00 00 00 00       	mov    $0x0,%eax
   110ed:	98                   	cwtl   
   110ee:	be 02 00 00 00       	mov    $0x2,%esi
   110f3:	89 c7                	mov    %eax,%edi
   110f5:	e8 30 84 ff ff       	callq  952a <safe_rshift_func_int16_t_s_s>
   110fa:	66 39 85 7c e8 ff ff 	cmp    %ax,-0x1784(%rbp)
   11101:	0f 9f c0             	setg   %al
   11104:	0f b6 c0             	movzbl %al,%eax
   11107:	39 c3                	cmp    %eax,%ebx
   11109:	0f 95 c0             	setne  %al
   1110c:	0f b6 c0             	movzbl %al,%eax
   1110f:	48 8b 8d 70 e9 ff ff 	mov    -0x1690(%rbp),%rcx
   11116:	48 8b 95 68 ea ff ff 	mov    -0x1598(%rbp),%rdx
   1111d:	48 89 0a             	mov    %rcx,(%rdx)
   11120:	48 8b 95 68 ea ff ff 	mov    -0x1598(%rbp),%rdx
   11127:	48 8b 0a             	mov    (%rdx),%rcx
   1112a:	48 8d 95 68 e9 ff ff 	lea    -0x1698(%rbp),%rdx
   11131:	48 89 15 e0 e5 00 00 	mov    %rdx,0xe5e0(%rip)        # 1f718 <g_949>
   11138:	48 8b 15 d9 e5 00 00 	mov    0xe5d9(%rip),%rdx        # 1f718 <g_949>
   1113f:	48 39 d1             	cmp    %rdx,%rcx
   11142:	0f 95 c2             	setne  %dl
   11145:	0f b6 ca             	movzbl %dl,%ecx
   11148:	0f bf 95 7c e8 ff ff 	movswl -0x1784(%rbp),%edx
   1114f:	31 ca                	xor    %ecx,%edx
   11151:	89 c6                	mov    %eax,%esi
   11153:	89 d7                	mov    %edx,%edi
   11155:	e8 76 8d ff ff       	callq  9ed0 <safe_sub_func_uint32_t_u_u>
   1115a:	89 c0                	mov    %eax,%eax
   1115c:	48 89 c6             	mov    %rax,%rsi
   1115f:	bf 01 00 00 00       	mov    $0x1,%edi
   11164:	e8 4b 88 ff ff       	callq  99b4 <safe_mod_func_int64_t_s_s>
   11169:	66 83 bd 7c e8 ff ff 	cmpw   $0x1,-0x1784(%rbp)
   11170:	01 
   11171:	8b 05 19 ac 00 00    	mov    0xac19(%rip),%eax        # 1bd90 <g_748>
   11177:	c7 85 08 e9 ff ff ff 	movl   $0xffffffff,-0x16f8(%rbp)
   1117e:	ff ff ff 
   11181:	c7 85 04 e9 ff ff 43 	movl   $0x18d69f43,-0x16fc(%rbp)
   11188:	9f d6 18 
   1118b:	48 c7 05 35 ac 00 00 	movq   $0xffffffffffffffef,0xac35(%rip)        # 1bdcb <g_896+0xb>
   11192:	ef ff ff ff 
   11196:	e9 1a 02 00 00       	jmpq   113b5 <func_50+0x2368>
   1119b:	c7 85 00 e9 ff ff 00 	movl   $0x0,-0x1700(%rbp)
   111a2:	00 00 00 
   111a5:	c7 05 05 ac 00 00 00 	movl   $0x0,0xac05(%rip)        # 1bdb4 <g_870>
   111ac:	00 00 00 
   111af:	e9 e0 01 00 00       	jmpq   11394 <func_50+0x2347>
   111b4:	48 c7 05 19 aa 00 00 	movq   $0x0,0xaa19(%rip)        # 1bbd8 <g_100>
   111bb:	00 00 00 00 
   111bf:	e9 b0 01 00 00       	jmpq   11374 <func_50+0x2327>
   111c4:	66 c7 85 9a e8 ff ff 	movw   $0xd857,-0x1766(%rbp)
   111cb:	57 d8 
   111cd:	48 c7 85 f8 e9 ff ff 	movq   $0x0,-0x1608(%rbp)
   111d4:	00 00 00 00 
   111d8:	48 8d 85 30 f8 ff ff 	lea    -0x7d0(%rbp),%rax
   111df:	48 8d 15 1a d1 00 00 	lea    0xd11a(%rip),%rdx        # 1e300 <g_2112+0x1650>
   111e6:	b9 f0 00 00 00       	mov    $0xf0,%ecx
   111eb:	48 89 c7             	mov    %rax,%rdi
   111ee:	48 89 d6             	mov    %rdx,%rsi
   111f1:	f3 48 a5             	rep movsq %ds:(%rsi),%es:(%rdi)
   111f4:	c7 85 fc e8 ff ff 00 	movl   $0x0,-0x1704(%rbp)
   111fb:	00 00 00 
   111fe:	eb 25                	jmp    11225 <func_50+0x21d8>
   11200:	8b 85 fc e8 ff ff    	mov    -0x1704(%rbp),%eax
   11206:	48 98                	cltq   
   11208:	48 8d 95 30 f8 ff ff 	lea    -0x7d0(%rbp),%rdx
   1120f:	48 81 c2 00 02 00 00 	add    $0x200,%rdx
   11216:	48 89 94 c5 f0 f0 ff 	mov    %rdx,-0xf10(%rbp,%rax,8)
   1121d:	ff 
   1121e:	83 85 fc e8 ff ff 01 	addl   $0x1,-0x1704(%rbp)
   11225:	83 bd fc e8 ff ff 02 	cmpl   $0x2,-0x1704(%rbp)
   1122c:	7e d2                	jle    11200 <func_50+0x21b3>
   1122e:	c7 85 00 e9 ff ff eb 	movl   $0xd760cceb,-0x1700(%rbp)
   11235:	cc 60 d7 
   11238:	8b 9d 08 e9 ff ff    	mov    -0x16f8(%rbp),%ebx
   1123e:	48 b8 1b f6 b6 78 42 	movabs $0x6693284278b6f61b,%rax
   11245:	28 93 66 
   11248:	48 89 05 09 aa 00 00 	mov    %rax,0xaa09(%rip)        # 1bc58 <g_252>
   1124f:	48 8b 15 02 aa 00 00 	mov    0xaa02(%rip),%rdx        # 1bc58 <g_252>
   11256:	66 83 bd 9a e8 ff ff 	cmpw   $0x1,-0x1766(%rbp)
   1125d:	01 
   1125e:	0f 97 c0             	seta   %al
   11261:	0f b6 c0             	movzbl %al,%eax
   11264:	48 39 c2             	cmp    %rax,%rdx
   11267:	0f 96 c0             	setbe  %al
   1126a:	0f b6 d0             	movzbl %al,%edx
   1126d:	0f bf 85 7c e8 ff ff 	movswl -0x1784(%rbp),%eax
   11274:	39 c2                	cmp    %eax,%edx
   11276:	0f 95 c0             	setne  %al
   11279:	44 0f b6 e8          	movzbl %al,%r13d
   1127d:	48 8b 05 67 ab 00 00 	mov    0xab67(%rip),%rax        # 1bdeb <g_900+0xb>
   11284:	44 0f bf e0          	movswl %ax,%r12d
   11288:	8b 85 08 e9 ff ff    	mov    -0x16f8(%rbp),%eax
   1128e:	48 89 c6             	mov    %rax,%rsi
   11291:	bf 01 00 00 00       	mov    $0x1,%edi
   11296:	e8 a6 85 ff ff       	callq  9841 <safe_add_func_int64_t_s_s>
   1129b:	0f b7 05 92 aa 00 00 	movzwl 0xaa92(%rip),%eax        # 1bd34 <g_710+0x4>
   112a2:	98                   	cwtl   
   112a3:	44 89 e6             	mov    %r12d,%esi
   112a6:	89 c7                	mov    %eax,%edi
   112a8:	e8 26 81 ff ff       	callq  93d3 <safe_sub_func_int16_t_s_s>
   112ad:	ba 00 00 00 00       	mov    $0x0,%edx
   112b2:	8b 05 04 a9 00 00    	mov    0xa904(%rip),%eax        # 1bbbc <g_95+0x1c>
   112b8:	31 d0                	xor    %edx,%eax
   112ba:	89 05 fc a8 00 00    	mov    %eax,0xa8fc(%rip)        # 1bbbc <g_95+0x1c>
   112c0:	8b 05 f6 a8 00 00    	mov    0xa8f6(%rip),%eax        # 1bbbc <g_95+0x1c>
   112c6:	85 c0                	test   %eax,%eax
   112c8:	74 10                	je     112da <func_50+0x228d>
   112ca:	83 bd 08 e9 ff ff 00 	cmpl   $0x0,-0x16f8(%rbp)
   112d1:	74 07                	je     112da <func_50+0x228d>
   112d3:	ba 01 00 00 00       	mov    $0x1,%edx
   112d8:	eb 05                	jmp    112df <func_50+0x2292>
   112da:	ba 00 00 00 00       	mov    $0x0,%edx
   112df:	0f bf 85 7c e8 ff ff 	movswl -0x1784(%rbp),%eax
   112e6:	09 c2                	or     %eax,%edx
   112e8:	0f bf 85 7c e8 ff ff 	movswl -0x1784(%rbp),%eax
   112ef:	39 c2                	cmp    %eax,%edx
   112f1:	0f 9d c0             	setge  %al
   112f4:	0f b6 c0             	movzbl %al,%eax
   112f7:	41 39 c5             	cmp    %eax,%r13d
   112fa:	0f 9d c0             	setge  %al
   112fd:	0f b6 c0             	movzbl %al,%eax
   11300:	48 89 de             	mov    %rbx,%rsi
   11303:	48 89 c7             	mov    %rax,%rdi
   11306:	e8 a9 86 ff ff       	callq  99b4 <safe_mod_func_int64_t_s_s>
   1130b:	48 0f bf 95 7c e8 ff 	movswq -0x1784(%rbp),%rdx
   11312:	ff 
   11313:	48 39 d0             	cmp    %rdx,%rax
   11316:	0f 9c c0             	setl   %al
   11319:	0f b6 c0             	movzbl %al,%eax
   1131c:	89 05 d6 aa 00 00    	mov    %eax,0xaad6(%rip)        # 1bdf8 <g_922>
   11322:	8b 05 d0 aa 00 00    	mov    0xaad0(%rip),%eax        # 1bdf8 <g_922>
   11328:	31 85 04 e9 ff ff    	xor    %eax,-0x16fc(%rbp)
   1132e:	83 bd 00 e9 ff ff 00 	cmpl   $0x0,-0x1700(%rbp)
   11335:	75 20                	jne    11357 <func_50+0x230a>
   11337:	48 8b 15 ca e3 00 00 	mov    0xe3ca(%rip),%rdx        # 1f708 <g_815>
   1133e:	48 8b 05 c3 e3 00 00 	mov    0xe3c3(%rip),%rax        # 1f708 <g_815>
   11345:	48 8b 12             	mov    (%rdx),%rdx
   11348:	48 89 10             	mov    %rdx,(%rax)
   1134b:	48 8b 00             	mov    (%rax),%rax
   1134e:	48 89 85 00 ea ff ff 	mov    %rax,-0x1600(%rbp)
   11355:	eb 01                	jmp    11358 <func_50+0x230b>
   11357:	90                   	nop
   11358:	48 8b 05 79 a8 00 00 	mov    0xa879(%rip),%rax        # 1bbd8 <g_100>
   1135f:	be 05 00 00 00       	mov    $0x5,%esi
   11364:	89 c7                	mov    %eax,%edi
   11366:	e8 4d 8b ff ff       	callq  9eb8 <safe_add_func_uint32_t_u_u>
   1136b:	89 c0                	mov    %eax,%eax
   1136d:	48 89 05 64 a8 00 00 	mov    %rax,0xa864(%rip)        # 1bbd8 <g_100>
   11374:	48 8b 05 5d a8 00 00 	mov    0xa85d(%rip),%rax        # 1bbd8 <g_100>
   1137b:	48 83 f8 06          	cmp    $0x6,%rax
   1137f:	0f 8e 3f fe ff ff    	jle    111c4 <func_50+0x2177>
   11385:	8b 05 29 aa 00 00    	mov    0xaa29(%rip),%eax        # 1bdb4 <g_870>
   1138b:	83 c0 01             	add    $0x1,%eax
   1138e:	89 05 20 aa 00 00    	mov    %eax,0xaa20(%rip)        # 1bdb4 <g_870>
   11394:	8b 05 1a aa 00 00    	mov    0xaa1a(%rip),%eax        # 1bdb4 <g_870>
   1139a:	83 f8 2c             	cmp    $0x2c,%eax
   1139d:	0f 85 11 fe ff ff    	jne    111b4 <func_50+0x2167>
   113a3:	48 8b 05 21 aa 00 00 	mov    0xaa21(%rip),%rax        # 1bdcb <g_896+0xb>
   113aa:	48 83 c0 01          	add    $0x1,%rax
   113ae:	48 89 05 16 aa 00 00 	mov    %rax,0xaa16(%rip)        # 1bdcb <g_896+0xb>
   113b5:	48 8b 05 0f aa 00 00 	mov    0xaa0f(%rip),%rax        # 1bdcb <g_896+0xb>
   113bc:	48 83 f8 1b          	cmp    $0x1b,%rax
   113c0:	0f 8e d5 fd ff ff    	jle    1119b <func_50+0x214e>
   113c6:	8b 05 84 a8 00 00    	mov    0xa884(%rip),%eax        # 1bc50 <g_248>
   113cc:	0f bf d0             	movswl %ax,%edx
   113cf:	48 8b 85 70 ea ff ff 	mov    -0x1590(%rbp),%rax
   113d6:	0f b6 00             	movzbl (%rax),%eax
   113d9:	8d 48 01             	lea    0x1(%rax),%ecx
   113dc:	48 8b 85 70 ea ff ff 	mov    -0x1590(%rbp),%rax
   113e3:	88 08                	mov    %cl,(%rax)
   113e5:	c6 05 54 f0 00 00 01 	movb   $0x1,0xf054(%rip)        # 20440 <g_550>
   113ec:	b8 00 00 00 00       	mov    $0x0,%eax
   113f1:	3d 02 cd 00 00       	cmp    $0xcd02,%eax
   113f6:	0f 9e c0             	setle  %al
   113f9:	0f b6 c0             	movzbl %al,%eax
   113fc:	89 d6                	mov    %edx,%esi
   113fe:	89 c7                	mov    %eax,%edi
   11400:	e8 50 80 ff ff       	callq  9455 <safe_div_func_int16_t_s_s>
   11405:	0f bf d0             	movswl %ax,%edx
   11408:	48 8b 85 80 e8 ff ff 	mov    -0x1780(%rbp),%rax
   1140f:	0f b6 00             	movzbl (%rax),%eax
   11412:	0f be c0             	movsbl %al,%eax
   11415:	21 c2                	and    %eax,%edx
   11417:	48 8b 85 80 e9 ff ff 	mov    -0x1680(%rbp),%rax
   1141e:	48 8b 00             	mov    (%rax),%rax
   11421:	48 63 d2             	movslq %edx,%rdx
   11424:	48 89 10             	mov    %rdx,(%rax)
   11427:	48 0f bf 85 7c e8 ff 	movswq -0x1784(%rbp),%rax
   1142e:	ff 
   1142f:	48 be 61 93 eb d4 79 	movabs $0xfaeeab79d4eb9361,%rsi
   11436:	ab ee fa 
   11439:	48 89 c7             	mov    %rax,%rdi
   1143c:	e8 00 84 ff ff       	callq  9841 <safe_add_func_int64_t_s_s>
   11441:	8b 15 25 9e 00 00    	mov    0x9e25(%rip),%edx        # 1b26c <g_8+0x22c>
   11447:	09 d0                	or     %edx,%eax
   11449:	89 05 1d 9e 00 00    	mov    %eax,0x9e1d(%rip)        # 1b26c <g_8+0x22c>
   1144f:	48 8b 85 80 e8 ff ff 	mov    -0x1780(%rbp),%rax
   11456:	0f b6 00             	movzbl (%rax),%eax
   11459:	48 8b 5d c8          	mov    -0x38(%rbp),%rbx
   1145d:	64 48 33 1c 25 28 00 	xor    %fs:0x28,%rbx
   11464:	00 00 
   11466:	74 05                	je     1146d <func_50+0x2420>
   11468:	e8 03 7c ff ff       	callq  9070 <__stack_chk_fail@plt>
   1146d:	48 81 c4 68 17 00 00 	add    $0x1768,%rsp
   11474:	5b                   	pop    %rbx
   11475:	41 5c                	pop    %r12
   11477:	41 5d                	pop    %r13
   11479:	41 5e                	pop    %r14
   1147b:	41 5f                	pop    %r15
   1147d:	5d                   	pop    %rbp
   1147e:	c3                   	retq   

000000000001147f <func_54>:
   1147f:	f3 0f 1e fa          	endbr64 
   11483:	55                   	push   %rbp
   11484:	48 89 e5             	mov    %rsp,%rbp
   11487:	89 7d ec             	mov    %edi,-0x14(%rbp)
   1148a:	48 89 75 e0          	mov    %rsi,-0x20(%rbp)
   1148e:	89 55 e8             	mov    %edx,-0x18(%rbp)
   11491:	89 c8                	mov    %ecx,%eax
   11493:	88 45 dc             	mov    %al,-0x24(%rbp)
   11496:	c6 45 f7 af          	movb   $0xaf,-0x9(%rbp)
   1149a:	48 8d 05 1b a7 00 00 	lea    0xa71b(%rip),%rax        # 1bbbc <g_95+0x1c>
   114a1:	48 89 45 f8          	mov    %rax,-0x8(%rbp)
   114a5:	48 8b 45 f8          	mov    -0x8(%rbp),%rax
   114a9:	8b 10                	mov    (%rax),%edx
   114ab:	0f b6 45 f7          	movzbl -0x9(%rbp),%eax
   114af:	31 c2                	xor    %eax,%edx
   114b1:	48 8b 45 f8          	mov    -0x8(%rbp),%rax
   114b5:	89 10                	mov    %edx,(%rax)
   114b7:	48 8b 45 e0          	mov    -0x20(%rbp),%rax
   114bb:	5d                   	pop    %rbp
   114bc:	c3                   	retq   

00000000000114bd <func_59>:
   114bd:	f3 0f 1e fa          	endbr64 
   114c1:	55                   	push   %rbp
   114c2:	48 89 e5             	mov    %rsp,%rbp
   114c5:	48 83 c4 80          	add    $0xffffffffffffff80,%rsp
   114c9:	89 75 98             	mov    %esi,-0x68(%rbp)
   114cc:	89 d0                	mov    %edx,%eax
   114ce:	48 89 4d 88          	mov    %rcx,-0x78(%rbp)
   114d2:	4c 89 45 80          	mov    %r8,-0x80(%rbp)
   114d6:	89 fa                	mov    %edi,%edx
   114d8:	88 55 9c             	mov    %dl,-0x64(%rbp)
   114db:	88 45 94             	mov    %al,-0x6c(%rbp)
   114de:	64 48 8b 04 25 28 00 	mov    %fs:0x28,%rax
   114e5:	00 00 
   114e7:	48 89 45 f8          	mov    %rax,-0x8(%rbp)
   114eb:	31 c0                	xor    %eax,%eax
   114ed:	c7 45 a8 09 00 00 00 	movl   $0x9,-0x58(%rbp)
   114f4:	48 c7 05 59 a7 00 00 	movq   $0xfffffffffffffff1,0xa759(%rip)        # 1bc58 <g_252>
   114fb:	f1 ff ff ff 
   114ff:	e9 9b 00 00 00       	jmpq   1159f <func_59+0xe2>
   11504:	48 8d 05 b1 a6 00 00 	lea    0xa6b1(%rip),%rax        # 1bbbc <g_95+0x1c>
   1150b:	48 89 45 b8          	mov    %rax,-0x48(%rbp)
   1150f:	48 8d 05 a6 a6 00 00 	lea    0xa6a6(%rip),%rax        # 1bbbc <g_95+0x1c>
   11516:	48 89 45 c0          	mov    %rax,-0x40(%rbp)
   1151a:	48 8d 05 9b a6 00 00 	lea    0xa69b(%rip),%rax        # 1bbbc <g_95+0x1c>
   11521:	48 89 45 c8          	mov    %rax,-0x38(%rbp)
   11525:	c7 45 ac 00 00 00 00 	movl   $0x0,-0x54(%rbp)
   1152c:	eb 4d                	jmp    1157b <func_59+0xbe>
   1152e:	c7 45 b0 00 00 00 00 	movl   $0x0,-0x50(%rbp)
   11535:	eb 3a                	jmp    11571 <func_59+0xb4>
   11537:	c7 45 b4 00 00 00 00 	movl   $0x0,-0x4c(%rbp)
   1153e:	eb 27                	jmp    11567 <func_59+0xaa>
   11540:	8b 45 b4             	mov    -0x4c(%rbp),%eax
   11543:	48 63 c8             	movslq %eax,%rcx
   11546:	8b 45 b0             	mov    -0x50(%rbp),%eax
   11549:	48 63 d0             	movslq %eax,%rdx
   1154c:	8b 45 ac             	mov    -0x54(%rbp),%eax
   1154f:	48 98                	cltq   
   11551:	48 01 ca             	add    %rcx,%rdx
   11554:	48 01 d0             	add    %rdx,%rax
   11557:	48 8d 15 5e a6 00 00 	lea    0xa65e(%rip),%rdx        # 1bbbc <g_95+0x1c>
   1155e:	48 89 54 c5 d0       	mov    %rdx,-0x30(%rbp,%rax,8)
   11563:	83 45 b4 01          	addl   $0x1,-0x4c(%rbp)
   11567:	83 7d b4 00          	cmpl   $0x0,-0x4c(%rbp)
   1156b:	7e d3                	jle    11540 <func_59+0x83>
   1156d:	83 45 b0 01          	addl   $0x1,-0x50(%rbp)
   11571:	83 7d b0 00          	cmpl   $0x0,-0x50(%rbp)
   11575:	7e c0                	jle    11537 <func_59+0x7a>
   11577:	83 45 ac 01          	addl   $0x1,-0x54(%rbp)
   1157b:	83 7d ac 03          	cmpl   $0x3,-0x54(%rbp)
   1157f:	7e ad                	jle    1152e <func_59+0x71>
   11581:	83 45 a8 01          	addl   $0x1,-0x58(%rbp)
   11585:	48 8b 45 c0          	mov    -0x40(%rbp),%rax
   11589:	8b 00                	mov    (%rax),%eax
   1158b:	85 c0                	test   %eax,%eax
   1158d:	48 8b 05 c4 a6 00 00 	mov    0xa6c4(%rip),%rax        # 1bc58 <g_252>
   11594:	48 83 c0 01          	add    $0x1,%rax
   11598:	48 89 05 b9 a6 00 00 	mov    %rax,0xa6b9(%rip)        # 1bc58 <g_252>
   1159f:	48 8b 05 b2 a6 00 00 	mov    0xa6b2(%rip),%rax        # 1bc58 <g_252>
   115a6:	48 83 f8 04          	cmp    $0x4,%rax
   115aa:	0f 86 54 ff ff ff    	jbe    11504 <func_59+0x47>
   115b0:	48 8d 05 e1 dc 00 00 	lea    0xdce1(%rip),%rax        # 1f298 <g_694>
   115b7:	48 8b 75 f8          	mov    -0x8(%rbp),%rsi
   115bb:	64 48 33 34 25 28 00 	xor    %fs:0x28,%rsi
   115c2:	00 00 
   115c4:	74 05                	je     115cb <func_59+0x10e>
   115c6:	e8 a5 7a ff ff       	callq  9070 <__stack_chk_fail@plt>
   115cb:	c9                   	leaveq 
   115cc:	c3                   	retq   

00000000000115cd <func_68>:
   115cd:	f3 0f 1e fa          	endbr64 
   115d1:	55                   	push   %rbp
   115d2:	48 89 e5             	mov    %rsp,%rbp
   115d5:	41 57                	push   %r15
   115d7:	41 56                	push   %r14
   115d9:	41 55                	push   %r13
   115db:	41 54                	push   %r12
   115dd:	53                   	push   %rbx
   115de:	48 81 ec 08 0c 00 00 	sub    $0xc08,%rsp
   115e5:	48 89 bd d8 f3 ff ff 	mov    %rdi,-0xc28(%rbp)
   115ec:	89 b5 d4 f3 ff ff    	mov    %esi,-0xc2c(%rbp)
   115f2:	89 95 d0 f3 ff ff    	mov    %edx,-0xc30(%rbp)
   115f8:	64 48 8b 04 25 28 00 	mov    %fs:0x28,%rax
   115ff:	00 00 
   11601:	48 89 45 c8          	mov    %rax,-0x38(%rbp)
   11605:	31 c0                	xor    %eax,%eax
   11607:	48 8d 05 03 9e 00 00 	lea    0x9e03(%rip),%rax        # 1b411 <g_73+0x9>
   1160e:	48 89 85 d0 f4 ff ff 	mov    %rax,-0xb30(%rbp)
   11615:	c7 85 04 f4 ff ff 24 	movl   $0x3d576224,-0xbfc(%rbp)
   1161c:	62 57 3d 
   1161f:	c6 85 e9 f3 ff ff 01 	movb   $0x1,-0xc17(%rbp)
   11626:	48 8d 05 d3 9d 00 00 	lea    0x9dd3(%rip),%rax        # 1b400 <g_33>
   1162d:	48 89 85 28 f5 ff ff 	mov    %rax,-0xad8(%rbp)
   11634:	c7 85 08 f4 ff ff 06 	movl   $0x6,-0xbf8(%rbp)
   1163b:	00 00 00 
   1163e:	48 8d 05 df 99 00 00 	lea    0x99df(%rip),%rax        # 1b024 <g_4>
   11645:	48 89 85 d8 f4 ff ff 	mov    %rax,-0xb28(%rbp)
   1164c:	48 8d 85 d8 f4 ff ff 	lea    -0xb28(%rbp),%rax
   11653:	48 89 85 30 f5 ff ff 	mov    %rax,-0xad0(%rbp)
   1165a:	48 8d 85 08 f4 ff ff 	lea    -0xbf8(%rbp),%rax
   11661:	48 89 85 38 f5 ff ff 	mov    %rax,-0xac8(%rbp)
   11668:	48 8d 05 69 a5 00 00 	lea    0xa569(%rip),%rax        # 1bbd8 <g_100>
   1166f:	48 89 85 e0 f4 ff ff 	mov    %rax,-0xb20(%rbp)
   11676:	c7 85 0c f4 ff ff 1b 	movl   $0x6858601b,-0xbf4(%rbp)
   1167d:	60 58 68 
   11680:	c7 85 40 f9 ff ff 27 	movl   $0x93af8227,-0x6c0(%rbp)
   11687:	82 af 93 
   1168a:	c7 85 44 f9 ff ff 27 	movl   $0x93af8227,-0x6bc(%rbp)
   11691:	82 af 93 
   11694:	c7 85 48 f9 ff ff f6 	movl   $0xfffffff6,-0x6b8(%rbp)
   1169b:	ff ff ff 
   1169e:	c7 85 4c f9 ff ff 5e 	movl   $0x5ca6fd5e,-0x6b4(%rbp)
   116a5:	fd a6 5c 
   116a8:	c7 85 50 f9 ff ff f6 	movl   $0xfffffff6,-0x6b0(%rbp)
   116af:	ff ff ff 
   116b2:	c7 85 54 f9 ff ff 27 	movl   $0x93af8227,-0x6ac(%rbp)
   116b9:	82 af 93 
   116bc:	c7 85 58 f9 ff ff 27 	movl   $0x93af8227,-0x6a8(%rbp)
   116c3:	82 af 93 
   116c6:	c7 85 5c f9 ff ff f6 	movl   $0xfffffff6,-0x6a4(%rbp)
   116cd:	ff ff ff 
   116d0:	c7 85 60 f9 ff ff 5e 	movl   $0x5ca6fd5e,-0x6a0(%rbp)
   116d7:	fd a6 5c 
   116da:	c7 85 64 f9 ff ff f6 	movl   $0xfffffff6,-0x69c(%rbp)
   116e1:	ff ff ff 
   116e4:	c7 85 68 f9 ff ff 27 	movl   $0x93af8227,-0x698(%rbp)
   116eb:	82 af 93 
   116ee:	c7 85 6c f9 ff ff 27 	movl   $0x93af8227,-0x694(%rbp)
   116f5:	82 af 93 
   116f8:	c7 85 70 f9 ff ff f6 	movl   $0xfffffff6,-0x690(%rbp)
   116ff:	ff ff ff 
   11702:	c7 85 74 f9 ff ff 5e 	movl   $0x5ca6fd5e,-0x68c(%rbp)
   11709:	fd a6 5c 
   1170c:	c7 85 78 f9 ff ff f6 	movl   $0xfffffff6,-0x688(%rbp)
   11713:	ff ff ff 
   11716:	c7 85 7c f9 ff ff 27 	movl   $0x93af8227,-0x684(%rbp)
   1171d:	82 af 93 
   11720:	c7 85 80 f9 ff ff 27 	movl   $0x93af8227,-0x680(%rbp)
   11727:	82 af 93 
   1172a:	c7 85 84 f9 ff ff f6 	movl   $0xfffffff6,-0x67c(%rbp)
   11731:	ff ff ff 
   11734:	c7 85 88 f9 ff ff 5e 	movl   $0x5ca6fd5e,-0x678(%rbp)
   1173b:	fd a6 5c 
   1173e:	c7 85 8c f9 ff ff f6 	movl   $0xfffffff6,-0x674(%rbp)
   11745:	ff ff ff 
   11748:	c7 85 90 f9 ff ff 27 	movl   $0x93af8227,-0x670(%rbp)
   1174f:	82 af 93 
   11752:	c7 85 94 f9 ff ff 27 	movl   $0x93af8227,-0x66c(%rbp)
   11759:	82 af 93 
   1175c:	c7 85 98 f9 ff ff f6 	movl   $0xfffffff6,-0x668(%rbp)
   11763:	ff ff ff 
   11766:	c7 85 9c f9 ff ff 5e 	movl   $0x5ca6fd5e,-0x664(%rbp)
   1176d:	fd a6 5c 
   11770:	c7 85 a0 f9 ff ff f6 	movl   $0xfffffff6,-0x660(%rbp)
   11777:	ff ff ff 
   1177a:	c7 85 a4 f9 ff ff 27 	movl   $0x93af8227,-0x65c(%rbp)
   11781:	82 af 93 
   11784:	c7 85 a8 f9 ff ff 27 	movl   $0x93af8227,-0x658(%rbp)
   1178b:	82 af 93 
   1178e:	c7 85 ac f9 ff ff f6 	movl   $0xfffffff6,-0x654(%rbp)
   11795:	ff ff ff 
   11798:	c7 85 b0 f9 ff ff 5e 	movl   $0x5ca6fd5e,-0x650(%rbp)
   1179f:	fd a6 5c 
   117a2:	c7 85 b4 f9 ff ff f6 	movl   $0xfffffff6,-0x64c(%rbp)
   117a9:	ff ff ff 
   117ac:	48 8d 85 08 f4 ff ff 	lea    -0xbf8(%rbp),%rax
   117b3:	48 89 85 e8 f4 ff ff 	mov    %rax,-0xb18(%rbp)
   117ba:	48 8d 05 ff a4 00 00 	lea    0xa4ff(%rip),%rax        # 1bcc0 <g_408>
   117c1:	48 89 85 40 f5 ff ff 	mov    %rax,-0xac0(%rbp)
   117c8:	48 8d 05 09 a5 00 00 	lea    0xa509(%rip),%rax        # 1bcd8 <g_468>
   117cf:	48 89 85 f0 f4 ff ff 	mov    %rax,-0xb10(%rbp)
   117d6:	c7 85 10 f4 ff ff ff 	movl   $0xffffffff,-0xbf0(%rbp)
   117dd:	ff ff ff 
   117e0:	48 c7 85 48 f5 ff ff 	movq   $0x0,-0xab8(%rbp)
   117e7:	00 00 00 00 
   117eb:	48 8d 05 96 d2 00 00 	lea    0xd296(%rip),%rax        # 1ea88 <g_108>
   117f2:	48 89 85 80 fa ff ff 	mov    %rax,-0x580(%rbp)
   117f9:	48 8d 05 88 d2 00 00 	lea    0xd288(%rip),%rax        # 1ea88 <g_108>
   11800:	48 89 85 88 fa ff ff 	mov    %rax,-0x578(%rbp)
   11807:	48 c7 85 90 fa ff ff 	movq   $0x0,-0x570(%rbp)
   1180e:	00 00 00 00 
   11812:	48 8d 85 d0 f4 ff ff 	lea    -0xb30(%rbp),%rax
   11819:	48 89 85 98 fa ff ff 	mov    %rax,-0x568(%rbp)
   11820:	48 8d 85 d0 f4 ff ff 	lea    -0xb30(%rbp),%rax
   11827:	48 89 85 a0 fa ff ff 	mov    %rax,-0x560(%rbp)
   1182e:	48 8d 85 d0 f4 ff ff 	lea    -0xb30(%rbp),%rax
   11835:	48 89 85 a8 fa ff ff 	mov    %rax,-0x558(%rbp)
   1183c:	48 8d 05 45 d2 00 00 	lea    0xd245(%rip),%rax        # 1ea88 <g_108>
   11843:	48 89 85 b0 fa ff ff 	mov    %rax,-0x550(%rbp)
   1184a:	48 c7 85 b8 fa ff ff 	movq   $0x0,-0x548(%rbp)
   11851:	00 00 00 00 
   11855:	48 8d 05 2c d2 00 00 	lea    0xd22c(%rip),%rax        # 1ea88 <g_108>
   1185c:	48 89 85 c0 fa ff ff 	mov    %rax,-0x540(%rbp)
   11863:	48 8d 05 1e d2 00 00 	lea    0xd21e(%rip),%rax        # 1ea88 <g_108>
   1186a:	48 89 85 c8 fa ff ff 	mov    %rax,-0x538(%rbp)
   11871:	48 c7 85 d0 fa ff ff 	movq   $0x0,-0x530(%rbp)
   11878:	00 00 00 00 
   1187c:	48 8d 05 05 d2 00 00 	lea    0xd205(%rip),%rax        # 1ea88 <g_108>
   11883:	48 89 85 d8 fa ff ff 	mov    %rax,-0x528(%rbp)
   1188a:	48 8d 05 f7 d1 00 00 	lea    0xd1f7(%rip),%rax        # 1ea88 <g_108>
   11891:	48 89 85 e0 fa ff ff 	mov    %rax,-0x520(%rbp)
   11898:	48 8d 85 d0 f4 ff ff 	lea    -0xb30(%rbp),%rax
   1189f:	48 89 85 e8 fa ff ff 	mov    %rax,-0x518(%rbp)
   118a6:	48 c7 85 f0 fa ff ff 	movq   $0x0,-0x510(%rbp)
   118ad:	00 00 00 00 
   118b1:	48 8d 05 d0 d1 00 00 	lea    0xd1d0(%rip),%rax        # 1ea88 <g_108>
   118b8:	48 89 85 f8 fa ff ff 	mov    %rax,-0x508(%rbp)
   118bf:	48 8d 05 c2 d1 00 00 	lea    0xd1c2(%rip),%rax        # 1ea88 <g_108>
   118c6:	48 89 85 00 fb ff ff 	mov    %rax,-0x500(%rbp)
   118cd:	48 8d 05 b4 d1 00 00 	lea    0xd1b4(%rip),%rax        # 1ea88 <g_108>
   118d4:	48 89 85 08 fb ff ff 	mov    %rax,-0x4f8(%rbp)
   118db:	48 8d 05 a6 d1 00 00 	lea    0xd1a6(%rip),%rax        # 1ea88 <g_108>
   118e2:	48 89 85 10 fb ff ff 	mov    %rax,-0x4f0(%rbp)
   118e9:	48 8d 05 98 d1 00 00 	lea    0xd198(%rip),%rax        # 1ea88 <g_108>
   118f0:	48 89 85 18 fb ff ff 	mov    %rax,-0x4e8(%rbp)
   118f7:	48 8d 05 8a d1 00 00 	lea    0xd18a(%rip),%rax        # 1ea88 <g_108>
   118fe:	48 89 85 20 fb ff ff 	mov    %rax,-0x4e0(%rbp)
   11905:	48 8d 05 7c d1 00 00 	lea    0xd17c(%rip),%rax        # 1ea88 <g_108>
   1190c:	48 89 85 28 fb ff ff 	mov    %rax,-0x4d8(%rbp)
   11913:	48 c7 85 30 fb ff ff 	movq   $0x0,-0x4d0(%rbp)
   1191a:	00 00 00 00 
   1191e:	48 8d 05 63 d1 00 00 	lea    0xd163(%rip),%rax        # 1ea88 <g_108>
   11925:	48 89 85 38 fb ff ff 	mov    %rax,-0x4c8(%rbp)
   1192c:	48 8d 05 55 d1 00 00 	lea    0xd155(%rip),%rax        # 1ea88 <g_108>
   11933:	48 89 85 40 fb ff ff 	mov    %rax,-0x4c0(%rbp)
   1193a:	48 8d 05 47 d1 00 00 	lea    0xd147(%rip),%rax        # 1ea88 <g_108>
   11941:	48 89 85 48 fb ff ff 	mov    %rax,-0x4b8(%rbp)
   11948:	48 8d 05 39 d1 00 00 	lea    0xd139(%rip),%rax        # 1ea88 <g_108>
   1194f:	48 89 85 50 fb ff ff 	mov    %rax,-0x4b0(%rbp)
   11956:	48 c7 85 50 f5 ff ff 	movq   $0x0,-0xab0(%rbp)
   1195d:	00 00 00 00 
   11961:	48 c7 85 58 f5 ff ff 	movq   $0x0,-0xaa8(%rbp)
   11968:	00 00 00 00 
   1196c:	48 8d 05 0d a3 00 00 	lea    0xa30d(%rip),%rax        # 1bc80 <g_313>
   11973:	48 89 85 60 f5 ff ff 	mov    %rax,-0xaa0(%rbp)
   1197a:	c6 85 ea f3 ff ff fd 	movb   $0xfd,-0xc16(%rbp)
   11981:	c7 85 64 f4 ff ff 01 	movl   $0x1,-0xb9c(%rbp)
   11988:	00 00 00 
   1198b:	66 c7 85 f4 f3 ff ff 	movw   $0xd088,-0xc0c(%rbp)
   11992:	88 d0 
   11994:	c7 85 58 f4 ff ff 00 	movl   $0x0,-0xba8(%rbp)
   1199b:	00 00 00 
   1199e:	eb 1b                	jmp    119bb <func_68+0x3ee>
   119a0:	8b 85 58 f4 ff ff    	mov    -0xba8(%rbp),%eax
   119a6:	48 98                	cltq   
   119a8:	48 c7 84 c5 a0 f8 ff 	movq   $0x0,-0x760(%rbp,%rax,8)
   119af:	ff 00 00 00 00 
   119b4:	83 85 58 f4 ff ff 01 	addl   $0x1,-0xba8(%rbp)
   119bb:	83 bd 58 f4 ff ff 09 	cmpl   $0x9,-0xba8(%rbp)
   119c2:	7e dc                	jle    119a0 <func_68+0x3d3>
   119c4:	c7 85 58 f4 ff ff 00 	movl   $0x0,-0xba8(%rbp)
   119cb:	00 00 00 
   119ce:	eb 1a                	jmp    119ea <func_68+0x41d>
   119d0:	8b 85 58 f4 ff ff    	mov    -0xba8(%rbp),%eax
   119d6:	48 98                	cltq   
   119d8:	c7 84 85 8c f7 ff ff 	movl   $0x80310708,-0x874(%rbp,%rax,4)
   119df:	08 07 31 80 
   119e3:	83 85 58 f4 ff ff 01 	addl   $0x1,-0xba8(%rbp)
   119ea:	83 bd 58 f4 ff ff 00 	cmpl   $0x0,-0xba8(%rbp)
   119f1:	7e dd                	jle    119d0 <func_68+0x403>
   119f3:	48 8b 85 d0 f4 ff ff 	mov    -0xb30(%rbp),%rax
   119fa:	0f b6 10             	movzbl (%rax),%edx
   119fd:	83 c2 01             	add    $0x1,%edx
   11a00:	88 10                	mov    %dl,(%rax)
   11a02:	0f b6 00             	movzbl (%rax),%eax
   11a05:	84 c0                	test   %al,%al
   11a07:	0f 84 42 01 00 00    	je     11b4f <func_68+0x582>
   11a0d:	0f b6 05 ec 99 00 00 	movzbl 0x99ec(%rip),%eax        # 1b400 <g_33>
   11a14:	0f be d8             	movsbl %al,%ebx
   11a17:	c7 85 04 f4 ff ff ff 	movl   $0xffffffff,-0xbfc(%rbp)
   11a1e:	ff ff ff 
   11a21:	8b 05 fd 95 00 00    	mov    0x95fd(%rip),%eax        # 1b024 <g_4>
   11a27:	41 89 c4             	mov    %eax,%r12d
   11a2a:	0f b6 05 cf 99 00 00 	movzbl 0x99cf(%rip),%eax        # 1b400 <g_33>
   11a31:	48 0f be d0          	movsbq %al,%rdx
   11a35:	0f b6 85 e9 f3 ff ff 	movzbl -0xc17(%rbp),%eax
   11a3c:	0f b6 c0             	movzbl %al,%eax
   11a3f:	48 89 d6             	mov    %rdx,%rsi
   11a42:	48 89 c7             	mov    %rax,%rdi
   11a45:	e8 f7 7d ff ff       	callq  9841 <safe_add_func_int64_t_s_s>
   11a4a:	8b 85 d0 f3 ff ff    	mov    -0xc30(%rbp),%eax
   11a50:	0f b7 d0             	movzwl %ax,%edx
   11a53:	8b 05 cb 95 00 00    	mov    0x95cb(%rip),%eax        # 1b024 <g_4>
   11a59:	0f b7 c0             	movzwl %ax,%eax
   11a5c:	89 d6                	mov    %edx,%esi
   11a5e:	89 c7                	mov    %eax,%edi
   11a60:	e8 ba 82 ff ff       	callq  9d1f <safe_sub_func_uint16_t_u_u>
   11a65:	0f b7 c0             	movzwl %ax,%eax
   11a68:	89 c7                	mov    %eax,%edi
   11a6a:	e8 7a 82 ff ff       	callq  9ce9 <safe_unary_minus_func_uint16_t_u>
   11a6f:	89 c2                	mov    %eax,%edx
   11a71:	8b 85 08 f4 ff ff    	mov    -0xbf8(%rbp),%eax
   11a77:	89 05 3f a1 00 00    	mov    %eax,0xa13f(%rip)        # 1bbbc <g_95+0x1c>
   11a7d:	48 8b 85 d8 f3 ff ff 	mov    -0xc28(%rbp),%rax
   11a84:	48 39 85 28 f5 ff ff 	cmp    %rax,-0xad8(%rbp)
   11a8b:	0f 95 c0             	setne  %al
   11a8e:	0f b6 c0             	movzbl %al,%eax
   11a91:	0b 85 d0 f3 ff ff    	or     -0xc30(%rbp),%eax
   11a97:	85 c0                	test   %eax,%eax
   11a99:	74 09                	je     11aa4 <func_68+0x4d7>
   11a9b:	0f b6 05 5e 99 00 00 	movzbl 0x995e(%rip),%eax        # 1b400 <g_33>
   11aa2:	84 c0                	test   %al,%al
   11aa4:	48 8b 85 30 f5 ff ff 	mov    -0xad0(%rbp),%rax
   11aab:	48 c7 00 00 00 00 00 	movq   $0x0,(%rax)
   11ab2:	48 8b 85 30 f5 ff ff 	mov    -0xad0(%rbp),%rax
   11ab9:	48 8b 00             	mov    (%rax),%rax
   11abc:	48 39 85 38 f5 ff ff 	cmp    %rax,-0xac8(%rbp)
   11ac3:	0f 95 c0             	setne  %al
   11ac6:	89 c6                	mov    %eax,%esi
   11ac8:	8b 85 d0 f3 ff ff    	mov    -0xc30(%rbp),%eax
   11ace:	89 c1                	mov    %eax,%ecx
   11ad0:	48 8b 85 d0 f4 ff ff 	mov    -0xb30(%rbp),%rax
   11ad7:	31 f1                	xor    %esi,%ecx
   11ad9:	88 08                	mov    %cl,(%rax)
   11adb:	0f b6 00             	movzbl (%rax),%eax
   11ade:	0f b6 c0             	movzbl %al,%eax
   11ae1:	66 39 c2             	cmp    %ax,%dx
   11ae4:	0f 95 c0             	setne  %al
   11ae7:	0f b6 d0             	movzbl %al,%edx
   11aea:	0f b6 05 0f 99 00 00 	movzbl 0x990f(%rip),%eax        # 1b400 <g_33>
   11af1:	0f be c0             	movsbl %al,%eax
   11af4:	31 c2                	xor    %eax,%edx
   11af6:	48 8b 85 d8 f3 ff ff 	mov    -0xc28(%rbp),%rax
   11afd:	0f b6 00             	movzbl (%rax),%eax
   11b00:	0f be c0             	movsbl %al,%eax
   11b03:	39 c2                	cmp    %eax,%edx
   11b05:	0f 9d c0             	setge  %al
   11b08:	0f b6 c0             	movzbl %al,%eax
   11b0b:	44 89 e6             	mov    %r12d,%esi
   11b0e:	89 c7                	mov    %eax,%edi
   11b10:	e8 a9 81 ff ff       	callq  9cbe <safe_rshift_func_uint8_t_u_u>
   11b15:	8b 05 09 95 00 00    	mov    0x9509(%rip),%eax        # 1b024 <g_4>
   11b1b:	be 00 00 00 00       	mov    $0x0,%esi
   11b20:	89 c7                	mov    %eax,%edi
   11b22:	e8 8f 7a ff ff       	callq  95b6 <safe_add_func_int32_t_s_s>
   11b27:	89 c2                	mov    %eax,%edx
   11b29:	8b 05 f5 94 00 00    	mov    0x94f5(%rip),%eax        # 1b024 <g_4>
   11b2f:	21 d0                	and    %edx,%eax
   11b31:	0f be c0             	movsbl %al,%eax
   11b34:	48 8d 15 e9 94 00 00 	lea    0x94e9(%rip),%rdx        # 1b024 <g_4>
   11b3b:	89 de                	mov    %ebx,%esi
   11b3d:	89 c7                	mov    %eax,%edi
   11b3f:	e8 3c 29 00 00       	callq  14480 <func_76>
   11b44:	84 c0                	test   %al,%al
   11b46:	74 07                	je     11b4f <func_68+0x582>
   11b48:	ba 01 00 00 00       	mov    $0x1,%edx
   11b4d:	eb 05                	jmp    11b54 <func_68+0x587>
   11b4f:	ba 00 00 00 00       	mov    $0x0,%edx
   11b54:	8b 05 ca 94 00 00    	mov    0x94ca(%rip),%eax        # 1b024 <g_4>
   11b5a:	09 c2                	or     %eax,%edx
   11b5c:	48 8b 85 e0 f4 ff ff 	mov    -0xb20(%rbp),%rax
   11b63:	48 63 d2             	movslq %edx,%rdx
   11b66:	48 89 10             	mov    %rdx,(%rax)
   11b69:	48 8b 00             	mov    (%rax),%rax
   11b6c:	48 89 c2             	mov    %rax,%rdx
   11b6f:	48 b8 d5 bd fb 21 cf 	movabs $0x8cbb9bcf21fbbdd5,%rax
   11b76:	9b bb 8c 
   11b79:	48 39 c2             	cmp    %rax,%rdx
   11b7c:	0f 87 d4 14 00 00    	ja     13056 <func_68+0x1a89>
   11b82:	c7 85 14 f4 ff ff ec 	movl   $0x75c4e6ec,-0xbec(%rbp)
   11b89:	e6 c4 75 
   11b8c:	48 8d 05 ed ce 00 00 	lea    0xceed(%rip),%rax        # 1ea80 <g_32>
   11b93:	48 89 85 20 f6 ff ff 	mov    %rax,-0x9e0(%rbp)
   11b9a:	66 c7 85 d0 f7 ff ff 	movw   $0xbab6,-0x830(%rbp)
   11ba1:	b6 ba 
   11ba3:	66 c7 85 d2 f7 ff ff 	movw   $0x9741,-0x82e(%rbp)
   11baa:	41 97 
   11bac:	66 c7 85 d4 f7 ff ff 	movw   $0xf051,-0x82c(%rbp)
   11bb3:	51 f0 
   11bb5:	66 c7 85 d6 f7 ff ff 	movw   $0x6a71,-0x82a(%rbp)
   11bbc:	71 6a 
   11bbe:	66 c7 85 d8 f7 ff ff 	movw   $0xf051,-0x828(%rbp)
   11bc5:	51 f0 
   11bc7:	66 c7 85 da f7 ff ff 	movw   $0x9741,-0x826(%rbp)
   11bce:	41 97 
   11bd0:	66 c7 85 dc f7 ff ff 	movw   $0xbab6,-0x824(%rbp)
   11bd7:	b6 ba 
   11bd9:	66 c7 85 de f7 ff ff 	movw   $0x9741,-0x822(%rbp)
   11be0:	41 97 
   11be2:	66 c7 85 e0 f7 ff ff 	movw   $0xf051,-0x820(%rbp)
   11be9:	51 f0 
   11beb:	66 c7 85 e2 f7 ff ff 	movw   $0x6a71,-0x81e(%rbp)
   11bf2:	71 6a 
   11bf4:	66 c7 85 e4 f7 ff ff 	movw   $0xf051,-0x81c(%rbp)
   11bfb:	51 f0 
   11bfd:	66 c7 85 e6 f7 ff ff 	movw   $0x9741,-0x81a(%rbp)
   11c04:	41 97 
   11c06:	48 c7 85 20 f5 ff ff 	movq   $0xfffffffffffffffd,-0xae0(%rbp)
   11c0d:	fd ff ff ff 
   11c11:	c7 85 5c f4 ff ff 0f 	movl   $0x57937e0f,-0xba4(%rbp)
   11c18:	7e 93 57 
   11c1b:	66 c7 85 f0 f3 ff ff 	movw   $0x1c04,-0xc10(%rbp)
   11c22:	04 1c 
   11c24:	48 8d 05 5d ce 00 00 	lea    0xce5d(%rip),%rax        # 1ea88 <g_108>
   11c2b:	48 89 85 28 f6 ff ff 	mov    %rax,-0x9d8(%rbp)
   11c32:	48 8d 05 47 a0 00 00 	lea    0xa047(%rip),%rax        # 1bc80 <g_313>
   11c39:	48 89 85 f0 f8 ff ff 	mov    %rax,-0x710(%rbp)
   11c40:	48 8d 05 39 a0 00 00 	lea    0xa039(%rip),%rax        # 1bc80 <g_313>
   11c47:	48 89 85 f8 f8 ff ff 	mov    %rax,-0x708(%rbp)
   11c4e:	48 8d 05 2b a0 00 00 	lea    0xa02b(%rip),%rax        # 1bc80 <g_313>
   11c55:	48 89 85 00 f9 ff ff 	mov    %rax,-0x700(%rbp)
   11c5c:	48 8d 05 1d a0 00 00 	lea    0xa01d(%rip),%rax        # 1bc80 <g_313>
   11c63:	48 89 85 08 f9 ff ff 	mov    %rax,-0x6f8(%rbp)
   11c6a:	48 8d 05 0f a0 00 00 	lea    0xa00f(%rip),%rax        # 1bc80 <g_313>
   11c71:	48 89 85 10 f9 ff ff 	mov    %rax,-0x6f0(%rbp)
   11c78:	48 8d 05 01 a0 00 00 	lea    0xa001(%rip),%rax        # 1bc80 <g_313>
   11c7f:	48 89 85 18 f9 ff ff 	mov    %rax,-0x6e8(%rbp)
   11c86:	48 8d 05 f3 9f 00 00 	lea    0x9ff3(%rip),%rax        # 1bc80 <g_313>
   11c8d:	48 89 85 20 f9 ff ff 	mov    %rax,-0x6e0(%rbp)
   11c94:	48 8d 05 e5 9f 00 00 	lea    0x9fe5(%rip),%rax        # 1bc80 <g_313>
   11c9b:	48 89 85 28 f9 ff ff 	mov    %rax,-0x6d8(%rbp)
   11ca2:	48 8d 05 d7 9f 00 00 	lea    0x9fd7(%rip),%rax        # 1bc80 <g_313>
   11ca9:	48 89 85 30 f9 ff ff 	mov    %rax,-0x6d0(%rbp)
   11cb0:	48 8d 05 c9 9f 00 00 	lea    0x9fc9(%rip),%rax        # 1bc80 <g_313>
   11cb7:	48 89 85 38 f9 ff ff 	mov    %rax,-0x6c8(%rbp)
   11cbe:	48 b8 fa fa ff c5 f8 	movabs $0xc5f8fff8c5fffafa,%rax
   11cc5:	ff f8 c5 
   11cc8:	48 89 85 90 f7 ff ff 	mov    %rax,-0x870(%rbp)
   11ccf:	c6 85 98 f7 ff ff ff 	movb   $0xff,-0x868(%rbp)
   11cd6:	48 89 85 99 f7 ff ff 	mov    %rax,-0x867(%rbp)
   11cdd:	c6 85 a1 f7 ff ff ff 	movb   $0xff,-0x85f(%rbp)
   11ce4:	c7 85 24 f4 ff ff 00 	movl   $0x0,-0xbdc(%rbp)
   11ceb:	00 00 00 
   11cee:	eb 1a                	jmp    11d0a <func_68+0x73d>
   11cf0:	8b 85 24 f4 ff ff    	mov    -0xbdc(%rbp),%eax
   11cf6:	48 98                	cltq   
   11cf8:	c7 84 85 b0 f7 ff ff 	movl   $0x58306e76,-0x850(%rbp,%rax,4)
   11cff:	76 6e 30 58 
   11d03:	83 85 24 f4 ff ff 01 	addl   $0x1,-0xbdc(%rbp)
   11d0a:	83 bd 24 f4 ff ff 05 	cmpl   $0x5,-0xbdc(%rbp)
   11d11:	7e dd                	jle    11cf0 <func_68+0x723>
   11d13:	90                   	nop
   11d14:	c7 85 d4 f3 ff ff 00 	movl   $0x0,-0xc2c(%rbp)
   11d1b:	00 00 00 
   11d1e:	e9 31 08 00 00       	jmpq   12554 <func_68+0xf87>
   11d23:	48 8d 85 d0 f4 ff ff 	lea    -0xb30(%rbp),%rax
   11d2a:	48 89 85 e8 f6 ff ff 	mov    %rax,-0x918(%rbp)
   11d31:	48 c7 85 f0 f6 ff ff 	movq   $0x0,-0x910(%rbp)
   11d38:	00 00 00 00 
   11d3c:	48 8d 05 3d cd 00 00 	lea    0xcd3d(%rip),%rax        # 1ea80 <g_32>
   11d43:	48 89 85 f8 f6 ff ff 	mov    %rax,-0x908(%rbp)
   11d4a:	c7 85 b0 f4 ff ff b4 	movl   $0xbd89c7b4,-0xb50(%rbp)
   11d51:	c7 89 bd 
   11d54:	48 8d 85 04 f4 ff ff 	lea    -0xbfc(%rbp),%rax
   11d5b:	48 89 85 00 f7 ff ff 	mov    %rax,-0x900(%rbp)
   11d62:	48 8d 85 b0 f7 ff ff 	lea    -0x850(%rbp),%rax
   11d69:	48 83 c0 0c          	add    $0xc,%rax
   11d6d:	48 89 85 08 f7 ff ff 	mov    %rax,-0x8f8(%rbp)
   11d74:	48 8d 85 b0 f7 ff ff 	lea    -0x850(%rbp),%rax
   11d7b:	48 83 c0 0c          	add    $0xc,%rax
   11d7f:	48 89 85 10 f7 ff ff 	mov    %rax,-0x8f0(%rbp)
   11d86:	c7 85 08 f5 ff ff 6c 	movl   $0x173b76c,-0xaf8(%rbp)
   11d8d:	b7 73 01 
   11d90:	48 8d 85 b0 f7 ff ff 	lea    -0x850(%rbp),%rax
   11d97:	48 83 c0 04          	add    $0x4,%rax
   11d9b:	48 89 85 18 f7 ff ff 	mov    %rax,-0x8e8(%rbp)
   11da2:	48 8d 85 08 f5 ff ff 	lea    -0xaf8(%rbp),%rax
   11da9:	48 89 85 20 f7 ff ff 	mov    %rax,-0x8e0(%rbp)
   11db0:	48 8d 85 08 f5 ff ff 	lea    -0xaf8(%rbp),%rax
   11db7:	48 89 85 f0 f7 ff ff 	mov    %rax,-0x810(%rbp)
   11dbe:	48 8d 85 08 f5 ff ff 	lea    -0xaf8(%rbp),%rax
   11dc5:	48 89 85 f8 f7 ff ff 	mov    %rax,-0x808(%rbp)
   11dcc:	48 8d 85 b0 f7 ff ff 	lea    -0x850(%rbp),%rax
   11dd3:	48 83 c0 10          	add    $0x10,%rax
   11dd7:	48 89 85 00 f8 ff ff 	mov    %rax,-0x800(%rbp)
   11dde:	48 8d 85 08 f5 ff ff 	lea    -0xaf8(%rbp),%rax
   11de5:	48 89 85 08 f8 ff ff 	mov    %rax,-0x7f8(%rbp)
   11dec:	48 8d 85 08 f5 ff ff 	lea    -0xaf8(%rbp),%rax
   11df3:	48 89 85 10 f8 ff ff 	mov    %rax,-0x7f0(%rbp)
   11dfa:	48 8d 85 b0 f7 ff ff 	lea    -0x850(%rbp),%rax
   11e01:	48 83 c0 10          	add    $0x10,%rax
   11e05:	48 89 85 18 f8 ff ff 	mov    %rax,-0x7e8(%rbp)
   11e0c:	c7 85 b4 f4 ff ff ff 	movl   $0xffffffff,-0xb4c(%rbp)
   11e13:	ff ff ff 
   11e16:	c7 85 10 f5 ff ff 00 	movl   $0x0,-0xaf0(%rbp)
   11e1d:	00 00 00 
   11e20:	48 8d 95 c0 f9 ff ff 	lea    -0x640(%rbp),%rdx
   11e27:	b8 00 00 00 00       	mov    $0x0,%eax
   11e2c:	b9 18 00 00 00       	mov    $0x18,%ecx
   11e31:	48 89 d7             	mov    %rdx,%rdi
   11e34:	f3 48 ab             	rep stos %rax,%es:(%rdi)
   11e37:	c7 85 d0 f3 ff ff e4 	movl   $0xffffffe4,-0xc30(%rbp)
   11e3e:	ff ff ff 
   11e41:	83 bd d0 f3 ff ff 08 	cmpl   $0x8,-0xc30(%rbp)
   11e48:	76 30                	jbe    11e7a <func_68+0x8ad>
   11e4a:	c7 85 bc f4 ff ff d9 	movl   $0x5f78abd9,-0xb44(%rbp)
   11e51:	ab 78 5f 
   11e54:	48 8b 05 3d cc 00 00 	mov    0xcc3d(%rip),%rax        # 1ea98 <g_106>
   11e5b:	48 8b 95 e8 f6 ff ff 	mov    -0x918(%rbp),%rdx
   11e62:	48 89 10             	mov    %rdx,(%rax)
   11e65:	c7 85 bc f4 ff ff b3 	movl   $0xc41968b3,-0xb44(%rbp)
   11e6c:	68 19 c4 
   11e6f:	8b 85 bc f7 ff ff    	mov    -0x844(%rbp),%eax
   11e75:	e9 e0 25 00 00       	jmpq   1445a <func_68+0x2e8d>
   11e7a:	48 8b 85 f8 f6 ff ff 	mov    -0x908(%rbp),%rax
   11e81:	48 8d 15 78 95 00 00 	lea    0x9578(%rip),%rdx        # 1b400 <g_33>
   11e88:	48 89 10             	mov    %rdx,(%rax)
   11e8b:	48 8b 85 f8 f6 ff ff 	mov    -0x908(%rbp),%rax
   11e92:	48 8b 00             	mov    (%rax),%rax
   11e95:	48 8d 15 64 95 00 00 	lea    0x9564(%rip),%rdx        # 1b400 <g_33>
   11e9c:	48 39 d0             	cmp    %rdx,%rax
   11e9f:	0f 95 c0             	setne  %al
   11ea2:	0f b6 c0             	movzbl %al,%eax
   11ea5:	89 c6                	mov    %eax,%esi
   11ea7:	bf 19 00 00 00       	mov    $0x19,%edi
   11eac:	e8 c7 7c ff ff       	callq  9b78 <safe_sub_func_uint8_t_u_u>
   11eb1:	0f b6 d0             	movzbl %al,%edx
   11eb4:	48 8b 85 38 f5 ff ff 	mov    -0xac8(%rbp),%rax
   11ebb:	89 10                	mov    %edx,(%rax)
   11ebd:	83 85 b4 f4 ff ff 01 	addl   $0x1,-0xb4c(%rbp)
   11ec4:	c7 85 08 f4 ff ff 00 	movl   $0x0,-0xbf8(%rbp)
   11ecb:	00 00 00 
   11ece:	e9 63 06 00 00       	jmpq   12536 <func_68+0xf69>
   11ed3:	48 b8 81 cd 62 c6 e6 	movabs $0x22096fe6c662cd81,%rax
   11eda:	6f 09 22 
   11edd:	48 89 85 20 f8 ff ff 	mov    %rax,-0x7e0(%rbp)
   11ee4:	48 89 85 28 f8 ff ff 	mov    %rax,-0x7d8(%rbp)
   11eeb:	48 c7 85 30 f8 ff ff 	movq   $0xffffffffffffffff,-0x7d0(%rbp)
   11ef2:	ff ff ff ff 
   11ef6:	48 89 85 38 f8 ff ff 	mov    %rax,-0x7c8(%rbp)
   11efd:	48 89 85 40 f8 ff ff 	mov    %rax,-0x7c0(%rbp)
   11f04:	48 c7 85 48 f8 ff ff 	movq   $0xffffffffffffffff,-0x7b8(%rbp)
   11f0b:	ff ff ff ff 
   11f0f:	48 89 85 50 f8 ff ff 	mov    %rax,-0x7b0(%rbp)
   11f16:	c7 85 60 f8 ff ff 9c 	movl   $0x9cf9ff9c,-0x7a0(%rbp)
   11f1d:	ff f9 9c 
   11f20:	66 c7 85 64 f8 ff ff 	movw   $0x0,-0x79c(%rbp)
   11f27:	00 00 
   11f29:	c6 85 66 f8 ff ff 9c 	movb   $0x9c,-0x79a(%rbp)
   11f30:	c7 85 67 f8 ff ff f9 	movl   $0xf9fef9,-0x799(%rbp)
   11f37:	fe f9 00 
   11f3a:	66 c7 85 6b f8 ff ff 	movw   $0xfffe,-0x795(%rbp)
   11f41:	fe ff 
   11f43:	c6 85 6d f8 ff ff ff 	movb   $0xff,-0x793(%rbp)
   11f4a:	c7 85 6e f8 ff ff fe 	movl   $0x9c6b9cfe,-0x792(%rbp)
   11f51:	9c 6b 9c 
   11f54:	66 c7 85 72 f8 ff ff 	movw   $0x6bfe,-0x78e(%rbp)
   11f5b:	fe 6b 
   11f5d:	c6 85 74 f8 ff ff f5 	movb   $0xf5,-0x78c(%rbp)
   11f64:	c7 85 75 f8 ff ff f5 	movl   $0xf500fff5,-0x78b(%rbp)
   11f6b:	ff 00 f5 
   11f6e:	66 c7 85 79 f8 ff ff 	movw   $0xff00,-0x787(%rbp)
   11f75:	00 ff 
   11f77:	c6 85 7b f8 ff ff f5 	movb   $0xf5,-0x785(%rbp)
   11f7e:	c7 85 7c f8 ff ff f9 	movl   $0xfff5f9,-0x784(%rbp)
   11f85:	f5 ff 00 
   11f88:	66 c7 85 80 f8 ff ff 	movw   $0xf5,-0x780(%rbp)
   11f8f:	f5 00 
   11f91:	c6 85 82 f8 ff ff ff 	movb   $0xff,-0x77e(%rbp)
   11f98:	c7 85 83 f8 ff ff f5 	movl   $0xfe6bf5f5,-0x77d(%rbp)
   11f9f:	f5 6b fe 
   11fa2:	66 c7 85 87 f8 ff ff 	movw   $0x6b9c,-0x779(%rbp)
   11fa9:	9c 6b 
   11fab:	c6 85 89 f8 ff ff 9c 	movb   $0x9c,-0x777(%rbp)
   11fb2:	c7 85 8a f8 ff ff fe 	movl   $0xfffffffe,-0x776(%rbp)
   11fb9:	ff ff ff 
   11fbc:	66 c7 85 8e f8 ff ff 	movw   $0x2ca4,-0x772(%rbp)
   11fc3:	a4 2c 
   11fc5:	c6 85 90 f8 ff ff ff 	movb   $0xff,-0x770(%rbp)
   11fcc:	c7 85 91 f8 ff ff 2c 	movl   $0xa4a4002c,-0x76f(%rbp)
   11fd3:	00 a4 a4 
   11fd6:	66 c7 85 95 f8 ff ff 	movw   $0x2c00,-0x76b(%rbp)
   11fdd:	00 2c 
   11fdf:	c6 85 97 f8 ff ff 6b 	movb   $0x6b,-0x769(%rbp)
   11fe6:	c7 85 98 f8 ff ff 00 	movl   $0xf9f5ff00,-0x768(%rbp)
   11fed:	ff f5 f9 
   11ff0:	66 c7 85 9c f8 ff ff 	movw   $0xf5f9,-0x764(%rbp)
   11ff7:	f9 f5 
   11ff9:	c6 85 9e f8 ff ff ff 	movb   $0xff,-0x762(%rbp)
   12000:	48 8d 85 60 fb ff ff 	lea    -0x4a0(%rbp),%rax
   12007:	48 8d 15 52 5c 00 00 	lea    0x5c52(%rip),%rdx        # 17c60 <g_1889+0x1470>
   1200e:	b9 1f 00 00 00       	mov    $0x1f,%ecx
   12013:	48 89 c7             	mov    %rax,%rdi
   12016:	48 89 d6             	mov    %rdx,%rsi
   12019:	f3 48 a5             	rep movsq %ds:(%rsi),%es:(%rdi)
   1201c:	48 89 f2             	mov    %rsi,%rdx
   1201f:	48 89 f8             	mov    %rdi,%rax
   12022:	8b 0a                	mov    (%rdx),%ecx
   12024:	89 08                	mov    %ecx,(%rax)
   12026:	48 8d 40 04          	lea    0x4(%rax),%rax
   1202a:	48 8d 52 04          	lea    0x4(%rdx),%rdx
   1202e:	8b 05 88 9b 00 00    	mov    0x9b88(%rip),%eax        # 1bbbc <g_95+0x1c>
   12034:	89 85 10 f5 ff ff    	mov    %eax,-0xaf0(%rbp)
   1203a:	8b 85 10 f5 ff ff    	mov    -0xaf0(%rbp),%eax
   12040:	89 85 14 f4 ff ff    	mov    %eax,-0xbec(%rbp)
   12046:	c7 85 08 f5 ff ff 00 	movl   $0x0,-0xaf8(%rbp)
   1204d:	00 00 00 
   12050:	e9 ab 00 00 00       	jmpq   12100 <func_68+0xb33>
   12055:	0f b6 05 b4 93 00 00 	movzbl 0x93b4(%rip),%eax        # 1b410 <g_73+0x8>
   1205c:	0f b6 c0             	movzbl %al,%eax
   1205f:	48 89 85 40 f8 ff ff 	mov    %rax,-0x7c0(%rbp)
   12066:	48 8b 05 6b 9b 00 00 	mov    0x9b6b(%rip),%rax        # 1bbd8 <g_100>
   1206d:	89 c2                	mov    %eax,%edx
   1206f:	48 8b 85 08 f7 ff ff 	mov    -0x8f8(%rbp),%rax
   12076:	89 10                	mov    %edx,(%rax)
   12078:	8b 05 3e 9b 00 00    	mov    0x9b3e(%rip),%eax        # 1bbbc <g_95+0x1c>
   1207e:	85 c0                	test   %eax,%eax
   12080:	74 0c                	je     1208e <func_68+0xac1>
   12082:	48 8b 05 2f 94 00 00 	mov    0x942f(%rip),%rax        # 1b4b8 <g_91+0x98>
   12089:	e9 cc 23 00 00       	jmpq   1445a <func_68+0x2e8d>
   1208e:	48 8d 05 0b cc 00 00 	lea    0xcc0b(%rip),%rax        # 1eca0 <g_134>
   12095:	48 89 85 38 f7 ff ff 	mov    %rax,-0x8c8(%rbp)
   1209c:	48 8d 85 c0 f9 ff ff 	lea    -0x640(%rbp),%rax
   120a3:	48 05 98 00 00 00    	add    $0x98,%rax
   120a9:	48 89 85 40 f7 ff ff 	mov    %rax,-0x8c0(%rbp)
   120b0:	48 8d 85 d8 f3 ff ff 	lea    -0xc28(%rbp),%rax
   120b7:	48 89 85 20 f6 ff ff 	mov    %rax,-0x9e0(%rbp)
   120be:	48 8b 85 30 f5 ff ff 	mov    -0xad0(%rbp),%rax
   120c5:	48 8d 15 58 8f 00 00 	lea    0x8f58(%rip),%rdx        # 1b024 <g_4>
   120cc:	48 89 10             	mov    %rdx,(%rax)
   120cf:	48 8b 15 ca cb 00 00 	mov    0xcbca(%rip),%rdx        # 1eca0 <g_134>
   120d6:	48 8b 85 38 f7 ff ff 	mov    -0x8c8(%rbp),%rax
   120dd:	48 89 10             	mov    %rdx,(%rax)
   120e0:	48 8b 95 58 fa ff ff 	mov    -0x5a8(%rbp),%rdx
   120e7:	48 8b 85 40 f7 ff ff 	mov    -0x8c0(%rbp),%rax
   120ee:	48 89 10             	mov    %rdx,(%rax)
   120f1:	8b 85 08 f5 ff ff    	mov    -0xaf8(%rbp),%eax
   120f7:	83 c0 01             	add    $0x1,%eax
   120fa:	89 85 08 f5 ff ff    	mov    %eax,-0xaf8(%rbp)
   12100:	8b 85 08 f5 ff ff    	mov    -0xaf8(%rbp),%eax
   12106:	85 c0                	test   %eax,%eax
   12108:	0f 8e 47 ff ff ff    	jle    12055 <func_68+0xa88>
   1210e:	c7 85 14 f4 ff ff 00 	movl   $0x0,-0xbec(%rbp)
   12115:	00 00 00 
   12118:	e9 ed 03 00 00       	jmpq   1250a <func_68+0xf3d>
   1211d:	66 c7 85 02 f4 ff ff 	movw   $0x0,-0xbfe(%rbp)
   12124:	00 00 
   12126:	c7 85 b8 f4 ff ff 0a 	movl   $0xe9bf4c0a,-0xb48(%rbp)
   1212d:	4c bf e9 
   12130:	48 c7 85 28 f7 ff ff 	movq   $0x0,-0x8d8(%rbp)
   12137:	00 00 00 00 
   1213b:	48 8d 05 e6 e2 00 00 	lea    0xe2e6(%rip),%rax        # 20428 <g_161>
   12142:	48 89 85 60 fc ff ff 	mov    %rax,-0x3a0(%rbp)
   12149:	48 8d 85 d0 f7 ff ff 	lea    -0x830(%rbp),%rax
   12150:	48 89 85 68 fc ff ff 	mov    %rax,-0x398(%rbp)
   12157:	48 8d 05 ca e2 00 00 	lea    0xe2ca(%rip),%rax        # 20428 <g_161>
   1215e:	48 89 85 70 fc ff ff 	mov    %rax,-0x390(%rbp)
   12165:	48 8d 05 bc e2 00 00 	lea    0xe2bc(%rip),%rax        # 20428 <g_161>
   1216c:	48 89 85 78 fc ff ff 	mov    %rax,-0x388(%rbp)
   12173:	48 8d 85 d0 f7 ff ff 	lea    -0x830(%rbp),%rax
   1217a:	48 89 85 80 fc ff ff 	mov    %rax,-0x380(%rbp)
   12181:	48 8d 05 a0 e2 00 00 	lea    0xe2a0(%rip),%rax        # 20428 <g_161>
   12188:	48 89 85 88 fc ff ff 	mov    %rax,-0x378(%rbp)
   1218f:	48 c7 85 90 fc ff ff 	movq   $0x0,-0x370(%rbp)
   12196:	00 00 00 00 
   1219a:	48 8d 05 87 e2 00 00 	lea    0xe287(%rip),%rax        # 20428 <g_161>
   121a1:	48 89 85 98 fc ff ff 	mov    %rax,-0x368(%rbp)
   121a8:	48 8d 85 d0 f7 ff ff 	lea    -0x830(%rbp),%rax
   121af:	48 89 85 a0 fc ff ff 	mov    %rax,-0x360(%rbp)
   121b6:	48 8d 05 6b e2 00 00 	lea    0xe26b(%rip),%rax        # 20428 <g_161>
   121bd:	48 89 85 a8 fc ff ff 	mov    %rax,-0x358(%rbp)
   121c4:	48 8d 05 5d e2 00 00 	lea    0xe25d(%rip),%rax        # 20428 <g_161>
   121cb:	48 89 85 b0 fc ff ff 	mov    %rax,-0x350(%rbp)
   121d2:	48 8d 85 d0 f7 ff ff 	lea    -0x830(%rbp),%rax
   121d9:	48 89 85 b8 fc ff ff 	mov    %rax,-0x348(%rbp)
   121e0:	48 8d 05 41 e2 00 00 	lea    0xe241(%rip),%rax        # 20428 <g_161>
   121e7:	48 89 85 c0 fc ff ff 	mov    %rax,-0x340(%rbp)
   121ee:	48 8d 05 33 e2 00 00 	lea    0xe233(%rip),%rax        # 20428 <g_161>
   121f5:	48 89 85 c8 fc ff ff 	mov    %rax,-0x338(%rbp)
   121fc:	48 8d 85 d0 f7 ff ff 	lea    -0x830(%rbp),%rax
   12203:	48 89 85 d0 fc ff ff 	mov    %rax,-0x330(%rbp)
   1220a:	48 8d 05 17 e2 00 00 	lea    0xe217(%rip),%rax        # 20428 <g_161>
   12211:	48 89 85 d8 fc ff ff 	mov    %rax,-0x328(%rbp)
   12218:	48 c7 85 e0 fc ff ff 	movq   $0x0,-0x320(%rbp)
   1221f:	00 00 00 00 
   12223:	48 8d 05 fe e1 00 00 	lea    0xe1fe(%rip),%rax        # 20428 <g_161>
   1222a:	48 89 85 e8 fc ff ff 	mov    %rax,-0x318(%rbp)
   12231:	48 8d 85 d0 f7 ff ff 	lea    -0x830(%rbp),%rax
   12238:	48 89 85 f0 fc ff ff 	mov    %rax,-0x310(%rbp)
   1223f:	48 8d 05 e2 e1 00 00 	lea    0xe1e2(%rip),%rax        # 20428 <g_161>
   12246:	48 89 85 f8 fc ff ff 	mov    %rax,-0x308(%rbp)
   1224d:	48 8d 05 d4 e1 00 00 	lea    0xe1d4(%rip),%rax        # 20428 <g_161>
   12254:	48 89 85 00 fd ff ff 	mov    %rax,-0x300(%rbp)
   1225b:	48 8d 85 d0 f7 ff ff 	lea    -0x830(%rbp),%rax
   12262:	48 89 85 08 fd ff ff 	mov    %rax,-0x2f8(%rbp)
   12269:	48 8d 05 b8 e1 00 00 	lea    0xe1b8(%rip),%rax        # 20428 <g_161>
   12270:	48 89 85 10 fd ff ff 	mov    %rax,-0x2f0(%rbp)
   12277:	48 8d 05 aa e1 00 00 	lea    0xe1aa(%rip),%rax        # 20428 <g_161>
   1227e:	48 89 85 18 fd ff ff 	mov    %rax,-0x2e8(%rbp)
   12285:	48 8d 85 d0 f7 ff ff 	lea    -0x830(%rbp),%rax
   1228c:	48 89 85 20 fd ff ff 	mov    %rax,-0x2e0(%rbp)
   12293:	48 8d 05 8e e1 00 00 	lea    0xe18e(%rip),%rax        # 20428 <g_161>
   1229a:	48 89 85 28 fd ff ff 	mov    %rax,-0x2d8(%rbp)
   122a1:	48 c7 85 30 fd ff ff 	movq   $0x0,-0x2d0(%rbp)
   122a8:	00 00 00 00 
   122ac:	48 8d 05 75 e1 00 00 	lea    0xe175(%rip),%rax        # 20428 <g_161>
   122b3:	48 89 85 38 fd ff ff 	mov    %rax,-0x2c8(%rbp)
   122ba:	48 8d 85 d0 f7 ff ff 	lea    -0x830(%rbp),%rax
   122c1:	48 89 85 40 fd ff ff 	mov    %rax,-0x2c0(%rbp)
   122c8:	48 8d 05 59 e1 00 00 	lea    0xe159(%rip),%rax        # 20428 <g_161>
   122cf:	48 89 85 48 fd ff ff 	mov    %rax,-0x2b8(%rbp)
   122d6:	48 8d 05 4b e1 00 00 	lea    0xe14b(%rip),%rax        # 20428 <g_161>
   122dd:	48 89 85 50 fd ff ff 	mov    %rax,-0x2b0(%rbp)
   122e4:	48 8d 85 d0 f7 ff ff 	lea    -0x830(%rbp),%rax
   122eb:	48 89 85 58 fd ff ff 	mov    %rax,-0x2a8(%rbp)
   122f2:	48 8d 05 2f e1 00 00 	lea    0xe12f(%rip),%rax        # 20428 <g_161>
   122f9:	48 89 85 60 fd ff ff 	mov    %rax,-0x2a0(%rbp)
   12300:	48 8d 05 21 e1 00 00 	lea    0xe121(%rip),%rax        # 20428 <g_161>
   12307:	48 89 85 68 fd ff ff 	mov    %rax,-0x298(%rbp)
   1230e:	48 8d 85 d0 f7 ff ff 	lea    -0x830(%rbp),%rax
   12315:	48 89 85 70 fd ff ff 	mov    %rax,-0x290(%rbp)
   1231c:	48 8d 05 05 e1 00 00 	lea    0xe105(%rip),%rax        # 20428 <g_161>
   12323:	48 89 85 78 fd ff ff 	mov    %rax,-0x288(%rbp)
   1232a:	48 c7 85 80 fd ff ff 	movq   $0x0,-0x280(%rbp)
   12331:	00 00 00 00 
   12335:	48 8d 05 ec e0 00 00 	lea    0xe0ec(%rip),%rax        # 20428 <g_161>
   1233c:	48 89 85 88 fd ff ff 	mov    %rax,-0x278(%rbp)
   12343:	48 8d 85 d0 f7 ff ff 	lea    -0x830(%rbp),%rax
   1234a:	48 89 85 90 fd ff ff 	mov    %rax,-0x270(%rbp)
   12351:	48 8d 05 d0 e0 00 00 	lea    0xe0d0(%rip),%rax        # 20428 <g_161>
   12358:	48 89 85 98 fd ff ff 	mov    %rax,-0x268(%rbp)
   1235f:	48 8b 05 42 c9 00 00 	mov    0xc942(%rip),%rax        # 1eca8 <g_142>
   12366:	48 8b 0d 73 98 00 00 	mov    0x9873(%rip),%rcx        # 1bbe0 <g_141>
   1236d:	48 8b 1d 74 98 00 00 	mov    0x9874(%rip),%rbx        # 1bbe8 <g_141+0x8>
   12374:	48 89 08             	mov    %rcx,(%rax)
   12377:	48 89 58 08          	mov    %rbx,0x8(%rax)
   1237b:	0f b7 15 6e 98 00 00 	movzwl 0x986e(%rip),%edx        # 1bbf0 <g_141+0x10>
   12382:	66 89 50 10          	mov    %dx,0x10(%rax)
   12386:	0f b6 15 65 98 00 00 	movzbl 0x9865(%rip),%edx        # 1bbf2 <g_141+0x12>
   1238d:	88 50 12             	mov    %dl,0x12(%rax)
   12390:	48 c7 05 3d 98 00 00 	movq   $0x0,0x983d(%rip)        # 1bbd8 <g_100>
   12397:	00 00 00 00 
   1239b:	eb 25                	jmp    123c2 <func_68+0xdf5>
   1239d:	48 c7 85 30 f7 ff ff 	movq   $0xffffffffffffffff,-0x8d0(%rbp)
   123a4:	ff ff ff ff 
   123a8:	48 83 85 30 f7 ff ff 	addq   $0x1,-0x8d0(%rbp)
   123af:	01 
   123b0:	48 8b 05 21 98 00 00 	mov    0x9821(%rip),%rax        # 1bbd8 <g_100>
   123b7:	48 83 e8 01          	sub    $0x1,%rax
   123bb:	48 89 05 16 98 00 00 	mov    %rax,0x9816(%rip)        # 1bbd8 <g_100>
   123c2:	48 8b 05 0f 98 00 00 	mov    0x980f(%rip),%rax        # 1bbd8 <g_100>
   123c9:	48 83 f8 ec          	cmp    $0xffffffffffffffec,%rax
   123cd:	7c ce                	jl     1239d <func_68+0xdd0>
   123cf:	0f bf 9d 02 f4 ff ff 	movswl -0xbfe(%rbp),%ebx
   123d6:	8b 85 d4 f3 ff ff    	mov    -0xc2c(%rbp),%eax
   123dc:	85 c0                	test   %eax,%eax
   123de:	0f 85 d5 00 00 00    	jne    124b9 <func_68+0xeec>
   123e4:	0f b7 85 d0 f7 ff ff 	movzwl -0x830(%rbp),%eax
   123eb:	44 0f b7 e8          	movzwl %ax,%r13d
   123ef:	48 8b 05 c2 90 00 00 	mov    0x90c2(%rip),%rax        # 1b4b8 <g_91+0x98>
   123f6:	44 0f bf e0          	movswl %ax,%r12d
   123fa:	8b 85 d4 f3 ff ff    	mov    -0xc2c(%rbp),%eax
   12400:	48 98                	cltq   
   12402:	48 89 c6             	mov    %rax,%rsi
   12405:	bf 04 00 00 00       	mov    $0x4,%edi
   1240a:	e8 a0 7c ff ff       	callq  a0af <safe_div_func_uint64_t_u_u>
   1240f:	48 8b 85 d8 f3 ff ff 	mov    -0xc28(%rbp),%rax
   12416:	0f b6 00             	movzbl (%rax),%eax
   12419:	0f be c0             	movsbl %al,%eax
   1241c:	be ff ff ff ff       	mov    $0xffffffff,%esi
   12421:	89 c7                	mov    %eax,%edi
   12423:	e8 ea 6d ff ff       	callq  9212 <safe_mul_func_int8_t_s_s>
   12428:	88 85 7e f8 ff ff    	mov    %al,-0x782(%rbp)
   1242e:	be 06 00 00 00       	mov    $0x6,%esi
   12433:	bf 00 00 00 00       	mov    $0x0,%edi
   12438:	e8 c8 77 ff ff       	callq  9c05 <safe_lshift_func_uint8_t_u_s>
   1243d:	0f b6 c0             	movzbl %al,%eax
   12440:	44 89 e6             	mov    %r12d,%esi
   12443:	89 c7                	mov    %eax,%edi
   12445:	e8 ab 6f ff ff       	callq  93f5 <safe_mul_func_int16_t_s_s>
   1244a:	48 8b 95 18 f7 ff ff 	mov    -0x8e8(%rbp),%rdx
   12451:	8b 12                	mov    (%rdx),%edx
   12453:	98                   	cwtl   
   12454:	09 c2                	or     %eax,%edx
   12456:	48 8b 85 18 f7 ff ff 	mov    -0x8e8(%rbp),%rax
   1245d:	89 10                	mov    %edx,(%rax)
   1245f:	48 8b 85 18 f7 ff ff 	mov    -0x8e8(%rbp),%rax
   12466:	8b 10                	mov    (%rax),%edx
   12468:	48 8b 85 20 f7 ff ff 	mov    -0x8e0(%rbp),%rax
   1246f:	8b 00                	mov    (%rax),%eax
   12471:	09 c2                	or     %eax,%edx
   12473:	48 8b 85 20 f7 ff ff 	mov    -0x8e0(%rbp),%rax
   1247a:	89 10                	mov    %edx,(%rax)
   1247c:	48 8b 05 15 c8 00 00 	mov    0xc815(%rip),%rax        # 1ec98 <g_135>
   12483:	48 8b 95 20 f7 ff ff 	mov    -0x8e0(%rbp),%rdx
   1248a:	8b 12                	mov    (%rdx),%edx
   1248c:	89 10                	mov    %edx,(%rax)
   1248e:	8b 00                	mov    (%rax),%eax
   12490:	41 39 c5             	cmp    %eax,%r13d
   12493:	0f 9e c0             	setle  %al
   12496:	0f b6 c0             	movzbl %al,%eax
   12499:	48 89 85 20 f5 ff ff 	mov    %rax,-0xae0(%rbp)
   124a0:	48 8b 85 20 f5 ff ff 	mov    -0xae0(%rbp),%rax
   124a7:	89 85 a0 fb ff ff    	mov    %eax,-0x460(%rbp)
   124ad:	8b 85 a0 fb ff ff    	mov    -0x460(%rbp),%eax
   124b3:	39 85 b8 f4 ff ff    	cmp    %eax,-0xb48(%rbp)
   124b9:	8b 05 28 97 00 00    	mov    0x9728(%rip),%eax        # 1bbe7 <g_141+0x7>
   124bf:	39 85 d0 f3 ff ff    	cmp    %eax,-0xc30(%rbp)
   124c5:	0f 97 c0             	seta   %al
   124c8:	0f b6 c0             	movzbl %al,%eax
   124cb:	89 de                	mov    %ebx,%esi
   124cd:	89 c7                	mov    %eax,%edi
   124cf:	e8 98 6e ff ff       	callq  936c <safe_rshift_func_int8_t_s_u>
   124d4:	8b 85 d4 f3 ff ff    	mov    -0xc2c(%rbp),%eax
   124da:	39 85 d0 f3 ff ff    	cmp    %eax,-0xc30(%rbp)
   124e0:	0f 95 c0             	setne  %al
   124e3:	0f b6 c0             	movzbl %al,%eax
   124e6:	89 85 5c f4 ff ff    	mov    %eax,-0xba4(%rbp)
   124ec:	8b 85 14 f4 ff ff    	mov    -0xbec(%rbp),%eax
   124f2:	0f be c0             	movsbl %al,%eax
   124f5:	be 07 00 00 00       	mov    $0x7,%esi
   124fa:	89 c7                	mov    %eax,%edi
   124fc:	e8 d3 6c ff ff       	callq  91d4 <safe_add_func_int8_t_s_s>
   12501:	0f be c0             	movsbl %al,%eax
   12504:	89 85 14 f4 ff ff    	mov    %eax,-0xbec(%rbp)
   1250a:	8b 85 14 f4 ff ff    	mov    -0xbec(%rbp),%eax
   12510:	85 c0                	test   %eax,%eax
   12512:	0f 88 05 fc ff ff    	js     1211d <func_68+0xb50>
   12518:	8b 85 08 f4 ff ff    	mov    -0xbf8(%rbp),%eax
   1251e:	0f b7 c0             	movzwl %ax,%eax
   12521:	be 05 00 00 00       	mov    $0x5,%esi
   12526:	89 c7                	mov    %eax,%edi
   12528:	e8 d2 77 ff ff       	callq  9cff <safe_add_func_uint16_t_u_u>
   1252d:	0f b7 c0             	movzwl %ax,%eax
   12530:	89 85 08 f4 ff ff    	mov    %eax,-0xbf8(%rbp)
   12536:	8b 85 08 f4 ff ff    	mov    -0xbf8(%rbp),%eax
   1253c:	83 f8 04             	cmp    $0x4,%eax
   1253f:	0f 8e 8e f9 ff ff    	jle    11ed3 <func_68+0x906>
   12545:	8b 85 d4 f3 ff ff    	mov    -0xc2c(%rbp),%eax
   1254b:	83 e8 01             	sub    $0x1,%eax
   1254e:	89 85 d4 f3 ff ff    	mov    %eax,-0xc2c(%rbp)
   12554:	8b 85 d4 f3 ff ff    	mov    -0xc2c(%rbp),%eax
   1255a:	83 f8 ee             	cmp    $0xffffffee,%eax
   1255d:	0f 8d c0 f7 ff ff    	jge    11d23 <func_68+0x756>
   12563:	c7 85 5c f4 ff ff 0f 	movl   $0xf,-0xba4(%rbp)
   1256a:	00 00 00 
   1256d:	e9 37 0a 00 00       	jmpq   12fa9 <func_68+0x19dc>
   12572:	48 8d 05 43 96 00 00 	lea    0x9643(%rip),%rax        # 1bbbc <g_95+0x1c>
   12579:	48 89 85 f8 f4 ff ff 	mov    %rax,-0xb08(%rbp)
   12580:	48 8d 85 08 f4 ff ff 	lea    -0xbf8(%rbp),%rax
   12587:	48 89 85 30 f6 ff ff 	mov    %rax,-0x9d0(%rbp)
   1258e:	48 8d 85 08 f4 ff ff 	lea    -0xbf8(%rbp),%rax
   12595:	48 89 85 38 f6 ff ff 	mov    %rax,-0x9c8(%rbp)
   1259c:	48 8d 05 19 96 00 00 	lea    0x9619(%rip),%rax        # 1bbbc <g_95+0x1c>
   125a3:	48 89 85 40 f6 ff ff 	mov    %rax,-0x9c0(%rbp)
   125aa:	48 8d 85 14 f4 ff ff 	lea    -0xbec(%rbp),%rax
   125b1:	48 89 85 48 f6 ff ff 	mov    %rax,-0x9b8(%rbp)
   125b8:	48 8d 85 b0 f7 ff ff 	lea    -0x850(%rbp),%rax
   125bf:	48 83 c0 14          	add    $0x14,%rax
   125c3:	48 89 85 50 f6 ff ff 	mov    %rax,-0x9b0(%rbp)
   125ca:	48 c7 85 58 f6 ff ff 	movq   $0x0,-0x9a8(%rbp)
   125d1:	00 00 00 00 
   125d5:	48 8d 85 b0 f7 ff ff 	lea    -0x850(%rbp),%rax
   125dc:	48 83 c0 0c          	add    $0xc,%rax
   125e0:	48 89 85 60 f6 ff ff 	mov    %rax,-0x9a0(%rbp)
   125e7:	48 c7 85 68 f6 ff ff 	movq   $0x0,-0x998(%rbp)
   125ee:	00 00 00 00 
   125f2:	48 8d 85 20 f8 ff ff 	lea    -0x7e0(%rbp),%rax
   125f9:	48 83 c0 08          	add    $0x8,%rax
   125fd:	48 89 85 70 f6 ff ff 	mov    %rax,-0x990(%rbp)
   12604:	48 8d 05 00 8e 00 00 	lea    0x8e00(%rip),%rax        # 1b40b <g_73+0x3>
   1260b:	48 89 85 00 f5 ff ff 	mov    %rax,-0xb00(%rbp)
   12612:	48 8d 05 0f de 00 00 	lea    0xde0f(%rip),%rax        # 20428 <g_161>
   12619:	48 89 85 78 f6 ff ff 	mov    %rax,-0x988(%rbp)
   12620:	48 c7 85 80 f6 ff ff 	movq   $0x0,-0x980(%rbp)
   12627:	00 00 00 00 
   1262b:	48 b8 47 54 d9 54 8b 	movabs $0x78588c8b54d95447,%rax
   12632:	8c 58 78 
   12635:	48 89 85 88 f6 ff ff 	mov    %rax,-0x978(%rbp)
   1263c:	48 8d 85 a0 f8 ff ff 	lea    -0x760(%rbp),%rax
   12643:	48 83 c0 10          	add    $0x10,%rax
   12647:	48 89 85 08 f5 ff ff 	mov    %rax,-0xaf8(%rbp)
   1264e:	48 8d 85 08 f5 ff ff 	lea    -0xaf8(%rbp),%rax
   12655:	48 89 85 60 f8 ff ff 	mov    %rax,-0x7a0(%rbp)
   1265c:	48 8d 85 08 f5 ff ff 	lea    -0xaf8(%rbp),%rax
   12663:	48 89 85 68 f8 ff ff 	mov    %rax,-0x798(%rbp)
   1266a:	48 8d 85 08 f5 ff ff 	lea    -0xaf8(%rbp),%rax
   12671:	48 89 85 70 f8 ff ff 	mov    %rax,-0x790(%rbp)
   12678:	48 8d 85 08 f5 ff ff 	lea    -0xaf8(%rbp),%rax
   1267f:	48 89 85 78 f8 ff ff 	mov    %rax,-0x788(%rbp)
   12686:	48 8d 85 08 f5 ff ff 	lea    -0xaf8(%rbp),%rax
   1268d:	48 89 85 80 f8 ff ff 	mov    %rax,-0x780(%rbp)
   12694:	c7 85 28 f4 ff ff 00 	movl   $0x0,-0xbd8(%rbp)
   1269b:	00 00 00 
   1269e:	eb 1e                	jmp    126be <func_68+0x10f1>
   126a0:	8b 85 28 f4 ff ff    	mov    -0xbd8(%rbp),%eax
   126a6:	48 98                	cltq   
   126a8:	48 8d 95 08 f4 ff ff 	lea    -0xbf8(%rbp),%rdx
   126af:	48 89 94 c5 20 f8 ff 	mov    %rdx,-0x7e0(%rbp,%rax,8)
   126b6:	ff 
   126b7:	83 85 28 f4 ff ff 01 	addl   $0x1,-0xbd8(%rbp)
   126be:	83 bd 28 f4 ff ff 01 	cmpl   $0x1,-0xbd8(%rbp)
   126c5:	7e d9                	jle    126a0 <func_68+0x10d3>
   126c7:	66 83 ad f0 f3 ff ff 	subw   $0x1,-0xc10(%rbp)
   126ce:	01 
   126cf:	66 c7 85 f0 f3 ff ff 	movw   $0x0,-0xc10(%rbp)
   126d6:	00 00 
   126d8:	e9 2f 02 00 00       	jmpq   1290c <func_68+0x133f>
   126dd:	c6 85 ed f3 ff ff 01 	movb   $0x1,-0xc13(%rbp)
   126e4:	c7 85 2c f4 ff ff ff 	movl   $0xffffffff,-0xbd4(%rbp)
   126eb:	ff ff ff 
   126ee:	48 8d 05 0b 8d 00 00 	lea    0x8d0b(%rip),%rax        # 1b400 <g_33>
   126f5:	48 89 85 d8 f6 ff ff 	mov    %rax,-0x928(%rbp)
   126fc:	c7 85 0c f4 ff ff 00 	movl   $0x0,-0xbf4(%rbp)
   12703:	00 00 00 
   12706:	e9 dc 01 00 00       	jmpq   128e7 <func_68+0x131a>
   1270b:	c6 85 ee f3 ff ff c9 	movb   $0xc9,-0xc12(%rbp)
   12712:	48 8d 85 d0 f7 ff ff 	lea    -0x830(%rbp),%rax
   12719:	48 89 85 e0 f6 ff ff 	mov    %rax,-0x920(%rbp)
   12720:	c7 85 60 fc ff ff d7 	movl   $0x390a75d7,-0x3a0(%rbp)
   12727:	75 0a 39 
   1272a:	c7 85 64 fc ff ff 01 	movl   $0x1,-0x39c(%rbp)
   12731:	00 00 00 
   12734:	c7 85 68 fc ff ff d7 	movl   $0x390a75d7,-0x398(%rbp)
   1273b:	75 0a 39 
   1273e:	c7 85 6c fc ff ff 01 	movl   $0x1,-0x394(%rbp)
   12745:	00 00 00 
   12748:	c7 85 70 fc ff ff d7 	movl   $0x390a75d7,-0x390(%rbp)
   1274f:	75 0a 39 
   12752:	c7 85 74 fc ff ff 01 	movl   $0x1,-0x38c(%rbp)
   12759:	00 00 00 
   1275c:	c7 85 78 fc ff ff d7 	movl   $0x390a75d7,-0x388(%rbp)
   12763:	75 0a 39 
   12766:	c7 85 7c fc ff ff 01 	movl   $0x1,-0x384(%rbp)
   1276d:	00 00 00 
   12770:	c7 85 80 fc ff ff d7 	movl   $0x390a75d7,-0x380(%rbp)
   12777:	75 0a 39 
   1277a:	80 bd ed f3 ff ff 00 	cmpb   $0x0,-0xc13(%rbp)
   12781:	0f 85 71 01 00 00    	jne    128f8 <func_68+0x132b>
   12787:	8b 85 bc f7 ff ff    	mov    -0x844(%rbp),%eax
   1278d:	0f be d8             	movsbl %al,%ebx
   12790:	48 8b 85 e0 f6 ff ff 	mov    -0x920(%rbp),%rax
   12797:	0f b7 00             	movzwl (%rax),%eax
   1279a:	8d 50 ff             	lea    -0x1(%rax),%edx
   1279d:	48 8b 85 e0 f6 ff ff 	mov    -0x920(%rbp),%rax
   127a4:	66 89 10             	mov    %dx,(%rax)
   127a7:	48 8b 85 d8 f3 ff ff 	mov    -0xc28(%rbp),%rax
   127ae:	0f b6 00             	movzbl (%rax),%eax
   127b1:	44 0f b6 e0          	movzbl %al,%r12d
   127b5:	48 8b 85 d8 f3 ff ff 	mov    -0xc28(%rbp),%rax
   127bc:	48 39 85 d8 f6 ff ff 	cmp    %rax,-0x928(%rbp)
   127c3:	0f 95 c0             	setne  %al
   127c6:	0f b6 c0             	movzbl %al,%eax
   127c9:	89 c7                	mov    %eax,%edi
   127cb:	e8 19 75 ff ff       	callq  9ce9 <safe_unary_minus_func_uint16_t_u>
   127d0:	0f b7 c0             	movzwl %ax,%eax
   127d3:	be 92 5b 1c a6       	mov    $0xa61c5b92,%esi
   127d8:	89 c7                	mov    %eax,%edi
   127da:	e8 46 77 ff ff       	callq  9f25 <safe_div_func_uint32_t_u_u>
   127df:	8b 85 6c fc ff ff    	mov    -0x394(%rbp),%eax
   127e5:	0f b6 c0             	movzbl %al,%eax
   127e8:	44 89 e6             	mov    %r12d,%esi
   127eb:	89 c7                	mov    %eax,%edi
   127ed:	e8 a1 73 ff ff       	callq  9b93 <safe_mul_func_uint8_t_u_u>
   127f2:	48 c7 85 70 f6 ff ff 	movq   $0x0,-0x990(%rbp)
   127f9:	00 00 00 00 
   127fd:	48 8d 85 f8 f4 ff ff 	lea    -0xb08(%rbp),%rax
   12804:	48 39 85 70 f6 ff ff 	cmp    %rax,-0x990(%rbp)
   1280b:	0f 95 c0             	setne  %al
   1280e:	0f b6 d0             	movzbl %al,%edx
   12811:	48 8b 05 70 c2 00 00 	mov    0xc270(%rip),%rax        # 1ea88 <g_108>
   12818:	0f b6 00             	movzbl (%rax),%eax
   1281b:	0f b6 c0             	movzbl %al,%eax
   1281e:	89 d6                	mov    %edx,%esi
   12820:	89 c7                	mov    %eax,%edi
   12822:	e8 6c 73 ff ff       	callq  9b93 <safe_mul_func_uint8_t_u_u>
   12827:	89 de                	mov    %ebx,%esi
   12829:	bf 01 00 00 00       	mov    $0x1,%edi
   1282e:	e8 fe 69 ff ff       	callq  9231 <safe_mod_func_int8_t_s_s>
   12833:	0f b6 d8             	movzbl %al,%ebx
   12836:	48 8b 05 a3 c8 00 00 	mov    0xc8a3(%rip),%rax        # 1f0e0 <g_193>
   1283d:	48 85 c0             	test   %rax,%rax
   12840:	0f 95 c0             	setne  %al
   12843:	0f b6 d0             	movzbl %al,%edx
   12846:	8b 85 d4 f3 ff ff    	mov    -0xc2c(%rbp),%eax
   1284c:	89 d6                	mov    %edx,%esi
   1284e:	89 c7                	mov    %eax,%edi
   12850:	e8 b0 6d ff ff       	callq  9605 <safe_sub_func_int32_t_s_s>
   12855:	21 85 2c f4 ff ff    	and    %eax,-0xbd4(%rbp)
   1285b:	8b 85 2c f4 ff ff    	mov    -0xbd4(%rbp),%eax
   12861:	88 85 ee f3 ff ff    	mov    %al,-0xc12(%rbp)
   12867:	0f b6 85 ee f3 ff ff 	movzbl -0xc12(%rbp),%eax
   1286e:	89 de                	mov    %ebx,%esi
   12870:	89 c7                	mov    %eax,%edi
   12872:	e8 37 73 ff ff       	callq  9bae <safe_mod_func_uint8_t_u_u>
   12877:	f7 d0                	not    %eax
   12879:	0f be c0             	movsbl %al,%eax
   1287c:	8b 95 d0 f3 ff ff    	mov    -0xc30(%rbp),%edx
   12882:	89 d6                	mov    %edx,%esi
   12884:	89 c7                	mov    %eax,%edi
   12886:	e8 63 6a ff ff       	callq  92ee <safe_lshift_func_int8_t_s_u>
   1288b:	8b 85 0c f4 ff ff    	mov    -0xbf4(%rbp),%eax
   12891:	8d 50 05             	lea    0x5(%rax),%edx
   12894:	8b 85 0c f4 ff ff    	mov    -0xbf4(%rbp),%eax
   1289a:	8d 70 02             	lea    0x2(%rax),%esi
   1289d:	8b 85 0c f4 ff ff    	mov    -0xbf4(%rbp),%eax
   128a3:	48 63 c8             	movslq %eax,%rcx
   128a6:	48 63 d2             	movslq %edx,%rdx
   128a9:	48 63 f6             	movslq %esi,%rsi
   128ac:	48 89 d0             	mov    %rdx,%rax
   128af:	48 01 c0             	add    %rax,%rax
   128b2:	48 01 d0             	add    %rdx,%rax
   128b5:	48 01 c0             	add    %rax,%rax
   128b8:	48 01 f0             	add    %rsi,%rax
   128bb:	48 c1 e0 02          	shl    $0x2,%rax
   128bf:	48 01 c8             	add    %rcx,%rax
   128c2:	48 8d 14 85 00 00 00 	lea    0x0(,%rax,4),%rdx
   128c9:	00 
   128ca:	48 8d 05 6f 87 00 00 	lea    0x876f(%rip),%rax        # 1b040 <g_8>
   128d1:	c7 04 02 00 00 00 00 	movl   $0x0,(%rdx,%rax,1)
   128d8:	8b 85 0c f4 ff ff    	mov    -0xbf4(%rbp),%eax
   128de:	83 c0 01             	add    $0x1,%eax
   128e1:	89 85 0c f4 ff ff    	mov    %eax,-0xbf4(%rbp)
   128e7:	8b 85 0c f4 ff ff    	mov    -0xbf4(%rbp),%eax
   128ed:	83 f8 03             	cmp    $0x3,%eax
   128f0:	0f 8e 15 fe ff ff    	jle    1270b <func_68+0x113e>
   128f6:	eb 01                	jmp    128f9 <func_68+0x132c>
   128f8:	90                   	nop
   128f9:	48 8b 05 98 c3 00 00 	mov    0xc398(%rip),%rax        # 1ec98 <g_135>
   12900:	8b 00                	mov    (%rax),%eax
   12902:	85 c0                	test   %eax,%eax
   12904:	66 83 85 f0 f3 ff ff 	addw   $0x1,-0xc10(%rbp)
   1290b:	01 
   1290c:	66 83 bd f0 f3 ff ff 	cmpw   $0x3,-0xc10(%rbp)
   12913:	03 
   12914:	0f 86 c3 fd ff ff    	jbe    126dd <func_68+0x1110>
   1291a:	c7 85 04 f4 ff ff 00 	movl   $0x0,-0xbfc(%rbp)
   12921:	00 00 00 
   12924:	e9 53 06 00 00       	jmpq   12f7c <func_68+0x19af>
   12929:	c7 85 18 f4 ff ff 08 	movl   $0x8,-0xbe8(%rbp)
   12930:	00 00 00 
   12933:	c7 85 1c f4 ff ff 43 	movl   $0xe9b56243,-0xbe4(%rbp)
   1293a:	62 b5 e9 
   1293d:	c6 85 ec f3 ff ff e3 	movb   $0xe3,-0xc14(%rbp)
   12944:	c7 85 84 f4 ff ff 01 	movl   $0x1,-0xb7c(%rbp)
   1294b:	00 00 00 
   1294e:	c7 85 88 f4 ff ff c5 	movl   $0x98a097c5,-0xb78(%rbp)
   12955:	97 a0 98 
   12958:	c7 85 8c f4 ff ff 00 	movl   $0x0,-0xb74(%rbp)
   1295f:	00 00 00 
   12962:	c7 85 90 f4 ff ff f6 	movl   $0xfffffff6,-0xb70(%rbp)
   12969:	ff ff ff 
   1296c:	66 c7 85 fc f3 ff ff 	movw   $0x46bb,-0xc04(%rbp)
   12973:	bb 46 
   12975:	48 8d 85 c0 f9 ff ff 	lea    -0x640(%rbp),%rax
   1297c:	48 83 c0 28          	add    $0x28,%rax
   12980:	48 89 85 90 f6 ff ff 	mov    %rax,-0x970(%rbp)
   12987:	c7 85 30 f4 ff ff 00 	movl   $0x0,-0xbd0(%rbp)
   1298e:	00 00 00 
   12991:	eb 1e                	jmp    129b1 <func_68+0x13e4>
   12993:	8b 85 30 f4 ff ff    	mov    -0xbd0(%rbp),%eax
   12999:	48 98                	cltq   
   1299b:	48 8d 95 00 f5 ff ff 	lea    -0xb00(%rbp),%rdx
   129a2:	48 89 94 c5 60 fb ff 	mov    %rdx,-0x4a0(%rbp,%rax,8)
   129a9:	ff 
   129aa:	83 85 30 f4 ff ff 01 	addl   $0x1,-0xbd0(%rbp)
   129b1:	83 bd 30 f4 ff ff 06 	cmpl   $0x6,-0xbd0(%rbp)
   129b8:	7e d9                	jle    12993 <func_68+0x13c6>
   129ba:	c7 85 30 f4 ff ff 00 	movl   $0x0,-0xbd0(%rbp)
   129c1:	00 00 00 
   129c4:	eb 43                	jmp    12a09 <func_68+0x143c>
   129c6:	c7 85 34 f4 ff ff 00 	movl   $0x0,-0xbcc(%rbp)
   129cd:	00 00 00 
   129d0:	eb 27                	jmp    129f9 <func_68+0x142c>
   129d2:	8b 85 34 f4 ff ff    	mov    -0xbcc(%rbp),%eax
   129d8:	48 63 d0             	movslq %eax,%rdx
   129db:	8b 85 30 f4 ff ff    	mov    -0xbd0(%rbp),%eax
   129e1:	48 98                	cltq   
   129e3:	48 01 d0             	add    %rdx,%rax
   129e6:	48 c7 84 c5 c0 f9 ff 	movq   $0x0,-0x640(%rbp,%rax,8)
   129ed:	ff 00 00 00 00 
   129f2:	83 85 34 f4 ff ff 01 	addl   $0x1,-0xbcc(%rbp)
   129f9:	83 bd 34 f4 ff ff 00 	cmpl   $0x0,-0xbcc(%rbp)
   12a00:	7e d0                	jle    129d2 <func_68+0x1405>
   12a02:	83 85 30 f4 ff ff 01 	addl   $0x1,-0xbd0(%rbp)
   12a09:	83 bd 30 f4 ff ff 05 	cmpl   $0x5,-0xbd0(%rbp)
   12a10:	7e b4                	jle    129c6 <func_68+0x13f9>
   12a12:	48 8b 85 20 f5 ff ff 	mov    -0xae0(%rbp),%rax
   12a19:	83 bd d0 f3 ff ff 01 	cmpl   $0x1,-0xc30(%rbp)
   12a20:	76 07                	jbe    12a29 <func_68+0x145c>
   12a22:	b9 8b 17 00 00       	mov    $0x178b,%ecx
   12a27:	eb 05                	jmp    12a2e <func_68+0x1461>
   12a29:	b9 8a 17 00 00       	mov    $0x178a,%ecx
   12a2e:	0f b7 15 af 91 00 00 	movzwl 0x91af(%rip),%edx        # 1bbe4 <g_141+0x4>
   12a35:	0f b7 d2             	movzwl %dx,%edx
   12a38:	48 31 ca             	xor    %rcx,%rdx
   12a3b:	48 89 c6             	mov    %rax,%rsi
   12a3e:	48 89 d7             	mov    %rdx,%rdi
   12a41:	e8 e8 75 ff ff       	callq  a02e <safe_add_func_uint64_t_u_u>
   12a46:	8b 85 b8 f7 ff ff    	mov    -0x848(%rbp),%eax
   12a4c:	48 63 d0             	movslq %eax,%rdx
   12a4f:	48 8b 85 e8 f4 ff ff 	mov    -0xb18(%rbp),%rax
   12a56:	48 8d 0d 57 91 00 00 	lea    0x9157(%rip),%rcx        # 1bbb4 <g_95+0x14>
   12a5d:	48 39 c8             	cmp    %rcx,%rax
   12a60:	0f 95 c0             	setne  %al
   12a63:	0f b6 c0             	movzbl %al,%eax
   12a66:	48 89 d6             	mov    %rdx,%rsi
   12a69:	48 89 c7             	mov    %rax,%rdi
   12a6c:	e8 0f 76 ff ff       	callq  a080 <safe_mod_func_uint64_t_u_u>
   12a71:	0f b6 c0             	movzbl %al,%eax
   12a74:	be 17 00 00 00       	mov    $0x17,%esi
   12a79:	89 c7                	mov    %eax,%edi
   12a7b:	e8 2e 71 ff ff       	callq  9bae <safe_mod_func_uint8_t_u_u>
   12a80:	0f b6 d0             	movzbl %al,%edx
   12a83:	8b 85 d4 f3 ff ff    	mov    -0xc2c(%rbp),%eax
   12a89:	39 c2                	cmp    %eax,%edx
   12a8b:	0f 9d c0             	setge  %al
   12a8e:	0f b6 c0             	movzbl %al,%eax
   12a91:	be 9a 00 00 00       	mov    $0x9a,%esi
   12a96:	89 c7                	mov    %eax,%edi
   12a98:	e8 db 70 ff ff       	callq  9b78 <safe_sub_func_uint8_t_u_u>
   12a9d:	0f b6 d0             	movzbl %al,%edx
   12aa0:	0f b6 05 6a 89 00 00 	movzbl 0x896a(%rip),%eax        # 1b411 <g_73+0x9>
   12aa7:	0f b6 c0             	movzbl %al,%eax
   12aaa:	89 d6                	mov    %edx,%esi
   12aac:	89 c7                	mov    %eax,%edi
   12aae:	e8 a2 69 ff ff       	callq  9455 <safe_div_func_int16_t_s_s>
   12ab3:	89 c2                	mov    %eax,%edx
   12ab5:	48 8b 85 d0 f4 ff ff 	mov    -0xb30(%rbp),%rax
   12abc:	88 10                	mov    %dl,(%rax)
   12abe:	0f b6 00             	movzbl (%rax),%eax
   12ac1:	0f b6 d0             	movzbl %al,%edx
   12ac4:	48 8b 05 b5 bf 00 00 	mov    0xbfb5(%rip),%rax        # 1ea80 <g_32>
   12acb:	0f b6 00             	movzbl (%rax),%eax
   12ace:	0f be c0             	movsbl %al,%eax
   12ad1:	39 c2                	cmp    %eax,%edx
   12ad3:	48 8b 05 ce c1 00 00 	mov    0xc1ce(%rip),%rax        # 1eca8 <g_142>
   12ada:	8b 85 18 f4 ff ff    	mov    -0xbe8(%rbp),%eax
   12ae0:	be c4 e7 27 91       	mov    $0x9127e7c4,%esi
   12ae5:	89 c7                	mov    %eax,%edi
   12ae7:	e8 e4 73 ff ff       	callq  9ed0 <safe_sub_func_uint32_t_u_u>
   12aec:	85 c0                	test   %eax,%eax
   12aee:	74 13                	je     12b03 <func_68+0x1536>
   12af0:	48 8b 85 30 f5 ff ff 	mov    -0xad0(%rbp),%rax
   12af7:	48 c7 00 00 00 00 00 	movq   $0x0,(%rax)
   12afe:	e9 6a 04 00 00       	jmpq   12f6d <func_68+0x19a0>
   12b03:	48 c7 85 98 f6 ff ff 	movq   $0x0,-0x968(%rbp)
   12b0a:	00 00 00 00 
   12b0e:	48 8d 85 18 f4 ff ff 	lea    -0xbe8(%rbp),%rax
   12b15:	48 89 85 a0 f6 ff ff 	mov    %rax,-0x960(%rbp)
   12b1c:	c7 85 20 f4 ff ff 01 	movl   $0x1,-0xbe0(%rbp)
   12b23:	00 00 00 
   12b26:	48 8d 85 60 fc ff ff 	lea    -0x3a0(%rbp),%rax
   12b2d:	48 8d 15 2c 52 00 00 	lea    0x522c(%rip),%rdx        # 17d60 <g_1889+0x1570>
   12b34:	b9 30 00 00 00       	mov    $0x30,%ecx
   12b39:	48 89 c7             	mov    %rax,%rdi
   12b3c:	48 89 d6             	mov    %rdx,%rsi
   12b3f:	f3 48 a5             	rep movsq %ds:(%rsi),%es:(%rdi)
   12b42:	66 c7 85 fe f3 ff ff 	movw   $0xeba3,-0xc02(%rbp)
   12b49:	a3 eb 
   12b4b:	48 8d 05 2e bf 00 00 	lea    0xbf2e(%rip),%rax        # 1ea80 <g_32>
   12b52:	48 89 85 a8 f6 ff ff 	mov    %rax,-0x958(%rbp)
   12b59:	48 8d 05 f8 90 00 00 	lea    0x90f8(%rip),%rax        # 1bc58 <g_252>
   12b60:	48 89 85 b0 f6 ff ff 	mov    %rax,-0x950(%rbp)
   12b67:	66 c7 85 00 f4 ff ff 	movw   $0x1,-0xc00(%rbp)
   12b6e:	01 00 
   12b70:	48 8b 95 00 f5 ff ff 	mov    -0xb00(%rbp),%rdx
   12b77:	48 8b 85 d8 f3 ff ff 	mov    -0xc28(%rbp),%rax
   12b7e:	48 39 c2             	cmp    %rax,%rdx
   12b81:	0f 95 c0             	setne  %al
   12b84:	0f b6 d0             	movzbl %al,%edx
   12b87:	48 8b 85 a0 f6 ff ff 	mov    -0x960(%rbp),%rax
   12b8e:	c7 00 00 00 00 00    	movl   $0x0,(%rax)
   12b94:	48 8b 85 a0 f6 ff ff 	mov    -0x960(%rbp),%rax
   12b9b:	8b 00                	mov    (%rax),%eax
   12b9d:	89 d6                	mov    %edx,%esi
   12b9f:	89 c7                	mov    %eax,%edi
   12ba1:	e8 2a 73 ff ff       	callq  9ed0 <safe_sub_func_uint32_t_u_u>
   12ba6:	85 c0                	test   %eax,%eax
   12ba8:	0f 84 48 02 00 00    	je     12df6 <func_68+0x1829>
   12bae:	48 c7 85 c0 f6 ff ff 	movq   $0x0,-0x940(%rbp)
   12bb5:	00 00 00 00 
   12bb9:	48 8d 05 98 90 00 00 	lea    0x9098(%rip),%rax        # 1bc58 <g_252>
   12bc0:	48 89 85 c8 f6 ff ff 	mov    %rax,-0x938(%rbp)
   12bc7:	48 c7 85 d0 f6 ff ff 	movq   $0x0,-0x930(%rbp)
   12bce:	00 00 00 00 
   12bd2:	c7 85 94 f4 ff ff f9 	movl   $0xfffffff9,-0xb6c(%rbp)
   12bd9:	ff ff ff 
   12bdc:	c7 85 98 f4 ff ff 01 	movl   $0x1,-0xb68(%rbp)
   12be3:	00 00 00 
   12be6:	c7 85 9c f4 ff ff 00 	movl   $0x0,-0xb64(%rbp)
   12bed:	00 00 00 
   12bf0:	c7 85 a0 f4 ff ff 00 	movl   $0x94a56f00,-0xb60(%rbp)
   12bf7:	6f a5 94 
   12bfa:	c7 85 a4 f4 ff ff 07 	movl   $0x7,-0xb5c(%rbp)
   12c01:	00 00 00 
   12c04:	c7 85 a8 f4 ff ff 04 	movl   $0x4,-0xb58(%rbp)
   12c0b:	00 00 00 
   12c0e:	c7 85 ac f4 ff ff 99 	movl   $0xd669fe99,-0xb54(%rbp)
   12c15:	fe 69 d6 
   12c18:	c7 85 38 f4 ff ff 00 	movl   $0x0,-0xbc8(%rbp)
   12c1f:	00 00 00 
   12c22:	eb 1a                	jmp    12c3e <func_68+0x1671>
   12c24:	8b 85 38 f4 ff ff    	mov    -0xbc8(%rbp),%eax
   12c2a:	48 98                	cltq   
   12c2c:	c7 84 85 f0 f7 ff ff 	movl   $0x1,-0x810(%rbp,%rax,4)
   12c33:	01 00 00 00 
   12c37:	83 85 38 f4 ff ff 01 	addl   $0x1,-0xbc8(%rbp)
   12c3e:	83 bd 38 f4 ff ff 00 	cmpl   $0x0,-0xbc8(%rbp)
   12c45:	7e dd                	jle    12c24 <func_68+0x1657>
   12c47:	48 8b 85 e8 f4 ff ff 	mov    -0xb18(%rbp),%rax
   12c4e:	8b 95 1c f4 ff ff    	mov    -0xbe4(%rbp),%edx
   12c54:	89 10                	mov    %edx,(%rax)
   12c56:	8b 00                	mov    (%rax),%eax
   12c58:	89 85 20 f4 ff ff    	mov    %eax,-0xbe0(%rbp)
   12c5e:	8b 85 d0 f3 ff ff    	mov    -0xc30(%rbp),%eax
   12c64:	0f b7 d8             	movzwl %ax,%ebx
   12c67:	8b 85 1c f4 ff ff    	mov    -0xbe4(%rbp),%eax
   12c6d:	44 0f b6 e0          	movzbl %al,%r12d
   12c71:	8b 85 1c f4 ff ff    	mov    -0xbe4(%rbp),%eax
   12c77:	41 89 c5             	mov    %eax,%r13d
   12c7a:	48 8b 05 67 c4 00 00 	mov    0xc467(%rip),%rax        # 1f0e8 <g_246>
   12c81:	48 85 c0             	test   %rax,%rax
   12c84:	0f 95 c0             	setne  %al
   12c87:	0f b6 d0             	movzbl %al,%edx
   12c8a:	8b 05 c0 8f 00 00    	mov    0x8fc0(%rip),%eax        # 1bc50 <g_248>
   12c90:	09 d0                	or     %edx,%eax
   12c92:	89 05 b8 8f 00 00    	mov    %eax,0x8fb8(%rip)        # 1bc50 <g_248>
   12c98:	8b 05 b2 8f 00 00    	mov    0x8fb2(%rip),%eax        # 1bc50 <g_248>
   12c9e:	83 f8 04             	cmp    $0x4,%eax
   12ca1:	0f 95 c0             	setne  %al
   12ca4:	0f b6 c0             	movzbl %al,%eax
   12ca7:	be 01 00 00 00       	mov    $0x1,%esi
   12cac:	89 c7                	mov    %eax,%edi
   12cae:	e8 52 6f ff ff       	callq  9c05 <safe_lshift_func_uint8_t_u_s>
   12cb3:	83 bd d0 f3 ff ff 00 	cmpl   $0x0,-0xc30(%rbp)
   12cba:	74 63                	je     12d1f <func_68+0x1752>
   12cbc:	48 8b 85 30 f6 ff ff 	mov    -0x9d0(%rbp),%rax
   12cc3:	8b 00                	mov    (%rax),%eax
   12cc5:	85 c0                	test   %eax,%eax
   12cc7:	75 14                	jne    12cdd <func_68+0x1710>
   12cc9:	48 8d 85 d0 f7 ff ff 	lea    -0x830(%rbp),%rax
   12cd0:	48 83 c0 0c          	add    $0xc,%rax
   12cd4:	48 39 85 78 f6 ff ff 	cmp    %rax,-0x988(%rbp)
   12cdb:	74 07                	je     12ce4 <func_68+0x1717>
   12cdd:	b8 01 00 00 00       	mov    $0x1,%eax
   12ce2:	eb 05                	jmp    12ce9 <func_68+0x171c>
   12ce4:	b8 00 00 00 00       	mov    $0x0,%eax
   12ce9:	83 f8 05             	cmp    $0x5,%eax
   12cec:	0f 97 c0             	seta   %al
   12cef:	0f b6 d0             	movzbl %al,%edx
   12cf2:	48 8b 85 c8 f6 ff ff 	mov    -0x938(%rbp),%rax
   12cf9:	48 89 10             	mov    %rdx,(%rax)
   12cfc:	ba 01 00 00 00       	mov    $0x1,%edx
   12d01:	8b 85 20 f4 ff ff    	mov    -0xbe0(%rbp),%eax
   12d07:	09 d0                	or     %edx,%eax
   12d09:	89 85 20 f4 ff ff    	mov    %eax,-0xbe0(%rbp)
   12d0f:	8b 85 20 f4 ff ff    	mov    -0xbe0(%rbp),%eax
   12d15:	89 c2                	mov    %eax,%edx
   12d17:	8b 85 18 f4 ff ff    	mov    -0xbe8(%rbp),%eax
   12d1d:	39 c2                	cmp    %eax,%edx
   12d1f:	48 8d 05 5a bd 00 00 	lea    0xbd5a(%rip),%rax        # 1ea80 <g_32>
   12d26:	48 39 85 80 f6 ff ff 	cmp    %rax,-0x980(%rbp)
   12d2d:	0f 95 c0             	setne  %al
   12d30:	0f b6 c0             	movzbl %al,%eax
   12d33:	44 89 ee             	mov    %r13d,%esi
   12d36:	89 c7                	mov    %eax,%edi
   12d38:	e8 7b 71 ff ff       	callq  9eb8 <safe_add_func_uint32_t_u_u>
   12d3d:	8b 95 94 f4 ff ff    	mov    -0xb6c(%rbp),%edx
   12d43:	21 d0                	and    %edx,%eax
   12d45:	89 85 94 f4 ff ff    	mov    %eax,-0xb6c(%rbp)
   12d4b:	83 bd 94 f4 ff ff 00 	cmpl   $0x0,-0xb6c(%rbp)
   12d52:	75 09                	jne    12d5d <func_68+0x1790>
   12d54:	0f b6 05 8b 8e 00 00 	movzbl 0x8e8b(%rip),%eax        # 1bbe6 <g_141+0x6>
   12d5b:	84 c0                	test   %al,%al
   12d5d:	48 8d 85 d0 f4 ff ff 	lea    -0xb30(%rbp),%rax
   12d64:	48 89 85 70 fb ff ff 	mov    %rax,-0x490(%rbp)
   12d6b:	48 8b 85 70 fb ff ff 	mov    -0x490(%rbp),%rax
   12d72:	48 39 85 28 f6 ff ff 	cmp    %rax,-0x9d8(%rbp)
   12d79:	0f 95 c0             	setne  %al
   12d7c:	89 c2                	mov    %eax,%edx
   12d7e:	8b 85 18 f4 ff ff    	mov    -0xbe8(%rbp),%eax
   12d84:	09 d0                	or     %edx,%eax
   12d86:	0f b6 c0             	movzbl %al,%eax
   12d89:	44 89 e6             	mov    %r12d,%esi
   12d8c:	89 c7                	mov    %eax,%edi
   12d8e:	e8 00 6e ff ff       	callq  9b93 <safe_mul_func_uint8_t_u_u>
   12d93:	0f b6 c0             	movzbl %al,%eax
   12d96:	89 de                	mov    %ebx,%esi
   12d98:	89 c7                	mov    %eax,%edi
   12d9a:	e8 bd 6f ff ff       	callq  9d5c <safe_mod_func_uint16_t_u_u>
   12d9f:	0f b7 c0             	movzwl %ax,%eax
   12da2:	be e9 cb 37 f4       	mov    $0xf437cbe9,%esi
   12da7:	89 c7                	mov    %eax,%edi
   12da9:	e8 57 68 ff ff       	callq  9605 <safe_sub_func_int32_t_s_s>
   12dae:	8b 95 d4 f3 ff ff    	mov    -0xc2c(%rbp),%edx
   12db4:	21 d0                	and    %edx,%eax
   12db6:	89 85 d4 f3 ff ff    	mov    %eax,-0xc2c(%rbp)
   12dbc:	48 8b 85 d8 f3 ff ff 	mov    -0xc28(%rbp),%rax
   12dc3:	0f b6 00             	movzbl (%rax),%eax
   12dc6:	0f b6 c0             	movzbl %al,%eax
   12dc9:	89 c6                	mov    %eax,%esi
   12dcb:	bf 8e 00 00 00       	mov    $0x8e,%edi
   12dd0:	e8 a3 6d ff ff       	callq  9b78 <safe_sub_func_uint8_t_u_u>
   12dd5:	48 8b 95 50 f6 ff ff 	mov    -0x9b0(%rbp),%rdx
   12ddc:	8b 12                	mov    (%rdx),%edx
   12dde:	0f b6 c0             	movzbl %al,%eax
   12de1:	21 c2                	and    %eax,%edx
   12de3:	48 8b 85 50 f6 ff ff 	mov    -0x9b0(%rbp),%rax
   12dea:	89 10                	mov    %edx,(%rax)
   12dec:	66 83 ad fc f3 ff ff 	subw   $0x1,-0xc04(%rbp)
   12df3:	01 
   12df4:	eb 76                	jmp    12e6c <func_68+0x189f>
   12df6:	48 c7 85 10 f5 ff ff 	movq   $0x0,-0xaf0(%rbp)
   12dfd:	00 00 00 00 
   12e01:	48 8d 85 10 f5 ff ff 	lea    -0xaf0(%rbp),%rax
   12e08:	48 89 85 b8 f6 ff ff 	mov    %rax,-0x948(%rbp)
   12e0f:	48 8b 05 d2 c2 00 00 	mov    0xc2d2(%rip),%rax        # 1f0e8 <g_246>
   12e16:	8b 95 20 f4 ff ff    	mov    -0xbe0(%rbp),%edx
   12e1c:	89 10                	mov    %edx,(%rax)
   12e1e:	48 83 bd 20 f5 ff ff 	cmpq   $0x0,-0xae0(%rbp)
   12e25:	00 
   12e26:	74 05                	je     12e2d <func_68+0x1860>
   12e28:	e9 e7 ee ff ff       	jmpq   11d14 <func_68+0x747>
   12e2d:	48 8b 85 b8 f6 ff ff 	mov    -0x948(%rbp),%rax
   12e34:	48 c7 00 00 00 00 00 	movq   $0x0,(%rax)
   12e3b:	48 8b 05 ae c2 00 00 	mov    0xc2ae(%rip),%rax        # 1f0f0 <g_281>
   12e42:	48 8b 0d 17 8e 00 00 	mov    0x8e17(%rip),%rcx        # 1bc60 <g_280>
   12e49:	48 8b 1d 18 8e 00 00 	mov    0x8e18(%rip),%rbx        # 1bc68 <g_280+0x8>
   12e50:	48 89 08             	mov    %rcx,(%rax)
   12e53:	48 89 58 08          	mov    %rbx,0x8(%rax)
   12e57:	0f b7 15 12 8e 00 00 	movzwl 0x8e12(%rip),%edx        # 1bc70 <g_280+0x10>
   12e5e:	66 89 50 10          	mov    %dx,0x10(%rax)
   12e62:	0f b6 15 09 8e 00 00 	movzbl 0x8e09(%rip),%edx        # 1bc72 <g_280+0x12>
   12e69:	88 50 12             	mov    %dl,0x12(%rax)
   12e6c:	48 8b 05 65 8d 00 00 	mov    0x8d65(%rip),%rax        # 1bbd8 <g_100>
   12e73:	89 c3                	mov    %eax,%ebx
   12e75:	48 8b 85 38 f5 ff ff 	mov    -0xac8(%rbp),%rax
   12e7c:	8b 00                	mov    (%rax),%eax
   12e7e:	98                   	cwtl   
   12e7f:	be 32 29 00 00       	mov    $0x2932,%esi
   12e84:	89 c7                	mov    %eax,%edi
   12e86:	e8 48 65 ff ff       	callq  93d3 <safe_sub_func_int16_t_s_s>
   12e8b:	0f b6 c0             	movzbl %al,%eax
   12e8e:	be 01 00 00 00       	mov    $0x1,%esi
   12e93:	89 c7                	mov    %eax,%edi
   12e95:	e8 c0 6c ff ff       	callq  9b5a <safe_add_func_uint8_t_u_u>
   12e9a:	b9 01 00 00 00       	mov    $0x1,%ecx
   12e9f:	48 8b 05 f2 bd 00 00 	mov    0xbdf2(%rip),%rax        # 1ec98 <g_135>
   12ea6:	8b 10                	mov    (%rax),%edx
   12ea8:	48 8b 05 e9 bd 00 00 	mov    0xbde9(%rip),%rax        # 1ec98 <g_135>
   12eaf:	09 ca                	or     %ecx,%edx
   12eb1:	89 10                	mov    %edx,(%rax)
   12eb3:	48 8b 05 c6 bb 00 00 	mov    0xbbc6(%rip),%rax        # 1ea80 <g_32>
   12eba:	0f b6 00             	movzbl (%rax),%eax
   12ebd:	48 0f be c0          	movsbq %al,%rax
   12ec1:	34 c1                	xor    $0xc1,%al
   12ec3:	48 83 f8 f9          	cmp    $0xfffffffffffffff9,%rax
   12ec7:	0f 9d c0             	setge  %al
   12eca:	0f b6 d0             	movzbl %al,%edx
   12ecd:	0f b7 85 e0 f7 ff ff 	movzwl -0x820(%rbp),%eax
   12ed4:	0f b7 c0             	movzwl %ax,%eax
   12ed7:	21 d0                	and    %edx,%eax
   12ed9:	89 de                	mov    %ebx,%esi
   12edb:	89 c7                	mov    %eax,%edi
   12edd:	e8 1b 70 ff ff       	callq  9efd <safe_mod_func_uint32_t_u_u>
   12ee2:	0f b7 c0             	movzwl %ax,%eax
   12ee5:	be fa e4 00 00       	mov    $0xe4fa,%esi
   12eea:	89 c7                	mov    %eax,%edi
   12eec:	e8 9d 6e ff ff       	callq  9d8e <safe_div_func_uint16_t_u_u>
   12ef1:	0f b7 d0             	movzwl %ax,%edx
   12ef4:	48 8b 85 b0 f6 ff ff 	mov    -0x950(%rbp),%rax
   12efb:	48 89 10             	mov    %rdx,(%rax)
   12efe:	48 8b 85 b0 f6 ff ff 	mov    -0x950(%rbp),%rax
   12f05:	48 8b 00             	mov    (%rax),%rax
   12f08:	48 ba 5c 8c 2d f4 0c 	movabs $0xb26a0a0cf42d8c5c,%rdx
   12f0f:	0a 6a b2 
   12f12:	48 39 d0             	cmp    %rdx,%rax
   12f15:	0f 95 c0             	setne  %al
   12f18:	0f b6 d8             	movzbl %al,%ebx
   12f1b:	48 8b 05 56 8d 00 00 	mov    0x8d56(%rip),%rax        # 1bc78 <g_284>
   12f22:	be 01 00 00 00       	mov    $0x1,%esi
   12f27:	bf 74 00 00 00       	mov    $0x74,%edi
   12f2c:	e8 29 6c ff ff       	callq  9b5a <safe_add_func_uint8_t_u_u>
   12f31:	48 8b 85 68 f8 ff ff 	mov    -0x798(%rbp),%rax
   12f38:	48 39 85 90 f6 ff ff 	cmp    %rax,-0x970(%rbp)
   12f3f:	0f 95 c0             	setne  %al
   12f42:	0f b6 c0             	movzbl %al,%eax
   12f45:	89 de                	mov    %ebx,%esi
   12f47:	89 c7                	mov    %eax,%edi
   12f49:	e8 6a 6f ff ff       	callq  9eb8 <safe_add_func_uint32_t_u_u>
   12f4e:	48 8b 85 30 f5 ff ff 	mov    -0xad0(%rbp),%rax
   12f55:	48 c7 00 00 00 00 00 	movq   $0x0,(%rax)
   12f5c:	0f b7 85 00 f4 ff ff 	movzwl -0xc00(%rbp),%eax
   12f63:	83 e8 01             	sub    $0x1,%eax
   12f66:	66 89 85 00 f4 ff ff 	mov    %ax,-0xc00(%rbp)
   12f6d:	8b 85 04 f4 ff ff    	mov    -0xbfc(%rbp),%eax
   12f73:	83 c0 01             	add    $0x1,%eax
   12f76:	89 85 04 f4 ff ff    	mov    %eax,-0xbfc(%rbp)
   12f7c:	8b 85 04 f4 ff ff    	mov    -0xbfc(%rbp),%eax
   12f82:	83 f8 09             	cmp    $0x9,%eax
   12f85:	0f 8e 9e f9 ff ff    	jle    12929 <func_68+0x135c>
   12f8b:	8b 85 5c f4 ff ff    	mov    -0xba4(%rbp),%eax
   12f91:	0f b7 c0             	movzwl %ax,%eax
   12f94:	be 07 00 00 00       	mov    $0x7,%esi
   12f99:	89 c7                	mov    %eax,%edi
   12f9b:	e8 7f 6d ff ff       	callq  9d1f <safe_sub_func_uint16_t_u_u>
   12fa0:	0f b7 c0             	movzwl %ax,%eax
   12fa3:	89 85 5c f4 ff ff    	mov    %eax,-0xba4(%rbp)
   12fa9:	83 bd 5c f4 ff ff f1 	cmpl   $0xfffffff1,-0xba4(%rbp)
   12fb0:	0f 8c bc f5 ff ff    	jl     12572 <func_68+0xfa5>
   12fb6:	8b 85 d4 f3 ff ff    	mov    -0xc2c(%rbp),%eax
   12fbc:	0f b7 d8             	movzwl %ax,%ebx
   12fbf:	48 8b 05 22 c1 00 00 	mov    0xc122(%rip),%rax        # 1f0e8 <g_246>
   12fc6:	8b 00                	mov    (%rax),%eax
   12fc8:	0f b6 05 3d 84 00 00 	movzbl 0x843d(%rip),%eax        # 1b40c <g_73+0x4>
   12fcf:	0f b6 c0             	movzbl %al,%eax
   12fd2:	8b 8d 14 f4 ff ff    	mov    -0xbec(%rbp),%ecx
   12fd8:	8b 15 de 8b 00 00    	mov    0x8bde(%rip),%edx        # 1bbbc <g_95+0x1c>
   12fde:	21 ca                	and    %ecx,%edx
   12fe0:	89 95 14 f4 ff ff    	mov    %edx,-0xbec(%rbp)
   12fe6:	8b 95 5c f4 ff ff    	mov    -0xba4(%rbp),%edx
   12fec:	89 95 c4 f7 ff ff    	mov    %edx,-0x83c(%rbp)
   12ff2:	89 c6                	mov    %eax,%esi
   12ff4:	bf 01 00 00 00       	mov    $0x1,%edi
   12ff9:	e8 c0 6d ff ff       	callq  9dbe <safe_lshift_func_uint16_t_u_s>
   12ffe:	0f b7 d0             	movzwl %ax,%edx
   13001:	0f b7 05 78 8c 00 00 	movzwl 0x8c78(%rip),%eax        # 1bc80 <g_313>
   13008:	98                   	cwtl   
   13009:	39 c2                	cmp    %eax,%edx
   1300b:	0f 95 c0             	setne  %al
   1300e:	0f b6 c0             	movzbl %al,%eax
   13011:	89 c7                	mov    %eax,%edi
   13013:	e8 85 63 ff ff       	callq  939d <safe_unary_minus_func_int16_t_s>
   13018:	48 0f bf c0          	movswq %ax,%rax
   1301c:	48 89 c6             	mov    %rax,%rsi
   1301f:	bf 00 00 00 00       	mov    $0x0,%edi
   13024:	e8 57 70 ff ff       	callq  a080 <safe_mod_func_uint64_t_u_u>
   13029:	48 8b 05 48 8c 00 00 	mov    0x8c48(%rip),%rax        # 1bc78 <g_284>
   13030:	0f b7 c0             	movzwl %ax,%eax
   13033:	89 de                	mov    %ebx,%esi
   13035:	89 c7                	mov    %eax,%edi
   13037:	e8 01 6d ff ff       	callq  9d3d <safe_mul_func_uint16_t_u_u>
   1303c:	0f b7 d0             	movzwl %ax,%edx
   1303f:	0f b6 85 9b f7 ff ff 	movzbl -0x865(%rbp),%eax
   13046:	0f b6 c0             	movzbl %al,%eax
   13049:	09 d0                	or     %edx,%eax
   1304b:	89 85 5c f4 ff ff    	mov    %eax,-0xba4(%rbp)
   13051:	e9 d0 0a 00 00       	jmpq   13b26 <func_68+0x2559>
   13056:	48 8d 85 e8 f4 ff ff 	lea    -0xb18(%rbp),%rax
   1305d:	48 89 85 68 f5 ff ff 	mov    %rax,-0xa98(%rbp)
   13064:	48 c7 85 18 f5 ff ff 	movq   $0x0,-0xae8(%rbp)
   1306b:	00 00 00 00 
   1306f:	c7 85 68 f4 ff ff 00 	movl   $0x0,-0xb98(%rbp)
   13076:	00 00 00 
   13079:	c6 85 eb f3 ff ff 07 	movb   $0x7,-0xc15(%rbp)
   13080:	48 8d 85 e0 f4 ff ff 	lea    -0xb20(%rbp),%rax
   13087:	48 89 85 70 f5 ff ff 	mov    %rax,-0xa90(%rbp)
   1308e:	66 c7 85 f6 f3 ff ff 	movw   $0xffff,-0xc0a(%rbp)
   13095:	ff ff 
   13097:	c7 85 6c f4 ff ff 12 	movl   $0x628db012,-0xb94(%rbp)
   1309e:	b0 8d 62 
   130a1:	c7 85 00 f5 ff ff 9a 	movl   $0xfdb4479a,-0xb00(%rbp)
   130a8:	47 b4 fd 
   130ab:	48 b8 cc 73 95 6a 10 	movabs $0x9e77e9106a9573cc,%rax
   130b2:	e9 77 9e 
   130b5:	48 89 85 78 f5 ff ff 	mov    %rax,-0xa88(%rbp)
   130bc:	c7 85 3c f4 ff ff 00 	movl   $0x0,-0xbc4(%rbp)
   130c3:	00 00 00 
   130c6:	eb 1e                	jmp    130e6 <func_68+0x1b19>
   130c8:	8b 85 3c f4 ff ff    	mov    -0xbc4(%rbp),%eax
   130ce:	48 98                	cltq   
   130d0:	48 8d 15 81 8b 00 00 	lea    0x8b81(%rip),%rdx        # 1bc58 <g_252>
   130d7:	48 89 94 c5 c0 f9 ff 	mov    %rdx,-0x640(%rbp,%rax,8)
   130de:	ff 
   130df:	83 85 3c f4 ff ff 01 	addl   $0x1,-0xbc4(%rbp)
   130e6:	83 bd 3c f4 ff ff 06 	cmpl   $0x6,-0xbc4(%rbp)
   130ed:	7e d9                	jle    130c8 <func_68+0x1afb>
   130ef:	48 8b 85 68 f5 ff ff 	mov    -0xa98(%rbp),%rax
   130f6:	48 8d 95 08 f4 ff ff 	lea    -0xbf8(%rbp),%rdx
   130fd:	48 89 10             	mov    %rdx,(%rax)
   13100:	c6 05 5f 8b 00 00 00 	movb   $0x0,0x8b5f(%rip)        # 1bc66 <g_280+0x6>
   13107:	e9 0b 0a 00 00       	jmpq   13b17 <func_68+0x254a>
   1310c:	48 b8 8d 9a 80 7e 00 	movabs $0xa7bd52007e809a8d,%rax
   13113:	52 bd a7 
   13116:	48 89 85 80 f5 ff ff 	mov    %rax,-0xa80(%rbp)
   1311d:	c7 85 08 f5 ff ff 45 	movl   $0x4d59ca45,-0xaf8(%rbp)
   13124:	ca 59 4d 
   13127:	66 c7 85 60 f8 ff ff 	movw   $0xfffe,-0x7a0(%rbp)
   1312e:	fe ff 
   13130:	66 c7 85 62 f8 ff ff 	movw   $0x1,-0x79e(%rbp)
   13137:	01 00 
   13139:	66 c7 85 64 f8 ff ff 	movw   $0x1,-0x79c(%rbp)
   13140:	01 00 
   13142:	66 c7 85 66 f8 ff ff 	movw   $0xfffe,-0x79a(%rbp)
   13149:	fe ff 
   1314b:	66 c7 85 68 f8 ff ff 	movw   $0x1,-0x798(%rbp)
   13152:	01 00 
   13154:	66 c7 85 6a f8 ff ff 	movw   $0x1,-0x796(%rbp)
   1315b:	01 00 
   1315d:	66 c7 85 6c f8 ff ff 	movw   $0xfffe,-0x794(%rbp)
   13164:	fe ff 
   13166:	66 c7 85 6e f8 ff ff 	movw   $0x1,-0x792(%rbp)
   1316d:	01 00 
   1316f:	66 c7 85 70 f8 ff ff 	movw   $0x1,-0x790(%rbp)
   13176:	01 00 
   13178:	66 c7 85 72 f8 ff ff 	movw   $0xfffe,-0x78e(%rbp)
   1317f:	fe ff 
   13181:	66 c7 85 74 f8 ff ff 	movw   $0x1,-0x78c(%rbp)
   13188:	01 00 
   1318a:	66 c7 85 76 f8 ff ff 	movw   $0x1,-0x78a(%rbp)
   13191:	01 00 
   13193:	c7 85 10 f5 ff ff f9 	movl   $0x6b2812f9,-0xaf0(%rbp)
   1319a:	12 28 6b 
   1319d:	48 c7 85 88 f5 ff ff 	movq   $0x0,-0xa78(%rbp)
   131a4:	00 00 00 00 
   131a8:	48 8d 05 f9 8a 00 00 	lea    0x8af9(%rip),%rax        # 1bca8 <g_386>
   131af:	48 89 85 90 f5 ff ff 	mov    %rax,-0xa70(%rbp)
   131b6:	c7 85 70 f4 ff ff 08 	movl   $0x569fb208,-0xb90(%rbp)
   131bd:	b2 9f 56 
   131c0:	c7 85 74 f4 ff ff 00 	movl   $0x0,-0xb8c(%rbp)
   131c7:	00 00 00 
   131ca:	c7 85 78 f4 ff ff 3a 	movl   $0xf48c13a,-0xb88(%rbp)
   131d1:	c1 48 0f 
   131d4:	48 c7 85 98 f5 ff ff 	movq   $0x9,-0xa68(%rbp)
   131db:	09 00 00 00 
   131df:	48 8d 85 c0 f9 ff ff 	lea    -0x640(%rbp),%rax
   131e6:	48 83 c0 18          	add    $0x18,%rax
   131ea:	48 89 85 a0 f5 ff ff 	mov    %rax,-0xa60(%rbp)
   131f1:	66 c7 85 f8 f3 ff ff 	movw   $0xd460,-0xc08(%rbp)
   131f8:	60 d4 
   131fa:	c6 85 e9 f3 ff ff 00 	movb   $0x0,-0xc17(%rbp)
   13201:	e9 2c 01 00 00       	jmpq   13332 <func_68+0x1d65>
   13206:	48 8d 05 1f d2 00 00 	lea    0xd21f(%rip),%rax        # 2042c <g_327>
   1320d:	48 89 85 f0 f8 ff ff 	mov    %rax,-0x710(%rbp)
   13214:	48 8d 05 11 d2 00 00 	lea    0xd211(%rip),%rax        # 2042c <g_327>
   1321b:	48 89 85 f8 f8 ff ff 	mov    %rax,-0x708(%rbp)
   13222:	48 8d 05 03 d2 00 00 	lea    0xd203(%rip),%rax        # 2042c <g_327>
   13229:	48 89 85 00 f9 ff ff 	mov    %rax,-0x700(%rbp)
   13230:	48 8d 05 f5 d1 00 00 	lea    0xd1f5(%rip),%rax        # 2042c <g_327>
   13237:	48 89 85 08 f9 ff ff 	mov    %rax,-0x6f8(%rbp)
   1323e:	48 8d 05 e7 d1 00 00 	lea    0xd1e7(%rip),%rax        # 2042c <g_327>
   13245:	48 89 85 10 f9 ff ff 	mov    %rax,-0x6f0(%rbp)
   1324c:	48 8d 05 d9 d1 00 00 	lea    0xd1d9(%rip),%rax        # 2042c <g_327>
   13253:	48 89 85 18 f9 ff ff 	mov    %rax,-0x6e8(%rbp)
   1325a:	48 8d 85 c0 f9 ff ff 	lea    -0x640(%rbp),%rax
   13261:	48 83 c0 08          	add    $0x8,%rax
   13265:	48 89 85 00 f6 ff ff 	mov    %rax,-0xa00(%rbp)
   1326c:	48 c7 85 08 f6 ff ff 	movq   $0x0,-0x9f8(%rbp)
   13273:	00 00 00 00 
   13277:	48 8d 05 04 8a 00 00 	lea    0x8a04(%rip),%rax        # 1bc82 <g_337>
   1327e:	48 89 85 10 f6 ff ff 	mov    %rax,-0x9f0(%rbp)
   13285:	c7 85 20 f8 ff ff 00 	movl   $0x0,-0x7e0(%rbp)
   1328c:	00 00 00 
   1328f:	c7 85 24 f8 ff ff 00 	movl   $0x0,-0x7dc(%rbp)
   13296:	00 00 00 
   13299:	c7 85 28 f8 ff ff 00 	movl   $0x0,-0x7d8(%rbp)
   132a0:	00 00 00 
   132a3:	c7 85 2c f8 ff ff 00 	movl   $0x0,-0x7d4(%rbp)
   132aa:	00 00 00 
   132ad:	c7 85 30 f8 ff ff 00 	movl   $0x0,-0x7d0(%rbp)
   132b4:	00 00 00 
   132b7:	48 8d 05 ea 89 00 00 	lea    0x89ea(%rip),%rax        # 1bca8 <g_386>
   132be:	48 89 85 18 f6 ff ff 	mov    %rax,-0x9e8(%rbp)
   132c5:	48 8d 85 60 fc ff ff 	lea    -0x3a0(%rbp),%rax
   132cc:	48 8d 15 0d 4c 00 00 	lea    0x4c0d(%rip),%rdx        # 17ee0 <g_1889+0x16f0>
   132d3:	b9 6c 00 00 00       	mov    $0x6c,%ecx
   132d8:	48 89 c7             	mov    %rax,%rdi
   132db:	48 89 d6             	mov    %rdx,%rsi
   132de:	f3 48 a5             	rep movsq %ds:(%rsi),%es:(%rdi)
   132e1:	c7 85 40 f4 ff ff 00 	movl   $0x0,-0xbc0(%rbp)
   132e8:	00 00 00 
   132eb:	eb 1e                	jmp    1330b <func_68+0x1d3e>
   132ed:	8b 85 40 f4 ff ff    	mov    -0xbc0(%rbp),%eax
   132f3:	48 98                	cltq   
   132f5:	48 8d 15 84 89 00 00 	lea    0x8984(%rip),%rdx        # 1bc80 <g_313>
   132fc:	48 89 94 c5 60 fb ff 	mov    %rdx,-0x4a0(%rbp,%rax,8)
   13303:	ff 
   13304:	83 85 40 f4 ff ff 01 	addl   $0x1,-0xbc0(%rbp)
   1330b:	83 bd 40 f4 ff ff 07 	cmpl   $0x7,-0xbc0(%rbp)
   13312:	7e d9                	jle    132ed <func_68+0x1d20>
   13314:	48 8d 05 5d b9 00 00 	lea    0xb95d(%rip),%rax        # 1ec78 <g_133+0x1d8>
   1331b:	48 c7 00 00 00 00 00 	movq   $0x0,(%rax)
   13322:	0f b6 85 e9 f3 ff ff 	movzbl -0xc17(%rbp),%eax
   13329:	83 c0 01             	add    $0x1,%eax
   1332c:	88 85 e9 f3 ff ff    	mov    %al,-0xc17(%rbp)
   13332:	0f b6 85 e9 f3 ff ff 	movzbl -0xc17(%rbp),%eax
   13339:	84 c0                	test   %al,%al
   1333b:	0f 84 c5 fe ff ff    	je     13206 <func_68+0x1c39>
   13341:	48 c7 05 1f 89 00 00 	movq   $0x0,0x891f(%rip)        # 1bc6b <g_280+0xb>
   13348:	00 00 00 00 
   1334c:	e9 b3 00 00 00       	jmpq   13404 <func_68+0x1e37>
   13351:	48 8d 85 08 f5 ff ff 	lea    -0xaf8(%rbp),%rax
   13358:	48 89 85 d0 f5 ff ff 	mov    %rax,-0xa30(%rbp)
   1335f:	48 8d 85 08 f5 ff ff 	lea    -0xaf8(%rbp),%rax
   13366:	48 89 85 d8 f5 ff ff 	mov    %rax,-0xa28(%rbp)
   1336d:	48 8d 05 48 88 00 00 	lea    0x8848(%rip),%rax        # 1bbbc <g_95+0x1c>
   13374:	48 89 85 e0 f5 ff ff 	mov    %rax,-0xa20(%rbp)
   1337b:	48 c7 85 e8 f5 ff ff 	movq   $0x0,-0xa18(%rbp)
   13382:	00 00 00 00 
   13386:	48 8d 85 10 f5 ff ff 	lea    -0xaf0(%rbp),%rax
   1338d:	48 89 85 f0 f5 ff ff 	mov    %rax,-0xa10(%rbp)
   13394:	48 c7 85 f8 f5 ff ff 	movq   $0x0,-0xa08(%rbp)
   1339b:	00 00 00 00 
   1339f:	c7 85 80 f4 ff ff f6 	movl   $0xfffffff6,-0xb80(%rbp)
   133a6:	ff ff ff 
   133a9:	c7 85 44 f4 ff ff 00 	movl   $0x0,-0xbbc(%rbp)
   133b0:	00 00 00 
   133b3:	eb 1b                	jmp    133d0 <func_68+0x1e03>
   133b5:	8b 85 44 f4 ff ff    	mov    -0xbbc(%rbp),%eax
   133bb:	48 98                	cltq   
   133bd:	48 c7 84 c5 60 fc ff 	movq   $0x0,-0x3a0(%rbp,%rax,8)
   133c4:	ff 00 00 00 00 
   133c9:	83 85 44 f4 ff ff 01 	addl   $0x1,-0xbbc(%rbp)
   133d0:	83 bd 44 f4 ff ff 05 	cmpl   $0x5,-0xbbc(%rbp)
   133d7:	7e dc                	jle    133b5 <func_68+0x1de8>
   133d9:	83 ad 80 f4 ff ff 01 	subl   $0x1,-0xb80(%rbp)
   133e0:	48 8b 85 98 f5 ff ff 	mov    -0xa68(%rbp),%rax
   133e7:	89 c2                	mov    %eax,%edx
   133e9:	48 8b 85 f0 f5 ff ff 	mov    -0xa10(%rbp),%rax
   133f0:	89 10                	mov    %edx,(%rax)
   133f2:	48 8b 05 72 88 00 00 	mov    0x8872(%rip),%rax        # 1bc6b <g_280+0xb>
   133f9:	48 83 c0 01          	add    $0x1,%rax
   133fd:	48 89 05 67 88 00 00 	mov    %rax,0x8867(%rip)        # 1bc6b <g_280+0xb>
   13404:	48 8b 05 60 88 00 00 	mov    0x8860(%rip),%rax        # 1bc6b <g_280+0xb>
   1340b:	48 85 c0             	test   %rax,%rax
   1340e:	0f 8e 3d ff ff ff    	jle    13351 <func_68+0x1d84>
   13414:	c7 85 10 f4 ff ff 00 	movl   $0x0,-0xbf0(%rbp)
   1341b:	00 00 00 
   1341e:	e9 d3 06 00 00       	jmpq   13af6 <func_68+0x2529>
   13423:	66 c7 85 f2 f3 ff ff 	movw   $0xfff9,-0xc0e(%rbp)
   1342a:	f9 ff 
   1342c:	c7 85 48 f4 ff ff 00 	movl   $0x0,-0xbb8(%rbp)
   13433:	00 00 00 
   13436:	eb 14                	jmp    1344c <func_68+0x1e7f>
   13438:	8b 85 48 f4 ff ff    	mov    -0xbb8(%rbp),%eax
   1343e:	48 98                	cltq   
   13440:	c6 44 05 c3 01       	movb   $0x1,-0x3d(%rbp,%rax,1)
   13445:	83 85 48 f4 ff ff 01 	addl   $0x1,-0xbb8(%rbp)
   1344c:	83 bd 48 f4 ff ff 04 	cmpl   $0x4,-0xbb8(%rbp)
   13453:	7e e3                	jle    13438 <func_68+0x1e6b>
   13455:	0f b6 05 26 88 00 00 	movzbl 0x8826(%rip),%eax        # 1bc82 <g_337>
   1345c:	4c 0f be e0          	movsbq %al,%r12
   13460:	8b 05 c6 cf 00 00    	mov    0xcfc6(%rip),%eax        # 2042c <g_327>
   13466:	8d 50 01             	lea    0x1(%rax),%edx
   13469:	89 15 bd cf 00 00    	mov    %edx,0xcfbd(%rip)        # 2042c <g_327>
   1346f:	89 85 74 f4 ff ff    	mov    %eax,-0xb8c(%rbp)
   13475:	8b 85 d4 f3 ff ff    	mov    -0xc2c(%rbp),%eax
   1347b:	85 c0                	test   %eax,%eax
   1347d:	0f 84 91 00 00 00    	je     13514 <func_68+0x1f47>
   13483:	8b 85 d0 f3 ff ff    	mov    -0xc30(%rbp),%eax
   13489:	0f bf d8             	movswl %ax,%ebx
   1348c:	48 8b 85 d8 f3 ff ff 	mov    -0xc28(%rbp),%rax
   13493:	0f b6 00             	movzbl (%rax),%eax
   13496:	0f b6 d0             	movzbl %al,%edx
   13499:	83 bd d0 f3 ff ff 00 	cmpl   $0x0,-0xc30(%rbp)
   134a0:	0f 95 c0             	setne  %al
   134a3:	0f b6 c8             	movzbl %al,%ecx
   134a6:	48 8b 85 38 f5 ff ff 	mov    -0xac8(%rbp),%rax
   134ad:	8b 00                	mov    (%rax),%eax
   134af:	39 c1                	cmp    %eax,%ecx
   134b1:	0f 95 c0             	setne  %al
   134b4:	0f b6 c8             	movzbl %al,%ecx
   134b7:	48 8b 05 0d 88 00 00 	mov    0x880d(%rip),%rax        # 1bccb <g_408+0xb>
   134be:	48 39 c1             	cmp    %rax,%rcx
   134c1:	0f 9e c0             	setle  %al
   134c4:	0f b6 c0             	movzbl %al,%eax
   134c7:	89 d6                	mov    %edx,%esi
   134c9:	89 c7                	mov    %eax,%edi
   134cb:	e8 c3 66 ff ff       	callq  9b93 <safe_mul_func_uint8_t_u_u>
   134d0:	0f b6 c0             	movzbl %al,%eax
   134d3:	be 01 00 00 00       	mov    $0x1,%esi
   134d8:	48 89 c7             	mov    %rax,%rdi
   134db:	e8 17 65 ff ff       	callq  99f7 <safe_div_func_int64_t_s_s>
   134e0:	98                   	cwtl   
   134e1:	89 de                	mov    %ebx,%esi
   134e3:	89 c7                	mov    %eax,%edi
   134e5:	e8 0b 5f ff ff       	callq  93f5 <safe_mul_func_int16_t_s_s>
   134ea:	48 8b 85 38 f5 ff ff 	mov    -0xac8(%rbp),%rax
   134f1:	8b 00                	mov    (%rax),%eax
   134f3:	48 63 d0             	movslq %eax,%rdx
   134f6:	48 8b 05 5b 87 00 00 	mov    0x875b(%rip),%rax        # 1bc58 <g_252>
   134fd:	48 21 c2             	and    %rax,%rdx
   13500:	8b 85 d4 f3 ff ff    	mov    -0xc2c(%rbp),%eax
   13506:	48 98                	cltq   
   13508:	48 39 c2             	cmp    %rax,%rdx
   1350b:	74 07                	je     13514 <func_68+0x1f47>
   1350d:	ba 01 00 00 00       	mov    $0x1,%edx
   13512:	eb 05                	jmp    13519 <func_68+0x1f4c>
   13514:	ba 00 00 00 00       	mov    $0x0,%edx
   13519:	8b 8d d4 f3 ff ff    	mov    -0xc2c(%rbp),%ecx
   1351f:	48 8b 85 d0 f4 ff ff 	mov    -0xb30(%rbp),%rax
   13526:	88 08                	mov    %cl,(%rax)
   13528:	0f b6 00             	movzbl (%rax),%eax
   1352b:	0f b6 c0             	movzbl %al,%eax
   1352e:	89 d6                	mov    %edx,%esi
   13530:	89 c7                	mov    %eax,%edi
   13532:	e8 ce 66 ff ff       	callq  9c05 <safe_lshift_func_uint8_t_u_s>
   13537:	3c 7d                	cmp    $0x7d,%al
   13539:	76 0a                	jbe    13545 <func_68+0x1f78>
   1353b:	8b 85 d4 f3 ff ff    	mov    -0xc2c(%rbp),%eax
   13541:	85 c0                	test   %eax,%eax
   13543:	74 07                	je     1354c <func_68+0x1f7f>
   13545:	b8 01 00 00 00       	mov    $0x1,%eax
   1354a:	eb 05                	jmp    13551 <func_68+0x1f84>
   1354c:	b8 00 00 00 00       	mov    $0x0,%eax
   13551:	39 85 74 f4 ff ff    	cmp    %eax,-0xb8c(%rbp)
   13557:	0f 9c c0             	setl   %al
   1355a:	0f b6 c0             	movzbl %al,%eax
   1355d:	48 89 c6             	mov    %rax,%rsi
   13560:	48 bf 86 3e 68 c9 3f 	movabs $0xd062e3fc9683e86,%rdi
   13567:	2e 06 0d 
   1356a:	e8 dc 6a ff ff       	callq  a04b <safe_sub_func_uint64_t_u_u>
   1356f:	48 89 c2             	mov    %rax,%rdx
   13572:	8b 05 48 87 00 00    	mov    0x8748(%rip),%eax        # 1bcc0 <g_408>
   13578:	89 c0                	mov    %eax,%eax
   1357a:	48 89 d6             	mov    %rdx,%rsi
   1357d:	48 89 c7             	mov    %rax,%rdi
   13580:	e8 23 63 ff ff       	callq  98a8 <safe_sub_func_int64_t_s_s>
   13585:	4c 89 e2             	mov    %r12,%rdx
   13588:	48 09 c2             	or     %rax,%rdx
   1358b:	8b 85 d4 f3 ff ff    	mov    -0xc2c(%rbp),%eax
   13591:	48 98                	cltq   
   13593:	48 39 c2             	cmp    %rax,%rdx
   13596:	0f 9c c0             	setl   %al
   13599:	0f b6 d0             	movzbl %al,%edx
   1359c:	8b 05 82 7a 00 00    	mov    0x7a82(%rip),%eax        # 1b024 <g_4>
   135a2:	21 c2                	and    %eax,%edx
   135a4:	0f b7 85 f2 f3 ff ff 	movzwl -0xc0e(%rbp),%eax
   135ab:	39 c2                	cmp    %eax,%edx
   135ad:	0f 95 c0             	setne  %al
   135b0:	0f b6 c0             	movzbl %al,%eax
   135b3:	be 06 00 00 00       	mov    $0x6,%esi
   135b8:	89 c7                	mov    %eax,%edi
   135ba:	e8 96 5e ff ff       	callq  9455 <safe_div_func_int16_t_s_s>
   135bf:	48 83 bd 98 f5 ff ff 	cmpq   $0x0,-0xa68(%rbp)
   135c6:	00 
   135c7:	0f 84 41 03 00 00    	je     1390e <func_68+0x2341>
   135cd:	48 8d 85 40 f9 ff ff 	lea    -0x6c0(%rbp),%rax
   135d4:	48 83 c0 44          	add    $0x44,%rax
   135d8:	48 89 85 a8 f5 ff ff 	mov    %rax,-0xa58(%rbp)
   135df:	48 8d 85 08 f5 ff ff 	lea    -0xaf8(%rbp),%rax
   135e6:	48 89 85 b0 f5 ff ff 	mov    %rax,-0xa50(%rbp)
   135ed:	48 c7 85 b8 f5 ff ff 	movq   $0x0,-0xa48(%rbp)
   135f4:	00 00 00 00 
   135f8:	48 8d 85 08 f5 ff ff 	lea    -0xaf8(%rbp),%rax
   135ff:	48 89 85 60 fc ff ff 	mov    %rax,-0x3a0(%rbp)
   13606:	48 8d 85 08 f5 ff ff 	lea    -0xaf8(%rbp),%rax
   1360d:	48 89 85 68 fc ff ff 	mov    %rax,-0x398(%rbp)
   13614:	48 8d 85 10 f5 ff ff 	lea    -0xaf0(%rbp),%rax
   1361b:	48 89 85 70 fc ff ff 	mov    %rax,-0x390(%rbp)
   13622:	48 8d 85 08 f5 ff ff 	lea    -0xaf8(%rbp),%rax
   13629:	48 89 85 78 fc ff ff 	mov    %rax,-0x388(%rbp)
   13630:	48 8d 85 08 f5 ff ff 	lea    -0xaf8(%rbp),%rax
   13637:	48 89 85 80 fc ff ff 	mov    %rax,-0x380(%rbp)
   1363e:	48 8d 85 10 f5 ff ff 	lea    -0xaf0(%rbp),%rax
   13645:	48 89 85 88 fc ff ff 	mov    %rax,-0x378(%rbp)
   1364c:	48 8d 85 08 f5 ff ff 	lea    -0xaf8(%rbp),%rax
   13653:	48 89 85 90 fc ff ff 	mov    %rax,-0x370(%rbp)
   1365a:	48 8d 85 08 f5 ff ff 	lea    -0xaf8(%rbp),%rax
   13661:	48 89 85 98 fc ff ff 	mov    %rax,-0x368(%rbp)
   13668:	48 8d 85 10 f5 ff ff 	lea    -0xaf0(%rbp),%rax
   1366f:	48 89 85 a0 fc ff ff 	mov    %rax,-0x360(%rbp)
   13676:	48 8d 85 08 f5 ff ff 	lea    -0xaf8(%rbp),%rax
   1367d:	48 89 85 a8 fc ff ff 	mov    %rax,-0x358(%rbp)
   13684:	48 8d 85 08 f5 ff ff 	lea    -0xaf8(%rbp),%rax
   1368b:	48 89 85 b0 fc ff ff 	mov    %rax,-0x350(%rbp)
   13692:	48 8d 85 04 f4 ff ff 	lea    -0xbfc(%rbp),%rax
   13699:	48 89 85 b8 fc ff ff 	mov    %rax,-0x348(%rbp)
   136a0:	48 8d 85 04 f4 ff ff 	lea    -0xbfc(%rbp),%rax
   136a7:	48 89 85 c0 fc ff ff 	mov    %rax,-0x340(%rbp)
   136ae:	48 8d 85 08 f5 ff ff 	lea    -0xaf8(%rbp),%rax
   136b5:	48 89 85 c8 fc ff ff 	mov    %rax,-0x338(%rbp)
   136bc:	48 8d 85 04 f4 ff ff 	lea    -0xbfc(%rbp),%rax
   136c3:	48 89 85 d0 fc ff ff 	mov    %rax,-0x330(%rbp)
   136ca:	48 8d 85 04 f4 ff ff 	lea    -0xbfc(%rbp),%rax
   136d1:	48 89 85 d8 fc ff ff 	mov    %rax,-0x328(%rbp)
   136d8:	48 8d 85 08 f5 ff ff 	lea    -0xaf8(%rbp),%rax
   136df:	48 89 85 e0 fc ff ff 	mov    %rax,-0x320(%rbp)
   136e6:	48 8d 85 04 f4 ff ff 	lea    -0xbfc(%rbp),%rax
   136ed:	48 89 85 e8 fc ff ff 	mov    %rax,-0x318(%rbp)
   136f4:	48 8d 85 04 f4 ff ff 	lea    -0xbfc(%rbp),%rax
   136fb:	48 89 85 f0 fc ff ff 	mov    %rax,-0x310(%rbp)
   13702:	48 8d 85 08 f5 ff ff 	lea    -0xaf8(%rbp),%rax
   13709:	48 89 85 f8 fc ff ff 	mov    %rax,-0x308(%rbp)
   13710:	48 8d 85 04 f4 ff ff 	lea    -0xbfc(%rbp),%rax
   13717:	48 89 85 00 fd ff ff 	mov    %rax,-0x300(%rbp)
   1371e:	48 8d 85 08 f5 ff ff 	lea    -0xaf8(%rbp),%rax
   13725:	48 89 85 08 fd ff ff 	mov    %rax,-0x2f8(%rbp)
   1372c:	48 8d 85 04 f4 ff ff 	lea    -0xbfc(%rbp),%rax
   13733:	48 89 85 10 fd ff ff 	mov    %rax,-0x2f0(%rbp)
   1373a:	48 8d 85 04 f4 ff ff 	lea    -0xbfc(%rbp),%rax
   13741:	48 89 85 18 fd ff ff 	mov    %rax,-0x2e8(%rbp)
   13748:	48 8d 85 08 f5 ff ff 	lea    -0xaf8(%rbp),%rax
   1374f:	48 89 85 20 fd ff ff 	mov    %rax,-0x2e0(%rbp)
   13756:	48 8d 85 04 f4 ff ff 	lea    -0xbfc(%rbp),%rax
   1375d:	48 89 85 28 fd ff ff 	mov    %rax,-0x2d8(%rbp)
   13764:	48 8d 85 04 f4 ff ff 	lea    -0xbfc(%rbp),%rax
   1376b:	48 89 85 30 fd ff ff 	mov    %rax,-0x2d0(%rbp)
   13772:	48 8d 85 08 f5 ff ff 	lea    -0xaf8(%rbp),%rax
   13779:	48 89 85 38 fd ff ff 	mov    %rax,-0x2c8(%rbp)
   13780:	48 8d 85 04 f4 ff ff 	lea    -0xbfc(%rbp),%rax
   13787:	48 89 85 40 fd ff ff 	mov    %rax,-0x2c0(%rbp)
   1378e:	48 8d 85 04 f4 ff ff 	lea    -0xbfc(%rbp),%rax
   13795:	48 89 85 48 fd ff ff 	mov    %rax,-0x2b8(%rbp)
   1379c:	66 83 bd f2 f3 ff ff 	cmpw   $0x0,-0xc0e(%rbp)
   137a3:	00 
   137a4:	74 31                	je     137d7 <func_68+0x220a>
   137a6:	8b 85 d4 f3 ff ff    	mov    -0xc2c(%rbp),%eax
   137ac:	85 c0                	test   %eax,%eax
   137ae:	75 09                	jne    137b9 <func_68+0x21ec>
   137b0:	83 bd d0 f3 ff ff 00 	cmpl   $0x0,-0xc30(%rbp)
   137b7:	74 07                	je     137c0 <func_68+0x21f3>
   137b9:	b8 01 00 00 00       	mov    $0x1,%eax
   137be:	eb 05                	jmp    137c5 <func_68+0x21f8>
   137c0:	b8 00 00 00 00       	mov    $0x0,%eax
   137c5:	0f b7 c0             	movzwl %ax,%eax
   137c8:	be 01 00 00 00       	mov    $0x1,%esi
   137cd:	89 c7                	mov    %eax,%edi
   137cf:	e8 74 66 ff ff       	callq  9e48 <safe_rshift_func_uint16_t_u_s>
   137d4:	66 85 c0             	test   %ax,%ax
   137d7:	48 b8 73 fc 43 57 dc 	movabs $0x900614dc5743fc73,%rax
   137de:	14 06 90 
   137e1:	48 89 85 c0 f5 ff ff 	mov    %rax,-0xa40(%rbp)
   137e8:	48 8b 85 d8 f3 ff ff 	mov    -0xc28(%rbp),%rax
   137ef:	0f b6 00             	movzbl (%rax),%eax
   137f2:	0f be d0             	movsbl %al,%edx
   137f5:	48 8b 85 d8 f3 ff ff 	mov    -0xc28(%rbp),%rax
   137fc:	0f b6 00             	movzbl (%rax),%eax
   137ff:	0f be c0             	movsbl %al,%eax
   13802:	89 d6                	mov    %edx,%esi
   13804:	89 c7                	mov    %eax,%edi
   13806:	e8 26 5a ff ff       	callq  9231 <safe_mod_func_int8_t_s_s>
   1380b:	89 c2                	mov    %eax,%edx
   1380d:	48 8b 05 84 b4 00 00 	mov    0xb484(%rip),%rax        # 1ec98 <g_135>
   13814:	0f be d2             	movsbl %dl,%edx
   13817:	89 10                	mov    %edx,(%rax)
   13819:	48 83 bd c0 f5 ff ff 	cmpq   $0x0,-0xa40(%rbp)
   13820:	00 
   13821:	0f 85 c0 02 00 00    	jne    13ae7 <func_68+0x251a>
   13827:	0f b6 45 c5          	movzbl -0x3b(%rbp),%eax
   1382b:	83 c0 01             	add    $0x1,%eax
   1382e:	88 45 c5             	mov    %al,-0x3b(%rbp)
   13831:	48 8b 05 d0 84 00 00 	mov    0x84d0(%rip),%rax        # 1bd08 <g_525+0x28>
   13838:	8b 95 d4 f3 ff ff    	mov    -0xc2c(%rbp),%edx
   1383e:	48 8b 85 a8 f5 ff ff 	mov    -0xa58(%rbp),%rax
   13845:	89 10                	mov    %edx,(%rax)
   13847:	66 c7 85 f2 f3 ff ff 	movw   $0x0,-0xc0e(%rbp)
   1384e:	00 00 
   13850:	e9 a9 00 00 00       	jmpq   138fe <func_68+0x2331>
   13855:	c6 05 26 84 00 00 00 	movb   $0x0,0x8426(%rip)        # 1bc82 <g_337>
   1385c:	e9 86 00 00 00       	jmpq   138e7 <func_68+0x231a>
   13861:	48 c7 05 3c 84 00 00 	movq   $0x0,0x843c(%rip)        # 1bca8 <g_386>
   13868:	00 00 00 00 
   1386c:	eb 5c                	jmp    138ca <func_68+0x22fd>
   1386e:	0f b7 85 f2 f3 ff ff 	movzwl -0xc0e(%rbp),%eax
   13875:	0f b6 15 06 84 00 00 	movzbl 0x8406(%rip),%edx        # 1bc82 <g_337>
   1387c:	0f be d2             	movsbl %dl,%edx
   1387f:	48 8b 0d 22 84 00 00 	mov    0x8422(%rip),%rcx        # 1bca8 <g_386>
   13886:	48 63 f2             	movslq %edx,%rsi
   13889:	48 63 d0             	movslq %eax,%rdx
   1388c:	48 89 d0             	mov    %rdx,%rax
   1388f:	48 01 c0             	add    %rax,%rax
   13892:	48 01 d0             	add    %rdx,%rax
   13895:	48 01 c0             	add    %rax,%rax
   13898:	48 01 f0             	add    %rsi,%rax
   1389b:	48 c1 e0 02          	shl    $0x2,%rax
   1389f:	48 01 c8             	add    %rcx,%rax
   138a2:	48 8d 14 85 00 00 00 	lea    0x0(,%rax,4),%rdx
   138a9:	00 
   138aa:	48 8d 05 8f 77 00 00 	lea    0x778f(%rip),%rax        # 1b040 <g_8>
   138b1:	c7 04 02 01 00 00 00 	movl   $0x1,(%rdx,%rax,1)
   138b8:	48 8b 05 e9 83 00 00 	mov    0x83e9(%rip),%rax        # 1bca8 <g_386>
   138bf:	48 83 c0 01          	add    $0x1,%rax
   138c3:	48 89 05 de 83 00 00 	mov    %rax,0x83de(%rip)        # 1bca8 <g_386>
   138ca:	48 8b 05 d7 83 00 00 	mov    0x83d7(%rip),%rax        # 1bca8 <g_386>
   138d1:	48 83 f8 03          	cmp    $0x3,%rax
   138d5:	7e 97                	jle    1386e <func_68+0x22a1>
   138d7:	0f b6 05 a4 83 00 00 	movzbl 0x83a4(%rip),%eax        # 1bc82 <g_337>
   138de:	83 c0 01             	add    $0x1,%eax
   138e1:	88 05 9b 83 00 00    	mov    %al,0x839b(%rip)        # 1bc82 <g_337>
   138e7:	0f b6 05 94 83 00 00 	movzbl 0x8394(%rip),%eax        # 1bc82 <g_337>
   138ee:	3c 05                	cmp    $0x5,%al
   138f0:	0f 8e 6b ff ff ff    	jle    13861 <func_68+0x2294>
   138f6:	66 83 85 f2 f3 ff ff 	addw   $0x1,-0xc0e(%rbp)
   138fd:	01 
   138fe:	66 83 bd f2 f3 ff ff 	cmpw   $0x9,-0xc0e(%rbp)
   13905:	09 
   13906:	0f 86 49 ff ff ff    	jbe    13855 <func_68+0x2288>
   1390c:	eb 0e                	jmp    1391c <func_68+0x234f>
   1390e:	66 83 bd f8 f3 ff ff 	cmpw   $0x0,-0xc08(%rbp)
   13915:	00 
   13916:	0f 85 ea 01 00 00    	jne    13b06 <func_68+0x2539>
   1391c:	c6 05 5f 83 00 00 00 	movb   $0x0,0x835f(%rip)        # 1bc82 <g_337>
   13923:	e9 b0 01 00 00       	jmpq   13ad8 <func_68+0x250b>
   13928:	48 8d 05 11 cb 00 00 	lea    0xcb11(%rip),%rax        # 20440 <g_550>
   1392f:	48 89 85 c8 f5 ff ff 	mov    %rax,-0xa38(%rbp)
   13936:	c7 85 7c f4 ff ff 06 	movl   $0x6,-0xb84(%rbp)
   1393d:	00 00 00 
   13940:	66 c7 85 fa f3 ff ff 	movw   $0xd056,-0xc06(%rbp)
   13947:	56 d0 
   13949:	0f bf 9d fa f3 ff ff 	movswl -0xc06(%rbp),%ebx
   13950:	0f b7 05 0d 83 00 00 	movzwl 0x830d(%rip),%eax        # 1bc64 <g_280+0x4>
   13957:	44 0f b7 e0          	movzwl %ax,%r12d
   1395b:	0f b6 05 64 83 00 00 	movzbl 0x8364(%rip),%eax        # 1bcc6 <g_408+0x6>
   13962:	44 0f b6 e8          	movzbl %al,%r13d
   13966:	48 8b 85 78 f5 ff ff 	mov    -0xa88(%rbp),%rax
   1396d:	41 89 c7             	mov    %eax,%r15d
   13970:	0f b7 05 09 83 00 00 	movzwl 0x8309(%rip),%eax        # 1bc80 <g_313>
   13977:	44 0f bf f0          	movswl %ax,%r14d
   1397b:	8b 05 3f 83 00 00    	mov    0x833f(%rip),%eax        # 1bcc0 <g_408>
   13981:	89 c2                	mov    %eax,%edx
   13983:	48 83 bd 48 f5 ff ff 	cmpq   $0x0,-0xab8(%rbp)
   1398a:	00 
   1398b:	48 8b 85 a0 f5 ff ff 	mov    -0xa60(%rbp),%rax
   13992:	48 8b 00             	mov    (%rax),%rax
   13995:	48 c7 00 01 00 00 00 	movq   $0x1,(%rax)
   1399c:	48 8b 00             	mov    (%rax),%rax
   1399f:	48 89 d6             	mov    %rdx,%rsi
   139a2:	48 89 c7             	mov    %rax,%rdi
   139a5:	e8 05 67 ff ff       	callq  a0af <safe_div_func_uint64_t_u_u>
   139aa:	89 c2                	mov    %eax,%edx
   139ac:	48 8b 85 c8 f5 ff ff 	mov    -0xa38(%rbp),%rax
   139b3:	88 10                	mov    %dl,(%rax)
   139b5:	48 8b 85 c8 f5 ff ff 	mov    -0xa38(%rbp),%rax
   139bc:	0f b6 00             	movzbl (%rax),%eax
   139bf:	84 c0                	test   %al,%al
   139c1:	75 0a                	jne    139cd <func_68+0x2400>
   139c3:	8b 85 d4 f3 ff ff    	mov    -0xc2c(%rbp),%eax
   139c9:	85 c0                	test   %eax,%eax
   139cb:	74 07                	je     139d4 <func_68+0x2407>
   139cd:	b8 01 00 00 00       	mov    $0x1,%eax
   139d2:	eb 05                	jmp    139d9 <func_68+0x240c>
   139d4:	b8 00 00 00 00       	mov    $0x0,%eax
   139d9:	98                   	cwtl   
   139da:	44 89 f6             	mov    %r14d,%esi
   139dd:	89 c7                	mov    %eax,%edi
   139df:	e8 ef 59 ff ff       	callq  93d3 <safe_sub_func_int16_t_s_s>
   139e4:	0f be c0             	movsbl %al,%eax
   139e7:	44 89 fe             	mov    %r15d,%esi
   139ea:	89 c7                	mov    %eax,%edi
   139ec:	e8 fd 58 ff ff       	callq  92ee <safe_lshift_func_int8_t_s_u>
   139f1:	0f be c0             	movsbl %al,%eax
   139f4:	89 85 7c f4 ff ff    	mov    %eax,-0xb84(%rbp)
   139fa:	83 bd 7c f4 ff ff 00 	cmpl   $0x0,-0xb84(%rbp)
   13a01:	0f 94 c0             	sete   %al
   13a04:	0f b6 d0             	movzbl %al,%edx
   13a07:	0f b6 45 c5          	movzbl -0x3b(%rbp),%eax
   13a0b:	0f b6 c0             	movzbl %al,%eax
   13a0e:	39 c2                	cmp    %eax,%edx
   13a10:	0f 9c c0             	setl   %al
   13a13:	0f b6 c0             	movzbl %al,%eax
   13a16:	44 89 ee             	mov    %r13d,%esi
   13a19:	89 c7                	mov    %eax,%edi
   13a1b:	e8 d5 59 ff ff       	callq  93f5 <safe_mul_func_int16_t_s_s>
   13a20:	8b 05 96 81 00 00    	mov    0x8196(%rip),%eax        # 1bbbc <g_95+0x1c>
   13a26:	89 c2                	mov    %eax,%edx
   13a28:	8b 85 d4 f3 ff ff    	mov    -0xc2c(%rbp),%eax
   13a2e:	31 d0                	xor    %edx,%eax
   13a30:	0f b6 c0             	movzbl %al,%eax
   13a33:	be ff 00 00 00       	mov    $0xff,%esi
   13a38:	89 c7                	mov    %eax,%edi
   13a3a:	e8 1b 61 ff ff       	callq  9b5a <safe_add_func_uint8_t_u_u>
   13a3f:	48 8b 05 b2 b6 00 00 	mov    0xb6b2(%rip),%rax        # 1f0f8 <g_535>
   13a46:	48 8d 15 eb c9 00 00 	lea    0xc9eb(%rip),%rdx        # 20438 <g_536+0x8>
   13a4d:	48 39 d0             	cmp    %rdx,%rax
   13a50:	0f 95 c0             	setne  %al
   13a53:	0f b6 d0             	movzbl %al,%edx
   13a56:	0f b6 05 54 82 00 00 	movzbl 0x8254(%rip),%eax        # 1bcb1 <g_389+0x1>
   13a5d:	0f b6 c0             	movzbl %al,%eax
   13a60:	39 c2                	cmp    %eax,%edx
   13a62:	ba 01 00 00 00       	mov    $0x1,%edx
   13a67:	8b 85 d4 f3 ff ff    	mov    -0xc2c(%rbp),%eax
   13a6d:	39 c2                	cmp    %eax,%edx
   13a6f:	0f 95 c0             	setne  %al
   13a72:	0f b6 d0             	movzbl %al,%edx
   13a75:	8b 05 6c 81 00 00    	mov    0x816c(%rip),%eax        # 1bbe7 <g_141+0x7>
   13a7b:	0f b7 c0             	movzwl %ax,%eax
   13a7e:	89 d6                	mov    %edx,%esi
   13a80:	89 c7                	mov    %eax,%edi
   13a82:	e8 c1 63 ff ff       	callq  9e48 <safe_rshift_func_uint16_t_u_s>
   13a87:	0f b7 c0             	movzwl %ax,%eax
   13a8a:	4c 89 e6             	mov    %r12,%rsi
   13a8d:	48 89 c7             	mov    %rax,%rdi
   13a90:	e8 13 5e ff ff       	callq  98a8 <safe_sub_func_int64_t_s_s>
   13a95:	0f b7 85 fa f3 ff ff 	movzwl -0xc06(%rbp),%eax
   13a9c:	0f b6 c0             	movzbl %al,%eax
   13a9f:	89 de                	mov    %ebx,%esi
   13aa1:	89 c7                	mov    %eax,%edi
   13aa3:	e8 a4 61 ff ff       	callq  9c4c <safe_lshift_func_uint8_t_u_u>
   13aa8:	0f be c0             	movsbl %al,%eax
   13aab:	be 01 00 00 00       	mov    $0x1,%esi
   13ab0:	89 c7                	mov    %eax,%edi
   13ab2:	e8 7a 57 ff ff       	callq  9231 <safe_mod_func_int8_t_s_s>
   13ab7:	89 c2                	mov    %eax,%edx
   13ab9:	48 8b 05 e0 b1 00 00 	mov    0xb1e0(%rip),%rax        # 1eca0 <g_134>
   13ac0:	48 8b 00             	mov    (%rax),%rax
   13ac3:	0f be d2             	movsbl %dl,%edx
   13ac6:	89 10                	mov    %edx,(%rax)
   13ac8:	0f b6 05 b3 81 00 00 	movzbl 0x81b3(%rip),%eax        # 1bc82 <g_337>
   13acf:	83 e8 01             	sub    $0x1,%eax
   13ad2:	88 05 aa 81 00 00    	mov    %al,0x81aa(%rip)        # 1bc82 <g_337>
   13ad8:	0f b6 05 a3 81 00 00 	movzbl 0x81a3(%rip),%eax        # 1bc82 <g_337>
   13adf:	84 c0                	test   %al,%al
   13ae1:	0f 89 41 fe ff ff    	jns    13928 <func_68+0x235b>
   13ae7:	8b 85 10 f4 ff ff    	mov    -0xbf0(%rbp),%eax
   13aed:	83 e8 01             	sub    $0x1,%eax
   13af0:	89 85 10 f4 ff ff    	mov    %eax,-0xbf0(%rbp)
   13af6:	8b 85 10 f4 ff ff    	mov    -0xbf0(%rbp),%eax
   13afc:	85 c0                	test   %eax,%eax
   13afe:	0f 89 1f f9 ff ff    	jns    13423 <func_68+0x1e56>
   13b04:	eb 01                	jmp    13b07 <func_68+0x253a>
   13b06:	90                   	nop
   13b07:	0f b6 05 58 81 00 00 	movzbl 0x8158(%rip),%eax        # 1bc66 <g_280+0x6>
   13b0e:	83 c0 01             	add    $0x1,%eax
   13b11:	88 05 4f 81 00 00    	mov    %al,0x814f(%rip)        # 1bc66 <g_280+0x6>
   13b17:	0f b6 05 48 81 00 00 	movzbl 0x8148(%rip),%eax        # 1bc66 <g_280+0x6>
   13b1e:	84 c0                	test   %al,%al
   13b20:	0f 84 e6 f5 ff ff    	je     1310c <func_68+0x1b3f>
   13b26:	48 8b 05 53 af 00 00 	mov    0xaf53(%rip),%rax        # 1ea80 <g_32>
   13b2d:	0f b6 00             	movzbl (%rax),%eax
   13b30:	0f be d8             	movsbl %al,%ebx
   13b33:	48 8d 05 ee c8 00 00 	lea    0xc8ee(%rip),%rax        # 20428 <g_161>
   13b3a:	48 39 85 48 f5 ff ff 	cmp    %rax,-0xab8(%rbp)
   13b41:	0f 95 c0             	setne  %al
   13b44:	0f b6 c0             	movzbl %al,%eax
   13b47:	be 02 00 00 00       	mov    $0x2,%esi
   13b4c:	89 c7                	mov    %eax,%edi
   13b4e:	e8 3a 61 ff ff       	callq  9c8d <safe_rshift_func_uint8_t_u_s>
   13b53:	48 8b 05 3e af 00 00 	mov    0xaf3e(%rip),%rax        # 1ea98 <g_106>
   13b5a:	48 8b 00             	mov    (%rax),%rax
   13b5d:	48 8d 95 e9 f3 ff ff 	lea    -0xc17(%rbp),%rdx
   13b64:	48 89 10             	mov    %rdx,(%rax)
   13b67:	48 8b 10             	mov    (%rax),%rdx
   13b6a:	48 8b 85 d8 f3 ff ff 	mov    -0xc28(%rbp),%rax
   13b71:	48 39 c2             	cmp    %rax,%rdx
   13b74:	75 0c                	jne    13b82 <func_68+0x25b5>
   13b76:	0f b7 05 a3 81 00 00 	movzwl 0x81a3(%rip),%eax        # 1bd20 <g_561>
   13b7d:	66 85 c0             	test   %ax,%ax
   13b80:	74 07                	je     13b89 <func_68+0x25bc>
   13b82:	b8 01 00 00 00       	mov    $0x1,%eax
   13b87:	eb 05                	jmp    13b8e <func_68+0x25c1>
   13b89:	b8 00 00 00 00       	mov    $0x0,%eax
   13b8e:	41 89 c6             	mov    %eax,%r14d
   13b91:	48 8b 85 38 f5 ff ff 	mov    -0xac8(%rbp),%rax
   13b98:	8b 00                	mov    (%rax),%eax
   13b9a:	41 89 c4             	mov    %eax,%r12d
   13b9d:	48 8b 05 c7 80 00 00 	mov    0x80c7(%rip),%rax        # 1bc6b <g_280+0xb>
   13ba4:	41 89 c5             	mov    %eax,%r13d
   13ba7:	48 8b 05 d2 ae 00 00 	mov    0xaed2(%rip),%rax        # 1ea80 <g_32>
   13bae:	0f b6 00             	movzbl (%rax),%eax
   13bb1:	0f be c0             	movsbl %al,%eax
   13bb4:	be 01 00 00 00       	mov    $0x1,%esi
   13bb9:	89 c7                	mov    %eax,%edi
   13bbb:	e8 71 56 ff ff       	callq  9231 <safe_mod_func_int8_t_s_s>
   13bc0:	0f be d0             	movsbl %al,%edx
   13bc3:	48 8b 05 ce b0 00 00 	mov    0xb0ce(%rip),%rax        # 1ec98 <g_135>
   13bca:	8b 00                	mov    (%rax),%eax
   13bcc:	39 c2                	cmp    %eax,%edx
   13bce:	0f 9d c0             	setge  %al
   13bd1:	0f b6 d0             	movzbl %al,%edx
   13bd4:	8b 85 8c f7 ff ff    	mov    -0x874(%rbp),%eax
   13bda:	39 c2                	cmp    %eax,%edx
   13bdc:	75 1f                	jne    13bfd <func_68+0x2630>
   13bde:	8b 85 d4 f3 ff ff    	mov    -0xc2c(%rbp),%eax
   13be4:	85 c0                	test   %eax,%eax
   13be6:	75 15                	jne    13bfd <func_68+0x2630>
   13be8:	0f b7 05 75 80 00 00 	movzwl 0x8075(%rip),%eax        # 1bc64 <g_280+0x4>
   13bef:	66 85 c0             	test   %ax,%ax
   13bf2:	75 09                	jne    13bfd <func_68+0x2630>
   13bf4:	0f b6 05 cb 80 00 00 	movzbl 0x80cb(%rip),%eax        # 1bcc6 <g_408+0x6>
   13bfb:	84 c0                	test   %al,%al
   13bfd:	90                   	nop
   13bfe:	44 89 ee             	mov    %r13d,%esi
   13c01:	bf ef 91 ff ff       	mov    $0xffff91ef,%edi
   13c06:	e8 58 59 ff ff       	callq  9563 <safe_rshift_func_int16_t_s_u>
   13c0b:	0f b7 c0             	movzwl %ax,%eax
   13c0e:	44 89 e6             	mov    %r12d,%esi
   13c11:	89 c7                	mov    %eax,%edi
   13c13:	e8 ee 61 ff ff       	callq  9e06 <safe_lshift_func_uint16_t_u_u>
   13c18:	0f b6 c0             	movzbl %al,%eax
   13c1b:	89 c6                	mov    %eax,%esi
   13c1d:	bf f9 00 00 00       	mov    $0xf9,%edi
   13c22:	e8 6c 5f ff ff       	callq  9b93 <safe_mul_func_uint8_t_u_u>
   13c27:	0f b6 c0             	movzbl %al,%eax
   13c2a:	ba ff ff ff ff       	mov    $0xffffffff,%edx
   13c2f:	66 39 d0             	cmp    %dx,%ax
   13c32:	0f 93 c0             	setae  %al
   13c35:	0f b6 d0             	movzbl %al,%edx
   13c38:	0f b7 05 95 80 00 00 	movzwl 0x8095(%rip),%eax        # 1bcd4 <g_464>
   13c3f:	98                   	cwtl   
   13c40:	39 c2                	cmp    %eax,%edx
   13c42:	0f 95 c0             	setne  %al
   13c45:	0f b6 d0             	movzbl %al,%edx
   13c48:	48 8b 85 d8 f3 ff ff 	mov    -0xc28(%rbp),%rax
   13c4f:	0f b6 00             	movzbl (%rax),%eax
   13c52:	0f be c0             	movsbl %al,%eax
   13c55:	39 c2                	cmp    %eax,%edx
   13c57:	0f 9c c0             	setl   %al
   13c5a:	0f b6 c0             	movzbl %al,%eax
   13c5d:	8b 95 d0 f3 ff ff    	mov    -0xc30(%rbp),%edx
   13c63:	89 d6                	mov    %edx,%esi
   13c65:	89 c7                	mov    %eax,%edi
   13c67:	e8 9a 61 ff ff       	callq  9e06 <safe_lshift_func_uint16_t_u_u>
   13c6c:	0f b7 d0             	movzwl %ax,%edx
   13c6f:	8b 85 d4 f3 ff ff    	mov    -0xc2c(%rbp),%eax
   13c75:	39 c2                	cmp    %eax,%edx
   13c77:	0f 9e c0             	setle  %al
   13c7a:	0f b6 d0             	movzbl %al,%edx
   13c7d:	8b 85 d0 f3 ff ff    	mov    -0xc30(%rbp),%eax
   13c83:	89 c1                	mov    %eax,%ecx
   13c85:	48 8b 85 60 f5 ff ff 	mov    -0xaa0(%rbp),%rax
   13c8c:	66 89 08             	mov    %cx,(%rax)
   13c8f:	48 8b 85 60 f5 ff ff 	mov    -0xaa0(%rbp),%rax
   13c96:	0f b7 00             	movzwl (%rax),%eax
   13c99:	98                   	cwtl   
   13c9a:	89 d6                	mov    %edx,%esi
   13c9c:	89 c7                	mov    %eax,%edi
   13c9e:	e8 10 57 ff ff       	callq  93b3 <safe_add_func_int16_t_s_s>
   13ca3:	83 f0 fd             	xor    $0xfffffffd,%eax
   13ca6:	48 0f bf c0          	movswq %ax,%rax
   13caa:	48 89 c7             	mov    %rax,%rdi
   13cad:	e8 67 63 ff ff       	callq  a019 <safe_unary_minus_func_uint64_t_u>
   13cb2:	44 31 f0             	xor    %r14d,%eax
   13cb5:	83 f0 26             	xor    $0x26,%eax
   13cb8:	0f be c0             	movsbl %al,%eax
   13cbb:	89 de                	mov    %ebx,%esi
   13cbd:	89 c7                	mov    %eax,%edi
   13cbf:	e8 10 55 ff ff       	callq  91d4 <safe_add_func_int8_t_s_s>
   13cc4:	84 c0                	test   %al,%al
   13cc6:	0f 84 a8 01 00 00    	je     13e74 <func_68+0x28a7>
   13ccc:	c7 85 60 fb ff ff 67 	movl   $0x976bb867,-0x4a0(%rbp)
   13cd3:	b8 6b 97 
   13cd6:	c7 85 64 fb ff ff 67 	movl   $0x976bb867,-0x49c(%rbp)
   13cdd:	b8 6b 97 
   13ce0:	c7 85 68 fb ff ff 67 	movl   $0x976bb867,-0x498(%rbp)
   13ce7:	b8 6b 97 
   13cea:	c7 85 6c fb ff ff 67 	movl   $0x976bb867,-0x494(%rbp)
   13cf1:	b8 6b 97 
   13cf4:	c7 85 70 fb ff ff 67 	movl   $0x976bb867,-0x490(%rbp)
   13cfb:	b8 6b 97 
   13cfe:	c7 85 74 fb ff ff 67 	movl   $0x976bb867,-0x48c(%rbp)
   13d05:	b8 6b 97 
   13d08:	c7 85 78 fb ff ff 67 	movl   $0x976bb867,-0x488(%rbp)
   13d0f:	b8 6b 97 
   13d12:	c7 85 7c fb ff ff 67 	movl   $0x976bb867,-0x484(%rbp)
   13d19:	b8 6b 97 
   13d1c:	48 8d 85 f0 f4 ff ff 	lea    -0xb10(%rbp),%rax
   13d23:	48 89 85 50 f7 ff ff 	mov    %rax,-0x8b0(%rbp)
   13d2a:	c7 85 c4 f4 ff ff 09 	movl   $0x9612d309,-0xb3c(%rbp)
   13d31:	d3 12 96 
   13d34:	c7 85 c8 f4 ff ff ff 	movl   $0xffffffff,-0xb38(%rbp)
   13d3b:	ff ff ff 
   13d3e:	48 8d 05 77 7e 00 00 	lea    0x7e77(%rip),%rax        # 1bbbc <g_95+0x1c>
   13d45:	48 89 85 58 f7 ff ff 	mov    %rax,-0x8a8(%rbp)
   13d4c:	48 8d 85 40 f9 ff ff 	lea    -0x6c0(%rbp),%rax
   13d53:	48 83 c0 0c          	add    $0xc,%rax
   13d57:	48 89 85 60 f7 ff ff 	mov    %rax,-0x8a0(%rbp)
   13d5e:	48 8d 05 57 7e 00 00 	lea    0x7e57(%rip),%rax        # 1bbbc <g_95+0x1c>
   13d65:	48 89 85 68 f7 ff ff 	mov    %rax,-0x898(%rbp)
   13d6c:	48 8d 85 04 f4 ff ff 	lea    -0xbfc(%rbp),%rax
   13d73:	48 89 85 70 f7 ff ff 	mov    %rax,-0x890(%rbp)
   13d7a:	c6 85 ef f3 ff ff 01 	movb   $0x1,-0xc11(%rbp)
   13d81:	c7 85 4c f4 ff ff 00 	movl   $0x0,-0xbb4(%rbp)
   13d88:	00 00 00 
   13d8b:	eb 55                	jmp    13de2 <func_68+0x2815>
   13d8d:	c7 85 50 f4 ff ff 00 	movl   $0x0,-0xbb0(%rbp)
   13d94:	00 00 00 
   13d97:	eb 39                	jmp    13dd2 <func_68+0x2805>
   13d99:	8b 85 50 f4 ff ff    	mov    -0xbb0(%rbp),%eax
   13d9f:	48 63 c8             	movslq %eax,%rcx
   13da2:	8b 85 4c f4 ff ff    	mov    -0xbb4(%rbp),%eax
   13da8:	48 63 d0             	movslq %eax,%rdx
   13dab:	48 89 d0             	mov    %rdx,%rax
   13dae:	48 c1 e0 02          	shl    $0x2,%rax
   13db2:	48 01 d0             	add    %rdx,%rax
   13db5:	48 01 c0             	add    %rax,%rax
   13db8:	48 8d 14 08          	lea    (%rax,%rcx,1),%rdx
   13dbc:	48 8d 85 0c f4 ff ff 	lea    -0xbf4(%rbp),%rax
   13dc3:	48 89 84 d5 60 fc ff 	mov    %rax,-0x3a0(%rbp,%rdx,8)
   13dca:	ff 
   13dcb:	83 85 50 f4 ff ff 01 	addl   $0x1,-0xbb0(%rbp)
   13dd2:	83 bd 50 f4 ff ff 09 	cmpl   $0x9,-0xbb0(%rbp)
   13dd9:	7e be                	jle    13d99 <func_68+0x27cc>
   13ddb:	83 85 4c f4 ff ff 01 	addl   $0x1,-0xbb4(%rbp)
   13de2:	83 bd 4c f4 ff ff 05 	cmpl   $0x5,-0xbb4(%rbp)
   13de9:	7e a2                	jle    13d8d <func_68+0x27c0>
   13deb:	c6 05 4e c6 00 00 1c 	movb   $0x1c,0xc64e(%rip)        # 20440 <g_550>
   13df2:	eb 69                	jmp    13e5d <func_68+0x2890>
   13df4:	c7 85 cc f4 ff ff 04 	movl   $0x4,-0xb34(%rbp)
   13dfb:	00 00 00 
   13dfe:	48 c7 85 10 f5 ff ff 	movq   $0x0,-0xaf0(%rbp)
   13e05:	00 00 00 00 
   13e09:	48 8d 85 10 f5 ff ff 	lea    -0xaf0(%rbp),%rax
   13e10:	48 89 85 78 f7 ff ff 	mov    %rax,-0x888(%rbp)
   13e17:	48 8d 05 64 7e 00 00 	lea    0x7e64(%rip),%rax        # 1bc82 <g_337>
   13e1e:	48 89 85 80 f7 ff ff 	mov    %rax,-0x880(%rbp)
   13e25:	c7 85 08 f5 ff ff ad 	movl   $0x5d2fdfad,-0xaf8(%rbp)
   13e2c:	df 2f 5d 
   13e2f:	48 8b 05 6a ae 00 00 	mov    0xae6a(%rip),%rax        # 1eca0 <g_134>
   13e36:	48 8b 00             	mov    (%rax),%rax
   13e39:	8b 10                	mov    (%rax),%edx
   13e3b:	48 8b 05 5e ae 00 00 	mov    0xae5e(%rip),%rax        # 1eca0 <g_134>
   13e42:	48 8b 00             	mov    (%rax),%rax
   13e45:	0b 95 cc f4 ff ff    	or     -0xb34(%rbp),%edx
   13e4b:	89 10                	mov    %edx,(%rax)
   13e4d:	0f b6 05 ec c5 00 00 	movzbl 0xc5ec(%rip),%eax        # 20440 <g_550>
   13e54:	83 e8 01             	sub    $0x1,%eax
   13e57:	88 05 e3 c5 00 00    	mov    %al,0xc5e3(%rip)        # 20440 <g_550>
   13e5d:	0f b6 05 dc c5 00 00 	movzbl 0xc5dc(%rip),%eax        # 20440 <g_550>
   13e64:	3c fb                	cmp    $0xfb,%al
   13e66:	7d 8c                	jge    13df4 <func_68+0x2827>
   13e68:	80 85 ef f3 ff ff 01 	addb   $0x1,-0xc11(%rbp)
   13e6f:	e9 e0 05 00 00       	jmpq   14454 <func_68+0x2e87>
   13e74:	48 8d 85 10 f4 ff ff 	lea    -0xbf0(%rbp),%rax
   13e7b:	48 89 85 48 f7 ff ff 	mov    %rax,-0x8b8(%rbp)
   13e82:	48 8d 85 0c f4 ff ff 	lea    -0xbf4(%rbp),%rax
   13e89:	48 89 85 60 fc ff ff 	mov    %rax,-0x3a0(%rbp)
   13e90:	48 8d 85 0c f4 ff ff 	lea    -0xbf4(%rbp),%rax
   13e97:	48 89 85 68 fc ff ff 	mov    %rax,-0x398(%rbp)
   13e9e:	48 8d 85 0c f4 ff ff 	lea    -0xbf4(%rbp),%rax
   13ea5:	48 89 85 70 fc ff ff 	mov    %rax,-0x390(%rbp)
   13eac:	48 8d 85 40 f9 ff ff 	lea    -0x6c0(%rbp),%rax
   13eb3:	48 83 c0 44          	add    $0x44,%rax
   13eb7:	48 89 85 78 fc ff ff 	mov    %rax,-0x388(%rbp)
   13ebe:	48 8d 85 40 f9 ff ff 	lea    -0x6c0(%rbp),%rax
   13ec5:	48 83 c0 44          	add    $0x44,%rax
   13ec9:	48 89 85 80 fc ff ff 	mov    %rax,-0x380(%rbp)
   13ed0:	48 8d 85 0c f4 ff ff 	lea    -0xbf4(%rbp),%rax
   13ed7:	48 89 85 88 fc ff ff 	mov    %rax,-0x378(%rbp)
   13ede:	48 8d 85 0c f4 ff ff 	lea    -0xbf4(%rbp),%rax
   13ee5:	48 89 85 90 fc ff ff 	mov    %rax,-0x370(%rbp)
   13eec:	48 8d 85 0c f4 ff ff 	lea    -0xbf4(%rbp),%rax
   13ef3:	48 89 85 98 fc ff ff 	mov    %rax,-0x368(%rbp)
   13efa:	48 8d 85 40 f9 ff ff 	lea    -0x6c0(%rbp),%rax
   13f01:	48 83 c0 44          	add    $0x44,%rax
   13f05:	48 89 85 a0 fc ff ff 	mov    %rax,-0x360(%rbp)
   13f0c:	48 8d 85 40 f9 ff ff 	lea    -0x6c0(%rbp),%rax
   13f13:	48 83 c0 44          	add    $0x44,%rax
   13f17:	48 89 85 a8 fc ff ff 	mov    %rax,-0x358(%rbp)
   13f1e:	48 8d 05 ff 70 00 00 	lea    0x70ff(%rip),%rax        # 1b024 <g_4>
   13f25:	48 89 85 b0 fc ff ff 	mov    %rax,-0x350(%rbp)
   13f2c:	48 8d 85 40 f9 ff ff 	lea    -0x6c0(%rbp),%rax
   13f33:	48 83 c0 44          	add    $0x44,%rax
   13f37:	48 89 85 b8 fc ff ff 	mov    %rax,-0x348(%rbp)
   13f3e:	48 8d 85 40 f9 ff ff 	lea    -0x6c0(%rbp),%rax
   13f45:	48 83 c0 44          	add    $0x44,%rax
   13f49:	48 89 85 c0 fc ff ff 	mov    %rax,-0x340(%rbp)
   13f50:	48 8d 85 40 f9 ff ff 	lea    -0x6c0(%rbp),%rax
   13f57:	48 83 c0 44          	add    $0x44,%rax
   13f5b:	48 89 85 c8 fc ff ff 	mov    %rax,-0x338(%rbp)
   13f62:	48 8d 85 40 f9 ff ff 	lea    -0x6c0(%rbp),%rax
   13f69:	48 83 c0 44          	add    $0x44,%rax
   13f6d:	48 89 85 d0 fc ff ff 	mov    %rax,-0x330(%rbp)
   13f74:	48 8d 05 a9 70 00 00 	lea    0x70a9(%rip),%rax        # 1b024 <g_4>
   13f7b:	48 89 85 d8 fc ff ff 	mov    %rax,-0x328(%rbp)
   13f82:	48 8d 85 40 f9 ff ff 	lea    -0x6c0(%rbp),%rax
   13f89:	48 83 c0 44          	add    $0x44,%rax
   13f8d:	48 89 85 e0 fc ff ff 	mov    %rax,-0x320(%rbp)
   13f94:	48 8d 85 40 f9 ff ff 	lea    -0x6c0(%rbp),%rax
   13f9b:	48 83 c0 44          	add    $0x44,%rax
   13f9f:	48 89 85 e8 fc ff ff 	mov    %rax,-0x318(%rbp)
   13fa6:	48 8d 85 40 f9 ff ff 	lea    -0x6c0(%rbp),%rax
   13fad:	48 83 c0 44          	add    $0x44,%rax
   13fb1:	48 89 85 f0 fc ff ff 	mov    %rax,-0x310(%rbp)
   13fb8:	48 8d 05 65 70 00 00 	lea    0x7065(%rip),%rax        # 1b024 <g_4>
   13fbf:	48 89 85 f8 fc ff ff 	mov    %rax,-0x308(%rbp)
   13fc6:	48 8d 85 40 f9 ff ff 	lea    -0x6c0(%rbp),%rax
   13fcd:	48 83 c0 44          	add    $0x44,%rax
   13fd1:	48 89 85 00 fd ff ff 	mov    %rax,-0x300(%rbp)
   13fd8:	48 8d 85 40 f9 ff ff 	lea    -0x6c0(%rbp),%rax
   13fdf:	48 83 c0 44          	add    $0x44,%rax
   13fe3:	48 89 85 08 fd ff ff 	mov    %rax,-0x2f8(%rbp)
   13fea:	48 8d 85 40 f9 ff ff 	lea    -0x6c0(%rbp),%rax
   13ff1:	48 83 c0 44          	add    $0x44,%rax
   13ff5:	48 89 85 10 fd ff ff 	mov    %rax,-0x2f0(%rbp)
   13ffc:	48 8d 85 40 f9 ff ff 	lea    -0x6c0(%rbp),%rax
   14003:	48 83 c0 44          	add    $0x44,%rax
   14007:	48 89 85 18 fd ff ff 	mov    %rax,-0x2e8(%rbp)
   1400e:	48 8d 85 0c f4 ff ff 	lea    -0xbf4(%rbp),%rax
   14015:	48 89 85 20 fd ff ff 	mov    %rax,-0x2e0(%rbp)
   1401c:	48 8d 85 40 f9 ff ff 	lea    -0x6c0(%rbp),%rax
   14023:	48 83 c0 44          	add    $0x44,%rax
   14027:	48 89 85 28 fd ff ff 	mov    %rax,-0x2d8(%rbp)
   1402e:	48 8d 85 40 f9 ff ff 	lea    -0x6c0(%rbp),%rax
   14035:	48 83 c0 44          	add    $0x44,%rax
   14039:	48 89 85 30 fd ff ff 	mov    %rax,-0x2d0(%rbp)
   14040:	48 8d 85 0c f4 ff ff 	lea    -0xbf4(%rbp),%rax
   14047:	48 89 85 38 fd ff ff 	mov    %rax,-0x2c8(%rbp)
   1404e:	48 8d 85 0c f4 ff ff 	lea    -0xbf4(%rbp),%rax
   14055:	48 89 85 40 fd ff ff 	mov    %rax,-0x2c0(%rbp)
   1405c:	48 8d 85 0c f4 ff ff 	lea    -0xbf4(%rbp),%rax
   14063:	48 89 85 48 fd ff ff 	mov    %rax,-0x2b8(%rbp)
   1406a:	48 8d 85 40 f9 ff ff 	lea    -0x6c0(%rbp),%rax
   14071:	48 83 c0 44          	add    $0x44,%rax
   14075:	48 89 85 50 fd ff ff 	mov    %rax,-0x2b0(%rbp)
   1407c:	48 8d 85 40 f9 ff ff 	lea    -0x6c0(%rbp),%rax
   14083:	48 83 c0 44          	add    $0x44,%rax
   14087:	48 89 85 58 fd ff ff 	mov    %rax,-0x2a8(%rbp)
   1408e:	48 8d 85 40 f9 ff ff 	lea    -0x6c0(%rbp),%rax
   14095:	48 83 c0 44          	add    $0x44,%rax
   14099:	48 89 85 60 fd ff ff 	mov    %rax,-0x2a0(%rbp)
   140a0:	48 8d 85 0c f4 ff ff 	lea    -0xbf4(%rbp),%rax
   140a7:	48 89 85 68 fd ff ff 	mov    %rax,-0x298(%rbp)
   140ae:	48 8d 05 6f 6f 00 00 	lea    0x6f6f(%rip),%rax        # 1b024 <g_4>
   140b5:	48 89 85 70 fd ff ff 	mov    %rax,-0x290(%rbp)
   140bc:	48 8d 05 61 6f 00 00 	lea    0x6f61(%rip),%rax        # 1b024 <g_4>
   140c3:	48 89 85 78 fd ff ff 	mov    %rax,-0x288(%rbp)
   140ca:	48 8d 85 0c f4 ff ff 	lea    -0xbf4(%rbp),%rax
   140d1:	48 89 85 80 fd ff ff 	mov    %rax,-0x280(%rbp)
   140d8:	48 8d 85 40 f9 ff ff 	lea    -0x6c0(%rbp),%rax
   140df:	48 83 c0 44          	add    $0x44,%rax
   140e3:	48 89 85 88 fd ff ff 	mov    %rax,-0x278(%rbp)
   140ea:	48 8d 85 0c f4 ff ff 	lea    -0xbf4(%rbp),%rax
   140f1:	48 89 85 90 fd ff ff 	mov    %rax,-0x270(%rbp)
   140f8:	48 8d 05 25 6f 00 00 	lea    0x6f25(%rip),%rax        # 1b024 <g_4>
   140ff:	48 89 85 98 fd ff ff 	mov    %rax,-0x268(%rbp)
   14106:	48 8d 85 0c f4 ff ff 	lea    -0xbf4(%rbp),%rax
   1410d:	48 89 85 a0 fd ff ff 	mov    %rax,-0x260(%rbp)
   14114:	48 8d 85 0c f4 ff ff 	lea    -0xbf4(%rbp),%rax
   1411b:	48 89 85 a8 fd ff ff 	mov    %rax,-0x258(%rbp)
   14122:	48 8d 85 0c f4 ff ff 	lea    -0xbf4(%rbp),%rax
   14129:	48 89 85 b0 fd ff ff 	mov    %rax,-0x250(%rbp)
   14130:	48 8d 85 40 f9 ff ff 	lea    -0x6c0(%rbp),%rax
   14137:	48 83 c0 44          	add    $0x44,%rax
   1413b:	48 89 85 b8 fd ff ff 	mov    %rax,-0x248(%rbp)
   14142:	48 8d 85 40 f9 ff ff 	lea    -0x6c0(%rbp),%rax
   14149:	48 83 c0 44          	add    $0x44,%rax
   1414d:	48 89 85 c0 fd ff ff 	mov    %rax,-0x240(%rbp)
   14154:	48 8d 85 0c f4 ff ff 	lea    -0xbf4(%rbp),%rax
   1415b:	48 89 85 c8 fd ff ff 	mov    %rax,-0x238(%rbp)
   14162:	48 8d 85 0c f4 ff ff 	lea    -0xbf4(%rbp),%rax
   14169:	48 89 85 d0 fd ff ff 	mov    %rax,-0x230(%rbp)
   14170:	48 8d 85 0c f4 ff ff 	lea    -0xbf4(%rbp),%rax
   14177:	48 89 85 d8 fd ff ff 	mov    %rax,-0x228(%rbp)
   1417e:	48 8d 85 40 f9 ff ff 	lea    -0x6c0(%rbp),%rax
   14185:	48 83 c0 44          	add    $0x44,%rax
   14189:	48 89 85 e0 fd ff ff 	mov    %rax,-0x220(%rbp)
   14190:	48 8d 85 40 f9 ff ff 	lea    -0x6c0(%rbp),%rax
   14197:	48 83 c0 44          	add    $0x44,%rax
   1419b:	48 89 85 e8 fd ff ff 	mov    %rax,-0x218(%rbp)
   141a2:	48 8d 05 7b 6e 00 00 	lea    0x6e7b(%rip),%rax        # 1b024 <g_4>
   141a9:	48 89 85 f0 fd ff ff 	mov    %rax,-0x210(%rbp)
   141b0:	48 8d 85 40 f9 ff ff 	lea    -0x6c0(%rbp),%rax
   141b7:	48 83 c0 44          	add    $0x44,%rax
   141bb:	48 89 85 f8 fd ff ff 	mov    %rax,-0x208(%rbp)
   141c2:	48 8d 85 40 f9 ff ff 	lea    -0x6c0(%rbp),%rax
   141c9:	48 83 c0 44          	add    $0x44,%rax
   141cd:	48 89 85 00 fe ff ff 	mov    %rax,-0x200(%rbp)
   141d4:	48 8d 85 40 f9 ff ff 	lea    -0x6c0(%rbp),%rax
   141db:	48 83 c0 44          	add    $0x44,%rax
   141df:	48 89 85 08 fe ff ff 	mov    %rax,-0x1f8(%rbp)
   141e6:	48 8d 85 40 f9 ff ff 	lea    -0x6c0(%rbp),%rax
   141ed:	48 83 c0 44          	add    $0x44,%rax
   141f1:	48 89 85 10 fe ff ff 	mov    %rax,-0x1f0(%rbp)
   141f8:	48 8d 05 25 6e 00 00 	lea    0x6e25(%rip),%rax        # 1b024 <g_4>
   141ff:	48 89 85 18 fe ff ff 	mov    %rax,-0x1e8(%rbp)
   14206:	48 8d 85 40 f9 ff ff 	lea    -0x6c0(%rbp),%rax
   1420d:	48 83 c0 44          	add    $0x44,%rax
   14211:	48 89 85 20 fe ff ff 	mov    %rax,-0x1e0(%rbp)
   14218:	48 8d 85 40 f9 ff ff 	lea    -0x6c0(%rbp),%rax
   1421f:	48 83 c0 44          	add    $0x44,%rax
   14223:	48 89 85 28 fe ff ff 	mov    %rax,-0x1d8(%rbp)
   1422a:	48 8d 85 40 f9 ff ff 	lea    -0x6c0(%rbp),%rax
   14231:	48 83 c0 44          	add    $0x44,%rax
   14235:	48 89 85 30 fe ff ff 	mov    %rax,-0x1d0(%rbp)
   1423c:	48 8d 05 e1 6d 00 00 	lea    0x6de1(%rip),%rax        # 1b024 <g_4>
   14243:	48 89 85 38 fe ff ff 	mov    %rax,-0x1c8(%rbp)
   1424a:	48 8d 85 40 f9 ff ff 	lea    -0x6c0(%rbp),%rax
   14251:	48 83 c0 44          	add    $0x44,%rax
   14255:	48 89 85 40 fe ff ff 	mov    %rax,-0x1c0(%rbp)
   1425c:	48 8d 85 40 f9 ff ff 	lea    -0x6c0(%rbp),%rax
   14263:	48 83 c0 44          	add    $0x44,%rax
   14267:	48 89 85 48 fe ff ff 	mov    %rax,-0x1b8(%rbp)
   1426e:	48 8d 85 40 f9 ff ff 	lea    -0x6c0(%rbp),%rax
   14275:	48 83 c0 44          	add    $0x44,%rax
   14279:	48 89 85 50 fe ff ff 	mov    %rax,-0x1b0(%rbp)
   14280:	48 8d 85 40 f9 ff ff 	lea    -0x6c0(%rbp),%rax
   14287:	48 83 c0 44          	add    $0x44,%rax
   1428b:	48 89 85 58 fe ff ff 	mov    %rax,-0x1a8(%rbp)
   14292:	48 8d 85 0c f4 ff ff 	lea    -0xbf4(%rbp),%rax
   14299:	48 89 85 60 fe ff ff 	mov    %rax,-0x1a0(%rbp)
   142a0:	48 8d 85 40 f9 ff ff 	lea    -0x6c0(%rbp),%rax
   142a7:	48 83 c0 44          	add    $0x44,%rax
   142ab:	48 89 85 68 fe ff ff 	mov    %rax,-0x198(%rbp)
   142b2:	48 8d 85 40 f9 ff ff 	lea    -0x6c0(%rbp),%rax
   142b9:	48 83 c0 44          	add    $0x44,%rax
   142bd:	48 89 85 70 fe ff ff 	mov    %rax,-0x190(%rbp)
   142c4:	48 8d 85 0c f4 ff ff 	lea    -0xbf4(%rbp),%rax
   142cb:	48 89 85 78 fe ff ff 	mov    %rax,-0x188(%rbp)
   142d2:	48 8d 85 0c f4 ff ff 	lea    -0xbf4(%rbp),%rax
   142d9:	48 89 85 80 fe ff ff 	mov    %rax,-0x180(%rbp)
   142e0:	48 8d 85 0c f4 ff ff 	lea    -0xbf4(%rbp),%rax
   142e7:	48 89 85 88 fe ff ff 	mov    %rax,-0x178(%rbp)
   142ee:	48 8d 85 40 f9 ff ff 	lea    -0x6c0(%rbp),%rax
   142f5:	48 83 c0 44          	add    $0x44,%rax
   142f9:	48 89 85 90 fe ff ff 	mov    %rax,-0x170(%rbp)
   14300:	48 8d 85 40 f9 ff ff 	lea    -0x6c0(%rbp),%rax
   14307:	48 83 c0 44          	add    $0x44,%rax
   1430b:	48 89 85 98 fe ff ff 	mov    %rax,-0x168(%rbp)
   14312:	48 8d 85 40 f9 ff ff 	lea    -0x6c0(%rbp),%rax
   14319:	48 83 c0 44          	add    $0x44,%rax
   1431d:	48 89 85 a0 fe ff ff 	mov    %rax,-0x160(%rbp)
   14324:	48 8d 85 0c f4 ff ff 	lea    -0xbf4(%rbp),%rax
   1432b:	48 89 85 a8 fe ff ff 	mov    %rax,-0x158(%rbp)
   14332:	48 8d 05 eb 6c 00 00 	lea    0x6ceb(%rip),%rax        # 1b024 <g_4>
   14339:	48 89 85 b0 fe ff ff 	mov    %rax,-0x150(%rbp)
   14340:	48 8d 05 dd 6c 00 00 	lea    0x6cdd(%rip),%rax        # 1b024 <g_4>
   14347:	48 89 85 b8 fe ff ff 	mov    %rax,-0x148(%rbp)
   1434e:	48 8d 85 0c f4 ff ff 	lea    -0xbf4(%rbp),%rax
   14355:	48 89 85 c0 fe ff ff 	mov    %rax,-0x140(%rbp)
   1435c:	48 8d 85 40 f9 ff ff 	lea    -0x6c0(%rbp),%rax
   14363:	48 83 c0 44          	add    $0x44,%rax
   14367:	48 89 85 c8 fe ff ff 	mov    %rax,-0x138(%rbp)
   1436e:	48 8d 85 0c f4 ff ff 	lea    -0xbf4(%rbp),%rax
   14375:	48 89 85 d0 fe ff ff 	mov    %rax,-0x130(%rbp)
   1437c:	48 8d 05 a1 6c 00 00 	lea    0x6ca1(%rip),%rax        # 1b024 <g_4>
   14383:	48 89 85 d8 fe ff ff 	mov    %rax,-0x128(%rbp)
   1438a:	c7 85 c0 f4 ff ff ff 	movl   $0xffffffff,-0xb40(%rbp)
   14391:	ff ff ff 
   14394:	c7 85 54 f4 ff ff 00 	movl   $0x0,-0xbac(%rbp)
   1439b:	00 00 00 
   1439e:	eb 51                	jmp    143f1 <func_68+0x2e24>
   143a0:	c7 85 60 f4 ff ff 00 	movl   $0x0,-0xba0(%rbp)
   143a7:	00 00 00 
   143aa:	eb 35                	jmp    143e1 <func_68+0x2e14>
   143ac:	8b 85 60 f4 ff ff    	mov    -0xba0(%rbp),%eax
   143b2:	48 63 c8             	movslq %eax,%rcx
   143b5:	8b 85 54 f4 ff ff    	mov    -0xbac(%rbp),%eax
   143bb:	48 63 d0             	movslq %eax,%rdx
   143be:	48 89 d0             	mov    %rdx,%rax
   143c1:	48 01 c0             	add    %rax,%rax
   143c4:	48 01 d0             	add    %rdx,%rax
   143c7:	48 8d 5d d0          	lea    -0x30(%rbp),%rbx
   143cb:	48 01 d8             	add    %rbx,%rax
   143ce:	48 01 c8             	add    %rcx,%rax
   143d1:	48 2d 70 04 00 00    	sub    $0x470,%rax
   143d7:	c6 00 83             	movb   $0x83,(%rax)
   143da:	83 85 60 f4 ff ff 01 	addl   $0x1,-0xba0(%rbp)
   143e1:	83 bd 60 f4 ff ff 02 	cmpl   $0x2,-0xba0(%rbp)
   143e8:	7e c2                	jle    143ac <func_68+0x2ddf>
   143ea:	83 85 54 f4 ff ff 01 	addl   $0x1,-0xbac(%rbp)
   143f1:	83 bd 54 f4 ff ff 03 	cmpl   $0x3,-0xbac(%rbp)
   143f8:	7e a6                	jle    143a0 <func_68+0x2dd3>
   143fa:	c6 05 3f c0 00 00 00 	movb   $0x0,0xc03f(%rip)        # 20440 <g_550>
   14401:	eb 36                	jmp    14439 <func_68+0x2e6c>
   14403:	0f b6 05 36 c0 00 00 	movzbl 0xc036(%rip),%eax        # 20440 <g_550>
   1440a:	0f be c0             	movsbl %al,%eax
   1440d:	48 98                	cltq   
   1440f:	48 8d 14 c5 00 00 00 	lea    0x0(,%rax,8),%rdx
   14416:	00 
   14417:	48 8d 05 a2 a8 00 00 	lea    0xa8a2(%rip),%rax        # 1ecc0 <g_195>
   1441e:	48 8d 0d 97 77 00 00 	lea    0x7797(%rip),%rcx        # 1bbbc <g_95+0x1c>
   14425:	48 89 0c 02          	mov    %rcx,(%rdx,%rax,1)
   14429:	0f b6 05 10 c0 00 00 	movzbl 0xc010(%rip),%eax        # 20440 <g_550>
   14430:	83 c0 01             	add    $0x1,%eax
   14433:	88 05 07 c0 00 00    	mov    %al,0xc007(%rip)        # 20440 <g_550>
   14439:	0f b6 05 00 c0 00 00 	movzbl 0xc000(%rip),%eax        # 20440 <g_550>
   14440:	3c 09                	cmp    $0x9,%al
   14442:	7e bf                	jle    14403 <func_68+0x2e36>
   14444:	0f b6 85 6a fb ff ff 	movzbl -0x496(%rbp),%eax
   1444b:	83 c0 01             	add    $0x1,%eax
   1444e:	88 85 6a fb ff ff    	mov    %al,-0x496(%rbp)
   14454:	8b 85 d0 f3 ff ff    	mov    -0xc30(%rbp),%eax
   1445a:	48 8b 5d c8          	mov    -0x38(%rbp),%rbx
   1445e:	64 48 33 1c 25 28 00 	xor    %fs:0x28,%rbx
   14465:	00 00 
   14467:	74 05                	je     1446e <func_68+0x2ea1>
   14469:	e8 02 4c ff ff       	callq  9070 <__stack_chk_fail@plt>
   1446e:	48 81 c4 08 0c 00 00 	add    $0xc08,%rsp
   14475:	5b                   	pop    %rbx
   14476:	41 5c                	pop    %r12
   14478:	41 5d                	pop    %r13
   1447a:	41 5e                	pop    %r14
   1447c:	41 5f                	pop    %r15
   1447e:	5d                   	pop    %rbp
   1447f:	c3                   	retq   

0000000000014480 <func_76>:
   14480:	f3 0f 1e fa          	endbr64 
   14484:	55                   	push   %rbp
   14485:	48 89 e5             	mov    %rsp,%rbp
   14488:	89 f8                	mov    %edi,%eax
   1448a:	89 75 f8             	mov    %esi,-0x8(%rbp)
   1448d:	48 89 55 f0          	mov    %rdx,-0x10(%rbp)
   14491:	88 45 fc             	mov    %al,-0x4(%rbp)
   14494:	48 8b 05 e5 a5 00 00 	mov    0xa5e5(%rip),%rax        # 1ea80 <g_32>
   1449b:	0f b6 00             	movzbl (%rax),%eax
   1449e:	5d                   	pop    %rbp
   1449f:	c3                   	retq   

00000000000144a0 <main>:
   144a0:	f3 0f 1e fa          	endbr64 
   144a4:	55                   	push   %rbp
   144a5:	48 89 e5             	mov    %rsp,%rbp
   144a8:	48 83 ec 20          	sub    $0x20,%rsp
   144ac:	89 7d ec             	mov    %edi,-0x14(%rbp)
   144af:	48 89 75 e0          	mov    %rsi,-0x20(%rbp)
   144b3:	c7 45 fc 00 00 00 00 	movl   $0x0,-0x4(%rbp)
   144ba:	83 7d ec 02          	cmpl   $0x2,-0x14(%rbp)
   144be:	74 25                	je     144e5 <main+0x45>
   144c0:	48 8b 45 e0          	mov    -0x20(%rbp),%rax
   144c4:	48 83 c0 08          	add    $0x8,%rax
   144c8:	48 8b 00             	mov    (%rax),%rax
   144cb:	48 8d 35 6e 3d 00 00 	lea    0x3d6e(%rip),%rsi        # 18240 <g_1889+0x1a50>
   144d2:	48 89 c7             	mov    %rax,%rdi
   144d5:	e8 b6 4b ff ff       	callq  9090 <strcmp@plt>
   144da:	85 c0                	test   %eax,%eax
   144dc:	74 07                	je     144e5 <main+0x45>
   144de:	c7 45 fc 01 00 00 00 	movl   $0x1,-0x4(%rbp)
   144e5:	e8 9f 4c ff ff       	callq  9189 <platform_main_begin>
   144ea:	e8 a9 60 ff ff       	callq  a598 <crc32_gentab>
   144ef:	e8 c1 62 ff ff       	callq  a7b5 <func_1>
   144f4:	8b 05 2a 6b 00 00    	mov    0x6b2a(%rip),%eax        # 1b024 <g_4>
   144fa:	48 98                	cltq   
   144fc:	8b 55 fc             	mov    -0x4(%rbp),%edx
   144ff:	48 8d 35 3c 3d 00 00 	lea    0x3d3c(%rip),%rsi        # 18242 <g_1889+0x1a52>
   14506:	48 89 c7             	mov    %rax,%rdi
   14509:	e8 e5 61 ff ff       	callq  a6f3 <transparent_crc>
   1450e:	c7 45 f0 00 00 00 00 	movl   $0x0,-0x10(%rbp)
   14515:	e9 a1 00 00 00       	jmpq   145bb <main+0x11b>
   1451a:	c7 45 f4 00 00 00 00 	movl   $0x0,-0xc(%rbp)
   14521:	e9 87 00 00 00       	jmpq   145ad <main+0x10d>
   14526:	c7 45 f8 00 00 00 00 	movl   $0x0,-0x8(%rbp)
   1452d:	eb 74                	jmp    145a3 <main+0x103>
   1452f:	8b 45 f8             	mov    -0x8(%rbp),%eax
   14532:	48 63 c8             	movslq %eax,%rcx
   14535:	8b 45 f0             	mov    -0x10(%rbp),%eax
   14538:	48 63 d0             	movslq %eax,%rdx
   1453b:	8b 45 f4             	mov    -0xc(%rbp),%eax
   1453e:	48 63 f0             	movslq %eax,%rsi
   14541:	48 89 d0             	mov    %rdx,%rax
   14544:	48 01 c0             	add    %rax,%rax
   14547:	48 01 d0             	add    %rdx,%rax
   1454a:	48 01 c0             	add    %rax,%rax
   1454d:	48 01 f0             	add    %rsi,%rax
   14550:	48 c1 e0 02          	shl    $0x2,%rax
   14554:	48 01 c8             	add    %rcx,%rax
   14557:	48 8d 14 85 00 00 00 	lea    0x0(,%rax,4),%rdx
   1455e:	00 
   1455f:	48 8d 05 da 6a 00 00 	lea    0x6ada(%rip),%rax        # 1b040 <g_8>
   14566:	8b 04 02             	mov    (%rdx,%rax,1),%eax
   14569:	48 98                	cltq   
   1456b:	8b 55 fc             	mov    -0x4(%rbp),%edx
   1456e:	48 8d 35 d1 3c 00 00 	lea    0x3cd1(%rip),%rsi        # 18246 <g_1889+0x1a56>
   14575:	48 89 c7             	mov    %rax,%rdi
   14578:	e8 76 61 ff ff       	callq  a6f3 <transparent_crc>
   1457d:	83 7d fc 00          	cmpl   $0x0,-0x4(%rbp)
   14581:	74 1c                	je     1459f <main+0xff>
   14583:	8b 4d f8             	mov    -0x8(%rbp),%ecx
   14586:	8b 55 f4             	mov    -0xc(%rbp),%edx
   14589:	8b 45 f0             	mov    -0x10(%rbp),%eax
   1458c:	89 c6                	mov    %eax,%esi
   1458e:	48 8d 3d be 3c 00 00 	lea    0x3cbe(%rip),%rdi        # 18253 <g_1889+0x1a63>
   14595:	b8 00 00 00 00       	mov    $0x0,%eax
   1459a:	e8 e1 4a ff ff       	callq  9080 <printf@plt>
   1459f:	83 45 f8 01          	addl   $0x1,-0x8(%rbp)
   145a3:	83 7d f8 03          	cmpl   $0x3,-0x8(%rbp)
   145a7:	7e 86                	jle    1452f <main+0x8f>
   145a9:	83 45 f4 01          	addl   $0x1,-0xc(%rbp)
   145ad:	83 7d f4 05          	cmpl   $0x5,-0xc(%rbp)
   145b1:	0f 8e 6f ff ff ff    	jle    14526 <main+0x86>
   145b7:	83 45 f0 01          	addl   $0x1,-0x10(%rbp)
   145bb:	83 7d f0 09          	cmpl   $0x9,-0x10(%rbp)
   145bf:	0f 8e 55 ff ff ff    	jle    1451a <main+0x7a>
   145c5:	0f b6 05 34 6e 00 00 	movzbl 0x6e34(%rip),%eax        # 1b400 <g_33>
   145cc:	48 0f be c0          	movsbq %al,%rax
   145d0:	8b 55 fc             	mov    -0x4(%rbp),%edx
   145d3:	48 8d 35 8f 3c 00 00 	lea    0x3c8f(%rip),%rsi        # 18269 <g_1889+0x1a79>
   145da:	48 89 c7             	mov    %rax,%rdi
   145dd:	e8 11 61 ff ff       	callq  a6f3 <transparent_crc>
   145e2:	c7 45 f0 00 00 00 00 	movl   $0x0,-0x10(%rbp)
   145e9:	eb 45                	jmp    14630 <main+0x190>
   145eb:	8b 45 f0             	mov    -0x10(%rbp),%eax
   145ee:	48 98                	cltq   
   145f0:	48 8d 15 11 6e 00 00 	lea    0x6e11(%rip),%rdx        # 1b408 <g_73>
   145f7:	0f b6 04 10          	movzbl (%rax,%rdx,1),%eax
   145fb:	0f b6 c0             	movzbl %al,%eax
   145fe:	8b 55 fc             	mov    -0x4(%rbp),%edx
   14601:	48 8d 35 66 3c 00 00 	lea    0x3c66(%rip),%rsi        # 1826e <g_1889+0x1a7e>
   14608:	48 89 c7             	mov    %rax,%rdi
   1460b:	e8 e3 60 ff ff       	callq  a6f3 <transparent_crc>
   14610:	83 7d fc 00          	cmpl   $0x0,-0x4(%rbp)
   14614:	74 16                	je     1462c <main+0x18c>
   14616:	8b 45 f0             	mov    -0x10(%rbp),%eax
   14619:	89 c6                	mov    %eax,%esi
   1461b:	48 8d 3d 54 3c 00 00 	lea    0x3c54(%rip),%rdi        # 18276 <g_1889+0x1a86>
   14622:	b8 00 00 00 00       	mov    $0x0,%eax
   14627:	e8 54 4a ff ff       	callq  9080 <printf@plt>
   1462c:	83 45 f0 01          	addl   $0x1,-0x10(%rbp)
   14630:	83 7d f0 09          	cmpl   $0x9,-0x10(%rbp)
   14634:	7e b5                	jle    145eb <main+0x14b>
   14636:	c7 45 f0 00 00 00 00 	movl   $0x0,-0x10(%rbp)
   1463d:	e9 a6 00 00 00       	jmpq   146e8 <main+0x248>
   14642:	c7 45 f4 00 00 00 00 	movl   $0x0,-0xc(%rbp)
   14649:	e9 8c 00 00 00       	jmpq   146da <main+0x23a>
   1464e:	c7 45 f8 00 00 00 00 	movl   $0x0,-0x8(%rbp)
   14655:	eb 79                	jmp    146d0 <main+0x230>
   14657:	8b 45 f8             	mov    -0x8(%rbp),%eax
   1465a:	48 63 f0             	movslq %eax,%rsi
   1465d:	8b 45 f0             	mov    -0x10(%rbp),%eax
   14660:	48 63 d0             	movslq %eax,%rdx
   14663:	8b 45 f4             	mov    -0xc(%rbp),%eax
   14666:	48 63 c8             	movslq %eax,%rcx
   14669:	48 89 d0             	mov    %rdx,%rax
   1466c:	48 01 c0             	add    %rax,%rax
   1466f:	48 01 d0             	add    %rdx,%rax
   14672:	48 c1 e0 03          	shl    $0x3,%rax
   14676:	48 89 ca             	mov    %rcx,%rdx
   14679:	48 01 d2             	add    %rdx,%rdx
   1467c:	48 01 ca             	add    %rcx,%rdx
   1467f:	48 01 d0             	add    %rdx,%rax
   14682:	48 01 f0             	add    %rsi,%rax
   14685:	48 8d 14 c5 00 00 00 	lea    0x0(,%rax,8),%rdx
   1468c:	00 
   1468d:	48 8d 05 8c 6d 00 00 	lea    0x6d8c(%rip),%rax        # 1b420 <g_91>
   14694:	48 8b 04 02          	mov    (%rdx,%rax,1),%rax
   14698:	8b 55 fc             	mov    -0x4(%rbp),%edx
   1469b:	48 8d 35 e2 3b 00 00 	lea    0x3be2(%rip),%rsi        # 18284 <g_1889+0x1a94>
   146a2:	48 89 c7             	mov    %rax,%rdi
   146a5:	e8 49 60 ff ff       	callq  a6f3 <transparent_crc>
   146aa:	83 7d fc 00          	cmpl   $0x0,-0x4(%rbp)
   146ae:	74 1c                	je     146cc <main+0x22c>
   146b0:	8b 4d f8             	mov    -0x8(%rbp),%ecx
   146b3:	8b 55 f4             	mov    -0xc(%rbp),%edx
   146b6:	8b 45 f0             	mov    -0x10(%rbp),%eax
   146b9:	89 c6                	mov    %eax,%esi
   146bb:	48 8d 3d 91 3b 00 00 	lea    0x3b91(%rip),%rdi        # 18253 <g_1889+0x1a63>
   146c2:	b8 00 00 00 00       	mov    $0x0,%eax
   146c7:	e8 b4 49 ff ff       	callq  9080 <printf@plt>
   146cc:	83 45 f8 01          	addl   $0x1,-0x8(%rbp)
   146d0:	83 7d f8 02          	cmpl   $0x2,-0x8(%rbp)
   146d4:	7e 81                	jle    14657 <main+0x1b7>
   146d6:	83 45 f4 01          	addl   $0x1,-0xc(%rbp)
   146da:	83 7d f4 07          	cmpl   $0x7,-0xc(%rbp)
   146de:	0f 8e 6a ff ff ff    	jle    1464e <main+0x1ae>
   146e4:	83 45 f0 01          	addl   $0x1,-0x10(%rbp)
   146e8:	83 7d f0 09          	cmpl   $0x9,-0x10(%rbp)
   146ec:	0f 8e 50 ff ff ff    	jle    14642 <main+0x1a2>
   146f2:	c7 45 f0 00 00 00 00 	movl   $0x0,-0x10(%rbp)
   146f9:	eb 6d                	jmp    14768 <main+0x2c8>
   146fb:	c7 45 f4 00 00 00 00 	movl   $0x0,-0xc(%rbp)
   14702:	eb 5a                	jmp    1475e <main+0x2be>
   14704:	8b 45 f4             	mov    -0xc(%rbp),%eax
   14707:	48 98                	cltq   
   14709:	8b 55 f0             	mov    -0x10(%rbp),%edx
   1470c:	48 63 d2             	movslq %edx,%rdx
   1470f:	48 01 d2             	add    %rdx,%rdx
   14712:	48 01 d0             	add    %rdx,%rax
   14715:	48 8d 14 85 00 00 00 	lea    0x0(,%rax,4),%rdx
   1471c:	00 
   1471d:	48 8d 05 7c 74 00 00 	lea    0x747c(%rip),%rax        # 1bba0 <g_95>
   14724:	8b 04 02             	mov    (%rdx,%rax,1),%eax
   14727:	48 98                	cltq   
   14729:	8b 55 fc             	mov    -0x4(%rbp),%edx
   1472c:	48 8d 35 62 3b 00 00 	lea    0x3b62(%rip),%rsi        # 18295 <g_1889+0x1aa5>
   14733:	48 89 c7             	mov    %rax,%rdi
   14736:	e8 b8 5f ff ff       	callq  a6f3 <transparent_crc>
   1473b:	83 7d fc 00          	cmpl   $0x0,-0x4(%rbp)
   1473f:	74 19                	je     1475a <main+0x2ba>
   14741:	8b 55 f4             	mov    -0xc(%rbp),%edx
   14744:	8b 45 f0             	mov    -0x10(%rbp),%eax
   14747:	89 c6                	mov    %eax,%esi
   14749:	48 8d 3d 53 3b 00 00 	lea    0x3b53(%rip),%rdi        # 182a3 <g_1889+0x1ab3>
   14750:	b8 00 00 00 00       	mov    $0x0,%eax
   14755:	e8 26 49 ff ff       	callq  9080 <printf@plt>
   1475a:	83 45 f4 01          	addl   $0x1,-0xc(%rbp)
   1475e:	83 7d f4 01          	cmpl   $0x1,-0xc(%rbp)
   14762:	7e a0                	jle    14704 <main+0x264>
   14764:	83 45 f0 01          	addl   $0x1,-0x10(%rbp)
   14768:	83 7d f0 06          	cmpl   $0x6,-0x10(%rbp)
   1476c:	7e 8d                	jle    146fb <main+0x25b>
   1476e:	48 8b 05 63 74 00 00 	mov    0x7463(%rip),%rax        # 1bbd8 <g_100>
   14775:	48 89 c1             	mov    %rax,%rcx
   14778:	8b 45 fc             	mov    -0x4(%rbp),%eax
   1477b:	89 c2                	mov    %eax,%edx
   1477d:	48 8d 35 31 3b 00 00 	lea    0x3b31(%rip),%rsi        # 182b5 <g_1889+0x1ac5>
   14784:	48 89 cf             	mov    %rcx,%rdi
   14787:	e8 67 5f ff ff       	callq  a6f3 <transparent_crc>
   1478c:	8b 05 4e 74 00 00    	mov    0x744e(%rip),%eax        # 1bbe0 <g_141>
   14792:	89 c1                	mov    %eax,%ecx
   14794:	8b 45 fc             	mov    -0x4(%rbp),%eax
   14797:	89 c2                	mov    %eax,%edx
   14799:	48 8d 35 1b 3b 00 00 	lea    0x3b1b(%rip),%rsi        # 182bb <g_1889+0x1acb>
   147a0:	48 89 cf             	mov    %rcx,%rdi
   147a3:	e8 4b 5f ff ff       	callq  a6f3 <transparent_crc>
   147a8:	0f b7 05 35 74 00 00 	movzwl 0x7435(%rip),%eax        # 1bbe4 <g_141+0x4>
   147af:	0f b7 c0             	movzwl %ax,%eax
   147b2:	8b 55 fc             	mov    -0x4(%rbp),%edx
   147b5:	48 8d 35 08 3b 00 00 	lea    0x3b08(%rip),%rsi        # 182c4 <g_1889+0x1ad4>
   147bc:	48 89 c7             	mov    %rax,%rdi
   147bf:	e8 2f 5f ff ff       	callq  a6f3 <transparent_crc>
   147c4:	0f b6 05 1b 74 00 00 	movzbl 0x741b(%rip),%eax        # 1bbe6 <g_141+0x6>
   147cb:	0f b6 c0             	movzbl %al,%eax
   147ce:	8b 55 fc             	mov    -0x4(%rbp),%edx
   147d1:	48 8d 35 f5 3a 00 00 	lea    0x3af5(%rip),%rsi        # 182cd <g_1889+0x1add>
   147d8:	48 89 c7             	mov    %rax,%rdi
   147db:	e8 13 5f ff ff       	callq  a6f3 <transparent_crc>
   147e0:	8b 05 01 74 00 00    	mov    0x7401(%rip),%eax        # 1bbe7 <g_141+0x7>
   147e6:	89 c1                	mov    %eax,%ecx
   147e8:	8b 45 fc             	mov    -0x4(%rbp),%eax
   147eb:	89 c2                	mov    %eax,%edx
   147ed:	48 8d 35 e2 3a 00 00 	lea    0x3ae2(%rip),%rsi        # 182d6 <g_1889+0x1ae6>
   147f4:	48 89 cf             	mov    %rcx,%rdi
   147f7:	e8 f7 5e ff ff       	callq  a6f3 <transparent_crc>
   147fc:	48 8b 05 e8 73 00 00 	mov    0x73e8(%rip),%rax        # 1bbeb <g_141+0xb>
   14803:	48 89 c1             	mov    %rax,%rcx
   14806:	8b 45 fc             	mov    -0x4(%rbp),%eax
   14809:	89 c2                	mov    %eax,%edx
   1480b:	48 8d 35 cd 3a 00 00 	lea    0x3acd(%rip),%rsi        # 182df <g_1889+0x1aef>
   14812:	48 89 cf             	mov    %rcx,%rdi
   14815:	e8 d9 5e ff ff       	callq  a6f3 <transparent_crc>
   1481a:	0f b7 05 07 bc 00 00 	movzwl 0xbc07(%rip),%eax        # 20428 <g_161>
   14821:	0f b7 c0             	movzwl %ax,%eax
   14824:	8b 55 fc             	mov    -0x4(%rbp),%edx
   14827:	48 8d 35 ba 3a 00 00 	lea    0x3aba(%rip),%rsi        # 182e8 <g_1889+0x1af8>
   1482e:	48 89 c7             	mov    %rax,%rdi
   14831:	e8 bd 5e ff ff       	callq  a6f3 <transparent_crc>
   14836:	c7 45 f0 00 00 00 00 	movl   $0x0,-0x10(%rbp)
   1483d:	eb 78                	jmp    148b7 <main+0x417>
   1483f:	c7 45 f4 00 00 00 00 	movl   $0x0,-0xc(%rbp)
   14846:	eb 65                	jmp    148ad <main+0x40d>
   14848:	8b 45 f4             	mov    -0xc(%rbp),%eax
   1484b:	48 63 c8             	movslq %eax,%rcx
   1484e:	8b 45 f0             	mov    -0x10(%rbp),%eax
   14851:	48 63 d0             	movslq %eax,%rdx
   14854:	48 89 d0             	mov    %rdx,%rax
   14857:	48 c1 e0 02          	shl    $0x2,%rax
   1485b:	48 01 d0             	add    %rdx,%rax
   1485e:	48 01 c0             	add    %rax,%rax
   14861:	48 01 c8             	add    %rcx,%rax
   14864:	48 8d 14 85 00 00 00 	lea    0x0(,%rax,4),%rdx
   1486b:	00 
   1486c:	48 8d 05 8d 73 00 00 	lea    0x738d(%rip),%rax        # 1bc00 <g_247>
   14873:	8b 04 02             	mov    (%rdx,%rax,1),%eax
   14876:	48 98                	cltq   
   14878:	8b 55 fc             	mov    -0x4(%rbp),%edx
   1487b:	48 8d 35 6c 3a 00 00 	lea    0x3a6c(%rip),%rsi        # 182ee <g_1889+0x1afe>
   14882:	48 89 c7             	mov    %rax,%rdi
   14885:	e8 69 5e ff ff       	callq  a6f3 <transparent_crc>
   1488a:	83 7d fc 00          	cmpl   $0x0,-0x4(%rbp)
   1488e:	74 19                	je     148a9 <main+0x409>
   14890:	8b 55 f4             	mov    -0xc(%rbp),%edx
   14893:	8b 45 f0             	mov    -0x10(%rbp),%eax
   14896:	89 c6                	mov    %eax,%esi
   14898:	48 8d 3d 04 3a 00 00 	lea    0x3a04(%rip),%rdi        # 182a3 <g_1889+0x1ab3>
   1489f:	b8 00 00 00 00       	mov    $0x0,%eax
   148a4:	e8 d7 47 ff ff       	callq  9080 <printf@plt>
   148a9:	83 45 f4 01          	addl   $0x1,-0xc(%rbp)
   148ad:	83 7d f4 09          	cmpl   $0x9,-0xc(%rbp)
   148b1:	7e 95                	jle    14848 <main+0x3a8>
   148b3:	83 45 f0 01          	addl   $0x1,-0x10(%rbp)
   148b7:	83 7d f0 01          	cmpl   $0x1,-0x10(%rbp)
   148bb:	7e 82                	jle    1483f <main+0x39f>
   148bd:	8b 05 8d 73 00 00    	mov    0x738d(%rip),%eax        # 1bc50 <g_248>
   148c3:	48 98                	cltq   
   148c5:	8b 55 fc             	mov    -0x4(%rbp),%edx
   148c8:	48 8d 35 2e 3a 00 00 	lea    0x3a2e(%rip),%rsi        # 182fd <g_1889+0x1b0d>
   148cf:	48 89 c7             	mov    %rax,%rdi
   148d2:	e8 1c 5e ff ff       	callq  a6f3 <transparent_crc>
   148d7:	48 8b 05 7a 73 00 00 	mov    0x737a(%rip),%rax        # 1bc58 <g_252>
   148de:	8b 55 fc             	mov    -0x4(%rbp),%edx
   148e1:	48 8d 35 1b 3a 00 00 	lea    0x3a1b(%rip),%rsi        # 18303 <g_1889+0x1b13>
   148e8:	48 89 c7             	mov    %rax,%rdi
   148eb:	e8 03 5e ff ff       	callq  a6f3 <transparent_crc>
   148f0:	8b 05 6a 73 00 00    	mov    0x736a(%rip),%eax        # 1bc60 <g_280>
   148f6:	89 c1                	mov    %eax,%ecx
   148f8:	8b 45 fc             	mov    -0x4(%rbp),%eax
   148fb:	89 c2                	mov    %eax,%edx
   148fd:	48 8d 35 05 3a 00 00 	lea    0x3a05(%rip),%rsi        # 18309 <g_1889+0x1b19>
   14904:	48 89 cf             	mov    %rcx,%rdi
   14907:	e8 e7 5d ff ff       	callq  a6f3 <transparent_crc>
   1490c:	0f b7 05 51 73 00 00 	movzwl 0x7351(%rip),%eax        # 1bc64 <g_280+0x4>
   14913:	0f b7 c0             	movzwl %ax,%eax
   14916:	8b 55 fc             	mov    -0x4(%rbp),%edx
   14919:	48 8d 35 f2 39 00 00 	lea    0x39f2(%rip),%rsi        # 18312 <g_1889+0x1b22>
   14920:	48 89 c7             	mov    %rax,%rdi
   14923:	e8 cb 5d ff ff       	callq  a6f3 <transparent_crc>
   14928:	0f b6 05 37 73 00 00 	movzbl 0x7337(%rip),%eax        # 1bc66 <g_280+0x6>
   1492f:	0f b6 c0             	movzbl %al,%eax
   14932:	8b 55 fc             	mov    -0x4(%rbp),%edx
   14935:	48 8d 35 df 39 00 00 	lea    0x39df(%rip),%rsi        # 1831b <g_1889+0x1b2b>
   1493c:	48 89 c7             	mov    %rax,%rdi
   1493f:	e8 af 5d ff ff       	callq  a6f3 <transparent_crc>
   14944:	8b 05 1d 73 00 00    	mov    0x731d(%rip),%eax        # 1bc67 <g_280+0x7>
   1494a:	89 c1                	mov    %eax,%ecx
   1494c:	8b 45 fc             	mov    -0x4(%rbp),%eax
   1494f:	89 c2                	mov    %eax,%edx
   14951:	48 8d 35 cc 39 00 00 	lea    0x39cc(%rip),%rsi        # 18324 <g_1889+0x1b34>
   14958:	48 89 cf             	mov    %rcx,%rdi
   1495b:	e8 93 5d ff ff       	callq  a6f3 <transparent_crc>
   14960:	48 8b 05 04 73 00 00 	mov    0x7304(%rip),%rax        # 1bc6b <g_280+0xb>
   14967:	48 89 c1             	mov    %rax,%rcx
   1496a:	8b 45 fc             	mov    -0x4(%rbp),%eax
   1496d:	89 c2                	mov    %eax,%edx
   1496f:	48 8d 35 b7 39 00 00 	lea    0x39b7(%rip),%rsi        # 1832d <g_1889+0x1b3d>
   14976:	48 89 cf             	mov    %rcx,%rdi
   14979:	e8 75 5d ff ff       	callq  a6f3 <transparent_crc>
   1497e:	48 8b 05 f3 72 00 00 	mov    0x72f3(%rip),%rax        # 1bc78 <g_284>
   14985:	8b 55 fc             	mov    -0x4(%rbp),%edx
   14988:	48 8d 35 a7 39 00 00 	lea    0x39a7(%rip),%rsi        # 18336 <g_1889+0x1b46>
   1498f:	48 89 c7             	mov    %rax,%rdi
   14992:	e8 5c 5d ff ff       	callq  a6f3 <transparent_crc>
   14997:	0f b7 05 e2 72 00 00 	movzwl 0x72e2(%rip),%eax        # 1bc80 <g_313>
   1499e:	48 0f bf c0          	movswq %ax,%rax
   149a2:	8b 55 fc             	mov    -0x4(%rbp),%edx
   149a5:	48 8d 35 93 39 00 00 	lea    0x3993(%rip),%rsi        # 1833f <g_1889+0x1b4f>
   149ac:	48 89 c7             	mov    %rax,%rdi
   149af:	e8 3f 5d ff ff       	callq  a6f3 <transparent_crc>
   149b4:	8b 05 72 ba 00 00    	mov    0xba72(%rip),%eax        # 2042c <g_327>
   149ba:	89 c1                	mov    %eax,%ecx
   149bc:	8b 45 fc             	mov    -0x4(%rbp),%eax
   149bf:	89 c2                	mov    %eax,%edx
   149c1:	48 8d 35 7d 39 00 00 	lea    0x397d(%rip),%rsi        # 18345 <g_1889+0x1b55>
   149c8:	48 89 cf             	mov    %rcx,%rdi
   149cb:	e8 23 5d ff ff       	callq  a6f3 <transparent_crc>
   149d0:	0f b6 05 ab 72 00 00 	movzbl 0x72ab(%rip),%eax        # 1bc82 <g_337>
   149d7:	48 0f be c0          	movsbq %al,%rax
   149db:	8b 55 fc             	mov    -0x4(%rbp),%edx
   149de:	48 8d 35 66 39 00 00 	lea    0x3966(%rip),%rsi        # 1834b <g_1889+0x1b5b>
   149e5:	48 89 c7             	mov    %rax,%rdi
   149e8:	e8 06 5d ff ff       	callq  a6f3 <transparent_crc>
   149ed:	8b 05 9d 72 00 00    	mov    0x729d(%rip),%eax        # 1bc90 <g_369>
   149f3:	89 c1                	mov    %eax,%ecx
   149f5:	8b 45 fc             	mov    -0x4(%rbp),%eax
   149f8:	89 c2                	mov    %eax,%edx
   149fa:	48 8d 35 50 39 00 00 	lea    0x3950(%rip),%rsi        # 18351 <g_1889+0x1b61>
   14a01:	48 89 cf             	mov    %rcx,%rdi
   14a04:	e8 ea 5c ff ff       	callq  a6f3 <transparent_crc>
   14a09:	0f b7 05 84 72 00 00 	movzwl 0x7284(%rip),%eax        # 1bc94 <g_369+0x4>
   14a10:	0f b7 c0             	movzwl %ax,%eax
   14a13:	8b 55 fc             	mov    -0x4(%rbp),%edx
   14a16:	48 8d 35 3d 39 00 00 	lea    0x393d(%rip),%rsi        # 1835a <g_1889+0x1b6a>
   14a1d:	48 89 c7             	mov    %rax,%rdi
   14a20:	e8 ce 5c ff ff       	callq  a6f3 <transparent_crc>
   14a25:	0f b6 05 6a 72 00 00 	movzbl 0x726a(%rip),%eax        # 1bc96 <g_369+0x6>
   14a2c:	0f b6 c0             	movzbl %al,%eax
   14a2f:	8b 55 fc             	mov    -0x4(%rbp),%edx
   14a32:	48 8d 35 2a 39 00 00 	lea    0x392a(%rip),%rsi        # 18363 <g_1889+0x1b73>
   14a39:	48 89 c7             	mov    %rax,%rdi
   14a3c:	e8 b2 5c ff ff       	callq  a6f3 <transparent_crc>
   14a41:	8b 05 50 72 00 00    	mov    0x7250(%rip),%eax        # 1bc97 <g_369+0x7>
   14a47:	89 c1                	mov    %eax,%ecx
   14a49:	8b 45 fc             	mov    -0x4(%rbp),%eax
   14a4c:	89 c2                	mov    %eax,%edx
   14a4e:	48 8d 35 17 39 00 00 	lea    0x3917(%rip),%rsi        # 1836c <g_1889+0x1b7c>
   14a55:	48 89 cf             	mov    %rcx,%rdi
   14a58:	e8 96 5c ff ff       	callq  a6f3 <transparent_crc>
   14a5d:	48 8b 05 37 72 00 00 	mov    0x7237(%rip),%rax        # 1bc9b <g_369+0xb>
   14a64:	48 89 c1             	mov    %rax,%rcx
   14a67:	8b 45 fc             	mov    -0x4(%rbp),%eax
   14a6a:	89 c2                	mov    %eax,%edx
   14a6c:	48 8d 35 02 39 00 00 	lea    0x3902(%rip),%rsi        # 18375 <g_1889+0x1b85>
   14a73:	48 89 cf             	mov    %rcx,%rdi
   14a76:	e8 78 5c ff ff       	callq  a6f3 <transparent_crc>
   14a7b:	48 8b 05 26 72 00 00 	mov    0x7226(%rip),%rax        # 1bca8 <g_386>
   14a82:	48 89 c1             	mov    %rax,%rcx
   14a85:	8b 45 fc             	mov    -0x4(%rbp),%eax
   14a88:	89 c2                	mov    %eax,%edx
   14a8a:	48 8d 35 ed 38 00 00 	lea    0x38ed(%rip),%rsi        # 1837e <g_1889+0x1b8e>
   14a91:	48 89 cf             	mov    %rcx,%rdi
   14a94:	e8 5a 5c ff ff       	callq  a6f3 <transparent_crc>
   14a99:	c7 45 f0 00 00 00 00 	movl   $0x0,-0x10(%rbp)
   14aa0:	eb 45                	jmp    14ae7 <main+0x647>
   14aa2:	8b 45 f0             	mov    -0x10(%rbp),%eax
   14aa5:	48 98                	cltq   
   14aa7:	48 8d 15 02 72 00 00 	lea    0x7202(%rip),%rdx        # 1bcb0 <g_389>
   14aae:	0f b6 04 10          	movzbl (%rax,%rdx,1),%eax
   14ab2:	0f b6 c0             	movzbl %al,%eax
   14ab5:	8b 55 fc             	mov    -0x4(%rbp),%edx
   14ab8:	48 8d 35 c5 38 00 00 	lea    0x38c5(%rip),%rsi        # 18384 <g_1889+0x1b94>
   14abf:	48 89 c7             	mov    %rax,%rdi
   14ac2:	e8 2c 5c ff ff       	callq  a6f3 <transparent_crc>
   14ac7:	83 7d fc 00          	cmpl   $0x0,-0x4(%rbp)
   14acb:	74 16                	je     14ae3 <main+0x643>
   14acd:	8b 45 f0             	mov    -0x10(%rbp),%eax
   14ad0:	89 c6                	mov    %eax,%esi
   14ad2:	48 8d 3d 9d 37 00 00 	lea    0x379d(%rip),%rdi        # 18276 <g_1889+0x1a86>
   14ad9:	b8 00 00 00 00       	mov    $0x0,%eax
   14ade:	e8 9d 45 ff ff       	callq  9080 <printf@plt>
   14ae3:	83 45 f0 01          	addl   $0x1,-0x10(%rbp)
   14ae7:	83 7d f0 07          	cmpl   $0x7,-0x10(%rbp)
   14aeb:	7e b5                	jle    14aa2 <main+0x602>
   14aed:	8b 05 cd 71 00 00    	mov    0x71cd(%rip),%eax        # 1bcc0 <g_408>
   14af3:	89 c1                	mov    %eax,%ecx
   14af5:	8b 45 fc             	mov    -0x4(%rbp),%eax
   14af8:	89 c2                	mov    %eax,%edx
   14afa:	48 8d 35 8c 38 00 00 	lea    0x388c(%rip),%rsi        # 1838d <g_1889+0x1b9d>
   14b01:	48 89 cf             	mov    %rcx,%rdi
   14b04:	e8 ea 5b ff ff       	callq  a6f3 <transparent_crc>
   14b09:	0f b7 05 b4 71 00 00 	movzwl 0x71b4(%rip),%eax        # 1bcc4 <g_408+0x4>
   14b10:	0f b7 c0             	movzwl %ax,%eax
   14b13:	8b 55 fc             	mov    -0x4(%rbp),%edx
   14b16:	48 8d 35 79 38 00 00 	lea    0x3879(%rip),%rsi        # 18396 <g_1889+0x1ba6>
   14b1d:	48 89 c7             	mov    %rax,%rdi
   14b20:	e8 ce 5b ff ff       	callq  a6f3 <transparent_crc>
   14b25:	0f b6 05 9a 71 00 00 	movzbl 0x719a(%rip),%eax        # 1bcc6 <g_408+0x6>
   14b2c:	0f b6 c0             	movzbl %al,%eax
   14b2f:	8b 55 fc             	mov    -0x4(%rbp),%edx
   14b32:	48 8d 35 66 38 00 00 	lea    0x3866(%rip),%rsi        # 1839f <g_1889+0x1baf>
   14b39:	48 89 c7             	mov    %rax,%rdi
   14b3c:	e8 b2 5b ff ff       	callq  a6f3 <transparent_crc>
   14b41:	8b 05 80 71 00 00    	mov    0x7180(%rip),%eax        # 1bcc7 <g_408+0x7>
   14b47:	89 c1                	mov    %eax,%ecx
   14b49:	8b 45 fc             	mov    -0x4(%rbp),%eax
   14b4c:	89 c2                	mov    %eax,%edx
   14b4e:	48 8d 35 53 38 00 00 	lea    0x3853(%rip),%rsi        # 183a8 <g_1889+0x1bb8>
   14b55:	48 89 cf             	mov    %rcx,%rdi
   14b58:	e8 96 5b ff ff       	callq  a6f3 <transparent_crc>
   14b5d:	48 8b 05 67 71 00 00 	mov    0x7167(%rip),%rax        # 1bccb <g_408+0xb>
   14b64:	48 89 c1             	mov    %rax,%rcx
   14b67:	8b 45 fc             	mov    -0x4(%rbp),%eax
   14b6a:	89 c2                	mov    %eax,%edx
   14b6c:	48 8d 35 3e 38 00 00 	lea    0x383e(%rip),%rsi        # 183b1 <g_1889+0x1bc1>
   14b73:	48 89 cf             	mov    %rcx,%rdi
   14b76:	e8 78 5b ff ff       	callq  a6f3 <transparent_crc>
   14b7b:	0f b7 05 52 71 00 00 	movzwl 0x7152(%rip),%eax        # 1bcd4 <g_464>
   14b82:	48 0f bf c0          	movswq %ax,%rax
   14b86:	8b 55 fc             	mov    -0x4(%rbp),%edx
   14b89:	48 8d 35 2a 38 00 00 	lea    0x382a(%rip),%rsi        # 183ba <g_1889+0x1bca>
   14b90:	48 89 c7             	mov    %rax,%rdi
   14b93:	e8 5b 5b ff ff       	callq  a6f3 <transparent_crc>
   14b98:	48 8b 05 39 71 00 00 	mov    0x7139(%rip),%rax        # 1bcd8 <g_468>
   14b9f:	8b 55 fc             	mov    -0x4(%rbp),%edx
   14ba2:	48 8d 35 17 38 00 00 	lea    0x3817(%rip),%rsi        # 183c0 <g_1889+0x1bd0>
   14ba9:	48 89 c7             	mov    %rax,%rdi
   14bac:	e8 42 5b ff ff       	callq  a6f3 <transparent_crc>
   14bb1:	c7 45 f0 00 00 00 00 	movl   $0x0,-0x10(%rbp)
   14bb8:	eb 4a                	jmp    14c04 <main+0x764>
   14bba:	8b 45 f0             	mov    -0x10(%rbp),%eax
   14bbd:	48 98                	cltq   
   14bbf:	48 8d 14 c5 00 00 00 	lea    0x0(,%rax,8),%rdx
   14bc6:	00 
   14bc7:	48 8d 05 12 71 00 00 	lea    0x7112(%rip),%rax        # 1bce0 <g_525>
   14bce:	48 8b 04 02          	mov    (%rdx,%rax,1),%rax
   14bd2:	8b 55 fc             	mov    -0x4(%rbp),%edx
   14bd5:	48 8d 35 ed 37 00 00 	lea    0x37ed(%rip),%rsi        # 183c9 <g_1889+0x1bd9>
   14bdc:	48 89 c7             	mov    %rax,%rdi
   14bdf:	e8 0f 5b ff ff       	callq  a6f3 <transparent_crc>
   14be4:	83 7d fc 00          	cmpl   $0x0,-0x4(%rbp)
   14be8:	74 16                	je     14c00 <main+0x760>
   14bea:	8b 45 f0             	mov    -0x10(%rbp),%eax
   14bed:	89 c6                	mov    %eax,%esi
   14bef:	48 8d 3d 80 36 00 00 	lea    0x3680(%rip),%rdi        # 18276 <g_1889+0x1a86>
   14bf6:	b8 00 00 00 00       	mov    $0x0,%eax
   14bfb:	e8 80 44 ff ff       	callq  9080 <printf@plt>
   14c00:	83 45 f0 01          	addl   $0x1,-0x10(%rbp)
   14c04:	83 7d f0 07          	cmpl   $0x7,-0x10(%rbp)
   14c08:	7e b0                	jle    14bba <main+0x71a>
   14c0a:	0f b6 05 2f b8 00 00 	movzbl 0xb82f(%rip),%eax        # 20440 <g_550>
   14c11:	48 0f be c0          	movsbq %al,%rax
   14c15:	8b 55 fc             	mov    -0x4(%rbp),%edx
   14c18:	48 8d 35 b6 37 00 00 	lea    0x37b6(%rip),%rsi        # 183d5 <g_1889+0x1be5>
   14c1f:	48 89 c7             	mov    %rax,%rdi
   14c22:	e8 cc 5a ff ff       	callq  a6f3 <transparent_crc>
   14c27:	c7 45 f0 00 00 00 00 	movl   $0x0,-0x10(%rbp)
   14c2e:	e9 9d 00 00 00       	jmpq   14cd0 <main+0x830>
   14c33:	c7 45 f4 00 00 00 00 	movl   $0x0,-0xc(%rbp)
   14c3a:	e9 83 00 00 00       	jmpq   14cc2 <main+0x822>
   14c3f:	c7 45 f8 00 00 00 00 	movl   $0x0,-0x8(%rbp)
   14c46:	eb 70                	jmp    14cb8 <main+0x818>
   14c48:	8b 45 f8             	mov    -0x8(%rbp),%eax
   14c4b:	48 63 c8             	movslq %eax,%rcx
   14c4e:	8b 45 f0             	mov    -0x10(%rbp),%eax
   14c51:	48 63 d0             	movslq %eax,%rdx
   14c54:	8b 45 f4             	mov    -0xc(%rbp),%eax
   14c57:	48 63 f0             	movslq %eax,%rsi
   14c5a:	48 89 d0             	mov    %rdx,%rax
   14c5d:	48 c1 e0 02          	shl    $0x2,%rax
   14c61:	48 01 d0             	add    %rdx,%rax
   14c64:	48 01 f0             	add    %rsi,%rax
   14c67:	48 c1 e0 02          	shl    $0x2,%rax
   14c6b:	48 01 c8             	add    %rcx,%rax
   14c6e:	48 8d 14 00          	lea    (%rax,%rax,1),%rdx
   14c72:	48 8d 05 e7 13 00 00 	lea    0x13e7(%rip),%rax        # 16060 <g_553>
   14c79:	0f b7 04 02          	movzwl (%rdx,%rax,1),%eax
   14c7d:	0f b7 c0             	movzwl %ax,%eax
   14c80:	8b 55 fc             	mov    -0x4(%rbp),%edx
   14c83:	48 8d 35 51 37 00 00 	lea    0x3751(%rip),%rsi        # 183db <g_1889+0x1beb>
   14c8a:	48 89 c7             	mov    %rax,%rdi
   14c8d:	e8 61 5a ff ff       	callq  a6f3 <transparent_crc>
   14c92:	83 7d fc 00          	cmpl   $0x0,-0x4(%rbp)
   14c96:	74 1c                	je     14cb4 <main+0x814>
   14c98:	8b 4d f8             	mov    -0x8(%rbp),%ecx
   14c9b:	8b 55 f4             	mov    -0xc(%rbp),%edx
   14c9e:	8b 45 f0             	mov    -0x10(%rbp),%eax
   14ca1:	89 c6                	mov    %eax,%esi
   14ca3:	48 8d 3d a9 35 00 00 	lea    0x35a9(%rip),%rdi        # 18253 <g_1889+0x1a63>
   14caa:	b8 00 00 00 00       	mov    $0x0,%eax
   14caf:	e8 cc 43 ff ff       	callq  9080 <printf@plt>
   14cb4:	83 45 f8 01          	addl   $0x1,-0x8(%rbp)
   14cb8:	83 7d f8 03          	cmpl   $0x3,-0x8(%rbp)
   14cbc:	7e 8a                	jle    14c48 <main+0x7a8>
   14cbe:	83 45 f4 01          	addl   $0x1,-0xc(%rbp)
   14cc2:	83 7d f4 04          	cmpl   $0x4,-0xc(%rbp)
   14cc6:	0f 8e 73 ff ff ff    	jle    14c3f <main+0x79f>
   14ccc:	83 45 f0 01          	addl   $0x1,-0x10(%rbp)
   14cd0:	83 7d f0 05          	cmpl   $0x5,-0x10(%rbp)
   14cd4:	0f 8e 59 ff ff ff    	jle    14c33 <main+0x793>
   14cda:	0f b7 05 3f 70 00 00 	movzwl 0x703f(%rip),%eax        # 1bd20 <g_561>
   14ce1:	0f b7 c0             	movzwl %ax,%eax
   14ce4:	8b 55 fc             	mov    -0x4(%rbp),%edx
   14ce7:	48 8d 35 fc 36 00 00 	lea    0x36fc(%rip),%rsi        # 183ea <g_1889+0x1bfa>
   14cee:	48 89 c7             	mov    %rax,%rdi
   14cf1:	e8 fd 59 ff ff       	callq  a6f3 <transparent_crc>
   14cf6:	8b 05 34 70 00 00    	mov    0x7034(%rip),%eax        # 1bd30 <g_710>
   14cfc:	89 c1                	mov    %eax,%ecx
   14cfe:	8b 45 fc             	mov    -0x4(%rbp),%eax
   14d01:	89 c2                	mov    %eax,%edx
   14d03:	48 8d 35 e6 36 00 00 	lea    0x36e6(%rip),%rsi        # 183f0 <g_1889+0x1c00>
   14d0a:	48 89 cf             	mov    %rcx,%rdi
   14d0d:	e8 e1 59 ff ff       	callq  a6f3 <transparent_crc>
   14d12:	0f b7 05 1b 70 00 00 	movzwl 0x701b(%rip),%eax        # 1bd34 <g_710+0x4>
   14d19:	0f b7 c0             	movzwl %ax,%eax
   14d1c:	8b 55 fc             	mov    -0x4(%rbp),%edx
   14d1f:	48 8d 35 d3 36 00 00 	lea    0x36d3(%rip),%rsi        # 183f9 <g_1889+0x1c09>
   14d26:	48 89 c7             	mov    %rax,%rdi
   14d29:	e8 c5 59 ff ff       	callq  a6f3 <transparent_crc>
   14d2e:	0f b6 05 01 70 00 00 	movzbl 0x7001(%rip),%eax        # 1bd36 <g_710+0x6>
   14d35:	0f b6 c0             	movzbl %al,%eax
   14d38:	8b 55 fc             	mov    -0x4(%rbp),%edx
   14d3b:	48 8d 35 c0 36 00 00 	lea    0x36c0(%rip),%rsi        # 18402 <g_1889+0x1c12>
   14d42:	48 89 c7             	mov    %rax,%rdi
   14d45:	e8 a9 59 ff ff       	callq  a6f3 <transparent_crc>
   14d4a:	8b 05 e7 6f 00 00    	mov    0x6fe7(%rip),%eax        # 1bd37 <g_710+0x7>
   14d50:	89 c1                	mov    %eax,%ecx
   14d52:	8b 45 fc             	mov    -0x4(%rbp),%eax
   14d55:	89 c2                	mov    %eax,%edx
   14d57:	48 8d 35 ad 36 00 00 	lea    0x36ad(%rip),%rsi        # 1840b <g_1889+0x1c1b>
   14d5e:	48 89 cf             	mov    %rcx,%rdi
   14d61:	e8 8d 59 ff ff       	callq  a6f3 <transparent_crc>
   14d66:	48 8b 05 ce 6f 00 00 	mov    0x6fce(%rip),%rax        # 1bd3b <g_710+0xb>
   14d6d:	48 89 c1             	mov    %rax,%rcx
   14d70:	8b 45 fc             	mov    -0x4(%rbp),%eax
   14d73:	89 c2                	mov    %eax,%edx
   14d75:	48 8d 35 98 36 00 00 	lea    0x3698(%rip),%rsi        # 18414 <g_1889+0x1c24>
   14d7c:	48 89 cf             	mov    %rcx,%rdi
   14d7f:	e8 6f 59 ff ff       	callq  a6f3 <transparent_crc>
   14d84:	8b 05 c6 6f 00 00    	mov    0x6fc6(%rip),%eax        # 1bd50 <g_711>
   14d8a:	89 c1                	mov    %eax,%ecx
   14d8c:	8b 45 fc             	mov    -0x4(%rbp),%eax
   14d8f:	89 c2                	mov    %eax,%edx
   14d91:	48 8d 35 85 36 00 00 	lea    0x3685(%rip),%rsi        # 1841d <g_1889+0x1c2d>
   14d98:	48 89 cf             	mov    %rcx,%rdi
   14d9b:	e8 53 59 ff ff       	callq  a6f3 <transparent_crc>
   14da0:	0f b7 05 ad 6f 00 00 	movzwl 0x6fad(%rip),%eax        # 1bd54 <g_711+0x4>
   14da7:	0f b7 c0             	movzwl %ax,%eax
   14daa:	8b 55 fc             	mov    -0x4(%rbp),%edx
   14dad:	48 8d 35 72 36 00 00 	lea    0x3672(%rip),%rsi        # 18426 <g_1889+0x1c36>
   14db4:	48 89 c7             	mov    %rax,%rdi
   14db7:	e8 37 59 ff ff       	callq  a6f3 <transparent_crc>
   14dbc:	0f b6 05 93 6f 00 00 	movzbl 0x6f93(%rip),%eax        # 1bd56 <g_711+0x6>
   14dc3:	0f b6 c0             	movzbl %al,%eax
   14dc6:	8b 55 fc             	mov    -0x4(%rbp),%edx
   14dc9:	48 8d 35 5f 36 00 00 	lea    0x365f(%rip),%rsi        # 1842f <g_1889+0x1c3f>
   14dd0:	48 89 c7             	mov    %rax,%rdi
   14dd3:	e8 1b 59 ff ff       	callq  a6f3 <transparent_crc>
   14dd8:	8b 05 79 6f 00 00    	mov    0x6f79(%rip),%eax        # 1bd57 <g_711+0x7>
   14dde:	89 c1                	mov    %eax,%ecx
   14de0:	8b 45 fc             	mov    -0x4(%rbp),%eax
   14de3:	89 c2                	mov    %eax,%edx
   14de5:	48 8d 35 4c 36 00 00 	lea    0x364c(%rip),%rsi        # 18438 <g_1889+0x1c48>
   14dec:	48 89 cf             	mov    %rcx,%rdi
   14def:	e8 ff 58 ff ff       	callq  a6f3 <transparent_crc>
   14df4:	48 8b 05 60 6f 00 00 	mov    0x6f60(%rip),%rax        # 1bd5b <g_711+0xb>
   14dfb:	48 89 c1             	mov    %rax,%rcx
   14dfe:	8b 45 fc             	mov    -0x4(%rbp),%eax
   14e01:	89 c2                	mov    %eax,%edx
   14e03:	48 8d 35 37 36 00 00 	lea    0x3637(%rip),%rsi        # 18441 <g_1889+0x1c51>
   14e0a:	48 89 cf             	mov    %rcx,%rdi
   14e0d:	e8 e1 58 ff ff       	callq  a6f3 <transparent_crc>
   14e12:	8b 05 58 6f 00 00    	mov    0x6f58(%rip),%eax        # 1bd70 <g_744>
   14e18:	89 c1                	mov    %eax,%ecx
   14e1a:	8b 45 fc             	mov    -0x4(%rbp),%eax
   14e1d:	89 c2                	mov    %eax,%edx
   14e1f:	48 8d 35 24 36 00 00 	lea    0x3624(%rip),%rsi        # 1844a <g_1889+0x1c5a>
   14e26:	48 89 cf             	mov    %rcx,%rdi
   14e29:	e8 c5 58 ff ff       	callq  a6f3 <transparent_crc>
   14e2e:	0f b7 05 3f 6f 00 00 	movzwl 0x6f3f(%rip),%eax        # 1bd74 <g_744+0x4>
   14e35:	0f b7 c0             	movzwl %ax,%eax
   14e38:	8b 55 fc             	mov    -0x4(%rbp),%edx
   14e3b:	48 8d 35 11 36 00 00 	lea    0x3611(%rip),%rsi        # 18453 <g_1889+0x1c63>
   14e42:	48 89 c7             	mov    %rax,%rdi
   14e45:	e8 a9 58 ff ff       	callq  a6f3 <transparent_crc>
   14e4a:	0f b6 05 25 6f 00 00 	movzbl 0x6f25(%rip),%eax        # 1bd76 <g_744+0x6>
   14e51:	0f b6 c0             	movzbl %al,%eax
   14e54:	8b 55 fc             	mov    -0x4(%rbp),%edx
   14e57:	48 8d 35 fe 35 00 00 	lea    0x35fe(%rip),%rsi        # 1845c <g_1889+0x1c6c>
   14e5e:	48 89 c7             	mov    %rax,%rdi
   14e61:	e8 8d 58 ff ff       	callq  a6f3 <transparent_crc>
   14e66:	8b 05 0b 6f 00 00    	mov    0x6f0b(%rip),%eax        # 1bd77 <g_744+0x7>
   14e6c:	89 c1                	mov    %eax,%ecx
   14e6e:	8b 45 fc             	mov    -0x4(%rbp),%eax
   14e71:	89 c2                	mov    %eax,%edx
   14e73:	48 8d 35 eb 35 00 00 	lea    0x35eb(%rip),%rsi        # 18465 <g_1889+0x1c75>
   14e7a:	48 89 cf             	mov    %rcx,%rdi
   14e7d:	e8 71 58 ff ff       	callq  a6f3 <transparent_crc>
   14e82:	48 8b 05 f2 6e 00 00 	mov    0x6ef2(%rip),%rax        # 1bd7b <g_744+0xb>
   14e89:	48 89 c1             	mov    %rax,%rcx
   14e8c:	8b 45 fc             	mov    -0x4(%rbp),%eax
   14e8f:	89 c2                	mov    %eax,%edx
   14e91:	48 8d 35 d6 35 00 00 	lea    0x35d6(%rip),%rsi        # 1846e <g_1889+0x1c7e>
   14e98:	48 89 cf             	mov    %rcx,%rdi
   14e9b:	e8 53 58 ff ff       	callq  a6f3 <transparent_crc>
   14ea0:	8b 05 ea 6e 00 00    	mov    0x6eea(%rip),%eax        # 1bd90 <g_748>
   14ea6:	89 c1                	mov    %eax,%ecx
   14ea8:	8b 45 fc             	mov    -0x4(%rbp),%eax
   14eab:	89 c2                	mov    %eax,%edx
   14ead:	48 8d 35 c3 35 00 00 	lea    0x35c3(%rip),%rsi        # 18477 <g_1889+0x1c87>
   14eb4:	48 89 cf             	mov    %rcx,%rdi
   14eb7:	e8 37 58 ff ff       	callq  a6f3 <transparent_crc>
   14ebc:	0f b7 05 d1 6e 00 00 	movzwl 0x6ed1(%rip),%eax        # 1bd94 <g_748+0x4>
   14ec3:	0f b7 c0             	movzwl %ax,%eax
   14ec6:	8b 55 fc             	mov    -0x4(%rbp),%edx
   14ec9:	48 8d 35 b0 35 00 00 	lea    0x35b0(%rip),%rsi        # 18480 <g_1889+0x1c90>
   14ed0:	48 89 c7             	mov    %rax,%rdi
   14ed3:	e8 1b 58 ff ff       	callq  a6f3 <transparent_crc>
   14ed8:	0f b6 05 b7 6e 00 00 	movzbl 0x6eb7(%rip),%eax        # 1bd96 <g_748+0x6>
   14edf:	0f b6 c0             	movzbl %al,%eax
   14ee2:	8b 55 fc             	mov    -0x4(%rbp),%edx
   14ee5:	48 8d 35 9d 35 00 00 	lea    0x359d(%rip),%rsi        # 18489 <g_1889+0x1c99>
   14eec:	48 89 c7             	mov    %rax,%rdi
   14eef:	e8 ff 57 ff ff       	callq  a6f3 <transparent_crc>
   14ef4:	8b 05 9d 6e 00 00    	mov    0x6e9d(%rip),%eax        # 1bd97 <g_748+0x7>
   14efa:	89 c1                	mov    %eax,%ecx
   14efc:	8b 45 fc             	mov    -0x4(%rbp),%eax
   14eff:	89 c2                	mov    %eax,%edx
   14f01:	48 8d 35 8a 35 00 00 	lea    0x358a(%rip),%rsi        # 18492 <g_1889+0x1ca2>
   14f08:	48 89 cf             	mov    %rcx,%rdi
   14f0b:	e8 e3 57 ff ff       	callq  a6f3 <transparent_crc>
   14f10:	48 8b 05 84 6e 00 00 	mov    0x6e84(%rip),%rax        # 1bd9b <g_748+0xb>
   14f17:	48 89 c1             	mov    %rax,%rcx
   14f1a:	8b 45 fc             	mov    -0x4(%rbp),%eax
   14f1d:	89 c2                	mov    %eax,%edx
   14f1f:	48 8d 35 75 35 00 00 	lea    0x3575(%rip),%rsi        # 1849b <g_1889+0x1cab>
   14f26:	48 89 cf             	mov    %rcx,%rdi
   14f29:	e8 c5 57 ff ff       	callq  a6f3 <transparent_crc>
   14f2e:	48 8b 05 73 6e 00 00 	mov    0x6e73(%rip),%rax        # 1bda8 <g_754>
   14f35:	8b 55 fc             	mov    -0x4(%rbp),%edx
   14f38:	48 8d 35 65 35 00 00 	lea    0x3565(%rip),%rsi        # 184a4 <g_1889+0x1cb4>
   14f3f:	48 89 c7             	mov    %rax,%rdi
   14f42:	e8 ac 57 ff ff       	callq  a6f3 <transparent_crc>
   14f47:	0f b7 05 62 6e 00 00 	movzwl 0x6e62(%rip),%eax        # 1bdb0 <g_770>
   14f4e:	48 0f bf c0          	movswq %ax,%rax
   14f52:	8b 55 fc             	mov    -0x4(%rbp),%edx
   14f55:	48 8d 35 51 35 00 00 	lea    0x3551(%rip),%rsi        # 184ad <g_1889+0x1cbd>
   14f5c:	48 89 c7             	mov    %rax,%rdi
   14f5f:	e8 8f 57 ff ff       	callq  a6f3 <transparent_crc>
   14f64:	b8 05 00 00 00       	mov    $0x5,%eax
   14f69:	48 0f be c0          	movsbq %al,%rax
   14f6d:	8b 55 fc             	mov    -0x4(%rbp),%edx
   14f70:	48 8d 35 3c 35 00 00 	lea    0x353c(%rip),%rsi        # 184b3 <g_1889+0x1cc3>
   14f77:	48 89 c7             	mov    %rax,%rdi
   14f7a:	e8 74 57 ff ff       	callq  a6f3 <transparent_crc>
   14f7f:	8b 05 2f 6e 00 00    	mov    0x6e2f(%rip),%eax        # 1bdb4 <g_870>
   14f85:	89 c1                	mov    %eax,%ecx
   14f87:	8b 45 fc             	mov    -0x4(%rbp),%eax
   14f8a:	89 c2                	mov    %eax,%edx
   14f8c:	48 8d 35 26 35 00 00 	lea    0x3526(%rip),%rsi        # 184b9 <g_1889+0x1cc9>
   14f93:	48 89 cf             	mov    %rcx,%rdi
   14f96:	e8 58 57 ff ff       	callq  a6f3 <transparent_crc>
   14f9b:	0f b6 05 16 6e 00 00 	movzbl 0x6e16(%rip),%eax        # 1bdb8 <g_871>
   14fa2:	0f b6 c0             	movzbl %al,%eax
   14fa5:	8b 55 fc             	mov    -0x4(%rbp),%edx
   14fa8:	48 8d 35 10 35 00 00 	lea    0x3510(%rip),%rsi        # 184bf <g_1889+0x1ccf>
   14faf:	48 89 c7             	mov    %rax,%rdi
   14fb2:	e8 3c 57 ff ff       	callq  a6f3 <transparent_crc>
   14fb7:	8b 05 03 6e 00 00    	mov    0x6e03(%rip),%eax        # 1bdc0 <g_896>
   14fbd:	89 c1                	mov    %eax,%ecx
   14fbf:	8b 45 fc             	mov    -0x4(%rbp),%eax
   14fc2:	89 c2                	mov    %eax,%edx
   14fc4:	48 8d 35 fa 34 00 00 	lea    0x34fa(%rip),%rsi        # 184c5 <g_1889+0x1cd5>
   14fcb:	48 89 cf             	mov    %rcx,%rdi
   14fce:	e8 20 57 ff ff       	callq  a6f3 <transparent_crc>
   14fd3:	0f b7 05 ea 6d 00 00 	movzwl 0x6dea(%rip),%eax        # 1bdc4 <g_896+0x4>
   14fda:	0f b7 c0             	movzwl %ax,%eax
   14fdd:	8b 55 fc             	mov    -0x4(%rbp),%edx
   14fe0:	48 8d 35 e7 34 00 00 	lea    0x34e7(%rip),%rsi        # 184ce <g_1889+0x1cde>
   14fe7:	48 89 c7             	mov    %rax,%rdi
   14fea:	e8 04 57 ff ff       	callq  a6f3 <transparent_crc>
   14fef:	0f b6 05 d0 6d 00 00 	movzbl 0x6dd0(%rip),%eax        # 1bdc6 <g_896+0x6>
   14ff6:	0f b6 c0             	movzbl %al,%eax
   14ff9:	8b 55 fc             	mov    -0x4(%rbp),%edx
   14ffc:	48 8d 35 d4 34 00 00 	lea    0x34d4(%rip),%rsi        # 184d7 <g_1889+0x1ce7>
   15003:	48 89 c7             	mov    %rax,%rdi
   15006:	e8 e8 56 ff ff       	callq  a6f3 <transparent_crc>
   1500b:	8b 05 b6 6d 00 00    	mov    0x6db6(%rip),%eax        # 1bdc7 <g_896+0x7>
   15011:	89 c1                	mov    %eax,%ecx
   15013:	8b 45 fc             	mov    -0x4(%rbp),%eax
   15016:	89 c2                	mov    %eax,%edx
   15018:	48 8d 35 c1 34 00 00 	lea    0x34c1(%rip),%rsi        # 184e0 <g_1889+0x1cf0>
   1501f:	48 89 cf             	mov    %rcx,%rdi
   15022:	e8 cc 56 ff ff       	callq  a6f3 <transparent_crc>
   15027:	48 8b 05 9d 6d 00 00 	mov    0x6d9d(%rip),%rax        # 1bdcb <g_896+0xb>
   1502e:	48 89 c1             	mov    %rax,%rcx
   15031:	8b 45 fc             	mov    -0x4(%rbp),%eax
   15034:	89 c2                	mov    %eax,%edx
   15036:	48 8d 35 ac 34 00 00 	lea    0x34ac(%rip),%rsi        # 184e9 <g_1889+0x1cf9>
   1503d:	48 89 cf             	mov    %rcx,%rdi
   15040:	e8 ae 56 ff ff       	callq  a6f3 <transparent_crc>
   15045:	8b 05 95 6d 00 00    	mov    0x6d95(%rip),%eax        # 1bde0 <g_900>
   1504b:	89 c1                	mov    %eax,%ecx
   1504d:	8b 45 fc             	mov    -0x4(%rbp),%eax
   15050:	89 c2                	mov    %eax,%edx
   15052:	48 8d 35 99 34 00 00 	lea    0x3499(%rip),%rsi        # 184f2 <g_1889+0x1d02>
   15059:	48 89 cf             	mov    %rcx,%rdi
   1505c:	e8 92 56 ff ff       	callq  a6f3 <transparent_crc>
   15061:	0f b7 05 7c 6d 00 00 	movzwl 0x6d7c(%rip),%eax        # 1bde4 <g_900+0x4>
   15068:	0f b7 c0             	movzwl %ax,%eax
   1506b:	8b 55 fc             	mov    -0x4(%rbp),%edx
   1506e:	48 8d 35 86 34 00 00 	lea    0x3486(%rip),%rsi        # 184fb <g_1889+0x1d0b>
   15075:	48 89 c7             	mov    %rax,%rdi
   15078:	e8 76 56 ff ff       	callq  a6f3 <transparent_crc>
   1507d:	0f b6 05 62 6d 00 00 	movzbl 0x6d62(%rip),%eax        # 1bde6 <g_900+0x6>
   15084:	0f b6 c0             	movzbl %al,%eax
   15087:	8b 55 fc             	mov    -0x4(%rbp),%edx
   1508a:	48 8d 35 73 34 00 00 	lea    0x3473(%rip),%rsi        # 18504 <g_1889+0x1d14>
   15091:	48 89 c7             	mov    %rax,%rdi
   15094:	e8 5a 56 ff ff       	callq  a6f3 <transparent_crc>
   15099:	8b 05 48 6d 00 00    	mov    0x6d48(%rip),%eax        # 1bde7 <g_900+0x7>
   1509f:	89 c1                	mov    %eax,%ecx
   150a1:	8b 45 fc             	mov    -0x4(%rbp),%eax
   150a4:	89 c2                	mov    %eax,%edx
   150a6:	48 8d 35 60 34 00 00 	lea    0x3460(%rip),%rsi        # 1850d <g_1889+0x1d1d>
   150ad:	48 89 cf             	mov    %rcx,%rdi
   150b0:	e8 3e 56 ff ff       	callq  a6f3 <transparent_crc>
   150b5:	48 8b 05 2f 6d 00 00 	mov    0x6d2f(%rip),%rax        # 1bdeb <g_900+0xb>
   150bc:	48 89 c1             	mov    %rax,%rcx
   150bf:	8b 45 fc             	mov    -0x4(%rbp),%eax
   150c2:	89 c2                	mov    %eax,%edx
   150c4:	48 8d 35 4b 34 00 00 	lea    0x344b(%rip),%rsi        # 18516 <g_1889+0x1d26>
   150cb:	48 89 cf             	mov    %rcx,%rdi
   150ce:	e8 20 56 ff ff       	callq  a6f3 <transparent_crc>
   150d3:	8b 05 1b 6d 00 00    	mov    0x6d1b(%rip),%eax        # 1bdf4 <g_910>
   150d9:	48 98                	cltq   
   150db:	8b 55 fc             	mov    -0x4(%rbp),%edx
   150de:	48 8d 35 3a 34 00 00 	lea    0x343a(%rip),%rsi        # 1851f <g_1889+0x1d2f>
   150e5:	48 89 c7             	mov    %rax,%rdi
   150e8:	e8 06 56 ff ff       	callq  a6f3 <transparent_crc>
   150ed:	8b 05 05 6d 00 00    	mov    0x6d05(%rip),%eax        # 1bdf8 <g_922>
   150f3:	48 98                	cltq   
   150f5:	8b 55 fc             	mov    -0x4(%rbp),%edx
   150f8:	48 8d 35 26 34 00 00 	lea    0x3426(%rip),%rsi        # 18525 <g_1889+0x1d35>
   150ff:	48 89 c7             	mov    %rax,%rdi
   15102:	e8 ec 55 ff ff       	callq  a6f3 <transparent_crc>
   15107:	c7 45 f0 00 00 00 00 	movl   $0x0,-0x10(%rbp)
   1510e:	eb 4a                	jmp    1515a <main+0xcba>
   15110:	8b 45 f0             	mov    -0x10(%rbp),%eax
   15113:	48 98                	cltq   
   15115:	48 8d 14 c5 00 00 00 	lea    0x0(,%rax,8),%rdx
   1511c:	00 
   1511d:	48 8d 05 dc 6c 00 00 	lea    0x6cdc(%rip),%rax        # 1be00 <g_928>
   15124:	48 8b 04 02          	mov    (%rdx,%rax,1),%rax
   15128:	8b 55 fc             	mov    -0x4(%rbp),%edx
   1512b:	48 8d 35 fc 33 00 00 	lea    0x33fc(%rip),%rsi        # 1852e <g_1889+0x1d3e>
   15132:	48 89 c7             	mov    %rax,%rdi
   15135:	e8 b9 55 ff ff       	callq  a6f3 <transparent_crc>
   1513a:	83 7d fc 00          	cmpl   $0x0,-0x4(%rbp)
   1513e:	74 16                	je     15156 <main+0xcb6>
   15140:	8b 45 f0             	mov    -0x10(%rbp),%eax
   15143:	89 c6                	mov    %eax,%esi
   15145:	48 8d 3d 2a 31 00 00 	lea    0x312a(%rip),%rdi        # 18276 <g_1889+0x1a86>
   1514c:	b8 00 00 00 00       	mov    $0x0,%eax
   15151:	e8 2a 3f ff ff       	callq  9080 <printf@plt>
   15156:	83 45 f0 01          	addl   $0x1,-0x10(%rbp)
   1515a:	83 7d f0 09          	cmpl   $0x9,-0x10(%rbp)
   1515e:	7e b0                	jle    15110 <main+0xc70>
   15160:	c7 45 f0 00 00 00 00 	movl   $0x0,-0x10(%rbp)
   15167:	e9 a5 00 00 00       	jmpq   15211 <main+0xd71>
   1516c:	c7 45 f4 00 00 00 00 	movl   $0x0,-0xc(%rbp)
   15173:	e9 8b 00 00 00       	jmpq   15203 <main+0xd63>
   15178:	c7 45 f8 00 00 00 00 	movl   $0x0,-0x8(%rbp)
   1517f:	eb 78                	jmp    151f9 <main+0xd59>
   15181:	8b 45 f8             	mov    -0x8(%rbp),%eax
   15184:	48 63 c8             	movslq %eax,%rcx
   15187:	8b 45 f0             	mov    -0x10(%rbp),%eax
   1518a:	48 63 d0             	movslq %eax,%rdx
   1518d:	8b 45 f4             	mov    -0xc(%rbp),%eax
   15190:	48 63 f0             	movslq %eax,%rsi
   15193:	48 89 d0             	mov    %rdx,%rax
   15196:	48 01 c0             	add    %rax,%rax
   15199:	48 01 d0             	add    %rdx,%rax
   1519c:	48 01 c0             	add    %rax,%rax
   1519f:	48 01 f0             	add    %rsi,%rax
   151a2:	48 c1 e0 03          	shl    $0x3,%rax
   151a6:	48 01 c8             	add    %rcx,%rax
   151a9:	48 8d 14 c5 00 00 00 	lea    0x0(,%rax,8),%rdx
   151b0:	00 
   151b1:	48 8d 05 a8 6c 00 00 	lea    0x6ca8(%rip),%rax        # 1be60 <g_948>
   151b8:	48 8b 04 02          	mov    (%rdx,%rax,1),%rax
   151bc:	48 89 c1             	mov    %rax,%rcx
   151bf:	8b 45 fc             	mov    -0x4(%rbp),%eax
   151c2:	89 c2                	mov    %eax,%edx
   151c4:	48 8d 35 6f 33 00 00 	lea    0x336f(%rip),%rsi        # 1853a <g_1889+0x1d4a>
   151cb:	48 89 cf             	mov    %rcx,%rdi
   151ce:	e8 20 55 ff ff       	callq  a6f3 <transparent_crc>
   151d3:	83 7d fc 00          	cmpl   $0x0,-0x4(%rbp)
   151d7:	74 1c                	je     151f5 <main+0xd55>
   151d9:	8b 4d f8             	mov    -0x8(%rbp),%ecx
   151dc:	8b 55 f4             	mov    -0xc(%rbp),%edx
   151df:	8b 45 f0             	mov    -0x10(%rbp),%eax
   151e2:	89 c6                	mov    %eax,%esi
   151e4:	48 8d 3d 68 30 00 00 	lea    0x3068(%rip),%rdi        # 18253 <g_1889+0x1a63>
   151eb:	b8 00 00 00 00       	mov    $0x0,%eax
   151f0:	e8 8b 3e ff ff       	callq  9080 <printf@plt>
   151f5:	83 45 f8 01          	addl   $0x1,-0x8(%rbp)
   151f9:	83 7d f8 07          	cmpl   $0x7,-0x8(%rbp)
   151fd:	7e 82                	jle    15181 <main+0xce1>
   151ff:	83 45 f4 01          	addl   $0x1,-0xc(%rbp)
   15203:	83 7d f4 05          	cmpl   $0x5,-0xc(%rbp)
   15207:	0f 8e 6b ff ff ff    	jle    15178 <main+0xcd8>
   1520d:	83 45 f0 01          	addl   $0x1,-0x10(%rbp)
   15211:	83 7d f0 04          	cmpl   $0x4,-0x10(%rbp)
   15215:	0f 8e 51 ff ff ff    	jle    1516c <main+0xccc>
   1521b:	c7 45 f0 00 00 00 00 	movl   $0x0,-0x10(%rbp)
   15222:	eb 78                	jmp    1529c <main+0xdfc>
   15224:	c7 45 f4 00 00 00 00 	movl   $0x0,-0xc(%rbp)
   1522b:	eb 65                	jmp    15292 <main+0xdf2>
   1522d:	8b 45 f4             	mov    -0xc(%rbp),%eax
   15230:	48 63 c8             	movslq %eax,%rcx
   15233:	8b 45 f0             	mov    -0x10(%rbp),%eax
   15236:	48 63 d0             	movslq %eax,%rdx
   15239:	48 89 d0             	mov    %rdx,%rax
   1523c:	48 01 c0             	add    %rax,%rax
   1523f:	48 01 d0             	add    %rdx,%rax
   15242:	48 01 c8             	add    %rcx,%rax
   15245:	48 8d 14 c5 00 00 00 	lea    0x0(,%rax,8),%rdx
   1524c:	00 
   1524d:	48 8d 05 8c 73 00 00 	lea    0x738c(%rip),%rax        # 1c5e0 <g_951>
   15254:	48 8b 04 02          	mov    (%rdx,%rax,1),%rax
   15258:	48 89 c1             	mov    %rax,%rcx
   1525b:	8b 45 fc             	mov    -0x4(%rbp),%eax
   1525e:	89 c2                	mov    %eax,%edx
   15260:	48 8d 35 e2 32 00 00 	lea    0x32e2(%rip),%rsi        # 18549 <g_1889+0x1d59>
   15267:	48 89 cf             	mov    %rcx,%rdi
   1526a:	e8 84 54 ff ff       	callq  a6f3 <transparent_crc>
   1526f:	83 7d fc 00          	cmpl   $0x0,-0x4(%rbp)
   15273:	74 19                	je     1528e <main+0xdee>
   15275:	8b 55 f4             	mov    -0xc(%rbp),%edx
   15278:	8b 45 f0             	mov    -0x10(%rbp),%eax
   1527b:	89 c6                	mov    %eax,%esi
   1527d:	48 8d 3d 1f 30 00 00 	lea    0x301f(%rip),%rdi        # 182a3 <g_1889+0x1ab3>
   15284:	b8 00 00 00 00       	mov    $0x0,%eax
   15289:	e8 f2 3d ff ff       	callq  9080 <printf@plt>
   1528e:	83 45 f4 01          	addl   $0x1,-0xc(%rbp)
   15292:	83 7d f4 02          	cmpl   $0x2,-0xc(%rbp)
   15296:	7e 95                	jle    1522d <main+0xd8d>
   15298:	83 45 f0 01          	addl   $0x1,-0x10(%rbp)
   1529c:	83 7d f0 07          	cmpl   $0x7,-0x10(%rbp)
   152a0:	7e 82                	jle    15224 <main+0xd84>
   152a2:	c7 45 f0 00 00 00 00 	movl   $0x0,-0x10(%rbp)
   152a9:	eb 4a                	jmp    152f5 <main+0xe55>
   152ab:	8b 45 f0             	mov    -0x10(%rbp),%eax
   152ae:	48 98                	cltq   
   152b0:	48 8d 14 c5 00 00 00 	lea    0x0(,%rax,8),%rdx
   152b7:	00 
   152b8:	48 8d 05 e1 73 00 00 	lea    0x73e1(%rip),%rax        # 1c6a0 <g_991>
   152bf:	48 8b 04 02          	mov    (%rdx,%rax,1),%rax
   152c3:	8b 55 fc             	mov    -0x4(%rbp),%edx
   152c6:	48 8d 35 88 32 00 00 	lea    0x3288(%rip),%rsi        # 18555 <g_1889+0x1d65>
   152cd:	48 89 c7             	mov    %rax,%rdi
   152d0:	e8 1e 54 ff ff       	callq  a6f3 <transparent_crc>
   152d5:	83 7d fc 00          	cmpl   $0x0,-0x4(%rbp)
   152d9:	74 16                	je     152f1 <main+0xe51>
   152db:	8b 45 f0             	mov    -0x10(%rbp),%eax
   152de:	89 c6                	mov    %eax,%esi
   152e0:	48 8d 3d 8f 2f 00 00 	lea    0x2f8f(%rip),%rdi        # 18276 <g_1889+0x1a86>
   152e7:	b8 00 00 00 00       	mov    $0x0,%eax
   152ec:	e8 8f 3d ff ff       	callq  9080 <printf@plt>
   152f1:	83 45 f0 01          	addl   $0x1,-0x10(%rbp)
   152f5:	83 7d f0 05          	cmpl   $0x5,-0x10(%rbp)
   152f9:	7e b0                	jle    152ab <main+0xe0b>
   152fb:	c7 45 f0 00 00 00 00 	movl   $0x0,-0x10(%rbp)
   15302:	eb 6d                	jmp    15371 <main+0xed1>
   15304:	c7 45 f4 00 00 00 00 	movl   $0x0,-0xc(%rbp)
   1530b:	eb 5a                	jmp    15367 <main+0xec7>
   1530d:	8b 45 f4             	mov    -0xc(%rbp),%eax
   15310:	48 98                	cltq   
   15312:	8b 55 f0             	mov    -0x10(%rbp),%edx
   15315:	48 63 d2             	movslq %edx,%rdx
   15318:	48 c1 e2 03          	shl    $0x3,%rdx
   1531c:	48 01 d0             	add    %rdx,%rax
   1531f:	48 8d 14 c5 00 00 00 	lea    0x0(,%rax,8),%rdx
   15326:	00 
   15327:	48 8d 05 b2 73 00 00 	lea    0x73b2(%rip),%rax        # 1c6e0 <g_1083>
   1532e:	48 8b 04 02          	mov    (%rdx,%rax,1),%rax
   15332:	8b 55 fc             	mov    -0x4(%rbp),%edx
   15335:	48 8d 35 25 32 00 00 	lea    0x3225(%rip),%rsi        # 18561 <g_1889+0x1d71>
   1533c:	48 89 c7             	mov    %rax,%rdi
   1533f:	e8 af 53 ff ff       	callq  a6f3 <transparent_crc>
   15344:	83 7d fc 00          	cmpl   $0x0,-0x4(%rbp)
   15348:	74 19                	je     15363 <main+0xec3>
   1534a:	8b 55 f4             	mov    -0xc(%rbp),%edx
   1534d:	8b 45 f0             	mov    -0x10(%rbp),%eax
   15350:	89 c6                	mov    %eax,%esi
   15352:	48 8d 3d 4a 2f 00 00 	lea    0x2f4a(%rip),%rdi        # 182a3 <g_1889+0x1ab3>
   15359:	b8 00 00 00 00       	mov    $0x0,%eax
   1535e:	e8 1d 3d ff ff       	callq  9080 <printf@plt>
   15363:	83 45 f4 01          	addl   $0x1,-0xc(%rbp)
   15367:	83 7d f4 07          	cmpl   $0x7,-0xc(%rbp)
   1536b:	7e a0                	jle    1530d <main+0xe6d>
   1536d:	83 45 f0 01          	addl   $0x1,-0x10(%rbp)
   15371:	83 7d f0 06          	cmpl   $0x6,-0x10(%rbp)
   15375:	7e 8d                	jle    15304 <main+0xe64>
   15377:	c7 45 f0 00 00 00 00 	movl   $0x0,-0x10(%rbp)
   1537e:	e9 32 01 00 00       	jmpq   154b5 <main+0x1015>
   15383:	8b 45 f0             	mov    -0x10(%rbp),%eax
   15386:	48 63 d0             	movslq %eax,%rdx
   15389:	48 89 d0             	mov    %rdx,%rax
   1538c:	48 c1 e0 03          	shl    $0x3,%rax
   15390:	48 01 d0             	add    %rdx,%rax
   15393:	48 01 c0             	add    %rax,%rax
   15396:	48 01 c2             	add    %rax,%rdx
   15399:	48 8d 05 00 75 00 00 	lea    0x7500(%rip),%rax        # 1c8a0 <g_1113>
   153a0:	8b 04 02             	mov    (%rdx,%rax,1),%eax
   153a3:	89 c1                	mov    %eax,%ecx
   153a5:	8b 45 fc             	mov    -0x4(%rbp),%eax
   153a8:	89 c2                	mov    %eax,%edx
   153aa:	48 8d 35 bd 31 00 00 	lea    0x31bd(%rip),%rsi        # 1856e <g_1889+0x1d7e>
   153b1:	48 89 cf             	mov    %rcx,%rdi
   153b4:	e8 3a 53 ff ff       	callq  a6f3 <transparent_crc>
   153b9:	8b 45 f0             	mov    -0x10(%rbp),%eax
   153bc:	48 63 d0             	movslq %eax,%rdx
   153bf:	48 89 d0             	mov    %rdx,%rax
   153c2:	48 c1 e0 03          	shl    $0x3,%rax
   153c6:	48 01 d0             	add    %rdx,%rax
   153c9:	48 01 c0             	add    %rax,%rax
   153cc:	48 01 c2             	add    %rax,%rdx
   153cf:	48 8d 05 ce 74 00 00 	lea    0x74ce(%rip),%rax        # 1c8a4 <g_1113+0x4>
   153d6:	0f b7 04 02          	movzwl (%rdx,%rax,1),%eax
   153da:	0f b7 c0             	movzwl %ax,%eax
   153dd:	8b 55 fc             	mov    -0x4(%rbp),%edx
   153e0:	48 8d 35 94 31 00 00 	lea    0x3194(%rip),%rsi        # 1857b <g_1889+0x1d8b>
   153e7:	48 89 c7             	mov    %rax,%rdi
   153ea:	e8 04 53 ff ff       	callq  a6f3 <transparent_crc>
   153ef:	8b 45 f0             	mov    -0x10(%rbp),%eax
   153f2:	48 63 d0             	movslq %eax,%rdx
   153f5:	48 89 d0             	mov    %rdx,%rax
   153f8:	48 c1 e0 03          	shl    $0x3,%rax
   153fc:	48 01 d0             	add    %rdx,%rax
   153ff:	48 01 c0             	add    %rax,%rax
   15402:	48 01 c2             	add    %rax,%rdx
   15405:	48 8d 05 9a 74 00 00 	lea    0x749a(%rip),%rax        # 1c8a6 <g_1113+0x6>
   1540c:	0f b6 04 02          	movzbl (%rdx,%rax,1),%eax
   15410:	0f b6 c0             	movzbl %al,%eax
   15413:	8b 55 fc             	mov    -0x4(%rbp),%edx
   15416:	48 8d 35 6b 31 00 00 	lea    0x316b(%rip),%rsi        # 18588 <g_1889+0x1d98>
   1541d:	48 89 c7             	mov    %rax,%rdi
   15420:	e8 ce 52 ff ff       	callq  a6f3 <transparent_crc>
   15425:	8b 45 f0             	mov    -0x10(%rbp),%eax
   15428:	48 63 d0             	movslq %eax,%rdx
   1542b:	48 89 d0             	mov    %rdx,%rax
   1542e:	48 c1 e0 03          	shl    $0x3,%rax
   15432:	48 01 d0             	add    %rdx,%rax
   15435:	48 01 c0             	add    %rax,%rax
   15438:	48 01 c2             	add    %rax,%rdx
   1543b:	48 8d 05 5e 74 00 00 	lea    0x745e(%rip),%rax        # 1c8a0 <g_1113>
   15442:	8b 44 02 07          	mov    0x7(%rdx,%rax,1),%eax
   15446:	89 c1                	mov    %eax,%ecx
   15448:	8b 45 fc             	mov    -0x4(%rbp),%eax
   1544b:	89 c2                	mov    %eax,%edx
   1544d:	48 8d 35 41 31 00 00 	lea    0x3141(%rip),%rsi        # 18595 <g_1889+0x1da5>
   15454:	48 89 cf             	mov    %rcx,%rdi
   15457:	e8 97 52 ff ff       	callq  a6f3 <transparent_crc>
   1545c:	8b 45 f0             	mov    -0x10(%rbp),%eax
   1545f:	48 63 d0             	movslq %eax,%rdx
   15462:	48 89 d0             	mov    %rdx,%rax
   15465:	48 c1 e0 03          	shl    $0x3,%rax
   15469:	48 01 d0             	add    %rdx,%rax
   1546c:	48 01 c0             	add    %rax,%rax
   1546f:	48 01 c2             	add    %rax,%rdx
   15472:	48 8d 05 27 74 00 00 	lea    0x7427(%rip),%rax        # 1c8a0 <g_1113>
   15479:	48 8b 44 02 0b       	mov    0xb(%rdx,%rax,1),%rax
   1547e:	48 89 c1             	mov    %rax,%rcx
   15481:	8b 45 fc             	mov    -0x4(%rbp),%eax
   15484:	89 c2                	mov    %eax,%edx
   15486:	48 8d 35 15 31 00 00 	lea    0x3115(%rip),%rsi        # 185a2 <g_1889+0x1db2>
   1548d:	48 89 cf             	mov    %rcx,%rdi
   15490:	e8 5e 52 ff ff       	callq  a6f3 <transparent_crc>
   15495:	83 7d fc 00          	cmpl   $0x0,-0x4(%rbp)
   15499:	74 16                	je     154b1 <main+0x1011>
   1549b:	8b 45 f0             	mov    -0x10(%rbp),%eax
   1549e:	89 c6                	mov    %eax,%esi
   154a0:	48 8d 3d cf 2d 00 00 	lea    0x2dcf(%rip),%rdi        # 18276 <g_1889+0x1a86>
   154a7:	b8 00 00 00 00       	mov    $0x0,%eax
   154ac:	e8 cf 3b ff ff       	callq  9080 <printf@plt>
   154b1:	83 45 f0 01          	addl   $0x1,-0x10(%rbp)
   154b5:	83 7d f0 05          	cmpl   $0x5,-0x10(%rbp)
   154b9:	0f 8e c4 fe ff ff    	jle    15383 <main+0xee3>
   154bf:	8b 05 5b 74 00 00    	mov    0x745b(%rip),%eax        # 1c920 <g_1114>
   154c5:	89 c1                	mov    %eax,%ecx
   154c7:	8b 45 fc             	mov    -0x4(%rbp),%eax
   154ca:	89 c2                	mov    %eax,%edx
   154cc:	48 8d 35 dc 30 00 00 	lea    0x30dc(%rip),%rsi        # 185af <g_1889+0x1dbf>
   154d3:	48 89 cf             	mov    %rcx,%rdi
   154d6:	e8 18 52 ff ff       	callq  a6f3 <transparent_crc>
   154db:	0f b7 05 42 74 00 00 	movzwl 0x7442(%rip),%eax        # 1c924 <g_1114+0x4>
   154e2:	0f b7 c0             	movzwl %ax,%eax
   154e5:	8b 55 fc             	mov    -0x4(%rbp),%edx
   154e8:	48 8d 35 ca 30 00 00 	lea    0x30ca(%rip),%rsi        # 185b9 <g_1889+0x1dc9>
   154ef:	48 89 c7             	mov    %rax,%rdi
   154f2:	e8 fc 51 ff ff       	callq  a6f3 <transparent_crc>
   154f7:	0f b6 05 28 74 00 00 	movzbl 0x7428(%rip),%eax        # 1c926 <g_1114+0x6>
   154fe:	0f b6 c0             	movzbl %al,%eax
   15501:	8b 55 fc             	mov    -0x4(%rbp),%edx
   15504:	48 8d 35 b8 30 00 00 	lea    0x30b8(%rip),%rsi        # 185c3 <g_1889+0x1dd3>
   1550b:	48 89 c7             	mov    %rax,%rdi
   1550e:	e8 e0 51 ff ff       	callq  a6f3 <transparent_crc>
   15513:	8b 05 0e 74 00 00    	mov    0x740e(%rip),%eax        # 1c927 <g_1114+0x7>
   15519:	89 c1                	mov    %eax,%ecx
   1551b:	8b 45 fc             	mov    -0x4(%rbp),%eax
   1551e:	89 c2                	mov    %eax,%edx
   15520:	48 8d 35 a6 30 00 00 	lea    0x30a6(%rip),%rsi        # 185cd <g_1889+0x1ddd>
   15527:	48 89 cf             	mov    %rcx,%rdi
   1552a:	e8 c4 51 ff ff       	callq  a6f3 <transparent_crc>
   1552f:	48 8b 05 f5 73 00 00 	mov    0x73f5(%rip),%rax        # 1c92b <g_1114+0xb>
   15536:	48 89 c1             	mov    %rax,%rcx
   15539:	8b 45 fc             	mov    -0x4(%rbp),%eax
   1553c:	89 c2                	mov    %eax,%edx
   1553e:	48 8d 35 92 30 00 00 	lea    0x3092(%rip),%rsi        # 185d7 <g_1889+0x1de7>
   15545:	48 89 cf             	mov    %rcx,%rdi
   15548:	e8 a6 51 ff ff       	callq  a6f3 <transparent_crc>
   1554d:	8b 05 ed 73 00 00    	mov    0x73ed(%rip),%eax        # 1c940 <g_1143>
   15553:	89 c1                	mov    %eax,%ecx
   15555:	8b 45 fc             	mov    -0x4(%rbp),%eax
   15558:	89 c2                	mov    %eax,%edx
   1555a:	48 8d 35 80 30 00 00 	lea    0x3080(%rip),%rsi        # 185e1 <g_1889+0x1df1>
   15561:	48 89 cf             	mov    %rcx,%rdi
   15564:	e8 8a 51 ff ff       	callq  a6f3 <transparent_crc>
   15569:	0f b7 05 d4 73 00 00 	movzwl 0x73d4(%rip),%eax        # 1c944 <g_1143+0x4>
   15570:	0f b7 c0             	movzwl %ax,%eax
   15573:	8b 55 fc             	mov    -0x4(%rbp),%edx
   15576:	48 8d 35 6e 30 00 00 	lea    0x306e(%rip),%rsi        # 185eb <g_1889+0x1dfb>
   1557d:	48 89 c7             	mov    %rax,%rdi
   15580:	e8 6e 51 ff ff       	callq  a6f3 <transparent_crc>
   15585:	0f b6 05 ba 73 00 00 	movzbl 0x73ba(%rip),%eax        # 1c946 <g_1143+0x6>
   1558c:	0f b6 c0             	movzbl %al,%eax
   1558f:	8b 55 fc             	mov    -0x4(%rbp),%edx
   15592:	48 8d 35 5c 30 00 00 	lea    0x305c(%rip),%rsi        # 185f5 <g_1889+0x1e05>
   15599:	48 89 c7             	mov    %rax,%rdi
   1559c:	e8 52 51 ff ff       	callq  a6f3 <transparent_crc>
   155a1:	8b 05 a0 73 00 00    	mov    0x73a0(%rip),%eax        # 1c947 <g_1143+0x7>
   155a7:	89 c1                	mov    %eax,%ecx
   155a9:	8b 45 fc             	mov    -0x4(%rbp),%eax
   155ac:	89 c2                	mov    %eax,%edx
   155ae:	48 8d 35 4a 30 00 00 	lea    0x304a(%rip),%rsi        # 185ff <g_1889+0x1e0f>
   155b5:	48 89 cf             	mov    %rcx,%rdi
   155b8:	e8 36 51 ff ff       	callq  a6f3 <transparent_crc>
   155bd:	48 8b 05 87 73 00 00 	mov    0x7387(%rip),%rax        # 1c94b <g_1143+0xb>
   155c4:	48 89 c1             	mov    %rax,%rcx
   155c7:	8b 45 fc             	mov    -0x4(%rbp),%eax
   155ca:	89 c2                	mov    %eax,%edx
   155cc:	48 8d 35 36 30 00 00 	lea    0x3036(%rip),%rsi        # 18609 <g_1889+0x1e19>
   155d3:	48 89 cf             	mov    %rcx,%rdi
   155d6:	e8 18 51 ff ff       	callq  a6f3 <transparent_crc>
   155db:	c7 45 f0 00 00 00 00 	movl   $0x0,-0x10(%rbp)
   155e2:	eb 4a                	jmp    1562e <main+0x118e>
   155e4:	8b 45 f0             	mov    -0x10(%rbp),%eax
   155e7:	48 98                	cltq   
   155e9:	48 8d 14 00          	lea    (%rax,%rax,1),%rdx
   155ed:	48 8d 05 6c 73 00 00 	lea    0x736c(%rip),%rax        # 1c960 <g_1182>
   155f4:	0f b7 04 02          	movzwl (%rdx,%rax,1),%eax
   155f8:	48 0f bf c0          	movswq %ax,%rax
   155fc:	8b 55 fc             	mov    -0x4(%rbp),%edx
   155ff:	48 8d 35 0d 30 00 00 	lea    0x300d(%rip),%rsi        # 18613 <g_1889+0x1e23>
   15606:	48 89 c7             	mov    %rax,%rdi
   15609:	e8 e5 50 ff ff       	callq  a6f3 <transparent_crc>
   1560e:	83 7d fc 00          	cmpl   $0x0,-0x4(%rbp)
   15612:	74 16                	je     1562a <main+0x118a>
   15614:	8b 45 f0             	mov    -0x10(%rbp),%eax
   15617:	89 c6                	mov    %eax,%esi
   15619:	48 8d 3d 56 2c 00 00 	lea    0x2c56(%rip),%rdi        # 18276 <g_1889+0x1a86>
   15620:	b8 00 00 00 00       	mov    $0x0,%eax
   15625:	e8 56 3a ff ff       	callq  9080 <printf@plt>
   1562a:	83 45 f0 01          	addl   $0x1,-0x10(%rbp)
   1562e:	83 7d f0 08          	cmpl   $0x8,-0x10(%rbp)
   15632:	7e b0                	jle    155e4 <main+0x1144>
   15634:	8b 05 46 73 00 00    	mov    0x7346(%rip),%eax        # 1c980 <g_1248>
   1563a:	89 c1                	mov    %eax,%ecx
   1563c:	8b 45 fc             	mov    -0x4(%rbp),%eax
   1563f:	89 c2                	mov    %eax,%edx
   15641:	48 8d 35 d5 2f 00 00 	lea    0x2fd5(%rip),%rsi        # 1861d <g_1889+0x1e2d>
   15648:	48 89 cf             	mov    %rcx,%rdi
   1564b:	e8 a3 50 ff ff       	callq  a6f3 <transparent_crc>
   15650:	0f b7 05 2d 73 00 00 	movzwl 0x732d(%rip),%eax        # 1c984 <g_1248+0x4>
   15657:	0f b7 c0             	movzwl %ax,%eax
   1565a:	8b 55 fc             	mov    -0x4(%rbp),%edx
   1565d:	48 8d 35 c3 2f 00 00 	lea    0x2fc3(%rip),%rsi        # 18627 <g_1889+0x1e37>
   15664:	48 89 c7             	mov    %rax,%rdi
   15667:	e8 87 50 ff ff       	callq  a6f3 <transparent_crc>
   1566c:	0f b6 05 13 73 00 00 	movzbl 0x7313(%rip),%eax        # 1c986 <g_1248+0x6>
   15673:	0f b6 c0             	movzbl %al,%eax
   15676:	8b 55 fc             	mov    -0x4(%rbp),%edx
   15679:	48 8d 35 b1 2f 00 00 	lea    0x2fb1(%rip),%rsi        # 18631 <g_1889+0x1e41>
   15680:	48 89 c7             	mov    %rax,%rdi
   15683:	e8 6b 50 ff ff       	callq  a6f3 <transparent_crc>
   15688:	8b 05 f9 72 00 00    	mov    0x72f9(%rip),%eax        # 1c987 <g_1248+0x7>
   1568e:	89 c1                	mov    %eax,%ecx
   15690:	8b 45 fc             	mov    -0x4(%rbp),%eax
   15693:	89 c2                	mov    %eax,%edx
   15695:	48 8d 35 9f 2f 00 00 	lea    0x2f9f(%rip),%rsi        # 1863b <g_1889+0x1e4b>
   1569c:	48 89 cf             	mov    %rcx,%rdi
   1569f:	e8 4f 50 ff ff       	callq  a6f3 <transparent_crc>
   156a4:	48 8b 05 e0 72 00 00 	mov    0x72e0(%rip),%rax        # 1c98b <g_1248+0xb>
   156ab:	48 89 c1             	mov    %rax,%rcx
   156ae:	8b 45 fc             	mov    -0x4(%rbp),%eax
   156b1:	89 c2                	mov    %eax,%edx
   156b3:	48 8d 35 8b 2f 00 00 	lea    0x2f8b(%rip),%rsi        # 18645 <g_1889+0x1e55>
   156ba:	48 89 cf             	mov    %rcx,%rdi
   156bd:	e8 31 50 ff ff       	callq  a6f3 <transparent_crc>
   156c2:	8b 05 d8 72 00 00    	mov    0x72d8(%rip),%eax        # 1c9a0 <g_1263>
   156c8:	89 c1                	mov    %eax,%ecx
   156ca:	8b 45 fc             	mov    -0x4(%rbp),%eax
   156cd:	89 c2                	mov    %eax,%edx
   156cf:	48 8d 35 79 2f 00 00 	lea    0x2f79(%rip),%rsi        # 1864f <g_1889+0x1e5f>
   156d6:	48 89 cf             	mov    %rcx,%rdi
   156d9:	e8 15 50 ff ff       	callq  a6f3 <transparent_crc>
   156de:	0f b7 05 bf 72 00 00 	movzwl 0x72bf(%rip),%eax        # 1c9a4 <g_1263+0x4>
   156e5:	0f b7 c0             	movzwl %ax,%eax
   156e8:	8b 55 fc             	mov    -0x4(%rbp),%edx
   156eb:	48 8d 35 67 2f 00 00 	lea    0x2f67(%rip),%rsi        # 18659 <g_1889+0x1e69>
   156f2:	48 89 c7             	mov    %rax,%rdi
   156f5:	e8 f9 4f ff ff       	callq  a6f3 <transparent_crc>
   156fa:	0f b6 05 a5 72 00 00 	movzbl 0x72a5(%rip),%eax        # 1c9a6 <g_1263+0x6>
   15701:	0f b6 c0             	movzbl %al,%eax
   15704:	8b 55 fc             	mov    -0x4(%rbp),%edx
   15707:	48 8d 35 55 2f 00 00 	lea    0x2f55(%rip),%rsi        # 18663 <g_1889+0x1e73>
   1570e:	48 89 c7             	mov    %rax,%rdi
   15711:	e8 dd 4f ff ff       	callq  a6f3 <transparent_crc>
   15716:	8b 05 8b 72 00 00    	mov    0x728b(%rip),%eax        # 1c9a7 <g_1263+0x7>
   1571c:	89 c1                	mov    %eax,%ecx
   1571e:	8b 45 fc             	mov    -0x4(%rbp),%eax
   15721:	89 c2                	mov    %eax,%edx
   15723:	48 8d 35 43 2f 00 00 	lea    0x2f43(%rip),%rsi        # 1866d <g_1889+0x1e7d>
   1572a:	48 89 cf             	mov    %rcx,%rdi
   1572d:	e8 c1 4f ff ff       	callq  a6f3 <transparent_crc>
   15732:	48 8b 05 72 72 00 00 	mov    0x7272(%rip),%rax        # 1c9ab <g_1263+0xb>
   15739:	48 89 c1             	mov    %rax,%rcx
   1573c:	8b 45 fc             	mov    -0x4(%rbp),%eax
   1573f:	89 c2                	mov    %eax,%edx
   15741:	48 8d 35 2f 2f 00 00 	lea    0x2f2f(%rip),%rsi        # 18677 <g_1889+0x1e87>
   15748:	48 89 cf             	mov    %rcx,%rdi
   1574b:	e8 a3 4f ff ff       	callq  a6f3 <transparent_crc>
   15750:	c7 45 f0 00 00 00 00 	movl   $0x0,-0x10(%rbp)
   15757:	e9 93 00 00 00       	jmpq   157ef <main+0x134f>
   1575c:	c7 45 f4 00 00 00 00 	movl   $0x0,-0xc(%rbp)
   15763:	eb 7c                	jmp    157e1 <main+0x1341>
   15765:	c7 45 f8 00 00 00 00 	movl   $0x0,-0x8(%rbp)
   1576c:	eb 69                	jmp    157d7 <main+0x1337>
   1576e:	8b 45 f8             	mov    -0x8(%rbp),%eax
   15771:	48 98                	cltq   
   15773:	8b 55 f0             	mov    -0x10(%rbp),%edx
   15776:	48 63 ca             	movslq %edx,%rcx
   15779:	8b 55 f4             	mov    -0xc(%rbp),%edx
   1577c:	48 63 d2             	movslq %edx,%rdx
   1577f:	48 c1 e1 02          	shl    $0x2,%rcx
   15783:	48 01 ca             	add    %rcx,%rdx
   15786:	48 01 d2             	add    %rdx,%rdx
   15789:	48 01 d0             	add    %rdx,%rax
   1578c:	48 8d 14 c5 00 00 00 	lea    0x0(,%rax,8),%rdx
   15793:	00 
   15794:	48 8d 05 25 72 00 00 	lea    0x7225(%rip),%rax        # 1c9c0 <g_1397>
   1579b:	48 8b 04 02          	mov    (%rdx,%rax,1),%rax
   1579f:	8b 55 fc             	mov    -0x4(%rbp),%edx
   157a2:	48 8d 35 d8 2e 00 00 	lea    0x2ed8(%rip),%rsi        # 18681 <g_1889+0x1e91>
   157a9:	48 89 c7             	mov    %rax,%rdi
   157ac:	e8 42 4f ff ff       	callq  a6f3 <transparent_crc>
   157b1:	83 7d fc 00          	cmpl   $0x0,-0x4(%rbp)
   157b5:	74 1c                	je     157d3 <main+0x1333>
   157b7:	8b 4d f8             	mov    -0x8(%rbp),%ecx
   157ba:	8b 55 f4             	mov    -0xc(%rbp),%edx
   157bd:	8b 45 f0             	mov    -0x10(%rbp),%eax
   157c0:	89 c6                	mov    %eax,%esi
   157c2:	48 8d 3d 8a 2a 00 00 	lea    0x2a8a(%rip),%rdi        # 18253 <g_1889+0x1a63>
   157c9:	b8 00 00 00 00       	mov    $0x0,%eax
   157ce:	e8 ad 38 ff ff       	callq  9080 <printf@plt>
   157d3:	83 45 f8 01          	addl   $0x1,-0x8(%rbp)
   157d7:	83 7d f8 01          	cmpl   $0x1,-0x8(%rbp)
   157db:	7e 91                	jle    1576e <main+0x12ce>
   157dd:	83 45 f4 01          	addl   $0x1,-0xc(%rbp)
   157e1:	83 7d f4 03          	cmpl   $0x3,-0xc(%rbp)
   157e5:	0f 8e 7a ff ff ff    	jle    15765 <main+0x12c5>
   157eb:	83 45 f0 01          	addl   $0x1,-0x10(%rbp)
   157ef:	83 7d f0 08          	cmpl   $0x8,-0x10(%rbp)
   157f3:	0f 8e 63 ff ff ff    	jle    1575c <main+0x12bc>
   157f9:	c7 45 f0 00 00 00 00 	movl   $0x0,-0x10(%rbp)
   15800:	e9 a0 00 00 00       	jmpq   158a5 <main+0x1405>
   15805:	c7 45 f4 00 00 00 00 	movl   $0x0,-0xc(%rbp)
   1580c:	e9 86 00 00 00       	jmpq   15897 <main+0x13f7>
   15811:	c7 45 f8 00 00 00 00 	movl   $0x0,-0x8(%rbp)
   15818:	eb 73                	jmp    1588d <main+0x13ed>
   1581a:	8b 45 f8             	mov    -0x8(%rbp),%eax
   1581d:	48 63 c8             	movslq %eax,%rcx
   15820:	8b 45 f0             	mov    -0x10(%rbp),%eax
   15823:	48 98                	cltq   
   15825:	8b 55 f4             	mov    -0xc(%rbp),%edx
   15828:	48 63 d2             	movslq %edx,%rdx
   1582b:	48 6b f0 46          	imul   $0x46,%rax,%rsi
   1582f:	48 89 d0             	mov    %rdx,%rax
   15832:	48 c1 e0 02          	shl    $0x2,%rax
   15836:	48 01 d0             	add    %rdx,%rax
   15839:	48 01 c0             	add    %rax,%rax
   1583c:	48 01 f0             	add    %rsi,%rax
   1583f:	48 01 c8             	add    %rcx,%rax
   15842:	48 8d 14 c5 00 00 00 	lea    0x0(,%rax,8),%rdx
   15849:	00 
   1584a:	48 8d 05 0f 09 00 00 	lea    0x90f(%rip),%rax        # 16160 <g_1487>
   15851:	48 8b 04 02          	mov    (%rdx,%rax,1),%rax
   15855:	8b 55 fc             	mov    -0x4(%rbp),%edx
   15858:	48 8d 35 35 2e 00 00 	lea    0x2e35(%rip),%rsi        # 18694 <g_1889+0x1ea4>
   1585f:	48 89 c7             	mov    %rax,%rdi
   15862:	e8 8c 4e ff ff       	callq  a6f3 <transparent_crc>
   15867:	83 7d fc 00          	cmpl   $0x0,-0x4(%rbp)
   1586b:	74 1c                	je     15889 <main+0x13e9>
   1586d:	8b 4d f8             	mov    -0x8(%rbp),%ecx
   15870:	8b 55 f4             	mov    -0xc(%rbp),%edx
   15873:	8b 45 f0             	mov    -0x10(%rbp),%eax
   15876:	89 c6                	mov    %eax,%esi
   15878:	48 8d 3d d4 29 00 00 	lea    0x29d4(%rip),%rdi        # 18253 <g_1889+0x1a63>
   1587f:	b8 00 00 00 00       	mov    $0x0,%eax
   15884:	e8 f7 37 ff ff       	callq  9080 <printf@plt>
   15889:	83 45 f8 01          	addl   $0x1,-0x8(%rbp)
   1588d:	83 7d f8 09          	cmpl   $0x9,-0x8(%rbp)
   15891:	7e 87                	jle    1581a <main+0x137a>
   15893:	83 45 f4 01          	addl   $0x1,-0xc(%rbp)
   15897:	83 7d f4 06          	cmpl   $0x6,-0xc(%rbp)
   1589b:	0f 8e 70 ff ff ff    	jle    15811 <main+0x1371>
   158a1:	83 45 f0 01          	addl   $0x1,-0x10(%rbp)
   158a5:	83 7d f0 02          	cmpl   $0x2,-0x10(%rbp)
   158a9:	0f 8e 56 ff ff ff    	jle    15805 <main+0x1365>
   158af:	0f b6 05 4a 73 00 00 	movzbl 0x734a(%rip),%eax        # 1cc00 <g_1494>
   158b6:	48 0f be c0          	movsbq %al,%rax
   158ba:	8b 55 fc             	mov    -0x4(%rbp),%edx
   158bd:	48 8d 35 e3 2d 00 00 	lea    0x2de3(%rip),%rsi        # 186a7 <g_1889+0x1eb7>
   158c4:	48 89 c7             	mov    %rax,%rdi
   158c7:	e8 27 4e ff ff       	callq  a6f3 <transparent_crc>
   158cc:	8b 05 3e 73 00 00    	mov    0x733e(%rip),%eax        # 1cc10 <g_1500>
   158d2:	89 c1                	mov    %eax,%ecx
   158d4:	8b 45 fc             	mov    -0x4(%rbp),%eax
   158d7:	89 c2                	mov    %eax,%edx
   158d9:	48 8d 35 ce 2d 00 00 	lea    0x2dce(%rip),%rsi        # 186ae <g_1889+0x1ebe>
   158e0:	48 89 cf             	mov    %rcx,%rdi
   158e3:	e8 0b 4e ff ff       	callq  a6f3 <transparent_crc>
   158e8:	0f b7 05 25 73 00 00 	movzwl 0x7325(%rip),%eax        # 1cc14 <g_1500+0x4>
   158ef:	0f b7 c0             	movzwl %ax,%eax
   158f2:	8b 55 fc             	mov    -0x4(%rbp),%edx
   158f5:	48 8d 35 bc 2d 00 00 	lea    0x2dbc(%rip),%rsi        # 186b8 <g_1889+0x1ec8>
   158fc:	48 89 c7             	mov    %rax,%rdi
   158ff:	e8 ef 4d ff ff       	callq  a6f3 <transparent_crc>
   15904:	0f b6 05 0b 73 00 00 	movzbl 0x730b(%rip),%eax        # 1cc16 <g_1500+0x6>
   1590b:	0f b6 c0             	movzbl %al,%eax
   1590e:	8b 55 fc             	mov    -0x4(%rbp),%edx
   15911:	48 8d 35 aa 2d 00 00 	lea    0x2daa(%rip),%rsi        # 186c2 <g_1889+0x1ed2>
   15918:	48 89 c7             	mov    %rax,%rdi
   1591b:	e8 d3 4d ff ff       	callq  a6f3 <transparent_crc>
   15920:	8b 05 f1 72 00 00    	mov    0x72f1(%rip),%eax        # 1cc17 <g_1500+0x7>
   15926:	89 c1                	mov    %eax,%ecx
   15928:	8b 45 fc             	mov    -0x4(%rbp),%eax
   1592b:	89 c2                	mov    %eax,%edx
   1592d:	48 8d 35 98 2d 00 00 	lea    0x2d98(%rip),%rsi        # 186cc <g_1889+0x1edc>
   15934:	48 89 cf             	mov    %rcx,%rdi
   15937:	e8 b7 4d ff ff       	callq  a6f3 <transparent_crc>
   1593c:	48 8b 05 d8 72 00 00 	mov    0x72d8(%rip),%rax        # 1cc1b <g_1500+0xb>
   15943:	48 89 c1             	mov    %rax,%rcx
   15946:	8b 45 fc             	mov    -0x4(%rbp),%eax
   15949:	89 c2                	mov    %eax,%edx
   1594b:	48 8d 35 84 2d 00 00 	lea    0x2d84(%rip),%rsi        # 186d6 <g_1889+0x1ee6>
   15952:	48 89 cf             	mov    %rcx,%rdi
   15955:	e8 99 4d ff ff       	callq  a6f3 <transparent_crc>
   1595a:	8b 05 d0 72 00 00    	mov    0x72d0(%rip),%eax        # 1cc30 <g_1509>
   15960:	89 c1                	mov    %eax,%ecx
   15962:	8b 45 fc             	mov    -0x4(%rbp),%eax
   15965:	89 c2                	mov    %eax,%edx
   15967:	48 8d 35 72 2d 00 00 	lea    0x2d72(%rip),%rsi        # 186e0 <g_1889+0x1ef0>
   1596e:	48 89 cf             	mov    %rcx,%rdi
   15971:	e8 7d 4d ff ff       	callq  a6f3 <transparent_crc>
   15976:	0f b7 05 b7 72 00 00 	movzwl 0x72b7(%rip),%eax        # 1cc34 <g_1509+0x4>
   1597d:	0f b7 c0             	movzwl %ax,%eax
   15980:	8b 55 fc             	mov    -0x4(%rbp),%edx
   15983:	48 8d 35 60 2d 00 00 	lea    0x2d60(%rip),%rsi        # 186ea <g_1889+0x1efa>
   1598a:	48 89 c7             	mov    %rax,%rdi
   1598d:	e8 61 4d ff ff       	callq  a6f3 <transparent_crc>
   15992:	0f b6 05 9d 72 00 00 	movzbl 0x729d(%rip),%eax        # 1cc36 <g_1509+0x6>
   15999:	0f b6 c0             	movzbl %al,%eax
   1599c:	8b 55 fc             	mov    -0x4(%rbp),%edx
   1599f:	48 8d 35 4e 2d 00 00 	lea    0x2d4e(%rip),%rsi        # 186f4 <g_1889+0x1f04>
   159a6:	48 89 c7             	mov    %rax,%rdi
   159a9:	e8 45 4d ff ff       	callq  a6f3 <transparent_crc>
   159ae:	8b 05 83 72 00 00    	mov    0x7283(%rip),%eax        # 1cc37 <g_1509+0x7>
   159b4:	89 c1                	mov    %eax,%ecx
   159b6:	8b 45 fc             	mov    -0x4(%rbp),%eax
   159b9:	89 c2                	mov    %eax,%edx
   159bb:	48 8d 35 3c 2d 00 00 	lea    0x2d3c(%rip),%rsi        # 186fe <g_1889+0x1f0e>
   159c2:	48 89 cf             	mov    %rcx,%rdi
   159c5:	e8 29 4d ff ff       	callq  a6f3 <transparent_crc>
   159ca:	48 8b 05 6a 72 00 00 	mov    0x726a(%rip),%rax        # 1cc3b <g_1509+0xb>
   159d1:	48 89 c1             	mov    %rax,%rcx
   159d4:	8b 45 fc             	mov    -0x4(%rbp),%eax
   159d7:	89 c2                	mov    %eax,%edx
   159d9:	48 8d 35 28 2d 00 00 	lea    0x2d28(%rip),%rsi        # 18708 <g_1889+0x1f18>
   159e0:	48 89 cf             	mov    %rcx,%rdi
   159e3:	e8 0b 4d ff ff       	callq  a6f3 <transparent_crc>
   159e8:	8b 05 62 72 00 00    	mov    0x7262(%rip),%eax        # 1cc50 <g_1510>
   159ee:	89 c1                	mov    %eax,%ecx
   159f0:	8b 45 fc             	mov    -0x4(%rbp),%eax
   159f3:	89 c2                	mov    %eax,%edx
   159f5:	48 8d 35 16 2d 00 00 	lea    0x2d16(%rip),%rsi        # 18712 <g_1889+0x1f22>
   159fc:	48 89 cf             	mov    %rcx,%rdi
   159ff:	e8 ef 4c ff ff       	callq  a6f3 <transparent_crc>
   15a04:	0f b7 05 49 72 00 00 	movzwl 0x7249(%rip),%eax        # 1cc54 <g_1510+0x4>
   15a0b:	0f b7 c0             	movzwl %ax,%eax
   15a0e:	8b 55 fc             	mov    -0x4(%rbp),%edx
   15a11:	48 8d 35 04 2d 00 00 	lea    0x2d04(%rip),%rsi        # 1871c <g_1889+0x1f2c>
   15a18:	48 89 c7             	mov    %rax,%rdi
   15a1b:	e8 d3 4c ff ff       	callq  a6f3 <transparent_crc>
   15a20:	0f b6 05 2f 72 00 00 	movzbl 0x722f(%rip),%eax        # 1cc56 <g_1510+0x6>
   15a27:	0f b6 c0             	movzbl %al,%eax
   15a2a:	8b 55 fc             	mov    -0x4(%rbp),%edx
   15a2d:	48 8d 35 f2 2c 00 00 	lea    0x2cf2(%rip),%rsi        # 18726 <g_1889+0x1f36>
   15a34:	48 89 c7             	mov    %rax,%rdi
   15a37:	e8 b7 4c ff ff       	callq  a6f3 <transparent_crc>
   15a3c:	8b 05 15 72 00 00    	mov    0x7215(%rip),%eax        # 1cc57 <g_1510+0x7>
   15a42:	89 c1                	mov    %eax,%ecx
   15a44:	8b 45 fc             	mov    -0x4(%rbp),%eax
   15a47:	89 c2                	mov    %eax,%edx
   15a49:	48 8d 35 e0 2c 00 00 	lea    0x2ce0(%rip),%rsi        # 18730 <g_1889+0x1f40>
   15a50:	48 89 cf             	mov    %rcx,%rdi
   15a53:	e8 9b 4c ff ff       	callq  a6f3 <transparent_crc>
   15a58:	48 8b 05 fc 71 00 00 	mov    0x71fc(%rip),%rax        # 1cc5b <g_1510+0xb>
   15a5f:	48 89 c1             	mov    %rax,%rcx
   15a62:	8b 45 fc             	mov    -0x4(%rbp),%eax
   15a65:	89 c2                	mov    %eax,%edx
   15a67:	48 8d 35 cc 2c 00 00 	lea    0x2ccc(%rip),%rsi        # 1873a <g_1889+0x1f4a>
   15a6e:	48 89 cf             	mov    %rcx,%rdi
   15a71:	e8 7d 4c ff ff       	callq  a6f3 <transparent_crc>
   15a76:	8b 05 f4 71 00 00    	mov    0x71f4(%rip),%eax        # 1cc70 <g_1588>
   15a7c:	89 c1                	mov    %eax,%ecx
   15a7e:	8b 45 fc             	mov    -0x4(%rbp),%eax
   15a81:	89 c2                	mov    %eax,%edx
   15a83:	48 8d 35 ba 2c 00 00 	lea    0x2cba(%rip),%rsi        # 18744 <g_1889+0x1f54>
   15a8a:	48 89 cf             	mov    %rcx,%rdi
   15a8d:	e8 61 4c ff ff       	callq  a6f3 <transparent_crc>
   15a92:	0f b7 05 db 71 00 00 	movzwl 0x71db(%rip),%eax        # 1cc74 <g_1588+0x4>
   15a99:	0f b7 c0             	movzwl %ax,%eax
   15a9c:	8b 55 fc             	mov    -0x4(%rbp),%edx
   15a9f:	48 8d 35 a8 2c 00 00 	lea    0x2ca8(%rip),%rsi        # 1874e <g_1889+0x1f5e>
   15aa6:	48 89 c7             	mov    %rax,%rdi
   15aa9:	e8 45 4c ff ff       	callq  a6f3 <transparent_crc>
   15aae:	0f b6 05 c1 71 00 00 	movzbl 0x71c1(%rip),%eax        # 1cc76 <g_1588+0x6>
   15ab5:	0f b6 c0             	movzbl %al,%eax
   15ab8:	8b 55 fc             	mov    -0x4(%rbp),%edx
   15abb:	48 8d 35 96 2c 00 00 	lea    0x2c96(%rip),%rsi        # 18758 <g_1889+0x1f68>
   15ac2:	48 89 c7             	mov    %rax,%rdi
   15ac5:	e8 29 4c ff ff       	callq  a6f3 <transparent_crc>
   15aca:	8b 05 a7 71 00 00    	mov    0x71a7(%rip),%eax        # 1cc77 <g_1588+0x7>
   15ad0:	89 c1                	mov    %eax,%ecx
   15ad2:	8b 45 fc             	mov    -0x4(%rbp),%eax
   15ad5:	89 c2                	mov    %eax,%edx
   15ad7:	48 8d 35 84 2c 00 00 	lea    0x2c84(%rip),%rsi        # 18762 <g_1889+0x1f72>
   15ade:	48 89 cf             	mov    %rcx,%rdi
   15ae1:	e8 0d 4c ff ff       	callq  a6f3 <transparent_crc>
   15ae6:	48 8b 05 8e 71 00 00 	mov    0x718e(%rip),%rax        # 1cc7b <g_1588+0xb>
   15aed:	48 89 c1             	mov    %rax,%rcx
   15af0:	8b 45 fc             	mov    -0x4(%rbp),%eax
   15af3:	89 c2                	mov    %eax,%edx
   15af5:	48 8d 35 70 2c 00 00 	lea    0x2c70(%rip),%rsi        # 1876c <g_1889+0x1f7c>
   15afc:	48 89 cf             	mov    %rcx,%rdi
   15aff:	e8 ef 4b ff ff       	callq  a6f3 <transparent_crc>
   15b04:	c7 45 f0 00 00 00 00 	movl   $0x0,-0x10(%rbp)
   15b0b:	eb 4b                	jmp    15b58 <main+0x16b8>
   15b0d:	8b 45 f0             	mov    -0x10(%rbp),%eax
   15b10:	48 98                	cltq   
   15b12:	48 8d 14 85 00 00 00 	lea    0x0(,%rax,4),%rdx
   15b19:	00 
   15b1a:	48 8d 05 67 71 00 00 	lea    0x7167(%rip),%rax        # 1cc88 <g_1594>
   15b21:	8b 04 02             	mov    (%rdx,%rax,1),%eax
   15b24:	48 98                	cltq   
   15b26:	8b 55 fc             	mov    -0x4(%rbp),%edx
   15b29:	48 8d 35 46 2c 00 00 	lea    0x2c46(%rip),%rsi        # 18776 <g_1889+0x1f86>
   15b30:	48 89 c7             	mov    %rax,%rdi
   15b33:	e8 bb 4b ff ff       	callq  a6f3 <transparent_crc>
   15b38:	83 7d fc 00          	cmpl   $0x0,-0x4(%rbp)
   15b3c:	74 16                	je     15b54 <main+0x16b4>
   15b3e:	8b 45 f0             	mov    -0x10(%rbp),%eax
   15b41:	89 c6                	mov    %eax,%esi
   15b43:	48 8d 3d 2c 27 00 00 	lea    0x272c(%rip),%rdi        # 18276 <g_1889+0x1a86>
   15b4a:	b8 00 00 00 00       	mov    $0x0,%eax
   15b4f:	e8 2c 35 ff ff       	callq  9080 <printf@plt>
   15b54:	83 45 f0 01          	addl   $0x1,-0x10(%rbp)
   15b58:	83 7d f0 01          	cmpl   $0x1,-0x10(%rbp)
   15b5c:	7e af                	jle    15b0d <main+0x166d>
   15b5e:	48 8b 05 8b 0c 00 00 	mov    0xc8b(%rip),%rax        # 167f0 <g_1889>
   15b65:	8b 55 fc             	mov    -0x4(%rbp),%edx
   15b68:	48 8d 35 11 2c 00 00 	lea    0x2c11(%rip),%rsi        # 18780 <g_1889+0x1f90>
   15b6f:	48 89 c7             	mov    %rax,%rdi
   15b72:	e8 7c 4b ff ff       	callq  a6f3 <transparent_crc>
   15b77:	8b 05 1b 71 00 00    	mov    0x711b(%rip),%eax        # 1cc98 <g_1933>
   15b7d:	48 98                	cltq   
   15b7f:	8b 55 fc             	mov    -0x4(%rbp),%edx
   15b82:	48 8d 35 01 2c 00 00 	lea    0x2c01(%rip),%rsi        # 1878a <g_1889+0x1f9a>
   15b89:	48 89 c7             	mov    %rax,%rdi
   15b8c:	e8 62 4b ff ff       	callq  a6f3 <transparent_crc>
   15b91:	48 8b 05 08 71 00 00 	mov    0x7108(%rip),%rax        # 1cca0 <g_1985>
   15b98:	8b 55 fc             	mov    -0x4(%rbp),%edx
   15b9b:	48 8d 35 ef 2b 00 00 	lea    0x2bef(%rip),%rsi        # 18791 <g_1889+0x1fa1>
   15ba2:	48 89 c7             	mov    %rax,%rdi
   15ba5:	e8 49 4b ff ff       	callq  a6f3 <transparent_crc>
   15baa:	c7 45 f0 00 00 00 00 	movl   $0x0,-0x10(%rbp)
   15bb1:	eb 45                	jmp    15bf8 <main+0x1758>
   15bb3:	8b 45 f0             	mov    -0x10(%rbp),%eax
   15bb6:	48 98                	cltq   
   15bb8:	48 8d 15 e9 70 00 00 	lea    0x70e9(%rip),%rdx        # 1cca8 <g_2077>
   15bbf:	0f b6 04 10          	movzbl (%rax,%rdx,1),%eax
   15bc3:	0f b6 c0             	movzbl %al,%eax
   15bc6:	8b 55 fc             	mov    -0x4(%rbp),%edx
   15bc9:	48 8d 35 cb 2b 00 00 	lea    0x2bcb(%rip),%rsi        # 1879b <g_1889+0x1fab>
   15bd0:	48 89 c7             	mov    %rax,%rdi
   15bd3:	e8 1b 4b ff ff       	callq  a6f3 <transparent_crc>
   15bd8:	83 7d fc 00          	cmpl   $0x0,-0x4(%rbp)
   15bdc:	74 16                	je     15bf4 <main+0x1754>
   15bde:	8b 45 f0             	mov    -0x10(%rbp),%eax
   15be1:	89 c6                	mov    %eax,%esi
   15be3:	48 8d 3d 8c 26 00 00 	lea    0x268c(%rip),%rdi        # 18276 <g_1889+0x1a86>
   15bea:	b8 00 00 00 00       	mov    $0x0,%eax
   15bef:	e8 8c 34 ff ff       	callq  9080 <printf@plt>
   15bf4:	83 45 f0 01          	addl   $0x1,-0x10(%rbp)
   15bf8:	83 7d f0 01          	cmpl   $0x1,-0x10(%rbp)
   15bfc:	7e b5                	jle    15bb3 <main+0x1713>
   15bfe:	0f b6 05 a5 70 00 00 	movzbl 0x70a5(%rip),%eax        # 1ccaa <g_2078>
   15c05:	0f b6 c0             	movzbl %al,%eax
   15c08:	8b 55 fc             	mov    -0x4(%rbp),%edx
   15c0b:	48 8d 35 93 2b 00 00 	lea    0x2b93(%rip),%rsi        # 187a5 <g_1889+0x1fb5>
   15c12:	48 89 c7             	mov    %rax,%rdi
   15c15:	e8 d9 4a ff ff       	callq  a6f3 <transparent_crc>
   15c1a:	0f b7 05 8b 70 00 00 	movzwl 0x708b(%rip),%eax        # 1ccac <g_2108>
   15c21:	0f b7 c0             	movzwl %ax,%eax
   15c24:	8b 55 fc             	mov    -0x4(%rbp),%edx
   15c27:	48 8d 35 7e 2b 00 00 	lea    0x2b7e(%rip),%rsi        # 187ac <g_1889+0x1fbc>
   15c2e:	48 89 c7             	mov    %rax,%rdi
   15c31:	e8 bd 4a ff ff       	callq  a6f3 <transparent_crc>
   15c36:	8b 05 74 70 00 00    	mov    0x7074(%rip),%eax        # 1ccb0 <g_2112>
   15c3c:	48 98                	cltq   
   15c3e:	8b 55 fc             	mov    -0x4(%rbp),%edx
   15c41:	48 8d 35 6b 2b 00 00 	lea    0x2b6b(%rip),%rsi        # 187b3 <g_1889+0x1fc3>
   15c48:	48 89 c7             	mov    %rax,%rdi
   15c4b:	e8 a3 4a ff ff       	callq  a6f3 <transparent_crc>
   15c50:	8b 05 ca 53 00 00    	mov    0x53ca(%rip),%eax        # 1b020 <crc32_context>
   15c56:	f7 d0                	not    %eax
   15c58:	89 c2                	mov    %eax,%edx
   15c5a:	8b 45 fc             	mov    -0x4(%rbp),%eax
   15c5d:	89 c6                	mov    %eax,%esi
   15c5f:	89 d7                	mov    %edx,%edi
   15c61:	e8 2e 35 ff ff       	callq  9194 <platform_main_end>
   15c66:	b8 00 00 00 00       	mov    $0x0,%eax
   15c6b:	c9                   	leaveq 
   15c6c:	c3                   	retq   
   15c6d:	0f 1f 00             	nopl   (%rax)

0000000000015c70 <__libc_csu_init>:
   15c70:	f3 0f 1e fa          	endbr64 
   15c74:	41 57                	push   %r15
   15c76:	4c 8d 3d d3 50 00 00 	lea    0x50d3(%rip),%r15        # 1ad50 <__frame_dummy_init_array_entry>
   15c7d:	41 56                	push   %r14
   15c7f:	49 89 d6             	mov    %rdx,%r14
   15c82:	41 55                	push   %r13
   15c84:	49 89 f5             	mov    %rsi,%r13
   15c87:	41 54                	push   %r12
   15c89:	41 89 fc             	mov    %edi,%r12d
   15c8c:	55                   	push   %rbp
   15c8d:	48 8d 2d c4 50 00 00 	lea    0x50c4(%rip),%rbp        # 1ad58 <__do_global_dtors_aux_fini_array_entry>
   15c94:	53                   	push   %rbx
   15c95:	4c 29 fd             	sub    %r15,%rbp
   15c98:	48 83 ec 08          	sub    $0x8,%rsp
   15c9c:	e8 5f 33 ff ff       	callq  9000 <_init>
   15ca1:	48 c1 fd 03          	sar    $0x3,%rbp
   15ca5:	74 1f                	je     15cc6 <__libc_csu_init+0x56>
   15ca7:	31 db                	xor    %ebx,%ebx
   15ca9:	0f 1f 80 00 00 00 00 	nopl   0x0(%rax)
   15cb0:	4c 89 f2             	mov    %r14,%rdx
   15cb3:	4c 89 ee             	mov    %r13,%rsi
   15cb6:	44 89 e7             	mov    %r12d,%edi
   15cb9:	41 ff 14 df          	callq  *(%r15,%rbx,8)
   15cbd:	48 83 c3 01          	add    $0x1,%rbx
   15cc1:	48 39 dd             	cmp    %rbx,%rbp
   15cc4:	75 ea                	jne    15cb0 <__libc_csu_init+0x40>
   15cc6:	48 83 c4 08          	add    $0x8,%rsp
   15cca:	5b                   	pop    %rbx
   15ccb:	5d                   	pop    %rbp
   15ccc:	41 5c                	pop    %r12
   15cce:	41 5d                	pop    %r13
   15cd0:	41 5e                	pop    %r14
   15cd2:	41 5f                	pop    %r15
   15cd4:	c3                   	retq   
   15cd5:	66 66 2e 0f 1f 84 00 	data16 nopw %cs:0x0(%rax,%rax,1)
   15cdc:	00 00 00 00 

0000000000015ce0 <__libc_csu_fini>:
   15ce0:	f3 0f 1e fa          	endbr64 
   15ce4:	c3                   	retq   
