


Disassembly of section .text:

00000000000080a0 <_start>:
    80a0:	f3 0f 1e fa          	endbr64 
    80a4:	31 ed                	xor    %ebp,%ebp
    80a6:	49 89 d1             	mov    %rdx,%r9
    80a9:	5e                   	pop    %rsi
    80aa:	48 89 e2             	mov    %rsp,%rdx
    80ad:	48 83 e4 f0          	and    $0xfffffffffffffff0,%rsp
    80b1:	50                   	push   %rax
    80b2:	54                   	push   %rsp
    80b3:	4c 8d 05 66 c6 00 00 	lea    0xc666(%rip),%r8        # 14720 <__libc_csu_fini>
    80ba:	48 8d 0d ef c5 00 00 	lea    0xc5ef(%rip),%rcx        # 146b0 <__libc_csu_init>
    80c1:	48 8d 3d 32 af 00 00 	lea    0xaf32(%rip),%rdi        # 12ffa <main>
    80c8:	ff 15 fa 1e 01 00    	callq  *0x11efa(%rip)        # 19fc8 <__libc_start_main@GLIBC_2.2.5>
    80ce:	f4                   	hlt    
    80cf:	90                   	nop

00000000000080d0 <deregister_tm_clones>:
    80d0:	48 8d 3d f1 63 01 00 	lea    0x163f1(%rip),%rdi        # 1e4c8 <__TMC_END__>
    80d7:	48 8d 05 ea 63 01 00 	lea    0x163ea(%rip),%rax        # 1e4c8 <__TMC_END__>
    80de:	48 39 f8             	cmp    %rdi,%rax
    80e1:	74 15                	je     80f8 <deregister_tm_clones+0x28>
    80e3:	48 8b 05 d6 1e 01 00 	mov    0x11ed6(%rip),%rax        # 19fc0 <_ITM_deregisterTMCloneTable>
    80ea:	48 85 c0             	test   %rax,%rax
    80ed:	74 09                	je     80f8 <deregister_tm_clones+0x28>
    80ef:	ff e0                	jmpq   *%rax
    80f1:	0f 1f 80 00 00 00 00 	nopl   0x0(%rax)
    80f8:	c3                   	retq   
    80f9:	0f 1f 80 00 00 00 00 	nopl   0x0(%rax)

0000000000008100 <register_tm_clones>:
    8100:	48 8d 3d c1 63 01 00 	lea    0x163c1(%rip),%rdi        # 1e4c8 <__TMC_END__>
    8107:	48 8d 35 ba 63 01 00 	lea    0x163ba(%rip),%rsi        # 1e4c8 <__TMC_END__>
    810e:	48 29 fe             	sub    %rdi,%rsi
    8111:	48 89 f0             	mov    %rsi,%rax
    8114:	48 c1 ee 3f          	shr    $0x3f,%rsi
    8118:	48 c1 f8 03          	sar    $0x3,%rax
    811c:	48 01 c6             	add    %rax,%rsi
    811f:	48 d1 fe             	sar    %rsi
    8122:	74 14                	je     8138 <register_tm_clones+0x38>
    8124:	48 8b 05 ad 1e 01 00 	mov    0x11ead(%rip),%rax        # 19fd8 <_ITM_registerTMCloneTable>
    812b:	48 85 c0             	test   %rax,%rax
    812e:	74 08                	je     8138 <register_tm_clones+0x38>
    8130:	ff e0                	jmpq   *%rax
    8132:	66 0f 1f 44 00 00    	nopw   0x0(%rax,%rax,1)
    8138:	c3                   	retq   
    8139:	0f 1f 80 00 00 00 00 	nopl   0x0(%rax)

0000000000008140 <__do_global_dtors_aux>:
    8140:	f3 0f 1e fa          	endbr64 
    8144:	80 3d 95 63 01 00 00 	cmpb   $0x0,0x16395(%rip)        # 1e4e0 <completed.8061>
    814b:	75 2b                	jne    8178 <__do_global_dtors_aux+0x38>
    814d:	55                   	push   %rbp
    814e:	48 83 3d 8a 1e 01 00 	cmpq   $0x0,0x11e8a(%rip)        # 19fe0 <__cxa_finalize@GLIBC_2.2.5>
    8155:	00 
    8156:	48 89 e5             	mov    %rsp,%rbp
    8159:	74 0c                	je     8167 <__do_global_dtors_aux+0x27>
    815b:	48 8b 3d a6 1e 01 00 	mov    0x11ea6(%rip),%rdi        # 1a008 <__dso_handle>
    8162:	e8 f9 fe ff ff       	callq  8060 <__cxa_finalize@plt>
    8167:	e8 64 ff ff ff       	callq  80d0 <deregister_tm_clones>
    816c:	c6 05 6d 63 01 00 01 	movb   $0x1,0x1636d(%rip)        # 1e4e0 <completed.8061>
    8173:	5d                   	pop    %rbp
    8174:	c3                   	retq   
    8175:	0f 1f 00             	nopl   (%rax)
    8178:	c3                   	retq   
    8179:	0f 1f 80 00 00 00 00 	nopl   0x0(%rax)

0000000000008180 <frame_dummy>:
    8180:	f3 0f 1e fa          	endbr64 
    8184:	e9 77 ff ff ff       	jmpq   8100 <register_tm_clones>

0000000000008189 <platform_main_begin>:
    8189:	f3 0f 1e fa          	endbr64 
    818d:	55                   	push   %rbp
    818e:	48 89 e5             	mov    %rsp,%rbp
    8191:	90                   	nop
    8192:	5d                   	pop    %rbp
    8193:	c3                   	retq   

0000000000008194 <platform_main_end>:
    8194:	f3 0f 1e fa          	endbr64 
    8198:	55                   	push   %rbp
    8199:	48 89 e5             	mov    %rsp,%rbp
    819c:	48 83 ec 10          	sub    $0x10,%rsp
    81a0:	89 7d fc             	mov    %edi,-0x4(%rbp)
    81a3:	89 75 f8             	mov    %esi,-0x8(%rbp)
    81a6:	8b 45 fc             	mov    -0x4(%rbp),%eax
    81a9:	89 c6                	mov    %eax,%esi
    81ab:	48 8d 3d 6e ce 00 00 	lea    0xce6e(%rip),%rdi        # 15020 <_IO_stdin_used+0x20>
    81b2:	b8 00 00 00 00       	mov    $0x0,%eax
    81b7:	e8 c4 fe ff ff       	callq  8080 <printf@plt>
    81bc:	90                   	nop
    81bd:	c9                   	leaveq 
    81be:	c3                   	retq   

00000000000081bf <safe_unary_minus_func_int8_t_s>:
    81bf:	f3 0f 1e fa          	endbr64 
    81c3:	55                   	push   %rbp
    81c4:	48 89 e5             	mov    %rsp,%rbp
    81c7:	89 f8                	mov    %edi,%eax
    81c9:	88 45 fc             	mov    %al,-0x4(%rbp)
    81cc:	0f b6 45 fc          	movzbl -0x4(%rbp),%eax
    81d0:	f7 d8                	neg    %eax
    81d2:	5d                   	pop    %rbp
    81d3:	c3                   	retq   

00000000000081d4 <safe_add_func_int8_t_s_s>:
    81d4:	f3 0f 1e fa          	endbr64 
    81d8:	55                   	push   %rbp
    81d9:	48 89 e5             	mov    %rsp,%rbp
    81dc:	89 fa                	mov    %edi,%edx
    81de:	89 f0                	mov    %esi,%eax
    81e0:	88 55 fc             	mov    %dl,-0x4(%rbp)
    81e3:	88 45 f8             	mov    %al,-0x8(%rbp)
    81e6:	0f b6 55 fc          	movzbl -0x4(%rbp),%edx
    81ea:	0f b6 45 f8          	movzbl -0x8(%rbp),%eax
    81ee:	01 d0                	add    %edx,%eax
    81f0:	5d                   	pop    %rbp
    81f1:	c3                   	retq   

00000000000081f2 <safe_sub_func_int8_t_s_s>:
    81f2:	f3 0f 1e fa          	endbr64 
    81f6:	55                   	push   %rbp
    81f7:	48 89 e5             	mov    %rsp,%rbp
    81fa:	89 fa                	mov    %edi,%edx
    81fc:	89 f0                	mov    %esi,%eax
    81fe:	88 55 fc             	mov    %dl,-0x4(%rbp)
    8201:	88 45 f8             	mov    %al,-0x8(%rbp)
    8204:	0f b6 55 fc          	movzbl -0x4(%rbp),%edx
    8208:	0f b6 45 f8          	movzbl -0x8(%rbp),%eax
    820c:	29 c2                	sub    %eax,%edx
    820e:	89 d0                	mov    %edx,%eax
    8210:	5d                   	pop    %rbp
    8211:	c3                   	retq   

0000000000008212 <safe_mul_func_int8_t_s_s>:
    8212:	f3 0f 1e fa          	endbr64 
    8216:	55                   	push   %rbp
    8217:	48 89 e5             	mov    %rsp,%rbp
    821a:	89 fa                	mov    %edi,%edx
    821c:	89 f0                	mov    %esi,%eax
    821e:	88 55 fc             	mov    %dl,-0x4(%rbp)
    8221:	88 45 f8             	mov    %al,-0x8(%rbp)
    8224:	0f b6 45 fc          	movzbl -0x4(%rbp),%eax
    8228:	0f b6 55 f8          	movzbl -0x8(%rbp),%edx
    822c:	0f af c2             	imul   %edx,%eax
    822f:	5d                   	pop    %rbp
    8230:	c3                   	retq   

0000000000008231 <safe_mod_func_int8_t_s_s>:
    8231:	f3 0f 1e fa          	endbr64 
    8235:	55                   	push   %rbp
    8236:	48 89 e5             	mov    %rsp,%rbp
    8239:	89 fa                	mov    %edi,%edx
    823b:	89 f0                	mov    %esi,%eax
    823d:	88 55 fc             	mov    %dl,-0x4(%rbp)
    8240:	88 45 f8             	mov    %al,-0x8(%rbp)
    8243:	80 7d f8 00          	cmpb   $0x0,-0x8(%rbp)
    8247:	74 1b                	je     8264 <safe_mod_func_int8_t_s_s+0x33>
    8249:	80 7d fc 80          	cmpb   $0x80,-0x4(%rbp)
    824d:	75 06                	jne    8255 <safe_mod_func_int8_t_s_s+0x24>
    824f:	80 7d f8 ff          	cmpb   $0xff,-0x8(%rbp)
    8253:	74 0f                	je     8264 <safe_mod_func_int8_t_s_s+0x33>
    8255:	0f be 45 fc          	movsbl -0x4(%rbp),%eax
    8259:	0f be 4d f8          	movsbl -0x8(%rbp),%ecx
    825d:	99                   	cltd   
    825e:	f7 f9                	idiv   %ecx
    8260:	89 d0                	mov    %edx,%eax
    8262:	eb 04                	jmp    8268 <safe_mod_func_int8_t_s_s+0x37>
    8264:	0f b6 45 fc          	movzbl -0x4(%rbp),%eax
    8268:	5d                   	pop    %rbp
    8269:	c3                   	retq   

000000000000826a <safe_div_func_int8_t_s_s>:
    826a:	f3 0f 1e fa          	endbr64 
    826e:	55                   	push   %rbp
    826f:	48 89 e5             	mov    %rsp,%rbp
    8272:	89 fa                	mov    %edi,%edx
    8274:	89 f0                	mov    %esi,%eax
    8276:	88 55 fc             	mov    %dl,-0x4(%rbp)
    8279:	88 45 f8             	mov    %al,-0x8(%rbp)
    827c:	80 7d f8 00          	cmpb   $0x0,-0x8(%rbp)
    8280:	74 19                	je     829b <safe_div_func_int8_t_s_s+0x31>
    8282:	80 7d fc 80          	cmpb   $0x80,-0x4(%rbp)
    8286:	75 06                	jne    828e <safe_div_func_int8_t_s_s+0x24>
    8288:	80 7d f8 ff          	cmpb   $0xff,-0x8(%rbp)
    828c:	74 0d                	je     829b <safe_div_func_int8_t_s_s+0x31>
    828e:	0f be 45 fc          	movsbl -0x4(%rbp),%eax
    8292:	0f be 4d f8          	movsbl -0x8(%rbp),%ecx
    8296:	99                   	cltd   
    8297:	f7 f9                	idiv   %ecx
    8299:	eb 04                	jmp    829f <safe_div_func_int8_t_s_s+0x35>
    829b:	0f b6 45 fc          	movzbl -0x4(%rbp),%eax
    829f:	5d                   	pop    %rbp
    82a0:	c3                   	retq   

00000000000082a1 <safe_lshift_func_int8_t_s_s>:
    82a1:	f3 0f 1e fa          	endbr64 
    82a5:	55                   	push   %rbp
    82a6:	48 89 e5             	mov    %rsp,%rbp
    82a9:	89 f8                	mov    %edi,%eax
    82ab:	89 75 f8             	mov    %esi,-0x8(%rbp)
    82ae:	88 45 fc             	mov    %al,-0x4(%rbp)
    82b1:	80 7d fc 00          	cmpb   $0x0,-0x4(%rbp)
    82b5:	78 31                	js     82e8 <safe_lshift_func_int8_t_s_s+0x47>
    82b7:	83 7d f8 00          	cmpl   $0x0,-0x8(%rbp)
    82bb:	78 2b                	js     82e8 <safe_lshift_func_int8_t_s_s+0x47>
    82bd:	83 7d f8 1f          	cmpl   $0x1f,-0x8(%rbp)
    82c1:	7f 25                	jg     82e8 <safe_lshift_func_int8_t_s_s+0x47>
    82c3:	0f be 55 fc          	movsbl -0x4(%rbp),%edx
    82c7:	8b 45 f8             	mov    -0x8(%rbp),%eax
    82ca:	be 7f 00 00 00       	mov    $0x7f,%esi
    82cf:	89 c1                	mov    %eax,%ecx
    82d1:	d3 fe                	sar    %cl,%esi
    82d3:	89 f0                	mov    %esi,%eax
    82d5:	39 c2                	cmp    %eax,%edx
    82d7:	7f 0f                	jg     82e8 <safe_lshift_func_int8_t_s_s+0x47>
    82d9:	0f be 55 fc          	movsbl -0x4(%rbp),%edx
    82dd:	8b 45 f8             	mov    -0x8(%rbp),%eax
    82e0:	89 c1                	mov    %eax,%ecx
    82e2:	d3 e2                	shl    %cl,%edx
    82e4:	89 d0                	mov    %edx,%eax
    82e6:	eb 04                	jmp    82ec <safe_lshift_func_int8_t_s_s+0x4b>
    82e8:	0f b6 45 fc          	movzbl -0x4(%rbp),%eax
    82ec:	5d                   	pop    %rbp
    82ed:	c3                   	retq   

00000000000082ee <safe_lshift_func_int8_t_s_u>:
    82ee:	f3 0f 1e fa          	endbr64 
    82f2:	55                   	push   %rbp
    82f3:	48 89 e5             	mov    %rsp,%rbp
    82f6:	89 f8                	mov    %edi,%eax
    82f8:	89 75 f8             	mov    %esi,-0x8(%rbp)
    82fb:	88 45 fc             	mov    %al,-0x4(%rbp)
    82fe:	80 7d fc 00          	cmpb   $0x0,-0x4(%rbp)
    8302:	78 2b                	js     832f <safe_lshift_func_int8_t_s_u+0x41>
    8304:	83 7d f8 1f          	cmpl   $0x1f,-0x8(%rbp)
    8308:	77 25                	ja     832f <safe_lshift_func_int8_t_s_u+0x41>
    830a:	0f be 55 fc          	movsbl -0x4(%rbp),%edx
    830e:	8b 45 f8             	mov    -0x8(%rbp),%eax
    8311:	be 7f 00 00 00       	mov    $0x7f,%esi
    8316:	89 c1                	mov    %eax,%ecx
    8318:	d3 fe                	sar    %cl,%esi
    831a:	89 f0                	mov    %esi,%eax
    831c:	39 c2                	cmp    %eax,%edx
    831e:	7f 0f                	jg     832f <safe_lshift_func_int8_t_s_u+0x41>
    8320:	0f be 55 fc          	movsbl -0x4(%rbp),%edx
    8324:	8b 45 f8             	mov    -0x8(%rbp),%eax
    8327:	89 c1                	mov    %eax,%ecx
    8329:	d3 e2                	shl    %cl,%edx
    832b:	89 d0                	mov    %edx,%eax
    832d:	eb 04                	jmp    8333 <safe_lshift_func_int8_t_s_u+0x45>
    832f:	0f b6 45 fc          	movzbl -0x4(%rbp),%eax
    8333:	5d                   	pop    %rbp
    8334:	c3                   	retq   

0000000000008335 <safe_rshift_func_int8_t_s_s>:
    8335:	f3 0f 1e fa          	endbr64 
    8339:	55                   	push   %rbp
    833a:	48 89 e5             	mov    %rsp,%rbp
    833d:	89 f8                	mov    %edi,%eax
    833f:	89 75 f8             	mov    %esi,-0x8(%rbp)
    8342:	88 45 fc             	mov    %al,-0x4(%rbp)
    8345:	80 7d fc 00          	cmpb   $0x0,-0x4(%rbp)
    8349:	78 1b                	js     8366 <safe_rshift_func_int8_t_s_s+0x31>
    834b:	83 7d f8 00          	cmpl   $0x0,-0x8(%rbp)
    834f:	78 15                	js     8366 <safe_rshift_func_int8_t_s_s+0x31>
    8351:	83 7d f8 1f          	cmpl   $0x1f,-0x8(%rbp)
    8355:	7f 0f                	jg     8366 <safe_rshift_func_int8_t_s_s+0x31>
    8357:	0f be 55 fc          	movsbl -0x4(%rbp),%edx
    835b:	8b 45 f8             	mov    -0x8(%rbp),%eax
    835e:	89 c1                	mov    %eax,%ecx
    8360:	d3 fa                	sar    %cl,%edx
    8362:	89 d0                	mov    %edx,%eax
    8364:	eb 04                	jmp    836a <safe_rshift_func_int8_t_s_s+0x35>
    8366:	0f b6 45 fc          	movzbl -0x4(%rbp),%eax
    836a:	5d                   	pop    %rbp
    836b:	c3                   	retq   

000000000000836c <safe_rshift_func_int8_t_s_u>:
    836c:	f3 0f 1e fa          	endbr64 
    8370:	55                   	push   %rbp
    8371:	48 89 e5             	mov    %rsp,%rbp
    8374:	89 f8                	mov    %edi,%eax
    8376:	89 75 f8             	mov    %esi,-0x8(%rbp)
    8379:	88 45 fc             	mov    %al,-0x4(%rbp)
    837c:	80 7d fc 00          	cmpb   $0x0,-0x4(%rbp)
    8380:	78 15                	js     8397 <safe_rshift_func_int8_t_s_u+0x2b>
    8382:	83 7d f8 1f          	cmpl   $0x1f,-0x8(%rbp)
    8386:	77 0f                	ja     8397 <safe_rshift_func_int8_t_s_u+0x2b>
    8388:	0f be 55 fc          	movsbl -0x4(%rbp),%edx
    838c:	8b 45 f8             	mov    -0x8(%rbp),%eax
    838f:	89 c1                	mov    %eax,%ecx
    8391:	d3 fa                	sar    %cl,%edx
    8393:	89 d0                	mov    %edx,%eax
    8395:	eb 04                	jmp    839b <safe_rshift_func_int8_t_s_u+0x2f>
    8397:	0f b6 45 fc          	movzbl -0x4(%rbp),%eax
    839b:	5d                   	pop    %rbp
    839c:	c3                   	retq   

000000000000839d <safe_unary_minus_func_int16_t_s>:
    839d:	f3 0f 1e fa          	endbr64 
    83a1:	55                   	push   %rbp
    83a2:	48 89 e5             	mov    %rsp,%rbp
    83a5:	89 f8                	mov    %edi,%eax
    83a7:	66 89 45 fc          	mov    %ax,-0x4(%rbp)
    83ab:	0f b7 45 fc          	movzwl -0x4(%rbp),%eax
    83af:	f7 d8                	neg    %eax
    83b1:	5d                   	pop    %rbp
    83b2:	c3                   	retq   

00000000000083b3 <safe_add_func_int16_t_s_s>:
    83b3:	f3 0f 1e fa          	endbr64 
    83b7:	55                   	push   %rbp
    83b8:	48 89 e5             	mov    %rsp,%rbp
    83bb:	89 fa                	mov    %edi,%edx
    83bd:	89 f0                	mov    %esi,%eax
    83bf:	66 89 55 fc          	mov    %dx,-0x4(%rbp)
    83c3:	66 89 45 f8          	mov    %ax,-0x8(%rbp)
    83c7:	0f b7 55 fc          	movzwl -0x4(%rbp),%edx
    83cb:	0f b7 45 f8          	movzwl -0x8(%rbp),%eax
    83cf:	01 d0                	add    %edx,%eax
    83d1:	5d                   	pop    %rbp
    83d2:	c3                   	retq   

00000000000083d3 <safe_sub_func_int16_t_s_s>:
    83d3:	f3 0f 1e fa          	endbr64 
    83d7:	55                   	push   %rbp
    83d8:	48 89 e5             	mov    %rsp,%rbp
    83db:	89 fa                	mov    %edi,%edx
    83dd:	89 f0                	mov    %esi,%eax
    83df:	66 89 55 fc          	mov    %dx,-0x4(%rbp)
    83e3:	66 89 45 f8          	mov    %ax,-0x8(%rbp)
    83e7:	0f b7 55 fc          	movzwl -0x4(%rbp),%edx
    83eb:	0f b7 45 f8          	movzwl -0x8(%rbp),%eax
    83ef:	29 c2                	sub    %eax,%edx
    83f1:	89 d0                	mov    %edx,%eax
    83f3:	5d                   	pop    %rbp
    83f4:	c3                   	retq   

00000000000083f5 <safe_mul_func_int16_t_s_s>:
    83f5:	f3 0f 1e fa          	endbr64 
    83f9:	55                   	push   %rbp
    83fa:	48 89 e5             	mov    %rsp,%rbp
    83fd:	89 fa                	mov    %edi,%edx
    83ff:	89 f0                	mov    %esi,%eax
    8401:	66 89 55 fc          	mov    %dx,-0x4(%rbp)
    8405:	66 89 45 f8          	mov    %ax,-0x8(%rbp)
    8409:	0f b7 55 fc          	movzwl -0x4(%rbp),%edx
    840d:	0f b7 45 f8          	movzwl -0x8(%rbp),%eax
    8411:	0f af c2             	imul   %edx,%eax
    8414:	5d                   	pop    %rbp
    8415:	c3                   	retq   

0000000000008416 <safe_mod_func_int16_t_s_s>:
    8416:	f3 0f 1e fa          	endbr64 
    841a:	55                   	push   %rbp
    841b:	48 89 e5             	mov    %rsp,%rbp
    841e:	89 fa                	mov    %edi,%edx
    8420:	89 f0                	mov    %esi,%eax
    8422:	66 89 55 fc          	mov    %dx,-0x4(%rbp)
    8426:	66 89 45 f8          	mov    %ax,-0x8(%rbp)
    842a:	66 83 7d f8 00       	cmpw   $0x0,-0x8(%rbp)
    842f:	74 1e                	je     844f <safe_mod_func_int16_t_s_s+0x39>
    8431:	66 81 7d fc 00 80    	cmpw   $0x8000,-0x4(%rbp)
    8437:	75 07                	jne    8440 <safe_mod_func_int16_t_s_s+0x2a>
    8439:	66 83 7d f8 ff       	cmpw   $0xffff,-0x8(%rbp)
    843e:	74 0f                	je     844f <safe_mod_func_int16_t_s_s+0x39>
    8440:	0f bf 45 fc          	movswl -0x4(%rbp),%eax
    8444:	0f bf 4d f8          	movswl -0x8(%rbp),%ecx
    8448:	99                   	cltd   
    8449:	f7 f9                	idiv   %ecx
    844b:	89 d0                	mov    %edx,%eax
    844d:	eb 04                	jmp    8453 <safe_mod_func_int16_t_s_s+0x3d>
    844f:	0f b7 45 fc          	movzwl -0x4(%rbp),%eax
    8453:	5d                   	pop    %rbp
    8454:	c3                   	retq   

0000000000008455 <safe_div_func_int16_t_s_s>:
    8455:	f3 0f 1e fa          	endbr64 
    8459:	55                   	push   %rbp
    845a:	48 89 e5             	mov    %rsp,%rbp
    845d:	89 fa                	mov    %edi,%edx
    845f:	89 f0                	mov    %esi,%eax
    8461:	66 89 55 fc          	mov    %dx,-0x4(%rbp)
    8465:	66 89 45 f8          	mov    %ax,-0x8(%rbp)
    8469:	66 83 7d f8 00       	cmpw   $0x0,-0x8(%rbp)
    846e:	74 1c                	je     848c <safe_div_func_int16_t_s_s+0x37>
    8470:	66 81 7d fc 00 80    	cmpw   $0x8000,-0x4(%rbp)
    8476:	75 07                	jne    847f <safe_div_func_int16_t_s_s+0x2a>
    8478:	66 83 7d f8 ff       	cmpw   $0xffff,-0x8(%rbp)
    847d:	74 0d                	je     848c <safe_div_func_int16_t_s_s+0x37>
    847f:	0f bf 45 fc          	movswl -0x4(%rbp),%eax
    8483:	0f bf 4d f8          	movswl -0x8(%rbp),%ecx
    8487:	99                   	cltd   
    8488:	f7 f9                	idiv   %ecx
    848a:	eb 04                	jmp    8490 <safe_div_func_int16_t_s_s+0x3b>
    848c:	0f b7 45 fc          	movzwl -0x4(%rbp),%eax
    8490:	5d                   	pop    %rbp
    8491:	c3                   	retq   

0000000000008492 <safe_lshift_func_int16_t_s_s>:
    8492:	f3 0f 1e fa          	endbr64 
    8496:	55                   	push   %rbp
    8497:	48 89 e5             	mov    %rsp,%rbp
    849a:	89 f8                	mov    %edi,%eax
    849c:	89 75 f8             	mov    %esi,-0x8(%rbp)
    849f:	66 89 45 fc          	mov    %ax,-0x4(%rbp)
    84a3:	66 83 7d fc 00       	cmpw   $0x0,-0x4(%rbp)
    84a8:	78 31                	js     84db <safe_lshift_func_int16_t_s_s+0x49>
    84aa:	83 7d f8 00          	cmpl   $0x0,-0x8(%rbp)
    84ae:	78 2b                	js     84db <safe_lshift_func_int16_t_s_s+0x49>
    84b0:	83 7d f8 1f          	cmpl   $0x1f,-0x8(%rbp)
    84b4:	7f 25                	jg     84db <safe_lshift_func_int16_t_s_s+0x49>
    84b6:	0f bf 55 fc          	movswl -0x4(%rbp),%edx
    84ba:	8b 45 f8             	mov    -0x8(%rbp),%eax
    84bd:	be ff 7f 00 00       	mov    $0x7fff,%esi
    84c2:	89 c1                	mov    %eax,%ecx
    84c4:	d3 fe                	sar    %cl,%esi
    84c6:	89 f0                	mov    %esi,%eax
    84c8:	39 c2                	cmp    %eax,%edx
    84ca:	7f 0f                	jg     84db <safe_lshift_func_int16_t_s_s+0x49>
    84cc:	0f bf 55 fc          	movswl -0x4(%rbp),%edx
    84d0:	8b 45 f8             	mov    -0x8(%rbp),%eax
    84d3:	89 c1                	mov    %eax,%ecx
    84d5:	d3 e2                	shl    %cl,%edx
    84d7:	89 d0                	mov    %edx,%eax
    84d9:	eb 04                	jmp    84df <safe_lshift_func_int16_t_s_s+0x4d>
    84db:	0f b7 45 fc          	movzwl -0x4(%rbp),%eax
    84df:	5d                   	pop    %rbp
    84e0:	c3                   	retq   

00000000000084e1 <safe_lshift_func_int16_t_s_u>:
    84e1:	f3 0f 1e fa          	endbr64 
    84e5:	55                   	push   %rbp
    84e6:	48 89 e5             	mov    %rsp,%rbp
    84e9:	89 f8                	mov    %edi,%eax
    84eb:	89 75 f8             	mov    %esi,-0x8(%rbp)
    84ee:	66 89 45 fc          	mov    %ax,-0x4(%rbp)
    84f2:	66 83 7d fc 00       	cmpw   $0x0,-0x4(%rbp)
    84f7:	78 2b                	js     8524 <safe_lshift_func_int16_t_s_u+0x43>
    84f9:	83 7d f8 1f          	cmpl   $0x1f,-0x8(%rbp)
    84fd:	77 25                	ja     8524 <safe_lshift_func_int16_t_s_u+0x43>
    84ff:	0f bf 55 fc          	movswl -0x4(%rbp),%edx
    8503:	8b 45 f8             	mov    -0x8(%rbp),%eax
    8506:	be ff 7f 00 00       	mov    $0x7fff,%esi
    850b:	89 c1                	mov    %eax,%ecx
    850d:	d3 fe                	sar    %cl,%esi
    850f:	89 f0                	mov    %esi,%eax
    8511:	39 c2                	cmp    %eax,%edx
    8513:	7f 0f                	jg     8524 <safe_lshift_func_int16_t_s_u+0x43>
    8515:	0f bf 55 fc          	movswl -0x4(%rbp),%edx
    8519:	8b 45 f8             	mov    -0x8(%rbp),%eax
    851c:	89 c1                	mov    %eax,%ecx
    851e:	d3 e2                	shl    %cl,%edx
    8520:	89 d0                	mov    %edx,%eax
    8522:	eb 04                	jmp    8528 <safe_lshift_func_int16_t_s_u+0x47>
    8524:	0f b7 45 fc          	movzwl -0x4(%rbp),%eax
    8528:	5d                   	pop    %rbp
    8529:	c3                   	retq   

000000000000852a <safe_rshift_func_int16_t_s_s>:
    852a:	f3 0f 1e fa          	endbr64 
    852e:	55                   	push   %rbp
    852f:	48 89 e5             	mov    %rsp,%rbp
    8532:	89 f8                	mov    %edi,%eax
    8534:	89 75 f8             	mov    %esi,-0x8(%rbp)
    8537:	66 89 45 fc          	mov    %ax,-0x4(%rbp)
    853b:	66 83 7d fc 00       	cmpw   $0x0,-0x4(%rbp)
    8540:	78 1b                	js     855d <safe_rshift_func_int16_t_s_s+0x33>
    8542:	83 7d f8 00          	cmpl   $0x0,-0x8(%rbp)
    8546:	78 15                	js     855d <safe_rshift_func_int16_t_s_s+0x33>
    8548:	83 7d f8 1f          	cmpl   $0x1f,-0x8(%rbp)
    854c:	7f 0f                	jg     855d <safe_rshift_func_int16_t_s_s+0x33>
    854e:	0f bf 55 fc          	movswl -0x4(%rbp),%edx
    8552:	8b 45 f8             	mov    -0x8(%rbp),%eax
    8555:	89 c1                	mov    %eax,%ecx
    8557:	d3 fa                	sar    %cl,%edx
    8559:	89 d0                	mov    %edx,%eax
    855b:	eb 04                	jmp    8561 <safe_rshift_func_int16_t_s_s+0x37>
    855d:	0f b7 45 fc          	movzwl -0x4(%rbp),%eax
    8561:	5d                   	pop    %rbp
    8562:	c3                   	retq   

0000000000008563 <safe_rshift_func_int16_t_s_u>:
    8563:	f3 0f 1e fa          	endbr64 
    8567:	55                   	push   %rbp
    8568:	48 89 e5             	mov    %rsp,%rbp
    856b:	89 f8                	mov    %edi,%eax
    856d:	89 75 f8             	mov    %esi,-0x8(%rbp)
    8570:	66 89 45 fc          	mov    %ax,-0x4(%rbp)
    8574:	66 83 7d fc 00       	cmpw   $0x0,-0x4(%rbp)
    8579:	78 15                	js     8590 <safe_rshift_func_int16_t_s_u+0x2d>
    857b:	83 7d f8 1f          	cmpl   $0x1f,-0x8(%rbp)
    857f:	77 0f                	ja     8590 <safe_rshift_func_int16_t_s_u+0x2d>
    8581:	0f bf 55 fc          	movswl -0x4(%rbp),%edx
    8585:	8b 45 f8             	mov    -0x8(%rbp),%eax
    8588:	89 c1                	mov    %eax,%ecx
    858a:	d3 fa                	sar    %cl,%edx
    858c:	89 d0                	mov    %edx,%eax
    858e:	eb 04                	jmp    8594 <safe_rshift_func_int16_t_s_u+0x31>
    8590:	0f b7 45 fc          	movzwl -0x4(%rbp),%eax
    8594:	5d                   	pop    %rbp
    8595:	c3                   	retq   

0000000000008596 <safe_unary_minus_func_int32_t_s>:
    8596:	f3 0f 1e fa          	endbr64 
    859a:	55                   	push   %rbp
    859b:	48 89 e5             	mov    %rsp,%rbp
    859e:	89 7d fc             	mov    %edi,-0x4(%rbp)
    85a1:	81 7d fc 00 00 00 80 	cmpl   $0x80000000,-0x4(%rbp)
    85a8:	74 07                	je     85b1 <safe_unary_minus_func_int32_t_s+0x1b>
    85aa:	8b 45 fc             	mov    -0x4(%rbp),%eax
    85ad:	f7 d8                	neg    %eax
    85af:	eb 03                	jmp    85b4 <safe_unary_minus_func_int32_t_s+0x1e>
    85b1:	8b 45 fc             	mov    -0x4(%rbp),%eax
    85b4:	5d                   	pop    %rbp
    85b5:	c3                   	retq   

00000000000085b6 <safe_add_func_int32_t_s_s>:
    85b6:	f3 0f 1e fa          	endbr64 
    85ba:	55                   	push   %rbp
    85bb:	48 89 e5             	mov    %rsp,%rbp
    85be:	89 7d fc             	mov    %edi,-0x4(%rbp)
    85c1:	89 75 f8             	mov    %esi,-0x8(%rbp)
    85c4:	83 7d fc 00          	cmpl   $0x0,-0x4(%rbp)
    85c8:	7e 13                	jle    85dd <safe_add_func_int32_t_s_s+0x27>
    85ca:	83 7d f8 00          	cmpl   $0x0,-0x8(%rbp)
    85ce:	7e 0d                	jle    85dd <safe_add_func_int32_t_s_s+0x27>
    85d0:	b8 ff ff ff 7f       	mov    $0x7fffffff,%eax
    85d5:	2b 45 f8             	sub    -0x8(%rbp),%eax
    85d8:	39 45 fc             	cmp    %eax,-0x4(%rbp)
    85db:	7f 23                	jg     8600 <safe_add_func_int32_t_s_s+0x4a>
    85dd:	83 7d fc 00          	cmpl   $0x0,-0x4(%rbp)
    85e1:	79 13                	jns    85f6 <safe_add_func_int32_t_s_s+0x40>
    85e3:	83 7d f8 00          	cmpl   $0x0,-0x8(%rbp)
    85e7:	79 0d                	jns    85f6 <safe_add_func_int32_t_s_s+0x40>
    85e9:	b8 00 00 00 80       	mov    $0x80000000,%eax
    85ee:	2b 45 f8             	sub    -0x8(%rbp),%eax
    85f1:	39 45 fc             	cmp    %eax,-0x4(%rbp)
    85f4:	7c 0a                	jl     8600 <safe_add_func_int32_t_s_s+0x4a>
    85f6:	8b 55 fc             	mov    -0x4(%rbp),%edx
    85f9:	8b 45 f8             	mov    -0x8(%rbp),%eax
    85fc:	01 d0                	add    %edx,%eax
    85fe:	eb 03                	jmp    8603 <safe_add_func_int32_t_s_s+0x4d>
    8600:	8b 45 fc             	mov    -0x4(%rbp),%eax
    8603:	5d                   	pop    %rbp
    8604:	c3                   	retq   

0000000000008605 <safe_sub_func_int32_t_s_s>:
    8605:	f3 0f 1e fa          	endbr64 
    8609:	55                   	push   %rbp
    860a:	48 89 e5             	mov    %rsp,%rbp
    860d:	89 7d fc             	mov    %edi,-0x4(%rbp)
    8610:	89 75 f8             	mov    %esi,-0x8(%rbp)
    8613:	8b 45 fc             	mov    -0x4(%rbp),%eax
    8616:	33 45 f8             	xor    -0x8(%rbp),%eax
    8619:	89 c2                	mov    %eax,%edx
    861b:	8b 45 fc             	mov    -0x4(%rbp),%eax
    861e:	33 45 f8             	xor    -0x8(%rbp),%eax
    8621:	25 00 00 00 80       	and    $0x80000000,%eax
    8626:	33 45 fc             	xor    -0x4(%rbp),%eax
    8629:	2b 45 f8             	sub    -0x8(%rbp),%eax
    862c:	33 45 f8             	xor    -0x8(%rbp),%eax
    862f:	21 d0                	and    %edx,%eax
    8631:	85 c0                	test   %eax,%eax
    8633:	78 08                	js     863d <safe_sub_func_int32_t_s_s+0x38>
    8635:	8b 45 fc             	mov    -0x4(%rbp),%eax
    8638:	2b 45 f8             	sub    -0x8(%rbp),%eax
    863b:	eb 03                	jmp    8640 <safe_sub_func_int32_t_s_s+0x3b>
    863d:	8b 45 fc             	mov    -0x4(%rbp),%eax
    8640:	5d                   	pop    %rbp
    8641:	c3                   	retq   

0000000000008642 <safe_mul_func_int32_t_s_s>:
    8642:	f3 0f 1e fa          	endbr64 
    8646:	55                   	push   %rbp
    8647:	48 89 e5             	mov    %rsp,%rbp
    864a:	89 7d fc             	mov    %edi,-0x4(%rbp)
    864d:	89 75 f8             	mov    %esi,-0x8(%rbp)
    8650:	83 7d fc 00          	cmpl   $0x0,-0x4(%rbp)
    8654:	7e 14                	jle    866a <safe_mul_func_int32_t_s_s+0x28>
    8656:	83 7d f8 00          	cmpl   $0x0,-0x8(%rbp)
    865a:	7e 0e                	jle    866a <safe_mul_func_int32_t_s_s+0x28>
    865c:	b8 ff ff ff 7f       	mov    $0x7fffffff,%eax
    8661:	99                   	cltd   
    8662:	f7 7d f8             	idivl  -0x8(%rbp)
    8665:	39 45 fc             	cmp    %eax,-0x4(%rbp)
    8668:	7f 5d                	jg     86c7 <safe_mul_func_int32_t_s_s+0x85>
    866a:	83 7d fc 00          	cmpl   $0x0,-0x4(%rbp)
    866e:	7e 14                	jle    8684 <safe_mul_func_int32_t_s_s+0x42>
    8670:	83 7d f8 00          	cmpl   $0x0,-0x8(%rbp)
    8674:	7f 0e                	jg     8684 <safe_mul_func_int32_t_s_s+0x42>
    8676:	b8 00 00 00 80       	mov    $0x80000000,%eax
    867b:	99                   	cltd   
    867c:	f7 7d fc             	idivl  -0x4(%rbp)
    867f:	39 45 f8             	cmp    %eax,-0x8(%rbp)
    8682:	7c 43                	jl     86c7 <safe_mul_func_int32_t_s_s+0x85>
    8684:	83 7d fc 00          	cmpl   $0x0,-0x4(%rbp)
    8688:	7f 14                	jg     869e <safe_mul_func_int32_t_s_s+0x5c>
    868a:	83 7d f8 00          	cmpl   $0x0,-0x8(%rbp)
    868e:	7e 0e                	jle    869e <safe_mul_func_int32_t_s_s+0x5c>
    8690:	b8 00 00 00 80       	mov    $0x80000000,%eax
    8695:	99                   	cltd   
    8696:	f7 7d f8             	idivl  -0x8(%rbp)
    8699:	39 45 fc             	cmp    %eax,-0x4(%rbp)
    869c:	7c 29                	jl     86c7 <safe_mul_func_int32_t_s_s+0x85>
    869e:	83 7d fc 00          	cmpl   $0x0,-0x4(%rbp)
    86a2:	7f 1a                	jg     86be <safe_mul_func_int32_t_s_s+0x7c>
    86a4:	83 7d f8 00          	cmpl   $0x0,-0x8(%rbp)
    86a8:	7f 14                	jg     86be <safe_mul_func_int32_t_s_s+0x7c>
    86aa:	83 7d fc 00          	cmpl   $0x0,-0x4(%rbp)
    86ae:	74 0e                	je     86be <safe_mul_func_int32_t_s_s+0x7c>
    86b0:	b8 ff ff ff 7f       	mov    $0x7fffffff,%eax
    86b5:	99                   	cltd   
    86b6:	f7 7d fc             	idivl  -0x4(%rbp)
    86b9:	39 45 f8             	cmp    %eax,-0x8(%rbp)
    86bc:	7c 09                	jl     86c7 <safe_mul_func_int32_t_s_s+0x85>
    86be:	8b 45 fc             	mov    -0x4(%rbp),%eax
    86c1:	0f af 45 f8          	imul   -0x8(%rbp),%eax
    86c5:	eb 03                	jmp    86ca <safe_mul_func_int32_t_s_s+0x88>
    86c7:	8b 45 fc             	mov    -0x4(%rbp),%eax
    86ca:	5d                   	pop    %rbp
    86cb:	c3                   	retq   

00000000000086cc <safe_mod_func_int32_t_s_s>:
    86cc:	f3 0f 1e fa          	endbr64 
    86d0:	55                   	push   %rbp
    86d1:	48 89 e5             	mov    %rsp,%rbp
    86d4:	89 7d fc             	mov    %edi,-0x4(%rbp)
    86d7:	89 75 f8             	mov    %esi,-0x8(%rbp)
    86da:	83 7d f8 00          	cmpl   $0x0,-0x8(%rbp)
    86de:	74 1a                	je     86fa <safe_mod_func_int32_t_s_s+0x2e>
    86e0:	81 7d fc 00 00 00 80 	cmpl   $0x80000000,-0x4(%rbp)
    86e7:	75 06                	jne    86ef <safe_mod_func_int32_t_s_s+0x23>
    86e9:	83 7d f8 ff          	cmpl   $0xffffffff,-0x8(%rbp)
    86ed:	74 0b                	je     86fa <safe_mod_func_int32_t_s_s+0x2e>
    86ef:	8b 45 fc             	mov    -0x4(%rbp),%eax
    86f2:	99                   	cltd   
    86f3:	f7 7d f8             	idivl  -0x8(%rbp)
    86f6:	89 d0                	mov    %edx,%eax
    86f8:	eb 03                	jmp    86fd <safe_mod_func_int32_t_s_s+0x31>
    86fa:	8b 45 fc             	mov    -0x4(%rbp),%eax
    86fd:	5d                   	pop    %rbp
    86fe:	c3                   	retq   

00000000000086ff <safe_div_func_int32_t_s_s>:
    86ff:	f3 0f 1e fa          	endbr64 
    8703:	55                   	push   %rbp
    8704:	48 89 e5             	mov    %rsp,%rbp
    8707:	89 7d fc             	mov    %edi,-0x4(%rbp)
    870a:	89 75 f8             	mov    %esi,-0x8(%rbp)
    870d:	83 7d f8 00          	cmpl   $0x0,-0x8(%rbp)
    8711:	74 18                	je     872b <safe_div_func_int32_t_s_s+0x2c>
    8713:	81 7d fc 00 00 00 80 	cmpl   $0x80000000,-0x4(%rbp)
    871a:	75 06                	jne    8722 <safe_div_func_int32_t_s_s+0x23>
    871c:	83 7d f8 ff          	cmpl   $0xffffffff,-0x8(%rbp)
    8720:	74 09                	je     872b <safe_div_func_int32_t_s_s+0x2c>
    8722:	8b 45 fc             	mov    -0x4(%rbp),%eax
    8725:	99                   	cltd   
    8726:	f7 7d f8             	idivl  -0x8(%rbp)
    8729:	eb 03                	jmp    872e <safe_div_func_int32_t_s_s+0x2f>
    872b:	8b 45 fc             	mov    -0x4(%rbp),%eax
    872e:	5d                   	pop    %rbp
    872f:	c3                   	retq   

0000000000008730 <safe_lshift_func_int32_t_s_s>:
    8730:	f3 0f 1e fa          	endbr64 
    8734:	55                   	push   %rbp
    8735:	48 89 e5             	mov    %rsp,%rbp
    8738:	89 7d fc             	mov    %edi,-0x4(%rbp)
    873b:	89 75 f8             	mov    %esi,-0x8(%rbp)
    873e:	83 7d fc 00          	cmpl   $0x0,-0x4(%rbp)
    8742:	78 2d                	js     8771 <safe_lshift_func_int32_t_s_s+0x41>
    8744:	83 7d f8 00          	cmpl   $0x0,-0x8(%rbp)
    8748:	78 27                	js     8771 <safe_lshift_func_int32_t_s_s+0x41>
    874a:	83 7d f8 1f          	cmpl   $0x1f,-0x8(%rbp)
    874e:	7f 21                	jg     8771 <safe_lshift_func_int32_t_s_s+0x41>
    8750:	8b 45 f8             	mov    -0x8(%rbp),%eax
    8753:	ba ff ff ff 7f       	mov    $0x7fffffff,%edx
    8758:	89 c1                	mov    %eax,%ecx
    875a:	d3 fa                	sar    %cl,%edx
    875c:	89 d0                	mov    %edx,%eax
    875e:	39 45 fc             	cmp    %eax,-0x4(%rbp)
    8761:	7f 0e                	jg     8771 <safe_lshift_func_int32_t_s_s+0x41>
    8763:	8b 45 f8             	mov    -0x8(%rbp),%eax
    8766:	8b 55 fc             	mov    -0x4(%rbp),%edx
    8769:	89 c1                	mov    %eax,%ecx
    876b:	d3 e2                	shl    %cl,%edx
    876d:	89 d0                	mov    %edx,%eax
    876f:	eb 03                	jmp    8774 <safe_lshift_func_int32_t_s_s+0x44>
    8771:	8b 45 fc             	mov    -0x4(%rbp),%eax
    8774:	5d                   	pop    %rbp
    8775:	c3                   	retq   

0000000000008776 <safe_lshift_func_int32_t_s_u>:
    8776:	f3 0f 1e fa          	endbr64 
    877a:	55                   	push   %rbp
    877b:	48 89 e5             	mov    %rsp,%rbp
    877e:	89 7d fc             	mov    %edi,-0x4(%rbp)
    8781:	89 75 f8             	mov    %esi,-0x8(%rbp)
    8784:	83 7d fc 00          	cmpl   $0x0,-0x4(%rbp)
    8788:	78 27                	js     87b1 <safe_lshift_func_int32_t_s_u+0x3b>
    878a:	83 7d f8 1f          	cmpl   $0x1f,-0x8(%rbp)
    878e:	77 21                	ja     87b1 <safe_lshift_func_int32_t_s_u+0x3b>
    8790:	8b 45 f8             	mov    -0x8(%rbp),%eax
    8793:	ba ff ff ff 7f       	mov    $0x7fffffff,%edx
    8798:	89 c1                	mov    %eax,%ecx
    879a:	d3 fa                	sar    %cl,%edx
    879c:	89 d0                	mov    %edx,%eax
    879e:	39 45 fc             	cmp    %eax,-0x4(%rbp)
    87a1:	7f 0e                	jg     87b1 <safe_lshift_func_int32_t_s_u+0x3b>
    87a3:	8b 45 f8             	mov    -0x8(%rbp),%eax
    87a6:	8b 55 fc             	mov    -0x4(%rbp),%edx
    87a9:	89 c1                	mov    %eax,%ecx
    87ab:	d3 e2                	shl    %cl,%edx
    87ad:	89 d0                	mov    %edx,%eax
    87af:	eb 03                	jmp    87b4 <safe_lshift_func_int32_t_s_u+0x3e>
    87b1:	8b 45 fc             	mov    -0x4(%rbp),%eax
    87b4:	5d                   	pop    %rbp
    87b5:	c3                   	retq   

00000000000087b6 <safe_rshift_func_int32_t_s_s>:
    87b6:	f3 0f 1e fa          	endbr64 
    87ba:	55                   	push   %rbp
    87bb:	48 89 e5             	mov    %rsp,%rbp
    87be:	89 7d fc             	mov    %edi,-0x4(%rbp)
    87c1:	89 75 f8             	mov    %esi,-0x8(%rbp)
    87c4:	83 7d fc 00          	cmpl   $0x0,-0x4(%rbp)
    87c8:	78 1a                	js     87e4 <safe_rshift_func_int32_t_s_s+0x2e>
    87ca:	83 7d f8 00          	cmpl   $0x0,-0x8(%rbp)
    87ce:	78 14                	js     87e4 <safe_rshift_func_int32_t_s_s+0x2e>
    87d0:	83 7d f8 1f          	cmpl   $0x1f,-0x8(%rbp)
    87d4:	7f 0e                	jg     87e4 <safe_rshift_func_int32_t_s_s+0x2e>
    87d6:	8b 45 f8             	mov    -0x8(%rbp),%eax
    87d9:	8b 55 fc             	mov    -0x4(%rbp),%edx
    87dc:	89 c1                	mov    %eax,%ecx
    87de:	d3 fa                	sar    %cl,%edx
    87e0:	89 d0                	mov    %edx,%eax
    87e2:	eb 03                	jmp    87e7 <safe_rshift_func_int32_t_s_s+0x31>
    87e4:	8b 45 fc             	mov    -0x4(%rbp),%eax
    87e7:	5d                   	pop    %rbp
    87e8:	c3                   	retq   

00000000000087e9 <safe_rshift_func_int32_t_s_u>:
    87e9:	f3 0f 1e fa          	endbr64 
    87ed:	55                   	push   %rbp
    87ee:	48 89 e5             	mov    %rsp,%rbp
    87f1:	89 7d fc             	mov    %edi,-0x4(%rbp)
    87f4:	89 75 f8             	mov    %esi,-0x8(%rbp)
    87f7:	83 7d fc 00          	cmpl   $0x0,-0x4(%rbp)
    87fb:	78 14                	js     8811 <safe_rshift_func_int32_t_s_u+0x28>
    87fd:	83 7d f8 1f          	cmpl   $0x1f,-0x8(%rbp)
    8801:	77 0e                	ja     8811 <safe_rshift_func_int32_t_s_u+0x28>
    8803:	8b 45 f8             	mov    -0x8(%rbp),%eax
    8806:	8b 55 fc             	mov    -0x4(%rbp),%edx
    8809:	89 c1                	mov    %eax,%ecx
    880b:	d3 fa                	sar    %cl,%edx
    880d:	89 d0                	mov    %edx,%eax
    880f:	eb 03                	jmp    8814 <safe_rshift_func_int32_t_s_u+0x2b>
    8811:	8b 45 fc             	mov    -0x4(%rbp),%eax
    8814:	5d                   	pop    %rbp
    8815:	c3                   	retq   

0000000000008816 <safe_unary_minus_func_int64_t_s>:
    8816:	f3 0f 1e fa          	endbr64 
    881a:	55                   	push   %rbp
    881b:	48 89 e5             	mov    %rsp,%rbp
    881e:	48 89 7d f8          	mov    %rdi,-0x8(%rbp)
    8822:	48 b8 00 00 00 00 00 	movabs $0x8000000000000000,%rax
    8829:	00 00 80 
    882c:	48 39 45 f8          	cmp    %rax,-0x8(%rbp)
    8830:	74 09                	je     883b <safe_unary_minus_func_int64_t_s+0x25>
    8832:	48 8b 45 f8          	mov    -0x8(%rbp),%rax
    8836:	48 f7 d8             	neg    %rax
    8839:	eb 04                	jmp    883f <safe_unary_minus_func_int64_t_s+0x29>
    883b:	48 8b 45 f8          	mov    -0x8(%rbp),%rax
    883f:	5d                   	pop    %rbp
    8840:	c3                   	retq   

0000000000008841 <safe_add_func_int64_t_s_s>:
    8841:	f3 0f 1e fa          	endbr64 
    8845:	55                   	push   %rbp
    8846:	48 89 e5             	mov    %rsp,%rbp
    8849:	48 89 7d f8          	mov    %rdi,-0x8(%rbp)
    884d:	48 89 75 f0          	mov    %rsi,-0x10(%rbp)
    8851:	48 83 7d f8 00       	cmpq   $0x0,-0x8(%rbp)
    8856:	7e 1b                	jle    8873 <safe_add_func_int64_t_s_s+0x32>
    8858:	48 83 7d f0 00       	cmpq   $0x0,-0x10(%rbp)
    885d:	7e 14                	jle    8873 <safe_add_func_int64_t_s_s+0x32>
    885f:	48 b8 ff ff ff ff ff 	movabs $0x7fffffffffffffff,%rax
    8866:	ff ff 7f 
    8869:	48 2b 45 f0          	sub    -0x10(%rbp),%rax
    886d:	48 39 45 f8          	cmp    %rax,-0x8(%rbp)
    8871:	7f 2f                	jg     88a2 <safe_add_func_int64_t_s_s+0x61>
    8873:	48 83 7d f8 00       	cmpq   $0x0,-0x8(%rbp)
    8878:	79 1b                	jns    8895 <safe_add_func_int64_t_s_s+0x54>
    887a:	48 83 7d f0 00       	cmpq   $0x0,-0x10(%rbp)
    887f:	79 14                	jns    8895 <safe_add_func_int64_t_s_s+0x54>
    8881:	48 b8 00 00 00 00 00 	movabs $0x8000000000000000,%rax
    8888:	00 00 80 
    888b:	48 2b 45 f0          	sub    -0x10(%rbp),%rax
    888f:	48 39 45 f8          	cmp    %rax,-0x8(%rbp)
    8893:	7c 0d                	jl     88a2 <safe_add_func_int64_t_s_s+0x61>
    8895:	48 8b 55 f8          	mov    -0x8(%rbp),%rdx
    8899:	48 8b 45 f0          	mov    -0x10(%rbp),%rax
    889d:	48 01 d0             	add    %rdx,%rax
    88a0:	eb 04                	jmp    88a6 <safe_add_func_int64_t_s_s+0x65>
    88a2:	48 8b 45 f8          	mov    -0x8(%rbp),%rax
    88a6:	5d                   	pop    %rbp
    88a7:	c3                   	retq   

00000000000088a8 <safe_sub_func_int64_t_s_s>:
    88a8:	f3 0f 1e fa          	endbr64 
    88ac:	55                   	push   %rbp
    88ad:	48 89 e5             	mov    %rsp,%rbp
    88b0:	48 89 7d f8          	mov    %rdi,-0x8(%rbp)
    88b4:	48 89 75 f0          	mov    %rsi,-0x10(%rbp)
    88b8:	48 8b 45 f8          	mov    -0x8(%rbp),%rax
    88bc:	48 33 45 f0          	xor    -0x10(%rbp),%rax
    88c0:	48 89 c2             	mov    %rax,%rdx
    88c3:	48 8b 45 f8          	mov    -0x8(%rbp),%rax
    88c7:	48 33 45 f0          	xor    -0x10(%rbp),%rax
    88cb:	48 b9 00 00 00 00 00 	movabs $0x8000000000000000,%rcx
    88d2:	00 00 80 
    88d5:	48 21 c8             	and    %rcx,%rax
    88d8:	48 33 45 f8          	xor    -0x8(%rbp),%rax
    88dc:	48 2b 45 f0          	sub    -0x10(%rbp),%rax
    88e0:	48 33 45 f0          	xor    -0x10(%rbp),%rax
    88e4:	48 21 d0             	and    %rdx,%rax
    88e7:	48 85 c0             	test   %rax,%rax
    88ea:	78 0a                	js     88f6 <safe_sub_func_int64_t_s_s+0x4e>
    88ec:	48 8b 45 f8          	mov    -0x8(%rbp),%rax
    88f0:	48 2b 45 f0          	sub    -0x10(%rbp),%rax
    88f4:	eb 04                	jmp    88fa <safe_sub_func_int64_t_s_s+0x52>
    88f6:	48 8b 45 f8          	mov    -0x8(%rbp),%rax
    88fa:	5d                   	pop    %rbp
    88fb:	c3                   	retq   

00000000000088fc <safe_mul_func_int64_t_s_s>:
    88fc:	f3 0f 1e fa          	endbr64 
    8900:	55                   	push   %rbp
    8901:	48 89 e5             	mov    %rsp,%rbp
    8904:	48 89 7d f8          	mov    %rdi,-0x8(%rbp)
    8908:	48 89 75 f0          	mov    %rsi,-0x10(%rbp)
    890c:	48 83 7d f8 00       	cmpq   $0x0,-0x8(%rbp)
    8911:	7e 1d                	jle    8930 <safe_mul_func_int64_t_s_s+0x34>
    8913:	48 83 7d f0 00       	cmpq   $0x0,-0x10(%rbp)
    8918:	7e 16                	jle    8930 <safe_mul_func_int64_t_s_s+0x34>
    891a:	48 b8 ff ff ff ff ff 	movabs $0x7fffffffffffffff,%rax
    8921:	ff ff 7f 
    8924:	48 99                	cqto   
    8926:	48 f7 7d f0          	idivq  -0x10(%rbp)
    892a:	48 39 45 f8          	cmp    %rax,-0x8(%rbp)
    892e:	7f 7e                	jg     89ae <safe_mul_func_int64_t_s_s+0xb2>
    8930:	48 83 7d f8 00       	cmpq   $0x0,-0x8(%rbp)
    8935:	7e 1d                	jle    8954 <safe_mul_func_int64_t_s_s+0x58>
    8937:	48 83 7d f0 00       	cmpq   $0x0,-0x10(%rbp)
    893c:	7f 16                	jg     8954 <safe_mul_func_int64_t_s_s+0x58>
    893e:	48 b8 00 00 00 00 00 	movabs $0x8000000000000000,%rax
    8945:	00 00 80 
    8948:	48 99                	cqto   
    894a:	48 f7 7d f8          	idivq  -0x8(%rbp)
    894e:	48 39 45 f0          	cmp    %rax,-0x10(%rbp)
    8952:	7c 5a                	jl     89ae <safe_mul_func_int64_t_s_s+0xb2>
    8954:	48 83 7d f8 00       	cmpq   $0x0,-0x8(%rbp)
    8959:	7f 1d                	jg     8978 <safe_mul_func_int64_t_s_s+0x7c>
    895b:	48 83 7d f0 00       	cmpq   $0x0,-0x10(%rbp)
    8960:	7e 16                	jle    8978 <safe_mul_func_int64_t_s_s+0x7c>
    8962:	48 b8 00 00 00 00 00 	movabs $0x8000000000000000,%rax
    8969:	00 00 80 
    896c:	48 99                	cqto   
    896e:	48 f7 7d f0          	idivq  -0x10(%rbp)
    8972:	48 39 45 f8          	cmp    %rax,-0x8(%rbp)
    8976:	7c 36                	jl     89ae <safe_mul_func_int64_t_s_s+0xb2>
    8978:	48 83 7d f8 00       	cmpq   $0x0,-0x8(%rbp)
    897d:	7f 24                	jg     89a3 <safe_mul_func_int64_t_s_s+0xa7>
    897f:	48 83 7d f0 00       	cmpq   $0x0,-0x10(%rbp)
    8984:	7f 1d                	jg     89a3 <safe_mul_func_int64_t_s_s+0xa7>
    8986:	48 83 7d f8 00       	cmpq   $0x0,-0x8(%rbp)
    898b:	74 16                	je     89a3 <safe_mul_func_int64_t_s_s+0xa7>
    898d:	48 b8 ff ff ff ff ff 	movabs $0x7fffffffffffffff,%rax
    8994:	ff ff 7f 
    8997:	48 99                	cqto   
    8999:	48 f7 7d f8          	idivq  -0x8(%rbp)
    899d:	48 39 45 f0          	cmp    %rax,-0x10(%rbp)
    89a1:	7c 0b                	jl     89ae <safe_mul_func_int64_t_s_s+0xb2>
    89a3:	48 8b 45 f8          	mov    -0x8(%rbp),%rax
    89a7:	48 0f af 45 f0       	imul   -0x10(%rbp),%rax
    89ac:	eb 04                	jmp    89b2 <safe_mul_func_int64_t_s_s+0xb6>
    89ae:	48 8b 45 f8          	mov    -0x8(%rbp),%rax
    89b2:	5d                   	pop    %rbp
    89b3:	c3                   	retq   

00000000000089b4 <safe_mod_func_int64_t_s_s>:
    89b4:	f3 0f 1e fa          	endbr64 
    89b8:	55                   	push   %rbp
    89b9:	48 89 e5             	mov    %rsp,%rbp
    89bc:	48 89 7d f8          	mov    %rdi,-0x8(%rbp)
    89c0:	48 89 75 f0          	mov    %rsi,-0x10(%rbp)
    89c4:	48 83 7d f0 00       	cmpq   $0x0,-0x10(%rbp)
    89c9:	74 26                	je     89f1 <safe_mod_func_int64_t_s_s+0x3d>
    89cb:	48 b8 00 00 00 00 00 	movabs $0x8000000000000000,%rax
    89d2:	00 00 80 
    89d5:	48 39 45 f8          	cmp    %rax,-0x8(%rbp)
    89d9:	75 07                	jne    89e2 <safe_mod_func_int64_t_s_s+0x2e>
    89db:	48 83 7d f0 ff       	cmpq   $0xffffffffffffffff,-0x10(%rbp)
    89e0:	74 0f                	je     89f1 <safe_mod_func_int64_t_s_s+0x3d>
    89e2:	48 8b 45 f8          	mov    -0x8(%rbp),%rax
    89e6:	48 99                	cqto   
    89e8:	48 f7 7d f0          	idivq  -0x10(%rbp)
    89ec:	48 89 d0             	mov    %rdx,%rax
    89ef:	eb 04                	jmp    89f5 <safe_mod_func_int64_t_s_s+0x41>
    89f1:	48 8b 45 f8          	mov    -0x8(%rbp),%rax
    89f5:	5d                   	pop    %rbp
    89f6:	c3                   	retq   

00000000000089f7 <safe_div_func_int64_t_s_s>:
    89f7:	f3 0f 1e fa          	endbr64 
    89fb:	55                   	push   %rbp
    89fc:	48 89 e5             	mov    %rsp,%rbp
    89ff:	48 89 7d f8          	mov    %rdi,-0x8(%rbp)
    8a03:	48 89 75 f0          	mov    %rsi,-0x10(%rbp)
    8a07:	48 83 7d f0 00       	cmpq   $0x0,-0x10(%rbp)
    8a0c:	74 23                	je     8a31 <safe_div_func_int64_t_s_s+0x3a>
    8a0e:	48 b8 00 00 00 00 00 	movabs $0x8000000000000000,%rax
    8a15:	00 00 80 
    8a18:	48 39 45 f8          	cmp    %rax,-0x8(%rbp)
    8a1c:	75 07                	jne    8a25 <safe_div_func_int64_t_s_s+0x2e>
    8a1e:	48 83 7d f0 ff       	cmpq   $0xffffffffffffffff,-0x10(%rbp)
    8a23:	74 0c                	je     8a31 <safe_div_func_int64_t_s_s+0x3a>
    8a25:	48 8b 45 f8          	mov    -0x8(%rbp),%rax
    8a29:	48 99                	cqto   
    8a2b:	48 f7 7d f0          	idivq  -0x10(%rbp)
    8a2f:	eb 04                	jmp    8a35 <safe_div_func_int64_t_s_s+0x3e>
    8a31:	48 8b 45 f8          	mov    -0x8(%rbp),%rax
    8a35:	5d                   	pop    %rbp
    8a36:	c3                   	retq   

0000000000008a37 <safe_lshift_func_int64_t_s_s>:
    8a37:	f3 0f 1e fa          	endbr64 
    8a3b:	55                   	push   %rbp
    8a3c:	48 89 e5             	mov    %rsp,%rbp
    8a3f:	48 89 7d f8          	mov    %rdi,-0x8(%rbp)
    8a43:	89 75 f4             	mov    %esi,-0xc(%rbp)
    8a46:	48 83 7d f8 00       	cmpq   $0x0,-0x8(%rbp)
    8a4b:	78 38                	js     8a85 <safe_lshift_func_int64_t_s_s+0x4e>
    8a4d:	83 7d f4 00          	cmpl   $0x0,-0xc(%rbp)
    8a51:	78 32                	js     8a85 <safe_lshift_func_int64_t_s_s+0x4e>
    8a53:	83 7d f4 1f          	cmpl   $0x1f,-0xc(%rbp)
    8a57:	7f 2c                	jg     8a85 <safe_lshift_func_int64_t_s_s+0x4e>
    8a59:	8b 45 f4             	mov    -0xc(%rbp),%eax
    8a5c:	48 ba ff ff ff ff ff 	movabs $0x7fffffffffffffff,%rdx
    8a63:	ff ff 7f 
    8a66:	89 c1                	mov    %eax,%ecx
    8a68:	48 d3 fa             	sar    %cl,%rdx
    8a6b:	48 89 d0             	mov    %rdx,%rax
    8a6e:	48 39 45 f8          	cmp    %rax,-0x8(%rbp)
    8a72:	7f 11                	jg     8a85 <safe_lshift_func_int64_t_s_s+0x4e>
    8a74:	8b 45 f4             	mov    -0xc(%rbp),%eax
    8a77:	48 8b 55 f8          	mov    -0x8(%rbp),%rdx
    8a7b:	89 c1                	mov    %eax,%ecx
    8a7d:	48 d3 e2             	shl    %cl,%rdx
    8a80:	48 89 d0             	mov    %rdx,%rax
    8a83:	eb 04                	jmp    8a89 <safe_lshift_func_int64_t_s_s+0x52>
    8a85:	48 8b 45 f8          	mov    -0x8(%rbp),%rax
    8a89:	5d                   	pop    %rbp
    8a8a:	c3                   	retq   

0000000000008a8b <safe_lshift_func_int64_t_s_u>:
    8a8b:	f3 0f 1e fa          	endbr64 
    8a8f:	55                   	push   %rbp
    8a90:	48 89 e5             	mov    %rsp,%rbp
    8a93:	48 89 7d f8          	mov    %rdi,-0x8(%rbp)
    8a97:	89 75 f4             	mov    %esi,-0xc(%rbp)
    8a9a:	48 83 7d f8 00       	cmpq   $0x0,-0x8(%rbp)
    8a9f:	78 32                	js     8ad3 <safe_lshift_func_int64_t_s_u+0x48>
    8aa1:	83 7d f4 1f          	cmpl   $0x1f,-0xc(%rbp)
    8aa5:	77 2c                	ja     8ad3 <safe_lshift_func_int64_t_s_u+0x48>
    8aa7:	8b 45 f4             	mov    -0xc(%rbp),%eax
    8aaa:	48 ba ff ff ff ff ff 	movabs $0x7fffffffffffffff,%rdx
    8ab1:	ff ff 7f 
    8ab4:	89 c1                	mov    %eax,%ecx
    8ab6:	48 d3 fa             	sar    %cl,%rdx
    8ab9:	48 89 d0             	mov    %rdx,%rax
    8abc:	48 39 45 f8          	cmp    %rax,-0x8(%rbp)
    8ac0:	7f 11                	jg     8ad3 <safe_lshift_func_int64_t_s_u+0x48>
    8ac2:	8b 45 f4             	mov    -0xc(%rbp),%eax
    8ac5:	48 8b 55 f8          	mov    -0x8(%rbp),%rdx
    8ac9:	89 c1                	mov    %eax,%ecx
    8acb:	48 d3 e2             	shl    %cl,%rdx
    8ace:	48 89 d0             	mov    %rdx,%rax
    8ad1:	eb 04                	jmp    8ad7 <safe_lshift_func_int64_t_s_u+0x4c>
    8ad3:	48 8b 45 f8          	mov    -0x8(%rbp),%rax
    8ad7:	5d                   	pop    %rbp
    8ad8:	c3                   	retq   

0000000000008ad9 <safe_rshift_func_int64_t_s_s>:
    8ad9:	f3 0f 1e fa          	endbr64 
    8add:	55                   	push   %rbp
    8ade:	48 89 e5             	mov    %rsp,%rbp
    8ae1:	48 89 7d f8          	mov    %rdi,-0x8(%rbp)
    8ae5:	89 75 f4             	mov    %esi,-0xc(%rbp)
    8ae8:	48 83 7d f8 00       	cmpq   $0x0,-0x8(%rbp)
    8aed:	78 1d                	js     8b0c <safe_rshift_func_int64_t_s_s+0x33>
    8aef:	83 7d f4 00          	cmpl   $0x0,-0xc(%rbp)
    8af3:	78 17                	js     8b0c <safe_rshift_func_int64_t_s_s+0x33>
    8af5:	83 7d f4 1f          	cmpl   $0x1f,-0xc(%rbp)
    8af9:	7f 11                	jg     8b0c <safe_rshift_func_int64_t_s_s+0x33>
    8afb:	8b 45 f4             	mov    -0xc(%rbp),%eax
    8afe:	48 8b 55 f8          	mov    -0x8(%rbp),%rdx
    8b02:	89 c1                	mov    %eax,%ecx
    8b04:	48 d3 fa             	sar    %cl,%rdx
    8b07:	48 89 d0             	mov    %rdx,%rax
    8b0a:	eb 04                	jmp    8b10 <safe_rshift_func_int64_t_s_s+0x37>
    8b0c:	48 8b 45 f8          	mov    -0x8(%rbp),%rax
    8b10:	5d                   	pop    %rbp
    8b11:	c3                   	retq   

0000000000008b12 <safe_rshift_func_int64_t_s_u>:
    8b12:	f3 0f 1e fa          	endbr64 
    8b16:	55                   	push   %rbp
    8b17:	48 89 e5             	mov    %rsp,%rbp
    8b1a:	48 89 7d f8          	mov    %rdi,-0x8(%rbp)
    8b1e:	89 75 f4             	mov    %esi,-0xc(%rbp)
    8b21:	48 83 7d f8 00       	cmpq   $0x0,-0x8(%rbp)
    8b26:	78 17                	js     8b3f <safe_rshift_func_int64_t_s_u+0x2d>
    8b28:	83 7d f4 1f          	cmpl   $0x1f,-0xc(%rbp)
    8b2c:	77 11                	ja     8b3f <safe_rshift_func_int64_t_s_u+0x2d>
    8b2e:	8b 45 f4             	mov    -0xc(%rbp),%eax
    8b31:	48 8b 55 f8          	mov    -0x8(%rbp),%rdx
    8b35:	89 c1                	mov    %eax,%ecx
    8b37:	48 d3 fa             	sar    %cl,%rdx
    8b3a:	48 89 d0             	mov    %rdx,%rax
    8b3d:	eb 04                	jmp    8b43 <safe_rshift_func_int64_t_s_u+0x31>
    8b3f:	48 8b 45 f8          	mov    -0x8(%rbp),%rax
    8b43:	5d                   	pop    %rbp
    8b44:	c3                   	retq   

0000000000008b45 <safe_unary_minus_func_uint8_t_u>:
    8b45:	f3 0f 1e fa          	endbr64 
    8b49:	55                   	push   %rbp
    8b4a:	48 89 e5             	mov    %rsp,%rbp
    8b4d:	89 f8                	mov    %edi,%eax
    8b4f:	88 45 fc             	mov    %al,-0x4(%rbp)
    8b52:	0f b6 45 fc          	movzbl -0x4(%rbp),%eax
    8b56:	f7 d8                	neg    %eax
    8b58:	5d                   	pop    %rbp
    8b59:	c3                   	retq   

0000000000008b5a <safe_add_func_uint8_t_u_u>:
    8b5a:	f3 0f 1e fa          	endbr64 
    8b5e:	55                   	push   %rbp
    8b5f:	48 89 e5             	mov    %rsp,%rbp
    8b62:	89 fa                	mov    %edi,%edx
    8b64:	89 f0                	mov    %esi,%eax
    8b66:	88 55 fc             	mov    %dl,-0x4(%rbp)
    8b69:	88 45 f8             	mov    %al,-0x8(%rbp)
    8b6c:	0f b6 55 fc          	movzbl -0x4(%rbp),%edx
    8b70:	0f b6 45 f8          	movzbl -0x8(%rbp),%eax
    8b74:	01 d0                	add    %edx,%eax
    8b76:	5d                   	pop    %rbp
    8b77:	c3                   	retq   

0000000000008b78 <safe_sub_func_uint8_t_u_u>:
    8b78:	f3 0f 1e fa          	endbr64 
    8b7c:	55                   	push   %rbp
    8b7d:	48 89 e5             	mov    %rsp,%rbp
    8b80:	89 fa                	mov    %edi,%edx
    8b82:	89 f0                	mov    %esi,%eax
    8b84:	88 55 fc             	mov    %dl,-0x4(%rbp)
    8b87:	88 45 f8             	mov    %al,-0x8(%rbp)
    8b8a:	0f b6 45 fc          	movzbl -0x4(%rbp),%eax
    8b8e:	2a 45 f8             	sub    -0x8(%rbp),%al
    8b91:	5d                   	pop    %rbp
    8b92:	c3                   	retq   

0000000000008b93 <safe_mul_func_uint8_t_u_u>:
    8b93:	f3 0f 1e fa          	endbr64 
    8b97:	55                   	push   %rbp
    8b98:	48 89 e5             	mov    %rsp,%rbp
    8b9b:	89 fa                	mov    %edi,%edx
    8b9d:	89 f0                	mov    %esi,%eax
    8b9f:	88 55 fc             	mov    %dl,-0x4(%rbp)
    8ba2:	88 45 f8             	mov    %al,-0x8(%rbp)
    8ba5:	0f b6 45 fc          	movzbl -0x4(%rbp),%eax
    8ba9:	f6 65 f8             	mulb   -0x8(%rbp)
    8bac:	5d                   	pop    %rbp
    8bad:	c3                   	retq   

0000000000008bae <safe_mod_func_uint8_t_u_u>:
    8bae:	f3 0f 1e fa          	endbr64 
    8bb2:	55                   	push   %rbp
    8bb3:	48 89 e5             	mov    %rsp,%rbp
    8bb6:	89 fa                	mov    %edi,%edx
    8bb8:	89 f0                	mov    %esi,%eax
    8bba:	88 55 fc             	mov    %dl,-0x4(%rbp)
    8bbd:	88 45 f8             	mov    %al,-0x8(%rbp)
    8bc0:	80 7d f8 00          	cmpb   $0x0,-0x8(%rbp)
    8bc4:	74 0f                	je     8bd5 <safe_mod_func_uint8_t_u_u+0x27>
    8bc6:	0f b6 45 fc          	movzbl -0x4(%rbp),%eax
    8bca:	0f b6 c0             	movzbl %al,%eax
    8bcd:	f6 75 f8             	divb   -0x8(%rbp)
    8bd0:	0f b6 c4             	movzbl %ah,%eax
    8bd3:	eb 04                	jmp    8bd9 <safe_mod_func_uint8_t_u_u+0x2b>
    8bd5:	0f b6 45 fc          	movzbl -0x4(%rbp),%eax
    8bd9:	5d                   	pop    %rbp
    8bda:	c3                   	retq   

0000000000008bdb <safe_div_func_uint8_t_u_u>:
    8bdb:	f3 0f 1e fa          	endbr64 
    8bdf:	55                   	push   %rbp
    8be0:	48 89 e5             	mov    %rsp,%rbp
    8be3:	89 fa                	mov    %edi,%edx
    8be5:	89 f0                	mov    %esi,%eax
    8be7:	88 55 fc             	mov    %dl,-0x4(%rbp)
    8bea:	88 45 f8             	mov    %al,-0x8(%rbp)
    8bed:	80 7d f8 00          	cmpb   $0x0,-0x8(%rbp)
    8bf1:	74 0c                	je     8bff <safe_div_func_uint8_t_u_u+0x24>
    8bf3:	0f b6 45 fc          	movzbl -0x4(%rbp),%eax
    8bf7:	0f b6 c0             	movzbl %al,%eax
    8bfa:	f6 75 f8             	divb   -0x8(%rbp)
    8bfd:	eb 04                	jmp    8c03 <safe_div_func_uint8_t_u_u+0x28>
    8bff:	0f b6 45 fc          	movzbl -0x4(%rbp),%eax
    8c03:	5d                   	pop    %rbp
    8c04:	c3                   	retq   

0000000000008c05 <safe_lshift_func_uint8_t_u_s>:
    8c05:	f3 0f 1e fa          	endbr64 
    8c09:	55                   	push   %rbp
    8c0a:	48 89 e5             	mov    %rsp,%rbp
    8c0d:	89 f8                	mov    %edi,%eax
    8c0f:	89 75 f8             	mov    %esi,-0x8(%rbp)
    8c12:	88 45 fc             	mov    %al,-0x4(%rbp)
    8c15:	83 7d f8 00          	cmpl   $0x0,-0x8(%rbp)
    8c19:	78 2b                	js     8c46 <safe_lshift_func_uint8_t_u_s+0x41>
    8c1b:	83 7d f8 1f          	cmpl   $0x1f,-0x8(%rbp)
    8c1f:	7f 25                	jg     8c46 <safe_lshift_func_uint8_t_u_s+0x41>
    8c21:	0f b6 55 fc          	movzbl -0x4(%rbp),%edx
    8c25:	8b 45 f8             	mov    -0x8(%rbp),%eax
    8c28:	be ff 00 00 00       	mov    $0xff,%esi
    8c2d:	89 c1                	mov    %eax,%ecx
    8c2f:	d3 fe                	sar    %cl,%esi
    8c31:	89 f0                	mov    %esi,%eax
    8c33:	39 c2                	cmp    %eax,%edx
    8c35:	7f 0f                	jg     8c46 <safe_lshift_func_uint8_t_u_s+0x41>
    8c37:	0f b6 55 fc          	movzbl -0x4(%rbp),%edx
    8c3b:	8b 45 f8             	mov    -0x8(%rbp),%eax
    8c3e:	89 c1                	mov    %eax,%ecx
    8c40:	d3 e2                	shl    %cl,%edx
    8c42:	89 d0                	mov    %edx,%eax
    8c44:	eb 04                	jmp    8c4a <safe_lshift_func_uint8_t_u_s+0x45>
    8c46:	0f b6 45 fc          	movzbl -0x4(%rbp),%eax
    8c4a:	5d                   	pop    %rbp
    8c4b:	c3                   	retq   

0000000000008c4c <safe_lshift_func_uint8_t_u_u>:
    8c4c:	f3 0f 1e fa          	endbr64 
    8c50:	55                   	push   %rbp
    8c51:	48 89 e5             	mov    %rsp,%rbp
    8c54:	89 f8                	mov    %edi,%eax
    8c56:	89 75 f8             	mov    %esi,-0x8(%rbp)
    8c59:	88 45 fc             	mov    %al,-0x4(%rbp)
    8c5c:	83 7d f8 1f          	cmpl   $0x1f,-0x8(%rbp)
    8c60:	77 25                	ja     8c87 <safe_lshift_func_uint8_t_u_u+0x3b>
    8c62:	0f b6 55 fc          	movzbl -0x4(%rbp),%edx
    8c66:	8b 45 f8             	mov    -0x8(%rbp),%eax
    8c69:	be ff 00 00 00       	mov    $0xff,%esi
    8c6e:	89 c1                	mov    %eax,%ecx
    8c70:	d3 fe                	sar    %cl,%esi
    8c72:	89 f0                	mov    %esi,%eax
    8c74:	39 c2                	cmp    %eax,%edx
    8c76:	7f 0f                	jg     8c87 <safe_lshift_func_uint8_t_u_u+0x3b>
    8c78:	0f b6 55 fc          	movzbl -0x4(%rbp),%edx
    8c7c:	8b 45 f8             	mov    -0x8(%rbp),%eax
    8c7f:	89 c1                	mov    %eax,%ecx
    8c81:	d3 e2                	shl    %cl,%edx
    8c83:	89 d0                	mov    %edx,%eax
    8c85:	eb 04                	jmp    8c8b <safe_lshift_func_uint8_t_u_u+0x3f>
    8c87:	0f b6 45 fc          	movzbl -0x4(%rbp),%eax
    8c8b:	5d                   	pop    %rbp
    8c8c:	c3                   	retq   

0000000000008c8d <safe_rshift_func_uint8_t_u_s>:
    8c8d:	f3 0f 1e fa          	endbr64 
    8c91:	55                   	push   %rbp
    8c92:	48 89 e5             	mov    %rsp,%rbp
    8c95:	89 f8                	mov    %edi,%eax
    8c97:	89 75 f8             	mov    %esi,-0x8(%rbp)
    8c9a:	88 45 fc             	mov    %al,-0x4(%rbp)
    8c9d:	83 7d f8 00          	cmpl   $0x0,-0x8(%rbp)
    8ca1:	78 15                	js     8cb8 <safe_rshift_func_uint8_t_u_s+0x2b>
    8ca3:	83 7d f8 1f          	cmpl   $0x1f,-0x8(%rbp)
    8ca7:	7f 0f                	jg     8cb8 <safe_rshift_func_uint8_t_u_s+0x2b>
    8ca9:	0f b6 55 fc          	movzbl -0x4(%rbp),%edx
    8cad:	8b 45 f8             	mov    -0x8(%rbp),%eax
    8cb0:	89 c1                	mov    %eax,%ecx
    8cb2:	d3 fa                	sar    %cl,%edx
    8cb4:	89 d0                	mov    %edx,%eax
    8cb6:	eb 04                	jmp    8cbc <safe_rshift_func_uint8_t_u_s+0x2f>
    8cb8:	0f b6 45 fc          	movzbl -0x4(%rbp),%eax
    8cbc:	5d                   	pop    %rbp
    8cbd:	c3                   	retq   

0000000000008cbe <safe_rshift_func_uint8_t_u_u>:
    8cbe:	f3 0f 1e fa          	endbr64 
    8cc2:	55                   	push   %rbp
    8cc3:	48 89 e5             	mov    %rsp,%rbp
    8cc6:	89 f8                	mov    %edi,%eax
    8cc8:	89 75 f8             	mov    %esi,-0x8(%rbp)
    8ccb:	88 45 fc             	mov    %al,-0x4(%rbp)
    8cce:	83 7d f8 1f          	cmpl   $0x1f,-0x8(%rbp)
    8cd2:	77 0f                	ja     8ce3 <safe_rshift_func_uint8_t_u_u+0x25>
    8cd4:	0f b6 55 fc          	movzbl -0x4(%rbp),%edx
    8cd8:	8b 45 f8             	mov    -0x8(%rbp),%eax
    8cdb:	89 c1                	mov    %eax,%ecx
    8cdd:	d3 fa                	sar    %cl,%edx
    8cdf:	89 d0                	mov    %edx,%eax
    8ce1:	eb 04                	jmp    8ce7 <safe_rshift_func_uint8_t_u_u+0x29>
    8ce3:	0f b6 45 fc          	movzbl -0x4(%rbp),%eax
    8ce7:	5d                   	pop    %rbp
    8ce8:	c3                   	retq   

0000000000008ce9 <safe_unary_minus_func_uint16_t_u>:
    8ce9:	f3 0f 1e fa          	endbr64 
    8ced:	55                   	push   %rbp
    8cee:	48 89 e5             	mov    %rsp,%rbp
    8cf1:	89 f8                	mov    %edi,%eax
    8cf3:	66 89 45 fc          	mov    %ax,-0x4(%rbp)
    8cf7:	0f b7 45 fc          	movzwl -0x4(%rbp),%eax
    8cfb:	f7 d8                	neg    %eax
    8cfd:	5d                   	pop    %rbp
    8cfe:	c3                   	retq   

0000000000008cff <safe_add_func_uint16_t_u_u>:
    8cff:	f3 0f 1e fa          	endbr64 
    8d03:	55                   	push   %rbp
    8d04:	48 89 e5             	mov    %rsp,%rbp
    8d07:	89 fa                	mov    %edi,%edx
    8d09:	89 f0                	mov    %esi,%eax
    8d0b:	66 89 55 fc          	mov    %dx,-0x4(%rbp)
    8d0f:	66 89 45 f8          	mov    %ax,-0x8(%rbp)
    8d13:	0f b7 55 fc          	movzwl -0x4(%rbp),%edx
    8d17:	0f b7 45 f8          	movzwl -0x8(%rbp),%eax
    8d1b:	01 d0                	add    %edx,%eax
    8d1d:	5d                   	pop    %rbp
    8d1e:	c3                   	retq   

0000000000008d1f <safe_sub_func_uint16_t_u_u>:
    8d1f:	f3 0f 1e fa          	endbr64 
    8d23:	55                   	push   %rbp
    8d24:	48 89 e5             	mov    %rsp,%rbp
    8d27:	89 fa                	mov    %edi,%edx
    8d29:	89 f0                	mov    %esi,%eax
    8d2b:	66 89 55 fc          	mov    %dx,-0x4(%rbp)
    8d2f:	66 89 45 f8          	mov    %ax,-0x8(%rbp)
    8d33:	0f b7 45 fc          	movzwl -0x4(%rbp),%eax
    8d37:	66 2b 45 f8          	sub    -0x8(%rbp),%ax
    8d3b:	5d                   	pop    %rbp
    8d3c:	c3                   	retq   

0000000000008d3d <safe_mul_func_uint16_t_u_u>:
    8d3d:	f3 0f 1e fa          	endbr64 
    8d41:	55                   	push   %rbp
    8d42:	48 89 e5             	mov    %rsp,%rbp
    8d45:	89 fa                	mov    %edi,%edx
    8d47:	89 f0                	mov    %esi,%eax
    8d49:	66 89 55 fc          	mov    %dx,-0x4(%rbp)
    8d4d:	66 89 45 f8          	mov    %ax,-0x8(%rbp)
    8d51:	0f b7 45 fc          	movzwl -0x4(%rbp),%eax
    8d55:	66 0f af 45 f8       	imul   -0x8(%rbp),%ax
    8d5a:	5d                   	pop    %rbp
    8d5b:	c3                   	retq   

0000000000008d5c <safe_mod_func_uint16_t_u_u>:
    8d5c:	f3 0f 1e fa          	endbr64 
    8d60:	55                   	push   %rbp
    8d61:	48 89 e5             	mov    %rsp,%rbp
    8d64:	89 fa                	mov    %edi,%edx
    8d66:	89 f0                	mov    %esi,%eax
    8d68:	66 89 55 fc          	mov    %dx,-0x4(%rbp)
    8d6c:	66 89 45 f8          	mov    %ax,-0x8(%rbp)
    8d70:	66 83 7d f8 00       	cmpw   $0x0,-0x8(%rbp)
    8d75:	74 11                	je     8d88 <safe_mod_func_uint16_t_u_u+0x2c>
    8d77:	0f b7 45 fc          	movzwl -0x4(%rbp),%eax
    8d7b:	ba 00 00 00 00       	mov    $0x0,%edx
    8d80:	66 f7 75 f8          	divw   -0x8(%rbp)
    8d84:	89 d0                	mov    %edx,%eax
    8d86:	eb 04                	jmp    8d8c <safe_mod_func_uint16_t_u_u+0x30>
    8d88:	0f b7 45 fc          	movzwl -0x4(%rbp),%eax
    8d8c:	5d                   	pop    %rbp
    8d8d:	c3                   	retq   

0000000000008d8e <safe_div_func_uint16_t_u_u>:
    8d8e:	f3 0f 1e fa          	endbr64 
    8d92:	55                   	push   %rbp
    8d93:	48 89 e5             	mov    %rsp,%rbp
    8d96:	89 fa                	mov    %edi,%edx
    8d98:	89 f0                	mov    %esi,%eax
    8d9a:	66 89 55 fc          	mov    %dx,-0x4(%rbp)
    8d9e:	66 89 45 f8          	mov    %ax,-0x8(%rbp)
    8da2:	66 83 7d f8 00       	cmpw   $0x0,-0x8(%rbp)
    8da7:	74 0f                	je     8db8 <safe_div_func_uint16_t_u_u+0x2a>
    8da9:	0f b7 45 fc          	movzwl -0x4(%rbp),%eax
    8dad:	ba 00 00 00 00       	mov    $0x0,%edx
    8db2:	66 f7 75 f8          	divw   -0x8(%rbp)
    8db6:	eb 04                	jmp    8dbc <safe_div_func_uint16_t_u_u+0x2e>
    8db8:	0f b7 45 fc          	movzwl -0x4(%rbp),%eax
    8dbc:	5d                   	pop    %rbp
    8dbd:	c3                   	retq   

0000000000008dbe <safe_lshift_func_uint16_t_u_s>:
    8dbe:	f3 0f 1e fa          	endbr64 
    8dc2:	55                   	push   %rbp
    8dc3:	48 89 e5             	mov    %rsp,%rbp
    8dc6:	89 f8                	mov    %edi,%eax
    8dc8:	89 75 f8             	mov    %esi,-0x8(%rbp)
    8dcb:	66 89 45 fc          	mov    %ax,-0x4(%rbp)
    8dcf:	83 7d f8 00          	cmpl   $0x0,-0x8(%rbp)
    8dd3:	78 2b                	js     8e00 <safe_lshift_func_uint16_t_u_s+0x42>
    8dd5:	83 7d f8 1f          	cmpl   $0x1f,-0x8(%rbp)
    8dd9:	7f 25                	jg     8e00 <safe_lshift_func_uint16_t_u_s+0x42>
    8ddb:	0f b7 55 fc          	movzwl -0x4(%rbp),%edx
    8ddf:	8b 45 f8             	mov    -0x8(%rbp),%eax
    8de2:	be ff ff 00 00       	mov    $0xffff,%esi
    8de7:	89 c1                	mov    %eax,%ecx
    8de9:	d3 fe                	sar    %cl,%esi
    8deb:	89 f0                	mov    %esi,%eax
    8ded:	39 c2                	cmp    %eax,%edx
    8def:	7f 0f                	jg     8e00 <safe_lshift_func_uint16_t_u_s+0x42>
    8df1:	0f b7 55 fc          	movzwl -0x4(%rbp),%edx
    8df5:	8b 45 f8             	mov    -0x8(%rbp),%eax
    8df8:	89 c1                	mov    %eax,%ecx
    8dfa:	d3 e2                	shl    %cl,%edx
    8dfc:	89 d0                	mov    %edx,%eax
    8dfe:	eb 04                	jmp    8e04 <safe_lshift_func_uint16_t_u_s+0x46>
    8e00:	0f b7 45 fc          	movzwl -0x4(%rbp),%eax
    8e04:	5d                   	pop    %rbp
    8e05:	c3                   	retq   

0000000000008e06 <safe_lshift_func_uint16_t_u_u>:
    8e06:	f3 0f 1e fa          	endbr64 
    8e0a:	55                   	push   %rbp
    8e0b:	48 89 e5             	mov    %rsp,%rbp
    8e0e:	89 f8                	mov    %edi,%eax
    8e10:	89 75 f8             	mov    %esi,-0x8(%rbp)
    8e13:	66 89 45 fc          	mov    %ax,-0x4(%rbp)
    8e17:	83 7d f8 1f          	cmpl   $0x1f,-0x8(%rbp)
    8e1b:	77 25                	ja     8e42 <safe_lshift_func_uint16_t_u_u+0x3c>
    8e1d:	0f b7 55 fc          	movzwl -0x4(%rbp),%edx
    8e21:	8b 45 f8             	mov    -0x8(%rbp),%eax
    8e24:	be ff ff 00 00       	mov    $0xffff,%esi
    8e29:	89 c1                	mov    %eax,%ecx
    8e2b:	d3 fe                	sar    %cl,%esi
    8e2d:	89 f0                	mov    %esi,%eax
    8e2f:	39 c2                	cmp    %eax,%edx
    8e31:	7f 0f                	jg     8e42 <safe_lshift_func_uint16_t_u_u+0x3c>
    8e33:	0f b7 55 fc          	movzwl -0x4(%rbp),%edx
    8e37:	8b 45 f8             	mov    -0x8(%rbp),%eax
    8e3a:	89 c1                	mov    %eax,%ecx
    8e3c:	d3 e2                	shl    %cl,%edx
    8e3e:	89 d0                	mov    %edx,%eax
    8e40:	eb 04                	jmp    8e46 <safe_lshift_func_uint16_t_u_u+0x40>
    8e42:	0f b7 45 fc          	movzwl -0x4(%rbp),%eax
    8e46:	5d                   	pop    %rbp
    8e47:	c3                   	retq   

0000000000008e48 <safe_rshift_func_uint16_t_u_s>:
    8e48:	f3 0f 1e fa          	endbr64 
    8e4c:	55                   	push   %rbp
    8e4d:	48 89 e5             	mov    %rsp,%rbp
    8e50:	89 f8                	mov    %edi,%eax
    8e52:	89 75 f8             	mov    %esi,-0x8(%rbp)
    8e55:	66 89 45 fc          	mov    %ax,-0x4(%rbp)
    8e59:	83 7d f8 00          	cmpl   $0x0,-0x8(%rbp)
    8e5d:	78 15                	js     8e74 <safe_rshift_func_uint16_t_u_s+0x2c>
    8e5f:	83 7d f8 1f          	cmpl   $0x1f,-0x8(%rbp)
    8e63:	7f 0f                	jg     8e74 <safe_rshift_func_uint16_t_u_s+0x2c>
    8e65:	0f b7 55 fc          	movzwl -0x4(%rbp),%edx
    8e69:	8b 45 f8             	mov    -0x8(%rbp),%eax
    8e6c:	89 c1                	mov    %eax,%ecx
    8e6e:	d3 fa                	sar    %cl,%edx
    8e70:	89 d0                	mov    %edx,%eax
    8e72:	eb 04                	jmp    8e78 <safe_rshift_func_uint16_t_u_s+0x30>
    8e74:	0f b7 45 fc          	movzwl -0x4(%rbp),%eax
    8e78:	5d                   	pop    %rbp
    8e79:	c3                   	retq   

0000000000008e7a <safe_rshift_func_uint16_t_u_u>:
    8e7a:	f3 0f 1e fa          	endbr64 
    8e7e:	55                   	push   %rbp
    8e7f:	48 89 e5             	mov    %rsp,%rbp
    8e82:	89 f8                	mov    %edi,%eax
    8e84:	89 75 f8             	mov    %esi,-0x8(%rbp)
    8e87:	66 89 45 fc          	mov    %ax,-0x4(%rbp)
    8e8b:	83 7d f8 1f          	cmpl   $0x1f,-0x8(%rbp)
    8e8f:	77 0f                	ja     8ea0 <safe_rshift_func_uint16_t_u_u+0x26>
    8e91:	0f b7 55 fc          	movzwl -0x4(%rbp),%edx
    8e95:	8b 45 f8             	mov    -0x8(%rbp),%eax
    8e98:	89 c1                	mov    %eax,%ecx
    8e9a:	d3 fa                	sar    %cl,%edx
    8e9c:	89 d0                	mov    %edx,%eax
    8e9e:	eb 04                	jmp    8ea4 <safe_rshift_func_uint16_t_u_u+0x2a>
    8ea0:	0f b7 45 fc          	movzwl -0x4(%rbp),%eax
    8ea4:	5d                   	pop    %rbp
    8ea5:	c3                   	retq   

0000000000008ea6 <safe_unary_minus_func_uint32_t_u>:
    8ea6:	f3 0f 1e fa          	endbr64 
    8eaa:	55                   	push   %rbp
    8eab:	48 89 e5             	mov    %rsp,%rbp
    8eae:	89 7d fc             	mov    %edi,-0x4(%rbp)
    8eb1:	8b 45 fc             	mov    -0x4(%rbp),%eax
    8eb4:	f7 d8                	neg    %eax
    8eb6:	5d                   	pop    %rbp
    8eb7:	c3                   	retq   

0000000000008eb8 <safe_add_func_uint32_t_u_u>:
    8eb8:	f3 0f 1e fa          	endbr64 
    8ebc:	55                   	push   %rbp
    8ebd:	48 89 e5             	mov    %rsp,%rbp
    8ec0:	89 7d fc             	mov    %edi,-0x4(%rbp)
    8ec3:	89 75 f8             	mov    %esi,-0x8(%rbp)
    8ec6:	8b 55 fc             	mov    -0x4(%rbp),%edx
    8ec9:	8b 45 f8             	mov    -0x8(%rbp),%eax
    8ecc:	01 d0                	add    %edx,%eax
    8ece:	5d                   	pop    %rbp
    8ecf:	c3                   	retq   

0000000000008ed0 <safe_sub_func_uint32_t_u_u>:
    8ed0:	f3 0f 1e fa          	endbr64 
    8ed4:	55                   	push   %rbp
    8ed5:	48 89 e5             	mov    %rsp,%rbp
    8ed8:	89 7d fc             	mov    %edi,-0x4(%rbp)
    8edb:	89 75 f8             	mov    %esi,-0x8(%rbp)
    8ede:	8b 45 fc             	mov    -0x4(%rbp),%eax
    8ee1:	2b 45 f8             	sub    -0x8(%rbp),%eax
    8ee4:	5d                   	pop    %rbp
    8ee5:	c3                   	retq   

0000000000008ee6 <safe_mul_func_uint32_t_u_u>:
    8ee6:	f3 0f 1e fa          	endbr64 
    8eea:	55                   	push   %rbp
    8eeb:	48 89 e5             	mov    %rsp,%rbp
    8eee:	89 7d fc             	mov    %edi,-0x4(%rbp)
    8ef1:	89 75 f8             	mov    %esi,-0x8(%rbp)
    8ef4:	8b 45 fc             	mov    -0x4(%rbp),%eax
    8ef7:	0f af 45 f8          	imul   -0x8(%rbp),%eax
    8efb:	5d                   	pop    %rbp
    8efc:	c3                   	retq   

0000000000008efd <safe_mod_func_uint32_t_u_u>:
    8efd:	f3 0f 1e fa          	endbr64 
    8f01:	55                   	push   %rbp
    8f02:	48 89 e5             	mov    %rsp,%rbp
    8f05:	89 7d fc             	mov    %edi,-0x4(%rbp)
    8f08:	89 75 f8             	mov    %esi,-0x8(%rbp)
    8f0b:	83 7d f8 00          	cmpl   $0x0,-0x8(%rbp)
    8f0f:	74 0f                	je     8f20 <safe_mod_func_uint32_t_u_u+0x23>
    8f11:	8b 45 fc             	mov    -0x4(%rbp),%eax
    8f14:	ba 00 00 00 00       	mov    $0x0,%edx
    8f19:	f7 75 f8             	divl   -0x8(%rbp)
    8f1c:	89 d0                	mov    %edx,%eax
    8f1e:	eb 03                	jmp    8f23 <safe_mod_func_uint32_t_u_u+0x26>
    8f20:	8b 45 fc             	mov    -0x4(%rbp),%eax
    8f23:	5d                   	pop    %rbp
    8f24:	c3                   	retq   

0000000000008f25 <safe_div_func_uint32_t_u_u>:
    8f25:	f3 0f 1e fa          	endbr64 
    8f29:	55                   	push   %rbp
    8f2a:	48 89 e5             	mov    %rsp,%rbp
    8f2d:	89 7d fc             	mov    %edi,-0x4(%rbp)
    8f30:	89 75 f8             	mov    %esi,-0x8(%rbp)
    8f33:	83 7d f8 00          	cmpl   $0x0,-0x8(%rbp)
    8f37:	74 0d                	je     8f46 <safe_div_func_uint32_t_u_u+0x21>
    8f39:	8b 45 fc             	mov    -0x4(%rbp),%eax
    8f3c:	ba 00 00 00 00       	mov    $0x0,%edx
    8f41:	f7 75 f8             	divl   -0x8(%rbp)
    8f44:	eb 03                	jmp    8f49 <safe_div_func_uint32_t_u_u+0x24>
    8f46:	8b 45 fc             	mov    -0x4(%rbp),%eax
    8f49:	5d                   	pop    %rbp
    8f4a:	c3                   	retq   

0000000000008f4b <safe_lshift_func_uint32_t_u_s>:
    8f4b:	f3 0f 1e fa          	endbr64 
    8f4f:	55                   	push   %rbp
    8f50:	48 89 e5             	mov    %rsp,%rbp
    8f53:	89 7d fc             	mov    %edi,-0x4(%rbp)
    8f56:	89 75 f8             	mov    %esi,-0x8(%rbp)
    8f59:	83 7d f8 00          	cmpl   $0x0,-0x8(%rbp)
    8f5d:	78 27                	js     8f86 <safe_lshift_func_uint32_t_u_s+0x3b>
    8f5f:	83 7d f8 1f          	cmpl   $0x1f,-0x8(%rbp)
    8f63:	7f 21                	jg     8f86 <safe_lshift_func_uint32_t_u_s+0x3b>
    8f65:	8b 45 f8             	mov    -0x8(%rbp),%eax
    8f68:	ba ff ff ff ff       	mov    $0xffffffff,%edx
    8f6d:	89 c1                	mov    %eax,%ecx
    8f6f:	d3 ea                	shr    %cl,%edx
    8f71:	89 d0                	mov    %edx,%eax
    8f73:	39 45 fc             	cmp    %eax,-0x4(%rbp)
    8f76:	77 0e                	ja     8f86 <safe_lshift_func_uint32_t_u_s+0x3b>
    8f78:	8b 45 f8             	mov    -0x8(%rbp),%eax
    8f7b:	8b 55 fc             	mov    -0x4(%rbp),%edx
    8f7e:	89 c1                	mov    %eax,%ecx
    8f80:	d3 e2                	shl    %cl,%edx
    8f82:	89 d0                	mov    %edx,%eax
    8f84:	eb 03                	jmp    8f89 <safe_lshift_func_uint32_t_u_s+0x3e>
    8f86:	8b 45 fc             	mov    -0x4(%rbp),%eax
    8f89:	5d                   	pop    %rbp
    8f8a:	c3                   	retq   

0000000000008f8b <safe_lshift_func_uint32_t_u_u>:
    8f8b:	f3 0f 1e fa          	endbr64 
    8f8f:	55                   	push   %rbp
    8f90:	48 89 e5             	mov    %rsp,%rbp
    8f93:	89 7d fc             	mov    %edi,-0x4(%rbp)
    8f96:	89 75 f8             	mov    %esi,-0x8(%rbp)
    8f99:	83 7d f8 1f          	cmpl   $0x1f,-0x8(%rbp)
    8f9d:	77 21                	ja     8fc0 <safe_lshift_func_uint32_t_u_u+0x35>
    8f9f:	8b 45 f8             	mov    -0x8(%rbp),%eax
    8fa2:	ba ff ff ff ff       	mov    $0xffffffff,%edx
    8fa7:	89 c1                	mov    %eax,%ecx
    8fa9:	d3 ea                	shr    %cl,%edx
    8fab:	89 d0                	mov    %edx,%eax
    8fad:	39 45 fc             	cmp    %eax,-0x4(%rbp)
    8fb0:	77 0e                	ja     8fc0 <safe_lshift_func_uint32_t_u_u+0x35>
    8fb2:	8b 45 f8             	mov    -0x8(%rbp),%eax
    8fb5:	8b 55 fc             	mov    -0x4(%rbp),%edx
    8fb8:	89 c1                	mov    %eax,%ecx
    8fba:	d3 e2                	shl    %cl,%edx
    8fbc:	89 d0                	mov    %edx,%eax
    8fbe:	eb 03                	jmp    8fc3 <safe_lshift_func_uint32_t_u_u+0x38>
    8fc0:	8b 45 fc             	mov    -0x4(%rbp),%eax
    8fc3:	5d                   	pop    %rbp
    8fc4:	c3                   	retq   

0000000000008fc5 <safe_rshift_func_uint32_t_u_s>:
    8fc5:	f3 0f 1e fa          	endbr64 
    8fc9:	55                   	push   %rbp
    8fca:	48 89 e5             	mov    %rsp,%rbp
    8fcd:	89 7d fc             	mov    %edi,-0x4(%rbp)
    8fd0:	89 75 f8             	mov    %esi,-0x8(%rbp)
    8fd3:	83 7d f8 00          	cmpl   $0x0,-0x8(%rbp)
    8fd7:	78 14                	js     8fed <safe_rshift_func_uint32_t_u_s+0x28>
    8fd9:	83 7d f8 1f          	cmpl   $0x1f,-0x8(%rbp)
    8fdd:	7f 0e                	jg     8fed <safe_rshift_func_uint32_t_u_s+0x28>
    8fdf:	8b 45 f8             	mov    -0x8(%rbp),%eax
    8fe2:	8b 55 fc             	mov    -0x4(%rbp),%edx
    8fe5:	89 c1                	mov    %eax,%ecx
    8fe7:	d3 ea                	shr    %cl,%edx
    8fe9:	89 d0                	mov    %edx,%eax
    8feb:	eb 03                	jmp    8ff0 <safe_rshift_func_uint32_t_u_s+0x2b>
    8fed:	8b 45 fc             	mov    -0x4(%rbp),%eax
    8ff0:	5d                   	pop    %rbp
    8ff1:	c3                   	retq   

0000000000008ff2 <safe_rshift_func_uint32_t_u_u>:
    8ff2:	f3 0f 1e fa          	endbr64 
    8ff6:	55                   	push   %rbp
    8ff7:	48 89 e5             	mov    %rsp,%rbp
    8ffa:	89 7d fc             	mov    %edi,-0x4(%rbp)
    8ffd:	89 75 f8             	mov    %esi,-0x8(%rbp)
    9000:	83 7d f8 1f          	cmpl   $0x1f,-0x8(%rbp)
    9004:	77 0e                	ja     9014 <safe_rshift_func_uint32_t_u_u+0x22>
    9006:	8b 45 f8             	mov    -0x8(%rbp),%eax
    9009:	8b 55 fc             	mov    -0x4(%rbp),%edx
    900c:	89 c1                	mov    %eax,%ecx
    900e:	d3 ea                	shr    %cl,%edx
    9010:	89 d0                	mov    %edx,%eax
    9012:	eb 03                	jmp    9017 <safe_rshift_func_uint32_t_u_u+0x25>
    9014:	8b 45 fc             	mov    -0x4(%rbp),%eax
    9017:	5d                   	pop    %rbp
    9018:	c3                   	retq   

0000000000009019 <safe_unary_minus_func_uint64_t_u>:
    9019:	f3 0f 1e fa          	endbr64 
    901d:	55                   	push   %rbp
    901e:	48 89 e5             	mov    %rsp,%rbp
    9021:	48 89 7d f8          	mov    %rdi,-0x8(%rbp)
    9025:	48 8b 45 f8          	mov    -0x8(%rbp),%rax
    9029:	48 f7 d8             	neg    %rax
    902c:	5d                   	pop    %rbp
    902d:	c3                   	retq   

000000000000902e <safe_add_func_uint64_t_u_u>:
    902e:	f3 0f 1e fa          	endbr64 
    9032:	55                   	push   %rbp
    9033:	48 89 e5             	mov    %rsp,%rbp
    9036:	48 89 7d f8          	mov    %rdi,-0x8(%rbp)
    903a:	48 89 75 f0          	mov    %rsi,-0x10(%rbp)
    903e:	48 8b 55 f8          	mov    -0x8(%rbp),%rdx
    9042:	48 8b 45 f0          	mov    -0x10(%rbp),%rax
    9046:	48 01 d0             	add    %rdx,%rax
    9049:	5d                   	pop    %rbp
    904a:	c3                   	retq   

000000000000904b <safe_sub_func_uint64_t_u_u>:
    904b:	f3 0f 1e fa          	endbr64 
    904f:	55                   	push   %rbp
    9050:	48 89 e5             	mov    %rsp,%rbp
    9053:	48 89 7d f8          	mov    %rdi,-0x8(%rbp)
    9057:	48 89 75 f0          	mov    %rsi,-0x10(%rbp)
    905b:	48 8b 45 f8          	mov    -0x8(%rbp),%rax
    905f:	48 2b 45 f0          	sub    -0x10(%rbp),%rax
    9063:	5d                   	pop    %rbp
    9064:	c3                   	retq   

0000000000009065 <safe_mul_func_uint64_t_u_u>:
    9065:	f3 0f 1e fa          	endbr64 
    9069:	55                   	push   %rbp
    906a:	48 89 e5             	mov    %rsp,%rbp
    906d:	48 89 7d f8          	mov    %rdi,-0x8(%rbp)
    9071:	48 89 75 f0          	mov    %rsi,-0x10(%rbp)
    9075:	48 8b 45 f8          	mov    -0x8(%rbp),%rax
    9079:	48 0f af 45 f0       	imul   -0x10(%rbp),%rax
    907e:	5d                   	pop    %rbp
    907f:	c3                   	retq   

0000000000009080 <safe_mod_func_uint64_t_u_u>:
    9080:	f3 0f 1e fa          	endbr64 
    9084:	55                   	push   %rbp
    9085:	48 89 e5             	mov    %rsp,%rbp
    9088:	48 89 7d f8          	mov    %rdi,-0x8(%rbp)
    908c:	48 89 75 f0          	mov    %rsi,-0x10(%rbp)
    9090:	48 83 7d f0 00       	cmpq   $0x0,-0x10(%rbp)
    9095:	74 12                	je     90a9 <safe_mod_func_uint64_t_u_u+0x29>
    9097:	48 8b 45 f8          	mov    -0x8(%rbp),%rax
    909b:	ba 00 00 00 00       	mov    $0x0,%edx
    90a0:	48 f7 75 f0          	divq   -0x10(%rbp)
    90a4:	48 89 d0             	mov    %rdx,%rax
    90a7:	eb 04                	jmp    90ad <safe_mod_func_uint64_t_u_u+0x2d>
    90a9:	48 8b 45 f8          	mov    -0x8(%rbp),%rax
    90ad:	5d                   	pop    %rbp
    90ae:	c3                   	retq   

00000000000090af <safe_div_func_uint64_t_u_u>:
    90af:	f3 0f 1e fa          	endbr64 
    90b3:	55                   	push   %rbp
    90b4:	48 89 e5             	mov    %rsp,%rbp
    90b7:	48 89 7d f8          	mov    %rdi,-0x8(%rbp)
    90bb:	48 89 75 f0          	mov    %rsi,-0x10(%rbp)
    90bf:	48 83 7d f0 00       	cmpq   $0x0,-0x10(%rbp)
    90c4:	74 0f                	je     90d5 <safe_div_func_uint64_t_u_u+0x26>
    90c6:	48 8b 45 f8          	mov    -0x8(%rbp),%rax
    90ca:	ba 00 00 00 00       	mov    $0x0,%edx
    90cf:	48 f7 75 f0          	divq   -0x10(%rbp)
    90d3:	eb 04                	jmp    90d9 <safe_div_func_uint64_t_u_u+0x2a>
    90d5:	48 8b 45 f8          	mov    -0x8(%rbp),%rax
    90d9:	5d                   	pop    %rbp
    90da:	c3                   	retq   

00000000000090db <safe_lshift_func_uint64_t_u_s>:
    90db:	f3 0f 1e fa          	endbr64 
    90df:	55                   	push   %rbp
    90e0:	48 89 e5             	mov    %rsp,%rbp
    90e3:	48 89 7d f8          	mov    %rdi,-0x8(%rbp)
    90e7:	89 75 f4             	mov    %esi,-0xc(%rbp)
    90ea:	83 7d f4 00          	cmpl   $0x0,-0xc(%rbp)
    90ee:	78 2f                	js     911f <safe_lshift_func_uint64_t_u_s+0x44>
    90f0:	83 7d f4 1f          	cmpl   $0x1f,-0xc(%rbp)
    90f4:	7f 29                	jg     911f <safe_lshift_func_uint64_t_u_s+0x44>
    90f6:	8b 45 f4             	mov    -0xc(%rbp),%eax
    90f9:	48 c7 c2 ff ff ff ff 	mov    $0xffffffffffffffff,%rdx
    9100:	89 c1                	mov    %eax,%ecx
    9102:	48 d3 ea             	shr    %cl,%rdx
    9105:	48 89 d0             	mov    %rdx,%rax
    9108:	48 39 45 f8          	cmp    %rax,-0x8(%rbp)
    910c:	77 11                	ja     911f <safe_lshift_func_uint64_t_u_s+0x44>
    910e:	8b 45 f4             	mov    -0xc(%rbp),%eax
    9111:	48 8b 55 f8          	mov    -0x8(%rbp),%rdx
    9115:	89 c1                	mov    %eax,%ecx
    9117:	48 d3 e2             	shl    %cl,%rdx
    911a:	48 89 d0             	mov    %rdx,%rax
    911d:	eb 04                	jmp    9123 <safe_lshift_func_uint64_t_u_s+0x48>
    911f:	48 8b 45 f8          	mov    -0x8(%rbp),%rax
    9123:	5d                   	pop    %rbp
    9124:	c3                   	retq   

0000000000009125 <safe_lshift_func_uint64_t_u_u>:
    9125:	f3 0f 1e fa          	endbr64 
    9129:	55                   	push   %rbp
    912a:	48 89 e5             	mov    %rsp,%rbp
    912d:	48 89 7d f8          	mov    %rdi,-0x8(%rbp)
    9131:	89 75 f4             	mov    %esi,-0xc(%rbp)
    9134:	83 7d f4 1f          	cmpl   $0x1f,-0xc(%rbp)
    9138:	77 29                	ja     9163 <safe_lshift_func_uint64_t_u_u+0x3e>
    913a:	8b 45 f4             	mov    -0xc(%rbp),%eax
    913d:	48 c7 c2 ff ff ff ff 	mov    $0xffffffffffffffff,%rdx
    9144:	89 c1                	mov    %eax,%ecx
    9146:	48 d3 ea             	shr    %cl,%rdx
    9149:	48 89 d0             	mov    %rdx,%rax
    914c:	48 39 45 f8          	cmp    %rax,-0x8(%rbp)
    9150:	77 11                	ja     9163 <safe_lshift_func_uint64_t_u_u+0x3e>
    9152:	8b 45 f4             	mov    -0xc(%rbp),%eax
    9155:	48 8b 55 f8          	mov    -0x8(%rbp),%rdx
    9159:	89 c1                	mov    %eax,%ecx
    915b:	48 d3 e2             	shl    %cl,%rdx
    915e:	48 89 d0             	mov    %rdx,%rax
    9161:	eb 04                	jmp    9167 <safe_lshift_func_uint64_t_u_u+0x42>
    9163:	48 8b 45 f8          	mov    -0x8(%rbp),%rax
    9167:	5d                   	pop    %rbp
    9168:	c3                   	retq   

0000000000009169 <safe_rshift_func_uint64_t_u_s>:
    9169:	f3 0f 1e fa          	endbr64 
    916d:	55                   	push   %rbp
    916e:	48 89 e5             	mov    %rsp,%rbp
    9171:	48 89 7d f8          	mov    %rdi,-0x8(%rbp)
    9175:	89 75 f4             	mov    %esi,-0xc(%rbp)
    9178:	83 7d f4 00          	cmpl   $0x0,-0xc(%rbp)
    917c:	78 17                	js     9195 <safe_rshift_func_uint64_t_u_s+0x2c>
    917e:	83 7d f4 1f          	cmpl   $0x1f,-0xc(%rbp)
    9182:	7f 11                	jg     9195 <safe_rshift_func_uint64_t_u_s+0x2c>
    9184:	8b 45 f4             	mov    -0xc(%rbp),%eax
    9187:	48 8b 55 f8          	mov    -0x8(%rbp),%rdx
    918b:	89 c1                	mov    %eax,%ecx
    918d:	48 d3 ea             	shr    %cl,%rdx
    9190:	48 89 d0             	mov    %rdx,%rax
    9193:	eb 04                	jmp    9199 <safe_rshift_func_uint64_t_u_s+0x30>
    9195:	48 8b 45 f8          	mov    -0x8(%rbp),%rax
    9199:	5d                   	pop    %rbp
    919a:	c3                   	retq   

000000000000919b <safe_rshift_func_uint64_t_u_u>:
    919b:	f3 0f 1e fa          	endbr64 
    919f:	55                   	push   %rbp
    91a0:	48 89 e5             	mov    %rsp,%rbp
    91a3:	48 89 7d f8          	mov    %rdi,-0x8(%rbp)
    91a7:	89 75 f4             	mov    %esi,-0xc(%rbp)
    91aa:	83 7d f4 1f          	cmpl   $0x1f,-0xc(%rbp)
    91ae:	77 11                	ja     91c1 <safe_rshift_func_uint64_t_u_u+0x26>
    91b0:	8b 45 f4             	mov    -0xc(%rbp),%eax
    91b3:	48 8b 55 f8          	mov    -0x8(%rbp),%rdx
    91b7:	89 c1                	mov    %eax,%ecx
    91b9:	48 d3 ea             	shr    %cl,%rdx
    91bc:	48 89 d0             	mov    %rdx,%rax
    91bf:	eb 04                	jmp    91c5 <safe_rshift_func_uint64_t_u_u+0x2a>
    91c1:	48 8b 45 f8          	mov    -0x8(%rbp),%rax
    91c5:	5d                   	pop    %rbp
    91c6:	c3                   	retq   

00000000000091c7 <safe_add_func_float_f_f>:
    91c7:	f3 0f 1e fa          	endbr64 
    91cb:	55                   	push   %rbp
    91cc:	48 89 e5             	mov    %rsp,%rbp
    91cf:	f3 0f 11 45 fc       	movss  %xmm0,-0x4(%rbp)
    91d4:	f3 0f 11 4d f8       	movss  %xmm1,-0x8(%rbp)
    91d9:	f3 0f 10 4d fc       	movss  -0x4(%rbp),%xmm1
    91de:	f3 0f 10 05 f2 d9 00 	movss  0xd9f2(%rip),%xmm0        # 16bd8 <l_1647.4676+0x38>
    91e5:	00 
    91e6:	f3 0f 59 c8          	mulss  %xmm0,%xmm1
    91ea:	f3 0f 10 55 f8       	movss  -0x8(%rbp),%xmm2
    91ef:	f3 0f 10 05 e1 d9 00 	movss  0xd9e1(%rip),%xmm0        # 16bd8 <l_1647.4676+0x38>
    91f6:	00 
    91f7:	f3 0f 59 c2          	mulss  %xmm2,%xmm0
    91fb:	f3 0f 58 c1          	addss  %xmm1,%xmm0
    91ff:	f3 0f 10 0d d9 d9 00 	movss  0xd9d9(%rip),%xmm1        # 16be0 <l_1647.4676+0x40>
    9206:	00 
    9207:	0f 54 c1             	andps  %xmm1,%xmm0
    920a:	0f 2f 05 df d9 00 00 	comiss 0xd9df(%rip),%xmm0        # 16bf0 <l_1647.4676+0x50>
    9211:	76 07                	jbe    921a <safe_add_func_float_f_f+0x53>
    9213:	f3 0f 10 45 fc       	movss  -0x4(%rbp),%xmm0
    9218:	eb 0a                	jmp    9224 <safe_add_func_float_f_f+0x5d>
    921a:	f3 0f 10 45 fc       	movss  -0x4(%rbp),%xmm0
    921f:	f3 0f 58 45 f8       	addss  -0x8(%rbp),%xmm0
    9224:	5d                   	pop    %rbp
    9225:	c3                   	retq   

0000000000009226 <safe_sub_func_float_f_f>:
    9226:	f3 0f 1e fa          	endbr64 
    922a:	55                   	push   %rbp
    922b:	48 89 e5             	mov    %rsp,%rbp
    922e:	f3 0f 11 45 fc       	movss  %xmm0,-0x4(%rbp)
    9233:	f3 0f 11 4d f8       	movss  %xmm1,-0x8(%rbp)
    9238:	f3 0f 10 4d fc       	movss  -0x4(%rbp),%xmm1
    923d:	f3 0f 10 05 93 d9 00 	movss  0xd993(%rip),%xmm0        # 16bd8 <l_1647.4676+0x38>
    9244:	00 
    9245:	f3 0f 59 c1          	mulss  %xmm1,%xmm0
    9249:	f3 0f 10 55 f8       	movss  -0x8(%rbp),%xmm2
    924e:	f3 0f 10 0d 82 d9 00 	movss  0xd982(%rip),%xmm1        # 16bd8 <l_1647.4676+0x38>
    9255:	00 
    9256:	f3 0f 59 ca          	mulss  %xmm2,%xmm1
    925a:	f3 0f 5c c1          	subss  %xmm1,%xmm0
    925e:	f3 0f 10 0d 7a d9 00 	movss  0xd97a(%rip),%xmm1        # 16be0 <l_1647.4676+0x40>
    9265:	00 
    9266:	0f 54 c1             	andps  %xmm1,%xmm0
    9269:	0f 2f 05 80 d9 00 00 	comiss 0xd980(%rip),%xmm0        # 16bf0 <l_1647.4676+0x50>
    9270:	76 07                	jbe    9279 <safe_sub_func_float_f_f+0x53>
    9272:	f3 0f 10 45 fc       	movss  -0x4(%rbp),%xmm0
    9277:	eb 0a                	jmp    9283 <safe_sub_func_float_f_f+0x5d>
    9279:	f3 0f 10 45 fc       	movss  -0x4(%rbp),%xmm0
    927e:	f3 0f 5c 45 f8       	subss  -0x8(%rbp),%xmm0
    9283:	5d                   	pop    %rbp
    9284:	c3                   	retq   

0000000000009285 <safe_mul_func_float_f_f>:
    9285:	f3 0f 1e fa          	endbr64 
    9289:	55                   	push   %rbp
    928a:	48 89 e5             	mov    %rsp,%rbp
    928d:	f3 0f 11 45 fc       	movss  %xmm0,-0x4(%rbp)
    9292:	f3 0f 11 4d f8       	movss  %xmm1,-0x8(%rbp)
    9297:	f3 0f 10 4d fc       	movss  -0x4(%rbp),%xmm1
    929c:	f3 0f 10 05 50 d9 00 	movss  0xd950(%rip),%xmm0        # 16bf4 <l_1647.4676+0x54>
    92a3:	00 
    92a4:	f3 0f 59 c8          	mulss  %xmm0,%xmm1
    92a8:	f3 0f 10 55 f8       	movss  -0x8(%rbp),%xmm2
    92ad:	f3 0f 10 05 43 d9 00 	movss  0xd943(%rip),%xmm0        # 16bf8 <l_1647.4676+0x58>
    92b4:	00 
    92b5:	f3 0f 59 c2          	mulss  %xmm2,%xmm0
    92b9:	f3 0f 59 c1          	mulss  %xmm1,%xmm0
    92bd:	f3 0f 10 0d 1b d9 00 	movss  0xd91b(%rip),%xmm1        # 16be0 <l_1647.4676+0x40>
    92c4:	00 
    92c5:	0f 54 c1             	andps  %xmm1,%xmm0
    92c8:	0f 2f 05 2d d9 00 00 	comiss 0xd92d(%rip),%xmm0        # 16bfc <l_1647.4676+0x5c>
    92cf:	76 07                	jbe    92d8 <safe_mul_func_float_f_f+0x53>
    92d1:	f3 0f 10 45 fc       	movss  -0x4(%rbp),%xmm0
    92d6:	eb 0a                	jmp    92e2 <safe_mul_func_float_f_f+0x5d>
    92d8:	f3 0f 10 45 fc       	movss  -0x4(%rbp),%xmm0
    92dd:	f3 0f 59 45 f8       	mulss  -0x8(%rbp),%xmm0
    92e2:	5d                   	pop    %rbp
    92e3:	c3                   	retq   

00000000000092e4 <safe_div_func_float_f_f>:
    92e4:	f3 0f 1e fa          	endbr64 
    92e8:	55                   	push   %rbp
    92e9:	48 89 e5             	mov    %rsp,%rbp
    92ec:	f3 0f 11 45 fc       	movss  %xmm0,-0x4(%rbp)
    92f1:	f3 0f 11 4d f8       	movss  %xmm1,-0x8(%rbp)
    92f6:	f3 0f 10 45 f8       	movss  -0x8(%rbp),%xmm0
    92fb:	f3 0f 10 0d dd d8 00 	movss  0xd8dd(%rip),%xmm1        # 16be0 <l_1647.4676+0x40>
    9302:	00 
    9303:	0f 54 c8             	andps  %xmm0,%xmm1
    9306:	f3 0f 10 05 f2 d8 00 	movss  0xd8f2(%rip),%xmm0        # 16c00 <l_1647.4676+0x60>
    930d:	00 
    930e:	0f 2f c1             	comiss %xmm1,%xmm0
    9311:	0f 97 c0             	seta   %al
    9314:	83 f0 01             	xor    $0x1,%eax
    9317:	84 c0                	test   %al,%al
    9319:	75 56                	jne    9371 <safe_div_func_float_f_f+0x8d>
    931b:	66 0f ef c0          	pxor   %xmm0,%xmm0
    931f:	0f 2e 45 f8          	ucomiss -0x8(%rbp),%xmm0
    9323:	7a 0a                	jp     932f <safe_div_func_float_f_f+0x4b>
    9325:	66 0f ef c0          	pxor   %xmm0,%xmm0
    9329:	0f 2e 45 f8          	ucomiss -0x8(%rbp),%xmm0
    932d:	74 4e                	je     937d <safe_div_func_float_f_f+0x99>
    932f:	f3 0f 10 4d fc       	movss  -0x4(%rbp),%xmm1
    9334:	f3 0f 10 05 c8 d8 00 	movss  0xd8c8(%rip),%xmm0        # 16c04 <l_1647.4676+0x64>
    933b:	00 
    933c:	f3 0f 59 c1          	mulss  %xmm1,%xmm0
    9340:	f3 0f 10 55 f8       	movss  -0x8(%rbp),%xmm2
    9345:	f3 0f 10 0d bb d8 00 	movss  0xd8bb(%rip),%xmm1        # 16c08 <l_1647.4676+0x68>
    934c:	00 
    934d:	f3 0f 59 ca          	mulss  %xmm2,%xmm1
    9351:	f3 0f 5e c1          	divss  %xmm1,%xmm0
    9355:	f3 0f 10 0d 83 d8 00 	movss  0xd883(%rip),%xmm1        # 16be0 <l_1647.4676+0x40>
    935c:	00 
    935d:	0f 54 c1             	andps  %xmm1,%xmm0
    9360:	0f 2f 05 a5 d8 00 00 	comiss 0xd8a5(%rip),%xmm0        # 16c0c <l_1647.4676+0x6c>
    9367:	0f 97 c0             	seta   %al
    936a:	83 f0 01             	xor    $0x1,%eax
    936d:	84 c0                	test   %al,%al
    936f:	74 0c                	je     937d <safe_div_func_float_f_f+0x99>
    9371:	f3 0f 10 45 fc       	movss  -0x4(%rbp),%xmm0
    9376:	f3 0f 5e 45 f8       	divss  -0x8(%rbp),%xmm0
    937b:	eb 05                	jmp    9382 <safe_div_func_float_f_f+0x9e>
    937d:	f3 0f 10 45 fc       	movss  -0x4(%rbp),%xmm0
    9382:	5d                   	pop    %rbp
    9383:	c3                   	retq   

0000000000009384 <safe_add_func_double_f_f>:
    9384:	f3 0f 1e fa          	endbr64 
    9388:	55                   	push   %rbp
    9389:	48 89 e5             	mov    %rsp,%rbp
    938c:	f2 0f 11 45 f8       	movsd  %xmm0,-0x8(%rbp)
    9391:	f2 0f 11 4d f0       	movsd  %xmm1,-0x10(%rbp)
    9396:	f2 0f 10 4d f8       	movsd  -0x8(%rbp),%xmm1
    939b:	f2 0f 10 05 6d d8 00 	movsd  0xd86d(%rip),%xmm0        # 16c10 <l_1647.4676+0x70>
    93a2:	00 
    93a3:	f2 0f 59 c8          	mulsd  %xmm0,%xmm1
    93a7:	f2 0f 10 55 f0       	movsd  -0x10(%rbp),%xmm2
    93ac:	f2 0f 10 05 5c d8 00 	movsd  0xd85c(%rip),%xmm0        # 16c10 <l_1647.4676+0x70>
    93b3:	00 
    93b4:	f2 0f 59 c2          	mulsd  %xmm2,%xmm0
    93b8:	f2 0f 58 c1          	addsd  %xmm1,%xmm0
    93bc:	f3 0f 7e 0d 5c d8 00 	movq   0xd85c(%rip),%xmm1        # 16c20 <l_1647.4676+0x80>
    93c3:	00 
    93c4:	66 0f 54 c1          	andpd  %xmm1,%xmm0
    93c8:	66 0f 2f 05 60 d8 00 	comisd 0xd860(%rip),%xmm0        # 16c30 <l_1647.4676+0x90>
    93cf:	00 
    93d0:	76 07                	jbe    93d9 <safe_add_func_double_f_f+0x55>
    93d2:	f2 0f 10 45 f8       	movsd  -0x8(%rbp),%xmm0
    93d7:	eb 0a                	jmp    93e3 <safe_add_func_double_f_f+0x5f>
    93d9:	f2 0f 10 45 f8       	movsd  -0x8(%rbp),%xmm0
    93de:	f2 0f 58 45 f0       	addsd  -0x10(%rbp),%xmm0
    93e3:	5d                   	pop    %rbp
    93e4:	c3                   	retq   

00000000000093e5 <safe_sub_func_double_f_f>:
    93e5:	f3 0f 1e fa          	endbr64 
    93e9:	55                   	push   %rbp
    93ea:	48 89 e5             	mov    %rsp,%rbp
    93ed:	f2 0f 11 45 f8       	movsd  %xmm0,-0x8(%rbp)
    93f2:	f2 0f 11 4d f0       	movsd  %xmm1,-0x10(%rbp)
    93f7:	f2 0f 10 4d f8       	movsd  -0x8(%rbp),%xmm1
    93fc:	f2 0f 10 05 0c d8 00 	movsd  0xd80c(%rip),%xmm0        # 16c10 <l_1647.4676+0x70>
    9403:	00 
    9404:	f2 0f 59 c1          	mulsd  %xmm1,%xmm0
    9408:	f2 0f 10 55 f0       	movsd  -0x10(%rbp),%xmm2
    940d:	f2 0f 10 0d fb d7 00 	movsd  0xd7fb(%rip),%xmm1        # 16c10 <l_1647.4676+0x70>
    9414:	00 
    9415:	f2 0f 59 ca          	mulsd  %xmm2,%xmm1
    9419:	f2 0f 5c c1          	subsd  %xmm1,%xmm0
    941d:	f3 0f 7e 0d fb d7 00 	movq   0xd7fb(%rip),%xmm1        # 16c20 <l_1647.4676+0x80>
    9424:	00 
    9425:	66 0f 54 c1          	andpd  %xmm1,%xmm0
    9429:	66 0f 2f 05 ff d7 00 	comisd 0xd7ff(%rip),%xmm0        # 16c30 <l_1647.4676+0x90>
    9430:	00 
    9431:	76 07                	jbe    943a <safe_sub_func_double_f_f+0x55>
    9433:	f2 0f 10 45 f8       	movsd  -0x8(%rbp),%xmm0
    9438:	eb 0a                	jmp    9444 <safe_sub_func_double_f_f+0x5f>
    943a:	f2 0f 10 45 f8       	movsd  -0x8(%rbp),%xmm0
    943f:	f2 0f 5c 45 f0       	subsd  -0x10(%rbp),%xmm0
    9444:	5d                   	pop    %rbp
    9445:	c3                   	retq   

0000000000009446 <safe_mul_func_double_f_f>:
    9446:	f3 0f 1e fa          	endbr64 
    944a:	55                   	push   %rbp
    944b:	48 89 e5             	mov    %rsp,%rbp
    944e:	f2 0f 11 45 f8       	movsd  %xmm0,-0x8(%rbp)
    9453:	f2 0f 11 4d f0       	movsd  %xmm1,-0x10(%rbp)
    9458:	f2 0f 10 4d f8       	movsd  -0x8(%rbp),%xmm1
    945d:	f2 0f 10 05 d3 d7 00 	movsd  0xd7d3(%rip),%xmm0        # 16c38 <l_1647.4676+0x98>
    9464:	00 
    9465:	f2 0f 59 c8          	mulsd  %xmm0,%xmm1
    9469:	f2 0f 10 55 f0       	movsd  -0x10(%rbp),%xmm2
    946e:	f2 0f 10 05 ca d7 00 	movsd  0xd7ca(%rip),%xmm0        # 16c40 <l_1647.4676+0xa0>
    9475:	00 
    9476:	f2 0f 59 c2          	mulsd  %xmm2,%xmm0
    947a:	f2 0f 59 c1          	mulsd  %xmm1,%xmm0
    947e:	f3 0f 7e 0d 9a d7 00 	movq   0xd79a(%rip),%xmm1        # 16c20 <l_1647.4676+0x80>
    9485:	00 
    9486:	66 0f 54 c1          	andpd  %xmm1,%xmm0
    948a:	66 0f 2f 05 b6 d7 00 	comisd 0xd7b6(%rip),%xmm0        # 16c48 <l_1647.4676+0xa8>
    9491:	00 
    9492:	76 07                	jbe    949b <safe_mul_func_double_f_f+0x55>
    9494:	f2 0f 10 45 f8       	movsd  -0x8(%rbp),%xmm0
    9499:	eb 0a                	jmp    94a5 <safe_mul_func_double_f_f+0x5f>
    949b:	f2 0f 10 45 f8       	movsd  -0x8(%rbp),%xmm0
    94a0:	f2 0f 59 45 f0       	mulsd  -0x10(%rbp),%xmm0
    94a5:	5d                   	pop    %rbp
    94a6:	c3                   	retq   

00000000000094a7 <safe_div_func_double_f_f>:
    94a7:	f3 0f 1e fa          	endbr64 
    94ab:	55                   	push   %rbp
    94ac:	48 89 e5             	mov    %rsp,%rbp
    94af:	f2 0f 11 45 f8       	movsd  %xmm0,-0x8(%rbp)
    94b4:	f2 0f 11 4d f0       	movsd  %xmm1,-0x10(%rbp)
    94b9:	f2 0f 10 45 f0       	movsd  -0x10(%rbp),%xmm0
    94be:	f3 0f 7e 0d 5a d7 00 	movq   0xd75a(%rip),%xmm1        # 16c20 <l_1647.4676+0x80>
    94c5:	00 
    94c6:	66 0f 54 c8          	andpd  %xmm0,%xmm1
    94ca:	f2 0f 10 05 7e d7 00 	movsd  0xd77e(%rip),%xmm0        # 16c50 <l_1647.4676+0xb0>
    94d1:	00 
    94d2:	66 0f 2f c1          	comisd %xmm1,%xmm0
    94d6:	0f 97 c0             	seta   %al
    94d9:	83 f0 01             	xor    $0x1,%eax
    94dc:	84 c0                	test   %al,%al
    94de:	75 5a                	jne    953a <safe_div_func_double_f_f+0x93>
    94e0:	66 0f ef c0          	pxor   %xmm0,%xmm0
    94e4:	66 0f 2e 45 f0       	ucomisd -0x10(%rbp),%xmm0
    94e9:	7a 0b                	jp     94f6 <safe_div_func_double_f_f+0x4f>
    94eb:	66 0f ef c0          	pxor   %xmm0,%xmm0
    94ef:	66 0f 2e 45 f0       	ucomisd -0x10(%rbp),%xmm0
    94f4:	74 50                	je     9546 <safe_div_func_double_f_f+0x9f>
    94f6:	f2 0f 10 4d f8       	movsd  -0x8(%rbp),%xmm1
    94fb:	f2 0f 10 05 55 d7 00 	movsd  0xd755(%rip),%xmm0        # 16c58 <l_1647.4676+0xb8>
    9502:	00 
    9503:	f2 0f 59 c1          	mulsd  %xmm1,%xmm0
    9507:	f2 0f 10 55 f0       	movsd  -0x10(%rbp),%xmm2
    950c:	f2 0f 10 0d 4c d7 00 	movsd  0xd74c(%rip),%xmm1        # 16c60 <l_1647.4676+0xc0>
    9513:	00 
    9514:	f2 0f 59 ca          	mulsd  %xmm2,%xmm1
    9518:	f2 0f 5e c1          	divsd  %xmm1,%xmm0
    951c:	f3 0f 7e 0d fc d6 00 	movq   0xd6fc(%rip),%xmm1        # 16c20 <l_1647.4676+0x80>
    9523:	00 
    9524:	66 0f 54 c1          	andpd  %xmm1,%xmm0
    9528:	66 0f 2f 05 38 d7 00 	comisd 0xd738(%rip),%xmm0        # 16c68 <l_1647.4676+0xc8>
    952f:	00 
    9530:	0f 97 c0             	seta   %al
    9533:	83 f0 01             	xor    $0x1,%eax
    9536:	84 c0                	test   %al,%al
    9538:	74 0c                	je     9546 <safe_div_func_double_f_f+0x9f>
    953a:	f2 0f 10 45 f8       	movsd  -0x8(%rbp),%xmm0
    953f:	f2 0f 5e 45 f0       	divsd  -0x10(%rbp),%xmm0
    9544:	eb 05                	jmp    954b <safe_div_func_double_f_f+0xa4>
    9546:	f2 0f 10 45 f8       	movsd  -0x8(%rbp),%xmm0
    954b:	5d                   	pop    %rbp
    954c:	c3                   	retq   

000000000000954d <safe_convert_func_float_to_int32_t>:
    954d:	f3 0f 1e fa          	endbr64 
    9551:	55                   	push   %rbp
    9552:	48 89 e5             	mov    %rsp,%rbp
    9555:	f3 0f 11 45 fc       	movss  %xmm0,-0x4(%rbp)
    955a:	f3 0f 10 05 0e d7 00 	movss  0xd70e(%rip),%xmm0        # 16c70 <l_1647.4676+0xd0>
    9561:	00 
    9562:	0f 2f 45 fc          	comiss -0x4(%rbp),%xmm0
    9566:	0f 93 c0             	setae  %al
    9569:	83 f0 01             	xor    $0x1,%eax
    956c:	84 c0                	test   %al,%al
    956e:	74 21                	je     9591 <safe_convert_func_float_to_int32_t+0x44>
    9570:	f3 0f 10 45 fc       	movss  -0x4(%rbp),%xmm0
    9575:	0f 2f 05 f8 d6 00 00 	comiss 0xd6f8(%rip),%xmm0        # 16c74 <l_1647.4676+0xd4>
    957c:	0f 93 c0             	setae  %al
    957f:	83 f0 01             	xor    $0x1,%eax
    9582:	84 c0                	test   %al,%al
    9584:	74 0b                	je     9591 <safe_convert_func_float_to_int32_t+0x44>
    9586:	f3 0f 10 45 fc       	movss  -0x4(%rbp),%xmm0
    958b:	f3 0f 2c c0          	cvttss2si %xmm0,%eax
    958f:	eb 05                	jmp    9596 <safe_convert_func_float_to_int32_t+0x49>
    9591:	b8 ff ff ff 7f       	mov    $0x7fffffff,%eax
    9596:	5d                   	pop    %rbp
    9597:	c3                   	retq   

0000000000009598 <crc32_gentab>:
    9598:	f3 0f 1e fa          	endbr64 
    959c:	55                   	push   %rbp
    959d:	48 89 e5             	mov    %rsp,%rbp
    95a0:	c7 45 fc 20 83 b8 ed 	movl   $0xedb88320,-0x4(%rbp)
    95a7:	c7 45 f4 00 00 00 00 	movl   $0x0,-0xc(%rbp)
    95ae:	eb 51                	jmp    9601 <crc32_gentab+0x69>
    95b0:	8b 45 f4             	mov    -0xc(%rbp),%eax
    95b3:	89 45 f0             	mov    %eax,-0x10(%rbp)
    95b6:	c7 45 f8 08 00 00 00 	movl   $0x8,-0x8(%rbp)
    95bd:	eb 1e                	jmp    95dd <crc32_gentab+0x45>
    95bf:	8b 45 f0             	mov    -0x10(%rbp),%eax
    95c2:	83 e0 01             	and    $0x1,%eax
    95c5:	85 c0                	test   %eax,%eax
    95c7:	74 0d                	je     95d6 <crc32_gentab+0x3e>
    95c9:	8b 45 f0             	mov    -0x10(%rbp),%eax
    95cc:	d1 e8                	shr    %eax
    95ce:	33 45 fc             	xor    -0x4(%rbp),%eax
    95d1:	89 45 f0             	mov    %eax,-0x10(%rbp)
    95d4:	eb 03                	jmp    95d9 <crc32_gentab+0x41>
    95d6:	d1 6d f0             	shrl   -0x10(%rbp)
    95d9:	83 6d f8 01          	subl   $0x1,-0x8(%rbp)
    95dd:	83 7d f8 00          	cmpl   $0x0,-0x8(%rbp)
    95e1:	7f dc                	jg     95bf <crc32_gentab+0x27>
    95e3:	8b 45 f4             	mov    -0xc(%rbp),%eax
    95e6:	48 98                	cltq   
    95e8:	48 8d 0c 85 00 00 00 	lea    0x0(,%rax,4),%rcx
    95ef:	00 
    95f0:	48 8d 15 09 4f 01 00 	lea    0x14f09(%rip),%rdx        # 1e500 <crc32_tab>
    95f7:	8b 45 f0             	mov    -0x10(%rbp),%eax
    95fa:	89 04 11             	mov    %eax,(%rcx,%rdx,1)
    95fd:	83 45 f4 01          	addl   $0x1,-0xc(%rbp)
    9601:	81 7d f4 ff 00 00 00 	cmpl   $0xff,-0xc(%rbp)
    9608:	7e a6                	jle    95b0 <crc32_gentab+0x18>
    960a:	90                   	nop
    960b:	90                   	nop
    960c:	5d                   	pop    %rbp
    960d:	c3                   	retq   

000000000000960e <crc32_byte>:
    960e:	f3 0f 1e fa          	endbr64 
    9612:	55                   	push   %rbp
    9613:	48 89 e5             	mov    %rsp,%rbp
    9616:	89 f8                	mov    %edi,%eax
    9618:	88 45 fc             	mov    %al,-0x4(%rbp)
    961b:	8b 05 ff 09 01 00    	mov    0x109ff(%rip),%eax        # 1a020 <crc32_context>
    9621:	c1 e8 08             	shr    $0x8,%eax
    9624:	89 c1                	mov    %eax,%ecx
    9626:	0f b6 55 fc          	movzbl -0x4(%rbp),%edx
    962a:	8b 05 f0 09 01 00    	mov    0x109f0(%rip),%eax        # 1a020 <crc32_context>
    9630:	31 d0                	xor    %edx,%eax
    9632:	0f b6 c0             	movzbl %al,%eax
    9635:	89 c0                	mov    %eax,%eax
    9637:	48 8d 14 85 00 00 00 	lea    0x0(,%rax,4),%rdx
    963e:	00 
    963f:	48 8d 05 ba 4e 01 00 	lea    0x14eba(%rip),%rax        # 1e500 <crc32_tab>
    9646:	8b 04 02             	mov    (%rdx,%rax,1),%eax
    9649:	31 c8                	xor    %ecx,%eax
    964b:	89 05 cf 09 01 00    	mov    %eax,0x109cf(%rip)        # 1a020 <crc32_context>
    9651:	90                   	nop
    9652:	5d                   	pop    %rbp
    9653:	c3                   	retq   

0000000000009654 <crc32_8bytes>:
    9654:	f3 0f 1e fa          	endbr64 
    9658:	55                   	push   %rbp
    9659:	48 89 e5             	mov    %rsp,%rbp
    965c:	48 83 ec 08          	sub    $0x8,%rsp
    9660:	48 89 7d f8          	mov    %rdi,-0x8(%rbp)
    9664:	48 8b 45 f8          	mov    -0x8(%rbp),%rax
    9668:	0f b6 c0             	movzbl %al,%eax
    966b:	89 c7                	mov    %eax,%edi
    966d:	e8 9c ff ff ff       	callq  960e <crc32_byte>
    9672:	48 8b 45 f8          	mov    -0x8(%rbp),%rax
    9676:	48 c1 e8 08          	shr    $0x8,%rax
    967a:	0f b6 c0             	movzbl %al,%eax
    967d:	89 c7                	mov    %eax,%edi
    967f:	e8 8a ff ff ff       	callq  960e <crc32_byte>
    9684:	48 8b 45 f8          	mov    -0x8(%rbp),%rax
    9688:	48 c1 e8 10          	shr    $0x10,%rax
    968c:	0f b6 c0             	movzbl %al,%eax
    968f:	89 c7                	mov    %eax,%edi
    9691:	e8 78 ff ff ff       	callq  960e <crc32_byte>
    9696:	48 8b 45 f8          	mov    -0x8(%rbp),%rax
    969a:	48 c1 e8 18          	shr    $0x18,%rax
    969e:	0f b6 c0             	movzbl %al,%eax
    96a1:	89 c7                	mov    %eax,%edi
    96a3:	e8 66 ff ff ff       	callq  960e <crc32_byte>
    96a8:	48 8b 45 f8          	mov    -0x8(%rbp),%rax
    96ac:	48 c1 e8 20          	shr    $0x20,%rax
    96b0:	0f b6 c0             	movzbl %al,%eax
    96b3:	89 c7                	mov    %eax,%edi
    96b5:	e8 54 ff ff ff       	callq  960e <crc32_byte>
    96ba:	48 8b 45 f8          	mov    -0x8(%rbp),%rax
    96be:	48 c1 e8 28          	shr    $0x28,%rax
    96c2:	0f b6 c0             	movzbl %al,%eax
    96c5:	89 c7                	mov    %eax,%edi
    96c7:	e8 42 ff ff ff       	callq  960e <crc32_byte>
    96cc:	48 8b 45 f8          	mov    -0x8(%rbp),%rax
    96d0:	48 c1 e8 30          	shr    $0x30,%rax
    96d4:	0f b6 c0             	movzbl %al,%eax
    96d7:	89 c7                	mov    %eax,%edi
    96d9:	e8 30 ff ff ff       	callq  960e <crc32_byte>
    96de:	48 8b 45 f8          	mov    -0x8(%rbp),%rax
    96e2:	48 c1 e8 38          	shr    $0x38,%rax
    96e6:	0f b6 c0             	movzbl %al,%eax
    96e9:	89 c7                	mov    %eax,%edi
    96eb:	e8 1e ff ff ff       	callq  960e <crc32_byte>
    96f0:	90                   	nop
    96f1:	c9                   	leaveq 
    96f2:	c3                   	retq   

00000000000096f3 <transparent_crc>:
    96f3:	f3 0f 1e fa          	endbr64 
    96f7:	55                   	push   %rbp
    96f8:	48 89 e5             	mov    %rsp,%rbp
    96fb:	48 83 ec 20          	sub    $0x20,%rsp
    96ff:	48 89 7d f8          	mov    %rdi,-0x8(%rbp)
    9703:	48 89 75 f0          	mov    %rsi,-0x10(%rbp)
    9707:	89 55 ec             	mov    %edx,-0x14(%rbp)
    970a:	48 8b 45 f8          	mov    -0x8(%rbp),%rax
    970e:	48 89 c7             	mov    %rax,%rdi
    9711:	e8 3e ff ff ff       	callq  9654 <crc32_8bytes>
    9716:	83 7d ec 00          	cmpl   $0x0,-0x14(%rbp)
    971a:	74 22                	je     973e <transparent_crc+0x4b>
    971c:	8b 05 fe 08 01 00    	mov    0x108fe(%rip),%eax        # 1a020 <crc32_context>
    9722:	f7 d0                	not    %eax
    9724:	89 c2                	mov    %eax,%edx
    9726:	48 8b 45 f0          	mov    -0x10(%rbp),%rax
    972a:	48 89 c6             	mov    %rax,%rsi
    972d:	48 8d 3d fc b8 00 00 	lea    0xb8fc(%rip),%rdi        # 15030 <_IO_stdin_used+0x30>
    9734:	b8 00 00 00 00       	mov    $0x0,%eax
    9739:	e8 42 e9 ff ff       	callq  8080 <printf@plt>
    973e:	90                   	nop
    973f:	c9                   	leaveq 
    9740:	c3                   	retq   

0000000000009741 <transparent_crc_bytes>:
    9741:	f3 0f 1e fa          	endbr64 
    9745:	55                   	push   %rbp
    9746:	48 89 e5             	mov    %rsp,%rbp
    9749:	48 83 ec 30          	sub    $0x30,%rsp
    974d:	48 89 7d e8          	mov    %rdi,-0x18(%rbp)
    9751:	89 75 e4             	mov    %esi,-0x1c(%rbp)
    9754:	48 89 55 d8          	mov    %rdx,-0x28(%rbp)
    9758:	89 4d e0             	mov    %ecx,-0x20(%rbp)
    975b:	c7 45 fc 00 00 00 00 	movl   $0x0,-0x4(%rbp)
    9762:	eb 1e                	jmp    9782 <transparent_crc_bytes+0x41>
    9764:	8b 45 fc             	mov    -0x4(%rbp),%eax
    9767:	48 63 d0             	movslq %eax,%rdx
    976a:	48 8b 45 e8          	mov    -0x18(%rbp),%rax
    976e:	48 01 d0             	add    %rdx,%rax
    9771:	0f b6 00             	movzbl (%rax),%eax
    9774:	0f b6 c0             	movzbl %al,%eax
    9777:	89 c7                	mov    %eax,%edi
    9779:	e8 90 fe ff ff       	callq  960e <crc32_byte>
    977e:	83 45 fc 01          	addl   $0x1,-0x4(%rbp)
    9782:	8b 45 fc             	mov    -0x4(%rbp),%eax
    9785:	3b 45 e4             	cmp    -0x1c(%rbp),%eax
    9788:	7c da                	jl     9764 <transparent_crc_bytes+0x23>
    978a:	83 7d e0 00          	cmpl   $0x0,-0x20(%rbp)
    978e:	74 22                	je     97b2 <transparent_crc_bytes+0x71>
    9790:	8b 05 8a 08 01 00    	mov    0x1088a(%rip),%eax        # 1a020 <crc32_context>
    9796:	f7 d0                	not    %eax
    9798:	89 c2                	mov    %eax,%edx
    979a:	48 8b 45 d8          	mov    -0x28(%rbp),%rax
    979e:	48 89 c6             	mov    %rax,%rsi
    97a1:	48 8d 3d 88 b8 00 00 	lea    0xb888(%rip),%rdi        # 15030 <_IO_stdin_used+0x30>
    97a8:	b8 00 00 00 00       	mov    $0x0,%eax
    97ad:	e8 ce e8 ff ff       	callq  8080 <printf@plt>
    97b2:	90                   	nop
    97b3:	c9                   	leaveq 
    97b4:	c3                   	retq   

00000000000097b5 <func_1>:
    97b5:	f3 0f 1e fa          	endbr64 
    97b9:	55                   	push   %rbp
    97ba:	48 89 e5             	mov    %rsp,%rbp
    97bd:	41 55                	push   %r13
    97bf:	41 54                	push   %r12
    97c1:	53                   	push   %rbx
    97c2:	48 81 ec e8 04 00 00 	sub    $0x4e8,%rsp
    97c9:	64 48 8b 04 25 28 00 	mov    %fs:0x28,%rax
    97d0:	00 00 
    97d2:	48 89 45 d8          	mov    %rax,-0x28(%rbp)
    97d6:	31 c0                	xor    %eax,%eax
    97d8:	c7 85 08 fb ff ff aa 	movl   $0xa11015aa,-0x4f8(%rbp)
    97df:	15 10 a1 
    97e2:	48 b8 d3 10 8e f6 0f 	movabs $0xb607800ff68e10d3,%rax
    97e9:	80 07 b6 
    97ec:	48 89 85 20 fb ff ff 	mov    %rax,-0x4e0(%rbp)
    97f3:	c6 85 07 fb ff ff 1c 	movb   $0x1c,-0x4f9(%rbp)
    97fa:	c7 85 0c fb ff ff 06 	movl   $0x427c0f06,-0x4f4(%rbp)
    9801:	0f 7c 42 
    9804:	c7 85 10 fb ff ff 05 	movl   $0x5,-0x4f0(%rbp)
    980b:	00 00 00 
    980e:	c7 05 10 08 01 00 00 	movl   $0x0,0x10810(%rip)        # 1a028 <g_3>
    9815:	00 00 00 
    9818:	e9 b6 04 00 00       	jmpq   9cd3 <func_1+0x51e>
    981d:	48 c7 85 28 fb ff ff 	movq   $0x1,-0x4d8(%rbp)
    9824:	01 00 00 00 
    9828:	c7 85 14 fb ff ff 06 	movl   $0x6,-0x4ec(%rbp)
    982f:	00 00 00 
    9832:	48 c7 85 30 fb ff ff 	movq   $0x0,-0x4d0(%rbp)
    9839:	00 00 00 00 
    983d:	48 c7 85 38 fb ff ff 	movq   $0x0,-0x4c8(%rbp)
    9844:	00 00 00 00 
    9848:	48 8d 85 50 fd ff ff 	lea    -0x2b0(%rbp),%rax
    984f:	48 8d 15 0a 21 01 00 	lea    0x1210a(%rip),%rdx        # 1b960 <g_2887+0x20>
    9856:	b9 50 00 00 00       	mov    $0x50,%ecx
    985b:	48 89 c7             	mov    %rax,%rdi
    985e:	48 89 d6             	mov    %rdx,%rsi
    9861:	f3 48 a5             	rep movsq %ds:(%rsi),%es:(%rdi)
    9864:	48 8d 05 a5 30 01 00 	lea    0x130a5(%rip),%rax        # 1c910 <g_116>
    986b:	48 89 85 40 fb ff ff 	mov    %rax,-0x4c0(%rbp)
    9872:	c7 05 b4 07 01 00 00 	movl   $0x0,0x107b4(%rip)        # 1a030 <g_6>
    9879:	00 00 00 
    987c:	e9 9f 03 00 00       	jmpq   9c20 <func_1+0x46b>
    9881:	48 8d 05 ac 07 01 00 	lea    0x107ac(%rip),%rax        # 1a034 <g_10>
    9888:	48 89 85 48 fb ff ff 	mov    %rax,-0x4b8(%rbp)
    988f:	48 8d 05 ba 51 01 00 	lea    0x151ba(%rip),%rax        # 1ea50 <g_696>
    9896:	48 89 85 b0 fb ff ff 	mov    %rax,-0x450(%rbp)
    989d:	48 c7 85 b8 fb ff ff 	movq   $0x0,-0x448(%rbp)
    98a4:	00 00 00 00 
    98a8:	48 8d 05 a1 51 01 00 	lea    0x151a1(%rip),%rax        # 1ea50 <g_696>
    98af:	48 89 85 c0 fb ff ff 	mov    %rax,-0x440(%rbp)
    98b6:	48 c7 85 c8 fb ff ff 	movq   $0x0,-0x438(%rbp)
    98bd:	00 00 00 00 
    98c1:	48 8d 05 88 51 01 00 	lea    0x15188(%rip),%rax        # 1ea50 <g_696>
    98c8:	48 89 85 d0 fb ff ff 	mov    %rax,-0x430(%rbp)
    98cf:	48 c7 85 d8 fb ff ff 	movq   $0x0,-0x428(%rbp)
    98d6:	00 00 00 00 
    98da:	48 8d 05 6f 51 01 00 	lea    0x1516f(%rip),%rax        # 1ea50 <g_696>
    98e1:	48 89 85 e0 fb ff ff 	mov    %rax,-0x420(%rbp)
    98e8:	48 c7 85 e8 fb ff ff 	movq   $0x0,-0x418(%rbp)
    98ef:	00 00 00 00 
    98f3:	48 8d 05 56 51 01 00 	lea    0x15156(%rip),%rax        # 1ea50 <g_696>
    98fa:	48 89 85 f0 fb ff ff 	mov    %rax,-0x410(%rbp)
    9901:	48 c7 85 f8 fb ff ff 	movq   $0x0,-0x408(%rbp)
    9908:	00 00 00 00 
    990c:	c7 85 18 fb ff ff 00 	movl   $0x0,-0x4e8(%rbp)
    9913:	00 00 00 
    9916:	eb 19                	jmp    9931 <func_1+0x17c>
    9918:	8b 85 18 fb ff ff    	mov    -0x4e8(%rbp),%eax
    991e:	48 98                	cltq   
    9920:	66 c7 84 45 68 fb ff 	movw   $0x4c8d,-0x498(%rbp,%rax,2)
    9927:	ff 8d 4c 
    992a:	83 85 18 fb ff ff 01 	addl   $0x1,-0x4e8(%rbp)
    9931:	83 bd 18 fb ff ff 03 	cmpl   $0x3,-0x4e8(%rbp)
    9938:	7e de                	jle    9918 <func_1+0x163>
    993a:	48 8b 85 48 fb ff ff 	mov    -0x4b8(%rbp),%rax
    9941:	8b 00                	mov    (%rax),%eax
    9943:	25 1a 3f 81 f1       	and    $0xf1813f1a,%eax
    9948:	89 c2                	mov    %eax,%edx
    994a:	48 8b 85 48 fb ff ff 	mov    -0x4b8(%rbp),%rax
    9951:	89 10                	mov    %edx,(%rax)
    9953:	c7 05 d7 06 01 00 00 	movl   $0x0,0x106d7(%rip)        # 1a034 <g_10>
    995a:	00 00 00 
    995d:	eb 18                	jmp    9977 <func_1+0x1c2>
    995f:	83 bd 08 fb ff ff 00 	cmpl   $0x0,-0x4f8(%rbp)
    9966:	75 1c                	jne    9984 <func_1+0x1cf>
    9968:	8b 05 c6 06 01 00    	mov    0x106c6(%rip),%eax        # 1a034 <g_10>
    996e:	83 c0 01             	add    $0x1,%eax
    9971:	89 05 bd 06 01 00    	mov    %eax,0x106bd(%rip)        # 1a034 <g_10>
    9977:	8b 05 b7 06 01 00    	mov    0x106b7(%rip),%eax        # 1a034 <g_10>
    997d:	83 f8 18             	cmp    $0x18,%eax
    9980:	7e dd                	jle    995f <func_1+0x1aa>
    9982:	eb 01                	jmp    9985 <func_1+0x1d0>
    9984:	90                   	nop
    9985:	c7 85 08 fb ff ff 16 	movl   $0x16,-0x4f8(%rbp)
    998c:	00 00 00 
    998f:	e9 70 02 00 00       	jmpq   9c04 <func_1+0x44f>
    9994:	48 8d 05 99 06 01 00 	lea    0x10699(%rip),%rax        # 1a034 <g_10>
    999b:	48 89 85 50 fb ff ff 	mov    %rax,-0x4b0(%rbp)
    99a2:	48 8d 05 8b 06 01 00 	lea    0x1068b(%rip),%rax        # 1a034 <g_10>
    99a9:	48 89 85 58 fb ff ff 	mov    %rax,-0x4a8(%rbp)
    99b0:	48 8d 05 7d 06 01 00 	lea    0x1067d(%rip),%rax        # 1a034 <g_10>
    99b7:	48 89 85 60 fb ff ff 	mov    %rax,-0x4a0(%rbp)
    99be:	48 8d 85 00 fc ff ff 	lea    -0x400(%rbp),%rax
    99c5:	48 8d 15 14 22 01 00 	lea    0x12214(%rip),%rdx        # 1bbe0 <g_2887+0x2a0>
    99cc:	b9 2a 00 00 00       	mov    $0x2a,%ecx
    99d1:	48 89 c7             	mov    %rax,%rdi
    99d4:	48 89 d6             	mov    %rdx,%rsi
    99d7:	f3 48 a5             	rep movsq %ds:(%rsi),%es:(%rdi)
    99da:	c7 85 90 fb ff ff 00 	movl   $0x0,-0x470(%rbp)
    99e1:	00 00 00 
    99e4:	c7 85 94 fb ff ff 00 	movl   $0x0,-0x46c(%rbp)
    99eb:	00 00 00 
    99ee:	c7 85 98 fb ff ff ee 	movl   $0xc1a6bcee,-0x468(%rbp)
    99f5:	bc a6 c1 
    99f8:	c7 85 9c fb ff ff 00 	movl   $0x0,-0x464(%rbp)
    99ff:	00 00 00 
    9a02:	c7 85 a0 fb ff ff 00 	movl   $0x0,-0x460(%rbp)
    9a09:	00 00 00 
    9a0c:	c7 85 a4 fb ff ff ee 	movl   $0xc1a6bcee,-0x45c(%rbp)
    9a13:	bc a6 c1 
    9a16:	c7 85 1c fb ff ff 00 	movl   $0x0,-0x4e4(%rbp)
    9a1d:	00 00 00 
    9a20:	eb 1e                	jmp    9a40 <func_1+0x28b>
    9a22:	8b 85 1c fb ff ff    	mov    -0x4e4(%rbp),%eax
    9a28:	48 98                	cltq   
    9a2a:	48 8d 15 6b 19 01 00 	lea    0x1196b(%rip),%rdx        # 1b39c <g_2268>
    9a31:	48 89 94 c5 70 fb ff 	mov    %rdx,-0x490(%rbp,%rax,8)
    9a38:	ff 
    9a39:	83 85 1c fb ff ff 01 	addl   $0x1,-0x4e4(%rbp)
    9a40:	83 bd 1c fb ff ff 02 	cmpl   $0x2,-0x4e4(%rbp)
    9a47:	7e d9                	jle    9a22 <func_1+0x26d>
    9a49:	48 83 85 20 fb ff ff 	addq   $0x1,-0x4e0(%rbp)
    9a50:	01 
    9a51:	8b 85 08 fb ff ff    	mov    -0x4f8(%rbp),%eax
    9a57:	48 98                	cltq   
    9a59:	48 89 c2             	mov    %rax,%rdx
    9a5c:	48 8d 35 cd 05 01 00 	lea    0x105cd(%rip),%rsi        # 1a030 <g_6>
    9a63:	48 8d 3d c2 05 01 00 	lea    0x105c2(%rip),%rdi        # 1a02c <g_3+0x4>
    9a6a:	e8 c3 02 00 00       	callq  9d32 <func_24>
    9a6f:	0f b7 85 6a fb ff ff 	movzwl -0x496(%rbp),%eax
    9a76:	98                   	cwtl   
    9a77:	be 00 00 00 00       	mov    $0x0,%esi
    9a7c:	89 c7                	mov    %eax,%edi
    9a7e:	e8 e0 ea ff ff       	callq  8563 <safe_rshift_func_int16_t_s_u>
    9a83:	48 8b 85 48 fb ff ff 	mov    -0x4b8(%rbp),%rax
    9a8a:	8b 00                	mov    (%rax),%eax
    9a8c:	0f b7 d8             	movzwl %ax,%ebx
    9a8f:	48 8b 85 48 fb ff ff 	mov    -0x4b8(%rbp),%rax
    9a96:	8b 00                	mov    (%rax),%eax
    9a98:	41 89 c5             	mov    %eax,%r13d
    9a9b:	48 8b 85 28 fb ff ff 	mov    -0x4d8(%rbp),%rax
    9aa2:	44 0f b6 e0          	movzbl %al,%r12d
    9aa6:	48 8b 85 58 fb ff ff 	mov    -0x4a8(%rbp),%rax
    9aad:	8b 00                	mov    (%rax),%eax
    9aaf:	89 c1                	mov    %eax,%ecx
    9ab1:	48 8b 85 48 fb ff ff 	mov    -0x4b8(%rbp),%rax
    9ab8:	8b 10                	mov    (%rax),%edx
    9aba:	0f b6 85 07 fb ff ff 	movzbl -0x4f9(%rbp),%eax
    9ac1:	39 c2                	cmp    %eax,%edx
    9ac3:	0f 9f c0             	setg   %al
    9ac6:	0f b6 c0             	movzbl %al,%eax
    9ac9:	89 ce                	mov    %ecx,%esi
    9acb:	89 c7                	mov    %eax,%edi
    9acd:	e8 ec f1 ff ff       	callq  8cbe <safe_rshift_func_uint8_t_u_u>
    9ad2:	0f b6 c0             	movzbl %al,%eax
    9ad5:	44 89 e6             	mov    %r12d,%esi
    9ad8:	89 c7                	mov    %eax,%edi
    9ada:	e8 7b f0 ff ff       	callq  8b5a <safe_add_func_uint8_t_u_u>
    9adf:	0f b6 c0             	movzbl %al,%eax
    9ae2:	48 be 4c a8 44 71 21 	movabs $0x6519b1217144a84c,%rsi
    9ae9:	b1 19 65 
    9aec:	48 89 c7             	mov    %rax,%rdi
    9aef:	e8 bb f5 ff ff       	callq  90af <safe_div_func_uint64_t_u_u>
    9af4:	48 83 f8 06          	cmp    $0x6,%rax
    9af8:	0f 94 c0             	sete   %al
    9afb:	0f b6 c0             	movzbl %al,%eax
    9afe:	44 89 ee             	mov    %r13d,%esi
    9b01:	89 c7                	mov    %eax,%edi
    9b03:	e8 1d f4 ff ff       	callq  8f25 <safe_div_func_uint32_t_u_u>
    9b08:	89 c2                	mov    %eax,%edx
    9b0a:	48 8b 05 2f 2f 01 00 	mov    0x12f2f(%rip),%rax        # 1ca40 <g_648>
    9b11:	48 8b 00             	mov    (%rax),%rax
    9b14:	0f b6 00             	movzbl (%rax),%eax
    9b17:	89 c1                	mov    %eax,%ecx
    9b19:	89 d0                	mov    %edx,%eax
    9b1b:	09 c1                	or     %eax,%ecx
    9b1d:	89 ca                	mov    %ecx,%edx
    9b1f:	48 8b 05 1a 2f 01 00 	mov    0x12f1a(%rip),%rax        # 1ca40 <g_648>
    9b26:	48 8b 00             	mov    (%rax),%rax
    9b29:	88 10                	mov    %dl,(%rax)
    9b2b:	0f b6 00             	movzbl (%rax),%eax
    9b2e:	88 05 68 18 01 00    	mov    %al,0x11868(%rip)        # 1b39c <g_2268>
    9b34:	0f b6 05 61 18 01 00 	movzbl 0x11861(%rip),%eax        # 1b39c <g_2268>
    9b3b:	0f be c0             	movsbl %al,%eax
    9b3e:	39 85 08 fb ff ff    	cmp    %eax,-0x4f8(%rbp)
    9b44:	0f 94 c0             	sete   %al
    9b47:	0f b6 c0             	movzbl %al,%eax
    9b4a:	48 39 85 28 fb ff ff 	cmp    %rax,-0x4d8(%rbp)
    9b51:	0f 9d c0             	setge  %al
    9b54:	0f b6 c0             	movzbl %al,%eax
    9b57:	be 07 00 00 00       	mov    $0x7,%esi
    9b5c:	89 c7                	mov    %eax,%edi
    9b5e:	e8 5b f1 ff ff       	callq  8cbe <safe_rshift_func_uint8_t_u_u>
    9b63:	84 c0                	test   %al,%al
    9b65:	75 0b                	jne    9b72 <func_1+0x3bd>
    9b67:	48 8b 85 50 fb ff ff 	mov    -0x4b0(%rbp),%rax
    9b6e:	8b 00                	mov    (%rax),%eax
    9b70:	85 c0                	test   %eax,%eax
    9b72:	48 8b 05 f7 30 01 00 	mov    0x130f7(%rip),%rax        # 1cc70 <g_1583>
    9b79:	48 8b 05 e0 2e 01 00 	mov    0x12ee0(%rip),%rax        # 1ca60 <g_769>
    9b80:	48 8b 10             	mov    (%rax),%rdx
    9b83:	48 8b 05 d6 2e 01 00 	mov    0x12ed6(%rip),%rax        # 1ca60 <g_769>
    9b8a:	48 8b 00             	mov    (%rax),%rax
    9b8d:	8b 12                	mov    (%rdx),%edx
    9b8f:	89 10                	mov    %edx,(%rax)
    9b91:	89 de                	mov    %ebx,%esi
    9b93:	bf 07 6d 00 00       	mov    $0x6d07,%edi
    9b98:	e8 a0 f1 ff ff       	callq  8d3d <safe_mul_func_uint16_t_u_u>
    9b9d:	be 01 00 00 00       	mov    $0x1,%esi
    9ba2:	bf f9 ff ff ff       	mov    $0xfffffff9,%edi
    9ba7:	e8 c0 e7 ff ff       	callq  836c <safe_rshift_func_int8_t_s_u>
    9bac:	48 0f be d0          	movsbq %al,%rdx
    9bb0:	48 8d 05 d9 30 01 00 	lea    0x130d9(%rip),%rax        # 1cc90 <g_1697>
    9bb7:	48 8b 00             	mov    (%rax),%rax
    9bba:	48 8b 00             	mov    (%rax),%rax
    9bbd:	48 8b 00             	mov    (%rax),%rax
    9bc0:	48 39 c2             	cmp    %rax,%rdx
    9bc3:	0f 92 c0             	setb   %al
    9bc6:	0f b6 c0             	movzbl %al,%eax
    9bc9:	89 85 98 fb ff ff    	mov    %eax,-0x468(%rbp)
    9bcf:	8b 95 98 fb ff ff    	mov    -0x468(%rbp),%edx
    9bd5:	0f b6 85 07 fb ff ff 	movzbl -0x4f9(%rbp),%eax
    9bdc:	39 c2                	cmp    %eax,%edx
    9bde:	0f 94 c0             	sete   %al
    9be1:	0f b6 c0             	movzbl %al,%eax
    9be4:	21 85 14 fb ff ff    	and    %eax,-0x4ec(%rbp)
    9bea:	8b 85 08 fb ff ff    	mov    -0x4f8(%rbp),%eax
    9bf0:	98                   	cwtl   
    9bf1:	be 01 00 00 00       	mov    $0x1,%esi
    9bf6:	89 c7                	mov    %eax,%edi
    9bf8:	e8 d6 e7 ff ff       	callq  83d3 <safe_sub_func_int16_t_s_s>
    9bfd:	98                   	cwtl   
    9bfe:	89 85 08 fb ff ff    	mov    %eax,-0x4f8(%rbp)
    9c04:	83 bd 08 fb ff ff f3 	cmpl   $0xfffffff3,-0x4f8(%rbp)
    9c0b:	0f 8c 83 fd ff ff    	jl     9994 <func_1+0x1df>
    9c11:	8b 05 19 04 01 00    	mov    0x10419(%rip),%eax        # 1a030 <g_6>
    9c17:	83 e8 01             	sub    $0x1,%eax
    9c1a:	89 05 10 04 01 00    	mov    %eax,0x10410(%rip)        # 1a030 <g_6>
    9c20:	8b 05 0a 04 01 00    	mov    0x1040a(%rip),%eax        # 1a030 <g_6>
    9c26:	83 f8 f9             	cmp    $0xfffffff9,%eax
    9c29:	0f 85 52 fc ff ff    	jne    9881 <func_1+0xcc>
    9c2f:	0f b6 85 07 fb ff ff 	movzbl -0x4f9(%rbp),%eax
    9c36:	21 85 0c fb ff ff    	and    %eax,-0x4f4(%rbp)
    9c3c:	8b 85 0c fb ff ff    	mov    -0x4f4(%rbp),%eax
    9c42:	0f b7 c0             	movzwl %ax,%eax
    9c45:	be 07 00 00 00       	mov    $0x7,%esi
    9c4a:	89 c7                	mov    %eax,%edi
    9c4c:	e8 f7 f1 ff ff       	callq  8e48 <safe_rshift_func_uint16_t_u_s>
    9c51:	66 3d 38 61          	cmp    $0x6138,%ax
    9c55:	0f 96 c3             	setbe  %bl
    9c58:	48 8b 05 e1 2c 01 00 	mov    0x12ce1(%rip),%rax        # 1c940 <g_284>
    9c5f:	48 8b 00             	mov    (%rax),%rax
    9c62:	89 c2                	mov    %eax,%edx
    9c64:	48 8b 85 20 fb ff ff 	mov    -0x4e0(%rbp),%rax
    9c6b:	09 d0                	or     %edx,%eax
    9c6d:	89 c6                	mov    %eax,%esi
    9c6f:	bf 01 00 00 00       	mov    $0x1,%edi
    9c74:	e8 ac f2 ff ff       	callq  8f25 <safe_div_func_uint32_t_u_u>
    9c79:	8b 95 14 fb ff ff    	mov    -0x4ec(%rbp),%edx
    9c7f:	39 d0                	cmp    %edx,%eax
    9c81:	0f 94 c0             	sete   %al
    9c84:	21 d8                	and    %ebx,%eax
    9c86:	0f b6 c0             	movzbl %al,%eax
    9c89:	48 39 85 28 fb ff ff 	cmp    %rax,-0x4d8(%rbp)
    9c90:	0f 9f c0             	setg   %al
    9c93:	0f b6 d0             	movzbl %al,%edx
    9c96:	0f b7 05 a3 1c 01 00 	movzwl 0x11ca3(%rip),%eax        # 1b940 <g_2887>
    9c9d:	98                   	cwtl   
    9c9e:	89 d6                	mov    %edx,%esi
    9ca0:	89 c7                	mov    %eax,%edi
    9ca2:	e8 83 e8 ff ff       	callq  852a <safe_rshift_func_int16_t_s_s>
    9ca7:	48 8b 05 c2 2d 01 00 	mov    0x12dc2(%rip),%rax        # 1ca70 <g_938>
    9cae:	48 8b 00             	mov    (%rax),%rax
    9cb1:	48 39 85 40 fb ff ff 	cmp    %rax,-0x4c0(%rbp)
    9cb8:	0f 95 c0             	setne  %al
    9cbb:	0f b6 c0             	movzbl %al,%eax
    9cbe:	31 85 10 fb ff ff    	xor    %eax,-0x4f0(%rbp)
    9cc4:	8b 05 5e 03 01 00    	mov    0x1035e(%rip),%eax        # 1a028 <g_3>
    9cca:	83 e8 01             	sub    $0x1,%eax
    9ccd:	89 05 55 03 01 00    	mov    %eax,0x10355(%rip)        # 1a028 <g_3>
    9cd3:	8b 05 4f 03 01 00    	mov    0x1034f(%rip),%eax        # 1a028 <g_3>
    9cd9:	83 f8 e2             	cmp    $0xffffffe2,%eax
    9cdc:	0f 8c 3b fb ff ff    	jl     981d <func_1+0x68>
    9ce2:	0f b6 85 07 fb ff ff 	movzbl -0x4f9(%rbp),%eax
    9ce9:	21 85 10 fb ff ff    	and    %eax,-0x4f0(%rbp)
    9cef:	8b 8d 10 fb ff ff    	mov    -0x4f0(%rbp),%ecx
    9cf5:	48 8b 05 54 2c 01 00 	mov    0x12c54(%rip),%rax        # 1c950 <g_372>
    9cfc:	8b 10                	mov    (%rax),%edx
    9cfe:	48 8b 05 4b 2c 01 00 	mov    0x12c4b(%rip),%rax        # 1c950 <g_372>
    9d05:	09 ca                	or     %ecx,%edx
    9d07:	89 10                	mov    %edx,(%rax)
    9d09:	48 8b 85 20 fb ff ff 	mov    -0x4e0(%rbp),%rax
    9d10:	48 8b 5d d8          	mov    -0x28(%rbp),%rbx
    9d14:	64 48 33 1c 25 28 00 	xor    %fs:0x28,%rbx
    9d1b:	00 00 
    9d1d:	74 05                	je     9d24 <func_1+0x56f>
    9d1f:	e8 4c e3 ff ff       	callq  8070 <__stack_chk_fail@plt>
    9d24:	48 81 c4 e8 04 00 00 	add    $0x4e8,%rsp
    9d2b:	5b                   	pop    %rbx
    9d2c:	41 5c                	pop    %r12
    9d2e:	41 5d                	pop    %r13
    9d30:	5d                   	pop    %rbp
    9d31:	c3                   	retq   

0000000000009d32 <func_24>:
    9d32:	f3 0f 1e fa          	endbr64 
    9d36:	55                   	push   %rbp
    9d37:	48 89 e5             	mov    %rsp,%rbp
    9d3a:	48 81 ec a0 0a 00 00 	sub    $0xaa0,%rsp
    9d41:	48 89 bd 78 f5 ff ff 	mov    %rdi,-0xa88(%rbp)
    9d48:	48 89 b5 70 f5 ff ff 	mov    %rsi,-0xa90(%rbp)
    9d4f:	48 89 95 68 f5 ff ff 	mov    %rdx,-0xa98(%rbp)
    9d56:	64 48 8b 04 25 28 00 	mov    %fs:0x28,%rax
    9d5d:	00 00 
    9d5f:	48 89 45 f8          	mov    %rax,-0x8(%rbp)
    9d63:	31 c0                	xor    %eax,%eax
    9d65:	48 8d 05 c8 02 01 00 	lea    0x102c8(%rip),%rax        # 1a034 <g_10>
    9d6c:	48 89 85 b0 f5 ff ff 	mov    %rax,-0xa50(%rbp)
    9d73:	c7 85 20 f6 ff ff 4f 	movl   $0x88ee934f,-0x9e0(%rbp)
    9d7a:	93 ee 88 
    9d7d:	c7 85 24 f6 ff ff be 	movl   $0x58a83abe,-0x9dc(%rbp)
    9d84:	3a a8 58 
    9d87:	c7 85 28 f6 ff ff 4f 	movl   $0x88ee934f,-0x9d8(%rbp)
    9d8e:	93 ee 88 
    9d91:	c7 85 2c f6 ff ff f9 	movl   $0xfffffff9,-0x9d4(%rbp)
    9d98:	ff ff ff 
    9d9b:	c7 85 30 f6 ff ff f9 	movl   $0xfffffff9,-0x9d0(%rbp)
    9da2:	ff ff ff 
    9da5:	c7 85 34 f6 ff ff 4f 	movl   $0x88ee934f,-0x9cc(%rbp)
    9dac:	93 ee 88 
    9daf:	c7 85 38 f6 ff ff be 	movl   $0x58a83abe,-0x9c8(%rbp)
    9db6:	3a a8 58 
    9db9:	c7 85 3c f6 ff ff 4f 	movl   $0x88ee934f,-0x9c4(%rbp)
    9dc0:	93 ee 88 
    9dc3:	c7 85 40 f6 ff ff f9 	movl   $0xfffffff9,-0x9c0(%rbp)
    9dca:	ff ff ff 
    9dcd:	c7 85 44 f6 ff ff f9 	movl   $0xfffffff9,-0x9bc(%rbp)
    9dd4:	ff ff ff 
    9dd7:	c7 85 98 f5 ff ff 56 	movl   $0xcff88956,-0xa68(%rbp)
    9dde:	89 f8 cf 
    9de1:	48 c7 85 f8 f5 ff ff 	movq   $0x0,-0xa08(%rbp)
    9de8:	00 00 00 00 
    9dec:	48 8d 05 3d 0f 01 00 	lea    0x10f3d(%rip),%rax        # 1ad30 <g_1240>
    9df3:	48 89 85 e8 f5 ff ff 	mov    %rax,-0xa18(%rbp)
    9dfa:	48 c7 85 f0 f5 ff ff 	movq   $0x0,-0xa10(%rbp)
    9e01:	00 00 00 00 
    9e05:	c6 85 83 f5 ff ff f3 	movb   $0xf3,-0xa7d(%rbp)
    9e0c:	48 8d 85 b0 f5 ff ff 	lea    -0xa50(%rbp),%rax
    9e13:	48 89 85 b8 f5 ff ff 	mov    %rax,-0xa48(%rbp)
    9e1a:	48 8d 85 b8 f5 ff ff 	lea    -0xa48(%rbp),%rax
    9e21:	48 89 85 d8 f5 ff ff 	mov    %rax,-0xa28(%rbp)
    9e28:	48 8d 05 e1 2a 01 00 	lea    0x12ae1(%rip),%rax        # 1c910 <g_116>
    9e2f:	48 89 85 c0 f5 ff ff 	mov    %rax,-0xa40(%rbp)
    9e36:	48 8d 85 c0 f5 ff ff 	lea    -0xa40(%rbp),%rax
    9e3d:	48 89 85 e0 f5 ff ff 	mov    %rax,-0xa20(%rbp)
    9e44:	48 8d 05 45 2e 01 00 	lea    0x12e45(%rip),%rax        # 1cc90 <g_1697>
    9e4b:	48 89 85 c8 f5 ff ff 	mov    %rax,-0xa38(%rbp)
    9e52:	48 8d 85 c8 f5 ff ff 	lea    -0xa38(%rbp),%rax
    9e59:	48 89 85 50 f6 ff ff 	mov    %rax,-0x9b0(%rbp)
    9e60:	48 8d 85 c8 f5 ff ff 	lea    -0xa38(%rbp),%rax
    9e67:	48 89 85 58 f6 ff ff 	mov    %rax,-0x9a8(%rbp)
    9e6e:	48 8d 85 c8 f5 ff ff 	lea    -0xa38(%rbp),%rax
    9e75:	48 89 85 60 f6 ff ff 	mov    %rax,-0x9a0(%rbp)
    9e7c:	48 c7 85 68 f6 ff ff 	movq   $0x0,-0x998(%rbp)
    9e83:	00 00 00 00 
    9e87:	48 8d 85 c8 f5 ff ff 	lea    -0xa38(%rbp),%rax
    9e8e:	48 89 85 70 f6 ff ff 	mov    %rax,-0x990(%rbp)
    9e95:	48 c7 85 78 f6 ff ff 	movq   $0x0,-0x988(%rbp)
    9e9c:	00 00 00 00 
    9ea0:	48 8d 85 c8 f5 ff ff 	lea    -0xa38(%rbp),%rax
    9ea7:	48 89 85 80 f6 ff ff 	mov    %rax,-0x980(%rbp)
    9eae:	48 8d 85 c8 f5 ff ff 	lea    -0xa38(%rbp),%rax
    9eb5:	48 89 85 88 f6 ff ff 	mov    %rax,-0x978(%rbp)
    9ebc:	48 8d 85 c8 f5 ff ff 	lea    -0xa38(%rbp),%rax
    9ec3:	48 89 85 90 f6 ff ff 	mov    %rax,-0x970(%rbp)
    9eca:	48 c7 85 98 f6 ff ff 	movq   $0x0,-0x968(%rbp)
    9ed1:	00 00 00 00 
    9ed5:	48 8d 85 c8 f5 ff ff 	lea    -0xa38(%rbp),%rax
    9edc:	48 89 85 a0 f6 ff ff 	mov    %rax,-0x960(%rbp)
    9ee3:	48 c7 85 a8 f6 ff ff 	movq   $0x0,-0x958(%rbp)
    9eea:	00 00 00 00 
    9eee:	48 8d 85 c8 f5 ff ff 	lea    -0xa38(%rbp),%rax
    9ef5:	48 89 85 b0 f6 ff ff 	mov    %rax,-0x950(%rbp)
    9efc:	48 8d 85 c8 f5 ff ff 	lea    -0xa38(%rbp),%rax
    9f03:	48 89 85 b8 f6 ff ff 	mov    %rax,-0x948(%rbp)
    9f0a:	48 8d 85 c8 f5 ff ff 	lea    -0xa38(%rbp),%rax
    9f11:	48 89 85 c0 f6 ff ff 	mov    %rax,-0x940(%rbp)
    9f18:	48 c7 85 c8 f6 ff ff 	movq   $0x0,-0x938(%rbp)
    9f1f:	00 00 00 00 
    9f23:	48 8d 85 c8 f5 ff ff 	lea    -0xa38(%rbp),%rax
    9f2a:	48 89 85 d0 f6 ff ff 	mov    %rax,-0x930(%rbp)
    9f31:	48 c7 85 d8 f6 ff ff 	movq   $0x0,-0x928(%rbp)
    9f38:	00 00 00 00 
    9f3c:	48 8d 85 c8 f5 ff ff 	lea    -0xa38(%rbp),%rax
    9f43:	48 89 85 e0 f6 ff ff 	mov    %rax,-0x920(%rbp)
    9f4a:	48 8d 85 c8 f5 ff ff 	lea    -0xa38(%rbp),%rax
    9f51:	48 89 85 e8 f6 ff ff 	mov    %rax,-0x918(%rbp)
    9f58:	48 8d 85 c8 f5 ff ff 	lea    -0xa38(%rbp),%rax
    9f5f:	48 89 85 f0 f6 ff ff 	mov    %rax,-0x910(%rbp)
    9f66:	48 c7 85 f8 f6 ff ff 	movq   $0x0,-0x908(%rbp)
    9f6d:	00 00 00 00 
    9f71:	48 8d 85 c8 f5 ff ff 	lea    -0xa38(%rbp),%rax
    9f78:	48 89 85 00 f7 ff ff 	mov    %rax,-0x900(%rbp)
    9f7f:	48 c7 85 08 f7 ff ff 	movq   $0x0,-0x8f8(%rbp)
    9f86:	00 00 00 00 
    9f8a:	48 8d 85 c8 f5 ff ff 	lea    -0xa38(%rbp),%rax
    9f91:	48 89 85 10 f7 ff ff 	mov    %rax,-0x8f0(%rbp)
    9f98:	48 8d 85 c8 f5 ff ff 	lea    -0xa38(%rbp),%rax
    9f9f:	48 89 85 18 f7 ff ff 	mov    %rax,-0x8e8(%rbp)
    9fa6:	48 8d 85 c8 f5 ff ff 	lea    -0xa38(%rbp),%rax
    9fad:	48 89 85 20 f7 ff ff 	mov    %rax,-0x8e0(%rbp)
    9fb4:	48 c7 85 28 f7 ff ff 	movq   $0x0,-0x8d8(%rbp)
    9fbb:	00 00 00 00 
    9fbf:	48 8d 85 50 f6 ff ff 	lea    -0x9b0(%rbp),%rax
    9fc6:	48 83 c0 10          	add    $0x10,%rax
    9fca:	48 89 85 00 f6 ff ff 	mov    %rax,-0xa00(%rbp)
    9fd1:	c7 85 9c f5 ff ff d6 	movl   $0x2df9f2d6,-0xa64(%rbp)
    9fd8:	f2 f9 2d 
    9fdb:	48 8d 05 ce 01 01 00 	lea    0x101ce(%rip),%rax        # 1a1b0 <g_484>
    9fe2:	48 89 85 08 f6 ff ff 	mov    %rax,-0x9f8(%rbp)
    9fe9:	66 c7 85 86 f5 ff ff 	movw   $0xc807,-0xa7a(%rbp)
    9ff0:	07 c8 
    9ff2:	c7 05 38 00 01 00 00 	movl   $0x0,0x10038(%rip)        # 1a034 <g_10>
    9ff9:	00 00 00 
    9ffc:	e9 ca 00 00 00       	jmpq   a0cb <func_24+0x399>
    a001:	48 8d 05 44 00 01 00 	lea    0x10044(%rip),%rax        # 1a04c <g_62+0xc>
    a008:	48 89 85 10 f6 ff ff 	mov    %rax,-0x9f0(%rbp)
    a00f:	c7 85 a8 f5 ff ff ff 	movl   $0xffffffff,-0xa58(%rbp)
    a016:	ff ff ff 
    a019:	c6 85 85 f5 ff ff fc 	movb   $0xfc,-0xa7b(%rbp)
    a020:	66 c7 85 8a f5 ff ff 	movw   $0x640e,-0xa76(%rbp)
    a027:	0e 64 
    a029:	48 8d 85 70 f8 ff ff 	lea    -0x790(%rbp),%rax
    a030:	48 8d 15 49 b0 00 00 	lea    0xb049(%rip),%rdx        # 15080 <g_2427+0x10>
    a037:	b9 f0 00 00 00       	mov    $0xf0,%ecx
    a03c:	48 89 c7             	mov    %rax,%rdi
    a03f:	48 89 d6             	mov    %rdx,%rsi
    a042:	f3 48 a5             	rep movsq %ds:(%rsi),%es:(%rdi)
    a045:	c7 85 ac f5 ff ff 4a 	movl   $0xe3eb834a,-0xa54(%rbp)
    a04c:	83 eb e3 
    a04f:	48 8d 05 46 00 01 00 	lea    0x10046(%rip),%rax        # 1a09c <g_162>
    a056:	48 89 85 18 f6 ff ff 	mov    %rax,-0x9e8(%rbp)
    a05d:	c7 85 8c f5 ff ff 00 	movl   $0x0,-0xa74(%rbp)
    a064:	00 00 00 
    a067:	eb 4a                	jmp    a0b3 <func_24+0x381>
    a069:	c7 85 90 f5 ff ff 00 	movl   $0x0,-0xa70(%rbp)
    a070:	00 00 00 
    a073:	eb 2e                	jmp    a0a3 <func_24+0x371>
    a075:	8b 85 90 f5 ff ff    	mov    -0xa70(%rbp),%eax
    a07b:	48 98                	cltq   
    a07d:	8b 95 8c f5 ff ff    	mov    -0xa74(%rbp),%edx
    a083:	48 63 d2             	movslq %edx,%rdx
    a086:	48 c1 e2 03          	shl    $0x3,%rdx
    a08a:	48 01 d0             	add    %rdx,%rax
    a08d:	48 8d 15 bc 28 01 00 	lea    0x128bc(%rip),%rdx        # 1c950 <g_372>
    a094:	48 89 94 c5 30 f7 ff 	mov    %rdx,-0x8d0(%rbp,%rax,8)
    a09b:	ff 
    a09c:	83 85 90 f5 ff ff 01 	addl   $0x1,-0xa70(%rbp)
    a0a3:	83 bd 90 f5 ff ff 07 	cmpl   $0x7,-0xa70(%rbp)
    a0aa:	7e c9                	jle    a075 <func_24+0x343>
    a0ac:	83 85 8c f5 ff ff 01 	addl   $0x1,-0xa74(%rbp)
    a0b3:	83 bd 8c f5 ff ff 04 	cmpl   $0x4,-0xa74(%rbp)
    a0ba:	7e ad                	jle    a069 <func_24+0x337>
    a0bc:	8b 05 72 ff 00 00    	mov    0xff72(%rip),%eax        # 1a034 <g_10>
    a0c2:	83 e8 01             	sub    $0x1,%eax
    a0c5:	89 05 69 ff 00 00    	mov    %eax,0xff69(%rip)        # 1a034 <g_10>
    a0cb:	8b 05 63 ff 00 00    	mov    0xff63(%rip),%eax        # 1a034 <g_10>
    a0d1:	83 f8 f4             	cmp    $0xfffffff4,%eax
    a0d4:	0f 8c 27 ff ff ff    	jl     a001 <func_24+0x2cf>
    a0da:	48 8b 85 68 f5 ff ff 	mov    -0xa98(%rbp),%rax
    a0e1:	0f b7 c0             	movzwl %ax,%eax
    a0e4:	be 0b 00 00 00       	mov    $0xb,%esi
    a0e9:	89 c7                	mov    %eax,%edi
    a0eb:	e8 58 ed ff ff       	callq  8e48 <safe_rshift_func_uint16_t_u_s>
    a0f0:	48 8b 95 d8 f5 ff ff 	mov    -0xa28(%rbp),%rdx
    a0f7:	48 8b 12             	mov    (%rdx),%rdx
    a0fa:	48 8b 12             	mov    (%rdx),%rdx
    a0fd:	8b 12                	mov    (%rdx),%edx
    a0ff:	48 63 ca             	movslq %edx,%rcx
    a102:	48 8b 95 c8 f5 ff ff 	mov    -0xa38(%rbp),%rdx
    a109:	48 8b 12             	mov    (%rdx),%rdx
    a10c:	48 8b 12             	mov    (%rdx),%rdx
    a10f:	48 8b 32             	mov    (%rdx),%rsi
    a112:	0f b7 d0             	movzwl %ax,%edx
    a115:	48 8b 85 c8 f5 ff ff 	mov    -0xa38(%rbp),%rax
    a11c:	48 8b 00             	mov    (%rax),%rax
    a11f:	48 8b 00             	mov    (%rax),%rax
    a122:	48 31 f2             	xor    %rsi,%rdx
    a125:	48 89 10             	mov    %rdx,(%rax)
    a128:	48 8b 00             	mov    (%rax),%rax
    a12b:	48 39 c1             	cmp    %rax,%rcx
    a12e:	0f 96 c2             	setbe  %dl
    a131:	48 8b 85 b0 f5 ff ff 	mov    -0xa50(%rbp),%rax
    a138:	0f b6 d2             	movzbl %dl,%edx
    a13b:	89 10                	mov    %edx,(%rax)
    a13d:	c7 05 5d ff 00 00 14 	movl   $0x14,0xff5d(%rip)        # 1a0a4 <g_206>
    a144:	00 00 00 
    a147:	e9 bb 00 00 00       	jmpq   a207 <func_24+0x4d5>
    a14c:	48 8d 05 d5 2a 01 00 	lea    0x12ad5(%rip),%rax        # 1cc28 <g_1389>
    a153:	48 89 85 d0 f5 ff ff 	mov    %rax,-0xa30(%rbp)
    a15a:	c7 85 a0 f5 ff ff 06 	movl   $0x6,-0xa60(%rbp)
    a161:	00 00 00 
    a164:	c7 85 a4 f5 ff ff f6 	movl   $0xfffffff6,-0xa5c(%rbp)
    a16b:	ff ff ff 
    a16e:	c6 85 84 f5 ff ff 01 	movb   $0x1,-0xa7c(%rbp)
    a175:	c7 85 94 f5 ff ff 00 	movl   $0x0,-0xa6c(%rbp)
    a17c:	00 00 00 
    a17f:	eb 1e                	jmp    a19f <func_24+0x46d>
    a181:	8b 85 94 f5 ff ff    	mov    -0xa6c(%rbp),%eax
    a187:	48 98                	cltq   
    a189:	48 8d 95 d0 f5 ff ff 	lea    -0xa30(%rbp),%rdx
    a190:	48 89 94 c5 70 f8 ff 	mov    %rdx,-0x790(%rbp,%rax,8)
    a197:	ff 
    a198:	83 85 94 f5 ff ff 01 	addl   $0x1,-0xa6c(%rbp)
    a19f:	83 bd 94 f5 ff ff 06 	cmpl   $0x6,-0xa6c(%rbp)
    a1a6:	7e d9                	jle    a181 <func_24+0x44f>
    a1a8:	48 8b 05 51 2b 01 00 	mov    0x12b51(%rip),%rax        # 1cd00 <g_1920>
    a1af:	48 8b 00             	mov    (%rax),%rax
    a1b2:	66 c7 85 88 f5 ff ff 	movw   $0x1,-0xa78(%rbp)
    a1b9:	01 00 
    a1bb:	0f b7 95 88 f5 ff ff 	movzwl -0xa78(%rbp),%edx
    a1c2:	66 83 bd 88 f5 ff ff 	cmpw   $0x0,-0xa78(%rbp)
    a1c9:	00 
    a1ca:	0f 94 c0             	sete   %al
    a1cd:	0f b6 c0             	movzbl %al,%eax
    a1d0:	39 85 9c f5 ff ff    	cmp    %eax,-0xa64(%rbp)
    a1d6:	0f 97 c0             	seta   %al
    a1d9:	0f b6 c0             	movzbl %al,%eax
    a1dc:	39 c2                	cmp    %eax,%edx
    a1de:	0f 94 c2             	sete   %dl
    a1e1:	48 8b 05 68 27 01 00 	mov    0x12768(%rip),%rax        # 1c950 <g_372>
    a1e8:	0f b6 d2             	movzbl %dl,%edx
    a1eb:	89 10                	mov    %edx,(%rax)
    a1ed:	48 8b 85 78 f5 ff ff 	mov    -0xa88(%rbp),%rax
    a1f4:	8b 00                	mov    (%rax),%eax
    a1f6:	85 c0                	test   %eax,%eax
    a1f8:	8b 05 a6 fe 00 00    	mov    0xfea6(%rip),%eax        # 1a0a4 <g_206>
    a1fe:	83 e8 01             	sub    $0x1,%eax
    a201:	89 05 9d fe 00 00    	mov    %eax,0xfe9d(%rip)        # 1a0a4 <g_206>
    a207:	8b 05 97 fe 00 00    	mov    0xfe97(%rip),%eax        # 1a0a4 <g_206>
    a20d:	83 f8 06             	cmp    $0x6,%eax
    a210:	0f 8f 36 ff ff ff    	jg     a14c <func_24+0x41a>
    a216:	48 8b 85 b8 f5 ff ff 	mov    -0xa48(%rbp),%rax
    a21d:	48 8b 00             	mov    (%rax),%rax
    a220:	8b 00                	mov    (%rax),%eax
    a222:	48 8b 4d f8          	mov    -0x8(%rbp),%rcx
    a226:	64 48 33 0c 25 28 00 	xor    %fs:0x28,%rcx
    a22d:	00 00 
    a22f:	74 05                	je     a236 <func_24+0x504>
    a231:	e8 3a de ff ff       	callq  8070 <__stack_chk_fail@plt>
    a236:	c9                   	leaveq 
    a237:	c3                   	retq   

000000000000a238 <func_33>:
    a238:	f3 0f 1e fa          	endbr64 
    a23c:	55                   	push   %rbp
    a23d:	48 89 e5             	mov    %rsp,%rbp
    a240:	41 55                	push   %r13
    a242:	41 54                	push   %r12
    a244:	53                   	push   %rbx
    a245:	48 81 ec b8 05 00 00 	sub    $0x5b8,%rsp
    a24c:	48 89 bd 38 fa ff ff 	mov    %rdi,-0x5c8(%rbp)
    a253:	64 48 8b 04 25 28 00 	mov    %fs:0x28,%rax
    a25a:	00 00 
    a25c:	48 89 45 d8          	mov    %rax,-0x28(%rbp)
    a260:	31 c0                	xor    %eax,%eax
    a262:	c7 85 64 fa ff ff 3c 	movl   $0xe3832b3c,-0x59c(%rbp)
    a269:	2b 83 e3 
    a26c:	48 8d 05 c5 27 01 00 	lea    0x127c5(%rip),%rax        # 1ca38 <g_649>
    a273:	48 89 85 00 fb ff ff 	mov    %rax,-0x500(%rbp)
    a27a:	48 c7 85 b0 fa ff ff 	movq   $0x0,-0x550(%rbp)
    a281:	00 00 00 00 
    a285:	48 8d 85 b0 fa ff ff 	lea    -0x550(%rbp),%rax
    a28c:	48 89 85 b8 fa ff ff 	mov    %rax,-0x548(%rbp)
    a293:	48 8d 85 b8 fa ff ff 	lea    -0x548(%rbp),%rax
    a29a:	48 89 85 c0 fa ff ff 	mov    %rax,-0x540(%rbp)
    a2a1:	48 8d 85 c0 fa ff ff 	lea    -0x540(%rbp),%rax
    a2a8:	48 89 85 c8 fa ff ff 	mov    %rax,-0x538(%rbp)
    a2af:	48 8d 85 c8 fa ff ff 	lea    -0x538(%rbp),%rax
    a2b6:	48 89 85 08 fb ff ff 	mov    %rax,-0x4f8(%rbp)
    a2bd:	c6 85 4e fa ff ff 01 	movb   $0x1,-0x5b2(%rbp)
    a2c4:	48 c7 85 10 fb ff ff 	movq   $0x0,-0x4f0(%rbp)
    a2cb:	00 00 00 00 
    a2cf:	48 8d 05 52 fd 00 00 	lea    0xfd52(%rip),%rax        # 1a028 <g_3>
    a2d6:	48 89 85 e0 fb ff ff 	mov    %rax,-0x420(%rbp)
    a2dd:	48 8d 05 44 fd 00 00 	lea    0xfd44(%rip),%rax        # 1a028 <g_3>
    a2e4:	48 89 85 e8 fb ff ff 	mov    %rax,-0x418(%rbp)
    a2eb:	48 8d 05 36 fd 00 00 	lea    0xfd36(%rip),%rax        # 1a028 <g_3>
    a2f2:	48 89 85 f0 fb ff ff 	mov    %rax,-0x410(%rbp)
    a2f9:	48 8d 05 28 fd 00 00 	lea    0xfd28(%rip),%rax        # 1a028 <g_3>
    a300:	48 89 85 f8 fb ff ff 	mov    %rax,-0x408(%rbp)
    a307:	48 8d 05 1a fd 00 00 	lea    0xfd1a(%rip),%rax        # 1a028 <g_3>
    a30e:	48 89 85 00 fc ff ff 	mov    %rax,-0x400(%rbp)
    a315:	48 8d 05 0c fd 00 00 	lea    0xfd0c(%rip),%rax        # 1a028 <g_3>
    a31c:	48 89 85 08 fc ff ff 	mov    %rax,-0x3f8(%rbp)
    a323:	48 8d 05 fe fc 00 00 	lea    0xfcfe(%rip),%rax        # 1a028 <g_3>
    a32a:	48 89 85 10 fc ff ff 	mov    %rax,-0x3f0(%rbp)
    a331:	48 c7 85 18 fb ff ff 	movq   $0xffffffffffffffff,-0x4e8(%rbp)
    a338:	ff ff ff ff 
    a33c:	c7 85 50 fa ff ff 54 	movl   $0xc91eae54,-0x5b0(%rbp)
    a343:	ae 1e c9 
    a346:	48 8d 05 0b 46 01 00 	lea    0x1460b(%rip),%rax        # 1e958 <g_357+0x18>
    a34d:	48 89 85 20 fb ff ff 	mov    %rax,-0x4e0(%rbp)
    a354:	48 b8 b1 5b c4 92 99 	movabs $0xbef66c9992c45bb1,%rax
    a35b:	6c f6 be 
    a35e:	48 89 85 28 fb ff ff 	mov    %rax,-0x4d8(%rbp)
    a365:	48 b8 01 01 07 fa a0 	movabs $0xf608f6a0fa070101,%rax
    a36c:	f6 08 f6 
    a36f:	48 89 85 a0 fb ff ff 	mov    %rax,-0x460(%rbp)
    a376:	66 c7 85 a8 fb ff ff 	movw   $0xfaa0,-0x458(%rbp)
    a37d:	a0 fa 
    a37f:	48 b8 01 f6 01 ff 01 	movabs $0x98fa0801ff01f601,%rax
    a386:	08 fa 98 
    a389:	48 89 85 aa fb ff ff 	mov    %rax,-0x456(%rbp)
    a390:	66 c7 85 b2 fb ff ff 	movw   $0xf907,-0x44e(%rbp)
    a397:	07 f9 
    a399:	48 b8 08 fa 98 07 f9 	movabs $0x9807f9f90798fa08,%rax
    a3a0:	f9 07 98 
    a3a3:	48 89 85 b4 fb ff ff 	mov    %rax,-0x44c(%rbp)
    a3aa:	66 c7 85 bc fb ff ff 	movw   $0x8fa,-0x444(%rbp)
    a3b1:	fa 08 
    a3b3:	48 b8 67 00 01 01 07 	movabs $0xf6a0fa0701010067,%rax
    a3ba:	fa a0 f6 
    a3bd:	48 89 85 be fb ff ff 	mov    %rax,-0x442(%rbp)
    a3c4:	66 c7 85 c6 fb ff ff 	movw   $0xf608,-0x43a(%rbp)
    a3cb:	08 f6 
    a3cd:	48 b8 db 01 07 00 07 	movabs $0xf9db0107000701db,%rax
    a3d4:	01 db f9 
    a3d7:	48 89 85 c8 fb ff ff 	mov    %rax,-0x438(%rbp)
    a3de:	66 c7 85 d0 fb ff ff 	movw   $0x807,-0x430(%rbp)
    a3e5:	07 08 
    a3e7:	c7 85 68 fa ff ff 16 	movl   $0x8b112a16,-0x598(%rbp)
    a3ee:	2a 11 8b 
    a3f1:	c7 85 54 fa ff ff 00 	movl   $0x0,-0x5ac(%rbp)
    a3f8:	00 00 00 
    a3fb:	eb 1a                	jmp    a417 <func_33+0x1df>
    a3fd:	8b 85 54 fa ff ff    	mov    -0x5ac(%rbp),%eax
    a403:	48 98                	cltq   
    a405:	c7 84 85 68 fb ff ff 	movl   $0x2859ec38,-0x498(%rbp,%rax,4)
    a40c:	38 ec 59 28 
    a410:	83 85 54 fa ff ff 01 	addl   $0x1,-0x5ac(%rbp)
    a417:	83 bd 54 fa ff ff 01 	cmpl   $0x1,-0x5ac(%rbp)
    a41e:	7e dd                	jle    a3fd <func_33+0x1c5>
    a420:	83 bd 64 fa ff ff 00 	cmpl   $0x0,-0x59c(%rbp)
    a427:	75 63                	jne    a48c <func_33+0x254>
    a429:	48 8b 85 38 fa ff ff 	mov    -0x5c8(%rbp),%rax
    a430:	48 89 c7             	mov    %rax,%rdi
    a433:	e8 de e3 ff ff       	callq  8816 <safe_unary_minus_func_int64_t_s>
    a438:	8b 95 68 fb ff ff    	mov    -0x498(%rbp),%edx
    a43e:	89 d2                	mov    %edx,%edx
    a440:	48 39 d0             	cmp    %rdx,%rax
    a443:	0f 94 c0             	sete   %al
    a446:	0f b6 d8             	movzbl %al,%ebx
    a449:	48 8b 05 30 3e 01 00 	mov    0x13e30(%rip),%rax        # 1e280 <g_2550>
    a450:	8b 85 68 fb ff ff    	mov    -0x498(%rbp),%eax
    a456:	0f be c0             	movsbl %al,%eax
    a459:	89 c6                	mov    %eax,%esi
    a45b:	bf 01 00 00 00       	mov    $0x1,%edi
    a460:	e8 8d dd ff ff       	callq  81f2 <safe_sub_func_int8_t_s_s>
    a465:	48 8b 05 bc 27 01 00 	mov    0x127bc(%rip),%rax        # 1cc28 <g_1389>
    a46c:	0f b7 10             	movzwl (%rax),%edx
    a46f:	89 d9                	mov    %ebx,%ecx
    a471:	48 8b 05 b0 27 01 00 	mov    0x127b0(%rip),%rax        # 1cc28 <g_1389>
    a478:	09 ca                	or     %ecx,%edx
    a47a:	66 89 10             	mov    %dx,(%rax)
    a47d:	0f b7 00             	movzwl (%rax),%eax
    a480:	98                   	cwtl   
    a481:	89 c7                	mov    %eax,%edi
    a483:	e8 1e ea ff ff       	callq  8ea6 <safe_unary_minus_func_uint32_t_u>
    a488:	85 c0                	test   %eax,%eax
    a48a:	74 07                	je     a493 <func_33+0x25b>
    a48c:	b8 01 00 00 00       	mov    $0x1,%eax
    a491:	eb 05                	jmp    a498 <func_33+0x260>
    a493:	b8 00 00 00 00       	mov    $0x0,%eax
    a498:	48 98                	cltq   
    a49a:	48 39 85 38 fa ff ff 	cmp    %rax,-0x5c8(%rbp)
    a4a1:	0f 9e c0             	setle  %al
    a4a4:	89 c2                	mov    %eax,%edx
    a4a6:	0f b6 85 4e fa ff ff 	movzbl -0x5b2(%rbp),%eax
    a4ad:	31 d0                	xor    %edx,%eax
    a4af:	0f b6 c0             	movzbl %al,%eax
    a4b2:	be 06 00 00 00       	mov    $0x6,%esi
    a4b7:	89 c7                	mov    %eax,%edi
    a4b9:	e8 00 e8 ff ff       	callq  8cbe <safe_rshift_func_uint8_t_u_u>
    a4be:	0f b6 c0             	movzbl %al,%eax
    a4c1:	23 85 64 fa ff ff    	and    -0x59c(%rbp),%eax
    a4c7:	3d d5 ea 99 17       	cmp    $0x1799ead5,%eax
    a4cc:	0f 96 c0             	setbe  %al
    a4cf:	0f b6 d0             	movzbl %al,%edx
    a4d2:	0f b6 05 0f fd 00 00 	movzbl 0xfd0f(%rip),%eax        # 1a1e8 <g_794+0x8>
    a4d9:	c1 e0 02             	shl    $0x2,%eax
    a4dc:	c0 f8 02             	sar    $0x2,%al
    a4df:	89 c1                	mov    %eax,%ecx
    a4e1:	89 d0                	mov    %edx,%eax
    a4e3:	21 c8                	and    %ecx,%eax
    a4e5:	c1 e0 02             	shl    $0x2,%eax
    a4e8:	c0 f8 02             	sar    $0x2,%al
    a4eb:	83 e0 3f             	and    $0x3f,%eax
    a4ee:	89 c2                	mov    %eax,%edx
    a4f0:	0f b6 05 f1 fc 00 00 	movzbl 0xfcf1(%rip),%eax        # 1a1e8 <g_794+0x8>
    a4f7:	83 e0 c0             	and    $0xffffffc0,%eax
    a4fa:	09 d0                	or     %edx,%eax
    a4fc:	88 05 e6 fc 00 00    	mov    %al,0xfce6(%rip)        # 1a1e8 <g_794+0x8>
    a502:	48 8b 05 5f 25 01 00 	mov    0x1255f(%rip),%rax        # 1ca68 <g_802>
    a509:	48 8b 00             	mov    (%rax),%rax
    a50c:	8b 00                	mov    (%rax),%eax
    a50e:	85 c0                	test   %eax,%eax
    a510:	0f 84 db 0b 00 00    	je     b0f1 <func_33+0xeb9>
    a516:	c7 85 58 fa ff ff f7 	movl   $0x612273f7,-0x5a8(%rbp)
    a51d:	73 22 61 
    a520:	c7 85 6c fa ff ff ff 	movl   $0xffffffff,-0x594(%rbp)
    a527:	ff ff ff 
    a52a:	c7 85 70 fa ff ff 68 	movl   $0x623fe868,-0x590(%rbp)
    a531:	e8 3f 62 
    a534:	c7 85 74 fa ff ff ba 	movl   $0xd52377ba,-0x58c(%rbp)
    a53b:	77 23 d5 
    a53e:	c7 85 78 fa ff ff 6a 	movl   $0xe14bee6a,-0x588(%rbp)
    a545:	ee 4b e1 
    a548:	c7 85 7c fa ff ff de 	movl   $0xa439c6de,-0x584(%rbp)
    a54f:	c6 39 a4 
    a552:	c7 85 80 fa ff ff e7 	movl   $0x281df6e7,-0x580(%rbp)
    a559:	f6 1d 28 
    a55c:	c7 85 84 fa ff ff 8d 	movl   $0x1dbfd68d,-0x57c(%rbp)
    a563:	d6 bf 1d 
    a566:	c7 85 5c fa ff ff 00 	movl   $0x0,-0x5a4(%rbp)
    a56d:	00 00 00 
    a570:	eb 19                	jmp    a58b <func_33+0x353>
    a572:	8b 85 5c fa ff ff    	mov    -0x5a4(%rbp),%eax
    a578:	48 98                	cltq   
    a57a:	66 c7 84 45 64 fb ff 	movw   $0x2334,-0x49c(%rbp,%rax,2)
    a581:	ff 34 23 
    a584:	83 85 5c fa ff ff 01 	addl   $0x1,-0x5a4(%rbp)
    a58b:	83 bd 5c fa ff ff 01 	cmpl   $0x1,-0x5a4(%rbp)
    a592:	7e de                	jle    a572 <func_33+0x33a>
    a594:	0f b7 85 66 fb ff ff 	movzwl -0x49a(%rbp),%eax
    a59b:	83 e0 01             	and    $0x1,%eax
    a59e:	66 89 85 66 fb ff ff 	mov    %ax,-0x49a(%rbp)
    a5a5:	c7 05 f9 fa 00 00 fc 	movl   $0xfffffffc,0xfaf9(%rip)        # 1a0a8 <g_207>
    a5ac:	ff ff ff 
    a5af:	e9 2d 0b 00 00       	jmpq   b0e1 <func_33+0xea9>
    a5b4:	c6 85 4f fa ff ff cf 	movb   $0xcf,-0x5b1(%rbp)
    a5bb:	c7 85 88 fa ff ff 02 	movl   $0x2,-0x578(%rbp)
    a5c2:	00 00 00 
    a5c5:	c7 85 8c fa ff ff ff 	movl   $0xffffffff,-0x574(%rbp)
    a5cc:	ff ff ff 
    a5cf:	c7 85 90 fa ff ff 01 	movl   $0x1,-0x570(%rbp)
    a5d6:	00 00 00 
    a5d9:	c7 85 94 fa ff ff 04 	movl   $0x74779004,-0x56c(%rbp)
    a5e0:	90 77 74 
    a5e3:	c7 85 98 fa ff ff d3 	movl   $0xa23f08d3,-0x568(%rbp)
    a5ea:	08 3f a2 
    a5ed:	c7 85 80 fb ff ff 0b 	movl   $0x4ee1eb0b,-0x480(%rbp)
    a5f4:	eb e1 4e 
    a5f7:	c7 85 84 fb ff ff 0b 	movl   $0x4ee1eb0b,-0x47c(%rbp)
    a5fe:	eb e1 4e 
    a601:	c7 85 88 fb ff ff 0b 	movl   $0x4ee1eb0b,-0x478(%rbp)
    a608:	eb e1 4e 
    a60b:	c7 85 8c fb ff ff 0b 	movl   $0x4ee1eb0b,-0x474(%rbp)
    a612:	eb e1 4e 
    a615:	48 8d 85 e0 fb ff ff 	lea    -0x420(%rbp),%rax
    a61c:	48 83 c0 20          	add    $0x20,%rax
    a620:	48 89 85 30 fb ff ff 	mov    %rax,-0x4d0(%rbp)
    a627:	c7 85 60 fa ff ff 00 	movl   $0x0,-0x5a0(%rbp)
    a62e:	00 00 00 
    a631:	eb 1b                	jmp    a64e <func_33+0x416>
    a633:	8b 85 60 fa ff ff    	mov    -0x5a0(%rbp),%eax
    a639:	48 98                	cltq   
    a63b:	48 c7 84 c5 70 fb ff 	movq   $0x5,-0x490(%rbp,%rax,8)
    a642:	ff 05 00 00 00 
    a647:	83 85 60 fa ff ff 01 	addl   $0x1,-0x5a0(%rbp)
    a64e:	83 bd 60 fa ff ff 01 	cmpl   $0x1,-0x5a0(%rbp)
    a655:	7e dc                	jle    a633 <func_33+0x3fb>
    a657:	83 85 50 fa ff ff 01 	addl   $0x1,-0x5b0(%rbp)
    a65e:	48 8b 85 30 fb ff ff 	mov    -0x4d0(%rbp),%rax
    a665:	48 c7 00 00 00 00 00 	movq   $0x0,(%rax)
    a66c:	c7 85 58 fa ff ff 00 	movl   $0x0,-0x5a8(%rbp)
    a673:	00 00 00 
    a676:	e9 3e 0a 00 00       	jmpq   b0b9 <func_33+0xe81>
    a67b:	48 c7 85 38 fb ff ff 	movq   $0xfffffffffffffffe,-0x4c8(%rbp)
    a682:	fe ff ff ff 
    a686:	48 8d 05 83 22 01 00 	lea    0x12283(%rip),%rax        # 1c910 <g_116>
    a68d:	48 89 85 d0 fa ff ff 	mov    %rax,-0x530(%rbp)
    a694:	48 8d 85 d0 fa ff ff 	lea    -0x530(%rbp),%rax
    a69b:	48 89 85 40 fb ff ff 	mov    %rax,-0x4c0(%rbp)
    a6a2:	48 b8 33 5a dc 31 69 	movabs $0x58b2706931dc5a33,%rax
    a6a9:	70 b2 58 
    a6ac:	48 89 85 48 fb ff ff 	mov    %rax,-0x4b8(%rbp)
    a6b3:	c7 85 9c fa ff ff 05 	movl   $0x5,-0x564(%rbp)
    a6ba:	00 00 00 
    a6bd:	48 8b 85 38 fb ff ff 	mov    -0x4c8(%rbp),%rax
    a6c4:	0f be d8             	movsbl %al,%ebx
    a6c7:	48 8b 85 38 fa ff ff 	mov    -0x5c8(%rbp),%rax
    a6ce:	44 0f b6 e0          	movzbl %al,%r12d
    a6d2:	48 8b 05 17 26 01 00 	mov    0x12617(%rip),%rax        # 1ccf0 <g_1898>
    a6d9:	48 8b 00             	mov    (%rax),%rax
    a6dc:	48 8b 00             	mov    (%rax),%rax
    a6df:	48 8b 00             	mov    (%rax),%rax
    a6e2:	0f b6 00             	movzbl (%rax),%eax
    a6e5:	0f b6 c0             	movzbl %al,%eax
    a6e8:	39 85 84 fa ff ff    	cmp    %eax,-0x57c(%rbp)
    a6ee:	0f 92 c2             	setb   %dl
    a6f1:	48 8d 05 c9 f9 00 00 	lea    0xf9c9(%rip),%rax        # 1a0c1 <g_277>
    a6f8:	88 10                	mov    %dl,(%rax)
    a6fa:	48 83 bd 38 fb ff ff 	cmpq   $0x0,-0x4c8(%rbp)
    a701:	00 
    a702:	75 28                	jne    a72c <func_33+0x4f4>
    a704:	48 8b 95 d0 fa ff ff 	mov    -0x530(%rbp),%rdx
    a70b:	48 8b 85 40 fb ff ff 	mov    -0x4c0(%rbp),%rax
    a712:	48 89 10             	mov    %rdx,(%rax)
    a715:	48 8b 85 40 fb ff ff 	mov    -0x4c0(%rbp),%rax
    a71c:	48 8b 10             	mov    (%rax),%rdx
    a71f:	48 8b 05 4a 23 01 00 	mov    0x1234a(%rip),%rax        # 1ca70 <g_938>
    a726:	48 8b 00             	mov    (%rax),%rax
    a729:	48 39 c2             	cmp    %rax,%rdx
    a72c:	83 bd 6c fa ff ff 01 	cmpl   $0x1,-0x594(%rbp)
    a733:	0f 9f c0             	setg   %al
    a736:	0f b6 c0             	movzbl %al,%eax
    a739:	33 85 78 fa ff ff    	xor    -0x588(%rbp),%eax
    a73f:	48 98                	cltq   
    a741:	48 23 85 38 fa ff ff 	and    -0x5c8(%rbp),%rax
    a748:	48 39 85 38 fa ff ff 	cmp    %rax,-0x5c8(%rbp)
    a74f:	0f 94 c0             	sete   %al
    a752:	0f b6 c0             	movzbl %al,%eax
    a755:	48 39 85 38 fa ff ff 	cmp    %rax,-0x5c8(%rbp)
    a75c:	0f 9d c0             	setge  %al
    a75f:	0f b6 c0             	movzbl %al,%eax
    a762:	89 c6                	mov    %eax,%esi
    a764:	bf fa 00 00 00       	mov    $0xfa,%edi
    a769:	e8 ec e3 ff ff       	callq  8b5a <safe_add_func_uint8_t_u_u>
    a76e:	0f b6 c0             	movzbl %al,%eax
    a771:	44 89 e6             	mov    %r12d,%esi
    a774:	89 c7                	mov    %eax,%edi
    a776:	e8 60 e4 ff ff       	callq  8bdb <safe_div_func_uint8_t_u_u>
    a77b:	0f be c0             	movsbl %al,%eax
    a77e:	89 de                	mov    %ebx,%esi
    a780:	89 c7                	mov    %eax,%edi
    a782:	e8 e3 da ff ff       	callq  826a <safe_div_func_int8_t_s_s>
    a787:	0f be c0             	movsbl %al,%eax
    a78a:	39 85 74 fa ff ff    	cmp    %eax,-0x58c(%rbp)
    a790:	7e 0c                	jle    a79e <func_33+0x566>
    a792:	48 b8 b7 20 d7 8c 02 	movabs $0xabc4fb028cd720b7,%rax
    a799:	fb c4 ab 
    a79c:	eb 0a                	jmp    a7a8 <func_33+0x570>
    a79e:	48 b8 b6 20 d7 8c 02 	movabs $0xabc4fb028cd720b6,%rax
    a7a5:	fb c4 ab 
    a7a8:	48 8b 95 48 fb ff ff 	mov    -0x4b8(%rbp),%rdx
    a7af:	48 39 d0             	cmp    %rdx,%rax
    a7b2:	0f 84 f2 00 00 00    	je     a8aa <func_33+0x672>
    a7b8:	48 8d 05 d1 f8 00 00 	lea    0xf8d1(%rip),%rax        # 1a090 <g_139>
    a7bf:	48 89 85 58 fb ff ff 	mov    %rax,-0x4a8(%rbp)
    a7c6:	c7 85 a8 fa ff ff fa 	movl   $0xfffffffa,-0x558(%rbp)
    a7cd:	ff ff ff 
    a7d0:	c7 85 ac fa ff ff dd 	movl   $0x583b34dd,-0x554(%rbp)
    a7d7:	34 3b 58 
    a7da:	8b 85 a8 fa ff ff    	mov    -0x558(%rbp),%eax
    a7e0:	0f b7 d8             	movzwl %ax,%ebx
    a7e3:	48 8b 05 56 22 01 00 	mov    0x12256(%rip),%rax        # 1ca40 <g_648>
    a7ea:	48 8b 00             	mov    (%rax),%rax
    a7ed:	0f b6 00             	movzbl (%rax),%eax
    a7f0:	4c 0f be e8          	movsbq %al,%r13
    a7f4:	8b 85 a8 fa ff ff    	mov    -0x558(%rbp),%eax
    a7fa:	4c 63 e0             	movslq %eax,%r12
    a7fd:	48 8b 05 24 24 01 00 	mov    0x12424(%rip),%rax        # 1cc28 <g_1389>
    a804:	66 c7 00 01 00       	movw   $0x1,(%rax)
    a809:	48 83 bd 38 fa ff ff 	cmpq   $0x0,-0x5c8(%rbp)
    a810:	00 
    a811:	74 21                	je     a834 <func_33+0x5fc>
    a813:	48 8b 85 38 fa ff ff 	mov    -0x5c8(%rbp),%rax
    a81a:	0f b6 c0             	movzbl %al,%eax
    a81d:	89 c6                	mov    %eax,%esi
    a81f:	bf ff 00 00 00       	mov    $0xff,%edi
    a824:	e8 85 e3 ff ff       	callq  8bae <safe_mod_func_uint8_t_u_u>
    a829:	84 c0                	test   %al,%al
    a82b:	74 07                	je     a834 <func_33+0x5fc>
    a82d:	b8 01 00 00 00       	mov    $0x1,%eax
    a832:	eb 05                	jmp    a839 <func_33+0x601>
    a834:	b8 00 00 00 00       	mov    $0x0,%eax
    a839:	98                   	cwtl   
    a83a:	be 01 00 00 00       	mov    $0x1,%esi
    a83f:	89 c7                	mov    %eax,%edi
    a841:	e8 8d db ff ff       	callq  83d3 <safe_sub_func_int16_t_s_s>
    a846:	98                   	cwtl   
    a847:	be 00 00 00 00       	mov    $0x0,%esi
    a84c:	89 c7                	mov    %eax,%edi
    a84e:	e8 10 dd ff ff       	callq  8563 <safe_rshift_func_int16_t_s_u>
    a853:	48 8b 95 58 fb ff ff 	mov    -0x4a8(%rbp),%rdx
    a85a:	48 8b 12             	mov    (%rdx),%rdx
    a85d:	48 0f bf c0          	movswq %ax,%rax
    a861:	48 21 c2             	and    %rax,%rdx
    a864:	48 8b 85 58 fb ff ff 	mov    -0x4a8(%rbp),%rax
    a86b:	48 89 10             	mov    %rdx,(%rax)
    a86e:	48 8b 85 58 fb ff ff 	mov    -0x4a8(%rbp),%rax
    a875:	48 8b 00             	mov    (%rax),%rax
    a878:	4c 89 e6             	mov    %r12,%rsi
    a87b:	48 89 c7             	mov    %rax,%rdi
    a87e:	e8 ab e7 ff ff       	callq  902e <safe_add_func_uint64_t_u_u>
    a883:	49 39 c5             	cmp    %rax,%r13
    a886:	0f 93 c0             	setae  %al
    a889:	0f b6 c0             	movzbl %al,%eax
    a88c:	89 de                	mov    %ebx,%esi
    a88e:	89 c7                	mov    %eax,%edi
    a890:	e8 c7 e4 ff ff       	callq  8d5c <safe_mod_func_uint16_t_u_u>
    a895:	0f b7 c0             	movzwl %ax,%eax
    a898:	48 0b 85 38 fa ff ff 	or     -0x5c8(%rbp),%rax
    a89f:	21 85 ac fa ff ff    	and    %eax,-0x554(%rbp)
    a8a5:	e9 fb 07 00 00       	jmpq   b0a5 <func_33+0xe6d>
    a8aa:	48 8d 05 d7 23 01 00 	lea    0x123d7(%rip),%rax        # 1cc88 <g_1698>
    a8b1:	48 89 85 d8 fa ff ff 	mov    %rax,-0x528(%rbp)
    a8b8:	c7 85 a0 fa ff ff f9 	movl   $0xfffffff9,-0x560(%rbp)
    a8bf:	ff ff ff 
    a8c2:	c7 85 90 fb ff ff 04 	movl   $0x4,-0x470(%rbp)
    a8c9:	00 00 00 
    a8cc:	c7 85 94 fb ff ff 04 	movl   $0x4,-0x46c(%rbp)
    a8d3:	00 00 00 
    a8d6:	c7 85 98 fb ff ff 04 	movl   $0x4,-0x468(%rbp)
    a8dd:	00 00 00 
    a8e0:	c7 85 9c fb ff ff 04 	movl   $0x4,-0x464(%rbp)
    a8e7:	00 00 00 
    a8ea:	c7 85 a4 fa ff ff 72 	movl   $0x51081272,-0x55c(%rbp)
    a8f1:	12 08 51 
    a8f4:	48 c7 05 a1 0a 01 00 	movq   $0x1,0x10aa1(%rip)        # 1b3a0 <g_2377>
    a8fb:	01 00 00 00 
    a8ff:	90                   	nop
    a900:	48 8b 05 99 0a 01 00 	mov    0x10a99(%rip),%rax        # 1b3a0 <g_2377>
    a907:	48 83 f8 06          	cmp    $0x6,%rax
    a90b:	0f 87 94 07 00 00    	ja     b0a5 <func_33+0xe6d>
    a911:	48 8d 05 38 41 01 00 	lea    0x14138(%rip),%rax        # 1ea50 <g_696>
    a918:	48 89 85 e0 fa ff ff 	mov    %rax,-0x520(%rbp)
    a91f:	48 8d 85 e0 fa ff ff 	lea    -0x520(%rbp),%rax
    a926:	48 89 85 20 fc ff ff 	mov    %rax,-0x3e0(%rbp)
    a92d:	48 8d 85 e0 fa ff ff 	lea    -0x520(%rbp),%rax
    a934:	48 89 85 28 fc ff ff 	mov    %rax,-0x3d8(%rbp)
    a93b:	48 8d 85 e0 fa ff ff 	lea    -0x520(%rbp),%rax
    a942:	48 89 85 30 fc ff ff 	mov    %rax,-0x3d0(%rbp)
    a949:	48 8d 85 e0 fa ff ff 	lea    -0x520(%rbp),%rax
    a950:	48 89 85 38 fc ff ff 	mov    %rax,-0x3c8(%rbp)
    a957:	48 8d 85 e0 fa ff ff 	lea    -0x520(%rbp),%rax
    a95e:	48 89 85 40 fc ff ff 	mov    %rax,-0x3c0(%rbp)
    a965:	48 8d 85 e0 fa ff ff 	lea    -0x520(%rbp),%rax
    a96c:	48 89 85 48 fc ff ff 	mov    %rax,-0x3b8(%rbp)
    a973:	48 8d 85 e0 fa ff ff 	lea    -0x520(%rbp),%rax
    a97a:	48 89 85 50 fc ff ff 	mov    %rax,-0x3b0(%rbp)
    a981:	48 8d 85 e0 fa ff ff 	lea    -0x520(%rbp),%rax
    a988:	48 89 85 58 fc ff ff 	mov    %rax,-0x3a8(%rbp)
    a98f:	48 8d 85 e0 fa ff ff 	lea    -0x520(%rbp),%rax
    a996:	48 89 85 60 fc ff ff 	mov    %rax,-0x3a0(%rbp)
    a99d:	48 8d 85 20 fc ff ff 	lea    -0x3e0(%rbp),%rax
    a9a4:	48 83 c0 10          	add    $0x10,%rax
    a9a8:	48 89 85 e8 fa ff ff 	mov    %rax,-0x518(%rbp)
    a9af:	48 8d 85 e8 fa ff ff 	lea    -0x518(%rbp),%rax
    a9b6:	48 89 85 50 fb ff ff 	mov    %rax,-0x4b0(%rbp)
    a9bd:	48 8d 85 d8 fa ff ff 	lea    -0x528(%rbp),%rax
    a9c4:	48 89 85 f0 fa ff ff 	mov    %rax,-0x510(%rbp)
    a9cb:	48 8d 85 f0 fa ff ff 	lea    -0x510(%rbp),%rax
    a9d2:	48 89 85 f8 fa ff ff 	mov    %rax,-0x508(%rbp)
    a9d9:	48 8d 85 f8 fa ff ff 	lea    -0x508(%rbp),%rax
    a9e0:	48 89 85 70 fc ff ff 	mov    %rax,-0x390(%rbp)
    a9e7:	48 c7 85 78 fc ff ff 	movq   $0x0,-0x388(%rbp)
    a9ee:	00 00 00 00 
    a9f2:	48 8d 85 f8 fa ff ff 	lea    -0x508(%rbp),%rax
    a9f9:	48 89 85 80 fc ff ff 	mov    %rax,-0x380(%rbp)
    aa00:	48 8d 85 f8 fa ff ff 	lea    -0x508(%rbp),%rax
    aa07:	48 89 85 88 fc ff ff 	mov    %rax,-0x378(%rbp)
    aa0e:	48 8d 85 f8 fa ff ff 	lea    -0x508(%rbp),%rax
    aa15:	48 89 85 90 fc ff ff 	mov    %rax,-0x370(%rbp)
    aa1c:	48 8d 85 f8 fa ff ff 	lea    -0x508(%rbp),%rax
    aa23:	48 89 85 98 fc ff ff 	mov    %rax,-0x368(%rbp)
    aa2a:	48 8d 85 f8 fa ff ff 	lea    -0x508(%rbp),%rax
    aa31:	48 89 85 a0 fc ff ff 	mov    %rax,-0x360(%rbp)
    aa38:	48 8d 85 f8 fa ff ff 	lea    -0x508(%rbp),%rax
    aa3f:	48 89 85 a8 fc ff ff 	mov    %rax,-0x358(%rbp)
    aa46:	48 8d 85 f8 fa ff ff 	lea    -0x508(%rbp),%rax
    aa4d:	48 89 85 b0 fc ff ff 	mov    %rax,-0x350(%rbp)
    aa54:	48 8d 85 f8 fa ff ff 	lea    -0x508(%rbp),%rax
    aa5b:	48 89 85 b8 fc ff ff 	mov    %rax,-0x348(%rbp)
    aa62:	48 8d 85 f8 fa ff ff 	lea    -0x508(%rbp),%rax
    aa69:	48 89 85 c0 fc ff ff 	mov    %rax,-0x340(%rbp)
    aa70:	48 8d 85 f8 fa ff ff 	lea    -0x508(%rbp),%rax
    aa77:	48 89 85 c8 fc ff ff 	mov    %rax,-0x338(%rbp)
    aa7e:	48 8d 85 f8 fa ff ff 	lea    -0x508(%rbp),%rax
    aa85:	48 89 85 d0 fc ff ff 	mov    %rax,-0x330(%rbp)
    aa8c:	48 8d 85 f8 fa ff ff 	lea    -0x508(%rbp),%rax
    aa93:	48 89 85 d8 fc ff ff 	mov    %rax,-0x328(%rbp)
    aa9a:	48 8d 85 f8 fa ff ff 	lea    -0x508(%rbp),%rax
    aaa1:	48 89 85 e0 fc ff ff 	mov    %rax,-0x320(%rbp)
    aaa8:	48 8d 85 f8 fa ff ff 	lea    -0x508(%rbp),%rax
    aaaf:	48 89 85 e8 fc ff ff 	mov    %rax,-0x318(%rbp)
    aab6:	48 8d 85 f8 fa ff ff 	lea    -0x508(%rbp),%rax
    aabd:	48 89 85 f0 fc ff ff 	mov    %rax,-0x310(%rbp)
    aac4:	48 8d 85 f8 fa ff ff 	lea    -0x508(%rbp),%rax
    aacb:	48 89 85 f8 fc ff ff 	mov    %rax,-0x308(%rbp)
    aad2:	48 8d 85 f8 fa ff ff 	lea    -0x508(%rbp),%rax
    aad9:	48 89 85 00 fd ff ff 	mov    %rax,-0x300(%rbp)
    aae0:	48 c7 85 08 fd ff ff 	movq   $0x0,-0x2f8(%rbp)
    aae7:	00 00 00 00 
    aaeb:	48 8d 85 f8 fa ff ff 	lea    -0x508(%rbp),%rax
    aaf2:	48 89 85 10 fd ff ff 	mov    %rax,-0x2f0(%rbp)
    aaf9:	48 8d 85 f8 fa ff ff 	lea    -0x508(%rbp),%rax
    ab00:	48 89 85 18 fd ff ff 	mov    %rax,-0x2e8(%rbp)
    ab07:	48 8d 85 f8 fa ff ff 	lea    -0x508(%rbp),%rax
    ab0e:	48 89 85 20 fd ff ff 	mov    %rax,-0x2e0(%rbp)
    ab15:	48 8d 85 f8 fa ff ff 	lea    -0x508(%rbp),%rax
    ab1c:	48 89 85 28 fd ff ff 	mov    %rax,-0x2d8(%rbp)
    ab23:	48 8d 85 f8 fa ff ff 	lea    -0x508(%rbp),%rax
    ab2a:	48 89 85 30 fd ff ff 	mov    %rax,-0x2d0(%rbp)
    ab31:	48 8d 85 f8 fa ff ff 	lea    -0x508(%rbp),%rax
    ab38:	48 89 85 38 fd ff ff 	mov    %rax,-0x2c8(%rbp)
    ab3f:	48 8d 85 f8 fa ff ff 	lea    -0x508(%rbp),%rax
    ab46:	48 89 85 40 fd ff ff 	mov    %rax,-0x2c0(%rbp)
    ab4d:	48 8d 85 f8 fa ff ff 	lea    -0x508(%rbp),%rax
    ab54:	48 89 85 48 fd ff ff 	mov    %rax,-0x2b8(%rbp)
    ab5b:	48 8d 85 f8 fa ff ff 	lea    -0x508(%rbp),%rax
    ab62:	48 89 85 50 fd ff ff 	mov    %rax,-0x2b0(%rbp)
    ab69:	48 8d 85 f8 fa ff ff 	lea    -0x508(%rbp),%rax
    ab70:	48 89 85 58 fd ff ff 	mov    %rax,-0x2a8(%rbp)
    ab77:	48 8d 85 f8 fa ff ff 	lea    -0x508(%rbp),%rax
    ab7e:	48 89 85 60 fd ff ff 	mov    %rax,-0x2a0(%rbp)
    ab85:	48 c7 85 68 fd ff ff 	movq   $0x0,-0x298(%rbp)
    ab8c:	00 00 00 00 
    ab90:	48 8d 85 f8 fa ff ff 	lea    -0x508(%rbp),%rax
    ab97:	48 89 85 70 fd ff ff 	mov    %rax,-0x290(%rbp)
    ab9e:	48 8d 85 f8 fa ff ff 	lea    -0x508(%rbp),%rax
    aba5:	48 89 85 78 fd ff ff 	mov    %rax,-0x288(%rbp)
    abac:	48 8d 85 f8 fa ff ff 	lea    -0x508(%rbp),%rax
    abb3:	48 89 85 80 fd ff ff 	mov    %rax,-0x280(%rbp)
    abba:	48 8d 85 f8 fa ff ff 	lea    -0x508(%rbp),%rax
    abc1:	48 89 85 88 fd ff ff 	mov    %rax,-0x278(%rbp)
    abc8:	48 8d 85 f8 fa ff ff 	lea    -0x508(%rbp),%rax
    abcf:	48 89 85 90 fd ff ff 	mov    %rax,-0x270(%rbp)
    abd6:	48 8d 85 f8 fa ff ff 	lea    -0x508(%rbp),%rax
    abdd:	48 89 85 98 fd ff ff 	mov    %rax,-0x268(%rbp)
    abe4:	48 8d 85 f8 fa ff ff 	lea    -0x508(%rbp),%rax
    abeb:	48 89 85 a0 fd ff ff 	mov    %rax,-0x260(%rbp)
    abf2:	48 8d 85 f8 fa ff ff 	lea    -0x508(%rbp),%rax
    abf9:	48 89 85 a8 fd ff ff 	mov    %rax,-0x258(%rbp)
    ac00:	48 8d 85 f8 fa ff ff 	lea    -0x508(%rbp),%rax
    ac07:	48 89 85 b0 fd ff ff 	mov    %rax,-0x250(%rbp)
    ac0e:	48 8d 85 f8 fa ff ff 	lea    -0x508(%rbp),%rax
    ac15:	48 89 85 b8 fd ff ff 	mov    %rax,-0x248(%rbp)
    ac1c:	48 8d 85 f8 fa ff ff 	lea    -0x508(%rbp),%rax
    ac23:	48 89 85 c0 fd ff ff 	mov    %rax,-0x240(%rbp)
    ac2a:	48 8d 85 f8 fa ff ff 	lea    -0x508(%rbp),%rax
    ac31:	48 89 85 c8 fd ff ff 	mov    %rax,-0x238(%rbp)
    ac38:	48 8d 85 f8 fa ff ff 	lea    -0x508(%rbp),%rax
    ac3f:	48 89 85 d0 fd ff ff 	mov    %rax,-0x230(%rbp)
    ac46:	48 8d 85 f8 fa ff ff 	lea    -0x508(%rbp),%rax
    ac4d:	48 89 85 d8 fd ff ff 	mov    %rax,-0x228(%rbp)
    ac54:	48 8d 85 f8 fa ff ff 	lea    -0x508(%rbp),%rax
    ac5b:	48 89 85 e0 fd ff ff 	mov    %rax,-0x220(%rbp)
    ac62:	48 8d 85 f8 fa ff ff 	lea    -0x508(%rbp),%rax
    ac69:	48 89 85 e8 fd ff ff 	mov    %rax,-0x218(%rbp)
    ac70:	48 8d 85 f8 fa ff ff 	lea    -0x508(%rbp),%rax
    ac77:	48 89 85 f0 fd ff ff 	mov    %rax,-0x210(%rbp)
    ac7e:	48 c7 85 f8 fd ff ff 	movq   $0x0,-0x208(%rbp)
    ac85:	00 00 00 00 
    ac89:	48 8d 85 f8 fa ff ff 	lea    -0x508(%rbp),%rax
    ac90:	48 89 85 00 fe ff ff 	mov    %rax,-0x200(%rbp)
    ac97:	48 8d 85 f8 fa ff ff 	lea    -0x508(%rbp),%rax
    ac9e:	48 89 85 08 fe ff ff 	mov    %rax,-0x1f8(%rbp)
    aca5:	48 8d 85 f8 fa ff ff 	lea    -0x508(%rbp),%rax
    acac:	48 89 85 10 fe ff ff 	mov    %rax,-0x1f0(%rbp)
    acb3:	48 8d 85 f8 fa ff ff 	lea    -0x508(%rbp),%rax
    acba:	48 89 85 18 fe ff ff 	mov    %rax,-0x1e8(%rbp)
    acc1:	48 8d 85 f8 fa ff ff 	lea    -0x508(%rbp),%rax
    acc8:	48 89 85 20 fe ff ff 	mov    %rax,-0x1e0(%rbp)
    accf:	48 8d 85 f8 fa ff ff 	lea    -0x508(%rbp),%rax
    acd6:	48 89 85 28 fe ff ff 	mov    %rax,-0x1d8(%rbp)
    acdd:	48 8d 85 f8 fa ff ff 	lea    -0x508(%rbp),%rax
    ace4:	48 89 85 30 fe ff ff 	mov    %rax,-0x1d0(%rbp)
    aceb:	48 8d 85 f8 fa ff ff 	lea    -0x508(%rbp),%rax
    acf2:	48 89 85 38 fe ff ff 	mov    %rax,-0x1c8(%rbp)
    acf9:	48 8d 85 f8 fa ff ff 	lea    -0x508(%rbp),%rax
    ad00:	48 89 85 40 fe ff ff 	mov    %rax,-0x1c0(%rbp)
    ad07:	48 8d 85 f8 fa ff ff 	lea    -0x508(%rbp),%rax
    ad0e:	48 89 85 48 fe ff ff 	mov    %rax,-0x1b8(%rbp)
    ad15:	48 8d 85 f8 fa ff ff 	lea    -0x508(%rbp),%rax
    ad1c:	48 89 85 50 fe ff ff 	mov    %rax,-0x1b0(%rbp)
    ad23:	48 c7 85 58 fe ff ff 	movq   $0x0,-0x1a8(%rbp)
    ad2a:	00 00 00 00 
    ad2e:	48 8d 85 f8 fa ff ff 	lea    -0x508(%rbp),%rax
    ad35:	48 89 85 60 fe ff ff 	mov    %rax,-0x1a0(%rbp)
    ad3c:	48 8d 85 f8 fa ff ff 	lea    -0x508(%rbp),%rax
    ad43:	48 89 85 68 fe ff ff 	mov    %rax,-0x198(%rbp)
    ad4a:	48 8d 85 f8 fa ff ff 	lea    -0x508(%rbp),%rax
    ad51:	48 89 85 70 fe ff ff 	mov    %rax,-0x190(%rbp)
    ad58:	48 8d 85 f8 fa ff ff 	lea    -0x508(%rbp),%rax
    ad5f:	48 89 85 78 fe ff ff 	mov    %rax,-0x188(%rbp)
    ad66:	48 8d 85 f8 fa ff ff 	lea    -0x508(%rbp),%rax
    ad6d:	48 89 85 80 fe ff ff 	mov    %rax,-0x180(%rbp)
    ad74:	48 8d 85 f8 fa ff ff 	lea    -0x508(%rbp),%rax
    ad7b:	48 89 85 88 fe ff ff 	mov    %rax,-0x178(%rbp)
    ad82:	48 8d 85 f8 fa ff ff 	lea    -0x508(%rbp),%rax
    ad89:	48 89 85 90 fe ff ff 	mov    %rax,-0x170(%rbp)
    ad90:	48 8d 85 f8 fa ff ff 	lea    -0x508(%rbp),%rax
    ad97:	48 89 85 98 fe ff ff 	mov    %rax,-0x168(%rbp)
    ad9e:	48 8d 85 f8 fa ff ff 	lea    -0x508(%rbp),%rax
    ada5:	48 89 85 a0 fe ff ff 	mov    %rax,-0x160(%rbp)
    adac:	48 8d 85 f8 fa ff ff 	lea    -0x508(%rbp),%rax
    adb3:	48 89 85 a8 fe ff ff 	mov    %rax,-0x158(%rbp)
    adba:	48 8d 85 f8 fa ff ff 	lea    -0x508(%rbp),%rax
    adc1:	48 89 85 b0 fe ff ff 	mov    %rax,-0x150(%rbp)
    adc8:	48 8d 85 f8 fa ff ff 	lea    -0x508(%rbp),%rax
    adcf:	48 89 85 b8 fe ff ff 	mov    %rax,-0x148(%rbp)
    add6:	48 8d 85 f8 fa ff ff 	lea    -0x508(%rbp),%rax
    addd:	48 89 85 c0 fe ff ff 	mov    %rax,-0x140(%rbp)
    ade4:	48 8d 85 f8 fa ff ff 	lea    -0x508(%rbp),%rax
    adeb:	48 89 85 c8 fe ff ff 	mov    %rax,-0x138(%rbp)
    adf2:	48 8d 85 f8 fa ff ff 	lea    -0x508(%rbp),%rax
    adf9:	48 89 85 d0 fe ff ff 	mov    %rax,-0x130(%rbp)
    ae00:	48 8d 85 f8 fa ff ff 	lea    -0x508(%rbp),%rax
    ae07:	48 89 85 d8 fe ff ff 	mov    %rax,-0x128(%rbp)
    ae0e:	48 8d 85 f8 fa ff ff 	lea    -0x508(%rbp),%rax
    ae15:	48 89 85 e0 fe ff ff 	mov    %rax,-0x120(%rbp)
    ae1c:	48 c7 85 e8 fe ff ff 	movq   $0x0,-0x118(%rbp)
    ae23:	00 00 00 00 
    ae27:	48 8d 85 f8 fa ff ff 	lea    -0x508(%rbp),%rax
    ae2e:	48 89 85 f0 fe ff ff 	mov    %rax,-0x110(%rbp)
    ae35:	48 8d 85 f8 fa ff ff 	lea    -0x508(%rbp),%rax
    ae3c:	48 89 85 f8 fe ff ff 	mov    %rax,-0x108(%rbp)
    ae43:	48 8d 85 f8 fa ff ff 	lea    -0x508(%rbp),%rax
    ae4a:	48 89 85 00 ff ff ff 	mov    %rax,-0x100(%rbp)
    ae51:	48 8d 85 f8 fa ff ff 	lea    -0x508(%rbp),%rax
    ae58:	48 89 85 08 ff ff ff 	mov    %rax,-0xf8(%rbp)
    ae5f:	48 8d 85 f8 fa ff ff 	lea    -0x508(%rbp),%rax
    ae66:	48 89 85 10 ff ff ff 	mov    %rax,-0xf0(%rbp)
    ae6d:	48 8d 85 f8 fa ff ff 	lea    -0x508(%rbp),%rax
    ae74:	48 89 85 18 ff ff ff 	mov    %rax,-0xe8(%rbp)
    ae7b:	48 8d 85 f8 fa ff ff 	lea    -0x508(%rbp),%rax
    ae82:	48 89 85 20 ff ff ff 	mov    %rax,-0xe0(%rbp)
    ae89:	48 8d 85 f8 fa ff ff 	lea    -0x508(%rbp),%rax
    ae90:	48 89 85 28 ff ff ff 	mov    %rax,-0xd8(%rbp)
    ae97:	48 8d 85 f8 fa ff ff 	lea    -0x508(%rbp),%rax
    ae9e:	48 89 85 30 ff ff ff 	mov    %rax,-0xd0(%rbp)
    aea5:	48 8d 85 f8 fa ff ff 	lea    -0x508(%rbp),%rax
    aeac:	48 89 85 38 ff ff ff 	mov    %rax,-0xc8(%rbp)
    aeb3:	48 8d 85 f8 fa ff ff 	lea    -0x508(%rbp),%rax
    aeba:	48 89 85 40 ff ff ff 	mov    %rax,-0xc0(%rbp)
    aec1:	48 c7 85 48 ff ff ff 	movq   $0x0,-0xb8(%rbp)
    aec8:	00 00 00 00 
    aecc:	48 8d 85 f8 fa ff ff 	lea    -0x508(%rbp),%rax
    aed3:	48 89 85 50 ff ff ff 	mov    %rax,-0xb0(%rbp)
    aeda:	48 8d 85 f8 fa ff ff 	lea    -0x508(%rbp),%rax
    aee1:	48 89 85 58 ff ff ff 	mov    %rax,-0xa8(%rbp)
    aee8:	48 8d 85 f8 fa ff ff 	lea    -0x508(%rbp),%rax
    aeef:	48 89 85 60 ff ff ff 	mov    %rax,-0xa0(%rbp)
    aef6:	48 8d 85 f8 fa ff ff 	lea    -0x508(%rbp),%rax
    aefd:	48 89 85 68 ff ff ff 	mov    %rax,-0x98(%rbp)
    af04:	48 8d 85 f8 fa ff ff 	lea    -0x508(%rbp),%rax
    af0b:	48 89 85 70 ff ff ff 	mov    %rax,-0x90(%rbp)
    af12:	48 8d 85 f8 fa ff ff 	lea    -0x508(%rbp),%rax
    af19:	48 89 85 78 ff ff ff 	mov    %rax,-0x88(%rbp)
    af20:	48 8d 85 f8 fa ff ff 	lea    -0x508(%rbp),%rax
    af27:	48 89 45 80          	mov    %rax,-0x80(%rbp)
    af2b:	48 8d 85 f8 fa ff ff 	lea    -0x508(%rbp),%rax
    af32:	48 89 45 88          	mov    %rax,-0x78(%rbp)
    af36:	48 8d 85 f8 fa ff ff 	lea    -0x508(%rbp),%rax
    af3d:	48 89 45 90          	mov    %rax,-0x70(%rbp)
    af41:	48 8d 85 f8 fa ff ff 	lea    -0x508(%rbp),%rax
    af48:	48 89 45 98          	mov    %rax,-0x68(%rbp)
    af4c:	48 8d 85 f8 fa ff ff 	lea    -0x508(%rbp),%rax
    af53:	48 89 45 a0          	mov    %rax,-0x60(%rbp)
    af57:	48 8d 85 f8 fa ff ff 	lea    -0x508(%rbp),%rax
    af5e:	48 89 45 a8          	mov    %rax,-0x58(%rbp)
    af62:	48 8d 85 f8 fa ff ff 	lea    -0x508(%rbp),%rax
    af69:	48 89 45 b0          	mov    %rax,-0x50(%rbp)
    af6d:	48 8d 85 f8 fa ff ff 	lea    -0x508(%rbp),%rax
    af74:	48 89 45 b8          	mov    %rax,-0x48(%rbp)
    af78:	48 8d 85 f8 fa ff ff 	lea    -0x508(%rbp),%rax
    af7f:	48 89 45 c0          	mov    %rax,-0x40(%rbp)
    af83:	48 8d 85 f8 fa ff ff 	lea    -0x508(%rbp),%rax
    af8a:	48 89 45 c8          	mov    %rax,-0x38(%rbp)
    af8e:	be 05 00 00 00       	mov    $0x5,%esi
    af93:	bf dc 00 00 00       	mov    $0xdc,%edi
    af98:	e8 68 dc ff ff       	callq  8c05 <safe_lshift_func_uint8_t_u_s>
    af9d:	44 0f b6 e0          	movzbl %al,%r12d
    afa1:	8b 9d 84 fa ff ff    	mov    -0x57c(%rbp),%ebx
    afa7:	48 8b 05 02 3b 01 00 	mov    0x13b02(%rip),%rax        # 1eab0 <g_2630>
    afae:	48 39 85 50 fb ff ff 	cmp    %rax,-0x4b0(%rbp)
    afb5:	0f 94 c0             	sete   %al
    afb8:	0f b6 c0             	movzbl %al,%eax
    afbb:	48 39 85 38 fa ff ff 	cmp    %rax,-0x5c8(%rbp)
    afc2:	48 8b 85 38 fb ff ff 	mov    -0x4c8(%rbp),%rax
    afc9:	be 9b 49 eb bb       	mov    $0xbbeb499b,%esi
    afce:	89 c7                	mov    %eax,%edi
    afd0:	e8 50 df ff ff       	callq  8f25 <safe_div_func_uint32_t_u_u>
    afd5:	89 c0                	mov    %eax,%eax
    afd7:	48 33 85 38 fa ff ff 	xor    -0x5c8(%rbp),%rax
    afde:	48 3d 9f 34 00 00    	cmp    $0x349f,%rax
    afe4:	0f 9e c0             	setle  %al
    afe7:	0f b6 d0             	movzbl %al,%edx
    afea:	48 8b 05 9f 1c 01 00 	mov    0x11c9f(%rip),%rax        # 1cc90 <g_1697>
    aff1:	48 8b 00             	mov    (%rax),%rax
    aff4:	48 8b 00             	mov    (%rax),%rax
    aff7:	48 39 c2             	cmp    %rax,%rdx
    affa:	0f 95 c0             	setne  %al
    affd:	0f b6 c0             	movzbl %al,%eax
    b000:	be 04 00 00 00       	mov    $0x4,%esi
    b005:	89 c7                	mov    %eax,%edi
    b007:	e8 e2 d2 ff ff       	callq  82ee <safe_lshift_func_int8_t_s_u>
    b00c:	0f be c0             	movsbl %al,%eax
    b00f:	89 85 a0 fa ff ff    	mov    %eax,-0x560(%rbp)
    b015:	8b 85 98 fb ff ff    	mov    -0x468(%rbp),%eax
    b01b:	0f b7 c0             	movzwl %ax,%eax
    b01e:	25 f9 00 00 00       	and    $0xf9,%eax
    b023:	89 c7                	mov    %eax,%edi
    b025:	e8 bf dc ff ff       	callq  8ce9 <safe_unary_minus_func_uint16_t_u>
    b02a:	0f b7 c0             	movzwl %ax,%eax
    b02d:	89 de                	mov    %ebx,%esi
    b02f:	89 c7                	mov    %eax,%edi
    b031:	e8 88 dd ff ff       	callq  8dbe <safe_lshift_func_uint16_t_u_s>
    b036:	0f b7 c0             	movzwl %ax,%eax
    b039:	be 0c 00 00 00       	mov    $0xc,%esi
    b03e:	89 c7                	mov    %eax,%edi
    b040:	e8 35 de ff ff       	callq  8e7a <safe_rshift_func_uint16_t_u_u>
    b045:	48 8b 85 38 fa ff ff 	mov    -0x5c8(%rbp),%rax
    b04c:	83 f0 01             	xor    $0x1,%eax
    b04f:	89 c1                	mov    %eax,%ecx
    b051:	48 8b 05 48 03 01 00 	mov    0x10348(%rip),%rax        # 1b3a0 <g_2377>
    b058:	48 8d 15 f3 fc 00 00 	lea    0xfcf3(%rip),%rdx        # 1ad52 <g_1582>
    b05f:	0f b6 04 10          	movzbl (%rax,%rdx,1),%eax
    b063:	0f b6 c0             	movzbl %al,%eax
    b066:	89 ce                	mov    %ecx,%esi
    b068:	89 c7                	mov    %eax,%edi
    b06a:	e8 97 dd ff ff       	callq  8e06 <safe_lshift_func_uint16_t_u_u>
    b06f:	83 f0 7b             	xor    $0x7b,%eax
    b072:	0f be c0             	movsbl %al,%eax
    b075:	be 08 00 00 00       	mov    $0x8,%esi
    b07a:	89 c7                	mov    %eax,%edi
    b07c:	e8 71 d1 ff ff       	callq  81f2 <safe_sub_func_int8_t_s_s>
    b081:	0f be c0             	movsbl %al,%eax
    b084:	44 09 e0             	or     %r12d,%eax
    b087:	89 85 9c fa ff ff    	mov    %eax,-0x564(%rbp)
    b08d:	8b 85 9c fa ff ff    	mov    -0x564(%rbp),%eax
    b093:	21 85 a4 fa ff ff    	and    %eax,-0x55c(%rbp)
    b099:	48 8b 05 28 19 01 00 	mov    0x11928(%rip),%rax        # 1c9c8 <g_595>
    b0a0:	48 8b 00             	mov    (%rax),%rax
    b0a3:	eb 66                	jmp    b10b <func_33+0xed3>
    b0a5:	48 8b 85 48 fb ff ff 	mov    -0x4b8(%rbp),%rax
    b0ac:	89 85 9c fa ff ff    	mov    %eax,-0x564(%rbp)
    b0b2:	83 85 58 fa ff ff 01 	addl   $0x1,-0x5a8(%rbp)
    b0b9:	83 bd 58 fa ff ff 1a 	cmpl   $0x1a,-0x5a8(%rbp)
    b0c0:	0f 8e b5 f5 ff ff    	jle    a67b <func_33+0x443>
    b0c6:	8b 05 dc ef 00 00    	mov    0xefdc(%rip),%eax        # 1a0a8 <g_207>
    b0cc:	48 98                	cltq   
    b0ce:	be 09 00 00 00       	mov    $0x9,%esi
    b0d3:	48 89 c7             	mov    %rax,%rdi
    b0d6:	e8 66 d7 ff ff       	callq  8841 <safe_add_func_int64_t_s_s>
    b0db:	89 05 c7 ef 00 00    	mov    %eax,0xefc7(%rip)        # 1a0a8 <g_207>
    b0e1:	8b 05 c1 ef 00 00    	mov    0xefc1(%rip),%eax        # 1a0a8 <g_207>
    b0e7:	85 c0                	test   %eax,%eax
    b0e9:	0f 84 c5 f4 ff ff    	je     a5b4 <func_33+0x37c>
    b0ef:	eb 09                	jmp    b0fa <func_33+0xec2>
    b0f1:	48 8b 85 e8 fb ff ff 	mov    -0x418(%rbp),%rax
    b0f8:	eb 11                	jmp    b10b <func_33+0xed3>
    b0fa:	83 ad 68 fa ff ff 01 	subl   $0x1,-0x598(%rbp)
    b101:	48 8b 05 38 1f 01 00 	mov    0x11f38(%rip),%rax        # 1d040 <g_2123>
    b108:	48 8b 00             	mov    (%rax),%rax
    b10b:	48 8b 4d d8          	mov    -0x28(%rbp),%rcx
    b10f:	64 48 33 0c 25 28 00 	xor    %fs:0x28,%rcx
    b116:	00 00 
    b118:	74 05                	je     b11f <func_33+0xee7>
    b11a:	e8 51 cf ff ff       	callq  8070 <__stack_chk_fail@plt>
    b11f:	48 81 c4 b8 05 00 00 	add    $0x5b8,%rsp
    b126:	5b                   	pop    %rbx
    b127:	41 5c                	pop    %r12
    b129:	41 5d                	pop    %r13
    b12b:	5d                   	pop    %rbp
    b12c:	c3                   	retq   

000000000000b12d <func_35>:
    b12d:	f3 0f 1e fa          	endbr64 
    b131:	55                   	push   %rbp
    b132:	48 89 e5             	mov    %rsp,%rbp
    b135:	41 57                	push   %r15
    b137:	41 56                	push   %r14
    b139:	41 55                	push   %r13
    b13b:	41 54                	push   %r12
    b13d:	53                   	push   %rbx
    b13e:	48 81 ec 00 10 00 00 	sub    $0x1000,%rsp
    b145:	48 83 0c 24 00       	orq    $0x0,(%rsp)
    b14a:	48 83 ec 08          	sub    $0x8,%rsp
    b14e:	48 89 bd f8 ef ff ff 	mov    %rdi,-0x1008(%rbp)
    b155:	48 89 b5 f0 ef ff ff 	mov    %rsi,-0x1010(%rbp)
    b15c:	48 89 95 e8 ef ff ff 	mov    %rdx,-0x1018(%rbp)
    b163:	89 8d e4 ef ff ff    	mov    %ecx,-0x101c(%rbp)
    b169:	4c 89 85 d8 ef ff ff 	mov    %r8,-0x1028(%rbp)
    b170:	64 48 8b 04 25 28 00 	mov    %fs:0x28,%rax
    b177:	00 00 
    b179:	48 89 45 c8          	mov    %rax,-0x38(%rbp)
    b17d:	31 c0                	xor    %eax,%eax
    b17f:	48 c7 85 a0 f0 ff ff 	movq   $0x0,-0xf60(%rbp)
    b186:	00 00 00 00 
    b18a:	48 8d 85 a0 f0 ff ff 	lea    -0xf60(%rbp),%rax
    b191:	48 89 85 28 f1 ff ff 	mov    %rax,-0xed8(%rbp)
    b198:	c7 85 28 f0 ff ff 89 	movl   $0xa68bba89,-0xfd8(%rbp)
    b19f:	ba 8b a6 
    b1a2:	66 c7 85 0e f0 ff ff 	movw   $0x6,-0xff2(%rbp)
    b1a9:	06 00 
    b1ab:	48 8d 05 ee ee 00 00 	lea    0xeeee(%rip),%rax        # 1a0a0 <g_183>
    b1b2:	48 89 85 a8 f0 ff ff 	mov    %rax,-0xf58(%rbp)
    b1b9:	48 8d 85 a8 f0 ff ff 	lea    -0xf58(%rbp),%rax
    b1c0:	48 89 85 b0 f0 ff ff 	mov    %rax,-0xf50(%rbp)
    b1c7:	48 8d 85 b0 f0 ff ff 	lea    -0xf50(%rbp),%rax
    b1ce:	48 89 85 30 f1 ff ff 	mov    %rax,-0xed0(%rbp)
    b1d5:	48 8d 05 7c 18 01 00 	lea    0x1187c(%rip),%rax        # 1ca58 <g_770>
    b1dc:	48 89 85 b8 f0 ff ff 	mov    %rax,-0xf48(%rbp)
    b1e3:	48 8d 85 b8 f0 ff ff 	lea    -0xf48(%rbp),%rax
    b1ea:	48 89 85 38 f1 ff ff 	mov    %rax,-0xec8(%rbp)
    b1f1:	c7 85 2c f0 ff ff fe 	movl   $0x777fc3fe,-0xfd4(%rbp)
    b1f8:	c3 7f 77 
    b1fb:	48 8d 85 00 f6 ff ff 	lea    -0xa00(%rbp),%rax
    b202:	48 8d 15 37 0b 01 00 	lea    0x10b37(%rip),%rdx        # 1bd40 <g_2887+0x400>
    b209:	b9 48 00 00 00       	mov    $0x48,%ecx
    b20e:	48 89 c7             	mov    %rax,%rdi
    b211:	48 89 d6             	mov    %rdx,%rsi
    b214:	f3 48 a5             	rep movsq %ds:(%rsi),%es:(%rdi)
    b217:	48 8d 05 6a 1a 01 00 	lea    0x11a6a(%rip),%rax        # 1cc88 <g_1698>
    b21e:	48 89 85 20 f1 ff ff 	mov    %rax,-0xee0(%rbp)
    b225:	c7 85 24 f0 ff ff 0c 	movl   $0x19f4420c,-0xfdc(%rbp)
    b22c:	42 f4 19 
    b22f:	c7 85 14 f0 ff ff 8d 	movl   $0x19a48a8d,-0xfec(%rbp)
    b236:	8a a4 19 
    b239:	c7 85 20 f0 ff ff 00 	movl   $0x0,-0xfe0(%rbp)
    b240:	00 00 00 
    b243:	c7 85 18 f0 ff ff bb 	movl   $0x899bc1bb,-0xfe8(%rbp)
    b24a:	c1 9b 89 
    b24d:	48 b8 53 d7 05 61 4e 	movabs $0x1585644e6105d753,%rax
    b254:	64 85 15 
    b257:	48 89 85 18 f1 ff ff 	mov    %rax,-0xee8(%rbp)
    b25e:	48 c7 85 c0 f0 ff ff 	movq   $0x0,-0xf40(%rbp)
    b265:	00 00 00 00 
    b269:	48 8d 85 c0 f0 ff ff 	lea    -0xf40(%rbp),%rax
    b270:	48 89 85 90 f3 ff ff 	mov    %rax,-0xc70(%rbp)
    b277:	48 8d 85 c0 f0 ff ff 	lea    -0xf40(%rbp),%rax
    b27e:	48 89 85 98 f3 ff ff 	mov    %rax,-0xc68(%rbp)
    b285:	48 8d 85 c0 f0 ff ff 	lea    -0xf40(%rbp),%rax
    b28c:	48 89 85 a0 f3 ff ff 	mov    %rax,-0xc60(%rbp)
    b293:	48 8d 85 c0 f0 ff ff 	lea    -0xf40(%rbp),%rax
    b29a:	48 89 85 a8 f3 ff ff 	mov    %rax,-0xc58(%rbp)
    b2a1:	48 8d 85 c0 f0 ff ff 	lea    -0xf40(%rbp),%rax
    b2a8:	48 89 85 b0 f3 ff ff 	mov    %rax,-0xc50(%rbp)
    b2af:	48 8d 85 c0 f0 ff ff 	lea    -0xf40(%rbp),%rax
    b2b6:	48 89 85 b8 f3 ff ff 	mov    %rax,-0xc48(%rbp)
    b2bd:	48 8d 85 c0 f0 ff ff 	lea    -0xf40(%rbp),%rax
    b2c4:	48 89 85 c0 f3 ff ff 	mov    %rax,-0xc40(%rbp)
    b2cb:	48 8d 85 c0 f0 ff ff 	lea    -0xf40(%rbp),%rax
    b2d2:	48 89 85 c8 f3 ff ff 	mov    %rax,-0xc38(%rbp)
    b2d9:	c7 85 60 f0 ff ff 01 	movl   $0x1,-0xfa0(%rbp)
    b2e0:	00 00 00 
    b2e3:	66 c7 85 10 f4 ff ff 	movw   $0x0,-0xbf0(%rbp)
    b2ea:	00 00 
    b2ec:	66 c7 85 12 f4 ff ff 	movw   $0xdea1,-0xbee(%rbp)
    b2f3:	a1 de 
    b2f5:	66 c7 85 14 f4 ff ff 	movw   $0x5c5f,-0xbec(%rbp)
    b2fc:	5f 5c 
    b2fe:	66 c7 85 16 f4 ff ff 	movw   $0x0,-0xbea(%rbp)
    b305:	00 00 
    b307:	66 c7 85 18 f4 ff ff 	movw   $0x0,-0xbe8(%rbp)
    b30e:	00 00 
    b310:	66 c7 85 1a f4 ff ff 	movw   $0x5c5f,-0xbe6(%rbp)
    b317:	5f 5c 
    b319:	66 c7 85 1c f4 ff ff 	movw   $0x0,-0xbe4(%rbp)
    b320:	00 00 
    b322:	66 c7 85 1e f4 ff ff 	movw   $0x0,-0xbe2(%rbp)
    b329:	00 00 
    b32b:	66 c7 85 20 f4 ff ff 	movw   $0x0,-0xbe0(%rbp)
    b332:	00 00 
    b334:	66 c7 85 22 f4 ff ff 	movw   $0x0,-0xbde(%rbp)
    b33b:	00 00 
    b33d:	66 c7 85 24 f4 ff ff 	movw   $0x0,-0xbdc(%rbp)
    b344:	00 00 
    b346:	66 c7 85 26 f4 ff ff 	movw   $0x0,-0xbda(%rbp)
    b34d:	00 00 
    b34f:	66 c7 85 28 f4 ff ff 	movw   $0xdea1,-0xbd8(%rbp)
    b356:	a1 de 
    b358:	66 c7 85 2a f4 ff ff 	movw   $0x0,-0xbd6(%rbp)
    b35f:	00 00 
    b361:	66 c7 85 2c f4 ff ff 	movw   $0xdea1,-0xbd4(%rbp)
    b368:	a1 de 
    b36a:	66 c7 85 2e f4 ff ff 	movw   $0x5c5f,-0xbd2(%rbp)
    b371:	5f 5c 
    b373:	66 c7 85 30 f4 ff ff 	movw   $0x0,-0xbd0(%rbp)
    b37a:	00 00 
    b37c:	66 c7 85 32 f4 ff ff 	movw   $0x0,-0xbce(%rbp)
    b383:	00 00 
    b385:	66 c7 85 34 f4 ff ff 	movw   $0xfffb,-0xbcc(%rbp)
    b38c:	fb ff 
    b38e:	66 c7 85 36 f4 ff ff 	movw   $0xdea1,-0xbca(%rbp)
    b395:	a1 de 
    b397:	66 c7 85 38 f4 ff ff 	movw   $0xdea1,-0xbc8(%rbp)
    b39e:	a1 de 
    b3a0:	66 c7 85 3a f4 ff ff 	movw   $0xfffb,-0xbc6(%rbp)
    b3a7:	fb ff 
    b3a9:	66 c7 85 3c f4 ff ff 	movw   $0x0,-0xbc4(%rbp)
    b3b0:	00 00 
    b3b2:	66 c7 85 3e f4 ff ff 	movw   $0x0,-0xbc2(%rbp)
    b3b9:	00 00 
    b3bb:	66 c7 85 40 f4 ff ff 	movw   $0x0,-0xbc0(%rbp)
    b3c2:	00 00 
    b3c4:	66 c7 85 42 f4 ff ff 	movw   $0xfffb,-0xbbe(%rbp)
    b3cb:	fb ff 
    b3cd:	66 c7 85 44 f4 ff ff 	movw   $0x0,-0xbbc(%rbp)
    b3d4:	00 00 
    b3d6:	66 c7 85 46 f4 ff ff 	movw   $0xfffb,-0xbba(%rbp)
    b3dd:	fb ff 
    b3df:	66 c7 85 48 f4 ff ff 	movw   $0x0,-0xbb8(%rbp)
    b3e6:	00 00 
    b3e8:	66 c7 85 4a f4 ff ff 	movw   $0x5c5f,-0xbb6(%rbp)
    b3ef:	5f 5c 
    b3f1:	66 c7 85 4c f4 ff ff 	movw   $0xfffb,-0xbb4(%rbp)
    b3f8:	fb ff 
    b3fa:	66 c7 85 4e f4 ff ff 	movw   $0x0,-0xbb2(%rbp)
    b401:	00 00 
    b403:	66 c7 85 50 f4 ff ff 	movw   $0x5c5f,-0xbb0(%rbp)
    b40a:	5f 5c 
    b40c:	66 c7 85 52 f4 ff ff 	movw   $0x5c5f,-0xbae(%rbp)
    b413:	5f 5c 
    b415:	66 c7 85 54 f4 ff ff 	movw   $0x0,-0xbac(%rbp)
    b41c:	00 00 
    b41e:	66 c7 85 56 f4 ff ff 	movw   $0xfffb,-0xbaa(%rbp)
    b425:	fb ff 
    b427:	48 c7 85 48 f1 ff ff 	movq   $0x0,-0xeb8(%rbp)
    b42e:	00 00 00 00 
    b432:	48 8d 05 33 fe 00 00 	lea    0xfe33(%rip),%rax        # 1b26c <g_1601+0xc>
    b439:	48 89 85 50 f1 ff ff 	mov    %rax,-0xeb0(%rbp)
    b440:	c7 85 64 f0 ff ff 00 	movl   $0x0,-0xf9c(%rbp)
    b447:	00 00 00 
    b44a:	48 c7 85 58 f1 ff ff 	movq   $0xfffffffffffffffa,-0xea8(%rbp)
    b451:	fa ff ff ff 
    b455:	48 b8 0b ff 0b 0b ff 	movabs $0xff0b0bff0b0bff0b,%rax
    b45c:	0b 0b ff 
    b45f:	48 89 85 a0 f2 ff ff 	mov    %rax,-0xd60(%rbp)
    b466:	48 b8 ff 0b 0b ff 0b 	movabs $0xbff0b0bff0b0bff,%rax
    b46d:	0b ff 0b 
    b470:	48 89 85 a8 f2 ff ff 	mov    %rax,-0xd58(%rbp)
    b477:	48 8d 85 18 f0 ff ff 	lea    -0xfe8(%rbp),%rax
    b47e:	48 89 85 60 f1 ff ff 	mov    %rax,-0xea0(%rbp)
    b485:	c6 85 0b f0 ff ff 1c 	movb   $0x1c,-0xff5(%rbp)
    b48c:	c7 85 30 f0 ff ff 00 	movl   $0x0,-0xfd0(%rbp)
    b493:	00 00 00 
    b496:	eb 1b                	jmp    b4b3 <func_35+0x386>
    b498:	8b 85 30 f0 ff ff    	mov    -0xfd0(%rbp),%eax
    b49e:	48 98                	cltq   
    b4a0:	48 c7 84 c5 30 f3 ff 	movq   $0x0,-0xcd0(%rbp,%rax,8)
    b4a7:	ff 00 00 00 00 
    b4ac:	83 85 30 f0 ff ff 01 	addl   $0x1,-0xfd0(%rbp)
    b4b3:	83 bd 30 f0 ff ff 05 	cmpl   $0x5,-0xfd0(%rbp)
    b4ba:	7e dc                	jle    b498 <func_35+0x36b>
    b4bc:	c7 85 30 f0 ff ff 00 	movl   $0x0,-0xfd0(%rbp)
    b4c3:	00 00 00 
    b4c6:	eb 1a                	jmp    b4e2 <func_35+0x3b5>
    b4c8:	8b 85 30 f0 ff ff    	mov    -0xfd0(%rbp),%eax
    b4ce:	48 98                	cltq   
    b4d0:	c7 84 85 94 f2 ff ff 	movl   $0x30c7a2d7,-0xd6c(%rbp,%rax,4)
    b4d7:	d7 a2 c7 30 
    b4db:	83 85 30 f0 ff ff 01 	addl   $0x1,-0xfd0(%rbp)
    b4e2:	83 bd 30 f0 ff ff 02 	cmpl   $0x2,-0xfd0(%rbp)
    b4e9:	7e dd                	jle    b4c8 <func_35+0x39b>
    b4eb:	8b 9d e4 ef ff ff    	mov    -0x101c(%rbp),%ebx
    b4f1:	48 8d 85 a0 f0 ff ff 	lea    -0xf60(%rbp),%rax
    b4f8:	48 89 05 a1 35 01 00 	mov    %rax,0x135a1(%rip)        # 1eaa0 <g_1914>
    b4ff:	48 8b 05 3a 14 01 00 	mov    0x1143a(%rip),%rax        # 1c940 <g_284>
    b506:	4c 8b 20             	mov    (%rax),%r12
    b509:	48 8b 05 28 15 01 00 	mov    0x11528(%rip),%rax        # 1ca38 <g_649>
    b510:	0f b6 00             	movzbl (%rax),%eax
    b513:	0f be c0             	movsbl %al,%eax
    b516:	be 03 00 00 00       	mov    $0x3,%esi
    b51b:	89 c7                	mov    %eax,%edi
    b51d:	e8 13 ce ff ff       	callq  8335 <safe_rshift_func_int8_t_s_s>
    b522:	0f be d0             	movsbl %al,%edx
    b525:	48 8b 8d b0 f0 ff ff 	mov    -0xf50(%rbp),%rcx
    b52c:	48 8b 85 30 f1 ff ff 	mov    -0xed0(%rbp),%rax
    b533:	48 89 08             	mov    %rcx,(%rax)
    b536:	48 8b 85 30 f1 ff ff 	mov    -0xed0(%rbp),%rax
    b53d:	48 8b 08             	mov    (%rax),%rcx
    b540:	48 8b 05 b9 17 01 00 	mov    0x117b9(%rip),%rax        # 1cd00 <g_1920>
    b547:	48 39 c1             	cmp    %rax,%rcx
    b54a:	0f 95 c0             	setne  %al
    b54d:	0f b6 c0             	movzbl %al,%eax
    b550:	89 d6                	mov    %edx,%esi
    b552:	89 c7                	mov    %eax,%edi
    b554:	e8 ac d0 ff ff       	callq  8605 <safe_sub_func_int32_t_s_s>
    b559:	48 98                	cltq   
    b55b:	49 39 c4             	cmp    %rax,%r12
    b55e:	0f 9c c0             	setl   %al
    b561:	44 0f b6 e0          	movzbl %al,%r12d
    b565:	8b 95 28 f0 ff ff    	mov    -0xfd8(%rbp),%edx
    b56b:	8b 85 28 f0 ff ff    	mov    -0xfd8(%rbp),%eax
    b571:	89 d6                	mov    %edx,%esi
    b573:	89 c7                	mov    %eax,%edi
    b575:	e8 52 d1 ff ff       	callq  86cc <safe_mod_func_int32_t_s_s>
    b57a:	44 21 e0             	and    %r12d,%eax
    b57d:	89 c7                	mov    %eax,%edi
    b57f:	e8 22 d9 ff ff       	callq  8ea6 <safe_unary_minus_func_uint32_t_u>
    b584:	89 c2                	mov    %eax,%edx
    b586:	48 8b 05 bb 14 01 00 	mov    0x114bb(%rip),%rax        # 1ca48 <g_647>
    b58d:	48 8b 00             	mov    (%rax),%rax
    b590:	48 8b 00             	mov    (%rax),%rax
    b593:	88 10                	mov    %dl,(%rax)
    b595:	0f b6 00             	movzbl (%rax),%eax
    b598:	84 c0                	test   %al,%al
    b59a:	75 08                	jne    b5a4 <func_35+0x477>
    b59c:	66 83 bd 0e f0 ff ff 	cmpw   $0x0,-0xff2(%rbp)
    b5a3:	00 
    b5a4:	89 de                	mov    %ebx,%esi
    b5a6:	bf 01 00 00 00       	mov    $0x1,%edi
    b5ab:	e8 7a cf ff ff       	callq  852a <safe_rshift_func_int16_t_s_s>
    b5b0:	98                   	cwtl   
    b5b1:	be f9 ff ff ff       	mov    $0xfffffff9,%esi
    b5b6:	89 c7                	mov    %eax,%edi
    b5b8:	e8 0f d1 ff ff       	callq  86cc <safe_mod_func_int32_t_s_s>
    b5bd:	98                   	cwtl   
    b5be:	be 00 00 00 00       	mov    $0x0,%esi
    b5c3:	89 c7                	mov    %eax,%edi
    b5c5:	e8 2b ce ff ff       	callq  83f5 <safe_mul_func_int16_t_s_s>
    b5ca:	66 85 c0             	test   %ax,%ax
    b5cd:	0f 84 96 01 00 00    	je     b769 <func_35+0x63c>
    b5d3:	c7 85 8c f0 ff ff 00 	movl   $0x0,-0xf74(%rbp)
    b5da:	00 00 00 
    b5dd:	48 8b 85 f8 ef ff ff 	mov    -0x1008(%rbp),%rax
    b5e4:	8b 00                	mov    (%rax),%eax
    b5e6:	85 c0                	test   %eax,%eax
    b5e8:	74 0b                	je     b5f5 <func_35+0x4c8>
    b5ea:	8b 85 e4 ef ff ff    	mov    -0x101c(%rbp),%eax
    b5f0:	e9 2e 2c 00 00       	jmpq   e223 <func_35+0x30f6>
    b5f5:	48 8d 85 40 f8 ff ff 	lea    -0x7c0(%rbp),%rax
    b5fc:	48 8d 15 fd a1 00 00 	lea    0xa1fd(%rip),%rdx        # 15800 <g_2427+0x790>
    b603:	b9 30 00 00 00       	mov    $0x30,%ecx
    b608:	48 89 c7             	mov    %rax,%rdi
    b60b:	48 89 d6             	mov    %rdx,%rsi
    b60e:	f3 48 a5             	rep movsq %ds:(%rsi),%es:(%rdi)
    b611:	48 8d 85 60 f4 ff ff 	lea    -0xba0(%rbp),%rax
    b618:	48 83 c0 08          	add    $0x8,%rax
    b61c:	48 89 85 08 f2 ff ff 	mov    %rax,-0xdf8(%rbp)
    b623:	48 8d 05 3e ea 00 00 	lea    0xea3e(%rip),%rax        # 1a068 <g_109>
    b62a:	48 89 85 10 f2 ff ff 	mov    %rax,-0xdf0(%rbp)
    b631:	48 b8 20 04 5b ba c9 	movabs $0xa61940c9ba5b0420,%rax
    b638:	40 19 a6 
    b63b:	48 89 85 c0 f4 ff ff 	mov    %rax,-0xb40(%rbp)
    b642:	48 89 85 c8 f4 ff ff 	mov    %rax,-0xb38(%rbp)
    b649:	48 bb fc 25 07 72 d8 	movabs $0xc72fa5d8720725fc,%rbx
    b650:	a5 2f c7 
    b653:	48 89 9d d0 f4 ff ff 	mov    %rbx,-0xb30(%rbp)
    b65a:	48 89 85 d8 f4 ff ff 	mov    %rax,-0xb28(%rbp)
    b661:	48 89 85 e0 f4 ff ff 	mov    %rax,-0xb20(%rbp)
    b668:	48 89 9d e8 f4 ff ff 	mov    %rbx,-0xb18(%rbp)
    b66f:	48 89 85 f0 f4 ff ff 	mov    %rax,-0xb10(%rbp)
    b676:	48 89 85 f8 f4 ff ff 	mov    %rax,-0xb08(%rbp)
    b67d:	48 89 9d 00 f5 ff ff 	mov    %rbx,-0xb00(%rbp)
    b684:	48 89 85 08 f5 ff ff 	mov    %rax,-0xaf8(%rbp)
    b68b:	48 89 85 10 f5 ff ff 	mov    %rax,-0xaf0(%rbp)
    b692:	48 89 9d 18 f5 ff ff 	mov    %rbx,-0xae8(%rbp)
    b699:	48 89 85 20 f5 ff ff 	mov    %rax,-0xae0(%rbp)
    b6a0:	48 89 85 28 f5 ff ff 	mov    %rax,-0xad8(%rbp)
    b6a7:	48 8d 05 aa e9 00 00 	lea    0xe9aa(%rip),%rax        # 1a058 <g_62+0x18>
    b6ae:	48 89 85 18 f2 ff ff 	mov    %rax,-0xde8(%rbp)
    b6b5:	c7 85 34 f0 ff ff 00 	movl   $0x0,-0xfcc(%rbp)
    b6bc:	00 00 00 
    b6bf:	eb 1e                	jmp    b6df <func_35+0x5b2>
    b6c1:	8b 85 34 f0 ff ff    	mov    -0xfcc(%rbp),%eax
    b6c7:	48 98                	cltq   
    b6c9:	48 8d 15 d8 ea 00 00 	lea    0xead8(%rip),%rdx        # 1a1a8 <g_470>
    b6d0:	48 89 94 c5 60 f4 ff 	mov    %rdx,-0xba0(%rbp,%rax,8)
    b6d7:	ff 
    b6d8:	83 85 34 f0 ff ff 01 	addl   $0x1,-0xfcc(%rbp)
    b6df:	83 bd 34 f0 ff ff 01 	cmpl   $0x1,-0xfcc(%rbp)
    b6e6:	7e d9                	jle    b6c1 <func_35+0x594>
    b6e8:	8b 9d 8c f0 ff ff    	mov    -0xf74(%rbp),%ebx
    b6ee:	83 bd e4 ef ff ff 00 	cmpl   $0x0,-0x101c(%rbp)
    b6f5:	0f 94 c0             	sete   %al
    b6f8:	0f b6 c0             	movzbl %al,%eax
    b6fb:	48 be 67 8d c3 14 dc 	movabs $0xe5f58cdc14c38d67,%rsi
    b702:	8c f5 e5 
    b705:	48 89 c7             	mov    %rax,%rdi
    b708:	e8 ea d2 ff ff       	callq  89f7 <safe_div_func_int64_t_s_s>
    b70d:	48 89 de             	mov    %rbx,%rsi
    b710:	48 89 c7             	mov    %rax,%rdi
    b713:	e8 68 d9 ff ff       	callq  9080 <safe_mod_func_uint64_t_u_u>
    b718:	8b 95 54 f8 ff ff    	mov    -0x7ac(%rbp),%edx
    b71e:	89 d2                	mov    %edx,%edx
    b720:	48 39 d0             	cmp    %rdx,%rax
    b723:	83 bd e4 ef ff ff 07 	cmpl   $0x7,-0x101c(%rbp)
    b72a:	0f 94 c0             	sete   %al
    b72d:	0f b6 c8             	movzbl %al,%ecx
    b730:	48 8b 05 19 12 01 00 	mov    0x11219(%rip),%rax        # 1c950 <g_372>
    b737:	8b 10                	mov    (%rax),%edx
    b739:	48 8b 05 10 12 01 00 	mov    0x11210(%rip),%rax        # 1c950 <g_372>
    b740:	21 ca                	and    %ecx,%edx
    b742:	89 10                	mov    %edx,(%rax)
    b744:	48 8b 05 d5 14 01 00 	mov    0x114d5(%rip),%rax        # 1cc20 <g_1350>
    b74b:	48 8b 00             	mov    (%rax),%rax
    b74e:	8b 10                	mov    (%rax),%edx
    b750:	48 8b 85 18 f2 ff ff 	mov    -0xde8(%rbp),%rax
    b757:	8b 00                	mov    (%rax),%eax
    b759:	21 c2                	and    %eax,%edx
    b75b:	48 8b 85 18 f2 ff ff 	mov    -0xde8(%rbp),%rax
    b762:	89 10                	mov    %edx,(%rax)
    b764:	e9 8e 16 00 00       	jmpq   cdf7 <func_35+0x1cca>
    b769:	c7 85 68 f0 ff ff 01 	movl   $0x1,-0xf98(%rbp)
    b770:	00 00 00 
    b773:	c7 85 38 f0 ff ff f8 	movl   $0xfffffff8,-0xfc8(%rbp)
    b77a:	ff ff ff 
    b77d:	48 8d 05 04 15 01 00 	lea    0x11504(%rip),%rax        # 1cc88 <g_1698>
    b784:	48 89 85 c8 f0 ff ff 	mov    %rax,-0xf38(%rbp)
    b78b:	48 8d 85 c8 f0 ff ff 	lea    -0xf38(%rbp),%rax
    b792:	48 89 85 d0 f3 ff ff 	mov    %rax,-0xc30(%rbp)
    b799:	48 8d 85 c8 f0 ff ff 	lea    -0xf38(%rbp),%rax
    b7a0:	48 89 85 d8 f3 ff ff 	mov    %rax,-0xc28(%rbp)
    b7a7:	48 8d 85 c8 f0 ff ff 	lea    -0xf38(%rbp),%rax
    b7ae:	48 89 85 e0 f3 ff ff 	mov    %rax,-0xc20(%rbp)
    b7b5:	48 8d 85 c8 f0 ff ff 	lea    -0xf38(%rbp),%rax
    b7bc:	48 89 85 e8 f3 ff ff 	mov    %rax,-0xc18(%rbp)
    b7c3:	48 8d 85 c8 f0 ff ff 	lea    -0xf38(%rbp),%rax
    b7ca:	48 89 85 f0 f3 ff ff 	mov    %rax,-0xc10(%rbp)
    b7d1:	48 8d 85 c8 f0 ff ff 	lea    -0xf38(%rbp),%rax
    b7d8:	48 89 85 f8 f3 ff ff 	mov    %rax,-0xc08(%rbp)
    b7df:	48 8d 85 c8 f0 ff ff 	lea    -0xf38(%rbp),%rax
    b7e6:	48 89 85 00 f4 ff ff 	mov    %rax,-0xc00(%rbp)
    b7ed:	48 8d 85 c8 f0 ff ff 	lea    -0xf38(%rbp),%rax
    b7f4:	48 89 85 08 f4 ff ff 	mov    %rax,-0xbf8(%rbp)
    b7fb:	48 8d 05 a2 e8 00 00 	lea    0xe8a2(%rip),%rax        # 1a0a4 <g_206>
    b802:	48 89 85 d0 f0 ff ff 	mov    %rax,-0xf30(%rbp)
    b809:	c7 85 3c f0 ff ff 5f 	movl   $0xd726045f,-0xfc4(%rbp)
    b810:	04 26 d7 
    b813:	48 8d 05 36 f5 00 00 	lea    0xf536(%rip),%rax        # 1ad50 <g_1371>
    b81a:	48 89 85 d8 f0 ff ff 	mov    %rax,-0xf28(%rbp)
    b821:	48 8d 85 d8 f0 ff ff 	lea    -0xf28(%rbp),%rax
    b828:	48 89 85 68 f1 ff ff 	mov    %rax,-0xe98(%rbp)
    b82f:	c7 85 6c f0 ff ff e8 	movl   $0xe77a0de8,-0xf94(%rbp)
    b836:	0d 7a e7 
    b839:	48 8d 85 c0 f4 ff ff 	lea    -0xb40(%rbp),%rax
    b840:	48 8d 15 39 a1 00 00 	lea    0xa139(%rip),%rdx        # 15980 <g_2427+0x910>
    b847:	b9 28 00 00 00       	mov    $0x28,%ecx
    b84c:	48 89 c7             	mov    %rax,%rdi
    b84f:	48 89 d6             	mov    %rdx,%rsi
    b852:	f3 48 a5             	rep movsq %ds:(%rsi),%es:(%rdi)
    b855:	c7 85 1c f0 ff ff 00 	movl   $0x0,-0xfe4(%rbp)
    b85c:	00 00 00 
    b85f:	48 8d 05 38 e8 00 00 	lea    0xe838(%rip),%rax        # 1a09e <g_169>
    b866:	48 89 85 70 f1 ff ff 	mov    %rax,-0xe90(%rbp)
    b86d:	48 8d 05 c4 11 01 00 	lea    0x111c4(%rip),%rax        # 1ca38 <g_649>
    b874:	48 89 85 e0 f0 ff ff 	mov    %rax,-0xf20(%rbp)
    b87b:	48 8d 85 e0 f0 ff ff 	lea    -0xf20(%rbp),%rax
    b882:	48 89 85 e8 f0 ff ff 	mov    %rax,-0xf18(%rbp)
    b889:	48 8d 85 e8 f0 ff ff 	lea    -0xf18(%rbp),%rax
    b890:	48 89 85 78 f1 ff ff 	mov    %rax,-0xe88(%rbp)
    b897:	48 8d 85 a0 f0 ff ff 	lea    -0xf60(%rbp),%rax
    b89e:	48 89 85 80 f1 ff ff 	mov    %rax,-0xe80(%rbp)
    b8a5:	48 8d 05 9c 11 01 00 	lea    0x1119c(%rip),%rax        # 1ca48 <g_647>
    b8ac:	48 89 85 f0 f0 ff ff 	mov    %rax,-0xf10(%rbp)
    b8b3:	48 8d 85 f0 f0 ff ff 	lea    -0xf10(%rbp),%rax
    b8ba:	48 89 85 88 f1 ff ff 	mov    %rax,-0xe78(%rbp)
    b8c1:	48 8d 85 14 f0 ff ff 	lea    -0xfec(%rbp),%rax
    b8c8:	48 89 85 90 f1 ff ff 	mov    %rax,-0xe70(%rbp)
    b8cf:	c7 85 40 f0 ff ff 00 	movl   $0x0,-0xfc0(%rbp)
    b8d6:	00 00 00 
    b8d9:	eb 1e                	jmp    b8f9 <func_35+0x7cc>
    b8db:	8b 85 40 f0 ff ff    	mov    -0xfc0(%rbp),%eax
    b8e1:	48 98                	cltq   
    b8e3:	48 8d 95 b8 f0 ff ff 	lea    -0xf48(%rbp),%rdx
    b8ea:	48 89 94 c5 00 f3 ff 	mov    %rdx,-0xd00(%rbp,%rax,8)
    b8f1:	ff 
    b8f2:	83 85 40 f0 ff ff 01 	addl   $0x1,-0xfc0(%rbp)
    b8f9:	83 bd 40 f0 ff ff 04 	cmpl   $0x4,-0xfc0(%rbp)
    b900:	7e d9                	jle    b8db <func_35+0x7ae>
    b902:	8b 85 68 f0 ff ff    	mov    -0xf98(%rbp),%eax
    b908:	0f b6 d8             	movzbl %al,%ebx
    b90b:	48 8b 05 ee 13 01 00 	mov    0x113ee(%rip),%rax        # 1cd00 <g_1920>
    b912:	48 8b 00             	mov    (%rax),%rax
    b915:	be 07 00 00 00       	mov    $0x7,%esi
    b91a:	bf ff 00 00 00       	mov    $0xff,%edi
    b91f:	e8 9a d3 ff ff       	callq  8cbe <safe_rshift_func_uint8_t_u_u>
    b924:	8b 85 2c f0 ff ff    	mov    -0xfd4(%rbp),%eax
    b92a:	83 f0 01             	xor    $0x1,%eax
    b92d:	0f b6 c0             	movzbl %al,%eax
    b930:	89 de                	mov    %ebx,%esi
    b932:	89 c7                	mov    %eax,%edi
    b934:	e8 a2 d2 ff ff       	callq  8bdb <safe_div_func_uint8_t_u_u>
    b939:	0f b6 c0             	movzbl %al,%eax
    b93c:	89 c6                	mov    %eax,%esi
    b93e:	bf 01 00 00 00       	mov    $0x1,%edi
    b943:	e8 ad ca ff ff       	callq  83f5 <safe_mul_func_int16_t_s_s>
    b948:	98                   	cwtl   
    b949:	be 7c 4c 00 00       	mov    $0x4c7c,%esi
    b94e:	89 c7                	mov    %eax,%edi
    b950:	e8 a0 ca ff ff       	callq  83f5 <safe_mul_func_int16_t_s_s>
    b955:	0f be d8             	movsbl %al,%ebx
    b958:	8b 95 e4 ef ff ff    	mov    -0x101c(%rbp),%edx
    b95e:	83 bd e4 ef ff ff 00 	cmpl   $0x0,-0x101c(%rbp)
    b965:	0f 94 c0             	sete   %al
    b968:	0f b6 c0             	movzbl %al,%eax
    b96b:	48 89 d6             	mov    %rdx,%rsi
    b96e:	48 89 c7             	mov    %rax,%rdi
    b971:	e8 d5 d6 ff ff       	callq  904b <safe_sub_func_uint64_t_u_u>
    b976:	0f be c0             	movsbl %al,%eax
    b979:	89 de                	mov    %ebx,%esi
    b97b:	89 c7                	mov    %eax,%edi
    b97d:	e8 e8 c8 ff ff       	callq  826a <safe_div_func_int8_t_s_s>
    b982:	89 c2                	mov    %eax,%edx
    b984:	0f b6 05 45 e8 00 00 	movzbl 0xe845(%rip),%eax        # 1a1d0 <g_732+0x8>
    b98b:	c1 e0 02             	shl    $0x2,%eax
    b98e:	c0 f8 02             	sar    $0x2,%al
    b991:	31 d0                	xor    %edx,%eax
    b993:	c1 e0 02             	shl    $0x2,%eax
    b996:	c0 f8 02             	sar    $0x2,%al
    b999:	83 e0 3f             	and    $0x3f,%eax
    b99c:	89 c2                	mov    %eax,%edx
    b99e:	0f b6 05 2b e8 00 00 	movzbl 0xe82b(%rip),%eax        # 1a1d0 <g_732+0x8>
    b9a5:	83 e0 c0             	and    $0xffffffc0,%eax
    b9a8:	09 d0                	or     %edx,%eax
    b9aa:	88 05 20 e8 00 00    	mov    %al,0xe820(%rip)        # 1a1d0 <g_732+0x8>
    b9b0:	0f b6 05 19 e8 00 00 	movzbl 0xe819(%rip),%eax        # 1a1d0 <g_732+0x8>
    b9b7:	c1 e0 02             	shl    $0x2,%eax
    b9ba:	c0 f8 02             	sar    $0x2,%al
    b9bd:	84 c0                	test   %al,%al
    b9bf:	74 51                	je     ba12 <func_35+0x8e5>
    b9c1:	90                   	nop
    b9c2:	eb 01                	jmp    b9c5 <func_35+0x898>
    b9c4:	90                   	nop
    b9c5:	48 8b 85 e8 ef ff ff 	mov    -0x1018(%rbp),%rax
    b9cc:	48 89 85 f0 ef ff ff 	mov    %rax,-0x1010(%rbp)
    b9d3:	48 8b 05 4e 12 01 00 	mov    0x1124e(%rip),%rax        # 1cc28 <g_1389>
    b9da:	8b 95 e4 ef ff ff    	mov    -0x101c(%rbp),%edx
    b9e0:	66 89 10             	mov    %dx,(%rax)
    b9e3:	0f b7 00             	movzwl (%rax),%eax
    b9e6:	98                   	cwtl   
    b9e7:	be 62 15 00 00       	mov    $0x1562,%esi
    b9ec:	89 c7                	mov    %eax,%edi
    b9ee:	e8 23 ca ff ff       	callq  8416 <safe_mod_func_int16_t_s_s>
    b9f3:	89 c2                	mov    %eax,%edx
    b9f5:	48 8b 05 54 0f 01 00 	mov    0x10f54(%rip),%rax        # 1c950 <g_372>
    b9fc:	0f bf d2             	movswl %dx,%edx
    b9ff:	89 10                	mov    %edx,(%rax)
    ba01:	8b 85 68 f0 ff ff    	mov    -0xf98(%rbp),%eax
    ba07:	09 85 38 f0 ff ff    	or     %eax,-0xfc8(%rbp)
    ba0d:	e9 9d 01 00 00       	jmpq   bbaf <func_35+0xa82>
    ba12:	c6 85 0c f0 ff ff fe 	movb   $0xfe,-0xff4(%rbp)
    ba19:	c7 85 70 f0 ff ff 01 	movl   $0x1,-0xf90(%rbp)
    ba20:	00 00 00 
    ba23:	83 bd 38 f0 ff ff 00 	cmpl   $0x0,-0xfc8(%rbp)
    ba2a:	75 98                	jne    b9c4 <func_35+0x897>
    ba2c:	48 8b 05 bd 12 01 00 	mov    0x112bd(%rip),%rax        # 1ccf0 <g_1898>
    ba33:	48 8b 00             	mov    (%rax),%rax
    ba36:	48 8b 00             	mov    (%rax),%rax
    ba39:	48 8b 00             	mov    (%rax),%rax
    ba3c:	0f b6 00             	movzbl (%rax),%eax
    ba3f:	0f b6 c0             	movzbl %al,%eax
    ba42:	39 85 2c f0 ff ff    	cmp    %eax,-0xfd4(%rbp)
    ba48:	0f 9c c0             	setl   %al
    ba4b:	0f b6 d0             	movzbl %al,%edx
    ba4e:	8b 85 2c f0 ff ff    	mov    -0xfd4(%rbp),%eax
    ba54:	48 98                	cltq   
    ba56:	48 89 d6             	mov    %rdx,%rsi
    ba59:	48 89 c7             	mov    %rax,%rdi
    ba5c:	e8 e0 cd ff ff       	callq  8841 <safe_add_func_int64_t_s_s>
    ba61:	98                   	cwtl   
    ba62:	89 c7                	mov    %eax,%edi
    ba64:	e8 34 c9 ff ff       	callq  839d <safe_unary_minus_func_int16_t_s>
    ba69:	48 8b 85 f8 ef ff ff 	mov    -0x1008(%rbp),%rax
    ba70:	8b 00                	mov    (%rax),%eax
    ba72:	41 89 c4             	mov    %eax,%r12d
    ba75:	8b 9d e4 ef ff ff    	mov    -0x101c(%rbp),%ebx
    ba7b:	8b 85 e4 ef ff ff    	mov    -0x101c(%rbp),%eax
    ba81:	0f b6 d0             	movzbl %al,%edx
    ba84:	48 8b 05 9d 11 01 00 	mov    0x1119d(%rip),%rax        # 1cc28 <g_1389>
    ba8b:	0f b7 00             	movzwl (%rax),%eax
    ba8e:	98                   	cwtl   
    ba8f:	23 85 2c f0 ff ff    	and    -0xfd4(%rbp),%eax
    ba95:	39 85 e4 ef ff ff    	cmp    %eax,-0x101c(%rbp)
    ba9b:	0f 94 c1             	sete   %cl
    ba9e:	48 8b 05 ab 0e 01 00 	mov    0x10eab(%rip),%rax        # 1c950 <g_372>
    baa5:	0f b6 c9             	movzbl %cl,%ecx
    baa8:	89 08                	mov    %ecx,(%rax)
    baaa:	8b 00                	mov    (%rax),%eax
    baac:	88 85 0c f0 ff ff    	mov    %al,-0xff4(%rbp)
    bab2:	0f b6 85 0c f0 ff ff 	movzbl -0xff4(%rbp),%eax
    bab9:	83 f0 06             	xor    $0x6,%eax
    babc:	89 c1                	mov    %eax,%ecx
    babe:	48 8b 05 7b 0e 01 00 	mov    0x10e7b(%rip),%rax        # 1c940 <g_284>
    bac5:	48 8b 00             	mov    (%rax),%rax
    bac8:	09 c8                	or     %ecx,%eax
    baca:	0f b6 c0             	movzbl %al,%eax
    bacd:	89 d6                	mov    %edx,%esi
    bacf:	89 c7                	mov    %eax,%edi
    bad1:	e8 84 d0 ff ff       	callq  8b5a <safe_add_func_uint8_t_u_u>
    bad6:	48 8b 85 a8 f0 ff ff 	mov    -0xf58(%rbp),%rax
    badd:	8b 10                	mov    (%rax),%edx
    badf:	8d 4a 01             	lea    0x1(%rdx),%ecx
    bae2:	89 08                	mov    %ecx,(%rax)
    bae4:	83 bd e4 ef ff ff 01 	cmpl   $0x1,-0x101c(%rbp)
    baeb:	0f 97 c0             	seta   %al
    baee:	0f b6 c0             	movzbl %al,%eax
    baf1:	39 c2                	cmp    %eax,%edx
    baf3:	0f 93 c0             	setae  %al
    baf6:	0f b6 c0             	movzbl %al,%eax
    baf9:	48 89 de             	mov    %rbx,%rsi
    bafc:	48 89 c7             	mov    %rax,%rdi
    baff:	e8 2a d5 ff ff       	callq  902e <safe_add_func_uint64_t_u_u>
    bb04:	44 89 e6             	mov    %r12d,%esi
    bb07:	89 c7                	mov    %eax,%edi
    bb09:	e8 aa d3 ff ff       	callq  8eb8 <safe_add_func_uint32_t_u_u>
    bb0e:	98                   	cwtl   
    bb0f:	be 0b 00 00 00       	mov    $0xb,%esi
    bb14:	89 c7                	mov    %eax,%edi
    bb16:	e8 48 ca ff ff       	callq  8563 <safe_rshift_func_int16_t_s_u>
    bb1b:	48 0f bf c0          	movswq %ax,%rax
    bb1f:	48 ba 0d 05 1a 97 01 	movabs $0xda5a1d01971a050d,%rdx
    bb26:	1d 5a da 
    bb29:	48 31 d0             	xor    %rdx,%rax
    bb2c:	48 89 c1             	mov    %rax,%rcx
    bb2f:	48 8d 05 5a 11 01 00 	lea    0x1115a(%rip),%rax        # 1cc90 <g_1697>
    bb36:	48 8b 00             	mov    (%rax),%rax
    bb39:	48 8b 00             	mov    (%rax),%rax
    bb3c:	48 8b 10             	mov    (%rax),%rdx
    bb3f:	48 8d 05 4a 11 01 00 	lea    0x1114a(%rip),%rax        # 1cc90 <g_1697>
    bb46:	48 8b 00             	mov    (%rax),%rax
    bb49:	48 8b 00             	mov    (%rax),%rax
    bb4c:	48 09 ca             	or     %rcx,%rdx
    bb4f:	48 89 10             	mov    %rdx,(%rax)
    bb52:	48 8b 10             	mov    (%rax),%rdx
    bb55:	48 8b 05 14 11 01 00 	mov    0x11114(%rip),%rax        # 1cc70 <g_1583>
    bb5c:	48 8b 00             	mov    (%rax),%rax
    bb5f:	48 8b 00             	mov    (%rax),%rax
    bb62:	48 39 c2             	cmp    %rax,%rdx
    bb65:	0f 96 c0             	setbe  %al
    bb68:	0f b6 c0             	movzbl %al,%eax
    bb6b:	89 c7                	mov    %eax,%edi
    bb6d:	e8 2b c8 ff ff       	callq  839d <safe_unary_minus_func_int16_t_s>
    bb72:	48 0f bf d8          	movswq %ax,%rbx
    bb76:	8b 05 80 f7 00 00    	mov    0xf780(%rip),%eax        # 1b2fc <g_1979>
    bb7c:	48 63 d0             	movslq %eax,%rdx
    bb7f:	8b 85 e4 ef ff ff    	mov    -0x101c(%rbp),%eax
    bb85:	48 89 d6             	mov    %rdx,%rsi
    bb88:	48 89 c7             	mov    %rax,%rdi
    bb8b:	e8 9e d4 ff ff       	callq  902e <safe_add_func_uint64_t_u_u>
    bb90:	48 85 c0             	test   %rax,%rax
    bb93:	0f 94 c0             	sete   %al
    bb96:	0f b6 c0             	movzbl %al,%eax
    bb99:	48 89 de             	mov    %rbx,%rsi
    bb9c:	48 89 c7             	mov    %rax,%rdi
    bb9f:	e8 10 ce ff ff       	callq  89b4 <safe_mod_func_int64_t_s_s>
    bba4:	b8 01 00 00 00       	mov    $0x1,%eax
    bba9:	09 85 38 f0 ff ff    	or     %eax,-0xfc8(%rbp)
    bbaf:	8b 85 e4 ef ff ff    	mov    -0x101c(%rbp),%eax
    bbb5:	0f b6 d8             	movzbl %al,%ebx
    bbb8:	0f b7 85 0e f0 ff ff 	movzwl -0xff2(%rbp),%eax
    bbbf:	44 0f be e0          	movsbl %al,%r12d
    bbc3:	8b 85 e4 ef ff ff    	mov    -0x101c(%rbp),%eax
    bbc9:	44 0f be e8          	movsbl %al,%r13d
    bbcd:	8b 85 e4 ef ff ff    	mov    -0x101c(%rbp),%eax
    bbd3:	be 03 00 00 00       	mov    $0x3,%esi
    bbd8:	89 c7                	mov    %eax,%edi
    bbda:	e8 f1 d2 ff ff       	callq  8ed0 <safe_sub_func_uint32_t_u_u>
    bbdf:	48 8b 05 6a 0d 01 00 	mov    0x10d6a(%rip),%rax        # 1c950 <g_372>
    bbe6:	c7 00 01 00 00 00    	movl   $0x1,(%rax)
    bbec:	8b 85 e4 ef ff ff    	mov    -0x101c(%rbp),%eax
    bbf2:	0f be c0             	movsbl %al,%eax
    bbf5:	44 89 ee             	mov    %r13d,%esi
    bbf8:	89 c7                	mov    %eax,%edi
    bbfa:	e8 13 c6 ff ff       	callq  8212 <safe_mul_func_int8_t_s_s>
    bbff:	0f be c0             	movsbl %al,%eax
    bc02:	8b 95 38 f0 ff ff    	mov    -0xfc8(%rbp),%edx
    bc08:	89 d6                	mov    %edx,%esi
    bc0a:	89 c7                	mov    %eax,%edi
    bc0c:	e8 a5 c9 ff ff       	callq  85b6 <safe_add_func_int32_t_s_s>
    bc11:	89 c2                	mov    %eax,%edx
    bc13:	48 8b 05 6e 10 01 00 	mov    0x1106e(%rip),%rax        # 1cc88 <g_1698>
    bc1a:	48 8b 08             	mov    (%rax),%rcx
    bc1d:	48 83 e9 01          	sub    $0x1,%rcx
    bc21:	48 89 08             	mov    %rcx,(%rax)
    bc24:	48 8b 00             	mov    (%rax),%rax
    bc27:	89 85 68 f0 ff ff    	mov    %eax,-0xf98(%rbp)
    bc2d:	48 8b 85 d0 f0 ff ff 	mov    -0xf30(%rbp),%rax
    bc34:	8b 08                	mov    (%rax),%ecx
    bc36:	48 8b 85 d0 f0 ff ff 	mov    -0xf30(%rbp),%rax
    bc3d:	31 ca                	xor    %ecx,%edx
    bc3f:	89 10                	mov    %edx,(%rax)
    bc41:	8b 10                	mov    (%rax),%edx
    bc43:	48 8b 05 c6 0f 01 00 	mov    0x10fc6(%rip),%rax        # 1cc10 <g_1182>
    bc4a:	8b 00                	mov    (%rax),%eax
    bc4c:	39 c2                	cmp    %eax,%edx
    bc4e:	8b 85 e4 ef ff ff    	mov    -0x101c(%rbp),%eax
    bc54:	0f be c0             	movsbl %al,%eax
    bc57:	44 89 e6             	mov    %r12d,%esi
    bc5a:	89 c7                	mov    %eax,%edi
    bc5c:	e8 d0 c5 ff ff       	callq  8231 <safe_mod_func_int8_t_s_s>
    bc61:	84 c0                	test   %al,%al
    bc63:	0f 9f c0             	setg   %al
    bc66:	0f b6 c0             	movzbl %al,%eax
    bc69:	89 de                	mov    %ebx,%esi
    bc6b:	89 c7                	mov    %eax,%edi
    bc6d:	e8 06 cf ff ff       	callq  8b78 <safe_sub_func_uint8_t_u_u>
    bc72:	0f b6 d0             	movzbl %al,%edx
    bc75:	48 8b 05 ac 0f 01 00 	mov    0x10fac(%rip),%rax        # 1cc28 <g_1389>
    bc7c:	0f b7 00             	movzwl (%rax),%eax
    bc7f:	98                   	cwtl   
    bc80:	21 d0                	and    %edx,%eax
    bc82:	39 85 38 f0 ff ff    	cmp    %eax,-0xfc8(%rbp)
    bc88:	0f 9e c0             	setle  %al
    bc8b:	0f b6 d0             	movzbl %al,%edx
    bc8e:	48 8d 05 fb 0f 01 00 	lea    0x10ffb(%rip),%rax        # 1cc90 <g_1697>
    bc95:	48 8b 00             	mov    (%rax),%rax
    bc98:	48 c7 85 30 f6 ff ff 	movq   $0x0,-0x9d0(%rbp)
    bc9f:	00 00 00 00 
    bca3:	48 8b 8d 30 f6 ff ff 	mov    -0x9d0(%rbp),%rcx
    bcaa:	48 89 8d 38 f3 ff ff 	mov    %rcx,-0xcc8(%rbp)
    bcb1:	48 8b 8d 38 f3 ff ff 	mov    -0xcc8(%rbp),%rcx
    bcb8:	48 89 8d 20 f1 ff ff 	mov    %rcx,-0xee0(%rbp)
    bcbf:	48 39 85 20 f1 ff ff 	cmp    %rax,-0xee0(%rbp)
    bcc6:	0f 95 c0             	setne  %al
    bcc9:	0f b6 c8             	movzbl %al,%ecx
    bccc:	48 8b 05 6d 0c 01 00 	mov    0x10c6d(%rip),%rax        # 1c940 <g_284>
    bcd3:	48 8b 30             	mov    (%rax),%rsi
    bcd6:	48 63 c9             	movslq %ecx,%rcx
    bcd9:	48 8b 05 60 0c 01 00 	mov    0x10c60(%rip),%rax        # 1c940 <g_284>
    bce0:	48 21 f1             	and    %rsi,%rcx
    bce3:	48 89 08             	mov    %rcx,(%rax)
    bce6:	48 8b 00             	mov    (%rax),%rax
    bce9:	48 85 c0             	test   %rax,%rax
    bcec:	74 07                	je     bcf5 <func_35+0xbc8>
    bcee:	b8 01 00 00 00       	mov    $0x1,%eax
    bcf3:	eb 05                	jmp    bcfa <func_35+0xbcd>
    bcf5:	b8 00 00 00 00       	mov    $0x0,%eax
    bcfa:	0f be c0             	movsbl %al,%eax
    bcfd:	89 d6                	mov    %edx,%esi
    bcff:	89 c7                	mov    %eax,%edi
    bd01:	e8 0c c5 ff ff       	callq  8212 <safe_mul_func_int8_t_s_s>
    bd06:	0f be c0             	movsbl %al,%eax
    bd09:	0b 85 e4 ef ff ff    	or     -0x101c(%rbp),%eax
    bd0f:	89 c2                	mov    %eax,%edx
    bd11:	8b 85 3c f0 ff ff    	mov    -0xfc4(%rbp),%eax
    bd17:	09 d0                	or     %edx,%eax
    bd19:	89 85 3c f0 ff ff    	mov    %eax,-0xfc4(%rbp)
    bd1f:	48 8b 85 d0 f0 ff ff 	mov    -0xf30(%rbp),%rax
    bd26:	44 8b 20             	mov    (%rax),%r12d
    bd29:	48 8b 05 10 0d 01 00 	mov    0x10d10(%rip),%rax        # 1ca40 <g_648>
    bd30:	48 8b 00             	mov    (%rax),%rax
    bd33:	0f b6 00             	movzbl (%rax),%eax
    bd36:	0f b6 d8             	movzbl %al,%ebx
    bd39:	48 8b 05 40 0f 01 00 	mov    0x10f40(%rip),%rax        # 1cc80 <g_1602>
    bd40:	48 8b 08             	mov    (%rax),%rcx
    bd43:	48 8b 95 d8 f0 ff ff 	mov    -0xf28(%rbp),%rdx
    bd4a:	48 8b 85 68 f1 ff ff 	mov    -0xe98(%rbp),%rax
    bd51:	48 89 10             	mov    %rdx,(%rax)
    bd54:	48 8b 85 68 f1 ff ff 	mov    -0xe98(%rbp),%rax
    bd5b:	48 8b 00             	mov    (%rax),%rax
    bd5e:	48 39 c1             	cmp    %rax,%rcx
    bd61:	8b 85 e4 ef ff ff    	mov    -0x101c(%rbp),%eax
    bd67:	89 c6                	mov    %eax,%esi
    bd69:	bf 00 00 00 00       	mov    $0x0,%edi
    bd6e:	e8 7b c5 ff ff       	callq  82ee <safe_lshift_func_int8_t_s_u>
    bd73:	0f be d0             	movsbl %al,%edx
    bd76:	48 8b 85 d0 f0 ff ff 	mov    -0xf30(%rbp),%rax
    bd7d:	8b 00                	mov    (%rax),%eax
    bd7f:	98                   	cwtl   
    bd80:	89 d6                	mov    %edx,%esi
    bd82:	89 c7                	mov    %eax,%edi
    bd84:	e8 2a c6 ff ff       	callq  83b3 <safe_add_func_int16_t_s_s>
    bd89:	48 8b 05 50 0f 01 00 	mov    0x10f50(%rip),%rax        # 1cce0 <g_1901>
    bd90:	0f b6 00             	movzbl (%rax),%eax
    bd93:	89 de                	mov    %ebx,%esi
    bd95:	bf 00 00 00 00       	mov    $0x0,%edi
    bd9a:	e8 d9 cd ff ff       	callq  8b78 <safe_sub_func_uint8_t_u_u>
    bd9f:	0f b6 c0             	movzbl %al,%eax
    bda2:	39 85 e4 ef ff ff    	cmp    %eax,-0x101c(%rbp)
    bda8:	0f 92 c0             	setb   %al
    bdab:	0f b6 c0             	movzbl %al,%eax
    bdae:	41 39 c4             	cmp    %eax,%r12d
    bdb1:	0f 95 c0             	setne  %al
    bdb4:	0f b6 c0             	movzbl %al,%eax
    bdb7:	23 85 28 f0 ff ff    	and    -0xfd8(%rbp),%eax
    bdbd:	85 c0                	test   %eax,%eax
    bdbf:	0f 84 2d 03 00 00    	je     c0f2 <func_35+0xfc5>
    bdc5:	48 b8 19 b7 6b 0a bf 	movabs $0x95e10bbf0a6bb719,%rax
    bdcc:	0b e1 95 
    bdcf:	48 89 85 40 f8 ff ff 	mov    %rax,-0x7c0(%rbp)
    bdd6:	48 c7 85 48 f8 ff ff 	movq   $0x1,-0x7b8(%rbp)
    bddd:	01 00 00 00 
    bde1:	48 89 85 50 f8 ff ff 	mov    %rax,-0x7b0(%rbp)
    bde8:	48 bb f1 18 3a ff 78 	movabs $0xa558ff78ff3a18f1,%rbx
    bdef:	ff 58 a5 
    bdf2:	48 89 9d 58 f8 ff ff 	mov    %rbx,-0x7a8(%rbp)
    bdf9:	48 89 9d 60 f8 ff ff 	mov    %rbx,-0x7a0(%rbp)
    be00:	48 89 85 68 f8 ff ff 	mov    %rax,-0x798(%rbp)
    be07:	48 c7 85 70 f8 ff ff 	movq   $0x1,-0x790(%rbp)
    be0e:	01 00 00 00 
    be12:	48 c7 85 78 f8 ff ff 	movq   $0xfffffffffffffff6,-0x788(%rbp)
    be19:	f6 ff ff ff 
    be1d:	48 b9 75 a0 f4 70 1c 	movabs $0xd930511c70f4a075,%rcx
    be24:	51 30 d9 
    be27:	48 89 8d 80 f8 ff ff 	mov    %rcx,-0x780(%rbp)
    be2e:	48 be b8 0d 29 8c de 	movabs $0x3565f0de8c290db8,%rsi
    be35:	f0 65 35 
    be38:	48 89 b5 88 f8 ff ff 	mov    %rsi,-0x778(%rbp)
    be3f:	48 89 b5 90 f8 ff ff 	mov    %rsi,-0x770(%rbp)
    be46:	48 89 8d 98 f8 ff ff 	mov    %rcx,-0x768(%rbp)
    be4d:	48 c7 85 a0 f8 ff ff 	movq   $0xfffffffffffffff6,-0x760(%rbp)
    be54:	f6 ff ff ff 
    be58:	48 89 8d a8 f8 ff ff 	mov    %rcx,-0x758(%rbp)
    be5f:	48 89 85 b0 f8 ff ff 	mov    %rax,-0x750(%rbp)
    be66:	48 89 9d b8 f8 ff ff 	mov    %rbx,-0x748(%rbp)
    be6d:	48 89 9d c0 f8 ff ff 	mov    %rbx,-0x740(%rbp)
    be74:	48 89 85 c8 f8 ff ff 	mov    %rax,-0x738(%rbp)
    be7b:	48 c7 85 d0 f8 ff ff 	movq   $0x1,-0x730(%rbp)
    be82:	01 00 00 00 
    be86:	48 89 85 d8 f8 ff ff 	mov    %rax,-0x728(%rbp)
    be8d:	48 89 9d e0 f8 ff ff 	mov    %rbx,-0x720(%rbp)
    be94:	c7 85 74 f0 ff ff 57 	movl   $0x8ef74957,-0xf8c(%rbp)
    be9b:	49 f7 8e 
    be9e:	c7 85 78 f0 ff ff 01 	movl   $0x1,-0xf88(%rbp)
    bea5:	00 00 00 
    bea8:	c7 85 7c f0 ff ff 0e 	movl   $0xe561d20e,-0xf84(%rbp)
    beaf:	d2 61 e5 
    beb2:	c7 85 10 f1 ff ff 07 	movl   $0x7,-0xef0(%rbp)
    beb9:	00 00 00 
    bebc:	c7 85 80 f0 ff ff 5f 	movl   $0x3772bf5f,-0xf80(%rbp)
    bec3:	bf 72 37 
    bec6:	c7 85 84 f0 ff ff 01 	movl   $0x1,-0xf7c(%rbp)
    becd:	00 00 00 
    bed0:	66 c7 85 10 f0 ff ff 	movw   $0xe95e,-0xff0(%rbp)
    bed7:	5e e9 
    bed9:	c7 85 44 f0 ff ff 00 	movl   $0x0,-0xfbc(%rbp)
    bee0:	00 00 00 
    bee3:	eb 45                	jmp    bf2a <func_35+0xdfd>
    bee5:	c7 85 48 f0 ff ff 00 	movl   $0x0,-0xfb8(%rbp)
    beec:	00 00 00 
    beef:	eb 29                	jmp    bf1a <func_35+0xded>
    bef1:	8b 85 48 f0 ff ff    	mov    -0xfb8(%rbp),%eax
    bef7:	48 98                	cltq   
    bef9:	8b 95 44 f0 ff ff    	mov    -0xfbc(%rbp),%edx
    beff:	48 63 d2             	movslq %edx,%rdx
    bf02:	48 01 d2             	add    %rdx,%rdx
    bf05:	48 01 d0             	add    %rdx,%rax
    bf08:	c7 84 85 60 f4 ff ff 	movl   $0x8e2fdb1a,-0xba0(%rbp,%rax,4)
    bf0f:	1a db 2f 8e 
    bf13:	83 85 48 f0 ff ff 01 	addl   $0x1,-0xfb8(%rbp)
    bf1a:	83 bd 48 f0 ff ff 01 	cmpl   $0x1,-0xfb8(%rbp)
    bf21:	7e ce                	jle    bef1 <func_35+0xdc4>
    bf23:	83 85 44 f0 ff ff 01 	addl   $0x1,-0xfbc(%rbp)
    bf2a:	83 bd 44 f0 ff ff 06 	cmpl   $0x6,-0xfbc(%rbp)
    bf31:	7e b2                	jle    bee5 <func_35+0xdb8>
    bf33:	48 8b 05 16 0a 01 00 	mov    0x10a16(%rip),%rax        # 1c950 <g_372>
    bf3a:	8b 00                	mov    (%rax),%eax
    bf3c:	89 c2                	mov    %eax,%edx
    bf3e:	48 8b 85 c8 f8 ff ff 	mov    -0x738(%rbp),%rax
    bf45:	31 c2                	xor    %eax,%edx
    bf47:	48 8b 05 02 0a 01 00 	mov    0x10a02(%rip),%rax        # 1c950 <g_372>
    bf4e:	89 10                	mov    %edx,(%rax)
    bf50:	c7 85 88 f0 ff ff 01 	movl   $0x1,-0xf78(%rbp)
    bf57:	00 00 00 
    bf5a:	83 ad 88 f0 ff ff 01 	subl   $0x1,-0xf78(%rbp)
    bf61:	48 8b 05 20 0d 01 00 	mov    0x10d20(%rip),%rax        # 1cc88 <g_1698>
    bf68:	4c 8b 20             	mov    (%rax),%r12
    bf6b:	48 83 bd 70 f1 ff ff 	cmpq   $0x0,-0xe90(%rbp)
    bf72:	00 
    bf73:	74 10                	je     bf85 <func_35+0xe58>
    bf75:	48 8d 85 e8 f0 ff ff 	lea    -0xf18(%rbp),%rax
    bf7c:	48 39 85 78 f1 ff ff 	cmp    %rax,-0xe88(%rbp)
    bf83:	75 08                	jne    bf8d <func_35+0xe60>
    bf85:	41 bd 01 00 00 00    	mov    $0x1,%r13d
    bf8b:	eb 06                	jmp    bf93 <func_35+0xe66>
    bf8d:	41 bd 00 00 00 00    	mov    $0x0,%r13d
    bf93:	8b 85 70 f4 ff ff    	mov    -0xb90(%rbp),%eax
    bf99:	0f b7 d8             	movzwl %ax,%ebx
    bf9c:	48 8b 05 dd 0c 01 00 	mov    0x10cdd(%rip),%rax        # 1cc80 <g_1602>
    bfa3:	48 8b 00             	mov    (%rax),%rax
    bfa6:	0f b7 00             	movzwl (%rax),%eax
    bfa9:	c7 85 10 f1 ff ff df 	movl   $0x3fe88edf,-0xef0(%rbp)
    bfb0:	8e e8 3f 
    bfb3:	48 8b 05 86 09 01 00 	mov    0x10986(%rip),%rax        # 1c940 <g_284>
    bfba:	8b 95 78 f0 ff ff    	mov    -0xf88(%rbp),%edx
    bfc0:	48 63 d2             	movslq %edx,%rdx
    bfc3:	48 89 10             	mov    %rdx,(%rax)
    bfc6:	be 02 00 00 00       	mov    $0x2,%esi
    bfcb:	bf 39 cd ff ff       	mov    $0xffffcd39,%edi
    bfd0:	e8 55 c5 ff ff       	callq  852a <safe_rshift_func_int16_t_s_s>
    bfd5:	48 8b 85 d0 f0 ff ff 	mov    -0xf30(%rbp),%rax
    bfdc:	8b 00                	mov    (%rax),%eax
    bfde:	85 c0                	test   %eax,%eax
    bfe0:	74 07                	je     bfe9 <func_35+0xebc>
    bfe2:	ba 01 00 00 00       	mov    $0x1,%edx
    bfe7:	eb 05                	jmp    bfee <func_35+0xec1>
    bfe9:	ba 00 00 00 00       	mov    $0x0,%edx
    bfee:	48 8b 85 d0 f0 ff ff 	mov    -0xf30(%rbp),%rax
    bff5:	8b 00                	mov    (%rax),%eax
    bff7:	39 c2                	cmp    %eax,%edx
    bff9:	0f 94 c0             	sete   %al
    bffc:	0f b6 c0             	movzbl %al,%eax
    bfff:	8b 95 e4 ef ff ff    	mov    -0x101c(%rbp),%edx
    c005:	89 d6                	mov    %edx,%esi
    c007:	89 c7                	mov    %eax,%edi
    c009:	e8 aa ce ff ff       	callq  8eb8 <safe_add_func_uint32_t_u_u>
    c00e:	89 c2                	mov    %eax,%edx
    c010:	8b 85 e4 ef ff ff    	mov    -0x101c(%rbp),%eax
    c016:	48 89 d6             	mov    %rdx,%rsi
    c019:	48 89 c7             	mov    %rax,%rdi
    c01c:	e8 2a d0 ff ff       	callq  904b <safe_sub_func_uint64_t_u_u>
    c021:	0f b6 c0             	movzbl %al,%eax
    c024:	be 05 00 00 00       	mov    $0x5,%esi
    c029:	89 c7                	mov    %eax,%edi
    c02b:	e8 5d cc ff ff       	callq  8c8d <safe_rshift_func_uint8_t_u_s>
    c030:	89 de                	mov    %ebx,%esi
    c032:	bf 01 00 00 00       	mov    $0x1,%edi
    c037:	e8 01 cd ff ff       	callq  8d3d <safe_mul_func_uint16_t_u_u>
    c03c:	0f b7 c0             	movzwl %ax,%eax
    c03f:	39 85 28 f0 ff ff    	cmp    %eax,-0xfd8(%rbp)
    c045:	83 bd e4 ef ff ff 00 	cmpl   $0x0,-0x101c(%rbp)
    c04c:	0f 94 c0             	sete   %al
    c04f:	0f b6 c0             	movzbl %al,%eax
    c052:	48 8b 1d cf 0b 01 00 	mov    0x10bcf(%rip),%rbx        # 1cc28 <g_1389>
    c059:	be 0c 00 00 00       	mov    $0xc,%esi
    c05e:	89 c7                	mov    %eax,%edi
    c060:	e8 fe c4 ff ff       	callq  8563 <safe_rshift_func_int16_t_s_u>
    c065:	66 89 03             	mov    %ax,(%rbx)
    c068:	0f b7 03             	movzwl (%rbx),%eax
    c06b:	98                   	cwtl   
    c06c:	41 39 c5             	cmp    %eax,%r13d
    c06f:	8b 85 24 f0 ff ff    	mov    -0xfdc(%rbp),%eax
    c075:	48 98                	cltq   
    c077:	4c 89 e6             	mov    %r12,%rsi
    c07a:	48 89 c7             	mov    %rax,%rdi
    c07d:	e8 2d d0 ff ff       	callq  90af <safe_div_func_uint64_t_u_u>
    c082:	48 8d 15 07 0c 01 00 	lea    0x10c07(%rip),%rdx        # 1cc90 <g_1697>
    c089:	48 8b 12             	mov    (%rdx),%rdx
    c08c:	48 8b 12             	mov    (%rdx),%rdx
    c08f:	48 8b 12             	mov    (%rdx),%rdx
    c092:	48 39 d0             	cmp    %rdx,%rax
    c095:	0f 97 c0             	seta   %al
    c098:	0f b6 c0             	movzbl %al,%eax
    c09b:	be 0c 00 00 00       	mov    $0xc,%esi
    c0a0:	89 c7                	mov    %eax,%edi
    c0a2:	e8 d3 cd ff ff       	callq  8e7a <safe_rshift_func_uint16_t_u_u>
    c0a7:	89 c2                	mov    %eax,%edx
    c0a9:	48 8b 85 c8 f0 ff ff 	mov    -0xf38(%rbp),%rax
    c0b0:	48 8b 00             	mov    (%rax),%rax
    c0b3:	0f b7 d2             	movzwl %dx,%edx
    c0b6:	48 89 10             	mov    %rdx,(%rax)
    c0b9:	48 8b 00             	mov    (%rax),%rax
    c0bc:	89 c2                	mov    %eax,%edx
    c0be:	8b 85 7c f0 ff ff    	mov    -0xf84(%rbp),%eax
    c0c4:	09 d0                	or     %edx,%eax
    c0c6:	89 85 7c f0 ff ff    	mov    %eax,-0xf84(%rbp)
    c0cc:	83 bd 7c f0 ff ff ff 	cmpl   $0xffffffff,-0xf84(%rbp)
    c0d3:	0f 9d c0             	setge  %al
    c0d6:	0f b6 c8             	movzbl %al,%ecx
    c0d9:	48 8b 05 70 08 01 00 	mov    0x10870(%rip),%rax        # 1c950 <g_372>
    c0e0:	8b 10                	mov    (%rax),%edx
    c0e2:	48 8b 05 67 08 01 00 	mov    0x10867(%rip),%rax        # 1c950 <g_372>
    c0e9:	31 ca                	xor    %ecx,%edx
    c0eb:	89 10                	mov    %edx,(%rax)
    c0ed:	e9 82 0c 00 00       	jmpq   cd74 <func_35+0x1c47>
    c0f2:	48 b8 d4 4e 20 cf eb 	movabs $0x43fc71ebcf204ed4,%rax
    c0f9:	71 fc 43 
    c0fc:	48 89 85 98 f1 ff ff 	mov    %rax,-0xe68(%rbp)
    c103:	48 8d 85 90 f3 ff ff 	lea    -0xc70(%rbp),%rax
    c10a:	48 83 c0 18          	add    $0x18,%rax
    c10e:	48 89 85 a0 f1 ff ff 	mov    %rax,-0xe60(%rbp)
    c115:	48 8d 05 f4 07 01 00 	lea    0x107f4(%rip),%rax        # 1c910 <g_116>
    c11c:	48 89 85 a8 f1 ff ff 	mov    %rax,-0xe58(%rbp)
    c123:	48 8d 85 1c f0 ff ff 	lea    -0xfe4(%rbp),%rax
    c12a:	48 89 85 40 f1 ff ff 	mov    %rax,-0xec0(%rbp)
    c131:	c7 85 4c f0 ff ff 00 	movl   $0x0,-0xfb4(%rbp)
    c138:	00 00 00 
    c13b:	eb 14                	jmp    c151 <func_35+0x1024>
    c13d:	8b 85 4c f0 ff ff    	mov    -0xfb4(%rbp),%eax
    c143:	48 98                	cltq   
    c145:	c6 44 05 c7 ff       	movb   $0xff,-0x39(%rbp,%rax,1)
    c14a:	83 85 4c f0 ff ff 01 	addl   $0x1,-0xfb4(%rbp)
    c151:	83 bd 4c f0 ff ff 00 	cmpl   $0x0,-0xfb4(%rbp)
    c158:	7e e3                	jle    c13d <func_35+0x1010>
    c15a:	48 8b 85 d0 f0 ff ff 	mov    -0xf30(%rbp),%rax
    c161:	48 8b 95 98 f1 ff ff 	mov    -0xe68(%rbp),%rdx
    c168:	89 10                	mov    %edx,(%rax)
    c16a:	48 8b 85 d0 f0 ff ff 	mov    -0xf30(%rbp),%rax
    c171:	8b 00                	mov    (%rax),%eax
    c173:	48 8b 95 d0 f0 ff ff 	mov    -0xf30(%rbp),%rdx
    c17a:	83 e0 01             	and    $0x1,%eax
    c17d:	89 02                	mov    %eax,(%rdx)
    c17f:	48 8b 05 ca 07 01 00 	mov    0x107ca(%rip),%rax        # 1c950 <g_372>
    c186:	8b 12                	mov    (%rdx),%edx
    c188:	89 10                	mov    %edx,(%rax)
    c18a:	8b 00                	mov    (%rax),%eax
    c18c:	85 c0                	test   %eax,%eax
    c18e:	0f 84 3c 02 00 00    	je     c3d0 <func_35+0x12a3>
    c194:	48 8d 85 d0 f0 ff ff 	lea    -0xf30(%rbp),%rax
    c19b:	48 89 85 f8 f1 ff ff 	mov    %rax,-0xe08(%rbp)
    c1a2:	48 8d 05 aa eb 00 00 	lea    0xebaa(%rip),%rax        # 1ad53 <g_1582+0x1>
    c1a9:	48 89 85 00 f2 ff ff 	mov    %rax,-0xe00(%rbp)
    c1b0:	c7 85 50 f0 ff ff 00 	movl   $0x0,-0xfb0(%rbp)
    c1b7:	00 00 00 
    c1ba:	eb 1b                	jmp    c1d7 <func_35+0x10aa>
    c1bc:	8b 85 50 f0 ff ff    	mov    -0xfb0(%rbp),%eax
    c1c2:	48 98                	cltq   
    c1c4:	48 c7 84 c5 40 f8 ff 	movq   $0x0,-0x7c0(%rbp,%rax,8)
    c1cb:	ff 00 00 00 00 
    c1d0:	83 85 50 f0 ff ff 01 	addl   $0x1,-0xfb0(%rbp)
    c1d7:	83 bd 50 f0 ff ff 07 	cmpl   $0x7,-0xfb0(%rbp)
    c1de:	7e dc                	jle    c1bc <func_35+0x108f>
    c1e0:	0f b7 95 52 f4 ff ff 	movzwl -0xbae(%rbp),%edx
    c1e7:	48 8b 05 5a 08 01 00 	mov    0x1085a(%rip),%rax        # 1ca48 <g_647>
    c1ee:	48 8b 00             	mov    (%rax),%rax
    c1f1:	48 8b 00             	mov    (%rax),%rax
    c1f4:	0f b6 00             	movzbl (%rax),%eax
    c1f7:	66 98                	cbtw   
    c1f9:	21 d0                	and    %edx,%eax
    c1fb:	66 89 85 52 f4 ff ff 	mov    %ax,-0xbae(%rbp)
    c202:	0f b7 85 52 f4 ff ff 	movzwl -0xbae(%rbp),%eax
    c209:	89 c2                	mov    %eax,%edx
    c20b:	0f b6 05 68 f0 00 00 	movzbl 0xf068(%rip),%eax        # 1b27a <g_1626>
    c212:	09 d0                	or     %edx,%eax
    c214:	88 05 60 f0 00 00    	mov    %al,0xf060(%rip)        # 1b27a <g_1626>
    c21a:	0f b6 05 59 f0 00 00 	movzbl 0xf059(%rip),%eax        # 1b27a <g_1626>
    c221:	0f b6 c0             	movzbl %al,%eax
    c224:	89 c6                	mov    %eax,%esi
    c226:	bf 09 00 00 00       	mov    $0x9,%edi
    c22b:	e8 2a c9 ff ff       	callq  8b5a <safe_add_func_uint8_t_u_u>
    c230:	89 c2                	mov    %eax,%edx
    c232:	48 8b 85 d0 f0 ff ff 	mov    -0xf30(%rbp),%rax
    c239:	0f b6 d2             	movzbl %dl,%edx
    c23c:	89 10                	mov    %edx,(%rax)
    c23e:	48 8b 15 0b 07 01 00 	mov    0x1070b(%rip),%rdx        # 1c950 <g_372>
    c245:	8b 00                	mov    (%rax),%eax
    c247:	89 02                	mov    %eax,(%rdx)
    c249:	48 8b 85 f8 f1 ff ff 	mov    -0xe08(%rbp),%rax
    c250:	48 8d 95 14 f0 ff ff 	lea    -0xfec(%rbp),%rdx
    c257:	48 89 10             	mov    %rdx,(%rax)
    c25a:	8b 85 e4 ef ff ff    	mov    -0x101c(%rbp),%eax
    c260:	0f b7 d8             	movzwl %ax,%ebx
    c263:	48 8b 85 c8 f0 ff ff 	mov    -0xf38(%rbp),%rax
    c26a:	48 8b 00             	mov    (%rax),%rax
    c26d:	48 8b 08             	mov    (%rax),%rcx
    c270:	8b 95 e4 ef ff ff    	mov    -0x101c(%rbp),%edx
    c276:	48 8b 85 c8 f0 ff ff 	mov    -0xf38(%rbp),%rax
    c27d:	48 8b 00             	mov    (%rax),%rax
    c280:	48 31 ca             	xor    %rcx,%rdx
    c283:	48 89 10             	mov    %rdx,(%rax)
    c286:	4c 8b 20             	mov    (%rax),%r12
    c289:	48 8b 05 b8 07 01 00 	mov    0x107b8(%rip),%rax        # 1ca48 <g_647>
    c290:	48 8b 00             	mov    (%rax),%rax
    c293:	48 8b 10             	mov    (%rax),%rdx
    c296:	48 8b 05 ab 07 01 00 	mov    0x107ab(%rip),%rax        # 1ca48 <g_647>
    c29d:	48 8b 00             	mov    (%rax),%rax
    c2a0:	48 8b 00             	mov    (%rax),%rax
    c2a3:	48 89 85 48 f8 ff ff 	mov    %rax,-0x7b8(%rbp)
    c2aa:	48 8b 85 48 f8 ff ff 	mov    -0x7b8(%rbp),%rax
    c2b1:	48 39 c2             	cmp    %rax,%rdx
    c2b4:	0f 95 c0             	setne  %al
    c2b7:	0f b6 c0             	movzbl %al,%eax
    c2ba:	be 02 00 00 00       	mov    $0x2,%esi
    c2bf:	89 c7                	mov    %eax,%edi
    c2c1:	e8 c7 c9 ff ff       	callq  8c8d <safe_rshift_func_uint8_t_u_s>
    c2c6:	0f b6 d0             	movzbl %al,%edx
    c2c9:	48 8b 85 f8 f1 ff ff 	mov    -0xe08(%rbp),%rax
    c2d0:	48 8b 00             	mov    (%rax),%rax
    c2d3:	8b 00                	mov    (%rax),%eax
    c2d5:	89 c1                	mov    %eax,%ecx
    c2d7:	44 89 e0             	mov    %r12d,%eax
    c2da:	09 c1                	or     %eax,%ecx
    c2dc:	48 8b 85 f8 f1 ff ff 	mov    -0xe08(%rbp),%rax
    c2e3:	48 8b 00             	mov    (%rax),%rax
    c2e6:	89 08                	mov    %ecx,(%rax)
    c2e8:	8b 00                	mov    (%rax),%eax
    c2ea:	39 c2                	cmp    %eax,%edx
    c2ec:	75 0e                	jne    c2fc <func_35+0x11cf>
    c2ee:	48 8b 85 f8 f1 ff ff 	mov    -0xe08(%rbp),%rax
    c2f5:	48 8b 00             	mov    (%rax),%rax
    c2f8:	8b 00                	mov    (%rax),%eax
    c2fa:	85 c0                	test   %eax,%eax
    c2fc:	8b 85 e4 ef ff ff    	mov    -0x101c(%rbp),%eax
    c302:	83 f0 01             	xor    $0x1,%eax
    c305:	0f be c0             	movsbl %al,%eax
    c308:	be 02 00 00 00       	mov    $0x2,%esi
    c30d:	89 c7                	mov    %eax,%edi
    c30f:	e8 8d bf ff ff       	callq  82a1 <safe_lshift_func_int8_t_s_s>
    c314:	66 98                	cbtw   
    c316:	0f b7 c0             	movzwl %ax,%eax
    c319:	89 de                	mov    %ebx,%esi
    c31b:	89 c7                	mov    %eax,%edi
    c31d:	e8 6c ca ff ff       	callq  8d8e <safe_div_func_uint16_t_u_u>
    c322:	0f b7 c0             	movzwl %ax,%eax
    c325:	39 85 28 f0 ff ff    	cmp    %eax,-0xfd8(%rbp)
    c32b:	0f 9e c0             	setle  %al
    c32e:	0f b6 c0             	movzbl %al,%eax
    c331:	23 85 e4 ef ff ff    	and    -0x101c(%rbp),%eax
    c337:	89 c2                	mov    %eax,%edx
    c339:	48 8b 05 00 06 01 00 	mov    0x10600(%rip),%rax        # 1c940 <g_284>
    c340:	89 d2                	mov    %edx,%edx
    c342:	48 89 10             	mov    %rdx,(%rax)
    c345:	48 8b 18             	mov    (%rax),%rbx
    c348:	be 01 00 00 00       	mov    $0x1,%esi
    c34d:	bf 08 00 00 00       	mov    $0x8,%edi
    c352:	e8 67 c9 ff ff       	callq  8cbe <safe_rshift_func_uint8_t_u_u>
    c357:	0f b6 c0             	movzbl %al,%eax
    c35a:	48 89 de             	mov    %rbx,%rsi
    c35d:	48 89 c7             	mov    %rax,%rdi
    c360:	e8 4f c6 ff ff       	callq  89b4 <safe_mod_func_int64_t_s_s>
    c365:	48 8b 05 ac 08 01 00 	mov    0x108ac(%rip),%rax        # 1cc18 <g_1337>
    c36c:	48 8b 00             	mov    (%rax),%rax
    c36f:	8b 95 e4 ef ff ff    	mov    -0x101c(%rbp),%edx
    c375:	88 10                	mov    %dl,(%rax)
    c377:	0f b6 10             	movzbl (%rax),%edx
    c37a:	48 8b 85 00 f2 ff ff 	mov    -0xe00(%rbp),%rax
    c381:	88 10                	mov    %dl,(%rax)
    c383:	48 8b 85 00 f2 ff ff 	mov    -0xe00(%rbp),%rax
    c38a:	0f b6 00             	movzbl (%rax),%eax
    c38d:	0f b6 d0             	movzbl %al,%edx
    c390:	8b 85 60 f0 ff ff    	mov    -0xfa0(%rbp),%eax
    c396:	0f b6 c0             	movzbl %al,%eax
    c399:	89 d6                	mov    %edx,%esi
    c39b:	89 c7                	mov    %eax,%edi
    c39d:	e8 0c c8 ff ff       	callq  8bae <safe_mod_func_uint8_t_u_u>
    c3a2:	0f b6 d0             	movzbl %al,%edx
    c3a5:	48 8b 05 64 08 01 00 	mov    0x10864(%rip),%rax        # 1cc10 <g_1182>
    c3ac:	8b 00                	mov    (%rax),%eax
    c3ae:	89 d6                	mov    %edx,%esi
    c3b0:	89 c7                	mov    %eax,%edi
    c3b2:	e8 48 c3 ff ff       	callq  86ff <safe_div_func_int32_t_s_s>
    c3b7:	bf fd 93 17 8e       	mov    $0x8e1793fd,%edi
    c3bc:	e8 88 1e 00 00       	callq  e249 <func_41>
    c3c1:	48 8b 95 f8 f1 ff ff 	mov    -0xe08(%rbp),%rdx
    c3c8:	48 89 02             	mov    %rax,(%rdx)
    c3cb:	e9 a4 09 00 00       	jmpq   cd74 <func_35+0x1c47>
    c3d0:	c6 85 0d f0 ff ff 2c 	movb   $0x2c,-0xff3(%rbp)
    c3d7:	c7 85 d0 f2 ff ff ff 	movl   $0xffffffff,-0xd30(%rbp)
    c3de:	ff ff ff 
    c3e1:	c7 85 d4 f2 ff ff ff 	movl   $0xffffffff,-0xd2c(%rbp)
    c3e8:	ff ff ff 
    c3eb:	c7 85 d8 f2 ff ff ff 	movl   $0xffffffff,-0xd28(%rbp)
    c3f2:	ff ff ff 
    c3f5:	c7 85 dc f2 ff ff ff 	movl   $0xffffffff,-0xd24(%rbp)
    c3fc:	ff ff ff 
    c3ff:	c7 85 e0 f2 ff ff ff 	movl   $0xffffffff,-0xd20(%rbp)
    c406:	ff ff ff 
    c409:	c7 85 e4 f2 ff ff ff 	movl   $0xffffffff,-0xd1c(%rbp)
    c410:	ff ff ff 
    c413:	c7 85 e8 f2 ff ff ff 	movl   $0xffffffff,-0xd18(%rbp)
    c41a:	ff ff ff 
    c41d:	c7 85 ec f2 ff ff ff 	movl   $0xffffffff,-0xd14(%rbp)
    c424:	ff ff ff 
    c427:	c7 85 f0 f2 ff ff ff 	movl   $0xffffffff,-0xd10(%rbp)
    c42e:	ff ff ff 
    c431:	48 8d 05 10 06 01 00 	lea    0x10610(%rip),%rax        # 1ca48 <g_647>
    c438:	48 89 85 f8 f0 ff ff 	mov    %rax,-0xf08(%rbp)
    c43f:	48 8d 85 f8 f0 ff ff 	lea    -0xf08(%rbp),%rax
    c446:	48 89 85 b0 f1 ff ff 	mov    %rax,-0xe50(%rbp)
    c44d:	48 b8 cd 8b 74 e8 5e 	movabs $0xf12d105ee8748bcd,%rax
    c454:	10 2d f1 
    c457:	48 89 85 60 f3 ff ff 	mov    %rax,-0xca0(%rbp)
    c45e:	48 89 85 68 f3 ff ff 	mov    %rax,-0xc98(%rbp)
    c465:	48 b9 42 57 5a 7b 88 	movabs $0x92e413887b5a5742,%rcx
    c46c:	13 e4 92 
    c46f:	48 89 8d 70 f3 ff ff 	mov    %rcx,-0xc90(%rbp)
    c476:	48 89 85 78 f3 ff ff 	mov    %rax,-0xc88(%rbp)
    c47d:	48 89 85 80 f3 ff ff 	mov    %rax,-0xc80(%rbp)
    c484:	48 89 8d 88 f3 ff ff 	mov    %rcx,-0xc78(%rbp)
    c48b:	48 c7 05 5a dd 00 00 	movq   $0xa,0xdd5a(%rip)        # 1a1f0 <g_1034>
    c492:	0a 00 00 00 
    c496:	eb 38                	jmp    c4d0 <func_35+0x13a3>
    c498:	48 8b 85 d0 f0 ff ff 	mov    -0xf30(%rbp),%rax
    c49f:	c7 00 fe de 6d 37    	movl   $0x376ddefe,(%rax)
    c4a5:	8b 85 14 f0 ff ff    	mov    -0xfec(%rbp),%eax
    c4ab:	85 c0                	test   %eax,%eax
    c4ad:	74 05                	je     c4b4 <func_35+0x1387>
    c4af:	e9 fb f6 ff ff       	jmpq   bbaf <func_35+0xa82>
    c4b4:	48 8b 05 35 dd 00 00 	mov    0xdd35(%rip),%rax        # 1a1f0 <g_1034>
    c4bb:	be 03 00 00 00       	mov    $0x3,%esi
    c4c0:	89 c7                	mov    %eax,%edi
    c4c2:	e8 09 ca ff ff       	callq  8ed0 <safe_sub_func_uint32_t_u_u>
    c4c7:	89 c0                	mov    %eax,%eax
    c4c9:	48 89 05 20 dd 00 00 	mov    %rax,0xdd20(%rip)        # 1a1f0 <g_1034>
    c4d0:	48 8b 05 19 dd 00 00 	mov    0xdd19(%rip),%rax        # 1a1f0 <g_1034>
    c4d7:	48 83 f8 04          	cmp    $0x4,%rax
    c4db:	76 bb                	jbe    c498 <func_35+0x136b>
    c4dd:	48 8b 95 30 f3 ff ff 	mov    -0xcd0(%rbp),%rdx
    c4e4:	48 8b 85 68 f7 ff ff 	mov    -0x898(%rbp),%rax
    c4eb:	48 39 c2             	cmp    %rax,%rdx
    c4ee:	0f 94 c0             	sete   %al
    c4f1:	0f b6 c0             	movzbl %al,%eax
    c4f4:	be 00 00 00 00       	mov    $0x0,%esi
    c4f9:	89 c7                	mov    %eax,%edi
    c4fb:	e8 be c7 ff ff       	callq  8cbe <safe_rshift_func_uint8_t_u_u>
    c500:	84 c0                	test   %al,%al
    c502:	0f 84 87 02 00 00    	je     c78f <func_35+0x1662>
    c508:	48 b8 52 96 e5 33 39 	movabs $0x13a3953933e59652,%rax
    c50f:	95 a3 13 
    c512:	48 89 85 b8 f1 ff ff 	mov    %rax,-0xe48(%rbp)
    c519:	48 8d 85 00 f6 ff ff 	lea    -0xa00(%rbp),%rax
    c520:	48 83 c0 30          	add    $0x30,%rax
    c524:	48 89 85 00 f1 ff ff 	mov    %rax,-0xf00(%rbp)
    c52b:	48 8d 85 00 f1 ff ff 	lea    -0xf00(%rbp),%rax
    c532:	48 89 85 08 f1 ff ff 	mov    %rax,-0xef8(%rbp)
    c539:	48 8d 85 08 f1 ff ff 	lea    -0xef8(%rbp),%rax
    c540:	48 89 85 c0 f1 ff ff 	mov    %rax,-0xe40(%rbp)
    c547:	48 c7 85 18 f1 ff ff 	movq   $0x0,-0xee8(%rbp)
    c54e:	00 00 00 00 
    c552:	e9 80 00 00 00       	jmpq   c5d7 <func_35+0x14aa>
    c557:	48 8d 05 ea 04 01 00 	lea    0x104ea(%rip),%rax        # 1ca48 <g_647>
    c55e:	48 89 85 10 f1 ff ff 	mov    %rax,-0xef0(%rbp)
    c565:	48 8d 85 10 f1 ff ff 	lea    -0xef0(%rbp),%rax
    c56c:	48 89 85 d8 f1 ff ff 	mov    %rax,-0xe28(%rbp)
    c573:	48 8d 15 d8 e7 00 00 	lea    0xe7d8(%rip),%rdx        # 1ad52 <g_1582>
    c57a:	48 8b 85 18 f1 ff ff 	mov    -0xee8(%rbp),%rax
    c581:	48 01 d0             	add    %rdx,%rax
    c584:	0f b6 00             	movzbl (%rax),%eax
    c587:	0f b6 c0             	movzbl %al,%eax
    c58a:	48 8b 1d af 0a 01 00 	mov    0x10aaf(%rip),%rbx        # 1d040 <g_2123>
    c591:	48 89 c7             	mov    %rax,%rdi
    c594:	e8 b0 1c 00 00       	callq  e249 <func_41>
    c599:	48 89 03             	mov    %rax,(%rbx)
    c59c:	48 8b 85 d0 f0 ff ff 	mov    -0xf30(%rbp),%rax
    c5a3:	8b 00                	mov    (%rax),%eax
    c5a5:	89 c2                	mov    %eax,%edx
    c5a7:	48 8b 85 18 f1 ff ff 	mov    -0xee8(%rbp),%rax
    c5ae:	09 c2                	or     %eax,%edx
    c5b0:	48 8b 85 d0 f0 ff ff 	mov    -0xf30(%rbp),%rax
    c5b7:	89 10                	mov    %edx,(%rax)
    c5b9:	48 8b 85 48 f1 ff ff 	mov    -0xeb8(%rbp),%rax
    c5c0:	48 89 85 d8 f1 ff ff 	mov    %rax,-0xe28(%rbp)
    c5c7:	48 83 bd b8 f1 ff ff 	cmpq   $0x0,-0xe48(%rbp)
    c5ce:	00 
    c5cf:	48 83 85 18 f1 ff ff 	addq   $0x1,-0xee8(%rbp)
    c5d6:	01 
    c5d7:	48 83 bd 18 f1 ff ff 	cmpq   $0x6,-0xee8(%rbp)
    c5de:	06 
    c5df:	0f 86 72 ff ff ff    	jbe    c557 <func_35+0x142a>
    c5e5:	48 c7 05 58 e7 00 00 	movq   $0x0,0xe758(%rip)        # 1ad48 <g_1348>
    c5ec:	00 00 00 00 
    c5f0:	e9 d0 00 00 00       	jmpq   c6c5 <func_35+0x1598>
    c5f5:	48 8d 05 8c 0c 01 00 	lea    0x10c8c(%rip),%rax        # 1d288 <g_2139+0x228>
    c5fc:	48 89 85 d0 f1 ff ff 	mov    %rax,-0xe30(%rbp)
    c603:	48 8b 05 76 06 01 00 	mov    0x10676(%rip),%rax        # 1cc80 <g_1602>
    c60a:	48 8b 00             	mov    (%rax),%rax
    c60d:	0f b7 00             	movzwl (%rax),%eax
    c610:	89 c2                	mov    %eax,%edx
    c612:	8b 85 e4 ef ff ff    	mov    -0x101c(%rbp),%eax
    c618:	31 d0                	xor    %edx,%eax
    c61a:	0f b6 d0             	movzbl %al,%edx
    c61d:	48 8b 85 d0 f0 ff ff 	mov    -0xf30(%rbp),%rax
    c624:	8b 00                	mov    (%rax),%eax
    c626:	0f b6 c0             	movzbl %al,%eax
    c629:	89 d6                	mov    %edx,%esi
    c62b:	89 c7                	mov    %eax,%edi
    c62d:	e8 46 c5 ff ff       	callq  8b78 <safe_sub_func_uint8_t_u_u>
    c632:	0f be d0             	movsbl %al,%edx
    c635:	48 8b 85 d8 f0 ff ff 	mov    -0xf28(%rbp),%rax
    c63c:	0f b7 08             	movzwl (%rax),%ecx
    c63f:	83 e9 01             	sub    $0x1,%ecx
    c642:	66 89 08             	mov    %cx,(%rax)
    c645:	0f b7 00             	movzwl (%rax),%eax
    c648:	0f b7 c8             	movzwl %ax,%ecx
    c64b:	48 8b 85 d0 f0 ff ff 	mov    -0xf30(%rbp),%rax
    c652:	8b 00                	mov    (%rax),%eax
    c654:	09 c8                	or     %ecx,%eax
    c656:	85 c0                	test   %eax,%eax
    c658:	75 0a                	jne    c664 <func_35+0x1537>
    c65a:	48 83 bd 98 f1 ff ff 	cmpq   $0x0,-0xe68(%rbp)
    c661:	00 
    c662:	74 07                	je     c66b <func_35+0x153e>
    c664:	b8 01 00 00 00       	mov    $0x1,%eax
    c669:	eb 05                	jmp    c670 <func_35+0x1543>
    c66b:	b8 00 00 00 00       	mov    $0x0,%eax
    c670:	0f be c0             	movsbl %al,%eax
    c673:	89 d6                	mov    %edx,%esi
    c675:	89 c7                	mov    %eax,%edi
    c677:	e8 96 bb ff ff       	callq  8212 <safe_mul_func_int8_t_s_s>
    c67c:	89 c2                	mov    %eax,%edx
    c67e:	48 8b 05 cb 02 01 00 	mov    0x102cb(%rip),%rax        # 1c950 <g_372>
    c685:	0f be d2             	movsbl %dl,%edx
    c688:	89 10                	mov    %edx,(%rax)
    c68a:	8b 85 e4 ef ff ff    	mov    -0x101c(%rbp),%eax
    c690:	0f b7 c0             	movzwl %ax,%eax
    c693:	be 0f 00 00 00       	mov    $0xf,%esi
    c698:	89 c7                	mov    %eax,%edi
    c69a:	e8 1f c7 ff ff       	callq  8dbe <safe_lshift_func_uint16_t_u_s>
    c69f:	0f b7 c0             	movzwl %ax,%eax
    c6a2:	89 c7                	mov    %eax,%edi
    c6a4:	e8 92 4f 00 00       	callq  1163b <func_50>
    c6a9:	48 8b 95 d0 f1 ff ff 	mov    -0xe30(%rbp),%rdx
    c6b0:	48 89 02             	mov    %rax,(%rdx)
    c6b3:	48 8b 05 8e e6 00 00 	mov    0xe68e(%rip),%rax        # 1ad48 <g_1348>
    c6ba:	48 83 c0 01          	add    $0x1,%rax
    c6be:	48 89 05 83 e6 00 00 	mov    %rax,0xe683(%rip)        # 1ad48 <g_1348>
    c6c5:	48 8b 05 7c e6 00 00 	mov    0xe67c(%rip),%rax        # 1ad48 <g_1348>
    c6cc:	48 83 f8 12          	cmp    $0x12,%rax
    c6d0:	0f 84 1f ff ff ff    	je     c5f5 <func_35+0x14c8>
    c6d6:	c7 05 c4 d9 00 00 00 	movl   $0x0,0xd9c4(%rip)        # 1a0a4 <g_206>
    c6dd:	00 00 00 
    c6e0:	e9 96 00 00 00       	jmpq   c77b <func_35+0x164e>
    c6e5:	48 8d 85 d0 f0 ff ff 	lea    -0xf30(%rbp),%rax
    c6ec:	48 89 85 c8 f1 ff ff 	mov    %rax,-0xe38(%rbp)
    c6f3:	48 8b 05 46 03 01 00 	mov    0x10346(%rip),%rax        # 1ca40 <g_648>
    c6fa:	48 8b 00             	mov    (%rax),%rax
    c6fd:	c6 00 00             	movb   $0x0,(%rax)
    c700:	0f b6 45 c7          	movzbl -0x39(%rbp),%eax
    c704:	0f b6 d8             	movzbl %al,%ebx
    c707:	48 83 bd c0 f1 ff ff 	cmpq   $0x0,-0xe40(%rbp)
    c70e:	00 
    c70f:	0f 94 c0             	sete   %al
    c712:	0f b6 c0             	movzbl %al,%eax
    c715:	be 00 00 00 00       	mov    $0x0,%esi
    c71a:	89 c7                	mov    %eax,%edi
    c71c:	e8 e4 be ff ff       	callq  8605 <safe_sub_func_int32_t_s_s>
    c721:	0f b6 c0             	movzbl %al,%eax
    c724:	89 de                	mov    %ebx,%esi
    c726:	89 c7                	mov    %eax,%edi
    c728:	e8 66 c4 ff ff       	callq  8b93 <safe_mul_func_uint8_t_u_u>
    c72d:	0f b6 c0             	movzbl %al,%eax
    c730:	be 08 00 00 00       	mov    $0x8,%esi
    c735:	89 c7                	mov    %eax,%edi
    c737:	e8 27 be ff ff       	callq  8563 <safe_rshift_func_int16_t_s_u>
    c73c:	f7 d0                	not    %eax
    c73e:	66 c1 e8 0f          	shr    $0xf,%ax
    c742:	0f b6 c0             	movzbl %al,%eax
    c745:	48 89 c7             	mov    %rax,%rdi
    c748:	e8 fc 1a 00 00       	callq  e249 <func_41>
    c74d:	48 89 85 40 f1 ff ff 	mov    %rax,-0xec0(%rbp)
    c754:	83 b5 28 f0 ff ff f7 	xorl   $0xfffffff7,-0xfd8(%rbp)
    c75b:	48 8b 85 c8 f1 ff ff 	mov    -0xe38(%rbp),%rax
    c762:	48 8b 95 e8 ef ff ff 	mov    -0x1018(%rbp),%rdx
    c769:	48 89 10             	mov    %rdx,(%rax)
    c76c:	8b 05 32 d9 00 00    	mov    0xd932(%rip),%eax        # 1a0a4 <g_206>
    c772:	83 e8 01             	sub    $0x1,%eax
    c775:	89 05 29 d9 00 00    	mov    %eax,0xd929(%rip)        # 1a0a4 <g_206>
    c77b:	8b 05 23 d9 00 00    	mov    0xd923(%rip),%eax        # 1a0a4 <g_206>
    c781:	83 f8 e6             	cmp    $0xffffffe6,%eax
    c784:	0f 8c 5b ff ff ff    	jl     c6e5 <func_35+0x15b8>
    c78a:	e9 dd 00 00 00       	jmpq   c86c <func_35+0x173f>
    c78f:	8b 85 24 f0 ff ff    	mov    -0xfdc(%rbp),%eax
    c795:	0f be d8             	movsbl %al,%ebx
    c798:	8b 85 e4 ef ff ff    	mov    -0x101c(%rbp),%eax
    c79e:	f7 d0                	not    %eax
    c7a0:	89 c2                	mov    %eax,%edx
    c7a2:	8b 05 f0 d8 00 00    	mov    0xd8f0(%rip),%eax        # 1a098 <g_147>
    c7a8:	39 c2                	cmp    %eax,%edx
    c7aa:	0f 95 c2             	setne  %dl
    c7ad:	48 8b 05 84 02 01 00 	mov    0x10284(%rip),%rax        # 1ca38 <g_649>
    c7b4:	88 10                	mov    %dl,(%rax)
    c7b6:	be 0c 00 00 00       	mov    $0xc,%esi
    c7bb:	bf 01 00 00 00       	mov    $0x1,%edi
    c7c0:	e8 b5 c6 ff ff       	callq  8e7a <safe_rshift_func_uint16_t_u_u>
    c7c5:	0f b6 c0             	movzbl %al,%eax
    c7c8:	be 34 00 00 00       	mov    $0x34,%esi
    c7cd:	89 c7                	mov    %eax,%edi
    c7cf:	e8 07 c4 ff ff       	callq  8bdb <safe_div_func_uint8_t_u_u>
    c7d4:	0f b6 c0             	movzbl %al,%eax
    c7d7:	48 8b 95 68 f1 ff ff 	mov    -0xe98(%rbp),%rdx
    c7de:	48 8b 12             	mov    (%rdx),%rdx
    c7e1:	66 c7 02 f8 ff       	movw   $0xfff8,(%rdx)
    c7e6:	89 c6                	mov    %eax,%esi
    c7e8:	bf f8 ff 00 00       	mov    $0xfff8,%edi
    c7ed:	e8 6a c5 ff ff       	callq  8d5c <safe_mod_func_uint16_t_u_u>
    c7f2:	0f b7 c0             	movzwl %ax,%eax
    c7f5:	39 85 e4 ef ff ff    	cmp    %eax,-0x101c(%rbp)
    c7fb:	0f 92 c0             	setb   %al
    c7fe:	0f b6 c0             	movzbl %al,%eax
    c801:	89 de                	mov    %ebx,%esi
    c803:	89 c7                	mov    %eax,%edi
    c805:	e8 08 ba ff ff       	callq  8212 <safe_mul_func_int8_t_s_s>
    c80a:	0f be d0             	movsbl %al,%edx
    c80d:	48 8d 05 d4 04 01 00 	lea    0x104d4(%rip),%rax        # 1cce8 <g_1900>
    c814:	48 8b 00             	mov    (%rax),%rax
    c817:	48 8b 00             	mov    (%rax),%rax
    c81a:	0f b6 00             	movzbl (%rax),%eax
    c81d:	0f b6 c0             	movzbl %al,%eax
    c820:	89 d6                	mov    %edx,%esi
    c822:	89 c7                	mov    %eax,%edi
    c824:	e8 23 c4 ff ff       	callq  8c4c <safe_lshift_func_uint8_t_u_u>
    c829:	c7 85 dc f2 ff ff ff 	movl   $0xffffffff,-0xd24(%rbp)
    c830:	ff ff ff 
    c833:	8b 95 dc f2 ff ff    	mov    -0xd24(%rbp),%edx
    c839:	8b 85 e4 ef ff ff    	mov    -0x101c(%rbp),%eax
    c83f:	98                   	cwtl   
    c840:	89 d6                	mov    %edx,%esi
    c842:	89 c7                	mov    %eax,%edi
    c844:	e8 49 bc ff ff       	callq  8492 <safe_lshift_func_int16_t_s_s>
    c849:	98                   	cwtl   
    c84a:	89 c6                	mov    %eax,%esi
    c84c:	bf 0c 48 00 00       	mov    $0x480c,%edi
    c851:	e8 3c bc ff ff       	callq  8492 <safe_lshift_func_int16_t_s_s>
    c856:	48 0f bf c0          	movswq %ax,%rax
    c85a:	48 8b 1d 7f 0a 01 00 	mov    0x10a7f(%rip),%rbx        # 1d2e0 <g_2175>
    c861:	48 89 c7             	mov    %rax,%rdi
    c864:	e8 e0 19 00 00       	callq  e249 <func_41>
    c869:	48 89 03             	mov    %rax,(%rbx)
    c86c:	c7 05 4e d9 00 00 00 	movl   $0x0,0xd94e(%rip)        # 1a1c4 <g_697>
    c873:	00 00 00 
    c876:	e9 ea 04 00 00       	jmpq   cd65 <func_35+0x1c38>
    c87b:	48 8d 85 f0 f0 ff ff 	lea    -0xf10(%rbp),%rax
    c882:	48 89 85 e0 f1 ff ff 	mov    %rax,-0xe20(%rbp)
    c889:	48 8d 85 40 f8 ff ff 	lea    -0x7c0(%rbp),%rax
    c890:	48 8d 15 e9 f6 00 00 	lea    0xf6e9(%rip),%rdx        # 1bf80 <g_2887+0x640>
    c897:	b9 28 00 00 00       	mov    $0x28,%ecx
    c89c:	48 89 c7             	mov    %rax,%rdi
    c89f:	48 89 d6             	mov    %rdx,%rsi
    c8a2:	f3 48 a5             	rep movsq %ds:(%rsi),%es:(%rdi)
    c8a5:	c7 85 b0 f2 ff ff 42 	movl   $0xadb96242,-0xd50(%rbp)
    c8ac:	62 b9 ad 
    c8af:	c7 85 b4 f2 ff ff 42 	movl   $0xadb96242,-0xd4c(%rbp)
    c8b6:	62 b9 ad 
    c8b9:	c7 85 b8 f2 ff ff 42 	movl   $0xadb96242,-0xd48(%rbp)
    c8c0:	62 b9 ad 
    c8c3:	c7 85 bc f2 ff ff 42 	movl   $0xadb96242,-0xd44(%rbp)
    c8ca:	62 b9 ad 
    c8cd:	c7 85 c0 f2 ff ff 42 	movl   $0xadb96242,-0xd40(%rbp)
    c8d4:	62 b9 ad 
    c8d7:	c7 85 c4 f2 ff ff 42 	movl   $0xadb96242,-0xd3c(%rbp)
    c8de:	62 b9 ad 
    c8e1:	48 8b 85 d0 f0 ff ff 	mov    -0xf30(%rbp),%rax
    c8e8:	8b 00                	mov    (%rax),%eax
    c8ea:	0f b7 c0             	movzwl %ax,%eax
    c8ed:	be 06 00 00 00       	mov    $0x6,%esi
    c8f2:	89 c7                	mov    %eax,%edi
    c8f4:	e8 0d c5 ff ff       	callq  8e06 <safe_lshift_func_uint16_t_u_u>
    c8f9:	48 8d 05 30 03 01 00 	lea    0x10330(%rip),%rax        # 1cc30 <g_1501>
    c900:	48 89 85 e8 f1 ff ff 	mov    %rax,-0xe18(%rbp)
    c907:	48 8d 85 94 f2 ff ff 	lea    -0xd6c(%rbp),%rax
    c90e:	48 83 c0 08          	add    $0x8,%rax
    c912:	48 89 85 f0 f1 ff ff 	mov    %rax,-0xe10(%rbp)
    c919:	c7 85 54 f0 ff ff 00 	movl   $0x0,-0xfac(%rbp)
    c920:	00 00 00 
    c923:	eb 1e                	jmp    c943 <func_35+0x1816>
    c925:	8b 85 54 f0 ff ff    	mov    -0xfac(%rbp),%eax
    c92b:	48 98                	cltq   
    c92d:	48 8d 15 f4 d6 00 00 	lea    0xd6f4(%rip),%rdx        # 1a028 <g_3>
    c934:	48 89 94 c5 60 f4 ff 	mov    %rdx,-0xba0(%rbp,%rax,8)
    c93b:	ff 
    c93c:	83 85 54 f0 ff ff 01 	addl   $0x1,-0xfac(%rbp)
    c943:	83 bd 54 f0 ff ff 08 	cmpl   $0x8,-0xfac(%rbp)
    c94a:	7e d9                	jle    c925 <func_35+0x17f8>
    c94c:	c7 85 54 f0 ff ff 00 	movl   $0x0,-0xfac(%rbp)
    c953:	00 00 00 
    c956:	eb 22                	jmp    c97a <func_35+0x184d>
    c958:	8b 85 54 f0 ff ff    	mov    -0xfac(%rbp),%eax
    c95e:	48 98                	cltq   
    c960:	48 8d 95 60 f4 ff ff 	lea    -0xba0(%rbp),%rdx
    c967:	48 83 c2 10          	add    $0x10,%rdx
    c96b:	48 89 94 c5 88 f2 ff 	mov    %rdx,-0xd78(%rbp,%rax,8)
    c972:	ff 
    c973:	83 85 54 f0 ff ff 01 	addl   $0x1,-0xfac(%rbp)
    c97a:	83 bd 54 f0 ff ff 00 	cmpl   $0x0,-0xfac(%rbp)
    c981:	7e d5                	jle    c958 <func_35+0x182b>
    c983:	48 8b 85 f0 ef ff ff 	mov    -0x1010(%rbp),%rax
    c98a:	8b 00                	mov    (%rax),%eax
    c98c:	85 c0                	test   %eax,%eax
    c98e:	0f 85 e0 03 00 00    	jne    cd74 <func_35+0x1c47>
    c994:	48 8b 85 70 f4 ff ff 	mov    -0xb90(%rbp),%rax
    c99b:	48 89 85 f0 ef ff ff 	mov    %rax,-0x1010(%rbp)
    c9a2:	8b 85 e4 ef ff ff    	mov    -0x101c(%rbp),%eax
    c9a8:	0f b6 d8             	movzbl %al,%ebx
    c9ab:	0f b6 85 0d f0 ff ff 	movzbl -0xff3(%rbp),%eax
    c9b2:	44 0f be e0          	movsbl %al,%r12d
    c9b6:	44 8b ad e4 ef ff ff 	mov    -0x101c(%rbp),%r13d
    c9bd:	44 8b b5 e4 ef ff ff 	mov    -0x101c(%rbp),%r14d
    c9c4:	8b 85 e4 ef ff ff    	mov    -0x101c(%rbp),%eax
    c9ca:	44 0f b6 f8          	movzbl %al,%r15d
    c9ce:	8b 85 e4 ef ff ff    	mov    -0x101c(%rbp),%eax
    c9d4:	0f b7 c0             	movzwl %ax,%eax
    c9d7:	be 01 00 00 00       	mov    $0x1,%esi
    c9dc:	89 c7                	mov    %eax,%edi
    c9de:	e8 23 c4 ff ff       	callq  8e06 <safe_lshift_func_uint16_t_u_u>
    c9e3:	66 83 f8 01          	cmp    $0x1,%ax
    c9e7:	75 17                	jne    ca00 <func_35+0x18d3>
    c9e9:	48 8b 05 00 03 01 00 	mov    0x10300(%rip),%rax        # 1ccf0 <g_1898>
    c9f0:	48 8b 00             	mov    (%rax),%rax
    c9f3:	48 8b 00             	mov    (%rax),%rax
    c9f6:	48 8b 00             	mov    (%rax),%rax
    c9f9:	0f b6 00             	movzbl (%rax),%eax
    c9fc:	84 c0                	test   %al,%al
    c9fe:	74 07                	je     ca07 <func_35+0x18da>
    ca00:	b8 01 00 00 00       	mov    $0x1,%eax
    ca05:	eb 05                	jmp    ca0c <func_35+0x18df>
    ca07:	b8 00 00 00 00       	mov    $0x0,%eax
    ca0c:	0f b6 c0             	movzbl %al,%eax
    ca0f:	44 89 fe             	mov    %r15d,%esi
    ca12:	89 c7                	mov    %eax,%edi
    ca14:	e8 41 c1 ff ff       	callq  8b5a <safe_add_func_uint8_t_u_u>
    ca19:	0f b6 d0             	movzbl %al,%edx
    ca1c:	48 8b 85 f0 ef ff ff 	mov    -0x1010(%rbp),%rax
    ca23:	8b 00                	mov    (%rax),%eax
    ca25:	09 d0                	or     %edx,%eax
    ca27:	23 85 e4 ef ff ff    	and    -0x101c(%rbp),%eax
    ca2d:	89 c1                	mov    %eax,%ecx
    ca2f:	48 8b 85 68 f1 ff ff 	mov    -0xe98(%rbp),%rax
    ca36:	48 8b 00             	mov    (%rax),%rax
    ca39:	0f b7 10             	movzwl (%rax),%edx
    ca3c:	48 8b 85 68 f1 ff ff 	mov    -0xe98(%rbp),%rax
    ca43:	48 8b 00             	mov    (%rax),%rax
    ca46:	09 ca                	or     %ecx,%edx
    ca48:	66 89 10             	mov    %dx,(%rax)
    ca4b:	be ff ff 00 00       	mov    $0xffff,%esi
    ca50:	bf 00 00 00 00       	mov    $0x0,%edi
    ca55:	e8 a5 c2 ff ff       	callq  8cff <safe_add_func_uint16_t_u_u>
    ca5a:	48 8b 95 78 f3 ff ff 	mov    -0xc88(%rbp),%rdx
    ca61:	8b 85 24 f0 ff ff    	mov    -0xfdc(%rbp),%eax
    ca67:	48 98                	cltq   
    ca69:	48 39 c2             	cmp    %rax,%rdx
    ca6c:	0f 9c c0             	setl   %al
    ca6f:	0f b6 c0             	movzbl %al,%eax
    ca72:	4c 89 f6             	mov    %r14,%rsi
    ca75:	48 89 c7             	mov    %rax,%rdi
    ca78:	e8 32 c6 ff ff       	callq  90af <safe_div_func_uint64_t_u_u>
    ca7d:	98                   	cwtl   
    ca7e:	89 c6                	mov    %eax,%esi
    ca80:	bf ff ff ff ff       	mov    $0xffffffff,%edi
    ca85:	e8 49 b9 ff ff       	callq  83d3 <safe_sub_func_int16_t_s_s>
    ca8a:	48 8b 15 97 01 01 00 	mov    0x10197(%rip),%rdx        # 1cc28 <g_1389>
    ca91:	0f b7 12             	movzwl (%rdx),%edx
    ca94:	66 39 d0             	cmp    %dx,%ax
    ca97:	0f 9e c0             	setle  %al
    ca9a:	0f b6 c0             	movzbl %al,%eax
    ca9d:	89 85 dc f2 ff ff    	mov    %eax,-0xd24(%rbp)
    caa3:	48 8b 85 d0 f0 ff ff 	mov    -0xf30(%rbp),%rax
    caaa:	8b 00                	mov    (%rax),%eax
    caac:	0f b6 d0             	movzbl %al,%edx
    caaf:	48 8b 85 88 f1 ff ff 	mov    -0xe78(%rbp),%rax
    cab6:	48 89 85 e0 f1 ff ff 	mov    %rax,-0xe20(%rbp)
    cabd:	48 8b 85 e0 f1 ff ff 	mov    -0xe20(%rbp),%rax
    cac4:	48 3b 85 b0 f1 ff ff 	cmp    -0xe50(%rbp),%rax
    cacb:	0f 95 c0             	setne  %al
    cace:	0f b6 c0             	movzbl %al,%eax
    cad1:	89 d6                	mov    %edx,%esi
    cad3:	89 c7                	mov    %eax,%edi
    cad5:	e8 9e c0 ff ff       	callq  8b78 <safe_sub_func_uint8_t_u_u>
    cada:	84 c0                	test   %al,%al
    cadc:	74 18                	je     caf6 <func_35+0x19c9>
    cade:	48 8b 05 33 01 01 00 	mov    0x10133(%rip),%rax        # 1cc18 <g_1337>
    cae5:	48 8b 00             	mov    (%rax),%rax
    cae8:	0f b6 00             	movzbl (%rax),%eax
    caeb:	84 c0                	test   %al,%al
    caed:	74 07                	je     caf6 <func_35+0x19c9>
    caef:	ba 01 00 00 00       	mov    $0x1,%edx
    caf4:	eb 05                	jmp    cafb <func_35+0x19ce>
    caf6:	ba 00 00 00 00       	mov    $0x0,%edx
    cafb:	48 8b 05 4e fe 00 00 	mov    0xfe4e(%rip),%rax        # 1c950 <g_372>
    cb02:	89 10                	mov    %edx,(%rax)
    cb04:	8b 00                	mov    (%rax),%eax
    cb06:	44 89 ee             	mov    %r13d,%esi
    cb09:	89 c7                	mov    %eax,%edi
    cb0b:	e8 a6 ba ff ff       	callq  85b6 <safe_add_func_int32_t_s_s>
    cb10:	48 8b 05 89 1f 01 00 	mov    0x11f89(%rip),%rax        # 1eaa0 <g_1914>
    cb17:	48 39 85 80 f1 ff ff 	cmp    %rax,-0xe80(%rbp)
    cb1e:	0f 95 c0             	setne  %al
    cb21:	0f b6 d0             	movzbl %al,%edx
    cb24:	48 8b 05 fd 00 01 00 	mov    0x100fd(%rip),%rax        # 1cc28 <g_1389>
    cb2b:	0f b7 00             	movzwl (%rax),%eax
    cb2e:	98                   	cwtl   
    cb2f:	39 c2                	cmp    %eax,%edx
    cb31:	0f 9d c2             	setge  %dl
    cb34:	48 8b 05 05 fe 00 00 	mov    0xfe05(%rip),%rax        # 1c940 <g_284>
    cb3b:	0f b6 d2             	movzbl %dl,%edx
    cb3e:	48 89 10             	mov    %rdx,(%rax)
    cb41:	48 8b 10             	mov    (%rax),%rdx
    cb44:	8b 85 e4 ef ff ff    	mov    -0x101c(%rbp),%eax
    cb4a:	48 39 c2             	cmp    %rax,%rdx
    cb4d:	0f 95 c0             	setne  %al
    cb50:	0f b6 c0             	movzbl %al,%eax
    cb53:	44 89 e6             	mov    %r12d,%esi
    cb56:	89 c7                	mov    %eax,%edi
    cb58:	e8 95 b6 ff ff       	callq  81f2 <safe_sub_func_int8_t_s_s>
    cb5d:	84 c0                	test   %al,%al
    cb5f:	74 07                	je     cb68 <func_35+0x1a3b>
    cb61:	b8 01 00 00 00       	mov    $0x1,%eax
    cb66:	eb 05                	jmp    cb6d <func_35+0x1a40>
    cb68:	b8 00 00 00 00       	mov    $0x0,%eax
    cb6d:	89 c2                	mov    %eax,%edx
    cb6f:	48 8b 85 e8 ef ff ff 	mov    -0x1018(%rbp),%rax
    cb76:	8b 00                	mov    (%rax),%eax
    cb78:	21 d0                	and    %edx,%eax
    cb7a:	0f b6 c0             	movzbl %al,%eax
    cb7d:	89 de                	mov    %ebx,%esi
    cb7f:	89 c7                	mov    %eax,%edi
    cb81:	e8 55 c0 ff ff       	callq  8bdb <safe_div_func_uint8_t_u_u>
    cb86:	48 8b 85 f0 f1 ff ff 	mov    -0xe10(%rbp),%rax
    cb8d:	c7 00 01 00 00 00    	movl   $0x1,(%rax)
    cb93:	48 8b 85 f0 f1 ff ff 	mov    -0xe10(%rbp),%rax
    cb9a:	8b 00                	mov    (%rax),%eax
    cb9c:	89 85 f0 f5 ff ff    	mov    %eax,-0xa10(%rbp)
    cba2:	48 c7 05 43 d6 00 00 	movq   $0x12,0xd643(%rip)        # 1a1f0 <g_1034>
    cba9:	12 00 00 00 
    cbad:	e9 90 01 00 00       	jmpq   cd42 <func_35+0x1c15>
    cbb2:	48 8b 15 97 fd 00 00 	mov    0xfd97(%rip),%rdx        # 1c950 <g_372>
    cbb9:	48 8b 05 90 fd 00 00 	mov    0xfd90(%rip),%rax        # 1c950 <g_372>
    cbc0:	8b 12                	mov    (%rdx),%edx
    cbc2:	89 10                	mov    %edx,(%rax)
    cbc4:	80 bd 0d f0 ff ff 00 	cmpb   $0x0,-0xff3(%rbp)
    cbcb:	0f 85 84 01 00 00    	jne    cd55 <func_35+0x1c28>
    cbd1:	0f b7 85 20 f4 ff ff 	movzwl -0xbe0(%rbp),%eax
    cbd8:	98                   	cwtl   
    cbd9:	be 0f 00 00 00       	mov    $0xf,%esi
    cbde:	89 c7                	mov    %eax,%edi
    cbe0:	e8 7e b9 ff ff       	callq  8563 <safe_rshift_func_int16_t_s_u>
    cbe5:	0f b6 c0             	movzbl %al,%eax
    cbe8:	be ff 00 00 00       	mov    $0xff,%esi
    cbed:	89 c7                	mov    %eax,%edi
    cbef:	e8 9f bf ff ff       	callq  8b93 <safe_mul_func_uint8_t_u_u>
    cbf4:	0f b6 d0             	movzbl %al,%edx
    cbf7:	48 8d 05 ea 00 01 00 	lea    0x100ea(%rip),%rax        # 1cce8 <g_1900>
    cbfe:	48 8b 00             	mov    (%rax),%rax
    cc01:	48 8b 00             	mov    (%rax),%rax
    cc04:	0f b6 00             	movzbl (%rax),%eax
    cc07:	0f b6 c0             	movzbl %al,%eax
    cc0a:	89 d6                	mov    %edx,%esi
    cc0c:	89 c7                	mov    %eax,%edi
    cc0e:	e8 80 bf ff ff       	callq  8b93 <safe_mul_func_uint8_t_u_u>
    cc13:	44 0f b6 f0          	movzbl %al,%r14d
    cc17:	8b 85 b0 f2 ff ff    	mov    -0xd50(%rbp),%eax
    cc1d:	0f b7 d8             	movzwl %ax,%ebx
    cc20:	8b 85 e4 ef ff ff    	mov    -0x101c(%rbp),%eax
    cc26:	44 0f b7 e0          	movzwl %ax,%r12d
    cc2a:	48 8b 85 68 f1 ff ff 	mov    -0xe98(%rbp),%rax
    cc31:	48 8b 00             	mov    (%rax),%rax
    cc34:	66 c7 00 3b 90       	movw   $0x903b,(%rax)
    cc39:	48 8b 85 d0 f0 ff ff 	mov    -0xf30(%rbp),%rax
    cc40:	8b 00                	mov    (%rax),%eax
    cc42:	41 89 c5             	mov    %eax,%r13d
    cc45:	83 bd e4 ef ff ff 00 	cmpl   $0x0,-0x101c(%rbp)
    cc4c:	75 09                	jne    cc57 <func_35+0x1b2a>
    cc4e:	83 bd e4 ef ff ff 00 	cmpl   $0x0,-0x101c(%rbp)
    cc55:	74 07                	je     cc5e <func_35+0x1b31>
    cc57:	b8 01 00 00 00       	mov    $0x1,%eax
    cc5c:	eb 05                	jmp    cc63 <func_35+0x1b36>
    cc5e:	b8 00 00 00 00       	mov    $0x0,%eax
    cc63:	0f b6 d0             	movzbl %al,%edx
    cc66:	8b 85 b4 f2 ff ff    	mov    -0xd4c(%rbp),%eax
    cc6c:	0f b6 c0             	movzbl %al,%eax
    cc6f:	89 d6                	mov    %edx,%esi
    cc71:	89 c7                	mov    %eax,%edi
    cc73:	e8 1b bf ff ff       	callq  8b93 <safe_mul_func_uint8_t_u_u>
    cc78:	0f b6 c0             	movzbl %al,%eax
    cc7b:	44 89 ee             	mov    %r13d,%esi
    cc7e:	89 c7                	mov    %eax,%edi
    cc80:	e8 f5 c1 ff ff       	callq  8e7a <safe_rshift_func_uint16_t_u_u>
    cc85:	8b 85 18 f0 ff ff    	mov    -0xfe8(%rbp),%eax
    cc8b:	33 85 e4 ef ff ff    	xor    -0x101c(%rbp),%eax
    cc91:	89 85 18 f0 ff ff    	mov    %eax,-0xfe8(%rbp)
    cc97:	8b 85 18 f0 ff ff    	mov    -0xfe8(%rbp),%eax
    cc9d:	98                   	cwtl   
    cc9e:	be 01 00 00 00       	mov    $0x1,%esi
    cca3:	89 c7                	mov    %eax,%edi
    cca5:	e8 80 b8 ff ff       	callq  852a <safe_rshift_func_int16_t_s_s>
    ccaa:	44 0f be e8          	movsbl %al,%r13d
    ccae:	0f b7 85 52 f4 ff ff 	movzwl -0xbae(%rbp),%eax
    ccb5:	98                   	cwtl   
    ccb6:	be 08 00 00 00       	mov    $0x8,%esi
    ccbb:	89 c7                	mov    %eax,%edi
    ccbd:	e8 d0 b7 ff ff       	callq  8492 <safe_lshift_func_int16_t_s_s>
    ccc2:	0f be c0             	movsbl %al,%eax
    ccc5:	44 89 ee             	mov    %r13d,%esi
    ccc8:	89 c7                	mov    %eax,%edi
    ccca:	e8 9b b5 ff ff       	callq  826a <safe_div_func_int8_t_s_s>
    cccf:	44 89 e6             	mov    %r12d,%esi
    ccd2:	bf 00 00 00 00       	mov    $0x0,%edi
    ccd7:	e8 43 c0 ff ff       	callq  8d1f <safe_sub_func_uint16_t_u_u>
    ccdc:	66 85 c0             	test   %ax,%ax
    ccdf:	75 0c                	jne    cced <func_35+0x1bc0>
    cce1:	0f b7 85 4c f4 ff ff 	movzwl -0xbb4(%rbp),%eax
    cce8:	66 85 c0             	test   %ax,%ax
    cceb:	74 07                	je     ccf4 <func_35+0x1bc7>
    cced:	b8 01 00 00 00       	mov    $0x1,%eax
    ccf2:	eb 05                	jmp    ccf9 <func_35+0x1bcc>
    ccf4:	b8 00 00 00 00       	mov    $0x0,%eax
    ccf9:	0f b7 c0             	movzwl %ax,%eax
    ccfc:	89 de                	mov    %ebx,%esi
    ccfe:	89 c7                	mov    %eax,%edi
    cd00:	e8 1a c0 ff ff       	callq  8d1f <safe_sub_func_uint16_t_u_u>
    cd05:	0f b7 d0             	movzwl %ax,%edx
    cd08:	48 8b 85 40 f1 ff ff 	mov    -0xec0(%rbp),%rax
    cd0f:	8b 00                	mov    (%rax),%eax
    cd11:	21 d0                	and    %edx,%eax
    cd13:	44 89 f2             	mov    %r14d,%edx
    cd16:	31 c2                	xor    %eax,%edx
    cd18:	48 8b 85 40 f1 ff ff 	mov    -0xec0(%rbp),%rax
    cd1f:	89 10                	mov    %edx,(%rax)
    cd21:	48 8b 05 c8 d4 00 00 	mov    0xd4c8(%rip),%rax        # 1a1f0 <g_1034>
    cd28:	0f be c0             	movsbl %al,%eax
    cd2b:	be 01 00 00 00       	mov    $0x1,%esi
    cd30:	89 c7                	mov    %eax,%edi
    cd32:	e8 bb b4 ff ff       	callq  81f2 <safe_sub_func_int8_t_s_s>
    cd37:	48 0f be c0          	movsbq %al,%rax
    cd3b:	48 89 05 ae d4 00 00 	mov    %rax,0xd4ae(%rip)        # 1a1f0 <g_1034>
    cd42:	48 8b 05 a7 d4 00 00 	mov    0xd4a7(%rip),%rax        # 1a1f0 <g_1034>
    cd49:	48 83 f8 05          	cmp    $0x5,%rax
    cd4d:	0f 84 5f fe ff ff    	je     cbb2 <func_35+0x1a85>
    cd53:	eb 01                	jmp    cd56 <func_35+0x1c29>
    cd55:	90                   	nop
    cd56:	8b 05 68 d4 00 00    	mov    0xd468(%rip),%eax        # 1a1c4 <g_697>
    cd5c:	83 c0 01             	add    $0x1,%eax
    cd5f:	89 05 5f d4 00 00    	mov    %eax,0xd45f(%rip)        # 1a1c4 <g_697>
    cd65:	8b 05 59 d4 00 00    	mov    0xd459(%rip),%eax        # 1a1c4 <g_697>
    cd6b:	83 f8 09             	cmp    $0x9,%eax
    cd6e:	0f 87 07 fb ff ff    	ja     c87b <func_35+0x174e>
    cd74:	48 8b 05 bd fb 00 00 	mov    0xfbbd(%rip),%rax        # 1c938 <g_268>
    cd7b:	48 8b 00             	mov    (%rax),%rax
    cd7e:	48 85 c0             	test   %rax,%rax
    cd81:	0f 95 c0             	setne  %al
    cd84:	0f b6 c0             	movzbl %al,%eax
    cd87:	89 c6                	mov    %eax,%esi
    cd89:	bf 90 00 00 00       	mov    $0x90,%edi
    cd8e:	e8 c7 bd ff ff       	callq  8b5a <safe_add_func_uint8_t_u_u>
    cd93:	48 8b 85 d0 f0 ff ff 	mov    -0xf30(%rbp),%rax
    cd9a:	8b 00                	mov    (%rax),%eax
    cd9c:	48 98                	cltq   
    cd9e:	48 89 c6             	mov    %rax,%rsi
    cda1:	bf 01 00 00 00       	mov    $0x1,%edi
    cda6:	e8 fd ba ff ff       	callq  88a8 <safe_sub_func_int64_t_s_s>
    cdab:	89 c2                	mov    %eax,%edx
    cdad:	48 8b 85 d0 f0 ff ff 	mov    -0xf30(%rbp),%rax
    cdb4:	8b 00                	mov    (%rax),%eax
    cdb6:	98                   	cwtl   
    cdb7:	89 d6                	mov    %edx,%esi
    cdb9:	89 c7                	mov    %eax,%edi
    cdbb:	e8 d2 b6 ff ff       	callq  8492 <safe_lshift_func_int16_t_s_s>
    cdc0:	98                   	cwtl   
    cdc1:	89 c6                	mov    %eax,%esi
    cdc3:	bf 00 00 00 00       	mov    $0x0,%edi
    cdc8:	e8 14 b7 ff ff       	callq  84e1 <safe_lshift_func_int16_t_s_u>
    cdcd:	0f bf d8             	movswl %ax,%ebx
    cdd0:	be 31 74 e5 db       	mov    $0xdbe57431,%esi
    cdd5:	bf ff ff ff ff       	mov    $0xffffffff,%edi
    cdda:	e8 ed b8 ff ff       	callq  86cc <safe_mod_func_int32_t_s_s>
    cddf:	21 c3                	and    %eax,%ebx
    cde1:	89 da                	mov    %ebx,%edx
    cde3:	48 8b 85 90 f1 ff ff 	mov    -0xe70(%rbp),%rax
    cdea:	8b 00                	mov    (%rax),%eax
    cdec:	21 c2                	and    %eax,%edx
    cdee:	48 8b 85 90 f1 ff ff 	mov    -0xe70(%rbp),%rax
    cdf5:	89 10                	mov    %edx,(%rax)
    cdf7:	c7 05 c3 d3 00 00 00 	movl   $0x0,0xd3c3(%rip)        # 1a1c4 <g_697>
    cdfe:	00 00 00 
    ce01:	e9 a8 0e 00 00       	jmpq   dcae <func_35+0x2b81>
    ce06:	c7 85 98 f0 ff ff 01 	movl   $0x1,-0xf68(%rbp)
    ce0d:	00 00 00 
    ce10:	48 8d 05 f9 fa 00 00 	lea    0xfaf9(%rip),%rax        # 1c910 <g_116>
    ce17:	48 89 85 80 f2 ff ff 	mov    %rax,-0xd80(%rbp)
    ce1e:	48 8d 05 03 fe 00 00 	lea    0xfe03(%rip),%rax        # 1cc28 <g_1389>
    ce25:	48 89 85 08 f1 ff ff 	mov    %rax,-0xef8(%rbp)
    ce2c:	48 8d 85 08 f1 ff ff 	lea    -0xef8(%rbp),%rax
    ce33:	48 89 85 10 f1 ff ff 	mov    %rax,-0xef0(%rbp)
    ce3a:	48 8d 85 10 f1 ff ff 	lea    -0xef0(%rbp),%rax
    ce41:	48 89 85 40 f8 ff ff 	mov    %rax,-0x7c0(%rbp)
    ce48:	48 8d 85 10 f1 ff ff 	lea    -0xef0(%rbp),%rax
    ce4f:	48 89 85 48 f8 ff ff 	mov    %rax,-0x7b8(%rbp)
    ce56:	48 8d 85 10 f1 ff ff 	lea    -0xef0(%rbp),%rax
    ce5d:	48 89 85 50 f8 ff ff 	mov    %rax,-0x7b0(%rbp)
    ce64:	48 8d 85 10 f1 ff ff 	lea    -0xef0(%rbp),%rax
    ce6b:	48 89 85 58 f8 ff ff 	mov    %rax,-0x7a8(%rbp)
    ce72:	48 c7 85 60 f8 ff ff 	movq   $0x0,-0x7a0(%rbp)
    ce79:	00 00 00 00 
    ce7d:	48 8d 85 10 f1 ff ff 	lea    -0xef0(%rbp),%rax
    ce84:	48 89 85 68 f8 ff ff 	mov    %rax,-0x798(%rbp)
    ce8b:	48 8d 85 10 f1 ff ff 	lea    -0xef0(%rbp),%rax
    ce92:	48 89 85 70 f8 ff ff 	mov    %rax,-0x790(%rbp)
    ce99:	48 8d 85 10 f1 ff ff 	lea    -0xef0(%rbp),%rax
    cea0:	48 89 85 78 f8 ff ff 	mov    %rax,-0x788(%rbp)
    cea7:	48 8d 85 10 f1 ff ff 	lea    -0xef0(%rbp),%rax
    ceae:	48 89 85 80 f8 ff ff 	mov    %rax,-0x780(%rbp)
    ceb5:	48 8d 85 10 f1 ff ff 	lea    -0xef0(%rbp),%rax
    cebc:	48 89 85 88 f8 ff ff 	mov    %rax,-0x778(%rbp)
    cec3:	48 8d 85 10 f1 ff ff 	lea    -0xef0(%rbp),%rax
    ceca:	48 89 85 90 f8 ff ff 	mov    %rax,-0x770(%rbp)
    ced1:	48 8d 85 10 f1 ff ff 	lea    -0xef0(%rbp),%rax
    ced8:	48 89 85 98 f8 ff ff 	mov    %rax,-0x768(%rbp)
    cedf:	48 8d 85 10 f1 ff ff 	lea    -0xef0(%rbp),%rax
    cee6:	48 89 85 a0 f8 ff ff 	mov    %rax,-0x760(%rbp)
    ceed:	48 8d 85 10 f1 ff ff 	lea    -0xef0(%rbp),%rax
    cef4:	48 89 85 a8 f8 ff ff 	mov    %rax,-0x758(%rbp)
    cefb:	48 8d 85 10 f1 ff ff 	lea    -0xef0(%rbp),%rax
    cf02:	48 89 85 b0 f8 ff ff 	mov    %rax,-0x750(%rbp)
    cf09:	48 8d 85 10 f1 ff ff 	lea    -0xef0(%rbp),%rax
    cf10:	48 89 85 b8 f8 ff ff 	mov    %rax,-0x748(%rbp)
    cf17:	48 c7 85 c0 f8 ff ff 	movq   $0x0,-0x740(%rbp)
    cf1e:	00 00 00 00 
    cf22:	48 c7 85 c8 f8 ff ff 	movq   $0x0,-0x738(%rbp)
    cf29:	00 00 00 00 
    cf2d:	48 8d 85 10 f1 ff ff 	lea    -0xef0(%rbp),%rax
    cf34:	48 89 85 d0 f8 ff ff 	mov    %rax,-0x730(%rbp)
    cf3b:	48 8d 85 10 f1 ff ff 	lea    -0xef0(%rbp),%rax
    cf42:	48 89 85 d8 f8 ff ff 	mov    %rax,-0x728(%rbp)
    cf49:	48 8d 85 10 f1 ff ff 	lea    -0xef0(%rbp),%rax
    cf50:	48 89 85 e0 f8 ff ff 	mov    %rax,-0x720(%rbp)
    cf57:	48 8d 85 10 f1 ff ff 	lea    -0xef0(%rbp),%rax
    cf5e:	48 89 85 e8 f8 ff ff 	mov    %rax,-0x718(%rbp)
    cf65:	48 c7 85 f0 f8 ff ff 	movq   $0x0,-0x710(%rbp)
    cf6c:	00 00 00 00 
    cf70:	48 8d 85 10 f1 ff ff 	lea    -0xef0(%rbp),%rax
    cf77:	48 89 85 f8 f8 ff ff 	mov    %rax,-0x708(%rbp)
    cf7e:	48 8d 85 10 f1 ff ff 	lea    -0xef0(%rbp),%rax
    cf85:	48 89 85 00 f9 ff ff 	mov    %rax,-0x700(%rbp)
    cf8c:	48 8d 85 10 f1 ff ff 	lea    -0xef0(%rbp),%rax
    cf93:	48 89 85 08 f9 ff ff 	mov    %rax,-0x6f8(%rbp)
    cf9a:	48 8d 85 10 f1 ff ff 	lea    -0xef0(%rbp),%rax
    cfa1:	48 89 85 10 f9 ff ff 	mov    %rax,-0x6f0(%rbp)
    cfa8:	48 c7 85 18 f9 ff ff 	movq   $0x0,-0x6e8(%rbp)
    cfaf:	00 00 00 00 
    cfb3:	48 c7 85 20 f9 ff ff 	movq   $0x0,-0x6e0(%rbp)
    cfba:	00 00 00 00 
    cfbe:	48 8d 85 10 f1 ff ff 	lea    -0xef0(%rbp),%rax
    cfc5:	48 89 85 28 f9 ff ff 	mov    %rax,-0x6d8(%rbp)
    cfcc:	48 8d 85 10 f1 ff ff 	lea    -0xef0(%rbp),%rax
    cfd3:	48 89 85 30 f9 ff ff 	mov    %rax,-0x6d0(%rbp)
    cfda:	48 c7 85 38 f9 ff ff 	movq   $0x0,-0x6c8(%rbp)
    cfe1:	00 00 00 00 
    cfe5:	48 8d 85 10 f1 ff ff 	lea    -0xef0(%rbp),%rax
    cfec:	48 89 85 40 f9 ff ff 	mov    %rax,-0x6c0(%rbp)
    cff3:	48 8d 85 10 f1 ff ff 	lea    -0xef0(%rbp),%rax
    cffa:	48 89 85 48 f9 ff ff 	mov    %rax,-0x6b8(%rbp)
    d001:	48 c7 85 50 f9 ff ff 	movq   $0x0,-0x6b0(%rbp)
    d008:	00 00 00 00 
    d00c:	48 8d 85 10 f1 ff ff 	lea    -0xef0(%rbp),%rax
    d013:	48 89 85 58 f9 ff ff 	mov    %rax,-0x6a8(%rbp)
    d01a:	48 8d 85 10 f1 ff ff 	lea    -0xef0(%rbp),%rax
    d021:	48 89 85 60 f9 ff ff 	mov    %rax,-0x6a0(%rbp)
    d028:	48 8d 85 10 f1 ff ff 	lea    -0xef0(%rbp),%rax
    d02f:	48 89 85 68 f9 ff ff 	mov    %rax,-0x698(%rbp)
    d036:	48 8d 85 10 f1 ff ff 	lea    -0xef0(%rbp),%rax
    d03d:	48 89 85 70 f9 ff ff 	mov    %rax,-0x690(%rbp)
    d044:	48 8d 85 10 f1 ff ff 	lea    -0xef0(%rbp),%rax
    d04b:	48 89 85 78 f9 ff ff 	mov    %rax,-0x688(%rbp)
    d052:	48 8d 85 10 f1 ff ff 	lea    -0xef0(%rbp),%rax
    d059:	48 89 85 80 f9 ff ff 	mov    %rax,-0x680(%rbp)
    d060:	48 8d 85 10 f1 ff ff 	lea    -0xef0(%rbp),%rax
    d067:	48 89 85 88 f9 ff ff 	mov    %rax,-0x678(%rbp)
    d06e:	48 8d 85 10 f1 ff ff 	lea    -0xef0(%rbp),%rax
    d075:	48 89 85 90 f9 ff ff 	mov    %rax,-0x670(%rbp)
    d07c:	48 c7 85 98 f9 ff ff 	movq   $0x0,-0x668(%rbp)
    d083:	00 00 00 00 
    d087:	48 8d 85 10 f1 ff ff 	lea    -0xef0(%rbp),%rax
    d08e:	48 89 85 a0 f9 ff ff 	mov    %rax,-0x660(%rbp)
    d095:	48 8d 85 10 f1 ff ff 	lea    -0xef0(%rbp),%rax
    d09c:	48 89 85 a8 f9 ff ff 	mov    %rax,-0x658(%rbp)
    d0a3:	48 8d 85 10 f1 ff ff 	lea    -0xef0(%rbp),%rax
    d0aa:	48 89 85 b0 f9 ff ff 	mov    %rax,-0x650(%rbp)
    d0b1:	48 8d 85 10 f1 ff ff 	lea    -0xef0(%rbp),%rax
    d0b8:	48 89 85 b8 f9 ff ff 	mov    %rax,-0x648(%rbp)
    d0bf:	48 8d 85 10 f1 ff ff 	lea    -0xef0(%rbp),%rax
    d0c6:	48 89 85 c0 f9 ff ff 	mov    %rax,-0x640(%rbp)
    d0cd:	48 8d 85 10 f1 ff ff 	lea    -0xef0(%rbp),%rax
    d0d4:	48 89 85 c8 f9 ff ff 	mov    %rax,-0x638(%rbp)
    d0db:	48 c7 85 d0 f9 ff ff 	movq   $0x0,-0x630(%rbp)
    d0e2:	00 00 00 00 
    d0e6:	48 8d 85 10 f1 ff ff 	lea    -0xef0(%rbp),%rax
    d0ed:	48 89 85 d8 f9 ff ff 	mov    %rax,-0x628(%rbp)
    d0f4:	48 8d 85 10 f1 ff ff 	lea    -0xef0(%rbp),%rax
    d0fb:	48 89 85 e0 f9 ff ff 	mov    %rax,-0x620(%rbp)
    d102:	48 8d 85 10 f1 ff ff 	lea    -0xef0(%rbp),%rax
    d109:	48 89 85 e8 f9 ff ff 	mov    %rax,-0x618(%rbp)
    d110:	48 8d 85 10 f1 ff ff 	lea    -0xef0(%rbp),%rax
    d117:	48 89 85 f0 f9 ff ff 	mov    %rax,-0x610(%rbp)
    d11e:	48 8d 85 10 f1 ff ff 	lea    -0xef0(%rbp),%rax
    d125:	48 89 85 f8 f9 ff ff 	mov    %rax,-0x608(%rbp)
    d12c:	48 8d 85 10 f1 ff ff 	lea    -0xef0(%rbp),%rax
    d133:	48 89 85 00 fa ff ff 	mov    %rax,-0x600(%rbp)
    d13a:	48 c7 85 08 fa ff ff 	movq   $0x0,-0x5f8(%rbp)
    d141:	00 00 00 00 
    d145:	48 c7 85 10 fa ff ff 	movq   $0x0,-0x5f0(%rbp)
    d14c:	00 00 00 00 
    d150:	48 8d 85 10 f1 ff ff 	lea    -0xef0(%rbp),%rax
    d157:	48 89 85 18 fa ff ff 	mov    %rax,-0x5e8(%rbp)
    d15e:	48 8d 85 10 f1 ff ff 	lea    -0xef0(%rbp),%rax
    d165:	48 89 85 20 fa ff ff 	mov    %rax,-0x5e0(%rbp)
    d16c:	48 8d 85 10 f1 ff ff 	lea    -0xef0(%rbp),%rax
    d173:	48 89 85 28 fa ff ff 	mov    %rax,-0x5d8(%rbp)
    d17a:	48 8d 85 10 f1 ff ff 	lea    -0xef0(%rbp),%rax
    d181:	48 89 85 30 fa ff ff 	mov    %rax,-0x5d0(%rbp)
    d188:	48 8d 85 10 f1 ff ff 	lea    -0xef0(%rbp),%rax
    d18f:	48 89 85 38 fa ff ff 	mov    %rax,-0x5c8(%rbp)
    d196:	48 8d 85 10 f1 ff ff 	lea    -0xef0(%rbp),%rax
    d19d:	48 89 85 40 fa ff ff 	mov    %rax,-0x5c0(%rbp)
    d1a4:	48 8d 85 10 f1 ff ff 	lea    -0xef0(%rbp),%rax
    d1ab:	48 89 85 48 fa ff ff 	mov    %rax,-0x5b8(%rbp)
    d1b2:	48 8d 85 10 f1 ff ff 	lea    -0xef0(%rbp),%rax
    d1b9:	48 89 85 50 fa ff ff 	mov    %rax,-0x5b0(%rbp)
    d1c0:	48 c7 85 58 fa ff ff 	movq   $0x0,-0x5a8(%rbp)
    d1c7:	00 00 00 00 
    d1cb:	48 8d 85 10 f1 ff ff 	lea    -0xef0(%rbp),%rax
    d1d2:	48 89 85 60 fa ff ff 	mov    %rax,-0x5a0(%rbp)
    d1d9:	48 8d 85 10 f1 ff ff 	lea    -0xef0(%rbp),%rax
    d1e0:	48 89 85 68 fa ff ff 	mov    %rax,-0x598(%rbp)
    d1e7:	48 c7 85 70 fa ff ff 	movq   $0x0,-0x590(%rbp)
    d1ee:	00 00 00 00 
    d1f2:	48 8d 85 10 f1 ff ff 	lea    -0xef0(%rbp),%rax
    d1f9:	48 89 85 78 fa ff ff 	mov    %rax,-0x588(%rbp)
    d200:	48 8d 85 10 f1 ff ff 	lea    -0xef0(%rbp),%rax
    d207:	48 89 85 80 fa ff ff 	mov    %rax,-0x580(%rbp)
    d20e:	48 c7 85 88 fa ff ff 	movq   $0x0,-0x578(%rbp)
    d215:	00 00 00 00 
    d219:	48 8d 85 10 f1 ff ff 	lea    -0xef0(%rbp),%rax
    d220:	48 89 85 90 fa ff ff 	mov    %rax,-0x570(%rbp)
    d227:	48 8d 85 10 f1 ff ff 	lea    -0xef0(%rbp),%rax
    d22e:	48 89 85 98 fa ff ff 	mov    %rax,-0x568(%rbp)
    d235:	48 8d 85 10 f1 ff ff 	lea    -0xef0(%rbp),%rax
    d23c:	48 89 85 a0 fa ff ff 	mov    %rax,-0x560(%rbp)
    d243:	48 8d 85 10 f1 ff ff 	lea    -0xef0(%rbp),%rax
    d24a:	48 89 85 a8 fa ff ff 	mov    %rax,-0x558(%rbp)
    d251:	48 8d 85 10 f1 ff ff 	lea    -0xef0(%rbp),%rax
    d258:	48 89 85 b0 fa ff ff 	mov    %rax,-0x550(%rbp)
    d25f:	48 c7 85 b8 fa ff ff 	movq   $0x0,-0x548(%rbp)
    d266:	00 00 00 00 
    d26a:	48 8d 85 10 f1 ff ff 	lea    -0xef0(%rbp),%rax
    d271:	48 89 85 c0 fa ff ff 	mov    %rax,-0x540(%rbp)
    d278:	48 8d 85 10 f1 ff ff 	lea    -0xef0(%rbp),%rax
    d27f:	48 89 85 c8 fa ff ff 	mov    %rax,-0x538(%rbp)
    d286:	48 8d 85 10 f1 ff ff 	lea    -0xef0(%rbp),%rax
    d28d:	48 89 85 d0 fa ff ff 	mov    %rax,-0x530(%rbp)
    d294:	48 8d 85 10 f1 ff ff 	lea    -0xef0(%rbp),%rax
    d29b:	48 89 85 d8 fa ff ff 	mov    %rax,-0x528(%rbp)
    d2a2:	48 c7 85 e0 fa ff ff 	movq   $0x0,-0x520(%rbp)
    d2a9:	00 00 00 00 
    d2ad:	48 c7 85 e8 fa ff ff 	movq   $0x0,-0x518(%rbp)
    d2b4:	00 00 00 00 
    d2b8:	48 8d 85 10 f1 ff ff 	lea    -0xef0(%rbp),%rax
    d2bf:	48 89 85 f0 fa ff ff 	mov    %rax,-0x510(%rbp)
    d2c6:	48 8d 85 10 f1 ff ff 	lea    -0xef0(%rbp),%rax
    d2cd:	48 89 85 f8 fa ff ff 	mov    %rax,-0x508(%rbp)
    d2d4:	48 8d 85 10 f1 ff ff 	lea    -0xef0(%rbp),%rax
    d2db:	48 89 85 00 fb ff ff 	mov    %rax,-0x500(%rbp)
    d2e2:	48 8d 85 10 f1 ff ff 	lea    -0xef0(%rbp),%rax
    d2e9:	48 89 85 08 fb ff ff 	mov    %rax,-0x4f8(%rbp)
    d2f0:	48 8d 85 10 f1 ff ff 	lea    -0xef0(%rbp),%rax
    d2f7:	48 89 85 10 fb ff ff 	mov    %rax,-0x4f0(%rbp)
    d2fe:	48 8d 85 10 f1 ff ff 	lea    -0xef0(%rbp),%rax
    d305:	48 89 85 18 fb ff ff 	mov    %rax,-0x4e8(%rbp)
    d30c:	48 8d 85 10 f1 ff ff 	lea    -0xef0(%rbp),%rax
    d313:	48 89 85 20 fb ff ff 	mov    %rax,-0x4e0(%rbp)
    d31a:	48 c7 85 28 fb ff ff 	movq   $0x0,-0x4d8(%rbp)
    d321:	00 00 00 00 
    d325:	48 8d 85 10 f1 ff ff 	lea    -0xef0(%rbp),%rax
    d32c:	48 89 85 30 fb ff ff 	mov    %rax,-0x4d0(%rbp)
    d333:	48 8d 85 10 f1 ff ff 	lea    -0xef0(%rbp),%rax
    d33a:	48 89 85 38 fb ff ff 	mov    %rax,-0x4c8(%rbp)
    d341:	48 8d 85 10 f1 ff ff 	lea    -0xef0(%rbp),%rax
    d348:	48 89 85 40 fb ff ff 	mov    %rax,-0x4c0(%rbp)
    d34f:	48 c7 85 48 fb ff ff 	movq   $0x0,-0x4b8(%rbp)
    d356:	00 00 00 00 
    d35a:	48 8d 85 10 f1 ff ff 	lea    -0xef0(%rbp),%rax
    d361:	48 89 85 50 fb ff ff 	mov    %rax,-0x4b0(%rbp)
    d368:	48 8d 85 10 f1 ff ff 	lea    -0xef0(%rbp),%rax
    d36f:	48 89 85 58 fb ff ff 	mov    %rax,-0x4a8(%rbp)
    d376:	48 8d 85 10 f1 ff ff 	lea    -0xef0(%rbp),%rax
    d37d:	48 89 85 60 fb ff ff 	mov    %rax,-0x4a0(%rbp)
    d384:	48 c7 85 68 fb ff ff 	movq   $0x0,-0x498(%rbp)
    d38b:	00 00 00 00 
    d38f:	48 c7 85 70 fb ff ff 	movq   $0x0,-0x490(%rbp)
    d396:	00 00 00 00 
    d39a:	48 8d 85 10 f1 ff ff 	lea    -0xef0(%rbp),%rax
    d3a1:	48 89 85 78 fb ff ff 	mov    %rax,-0x488(%rbp)
    d3a8:	48 8d 85 10 f1 ff ff 	lea    -0xef0(%rbp),%rax
    d3af:	48 89 85 80 fb ff ff 	mov    %rax,-0x480(%rbp)
    d3b6:	48 8d 85 10 f1 ff ff 	lea    -0xef0(%rbp),%rax
    d3bd:	48 89 85 88 fb ff ff 	mov    %rax,-0x478(%rbp)
    d3c4:	48 8d 85 10 f1 ff ff 	lea    -0xef0(%rbp),%rax
    d3cb:	48 89 85 90 fb ff ff 	mov    %rax,-0x470(%rbp)
    d3d2:	48 8d 85 10 f1 ff ff 	lea    -0xef0(%rbp),%rax
    d3d9:	48 89 85 98 fb ff ff 	mov    %rax,-0x468(%rbp)
    d3e0:	48 8d 85 10 f1 ff ff 	lea    -0xef0(%rbp),%rax
    d3e7:	48 89 85 a0 fb ff ff 	mov    %rax,-0x460(%rbp)
    d3ee:	48 8d 85 10 f1 ff ff 	lea    -0xef0(%rbp),%rax
    d3f5:	48 89 85 a8 fb ff ff 	mov    %rax,-0x458(%rbp)
    d3fc:	48 8d 85 10 f1 ff ff 	lea    -0xef0(%rbp),%rax
    d403:	48 89 85 b0 fb ff ff 	mov    %rax,-0x450(%rbp)
    d40a:	48 8d 85 10 f1 ff ff 	lea    -0xef0(%rbp),%rax
    d411:	48 89 85 b8 fb ff ff 	mov    %rax,-0x448(%rbp)
    d418:	48 8d 85 10 f1 ff ff 	lea    -0xef0(%rbp),%rax
    d41f:	48 89 85 c0 fb ff ff 	mov    %rax,-0x440(%rbp)
    d426:	48 8d 85 10 f1 ff ff 	lea    -0xef0(%rbp),%rax
    d42d:	48 89 85 c8 fb ff ff 	mov    %rax,-0x438(%rbp)
    d434:	48 8d 85 10 f1 ff ff 	lea    -0xef0(%rbp),%rax
    d43b:	48 89 85 d0 fb ff ff 	mov    %rax,-0x430(%rbp)
    d442:	48 8d 85 10 f1 ff ff 	lea    -0xef0(%rbp),%rax
    d449:	48 89 85 d8 fb ff ff 	mov    %rax,-0x428(%rbp)
    d450:	48 8d 85 10 f1 ff ff 	lea    -0xef0(%rbp),%rax
    d457:	48 89 85 e0 fb ff ff 	mov    %rax,-0x420(%rbp)
    d45e:	48 8d 85 10 f1 ff ff 	lea    -0xef0(%rbp),%rax
    d465:	48 89 85 e8 fb ff ff 	mov    %rax,-0x418(%rbp)
    d46c:	48 8d 85 10 f1 ff ff 	lea    -0xef0(%rbp),%rax
    d473:	48 89 85 f0 fb ff ff 	mov    %rax,-0x410(%rbp)
    d47a:	48 c7 85 f8 fb ff ff 	movq   $0x0,-0x408(%rbp)
    d481:	00 00 00 00 
    d485:	48 8d 85 10 f1 ff ff 	lea    -0xef0(%rbp),%rax
    d48c:	48 89 85 00 fc ff ff 	mov    %rax,-0x400(%rbp)
    d493:	48 c7 85 08 fc ff ff 	movq   $0x0,-0x3f8(%rbp)
    d49a:	00 00 00 00 
    d49e:	48 8d 85 10 f1 ff ff 	lea    -0xef0(%rbp),%rax
    d4a5:	48 89 85 10 fc ff ff 	mov    %rax,-0x3f0(%rbp)
    d4ac:	48 8d 85 10 f1 ff ff 	lea    -0xef0(%rbp),%rax
    d4b3:	48 89 85 18 fc ff ff 	mov    %rax,-0x3e8(%rbp)
    d4ba:	48 c7 85 20 fc ff ff 	movq   $0x0,-0x3e0(%rbp)
    d4c1:	00 00 00 00 
    d4c5:	48 8d 85 10 f1 ff ff 	lea    -0xef0(%rbp),%rax
    d4cc:	48 89 85 28 fc ff ff 	mov    %rax,-0x3d8(%rbp)
    d4d3:	48 8d 85 10 f1 ff ff 	lea    -0xef0(%rbp),%rax
    d4da:	48 89 85 30 fc ff ff 	mov    %rax,-0x3d0(%rbp)
    d4e1:	48 c7 85 38 fc ff ff 	movq   $0x0,-0x3c8(%rbp)
    d4e8:	00 00 00 00 
    d4ec:	48 8d 85 10 f1 ff ff 	lea    -0xef0(%rbp),%rax
    d4f3:	48 89 85 40 fc ff ff 	mov    %rax,-0x3c0(%rbp)
    d4fa:	48 c7 85 48 fc ff ff 	movq   $0x0,-0x3b8(%rbp)
    d501:	00 00 00 00 
    d505:	48 8d 85 10 f1 ff ff 	lea    -0xef0(%rbp),%rax
    d50c:	48 89 85 50 fc ff ff 	mov    %rax,-0x3b0(%rbp)
    d513:	48 8d 85 10 f1 ff ff 	lea    -0xef0(%rbp),%rax
    d51a:	48 89 85 58 fc ff ff 	mov    %rax,-0x3a8(%rbp)
    d521:	48 8d 85 10 f1 ff ff 	lea    -0xef0(%rbp),%rax
    d528:	48 89 85 60 fc ff ff 	mov    %rax,-0x3a0(%rbp)
    d52f:	48 8d 85 10 f1 ff ff 	lea    -0xef0(%rbp),%rax
    d536:	48 89 85 68 fc ff ff 	mov    %rax,-0x398(%rbp)
    d53d:	48 8d 85 10 f1 ff ff 	lea    -0xef0(%rbp),%rax
    d544:	48 89 85 70 fc ff ff 	mov    %rax,-0x390(%rbp)
    d54b:	48 8d 85 10 f1 ff ff 	lea    -0xef0(%rbp),%rax
    d552:	48 89 85 78 fc ff ff 	mov    %rax,-0x388(%rbp)
    d559:	48 c7 85 80 fc ff ff 	movq   $0x0,-0x380(%rbp)
    d560:	00 00 00 00 
    d564:	48 8d 85 10 f1 ff ff 	lea    -0xef0(%rbp),%rax
    d56b:	48 89 85 88 fc ff ff 	mov    %rax,-0x378(%rbp)
    d572:	48 8d 85 10 f1 ff ff 	lea    -0xef0(%rbp),%rax
    d579:	48 89 85 90 fc ff ff 	mov    %rax,-0x370(%rbp)
    d580:	48 8d 85 10 f1 ff ff 	lea    -0xef0(%rbp),%rax
    d587:	48 89 85 98 fc ff ff 	mov    %rax,-0x368(%rbp)
    d58e:	48 8d 85 10 f1 ff ff 	lea    -0xef0(%rbp),%rax
    d595:	48 89 85 a0 fc ff ff 	mov    %rax,-0x360(%rbp)
    d59c:	48 8d 85 10 f1 ff ff 	lea    -0xef0(%rbp),%rax
    d5a3:	48 89 85 a8 fc ff ff 	mov    %rax,-0x358(%rbp)
    d5aa:	48 8d 85 10 f1 ff ff 	lea    -0xef0(%rbp),%rax
    d5b1:	48 89 85 b0 fc ff ff 	mov    %rax,-0x350(%rbp)
    d5b8:	48 8d 85 10 f1 ff ff 	lea    -0xef0(%rbp),%rax
    d5bf:	48 89 85 b8 fc ff ff 	mov    %rax,-0x348(%rbp)
    d5c6:	48 8d 85 10 f1 ff ff 	lea    -0xef0(%rbp),%rax
    d5cd:	48 89 85 c0 fc ff ff 	mov    %rax,-0x340(%rbp)
    d5d4:	48 8d 85 10 f1 ff ff 	lea    -0xef0(%rbp),%rax
    d5db:	48 89 85 c8 fc ff ff 	mov    %rax,-0x338(%rbp)
    d5e2:	48 8d 85 10 f1 ff ff 	lea    -0xef0(%rbp),%rax
    d5e9:	48 89 85 d0 fc ff ff 	mov    %rax,-0x330(%rbp)
    d5f0:	48 8d 85 10 f1 ff ff 	lea    -0xef0(%rbp),%rax
    d5f7:	48 89 85 d8 fc ff ff 	mov    %rax,-0x328(%rbp)
    d5fe:	48 8d 85 10 f1 ff ff 	lea    -0xef0(%rbp),%rax
    d605:	48 89 85 e0 fc ff ff 	mov    %rax,-0x320(%rbp)
    d60c:	48 8d 85 10 f1 ff ff 	lea    -0xef0(%rbp),%rax
    d613:	48 89 85 e8 fc ff ff 	mov    %rax,-0x318(%rbp)
    d61a:	48 8d 85 10 f1 ff ff 	lea    -0xef0(%rbp),%rax
    d621:	48 89 85 f0 fc ff ff 	mov    %rax,-0x310(%rbp)
    d628:	48 8d 85 10 f1 ff ff 	lea    -0xef0(%rbp),%rax
    d62f:	48 89 85 f8 fc ff ff 	mov    %rax,-0x308(%rbp)
    d636:	48 c7 85 00 fd ff ff 	movq   $0x0,-0x300(%rbp)
    d63d:	00 00 00 00 
    d641:	48 8d 85 10 f1 ff ff 	lea    -0xef0(%rbp),%rax
    d648:	48 89 85 08 fd ff ff 	mov    %rax,-0x2f8(%rbp)
    d64f:	48 8d 85 10 f1 ff ff 	lea    -0xef0(%rbp),%rax
    d656:	48 89 85 10 fd ff ff 	mov    %rax,-0x2f0(%rbp)
    d65d:	48 8d 85 10 f1 ff ff 	lea    -0xef0(%rbp),%rax
    d664:	48 89 85 18 fd ff ff 	mov    %rax,-0x2e8(%rbp)
    d66b:	48 8d 85 10 f1 ff ff 	lea    -0xef0(%rbp),%rax
    d672:	48 89 85 20 fd ff ff 	mov    %rax,-0x2e0(%rbp)
    d679:	48 c7 85 28 fd ff ff 	movq   $0x0,-0x2d8(%rbp)
    d680:	00 00 00 00 
    d684:	48 8d 85 10 f1 ff ff 	lea    -0xef0(%rbp),%rax
    d68b:	48 89 85 30 fd ff ff 	mov    %rax,-0x2d0(%rbp)
    d692:	48 c7 85 38 fd ff ff 	movq   $0x0,-0x2c8(%rbp)
    d699:	00 00 00 00 
    d69d:	48 8d 85 10 f1 ff ff 	lea    -0xef0(%rbp),%rax
    d6a4:	48 89 85 40 fd ff ff 	mov    %rax,-0x2c0(%rbp)
    d6ab:	48 8d 85 10 f1 ff ff 	lea    -0xef0(%rbp),%rax
    d6b2:	48 89 85 48 fd ff ff 	mov    %rax,-0x2b8(%rbp)
    d6b9:	48 8d 85 10 f1 ff ff 	lea    -0xef0(%rbp),%rax
    d6c0:	48 89 85 50 fd ff ff 	mov    %rax,-0x2b0(%rbp)
    d6c7:	48 8d 85 10 f1 ff ff 	lea    -0xef0(%rbp),%rax
    d6ce:	48 89 85 58 fd ff ff 	mov    %rax,-0x2a8(%rbp)
    d6d5:	48 8d 85 10 f1 ff ff 	lea    -0xef0(%rbp),%rax
    d6dc:	48 89 85 60 fd ff ff 	mov    %rax,-0x2a0(%rbp)
    d6e3:	48 8d 85 10 f1 ff ff 	lea    -0xef0(%rbp),%rax
    d6ea:	48 89 85 68 fd ff ff 	mov    %rax,-0x298(%rbp)
    d6f1:	48 8d 85 10 f1 ff ff 	lea    -0xef0(%rbp),%rax
    d6f8:	48 89 85 70 fd ff ff 	mov    %rax,-0x290(%rbp)
    d6ff:	48 8d 85 10 f1 ff ff 	lea    -0xef0(%rbp),%rax
    d706:	48 89 85 78 fd ff ff 	mov    %rax,-0x288(%rbp)
    d70d:	48 8d 85 10 f1 ff ff 	lea    -0xef0(%rbp),%rax
    d714:	48 89 85 80 fd ff ff 	mov    %rax,-0x280(%rbp)
    d71b:	48 c7 85 88 fd ff ff 	movq   $0x0,-0x278(%rbp)
    d722:	00 00 00 00 
    d726:	48 c7 85 90 fd ff ff 	movq   $0x0,-0x270(%rbp)
    d72d:	00 00 00 00 
    d731:	48 8d 85 10 f1 ff ff 	lea    -0xef0(%rbp),%rax
    d738:	48 89 85 98 fd ff ff 	mov    %rax,-0x268(%rbp)
    d73f:	48 c7 85 a0 fd ff ff 	movq   $0x0,-0x260(%rbp)
    d746:	00 00 00 00 
    d74a:	48 8d 85 10 f1 ff ff 	lea    -0xef0(%rbp),%rax
    d751:	48 89 85 a8 fd ff ff 	mov    %rax,-0x258(%rbp)
    d758:	48 8d 85 10 f1 ff ff 	lea    -0xef0(%rbp),%rax
    d75f:	48 89 85 b0 fd ff ff 	mov    %rax,-0x250(%rbp)
    d766:	48 8d 85 10 f1 ff ff 	lea    -0xef0(%rbp),%rax
    d76d:	48 89 85 b8 fd ff ff 	mov    %rax,-0x248(%rbp)
    d774:	48 c7 85 c0 fd ff ff 	movq   $0x0,-0x240(%rbp)
    d77b:	00 00 00 00 
    d77f:	48 c7 85 c8 fd ff ff 	movq   $0x0,-0x238(%rbp)
    d786:	00 00 00 00 
    d78a:	48 8d 85 10 f1 ff ff 	lea    -0xef0(%rbp),%rax
    d791:	48 89 85 d0 fd ff ff 	mov    %rax,-0x230(%rbp)
    d798:	48 8d 85 10 f1 ff ff 	lea    -0xef0(%rbp),%rax
    d79f:	48 89 85 d8 fd ff ff 	mov    %rax,-0x228(%rbp)
    d7a6:	48 8d 85 10 f1 ff ff 	lea    -0xef0(%rbp),%rax
    d7ad:	48 89 85 e0 fd ff ff 	mov    %rax,-0x220(%rbp)
    d7b4:	48 8d 85 10 f1 ff ff 	lea    -0xef0(%rbp),%rax
    d7bb:	48 89 85 e8 fd ff ff 	mov    %rax,-0x218(%rbp)
    d7c2:	48 8d 85 10 f1 ff ff 	lea    -0xef0(%rbp),%rax
    d7c9:	48 89 85 f0 fd ff ff 	mov    %rax,-0x210(%rbp)
    d7d0:	48 8d 85 10 f1 ff ff 	lea    -0xef0(%rbp),%rax
    d7d7:	48 89 85 f8 fd ff ff 	mov    %rax,-0x208(%rbp)
    d7de:	48 c7 85 00 fe ff ff 	movq   $0x0,-0x200(%rbp)
    d7e5:	00 00 00 00 
    d7e9:	48 8d 85 10 f1 ff ff 	lea    -0xef0(%rbp),%rax
    d7f0:	48 89 85 08 fe ff ff 	mov    %rax,-0x1f8(%rbp)
    d7f7:	48 8d 85 10 f1 ff ff 	lea    -0xef0(%rbp),%rax
    d7fe:	48 89 85 10 fe ff ff 	mov    %rax,-0x1f0(%rbp)
    d805:	48 8d 85 10 f1 ff ff 	lea    -0xef0(%rbp),%rax
    d80c:	48 89 85 18 fe ff ff 	mov    %rax,-0x1e8(%rbp)
    d813:	48 8d 85 10 f1 ff ff 	lea    -0xef0(%rbp),%rax
    d81a:	48 89 85 20 fe ff ff 	mov    %rax,-0x1e0(%rbp)
    d821:	48 8d 85 10 f1 ff ff 	lea    -0xef0(%rbp),%rax
    d828:	48 89 85 28 fe ff ff 	mov    %rax,-0x1d8(%rbp)
    d82f:	48 8d 85 10 f1 ff ff 	lea    -0xef0(%rbp),%rax
    d836:	48 89 85 30 fe ff ff 	mov    %rax,-0x1d0(%rbp)
    d83d:	48 8d 85 10 f1 ff ff 	lea    -0xef0(%rbp),%rax
    d844:	48 89 85 38 fe ff ff 	mov    %rax,-0x1c8(%rbp)
    d84b:	48 8d 85 10 f1 ff ff 	lea    -0xef0(%rbp),%rax
    d852:	48 89 85 40 fe ff ff 	mov    %rax,-0x1c0(%rbp)
    d859:	48 8d 85 10 f1 ff ff 	lea    -0xef0(%rbp),%rax
    d860:	48 89 85 48 fe ff ff 	mov    %rax,-0x1b8(%rbp)
    d867:	48 8d 85 10 f1 ff ff 	lea    -0xef0(%rbp),%rax
    d86e:	48 89 85 50 fe ff ff 	mov    %rax,-0x1b0(%rbp)
    d875:	48 8d 85 10 f1 ff ff 	lea    -0xef0(%rbp),%rax
    d87c:	48 89 85 58 fe ff ff 	mov    %rax,-0x1a8(%rbp)
    d883:	48 8d 85 10 f1 ff ff 	lea    -0xef0(%rbp),%rax
    d88a:	48 89 85 60 fe ff ff 	mov    %rax,-0x1a0(%rbp)
    d891:	48 8d 85 10 f1 ff ff 	lea    -0xef0(%rbp),%rax
    d898:	48 89 85 68 fe ff ff 	mov    %rax,-0x198(%rbp)
    d89f:	48 8d 85 10 f1 ff ff 	lea    -0xef0(%rbp),%rax
    d8a6:	48 89 85 70 fe ff ff 	mov    %rax,-0x190(%rbp)
    d8ad:	48 8d 85 10 f1 ff ff 	lea    -0xef0(%rbp),%rax
    d8b4:	48 89 85 78 fe ff ff 	mov    %rax,-0x188(%rbp)
    d8bb:	48 c7 85 80 fe ff ff 	movq   $0x0,-0x180(%rbp)
    d8c2:	00 00 00 00 
    d8c6:	48 8d 85 10 f1 ff ff 	lea    -0xef0(%rbp),%rax
    d8cd:	48 89 85 88 fe ff ff 	mov    %rax,-0x178(%rbp)
    d8d4:	48 8d 85 10 f1 ff ff 	lea    -0xef0(%rbp),%rax
    d8db:	48 89 85 90 fe ff ff 	mov    %rax,-0x170(%rbp)
    d8e2:	48 c7 85 98 fe ff ff 	movq   $0x0,-0x168(%rbp)
    d8e9:	00 00 00 00 
    d8ed:	48 8d 85 10 f1 ff ff 	lea    -0xef0(%rbp),%rax
    d8f4:	48 89 85 a0 fe ff ff 	mov    %rax,-0x160(%rbp)
    d8fb:	48 8d 85 10 f1 ff ff 	lea    -0xef0(%rbp),%rax
    d902:	48 89 85 a8 fe ff ff 	mov    %rax,-0x158(%rbp)
    d909:	48 8d 85 10 f1 ff ff 	lea    -0xef0(%rbp),%rax
    d910:	48 89 85 b0 fe ff ff 	mov    %rax,-0x150(%rbp)
    d917:	48 8d 85 10 f1 ff ff 	lea    -0xef0(%rbp),%rax
    d91e:	48 89 85 b8 fe ff ff 	mov    %rax,-0x148(%rbp)
    d925:	48 8d 85 10 f1 ff ff 	lea    -0xef0(%rbp),%rax
    d92c:	48 89 85 c0 fe ff ff 	mov    %rax,-0x140(%rbp)
    d933:	48 8d 85 10 f1 ff ff 	lea    -0xef0(%rbp),%rax
    d93a:	48 89 85 c8 fe ff ff 	mov    %rax,-0x138(%rbp)
    d941:	48 8d 85 10 f1 ff ff 	lea    -0xef0(%rbp),%rax
    d948:	48 89 85 d0 fe ff ff 	mov    %rax,-0x130(%rbp)
    d94f:	48 8d 85 10 f1 ff ff 	lea    -0xef0(%rbp),%rax
    d956:	48 89 85 d8 fe ff ff 	mov    %rax,-0x128(%rbp)
    d95d:	48 8d 85 10 f1 ff ff 	lea    -0xef0(%rbp),%rax
    d964:	48 89 85 e0 fe ff ff 	mov    %rax,-0x120(%rbp)
    d96b:	48 8d 85 10 f1 ff ff 	lea    -0xef0(%rbp),%rax
    d972:	48 89 85 e8 fe ff ff 	mov    %rax,-0x118(%rbp)
    d979:	48 8d 85 10 f1 ff ff 	lea    -0xef0(%rbp),%rax
    d980:	48 89 85 f0 fe ff ff 	mov    %rax,-0x110(%rbp)
    d987:	48 c7 85 f8 fe ff ff 	movq   $0x0,-0x108(%rbp)
    d98e:	00 00 00 00 
    d992:	48 8d 85 10 f1 ff ff 	lea    -0xef0(%rbp),%rax
    d999:	48 89 85 00 ff ff ff 	mov    %rax,-0x100(%rbp)
    d9a0:	48 8d 85 10 f1 ff ff 	lea    -0xef0(%rbp),%rax
    d9a7:	48 89 85 08 ff ff ff 	mov    %rax,-0xf8(%rbp)
    d9ae:	48 8d 85 10 f1 ff ff 	lea    -0xef0(%rbp),%rax
    d9b5:	48 89 85 10 ff ff ff 	mov    %rax,-0xf0(%rbp)
    d9bc:	48 8d 85 10 f1 ff ff 	lea    -0xef0(%rbp),%rax
    d9c3:	48 89 85 18 ff ff ff 	mov    %rax,-0xe8(%rbp)
    d9ca:	48 8d 85 10 f1 ff ff 	lea    -0xef0(%rbp),%rax
    d9d1:	48 89 85 20 ff ff ff 	mov    %rax,-0xe0(%rbp)
    d9d8:	48 8d 85 10 f1 ff ff 	lea    -0xef0(%rbp),%rax
    d9df:	48 89 85 28 ff ff ff 	mov    %rax,-0xd8(%rbp)
    d9e6:	48 8d 85 10 f1 ff ff 	lea    -0xef0(%rbp),%rax
    d9ed:	48 89 85 30 ff ff ff 	mov    %rax,-0xd0(%rbp)
    d9f4:	48 8d 85 10 f1 ff ff 	lea    -0xef0(%rbp),%rax
    d9fb:	48 89 85 38 ff ff ff 	mov    %rax,-0xc8(%rbp)
    da02:	48 8d 85 10 f1 ff ff 	lea    -0xef0(%rbp),%rax
    da09:	48 89 85 40 ff ff ff 	mov    %rax,-0xc0(%rbp)
    da10:	48 8d 85 10 f1 ff ff 	lea    -0xef0(%rbp),%rax
    da17:	48 89 85 48 ff ff ff 	mov    %rax,-0xb8(%rbp)
    da1e:	48 8d 85 10 f1 ff ff 	lea    -0xef0(%rbp),%rax
    da25:	48 89 85 50 ff ff ff 	mov    %rax,-0xb0(%rbp)
    da2c:	48 8d 85 10 f1 ff ff 	lea    -0xef0(%rbp),%rax
    da33:	48 89 85 58 ff ff ff 	mov    %rax,-0xa8(%rbp)
    da3a:	48 8d 85 10 f1 ff ff 	lea    -0xef0(%rbp),%rax
    da41:	48 89 85 60 ff ff ff 	mov    %rax,-0xa0(%rbp)
    da48:	48 8d 85 10 f1 ff ff 	lea    -0xef0(%rbp),%rax
    da4f:	48 89 85 68 ff ff ff 	mov    %rax,-0x98(%rbp)
    da56:	48 8d 85 10 f1 ff ff 	lea    -0xef0(%rbp),%rax
    da5d:	48 89 85 70 ff ff ff 	mov    %rax,-0x90(%rbp)
    da64:	48 8d 85 10 f1 ff ff 	lea    -0xef0(%rbp),%rax
    da6b:	48 89 85 78 ff ff ff 	mov    %rax,-0x88(%rbp)
    da72:	48 8d 85 10 f1 ff ff 	lea    -0xef0(%rbp),%rax
    da79:	48 89 45 80          	mov    %rax,-0x80(%rbp)
    da7d:	48 8d 85 10 f1 ff ff 	lea    -0xef0(%rbp),%rax
    da84:	48 89 45 88          	mov    %rax,-0x78(%rbp)
    da88:	48 8d 85 10 f1 ff ff 	lea    -0xef0(%rbp),%rax
    da8f:	48 89 45 90          	mov    %rax,-0x70(%rbp)
    da93:	48 8d 85 10 f1 ff ff 	lea    -0xef0(%rbp),%rax
    da9a:	48 89 45 98          	mov    %rax,-0x68(%rbp)
    da9e:	48 8d 85 10 f1 ff ff 	lea    -0xef0(%rbp),%rax
    daa5:	48 89 45 a0          	mov    %rax,-0x60(%rbp)
    daa9:	48 8d 85 10 f1 ff ff 	lea    -0xef0(%rbp),%rax
    dab0:	48 89 45 a8          	mov    %rax,-0x58(%rbp)
    dab4:	48 8d 85 10 f1 ff ff 	lea    -0xef0(%rbp),%rax
    dabb:	48 89 45 b0          	mov    %rax,-0x50(%rbp)
    dabf:	48 8d 85 10 f1 ff ff 	lea    -0xef0(%rbp),%rax
    dac6:	48 89 45 b8          	mov    %rax,-0x48(%rbp)
    daca:	c7 85 9c f0 ff ff 86 	movl   $0x7cb8a286,-0xf64(%rbp)
    dad1:	a2 b8 7c 
    dad4:	48 c7 85 c0 f4 ff ff 	movq   $0x0,-0xb40(%rbp)
    dadb:	00 00 00 00 
    dadf:	48 8d 05 c2 c6 00 00 	lea    0xc6c2(%rip),%rax        # 1a1a8 <g_470>
    dae6:	48 89 85 c8 f4 ff ff 	mov    %rax,-0xb38(%rbp)
    daed:	48 c7 85 d0 f4 ff ff 	movq   $0x0,-0xb30(%rbp)
    daf4:	00 00 00 00 
    daf8:	48 8d 05 a9 c6 00 00 	lea    0xc6a9(%rip),%rax        # 1a1a8 <g_470>
    daff:	48 89 85 d8 f4 ff ff 	mov    %rax,-0xb28(%rbp)
    db06:	48 c7 85 e0 f4 ff ff 	movq   $0x0,-0xb20(%rbp)
    db0d:	00 00 00 00 
    db11:	48 8d 05 90 c6 00 00 	lea    0xc690(%rip),%rax        # 1a1a8 <g_470>
    db18:	48 89 85 e8 f4 ff ff 	mov    %rax,-0xb18(%rbp)
    db1f:	48 c7 85 f0 f4 ff ff 	movq   $0x0,-0xb10(%rbp)
    db26:	00 00 00 00 
    db2a:	48 8d 05 77 c6 00 00 	lea    0xc677(%rip),%rax        # 1a1a8 <g_470>
    db31:	48 89 85 f8 f4 ff ff 	mov    %rax,-0xb08(%rbp)
    db38:	48 c7 85 00 f5 ff ff 	movq   $0x0,-0xb00(%rbp)
    db3f:	00 00 00 00 
    db43:	48 8d 05 5e c6 00 00 	lea    0xc65e(%rip),%rax        # 1a1a8 <g_470>
    db4a:	48 89 85 08 f5 ff ff 	mov    %rax,-0xaf8(%rbp)
    db51:	48 c7 85 10 f5 ff ff 	movq   $0x0,-0xaf0(%rbp)
    db58:	00 00 00 00 
    db5c:	48 8d 05 45 c6 00 00 	lea    0xc645(%rip),%rax        # 1a1a8 <g_470>
    db63:	48 89 85 18 f5 ff ff 	mov    %rax,-0xae8(%rbp)
    db6a:	48 c7 85 20 f5 ff ff 	movq   $0x0,-0xae0(%rbp)
    db71:	00 00 00 00 
    db75:	48 8d 05 2c c6 00 00 	lea    0xc62c(%rip),%rax        # 1a1a8 <g_470>
    db7c:	48 89 85 28 f5 ff ff 	mov    %rax,-0xad8(%rbp)
    db83:	48 c7 85 30 f5 ff ff 	movq   $0x0,-0xad0(%rbp)
    db8a:	00 00 00 00 
    db8e:	48 8d 05 13 c6 00 00 	lea    0xc613(%rip),%rax        # 1a1a8 <g_470>
    db95:	48 89 85 38 f5 ff ff 	mov    %rax,-0xac8(%rbp)
    db9c:	c7 85 60 f4 ff ff 3a 	movl   $0x977423a,-0xba0(%rbp)
    dba3:	42 77 09 
    dba6:	c7 85 64 f4 ff ff 3a 	movl   $0x977423a,-0xb9c(%rbp)
    dbad:	42 77 09 
    dbb0:	c7 85 68 f4 ff ff 3a 	movl   $0x977423a,-0xb98(%rbp)
    dbb7:	42 77 09 
    dbba:	c7 85 6c f4 ff ff 3a 	movl   $0x977423a,-0xb94(%rbp)
    dbc1:	42 77 09 
    dbc4:	c7 85 70 f4 ff ff 3a 	movl   $0x977423a,-0xb90(%rbp)
    dbcb:	42 77 09 
    dbce:	c7 85 74 f4 ff ff 3a 	movl   $0x977423a,-0xb8c(%rbp)
    dbd5:	42 77 09 
    dbd8:	c7 85 78 f4 ff ff 3a 	movl   $0x977423a,-0xb88(%rbp)
    dbdf:	42 77 09 
    dbe2:	c7 85 7c f4 ff ff 1f 	movl   $0xe23ada1f,-0xb84(%rbp)
    dbe9:	da 3a e2 
    dbec:	c7 85 80 f4 ff ff 1f 	movl   $0xe23ada1f,-0xb80(%rbp)
    dbf3:	da 3a e2 
    dbf6:	c7 85 84 f4 ff ff 1f 	movl   $0xe23ada1f,-0xb7c(%rbp)
    dbfd:	da 3a e2 
    dc00:	c7 85 88 f4 ff ff 1f 	movl   $0xe23ada1f,-0xb78(%rbp)
    dc07:	da 3a e2 
    dc0a:	c7 85 8c f4 ff ff 1f 	movl   $0xe23ada1f,-0xb74(%rbp)
    dc11:	da 3a e2 
    dc14:	c7 85 90 f4 ff ff 1f 	movl   $0xe23ada1f,-0xb70(%rbp)
    dc1b:	da 3a e2 
    dc1e:	c7 85 94 f4 ff ff 1f 	movl   $0xe23ada1f,-0xb6c(%rbp)
    dc25:	da 3a e2 
    dc28:	c7 85 98 f4 ff ff 3a 	movl   $0x977423a,-0xb68(%rbp)
    dc2f:	42 77 09 
    dc32:	c7 85 9c f4 ff ff 3a 	movl   $0x977423a,-0xb64(%rbp)
    dc39:	42 77 09 
    dc3c:	c7 85 a0 f4 ff ff 3a 	movl   $0x977423a,-0xb60(%rbp)
    dc43:	42 77 09 
    dc46:	c7 85 a4 f4 ff ff 3a 	movl   $0x977423a,-0xb5c(%rbp)
    dc4d:	42 77 09 
    dc50:	c7 85 a8 f4 ff ff 3a 	movl   $0x977423a,-0xb58(%rbp)
    dc57:	42 77 09 
    dc5a:	c7 85 ac f4 ff ff 3a 	movl   $0x977423a,-0xb54(%rbp)
    dc61:	42 77 09 
    dc64:	c7 85 b0 f4 ff ff 3a 	movl   $0x977423a,-0xb50(%rbp)
    dc6b:	42 77 09 
    dc6e:	48 c7 05 ef c3 00 00 	movq   $0x0,0xc3ef(%rip)        # 1a068 <g_109>
    dc75:	00 00 00 00 
    dc79:	90                   	nop
    dc7a:	48 8b 05 e7 c3 00 00 	mov    0xc3e7(%rip),%rax        # 1a068 <g_109>
    dc81:	48 85 c0             	test   %rax,%rax
    dc84:	7f 19                	jg     dc9f <func_35+0x2b72>
    dc86:	48 8b 05 db c3 00 00 	mov    0xc3db(%rip),%rax        # 1a068 <g_109>
    dc8d:	48 83 c0 02          	add    $0x2,%rax
    dc91:	8b 84 85 94 f2 ff ff 	mov    -0xd6c(%rbp,%rax,4),%eax
    dc98:	48 98                	cltq   
    dc9a:	e9 84 05 00 00       	jmpq   e223 <func_35+0x30f6>
    dc9f:	8b 05 1f c5 00 00    	mov    0xc51f(%rip),%eax        # 1a1c4 <g_697>
    dca5:	83 c0 01             	add    $0x1,%eax
    dca8:	89 05 16 c5 00 00    	mov    %eax,0xc516(%rip)        # 1a1c4 <g_697>
    dcae:	8b 05 10 c5 00 00    	mov    0xc510(%rip),%eax        # 1a1c4 <g_697>
    dcb4:	85 c0                	test   %eax,%eax
    dcb6:	0f 84 4a f1 ff ff    	je     ce06 <func_35+0x1cd9>
    dcbc:	48 8b 05 bd ef 00 00 	mov    0xefbd(%rip),%rax        # 1cc80 <g_1602>
    dcc3:	48 8b 00             	mov    (%rax),%rax
    dcc6:	0f b7 00             	movzwl (%rax),%eax
    dcc9:	0f b7 d0             	movzwl %ax,%edx
    dccc:	8b 85 14 f0 ff ff    	mov    -0xfec(%rbp),%eax
    dcd2:	39 c2                	cmp    %eax,%edx
    dcd4:	0f 95 c0             	setne  %al
    dcd7:	44 0f b6 e0          	movzbl %al,%r12d
    dcdb:	0f b6 85 af f2 ff ff 	movzbl -0xd51(%rbp),%eax
    dce2:	0f b6 d0             	movzbl %al,%edx
    dce5:	8b 85 24 f0 ff ff    	mov    -0xfdc(%rbp),%eax
    dceb:	48 98                	cltq   
    dced:	48 89 85 58 f1 ff ff 	mov    %rax,-0xea8(%rbp)
    dcf4:	48 8b 85 58 f1 ff ff 	mov    -0xea8(%rbp),%rax
    dcfb:	0f b6 c0             	movzbl %al,%eax
    dcfe:	89 d6                	mov    %edx,%esi
    dd00:	89 c7                	mov    %eax,%edi
    dd02:	e8 71 ae ff ff       	callq  8b78 <safe_sub_func_uint8_t_u_u>
    dd07:	0f b6 c0             	movzbl %al,%eax
    dd0a:	21 85 28 f0 ff ff    	and    %eax,-0xfd8(%rbp)
    dd10:	48 8b 05 29 ec 00 00 	mov    0xec29(%rip),%rax        # 1c940 <g_284>
    dd17:	8b 95 28 f0 ff ff    	mov    -0xfd8(%rbp),%edx
    dd1d:	48 63 d2             	movslq %edx,%rdx
    dd20:	48 89 10             	mov    %rdx,(%rax)
    dd23:	48 8b 00             	mov    (%rax),%rax
    dd26:	48 8b 95 38 f1 ff ff 	mov    -0xec8(%rbp),%rdx
    dd2d:	48 8b 1a             	mov    (%rdx),%rbx
    dd30:	48 89 c7             	mov    %rax,%rdi
    dd33:	e8 11 05 00 00       	callq  e249 <func_41>
    dd38:	48 89 03             	mov    %rax,(%rbx)
    dd3b:	48 8b 03             	mov    (%rbx),%rax
    dd3e:	48 8d 15 77 c3 00 00 	lea    0xc377(%rip),%rdx        # 1a0bc <g_228>
    dd45:	48 39 d0             	cmp    %rdx,%rax
    dd48:	0f 95 c2             	setne  %dl
    dd4b:	48 8b 05 fe eb 00 00 	mov    0xebfe(%rip),%rax        # 1c950 <g_372>
    dd52:	0f b6 d2             	movzbl %dl,%edx
    dd55:	89 10                	mov    %edx,(%rax)
    dd57:	8b 00                	mov    (%rax),%eax
    dd59:	39 85 e4 ef ff ff    	cmp    %eax,-0x101c(%rbp)
    dd5f:	0f 95 c0             	setne  %al
    dd62:	0f b6 c0             	movzbl %al,%eax
    dd65:	39 85 e4 ef ff ff    	cmp    %eax,-0x101c(%rbp)
    dd6b:	0f 94 c0             	sete   %al
    dd6e:	0f b6 c0             	movzbl %al,%eax
    dd71:	44 31 e0             	xor    %r12d,%eax
    dd74:	be 00 00 00 00       	mov    $0x0,%esi
    dd79:	89 c7                	mov    %eax,%edi
    dd7b:	e8 36 a8 ff ff       	callq  85b6 <safe_add_func_int32_t_s_s>
    dd80:	83 f8 fb             	cmp    $0xfffffffb,%eax
    dd83:	0f b7 85 52 f4 ff ff 	movzwl -0xbae(%rbp),%eax
    dd8a:	0f be c0             	movsbl %al,%eax
    dd8d:	be f9 ff ff ff       	mov    $0xfffffff9,%esi
    dd92:	89 c7                	mov    %eax,%edi
    dd94:	e8 79 a4 ff ff       	callq  8212 <safe_mul_func_int8_t_s_s>
    dd99:	48 8b 95 60 f1 ff ff 	mov    -0xea0(%rbp),%rdx
    dda0:	8b 12                	mov    (%rdx),%edx
    dda2:	0f be c0             	movsbl %al,%eax
    dda5:	21 c2                	and    %eax,%edx
    dda7:	48 8b 85 60 f1 ff ff 	mov    -0xea0(%rbp),%rax
    ddae:	89 10                	mov    %edx,(%rax)
    ddb0:	c7 85 18 f0 ff ff 00 	movl   $0x0,-0xfe8(%rbp)
    ddb7:	00 00 00 
    ddba:	e9 4e 04 00 00       	jmpq   e20d <func_35+0x30e0>
    ddbf:	66 c7 85 00 f1 ff ff 	movw   $0x1,-0xf00(%rbp)
    ddc6:	01 00 
    ddc8:	c7 85 58 f0 ff ff 75 	movl   $0x8dad75,-0xfa8(%rbp)
    ddcf:	ad 8d 00 
    ddd2:	c7 85 90 f0 ff ff 3a 	movl   $0x7079693a,-0xf70(%rbp)
    ddd9:	69 79 70 
    dddc:	48 8b 85 60 f1 ff ff 	mov    -0xea0(%rbp),%rax
    dde3:	8b 00                	mov    (%rax),%eax
    dde5:	85 c0                	test   %eax,%eax
    dde7:	0f 95 c0             	setne  %al
    ddea:	0f b6 c0             	movzbl %al,%eax
    dded:	66 89 85 00 f1 ff ff 	mov    %ax,-0xf00(%rbp)
    ddf4:	48 8b 05 7d fc 00 00 	mov    0xfc7d(%rip),%rax        # 1da78 <g_2476>
    ddfb:	48 8b 95 e8 ef ff ff 	mov    -0x1018(%rbp),%rdx
    de02:	48 89 10             	mov    %rdx,(%rax)
    de05:	48 c7 05 90 d5 00 00 	movq   $0x0,0xd590(%rip)        # 1b3a0 <g_2377>
    de0c:	00 00 00 00 
    de10:	e9 cc 03 00 00       	jmpq   e1e1 <func_35+0x30b4>
    de15:	66 c7 85 12 f0 ff ff 	movw   $0xfff8,-0xfee(%rbp)
    de1c:	f8 ff 
    de1e:	c7 85 94 f0 ff ff fb 	movl   $0xfffffffb,-0xf6c(%rbp)
    de25:	ff ff ff 
    de28:	48 c7 85 20 f2 ff ff 	movq   $0x0,-0xde0(%rbp)
    de2f:	00 00 00 00 
    de33:	48 8d 05 9e c2 00 00 	lea    0xc29e(%rip),%rax        # 1a0d8 <g_434>
    de3a:	48 89 85 28 f2 ff ff 	mov    %rax,-0xdd8(%rbp)
    de41:	48 8d 05 b4 d4 00 00 	lea    0xd4b4(%rip),%rax        # 1b2fc <g_1979>
    de48:	48 89 85 10 f1 ff ff 	mov    %rax,-0xef0(%rbp)
    de4f:	48 8d 05 42 c2 00 00 	lea    0xc242(%rip),%rax        # 1a098 <g_147>
    de56:	48 89 85 30 f2 ff ff 	mov    %rax,-0xdd0(%rbp)
    de5d:	48 c7 85 38 f2 ff ff 	movq   $0x0,-0xdc8(%rbp)
    de64:	00 00 00 00 
    de68:	48 c7 85 40 f2 ff ff 	movq   $0x0,-0xdc0(%rbp)
    de6f:	00 00 00 00 
    de73:	48 c7 85 48 f2 ff ff 	movq   $0x0,-0xdb8(%rbp)
    de7a:	00 00 00 00 
    de7e:	c7 85 08 f1 ff ff e3 	movl   $0xce98a5e3,-0xef8(%rbp)
    de85:	a5 98 ce 
    de88:	48 8d 85 00 f1 ff ff 	lea    -0xf00(%rbp),%rax
    de8f:	48 89 85 50 f2 ff ff 	mov    %rax,-0xdb0(%rbp)
    de96:	48 8d 05 b3 ce 00 00 	lea    0xceb3(%rip),%rax        # 1ad50 <g_1371>
    de9d:	48 89 85 58 f2 ff ff 	mov    %rax,-0xda8(%rbp)
    dea4:	48 8d 05 9d eb 00 00 	lea    0xeb9d(%rip),%rax        # 1ca48 <g_647>
    deab:	48 89 85 60 f2 ff ff 	mov    %rax,-0xda0(%rbp)
    deb2:	48 8d 05 07 c2 00 00 	lea    0xc207(%rip),%rax        # 1a0c0 <g_251>
    deb9:	48 89 85 68 f2 ff ff 	mov    %rax,-0xd98(%rbp)
    dec0:	48 8d 85 10 f1 ff ff 	lea    -0xef0(%rbp),%rax
    dec7:	48 89 85 70 f2 ff ff 	mov    %rax,-0xd90(%rbp)
    dece:	c7 85 5c f0 ff ff 00 	movl   $0x0,-0xfa4(%rbp)
    ded5:	00 00 00 
    ded8:	eb 14                	jmp    deee <func_35+0x2dc1>
    deda:	8b 85 5c f0 ff ff    	mov    -0xfa4(%rbp),%eax
    dee0:	48 98                	cltq   
    dee2:	c6 44 05 c7 f7       	movb   $0xf7,-0x39(%rbp,%rax,1)
    dee7:	83 85 5c f0 ff ff 01 	addl   $0x1,-0xfa4(%rbp)
    deee:	83 bd 5c f0 ff ff 00 	cmpl   $0x0,-0xfa4(%rbp)
    def5:	7e e3                	jle    deda <func_35+0x2dad>
    def7:	8b 85 e4 ef ff ff    	mov    -0x101c(%rbp),%eax
    defd:	89 c6                	mov    %eax,%esi
    deff:	bf 00 00 00 00       	mov    $0x0,%edi
    df04:	e8 71 af ff ff       	callq  8e7a <safe_rshift_func_uint16_t_u_u>
    df09:	48 8d 05 b1 c1 00 00 	lea    0xc1b1(%rip),%rax        # 1a0c1 <g_277>
    df10:	0f b6 10             	movzbl (%rax),%edx
    df13:	48 8d 05 a7 c1 00 00 	lea    0xc1a7(%rip),%rax        # 1a0c1 <g_277>
    df1a:	83 ca fe             	or     $0xfffffffe,%edx
    df1d:	88 10                	mov    %dl,(%rax)
    df1f:	48 8b 85 28 f2 ff ff 	mov    -0xdd8(%rbp),%rax
    df26:	c7 00 01 00 00 00    	movl   $0x1,(%rax)
    df2c:	81 bd e4 ef ff ff 0c 	cmpl   $0x770c,-0x101c(%rbp)
    df33:	77 00 00 
    df36:	0f 97 c0             	seta   %al
    df39:	0f b6 d0             	movzbl %al,%edx
    df3c:	48 8b 85 60 f1 ff ff 	mov    -0xea0(%rbp),%rax
    df43:	8b 00                	mov    (%rax),%eax
    df45:	09 d0                	or     %edx,%eax
    df47:	48 63 d0             	movslq %eax,%rdx
    df4a:	48 8b 05 ef e9 00 00 	mov    0xe9ef(%rip),%rax        # 1c940 <g_284>
    df51:	48 8b 30             	mov    (%rax),%rsi
    df54:	0f b7 85 00 f1 ff ff 	movzwl -0xf00(%rbp),%eax
    df5b:	0f b7 c8             	movzwl %ax,%ecx
    df5e:	48 8b 05 db e9 00 00 	mov    0xe9db(%rip),%rax        # 1c940 <g_284>
    df65:	48 21 f1             	and    %rsi,%rcx
    df68:	48 89 08             	mov    %rcx,(%rax)
    df6b:	48 8b 00             	mov    (%rax),%rax
    df6e:	48 89 d6             	mov    %rdx,%rsi
    df71:	48 89 c7             	mov    %rax,%rdi
    df74:	e8 2f a9 ff ff       	callq  88a8 <safe_sub_func_int64_t_s_s>
    df79:	48 89 c2             	mov    %rax,%rdx
    df7c:	48 8b 85 10 f1 ff ff 	mov    -0xef0(%rbp),%rax
    df83:	89 10                	mov    %edx,(%rax)
    df85:	8b 10                	mov    (%rax),%edx
    df87:	48 8b 85 30 f2 ff ff 	mov    -0xdd0(%rbp),%rax
    df8e:	8b 00                	mov    (%rax),%eax
    df90:	31 c2                	xor    %eax,%edx
    df92:	48 8b 85 30 f2 ff ff 	mov    -0xdd0(%rbp),%rax
    df99:	89 10                	mov    %edx,(%rax)
    df9b:	0f b7 85 12 f0 ff ff 	movzwl -0xfee(%rbp),%eax
    dfa2:	83 e0 02             	and    $0x2,%eax
    dfa5:	89 c2                	mov    %eax,%edx
    dfa7:	48 8b 85 30 f2 ff ff 	mov    -0xdd0(%rbp),%rax
    dfae:	8b 00                	mov    (%rax),%eax
    dfb0:	09 c2                	or     %eax,%edx
    dfb2:	48 8b 05 b7 fa 00 00 	mov    0xfab7(%rip),%rax        # 1da70 <g_2426>
    dfb9:	8b 00                	mov    (%rax),%eax
    dfbb:	21 d0                	and    %edx,%eax
    dfbd:	89 85 08 f1 ff ff    	mov    %eax,-0xef8(%rbp)
    dfc3:	48 8b 85 10 f1 ff ff 	mov    -0xef0(%rbp),%rax
    dfca:	8b 00                	mov    (%rax),%eax
    dfcc:	0f b7 d8             	movzwl %ax,%ebx
    dfcf:	48 8b 85 50 f2 ff ff 	mov    -0xdb0(%rbp),%rax
    dfd6:	0f b7 00             	movzwl (%rax),%eax
    dfd9:	8d 50 ff             	lea    -0x1(%rax),%edx
    dfdc:	48 8b 85 50 f2 ff ff 	mov    -0xdb0(%rbp),%rax
    dfe3:	66 89 10             	mov    %dx,(%rax)
    dfe6:	48 8b 85 50 f2 ff ff 	mov    -0xdb0(%rbp),%rax
    dfed:	0f b7 00             	movzwl (%rax),%eax
    dff0:	0f b7 c0             	movzwl %ax,%eax
    dff3:	be 04 00 00 00       	mov    $0x4,%esi
    dff8:	89 c7                	mov    %eax,%edi
    dffa:	e8 7b ae ff ff       	callq  8e7a <safe_rshift_func_uint16_t_u_u>
    dfff:	44 0f b7 f8          	movzwl %ax,%r15d
    e003:	48 8b 85 e8 ef ff ff 	mov    -0x1018(%rbp),%rax
    e00a:	8b 00                	mov    (%rax),%eax
    e00c:	89 85 d4 ef ff ff    	mov    %eax,-0x102c(%rbp)
    e012:	44 8b a5 e4 ef ff ff 	mov    -0x101c(%rbp),%r12d
    e019:	48 8b 85 60 f1 ff ff 	mov    -0xea0(%rbp),%rax
    e020:	8b 00                	mov    (%rax),%eax
    e022:	44 0f b7 e8          	movzwl %ax,%r13d
    e026:	0f b6 45 c7          	movzbl -0x39(%rbp),%eax
    e02a:	44 0f b6 f0          	movzbl %al,%r14d
    e02e:	48 8b 05 e3 eb 00 00 	mov    0xebe3(%rip),%rax        # 1cc18 <g_1337>
    e035:	48 8b 00             	mov    (%rax),%rax
    e038:	c6 00 08             	movb   $0x8,(%rax)
    e03b:	83 bd e4 ef ff ff 00 	cmpl   $0x0,-0x101c(%rbp)
    e042:	75 44                	jne    e088 <func_35+0x2f5b>
    e044:	66 c7 05 03 0a 01 00 	movw   $0x6289,0x10a03(%rip)        # 1ea50 <g_696>
    e04b:	89 62 
    e04d:	c7 85 58 f0 ff ff 89 	movl   $0x6289,-0xfa8(%rbp)
    e054:	62 00 00 
    e057:	8b 95 58 f0 ff ff    	mov    -0xfa8(%rbp),%edx
    e05d:	48 8b 85 58 f2 ff ff 	mov    -0xda8(%rbp),%rax
    e064:	0f b7 00             	movzwl (%rax),%eax
    e067:	89 c1                	mov    %eax,%ecx
    e069:	89 d0                	mov    %edx,%eax
    e06b:	31 c8                	xor    %ecx,%eax
    e06d:	89 c2                	mov    %eax,%edx
    e06f:	48 8b 85 58 f2 ff ff 	mov    -0xda8(%rbp),%rax
    e076:	66 89 10             	mov    %dx,(%rax)
    e079:	48 8b 85 58 f2 ff ff 	mov    -0xda8(%rbp),%rax
    e080:	0f b7 00             	movzwl (%rax),%eax
    e083:	66 85 c0             	test   %ax,%ax
    e086:	74 07                	je     e08f <func_35+0x2f62>
    e088:	b8 01 00 00 00       	mov    $0x1,%eax
    e08d:	eb 05                	jmp    e094 <func_35+0x2f67>
    e08f:	b8 00 00 00 00       	mov    $0x0,%eax
    e094:	0f b6 c0             	movzbl %al,%eax
    e097:	be 00 00 00 00       	mov    $0x0,%esi
    e09c:	89 c7                	mov    %eax,%edi
    e09e:	e8 f0 aa ff ff       	callq  8b93 <safe_mul_func_uint8_t_u_u>
    e0a3:	0f b6 c0             	movzbl %al,%eax
    e0a6:	44 89 f6             	mov    %r14d,%esi
    e0a9:	89 c7                	mov    %eax,%edi
    e0ab:	e8 55 ab ff ff       	callq  8c05 <safe_lshift_func_uint8_t_u_s>
    e0b0:	84 c0                	test   %al,%al
    e0b2:	75 09                	jne    e0bd <func_35+0x2f90>
    e0b4:	83 bd 58 f0 ff ff 00 	cmpl   $0x0,-0xfa8(%rbp)
    e0bb:	74 10                	je     e0cd <func_35+0x2fa0>
    e0bd:	83 bd e4 ef ff ff 00 	cmpl   $0x0,-0x101c(%rbp)
    e0c4:	74 07                	je     e0cd <func_35+0x2fa0>
    e0c6:	ba 01 00 00 00       	mov    $0x1,%edx
    e0cb:	eb 05                	jmp    e0d2 <func_35+0x2fa5>
    e0cd:	ba 00 00 00 00       	mov    $0x0,%edx
    e0d2:	48 8b 85 30 f2 ff ff 	mov    -0xdd0(%rbp),%rax
    e0d9:	8b 00                	mov    (%rax),%eax
    e0db:	39 c2                	cmp    %eax,%edx
    e0dd:	0f 9f c0             	setg   %al
    e0e0:	0f b6 c0             	movzbl %al,%eax
    e0e3:	44 89 ee             	mov    %r13d,%esi
    e0e6:	89 c7                	mov    %eax,%edi
    e0e8:	e8 12 ac ff ff       	callq  8cff <safe_add_func_uint16_t_u_u>
    e0ed:	0f b7 c0             	movzwl %ax,%eax
    e0f0:	44 89 e6             	mov    %r12d,%esi
    e0f3:	89 c7                	mov    %eax,%edi
    e0f5:	e8 d2 a5 ff ff       	callq  86cc <safe_mod_func_int32_t_s_s>
    e0fa:	85 c0                	test   %eax,%eax
    e0fc:	74 07                	je     e105 <func_35+0x2fd8>
    e0fe:	b8 01 00 00 00       	mov    $0x1,%eax
    e103:	eb 05                	jmp    e10a <func_35+0x2fdd>
    e105:	b8 00 00 00 00       	mov    $0x0,%eax
    e10a:	0b 85 d4 ef ff ff    	or     -0x102c(%rbp),%eax
    e110:	39 85 e4 ef ff ff    	cmp    %eax,-0x101c(%rbp)
    e116:	0f 92 c0             	setb   %al
    e119:	0f b6 d0             	movzbl %al,%edx
    e11c:	48 8b 05 35 e8 00 00 	mov    0xe835(%rip),%rax        # 1c958 <g_371>
    e123:	48 8b 00             	mov    (%rax),%rax
    e126:	8b 00                	mov    (%rax),%eax
    e128:	39 c2                	cmp    %eax,%edx
    e12a:	0f 9e c0             	setle  %al
    e12d:	0f b6 c0             	movzbl %al,%eax
    e130:	41 39 c7             	cmp    %eax,%r15d
    e133:	0f 9d c0             	setge  %al
    e136:	0f b6 c0             	movzbl %al,%eax
    e139:	8b 95 90 f0 ff ff    	mov    -0xf70(%rbp),%edx
    e13f:	89 d6                	mov    %edx,%esi
    e141:	89 c7                	mov    %eax,%edi
    e143:	e8 4a a3 ff ff       	callq  8492 <safe_lshift_func_int16_t_s_s>
    e148:	0f b7 c0             	movzwl %ax,%eax
    e14b:	89 de                	mov    %ebx,%esi
    e14d:	89 c7                	mov    %eax,%edi
    e14f:	e8 cb ab ff ff       	callq  8d1f <safe_sub_func_uint16_t_u_u>
    e154:	89 c2                	mov    %eax,%edx
    e156:	48 8b 85 10 f1 ff ff 	mov    -0xef0(%rbp),%rax
    e15d:	0f b7 d2             	movzwl %dx,%edx
    e160:	89 10                	mov    %edx,(%rax)
    e162:	48 8b 05 af ea 00 00 	mov    0xeaaf(%rip),%rax        # 1cc18 <g_1337>
    e169:	48 8b 00             	mov    (%rax),%rax
    e16c:	0f b6 00             	movzbl (%rax),%eax
    e16f:	0f b6 c0             	movzbl %al,%eax
    e172:	be 01 00 00 00       	mov    $0x1,%esi
    e177:	89 c7                	mov    %eax,%edi
    e179:	e8 ce aa ff ff       	callq  8c4c <safe_lshift_func_uint8_t_u_u>
    e17e:	48 8b 85 70 f2 ff ff 	mov    -0xd90(%rbp),%rax
    e185:	48 8d 95 08 f1 ff ff 	lea    -0xef8(%rbp),%rdx
    e18c:	48 89 10             	mov    %rdx,(%rax)
    e18f:	c6 05 06 d2 00 00 ea 	movb   $0xea,0xd206(%rip)        # 1b39c <g_2268>
    e196:	eb 2c                	jmp    e1c4 <func_35+0x3097>
    e198:	48 c7 85 78 f2 ff ff 	movq   $0x0,-0xd88(%rbp)
    e19f:	00 00 00 00 
    e1a3:	48 8b 05 b6 00 01 00 	mov    0x100b6(%rip),%rax        # 1e260 <g_2533>
    e1aa:	48 8b 95 d8 ef ff ff 	mov    -0x1028(%rbp),%rdx
    e1b1:	48 89 10             	mov    %rdx,(%rax)
    e1b4:	0f b6 05 e1 d1 00 00 	movzbl 0xd1e1(%rip),%eax        # 1b39c <g_2268>
    e1bb:	83 c0 01             	add    $0x1,%eax
    e1be:	88 05 d8 d1 00 00    	mov    %al,0xd1d8(%rip)        # 1b39c <g_2268>
    e1c4:	0f b6 05 d1 d1 00 00 	movzbl 0xd1d1(%rip),%eax        # 1b39c <g_2268>
    e1cb:	3c 18                	cmp    $0x18,%al
    e1cd:	74 c9                	je     e198 <func_35+0x306b>
    e1cf:	48 8b 05 ca d1 00 00 	mov    0xd1ca(%rip),%rax        # 1b3a0 <g_2377>
    e1d6:	48 83 c0 01          	add    $0x1,%rax
    e1da:	48 89 05 bf d1 00 00 	mov    %rax,0xd1bf(%rip)        # 1b3a0 <g_2377>
    e1e1:	48 8b 05 b8 d1 00 00 	mov    0xd1b8(%rip),%rax        # 1b3a0 <g_2377>
    e1e8:	48 83 f8 26          	cmp    $0x26,%rax
    e1ec:	0f 87 23 fc ff ff    	ja     de15 <func_35+0x2ce8>
    e1f2:	8b 85 18 f0 ff ff    	mov    -0xfe8(%rbp),%eax
    e1f8:	48 98                	cltq   
    e1fa:	be 01 00 00 00       	mov    $0x1,%esi
    e1ff:	48 89 c7             	mov    %rax,%rdi
    e202:	e8 44 ae ff ff       	callq  904b <safe_sub_func_uint64_t_u_u>
    e207:	89 85 18 f0 ff ff    	mov    %eax,-0xfe8(%rbp)
    e20d:	8b 85 18 f0 ff ff    	mov    -0xfe8(%rbp),%eax
    e213:	83 f8 e4             	cmp    $0xffffffe4,%eax
    e216:	0f 85 a3 fb ff ff    	jne    ddbf <func_35+0x2c92>
    e21c:	48 8b 05 0d d2 00 00 	mov    0xd20d(%rip),%rax        # 1b430 <g_2534>
    e223:	48 8b 5d c8          	mov    -0x38(%rbp),%rbx
    e227:	64 48 33 1c 25 28 00 	xor    %fs:0x28,%rbx
    e22e:	00 00 
    e230:	74 05                	je     e237 <func_35+0x310a>
    e232:	e8 39 9e ff ff       	callq  8070 <__stack_chk_fail@plt>
    e237:	48 81 c4 08 10 00 00 	add    $0x1008,%rsp
    e23e:	5b                   	pop    %rbx
    e23f:	41 5c                	pop    %r12
    e241:	41 5d                	pop    %r13
    e243:	41 5e                	pop    %r14
    e245:	41 5f                	pop    %r15
    e247:	5d                   	pop    %rbp
    e248:	c3                   	retq   

000000000000e249 <func_41>:
    e249:	f3 0f 1e fa          	endbr64 
    e24d:	55                   	push   %rbp
    e24e:	48 89 e5             	mov    %rsp,%rbp
    e251:	41 54                	push   %r12
    e253:	53                   	push   %rbx
    e254:	48 81 ec d0 08 00 00 	sub    $0x8d0,%rsp
    e25b:	48 89 bd 28 f7 ff ff 	mov    %rdi,-0x8d8(%rbp)
    e262:	64 48 8b 04 25 28 00 	mov    %fs:0x28,%rax
    e269:	00 00 
    e26b:	48 89 45 e8          	mov    %rax,-0x18(%rbp)
    e26f:	31 c0                	xor    %eax,%eax
    e271:	48 8d 05 b0 bd 00 00 	lea    0xbdb0(%rip),%rax        # 1a028 <g_3>
    e278:	48 89 85 b0 f7 ff ff 	mov    %rax,-0x850(%rbp)
    e27f:	48 8d 05 b2 ca 00 00 	lea    0xcab2(%rip),%rax        # 1ad38 <g_1264>
    e286:	48 89 85 b8 f7 ff ff 	mov    %rax,-0x848(%rbp)
    e28d:	c7 85 44 f7 ff ff b1 	movl   $0x818fa4b1,-0x8bc(%rbp)
    e294:	a4 8f 81 
    e297:	c7 85 48 f7 ff ff 6c 	movl   $0x36892e6c,-0x8b8(%rbp)
    e29e:	2e 89 36 
    e2a1:	c7 85 4c f7 ff ff 07 	movl   $0xdc090b07,-0x8b4(%rbp)
    e2a8:	0b 09 dc 
    e2ab:	c7 85 50 f7 ff ff ff 	movl   $0xffffffff,-0x8b0(%rbp)
    e2b2:	ff ff ff 
    e2b5:	c7 85 54 f7 ff ff fa 	movl   $0xfffffffa,-0x8ac(%rbp)
    e2bc:	ff ff ff 
    e2bf:	c7 85 58 f7 ff ff 30 	movl   $0xd84ff430,-0x8a8(%rbp)
    e2c6:	f4 4f d8 
    e2c9:	c7 85 70 f8 ff ff ff 	movl   $0xffffffff,-0x790(%rbp)
    e2d0:	ff ff ff 
    e2d3:	c7 85 74 f8 ff ff ff 	movl   $0xffffffff,-0x78c(%rbp)
    e2da:	ff ff ff 
    e2dd:	c7 85 78 f8 ff ff ff 	movl   $0xffffffff,-0x788(%rbp)
    e2e4:	ff ff ff 
    e2e7:	c7 85 7c f8 ff ff 01 	movl   $0x1,-0x784(%rbp)
    e2ee:	00 00 00 
    e2f1:	c7 85 80 f8 ff ff 01 	movl   $0x1,-0x780(%rbp)
    e2f8:	00 00 00 
    e2fb:	c7 85 84 f8 ff ff 01 	movl   $0x1,-0x77c(%rbp)
    e302:	00 00 00 
    e305:	c7 85 5c f7 ff ff 28 	movl   $0xa9628828,-0x8a4(%rbp)
    e30c:	88 62 a9 
    e30f:	c7 85 60 f7 ff ff 01 	movl   $0x1,-0x8a0(%rbp)
    e316:	00 00 00 
    e319:	48 b8 aa b0 f2 ea 72 	movabs $0x9feda372eaf2b0aa,%rax
    e320:	a3 ed 9f 
    e323:	48 89 85 70 f7 ff ff 	mov    %rax,-0x890(%rbp)
    e32a:	48 8d 05 17 e7 00 00 	lea    0xe717(%rip),%rax        # 1ca48 <g_647>
    e331:	48 89 85 78 f7 ff ff 	mov    %rax,-0x888(%rbp)
    e338:	48 8d 85 78 f7 ff ff 	lea    -0x888(%rbp),%rax
    e33f:	48 89 85 c0 f7 ff ff 	mov    %rax,-0x840(%rbp)
    e346:	48 c7 85 c8 f7 ff ff 	movq   $0x9,-0x838(%rbp)
    e34d:	09 00 00 00 
    e351:	48 8d 05 f8 06 01 00 	lea    0x106f8(%rip),%rax        # 1ea50 <g_696>
    e358:	48 89 85 80 f7 ff ff 	mov    %rax,-0x880(%rbp)
    e35f:	48 8d 05 ca e8 00 00 	lea    0xe8ca(%rip),%rax        # 1cc30 <g_1501>
    e366:	48 89 85 d0 f7 ff ff 	mov    %rax,-0x830(%rbp)
    e36d:	48 8d 85 48 f8 ff ff 	lea    -0x7b8(%rbp),%rax
    e374:	48 89 85 d8 f7 ff ff 	mov    %rax,-0x828(%rbp)
    e37b:	c7 85 64 f7 ff ff fe 	movl   $0xfffffffe,-0x89c(%rbp)
    e382:	ff ff ff 
    e385:	48 8d 05 64 be 00 00 	lea    0xbe64(%rip),%rax        # 1a1f0 <g_1034>
    e38c:	48 89 85 20 fc ff ff 	mov    %rax,-0x3e0(%rbp)
    e393:	48 8d 05 1e be 00 00 	lea    0xbe1e(%rip),%rax        # 1a1b8 <g_533>
    e39a:	48 89 85 28 fc ff ff 	mov    %rax,-0x3d8(%rbp)
    e3a1:	48 8d 85 70 f7 ff ff 	lea    -0x890(%rbp),%rax
    e3a8:	48 89 85 30 fc ff ff 	mov    %rax,-0x3d0(%rbp)
    e3af:	48 8d 05 3a be 00 00 	lea    0xbe3a(%rip),%rax        # 1a1f0 <g_1034>
    e3b6:	48 89 85 38 fc ff ff 	mov    %rax,-0x3c8(%rbp)
    e3bd:	48 8d 05 f4 bd 00 00 	lea    0xbdf4(%rip),%rax        # 1a1b8 <g_533>
    e3c4:	48 89 85 40 fc ff ff 	mov    %rax,-0x3c0(%rbp)
    e3cb:	48 c7 85 48 fc ff ff 	movq   $0x0,-0x3b8(%rbp)
    e3d2:	00 00 00 00 
    e3d6:	48 8d 05 db bd 00 00 	lea    0xbddb(%rip),%rax        # 1a1b8 <g_533>
    e3dd:	48 89 85 50 fc ff ff 	mov    %rax,-0x3b0(%rbp)
    e3e4:	48 8d 05 05 be 00 00 	lea    0xbe05(%rip),%rax        # 1a1f0 <g_1034>
    e3eb:	48 89 85 58 fc ff ff 	mov    %rax,-0x3a8(%rbp)
    e3f2:	48 8d 85 70 f7 ff ff 	lea    -0x890(%rbp),%rax
    e3f9:	48 89 85 60 fc ff ff 	mov    %rax,-0x3a0(%rbp)
    e400:	48 8d 05 b1 bd 00 00 	lea    0xbdb1(%rip),%rax        # 1a1b8 <g_533>
    e407:	48 89 85 68 fc ff ff 	mov    %rax,-0x398(%rbp)
    e40e:	48 8d 05 db bd 00 00 	lea    0xbddb(%rip),%rax        # 1a1f0 <g_1034>
    e415:	48 89 85 70 fc ff ff 	mov    %rax,-0x390(%rbp)
    e41c:	48 c7 85 78 fc ff ff 	movq   $0x0,-0x388(%rbp)
    e423:	00 00 00 00 
    e427:	48 8d 05 8a bd 00 00 	lea    0xbd8a(%rip),%rax        # 1a1b8 <g_533>
    e42e:	48 89 85 80 fc ff ff 	mov    %rax,-0x380(%rbp)
    e435:	48 8d 05 7c bd 00 00 	lea    0xbd7c(%rip),%rax        # 1a1b8 <g_533>
    e43c:	48 89 85 88 fc ff ff 	mov    %rax,-0x378(%rbp)
    e443:	48 8d 85 70 f7 ff ff 	lea    -0x890(%rbp),%rax
    e44a:	48 89 85 90 fc ff ff 	mov    %rax,-0x370(%rbp)
    e451:	48 8d 05 60 bd 00 00 	lea    0xbd60(%rip),%rax        # 1a1b8 <g_533>
    e458:	48 89 85 98 fc ff ff 	mov    %rax,-0x368(%rbp)
    e45f:	48 8d 05 52 bd 00 00 	lea    0xbd52(%rip),%rax        # 1a1b8 <g_533>
    e466:	48 89 85 a0 fc ff ff 	mov    %rax,-0x360(%rbp)
    e46d:	48 c7 85 a8 fc ff ff 	movq   $0x0,-0x358(%rbp)
    e474:	00 00 00 00 
    e478:	48 8d 05 71 bd 00 00 	lea    0xbd71(%rip),%rax        # 1a1f0 <g_1034>
    e47f:	48 89 85 b0 fc ff ff 	mov    %rax,-0x350(%rbp)
    e486:	48 8d 05 2b bd 00 00 	lea    0xbd2b(%rip),%rax        # 1a1b8 <g_533>
    e48d:	48 89 85 b8 fc ff ff 	mov    %rax,-0x348(%rbp)
    e494:	48 8d 85 70 f7 ff ff 	lea    -0x890(%rbp),%rax
    e49b:	48 89 85 c0 fc ff ff 	mov    %rax,-0x340(%rbp)
    e4a2:	48 8d 05 47 bd 00 00 	lea    0xbd47(%rip),%rax        # 1a1f0 <g_1034>
    e4a9:	48 89 85 c8 fc ff ff 	mov    %rax,-0x338(%rbp)
    e4b0:	48 8d 05 01 bd 00 00 	lea    0xbd01(%rip),%rax        # 1a1b8 <g_533>
    e4b7:	48 89 85 d0 fc ff ff 	mov    %rax,-0x330(%rbp)
    e4be:	48 c7 85 d8 fc ff ff 	movq   $0x0,-0x328(%rbp)
    e4c5:	00 00 00 00 
    e4c9:	48 8d 05 e8 bc 00 00 	lea    0xbce8(%rip),%rax        # 1a1b8 <g_533>
    e4d0:	48 89 85 e0 fc ff ff 	mov    %rax,-0x320(%rbp)
    e4d7:	48 8d 05 12 bd 00 00 	lea    0xbd12(%rip),%rax        # 1a1f0 <g_1034>
    e4de:	48 89 85 e8 fc ff ff 	mov    %rax,-0x318(%rbp)
    e4e5:	48 8d 85 70 f7 ff ff 	lea    -0x890(%rbp),%rax
    e4ec:	48 89 85 f0 fc ff ff 	mov    %rax,-0x310(%rbp)
    e4f3:	48 8d 05 be bc 00 00 	lea    0xbcbe(%rip),%rax        # 1a1b8 <g_533>
    e4fa:	48 89 85 f8 fc ff ff 	mov    %rax,-0x308(%rbp)
    e501:	48 8d 05 e8 bc 00 00 	lea    0xbce8(%rip),%rax        # 1a1f0 <g_1034>
    e508:	48 89 85 00 fd ff ff 	mov    %rax,-0x300(%rbp)
    e50f:	48 c7 85 08 fd ff ff 	movq   $0x0,-0x2f8(%rbp)
    e516:	00 00 00 00 
    e51a:	48 8d 05 97 bc 00 00 	lea    0xbc97(%rip),%rax        # 1a1b8 <g_533>
    e521:	48 89 85 10 fd ff ff 	mov    %rax,-0x2f0(%rbp)
    e528:	48 8d 05 89 bc 00 00 	lea    0xbc89(%rip),%rax        # 1a1b8 <g_533>
    e52f:	48 89 85 18 fd ff ff 	mov    %rax,-0x2e8(%rbp)
    e536:	48 8d 85 70 f7 ff ff 	lea    -0x890(%rbp),%rax
    e53d:	48 89 85 20 fd ff ff 	mov    %rax,-0x2e0(%rbp)
    e544:	48 8d 05 6d bc 00 00 	lea    0xbc6d(%rip),%rax        # 1a1b8 <g_533>
    e54b:	48 89 85 28 fd ff ff 	mov    %rax,-0x2d8(%rbp)
    e552:	48 8d 05 5f bc 00 00 	lea    0xbc5f(%rip),%rax        # 1a1b8 <g_533>
    e559:	48 89 85 30 fd ff ff 	mov    %rax,-0x2d0(%rbp)
    e560:	48 c7 85 38 fd ff ff 	movq   $0x0,-0x2c8(%rbp)
    e567:	00 00 00 00 
    e56b:	48 8d 05 7e bc 00 00 	lea    0xbc7e(%rip),%rax        # 1a1f0 <g_1034>
    e572:	48 89 85 40 fd ff ff 	mov    %rax,-0x2c0(%rbp)
    e579:	48 8d 05 38 bc 00 00 	lea    0xbc38(%rip),%rax        # 1a1b8 <g_533>
    e580:	48 89 85 48 fd ff ff 	mov    %rax,-0x2b8(%rbp)
    e587:	48 8d 85 70 f7 ff ff 	lea    -0x890(%rbp),%rax
    e58e:	48 89 85 50 fd ff ff 	mov    %rax,-0x2b0(%rbp)
    e595:	48 8d 05 54 bc 00 00 	lea    0xbc54(%rip),%rax        # 1a1f0 <g_1034>
    e59c:	48 89 85 58 fd ff ff 	mov    %rax,-0x2a8(%rbp)
    e5a3:	48 8d 05 0e bc 00 00 	lea    0xbc0e(%rip),%rax        # 1a1b8 <g_533>
    e5aa:	48 89 85 60 fd ff ff 	mov    %rax,-0x2a0(%rbp)
    e5b1:	48 c7 85 68 fd ff ff 	movq   $0x0,-0x298(%rbp)
    e5b8:	00 00 00 00 
    e5bc:	48 8d 05 f5 bb 00 00 	lea    0xbbf5(%rip),%rax        # 1a1b8 <g_533>
    e5c3:	48 89 85 70 fd ff ff 	mov    %rax,-0x290(%rbp)
    e5ca:	48 8d 05 1f bc 00 00 	lea    0xbc1f(%rip),%rax        # 1a1f0 <g_1034>
    e5d1:	48 89 85 78 fd ff ff 	mov    %rax,-0x288(%rbp)
    e5d8:	48 8d 85 70 f7 ff ff 	lea    -0x890(%rbp),%rax
    e5df:	48 89 85 80 fd ff ff 	mov    %rax,-0x280(%rbp)
    e5e6:	48 8d 05 cb bb 00 00 	lea    0xbbcb(%rip),%rax        # 1a1b8 <g_533>
    e5ed:	48 89 85 88 fd ff ff 	mov    %rax,-0x278(%rbp)
    e5f4:	48 8d 05 f5 bb 00 00 	lea    0xbbf5(%rip),%rax        # 1a1f0 <g_1034>
    e5fb:	48 89 85 90 fd ff ff 	mov    %rax,-0x270(%rbp)
    e602:	48 c7 85 98 fd ff ff 	movq   $0x0,-0x268(%rbp)
    e609:	00 00 00 00 
    e60d:	48 8d 05 a4 bb 00 00 	lea    0xbba4(%rip),%rax        # 1a1b8 <g_533>
    e614:	48 89 85 a0 fd ff ff 	mov    %rax,-0x260(%rbp)
    e61b:	48 8d 05 96 bb 00 00 	lea    0xbb96(%rip),%rax        # 1a1b8 <g_533>
    e622:	48 89 85 a8 fd ff ff 	mov    %rax,-0x258(%rbp)
    e629:	48 8d 85 70 f7 ff ff 	lea    -0x890(%rbp),%rax
    e630:	48 89 85 b0 fd ff ff 	mov    %rax,-0x250(%rbp)
    e637:	48 8d 05 7a bb 00 00 	lea    0xbb7a(%rip),%rax        # 1a1b8 <g_533>
    e63e:	48 89 85 b8 fd ff ff 	mov    %rax,-0x248(%rbp)
    e645:	48 8d 05 6c bb 00 00 	lea    0xbb6c(%rip),%rax        # 1a1b8 <g_533>
    e64c:	48 89 85 c0 fd ff ff 	mov    %rax,-0x240(%rbp)
    e653:	48 c7 85 c8 fd ff ff 	movq   $0x0,-0x238(%rbp)
    e65a:	00 00 00 00 
    e65e:	48 8d 05 8b bb 00 00 	lea    0xbb8b(%rip),%rax        # 1a1f0 <g_1034>
    e665:	48 89 85 d0 fd ff ff 	mov    %rax,-0x230(%rbp)
    e66c:	48 8d 05 45 bb 00 00 	lea    0xbb45(%rip),%rax        # 1a1b8 <g_533>
    e673:	48 89 85 d8 fd ff ff 	mov    %rax,-0x228(%rbp)
    e67a:	48 8d 85 70 f7 ff ff 	lea    -0x890(%rbp),%rax
    e681:	48 89 85 e0 fd ff ff 	mov    %rax,-0x220(%rbp)
    e688:	48 8d 05 61 bb 00 00 	lea    0xbb61(%rip),%rax        # 1a1f0 <g_1034>
    e68f:	48 89 85 e8 fd ff ff 	mov    %rax,-0x218(%rbp)
    e696:	48 8d 05 1b bb 00 00 	lea    0xbb1b(%rip),%rax        # 1a1b8 <g_533>
    e69d:	48 89 85 f0 fd ff ff 	mov    %rax,-0x210(%rbp)
    e6a4:	48 c7 85 f8 fd ff ff 	movq   $0x0,-0x208(%rbp)
    e6ab:	00 00 00 00 
    e6af:	48 8d 05 02 bb 00 00 	lea    0xbb02(%rip),%rax        # 1a1b8 <g_533>
    e6b6:	48 89 85 00 fe ff ff 	mov    %rax,-0x200(%rbp)
    e6bd:	48 8d 05 2c bb 00 00 	lea    0xbb2c(%rip),%rax        # 1a1f0 <g_1034>
    e6c4:	48 89 85 08 fe ff ff 	mov    %rax,-0x1f8(%rbp)
    e6cb:	48 8d 85 70 f7 ff ff 	lea    -0x890(%rbp),%rax
    e6d2:	48 89 85 10 fe ff ff 	mov    %rax,-0x1f0(%rbp)
    e6d9:	48 8d 05 d8 ba 00 00 	lea    0xbad8(%rip),%rax        # 1a1b8 <g_533>
    e6e0:	48 89 85 18 fe ff ff 	mov    %rax,-0x1e8(%rbp)
    e6e7:	48 8d 05 02 bb 00 00 	lea    0xbb02(%rip),%rax        # 1a1f0 <g_1034>
    e6ee:	48 89 85 20 fe ff ff 	mov    %rax,-0x1e0(%rbp)
    e6f5:	48 c7 85 28 fe ff ff 	movq   $0x0,-0x1d8(%rbp)
    e6fc:	00 00 00 00 
    e700:	48 8d 05 b1 ba 00 00 	lea    0xbab1(%rip),%rax        # 1a1b8 <g_533>
    e707:	48 89 85 30 fe ff ff 	mov    %rax,-0x1d0(%rbp)
    e70e:	48 8d 05 a3 ba 00 00 	lea    0xbaa3(%rip),%rax        # 1a1b8 <g_533>
    e715:	48 89 85 38 fe ff ff 	mov    %rax,-0x1c8(%rbp)
    e71c:	48 8d 85 70 f7 ff ff 	lea    -0x890(%rbp),%rax
    e723:	48 89 85 40 fe ff ff 	mov    %rax,-0x1c0(%rbp)
    e72a:	48 8d 05 87 ba 00 00 	lea    0xba87(%rip),%rax        # 1a1b8 <g_533>
    e731:	48 89 85 48 fe ff ff 	mov    %rax,-0x1b8(%rbp)
    e738:	48 8d 05 79 ba 00 00 	lea    0xba79(%rip),%rax        # 1a1b8 <g_533>
    e73f:	48 89 85 50 fe ff ff 	mov    %rax,-0x1b0(%rbp)
    e746:	48 c7 85 58 fe ff ff 	movq   $0x0,-0x1a8(%rbp)
    e74d:	00 00 00 00 
    e751:	48 8d 05 98 ba 00 00 	lea    0xba98(%rip),%rax        # 1a1f0 <g_1034>
    e758:	48 89 85 60 fe ff ff 	mov    %rax,-0x1a0(%rbp)
    e75f:	48 8d 05 52 ba 00 00 	lea    0xba52(%rip),%rax        # 1a1b8 <g_533>
    e766:	48 89 85 68 fe ff ff 	mov    %rax,-0x198(%rbp)
    e76d:	48 8d 85 70 f7 ff ff 	lea    -0x890(%rbp),%rax
    e774:	48 89 85 70 fe ff ff 	mov    %rax,-0x190(%rbp)
    e77b:	48 8d 05 6e ba 00 00 	lea    0xba6e(%rip),%rax        # 1a1f0 <g_1034>
    e782:	48 89 85 78 fe ff ff 	mov    %rax,-0x188(%rbp)
    e789:	48 8d 05 28 ba 00 00 	lea    0xba28(%rip),%rax        # 1a1b8 <g_533>
    e790:	48 89 85 80 fe ff ff 	mov    %rax,-0x180(%rbp)
    e797:	48 c7 85 88 fe ff ff 	movq   $0x0,-0x178(%rbp)
    e79e:	00 00 00 00 
    e7a2:	48 8d 05 0f ba 00 00 	lea    0xba0f(%rip),%rax        # 1a1b8 <g_533>
    e7a9:	48 89 85 90 fe ff ff 	mov    %rax,-0x170(%rbp)
    e7b0:	48 c7 85 98 fe ff ff 	movq   $0x0,-0x168(%rbp)
    e7b7:	00 00 00 00 
    e7bb:	48 8d 05 f6 b9 00 00 	lea    0xb9f6(%rip),%rax        # 1a1b8 <g_533>
    e7c2:	48 89 85 a0 fe ff ff 	mov    %rax,-0x160(%rbp)
    e7c9:	48 8d 05 e8 b9 00 00 	lea    0xb9e8(%rip),%rax        # 1a1b8 <g_533>
    e7d0:	48 89 85 a8 fe ff ff 	mov    %rax,-0x158(%rbp)
    e7d7:	48 c7 85 b0 fe ff ff 	movq   $0x0,-0x150(%rbp)
    e7de:	00 00 00 00 
    e7e2:	48 8d 05 cf b9 00 00 	lea    0xb9cf(%rip),%rax        # 1a1b8 <g_533>
    e7e9:	48 89 85 b8 fe ff ff 	mov    %rax,-0x148(%rbp)
    e7f0:	48 8d 85 70 f7 ff ff 	lea    -0x890(%rbp),%rax
    e7f7:	48 89 85 c0 fe ff ff 	mov    %rax,-0x140(%rbp)
    e7fe:	48 8d 85 70 f7 ff ff 	lea    -0x890(%rbp),%rax
    e805:	48 89 85 c8 fe ff ff 	mov    %rax,-0x138(%rbp)
    e80c:	48 8d 05 a5 b9 00 00 	lea    0xb9a5(%rip),%rax        # 1a1b8 <g_533>
    e813:	48 89 85 d0 fe ff ff 	mov    %rax,-0x130(%rbp)
    e81a:	48 8d 85 70 f7 ff ff 	lea    -0x890(%rbp),%rax
    e821:	48 89 85 d8 fe ff ff 	mov    %rax,-0x128(%rbp)
    e828:	48 8d 85 70 f7 ff ff 	lea    -0x890(%rbp),%rax
    e82f:	48 89 85 e0 fe ff ff 	mov    %rax,-0x120(%rbp)
    e836:	48 8d 05 7b b9 00 00 	lea    0xb97b(%rip),%rax        # 1a1b8 <g_533>
    e83d:	48 89 85 e8 fe ff ff 	mov    %rax,-0x118(%rbp)
    e844:	48 c7 85 f0 fe ff ff 	movq   $0x0,-0x110(%rbp)
    e84b:	00 00 00 00 
    e84f:	48 8d 05 62 b9 00 00 	lea    0xb962(%rip),%rax        # 1a1b8 <g_533>
    e856:	48 89 85 f8 fe ff ff 	mov    %rax,-0x108(%rbp)
    e85d:	48 8d 05 54 b9 00 00 	lea    0xb954(%rip),%rax        # 1a1b8 <g_533>
    e864:	48 89 85 00 ff ff ff 	mov    %rax,-0x100(%rbp)
    e86b:	48 c7 85 08 ff ff ff 	movq   $0x0,-0xf8(%rbp)
    e872:	00 00 00 00 
    e876:	48 8d 05 3b b9 00 00 	lea    0xb93b(%rip),%rax        # 1a1b8 <g_533>
    e87d:	48 89 85 10 ff ff ff 	mov    %rax,-0xf0(%rbp)
    e884:	48 8d 05 2d b9 00 00 	lea    0xb92d(%rip),%rax        # 1a1b8 <g_533>
    e88b:	48 89 85 18 ff ff ff 	mov    %rax,-0xe8(%rbp)
    e892:	48 8d 05 1f b9 00 00 	lea    0xb91f(%rip),%rax        # 1a1b8 <g_533>
    e899:	48 89 85 20 ff ff ff 	mov    %rax,-0xe0(%rbp)
    e8a0:	48 c7 85 28 ff ff ff 	movq   $0x0,-0xd8(%rbp)
    e8a7:	00 00 00 00 
    e8ab:	48 8d 05 06 b9 00 00 	lea    0xb906(%rip),%rax        # 1a1b8 <g_533>
    e8b2:	48 89 85 30 ff ff ff 	mov    %rax,-0xd0(%rbp)
    e8b9:	48 8d 05 f8 b8 00 00 	lea    0xb8f8(%rip),%rax        # 1a1b8 <g_533>
    e8c0:	48 89 85 38 ff ff ff 	mov    %rax,-0xc8(%rbp)
    e8c7:	48 c7 85 40 ff ff ff 	movq   $0x0,-0xc0(%rbp)
    e8ce:	00 00 00 00 
    e8d2:	48 8d 05 df b8 00 00 	lea    0xb8df(%rip),%rax        # 1a1b8 <g_533>
    e8d9:	48 89 85 48 ff ff ff 	mov    %rax,-0xb8(%rbp)
    e8e0:	48 8d 85 70 f7 ff ff 	lea    -0x890(%rbp),%rax
    e8e7:	48 89 85 50 ff ff ff 	mov    %rax,-0xb0(%rbp)
    e8ee:	48 8d 85 70 f7 ff ff 	lea    -0x890(%rbp),%rax
    e8f5:	48 89 85 58 ff ff ff 	mov    %rax,-0xa8(%rbp)
    e8fc:	48 8d 05 b5 b8 00 00 	lea    0xb8b5(%rip),%rax        # 1a1b8 <g_533>
    e903:	48 89 85 60 ff ff ff 	mov    %rax,-0xa0(%rbp)
    e90a:	48 8d 85 70 f7 ff ff 	lea    -0x890(%rbp),%rax
    e911:	48 89 85 68 ff ff ff 	mov    %rax,-0x98(%rbp)
    e918:	48 8d 85 70 f7 ff ff 	lea    -0x890(%rbp),%rax
    e91f:	48 89 85 70 ff ff ff 	mov    %rax,-0x90(%rbp)
    e926:	48 8d 05 8b b8 00 00 	lea    0xb88b(%rip),%rax        # 1a1b8 <g_533>
    e92d:	48 89 85 78 ff ff ff 	mov    %rax,-0x88(%rbp)
    e934:	48 c7 45 80 00 00 00 	movq   $0x0,-0x80(%rbp)
    e93b:	00 
    e93c:	48 8d 05 75 b8 00 00 	lea    0xb875(%rip),%rax        # 1a1b8 <g_533>
    e943:	48 89 45 88          	mov    %rax,-0x78(%rbp)
    e947:	48 8d 05 6a b8 00 00 	lea    0xb86a(%rip),%rax        # 1a1b8 <g_533>
    e94e:	48 89 45 90          	mov    %rax,-0x70(%rbp)
    e952:	48 c7 45 98 00 00 00 	movq   $0x0,-0x68(%rbp)
    e959:	00 
    e95a:	48 8d 05 57 b8 00 00 	lea    0xb857(%rip),%rax        # 1a1b8 <g_533>
    e961:	48 89 45 a0          	mov    %rax,-0x60(%rbp)
    e965:	48 8d 05 4c b8 00 00 	lea    0xb84c(%rip),%rax        # 1a1b8 <g_533>
    e96c:	48 89 45 a8          	mov    %rax,-0x58(%rbp)
    e970:	48 8d 05 41 b8 00 00 	lea    0xb841(%rip),%rax        # 1a1b8 <g_533>
    e977:	48 89 45 b0          	mov    %rax,-0x50(%rbp)
    e97b:	48 c7 45 b8 00 00 00 	movq   $0x0,-0x48(%rbp)
    e982:	00 
    e983:	48 8d 05 2e b8 00 00 	lea    0xb82e(%rip),%rax        # 1a1b8 <g_533>
    e98a:	48 89 45 c0          	mov    %rax,-0x40(%rbp)
    e98e:	48 8d 05 23 b8 00 00 	lea    0xb823(%rip),%rax        # 1a1b8 <g_533>
    e995:	48 89 45 c8          	mov    %rax,-0x38(%rbp)
    e999:	48 c7 45 d0 00 00 00 	movq   $0x0,-0x30(%rbp)
    e9a0:	00 
    e9a1:	48 8d 05 10 b8 00 00 	lea    0xb810(%rip),%rax        # 1a1b8 <g_533>
    e9a8:	48 89 45 d8          	mov    %rax,-0x28(%rbp)
    e9ac:	48 c7 85 88 f7 ff ff 	movq   $0x0,-0x878(%rbp)
    e9b3:	00 00 00 00 
    e9b7:	48 8d 85 88 f7 ff ff 	lea    -0x878(%rbp),%rax
    e9be:	48 89 85 90 f7 ff ff 	mov    %rax,-0x870(%rbp)
    e9c5:	48 8d 85 90 f7 ff ff 	lea    -0x870(%rbp),%rax
    e9cc:	48 89 85 e0 f7 ff ff 	mov    %rax,-0x820(%rbp)
    e9d3:	66 c7 85 36 f7 ff ff 	movw   $0xaebc,-0x8ca(%rbp)
    e9da:	bc ae 
    e9dc:	48 8d 05 45 e2 00 00 	lea    0xe245(%rip),%rax        # 1cc28 <g_1389>
    e9e3:	48 89 85 e8 f7 ff ff 	mov    %rax,-0x818(%rbp)
    e9ea:	c7 85 68 f7 ff ff ff 	movl   $0xffffffff,-0x898(%rbp)
    e9f1:	ff ff ff 
    e9f4:	66 c7 85 34 f7 ff ff 	movw   $0x7a74,-0x8cc(%rbp)
    e9fb:	74 7a 
    e9fd:	48 c7 85 f0 f7 ff ff 	movq   $0x1,-0x810(%rbp)
    ea04:	01 00 00 00 
    ea08:	66 c7 85 50 f8 ff ff 	movw   $0x6161,-0x7b0(%rbp)
    ea0f:	61 61 
    ea11:	66 c7 85 52 f8 ff ff 	movw   $0x6161,-0x7ae(%rbp)
    ea18:	61 61 
    ea1a:	66 c7 85 54 f8 ff ff 	movw   $0x6161,-0x7ac(%rbp)
    ea21:	61 61 
    ea23:	66 c7 85 56 f8 ff ff 	movw   $0x6161,-0x7aa(%rbp)
    ea2a:	61 61 
    ea2c:	66 c7 85 58 f8 ff ff 	movw   $0x6161,-0x7a8(%rbp)
    ea33:	61 61 
    ea35:	66 c7 85 5a f8 ff ff 	movw   $0x6161,-0x7a6(%rbp)
    ea3c:	61 61 
    ea3e:	66 c7 85 5c f8 ff ff 	movw   $0x6161,-0x7a4(%rbp)
    ea45:	61 61 
    ea47:	66 c7 85 5e f8 ff ff 	movw   $0x6161,-0x7a2(%rbp)
    ea4e:	61 61 
    ea50:	66 c7 85 60 f8 ff ff 	movw   $0x6161,-0x7a0(%rbp)
    ea57:	61 61 
    ea59:	66 c7 85 62 f8 ff ff 	movw   $0x6161,-0x79e(%rbp)
    ea60:	61 61 
    ea62:	48 8d 85 80 f7 ff ff 	lea    -0x880(%rbp),%rax
    ea69:	48 89 85 f8 f7 ff ff 	mov    %rax,-0x808(%rbp)
    ea70:	48 8d 05 d9 de 00 00 	lea    0xded9(%rip),%rax        # 1c950 <g_372>
    ea77:	48 89 85 98 f7 ff ff 	mov    %rax,-0x868(%rbp)
    ea7e:	66 c7 85 38 f7 ff ff 	movw   $0x65e9,-0x8c8(%rbp)
    ea85:	e9 65 
    ea87:	48 b8 72 42 e9 e1 3c 	movabs $0x3682a53ce1e94272,%rax
    ea8e:	a5 82 36 
    ea91:	48 89 85 00 f8 ff ff 	mov    %rax,-0x800(%rbp)
    ea98:	c7 85 3c f7 ff ff 00 	movl   $0x0,-0x8c4(%rbp)
    ea9f:	00 00 00 
    eaa2:	eb 19                	jmp    eabd <func_41+0x874>
    eaa4:	8b 85 3c f7 ff ff    	mov    -0x8c4(%rbp),%eax
    eaaa:	48 98                	cltq   
    eaac:	66 c7 84 45 46 f8 ff 	movw   $0x1,-0x7ba(%rbp,%rax,2)
    eab3:	ff 01 00 
    eab6:	83 85 3c f7 ff ff 01 	addl   $0x1,-0x8c4(%rbp)
    eabd:	83 bd 3c f7 ff ff 00 	cmpl   $0x0,-0x8c4(%rbp)
    eac4:	7e de                	jle    eaa4 <func_41+0x85b>
    eac6:	c7 85 3c f7 ff ff 00 	movl   $0x0,-0x8c4(%rbp)
    eacd:	00 00 00 
    ead0:	eb 1b                	jmp    eaed <func_41+0x8a4>
    ead2:	8b 85 3c f7 ff ff    	mov    -0x8c4(%rbp),%eax
    ead8:	48 98                	cltq   
    eada:	48 c7 84 c5 48 f8 ff 	movq   $0x0,-0x7b8(%rbp,%rax,8)
    eae1:	ff 00 00 00 00 
    eae6:	83 85 3c f7 ff ff 01 	addl   $0x1,-0x8c4(%rbp)
    eaed:	83 bd 3c f7 ff ff 00 	cmpl   $0x0,-0x8c4(%rbp)
    eaf4:	7e dc                	jle    ead2 <func_41+0x889>
    eaf6:	c7 85 3c f7 ff ff 00 	movl   $0x0,-0x8c4(%rbp)
    eafd:	00 00 00 
    eb00:	eb 1e                	jmp    eb20 <func_41+0x8d7>
    eb02:	8b 85 3c f7 ff ff    	mov    -0x8c4(%rbp),%eax
    eb08:	48 98                	cltq   
    eb0a:	48 8d 95 98 f7 ff ff 	lea    -0x868(%rbp),%rdx
    eb11:	48 89 94 c5 90 f8 ff 	mov    %rdx,-0x770(%rbp,%rax,8)
    eb18:	ff 
    eb19:	83 85 3c f7 ff ff 01 	addl   $0x1,-0x8c4(%rbp)
    eb20:	83 bd 3c f7 ff ff 02 	cmpl   $0x2,-0x8c4(%rbp)
    eb27:	7e d9                	jle    eb02 <func_41+0x8b9>
    eb29:	48 c7 85 28 f7 ff ff 	movq   $0xffffffffffffffe8,-0x8d8(%rbp)
    eb30:	e8 ff ff ff 
    eb34:	e9 49 01 00 00       	jmpq   ec82 <func_41+0xa39>
    eb39:	48 8d 05 e8 b4 00 00 	lea    0xb4e8(%rip),%rax        # 1a028 <g_3>
    eb40:	48 89 85 a0 f9 ff ff 	mov    %rax,-0x660(%rbp)
    eb47:	48 8d 05 e2 b4 00 00 	lea    0xb4e2(%rip),%rax        # 1a030 <g_6>
    eb4e:	48 89 85 a8 f9 ff ff 	mov    %rax,-0x658(%rbp)
    eb55:	48 8d 05 d4 b4 00 00 	lea    0xb4d4(%rip),%rax        # 1a030 <g_6>
    eb5c:	48 89 85 b0 f9 ff ff 	mov    %rax,-0x650(%rbp)
    eb63:	48 8d 05 be b4 00 00 	lea    0xb4be(%rip),%rax        # 1a028 <g_3>
    eb6a:	48 89 85 b8 f9 ff ff 	mov    %rax,-0x648(%rbp)
    eb71:	48 8d 05 b8 b4 00 00 	lea    0xb4b8(%rip),%rax        # 1a030 <g_6>
    eb78:	48 89 85 c0 f9 ff ff 	mov    %rax,-0x640(%rbp)
    eb7f:	48 8d 05 aa b4 00 00 	lea    0xb4aa(%rip),%rax        # 1a030 <g_6>
    eb86:	48 89 85 c8 f9 ff ff 	mov    %rax,-0x638(%rbp)
    eb8d:	48 8d 05 94 b4 00 00 	lea    0xb494(%rip),%rax        # 1a028 <g_3>
    eb94:	48 89 85 d0 f9 ff ff 	mov    %rax,-0x630(%rbp)
    eb9b:	48 8d 05 8e b4 00 00 	lea    0xb48e(%rip),%rax        # 1a030 <g_6>
    eba2:	48 89 85 d8 f9 ff ff 	mov    %rax,-0x628(%rbp)
    eba9:	48 8d 05 80 b4 00 00 	lea    0xb480(%rip),%rax        # 1a030 <g_6>
    ebb0:	48 89 85 e0 f9 ff ff 	mov    %rax,-0x620(%rbp)
    ebb7:	48 8d 05 6a b4 00 00 	lea    0xb46a(%rip),%rax        # 1a028 <g_3>
    ebbe:	48 89 85 e8 f9 ff ff 	mov    %rax,-0x618(%rbp)
    ebc5:	48 8d 05 64 b4 00 00 	lea    0xb464(%rip),%rax        # 1a030 <g_6>
    ebcc:	48 89 85 f0 f9 ff ff 	mov    %rax,-0x610(%rbp)
    ebd3:	48 8d 05 56 b4 00 00 	lea    0xb456(%rip),%rax        # 1a030 <g_6>
    ebda:	48 89 85 f8 f9 ff ff 	mov    %rax,-0x608(%rbp)
    ebe1:	48 8d 05 40 b4 00 00 	lea    0xb440(%rip),%rax        # 1a028 <g_3>
    ebe8:	48 89 85 00 fa ff ff 	mov    %rax,-0x600(%rbp)
    ebef:	48 8d 05 3a b4 00 00 	lea    0xb43a(%rip),%rax        # 1a030 <g_6>
    ebf6:	48 89 85 08 fa ff ff 	mov    %rax,-0x5f8(%rbp)
    ebfd:	48 8d 05 2c b4 00 00 	lea    0xb42c(%rip),%rax        # 1a030 <g_6>
    ec04:	48 89 85 10 fa ff ff 	mov    %rax,-0x5f0(%rbp)
    ec0b:	48 8d 05 16 b4 00 00 	lea    0xb416(%rip),%rax        # 1a028 <g_3>
    ec12:	48 89 85 18 fa ff ff 	mov    %rax,-0x5e8(%rbp)
    ec19:	48 8d 05 38 64 00 00 	lea    0x6438(%rip),%rax        # 15058 <g_792>
    ec20:	48 89 85 a0 f7 ff ff 	mov    %rax,-0x860(%rbp)
    ec27:	48 8d 85 a0 f7 ff ff 	lea    -0x860(%rbp),%rax
    ec2e:	48 89 85 28 f8 ff ff 	mov    %rax,-0x7d8(%rbp)
    ec35:	48 8d 05 a4 b5 00 00 	lea    0xb5a4(%rip),%rax        # 1a1e0 <g_794>
    ec3c:	48 89 85 30 f8 ff ff 	mov    %rax,-0x7d0(%rbp)
    ec43:	c6 85 31 f7 ff ff 01 	movb   $0x1,-0x8cf(%rbp)
    ec4a:	66 c7 85 3a f7 ff ff 	movw   $0xf4d1,-0x8c6(%rbp)
    ec51:	d1 f4 
    ec53:	c6 85 32 f7 ff ff f3 	movb   $0xf3,-0x8ce(%rbp)
    ec5a:	48 c7 85 a8 f7 ff ff 	movq   $0x0,-0x858(%rbp)
    ec61:	00 00 00 00 
    ec65:	48 8d 85 a8 f7 ff ff 	lea    -0x858(%rbp),%rax
    ec6c:	48 89 85 38 f8 ff ff 	mov    %rax,-0x7c8(%rbp)
    ec73:	c6 85 33 f7 ff ff 01 	movb   $0x1,-0x8cd(%rbp)
    ec7a:	48 83 85 28 f7 ff ff 	addq   $0x1,-0x8d8(%rbp)
    ec81:	01 
    ec82:	48 83 bd 28 f7 ff ff 	cmpq   $0xa,-0x8d8(%rbp)
    ec89:	0a 
    ec8a:	0f 8f a9 fe ff ff    	jg     eb39 <func_41+0x8f0>
    ec90:	48 8b 85 b0 f7 ff ff 	mov    -0x850(%rbp),%rax
    ec97:	8b 00                	mov    (%rax),%eax
    ec99:	85 c0                	test   %eax,%eax
    ec9b:	74 0e                	je     ecab <func_41+0xa62>
    ec9d:	48 83 bd 28 f7 ff ff 	cmpq   $0x0,-0x8d8(%rbp)
    eca4:	00 
    eca5:	0f 85 33 01 00 00    	jne    edde <func_41+0xb95>
    ecab:	48 83 bd 28 f7 ff ff 	cmpq   $0x0,-0x8d8(%rbp)
    ecb2:	00 
    ecb3:	0f 84 de 00 00 00    	je     ed97 <func_41+0xb4e>
    ecb9:	48 8b 85 b0 f7 ff ff 	mov    -0x850(%rbp),%rax
    ecc0:	8b 00                	mov    (%rax),%eax
    ecc2:	41 89 c4             	mov    %eax,%r12d
    ecc5:	48 8b 85 28 f7 ff ff 	mov    -0x8d8(%rbp),%rax
    eccc:	89 c3                	mov    %eax,%ebx
    ecce:	48 8b 85 28 f7 ff ff 	mov    -0x8d8(%rbp),%rax
    ecd5:	89 c1                	mov    %eax,%ecx
    ecd7:	48 8b 15 52 df 00 00 	mov    0xdf52(%rip),%rdx        # 1cc30 <g_1501>
    ecde:	48 8b 85 d0 f7 ff ff 	mov    -0x830(%rbp),%rax
    ece5:	48 89 10             	mov    %rdx,(%rax)
    ece8:	48 8b 95 48 f8 ff ff 	mov    -0x7b8(%rbp),%rdx
    ecef:	48 8b 85 d8 f7 ff ff 	mov    -0x828(%rbp),%rax
    ecf6:	48 89 10             	mov    %rdx,(%rax)
    ecf9:	b8 00 00 00 00       	mov    $0x0,%eax
    ecfe:	0f be c0             	movsbl %al,%eax
    ed01:	89 ce                	mov    %ecx,%esi
    ed03:	89 c7                	mov    %eax,%edi
    ed05:	e8 97 95 ff ff       	callq  82a1 <safe_lshift_func_int8_t_s_s>
    ed0a:	84 c0                	test   %al,%al
    ed0c:	75 0d                	jne    ed1b <func_41+0xad2>
    ed0e:	48 8b 85 b0 f7 ff ff 	mov    -0x850(%rbp),%rax
    ed15:	8b 00                	mov    (%rax),%eax
    ed17:	85 c0                	test   %eax,%eax
    ed19:	74 07                	je     ed22 <func_41+0xad9>
    ed1b:	b8 01 00 00 00       	mov    $0x1,%eax
    ed20:	eb 05                	jmp    ed27 <func_41+0xade>
    ed22:	b8 00 00 00 00       	mov    $0x0,%eax
    ed27:	0f b6 c0             	movzbl %al,%eax
    ed2a:	be 03 00 00 00       	mov    $0x3,%esi
    ed2f:	89 c7                	mov    %eax,%edi
    ed31:	e8 16 9f ff ff       	callq  8c4c <safe_lshift_func_uint8_t_u_u>
    ed36:	48 83 bd 28 f7 ff ff 	cmpq   $0x0,-0x8d8(%rbp)
    ed3d:	00 
    ed3e:	74 10                	je     ed50 <func_41+0xb07>
    ed40:	83 bd 64 f7 ff ff 00 	cmpl   $0x0,-0x89c(%rbp)
    ed47:	74 07                	je     ed50 <func_41+0xb07>
    ed49:	b8 01 00 00 00       	mov    $0x1,%eax
    ed4e:	eb 05                	jmp    ed55 <func_41+0xb0c>
    ed50:	b8 00 00 00 00       	mov    $0x0,%eax
    ed55:	0f be c0             	movsbl %al,%eax
    ed58:	be 30 00 00 00       	mov    $0x30,%esi
    ed5d:	89 c7                	mov    %eax,%edi
    ed5f:	e8 ae 94 ff ff       	callq  8212 <safe_mul_func_int8_t_s_s>
    ed64:	84 c0                	test   %al,%al
    ed66:	75 0b                	jne    ed73 <func_41+0xb2a>
    ed68:	48 8b 85 b0 f7 ff ff 	mov    -0x850(%rbp),%rax
    ed6f:	8b 00                	mov    (%rax),%eax
    ed71:	85 c0                	test   %eax,%eax
    ed73:	be ff ff ff ff       	mov    $0xffffffff,%esi
    ed78:	bf ff ff ff ff       	mov    $0xffffffff,%edi
    ed7d:	e8 36 a1 ff ff       	callq  8eb8 <safe_add_func_uint32_t_u_u>
    ed82:	89 de                	mov    %ebx,%esi
    ed84:	89 c7                	mov    %eax,%edi
    ed86:	e8 2d a1 ff ff       	callq  8eb8 <safe_add_func_uint32_t_u_u>
    ed8b:	41 39 c4             	cmp    %eax,%r12d
    ed8e:	77 07                	ja     ed97 <func_41+0xb4e>
    ed90:	b8 01 00 00 00       	mov    $0x1,%eax
    ed95:	eb 05                	jmp    ed9c <func_41+0xb53>
    ed97:	b8 00 00 00 00       	mov    $0x0,%eax
    ed9c:	0f b7 d0             	movzwl %ax,%edx
    ed9f:	48 8b 85 80 f7 ff ff 	mov    -0x880(%rbp),%rax
    eda6:	0f b7 08             	movzwl (%rax),%ecx
    eda9:	83 c1 01             	add    $0x1,%ecx
    edac:	66 89 08             	mov    %cx,(%rax)
    edaf:	0f b7 00             	movzwl (%rax),%eax
    edb2:	66 85 c0             	test   %ax,%ax
    edb5:	74 11                	je     edc8 <func_41+0xb7f>
    edb7:	48 83 bd 28 f7 ff ff 	cmpq   $0x0,-0x8d8(%rbp)
    edbe:	00 
    edbf:	74 07                	je     edc8 <func_41+0xb7f>
    edc1:	b8 01 00 00 00       	mov    $0x1,%eax
    edc6:	eb 05                	jmp    edcd <func_41+0xb84>
    edc8:	b8 00 00 00 00       	mov    $0x0,%eax
    edcd:	0f b7 c0             	movzwl %ax,%eax
    edd0:	89 d6                	mov    %edx,%esi
    edd2:	89 c7                	mov    %eax,%edi
    edd4:	e8 83 9f ff ff       	callq  8d5c <safe_mod_func_uint16_t_u_u>
    edd9:	66 85 c0             	test   %ax,%ax
    eddc:	74 07                	je     ede5 <func_41+0xb9c>
    edde:	b8 01 00 00 00       	mov    $0x1,%eax
    ede3:	eb 05                	jmp    edea <func_41+0xba1>
    ede5:	b8 00 00 00 00       	mov    $0x0,%eax
    edea:	3d ff 00 00 00       	cmp    $0xff,%eax
    edef:	0f 94 c0             	sete   %al
    edf2:	0f b6 c8             	movzbl %al,%ecx
    edf5:	48 8b 05 54 db 00 00 	mov    0xdb54(%rip),%rax        # 1c950 <g_372>
    edfc:	8b 10                	mov    (%rax),%edx
    edfe:	48 8b 05 4b db 00 00 	mov    0xdb4b(%rip),%rax        # 1c950 <g_372>
    ee05:	21 ca                	and    %ecx,%edx
    ee07:	89 10                	mov    %edx,(%rax)
    ee09:	48 8b 05 18 de 00 00 	mov    0xde18(%rip),%rax        # 1cc28 <g_1389>
    ee10:	66 c7 00 00 00       	movw   $0x0,(%rax)
    ee15:	be 00 00 00 00       	mov    $0x0,%esi
    ee1a:	bf f6 ff ff ff       	mov    $0xfffffff6,%edi
    ee1f:	e8 6e 96 ff ff       	callq  8492 <safe_lshift_func_int16_t_s_s>
    ee24:	48 8b 95 28 f7 ff ff 	mov    -0x8d8(%rbp),%rdx
    ee2b:	09 d0                	or     %edx,%eax
    ee2d:	0f bf d0             	movswl %ax,%edx
    ee30:	48 8b 85 28 f7 ff ff 	mov    -0x8d8(%rbp),%rax
    ee37:	98                   	cwtl   
    ee38:	89 d6                	mov    %edx,%esi
    ee3a:	89 c7                	mov    %eax,%edi
    ee3c:	e8 b4 95 ff ff       	callq  83f5 <safe_mul_func_int16_t_s_s>
    ee41:	48 8b 05 d0 dd 00 00 	mov    0xddd0(%rip),%rax        # 1cc18 <g_1337>
    ee48:	48 8b 00             	mov    (%rax),%rax
    ee4b:	0f b6 00             	movzbl (%rax),%eax
    ee4e:	89 c2                	mov    %eax,%edx
    ee50:	48 8b 85 b0 f7 ff ff 	mov    -0x850(%rbp),%rax
    ee57:	8b 00                	mov    (%rax),%eax
    ee59:	83 f8 fb             	cmp    $0xfffffffb,%eax
    ee5c:	0f 97 c0             	seta   %al
    ee5f:	09 c2                	or     %eax,%edx
    ee61:	48 8b 05 b0 dd 00 00 	mov    0xddb0(%rip),%rax        # 1cc18 <g_1337>
    ee68:	48 8b 00             	mov    (%rax),%rax
    ee6b:	88 10                	mov    %dl,(%rax)
    ee6d:	0f b6 00             	movzbl (%rax),%eax
    ee70:	0f b6 c0             	movzbl %al,%eax
    ee73:	48 39 85 28 f7 ff ff 	cmp    %rax,-0x8d8(%rbp)
    ee7a:	0f 9f c0             	setg   %al
    ee7d:	0f b6 c0             	movzbl %al,%eax
    ee80:	48 89 05 09 b2 00 00 	mov    %rax,0xb209(%rip)        # 1a090 <g_139>
    ee87:	48 8b 05 02 b2 00 00 	mov    0xb202(%rip),%rax        # 1a090 <g_139>
    ee8e:	48 85 c0             	test   %rax,%rax
    ee91:	74 16                	je     eea9 <func_41+0xc60>
    ee93:	8b 05 8b b3 00 00    	mov    0xb38b(%rip),%eax        # 1a224 <g_1102+0x4>
    ee99:	25 ff ff ff 7f       	and    $0x7fffffff,%eax
    ee9e:	85 c0                	test   %eax,%eax
    eea0:	74 07                	je     eea9 <func_41+0xc60>
    eea2:	ba 01 00 00 00       	mov    $0x1,%edx
    eea7:	eb 05                	jmp    eeae <func_41+0xc65>
    eea9:	ba 00 00 00 00       	mov    $0x0,%edx
    eeae:	48 8b 05 8b da 00 00 	mov    0xda8b(%rip),%rax        # 1c940 <g_284>
    eeb5:	48 63 d2             	movslq %edx,%rdx
    eeb8:	48 89 10             	mov    %rdx,(%rax)
    eebb:	48 8b 00             	mov    (%rax),%rax
    eebe:	48 8b 95 28 f7 ff ff 	mov    -0x8d8(%rbp),%rdx
    eec5:	48 89 d6             	mov    %rdx,%rsi
    eec8:	48 89 c7             	mov    %rax,%rdi
    eecb:	e8 71 99 ff ff       	callq  8841 <safe_add_func_int64_t_s_s>
    eed0:	48 3d db 80 00 00    	cmp    $0x80db,%rax
    eed6:	0f 94 c0             	sete   %al
    eed9:	0f b6 d0             	movzbl %al,%edx
    eedc:	48 8b 85 b0 f7 ff ff 	mov    -0x850(%rbp),%rax
    eee3:	8b 00                	mov    (%rax),%eax
    eee5:	31 d0                	xor    %edx,%eax
    eee7:	0f b7 d0             	movzwl %ax,%edx
    eeea:	48 b8 5b b1 29 49 bd 	movabs $0x41fa85bd4929b15b,%rax
    eef1:	85 fa 41 
    eef4:	48 39 85 28 f7 ff ff 	cmp    %rax,-0x8d8(%rbp)
    eefb:	0f 9f c0             	setg   %al
    eefe:	0f b6 c0             	movzbl %al,%eax
    ef01:	89 d6                	mov    %edx,%esi
    ef03:	89 c7                	mov    %eax,%edi
    ef05:	e8 84 9e ff ff       	callq  8d8e <safe_div_func_uint16_t_u_u>
    ef0a:	66 85 c0             	test   %ax,%ax
    ef0d:	0f 85 bb 01 00 00    	jne    f0ce <func_41+0xe85>
    ef13:	48 8d 05 7e fb 00 00 	lea    0xfb7e(%rip),%rax        # 1ea98 <g_1526>
    ef1a:	48 89 85 10 f8 ff ff 	mov    %rax,-0x7f0(%rbp)
    ef21:	48 c7 85 60 f9 ff ff 	movq   $0x0,-0x6a0(%rbp)
    ef28:	00 00 00 00 
    ef2c:	48 c7 85 68 f9 ff ff 	movq   $0x0,-0x698(%rbp)
    ef33:	00 00 00 00 
    ef37:	48 c7 85 70 f9 ff ff 	movq   $0x0,-0x690(%rbp)
    ef3e:	00 00 00 00 
    ef42:	48 c7 85 78 f9 ff ff 	movq   $0x0,-0x688(%rbp)
    ef49:	00 00 00 00 
    ef4d:	48 c7 85 80 f9 ff ff 	movq   $0x0,-0x680(%rbp)
    ef54:	00 00 00 00 
    ef58:	48 c7 85 88 f9 ff ff 	movq   $0x0,-0x678(%rbp)
    ef5f:	00 00 00 00 
    ef63:	48 c7 85 90 f9 ff ff 	movq   $0x0,-0x670(%rbp)
    ef6a:	00 00 00 00 
    ef6e:	48 c7 85 98 f9 ff ff 	movq   $0x0,-0x668(%rbp)
    ef75:	00 00 00 00 
    ef79:	48 8d 85 60 f9 ff ff 	lea    -0x6a0(%rbp),%rax
    ef80:	48 83 c0 20          	add    $0x20,%rax
    ef84:	48 89 85 d0 f8 ff ff 	mov    %rax,-0x730(%rbp)
    ef8b:	48 8d 85 60 f9 ff ff 	lea    -0x6a0(%rbp),%rax
    ef92:	48 83 c0 20          	add    $0x20,%rax
    ef96:	48 89 85 d8 f8 ff ff 	mov    %rax,-0x728(%rbp)
    ef9d:	48 8d 85 60 f9 ff ff 	lea    -0x6a0(%rbp),%rax
    efa4:	48 83 c0 20          	add    $0x20,%rax
    efa8:	48 89 85 e0 f8 ff ff 	mov    %rax,-0x720(%rbp)
    efaf:	48 8d 85 60 f9 ff ff 	lea    -0x6a0(%rbp),%rax
    efb6:	48 83 c0 20          	add    $0x20,%rax
    efba:	48 89 85 e8 f8 ff ff 	mov    %rax,-0x718(%rbp)
    efc1:	48 8d 85 60 f9 ff ff 	lea    -0x6a0(%rbp),%rax
    efc8:	48 83 c0 20          	add    $0x20,%rax
    efcc:	48 89 85 f0 f8 ff ff 	mov    %rax,-0x710(%rbp)
    efd3:	48 8d 85 a0 f9 ff ff 	lea    -0x660(%rbp),%rax
    efda:	48 8d 15 df d0 00 00 	lea    0xd0df(%rip),%rdx        # 1c0c0 <g_2887+0x780>
    efe1:	b9 50 00 00 00       	mov    $0x50,%ecx
    efe6:	48 89 c7             	mov    %rax,%rdi
    efe9:	48 89 d6             	mov    %rdx,%rsi
    efec:	f3 48 a5             	rep movsq %ds:(%rsi),%es:(%rdi)
    efef:	48 8d 85 80 f7 ff ff 	lea    -0x880(%rbp),%rax
    eff6:	48 89 85 18 f8 ff ff 	mov    %rax,-0x7e8(%rbp)
    effd:	c7 85 6c f7 ff ff 02 	movl   $0x2,-0x894(%rbp)
    f004:	00 00 00 
    f007:	48 c7 85 20 f8 ff ff 	movq   $0xffffffffffffffff,-0x7e0(%rbp)
    f00e:	ff ff ff ff 
    f012:	48 8d 05 57 b0 00 00 	lea    0xb057(%rip),%rax        # 1a070 <g_111>
    f019:	48 89 85 30 f9 ff ff 	mov    %rax,-0x6d0(%rbp)
    f020:	48 8d 05 f9 b1 00 00 	lea    0xb1f9(%rip),%rax        # 1a220 <g_1102>
    f027:	48 89 85 38 f9 ff ff 	mov    %rax,-0x6c8(%rbp)
    f02e:	48 8d 05 eb b1 00 00 	lea    0xb1eb(%rip),%rax        # 1a220 <g_1102>
    f035:	48 89 85 40 f9 ff ff 	mov    %rax,-0x6c0(%rbp)
    f03c:	48 8d 05 2d b0 00 00 	lea    0xb02d(%rip),%rax        # 1a070 <g_111>
    f043:	48 89 85 48 f9 ff ff 	mov    %rax,-0x6b8(%rbp)
    f04a:	48 8d 05 cf b1 00 00 	lea    0xb1cf(%rip),%rax        # 1a220 <g_1102>
    f051:	48 89 85 50 f9 ff ff 	mov    %rax,-0x6b0(%rbp)
    f058:	48 8d 05 c1 b1 00 00 	lea    0xb1c1(%rip),%rax        # 1a220 <g_1102>
    f05f:	48 89 85 58 f9 ff ff 	mov    %rax,-0x6a8(%rbp)
    f066:	c7 85 40 f7 ff ff 00 	movl   $0x0,-0x8c0(%rbp)
    f06d:	00 00 00 
    f070:	eb 1e                	jmp    f090 <func_41+0xe47>
    f072:	8b 85 40 f7 ff ff    	mov    -0x8c0(%rbp),%eax
    f078:	48 98                	cltq   
    f07a:	48 8d 95 34 f7 ff ff 	lea    -0x8cc(%rbp),%rdx
    f081:	48 89 94 c5 b0 f8 ff 	mov    %rdx,-0x750(%rbp,%rax,8)
    f088:	ff 
    f089:	83 85 40 f7 ff ff 01 	addl   $0x1,-0x8c0(%rbp)
    f090:	83 bd 40 f7 ff ff 02 	cmpl   $0x2,-0x8c0(%rbp)
    f097:	7e d9                	jle    f072 <func_41+0xe29>
    f099:	c7 85 40 f7 ff ff 00 	movl   $0x0,-0x8c0(%rbp)
    f0a0:	00 00 00 
    f0a3:	eb 1e                	jmp    f0c3 <func_41+0xe7a>
    f0a5:	8b 85 40 f7 ff ff    	mov    -0x8c0(%rbp),%eax
    f0ab:	48 98                	cltq   
    f0ad:	48 8d 15 88 af 00 00 	lea    0xaf88(%rip),%rdx        # 1a03c <g_56>
    f0b4:	48 89 94 c5 00 f9 ff 	mov    %rdx,-0x700(%rbp,%rax,8)
    f0bb:	ff 
    f0bc:	83 85 40 f7 ff ff 01 	addl   $0x1,-0x8c0(%rbp)
    f0c3:	83 bd 40 f7 ff ff 05 	cmpl   $0x5,-0x8c0(%rbp)
    f0ca:	7e d9                	jle    f0a5 <func_41+0xe5c>
    f0cc:	eb 17                	jmp    f0e5 <func_41+0xe9c>
    f0ce:	48 8d 05 67 af 00 00 	lea    0xaf67(%rip),%rax        # 1a03c <g_56>
    f0d5:	48 89 85 08 f8 ff ff 	mov    %rax,-0x7f8(%rbp)
    f0dc:	48 8b 85 08 f8 ff ff 	mov    -0x7f8(%rbp),%rax
    f0e3:	eb 0a                	jmp    f0ef <func_41+0xea6>
    f0e5:	48 8b 85 98 f7 ff ff 	mov    -0x868(%rbp),%rax
    f0ec:	48 8b 00             	mov    (%rax),%rax
    f0ef:	48 8b 5d e8          	mov    -0x18(%rbp),%rbx
    f0f3:	64 48 33 1c 25 28 00 	xor    %fs:0x28,%rbx
    f0fa:	00 00 
    f0fc:	74 05                	je     f103 <func_41+0xeba>
    f0fe:	e8 6d 8f ff ff       	callq  8070 <__stack_chk_fail@plt>
    f103:	48 81 c4 d0 08 00 00 	add    $0x8d0,%rsp
    f10a:	5b                   	pop    %rbx
    f10b:	41 5c                	pop    %r12
    f10d:	5d                   	pop    %rbp
    f10e:	c3                   	retq   

000000000000f10f <func_45>:
    f10f:	f3 0f 1e fa          	endbr64 
    f113:	55                   	push   %rbp
    f114:	48 89 e5             	mov    %rsp,%rbp
    f117:	41 56                	push   %r14
    f119:	41 55                	push   %r13
    f11b:	41 54                	push   %r12
    f11d:	53                   	push   %rbx
    f11e:	48 81 ec 00 10 00 00 	sub    $0x1000,%rsp
    f125:	48 83 0c 24 00       	orq    $0x0,(%rsp)
    f12a:	48 81 ec 50 04 00 00 	sub    $0x450,%rsp
    f131:	48 89 bd a8 eb ff ff 	mov    %rdi,-0x1458(%rbp)
    f138:	48 89 b5 a0 eb ff ff 	mov    %rsi,-0x1460(%rbp)
    f13f:	48 89 95 98 eb ff ff 	mov    %rdx,-0x1468(%rbp)
    f146:	48 89 8d 90 eb ff ff 	mov    %rcx,-0x1470(%rbp)
    f14d:	64 48 8b 04 25 28 00 	mov    %fs:0x28,%rax
    f154:	00 00 
    f156:	48 89 45 d8          	mov    %rax,-0x28(%rbp)
    f15a:	31 c0                	xor    %eax,%eax
    f15c:	48 b8 db 6c ad a8 7d 	movabs $0xa744c7da8ad6cdb,%rax
    f163:	4c 74 0a 
    f166:	48 89 85 30 ec ff ff 	mov    %rax,-0x13d0(%rbp)
    f16d:	c7 85 c8 eb ff ff da 	movl   $0x69300eda,-0x1438(%rbp)
    f174:	0e 30 69 
    f177:	66 c7 85 bc eb ff ff 	movw   $0xfffc,-0x1444(%rbp)
    f17e:	fc ff 
    f180:	c6 85 b7 eb ff ff cc 	movb   $0xcc,-0x1449(%rbp)
    f187:	48 8d 05 0e af 00 00 	lea    0xaf0e(%rip),%rax        # 1a09c <g_162>
    f18e:	48 89 85 00 f8 ff ff 	mov    %rax,-0x800(%rbp)
    f195:	48 8d 85 98 ed ff ff 	lea    -0x1268(%rbp),%rax
    f19c:	48 89 85 08 f8 ff ff 	mov    %rax,-0x7f8(%rbp)
    f1a3:	48 8d 05 f2 ae 00 00 	lea    0xaef2(%rip),%rax        # 1a09c <g_162>
    f1aa:	48 89 85 10 f8 ff ff 	mov    %rax,-0x7f0(%rbp)
    f1b1:	48 8d 85 98 ed ff ff 	lea    -0x1268(%rbp),%rax
    f1b8:	48 89 85 18 f8 ff ff 	mov    %rax,-0x7e8(%rbp)
    f1bf:	48 8d 05 d6 ae 00 00 	lea    0xaed6(%rip),%rax        # 1a09c <g_162>
    f1c6:	48 89 85 20 f8 ff ff 	mov    %rax,-0x7e0(%rbp)
    f1cd:	48 8d 85 98 ed ff ff 	lea    -0x1268(%rbp),%rax
    f1d4:	48 89 85 28 f8 ff ff 	mov    %rax,-0x7d8(%rbp)
    f1db:	48 8d 05 ba ae 00 00 	lea    0xaeba(%rip),%rax        # 1a09c <g_162>
    f1e2:	48 89 85 30 f8 ff ff 	mov    %rax,-0x7d0(%rbp)
    f1e9:	48 8d 85 98 ed ff ff 	lea    -0x1268(%rbp),%rax
    f1f0:	48 89 85 38 f8 ff ff 	mov    %rax,-0x7c8(%rbp)
    f1f7:	48 8d 05 9e ae 00 00 	lea    0xae9e(%rip),%rax        # 1a09c <g_162>
    f1fe:	48 89 85 40 f8 ff ff 	mov    %rax,-0x7c0(%rbp)
    f205:	48 8d 85 98 ed ff ff 	lea    -0x1268(%rbp),%rax
    f20c:	48 89 85 48 f8 ff ff 	mov    %rax,-0x7b8(%rbp)
    f213:	48 8d 05 82 ae 00 00 	lea    0xae82(%rip),%rax        # 1a09c <g_162>
    f21a:	48 89 85 50 f8 ff ff 	mov    %rax,-0x7b0(%rbp)
    f221:	48 8d 85 98 ed ff ff 	lea    -0x1268(%rbp),%rax
    f228:	48 89 85 58 f8 ff ff 	mov    %rax,-0x7a8(%rbp)
    f22f:	48 8d 05 66 ae 00 00 	lea    0xae66(%rip),%rax        # 1a09c <g_162>
    f236:	48 89 85 60 f8 ff ff 	mov    %rax,-0x7a0(%rbp)
    f23d:	48 8d 85 98 ed ff ff 	lea    -0x1268(%rbp),%rax
    f244:	48 89 85 68 f8 ff ff 	mov    %rax,-0x798(%rbp)
    f24b:	48 8d 05 4a ae 00 00 	lea    0xae4a(%rip),%rax        # 1a09c <g_162>
    f252:	48 89 85 70 f8 ff ff 	mov    %rax,-0x790(%rbp)
    f259:	48 8d 85 98 ed ff ff 	lea    -0x1268(%rbp),%rax
    f260:	48 89 85 78 f8 ff ff 	mov    %rax,-0x788(%rbp)
    f267:	48 8d 05 2e ae 00 00 	lea    0xae2e(%rip),%rax        # 1a09c <g_162>
    f26e:	48 89 85 80 f8 ff ff 	mov    %rax,-0x780(%rbp)
    f275:	48 8d 85 98 ed ff ff 	lea    -0x1268(%rbp),%rax
    f27c:	48 89 85 88 f8 ff ff 	mov    %rax,-0x778(%rbp)
    f283:	48 8d 05 12 ae 00 00 	lea    0xae12(%rip),%rax        # 1a09c <g_162>
    f28a:	48 89 85 90 f8 ff ff 	mov    %rax,-0x770(%rbp)
    f291:	48 8d 85 98 ed ff ff 	lea    -0x1268(%rbp),%rax
    f298:	48 89 85 98 f8 ff ff 	mov    %rax,-0x768(%rbp)
    f29f:	48 8d 05 f6 ad 00 00 	lea    0xadf6(%rip),%rax        # 1a09c <g_162>
    f2a6:	48 89 85 a0 f8 ff ff 	mov    %rax,-0x760(%rbp)
    f2ad:	48 8d 85 98 ed ff ff 	lea    -0x1268(%rbp),%rax
    f2b4:	48 89 85 a8 f8 ff ff 	mov    %rax,-0x758(%rbp)
    f2bb:	48 8d 05 da ad 00 00 	lea    0xadda(%rip),%rax        # 1a09c <g_162>
    f2c2:	48 89 85 b0 f8 ff ff 	mov    %rax,-0x750(%rbp)
    f2c9:	48 8d 85 98 ed ff ff 	lea    -0x1268(%rbp),%rax
    f2d0:	48 89 85 b8 f8 ff ff 	mov    %rax,-0x748(%rbp)
    f2d7:	48 8d 05 be ad 00 00 	lea    0xadbe(%rip),%rax        # 1a09c <g_162>
    f2de:	48 89 85 c0 f8 ff ff 	mov    %rax,-0x740(%rbp)
    f2e5:	48 8d 85 98 ed ff ff 	lea    -0x1268(%rbp),%rax
    f2ec:	48 89 85 c8 f8 ff ff 	mov    %rax,-0x738(%rbp)
    f2f3:	48 8d 05 a2 ad 00 00 	lea    0xada2(%rip),%rax        # 1a09c <g_162>
    f2fa:	48 89 85 d0 f8 ff ff 	mov    %rax,-0x730(%rbp)
    f301:	48 8d 85 98 ed ff ff 	lea    -0x1268(%rbp),%rax
    f308:	48 89 85 d8 f8 ff ff 	mov    %rax,-0x728(%rbp)
    f30f:	48 8d 05 86 ad 00 00 	lea    0xad86(%rip),%rax        # 1a09c <g_162>
    f316:	48 89 85 e0 f8 ff ff 	mov    %rax,-0x720(%rbp)
    f31d:	48 8d 85 98 ed ff ff 	lea    -0x1268(%rbp),%rax
    f324:	48 89 85 e8 f8 ff ff 	mov    %rax,-0x718(%rbp)
    f32b:	48 8d 05 6a ad 00 00 	lea    0xad6a(%rip),%rax        # 1a09c <g_162>
    f332:	48 89 85 f0 f8 ff ff 	mov    %rax,-0x710(%rbp)
    f339:	48 8d 85 98 ed ff ff 	lea    -0x1268(%rbp),%rax
    f340:	48 89 85 f8 f8 ff ff 	mov    %rax,-0x708(%rbp)
    f347:	48 8d 05 4e ad 00 00 	lea    0xad4e(%rip),%rax        # 1a09c <g_162>
    f34e:	48 89 85 00 f9 ff ff 	mov    %rax,-0x700(%rbp)
    f355:	48 8d 85 98 ed ff ff 	lea    -0x1268(%rbp),%rax
    f35c:	48 89 85 08 f9 ff ff 	mov    %rax,-0x6f8(%rbp)
    f363:	48 8d 05 32 ad 00 00 	lea    0xad32(%rip),%rax        # 1a09c <g_162>
    f36a:	48 89 85 10 f9 ff ff 	mov    %rax,-0x6f0(%rbp)
    f371:	48 8d 85 98 ed ff ff 	lea    -0x1268(%rbp),%rax
    f378:	48 89 85 18 f9 ff ff 	mov    %rax,-0x6e8(%rbp)
    f37f:	48 8d 05 16 ad 00 00 	lea    0xad16(%rip),%rax        # 1a09c <g_162>
    f386:	48 89 85 20 f9 ff ff 	mov    %rax,-0x6e0(%rbp)
    f38d:	48 8d 85 98 ed ff ff 	lea    -0x1268(%rbp),%rax
    f394:	48 89 85 28 f9 ff ff 	mov    %rax,-0x6d8(%rbp)
    f39b:	48 8d 05 fa ac 00 00 	lea    0xacfa(%rip),%rax        # 1a09c <g_162>
    f3a2:	48 89 85 30 f9 ff ff 	mov    %rax,-0x6d0(%rbp)
    f3a9:	48 8d 85 98 ed ff ff 	lea    -0x1268(%rbp),%rax
    f3b0:	48 89 85 38 f9 ff ff 	mov    %rax,-0x6c8(%rbp)
    f3b7:	48 8d 05 de ac 00 00 	lea    0xacde(%rip),%rax        # 1a09c <g_162>
    f3be:	48 89 85 40 f9 ff ff 	mov    %rax,-0x6c0(%rbp)
    f3c5:	48 8d 85 98 ed ff ff 	lea    -0x1268(%rbp),%rax
    f3cc:	48 89 85 48 f9 ff ff 	mov    %rax,-0x6b8(%rbp)
    f3d3:	48 8d 05 c2 ac 00 00 	lea    0xacc2(%rip),%rax        # 1a09c <g_162>
    f3da:	48 89 85 50 f9 ff ff 	mov    %rax,-0x6b0(%rbp)
    f3e1:	48 8d 85 98 ed ff ff 	lea    -0x1268(%rbp),%rax
    f3e8:	48 89 85 58 f9 ff ff 	mov    %rax,-0x6a8(%rbp)
    f3ef:	48 8d 05 a6 ac 00 00 	lea    0xaca6(%rip),%rax        # 1a09c <g_162>
    f3f6:	48 89 85 60 f9 ff ff 	mov    %rax,-0x6a0(%rbp)
    f3fd:	48 8d 85 98 ed ff ff 	lea    -0x1268(%rbp),%rax
    f404:	48 89 85 68 f9 ff ff 	mov    %rax,-0x698(%rbp)
    f40b:	48 8d 05 8a ac 00 00 	lea    0xac8a(%rip),%rax        # 1a09c <g_162>
    f412:	48 89 85 70 f9 ff ff 	mov    %rax,-0x690(%rbp)
    f419:	48 8d 85 98 ed ff ff 	lea    -0x1268(%rbp),%rax
    f420:	48 89 85 78 f9 ff ff 	mov    %rax,-0x688(%rbp)
    f427:	48 8d 05 6e ac 00 00 	lea    0xac6e(%rip),%rax        # 1a09c <g_162>
    f42e:	48 89 85 80 f9 ff ff 	mov    %rax,-0x680(%rbp)
    f435:	48 8d 85 98 ed ff ff 	lea    -0x1268(%rbp),%rax
    f43c:	48 89 85 88 f9 ff ff 	mov    %rax,-0x678(%rbp)
    f443:	48 8d 05 52 ac 00 00 	lea    0xac52(%rip),%rax        # 1a09c <g_162>
    f44a:	48 89 85 90 f9 ff ff 	mov    %rax,-0x670(%rbp)
    f451:	48 8d 85 98 ed ff ff 	lea    -0x1268(%rbp),%rax
    f458:	48 89 85 98 f9 ff ff 	mov    %rax,-0x668(%rbp)
    f45f:	48 8d 05 36 ac 00 00 	lea    0xac36(%rip),%rax        # 1a09c <g_162>
    f466:	48 89 85 a0 f9 ff ff 	mov    %rax,-0x660(%rbp)
    f46d:	48 8d 85 98 ed ff ff 	lea    -0x1268(%rbp),%rax
    f474:	48 89 85 a8 f9 ff ff 	mov    %rax,-0x658(%rbp)
    f47b:	48 8d 05 1a ac 00 00 	lea    0xac1a(%rip),%rax        # 1a09c <g_162>
    f482:	48 89 85 b0 f9 ff ff 	mov    %rax,-0x650(%rbp)
    f489:	48 8d 85 98 ed ff ff 	lea    -0x1268(%rbp),%rax
    f490:	48 89 85 b8 f9 ff ff 	mov    %rax,-0x648(%rbp)
    f497:	48 8d 05 fe ab 00 00 	lea    0xabfe(%rip),%rax        # 1a09c <g_162>
    f49e:	48 89 85 c0 f9 ff ff 	mov    %rax,-0x640(%rbp)
    f4a5:	48 8d 85 98 ed ff ff 	lea    -0x1268(%rbp),%rax
    f4ac:	48 89 85 c8 f9 ff ff 	mov    %rax,-0x638(%rbp)
    f4b3:	48 8d 05 e2 ab 00 00 	lea    0xabe2(%rip),%rax        # 1a09c <g_162>
    f4ba:	48 89 85 d0 f9 ff ff 	mov    %rax,-0x630(%rbp)
    f4c1:	48 8d 85 98 ed ff ff 	lea    -0x1268(%rbp),%rax
    f4c8:	48 89 85 d8 f9 ff ff 	mov    %rax,-0x628(%rbp)
    f4cf:	48 8d 05 c6 ab 00 00 	lea    0xabc6(%rip),%rax        # 1a09c <g_162>
    f4d6:	48 89 85 e0 f9 ff ff 	mov    %rax,-0x620(%rbp)
    f4dd:	48 8d 85 98 ed ff ff 	lea    -0x1268(%rbp),%rax
    f4e4:	48 89 85 e8 f9 ff ff 	mov    %rax,-0x618(%rbp)
    f4eb:	48 8d 05 aa ab 00 00 	lea    0xabaa(%rip),%rax        # 1a09c <g_162>
    f4f2:	48 89 85 f0 f9 ff ff 	mov    %rax,-0x610(%rbp)
    f4f9:	48 8d 85 98 ed ff ff 	lea    -0x1268(%rbp),%rax
    f500:	48 89 85 f8 f9 ff ff 	mov    %rax,-0x608(%rbp)
    f507:	48 8d 05 8e ab 00 00 	lea    0xab8e(%rip),%rax        # 1a09c <g_162>
    f50e:	48 89 85 00 fa ff ff 	mov    %rax,-0x600(%rbp)
    f515:	48 8d 85 98 ed ff ff 	lea    -0x1268(%rbp),%rax
    f51c:	48 89 85 08 fa ff ff 	mov    %rax,-0x5f8(%rbp)
    f523:	48 8d 05 72 ab 00 00 	lea    0xab72(%rip),%rax        # 1a09c <g_162>
    f52a:	48 89 85 10 fa ff ff 	mov    %rax,-0x5f0(%rbp)
    f531:	48 8d 85 98 ed ff ff 	lea    -0x1268(%rbp),%rax
    f538:	48 89 85 18 fa ff ff 	mov    %rax,-0x5e8(%rbp)
    f53f:	48 8d 05 56 ab 00 00 	lea    0xab56(%rip),%rax        # 1a09c <g_162>
    f546:	48 89 85 20 fa ff ff 	mov    %rax,-0x5e0(%rbp)
    f54d:	48 8d 85 98 ed ff ff 	lea    -0x1268(%rbp),%rax
    f554:	48 89 85 28 fa ff ff 	mov    %rax,-0x5d8(%rbp)
    f55b:	48 8d 05 3a ab 00 00 	lea    0xab3a(%rip),%rax        # 1a09c <g_162>
    f562:	48 89 85 30 fa ff ff 	mov    %rax,-0x5d0(%rbp)
    f569:	48 8d 85 98 ed ff ff 	lea    -0x1268(%rbp),%rax
    f570:	48 89 85 38 fa ff ff 	mov    %rax,-0x5c8(%rbp)
    f577:	48 8d 05 1e ab 00 00 	lea    0xab1e(%rip),%rax        # 1a09c <g_162>
    f57e:	48 89 85 40 fa ff ff 	mov    %rax,-0x5c0(%rbp)
    f585:	48 8d 85 98 ed ff ff 	lea    -0x1268(%rbp),%rax
    f58c:	48 89 85 48 fa ff ff 	mov    %rax,-0x5b8(%rbp)
    f593:	48 8d 05 02 ab 00 00 	lea    0xab02(%rip),%rax        # 1a09c <g_162>
    f59a:	48 89 85 50 fa ff ff 	mov    %rax,-0x5b0(%rbp)
    f5a1:	48 8d 85 98 ed ff ff 	lea    -0x1268(%rbp),%rax
    f5a8:	48 89 85 58 fa ff ff 	mov    %rax,-0x5a8(%rbp)
    f5af:	48 8d 05 e6 aa 00 00 	lea    0xaae6(%rip),%rax        # 1a09c <g_162>
    f5b6:	48 89 85 60 fa ff ff 	mov    %rax,-0x5a0(%rbp)
    f5bd:	48 8d 85 98 ed ff ff 	lea    -0x1268(%rbp),%rax
    f5c4:	48 89 85 68 fa ff ff 	mov    %rax,-0x598(%rbp)
    f5cb:	48 8d 05 ca aa 00 00 	lea    0xaaca(%rip),%rax        # 1a09c <g_162>
    f5d2:	48 89 85 70 fa ff ff 	mov    %rax,-0x590(%rbp)
    f5d9:	48 8d 85 98 ed ff ff 	lea    -0x1268(%rbp),%rax
    f5e0:	48 89 85 78 fa ff ff 	mov    %rax,-0x588(%rbp)
    f5e7:	48 8d 05 ae aa 00 00 	lea    0xaaae(%rip),%rax        # 1a09c <g_162>
    f5ee:	48 89 85 80 fa ff ff 	mov    %rax,-0x580(%rbp)
    f5f5:	48 8d 85 98 ed ff ff 	lea    -0x1268(%rbp),%rax
    f5fc:	48 89 85 88 fa ff ff 	mov    %rax,-0x578(%rbp)
    f603:	48 8d 05 92 aa 00 00 	lea    0xaa92(%rip),%rax        # 1a09c <g_162>
    f60a:	48 89 85 90 fa ff ff 	mov    %rax,-0x570(%rbp)
    f611:	48 8d 85 98 ed ff ff 	lea    -0x1268(%rbp),%rax
    f618:	48 89 85 98 fa ff ff 	mov    %rax,-0x568(%rbp)
    f61f:	48 8d 05 76 aa 00 00 	lea    0xaa76(%rip),%rax        # 1a09c <g_162>
    f626:	48 89 85 a0 fa ff ff 	mov    %rax,-0x560(%rbp)
    f62d:	48 8d 85 98 ed ff ff 	lea    -0x1268(%rbp),%rax
    f634:	48 89 85 a8 fa ff ff 	mov    %rax,-0x558(%rbp)
    f63b:	48 8d 05 5a aa 00 00 	lea    0xaa5a(%rip),%rax        # 1a09c <g_162>
    f642:	48 89 85 b0 fa ff ff 	mov    %rax,-0x550(%rbp)
    f649:	48 8d 85 98 ed ff ff 	lea    -0x1268(%rbp),%rax
    f650:	48 89 85 b8 fa ff ff 	mov    %rax,-0x548(%rbp)
    f657:	48 8d 05 3e aa 00 00 	lea    0xaa3e(%rip),%rax        # 1a09c <g_162>
    f65e:	48 89 85 c0 fa ff ff 	mov    %rax,-0x540(%rbp)
    f665:	48 8d 85 98 ed ff ff 	lea    -0x1268(%rbp),%rax
    f66c:	48 89 85 c8 fa ff ff 	mov    %rax,-0x538(%rbp)
    f673:	48 8d 05 22 aa 00 00 	lea    0xaa22(%rip),%rax        # 1a09c <g_162>
    f67a:	48 89 85 d0 fa ff ff 	mov    %rax,-0x530(%rbp)
    f681:	48 8d 85 98 ed ff ff 	lea    -0x1268(%rbp),%rax
    f688:	48 89 85 d8 fa ff ff 	mov    %rax,-0x528(%rbp)
    f68f:	48 8d 05 06 aa 00 00 	lea    0xaa06(%rip),%rax        # 1a09c <g_162>
    f696:	48 89 85 e0 fa ff ff 	mov    %rax,-0x520(%rbp)
    f69d:	48 8d 85 98 ed ff ff 	lea    -0x1268(%rbp),%rax
    f6a4:	48 89 85 e8 fa ff ff 	mov    %rax,-0x518(%rbp)
    f6ab:	48 8d 05 ea a9 00 00 	lea    0xa9ea(%rip),%rax        # 1a09c <g_162>
    f6b2:	48 89 85 f0 fa ff ff 	mov    %rax,-0x510(%rbp)
    f6b9:	48 8d 85 98 ed ff ff 	lea    -0x1268(%rbp),%rax
    f6c0:	48 89 85 f8 fa ff ff 	mov    %rax,-0x508(%rbp)
    f6c7:	48 8d 05 ce a9 00 00 	lea    0xa9ce(%rip),%rax        # 1a09c <g_162>
    f6ce:	48 89 85 00 fb ff ff 	mov    %rax,-0x500(%rbp)
    f6d5:	48 8d 85 98 ed ff ff 	lea    -0x1268(%rbp),%rax
    f6dc:	48 89 85 08 fb ff ff 	mov    %rax,-0x4f8(%rbp)
    f6e3:	48 8d 05 b2 a9 00 00 	lea    0xa9b2(%rip),%rax        # 1a09c <g_162>
    f6ea:	48 89 85 10 fb ff ff 	mov    %rax,-0x4f0(%rbp)
    f6f1:	48 8d 85 98 ed ff ff 	lea    -0x1268(%rbp),%rax
    f6f8:	48 89 85 18 fb ff ff 	mov    %rax,-0x4e8(%rbp)
    f6ff:	48 8d 05 96 a9 00 00 	lea    0xa996(%rip),%rax        # 1a09c <g_162>
    f706:	48 89 85 20 fb ff ff 	mov    %rax,-0x4e0(%rbp)
    f70d:	48 8d 85 98 ed ff ff 	lea    -0x1268(%rbp),%rax
    f714:	48 89 85 28 fb ff ff 	mov    %rax,-0x4d8(%rbp)
    f71b:	48 8d 05 7a a9 00 00 	lea    0xa97a(%rip),%rax        # 1a09c <g_162>
    f722:	48 89 85 30 fb ff ff 	mov    %rax,-0x4d0(%rbp)
    f729:	48 8d 85 98 ed ff ff 	lea    -0x1268(%rbp),%rax
    f730:	48 89 85 38 fb ff ff 	mov    %rax,-0x4c8(%rbp)
    f737:	48 8d 05 5e a9 00 00 	lea    0xa95e(%rip),%rax        # 1a09c <g_162>
    f73e:	48 89 85 40 fb ff ff 	mov    %rax,-0x4c0(%rbp)
    f745:	48 8d 85 98 ed ff ff 	lea    -0x1268(%rbp),%rax
    f74c:	48 89 85 48 fb ff ff 	mov    %rax,-0x4b8(%rbp)
    f753:	48 8d 05 42 a9 00 00 	lea    0xa942(%rip),%rax        # 1a09c <g_162>
    f75a:	48 89 85 50 fb ff ff 	mov    %rax,-0x4b0(%rbp)
    f761:	48 8d 85 98 ed ff ff 	lea    -0x1268(%rbp),%rax
    f768:	48 89 85 58 fb ff ff 	mov    %rax,-0x4a8(%rbp)
    f76f:	48 8d 05 26 a9 00 00 	lea    0xa926(%rip),%rax        # 1a09c <g_162>
    f776:	48 89 85 60 fb ff ff 	mov    %rax,-0x4a0(%rbp)
    f77d:	48 8d 85 98 ed ff ff 	lea    -0x1268(%rbp),%rax
    f784:	48 89 85 68 fb ff ff 	mov    %rax,-0x498(%rbp)
    f78b:	48 8d 05 0a a9 00 00 	lea    0xa90a(%rip),%rax        # 1a09c <g_162>
    f792:	48 89 85 70 fb ff ff 	mov    %rax,-0x490(%rbp)
    f799:	48 8d 85 98 ed ff ff 	lea    -0x1268(%rbp),%rax
    f7a0:	48 89 85 78 fb ff ff 	mov    %rax,-0x488(%rbp)
    f7a7:	48 8d 05 ee a8 00 00 	lea    0xa8ee(%rip),%rax        # 1a09c <g_162>
    f7ae:	48 89 85 80 fb ff ff 	mov    %rax,-0x480(%rbp)
    f7b5:	48 8d 85 98 ed ff ff 	lea    -0x1268(%rbp),%rax
    f7bc:	48 89 85 88 fb ff ff 	mov    %rax,-0x478(%rbp)
    f7c3:	48 8d 05 d2 a8 00 00 	lea    0xa8d2(%rip),%rax        # 1a09c <g_162>
    f7ca:	48 89 85 90 fb ff ff 	mov    %rax,-0x470(%rbp)
    f7d1:	48 8d 85 98 ed ff ff 	lea    -0x1268(%rbp),%rax
    f7d8:	48 89 85 98 fb ff ff 	mov    %rax,-0x468(%rbp)
    f7df:	48 8d 05 b6 a8 00 00 	lea    0xa8b6(%rip),%rax        # 1a09c <g_162>
    f7e6:	48 89 85 a0 fb ff ff 	mov    %rax,-0x460(%rbp)
    f7ed:	48 8d 85 98 ed ff ff 	lea    -0x1268(%rbp),%rax
    f7f4:	48 89 85 a8 fb ff ff 	mov    %rax,-0x458(%rbp)
    f7fb:	48 8d 05 9a a8 00 00 	lea    0xa89a(%rip),%rax        # 1a09c <g_162>
    f802:	48 89 85 b0 fb ff ff 	mov    %rax,-0x450(%rbp)
    f809:	48 8d 85 98 ed ff ff 	lea    -0x1268(%rbp),%rax
    f810:	48 89 85 b8 fb ff ff 	mov    %rax,-0x448(%rbp)
    f817:	48 8d 05 7e a8 00 00 	lea    0xa87e(%rip),%rax        # 1a09c <g_162>
    f81e:	48 89 85 c0 fb ff ff 	mov    %rax,-0x440(%rbp)
    f825:	48 8d 85 98 ed ff ff 	lea    -0x1268(%rbp),%rax
    f82c:	48 89 85 c8 fb ff ff 	mov    %rax,-0x438(%rbp)
    f833:	48 8d 05 62 a8 00 00 	lea    0xa862(%rip),%rax        # 1a09c <g_162>
    f83a:	48 89 85 d0 fb ff ff 	mov    %rax,-0x430(%rbp)
    f841:	48 8d 85 98 ed ff ff 	lea    -0x1268(%rbp),%rax
    f848:	48 89 85 d8 fb ff ff 	mov    %rax,-0x428(%rbp)
    f84f:	48 8d 05 46 a8 00 00 	lea    0xa846(%rip),%rax        # 1a09c <g_162>
    f856:	48 89 85 e0 fb ff ff 	mov    %rax,-0x420(%rbp)
    f85d:	48 8d 85 98 ed ff ff 	lea    -0x1268(%rbp),%rax
    f864:	48 89 85 e8 fb ff ff 	mov    %rax,-0x418(%rbp)
    f86b:	48 8d 05 2a a8 00 00 	lea    0xa82a(%rip),%rax        # 1a09c <g_162>
    f872:	48 89 85 f0 fb ff ff 	mov    %rax,-0x410(%rbp)
    f879:	48 8d 85 98 ed ff ff 	lea    -0x1268(%rbp),%rax
    f880:	48 89 85 f8 fb ff ff 	mov    %rax,-0x408(%rbp)
    f887:	48 8d 05 0e a8 00 00 	lea    0xa80e(%rip),%rax        # 1a09c <g_162>
    f88e:	48 89 85 00 fc ff ff 	mov    %rax,-0x400(%rbp)
    f895:	48 8d 85 98 ed ff ff 	lea    -0x1268(%rbp),%rax
    f89c:	48 89 85 08 fc ff ff 	mov    %rax,-0x3f8(%rbp)
    f8a3:	48 8d 05 f2 a7 00 00 	lea    0xa7f2(%rip),%rax        # 1a09c <g_162>
    f8aa:	48 89 85 10 fc ff ff 	mov    %rax,-0x3f0(%rbp)
    f8b1:	48 8d 85 98 ed ff ff 	lea    -0x1268(%rbp),%rax
    f8b8:	48 89 85 18 fc ff ff 	mov    %rax,-0x3e8(%rbp)
    f8bf:	48 8d 05 d6 a7 00 00 	lea    0xa7d6(%rip),%rax        # 1a09c <g_162>
    f8c6:	48 89 85 20 fc ff ff 	mov    %rax,-0x3e0(%rbp)
    f8cd:	48 8d 85 98 ed ff ff 	lea    -0x1268(%rbp),%rax
    f8d4:	48 89 85 28 fc ff ff 	mov    %rax,-0x3d8(%rbp)
    f8db:	48 8d 05 ba a7 00 00 	lea    0xa7ba(%rip),%rax        # 1a09c <g_162>
    f8e2:	48 89 85 30 fc ff ff 	mov    %rax,-0x3d0(%rbp)
    f8e9:	48 8d 85 98 ed ff ff 	lea    -0x1268(%rbp),%rax
    f8f0:	48 89 85 38 fc ff ff 	mov    %rax,-0x3c8(%rbp)
    f8f7:	48 8d 05 9e a7 00 00 	lea    0xa79e(%rip),%rax        # 1a09c <g_162>
    f8fe:	48 89 85 40 fc ff ff 	mov    %rax,-0x3c0(%rbp)
    f905:	48 8d 85 98 ed ff ff 	lea    -0x1268(%rbp),%rax
    f90c:	48 89 85 48 fc ff ff 	mov    %rax,-0x3b8(%rbp)
    f913:	48 8d 05 82 a7 00 00 	lea    0xa782(%rip),%rax        # 1a09c <g_162>
    f91a:	48 89 85 50 fc ff ff 	mov    %rax,-0x3b0(%rbp)
    f921:	48 8d 85 98 ed ff ff 	lea    -0x1268(%rbp),%rax
    f928:	48 89 85 58 fc ff ff 	mov    %rax,-0x3a8(%rbp)
    f92f:	48 8d 05 66 a7 00 00 	lea    0xa766(%rip),%rax        # 1a09c <g_162>
    f936:	48 89 85 60 fc ff ff 	mov    %rax,-0x3a0(%rbp)
    f93d:	48 8d 85 98 ed ff ff 	lea    -0x1268(%rbp),%rax
    f944:	48 89 85 68 fc ff ff 	mov    %rax,-0x398(%rbp)
    f94b:	48 8d 05 4a a7 00 00 	lea    0xa74a(%rip),%rax        # 1a09c <g_162>
    f952:	48 89 85 70 fc ff ff 	mov    %rax,-0x390(%rbp)
    f959:	48 8d 85 98 ed ff ff 	lea    -0x1268(%rbp),%rax
    f960:	48 89 85 78 fc ff ff 	mov    %rax,-0x388(%rbp)
    f967:	48 8d 05 2e a7 00 00 	lea    0xa72e(%rip),%rax        # 1a09c <g_162>
    f96e:	48 89 85 80 fc ff ff 	mov    %rax,-0x380(%rbp)
    f975:	48 8d 85 98 ed ff ff 	lea    -0x1268(%rbp),%rax
    f97c:	48 89 85 88 fc ff ff 	mov    %rax,-0x378(%rbp)
    f983:	48 8d 05 12 a7 00 00 	lea    0xa712(%rip),%rax        # 1a09c <g_162>
    f98a:	48 89 85 90 fc ff ff 	mov    %rax,-0x370(%rbp)
    f991:	48 8d 85 98 ed ff ff 	lea    -0x1268(%rbp),%rax
    f998:	48 89 85 98 fc ff ff 	mov    %rax,-0x368(%rbp)
    f99f:	48 8d 05 f6 a6 00 00 	lea    0xa6f6(%rip),%rax        # 1a09c <g_162>
    f9a6:	48 89 85 a0 fc ff ff 	mov    %rax,-0x360(%rbp)
    f9ad:	48 8d 85 98 ed ff ff 	lea    -0x1268(%rbp),%rax
    f9b4:	48 89 85 a8 fc ff ff 	mov    %rax,-0x358(%rbp)
    f9bb:	48 8d 05 da a6 00 00 	lea    0xa6da(%rip),%rax        # 1a09c <g_162>
    f9c2:	48 89 85 b0 fc ff ff 	mov    %rax,-0x350(%rbp)
    f9c9:	48 8d 85 98 ed ff ff 	lea    -0x1268(%rbp),%rax
    f9d0:	48 89 85 b8 fc ff ff 	mov    %rax,-0x348(%rbp)
    f9d7:	48 8d 05 be a6 00 00 	lea    0xa6be(%rip),%rax        # 1a09c <g_162>
    f9de:	48 89 85 c0 fc ff ff 	mov    %rax,-0x340(%rbp)
    f9e5:	48 8d 85 98 ed ff ff 	lea    -0x1268(%rbp),%rax
    f9ec:	48 89 85 c8 fc ff ff 	mov    %rax,-0x338(%rbp)
    f9f3:	48 8d 05 a2 a6 00 00 	lea    0xa6a2(%rip),%rax        # 1a09c <g_162>
    f9fa:	48 89 85 d0 fc ff ff 	mov    %rax,-0x330(%rbp)
    fa01:	48 8d 85 98 ed ff ff 	lea    -0x1268(%rbp),%rax
    fa08:	48 89 85 d8 fc ff ff 	mov    %rax,-0x328(%rbp)
    fa0f:	48 8d 05 86 a6 00 00 	lea    0xa686(%rip),%rax        # 1a09c <g_162>
    fa16:	48 89 85 e0 fc ff ff 	mov    %rax,-0x320(%rbp)
    fa1d:	48 8d 85 98 ed ff ff 	lea    -0x1268(%rbp),%rax
    fa24:	48 89 85 e8 fc ff ff 	mov    %rax,-0x318(%rbp)
    fa2b:	48 8d 05 6a a6 00 00 	lea    0xa66a(%rip),%rax        # 1a09c <g_162>
    fa32:	48 89 85 f0 fc ff ff 	mov    %rax,-0x310(%rbp)
    fa39:	48 8d 85 98 ed ff ff 	lea    -0x1268(%rbp),%rax
    fa40:	48 89 85 f8 fc ff ff 	mov    %rax,-0x308(%rbp)
    fa47:	48 8d 05 4e a6 00 00 	lea    0xa64e(%rip),%rax        # 1a09c <g_162>
    fa4e:	48 89 85 00 fd ff ff 	mov    %rax,-0x300(%rbp)
    fa55:	48 8d 85 98 ed ff ff 	lea    -0x1268(%rbp),%rax
    fa5c:	48 89 85 08 fd ff ff 	mov    %rax,-0x2f8(%rbp)
    fa63:	48 8d 05 32 a6 00 00 	lea    0xa632(%rip),%rax        # 1a09c <g_162>
    fa6a:	48 89 85 10 fd ff ff 	mov    %rax,-0x2f0(%rbp)
    fa71:	48 8d 85 98 ed ff ff 	lea    -0x1268(%rbp),%rax
    fa78:	48 89 85 18 fd ff ff 	mov    %rax,-0x2e8(%rbp)
    fa7f:	48 8d 05 16 a6 00 00 	lea    0xa616(%rip),%rax        # 1a09c <g_162>
    fa86:	48 89 85 20 fd ff ff 	mov    %rax,-0x2e0(%rbp)
    fa8d:	48 8d 85 98 ed ff ff 	lea    -0x1268(%rbp),%rax
    fa94:	48 89 85 28 fd ff ff 	mov    %rax,-0x2d8(%rbp)
    fa9b:	48 8d 05 fa a5 00 00 	lea    0xa5fa(%rip),%rax        # 1a09c <g_162>
    faa2:	48 89 85 30 fd ff ff 	mov    %rax,-0x2d0(%rbp)
    faa9:	48 8d 85 98 ed ff ff 	lea    -0x1268(%rbp),%rax
    fab0:	48 89 85 38 fd ff ff 	mov    %rax,-0x2c8(%rbp)
    fab7:	48 8d 05 de a5 00 00 	lea    0xa5de(%rip),%rax        # 1a09c <g_162>
    fabe:	48 89 85 40 fd ff ff 	mov    %rax,-0x2c0(%rbp)
    fac5:	48 8d 85 98 ed ff ff 	lea    -0x1268(%rbp),%rax
    facc:	48 89 85 48 fd ff ff 	mov    %rax,-0x2b8(%rbp)
    fad3:	48 8d 05 c2 a5 00 00 	lea    0xa5c2(%rip),%rax        # 1a09c <g_162>
    fada:	48 89 85 50 fd ff ff 	mov    %rax,-0x2b0(%rbp)
    fae1:	48 8d 85 98 ed ff ff 	lea    -0x1268(%rbp),%rax
    fae8:	48 89 85 58 fd ff ff 	mov    %rax,-0x2a8(%rbp)
    faef:	48 8d 05 a6 a5 00 00 	lea    0xa5a6(%rip),%rax        # 1a09c <g_162>
    faf6:	48 89 85 60 fd ff ff 	mov    %rax,-0x2a0(%rbp)
    fafd:	48 8d 85 98 ed ff ff 	lea    -0x1268(%rbp),%rax
    fb04:	48 89 85 68 fd ff ff 	mov    %rax,-0x298(%rbp)
    fb0b:	48 8d 05 8a a5 00 00 	lea    0xa58a(%rip),%rax        # 1a09c <g_162>
    fb12:	48 89 85 70 fd ff ff 	mov    %rax,-0x290(%rbp)
    fb19:	48 8d 85 98 ed ff ff 	lea    -0x1268(%rbp),%rax
    fb20:	48 89 85 78 fd ff ff 	mov    %rax,-0x288(%rbp)
    fb27:	48 8d 05 6e a5 00 00 	lea    0xa56e(%rip),%rax        # 1a09c <g_162>
    fb2e:	48 89 85 80 fd ff ff 	mov    %rax,-0x280(%rbp)
    fb35:	48 8d 85 98 ed ff ff 	lea    -0x1268(%rbp),%rax
    fb3c:	48 89 85 88 fd ff ff 	mov    %rax,-0x278(%rbp)
    fb43:	48 8d 05 52 a5 00 00 	lea    0xa552(%rip),%rax        # 1a09c <g_162>
    fb4a:	48 89 85 90 fd ff ff 	mov    %rax,-0x270(%rbp)
    fb51:	48 8d 85 98 ed ff ff 	lea    -0x1268(%rbp),%rax
    fb58:	48 89 85 98 fd ff ff 	mov    %rax,-0x268(%rbp)
    fb5f:	48 8d 05 36 a5 00 00 	lea    0xa536(%rip),%rax        # 1a09c <g_162>
    fb66:	48 89 85 a0 fd ff ff 	mov    %rax,-0x260(%rbp)
    fb6d:	48 8d 85 98 ed ff ff 	lea    -0x1268(%rbp),%rax
    fb74:	48 89 85 a8 fd ff ff 	mov    %rax,-0x258(%rbp)
    fb7b:	48 8d 05 1a a5 00 00 	lea    0xa51a(%rip),%rax        # 1a09c <g_162>
    fb82:	48 89 85 b0 fd ff ff 	mov    %rax,-0x250(%rbp)
    fb89:	48 8d 85 98 ed ff ff 	lea    -0x1268(%rbp),%rax
    fb90:	48 89 85 b8 fd ff ff 	mov    %rax,-0x248(%rbp)
    fb97:	48 8d 05 fe a4 00 00 	lea    0xa4fe(%rip),%rax        # 1a09c <g_162>
    fb9e:	48 89 85 c0 fd ff ff 	mov    %rax,-0x240(%rbp)
    fba5:	48 8d 85 98 ed ff ff 	lea    -0x1268(%rbp),%rax
    fbac:	48 89 85 c8 fd ff ff 	mov    %rax,-0x238(%rbp)
    fbb3:	48 8d 05 e2 a4 00 00 	lea    0xa4e2(%rip),%rax        # 1a09c <g_162>
    fbba:	48 89 85 d0 fd ff ff 	mov    %rax,-0x230(%rbp)
    fbc1:	48 8d 85 98 ed ff ff 	lea    -0x1268(%rbp),%rax
    fbc8:	48 89 85 d8 fd ff ff 	mov    %rax,-0x228(%rbp)
    fbcf:	48 8d 05 c6 a4 00 00 	lea    0xa4c6(%rip),%rax        # 1a09c <g_162>
    fbd6:	48 89 85 e0 fd ff ff 	mov    %rax,-0x220(%rbp)
    fbdd:	48 8d 85 98 ed ff ff 	lea    -0x1268(%rbp),%rax
    fbe4:	48 89 85 e8 fd ff ff 	mov    %rax,-0x218(%rbp)
    fbeb:	48 8d 05 aa a4 00 00 	lea    0xa4aa(%rip),%rax        # 1a09c <g_162>
    fbf2:	48 89 85 f0 fd ff ff 	mov    %rax,-0x210(%rbp)
    fbf9:	48 8d 85 98 ed ff ff 	lea    -0x1268(%rbp),%rax
    fc00:	48 89 85 f8 fd ff ff 	mov    %rax,-0x208(%rbp)
    fc07:	48 8d 05 8e a4 00 00 	lea    0xa48e(%rip),%rax        # 1a09c <g_162>
    fc0e:	48 89 85 00 fe ff ff 	mov    %rax,-0x200(%rbp)
    fc15:	48 8d 85 98 ed ff ff 	lea    -0x1268(%rbp),%rax
    fc1c:	48 89 85 08 fe ff ff 	mov    %rax,-0x1f8(%rbp)
    fc23:	48 8d 05 72 a4 00 00 	lea    0xa472(%rip),%rax        # 1a09c <g_162>
    fc2a:	48 89 85 10 fe ff ff 	mov    %rax,-0x1f0(%rbp)
    fc31:	48 8d 85 98 ed ff ff 	lea    -0x1268(%rbp),%rax
    fc38:	48 89 85 18 fe ff ff 	mov    %rax,-0x1e8(%rbp)
    fc3f:	48 8d 05 56 a4 00 00 	lea    0xa456(%rip),%rax        # 1a09c <g_162>
    fc46:	48 89 85 20 fe ff ff 	mov    %rax,-0x1e0(%rbp)
    fc4d:	48 8d 85 98 ed ff ff 	lea    -0x1268(%rbp),%rax
    fc54:	48 89 85 28 fe ff ff 	mov    %rax,-0x1d8(%rbp)
    fc5b:	48 8d 05 3a a4 00 00 	lea    0xa43a(%rip),%rax        # 1a09c <g_162>
    fc62:	48 89 85 30 fe ff ff 	mov    %rax,-0x1d0(%rbp)
    fc69:	48 8d 85 98 ed ff ff 	lea    -0x1268(%rbp),%rax
    fc70:	48 89 85 38 fe ff ff 	mov    %rax,-0x1c8(%rbp)
    fc77:	48 8d 05 1e a4 00 00 	lea    0xa41e(%rip),%rax        # 1a09c <g_162>
    fc7e:	48 89 85 40 fe ff ff 	mov    %rax,-0x1c0(%rbp)
    fc85:	48 8d 85 98 ed ff ff 	lea    -0x1268(%rbp),%rax
    fc8c:	48 89 85 48 fe ff ff 	mov    %rax,-0x1b8(%rbp)
    fc93:	48 8d 05 02 a4 00 00 	lea    0xa402(%rip),%rax        # 1a09c <g_162>
    fc9a:	48 89 85 50 fe ff ff 	mov    %rax,-0x1b0(%rbp)
    fca1:	48 8d 85 98 ed ff ff 	lea    -0x1268(%rbp),%rax
    fca8:	48 89 85 58 fe ff ff 	mov    %rax,-0x1a8(%rbp)
    fcaf:	48 8d 05 e6 a3 00 00 	lea    0xa3e6(%rip),%rax        # 1a09c <g_162>
    fcb6:	48 89 85 60 fe ff ff 	mov    %rax,-0x1a0(%rbp)
    fcbd:	48 8d 85 98 ed ff ff 	lea    -0x1268(%rbp),%rax
    fcc4:	48 89 85 68 fe ff ff 	mov    %rax,-0x198(%rbp)
    fccb:	48 8d 05 ca a3 00 00 	lea    0xa3ca(%rip),%rax        # 1a09c <g_162>
    fcd2:	48 89 85 70 fe ff ff 	mov    %rax,-0x190(%rbp)
    fcd9:	48 8d 85 98 ed ff ff 	lea    -0x1268(%rbp),%rax
    fce0:	48 89 85 78 fe ff ff 	mov    %rax,-0x188(%rbp)
    fce7:	48 8d 05 ae a3 00 00 	lea    0xa3ae(%rip),%rax        # 1a09c <g_162>
    fcee:	48 89 85 80 fe ff ff 	mov    %rax,-0x180(%rbp)
    fcf5:	48 8d 85 98 ed ff ff 	lea    -0x1268(%rbp),%rax
    fcfc:	48 89 85 88 fe ff ff 	mov    %rax,-0x178(%rbp)
    fd03:	48 8d 05 92 a3 00 00 	lea    0xa392(%rip),%rax        # 1a09c <g_162>
    fd0a:	48 89 85 90 fe ff ff 	mov    %rax,-0x170(%rbp)
    fd11:	48 8d 85 98 ed ff ff 	lea    -0x1268(%rbp),%rax
    fd18:	48 89 85 98 fe ff ff 	mov    %rax,-0x168(%rbp)
    fd1f:	48 8d 05 76 a3 00 00 	lea    0xa376(%rip),%rax        # 1a09c <g_162>
    fd26:	48 89 85 a0 fe ff ff 	mov    %rax,-0x160(%rbp)
    fd2d:	48 8d 85 98 ed ff ff 	lea    -0x1268(%rbp),%rax
    fd34:	48 89 85 a8 fe ff ff 	mov    %rax,-0x158(%rbp)
    fd3b:	48 8d 05 5a a3 00 00 	lea    0xa35a(%rip),%rax        # 1a09c <g_162>
    fd42:	48 89 85 b0 fe ff ff 	mov    %rax,-0x150(%rbp)
    fd49:	48 8d 85 98 ed ff ff 	lea    -0x1268(%rbp),%rax
    fd50:	48 89 85 b8 fe ff ff 	mov    %rax,-0x148(%rbp)
    fd57:	48 8d 05 3e a3 00 00 	lea    0xa33e(%rip),%rax        # 1a09c <g_162>
    fd5e:	48 89 85 c0 fe ff ff 	mov    %rax,-0x140(%rbp)
    fd65:	48 8d 85 98 ed ff ff 	lea    -0x1268(%rbp),%rax
    fd6c:	48 89 85 c8 fe ff ff 	mov    %rax,-0x138(%rbp)
    fd73:	48 8d 05 22 a3 00 00 	lea    0xa322(%rip),%rax        # 1a09c <g_162>
    fd7a:	48 89 85 d0 fe ff ff 	mov    %rax,-0x130(%rbp)
    fd81:	48 8d 85 98 ed ff ff 	lea    -0x1268(%rbp),%rax
    fd88:	48 89 85 d8 fe ff ff 	mov    %rax,-0x128(%rbp)
    fd8f:	48 8d 05 06 a3 00 00 	lea    0xa306(%rip),%rax        # 1a09c <g_162>
    fd96:	48 89 85 e0 fe ff ff 	mov    %rax,-0x120(%rbp)
    fd9d:	48 8d 85 98 ed ff ff 	lea    -0x1268(%rbp),%rax
    fda4:	48 89 85 e8 fe ff ff 	mov    %rax,-0x118(%rbp)
    fdab:	48 8d 05 ea a2 00 00 	lea    0xa2ea(%rip),%rax        # 1a09c <g_162>
    fdb2:	48 89 85 f0 fe ff ff 	mov    %rax,-0x110(%rbp)
    fdb9:	48 8d 85 98 ed ff ff 	lea    -0x1268(%rbp),%rax
    fdc0:	48 89 85 f8 fe ff ff 	mov    %rax,-0x108(%rbp)
    fdc7:	c7 85 04 ec ff ff 01 	movl   $0x1,-0x13fc(%rbp)
    fdce:	00 00 00 
    fdd1:	48 c7 85 58 ec ff ff 	movq   $0x0,-0x13a8(%rbp)
    fdd8:	00 00 00 00 
    fddc:	48 8d 05 6d cb 00 00 	lea    0xcb6d(%rip),%rax        # 1c950 <g_372>
    fde3:	48 89 85 d0 ee ff ff 	mov    %rax,-0x1130(%rbp)
    fdea:	48 8d 05 5f cb 00 00 	lea    0xcb5f(%rip),%rax        # 1c950 <g_372>
    fdf1:	48 89 85 d8 ee ff ff 	mov    %rax,-0x1128(%rbp)
    fdf8:	48 8d 05 51 cb 00 00 	lea    0xcb51(%rip),%rax        # 1c950 <g_372>
    fdff:	48 89 85 e0 ee ff ff 	mov    %rax,-0x1120(%rbp)
    fe06:	48 c7 85 e8 ee ff ff 	movq   $0x0,-0x1118(%rbp)
    fe0d:	00 00 00 00 
    fe11:	48 8d 05 38 cb 00 00 	lea    0xcb38(%rip),%rax        # 1c950 <g_372>
    fe18:	48 89 85 f0 ee ff ff 	mov    %rax,-0x1110(%rbp)
    fe1f:	48 8d 05 2a cb 00 00 	lea    0xcb2a(%rip),%rax        # 1c950 <g_372>
    fe26:	48 89 85 f8 ee ff ff 	mov    %rax,-0x1108(%rbp)
    fe2d:	48 c7 85 00 ef ff ff 	movq   $0x0,-0x1100(%rbp)
    fe34:	00 00 00 00 
    fe38:	48 8d 05 11 cb 00 00 	lea    0xcb11(%rip),%rax        # 1c950 <g_372>
    fe3f:	48 89 85 08 ef ff ff 	mov    %rax,-0x10f8(%rbp)
    fe46:	48 8d 05 03 cb 00 00 	lea    0xcb03(%rip),%rax        # 1c950 <g_372>
    fe4d:	48 89 85 10 ef ff ff 	mov    %rax,-0x10f0(%rbp)
    fe54:	48 8d 05 f5 ca 00 00 	lea    0xcaf5(%rip),%rax        # 1c950 <g_372>
    fe5b:	48 89 85 18 ef ff ff 	mov    %rax,-0x10e8(%rbp)
    fe62:	48 8d 05 e7 ca 00 00 	lea    0xcae7(%rip),%rax        # 1c950 <g_372>
    fe69:	48 89 85 20 ef ff ff 	mov    %rax,-0x10e0(%rbp)
    fe70:	48 c7 85 28 ef ff ff 	movq   $0x0,-0x10d8(%rbp)
    fe77:	00 00 00 00 
    fe7b:	48 8d 05 ce ca 00 00 	lea    0xcace(%rip),%rax        # 1c950 <g_372>
    fe82:	48 89 85 30 ef ff ff 	mov    %rax,-0x10d0(%rbp)
    fe89:	48 c7 85 38 ef ff ff 	movq   $0x0,-0x10c8(%rbp)
    fe90:	00 00 00 00 
    fe94:	48 8d 05 b5 ca 00 00 	lea    0xcab5(%rip),%rax        # 1c950 <g_372>
    fe9b:	48 89 85 40 ef ff ff 	mov    %rax,-0x10c0(%rbp)
    fea2:	48 8d 05 a7 ca 00 00 	lea    0xcaa7(%rip),%rax        # 1c950 <g_372>
    fea9:	48 89 85 48 ef ff ff 	mov    %rax,-0x10b8(%rbp)
    feb0:	48 8d 05 99 ca 00 00 	lea    0xca99(%rip),%rax        # 1c950 <g_372>
    feb7:	48 89 85 50 ef ff ff 	mov    %rax,-0x10b0(%rbp)
    febe:	48 8d 05 8b ca 00 00 	lea    0xca8b(%rip),%rax        # 1c950 <g_372>
    fec5:	48 89 85 58 ef ff ff 	mov    %rax,-0x10a8(%rbp)
    fecc:	48 c7 85 60 ef ff ff 	movq   $0x0,-0x10a0(%rbp)
    fed3:	00 00 00 00 
    fed7:	48 8d 05 72 ca 00 00 	lea    0xca72(%rip),%rax        # 1c950 <g_372>
    fede:	48 89 85 68 ef ff ff 	mov    %rax,-0x1098(%rbp)
    fee5:	48 8d 05 64 ca 00 00 	lea    0xca64(%rip),%rax        # 1c950 <g_372>
    feec:	48 89 85 70 ef ff ff 	mov    %rax,-0x1090(%rbp)
    fef3:	48 c7 85 78 ef ff ff 	movq   $0x0,-0x1088(%rbp)
    fefa:	00 00 00 00 
    fefe:	48 8d 05 4b ca 00 00 	lea    0xca4b(%rip),%rax        # 1c950 <g_372>
    ff05:	48 89 85 80 ef ff ff 	mov    %rax,-0x1080(%rbp)
    ff0c:	48 8d 05 3d ca 00 00 	lea    0xca3d(%rip),%rax        # 1c950 <g_372>
    ff13:	48 89 85 88 ef ff ff 	mov    %rax,-0x1078(%rbp)
    ff1a:	48 8d 05 2f ca 00 00 	lea    0xca2f(%rip),%rax        # 1c950 <g_372>
    ff21:	48 89 85 90 ef ff ff 	mov    %rax,-0x1070(%rbp)
    ff28:	48 c7 85 98 ef ff ff 	movq   $0x0,-0x1068(%rbp)
    ff2f:	00 00 00 00 
    ff33:	48 8d 05 16 ca 00 00 	lea    0xca16(%rip),%rax        # 1c950 <g_372>
    ff3a:	48 89 85 a0 ef ff ff 	mov    %rax,-0x1060(%rbp)
    ff41:	48 c7 85 a8 ef ff ff 	movq   $0x0,-0x1058(%rbp)
    ff48:	00 00 00 00 
    ff4c:	48 8d 05 fd c9 00 00 	lea    0xc9fd(%rip),%rax        # 1c950 <g_372>
    ff53:	48 89 85 b0 ef ff ff 	mov    %rax,-0x1050(%rbp)
    ff5a:	48 c7 85 b8 ef ff ff 	movq   $0x0,-0x1048(%rbp)
    ff61:	00 00 00 00 
    ff65:	48 8d 05 e4 c9 00 00 	lea    0xc9e4(%rip),%rax        # 1c950 <g_372>
    ff6c:	48 89 85 c0 ef ff ff 	mov    %rax,-0x1040(%rbp)
    ff73:	48 8d 05 d6 c9 00 00 	lea    0xc9d6(%rip),%rax        # 1c950 <g_372>
    ff7a:	48 89 85 c8 ef ff ff 	mov    %rax,-0x1038(%rbp)
    ff81:	48 8d 85 d0 ee ff ff 	lea    -0x1130(%rbp),%rax
    ff88:	48 83 c0 68          	add    $0x68,%rax
    ff8c:	48 89 85 60 ec ff ff 	mov    %rax,-0x13a0(%rbp)
    ff93:	48 c7 85 68 ec ff ff 	movq   $0x0,-0x1398(%rbp)
    ff9a:	00 00 00 00 
    ff9e:	48 8d 05 fb a0 00 00 	lea    0xa0fb(%rip),%rax        # 1a0a0 <g_183>
    ffa5:	48 89 85 70 ec ff ff 	mov    %rax,-0x1390(%rbp)
    ffac:	48 c7 85 78 ec ff ff 	movq   $0x0,-0x1388(%rbp)
    ffb3:	00 00 00 00 
    ffb7:	c7 85 cc eb ff ff 00 	movl   $0x0,-0x1434(%rbp)
    ffbe:	00 00 00 
    ffc1:	eb 6d                	jmp    10030 <func_45+0xf21>
    ffc3:	c7 85 d0 eb ff ff 00 	movl   $0x0,-0x1430(%rbp)
    ffca:	00 00 00 
    ffcd:	eb 51                	jmp    10020 <func_45+0xf11>
    ffcf:	c7 85 d4 eb ff ff 00 	movl   $0x0,-0x142c(%rbp)
    ffd6:	00 00 00 
    ffd9:	eb 35                	jmp    10010 <func_45+0xf01>
    ffdb:	8b 85 d4 eb ff ff    	mov    -0x142c(%rbp),%eax
    ffe1:	48 98                	cltq   
    ffe3:	8b 95 cc eb ff ff    	mov    -0x1434(%rbp),%edx
    ffe9:	48 63 ca             	movslq %edx,%rcx
    ffec:	8b 95 d0 eb ff ff    	mov    -0x1430(%rbp),%edx
    fff2:	48 63 d2             	movslq %edx,%rdx
    fff5:	48 01 ca             	add    %rcx,%rdx
    fff8:	48 01 d2             	add    %rdx,%rdx
    fffb:	48 01 d0             	add    %rdx,%rax
    fffe:	c7 84 85 a0 ed ff ff 	movl   $0xb8ab1b87,-0x1260(%rbp,%rax,4)
   10005:	87 1b ab b8 
   10009:	83 85 d4 eb ff ff 01 	addl   $0x1,-0x142c(%rbp)
   10010:	83 bd d4 eb ff ff 01 	cmpl   $0x1,-0x142c(%rbp)
   10017:	7e c2                	jle    ffdb <func_45+0xecc>
   10019:	83 85 d0 eb ff ff 01 	addl   $0x1,-0x1430(%rbp)
   10020:	83 bd d0 eb ff ff 00 	cmpl   $0x0,-0x1430(%rbp)
   10027:	7e a6                	jle    ffcf <func_45+0xec0>
   10029:	83 85 cc eb ff ff 01 	addl   $0x1,-0x1434(%rbp)
   10030:	83 bd cc eb ff ff 00 	cmpl   $0x0,-0x1434(%rbp)
   10037:	7e 8a                	jle    ffc3 <func_45+0xeb4>
   10039:	c7 85 cc eb ff ff 00 	movl   $0x0,-0x1434(%rbp)
   10040:	00 00 00 
   10043:	eb 19                	jmp    1005e <func_45+0xf4f>
   10045:	8b 85 cc eb ff ff    	mov    -0x1434(%rbp),%eax
   1004b:	48 98                	cltq   
   1004d:	66 c7 84 45 98 ed ff 	movw   $0xffff,-0x1268(%rbp,%rax,2)
   10054:	ff ff ff 
   10057:	83 85 cc eb ff ff 01 	addl   $0x1,-0x1434(%rbp)
   1005e:	83 bd cc eb ff ff 00 	cmpl   $0x0,-0x1434(%rbp)
   10065:	7e de                	jle    10045 <func_45+0xf36>
   10067:	c7 85 cc eb ff ff 00 	movl   $0x0,-0x1434(%rbp)
   1006e:	00 00 00 
   10071:	eb 1a                	jmp    1008d <func_45+0xf7e>
   10073:	8b 85 cc eb ff ff    	mov    -0x1434(%rbp),%eax
   10079:	48 98                	cltq   
   1007b:	c7 84 85 a8 ed ff ff 	movl   $0xfffffff7,-0x1258(%rbp,%rax,4)
   10082:	f7 ff ff ff 
   10086:	83 85 cc eb ff ff 01 	addl   $0x1,-0x1434(%rbp)
   1008d:	83 bd cc eb ff ff 01 	cmpl   $0x1,-0x1434(%rbp)
   10094:	7e dd                	jle    10073 <func_45+0xf64>
   10096:	90                   	nop
   10097:	48 c7 05 c6 9f 00 00 	movq   $0x0,0x9fc6(%rip)        # 1a068 <g_109>
   1009e:	00 00 00 00 
   100a2:	e9 b2 03 00 00       	jmpq   10459 <func_45+0x134a>
   100a7:	48 8d 85 f0 f2 ff ff 	lea    -0xd10(%rbp),%rax
   100ae:	48 8d 15 0b 5a 00 00 	lea    0x5a0b(%rip),%rdx        # 15ac0 <g_2427+0xa50>
   100b5:	b9 a2 00 00 00       	mov    $0xa2,%ecx
   100ba:	48 89 c7             	mov    %rax,%rdi
   100bd:	48 89 d6             	mov    %rdx,%rsi
   100c0:	f3 48 a5             	rep movsq %ds:(%rsi),%es:(%rdi)
   100c3:	48 b8 5e ee 06 54 6b 	movabs $0x8f04f76b5406ee5e,%rax
   100ca:	f7 04 8f 
   100cd:	48 89 85 b0 ed ff ff 	mov    %rax,-0x1250(%rbp)
   100d4:	48 c7 85 b8 ed ff ff 	movq   $0x0,-0x1248(%rbp)
   100db:	00 00 00 00 
   100df:	48 89 85 c0 ed ff ff 	mov    %rax,-0x1240(%rbp)
   100e6:	48 c7 85 c8 ed ff ff 	movq   $0x0,-0x1238(%rbp)
   100ed:	00 00 00 00 
   100f1:	48 89 85 d0 ed ff ff 	mov    %rax,-0x1230(%rbp)
   100f8:	48 c7 85 d8 ed ff ff 	movq   $0x0,-0x1228(%rbp)
   100ff:	00 00 00 00 
   10103:	48 89 85 e0 ed ff ff 	mov    %rax,-0x1220(%rbp)
   1010a:	48 c7 85 e8 ed ff ff 	movq   $0x0,-0x1218(%rbp)
   10111:	00 00 00 00 
   10115:	48 c7 85 28 ed ff ff 	movq   $0x0,-0x12d8(%rbp)
   1011c:	00 00 00 00 
   10120:	48 8d 05 01 9f 00 00 	lea    0x9f01(%rip),%rax        # 1a028 <g_3>
   10127:	48 89 85 50 ee ff ff 	mov    %rax,-0x11b0(%rbp)
   1012e:	48 c7 85 58 ee ff ff 	movq   $0x0,-0x11a8(%rbp)
   10135:	00 00 00 00 
   10139:	48 c7 85 60 ee ff ff 	movq   $0x0,-0x11a0(%rbp)
   10140:	00 00 00 00 
   10144:	48 8d 05 dd 9e 00 00 	lea    0x9edd(%rip),%rax        # 1a028 <g_3>
   1014b:	48 89 85 68 ee ff ff 	mov    %rax,-0x1198(%rbp)
   10152:	48 c7 85 70 ee ff ff 	movq   $0x0,-0x1190(%rbp)
   10159:	00 00 00 00 
   1015d:	48 c7 85 78 ee ff ff 	movq   $0x0,-0x1188(%rbp)
   10164:	00 00 00 00 
   10168:	48 8d 05 b9 9e 00 00 	lea    0x9eb9(%rip),%rax        # 1a028 <g_3>
   1016f:	48 89 85 80 ee ff ff 	mov    %rax,-0x1180(%rbp)
   10176:	48 c7 85 88 ee ff ff 	movq   $0x0,-0x1178(%rbp)
   1017d:	00 00 00 00 
   10181:	48 c7 85 90 ee ff ff 	movq   $0x0,-0x1170(%rbp)
   10188:	00 00 00 00 
   1018c:	48 8d 05 95 9e 00 00 	lea    0x9e95(%rip),%rax        # 1a028 <g_3>
   10193:	48 89 85 98 ee ff ff 	mov    %rax,-0x1168(%rbp)
   1019a:	48 c7 85 a0 ee ff ff 	movq   $0x0,-0x1160(%rbp)
   101a1:	00 00 00 00 
   101a5:	48 c7 85 a8 ee ff ff 	movq   $0x0,-0x1158(%rbp)
   101ac:	00 00 00 00 
   101b0:	48 8d 05 71 9e 00 00 	lea    0x9e71(%rip),%rax        # 1a028 <g_3>
   101b7:	48 89 85 b0 ee ff ff 	mov    %rax,-0x1150(%rbp)
   101be:	48 c7 85 b8 ee ff ff 	movq   $0x0,-0x1148(%rbp)
   101c5:	00 00 00 00 
   101c9:	48 c7 85 c0 ee ff ff 	movq   $0x0,-0x1140(%rbp)
   101d0:	00 00 00 00 
   101d4:	48 8d 05 e9 9f 00 00 	lea    0x9fe9(%rip),%rax        # 1a1c4 <g_697>
   101db:	48 89 85 38 ec ff ff 	mov    %rax,-0x13c8(%rbp)
   101e2:	48 8d 05 27 c7 00 00 	lea    0xc727(%rip),%rax        # 1c910 <g_116>
   101e9:	48 89 85 40 ec ff ff 	mov    %rax,-0x13c0(%rbp)
   101f0:	48 8d 85 40 ec ff ff 	lea    -0x13c0(%rbp),%rax
   101f7:	48 89 85 30 ed ff ff 	mov    %rax,-0x12d0(%rbp)
   101fe:	48 c7 85 48 ec ff ff 	movq   $0x0,-0x13b8(%rbp)
   10205:	00 00 00 00 
   10209:	48 8d 85 48 ec ff ff 	lea    -0x13b8(%rbp),%rax
   10210:	48 89 85 38 ed ff ff 	mov    %rax,-0x12c8(%rbp)
   10217:	66 c7 85 c6 eb ff ff 	movw   $0xcc3c,-0x143a(%rbp)
   1021e:	3c cc 
   10220:	c7 85 2c ec ff ff 2b 	movl   $0x22571b2b,-0x13d4(%rbp)
   10227:	1b 57 22 
   1022a:	48 c7 85 40 ed ff ff 	movq   $0x0,-0x12c0(%rbp)
   10231:	00 00 00 00 
   10235:	48 8d 85 38 ec ff ff 	lea    -0x13c8(%rbp),%rax
   1023c:	48 89 85 48 ed ff ff 	mov    %rax,-0x12b8(%rbp)
   10243:	c7 85 d8 eb ff ff 00 	movl   $0x0,-0x1428(%rbp)
   1024a:	00 00 00 
   1024d:	e9 81 00 00 00       	jmpq   102d3 <func_45+0x11c4>
   10252:	c7 85 dc eb ff ff 00 	movl   $0x0,-0x1424(%rbp)
   10259:	00 00 00 
   1025c:	eb 65                	jmp    102c3 <func_45+0x11b4>
   1025e:	c7 85 e0 eb ff ff 00 	movl   $0x0,-0x1420(%rbp)
   10265:	00 00 00 
   10268:	eb 49                	jmp    102b3 <func_45+0x11a4>
   1026a:	8b 85 e0 eb ff ff    	mov    -0x1420(%rbp),%eax
   10270:	48 63 f0             	movslq %eax,%rsi
   10273:	8b 85 d8 eb ff ff    	mov    -0x1428(%rbp),%eax
   10279:	48 63 d0             	movslq %eax,%rdx
   1027c:	8b 85 dc eb ff ff    	mov    -0x1424(%rbp),%eax
   10282:	48 63 c8             	movslq %eax,%rcx
   10285:	48 89 d0             	mov    %rdx,%rax
   10288:	48 01 c0             	add    %rax,%rax
   1028b:	48 01 d0             	add    %rdx,%rax
   1028e:	48 c1 e0 03          	shl    $0x3,%rax
   10292:	48 89 ca             	mov    %rcx,%rdx
   10295:	48 01 d2             	add    %rdx,%rdx
   10298:	48 01 ca             	add    %rcx,%rdx
   1029b:	48 01 d0             	add    %rdx,%rax
   1029e:	48 01 f0             	add    %rsi,%rax
   102a1:	c7 84 85 f0 ed ff ff 	movl   $0xfffffffb,-0x1210(%rbp,%rax,4)
   102a8:	fb ff ff ff 
   102ac:	83 85 e0 eb ff ff 01 	addl   $0x1,-0x1420(%rbp)
   102b3:	83 bd e0 eb ff ff 02 	cmpl   $0x2,-0x1420(%rbp)
   102ba:	7e ae                	jle    1026a <func_45+0x115b>
   102bc:	83 85 dc eb ff ff 01 	addl   $0x1,-0x1424(%rbp)
   102c3:	83 bd dc eb ff ff 07 	cmpl   $0x7,-0x1424(%rbp)
   102ca:	7e 92                	jle    1025e <func_45+0x114f>
   102cc:	83 85 d8 eb ff ff 01 	addl   $0x1,-0x1428(%rbp)
   102d3:	83 bd d8 eb ff ff 00 	cmpl   $0x0,-0x1428(%rbp)
   102da:	0f 8e 72 ff ff ff    	jle    10252 <func_45+0x1143>
   102e0:	c7 85 d8 eb ff ff 00 	movl   $0x0,-0x1428(%rbp)
   102e7:	00 00 00 
   102ea:	eb 19                	jmp    10305 <func_45+0x11f6>
   102ec:	8b 85 d8 eb ff ff    	mov    -0x1428(%rbp),%eax
   102f2:	48 98                	cltq   
   102f4:	66 c7 84 45 9c ed ff 	movw   $0xfffd,-0x1264(%rbp,%rax,2)
   102fb:	ff fd ff 
   102fe:	83 85 d8 eb ff ff 01 	addl   $0x1,-0x1428(%rbp)
   10305:	83 bd d8 eb ff ff 01 	cmpl   $0x1,-0x1428(%rbp)
   1030c:	7e de                	jle    102ec <func_45+0x11dd>
   1030e:	66 c7 05 4d 9d 00 00 	movw   $0x0,0x9d4d(%rip)        # 1a064 <g_100>
   10315:	00 00 
   10317:	e9 12 01 00 00       	jmpq   1042e <func_45+0x131f>
   1031c:	48 8d 85 d0 ef ff ff 	lea    -0x1030(%rbp),%rax
   10323:	48 8d 15 16 c0 00 00 	lea    0xc016(%rip),%rdx        # 1c340 <g_2887+0xa00>
   1032a:	b9 24 00 00 00       	mov    $0x24,%ecx
   1032f:	48 89 c7             	mov    %rax,%rdi
   10332:	48 89 d6             	mov    %rdx,%rsi
   10335:	f3 48 a5             	rep movsq %ds:(%rsi),%es:(%rdi)
   10338:	48 8d 05 61 9d 00 00 	lea    0x9d61(%rip),%rax        # 1a0a0 <g_183>
   1033f:	48 89 85 50 ed ff ff 	mov    %rax,-0x12b0(%rbp)
   10346:	48 8d 05 5b 9d 00 00 	lea    0x9d5b(%rip),%rax        # 1a0a8 <g_207>
   1034d:	48 89 85 58 ed ff ff 	mov    %rax,-0x12a8(%rbp)
   10354:	48 8d 05 d5 9c 00 00 	lea    0x9cd5(%rip),%rax        # 1a030 <g_6>
   1035b:	48 89 85 50 ec ff ff 	mov    %rax,-0x13b0(%rbp)
   10362:	48 8d 85 50 ec ff ff 	lea    -0x13b0(%rbp),%rax
   10369:	48 89 85 60 ed ff ff 	mov    %rax,-0x12a0(%rbp)
   10370:	48 8d 05 31 9e 00 00 	lea    0x9e31(%rip),%rax        # 1a1a8 <g_470>
   10377:	48 89 85 68 ed ff ff 	mov    %rax,-0x1298(%rbp)
   1037e:	48 8d 05 b3 c6 00 00 	lea    0xc6b3(%rip),%rax        # 1ca38 <g_649>
   10385:	48 89 85 70 ed ff ff 	mov    %rax,-0x1290(%rbp)
   1038c:	48 c7 85 78 ed ff ff 	movq   $0x0,-0x1288(%rbp)
   10393:	00 00 00 00 
   10397:	48 8d 85 f0 f0 ff ff 	lea    -0xf10(%rbp),%rax
   1039e:	48 8d 15 3b 5c 00 00 	lea    0x5c3b(%rip),%rdx        # 15fe0 <g_2427+0xf70>
   103a5:	b9 3f 00 00 00       	mov    $0x3f,%ecx
   103aa:	48 89 c7             	mov    %rax,%rdi
   103ad:	48 89 d6             	mov    %rdx,%rsi
   103b0:	f3 48 a5             	rep movsq %ds:(%rsi),%es:(%rdi)
   103b3:	48 8d 05 c6 9c 00 00 	lea    0x9cc6(%rip),%rax        # 1a080 <g_117>
   103ba:	48 89 85 80 ed ff ff 	mov    %rax,-0x1280(%rbp)
   103c1:	48 c7 85 88 ed ff ff 	movq   $0xffffffffffffffff,-0x1278(%rbp)
   103c8:	ff ff ff ff 
   103cc:	48 b8 d7 5d 66 4d 2f 	movabs $0xdc2b3d2f4d665dd7,%rax
   103d3:	3d 2b dc 
   103d6:	48 89 85 90 ed ff ff 	mov    %rax,-0x1270(%rbp)
   103dd:	c7 85 e4 eb ff ff 00 	movl   $0x0,-0x141c(%rbp)
   103e4:	00 00 00 
   103e7:	eb 19                	jmp    10402 <func_45+0x12f3>
   103e9:	8b 85 e4 eb ff ff    	mov    -0x141c(%rbp),%eax
   103ef:	48 98                	cltq   
   103f1:	66 c7 84 45 9a ed ff 	movw   $0xfffd,-0x1266(%rbp,%rax,2)
   103f8:	ff fd ff 
   103fb:	83 85 e4 eb ff ff 01 	addl   $0x1,-0x141c(%rbp)
   10402:	83 bd e4 eb ff ff 00 	cmpl   $0x0,-0x141c(%rbp)
   10409:	7e de                	jle    103e9 <func_45+0x12da>
   1040b:	48 8b 85 30 ec ff ff 	mov    -0x13d0(%rbp),%rax
   10412:	48 83 e8 01          	sub    $0x1,%rax
   10416:	48 89 85 30 ec ff ff 	mov    %rax,-0x13d0(%rbp)
   1041d:	0f b7 05 40 9c 00 00 	movzwl 0x9c40(%rip),%eax        # 1a064 <g_100>
   10424:	83 c0 01             	add    $0x1,%eax
   10427:	66 89 05 36 9c 00 00 	mov    %ax,0x9c36(%rip)        # 1a064 <g_100>
   1042e:	0f b7 05 2f 9c 00 00 	movzwl 0x9c2f(%rip),%eax        # 1a064 <g_100>
   10435:	66 85 c0             	test   %ax,%ax
   10438:	0f 8e de fe ff ff    	jle    1031c <func_45+0x120d>
   1043e:	48 8b 05 23 9c 00 00 	mov    0x9c23(%rip),%rax        # 1a068 <g_109>
   10445:	be 01 00 00 00       	mov    $0x1,%esi
   1044a:	48 89 c7             	mov    %rax,%rdi
   1044d:	e8 ef 83 ff ff       	callq  8841 <safe_add_func_int64_t_s_s>
   10452:	48 89 05 0f 9c 00 00 	mov    %rax,0x9c0f(%rip)        # 1a068 <g_109>
   10459:	48 8b 05 08 9c 00 00 	mov    0x9c08(%rip),%rax        # 1a068 <g_109>
   10460:	48 83 f8 0f          	cmp    $0xf,%rax
   10464:	0f 8e 3d fc ff ff    	jle    100a7 <func_45+0xf98>
   1046a:	48 8b 85 30 ec ff ff 	mov    -0x13d0(%rbp),%rax
   10471:	89 c2                	mov    %eax,%edx
   10473:	0f b6 05 06 9c 00 00 	movzbl 0x9c06(%rip),%eax        # 1a080 <g_117>
   1047a:	0f be c0             	movsbl %al,%eax
   1047d:	89 d6                	mov    %edx,%esi
   1047f:	89 c7                	mov    %eax,%edi
   10481:	e8 4a 8a ff ff       	callq  8ed0 <safe_sub_func_uint32_t_u_u>
   10486:	85 c0                	test   %eax,%eax
   10488:	0f 84 af 01 00 00    	je     1063d <func_45+0x152e>
   1048e:	66 c7 85 c2 eb ff ff 	movw   $0x6ce,-0x143e(%rbp)
   10495:	ce 06 
   10497:	66 c7 85 c4 eb ff ff 	movw   $0x0,-0x143c(%rbp)
   1049e:	00 00 
   104a0:	c7 85 28 ec ff ff 01 	movl   $0x1,-0x13d8(%rbp)
   104a7:	00 00 00 
   104aa:	48 8d 05 07 9d 00 00 	lea    0x9d07(%rip),%rax        # 1a1b8 <g_533>
   104b1:	48 89 85 20 ed ff ff 	mov    %rax,-0x12e0(%rbp)
   104b8:	c7 85 e8 eb ff ff 00 	movl   $0x0,-0x1418(%rbp)
   104bf:	00 00 00 
   104c2:	e9 87 00 00 00       	jmpq   1054e <func_45+0x143f>
   104c7:	c7 85 ec eb ff ff 00 	movl   $0x0,-0x1414(%rbp)
   104ce:	00 00 00 
   104d1:	eb 6b                	jmp    1053e <func_45+0x142f>
   104d3:	c7 85 f0 eb ff ff 00 	movl   $0x0,-0x1410(%rbp)
   104da:	00 00 00 
   104dd:	eb 4f                	jmp    1052e <func_45+0x141f>
   104df:	8b 85 f0 eb ff ff    	mov    -0x1410(%rbp),%eax
   104e5:	48 63 f0             	movslq %eax,%rsi
   104e8:	8b 85 e8 eb ff ff    	mov    -0x1418(%rbp),%eax
   104ee:	48 63 d0             	movslq %eax,%rdx
   104f1:	8b 85 ec eb ff ff    	mov    -0x1414(%rbp),%eax
   104f7:	48 63 c8             	movslq %eax,%rcx
   104fa:	48 89 d0             	mov    %rdx,%rax
   104fd:	48 c1 e0 02          	shl    $0x2,%rax
   10501:	48 01 d0             	add    %rdx,%rax
   10504:	48 c1 e0 02          	shl    $0x2,%rax
   10508:	48 89 ca             	mov    %rcx,%rdx
   1050b:	48 c1 e2 02          	shl    $0x2,%rdx
   1050f:	48 01 ca             	add    %rcx,%rdx
   10512:	48 01 d0             	add    %rdx,%rax
   10515:	48 01 f0             	add    %rsi,%rax
   10518:	48 8d 15 29 9b 00 00 	lea    0x9b29(%rip),%rdx        # 1a048 <g_62+0x8>
   1051f:	48 89 94 c5 f0 f2 ff 	mov    %rdx,-0xd10(%rbp,%rax,8)
   10526:	ff 
   10527:	83 85 f0 eb ff ff 01 	addl   $0x1,-0x1410(%rbp)
   1052e:	83 bd f0 eb ff ff 04 	cmpl   $0x4,-0x1410(%rbp)
   10535:	7e a8                	jle    104df <func_45+0x13d0>
   10537:	83 85 ec eb ff ff 01 	addl   $0x1,-0x1414(%rbp)
   1053e:	83 bd ec eb ff ff 03 	cmpl   $0x3,-0x1414(%rbp)
   10545:	7e 8c                	jle    104d3 <func_45+0x13c4>
   10547:	83 85 e8 eb ff ff 01 	addl   $0x1,-0x1418(%rbp)
   1054e:	83 bd e8 eb ff ff 03 	cmpl   $0x3,-0x1418(%rbp)
   10555:	0f 8e 6c ff ff ff    	jle    104c7 <func_45+0x13b8>
   1055b:	83 ad 28 ec ff ff 01 	subl   $0x1,-0x13d8(%rbp)
   10562:	0f b7 85 98 ed ff ff 	movzwl -0x1268(%rbp),%eax
   10569:	44 0f b7 e0          	movzwl %ax,%r12d
   1056d:	0f b6 05 14 9b 00 00 	movzbl 0x9b14(%rip),%eax        # 1a088 <g_117+0x8>
   10574:	c1 e0 02             	shl    $0x2,%eax
   10577:	c0 f8 02             	sar    $0x2,%al
   1057a:	0f be d0             	movsbl %al,%edx
   1057d:	0f be 8d b7 eb ff ff 	movsbl -0x1449(%rbp),%ecx
   10584:	0f b7 85 98 ed ff ff 	movzwl -0x1268(%rbp),%eax
   1058b:	0f b7 c0             	movzwl %ax,%eax
   1058e:	39 c1                	cmp    %eax,%ecx
   10590:	0f 9f c0             	setg   %al
   10593:	0f b6 c0             	movzbl %al,%eax
   10596:	89 d6                	mov    %edx,%esi
   10598:	89 c7                	mov    %eax,%edi
   1059a:	e8 42 7f ff ff       	callq  84e1 <safe_lshift_func_int16_t_s_u>
   1059f:	0f be d8             	movsbl %al,%ebx
   105a2:	be f7 3f 00 00       	mov    $0x3ff7,%esi
   105a7:	bf 01 00 00 00       	mov    $0x1,%edi
   105ac:	e8 8c 87 ff ff       	callq  8d3d <safe_mul_func_uint16_t_u_u>
   105b1:	0f be c0             	movsbl %al,%eax
   105b4:	89 de                	mov    %ebx,%esi
   105b6:	89 c7                	mov    %eax,%edi
   105b8:	e8 55 7c ff ff       	callq  8212 <safe_mul_func_int8_t_s_s>
   105bd:	48 0f be d0          	movsbq %al,%rdx
   105c1:	48 8b 85 20 ed ff ff 	mov    -0x12e0(%rbp),%rax
   105c8:	48 89 10             	mov    %rdx,(%rax)
   105cb:	48 8b 85 20 ed ff ff 	mov    -0x12e0(%rbp),%rax
   105d2:	48 8b 00             	mov    (%rax),%rax
   105d5:	4c 89 e2             	mov    %r12,%rdx
   105d8:	48 21 c2             	and    %rax,%rdx
   105db:	48 8b 05 6e c3 00 00 	mov    0xc36e(%rip),%rax        # 1c950 <g_372>
   105e2:	8b 00                	mov    (%rax),%eax
   105e4:	89 c1                	mov    %eax,%ecx
   105e6:	89 d0                	mov    %edx,%eax
   105e8:	31 c1                	xor    %eax,%ecx
   105ea:	89 ca                	mov    %ecx,%edx
   105ec:	48 8b 05 5d c3 00 00 	mov    0xc35d(%rip),%rax        # 1c950 <g_372>
   105f3:	89 10                	mov    %edx,(%rax)
   105f5:	c7 05 3d 9a 00 00 00 	movl   $0x0,0x9a3d(%rip)        # 1a03c <g_56>
   105fc:	00 00 00 
   105ff:	eb 2c                	jmp    1062d <func_45+0x151e>
   10601:	48 8d 05 f0 c3 00 00 	lea    0xc3f0(%rip),%rax        # 1c9f8 <g_606+0x18>
   10608:	48 89 05 29 c5 00 00 	mov    %rax,0xc529(%rip)        # 1cb38 <g_1125+0xb8>
   1060f:	8b 05 27 9a 00 00    	mov    0x9a27(%rip),%eax        # 1a03c <g_56>
   10615:	85 c0                	test   %eax,%eax
   10617:	74 05                	je     1061e <func_45+0x150f>
   10619:	e9 79 fa ff ff       	jmpq   10097 <func_45+0xf88>
   1061e:	8b 05 18 9a 00 00    	mov    0x9a18(%rip),%eax        # 1a03c <g_56>
   10624:	83 c0 01             	add    $0x1,%eax
   10627:	89 05 0f 9a 00 00    	mov    %eax,0x9a0f(%rip)        # 1a03c <g_56>
   1062d:	8b 05 09 9a 00 00    	mov    0x9a09(%rip),%eax        # 1a03c <g_56>
   10633:	83 f8 1d             	cmp    $0x1d,%eax
   10636:	7f c9                	jg     10601 <func_45+0x14f2>
   10638:	e9 75 0f 00 00       	jmpq   115b2 <func_45+0x24a3>
   1063d:	48 8d 85 bc eb ff ff 	lea    -0x1444(%rbp),%rax
   10644:	48 89 85 f0 f2 ff ff 	mov    %rax,-0xd10(%rbp)
   1064b:	48 8d 85 bc eb ff ff 	lea    -0x1444(%rbp),%rax
   10652:	48 89 85 f8 f2 ff ff 	mov    %rax,-0xd08(%rbp)
   10659:	48 c7 85 00 f3 ff ff 	movq   $0x0,-0xd00(%rbp)
   10660:	00 00 00 00 
   10664:	48 8d 05 e5 e3 00 00 	lea    0xe3e5(%rip),%rax        # 1ea50 <g_696>
   1066b:	48 89 85 08 f3 ff ff 	mov    %rax,-0xcf8(%rbp)
   10672:	48 8d 85 bc eb ff ff 	lea    -0x1444(%rbp),%rax
   10679:	48 89 85 10 f3 ff ff 	mov    %rax,-0xcf0(%rbp)
   10680:	48 c7 85 18 f3 ff ff 	movq   $0x0,-0xce8(%rbp)
   10687:	00 00 00 00 
   1068b:	48 8d 85 bc eb ff ff 	lea    -0x1444(%rbp),%rax
   10692:	48 89 85 20 f3 ff ff 	mov    %rax,-0xce0(%rbp)
   10699:	48 8d 05 b0 e3 00 00 	lea    0xe3b0(%rip),%rax        # 1ea50 <g_696>
   106a0:	48 89 85 28 f3 ff ff 	mov    %rax,-0xcd8(%rbp)
   106a7:	48 8d 05 a2 e3 00 00 	lea    0xe3a2(%rip),%rax        # 1ea50 <g_696>
   106ae:	48 89 85 30 f3 ff ff 	mov    %rax,-0xcd0(%rbp)
   106b5:	48 8d 05 d0 99 00 00 	lea    0x99d0(%rip),%rax        # 1a08c <g_136>
   106bc:	48 89 85 38 f3 ff ff 	mov    %rax,-0xcc8(%rbp)
   106c3:	48 8d 05 86 e3 00 00 	lea    0xe386(%rip),%rax        # 1ea50 <g_696>
   106ca:	48 89 85 40 f3 ff ff 	mov    %rax,-0xcc0(%rbp)
   106d1:	48 8d 05 c4 99 00 00 	lea    0x99c4(%rip),%rax        # 1a09c <g_162>
   106d8:	48 89 85 48 f3 ff ff 	mov    %rax,-0xcb8(%rbp)
   106df:	48 8d 05 6a e3 00 00 	lea    0xe36a(%rip),%rax        # 1ea50 <g_696>
   106e6:	48 89 85 50 f3 ff ff 	mov    %rax,-0xcb0(%rbp)
   106ed:	48 c7 85 58 f3 ff ff 	movq   $0x0,-0xca8(%rbp)
   106f4:	00 00 00 00 
   106f8:	48 c7 85 60 f3 ff ff 	movq   $0x0,-0xca0(%rbp)
   106ff:	00 00 00 00 
   10703:	48 c7 85 68 f3 ff ff 	movq   $0x0,-0xc98(%rbp)
   1070a:	00 00 00 00 
   1070e:	48 c7 85 70 f3 ff ff 	movq   $0x0,-0xc90(%rbp)
   10715:	00 00 00 00 
   10719:	48 8d 85 bc eb ff ff 	lea    -0x1444(%rbp),%rax
   10720:	48 89 85 78 f3 ff ff 	mov    %rax,-0xc88(%rbp)
   10727:	48 8d 85 bc eb ff ff 	lea    -0x1444(%rbp),%rax
   1072e:	48 89 85 80 f3 ff ff 	mov    %rax,-0xc80(%rbp)
   10735:	48 8d 85 bc eb ff ff 	lea    -0x1444(%rbp),%rax
   1073c:	48 89 85 88 f3 ff ff 	mov    %rax,-0xc78(%rbp)
   10743:	48 8d 85 bc eb ff ff 	lea    -0x1444(%rbp),%rax
   1074a:	48 89 85 90 f3 ff ff 	mov    %rax,-0xc70(%rbp)
   10751:	48 c7 85 98 f3 ff ff 	movq   $0x0,-0xc68(%rbp)
   10758:	00 00 00 00 
   1075c:	48 8d 05 ed e2 00 00 	lea    0xe2ed(%rip),%rax        # 1ea50 <g_696>
   10763:	48 89 85 a0 f3 ff ff 	mov    %rax,-0xc60(%rbp)
   1076a:	48 8d 85 bc eb ff ff 	lea    -0x1444(%rbp),%rax
   10771:	48 89 85 a8 f3 ff ff 	mov    %rax,-0xc58(%rbp)
   10778:	48 c7 85 b0 f3 ff ff 	movq   $0x0,-0xc50(%rbp)
   1077f:	00 00 00 00 
   10783:	48 8d 05 02 99 00 00 	lea    0x9902(%rip),%rax        # 1a08c <g_136>
   1078a:	48 89 85 b8 f3 ff ff 	mov    %rax,-0xc48(%rbp)
   10791:	48 8d 05 b8 e2 00 00 	lea    0xe2b8(%rip),%rax        # 1ea50 <g_696>
   10798:	48 89 85 c0 f3 ff ff 	mov    %rax,-0xc40(%rbp)
   1079f:	48 8d 85 bc eb ff ff 	lea    -0x1444(%rbp),%rax
   107a6:	48 89 85 c8 f3 ff ff 	mov    %rax,-0xc38(%rbp)
   107ad:	48 8d 05 9c e2 00 00 	lea    0xe29c(%rip),%rax        # 1ea50 <g_696>
   107b4:	48 89 85 d0 f3 ff ff 	mov    %rax,-0xc30(%rbp)
   107bb:	48 8d 85 bc eb ff ff 	lea    -0x1444(%rbp),%rax
   107c2:	48 89 85 d8 f3 ff ff 	mov    %rax,-0xc28(%rbp)
   107c9:	48 8d 05 80 e2 00 00 	lea    0xe280(%rip),%rax        # 1ea50 <g_696>
   107d0:	48 89 85 e0 f3 ff ff 	mov    %rax,-0xc20(%rbp)
   107d7:	48 8d 05 ae 98 00 00 	lea    0x98ae(%rip),%rax        # 1a08c <g_136>
   107de:	48 89 85 e8 f3 ff ff 	mov    %rax,-0xc18(%rbp)
   107e5:	48 8d 05 64 e2 00 00 	lea    0xe264(%rip),%rax        # 1ea50 <g_696>
   107ec:	48 89 85 f0 f3 ff ff 	mov    %rax,-0xc10(%rbp)
   107f3:	48 8d 05 56 e2 00 00 	lea    0xe256(%rip),%rax        # 1ea50 <g_696>
   107fa:	48 89 85 f8 f3 ff ff 	mov    %rax,-0xc08(%rbp)
   10801:	48 c7 85 00 f4 ff ff 	movq   $0x0,-0xc00(%rbp)
   10808:	00 00 00 00 
   1080c:	48 8d 85 bc eb ff ff 	lea    -0x1444(%rbp),%rax
   10813:	48 89 85 08 f4 ff ff 	mov    %rax,-0xbf8(%rbp)
   1081a:	48 8d 85 bc eb ff ff 	lea    -0x1444(%rbp),%rax
   10821:	48 89 85 10 f4 ff ff 	mov    %rax,-0xbf0(%rbp)
   10828:	48 8d 05 6d 98 00 00 	lea    0x986d(%rip),%rax        # 1a09c <g_162>
   1082f:	48 89 85 18 f4 ff ff 	mov    %rax,-0xbe8(%rbp)
   10836:	48 8d 05 5f 98 00 00 	lea    0x985f(%rip),%rax        # 1a09c <g_162>
   1083d:	48 89 85 20 f4 ff ff 	mov    %rax,-0xbe0(%rbp)
   10844:	48 8d 85 bc eb ff ff 	lea    -0x1444(%rbp),%rax
   1084b:	48 89 85 28 f4 ff ff 	mov    %rax,-0xbd8(%rbp)
   10852:	48 8d 85 bc eb ff ff 	lea    -0x1444(%rbp),%rax
   10859:	48 89 85 30 f4 ff ff 	mov    %rax,-0xbd0(%rbp)
   10860:	48 8d 85 bc eb ff ff 	lea    -0x1444(%rbp),%rax
   10867:	48 89 85 38 f4 ff ff 	mov    %rax,-0xbc8(%rbp)
   1086e:	48 8d 85 bc eb ff ff 	lea    -0x1444(%rbp),%rax
   10875:	48 89 85 40 f4 ff ff 	mov    %rax,-0xbc0(%rbp)
   1087c:	48 8d 85 bc eb ff ff 	lea    -0x1444(%rbp),%rax
   10883:	48 89 85 48 f4 ff ff 	mov    %rax,-0xbb8(%rbp)
   1088a:	48 8d 05 bf e1 00 00 	lea    0xe1bf(%rip),%rax        # 1ea50 <g_696>
   10891:	48 89 85 50 f4 ff ff 	mov    %rax,-0xbb0(%rbp)
   10898:	48 8d 05 ed 97 00 00 	lea    0x97ed(%rip),%rax        # 1a08c <g_136>
   1089f:	48 89 85 58 f4 ff ff 	mov    %rax,-0xba8(%rbp)
   108a6:	48 8d 05 ef 97 00 00 	lea    0x97ef(%rip),%rax        # 1a09c <g_162>
   108ad:	48 89 85 60 f4 ff ff 	mov    %rax,-0xba0(%rbp)
   108b4:	48 c7 85 68 f4 ff ff 	movq   $0x0,-0xb98(%rbp)
   108bb:	00 00 00 00 
   108bf:	48 8d 05 8a e1 00 00 	lea    0xe18a(%rip),%rax        # 1ea50 <g_696>
   108c6:	48 89 85 70 f4 ff ff 	mov    %rax,-0xb90(%rbp)
   108cd:	48 8d 85 bc eb ff ff 	lea    -0x1444(%rbp),%rax
   108d4:	48 89 85 78 f4 ff ff 	mov    %rax,-0xb88(%rbp)
   108db:	48 c7 85 80 f4 ff ff 	movq   $0x0,-0xb80(%rbp)
   108e2:	00 00 00 00 
   108e6:	48 8d 05 af 97 00 00 	lea    0x97af(%rip),%rax        # 1a09c <g_162>
   108ed:	48 89 85 88 f4 ff ff 	mov    %rax,-0xb78(%rbp)
   108f4:	48 c7 85 90 f4 ff ff 	movq   $0x0,-0xb70(%rbp)
   108fb:	00 00 00 00 
   108ff:	48 8d 85 bc eb ff ff 	lea    -0x1444(%rbp),%rax
   10906:	48 89 85 98 f4 ff ff 	mov    %rax,-0xb68(%rbp)
   1090d:	48 8d 05 3c e1 00 00 	lea    0xe13c(%rip),%rax        # 1ea50 <g_696>
   10914:	48 89 85 a0 f4 ff ff 	mov    %rax,-0xb60(%rbp)
   1091b:	48 8d 05 2e e1 00 00 	lea    0xe12e(%rip),%rax        # 1ea50 <g_696>
   10922:	48 89 85 a8 f4 ff ff 	mov    %rax,-0xb58(%rbp)
   10929:	48 c7 85 b0 f4 ff ff 	movq   $0x0,-0xb50(%rbp)
   10930:	00 00 00 00 
   10934:	48 8d 85 bc eb ff ff 	lea    -0x1444(%rbp),%rax
   1093b:	48 89 85 b8 f4 ff ff 	mov    %rax,-0xb48(%rbp)
   10942:	48 8d 05 07 e1 00 00 	lea    0xe107(%rip),%rax        # 1ea50 <g_696>
   10949:	48 89 85 c0 f4 ff ff 	mov    %rax,-0xb40(%rbp)
   10950:	48 8d 05 f9 e0 00 00 	lea    0xe0f9(%rip),%rax        # 1ea50 <g_696>
   10957:	48 89 85 c8 f4 ff ff 	mov    %rax,-0xb38(%rbp)
   1095e:	48 8d 05 27 97 00 00 	lea    0x9727(%rip),%rax        # 1a08c <g_136>
   10965:	48 89 85 d0 f4 ff ff 	mov    %rax,-0xb30(%rbp)
   1096c:	48 8d 05 19 97 00 00 	lea    0x9719(%rip),%rax        # 1a08c <g_136>
   10973:	48 89 85 d8 f4 ff ff 	mov    %rax,-0xb28(%rbp)
   1097a:	48 8d 05 cf e0 00 00 	lea    0xe0cf(%rip),%rax        # 1ea50 <g_696>
   10981:	48 89 85 e0 f4 ff ff 	mov    %rax,-0xb20(%rbp)
   10988:	48 8d 05 c1 e0 00 00 	lea    0xe0c1(%rip),%rax        # 1ea50 <g_696>
   1098f:	48 89 85 e8 f4 ff ff 	mov    %rax,-0xb18(%rbp)
   10996:	48 8d 85 bc eb ff ff 	lea    -0x1444(%rbp),%rax
   1099d:	48 89 85 f0 f4 ff ff 	mov    %rax,-0xb10(%rbp)
   109a4:	48 8d 85 bc eb ff ff 	lea    -0x1444(%rbp),%rax
   109ab:	48 89 85 f8 f4 ff ff 	mov    %rax,-0xb08(%rbp)
   109b2:	48 8d 85 bc eb ff ff 	lea    -0x1444(%rbp),%rax
   109b9:	48 89 85 00 f5 ff ff 	mov    %rax,-0xb00(%rbp)
   109c0:	48 8d 05 89 e0 00 00 	lea    0xe089(%rip),%rax        # 1ea50 <g_696>
   109c7:	48 89 85 08 f5 ff ff 	mov    %rax,-0xaf8(%rbp)
   109ce:	48 8d 05 b7 96 00 00 	lea    0x96b7(%rip),%rax        # 1a08c <g_136>
   109d5:	48 89 85 10 f5 ff ff 	mov    %rax,-0xaf0(%rbp)
   109dc:	48 8d 05 b9 96 00 00 	lea    0x96b9(%rip),%rax        # 1a09c <g_162>
   109e3:	48 89 85 18 f5 ff ff 	mov    %rax,-0xae8(%rbp)
   109ea:	48 c7 85 20 f5 ff ff 	movq   $0x0,-0xae0(%rbp)
   109f1:	00 00 00 00 
   109f5:	48 8d 05 a0 96 00 00 	lea    0x96a0(%rip),%rax        # 1a09c <g_162>
   109fc:	48 89 85 28 f5 ff ff 	mov    %rax,-0xad8(%rbp)
   10a03:	48 c7 85 30 f5 ff ff 	movq   $0x0,-0xad0(%rbp)
   10a0a:	00 00 00 00 
   10a0e:	48 8d 05 3b e0 00 00 	lea    0xe03b(%rip),%rax        # 1ea50 <g_696>
   10a15:	48 89 85 38 f5 ff ff 	mov    %rax,-0xac8(%rbp)
   10a1c:	48 8d 05 2d e0 00 00 	lea    0xe02d(%rip),%rax        # 1ea50 <g_696>
   10a23:	48 89 85 40 f5 ff ff 	mov    %rax,-0xac0(%rbp)
   10a2a:	48 8d 05 1f e0 00 00 	lea    0xe01f(%rip),%rax        # 1ea50 <g_696>
   10a31:	48 89 85 48 f5 ff ff 	mov    %rax,-0xab8(%rbp)
   10a38:	48 c7 85 50 f5 ff ff 	movq   $0x0,-0xab0(%rbp)
   10a3f:	00 00 00 00 
   10a43:	48 8d 85 bc eb ff ff 	lea    -0x1444(%rbp),%rax
   10a4a:	48 89 85 58 f5 ff ff 	mov    %rax,-0xaa8(%rbp)
   10a51:	48 8d 85 bc eb ff ff 	lea    -0x1444(%rbp),%rax
   10a58:	48 89 85 60 f5 ff ff 	mov    %rax,-0xaa0(%rbp)
   10a5f:	48 8d 05 36 96 00 00 	lea    0x9636(%rip),%rax        # 1a09c <g_162>
   10a66:	48 89 85 68 f5 ff ff 	mov    %rax,-0xa98(%rbp)
   10a6d:	48 8d 05 dc df 00 00 	lea    0xdfdc(%rip),%rax        # 1ea50 <g_696>
   10a74:	48 89 85 70 f5 ff ff 	mov    %rax,-0xa90(%rbp)
   10a7b:	48 8d 05 0a 96 00 00 	lea    0x960a(%rip),%rax        # 1a08c <g_136>
   10a82:	48 89 85 78 f5 ff ff 	mov    %rax,-0xa88(%rbp)
   10a89:	48 c7 85 80 f5 ff ff 	movq   $0x0,-0xa80(%rbp)
   10a90:	00 00 00 00 
   10a94:	48 8d 05 b5 df 00 00 	lea    0xdfb5(%rip),%rax        # 1ea50 <g_696>
   10a9b:	48 89 85 88 f5 ff ff 	mov    %rax,-0xa78(%rbp)
   10aa2:	48 8d 05 a7 df 00 00 	lea    0xdfa7(%rip),%rax        # 1ea50 <g_696>
   10aa9:	48 89 85 90 f5 ff ff 	mov    %rax,-0xa70(%rbp)
   10ab0:	48 c7 85 98 f5 ff ff 	movq   $0x0,-0xa68(%rbp)
   10ab7:	00 00 00 00 
   10abb:	48 8d 05 ca 95 00 00 	lea    0x95ca(%rip),%rax        # 1a08c <g_136>
   10ac2:	48 89 85 a0 f5 ff ff 	mov    %rax,-0xa60(%rbp)
   10ac9:	48 8d 05 80 df 00 00 	lea    0xdf80(%rip),%rax        # 1ea50 <g_696>
   10ad0:	48 89 85 a8 f5 ff ff 	mov    %rax,-0xa58(%rbp)
   10ad7:	48 8d 85 bc eb ff ff 	lea    -0x1444(%rbp),%rax
   10ade:	48 89 85 b0 f5 ff ff 	mov    %rax,-0xa50(%rbp)
   10ae5:	48 8d 85 bc eb ff ff 	lea    -0x1444(%rbp),%rax
   10aec:	48 89 85 b8 f5 ff ff 	mov    %rax,-0xa48(%rbp)
   10af3:	48 c7 85 c0 f5 ff ff 	movq   $0x0,-0xa40(%rbp)
   10afa:	00 00 00 00 
   10afe:	48 8d 05 4b df 00 00 	lea    0xdf4b(%rip),%rax        # 1ea50 <g_696>
   10b05:	48 89 85 c8 f5 ff ff 	mov    %rax,-0xa38(%rbp)
   10b0c:	48 8d 85 bc eb ff ff 	lea    -0x1444(%rbp),%rax
   10b13:	48 89 85 d0 f5 ff ff 	mov    %rax,-0xa30(%rbp)
   10b1a:	48 c7 85 d8 f5 ff ff 	movq   $0x0,-0xa28(%rbp)
   10b21:	00 00 00 00 
   10b25:	48 8d 85 bc eb ff ff 	lea    -0x1444(%rbp),%rax
   10b2c:	48 89 85 e0 f5 ff ff 	mov    %rax,-0xa20(%rbp)
   10b33:	48 8d 05 16 df 00 00 	lea    0xdf16(%rip),%rax        # 1ea50 <g_696>
   10b3a:	48 89 85 e8 f5 ff ff 	mov    %rax,-0xa18(%rbp)
   10b41:	48 8d 05 08 df 00 00 	lea    0xdf08(%rip),%rax        # 1ea50 <g_696>
   10b48:	48 89 85 f0 f5 ff ff 	mov    %rax,-0xa10(%rbp)
   10b4f:	48 8d 05 36 95 00 00 	lea    0x9536(%rip),%rax        # 1a08c <g_136>
   10b56:	48 89 85 f8 f5 ff ff 	mov    %rax,-0xa08(%rbp)
   10b5d:	48 8d 05 ec de 00 00 	lea    0xdeec(%rip),%rax        # 1ea50 <g_696>
   10b64:	48 89 85 00 f6 ff ff 	mov    %rax,-0xa00(%rbp)
   10b6b:	48 8d 05 2a 95 00 00 	lea    0x952a(%rip),%rax        # 1a09c <g_162>
   10b72:	48 89 85 08 f6 ff ff 	mov    %rax,-0x9f8(%rbp)
   10b79:	48 8d 05 d0 de 00 00 	lea    0xded0(%rip),%rax        # 1ea50 <g_696>
   10b80:	48 89 85 10 f6 ff ff 	mov    %rax,-0x9f0(%rbp)
   10b87:	48 c7 85 18 f6 ff ff 	movq   $0x0,-0x9e8(%rbp)
   10b8e:	00 00 00 00 
   10b92:	48 c7 85 20 f6 ff ff 	movq   $0x0,-0x9e0(%rbp)
   10b99:	00 00 00 00 
   10b9d:	48 c7 85 28 f6 ff ff 	movq   $0x0,-0x9d8(%rbp)
   10ba4:	00 00 00 00 
   10ba8:	48 c7 85 30 f6 ff ff 	movq   $0x0,-0x9d0(%rbp)
   10baf:	00 00 00 00 
   10bb3:	48 8d 85 bc eb ff ff 	lea    -0x1444(%rbp),%rax
   10bba:	48 89 85 38 f6 ff ff 	mov    %rax,-0x9c8(%rbp)
   10bc1:	48 8d 85 bc eb ff ff 	lea    -0x1444(%rbp),%rax
   10bc8:	48 89 85 40 f6 ff ff 	mov    %rax,-0x9c0(%rbp)
   10bcf:	48 8d 85 bc eb ff ff 	lea    -0x1444(%rbp),%rax
   10bd6:	48 89 85 48 f6 ff ff 	mov    %rax,-0x9b8(%rbp)
   10bdd:	48 8d 85 bc eb ff ff 	lea    -0x1444(%rbp),%rax
   10be4:	48 89 85 50 f6 ff ff 	mov    %rax,-0x9b0(%rbp)
   10beb:	48 c7 85 58 f6 ff ff 	movq   $0x0,-0x9a8(%rbp)
   10bf2:	00 00 00 00 
   10bf6:	48 8d 05 53 de 00 00 	lea    0xde53(%rip),%rax        # 1ea50 <g_696>
   10bfd:	48 89 85 60 f6 ff ff 	mov    %rax,-0x9a0(%rbp)
   10c04:	48 8d 85 bc eb ff ff 	lea    -0x1444(%rbp),%rax
   10c0b:	48 89 85 68 f6 ff ff 	mov    %rax,-0x998(%rbp)
   10c12:	c7 85 08 ec ff ff a7 	movl   $0x9f107a7,-0x13f8(%rbp)
   10c19:	07 f1 09 
   10c1c:	48 8d 05 45 94 00 00 	lea    0x9445(%rip),%rax        # 1a068 <g_109>
   10c23:	48 89 85 80 ec ff ff 	mov    %rax,-0x1380(%rbp)
   10c2a:	48 8d 05 6f 94 00 00 	lea    0x946f(%rip),%rax        # 1a0a0 <g_183>
   10c31:	48 89 85 88 ec ff ff 	mov    %rax,-0x1378(%rbp)
   10c38:	c7 85 0c ec ff ff e5 	movl   $0xe25ce6e5,-0x13f4(%rbp)
   10c3f:	e6 5c e2 
   10c42:	c7 85 10 ec ff ff 74 	movl   $0xedb6aa74,-0x13f0(%rbp)
   10c49:	aa b6 ed 
   10c4c:	c6 05 6d 95 00 00 f5 	movb   $0xf5,0x956d(%rip)        # 1a1c0 <g_623>
   10c53:	e9 50 01 00 00       	jmpq   10da8 <func_45+0x1c99>
   10c58:	48 8d 85 c8 eb ff ff 	lea    -0x1438(%rbp),%rax
   10c5f:	48 89 85 08 ed ff ff 	mov    %rax,-0x12f8(%rbp)
   10c66:	48 8d 85 a0 ed ff ff 	lea    -0x1260(%rbp),%rax
   10c6d:	48 83 c0 04          	add    $0x4,%rax
   10c71:	48 89 85 10 ed ff ff 	mov    %rax,-0x12f0(%rbp)
   10c78:	48 8d 85 bc eb ff ff 	lea    -0x1444(%rbp),%rax
   10c7f:	48 89 85 18 ed ff ff 	mov    %rax,-0x12e8(%rbp)
   10c86:	48 8b 05 c3 bc 00 00 	mov    0xbcc3(%rip),%rax        # 1c950 <g_372>
   10c8d:	8b 10                	mov    (%rax),%edx
   10c8f:	48 8b 05 ba bc 00 00 	mov    0xbcba(%rip),%rax        # 1c950 <g_372>
   10c96:	81 f2 20 b8 ea 84    	xor    $0x84eab820,%edx
   10c9c:	89 10                	mov    %edx,(%rax)
   10c9e:	8b 10                	mov    (%rax),%edx
   10ca0:	48 8b 85 08 ed ff ff 	mov    -0x12f8(%rbp),%rax
   10ca7:	89 10                	mov    %edx,(%rax)
   10ca9:	48 8b 85 08 ed ff ff 	mov    -0x12f8(%rbp),%rax
   10cb0:	8b 10                	mov    (%rax),%edx
   10cb2:	48 8b 85 10 ed ff ff 	mov    -0x12f0(%rbp),%rax
   10cb9:	89 10                	mov    %edx,(%rax)
   10cbb:	48 8b 85 18 f3 ff ff 	mov    -0xce8(%rbp),%rax
   10cc2:	48 89 85 58 f8 ff ff 	mov    %rax,-0x7a8(%rbp)
   10cc9:	48 8b 85 58 f8 ff ff 	mov    -0x7a8(%rbp),%rax
   10cd0:	48 39 85 18 ed ff ff 	cmp    %rax,-0x12e8(%rbp)
   10cd7:	0f 84 9a 00 00 00    	je     10d77 <func_45+0x1c68>
   10cdd:	48 8b 85 10 ed ff ff 	mov    -0x12f0(%rbp),%rax
   10ce4:	8b 00                	mov    (%rax),%eax
   10ce6:	0f b7 d8             	movzwl %ax,%ebx
   10ce9:	0f b7 85 98 ed ff ff 	movzwl -0x1268(%rbp),%eax
   10cf0:	44 0f b7 e0          	movzwl %ax,%r12d
   10cf4:	8b 85 a0 ed ff ff    	mov    -0x1260(%rbp),%eax
   10cfa:	be ce 40 99 58       	mov    $0x589940ce,%esi
   10cff:	89 c7                	mov    %eax,%edi
   10d01:	e8 ff 78 ff ff       	callq  8605 <safe_sub_func_int32_t_s_s>
   10d06:	0f b6 c0             	movzbl %al,%eax
   10d09:	be 06 00 00 00       	mov    $0x6,%esi
   10d0e:	89 c7                	mov    %eax,%edi
   10d10:	e8 37 7f ff ff       	callq  8c4c <safe_lshift_func_uint8_t_u_u>
   10d15:	8b 85 a0 ed ff ff    	mov    -0x1260(%rbp),%eax
   10d1b:	85 c0                	test   %eax,%eax
   10d1d:	0f 9e c0             	setle  %al
   10d20:	0f b6 d0             	movzbl %al,%edx
   10d23:	48 8b 85 90 eb ff ff 	mov    -0x1470(%rbp),%rax
   10d2a:	8b 00                	mov    (%rax),%eax
   10d2c:	39 c2                	cmp    %eax,%edx
   10d2e:	7d 07                	jge    10d37 <func_45+0x1c28>
   10d30:	b9 f9 00 00 00       	mov    $0xf9,%ecx
   10d35:	eb 05                	jmp    10d3c <func_45+0x1c2d>
   10d37:	b9 f8 00 00 00       	mov    $0xf8,%ecx
   10d3c:	8b 15 12 93 00 00    	mov    0x9312(%rip),%edx        # 1a054 <g_62+0x14>
   10d42:	48 8b 05 f7 bb 00 00 	mov    0xbbf7(%rip),%rax        # 1c940 <g_284>
   10d49:	48 8b 00             	mov    (%rax),%rax
   10d4c:	48 31 c1             	xor    %rax,%rcx
   10d4f:	48 8b 05 ea bb 00 00 	mov    0xbbea(%rip),%rax        # 1c940 <g_284>
   10d56:	48 89 08             	mov    %rcx,(%rax)
   10d59:	48 8b 00             	mov    (%rax),%rax
   10d5c:	21 d0                	and    %edx,%eax
   10d5e:	44 89 e6             	mov    %r12d,%esi
   10d61:	89 c7                	mov    %eax,%edi
   10d63:	e8 4e 78 ff ff       	callq  85b6 <safe_add_func_int32_t_s_s>
   10d68:	0f b7 c0             	movzwl %ax,%eax
   10d6b:	89 de                	mov    %ebx,%esi
   10d6d:	89 c7                	mov    %eax,%edi
   10d6f:	e8 c9 7f ff ff       	callq  8d3d <safe_mul_func_uint16_t_u_u>
   10d74:	66 85 c0             	test   %ax,%ax
   10d77:	be 05 00 00 00       	mov    $0x5,%esi
   10d7c:	bf ff ff ff ff       	mov    $0xffffffff,%edi
   10d81:	e8 a4 77 ff ff       	callq  852a <safe_rshift_func_int16_t_s_s>
   10d86:	98                   	cwtl   
   10d87:	23 85 08 ec ff ff    	and    -0x13f8(%rbp),%eax
   10d8d:	89 c2                	mov    %eax,%edx
   10d8f:	48 8b 85 08 ed ff ff 	mov    -0x12f8(%rbp),%rax
   10d96:	89 10                	mov    %edx,(%rax)
   10d98:	0f b6 05 21 94 00 00 	movzbl 0x9421(%rip),%eax        # 1a1c0 <g_623>
   10d9f:	83 c0 01             	add    $0x1,%eax
   10da2:	88 05 18 94 00 00    	mov    %al,0x9418(%rip)        # 1a1c0 <g_623>
   10da8:	0f b6 05 11 94 00 00 	movzbl 0x9411(%rip),%eax        # 1a1c0 <g_623>
   10daf:	3c 26                	cmp    $0x26,%al
   10db1:	0f 86 a1 fe ff ff    	jbe    10c58 <func_45+0x1b49>
   10db7:	c6 85 b7 eb ff ff fa 	movb   $0xfa,-0x1449(%rbp)
   10dbe:	e9 e2 07 00 00       	jmpq   115a5 <func_45+0x2496>
   10dc3:	48 8d 05 76 bb 00 00 	lea    0xbb76(%rip),%rax        # 1c940 <g_284>
   10dca:	48 89 85 90 ec ff ff 	mov    %rax,-0x1370(%rbp)
   10dd1:	48 8d 05 d0 93 00 00 	lea    0x93d0(%rip),%rax        # 1a1a8 <g_470>
   10dd8:	48 89 85 98 ec ff ff 	mov    %rax,-0x1368(%rbp)
   10ddf:	c7 85 14 ec ff ff c0 	movl   $0x98211c0,-0x13ec(%rbp)
   10de6:	11 82 09 
   10de9:	48 8d 85 a8 ed ff ff 	lea    -0x1258(%rbp),%rax
   10df0:	48 89 85 a0 ec ff ff 	mov    %rax,-0x1360(%rbp)
   10df7:	48 8d 05 52 dc 00 00 	lea    0xdc52(%rip),%rax        # 1ea50 <g_696>
   10dfe:	48 89 85 a8 ec ff ff 	mov    %rax,-0x1358(%rbp)
   10e05:	c7 85 48 ec ff ff 00 	movl   $0x0,-0x13b8(%rbp)
   10e0c:	00 00 00 
   10e0f:	c7 85 f4 eb ff ff 02 	movl   $0x2,-0x140c(%rbp)
   10e16:	00 00 00 
   10e19:	48 8d 05 2c 92 00 00 	lea    0x922c(%rip),%rax        # 1a04c <g_62+0xc>
   10e20:	48 89 85 b0 ec ff ff 	mov    %rax,-0x1350(%rbp)
   10e27:	48 c7 85 b8 ec ff ff 	movq   $0x1,-0x1348(%rbp)
   10e2e:	01 00 00 00 
   10e32:	48 8d 05 87 92 00 00 	lea    0x9287(%rip),%rax        # 1a0c0 <g_251>
   10e39:	48 89 85 c0 ec ff ff 	mov    %rax,-0x1340(%rbp)
   10e40:	8b 05 e6 91 00 00    	mov    0x91e6(%rip),%eax        # 1a02c <g_3+0x4>
   10e46:	85 c0                	test   %eax,%eax
   10e48:	0f 84 1d 07 00 00    	je     1156b <func_45+0x245c>
   10e4e:	48 8b 85 90 ec ff ff 	mov    -0x1370(%rbp),%rax
   10e55:	48 c7 00 00 00 00 00 	movq   $0x0,(%rax)
   10e5c:	48 8b 85 98 ec ff ff 	mov    -0x1368(%rbp),%rax
   10e63:	48 89 85 80 ec ff ff 	mov    %rax,-0x1380(%rbp)
   10e6a:	8b 05 34 92 00 00    	mov    0x9234(%rip),%eax        # 1a0a4 <g_206>
   10e70:	0f b6 d8             	movzbl %al,%ebx
   10e73:	8b 95 14 ec ff ff    	mov    -0x13ec(%rbp),%edx
   10e79:	48 8b 85 a0 ec ff ff 	mov    -0x1360(%rbp),%rax
   10e80:	89 10                	mov    %edx,(%rax)
   10e82:	48 8b 85 a0 ec ff ff 	mov    -0x1360(%rbp),%rax
   10e89:	8b 00                	mov    (%rax),%eax
   10e8b:	be 09 00 00 00       	mov    $0x9,%esi
   10e90:	89 c7                	mov    %eax,%edi
   10e92:	e8 21 80 ff ff       	callq  8eb8 <safe_add_func_uint32_t_u_u>
   10e97:	0f be d0             	movsbl %al,%edx
   10e9a:	83 bd 14 ec ff ff 00 	cmpl   $0x0,-0x13ec(%rbp)
   10ea1:	75 0d                	jne    10eb0 <func_45+0x1da1>
   10ea3:	8b 85 08 ec ff ff    	mov    -0x13f8(%rbp),%eax
   10ea9:	3d f8 00 00 00       	cmp    $0xf8,%eax
   10eae:	77 07                	ja     10eb7 <func_45+0x1da8>
   10eb0:	b8 01 00 00 00       	mov    $0x1,%eax
   10eb5:	eb 05                	jmp    10ebc <func_45+0x1dad>
   10eb7:	b8 00 00 00 00       	mov    $0x0,%eax
   10ebc:	0f be c0             	movsbl %al,%eax
   10ebf:	89 d6                	mov    %edx,%esi
   10ec1:	89 c7                	mov    %eax,%edi
   10ec3:	e8 4a 73 ff ff       	callq  8212 <safe_mul_func_int8_t_s_s>
   10ec8:	8b 85 08 ec ff ff    	mov    -0x13f8(%rbp),%eax
   10ece:	48 63 d0             	movslq %eax,%rdx
   10ed1:	83 bd 08 ec ff ff 00 	cmpl   $0x0,-0x13f8(%rbp)
   10ed8:	0f 9e c0             	setle  %al
   10edb:	0f b6 c0             	movzbl %al,%eax
   10ede:	48 39 c2             	cmp    %rax,%rdx
   10ee1:	0f 97 c0             	seta   %al
   10ee4:	0f b6 c0             	movzbl %al,%eax
   10ee7:	89 de                	mov    %ebx,%esi
   10ee9:	89 c7                	mov    %eax,%edi
   10eeb:	e8 eb 7c ff ff       	callq  8bdb <safe_div_func_uint8_t_u_u>
   10ef0:	0f b6 c0             	movzbl %al,%eax
   10ef3:	39 85 14 ec ff ff    	cmp    %eax,-0x13ec(%rbp)
   10ef9:	0f 8e 6c 06 00 00    	jle    1156b <func_45+0x245c>
   10eff:	48 b8 d0 74 c7 66 1e 	movabs $0x835a901e66c774d0,%rax
   10f06:	90 5a 83 
   10f09:	48 89 85 c8 ec ff ff 	mov    %rax,-0x1338(%rbp)
   10f10:	c6 85 b8 eb ff ff 00 	movb   $0x0,-0x1448(%rbp)
   10f17:	c7 85 f8 eb ff ff 43 	movl   $0xbfa88943,-0x1408(%rbp)
   10f1e:	89 a8 bf 
   10f21:	66 c7 85 be eb ff ff 	movw   $0xc466,-0x1442(%rbp)
   10f28:	66 c4 
   10f2a:	66 c7 85 bc eb ff ff 	movw   $0x0,-0x1444(%rbp)
   10f31:	00 00 
   10f33:	e9 20 06 00 00       	jmpq   11558 <func_45+0x2449>
   10f38:	c7 85 18 ec ff ff 01 	movl   $0x1,-0x13e8(%rbp)
   10f3f:	00 00 00 
   10f42:	c6 85 b9 eb ff ff 00 	movb   $0x0,-0x1447(%rbp)
   10f49:	48 8d 05 e0 90 00 00 	lea    0x90e0(%rip),%rax        # 1a030 <g_6>
   10f50:	48 89 85 50 ec ff ff 	mov    %rax,-0x13b0(%rbp)
   10f57:	48 8d 05 62 92 00 00 	lea    0x9262(%rip),%rax        # 1a1c0 <g_623>
   10f5e:	48 89 85 d0 ec ff ff 	mov    %rax,-0x1330(%rbp)
   10f65:	48 8d 05 fa 90 00 00 	lea    0x90fa(%rip),%rax        # 1a066 <g_107>
   10f6c:	48 89 85 d8 ec ff ff 	mov    %rax,-0x1328(%rbp)
   10f73:	c7 85 1c ec ff ff a7 	movl   $0xb59e00a7,-0x13e4(%rbp)
   10f7a:	00 9e b5 
   10f7d:	c7 85 20 ec ff ff bc 	movl   $0xef5910bc,-0x13e0(%rbp)
   10f84:	10 59 ef 
   10f87:	c6 85 ba eb ff ff 06 	movb   $0x6,-0x1446(%rbp)
   10f8e:	66 c7 85 c0 eb ff ff 	movw   $0xffff,-0x1440(%rbp)
   10f95:	ff ff 
   10f97:	c6 85 bb eb ff ff 82 	movb   $0x82,-0x1445(%rbp)
   10f9e:	48 8d 05 eb 90 00 00 	lea    0x90eb(%rip),%rax        # 1a090 <g_139>
   10fa5:	48 89 85 e0 ec ff ff 	mov    %rax,-0x1320(%rbp)
   10fac:	48 8d 05 89 90 00 00 	lea    0x9089(%rip),%rax        # 1a03c <g_56>
   10fb3:	48 89 85 e8 ec ff ff 	mov    %rax,-0x1318(%rbp)
   10fba:	c7 85 fc eb ff ff 00 	movl   $0x0,-0x1404(%rbp)
   10fc1:	00 00 00 
   10fc4:	eb 1b                	jmp    10fe1 <func_45+0x1ed2>
   10fc6:	8b 85 fc eb ff ff    	mov    -0x1404(%rbp),%eax
   10fcc:	48 98                	cltq   
   10fce:	48 c7 84 c5 f0 f0 ff 	movq   $0x0,-0xf10(%rbp,%rax,8)
   10fd5:	ff 00 00 00 00 
   10fda:	83 85 fc eb ff ff 01 	addl   $0x1,-0x1404(%rbp)
   10fe1:	83 bd fc eb ff ff 01 	cmpl   $0x1,-0x1404(%rbp)
   10fe8:	7e dc                	jle    10fc6 <func_45+0x1eb7>
   10fea:	8b 9d 14 ec ff ff    	mov    -0x13ec(%rbp),%ebx
   10ff0:	48 8b 85 c8 ec ff ff 	mov    -0x1338(%rbp),%rax
   10ff7:	41 89 c6             	mov    %eax,%r14d
   10ffa:	8b 85 08 ec ff ff    	mov    -0x13f8(%rbp),%eax
   11000:	44 0f be e0          	movsbl %al,%r12d
   11004:	48 8b 85 c8 ec ff ff 	mov    -0x1338(%rbp),%rax
   1100b:	44 0f bf e8          	movswl %ax,%r13d
   1100f:	b8 dc 17 00 00       	mov    $0x17dc,%eax
   11014:	0f b7 d0             	movzwl %ax,%edx
   11017:	48 8b 05 e2 91 00 00 	mov    0x91e2(%rip),%rax        # 1a200 <g_1074+0x8>
   1101e:	48 c7 85 88 ec ff ff 	movq   $0x0,-0x1378(%rbp)
   11025:	00 00 00 00 
   11029:	48 8d 05 70 90 00 00 	lea    0x9070(%rip),%rax        # 1a0a0 <g_183>
   11030:	48 39 85 88 ec ff ff 	cmp    %rax,-0x1378(%rbp)
   11037:	0f 94 c0             	sete   %al
   1103a:	0f b6 c8             	movzbl %al,%ecx
   1103d:	48 8b 85 e0 ec ff ff 	mov    -0x1320(%rbp),%rax
   11044:	48 8b 00             	mov    (%rax),%rax
   11047:	48 8d 70 01          	lea    0x1(%rax),%rsi
   1104b:	48 8b 85 e0 ec ff ff 	mov    -0x1320(%rbp),%rax
   11052:	48 89 30             	mov    %rsi,(%rax)
   11055:	48 8b 85 e0 ec ff ff 	mov    -0x1320(%rbp),%rax
   1105c:	48 8b 00             	mov    (%rax),%rax
   1105f:	09 c8                	or     %ecx,%eax
   11061:	0f b7 c0             	movzwl %ax,%eax
   11064:	89 d6                	mov    %edx,%esi
   11066:	89 c7                	mov    %eax,%edi
   11068:	e8 d0 7c ff ff       	callq  8d3d <safe_mul_func_uint16_t_u_u>
   1106d:	0f b7 d0             	movzwl %ax,%edx
   11070:	48 8b 85 90 eb ff ff 	mov    -0x1470(%rbp),%rax
   11077:	8b 00                	mov    (%rax),%eax
   11079:	39 c2                	cmp    %eax,%edx
   1107b:	0f 9e c0             	setle  %al
   1107e:	0f b6 c0             	movzbl %al,%eax
   11081:	44 89 ee             	mov    %r13d,%esi
   11084:	89 c7                	mov    %eax,%edi
   11086:	e8 8b 73 ff ff       	callq  8416 <safe_mod_func_int16_t_s_s>
   1108b:	89 c2                	mov    %eax,%edx
   1108d:	48 8b 05 bc b8 00 00 	mov    0xb8bc(%rip),%rax        # 1c950 <g_372>
   11094:	0f bf d2             	movswl %dx,%edx
   11097:	89 10                	mov    %edx,(%rax)
   11099:	44 89 e6             	mov    %r12d,%esi
   1109c:	bf 00 00 00 00       	mov    $0x0,%edi
   110a1:	e8 4c 71 ff ff       	callq  81f2 <safe_sub_func_int8_t_s_s>
   110a6:	0f b6 c0             	movzbl %al,%eax
   110a9:	be e5 00 00 00       	mov    $0xe5,%esi
   110ae:	89 c7                	mov    %eax,%edi
   110b0:	e8 f9 7a ff ff       	callq  8bae <safe_mod_func_uint8_t_u_u>
   110b5:	0f b6 c0             	movzbl %al,%eax
   110b8:	39 85 08 ec ff ff    	cmp    %eax,-0x13f8(%rbp)
   110be:	0f 9e c0             	setle  %al
   110c1:	0f b6 c0             	movzbl %al,%eax
   110c4:	44 89 f6             	mov    %r14d,%esi
   110c7:	89 c7                	mov    %eax,%edi
   110c9:	e8 f0 7b ff ff       	callq  8cbe <safe_rshift_func_uint8_t_u_u>
   110ce:	0f b6 c0             	movzbl %al,%eax
   110d1:	39 85 08 ec ff ff    	cmp    %eax,-0x13f8(%rbp)
   110d7:	0f 9c c0             	setl   %al
   110da:	89 c2                	mov    %eax,%edx
   110dc:	0f b6 85 b8 eb ff ff 	movzbl -0x1448(%rbp),%eax
   110e3:	31 d0                	xor    %edx,%eax
   110e5:	0f b6 c0             	movzbl %al,%eax
   110e8:	89 de                	mov    %ebx,%esi
   110ea:	89 c7                	mov    %eax,%edi
   110ec:	e8 5b 7b ff ff       	callq  8c4c <safe_lshift_func_uint8_t_u_u>
   110f1:	89 c2                	mov    %eax,%edx
   110f3:	48 8b 05 16 bb 00 00 	mov    0xbb16(%rip),%rax        # 1cc10 <g_1182>
   110fa:	0f b6 d2             	movzbl %dl,%edx
   110fd:	89 10                	mov    %edx,(%rax)
   110ff:	83 ad f4 eb ff ff 01 	subl   $0x1,-0x140c(%rbp)
   11106:	8b 05 c0 8f 00 00    	mov    0x8fc0(%rip),%eax        # 1a0cc <g_355+0x4>
   1110c:	25 ff ff ff 7f       	and    $0x7fffffff,%eax
   11111:	89 c2                	mov    %eax,%edx
   11113:	48 8b 85 d0 ec ff ff 	mov    -0x1330(%rbp),%rax
   1111a:	88 10                	mov    %dl,(%rax)
   1111c:	48 8b 85 b8 f4 ff ff 	mov    -0xb48(%rbp),%rax
   11123:	48 39 85 a8 ec ff ff 	cmp    %rax,-0x1358(%rbp)
   1112a:	8b 85 08 ec ff ff    	mov    -0x13f8(%rbp),%eax
   11130:	0f bf d8             	movswl %ax,%ebx
   11133:	48 8b 85 b0 ec ff ff 	mov    -0x1350(%rbp),%rax
   1113a:	8b 00                	mov    (%rax),%eax
   1113c:	44 0f bf e0          	movswl %ax,%r12d
   11140:	48 8b 85 b8 ec ff ff 	mov    -0x1348(%rbp),%rax
   11147:	0f b6 d0             	movzbl %al,%edx
   1114a:	83 bd 08 ec ff ff 17 	cmpl   $0x17,-0x13f8(%rbp)
   11151:	0f 9e c0             	setle  %al
   11154:	0f b6 c0             	movzbl %al,%eax
   11157:	89 d6                	mov    %edx,%esi
   11159:	89 c7                	mov    %eax,%edi
   1115b:	e8 4e 7a ff ff       	callq  8bae <safe_mod_func_uint8_t_u_u>
   11160:	0f b6 c0             	movzbl %al,%eax
   11163:	89 c7                	mov    %eax,%edi
   11165:	e8 3c 7d ff ff       	callq  8ea6 <safe_unary_minus_func_uint32_t_u>
   1116a:	48 8b 95 90 eb ff ff 	mov    -0x1470(%rbp),%rdx
   11171:	8b 12                	mov    (%rdx),%edx
   11173:	39 d0                	cmp    %edx,%eax
   11175:	0f 97 c0             	seta   %al
   11178:	0f b6 d0             	movzbl %al,%edx
   1117b:	8b 85 a4 ed ff ff    	mov    -0x125c(%rbp),%eax
   11181:	39 c2                	cmp    %eax,%edx
   11183:	0f 9e c0             	setle  %al
   11186:	0f b6 c0             	movzbl %al,%eax
   11189:	44 89 e6             	mov    %r12d,%esi
   1118c:	89 c7                	mov    %eax,%edi
   1118e:	e8 40 72 ff ff       	callq  83d3 <safe_sub_func_int16_t_s_s>
   11193:	0f b6 95 b8 eb ff ff 	movzbl -0x1448(%rbp),%edx
   1119a:	31 d0                	xor    %edx,%eax
   1119c:	98                   	cwtl   
   1119d:	89 de                	mov    %ebx,%esi
   1119f:	89 c7                	mov    %eax,%edi
   111a1:	e8 2d 72 ff ff       	callq  83d3 <safe_sub_func_int16_t_s_s>
   111a6:	48 8b 85 50 ec ff ff 	mov    -0x13b0(%rbp),%rax
   111ad:	8b 10                	mov    (%rax),%edx
   111af:	48 8b 05 b2 b8 00 00 	mov    0xb8b2(%rip),%rax        # 1ca68 <g_802>
   111b6:	48 8b 00             	mov    (%rax),%rax
   111b9:	8b 00                	mov    (%rax),%eax
   111bb:	83 f8 02             	cmp    $0x2,%eax
   111be:	0f 94 c0             	sete   %al
   111c1:	0f b6 c8             	movzbl %al,%ecx
   111c4:	0f be 85 b7 eb ff ff 	movsbl -0x1449(%rbp),%eax
   111cb:	39 c1                	cmp    %eax,%ecx
   111cd:	0f 9d c0             	setge  %al
   111d0:	0f b6 c0             	movzbl %al,%eax
   111d3:	b9 00 00 00 00       	mov    $0x0,%ecx
   111d8:	39 c8                	cmp    %ecx,%eax
   111da:	0f 96 c0             	setbe  %al
   111dd:	0f b6 c0             	movzbl %al,%eax
   111e0:	39 c2                	cmp    %eax,%edx
   111e2:	0f 9f c2             	setg   %dl
   111e5:	48 8b 05 4c b8 00 00 	mov    0xb84c(%rip),%rax        # 1ca38 <g_649>
   111ec:	88 10                	mov    %dl,(%rax)
   111ee:	83 bd 08 ec ff ff 00 	cmpl   $0x0,-0x13f8(%rbp)
   111f5:	48 8b 85 50 ec ff ff 	mov    -0x13b0(%rbp),%rax
   111fc:	8b 00                	mov    (%rax),%eax
   111fe:	3d fe af 00 00       	cmp    $0xaffe,%eax
   11203:	0f 9f c0             	setg   %al
   11206:	0f b6 d0             	movzbl %al,%edx
   11209:	48 8b 85 d8 ec ff ff 	mov    -0x1328(%rbp),%rax
   11210:	66 89 10             	mov    %dx,(%rax)
   11213:	66 83 bd be eb ff ff 	cmpw   $0x0,-0x1442(%rbp)
   1121a:	00 
   1121b:	0f 84 ad 00 00 00    	je     112ce <func_45+0x21bf>
   11221:	48 8d 85 30 ec ff ff 	lea    -0x13d0(%rbp),%rax
   11228:	48 89 85 00 ed ff ff 	mov    %rax,-0x1300(%rbp)
   1122f:	c7 85 24 ec ff ff 8a 	movl   $0x6577ae8a,-0x13dc(%rbp)
   11236:	ae 77 65 
   11239:	8b 85 f8 eb ff ff    	mov    -0x1408(%rbp),%eax
   1123f:	48 63 d0             	movslq %eax,%rdx
   11242:	8b 85 24 ec ff ff    	mov    -0x13dc(%rbp),%eax
   11248:	48 98                	cltq   
   1124a:	48 89 d6             	mov    %rdx,%rsi
   1124d:	48 89 c7             	mov    %rax,%rdi
   11250:	e8 d9 7d ff ff       	callq  902e <safe_add_func_uint64_t_u_u>
   11255:	48 8b 85 b0 ec ff ff 	mov    -0x1350(%rbp),%rax
   1125c:	8b 10                	mov    (%rax),%edx
   1125e:	48 8b 05 d3 b7 00 00 	mov    0xb7d3(%rip),%rax        # 1ca38 <g_649>
   11265:	88 10                	mov    %dl,(%rax)
   11267:	be 7f 3d 00 00       	mov    $0x3d7f,%esi
   1126c:	bf 5f 4c 00 00       	mov    $0x4c5f,%edi
   11271:	e8 3d 71 ff ff       	callq  83b3 <safe_add_func_int16_t_s_s>
   11276:	48 8b 85 00 ed ff ff 	mov    -0x1300(%rbp),%rax
   1127d:	48 8b 10             	mov    (%rax),%rdx
   11280:	48 8b 85 50 ec ff ff 	mov    -0x13b0(%rbp),%rax
   11287:	8b 00                	mov    (%rax),%eax
   11289:	48 98                	cltq   
   1128b:	48 21 c2             	and    %rax,%rdx
   1128e:	48 8b 85 00 ed ff ff 	mov    -0x1300(%rbp),%rax
   11295:	48 89 10             	mov    %rdx,(%rax)
   11298:	48 8b 85 00 ed ff ff 	mov    -0x1300(%rbp),%rax
   1129f:	48 8b 00             	mov    (%rax),%rax
   112a2:	0f b6 95 b8 eb ff ff 	movzbl -0x1448(%rbp),%edx
   112a9:	83 e2 01             	and    $0x1,%edx
   112ac:	48 39 d0             	cmp    %rdx,%rax
   112af:	0f 94 c0             	sete   %al
   112b2:	0f b6 c8             	movzbl %al,%ecx
   112b5:	48 8b 05 94 b6 00 00 	mov    0xb694(%rip),%rax        # 1c950 <g_372>
   112bc:	8b 10                	mov    (%rax),%edx
   112be:	48 8b 05 8b b6 00 00 	mov    0xb68b(%rip),%rax        # 1c950 <g_372>
   112c5:	21 ca                	and    %ecx,%edx
   112c7:	89 10                	mov    %edx,(%rax)
   112c9:	e9 6c 02 00 00       	jmpq   1153a <func_45+0x242b>
   112ce:	48 c7 85 f0 ec ff ff 	movq   $0x0,-0x1310(%rbp)
   112d5:	00 00 00 00 
   112d9:	48 c7 85 f8 ec ff ff 	movq   $0x0,-0x1308(%rbp)
   112e0:	00 00 00 00 
   112e4:	c7 85 00 ec ff ff 00 	movl   $0x0,-0x1400(%rbp)
   112eb:	00 00 00 
   112ee:	eb 1a                	jmp    1130a <func_45+0x21fb>
   112f0:	8b 85 00 ec ff ff    	mov    -0x1400(%rbp),%eax
   112f6:	48 98                	cltq   
   112f8:	c7 84 85 f0 f0 ff ff 	movl   $0xa143a981,-0xf10(%rbp,%rax,4)
   112ff:	81 a9 43 a1 
   11303:	83 85 00 ec ff ff 01 	addl   $0x1,-0x1400(%rbp)
   1130a:	83 bd 00 ec ff ff 09 	cmpl   $0x9,-0x1400(%rbp)
   11311:	7e dd                	jle    112f0 <func_45+0x21e1>
   11313:	c7 85 00 ec ff ff 00 	movl   $0x0,-0x1400(%rbp)
   1131a:	00 00 00 
   1131d:	eb 1e                	jmp    1133d <func_45+0x222e>
   1131f:	8b 85 00 ec ff ff    	mov    -0x1400(%rbp),%eax
   11325:	48 98                	cltq   
   11327:	48 8d 95 c8 eb ff ff 	lea    -0x1438(%rbp),%rdx
   1132e:	48 89 94 c5 d0 ef ff 	mov    %rdx,-0x1030(%rbp,%rax,8)
   11335:	ff 
   11336:	83 85 00 ec ff ff 01 	addl   $0x1,-0x1400(%rbp)
   1133d:	83 bd 00 ec ff ff 02 	cmpl   $0x2,-0x1400(%rbp)
   11344:	7e d9                	jle    1131f <func_45+0x2210>
   11346:	80 85 ba eb ff ff 01 	addb   $0x1,-0x1446(%rbp)
   1134d:	0f b7 9d c0 eb ff ff 	movzwl -0x1440(%rbp),%ebx
   11354:	48 8b 05 dd b5 00 00 	mov    0xb5dd(%rip),%rax        # 1c938 <g_268>
   1135b:	be fe ff 00 00       	mov    $0xfffe,%esi
   11360:	bf fe ff 00 00       	mov    $0xfffe,%edi
   11365:	e8 95 79 ff ff       	callq  8cff <safe_add_func_uint16_t_u_u>
   1136a:	44 0f b7 e0          	movzwl %ax,%r12d
   1136e:	8b 85 0c ec ff ff    	mov    -0x13f4(%rbp),%eax
   11374:	98                   	cwtl   
   11375:	be 01 00 00 00       	mov    $0x1,%esi
   1137a:	89 c7                	mov    %eax,%edi
   1137c:	e8 e2 71 ff ff       	callq  8563 <safe_rshift_func_int16_t_s_u>
   11381:	66 83 f8 01          	cmp    $0x1,%ax
   11385:	0f 95 c0             	setne  %al
   11388:	0f b6 c0             	movzbl %al,%eax
   1138b:	44 09 e0             	or     %r12d,%eax
   1138e:	85 c0                	test   %eax,%eax
   11390:	75 0d                	jne    1139f <func_45+0x2290>
   11392:	48 8b 85 b0 ec ff ff 	mov    -0x1350(%rbp),%rax
   11399:	8b 00                	mov    (%rax),%eax
   1139b:	85 c0                	test   %eax,%eax
   1139d:	74 07                	je     113a6 <func_45+0x2297>
   1139f:	ba 01 00 00 00       	mov    $0x1,%edx
   113a4:	eb 05                	jmp    113ab <func_45+0x229c>
   113a6:	ba 00 00 00 00       	mov    $0x0,%edx
   113ab:	48 8b 85 90 eb ff ff 	mov    -0x1470(%rbp),%rax
   113b2:	8b 00                	mov    (%rax),%eax
   113b4:	39 c2                	cmp    %eax,%edx
   113b6:	0f 94 c0             	sete   %al
   113b9:	0f b6 c0             	movzbl %al,%eax
   113bc:	89 de                	mov    %ebx,%esi
   113be:	89 c7                	mov    %eax,%edi
   113c0:	e8 f3 7a ff ff       	callq  8eb8 <safe_add_func_uint32_t_u_u>
   113c5:	48 c7 05 60 99 00 00 	movq   $0x0,0x9960(%rip)        # 1ad30 <g_1240>
   113cc:	00 00 00 00 
   113d0:	44 8b ad a8 ed ff ff 	mov    -0x1258(%rbp),%r13d
   113d7:	8b 05 57 8c 00 00    	mov    0x8c57(%rip),%eax        # 1a034 <g_10>
   113dd:	0f b7 d8             	movzwl %ax,%ebx
   113e0:	44 0f be a5 bb eb ff 	movsbl -0x1445(%rbp),%r12d
   113e7:	ff 
   113e8:	48 8b 85 b0 ec ff ff 	mov    -0x1350(%rbp),%rax
   113ef:	8b 00                	mov    (%rax),%eax
   113f1:	89 c6                	mov    %eax,%esi
   113f3:	bf 01 00 00 00       	mov    $0x1,%edi
   113f8:	e8 c1 78 ff ff       	callq  8cbe <safe_rshift_func_uint8_t_u_u>
   113fd:	0f b6 c0             	movzbl %al,%eax
   11400:	89 85 f8 eb ff ff    	mov    %eax,-0x1408(%rbp)
   11406:	48 8b 85 b0 ec ff ff 	mov    -0x1350(%rbp),%rax
   1140d:	8b 00                	mov    (%rax),%eax
   1140f:	85 c0                	test   %eax,%eax
   11411:	74 07                	je     1141a <func_45+0x230b>
   11413:	b8 01 00 00 00       	mov    $0x1,%eax
   11418:	eb 05                	jmp    1141f <func_45+0x2310>
   1141a:	b8 00 00 00 00       	mov    $0x0,%eax
   1141f:	44 89 e6             	mov    %r12d,%esi
   11422:	89 c7                	mov    %eax,%edi
   11424:	e8 d4 7a ff ff       	callq  8efd <safe_mod_func_uint32_t_u_u>
   11429:	0f b7 c0             	movzwl %ax,%eax
   1142c:	89 de                	mov    %ebx,%esi
   1142e:	89 c7                	mov    %eax,%edi
   11430:	e8 ea 78 ff ff       	callq  8d1f <safe_sub_func_uint16_t_u_u>
   11435:	0f b7 d0             	movzwl %ax,%edx
   11438:	8b 05 62 8c 00 00    	mov    0x8c62(%rip),%eax        # 1a0a0 <g_183>
   1143e:	39 c2                	cmp    %eax,%edx
   11440:	75 0c                	jne    1144e <func_45+0x233f>
   11442:	0f b7 85 98 ed ff ff 	movzwl -0x1268(%rbp),%eax
   11449:	66 85 c0             	test   %ax,%ax
   1144c:	74 07                	je     11455 <func_45+0x2346>
   1144e:	ba 01 00 00 00       	mov    $0x1,%edx
   11453:	eb 05                	jmp    1145a <func_45+0x234b>
   11455:	ba 00 00 00 00       	mov    $0x0,%edx
   1145a:	0f b7 85 be eb ff ff 	movzwl -0x1442(%rbp),%eax
   11461:	39 c2                	cmp    %eax,%edx
   11463:	0f 9d c0             	setge  %al
   11466:	0f b6 c0             	movzbl %al,%eax
   11469:	41 39 c5             	cmp    %eax,%r13d
   1146c:	0f 97 c0             	seta   %al
   1146f:	0f b6 d0             	movzbl %al,%edx
   11472:	48 8b 85 98 ec ff ff 	mov    -0x1368(%rbp),%rax
   11479:	48 89 10             	mov    %rdx,(%rax)
   1147c:	48 8b 85 98 ec ff ff 	mov    -0x1368(%rbp),%rax
   11483:	48 8b 10             	mov    (%rax),%rdx
   11486:	0f b6 05 fb 8b 00 00 	movzbl 0x8bfb(%rip),%eax        # 1a088 <g_117+0x8>
   1148d:	c1 e0 02             	shl    $0x2,%eax
   11490:	c0 f8 02             	sar    $0x2,%al
   11493:	48 0f be c0          	movsbq %al,%rax
   11497:	48 09 c2             	or     %rax,%rdx
   1149a:	48 8b 85 d0 ec ff ff 	mov    -0x1330(%rbp),%rax
   114a1:	0f b6 00             	movzbl (%rax),%eax
   114a4:	89 c1                	mov    %eax,%ecx
   114a6:	89 d0                	mov    %edx,%eax
   114a8:	09 c8                	or     %ecx,%eax
   114aa:	89 c2                	mov    %eax,%edx
   114ac:	48 8b 85 d0 ec ff ff 	mov    -0x1330(%rbp),%rax
   114b3:	88 10                	mov    %dl,(%rax)
   114b5:	48 8b 85 d0 ec ff ff 	mov    -0x1330(%rbp),%rax
   114bc:	0f b6 00             	movzbl (%rax),%eax
   114bf:	0f be d0             	movsbl %al,%edx
   114c2:	48 8b 85 b0 ec ff ff 	mov    -0x1350(%rbp),%rax
   114c9:	8b 00                	mov    (%rax),%eax
   114cb:	0f be c0             	movsbl %al,%eax
   114ce:	89 d6                	mov    %edx,%esi
   114d0:	89 c7                	mov    %eax,%edi
   114d2:	e8 3b 6d ff ff       	callq  8212 <safe_mul_func_int8_t_s_s>
   114d7:	48 0f be c0          	movsbq %al,%rax
   114db:	48 35 3a 76 00 00    	xor    $0x763a,%rax
   114e1:	48 89 c6             	mov    %rax,%rsi
   114e4:	48 bf 26 e9 b6 b6 06 	movabs $0xf180a006b6b6e926,%rdi
   114eb:	a0 80 f1 
   114ee:	e8 04 75 ff ff       	callq  89f7 <safe_div_func_int64_t_s_s>
   114f3:	48 8b 95 b0 ec ff ff 	mov    -0x1350(%rbp),%rdx
   114fa:	8b 12                	mov    (%rdx),%edx
   114fc:	48 63 d2             	movslq %edx,%rdx
   114ff:	48 39 d0             	cmp    %rdx,%rax
   11502:	0f 9e c2             	setle  %dl
   11505:	48 8b 05 44 b4 00 00 	mov    0xb444(%rip),%rax        # 1c950 <g_372>
   1150c:	0f b6 d2             	movzbl %dl,%edx
   1150f:	89 10                	mov    %edx,(%rax)
   11511:	48 83 bd c0 ec ff ff 	cmpq   $0x0,-0x1340(%rbp)
   11518:	00 
   11519:	0f 95 c2             	setne  %dl
   1151c:	48 83 bd 60 ec ff ff 	cmpq   $0x0,-0x13a0(%rbp)
   11523:	00 
   11524:	0f 95 c0             	setne  %al
   11527:	31 d0                	xor    %edx,%eax
   11529:	0f b6 d0             	movzbl %al,%edx
   1152c:	8b 85 48 ec ff ff    	mov    -0x13b8(%rbp),%eax
   11532:	21 d0                	and    %edx,%eax
   11534:	89 85 48 ec ff ff    	mov    %eax,-0x13b8(%rbp)
   1153a:	0f b7 85 bc eb ff ff 	movzwl -0x1444(%rbp),%eax
   11541:	0f b7 c0             	movzwl %ax,%eax
   11544:	be 03 00 00 00       	mov    $0x3,%esi
   11549:	48 89 c7             	mov    %rax,%rdi
   1154c:	e8 f0 72 ff ff       	callq  8841 <safe_add_func_int64_t_s_s>
   11551:	66 89 85 bc eb ff ff 	mov    %ax,-0x1444(%rbp)
   11558:	0f b7 85 bc eb ff ff 	movzwl -0x1444(%rbp),%eax
   1155f:	66 83 f8 02          	cmp    $0x2,%ax
   11563:	0f 86 cf f9 ff ff    	jbe    10f38 <func_45+0x1e29>
   11569:	eb 1d                	jmp    11588 <func_45+0x2479>
   1156b:	48 8b 05 de b4 00 00 	mov    0xb4de(%rip),%rax        # 1ca50 <g_699>
   11572:	8b 10                	mov    (%rax),%edx
   11574:	48 8b 85 b0 ec ff ff 	mov    -0x1350(%rbp),%rax
   1157b:	8b 00                	mov    (%rax),%eax
   1157d:	31 c2                	xor    %eax,%edx
   1157f:	48 8b 85 b0 ec ff ff 	mov    -0x1350(%rbp),%rax
   11586:	89 10                	mov    %edx,(%rax)
   11588:	66 0f be 85 b7 eb ff 	movsbw -0x1449(%rbp),%ax
   1158f:	ff 
   11590:	0f b7 c0             	movzwl %ax,%eax
   11593:	be 02 00 00 00       	mov    $0x2,%esi
   11598:	89 c7                	mov    %eax,%edi
   1159a:	e8 60 77 ff ff       	callq  8cff <safe_add_func_uint16_t_u_u>
   1159f:	88 85 b7 eb ff ff    	mov    %al,-0x1449(%rbp)
   115a5:	80 bd b7 eb ff ff 06 	cmpb   $0x6,-0x1449(%rbp)
   115ac:	0f 8e 11 f8 ff ff    	jle    10dc3 <func_45+0x1cb4>
   115b2:	48 8b 85 70 ec ff ff 	mov    -0x1390(%rbp),%rax
   115b9:	8b 00                	mov    (%rax),%eax
   115bb:	89 c2                	mov    %eax,%edx
   115bd:	48 8b 05 6c 97 00 00 	mov    0x976c(%rip),%rax        # 1ad30 <g_1240>
   115c4:	31 d0                	xor    %edx,%eax
   115c6:	89 c2                	mov    %eax,%edx
   115c8:	48 8b 85 70 ec ff ff 	mov    -0x1390(%rbp),%rax
   115cf:	89 10                	mov    %edx,(%rax)
   115d1:	48 8b 85 70 ec ff ff 	mov    -0x1390(%rbp),%rax
   115d8:	8b 00                	mov    (%rax),%eax
   115da:	be 1a b1 c6 47       	mov    $0x47c6b11a,%esi
   115df:	89 c7                	mov    %eax,%edi
   115e1:	e8 17 79 ff ff       	callq  8efd <safe_mod_func_uint32_t_u_u>
   115e6:	0f b7 d0             	movzwl %ax,%edx
   115e9:	8b 05 3d 8a 00 00    	mov    0x8a3d(%rip),%eax        # 1a02c <g_3+0x4>
   115ef:	0f b7 c0             	movzwl %ax,%eax
   115f2:	89 d6                	mov    %edx,%esi
   115f4:	89 c7                	mov    %eax,%edi
   115f6:	e8 61 77 ff ff       	callq  8d5c <safe_mod_func_uint16_t_u_u>
   115fb:	89 c2                	mov    %eax,%edx
   115fd:	48 8b 05 54 b3 00 00 	mov    0xb354(%rip),%rax        # 1c958 <g_371>
   11604:	48 8b 00             	mov    (%rax),%rax
   11607:	8b 08                	mov    (%rax),%ecx
   11609:	0f b7 d2             	movzwl %dx,%edx
   1160c:	09 ca                	or     %ecx,%edx
   1160e:	89 10                	mov    %edx,(%rax)
   11610:	48 8b 85 78 ec ff ff 	mov    -0x1388(%rbp),%rax
   11617:	48 8b 5d d8          	mov    -0x28(%rbp),%rbx
   1161b:	64 48 33 1c 25 28 00 	xor    %fs:0x28,%rbx
   11622:	00 00 
   11624:	74 05                	je     1162b <func_45+0x251c>
   11626:	e8 45 6a ff ff       	callq  8070 <__stack_chk_fail@plt>
   1162b:	48 81 c4 50 14 00 00 	add    $0x1450,%rsp
   11632:	5b                   	pop    %rbx
   11633:	41 5c                	pop    %r12
   11635:	41 5d                	pop    %r13
   11637:	41 5e                	pop    %r14
   11639:	5d                   	pop    %rbp
   1163a:	c3                   	retq   

000000000001163b <func_50>:
   1163b:	f3 0f 1e fa          	endbr64 
   1163f:	55                   	push   %rbp
   11640:	48 89 e5             	mov    %rsp,%rbp
   11643:	41 56                	push   %r14
   11645:	41 55                	push   %r13
   11647:	41 54                	push   %r12
   11649:	53                   	push   %rbx
   1164a:	48 81 ec a0 0a 00 00 	sub    $0xaa0,%rsp
   11651:	89 bd 4c f5 ff ff    	mov    %edi,-0xab4(%rbp)
   11657:	64 48 8b 04 25 28 00 	mov    %fs:0x28,%rax
   1165e:	00 00 
   11660:	48 89 45 d8          	mov    %rax,-0x28(%rbp)
   11664:	31 c0                	xor    %eax,%eax
   11666:	c7 85 7c f5 ff ff 20 	movl   $0x229b020,-0xa84(%rbp)
   1166d:	b0 29 02 
   11670:	c7 85 80 f5 ff ff 02 	movl   $0x2,-0xa80(%rbp)
   11677:	00 00 00 
   1167a:	c7 85 84 f5 ff ff 01 	movl   $0x1,-0xa7c(%rbp)
   11681:	00 00 00 
   11684:	c7 85 88 f5 ff ff 42 	movl   $0x966ab142,-0xa78(%rbp)
   1168b:	b1 6a 96 
   1168e:	48 8d 05 03 8a 00 00 	lea    0x8a03(%rip),%rax        # 1a098 <g_147>
   11695:	48 89 85 e8 f5 ff ff 	mov    %rax,-0xa18(%rbp)
   1169c:	48 8d 85 70 f8 ff ff 	lea    -0x790(%rbp),%rax
   116a3:	48 8d 15 36 4b 00 00 	lea    0x4b36(%rip),%rdx        # 161e0 <g_2427+0x1170>
   116aa:	b9 28 00 00 00       	mov    $0x28,%ecx
   116af:	48 89 c7             	mov    %rax,%rdi
   116b2:	48 89 d6             	mov    %rdx,%rsi
   116b5:	f3 48 a5             	rep movsq %ds:(%rsi),%es:(%rdi)
   116b8:	c6 85 53 f5 ff ff 01 	movb   $0x1,-0xaad(%rbp)
   116bf:	c6 85 54 f5 ff ff 6e 	movb   $0x6e,-0xaac(%rbp)
   116c6:	48 8d 05 6f 89 00 00 	lea    0x896f(%rip),%rax        # 1a03c <g_56>
   116cd:	48 89 85 f0 f5 ff ff 	mov    %rax,-0xa10(%rbp)
   116d4:	c7 85 8c f5 ff ff 02 	movl   $0x2,-0xa74(%rbp)
   116db:	00 00 00 
   116de:	48 c7 85 e0 f7 ff ff 	movq   $0x1,-0x820(%rbp)
   116e5:	01 00 00 00 
   116e9:	48 b8 18 a6 7e a9 7b 	movabs $0x117d47ba97ea618,%rax
   116f0:	d4 17 01 
   116f3:	48 89 85 e8 f7 ff ff 	mov    %rax,-0x818(%rbp)
   116fa:	48 89 85 f0 f7 ff ff 	mov    %rax,-0x810(%rbp)
   11701:	48 c7 85 f8 f7 ff ff 	movq   $0x1,-0x808(%rbp)
   11708:	01 00 00 00 
   1170c:	48 c7 85 00 f8 ff ff 	movq   $0xffffffffffffffff,-0x800(%rbp)
   11713:	ff ff ff ff 
   11717:	48 c7 85 08 f8 ff ff 	movq   $0x6,-0x7f8(%rbp)
   1171e:	06 00 00 00 
   11722:	48 bb 6e 1f 67 e3 51 	movabs $0xedd76851e3671f6e,%rbx
   11729:	68 d7 ed 
   1172c:	48 89 9d 10 f8 ff ff 	mov    %rbx,-0x7f0(%rbp)
   11733:	48 89 85 18 f8 ff ff 	mov    %rax,-0x7e8(%rbp)
   1173a:	48 c7 85 20 f8 ff ff 	movq   $0xffffffffffffffff,-0x7e0(%rbp)
   11741:	ff ff ff ff 
   11745:	48 89 9d 28 f8 ff ff 	mov    %rbx,-0x7d8(%rbp)
   1174c:	48 c7 85 30 f8 ff ff 	movq   $0xffffffffffffffff,-0x7d0(%rbp)
   11753:	ff ff ff ff 
   11757:	48 89 85 38 f8 ff ff 	mov    %rax,-0x7c8(%rbp)
   1175e:	48 bb 09 e9 cc 2a ca 	movabs $0x49d6e1ca2acce909,%rbx
   11765:	e1 d6 49 
   11768:	48 89 9d 40 f8 ff ff 	mov    %rbx,-0x7c0(%rbp)
   1176f:	48 89 85 48 f8 ff ff 	mov    %rax,-0x7b8(%rbp)
   11776:	48 c7 85 50 f8 ff ff 	movq   $0x6,-0x7b0(%rbp)
   1177d:	06 00 00 00 
   11781:	48 89 9d 58 f8 ff ff 	mov    %rbx,-0x7a8(%rbp)
   11788:	48 c7 85 60 f8 ff ff 	movq   $0xffffffffffffffff,-0x7a0(%rbp)
   1178f:	ff ff ff ff 
   11793:	48 c7 85 68 f8 ff ff 	movq   $0xffffffffffffffff,-0x798(%rbp)
   1179a:	ff ff ff ff 
   1179e:	66 c7 85 56 f5 ff ff 	movw   $0x83f,-0xaaa(%rbp)
   117a5:	3f 08 
   117a7:	48 8d 05 ba 88 00 00 	lea    0x88ba(%rip),%rax        # 1a068 <g_109>
   117ae:	48 89 85 b0 f5 ff ff 	mov    %rax,-0xa50(%rbp)
   117b5:	48 8d 85 b0 f5 ff ff 	lea    -0xa50(%rbp),%rax
   117bc:	48 89 85 b8 f5 ff ff 	mov    %rax,-0xa48(%rbp)
   117c3:	48 8d 85 b0 f6 ff ff 	lea    -0x950(%rbp),%rax
   117ca:	48 89 85 c0 f5 ff ff 	mov    %rax,-0xa40(%rbp)
   117d1:	48 8d 85 c0 f5 ff ff 	lea    -0xa40(%rbp),%rax
   117d8:	48 89 85 f8 f5 ff ff 	mov    %rax,-0xa08(%rbp)
   117df:	48 b8 61 ed 23 76 13 	movabs $0x67c220137623ed61,%rax
   117e6:	20 c2 67 
   117e9:	48 89 85 00 f6 ff ff 	mov    %rax,-0xa00(%rbp)
   117f0:	c6 85 55 f5 ff ff c9 	movb   $0xc9,-0xaab(%rbp)
   117f7:	48 c7 85 08 f6 ff ff 	movq   $0x0,-0x9f8(%rbp)
   117fe:	00 00 00 00 
   11802:	c7 85 90 f5 ff ff ff 	movl   $0xffffffff,-0xa70(%rbp)
   11809:	ff ff ff 
   1180c:	48 8d 05 a9 88 00 00 	lea    0x88a9(%rip),%rax        # 1a0bc <g_228>
   11813:	48 89 85 10 f6 ff ff 	mov    %rax,-0x9f0(%rbp)
   1181a:	48 c7 85 18 f6 ff ff 	movq   $0xffffffffffffffff,-0x9e8(%rbp)
   11821:	ff ff ff ff 
   11825:	48 b8 6a 18 4f dc 7b 	movabs $0xe2f5397bdc4f186a,%rax
   1182c:	39 f5 e2 
   1182f:	48 89 85 20 f6 ff ff 	mov    %rax,-0x9e0(%rbp)
   11836:	48 8d 05 03 b1 00 00 	lea    0xb103(%rip),%rax        # 1c940 <g_284>
   1183d:	48 89 85 28 f6 ff ff 	mov    %rax,-0x9d8(%rbp)
   11844:	c7 85 94 f5 ff ff 2a 	movl   $0x4fd0562a,-0xa6c(%rbp)
   1184b:	56 d0 4f 
   1184e:	66 c7 85 60 f7 ff ff 	movw   $0x40ac,-0x8a0(%rbp)
   11855:	ac 40 
   11857:	66 c7 85 62 f7 ff ff 	movw   $0x9949,-0x89e(%rbp)
   1185e:	49 99 
   11860:	66 c7 85 64 f7 ff ff 	movw   $0xe63a,-0x89c(%rbp)
   11867:	3a e6 
   11869:	66 c7 85 66 f7 ff ff 	movw   $0x9949,-0x89a(%rbp)
   11870:	49 99 
   11872:	66 c7 85 68 f7 ff ff 	movw   $0x40ac,-0x898(%rbp)
   11879:	ac 40 
   1187b:	66 c7 85 6a f7 ff ff 	movw   $0x1,-0x896(%rbp)
   11882:	01 00 
   11884:	66 c7 85 6c f7 ff ff 	movw   $0x18e0,-0x894(%rbp)
   1188b:	e0 18 
   1188d:	66 c7 85 6e f7 ff ff 	movw   $0xfffc,-0x892(%rbp)
   11894:	fc ff 
   11896:	66 c7 85 70 f7 ff ff 	movw   $0x18e0,-0x890(%rbp)
   1189d:	e0 18 
   1189f:	66 c7 85 72 f7 ff ff 	movw   $0x1,-0x88e(%rbp)
   118a6:	01 00 
   118a8:	66 c7 85 74 f7 ff ff 	movw   $0x40ac,-0x88c(%rbp)
   118af:	ac 40 
   118b1:	66 c7 85 76 f7 ff ff 	movw   $0x9949,-0x88a(%rbp)
   118b8:	49 99 
   118ba:	66 c7 85 78 f7 ff ff 	movw   $0xe63a,-0x888(%rbp)
   118c1:	3a e6 
   118c3:	66 c7 85 7a f7 ff ff 	movw   $0x9949,-0x886(%rbp)
   118ca:	49 99 
   118cc:	66 c7 85 7c f7 ff ff 	movw   $0x40ac,-0x884(%rbp)
   118d3:	ac 40 
   118d5:	66 c7 85 7e f7 ff ff 	movw   $0x1,-0x882(%rbp)
   118dc:	01 00 
   118de:	66 c7 85 80 f7 ff ff 	movw   $0x18e0,-0x880(%rbp)
   118e5:	e0 18 
   118e7:	66 c7 85 82 f7 ff ff 	movw   $0xfffc,-0x87e(%rbp)
   118ee:	fc ff 
   118f0:	66 c7 85 84 f7 ff ff 	movw   $0x18e0,-0x87c(%rbp)
   118f7:	e0 18 
   118f9:	66 c7 85 86 f7 ff ff 	movw   $0x1,-0x87a(%rbp)
   11900:	01 00 
   11902:	66 c7 85 88 f7 ff ff 	movw   $0x40ac,-0x878(%rbp)
   11909:	ac 40 
   1190b:	66 c7 85 8a f7 ff ff 	movw   $0x9949,-0x876(%rbp)
   11912:	49 99 
   11914:	66 c7 85 8c f7 ff ff 	movw   $0xe63a,-0x874(%rbp)
   1191b:	3a e6 
   1191d:	66 c7 85 8e f7 ff ff 	movw   $0x9949,-0x872(%rbp)
   11924:	49 99 
   11926:	66 c7 85 90 f7 ff ff 	movw   $0x40ac,-0x870(%rbp)
   1192d:	ac 40 
   1192f:	c7 85 64 f5 ff ff 00 	movl   $0x0,-0xa9c(%rbp)
   11936:	00 00 00 
   11939:	eb 1e                	jmp    11959 <func_50+0x31e>
   1193b:	8b 85 64 f5 ff ff    	mov    -0xa9c(%rbp),%eax
   11941:	48 98                	cltq   
   11943:	48 8d 15 66 87 00 00 	lea    0x8766(%rip),%rdx        # 1a0b0 <g_224>
   1194a:	48 89 94 c5 b0 f6 ff 	mov    %rdx,-0x950(%rbp,%rax,8)
   11951:	ff 
   11952:	83 85 64 f5 ff ff 01 	addl   $0x1,-0xa9c(%rbp)
   11959:	83 bd 64 f5 ff ff 02 	cmpl   $0x2,-0xa9c(%rbp)
   11960:	7e d9                	jle    1193b <func_50+0x300>
   11962:	c7 85 64 f5 ff ff 00 	movl   $0x0,-0xa9c(%rbp)
   11969:	00 00 00 
   1196c:	e9 83 00 00 00       	jmpq   119f4 <func_50+0x3b9>
   11971:	c7 85 68 f5 ff ff 00 	movl   $0x0,-0xa98(%rbp)
   11978:	00 00 00 
   1197b:	eb 67                	jmp    119e4 <func_50+0x3a9>
   1197d:	c7 85 6c f5 ff ff 00 	movl   $0x0,-0xa94(%rbp)
   11984:	00 00 00 
   11987:	eb 4b                	jmp    119d4 <func_50+0x399>
   11989:	8b 85 6c f5 ff ff    	mov    -0xa94(%rbp),%eax
   1198f:	48 63 f0             	movslq %eax,%rsi
   11992:	8b 85 64 f5 ff ff    	mov    -0xa9c(%rbp),%eax
   11998:	48 63 d0             	movslq %eax,%rdx
   1199b:	8b 85 68 f5 ff ff    	mov    -0xa98(%rbp),%eax
   119a1:	48 63 c8             	movslq %eax,%rcx
   119a4:	48 89 d0             	mov    %rdx,%rax
   119a7:	48 c1 e0 03          	shl    $0x3,%rax
   119ab:	48 29 d0             	sub    %rdx,%rax
   119ae:	48 01 c0             	add    %rax,%rax
   119b1:	48 89 ca             	mov    %rcx,%rdx
   119b4:	48 c1 e2 03          	shl    $0x3,%rdx
   119b8:	48 29 ca             	sub    %rcx,%rdx
   119bb:	48 01 d0             	add    %rdx,%rax
   119be:	48 01 f0             	add    %rsi,%rax
   119c1:	48 c7 84 c5 20 fb ff 	movq   $0x0,-0x4e0(%rbp,%rax,8)
   119c8:	ff 00 00 00 00 
   119cd:	83 85 6c f5 ff ff 01 	addl   $0x1,-0xa94(%rbp)
   119d4:	83 bd 6c f5 ff ff 06 	cmpl   $0x6,-0xa94(%rbp)
   119db:	7e ac                	jle    11989 <func_50+0x34e>
   119dd:	83 85 68 f5 ff ff 01 	addl   $0x1,-0xa98(%rbp)
   119e4:	83 bd 68 f5 ff ff 01 	cmpl   $0x1,-0xa98(%rbp)
   119eb:	7e 90                	jle    1197d <func_50+0x342>
   119ed:	83 85 64 f5 ff ff 01 	addl   $0x1,-0xa9c(%rbp)
   119f4:	83 bd 64 f5 ff ff 04 	cmpl   $0x4,-0xa9c(%rbp)
   119fb:	0f 8e 70 ff ff ff    	jle    11971 <func_50+0x336>
   11a01:	c7 85 64 f5 ff ff 00 	movl   $0x0,-0xa9c(%rbp)
   11a08:	00 00 00 
   11a0b:	eb 1e                	jmp    11a2b <func_50+0x3f0>
   11a0d:	8b 85 64 f5 ff ff    	mov    -0xa9c(%rbp),%eax
   11a13:	48 98                	cltq   
   11a15:	48 8d 95 b8 f5 ff ff 	lea    -0xa48(%rbp),%rdx
   11a1c:	48 89 94 c5 a0 f6 ff 	mov    %rdx,-0x960(%rbp,%rax,8)
   11a23:	ff 
   11a24:	83 85 64 f5 ff ff 01 	addl   $0x1,-0xa9c(%rbp)
   11a2b:	83 bd 64 f5 ff ff 01 	cmpl   $0x1,-0xa9c(%rbp)
   11a32:	7e d9                	jle    11a0d <func_50+0x3d2>
   11a34:	c7 85 4c f5 ff ff 15 	movl   $0x15,-0xab4(%rbp)
   11a3b:	00 00 00 
   11a3e:	e9 6e 03 00 00       	jmpq   11db1 <func_50+0x776>
   11a43:	48 8d 05 f2 85 00 00 	lea    0x85f2(%rip),%rax        # 1a03c <g_56>
   11a4a:	48 89 85 30 f6 ff ff 	mov    %rax,-0x9d0(%rbp)
   11a51:	c7 85 98 f5 ff ff 00 	movl   $0x0,-0xa68(%rbp)
   11a58:	00 00 00 
   11a5b:	48 8d 85 b0 f9 ff ff 	lea    -0x650(%rbp),%rax
   11a62:	48 8d 15 b7 48 00 00 	lea    0x48b7(%rip),%rdx        # 16320 <g_2427+0x12b0>
   11a69:	b9 2d 00 00 00       	mov    $0x2d,%ecx
   11a6e:	48 89 c7             	mov    %rax,%rdi
   11a71:	48 89 d6             	mov    %rdx,%rsi
   11a74:	f3 48 a5             	rep movsq %ds:(%rsi),%es:(%rdi)
   11a77:	48 c7 85 38 f6 ff ff 	movq   $0x0,-0x9c8(%rbp)
   11a7e:	00 00 00 00 
   11a82:	c7 85 d0 f6 ff ff 00 	movl   $0x12a0100,-0x930(%rbp)
   11a89:	01 2a 01 
   11a8c:	66 c7 85 d4 f6 ff ff 	movw   $0x0,-0x92c(%rbp)
   11a93:	00 00 
   11a95:	c7 85 d6 f6 ff ff 01 	movl   $0x1010101,-0x92a(%rbp)
   11a9c:	01 01 01 
   11a9f:	66 c7 85 da f6 ff ff 	movw   $0x1dd,-0x926(%rbp)
   11aa6:	dd 01 
   11aa8:	c7 85 dc f6 ff ff 01 	movl   $0x101dd01,-0x924(%rbp)
   11aaf:	dd 01 01 
   11ab2:	66 c7 85 e0 f6 ff ff 	movw   $0x101,-0x920(%rbp)
   11ab9:	01 01 
   11abb:	c7 85 e2 f6 ff ff 00 	movl   $0x2a010000,-0x91e(%rbp)
   11ac2:	00 01 2a 
   11ac5:	66 c7 85 e6 f6 ff ff 	movw   $0x1,-0x91a(%rbp)
   11acc:	01 00 
   11ace:	c7 85 e8 f6 ff ff 01 	movl   $0x2a2add01,-0x918(%rbp)
   11ad5:	dd 2a 2a 
   11ad8:	66 c7 85 ec f6 ff ff 	movw   $0x1dd,-0x914(%rbp)
   11adf:	dd 01 
   11ae1:	c7 85 ee f6 ff ff 00 	movl   $0x12a0100,-0x912(%rbp)
   11ae8:	01 2a 01 
   11aeb:	66 c7 85 f2 f6 ff ff 	movw   $0x0,-0x90e(%rbp)
   11af2:	00 00 
   11af4:	48 c7 85 40 f6 ff ff 	movq   $0x1,-0x9c0(%rbp)
   11afb:	01 00 00 00 
   11aff:	48 b8 50 01 01 50 01 	movabs $0x101500150010150,%rax
   11b06:	50 01 01 
   11b09:	48 89 85 00 f7 ff ff 	mov    %rax,-0x900(%rbp)
   11b10:	48 b9 01 01 01 01 01 	movabs $0x101010101010101,%rcx
   11b17:	01 01 01 
   11b1a:	48 89 8d 08 f7 ff ff 	mov    %rcx,-0x8f8(%rbp)
   11b21:	48 b9 50 01 50 01 01 	movabs $0x5001500101500150,%rcx
   11b28:	50 01 50 
   11b2b:	48 89 8d 10 f7 ff ff 	mov    %rcx,-0x8f0(%rbp)
   11b32:	48 b9 fb 01 01 01 fb 	movabs $0x101fbfb010101fb,%rcx
   11b39:	fb 01 01 
   11b3c:	48 89 8d 18 f7 ff ff 	mov    %rcx,-0x8e8(%rbp)
   11b43:	48 be fb fb 01 01 01 	movabs $0x1fbfb010101fbfb,%rsi
   11b4a:	fb fb 01 
   11b4d:	48 89 b5 20 f7 ff ff 	mov    %rsi,-0x8e0(%rbp)
   11b54:	48 89 85 28 f7 ff ff 	mov    %rax,-0x8d8(%rbp)
   11b5b:	c7 85 5c f5 ff ff cb 	movl   $0xd46af7cb,-0xaa4(%rbp)
   11b62:	f7 6a d4 
   11b65:	66 c7 85 58 f5 ff ff 	movw   $0xfffb,-0xaa8(%rbp)
   11b6c:	fb ff 
   11b6e:	c7 85 60 f5 ff ff 01 	movl   $0x1,-0xaa0(%rbp)
   11b75:	00 00 00 
   11b78:	48 8d 85 50 fd ff ff 	lea    -0x2b0(%rbp),%rax
   11b7f:	48 8d 15 1a 49 00 00 	lea    0x491a(%rip),%rdx        # 164a0 <g_2427+0x1430>
   11b86:	b9 50 00 00 00       	mov    $0x50,%ecx
   11b8b:	48 89 c7             	mov    %rax,%rdi
   11b8e:	48 89 d6             	mov    %rdx,%rsi
   11b91:	f3 48 a5             	rep movsq %ds:(%rsi),%es:(%rdi)
   11b94:	48 c7 85 c8 f5 ff ff 	movq   $0x0,-0xa38(%rbp)
   11b9b:	00 00 00 00 
   11b9f:	48 8d 85 c8 f5 ff ff 	lea    -0xa38(%rbp),%rax
   11ba6:	48 89 85 48 f6 ff ff 	mov    %rax,-0x9b8(%rbp)
   11bad:	48 8d 85 60 f5 ff ff 	lea    -0xaa0(%rbp),%rax
   11bb4:	48 89 85 50 f6 ff ff 	mov    %rax,-0x9b0(%rbp)
   11bbb:	c7 85 9c f5 ff ff f6 	movl   $0xfffffff6,-0xa64(%rbp)
   11bc2:	ff ff ff 
   11bc5:	48 8d 85 5c f5 ff ff 	lea    -0xaa4(%rbp),%rax
   11bcc:	48 89 85 d0 f5 ff ff 	mov    %rax,-0xa30(%rbp)
   11bd3:	48 8d 85 d0 f5 ff ff 	lea    -0xa30(%rbp),%rax
   11bda:	48 89 85 58 f6 ff ff 	mov    %rax,-0x9a8(%rbp)
   11be1:	48 8d 05 b6 84 00 00 	lea    0x84b6(%rip),%rax        # 1a09e <g_169>
   11be8:	48 89 85 d8 f5 ff ff 	mov    %rax,-0xa28(%rbp)
   11bef:	48 8d 85 d8 f5 ff ff 	lea    -0xa28(%rbp),%rax
   11bf6:	48 89 85 e0 f5 ff ff 	mov    %rax,-0xa20(%rbp)
   11bfd:	48 8d 85 e0 f5 ff ff 	lea    -0xa20(%rbp),%rax
   11c04:	48 89 85 60 f6 ff ff 	mov    %rax,-0x9a0(%rbp)
   11c0b:	c7 85 a0 f5 ff ff fc 	movl   $0xfffffffc,-0xa60(%rbp)
   11c12:	ff ff ff 
   11c15:	48 b8 6c a2 8c a7 eb 	movabs $0x5cb342eba78ca26c,%rax
   11c1c:	42 b3 5c 
   11c1f:	48 89 85 68 f6 ff ff 	mov    %rax,-0x998(%rbp)
   11c26:	c7 85 70 f5 ff ff 00 	movl   $0x0,-0xa90(%rbp)
   11c2d:	00 00 00 
   11c30:	eb 4d                	jmp    11c7f <func_50+0x644>
   11c32:	c7 85 74 f5 ff ff 00 	movl   $0x0,-0xa8c(%rbp)
   11c39:	00 00 00 
   11c3c:	eb 31                	jmp    11c6f <func_50+0x634>
   11c3e:	8b 85 74 f5 ff ff    	mov    -0xa8c(%rbp),%eax
   11c44:	48 98                	cltq   
   11c46:	8b 95 70 f5 ff ff    	mov    -0xa90(%rbp),%edx
   11c4c:	48 63 d2             	movslq %edx,%rdx
   11c4f:	48 c1 e2 02          	shl    $0x2,%rdx
   11c53:	48 01 d0             	add    %rdx,%rax
   11c56:	48 bf 78 6a 41 ed ba 	movabs $0xfa8275baed416a78,%rdi
   11c5d:	75 82 fa 
   11c60:	48 89 bc c5 a0 f7 ff 	mov    %rdi,-0x860(%rbp,%rax,8)
   11c67:	ff 
   11c68:	83 85 74 f5 ff ff 01 	addl   $0x1,-0xa8c(%rbp)
   11c6f:	83 bd 74 f5 ff ff 03 	cmpl   $0x3,-0xa8c(%rbp)
   11c76:	7e c6                	jle    11c3e <func_50+0x603>
   11c78:	83 85 70 f5 ff ff 01 	addl   $0x1,-0xa90(%rbp)
   11c7f:	83 bd 70 f5 ff ff 01 	cmpl   $0x1,-0xa90(%rbp)
   11c86:	7e aa                	jle    11c32 <func_50+0x5f7>
   11c88:	0f b6 0d a9 83 00 00 	movzbl 0x83a9(%rip),%ecx        # 1a038 <g_20>
   11c8f:	48 8b 85 30 f6 ff ff 	mov    -0x9d0(%rbp),%rax
   11c96:	8b 10                	mov    (%rax),%edx
   11c98:	0f be c1             	movsbl %cl,%eax
   11c9b:	09 c2                	or     %eax,%edx
   11c9d:	48 8b 85 30 f6 ff ff 	mov    -0x9d0(%rbp),%rax
   11ca4:	89 10                	mov    %edx,(%rax)
   11ca6:	c7 05 8c 83 00 00 1d 	movl   $0x1d,0x838c(%rip)        # 1a03c <g_56>
   11cad:	00 00 00 
   11cb0:	e9 e6 00 00 00       	jmpq   11d9b <func_50+0x760>
   11cb5:	c7 85 a4 f5 ff ff ff 	movl   $0xffffffff,-0xa5c(%rbp)
   11cbc:	ff ff ff 
   11cbf:	48 c7 85 70 f6 ff ff 	movq   $0x0,-0x990(%rbp)
   11cc6:	00 00 00 00 
   11cca:	48 8d 05 83 83 00 00 	lea    0x8383(%rip),%rax        # 1a054 <g_62+0x14>
   11cd1:	48 89 85 78 f6 ff ff 	mov    %rax,-0x988(%rbp)
   11cd8:	c7 85 a8 f5 ff ff ff 	movl   $0xffffffff,-0xa58(%rbp)
   11cdf:	ff ff ff 
   11ce2:	c7 85 ac f5 ff ff 6c 	movl   $0x6a916c6c,-0xa54(%rbp)
   11ce9:	6c 91 6a 
   11cec:	48 c7 85 80 f6 ff ff 	movq   $0x0,-0x980(%rbp)
   11cf3:	00 00 00 00 
   11cf7:	48 8d 05 56 83 00 00 	lea    0x8356(%rip),%rax        # 1a054 <g_62+0x14>
   11cfe:	48 89 85 88 f6 ff ff 	mov    %rax,-0x978(%rbp)
   11d05:	48 c7 85 90 f6 ff ff 	movq   $0x0,-0x970(%rbp)
   11d0c:	00 00 00 00 
   11d10:	48 8d 05 35 83 00 00 	lea    0x8335(%rip),%rax        # 1a04c <g_62+0xc>
   11d17:	48 89 85 98 f6 ff ff 	mov    %rax,-0x968(%rbp)
   11d1e:	66 c7 85 5a f5 ff ff 	movw   $0xffff,-0xaa6(%rbp)
   11d25:	ff ff 
   11d27:	c7 85 78 f5 ff ff 00 	movl   $0x0,-0xa88(%rbp)
   11d2e:	00 00 00 
   11d31:	eb 1e                	jmp    11d51 <func_50+0x716>
   11d33:	8b 85 78 f5 ff ff    	mov    -0xa88(%rbp),%eax
   11d39:	48 98                	cltq   
   11d3b:	48 8d 15 06 83 00 00 	lea    0x8306(%rip),%rdx        # 1a048 <g_62+0x8>
   11d42:	48 89 94 c5 30 f7 ff 	mov    %rdx,-0x8d0(%rbp,%rax,8)
   11d49:	ff 
   11d4a:	83 85 78 f5 ff ff 01 	addl   $0x1,-0xa88(%rbp)
   11d51:	83 bd 78 f5 ff ff 05 	cmpl   $0x5,-0xa88(%rbp)
   11d58:	7e d9                	jle    11d33 <func_50+0x6f8>
   11d5a:	8b 85 a4 f5 ff ff    	mov    -0xa5c(%rbp),%eax
   11d60:	0b 85 4c f5 ff ff    	or     -0xab4(%rbp),%eax
   11d66:	89 85 a4 f5 ff ff    	mov    %eax,-0xa5c(%rbp)
   11d6c:	0f b7 85 5a f5 ff ff 	movzwl -0xaa6(%rbp),%eax
   11d73:	83 c0 01             	add    $0x1,%eax
   11d76:	66 89 85 5a f5 ff ff 	mov    %ax,-0xaa6(%rbp)
   11d7d:	8b 05 b9 82 00 00    	mov    0x82b9(%rip),%eax        # 1a03c <g_56>
   11d83:	0f b7 c0             	movzwl %ax,%eax
   11d86:	be 01 00 00 00       	mov    $0x1,%esi
   11d8b:	89 c7                	mov    %eax,%edi
   11d8d:	e8 8d 6f ff ff       	callq  8d1f <safe_sub_func_uint16_t_u_u>
   11d92:	0f b7 c0             	movzwl %ax,%eax
   11d95:	89 05 a1 82 00 00    	mov    %eax,0x82a1(%rip)        # 1a03c <g_56>
   11d9b:	8b 05 9b 82 00 00    	mov    0x829b(%rip),%eax        # 1a03c <g_56>
   11da1:	83 f8 e3             	cmp    $0xffffffe3,%eax
   11da4:	0f 8d 0b ff ff ff    	jge    11cb5 <func_50+0x67a>
   11daa:	83 85 4c f5 ff ff 01 	addl   $0x1,-0xab4(%rbp)
   11db1:	83 bd 4c f5 ff ff 38 	cmpl   $0x38,-0xab4(%rbp)
   11db8:	0f 86 85 fc ff ff    	jbe    11a43 <func_50+0x408>
   11dbe:	8b 9d 4c f5 ff ff    	mov    -0xab4(%rbp),%ebx
   11dc4:	48 8b 85 f8 f5 ff ff 	mov    -0xa08(%rbp),%rax
   11dcb:	48 8b 00             	mov    (%rax),%rax
   11dce:	4c 8b 30             	mov    (%rax),%r14
   11dd1:	48 8b 85 f0 f5 ff ff 	mov    -0xa10(%rbp),%rax
   11dd8:	8b 00                	mov    (%rax),%eax
   11dda:	44 0f bf e0          	movswl %ax,%r12d
   11dde:	48 8b 85 e8 f5 ff ff 	mov    -0xa18(%rbp),%rax
   11de5:	c7 00 07 00 00 00    	movl   $0x7,(%rax)
   11deb:	8b 05 a7 82 00 00    	mov    0x82a7(%rip),%eax        # 1a098 <g_147>
   11df1:	44 0f b7 e8          	movzwl %ax,%r13d
   11df5:	8b 85 4c f5 ff ff    	mov    -0xab4(%rbp),%eax
   11dfb:	0f bf d0             	movswl %ax,%edx
   11dfe:	48 83 bd 28 f6 ff ff 	cmpq   $0x0,-0x9d8(%rbp)
   11e05:	00 
   11e06:	83 bd 4c f5 ff ff 00 	cmpl   $0x0,-0xab4(%rbp)
   11e0d:	75 07                	jne    11e16 <func_50+0x7db>
   11e0f:	b8 01 00 00 00       	mov    $0x1,%eax
   11e14:	eb 05                	jmp    11e1b <func_50+0x7e0>
   11e16:	b8 00 00 00 00       	mov    $0x0,%eax
   11e1b:	98                   	cwtl   
   11e1c:	89 d6                	mov    %edx,%esi
   11e1e:	89 c7                	mov    %eax,%edi
   11e20:	e8 d0 65 ff ff       	callq  83f5 <safe_mul_func_int16_t_s_s>
   11e25:	98                   	cwtl   
   11e26:	39 85 4c f5 ff ff    	cmp    %eax,-0xab4(%rbp)
   11e2c:	0f 94 c0             	sete   %al
   11e2f:	0f b6 c0             	movzbl %al,%eax
   11e32:	8b 95 94 f5 ff ff    	mov    -0xa6c(%rbp),%edx
   11e38:	89 d6                	mov    %edx,%esi
   11e3a:	89 c7                	mov    %eax,%edi
   11e3c:	e8 c4 67 ff ff       	callq  8605 <safe_sub_func_int32_t_s_s>
   11e41:	0f b7 c0             	movzwl %ax,%eax
   11e44:	44 89 ee             	mov    %r13d,%esi
   11e47:	89 c7                	mov    %eax,%edi
   11e49:	e8 0e 6f ff ff       	callq  8d5c <safe_mod_func_uint16_t_u_u>
   11e4e:	0f bf d0             	movswl %ax,%edx
   11e51:	48 8b 85 f0 f5 ff ff 	mov    -0xa10(%rbp),%rax
   11e58:	8b 00                	mov    (%rax),%eax
   11e5a:	98                   	cwtl   
   11e5b:	89 d6                	mov    %edx,%esi
   11e5d:	89 c7                	mov    %eax,%edi
   11e5f:	e8 f1 65 ff ff       	callq  8455 <safe_div_func_int16_t_s_s>
   11e64:	0f b6 c0             	movzbl %al,%eax
   11e67:	89 c6                	mov    %eax,%esi
   11e69:	bf ce 00 00 00       	mov    $0xce,%edi
   11e6e:	e8 3b 6d ff ff       	callq  8bae <safe_mod_func_uint8_t_u_u>
   11e73:	0f b6 c0             	movzbl %al,%eax
   11e76:	39 85 4c f5 ff ff    	cmp    %eax,-0xab4(%rbp)
   11e7c:	0f 97 c0             	seta   %al
   11e7f:	0f b6 c0             	movzbl %al,%eax
   11e82:	33 85 4c f5 ff ff    	xor    -0xab4(%rbp),%eax
   11e88:	89 c2                	mov    %eax,%edx
   11e8a:	48 8b 85 f0 f5 ff ff 	mov    -0xa10(%rbp),%rax
   11e91:	8b 00                	mov    (%rax),%eax
   11e93:	39 c2                	cmp    %eax,%edx
   11e95:	0f 94 c0             	sete   %al
   11e98:	0f b6 c0             	movzbl %al,%eax
   11e9b:	44 89 e6             	mov    %r12d,%esi
   11e9e:	89 c7                	mov    %eax,%edi
   11ea0:	e8 50 65 ff ff       	callq  83f5 <safe_mul_func_int16_t_s_s>
   11ea5:	98                   	cwtl   
   11ea6:	39 85 4c f5 ff ff    	cmp    %eax,-0xab4(%rbp)
   11eac:	bf ff ff ff ff       	mov    $0xffffffff,%edi
   11eb1:	e8 54 02 00 00       	callq  1210a <func_88>
   11eb6:	49 39 c6             	cmp    %rax,%r14
   11eb9:	0f 95 c0             	setne  %al
   11ebc:	0f b6 d0             	movzbl %al,%edx
   11ebf:	48 8b 05 12 83 00 00 	mov    0x8312(%rip),%rax        # 1a1d8 <g_763>
   11ec6:	48 39 c2             	cmp    %rax,%rdx
   11ec9:	0f 9c c0             	setl   %al
   11ecc:	0f b6 c0             	movzbl %al,%eax
   11ecf:	89 de                	mov    %ebx,%esi
   11ed1:	89 c7                	mov    %eax,%edi
   11ed3:	e8 de 66 ff ff       	callq  85b6 <safe_add_func_int32_t_s_s>
   11ed8:	89 c2                	mov    %eax,%edx
   11eda:	0f b6 05 ef 82 00 00 	movzbl 0x82ef(%rip),%eax        # 1a1d0 <g_732+0x8>
   11ee1:	c1 e0 02             	shl    $0x2,%eax
   11ee4:	c0 f8 02             	sar    $0x2,%al
   11ee7:	0f be c0             	movsbl %al,%eax
   11eea:	39 c2                	cmp    %eax,%edx
   11eec:	0f 9d c0             	setge  %al
   11eef:	0f b6 d0             	movzbl %al,%edx
   11ef2:	48 8b 85 e8 f5 ff ff 	mov    -0xa18(%rbp),%rax
   11ef9:	89 10                	mov    %edx,(%rax)
   11efb:	0f b7 85 6e f7 ff ff 	movzwl -0x892(%rbp),%eax
   11f02:	83 e8 01             	sub    $0x1,%eax
   11f05:	66 89 85 6e f7 ff ff 	mov    %ax,-0x892(%rbp)
   11f0c:	48 8b 05 25 aa 00 00 	mov    0xaa25(%rip),%rax        # 1c938 <g_268>
   11f13:	48 8b 00             	mov    (%rax),%rax
   11f16:	48 8b 5d d8          	mov    -0x28(%rbp),%rbx
   11f1a:	64 48 33 1c 25 28 00 	xor    %fs:0x28,%rbx
   11f21:	00 00 
   11f23:	74 05                	je     11f2a <func_50+0x8ef>
   11f25:	e8 46 61 ff ff       	callq  8070 <__stack_chk_fail@plt>
   11f2a:	48 81 c4 a0 0a 00 00 	add    $0xaa0,%rsp
   11f31:	5b                   	pop    %rbx
   11f32:	41 5c                	pop    %r12
   11f34:	41 5d                	pop    %r13
   11f36:	41 5e                	pop    %r14
   11f38:	5d                   	pop    %rbp
   11f39:	c3                   	retq   

0000000000011f3a <func_82>:
   11f3a:	f3 0f 1e fa          	endbr64 
   11f3e:	55                   	push   %rbp
   11f3f:	48 89 e5             	mov    %rsp,%rbp
   11f42:	48 81 ec 20 01 00 00 	sub    $0x120,%rsp
   11f49:	48 89 bd 08 ff ff ff 	mov    %rdi,-0xf8(%rbp)
   11f50:	48 89 b5 00 ff ff ff 	mov    %rsi,-0x100(%rbp)
   11f57:	48 89 95 f8 fe ff ff 	mov    %rdx,-0x108(%rbp)
   11f5e:	89 8d f4 fe ff ff    	mov    %ecx,-0x10c(%rbp)
   11f64:	4c 89 85 e8 fe ff ff 	mov    %r8,-0x118(%rbp)
   11f6b:	64 48 8b 04 25 28 00 	mov    %fs:0x28,%rax
   11f72:	00 00 
   11f74:	48 89 45 f8          	mov    %rax,-0x8(%rbp)
   11f78:	31 c0                	xor    %eax,%eax
   11f7a:	48 8d 05 d3 80 00 00 	lea    0x80d3(%rip),%rax        # 1a054 <g_62+0x14>
   11f81:	48 89 85 20 ff ff ff 	mov    %rax,-0xe0(%rbp)
   11f88:	48 8d 05 c5 80 00 00 	lea    0x80c5(%rip),%rax        # 1a054 <g_62+0x14>
   11f8f:	48 89 85 28 ff ff ff 	mov    %rax,-0xd8(%rbp)
   11f96:	48 8d 05 8b 80 00 00 	lea    0x808b(%rip),%rax        # 1a028 <g_3>
   11f9d:	48 89 85 50 ff ff ff 	mov    %rax,-0xb0(%rbp)
   11fa4:	48 8d 05 7d 80 00 00 	lea    0x807d(%rip),%rax        # 1a028 <g_3>
   11fab:	48 89 85 58 ff ff ff 	mov    %rax,-0xa8(%rbp)
   11fb2:	48 8d 05 6f 80 00 00 	lea    0x806f(%rip),%rax        # 1a028 <g_3>
   11fb9:	48 89 85 60 ff ff ff 	mov    %rax,-0xa0(%rbp)
   11fc0:	48 8d 05 61 80 00 00 	lea    0x8061(%rip),%rax        # 1a028 <g_3>
   11fc7:	48 89 85 68 ff ff ff 	mov    %rax,-0x98(%rbp)
   11fce:	48 8d 05 67 80 00 00 	lea    0x8067(%rip),%rax        # 1a03c <g_56>
   11fd5:	48 89 85 70 ff ff ff 	mov    %rax,-0x90(%rbp)
   11fdc:	48 c7 85 78 ff ff ff 	movq   $0x0,-0x88(%rbp)
   11fe3:	00 00 00 00 
   11fe7:	48 8d 05 3a 80 00 00 	lea    0x803a(%rip),%rax        # 1a028 <g_3>
   11fee:	48 89 45 80          	mov    %rax,-0x80(%rbp)
   11ff2:	48 c7 45 88 00 00 00 	movq   $0x0,-0x78(%rbp)
   11ff9:	00 
   11ffa:	48 8d 05 53 80 00 00 	lea    0x8053(%rip),%rax        # 1a054 <g_62+0x14>
   12001:	48 89 45 90          	mov    %rax,-0x70(%rbp)
   12005:	48 8d 05 30 80 00 00 	lea    0x8030(%rip),%rax        # 1a03c <g_56>
   1200c:	48 89 45 98          	mov    %rax,-0x68(%rbp)
   12010:	48 8d 05 25 80 00 00 	lea    0x8025(%rip),%rax        # 1a03c <g_56>
   12017:	48 89 45 a0          	mov    %rax,-0x60(%rbp)
   1201b:	48 8d 05 32 80 00 00 	lea    0x8032(%rip),%rax        # 1a054 <g_62+0x14>
   12022:	48 89 45 a8          	mov    %rax,-0x58(%rbp)
   12026:	48 c7 45 b0 00 00 00 	movq   $0x0,-0x50(%rbp)
   1202d:	00 
   1202e:	48 8d 05 f3 7f 00 00 	lea    0x7ff3(%rip),%rax        # 1a028 <g_3>
   12035:	48 89 45 b8          	mov    %rax,-0x48(%rbp)
   12039:	48 8d 05 14 80 00 00 	lea    0x8014(%rip),%rax        # 1a054 <g_62+0x14>
   12040:	48 89 45 c0          	mov    %rax,-0x40(%rbp)
   12044:	48 8d 05 dd 7f 00 00 	lea    0x7fdd(%rip),%rax        # 1a028 <g_3>
   1204b:	48 89 45 c8          	mov    %rax,-0x38(%rbp)
   1204f:	48 8d 05 e6 7f 00 00 	lea    0x7fe6(%rip),%rax        # 1a03c <g_56>
   12056:	48 89 45 d0          	mov    %rax,-0x30(%rbp)
   1205a:	48 c7 45 d8 00 00 00 	movq   $0x0,-0x28(%rbp)
   12061:	00 
   12062:	48 c7 45 e0 00 00 00 	movq   $0x0,-0x20(%rbp)
   12069:	00 
   1206a:	48 8d 05 cb 7f 00 00 	lea    0x7fcb(%rip),%rax        # 1a03c <g_56>
   12071:	48 89 45 e8          	mov    %rax,-0x18(%rbp)
   12075:	48 8d 05 ac 7f 00 00 	lea    0x7fac(%rip),%rax        # 1a028 <g_3>
   1207c:	48 89 45 f0          	mov    %rax,-0x10(%rbp)
   12080:	c7 85 1c ff ff ff 38 	movl   $0x91727638,-0xe4(%rbp)
   12087:	76 72 91 
   1208a:	c7 85 30 ff ff ff 01 	movl   $0x1,-0xd0(%rbp)
   12091:	00 00 00 
   12094:	c7 85 34 ff ff ff 01 	movl   $0x1,-0xcc(%rbp)
   1209b:	00 00 00 
   1209e:	c7 85 38 ff ff ff 01 	movl   $0x1,-0xc8(%rbp)
   120a5:	00 00 00 
   120a8:	c7 85 3c ff ff ff 01 	movl   $0x1,-0xc4(%rbp)
   120af:	00 00 00 
   120b2:	c7 85 40 ff ff ff 01 	movl   $0x1,-0xc0(%rbp)
   120b9:	00 00 00 
   120bc:	c7 85 44 ff ff ff 01 	movl   $0x1,-0xbc(%rbp)
   120c3:	00 00 00 
   120c6:	c7 85 48 ff ff ff 01 	movl   $0x1,-0xb8(%rbp)
   120cd:	00 00 00 
   120d0:	c7 85 4c ff ff ff 01 	movl   $0x1,-0xb4(%rbp)
   120d7:	00 00 00 
   120da:	8b 85 44 ff ff ff    	mov    -0xbc(%rbp),%eax
   120e0:	83 c0 01             	add    $0x1,%eax
   120e3:	89 85 44 ff ff ff    	mov    %eax,-0xbc(%rbp)
   120e9:	8b 05 85 7f 00 00    	mov    0x7f85(%rip),%eax        # 1a074 <g_111+0x4>
   120ef:	25 ff ff ff 7f       	and    $0x7fffffff,%eax
   120f4:	48 8b 55 f8          	mov    -0x8(%rbp),%rdx
   120f8:	64 48 33 14 25 28 00 	xor    %fs:0x28,%rdx
   120ff:	00 00 
   12101:	74 05                	je     12108 <func_82+0x1ce>
   12103:	e8 68 5f ff ff       	callq  8070 <__stack_chk_fail@plt>
   12108:	c9                   	leaveq 
   12109:	c3                   	retq   

000000000001210a <func_88>:
   1210a:	f3 0f 1e fa          	endbr64 
   1210e:	55                   	push   %rbp
   1210f:	48 89 e5             	mov    %rsp,%rbp
   12112:	41 56                	push   %r14
   12114:	41 55                	push   %r13
   12116:	41 54                	push   %r12
   12118:	53                   	push   %rbx
   12119:	48 81 ec 00 02 00 00 	sub    $0x200,%rsp
   12120:	89 bd ec fd ff ff    	mov    %edi,-0x214(%rbp)
   12126:	64 48 8b 04 25 28 00 	mov    %fs:0x28,%rax
   1212d:	00 00 
   1212f:	48 89 45 d8          	mov    %rax,-0x28(%rbp)
   12133:	31 c0                	xor    %eax,%eax
   12135:	c7 85 f4 fd ff ff f8 	movl   $0xfffffff8,-0x20c(%rbp)
   1213c:	ff ff ff 
   1213f:	48 8d 05 1e 7f 00 00 	lea    0x7f1e(%rip),%rax        # 1a064 <g_100>
   12146:	48 89 85 10 fe ff ff 	mov    %rax,-0x1f0(%rbp)
   1214d:	48 8d 05 14 7f 00 00 	lea    0x7f14(%rip),%rax        # 1a068 <g_109>
   12154:	48 89 85 18 fe ff ff 	mov    %rax,-0x1e8(%rbp)
   1215b:	48 8d 05 0e 7f 00 00 	lea    0x7f0e(%rip),%rax        # 1a070 <g_111>
   12162:	48 89 85 f8 fd ff ff 	mov    %rax,-0x208(%rbp)
   12169:	48 8d 85 f8 fd ff ff 	lea    -0x208(%rbp),%rax
   12170:	48 89 85 20 fe ff ff 	mov    %rax,-0x1e0(%rbp)
   12177:	48 c7 85 28 fe ff ff 	movq   $0x0,-0x1d8(%rbp)
   1217e:	00 00 00 00 
   12182:	48 8d 05 e7 7e 00 00 	lea    0x7ee7(%rip),%rax        # 1a070 <g_111>
   12189:	48 89 85 00 fe ff ff 	mov    %rax,-0x200(%rbp)
   12190:	48 8d 85 00 fe ff ff 	lea    -0x200(%rbp),%rax
   12197:	48 89 85 30 fe ff ff 	mov    %rax,-0x1d0(%rbp)
   1219e:	66 c7 85 80 fe ff ff 	movw   $0xffff,-0x180(%rbp)
   121a5:	ff ff 
   121a7:	66 c7 85 82 fe ff ff 	movw   $0xb3fe,-0x17e(%rbp)
   121ae:	fe b3 
   121b0:	66 c7 85 84 fe ff ff 	movw   $0xed,-0x17c(%rbp)
   121b7:	ed 00 
   121b9:	66 c7 85 86 fe ff ff 	movw   $0xed,-0x17a(%rbp)
   121c0:	ed 00 
   121c2:	66 c7 85 88 fe ff ff 	movw   $0xad77,-0x178(%rbp)
   121c9:	77 ad 
   121cb:	66 c7 85 8a fe ff ff 	movw   $0xad77,-0x176(%rbp)
   121d2:	77 ad 
   121d4:	66 c7 85 8c fe ff ff 	movw   $0x0,-0x174(%rbp)
   121db:	00 00 
   121dd:	66 c7 85 8e fe ff ff 	movw   $0xb3fe,-0x172(%rbp)
   121e4:	fe b3 
   121e6:	66 c7 85 90 fe ff ff 	movw   $0xb3fe,-0x170(%rbp)
   121ed:	fe b3 
   121ef:	66 c7 85 92 fe ff ff 	movw   $0xffff,-0x16e(%rbp)
   121f6:	ff ff 
   121f8:	66 c7 85 94 fe ff ff 	movw   $0x0,-0x16c(%rbp)
   121ff:	00 00 
   12201:	66 c7 85 96 fe ff ff 	movw   $0xffff,-0x16a(%rbp)
   12208:	ff ff 
   1220a:	66 c7 85 98 fe ff ff 	movw   $0xad77,-0x168(%rbp)
   12211:	77 ad 
   12213:	66 c7 85 9a fe ff ff 	movw   $0x0,-0x166(%rbp)
   1221a:	00 00 
   1221c:	66 c7 85 9c fe ff ff 	movw   $0xed,-0x164(%rbp)
   12223:	ed 00 
   12225:	66 c7 85 9e fe ff ff 	movw   $0x0,-0x162(%rbp)
   1222c:	00 00 
   1222e:	66 c7 85 a0 fe ff ff 	movw   $0xffff,-0x160(%rbp)
   12235:	ff ff 
   12237:	66 c7 85 a2 fe ff ff 	movw   $0x0,-0x15e(%rbp)
   1223e:	00 00 
   12240:	66 c7 85 a4 fe ff ff 	movw   $0x0,-0x15c(%rbp)
   12247:	00 00 
   12249:	66 c7 85 a6 fe ff ff 	movw   $0xffff,-0x15a(%rbp)
   12250:	ff ff 
   12252:	48 8d 05 4b 7e 00 00 	lea    0x7e4b(%rip),%rax        # 1a0a4 <g_206>
   12259:	48 89 85 38 fe ff ff 	mov    %rax,-0x1c8(%rbp)
   12260:	c7 85 30 ff ff ff 12 	movl   $0xa8016012,-0xd0(%rbp)
   12267:	60 01 a8 
   1226a:	c7 85 34 ff ff ff 13 	movl   $0xed89f813,-0xcc(%rbp)
   12271:	f8 89 ed 
   12274:	c7 85 38 ff ff ff 12 	movl   $0xa8016012,-0xc8(%rbp)
   1227b:	60 01 a8 
   1227e:	c7 85 3c ff ff ff 13 	movl   $0xed89f813,-0xc4(%rbp)
   12285:	f8 89 ed 
   12288:	c7 85 40 ff ff ff 12 	movl   $0xa8016012,-0xc0(%rbp)
   1228f:	60 01 a8 
   12292:	c7 85 44 ff ff ff 13 	movl   $0xed89f813,-0xbc(%rbp)
   12299:	f8 89 ed 
   1229c:	c7 85 48 ff ff ff 12 	movl   $0xa8016012,-0xb8(%rbp)
   122a3:	60 01 a8 
   122a6:	c7 85 4c ff ff ff 13 	movl   $0xed89f813,-0xb4(%rbp)
   122ad:	f8 89 ed 
   122b0:	c7 85 50 ff ff ff 12 	movl   $0xa8016012,-0xb0(%rbp)
   122b7:	60 01 a8 
   122ba:	c7 85 54 ff ff ff 13 	movl   $0xed89f813,-0xac(%rbp)
   122c1:	f8 89 ed 
   122c4:	c7 85 58 ff ff ff 01 	movl   $0x1,-0xa8(%rbp)
   122cb:	00 00 00 
   122ce:	c7 85 5c ff ff ff 13 	movl   $0xed89f813,-0xa4(%rbp)
   122d5:	f8 89 ed 
   122d8:	c7 85 60 ff ff ff 01 	movl   $0x1,-0xa0(%rbp)
   122df:	00 00 00 
   122e2:	c7 85 64 ff ff ff 13 	movl   $0xed89f813,-0x9c(%rbp)
   122e9:	f8 89 ed 
   122ec:	c7 85 68 ff ff ff 01 	movl   $0x1,-0x98(%rbp)
   122f3:	00 00 00 
   122f6:	c7 85 6c ff ff ff 13 	movl   $0xed89f813,-0x94(%rbp)
   122fd:	f8 89 ed 
   12300:	c7 85 70 ff ff ff 01 	movl   $0x1,-0x90(%rbp)
   12307:	00 00 00 
   1230a:	c7 85 74 ff ff ff 13 	movl   $0xed89f813,-0x8c(%rbp)
   12311:	f8 89 ed 
   12314:	c7 85 78 ff ff ff 01 	movl   $0x1,-0x88(%rbp)
   1231b:	00 00 00 
   1231e:	c7 85 7c ff ff ff 13 	movl   $0xed89f813,-0x84(%rbp)
   12325:	f8 89 ed 
   12328:	c7 45 80 12 60 01 a8 	movl   $0xa8016012,-0x80(%rbp)
   1232f:	c7 45 84 13 f8 89 ed 	movl   $0xed89f813,-0x7c(%rbp)
   12336:	c7 45 88 12 60 01 a8 	movl   $0xa8016012,-0x78(%rbp)
   1233d:	c7 45 8c 13 f8 89 ed 	movl   $0xed89f813,-0x74(%rbp)
   12344:	c7 45 90 12 60 01 a8 	movl   $0xa8016012,-0x70(%rbp)
   1234b:	c7 45 94 13 f8 89 ed 	movl   $0xed89f813,-0x6c(%rbp)
   12352:	c7 45 98 12 60 01 a8 	movl   $0xa8016012,-0x68(%rbp)
   12359:	c7 45 9c 13 f8 89 ed 	movl   $0xed89f813,-0x64(%rbp)
   12360:	c7 45 a0 12 60 01 a8 	movl   $0xa8016012,-0x60(%rbp)
   12367:	c7 45 a4 13 f8 89 ed 	movl   $0xed89f813,-0x5c(%rbp)
   1236e:	c7 45 a8 01 00 00 00 	movl   $0x1,-0x58(%rbp)
   12375:	c7 45 ac 13 f8 89 ed 	movl   $0xed89f813,-0x54(%rbp)
   1237c:	c7 45 b0 01 00 00 00 	movl   $0x1,-0x50(%rbp)
   12383:	c7 45 b4 13 f8 89 ed 	movl   $0xed89f813,-0x4c(%rbp)
   1238a:	c7 45 b8 01 00 00 00 	movl   $0x1,-0x48(%rbp)
   12391:	c7 45 bc 13 f8 89 ed 	movl   $0xed89f813,-0x44(%rbp)
   12398:	c7 45 c0 01 00 00 00 	movl   $0x1,-0x40(%rbp)
   1239f:	c7 45 c4 13 f8 89 ed 	movl   $0xed89f813,-0x3c(%rbp)
   123a6:	c7 45 c8 01 00 00 00 	movl   $0x1,-0x38(%rbp)
   123ad:	c7 45 cc 13 f8 89 ed 	movl   $0xed89f813,-0x34(%rbp)
   123b4:	48 b8 fc b2 4d 7d ee 	movabs $0x230d14ee7d4db2fc,%rax
   123bb:	14 0d 23 
   123be:	48 89 85 08 fe ff ff 	mov    %rax,-0x1f8(%rbp)
   123c5:	c7 85 f4 fd ff ff 17 	movl   $0x16a80d17,-0x20c(%rbp)
   123cc:	0d a8 16 
   123cf:	8b 05 af 7c 00 00    	mov    0x7caf(%rip),%eax        # 1a084 <g_117+0x4>
   123d5:	25 ff ff ff 7f       	and    $0x7fffffff,%eax
   123da:	41 89 c6             	mov    %eax,%r14d
   123dd:	4c 8b 25 2c a5 00 00 	mov    0xa52c(%rip),%r12        # 1c910 <g_116>
   123e4:	0f b7 85 a6 fe ff ff 	movzwl -0x15a(%rbp),%eax
   123eb:	0f bf d8             	movswl %ax,%ebx
   123ee:	8b 85 ec fd ff ff    	mov    -0x214(%rbp),%eax
   123f4:	44 0f b7 e8          	movzwl %ax,%r13d
   123f8:	48 8b 05 a1 a2 00 00 	mov    0xa2a1(%rip),%rax        # 1c6a0 <g_106+0x240>
   123ff:	48 39 85 10 fe ff ff 	cmp    %rax,-0x1f0(%rbp)
   12406:	48 8b 85 18 fe ff ff 	mov    -0x1e8(%rbp),%rax
   1240d:	48 c7 00 00 00 00 00 	movq   $0x0,(%rax)
   12414:	48 8b 95 f8 fd ff ff 	mov    -0x208(%rbp),%rdx
   1241b:	48 8b 85 20 fe ff ff 	mov    -0x1e0(%rbp),%rax
   12422:	48 89 10             	mov    %rdx,(%rax)
   12425:	48 8b 85 20 fe ff ff 	mov    -0x1e0(%rbp),%rax
   1242c:	48 8b 10             	mov    (%rax),%rdx
   1242f:	48 8b 85 30 fe ff ff 	mov    -0x1d0(%rbp),%rax
   12436:	48 89 10             	mov    %rdx,(%rax)
   12439:	48 8b 85 30 fe ff ff 	mov    -0x1d0(%rbp),%rax
   12440:	48 8b 10             	mov    (%rax),%rdx
   12443:	48 8b 05 c6 a4 00 00 	mov    0xa4c6(%rip),%rax        # 1c910 <g_116>
   1244a:	48 39 c2             	cmp    %rax,%rdx
   1244d:	0f 94 c0             	sete   %al
   12450:	0f b6 d0             	movzbl %al,%edx
   12453:	8b 05 cf 7b 00 00    	mov    0x7bcf(%rip),%eax        # 1a028 <g_3>
   12459:	39 c2                	cmp    %eax,%edx
   1245b:	8b 85 f4 fd ff ff    	mov    -0x20c(%rbp),%eax
   12461:	48 83 c8 89          	or     $0xffffffffffffff89,%rax
   12465:	48 be be 28 de b6 c2 	movabs $0x928312c2b6de28be,%rsi
   1246c:	12 83 92 
   1246f:	48 89 c7             	mov    %rax,%rdi
   12472:	e8 38 6c ff ff       	callq  90af <safe_div_func_uint64_t_u_u>
   12477:	0f b7 c0             	movzwl %ax,%eax
   1247a:	44 89 ee             	mov    %r13d,%esi
   1247d:	89 c7                	mov    %eax,%edi
   1247f:	e8 7b 68 ff ff       	callq  8cff <safe_add_func_uint16_t_u_u>
   12484:	44 0f b7 e8          	movzwl %ax,%r13d
   12488:	48 8b 85 10 fe ff ff 	mov    -0x1f0(%rbp),%rax
   1248f:	66 c7 00 aa e3       	movw   $0xe3aa,(%rax)
   12494:	8b 05 8e 7b 00 00    	mov    0x7b8e(%rip),%eax        # 1a028 <g_3>
   1249a:	3d aa e3 ff ff       	cmp    $0xffffe3aa,%eax
   1249f:	0f 95 c0             	setne  %al
   124a2:	0f b6 c0             	movzbl %al,%eax
   124a5:	89 c7                	mov    %eax,%edi
   124a7:	e8 13 5d ff ff       	callq  81bf <safe_unary_minus_func_int8_t_s>
   124ac:	66 98                	cbtw   
   124ae:	0f b7 c0             	movzwl %ax,%eax
   124b1:	44 89 ee             	mov    %r13d,%esi
   124b4:	89 c7                	mov    %eax,%edi
   124b6:	e8 d3 68 ff ff       	callq  8d8e <safe_div_func_uint16_t_u_u>
   124bb:	0f b7 85 a6 fe ff ff 	movzwl -0x15a(%rbp),%eax
   124c2:	0f b7 c0             	movzwl %ax,%eax
   124c5:	4c 89 f1             	mov    %r14,%rcx
   124c8:	4c 89 e2             	mov    %r12,%rdx
   124cb:	89 de                	mov    %ebx,%esi
   124cd:	89 c7                	mov    %eax,%edi
   124cf:	e8 cb 01 00 00       	callq  1269f <func_91>
   124d4:	48 8b 95 38 fe ff ff 	mov    -0x1c8(%rbp),%rdx
   124db:	8b 12                	mov    (%rdx),%edx
   124dd:	09 c2                	or     %eax,%edx
   124df:	48 8b 85 38 fe ff ff 	mov    -0x1c8(%rbp),%rax
   124e6:	89 10                	mov    %edx,(%rax)
   124e8:	48 8b 85 38 fe ff ff 	mov    -0x1c8(%rbp),%rax
   124ef:	8b 10                	mov    (%rax),%edx
   124f1:	8b 05 b1 7b 00 00    	mov    0x7bb1(%rip),%eax        # 1a0a8 <g_207>
   124f7:	09 d0                	or     %edx,%eax
   124f9:	89 05 a9 7b 00 00    	mov    %eax,0x7ba9(%rip)        # 1a0a8 <g_207>
   124ff:	48 c7 05 5e 7b 00 00 	movq   $0x0,0x7b5e(%rip)        # 1a068 <g_109>
   12506:	00 00 00 00 
   1250a:	e9 54 01 00 00       	jmpq   12663 <func_88+0x559>
   1250f:	48 8d 05 26 7b 00 00 	lea    0x7b26(%rip),%rax        # 1a03c <g_56>
   12516:	48 89 85 40 fe ff ff 	mov    %rax,-0x1c0(%rbp)
   1251d:	48 8d 05 74 7b 00 00 	lea    0x7b74(%rip),%rax        # 1a098 <g_147>
   12524:	48 89 85 48 fe ff ff 	mov    %rax,-0x1b8(%rbp)
   1252b:	48 8d 85 30 ff ff ff 	lea    -0xd0(%rbp),%rax
   12532:	48 83 c0 04          	add    $0x4,%rax
   12536:	48 89 85 50 fe ff ff 	mov    %rax,-0x1b0(%rbp)
   1253d:	48 8d 85 30 ff ff ff 	lea    -0xd0(%rbp),%rax
   12544:	48 83 c0 24          	add    $0x24,%rax
   12548:	48 89 85 58 fe ff ff 	mov    %rax,-0x1a8(%rbp)
   1254f:	48 c7 85 60 fe ff ff 	movq   $0x0,-0x1a0(%rbp)
   12556:	00 00 00 00 
   1255a:	48 8d 05 e3 7a 00 00 	lea    0x7ae3(%rip),%rax        # 1a044 <g_62+0x4>
   12561:	48 89 85 68 fe ff ff 	mov    %rax,-0x198(%rbp)
   12568:	48 c7 85 70 fe ff ff 	movq   $0x0,-0x190(%rbp)
   1256f:	00 00 00 00 
   12573:	48 8d 05 c2 7a 00 00 	lea    0x7ac2(%rip),%rax        # 1a03c <g_56>
   1257a:	48 89 85 78 fe ff ff 	mov    %rax,-0x188(%rbp)
   12581:	48 8d 05 b4 7a 00 00 	lea    0x7ab4(%rip),%rax        # 1a03c <g_56>
   12588:	48 89 85 b0 fe ff ff 	mov    %rax,-0x150(%rbp)
   1258f:	48 c7 85 b8 fe ff ff 	movq   $0x0,-0x148(%rbp)
   12596:	00 00 00 00 
   1259a:	48 8d 05 9b 7a 00 00 	lea    0x7a9b(%rip),%rax        # 1a03c <g_56>
   125a1:	48 89 85 c0 fe ff ff 	mov    %rax,-0x140(%rbp)
   125a8:	48 c7 85 c8 fe ff ff 	movq   $0x0,-0x138(%rbp)
   125af:	00 00 00 00 
   125b3:	48 8d 05 82 7a 00 00 	lea    0x7a82(%rip),%rax        # 1a03c <g_56>
   125ba:	48 89 85 d0 fe ff ff 	mov    %rax,-0x130(%rbp)
   125c1:	48 c7 85 d8 fe ff ff 	movq   $0x0,-0x128(%rbp)
   125c8:	00 00 00 00 
   125cc:	48 8d 05 69 7a 00 00 	lea    0x7a69(%rip),%rax        # 1a03c <g_56>
   125d3:	48 89 85 e0 fe ff ff 	mov    %rax,-0x120(%rbp)
   125da:	48 c7 85 e8 fe ff ff 	movq   $0x0,-0x118(%rbp)
   125e1:	00 00 00 00 
   125e5:	48 8d 05 50 7a 00 00 	lea    0x7a50(%rip),%rax        # 1a03c <g_56>
   125ec:	48 89 85 f0 fe ff ff 	mov    %rax,-0x110(%rbp)
   125f3:	48 c7 85 f8 fe ff ff 	movq   $0x0,-0x108(%rbp)
   125fa:	00 00 00 00 
   125fe:	48 8d 05 37 7a 00 00 	lea    0x7a37(%rip),%rax        # 1a03c <g_56>
   12605:	48 89 85 00 ff ff ff 	mov    %rax,-0x100(%rbp)
   1260c:	48 c7 85 08 ff ff ff 	movq   $0x0,-0xf8(%rbp)
   12613:	00 00 00 00 
   12617:	48 8d 05 1e 7a 00 00 	lea    0x7a1e(%rip),%rax        # 1a03c <g_56>
   1261e:	48 89 85 10 ff ff ff 	mov    %rax,-0xf0(%rbp)
   12625:	48 c7 85 18 ff ff ff 	movq   $0x0,-0xe8(%rbp)
   1262c:	00 00 00 00 
   12630:	48 8d 05 05 7a 00 00 	lea    0x7a05(%rip),%rax        # 1a03c <g_56>
   12637:	48 89 85 20 ff ff ff 	mov    %rax,-0xe0(%rbp)
   1263e:	48 c7 85 28 ff ff ff 	movq   $0x0,-0xd8(%rbp)
   12645:	00 00 00 00 
   12649:	48 83 ad 08 fe ff ff 	subq   $0x1,-0x1f8(%rbp)
   12650:	01 
   12651:	48 8b 05 10 7a 00 00 	mov    0x7a10(%rip),%rax        # 1a068 <g_109>
   12658:	48 83 e8 01          	sub    $0x1,%rax
   1265c:	48 89 05 05 7a 00 00 	mov    %rax,0x7a05(%rip)        # 1a068 <g_109>
   12663:	48 8b 05 fe 79 00 00 	mov    0x79fe(%rip),%rax        # 1a068 <g_109>
   1266a:	48 83 f8 f0          	cmp    $0xfffffffffffffff0,%rax
   1266e:	0f 8d 9b fe ff ff    	jge    1250f <func_88+0x405>
   12674:	48 8d 05 05 7a 00 00 	lea    0x7a05(%rip),%rax        # 1a080 <g_117>
   1267b:	48 8b 4d d8          	mov    -0x28(%rbp),%rcx
   1267f:	64 48 33 0c 25 28 00 	xor    %fs:0x28,%rcx
   12686:	00 00 
   12688:	74 05                	je     1268f <func_88+0x585>
   1268a:	e8 e1 59 ff ff       	callq  8070 <__stack_chk_fail@plt>
   1268f:	48 81 c4 00 02 00 00 	add    $0x200,%rsp
   12696:	5b                   	pop    %rbx
   12697:	41 5c                	pop    %r12
   12699:	41 5d                	pop    %r13
   1269b:	41 5e                	pop    %r14
   1269d:	5d                   	pop    %rbp
   1269e:	c3                   	retq   

000000000001269f <func_91>:
   1269f:	f3 0f 1e fa          	endbr64 
   126a3:	55                   	push   %rbp
   126a4:	48 89 e5             	mov    %rsp,%rbp
   126a7:	41 56                	push   %r14
   126a9:	41 55                	push   %r13
   126ab:	41 54                	push   %r12
   126ad:	53                   	push   %rbx
   126ae:	48 81 ec 60 02 00 00 	sub    $0x260,%rsp
   126b5:	89 bd 9c fd ff ff    	mov    %edi,-0x264(%rbp)
   126bb:	89 f0                	mov    %esi,%eax
   126bd:	48 89 95 90 fd ff ff 	mov    %rdx,-0x270(%rbp)
   126c4:	48 89 8d 88 fd ff ff 	mov    %rcx,-0x278(%rbp)
   126cb:	66 89 85 98 fd ff ff 	mov    %ax,-0x268(%rbp)
   126d2:	64 48 8b 04 25 28 00 	mov    %fs:0x28,%rax
   126d9:	00 00 
   126db:	48 89 45 d8          	mov    %rax,-0x28(%rbp)
   126df:	31 c0                	xor    %eax,%eax
   126e1:	48 b8 55 d5 d6 20 6b 	movabs $0xc20d596b20d6d555,%rax
   126e8:	59 0d c2 
   126eb:	48 89 85 c8 fd ff ff 	mov    %rax,-0x238(%rbp)
   126f2:	48 8d 05 67 79 00 00 	lea    0x7967(%rip),%rax        # 1a060 <g_62+0x20>
   126f9:	48 89 85 d0 fd ff ff 	mov    %rax,-0x230(%rbp)
   12700:	c7 85 ac fd ff ff ff 	movl   $0xffffffff,-0x254(%rbp)
   12707:	ff ff ff 
   1270a:	c7 85 b0 fd ff ff f4 	movl   $0x4b2af2f4,-0x250(%rbp)
   12711:	f2 2a 4b 
   12714:	48 8d 05 21 79 00 00 	lea    0x7921(%rip),%rax        # 1a03c <g_56>
   1271b:	48 89 85 d8 fd ff ff 	mov    %rax,-0x228(%rbp)
   12722:	48 8d 05 6f 79 00 00 	lea    0x796f(%rip),%rax        # 1a098 <g_147>
   12729:	48 89 85 e0 fd ff ff 	mov    %rax,-0x220(%rbp)
   12730:	48 8d 85 ac fd ff ff 	lea    -0x254(%rbp),%rax
   12737:	48 89 85 e8 fd ff ff 	mov    %rax,-0x218(%rbp)
   1273e:	48 8d 05 0f 79 00 00 	lea    0x790f(%rip),%rax        # 1a054 <g_62+0x14>
   12745:	48 89 85 f0 fd ff ff 	mov    %rax,-0x210(%rbp)
   1274c:	48 8d 85 ac fd ff ff 	lea    -0x254(%rbp),%rax
   12753:	48 89 85 f8 fd ff ff 	mov    %rax,-0x208(%rbp)
   1275a:	48 8d 05 d3 78 00 00 	lea    0x78d3(%rip),%rax        # 1a034 <g_10>
   12761:	48 89 85 70 fe ff ff 	mov    %rax,-0x190(%rbp)
   12768:	48 8d 05 c5 78 00 00 	lea    0x78c5(%rip),%rax        # 1a034 <g_10>
   1276f:	48 89 85 78 fe ff ff 	mov    %rax,-0x188(%rbp)
   12776:	48 8d 05 b7 78 00 00 	lea    0x78b7(%rip),%rax        # 1a034 <g_10>
   1277d:	48 89 85 80 fe ff ff 	mov    %rax,-0x180(%rbp)
   12784:	48 8d 05 a9 78 00 00 	lea    0x78a9(%rip),%rax        # 1a034 <g_10>
   1278b:	48 89 85 88 fe ff ff 	mov    %rax,-0x178(%rbp)
   12792:	48 8d 05 9b 78 00 00 	lea    0x789b(%rip),%rax        # 1a034 <g_10>
   12799:	48 89 85 90 fe ff ff 	mov    %rax,-0x170(%rbp)
   127a0:	48 8d 05 8d 78 00 00 	lea    0x788d(%rip),%rax        # 1a034 <g_10>
   127a7:	48 89 85 98 fe ff ff 	mov    %rax,-0x168(%rbp)
   127ae:	48 8d 05 7f 78 00 00 	lea    0x787f(%rip),%rax        # 1a034 <g_10>
   127b5:	48 89 85 a0 fe ff ff 	mov    %rax,-0x160(%rbp)
   127bc:	48 8d 05 71 78 00 00 	lea    0x7871(%rip),%rax        # 1a034 <g_10>
   127c3:	48 89 85 a8 fe ff ff 	mov    %rax,-0x158(%rbp)
   127ca:	48 8d 05 63 78 00 00 	lea    0x7863(%rip),%rax        # 1a034 <g_10>
   127d1:	48 89 85 b0 fe ff ff 	mov    %rax,-0x150(%rbp)
   127d8:	48 8d 85 b0 fd ff ff 	lea    -0x250(%rbp),%rax
   127df:	48 89 85 b8 fe ff ff 	mov    %rax,-0x148(%rbp)
   127e6:	48 8d 85 b0 fd ff ff 	lea    -0x250(%rbp),%rax
   127ed:	48 89 85 c0 fe ff ff 	mov    %rax,-0x140(%rbp)
   127f4:	48 8d 85 b0 fd ff ff 	lea    -0x250(%rbp),%rax
   127fb:	48 89 85 c8 fe ff ff 	mov    %rax,-0x138(%rbp)
   12802:	48 8d 85 b0 fd ff ff 	lea    -0x250(%rbp),%rax
   12809:	48 89 85 d0 fe ff ff 	mov    %rax,-0x130(%rbp)
   12810:	48 8d 85 b0 fd ff ff 	lea    -0x250(%rbp),%rax
   12817:	48 89 85 d8 fe ff ff 	mov    %rax,-0x128(%rbp)
   1281e:	48 8d 85 b0 fd ff ff 	lea    -0x250(%rbp),%rax
   12825:	48 89 85 e0 fe ff ff 	mov    %rax,-0x120(%rbp)
   1282c:	48 8d 85 b0 fd ff ff 	lea    -0x250(%rbp),%rax
   12833:	48 89 85 e8 fe ff ff 	mov    %rax,-0x118(%rbp)
   1283a:	48 8d 85 b0 fd ff ff 	lea    -0x250(%rbp),%rax
   12841:	48 89 85 f0 fe ff ff 	mov    %rax,-0x110(%rbp)
   12848:	48 8d 85 b0 fd ff ff 	lea    -0x250(%rbp),%rax
   1284f:	48 89 85 f8 fe ff ff 	mov    %rax,-0x108(%rbp)
   12856:	48 8d 05 d7 77 00 00 	lea    0x77d7(%rip),%rax        # 1a034 <g_10>
   1285d:	48 89 85 00 ff ff ff 	mov    %rax,-0x100(%rbp)
   12864:	48 8d 05 c9 77 00 00 	lea    0x77c9(%rip),%rax        # 1a034 <g_10>
   1286b:	48 89 85 08 ff ff ff 	mov    %rax,-0xf8(%rbp)
   12872:	48 8d 05 bb 77 00 00 	lea    0x77bb(%rip),%rax        # 1a034 <g_10>
   12879:	48 89 85 10 ff ff ff 	mov    %rax,-0xf0(%rbp)
   12880:	48 8d 05 ad 77 00 00 	lea    0x77ad(%rip),%rax        # 1a034 <g_10>
   12887:	48 89 85 18 ff ff ff 	mov    %rax,-0xe8(%rbp)
   1288e:	48 8d 05 9f 77 00 00 	lea    0x779f(%rip),%rax        # 1a034 <g_10>
   12895:	48 89 85 20 ff ff ff 	mov    %rax,-0xe0(%rbp)
   1289c:	48 8d 05 91 77 00 00 	lea    0x7791(%rip),%rax        # 1a034 <g_10>
   128a3:	48 89 85 28 ff ff ff 	mov    %rax,-0xd8(%rbp)
   128aa:	48 8d 05 83 77 00 00 	lea    0x7783(%rip),%rax        # 1a034 <g_10>
   128b1:	48 89 85 30 ff ff ff 	mov    %rax,-0xd0(%rbp)
   128b8:	48 8d 05 75 77 00 00 	lea    0x7775(%rip),%rax        # 1a034 <g_10>
   128bf:	48 89 85 38 ff ff ff 	mov    %rax,-0xc8(%rbp)
   128c6:	48 8d 05 67 77 00 00 	lea    0x7767(%rip),%rax        # 1a034 <g_10>
   128cd:	48 89 85 40 ff ff ff 	mov    %rax,-0xc0(%rbp)
   128d4:	48 8d 85 b0 fd ff ff 	lea    -0x250(%rbp),%rax
   128db:	48 89 85 48 ff ff ff 	mov    %rax,-0xb8(%rbp)
   128e2:	48 8d 85 b0 fd ff ff 	lea    -0x250(%rbp),%rax
   128e9:	48 89 85 50 ff ff ff 	mov    %rax,-0xb0(%rbp)
   128f0:	48 8d 85 b0 fd ff ff 	lea    -0x250(%rbp),%rax
   128f7:	48 89 85 58 ff ff ff 	mov    %rax,-0xa8(%rbp)
   128fe:	48 8d 85 b0 fd ff ff 	lea    -0x250(%rbp),%rax
   12905:	48 89 85 60 ff ff ff 	mov    %rax,-0xa0(%rbp)
   1290c:	48 8d 85 b0 fd ff ff 	lea    -0x250(%rbp),%rax
   12913:	48 89 85 68 ff ff ff 	mov    %rax,-0x98(%rbp)
   1291a:	48 8d 85 b0 fd ff ff 	lea    -0x250(%rbp),%rax
   12921:	48 89 85 70 ff ff ff 	mov    %rax,-0x90(%rbp)
   12928:	48 8d 85 b0 fd ff ff 	lea    -0x250(%rbp),%rax
   1292f:	48 89 85 78 ff ff ff 	mov    %rax,-0x88(%rbp)
   12936:	48 8d 85 b0 fd ff ff 	lea    -0x250(%rbp),%rax
   1293d:	48 89 45 80          	mov    %rax,-0x80(%rbp)
   12941:	48 8d 85 b0 fd ff ff 	lea    -0x250(%rbp),%rax
   12948:	48 89 45 88          	mov    %rax,-0x78(%rbp)
   1294c:	48 8d 05 e1 76 00 00 	lea    0x76e1(%rip),%rax        # 1a034 <g_10>
   12953:	48 89 45 90          	mov    %rax,-0x70(%rbp)
   12957:	48 8d 05 d6 76 00 00 	lea    0x76d6(%rip),%rax        # 1a034 <g_10>
   1295e:	48 89 45 98          	mov    %rax,-0x68(%rbp)
   12962:	48 8d 05 cb 76 00 00 	lea    0x76cb(%rip),%rax        # 1a034 <g_10>
   12969:	48 89 45 a0          	mov    %rax,-0x60(%rbp)
   1296d:	48 8d 05 c0 76 00 00 	lea    0x76c0(%rip),%rax        # 1a034 <g_10>
   12974:	48 89 45 a8          	mov    %rax,-0x58(%rbp)
   12978:	48 8d 05 b5 76 00 00 	lea    0x76b5(%rip),%rax        # 1a034 <g_10>
   1297f:	48 89 45 b0          	mov    %rax,-0x50(%rbp)
   12983:	48 8d 05 aa 76 00 00 	lea    0x76aa(%rip),%rax        # 1a034 <g_10>
   1298a:	48 89 45 b8          	mov    %rax,-0x48(%rbp)
   1298e:	48 8d 05 9f 76 00 00 	lea    0x769f(%rip),%rax        # 1a034 <g_10>
   12995:	48 89 45 c0          	mov    %rax,-0x40(%rbp)
   12999:	48 8d 05 94 76 00 00 	lea    0x7694(%rip),%rax        # 1a034 <g_10>
   129a0:	48 89 45 c8          	mov    %rax,-0x38(%rbp)
   129a4:	48 8d 05 89 76 00 00 	lea    0x7689(%rip),%rax        # 1a034 <g_10>
   129ab:	48 89 45 d0          	mov    %rax,-0x30(%rbp)
   129af:	48 c7 85 00 fe ff ff 	movq   $0x1,-0x200(%rbp)
   129b6:	01 00 00 00 
   129ba:	48 8b 85 d0 fd ff ff 	mov    -0x230(%rbp),%rax
   129c1:	8b 00                	mov    (%rax),%eax
   129c3:	48 8b 95 c8 fd ff ff 	mov    -0x238(%rbp),%rdx
   129ca:	21 c2                	and    %eax,%edx
   129cc:	48 8b 85 d0 fd ff ff 	mov    -0x230(%rbp),%rax
   129d3:	89 10                	mov    %edx,(%rax)
   129d5:	66 c7 85 98 fd ff ff 	movw   $0x0,-0x268(%rbp)
   129dc:	00 00 
   129de:	e9 d4 05 00 00       	jmpq   12fb7 <func_91+0x918>
   129e3:	48 c7 85 08 fe ff ff 	movq   $0x0,-0x1f8(%rbp)
   129ea:	00 00 00 00 
   129ee:	48 8d 05 97 76 00 00 	lea    0x7697(%rip),%rax        # 1a08c <g_136>
   129f5:	48 89 85 10 fe ff ff 	mov    %rax,-0x1f0(%rbp)
   129fc:	48 8d 05 65 76 00 00 	lea    0x7665(%rip),%rax        # 1a068 <g_109>
   12a03:	48 89 85 18 fe ff ff 	mov    %rax,-0x1e8(%rbp)
   12a0a:	48 8d 05 7f 76 00 00 	lea    0x767f(%rip),%rax        # 1a090 <g_139>
   12a11:	48 89 85 20 fe ff ff 	mov    %rax,-0x1e0(%rbp)
   12a18:	c7 85 bc fd ff ff f6 	movl   $0xfffffff6,-0x244(%rbp)
   12a1f:	ff ff ff 
   12a22:	c7 85 b4 fd ff ff 00 	movl   $0x0,-0x24c(%rbp)
   12a29:	00 00 00 
   12a2c:	eb 1a                	jmp    12a48 <func_91+0x3a9>
   12a2e:	8b 85 b4 fd ff ff    	mov    -0x24c(%rbp),%eax
   12a34:	48 98                	cltq   
   12a36:	c7 84 85 58 fe ff ff 	movl   $0xfffffff8,-0x1a8(%rbp,%rax,4)
   12a3d:	f8 ff ff ff 
   12a41:	83 85 b4 fd ff ff 01 	addl   $0x1,-0x24c(%rbp)
   12a48:	83 bd b4 fd ff ff 01 	cmpl   $0x1,-0x24c(%rbp)
   12a4f:	7e dd                	jle    12a2e <func_91+0x38f>
   12a51:	4c 0f bf ad 98 fd ff 	movswq -0x268(%rbp),%r13
   12a58:	ff 
   12a59:	48 8b 85 d0 fd ff ff 	mov    -0x230(%rbp),%rax
   12a60:	8b 00                	mov    (%rax),%eax
   12a62:	48 63 d8             	movslq %eax,%rbx
   12a65:	48 8b 15 fc 75 00 00 	mov    0x75fc(%rip),%rdx        # 1a068 <g_109>
   12a6c:	48 8b 85 18 fe ff ff 	mov    -0x1e8(%rbp),%rax
   12a73:	48 89 10             	mov    %rdx,(%rax)
   12a76:	48 8b 85 20 fe ff ff 	mov    -0x1e0(%rbp),%rax
   12a7d:	48 8b 00             	mov    (%rax),%rax
   12a80:	48 8d 50 01          	lea    0x1(%rax),%rdx
   12a84:	48 8b 85 20 fe ff ff 	mov    -0x1e0(%rbp),%rax
   12a8b:	48 89 10             	mov    %rdx,(%rax)
   12a8e:	8b 85 ac fd ff ff    	mov    -0x254(%rbp),%eax
   12a94:	89 c2                	mov    %eax,%edx
   12a96:	48 8b 85 10 fe ff ff 	mov    -0x1f0(%rbp),%rax
   12a9d:	66 89 10             	mov    %dx,(%rax)
   12aa0:	48 8b 85 10 fe ff ff 	mov    -0x1f0(%rbp),%rax
   12aa7:	0f b7 00             	movzwl (%rax),%eax
   12aaa:	44 0f b7 f0          	movzwl %ax,%r14d
   12aae:	48 8b 05 db 75 00 00 	mov    0x75db(%rip),%rax        # 1a090 <g_139>
   12ab5:	44 0f bf e0          	movswl %ax,%r12d
   12ab9:	0f b7 05 a6 75 00 00 	movzwl 0x75a6(%rip),%eax        # 1a066 <g_107>
   12ac0:	0f bf d0             	movswl %ax,%edx
   12ac3:	8b 85 b0 fd ff ff    	mov    -0x250(%rbp),%eax
   12ac9:	31 d0                	xor    %edx,%eax
   12acb:	89 c2                	mov    %eax,%edx
   12acd:	8b 85 9c fd ff ff    	mov    -0x264(%rbp),%eax
   12ad3:	89 c6                	mov    %eax,%esi
   12ad5:	89 d7                	mov    %edx,%edi
   12ad7:	e8 f4 63 ff ff       	callq  8ed0 <safe_sub_func_uint32_t_u_u>
   12adc:	98                   	cwtl   
   12add:	44 89 e6             	mov    %r12d,%esi
   12ae0:	89 c7                	mov    %eax,%edi
   12ae2:	e8 2f 59 ff ff       	callq  8416 <safe_mod_func_int16_t_s_s>
   12ae7:	48 0f bf d0          	movswq %ax,%rdx
   12aeb:	48 8b 85 18 fe ff ff 	mov    -0x1e8(%rbp),%rax
   12af2:	48 89 10             	mov    %rdx,(%rax)
   12af5:	48 8b 85 18 fe ff ff 	mov    -0x1e8(%rbp),%rax
   12afc:	48 8b 10             	mov    (%rax),%rdx
   12aff:	48 0f bf 85 98 fd ff 	movswq -0x268(%rbp),%rax
   12b06:	ff 
   12b07:	48 09 c2             	or     %rax,%rdx
   12b0a:	48 0f bf 85 98 fd ff 	movswq -0x268(%rbp),%rax
   12b11:	ff 
   12b12:	48 39 c2             	cmp    %rax,%rdx
   12b15:	0f 94 c0             	sete   %al
   12b18:	0f b6 c0             	movzbl %al,%eax
   12b1b:	44 31 f0             	xor    %r14d,%eax
   12b1e:	48 98                	cltq   
   12b20:	48 89 de             	mov    %rbx,%rsi
   12b23:	48 89 c7             	mov    %rax,%rdi
   12b26:	e8 84 65 ff ff       	callq  90af <safe_div_func_uint64_t_u_u>
   12b2b:	48 85 c0             	test   %rax,%rax
   12b2e:	74 0b                	je     12b3b <func_91+0x49c>
   12b30:	48 8b 85 d0 fd ff ff 	mov    -0x230(%rbp),%rax
   12b37:	8b 00                	mov    (%rax),%eax
   12b39:	85 c0                	test   %eax,%eax
   12b3b:	48 8b 85 88 fd ff ff 	mov    -0x278(%rbp),%rax
   12b42:	0f be c0             	movsbl %al,%eax
   12b45:	be f9 ff ff ff       	mov    $0xfffffff9,%esi
   12b4a:	89 c7                	mov    %eax,%edi
   12b4c:	e8 c1 56 ff ff       	callq  8212 <safe_mul_func_int8_t_s_s>
   12b51:	84 c0                	test   %al,%al
   12b53:	0f 95 c0             	setne  %al
   12b56:	0f b6 c0             	movzbl %al,%eax
   12b59:	f7 d0                	not    %eax
   12b5b:	48 98                	cltq   
   12b5d:	48 89 c7             	mov    %rax,%rdi
   12b60:	e8 b4 64 ff ff       	callq  9019 <safe_unary_minus_func_uint64_t_u>
   12b65:	89 c2                	mov    %eax,%edx
   12b67:	8b 05 2b 75 00 00    	mov    0x752b(%rip),%eax        # 1a098 <g_147>
   12b6d:	31 d0                	xor    %edx,%eax
   12b6f:	89 05 23 75 00 00    	mov    %eax,0x7523(%rip)        # 1a098 <g_147>
   12b75:	8b 05 1d 75 00 00    	mov    0x751d(%rip),%eax        # 1a098 <g_147>
   12b7b:	48 98                	cltq   
   12b7d:	48 89 c6             	mov    %rax,%rsi
   12b80:	48 bf 4f 55 60 6b 67 	movabs $0xd85202676b60554f,%rdi
   12b87:	02 52 d8 
   12b8a:	e8 68 5e ff ff       	callq  89f7 <safe_div_func_int64_t_s_s>
   12b8f:	4c 89 ea             	mov    %r13,%rdx
   12b92:	48 09 c2             	or     %rax,%rdx
   12b95:	8b 85 bc fd ff ff    	mov    -0x244(%rbp),%eax
   12b9b:	48 98                	cltq   
   12b9d:	48 39 c2             	cmp    %rax,%rdx
   12ba0:	0f 95 c0             	setne  %al
   12ba3:	0f b6 d0             	movzbl %al,%edx
   12ba6:	0f bf 85 98 fd ff ff 	movswl -0x268(%rbp),%eax
   12bad:	39 c2                	cmp    %eax,%edx
   12baf:	0f 8f 7d 01 00 00    	jg     12d32 <func_91+0x693>
   12bb5:	48 b8 bb 1f 3b 76 46 	movabs $0x7a473e46763b1fbb,%rax
   12bbc:	3e 47 7a 
   12bbf:	48 89 85 38 fe ff ff 	mov    %rax,-0x1c8(%rbp)
   12bc6:	48 8d 05 cf 74 00 00 	lea    0x74cf(%rip),%rax        # 1a09c <g_162>
   12bcd:	48 89 85 40 fe ff ff 	mov    %rax,-0x1c0(%rbp)
   12bd4:	48 8d 85 c8 fd ff ff 	lea    -0x238(%rbp),%rax
   12bdb:	48 89 85 48 fe ff ff 	mov    %rax,-0x1b8(%rbp)
   12be2:	48 8d 85 b0 fd ff ff 	lea    -0x250(%rbp),%rax
   12be9:	48 89 85 50 fe ff ff 	mov    %rax,-0x1b0(%rbp)
   12bf0:	48 8b 85 d0 fd ff ff 	mov    -0x230(%rbp),%rax
   12bf7:	8b 00                	mov    (%rax),%eax
   12bf9:	0f b7 d8             	movzwl %ax,%ebx
   12bfc:	0f b7 95 98 fd ff ff 	movzwl -0x268(%rbp),%edx
   12c03:	48 8b 85 40 fe ff ff 	mov    -0x1c0(%rbp),%rax
   12c0a:	66 89 10             	mov    %dx,(%rax)
   12c0d:	48 8b 85 40 fe ff ff 	mov    -0x1c0(%rbp),%rax
   12c14:	0f b7 00             	movzwl (%rax),%eax
   12c17:	0f bf d0             	movswl %ax,%edx
   12c1a:	48 8b 85 38 fe ff ff 	mov    -0x1c8(%rbp),%rax
   12c21:	98                   	cwtl   
   12c22:	89 d6                	mov    %edx,%esi
   12c24:	89 c7                	mov    %eax,%edi
   12c26:	e8 88 57 ff ff       	callq  83b3 <safe_add_func_int16_t_s_s>
   12c2b:	8b 05 43 74 00 00    	mov    0x7443(%rip),%eax        # 1a074 <g_111+0x4>
   12c31:	25 ff ff ff 7f       	and    $0x7fffffff,%eax
   12c36:	85 c0                	test   %eax,%eax
   12c38:	74 1d                	je     12c57 <func_91+0x5b8>
   12c3a:	66 83 bd 98 fd ff ff 	cmpw   $0x0,-0x268(%rbp)
   12c41:	00 
   12c42:	0f 9f c0             	setg   %al
   12c45:	0f b6 c0             	movzbl %al,%eax
   12c48:	89 c6                	mov    %eax,%esi
   12c4a:	bf fd ff ff ff       	mov    $0xfffffffd,%edi
   12c4f:	e8 7f 57 ff ff       	callq  83d3 <safe_sub_func_int16_t_s_s>
   12c54:	66 85 c0             	test   %ax,%ax
   12c57:	8b 85 9c fd ff ff    	mov    -0x264(%rbp),%eax
   12c5d:	be fa ff ff ff       	mov    $0xfffffffa,%esi
   12c62:	89 c7                	mov    %eax,%edi
   12c64:	e8 94 62 ff ff       	callq  8efd <safe_mod_func_uint32_t_u_u>
   12c69:	f7 d0                	not    %eax
   12c6b:	0f b7 c0             	movzwl %ax,%eax
   12c6e:	89 de                	mov    %ebx,%esi
   12c70:	89 c7                	mov    %eax,%edi
   12c72:	e8 17 61 ff ff       	callq  8d8e <safe_div_func_uint16_t_u_u>
   12c77:	0f b7 d0             	movzwl %ax,%edx
   12c7a:	48 8b 85 18 fe ff ff 	mov    -0x1e8(%rbp),%rax
   12c81:	48 89 10             	mov    %rdx,(%rax)
   12c84:	48 8b 85 18 fe ff ff 	mov    -0x1e8(%rbp),%rax
   12c8b:	48 8b 10             	mov    (%rax),%rdx
   12c8e:	48 0f bf 85 98 fd ff 	movswq -0x268(%rbp),%rax
   12c95:	ff 
   12c96:	48 39 c2             	cmp    %rax,%rdx
   12c99:	0f 9e c0             	setle  %al
   12c9c:	0f b6 c0             	movzbl %al,%eax
   12c9f:	be 01 00 00 00       	mov    $0x1,%esi
   12ca4:	89 c7                	mov    %eax,%edi
   12ca6:	e8 6b 57 ff ff       	callq  8416 <safe_mod_func_int16_t_s_s>
   12cab:	48 8b 95 48 fe ff ff 	mov    -0x1b8(%rbp),%rdx
   12cb2:	48 8b 12             	mov    (%rdx),%rdx
   12cb5:	48 0f bf c0          	movswq %ax,%rax
   12cb9:	48 31 c2             	xor    %rax,%rdx
   12cbc:	48 8b 85 48 fe ff ff 	mov    -0x1b8(%rbp),%rax
   12cc3:	48 89 10             	mov    %rdx,(%rax)
   12cc6:	48 8b 85 48 fe ff ff 	mov    -0x1b8(%rbp),%rax
   12ccd:	48 8b 00             	mov    (%rax),%rax
   12cd0:	48 ba 03 ae 82 26 70 	movabs $0x8bb583702682ae03,%rdx
   12cd7:	83 b5 8b 
   12cda:	48 39 d0             	cmp    %rdx,%rax
   12cdd:	0f 95 c0             	setne  %al
   12ce0:	0f b6 d0             	movzbl %al,%edx
   12ce3:	8b 85 bc fd ff ff    	mov    -0x244(%rbp),%eax
   12ce9:	89 c1                	mov    %eax,%ecx
   12ceb:	48 8b 85 10 fe ff ff 	mov    -0x1f0(%rbp),%rax
   12cf2:	66 89 08             	mov    %cx,(%rax)
   12cf5:	48 8b 85 10 fe ff ff 	mov    -0x1f0(%rbp),%rax
   12cfc:	0f b7 00             	movzwl (%rax),%eax
   12cff:	0f b7 c0             	movzwl %ax,%eax
   12d02:	89 d6                	mov    %edx,%esi
   12d04:	89 c7                	mov    %eax,%edi
   12d06:	e8 fb 60 ff ff       	callq  8e06 <safe_lshift_func_uint16_t_u_u>
   12d0b:	48 83 bd 38 fe ff ff 	cmpq   $0x0,-0x1c8(%rbp)
   12d12:	00 
   12d13:	0f 94 c0             	sete   %al
   12d16:	0f b6 d0             	movzbl %al,%edx
   12d19:	48 8b 85 50 fe ff ff 	mov    -0x1b0(%rbp),%rax
   12d20:	8b 00                	mov    (%rax),%eax
   12d22:	21 c2                	and    %eax,%edx
   12d24:	48 8b 85 50 fe ff ff 	mov    -0x1b0(%rbp),%rax
   12d2b:	89 10                	mov    %edx,(%rax)
   12d2d:	e9 50 02 00 00       	jmpq   12f82 <func_91+0x8e3>
   12d32:	c7 85 c0 fd ff ff 6d 	movl   $0xabbee46d,-0x240(%rbp)
   12d39:	e4 be ab 
   12d3c:	c7 85 c4 fd ff ff 09 	movl   $0x9,-0x23c(%rbp)
   12d43:	00 00 00 
   12d46:	48 b8 59 92 4e 5d 60 	movabs $0x88158d605d4e9259,%rax
   12d4d:	8d 15 88 
   12d50:	48 89 85 28 fe ff ff 	mov    %rax,-0x1d8(%rbp)
   12d57:	48 c7 85 30 fe ff ff 	movq   $0x0,-0x1d0(%rbp)
   12d5e:	00 00 00 00 
   12d62:	c7 85 b8 fd ff ff 00 	movl   $0x0,-0x248(%rbp)
   12d69:	00 00 00 
   12d6c:	eb 1e                	jmp    12d8c <func_91+0x6ed>
   12d6e:	8b 85 b8 fd ff ff    	mov    -0x248(%rbp),%eax
   12d74:	48 98                	cltq   
   12d76:	48 8d 15 23 73 00 00 	lea    0x7323(%rip),%rdx        # 1a0a0 <g_183>
   12d7d:	48 89 94 c5 60 fe ff 	mov    %rdx,-0x1a0(%rbp,%rax,8)
   12d84:	ff 
   12d85:	83 85 b8 fd ff ff 01 	addl   $0x1,-0x248(%rbp)
   12d8c:	83 bd b8 fd ff ff 01 	cmpl   $0x1,-0x248(%rbp)
   12d93:	7e d9                	jle    12d6e <func_91+0x6cf>
   12d95:	8b 85 bc fd ff ff    	mov    -0x244(%rbp),%eax
   12d9b:	0f b7 d8             	movzwl %ax,%ebx
   12d9e:	44 8b 2d 83 72 00 00 	mov    0x7283(%rip),%r13d        # 1a028 <g_3>
   12da5:	8b 85 bc fd ff ff    	mov    -0x244(%rbp),%eax
   12dab:	44 0f b7 e0          	movzwl %ax,%r12d
   12daf:	48 8b 85 88 fd ff ff 	mov    -0x278(%rbp),%rax
   12db6:	0f be d0             	movsbl %al,%edx
   12db9:	48 8b 85 d0 fd ff ff 	mov    -0x230(%rbp),%rax
   12dc0:	8b 00                	mov    (%rax),%eax
   12dc2:	39 85 c0 fd ff ff    	cmp    %eax,-0x240(%rbp)
   12dc8:	0f 9e c0             	setle  %al
   12dcb:	0f b6 c0             	movzbl %al,%eax
   12dce:	89 d6                	mov    %edx,%esi
   12dd0:	89 c7                	mov    %eax,%edi
   12dd2:	e8 1b 54 ff ff       	callq  81f2 <safe_sub_func_int8_t_s_s>
   12dd7:	66 98                	cbtw   
   12dd9:	66 39 85 98 fd ff ff 	cmp    %ax,-0x268(%rbp)
   12de0:	0f 9e c0             	setle  %al
   12de3:	0f b6 d0             	movzbl %al,%edx
   12de6:	8b 05 3c 72 00 00    	mov    0x723c(%rip),%eax        # 1a028 <g_3>
   12dec:	39 c2                	cmp    %eax,%edx
   12dee:	0f 94 c0             	sete   %al
   12df1:	0f b6 c0             	movzbl %al,%eax
   12df4:	be a5 71 00 00       	mov    $0x71a5,%esi
   12df9:	89 c7                	mov    %eax,%edi
   12dfb:	e8 5c 5f ff ff       	callq  8d5c <safe_mod_func_uint16_t_u_u>
   12e00:	48 8b 85 d0 fd ff ff 	mov    -0x230(%rbp),%rax
   12e07:	8b 00                	mov    (%rax),%eax
   12e09:	3d d8 00 00 00       	cmp    $0xd8,%eax
   12e0e:	0f 9f c0             	setg   %al
   12e11:	0f b6 c0             	movzbl %al,%eax
   12e14:	44 89 e6             	mov    %r12d,%esi
   12e17:	89 c7                	mov    %eax,%edi
   12e19:	e8 1f 5f ff ff       	callq  8d3d <safe_mul_func_uint16_t_u_u>
   12e1e:	0f b7 c0             	movzwl %ax,%eax
   12e21:	41 39 c5             	cmp    %eax,%r13d
   12e24:	0f 9c c0             	setl   %al
   12e27:	0f b6 d0             	movzbl %al,%edx
   12e2a:	48 8b 85 d0 fd ff ff 	mov    -0x230(%rbp),%rax
   12e31:	8b 00                	mov    (%rax),%eax
   12e33:	39 c2                	cmp    %eax,%edx
   12e35:	0f 9c c0             	setl   %al
   12e38:	0f b6 d0             	movzbl %al,%edx
   12e3b:	48 8b 85 d0 fd ff ff 	mov    -0x230(%rbp),%rax
   12e42:	8b 00                	mov    (%rax),%eax
   12e44:	21 d0                	and    %edx,%eax
   12e46:	0f b7 c0             	movzwl %ax,%eax
   12e49:	89 de                	mov    %ebx,%esi
   12e4b:	89 c7                	mov    %eax,%edi
   12e4d:	e8 ad 5e ff ff       	callq  8cff <safe_add_func_uint16_t_u_u>
   12e52:	0f bf d0             	movswl %ax,%edx
   12e55:	48 83 bd 20 fe ff ff 	cmpq   $0x0,-0x1e0(%rbp)
   12e5c:	00 
   12e5d:	0f 95 c0             	setne  %al
   12e60:	89 c1                	mov    %eax,%ecx
   12e62:	0f b6 05 35 72 00 00 	movzbl 0x7235(%rip),%eax        # 1a09e <g_169>
   12e69:	09 c8                	or     %ecx,%eax
   12e6b:	88 05 2d 72 00 00    	mov    %al,0x722d(%rip)        # 1a09e <g_169>
   12e71:	0f bf 85 98 fd ff ff 	movswl -0x268(%rbp),%eax
   12e78:	89 d6                	mov    %edx,%esi
   12e7a:	89 c7                	mov    %eax,%edi
   12e7c:	e8 74 55 ff ff       	callq  83f5 <safe_mul_func_int16_t_s_s>
   12e81:	8b 95 58 fe ff ff    	mov    -0x1a8(%rbp),%edx
   12e87:	98                   	cwtl   
   12e88:	09 d0                	or     %edx,%eax
   12e8a:	89 85 58 fe ff ff    	mov    %eax,-0x1a8(%rbp)
   12e90:	8b 85 58 fe ff ff    	mov    -0x1a8(%rbp),%eax
   12e96:	0f bf d0             	movswl %ax,%edx
   12e99:	8b 8d 9c fd ff ff    	mov    -0x264(%rbp),%ecx
   12e9f:	48 8b 85 88 fd ff ff 	mov    -0x278(%rbp),%rax
   12ea6:	48 39 c1             	cmp    %rax,%rcx
   12ea9:	7f 10                	jg     12ebb <func_91+0x81c>
   12eab:	83 bd c0 fd ff ff 00 	cmpl   $0x0,-0x240(%rbp)
   12eb2:	74 07                	je     12ebb <func_91+0x81c>
   12eb4:	b8 01 00 00 00       	mov    $0x1,%eax
   12eb9:	eb 05                	jmp    12ec0 <func_91+0x821>
   12ebb:	b8 00 00 00 00       	mov    $0x0,%eax
   12ec0:	98                   	cwtl   
   12ec1:	89 d6                	mov    %edx,%esi
   12ec3:	89 c7                	mov    %eax,%edi
   12ec5:	e8 e9 54 ff ff       	callq  83b3 <safe_add_func_int16_t_s_s>
   12eca:	98                   	cwtl   
   12ecb:	89 05 cf 71 00 00    	mov    %eax,0x71cf(%rip)        # 1a0a0 <g_183>
   12ed1:	48 8b 85 88 fd ff ff 	mov    -0x278(%rbp),%rax
   12ed8:	48 83 f8 01          	cmp    $0x1,%rax
   12edc:	81 bd 9c fd ff ff 2f 	cmpl   $0x4dd1cc2f,-0x264(%rbp)
   12ee3:	cc d1 4d 
   12ee6:	0f 97 c0             	seta   %al
   12ee9:	0f b6 d0             	movzbl %al,%edx
   12eec:	8b 85 9c fd ff ff    	mov    -0x264(%rbp),%eax
   12ef2:	48 39 c2             	cmp    %rax,%rdx
   12ef5:	0f 95 c0             	setne  %al
   12ef8:	0f b6 d0             	movzbl %al,%edx
   12efb:	0f bf 85 98 fd ff ff 	movswl -0x268(%rbp),%eax
   12f02:	f7 d0                	not    %eax
   12f04:	89 c1                	mov    %eax,%ecx
   12f06:	48 8b 85 d0 fd ff ff 	mov    -0x230(%rbp),%rax
   12f0d:	89 08                	mov    %ecx,(%rax)
   12f0f:	48 8b 85 d0 fd ff ff 	mov    -0x230(%rbp),%rax
   12f16:	8b 00                	mov    (%rax),%eax
   12f18:	89 d6                	mov    %edx,%esi
   12f1a:	89 c7                	mov    %eax,%edi
   12f1c:	e8 ab 57 ff ff       	callq  86cc <safe_mod_func_int32_t_s_s>
   12f21:	48 63 d0             	movslq %eax,%rdx
   12f24:	48 8b 85 88 fd ff ff 	mov    -0x278(%rbp),%rax
   12f2b:	48 39 c2             	cmp    %rax,%rdx
   12f2e:	7c 10                	jl     12f40 <func_91+0x8a1>
   12f30:	83 bd 9c fd ff ff 00 	cmpl   $0x0,-0x264(%rbp)
   12f37:	74 07                	je     12f40 <func_91+0x8a1>
   12f39:	b8 01 00 00 00       	mov    $0x1,%eax
   12f3e:	eb 05                	jmp    12f45 <func_91+0x8a6>
   12f40:	b8 00 00 00 00       	mov    $0x0,%eax
   12f45:	48 63 d0             	movslq %eax,%rdx
   12f48:	48 8b 85 20 fe ff ff 	mov    -0x1e0(%rbp),%rax
   12f4f:	48 89 10             	mov    %rdx,(%rax)
   12f52:	48 8b 85 20 fe ff ff 	mov    -0x1e0(%rbp),%rax
   12f59:	48 8b 00             	mov    (%rax),%rax
   12f5c:	48 85 c0             	test   %rax,%rax
   12f5f:	74 13                	je     12f74 <func_91+0x8d5>
   12f61:	48 8b 85 88 fd ff ff 	mov    -0x278(%rbp),%rax
   12f68:	48 85 c0             	test   %rax,%rax
   12f6b:	74 07                	je     12f74 <func_91+0x8d5>
   12f6d:	ba 01 00 00 00       	mov    $0x1,%edx
   12f72:	eb 05                	jmp    12f79 <func_91+0x8da>
   12f74:	ba 00 00 00 00       	mov    $0x0,%edx
   12f79:	48 8b 05 b0 99 00 00 	mov    0x99b0(%rip),%rax        # 1c930 <g_195>
   12f80:	89 10                	mov    %edx,(%rax)
   12f82:	8b 85 58 fe ff ff    	mov    -0x1a8(%rbp),%eax
   12f88:	48 8b 95 88 fd ff ff 	mov    -0x278(%rbp),%rdx
   12f8f:	09 d0                	or     %edx,%eax
   12f91:	89 85 58 fe ff ff    	mov    %eax,-0x1a8(%rbp)
   12f97:	0f b7 85 98 fd ff ff 	movzwl -0x268(%rbp),%eax
   12f9e:	0f b6 c0             	movzbl %al,%eax
   12fa1:	be 04 00 00 00       	mov    $0x4,%esi
   12fa6:	89 c7                	mov    %eax,%edi
   12fa8:	e8 cb 5b ff ff       	callq  8b78 <safe_sub_func_uint8_t_u_u>
   12fad:	0f b6 c0             	movzbl %al,%eax
   12fb0:	66 89 85 98 fd ff ff 	mov    %ax,-0x268(%rbp)
   12fb7:	66 83 bd 98 fd ff ff 	cmpw   $0xfff8,-0x268(%rbp)
   12fbe:	f8 
   12fbf:	0f 84 1e fa ff ff    	je     129e3 <func_91+0x344>
   12fc5:	48 83 ad 00 fe ff ff 	subq   $0x1,-0x200(%rbp)
   12fcc:	01 
   12fcd:	48 8b 05 5c 99 00 00 	mov    0x995c(%rip),%rax        # 1c930 <g_195>
   12fd4:	8b 00                	mov    (%rax),%eax
   12fd6:	48 8b 5d d8          	mov    -0x28(%rbp),%rbx
   12fda:	64 48 33 1c 25 28 00 	xor    %fs:0x28,%rbx
   12fe1:	00 00 
   12fe3:	74 05                	je     12fea <func_91+0x94b>
   12fe5:	e8 86 50 ff ff       	callq  8070 <__stack_chk_fail@plt>
   12fea:	48 81 c4 60 02 00 00 	add    $0x260,%rsp
   12ff1:	5b                   	pop    %rbx
   12ff2:	41 5c                	pop    %r12
   12ff4:	41 5d                	pop    %r13
   12ff6:	41 5e                	pop    %r14
   12ff8:	5d                   	pop    %rbp
   12ff9:	c3                   	retq   

0000000000012ffa <main>:
   12ffa:	f3 0f 1e fa          	endbr64 
   12ffe:	55                   	push   %rbp
   12fff:	48 89 e5             	mov    %rsp,%rbp
   13002:	48 83 ec 20          	sub    $0x20,%rsp
   13006:	89 7d ec             	mov    %edi,-0x14(%rbp)
   13009:	48 89 75 e0          	mov    %rsi,-0x20(%rbp)
   1300d:	c7 45 fc 00 00 00 00 	movl   $0x0,-0x4(%rbp)
   13014:	83 7d ec 02          	cmpl   $0x2,-0x14(%rbp)
   13018:	75 25                	jne    1303f <main+0x45>
   1301a:	48 8b 45 e0          	mov    -0x20(%rbp),%rax
   1301e:	48 83 c0 08          	add    $0x8,%rax
   13022:	48 8b 00             	mov    (%rax),%rax
   13025:	48 8d 35 f4 36 00 00 	lea    0x36f4(%rip),%rsi        # 16720 <g_2427+0x16b0>
   1302c:	48 89 c7             	mov    %rax,%rdi
   1302f:	e8 5c 50 ff ff       	callq  8090 <strcmp@plt>
   13034:	85 c0                	test   %eax,%eax
   13036:	75 07                	jne    1303f <main+0x45>
   13038:	c7 45 fc 01 00 00 00 	movl   $0x1,-0x4(%rbp)
   1303f:	e8 45 51 ff ff       	callq  8189 <platform_main_begin>
   13044:	e8 4f 65 ff ff       	callq  9598 <crc32_gentab>
   13049:	e8 67 67 ff ff       	callq  97b5 <func_1>
   1304e:	8b 05 d0 6f 00 00    	mov    0x6fd0(%rip),%eax        # 1a024 <g_2>
   13054:	48 98                	cltq   
   13056:	8b 55 fc             	mov    -0x4(%rbp),%edx
   13059:	48 8d 35 c2 36 00 00 	lea    0x36c2(%rip),%rsi        # 16722 <g_2427+0x16b2>
   13060:	48 89 c7             	mov    %rax,%rdi
   13063:	e8 8b 66 ff ff       	callq  96f3 <transparent_crc>
   13068:	c7 45 f0 00 00 00 00 	movl   $0x0,-0x10(%rbp)
   1306f:	eb 4b                	jmp    130bc <main+0xc2>
   13071:	8b 45 f0             	mov    -0x10(%rbp),%eax
   13074:	48 98                	cltq   
   13076:	48 8d 14 85 00 00 00 	lea    0x0(,%rax,4),%rdx
   1307d:	00 
   1307e:	48 8d 05 a3 6f 00 00 	lea    0x6fa3(%rip),%rax        # 1a028 <g_3>
   13085:	8b 04 02             	mov    (%rdx,%rax,1),%eax
   13088:	48 98                	cltq   
   1308a:	8b 55 fc             	mov    -0x4(%rbp),%edx
   1308d:	48 8d 35 92 36 00 00 	lea    0x3692(%rip),%rsi        # 16726 <g_2427+0x16b6>
   13094:	48 89 c7             	mov    %rax,%rdi
   13097:	e8 57 66 ff ff       	callq  96f3 <transparent_crc>
   1309c:	83 7d fc 00          	cmpl   $0x0,-0x4(%rbp)
   130a0:	74 16                	je     130b8 <main+0xbe>
   130a2:	8b 45 f0             	mov    -0x10(%rbp),%eax
   130a5:	89 c6                	mov    %eax,%esi
   130a7:	48 8d 3d 7f 36 00 00 	lea    0x367f(%rip),%rdi        # 1672d <g_2427+0x16bd>
   130ae:	b8 00 00 00 00       	mov    $0x0,%eax
   130b3:	e8 c8 4f ff ff       	callq  8080 <printf@plt>
   130b8:	83 45 f0 01          	addl   $0x1,-0x10(%rbp)
   130bc:	83 7d f0 01          	cmpl   $0x1,-0x10(%rbp)
   130c0:	7e af                	jle    13071 <main+0x77>
   130c2:	8b 05 68 6f 00 00    	mov    0x6f68(%rip),%eax        # 1a030 <g_6>
   130c8:	48 98                	cltq   
   130ca:	8b 55 fc             	mov    -0x4(%rbp),%edx
   130cd:	48 8d 35 67 36 00 00 	lea    0x3667(%rip),%rsi        # 1673b <g_2427+0x16cb>
   130d4:	48 89 c7             	mov    %rax,%rdi
   130d7:	e8 17 66 ff ff       	callq  96f3 <transparent_crc>
   130dc:	8b 05 52 6f 00 00    	mov    0x6f52(%rip),%eax        # 1a034 <g_10>
   130e2:	48 98                	cltq   
   130e4:	8b 55 fc             	mov    -0x4(%rbp),%edx
   130e7:	48 8d 35 51 36 00 00 	lea    0x3651(%rip),%rsi        # 1673f <g_2427+0x16cf>
   130ee:	48 89 c7             	mov    %rax,%rdi
   130f1:	e8 fd 65 ff ff       	callq  96f3 <transparent_crc>
   130f6:	0f b6 05 3b 6f 00 00 	movzbl 0x6f3b(%rip),%eax        # 1a038 <g_20>
   130fd:	48 0f be c0          	movsbq %al,%rax
   13101:	8b 55 fc             	mov    -0x4(%rbp),%edx
   13104:	48 8d 35 39 36 00 00 	lea    0x3639(%rip),%rsi        # 16744 <g_2427+0x16d4>
   1310b:	48 89 c7             	mov    %rax,%rdi
   1310e:	e8 e0 65 ff ff       	callq  96f3 <transparent_crc>
   13113:	8b 05 23 6f 00 00    	mov    0x6f23(%rip),%eax        # 1a03c <g_56>
   13119:	48 98                	cltq   
   1311b:	8b 55 fc             	mov    -0x4(%rbp),%edx
   1311e:	48 8d 35 24 36 00 00 	lea    0x3624(%rip),%rsi        # 16749 <g_2427+0x16d9>
   13125:	48 89 c7             	mov    %rax,%rdi
   13128:	e8 c6 65 ff ff       	callq  96f3 <transparent_crc>
   1312d:	c7 45 f0 00 00 00 00 	movl   $0x0,-0x10(%rbp)
   13134:	eb 4b                	jmp    13181 <main+0x187>
   13136:	8b 45 f0             	mov    -0x10(%rbp),%eax
   13139:	48 98                	cltq   
   1313b:	48 8d 14 85 00 00 00 	lea    0x0(,%rax,4),%rdx
   13142:	00 
   13143:	48 8d 05 f6 6e 00 00 	lea    0x6ef6(%rip),%rax        # 1a040 <g_62>
   1314a:	8b 04 02             	mov    (%rdx,%rax,1),%eax
   1314d:	48 98                	cltq   
   1314f:	8b 55 fc             	mov    -0x4(%rbp),%edx
   13152:	48 8d 35 f5 35 00 00 	lea    0x35f5(%rip),%rsi        # 1674e <g_2427+0x16de>
   13159:	48 89 c7             	mov    %rax,%rdi
   1315c:	e8 92 65 ff ff       	callq  96f3 <transparent_crc>
   13161:	83 7d fc 00          	cmpl   $0x0,-0x4(%rbp)
   13165:	74 16                	je     1317d <main+0x183>
   13167:	8b 45 f0             	mov    -0x10(%rbp),%eax
   1316a:	89 c6                	mov    %eax,%esi
   1316c:	48 8d 3d ba 35 00 00 	lea    0x35ba(%rip),%rdi        # 1672d <g_2427+0x16bd>
   13173:	b8 00 00 00 00       	mov    $0x0,%eax
   13178:	e8 03 4f ff ff       	callq  8080 <printf@plt>
   1317d:	83 45 f0 01          	addl   $0x1,-0x10(%rbp)
   13181:	83 7d f0 08          	cmpl   $0x8,-0x10(%rbp)
   13185:	7e af                	jle    13136 <main+0x13c>
   13187:	0f b7 05 d6 6e 00 00 	movzwl 0x6ed6(%rip),%eax        # 1a064 <g_100>
   1318e:	48 0f bf c0          	movswq %ax,%rax
   13192:	8b 55 fc             	mov    -0x4(%rbp),%edx
   13195:	48 8d 35 ba 35 00 00 	lea    0x35ba(%rip),%rsi        # 16756 <g_2427+0x16e6>
   1319c:	48 89 c7             	mov    %rax,%rdi
   1319f:	e8 4f 65 ff ff       	callq  96f3 <transparent_crc>
   131a4:	0f b7 05 bb 6e 00 00 	movzwl 0x6ebb(%rip),%eax        # 1a066 <g_107>
   131ab:	48 0f bf c0          	movswq %ax,%rax
   131af:	8b 55 fc             	mov    -0x4(%rbp),%edx
   131b2:	48 8d 35 a3 35 00 00 	lea    0x35a3(%rip),%rsi        # 1675c <g_2427+0x16ec>
   131b9:	48 89 c7             	mov    %rax,%rdi
   131bc:	e8 32 65 ff ff       	callq  96f3 <transparent_crc>
   131c1:	48 8b 05 a0 6e 00 00 	mov    0x6ea0(%rip),%rax        # 1a068 <g_109>
   131c8:	48 89 c1             	mov    %rax,%rcx
   131cb:	8b 45 fc             	mov    -0x4(%rbp),%eax
   131ce:	89 c2                	mov    %eax,%edx
   131d0:	48 8d 35 8b 35 00 00 	lea    0x358b(%rip),%rsi        # 16762 <g_2427+0x16f2>
   131d7:	48 89 cf             	mov    %rcx,%rdi
   131da:	e8 14 65 ff ff       	callq  96f3 <transparent_crc>
   131df:	0f b6 05 8a 6e 00 00 	movzbl 0x6e8a(%rip),%eax        # 1a070 <g_111>
   131e6:	48 0f be c0          	movsbq %al,%rax
   131ea:	8b 55 fc             	mov    -0x4(%rbp),%edx
   131ed:	48 8d 35 74 35 00 00 	lea    0x3574(%rip),%rsi        # 16768 <g_2427+0x16f8>
   131f4:	48 89 c7             	mov    %rax,%rdi
   131f7:	e8 f7 64 ff ff       	callq  96f3 <transparent_crc>
   131fc:	8b 05 72 6e 00 00    	mov    0x6e72(%rip),%eax        # 1a074 <g_111+0x4>
   13202:	25 ff ff ff 7f       	and    $0x7fffffff,%eax
   13207:	89 c1                	mov    %eax,%ecx
   13209:	8b 45 fc             	mov    -0x4(%rbp),%eax
   1320c:	89 c2                	mov    %eax,%edx
   1320e:	48 8d 35 5c 35 00 00 	lea    0x355c(%rip),%rsi        # 16771 <g_2427+0x1701>
   13215:	48 89 cf             	mov    %rcx,%rdi
   13218:	e8 d6 64 ff ff       	callq  96f3 <transparent_crc>
   1321d:	0f b6 05 54 6e 00 00 	movzbl 0x6e54(%rip),%eax        # 1a078 <g_111+0x8>
   13224:	c1 e0 02             	shl    $0x2,%eax
   13227:	c0 f8 02             	sar    $0x2,%al
   1322a:	48 0f be c0          	movsbq %al,%rax
   1322e:	8b 55 fc             	mov    -0x4(%rbp),%edx
   13231:	48 8d 35 42 35 00 00 	lea    0x3542(%rip),%rsi        # 1677a <g_2427+0x170a>
   13238:	48 89 c7             	mov    %rax,%rdi
   1323b:	e8 b3 64 ff ff       	callq  96f3 <transparent_crc>
   13240:	0f b6 05 39 6e 00 00 	movzbl 0x6e39(%rip),%eax        # 1a080 <g_117>
   13247:	48 0f be c0          	movsbq %al,%rax
   1324b:	8b 55 fc             	mov    -0x4(%rbp),%edx
   1324e:	48 8d 35 2e 35 00 00 	lea    0x352e(%rip),%rsi        # 16783 <g_2427+0x1713>
   13255:	48 89 c7             	mov    %rax,%rdi
   13258:	e8 96 64 ff ff       	callq  96f3 <transparent_crc>
   1325d:	8b 05 21 6e 00 00    	mov    0x6e21(%rip),%eax        # 1a084 <g_117+0x4>
   13263:	25 ff ff ff 7f       	and    $0x7fffffff,%eax
   13268:	89 c1                	mov    %eax,%ecx
   1326a:	8b 45 fc             	mov    -0x4(%rbp),%eax
   1326d:	89 c2                	mov    %eax,%edx
   1326f:	48 8d 35 16 35 00 00 	lea    0x3516(%rip),%rsi        # 1678c <g_2427+0x171c>
   13276:	48 89 cf             	mov    %rcx,%rdi
   13279:	e8 75 64 ff ff       	callq  96f3 <transparent_crc>
   1327e:	0f b6 05 03 6e 00 00 	movzbl 0x6e03(%rip),%eax        # 1a088 <g_117+0x8>
   13285:	c1 e0 02             	shl    $0x2,%eax
   13288:	c0 f8 02             	sar    $0x2,%al
   1328b:	48 0f be c0          	movsbq %al,%rax
   1328f:	8b 55 fc             	mov    -0x4(%rbp),%edx
   13292:	48 8d 35 fc 34 00 00 	lea    0x34fc(%rip),%rsi        # 16795 <g_2427+0x1725>
   13299:	48 89 c7             	mov    %rax,%rdi
   1329c:	e8 52 64 ff ff       	callq  96f3 <transparent_crc>
   132a1:	0f b7 05 e4 6d 00 00 	movzwl 0x6de4(%rip),%eax        # 1a08c <g_136>
   132a8:	0f b7 c0             	movzwl %ax,%eax
   132ab:	8b 55 fc             	mov    -0x4(%rbp),%edx
   132ae:	48 8d 35 e9 34 00 00 	lea    0x34e9(%rip),%rsi        # 1679e <g_2427+0x172e>
   132b5:	48 89 c7             	mov    %rax,%rdi
   132b8:	e8 36 64 ff ff       	callq  96f3 <transparent_crc>
   132bd:	48 8b 05 cc 6d 00 00 	mov    0x6dcc(%rip),%rax        # 1a090 <g_139>
   132c4:	8b 55 fc             	mov    -0x4(%rbp),%edx
   132c7:	48 8d 35 d6 34 00 00 	lea    0x34d6(%rip),%rsi        # 167a4 <g_2427+0x1734>
   132ce:	48 89 c7             	mov    %rax,%rdi
   132d1:	e8 1d 64 ff ff       	callq  96f3 <transparent_crc>
   132d6:	8b 05 bc 6d 00 00    	mov    0x6dbc(%rip),%eax        # 1a098 <g_147>
   132dc:	48 98                	cltq   
   132de:	8b 55 fc             	mov    -0x4(%rbp),%edx
   132e1:	48 8d 35 c2 34 00 00 	lea    0x34c2(%rip),%rsi        # 167aa <g_2427+0x173a>
   132e8:	48 89 c7             	mov    %rax,%rdi
   132eb:	e8 03 64 ff ff       	callq  96f3 <transparent_crc>
   132f0:	0f b7 05 a5 6d 00 00 	movzwl 0x6da5(%rip),%eax        # 1a09c <g_162>
   132f7:	0f b7 c0             	movzwl %ax,%eax
   132fa:	8b 55 fc             	mov    -0x4(%rbp),%edx
   132fd:	48 8d 35 ac 34 00 00 	lea    0x34ac(%rip),%rsi        # 167b0 <g_2427+0x1740>
   13304:	48 89 c7             	mov    %rax,%rdi
   13307:	e8 e7 63 ff ff       	callq  96f3 <transparent_crc>
   1330c:	0f b6 05 8b 6d 00 00 	movzbl 0x6d8b(%rip),%eax        # 1a09e <g_169>
   13313:	48 0f be c0          	movsbq %al,%rax
   13317:	8b 55 fc             	mov    -0x4(%rbp),%edx
   1331a:	48 8d 35 95 34 00 00 	lea    0x3495(%rip),%rsi        # 167b6 <g_2427+0x1746>
   13321:	48 89 c7             	mov    %rax,%rdi
   13324:	e8 ca 63 ff ff       	callq  96f3 <transparent_crc>
   13329:	8b 05 71 6d 00 00    	mov    0x6d71(%rip),%eax        # 1a0a0 <g_183>
   1332f:	89 c1                	mov    %eax,%ecx
   13331:	8b 45 fc             	mov    -0x4(%rbp),%eax
   13334:	89 c2                	mov    %eax,%edx
   13336:	48 8d 35 7f 34 00 00 	lea    0x347f(%rip),%rsi        # 167bc <g_2427+0x174c>
   1333d:	48 89 cf             	mov    %rcx,%rdi
   13340:	e8 ae 63 ff ff       	callq  96f3 <transparent_crc>
   13345:	8b 05 59 6d 00 00    	mov    0x6d59(%rip),%eax        # 1a0a4 <g_206>
   1334b:	48 98                	cltq   
   1334d:	8b 55 fc             	mov    -0x4(%rbp),%edx
   13350:	48 8d 35 6b 34 00 00 	lea    0x346b(%rip),%rsi        # 167c2 <g_2427+0x1752>
   13357:	48 89 c7             	mov    %rax,%rdi
   1335a:	e8 94 63 ff ff       	callq  96f3 <transparent_crc>
   1335f:	8b 05 43 6d 00 00    	mov    0x6d43(%rip),%eax        # 1a0a8 <g_207>
   13365:	48 98                	cltq   
   13367:	8b 55 fc             	mov    -0x4(%rbp),%edx
   1336a:	48 8d 35 57 34 00 00 	lea    0x3457(%rip),%rsi        # 167c8 <g_2427+0x1758>
   13371:	48 89 c7             	mov    %rax,%rdi
   13374:	e8 7a 63 ff ff       	callq  96f3 <transparent_crc>
   13379:	0f b6 05 30 6d 00 00 	movzbl 0x6d30(%rip),%eax        # 1a0b0 <g_224>
   13380:	48 0f be c0          	movsbq %al,%rax
   13384:	8b 55 fc             	mov    -0x4(%rbp),%edx
   13387:	48 8d 35 40 34 00 00 	lea    0x3440(%rip),%rsi        # 167ce <g_2427+0x175e>
   1338e:	48 89 c7             	mov    %rax,%rdi
   13391:	e8 5d 63 ff ff       	callq  96f3 <transparent_crc>
   13396:	8b 05 18 6d 00 00    	mov    0x6d18(%rip),%eax        # 1a0b4 <g_224+0x4>
   1339c:	25 ff ff ff 7f       	and    $0x7fffffff,%eax
   133a1:	89 c1                	mov    %eax,%ecx
   133a3:	8b 45 fc             	mov    -0x4(%rbp),%eax
   133a6:	89 c2                	mov    %eax,%edx
   133a8:	48 8d 35 28 34 00 00 	lea    0x3428(%rip),%rsi        # 167d7 <g_2427+0x1767>
   133af:	48 89 cf             	mov    %rcx,%rdi
   133b2:	e8 3c 63 ff ff       	callq  96f3 <transparent_crc>
   133b7:	0f b6 05 fa 6c 00 00 	movzbl 0x6cfa(%rip),%eax        # 1a0b8 <g_224+0x8>
   133be:	c1 e0 02             	shl    $0x2,%eax
   133c1:	c0 f8 02             	sar    $0x2,%al
   133c4:	48 0f be c0          	movsbq %al,%rax
   133c8:	8b 55 fc             	mov    -0x4(%rbp),%edx
   133cb:	48 8d 35 0e 34 00 00 	lea    0x340e(%rip),%rsi        # 167e0 <g_2427+0x1770>
   133d2:	48 89 c7             	mov    %rax,%rdi
   133d5:	e8 19 63 ff ff       	callq  96f3 <transparent_crc>
   133da:	8b 05 dc 6c 00 00    	mov    0x6cdc(%rip),%eax        # 1a0bc <g_228>
   133e0:	89 c1                	mov    %eax,%ecx
   133e2:	8b 45 fc             	mov    -0x4(%rbp),%eax
   133e5:	89 c2                	mov    %eax,%edx
   133e7:	48 8d 35 fb 33 00 00 	lea    0x33fb(%rip),%rsi        # 167e9 <g_2427+0x1779>
   133ee:	48 89 cf             	mov    %rcx,%rdi
   133f1:	e8 fd 62 ff ff       	callq  96f3 <transparent_crc>
   133f6:	0f b6 05 c3 6c 00 00 	movzbl 0x6cc3(%rip),%eax        # 1a0c0 <g_251>
   133fd:	0f b6 c0             	movzbl %al,%eax
   13400:	8b 55 fc             	mov    -0x4(%rbp),%edx
   13403:	48 8d 35 e5 33 00 00 	lea    0x33e5(%rip),%rsi        # 167ef <g_2427+0x177f>
   1340a:	48 89 c7             	mov    %rax,%rdi
   1340d:	e8 e1 62 ff ff       	callq  96f3 <transparent_crc>
   13412:	0f b6 05 a8 6c 00 00 	movzbl 0x6ca8(%rip),%eax        # 1a0c1 <g_277>
   13419:	0f b6 c0             	movzbl %al,%eax
   1341c:	8b 55 fc             	mov    -0x4(%rbp),%edx
   1341f:	48 8d 35 cf 33 00 00 	lea    0x33cf(%rip),%rsi        # 167f5 <g_2427+0x1785>
   13426:	48 89 c7             	mov    %rax,%rdi
   13429:	e8 c5 62 ff ff       	callq  96f3 <transparent_crc>
   1342e:	0f b6 05 8d 6c 00 00 	movzbl 0x6c8d(%rip),%eax        # 1a0c2 <g_304>
   13435:	48 0f be c0          	movsbq %al,%rax
   13439:	8b 55 fc             	mov    -0x4(%rbp),%edx
   1343c:	48 8d 35 b8 33 00 00 	lea    0x33b8(%rip),%rsi        # 167fb <g_2427+0x178b>
   13443:	48 89 c7             	mov    %rax,%rdi
   13446:	e8 a8 62 ff ff       	callq  96f3 <transparent_crc>
   1344b:	0f b6 05 76 6c 00 00 	movzbl 0x6c76(%rip),%eax        # 1a0c8 <g_355>
   13452:	48 0f be c0          	movsbq %al,%rax
   13456:	8b 55 fc             	mov    -0x4(%rbp),%edx
   13459:	48 8d 35 a1 33 00 00 	lea    0x33a1(%rip),%rsi        # 16801 <g_2427+0x1791>
   13460:	48 89 c7             	mov    %rax,%rdi
   13463:	e8 8b 62 ff ff       	callq  96f3 <transparent_crc>
   13468:	8b 05 5e 6c 00 00    	mov    0x6c5e(%rip),%eax        # 1a0cc <g_355+0x4>
   1346e:	25 ff ff ff 7f       	and    $0x7fffffff,%eax
   13473:	89 c1                	mov    %eax,%ecx
   13475:	8b 45 fc             	mov    -0x4(%rbp),%eax
   13478:	89 c2                	mov    %eax,%edx
   1347a:	48 8d 35 89 33 00 00 	lea    0x3389(%rip),%rsi        # 1680a <g_2427+0x179a>
   13481:	48 89 cf             	mov    %rcx,%rdi
   13484:	e8 6a 62 ff ff       	callq  96f3 <transparent_crc>
   13489:	0f b6 05 40 6c 00 00 	movzbl 0x6c40(%rip),%eax        # 1a0d0 <g_355+0x8>
   13490:	c1 e0 02             	shl    $0x2,%eax
   13493:	c0 f8 02             	sar    $0x2,%al
   13496:	48 0f be c0          	movsbq %al,%rax
   1349a:	8b 55 fc             	mov    -0x4(%rbp),%edx
   1349d:	48 8d 35 6f 33 00 00 	lea    0x336f(%rip),%rsi        # 16813 <g_2427+0x17a3>
   134a4:	48 89 c7             	mov    %rax,%rdi
   134a7:	e8 47 62 ff ff       	callq  96f3 <transparent_crc>
   134ac:	b8 00 00 00 00       	mov    $0x0,%eax
   134b1:	89 c1                	mov    %eax,%ecx
   134b3:	8b 45 fc             	mov    -0x4(%rbp),%eax
   134b6:	89 c2                	mov    %eax,%edx
   134b8:	48 8d 35 5d 33 00 00 	lea    0x335d(%rip),%rsi        # 1681c <g_2427+0x17ac>
   134bf:	48 89 cf             	mov    %rcx,%rdi
   134c2:	e8 2c 62 ff ff       	callq  96f3 <transparent_crc>
   134c7:	8b 05 07 6c 00 00    	mov    0x6c07(%rip),%eax        # 1a0d4 <g_396>
   134cd:	48 98                	cltq   
   134cf:	8b 55 fc             	mov    -0x4(%rbp),%edx
   134d2:	48 8d 35 49 33 00 00 	lea    0x3349(%rip),%rsi        # 16822 <g_2427+0x17b2>
   134d9:	48 89 c7             	mov    %rax,%rdi
   134dc:	e8 12 62 ff ff       	callq  96f3 <transparent_crc>
   134e1:	8b 05 f1 6b 00 00    	mov    0x6bf1(%rip),%eax        # 1a0d8 <g_434>
   134e7:	48 98                	cltq   
   134e9:	8b 55 fc             	mov    -0x4(%rbp),%edx
   134ec:	48 8d 35 35 33 00 00 	lea    0x3335(%rip),%rsi        # 16828 <g_2427+0x17b8>
   134f3:	48 89 c7             	mov    %rax,%rdi
   134f6:	e8 f8 61 ff ff       	callq  96f3 <transparent_crc>
   134fb:	c7 45 f0 00 00 00 00 	movl   $0x0,-0x10(%rbp)
   13502:	e9 9e 00 00 00       	jmpq   135a5 <main+0x5ab>
   13507:	c7 45 f4 00 00 00 00 	movl   $0x0,-0xc(%rbp)
   1350e:	e9 84 00 00 00       	jmpq   13597 <main+0x59d>
   13513:	c7 45 f8 00 00 00 00 	movl   $0x0,-0x8(%rbp)
   1351a:	eb 71                	jmp    1358d <main+0x593>
   1351c:	8b 45 f8             	mov    -0x8(%rbp),%eax
   1351f:	48 63 c8             	movslq %eax,%rcx
   13522:	8b 45 f0             	mov    -0x10(%rbp),%eax
   13525:	48 63 d0             	movslq %eax,%rdx
   13528:	8b 45 f4             	mov    -0xc(%rbp),%eax
   1352b:	48 63 f0             	movslq %eax,%rsi
   1352e:	48 89 d0             	mov    %rdx,%rax
   13531:	48 c1 e0 02          	shl    $0x2,%rax
   13535:	48 01 d0             	add    %rdx,%rax
   13538:	48 01 c0             	add    %rax,%rax
   1353b:	48 01 f0             	add    %rsi,%rax
   1353e:	48 01 c0             	add    %rax,%rax
   13541:	48 8d 14 08          	lea    (%rax,%rcx,1),%rdx
   13545:	48 8d 05 94 6b 00 00 	lea    0x6b94(%rip),%rax        # 1a0e0 <g_445>
   1354c:	48 01 d0             	add    %rdx,%rax
   1354f:	0f b6 00             	movzbl (%rax),%eax
   13552:	0f b6 c0             	movzbl %al,%eax
   13555:	8b 55 fc             	mov    -0x4(%rbp),%edx
   13558:	48 8d 35 cf 32 00 00 	lea    0x32cf(%rip),%rsi        # 1682e <g_2427+0x17be>
   1355f:	48 89 c7             	mov    %rax,%rdi
   13562:	e8 8c 61 ff ff       	callq  96f3 <transparent_crc>
   13567:	83 7d fc 00          	cmpl   $0x0,-0x4(%rbp)
   1356b:	74 1c                	je     13589 <main+0x58f>
   1356d:	8b 4d f8             	mov    -0x8(%rbp),%ecx
   13570:	8b 55 f4             	mov    -0xc(%rbp),%edx
   13573:	8b 45 f0             	mov    -0x10(%rbp),%eax
   13576:	89 c6                	mov    %eax,%esi
   13578:	48 8d 3d be 32 00 00 	lea    0x32be(%rip),%rdi        # 1683d <g_2427+0x17cd>
   1357f:	b8 00 00 00 00       	mov    $0x0,%eax
   13584:	e8 f7 4a ff ff       	callq  8080 <printf@plt>
   13589:	83 45 f8 01          	addl   $0x1,-0x8(%rbp)
   1358d:	83 7d f8 01          	cmpl   $0x1,-0x8(%rbp)
   13591:	7e 89                	jle    1351c <main+0x522>
   13593:	83 45 f4 01          	addl   $0x1,-0xc(%rbp)
   13597:	83 7d f4 09          	cmpl   $0x9,-0xc(%rbp)
   1359b:	0f 8e 72 ff ff ff    	jle    13513 <main+0x519>
   135a1:	83 45 f0 01          	addl   $0x1,-0x10(%rbp)
   135a5:	83 7d f0 09          	cmpl   $0x9,-0x10(%rbp)
   135a9:	0f 8e 58 ff ff ff    	jle    13507 <main+0x50d>
   135af:	48 8b 05 f2 6b 00 00 	mov    0x6bf2(%rip),%rax        # 1a1a8 <g_470>
   135b6:	48 89 c1             	mov    %rax,%rcx
   135b9:	8b 45 fc             	mov    -0x4(%rbp),%eax
   135bc:	89 c2                	mov    %eax,%edx
   135be:	48 8d 35 8e 32 00 00 	lea    0x328e(%rip),%rsi        # 16853 <g_2427+0x17e3>
   135c5:	48 89 cf             	mov    %rcx,%rdi
   135c8:	e8 26 61 ff ff       	callq  96f3 <transparent_crc>
   135cd:	0f b7 05 dc 6b 00 00 	movzwl 0x6bdc(%rip),%eax        # 1a1b0 <g_484>
   135d4:	48 0f bf c0          	movswq %ax,%rax
   135d8:	8b 55 fc             	mov    -0x4(%rbp),%edx
   135db:	48 8d 35 77 32 00 00 	lea    0x3277(%rip),%rsi        # 16859 <g_2427+0x17e9>
   135e2:	48 89 c7             	mov    %rax,%rdi
   135e5:	e8 09 61 ff ff       	callq  96f3 <transparent_crc>
   135ea:	48 8b 05 c7 6b 00 00 	mov    0x6bc7(%rip),%rax        # 1a1b8 <g_533>
   135f1:	8b 55 fc             	mov    -0x4(%rbp),%edx
   135f4:	48 8d 35 64 32 00 00 	lea    0x3264(%rip),%rsi        # 1685f <g_2427+0x17ef>
   135fb:	48 89 c7             	mov    %rax,%rdi
   135fe:	e8 f0 60 ff ff       	callq  96f3 <transparent_crc>
   13603:	0f b6 05 b6 6b 00 00 	movzbl 0x6bb6(%rip),%eax        # 1a1c0 <g_623>
   1360a:	0f b6 c0             	movzbl %al,%eax
   1360d:	8b 55 fc             	mov    -0x4(%rbp),%edx
   13610:	48 8d 35 4e 32 00 00 	lea    0x324e(%rip),%rsi        # 16865 <g_2427+0x17f5>
   13617:	48 89 c7             	mov    %rax,%rdi
   1361a:	e8 d4 60 ff ff       	callq  96f3 <transparent_crc>
   1361f:	0f b7 05 2a b4 00 00 	movzwl 0xb42a(%rip),%eax        # 1ea50 <g_696>
   13626:	0f b7 c0             	movzwl %ax,%eax
   13629:	8b 55 fc             	mov    -0x4(%rbp),%edx
   1362c:	48 8d 35 38 32 00 00 	lea    0x3238(%rip),%rsi        # 1686b <g_2427+0x17fb>
   13633:	48 89 c7             	mov    %rax,%rdi
   13636:	e8 b8 60 ff ff       	callq  96f3 <transparent_crc>
   1363b:	8b 05 83 6b 00 00    	mov    0x6b83(%rip),%eax        # 1a1c4 <g_697>
   13641:	89 c1                	mov    %eax,%ecx
   13643:	8b 45 fc             	mov    -0x4(%rbp),%eax
   13646:	89 c2                	mov    %eax,%edx
   13648:	48 8d 35 22 32 00 00 	lea    0x3222(%rip),%rsi        # 16871 <g_2427+0x1801>
   1364f:	48 89 cf             	mov    %rcx,%rdi
   13652:	e8 9c 60 ff ff       	callq  96f3 <transparent_crc>
   13657:	0f b6 05 6a 6b 00 00 	movzbl 0x6b6a(%rip),%eax        # 1a1c8 <g_732>
   1365e:	48 0f be c0          	movsbq %al,%rax
   13662:	8b 55 fc             	mov    -0x4(%rbp),%edx
   13665:	48 8d 35 0b 32 00 00 	lea    0x320b(%rip),%rsi        # 16877 <g_2427+0x1807>
   1366c:	48 89 c7             	mov    %rax,%rdi
   1366f:	e8 7f 60 ff ff       	callq  96f3 <transparent_crc>
   13674:	8b 05 52 6b 00 00    	mov    0x6b52(%rip),%eax        # 1a1cc <g_732+0x4>
   1367a:	25 ff ff ff 7f       	and    $0x7fffffff,%eax
   1367f:	89 c1                	mov    %eax,%ecx
   13681:	8b 45 fc             	mov    -0x4(%rbp),%eax
   13684:	89 c2                	mov    %eax,%edx
   13686:	48 8d 35 f3 31 00 00 	lea    0x31f3(%rip),%rsi        # 16880 <g_2427+0x1810>
   1368d:	48 89 cf             	mov    %rcx,%rdi
   13690:	e8 5e 60 ff ff       	callq  96f3 <transparent_crc>
   13695:	0f b6 05 34 6b 00 00 	movzbl 0x6b34(%rip),%eax        # 1a1d0 <g_732+0x8>
   1369c:	c1 e0 02             	shl    $0x2,%eax
   1369f:	c0 f8 02             	sar    $0x2,%al
   136a2:	48 0f be c0          	movsbq %al,%rax
   136a6:	8b 55 fc             	mov    -0x4(%rbp),%edx
   136a9:	48 8d 35 d9 31 00 00 	lea    0x31d9(%rip),%rsi        # 16889 <g_2427+0x1819>
   136b0:	48 89 c7             	mov    %rax,%rdi
   136b3:	e8 3b 60 ff ff       	callq  96f3 <transparent_crc>
   136b8:	48 8b 05 19 6b 00 00 	mov    0x6b19(%rip),%rax        # 1a1d8 <g_763>
   136bf:	48 89 c1             	mov    %rax,%rcx
   136c2:	8b 45 fc             	mov    -0x4(%rbp),%eax
   136c5:	89 c2                	mov    %eax,%edx
   136c7:	48 8d 35 c4 31 00 00 	lea    0x31c4(%rip),%rsi        # 16892 <g_2427+0x1822>
   136ce:	48 89 cf             	mov    %rcx,%rdi
   136d1:	e8 1d 60 ff ff       	callq  96f3 <transparent_crc>
   136d6:	0f b6 05 7b 19 00 00 	movzbl 0x197b(%rip),%eax        # 15058 <g_792>
   136dd:	48 0f be c0          	movsbq %al,%rax
   136e1:	8b 55 fc             	mov    -0x4(%rbp),%edx
   136e4:	48 8d 35 ad 31 00 00 	lea    0x31ad(%rip),%rsi        # 16898 <g_2427+0x1828>
   136eb:	48 89 c7             	mov    %rax,%rdi
   136ee:	e8 00 60 ff ff       	callq  96f3 <transparent_crc>
   136f3:	b8 dc 17 00 00       	mov    $0x17dc,%eax
   136f8:	89 c1                	mov    %eax,%ecx
   136fa:	8b 45 fc             	mov    -0x4(%rbp),%eax
   136fd:	89 c2                	mov    %eax,%edx
   136ff:	48 8d 35 9b 31 00 00 	lea    0x319b(%rip),%rsi        # 168a1 <g_2427+0x1831>
   13706:	48 89 cf             	mov    %rcx,%rdi
   13709:	e8 e5 5f ff ff       	callq  96f3 <transparent_crc>
   1370e:	b8 ff ff ff ff       	mov    $0xffffffff,%eax
   13713:	48 0f be c0          	movsbq %al,%rax
   13717:	8b 55 fc             	mov    -0x4(%rbp),%edx
   1371a:	48 8d 35 89 31 00 00 	lea    0x3189(%rip),%rsi        # 168aa <g_2427+0x183a>
   13721:	48 89 c7             	mov    %rax,%rdi
   13724:	e8 ca 5f ff ff       	callq  96f3 <transparent_crc>
   13729:	0f b6 05 b0 6a 00 00 	movzbl 0x6ab0(%rip),%eax        # 1a1e0 <g_794>
   13730:	48 0f be c0          	movsbq %al,%rax
   13734:	8b 55 fc             	mov    -0x4(%rbp),%edx
   13737:	48 8d 35 75 31 00 00 	lea    0x3175(%rip),%rsi        # 168b3 <g_2427+0x1843>
   1373e:	48 89 c7             	mov    %rax,%rdi
   13741:	e8 ad 5f ff ff       	callq  96f3 <transparent_crc>
   13746:	8b 05 98 6a 00 00    	mov    0x6a98(%rip),%eax        # 1a1e4 <g_794+0x4>
   1374c:	25 ff ff ff 7f       	and    $0x7fffffff,%eax
   13751:	89 c1                	mov    %eax,%ecx
   13753:	8b 45 fc             	mov    -0x4(%rbp),%eax
   13756:	89 c2                	mov    %eax,%edx
   13758:	48 8d 35 5d 31 00 00 	lea    0x315d(%rip),%rsi        # 168bc <g_2427+0x184c>
   1375f:	48 89 cf             	mov    %rcx,%rdi
   13762:	e8 8c 5f ff ff       	callq  96f3 <transparent_crc>
   13767:	0f b6 05 7a 6a 00 00 	movzbl 0x6a7a(%rip),%eax        # 1a1e8 <g_794+0x8>
   1376e:	c1 e0 02             	shl    $0x2,%eax
   13771:	c0 f8 02             	sar    $0x2,%al
   13774:	48 0f be c0          	movsbq %al,%rax
   13778:	8b 55 fc             	mov    -0x4(%rbp),%edx
   1377b:	48 8d 35 43 31 00 00 	lea    0x3143(%rip),%rsi        # 168c5 <g_2427+0x1855>
   13782:	48 89 c7             	mov    %rax,%rdi
   13785:	e8 69 5f ff ff       	callq  96f3 <transparent_crc>
   1378a:	48 8b 05 5f 6a 00 00 	mov    0x6a5f(%rip),%rax        # 1a1f0 <g_1034>
   13791:	8b 55 fc             	mov    -0x4(%rbp),%edx
   13794:	48 8d 35 33 31 00 00 	lea    0x3133(%rip),%rsi        # 168ce <g_2427+0x185e>
   1379b:	48 89 c7             	mov    %rax,%rdi
   1379e:	e8 50 5f ff ff       	callq  96f3 <transparent_crc>
   137a3:	0f b6 05 4e 6a 00 00 	movzbl 0x6a4e(%rip),%eax        # 1a1f8 <g_1074>
   137aa:	48 0f be c0          	movsbq %al,%rax
   137ae:	8b 55 fc             	mov    -0x4(%rbp),%edx
   137b1:	48 8d 35 1d 31 00 00 	lea    0x311d(%rip),%rsi        # 168d5 <g_2427+0x1865>
   137b8:	48 89 c7             	mov    %rax,%rdi
   137bb:	e8 33 5f ff ff       	callq  96f3 <transparent_crc>
   137c0:	48 8b 05 31 6a 00 00 	mov    0x6a31(%rip),%rax        # 1a1f8 <g_1074>
   137c7:	48 c1 e8 20          	shr    $0x20,%rax
   137cb:	25 ff ff ff 7f       	and    $0x7fffffff,%eax
   137d0:	89 c1                	mov    %eax,%ecx
   137d2:	8b 45 fc             	mov    -0x4(%rbp),%eax
   137d5:	89 c2                	mov    %eax,%edx
   137d7:	48 8d 35 01 31 00 00 	lea    0x3101(%rip),%rsi        # 168df <g_2427+0x186f>
   137de:	48 89 cf             	mov    %rcx,%rdi
   137e1:	e8 0d 5f ff ff       	callq  96f3 <transparent_crc>
   137e6:	48 8b 05 13 6a 00 00 	mov    0x6a13(%rip),%rax        # 1a200 <g_1074+0x8>
   137ed:	c1 e0 02             	shl    $0x2,%eax
   137f0:	c0 f8 02             	sar    $0x2,%al
   137f3:	48 0f be c0          	movsbq %al,%rax
   137f7:	8b 55 fc             	mov    -0x4(%rbp),%edx
   137fa:	48 8d 35 e8 30 00 00 	lea    0x30e8(%rip),%rsi        # 168e9 <g_2427+0x1879>
   13801:	48 89 c7             	mov    %rax,%rdi
   13804:	e8 ea 5e ff ff       	callq  96f3 <transparent_crc>
   13809:	c7 45 f0 00 00 00 00 	movl   $0x0,-0x10(%rbp)
   13810:	e9 d1 00 00 00       	jmpq   138e6 <main+0x8ec>
   13815:	8b 45 f0             	mov    -0x10(%rbp),%eax
   13818:	48 63 d0             	movslq %eax,%rdx
   1381b:	48 89 d0             	mov    %rdx,%rax
   1381e:	48 01 c0             	add    %rax,%rax
   13821:	48 01 d0             	add    %rdx,%rax
   13824:	48 c1 e0 02          	shl    $0x2,%rax
   13828:	48 89 c2             	mov    %rax,%rdx
   1382b:	48 8d 05 ee 69 00 00 	lea    0x69ee(%rip),%rax        # 1a220 <g_1102>
   13832:	0f b6 04 02          	movzbl (%rdx,%rax,1),%eax
   13836:	48 0f be c0          	movsbq %al,%rax
   1383a:	8b 55 fc             	mov    -0x4(%rbp),%edx
   1383d:	48 8d 35 af 30 00 00 	lea    0x30af(%rip),%rsi        # 168f3 <g_2427+0x1883>
   13844:	48 89 c7             	mov    %rax,%rdi
   13847:	e8 a7 5e ff ff       	callq  96f3 <transparent_crc>
   1384c:	8b 45 f0             	mov    -0x10(%rbp),%eax
   1384f:	48 63 d0             	movslq %eax,%rdx
   13852:	48 89 d0             	mov    %rdx,%rax
   13855:	48 01 c0             	add    %rax,%rax
   13858:	48 01 d0             	add    %rdx,%rax
   1385b:	48 c1 e0 02          	shl    $0x2,%rax
   1385f:	48 89 c2             	mov    %rax,%rdx
   13862:	48 8d 05 b7 69 00 00 	lea    0x69b7(%rip),%rax        # 1a220 <g_1102>
   13869:	8b 44 02 04          	mov    0x4(%rdx,%rax,1),%eax
   1386d:	25 ff ff ff 7f       	and    $0x7fffffff,%eax
   13872:	89 c1                	mov    %eax,%ecx
   13874:	8b 45 fc             	mov    -0x4(%rbp),%eax
   13877:	89 c2                	mov    %eax,%edx
   13879:	48 8d 35 80 30 00 00 	lea    0x3080(%rip),%rsi        # 16900 <g_2427+0x1890>
   13880:	48 89 cf             	mov    %rcx,%rdi
   13883:	e8 6b 5e ff ff       	callq  96f3 <transparent_crc>
   13888:	8b 45 f0             	mov    -0x10(%rbp),%eax
   1388b:	48 63 d0             	movslq %eax,%rdx
   1388e:	48 89 d0             	mov    %rdx,%rax
   13891:	48 01 c0             	add    %rax,%rax
   13894:	48 01 d0             	add    %rdx,%rax
   13897:	48 c1 e0 02          	shl    $0x2,%rax
   1389b:	48 89 c2             	mov    %rax,%rdx
   1389e:	48 8d 05 7b 69 00 00 	lea    0x697b(%rip),%rax        # 1a220 <g_1102>
   138a5:	0f b6 44 02 08       	movzbl 0x8(%rdx,%rax,1),%eax
   138aa:	c1 e0 02             	shl    $0x2,%eax
   138ad:	c0 f8 02             	sar    $0x2,%al
   138b0:	48 0f be c0          	movsbq %al,%rax
   138b4:	8b 55 fc             	mov    -0x4(%rbp),%edx
   138b7:	48 8d 35 4f 30 00 00 	lea    0x304f(%rip),%rsi        # 1690d <g_2427+0x189d>
   138be:	48 89 c7             	mov    %rax,%rdi
   138c1:	e8 2d 5e ff ff       	callq  96f3 <transparent_crc>
   138c6:	83 7d fc 00          	cmpl   $0x0,-0x4(%rbp)
   138ca:	74 16                	je     138e2 <main+0x8e8>
   138cc:	8b 45 f0             	mov    -0x10(%rbp),%eax
   138cf:	89 c6                	mov    %eax,%esi
   138d1:	48 8d 3d 55 2e 00 00 	lea    0x2e55(%rip),%rdi        # 1672d <g_2427+0x16bd>
   138d8:	b8 00 00 00 00       	mov    $0x0,%eax
   138dd:	e8 9e 47 ff ff       	callq  8080 <printf@plt>
   138e2:	83 45 f0 01          	addl   $0x1,-0x10(%rbp)
   138e6:	83 7d f0 08          	cmpl   $0x8,-0x10(%rbp)
   138ea:	0f 8e 25 ff ff ff    	jle    13815 <main+0x81b>
   138f0:	c7 45 f0 00 00 00 00 	movl   $0x0,-0x10(%rbp)
   138f7:	e9 cd 01 00 00       	jmpq   13ac9 <main+0xacf>
   138fc:	c7 45 f4 00 00 00 00 	movl   $0x0,-0xc(%rbp)
   13903:	e9 b3 01 00 00       	jmpq   13abb <main+0xac1>
   13908:	c7 45 f8 00 00 00 00 	movl   $0x0,-0x8(%rbp)
   1390f:	e9 99 01 00 00       	jmpq   13aad <main+0xab3>
   13914:	8b 45 f8             	mov    -0x8(%rbp),%eax
   13917:	48 98                	cltq   
   13919:	8b 55 f4             	mov    -0xc(%rbp),%edx
   1391c:	48 63 f2             	movslq %edx,%rsi
   1391f:	8b 55 f0             	mov    -0x10(%rbp),%edx
   13922:	48 63 ca             	movslq %edx,%rcx
   13925:	48 89 c2             	mov    %rax,%rdx
   13928:	48 01 d2             	add    %rdx,%rdx
   1392b:	48 01 c2             	add    %rax,%rdx
   1392e:	48 8d 04 95 00 00 00 	lea    0x0(,%rdx,4),%rax
   13935:	00 
   13936:	48 89 c2             	mov    %rax,%rdx
   13939:	48 89 f0             	mov    %rsi,%rax
   1393c:	48 c1 e0 02          	shl    $0x2,%rax
   13940:	48 01 f0             	add    %rsi,%rax
   13943:	48 c1 e0 02          	shl    $0x2,%rax
   13947:	48 01 f0             	add    %rsi,%rax
   1394a:	48 c1 e0 02          	shl    $0x2,%rax
   1394e:	48 01 c2             	add    %rax,%rdx
   13951:	48 89 c8             	mov    %rcx,%rax
   13954:	48 c1 e0 02          	shl    $0x2,%rax
   13958:	48 01 c8             	add    %rcx,%rax
   1395b:	48 c1 e0 02          	shl    $0x2,%rax
   1395f:	48 01 c8             	add    %rcx,%rax
   13962:	48 c1 e0 04          	shl    $0x4,%rax
   13966:	48 01 c2             	add    %rax,%rdx
   13969:	48 8d 05 30 69 00 00 	lea    0x6930(%rip),%rax        # 1a2a0 <g_1106>
   13970:	48 01 d0             	add    %rdx,%rax
   13973:	0f b6 00             	movzbl (%rax),%eax
   13976:	48 0f be c0          	movsbq %al,%rax
   1397a:	8b 55 fc             	mov    -0x4(%rbp),%edx
   1397d:	48 8d 35 96 2f 00 00 	lea    0x2f96(%rip),%rsi        # 1691a <g_2427+0x18aa>
   13984:	48 89 c7             	mov    %rax,%rdi
   13987:	e8 67 5d ff ff       	callq  96f3 <transparent_crc>
   1398c:	8b 45 f8             	mov    -0x8(%rbp),%eax
   1398f:	48 98                	cltq   
   13991:	8b 55 f4             	mov    -0xc(%rbp),%edx
   13994:	48 63 f2             	movslq %edx,%rsi
   13997:	8b 55 f0             	mov    -0x10(%rbp),%edx
   1399a:	48 63 ca             	movslq %edx,%rcx
   1399d:	48 89 c2             	mov    %rax,%rdx
   139a0:	48 01 d2             	add    %rdx,%rdx
   139a3:	48 01 c2             	add    %rax,%rdx
   139a6:	48 8d 04 95 00 00 00 	lea    0x0(,%rdx,4),%rax
   139ad:	00 
   139ae:	48 89 c2             	mov    %rax,%rdx
   139b1:	48 89 f0             	mov    %rsi,%rax
   139b4:	48 c1 e0 02          	shl    $0x2,%rax
   139b8:	48 01 f0             	add    %rsi,%rax
   139bb:	48 c1 e0 02          	shl    $0x2,%rax
   139bf:	48 01 f0             	add    %rsi,%rax
   139c2:	48 c1 e0 02          	shl    $0x2,%rax
   139c6:	48 01 c2             	add    %rax,%rdx
   139c9:	48 89 c8             	mov    %rcx,%rax
   139cc:	48 c1 e0 02          	shl    $0x2,%rax
   139d0:	48 01 c8             	add    %rcx,%rax
   139d3:	48 c1 e0 02          	shl    $0x2,%rax
   139d7:	48 01 c8             	add    %rcx,%rax
   139da:	48 c1 e0 04          	shl    $0x4,%rax
   139de:	48 01 c2             	add    %rax,%rdx
   139e1:	48 8d 05 b8 68 00 00 	lea    0x68b8(%rip),%rax        # 1a2a0 <g_1106>
   139e8:	48 01 d0             	add    %rdx,%rax
   139eb:	8b 40 04             	mov    0x4(%rax),%eax
   139ee:	25 ff ff ff 7f       	and    $0x7fffffff,%eax
   139f3:	89 c1                	mov    %eax,%ecx
   139f5:	8b 45 fc             	mov    -0x4(%rbp),%eax
   139f8:	89 c2                	mov    %eax,%edx
   139fa:	48 8d 35 2c 2f 00 00 	lea    0x2f2c(%rip),%rsi        # 1692d <g_2427+0x18bd>
   13a01:	48 89 cf             	mov    %rcx,%rdi
   13a04:	e8 ea 5c ff ff       	callq  96f3 <transparent_crc>
   13a09:	8b 45 f8             	mov    -0x8(%rbp),%eax
   13a0c:	48 98                	cltq   
   13a0e:	8b 55 f4             	mov    -0xc(%rbp),%edx
   13a11:	48 63 f2             	movslq %edx,%rsi
   13a14:	8b 55 f0             	mov    -0x10(%rbp),%edx
   13a17:	48 63 ca             	movslq %edx,%rcx
   13a1a:	48 89 c2             	mov    %rax,%rdx
   13a1d:	48 01 d2             	add    %rdx,%rdx
   13a20:	48 01 c2             	add    %rax,%rdx
   13a23:	48 8d 04 95 00 00 00 	lea    0x0(,%rdx,4),%rax
   13a2a:	00 
   13a2b:	48 89 c2             	mov    %rax,%rdx
   13a2e:	48 89 f0             	mov    %rsi,%rax
   13a31:	48 c1 e0 02          	shl    $0x2,%rax
   13a35:	48 01 f0             	add    %rsi,%rax
   13a38:	48 c1 e0 02          	shl    $0x2,%rax
   13a3c:	48 01 f0             	add    %rsi,%rax
   13a3f:	48 c1 e0 02          	shl    $0x2,%rax
   13a43:	48 01 c2             	add    %rax,%rdx
   13a46:	48 89 c8             	mov    %rcx,%rax
   13a49:	48 c1 e0 02          	shl    $0x2,%rax
   13a4d:	48 01 c8             	add    %rcx,%rax
   13a50:	48 c1 e0 02          	shl    $0x2,%rax
   13a54:	48 01 c8             	add    %rcx,%rax
   13a57:	48 c1 e0 04          	shl    $0x4,%rax
   13a5b:	48 01 c2             	add    %rax,%rdx
   13a5e:	48 8d 05 3b 68 00 00 	lea    0x683b(%rip),%rax        # 1a2a0 <g_1106>
   13a65:	48 01 d0             	add    %rdx,%rax
   13a68:	8b 40 08             	mov    0x8(%rax),%eax
   13a6b:	c1 e0 02             	shl    $0x2,%eax
   13a6e:	c0 f8 02             	sar    $0x2,%al
   13a71:	48 0f be c0          	movsbq %al,%rax
   13a75:	8b 55 fc             	mov    -0x4(%rbp),%edx
   13a78:	48 8d 35 c1 2e 00 00 	lea    0x2ec1(%rip),%rsi        # 16940 <g_2427+0x18d0>
   13a7f:	48 89 c7             	mov    %rax,%rdi
   13a82:	e8 6c 5c ff ff       	callq  96f3 <transparent_crc>
   13a87:	83 7d fc 00          	cmpl   $0x0,-0x4(%rbp)
   13a8b:	74 1c                	je     13aa9 <main+0xaaf>
   13a8d:	8b 4d f8             	mov    -0x8(%rbp),%ecx
   13a90:	8b 55 f4             	mov    -0xc(%rbp),%edx
   13a93:	8b 45 f0             	mov    -0x10(%rbp),%eax
   13a96:	89 c6                	mov    %eax,%esi
   13a98:	48 8d 3d 9e 2d 00 00 	lea    0x2d9e(%rip),%rdi        # 1683d <g_2427+0x17cd>
   13a9f:	b8 00 00 00 00       	mov    $0x0,%eax
   13aa4:	e8 d7 45 ff ff       	callq  8080 <printf@plt>
   13aa9:	83 45 f8 01          	addl   $0x1,-0x8(%rbp)
   13aad:	83 7d f8 06          	cmpl   $0x6,-0x8(%rbp)
   13ab1:	0f 8e 5d fe ff ff    	jle    13914 <main+0x91a>
   13ab7:	83 45 f4 01          	addl   $0x1,-0xc(%rbp)
   13abb:	83 7d f4 03          	cmpl   $0x3,-0xc(%rbp)
   13abf:	0f 8e 43 fe ff ff    	jle    13908 <main+0x90e>
   13ac5:	83 45 f0 01          	addl   $0x1,-0x10(%rbp)
   13ac9:	83 7d f0 07          	cmpl   $0x7,-0x10(%rbp)
   13acd:	0f 8e 29 fe ff ff    	jle    138fc <main+0x902>
   13ad3:	0f b6 05 46 72 00 00 	movzbl 0x7246(%rip),%eax        # 1ad20 <g_1159>
   13ada:	48 0f be c0          	movsbq %al,%rax
   13ade:	8b 55 fc             	mov    -0x4(%rbp),%edx
   13ae1:	48 8d 35 6b 2e 00 00 	lea    0x2e6b(%rip),%rsi        # 16953 <g_2427+0x18e3>
   13ae8:	48 89 c7             	mov    %rax,%rdi
   13aeb:	e8 03 5c ff ff       	callq  96f3 <transparent_crc>
   13af0:	48 8b 05 29 72 00 00 	mov    0x7229(%rip),%rax        # 1ad20 <g_1159>
   13af7:	48 c1 e8 20          	shr    $0x20,%rax
   13afb:	25 ff ff ff 7f       	and    $0x7fffffff,%eax
   13b00:	89 c1                	mov    %eax,%ecx
   13b02:	8b 45 fc             	mov    -0x4(%rbp),%eax
   13b05:	89 c2                	mov    %eax,%edx
   13b07:	48 8d 35 4f 2e 00 00 	lea    0x2e4f(%rip),%rsi        # 1695d <g_2427+0x18ed>
   13b0e:	48 89 cf             	mov    %rcx,%rdi
   13b11:	e8 dd 5b ff ff       	callq  96f3 <transparent_crc>
   13b16:	48 8b 05 0b 72 00 00 	mov    0x720b(%rip),%rax        # 1ad28 <g_1159+0x8>
   13b1d:	c1 e0 02             	shl    $0x2,%eax
   13b20:	c0 f8 02             	sar    $0x2,%al
   13b23:	48 0f be c0          	movsbq %al,%rax
   13b27:	8b 55 fc             	mov    -0x4(%rbp),%edx
   13b2a:	48 8d 35 36 2e 00 00 	lea    0x2e36(%rip),%rsi        # 16967 <g_2427+0x18f7>
   13b31:	48 89 c7             	mov    %rax,%rdi
   13b34:	e8 ba 5b ff ff       	callq  96f3 <transparent_crc>
   13b39:	48 8b 05 f0 71 00 00 	mov    0x71f0(%rip),%rax        # 1ad30 <g_1240>
   13b40:	48 89 c1             	mov    %rax,%rcx
   13b43:	8b 45 fc             	mov    -0x4(%rbp),%eax
   13b46:	89 c2                	mov    %eax,%edx
   13b48:	48 8d 35 22 2e 00 00 	lea    0x2e22(%rip),%rsi        # 16971 <g_2427+0x1901>
   13b4f:	48 89 cf             	mov    %rcx,%rdi
   13b52:	e8 9c 5b ff ff       	callq  96f3 <transparent_crc>
   13b57:	0f b6 05 da 71 00 00 	movzbl 0x71da(%rip),%eax        # 1ad38 <g_1264>
   13b5e:	48 0f be c0          	movsbq %al,%rax
   13b62:	8b 55 fc             	mov    -0x4(%rbp),%edx
   13b65:	48 8d 35 0c 2e 00 00 	lea    0x2e0c(%rip),%rsi        # 16978 <g_2427+0x1908>
   13b6c:	48 89 c7             	mov    %rax,%rdi
   13b6f:	e8 7f 5b ff ff       	callq  96f3 <transparent_crc>
   13b74:	8b 05 c2 71 00 00    	mov    0x71c2(%rip),%eax        # 1ad3c <g_1264+0x4>
   13b7a:	25 ff ff ff 7f       	and    $0x7fffffff,%eax
   13b7f:	89 c1                	mov    %eax,%ecx
   13b81:	8b 45 fc             	mov    -0x4(%rbp),%eax
   13b84:	89 c2                	mov    %eax,%edx
   13b86:	48 8d 35 f5 2d 00 00 	lea    0x2df5(%rip),%rsi        # 16982 <g_2427+0x1912>
   13b8d:	48 89 cf             	mov    %rcx,%rdi
   13b90:	e8 5e 5b ff ff       	callq  96f3 <transparent_crc>
   13b95:	0f b6 05 a4 71 00 00 	movzbl 0x71a4(%rip),%eax        # 1ad40 <g_1264+0x8>
   13b9c:	c1 e0 02             	shl    $0x2,%eax
   13b9f:	c0 f8 02             	sar    $0x2,%al
   13ba2:	48 0f be c0          	movsbq %al,%rax
   13ba6:	8b 55 fc             	mov    -0x4(%rbp),%edx
   13ba9:	48 8d 35 dc 2d 00 00 	lea    0x2ddc(%rip),%rsi        # 1698c <g_2427+0x191c>
   13bb0:	48 89 c7             	mov    %rax,%rdi
   13bb3:	e8 3b 5b ff ff       	callq  96f3 <transparent_crc>
   13bb8:	48 8b 05 89 71 00 00 	mov    0x7189(%rip),%rax        # 1ad48 <g_1348>
   13bbf:	48 89 c1             	mov    %rax,%rcx
   13bc2:	8b 45 fc             	mov    -0x4(%rbp),%eax
   13bc5:	89 c2                	mov    %eax,%edx
   13bc7:	48 8d 35 c8 2d 00 00 	lea    0x2dc8(%rip),%rsi        # 16996 <g_2427+0x1926>
   13bce:	48 89 cf             	mov    %rcx,%rdi
   13bd1:	e8 1d 5b ff ff       	callq  96f3 <transparent_crc>
   13bd6:	0f b7 05 73 71 00 00 	movzwl 0x7173(%rip),%eax        # 1ad50 <g_1371>
   13bdd:	0f b7 c0             	movzwl %ax,%eax
   13be0:	8b 55 fc             	mov    -0x4(%rbp),%edx
   13be3:	48 8d 35 b3 2d 00 00 	lea    0x2db3(%rip),%rsi        # 1699d <g_2427+0x192d>
   13bea:	48 89 c7             	mov    %rax,%rdi
   13bed:	e8 01 5b ff ff       	callq  96f3 <transparent_crc>
   13bf2:	c7 45 f0 00 00 00 00 	movl   $0x0,-0x10(%rbp)
   13bf9:	eb 45                	jmp    13c40 <main+0xc46>
   13bfb:	8b 45 f0             	mov    -0x10(%rbp),%eax
   13bfe:	48 98                	cltq   
   13c00:	48 8d 15 4b 71 00 00 	lea    0x714b(%rip),%rdx        # 1ad52 <g_1582>
   13c07:	0f b6 04 10          	movzbl (%rax,%rdx,1),%eax
   13c0b:	0f b6 c0             	movzbl %al,%eax
   13c0e:	8b 55 fc             	mov    -0x4(%rbp),%edx
   13c11:	48 8d 35 8c 2d 00 00 	lea    0x2d8c(%rip),%rsi        # 169a4 <g_2427+0x1934>
   13c18:	48 89 c7             	mov    %rax,%rdi
   13c1b:	e8 d3 5a ff ff       	callq  96f3 <transparent_crc>
   13c20:	83 7d fc 00          	cmpl   $0x0,-0x4(%rbp)
   13c24:	74 16                	je     13c3c <main+0xc42>
   13c26:	8b 45 f0             	mov    -0x10(%rbp),%eax
   13c29:	89 c6                	mov    %eax,%esi
   13c2b:	48 8d 3d fb 2a 00 00 	lea    0x2afb(%rip),%rdi        # 1672d <g_2427+0x16bd>
   13c32:	b8 00 00 00 00       	mov    $0x0,%eax
   13c37:	e8 44 44 ff ff       	callq  8080 <printf@plt>
   13c3c:	83 45 f0 01          	addl   $0x1,-0x10(%rbp)
   13c40:	83 7d f0 06          	cmpl   $0x6,-0x10(%rbp)
   13c44:	7e b5                	jle    13bfb <main+0xc01>
   13c46:	c7 45 f0 00 00 00 00 	movl   $0x0,-0x10(%rbp)
   13c4d:	e9 ac 00 00 00       	jmpq   13cfe <main+0xd04>
   13c52:	c7 45 f4 00 00 00 00 	movl   $0x0,-0xc(%rbp)
   13c59:	e9 92 00 00 00       	jmpq   13cf0 <main+0xcf6>
   13c5e:	c7 45 f8 00 00 00 00 	movl   $0x0,-0x8(%rbp)
   13c65:	eb 7b                	jmp    13ce2 <main+0xce8>
   13c67:	8b 45 f8             	mov    -0x8(%rbp),%eax
   13c6a:	48 63 f0             	movslq %eax,%rsi
   13c6d:	8b 45 f0             	mov    -0x10(%rbp),%eax
   13c70:	48 63 d0             	movslq %eax,%rdx
   13c73:	8b 45 f4             	mov    -0xc(%rbp),%eax
   13c76:	48 63 c8             	movslq %eax,%rcx
   13c79:	48 89 d0             	mov    %rdx,%rax
   13c7c:	48 c1 e0 02          	shl    $0x2,%rax
   13c80:	48 01 d0             	add    %rdx,%rax
   13c83:	48 c1 e0 02          	shl    $0x2,%rax
   13c87:	48 89 ca             	mov    %rcx,%rdx
   13c8a:	48 c1 e2 02          	shl    $0x2,%rdx
   13c8e:	48 01 ca             	add    %rcx,%rdx
   13c91:	48 01 d0             	add    %rdx,%rax
   13c94:	48 01 f0             	add    %rsi,%rax
   13c97:	48 8d 14 c5 00 00 00 	lea    0x0(,%rax,8),%rdx
   13c9e:	00 
   13c9f:	48 8d 05 ba 70 00 00 	lea    0x70ba(%rip),%rax        # 1ad60 <g_1585>
   13ca6:	48 8b 04 02          	mov    (%rdx,%rax,1),%rax
   13caa:	8b 55 fc             	mov    -0x4(%rbp),%edx
   13cad:	48 8d 35 fa 2c 00 00 	lea    0x2cfa(%rip),%rsi        # 169ae <g_2427+0x193e>
   13cb4:	48 89 c7             	mov    %rax,%rdi
   13cb7:	e8 37 5a ff ff       	callq  96f3 <transparent_crc>
   13cbc:	83 7d fc 00          	cmpl   $0x0,-0x4(%rbp)
   13cc0:	74 1c                	je     13cde <main+0xce4>
   13cc2:	8b 4d f8             	mov    -0x8(%rbp),%ecx
   13cc5:	8b 55 f4             	mov    -0xc(%rbp),%edx
   13cc8:	8b 45 f0             	mov    -0x10(%rbp),%eax
   13ccb:	89 c6                	mov    %eax,%esi
   13ccd:	48 8d 3d 69 2b 00 00 	lea    0x2b69(%rip),%rdi        # 1683d <g_2427+0x17cd>
   13cd4:	b8 00 00 00 00       	mov    $0x0,%eax
   13cd9:	e8 a2 43 ff ff       	callq  8080 <printf@plt>
   13cde:	83 45 f8 01          	addl   $0x1,-0x8(%rbp)
   13ce2:	83 7d f8 04          	cmpl   $0x4,-0x8(%rbp)
   13ce6:	0f 8e 7b ff ff ff    	jle    13c67 <main+0xc6d>
   13cec:	83 45 f4 01          	addl   $0x1,-0xc(%rbp)
   13cf0:	83 7d f4 03          	cmpl   $0x3,-0xc(%rbp)
   13cf4:	0f 8e 64 ff ff ff    	jle    13c5e <main+0xc64>
   13cfa:	83 45 f0 01          	addl   $0x1,-0x10(%rbp)
   13cfe:	83 7d f0 07          	cmpl   $0x7,-0x10(%rbp)
   13d02:	0f 8e 4a ff ff ff    	jle    13c52 <main+0xc58>
   13d08:	c7 45 f0 00 00 00 00 	movl   $0x0,-0x10(%rbp)
   13d0f:	e9 d1 00 00 00       	jmpq   13de5 <main+0xdeb>
   13d14:	8b 45 f0             	mov    -0x10(%rbp),%eax
   13d17:	48 63 d0             	movslq %eax,%rdx
   13d1a:	48 89 d0             	mov    %rdx,%rax
   13d1d:	48 01 c0             	add    %rax,%rax
   13d20:	48 01 d0             	add    %rdx,%rax
   13d23:	48 c1 e0 02          	shl    $0x2,%rax
   13d27:	48 89 c2             	mov    %rax,%rdx
   13d2a:	48 8d 05 2f 75 00 00 	lea    0x752f(%rip),%rax        # 1b260 <g_1601>
   13d31:	0f b6 04 02          	movzbl (%rdx,%rax,1),%eax
   13d35:	48 0f be c0          	movsbq %al,%rax
   13d39:	8b 55 fc             	mov    -0x4(%rbp),%edx
   13d3c:	48 8d 35 7b 2c 00 00 	lea    0x2c7b(%rip),%rsi        # 169be <g_2427+0x194e>
   13d43:	48 89 c7             	mov    %rax,%rdi
   13d46:	e8 a8 59 ff ff       	callq  96f3 <transparent_crc>
   13d4b:	8b 45 f0             	mov    -0x10(%rbp),%eax
   13d4e:	48 63 d0             	movslq %eax,%rdx
   13d51:	48 89 d0             	mov    %rdx,%rax
   13d54:	48 01 c0             	add    %rax,%rax
   13d57:	48 01 d0             	add    %rdx,%rax
   13d5a:	48 c1 e0 02          	shl    $0x2,%rax
   13d5e:	48 89 c2             	mov    %rax,%rdx
   13d61:	48 8d 05 f8 74 00 00 	lea    0x74f8(%rip),%rax        # 1b260 <g_1601>
   13d68:	8b 44 02 04          	mov    0x4(%rdx,%rax,1),%eax
   13d6c:	25 ff ff ff 7f       	and    $0x7fffffff,%eax
   13d71:	89 c1                	mov    %eax,%ecx
   13d73:	8b 45 fc             	mov    -0x4(%rbp),%eax
   13d76:	89 c2                	mov    %eax,%edx
   13d78:	48 8d 35 4c 2c 00 00 	lea    0x2c4c(%rip),%rsi        # 169cb <g_2427+0x195b>
   13d7f:	48 89 cf             	mov    %rcx,%rdi
   13d82:	e8 6c 59 ff ff       	callq  96f3 <transparent_crc>
   13d87:	8b 45 f0             	mov    -0x10(%rbp),%eax
   13d8a:	48 63 d0             	movslq %eax,%rdx
   13d8d:	48 89 d0             	mov    %rdx,%rax
   13d90:	48 01 c0             	add    %rax,%rax
   13d93:	48 01 d0             	add    %rdx,%rax
   13d96:	48 c1 e0 02          	shl    $0x2,%rax
   13d9a:	48 89 c2             	mov    %rax,%rdx
   13d9d:	48 8d 05 bc 74 00 00 	lea    0x74bc(%rip),%rax        # 1b260 <g_1601>
   13da4:	0f b6 44 02 08       	movzbl 0x8(%rdx,%rax,1),%eax
   13da9:	c1 e0 02             	shl    $0x2,%eax
   13dac:	c0 f8 02             	sar    $0x2,%al
   13daf:	48 0f be c0          	movsbq %al,%rax
   13db3:	8b 55 fc             	mov    -0x4(%rbp),%edx
   13db6:	48 8d 35 1b 2c 00 00 	lea    0x2c1b(%rip),%rsi        # 169d8 <g_2427+0x1968>
   13dbd:	48 89 c7             	mov    %rax,%rdi
   13dc0:	e8 2e 59 ff ff       	callq  96f3 <transparent_crc>
   13dc5:	83 7d fc 00          	cmpl   $0x0,-0x4(%rbp)
   13dc9:	74 16                	je     13de1 <main+0xde7>
   13dcb:	8b 45 f0             	mov    -0x10(%rbp),%eax
   13dce:	89 c6                	mov    %eax,%esi
   13dd0:	48 8d 3d 56 29 00 00 	lea    0x2956(%rip),%rdi        # 1672d <g_2427+0x16bd>
   13dd7:	b8 00 00 00 00       	mov    $0x0,%eax
   13ddc:	e8 9f 42 ff ff       	callq  8080 <printf@plt>
   13de1:	83 45 f0 01          	addl   $0x1,-0x10(%rbp)
   13de5:	83 7d f0 01          	cmpl   $0x1,-0x10(%rbp)
   13de9:	0f 8e 25 ff ff ff    	jle    13d14 <main+0xd1a>
   13def:	0f b7 05 82 74 00 00 	movzwl 0x7482(%rip),%eax        # 1b278 <g_1604>
   13df6:	0f b7 c0             	movzwl %ax,%eax
   13df9:	8b 55 fc             	mov    -0x4(%rbp),%edx
   13dfc:	48 8d 35 e2 2b 00 00 	lea    0x2be2(%rip),%rsi        # 169e5 <g_2427+0x1975>
   13e03:	48 89 c7             	mov    %rax,%rdi
   13e06:	e8 e8 58 ff ff       	callq  96f3 <transparent_crc>
   13e0b:	0f b6 05 68 74 00 00 	movzbl 0x7468(%rip),%eax        # 1b27a <g_1626>
   13e12:	48 0f be c0          	movsbq %al,%rax
   13e16:	8b 55 fc             	mov    -0x4(%rbp),%edx
   13e19:	48 8d 35 cc 2b 00 00 	lea    0x2bcc(%rip),%rsi        # 169ec <g_2427+0x197c>
   13e20:	48 89 c7             	mov    %rax,%rdi
   13e23:	e8 cb 58 ff ff       	callq  96f3 <transparent_crc>
   13e28:	c7 45 f0 00 00 00 00 	movl   $0x0,-0x10(%rbp)
   13e2f:	e9 d1 00 00 00       	jmpq   13f05 <main+0xf0b>
   13e34:	8b 45 f0             	mov    -0x10(%rbp),%eax
   13e37:	48 63 d0             	movslq %eax,%rdx
   13e3a:	48 89 d0             	mov    %rdx,%rax
   13e3d:	48 01 c0             	add    %rax,%rax
   13e40:	48 01 d0             	add    %rdx,%rax
   13e43:	48 c1 e0 02          	shl    $0x2,%rax
   13e47:	48 89 c2             	mov    %rax,%rdx
   13e4a:	48 8d 05 2f 74 00 00 	lea    0x742f(%rip),%rax        # 1b280 <g_1735>
   13e51:	0f b6 04 02          	movzbl (%rdx,%rax,1),%eax
   13e55:	48 0f be c0          	movsbq %al,%rax
   13e59:	8b 55 fc             	mov    -0x4(%rbp),%edx
   13e5c:	48 8d 35 90 2b 00 00 	lea    0x2b90(%rip),%rsi        # 169f3 <g_2427+0x1983>
   13e63:	48 89 c7             	mov    %rax,%rdi
   13e66:	e8 88 58 ff ff       	callq  96f3 <transparent_crc>
   13e6b:	8b 45 f0             	mov    -0x10(%rbp),%eax
   13e6e:	48 63 d0             	movslq %eax,%rdx
   13e71:	48 89 d0             	mov    %rdx,%rax
   13e74:	48 01 c0             	add    %rax,%rax
   13e77:	48 01 d0             	add    %rdx,%rax
   13e7a:	48 c1 e0 02          	shl    $0x2,%rax
   13e7e:	48 89 c2             	mov    %rax,%rdx
   13e81:	48 8d 05 f8 73 00 00 	lea    0x73f8(%rip),%rax        # 1b280 <g_1735>
   13e88:	8b 44 02 04          	mov    0x4(%rdx,%rax,1),%eax
   13e8c:	25 ff ff ff 7f       	and    $0x7fffffff,%eax
   13e91:	89 c1                	mov    %eax,%ecx
   13e93:	8b 45 fc             	mov    -0x4(%rbp),%eax
   13e96:	89 c2                	mov    %eax,%edx
   13e98:	48 8d 35 61 2b 00 00 	lea    0x2b61(%rip),%rsi        # 16a00 <g_2427+0x1990>
   13e9f:	48 89 cf             	mov    %rcx,%rdi
   13ea2:	e8 4c 58 ff ff       	callq  96f3 <transparent_crc>
   13ea7:	8b 45 f0             	mov    -0x10(%rbp),%eax
   13eaa:	48 63 d0             	movslq %eax,%rdx
   13ead:	48 89 d0             	mov    %rdx,%rax
   13eb0:	48 01 c0             	add    %rax,%rax
   13eb3:	48 01 d0             	add    %rdx,%rax
   13eb6:	48 c1 e0 02          	shl    $0x2,%rax
   13eba:	48 89 c2             	mov    %rax,%rdx
   13ebd:	48 8d 05 bc 73 00 00 	lea    0x73bc(%rip),%rax        # 1b280 <g_1735>
   13ec4:	0f b6 44 02 08       	movzbl 0x8(%rdx,%rax,1),%eax
   13ec9:	c1 e0 02             	shl    $0x2,%eax
   13ecc:	c0 f8 02             	sar    $0x2,%al
   13ecf:	48 0f be c0          	movsbq %al,%rax
   13ed3:	8b 55 fc             	mov    -0x4(%rbp),%edx
   13ed6:	48 8d 35 30 2b 00 00 	lea    0x2b30(%rip),%rsi        # 16a0d <g_2427+0x199d>
   13edd:	48 89 c7             	mov    %rax,%rdi
   13ee0:	e8 0e 58 ff ff       	callq  96f3 <transparent_crc>
   13ee5:	83 7d fc 00          	cmpl   $0x0,-0x4(%rbp)
   13ee9:	74 16                	je     13f01 <main+0xf07>
   13eeb:	8b 45 f0             	mov    -0x10(%rbp),%eax
   13eee:	89 c6                	mov    %eax,%esi
   13ef0:	48 8d 3d 36 28 00 00 	lea    0x2836(%rip),%rdi        # 1672d <g_2427+0x16bd>
   13ef7:	b8 00 00 00 00       	mov    $0x0,%eax
   13efc:	e8 7f 41 ff ff       	callq  8080 <printf@plt>
   13f01:	83 45 f0 01          	addl   $0x1,-0x10(%rbp)
   13f05:	83 7d f0 08          	cmpl   $0x8,-0x10(%rbp)
   13f09:	0f 8e 25 ff ff ff    	jle    13e34 <main+0xe3a>
   13f0f:	0f b6 05 d6 73 00 00 	movzbl 0x73d6(%rip),%eax        # 1b2ec <g_1902>
   13f16:	0f b6 c0             	movzbl %al,%eax
   13f19:	8b 55 fc             	mov    -0x4(%rbp),%edx
   13f1c:	48 8d 35 f7 2a 00 00 	lea    0x2af7(%rip),%rsi        # 16a1a <g_2427+0x19aa>
   13f23:	48 89 c7             	mov    %rax,%rdi
   13f26:	e8 c8 57 ff ff       	callq  96f3 <transparent_crc>
   13f2b:	0f b6 05 be 73 00 00 	movzbl 0x73be(%rip),%eax        # 1b2f0 <g_1971>
   13f32:	48 0f be c0          	movsbq %al,%rax
   13f36:	8b 55 fc             	mov    -0x4(%rbp),%edx
   13f39:	48 8d 35 e1 2a 00 00 	lea    0x2ae1(%rip),%rsi        # 16a21 <g_2427+0x19b1>
   13f40:	48 89 c7             	mov    %rax,%rdi
   13f43:	e8 ab 57 ff ff       	callq  96f3 <transparent_crc>
   13f48:	8b 05 a6 73 00 00    	mov    0x73a6(%rip),%eax        # 1b2f4 <g_1971+0x4>
   13f4e:	25 ff ff ff 7f       	and    $0x7fffffff,%eax
   13f53:	89 c1                	mov    %eax,%ecx
   13f55:	8b 45 fc             	mov    -0x4(%rbp),%eax
   13f58:	89 c2                	mov    %eax,%edx
   13f5a:	48 8d 35 ca 2a 00 00 	lea    0x2aca(%rip),%rsi        # 16a2b <g_2427+0x19bb>
   13f61:	48 89 cf             	mov    %rcx,%rdi
   13f64:	e8 8a 57 ff ff       	callq  96f3 <transparent_crc>
   13f69:	0f b6 05 88 73 00 00 	movzbl 0x7388(%rip),%eax        # 1b2f8 <g_1971+0x8>
   13f70:	c1 e0 02             	shl    $0x2,%eax
   13f73:	c0 f8 02             	sar    $0x2,%al
   13f76:	48 0f be c0          	movsbq %al,%rax
   13f7a:	8b 55 fc             	mov    -0x4(%rbp),%edx
   13f7d:	48 8d 35 b1 2a 00 00 	lea    0x2ab1(%rip),%rsi        # 16a35 <g_2427+0x19c5>
   13f84:	48 89 c7             	mov    %rax,%rdi
   13f87:	e8 67 57 ff ff       	callq  96f3 <transparent_crc>
   13f8c:	8b 05 6a 73 00 00    	mov    0x736a(%rip),%eax        # 1b2fc <g_1979>
   13f92:	48 98                	cltq   
   13f94:	8b 55 fc             	mov    -0x4(%rbp),%edx
   13f97:	48 8d 35 a1 2a 00 00 	lea    0x2aa1(%rip),%rsi        # 16a3f <g_2427+0x19cf>
   13f9e:	48 89 c7             	mov    %rax,%rdi
   13fa1:	e8 4d 57 ff ff       	callq  96f3 <transparent_crc>
   13fa6:	c7 45 f0 00 00 00 00 	movl   $0x0,-0x10(%rbp)
   13fad:	e9 9d 01 00 00       	jmpq   1414f <main+0x1155>
   13fb2:	c7 45 f4 00 00 00 00 	movl   $0x0,-0xc(%rbp)
   13fb9:	e9 83 01 00 00       	jmpq   14141 <main+0x1147>
   13fbe:	c7 45 f8 00 00 00 00 	movl   $0x0,-0x8(%rbp)
   13fc5:	e9 69 01 00 00       	jmpq   14133 <main+0x1139>
   13fca:	8b 45 f8             	mov    -0x8(%rbp),%eax
   13fcd:	48 98                	cltq   
   13fcf:	8b 55 f4             	mov    -0xc(%rbp),%edx
   13fd2:	48 63 f2             	movslq %edx,%rsi
   13fd5:	8b 55 f0             	mov    -0x10(%rbp),%edx
   13fd8:	48 63 ca             	movslq %edx,%rcx
   13fdb:	48 89 c2             	mov    %rax,%rdx
   13fde:	48 01 d2             	add    %rdx,%rdx
   13fe1:	48 01 c2             	add    %rax,%rdx
   13fe4:	48 8d 04 95 00 00 00 	lea    0x0(,%rdx,4),%rax
   13feb:	00 
   13fec:	48 89 c2             	mov    %rax,%rdx
   13fef:	48 89 f0             	mov    %rsi,%rax
   13ff2:	48 01 c0             	add    %rax,%rax
   13ff5:	48 01 f0             	add    %rsi,%rax
   13ff8:	48 c1 e0 03          	shl    $0x3,%rax
   13ffc:	48 01 c2             	add    %rax,%rdx
   13fff:	48 89 c8             	mov    %rcx,%rax
   14002:	48 01 c0             	add    %rax,%rax
   14005:	48 01 c8             	add    %rcx,%rax
   14008:	48 c1 e0 04          	shl    $0x4,%rax
   1400c:	48 01 c2             	add    %rax,%rdx
   1400f:	48 8d 05 ea 72 00 00 	lea    0x72ea(%rip),%rax        # 1b300 <g_2046>
   14016:	48 01 d0             	add    %rdx,%rax
   14019:	0f b6 00             	movzbl (%rax),%eax
   1401c:	48 0f be c0          	movsbq %al,%rax
   14020:	8b 55 fc             	mov    -0x4(%rbp),%edx
   14023:	48 8d 35 1c 2a 00 00 	lea    0x2a1c(%rip),%rsi        # 16a46 <g_2427+0x19d6>
   1402a:	48 89 c7             	mov    %rax,%rdi
   1402d:	e8 c1 56 ff ff       	callq  96f3 <transparent_crc>
   14032:	8b 45 f8             	mov    -0x8(%rbp),%eax
   14035:	48 98                	cltq   
   14037:	8b 55 f4             	mov    -0xc(%rbp),%edx
   1403a:	48 63 f2             	movslq %edx,%rsi
   1403d:	8b 55 f0             	mov    -0x10(%rbp),%edx
   14040:	48 63 ca             	movslq %edx,%rcx
   14043:	48 89 c2             	mov    %rax,%rdx
   14046:	48 01 d2             	add    %rdx,%rdx
   14049:	48 01 c2             	add    %rax,%rdx
   1404c:	48 8d 04 95 00 00 00 	lea    0x0(,%rdx,4),%rax
   14053:	00 
   14054:	48 89 c2             	mov    %rax,%rdx
   14057:	48 89 f0             	mov    %rsi,%rax
   1405a:	48 01 c0             	add    %rax,%rax
   1405d:	48 01 f0             	add    %rsi,%rax
   14060:	48 c1 e0 03          	shl    $0x3,%rax
   14064:	48 01 c2             	add    %rax,%rdx
   14067:	48 89 c8             	mov    %rcx,%rax
   1406a:	48 01 c0             	add    %rax,%rax
   1406d:	48 01 c8             	add    %rcx,%rax
   14070:	48 c1 e0 04          	shl    $0x4,%rax
   14074:	48 01 c2             	add    %rax,%rdx
   14077:	48 8d 05 82 72 00 00 	lea    0x7282(%rip),%rax        # 1b300 <g_2046>
   1407e:	48 01 d0             	add    %rdx,%rax
   14081:	8b 40 04             	mov    0x4(%rax),%eax
   14084:	25 ff ff ff 7f       	and    $0x7fffffff,%eax
   14089:	89 c1                	mov    %eax,%ecx
   1408b:	8b 45 fc             	mov    -0x4(%rbp),%eax
   1408e:	89 c2                	mov    %eax,%edx
   14090:	48 8d 35 c2 29 00 00 	lea    0x29c2(%rip),%rsi        # 16a59 <g_2427+0x19e9>
   14097:	48 89 cf             	mov    %rcx,%rdi
   1409a:	e8 54 56 ff ff       	callq  96f3 <transparent_crc>
   1409f:	8b 45 f8             	mov    -0x8(%rbp),%eax
   140a2:	48 98                	cltq   
   140a4:	8b 55 f4             	mov    -0xc(%rbp),%edx
   140a7:	48 63 f2             	movslq %edx,%rsi
   140aa:	8b 55 f0             	mov    -0x10(%rbp),%edx
   140ad:	48 63 ca             	movslq %edx,%rcx
   140b0:	48 89 c2             	mov    %rax,%rdx
   140b3:	48 01 d2             	add    %rdx,%rdx
   140b6:	48 01 c2             	add    %rax,%rdx
   140b9:	48 8d 04 95 00 00 00 	lea    0x0(,%rdx,4),%rax
   140c0:	00 
   140c1:	48 89 c2             	mov    %rax,%rdx
   140c4:	48 89 f0             	mov    %rsi,%rax
   140c7:	48 01 c0             	add    %rax,%rax
   140ca:	48 01 f0             	add    %rsi,%rax
   140cd:	48 c1 e0 03          	shl    $0x3,%rax
   140d1:	48 01 c2             	add    %rax,%rdx
   140d4:	48 89 c8             	mov    %rcx,%rax
   140d7:	48 01 c0             	add    %rax,%rax
   140da:	48 01 c8             	add    %rcx,%rax
   140dd:	48 c1 e0 04          	shl    $0x4,%rax
   140e1:	48 01 c2             	add    %rax,%rdx
   140e4:	48 8d 05 15 72 00 00 	lea    0x7215(%rip),%rax        # 1b300 <g_2046>
   140eb:	48 01 d0             	add    %rdx,%rax
   140ee:	8b 40 08             	mov    0x8(%rax),%eax
   140f1:	c1 e0 02             	shl    $0x2,%eax
   140f4:	c0 f8 02             	sar    $0x2,%al
   140f7:	48 0f be c0          	movsbq %al,%rax
   140fb:	8b 55 fc             	mov    -0x4(%rbp),%edx
   140fe:	48 8d 35 67 29 00 00 	lea    0x2967(%rip),%rsi        # 16a6c <g_2427+0x19fc>
   14105:	48 89 c7             	mov    %rax,%rdi
   14108:	e8 e6 55 ff ff       	callq  96f3 <transparent_crc>
   1410d:	83 7d fc 00          	cmpl   $0x0,-0x4(%rbp)
   14111:	74 1c                	je     1412f <main+0x1135>
   14113:	8b 4d f8             	mov    -0x8(%rbp),%ecx
   14116:	8b 55 f4             	mov    -0xc(%rbp),%edx
   14119:	8b 45 f0             	mov    -0x10(%rbp),%eax
   1411c:	89 c6                	mov    %eax,%esi
   1411e:	48 8d 3d 18 27 00 00 	lea    0x2718(%rip),%rdi        # 1683d <g_2427+0x17cd>
   14125:	b8 00 00 00 00       	mov    $0x0,%eax
   1412a:	e8 51 3f ff ff       	callq  8080 <printf@plt>
   1412f:	83 45 f8 01          	addl   $0x1,-0x8(%rbp)
   14133:	83 7d f8 01          	cmpl   $0x1,-0x8(%rbp)
   14137:	0f 8e 8d fe ff ff    	jle    13fca <main+0xfd0>
   1413d:	83 45 f4 01          	addl   $0x1,-0xc(%rbp)
   14141:	83 7d f4 01          	cmpl   $0x1,-0xc(%rbp)
   14145:	0f 8e 73 fe ff ff    	jle    13fbe <main+0xfc4>
   1414b:	83 45 f0 01          	addl   $0x1,-0x10(%rbp)
   1414f:	83 7d f0 02          	cmpl   $0x2,-0x10(%rbp)
   14153:	0f 8e 59 fe ff ff    	jle    13fb2 <main+0xfb8>
   14159:	0f b6 05 30 72 00 00 	movzbl 0x7230(%rip),%eax        # 1b390 <g_2152>
   14160:	48 0f be c0          	movsbq %al,%rax
   14164:	8b 55 fc             	mov    -0x4(%rbp),%edx
   14167:	48 8d 35 11 29 00 00 	lea    0x2911(%rip),%rsi        # 16a7f <g_2427+0x1a0f>
   1416e:	48 89 c7             	mov    %rax,%rdi
   14171:	e8 7d 55 ff ff       	callq  96f3 <transparent_crc>
   14176:	8b 05 18 72 00 00    	mov    0x7218(%rip),%eax        # 1b394 <g_2152+0x4>
   1417c:	25 ff ff ff 7f       	and    $0x7fffffff,%eax
   14181:	89 c1                	mov    %eax,%ecx
   14183:	8b 45 fc             	mov    -0x4(%rbp),%eax
   14186:	89 c2                	mov    %eax,%edx
   14188:	48 8d 35 fa 28 00 00 	lea    0x28fa(%rip),%rsi        # 16a89 <g_2427+0x1a19>
   1418f:	48 89 cf             	mov    %rcx,%rdi
   14192:	e8 5c 55 ff ff       	callq  96f3 <transparent_crc>
   14197:	0f b6 05 fa 71 00 00 	movzbl 0x71fa(%rip),%eax        # 1b398 <g_2152+0x8>
   1419e:	c1 e0 02             	shl    $0x2,%eax
   141a1:	c0 f8 02             	sar    $0x2,%al
   141a4:	48 0f be c0          	movsbq %al,%rax
   141a8:	8b 55 fc             	mov    -0x4(%rbp),%edx
   141ab:	48 8d 35 e1 28 00 00 	lea    0x28e1(%rip),%rsi        # 16a93 <g_2427+0x1a23>
   141b2:	48 89 c7             	mov    %rax,%rdi
   141b5:	e8 39 55 ff ff       	callq  96f3 <transparent_crc>
   141ba:	0f b6 05 db 71 00 00 	movzbl 0x71db(%rip),%eax        # 1b39c <g_2268>
   141c1:	48 0f be c0          	movsbq %al,%rax
   141c5:	8b 55 fc             	mov    -0x4(%rbp),%edx
   141c8:	48 8d 35 ce 28 00 00 	lea    0x28ce(%rip),%rsi        # 16a9d <g_2427+0x1a2d>
   141cf:	48 89 c7             	mov    %rax,%rdi
   141d2:	e8 1c 55 ff ff       	callq  96f3 <transparent_crc>
   141d7:	48 8b 05 c2 71 00 00 	mov    0x71c2(%rip),%rax        # 1b3a0 <g_2377>
   141de:	8b 55 fc             	mov    -0x4(%rbp),%edx
   141e1:	48 8d 35 bc 28 00 00 	lea    0x28bc(%rip),%rsi        # 16aa4 <g_2427+0x1a34>
   141e8:	48 89 c7             	mov    %rax,%rdi
   141eb:	e8 03 55 ff ff       	callq  96f3 <transparent_crc>
   141f0:	0f b6 05 b1 71 00 00 	movzbl 0x71b1(%rip),%eax        # 1b3a8 <g_2384>
   141f7:	48 0f be c0          	movsbq %al,%rax
   141fb:	8b 55 fc             	mov    -0x4(%rbp),%edx
   141fe:	48 8d 35 a6 28 00 00 	lea    0x28a6(%rip),%rsi        # 16aab <g_2427+0x1a3b>
   14205:	48 89 c7             	mov    %rax,%rdi
   14208:	e8 e6 54 ff ff       	callq  96f3 <transparent_crc>
   1420d:	48 8b 05 94 71 00 00 	mov    0x7194(%rip),%rax        # 1b3a8 <g_2384>
   14214:	48 c1 e8 20          	shr    $0x20,%rax
   14218:	25 ff ff ff 7f       	and    $0x7fffffff,%eax
   1421d:	89 c1                	mov    %eax,%ecx
   1421f:	8b 45 fc             	mov    -0x4(%rbp),%eax
   14222:	89 c2                	mov    %eax,%edx
   14224:	48 8d 35 8a 28 00 00 	lea    0x288a(%rip),%rsi        # 16ab5 <g_2427+0x1a45>
   1422b:	48 89 cf             	mov    %rcx,%rdi
   1422e:	e8 c0 54 ff ff       	callq  96f3 <transparent_crc>
   14233:	48 8b 05 76 71 00 00 	mov    0x7176(%rip),%rax        # 1b3b0 <g_2384+0x8>
   1423a:	c1 e0 02             	shl    $0x2,%eax
   1423d:	c0 f8 02             	sar    $0x2,%al
   14240:	48 0f be c0          	movsbq %al,%rax
   14244:	8b 55 fc             	mov    -0x4(%rbp),%edx
   14247:	48 8d 35 71 28 00 00 	lea    0x2871(%rip),%rsi        # 16abf <g_2427+0x1a4f>
   1424e:	48 89 c7             	mov    %rax,%rdi
   14251:	e8 9d 54 ff ff       	callq  96f3 <transparent_crc>
   14256:	48 8b 05 5b 71 00 00 	mov    0x715b(%rip),%rax        # 1b3b8 <g_2415>
   1425d:	8b 55 fc             	mov    -0x4(%rbp),%edx
   14260:	48 8d 35 62 28 00 00 	lea    0x2862(%rip),%rsi        # 16ac9 <g_2427+0x1a59>
   14267:	48 89 c7             	mov    %rax,%rdi
   1426a:	e8 84 54 ff ff       	callq  96f3 <transparent_crc>
   1426f:	b8 96 5a a4 e7       	mov    $0xe7a45a96,%eax
   14274:	48 98                	cltq   
   14276:	8b 55 fc             	mov    -0x4(%rbp),%edx
   14279:	48 8d 35 50 28 00 00 	lea    0x2850(%rip),%rsi        # 16ad0 <g_2427+0x1a60>
   14280:	48 89 c7             	mov    %rax,%rdi
   14283:	e8 6b 54 ff ff       	callq  96f3 <transparent_crc>
   14288:	c7 45 f0 00 00 00 00 	movl   $0x0,-0x10(%rbp)
   1428f:	e9 d1 00 00 00       	jmpq   14365 <main+0x136b>
   14294:	8b 45 f0             	mov    -0x10(%rbp),%eax
   14297:	48 63 d0             	movslq %eax,%rdx
   1429a:	48 89 d0             	mov    %rdx,%rax
   1429d:	48 01 c0             	add    %rax,%rax
   142a0:	48 01 d0             	add    %rdx,%rax
   142a3:	48 c1 e0 02          	shl    $0x2,%rax
   142a7:	48 89 c2             	mov    %rax,%rdx
   142aa:	48 8d 05 0f 71 00 00 	lea    0x710f(%rip),%rax        # 1b3c0 <g_2457>
   142b1:	0f b6 04 02          	movzbl (%rdx,%rax,1),%eax
   142b5:	48 0f be c0          	movsbq %al,%rax
   142b9:	8b 55 fc             	mov    -0x4(%rbp),%edx
   142bc:	48 8d 35 14 28 00 00 	lea    0x2814(%rip),%rsi        # 16ad7 <g_2427+0x1a67>
   142c3:	48 89 c7             	mov    %rax,%rdi
   142c6:	e8 28 54 ff ff       	callq  96f3 <transparent_crc>
   142cb:	8b 45 f0             	mov    -0x10(%rbp),%eax
   142ce:	48 63 d0             	movslq %eax,%rdx
   142d1:	48 89 d0             	mov    %rdx,%rax
   142d4:	48 01 c0             	add    %rax,%rax
   142d7:	48 01 d0             	add    %rdx,%rax
   142da:	48 c1 e0 02          	shl    $0x2,%rax
   142de:	48 89 c2             	mov    %rax,%rdx
   142e1:	48 8d 05 d8 70 00 00 	lea    0x70d8(%rip),%rax        # 1b3c0 <g_2457>
   142e8:	8b 44 02 04          	mov    0x4(%rdx,%rax,1),%eax
   142ec:	25 ff ff ff 7f       	and    $0x7fffffff,%eax
   142f1:	89 c1                	mov    %eax,%ecx
   142f3:	8b 45 fc             	mov    -0x4(%rbp),%eax
   142f6:	89 c2                	mov    %eax,%edx
   142f8:	48 8d 35 e5 27 00 00 	lea    0x27e5(%rip),%rsi        # 16ae4 <g_2427+0x1a74>
   142ff:	48 89 cf             	mov    %rcx,%rdi
   14302:	e8 ec 53 ff ff       	callq  96f3 <transparent_crc>
   14307:	8b 45 f0             	mov    -0x10(%rbp),%eax
   1430a:	48 63 d0             	movslq %eax,%rdx
   1430d:	48 89 d0             	mov    %rdx,%rax
   14310:	48 01 c0             	add    %rax,%rax
   14313:	48 01 d0             	add    %rdx,%rax
   14316:	48 c1 e0 02          	shl    $0x2,%rax
   1431a:	48 89 c2             	mov    %rax,%rdx
   1431d:	48 8d 05 9c 70 00 00 	lea    0x709c(%rip),%rax        # 1b3c0 <g_2457>
   14324:	0f b6 44 02 08       	movzbl 0x8(%rdx,%rax,1),%eax
   14329:	c1 e0 02             	shl    $0x2,%eax
   1432c:	c0 f8 02             	sar    $0x2,%al
   1432f:	48 0f be c0          	movsbq %al,%rax
   14333:	8b 55 fc             	mov    -0x4(%rbp),%edx
   14336:	48 8d 35 b4 27 00 00 	lea    0x27b4(%rip),%rsi        # 16af1 <g_2427+0x1a81>
   1433d:	48 89 c7             	mov    %rax,%rdi
   14340:	e8 ae 53 ff ff       	callq  96f3 <transparent_crc>
   14345:	83 7d fc 00          	cmpl   $0x0,-0x4(%rbp)
   14349:	74 16                	je     14361 <main+0x1367>
   1434b:	8b 45 f0             	mov    -0x10(%rbp),%eax
   1434e:	89 c6                	mov    %eax,%esi
   14350:	48 8d 3d d6 23 00 00 	lea    0x23d6(%rip),%rdi        # 1672d <g_2427+0x16bd>
   14357:	b8 00 00 00 00       	mov    $0x0,%eax
   1435c:	e8 1f 3d ff ff       	callq  8080 <printf@plt>
   14361:	83 45 f0 01          	addl   $0x1,-0x10(%rbp)
   14365:	83 7d f0 08          	cmpl   $0x8,-0x10(%rbp)
   14369:	0f 8e 25 ff ff ff    	jle    14294 <main+0x129a>
   1436f:	48 8b 05 ba 70 00 00 	mov    0x70ba(%rip),%rax        # 1b430 <g_2534>
   14376:	48 89 c1             	mov    %rax,%rcx
   14379:	8b 45 fc             	mov    -0x4(%rbp),%eax
   1437c:	89 c2                	mov    %eax,%edx
   1437e:	48 8d 35 79 27 00 00 	lea    0x2779(%rip),%rsi        # 16afe <g_2427+0x1a8e>
   14385:	48 89 cf             	mov    %rcx,%rdi
   14388:	e8 66 53 ff ff       	callq  96f3 <transparent_crc>
   1438d:	0f b6 05 a4 70 00 00 	movzbl 0x70a4(%rip),%eax        # 1b438 <g_2621>
   14394:	48 0f be c0          	movsbq %al,%rax
   14398:	8b 55 fc             	mov    -0x4(%rbp),%edx
   1439b:	48 8d 35 63 27 00 00 	lea    0x2763(%rip),%rsi        # 16b05 <g_2427+0x1a95>
   143a2:	48 89 c7             	mov    %rax,%rdi
   143a5:	e8 49 53 ff ff       	callq  96f3 <transparent_crc>
   143aa:	48 8b 05 87 70 00 00 	mov    0x7087(%rip),%rax        # 1b438 <g_2621>
   143b1:	48 c1 e8 20          	shr    $0x20,%rax
   143b5:	25 ff ff ff 7f       	and    $0x7fffffff,%eax
   143ba:	89 c1                	mov    %eax,%ecx
   143bc:	8b 45 fc             	mov    -0x4(%rbp),%eax
   143bf:	89 c2                	mov    %eax,%edx
   143c1:	48 8d 35 47 27 00 00 	lea    0x2747(%rip),%rsi        # 16b0f <g_2427+0x1a9f>
   143c8:	48 89 cf             	mov    %rcx,%rdi
   143cb:	e8 23 53 ff ff       	callq  96f3 <transparent_crc>
   143d0:	48 8b 05 69 70 00 00 	mov    0x7069(%rip),%rax        # 1b440 <g_2621+0x8>
   143d7:	c1 e0 02             	shl    $0x2,%eax
   143da:	c0 f8 02             	sar    $0x2,%al
   143dd:	48 0f be c0          	movsbq %al,%rax
   143e1:	8b 55 fc             	mov    -0x4(%rbp),%edx
   143e4:	48 8d 35 2e 27 00 00 	lea    0x272e(%rip),%rsi        # 16b19 <g_2427+0x1aa9>
   143eb:	48 89 c7             	mov    %rax,%rdi
   143ee:	e8 00 53 ff ff       	callq  96f3 <transparent_crc>
   143f3:	0f b6 05 4e 70 00 00 	movzbl 0x704e(%rip),%eax        # 1b448 <g_2692>
   143fa:	48 0f be c0          	movsbq %al,%rax
   143fe:	8b 55 fc             	mov    -0x4(%rbp),%edx
   14401:	48 8d 35 1b 27 00 00 	lea    0x271b(%rip),%rsi        # 16b23 <g_2427+0x1ab3>
   14408:	48 89 c7             	mov    %rax,%rdi
   1440b:	e8 e3 52 ff ff       	callq  96f3 <transparent_crc>
   14410:	8b 05 36 70 00 00    	mov    0x7036(%rip),%eax        # 1b44c <g_2692+0x4>
   14416:	25 ff ff ff 7f       	and    $0x7fffffff,%eax
   1441b:	89 c1                	mov    %eax,%ecx
   1441d:	8b 45 fc             	mov    -0x4(%rbp),%eax
   14420:	89 c2                	mov    %eax,%edx
   14422:	48 8d 35 04 27 00 00 	lea    0x2704(%rip),%rsi        # 16b2d <g_2427+0x1abd>
   14429:	48 89 cf             	mov    %rcx,%rdi
   1442c:	e8 c2 52 ff ff       	callq  96f3 <transparent_crc>
   14431:	0f b6 05 18 70 00 00 	movzbl 0x7018(%rip),%eax        # 1b450 <g_2692+0x8>
   14438:	c1 e0 02             	shl    $0x2,%eax
   1443b:	c0 f8 02             	sar    $0x2,%al
   1443e:	48 0f be c0          	movsbq %al,%rax
   14442:	8b 55 fc             	mov    -0x4(%rbp),%edx
   14445:	48 8d 35 eb 26 00 00 	lea    0x26eb(%rip),%rsi        # 16b37 <g_2427+0x1ac7>
   1444c:	48 89 c7             	mov    %rax,%rdi
   1444f:	e8 9f 52 ff ff       	callq  96f3 <transparent_crc>
   14454:	c7 45 f0 00 00 00 00 	movl   $0x0,-0x10(%rbp)
   1445b:	e9 42 01 00 00       	jmpq   145a2 <main+0x15a8>
   14460:	c7 45 f4 00 00 00 00 	movl   $0x0,-0xc(%rbp)
   14467:	e9 28 01 00 00       	jmpq   14594 <main+0x159a>
   1446c:	8b 45 f4             	mov    -0xc(%rbp),%eax
   1446f:	48 98                	cltq   
   14471:	8b 55 f0             	mov    -0x10(%rbp),%edx
   14474:	48 63 ca             	movslq %edx,%rcx
   14477:	48 89 c2             	mov    %rax,%rdx
   1447a:	48 01 d2             	add    %rdx,%rdx
   1447d:	48 01 c2             	add    %rax,%rdx
   14480:	48 8d 04 95 00 00 00 	lea    0x0(,%rdx,4),%rax
   14487:	00 
   14488:	48 89 c2             	mov    %rax,%rdx
   1448b:	48 89 c8             	mov    %rcx,%rax
   1448e:	48 c1 e0 03          	shl    $0x3,%rax
   14492:	48 01 c8             	add    %rcx,%rax
   14495:	48 c1 e0 03          	shl    $0x3,%rax
   14499:	48 01 c2             	add    %rax,%rdx
   1449c:	48 8d 05 bd 6f 00 00 	lea    0x6fbd(%rip),%rax        # 1b460 <g_2693>
   144a3:	48 01 d0             	add    %rdx,%rax
   144a6:	0f b6 00             	movzbl (%rax),%eax
   144a9:	48 0f be c0          	movsbq %al,%rax
   144ad:	8b 55 fc             	mov    -0x4(%rbp),%edx
   144b0:	48 8d 35 8a 26 00 00 	lea    0x268a(%rip),%rsi        # 16b41 <g_2427+0x1ad1>
   144b7:	48 89 c7             	mov    %rax,%rdi
   144ba:	e8 34 52 ff ff       	callq  96f3 <transparent_crc>
   144bf:	8b 45 f4             	mov    -0xc(%rbp),%eax
   144c2:	48 98                	cltq   
   144c4:	8b 55 f0             	mov    -0x10(%rbp),%edx
   144c7:	48 63 ca             	movslq %edx,%rcx
   144ca:	48 89 c2             	mov    %rax,%rdx
   144cd:	48 01 d2             	add    %rdx,%rdx
   144d0:	48 01 c2             	add    %rax,%rdx
   144d3:	48 8d 04 95 00 00 00 	lea    0x0(,%rdx,4),%rax
   144da:	00 
   144db:	48 89 c2             	mov    %rax,%rdx
   144de:	48 89 c8             	mov    %rcx,%rax
   144e1:	48 c1 e0 03          	shl    $0x3,%rax
   144e5:	48 01 c8             	add    %rcx,%rax
   144e8:	48 c1 e0 03          	shl    $0x3,%rax
   144ec:	48 01 c2             	add    %rax,%rdx
   144ef:	48 8d 05 6a 6f 00 00 	lea    0x6f6a(%rip),%rax        # 1b460 <g_2693>
   144f6:	48 01 d0             	add    %rdx,%rax
   144f9:	8b 40 04             	mov    0x4(%rax),%eax
   144fc:	25 ff ff ff 7f       	and    $0x7fffffff,%eax
   14501:	89 c1                	mov    %eax,%ecx
   14503:	8b 45 fc             	mov    -0x4(%rbp),%eax
   14506:	89 c2                	mov    %eax,%edx
   14508:	48 8d 35 42 26 00 00 	lea    0x2642(%rip),%rsi        # 16b51 <g_2427+0x1ae1>
   1450f:	48 89 cf             	mov    %rcx,%rdi
   14512:	e8 dc 51 ff ff       	callq  96f3 <transparent_crc>
   14517:	8b 45 f4             	mov    -0xc(%rbp),%eax
   1451a:	48 98                	cltq   
   1451c:	8b 55 f0             	mov    -0x10(%rbp),%edx
   1451f:	48 63 ca             	movslq %edx,%rcx
   14522:	48 89 c2             	mov    %rax,%rdx
   14525:	48 01 d2             	add    %rdx,%rdx
   14528:	48 01 c2             	add    %rax,%rdx
   1452b:	48 8d 04 95 00 00 00 	lea    0x0(,%rdx,4),%rax
   14532:	00 
   14533:	48 89 c2             	mov    %rax,%rdx
   14536:	48 89 c8             	mov    %rcx,%rax
   14539:	48 c1 e0 03          	shl    $0x3,%rax
   1453d:	48 01 c8             	add    %rcx,%rax
   14540:	48 c1 e0 03          	shl    $0x3,%rax
   14544:	48 01 c2             	add    %rax,%rdx
   14547:	48 8d 05 12 6f 00 00 	lea    0x6f12(%rip),%rax        # 1b460 <g_2693>
   1454e:	48 01 d0             	add    %rdx,%rax
   14551:	0f b6 40 08          	movzbl 0x8(%rax),%eax
   14555:	c1 e0 02             	shl    $0x2,%eax
   14558:	c0 f8 02             	sar    $0x2,%al
   1455b:	48 0f be c0          	movsbq %al,%rax
   1455f:	8b 55 fc             	mov    -0x4(%rbp),%edx
   14562:	48 8d 35 f8 25 00 00 	lea    0x25f8(%rip),%rsi        # 16b61 <g_2427+0x1af1>
   14569:	48 89 c7             	mov    %rax,%rdi
   1456c:	e8 82 51 ff ff       	callq  96f3 <transparent_crc>
   14571:	83 7d fc 00          	cmpl   $0x0,-0x4(%rbp)
   14575:	74 19                	je     14590 <main+0x1596>
   14577:	8b 55 f4             	mov    -0xc(%rbp),%edx
   1457a:	8b 45 f0             	mov    -0x10(%rbp),%eax
   1457d:	89 c6                	mov    %eax,%esi
   1457f:	48 8d 3d eb 25 00 00 	lea    0x25eb(%rip),%rdi        # 16b71 <g_2427+0x1b01>
   14586:	b8 00 00 00 00       	mov    $0x0,%eax
   1458b:	e8 f0 3a ff ff       	callq  8080 <printf@plt>
   14590:	83 45 f4 01          	addl   $0x1,-0xc(%rbp)
   14594:	83 7d f4 05          	cmpl   $0x5,-0xc(%rbp)
   14598:	0f 8e ce fe ff ff    	jle    1446c <main+0x1472>
   1459e:	83 45 f0 01          	addl   $0x1,-0x10(%rbp)
   145a2:	83 7d f0 03          	cmpl   $0x3,-0x10(%rbp)
   145a6:	0f 8e b4 fe ff ff    	jle    14460 <main+0x1466>
   145ac:	c7 45 f0 00 00 00 00 	movl   $0x0,-0x10(%rbp)
   145b3:	e9 af 00 00 00       	jmpq   14667 <main+0x166d>
   145b8:	c7 45 f4 00 00 00 00 	movl   $0x0,-0xc(%rbp)
   145bf:	e9 95 00 00 00       	jmpq   14659 <main+0x165f>
   145c4:	c7 45 f8 00 00 00 00 	movl   $0x0,-0x8(%rbp)
   145cb:	eb 7e                	jmp    1464b <main+0x1651>
   145cd:	8b 45 f8             	mov    -0x8(%rbp),%eax
   145d0:	48 63 f0             	movslq %eax,%rsi
   145d3:	8b 45 f0             	mov    -0x10(%rbp),%eax
   145d6:	48 63 d0             	movslq %eax,%rdx
   145d9:	8b 45 f4             	mov    -0xc(%rbp),%eax
   145dc:	48 63 c8             	movslq %eax,%rcx
   145df:	48 89 d0             	mov    %rdx,%rax
   145e2:	48 c1 e0 02          	shl    $0x2,%rax
   145e6:	48 01 d0             	add    %rdx,%rax
   145e9:	48 c1 e0 03          	shl    $0x3,%rax
   145ed:	48 89 ca             	mov    %rcx,%rdx
   145f0:	48 c1 e2 02          	shl    $0x2,%rdx
   145f4:	48 01 ca             	add    %rcx,%rdx
   145f7:	48 01 d0             	add    %rdx,%rax
   145fa:	48 01 f0             	add    %rsi,%rax
   145fd:	48 8d 14 85 00 00 00 	lea    0x0(,%rax,4),%rdx
   14604:	00 
   14605:	48 8d 05 74 6f 00 00 	lea    0x6f74(%rip),%rax        # 1b580 <g_2784>
   1460c:	8b 04 02             	mov    (%rdx,%rax,1),%eax
   1460f:	89 c1                	mov    %eax,%ecx
   14611:	8b 45 fc             	mov    -0x4(%rbp),%eax
   14614:	89 c2                	mov    %eax,%edx
   14616:	48 8d 35 66 25 00 00 	lea    0x2566(%rip),%rsi        # 16b83 <g_2427+0x1b13>
   1461d:	48 89 cf             	mov    %rcx,%rdi
   14620:	e8 ce 50 ff ff       	callq  96f3 <transparent_crc>
   14625:	83 7d fc 00          	cmpl   $0x0,-0x4(%rbp)
   14629:	74 1c                	je     14647 <main+0x164d>
   1462b:	8b 4d f8             	mov    -0x8(%rbp),%ecx
   1462e:	8b 55 f4             	mov    -0xc(%rbp),%edx
   14631:	8b 45 f0             	mov    -0x10(%rbp),%eax
   14634:	89 c6                	mov    %eax,%esi
   14636:	48 8d 3d 00 22 00 00 	lea    0x2200(%rip),%rdi        # 1683d <g_2427+0x17cd>
   1463d:	b8 00 00 00 00       	mov    $0x0,%eax
   14642:	e8 39 3a ff ff       	callq  8080 <printf@plt>
   14647:	83 45 f8 01          	addl   $0x1,-0x8(%rbp)
   1464b:	83 7d f8 04          	cmpl   $0x4,-0x8(%rbp)
   1464f:	0f 8e 78 ff ff ff    	jle    145cd <main+0x15d3>
   14655:	83 45 f4 01          	addl   $0x1,-0xc(%rbp)
   14659:	83 7d f4 07          	cmpl   $0x7,-0xc(%rbp)
   1465d:	0f 8e 61 ff ff ff    	jle    145c4 <main+0x15ca>
   14663:	83 45 f0 01          	addl   $0x1,-0x10(%rbp)
   14667:	83 7d f0 05          	cmpl   $0x5,-0x10(%rbp)
   1466b:	0f 8e 47 ff ff ff    	jle    145b8 <main+0x15be>
   14671:	0f b7 05 c8 72 00 00 	movzwl 0x72c8(%rip),%eax        # 1b940 <g_2887>
   14678:	48 0f bf c0          	movswq %ax,%rax
   1467c:	8b 55 fc             	mov    -0x4(%rbp),%edx
   1467f:	48 8d 35 0d 25 00 00 	lea    0x250d(%rip),%rsi        # 16b93 <g_2427+0x1b23>
   14686:	48 89 c7             	mov    %rax,%rdi
   14689:	e8 65 50 ff ff       	callq  96f3 <transparent_crc>
   1468e:	8b 05 8c 59 00 00    	mov    0x598c(%rip),%eax        # 1a020 <crc32_context>
   14694:	f7 d0                	not    %eax
   14696:	89 c2                	mov    %eax,%edx
   14698:	8b 45 fc             	mov    -0x4(%rbp),%eax
   1469b:	89 c6                	mov    %eax,%esi
   1469d:	89 d7                	mov    %edx,%edi
   1469f:	e8 f0 3a ff ff       	callq  8194 <platform_main_end>
   146a4:	b8 00 00 00 00       	mov    $0x0,%eax
   146a9:	c9                   	leaveq 
   146aa:	c3                   	retq   
   146ab:	0f 1f 44 00 00       	nopl   0x0(%rax,%rax,1)

00000000000146b0 <__libc_csu_init>:
   146b0:	f3 0f 1e fa          	endbr64 
   146b4:	41 57                	push   %r15
   146b6:	4c 8d 3d 53 52 00 00 	lea    0x5253(%rip),%r15        # 19910 <__frame_dummy_init_array_entry>
   146bd:	41 56                	push   %r14
   146bf:	49 89 d6             	mov    %rdx,%r14
   146c2:	41 55                	push   %r13
   146c4:	49 89 f5             	mov    %rsi,%r13
   146c7:	41 54                	push   %r12
   146c9:	41 89 fc             	mov    %edi,%r12d
   146cc:	55                   	push   %rbp
   146cd:	48 8d 2d 44 52 00 00 	lea    0x5244(%rip),%rbp        # 19918 <__do_global_dtors_aux_fini_array_entry>
   146d4:	53                   	push   %rbx
   146d5:	4c 29 fd             	sub    %r15,%rbp
   146d8:	48 83 ec 08          	sub    $0x8,%rsp
   146dc:	e8 1f 39 ff ff       	callq  8000 <_init>
   146e1:	48 c1 fd 03          	sar    $0x3,%rbp
   146e5:	74 1f                	je     14706 <__libc_csu_init+0x56>
   146e7:	31 db                	xor    %ebx,%ebx
   146e9:	0f 1f 80 00 00 00 00 	nopl   0x0(%rax)
   146f0:	4c 89 f2             	mov    %r14,%rdx
   146f3:	4c 89 ee             	mov    %r13,%rsi
   146f6:	44 89 e7             	mov    %r12d,%edi
   146f9:	41 ff 14 df          	callq  *(%r15,%rbx,8)
   146fd:	48 83 c3 01          	add    $0x1,%rbx
   14701:	48 39 dd             	cmp    %rbx,%rbp
   14704:	75 ea                	jne    146f0 <__libc_csu_init+0x40>
   14706:	48 83 c4 08          	add    $0x8,%rsp
   1470a:	5b                   	pop    %rbx
   1470b:	5d                   	pop    %rbp
   1470c:	41 5c                	pop    %r12
   1470e:	41 5d                	pop    %r13
   14710:	41 5e                	pop    %r14
   14712:	41 5f                	pop    %r15
   14714:	c3                   	retq   
   14715:	66 66 2e 0f 1f 84 00 	data16 nopw %cs:0x0(%rax,%rax,1)
   1471c:	00 00 00 00 

0000000000014720 <__libc_csu_fini>:
   14720:	f3 0f 1e fa          	endbr64 
   14724:	c3                   	retq   
