


Disassembly of section .text:

00000000000080a0 <_start>:
    80a0:	f3 0f 1e fa          	endbr64 
    80a4:	31 ed                	xor    %ebp,%ebp
    80a6:	49 89 d1             	mov    %rdx,%r9
    80a9:	5e                   	pop    %rsi
    80aa:	48 89 e2             	mov    %rsp,%rdx
    80ad:	48 83 e4 f0          	and    $0xfffffffffffffff0,%rsp
    80b1:	50                   	push   %rax
    80b2:	54                   	push   %rsp
    80b3:	4c 8d 05 e6 13 01 00 	lea    0x113e6(%rip),%r8        # 194a0 <__libc_csu_fini>
    80ba:	48 8d 0d 6f 13 01 00 	lea    0x1136f(%rip),%rcx        # 19430 <__libc_csu_init>
    80c1:	48 8d 3d cd f5 00 00 	lea    0xf5cd(%rip),%rdi        # 17695 <main>
    80c8:	ff 15 12 6f 01 00    	callq  *0x16f12(%rip)        # 1efe0 <__libc_start_main@GLIBC_2.2.5>
    80ce:	f4                   	hlt    
    80cf:	90                   	nop

00000000000080d0 <deregister_tm_clones>:
    80d0:	48 8d 3d a9 a6 01 00 	lea    0x1a6a9(%rip),%rdi        # 22780 <__TMC_END__>
    80d7:	48 8d 05 a2 a6 01 00 	lea    0x1a6a2(%rip),%rax        # 22780 <__TMC_END__>
    80de:	48 39 f8             	cmp    %rdi,%rax
    80e1:	74 15                	je     80f8 <deregister_tm_clones+0x28>
    80e3:	48 8b 05 ee 6e 01 00 	mov    0x16eee(%rip),%rax        # 1efd8 <_ITM_deregisterTMCloneTable>
    80ea:	48 85 c0             	test   %rax,%rax
    80ed:	74 09                	je     80f8 <deregister_tm_clones+0x28>
    80ef:	ff e0                	jmpq   *%rax
    80f1:	0f 1f 80 00 00 00 00 	nopl   0x0(%rax)
    80f8:	c3                   	retq   
    80f9:	0f 1f 80 00 00 00 00 	nopl   0x0(%rax)

0000000000008100 <register_tm_clones>:
    8100:	48 8d 3d 79 a6 01 00 	lea    0x1a679(%rip),%rdi        # 22780 <__TMC_END__>
    8107:	48 8d 35 72 a6 01 00 	lea    0x1a672(%rip),%rsi        # 22780 <__TMC_END__>
    810e:	48 29 fe             	sub    %rdi,%rsi
    8111:	48 89 f0             	mov    %rsi,%rax
    8114:	48 c1 ee 3f          	shr    $0x3f,%rsi
    8118:	48 c1 f8 03          	sar    $0x3,%rax
    811c:	48 01 c6             	add    %rax,%rsi
    811f:	48 d1 fe             	sar    %rsi
    8122:	74 14                	je     8138 <register_tm_clones+0x38>
    8124:	48 8b 05 c5 6e 01 00 	mov    0x16ec5(%rip),%rax        # 1eff0 <_ITM_registerTMCloneTable>
    812b:	48 85 c0             	test   %rax,%rax
    812e:	74 08                	je     8138 <register_tm_clones+0x38>
    8130:	ff e0                	jmpq   *%rax
    8132:	66 0f 1f 44 00 00    	nopw   0x0(%rax,%rax,1)
    8138:	c3                   	retq   
    8139:	0f 1f 80 00 00 00 00 	nopl   0x0(%rax)

0000000000008140 <__do_global_dtors_aux>:
    8140:	f3 0f 1e fa          	endbr64 
    8144:	80 3d 35 a6 01 00 00 	cmpb   $0x0,0x1a635(%rip)        # 22780 <__TMC_END__>
    814b:	75 2b                	jne    8178 <__do_global_dtors_aux+0x38>
    814d:	55                   	push   %rbp
    814e:	48 83 3d a2 6e 01 00 	cmpq   $0x0,0x16ea2(%rip)        # 1eff8 <__cxa_finalize@GLIBC_2.2.5>
    8155:	00 
    8156:	48 89 e5             	mov    %rsp,%rbp
    8159:	74 0c                	je     8167 <__do_global_dtors_aux+0x27>
    815b:	48 8b 3d a6 6e 01 00 	mov    0x16ea6(%rip),%rdi        # 1f008 <__dso_handle>
    8162:	e8 f9 fe ff ff       	callq  8060 <__cxa_finalize@plt>
    8167:	e8 64 ff ff ff       	callq  80d0 <deregister_tm_clones>
    816c:	c6 05 0d a6 01 00 01 	movb   $0x1,0x1a60d(%rip)        # 22780 <__TMC_END__>
    8173:	5d                   	pop    %rbp
    8174:	c3                   	retq   
    8175:	0f 1f 00             	nopl   (%rax)
    8178:	c3                   	retq   
    8179:	0f 1f 80 00 00 00 00 	nopl   0x0(%rax)

0000000000008180 <frame_dummy>:
    8180:	f3 0f 1e fa          	endbr64 
    8184:	e9 77 ff ff ff       	jmpq   8100 <register_tm_clones>

0000000000008189 <platform_main_begin>:
    8189:	f3 0f 1e fa          	endbr64 
    818d:	55                   	push   %rbp
    818e:	48 89 e5             	mov    %rsp,%rbp
    8191:	90                   	nop
    8192:	5d                   	pop    %rbp
    8193:	c3                   	retq   

0000000000008194 <platform_main_end>:
    8194:	f3 0f 1e fa          	endbr64 
    8198:	55                   	push   %rbp
    8199:	48 89 e5             	mov    %rsp,%rbp
    819c:	48 83 ec 10          	sub    $0x10,%rsp
    81a0:	89 7d fc             	mov    %edi,-0x4(%rbp)
    81a3:	89 75 f8             	mov    %esi,-0x8(%rbp)
    81a6:	8b 45 fc             	mov    -0x4(%rbp),%eax
    81a9:	89 c6                	mov    %eax,%esi
    81ab:	48 8d 3d 6e 1e 01 00 	lea    0x11e6e(%rip),%rdi        # 1a020 <_IO_stdin_used+0x20>
    81b2:	b8 00 00 00 00       	mov    $0x0,%eax
    81b7:	e8 c4 fe ff ff       	callq  8080 <printf@plt>
    81bc:	90                   	nop
    81bd:	c9                   	leaveq 
    81be:	c3                   	retq   

00000000000081bf <safe_unary_minus_func_int8_t_s>:
    81bf:	f3 0f 1e fa          	endbr64 
    81c3:	55                   	push   %rbp
    81c4:	48 89 e5             	mov    %rsp,%rbp
    81c7:	89 f8                	mov    %edi,%eax
    81c9:	88 45 fc             	mov    %al,-0x4(%rbp)
    81cc:	0f b6 45 fc          	movzbl -0x4(%rbp),%eax
    81d0:	f7 d8                	neg    %eax
    81d2:	5d                   	pop    %rbp
    81d3:	c3                   	retq   

00000000000081d4 <safe_add_func_int8_t_s_s>:
    81d4:	f3 0f 1e fa          	endbr64 
    81d8:	55                   	push   %rbp
    81d9:	48 89 e5             	mov    %rsp,%rbp
    81dc:	89 fa                	mov    %edi,%edx
    81de:	89 f0                	mov    %esi,%eax
    81e0:	88 55 fc             	mov    %dl,-0x4(%rbp)
    81e3:	88 45 f8             	mov    %al,-0x8(%rbp)
    81e6:	0f b6 55 fc          	movzbl -0x4(%rbp),%edx
    81ea:	0f b6 45 f8          	movzbl -0x8(%rbp),%eax
    81ee:	01 d0                	add    %edx,%eax
    81f0:	5d                   	pop    %rbp
    81f1:	c3                   	retq   

00000000000081f2 <safe_sub_func_int8_t_s_s>:
    81f2:	f3 0f 1e fa          	endbr64 
    81f6:	55                   	push   %rbp
    81f7:	48 89 e5             	mov    %rsp,%rbp
    81fa:	89 fa                	mov    %edi,%edx
    81fc:	89 f0                	mov    %esi,%eax
    81fe:	88 55 fc             	mov    %dl,-0x4(%rbp)
    8201:	88 45 f8             	mov    %al,-0x8(%rbp)
    8204:	0f b6 55 fc          	movzbl -0x4(%rbp),%edx
    8208:	0f b6 45 f8          	movzbl -0x8(%rbp),%eax
    820c:	29 c2                	sub    %eax,%edx
    820e:	89 d0                	mov    %edx,%eax
    8210:	5d                   	pop    %rbp
    8211:	c3                   	retq   

0000000000008212 <safe_mul_func_int8_t_s_s>:
    8212:	f3 0f 1e fa          	endbr64 
    8216:	55                   	push   %rbp
    8217:	48 89 e5             	mov    %rsp,%rbp
    821a:	89 fa                	mov    %edi,%edx
    821c:	89 f0                	mov    %esi,%eax
    821e:	88 55 fc             	mov    %dl,-0x4(%rbp)
    8221:	88 45 f8             	mov    %al,-0x8(%rbp)
    8224:	0f b6 45 fc          	movzbl -0x4(%rbp),%eax
    8228:	0f b6 55 f8          	movzbl -0x8(%rbp),%edx
    822c:	0f af c2             	imul   %edx,%eax
    822f:	5d                   	pop    %rbp
    8230:	c3                   	retq   

0000000000008231 <safe_mod_func_int8_t_s_s>:
    8231:	f3 0f 1e fa          	endbr64 
    8235:	55                   	push   %rbp
    8236:	48 89 e5             	mov    %rsp,%rbp
    8239:	89 fa                	mov    %edi,%edx
    823b:	89 f0                	mov    %esi,%eax
    823d:	88 55 fc             	mov    %dl,-0x4(%rbp)
    8240:	88 45 f8             	mov    %al,-0x8(%rbp)
    8243:	80 7d f8 00          	cmpb   $0x0,-0x8(%rbp)
    8247:	74 1b                	je     8264 <safe_mod_func_int8_t_s_s+0x33>
    8249:	80 7d fc 80          	cmpb   $0x80,-0x4(%rbp)
    824d:	75 06                	jne    8255 <safe_mod_func_int8_t_s_s+0x24>
    824f:	80 7d f8 ff          	cmpb   $0xff,-0x8(%rbp)
    8253:	74 0f                	je     8264 <safe_mod_func_int8_t_s_s+0x33>
    8255:	0f be 45 fc          	movsbl -0x4(%rbp),%eax
    8259:	0f be 4d f8          	movsbl -0x8(%rbp),%ecx
    825d:	99                   	cltd   
    825e:	f7 f9                	idiv   %ecx
    8260:	89 d0                	mov    %edx,%eax
    8262:	eb 04                	jmp    8268 <safe_mod_func_int8_t_s_s+0x37>
    8264:	0f b6 45 fc          	movzbl -0x4(%rbp),%eax
    8268:	5d                   	pop    %rbp
    8269:	c3                   	retq   

000000000000826a <safe_div_func_int8_t_s_s>:
    826a:	f3 0f 1e fa          	endbr64 
    826e:	55                   	push   %rbp
    826f:	48 89 e5             	mov    %rsp,%rbp
    8272:	89 fa                	mov    %edi,%edx
    8274:	89 f0                	mov    %esi,%eax
    8276:	88 55 fc             	mov    %dl,-0x4(%rbp)
    8279:	88 45 f8             	mov    %al,-0x8(%rbp)
    827c:	80 7d f8 00          	cmpb   $0x0,-0x8(%rbp)
    8280:	74 19                	je     829b <safe_div_func_int8_t_s_s+0x31>
    8282:	80 7d fc 80          	cmpb   $0x80,-0x4(%rbp)
    8286:	75 06                	jne    828e <safe_div_func_int8_t_s_s+0x24>
    8288:	80 7d f8 ff          	cmpb   $0xff,-0x8(%rbp)
    828c:	74 0d                	je     829b <safe_div_func_int8_t_s_s+0x31>
    828e:	0f be 45 fc          	movsbl -0x4(%rbp),%eax
    8292:	0f be 4d f8          	movsbl -0x8(%rbp),%ecx
    8296:	99                   	cltd   
    8297:	f7 f9                	idiv   %ecx
    8299:	eb 04                	jmp    829f <safe_div_func_int8_t_s_s+0x35>
    829b:	0f b6 45 fc          	movzbl -0x4(%rbp),%eax
    829f:	5d                   	pop    %rbp
    82a0:	c3                   	retq   

00000000000082a1 <safe_lshift_func_int8_t_s_s>:
    82a1:	f3 0f 1e fa          	endbr64 
    82a5:	55                   	push   %rbp
    82a6:	48 89 e5             	mov    %rsp,%rbp
    82a9:	89 f8                	mov    %edi,%eax
    82ab:	89 75 f8             	mov    %esi,-0x8(%rbp)
    82ae:	88 45 fc             	mov    %al,-0x4(%rbp)
    82b1:	80 7d fc 00          	cmpb   $0x0,-0x4(%rbp)
    82b5:	78 31                	js     82e8 <safe_lshift_func_int8_t_s_s+0x47>
    82b7:	83 7d f8 00          	cmpl   $0x0,-0x8(%rbp)
    82bb:	78 2b                	js     82e8 <safe_lshift_func_int8_t_s_s+0x47>
    82bd:	83 7d f8 1f          	cmpl   $0x1f,-0x8(%rbp)
    82c1:	7f 25                	jg     82e8 <safe_lshift_func_int8_t_s_s+0x47>
    82c3:	0f be 55 fc          	movsbl -0x4(%rbp),%edx
    82c7:	8b 45 f8             	mov    -0x8(%rbp),%eax
    82ca:	be 7f 00 00 00       	mov    $0x7f,%esi
    82cf:	89 c1                	mov    %eax,%ecx
    82d1:	d3 fe                	sar    %cl,%esi
    82d3:	89 f0                	mov    %esi,%eax
    82d5:	39 c2                	cmp    %eax,%edx
    82d7:	7f 0f                	jg     82e8 <safe_lshift_func_int8_t_s_s+0x47>
    82d9:	0f be 55 fc          	movsbl -0x4(%rbp),%edx
    82dd:	8b 45 f8             	mov    -0x8(%rbp),%eax
    82e0:	89 c1                	mov    %eax,%ecx
    82e2:	d3 e2                	shl    %cl,%edx
    82e4:	89 d0                	mov    %edx,%eax
    82e6:	eb 04                	jmp    82ec <safe_lshift_func_int8_t_s_s+0x4b>
    82e8:	0f b6 45 fc          	movzbl -0x4(%rbp),%eax
    82ec:	5d                   	pop    %rbp
    82ed:	c3                   	retq   

00000000000082ee <safe_lshift_func_int8_t_s_u>:
    82ee:	f3 0f 1e fa          	endbr64 
    82f2:	55                   	push   %rbp
    82f3:	48 89 e5             	mov    %rsp,%rbp
    82f6:	89 f8                	mov    %edi,%eax
    82f8:	89 75 f8             	mov    %esi,-0x8(%rbp)
    82fb:	88 45 fc             	mov    %al,-0x4(%rbp)
    82fe:	80 7d fc 00          	cmpb   $0x0,-0x4(%rbp)
    8302:	78 2b                	js     832f <safe_lshift_func_int8_t_s_u+0x41>
    8304:	83 7d f8 1f          	cmpl   $0x1f,-0x8(%rbp)
    8308:	77 25                	ja     832f <safe_lshift_func_int8_t_s_u+0x41>
    830a:	0f be 55 fc          	movsbl -0x4(%rbp),%edx
    830e:	8b 45 f8             	mov    -0x8(%rbp),%eax
    8311:	be 7f 00 00 00       	mov    $0x7f,%esi
    8316:	89 c1                	mov    %eax,%ecx
    8318:	d3 fe                	sar    %cl,%esi
    831a:	89 f0                	mov    %esi,%eax
    831c:	39 c2                	cmp    %eax,%edx
    831e:	7f 0f                	jg     832f <safe_lshift_func_int8_t_s_u+0x41>
    8320:	0f be 55 fc          	movsbl -0x4(%rbp),%edx
    8324:	8b 45 f8             	mov    -0x8(%rbp),%eax
    8327:	89 c1                	mov    %eax,%ecx
    8329:	d3 e2                	shl    %cl,%edx
    832b:	89 d0                	mov    %edx,%eax
    832d:	eb 04                	jmp    8333 <safe_lshift_func_int8_t_s_u+0x45>
    832f:	0f b6 45 fc          	movzbl -0x4(%rbp),%eax
    8333:	5d                   	pop    %rbp
    8334:	c3                   	retq   

0000000000008335 <safe_rshift_func_int8_t_s_s>:
    8335:	f3 0f 1e fa          	endbr64 
    8339:	55                   	push   %rbp
    833a:	48 89 e5             	mov    %rsp,%rbp
    833d:	89 f8                	mov    %edi,%eax
    833f:	89 75 f8             	mov    %esi,-0x8(%rbp)
    8342:	88 45 fc             	mov    %al,-0x4(%rbp)
    8345:	80 7d fc 00          	cmpb   $0x0,-0x4(%rbp)
    8349:	78 1b                	js     8366 <safe_rshift_func_int8_t_s_s+0x31>
    834b:	83 7d f8 00          	cmpl   $0x0,-0x8(%rbp)
    834f:	78 15                	js     8366 <safe_rshift_func_int8_t_s_s+0x31>
    8351:	83 7d f8 1f          	cmpl   $0x1f,-0x8(%rbp)
    8355:	7f 0f                	jg     8366 <safe_rshift_func_int8_t_s_s+0x31>
    8357:	0f be 55 fc          	movsbl -0x4(%rbp),%edx
    835b:	8b 45 f8             	mov    -0x8(%rbp),%eax
    835e:	89 c1                	mov    %eax,%ecx
    8360:	d3 fa                	sar    %cl,%edx
    8362:	89 d0                	mov    %edx,%eax
    8364:	eb 04                	jmp    836a <safe_rshift_func_int8_t_s_s+0x35>
    8366:	0f b6 45 fc          	movzbl -0x4(%rbp),%eax
    836a:	5d                   	pop    %rbp
    836b:	c3                   	retq   

000000000000836c <safe_rshift_func_int8_t_s_u>:
    836c:	f3 0f 1e fa          	endbr64 
    8370:	55                   	push   %rbp
    8371:	48 89 e5             	mov    %rsp,%rbp
    8374:	89 f8                	mov    %edi,%eax
    8376:	89 75 f8             	mov    %esi,-0x8(%rbp)
    8379:	88 45 fc             	mov    %al,-0x4(%rbp)
    837c:	80 7d fc 00          	cmpb   $0x0,-0x4(%rbp)
    8380:	78 15                	js     8397 <safe_rshift_func_int8_t_s_u+0x2b>
    8382:	83 7d f8 1f          	cmpl   $0x1f,-0x8(%rbp)
    8386:	77 0f                	ja     8397 <safe_rshift_func_int8_t_s_u+0x2b>
    8388:	0f be 55 fc          	movsbl -0x4(%rbp),%edx
    838c:	8b 45 f8             	mov    -0x8(%rbp),%eax
    838f:	89 c1                	mov    %eax,%ecx
    8391:	d3 fa                	sar    %cl,%edx
    8393:	89 d0                	mov    %edx,%eax
    8395:	eb 04                	jmp    839b <safe_rshift_func_int8_t_s_u+0x2f>
    8397:	0f b6 45 fc          	movzbl -0x4(%rbp),%eax
    839b:	5d                   	pop    %rbp
    839c:	c3                   	retq   

000000000000839d <safe_unary_minus_func_int16_t_s>:
    839d:	f3 0f 1e fa          	endbr64 
    83a1:	55                   	push   %rbp
    83a2:	48 89 e5             	mov    %rsp,%rbp
    83a5:	89 f8                	mov    %edi,%eax
    83a7:	66 89 45 fc          	mov    %ax,-0x4(%rbp)
    83ab:	0f b7 45 fc          	movzwl -0x4(%rbp),%eax
    83af:	f7 d8                	neg    %eax
    83b1:	5d                   	pop    %rbp
    83b2:	c3                   	retq   

00000000000083b3 <safe_add_func_int16_t_s_s>:
    83b3:	f3 0f 1e fa          	endbr64 
    83b7:	55                   	push   %rbp
    83b8:	48 89 e5             	mov    %rsp,%rbp
    83bb:	89 fa                	mov    %edi,%edx
    83bd:	89 f0                	mov    %esi,%eax
    83bf:	66 89 55 fc          	mov    %dx,-0x4(%rbp)
    83c3:	66 89 45 f8          	mov    %ax,-0x8(%rbp)
    83c7:	0f b7 55 fc          	movzwl -0x4(%rbp),%edx
    83cb:	0f b7 45 f8          	movzwl -0x8(%rbp),%eax
    83cf:	01 d0                	add    %edx,%eax
    83d1:	5d                   	pop    %rbp
    83d2:	c3                   	retq   

00000000000083d3 <safe_sub_func_int16_t_s_s>:
    83d3:	f3 0f 1e fa          	endbr64 
    83d7:	55                   	push   %rbp
    83d8:	48 89 e5             	mov    %rsp,%rbp
    83db:	89 fa                	mov    %edi,%edx
    83dd:	89 f0                	mov    %esi,%eax
    83df:	66 89 55 fc          	mov    %dx,-0x4(%rbp)
    83e3:	66 89 45 f8          	mov    %ax,-0x8(%rbp)
    83e7:	0f b7 55 fc          	movzwl -0x4(%rbp),%edx
    83eb:	0f b7 45 f8          	movzwl -0x8(%rbp),%eax
    83ef:	29 c2                	sub    %eax,%edx
    83f1:	89 d0                	mov    %edx,%eax
    83f3:	5d                   	pop    %rbp
    83f4:	c3                   	retq   

00000000000083f5 <safe_mul_func_int16_t_s_s>:
    83f5:	f3 0f 1e fa          	endbr64 
    83f9:	55                   	push   %rbp
    83fa:	48 89 e5             	mov    %rsp,%rbp
    83fd:	89 fa                	mov    %edi,%edx
    83ff:	89 f0                	mov    %esi,%eax
    8401:	66 89 55 fc          	mov    %dx,-0x4(%rbp)
    8405:	66 89 45 f8          	mov    %ax,-0x8(%rbp)
    8409:	0f b7 55 fc          	movzwl -0x4(%rbp),%edx
    840d:	0f b7 45 f8          	movzwl -0x8(%rbp),%eax
    8411:	0f af c2             	imul   %edx,%eax
    8414:	5d                   	pop    %rbp
    8415:	c3                   	retq   

0000000000008416 <safe_mod_func_int16_t_s_s>:
    8416:	f3 0f 1e fa          	endbr64 
    841a:	55                   	push   %rbp
    841b:	48 89 e5             	mov    %rsp,%rbp
    841e:	89 fa                	mov    %edi,%edx
    8420:	89 f0                	mov    %esi,%eax
    8422:	66 89 55 fc          	mov    %dx,-0x4(%rbp)
    8426:	66 89 45 f8          	mov    %ax,-0x8(%rbp)
    842a:	66 83 7d f8 00       	cmpw   $0x0,-0x8(%rbp)
    842f:	74 1e                	je     844f <safe_mod_func_int16_t_s_s+0x39>
    8431:	66 81 7d fc 00 80    	cmpw   $0x8000,-0x4(%rbp)
    8437:	75 07                	jne    8440 <safe_mod_func_int16_t_s_s+0x2a>
    8439:	66 83 7d f8 ff       	cmpw   $0xffff,-0x8(%rbp)
    843e:	74 0f                	je     844f <safe_mod_func_int16_t_s_s+0x39>
    8440:	0f bf 45 fc          	movswl -0x4(%rbp),%eax
    8444:	0f bf 4d f8          	movswl -0x8(%rbp),%ecx
    8448:	99                   	cltd   
    8449:	f7 f9                	idiv   %ecx
    844b:	89 d0                	mov    %edx,%eax
    844d:	eb 04                	jmp    8453 <safe_mod_func_int16_t_s_s+0x3d>
    844f:	0f b7 45 fc          	movzwl -0x4(%rbp),%eax
    8453:	5d                   	pop    %rbp
    8454:	c3                   	retq   

0000000000008455 <safe_div_func_int16_t_s_s>:
    8455:	f3 0f 1e fa          	endbr64 
    8459:	55                   	push   %rbp
    845a:	48 89 e5             	mov    %rsp,%rbp
    845d:	89 fa                	mov    %edi,%edx
    845f:	89 f0                	mov    %esi,%eax
    8461:	66 89 55 fc          	mov    %dx,-0x4(%rbp)
    8465:	66 89 45 f8          	mov    %ax,-0x8(%rbp)
    8469:	66 83 7d f8 00       	cmpw   $0x0,-0x8(%rbp)
    846e:	74 1c                	je     848c <safe_div_func_int16_t_s_s+0x37>
    8470:	66 81 7d fc 00 80    	cmpw   $0x8000,-0x4(%rbp)
    8476:	75 07                	jne    847f <safe_div_func_int16_t_s_s+0x2a>
    8478:	66 83 7d f8 ff       	cmpw   $0xffff,-0x8(%rbp)
    847d:	74 0d                	je     848c <safe_div_func_int16_t_s_s+0x37>
    847f:	0f bf 45 fc          	movswl -0x4(%rbp),%eax
    8483:	0f bf 4d f8          	movswl -0x8(%rbp),%ecx
    8487:	99                   	cltd   
    8488:	f7 f9                	idiv   %ecx
    848a:	eb 04                	jmp    8490 <safe_div_func_int16_t_s_s+0x3b>
    848c:	0f b7 45 fc          	movzwl -0x4(%rbp),%eax
    8490:	5d                   	pop    %rbp
    8491:	c3                   	retq   

0000000000008492 <safe_lshift_func_int16_t_s_s>:
    8492:	f3 0f 1e fa          	endbr64 
    8496:	55                   	push   %rbp
    8497:	48 89 e5             	mov    %rsp,%rbp
    849a:	89 f8                	mov    %edi,%eax
    849c:	89 75 f8             	mov    %esi,-0x8(%rbp)
    849f:	66 89 45 fc          	mov    %ax,-0x4(%rbp)
    84a3:	66 83 7d fc 00       	cmpw   $0x0,-0x4(%rbp)
    84a8:	78 31                	js     84db <safe_lshift_func_int16_t_s_s+0x49>
    84aa:	83 7d f8 00          	cmpl   $0x0,-0x8(%rbp)
    84ae:	78 2b                	js     84db <safe_lshift_func_int16_t_s_s+0x49>
    84b0:	83 7d f8 1f          	cmpl   $0x1f,-0x8(%rbp)
    84b4:	7f 25                	jg     84db <safe_lshift_func_int16_t_s_s+0x49>
    84b6:	0f bf 55 fc          	movswl -0x4(%rbp),%edx
    84ba:	8b 45 f8             	mov    -0x8(%rbp),%eax
    84bd:	be ff 7f 00 00       	mov    $0x7fff,%esi
    84c2:	89 c1                	mov    %eax,%ecx
    84c4:	d3 fe                	sar    %cl,%esi
    84c6:	89 f0                	mov    %esi,%eax
    84c8:	39 c2                	cmp    %eax,%edx
    84ca:	7f 0f                	jg     84db <safe_lshift_func_int16_t_s_s+0x49>
    84cc:	0f bf 55 fc          	movswl -0x4(%rbp),%edx
    84d0:	8b 45 f8             	mov    -0x8(%rbp),%eax
    84d3:	89 c1                	mov    %eax,%ecx
    84d5:	d3 e2                	shl    %cl,%edx
    84d7:	89 d0                	mov    %edx,%eax
    84d9:	eb 04                	jmp    84df <safe_lshift_func_int16_t_s_s+0x4d>
    84db:	0f b7 45 fc          	movzwl -0x4(%rbp),%eax
    84df:	5d                   	pop    %rbp
    84e0:	c3                   	retq   

00000000000084e1 <safe_lshift_func_int16_t_s_u>:
    84e1:	f3 0f 1e fa          	endbr64 
    84e5:	55                   	push   %rbp
    84e6:	48 89 e5             	mov    %rsp,%rbp
    84e9:	89 f8                	mov    %edi,%eax
    84eb:	89 75 f8             	mov    %esi,-0x8(%rbp)
    84ee:	66 89 45 fc          	mov    %ax,-0x4(%rbp)
    84f2:	66 83 7d fc 00       	cmpw   $0x0,-0x4(%rbp)
    84f7:	78 2b                	js     8524 <safe_lshift_func_int16_t_s_u+0x43>
    84f9:	83 7d f8 1f          	cmpl   $0x1f,-0x8(%rbp)
    84fd:	77 25                	ja     8524 <safe_lshift_func_int16_t_s_u+0x43>
    84ff:	0f bf 55 fc          	movswl -0x4(%rbp),%edx
    8503:	8b 45 f8             	mov    -0x8(%rbp),%eax
    8506:	be ff 7f 00 00       	mov    $0x7fff,%esi
    850b:	89 c1                	mov    %eax,%ecx
    850d:	d3 fe                	sar    %cl,%esi
    850f:	89 f0                	mov    %esi,%eax
    8511:	39 c2                	cmp    %eax,%edx
    8513:	7f 0f                	jg     8524 <safe_lshift_func_int16_t_s_u+0x43>
    8515:	0f bf 55 fc          	movswl -0x4(%rbp),%edx
    8519:	8b 45 f8             	mov    -0x8(%rbp),%eax
    851c:	89 c1                	mov    %eax,%ecx
    851e:	d3 e2                	shl    %cl,%edx
    8520:	89 d0                	mov    %edx,%eax
    8522:	eb 04                	jmp    8528 <safe_lshift_func_int16_t_s_u+0x47>
    8524:	0f b7 45 fc          	movzwl -0x4(%rbp),%eax
    8528:	5d                   	pop    %rbp
    8529:	c3                   	retq   

000000000000852a <safe_rshift_func_int16_t_s_s>:
    852a:	f3 0f 1e fa          	endbr64 
    852e:	55                   	push   %rbp
    852f:	48 89 e5             	mov    %rsp,%rbp
    8532:	89 f8                	mov    %edi,%eax
    8534:	89 75 f8             	mov    %esi,-0x8(%rbp)
    8537:	66 89 45 fc          	mov    %ax,-0x4(%rbp)
    853b:	66 83 7d fc 00       	cmpw   $0x0,-0x4(%rbp)
    8540:	78 1b                	js     855d <safe_rshift_func_int16_t_s_s+0x33>
    8542:	83 7d f8 00          	cmpl   $0x0,-0x8(%rbp)
    8546:	78 15                	js     855d <safe_rshift_func_int16_t_s_s+0x33>
    8548:	83 7d f8 1f          	cmpl   $0x1f,-0x8(%rbp)
    854c:	7f 0f                	jg     855d <safe_rshift_func_int16_t_s_s+0x33>
    854e:	0f bf 55 fc          	movswl -0x4(%rbp),%edx
    8552:	8b 45 f8             	mov    -0x8(%rbp),%eax
    8555:	89 c1                	mov    %eax,%ecx
    8557:	d3 fa                	sar    %cl,%edx
    8559:	89 d0                	mov    %edx,%eax
    855b:	eb 04                	jmp    8561 <safe_rshift_func_int16_t_s_s+0x37>
    855d:	0f b7 45 fc          	movzwl -0x4(%rbp),%eax
    8561:	5d                   	pop    %rbp
    8562:	c3                   	retq   

0000000000008563 <safe_rshift_func_int16_t_s_u>:
    8563:	f3 0f 1e fa          	endbr64 
    8567:	55                   	push   %rbp
    8568:	48 89 e5             	mov    %rsp,%rbp
    856b:	89 f8                	mov    %edi,%eax
    856d:	89 75 f8             	mov    %esi,-0x8(%rbp)
    8570:	66 89 45 fc          	mov    %ax,-0x4(%rbp)
    8574:	66 83 7d fc 00       	cmpw   $0x0,-0x4(%rbp)
    8579:	78 15                	js     8590 <safe_rshift_func_int16_t_s_u+0x2d>
    857b:	83 7d f8 1f          	cmpl   $0x1f,-0x8(%rbp)
    857f:	77 0f                	ja     8590 <safe_rshift_func_int16_t_s_u+0x2d>
    8581:	0f bf 55 fc          	movswl -0x4(%rbp),%edx
    8585:	8b 45 f8             	mov    -0x8(%rbp),%eax
    8588:	89 c1                	mov    %eax,%ecx
    858a:	d3 fa                	sar    %cl,%edx
    858c:	89 d0                	mov    %edx,%eax
    858e:	eb 04                	jmp    8594 <safe_rshift_func_int16_t_s_u+0x31>
    8590:	0f b7 45 fc          	movzwl -0x4(%rbp),%eax
    8594:	5d                   	pop    %rbp
    8595:	c3                   	retq   

0000000000008596 <safe_unary_minus_func_int32_t_s>:
    8596:	f3 0f 1e fa          	endbr64 
    859a:	55                   	push   %rbp
    859b:	48 89 e5             	mov    %rsp,%rbp
    859e:	89 7d fc             	mov    %edi,-0x4(%rbp)
    85a1:	81 7d fc 00 00 00 80 	cmpl   $0x80000000,-0x4(%rbp)
    85a8:	74 07                	je     85b1 <safe_unary_minus_func_int32_t_s+0x1b>
    85aa:	8b 45 fc             	mov    -0x4(%rbp),%eax
    85ad:	f7 d8                	neg    %eax
    85af:	eb 03                	jmp    85b4 <safe_unary_minus_func_int32_t_s+0x1e>
    85b1:	8b 45 fc             	mov    -0x4(%rbp),%eax
    85b4:	5d                   	pop    %rbp
    85b5:	c3                   	retq   

00000000000085b6 <safe_add_func_int32_t_s_s>:
    85b6:	f3 0f 1e fa          	endbr64 
    85ba:	55                   	push   %rbp
    85bb:	48 89 e5             	mov    %rsp,%rbp
    85be:	89 7d fc             	mov    %edi,-0x4(%rbp)
    85c1:	89 75 f8             	mov    %esi,-0x8(%rbp)
    85c4:	83 7d fc 00          	cmpl   $0x0,-0x4(%rbp)
    85c8:	7e 13                	jle    85dd <safe_add_func_int32_t_s_s+0x27>
    85ca:	83 7d f8 00          	cmpl   $0x0,-0x8(%rbp)
    85ce:	7e 0d                	jle    85dd <safe_add_func_int32_t_s_s+0x27>
    85d0:	b8 ff ff ff 7f       	mov    $0x7fffffff,%eax
    85d5:	2b 45 f8             	sub    -0x8(%rbp),%eax
    85d8:	39 45 fc             	cmp    %eax,-0x4(%rbp)
    85db:	7f 23                	jg     8600 <safe_add_func_int32_t_s_s+0x4a>
    85dd:	83 7d fc 00          	cmpl   $0x0,-0x4(%rbp)
    85e1:	79 13                	jns    85f6 <safe_add_func_int32_t_s_s+0x40>
    85e3:	83 7d f8 00          	cmpl   $0x0,-0x8(%rbp)
    85e7:	79 0d                	jns    85f6 <safe_add_func_int32_t_s_s+0x40>
    85e9:	b8 00 00 00 80       	mov    $0x80000000,%eax
    85ee:	2b 45 f8             	sub    -0x8(%rbp),%eax
    85f1:	39 45 fc             	cmp    %eax,-0x4(%rbp)
    85f4:	7c 0a                	jl     8600 <safe_add_func_int32_t_s_s+0x4a>
    85f6:	8b 55 fc             	mov    -0x4(%rbp),%edx
    85f9:	8b 45 f8             	mov    -0x8(%rbp),%eax
    85fc:	01 d0                	add    %edx,%eax
    85fe:	eb 03                	jmp    8603 <safe_add_func_int32_t_s_s+0x4d>
    8600:	8b 45 fc             	mov    -0x4(%rbp),%eax
    8603:	5d                   	pop    %rbp
    8604:	c3                   	retq   

0000000000008605 <safe_sub_func_int32_t_s_s>:
    8605:	f3 0f 1e fa          	endbr64 
    8609:	55                   	push   %rbp
    860a:	48 89 e5             	mov    %rsp,%rbp
    860d:	89 7d fc             	mov    %edi,-0x4(%rbp)
    8610:	89 75 f8             	mov    %esi,-0x8(%rbp)
    8613:	8b 45 fc             	mov    -0x4(%rbp),%eax
    8616:	33 45 f8             	xor    -0x8(%rbp),%eax
    8619:	89 c2                	mov    %eax,%edx
    861b:	8b 45 fc             	mov    -0x4(%rbp),%eax
    861e:	33 45 f8             	xor    -0x8(%rbp),%eax
    8621:	25 00 00 00 80       	and    $0x80000000,%eax
    8626:	33 45 fc             	xor    -0x4(%rbp),%eax
    8629:	2b 45 f8             	sub    -0x8(%rbp),%eax
    862c:	33 45 f8             	xor    -0x8(%rbp),%eax
    862f:	21 d0                	and    %edx,%eax
    8631:	85 c0                	test   %eax,%eax
    8633:	78 08                	js     863d <safe_sub_func_int32_t_s_s+0x38>
    8635:	8b 45 fc             	mov    -0x4(%rbp),%eax
    8638:	2b 45 f8             	sub    -0x8(%rbp),%eax
    863b:	eb 03                	jmp    8640 <safe_sub_func_int32_t_s_s+0x3b>
    863d:	8b 45 fc             	mov    -0x4(%rbp),%eax
    8640:	5d                   	pop    %rbp
    8641:	c3                   	retq   

0000000000008642 <safe_mul_func_int32_t_s_s>:
    8642:	f3 0f 1e fa          	endbr64 
    8646:	55                   	push   %rbp
    8647:	48 89 e5             	mov    %rsp,%rbp
    864a:	89 7d fc             	mov    %edi,-0x4(%rbp)
    864d:	89 75 f8             	mov    %esi,-0x8(%rbp)
    8650:	83 7d fc 00          	cmpl   $0x0,-0x4(%rbp)
    8654:	7e 14                	jle    866a <safe_mul_func_int32_t_s_s+0x28>
    8656:	83 7d f8 00          	cmpl   $0x0,-0x8(%rbp)
    865a:	7e 0e                	jle    866a <safe_mul_func_int32_t_s_s+0x28>
    865c:	b8 ff ff ff 7f       	mov    $0x7fffffff,%eax
    8661:	99                   	cltd   
    8662:	f7 7d f8             	idivl  -0x8(%rbp)
    8665:	39 45 fc             	cmp    %eax,-0x4(%rbp)
    8668:	7f 5d                	jg     86c7 <safe_mul_func_int32_t_s_s+0x85>
    866a:	83 7d fc 00          	cmpl   $0x0,-0x4(%rbp)
    866e:	7e 14                	jle    8684 <safe_mul_func_int32_t_s_s+0x42>
    8670:	83 7d f8 00          	cmpl   $0x0,-0x8(%rbp)
    8674:	7f 0e                	jg     8684 <safe_mul_func_int32_t_s_s+0x42>
    8676:	b8 00 00 00 80       	mov    $0x80000000,%eax
    867b:	99                   	cltd   
    867c:	f7 7d fc             	idivl  -0x4(%rbp)
    867f:	39 45 f8             	cmp    %eax,-0x8(%rbp)
    8682:	7c 43                	jl     86c7 <safe_mul_func_int32_t_s_s+0x85>
    8684:	83 7d fc 00          	cmpl   $0x0,-0x4(%rbp)
    8688:	7f 14                	jg     869e <safe_mul_func_int32_t_s_s+0x5c>
    868a:	83 7d f8 00          	cmpl   $0x0,-0x8(%rbp)
    868e:	7e 0e                	jle    869e <safe_mul_func_int32_t_s_s+0x5c>
    8690:	b8 00 00 00 80       	mov    $0x80000000,%eax
    8695:	99                   	cltd   
    8696:	f7 7d f8             	idivl  -0x8(%rbp)
    8699:	39 45 fc             	cmp    %eax,-0x4(%rbp)
    869c:	7c 29                	jl     86c7 <safe_mul_func_int32_t_s_s+0x85>
    869e:	83 7d fc 00          	cmpl   $0x0,-0x4(%rbp)
    86a2:	7f 1a                	jg     86be <safe_mul_func_int32_t_s_s+0x7c>
    86a4:	83 7d f8 00          	cmpl   $0x0,-0x8(%rbp)
    86a8:	7f 14                	jg     86be <safe_mul_func_int32_t_s_s+0x7c>
    86aa:	83 7d fc 00          	cmpl   $0x0,-0x4(%rbp)
    86ae:	74 0e                	je     86be <safe_mul_func_int32_t_s_s+0x7c>
    86b0:	b8 ff ff ff 7f       	mov    $0x7fffffff,%eax
    86b5:	99                   	cltd   
    86b6:	f7 7d fc             	idivl  -0x4(%rbp)
    86b9:	39 45 f8             	cmp    %eax,-0x8(%rbp)
    86bc:	7c 09                	jl     86c7 <safe_mul_func_int32_t_s_s+0x85>
    86be:	8b 45 fc             	mov    -0x4(%rbp),%eax
    86c1:	0f af 45 f8          	imul   -0x8(%rbp),%eax
    86c5:	eb 03                	jmp    86ca <safe_mul_func_int32_t_s_s+0x88>
    86c7:	8b 45 fc             	mov    -0x4(%rbp),%eax
    86ca:	5d                   	pop    %rbp
    86cb:	c3                   	retq   

00000000000086cc <safe_mod_func_int32_t_s_s>:
    86cc:	f3 0f 1e fa          	endbr64 
    86d0:	55                   	push   %rbp
    86d1:	48 89 e5             	mov    %rsp,%rbp
    86d4:	89 7d fc             	mov    %edi,-0x4(%rbp)
    86d7:	89 75 f8             	mov    %esi,-0x8(%rbp)
    86da:	83 7d f8 00          	cmpl   $0x0,-0x8(%rbp)
    86de:	74 1a                	je     86fa <safe_mod_func_int32_t_s_s+0x2e>
    86e0:	81 7d fc 00 00 00 80 	cmpl   $0x80000000,-0x4(%rbp)
    86e7:	75 06                	jne    86ef <safe_mod_func_int32_t_s_s+0x23>
    86e9:	83 7d f8 ff          	cmpl   $0xffffffff,-0x8(%rbp)
    86ed:	74 0b                	je     86fa <safe_mod_func_int32_t_s_s+0x2e>
    86ef:	8b 45 fc             	mov    -0x4(%rbp),%eax
    86f2:	99                   	cltd   
    86f3:	f7 7d f8             	idivl  -0x8(%rbp)
    86f6:	89 d0                	mov    %edx,%eax
    86f8:	eb 03                	jmp    86fd <safe_mod_func_int32_t_s_s+0x31>
    86fa:	8b 45 fc             	mov    -0x4(%rbp),%eax
    86fd:	5d                   	pop    %rbp
    86fe:	c3                   	retq   

00000000000086ff <safe_div_func_int32_t_s_s>:
    86ff:	f3 0f 1e fa          	endbr64 
    8703:	55                   	push   %rbp
    8704:	48 89 e5             	mov    %rsp,%rbp
    8707:	89 7d fc             	mov    %edi,-0x4(%rbp)
    870a:	89 75 f8             	mov    %esi,-0x8(%rbp)
    870d:	83 7d f8 00          	cmpl   $0x0,-0x8(%rbp)
    8711:	74 18                	je     872b <safe_div_func_int32_t_s_s+0x2c>
    8713:	81 7d fc 00 00 00 80 	cmpl   $0x80000000,-0x4(%rbp)
    871a:	75 06                	jne    8722 <safe_div_func_int32_t_s_s+0x23>
    871c:	83 7d f8 ff          	cmpl   $0xffffffff,-0x8(%rbp)
    8720:	74 09                	je     872b <safe_div_func_int32_t_s_s+0x2c>
    8722:	8b 45 fc             	mov    -0x4(%rbp),%eax
    8725:	99                   	cltd   
    8726:	f7 7d f8             	idivl  -0x8(%rbp)
    8729:	eb 03                	jmp    872e <safe_div_func_int32_t_s_s+0x2f>
    872b:	8b 45 fc             	mov    -0x4(%rbp),%eax
    872e:	5d                   	pop    %rbp
    872f:	c3                   	retq   

0000000000008730 <safe_lshift_func_int32_t_s_s>:
    8730:	f3 0f 1e fa          	endbr64 
    8734:	55                   	push   %rbp
    8735:	48 89 e5             	mov    %rsp,%rbp
    8738:	89 7d fc             	mov    %edi,-0x4(%rbp)
    873b:	89 75 f8             	mov    %esi,-0x8(%rbp)
    873e:	83 7d fc 00          	cmpl   $0x0,-0x4(%rbp)
    8742:	78 2d                	js     8771 <safe_lshift_func_int32_t_s_s+0x41>
    8744:	83 7d f8 00          	cmpl   $0x0,-0x8(%rbp)
    8748:	78 27                	js     8771 <safe_lshift_func_int32_t_s_s+0x41>
    874a:	83 7d f8 1f          	cmpl   $0x1f,-0x8(%rbp)
    874e:	7f 21                	jg     8771 <safe_lshift_func_int32_t_s_s+0x41>
    8750:	8b 45 f8             	mov    -0x8(%rbp),%eax
    8753:	ba ff ff ff 7f       	mov    $0x7fffffff,%edx
    8758:	89 c1                	mov    %eax,%ecx
    875a:	d3 fa                	sar    %cl,%edx
    875c:	89 d0                	mov    %edx,%eax
    875e:	39 45 fc             	cmp    %eax,-0x4(%rbp)
    8761:	7f 0e                	jg     8771 <safe_lshift_func_int32_t_s_s+0x41>
    8763:	8b 45 f8             	mov    -0x8(%rbp),%eax
    8766:	8b 55 fc             	mov    -0x4(%rbp),%edx
    8769:	89 c1                	mov    %eax,%ecx
    876b:	d3 e2                	shl    %cl,%edx
    876d:	89 d0                	mov    %edx,%eax
    876f:	eb 03                	jmp    8774 <safe_lshift_func_int32_t_s_s+0x44>
    8771:	8b 45 fc             	mov    -0x4(%rbp),%eax
    8774:	5d                   	pop    %rbp
    8775:	c3                   	retq   

0000000000008776 <safe_lshift_func_int32_t_s_u>:
    8776:	f3 0f 1e fa          	endbr64 
    877a:	55                   	push   %rbp
    877b:	48 89 e5             	mov    %rsp,%rbp
    877e:	89 7d fc             	mov    %edi,-0x4(%rbp)
    8781:	89 75 f8             	mov    %esi,-0x8(%rbp)
    8784:	83 7d fc 00          	cmpl   $0x0,-0x4(%rbp)
    8788:	78 27                	js     87b1 <safe_lshift_func_int32_t_s_u+0x3b>
    878a:	83 7d f8 1f          	cmpl   $0x1f,-0x8(%rbp)
    878e:	77 21                	ja     87b1 <safe_lshift_func_int32_t_s_u+0x3b>
    8790:	8b 45 f8             	mov    -0x8(%rbp),%eax
    8793:	ba ff ff ff 7f       	mov    $0x7fffffff,%edx
    8798:	89 c1                	mov    %eax,%ecx
    879a:	d3 fa                	sar    %cl,%edx
    879c:	89 d0                	mov    %edx,%eax
    879e:	39 45 fc             	cmp    %eax,-0x4(%rbp)
    87a1:	7f 0e                	jg     87b1 <safe_lshift_func_int32_t_s_u+0x3b>
    87a3:	8b 45 f8             	mov    -0x8(%rbp),%eax
    87a6:	8b 55 fc             	mov    -0x4(%rbp),%edx
    87a9:	89 c1                	mov    %eax,%ecx
    87ab:	d3 e2                	shl    %cl,%edx
    87ad:	89 d0                	mov    %edx,%eax
    87af:	eb 03                	jmp    87b4 <safe_lshift_func_int32_t_s_u+0x3e>
    87b1:	8b 45 fc             	mov    -0x4(%rbp),%eax
    87b4:	5d                   	pop    %rbp
    87b5:	c3                   	retq   

00000000000087b6 <safe_rshift_func_int32_t_s_s>:
    87b6:	f3 0f 1e fa          	endbr64 
    87ba:	55                   	push   %rbp
    87bb:	48 89 e5             	mov    %rsp,%rbp
    87be:	89 7d fc             	mov    %edi,-0x4(%rbp)
    87c1:	89 75 f8             	mov    %esi,-0x8(%rbp)
    87c4:	83 7d fc 00          	cmpl   $0x0,-0x4(%rbp)
    87c8:	78 1a                	js     87e4 <safe_rshift_func_int32_t_s_s+0x2e>
    87ca:	83 7d f8 00          	cmpl   $0x0,-0x8(%rbp)
    87ce:	78 14                	js     87e4 <safe_rshift_func_int32_t_s_s+0x2e>
    87d0:	83 7d f8 1f          	cmpl   $0x1f,-0x8(%rbp)
    87d4:	7f 0e                	jg     87e4 <safe_rshift_func_int32_t_s_s+0x2e>
    87d6:	8b 45 f8             	mov    -0x8(%rbp),%eax
    87d9:	8b 55 fc             	mov    -0x4(%rbp),%edx
    87dc:	89 c1                	mov    %eax,%ecx
    87de:	d3 fa                	sar    %cl,%edx
    87e0:	89 d0                	mov    %edx,%eax
    87e2:	eb 03                	jmp    87e7 <safe_rshift_func_int32_t_s_s+0x31>
    87e4:	8b 45 fc             	mov    -0x4(%rbp),%eax
    87e7:	5d                   	pop    %rbp
    87e8:	c3                   	retq   

00000000000087e9 <safe_rshift_func_int32_t_s_u>:
    87e9:	f3 0f 1e fa          	endbr64 
    87ed:	55                   	push   %rbp
    87ee:	48 89 e5             	mov    %rsp,%rbp
    87f1:	89 7d fc             	mov    %edi,-0x4(%rbp)
    87f4:	89 75 f8             	mov    %esi,-0x8(%rbp)
    87f7:	83 7d fc 00          	cmpl   $0x0,-0x4(%rbp)
    87fb:	78 14                	js     8811 <safe_rshift_func_int32_t_s_u+0x28>
    87fd:	83 7d f8 1f          	cmpl   $0x1f,-0x8(%rbp)
    8801:	77 0e                	ja     8811 <safe_rshift_func_int32_t_s_u+0x28>
    8803:	8b 45 f8             	mov    -0x8(%rbp),%eax
    8806:	8b 55 fc             	mov    -0x4(%rbp),%edx
    8809:	89 c1                	mov    %eax,%ecx
    880b:	d3 fa                	sar    %cl,%edx
    880d:	89 d0                	mov    %edx,%eax
    880f:	eb 03                	jmp    8814 <safe_rshift_func_int32_t_s_u+0x2b>
    8811:	8b 45 fc             	mov    -0x4(%rbp),%eax
    8814:	5d                   	pop    %rbp
    8815:	c3                   	retq   

0000000000008816 <safe_unary_minus_func_int64_t_s>:
    8816:	f3 0f 1e fa          	endbr64 
    881a:	55                   	push   %rbp
    881b:	48 89 e5             	mov    %rsp,%rbp
    881e:	48 89 7d f8          	mov    %rdi,-0x8(%rbp)
    8822:	48 b8 00 00 00 00 00 	movabs $0x8000000000000000,%rax
    8829:	00 00 80 
    882c:	48 39 45 f8          	cmp    %rax,-0x8(%rbp)
    8830:	74 09                	je     883b <safe_unary_minus_func_int64_t_s+0x25>
    8832:	48 8b 45 f8          	mov    -0x8(%rbp),%rax
    8836:	48 f7 d8             	neg    %rax
    8839:	eb 04                	jmp    883f <safe_unary_minus_func_int64_t_s+0x29>
    883b:	48 8b 45 f8          	mov    -0x8(%rbp),%rax
    883f:	5d                   	pop    %rbp
    8840:	c3                   	retq   

0000000000008841 <safe_add_func_int64_t_s_s>:
    8841:	f3 0f 1e fa          	endbr64 
    8845:	55                   	push   %rbp
    8846:	48 89 e5             	mov    %rsp,%rbp
    8849:	48 89 7d f8          	mov    %rdi,-0x8(%rbp)
    884d:	48 89 75 f0          	mov    %rsi,-0x10(%rbp)
    8851:	48 83 7d f8 00       	cmpq   $0x0,-0x8(%rbp)
    8856:	7e 1b                	jle    8873 <safe_add_func_int64_t_s_s+0x32>
    8858:	48 83 7d f0 00       	cmpq   $0x0,-0x10(%rbp)
    885d:	7e 14                	jle    8873 <safe_add_func_int64_t_s_s+0x32>
    885f:	48 b8 ff ff ff ff ff 	movabs $0x7fffffffffffffff,%rax
    8866:	ff ff 7f 
    8869:	48 2b 45 f0          	sub    -0x10(%rbp),%rax
    886d:	48 39 45 f8          	cmp    %rax,-0x8(%rbp)
    8871:	7f 2f                	jg     88a2 <safe_add_func_int64_t_s_s+0x61>
    8873:	48 83 7d f8 00       	cmpq   $0x0,-0x8(%rbp)
    8878:	79 1b                	jns    8895 <safe_add_func_int64_t_s_s+0x54>
    887a:	48 83 7d f0 00       	cmpq   $0x0,-0x10(%rbp)
    887f:	79 14                	jns    8895 <safe_add_func_int64_t_s_s+0x54>
    8881:	48 b8 00 00 00 00 00 	movabs $0x8000000000000000,%rax
    8888:	00 00 80 
    888b:	48 2b 45 f0          	sub    -0x10(%rbp),%rax
    888f:	48 39 45 f8          	cmp    %rax,-0x8(%rbp)
    8893:	7c 0d                	jl     88a2 <safe_add_func_int64_t_s_s+0x61>
    8895:	48 8b 55 f8          	mov    -0x8(%rbp),%rdx
    8899:	48 8b 45 f0          	mov    -0x10(%rbp),%rax
    889d:	48 01 d0             	add    %rdx,%rax
    88a0:	eb 04                	jmp    88a6 <safe_add_func_int64_t_s_s+0x65>
    88a2:	48 8b 45 f8          	mov    -0x8(%rbp),%rax
    88a6:	5d                   	pop    %rbp
    88a7:	c3                   	retq   

00000000000088a8 <safe_sub_func_int64_t_s_s>:
    88a8:	f3 0f 1e fa          	endbr64 
    88ac:	55                   	push   %rbp
    88ad:	48 89 e5             	mov    %rsp,%rbp
    88b0:	48 89 7d f8          	mov    %rdi,-0x8(%rbp)
    88b4:	48 89 75 f0          	mov    %rsi,-0x10(%rbp)
    88b8:	48 8b 45 f8          	mov    -0x8(%rbp),%rax
    88bc:	48 33 45 f0          	xor    -0x10(%rbp),%rax
    88c0:	48 89 c2             	mov    %rax,%rdx
    88c3:	48 8b 45 f8          	mov    -0x8(%rbp),%rax
    88c7:	48 33 45 f0          	xor    -0x10(%rbp),%rax
    88cb:	48 b9 00 00 00 00 00 	movabs $0x8000000000000000,%rcx
    88d2:	00 00 80 
    88d5:	48 21 c8             	and    %rcx,%rax
    88d8:	48 33 45 f8          	xor    -0x8(%rbp),%rax
    88dc:	48 2b 45 f0          	sub    -0x10(%rbp),%rax
    88e0:	48 33 45 f0          	xor    -0x10(%rbp),%rax
    88e4:	48 21 d0             	and    %rdx,%rax
    88e7:	48 85 c0             	test   %rax,%rax
    88ea:	78 0a                	js     88f6 <safe_sub_func_int64_t_s_s+0x4e>
    88ec:	48 8b 45 f8          	mov    -0x8(%rbp),%rax
    88f0:	48 2b 45 f0          	sub    -0x10(%rbp),%rax
    88f4:	eb 04                	jmp    88fa <safe_sub_func_int64_t_s_s+0x52>
    88f6:	48 8b 45 f8          	mov    -0x8(%rbp),%rax
    88fa:	5d                   	pop    %rbp
    88fb:	c3                   	retq   

00000000000088fc <safe_mul_func_int64_t_s_s>:
    88fc:	f3 0f 1e fa          	endbr64 
    8900:	55                   	push   %rbp
    8901:	48 89 e5             	mov    %rsp,%rbp
    8904:	48 89 7d f8          	mov    %rdi,-0x8(%rbp)
    8908:	48 89 75 f0          	mov    %rsi,-0x10(%rbp)
    890c:	48 83 7d f8 00       	cmpq   $0x0,-0x8(%rbp)
    8911:	7e 1d                	jle    8930 <safe_mul_func_int64_t_s_s+0x34>
    8913:	48 83 7d f0 00       	cmpq   $0x0,-0x10(%rbp)
    8918:	7e 16                	jle    8930 <safe_mul_func_int64_t_s_s+0x34>
    891a:	48 b8 ff ff ff ff ff 	movabs $0x7fffffffffffffff,%rax
    8921:	ff ff 7f 
    8924:	48 99                	cqto   
    8926:	48 f7 7d f0          	idivq  -0x10(%rbp)
    892a:	48 39 45 f8          	cmp    %rax,-0x8(%rbp)
    892e:	7f 7e                	jg     89ae <safe_mul_func_int64_t_s_s+0xb2>
    8930:	48 83 7d f8 00       	cmpq   $0x0,-0x8(%rbp)
    8935:	7e 1d                	jle    8954 <safe_mul_func_int64_t_s_s+0x58>
    8937:	48 83 7d f0 00       	cmpq   $0x0,-0x10(%rbp)
    893c:	7f 16                	jg     8954 <safe_mul_func_int64_t_s_s+0x58>
    893e:	48 b8 00 00 00 00 00 	movabs $0x8000000000000000,%rax
    8945:	00 00 80 
    8948:	48 99                	cqto   
    894a:	48 f7 7d f8          	idivq  -0x8(%rbp)
    894e:	48 39 45 f0          	cmp    %rax,-0x10(%rbp)
    8952:	7c 5a                	jl     89ae <safe_mul_func_int64_t_s_s+0xb2>
    8954:	48 83 7d f8 00       	cmpq   $0x0,-0x8(%rbp)
    8959:	7f 1d                	jg     8978 <safe_mul_func_int64_t_s_s+0x7c>
    895b:	48 83 7d f0 00       	cmpq   $0x0,-0x10(%rbp)
    8960:	7e 16                	jle    8978 <safe_mul_func_int64_t_s_s+0x7c>
    8962:	48 b8 00 00 00 00 00 	movabs $0x8000000000000000,%rax
    8969:	00 00 80 
    896c:	48 99                	cqto   
    896e:	48 f7 7d f0          	idivq  -0x10(%rbp)
    8972:	48 39 45 f8          	cmp    %rax,-0x8(%rbp)
    8976:	7c 36                	jl     89ae <safe_mul_func_int64_t_s_s+0xb2>
    8978:	48 83 7d f8 00       	cmpq   $0x0,-0x8(%rbp)
    897d:	7f 24                	jg     89a3 <safe_mul_func_int64_t_s_s+0xa7>
    897f:	48 83 7d f0 00       	cmpq   $0x0,-0x10(%rbp)
    8984:	7f 1d                	jg     89a3 <safe_mul_func_int64_t_s_s+0xa7>
    8986:	48 83 7d f8 00       	cmpq   $0x0,-0x8(%rbp)
    898b:	74 16                	je     89a3 <safe_mul_func_int64_t_s_s+0xa7>
    898d:	48 b8 ff ff ff ff ff 	movabs $0x7fffffffffffffff,%rax
    8994:	ff ff 7f 
    8997:	48 99                	cqto   
    8999:	48 f7 7d f8          	idivq  -0x8(%rbp)
    899d:	48 39 45 f0          	cmp    %rax,-0x10(%rbp)
    89a1:	7c 0b                	jl     89ae <safe_mul_func_int64_t_s_s+0xb2>
    89a3:	48 8b 45 f8          	mov    -0x8(%rbp),%rax
    89a7:	48 0f af 45 f0       	imul   -0x10(%rbp),%rax
    89ac:	eb 04                	jmp    89b2 <safe_mul_func_int64_t_s_s+0xb6>
    89ae:	48 8b 45 f8          	mov    -0x8(%rbp),%rax
    89b2:	5d                   	pop    %rbp
    89b3:	c3                   	retq   

00000000000089b4 <safe_mod_func_int64_t_s_s>:
    89b4:	f3 0f 1e fa          	endbr64 
    89b8:	55                   	push   %rbp
    89b9:	48 89 e5             	mov    %rsp,%rbp
    89bc:	48 89 7d f8          	mov    %rdi,-0x8(%rbp)
    89c0:	48 89 75 f0          	mov    %rsi,-0x10(%rbp)
    89c4:	48 83 7d f0 00       	cmpq   $0x0,-0x10(%rbp)
    89c9:	74 26                	je     89f1 <safe_mod_func_int64_t_s_s+0x3d>
    89cb:	48 b8 00 00 00 00 00 	movabs $0x8000000000000000,%rax
    89d2:	00 00 80 
    89d5:	48 39 45 f8          	cmp    %rax,-0x8(%rbp)
    89d9:	75 07                	jne    89e2 <safe_mod_func_int64_t_s_s+0x2e>
    89db:	48 83 7d f0 ff       	cmpq   $0xffffffffffffffff,-0x10(%rbp)
    89e0:	74 0f                	je     89f1 <safe_mod_func_int64_t_s_s+0x3d>
    89e2:	48 8b 45 f8          	mov    -0x8(%rbp),%rax
    89e6:	48 99                	cqto   
    89e8:	48 f7 7d f0          	idivq  -0x10(%rbp)
    89ec:	48 89 d0             	mov    %rdx,%rax
    89ef:	eb 04                	jmp    89f5 <safe_mod_func_int64_t_s_s+0x41>
    89f1:	48 8b 45 f8          	mov    -0x8(%rbp),%rax
    89f5:	5d                   	pop    %rbp
    89f6:	c3                   	retq   

00000000000089f7 <safe_div_func_int64_t_s_s>:
    89f7:	f3 0f 1e fa          	endbr64 
    89fb:	55                   	push   %rbp
    89fc:	48 89 e5             	mov    %rsp,%rbp
    89ff:	48 89 7d f8          	mov    %rdi,-0x8(%rbp)
    8a03:	48 89 75 f0          	mov    %rsi,-0x10(%rbp)
    8a07:	48 83 7d f0 00       	cmpq   $0x0,-0x10(%rbp)
    8a0c:	74 23                	je     8a31 <safe_div_func_int64_t_s_s+0x3a>
    8a0e:	48 b8 00 00 00 00 00 	movabs $0x8000000000000000,%rax
    8a15:	00 00 80 
    8a18:	48 39 45 f8          	cmp    %rax,-0x8(%rbp)
    8a1c:	75 07                	jne    8a25 <safe_div_func_int64_t_s_s+0x2e>
    8a1e:	48 83 7d f0 ff       	cmpq   $0xffffffffffffffff,-0x10(%rbp)
    8a23:	74 0c                	je     8a31 <safe_div_func_int64_t_s_s+0x3a>
    8a25:	48 8b 45 f8          	mov    -0x8(%rbp),%rax
    8a29:	48 99                	cqto   
    8a2b:	48 f7 7d f0          	idivq  -0x10(%rbp)
    8a2f:	eb 04                	jmp    8a35 <safe_div_func_int64_t_s_s+0x3e>
    8a31:	48 8b 45 f8          	mov    -0x8(%rbp),%rax
    8a35:	5d                   	pop    %rbp
    8a36:	c3                   	retq   

0000000000008a37 <safe_lshift_func_int64_t_s_s>:
    8a37:	f3 0f 1e fa          	endbr64 
    8a3b:	55                   	push   %rbp
    8a3c:	48 89 e5             	mov    %rsp,%rbp
    8a3f:	48 89 7d f8          	mov    %rdi,-0x8(%rbp)
    8a43:	89 75 f4             	mov    %esi,-0xc(%rbp)
    8a46:	48 83 7d f8 00       	cmpq   $0x0,-0x8(%rbp)
    8a4b:	78 38                	js     8a85 <safe_lshift_func_int64_t_s_s+0x4e>
    8a4d:	83 7d f4 00          	cmpl   $0x0,-0xc(%rbp)
    8a51:	78 32                	js     8a85 <safe_lshift_func_int64_t_s_s+0x4e>
    8a53:	83 7d f4 1f          	cmpl   $0x1f,-0xc(%rbp)
    8a57:	7f 2c                	jg     8a85 <safe_lshift_func_int64_t_s_s+0x4e>
    8a59:	8b 45 f4             	mov    -0xc(%rbp),%eax
    8a5c:	48 ba ff ff ff ff ff 	movabs $0x7fffffffffffffff,%rdx
    8a63:	ff ff 7f 
    8a66:	89 c1                	mov    %eax,%ecx
    8a68:	48 d3 fa             	sar    %cl,%rdx
    8a6b:	48 89 d0             	mov    %rdx,%rax
    8a6e:	48 39 45 f8          	cmp    %rax,-0x8(%rbp)
    8a72:	7f 11                	jg     8a85 <safe_lshift_func_int64_t_s_s+0x4e>
    8a74:	8b 45 f4             	mov    -0xc(%rbp),%eax
    8a77:	48 8b 55 f8          	mov    -0x8(%rbp),%rdx
    8a7b:	89 c1                	mov    %eax,%ecx
    8a7d:	48 d3 e2             	shl    %cl,%rdx
    8a80:	48 89 d0             	mov    %rdx,%rax
    8a83:	eb 04                	jmp    8a89 <safe_lshift_func_int64_t_s_s+0x52>
    8a85:	48 8b 45 f8          	mov    -0x8(%rbp),%rax
    8a89:	5d                   	pop    %rbp
    8a8a:	c3                   	retq   

0000000000008a8b <safe_lshift_func_int64_t_s_u>:
    8a8b:	f3 0f 1e fa          	endbr64 
    8a8f:	55                   	push   %rbp
    8a90:	48 89 e5             	mov    %rsp,%rbp
    8a93:	48 89 7d f8          	mov    %rdi,-0x8(%rbp)
    8a97:	89 75 f4             	mov    %esi,-0xc(%rbp)
    8a9a:	48 83 7d f8 00       	cmpq   $0x0,-0x8(%rbp)
    8a9f:	78 32                	js     8ad3 <safe_lshift_func_int64_t_s_u+0x48>
    8aa1:	83 7d f4 1f          	cmpl   $0x1f,-0xc(%rbp)
    8aa5:	77 2c                	ja     8ad3 <safe_lshift_func_int64_t_s_u+0x48>
    8aa7:	8b 45 f4             	mov    -0xc(%rbp),%eax
    8aaa:	48 ba ff ff ff ff ff 	movabs $0x7fffffffffffffff,%rdx
    8ab1:	ff ff 7f 
    8ab4:	89 c1                	mov    %eax,%ecx
    8ab6:	48 d3 fa             	sar    %cl,%rdx
    8ab9:	48 89 d0             	mov    %rdx,%rax
    8abc:	48 39 45 f8          	cmp    %rax,-0x8(%rbp)
    8ac0:	7f 11                	jg     8ad3 <safe_lshift_func_int64_t_s_u+0x48>
    8ac2:	8b 45 f4             	mov    -0xc(%rbp),%eax
    8ac5:	48 8b 55 f8          	mov    -0x8(%rbp),%rdx
    8ac9:	89 c1                	mov    %eax,%ecx
    8acb:	48 d3 e2             	shl    %cl,%rdx
    8ace:	48 89 d0             	mov    %rdx,%rax
    8ad1:	eb 04                	jmp    8ad7 <safe_lshift_func_int64_t_s_u+0x4c>
    8ad3:	48 8b 45 f8          	mov    -0x8(%rbp),%rax
    8ad7:	5d                   	pop    %rbp
    8ad8:	c3                   	retq   

0000000000008ad9 <safe_rshift_func_int64_t_s_s>:
    8ad9:	f3 0f 1e fa          	endbr64 
    8add:	55                   	push   %rbp
    8ade:	48 89 e5             	mov    %rsp,%rbp
    8ae1:	48 89 7d f8          	mov    %rdi,-0x8(%rbp)
    8ae5:	89 75 f4             	mov    %esi,-0xc(%rbp)
    8ae8:	48 83 7d f8 00       	cmpq   $0x0,-0x8(%rbp)
    8aed:	78 1d                	js     8b0c <safe_rshift_func_int64_t_s_s+0x33>
    8aef:	83 7d f4 00          	cmpl   $0x0,-0xc(%rbp)
    8af3:	78 17                	js     8b0c <safe_rshift_func_int64_t_s_s+0x33>
    8af5:	83 7d f4 1f          	cmpl   $0x1f,-0xc(%rbp)
    8af9:	7f 11                	jg     8b0c <safe_rshift_func_int64_t_s_s+0x33>
    8afb:	8b 45 f4             	mov    -0xc(%rbp),%eax
    8afe:	48 8b 55 f8          	mov    -0x8(%rbp),%rdx
    8b02:	89 c1                	mov    %eax,%ecx
    8b04:	48 d3 fa             	sar    %cl,%rdx
    8b07:	48 89 d0             	mov    %rdx,%rax
    8b0a:	eb 04                	jmp    8b10 <safe_rshift_func_int64_t_s_s+0x37>
    8b0c:	48 8b 45 f8          	mov    -0x8(%rbp),%rax
    8b10:	5d                   	pop    %rbp
    8b11:	c3                   	retq   

0000000000008b12 <safe_rshift_func_int64_t_s_u>:
    8b12:	f3 0f 1e fa          	endbr64 
    8b16:	55                   	push   %rbp
    8b17:	48 89 e5             	mov    %rsp,%rbp
    8b1a:	48 89 7d f8          	mov    %rdi,-0x8(%rbp)
    8b1e:	89 75 f4             	mov    %esi,-0xc(%rbp)
    8b21:	48 83 7d f8 00       	cmpq   $0x0,-0x8(%rbp)
    8b26:	78 17                	js     8b3f <safe_rshift_func_int64_t_s_u+0x2d>
    8b28:	83 7d f4 1f          	cmpl   $0x1f,-0xc(%rbp)
    8b2c:	77 11                	ja     8b3f <safe_rshift_func_int64_t_s_u+0x2d>
    8b2e:	8b 45 f4             	mov    -0xc(%rbp),%eax
    8b31:	48 8b 55 f8          	mov    -0x8(%rbp),%rdx
    8b35:	89 c1                	mov    %eax,%ecx
    8b37:	48 d3 fa             	sar    %cl,%rdx
    8b3a:	48 89 d0             	mov    %rdx,%rax
    8b3d:	eb 04                	jmp    8b43 <safe_rshift_func_int64_t_s_u+0x31>
    8b3f:	48 8b 45 f8          	mov    -0x8(%rbp),%rax
    8b43:	5d                   	pop    %rbp
    8b44:	c3                   	retq   

0000000000008b45 <safe_unary_minus_func_uint8_t_u>:
    8b45:	f3 0f 1e fa          	endbr64 
    8b49:	55                   	push   %rbp
    8b4a:	48 89 e5             	mov    %rsp,%rbp
    8b4d:	89 f8                	mov    %edi,%eax
    8b4f:	88 45 fc             	mov    %al,-0x4(%rbp)
    8b52:	0f b6 45 fc          	movzbl -0x4(%rbp),%eax
    8b56:	f7 d8                	neg    %eax
    8b58:	5d                   	pop    %rbp
    8b59:	c3                   	retq   

0000000000008b5a <safe_add_func_uint8_t_u_u>:
    8b5a:	f3 0f 1e fa          	endbr64 
    8b5e:	55                   	push   %rbp
    8b5f:	48 89 e5             	mov    %rsp,%rbp
    8b62:	89 fa                	mov    %edi,%edx
    8b64:	89 f0                	mov    %esi,%eax
    8b66:	88 55 fc             	mov    %dl,-0x4(%rbp)
    8b69:	88 45 f8             	mov    %al,-0x8(%rbp)
    8b6c:	0f b6 55 fc          	movzbl -0x4(%rbp),%edx
    8b70:	0f b6 45 f8          	movzbl -0x8(%rbp),%eax
    8b74:	01 d0                	add    %edx,%eax
    8b76:	5d                   	pop    %rbp
    8b77:	c3                   	retq   

0000000000008b78 <safe_sub_func_uint8_t_u_u>:
    8b78:	f3 0f 1e fa          	endbr64 
    8b7c:	55                   	push   %rbp
    8b7d:	48 89 e5             	mov    %rsp,%rbp
    8b80:	89 fa                	mov    %edi,%edx
    8b82:	89 f0                	mov    %esi,%eax
    8b84:	88 55 fc             	mov    %dl,-0x4(%rbp)
    8b87:	88 45 f8             	mov    %al,-0x8(%rbp)
    8b8a:	0f b6 45 fc          	movzbl -0x4(%rbp),%eax
    8b8e:	2a 45 f8             	sub    -0x8(%rbp),%al
    8b91:	5d                   	pop    %rbp
    8b92:	c3                   	retq   

0000000000008b93 <safe_mul_func_uint8_t_u_u>:
    8b93:	f3 0f 1e fa          	endbr64 
    8b97:	55                   	push   %rbp
    8b98:	48 89 e5             	mov    %rsp,%rbp
    8b9b:	89 fa                	mov    %edi,%edx
    8b9d:	89 f0                	mov    %esi,%eax
    8b9f:	88 55 fc             	mov    %dl,-0x4(%rbp)
    8ba2:	88 45 f8             	mov    %al,-0x8(%rbp)
    8ba5:	0f b6 45 fc          	movzbl -0x4(%rbp),%eax
    8ba9:	f6 65 f8             	mulb   -0x8(%rbp)
    8bac:	5d                   	pop    %rbp
    8bad:	c3                   	retq   

0000000000008bae <safe_mod_func_uint8_t_u_u>:
    8bae:	f3 0f 1e fa          	endbr64 
    8bb2:	55                   	push   %rbp
    8bb3:	48 89 e5             	mov    %rsp,%rbp
    8bb6:	89 fa                	mov    %edi,%edx
    8bb8:	89 f0                	mov    %esi,%eax
    8bba:	88 55 fc             	mov    %dl,-0x4(%rbp)
    8bbd:	88 45 f8             	mov    %al,-0x8(%rbp)
    8bc0:	80 7d f8 00          	cmpb   $0x0,-0x8(%rbp)
    8bc4:	74 0f                	je     8bd5 <safe_mod_func_uint8_t_u_u+0x27>
    8bc6:	0f b6 45 fc          	movzbl -0x4(%rbp),%eax
    8bca:	0f b6 c0             	movzbl %al,%eax
    8bcd:	f6 75 f8             	divb   -0x8(%rbp)
    8bd0:	0f b6 c4             	movzbl %ah,%eax
    8bd3:	eb 04                	jmp    8bd9 <safe_mod_func_uint8_t_u_u+0x2b>
    8bd5:	0f b6 45 fc          	movzbl -0x4(%rbp),%eax
    8bd9:	5d                   	pop    %rbp
    8bda:	c3                   	retq   

0000000000008bdb <safe_div_func_uint8_t_u_u>:
    8bdb:	f3 0f 1e fa          	endbr64 
    8bdf:	55                   	push   %rbp
    8be0:	48 89 e5             	mov    %rsp,%rbp
    8be3:	89 fa                	mov    %edi,%edx
    8be5:	89 f0                	mov    %esi,%eax
    8be7:	88 55 fc             	mov    %dl,-0x4(%rbp)
    8bea:	88 45 f8             	mov    %al,-0x8(%rbp)
    8bed:	80 7d f8 00          	cmpb   $0x0,-0x8(%rbp)
    8bf1:	74 0c                	je     8bff <safe_div_func_uint8_t_u_u+0x24>
    8bf3:	0f b6 45 fc          	movzbl -0x4(%rbp),%eax
    8bf7:	0f b6 c0             	movzbl %al,%eax
    8bfa:	f6 75 f8             	divb   -0x8(%rbp)
    8bfd:	eb 04                	jmp    8c03 <safe_div_func_uint8_t_u_u+0x28>
    8bff:	0f b6 45 fc          	movzbl -0x4(%rbp),%eax
    8c03:	5d                   	pop    %rbp
    8c04:	c3                   	retq   

0000000000008c05 <safe_lshift_func_uint8_t_u_s>:
    8c05:	f3 0f 1e fa          	endbr64 
    8c09:	55                   	push   %rbp
    8c0a:	48 89 e5             	mov    %rsp,%rbp
    8c0d:	89 f8                	mov    %edi,%eax
    8c0f:	89 75 f8             	mov    %esi,-0x8(%rbp)
    8c12:	88 45 fc             	mov    %al,-0x4(%rbp)
    8c15:	83 7d f8 00          	cmpl   $0x0,-0x8(%rbp)
    8c19:	78 2b                	js     8c46 <safe_lshift_func_uint8_t_u_s+0x41>
    8c1b:	83 7d f8 1f          	cmpl   $0x1f,-0x8(%rbp)
    8c1f:	7f 25                	jg     8c46 <safe_lshift_func_uint8_t_u_s+0x41>
    8c21:	0f b6 55 fc          	movzbl -0x4(%rbp),%edx
    8c25:	8b 45 f8             	mov    -0x8(%rbp),%eax
    8c28:	be ff 00 00 00       	mov    $0xff,%esi
    8c2d:	89 c1                	mov    %eax,%ecx
    8c2f:	d3 fe                	sar    %cl,%esi
    8c31:	89 f0                	mov    %esi,%eax
    8c33:	39 c2                	cmp    %eax,%edx
    8c35:	7f 0f                	jg     8c46 <safe_lshift_func_uint8_t_u_s+0x41>
    8c37:	0f b6 55 fc          	movzbl -0x4(%rbp),%edx
    8c3b:	8b 45 f8             	mov    -0x8(%rbp),%eax
    8c3e:	89 c1                	mov    %eax,%ecx
    8c40:	d3 e2                	shl    %cl,%edx
    8c42:	89 d0                	mov    %edx,%eax
    8c44:	eb 04                	jmp    8c4a <safe_lshift_func_uint8_t_u_s+0x45>
    8c46:	0f b6 45 fc          	movzbl -0x4(%rbp),%eax
    8c4a:	5d                   	pop    %rbp
    8c4b:	c3                   	retq   

0000000000008c4c <safe_lshift_func_uint8_t_u_u>:
    8c4c:	f3 0f 1e fa          	endbr64 
    8c50:	55                   	push   %rbp
    8c51:	48 89 e5             	mov    %rsp,%rbp
    8c54:	89 f8                	mov    %edi,%eax
    8c56:	89 75 f8             	mov    %esi,-0x8(%rbp)
    8c59:	88 45 fc             	mov    %al,-0x4(%rbp)
    8c5c:	83 7d f8 1f          	cmpl   $0x1f,-0x8(%rbp)
    8c60:	77 25                	ja     8c87 <safe_lshift_func_uint8_t_u_u+0x3b>
    8c62:	0f b6 55 fc          	movzbl -0x4(%rbp),%edx
    8c66:	8b 45 f8             	mov    -0x8(%rbp),%eax
    8c69:	be ff 00 00 00       	mov    $0xff,%esi
    8c6e:	89 c1                	mov    %eax,%ecx
    8c70:	d3 fe                	sar    %cl,%esi
    8c72:	89 f0                	mov    %esi,%eax
    8c74:	39 c2                	cmp    %eax,%edx
    8c76:	7f 0f                	jg     8c87 <safe_lshift_func_uint8_t_u_u+0x3b>
    8c78:	0f b6 55 fc          	movzbl -0x4(%rbp),%edx
    8c7c:	8b 45 f8             	mov    -0x8(%rbp),%eax
    8c7f:	89 c1                	mov    %eax,%ecx
    8c81:	d3 e2                	shl    %cl,%edx
    8c83:	89 d0                	mov    %edx,%eax
    8c85:	eb 04                	jmp    8c8b <safe_lshift_func_uint8_t_u_u+0x3f>
    8c87:	0f b6 45 fc          	movzbl -0x4(%rbp),%eax
    8c8b:	5d                   	pop    %rbp
    8c8c:	c3                   	retq   

0000000000008c8d <safe_rshift_func_uint8_t_u_s>:
    8c8d:	f3 0f 1e fa          	endbr64 
    8c91:	55                   	push   %rbp
    8c92:	48 89 e5             	mov    %rsp,%rbp
    8c95:	89 f8                	mov    %edi,%eax
    8c97:	89 75 f8             	mov    %esi,-0x8(%rbp)
    8c9a:	88 45 fc             	mov    %al,-0x4(%rbp)
    8c9d:	83 7d f8 00          	cmpl   $0x0,-0x8(%rbp)
    8ca1:	78 15                	js     8cb8 <safe_rshift_func_uint8_t_u_s+0x2b>
    8ca3:	83 7d f8 1f          	cmpl   $0x1f,-0x8(%rbp)
    8ca7:	7f 0f                	jg     8cb8 <safe_rshift_func_uint8_t_u_s+0x2b>
    8ca9:	0f b6 55 fc          	movzbl -0x4(%rbp),%edx
    8cad:	8b 45 f8             	mov    -0x8(%rbp),%eax
    8cb0:	89 c1                	mov    %eax,%ecx
    8cb2:	d3 fa                	sar    %cl,%edx
    8cb4:	89 d0                	mov    %edx,%eax
    8cb6:	eb 04                	jmp    8cbc <safe_rshift_func_uint8_t_u_s+0x2f>
    8cb8:	0f b6 45 fc          	movzbl -0x4(%rbp),%eax
    8cbc:	5d                   	pop    %rbp
    8cbd:	c3                   	retq   

0000000000008cbe <safe_rshift_func_uint8_t_u_u>:
    8cbe:	f3 0f 1e fa          	endbr64 
    8cc2:	55                   	push   %rbp
    8cc3:	48 89 e5             	mov    %rsp,%rbp
    8cc6:	89 f8                	mov    %edi,%eax
    8cc8:	89 75 f8             	mov    %esi,-0x8(%rbp)
    8ccb:	88 45 fc             	mov    %al,-0x4(%rbp)
    8cce:	83 7d f8 1f          	cmpl   $0x1f,-0x8(%rbp)
    8cd2:	77 0f                	ja     8ce3 <safe_rshift_func_uint8_t_u_u+0x25>
    8cd4:	0f b6 55 fc          	movzbl -0x4(%rbp),%edx
    8cd8:	8b 45 f8             	mov    -0x8(%rbp),%eax
    8cdb:	89 c1                	mov    %eax,%ecx
    8cdd:	d3 fa                	sar    %cl,%edx
    8cdf:	89 d0                	mov    %edx,%eax
    8ce1:	eb 04                	jmp    8ce7 <safe_rshift_func_uint8_t_u_u+0x29>
    8ce3:	0f b6 45 fc          	movzbl -0x4(%rbp),%eax
    8ce7:	5d                   	pop    %rbp
    8ce8:	c3                   	retq   

0000000000008ce9 <safe_unary_minus_func_uint16_t_u>:
    8ce9:	f3 0f 1e fa          	endbr64 
    8ced:	55                   	push   %rbp
    8cee:	48 89 e5             	mov    %rsp,%rbp
    8cf1:	89 f8                	mov    %edi,%eax
    8cf3:	66 89 45 fc          	mov    %ax,-0x4(%rbp)
    8cf7:	0f b7 45 fc          	movzwl -0x4(%rbp),%eax
    8cfb:	f7 d8                	neg    %eax
    8cfd:	5d                   	pop    %rbp
    8cfe:	c3                   	retq   

0000000000008cff <safe_add_func_uint16_t_u_u>:
    8cff:	f3 0f 1e fa          	endbr64 
    8d03:	55                   	push   %rbp
    8d04:	48 89 e5             	mov    %rsp,%rbp
    8d07:	89 fa                	mov    %edi,%edx
    8d09:	89 f0                	mov    %esi,%eax
    8d0b:	66 89 55 fc          	mov    %dx,-0x4(%rbp)
    8d0f:	66 89 45 f8          	mov    %ax,-0x8(%rbp)
    8d13:	0f b7 55 fc          	movzwl -0x4(%rbp),%edx
    8d17:	0f b7 45 f8          	movzwl -0x8(%rbp),%eax
    8d1b:	01 d0                	add    %edx,%eax
    8d1d:	5d                   	pop    %rbp
    8d1e:	c3                   	retq   

0000000000008d1f <safe_sub_func_uint16_t_u_u>:
    8d1f:	f3 0f 1e fa          	endbr64 
    8d23:	55                   	push   %rbp
    8d24:	48 89 e5             	mov    %rsp,%rbp
    8d27:	89 fa                	mov    %edi,%edx
    8d29:	89 f0                	mov    %esi,%eax
    8d2b:	66 89 55 fc          	mov    %dx,-0x4(%rbp)
    8d2f:	66 89 45 f8          	mov    %ax,-0x8(%rbp)
    8d33:	0f b7 45 fc          	movzwl -0x4(%rbp),%eax
    8d37:	66 2b 45 f8          	sub    -0x8(%rbp),%ax
    8d3b:	5d                   	pop    %rbp
    8d3c:	c3                   	retq   

0000000000008d3d <safe_mul_func_uint16_t_u_u>:
    8d3d:	f3 0f 1e fa          	endbr64 
    8d41:	55                   	push   %rbp
    8d42:	48 89 e5             	mov    %rsp,%rbp
    8d45:	89 fa                	mov    %edi,%edx
    8d47:	89 f0                	mov    %esi,%eax
    8d49:	66 89 55 fc          	mov    %dx,-0x4(%rbp)
    8d4d:	66 89 45 f8          	mov    %ax,-0x8(%rbp)
    8d51:	0f b7 45 fc          	movzwl -0x4(%rbp),%eax
    8d55:	66 0f af 45 f8       	imul   -0x8(%rbp),%ax
    8d5a:	5d                   	pop    %rbp
    8d5b:	c3                   	retq   

0000000000008d5c <safe_mod_func_uint16_t_u_u>:
    8d5c:	f3 0f 1e fa          	endbr64 
    8d60:	55                   	push   %rbp
    8d61:	48 89 e5             	mov    %rsp,%rbp
    8d64:	89 fa                	mov    %edi,%edx
    8d66:	89 f0                	mov    %esi,%eax
    8d68:	66 89 55 fc          	mov    %dx,-0x4(%rbp)
    8d6c:	66 89 45 f8          	mov    %ax,-0x8(%rbp)
    8d70:	66 83 7d f8 00       	cmpw   $0x0,-0x8(%rbp)
    8d75:	74 11                	je     8d88 <safe_mod_func_uint16_t_u_u+0x2c>
    8d77:	0f b7 45 fc          	movzwl -0x4(%rbp),%eax
    8d7b:	ba 00 00 00 00       	mov    $0x0,%edx
    8d80:	66 f7 75 f8          	divw   -0x8(%rbp)
    8d84:	89 d0                	mov    %edx,%eax
    8d86:	eb 04                	jmp    8d8c <safe_mod_func_uint16_t_u_u+0x30>
    8d88:	0f b7 45 fc          	movzwl -0x4(%rbp),%eax
    8d8c:	5d                   	pop    %rbp
    8d8d:	c3                   	retq   

0000000000008d8e <safe_div_func_uint16_t_u_u>:
    8d8e:	f3 0f 1e fa          	endbr64 
    8d92:	55                   	push   %rbp
    8d93:	48 89 e5             	mov    %rsp,%rbp
    8d96:	89 fa                	mov    %edi,%edx
    8d98:	89 f0                	mov    %esi,%eax
    8d9a:	66 89 55 fc          	mov    %dx,-0x4(%rbp)
    8d9e:	66 89 45 f8          	mov    %ax,-0x8(%rbp)
    8da2:	66 83 7d f8 00       	cmpw   $0x0,-0x8(%rbp)
    8da7:	74 0f                	je     8db8 <safe_div_func_uint16_t_u_u+0x2a>
    8da9:	0f b7 45 fc          	movzwl -0x4(%rbp),%eax
    8dad:	ba 00 00 00 00       	mov    $0x0,%edx
    8db2:	66 f7 75 f8          	divw   -0x8(%rbp)
    8db6:	eb 04                	jmp    8dbc <safe_div_func_uint16_t_u_u+0x2e>
    8db8:	0f b7 45 fc          	movzwl -0x4(%rbp),%eax
    8dbc:	5d                   	pop    %rbp
    8dbd:	c3                   	retq   

0000000000008dbe <safe_lshift_func_uint16_t_u_s>:
    8dbe:	f3 0f 1e fa          	endbr64 
    8dc2:	55                   	push   %rbp
    8dc3:	48 89 e5             	mov    %rsp,%rbp
    8dc6:	89 f8                	mov    %edi,%eax
    8dc8:	89 75 f8             	mov    %esi,-0x8(%rbp)
    8dcb:	66 89 45 fc          	mov    %ax,-0x4(%rbp)
    8dcf:	83 7d f8 00          	cmpl   $0x0,-0x8(%rbp)
    8dd3:	78 2b                	js     8e00 <safe_lshift_func_uint16_t_u_s+0x42>
    8dd5:	83 7d f8 1f          	cmpl   $0x1f,-0x8(%rbp)
    8dd9:	7f 25                	jg     8e00 <safe_lshift_func_uint16_t_u_s+0x42>
    8ddb:	0f b7 55 fc          	movzwl -0x4(%rbp),%edx
    8ddf:	8b 45 f8             	mov    -0x8(%rbp),%eax
    8de2:	be ff ff 00 00       	mov    $0xffff,%esi
    8de7:	89 c1                	mov    %eax,%ecx
    8de9:	d3 fe                	sar    %cl,%esi
    8deb:	89 f0                	mov    %esi,%eax
    8ded:	39 c2                	cmp    %eax,%edx
    8def:	7f 0f                	jg     8e00 <safe_lshift_func_uint16_t_u_s+0x42>
    8df1:	0f b7 55 fc          	movzwl -0x4(%rbp),%edx
    8df5:	8b 45 f8             	mov    -0x8(%rbp),%eax
    8df8:	89 c1                	mov    %eax,%ecx
    8dfa:	d3 e2                	shl    %cl,%edx
    8dfc:	89 d0                	mov    %edx,%eax
    8dfe:	eb 04                	jmp    8e04 <safe_lshift_func_uint16_t_u_s+0x46>
    8e00:	0f b7 45 fc          	movzwl -0x4(%rbp),%eax
    8e04:	5d                   	pop    %rbp
    8e05:	c3                   	retq   

0000000000008e06 <safe_lshift_func_uint16_t_u_u>:
    8e06:	f3 0f 1e fa          	endbr64 
    8e0a:	55                   	push   %rbp
    8e0b:	48 89 e5             	mov    %rsp,%rbp
    8e0e:	89 f8                	mov    %edi,%eax
    8e10:	89 75 f8             	mov    %esi,-0x8(%rbp)
    8e13:	66 89 45 fc          	mov    %ax,-0x4(%rbp)
    8e17:	83 7d f8 1f          	cmpl   $0x1f,-0x8(%rbp)
    8e1b:	77 25                	ja     8e42 <safe_lshift_func_uint16_t_u_u+0x3c>
    8e1d:	0f b7 55 fc          	movzwl -0x4(%rbp),%edx
    8e21:	8b 45 f8             	mov    -0x8(%rbp),%eax
    8e24:	be ff ff 00 00       	mov    $0xffff,%esi
    8e29:	89 c1                	mov    %eax,%ecx
    8e2b:	d3 fe                	sar    %cl,%esi
    8e2d:	89 f0                	mov    %esi,%eax
    8e2f:	39 c2                	cmp    %eax,%edx
    8e31:	7f 0f                	jg     8e42 <safe_lshift_func_uint16_t_u_u+0x3c>
    8e33:	0f b7 55 fc          	movzwl -0x4(%rbp),%edx
    8e37:	8b 45 f8             	mov    -0x8(%rbp),%eax
    8e3a:	89 c1                	mov    %eax,%ecx
    8e3c:	d3 e2                	shl    %cl,%edx
    8e3e:	89 d0                	mov    %edx,%eax
    8e40:	eb 04                	jmp    8e46 <safe_lshift_func_uint16_t_u_u+0x40>
    8e42:	0f b7 45 fc          	movzwl -0x4(%rbp),%eax
    8e46:	5d                   	pop    %rbp
    8e47:	c3                   	retq   

0000000000008e48 <safe_rshift_func_uint16_t_u_s>:
    8e48:	f3 0f 1e fa          	endbr64 
    8e4c:	55                   	push   %rbp
    8e4d:	48 89 e5             	mov    %rsp,%rbp
    8e50:	89 f8                	mov    %edi,%eax
    8e52:	89 75 f8             	mov    %esi,-0x8(%rbp)
    8e55:	66 89 45 fc          	mov    %ax,-0x4(%rbp)
    8e59:	83 7d f8 00          	cmpl   $0x0,-0x8(%rbp)
    8e5d:	78 15                	js     8e74 <safe_rshift_func_uint16_t_u_s+0x2c>
    8e5f:	83 7d f8 1f          	cmpl   $0x1f,-0x8(%rbp)
    8e63:	7f 0f                	jg     8e74 <safe_rshift_func_uint16_t_u_s+0x2c>
    8e65:	0f b7 55 fc          	movzwl -0x4(%rbp),%edx
    8e69:	8b 45 f8             	mov    -0x8(%rbp),%eax
    8e6c:	89 c1                	mov    %eax,%ecx
    8e6e:	d3 fa                	sar    %cl,%edx
    8e70:	89 d0                	mov    %edx,%eax
    8e72:	eb 04                	jmp    8e78 <safe_rshift_func_uint16_t_u_s+0x30>
    8e74:	0f b7 45 fc          	movzwl -0x4(%rbp),%eax
    8e78:	5d                   	pop    %rbp
    8e79:	c3                   	retq   

0000000000008e7a <safe_rshift_func_uint16_t_u_u>:
    8e7a:	f3 0f 1e fa          	endbr64 
    8e7e:	55                   	push   %rbp
    8e7f:	48 89 e5             	mov    %rsp,%rbp
    8e82:	89 f8                	mov    %edi,%eax
    8e84:	89 75 f8             	mov    %esi,-0x8(%rbp)
    8e87:	66 89 45 fc          	mov    %ax,-0x4(%rbp)
    8e8b:	83 7d f8 1f          	cmpl   $0x1f,-0x8(%rbp)
    8e8f:	77 0f                	ja     8ea0 <safe_rshift_func_uint16_t_u_u+0x26>
    8e91:	0f b7 55 fc          	movzwl -0x4(%rbp),%edx
    8e95:	8b 45 f8             	mov    -0x8(%rbp),%eax
    8e98:	89 c1                	mov    %eax,%ecx
    8e9a:	d3 fa                	sar    %cl,%edx
    8e9c:	89 d0                	mov    %edx,%eax
    8e9e:	eb 04                	jmp    8ea4 <safe_rshift_func_uint16_t_u_u+0x2a>
    8ea0:	0f b7 45 fc          	movzwl -0x4(%rbp),%eax
    8ea4:	5d                   	pop    %rbp
    8ea5:	c3                   	retq   

0000000000008ea6 <safe_unary_minus_func_uint32_t_u>:
    8ea6:	f3 0f 1e fa          	endbr64 
    8eaa:	55                   	push   %rbp
    8eab:	48 89 e5             	mov    %rsp,%rbp
    8eae:	89 7d fc             	mov    %edi,-0x4(%rbp)
    8eb1:	8b 45 fc             	mov    -0x4(%rbp),%eax
    8eb4:	f7 d8                	neg    %eax
    8eb6:	5d                   	pop    %rbp
    8eb7:	c3                   	retq   

0000000000008eb8 <safe_add_func_uint32_t_u_u>:
    8eb8:	f3 0f 1e fa          	endbr64 
    8ebc:	55                   	push   %rbp
    8ebd:	48 89 e5             	mov    %rsp,%rbp
    8ec0:	89 7d fc             	mov    %edi,-0x4(%rbp)
    8ec3:	89 75 f8             	mov    %esi,-0x8(%rbp)
    8ec6:	8b 55 fc             	mov    -0x4(%rbp),%edx
    8ec9:	8b 45 f8             	mov    -0x8(%rbp),%eax
    8ecc:	01 d0                	add    %edx,%eax
    8ece:	5d                   	pop    %rbp
    8ecf:	c3                   	retq   

0000000000008ed0 <safe_sub_func_uint32_t_u_u>:
    8ed0:	f3 0f 1e fa          	endbr64 
    8ed4:	55                   	push   %rbp
    8ed5:	48 89 e5             	mov    %rsp,%rbp
    8ed8:	89 7d fc             	mov    %edi,-0x4(%rbp)
    8edb:	89 75 f8             	mov    %esi,-0x8(%rbp)
    8ede:	8b 45 fc             	mov    -0x4(%rbp),%eax
    8ee1:	2b 45 f8             	sub    -0x8(%rbp),%eax
    8ee4:	5d                   	pop    %rbp
    8ee5:	c3                   	retq   

0000000000008ee6 <safe_mul_func_uint32_t_u_u>:
    8ee6:	f3 0f 1e fa          	endbr64 
    8eea:	55                   	push   %rbp
    8eeb:	48 89 e5             	mov    %rsp,%rbp
    8eee:	89 7d fc             	mov    %edi,-0x4(%rbp)
    8ef1:	89 75 f8             	mov    %esi,-0x8(%rbp)
    8ef4:	8b 45 fc             	mov    -0x4(%rbp),%eax
    8ef7:	0f af 45 f8          	imul   -0x8(%rbp),%eax
    8efb:	5d                   	pop    %rbp
    8efc:	c3                   	retq   

0000000000008efd <safe_mod_func_uint32_t_u_u>:
    8efd:	f3 0f 1e fa          	endbr64 
    8f01:	55                   	push   %rbp
    8f02:	48 89 e5             	mov    %rsp,%rbp
    8f05:	89 7d fc             	mov    %edi,-0x4(%rbp)
    8f08:	89 75 f8             	mov    %esi,-0x8(%rbp)
    8f0b:	83 7d f8 00          	cmpl   $0x0,-0x8(%rbp)
    8f0f:	74 0f                	je     8f20 <safe_mod_func_uint32_t_u_u+0x23>
    8f11:	8b 45 fc             	mov    -0x4(%rbp),%eax
    8f14:	ba 00 00 00 00       	mov    $0x0,%edx
    8f19:	f7 75 f8             	divl   -0x8(%rbp)
    8f1c:	89 d0                	mov    %edx,%eax
    8f1e:	eb 03                	jmp    8f23 <safe_mod_func_uint32_t_u_u+0x26>
    8f20:	8b 45 fc             	mov    -0x4(%rbp),%eax
    8f23:	5d                   	pop    %rbp
    8f24:	c3                   	retq   

0000000000008f25 <safe_div_func_uint32_t_u_u>:
    8f25:	f3 0f 1e fa          	endbr64 
    8f29:	55                   	push   %rbp
    8f2a:	48 89 e5             	mov    %rsp,%rbp
    8f2d:	89 7d fc             	mov    %edi,-0x4(%rbp)
    8f30:	89 75 f8             	mov    %esi,-0x8(%rbp)
    8f33:	83 7d f8 00          	cmpl   $0x0,-0x8(%rbp)
    8f37:	74 0d                	je     8f46 <safe_div_func_uint32_t_u_u+0x21>
    8f39:	8b 45 fc             	mov    -0x4(%rbp),%eax
    8f3c:	ba 00 00 00 00       	mov    $0x0,%edx
    8f41:	f7 75 f8             	divl   -0x8(%rbp)
    8f44:	eb 03                	jmp    8f49 <safe_div_func_uint32_t_u_u+0x24>
    8f46:	8b 45 fc             	mov    -0x4(%rbp),%eax
    8f49:	5d                   	pop    %rbp
    8f4a:	c3                   	retq   

0000000000008f4b <safe_lshift_func_uint32_t_u_s>:
    8f4b:	f3 0f 1e fa          	endbr64 
    8f4f:	55                   	push   %rbp
    8f50:	48 89 e5             	mov    %rsp,%rbp
    8f53:	89 7d fc             	mov    %edi,-0x4(%rbp)
    8f56:	89 75 f8             	mov    %esi,-0x8(%rbp)
    8f59:	83 7d f8 00          	cmpl   $0x0,-0x8(%rbp)
    8f5d:	78 27                	js     8f86 <safe_lshift_func_uint32_t_u_s+0x3b>
    8f5f:	83 7d f8 1f          	cmpl   $0x1f,-0x8(%rbp)
    8f63:	7f 21                	jg     8f86 <safe_lshift_func_uint32_t_u_s+0x3b>
    8f65:	8b 45 f8             	mov    -0x8(%rbp),%eax
    8f68:	ba ff ff ff ff       	mov    $0xffffffff,%edx
    8f6d:	89 c1                	mov    %eax,%ecx
    8f6f:	d3 ea                	shr    %cl,%edx
    8f71:	89 d0                	mov    %edx,%eax
    8f73:	39 45 fc             	cmp    %eax,-0x4(%rbp)
    8f76:	77 0e                	ja     8f86 <safe_lshift_func_uint32_t_u_s+0x3b>
    8f78:	8b 45 f8             	mov    -0x8(%rbp),%eax
    8f7b:	8b 55 fc             	mov    -0x4(%rbp),%edx
    8f7e:	89 c1                	mov    %eax,%ecx
    8f80:	d3 e2                	shl    %cl,%edx
    8f82:	89 d0                	mov    %edx,%eax
    8f84:	eb 03                	jmp    8f89 <safe_lshift_func_uint32_t_u_s+0x3e>
    8f86:	8b 45 fc             	mov    -0x4(%rbp),%eax
    8f89:	5d                   	pop    %rbp
    8f8a:	c3                   	retq   

0000000000008f8b <safe_lshift_func_uint32_t_u_u>:
    8f8b:	f3 0f 1e fa          	endbr64 
    8f8f:	55                   	push   %rbp
    8f90:	48 89 e5             	mov    %rsp,%rbp
    8f93:	89 7d fc             	mov    %edi,-0x4(%rbp)
    8f96:	89 75 f8             	mov    %esi,-0x8(%rbp)
    8f99:	83 7d f8 1f          	cmpl   $0x1f,-0x8(%rbp)
    8f9d:	77 21                	ja     8fc0 <safe_lshift_func_uint32_t_u_u+0x35>
    8f9f:	8b 45 f8             	mov    -0x8(%rbp),%eax
    8fa2:	ba ff ff ff ff       	mov    $0xffffffff,%edx
    8fa7:	89 c1                	mov    %eax,%ecx
    8fa9:	d3 ea                	shr    %cl,%edx
    8fab:	89 d0                	mov    %edx,%eax
    8fad:	39 45 fc             	cmp    %eax,-0x4(%rbp)
    8fb0:	77 0e                	ja     8fc0 <safe_lshift_func_uint32_t_u_u+0x35>
    8fb2:	8b 45 f8             	mov    -0x8(%rbp),%eax
    8fb5:	8b 55 fc             	mov    -0x4(%rbp),%edx
    8fb8:	89 c1                	mov    %eax,%ecx
    8fba:	d3 e2                	shl    %cl,%edx
    8fbc:	89 d0                	mov    %edx,%eax
    8fbe:	eb 03                	jmp    8fc3 <safe_lshift_func_uint32_t_u_u+0x38>
    8fc0:	8b 45 fc             	mov    -0x4(%rbp),%eax
    8fc3:	5d                   	pop    %rbp
    8fc4:	c3                   	retq   

0000000000008fc5 <safe_rshift_func_uint32_t_u_s>:
    8fc5:	f3 0f 1e fa          	endbr64 
    8fc9:	55                   	push   %rbp
    8fca:	48 89 e5             	mov    %rsp,%rbp
    8fcd:	89 7d fc             	mov    %edi,-0x4(%rbp)
    8fd0:	89 75 f8             	mov    %esi,-0x8(%rbp)
    8fd3:	83 7d f8 00          	cmpl   $0x0,-0x8(%rbp)
    8fd7:	78 14                	js     8fed <safe_rshift_func_uint32_t_u_s+0x28>
    8fd9:	83 7d f8 1f          	cmpl   $0x1f,-0x8(%rbp)
    8fdd:	7f 0e                	jg     8fed <safe_rshift_func_uint32_t_u_s+0x28>
    8fdf:	8b 45 f8             	mov    -0x8(%rbp),%eax
    8fe2:	8b 55 fc             	mov    -0x4(%rbp),%edx
    8fe5:	89 c1                	mov    %eax,%ecx
    8fe7:	d3 ea                	shr    %cl,%edx
    8fe9:	89 d0                	mov    %edx,%eax
    8feb:	eb 03                	jmp    8ff0 <safe_rshift_func_uint32_t_u_s+0x2b>
    8fed:	8b 45 fc             	mov    -0x4(%rbp),%eax
    8ff0:	5d                   	pop    %rbp
    8ff1:	c3                   	retq   

0000000000008ff2 <safe_rshift_func_uint32_t_u_u>:
    8ff2:	f3 0f 1e fa          	endbr64 
    8ff6:	55                   	push   %rbp
    8ff7:	48 89 e5             	mov    %rsp,%rbp
    8ffa:	89 7d fc             	mov    %edi,-0x4(%rbp)
    8ffd:	89 75 f8             	mov    %esi,-0x8(%rbp)
    9000:	83 7d f8 1f          	cmpl   $0x1f,-0x8(%rbp)
    9004:	77 0e                	ja     9014 <safe_rshift_func_uint32_t_u_u+0x22>
    9006:	8b 45 f8             	mov    -0x8(%rbp),%eax
    9009:	8b 55 fc             	mov    -0x4(%rbp),%edx
    900c:	89 c1                	mov    %eax,%ecx
    900e:	d3 ea                	shr    %cl,%edx
    9010:	89 d0                	mov    %edx,%eax
    9012:	eb 03                	jmp    9017 <safe_rshift_func_uint32_t_u_u+0x25>
    9014:	8b 45 fc             	mov    -0x4(%rbp),%eax
    9017:	5d                   	pop    %rbp
    9018:	c3                   	retq   

0000000000009019 <safe_unary_minus_func_uint64_t_u>:
    9019:	f3 0f 1e fa          	endbr64 
    901d:	55                   	push   %rbp
    901e:	48 89 e5             	mov    %rsp,%rbp
    9021:	48 89 7d f8          	mov    %rdi,-0x8(%rbp)
    9025:	48 8b 45 f8          	mov    -0x8(%rbp),%rax
    9029:	48 f7 d8             	neg    %rax
    902c:	5d                   	pop    %rbp
    902d:	c3                   	retq   

000000000000902e <safe_add_func_uint64_t_u_u>:
    902e:	f3 0f 1e fa          	endbr64 
    9032:	55                   	push   %rbp
    9033:	48 89 e5             	mov    %rsp,%rbp
    9036:	48 89 7d f8          	mov    %rdi,-0x8(%rbp)
    903a:	48 89 75 f0          	mov    %rsi,-0x10(%rbp)
    903e:	48 8b 55 f8          	mov    -0x8(%rbp),%rdx
    9042:	48 8b 45 f0          	mov    -0x10(%rbp),%rax
    9046:	48 01 d0             	add    %rdx,%rax
    9049:	5d                   	pop    %rbp
    904a:	c3                   	retq   

000000000000904b <safe_sub_func_uint64_t_u_u>:
    904b:	f3 0f 1e fa          	endbr64 
    904f:	55                   	push   %rbp
    9050:	48 89 e5             	mov    %rsp,%rbp
    9053:	48 89 7d f8          	mov    %rdi,-0x8(%rbp)
    9057:	48 89 75 f0          	mov    %rsi,-0x10(%rbp)
    905b:	48 8b 45 f8          	mov    -0x8(%rbp),%rax
    905f:	48 2b 45 f0          	sub    -0x10(%rbp),%rax
    9063:	5d                   	pop    %rbp
    9064:	c3                   	retq   

0000000000009065 <safe_mul_func_uint64_t_u_u>:
    9065:	f3 0f 1e fa          	endbr64 
    9069:	55                   	push   %rbp
    906a:	48 89 e5             	mov    %rsp,%rbp
    906d:	48 89 7d f8          	mov    %rdi,-0x8(%rbp)
    9071:	48 89 75 f0          	mov    %rsi,-0x10(%rbp)
    9075:	48 8b 45 f8          	mov    -0x8(%rbp),%rax
    9079:	48 0f af 45 f0       	imul   -0x10(%rbp),%rax
    907e:	5d                   	pop    %rbp
    907f:	c3                   	retq   

0000000000009080 <safe_mod_func_uint64_t_u_u>:
    9080:	f3 0f 1e fa          	endbr64 
    9084:	55                   	push   %rbp
    9085:	48 89 e5             	mov    %rsp,%rbp
    9088:	48 89 7d f8          	mov    %rdi,-0x8(%rbp)
    908c:	48 89 75 f0          	mov    %rsi,-0x10(%rbp)
    9090:	48 83 7d f0 00       	cmpq   $0x0,-0x10(%rbp)
    9095:	74 12                	je     90a9 <safe_mod_func_uint64_t_u_u+0x29>
    9097:	48 8b 45 f8          	mov    -0x8(%rbp),%rax
    909b:	ba 00 00 00 00       	mov    $0x0,%edx
    90a0:	48 f7 75 f0          	divq   -0x10(%rbp)
    90a4:	48 89 d0             	mov    %rdx,%rax
    90a7:	eb 04                	jmp    90ad <safe_mod_func_uint64_t_u_u+0x2d>
    90a9:	48 8b 45 f8          	mov    -0x8(%rbp),%rax
    90ad:	5d                   	pop    %rbp
    90ae:	c3                   	retq   

00000000000090af <safe_div_func_uint64_t_u_u>:
    90af:	f3 0f 1e fa          	endbr64 
    90b3:	55                   	push   %rbp
    90b4:	48 89 e5             	mov    %rsp,%rbp
    90b7:	48 89 7d f8          	mov    %rdi,-0x8(%rbp)
    90bb:	48 89 75 f0          	mov    %rsi,-0x10(%rbp)
    90bf:	48 83 7d f0 00       	cmpq   $0x0,-0x10(%rbp)
    90c4:	74 0f                	je     90d5 <safe_div_func_uint64_t_u_u+0x26>
    90c6:	48 8b 45 f8          	mov    -0x8(%rbp),%rax
    90ca:	ba 00 00 00 00       	mov    $0x0,%edx
    90cf:	48 f7 75 f0          	divq   -0x10(%rbp)
    90d3:	eb 04                	jmp    90d9 <safe_div_func_uint64_t_u_u+0x2a>
    90d5:	48 8b 45 f8          	mov    -0x8(%rbp),%rax
    90d9:	5d                   	pop    %rbp
    90da:	c3                   	retq   

00000000000090db <safe_lshift_func_uint64_t_u_s>:
    90db:	f3 0f 1e fa          	endbr64 
    90df:	55                   	push   %rbp
    90e0:	48 89 e5             	mov    %rsp,%rbp
    90e3:	48 89 7d f8          	mov    %rdi,-0x8(%rbp)
    90e7:	89 75 f4             	mov    %esi,-0xc(%rbp)
    90ea:	83 7d f4 00          	cmpl   $0x0,-0xc(%rbp)
    90ee:	78 2f                	js     911f <safe_lshift_func_uint64_t_u_s+0x44>
    90f0:	83 7d f4 1f          	cmpl   $0x1f,-0xc(%rbp)
    90f4:	7f 29                	jg     911f <safe_lshift_func_uint64_t_u_s+0x44>
    90f6:	8b 45 f4             	mov    -0xc(%rbp),%eax
    90f9:	48 c7 c2 ff ff ff ff 	mov    $0xffffffffffffffff,%rdx
    9100:	89 c1                	mov    %eax,%ecx
    9102:	48 d3 ea             	shr    %cl,%rdx
    9105:	48 89 d0             	mov    %rdx,%rax
    9108:	48 39 45 f8          	cmp    %rax,-0x8(%rbp)
    910c:	77 11                	ja     911f <safe_lshift_func_uint64_t_u_s+0x44>
    910e:	8b 45 f4             	mov    -0xc(%rbp),%eax
    9111:	48 8b 55 f8          	mov    -0x8(%rbp),%rdx
    9115:	89 c1                	mov    %eax,%ecx
    9117:	48 d3 e2             	shl    %cl,%rdx
    911a:	48 89 d0             	mov    %rdx,%rax
    911d:	eb 04                	jmp    9123 <safe_lshift_func_uint64_t_u_s+0x48>
    911f:	48 8b 45 f8          	mov    -0x8(%rbp),%rax
    9123:	5d                   	pop    %rbp
    9124:	c3                   	retq   

0000000000009125 <safe_lshift_func_uint64_t_u_u>:
    9125:	f3 0f 1e fa          	endbr64 
    9129:	55                   	push   %rbp
    912a:	48 89 e5             	mov    %rsp,%rbp
    912d:	48 89 7d f8          	mov    %rdi,-0x8(%rbp)
    9131:	89 75 f4             	mov    %esi,-0xc(%rbp)
    9134:	83 7d f4 1f          	cmpl   $0x1f,-0xc(%rbp)
    9138:	77 29                	ja     9163 <safe_lshift_func_uint64_t_u_u+0x3e>
    913a:	8b 45 f4             	mov    -0xc(%rbp),%eax
    913d:	48 c7 c2 ff ff ff ff 	mov    $0xffffffffffffffff,%rdx
    9144:	89 c1                	mov    %eax,%ecx
    9146:	48 d3 ea             	shr    %cl,%rdx
    9149:	48 89 d0             	mov    %rdx,%rax
    914c:	48 39 45 f8          	cmp    %rax,-0x8(%rbp)
    9150:	77 11                	ja     9163 <safe_lshift_func_uint64_t_u_u+0x3e>
    9152:	8b 45 f4             	mov    -0xc(%rbp),%eax
    9155:	48 8b 55 f8          	mov    -0x8(%rbp),%rdx
    9159:	89 c1                	mov    %eax,%ecx
    915b:	48 d3 e2             	shl    %cl,%rdx
    915e:	48 89 d0             	mov    %rdx,%rax
    9161:	eb 04                	jmp    9167 <safe_lshift_func_uint64_t_u_u+0x42>
    9163:	48 8b 45 f8          	mov    -0x8(%rbp),%rax
    9167:	5d                   	pop    %rbp
    9168:	c3                   	retq   

0000000000009169 <safe_rshift_func_uint64_t_u_s>:
    9169:	f3 0f 1e fa          	endbr64 
    916d:	55                   	push   %rbp
    916e:	48 89 e5             	mov    %rsp,%rbp
    9171:	48 89 7d f8          	mov    %rdi,-0x8(%rbp)
    9175:	89 75 f4             	mov    %esi,-0xc(%rbp)
    9178:	83 7d f4 00          	cmpl   $0x0,-0xc(%rbp)
    917c:	78 17                	js     9195 <safe_rshift_func_uint64_t_u_s+0x2c>
    917e:	83 7d f4 1f          	cmpl   $0x1f,-0xc(%rbp)
    9182:	7f 11                	jg     9195 <safe_rshift_func_uint64_t_u_s+0x2c>
    9184:	8b 45 f4             	mov    -0xc(%rbp),%eax
    9187:	48 8b 55 f8          	mov    -0x8(%rbp),%rdx
    918b:	89 c1                	mov    %eax,%ecx
    918d:	48 d3 ea             	shr    %cl,%rdx
    9190:	48 89 d0             	mov    %rdx,%rax
    9193:	eb 04                	jmp    9199 <safe_rshift_func_uint64_t_u_s+0x30>
    9195:	48 8b 45 f8          	mov    -0x8(%rbp),%rax
    9199:	5d                   	pop    %rbp
    919a:	c3                   	retq   

000000000000919b <safe_rshift_func_uint64_t_u_u>:
    919b:	f3 0f 1e fa          	endbr64 
    919f:	55                   	push   %rbp
    91a0:	48 89 e5             	mov    %rsp,%rbp
    91a3:	48 89 7d f8          	mov    %rdi,-0x8(%rbp)
    91a7:	89 75 f4             	mov    %esi,-0xc(%rbp)
    91aa:	83 7d f4 1f          	cmpl   $0x1f,-0xc(%rbp)
    91ae:	77 11                	ja     91c1 <safe_rshift_func_uint64_t_u_u+0x26>
    91b0:	8b 45 f4             	mov    -0xc(%rbp),%eax
    91b3:	48 8b 55 f8          	mov    -0x8(%rbp),%rdx
    91b7:	89 c1                	mov    %eax,%ecx
    91b9:	48 d3 ea             	shr    %cl,%rdx
    91bc:	48 89 d0             	mov    %rdx,%rax
    91bf:	eb 04                	jmp    91c5 <safe_rshift_func_uint64_t_u_u+0x2a>
    91c1:	48 8b 45 f8          	mov    -0x8(%rbp),%rax
    91c5:	5d                   	pop    %rbp
    91c6:	c3                   	retq   

00000000000091c7 <safe_add_func_float_f_f>:
    91c7:	f3 0f 1e fa          	endbr64 
    91cb:	55                   	push   %rbp
    91cc:	48 89 e5             	mov    %rsp,%rbp
    91cf:	f3 0f 11 45 fc       	movss  %xmm0,-0x4(%rbp)
    91d4:	f3 0f 11 4d f8       	movss  %xmm1,-0x8(%rbp)
    91d9:	f3 0f 10 4d fc       	movss  -0x4(%rbp),%xmm1
    91de:	f3 0f 10 05 c2 37 01 	movss  0x137c2(%rip),%xmm0        # 1c9a8 <l_219.5064+0x28>
    91e5:	00 
    91e6:	f3 0f 59 c8          	mulss  %xmm0,%xmm1
    91ea:	f3 0f 10 55 f8       	movss  -0x8(%rbp),%xmm2
    91ef:	f3 0f 10 05 b1 37 01 	movss  0x137b1(%rip),%xmm0        # 1c9a8 <l_219.5064+0x28>
    91f6:	00 
    91f7:	f3 0f 59 c2          	mulss  %xmm2,%xmm0
    91fb:	f3 0f 58 c1          	addss  %xmm1,%xmm0
    91ff:	f3 0f 10 0d a9 37 01 	movss  0x137a9(%rip),%xmm1        # 1c9b0 <l_219.5064+0x30>
    9206:	00 
    9207:	0f 54 c1             	andps  %xmm1,%xmm0
    920a:	0f 2f 05 af 37 01 00 	comiss 0x137af(%rip),%xmm0        # 1c9c0 <l_219.5064+0x40>
    9211:	76 07                	jbe    921a <safe_add_func_float_f_f+0x53>
    9213:	f3 0f 10 45 fc       	movss  -0x4(%rbp),%xmm0
    9218:	eb 0a                	jmp    9224 <safe_add_func_float_f_f+0x5d>
    921a:	f3 0f 10 45 fc       	movss  -0x4(%rbp),%xmm0
    921f:	f3 0f 58 45 f8       	addss  -0x8(%rbp),%xmm0
    9224:	5d                   	pop    %rbp
    9225:	c3                   	retq   

0000000000009226 <safe_sub_func_float_f_f>:
    9226:	f3 0f 1e fa          	endbr64 
    922a:	55                   	push   %rbp
    922b:	48 89 e5             	mov    %rsp,%rbp
    922e:	f3 0f 11 45 fc       	movss  %xmm0,-0x4(%rbp)
    9233:	f3 0f 11 4d f8       	movss  %xmm1,-0x8(%rbp)
    9238:	f3 0f 10 4d fc       	movss  -0x4(%rbp),%xmm1
    923d:	f3 0f 10 05 63 37 01 	movss  0x13763(%rip),%xmm0        # 1c9a8 <l_219.5064+0x28>
    9244:	00 
    9245:	f3 0f 59 c1          	mulss  %xmm1,%xmm0
    9249:	f3 0f 10 55 f8       	movss  -0x8(%rbp),%xmm2
    924e:	f3 0f 10 0d 52 37 01 	movss  0x13752(%rip),%xmm1        # 1c9a8 <l_219.5064+0x28>
    9255:	00 
    9256:	f3 0f 59 ca          	mulss  %xmm2,%xmm1
    925a:	f3 0f 5c c1          	subss  %xmm1,%xmm0
    925e:	f3 0f 10 0d 4a 37 01 	movss  0x1374a(%rip),%xmm1        # 1c9b0 <l_219.5064+0x30>
    9265:	00 
    9266:	0f 54 c1             	andps  %xmm1,%xmm0
    9269:	0f 2f 05 50 37 01 00 	comiss 0x13750(%rip),%xmm0        # 1c9c0 <l_219.5064+0x40>
    9270:	76 07                	jbe    9279 <safe_sub_func_float_f_f+0x53>
    9272:	f3 0f 10 45 fc       	movss  -0x4(%rbp),%xmm0
    9277:	eb 0a                	jmp    9283 <safe_sub_func_float_f_f+0x5d>
    9279:	f3 0f 10 45 fc       	movss  -0x4(%rbp),%xmm0
    927e:	f3 0f 5c 45 f8       	subss  -0x8(%rbp),%xmm0
    9283:	5d                   	pop    %rbp
    9284:	c3                   	retq   

0000000000009285 <safe_mul_func_float_f_f>:
    9285:	f3 0f 1e fa          	endbr64 
    9289:	55                   	push   %rbp
    928a:	48 89 e5             	mov    %rsp,%rbp
    928d:	f3 0f 11 45 fc       	movss  %xmm0,-0x4(%rbp)
    9292:	f3 0f 11 4d f8       	movss  %xmm1,-0x8(%rbp)
    9297:	f3 0f 10 4d fc       	movss  -0x4(%rbp),%xmm1
    929c:	f3 0f 10 05 20 37 01 	movss  0x13720(%rip),%xmm0        # 1c9c4 <l_219.5064+0x44>
    92a3:	00 
    92a4:	f3 0f 59 c8          	mulss  %xmm0,%xmm1
    92a8:	f3 0f 10 55 f8       	movss  -0x8(%rbp),%xmm2
    92ad:	f3 0f 10 05 13 37 01 	movss  0x13713(%rip),%xmm0        # 1c9c8 <l_219.5064+0x48>
    92b4:	00 
    92b5:	f3 0f 59 c2          	mulss  %xmm2,%xmm0
    92b9:	f3 0f 59 c1          	mulss  %xmm1,%xmm0
    92bd:	f3 0f 10 0d eb 36 01 	movss  0x136eb(%rip),%xmm1        # 1c9b0 <l_219.5064+0x30>
    92c4:	00 
    92c5:	0f 54 c1             	andps  %xmm1,%xmm0
    92c8:	0f 2f 05 fd 36 01 00 	comiss 0x136fd(%rip),%xmm0        # 1c9cc <l_219.5064+0x4c>
    92cf:	76 07                	jbe    92d8 <safe_mul_func_float_f_f+0x53>
    92d1:	f3 0f 10 45 fc       	movss  -0x4(%rbp),%xmm0
    92d6:	eb 0a                	jmp    92e2 <safe_mul_func_float_f_f+0x5d>
    92d8:	f3 0f 10 45 fc       	movss  -0x4(%rbp),%xmm0
    92dd:	f3 0f 59 45 f8       	mulss  -0x8(%rbp),%xmm0
    92e2:	5d                   	pop    %rbp
    92e3:	c3                   	retq   

00000000000092e4 <safe_div_func_float_f_f>:
    92e4:	f3 0f 1e fa          	endbr64 
    92e8:	55                   	push   %rbp
    92e9:	48 89 e5             	mov    %rsp,%rbp
    92ec:	f3 0f 11 45 fc       	movss  %xmm0,-0x4(%rbp)
    92f1:	f3 0f 11 4d f8       	movss  %xmm1,-0x8(%rbp)
    92f6:	f3 0f 10 45 f8       	movss  -0x8(%rbp),%xmm0
    92fb:	f3 0f 10 0d ad 36 01 	movss  0x136ad(%rip),%xmm1        # 1c9b0 <l_219.5064+0x30>
    9302:	00 
    9303:	0f 54 c8             	andps  %xmm0,%xmm1
    9306:	f3 0f 10 05 c2 36 01 	movss  0x136c2(%rip),%xmm0        # 1c9d0 <l_219.5064+0x50>
    930d:	00 
    930e:	0f 2f c1             	comiss %xmm1,%xmm0
    9311:	0f 97 c0             	seta   %al
    9314:	83 f0 01             	xor    $0x1,%eax
    9317:	84 c0                	test   %al,%al
    9319:	75 56                	jne    9371 <safe_div_func_float_f_f+0x8d>
    931b:	66 0f ef c0          	pxor   %xmm0,%xmm0
    931f:	0f 2e 45 f8          	ucomiss -0x8(%rbp),%xmm0
    9323:	7a 0a                	jp     932f <safe_div_func_float_f_f+0x4b>
    9325:	66 0f ef c0          	pxor   %xmm0,%xmm0
    9329:	0f 2e 45 f8          	ucomiss -0x8(%rbp),%xmm0
    932d:	74 4e                	je     937d <safe_div_func_float_f_f+0x99>
    932f:	f3 0f 10 4d fc       	movss  -0x4(%rbp),%xmm1
    9334:	f3 0f 10 05 98 36 01 	movss  0x13698(%rip),%xmm0        # 1c9d4 <l_219.5064+0x54>
    933b:	00 
    933c:	f3 0f 59 c1          	mulss  %xmm1,%xmm0
    9340:	f3 0f 10 55 f8       	movss  -0x8(%rbp),%xmm2
    9345:	f3 0f 10 0d 8b 36 01 	movss  0x1368b(%rip),%xmm1        # 1c9d8 <l_219.5064+0x58>
    934c:	00 
    934d:	f3 0f 59 ca          	mulss  %xmm2,%xmm1
    9351:	f3 0f 5e c1          	divss  %xmm1,%xmm0
    9355:	f3 0f 10 0d 53 36 01 	movss  0x13653(%rip),%xmm1        # 1c9b0 <l_219.5064+0x30>
    935c:	00 
    935d:	0f 54 c1             	andps  %xmm1,%xmm0
    9360:	0f 2f 05 75 36 01 00 	comiss 0x13675(%rip),%xmm0        # 1c9dc <l_219.5064+0x5c>
    9367:	0f 97 c0             	seta   %al
    936a:	83 f0 01             	xor    $0x1,%eax
    936d:	84 c0                	test   %al,%al
    936f:	74 0c                	je     937d <safe_div_func_float_f_f+0x99>
    9371:	f3 0f 10 45 fc       	movss  -0x4(%rbp),%xmm0
    9376:	f3 0f 5e 45 f8       	divss  -0x8(%rbp),%xmm0
    937b:	eb 05                	jmp    9382 <safe_div_func_float_f_f+0x9e>
    937d:	f3 0f 10 45 fc       	movss  -0x4(%rbp),%xmm0
    9382:	5d                   	pop    %rbp
    9383:	c3                   	retq   

0000000000009384 <safe_add_func_double_f_f>:
    9384:	f3 0f 1e fa          	endbr64 
    9388:	55                   	push   %rbp
    9389:	48 89 e5             	mov    %rsp,%rbp
    938c:	f2 0f 11 45 f8       	movsd  %xmm0,-0x8(%rbp)
    9391:	f2 0f 11 4d f0       	movsd  %xmm1,-0x10(%rbp)
    9396:	f2 0f 10 4d f8       	movsd  -0x8(%rbp),%xmm1
    939b:	f2 0f 10 05 3d 36 01 	movsd  0x1363d(%rip),%xmm0        # 1c9e0 <l_219.5064+0x60>
    93a2:	00 
    93a3:	f2 0f 59 c8          	mulsd  %xmm0,%xmm1
    93a7:	f2 0f 10 55 f0       	movsd  -0x10(%rbp),%xmm2
    93ac:	f2 0f 10 05 2c 36 01 	movsd  0x1362c(%rip),%xmm0        # 1c9e0 <l_219.5064+0x60>
    93b3:	00 
    93b4:	f2 0f 59 c2          	mulsd  %xmm2,%xmm0
    93b8:	f2 0f 58 c1          	addsd  %xmm1,%xmm0
    93bc:	f3 0f 7e 0d 2c 36 01 	movq   0x1362c(%rip),%xmm1        # 1c9f0 <l_219.5064+0x70>
    93c3:	00 
    93c4:	66 0f 54 c1          	andpd  %xmm1,%xmm0
    93c8:	66 0f 2f 05 30 36 01 	comisd 0x13630(%rip),%xmm0        # 1ca00 <l_219.5064+0x80>
    93cf:	00 
    93d0:	76 07                	jbe    93d9 <safe_add_func_double_f_f+0x55>
    93d2:	f2 0f 10 45 f8       	movsd  -0x8(%rbp),%xmm0
    93d7:	eb 0a                	jmp    93e3 <safe_add_func_double_f_f+0x5f>
    93d9:	f2 0f 10 45 f8       	movsd  -0x8(%rbp),%xmm0
    93de:	f2 0f 58 45 f0       	addsd  -0x10(%rbp),%xmm0
    93e3:	5d                   	pop    %rbp
    93e4:	c3                   	retq   

00000000000093e5 <safe_sub_func_double_f_f>:
    93e5:	f3 0f 1e fa          	endbr64 
    93e9:	55                   	push   %rbp
    93ea:	48 89 e5             	mov    %rsp,%rbp
    93ed:	f2 0f 11 45 f8       	movsd  %xmm0,-0x8(%rbp)
    93f2:	f2 0f 11 4d f0       	movsd  %xmm1,-0x10(%rbp)
    93f7:	f2 0f 10 4d f8       	movsd  -0x8(%rbp),%xmm1
    93fc:	f2 0f 10 05 dc 35 01 	movsd  0x135dc(%rip),%xmm0        # 1c9e0 <l_219.5064+0x60>
    9403:	00 
    9404:	f2 0f 59 c1          	mulsd  %xmm1,%xmm0
    9408:	f2 0f 10 55 f0       	movsd  -0x10(%rbp),%xmm2
    940d:	f2 0f 10 0d cb 35 01 	movsd  0x135cb(%rip),%xmm1        # 1c9e0 <l_219.5064+0x60>
    9414:	00 
    9415:	f2 0f 59 ca          	mulsd  %xmm2,%xmm1
    9419:	f2 0f 5c c1          	subsd  %xmm1,%xmm0
    941d:	f3 0f 7e 0d cb 35 01 	movq   0x135cb(%rip),%xmm1        # 1c9f0 <l_219.5064+0x70>
    9424:	00 
    9425:	66 0f 54 c1          	andpd  %xmm1,%xmm0
    9429:	66 0f 2f 05 cf 35 01 	comisd 0x135cf(%rip),%xmm0        # 1ca00 <l_219.5064+0x80>
    9430:	00 
    9431:	76 07                	jbe    943a <safe_sub_func_double_f_f+0x55>
    9433:	f2 0f 10 45 f8       	movsd  -0x8(%rbp),%xmm0
    9438:	eb 0a                	jmp    9444 <safe_sub_func_double_f_f+0x5f>
    943a:	f2 0f 10 45 f8       	movsd  -0x8(%rbp),%xmm0
    943f:	f2 0f 5c 45 f0       	subsd  -0x10(%rbp),%xmm0
    9444:	5d                   	pop    %rbp
    9445:	c3                   	retq   

0000000000009446 <safe_mul_func_double_f_f>:
    9446:	f3 0f 1e fa          	endbr64 
    944a:	55                   	push   %rbp
    944b:	48 89 e5             	mov    %rsp,%rbp
    944e:	f2 0f 11 45 f8       	movsd  %xmm0,-0x8(%rbp)
    9453:	f2 0f 11 4d f0       	movsd  %xmm1,-0x10(%rbp)
    9458:	f2 0f 10 4d f8       	movsd  -0x8(%rbp),%xmm1
    945d:	f2 0f 10 05 a3 35 01 	movsd  0x135a3(%rip),%xmm0        # 1ca08 <l_219.5064+0x88>
    9464:	00 
    9465:	f2 0f 59 c8          	mulsd  %xmm0,%xmm1
    9469:	f2 0f 10 55 f0       	movsd  -0x10(%rbp),%xmm2
    946e:	f2 0f 10 05 9a 35 01 	movsd  0x1359a(%rip),%xmm0        # 1ca10 <l_219.5064+0x90>
    9475:	00 
    9476:	f2 0f 59 c2          	mulsd  %xmm2,%xmm0
    947a:	f2 0f 59 c1          	mulsd  %xmm1,%xmm0
    947e:	f3 0f 7e 0d 6a 35 01 	movq   0x1356a(%rip),%xmm1        # 1c9f0 <l_219.5064+0x70>
    9485:	00 
    9486:	66 0f 54 c1          	andpd  %xmm1,%xmm0
    948a:	66 0f 2f 05 86 35 01 	comisd 0x13586(%rip),%xmm0        # 1ca18 <l_219.5064+0x98>
    9491:	00 
    9492:	76 07                	jbe    949b <safe_mul_func_double_f_f+0x55>
    9494:	f2 0f 10 45 f8       	movsd  -0x8(%rbp),%xmm0
    9499:	eb 0a                	jmp    94a5 <safe_mul_func_double_f_f+0x5f>
    949b:	f2 0f 10 45 f8       	movsd  -0x8(%rbp),%xmm0
    94a0:	f2 0f 59 45 f0       	mulsd  -0x10(%rbp),%xmm0
    94a5:	5d                   	pop    %rbp
    94a6:	c3                   	retq   

00000000000094a7 <safe_div_func_double_f_f>:
    94a7:	f3 0f 1e fa          	endbr64 
    94ab:	55                   	push   %rbp
    94ac:	48 89 e5             	mov    %rsp,%rbp
    94af:	f2 0f 11 45 f8       	movsd  %xmm0,-0x8(%rbp)
    94b4:	f2 0f 11 4d f0       	movsd  %xmm1,-0x10(%rbp)
    94b9:	f2 0f 10 45 f0       	movsd  -0x10(%rbp),%xmm0
    94be:	f3 0f 7e 0d 2a 35 01 	movq   0x1352a(%rip),%xmm1        # 1c9f0 <l_219.5064+0x70>
    94c5:	00 
    94c6:	66 0f 54 c8          	andpd  %xmm0,%xmm1
    94ca:	f2 0f 10 05 4e 35 01 	movsd  0x1354e(%rip),%xmm0        # 1ca20 <l_219.5064+0xa0>
    94d1:	00 
    94d2:	66 0f 2f c1          	comisd %xmm1,%xmm0
    94d6:	0f 97 c0             	seta   %al
    94d9:	83 f0 01             	xor    $0x1,%eax
    94dc:	84 c0                	test   %al,%al
    94de:	75 5a                	jne    953a <safe_div_func_double_f_f+0x93>
    94e0:	66 0f ef c0          	pxor   %xmm0,%xmm0
    94e4:	66 0f 2e 45 f0       	ucomisd -0x10(%rbp),%xmm0
    94e9:	7a 0b                	jp     94f6 <safe_div_func_double_f_f+0x4f>
    94eb:	66 0f ef c0          	pxor   %xmm0,%xmm0
    94ef:	66 0f 2e 45 f0       	ucomisd -0x10(%rbp),%xmm0
    94f4:	74 50                	je     9546 <safe_div_func_double_f_f+0x9f>
    94f6:	f2 0f 10 4d f8       	movsd  -0x8(%rbp),%xmm1
    94fb:	f2 0f 10 05 25 35 01 	movsd  0x13525(%rip),%xmm0        # 1ca28 <l_219.5064+0xa8>
    9502:	00 
    9503:	f2 0f 59 c1          	mulsd  %xmm1,%xmm0
    9507:	f2 0f 10 55 f0       	movsd  -0x10(%rbp),%xmm2
    950c:	f2 0f 10 0d 1c 35 01 	movsd  0x1351c(%rip),%xmm1        # 1ca30 <l_219.5064+0xb0>
    9513:	00 
    9514:	f2 0f 59 ca          	mulsd  %xmm2,%xmm1
    9518:	f2 0f 5e c1          	divsd  %xmm1,%xmm0
    951c:	f3 0f 7e 0d cc 34 01 	movq   0x134cc(%rip),%xmm1        # 1c9f0 <l_219.5064+0x70>
    9523:	00 
    9524:	66 0f 54 c1          	andpd  %xmm1,%xmm0
    9528:	66 0f 2f 05 08 35 01 	comisd 0x13508(%rip),%xmm0        # 1ca38 <l_219.5064+0xb8>
    952f:	00 
    9530:	0f 97 c0             	seta   %al
    9533:	83 f0 01             	xor    $0x1,%eax
    9536:	84 c0                	test   %al,%al
    9538:	74 0c                	je     9546 <safe_div_func_double_f_f+0x9f>
    953a:	f2 0f 10 45 f8       	movsd  -0x8(%rbp),%xmm0
    953f:	f2 0f 5e 45 f0       	divsd  -0x10(%rbp),%xmm0
    9544:	eb 05                	jmp    954b <safe_div_func_double_f_f+0xa4>
    9546:	f2 0f 10 45 f8       	movsd  -0x8(%rbp),%xmm0
    954b:	5d                   	pop    %rbp
    954c:	c3                   	retq   

000000000000954d <safe_convert_func_float_to_int32_t>:
    954d:	f3 0f 1e fa          	endbr64 
    9551:	55                   	push   %rbp
    9552:	48 89 e5             	mov    %rsp,%rbp
    9555:	f3 0f 11 45 fc       	movss  %xmm0,-0x4(%rbp)
    955a:	f3 0f 10 05 de 34 01 	movss  0x134de(%rip),%xmm0        # 1ca40 <l_219.5064+0xc0>
    9561:	00 
    9562:	0f 2f 45 fc          	comiss -0x4(%rbp),%xmm0
    9566:	0f 93 c0             	setae  %al
    9569:	83 f0 01             	xor    $0x1,%eax
    956c:	84 c0                	test   %al,%al
    956e:	74 21                	je     9591 <safe_convert_func_float_to_int32_t+0x44>
    9570:	f3 0f 10 45 fc       	movss  -0x4(%rbp),%xmm0
    9575:	0f 2f 05 c8 34 01 00 	comiss 0x134c8(%rip),%xmm0        # 1ca44 <l_219.5064+0xc4>
    957c:	0f 93 c0             	setae  %al
    957f:	83 f0 01             	xor    $0x1,%eax
    9582:	84 c0                	test   %al,%al
    9584:	74 0b                	je     9591 <safe_convert_func_float_to_int32_t+0x44>
    9586:	f3 0f 10 45 fc       	movss  -0x4(%rbp),%xmm0
    958b:	f3 0f 2c c0          	cvttss2si %xmm0,%eax
    958f:	eb 05                	jmp    9596 <safe_convert_func_float_to_int32_t+0x49>
    9591:	b8 ff ff ff 7f       	mov    $0x7fffffff,%eax
    9596:	5d                   	pop    %rbp
    9597:	c3                   	retq   

0000000000009598 <crc32_gentab>:
    9598:	f3 0f 1e fa          	endbr64 
    959c:	55                   	push   %rbp
    959d:	48 89 e5             	mov    %rsp,%rbp
    95a0:	c7 45 fc 20 83 b8 ed 	movl   $0xedb88320,-0x4(%rbp)
    95a7:	c7 45 f4 00 00 00 00 	movl   $0x0,-0xc(%rbp)
    95ae:	eb 51                	jmp    9601 <crc32_gentab+0x69>
    95b0:	8b 45 f4             	mov    -0xc(%rbp),%eax
    95b3:	89 45 f0             	mov    %eax,-0x10(%rbp)
    95b6:	c7 45 f8 08 00 00 00 	movl   $0x8,-0x8(%rbp)
    95bd:	eb 1e                	jmp    95dd <crc32_gentab+0x45>
    95bf:	8b 45 f0             	mov    -0x10(%rbp),%eax
    95c2:	83 e0 01             	and    $0x1,%eax
    95c5:	85 c0                	test   %eax,%eax
    95c7:	74 0d                	je     95d6 <crc32_gentab+0x3e>
    95c9:	8b 45 f0             	mov    -0x10(%rbp),%eax
    95cc:	d1 e8                	shr    %eax
    95ce:	33 45 fc             	xor    -0x4(%rbp),%eax
    95d1:	89 45 f0             	mov    %eax,-0x10(%rbp)
    95d4:	eb 03                	jmp    95d9 <crc32_gentab+0x41>
    95d6:	d1 6d f0             	shrl   -0x10(%rbp)
    95d9:	83 6d f8 01          	subl   $0x1,-0x8(%rbp)
    95dd:	83 7d f8 00          	cmpl   $0x0,-0x8(%rbp)
    95e1:	7f dc                	jg     95bf <crc32_gentab+0x27>
    95e3:	8b 45 f4             	mov    -0xc(%rbp),%eax
    95e6:	48 98                	cltq   
    95e8:	48 8d 0c 85 00 00 00 	lea    0x0(,%rax,4),%rcx
    95ef:	00 
    95f0:	48 8d 15 a9 91 01 00 	lea    0x191a9(%rip),%rdx        # 227a0 <crc32_tab>
    95f7:	8b 45 f0             	mov    -0x10(%rbp),%eax
    95fa:	89 04 11             	mov    %eax,(%rcx,%rdx,1)
    95fd:	83 45 f4 01          	addl   $0x1,-0xc(%rbp)
    9601:	81 7d f4 ff 00 00 00 	cmpl   $0xff,-0xc(%rbp)
    9608:	7e a6                	jle    95b0 <crc32_gentab+0x18>
    960a:	90                   	nop
    960b:	90                   	nop
    960c:	5d                   	pop    %rbp
    960d:	c3                   	retq   

000000000000960e <crc32_byte>:
    960e:	f3 0f 1e fa          	endbr64 
    9612:	55                   	push   %rbp
    9613:	48 89 e5             	mov    %rsp,%rbp
    9616:	89 f8                	mov    %edi,%eax
    9618:	88 45 fc             	mov    %al,-0x4(%rbp)
    961b:	8b 05 ff 59 01 00    	mov    0x159ff(%rip),%eax        # 1f020 <crc32_context>
    9621:	c1 e8 08             	shr    $0x8,%eax
    9624:	89 c1                	mov    %eax,%ecx
    9626:	0f b6 55 fc          	movzbl -0x4(%rbp),%edx
    962a:	8b 05 f0 59 01 00    	mov    0x159f0(%rip),%eax        # 1f020 <crc32_context>
    9630:	31 d0                	xor    %edx,%eax
    9632:	0f b6 c0             	movzbl %al,%eax
    9635:	89 c0                	mov    %eax,%eax
    9637:	48 8d 14 85 00 00 00 	lea    0x0(,%rax,4),%rdx
    963e:	00 
    963f:	48 8d 05 5a 91 01 00 	lea    0x1915a(%rip),%rax        # 227a0 <crc32_tab>
    9646:	8b 04 02             	mov    (%rdx,%rax,1),%eax
    9649:	31 c8                	xor    %ecx,%eax
    964b:	89 05 cf 59 01 00    	mov    %eax,0x159cf(%rip)        # 1f020 <crc32_context>
    9651:	90                   	nop
    9652:	5d                   	pop    %rbp
    9653:	c3                   	retq   

0000000000009654 <crc32_8bytes>:
    9654:	f3 0f 1e fa          	endbr64 
    9658:	55                   	push   %rbp
    9659:	48 89 e5             	mov    %rsp,%rbp
    965c:	48 83 ec 08          	sub    $0x8,%rsp
    9660:	48 89 7d f8          	mov    %rdi,-0x8(%rbp)
    9664:	48 8b 45 f8          	mov    -0x8(%rbp),%rax
    9668:	0f b6 c0             	movzbl %al,%eax
    966b:	89 c7                	mov    %eax,%edi
    966d:	e8 9c ff ff ff       	callq  960e <crc32_byte>
    9672:	48 8b 45 f8          	mov    -0x8(%rbp),%rax
    9676:	48 c1 e8 08          	shr    $0x8,%rax
    967a:	0f b6 c0             	movzbl %al,%eax
    967d:	89 c7                	mov    %eax,%edi
    967f:	e8 8a ff ff ff       	callq  960e <crc32_byte>
    9684:	48 8b 45 f8          	mov    -0x8(%rbp),%rax
    9688:	48 c1 e8 10          	shr    $0x10,%rax
    968c:	0f b6 c0             	movzbl %al,%eax
    968f:	89 c7                	mov    %eax,%edi
    9691:	e8 78 ff ff ff       	callq  960e <crc32_byte>
    9696:	48 8b 45 f8          	mov    -0x8(%rbp),%rax
    969a:	48 c1 e8 18          	shr    $0x18,%rax
    969e:	0f b6 c0             	movzbl %al,%eax
    96a1:	89 c7                	mov    %eax,%edi
    96a3:	e8 66 ff ff ff       	callq  960e <crc32_byte>
    96a8:	48 8b 45 f8          	mov    -0x8(%rbp),%rax
    96ac:	48 c1 e8 20          	shr    $0x20,%rax
    96b0:	0f b6 c0             	movzbl %al,%eax
    96b3:	89 c7                	mov    %eax,%edi
    96b5:	e8 54 ff ff ff       	callq  960e <crc32_byte>
    96ba:	48 8b 45 f8          	mov    -0x8(%rbp),%rax
    96be:	48 c1 e8 28          	shr    $0x28,%rax
    96c2:	0f b6 c0             	movzbl %al,%eax
    96c5:	89 c7                	mov    %eax,%edi
    96c7:	e8 42 ff ff ff       	callq  960e <crc32_byte>
    96cc:	48 8b 45 f8          	mov    -0x8(%rbp),%rax
    96d0:	48 c1 e8 30          	shr    $0x30,%rax
    96d4:	0f b6 c0             	movzbl %al,%eax
    96d7:	89 c7                	mov    %eax,%edi
    96d9:	e8 30 ff ff ff       	callq  960e <crc32_byte>
    96de:	48 8b 45 f8          	mov    -0x8(%rbp),%rax
    96e2:	48 c1 e8 38          	shr    $0x38,%rax
    96e6:	0f b6 c0             	movzbl %al,%eax
    96e9:	89 c7                	mov    %eax,%edi
    96eb:	e8 1e ff ff ff       	callq  960e <crc32_byte>
    96f0:	90                   	nop
    96f1:	c9                   	leaveq 
    96f2:	c3                   	retq   

00000000000096f3 <transparent_crc>:
    96f3:	f3 0f 1e fa          	endbr64 
    96f7:	55                   	push   %rbp
    96f8:	48 89 e5             	mov    %rsp,%rbp
    96fb:	48 83 ec 20          	sub    $0x20,%rsp
    96ff:	48 89 7d f8          	mov    %rdi,-0x8(%rbp)
    9703:	48 89 75 f0          	mov    %rsi,-0x10(%rbp)
    9707:	89 55 ec             	mov    %edx,-0x14(%rbp)
    970a:	48 8b 45 f8          	mov    -0x8(%rbp),%rax
    970e:	48 89 c7             	mov    %rax,%rdi
    9711:	e8 3e ff ff ff       	callq  9654 <crc32_8bytes>
    9716:	83 7d ec 00          	cmpl   $0x0,-0x14(%rbp)
    971a:	74 22                	je     973e <transparent_crc+0x4b>
    971c:	8b 05 fe 58 01 00    	mov    0x158fe(%rip),%eax        # 1f020 <crc32_context>
    9722:	f7 d0                	not    %eax
    9724:	89 c2                	mov    %eax,%edx
    9726:	48 8b 45 f0          	mov    -0x10(%rbp),%rax
    972a:	48 89 c6             	mov    %rax,%rsi
    972d:	48 8d 3d fc 08 01 00 	lea    0x108fc(%rip),%rdi        # 1a030 <_IO_stdin_used+0x30>
    9734:	b8 00 00 00 00       	mov    $0x0,%eax
    9739:	e8 42 e9 ff ff       	callq  8080 <printf@plt>
    973e:	90                   	nop
    973f:	c9                   	leaveq 
    9740:	c3                   	retq   

0000000000009741 <transparent_crc_bytes>:
    9741:	f3 0f 1e fa          	endbr64 
    9745:	55                   	push   %rbp
    9746:	48 89 e5             	mov    %rsp,%rbp
    9749:	48 83 ec 30          	sub    $0x30,%rsp
    974d:	48 89 7d e8          	mov    %rdi,-0x18(%rbp)
    9751:	89 75 e4             	mov    %esi,-0x1c(%rbp)
    9754:	48 89 55 d8          	mov    %rdx,-0x28(%rbp)
    9758:	89 4d e0             	mov    %ecx,-0x20(%rbp)
    975b:	c7 45 fc 00 00 00 00 	movl   $0x0,-0x4(%rbp)
    9762:	eb 1e                	jmp    9782 <transparent_crc_bytes+0x41>
    9764:	8b 45 fc             	mov    -0x4(%rbp),%eax
    9767:	48 63 d0             	movslq %eax,%rdx
    976a:	48 8b 45 e8          	mov    -0x18(%rbp),%rax
    976e:	48 01 d0             	add    %rdx,%rax
    9771:	0f b6 00             	movzbl (%rax),%eax
    9774:	0f b6 c0             	movzbl %al,%eax
    9777:	89 c7                	mov    %eax,%edi
    9779:	e8 90 fe ff ff       	callq  960e <crc32_byte>
    977e:	83 45 fc 01          	addl   $0x1,-0x4(%rbp)
    9782:	8b 45 fc             	mov    -0x4(%rbp),%eax
    9785:	3b 45 e4             	cmp    -0x1c(%rbp),%eax
    9788:	7c da                	jl     9764 <transparent_crc_bytes+0x23>
    978a:	83 7d e0 00          	cmpl   $0x0,-0x20(%rbp)
    978e:	74 22                	je     97b2 <transparent_crc_bytes+0x71>
    9790:	8b 05 8a 58 01 00    	mov    0x1588a(%rip),%eax        # 1f020 <crc32_context>
    9796:	f7 d0                	not    %eax
    9798:	89 c2                	mov    %eax,%edx
    979a:	48 8b 45 d8          	mov    -0x28(%rbp),%rax
    979e:	48 89 c6             	mov    %rax,%rsi
    97a1:	48 8d 3d 88 08 01 00 	lea    0x10888(%rip),%rdi        # 1a030 <_IO_stdin_used+0x30>
    97a8:	b8 00 00 00 00       	mov    $0x0,%eax
    97ad:	e8 ce e8 ff ff       	callq  8080 <printf@plt>
    97b2:	90                   	nop
    97b3:	c9                   	leaveq 
    97b4:	c3                   	retq   

00000000000097b5 <func_1>:
    97b5:	f3 0f 1e fa          	endbr64 
    97b9:	55                   	push   %rbp
    97ba:	48 89 e5             	mov    %rsp,%rbp
    97bd:	41 57                	push   %r15
    97bf:	41 56                	push   %r14
    97c1:	41 55                	push   %r13
    97c3:	41 54                	push   %r12
    97c5:	53                   	push   %rbx
    97c6:	48 83 ec 78          	sub    $0x78,%rsp
    97ca:	48 89 bd 68 ff ff ff 	mov    %rdi,-0x98(%rbp)
    97d1:	64 48 8b 04 25 28 00 	mov    %fs:0x28,%rax
    97d8:	00 00 
    97da:	48 89 45 c8          	mov    %rax,-0x38(%rbp)
    97de:	31 c0                	xor    %eax,%eax
    97e0:	c7 85 74 ff ff ff 01 	movl   $0x1,-0x8c(%rbp)
    97e7:	00 00 00 
    97ea:	48 8d 05 7f 5b 01 00 	lea    0x15b7f(%rip),%rax        # 1f370 <g_1191+0x10>
    97f1:	48 89 85 78 ff ff ff 	mov    %rax,-0x88(%rbp)
    97f8:	c7 85 70 ff ff ff 00 	movl   $0x0,-0x90(%rbp)
    97ff:	00 00 00 
    9802:	eb 1b                	jmp    981f <func_1+0x6a>
    9804:	8b 85 70 ff ff ff    	mov    -0x90(%rbp),%eax
    980a:	48 98                	cltq   
    980c:	48 8d 15 b7 5f 01 00 	lea    0x15fb7(%rip),%rdx        # 1f7ca <g_2216+0x2>
    9813:	48 89 54 c5 a0       	mov    %rdx,-0x60(%rbp,%rax,8)
    9818:	83 85 70 ff ff ff 01 	addl   $0x1,-0x90(%rbp)
    981f:	83 bd 70 ff ff ff 03 	cmpl   $0x3,-0x90(%rbp)
    9826:	7e dc                	jle    9804 <func_1+0x4f>
    9828:	c7 85 70 ff ff ff 00 	movl   $0x0,-0x90(%rbp)
    982f:	00 00 00 
    9832:	eb 17                	jmp    984b <func_1+0x96>
    9834:	8b 85 70 ff ff ff    	mov    -0x90(%rbp),%eax
    983a:	48 98                	cltq   
    983c:	c7 44 85 80 e5 e8 f8 	movl   $0x4bf8e8e5,-0x80(%rbp,%rax,4)
    9843:	4b 
    9844:	83 85 70 ff ff ff 01 	addl   $0x1,-0x90(%rbp)
    984b:	83 bd 70 ff ff ff 06 	cmpl   $0x6,-0x90(%rbp)
    9852:	7e e0                	jle    9834 <func_1+0x7f>
    9854:	0f b6 05 66 5b 01 00 	movzbl 0x15b66(%rip),%eax        # 1f3c1 <g_1339+0x1>
    985b:	44 0f b6 f8          	movzbl %al,%r15d
    985f:	0f b7 05 c8 5e 01 00 	movzwl 0x15ec8(%rip),%eax        # 1f72e <g_1741+0xe>
    9866:	44 0f be e0          	movsbl %al,%r12d
    986a:	8b 85 74 ff ff ff    	mov    -0x8c(%rbp),%eax
    9870:	0f b7 d8             	movzwl %ax,%ebx
    9873:	44 8b ad 74 ff ff ff 	mov    -0x8c(%rbp),%r13d
    987a:	0f b6 05 70 5c 01 00 	movzbl 0x15c70(%rip),%eax        # 1f4f1 <g_1585+0x1>
    9881:	44 0f b6 f0          	movzbl %al,%r14d
    9885:	48 8b 55 b0          	mov    -0x50(%rbp),%rdx
    9889:	48 8b 05 30 93 01 00 	mov    0x19330(%rip),%rax        # 22bc0 <g_814>
    9890:	48 39 c2             	cmp    %rax,%rdx
    9893:	0f 94 c0             	sete   %al
    9896:	0f b6 c0             	movzbl %al,%eax
    9899:	be 04 00 00 00       	mov    $0x4,%esi
    989e:	89 c7                	mov    %eax,%edi
    98a0:	e8 3c ec ff ff       	callq  84e1 <safe_lshift_func_int16_t_s_u>
    98a5:	0f bf d0             	movswl %ax,%edx
    98a8:	b9 fc ff ff ff       	mov    $0xfffffffc,%ecx
    98ad:	8b 85 74 ff ff ff    	mov    -0x8c(%rbp),%eax
    98b3:	39 c1                	cmp    %eax,%ecx
    98b5:	0f 92 c0             	setb   %al
    98b8:	0f b6 c0             	movzbl %al,%eax
    98bb:	31 d0                	xor    %edx,%eax
    98bd:	48 98                	cltq   
    98bf:	4c 89 f6             	mov    %r14,%rsi
    98c2:	48 89 c7             	mov    %rax,%rdi
    98c5:	e8 de ef ff ff       	callq  88a8 <safe_sub_func_int64_t_s_s>
    98ca:	0f b6 c0             	movzbl %al,%eax
    98cd:	44 89 ee             	mov    %r13d,%esi
    98d0:	89 c7                	mov    %eax,%edi
    98d2:	e8 75 f3 ff ff       	callq  8c4c <safe_lshift_func_uint8_t_u_u>
    98d7:	0f b6 c0             	movzbl %al,%eax
    98da:	89 de                	mov    %ebx,%esi
    98dc:	89 c7                	mov    %eax,%edi
    98de:	e8 79 f4 ff ff       	callq  8d5c <safe_mod_func_uint16_t_u_u>
    98e3:	0f b7 c0             	movzwl %ax,%eax
    98e6:	0b 85 74 ff ff ff    	or     -0x8c(%rbp),%eax
    98ec:	48 63 d0             	movslq %eax,%rdx
    98ef:	48 8b 85 78 ff ff ff 	mov    -0x88(%rbp),%rax
    98f6:	48 89 10             	mov    %rdx,(%rax)
    98f9:	48 8b 85 78 ff ff ff 	mov    -0x88(%rbp),%rax
    9900:	48 8b 18             	mov    (%rax),%rbx
    9903:	8b 05 1f 57 01 00    	mov    0x1571f(%rip),%eax        # 1f028 <g_5>
    9909:	89 c1                	mov    %eax,%ecx
    990b:	8b 05 17 57 01 00    	mov    0x15717(%rip),%eax        # 1f028 <g_5>
    9911:	0f b7 c0             	movzwl %ax,%eax
    9914:	8b 95 74 ff ff ff    	mov    -0x8c(%rbp),%edx
    991a:	89 ce                	mov    %ecx,%esi
    991c:	89 c7                	mov    %eax,%edi
    991e:	e8 79 26 00 00       	callq  bf9c <func_12>
    9923:	89 c7                	mov    %eax,%edi
    9925:	8b 85 74 ff ff ff    	mov    -0x8c(%rbp),%eax
    992b:	4d 89 f8             	mov    %r15,%r8
    992e:	44 89 e1             	mov    %r12d,%ecx
    9931:	89 c2                	mov    %eax,%edx
    9933:	48 89 de             	mov    %rbx,%rsi
    9936:	e8 83 0c 00 00       	callq  a5be <func_6>
    993b:	98                   	cwtl   
    993c:	8b 15 e6 56 01 00    	mov    0x156e6(%rip),%edx        # 1f028 <g_5>
    9942:	89 c6                	mov    %eax,%esi
    9944:	89 d7                	mov    %edx,%edi
    9946:	e8 56 00 00 00       	callq  99a1 <func_2>
    994b:	8b 55 80             	mov    -0x80(%rbp),%edx
    994e:	21 d0                	and    %edx,%eax
    9950:	89 45 80             	mov    %eax,-0x80(%rbp)
    9953:	48 8b 35 6e 7b 01 00 	mov    0x17b6e(%rip),%rsi        # 214c8 <g_309>
    995a:	48 8b 8d 68 ff ff ff 	mov    -0x98(%rbp),%rcx
    9961:	48 8b 06             	mov    (%rsi),%rax
    9964:	48 8b 56 08          	mov    0x8(%rsi),%rdx
    9968:	48 89 01             	mov    %rax,(%rcx)
    996b:	48 89 51 08          	mov    %rdx,0x8(%rcx)
    996f:	48 8b 46 10          	mov    0x10(%rsi),%rax
    9973:	48 89 41 10          	mov    %rax,0x10(%rcx)
    9977:	48 8b 45 c8          	mov    -0x38(%rbp),%rax
    997b:	64 48 33 04 25 28 00 	xor    %fs:0x28,%rax
    9982:	00 00 
    9984:	74 05                	je     998b <func_1+0x1d6>
    9986:	e8 e5 e6 ff ff       	callq  8070 <__stack_chk_fail@plt>
    998b:	48 8b 85 68 ff ff ff 	mov    -0x98(%rbp),%rax
    9992:	48 83 c4 78          	add    $0x78,%rsp
    9996:	5b                   	pop    %rbx
    9997:	41 5c                	pop    %r12
    9999:	41 5d                	pop    %r13
    999b:	41 5e                	pop    %r14
    999d:	41 5f                	pop    %r15
    999f:	5d                   	pop    %rbp
    99a0:	c3                   	retq   

00000000000099a1 <func_2>:
    99a1:	f3 0f 1e fa          	endbr64 
    99a5:	55                   	push   %rbp
    99a6:	48 89 e5             	mov    %rsp,%rbp
    99a9:	41 55                	push   %r13
    99ab:	41 54                	push   %r12
    99ad:	53                   	push   %rbx
    99ae:	48 81 ec 78 04 00 00 	sub    $0x478,%rsp
    99b5:	89 bd 7c fb ff ff    	mov    %edi,-0x484(%rbp)
    99bb:	89 f0                	mov    %esi,%eax
    99bd:	66 89 85 78 fb ff ff 	mov    %ax,-0x488(%rbp)
    99c4:	64 48 8b 04 25 28 00 	mov    %fs:0x28,%rax
    99cb:	00 00 
    99cd:	48 89 45 d8          	mov    %rax,-0x28(%rbp)
    99d1:	31 c0                	xor    %eax,%eax
    99d3:	48 8d 05 f6 5d 01 00 	lea    0x15df6(%rip),%rax        # 1f7d0 <g_2257>
    99da:	48 89 85 e8 fb ff ff 	mov    %rax,-0x418(%rbp)
    99e1:	48 8d 85 e8 fb ff ff 	lea    -0x418(%rbp),%rax
    99e8:	48 89 85 f0 fb ff ff 	mov    %rax,-0x410(%rbp)
    99ef:	48 8d 85 f0 fb ff ff 	lea    -0x410(%rbp),%rax
    99f6:	48 89 85 f8 fb ff ff 	mov    %rax,-0x408(%rbp)
    99fd:	48 c7 85 10 fe ff ff 	movq   $0x0,-0x1f0(%rbp)
    9a04:	00 00 00 00 
    9a08:	48 c7 85 18 fe ff ff 	movq   $0x0,-0x1e8(%rbp)
    9a0f:	00 00 00 00 
    9a13:	48 8d 85 f8 fb ff ff 	lea    -0x408(%rbp),%rax
    9a1a:	48 89 85 20 fe ff ff 	mov    %rax,-0x1e0(%rbp)
    9a21:	48 8d 85 f8 fb ff ff 	lea    -0x408(%rbp),%rax
    9a28:	48 89 85 28 fe ff ff 	mov    %rax,-0x1d8(%rbp)
    9a2f:	48 8d 85 f8 fb ff ff 	lea    -0x408(%rbp),%rax
    9a36:	48 89 85 30 fe ff ff 	mov    %rax,-0x1d0(%rbp)
    9a3d:	48 c7 85 38 fe ff ff 	movq   $0x0,-0x1c8(%rbp)
    9a44:	00 00 00 00 
    9a48:	48 8d 85 f8 fb ff ff 	lea    -0x408(%rbp),%rax
    9a4f:	48 89 85 40 fe ff ff 	mov    %rax,-0x1c0(%rbp)
    9a56:	48 c7 85 48 fe ff ff 	movq   $0x0,-0x1b8(%rbp)
    9a5d:	00 00 00 00 
    9a61:	48 8d 85 f8 fb ff ff 	lea    -0x408(%rbp),%rax
    9a68:	48 89 85 50 fe ff ff 	mov    %rax,-0x1b0(%rbp)
    9a6f:	48 8d 85 f8 fb ff ff 	lea    -0x408(%rbp),%rax
    9a76:	48 89 85 58 fe ff ff 	mov    %rax,-0x1a8(%rbp)
    9a7d:	48 c7 85 60 fe ff ff 	movq   $0x0,-0x1a0(%rbp)
    9a84:	00 00 00 00 
    9a88:	48 8d 85 f8 fb ff ff 	lea    -0x408(%rbp),%rax
    9a8f:	48 89 85 68 fe ff ff 	mov    %rax,-0x198(%rbp)
    9a96:	48 c7 85 70 fe ff ff 	movq   $0x0,-0x190(%rbp)
    9a9d:	00 00 00 00 
    9aa1:	48 8d 85 f8 fb ff ff 	lea    -0x408(%rbp),%rax
    9aa8:	48 89 85 78 fe ff ff 	mov    %rax,-0x188(%rbp)
    9aaf:	48 8d 85 f8 fb ff ff 	lea    -0x408(%rbp),%rax
    9ab6:	48 89 85 80 fe ff ff 	mov    %rax,-0x180(%rbp)
    9abd:	48 8d 85 f8 fb ff ff 	lea    -0x408(%rbp),%rax
    9ac4:	48 89 85 88 fe ff ff 	mov    %rax,-0x178(%rbp)
    9acb:	48 c7 85 90 fe ff ff 	movq   $0x0,-0x170(%rbp)
    9ad2:	00 00 00 00 
    9ad6:	48 c7 85 98 fe ff ff 	movq   $0x0,-0x168(%rbp)
    9add:	00 00 00 00 
    9ae1:	48 8d 85 f8 fb ff ff 	lea    -0x408(%rbp),%rax
    9ae8:	48 89 85 a0 fe ff ff 	mov    %rax,-0x160(%rbp)
    9aef:	48 8d 85 f8 fb ff ff 	lea    -0x408(%rbp),%rax
    9af6:	48 89 85 a8 fe ff ff 	mov    %rax,-0x158(%rbp)
    9afd:	48 8d 85 f8 fb ff ff 	lea    -0x408(%rbp),%rax
    9b04:	48 89 85 b0 fe ff ff 	mov    %rax,-0x150(%rbp)
    9b0b:	48 8d 85 f8 fb ff ff 	lea    -0x408(%rbp),%rax
    9b12:	48 89 85 b8 fe ff ff 	mov    %rax,-0x148(%rbp)
    9b19:	48 c7 85 c0 fe ff ff 	movq   $0x0,-0x140(%rbp)
    9b20:	00 00 00 00 
    9b24:	48 8d 85 f8 fb ff ff 	lea    -0x408(%rbp),%rax
    9b2b:	48 89 85 c8 fe ff ff 	mov    %rax,-0x138(%rbp)
    9b32:	48 8d 85 f8 fb ff ff 	lea    -0x408(%rbp),%rax
    9b39:	48 89 85 d0 fe ff ff 	mov    %rax,-0x130(%rbp)
    9b40:	48 c7 85 d8 fe ff ff 	movq   $0x0,-0x128(%rbp)
    9b47:	00 00 00 00 
    9b4b:	48 8d 85 f8 fb ff ff 	lea    -0x408(%rbp),%rax
    9b52:	48 89 85 e0 fe ff ff 	mov    %rax,-0x120(%rbp)
    9b59:	48 8d 85 f8 fb ff ff 	lea    -0x408(%rbp),%rax
    9b60:	48 89 85 e8 fe ff ff 	mov    %rax,-0x118(%rbp)
    9b67:	48 8d 85 f8 fb ff ff 	lea    -0x408(%rbp),%rax
    9b6e:	48 89 85 f0 fe ff ff 	mov    %rax,-0x110(%rbp)
    9b75:	48 8d 85 f8 fb ff ff 	lea    -0x408(%rbp),%rax
    9b7c:	48 89 85 f8 fe ff ff 	mov    %rax,-0x108(%rbp)
    9b83:	48 c7 85 00 ff ff ff 	movq   $0x0,-0x100(%rbp)
    9b8a:	00 00 00 00 
    9b8e:	48 c7 85 08 ff ff ff 	movq   $0x0,-0xf8(%rbp)
    9b95:	00 00 00 00 
    9b99:	48 8d 85 f8 fb ff ff 	lea    -0x408(%rbp),%rax
    9ba0:	48 89 85 10 ff ff ff 	mov    %rax,-0xf0(%rbp)
    9ba7:	48 8d 85 f8 fb ff ff 	lea    -0x408(%rbp),%rax
    9bae:	48 89 85 18 ff ff ff 	mov    %rax,-0xe8(%rbp)
    9bb5:	48 8d 85 f8 fb ff ff 	lea    -0x408(%rbp),%rax
    9bbc:	48 89 85 20 ff ff ff 	mov    %rax,-0xe0(%rbp)
    9bc3:	48 c7 85 28 ff ff ff 	movq   $0x0,-0xd8(%rbp)
    9bca:	00 00 00 00 
    9bce:	48 8d 85 f8 fb ff ff 	lea    -0x408(%rbp),%rax
    9bd5:	48 89 85 30 ff ff ff 	mov    %rax,-0xd0(%rbp)
    9bdc:	48 c7 85 38 ff ff ff 	movq   $0x0,-0xc8(%rbp)
    9be3:	00 00 00 00 
    9be7:	48 8d 85 f8 fb ff ff 	lea    -0x408(%rbp),%rax
    9bee:	48 89 85 40 ff ff ff 	mov    %rax,-0xc0(%rbp)
    9bf5:	48 8d 85 f8 fb ff ff 	lea    -0x408(%rbp),%rax
    9bfc:	48 89 85 48 ff ff ff 	mov    %rax,-0xb8(%rbp)
    9c03:	48 c7 85 50 ff ff ff 	movq   $0x0,-0xb0(%rbp)
    9c0a:	00 00 00 00 
    9c0e:	48 8d 85 f8 fb ff ff 	lea    -0x408(%rbp),%rax
    9c15:	48 89 85 58 ff ff ff 	mov    %rax,-0xa8(%rbp)
    9c1c:	48 c7 85 60 ff ff ff 	movq   $0x0,-0xa0(%rbp)
    9c23:	00 00 00 00 
    9c27:	48 8d 85 f8 fb ff ff 	lea    -0x408(%rbp),%rax
    9c2e:	48 89 85 68 ff ff ff 	mov    %rax,-0x98(%rbp)
    9c35:	48 8d 85 f8 fb ff ff 	lea    -0x408(%rbp),%rax
    9c3c:	48 89 85 70 ff ff ff 	mov    %rax,-0x90(%rbp)
    9c43:	48 8d 85 f8 fb ff ff 	lea    -0x408(%rbp),%rax
    9c4a:	48 89 85 78 ff ff ff 	mov    %rax,-0x88(%rbp)
    9c51:	48 c7 45 80 00 00 00 	movq   $0x0,-0x80(%rbp)
    9c58:	00 
    9c59:	48 c7 45 88 00 00 00 	movq   $0x0,-0x78(%rbp)
    9c60:	00 
    9c61:	48 8d 85 f8 fb ff ff 	lea    -0x408(%rbp),%rax
    9c68:	48 89 45 90          	mov    %rax,-0x70(%rbp)
    9c6c:	48 8d 85 f8 fb ff ff 	lea    -0x408(%rbp),%rax
    9c73:	48 89 45 98          	mov    %rax,-0x68(%rbp)
    9c77:	48 8d 85 f8 fb ff ff 	lea    -0x408(%rbp),%rax
    9c7e:	48 89 45 a0          	mov    %rax,-0x60(%rbp)
    9c82:	48 8d 85 f8 fb ff ff 	lea    -0x408(%rbp),%rax
    9c89:	48 89 45 a8          	mov    %rax,-0x58(%rbp)
    9c8d:	48 c7 45 b0 00 00 00 	movq   $0x0,-0x50(%rbp)
    9c94:	00 
    9c95:	48 8d 85 f8 fb ff ff 	lea    -0x408(%rbp),%rax
    9c9c:	48 89 45 b8          	mov    %rax,-0x48(%rbp)
    9ca0:	48 8d 05 41 80 01 00 	lea    0x18041(%rip),%rax        # 21ce8 <g_986>
    9ca7:	48 89 85 00 fc ff ff 	mov    %rax,-0x400(%rbp)
    9cae:	48 8d 85 00 fc ff ff 	lea    -0x400(%rbp),%rax
    9cb5:	48 89 85 18 fc ff ff 	mov    %rax,-0x3e8(%rbp)
    9cbc:	c7 85 98 fb ff ff fd 	movl   $0xfffffffd,-0x468(%rbp)
    9cc3:	ff ff ff 
    9cc6:	48 c7 85 60 fc ff ff 	movq   $0x0,-0x3a0(%rbp)
    9ccd:	00 00 00 00 
    9cd1:	48 c7 85 68 fc ff ff 	movq   $0x0,-0x398(%rbp)
    9cd8:	00 00 00 00 
    9cdc:	48 c7 85 70 fc ff ff 	movq   $0x0,-0x390(%rbp)
    9ce3:	00 00 00 00 
    9ce7:	c7 85 78 fc ff ff 00 	movl   $0x0,-0x388(%rbp)
    9cee:	00 00 00 
    9cf1:	c7 85 9c fb ff ff 00 	movl   $0x0,-0x464(%rbp)
    9cf8:	00 00 00 
    9cfb:	48 c7 85 80 fc ff ff 	movq   $0x0,-0x380(%rbp)
    9d02:	00 00 00 00 
    9d06:	48 c7 85 88 fc ff ff 	movq   $0x0,-0x378(%rbp)
    9d0d:	00 00 00 00 
    9d11:	48 c7 85 90 fc ff ff 	movq   $0x0,-0x370(%rbp)
    9d18:	00 00 00 00 
    9d1c:	48 c7 85 98 fc ff ff 	movq   $0x0,-0x368(%rbp)
    9d23:	00 00 00 00 
    9d27:	66 c7 85 80 fc ff ff 	movw   $0x54d7,-0x380(%rbp)
    9d2e:	d7 54 
    9d30:	66 c7 85 88 fc ff ff 	movw   $0x54d7,-0x378(%rbp)
    9d37:	d7 54 
    9d39:	66 c7 85 90 fc ff ff 	movw   $0x54d7,-0x370(%rbp)
    9d40:	d7 54 
    9d42:	66 c7 85 98 fc ff ff 	movw   $0x54d7,-0x368(%rbp)
    9d49:	d7 54 
    9d4b:	48 8d 05 3e 7f 01 00 	lea    0x17f3e(%rip),%rax        # 21c90 <g_980>
    9d52:	48 89 85 20 fc ff ff 	mov    %rax,-0x3e0(%rbp)
    9d59:	48 8d 05 71 57 01 00 	lea    0x15771(%rip),%rax        # 1f4d1 <g_1577+0x31>
    9d60:	48 89 85 28 fc ff ff 	mov    %rax,-0x3d8(%rbp)
    9d67:	48 c7 85 30 fc ff ff 	movq   $0x0,-0x3d0(%rbp)
    9d6e:	00 00 00 00 
    9d72:	48 8d 05 3b 54 01 00 	lea    0x1543b(%rip),%rax        # 1f1b4 <g_291>
    9d79:	48 89 85 38 fc ff ff 	mov    %rax,-0x3c8(%rbp)
    9d80:	48 8d 05 f1 53 01 00 	lea    0x153f1(%rip),%rax        # 1f178 <g_183+0xb8>
    9d87:	48 89 85 40 fc ff ff 	mov    %rax,-0x3c0(%rbp)
    9d8e:	48 c7 85 d0 fc ff ff 	movq   $0x0,-0x330(%rbp)
    9d95:	00 00 00 00 
    9d99:	48 8d 05 9c 52 01 00 	lea    0x1529c(%rip),%rax        # 1f03c <g_62+0x4>
    9da0:	48 89 85 d8 fc ff ff 	mov    %rax,-0x328(%rbp)
    9da7:	48 c7 85 e0 fc ff ff 	movq   $0x0,-0x320(%rbp)
    9dae:	00 00 00 00 
    9db2:	48 c7 85 e8 fc ff ff 	movq   $0x0,-0x318(%rbp)
    9db9:	00 00 00 00 
    9dbd:	48 8d 05 78 52 01 00 	lea    0x15278(%rip),%rax        # 1f03c <g_62+0x4>
    9dc4:	48 89 85 f0 fc ff ff 	mov    %rax,-0x310(%rbp)
    9dcb:	48 c7 85 f8 fc ff ff 	movq   $0x0,-0x308(%rbp)
    9dd2:	00 00 00 00 
    9dd6:	48 c7 85 00 fd ff ff 	movq   $0x0,-0x300(%rbp)
    9ddd:	00 00 00 00 
    9de1:	48 8d 05 54 52 01 00 	lea    0x15254(%rip),%rax        # 1f03c <g_62+0x4>
    9de8:	48 89 85 08 fd ff ff 	mov    %rax,-0x2f8(%rbp)
    9def:	48 c7 85 10 fd ff ff 	movq   $0x0,-0x2f0(%rbp)
    9df6:	00 00 00 00 
    9dfa:	48 c7 85 18 fd ff ff 	movq   $0x0,-0x2e8(%rbp)
    9e01:	00 00 00 00 
    9e05:	48 8d 05 30 52 01 00 	lea    0x15230(%rip),%rax        # 1f03c <g_62+0x4>
    9e0c:	48 89 85 20 fd ff ff 	mov    %rax,-0x2e0(%rbp)
    9e13:	48 c7 85 28 fd ff ff 	movq   $0x0,-0x2d8(%rbp)
    9e1a:	00 00 00 00 
    9e1e:	66 c7 85 8a fb ff ff 	movw   $0x0,-0x476(%rbp)
    9e25:	00 00 
    9e27:	48 c7 05 e6 88 01 00 	movq   $0x0,0x188e6(%rip)        # 22718 <g_2304+0xd8>
    9e2e:	00 00 00 00 
    9e32:	8b 85 78 fc ff ff    	mov    -0x388(%rbp),%eax
    9e38:	0f b7 d8             	movzwl %ax,%ebx
    9e3b:	8b 85 74 fc ff ff    	mov    -0x38c(%rbp),%eax
    9e41:	0f b6 d0             	movzbl %al,%edx
    9e44:	48 83 bd 20 fc ff ff 	cmpq   $0x0,-0x3e0(%rbp)
    9e4b:	00 
    9e4c:	0f 95 c0             	setne  %al
    9e4f:	0f b6 c0             	movzbl %al,%eax
    9e52:	89 d6                	mov    %edx,%esi
    9e54:	89 c7                	mov    %eax,%edi
    9e56:	e8 ff ec ff ff       	callq  8b5a <safe_add_func_uint8_t_u_u>
    9e5b:	0f b6 d0             	movzbl %al,%edx
    9e5e:	0f bf 85 78 fb ff ff 	movswl -0x488(%rbp),%eax
    9e65:	39 c2                	cmp    %eax,%edx
    9e67:	48 8d 85 00 fc ff ff 	lea    -0x400(%rbp),%rax
    9e6e:	48 39 85 18 fc ff ff 	cmp    %rax,-0x3e8(%rbp)
    9e75:	0f 95 c0             	setne  %al
    9e78:	0f b6 c0             	movzbl %al,%eax
    9e7b:	89 de                	mov    %ebx,%esi
    9e7d:	89 c7                	mov    %eax,%edi
    9e7f:	e8 7b ee ff ff       	callq  8cff <safe_add_func_uint16_t_u_u>
    9e84:	0f b7 d0             	movzwl %ax,%edx
    9e87:	0f bf 85 78 fb ff ff 	movswl -0x488(%rbp),%eax
    9e8e:	39 c2                	cmp    %eax,%edx
    9e90:	0f 9c c0             	setl   %al
    9e93:	0f b6 c0             	movzbl %al,%eax
    9e96:	8b 95 7c fb ff ff    	mov    -0x484(%rbp),%edx
    9e9c:	89 d6                	mov    %edx,%esi
    9e9e:	89 c7                	mov    %eax,%edi
    9ea0:	e8 49 e4 ff ff       	callq  82ee <safe_lshift_func_int8_t_s_u>
    9ea5:	48 8b 05 e4 7d 01 00 	mov    0x17de4(%rip),%rax        # 21c90 <g_980>
    9eac:	0f b7 00             	movzwl (%rax),%eax
    9eaf:	0f b7 c0             	movzwl %ax,%eax
    9eb2:	be 19 2e 00 00       	mov    $0x2e19,%esi
    9eb7:	89 c7                	mov    %eax,%edi
    9eb9:	e8 7f ee ff ff       	callq  8d3d <safe_mul_func_uint16_t_u_u>
    9ebe:	0f b7 c0             	movzwl %ax,%eax
    9ec1:	be 00 00 00 00       	mov    $0x0,%esi
    9ec6:	89 c7                	mov    %eax,%edi
    9ec8:	e8 39 ef ff ff       	callq  8e06 <safe_lshift_func_uint16_t_u_u>
    9ecd:	89 c2                	mov    %eax,%edx
    9ecf:	48 8b 85 28 fc ff ff 	mov    -0x3d8(%rbp),%rax
    9ed6:	0f b6 00             	movzbl (%rax),%eax
    9ed9:	31 c2                	xor    %eax,%edx
    9edb:	48 8b 85 28 fc ff ff 	mov    -0x3d8(%rbp),%rax
    9ee2:	88 10                	mov    %dl,(%rax)
    9ee4:	48 8b 85 28 fc ff ff 	mov    -0x3d8(%rbp),%rax
    9eeb:	0f b6 00             	movzbl (%rax),%eax
    9eee:	0f b6 c0             	movzbl %al,%eax
    9ef1:	be 01 00 00 00       	mov    $0x1,%esi
    9ef6:	89 c7                	mov    %eax,%edi
    9ef8:	e8 c1 ed ff ff       	callq  8cbe <safe_rshift_func_uint8_t_u_u>
    9efd:	89 c2                	mov    %eax,%edx
    9eff:	48 8b 85 18 fc ff ff 	mov    -0x3e8(%rbp),%rax
    9f06:	48 8b 00             	mov    (%rax),%rax
    9f09:	48 8b 00             	mov    (%rax),%rax
    9f0c:	0f b6 d2             	movzbl %dl,%edx
    9f0f:	66 89 10             	mov    %dx,(%rax)
    9f12:	0f b7 10             	movzwl (%rax),%edx
    9f15:	48 8b 85 38 fc ff ff 	mov    -0x3c8(%rbp),%rax
    9f1c:	66 89 10             	mov    %dx,(%rax)
    9f1f:	48 8b 85 38 fc ff ff 	mov    -0x3c8(%rbp),%rax
    9f26:	0f b7 00             	movzwl (%rax),%eax
    9f29:	98                   	cwtl   
    9f2a:	be b7 29 00 00       	mov    $0x29b7,%esi
    9f2f:	89 c7                	mov    %eax,%edi
    9f31:	e8 9d e4 ff ff       	callq  83d3 <safe_sub_func_int16_t_s_s>
    9f36:	89 c2                	mov    %eax,%edx
    9f38:	48 8b 05 51 7e 01 00 	mov    0x17e51(%rip),%rax        # 21d90 <g_1630>
    9f3f:	0f bf d2             	movswl %dx,%edx
    9f42:	89 10                	mov    %edx,(%rax)
    9f44:	66 83 85 8a fb ff ff 	addw   $0x1,-0x476(%rbp)
    9f4b:	01 
    9f4c:	c7 05 3a 53 01 00 ee 	movl   $0xffffffee,0x1533a(%rip)        # 1f290 <g_551>
    9f53:	ff ff ff 
    9f56:	e9 2c 06 00 00       	jmpq   a587 <func_2+0xbe6>
    9f5b:	c7 85 a0 fb ff ff 00 	movl   $0x0,-0x460(%rbp)
    9f62:	00 00 00 
    9f65:	c6 85 89 fb ff ff 93 	movb   $0x93,-0x477(%rbp)
    9f6c:	c7 85 a4 fb ff ff 77 	movl   $0xc65e0677,-0x45c(%rbp)
    9f73:	06 5e c6 
    9f76:	c7 85 a8 fb ff ff 2c 	movl   $0xd75d162c,-0x458(%rbp)
    9f7d:	16 5d d7 
    9f80:	c7 85 a0 fc ff ff 27 	movl   $0x2747bd27,-0x360(%rbp)
    9f87:	bd 47 27 
    9f8a:	c7 85 a4 fc ff ff d9 	movl   $0xdbb3cfd9,-0x35c(%rbp)
    9f91:	cf b3 db 
    9f94:	c7 85 a8 fc ff ff 27 	movl   $0x2747bd27,-0x358(%rbp)
    9f9b:	bd 47 27 
    9f9e:	c7 85 ac fc ff ff d9 	movl   $0xdbb3cfd9,-0x354(%rbp)
    9fa5:	cf b3 db 
    9fa8:	c7 85 b0 fc ff ff 27 	movl   $0x2747bd27,-0x350(%rbp)
    9faf:	bd 47 27 
    9fb2:	c7 85 b4 fc ff ff d9 	movl   $0xdbb3cfd9,-0x34c(%rbp)
    9fb9:	cf b3 db 
    9fbc:	c7 85 b8 fc ff ff 27 	movl   $0x2747bd27,-0x348(%rbp)
    9fc3:	bd 47 27 
    9fc6:	c7 85 bc fc ff ff d9 	movl   $0xdbb3cfd9,-0x344(%rbp)
    9fcd:	cf b3 db 
    9fd0:	c7 85 c0 fc ff ff 27 	movl   $0x2747bd27,-0x340(%rbp)
    9fd7:	bd 47 27 
    9fda:	c7 85 c4 fc ff ff d9 	movl   $0xdbb3cfd9,-0x33c(%rbp)
    9fe1:	cf b3 db 
    9fe4:	c7 85 90 fb ff ff f6 	movl   $0xfffffff6,-0x470(%rbp)
    9feb:	ff ff ff 
    9fee:	48 c7 85 08 fc ff ff 	movq   $0x0,-0x3f8(%rbp)
    9ff5:	00 00 00 00 
    9ff9:	48 8d 85 08 fc ff ff 	lea    -0x3f8(%rbp),%rax
    a000:	48 89 85 48 fc ff ff 	mov    %rax,-0x3b8(%rbp)
    a007:	c7 85 94 fb ff ff 00 	movl   $0x0,-0x46c(%rbp)
    a00e:	00 00 00 
    a011:	eb 14                	jmp    a027 <func_2+0x686>
    a013:	8b 85 94 fb ff ff    	mov    -0x46c(%rbp),%eax
    a019:	48 98                	cltq   
    a01b:	c6 44 05 cf 14       	movb   $0x14,-0x31(%rbp,%rax,1)
    a020:	83 85 94 fb ff ff 01 	addl   $0x1,-0x46c(%rbp)
    a027:	83 bd 94 fb ff ff 08 	cmpl   $0x8,-0x46c(%rbp)
    a02e:	7e e3                	jle    a013 <func_2+0x672>
    a030:	48 8b 85 28 fc ff ff 	mov    -0x3d8(%rbp),%rax
    a037:	0f b6 00             	movzbl (%rax),%eax
    a03a:	8d 50 01             	lea    0x1(%rax),%edx
    a03d:	48 8b 85 28 fc ff ff 	mov    -0x3d8(%rbp),%rax
    a044:	88 10                	mov    %dl,(%rax)
    a046:	0f b6 95 89 fb ff ff 	movzbl -0x477(%rbp),%edx
    a04d:	0f b6 85 89 fb ff ff 	movzbl -0x477(%rbp),%eax
    a054:	39 85 7c fb ff ff    	cmp    %eax,-0x484(%rbp)
    a05a:	0f 93 c0             	setae  %al
    a05d:	0f b6 c0             	movzbl %al,%eax
    a060:	39 c2                	cmp    %eax,%edx
    a062:	0f 8c 44 02 00 00    	jl     a2ac <func_2+0x90b>
    a068:	66 c7 85 8c fb ff ff 	movw   $0x1,-0x474(%rbp)
    a06f:	01 00 
    a071:	c7 85 b0 fb ff ff 75 	movl   $0x321d5975,-0x450(%rbp)
    a078:	59 1d 32 
    a07b:	48 c7 85 10 fc ff ff 	movq   $0x0,-0x3f0(%rbp)
    a082:	00 00 00 00 
    a086:	66 c7 85 10 fc ff ff 	movw   $0x3d41,-0x3f0(%rbp)
    a08d:	41 3d 
    a08f:	66 c7 85 8e fb ff ff 	movw   $0x0,-0x472(%rbp)
    a096:	00 00 
    a098:	c7 85 b4 fb ff ff 01 	movl   $0x1,-0x44c(%rbp)
    a09f:	00 00 00 
    a0a2:	c7 85 b8 fb ff ff f8 	movl   $0xfffffff8,-0x448(%rbp)
    a0a9:	ff ff ff 
    a0ac:	c7 85 bc fb ff ff fc 	movl   $0xfffffffc,-0x444(%rbp)
    a0b3:	ff ff ff 
    a0b6:	c7 85 c0 fb ff ff 07 	movl   $0x7,-0x440(%rbp)
    a0bd:	00 00 00 
    a0c0:	c7 85 30 fd ff ff 05 	movl   $0x5,-0x2d0(%rbp)
    a0c7:	00 00 00 
    a0ca:	c7 85 34 fd ff ff 7e 	movl   $0x3ccc9b7e,-0x2cc(%rbp)
    a0d1:	9b cc 3c 
    a0d4:	c7 85 38 fd ff ff 7e 	movl   $0x3ccc9b7e,-0x2c8(%rbp)
    a0db:	9b cc 3c 
    a0de:	c7 85 3c fd ff ff 05 	movl   $0x5,-0x2c4(%rbp)
    a0e5:	00 00 00 
    a0e8:	c7 85 40 fd ff ff 05 	movl   $0x5,-0x2c0(%rbp)
    a0ef:	00 00 00 
    a0f2:	c7 85 44 fd ff ff 05 	movl   $0x5,-0x2bc(%rbp)
    a0f9:	00 00 00 
    a0fc:	c7 85 48 fd ff ff 87 	movl   $0xba7a7d87,-0x2b8(%rbp)
    a103:	7d 7a ba 
    a106:	c7 85 4c fd ff ff 05 	movl   $0x5,-0x2b4(%rbp)
    a10d:	00 00 00 
    a110:	c7 85 50 fd ff ff 05 	movl   $0x5,-0x2b0(%rbp)
    a117:	00 00 00 
    a11a:	c7 85 54 fd ff ff 87 	movl   $0xba7a7d87,-0x2ac(%rbp)
    a121:	7d 7a ba 
    a124:	c7 85 58 fd ff ff 05 	movl   $0x5,-0x2a8(%rbp)
    a12b:	00 00 00 
    a12e:	c7 85 5c fd ff ff 05 	movl   $0x5,-0x2a4(%rbp)
    a135:	00 00 00 
    a138:	c7 85 60 fd ff ff 87 	movl   $0xba7a7d87,-0x2a0(%rbp)
    a13f:	7d 7a ba 
    a142:	c7 85 64 fd ff ff 05 	movl   $0x5,-0x29c(%rbp)
    a149:	00 00 00 
    a14c:	c7 85 68 fd ff ff 05 	movl   $0x5,-0x298(%rbp)
    a153:	00 00 00 
    a156:	c7 85 6c fd ff ff 87 	movl   $0xba7a7d87,-0x294(%rbp)
    a15d:	7d 7a ba 
    a160:	48 8b 05 21 84 01 00 	mov    0x18421(%rip),%rax        # 22588 <g_2022>
    a167:	0f b7 95 8c fb ff ff 	movzwl -0x474(%rbp),%edx
    a16e:	89 10                	mov    %edx,(%rax)
    a170:	66 83 bd 78 fb ff ff 	cmpw   $0x0,-0x488(%rbp)
    a177:	00 
    a178:	0f 85 18 04 00 00    	jne    a596 <func_2+0xbf5>
    a17e:	0f b6 85 89 fb ff ff 	movzbl -0x477(%rbp),%eax
    a185:	89 85 b0 fb ff ff    	mov    %eax,-0x450(%rbp)
    a18b:	c7 05 a3 51 01 00 00 	movl   $0x0,0x151a3(%rip)        # 1f338 <g_1147+0x8>
    a192:	00 00 00 
    a195:	e9 fe 00 00 00       	jmpq   a298 <func_2+0x8f7>
    a19a:	c7 85 c4 fb ff ff a7 	movl   $0x1a1bc2a7,-0x43c(%rbp)
    a1a1:	c2 1b 1a 
    a1a4:	c7 85 c8 fb ff ff 01 	movl   $0x1,-0x438(%rbp)
    a1ab:	00 00 00 
    a1ae:	c7 85 cc fb ff ff d8 	movl   $0xe1962ad8,-0x434(%rbp)
    a1b5:	2a 96 e1 
    a1b8:	c7 85 d0 fb ff ff 11 	movl   $0xfe09bb11,-0x430(%rbp)
    a1bf:	bb 09 fe 
    a1c2:	c7 85 d4 fb ff ff 01 	movl   $0x1,-0x42c(%rbp)
    a1c9:	00 00 00 
    a1cc:	c7 85 d8 fb ff ff ff 	movl   $0xffffffff,-0x428(%rbp)
    a1d3:	ff ff ff 
    a1d6:	c7 85 dc fb ff ff 01 	movl   $0x1,-0x424(%rbp)
    a1dd:	00 00 00 
    a1e0:	c7 85 e0 fb ff ff 01 	movl   $0x1,-0x420(%rbp)
    a1e7:	00 00 00 
    a1ea:	c7 85 e4 fb ff ff 01 	movl   $0x1,-0x41c(%rbp)
    a1f1:	00 00 00 
    a1f4:	0f bf 9d 8e fb ff ff 	movswl -0x472(%rbp),%ebx
    a1fb:	8b 85 7c fb ff ff    	mov    -0x484(%rbp),%eax
    a201:	89 c2                	mov    %eax,%edx
    a203:	8b 85 a0 fb ff ff    	mov    -0x460(%rbp),%eax
    a209:	09 d0                	or     %edx,%eax
    a20b:	0f be d0             	movsbl %al,%edx
    a20e:	48 8b 05 f3 7a 01 00 	mov    0x17af3(%rip),%rax        # 21d08 <g_982>
    a215:	48 8b 00             	mov    (%rax),%rax
    a218:	48 8b 00             	mov    (%rax),%rax
    a21b:	48 8b 00             	mov    (%rax),%rax
    a21e:	48 8b 00             	mov    (%rax),%rax
    a221:	66 c7 00 01 00       	movw   $0x1,(%rax)
    a226:	0f b7 00             	movzwl (%rax),%eax
    a229:	66 89 85 78 fb ff ff 	mov    %ax,-0x488(%rbp)
    a230:	0f b7 85 78 fb ff ff 	movzwl -0x488(%rbp),%eax
    a237:	89 c1                	mov    %eax,%ecx
    a239:	8b 85 7c fb ff ff    	mov    -0x484(%rbp),%eax
    a23f:	31 c8                	xor    %ecx,%eax
    a241:	0f be c0             	movsbl %al,%eax
    a244:	89 d6                	mov    %edx,%esi
    a246:	89 c7                	mov    %eax,%edi
    a248:	e8 e4 df ff ff       	callq  8231 <safe_mod_func_int8_t_s_s>
    a24d:	0f be c0             	movsbl %al,%eax
    a250:	39 85 7c fb ff ff    	cmp    %eax,-0x484(%rbp)
    a256:	0f 94 c0             	sete   %al
    a259:	0f b6 c0             	movzbl %al,%eax
    a25c:	89 de                	mov    %ebx,%esi
    a25e:	89 c7                	mov    %eax,%edi
    a260:	e8 e3 eb ff ff       	callq  8e48 <safe_rshift_func_uint16_t_u_s>
    a265:	0f b7 c0             	movzwl %ax,%eax
    a268:	09 85 c4 fb ff ff    	or     %eax,-0x43c(%rbp)
    a26e:	8b 85 c4 fb ff ff    	mov    -0x43c(%rbp),%eax
    a274:	89 85 a4 fb ff ff    	mov    %eax,-0x45c(%rbp)
    a27a:	83 ad 90 fb ff ff 01 	subl   $0x1,-0x470(%rbp)
    a281:	66 83 bd 78 fb ff ff 	cmpw   $0x0,-0x488(%rbp)
    a288:	00 
    a289:	8b 05 a9 50 01 00    	mov    0x150a9(%rip),%eax        # 1f338 <g_1147+0x8>
    a28f:	83 c0 01             	add    $0x1,%eax
    a292:	89 05 a0 50 01 00    	mov    %eax,0x150a0(%rip)        # 1f338 <g_1147+0x8>
    a298:	8b 05 9a 50 01 00    	mov    0x1509a(%rip),%eax        # 1f338 <g_1147+0x8>
    a29e:	83 f8 19             	cmp    $0x19,%eax
    a2a1:	0f 87 f3 fe ff ff    	ja     a19a <func_2+0x7f9>
    a2a7:	e9 cc 02 00 00       	jmpq   a578 <func_2+0xbd7>
    a2ac:	48 c7 85 50 fc ff ff 	movq   $0x0,-0x3b0(%rbp)
    a2b3:	00 00 00 00 
    a2b7:	48 8d 05 4a 50 01 00 	lea    0x1504a(%rip),%rax        # 1f308 <g_954>
    a2be:	48 89 85 30 fd ff ff 	mov    %rax,-0x2d0(%rbp)
    a2c5:	48 8d 05 3c 50 01 00 	lea    0x1503c(%rip),%rax        # 1f308 <g_954>
    a2cc:	48 89 85 38 fd ff ff 	mov    %rax,-0x2c8(%rbp)
    a2d3:	48 8d 05 2e 50 01 00 	lea    0x1502e(%rip),%rax        # 1f308 <g_954>
    a2da:	48 89 85 40 fd ff ff 	mov    %rax,-0x2c0(%rbp)
    a2e1:	48 c7 85 48 fd ff ff 	movq   $0x0,-0x2b8(%rbp)
    a2e8:	00 00 00 00 
    a2ec:	48 8d 05 15 50 01 00 	lea    0x15015(%rip),%rax        # 1f308 <g_954>
    a2f3:	48 89 85 50 fd ff ff 	mov    %rax,-0x2b0(%rbp)
    a2fa:	48 c7 85 58 fd ff ff 	movq   $0x0,-0x2a8(%rbp)
    a301:	00 00 00 00 
    a305:	48 8d 05 bc 4e 01 00 	lea    0x14ebc(%rip),%rax        # 1f1c8 <g_418>
    a30c:	48 89 85 60 fd ff ff 	mov    %rax,-0x2a0(%rbp)
    a313:	48 c7 85 68 fd ff ff 	movq   $0x0,-0x298(%rbp)
    a31a:	00 00 00 00 
    a31e:	48 8d 05 e3 4f 01 00 	lea    0x14fe3(%rip),%rax        # 1f308 <g_954>
    a325:	48 89 85 70 fd ff ff 	mov    %rax,-0x290(%rbp)
    a32c:	48 8d 05 d5 4f 01 00 	lea    0x14fd5(%rip),%rax        # 1f308 <g_954>
    a333:	48 89 85 78 fd ff ff 	mov    %rax,-0x288(%rbp)
    a33a:	48 8d 05 c7 4f 01 00 	lea    0x14fc7(%rip),%rax        # 1f308 <g_954>
    a341:	48 89 85 80 fd ff ff 	mov    %rax,-0x280(%rbp)
    a348:	48 8d 05 b9 4f 01 00 	lea    0x14fb9(%rip),%rax        # 1f308 <g_954>
    a34f:	48 89 85 88 fd ff ff 	mov    %rax,-0x278(%rbp)
    a356:	48 8d 05 ab 4f 01 00 	lea    0x14fab(%rip),%rax        # 1f308 <g_954>
    a35d:	48 89 85 90 fd ff ff 	mov    %rax,-0x270(%rbp)
    a364:	48 8d 05 9d 4f 01 00 	lea    0x14f9d(%rip),%rax        # 1f308 <g_954>
    a36b:	48 89 85 98 fd ff ff 	mov    %rax,-0x268(%rbp)
    a372:	48 c7 85 a0 fd ff ff 	movq   $0x0,-0x260(%rbp)
    a379:	00 00 00 00 
    a37d:	48 8d 05 84 4f 01 00 	lea    0x14f84(%rip),%rax        # 1f308 <g_954>
    a384:	48 89 85 a8 fd ff ff 	mov    %rax,-0x258(%rbp)
    a38b:	48 8d 05 76 4f 01 00 	lea    0x14f76(%rip),%rax        # 1f308 <g_954>
    a392:	48 89 85 b0 fd ff ff 	mov    %rax,-0x250(%rbp)
    a399:	48 8d 05 68 4f 01 00 	lea    0x14f68(%rip),%rax        # 1f308 <g_954>
    a3a0:	48 89 85 b8 fd ff ff 	mov    %rax,-0x248(%rbp)
    a3a7:	48 8d 05 5a 4f 01 00 	lea    0x14f5a(%rip),%rax        # 1f308 <g_954>
    a3ae:	48 89 85 c0 fd ff ff 	mov    %rax,-0x240(%rbp)
    a3b5:	48 8d 05 4c 4f 01 00 	lea    0x14f4c(%rip),%rax        # 1f308 <g_954>
    a3bc:	48 89 85 c8 fd ff ff 	mov    %rax,-0x238(%rbp)
    a3c3:	48 8d 05 3e 4f 01 00 	lea    0x14f3e(%rip),%rax        # 1f308 <g_954>
    a3ca:	48 89 85 d0 fd ff ff 	mov    %rax,-0x230(%rbp)
    a3d1:	48 8d 05 30 4f 01 00 	lea    0x14f30(%rip),%rax        # 1f308 <g_954>
    a3d8:	48 89 85 d8 fd ff ff 	mov    %rax,-0x228(%rbp)
    a3df:	48 c7 85 e0 fd ff ff 	movq   $0x0,-0x220(%rbp)
    a3e6:	00 00 00 00 
    a3ea:	48 c7 85 e8 fd ff ff 	movq   $0x0,-0x218(%rbp)
    a3f1:	00 00 00 00 
    a3f5:	48 8d 05 0c 4f 01 00 	lea    0x14f0c(%rip),%rax        # 1f308 <g_954>
    a3fc:	48 89 85 f0 fd ff ff 	mov    %rax,-0x210(%rbp)
    a403:	48 8d 05 fe 4e 01 00 	lea    0x14efe(%rip),%rax        # 1f308 <g_954>
    a40a:	48 89 85 f8 fd ff ff 	mov    %rax,-0x208(%rbp)
    a411:	48 8d 05 f0 4e 01 00 	lea    0x14ef0(%rip),%rax        # 1f308 <g_954>
    a418:	48 89 85 00 fe ff ff 	mov    %rax,-0x200(%rbp)
    a41f:	48 8d 05 e2 4e 01 00 	lea    0x14ee2(%rip),%rax        # 1f308 <g_954>
    a426:	48 89 85 08 fe ff ff 	mov    %rax,-0x1f8(%rbp)
    a42d:	c7 85 ac fb ff ff 01 	movl   $0x1,-0x454(%rbp)
    a434:	00 00 00 
    a437:	48 8d 85 e8 fb ff ff 	lea    -0x418(%rbp),%rax
    a43e:	48 89 85 58 fc ff ff 	mov    %rax,-0x3a8(%rbp)
    a445:	8b 05 dd 4b 01 00    	mov    0x14bdd(%rip),%eax        # 1f028 <g_5>
    a44b:	0f be d8             	movsbl %al,%ebx
    a44e:	44 0f bf a5 78 fb ff 	movswl -0x488(%rbp),%r12d
    a455:	ff 
    a456:	48 8b 05 33 78 01 00 	mov    0x17833(%rip),%rax        # 21c90 <g_980>
    a45d:	0f b7 00             	movzwl (%rax),%eax
    a460:	44 0f bf e8          	movswl %ax,%r13d
    a464:	8b 85 ac fb ff ff    	mov    -0x454(%rbp),%eax
    a46a:	89 c6                	mov    %eax,%esi
    a46c:	bf 00 00 00 00       	mov    $0x0,%edi
    a471:	e8 89 e2 ff ff       	callq  86ff <safe_div_func_int32_t_s_s>
    a476:	39 85 90 fb ff ff    	cmp    %eax,-0x470(%rbp)
    a47c:	0f 97 c0             	seta   %al
    a47f:	0f b6 c0             	movzbl %al,%eax
    a482:	be f8 ff ff ff       	mov    $0xfffffff8,%esi
    a487:	89 c7                	mov    %eax,%edi
    a489:	e8 71 e2 ff ff       	callq  86ff <safe_div_func_int32_t_s_s>
    a48e:	48 8b 85 f8 fb ff ff 	mov    -0x408(%rbp),%rax
    a495:	48 8b 00             	mov    (%rax),%rax
    a498:	48 39 85 58 fc ff ff 	cmp    %rax,-0x3a8(%rbp)
    a49f:	0f 94 c0             	sete   %al
    a4a2:	0f b6 d0             	movzbl %al,%edx
    a4a5:	48 8b 05 64 78 01 00 	mov    0x17864(%rip),%rax        # 21d10 <g_988>
    a4ac:	48 8b 00             	mov    (%rax),%rax
    a4af:	48 8b 00             	mov    (%rax),%rax
    a4b2:	48 8b 00             	mov    (%rax),%rax
    a4b5:	48 8b 00             	mov    (%rax),%rax
    a4b8:	0f b7 00             	movzwl (%rax),%eax
    a4bb:	98                   	cwtl   
    a4bc:	39 c2                	cmp    %eax,%edx
    a4be:	0f 9c c0             	setl   %al
    a4c1:	0f b6 c0             	movzbl %al,%eax
    a4c4:	44 89 ee             	mov    %r13d,%esi
    a4c7:	89 c7                	mov    %eax,%edi
    a4c9:	e8 48 df ff ff       	callq  8416 <safe_mod_func_int16_t_s_s>
    a4ce:	48 8b 05 bb 77 01 00 	mov    0x177bb(%rip),%rax        # 21c90 <g_980>
    a4d5:	8b 95 7c fb ff ff    	mov    -0x484(%rbp),%edx
    a4db:	66 89 10             	mov    %dx,(%rax)
    a4de:	0f b7 00             	movzwl (%rax),%eax
    a4e1:	44 0f bf e8          	movswl %ax,%r13d
    a4e5:	8b 95 ac fb ff ff    	mov    -0x454(%rbp),%edx
    a4eb:	48 83 bd 48 fc ff ff 	cmpq   $0x0,-0x3b8(%rbp)
    a4f2:	00 
    a4f3:	0f 95 c1             	setne  %cl
    a4f6:	48 8b 05 23 74 01 00 	mov    0x17423(%rip),%rax        # 21920 <g_360>
    a4fd:	0f b6 c9             	movzbl %cl,%ecx
    a500:	89 08                	mov    %ecx,(%rax)
    a502:	8b 00                	mov    (%rax),%eax
    a504:	66 89 05 a3 4d 01 00 	mov    %ax,0x14da3(%rip)        # 1f2ae <g_616+0xe>
    a50b:	0f b7 05 9c 4d 01 00 	movzwl 0x14d9c(%rip),%eax        # 1f2ae <g_616+0xe>
    a512:	0f b7 c0             	movzwl %ax,%eax
    a515:	89 d6                	mov    %edx,%esi
    a517:	89 c7                	mov    %eax,%edi
    a519:	e8 df e9 ff ff       	callq  8efd <safe_mod_func_uint32_t_u_u>
    a51e:	98                   	cwtl   
    a51f:	44 89 ee             	mov    %r13d,%esi
    a522:	89 c7                	mov    %eax,%edi
    a524:	e8 ed de ff ff       	callq  8416 <safe_mod_func_int16_t_s_s>
    a529:	f7 d0                	not    %eax
    a52b:	66 c1 e8 0f          	shr    $0xf,%ax
    a52f:	0f b6 d0             	movzbl %al,%edx
    a532:	48 8b 05 af 52 01 00 	mov    0x152af(%rip),%rax        # 1f7e8 <g_2403>
    a539:	48 39 c2             	cmp    %rax,%rdx
    a53c:	74 07                	je     a545 <func_2+0xba4>
    a53e:	b8 4c 00 00 00       	mov    $0x4c,%eax
    a543:	eb 05                	jmp    a54a <func_2+0xba9>
    a545:	b8 4d 00 00 00       	mov    $0x4d,%eax
    a54a:	44 89 e6             	mov    %r12d,%esi
    a54d:	89 c7                	mov    %eax,%edi
    a54f:	e8 18 de ff ff       	callq  836c <safe_rshift_func_int8_t_s_u>
    a554:	0f be c0             	movsbl %al,%eax
    a557:	89 de                	mov    %ebx,%esi
    a559:	89 c7                	mov    %eax,%edi
    a55b:	e8 92 dc ff ff       	callq  81f2 <safe_sub_func_int8_t_s_s>
    a560:	66 98                	cbtw   
    a562:	66 39 85 78 fb ff ff 	cmp    %ax,-0x488(%rbp)
    a569:	0f 95 c2             	setne  %dl
    a56c:	48 8b 05 cd 73 01 00 	mov    0x173cd(%rip),%rax        # 21940 <g_624>
    a573:	0f b6 d2             	movzbl %dl,%edx
    a576:	89 10                	mov    %edx,(%rax)
    a578:	8b 05 12 4d 01 00    	mov    0x14d12(%rip),%eax        # 1f290 <g_551>
    a57e:	83 c0 01             	add    $0x1,%eax
    a581:	89 05 09 4d 01 00    	mov    %eax,0x14d09(%rip)        # 1f290 <g_551>
    a587:	8b 05 03 4d 01 00    	mov    0x14d03(%rip),%eax        # 1f290 <g_551>
    a58d:	83 f8 09             	cmp    $0x9,%eax
    a590:	0f 85 c5 f9 ff ff    	jne    9f5b <func_2+0x5ba>
    a596:	8b 85 7c fb ff ff    	mov    -0x484(%rbp),%eax
    a59c:	48 8b 4d d8          	mov    -0x28(%rbp),%rcx
    a5a0:	64 48 33 0c 25 28 00 	xor    %fs:0x28,%rcx
    a5a7:	00 00 
    a5a9:	74 05                	je     a5b0 <func_2+0xc0f>
    a5ab:	e8 c0 da ff ff       	callq  8070 <__stack_chk_fail@plt>
    a5b0:	48 81 c4 78 04 00 00 	add    $0x478,%rsp
    a5b7:	5b                   	pop    %rbx
    a5b8:	41 5c                	pop    %r12
    a5ba:	41 5d                	pop    %r13
    a5bc:	5d                   	pop    %rbp
    a5bd:	c3                   	retq   

000000000000a5be <func_6>:
    a5be:	f3 0f 1e fa          	endbr64 
    a5c2:	55                   	push   %rbp
    a5c3:	48 89 e5             	mov    %rsp,%rbp
    a5c6:	41 54                	push   %r12
    a5c8:	53                   	push   %rbx
    a5c9:	48 81 ec 00 10 00 00 	sub    $0x1000,%rsp
    a5d0:	48 83 0c 24 00       	orq    $0x0,(%rsp)
    a5d5:	48 81 ec 00 03 00 00 	sub    $0x300,%rsp
    a5dc:	89 bd 0c ed ff ff    	mov    %edi,-0x12f4(%rbp)
    a5e2:	48 89 b5 00 ed ff ff 	mov    %rsi,-0x1300(%rbp)
    a5e9:	89 95 08 ed ff ff    	mov    %edx,-0x12f8(%rbp)
    a5ef:	89 c8                	mov    %ecx,%eax
    a5f1:	4c 89 85 f0 ec ff ff 	mov    %r8,-0x1310(%rbp)
    a5f8:	88 85 fc ec ff ff    	mov    %al,-0x1304(%rbp)
    a5fe:	64 48 8b 04 25 28 00 	mov    %fs:0x28,%rax
    a605:	00 00 
    a607:	48 89 45 e8          	mov    %rax,-0x18(%rbp)
    a60b:	31 c0                	xor    %eax,%eax
    a60d:	c7 85 20 ed ff ff 01 	movl   $0x1,-0x12e0(%rbp)
    a614:	00 00 00 
    a617:	c7 85 30 ed ff ff 01 	movl   $0x1,-0x12d0(%rbp)
    a61e:	00 00 00 
    a621:	c7 85 24 ed ff ff 00 	movl   $0x0,-0x12dc(%rbp)
    a628:	00 00 00 
    a62b:	48 8d 85 50 f0 ff ff 	lea    -0xfb0(%rbp),%rax
    a632:	48 8d 15 07 fb 00 00 	lea    0xfb07(%rip),%rdx        # 1a140 <g_1219+0x30>
    a639:	b9 7e 00 00 00       	mov    $0x7e,%ecx
    a63e:	48 89 c7             	mov    %rax,%rdi
    a641:	48 89 d6             	mov    %rdx,%rsi
    a644:	f3 48 a5             	rep movsq %ds:(%rsi),%es:(%rdi)
    a647:	48 c7 85 60 ed ff ff 	movq   $0x0,-0x12a0(%rbp)
    a64e:	00 00 00 00 
    a652:	c7 85 34 ed ff ff 00 	movl   $0x0,-0x12cc(%rbp)
    a659:	00 00 00 
    a65c:	c7 85 38 ed ff ff 95 	movl   $0x6696b495,-0x12c8(%rbp)
    a663:	b4 96 66 
    a666:	66 c7 85 1c ed ff ff 	movw   $0x68a7,-0x12e4(%rbp)
    a66d:	a7 68 
    a66f:	66 c7 85 1e ed ff ff 	movw   $0x3ead,-0x12e2(%rbp)
    a676:	ad 3e 
    a678:	48 c7 85 68 ed ff ff 	movq   $0xffffffffffffffff,-0x1298(%rbp)
    a67f:	ff ff ff ff 
    a683:	48 0f be 85 fc ec ff 	movsbq -0x1304(%rbp),%rax
    a68a:	ff 
    a68b:	48 39 85 f0 ec ff ff 	cmp    %rax,-0x1310(%rbp)
    a692:	74 25                	je     a6b9 <func_6+0xfb>
    a694:	8b 85 20 ed ff ff    	mov    -0x12e0(%rbp),%eax
    a69a:	31 85 30 ed ff ff    	xor    %eax,-0x12d0(%rbp)
    a6a0:	48 8b 05 b1 6d 01 00 	mov    0x16db1(%rip),%rax        # 21458 <g_68>
    a6a7:	48 8b 00             	mov    (%rax),%rax
    a6aa:	48 8d 95 20 ed ff ff 	lea    -0x12e0(%rbp),%rdx
    a6b1:	48 89 10             	mov    %rdx,(%rax)
    a6b4:	e9 bc 18 00 00       	jmpq   bf75 <func_6+0x19b7>
    a6b9:	c7 85 3c ed ff ff 37 	movl   $0xb7abf437,-0x12c4(%rbp)
    a6c0:	f4 ab b7 
    a6c3:	c7 85 28 ed ff ff 4d 	movl   $0x11cc414d,-0x12d8(%rbp)
    a6ca:	41 cc 11 
    a6cd:	c7 85 40 ed ff ff ff 	movl   $0xffffffff,-0x12c0(%rbp)
    a6d4:	ff ff ff 
    a6d7:	c7 85 44 ed ff ff 99 	movl   $0xcec16399,-0x12bc(%rbp)
    a6de:	63 c1 ce 
    a6e1:	48 8d 85 d0 ed ff ff 	lea    -0x1230(%rbp),%rax
    a6e8:	48 8d 15 51 fe 00 00 	lea    0xfe51(%rip),%rdx        # 1a540 <g_1219+0x430>
    a6ef:	b9 50 00 00 00       	mov    $0x50,%ecx
    a6f4:	48 89 c7             	mov    %rax,%rdi
    a6f7:	48 89 d6             	mov    %rdx,%rsi
    a6fa:	f3 48 a5             	rep movsq %ds:(%rsi),%es:(%rdi)
    a6fd:	c7 85 48 ed ff ff 9e 	movl   $0xc8ca929e,-0x12b8(%rbp)
    a704:	92 ca c8 
    a707:	48 b8 c8 57 ec a6 63 	movabs $0xa995ad63a6ec57c8,%rax
    a70e:	ad 95 a9 
    a711:	48 89 85 70 ed ff ff 	mov    %rax,-0x1290(%rbp)
    a718:	66 c7 05 93 4a 01 00 	movw   $0xfff6,0x14a93(%rip)        # 1f1b4 <g_291>
    a71f:	f6 ff 
    a721:	e9 48 01 00 00       	jmpq   a86e <func_6+0x2b0>
    a726:	48 c7 85 40 f8 ff ff 	movq   $0x0,-0x7c0(%rbp)
    a72d:	00 00 00 00 
    a731:	48 c7 85 48 f8 ff ff 	movq   $0x0,-0x7b8(%rbp)
    a738:	00 00 00 00 
    a73c:	48 c7 85 50 f8 ff ff 	movq   $0x0,-0x7b0(%rbp)
    a743:	00 00 00 00 
    a747:	48 c7 85 58 f8 ff ff 	movq   $0x0,-0x7a8(%rbp)
    a74e:	00 00 00 00 
    a752:	48 c7 85 60 f8 ff ff 	movq   $0x0,-0x7a0(%rbp)
    a759:	00 00 00 00 
    a75d:	48 c7 85 68 f8 ff ff 	movq   $0x0,-0x798(%rbp)
    a764:	00 00 00 00 
    a768:	48 c7 85 70 f8 ff ff 	movq   $0x0,-0x790(%rbp)
    a76f:	00 00 00 00 
    a773:	48 8d 05 16 4b 01 00 	lea    0x14b16(%rip),%rax        # 1f290 <g_551>
    a77a:	48 89 85 78 f8 ff ff 	mov    %rax,-0x788(%rbp)
    a781:	48 8d 05 08 4b 01 00 	lea    0x14b08(%rip),%rax        # 1f290 <g_551>
    a788:	48 89 85 80 f8 ff ff 	mov    %rax,-0x780(%rbp)
    a78f:	48 8d 05 fa 4a 01 00 	lea    0x14afa(%rip),%rax        # 1f290 <g_551>
    a796:	48 89 85 88 f8 ff ff 	mov    %rax,-0x778(%rbp)
    a79d:	48 8d 05 ec 4a 01 00 	lea    0x14aec(%rip),%rax        # 1f290 <g_551>
    a7a4:	48 89 85 90 f8 ff ff 	mov    %rax,-0x770(%rbp)
    a7ab:	48 8d 05 de 4a 01 00 	lea    0x14ade(%rip),%rax        # 1f290 <g_551>
    a7b2:	48 89 85 98 f8 ff ff 	mov    %rax,-0x768(%rbp)
    a7b9:	48 8d 05 d0 4a 01 00 	lea    0x14ad0(%rip),%rax        # 1f290 <g_551>
    a7c0:	48 89 85 a0 f8 ff ff 	mov    %rax,-0x760(%rbp)
    a7c7:	48 8d 05 c2 4a 01 00 	lea    0x14ac2(%rip),%rax        # 1f290 <g_551>
    a7ce:	48 89 85 a8 f8 ff ff 	mov    %rax,-0x758(%rbp)
    a7d5:	48 83 85 60 ed ff ff 	addq   $0x1,-0x12a0(%rbp)
    a7dc:	01 
    a7dd:	c7 05 c1 4a 01 00 f2 	movl   $0xfffffff2,0x14ac1(%rip)        # 1f2a8 <g_616+0x8>
    a7e4:	ff ff ff 
    a7e7:	90                   	nop
    a7e8:	8b 05 ba 4a 01 00    	mov    0x14aba(%rip),%eax        # 1f2a8 <g_616+0x8>
    a7ee:	83 f8 10             	cmp    $0x10,%eax
    a7f1:	77 35                	ja     a828 <func_6+0x26a>
    a7f3:	48 b8 4c c6 d9 ae 03 	movabs $0x8ef33003aed9c64c,%rax
    a7fa:	30 f3 8e 
    a7fd:	48 89 85 c8 ed ff ff 	mov    %rax,-0x1238(%rbp)
    a804:	48 8b 05 75 7d 01 00 	mov    0x17d75(%rip),%rax        # 22580 <g_1877>
    a80b:	8b 10                	mov    (%rax),%edx
    a80d:	48 8b 05 6c 7d 01 00 	mov    0x17d6c(%rip),%rax        # 22580 <g_1877>
    a814:	33 95 08 ed ff ff    	xor    -0x12f8(%rbp),%edx
    a81a:	89 10                	mov    %edx,(%rax)
    a81c:	48 8b 85 c8 ed ff ff 	mov    -0x1238(%rbp),%rax
    a823:	e9 54 17 00 00       	jmpq   bf7c <func_6+0x19be>
    a828:	8b 85 d4 f1 ff ff    	mov    -0xe2c(%rbp),%eax
    a82e:	85 c0                	test   %eax,%eax
    a830:	75 1c                	jne    a84e <func_6+0x290>
    a832:	48 8b 05 3f 74 01 00 	mov    0x1743f(%rip),%rax        # 21c78 <g_945>
    a839:	48 8b 00             	mov    (%rax),%rax
    a83c:	89 c2                	mov    %eax,%edx
    a83e:	8b 85 20 ed ff ff    	mov    -0x12e0(%rbp),%eax
    a844:	09 d0                	or     %edx,%eax
    a846:	89 85 a4 ef ff ff    	mov    %eax,-0x105c(%rbp)
    a84c:	eb 01                	jmp    a84f <func_6+0x291>
    a84e:	90                   	nop
    a84f:	0f b7 05 5e 49 01 00 	movzwl 0x1495e(%rip),%eax        # 1f1b4 <g_291>
    a856:	48 0f bf c0          	movswq %ax,%rax
    a85a:	be 09 00 00 00       	mov    $0x9,%esi
    a85f:	48 89 c7             	mov    %rax,%rdi
    a862:	e8 c7 e7 ff ff       	callq  902e <safe_add_func_uint64_t_u_u>
    a867:	66 89 05 46 49 01 00 	mov    %ax,0x14946(%rip)        # 1f1b4 <g_291>
    a86e:	0f b7 05 3f 49 01 00 	movzwl 0x1493f(%rip),%eax        # 1f1b4 <g_291>
    a875:	66 85 c0             	test   %ax,%ax
    a878:	0f 84 a8 fe ff ff    	je     a726 <func_6+0x168>
    a87e:	c6 05 1c 4a 01 00 00 	movb   $0x0,0x14a1c(%rip)        # 1f2a1 <g_616+0x1>
    a885:	e9 dc 16 00 00       	jmpq   bf66 <func_6+0x19a8>
    a88a:	48 b8 0d dc ae 46 ef 	movabs $0xb59461ef46aedc0d,%rax
    a891:	61 94 b5 
    a894:	48 89 85 78 ed ff ff 	mov    %rax,-0x1288(%rbp)
    a89b:	c7 85 2c ed ff ff d9 	movl   $0x90af5d9,-0x12d4(%rbp)
    a8a2:	f5 0a 09 
    a8a5:	48 c7 85 80 ed ff ff 	movq   $0x0,-0x1280(%rbp)
    a8ac:	00 00 00 00 
    a8b0:	48 c7 85 88 ed ff ff 	movq   $0x0,-0x1278(%rbp)
    a8b7:	00 00 00 00 
    a8bb:	48 8d 85 d0 ed ff ff 	lea    -0x1230(%rbp),%rax
    a8c2:	48 83 c0 60          	add    $0x60,%rax
    a8c6:	48 89 85 90 ed ff ff 	mov    %rax,-0x1270(%rbp)
    a8cd:	48 8d 05 a4 48 01 00 	lea    0x148a4(%rip),%rax        # 1f178 <g_183+0xb8>
    a8d4:	48 89 85 98 ed ff ff 	mov    %rax,-0x1268(%rbp)
    a8db:	48 c7 85 a0 ed ff ff 	movq   $0x0,-0x1260(%rbp)
    a8e2:	00 00 00 00 
    a8e6:	48 8d 05 83 4a 01 00 	lea    0x14a83(%rip),%rax        # 1f370 <g_1191+0x10>
    a8ed:	48 89 85 a8 ed ff ff 	mov    %rax,-0x1258(%rbp)
    a8f4:	48 8d 05 61 47 01 00 	lea    0x14761(%rip),%rax        # 1f05c <g_73>
    a8fb:	48 89 85 b0 ed ff ff 	mov    %rax,-0x1250(%rbp)
    a902:	48 8d 05 53 47 01 00 	lea    0x14753(%rip),%rax        # 1f05c <g_73>
    a909:	48 89 85 40 f4 ff ff 	mov    %rax,-0xbc0(%rbp)
    a910:	48 8d 85 24 ed ff ff 	lea    -0x12dc(%rbp),%rax
    a917:	48 89 85 48 f4 ff ff 	mov    %rax,-0xbb8(%rbp)
    a91e:	48 8d 85 20 ed ff ff 	lea    -0x12e0(%rbp),%rax
    a925:	48 89 85 50 f4 ff ff 	mov    %rax,-0xbb0(%rbp)
    a92c:	48 8d 05 5d 49 01 00 	lea    0x1495d(%rip),%rax        # 1f290 <g_551>
    a933:	48 89 85 58 f4 ff ff 	mov    %rax,-0xba8(%rbp)
    a93a:	48 8d 05 4f 49 01 00 	lea    0x1494f(%rip),%rax        # 1f290 <g_551>
    a941:	48 89 85 60 f4 ff ff 	mov    %rax,-0xba0(%rbp)
    a948:	48 8d 85 20 ed ff ff 	lea    -0x12e0(%rbp),%rax
    a94f:	48 89 85 68 f4 ff ff 	mov    %rax,-0xb98(%rbp)
    a956:	48 8d 85 d0 ed ff ff 	lea    -0x1230(%rbp),%rax
    a95d:	48 83 c0 70          	add    $0x70,%rax
    a961:	48 89 85 70 f4 ff ff 	mov    %rax,-0xb90(%rbp)
    a968:	48 8d 85 2c ed ff ff 	lea    -0x12d4(%rbp),%rax
    a96f:	48 89 85 78 f4 ff ff 	mov    %rax,-0xb88(%rbp)
    a976:	48 8d 85 d0 ed ff ff 	lea    -0x1230(%rbp),%rax
    a97d:	48 83 c0 70          	add    $0x70,%rax
    a981:	48 89 85 80 f4 ff ff 	mov    %rax,-0xb80(%rbp)
    a988:	48 8d 05 49 82 01 00 	lea    0x18249(%rip),%rax        # 22bd8 <g_2194>
    a98f:	48 89 85 88 f4 ff ff 	mov    %rax,-0xb78(%rbp)
    a996:	48 8d 05 9f 46 01 00 	lea    0x1469f(%rip),%rax        # 1f03c <g_62+0x4>
    a99d:	48 89 85 90 f4 ff ff 	mov    %rax,-0xb70(%rbp)
    a9a4:	48 8d 05 91 46 01 00 	lea    0x14691(%rip),%rax        # 1f03c <g_62+0x4>
    a9ab:	48 89 85 98 f4 ff ff 	mov    %rax,-0xb68(%rbp)
    a9b2:	48 8d 05 a3 46 01 00 	lea    0x146a3(%rip),%rax        # 1f05c <g_73>
    a9b9:	48 89 85 a0 f4 ff ff 	mov    %rax,-0xb60(%rbp)
    a9c0:	48 8d 85 2c ed ff ff 	lea    -0x12d4(%rbp),%rax
    a9c7:	48 89 85 a8 f4 ff ff 	mov    %rax,-0xb58(%rbp)
    a9ce:	48 8d 85 d0 ed ff ff 	lea    -0x1230(%rbp),%rax
    a9d5:	48 83 c0 70          	add    $0x70,%rax
    a9d9:	48 89 85 b0 f4 ff ff 	mov    %rax,-0xb50(%rbp)
    a9e0:	48 8d 85 d0 ed ff ff 	lea    -0x1230(%rbp),%rax
    a9e7:	48 83 c0 70          	add    $0x70,%rax
    a9eb:	48 89 85 b8 f4 ff ff 	mov    %rax,-0xb48(%rbp)
    a9f2:	48 8d 85 d0 ed ff ff 	lea    -0x1230(%rbp),%rax
    a9f9:	48 83 c0 64          	add    $0x64,%rax
    a9fd:	48 89 85 c0 f4 ff ff 	mov    %rax,-0xb40(%rbp)
    aa04:	48 8d 05 31 46 01 00 	lea    0x14631(%rip),%rax        # 1f03c <g_62+0x4>
    aa0b:	48 89 85 c8 f4 ff ff 	mov    %rax,-0xb38(%rbp)
    aa12:	48 8d 85 20 ed ff ff 	lea    -0x12e0(%rbp),%rax
    aa19:	48 89 85 d0 f4 ff ff 	mov    %rax,-0xb30(%rbp)
    aa20:	48 8d 85 20 ed ff ff 	lea    -0x12e0(%rbp),%rax
    aa27:	48 89 85 d8 f4 ff ff 	mov    %rax,-0xb28(%rbp)
    aa2e:	48 8d 05 07 46 01 00 	lea    0x14607(%rip),%rax        # 1f03c <g_62+0x4>
    aa35:	48 89 85 e0 f4 ff ff 	mov    %rax,-0xb20(%rbp)
    aa3c:	48 8d 85 d0 ed ff ff 	lea    -0x1230(%rbp),%rax
    aa43:	48 83 c0 64          	add    $0x64,%rax
    aa47:	48 89 85 e8 f4 ff ff 	mov    %rax,-0xb18(%rbp)
    aa4e:	48 8d 05 3b 48 01 00 	lea    0x1483b(%rip),%rax        # 1f290 <g_551>
    aa55:	48 89 85 f0 f4 ff ff 	mov    %rax,-0xb10(%rbp)
    aa5c:	48 8d 05 75 81 01 00 	lea    0x18175(%rip),%rax        # 22bd8 <g_2194>
    aa63:	48 89 85 f8 f4 ff ff 	mov    %rax,-0xb08(%rbp)
    aa6a:	48 8d 05 cb 45 01 00 	lea    0x145cb(%rip),%rax        # 1f03c <g_62+0x4>
    aa71:	48 89 85 00 f5 ff ff 	mov    %rax,-0xb00(%rbp)
    aa78:	48 8d 85 d0 ed ff ff 	lea    -0x1230(%rbp),%rax
    aa7f:	48 83 c0 64          	add    $0x64,%rax
    aa83:	48 89 85 08 f5 ff ff 	mov    %rax,-0xaf8(%rbp)
    aa8a:	48 8d 05 ff 47 01 00 	lea    0x147ff(%rip),%rax        # 1f290 <g_551>
    aa91:	48 89 85 10 f5 ff ff 	mov    %rax,-0xaf0(%rbp)
    aa98:	48 8d 05 39 81 01 00 	lea    0x18139(%rip),%rax        # 22bd8 <g_2194>
    aa9f:	48 89 85 18 f5 ff ff 	mov    %rax,-0xae8(%rbp)
    aaa6:	48 8d 85 2c ed ff ff 	lea    -0x12d4(%rbp),%rax
    aaad:	48 89 85 20 f5 ff ff 	mov    %rax,-0xae0(%rbp)
    aab4:	48 8d 85 20 ed ff ff 	lea    -0x12e0(%rbp),%rax
    aabb:	48 89 85 28 f5 ff ff 	mov    %rax,-0xad8(%rbp)
    aac2:	48 8d 85 28 ed ff ff 	lea    -0x12d8(%rbp),%rax
    aac9:	48 89 85 30 f5 ff ff 	mov    %rax,-0xad0(%rbp)
    aad0:	48 8d 85 2c ed ff ff 	lea    -0x12d4(%rbp),%rax
    aad7:	48 89 85 38 f5 ff ff 	mov    %rax,-0xac8(%rbp)
    aade:	48 8d 05 f3 80 01 00 	lea    0x180f3(%rip),%rax        # 22bd8 <g_2194>
    aae5:	48 89 85 40 f5 ff ff 	mov    %rax,-0xac0(%rbp)
    aaec:	48 8d 85 d0 ed ff ff 	lea    -0x1230(%rbp),%rax
    aaf3:	48 83 c0 70          	add    $0x70,%rax
    aaf7:	48 89 85 48 f5 ff ff 	mov    %rax,-0xab8(%rbp)
    aafe:	48 8d 85 24 ed ff ff 	lea    -0x12dc(%rbp),%rax
    ab05:	48 89 85 50 f5 ff ff 	mov    %rax,-0xab0(%rbp)
    ab0c:	48 8d 05 c5 80 01 00 	lea    0x180c5(%rip),%rax        # 22bd8 <g_2194>
    ab13:	48 89 85 58 f5 ff ff 	mov    %rax,-0xaa8(%rbp)
    ab1a:	48 8d 05 3b 45 01 00 	lea    0x1453b(%rip),%rax        # 1f05c <g_73>
    ab21:	48 89 85 60 f5 ff ff 	mov    %rax,-0xaa0(%rbp)
    ab28:	48 8d 05 61 47 01 00 	lea    0x14761(%rip),%rax        # 1f290 <g_551>
    ab2f:	48 89 85 68 f5 ff ff 	mov    %rax,-0xa98(%rbp)
    ab36:	48 8d 05 1f 45 01 00 	lea    0x1451f(%rip),%rax        # 1f05c <g_73>
    ab3d:	48 89 85 70 f5 ff ff 	mov    %rax,-0xa90(%rbp)
    ab44:	48 8d 05 8d 80 01 00 	lea    0x1808d(%rip),%rax        # 22bd8 <g_2194>
    ab4b:	48 89 85 78 f5 ff ff 	mov    %rax,-0xa88(%rbp)
    ab52:	48 8d 85 24 ed ff ff 	lea    -0x12dc(%rbp),%rax
    ab59:	48 89 85 80 f5 ff ff 	mov    %rax,-0xa80(%rbp)
    ab60:	48 8d 05 f5 44 01 00 	lea    0x144f5(%rip),%rax        # 1f05c <g_73>
    ab67:	48 89 85 88 f5 ff ff 	mov    %rax,-0xa78(%rbp)
    ab6e:	48 8d 85 24 ed ff ff 	lea    -0x12dc(%rbp),%rax
    ab75:	48 89 85 90 f5 ff ff 	mov    %rax,-0xa70(%rbp)
    ab7c:	48 8d 85 20 ed ff ff 	lea    -0x12e0(%rbp),%rax
    ab83:	48 89 85 98 f5 ff ff 	mov    %rax,-0xa68(%rbp)
    ab8a:	48 8d 05 ff 46 01 00 	lea    0x146ff(%rip),%rax        # 1f290 <g_551>
    ab91:	48 89 85 a0 f5 ff ff 	mov    %rax,-0xa60(%rbp)
    ab98:	48 8d 05 f1 46 01 00 	lea    0x146f1(%rip),%rax        # 1f290 <g_551>
    ab9f:	48 89 85 a8 f5 ff ff 	mov    %rax,-0xa58(%rbp)
    aba6:	48 8d 85 20 ed ff ff 	lea    -0x12e0(%rbp),%rax
    abad:	48 89 85 b0 f5 ff ff 	mov    %rax,-0xa50(%rbp)
    abb4:	48 8d 85 d0 ed ff ff 	lea    -0x1230(%rbp),%rax
    abbb:	48 83 c0 70          	add    $0x70,%rax
    abbf:	48 89 85 b8 f5 ff ff 	mov    %rax,-0xa48(%rbp)
    abc6:	48 8d 05 8f 44 01 00 	lea    0x1448f(%rip),%rax        # 1f05c <g_73>
    abcd:	48 89 85 c0 f5 ff ff 	mov    %rax,-0xa40(%rbp)
    abd4:	48 8d 85 2c ed ff ff 	lea    -0x12d4(%rbp),%rax
    abdb:	48 89 85 c8 f5 ff ff 	mov    %rax,-0xa38(%rbp)
    abe2:	48 8d 05 a7 46 01 00 	lea    0x146a7(%rip),%rax        # 1f290 <g_551>
    abe9:	48 89 85 d0 f5 ff ff 	mov    %rax,-0xa30(%rbp)
    abf0:	48 8d 05 45 44 01 00 	lea    0x14445(%rip),%rax        # 1f03c <g_62+0x4>
    abf7:	48 89 85 d8 f5 ff ff 	mov    %rax,-0xa28(%rbp)
    abfe:	48 8d 85 20 ed ff ff 	lea    -0x12e0(%rbp),%rax
    ac05:	48 89 85 e0 f5 ff ff 	mov    %rax,-0xa20(%rbp)
    ac0c:	48 8d 85 2c ed ff ff 	lea    -0x12d4(%rbp),%rax
    ac13:	48 89 85 e8 f5 ff ff 	mov    %rax,-0xa18(%rbp)
    ac1a:	48 8d 05 6f 46 01 00 	lea    0x1466f(%rip),%rax        # 1f290 <g_551>
    ac21:	48 89 85 f0 f5 ff ff 	mov    %rax,-0xa10(%rbp)
    ac28:	48 8d 85 2c ed ff ff 	lea    -0x12d4(%rbp),%rax
    ac2f:	48 89 85 f8 f5 ff ff 	mov    %rax,-0xa08(%rbp)
    ac36:	48 8d 05 1f 44 01 00 	lea    0x1441f(%rip),%rax        # 1f05c <g_73>
    ac3d:	48 89 85 00 f6 ff ff 	mov    %rax,-0xa00(%rbp)
    ac44:	48 8d 85 d0 ed ff ff 	lea    -0x1230(%rbp),%rax
    ac4b:	48 83 c0 70          	add    $0x70,%rax
    ac4f:	48 89 85 08 f6 ff ff 	mov    %rax,-0x9f8(%rbp)
    ac56:	48 c7 85 10 f6 ff ff 	movq   $0x0,-0x9f0(%rbp)
    ac5d:	00 00 00 00 
    ac61:	48 8d 05 28 46 01 00 	lea    0x14628(%rip),%rax        # 1f290 <g_551>
    ac68:	48 89 85 18 f6 ff ff 	mov    %rax,-0x9e8(%rbp)
    ac6f:	48 8d 05 1a 46 01 00 	lea    0x1461a(%rip),%rax        # 1f290 <g_551>
    ac76:	48 89 85 20 f6 ff ff 	mov    %rax,-0x9e0(%rbp)
    ac7d:	48 c7 85 28 f6 ff ff 	movq   $0x0,-0x9d8(%rbp)
    ac84:	00 00 00 00 
    ac88:	48 8d 85 d0 ed ff ff 	lea    -0x1230(%rbp),%rax
    ac8f:	48 83 c0 70          	add    $0x70,%rax
    ac93:	48 89 85 30 f6 ff ff 	mov    %rax,-0x9d0(%rbp)
    ac9a:	48 8d 05 bb 43 01 00 	lea    0x143bb(%rip),%rax        # 1f05c <g_73>
    aca1:	48 89 85 38 f6 ff ff 	mov    %rax,-0x9c8(%rbp)
    aca8:	48 8d 85 24 ed ff ff 	lea    -0x12dc(%rbp),%rax
    acaf:	48 89 85 40 f6 ff ff 	mov    %rax,-0x9c0(%rbp)
    acb6:	48 8d 05 1b 7f 01 00 	lea    0x17f1b(%rip),%rax        # 22bd8 <g_2194>
    acbd:	48 89 85 48 f6 ff ff 	mov    %rax,-0x9b8(%rbp)
    acc4:	48 8d 85 2c ed ff ff 	lea    -0x12d4(%rbp),%rax
    accb:	48 89 85 50 f6 ff ff 	mov    %rax,-0x9b0(%rbp)
    acd2:	48 8d 85 2c ed ff ff 	lea    -0x12d4(%rbp),%rax
    acd9:	48 89 85 58 f6 ff ff 	mov    %rax,-0x9a8(%rbp)
    ace0:	48 8d 05 75 43 01 00 	lea    0x14375(%rip),%rax        # 1f05c <g_73>
    ace7:	48 89 85 60 f6 ff ff 	mov    %rax,-0x9a0(%rbp)
    acee:	48 8d 85 d0 ed ff ff 	lea    -0x1230(%rbp),%rax
    acf5:	48 83 c0 64          	add    $0x64,%rax
    acf9:	48 89 85 68 f6 ff ff 	mov    %rax,-0x998(%rbp)
    ad00:	48 8d 85 24 ed ff ff 	lea    -0x12dc(%rbp),%rax
    ad07:	48 89 85 70 f6 ff ff 	mov    %rax,-0x990(%rbp)
    ad0e:	48 8d 85 d0 ed ff ff 	lea    -0x1230(%rbp),%rax
    ad15:	48 83 c0 70          	add    $0x70,%rax
    ad19:	48 89 85 78 f6 ff ff 	mov    %rax,-0x988(%rbp)
    ad20:	48 8d 05 b1 7e 01 00 	lea    0x17eb1(%rip),%rax        # 22bd8 <g_2194>
    ad27:	48 89 85 80 f6 ff ff 	mov    %rax,-0x980(%rbp)
    ad2e:	48 8d 85 2c ed ff ff 	lea    -0x12d4(%rbp),%rax
    ad35:	48 89 85 88 f6 ff ff 	mov    %rax,-0x978(%rbp)
    ad3c:	48 8d 85 20 ed ff ff 	lea    -0x12e0(%rbp),%rax
    ad43:	48 89 85 90 f6 ff ff 	mov    %rax,-0x970(%rbp)
    ad4a:	48 8d 85 28 ed ff ff 	lea    -0x12d8(%rbp),%rax
    ad51:	48 89 85 98 f6 ff ff 	mov    %rax,-0x968(%rbp)
    ad58:	48 8d 85 2c ed ff ff 	lea    -0x12d4(%rbp),%rax
    ad5f:	48 89 85 a0 f6 ff ff 	mov    %rax,-0x960(%rbp)
    ad66:	48 8d 85 d0 ed ff ff 	lea    -0x1230(%rbp),%rax
    ad6d:	48 83 c0 64          	add    $0x64,%rax
    ad71:	48 89 85 a8 f6 ff ff 	mov    %rax,-0x958(%rbp)
    ad78:	48 8d 05 11 45 01 00 	lea    0x14511(%rip),%rax        # 1f290 <g_551>
    ad7f:	48 89 85 b0 f6 ff ff 	mov    %rax,-0x950(%rbp)
    ad86:	48 8d 85 d0 ed ff ff 	lea    -0x1230(%rbp),%rax
    ad8d:	48 83 c0 64          	add    $0x64,%rax
    ad91:	48 89 85 b8 f6 ff ff 	mov    %rax,-0x948(%rbp)
    ad98:	48 8d 05 9d 42 01 00 	lea    0x1429d(%rip),%rax        # 1f03c <g_62+0x4>
    ad9f:	48 89 85 c0 f6 ff ff 	mov    %rax,-0x940(%rbp)
    ada6:	48 8d 05 2b 7e 01 00 	lea    0x17e2b(%rip),%rax        # 22bd8 <g_2194>
    adad:	48 89 85 c8 f6 ff ff 	mov    %rax,-0x938(%rbp)
    adb4:	48 8d 85 2c ed ff ff 	lea    -0x12d4(%rbp),%rax
    adbb:	48 89 85 d0 f6 ff ff 	mov    %rax,-0x930(%rbp)
    adc2:	48 8d 05 0f 7e 01 00 	lea    0x17e0f(%rip),%rax        # 22bd8 <g_2194>
    adc9:	48 89 85 d8 f6 ff ff 	mov    %rax,-0x928(%rbp)
    add0:	48 8d 05 65 42 01 00 	lea    0x14265(%rip),%rax        # 1f03c <g_62+0x4>
    add7:	48 89 85 e0 f6 ff ff 	mov    %rax,-0x920(%rbp)
    adde:	48 c7 85 e8 f6 ff ff 	movq   $0x0,-0x918(%rbp)
    ade5:	00 00 00 00 
    ade9:	48 8d 85 28 ed ff ff 	lea    -0x12d8(%rbp),%rax
    adf0:	48 89 85 f0 f6 ff ff 	mov    %rax,-0x910(%rbp)
    adf7:	48 8d 05 3e 42 01 00 	lea    0x1423e(%rip),%rax        # 1f03c <g_62+0x4>
    adfe:	48 89 85 f8 f6 ff ff 	mov    %rax,-0x908(%rbp)
    ae05:	48 8d 85 d0 ed ff ff 	lea    -0x1230(%rbp),%rax
    ae0c:	48 83 c0 64          	add    $0x64,%rax
    ae10:	48 89 85 00 f7 ff ff 	mov    %rax,-0x900(%rbp)
    ae17:	48 8d 85 d0 ed ff ff 	lea    -0x1230(%rbp),%rax
    ae1e:	48 83 c0 70          	add    $0x70,%rax
    ae22:	48 89 85 08 f7 ff ff 	mov    %rax,-0x8f8(%rbp)
    ae29:	48 8d 85 24 ed ff ff 	lea    -0x12dc(%rbp),%rax
    ae30:	48 89 85 10 f7 ff ff 	mov    %rax,-0x8f0(%rbp)
    ae37:	48 8d 85 d0 ed ff ff 	lea    -0x1230(%rbp),%rax
    ae3e:	48 83 c0 64          	add    $0x64,%rax
    ae42:	48 89 85 18 f7 ff ff 	mov    %rax,-0x8e8(%rbp)
    ae49:	48 8d 05 0c 42 01 00 	lea    0x1420c(%rip),%rax        # 1f05c <g_73>
    ae50:	48 89 85 20 f7 ff ff 	mov    %rax,-0x8e0(%rbp)
    ae57:	48 8d 85 2c ed ff ff 	lea    -0x12d4(%rbp),%rax
    ae5e:	48 89 85 28 f7 ff ff 	mov    %rax,-0x8d8(%rbp)
    ae65:	48 8d 85 2c ed ff ff 	lea    -0x12d4(%rbp),%rax
    ae6c:	48 89 85 30 f7 ff ff 	mov    %rax,-0x8d0(%rbp)
    ae73:	48 8d 05 5e 7d 01 00 	lea    0x17d5e(%rip),%rax        # 22bd8 <g_2194>
    ae7a:	48 89 85 38 f7 ff ff 	mov    %rax,-0x8c8(%rbp)
    ae81:	48 8d 85 d0 ed ff ff 	lea    -0x1230(%rbp),%rax
    ae88:	48 83 c0 70          	add    $0x70,%rax
    ae8c:	48 89 85 40 f7 ff ff 	mov    %rax,-0x8c0(%rbp)
    ae93:	48 8d 85 2c ed ff ff 	lea    -0x12d4(%rbp),%rax
    ae9a:	48 89 85 48 f7 ff ff 	mov    %rax,-0x8b8(%rbp)
    aea1:	48 8d 85 24 ed ff ff 	lea    -0x12dc(%rbp),%rax
    aea8:	48 89 85 50 f7 ff ff 	mov    %rax,-0x8b0(%rbp)
    aeaf:	48 8d 85 28 ed ff ff 	lea    -0x12d8(%rbp),%rax
    aeb6:	48 89 85 58 f7 ff ff 	mov    %rax,-0x8a8(%rbp)
    aebd:	48 8d 05 cc 43 01 00 	lea    0x143cc(%rip),%rax        # 1f290 <g_551>
    aec4:	48 89 85 60 f7 ff ff 	mov    %rax,-0x8a0(%rbp)
    aecb:	48 8d 05 be 43 01 00 	lea    0x143be(%rip),%rax        # 1f290 <g_551>
    aed2:	48 89 85 68 f7 ff ff 	mov    %rax,-0x898(%rbp)
    aed9:	48 8d 85 28 ed ff ff 	lea    -0x12d8(%rbp),%rax
    aee0:	48 89 85 70 f7 ff ff 	mov    %rax,-0x890(%rbp)
    aee7:	48 8d 85 24 ed ff ff 	lea    -0x12dc(%rbp),%rax
    aeee:	48 89 85 78 f7 ff ff 	mov    %rax,-0x888(%rbp)
    aef5:	48 8d 05 60 41 01 00 	lea    0x14160(%rip),%rax        # 1f05c <g_73>
    aefc:	48 89 85 80 f7 ff ff 	mov    %rax,-0x880(%rbp)
    af03:	48 8d 05 52 41 01 00 	lea    0x14152(%rip),%rax        # 1f05c <g_73>
    af0a:	48 89 85 88 f7 ff ff 	mov    %rax,-0x878(%rbp)
    af11:	48 8d 05 44 41 01 00 	lea    0x14144(%rip),%rax        # 1f05c <g_73>
    af18:	48 89 85 90 f7 ff ff 	mov    %rax,-0x870(%rbp)
    af1f:	48 8d 85 20 ed ff ff 	lea    -0x12e0(%rbp),%rax
    af26:	48 89 85 98 f7 ff ff 	mov    %rax,-0x868(%rbp)
    af2d:	48 8d 85 d0 ed ff ff 	lea    -0x1230(%rbp),%rax
    af34:	48 83 c0 64          	add    $0x64,%rax
    af38:	48 89 85 a0 f7 ff ff 	mov    %rax,-0x860(%rbp)
    af3f:	48 8d 85 28 ed ff ff 	lea    -0x12d8(%rbp),%rax
    af46:	48 89 85 a8 f7 ff ff 	mov    %rax,-0x858(%rbp)
    af4d:	48 8d 85 2c ed ff ff 	lea    -0x12d4(%rbp),%rax
    af54:	48 89 85 b0 f7 ff ff 	mov    %rax,-0x850(%rbp)
    af5b:	48 8d 85 20 ed ff ff 	lea    -0x12e0(%rbp),%rax
    af62:	48 89 85 b8 f7 ff ff 	mov    %rax,-0x848(%rbp)
    af69:	48 8d 85 28 ed ff ff 	lea    -0x12d8(%rbp),%rax
    af70:	48 89 85 c0 f7 ff ff 	mov    %rax,-0x840(%rbp)
    af77:	48 8d 85 2c ed ff ff 	lea    -0x12d4(%rbp),%rax
    af7e:	48 89 85 c8 f7 ff ff 	mov    %rax,-0x838(%rbp)
    af85:	48 8d 85 2c ed ff ff 	lea    -0x12d4(%rbp),%rax
    af8c:	48 89 85 d0 f7 ff ff 	mov    %rax,-0x830(%rbp)
    af93:	48 8d 05 a2 40 01 00 	lea    0x140a2(%rip),%rax        # 1f03c <g_62+0x4>
    af9a:	48 89 85 d8 f7 ff ff 	mov    %rax,-0x828(%rbp)
    afa1:	48 8d 85 2c ed ff ff 	lea    -0x12d4(%rbp),%rax
    afa8:	48 89 85 e0 f7 ff ff 	mov    %rax,-0x820(%rbp)
    afaf:	48 8d 85 2c ed ff ff 	lea    -0x12d4(%rbp),%rax
    afb6:	48 89 85 e8 f7 ff ff 	mov    %rax,-0x818(%rbp)
    afbd:	48 8d 05 cc 42 01 00 	lea    0x142cc(%rip),%rax        # 1f290 <g_551>
    afc4:	48 89 85 f0 f7 ff ff 	mov    %rax,-0x810(%rbp)
    afcb:	48 8d 85 20 ed ff ff 	lea    -0x12e0(%rbp),%rax
    afd2:	48 89 85 f8 f7 ff ff 	mov    %rax,-0x808(%rbp)
    afd9:	48 8d 85 2c ed ff ff 	lea    -0x12d4(%rbp),%rax
    afe0:	48 89 85 00 f8 ff ff 	mov    %rax,-0x800(%rbp)
    afe7:	48 8d 85 24 ed ff ff 	lea    -0x12dc(%rbp),%rax
    afee:	48 89 85 08 f8 ff ff 	mov    %rax,-0x7f8(%rbp)
    aff5:	48 8d 85 28 ed ff ff 	lea    -0x12d8(%rbp),%rax
    affc:	48 89 85 10 f8 ff ff 	mov    %rax,-0x7f0(%rbp)
    b003:	48 8d 85 20 ed ff ff 	lea    -0x12e0(%rbp),%rax
    b00a:	48 89 85 18 f8 ff ff 	mov    %rax,-0x7e8(%rbp)
    b011:	48 8d 85 28 ed ff ff 	lea    -0x12d8(%rbp),%rax
    b018:	48 89 85 20 f8 ff ff 	mov    %rax,-0x7e0(%rbp)
    b01f:	48 8d 85 24 ed ff ff 	lea    -0x12dc(%rbp),%rax
    b026:	48 89 85 28 f8 ff ff 	mov    %rax,-0x7d8(%rbp)
    b02d:	48 8d 85 2c ed ff ff 	lea    -0x12d4(%rbp),%rax
    b034:	48 89 85 30 f8 ff ff 	mov    %rax,-0x7d0(%rbp)
    b03b:	48 8d 05 4e 42 01 00 	lea    0x1424e(%rip),%rax        # 1f290 <g_551>
    b042:	48 89 85 38 f8 ff ff 	mov    %rax,-0x7c8(%rbp)
    b049:	c6 85 1b ed ff ff ff 	movb   $0xff,-0x12e5(%rbp)
    b050:	48 b8 f0 7a ca 9b 33 	movabs $0xcfcbfa339bca7af0,%rax
    b057:	fa cb cf 
    b05a:	48 89 85 b8 ed ff ff 	mov    %rax,-0x1248(%rbp)
    b061:	c7 85 4c ed ff ff 39 	movl   $0x5d88c539,-0x12b4(%rbp)
    b068:	c5 88 5d 
    b06b:	48 8d 05 a6 6c 01 00 	lea    0x16ca6(%rip),%rax        # 21d18 <g_1313>
    b072:	48 89 85 50 ed ff ff 	mov    %rax,-0x12b0(%rbp)
    b079:	48 8d 85 50 ed ff ff 	lea    -0x12b0(%rbp),%rax
    b080:	48 89 85 58 ed ff ff 	mov    %rax,-0x12a8(%rbp)
    b087:	48 8d 85 58 ed ff ff 	lea    -0x12a8(%rbp),%rax
    b08e:	48 89 85 40 f8 ff ff 	mov    %rax,-0x7c0(%rbp)
    b095:	48 c7 85 48 f8 ff ff 	movq   $0x0,-0x7b8(%rbp)
    b09c:	00 00 00 00 
    b0a0:	48 8d 85 58 ed ff ff 	lea    -0x12a8(%rbp),%rax
    b0a7:	48 89 85 50 f8 ff ff 	mov    %rax,-0x7b0(%rbp)
    b0ae:	48 8d 85 58 ed ff ff 	lea    -0x12a8(%rbp),%rax
    b0b5:	48 89 85 58 f8 ff ff 	mov    %rax,-0x7a8(%rbp)
    b0bc:	48 8d 85 58 ed ff ff 	lea    -0x12a8(%rbp),%rax
    b0c3:	48 89 85 60 f8 ff ff 	mov    %rax,-0x7a0(%rbp)
    b0ca:	48 8d 85 58 ed ff ff 	lea    -0x12a8(%rbp),%rax
    b0d1:	48 89 85 68 f8 ff ff 	mov    %rax,-0x798(%rbp)
    b0d8:	48 8d 85 58 ed ff ff 	lea    -0x12a8(%rbp),%rax
    b0df:	48 89 85 70 f8 ff ff 	mov    %rax,-0x790(%rbp)
    b0e6:	48 8d 85 58 ed ff ff 	lea    -0x12a8(%rbp),%rax
    b0ed:	48 89 85 78 f8 ff ff 	mov    %rax,-0x788(%rbp)
    b0f4:	48 8d 85 58 ed ff ff 	lea    -0x12a8(%rbp),%rax
    b0fb:	48 89 85 80 f8 ff ff 	mov    %rax,-0x780(%rbp)
    b102:	48 8d 85 58 ed ff ff 	lea    -0x12a8(%rbp),%rax
    b109:	48 89 85 88 f8 ff ff 	mov    %rax,-0x778(%rbp)
    b110:	48 8d 85 58 ed ff ff 	lea    -0x12a8(%rbp),%rax
    b117:	48 89 85 90 f8 ff ff 	mov    %rax,-0x770(%rbp)
    b11e:	48 8d 85 58 ed ff ff 	lea    -0x12a8(%rbp),%rax
    b125:	48 89 85 98 f8 ff ff 	mov    %rax,-0x768(%rbp)
    b12c:	48 8d 85 58 ed ff ff 	lea    -0x12a8(%rbp),%rax
    b133:	48 89 85 a0 f8 ff ff 	mov    %rax,-0x760(%rbp)
    b13a:	48 8d 85 58 ed ff ff 	lea    -0x12a8(%rbp),%rax
    b141:	48 89 85 a8 f8 ff ff 	mov    %rax,-0x758(%rbp)
    b148:	48 8d 85 58 ed ff ff 	lea    -0x12a8(%rbp),%rax
    b14f:	48 89 85 b0 f8 ff ff 	mov    %rax,-0x750(%rbp)
    b156:	48 c7 85 b8 f8 ff ff 	movq   $0x0,-0x748(%rbp)
    b15d:	00 00 00 00 
    b161:	48 8d 85 58 ed ff ff 	lea    -0x12a8(%rbp),%rax
    b168:	48 89 85 c0 f8 ff ff 	mov    %rax,-0x740(%rbp)
    b16f:	48 8d 85 58 ed ff ff 	lea    -0x12a8(%rbp),%rax
    b176:	48 89 85 c8 f8 ff ff 	mov    %rax,-0x738(%rbp)
    b17d:	48 8d 85 58 ed ff ff 	lea    -0x12a8(%rbp),%rax
    b184:	48 89 85 d0 f8 ff ff 	mov    %rax,-0x730(%rbp)
    b18b:	48 8d 85 58 ed ff ff 	lea    -0x12a8(%rbp),%rax
    b192:	48 89 85 d8 f8 ff ff 	mov    %rax,-0x728(%rbp)
    b199:	48 8d 85 58 ed ff ff 	lea    -0x12a8(%rbp),%rax
    b1a0:	48 89 85 e0 f8 ff ff 	mov    %rax,-0x720(%rbp)
    b1a7:	48 8d 85 58 ed ff ff 	lea    -0x12a8(%rbp),%rax
    b1ae:	48 89 85 e8 f8 ff ff 	mov    %rax,-0x718(%rbp)
    b1b5:	48 8d 85 58 ed ff ff 	lea    -0x12a8(%rbp),%rax
    b1bc:	48 89 85 f0 f8 ff ff 	mov    %rax,-0x710(%rbp)
    b1c3:	48 8d 85 58 ed ff ff 	lea    -0x12a8(%rbp),%rax
    b1ca:	48 89 85 f8 f8 ff ff 	mov    %rax,-0x708(%rbp)
    b1d1:	48 8d 85 58 ed ff ff 	lea    -0x12a8(%rbp),%rax
    b1d8:	48 89 85 00 f9 ff ff 	mov    %rax,-0x700(%rbp)
    b1df:	48 8d 85 58 ed ff ff 	lea    -0x12a8(%rbp),%rax
    b1e6:	48 89 85 08 f9 ff ff 	mov    %rax,-0x6f8(%rbp)
    b1ed:	48 8d 85 58 ed ff ff 	lea    -0x12a8(%rbp),%rax
    b1f4:	48 89 85 10 f9 ff ff 	mov    %rax,-0x6f0(%rbp)
    b1fb:	48 8d 85 58 ed ff ff 	lea    -0x12a8(%rbp),%rax
    b202:	48 89 85 18 f9 ff ff 	mov    %rax,-0x6e8(%rbp)
    b209:	48 8d 85 58 ed ff ff 	lea    -0x12a8(%rbp),%rax
    b210:	48 89 85 20 f9 ff ff 	mov    %rax,-0x6e0(%rbp)
    b217:	48 8d 85 58 ed ff ff 	lea    -0x12a8(%rbp),%rax
    b21e:	48 89 85 28 f9 ff ff 	mov    %rax,-0x6d8(%rbp)
    b225:	48 8d 85 58 ed ff ff 	lea    -0x12a8(%rbp),%rax
    b22c:	48 89 85 30 f9 ff ff 	mov    %rax,-0x6d0(%rbp)
    b233:	48 8d 85 58 ed ff ff 	lea    -0x12a8(%rbp),%rax
    b23a:	48 89 85 38 f9 ff ff 	mov    %rax,-0x6c8(%rbp)
    b241:	48 8d 85 58 ed ff ff 	lea    -0x12a8(%rbp),%rax
    b248:	48 89 85 40 f9 ff ff 	mov    %rax,-0x6c0(%rbp)
    b24f:	48 c7 85 48 f9 ff ff 	movq   $0x0,-0x6b8(%rbp)
    b256:	00 00 00 00 
    b25a:	48 8d 85 58 ed ff ff 	lea    -0x12a8(%rbp),%rax
    b261:	48 89 85 50 f9 ff ff 	mov    %rax,-0x6b0(%rbp)
    b268:	48 8d 85 58 ed ff ff 	lea    -0x12a8(%rbp),%rax
    b26f:	48 89 85 58 f9 ff ff 	mov    %rax,-0x6a8(%rbp)
    b276:	48 8d 85 58 ed ff ff 	lea    -0x12a8(%rbp),%rax
    b27d:	48 89 85 60 f9 ff ff 	mov    %rax,-0x6a0(%rbp)
    b284:	48 8d 85 58 ed ff ff 	lea    -0x12a8(%rbp),%rax
    b28b:	48 89 85 68 f9 ff ff 	mov    %rax,-0x698(%rbp)
    b292:	48 8d 85 58 ed ff ff 	lea    -0x12a8(%rbp),%rax
    b299:	48 89 85 70 f9 ff ff 	mov    %rax,-0x690(%rbp)
    b2a0:	48 8d 85 58 ed ff ff 	lea    -0x12a8(%rbp),%rax
    b2a7:	48 89 85 78 f9 ff ff 	mov    %rax,-0x688(%rbp)
    b2ae:	48 c7 85 80 f9 ff ff 	movq   $0x0,-0x680(%rbp)
    b2b5:	00 00 00 00 
    b2b9:	48 c7 85 88 f9 ff ff 	movq   $0x0,-0x678(%rbp)
    b2c0:	00 00 00 00 
    b2c4:	48 8d 85 58 ed ff ff 	lea    -0x12a8(%rbp),%rax
    b2cb:	48 89 85 90 f9 ff ff 	mov    %rax,-0x670(%rbp)
    b2d2:	48 8d 85 58 ed ff ff 	lea    -0x12a8(%rbp),%rax
    b2d9:	48 89 85 98 f9 ff ff 	mov    %rax,-0x668(%rbp)
    b2e0:	48 8d 85 58 ed ff ff 	lea    -0x12a8(%rbp),%rax
    b2e7:	48 89 85 a0 f9 ff ff 	mov    %rax,-0x660(%rbp)
    b2ee:	48 8d 85 58 ed ff ff 	lea    -0x12a8(%rbp),%rax
    b2f5:	48 89 85 a8 f9 ff ff 	mov    %rax,-0x658(%rbp)
    b2fc:	48 8d 85 58 ed ff ff 	lea    -0x12a8(%rbp),%rax
    b303:	48 89 85 b0 f9 ff ff 	mov    %rax,-0x650(%rbp)
    b30a:	48 8d 85 58 ed ff ff 	lea    -0x12a8(%rbp),%rax
    b311:	48 89 85 b8 f9 ff ff 	mov    %rax,-0x648(%rbp)
    b318:	48 c7 85 c0 f9 ff ff 	movq   $0x0,-0x640(%rbp)
    b31f:	00 00 00 00 
    b323:	48 8d 85 58 ed ff ff 	lea    -0x12a8(%rbp),%rax
    b32a:	48 89 85 c8 f9 ff ff 	mov    %rax,-0x638(%rbp)
    b331:	48 8d 85 58 ed ff ff 	lea    -0x12a8(%rbp),%rax
    b338:	48 89 85 d0 f9 ff ff 	mov    %rax,-0x630(%rbp)
    b33f:	48 8d 85 58 ed ff ff 	lea    -0x12a8(%rbp),%rax
    b346:	48 89 85 d8 f9 ff ff 	mov    %rax,-0x628(%rbp)
    b34d:	48 8d 85 58 ed ff ff 	lea    -0x12a8(%rbp),%rax
    b354:	48 89 85 e0 f9 ff ff 	mov    %rax,-0x620(%rbp)
    b35b:	48 8d 85 58 ed ff ff 	lea    -0x12a8(%rbp),%rax
    b362:	48 89 85 e8 f9 ff ff 	mov    %rax,-0x618(%rbp)
    b369:	48 8d 85 58 ed ff ff 	lea    -0x12a8(%rbp),%rax
    b370:	48 89 85 f0 f9 ff ff 	mov    %rax,-0x610(%rbp)
    b377:	48 8d 85 58 ed ff ff 	lea    -0x12a8(%rbp),%rax
    b37e:	48 89 85 f8 f9 ff ff 	mov    %rax,-0x608(%rbp)
    b385:	48 8d 85 58 ed ff ff 	lea    -0x12a8(%rbp),%rax
    b38c:	48 89 85 00 fa ff ff 	mov    %rax,-0x600(%rbp)
    b393:	48 8d 85 58 ed ff ff 	lea    -0x12a8(%rbp),%rax
    b39a:	48 89 85 08 fa ff ff 	mov    %rax,-0x5f8(%rbp)
    b3a1:	48 8d 85 58 ed ff ff 	lea    -0x12a8(%rbp),%rax
    b3a8:	48 89 85 10 fa ff ff 	mov    %rax,-0x5f0(%rbp)
    b3af:	48 8d 85 58 ed ff ff 	lea    -0x12a8(%rbp),%rax
    b3b6:	48 89 85 18 fa ff ff 	mov    %rax,-0x5e8(%rbp)
    b3bd:	48 8d 85 58 ed ff ff 	lea    -0x12a8(%rbp),%rax
    b3c4:	48 89 85 20 fa ff ff 	mov    %rax,-0x5e0(%rbp)
    b3cb:	48 8d 85 58 ed ff ff 	lea    -0x12a8(%rbp),%rax
    b3d2:	48 89 85 28 fa ff ff 	mov    %rax,-0x5d8(%rbp)
    b3d9:	48 8d 85 58 ed ff ff 	lea    -0x12a8(%rbp),%rax
    b3e0:	48 89 85 30 fa ff ff 	mov    %rax,-0x5d0(%rbp)
    b3e7:	48 8d 85 58 ed ff ff 	lea    -0x12a8(%rbp),%rax
    b3ee:	48 89 85 38 fa ff ff 	mov    %rax,-0x5c8(%rbp)
    b3f5:	48 8d 85 58 ed ff ff 	lea    -0x12a8(%rbp),%rax
    b3fc:	48 89 85 40 fa ff ff 	mov    %rax,-0x5c0(%rbp)
    b403:	48 8d 85 58 ed ff ff 	lea    -0x12a8(%rbp),%rax
    b40a:	48 89 85 48 fa ff ff 	mov    %rax,-0x5b8(%rbp)
    b411:	48 c7 85 50 fa ff ff 	movq   $0x0,-0x5b0(%rbp)
    b418:	00 00 00 00 
    b41c:	48 8d 85 58 ed ff ff 	lea    -0x12a8(%rbp),%rax
    b423:	48 89 85 58 fa ff ff 	mov    %rax,-0x5a8(%rbp)
    b42a:	48 8d 85 58 ed ff ff 	lea    -0x12a8(%rbp),%rax
    b431:	48 89 85 60 fa ff ff 	mov    %rax,-0x5a0(%rbp)
    b438:	48 8d 85 58 ed ff ff 	lea    -0x12a8(%rbp),%rax
    b43f:	48 89 85 68 fa ff ff 	mov    %rax,-0x598(%rbp)
    b446:	48 8d 85 58 ed ff ff 	lea    -0x12a8(%rbp),%rax
    b44d:	48 89 85 70 fa ff ff 	mov    %rax,-0x590(%rbp)
    b454:	48 8d 85 58 ed ff ff 	lea    -0x12a8(%rbp),%rax
    b45b:	48 89 85 78 fa ff ff 	mov    %rax,-0x588(%rbp)
    b462:	48 8d 85 58 ed ff ff 	lea    -0x12a8(%rbp),%rax
    b469:	48 89 85 80 fa ff ff 	mov    %rax,-0x580(%rbp)
    b470:	48 8d 85 58 ed ff ff 	lea    -0x12a8(%rbp),%rax
    b477:	48 89 85 88 fa ff ff 	mov    %rax,-0x578(%rbp)
    b47e:	48 8d 85 58 ed ff ff 	lea    -0x12a8(%rbp),%rax
    b485:	48 89 85 90 fa ff ff 	mov    %rax,-0x570(%rbp)
    b48c:	48 8d 85 58 ed ff ff 	lea    -0x12a8(%rbp),%rax
    b493:	48 89 85 98 fa ff ff 	mov    %rax,-0x568(%rbp)
    b49a:	48 8d 85 58 ed ff ff 	lea    -0x12a8(%rbp),%rax
    b4a1:	48 89 85 a0 fa ff ff 	mov    %rax,-0x560(%rbp)
    b4a8:	48 8d 85 58 ed ff ff 	lea    -0x12a8(%rbp),%rax
    b4af:	48 89 85 a8 fa ff ff 	mov    %rax,-0x558(%rbp)
    b4b6:	48 8d 85 58 ed ff ff 	lea    -0x12a8(%rbp),%rax
    b4bd:	48 89 85 b0 fa ff ff 	mov    %rax,-0x550(%rbp)
    b4c4:	48 8d 85 58 ed ff ff 	lea    -0x12a8(%rbp),%rax
    b4cb:	48 89 85 b8 fa ff ff 	mov    %rax,-0x548(%rbp)
    b4d2:	48 c7 85 c0 fa ff ff 	movq   $0x0,-0x540(%rbp)
    b4d9:	00 00 00 00 
    b4dd:	48 8d 85 58 ed ff ff 	lea    -0x12a8(%rbp),%rax
    b4e4:	48 89 85 c8 fa ff ff 	mov    %rax,-0x538(%rbp)
    b4eb:	48 8d 85 58 ed ff ff 	lea    -0x12a8(%rbp),%rax
    b4f2:	48 89 85 d0 fa ff ff 	mov    %rax,-0x530(%rbp)
    b4f9:	48 8d 85 58 ed ff ff 	lea    -0x12a8(%rbp),%rax
    b500:	48 89 85 d8 fa ff ff 	mov    %rax,-0x528(%rbp)
    b507:	48 8d 85 58 ed ff ff 	lea    -0x12a8(%rbp),%rax
    b50e:	48 89 85 e0 fa ff ff 	mov    %rax,-0x520(%rbp)
    b515:	48 8d 85 58 ed ff ff 	lea    -0x12a8(%rbp),%rax
    b51c:	48 89 85 e8 fa ff ff 	mov    %rax,-0x518(%rbp)
    b523:	48 8d 85 58 ed ff ff 	lea    -0x12a8(%rbp),%rax
    b52a:	48 89 85 f0 fa ff ff 	mov    %rax,-0x510(%rbp)
    b531:	48 8d 85 58 ed ff ff 	lea    -0x12a8(%rbp),%rax
    b538:	48 89 85 f8 fa ff ff 	mov    %rax,-0x508(%rbp)
    b53f:	48 8d 85 58 ed ff ff 	lea    -0x12a8(%rbp),%rax
    b546:	48 89 85 00 fb ff ff 	mov    %rax,-0x500(%rbp)
    b54d:	48 8d 85 58 ed ff ff 	lea    -0x12a8(%rbp),%rax
    b554:	48 89 85 08 fb ff ff 	mov    %rax,-0x4f8(%rbp)
    b55b:	48 8d 85 58 ed ff ff 	lea    -0x12a8(%rbp),%rax
    b562:	48 89 85 10 fb ff ff 	mov    %rax,-0x4f0(%rbp)
    b569:	48 8d 85 58 ed ff ff 	lea    -0x12a8(%rbp),%rax
    b570:	48 89 85 18 fb ff ff 	mov    %rax,-0x4e8(%rbp)
    b577:	48 8d 85 58 ed ff ff 	lea    -0x12a8(%rbp),%rax
    b57e:	48 89 85 20 fb ff ff 	mov    %rax,-0x4e0(%rbp)
    b585:	48 8d 85 58 ed ff ff 	lea    -0x12a8(%rbp),%rax
    b58c:	48 89 85 28 fb ff ff 	mov    %rax,-0x4d8(%rbp)
    b593:	48 8d 85 58 ed ff ff 	lea    -0x12a8(%rbp),%rax
    b59a:	48 89 85 30 fb ff ff 	mov    %rax,-0x4d0(%rbp)
    b5a1:	48 8d 85 58 ed ff ff 	lea    -0x12a8(%rbp),%rax
    b5a8:	48 89 85 38 fb ff ff 	mov    %rax,-0x4c8(%rbp)
    b5af:	48 8d 85 58 ed ff ff 	lea    -0x12a8(%rbp),%rax
    b5b6:	48 89 85 40 fb ff ff 	mov    %rax,-0x4c0(%rbp)
    b5bd:	48 8d 85 58 ed ff ff 	lea    -0x12a8(%rbp),%rax
    b5c4:	48 89 85 48 fb ff ff 	mov    %rax,-0x4b8(%rbp)
    b5cb:	48 c7 85 50 fb ff ff 	movq   $0x0,-0x4b0(%rbp)
    b5d2:	00 00 00 00 
    b5d6:	48 8d 85 58 ed ff ff 	lea    -0x12a8(%rbp),%rax
    b5dd:	48 89 85 58 fb ff ff 	mov    %rax,-0x4a8(%rbp)
    b5e4:	48 8d 85 58 ed ff ff 	lea    -0x12a8(%rbp),%rax
    b5eb:	48 89 85 60 fb ff ff 	mov    %rax,-0x4a0(%rbp)
    b5f2:	48 8d 85 58 ed ff ff 	lea    -0x12a8(%rbp),%rax
    b5f9:	48 89 85 68 fb ff ff 	mov    %rax,-0x498(%rbp)
    b600:	48 8d 85 58 ed ff ff 	lea    -0x12a8(%rbp),%rax
    b607:	48 89 85 70 fb ff ff 	mov    %rax,-0x490(%rbp)
    b60e:	48 8d 85 58 ed ff ff 	lea    -0x12a8(%rbp),%rax
    b615:	48 89 85 78 fb ff ff 	mov    %rax,-0x488(%rbp)
    b61c:	48 8d 85 58 ed ff ff 	lea    -0x12a8(%rbp),%rax
    b623:	48 89 85 80 fb ff ff 	mov    %rax,-0x480(%rbp)
    b62a:	48 c7 85 88 fb ff ff 	movq   $0x0,-0x478(%rbp)
    b631:	00 00 00 00 
    b635:	48 c7 85 90 fb ff ff 	movq   $0x0,-0x470(%rbp)
    b63c:	00 00 00 00 
    b640:	48 8d 85 58 ed ff ff 	lea    -0x12a8(%rbp),%rax
    b647:	48 89 85 98 fb ff ff 	mov    %rax,-0x468(%rbp)
    b64e:	48 8d 85 58 ed ff ff 	lea    -0x12a8(%rbp),%rax
    b655:	48 89 85 a0 fb ff ff 	mov    %rax,-0x460(%rbp)
    b65c:	48 8d 85 58 ed ff ff 	lea    -0x12a8(%rbp),%rax
    b663:	48 89 85 a8 fb ff ff 	mov    %rax,-0x458(%rbp)
    b66a:	48 8d 85 58 ed ff ff 	lea    -0x12a8(%rbp),%rax
    b671:	48 89 85 b0 fb ff ff 	mov    %rax,-0x450(%rbp)
    b678:	48 8d 85 58 ed ff ff 	lea    -0x12a8(%rbp),%rax
    b67f:	48 89 85 b8 fb ff ff 	mov    %rax,-0x448(%rbp)
    b686:	48 8d 85 58 ed ff ff 	lea    -0x12a8(%rbp),%rax
    b68d:	48 89 85 c0 fb ff ff 	mov    %rax,-0x440(%rbp)
    b694:	48 c7 85 c8 fb ff ff 	movq   $0x0,-0x438(%rbp)
    b69b:	00 00 00 00 
    b69f:	48 8d 85 58 ed ff ff 	lea    -0x12a8(%rbp),%rax
    b6a6:	48 89 85 d0 fb ff ff 	mov    %rax,-0x430(%rbp)
    b6ad:	48 8d 85 58 ed ff ff 	lea    -0x12a8(%rbp),%rax
    b6b4:	48 89 85 d8 fb ff ff 	mov    %rax,-0x428(%rbp)
    b6bb:	48 8d 85 58 ed ff ff 	lea    -0x12a8(%rbp),%rax
    b6c2:	48 89 85 e0 fb ff ff 	mov    %rax,-0x420(%rbp)
    b6c9:	48 8d 85 58 ed ff ff 	lea    -0x12a8(%rbp),%rax
    b6d0:	48 89 85 e8 fb ff ff 	mov    %rax,-0x418(%rbp)
    b6d7:	48 8d 85 58 ed ff ff 	lea    -0x12a8(%rbp),%rax
    b6de:	48 89 85 f0 fb ff ff 	mov    %rax,-0x410(%rbp)
    b6e5:	48 8d 85 58 ed ff ff 	lea    -0x12a8(%rbp),%rax
    b6ec:	48 89 85 f8 fb ff ff 	mov    %rax,-0x408(%rbp)
    b6f3:	48 8d 85 58 ed ff ff 	lea    -0x12a8(%rbp),%rax
    b6fa:	48 89 85 00 fc ff ff 	mov    %rax,-0x400(%rbp)
    b701:	48 8d 85 58 ed ff ff 	lea    -0x12a8(%rbp),%rax
    b708:	48 89 85 08 fc ff ff 	mov    %rax,-0x3f8(%rbp)
    b70f:	48 8d 85 58 ed ff ff 	lea    -0x12a8(%rbp),%rax
    b716:	48 89 85 10 fc ff ff 	mov    %rax,-0x3f0(%rbp)
    b71d:	48 8d 85 58 ed ff ff 	lea    -0x12a8(%rbp),%rax
    b724:	48 89 85 18 fc ff ff 	mov    %rax,-0x3e8(%rbp)
    b72b:	48 8d 85 58 ed ff ff 	lea    -0x12a8(%rbp),%rax
    b732:	48 89 85 20 fc ff ff 	mov    %rax,-0x3e0(%rbp)
    b739:	48 8d 85 58 ed ff ff 	lea    -0x12a8(%rbp),%rax
    b740:	48 89 85 28 fc ff ff 	mov    %rax,-0x3d8(%rbp)
    b747:	48 8d 85 58 ed ff ff 	lea    -0x12a8(%rbp),%rax
    b74e:	48 89 85 30 fc ff ff 	mov    %rax,-0x3d0(%rbp)
    b755:	48 8d 85 58 ed ff ff 	lea    -0x12a8(%rbp),%rax
    b75c:	48 89 85 38 fc ff ff 	mov    %rax,-0x3c8(%rbp)
    b763:	48 8d 85 58 ed ff ff 	lea    -0x12a8(%rbp),%rax
    b76a:	48 89 85 40 fc ff ff 	mov    %rax,-0x3c0(%rbp)
    b771:	48 8d 85 58 ed ff ff 	lea    -0x12a8(%rbp),%rax
    b778:	48 89 85 48 fc ff ff 	mov    %rax,-0x3b8(%rbp)
    b77f:	48 8d 85 58 ed ff ff 	lea    -0x12a8(%rbp),%rax
    b786:	48 89 85 50 fc ff ff 	mov    %rax,-0x3b0(%rbp)
    b78d:	48 c7 85 58 fc ff ff 	movq   $0x0,-0x3a8(%rbp)
    b794:	00 00 00 00 
    b798:	48 8d 85 58 ed ff ff 	lea    -0x12a8(%rbp),%rax
    b79f:	48 89 85 60 fc ff ff 	mov    %rax,-0x3a0(%rbp)
    b7a6:	48 8d 85 58 ed ff ff 	lea    -0x12a8(%rbp),%rax
    b7ad:	48 89 85 68 fc ff ff 	mov    %rax,-0x398(%rbp)
    b7b4:	48 8d 85 58 ed ff ff 	lea    -0x12a8(%rbp),%rax
    b7bb:	48 89 85 70 fc ff ff 	mov    %rax,-0x390(%rbp)
    b7c2:	48 8d 85 58 ed ff ff 	lea    -0x12a8(%rbp),%rax
    b7c9:	48 89 85 78 fc ff ff 	mov    %rax,-0x388(%rbp)
    b7d0:	48 8d 85 58 ed ff ff 	lea    -0x12a8(%rbp),%rax
    b7d7:	48 89 85 80 fc ff ff 	mov    %rax,-0x380(%rbp)
    b7de:	48 8d 85 58 ed ff ff 	lea    -0x12a8(%rbp),%rax
    b7e5:	48 89 85 88 fc ff ff 	mov    %rax,-0x378(%rbp)
    b7ec:	48 8d 85 58 ed ff ff 	lea    -0x12a8(%rbp),%rax
    b7f3:	48 89 85 90 fc ff ff 	mov    %rax,-0x370(%rbp)
    b7fa:	48 8d 85 58 ed ff ff 	lea    -0x12a8(%rbp),%rax
    b801:	48 89 85 98 fc ff ff 	mov    %rax,-0x368(%rbp)
    b808:	48 8d 85 58 ed ff ff 	lea    -0x12a8(%rbp),%rax
    b80f:	48 89 85 a0 fc ff ff 	mov    %rax,-0x360(%rbp)
    b816:	48 8d 85 58 ed ff ff 	lea    -0x12a8(%rbp),%rax
    b81d:	48 89 85 a8 fc ff ff 	mov    %rax,-0x358(%rbp)
    b824:	48 8d 85 58 ed ff ff 	lea    -0x12a8(%rbp),%rax
    b82b:	48 89 85 b0 fc ff ff 	mov    %rax,-0x350(%rbp)
    b832:	48 8d 85 58 ed ff ff 	lea    -0x12a8(%rbp),%rax
    b839:	48 89 85 b8 fc ff ff 	mov    %rax,-0x348(%rbp)
    b840:	48 8d 85 58 ed ff ff 	lea    -0x12a8(%rbp),%rax
    b847:	48 89 85 c0 fc ff ff 	mov    %rax,-0x340(%rbp)
    b84e:	48 c7 85 c8 fc ff ff 	movq   $0x0,-0x338(%rbp)
    b855:	00 00 00 00 
    b859:	48 8d 85 58 ed ff ff 	lea    -0x12a8(%rbp),%rax
    b860:	48 89 85 d0 fc ff ff 	mov    %rax,-0x330(%rbp)
    b867:	48 8d 85 58 ed ff ff 	lea    -0x12a8(%rbp),%rax
    b86e:	48 89 85 d8 fc ff ff 	mov    %rax,-0x328(%rbp)
    b875:	48 8d 85 58 ed ff ff 	lea    -0x12a8(%rbp),%rax
    b87c:	48 89 85 e0 fc ff ff 	mov    %rax,-0x320(%rbp)
    b883:	48 8d 85 58 ed ff ff 	lea    -0x12a8(%rbp),%rax
    b88a:	48 89 85 e8 fc ff ff 	mov    %rax,-0x318(%rbp)
    b891:	48 8d 85 58 ed ff ff 	lea    -0x12a8(%rbp),%rax
    b898:	48 89 85 f0 fc ff ff 	mov    %rax,-0x310(%rbp)
    b89f:	48 8d 85 58 ed ff ff 	lea    -0x12a8(%rbp),%rax
    b8a6:	48 89 85 f8 fc ff ff 	mov    %rax,-0x308(%rbp)
    b8ad:	48 8d 85 58 ed ff ff 	lea    -0x12a8(%rbp),%rax
    b8b4:	48 89 85 00 fd ff ff 	mov    %rax,-0x300(%rbp)
    b8bb:	48 8d 85 58 ed ff ff 	lea    -0x12a8(%rbp),%rax
    b8c2:	48 89 85 08 fd ff ff 	mov    %rax,-0x2f8(%rbp)
    b8c9:	48 8d 85 58 ed ff ff 	lea    -0x12a8(%rbp),%rax
    b8d0:	48 89 85 10 fd ff ff 	mov    %rax,-0x2f0(%rbp)
    b8d7:	48 8d 85 58 ed ff ff 	lea    -0x12a8(%rbp),%rax
    b8de:	48 89 85 18 fd ff ff 	mov    %rax,-0x2e8(%rbp)
    b8e5:	48 8d 85 58 ed ff ff 	lea    -0x12a8(%rbp),%rax
    b8ec:	48 89 85 20 fd ff ff 	mov    %rax,-0x2e0(%rbp)
    b8f3:	48 8d 85 58 ed ff ff 	lea    -0x12a8(%rbp),%rax
    b8fa:	48 89 85 28 fd ff ff 	mov    %rax,-0x2d8(%rbp)
    b901:	48 8d 85 58 ed ff ff 	lea    -0x12a8(%rbp),%rax
    b908:	48 89 85 30 fd ff ff 	mov    %rax,-0x2d0(%rbp)
    b90f:	48 8d 85 58 ed ff ff 	lea    -0x12a8(%rbp),%rax
    b916:	48 89 85 38 fd ff ff 	mov    %rax,-0x2c8(%rbp)
    b91d:	48 8d 85 58 ed ff ff 	lea    -0x12a8(%rbp),%rax
    b924:	48 89 85 40 fd ff ff 	mov    %rax,-0x2c0(%rbp)
    b92b:	48 8d 85 58 ed ff ff 	lea    -0x12a8(%rbp),%rax
    b932:	48 89 85 48 fd ff ff 	mov    %rax,-0x2b8(%rbp)
    b939:	48 8d 85 58 ed ff ff 	lea    -0x12a8(%rbp),%rax
    b940:	48 89 85 50 fd ff ff 	mov    %rax,-0x2b0(%rbp)
    b947:	48 c7 85 58 fd ff ff 	movq   $0x0,-0x2a8(%rbp)
    b94e:	00 00 00 00 
    b952:	48 8d 85 58 ed ff ff 	lea    -0x12a8(%rbp),%rax
    b959:	48 89 85 60 fd ff ff 	mov    %rax,-0x2a0(%rbp)
    b960:	48 8d 85 58 ed ff ff 	lea    -0x12a8(%rbp),%rax
    b967:	48 89 85 68 fd ff ff 	mov    %rax,-0x298(%rbp)
    b96e:	48 8d 85 58 ed ff ff 	lea    -0x12a8(%rbp),%rax
    b975:	48 89 85 70 fd ff ff 	mov    %rax,-0x290(%rbp)
    b97c:	48 8d 85 58 ed ff ff 	lea    -0x12a8(%rbp),%rax
    b983:	48 89 85 78 fd ff ff 	mov    %rax,-0x288(%rbp)
    b98a:	48 8d 85 58 ed ff ff 	lea    -0x12a8(%rbp),%rax
    b991:	48 89 85 80 fd ff ff 	mov    %rax,-0x280(%rbp)
    b998:	48 c7 85 88 fd ff ff 	movq   $0x0,-0x278(%rbp)
    b99f:	00 00 00 00 
    b9a3:	48 8d 85 58 ed ff ff 	lea    -0x12a8(%rbp),%rax
    b9aa:	48 89 85 90 fd ff ff 	mov    %rax,-0x270(%rbp)
    b9b1:	48 8d 85 58 ed ff ff 	lea    -0x12a8(%rbp),%rax
    b9b8:	48 89 85 98 fd ff ff 	mov    %rax,-0x268(%rbp)
    b9bf:	48 c7 85 a0 fd ff ff 	movq   $0x0,-0x260(%rbp)
    b9c6:	00 00 00 00 
    b9ca:	48 8d 85 58 ed ff ff 	lea    -0x12a8(%rbp),%rax
    b9d1:	48 89 85 a8 fd ff ff 	mov    %rax,-0x258(%rbp)
    b9d8:	48 8d 85 58 ed ff ff 	lea    -0x12a8(%rbp),%rax
    b9df:	48 89 85 b0 fd ff ff 	mov    %rax,-0x250(%rbp)
    b9e6:	48 8d 85 58 ed ff ff 	lea    -0x12a8(%rbp),%rax
    b9ed:	48 89 85 b8 fd ff ff 	mov    %rax,-0x248(%rbp)
    b9f4:	48 8d 85 58 ed ff ff 	lea    -0x12a8(%rbp),%rax
    b9fb:	48 89 85 c0 fd ff ff 	mov    %rax,-0x240(%rbp)
    ba02:	48 8d 85 58 ed ff ff 	lea    -0x12a8(%rbp),%rax
    ba09:	48 89 85 c8 fd ff ff 	mov    %rax,-0x238(%rbp)
    ba10:	48 8d 85 58 ed ff ff 	lea    -0x12a8(%rbp),%rax
    ba17:	48 89 85 d0 fd ff ff 	mov    %rax,-0x230(%rbp)
    ba1e:	48 8d 85 58 ed ff ff 	lea    -0x12a8(%rbp),%rax
    ba25:	48 89 85 d8 fd ff ff 	mov    %rax,-0x228(%rbp)
    ba2c:	48 8d 85 58 ed ff ff 	lea    -0x12a8(%rbp),%rax
    ba33:	48 89 85 e0 fd ff ff 	mov    %rax,-0x220(%rbp)
    ba3a:	48 8d 85 58 ed ff ff 	lea    -0x12a8(%rbp),%rax
    ba41:	48 89 85 e8 fd ff ff 	mov    %rax,-0x218(%rbp)
    ba48:	48 c7 85 f0 fd ff ff 	movq   $0x0,-0x210(%rbp)
    ba4f:	00 00 00 00 
    ba53:	48 8d 85 58 ed ff ff 	lea    -0x12a8(%rbp),%rax
    ba5a:	48 89 85 f8 fd ff ff 	mov    %rax,-0x208(%rbp)
    ba61:	48 8d 85 58 ed ff ff 	lea    -0x12a8(%rbp),%rax
    ba68:	48 89 85 00 fe ff ff 	mov    %rax,-0x200(%rbp)
    ba6f:	48 8d 85 58 ed ff ff 	lea    -0x12a8(%rbp),%rax
    ba76:	48 89 85 08 fe ff ff 	mov    %rax,-0x1f8(%rbp)
    ba7d:	48 8d 85 58 ed ff ff 	lea    -0x12a8(%rbp),%rax
    ba84:	48 89 85 10 fe ff ff 	mov    %rax,-0x1f0(%rbp)
    ba8b:	48 8d 85 58 ed ff ff 	lea    -0x12a8(%rbp),%rax
    ba92:	48 89 85 18 fe ff ff 	mov    %rax,-0x1e8(%rbp)
    ba99:	48 8d 85 58 ed ff ff 	lea    -0x12a8(%rbp),%rax
    baa0:	48 89 85 20 fe ff ff 	mov    %rax,-0x1e0(%rbp)
    baa7:	48 8d 85 58 ed ff ff 	lea    -0x12a8(%rbp),%rax
    baae:	48 89 85 28 fe ff ff 	mov    %rax,-0x1d8(%rbp)
    bab5:	48 8d 85 58 ed ff ff 	lea    -0x12a8(%rbp),%rax
    babc:	48 89 85 30 fe ff ff 	mov    %rax,-0x1d0(%rbp)
    bac3:	48 8d 85 58 ed ff ff 	lea    -0x12a8(%rbp),%rax
    baca:	48 89 85 38 fe ff ff 	mov    %rax,-0x1c8(%rbp)
    bad1:	48 8d 85 58 ed ff ff 	lea    -0x12a8(%rbp),%rax
    bad8:	48 89 85 40 fe ff ff 	mov    %rax,-0x1c0(%rbp)
    badf:	48 8d 85 58 ed ff ff 	lea    -0x12a8(%rbp),%rax
    bae6:	48 89 85 48 fe ff ff 	mov    %rax,-0x1b8(%rbp)
    baed:	48 8d 85 58 ed ff ff 	lea    -0x12a8(%rbp),%rax
    baf4:	48 89 85 50 fe ff ff 	mov    %rax,-0x1b0(%rbp)
    bafb:	48 8d 85 58 ed ff ff 	lea    -0x12a8(%rbp),%rax
    bb02:	48 89 85 58 fe ff ff 	mov    %rax,-0x1a8(%rbp)
    bb09:	48 8d 85 58 ed ff ff 	lea    -0x12a8(%rbp),%rax
    bb10:	48 89 85 60 fe ff ff 	mov    %rax,-0x1a0(%rbp)
    bb17:	48 8d 85 58 ed ff ff 	lea    -0x12a8(%rbp),%rax
    bb1e:	48 89 85 68 fe ff ff 	mov    %rax,-0x198(%rbp)
    bb25:	48 8d 85 58 ed ff ff 	lea    -0x12a8(%rbp),%rax
    bb2c:	48 89 85 70 fe ff ff 	mov    %rax,-0x190(%rbp)
    bb33:	48 8d 85 58 ed ff ff 	lea    -0x12a8(%rbp),%rax
    bb3a:	48 89 85 78 fe ff ff 	mov    %rax,-0x188(%rbp)
    bb41:	48 8d 85 58 ed ff ff 	lea    -0x12a8(%rbp),%rax
    bb48:	48 89 85 80 fe ff ff 	mov    %rax,-0x180(%rbp)
    bb4f:	48 8d 85 58 ed ff ff 	lea    -0x12a8(%rbp),%rax
    bb56:	48 89 85 88 fe ff ff 	mov    %rax,-0x178(%rbp)
    bb5d:	48 8d 85 58 ed ff ff 	lea    -0x12a8(%rbp),%rax
    bb64:	48 89 85 90 fe ff ff 	mov    %rax,-0x170(%rbp)
    bb6b:	48 8d 85 58 ed ff ff 	lea    -0x12a8(%rbp),%rax
    bb72:	48 89 85 98 fe ff ff 	mov    %rax,-0x168(%rbp)
    bb79:	48 8d 85 58 ed ff ff 	lea    -0x12a8(%rbp),%rax
    bb80:	48 89 85 a0 fe ff ff 	mov    %rax,-0x160(%rbp)
    bb87:	48 8d 85 58 ed ff ff 	lea    -0x12a8(%rbp),%rax
    bb8e:	48 89 85 a8 fe ff ff 	mov    %rax,-0x158(%rbp)
    bb95:	48 8d 85 58 ed ff ff 	lea    -0x12a8(%rbp),%rax
    bb9c:	48 89 85 b0 fe ff ff 	mov    %rax,-0x150(%rbp)
    bba3:	48 8d 85 58 ed ff ff 	lea    -0x12a8(%rbp),%rax
    bbaa:	48 89 85 b8 fe ff ff 	mov    %rax,-0x148(%rbp)
    bbb1:	48 8d 85 58 ed ff ff 	lea    -0x12a8(%rbp),%rax
    bbb8:	48 89 85 c0 fe ff ff 	mov    %rax,-0x140(%rbp)
    bbbf:	48 8d 85 58 ed ff ff 	lea    -0x12a8(%rbp),%rax
    bbc6:	48 89 85 c8 fe ff ff 	mov    %rax,-0x138(%rbp)
    bbcd:	48 8d 85 58 ed ff ff 	lea    -0x12a8(%rbp),%rax
    bbd4:	48 89 85 d0 fe ff ff 	mov    %rax,-0x130(%rbp)
    bbdb:	48 8d 85 58 ed ff ff 	lea    -0x12a8(%rbp),%rax
    bbe2:	48 89 85 d8 fe ff ff 	mov    %rax,-0x128(%rbp)
    bbe9:	48 8d 85 58 ed ff ff 	lea    -0x12a8(%rbp),%rax
    bbf0:	48 89 85 e0 fe ff ff 	mov    %rax,-0x120(%rbp)
    bbf7:	48 8d 85 58 ed ff ff 	lea    -0x12a8(%rbp),%rax
    bbfe:	48 89 85 e8 fe ff ff 	mov    %rax,-0x118(%rbp)
    bc05:	48 8d 85 58 ed ff ff 	lea    -0x12a8(%rbp),%rax
    bc0c:	48 89 85 f0 fe ff ff 	mov    %rax,-0x110(%rbp)
    bc13:	48 8d 85 58 ed ff ff 	lea    -0x12a8(%rbp),%rax
    bc1a:	48 89 85 f8 fe ff ff 	mov    %rax,-0x108(%rbp)
    bc21:	48 8d 85 58 ed ff ff 	lea    -0x12a8(%rbp),%rax
    bc28:	48 89 85 00 ff ff ff 	mov    %rax,-0x100(%rbp)
    bc2f:	48 8d 85 58 ed ff ff 	lea    -0x12a8(%rbp),%rax
    bc36:	48 89 85 08 ff ff ff 	mov    %rax,-0xf8(%rbp)
    bc3d:	48 8d 85 58 ed ff ff 	lea    -0x12a8(%rbp),%rax
    bc44:	48 89 85 10 ff ff ff 	mov    %rax,-0xf0(%rbp)
    bc4b:	48 8d 85 58 ed ff ff 	lea    -0x12a8(%rbp),%rax
    bc52:	48 89 85 18 ff ff ff 	mov    %rax,-0xe8(%rbp)
    bc59:	48 8d 85 58 ed ff ff 	lea    -0x12a8(%rbp),%rax
    bc60:	48 89 85 20 ff ff ff 	mov    %rax,-0xe0(%rbp)
    bc67:	48 8d 85 58 ed ff ff 	lea    -0x12a8(%rbp),%rax
    bc6e:	48 89 85 28 ff ff ff 	mov    %rax,-0xd8(%rbp)
    bc75:	48 8d 85 58 ed ff ff 	lea    -0x12a8(%rbp),%rax
    bc7c:	48 89 85 30 ff ff ff 	mov    %rax,-0xd0(%rbp)
    bc83:	48 8d 85 58 ed ff ff 	lea    -0x12a8(%rbp),%rax
    bc8a:	48 89 85 38 ff ff ff 	mov    %rax,-0xc8(%rbp)
    bc91:	48 c7 85 40 ff ff ff 	movq   $0x0,-0xc0(%rbp)
    bc98:	00 00 00 00 
    bc9c:	48 8d 85 58 ed ff ff 	lea    -0x12a8(%rbp),%rax
    bca3:	48 89 85 48 ff ff ff 	mov    %rax,-0xb8(%rbp)
    bcaa:	48 8d 85 58 ed ff ff 	lea    -0x12a8(%rbp),%rax
    bcb1:	48 89 85 50 ff ff ff 	mov    %rax,-0xb0(%rbp)
    bcb8:	48 8d 85 58 ed ff ff 	lea    -0x12a8(%rbp),%rax
    bcbf:	48 89 85 58 ff ff ff 	mov    %rax,-0xa8(%rbp)
    bcc6:	48 8d 85 58 ed ff ff 	lea    -0x12a8(%rbp),%rax
    bccd:	48 89 85 60 ff ff ff 	mov    %rax,-0xa0(%rbp)
    bcd4:	48 8d 85 58 ed ff ff 	lea    -0x12a8(%rbp),%rax
    bcdb:	48 89 85 68 ff ff ff 	mov    %rax,-0x98(%rbp)
    bce2:	48 8d 85 58 ed ff ff 	lea    -0x12a8(%rbp),%rax
    bce9:	48 89 85 70 ff ff ff 	mov    %rax,-0x90(%rbp)
    bcf0:	48 8d 85 58 ed ff ff 	lea    -0x12a8(%rbp),%rax
    bcf7:	48 89 85 78 ff ff ff 	mov    %rax,-0x88(%rbp)
    bcfe:	48 8d 85 58 ed ff ff 	lea    -0x12a8(%rbp),%rax
    bd05:	48 89 45 80          	mov    %rax,-0x80(%rbp)
    bd09:	48 8d 85 58 ed ff ff 	lea    -0x12a8(%rbp),%rax
    bd10:	48 89 45 88          	mov    %rax,-0x78(%rbp)
    bd14:	48 c7 45 90 00 00 00 	movq   $0x0,-0x70(%rbp)
    bd1b:	00 
    bd1c:	48 8d 85 58 ed ff ff 	lea    -0x12a8(%rbp),%rax
    bd23:	48 89 45 98          	mov    %rax,-0x68(%rbp)
    bd27:	48 8d 85 58 ed ff ff 	lea    -0x12a8(%rbp),%rax
    bd2e:	48 89 45 a0          	mov    %rax,-0x60(%rbp)
    bd32:	48 c7 45 a8 00 00 00 	movq   $0x0,-0x58(%rbp)
    bd39:	00 
    bd3a:	48 8d 85 58 ed ff ff 	lea    -0x12a8(%rbp),%rax
    bd41:	48 89 45 b0          	mov    %rax,-0x50(%rbp)
    bd45:	48 8d 85 58 ed ff ff 	lea    -0x12a8(%rbp),%rax
    bd4c:	48 89 45 b8          	mov    %rax,-0x48(%rbp)
    bd50:	48 8d 85 58 ed ff ff 	lea    -0x12a8(%rbp),%rax
    bd57:	48 89 45 c0          	mov    %rax,-0x40(%rbp)
    bd5b:	48 8d 85 58 ed ff ff 	lea    -0x12a8(%rbp),%rax
    bd62:	48 89 45 c8          	mov    %rax,-0x38(%rbp)
    bd66:	48 8d 85 58 ed ff ff 	lea    -0x12a8(%rbp),%rax
    bd6d:	48 89 45 d0          	mov    %rax,-0x30(%rbp)
    bd71:	48 8d 85 58 ed ff ff 	lea    -0x12a8(%rbp),%rax
    bd78:	48 89 45 d8          	mov    %rax,-0x28(%rbp)
    bd7c:	48 8d 85 58 ed ff ff 	lea    -0x12a8(%rbp),%rax
    bd83:	48 89 45 e0          	mov    %rax,-0x20(%rbp)
    bd87:	48 8d 85 40 f8 ff ff 	lea    -0x7c0(%rbp),%rax
    bd8e:	48 05 80 06 00 00    	add    $0x680,%rax
    bd94:	48 89 85 c0 ed ff ff 	mov    %rax,-0x1240(%rbp)
    bd9b:	0f be 85 fc ec ff ff 	movsbl -0x1304(%rbp),%eax
    bda2:	48 8b 95 78 ed ff ff 	mov    -0x1288(%rbp),%rdx
    bda9:	31 d0                	xor    %edx,%eax
    bdab:	89 c1                	mov    %eax,%ecx
    bdad:	48 8b 05 6c 5b 01 00 	mov    0x15b6c(%rip),%rax        # 21920 <g_360>
    bdb4:	48 8b 95 f0 ec ff ff 	mov    -0x1310(%rbp),%rdx
    bdbb:	89 10                	mov    %edx,(%rax)
    bdbd:	8b 00                	mov    (%rax),%eax
    bdbf:	89 ce                	mov    %ecx,%esi
    bdc1:	89 c7                	mov    %eax,%edi
    bdc3:	e8 35 d1 ff ff       	callq  8efd <safe_mod_func_uint32_t_u_u>
    bdc8:	83 f8 64             	cmp    $0x64,%eax
    bdcb:	0f 96 c0             	setbe  %al
    bdce:	0f b6 c0             	movzbl %al,%eax
    bdd1:	48 39 85 78 ed ff ff 	cmp    %rax,-0x1288(%rbp)
    bdd8:	0f 9d c0             	setge  %al
    bddb:	0f b6 d8             	movzbl %al,%ebx
    bdde:	48 8b 05 eb 39 01 00 	mov    0x139eb(%rip),%rax        # 1f7d0 <g_2257>
    bde5:	41 89 c4             	mov    %eax,%r12d
    bde8:	48 8b 85 78 ed ff ff 	mov    -0x1288(%rbp),%rax
    bdef:	0f be d0             	movsbl %al,%edx
    bdf2:	8b 85 24 ed ff ff    	mov    -0x12dc(%rbp),%eax
    bdf8:	0f be c0             	movsbl %al,%eax
    bdfb:	89 d6                	mov    %edx,%esi
    bdfd:	89 c7                	mov    %eax,%edi
    bdff:	e8 d0 c3 ff ff       	callq  81d4 <safe_add_func_int8_t_s_s>
    be04:	0f b6 d0             	movzbl %al,%edx
    be07:	48 8b 05 82 5e 01 00 	mov    0x15e82(%rip),%rax        # 21c90 <g_980>
    be0e:	0f b7 08             	movzwl (%rax),%ecx
    be11:	83 c1 01             	add    $0x1,%ecx
    be14:	66 89 08             	mov    %cx,(%rax)
    be17:	8b 85 2c ed ff ff    	mov    -0x12d4(%rbp),%eax
    be1d:	33 85 30 ed ff ff    	xor    -0x12d0(%rbp),%eax
    be23:	89 85 2c ed ff ff    	mov    %eax,-0x12d4(%rbp)
    be29:	8b 8d 2c ed ff ff    	mov    -0x12d4(%rbp),%ecx
    be2f:	8b 85 28 ed ff ff    	mov    -0x12d8(%rbp),%eax
    be35:	31 c8                	xor    %ecx,%eax
    be37:	89 85 28 ed ff ff    	mov    %eax,-0x12d8(%rbp)
    be3d:	8b 85 28 ed ff ff    	mov    -0x12d8(%rbp),%eax
    be43:	0f b6 c0             	movzbl %al,%eax
    be46:	89 d6                	mov    %edx,%esi
    be48:	89 c7                	mov    %eax,%edi
    be4a:	e8 29 cd ff ff       	callq  8b78 <safe_sub_func_uint8_t_u_u>
    be4f:	0f b6 c0             	movzbl %al,%eax
    be52:	48 39 85 00 ed ff ff 	cmp    %rax,-0x1300(%rbp)
    be59:	0f 94 c0             	sete   %al
    be5c:	f7 d0                	not    %eax
    be5e:	0f be c0             	movsbl %al,%eax
    be61:	44 89 e6             	mov    %r12d,%esi
    be64:	89 c7                	mov    %eax,%edi
    be66:	e8 01 c5 ff ff       	callq  836c <safe_rshift_func_int8_t_s_u>
    be6b:	0f be c0             	movsbl %al,%eax
    be6e:	39 c3                	cmp    %eax,%ebx
    be70:	0f 9c c0             	setl   %al
    be73:	0f b6 c0             	movzbl %al,%eax
    be76:	be 0b 00 00 00       	mov    $0xb,%esi
    be7b:	89 c7                	mov    %eax,%edi
    be7d:	e8 10 c6 ff ff       	callq  8492 <safe_lshift_func_int16_t_s_s>
    be82:	66 85 c0             	test   %ax,%ax
    be85:	74 11                	je     be98 <func_6+0x18da>
    be87:	8b 85 34 ee ff ff    	mov    -0x11cc(%rbp),%eax
    be8d:	85 c0                	test   %eax,%eax
    be8f:	74 07                	je     be98 <func_6+0x18da>
    be91:	b8 01 00 00 00       	mov    $0x1,%eax
    be96:	eb 05                	jmp    be9d <func_6+0x18df>
    be98:	b8 00 00 00 00       	mov    $0x0,%eax
    be9d:	0f be c0             	movsbl %al,%eax
    bea0:	8b 95 3c ed ff ff    	mov    -0x12c4(%rbp),%edx
    bea6:	89 d6                	mov    %edx,%esi
    bea8:	89 c7                	mov    %eax,%edi
    beaa:	e8 86 c4 ff ff       	callq  8335 <safe_rshift_func_int8_t_s_s>
    beaf:	84 c0                	test   %al,%al
    beb1:	0f 94 c0             	sete   %al
    beb4:	0f b6 c0             	movzbl %al,%eax
    beb7:	39 85 08 ed ff ff    	cmp    %eax,-0x12f8(%rbp)
    bebd:	0f 95 c0             	setne  %al
    bec0:	0f b6 d0             	movzbl %al,%edx
    bec3:	0f b6 05 00 39 01 00 	movzbl 0x13900(%rip),%eax        # 1f7ca <g_2216+0x2>
    beca:	0f be c0             	movsbl %al,%eax
    becd:	39 c2                	cmp    %eax,%edx
    becf:	0f 94 c0             	sete   %al
    bed2:	0f b6 c8             	movzbl %al,%ecx
    bed5:	48 8b 05 a4 66 01 00 	mov    0x166a4(%rip),%rax        # 22580 <g_1877>
    bedc:	8b 10                	mov    (%rax),%edx
    bede:	48 8b 05 9b 66 01 00 	mov    0x1669b(%rip),%rax        # 22580 <g_1877>
    bee5:	31 ca                	xor    %ecx,%edx
    bee7:	89 10                	mov    %edx,(%rax)
    bee9:	83 85 4c ed ff ff 01 	addl   $0x1,-0x12b4(%rbp)
    bef0:	48 8d 85 50 f0 ff ff 	lea    -0xfb0(%rbp),%rax
    bef7:	48 05 2c 02 00 00    	add    $0x22c,%rax
    befd:	48 89 85 90 ed ff ff 	mov    %rax,-0x1270(%rbp)
    bf04:	0f b6 05 4d 33 01 00 	movzbl 0x1334d(%rip),%eax        # 1f258 <g_437+0x78>
    bf0b:	83 e0 03             	and    $0x3,%eax
    bf0e:	0f b6 d8             	movzbl %al,%ebx
    bf11:	0f b7 05 a0 34 01 00 	movzwl 0x134a0(%rip),%eax        # 1f3b8 <g_1336>
    bf18:	0f b6 c0             	movzbl %al,%eax
    bf1b:	89 c6                	mov    %eax,%esi
    bf1d:	bf 37 00 00 00       	mov    $0x37,%edi
    bf22:	e8 51 cc ff ff       	callq  8b78 <safe_sub_func_uint8_t_u_u>
    bf27:	48 89 de             	mov    %rbx,%rsi
    bf2a:	bf 00 00 00 00       	mov    $0x0,%edi
    bf2f:	e8 17 d1 ff ff       	callq  904b <safe_sub_func_uint64_t_u_u>
    bf34:	48 8b 95 90 ed ff ff 	mov    -0x1270(%rbp),%rdx
    bf3b:	8b 12                	mov    (%rdx),%edx
    bf3d:	31 d0                	xor    %edx,%eax
    bf3f:	89 c2                	mov    %eax,%edx
    bf41:	48 8b 85 90 ed ff ff 	mov    -0x1270(%rbp),%rax
    bf48:	89 10                	mov    %edx,(%rax)
    bf4a:	0f b6 05 50 33 01 00 	movzbl 0x13350(%rip),%eax        # 1f2a1 <g_616+0x1>
    bf51:	0f b6 c0             	movzbl %al,%eax
    bf54:	be 01 00 00 00       	mov    $0x1,%esi
    bf59:	89 c7                	mov    %eax,%edi
    bf5b:	e8 fa cb ff ff       	callq  8b5a <safe_add_func_uint8_t_u_u>
    bf60:	88 05 3b 33 01 00    	mov    %al,0x1333b(%rip)        # 1f2a1 <g_616+0x1>
    bf66:	0f b6 05 34 33 01 00 	movzbl 0x13334(%rip),%eax        # 1f2a1 <g_616+0x1>
    bf6d:	3c 34                	cmp    $0x34,%al
    bf6f:	0f 85 15 e9 ff ff    	jne    a88a <func_6+0x2cc>
    bf75:	48 8b 85 68 ed ff ff 	mov    -0x1298(%rbp),%rax
    bf7c:	48 8b 5d e8          	mov    -0x18(%rbp),%rbx
    bf80:	64 48 33 1c 25 28 00 	xor    %fs:0x28,%rbx
    bf87:	00 00 
    bf89:	74 05                	je     bf90 <func_6+0x19d2>
    bf8b:	e8 e0 c0 ff ff       	callq  8070 <__stack_chk_fail@plt>
    bf90:	48 81 c4 00 13 00 00 	add    $0x1300,%rsp
    bf97:	5b                   	pop    %rbx
    bf98:	41 5c                	pop    %r12
    bf9a:	5d                   	pop    %rbp
    bf9b:	c3                   	retq   

000000000000bf9c <func_12>:
    bf9c:	f3 0f 1e fa          	endbr64 
    bfa0:	55                   	push   %rbp
    bfa1:	48 89 e5             	mov    %rsp,%rbp
    bfa4:	41 57                	push   %r15
    bfa6:	41 56                	push   %r14
    bfa8:	41 55                	push   %r13
    bfaa:	41 54                	push   %r12
    bfac:	53                   	push   %rbx
    bfad:	48 81 ec 98 03 00 00 	sub    $0x398,%rsp
    bfb4:	89 f8                	mov    %edi,%eax
    bfb6:	89 b5 68 fc ff ff    	mov    %esi,-0x398(%rbp)
    bfbc:	89 95 64 fc ff ff    	mov    %edx,-0x39c(%rbp)
    bfc2:	66 89 85 6c fc ff ff 	mov    %ax,-0x394(%rbp)
    bfc9:	64 48 8b 04 25 28 00 	mov    %fs:0x28,%rax
    bfd0:	00 00 
    bfd2:	48 89 45 c8          	mov    %rax,-0x38(%rbp)
    bfd6:	31 c0                	xor    %eax,%eax
    bfd8:	66 c7 85 10 fd ff ff 	movw   $0x1,-0x2f0(%rbp)
    bfdf:	01 00 
    bfe1:	66 c7 85 12 fd ff ff 	movw   $0x4,-0x2ee(%rbp)
    bfe8:	04 00 
    bfea:	66 c7 85 14 fd ff ff 	movw   $0x1,-0x2ec(%rbp)
    bff1:	01 00 
    bff3:	66 c7 85 16 fd ff ff 	movw   $0x1,-0x2ea(%rbp)
    bffa:	01 00 
    bffc:	66 c7 85 18 fd ff ff 	movw   $0x4,-0x2e8(%rbp)
    c003:	04 00 
    c005:	66 c7 85 1a fd ff ff 	movw   $0x4,-0x2e6(%rbp)
    c00c:	04 00 
    c00e:	66 c7 85 1c fd ff ff 	movw   $0xffff,-0x2e4(%rbp)
    c015:	ff ff 
    c017:	66 c7 85 1e fd ff ff 	movw   $0x4,-0x2e2(%rbp)
    c01e:	04 00 
    c020:	66 c7 85 20 fd ff ff 	movw   $0x4,-0x2e0(%rbp)
    c027:	04 00 
    c029:	66 c7 85 22 fd ff ff 	movw   $0x1,-0x2de(%rbp)
    c030:	01 00 
    c032:	66 c7 85 24 fd ff ff 	movw   $0x1,-0x2dc(%rbp)
    c039:	01 00 
    c03b:	66 c7 85 26 fd ff ff 	movw   $0x4,-0x2da(%rbp)
    c042:	04 00 
    c044:	66 c7 85 28 fd ff ff 	movw   $0x1,-0x2d8(%rbp)
    c04b:	01 00 
    c04d:	66 c7 85 2a fd ff ff 	movw   $0x4,-0x2d6(%rbp)
    c054:	04 00 
    c056:	66 c7 85 2c fd ff ff 	movw   $0x1,-0x2d4(%rbp)
    c05d:	01 00 
    c05f:	66 c7 85 2e fd ff ff 	movw   $0x1,-0x2d2(%rbp)
    c066:	01 00 
    c068:	66 c7 85 30 fd ff ff 	movw   $0x4,-0x2d0(%rbp)
    c06f:	04 00 
    c071:	66 c7 85 32 fd ff ff 	movw   $0x4,-0x2ce(%rbp)
    c078:	04 00 
    c07a:	66 c7 85 34 fd ff ff 	movw   $0xffff,-0x2cc(%rbp)
    c081:	ff ff 
    c083:	66 c7 85 36 fd ff ff 	movw   $0x4,-0x2ca(%rbp)
    c08a:	04 00 
    c08c:	66 c7 85 38 fd ff ff 	movw   $0x4,-0x2c8(%rbp)
    c093:	04 00 
    c095:	66 c7 85 3a fd ff ff 	movw   $0x1,-0x2c6(%rbp)
    c09c:	01 00 
    c09e:	66 c7 85 3c fd ff ff 	movw   $0x1,-0x2c4(%rbp)
    c0a5:	01 00 
    c0a7:	66 c7 85 3e fd ff ff 	movw   $0x4,-0x2c2(%rbp)
    c0ae:	04 00 
    c0b0:	66 c7 85 40 fd ff ff 	movw   $0x1,-0x2c0(%rbp)
    c0b7:	01 00 
    c0b9:	66 c7 85 42 fd ff ff 	movw   $0x4,-0x2be(%rbp)
    c0c0:	04 00 
    c0c2:	66 c7 85 44 fd ff ff 	movw   $0x1,-0x2bc(%rbp)
    c0c9:	01 00 
    c0cb:	66 c7 85 46 fd ff ff 	movw   $0x1,-0x2ba(%rbp)
    c0d2:	01 00 
    c0d4:	66 c7 85 48 fd ff ff 	movw   $0x4,-0x2b8(%rbp)
    c0db:	04 00 
    c0dd:	66 c7 85 4a fd ff ff 	movw   $0x4,-0x2b6(%rbp)
    c0e4:	04 00 
    c0e6:	66 c7 85 4c fd ff ff 	movw   $0xffff,-0x2b4(%rbp)
    c0ed:	ff ff 
    c0ef:	66 c7 85 4e fd ff ff 	movw   $0x4,-0x2b2(%rbp)
    c0f6:	04 00 
    c0f8:	66 c7 85 50 fd ff ff 	movw   $0x4,-0x2b0(%rbp)
    c0ff:	04 00 
    c101:	66 c7 85 52 fd ff ff 	movw   $0x1,-0x2ae(%rbp)
    c108:	01 00 
    c10a:	66 c7 85 54 fd ff ff 	movw   $0x1,-0x2ac(%rbp)
    c111:	01 00 
    c113:	66 c7 85 56 fd ff ff 	movw   $0x4,-0x2aa(%rbp)
    c11a:	04 00 
    c11c:	66 c7 85 58 fd ff ff 	movw   $0x1,-0x2a8(%rbp)
    c123:	01 00 
    c125:	66 c7 85 5a fd ff ff 	movw   $0x4,-0x2a6(%rbp)
    c12c:	04 00 
    c12e:	66 c7 85 5c fd ff ff 	movw   $0x1,-0x2a4(%rbp)
    c135:	01 00 
    c137:	66 c7 85 5e fd ff ff 	movw   $0x1,-0x2a2(%rbp)
    c13e:	01 00 
    c140:	66 c7 85 60 fd ff ff 	movw   $0x4,-0x2a0(%rbp)
    c147:	04 00 
    c149:	66 c7 85 62 fd ff ff 	movw   $0x4,-0x29e(%rbp)
    c150:	04 00 
    c152:	66 c7 85 64 fd ff ff 	movw   $0xffff,-0x29c(%rbp)
    c159:	ff ff 
    c15b:	66 c7 85 66 fd ff ff 	movw   $0x4,-0x29a(%rbp)
    c162:	04 00 
    c164:	66 c7 85 68 fd ff ff 	movw   $0x4,-0x298(%rbp)
    c16b:	04 00 
    c16d:	66 c7 85 6a fd ff ff 	movw   $0x1,-0x296(%rbp)
    c174:	01 00 
    c176:	66 c7 85 6c fd ff ff 	movw   $0x1,-0x294(%rbp)
    c17d:	01 00 
    c17f:	66 c7 85 6e fd ff ff 	movw   $0x4,-0x292(%rbp)
    c186:	04 00 
    c188:	66 c7 85 70 fd ff ff 	movw   $0x1,-0x290(%rbp)
    c18f:	01 00 
    c191:	66 c7 85 72 fd ff ff 	movw   $0x4,-0x28e(%rbp)
    c198:	04 00 
    c19a:	66 c7 85 74 fd ff ff 	movw   $0x1,-0x28c(%rbp)
    c1a1:	01 00 
    c1a3:	66 c7 85 76 fd ff ff 	movw   $0x1,-0x28a(%rbp)
    c1aa:	01 00 
    c1ac:	66 c7 85 78 fd ff ff 	movw   $0x4,-0x288(%rbp)
    c1b3:	04 00 
    c1b5:	66 c7 85 7a fd ff ff 	movw   $0x4,-0x286(%rbp)
    c1bc:	04 00 
    c1be:	66 c7 85 7c fd ff ff 	movw   $0xffff,-0x284(%rbp)
    c1c5:	ff ff 
    c1c7:	66 c7 85 7e fd ff ff 	movw   $0x4,-0x282(%rbp)
    c1ce:	04 00 
    c1d0:	66 c7 85 80 fd ff ff 	movw   $0x4,-0x280(%rbp)
    c1d7:	04 00 
    c1d9:	66 c7 85 82 fd ff ff 	movw   $0x1,-0x27e(%rbp)
    c1e0:	01 00 
    c1e2:	66 c7 85 84 fd ff ff 	movw   $0x1,-0x27c(%rbp)
    c1e9:	01 00 
    c1eb:	66 c7 85 86 fd ff ff 	movw   $0x4,-0x27a(%rbp)
    c1f2:	04 00 
    c1f4:	66 c7 85 88 fd ff ff 	movw   $0x1,-0x278(%rbp)
    c1fb:	01 00 
    c1fd:	66 c7 85 8a fd ff ff 	movw   $0x4,-0x276(%rbp)
    c204:	04 00 
    c206:	66 c7 85 8c fd ff ff 	movw   $0x1,-0x274(%rbp)
    c20d:	01 00 
    c20f:	66 c7 85 8e fd ff ff 	movw   $0x1,-0x272(%rbp)
    c216:	01 00 
    c218:	66 c7 85 90 fd ff ff 	movw   $0x4,-0x270(%rbp)
    c21f:	04 00 
    c221:	66 c7 85 92 fd ff ff 	movw   $0x4,-0x26e(%rbp)
    c228:	04 00 
    c22a:	66 c7 85 94 fd ff ff 	movw   $0xffff,-0x26c(%rbp)
    c231:	ff ff 
    c233:	66 c7 85 96 fd ff ff 	movw   $0x4,-0x26a(%rbp)
    c23a:	04 00 
    c23c:	66 c7 85 98 fd ff ff 	movw   $0x4,-0x268(%rbp)
    c243:	04 00 
    c245:	66 c7 85 9a fd ff ff 	movw   $0x1,-0x266(%rbp)
    c24c:	01 00 
    c24e:	66 c7 85 9c fd ff ff 	movw   $0x1,-0x264(%rbp)
    c255:	01 00 
    c257:	66 c7 85 9e fd ff ff 	movw   $0x4,-0x262(%rbp)
    c25e:	04 00 
    c260:	66 c7 85 a0 fd ff ff 	movw   $0x1,-0x260(%rbp)
    c267:	01 00 
    c269:	66 c7 85 a2 fd ff ff 	movw   $0x4,-0x25e(%rbp)
    c270:	04 00 
    c272:	66 c7 85 a4 fd ff ff 	movw   $0x1,-0x25c(%rbp)
    c279:	01 00 
    c27b:	66 c7 85 a6 fd ff ff 	movw   $0x1,-0x25a(%rbp)
    c282:	01 00 
    c284:	66 c7 85 a8 fd ff ff 	movw   $0x4,-0x258(%rbp)
    c28b:	04 00 
    c28d:	66 c7 85 aa fd ff ff 	movw   $0x4,-0x256(%rbp)
    c294:	04 00 
    c296:	66 c7 85 ac fd ff ff 	movw   $0xffff,-0x254(%rbp)
    c29d:	ff ff 
    c29f:	66 c7 85 ae fd ff ff 	movw   $0x4,-0x252(%rbp)
    c2a6:	04 00 
    c2a8:	66 c7 85 b0 fd ff ff 	movw   $0x4,-0x250(%rbp)
    c2af:	04 00 
    c2b1:	66 c7 85 b2 fd ff ff 	movw   $0x1,-0x24e(%rbp)
    c2b8:	01 00 
    c2ba:	66 c7 85 b4 fd ff ff 	movw   $0x1,-0x24c(%rbp)
    c2c1:	01 00 
    c2c3:	66 c7 85 b6 fd ff ff 	movw   $0x4,-0x24a(%rbp)
    c2ca:	04 00 
    c2cc:	66 c7 85 b8 fd ff ff 	movw   $0x1,-0x248(%rbp)
    c2d3:	01 00 
    c2d5:	66 c7 85 ba fd ff ff 	movw   $0x4,-0x246(%rbp)
    c2dc:	04 00 
    c2de:	66 c7 85 bc fd ff ff 	movw   $0x1,-0x244(%rbp)
    c2e5:	01 00 
    c2e7:	66 c7 85 be fd ff ff 	movw   $0x1,-0x242(%rbp)
    c2ee:	01 00 
    c2f0:	66 c7 85 c0 fd ff ff 	movw   $0x4,-0x240(%rbp)
    c2f7:	04 00 
    c2f9:	66 c7 85 c2 fd ff ff 	movw   $0x4,-0x23e(%rbp)
    c300:	04 00 
    c302:	66 c7 85 c4 fd ff ff 	movw   $0xffff,-0x23c(%rbp)
    c309:	ff ff 
    c30b:	66 c7 85 c6 fd ff ff 	movw   $0x4,-0x23a(%rbp)
    c312:	04 00 
    c314:	66 c7 85 c8 fd ff ff 	movw   $0x4,-0x238(%rbp)
    c31b:	04 00 
    c31d:	66 c7 85 ca fd ff ff 	movw   $0x1,-0x236(%rbp)
    c324:	01 00 
    c326:	66 c7 85 cc fd ff ff 	movw   $0x1,-0x234(%rbp)
    c32d:	01 00 
    c32f:	66 c7 85 ce fd ff ff 	movw   $0x4,-0x232(%rbp)
    c336:	04 00 
    c338:	66 c7 85 d0 fd ff ff 	movw   $0x1,-0x230(%rbp)
    c33f:	01 00 
    c341:	66 c7 85 d2 fd ff ff 	movw   $0x4,-0x22e(%rbp)
    c348:	04 00 
    c34a:	66 c7 85 d4 fd ff ff 	movw   $0x1,-0x22c(%rbp)
    c351:	01 00 
    c353:	66 c7 85 d6 fd ff ff 	movw   $0x1,-0x22a(%rbp)
    c35a:	01 00 
    c35c:	66 c7 85 d8 fd ff ff 	movw   $0x4,-0x228(%rbp)
    c363:	04 00 
    c365:	66 c7 85 da fd ff ff 	movw   $0x4,-0x226(%rbp)
    c36c:	04 00 
    c36e:	66 c7 85 dc fd ff ff 	movw   $0xffff,-0x224(%rbp)
    c375:	ff ff 
    c377:	66 c7 85 de fd ff ff 	movw   $0x4,-0x222(%rbp)
    c37e:	04 00 
    c380:	66 c7 85 e0 fd ff ff 	movw   $0x4,-0x220(%rbp)
    c387:	04 00 
    c389:	66 c7 85 e2 fd ff ff 	movw   $0x1,-0x21e(%rbp)
    c390:	01 00 
    c392:	66 c7 85 e4 fd ff ff 	movw   $0x1,-0x21c(%rbp)
    c399:	01 00 
    c39b:	66 c7 85 e6 fd ff ff 	movw   $0x4,-0x21a(%rbp)
    c3a2:	04 00 
    c3a4:	66 c7 85 e8 fd ff ff 	movw   $0x1,-0x218(%rbp)
    c3ab:	01 00 
    c3ad:	66 c7 85 ea fd ff ff 	movw   $0x4,-0x216(%rbp)
    c3b4:	04 00 
    c3b6:	66 c7 85 ec fd ff ff 	movw   $0x1,-0x214(%rbp)
    c3bd:	01 00 
    c3bf:	66 c7 85 ee fd ff ff 	movw   $0x1,-0x212(%rbp)
    c3c6:	01 00 
    c3c8:	66 c7 85 f0 fd ff ff 	movw   $0x4,-0x210(%rbp)
    c3cf:	04 00 
    c3d1:	66 c7 85 f2 fd ff ff 	movw   $0x4,-0x20e(%rbp)
    c3d8:	04 00 
    c3da:	66 c7 85 f4 fd ff ff 	movw   $0x4,-0x20c(%rbp)
    c3e1:	04 00 
    c3e3:	66 c7 85 f6 fd ff ff 	movw   $0x1,-0x20a(%rbp)
    c3ea:	01 00 
    c3ec:	66 c7 85 f8 fd ff ff 	movw   $0x1,-0x208(%rbp)
    c3f3:	01 00 
    c3f5:	66 c7 85 fa fd ff ff 	movw   $0xffff,-0x206(%rbp)
    c3fc:	ff ff 
    c3fe:	66 c7 85 fc fd ff ff 	movw   $0xffff,-0x204(%rbp)
    c405:	ff ff 
    c407:	66 c7 85 fe fd ff ff 	movw   $0x1,-0x202(%rbp)
    c40e:	01 00 
    c410:	66 c7 85 00 fe ff ff 	movw   $0xffff,-0x200(%rbp)
    c417:	ff ff 
    c419:	66 c7 85 02 fe ff ff 	movw   $0x1,-0x1fe(%rbp)
    c420:	01 00 
    c422:	66 c7 85 04 fe ff ff 	movw   $0xffff,-0x1fc(%rbp)
    c429:	ff ff 
    c42b:	66 c7 85 06 fe ff ff 	movw   $0xffff,-0x1fa(%rbp)
    c432:	ff ff 
    c434:	66 c7 85 08 fe ff ff 	movw   $0x1,-0x1f8(%rbp)
    c43b:	01 00 
    c43d:	66 c7 85 0a fe ff ff 	movw   $0x1,-0x1f6(%rbp)
    c444:	01 00 
    c446:	66 c7 85 0c fe ff ff 	movw   $0x4,-0x1f4(%rbp)
    c44d:	04 00 
    c44f:	66 c7 85 0e fe ff ff 	movw   $0x1,-0x1f2(%rbp)
    c456:	01 00 
    c458:	48 8d 05 d1 2b 01 00 	lea    0x12bd1(%rip),%rax        # 1f030 <g_39>
    c45f:	48 89 85 88 fc ff ff 	mov    %rax,-0x378(%rbp)
    c466:	48 8d 05 c3 2b 01 00 	lea    0x12bc3(%rip),%rax        # 1f030 <g_39>
    c46d:	48 89 85 90 fc ff ff 	mov    %rax,-0x370(%rbp)
    c474:	c6 85 77 fc ff ff 01 	movb   $0x1,-0x389(%rbp)
    c47b:	48 8d 85 10 fe ff ff 	lea    -0x1f0(%rbp),%rax
    c482:	48 8d 15 37 e3 00 00 	lea    0xe337(%rip),%rdx        # 1a7c0 <g_1219+0x6b0>
    c489:	b9 36 00 00 00       	mov    $0x36,%ecx
    c48e:	48 89 c7             	mov    %rax,%rdi
    c491:	48 89 d6             	mov    %rdx,%rsi
    c494:	f3 48 a5             	rep movsq %ds:(%rsi),%es:(%rdi)
    c497:	c7 85 78 fc ff ff fd 	movl   $0xfffffffd,-0x388(%rbp)
    c49e:	ff ff ff 
    c4a1:	48 8d 05 70 58 01 00 	lea    0x15870(%rip),%rax        # 21d18 <g_1313>
    c4a8:	48 89 85 a0 fc ff ff 	mov    %rax,-0x360(%rbp)
    c4af:	48 8d 05 62 58 01 00 	lea    0x15862(%rip),%rax        # 21d18 <g_1313>
    c4b6:	48 89 85 a8 fc ff ff 	mov    %rax,-0x358(%rbp)
    c4bd:	48 8d 05 54 58 01 00 	lea    0x15854(%rip),%rax        # 21d18 <g_1313>
    c4c4:	48 89 85 b0 fc ff ff 	mov    %rax,-0x350(%rbp)
    c4cb:	48 8d 05 46 58 01 00 	lea    0x15846(%rip),%rax        # 21d18 <g_1313>
    c4d2:	48 89 85 b8 fc ff ff 	mov    %rax,-0x348(%rbp)
    c4d9:	48 8d 85 a0 fc ff ff 	lea    -0x360(%rbp),%rax
    c4e0:	48 83 c0 10          	add    $0x10,%rax
    c4e4:	48 89 85 80 fc ff ff 	mov    %rax,-0x380(%rbp)
    c4eb:	48 8d 85 80 fc ff ff 	lea    -0x380(%rbp),%rax
    c4f2:	48 89 85 98 fc ff ff 	mov    %rax,-0x368(%rbp)
    c4f9:	48 8d 05 3c 2b 01 00 	lea    0x12b3c(%rip),%rax        # 1f03c <g_62+0x4>
    c500:	48 89 85 c0 fc ff ff 	mov    %rax,-0x340(%rbp)
    c507:	48 8d 05 2e 2b 01 00 	lea    0x12b2e(%rip),%rax        # 1f03c <g_62+0x4>
    c50e:	48 89 85 c8 fc ff ff 	mov    %rax,-0x338(%rbp)
    c515:	48 8d 05 20 2b 01 00 	lea    0x12b20(%rip),%rax        # 1f03c <g_62+0x4>
    c51c:	48 89 85 d0 fc ff ff 	mov    %rax,-0x330(%rbp)
    c523:	48 8d 05 12 2b 01 00 	lea    0x12b12(%rip),%rax        # 1f03c <g_62+0x4>
    c52a:	48 89 85 d8 fc ff ff 	mov    %rax,-0x328(%rbp)
    c531:	48 8d 05 04 2b 01 00 	lea    0x12b04(%rip),%rax        # 1f03c <g_62+0x4>
    c538:	48 89 85 e0 fc ff ff 	mov    %rax,-0x320(%rbp)
    c53f:	48 8d 05 f6 2a 01 00 	lea    0x12af6(%rip),%rax        # 1f03c <g_62+0x4>
    c546:	48 89 85 e8 fc ff ff 	mov    %rax,-0x318(%rbp)
    c54d:	48 8d 05 e8 2a 01 00 	lea    0x12ae8(%rip),%rax        # 1f03c <g_62+0x4>
    c554:	48 89 85 f0 fc ff ff 	mov    %rax,-0x310(%rbp)
    c55b:	48 8d 05 da 2a 01 00 	lea    0x12ada(%rip),%rax        # 1f03c <g_62+0x4>
    c562:	48 89 85 f8 fc ff ff 	mov    %rax,-0x308(%rbp)
    c569:	48 8d 05 cc 2a 01 00 	lea    0x12acc(%rip),%rax        # 1f03c <g_62+0x4>
    c570:	48 89 85 00 fd ff ff 	mov    %rax,-0x300(%rbp)
    c577:	48 8d 05 be 2a 01 00 	lea    0x12abe(%rip),%rax        # 1f03c <g_62+0x4>
    c57e:	48 89 85 08 fd ff ff 	mov    %rax,-0x2f8(%rbp)
    c585:	c7 85 7c fc ff ff 00 	movl   $0x0,-0x384(%rbp)
    c58c:	00 00 00 
    c58f:	44 0f b7 a5 6c fc ff 	movzwl -0x394(%rbp),%r12d
    c596:	ff 
    c597:	0f b7 85 6c fc ff ff 	movzwl -0x394(%rbp),%eax
    c59e:	0f b6 d8             	movzbl %al,%ebx
    c5a1:	0f b7 85 6c fc ff ff 	movzwl -0x394(%rbp),%eax
    c5a8:	98                   	cwtl   
    c5a9:	89 85 60 fc ff ff    	mov    %eax,-0x3a0(%rbp)
    c5af:	8b 05 73 2a 01 00    	mov    0x12a73(%rip),%eax        # 1f028 <g_5>
    c5b5:	89 85 5c fc ff ff    	mov    %eax,-0x3a4(%rbp)
    c5bb:	0f b7 85 64 fd ff ff 	movzwl -0x29c(%rbp),%eax
    c5c2:	44 0f b7 f0          	movzwl %ax,%r14d
    c5c6:	44 0f be ad 77 fc ff 	movsbl -0x389(%rbp),%r13d
    c5cd:	ff 
    c5ce:	44 8b 3d 53 2a 01 00 	mov    0x12a53(%rip),%r15d        # 1f028 <g_5>
    c5d5:	8b 85 64 fc ff ff    	mov    -0x39c(%rbp),%eax
    c5db:	89 85 58 fc ff ff    	mov    %eax,-0x3a8(%rbp)
    c5e1:	8b 85 6c fe ff ff    	mov    -0x194(%rbp),%eax
    c5e7:	0f b6 c0             	movzbl %al,%eax
    c5ea:	89 85 54 fc ff ff    	mov    %eax,-0x3ac(%rbp)
    c5f0:	0f b7 95 6c fc ff ff 	movzwl -0x394(%rbp),%edx
    c5f7:	48 8b 85 88 fc ff ff 	mov    -0x378(%rbp),%rax
    c5fe:	48 89 10             	mov    %rdx,(%rax)
    c601:	48 8b 85 88 fc ff ff 	mov    -0x378(%rbp),%rax
    c608:	48 8b 00             	mov    (%rax),%rax
    c60b:	48 85 c0             	test   %rax,%rax
    c60e:	75 67                	jne    c677 <func_12+0x6db>
    c610:	0f be 85 77 fc ff ff 	movsbl -0x389(%rbp),%eax
    c617:	89 85 50 fc ff ff    	mov    %eax,-0x3b0(%rbp)
    c61d:	8b 05 05 2a 01 00    	mov    0x12a05(%rip),%eax        # 1f028 <g_5>
    c623:	0f bf c8             	movswl %ax,%ecx
    c626:	89 8d 4c fc ff ff    	mov    %ecx,-0x3b4(%rbp)
    c62c:	0f b7 95 6c fc ff ff 	movzwl -0x394(%rbp),%edx
    c633:	0f b7 85 6c fc ff ff 	movzwl -0x394(%rbp),%eax
    c63a:	48 89 d6             	mov    %rdx,%rsi
    c63d:	89 c7                	mov    %eax,%edi
    c63f:	e8 31 b0 00 00       	callq  17675 <func_47>
    c644:	8b 95 50 fc ff ff    	mov    -0x3b0(%rbp),%edx
    c64a:	8b b5 4c fc ff ff    	mov    -0x3b4(%rbp),%esi
    c650:	48 89 c7             	mov    %rax,%rdi
    c653:	e8 3a 84 00 00       	callq  14a92 <func_43>
    c658:	0f be c0             	movsbl %al,%eax
    c65b:	be 06 00 00 00       	mov    $0x6,%esi
    c660:	89 c7                	mov    %eax,%edi
    c662:	e8 ce bc ff ff       	callq  8335 <safe_rshift_func_int8_t_s_s>
    c667:	48 8d 05 c2 29 01 00 	lea    0x129c2(%rip),%rax        # 1f030 <g_39>
    c66e:	48 39 85 90 fc ff ff 	cmp    %rax,-0x370(%rbp)
    c675:	74 07                	je     c67e <func_12+0x6e2>
    c677:	b8 01 00 00 00       	mov    $0x1,%eax
    c67c:	eb 05                	jmp    c683 <func_12+0x6e7>
    c67e:	b8 00 00 00 00       	mov    $0x0,%eax
    c683:	48 63 f0             	movslq %eax,%rsi
    c686:	8b 05 9c 29 01 00    	mov    0x1299c(%rip),%eax        # 1f028 <g_5>
    c68c:	48 98                	cltq   
    c68e:	8b 95 68 fc ff ff    	mov    -0x398(%rbp),%edx
    c694:	44 8b 85 58 fc ff ff 	mov    -0x3a8(%rbp),%r8d
    c69b:	8b 8d 54 fc ff ff    	mov    -0x3ac(%rbp),%ecx
    c6a1:	48 89 c7             	mov    %rax,%rdi
    c6a4:	e8 69 80 00 00       	callq  14712 <func_32>
    c6a9:	98                   	cwtl   
    c6aa:	44 89 fe             	mov    %r15d,%esi
    c6ad:	89 c7                	mov    %eax,%edi
    c6af:	e8 de bd ff ff       	callq  8492 <safe_lshift_func_int16_t_s_s>
    c6b4:	98                   	cwtl   
    c6b5:	44 8b 85 60 fc ff ff 	mov    -0x3a0(%rbp),%r8d
    c6bc:	8b 8d 5c fc ff ff    	mov    -0x3a4(%rbp),%ecx
    c6c2:	44 89 f2             	mov    %r14d,%edx
    c6c5:	44 89 ee             	mov    %r13d,%esi
    c6c8:	89 c7                	mov    %eax,%edi
    c6ca:	e8 47 37 00 00       	callq  fe16 <func_24>
    c6cf:	4c 89 e2             	mov    %r12,%rdx
    c6d2:	89 de                	mov    %ebx,%esi
    c6d4:	48 89 c7             	mov    %rax,%rdi
    c6d7:	e8 5f 13 00 00       	callq  da3b <func_20>
    c6dc:	0f b7 85 5e fd ff ff 	movzwl -0x2a2(%rbp),%eax
    c6e3:	66 83 f8 08          	cmp    $0x8,%ax
    c6e7:	0f 97 c0             	seta   %al
    c6ea:	0f b6 c0             	movzbl %al,%eax
    c6ed:	48 89 c7             	mov    %rax,%rdi
    c6f0:	e8 7a 00 00 00       	callq  c76f <func_17>
    c6f5:	89 85 78 fc ff ff    	mov    %eax,-0x388(%rbp)
    c6fb:	c7 85 64 fc ff ff 07 	movl   $0x7,-0x39c(%rbp)
    c702:	00 00 00 
    c705:	8b 05 85 2b 01 00    	mov    0x12b85(%rip),%eax        # 1f290 <g_551>
    c70b:	85 c0                	test   %eax,%eax
    c70d:	90                   	nop
    c70e:	f3 0f 1e fa          	endbr64 
    c712:	48 83 bd 98 fc ff ff 	cmpq   $0x0,-0x368(%rbp)
    c719:	00 
    c71a:	0f 94 c0             	sete   %al
    c71d:	0f b6 d0             	movzbl %al,%edx
    c720:	48 8b 85 88 fc ff ff 	mov    -0x378(%rbp),%rax
    c727:	48 89 10             	mov    %rdx,(%rax)
    c72a:	48 8d 85 10 fe ff ff 	lea    -0x1f0(%rbp),%rax
    c731:	48 83 c0 5c          	add    $0x5c,%rax
    c735:	48 89 05 54 5e 01 00 	mov    %rax,0x15e54(%rip)        # 22590 <g_2201>
    c73c:	83 85 7c fc ff ff 01 	addl   $0x1,-0x384(%rbp)
    c743:	8b 85 68 fc ff ff    	mov    -0x398(%rbp),%eax
    c749:	48 8b 5d c8          	mov    -0x38(%rbp),%rbx
    c74d:	64 48 33 1c 25 28 00 	xor    %fs:0x28,%rbx
    c754:	00 00 
    c756:	74 05                	je     c75d <func_12+0x7c1>
    c758:	e8 13 b9 ff ff       	callq  8070 <__stack_chk_fail@plt>
    c75d:	48 81 c4 98 03 00 00 	add    $0x398,%rsp
    c764:	5b                   	pop    %rbx
    c765:	41 5c                	pop    %r12
    c767:	41 5d                	pop    %r13
    c769:	41 5e                	pop    %r14
    c76b:	41 5f                	pop    %r15
    c76d:	5d                   	pop    %rbp
    c76e:	c3                   	retq   

000000000000c76f <func_17>:
    c76f:	f3 0f 1e fa          	endbr64 
    c773:	55                   	push   %rbp
    c774:	48 89 e5             	mov    %rsp,%rbp
    c777:	41 54                	push   %r12
    c779:	53                   	push   %rbx
    c77a:	48 81 ec e0 0f 00 00 	sub    $0xfe0,%rsp
    c781:	48 89 bd 18 f0 ff ff 	mov    %rdi,-0xfe8(%rbp)
    c788:	64 48 8b 04 25 28 00 	mov    %fs:0x28,%rax
    c78f:	00 00 
    c791:	48 89 45 e8          	mov    %rax,-0x18(%rbp)
    c795:	31 c0                	xor    %eax,%eax
    c797:	48 b8 b9 67 69 4b ac 	movabs $0x1efd16ac4b6967b9,%rax
    c79e:	16 fd 1e 
    c7a1:	48 89 85 50 f0 ff ff 	mov    %rax,-0xfb0(%rbp)
    c7a8:	48 8d 85 90 f2 ff ff 	lea    -0xd70(%rbp),%rax
    c7af:	48 8d 15 ca e1 00 00 	lea    0xe1ca(%rip),%rdx        # 1a980 <g_1219+0x870>
    c7b6:	b9 54 00 00 00       	mov    $0x54,%ecx
    c7bb:	48 89 c7             	mov    %rax,%rdi
    c7be:	48 89 d6             	mov    %rdx,%rsi
    c7c1:	f3 48 a5             	rep movsq %ds:(%rsi),%es:(%rdi)
    c7c4:	c6 85 2e f0 ff ff 25 	movb   $0x25,-0xfd2(%rbp)
    c7cb:	c7 85 3c f0 ff ff 07 	movl   $0x7,-0xfc4(%rbp)
    c7d2:	00 00 00 
    c7d5:	c7 85 40 f0 ff ff 50 	movl   $0x6058ed50,-0xfc0(%rbp)
    c7dc:	ed 58 60 
    c7df:	48 8d 05 32 55 01 00 	lea    0x15532(%rip),%rax        # 21d18 <g_1313>
    c7e6:	48 89 85 58 f0 ff ff 	mov    %rax,-0xfa8(%rbp)
    c7ed:	48 c7 85 60 f0 ff ff 	movq   $0x0,-0xfa0(%rbp)
    c7f4:	00 00 00 00 
    c7f8:	c7 85 30 f0 ff ff 00 	movl   $0x0,-0xfd0(%rbp)
    c7ff:	00 00 00 
    c802:	eb 1a                	jmp    c81e <func_17+0xaf>
    c804:	8b 85 30 f0 ff ff    	mov    -0xfd0(%rbp),%eax
    c80a:	48 98                	cltq   
    c80c:	c7 84 85 f0 f0 ff ff 	movl   $0xc7807967,-0xf10(%rbp,%rax,4)
    c813:	67 79 80 c7 
    c817:	83 85 30 f0 ff ff 01 	addl   $0x1,-0xfd0(%rbp)
    c81e:	83 bd 30 f0 ff ff 03 	cmpl   $0x3,-0xfd0(%rbp)
    c825:	7e dd                	jle    c804 <func_17+0x95>
    c827:	c7 85 30 f0 ff ff 00 	movl   $0x0,-0xfd0(%rbp)
    c82e:	00 00 00 
    c831:	eb 1e                	jmp    c851 <func_17+0xe2>
    c833:	8b 85 30 f0 ff ff    	mov    -0xfd0(%rbp),%eax
    c839:	48 98                	cltq   
    c83b:	48 8d 15 7e 63 01 00 	lea    0x1637e(%rip),%rdx        # 22bc0 <g_814>
    c842:	48 89 94 c5 00 f1 ff 	mov    %rdx,-0xf00(%rbp,%rax,8)
    c849:	ff 
    c84a:	83 85 30 f0 ff ff 01 	addl   $0x1,-0xfd0(%rbp)
    c851:	83 bd 30 f0 ff ff 01 	cmpl   $0x1,-0xfd0(%rbp)
    c858:	7e d9                	jle    c833 <func_17+0xc4>
    c85a:	66 c7 05 49 28 01 00 	movw   $0x0,0x12849(%rip)        # 1f0ac <g_158>
    c861:	00 00 
    c863:	90                   	nop
    c864:	0f b7 05 41 28 01 00 	movzwl 0x12841(%rip),%eax        # 1f0ac <g_158>
    c86b:	66 83 f8 07          	cmp    $0x7,%ax
    c86f:	77 0c                	ja     c87d <func_17+0x10e>
    c871:	48 8b 85 18 f0 ff ff 	mov    -0xfe8(%rbp),%rax
    c878:	e9 9e 11 00 00       	jmpq   da1b <func_17+0x12ac>
    c87d:	c6 05 3d 2a 01 00 00 	movb   $0x0,0x12a3d(%rip)        # 1f2c1 <g_791+0x1>
    c884:	e9 7d 11 00 00       	jmpq   da06 <func_17+0x1297>
    c889:	c7 85 44 f0 ff ff bf 	movl   $0xec534fbf,-0xfbc(%rbp)
    c890:	4f 53 ec 
    c893:	48 8d 05 32 29 01 00 	lea    0x12932(%rip),%rax        # 1f1cc <g_422>
    c89a:	48 89 85 70 f0 ff ff 	mov    %rax,-0xf90(%rbp)
    c8a1:	48 c7 85 78 f0 ff ff 	movq   $0x1,-0xf88(%rbp)
    c8a8:	01 00 00 00 
    c8ac:	c6 85 2f f0 ff ff ba 	movb   $0xba,-0xfd1(%rbp)
    c8b3:	48 8d 05 d6 54 01 00 	lea    0x154d6(%rip),%rax        # 21d90 <g_1630>
    c8ba:	48 89 85 80 f0 ff ff 	mov    %rax,-0xf80(%rbp)
    c8c1:	48 8d 05 c0 52 01 00 	lea    0x152c0(%rip),%rax        # 21b88 <g_851>
    c8c8:	48 89 85 88 f0 ff ff 	mov    %rax,-0xf78(%rbp)
    c8cf:	48 8d 05 5a 27 01 00 	lea    0x1275a(%rip),%rax        # 1f030 <g_39>
    c8d6:	48 89 85 90 f0 ff ff 	mov    %rax,-0xf70(%rbp)
    c8dd:	48 8d 85 30 f5 ff ff 	lea    -0xad0(%rbp),%rax
    c8e4:	48 8d 15 35 e3 00 00 	lea    0xe335(%rip),%rdx        # 1ac20 <g_1219+0xb10>
    c8eb:	b9 5a 00 00 00       	mov    $0x5a,%ecx
    c8f0:	48 89 c7             	mov    %rax,%rdi
    c8f3:	48 89 d6             	mov    %rdx,%rsi
    c8f6:	f3 48 a5             	rep movsq %ds:(%rsi),%es:(%rdi)
    c8f9:	c7 85 34 f0 ff ff 00 	movl   $0x0,-0xfcc(%rbp)
    c900:	00 00 00 
    c903:	eb 19                	jmp    c91e <func_17+0x1af>
    c905:	8b 85 34 f0 ff ff    	mov    -0xfcc(%rbp),%eax
    c90b:	48 98                	cltq   
    c90d:	66 c7 84 45 da f0 ff 	movw   $0xa7b6,-0xf26(%rbp,%rax,2)
    c914:	ff b6 a7 
    c917:	83 85 34 f0 ff ff 01 	addl   $0x1,-0xfcc(%rbp)
    c91e:	83 bd 34 f0 ff ff 02 	cmpl   $0x2,-0xfcc(%rbp)
    c925:	7e de                	jle    c905 <func_17+0x196>
    c927:	c7 85 34 f0 ff ff 00 	movl   $0x0,-0xfcc(%rbp)
    c92e:	00 00 00 
    c931:	eb 1b                	jmp    c94e <func_17+0x1df>
    c933:	8b 85 34 f0 ff ff    	mov    -0xfcc(%rbp),%eax
    c939:	48 98                	cltq   
    c93b:	48 c7 84 c5 20 f1 ff 	movq   $0x0,-0xee0(%rbp,%rax,8)
    c942:	ff 00 00 00 00 
    c947:	83 85 34 f0 ff ff 01 	addl   $0x1,-0xfcc(%rbp)
    c94e:	83 bd 34 f0 ff ff 02 	cmpl   $0x2,-0xfcc(%rbp)
    c955:	7e dc                	jle    c933 <func_17+0x1c4>
    c957:	c7 85 34 f0 ff ff 00 	movl   $0x0,-0xfcc(%rbp)
    c95e:	00 00 00 
    c961:	eb 1a                	jmp    c97d <func_17+0x20e>
    c963:	8b 85 34 f0 ff ff    	mov    -0xfcc(%rbp),%eax
    c969:	48 98                	cltq   
    c96b:	c7 84 85 d4 f0 ff ff 	movl   $0x693fd645,-0xf2c(%rbp,%rax,4)
    c972:	45 d6 3f 69 
    c976:	83 85 34 f0 ff ff 01 	addl   $0x1,-0xfcc(%rbp)
    c97d:	83 bd 34 f0 ff ff 00 	cmpl   $0x0,-0xfcc(%rbp)
    c984:	7e dd                	jle    c963 <func_17+0x1f4>
    c986:	48 8b 85 18 f0 ff ff 	mov    -0xfe8(%rbp),%rax
    c98d:	0f b7 d8             	movzwl %ax,%ebx
    c990:	4c 8b a5 18 f0 ff ff 	mov    -0xfe8(%rbp),%r12
    c997:	48 83 bd 70 f0 ff ff 	cmpq   $0x0,-0xf90(%rbp)
    c99e:	00 
    c99f:	0f 94 c0             	sete   %al
    c9a2:	0f b6 c0             	movzbl %al,%eax
    c9a5:	39 85 44 f0 ff ff    	cmp    %eax,-0xfbc(%rbp)
    c9ab:	0f 9d c0             	setge  %al
    c9ae:	0f b6 c0             	movzbl %al,%eax
    c9b1:	be 01 00 00 00       	mov    $0x1,%esi
    c9b6:	89 c7                	mov    %eax,%edi
    c9b8:	e8 e4 b8 ff ff       	callq  82a1 <safe_lshift_func_int8_t_s_s>
    c9bd:	48 83 bd 18 f0 ff ff 	cmpq   $0x0,-0xfe8(%rbp)
    c9c4:	00 
    c9c5:	75 09                	jne    c9d0 <func_17+0x261>
    c9c7:	83 bd 44 f0 ff ff 00 	cmpl   $0x0,-0xfbc(%rbp)
    c9ce:	74 07                	je     c9d7 <func_17+0x268>
    c9d0:	b8 01 00 00 00       	mov    $0x1,%eax
    c9d5:	eb 05                	jmp    c9dc <func_17+0x26d>
    c9d7:	b8 00 00 00 00       	mov    $0x0,%eax
    c9dc:	48 98                	cltq   
    c9de:	4c 89 e6             	mov    %r12,%rsi
    c9e1:	48 89 c7             	mov    %rax,%rdi
    c9e4:	e8 62 c6 ff ff       	callq  904b <safe_sub_func_uint64_t_u_u>
    c9e9:	48 83 bd 18 f0 ff ff 	cmpq   $0x0,-0xfe8(%rbp)
    c9f0:	00 
    c9f1:	74 16                	je     ca09 <func_17+0x29a>
    c9f3:	48 8b 05 96 52 01 00 	mov    0x15296(%rip),%rax        # 21c90 <g_980>
    c9fa:	0f b7 00             	movzwl (%rax),%eax
    c9fd:	66 85 c0             	test   %ax,%ax
    ca00:	74 07                	je     ca09 <func_17+0x29a>
    ca02:	b8 01 00 00 00       	mov    $0x1,%eax
    ca07:	eb 05                	jmp    ca0e <func_17+0x29f>
    ca09:	b8 00 00 00 00       	mov    $0x0,%eax
    ca0e:	48 98                	cltq   
    ca10:	48 89 c6             	mov    %rax,%rsi
    ca13:	48 bf c0 67 07 fa b0 	movabs $0xacb1c3b0fa0767c0,%rdi
    ca1a:	c3 b1 ac 
    ca1d:	e8 d5 bf ff ff       	callq  89f7 <safe_div_func_int64_t_s_s>
    ca22:	0f b7 c0             	movzwl %ax,%eax
    ca25:	89 de                	mov    %ebx,%esi
    ca27:	89 c7                	mov    %eax,%edi
    ca29:	e8 60 c3 ff ff       	callq  8d8e <safe_div_func_uint16_t_u_u>
    ca2e:	66 85 c0             	test   %ax,%ax
    ca31:	75 0a                	jne    ca3d <func_17+0x2ce>
    ca33:	48 83 bd 18 f0 ff ff 	cmpq   $0x0,-0xfe8(%rbp)
    ca3a:	00 
    ca3b:	74 07                	je     ca44 <func_17+0x2d5>
    ca3d:	b8 01 00 00 00       	mov    $0x1,%eax
    ca42:	eb 05                	jmp    ca49 <func_17+0x2da>
    ca44:	b8 00 00 00 00       	mov    $0x0,%eax
    ca49:	0f b7 d0             	movzwl %ax,%edx
    ca4c:	8b 85 44 f0 ff ff    	mov    -0xfbc(%rbp),%eax
    ca52:	0f b7 c0             	movzwl %ax,%eax
    ca55:	89 d6                	mov    %edx,%esi
    ca57:	89 c7                	mov    %eax,%edi
    ca59:	e8 a1 c2 ff ff       	callq  8cff <safe_add_func_uint16_t_u_u>
    ca5e:	b8 1a 5a f9 e9       	mov    $0xe9f95a1a,%eax
    ca63:	48 39 85 18 f0 ff ff 	cmp    %rax,-0xfe8(%rbp)
    ca6a:	0f 9f c0             	setg   %al
    ca6d:	0f b6 c0             	movzbl %al,%eax
    ca70:	89 c6                	mov    %eax,%esi
    ca72:	bf 5b 90 ff ff       	mov    $0xffff905b,%edi
    ca77:	e8 37 b9 ff ff       	callq  83b3 <safe_add_func_int16_t_s_s>
    ca7c:	0f b7 95 da f0 ff ff 	movzwl -0xf26(%rbp),%edx
    ca83:	31 d0                	xor    %edx,%eax
    ca85:	66 89 85 da f0 ff ff 	mov    %ax,-0xf26(%rbp)
    ca8c:	0f b7 85 da f0 ff ff 	movzwl -0xf26(%rbp),%eax
    ca93:	0f b6 c0             	movzbl %al,%eax
    ca96:	be 09 00 00 00       	mov    $0x9,%esi
    ca9b:	89 c7                	mov    %eax,%edi
    ca9d:	e8 b8 c0 ff ff       	callq  8b5a <safe_add_func_uint8_t_u_u>
    caa2:	0f b6 c0             	movzbl %al,%eax
    caa5:	89 05 7d 28 01 00    	mov    %eax,0x1287d(%rip)        # 1f328 <g_1113>
    caab:	48 8b 05 7e 4e 01 00 	mov    0x14e7e(%rip),%rax        # 21930 <g_536>
    cab2:	48 8b 00             	mov    (%rax),%rax
    cab5:	48 ba e6 b0 f4 29 9a 	movabs $0x2eaeab9a29f4b0e6,%rdx
    cabc:	ab ae 2e 
    cabf:	48 09 d0             	or     %rdx,%rax
    cac2:	48 83 f8 5d          	cmp    $0x5d,%rax
    cac6:	0f 96 c2             	setbe  %dl
    cac9:	48 8b 05 c0 52 01 00 	mov    0x152c0(%rip),%rax        # 21d90 <g_1630>
    cad0:	0f b6 d2             	movzbl %dl,%edx
    cad3:	89 10                	mov    %edx,(%rax)
    cad5:	c6 05 c5 27 01 00 00 	movb   $0x0,0x127c5(%rip)        # 1f2a1 <g_616+0x1>
    cadc:	e9 06 0f 00 00       	jmpq   d9e7 <func_17+0x1278>
    cae1:	48 8d 85 70 f1 ff ff 	lea    -0xe90(%rbp),%rax
    cae8:	48 8d 15 11 e4 00 00 	lea    0xe411(%rip),%rdx        # 1af00 <g_1219+0xdf0>
    caef:	b9 23 00 00 00       	mov    $0x23,%ecx
    caf4:	48 89 c7             	mov    %rax,%rdi
    caf7:	48 89 d6             	mov    %rdx,%rsi
    cafa:	f3 48 a5             	rep movsq %ds:(%rsi),%es:(%rdi)
    cafd:	c7 85 48 f0 ff ff cb 	movl   $0x476bcacb,-0xfb8(%rbp)
    cb04:	ca 6b 47 
    cb07:	c7 85 4c f0 ff ff 00 	movl   $0x0,-0xfb4(%rbp)
    cb0e:	00 00 00 
    cb11:	48 b8 c1 41 2b df 6e 	movabs $0x1c50096edf2b41c1,%rax
    cb18:	09 50 1c 
    cb1b:	48 89 85 98 f0 ff ff 	mov    %rax,-0xf68(%rbp)
    cb22:	48 c7 85 a0 f0 ff ff 	movq   $0x0,-0xf60(%rbp)
    cb29:	00 00 00 00 
    cb2d:	48 8d 05 1c 49 01 00 	lea    0x1491c(%rip),%rax        # 21450 <g_69>
    cb34:	48 89 85 a8 f0 ff ff 	mov    %rax,-0xf58(%rbp)
    cb3b:	48 8d 05 b6 51 01 00 	lea    0x151b6(%rip),%rax        # 21cf8 <g_984>
    cb42:	48 89 85 b0 f0 ff ff 	mov    %rax,-0xf50(%rbp)
    cb49:	c7 85 10 f1 ff ff ff 	movl   $0xffffffff,-0xef0(%rbp)
    cb50:	ff ff ff 
    cb53:	c7 85 14 f1 ff ff ff 	movl   $0xffffffff,-0xeec(%rbp)
    cb5a:	ff ff ff 
    cb5d:	c7 85 18 f1 ff ff ff 	movl   $0xffffffff,-0xee8(%rbp)
    cb64:	ff ff ff 
    cb67:	c7 85 1c f1 ff ff ff 	movl   $0xffffffff,-0xee4(%rbp)
    cb6e:	ff ff ff 
    cb71:	48 8d 05 38 2c 01 00 	lea    0x12c38(%rip),%rax        # 1f7b0 <g_1990>
    cb78:	48 89 85 b8 f0 ff ff 	mov    %rax,-0xf48(%rbp)
    cb7f:	48 8d 85 58 f0 ff ff 	lea    -0xfa8(%rbp),%rax
    cb86:	48 89 85 68 f0 ff ff 	mov    %rax,-0xf98(%rbp)
    cb8d:	48 8d 85 68 f0 ff ff 	lea    -0xf98(%rbp),%rax
    cb94:	48 89 85 c0 f0 ff ff 	mov    %rax,-0xf40(%rbp)
    cb9b:	48 8d 05 76 4f 01 00 	lea    0x14f76(%rip),%rax        # 21b18 <g_813>
    cba2:	48 89 85 00 f8 ff ff 	mov    %rax,-0x800(%rbp)
    cba9:	48 8d 05 68 4f 01 00 	lea    0x14f68(%rip),%rax        # 21b18 <g_813>
    cbb0:	48 89 85 08 f8 ff ff 	mov    %rax,-0x7f8(%rbp)
    cbb7:	48 8d 05 5a 4f 01 00 	lea    0x14f5a(%rip),%rax        # 21b18 <g_813>
    cbbe:	48 89 85 10 f8 ff ff 	mov    %rax,-0x7f0(%rbp)
    cbc5:	48 8d 05 4c 4f 01 00 	lea    0x14f4c(%rip),%rax        # 21b18 <g_813>
    cbcc:	48 89 85 18 f8 ff ff 	mov    %rax,-0x7e8(%rbp)
    cbd3:	48 8d 85 00 f1 ff ff 	lea    -0xf00(%rbp),%rax
    cbda:	48 83 c0 08          	add    $0x8,%rax
    cbde:	48 89 85 20 f8 ff ff 	mov    %rax,-0x7e0(%rbp)
    cbe5:	48 8d 05 2c 4f 01 00 	lea    0x14f2c(%rip),%rax        # 21b18 <g_813>
    cbec:	48 89 85 28 f8 ff ff 	mov    %rax,-0x7d8(%rbp)
    cbf3:	48 c7 85 30 f8 ff ff 	movq   $0x0,-0x7d0(%rbp)
    cbfa:	00 00 00 00 
    cbfe:	48 8d 05 13 4f 01 00 	lea    0x14f13(%rip),%rax        # 21b18 <g_813>
    cc05:	48 89 85 38 f8 ff ff 	mov    %rax,-0x7c8(%rbp)
    cc0c:	48 8d 05 05 4f 01 00 	lea    0x14f05(%rip),%rax        # 21b18 <g_813>
    cc13:	48 89 85 40 f8 ff ff 	mov    %rax,-0x7c0(%rbp)
    cc1a:	48 8d 85 00 f1 ff ff 	lea    -0xf00(%rbp),%rax
    cc21:	48 89 85 48 f8 ff ff 	mov    %rax,-0x7b8(%rbp)
    cc28:	48 c7 85 50 f8 ff ff 	movq   $0x0,-0x7b0(%rbp)
    cc2f:	00 00 00 00 
    cc33:	48 c7 85 58 f8 ff ff 	movq   $0x0,-0x7a8(%rbp)
    cc3a:	00 00 00 00 
    cc3e:	48 8d 85 00 f1 ff ff 	lea    -0xf00(%rbp),%rax
    cc45:	48 83 c0 08          	add    $0x8,%rax
    cc49:	48 89 85 60 f8 ff ff 	mov    %rax,-0x7a0(%rbp)
    cc50:	48 8d 05 c1 4e 01 00 	lea    0x14ec1(%rip),%rax        # 21b18 <g_813>
    cc57:	48 89 85 68 f8 ff ff 	mov    %rax,-0x798(%rbp)
    cc5e:	48 8d 05 b3 4e 01 00 	lea    0x14eb3(%rip),%rax        # 21b18 <g_813>
    cc65:	48 89 85 70 f8 ff ff 	mov    %rax,-0x790(%rbp)
    cc6c:	48 8d 85 00 f1 ff ff 	lea    -0xf00(%rbp),%rax
    cc73:	48 83 c0 08          	add    $0x8,%rax
    cc77:	48 89 85 78 f8 ff ff 	mov    %rax,-0x788(%rbp)
    cc7e:	48 8d 05 93 4e 01 00 	lea    0x14e93(%rip),%rax        # 21b18 <g_813>
    cc85:	48 89 85 80 f8 ff ff 	mov    %rax,-0x780(%rbp)
    cc8c:	48 8d 05 85 4e 01 00 	lea    0x14e85(%rip),%rax        # 21b18 <g_813>
    cc93:	48 89 85 88 f8 ff ff 	mov    %rax,-0x778(%rbp)
    cc9a:	48 8d 85 00 f1 ff ff 	lea    -0xf00(%rbp),%rax
    cca1:	48 89 85 90 f8 ff ff 	mov    %rax,-0x770(%rbp)
    cca8:	48 c7 85 98 f8 ff ff 	movq   $0x0,-0x768(%rbp)
    ccaf:	00 00 00 00 
    ccb3:	48 8d 85 00 f1 ff ff 	lea    -0xf00(%rbp),%rax
    ccba:	48 89 85 a0 f8 ff ff 	mov    %rax,-0x760(%rbp)
    ccc1:	48 c7 85 a8 f8 ff ff 	movq   $0x0,-0x758(%rbp)
    ccc8:	00 00 00 00 
    cccc:	48 8d 05 45 4e 01 00 	lea    0x14e45(%rip),%rax        # 21b18 <g_813>
    ccd3:	48 89 85 b0 f8 ff ff 	mov    %rax,-0x750(%rbp)
    ccda:	48 8d 85 00 f1 ff ff 	lea    -0xf00(%rbp),%rax
    cce1:	48 89 85 b8 f8 ff ff 	mov    %rax,-0x748(%rbp)
    cce8:	48 8d 85 00 f1 ff ff 	lea    -0xf00(%rbp),%rax
    ccef:	48 89 85 c0 f8 ff ff 	mov    %rax,-0x740(%rbp)
    ccf6:	48 c7 85 c8 f8 ff ff 	movq   $0x0,-0x738(%rbp)
    ccfd:	00 00 00 00 
    cd01:	48 8d 05 10 4e 01 00 	lea    0x14e10(%rip),%rax        # 21b18 <g_813>
    cd08:	48 89 85 d0 f8 ff ff 	mov    %rax,-0x730(%rbp)
    cd0f:	48 8d 85 00 f1 ff ff 	lea    -0xf00(%rbp),%rax
    cd16:	48 89 85 d8 f8 ff ff 	mov    %rax,-0x728(%rbp)
    cd1d:	48 8d 05 f4 4d 01 00 	lea    0x14df4(%rip),%rax        # 21b18 <g_813>
    cd24:	48 89 85 e0 f8 ff ff 	mov    %rax,-0x720(%rbp)
    cd2b:	48 c7 85 e8 f8 ff ff 	movq   $0x0,-0x718(%rbp)
    cd32:	00 00 00 00 
    cd36:	48 8d 85 00 f1 ff ff 	lea    -0xf00(%rbp),%rax
    cd3d:	48 89 85 f0 f8 ff ff 	mov    %rax,-0x710(%rbp)
    cd44:	48 c7 85 f8 f8 ff ff 	movq   $0x0,-0x708(%rbp)
    cd4b:	00 00 00 00 
    cd4f:	48 8d 85 00 f1 ff ff 	lea    -0xf00(%rbp),%rax
    cd56:	48 89 85 00 f9 ff ff 	mov    %rax,-0x700(%rbp)
    cd5d:	48 8d 05 b4 4d 01 00 	lea    0x14db4(%rip),%rax        # 21b18 <g_813>
    cd64:	48 89 85 08 f9 ff ff 	mov    %rax,-0x6f8(%rbp)
    cd6b:	48 8d 85 00 f1 ff ff 	lea    -0xf00(%rbp),%rax
    cd72:	48 89 85 10 f9 ff ff 	mov    %rax,-0x6f0(%rbp)
    cd79:	48 8d 85 00 f1 ff ff 	lea    -0xf00(%rbp),%rax
    cd80:	48 83 c0 08          	add    $0x8,%rax
    cd84:	48 89 85 18 f9 ff ff 	mov    %rax,-0x6e8(%rbp)
    cd8b:	48 8d 05 86 4d 01 00 	lea    0x14d86(%rip),%rax        # 21b18 <g_813>
    cd92:	48 89 85 20 f9 ff ff 	mov    %rax,-0x6e0(%rbp)
    cd99:	48 8d 05 78 4d 01 00 	lea    0x14d78(%rip),%rax        # 21b18 <g_813>
    cda0:	48 89 85 28 f9 ff ff 	mov    %rax,-0x6d8(%rbp)
    cda7:	48 8d 05 6a 4d 01 00 	lea    0x14d6a(%rip),%rax        # 21b18 <g_813>
    cdae:	48 89 85 30 f9 ff ff 	mov    %rax,-0x6d0(%rbp)
    cdb5:	48 c7 85 38 f9 ff ff 	movq   $0x0,-0x6c8(%rbp)
    cdbc:	00 00 00 00 
    cdc0:	48 c7 85 40 f9 ff ff 	movq   $0x0,-0x6c0(%rbp)
    cdc7:	00 00 00 00 
    cdcb:	48 8d 85 00 f1 ff ff 	lea    -0xf00(%rbp),%rax
    cdd2:	48 89 85 48 f9 ff ff 	mov    %rax,-0x6b8(%rbp)
    cdd9:	48 c7 85 50 f9 ff ff 	movq   $0x0,-0x6b0(%rbp)
    cde0:	00 00 00 00 
    cde4:	48 8d 05 2d 4d 01 00 	lea    0x14d2d(%rip),%rax        # 21b18 <g_813>
    cdeb:	48 89 85 58 f9 ff ff 	mov    %rax,-0x6a8(%rbp)
    cdf2:	48 c7 85 60 f9 ff ff 	movq   $0x0,-0x6a0(%rbp)
    cdf9:	00 00 00 00 
    cdfd:	48 8d 05 14 4d 01 00 	lea    0x14d14(%rip),%rax        # 21b18 <g_813>
    ce04:	48 89 85 68 f9 ff ff 	mov    %rax,-0x698(%rbp)
    ce0b:	48 8d 05 06 4d 01 00 	lea    0x14d06(%rip),%rax        # 21b18 <g_813>
    ce12:	48 89 85 70 f9 ff ff 	mov    %rax,-0x690(%rbp)
    ce19:	48 8d 05 f8 4c 01 00 	lea    0x14cf8(%rip),%rax        # 21b18 <g_813>
    ce20:	48 89 85 78 f9 ff ff 	mov    %rax,-0x688(%rbp)
    ce27:	48 8d 05 ea 4c 01 00 	lea    0x14cea(%rip),%rax        # 21b18 <g_813>
    ce2e:	48 89 85 80 f9 ff ff 	mov    %rax,-0x680(%rbp)
    ce35:	48 8d 05 dc 4c 01 00 	lea    0x14cdc(%rip),%rax        # 21b18 <g_813>
    ce3c:	48 89 85 88 f9 ff ff 	mov    %rax,-0x678(%rbp)
    ce43:	48 8d 85 00 f1 ff ff 	lea    -0xf00(%rbp),%rax
    ce4a:	48 89 85 90 f9 ff ff 	mov    %rax,-0x670(%rbp)
    ce51:	48 c7 85 98 f9 ff ff 	movq   $0x0,-0x668(%rbp)
    ce58:	00 00 00 00 
    ce5c:	48 8d 85 00 f1 ff ff 	lea    -0xf00(%rbp),%rax
    ce63:	48 89 85 a0 f9 ff ff 	mov    %rax,-0x660(%rbp)
    ce6a:	48 8d 85 00 f1 ff ff 	lea    -0xf00(%rbp),%rax
    ce71:	48 89 85 a8 f9 ff ff 	mov    %rax,-0x658(%rbp)
    ce78:	48 8d 85 00 f1 ff ff 	lea    -0xf00(%rbp),%rax
    ce7f:	48 89 85 b0 f9 ff ff 	mov    %rax,-0x650(%rbp)
    ce86:	48 8d 05 8b 4c 01 00 	lea    0x14c8b(%rip),%rax        # 21b18 <g_813>
    ce8d:	48 89 85 b8 f9 ff ff 	mov    %rax,-0x648(%rbp)
    ce94:	48 8d 05 7d 4c 01 00 	lea    0x14c7d(%rip),%rax        # 21b18 <g_813>
    ce9b:	48 89 85 c0 f9 ff ff 	mov    %rax,-0x640(%rbp)
    cea2:	48 8d 85 00 f1 ff ff 	lea    -0xf00(%rbp),%rax
    cea9:	48 89 85 c8 f9 ff ff 	mov    %rax,-0x638(%rbp)
    ceb0:	48 8d 05 61 4c 01 00 	lea    0x14c61(%rip),%rax        # 21b18 <g_813>
    ceb7:	48 89 85 d0 f9 ff ff 	mov    %rax,-0x630(%rbp)
    cebe:	48 8d 85 00 f1 ff ff 	lea    -0xf00(%rbp),%rax
    cec5:	48 89 85 d8 f9 ff ff 	mov    %rax,-0x628(%rbp)
    cecc:	48 8d 85 00 f1 ff ff 	lea    -0xf00(%rbp),%rax
    ced3:	48 89 85 e0 f9 ff ff 	mov    %rax,-0x620(%rbp)
    ceda:	48 8d 85 00 f1 ff ff 	lea    -0xf00(%rbp),%rax
    cee1:	48 89 85 e8 f9 ff ff 	mov    %rax,-0x618(%rbp)
    cee8:	48 8d 05 29 4c 01 00 	lea    0x14c29(%rip),%rax        # 21b18 <g_813>
    ceef:	48 89 85 f0 f9 ff ff 	mov    %rax,-0x610(%rbp)
    cef6:	48 8d 05 1b 4c 01 00 	lea    0x14c1b(%rip),%rax        # 21b18 <g_813>
    cefd:	48 89 85 f8 f9 ff ff 	mov    %rax,-0x608(%rbp)
    cf04:	48 8d 85 00 f1 ff ff 	lea    -0xf00(%rbp),%rax
    cf0b:	48 89 85 00 fa ff ff 	mov    %rax,-0x600(%rbp)
    cf12:	48 8d 85 00 f1 ff ff 	lea    -0xf00(%rbp),%rax
    cf19:	48 89 85 08 fa ff ff 	mov    %rax,-0x5f8(%rbp)
    cf20:	48 8d 85 00 f1 ff ff 	lea    -0xf00(%rbp),%rax
    cf27:	48 89 85 10 fa ff ff 	mov    %rax,-0x5f0(%rbp)
    cf2e:	48 c7 85 18 fa ff ff 	movq   $0x0,-0x5e8(%rbp)
    cf35:	00 00 00 00 
    cf39:	48 8d 05 d8 4b 01 00 	lea    0x14bd8(%rip),%rax        # 21b18 <g_813>
    cf40:	48 89 85 20 fa ff ff 	mov    %rax,-0x5e0(%rbp)
    cf47:	48 8d 05 ca 4b 01 00 	lea    0x14bca(%rip),%rax        # 21b18 <g_813>
    cf4e:	48 89 85 28 fa ff ff 	mov    %rax,-0x5d8(%rbp)
    cf55:	48 8d 05 bc 4b 01 00 	lea    0x14bbc(%rip),%rax        # 21b18 <g_813>
    cf5c:	48 89 85 30 fa ff ff 	mov    %rax,-0x5d0(%rbp)
    cf63:	48 8d 05 ae 4b 01 00 	lea    0x14bae(%rip),%rax        # 21b18 <g_813>
    cf6a:	48 89 85 38 fa ff ff 	mov    %rax,-0x5c8(%rbp)
    cf71:	48 8d 85 00 f1 ff ff 	lea    -0xf00(%rbp),%rax
    cf78:	48 83 c0 08          	add    $0x8,%rax
    cf7c:	48 89 85 40 fa ff ff 	mov    %rax,-0x5c0(%rbp)
    cf83:	48 8d 05 8e 4b 01 00 	lea    0x14b8e(%rip),%rax        # 21b18 <g_813>
    cf8a:	48 89 85 48 fa ff ff 	mov    %rax,-0x5b8(%rbp)
    cf91:	48 c7 85 50 fa ff ff 	movq   $0x0,-0x5b0(%rbp)
    cf98:	00 00 00 00 
    cf9c:	48 8d 05 75 4b 01 00 	lea    0x14b75(%rip),%rax        # 21b18 <g_813>
    cfa3:	48 89 85 58 fa ff ff 	mov    %rax,-0x5a8(%rbp)
    cfaa:	48 8d 05 67 4b 01 00 	lea    0x14b67(%rip),%rax        # 21b18 <g_813>
    cfb1:	48 89 85 60 fa ff ff 	mov    %rax,-0x5a0(%rbp)
    cfb8:	48 8d 85 00 f1 ff ff 	lea    -0xf00(%rbp),%rax
    cfbf:	48 89 85 68 fa ff ff 	mov    %rax,-0x598(%rbp)
    cfc6:	48 c7 85 70 fa ff ff 	movq   $0x0,-0x590(%rbp)
    cfcd:	00 00 00 00 
    cfd1:	48 c7 85 78 fa ff ff 	movq   $0x0,-0x588(%rbp)
    cfd8:	00 00 00 00 
    cfdc:	48 8d 85 00 f1 ff ff 	lea    -0xf00(%rbp),%rax
    cfe3:	48 83 c0 08          	add    $0x8,%rax
    cfe7:	48 89 85 80 fa ff ff 	mov    %rax,-0x580(%rbp)
    cfee:	48 8d 05 23 4b 01 00 	lea    0x14b23(%rip),%rax        # 21b18 <g_813>
    cff5:	48 89 85 88 fa ff ff 	mov    %rax,-0x578(%rbp)
    cffc:	48 8d 05 15 4b 01 00 	lea    0x14b15(%rip),%rax        # 21b18 <g_813>
    d003:	48 89 85 90 fa ff ff 	mov    %rax,-0x570(%rbp)
    d00a:	48 8d 85 00 f1 ff ff 	lea    -0xf00(%rbp),%rax
    d011:	48 83 c0 08          	add    $0x8,%rax
    d015:	48 89 85 98 fa ff ff 	mov    %rax,-0x568(%rbp)
    d01c:	48 8d 05 f5 4a 01 00 	lea    0x14af5(%rip),%rax        # 21b18 <g_813>
    d023:	48 89 85 a0 fa ff ff 	mov    %rax,-0x560(%rbp)
    d02a:	48 8d 05 e7 4a 01 00 	lea    0x14ae7(%rip),%rax        # 21b18 <g_813>
    d031:	48 89 85 a8 fa ff ff 	mov    %rax,-0x558(%rbp)
    d038:	48 8d 85 00 f1 ff ff 	lea    -0xf00(%rbp),%rax
    d03f:	48 89 85 b0 fa ff ff 	mov    %rax,-0x550(%rbp)
    d046:	48 c7 85 b8 fa ff ff 	movq   $0x0,-0x548(%rbp)
    d04d:	00 00 00 00 
    d051:	48 8d 85 00 f1 ff ff 	lea    -0xf00(%rbp),%rax
    d058:	48 89 85 c0 fa ff ff 	mov    %rax,-0x540(%rbp)
    d05f:	48 c7 85 c8 fa ff ff 	movq   $0x0,-0x538(%rbp)
    d066:	00 00 00 00 
    d06a:	48 8d 05 a7 4a 01 00 	lea    0x14aa7(%rip),%rax        # 21b18 <g_813>
    d071:	48 89 85 d0 fa ff ff 	mov    %rax,-0x530(%rbp)
    d078:	48 8d 85 00 f1 ff ff 	lea    -0xf00(%rbp),%rax
    d07f:	48 89 85 d8 fa ff ff 	mov    %rax,-0x528(%rbp)
    d086:	48 8d 85 00 f1 ff ff 	lea    -0xf00(%rbp),%rax
    d08d:	48 89 85 e0 fa ff ff 	mov    %rax,-0x520(%rbp)
    d094:	48 c7 85 e8 fa ff ff 	movq   $0x0,-0x518(%rbp)
    d09b:	00 00 00 00 
    d09f:	48 8d 05 72 4a 01 00 	lea    0x14a72(%rip),%rax        # 21b18 <g_813>
    d0a6:	48 89 85 f0 fa ff ff 	mov    %rax,-0x510(%rbp)
    d0ad:	48 8d 85 00 f1 ff ff 	lea    -0xf00(%rbp),%rax
    d0b4:	48 89 85 f8 fa ff ff 	mov    %rax,-0x508(%rbp)
    d0bb:	48 8d 05 56 4a 01 00 	lea    0x14a56(%rip),%rax        # 21b18 <g_813>
    d0c2:	48 89 85 00 fb ff ff 	mov    %rax,-0x500(%rbp)
    d0c9:	48 c7 85 08 fb ff ff 	movq   $0x0,-0x4f8(%rbp)
    d0d0:	00 00 00 00 
    d0d4:	48 8d 85 00 f1 ff ff 	lea    -0xf00(%rbp),%rax
    d0db:	48 89 85 10 fb ff ff 	mov    %rax,-0x4f0(%rbp)
    d0e2:	48 c7 85 18 fb ff ff 	movq   $0x0,-0x4e8(%rbp)
    d0e9:	00 00 00 00 
    d0ed:	48 8d 85 00 f1 ff ff 	lea    -0xf00(%rbp),%rax
    d0f4:	48 89 85 20 fb ff ff 	mov    %rax,-0x4e0(%rbp)
    d0fb:	48 8d 05 16 4a 01 00 	lea    0x14a16(%rip),%rax        # 21b18 <g_813>
    d102:	48 89 85 28 fb ff ff 	mov    %rax,-0x4d8(%rbp)
    d109:	48 8d 85 00 f1 ff ff 	lea    -0xf00(%rbp),%rax
    d110:	48 89 85 30 fb ff ff 	mov    %rax,-0x4d0(%rbp)
    d117:	48 8d 85 00 f1 ff ff 	lea    -0xf00(%rbp),%rax
    d11e:	48 83 c0 08          	add    $0x8,%rax
    d122:	48 89 85 38 fb ff ff 	mov    %rax,-0x4c8(%rbp)
    d129:	48 8d 05 e8 49 01 00 	lea    0x149e8(%rip),%rax        # 21b18 <g_813>
    d130:	48 89 85 40 fb ff ff 	mov    %rax,-0x4c0(%rbp)
    d137:	48 8d 05 da 49 01 00 	lea    0x149da(%rip),%rax        # 21b18 <g_813>
    d13e:	48 89 85 48 fb ff ff 	mov    %rax,-0x4b8(%rbp)
    d145:	48 8d 05 cc 49 01 00 	lea    0x149cc(%rip),%rax        # 21b18 <g_813>
    d14c:	48 89 85 50 fb ff ff 	mov    %rax,-0x4b0(%rbp)
    d153:	48 c7 85 58 fb ff ff 	movq   $0x0,-0x4a8(%rbp)
    d15a:	00 00 00 00 
    d15e:	48 c7 85 60 fb ff ff 	movq   $0x0,-0x4a0(%rbp)
    d165:	00 00 00 00 
    d169:	48 8d 85 00 f1 ff ff 	lea    -0xf00(%rbp),%rax
    d170:	48 89 85 68 fb ff ff 	mov    %rax,-0x498(%rbp)
    d177:	48 c7 85 70 fb ff ff 	movq   $0x0,-0x490(%rbp)
    d17e:	00 00 00 00 
    d182:	48 8d 05 8f 49 01 00 	lea    0x1498f(%rip),%rax        # 21b18 <g_813>
    d189:	48 89 85 78 fb ff ff 	mov    %rax,-0x488(%rbp)
    d190:	48 c7 85 80 fb ff ff 	movq   $0x0,-0x480(%rbp)
    d197:	00 00 00 00 
    d19b:	48 8d 05 76 49 01 00 	lea    0x14976(%rip),%rax        # 21b18 <g_813>
    d1a2:	48 89 85 88 fb ff ff 	mov    %rax,-0x478(%rbp)
    d1a9:	48 8d 05 68 49 01 00 	lea    0x14968(%rip),%rax        # 21b18 <g_813>
    d1b0:	48 89 85 90 fb ff ff 	mov    %rax,-0x470(%rbp)
    d1b7:	48 8d 05 5a 49 01 00 	lea    0x1495a(%rip),%rax        # 21b18 <g_813>
    d1be:	48 89 85 98 fb ff ff 	mov    %rax,-0x468(%rbp)
    d1c5:	48 8d 05 4c 49 01 00 	lea    0x1494c(%rip),%rax        # 21b18 <g_813>
    d1cc:	48 89 85 a0 fb ff ff 	mov    %rax,-0x460(%rbp)
    d1d3:	48 8d 05 3e 49 01 00 	lea    0x1493e(%rip),%rax        # 21b18 <g_813>
    d1da:	48 89 85 a8 fb ff ff 	mov    %rax,-0x458(%rbp)
    d1e1:	48 8d 85 00 f1 ff ff 	lea    -0xf00(%rbp),%rax
    d1e8:	48 89 85 b0 fb ff ff 	mov    %rax,-0x450(%rbp)
    d1ef:	48 c7 85 b8 fb ff ff 	movq   $0x0,-0x448(%rbp)
    d1f6:	00 00 00 00 
    d1fa:	48 8d 85 00 f1 ff ff 	lea    -0xf00(%rbp),%rax
    d201:	48 89 85 c0 fb ff ff 	mov    %rax,-0x440(%rbp)
    d208:	48 8d 85 00 f1 ff ff 	lea    -0xf00(%rbp),%rax
    d20f:	48 89 85 c8 fb ff ff 	mov    %rax,-0x438(%rbp)
    d216:	48 8d 85 00 f1 ff ff 	lea    -0xf00(%rbp),%rax
    d21d:	48 89 85 d0 fb ff ff 	mov    %rax,-0x430(%rbp)
    d224:	48 8d 05 ed 48 01 00 	lea    0x148ed(%rip),%rax        # 21b18 <g_813>
    d22b:	48 89 85 d8 fb ff ff 	mov    %rax,-0x428(%rbp)
    d232:	48 8d 05 df 48 01 00 	lea    0x148df(%rip),%rax        # 21b18 <g_813>
    d239:	48 89 85 e0 fb ff ff 	mov    %rax,-0x420(%rbp)
    d240:	48 8d 85 00 f1 ff ff 	lea    -0xf00(%rbp),%rax
    d247:	48 89 85 e8 fb ff ff 	mov    %rax,-0x418(%rbp)
    d24e:	48 8d 05 c3 48 01 00 	lea    0x148c3(%rip),%rax        # 21b18 <g_813>
    d255:	48 89 85 f0 fb ff ff 	mov    %rax,-0x410(%rbp)
    d25c:	48 8d 85 00 f1 ff ff 	lea    -0xf00(%rbp),%rax
    d263:	48 89 85 f8 fb ff ff 	mov    %rax,-0x408(%rbp)
    d26a:	48 8d 85 00 f1 ff ff 	lea    -0xf00(%rbp),%rax
    d271:	48 89 85 00 fc ff ff 	mov    %rax,-0x400(%rbp)
    d278:	48 8d 85 00 f1 ff ff 	lea    -0xf00(%rbp),%rax
    d27f:	48 89 85 08 fc ff ff 	mov    %rax,-0x3f8(%rbp)
    d286:	48 8d 05 8b 48 01 00 	lea    0x1488b(%rip),%rax        # 21b18 <g_813>
    d28d:	48 89 85 10 fc ff ff 	mov    %rax,-0x3f0(%rbp)
    d294:	48 8d 05 7d 48 01 00 	lea    0x1487d(%rip),%rax        # 21b18 <g_813>
    d29b:	48 89 85 18 fc ff ff 	mov    %rax,-0x3e8(%rbp)
    d2a2:	48 8d 85 00 f1 ff ff 	lea    -0xf00(%rbp),%rax
    d2a9:	48 89 85 20 fc ff ff 	mov    %rax,-0x3e0(%rbp)
    d2b0:	48 8d 85 00 f1 ff ff 	lea    -0xf00(%rbp),%rax
    d2b7:	48 89 85 28 fc ff ff 	mov    %rax,-0x3d8(%rbp)
    d2be:	48 8d 85 00 f1 ff ff 	lea    -0xf00(%rbp),%rax
    d2c5:	48 89 85 30 fc ff ff 	mov    %rax,-0x3d0(%rbp)
    d2cc:	48 c7 85 38 fc ff ff 	movq   $0x0,-0x3c8(%rbp)
    d2d3:	00 00 00 00 
    d2d7:	48 8d 05 3a 48 01 00 	lea    0x1483a(%rip),%rax        # 21b18 <g_813>
    d2de:	48 89 85 40 fc ff ff 	mov    %rax,-0x3c0(%rbp)
    d2e5:	48 8d 05 2c 48 01 00 	lea    0x1482c(%rip),%rax        # 21b18 <g_813>
    d2ec:	48 89 85 48 fc ff ff 	mov    %rax,-0x3b8(%rbp)
    d2f3:	48 8d 05 1e 48 01 00 	lea    0x1481e(%rip),%rax        # 21b18 <g_813>
    d2fa:	48 89 85 50 fc ff ff 	mov    %rax,-0x3b0(%rbp)
    d301:	48 8d 85 00 f1 ff ff 	lea    -0xf00(%rbp),%rax
    d308:	48 89 85 58 fc ff ff 	mov    %rax,-0x3a8(%rbp)
    d30f:	48 8d 85 00 f1 ff ff 	lea    -0xf00(%rbp),%rax
    d316:	48 89 85 60 fc ff ff 	mov    %rax,-0x3a0(%rbp)
    d31d:	48 8d 05 f4 47 01 00 	lea    0x147f4(%rip),%rax        # 21b18 <g_813>
    d324:	48 89 85 68 fc ff ff 	mov    %rax,-0x398(%rbp)
    d32b:	48 8d 05 e6 47 01 00 	lea    0x147e6(%rip),%rax        # 21b18 <g_813>
    d332:	48 89 85 70 fc ff ff 	mov    %rax,-0x390(%rbp)
    d339:	48 8d 85 00 f1 ff ff 	lea    -0xf00(%rbp),%rax
    d340:	48 89 85 78 fc ff ff 	mov    %rax,-0x388(%rbp)
    d347:	48 8d 85 00 f1 ff ff 	lea    -0xf00(%rbp),%rax
    d34e:	48 83 c0 08          	add    $0x8,%rax
    d352:	48 89 85 80 fc ff ff 	mov    %rax,-0x380(%rbp)
    d359:	48 c7 85 88 fc ff ff 	movq   $0x0,-0x378(%rbp)
    d360:	00 00 00 00 
    d364:	48 8d 05 ad 47 01 00 	lea    0x147ad(%rip),%rax        # 21b18 <g_813>
    d36b:	48 89 85 90 fc ff ff 	mov    %rax,-0x370(%rbp)
    d372:	48 8d 05 9f 47 01 00 	lea    0x1479f(%rip),%rax        # 21b18 <g_813>
    d379:	48 89 85 98 fc ff ff 	mov    %rax,-0x368(%rbp)
    d380:	48 8d 85 00 f1 ff ff 	lea    -0xf00(%rbp),%rax
    d387:	48 89 85 a0 fc ff ff 	mov    %rax,-0x360(%rbp)
    d38e:	48 8d 05 83 47 01 00 	lea    0x14783(%rip),%rax        # 21b18 <g_813>
    d395:	48 89 85 a8 fc ff ff 	mov    %rax,-0x358(%rbp)
    d39c:	48 8d 05 75 47 01 00 	lea    0x14775(%rip),%rax        # 21b18 <g_813>
    d3a3:	48 89 85 b0 fc ff ff 	mov    %rax,-0x350(%rbp)
    d3aa:	48 8d 85 00 f1 ff ff 	lea    -0xf00(%rbp),%rax
    d3b1:	48 89 85 b8 fc ff ff 	mov    %rax,-0x348(%rbp)
    d3b8:	48 8d 05 59 47 01 00 	lea    0x14759(%rip),%rax        # 21b18 <g_813>
    d3bf:	48 89 85 c0 fc ff ff 	mov    %rax,-0x340(%rbp)
    d3c6:	48 8d 85 00 f1 ff ff 	lea    -0xf00(%rbp),%rax
    d3cd:	48 83 c0 08          	add    $0x8,%rax
    d3d1:	48 89 85 c8 fc ff ff 	mov    %rax,-0x338(%rbp)
    d3d8:	48 8d 05 39 47 01 00 	lea    0x14739(%rip),%rax        # 21b18 <g_813>
    d3df:	48 89 85 d0 fc ff ff 	mov    %rax,-0x330(%rbp)
    d3e6:	48 8d 05 2b 47 01 00 	lea    0x1472b(%rip),%rax        # 21b18 <g_813>
    d3ed:	48 89 85 d8 fc ff ff 	mov    %rax,-0x328(%rbp)
    d3f4:	48 8d 05 1d 47 01 00 	lea    0x1471d(%rip),%rax        # 21b18 <g_813>
    d3fb:	48 89 85 e0 fc ff ff 	mov    %rax,-0x320(%rbp)
    d402:	48 8d 05 0f 47 01 00 	lea    0x1470f(%rip),%rax        # 21b18 <g_813>
    d409:	48 89 85 e8 fc ff ff 	mov    %rax,-0x318(%rbp)
    d410:	48 8d 85 00 f1 ff ff 	lea    -0xf00(%rbp),%rax
    d417:	48 89 85 f0 fc ff ff 	mov    %rax,-0x310(%rbp)
    d41e:	48 c7 85 f8 fc ff ff 	movq   $0x0,-0x308(%rbp)
    d425:	00 00 00 00 
    d429:	48 8d 05 e8 46 01 00 	lea    0x146e8(%rip),%rax        # 21b18 <g_813>
    d430:	48 89 85 00 fd ff ff 	mov    %rax,-0x300(%rbp)
    d437:	48 c7 85 08 fd ff ff 	movq   $0x0,-0x2f8(%rbp)
    d43e:	00 00 00 00 
    d442:	48 c7 85 10 fd ff ff 	movq   $0x0,-0x2f0(%rbp)
    d449:	00 00 00 00 
    d44d:	48 c7 85 18 fd ff ff 	movq   $0x0,-0x2e8(%rbp)
    d454:	00 00 00 00 
    d458:	48 8d 85 00 f1 ff ff 	lea    -0xf00(%rbp),%rax
    d45f:	48 89 85 20 fd ff ff 	mov    %rax,-0x2e0(%rbp)
    d466:	48 8d 05 ab 46 01 00 	lea    0x146ab(%rip),%rax        # 21b18 <g_813>
    d46d:	48 89 85 28 fd ff ff 	mov    %rax,-0x2d8(%rbp)
    d474:	48 8d 05 9d 46 01 00 	lea    0x1469d(%rip),%rax        # 21b18 <g_813>
    d47b:	48 89 85 30 fd ff ff 	mov    %rax,-0x2d0(%rbp)
    d482:	48 8d 05 8f 46 01 00 	lea    0x1468f(%rip),%rax        # 21b18 <g_813>
    d489:	48 89 85 38 fd ff ff 	mov    %rax,-0x2c8(%rbp)
    d490:	48 c7 85 40 fd ff ff 	movq   $0x0,-0x2c0(%rbp)
    d497:	00 00 00 00 
    d49b:	48 8d 85 00 f1 ff ff 	lea    -0xf00(%rbp),%rax
    d4a2:	48 83 c0 08          	add    $0x8,%rax
    d4a6:	48 89 85 48 fd ff ff 	mov    %rax,-0x2b8(%rbp)
    d4ad:	48 8d 85 00 f1 ff ff 	lea    -0xf00(%rbp),%rax
    d4b4:	48 89 85 50 fd ff ff 	mov    %rax,-0x2b0(%rbp)
    d4bb:	48 8d 85 00 f1 ff ff 	lea    -0xf00(%rbp),%rax
    d4c2:	48 89 85 58 fd ff ff 	mov    %rax,-0x2a8(%rbp)
    d4c9:	48 8d 85 00 f1 ff ff 	lea    -0xf00(%rbp),%rax
    d4d0:	48 89 85 60 fd ff ff 	mov    %rax,-0x2a0(%rbp)
    d4d7:	48 8d 05 3a 46 01 00 	lea    0x1463a(%rip),%rax        # 21b18 <g_813>
    d4de:	48 89 85 68 fd ff ff 	mov    %rax,-0x298(%rbp)
    d4e5:	48 8d 85 00 f1 ff ff 	lea    -0xf00(%rbp),%rax
    d4ec:	48 89 85 70 fd ff ff 	mov    %rax,-0x290(%rbp)
    d4f3:	48 8d 05 1e 46 01 00 	lea    0x1461e(%rip),%rax        # 21b18 <g_813>
    d4fa:	48 89 85 78 fd ff ff 	mov    %rax,-0x288(%rbp)
    d501:	48 c7 85 80 fd ff ff 	movq   $0x0,-0x280(%rbp)
    d508:	00 00 00 00 
    d50c:	48 c7 85 88 fd ff ff 	movq   $0x0,-0x278(%rbp)
    d513:	00 00 00 00 
    d517:	48 8d 05 fa 45 01 00 	lea    0x145fa(%rip),%rax        # 21b18 <g_813>
    d51e:	48 89 85 90 fd ff ff 	mov    %rax,-0x270(%rbp)
    d525:	48 8d 85 00 f1 ff ff 	lea    -0xf00(%rbp),%rax
    d52c:	48 89 85 98 fd ff ff 	mov    %rax,-0x268(%rbp)
    d533:	48 c7 85 a0 fd ff ff 	movq   $0x0,-0x260(%rbp)
    d53a:	00 00 00 00 
    d53e:	48 8d 05 d3 45 01 00 	lea    0x145d3(%rip),%rax        # 21b18 <g_813>
    d545:	48 89 85 a8 fd ff ff 	mov    %rax,-0x258(%rbp)
    d54c:	48 8d 85 00 f1 ff ff 	lea    -0xf00(%rbp),%rax
    d553:	48 89 85 b0 fd ff ff 	mov    %rax,-0x250(%rbp)
    d55a:	48 8d 85 00 f1 ff ff 	lea    -0xf00(%rbp),%rax
    d561:	48 89 85 b8 fd ff ff 	mov    %rax,-0x248(%rbp)
    d568:	48 8d 85 00 f1 ff ff 	lea    -0xf00(%rbp),%rax
    d56f:	48 89 85 c0 fd ff ff 	mov    %rax,-0x240(%rbp)
    d576:	48 8d 85 00 f1 ff ff 	lea    -0xf00(%rbp),%rax
    d57d:	48 89 85 c8 fd ff ff 	mov    %rax,-0x238(%rbp)
    d584:	48 8d 85 00 f1 ff ff 	lea    -0xf00(%rbp),%rax
    d58b:	48 89 85 d0 fd ff ff 	mov    %rax,-0x230(%rbp)
    d592:	48 8d 05 7f 45 01 00 	lea    0x1457f(%rip),%rax        # 21b18 <g_813>
    d599:	48 89 85 d8 fd ff ff 	mov    %rax,-0x228(%rbp)
    d5a0:	48 c7 85 e0 fd ff ff 	movq   $0x0,-0x220(%rbp)
    d5a7:	00 00 00 00 
    d5ab:	48 8d 85 00 f1 ff ff 	lea    -0xf00(%rbp),%rax
    d5b2:	48 89 85 e8 fd ff ff 	mov    %rax,-0x218(%rbp)
    d5b9:	48 8d 05 58 45 01 00 	lea    0x14558(%rip),%rax        # 21b18 <g_813>
    d5c0:	48 89 85 f0 fd ff ff 	mov    %rax,-0x210(%rbp)
    d5c7:	48 8d 85 00 f1 ff ff 	lea    -0xf00(%rbp),%rax
    d5ce:	48 83 c0 08          	add    $0x8,%rax
    d5d2:	48 89 85 f8 fd ff ff 	mov    %rax,-0x208(%rbp)
    d5d9:	48 8d 85 00 f1 ff ff 	lea    -0xf00(%rbp),%rax
    d5e0:	48 89 85 00 fe ff ff 	mov    %rax,-0x200(%rbp)
    d5e7:	48 8d 05 2a 45 01 00 	lea    0x1452a(%rip),%rax        # 21b18 <g_813>
    d5ee:	48 89 85 08 fe ff ff 	mov    %rax,-0x1f8(%rbp)
    d5f5:	48 c7 85 10 fe ff ff 	movq   $0x0,-0x1f0(%rbp)
    d5fc:	00 00 00 00 
    d600:	48 8d 05 11 45 01 00 	lea    0x14511(%rip),%rax        # 21b18 <g_813>
    d607:	48 89 85 18 fe ff ff 	mov    %rax,-0x1e8(%rbp)
    d60e:	48 8d 05 03 45 01 00 	lea    0x14503(%rip),%rax        # 21b18 <g_813>
    d615:	48 89 85 20 fe ff ff 	mov    %rax,-0x1e0(%rbp)
    d61c:	48 8d 05 f5 44 01 00 	lea    0x144f5(%rip),%rax        # 21b18 <g_813>
    d623:	48 89 85 28 fe ff ff 	mov    %rax,-0x1d8(%rbp)
    d62a:	48 8d 85 00 f1 ff ff 	lea    -0xf00(%rbp),%rax
    d631:	48 89 85 30 fe ff ff 	mov    %rax,-0x1d0(%rbp)
    d638:	48 8d 85 00 f1 ff ff 	lea    -0xf00(%rbp),%rax
    d63f:	48 83 c0 08          	add    $0x8,%rax
    d643:	48 89 85 38 fe ff ff 	mov    %rax,-0x1c8(%rbp)
    d64a:	48 8d 05 c7 44 01 00 	lea    0x144c7(%rip),%rax        # 21b18 <g_813>
    d651:	48 89 85 40 fe ff ff 	mov    %rax,-0x1c0(%rbp)
    d658:	48 8d 85 00 f1 ff ff 	lea    -0xf00(%rbp),%rax
    d65f:	48 89 85 48 fe ff ff 	mov    %rax,-0x1b8(%rbp)
    d666:	48 8d 05 ab 44 01 00 	lea    0x144ab(%rip),%rax        # 21b18 <g_813>
    d66d:	48 89 85 50 fe ff ff 	mov    %rax,-0x1b0(%rbp)
    d674:	48 8d 05 9d 44 01 00 	lea    0x1449d(%rip),%rax        # 21b18 <g_813>
    d67b:	48 89 85 58 fe ff ff 	mov    %rax,-0x1a8(%rbp)
    d682:	48 8d 05 8f 44 01 00 	lea    0x1448f(%rip),%rax        # 21b18 <g_813>
    d689:	48 89 85 60 fe ff ff 	mov    %rax,-0x1a0(%rbp)
    d690:	48 8d 85 00 f1 ff ff 	lea    -0xf00(%rbp),%rax
    d697:	48 89 85 68 fe ff ff 	mov    %rax,-0x198(%rbp)
    d69e:	48 8d 05 73 44 01 00 	lea    0x14473(%rip),%rax        # 21b18 <g_813>
    d6a5:	48 89 85 70 fe ff ff 	mov    %rax,-0x190(%rbp)
    d6ac:	48 8d 85 00 f1 ff ff 	lea    -0xf00(%rbp),%rax
    d6b3:	48 89 85 78 fe ff ff 	mov    %rax,-0x188(%rbp)
    d6ba:	48 8d 85 00 f1 ff ff 	lea    -0xf00(%rbp),%rax
    d6c1:	48 89 85 80 fe ff ff 	mov    %rax,-0x180(%rbp)
    d6c8:	48 8d 05 49 44 01 00 	lea    0x14449(%rip),%rax        # 21b18 <g_813>
    d6cf:	48 89 85 88 fe ff ff 	mov    %rax,-0x178(%rbp)
    d6d6:	48 8d 05 3b 44 01 00 	lea    0x1443b(%rip),%rax        # 21b18 <g_813>
    d6dd:	48 89 85 90 fe ff ff 	mov    %rax,-0x170(%rbp)
    d6e4:	48 8d 85 00 f1 ff ff 	lea    -0xf00(%rbp),%rax
    d6eb:	48 89 85 98 fe ff ff 	mov    %rax,-0x168(%rbp)
    d6f2:	48 8d 85 00 f1 ff ff 	lea    -0xf00(%rbp),%rax
    d6f9:	48 83 c0 08          	add    $0x8,%rax
    d6fd:	48 89 85 a0 fe ff ff 	mov    %rax,-0x160(%rbp)
    d704:	48 c7 85 a8 fe ff ff 	movq   $0x0,-0x158(%rbp)
    d70b:	00 00 00 00 
    d70f:	48 8d 05 02 44 01 00 	lea    0x14402(%rip),%rax        # 21b18 <g_813>
    d716:	48 89 85 b0 fe ff ff 	mov    %rax,-0x150(%rbp)
    d71d:	48 8d 05 f4 43 01 00 	lea    0x143f4(%rip),%rax        # 21b18 <g_813>
    d724:	48 89 85 b8 fe ff ff 	mov    %rax,-0x148(%rbp)
    d72b:	48 8d 85 00 f1 ff ff 	lea    -0xf00(%rbp),%rax
    d732:	48 89 85 c0 fe ff ff 	mov    %rax,-0x140(%rbp)
    d739:	48 8d 05 d8 43 01 00 	lea    0x143d8(%rip),%rax        # 21b18 <g_813>
    d740:	48 89 85 c8 fe ff ff 	mov    %rax,-0x138(%rbp)
    d747:	48 8d 05 ca 43 01 00 	lea    0x143ca(%rip),%rax        # 21b18 <g_813>
    d74e:	48 89 85 d0 fe ff ff 	mov    %rax,-0x130(%rbp)
    d755:	48 8d 85 00 f1 ff ff 	lea    -0xf00(%rbp),%rax
    d75c:	48 89 85 d8 fe ff ff 	mov    %rax,-0x128(%rbp)
    d763:	48 8d 05 ae 43 01 00 	lea    0x143ae(%rip),%rax        # 21b18 <g_813>
    d76a:	48 89 85 e0 fe ff ff 	mov    %rax,-0x120(%rbp)
    d771:	48 8d 85 00 f1 ff ff 	lea    -0xf00(%rbp),%rax
    d778:	48 83 c0 08          	add    $0x8,%rax
    d77c:	48 89 85 e8 fe ff ff 	mov    %rax,-0x118(%rbp)
    d783:	48 8d 05 8e 43 01 00 	lea    0x1438e(%rip),%rax        # 21b18 <g_813>
    d78a:	48 89 85 f0 fe ff ff 	mov    %rax,-0x110(%rbp)
    d791:	48 8d 05 80 43 01 00 	lea    0x14380(%rip),%rax        # 21b18 <g_813>
    d798:	48 89 85 f8 fe ff ff 	mov    %rax,-0x108(%rbp)
    d79f:	48 8d 05 72 43 01 00 	lea    0x14372(%rip),%rax        # 21b18 <g_813>
    d7a6:	48 89 85 00 ff ff ff 	mov    %rax,-0x100(%rbp)
    d7ad:	48 8d 05 64 43 01 00 	lea    0x14364(%rip),%rax        # 21b18 <g_813>
    d7b4:	48 89 85 08 ff ff ff 	mov    %rax,-0xf8(%rbp)
    d7bb:	48 8d 85 00 f1 ff ff 	lea    -0xf00(%rbp),%rax
    d7c2:	48 89 85 10 ff ff ff 	mov    %rax,-0xf0(%rbp)
    d7c9:	48 c7 85 18 ff ff ff 	movq   $0x0,-0xe8(%rbp)
    d7d0:	00 00 00 00 
    d7d4:	48 8d 05 3d 43 01 00 	lea    0x1433d(%rip),%rax        # 21b18 <g_813>
    d7db:	48 89 85 20 ff ff ff 	mov    %rax,-0xe0(%rbp)
    d7e2:	48 c7 85 28 ff ff ff 	movq   $0x0,-0xd8(%rbp)
    d7e9:	00 00 00 00 
    d7ed:	48 c7 85 30 ff ff ff 	movq   $0x0,-0xd0(%rbp)
    d7f4:	00 00 00 00 
    d7f8:	48 c7 85 38 ff ff ff 	movq   $0x0,-0xc8(%rbp)
    d7ff:	00 00 00 00 
    d803:	48 8d 85 00 f1 ff ff 	lea    -0xf00(%rbp),%rax
    d80a:	48 89 85 40 ff ff ff 	mov    %rax,-0xc0(%rbp)
    d811:	48 8d 05 00 43 01 00 	lea    0x14300(%rip),%rax        # 21b18 <g_813>
    d818:	48 89 85 48 ff ff ff 	mov    %rax,-0xb8(%rbp)
    d81f:	48 8d 05 f2 42 01 00 	lea    0x142f2(%rip),%rax        # 21b18 <g_813>
    d826:	48 89 85 50 ff ff ff 	mov    %rax,-0xb0(%rbp)
    d82d:	48 8d 05 e4 42 01 00 	lea    0x142e4(%rip),%rax        # 21b18 <g_813>
    d834:	48 89 85 58 ff ff ff 	mov    %rax,-0xa8(%rbp)
    d83b:	48 c7 85 60 ff ff ff 	movq   $0x0,-0xa0(%rbp)
    d842:	00 00 00 00 
    d846:	48 8d 85 00 f1 ff ff 	lea    -0xf00(%rbp),%rax
    d84d:	48 83 c0 08          	add    $0x8,%rax
    d851:	48 89 85 68 ff ff ff 	mov    %rax,-0x98(%rbp)
    d858:	48 8d 85 00 f1 ff ff 	lea    -0xf00(%rbp),%rax
    d85f:	48 89 85 70 ff ff ff 	mov    %rax,-0x90(%rbp)
    d866:	48 8d 85 00 f1 ff ff 	lea    -0xf00(%rbp),%rax
    d86d:	48 89 85 78 ff ff ff 	mov    %rax,-0x88(%rbp)
    d874:	48 8d 85 00 f1 ff ff 	lea    -0xf00(%rbp),%rax
    d87b:	48 89 45 80          	mov    %rax,-0x80(%rbp)
    d87f:	48 8d 05 92 42 01 00 	lea    0x14292(%rip),%rax        # 21b18 <g_813>
    d886:	48 89 45 88          	mov    %rax,-0x78(%rbp)
    d88a:	48 8d 85 00 f1 ff ff 	lea    -0xf00(%rbp),%rax
    d891:	48 89 45 90          	mov    %rax,-0x70(%rbp)
    d895:	48 8d 05 7c 42 01 00 	lea    0x1427c(%rip),%rax        # 21b18 <g_813>
    d89c:	48 89 45 98          	mov    %rax,-0x68(%rbp)
    d8a0:	48 c7 45 a0 00 00 00 	movq   $0x0,-0x60(%rbp)
    d8a7:	00 
    d8a8:	48 c7 45 a8 00 00 00 	movq   $0x0,-0x58(%rbp)
    d8af:	00 
    d8b0:	48 8d 05 61 42 01 00 	lea    0x14261(%rip),%rax        # 21b18 <g_813>
    d8b7:	48 89 45 b0          	mov    %rax,-0x50(%rbp)
    d8bb:	48 8d 85 00 f1 ff ff 	lea    -0xf00(%rbp),%rax
    d8c2:	48 89 45 b8          	mov    %rax,-0x48(%rbp)
    d8c6:	48 c7 45 c0 00 00 00 	movq   $0x0,-0x40(%rbp)
    d8cd:	00 
    d8ce:	48 8d 05 43 42 01 00 	lea    0x14243(%rip),%rax        # 21b18 <g_813>
    d8d5:	48 89 45 c8          	mov    %rax,-0x38(%rbp)
    d8d9:	48 8d 85 00 f1 ff ff 	lea    -0xf00(%rbp),%rax
    d8e0:	48 89 45 d0          	mov    %rax,-0x30(%rbp)
    d8e4:	48 8d 85 00 f1 ff ff 	lea    -0xf00(%rbp),%rax
    d8eb:	48 89 45 d8          	mov    %rax,-0x28(%rbp)
    d8ef:	48 8d 85 00 f8 ff ff 	lea    -0x800(%rbp),%rax
    d8f6:	48 05 d0 01 00 00    	add    $0x1d0,%rax
    d8fc:	48 89 85 40 f1 ff ff 	mov    %rax,-0xec0(%rbp)
    d903:	48 8d 85 00 f8 ff ff 	lea    -0x800(%rbp),%rax
    d90a:	48 05 d0 01 00 00    	add    $0x1d0,%rax
    d910:	48 89 85 48 f1 ff ff 	mov    %rax,-0xeb8(%rbp)
    d917:	48 8d 85 00 f8 ff ff 	lea    -0x800(%rbp),%rax
    d91e:	48 05 d0 01 00 00    	add    $0x1d0,%rax
    d924:	48 89 85 50 f1 ff ff 	mov    %rax,-0xeb0(%rbp)
    d92b:	48 8d 85 00 f8 ff ff 	lea    -0x800(%rbp),%rax
    d932:	48 05 d0 01 00 00    	add    $0x1d0,%rax
    d938:	48 89 85 58 f1 ff ff 	mov    %rax,-0xea8(%rbp)
    d93f:	48 8d 85 00 f8 ff ff 	lea    -0x800(%rbp),%rax
    d946:	48 05 d0 01 00 00    	add    $0x1d0,%rax
    d94c:	48 89 85 60 f1 ff ff 	mov    %rax,-0xea0(%rbp)
    d953:	48 8d 85 00 f8 ff ff 	lea    -0x800(%rbp),%rax
    d95a:	48 05 d0 01 00 00    	add    $0x1d0,%rax
    d960:	48 89 85 68 f1 ff ff 	mov    %rax,-0xe98(%rbp)
    d967:	48 8d 85 50 f0 ff ff 	lea    -0xfb0(%rbp),%rax
    d96e:	48 89 85 c8 f0 ff ff 	mov    %rax,-0xf38(%rbp)
    d975:	c7 85 38 f0 ff ff 00 	movl   $0x0,-0xfc8(%rbp)
    d97c:	00 00 00 
    d97f:	eb 1a                	jmp    d99b <func_17+0x122c>
    d981:	8b 85 38 f0 ff ff    	mov    -0xfc8(%rbp),%eax
    d987:	48 98                	cltq   
    d989:	c7 84 85 e8 f0 ff ff 	movl   $0xffffffff,-0xf18(%rbp,%rax,4)
    d990:	ff ff ff ff 
    d994:	83 85 38 f0 ff ff 01 	addl   $0x1,-0xfc8(%rbp)
    d99b:	83 bd 38 f0 ff ff 01 	cmpl   $0x1,-0xfc8(%rbp)
    d9a2:	7e dd                	jle    d981 <func_17+0x1212>
    d9a4:	c7 85 38 f0 ff ff 00 	movl   $0x0,-0xfc8(%rbp)
    d9ab:	00 00 00 
    d9ae:	eb 1e                	jmp    d9ce <func_17+0x125f>
    d9b0:	8b 85 38 f0 ff ff    	mov    -0xfc8(%rbp),%eax
    d9b6:	48 98                	cltq   
    d9b8:	48 8d 15 71 3f 01 00 	lea    0x13f71(%rip),%rdx        # 21930 <g_536>
    d9bf:	48 89 94 c5 e0 f0 ff 	mov    %rdx,-0xf20(%rbp,%rax,8)
    d9c6:	ff 
    d9c7:	83 85 38 f0 ff ff 01 	addl   $0x1,-0xfc8(%rbp)
    d9ce:	83 bd 38 f0 ff ff 00 	cmpl   $0x0,-0xfc8(%rbp)
    d9d5:	7e d9                	jle    d9b0 <func_17+0x1241>
    d9d7:	0f b6 05 c3 18 01 00 	movzbl 0x118c3(%rip),%eax        # 1f2a1 <g_616+0x1>
    d9de:	83 c0 01             	add    $0x1,%eax
    d9e1:	88 05 ba 18 01 00    	mov    %al,0x118ba(%rip)        # 1f2a1 <g_616+0x1>
    d9e7:	0f b6 05 b3 18 01 00 	movzbl 0x118b3(%rip),%eax        # 1f2a1 <g_616+0x1>
    d9ee:	3c 03                	cmp    $0x3,%al
    d9f0:	0f 86 eb f0 ff ff    	jbe    cae1 <func_17+0x372>
    d9f6:	0f b6 05 c4 18 01 00 	movzbl 0x118c4(%rip),%eax        # 1f2c1 <g_791+0x1>
    d9fd:	83 c0 01             	add    $0x1,%eax
    da00:	88 05 bb 18 01 00    	mov    %al,0x118bb(%rip)        # 1f2c1 <g_791+0x1>
    da06:	0f b6 05 b4 18 01 00 	movzbl 0x118b4(%rip),%eax        # 1f2c1 <g_791+0x1>
    da0d:	3c 03                	cmp    $0x3,%al
    da0f:	0f 86 74 ee ff ff    	jbe    c889 <func_17+0x11a>
    da15:	8b 85 3c f0 ff ff    	mov    -0xfc4(%rbp),%eax
    da1b:	48 8b 5d e8          	mov    -0x18(%rbp),%rbx
    da1f:	64 48 33 1c 25 28 00 	xor    %fs:0x28,%rbx
    da26:	00 00 
    da28:	74 05                	je     da2f <func_17+0x12c0>
    da2a:	e8 41 a6 ff ff       	callq  8070 <__stack_chk_fail@plt>
    da2f:	48 81 c4 e0 0f 00 00 	add    $0xfe0,%rsp
    da36:	5b                   	pop    %rbx
    da37:	41 5c                	pop    %r12
    da39:	5d                   	pop    %rbp
    da3a:	c3                   	retq   

000000000000da3b <func_20>:
    da3b:	f3 0f 1e fa          	endbr64 
    da3f:	55                   	push   %rbp
    da40:	48 89 e5             	mov    %rsp,%rbp
    da43:	41 55                	push   %r13
    da45:	41 54                	push   %r12
    da47:	53                   	push   %rbx
    da48:	48 81 ec c8 0f 00 00 	sub    $0xfc8,%rsp
    da4f:	48 89 bd 38 f0 ff ff 	mov    %rdi,-0xfc8(%rbp)
    da56:	89 f0                	mov    %esi,%eax
    da58:	48 89 95 28 f0 ff ff 	mov    %rdx,-0xfd8(%rbp)
    da5f:	88 85 34 f0 ff ff    	mov    %al,-0xfcc(%rbp)
    da65:	64 48 8b 04 25 28 00 	mov    %fs:0x28,%rax
    da6c:	00 00 
    da6e:	48 89 45 d8          	mov    %rax,-0x28(%rbp)
    da72:	31 c0                	xor    %eax,%eax
    da74:	66 c7 85 46 f0 ff ff 	movw   $0x0,-0xfba(%rbp)
    da7b:	00 00 
    da7d:	c7 85 50 f0 ff ff f8 	movl   $0xfffffff8,-0xfb0(%rbp)
    da84:	ff ff ff 
    da87:	c7 85 90 f1 ff ff fa 	movl   $0xfffffffa,-0xe70(%rbp)
    da8e:	ff ff ff 
    da91:	c7 85 94 f1 ff ff fa 	movl   $0xfffffffa,-0xe6c(%rbp)
    da98:	ff ff ff 
    da9b:	c7 85 98 f1 ff ff fa 	movl   $0xfffffffa,-0xe68(%rbp)
    daa2:	ff ff ff 
    daa5:	c7 85 9c f1 ff ff fa 	movl   $0xfffffffa,-0xe64(%rbp)
    daac:	ff ff ff 
    daaf:	48 8d 05 8a 39 01 00 	lea    0x1398a(%rip),%rax        # 21440 <g_61>
    dab6:	48 89 85 00 f2 ff ff 	mov    %rax,-0xe00(%rbp)
    dabd:	48 8d 05 7c 39 01 00 	lea    0x1397c(%rip),%rax        # 21440 <g_61>
    dac4:	48 89 85 08 f2 ff ff 	mov    %rax,-0xdf8(%rbp)
    dacb:	48 8d 05 6e 39 01 00 	lea    0x1396e(%rip),%rax        # 21440 <g_61>
    dad2:	48 89 85 10 f2 ff ff 	mov    %rax,-0xdf0(%rbp)
    dad9:	48 8d 05 60 39 01 00 	lea    0x13960(%rip),%rax        # 21440 <g_61>
    dae0:	48 89 85 18 f2 ff ff 	mov    %rax,-0xde8(%rbp)
    dae7:	48 8d 05 52 39 01 00 	lea    0x13952(%rip),%rax        # 21440 <g_61>
    daee:	48 89 85 20 f2 ff ff 	mov    %rax,-0xde0(%rbp)
    daf5:	48 8d 05 44 39 01 00 	lea    0x13944(%rip),%rax        # 21440 <g_61>
    dafc:	48 89 85 28 f2 ff ff 	mov    %rax,-0xdd8(%rbp)
    db03:	c7 85 30 f2 ff ff f7 	movl   $0xf7d6d6f7,-0xdd0(%rbp)
    db0a:	d6 d6 f7 
    db0d:	66 c7 85 34 f2 ff ff 	movw   $0xcefc,-0xdcc(%rbp)
    db14:	fc ce 
    db16:	c7 85 36 f2 ff ff 00 	movl   $0xfcd600,-0xdca(%rbp)
    db1d:	d6 fc 00 
    db20:	66 c7 85 3a f2 ff ff 	movw   $0xd6fc,-0xdc6(%rbp)
    db27:	fc d6 
    db29:	c7 85 3c f2 ff ff 1d 	movl   $0x1dced61d,-0xdc4(%rbp)
    db30:	d6 ce 1d 
    db33:	66 c7 85 40 f2 ff ff 	movw   $0xfcfc,-0xdc0(%rbp)
    db3a:	fc fc 
    db3c:	c7 85 42 f2 ff ff f7 	movl   $0xf7d6d6f7,-0xdbe(%rbp)
    db43:	d6 d6 f7 
    db46:	66 c7 85 46 f2 ff ff 	movw   $0xcefc,-0xdba(%rbp)
    db4d:	fc ce 
    db4f:	c7 85 48 f2 ff ff 00 	movl   $0xfcd600,-0xdb8(%rbp)
    db56:	d6 fc 00 
    db59:	66 c7 85 4c f2 ff ff 	movw   $0xd6fc,-0xdb4(%rbp)
    db60:	fc d6 
    db62:	c7 85 4e f2 ff ff 1d 	movl   $0x1dced61d,-0xdb2(%rbp)
    db69:	d6 ce 1d 
    db6c:	66 c7 85 52 f2 ff ff 	movw   $0xfcfc,-0xdae(%rbp)
    db73:	fc fc 
    db75:	c7 85 54 f2 ff ff f7 	movl   $0xf7d6d6f7,-0xdac(%rbp)
    db7c:	d6 d6 f7 
    db7f:	66 c7 85 58 f2 ff ff 	movw   $0xcefc,-0xda8(%rbp)
    db86:	fc ce 
    db88:	c7 85 5a f2 ff ff 00 	movl   $0xfcd600,-0xda6(%rbp)
    db8f:	d6 fc 00 
    db92:	66 c7 85 5e f2 ff ff 	movw   $0xd6fc,-0xda2(%rbp)
    db99:	fc d6 
    db9b:	c7 85 60 f2 ff ff 1d 	movl   $0x1dced61d,-0xda0(%rbp)
    dba2:	d6 ce 1d 
    dba5:	66 c7 85 64 f2 ff ff 	movw   $0xfcfc,-0xd9c(%rbp)
    dbac:	fc fc 
    dbae:	c7 85 66 f2 ff ff f7 	movl   $0xf7d6d6f7,-0xd9a(%rbp)
    dbb5:	d6 d6 f7 
    dbb8:	66 c7 85 6a f2 ff ff 	movw   $0xcefc,-0xd96(%rbp)
    dbbf:	fc ce 
    dbc1:	48 8d 05 c0 3f 01 00 	lea    0x13fc0(%rip),%rax        # 21b88 <g_851>
    dbc8:	48 89 85 70 f2 ff ff 	mov    %rax,-0xd90(%rbp)
    dbcf:	48 c7 85 78 f2 ff ff 	movq   $0x0,-0xd88(%rbp)
    dbd6:	00 00 00 00 
    dbda:	48 8d 05 a7 3f 01 00 	lea    0x13fa7(%rip),%rax        # 21b88 <g_851>
    dbe1:	48 89 85 80 f2 ff ff 	mov    %rax,-0xd80(%rbp)
    dbe8:	48 c7 85 88 f2 ff ff 	movq   $0x0,-0xd78(%rbp)
    dbef:	00 00 00 00 
    dbf3:	48 8d 05 8e 3f 01 00 	lea    0x13f8e(%rip),%rax        # 21b88 <g_851>
    dbfa:	48 89 85 90 f2 ff ff 	mov    %rax,-0xd70(%rbp)
    dc01:	48 c7 85 98 f2 ff ff 	movq   $0x0,-0xd68(%rbp)
    dc08:	00 00 00 00 
    dc0c:	48 c7 85 a0 f2 ff ff 	movq   $0x0,-0xd60(%rbp)
    dc13:	00 00 00 00 
    dc17:	48 8d 05 6a 3f 01 00 	lea    0x13f6a(%rip),%rax        # 21b88 <g_851>
    dc1e:	48 89 85 a8 f2 ff ff 	mov    %rax,-0xd58(%rbp)
    dc25:	48 c7 85 b0 f2 ff ff 	movq   $0x0,-0xd50(%rbp)
    dc2c:	00 00 00 00 
    dc30:	48 c7 85 b8 f2 ff ff 	movq   $0x0,-0xd48(%rbp)
    dc37:	00 00 00 00 
    dc3b:	48 8d 05 46 3f 01 00 	lea    0x13f46(%rip),%rax        # 21b88 <g_851>
    dc42:	48 89 85 c0 f2 ff ff 	mov    %rax,-0xd40(%rbp)
    dc49:	48 c7 85 c8 f2 ff ff 	movq   $0x0,-0xd38(%rbp)
    dc50:	00 00 00 00 
    dc54:	48 8d 05 2d 3f 01 00 	lea    0x13f2d(%rip),%rax        # 21b88 <g_851>
    dc5b:	48 89 85 d0 f2 ff ff 	mov    %rax,-0xd30(%rbp)
    dc62:	48 8d 05 1f 3f 01 00 	lea    0x13f1f(%rip),%rax        # 21b88 <g_851>
    dc69:	48 89 85 d8 f2 ff ff 	mov    %rax,-0xd28(%rbp)
    dc70:	48 c7 85 e0 f2 ff ff 	movq   $0x0,-0xd20(%rbp)
    dc77:	00 00 00 00 
    dc7b:	48 8d 05 96 3e 01 00 	lea    0x13e96(%rip),%rax        # 21b18 <g_813>
    dc82:	48 89 85 90 f0 ff ff 	mov    %rax,-0xf70(%rbp)
    dc89:	48 8d 05 88 40 01 00 	lea    0x14088(%rip),%rax        # 21d18 <g_1313>
    dc90:	48 89 85 d0 f0 ff ff 	mov    %rax,-0xf30(%rbp)
    dc97:	48 8d 05 82 3e 01 00 	lea    0x13e82(%rip),%rax        # 21b20 <g_812>
    dc9e:	48 89 85 b0 f3 ff ff 	mov    %rax,-0xc50(%rbp)
    dca5:	48 c7 85 b8 f3 ff ff 	movq   $0x0,-0xc48(%rbp)
    dcac:	00 00 00 00 
    dcb0:	48 8d 85 90 f0 ff ff 	lea    -0xf70(%rbp),%rax
    dcb7:	48 89 85 c0 f3 ff ff 	mov    %rax,-0xc40(%rbp)
    dcbe:	48 8d 85 90 f0 ff ff 	lea    -0xf70(%rbp),%rax
    dcc5:	48 89 85 c8 f3 ff ff 	mov    %rax,-0xc38(%rbp)
    dccc:	48 c7 85 d0 f3 ff ff 	movq   $0x0,-0xc30(%rbp)
    dcd3:	00 00 00 00 
    dcd7:	48 8d 05 42 3e 01 00 	lea    0x13e42(%rip),%rax        # 21b20 <g_812>
    dcde:	48 89 85 d8 f3 ff ff 	mov    %rax,-0xc28(%rbp)
    dce5:	48 8d 85 90 f0 ff ff 	lea    -0xf70(%rbp),%rax
    dcec:	48 89 85 e0 f3 ff ff 	mov    %rax,-0xc20(%rbp)
    dcf3:	48 8d 05 26 3e 01 00 	lea    0x13e26(%rip),%rax        # 21b20 <g_812>
    dcfa:	48 89 85 e8 f3 ff ff 	mov    %rax,-0xc18(%rbp)
    dd01:	48 c7 85 f0 f3 ff ff 	movq   $0x0,-0xc10(%rbp)
    dd08:	00 00 00 00 
    dd0c:	48 8d 05 0d 3e 01 00 	lea    0x13e0d(%rip),%rax        # 21b20 <g_812>
    dd13:	48 89 85 f8 f3 ff ff 	mov    %rax,-0xc08(%rbp)
    dd1a:	48 8d 85 90 f0 ff ff 	lea    -0xf70(%rbp),%rax
    dd21:	48 89 85 00 f4 ff ff 	mov    %rax,-0xc00(%rbp)
    dd28:	48 8d 05 f1 3d 01 00 	lea    0x13df1(%rip),%rax        # 21b20 <g_812>
    dd2f:	48 89 85 08 f4 ff ff 	mov    %rax,-0xbf8(%rbp)
    dd36:	48 8d 85 90 f0 ff ff 	lea    -0xf70(%rbp),%rax
    dd3d:	48 89 85 10 f4 ff ff 	mov    %rax,-0xbf0(%rbp)
    dd44:	48 8d 85 90 f0 ff ff 	lea    -0xf70(%rbp),%rax
    dd4b:	48 89 85 18 f4 ff ff 	mov    %rax,-0xbe8(%rbp)
    dd52:	48 8d 05 c7 3d 01 00 	lea    0x13dc7(%rip),%rax        # 21b20 <g_812>
    dd59:	48 89 85 20 f4 ff ff 	mov    %rax,-0xbe0(%rbp)
    dd60:	48 8d 85 90 f0 ff ff 	lea    -0xf70(%rbp),%rax
    dd67:	48 89 85 28 f4 ff ff 	mov    %rax,-0xbd8(%rbp)
    dd6e:	48 8d 05 ab 3d 01 00 	lea    0x13dab(%rip),%rax        # 21b20 <g_812>
    dd75:	48 89 85 30 f4 ff ff 	mov    %rax,-0xbd0(%rbp)
    dd7c:	48 8d 85 90 f0 ff ff 	lea    -0xf70(%rbp),%rax
    dd83:	48 89 85 38 f4 ff ff 	mov    %rax,-0xbc8(%rbp)
    dd8a:	48 c7 85 40 f4 ff ff 	movq   $0x0,-0xbc0(%rbp)
    dd91:	00 00 00 00 
    dd95:	48 8d 85 90 f0 ff ff 	lea    -0xf70(%rbp),%rax
    dd9c:	48 89 85 48 f4 ff ff 	mov    %rax,-0xbb8(%rbp)
    dda3:	48 c7 85 50 f4 ff ff 	movq   $0x0,-0xbb0(%rbp)
    ddaa:	00 00 00 00 
    ddae:	48 8d 85 90 f0 ff ff 	lea    -0xf70(%rbp),%rax
    ddb5:	48 89 85 58 f4 ff ff 	mov    %rax,-0xba8(%rbp)
    ddbc:	48 8d 05 5d 3d 01 00 	lea    0x13d5d(%rip),%rax        # 21b20 <g_812>
    ddc3:	48 89 85 60 f4 ff ff 	mov    %rax,-0xba0(%rbp)
    ddca:	48 8d 05 4f 3d 01 00 	lea    0x13d4f(%rip),%rax        # 21b20 <g_812>
    ddd1:	48 89 85 68 f4 ff ff 	mov    %rax,-0xb98(%rbp)
    ddd8:	48 8d 85 90 f0 ff ff 	lea    -0xf70(%rbp),%rax
    dddf:	48 89 85 70 f4 ff ff 	mov    %rax,-0xb90(%rbp)
    dde6:	48 c7 85 78 f4 ff ff 	movq   $0x0,-0xb88(%rbp)
    dded:	00 00 00 00 
    ddf1:	48 8d 85 90 f0 ff ff 	lea    -0xf70(%rbp),%rax
    ddf8:	48 89 85 80 f4 ff ff 	mov    %rax,-0xb80(%rbp)
    ddff:	48 8d 85 90 f0 ff ff 	lea    -0xf70(%rbp),%rax
    de06:	48 89 85 88 f4 ff ff 	mov    %rax,-0xb78(%rbp)
    de0d:	48 8d 05 0c 3d 01 00 	lea    0x13d0c(%rip),%rax        # 21b20 <g_812>
    de14:	48 89 85 90 f4 ff ff 	mov    %rax,-0xb70(%rbp)
    de1b:	48 8d 85 90 f0 ff ff 	lea    -0xf70(%rbp),%rax
    de22:	48 89 85 98 f4 ff ff 	mov    %rax,-0xb68(%rbp)
    de29:	48 8d 85 90 f0 ff ff 	lea    -0xf70(%rbp),%rax
    de30:	48 89 85 a0 f4 ff ff 	mov    %rax,-0xb60(%rbp)
    de37:	48 8d 05 e2 3c 01 00 	lea    0x13ce2(%rip),%rax        # 21b20 <g_812>
    de3e:	48 89 85 a8 f4 ff ff 	mov    %rax,-0xb58(%rbp)
    de45:	48 c7 85 b0 f4 ff ff 	movq   $0x0,-0xb50(%rbp)
    de4c:	00 00 00 00 
    de50:	48 c7 85 b8 f4 ff ff 	movq   $0x0,-0xb48(%rbp)
    de57:	00 00 00 00 
    de5b:	48 8d 05 be 3c 01 00 	lea    0x13cbe(%rip),%rax        # 21b20 <g_812>
    de62:	48 89 85 c0 f4 ff ff 	mov    %rax,-0xb40(%rbp)
    de69:	48 8d 85 90 f0 ff ff 	lea    -0xf70(%rbp),%rax
    de70:	48 89 85 c8 f4 ff ff 	mov    %rax,-0xb38(%rbp)
    de77:	48 8d 85 90 f0 ff ff 	lea    -0xf70(%rbp),%rax
    de7e:	48 89 85 d0 f4 ff ff 	mov    %rax,-0xb30(%rbp)
    de85:	48 8d 85 90 f0 ff ff 	lea    -0xf70(%rbp),%rax
    de8c:	48 89 85 d8 f4 ff ff 	mov    %rax,-0xb28(%rbp)
    de93:	48 8d 85 90 f0 ff ff 	lea    -0xf70(%rbp),%rax
    de9a:	48 89 85 e0 f4 ff ff 	mov    %rax,-0xb20(%rbp)
    dea1:	48 8d 85 90 f0 ff ff 	lea    -0xf70(%rbp),%rax
    dea8:	48 89 85 e8 f4 ff ff 	mov    %rax,-0xb18(%rbp)
    deaf:	48 8d 85 90 f0 ff ff 	lea    -0xf70(%rbp),%rax
    deb6:	48 89 85 f0 f4 ff ff 	mov    %rax,-0xb10(%rbp)
    debd:	48 c7 85 f8 f4 ff ff 	movq   $0x0,-0xb08(%rbp)
    dec4:	00 00 00 00 
    dec8:	48 8d 05 51 3c 01 00 	lea    0x13c51(%rip),%rax        # 21b20 <g_812>
    decf:	48 89 85 00 f5 ff ff 	mov    %rax,-0xb00(%rbp)
    ded6:	48 8d 05 43 3c 01 00 	lea    0x13c43(%rip),%rax        # 21b20 <g_812>
    dedd:	48 89 85 08 f5 ff ff 	mov    %rax,-0xaf8(%rbp)
    dee4:	48 c7 85 10 f5 ff ff 	movq   $0x0,-0xaf0(%rbp)
    deeb:	00 00 00 00 
    deef:	48 8d 85 90 f0 ff ff 	lea    -0xf70(%rbp),%rax
    def6:	48 89 85 18 f5 ff ff 	mov    %rax,-0xae8(%rbp)
    defd:	48 8d 05 1c 3c 01 00 	lea    0x13c1c(%rip),%rax        # 21b20 <g_812>
    df04:	48 89 85 20 f5 ff ff 	mov    %rax,-0xae0(%rbp)
    df0b:	48 8d 85 90 f0 ff ff 	lea    -0xf70(%rbp),%rax
    df12:	48 89 85 28 f5 ff ff 	mov    %rax,-0xad8(%rbp)
    df19:	48 8d 05 00 3c 01 00 	lea    0x13c00(%rip),%rax        # 21b20 <g_812>
    df20:	48 89 85 30 f5 ff ff 	mov    %rax,-0xad0(%rbp)
    df27:	48 8d 85 90 f0 ff ff 	lea    -0xf70(%rbp),%rax
    df2e:	48 89 85 38 f5 ff ff 	mov    %rax,-0xac8(%rbp)
    df35:	48 8d 85 90 f0 ff ff 	lea    -0xf70(%rbp),%rax
    df3c:	48 89 85 40 f5 ff ff 	mov    %rax,-0xac0(%rbp)
    df43:	48 8d 05 d6 3b 01 00 	lea    0x13bd6(%rip),%rax        # 21b20 <g_812>
    df4a:	48 89 85 48 f5 ff ff 	mov    %rax,-0xab8(%rbp)
    df51:	48 c7 85 50 f5 ff ff 	movq   $0x0,-0xab0(%rbp)
    df58:	00 00 00 00 
    df5c:	48 c7 85 58 f5 ff ff 	movq   $0x0,-0xaa8(%rbp)
    df63:	00 00 00 00 
    df67:	48 c7 85 60 f5 ff ff 	movq   $0x0,-0xaa0(%rbp)
    df6e:	00 00 00 00 
    df72:	48 8d 85 90 f0 ff ff 	lea    -0xf70(%rbp),%rax
    df79:	48 89 85 68 f5 ff ff 	mov    %rax,-0xa98(%rbp)
    df80:	48 c7 85 70 f5 ff ff 	movq   $0x0,-0xa90(%rbp)
    df87:	00 00 00 00 
    df8b:	48 8d 85 90 f0 ff ff 	lea    -0xf70(%rbp),%rax
    df92:	48 89 85 78 f5 ff ff 	mov    %rax,-0xa88(%rbp)
    df99:	48 c7 85 80 f5 ff ff 	movq   $0x0,-0xa80(%rbp)
    dfa0:	00 00 00 00 
    dfa4:	48 8d 85 90 f0 ff ff 	lea    -0xf70(%rbp),%rax
    dfab:	48 89 85 88 f5 ff ff 	mov    %rax,-0xa78(%rbp)
    dfb2:	48 c7 85 90 f5 ff ff 	movq   $0x0,-0xa70(%rbp)
    dfb9:	00 00 00 00 
    dfbd:	48 8d 85 90 f0 ff ff 	lea    -0xf70(%rbp),%rax
    dfc4:	48 89 85 98 f5 ff ff 	mov    %rax,-0xa68(%rbp)
    dfcb:	48 8d 05 4e 3b 01 00 	lea    0x13b4e(%rip),%rax        # 21b20 <g_812>
    dfd2:	48 89 85 a0 f5 ff ff 	mov    %rax,-0xa60(%rbp)
    dfd9:	48 8d 05 40 3b 01 00 	lea    0x13b40(%rip),%rax        # 21b20 <g_812>
    dfe0:	48 89 85 a8 f5 ff ff 	mov    %rax,-0xa58(%rbp)
    dfe7:	48 8d 85 90 f0 ff ff 	lea    -0xf70(%rbp),%rax
    dfee:	48 89 85 b0 f5 ff ff 	mov    %rax,-0xa50(%rbp)
    dff5:	48 8d 05 24 3b 01 00 	lea    0x13b24(%rip),%rax        # 21b20 <g_812>
    dffc:	48 89 85 b8 f5 ff ff 	mov    %rax,-0xa48(%rbp)
    e003:	48 8d 85 90 f0 ff ff 	lea    -0xf70(%rbp),%rax
    e00a:	48 89 85 c0 f5 ff ff 	mov    %rax,-0xa40(%rbp)
    e011:	48 c7 85 c8 f5 ff ff 	movq   $0x0,-0xa38(%rbp)
    e018:	00 00 00 00 
    e01c:	48 8d 85 90 f0 ff ff 	lea    -0xf70(%rbp),%rax
    e023:	48 89 85 d0 f5 ff ff 	mov    %rax,-0xa30(%rbp)
    e02a:	48 8d 05 ef 3a 01 00 	lea    0x13aef(%rip),%rax        # 21b20 <g_812>
    e031:	48 89 85 d8 f5 ff ff 	mov    %rax,-0xa28(%rbp)
    e038:	48 8d 85 90 f0 ff ff 	lea    -0xf70(%rbp),%rax
    e03f:	48 89 85 e0 f5 ff ff 	mov    %rax,-0xa20(%rbp)
    e046:	48 8d 05 d3 3a 01 00 	lea    0x13ad3(%rip),%rax        # 21b20 <g_812>
    e04d:	48 89 85 e8 f5 ff ff 	mov    %rax,-0xa18(%rbp)
    e054:	48 8d 85 90 f0 ff ff 	lea    -0xf70(%rbp),%rax
    e05b:	48 89 85 f0 f5 ff ff 	mov    %rax,-0xa10(%rbp)
    e062:	48 c7 85 f8 f5 ff ff 	movq   $0x0,-0xa08(%rbp)
    e069:	00 00 00 00 
    e06d:	48 8d 05 ac 3a 01 00 	lea    0x13aac(%rip),%rax        # 21b20 <g_812>
    e074:	48 89 85 00 f6 ff ff 	mov    %rax,-0xa00(%rbp)
    e07b:	48 8d 85 90 f0 ff ff 	lea    -0xf70(%rbp),%rax
    e082:	48 89 85 08 f6 ff ff 	mov    %rax,-0x9f8(%rbp)
    e089:	48 8d 05 90 3a 01 00 	lea    0x13a90(%rip),%rax        # 21b20 <g_812>
    e090:	48 89 85 10 f6 ff ff 	mov    %rax,-0x9f0(%rbp)
    e097:	48 c7 85 18 f6 ff ff 	movq   $0x0,-0x9e8(%rbp)
    e09e:	00 00 00 00 
    e0a2:	48 8d 05 77 3a 01 00 	lea    0x13a77(%rip),%rax        # 21b20 <g_812>
    e0a9:	48 89 85 20 f6 ff ff 	mov    %rax,-0x9e0(%rbp)
    e0b0:	48 8d 85 90 f0 ff ff 	lea    -0xf70(%rbp),%rax
    e0b7:	48 89 85 28 f6 ff ff 	mov    %rax,-0x9d8(%rbp)
    e0be:	48 8d 05 5b 3a 01 00 	lea    0x13a5b(%rip),%rax        # 21b20 <g_812>
    e0c5:	48 89 85 30 f6 ff ff 	mov    %rax,-0x9d0(%rbp)
    e0cc:	48 8d 05 45 3a 01 00 	lea    0x13a45(%rip),%rax        # 21b18 <g_813>
    e0d3:	48 89 85 d8 f0 ff ff 	mov    %rax,-0xf28(%rbp)
    e0da:	66 c7 85 a0 f1 ff ff 	movw   $0x71eb,-0xe60(%rbp)
    e0e1:	eb 71 
    e0e3:	66 c7 85 a2 f1 ff ff 	movw   $0xc5be,-0xe5e(%rbp)
    e0ea:	be c5 
    e0ec:	66 c7 85 a4 f1 ff ff 	movw   $0xc5be,-0xe5c(%rbp)
    e0f3:	be c5 
    e0f5:	66 c7 85 a6 f1 ff ff 	movw   $0x71eb,-0xe5a(%rbp)
    e0fc:	eb 71 
    e0fe:	66 c7 85 a8 f1 ff ff 	movw   $0xc5be,-0xe58(%rbp)
    e105:	be c5 
    e107:	66 c7 85 aa f1 ff ff 	movw   $0xc5be,-0xe56(%rbp)
    e10e:	be c5 
    e110:	66 c7 85 ac f1 ff ff 	movw   $0x71eb,-0xe54(%rbp)
    e117:	eb 71 
    e119:	66 c7 85 ae f1 ff ff 	movw   $0xc5be,-0xe52(%rbp)
    e120:	be c5 
    e122:	66 c7 85 48 f0 ff ff 	movw   $0x8420,-0xfb8(%rbp)
    e129:	20 84 
    e12b:	c6 85 42 f0 ff ff 64 	movb   $0x64,-0xfbe(%rbp)
    e132:	c7 85 68 f0 ff ff fa 	movl   $0xfffffffa,-0xf98(%rbp)
    e139:	ff ff ff 
    e13c:	c6 85 43 f0 ff ff 82 	movb   $0x82,-0xfbd(%rbp)
    e143:	0f b7 85 46 f0 ff ff 	movzwl -0xfba(%rbp),%eax
    e14a:	0f b7 c0             	movzwl %ax,%eax
    e14d:	89 85 38 f0 ff ff    	mov    %eax,-0xfc8(%rbp)
    e153:	c7 05 33 11 01 00 00 	movl   $0x0,0x11133(%rip)        # 1f290 <g_551>
    e15a:	00 00 00 
    e15d:	e9 ef 12 00 00       	jmpq   f451 <func_20+0x1a16>
    e162:	c6 85 41 f0 ff ff 62 	movb   $0x62,-0xfbf(%rbp)
    e169:	48 8d 05 90 3b 01 00 	lea    0x13b90(%rip),%rax        # 21d00 <g_983>
    e170:	48 89 85 48 f1 ff ff 	mov    %rax,-0xeb8(%rbp)
    e177:	c7 85 54 f0 ff ff c1 	movl   $0xd4cc1ec1,-0xfac(%rbp)
    e17e:	1e cc d4 
    e181:	c7 85 78 f0 ff ff fe 	movl   $0xfffffffe,-0xf88(%rbp)
    e188:	ff ff ff 
    e18b:	c7 85 7c f0 ff ff 56 	movl   $0xf2d78356,-0xf84(%rbp)
    e192:	83 d7 f2 
    e195:	48 8d 05 7c 39 01 00 	lea    0x1397c(%rip),%rax        # 21b18 <g_813>
    e19c:	48 89 85 98 f0 ff ff 	mov    %rax,-0xf68(%rbp)
    e1a3:	c7 85 38 f0 ff ff 01 	movl   $0x1,-0xfc8(%rbp)
    e1aa:	00 00 00 
    e1ad:	48 c7 85 38 f0 ff ff 	movq   $0x0,-0xfc8(%rbp)
    e1b4:	00 00 00 00 
    e1b8:	e9 68 12 00 00       	jmpq   f425 <func_20+0x19ea>
    e1bd:	66 c7 85 d0 f1 ff ff 	movw   $0xfffd,-0xe30(%rbp)
    e1c4:	fd ff 
    e1c6:	66 c7 85 d2 f1 ff ff 	movw   $0xfffd,-0xe2e(%rbp)
    e1cd:	fd ff 
    e1cf:	66 c7 85 d4 f1 ff ff 	movw   $0x81bb,-0xe2c(%rbp)
    e1d6:	bb 81 
    e1d8:	66 c7 85 d6 f1 ff ff 	movw   $0xfffd,-0xe2a(%rbp)
    e1df:	fd ff 
    e1e1:	66 c7 85 d8 f1 ff ff 	movw   $0xfffd,-0xe28(%rbp)
    e1e8:	fd ff 
    e1ea:	66 c7 85 da f1 ff ff 	movw   $0x81bb,-0xe26(%rbp)
    e1f1:	bb 81 
    e1f3:	66 c7 85 dc f1 ff ff 	movw   $0xfffd,-0xe24(%rbp)
    e1fa:	fd ff 
    e1fc:	66 c7 85 de f1 ff ff 	movw   $0xfffd,-0xe22(%rbp)
    e203:	fd ff 
    e205:	66 c7 85 e0 f1 ff ff 	movw   $0x81bb,-0xe20(%rbp)
    e20c:	bb 81 
    e20e:	c7 85 f0 f2 ff ff f8 	movl   $0xfffffff8,-0xd10(%rbp)
    e215:	ff ff ff 
    e218:	c7 85 f4 f2 ff ff f8 	movl   $0xfffffff8,-0xd0c(%rbp)
    e21f:	ff ff ff 
    e222:	c7 85 f8 f2 ff ff 08 	movl   $0x8,-0xd08(%rbp)
    e229:	00 00 00 
    e22c:	c7 85 fc f2 ff ff f8 	movl   $0xfffffff8,-0xd04(%rbp)
    e233:	ff ff ff 
    e236:	c7 85 00 f3 ff ff f8 	movl   $0xfffffff8,-0xd00(%rbp)
    e23d:	ff ff ff 
    e240:	c7 85 04 f3 ff ff 08 	movl   $0x8,-0xcfc(%rbp)
    e247:	00 00 00 
    e24a:	c7 85 08 f3 ff ff f8 	movl   $0xfffffff8,-0xcf8(%rbp)
    e251:	ff ff ff 
    e254:	c7 85 0c f3 ff ff f8 	movl   $0xfffffff8,-0xcf4(%rbp)
    e25b:	ff ff ff 
    e25e:	48 c7 85 40 f6 ff ff 	movq   $0x0,-0x9c0(%rbp)
    e265:	00 00 00 00 
    e269:	48 c7 85 48 f6 ff ff 	movq   $0x0,-0x9b8(%rbp)
    e270:	00 00 00 00 
    e274:	48 c7 85 50 f6 ff ff 	movq   $0x0,-0x9b0(%rbp)
    e27b:	00 00 00 00 
    e27f:	48 c7 85 58 f6 ff ff 	movq   $0x0,-0x9a8(%rbp)
    e286:	00 00 00 00 
    e28a:	48 c7 85 60 f6 ff ff 	movq   $0x0,-0x9a0(%rbp)
    e291:	00 00 00 00 
    e295:	48 c7 85 68 f6 ff ff 	movq   $0x0,-0x998(%rbp)
    e29c:	00 00 00 00 
    e2a0:	48 c7 85 70 f6 ff ff 	movq   $0x0,-0x990(%rbp)
    e2a7:	00 00 00 00 
    e2ab:	48 c7 85 78 f6 ff ff 	movq   $0x0,-0x988(%rbp)
    e2b2:	00 00 00 00 
    e2b6:	48 8d 85 d0 f1 ff ff 	lea    -0xe30(%rbp),%rax
    e2bd:	48 83 c0 02          	add    $0x2,%rax
    e2c1:	48 89 85 a0 f0 ff ff 	mov    %rax,-0xf60(%rbp)
    e2c8:	48 8d 85 a0 f0 ff ff 	lea    -0xf60(%rbp),%rax
    e2cf:	48 89 85 a8 f0 ff ff 	mov    %rax,-0xf58(%rbp)
    e2d6:	48 8d 85 a8 f0 ff ff 	lea    -0xf58(%rbp),%rax
    e2dd:	48 89 85 b0 f0 ff ff 	mov    %rax,-0xf50(%rbp)
    e2e4:	48 8d 85 b0 f0 ff ff 	lea    -0xf50(%rbp),%rax
    e2eb:	48 89 85 b8 f0 ff ff 	mov    %rax,-0xf48(%rbp)
    e2f2:	48 8d 85 b8 f0 ff ff 	lea    -0xf48(%rbp),%rax
    e2f9:	48 89 85 50 f1 ff ff 	mov    %rax,-0xeb0(%rbp)
    e300:	c7 85 58 f0 ff ff 00 	movl   $0x0,-0xfa8(%rbp)
    e307:	00 00 00 
    e30a:	eb 14                	jmp    e320 <func_20+0x8e5>
    e30c:	8b 85 58 f0 ff ff    	mov    -0xfa8(%rbp),%eax
    e312:	48 98                	cltq   
    e314:	c6 44 05 d0 00       	movb   $0x0,-0x30(%rbp,%rax,1)
    e319:	83 85 58 f0 ff ff 01 	addl   $0x1,-0xfa8(%rbp)
    e320:	83 bd 58 f0 ff ff 03 	cmpl   $0x3,-0xfa8(%rbp)
    e327:	7e e3                	jle    e30c <func_20+0x8d1>
    e329:	c7 05 95 0f 01 00 01 	movl   $0x1,0x10f95(%rip)        # 1f2c8 <g_791+0x8>
    e330:	00 00 00 
    e333:	eb 1f                	jmp    e354 <func_20+0x919>
    e335:	48 8b 85 38 f0 ff ff 	mov    -0xfc8(%rbp),%rax
    e33c:	48 85 c0             	test   %rax,%rax
    e33f:	0f 85 c1 10 00 00    	jne    f406 <func_20+0x19cb>
    e345:	8b 05 7d 0f 01 00    	mov    0x10f7d(%rip),%eax        # 1f2c8 <g_791+0x8>
    e34b:	83 c0 01             	add    $0x1,%eax
    e34e:	89 05 74 0f 01 00    	mov    %eax,0x10f74(%rip)        # 1f2c8 <g_791+0x8>
    e354:	8b 05 6e 0f 01 00    	mov    0x10f6e(%rip),%eax        # 1f2c8 <g_791+0x8>
    e35a:	83 f8 05             	cmp    $0x5,%eax
    e35d:	76 d6                	jbe    e335 <func_20+0x8fa>
    e35f:	80 bd 34 f0 ff ff 00 	cmpb   $0x0,-0xfcc(%rbp)
    e366:	0f 85 a6 10 00 00    	jne    f412 <func_20+0x19d7>
    e36c:	80 ad 41 f0 ff ff 01 	subb   $0x1,-0xfbf(%rbp)
    e373:	48 83 bd 28 f0 ff ff 	cmpq   $0x0,-0xfd8(%rbp)
    e37a:	00 
    e37b:	0f 84 d0 03 00 00    	je     e751 <func_20+0xd16>
    e381:	48 c7 85 c0 f0 ff ff 	movq   $0x5,-0xf40(%rbp)
    e388:	05 00 00 00 
    e38c:	c7 85 80 f0 ff ff c4 	movl   $0xe49651c4,-0xf80(%rbp)
    e393:	51 96 e4 
    e396:	80 bd 34 f0 ff ff 00 	cmpb   $0x0,-0xfcc(%rbp)
    e39d:	74 44                	je     e3e3 <func_20+0x9a8>
    e39f:	48 c7 05 2e 10 01 00 	movq   $0x1,0x1102e(%rip)        # 1f3d8 <g_1534>
    e3a6:	01 00 00 00 
    e3aa:	eb 25                	jmp    e3d1 <func_20+0x996>
    e3ac:	48 c7 85 78 f1 ff ff 	movq   $0xfffffffffffffff6,-0xe88(%rbp)
    e3b3:	f6 ff ff ff 
    e3b7:	48 83 85 78 f1 ff ff 	addq   $0x1,-0xe88(%rbp)
    e3be:	01 
    e3bf:	48 8b 05 12 10 01 00 	mov    0x11012(%rip),%rax        # 1f3d8 <g_1534>
    e3c6:	48 83 c0 01          	add    $0x1,%rax
    e3ca:	48 89 05 07 10 01 00 	mov    %rax,0x11007(%rip)        # 1f3d8 <g_1534>
    e3d1:	48 8b 05 00 10 01 00 	mov    0x11000(%rip),%rax        # 1f3d8 <g_1534>
    e3d8:	48 83 f8 05          	cmp    $0x5,%rax
    e3dc:	7e ce                	jle    e3ac <func_20+0x971>
    e3de:	e9 03 02 00 00       	jmpq   e5e6 <func_20+0xbab>
    e3e3:	c7 85 84 f0 ff ff 01 	movl   $0x1,-0xf7c(%rbp)
    e3ea:	00 00 00 
    e3ed:	c7 85 88 f0 ff ff ff 	movl   $0xffffffff,-0xf78(%rbp)
    e3f4:	ff ff ff 
    e3f7:	48 c7 85 70 f1 ff ff 	movq   $0x0,-0xe90(%rbp)
    e3fe:	00 00 00 00 
    e402:	8b 05 00 0f 01 00    	mov    0x10f00(%rip),%eax        # 1f308 <g_954>
    e408:	0f b6 c0             	movzbl %al,%eax
    e40b:	83 e0 06             	and    $0x6,%eax
    e40e:	89 c2                	mov    %eax,%edx
    e410:	0f b7 85 46 f0 ff ff 	movzwl -0xfba(%rbp),%eax
    e417:	0f b6 c0             	movzbl %al,%eax
    e41a:	89 d6                	mov    %edx,%esi
    e41c:	89 c7                	mov    %eax,%edi
    e41e:	e8 70 a7 ff ff       	callq  8b93 <safe_mul_func_uint8_t_u_u>
    e423:	84 c0                	test   %al,%al
    e425:	74 1d                	je     e444 <func_20+0xa09>
    e427:	0f b7 85 38 f0 ff ff 	movzwl -0xfc8(%rbp),%eax
    e42e:	66 85 c0             	test   %ax,%ax
    e431:	0f 85 01 10 00 00    	jne    f438 <func_20+0x19fd>
    e437:	48 83 85 c0 f0 ff ff 	addq   $0x1,-0xf40(%rbp)
    e43e:	01 
    e43f:	e9 a2 01 00 00       	jmpq   e5e6 <func_20+0xbab>
    e444:	c7 85 8c f0 ff ff a1 	movl   $0xdf8feba1,-0xf74(%rbp)
    e44b:	eb 8f df 
    e44e:	c7 85 5c f0 ff ff 00 	movl   $0x0,-0xfa4(%rbp)
    e455:	00 00 00 
    e458:	eb 1b                	jmp    e475 <func_20+0xa3a>
    e45a:	8b 85 5c f0 ff ff    	mov    -0xfa4(%rbp),%eax
    e460:	48 98                	cltq   
    e462:	48 c7 84 c5 40 f9 ff 	movq   $0x0,-0x6c0(%rbp,%rax,8)
    e469:	ff 00 00 00 00 
    e46e:	83 85 5c f0 ff ff 01 	addl   $0x1,-0xfa4(%rbp)
    e475:	83 bd 5c f0 ff ff 03 	cmpl   $0x3,-0xfa4(%rbp)
    e47c:	7e dc                	jle    e45a <func_20+0xa1f>
    e47e:	0f b6 9d 41 f0 ff ff 	movzbl -0xfbf(%rbp),%ebx
    e485:	48 83 bd 70 f1 ff ff 	cmpq   $0x0,-0xe90(%rbp)
    e48c:	00 
    e48d:	0f 95 c0             	setne  %al
    e490:	0f b6 c0             	movzbl %al,%eax
    e493:	09 85 80 f0 ff ff    	or     %eax,-0xf80(%rbp)
    e499:	48 8b 05 f0 37 01 00 	mov    0x137f0(%rip),%rax        # 21c90 <g_980>
    e4a0:	0f b7 00             	movzwl (%rax),%eax
    e4a3:	44 0f b7 e0          	movzwl %ax,%r12d
    e4a7:	0f b7 85 38 f0 ff ff 	movzwl -0xfc8(%rbp),%eax
    e4ae:	0f b7 c0             	movzwl %ax,%eax
    e4b1:	be 00 00 00 00       	mov    $0x0,%esi
    e4b6:	89 c7                	mov    %eax,%edi
    e4b8:	e8 13 aa ff ff       	callq  8ed0 <safe_sub_func_uint32_t_u_u>
    e4bd:	89 c2                	mov    %eax,%edx
    e4bf:	48 8b 85 38 f0 ff ff 	mov    -0xfc8(%rbp),%rax
    e4c6:	48 39 c2             	cmp    %rax,%rdx
    e4c9:	0f 97 c0             	seta   %al
    e4cc:	0f b6 d0             	movzbl %al,%edx
    e4cf:	0f b6 85 41 f0 ff ff 	movzbl -0xfbf(%rbp),%eax
    e4d6:	39 c2                	cmp    %eax,%edx
    e4d8:	74 11                	je     e4eb <func_20+0xab0>
    e4da:	48 83 bd 28 f0 ff ff 	cmpq   $0x0,-0xfd8(%rbp)
    e4e1:	00 
    e4e2:	74 07                	je     e4eb <func_20+0xab0>
    e4e4:	b8 01 00 00 00       	mov    $0x1,%eax
    e4e9:	eb 05                	jmp    e4f0 <func_20+0xab5>
    e4eb:	b8 00 00 00 00       	mov    $0x0,%eax
    e4f0:	0f b6 d0             	movzbl %al,%edx
    e4f3:	48 8b 85 c0 f0 ff ff 	mov    -0xf40(%rbp),%rax
    e4fa:	0f b6 c0             	movzbl %al,%eax
    e4fd:	89 d6                	mov    %edx,%esi
    e4ff:	89 c7                	mov    %eax,%edi
    e501:	e8 54 a6 ff ff       	callq  8b5a <safe_add_func_uint8_t_u_u>
    e506:	0f b6 c0             	movzbl %al,%eax
    e509:	44 89 e6             	mov    %r12d,%esi
    e50c:	89 c7                	mov    %eax,%edi
    e50e:	e8 f3 a8 ff ff       	callq  8e06 <safe_lshift_func_uint16_t_u_u>
    e513:	0f b7 95 38 f0 ff ff 	movzwl -0xfc8(%rbp),%edx
    e51a:	09 d0                	or     %edx,%eax
    e51c:	66 85 c0             	test   %ax,%ax
    e51f:	74 16                	je     e537 <func_20+0xafc>
    e521:	48 8b 05 68 37 01 00 	mov    0x13768(%rip),%rax        # 21c90 <g_980>
    e528:	0f b7 00             	movzwl (%rax),%eax
    e52b:	66 85 c0             	test   %ax,%ax
    e52e:	74 07                	je     e537 <func_20+0xafc>
    e530:	b8 01 00 00 00       	mov    $0x1,%eax
    e535:	eb 05                	jmp    e53c <func_20+0xb01>
    e537:	b8 00 00 00 00       	mov    $0x0,%eax
    e53c:	3b 85 88 f0 ff ff    	cmp    -0xf78(%rbp),%eax
    e542:	0f 9c c0             	setl   %al
    e545:	0f b6 c0             	movzbl %al,%eax
    e548:	39 85 80 f0 ff ff    	cmp    %eax,-0xf80(%rbp)
    e54e:	0f 94 c0             	sete   %al
    e551:	0f b6 c0             	movzbl %al,%eax
    e554:	be 05 00 00 00       	mov    $0x5,%esi
    e559:	48 89 c7             	mov    %rax,%rdi
    e55c:	e8 47 a3 ff ff       	callq  88a8 <safe_sub_func_int64_t_s_s>
    e561:	0f b7 c0             	movzwl %ax,%eax
    e564:	89 de                	mov    %ebx,%esi
    e566:	89 c7                	mov    %eax,%edi
    e568:	e8 b2 a7 ff ff       	callq  8d1f <safe_sub_func_uint16_t_u_u>
    e56d:	0f b7 c0             	movzwl %ax,%eax
    e570:	39 85 8c f0 ff ff    	cmp    %eax,-0xf74(%rbp)
    e576:	48 8b 05 a3 33 01 00 	mov    0x133a3(%rip),%rax        # 21920 <g_360>
    e57d:	8b 10                	mov    (%rax),%edx
    e57f:	8b 85 84 f0 ff ff    	mov    -0xf7c(%rbp),%eax
    e585:	21 d0                	and    %edx,%eax
    e587:	89 85 84 f0 ff ff    	mov    %eax,-0xf7c(%rbp)
    e58d:	48 8b 85 28 f2 ff ff 	mov    -0xdd8(%rbp),%rax
    e594:	48 85 c0             	test   %rax,%rax
    e597:	0f 94 c2             	sete   %dl
    e59a:	48 8b 85 50 f1 ff ff 	mov    -0xeb0(%rbp),%rax
    e5a1:	48 3b 85 48 f1 ff ff 	cmp    -0xeb8(%rbp),%rax
    e5a8:	0f 95 c0             	setne  %al
    e5ab:	31 d0                	xor    %edx,%eax
    e5ad:	0f b6 d0             	movzbl %al,%edx
    e5b0:	48 8b 05 41 37 01 00 	mov    0x13741(%rip),%rax        # 21cf8 <g_984>
    e5b7:	48 8b 00             	mov    (%rax),%rax
    e5ba:	48 8b 00             	mov    (%rax),%rax
    e5bd:	0f b7 00             	movzwl (%rax),%eax
    e5c0:	98                   	cwtl   
    e5c1:	39 c2                	cmp    %eax,%edx
    e5c3:	0f 9f c0             	setg   %al
    e5c6:	0f b6 d0             	movzbl %al,%edx
    e5c9:	8b 05 6d 0a 01 00    	mov    0x10a6d(%rip),%eax        # 1f03c <g_62+0x4>
    e5cf:	21 d0                	and    %edx,%eax
    e5d1:	89 05 65 0a 01 00    	mov    %eax,0x10a65(%rip)        # 1f03c <g_62+0x4>
    e5d7:	80 bd 41 f0 ff ff 00 	cmpb   $0x0,-0xfbf(%rbp)
    e5de:	74 06                	je     e5e6 <func_20+0xbab>
    e5e0:	90                   	nop
    e5e1:	e9 53 0e 00 00       	jmpq   f439 <func_20+0x19fe>
    e5e6:	48 8b 85 c0 f0 ff ff 	mov    -0xf40(%rbp),%rax
    e5ed:	89 85 80 f0 ff ff    	mov    %eax,-0xf80(%rbp)
    e5f3:	83 bd 80 f0 ff ff 00 	cmpl   $0x0,-0xf80(%rbp)
    e5fa:	0f 84 1d 01 00 00    	je     e71d <func_20+0xce2>
    e600:	66 c7 85 4e f0 ff ff 	movw   $0x1,-0xfb2(%rbp)
    e607:	01 00 
    e609:	83 8d 80 f0 ff ff 01 	orl    $0x1,-0xf80(%rbp)
    e610:	48 c7 85 c0 f0 ff ff 	movq   $0x0,-0xf40(%rbp)
    e617:	00 00 00 00 
    e61b:	e9 a1 00 00 00       	jmpq   e6c1 <func_20+0xc86>
    e620:	c6 85 45 f0 ff ff 01 	movb   $0x1,-0xfbb(%rbp)
    e627:	c7 85 40 f9 ff ff 07 	movl   $0x7,-0x6c0(%rbp)
    e62e:	00 00 00 
    e631:	c7 85 44 f9 ff ff ac 	movl   $0x7f31e1ac,-0x6bc(%rbp)
    e638:	e1 31 7f 
    e63b:	c7 85 48 f9 ff ff 07 	movl   $0x7,-0x6b8(%rbp)
    e642:	00 00 00 
    e645:	c7 85 4c f9 ff ff ac 	movl   $0x7f31e1ac,-0x6b4(%rbp)
    e64c:	e1 31 7f 
    e64f:	c7 85 50 f9 ff ff 07 	movl   $0x7,-0x6b0(%rbp)
    e656:	00 00 00 
    e659:	c7 85 54 f9 ff ff ac 	movl   $0x7f31e1ac,-0x6ac(%rbp)
    e660:	e1 31 7f 
    e663:	c7 85 58 f9 ff ff 07 	movl   $0x7,-0x6a8(%rbp)
    e66a:	00 00 00 
    e66d:	c7 85 5c f9 ff ff ac 	movl   $0x7f31e1ac,-0x6a4(%rbp)
    e674:	e1 31 7f 
    e677:	80 ad 45 f0 ff ff 01 	subb   $0x1,-0xfbb(%rbp)
    e67e:	48 8b 05 ab 36 01 00 	mov    0x136ab(%rip),%rax        # 21d30 <g_1426>
    e685:	48 8b 00             	mov    (%rax),%rax
    e688:	48 8b 95 98 f0 ff ff 	mov    -0xf68(%rbp),%rdx
    e68f:	48 89 10             	mov    %rdx,(%rax)
    e692:	0f b6 85 5e f2 ff ff 	movzbl -0xda2(%rbp),%eax
    e699:	83 e8 01             	sub    $0x1,%eax
    e69c:	88 85 5e f2 ff ff    	mov    %al,-0xda2(%rbp)
    e6a2:	48 8b 85 c0 f0 ff ff 	mov    -0xf40(%rbp),%rax
    e6a9:	98                   	cwtl   
    e6aa:	be 05 00 00 00       	mov    $0x5,%esi
    e6af:	89 c7                	mov    %eax,%edi
    e6b1:	e8 fd 9c ff ff       	callq  83b3 <safe_add_func_int16_t_s_s>
    e6b6:	48 0f bf c0          	movswq %ax,%rax
    e6ba:	48 89 85 c0 f0 ff ff 	mov    %rax,-0xf40(%rbp)
    e6c1:	48 83 bd c0 f0 ff ff 	cmpq   $0x19,-0xf40(%rbp)
    e6c8:	19 
    e6c9:	0f 85 51 ff ff ff    	jne    e620 <func_20+0xbe5>
    e6cf:	48 8b 05 82 2d 01 00 	mov    0x12d82(%rip),%rax        # 21458 <g_68>
    e6d6:	48 8b 00             	mov    (%rax),%rax
    e6d9:	48 8d 95 f0 f2 ff ff 	lea    -0xd10(%rbp),%rdx
    e6e0:	48 83 c2 1c          	add    $0x1c,%rdx
    e6e4:	48 89 10             	mov    %rdx,(%rax)
    e6e7:	66 83 bd 4e f0 ff ff 	cmpw   $0x0,-0xfb2(%rbp)
    e6ee:	00 
    e6ef:	74 0c                	je     e6fd <func_20+0xcc2>
    e6f1:	48 8b 85 28 f0 ff ff 	mov    -0xfd8(%rbp),%rax
    e6f8:	e9 f7 16 00 00       	jmpq   fdf4 <func_20+0x23b9>
    e6fd:	48 8b 05 54 2d 01 00 	mov    0x12d54(%rip),%rax        # 21458 <g_68>
    e704:	48 8b 00             	mov    (%rax),%rax
    e707:	48 8d 95 54 f0 ff ff 	lea    -0xfac(%rbp),%rdx
    e70e:	48 89 10             	mov    %rdx,(%rax)
    e711:	0f b6 85 34 f0 ff ff 	movzbl -0xfcc(%rbp),%eax
    e718:	e9 d7 16 00 00       	jmpq   fdf4 <func_20+0x23b9>
    e71d:	c6 05 7d 0b 01 00 0c 	movb   $0xc,0x10b7d(%rip)        # 1f2a1 <g_616+0x1>
    e724:	90                   	nop
    e725:	0f b6 05 75 0b 01 00 	movzbl 0x10b75(%rip),%eax        # 1f2a1 <g_616+0x1>
    e72c:	3c 37                	cmp    $0x37,%al
    e72e:	74 16                	je     e746 <func_20+0xd0b>
    e730:	0f b6 45 d2          	movzbl -0x2e(%rbp),%eax
    e734:	83 f0 05             	xor    $0x5,%eax
    e737:	88 45 d2             	mov    %al,-0x2e(%rbp)
    e73a:	48 8b 85 c0 f0 ff ff 	mov    -0xf40(%rbp),%rax
    e741:	e9 ae 16 00 00       	jmpq   fdf4 <func_20+0x23b9>
    e746:	8b 85 78 f0 ff ff    	mov    -0xf88(%rbp),%eax
    e74c:	e9 a3 16 00 00       	jmpq   fdf4 <func_20+0x23b9>
    e751:	48 8d 85 f0 f2 ff ff 	lea    -0xd10(%rbp),%rax
    e758:	48 83 c0 18          	add    $0x18,%rax
    e75c:	48 89 85 58 f1 ff ff 	mov    %rax,-0xea8(%rbp)
    e763:	48 8d 85 98 f0 ff ff 	lea    -0xf68(%rbp),%rax
    e76a:	48 89 85 60 f1 ff ff 	mov    %rax,-0xea0(%rbp)
    e771:	48 c7 05 b4 08 01 00 	movq   $0x0,0x108b4(%rip)        # 1f030 <g_39>
    e778:	00 00 00 00 
    e77c:	e9 8b 0a 00 00       	jmpq   f20c <func_20+0x17d1>
    e781:	48 c7 85 c8 f0 ff ff 	movq   $0x0,-0xf38(%rbp)
    e788:	00 00 00 00 
    e78c:	c6 05 4e 0b 01 00 e7 	movb   $0xe7,0x10b4e(%rip)        # 1f2e1 <g_793+0x1>
    e793:	e9 53 0a 00 00       	jmpq   f1eb <func_20+0x17b0>
    e798:	48 c7 85 68 f1 ff ff 	movq   $0x0,-0xe98(%rbp)
    e79f:	00 00 00 00 
    e7a3:	48 8d 85 40 f6 ff ff 	lea    -0x9c0(%rbp),%rax
    e7aa:	48 83 c0 08          	add    $0x8,%rax
    e7ae:	48 89 85 40 f9 ff ff 	mov    %rax,-0x6c0(%rbp)
    e7b5:	48 8d 85 40 f6 ff ff 	lea    -0x9c0(%rbp),%rax
    e7bc:	48 89 85 48 f9 ff ff 	mov    %rax,-0x6b8(%rbp)
    e7c3:	48 8d 05 c6 35 01 00 	lea    0x135c6(%rip),%rax        # 21d90 <g_1630>
    e7ca:	48 89 85 50 f9 ff ff 	mov    %rax,-0x6b0(%rbp)
    e7d1:	48 8d 85 40 f6 ff ff 	lea    -0x9c0(%rbp),%rax
    e7d8:	48 83 c0 18          	add    $0x18,%rax
    e7dc:	48 89 85 58 f9 ff ff 	mov    %rax,-0x6a8(%rbp)
    e7e3:	48 8d 05 a6 35 01 00 	lea    0x135a6(%rip),%rax        # 21d90 <g_1630>
    e7ea:	48 89 85 60 f9 ff ff 	mov    %rax,-0x6a0(%rbp)
    e7f1:	48 c7 85 68 f9 ff ff 	movq   $0x0,-0x698(%rbp)
    e7f8:	00 00 00 00 
    e7fc:	48 8d 05 8d 35 01 00 	lea    0x1358d(%rip),%rax        # 21d90 <g_1630>
    e803:	48 89 85 70 f9 ff ff 	mov    %rax,-0x690(%rbp)
    e80a:	48 8d 85 40 f6 ff ff 	lea    -0x9c0(%rbp),%rax
    e811:	48 83 c0 28          	add    $0x28,%rax
    e815:	48 89 85 78 f9 ff ff 	mov    %rax,-0x688(%rbp)
    e81c:	48 8d 85 40 f6 ff ff 	lea    -0x9c0(%rbp),%rax
    e823:	48 83 c0 28          	add    $0x28,%rax
    e827:	48 89 85 80 f9 ff ff 	mov    %rax,-0x680(%rbp)
    e82e:	48 8d 05 5b 35 01 00 	lea    0x1355b(%rip),%rax        # 21d90 <g_1630>
    e835:	48 89 85 88 f9 ff ff 	mov    %rax,-0x678(%rbp)
    e83c:	48 c7 85 90 f9 ff ff 	movq   $0x0,-0x670(%rbp)
    e843:	00 00 00 00 
    e847:	48 c7 85 98 f9 ff ff 	movq   $0x0,-0x668(%rbp)
    e84e:	00 00 00 00 
    e852:	48 8d 05 37 35 01 00 	lea    0x13537(%rip),%rax        # 21d90 <g_1630>
    e859:	48 89 85 a0 f9 ff ff 	mov    %rax,-0x660(%rbp)
    e860:	48 8d 05 29 35 01 00 	lea    0x13529(%rip),%rax        # 21d90 <g_1630>
    e867:	48 89 85 a8 f9 ff ff 	mov    %rax,-0x658(%rbp)
    e86e:	48 c7 85 b0 f9 ff ff 	movq   $0x0,-0x650(%rbp)
    e875:	00 00 00 00 
    e879:	48 c7 85 b8 f9 ff ff 	movq   $0x0,-0x648(%rbp)
    e880:	00 00 00 00 
    e884:	48 8d 85 40 f6 ff ff 	lea    -0x9c0(%rbp),%rax
    e88b:	48 89 85 c0 f9 ff ff 	mov    %rax,-0x640(%rbp)
    e892:	48 8d 85 40 f6 ff ff 	lea    -0x9c0(%rbp),%rax
    e899:	48 89 85 c8 f9 ff ff 	mov    %rax,-0x638(%rbp)
    e8a0:	48 8d 05 e9 34 01 00 	lea    0x134e9(%rip),%rax        # 21d90 <g_1630>
    e8a7:	48 89 85 d0 f9 ff ff 	mov    %rax,-0x630(%rbp)
    e8ae:	48 c7 85 d8 f9 ff ff 	movq   $0x0,-0x628(%rbp)
    e8b5:	00 00 00 00 
    e8b9:	48 8d 05 d0 34 01 00 	lea    0x134d0(%rip),%rax        # 21d90 <g_1630>
    e8c0:	48 89 85 e0 f9 ff ff 	mov    %rax,-0x620(%rbp)
    e8c7:	48 c7 85 e8 f9 ff ff 	movq   $0x0,-0x618(%rbp)
    e8ce:	00 00 00 00 
    e8d2:	48 8d 05 b7 34 01 00 	lea    0x134b7(%rip),%rax        # 21d90 <g_1630>
    e8d9:	48 89 85 f0 f9 ff ff 	mov    %rax,-0x610(%rbp)
    e8e0:	48 c7 85 f8 f9 ff ff 	movq   $0x0,-0x608(%rbp)
    e8e7:	00 00 00 00 
    e8eb:	48 8d 05 9e 34 01 00 	lea    0x1349e(%rip),%rax        # 21d90 <g_1630>
    e8f2:	48 89 85 00 fa ff ff 	mov    %rax,-0x600(%rbp)
    e8f9:	48 c7 85 08 fa ff ff 	movq   $0x0,-0x5f8(%rbp)
    e900:	00 00 00 00 
    e904:	48 8d 85 40 f6 ff ff 	lea    -0x9c0(%rbp),%rax
    e90b:	48 89 85 10 fa ff ff 	mov    %rax,-0x5f0(%rbp)
    e912:	48 c7 85 18 fa ff ff 	movq   $0x0,-0x5e8(%rbp)
    e919:	00 00 00 00 
    e91d:	48 8d 85 40 f6 ff ff 	lea    -0x9c0(%rbp),%rax
    e924:	48 89 85 20 fa ff ff 	mov    %rax,-0x5e0(%rbp)
    e92b:	48 8d 85 40 f6 ff ff 	lea    -0x9c0(%rbp),%rax
    e932:	48 83 c0 18          	add    $0x18,%rax
    e936:	48 89 85 28 fa ff ff 	mov    %rax,-0x5d8(%rbp)
    e93d:	48 8d 05 4c 34 01 00 	lea    0x1344c(%rip),%rax        # 21d90 <g_1630>
    e944:	48 89 85 30 fa ff ff 	mov    %rax,-0x5d0(%rbp)
    e94b:	48 c7 85 38 fa ff ff 	movq   $0x0,-0x5c8(%rbp)
    e952:	00 00 00 00 
    e956:	48 8d 85 40 f6 ff ff 	lea    -0x9c0(%rbp),%rax
    e95d:	48 83 c0 28          	add    $0x28,%rax
    e961:	48 89 85 40 fa ff ff 	mov    %rax,-0x5c0(%rbp)
    e968:	48 c7 85 48 fa ff ff 	movq   $0x0,-0x5b8(%rbp)
    e96f:	00 00 00 00 
    e973:	48 c7 85 50 fa ff ff 	movq   $0x0,-0x5b0(%rbp)
    e97a:	00 00 00 00 
    e97e:	48 c7 85 58 fa ff ff 	movq   $0x0,-0x5a8(%rbp)
    e985:	00 00 00 00 
    e989:	48 8d 85 40 f6 ff ff 	lea    -0x9c0(%rbp),%rax
    e990:	48 83 c0 18          	add    $0x18,%rax
    e994:	48 89 85 60 fa ff ff 	mov    %rax,-0x5a0(%rbp)
    e99b:	48 8d 05 ee 33 01 00 	lea    0x133ee(%rip),%rax        # 21d90 <g_1630>
    e9a2:	48 89 85 68 fa ff ff 	mov    %rax,-0x598(%rbp)
    e9a9:	48 c7 85 70 fa ff ff 	movq   $0x0,-0x590(%rbp)
    e9b0:	00 00 00 00 
    e9b4:	48 8d 05 d5 33 01 00 	lea    0x133d5(%rip),%rax        # 21d90 <g_1630>
    e9bb:	48 89 85 78 fa ff ff 	mov    %rax,-0x588(%rbp)
    e9c2:	48 c7 85 80 fa ff ff 	movq   $0x0,-0x580(%rbp)
    e9c9:	00 00 00 00 
    e9cd:	48 8d 85 40 f6 ff ff 	lea    -0x9c0(%rbp),%rax
    e9d4:	48 83 c0 18          	add    $0x18,%rax
    e9d8:	48 89 85 88 fa ff ff 	mov    %rax,-0x578(%rbp)
    e9df:	48 8d 05 aa 33 01 00 	lea    0x133aa(%rip),%rax        # 21d90 <g_1630>
    e9e6:	48 89 85 90 fa ff ff 	mov    %rax,-0x570(%rbp)
    e9ed:	48 c7 85 98 fa ff ff 	movq   $0x0,-0x568(%rbp)
    e9f4:	00 00 00 00 
    e9f8:	48 8d 05 91 33 01 00 	lea    0x13391(%rip),%rax        # 21d90 <g_1630>
    e9ff:	48 89 85 a0 fa ff ff 	mov    %rax,-0x560(%rbp)
    ea06:	48 c7 85 a8 fa ff ff 	movq   $0x0,-0x558(%rbp)
    ea0d:	00 00 00 00 
    ea11:	48 8d 85 40 f6 ff ff 	lea    -0x9c0(%rbp),%rax
    ea18:	48 89 85 b0 fa ff ff 	mov    %rax,-0x550(%rbp)
    ea1f:	48 c7 85 b8 fa ff ff 	movq   $0x0,-0x548(%rbp)
    ea26:	00 00 00 00 
    ea2a:	48 c7 85 c0 fa ff ff 	movq   $0x0,-0x540(%rbp)
    ea31:	00 00 00 00 
    ea35:	48 8d 85 40 f6 ff ff 	lea    -0x9c0(%rbp),%rax
    ea3c:	48 89 85 c8 fa ff ff 	mov    %rax,-0x538(%rbp)
    ea43:	48 8d 85 40 f6 ff ff 	lea    -0x9c0(%rbp),%rax
    ea4a:	48 83 c0 08          	add    $0x8,%rax
    ea4e:	48 89 85 d0 fa ff ff 	mov    %rax,-0x530(%rbp)
    ea55:	48 8d 85 40 f6 ff ff 	lea    -0x9c0(%rbp),%rax
    ea5c:	48 83 c0 38          	add    $0x38,%rax
    ea60:	48 89 85 d8 fa ff ff 	mov    %rax,-0x528(%rbp)
    ea67:	48 8d 85 40 f6 ff ff 	lea    -0x9c0(%rbp),%rax
    ea6e:	48 89 85 e0 fa ff ff 	mov    %rax,-0x520(%rbp)
    ea75:	48 8d 85 40 f6 ff ff 	lea    -0x9c0(%rbp),%rax
    ea7c:	48 89 85 e8 fa ff ff 	mov    %rax,-0x518(%rbp)
    ea83:	48 8d 85 40 f6 ff ff 	lea    -0x9c0(%rbp),%rax
    ea8a:	48 83 c0 10          	add    $0x10,%rax
    ea8e:	48 89 85 f0 fa ff ff 	mov    %rax,-0x510(%rbp)
    ea95:	48 8d 85 40 f6 ff ff 	lea    -0x9c0(%rbp),%rax
    ea9c:	48 83 c0 18          	add    $0x18,%rax
    eaa0:	48 89 85 f8 fa ff ff 	mov    %rax,-0x508(%rbp)
    eaa7:	48 8d 05 e2 32 01 00 	lea    0x132e2(%rip),%rax        # 21d90 <g_1630>
    eaae:	48 89 85 00 fb ff ff 	mov    %rax,-0x500(%rbp)
    eab5:	48 8d 05 d4 32 01 00 	lea    0x132d4(%rip),%rax        # 21d90 <g_1630>
    eabc:	48 89 85 08 fb ff ff 	mov    %rax,-0x4f8(%rbp)
    eac3:	48 8d 05 c6 32 01 00 	lea    0x132c6(%rip),%rax        # 21d90 <g_1630>
    eaca:	48 89 85 10 fb ff ff 	mov    %rax,-0x4f0(%rbp)
    ead1:	48 8d 85 40 f6 ff ff 	lea    -0x9c0(%rbp),%rax
    ead8:	48 89 85 18 fb ff ff 	mov    %rax,-0x4e8(%rbp)
    eadf:	48 c7 85 20 fb ff ff 	movq   $0x0,-0x4e0(%rbp)
    eae6:	00 00 00 00 
    eaea:	48 8d 85 40 f6 ff ff 	lea    -0x9c0(%rbp),%rax
    eaf1:	48 83 c0 38          	add    $0x38,%rax
    eaf5:	48 89 85 28 fb ff ff 	mov    %rax,-0x4d8(%rbp)
    eafc:	48 c7 85 30 fb ff ff 	movq   $0x0,-0x4d0(%rbp)
    eb03:	00 00 00 00 
    eb07:	48 8d 85 40 f6 ff ff 	lea    -0x9c0(%rbp),%rax
    eb0e:	48 83 c0 18          	add    $0x18,%rax
    eb12:	48 89 85 38 fb ff ff 	mov    %rax,-0x4c8(%rbp)
    eb19:	48 c7 85 40 fb ff ff 	movq   $0x0,-0x4c0(%rbp)
    eb20:	00 00 00 00 
    eb24:	48 8d 85 40 f6 ff ff 	lea    -0x9c0(%rbp),%rax
    eb2b:	48 89 85 48 fb ff ff 	mov    %rax,-0x4b8(%rbp)
    eb32:	48 c7 85 50 fb ff ff 	movq   $0x0,-0x4b0(%rbp)
    eb39:	00 00 00 00 
    eb3d:	48 8d 85 40 f6 ff ff 	lea    -0x9c0(%rbp),%rax
    eb44:	48 83 c0 18          	add    $0x18,%rax
    eb48:	48 89 85 58 fb ff ff 	mov    %rax,-0x4a8(%rbp)
    eb4f:	48 8d 85 40 f6 ff ff 	lea    -0x9c0(%rbp),%rax
    eb56:	48 89 85 60 fb ff ff 	mov    %rax,-0x4a0(%rbp)
    eb5d:	48 c7 85 68 fb ff ff 	movq   $0x0,-0x498(%rbp)
    eb64:	00 00 00 00 
    eb68:	48 8d 85 40 f6 ff ff 	lea    -0x9c0(%rbp),%rax
    eb6f:	48 89 85 70 fb ff ff 	mov    %rax,-0x490(%rbp)
    eb76:	48 8d 05 13 32 01 00 	lea    0x13213(%rip),%rax        # 21d90 <g_1630>
    eb7d:	48 89 85 78 fb ff ff 	mov    %rax,-0x488(%rbp)
    eb84:	48 8d 85 40 f6 ff ff 	lea    -0x9c0(%rbp),%rax
    eb8b:	48 83 c0 28          	add    $0x28,%rax
    eb8f:	48 89 85 80 fb ff ff 	mov    %rax,-0x480(%rbp)
    eb96:	48 8d 05 f3 31 01 00 	lea    0x131f3(%rip),%rax        # 21d90 <g_1630>
    eb9d:	48 89 85 88 fb ff ff 	mov    %rax,-0x478(%rbp)
    eba4:	48 c7 85 90 fb ff ff 	movq   $0x0,-0x470(%rbp)
    ebab:	00 00 00 00 
    ebaf:	48 8d 85 40 f6 ff ff 	lea    -0x9c0(%rbp),%rax
    ebb6:	48 89 85 98 fb ff ff 	mov    %rax,-0x468(%rbp)
    ebbd:	48 8d 85 40 f6 ff ff 	lea    -0x9c0(%rbp),%rax
    ebc4:	48 89 85 a0 fb ff ff 	mov    %rax,-0x460(%rbp)
    ebcb:	48 8d 85 40 f6 ff ff 	lea    -0x9c0(%rbp),%rax
    ebd2:	48 89 85 a8 fb ff ff 	mov    %rax,-0x458(%rbp)
    ebd9:	48 8d 85 40 f6 ff ff 	lea    -0x9c0(%rbp),%rax
    ebe0:	48 89 85 b0 fb ff ff 	mov    %rax,-0x450(%rbp)
    ebe7:	48 8d 85 40 f6 ff ff 	lea    -0x9c0(%rbp),%rax
    ebee:	48 83 c0 28          	add    $0x28,%rax
    ebf2:	48 89 85 b8 fb ff ff 	mov    %rax,-0x448(%rbp)
    ebf9:	48 8d 85 40 f6 ff ff 	lea    -0x9c0(%rbp),%rax
    ec00:	48 83 c0 10          	add    $0x10,%rax
    ec04:	48 89 85 c0 fb ff ff 	mov    %rax,-0x440(%rbp)
    ec0b:	48 c7 85 c8 fb ff ff 	movq   $0x0,-0x438(%rbp)
    ec12:	00 00 00 00 
    ec16:	48 8d 05 73 31 01 00 	lea    0x13173(%rip),%rax        # 21d90 <g_1630>
    ec1d:	48 89 85 d0 fb ff ff 	mov    %rax,-0x430(%rbp)
    ec24:	48 8d 05 65 31 01 00 	lea    0x13165(%rip),%rax        # 21d90 <g_1630>
    ec2b:	48 89 85 d8 fb ff ff 	mov    %rax,-0x428(%rbp)
    ec32:	48 8d 85 40 f6 ff ff 	lea    -0x9c0(%rbp),%rax
    ec39:	48 89 85 e0 fb ff ff 	mov    %rax,-0x420(%rbp)
    ec40:	48 8d 05 49 31 01 00 	lea    0x13149(%rip),%rax        # 21d90 <g_1630>
    ec47:	48 89 85 e8 fb ff ff 	mov    %rax,-0x418(%rbp)
    ec4e:	48 c7 85 f0 fb ff ff 	movq   $0x0,-0x410(%rbp)
    ec55:	00 00 00 00 
    ec59:	48 8d 05 30 31 01 00 	lea    0x13130(%rip),%rax        # 21d90 <g_1630>
    ec60:	48 89 85 f8 fb ff ff 	mov    %rax,-0x408(%rbp)
    ec67:	48 8d 85 40 f6 ff ff 	lea    -0x9c0(%rbp),%rax
    ec6e:	48 89 85 00 fc ff ff 	mov    %rax,-0x400(%rbp)
    ec75:	48 8d 05 14 31 01 00 	lea    0x13114(%rip),%rax        # 21d90 <g_1630>
    ec7c:	48 89 85 08 fc ff ff 	mov    %rax,-0x3f8(%rbp)
    ec83:	48 c7 85 10 fc ff ff 	movq   $0x0,-0x3f0(%rbp)
    ec8a:	00 00 00 00 
    ec8e:	48 c7 85 18 fc ff ff 	movq   $0x0,-0x3e8(%rbp)
    ec95:	00 00 00 00 
    ec99:	48 c7 85 20 fc ff ff 	movq   $0x0,-0x3e0(%rbp)
    eca0:	00 00 00 00 
    eca4:	48 8d 85 40 f6 ff ff 	lea    -0x9c0(%rbp),%rax
    ecab:	48 89 85 28 fc ff ff 	mov    %rax,-0x3d8(%rbp)
    ecb2:	48 8d 85 40 f6 ff ff 	lea    -0x9c0(%rbp),%rax
    ecb9:	48 89 85 30 fc ff ff 	mov    %rax,-0x3d0(%rbp)
    ecc0:	48 8d 85 40 f6 ff ff 	lea    -0x9c0(%rbp),%rax
    ecc7:	48 83 c0 28          	add    $0x28,%rax
    eccb:	48 89 85 38 fc ff ff 	mov    %rax,-0x3c8(%rbp)
    ecd2:	48 8d 05 b7 30 01 00 	lea    0x130b7(%rip),%rax        # 21d90 <g_1630>
    ecd9:	48 89 85 40 fc ff ff 	mov    %rax,-0x3c0(%rbp)
    ece0:	48 c7 85 48 fc ff ff 	movq   $0x0,-0x3b8(%rbp)
    ece7:	00 00 00 00 
    eceb:	48 8d 05 9e 30 01 00 	lea    0x1309e(%rip),%rax        # 21d90 <g_1630>
    ecf2:	48 89 85 50 fc ff ff 	mov    %rax,-0x3b0(%rbp)
    ecf9:	48 8d 05 90 30 01 00 	lea    0x13090(%rip),%rax        # 21d90 <g_1630>
    ed00:	48 89 85 58 fc ff ff 	mov    %rax,-0x3a8(%rbp)
    ed07:	48 8d 05 82 30 01 00 	lea    0x13082(%rip),%rax        # 21d90 <g_1630>
    ed0e:	48 89 85 60 fc ff ff 	mov    %rax,-0x3a0(%rbp)
    ed15:	48 8d 85 40 f6 ff ff 	lea    -0x9c0(%rbp),%rax
    ed1c:	48 83 c0 10          	add    $0x10,%rax
    ed20:	48 89 85 68 fc ff ff 	mov    %rax,-0x398(%rbp)
    ed27:	48 8d 85 40 f6 ff ff 	lea    -0x9c0(%rbp),%rax
    ed2e:	48 89 85 70 fc ff ff 	mov    %rax,-0x390(%rbp)
    ed35:	48 c7 85 78 fc ff ff 	movq   $0x0,-0x388(%rbp)
    ed3c:	00 00 00 00 
    ed40:	48 8d 85 40 f6 ff ff 	lea    -0x9c0(%rbp),%rax
    ed47:	48 89 85 80 fc ff ff 	mov    %rax,-0x380(%rbp)
    ed4e:	48 8d 05 3b 30 01 00 	lea    0x1303b(%rip),%rax        # 21d90 <g_1630>
    ed55:	48 89 85 88 fc ff ff 	mov    %rax,-0x378(%rbp)
    ed5c:	48 8d 85 40 f6 ff ff 	lea    -0x9c0(%rbp),%rax
    ed63:	48 83 c0 18          	add    $0x18,%rax
    ed67:	48 89 85 90 fc ff ff 	mov    %rax,-0x370(%rbp)
    ed6e:	48 c7 85 98 fc ff ff 	movq   $0x0,-0x368(%rbp)
    ed75:	00 00 00 00 
    ed79:	48 8d 05 10 30 01 00 	lea    0x13010(%rip),%rax        # 21d90 <g_1630>
    ed80:	48 89 85 a0 fc ff ff 	mov    %rax,-0x360(%rbp)
    ed87:	48 8d 05 02 30 01 00 	lea    0x13002(%rip),%rax        # 21d90 <g_1630>
    ed8e:	48 89 85 a8 fc ff ff 	mov    %rax,-0x358(%rbp)
    ed95:	48 c7 85 b0 fc ff ff 	movq   $0x0,-0x350(%rbp)
    ed9c:	00 00 00 00 
    eda0:	48 8d 85 40 f6 ff ff 	lea    -0x9c0(%rbp),%rax
    eda7:	48 89 85 b8 fc ff ff 	mov    %rax,-0x348(%rbp)
    edae:	48 c7 85 c0 fc ff ff 	movq   $0x0,-0x340(%rbp)
    edb5:	00 00 00 00 
    edb9:	48 8d 05 d0 2f 01 00 	lea    0x12fd0(%rip),%rax        # 21d90 <g_1630>
    edc0:	48 89 85 c8 fc ff ff 	mov    %rax,-0x338(%rbp)
    edc7:	48 8d 05 c2 2f 01 00 	lea    0x12fc2(%rip),%rax        # 21d90 <g_1630>
    edce:	48 89 85 d0 fc ff ff 	mov    %rax,-0x330(%rbp)
    edd5:	48 8d 05 b4 2f 01 00 	lea    0x12fb4(%rip),%rax        # 21d90 <g_1630>
    eddc:	48 89 85 d8 fc ff ff 	mov    %rax,-0x328(%rbp)
    ede3:	48 8d 85 40 f6 ff ff 	lea    -0x9c0(%rbp),%rax
    edea:	48 89 85 e0 fc ff ff 	mov    %rax,-0x320(%rbp)
    edf1:	48 8d 05 98 2f 01 00 	lea    0x12f98(%rip),%rax        # 21d90 <g_1630>
    edf8:	48 89 85 e8 fc ff ff 	mov    %rax,-0x318(%rbp)
    edff:	48 8d 85 40 f6 ff ff 	lea    -0x9c0(%rbp),%rax
    ee06:	48 83 c0 18          	add    $0x18,%rax
    ee0a:	48 89 85 f0 fc ff ff 	mov    %rax,-0x310(%rbp)
    ee11:	48 c7 85 f8 fc ff ff 	movq   $0x0,-0x308(%rbp)
    ee18:	00 00 00 00 
    ee1c:	48 8d 85 40 f6 ff ff 	lea    -0x9c0(%rbp),%rax
    ee23:	48 83 c0 10          	add    $0x10,%rax
    ee27:	48 89 85 00 fd ff ff 	mov    %rax,-0x300(%rbp)
    ee2e:	48 8d 85 40 f6 ff ff 	lea    -0x9c0(%rbp),%rax
    ee35:	48 83 c0 18          	add    $0x18,%rax
    ee39:	48 89 85 08 fd ff ff 	mov    %rax,-0x2f8(%rbp)
    ee40:	48 8d 05 49 2f 01 00 	lea    0x12f49(%rip),%rax        # 21d90 <g_1630>
    ee47:	48 89 85 10 fd ff ff 	mov    %rax,-0x2f0(%rbp)
    ee4e:	48 8d 05 3b 2f 01 00 	lea    0x12f3b(%rip),%rax        # 21d90 <g_1630>
    ee55:	48 89 85 18 fd ff ff 	mov    %rax,-0x2e8(%rbp)
    ee5c:	48 c7 85 20 fd ff ff 	movq   $0x0,-0x2e0(%rbp)
    ee63:	00 00 00 00 
    ee67:	48 8d 05 22 2f 01 00 	lea    0x12f22(%rip),%rax        # 21d90 <g_1630>
    ee6e:	48 89 85 28 fd ff ff 	mov    %rax,-0x2d8(%rbp)
    ee75:	48 8d 05 14 2f 01 00 	lea    0x12f14(%rip),%rax        # 21d90 <g_1630>
    ee7c:	48 89 85 30 fd ff ff 	mov    %rax,-0x2d0(%rbp)
    ee83:	48 8d 85 40 f6 ff ff 	lea    -0x9c0(%rbp),%rax
    ee8a:	48 89 85 38 fd ff ff 	mov    %rax,-0x2c8(%rbp)
    ee91:	48 c7 85 40 fd ff ff 	movq   $0x0,-0x2c0(%rbp)
    ee98:	00 00 00 00 
    ee9c:	48 c7 85 48 fd ff ff 	movq   $0x0,-0x2b8(%rbp)
    eea3:	00 00 00 00 
    eea7:	48 c7 85 50 fd ff ff 	movq   $0x0,-0x2b0(%rbp)
    eeae:	00 00 00 00 
    eeb2:	48 c7 85 58 fd ff ff 	movq   $0x0,-0x2a8(%rbp)
    eeb9:	00 00 00 00 
    eebd:	48 8d 85 40 f6 ff ff 	lea    -0x9c0(%rbp),%rax
    eec4:	48 83 c0 28          	add    $0x28,%rax
    eec8:	48 89 85 60 fd ff ff 	mov    %rax,-0x2a0(%rbp)
    eecf:	48 8d 05 ba 2e 01 00 	lea    0x12eba(%rip),%rax        # 21d90 <g_1630>
    eed6:	48 89 85 68 fd ff ff 	mov    %rax,-0x298(%rbp)
    eedd:	48 8d 05 ac 2e 01 00 	lea    0x12eac(%rip),%rax        # 21d90 <g_1630>
    eee4:	48 89 85 70 fd ff ff 	mov    %rax,-0x290(%rbp)
    eeeb:	48 8d 05 9e 2e 01 00 	lea    0x12e9e(%rip),%rax        # 21d90 <g_1630>
    eef2:	48 89 85 78 fd ff ff 	mov    %rax,-0x288(%rbp)
    eef9:	48 8d 85 40 f6 ff ff 	lea    -0x9c0(%rbp),%rax
    ef00:	48 89 85 80 fd ff ff 	mov    %rax,-0x280(%rbp)
    ef07:	48 8d 85 40 f6 ff ff 	lea    -0x9c0(%rbp),%rax
    ef0e:	48 83 c0 18          	add    $0x18,%rax
    ef12:	48 89 85 88 fd ff ff 	mov    %rax,-0x278(%rbp)
    ef19:	48 8d 05 70 2e 01 00 	lea    0x12e70(%rip),%rax        # 21d90 <g_1630>
    ef20:	48 89 85 90 fd ff ff 	mov    %rax,-0x270(%rbp)
    ef27:	48 8d 85 40 f6 ff ff 	lea    -0x9c0(%rbp),%rax
    ef2e:	48 83 c0 08          	add    $0x8,%rax
    ef32:	48 89 85 98 fd ff ff 	mov    %rax,-0x268(%rbp)
    ef39:	48 8d 05 50 2e 01 00 	lea    0x12e50(%rip),%rax        # 21d90 <g_1630>
    ef40:	48 89 85 a0 fd ff ff 	mov    %rax,-0x260(%rbp)
    ef47:	48 8d 05 42 2e 01 00 	lea    0x12e42(%rip),%rax        # 21d90 <g_1630>
    ef4e:	48 89 85 a8 fd ff ff 	mov    %rax,-0x258(%rbp)
    ef55:	48 c7 85 b0 fd ff ff 	movq   $0x0,-0x250(%rbp)
    ef5c:	00 00 00 00 
    ef60:	48 8d 05 29 2e 01 00 	lea    0x12e29(%rip),%rax        # 21d90 <g_1630>
    ef67:	48 89 85 b8 fd ff ff 	mov    %rax,-0x248(%rbp)
    ef6e:	48 c7 85 c0 fd ff ff 	movq   $0x0,-0x240(%rbp)
    ef75:	00 00 00 00 
    ef79:	48 8d 85 40 f6 ff ff 	lea    -0x9c0(%rbp),%rax
    ef80:	48 83 c0 18          	add    $0x18,%rax
    ef84:	48 89 85 c8 fd ff ff 	mov    %rax,-0x238(%rbp)
    ef8b:	48 8d 85 40 f6 ff ff 	lea    -0x9c0(%rbp),%rax
    ef92:	48 83 c0 08          	add    $0x8,%rax
    ef96:	48 89 85 d0 fd ff ff 	mov    %rax,-0x230(%rbp)
    ef9d:	48 8d 05 ec 2d 01 00 	lea    0x12dec(%rip),%rax        # 21d90 <g_1630>
    efa4:	48 89 85 d8 fd ff ff 	mov    %rax,-0x228(%rbp)
    efab:	48 8d 85 40 f6 ff ff 	lea    -0x9c0(%rbp),%rax
    efb2:	48 89 85 e0 fd ff ff 	mov    %rax,-0x220(%rbp)
    efb9:	48 8d 85 40 f6 ff ff 	lea    -0x9c0(%rbp),%rax
    efc0:	48 89 85 e8 fd ff ff 	mov    %rax,-0x218(%rbp)
    efc7:	48 8d 85 40 f6 ff ff 	lea    -0x9c0(%rbp),%rax
    efce:	48 89 85 f0 fd ff ff 	mov    %rax,-0x210(%rbp)
    efd5:	48 8d 85 40 f6 ff ff 	lea    -0x9c0(%rbp),%rax
    efdc:	48 89 85 f8 fd ff ff 	mov    %rax,-0x208(%rbp)
    efe3:	48 8d 85 40 f6 ff ff 	lea    -0x9c0(%rbp),%rax
    efea:	48 89 85 00 fe ff ff 	mov    %rax,-0x200(%rbp)
    eff1:	48 c7 85 08 fe ff ff 	movq   $0x0,-0x1f8(%rbp)
    eff8:	00 00 00 00 
    effc:	48 8d 85 40 f6 ff ff 	lea    -0x9c0(%rbp),%rax
    f003:	48 83 c0 18          	add    $0x18,%rax
    f007:	48 89 85 10 fe ff ff 	mov    %rax,-0x1f0(%rbp)
    f00e:	48 8d 85 40 f6 ff ff 	lea    -0x9c0(%rbp),%rax
    f015:	48 83 c0 38          	add    $0x38,%rax
    f019:	48 89 85 18 fe ff ff 	mov    %rax,-0x1e8(%rbp)
    f020:	48 8d 05 69 2d 01 00 	lea    0x12d69(%rip),%rax        # 21d90 <g_1630>
    f027:	48 89 85 20 fe ff ff 	mov    %rax,-0x1e0(%rbp)
    f02e:	48 8d 05 5b 2d 01 00 	lea    0x12d5b(%rip),%rax        # 21d90 <g_1630>
    f035:	48 89 85 28 fe ff ff 	mov    %rax,-0x1d8(%rbp)
    f03c:	48 8d 85 40 f6 ff ff 	lea    -0x9c0(%rbp),%rax
    f043:	48 83 c0 18          	add    $0x18,%rax
    f047:	48 89 85 30 fe ff ff 	mov    %rax,-0x1d0(%rbp)
    f04e:	48 8d 05 3b 2d 01 00 	lea    0x12d3b(%rip),%rax        # 21d90 <g_1630>
    f055:	48 89 85 38 fe ff ff 	mov    %rax,-0x1c8(%rbp)
    f05c:	48 c7 85 40 fe ff ff 	movq   $0x0,-0x1c0(%rbp)
    f063:	00 00 00 00 
    f067:	48 8d 85 40 f6 ff ff 	lea    -0x9c0(%rbp),%rax
    f06e:	48 83 c0 38          	add    $0x38,%rax
    f072:	48 89 85 48 fe ff ff 	mov    %rax,-0x1b8(%rbp)
    f079:	48 8d 85 40 f6 ff ff 	lea    -0x9c0(%rbp),%rax
    f080:	48 89 85 50 fe ff ff 	mov    %rax,-0x1b0(%rbp)
    f087:	48 8d 85 40 f6 ff ff 	lea    -0x9c0(%rbp),%rax
    f08e:	48 83 c0 10          	add    $0x10,%rax
    f092:	48 89 85 58 fe ff ff 	mov    %rax,-0x1a8(%rbp)
    f099:	48 8d 85 40 f6 ff ff 	lea    -0x9c0(%rbp),%rax
    f0a0:	48 83 c0 08          	add    $0x8,%rax
    f0a4:	48 89 85 60 fe ff ff 	mov    %rax,-0x1a0(%rbp)
    f0ab:	48 8d 85 40 f6 ff ff 	lea    -0x9c0(%rbp),%rax
    f0b2:	48 83 c0 08          	add    $0x8,%rax
    f0b6:	48 89 85 68 fe ff ff 	mov    %rax,-0x198(%rbp)
    f0bd:	48 8d 85 40 f6 ff ff 	lea    -0x9c0(%rbp),%rax
    f0c4:	48 83 c0 10          	add    $0x10,%rax
    f0c8:	48 89 85 70 fe ff ff 	mov    %rax,-0x190(%rbp)
    f0cf:	48 8d 85 40 f6 ff ff 	lea    -0x9c0(%rbp),%rax
    f0d6:	48 89 85 78 fe ff ff 	mov    %rax,-0x188(%rbp)
    f0dd:	48 8d 85 40 f6 ff ff 	lea    -0x9c0(%rbp),%rax
    f0e4:	48 83 c0 38          	add    $0x38,%rax
    f0e8:	48 89 85 80 fe ff ff 	mov    %rax,-0x180(%rbp)
    f0ef:	48 c7 85 88 fe ff ff 	movq   $0x0,-0x178(%rbp)
    f0f6:	00 00 00 00 
    f0fa:	48 8d 05 8f 2c 01 00 	lea    0x12c8f(%rip),%rax        # 21d90 <g_1630>
    f101:	48 89 85 90 fe ff ff 	mov    %rax,-0x170(%rbp)
    f108:	48 8d 85 40 f6 ff ff 	lea    -0x9c0(%rbp),%rax
    f10f:	48 83 c0 38          	add    $0x38,%rax
    f113:	48 89 85 98 fe ff ff 	mov    %rax,-0x168(%rbp)
    f11a:	48 8d 85 40 f6 ff ff 	lea    -0x9c0(%rbp),%rax
    f121:	48 83 c0 10          	add    $0x10,%rax
    f125:	48 89 85 a0 fe ff ff 	mov    %rax,-0x160(%rbp)
    f12c:	48 8d 85 40 f6 ff ff 	lea    -0x9c0(%rbp),%rax
    f133:	48 83 c0 18          	add    $0x18,%rax
    f137:	48 89 85 a8 fe ff ff 	mov    %rax,-0x158(%rbp)
    f13e:	48 8d 85 40 f6 ff ff 	lea    -0x9c0(%rbp),%rax
    f145:	48 89 85 b0 fe ff ff 	mov    %rax,-0x150(%rbp)
    f14c:	48 c7 85 b8 fe ff ff 	movq   $0x0,-0x148(%rbp)
    f153:	00 00 00 00 
    f157:	48 c7 85 c0 fe ff ff 	movq   $0x0,-0x140(%rbp)
    f15e:	00 00 00 00 
    f162:	48 8d 05 27 2c 01 00 	lea    0x12c27(%rip),%rax        # 21d90 <g_1630>
    f169:	48 89 85 c8 fe ff ff 	mov    %rax,-0x138(%rbp)
    f170:	48 8d 85 40 f6 ff ff 	lea    -0x9c0(%rbp),%rax
    f177:	48 89 85 d0 fe ff ff 	mov    %rax,-0x130(%rbp)
    f17e:	48 8d 85 40 f6 ff ff 	lea    -0x9c0(%rbp),%rax
    f185:	48 89 85 d8 fe ff ff 	mov    %rax,-0x128(%rbp)
    f18c:	48 8d 05 f5 29 01 00 	lea    0x129f5(%rip),%rax        # 21b88 <g_851>
    f193:	48 89 85 e0 f2 ff ff 	mov    %rax,-0xd20(%rbp)
    f19a:	8b 85 38 f0 ff ff    	mov    -0xfc8(%rbp),%eax
    f1a0:	48 98                	cltq   
    f1a2:	48 09 85 c8 f0 ff ff 	or     %rax,-0xf38(%rbp)
    f1a9:	48 8b 05 a8 22 01 00 	mov    0x122a8(%rip),%rax        # 21458 <g_68>
    f1b0:	48 8b 00             	mov    (%rax),%rax
    f1b3:	48 c7 00 00 00 00 00 	movq   $0x0,(%rax)
    f1ba:	48 8b 00             	mov    (%rax),%rax
    f1bd:	48 89 85 58 f1 ff ff 	mov    %rax,-0xea8(%rbp)
    f1c4:	48 8b 15 7d 22 01 00 	mov    0x1227d(%rip),%rdx        # 21448 <g_60>
    f1cb:	48 8b 05 86 22 01 00 	mov    0x12286(%rip),%rax        # 21458 <g_68>
    f1d2:	48 8b 00             	mov    (%rax),%rax
    f1d5:	48 8b 12             	mov    (%rdx),%rdx
    f1d8:	48 89 10             	mov    %rdx,(%rax)
    f1db:	0f b6 05 ff 00 01 00 	movzbl 0x100ff(%rip),%eax        # 1f2e1 <g_793+0x1>
    f1e2:	83 c0 01             	add    $0x1,%eax
    f1e5:	88 05 f6 00 01 00    	mov    %al,0x100f6(%rip)        # 1f2e1 <g_793+0x1>
    f1eb:	0f b6 05 ef 00 01 00 	movzbl 0x100ef(%rip),%eax        # 1f2e1 <g_793+0x1>
    f1f2:	3c 02                	cmp    $0x2,%al
    f1f4:	0f 87 9e f5 ff ff    	ja     e798 <func_20+0xd5d>
    f1fa:	48 8b 05 2f fe 00 00 	mov    0xfe2f(%rip),%rax        # 1f030 <g_39>
    f201:	48 83 c0 01          	add    $0x1,%rax
    f205:	48 89 05 24 fe 00 00 	mov    %rax,0xfe24(%rip)        # 1f030 <g_39>
    f20c:	48 8b 05 1d fe 00 00 	mov    0xfe1d(%rip),%rax        # 1f030 <g_39>
    f213:	48 83 f8 01          	cmp    $0x1,%rax
    f217:	0f 8e 64 f5 ff ff    	jle    e781 <func_20+0xd46>
    f21d:	48 83 bd 28 f0 ff ff 	cmpq   $0x0,-0xfd8(%rbp)
    f224:	00 
    f225:	0f 95 c0             	setne  %al
    f228:	0f b6 d0             	movzbl %al,%edx
    f22b:	8b 85 54 f0 ff ff    	mov    -0xfac(%rbp),%eax
    f231:	09 d0                	or     %edx,%eax
    f233:	89 85 54 f0 ff ff    	mov    %eax,-0xfac(%rbp)
    f239:	c6 05 31 fe 00 00 03 	movb   $0x3,0xfe31(%rip)        # 1f071 <g_121+0x1>
    f240:	e9 71 01 00 00       	jmpq   f3b6 <func_20+0x197b>
    f245:	48 c7 85 40 f9 ff ff 	movq   $0x0,-0x6c0(%rbp)
    f24c:	00 00 00 00 
    f250:	48 8d 05 49 01 01 00 	lea    0x10149(%rip),%rax        # 1f3a0 <g_1253>
    f257:	48 89 85 48 f9 ff ff 	mov    %rax,-0x6b8(%rbp)
    f25e:	48 c7 85 50 f9 ff ff 	movq   $0x0,-0x6b0(%rbp)
    f265:	00 00 00 00 
    f269:	48 8d 05 30 01 01 00 	lea    0x10130(%rip),%rax        # 1f3a0 <g_1253>
    f270:	48 89 85 58 f9 ff ff 	mov    %rax,-0x6a8(%rbp)
    f277:	48 c7 85 60 f9 ff ff 	movq   $0x0,-0x6a0(%rbp)
    f27e:	00 00 00 00 
    f282:	48 8d 05 17 01 01 00 	lea    0x10117(%rip),%rax        # 1f3a0 <g_1253>
    f289:	48 89 85 68 f9 ff ff 	mov    %rax,-0x698(%rbp)
    f290:	48 c7 85 70 f9 ff ff 	movq   $0x0,-0x690(%rbp)
    f297:	00 00 00 00 
    f29b:	48 8d 05 fe 00 01 00 	lea    0x100fe(%rip),%rax        # 1f3a0 <g_1253>
    f2a2:	48 89 85 78 f9 ff ff 	mov    %rax,-0x688(%rbp)
    f2a9:	80 bd 34 f0 ff ff 00 	cmpb   $0x0,-0xfcc(%rbp)
    f2b0:	74 27                	je     f2d9 <func_20+0x189e>
    f2b2:	48 8b 15 77 2a 01 00 	mov    0x12a77(%rip),%rdx        # 21d30 <g_1426>
    f2b9:	48 8b 05 70 2a 01 00 	mov    0x12a70(%rip),%rax        # 21d30 <g_1426>
    f2c0:	48 8b 12             	mov    (%rdx),%rdx
    f2c3:	48 89 10             	mov    %rdx,(%rax)
    f2c6:	48 8b 00             	mov    (%rax),%rax
    f2c9:	48 39 85 60 f1 ff ff 	cmp    %rax,-0xea0(%rbp)
    f2d0:	75 07                	jne    f2d9 <func_20+0x189e>
    f2d2:	b9 01 00 00 00       	mov    $0x1,%ecx
    f2d7:	eb 05                	jmp    f2de <func_20+0x18a3>
    f2d9:	b9 00 00 00 00       	mov    $0x0,%ecx
    f2de:	48 8b 95 38 f0 ff ff 	mov    -0xfc8(%rbp),%rdx
    f2e5:	48 8b 05 a4 2a 01 00 	mov    0x12aa4(%rip),%rax        # 21d90 <g_1630>
    f2ec:	89 10                	mov    %edx,(%rax)
    f2ee:	8b 00                	mov    (%rax),%eax
    f2f0:	09 c1                	or     %eax,%ecx
    f2f2:	89 ca                	mov    %ecx,%edx
    f2f4:	8b 85 38 f0 ff ff    	mov    -0xfc8(%rbp),%eax
    f2fa:	48 98                	cltq   
    f2fc:	48 89 05 d5 00 01 00 	mov    %rax,0x100d5(%rip)        # 1f3d8 <g_1534>
    f303:	48 8b 05 ce 00 01 00 	mov    0x100ce(%rip),%rax        # 1f3d8 <g_1534>
    f30a:	89 d3                	mov    %edx,%ebx
    f30c:	21 c3                	and    %eax,%ebx
    f30e:	48 8b 85 28 f0 ff ff 	mov    -0xfd8(%rbp),%rax
    f315:	0f be c0             	movsbl %al,%eax
    f318:	be 02 00 00 00       	mov    $0x2,%esi
    f31d:	89 c7                	mov    %eax,%edi
    f31f:	e8 7d 8f ff ff       	callq  82a1 <safe_lshift_func_int8_t_s_s>
    f324:	0f be c0             	movsbl %al,%eax
    f327:	89 de                	mov    %ebx,%esi
    f329:	89 c7                	mov    %eax,%edi
    f32b:	e8 cf 93 ff ff       	callq  86ff <safe_div_func_int32_t_s_s>
    f330:	85 c0                	test   %eax,%eax
    f332:	74 08                	je     f33c <func_20+0x1901>
    f334:	8b 85 38 f0 ff ff    	mov    -0xfc8(%rbp),%eax
    f33a:	85 c0                	test   %eax,%eax
    f33c:	b9 91 6b 00 00       	mov    $0x6b91,%ecx
    f341:	48 8b 05 48 29 01 00 	mov    0x12948(%rip),%rax        # 21c90 <g_980>
    f348:	0f b7 00             	movzwl (%rax),%eax
    f34b:	89 c2                	mov    %eax,%edx
    f34d:	89 c8                	mov    %ecx,%eax
    f34f:	09 c2                	or     %eax,%edx
    f351:	48 8b 05 38 29 01 00 	mov    0x12938(%rip),%rax        # 21c90 <g_980>
    f358:	66 89 10             	mov    %dx,(%rax)
    f35b:	0f b7 00             	movzwl (%rax),%eax
    f35e:	0f b7 d0             	movzwl %ax,%edx
    f361:	8b 85 38 f0 ff ff    	mov    -0xfc8(%rbp),%eax
    f367:	39 c2                	cmp    %eax,%edx
    f369:	0f 9f c2             	setg   %dl
    f36c:	48 8b 05 c5 25 01 00 	mov    0x125c5(%rip),%rax        # 21938 <g_623>
    f373:	0f b6 d2             	movzbl %dl,%edx
    f376:	89 10                	mov    %edx,(%rax)
    f378:	80 bd 34 f0 ff ff 00 	cmpb   $0x0,-0xfcc(%rbp)
    f37f:	75 24                	jne    f3a5 <func_20+0x196a>
    f381:	48 8b 05 08 2a 01 00 	mov    0x12a08(%rip),%rax        # 21d90 <g_1630>
    f388:	8b 10                	mov    (%rax),%edx
    f38a:	48 8b 05 ff 29 01 00 	mov    0x129ff(%rip),%rax        # 21d90 <g_1630>
    f391:	83 e2 fa             	and    $0xfffffffa,%edx
    f394:	89 10                	mov    %edx,(%rax)
    f396:	48 8b 05 f3 29 01 00 	mov    0x129f3(%rip),%rax        # 21d90 <g_1630>
    f39d:	c7 00 00 00 00 00    	movl   $0x0,(%rax)
    f3a3:	eb 01                	jmp    f3a6 <func_20+0x196b>
    f3a5:	90                   	nop
    f3a6:	0f b6 05 c4 fc 00 00 	movzbl 0xfcc4(%rip),%eax        # 1f071 <g_121+0x1>
    f3ad:	83 c0 01             	add    $0x1,%eax
    f3b0:	88 05 bb fc 00 00    	mov    %al,0xfcbb(%rip)        # 1f071 <g_121+0x1>
    f3b6:	0f b6 05 b4 fc 00 00 	movzbl 0xfcb4(%rip),%eax        # 1f071 <g_121+0x1>
    f3bd:	3c 32                	cmp    $0x32,%al
    f3bf:	0f 86 80 fe ff ff    	jbe    f245 <func_20+0x180a>
    f3c5:	48 c7 05 08 00 01 00 	movq   $0x2,0x10008(%rip)        # 1f3d8 <g_1534>
    f3cc:	02 00 00 00 
    f3d0:	eb 25                	jmp    f3f7 <func_20+0x19bc>
    f3d2:	8b 85 38 f0 ff ff    	mov    -0xfc8(%rbp),%eax
    f3d8:	85 c0                	test   %eax,%eax
    f3da:	75 30                	jne    f40c <func_20+0x19d1>
    f3dc:	48 8b 05 f5 ff 00 00 	mov    0xfff5(%rip),%rax        # 1f3d8 <g_1534>
    f3e3:	be 02 00 00 00       	mov    $0x2,%esi
    f3e8:	48 89 c7             	mov    %rax,%rdi
    f3eb:	e8 b8 94 ff ff       	callq  88a8 <safe_sub_func_int64_t_s_s>
    f3f0:	48 89 05 e1 ff 00 00 	mov    %rax,0xffe1(%rip)        # 1f3d8 <g_1534>
    f3f7:	48 8b 05 da ff 00 00 	mov    0xffda(%rip),%rax        # 1f3d8 <g_1534>
    f3fe:	48 83 f8 e9          	cmp    $0xffffffffffffffe9,%rax
    f402:	7d ce                	jge    f3d2 <func_20+0x1997>
    f404:	eb 0d                	jmp    f413 <func_20+0x19d8>
    f406:	90                   	nop
    f407:	e9 37 ed ff ff       	jmpq   e143 <func_20+0x708>
    f40c:	90                   	nop
    f40d:	e9 31 ed ff ff       	jmpq   e143 <func_20+0x708>
    f412:	90                   	nop
    f413:	48 8b 85 38 f0 ff ff 	mov    -0xfc8(%rbp),%rax
    f41a:	48 83 c0 01          	add    $0x1,%rax
    f41e:	48 89 85 38 f0 ff ff 	mov    %rax,-0xfc8(%rbp)
    f425:	48 8b 85 38 f0 ff ff 	mov    -0xfc8(%rbp),%rax
    f42c:	48 83 f8 05          	cmp    $0x5,%rax
    f430:	0f 86 87 ed ff ff    	jbe    e1bd <func_20+0x782>
    f436:	eb 01                	jmp    f439 <func_20+0x19fe>
    f438:	90                   	nop
    f439:	8b 05 51 fe 00 00    	mov    0xfe51(%rip),%eax        # 1f290 <g_551>
    f43f:	be 06 00 00 00       	mov    $0x6,%esi
    f444:	89 c7                	mov    %eax,%edi
    f446:	e8 6b 91 ff ff       	callq  85b6 <safe_add_func_int32_t_s_s>
    f44b:	89 05 3f fe 00 00    	mov    %eax,0xfe3f(%rip)        # 1f290 <g_551>
    f451:	8b 05 39 fe 00 00    	mov    0xfe39(%rip),%eax        # 1f290 <g_551>
    f457:	83 f8 05             	cmp    $0x5,%eax
    f45a:	0f 8e 02 ed ff ff    	jle    e162 <func_20+0x727>
    f460:	48 8b 85 90 f0 ff ff 	mov    -0xf70(%rbp),%rax
    f467:	48 89 85 d8 f0 ff ff 	mov    %rax,-0xf28(%rbp)
    f46e:	48 8d 05 e3 1f 01 00 	lea    0x11fe3(%rip),%rax        # 21458 <g_68>
    f475:	48 89 85 e0 f0 ff ff 	mov    %rax,-0xf20(%rbp)
    f47c:	48 8d 05 0d 28 01 00 	lea    0x1280d(%rip),%rax        # 21c90 <g_980>
    f483:	48 89 85 a8 f0 ff ff 	mov    %rax,-0xf58(%rbp)
    f48a:	48 8d 05 67 28 01 00 	lea    0x12867(%rip),%rax        # 21cf8 <g_984>
    f491:	48 89 85 e8 f0 ff ff 	mov    %rax,-0xf18(%rbp)
    f498:	66 c7 85 4a f0 ff ff 	movw   $0xfff7,-0xfb6(%rbp)
    f49f:	f7 ff 
    f4a1:	48 c7 85 f0 f0 ff ff 	movq   $0x0,-0xf10(%rbp)
    f4a8:	00 00 00 00 
    f4ac:	48 8d 85 40 f6 ff ff 	lea    -0x9c0(%rbp),%rax
    f4b3:	48 8d 15 66 bb 00 00 	lea    0xbb66(%rip),%rdx        # 1b020 <g_1219+0xf10>
    f4ba:	b9 5e 00 00 00       	mov    $0x5e,%ecx
    f4bf:	48 89 c7             	mov    %rax,%rdi
    f4c2:	48 89 d6             	mov    %rdx,%rsi
    f4c5:	f3 48 a5             	rep movsq %ds:(%rsi),%es:(%rdi)
    f4c8:	48 89 f2             	mov    %rsi,%rdx
    f4cb:	48 89 f8             	mov    %rdi,%rax
    f4ce:	8b 0a                	mov    (%rdx),%ecx
    f4d0:	89 08                	mov    %ecx,(%rax)
    f4d2:	48 8d 40 04          	lea    0x4(%rax),%rax
    f4d6:	48 8d 52 04          	lea    0x4(%rdx),%rdx
    f4da:	c7 85 6c f0 ff ff 6c 	movl   $0xe38bc86c,-0xf94(%rbp)
    f4e1:	c8 8b e3 
    f4e4:	48 8d 05 e1 fc 00 00 	lea    0xfce1(%rip),%rax        # 1f1cc <g_422>
    f4eb:	48 89 85 b0 f0 ff ff 	mov    %rax,-0xf50(%rbp)
    f4f2:	48 8d 85 b0 f0 ff ff 	lea    -0xf50(%rbp),%rax
    f4f9:	48 89 85 f8 f0 ff ff 	mov    %rax,-0xf08(%rbp)
    f500:	c7 85 60 f0 ff ff 00 	movl   $0x0,-0xfa0(%rbp)
    f507:	00 00 00 
    f50a:	eb 1e                	jmp    f52a <func_20+0x1aef>
    f50c:	8b 85 60 f0 ff ff    	mov    -0xfa0(%rbp),%eax
    f512:	48 98                	cltq   
    f514:	48 8d 95 a8 f0 ff ff 	lea    -0xf58(%rbp),%rdx
    f51b:	48 89 94 c5 b0 f1 ff 	mov    %rdx,-0xe50(%rbp,%rax,8)
    f522:	ff 
    f523:	83 85 60 f0 ff ff 01 	addl   $0x1,-0xfa0(%rbp)
    f52a:	83 bd 60 f0 ff ff 03 	cmpl   $0x3,-0xfa0(%rbp)
    f531:	7e d9                	jle    f50c <func_20+0x1ad1>
    f533:	c7 85 60 f0 ff ff 00 	movl   $0x0,-0xfa0(%rbp)
    f53a:	00 00 00 
    f53d:	eb 1b                	jmp    f55a <func_20+0x1b1f>
    f53f:	8b 85 60 f0 ff ff    	mov    -0xfa0(%rbp),%eax
    f545:	48 98                	cltq   
    f547:	48 c7 84 c5 d0 f1 ff 	movq   $0x0,-0xe30(%rbp,%rax,8)
    f54e:	ff 00 00 00 00 
    f553:	83 85 60 f0 ff ff 01 	addl   $0x1,-0xfa0(%rbp)
    f55a:	83 bd 60 f0 ff ff 04 	cmpl   $0x4,-0xfa0(%rbp)
    f561:	7e dc                	jle    f53f <func_20+0x1b04>
    f563:	66 c7 05 48 fc 00 00 	movw   $0x0,0xfc48(%rip)        # 1f1b4 <g_291>
    f56a:	00 00 
    f56c:	e9 79 06 00 00       	jmpq   fbea <func_20+0x21af>
    f571:	48 8d 05 e0 1e 01 00 	lea    0x11ee0(%rip),%rax        # 21458 <g_68>
    f578:	48 89 85 b8 f0 ff ff 	mov    %rax,-0xf48(%rbp)
    f57f:	48 8d 85 b8 f0 ff ff 	lea    -0xf48(%rbp),%rax
    f586:	48 89 85 08 f1 ff ff 	mov    %rax,-0xef8(%rbp)
    f58d:	c6 85 44 f0 ff ff 08 	movb   $0x8,-0xfbc(%rbp)
    f594:	48 8d 05 15 fe 00 00 	lea    0xfe15(%rip),%rax        # 1f3b0 <g_1253+0x10>
    f59b:	48 89 85 10 f1 ff ff 	mov    %rax,-0xef0(%rbp)
    f5a2:	48 8d 05 2f fe 00 00 	lea    0xfe2f(%rip),%rax        # 1f3d8 <g_1534>
    f5a9:	48 89 85 18 f1 ff ff 	mov    %rax,-0xee8(%rbp)
    f5b0:	48 b8 59 32 82 f7 95 	movabs $0x38e8c395f7823259,%rax
    f5b7:	c3 e8 38 
    f5ba:	48 89 85 20 f1 ff ff 	mov    %rax,-0xee0(%rbp)
    f5c1:	48 8d 85 40 f9 ff ff 	lea    -0x6c0(%rbp),%rax
    f5c8:	48 8d 15 31 02 01 00 	lea    0x10231(%rip),%rdx        # 1f800 <g_2403+0x18>
    f5cf:	b9 d2 00 00 00       	mov    $0xd2,%ecx
    f5d4:	48 89 c7             	mov    %rax,%rdi
    f5d7:	48 89 d6             	mov    %rdx,%rsi
    f5da:	f3 48 a5             	rep movsq %ds:(%rsi),%es:(%rdi)
    f5dd:	48 b8 f8 f8 f8 f8 f8 	movabs $0xf8f8f8f8f8f8f8f8,%rax
    f5e4:	f8 f8 f8 
    f5e7:	48 89 45 d0          	mov    %rax,-0x30(%rbp)
    f5eb:	c7 85 38 f0 ff ff 03 	movl   $0x3,-0xfc8(%rbp)
    f5f2:	00 00 00 
    f5f5:	8b 85 38 f0 ff ff    	mov    -0xfc8(%rbp),%eax
    f5fb:	89 c2                	mov    %eax,%edx
    f5fd:	48 8b 85 28 f0 ff ff 	mov    -0xfd8(%rbp),%rax
    f604:	09 d0                	or     %edx,%eax
    f606:	89 85 38 f0 ff ff    	mov    %eax,-0xfc8(%rbp)
    f60c:	48 8b 85 08 f1 ff ff 	mov    -0xef8(%rbp),%rax
    f613:	48 8d 15 3e 1e 01 00 	lea    0x11e3e(%rip),%rdx        # 21458 <g_68>
    f61a:	48 89 10             	mov    %rdx,(%rax)
    f61d:	48 8b 05 5c 26 01 00 	mov    0x1265c(%rip),%rax        # 21c80 <g_944>
    f624:	48 8b 00             	mov    (%rax),%rax
    f627:	48 8b 00             	mov    (%rax),%rax
    f62a:	0f b6 95 44 f0 ff ff 	movzbl -0xfbc(%rbp),%edx
    f631:	48 8b 85 10 f1 ff ff 	mov    -0xef0(%rbp),%rax
    f638:	48 89 10             	mov    %rdx,(%rax)
    f63b:	48 8b 05 a6 26 01 00 	mov    0x126a6(%rip),%rax        # 21ce8 <g_986>
    f642:	0f b7 00             	movzwl (%rax),%eax
    f645:	0f bf d8             	movswl %ax,%ebx
    f648:	48 8b 05 41 26 01 00 	mov    0x12641(%rip),%rax        # 21c90 <g_980>
    f64f:	0f b7 10             	movzwl (%rax),%edx
    f652:	83 c2 01             	add    $0x1,%edx
    f655:	66 89 10             	mov    %dx,(%rax)
    f658:	0f b7 00             	movzwl (%rax),%eax
    f65b:	0f b7 c0             	movzwl %ax,%eax
    f65e:	89 c6                	mov    %eax,%esi
    f660:	bf 7c 05 00 00       	mov    $0x57c,%edi
    f665:	e8 d3 96 ff ff       	callq  8d3d <safe_mul_func_uint16_t_u_u>
    f66a:	0f b7 c0             	movzwl %ax,%eax
    f66d:	21 d8                	and    %ebx,%eax
    f66f:	48 63 d0             	movslq %eax,%rdx
    f672:	48 8b 85 18 f1 ff ff 	mov    -0xee8(%rbp),%rax
    f679:	48 89 10             	mov    %rdx,(%rax)
    f67c:	48 8b 85 18 f1 ff ff 	mov    -0xee8(%rbp),%rax
    f683:	48 8b 00             	mov    (%rax),%rax
    f686:	48 89 c6             	mov    %rax,%rsi
    f689:	48 bf 0a 3f ec 1e e4 	movabs $0x17f5c4e41eec3f0a,%rdi
    f690:	c4 f5 17 
    f693:	e8 10 92 ff ff       	callq  88a8 <safe_sub_func_int64_t_s_s>
    f698:	8b 85 38 f0 ff ff    	mov    -0xfc8(%rbp),%eax
    f69e:	48 98                	cltq   
    f6a0:	48 23 85 20 f1 ff ff 	and    -0xee0(%rbp),%rax
    f6a7:	48 89 c2             	mov    %rax,%rdx
    f6aa:	48 8b 05 df 26 01 00 	mov    0x126df(%rip),%rax        # 21d90 <g_1630>
    f6b1:	8b 00                	mov    (%rax),%eax
    f6b3:	89 c1                	mov    %eax,%ecx
    f6b5:	89 d0                	mov    %edx,%eax
    f6b7:	31 c1                	xor    %eax,%ecx
    f6b9:	89 ca                	mov    %ecx,%edx
    f6bb:	48 8b 05 ce 26 01 00 	mov    0x126ce(%rip),%rax        # 21d90 <g_1630>
    f6c2:	89 10                	mov    %edx,(%rax)
    f6c4:	c6 05 d6 fb 00 00 00 	movb   $0x0,0xfbd6(%rip)        # 1f2a1 <g_616+0x1>
    f6cb:	e9 fa 04 00 00       	jmpq   fbca <func_20+0x218f>
    f6d0:	66 c7 85 4c f0 ff ff 	movw   $0xffff,-0xfb4(%rbp)
    f6d7:	ff ff 
    f6d9:	48 8d 05 b0 26 01 00 	lea    0x126b0(%rip),%rax        # 21d90 <g_1630>
    f6e0:	48 89 85 28 f1 ff ff 	mov    %rax,-0xed8(%rbp)
    f6e7:	c7 85 64 f0 ff ff 00 	movl   $0x0,-0xf9c(%rbp)
    f6ee:	00 00 00 
    f6f1:	eb 1a                	jmp    f70d <func_20+0x1cd2>
    f6f3:	8b 85 64 f0 ff ff    	mov    -0xf9c(%rbp),%eax
    f6f9:	48 98                	cltq   
    f6fb:	c7 84 85 84 f1 ff ff 	movl   $0x6,-0xe7c(%rbp,%rax,4)
    f702:	06 00 00 00 
    f706:	83 85 64 f0 ff ff 01 	addl   $0x1,-0xf9c(%rbp)
    f70d:	83 bd 64 f0 ff ff 02 	cmpl   $0x2,-0xf9c(%rbp)
    f714:	7e dd                	jle    f6f3 <func_20+0x1cb8>
    f716:	66 c7 05 8d f9 00 00 	movw   $0x0,0xf98d(%rip)        # 1f0ac <g_158>
    f71d:	00 00 
    f71f:	e9 74 04 00 00       	jmpq   fb98 <func_20+0x215d>
    f724:	48 c7 85 30 f1 ff ff 	movq   $0x0,-0xed0(%rbp)
    f72b:	00 00 00 00 
    f72f:	48 8d 85 b0 f1 ff ff 	lea    -0xe50(%rbp),%rax
    f736:	48 83 c0 18          	add    $0x18,%rax
    f73a:	48 89 85 38 f1 ff ff 	mov    %rax,-0xec8(%rbp)
    f741:	c7 85 f0 f2 ff ff fd 	movl   $0xfffffffd,-0xd10(%rbp)
    f748:	ff ff ff 
    f74b:	c7 85 f4 f2 ff ff 05 	movl   $0x5,-0xd0c(%rbp)
    f752:	00 00 00 
    f755:	c7 85 f8 f2 ff ff fa 	movl   $0xfffffffa,-0xd08(%rbp)
    f75c:	ff ff ff 
    f75f:	c7 85 fc f2 ff ff 05 	movl   $0x5,-0xd04(%rbp)
    f766:	00 00 00 
    f769:	c7 85 00 f3 ff ff fd 	movl   $0xfffffffd,-0xd00(%rbp)
    f770:	ff ff ff 
    f773:	c7 85 04 f3 ff ff fd 	movl   $0xfffffffd,-0xcfc(%rbp)
    f77a:	ff ff ff 
    f77d:	c7 85 08 f3 ff ff c7 	movl   $0x63b3c9c7,-0xcf8(%rbp)
    f784:	c9 b3 63 
    f787:	c7 85 0c f3 ff ff 05 	movl   $0x5,-0xcf4(%rbp)
    f78e:	00 00 00 
    f791:	c7 85 10 f3 ff ff 05 	movl   $0x5,-0xcf0(%rbp)
    f798:	00 00 00 
    f79b:	c7 85 14 f3 ff ff c7 	movl   $0x63b3c9c7,-0xcec(%rbp)
    f7a2:	c9 b3 63 
    f7a5:	c7 85 18 f3 ff ff 05 	movl   $0x5,-0xce8(%rbp)
    f7ac:	00 00 00 
    f7af:	c7 85 1c f3 ff ff c7 	movl   $0x63b3c9c7,-0xce4(%rbp)
    f7b6:	c9 b3 63 
    f7b9:	c7 85 20 f3 ff ff c7 	movl   $0x63b3c9c7,-0xce0(%rbp)
    f7c0:	c9 b3 63 
    f7c3:	c7 85 24 f3 ff ff 05 	movl   $0x5,-0xcdc(%rbp)
    f7ca:	00 00 00 
    f7cd:	c7 85 28 f3 ff ff c7 	movl   $0x63b3c9c7,-0xcd8(%rbp)
    f7d4:	c9 b3 63 
    f7d7:	c7 85 2c f3 ff ff 05 	movl   $0x5,-0xcd4(%rbp)
    f7de:	00 00 00 
    f7e1:	c7 85 30 f3 ff ff 05 	movl   $0x5,-0xcd0(%rbp)
    f7e8:	00 00 00 
    f7eb:	c7 85 34 f3 ff ff c7 	movl   $0x63b3c9c7,-0xccc(%rbp)
    f7f2:	c9 b3 63 
    f7f5:	c7 85 38 f3 ff ff fd 	movl   $0xfffffffd,-0xcc8(%rbp)
    f7fc:	ff ff ff 
    f7ff:	c7 85 3c f3 ff ff fd 	movl   $0xfffffffd,-0xcc4(%rbp)
    f806:	ff ff ff 
    f809:	c7 85 40 f3 ff ff 05 	movl   $0x5,-0xcc0(%rbp)
    f810:	00 00 00 
    f813:	c7 85 44 f3 ff ff fa 	movl   $0xfffffffa,-0xcbc(%rbp)
    f81a:	ff ff ff 
    f81d:	c7 85 48 f3 ff ff 05 	movl   $0x5,-0xcb8(%rbp)
    f824:	00 00 00 
    f827:	c7 85 4c f3 ff ff fd 	movl   $0xfffffffd,-0xcb4(%rbp)
    f82e:	ff ff ff 
    f831:	c7 85 50 f3 ff ff 05 	movl   $0x5,-0xcb0(%rbp)
    f838:	00 00 00 
    f83b:	c7 85 54 f3 ff ff 05 	movl   $0x5,-0xcac(%rbp)
    f842:	00 00 00 
    f845:	c7 85 58 f3 ff ff fa 	movl   $0xfffffffa,-0xca8(%rbp)
    f84c:	ff ff ff 
    f84f:	c7 85 5c f3 ff ff fa 	movl   $0xfffffffa,-0xca4(%rbp)
    f856:	ff ff ff 
    f859:	c7 85 60 f3 ff ff 05 	movl   $0x5,-0xca0(%rbp)
    f860:	00 00 00 
    f863:	c7 85 64 f3 ff ff 05 	movl   $0x5,-0xc9c(%rbp)
    f86a:	00 00 00 
    f86d:	c7 85 68 f3 ff ff fd 	movl   $0xfffffffd,-0xc98(%rbp)
    f874:	ff ff ff 
    f877:	c7 85 6c f3 ff ff 05 	movl   $0x5,-0xc94(%rbp)
    f87e:	00 00 00 
    f881:	c7 85 70 f3 ff ff fa 	movl   $0xfffffffa,-0xc90(%rbp)
    f888:	ff ff ff 
    f88b:	c7 85 74 f3 ff ff c7 	movl   $0x63b3c9c7,-0xc8c(%rbp)
    f892:	c9 b3 63 
    f895:	c7 85 78 f3 ff ff 05 	movl   $0x5,-0xc88(%rbp)
    f89c:	00 00 00 
    f89f:	c7 85 7c f3 ff ff 05 	movl   $0x5,-0xc84(%rbp)
    f8a6:	00 00 00 
    f8a9:	c7 85 80 f3 ff ff fa 	movl   $0xfffffffa,-0xc80(%rbp)
    f8b0:	ff ff ff 
    f8b3:	c7 85 84 f3 ff ff c7 	movl   $0x63b3c9c7,-0xc7c(%rbp)
    f8ba:	c9 b3 63 
    f8bd:	c7 85 88 f3 ff ff c7 	movl   $0x63b3c9c7,-0xc78(%rbp)
    f8c4:	c9 b3 63 
    f8c7:	c7 85 8c f3 ff ff fa 	movl   $0xfffffffa,-0xc74(%rbp)
    f8ce:	ff ff ff 
    f8d1:	c7 85 90 f3 ff ff fd 	movl   $0xfffffffd,-0xc70(%rbp)
    f8d8:	ff ff ff 
    f8db:	c7 85 94 f3 ff ff fa 	movl   $0xfffffffa,-0xc6c(%rbp)
    f8e2:	ff ff ff 
    f8e5:	c7 85 98 f3 ff ff fa 	movl   $0xfffffffa,-0xc68(%rbp)
    f8ec:	ff ff ff 
    f8ef:	c7 85 9c f3 ff ff fd 	movl   $0xfffffffd,-0xc64(%rbp)
    f8f6:	ff ff ff 
    f8f9:	c7 85 a0 f3 ff ff fa 	movl   $0xfffffffa,-0xc60(%rbp)
    f900:	ff ff ff 
    f903:	c7 85 a4 f3 ff ff c7 	movl   $0x63b3c9c7,-0xc5c(%rbp)
    f90a:	c9 b3 63 
    f90d:	c7 85 a8 f3 ff ff c7 	movl   $0x63b3c9c7,-0xc58(%rbp)
    f914:	c9 b3 63 
    f917:	c7 85 ac f3 ff ff fa 	movl   $0xfffffffa,-0xc54(%rbp)
    f91e:	ff ff ff 
    f921:	48 8d 05 68 24 01 00 	lea    0x12468(%rip),%rax        # 21d90 <g_1630>
    f928:	48 89 85 40 f1 ff ff 	mov    %rax,-0xec0(%rbp)
    f92f:	8b 85 60 f3 ff ff    	mov    -0xca0(%rbp),%eax
    f935:	85 c0                	test   %eax,%eax
    f937:	74 55                	je     f98e <func_20+0x1f53>
    f939:	48 8b 85 28 f0 ff ff 	mov    -0xfd8(%rbp),%rax
    f940:	89 c3                	mov    %eax,%ebx
    f942:	8b 85 64 f3 ff ff    	mov    -0xc9c(%rbp),%eax
    f948:	89 c6                	mov    %eax,%esi
    f94a:	bf 7c 00 00 00       	mov    $0x7c,%edi
    f94f:	e8 b1 92 ff ff       	callq  8c05 <safe_lshift_func_uint8_t_u_s>
    f954:	0f b6 c0             	movzbl %al,%eax
    f957:	89 de                	mov    %ebx,%esi
    f959:	89 c7                	mov    %eax,%edi
    f95b:	e8 a5 8c ff ff       	callq  8605 <safe_sub_func_int32_t_s_s>
    f960:	48 8b 05 a9 23 01 00 	mov    0x123a9(%rip),%rax        # 21d10 <g_988>
    f967:	48 8b 00             	mov    (%rax),%rax
    f96a:	48 8b 00             	mov    (%rax),%rax
    f96d:	48 8b 10             	mov    (%rax),%rdx
    f970:	48 8b 85 98 fa ff ff 	mov    -0x568(%rbp),%rax
    f977:	48 39 c2             	cmp    %rax,%rdx
    f97a:	48 81 bd 28 f0 ff ff 	cmpq   $0xe1b0,-0xfd8(%rbp)
    f981:	b0 e1 00 00 
    f985:	74 07                	je     f98e <func_20+0x1f53>
    f987:	b8 01 00 00 00       	mov    $0x1,%eax
    f98c:	eb 05                	jmp    f993 <func_20+0x1f58>
    f98e:	b8 00 00 00 00       	mov    $0x0,%eax
    f993:	89 c1                	mov    %eax,%ecx
    f995:	48 8b 95 c8 f1 ff ff 	mov    -0xe38(%rbp),%rdx
    f99c:	48 8b 85 38 f1 ff ff 	mov    -0xec8(%rbp),%rax
    f9a3:	48 89 10             	mov    %rdx,(%rax)
    f9a6:	48 8b 85 38 f1 ff ff 	mov    -0xec8(%rbp),%rax
    f9ad:	48 8b 00             	mov    (%rax),%rax
    f9b0:	48 8d 15 09 23 01 00 	lea    0x12309(%rip),%rdx        # 21cc0 <g_979+0x20>
    f9b7:	48 39 d0             	cmp    %rdx,%rax
    f9ba:	0f 95 c0             	setne  %al
    f9bd:	0f b6 c0             	movzbl %al,%eax
    f9c0:	89 ce                	mov    %ecx,%esi
    f9c2:	89 c7                	mov    %eax,%edi
    f9c4:	e8 9a 8b ff ff       	callq  8563 <safe_rshift_func_int16_t_s_u>
    f9c9:	0f be d0             	movsbl %al,%edx
    f9cc:	0f b6 85 34 f0 ff ff 	movzbl -0xfcc(%rbp),%eax
    f9d3:	0f be c0             	movsbl %al,%eax
    f9d6:	89 d6                	mov    %edx,%esi
    f9d8:	89 c7                	mov    %eax,%edi
    f9da:	e8 f5 87 ff ff       	callq  81d4 <safe_add_func_int8_t_s_s>
    f9df:	84 c0                	test   %al,%al
    f9e1:	74 11                	je     f9f4 <func_20+0x1fb9>
    f9e3:	48 83 bd 28 f0 ff ff 	cmpq   $0x0,-0xfd8(%rbp)
    f9ea:	00 
    f9eb:	74 07                	je     f9f4 <func_20+0x1fb9>
    f9ed:	ba 01 00 00 00       	mov    $0x1,%edx
    f9f2:	eb 05                	jmp    f9f9 <func_20+0x1fbe>
    f9f4:	ba 00 00 00 00       	mov    $0x0,%edx
    f9f9:	0f b7 85 4c f0 ff ff 	movzwl -0xfb4(%rbp),%eax
    fa00:	39 c2                	cmp    %eax,%edx
    fa02:	0f 94 c0             	sete   %al
    fa05:	0f b6 c0             	movzbl %al,%eax
    fa08:	89 85 38 f0 ff ff    	mov    %eax,-0xfc8(%rbp)
    fa0e:	48 c7 05 77 f8 00 00 	movq   $0x17,0xf877(%rip)        # 1f290 <g_551>
    fa15:	17 00 00 00 
    fa19:	e9 58 01 00 00       	jmpq   fb76 <func_20+0x213b>
    fa1e:	c7 85 74 f0 ff ff 06 	movl   $0x6,-0xf8c(%rbp)
    fa25:	00 00 00 
    fa28:	48 8b 85 28 f0 ff ff 	mov    -0xfd8(%rbp),%rax
    fa2f:	0f b6 c0             	movzbl %al,%eax
    fa32:	89 c6                	mov    %eax,%esi
    fa34:	bf 2e 00 00 00       	mov    $0x2e,%edi
    fa39:	e8 3a 91 ff ff       	callq  8b78 <safe_sub_func_uint8_t_u_u>
    fa3e:	0f b6 d0             	movzbl %al,%edx
    fa41:	0f b6 85 34 f0 ff ff 	movzbl -0xfcc(%rbp),%eax
    fa48:	89 d6                	mov    %edx,%esi
    fa4a:	89 c7                	mov    %eax,%edi
    fa4c:	e8 6d 92 ff ff       	callq  8cbe <safe_rshift_func_uint8_t_u_u>
    fa51:	0f b6 c0             	movzbl %al,%eax
    fa54:	48 8b 15 2d f8 00 00 	mov    0xf82d(%rip),%rdx        # 1f288 <g_537>
    fa5b:	48 89 c6             	mov    %rax,%rsi
    fa5e:	48 89 d7             	mov    %rdx,%rdi
    fa61:	e8 4e 8f ff ff       	callq  89b4 <safe_mod_func_int64_t_s_s>
    fa66:	8b 9d 60 f3 ff ff    	mov    -0xca0(%rbp),%ebx
    fa6c:	48 8b 05 7d 22 01 00 	mov    0x1227d(%rip),%rax        # 21cf0 <g_985>
    fa73:	48 8b 00             	mov    (%rax),%rax
    fa76:	0f b7 00             	movzwl (%rax),%eax
    fa79:	0f bf d0             	movswl %ax,%edx
    fa7c:	8b 85 38 f0 ff ff    	mov    -0xfc8(%rbp),%eax
    fa82:	98                   	cwtl   
    fa83:	89 d6                	mov    %edx,%esi
    fa85:	89 c7                	mov    %eax,%edi
    fa87:	e8 06 8a ff ff       	callq  8492 <safe_lshift_func_int16_t_s_s>
    fa8c:	0f b6 d0             	movzbl %al,%edx
    fa8f:	48 8b 05 ea 21 01 00 	mov    0x121ea(%rip),%rax        # 21c80 <g_944>
    fa96:	48 8b 00             	mov    (%rax),%rax
    fa99:	48 8b 00             	mov    (%rax),%rax
    fa9c:	48 8b 05 65 22 01 00 	mov    0x12265(%rip),%rax        # 21d08 <g_982>
    faa3:	48 8b 00             	mov    (%rax),%rax
    faa6:	48 39 85 e8 f0 ff ff 	cmp    %rax,-0xf18(%rbp)
    faad:	0f 95 c0             	setne  %al
    fab0:	0f b6 c0             	movzbl %al,%eax
    fab3:	89 d6                	mov    %edx,%esi
    fab5:	89 c7                	mov    %eax,%edi
    fab7:	e8 d7 90 ff ff       	callq  8b93 <safe_mul_func_uint8_t_u_u>
    fabc:	ba 01 00 00 00       	mov    $0x1,%edx
    fac1:	0f b6 45 d2          	movzbl -0x2e(%rbp),%eax
    fac5:	31 d0                	xor    %edx,%eax
    fac7:	88 45 d2             	mov    %al,-0x2e(%rbp)
    faca:	bf 00 00 00 00       	mov    $0x0,%edi
    facf:	e8 71 90 ff ff       	callq  8b45 <safe_unary_minus_func_uint8_t_u>
    fad4:	0f b6 d0             	movzbl %al,%edx
    fad7:	0f b7 85 38 f0 ff ff 	movzwl -0xfc8(%rbp),%eax
    fade:	66 39 c2             	cmp    %ax,%dx
    fae1:	0f 94 c0             	sete   %al
    fae4:	0f b6 c0             	movzbl %al,%eax
    fae7:	39 c3                	cmp    %eax,%ebx
    fae9:	0f 9e c0             	setle  %al
    faec:	0f b6 c0             	movzbl %al,%eax
    faef:	89 85 88 f1 ff ff    	mov    %eax,-0xe78(%rbp)
    faf5:	0f b7 05 44 fa 00 00 	movzwl 0xfa44(%rip),%eax        # 1f540 <g_1707+0x20>
    fafc:	48 8b 85 40 f1 ff ff 	mov    -0xec0(%rbp),%rax
    fb03:	48 3b 85 28 f1 ff ff 	cmp    -0xed8(%rbp),%rax
    fb0a:	0f 95 c0             	setne  %al
    fb0d:	0f b6 c0             	movzbl %al,%eax
    fb10:	48 98                	cltq   
    fb12:	48 ba 8e a3 71 c3 11 	movabs $0x26ad7011c371a38e,%rdx
    fb19:	70 ad 26 
    fb1c:	48 21 d0             	and    %rdx,%rax
    fb1f:	48 89 c1             	mov    %rax,%rcx
    fb22:	8b 85 74 f0 ff ff    	mov    -0xf8c(%rbp),%eax
    fb28:	48 63 d0             	movslq %eax,%rdx
    fb2b:	0f b6 05 af f7 00 00 	movzbl 0xf7af(%rip),%eax        # 1f2e1 <g_793+0x1>
    fb32:	83 f0 c6             	xor    $0xffffffc6,%eax
    fb35:	0f b6 c0             	movzbl %al,%eax
    fb38:	48 39 c2             	cmp    %rax,%rdx
    fb3b:	0f 9f c0             	setg   %al
    fb3e:	0f b6 c0             	movzbl %al,%eax
    fb41:	48 39 c1             	cmp    %rax,%rcx
    fb44:	0f 95 c0             	setne  %al
    fb47:	0f b6 c8             	movzbl %al,%ecx
    fb4a:	48 8b 85 40 f1 ff ff 	mov    -0xec0(%rbp),%rax
    fb51:	48 8b 00             	mov    (%rax),%rax
    fb54:	8b 10                	mov    (%rax),%edx
    fb56:	48 8b 85 40 f1 ff ff 	mov    -0xec0(%rbp),%rax
    fb5d:	48 8b 00             	mov    (%rax),%rax
    fb60:	21 ca                	and    %ecx,%edx
    fb62:	89 10                	mov    %edx,(%rax)
    fb64:	48 8b 05 25 f7 00 00 	mov    0xf725(%rip),%rax        # 1f290 <g_551>
    fb6b:	48 83 c0 01          	add    $0x1,%rax
    fb6f:	48 89 05 1a f7 00 00 	mov    %rax,0xf71a(%rip)        # 1f290 <g_551>
    fb76:	48 8b 05 13 f7 00 00 	mov    0xf713(%rip),%rax        # 1f290 <g_551>
    fb7d:	48 83 f8 22          	cmp    $0x22,%rax
    fb81:	0f 87 97 fe ff ff    	ja     fa1e <func_20+0x1fe3>
    fb87:	0f b7 05 1e f5 00 00 	movzwl 0xf51e(%rip),%eax        # 1f0ac <g_158>
    fb8e:	83 c0 01             	add    $0x1,%eax
    fb91:	66 89 05 14 f5 00 00 	mov    %ax,0xf514(%rip)        # 1f0ac <g_158>
    fb98:	0f b7 05 0d f5 00 00 	movzwl 0xf50d(%rip),%eax        # 1f0ac <g_158>
    fb9f:	66 83 f8 0e          	cmp    $0xe,%ax
    fba3:	0f 87 7b fb ff ff    	ja     f724 <func_20+0x1ce9>
    fba9:	0f b7 85 46 f0 ff ff 	movzwl -0xfba(%rbp),%eax
    fbb0:	66 85 c0             	test   %ax,%ax
    fbb3:	74 05                	je     fbba <func_20+0x217f>
    fbb5:	e9 99 e5 ff ff       	jmpq   e153 <func_20+0x718>
    fbba:	0f b6 05 e0 f6 00 00 	movzbl 0xf6e0(%rip),%eax        # 1f2a1 <g_616+0x1>
    fbc1:	83 c0 01             	add    $0x1,%eax
    fbc4:	88 05 d7 f6 00 00    	mov    %al,0xf6d7(%rip)        # 1f2a1 <g_616+0x1>
    fbca:	0f b6 05 d0 f6 00 00 	movzbl 0xf6d0(%rip),%eax        # 1f2a1 <g_616+0x1>
    fbd1:	3c 35                	cmp    $0x35,%al
    fbd3:	0f 86 f7 fa ff ff    	jbe    f6d0 <func_20+0x1c95>
    fbd9:	0f b7 05 d4 f5 00 00 	movzwl 0xf5d4(%rip),%eax        # 1f1b4 <g_291>
    fbe0:	83 c0 01             	add    $0x1,%eax
    fbe3:	66 89 05 ca f5 00 00 	mov    %ax,0xf5ca(%rip)        # 1f1b4 <g_291>
    fbea:	0f b7 05 c3 f5 00 00 	movzwl 0xf5c3(%rip),%eax        # 1f1b4 <g_291>
    fbf1:	66 83 f8 11          	cmp    $0x11,%ax
    fbf5:	0f 84 76 f9 ff ff    	je     f571 <func_20+0x1b36>
    fbfb:	8b 9d 38 f0 ff ff    	mov    -0xfc8(%rbp),%ebx
    fc01:	0f b7 85 38 f0 ff ff 	movzwl -0xfc8(%rbp),%eax
    fc08:	44 0f b7 e0          	movzwl %ax,%r12d
    fc0c:	8b 85 38 f0 ff ff    	mov    -0xfc8(%rbp),%eax
    fc12:	4c 63 e8             	movslq %eax,%r13
    fc15:	48 8b 05 24 1d 01 00 	mov    0x11d24(%rip),%rax        # 21940 <g_624>
    fc1c:	8b 00                	mov    (%rax),%eax
    fc1e:	85 c0                	test   %eax,%eax
    fc20:	75 7d                	jne    fc9f <func_20+0x2264>
    fc22:	48 8b 85 28 f0 ff ff 	mov    -0xfd8(%rbp),%rax
    fc29:	0f be d0             	movsbl %al,%edx
    fc2c:	0f b7 85 aa f1 ff ff 	movzwl -0xe56(%rbp),%eax
    fc33:	8d 48 ff             	lea    -0x1(%rax),%ecx
    fc36:	66 89 8d aa f1 ff ff 	mov    %cx,-0xe56(%rbp)
    fc3d:	0f b7 c0             	movzwl %ax,%eax
    fc40:	48 39 85 28 f0 ff ff 	cmp    %rax,-0xfd8(%rbp)
    fc47:	0f 95 c0             	setne  %al
    fc4a:	0f b6 c0             	movzbl %al,%eax
    fc4d:	09 85 6c f0 ff ff    	or     %eax,-0xf94(%rbp)
    fc53:	8b 85 6c f0 ff ff    	mov    -0xf94(%rbp),%eax
    fc59:	66 89 85 48 f0 ff ff 	mov    %ax,-0xfb8(%rbp)
    fc60:	48 8b 05 b9 a4 00 00 	mov    0xa4b9(%rip),%rax        # 1a120 <g_1219+0x10>
    fc67:	8b 05 5b f5 00 00    	mov    0xf55b(%rip),%eax        # 1f1c8 <g_418>
    fc6d:	89 85 10 f9 ff ff    	mov    %eax,-0x6f0(%rbp)
    fc73:	8b 85 10 f9 ff ff    	mov    -0x6f0(%rbp),%eax
    fc79:	83 f8 05             	cmp    $0x5,%eax
    fc7c:	0f 9f c0             	setg   %al
    fc7f:	0f b6 c0             	movzbl %al,%eax
    fc82:	89 d6                	mov    %edx,%esi
    fc84:	89 c7                	mov    %eax,%edi
    fc86:	e8 a6 85 ff ff       	callq  8231 <safe_mod_func_int8_t_s_s>
    fc8b:	89 c2                	mov    %eax,%edx
    fc8d:	48 8b 05 8c 1c 01 00 	mov    0x11c8c(%rip),%rax        # 21920 <g_360>
    fc94:	0f be d2             	movsbl %dl,%edx
    fc97:	89 10                	mov    %edx,(%rax)
    fc99:	8b 00                	mov    (%rax),%eax
    fc9b:	85 c0                	test   %eax,%eax
    fc9d:	74 07                	je     fca6 <func_20+0x226b>
    fc9f:	b8 01 00 00 00       	mov    $0x1,%eax
    fca4:	eb 05                	jmp    fcab <func_20+0x2270>
    fca6:	b8 00 00 00 00       	mov    $0x0,%eax
    fcab:	48 98                	cltq   
    fcad:	48 89 05 24 f7 00 00 	mov    %rax,0xf724(%rip)        # 1f3d8 <g_1534>
    fcb4:	48 8b 05 1d f7 00 00 	mov    0xf71d(%rip),%rax        # 1f3d8 <g_1534>
    fcbb:	49 39 c5             	cmp    %rax,%r13
    fcbe:	0f 9c c0             	setl   %al
    fcc1:	0f b6 d0             	movzbl %al,%edx
    fcc4:	0f be 85 42 f0 ff ff 	movsbl -0xfbe(%rbp),%eax
    fccb:	39 c2                	cmp    %eax,%edx
    fccd:	0f 9c c0             	setl   %al
    fcd0:	0f b6 c0             	movzbl %al,%eax
    fcd3:	89 c6                	mov    %eax,%esi
    fcd5:	bf ee fa ff ff       	mov    $0xfffffaee,%edi
    fcda:	e8 f4 86 ff ff       	callq  83d3 <safe_sub_func_int16_t_s_s>
    fcdf:	98                   	cwtl   
    fce0:	39 85 68 f0 ff ff    	cmp    %eax,-0xf98(%rbp)
    fce6:	0f 94 c0             	sete   %al
    fce9:	0f b6 c0             	movzbl %al,%eax
    fcec:	41 39 c4             	cmp    %eax,%r12d
    fcef:	0f 94 c0             	sete   %al
    fcf2:	0f b6 c0             	movzbl %al,%eax
    fcf5:	be 17 6b 82 a6       	mov    $0xa6826b17,%esi
    fcfa:	89 c7                	mov    %eax,%edi
    fcfc:	e8 cb 89 ff ff       	callq  86cc <safe_mod_func_int32_t_s_s>
    fd01:	48 8b 85 f8 f0 ff ff 	mov    -0xf08(%rbp),%rax
    fd08:	48 8d 95 46 f0 ff ff 	lea    -0xfba(%rbp),%rdx
    fd0f:	48 89 10             	mov    %rdx,(%rax)
    fd12:	48 8b 85 f8 f0 ff ff 	mov    -0xf08(%rbp),%rax
    fd19:	48 8b 10             	mov    (%rax),%rdx
    fd1c:	48 8d 85 46 f0 ff ff 	lea    -0xfba(%rbp),%rax
    fd23:	48 39 c2             	cmp    %rax,%rdx
    fd26:	0f 94 c0             	sete   %al
    fd29:	0f b6 c0             	movzbl %al,%eax
    fd2c:	89 de                	mov    %ebx,%esi
    fd2e:	89 c7                	mov    %eax,%edi
    fd30:	e8 00 86 ff ff       	callq  8335 <safe_rshift_func_int8_t_s_s>
    fd35:	48 0f be c0          	movsbq %al,%rax
    fd39:	48 39 85 28 f0 ff ff 	cmp    %rax,-0xfd8(%rbp)
    fd40:	0f 94 c0             	sete   %al
    fd43:	0f b6 c0             	movzbl %al,%eax
    fd46:	be ff ff ff ff       	mov    $0xffffffff,%esi
    fd4b:	89 c7                	mov    %eax,%edi
    fd4d:	e8 7e 91 ff ff       	callq  8ed0 <safe_sub_func_uint32_t_u_u>
    fd52:	80 bd 43 f0 ff ff 00 	cmpb   $0x0,-0xfbd(%rbp)
    fd59:	0f 95 c0             	setne  %al
    fd5c:	0f b6 d0             	movzbl %al,%edx
    fd5f:	8b 05 2b f5 00 00    	mov    0xf52b(%rip),%eax        # 1f290 <g_551>
    fd65:	21 d0                	and    %edx,%eax
    fd67:	89 05 23 f5 00 00    	mov    %eax,0xf523(%rip)        # 1f290 <g_551>
    fd6d:	c7 05 19 f5 00 00 00 	movl   $0x0,0xf519(%rip)        # 1f290 <g_551>
    fd74:	00 00 00 
    fd77:	eb 66                	jmp    fddf <func_20+0x23a4>
    fd79:	c7 85 70 f0 ff ff 01 	movl   $0x1,-0xf90(%rbp)
    fd80:	00 00 00 
    fd83:	48 8d 85 50 f0 ff ff 	lea    -0xfb0(%rbp),%rax
    fd8a:	48 89 85 00 f1 ff ff 	mov    %rax,-0xf00(%rbp)
    fd91:	8b 95 38 f0 ff ff    	mov    -0xfc8(%rbp),%edx
    fd97:	48 8b 05 f2 1f 01 00 	mov    0x11ff2(%rip),%rax        # 21d90 <g_1630>
    fd9e:	8b 00                	mov    (%rax),%eax
    fda0:	0b 85 70 f0 ff ff    	or     -0xf90(%rbp),%eax
    fda6:	89 c1                	mov    %eax,%ecx
    fda8:	48 8b 05 e1 1f 01 00 	mov    0x11fe1(%rip),%rax        # 21d90 <g_1630>
    fdaf:	89 08                	mov    %ecx,(%rax)
    fdb1:	8b 00                	mov    (%rax),%eax
    fdb3:	39 c2                	cmp    %eax,%edx
    fdb5:	0f 95 c0             	setne  %al
    fdb8:	0f b6 c0             	movzbl %al,%eax
    fdbb:	89 85 38 f0 ff ff    	mov    %eax,-0xfc8(%rbp)
    fdc1:	8b 05 c9 f4 00 00    	mov    0xf4c9(%rip),%eax        # 1f290 <g_551>
    fdc7:	0f b7 c0             	movzwl %ax,%eax
    fdca:	be 04 00 00 00       	mov    $0x4,%esi
    fdcf:	89 c7                	mov    %eax,%edi
    fdd1:	e8 29 8f ff ff       	callq  8cff <safe_add_func_uint16_t_u_u>
    fdd6:	0f b7 c0             	movzwl %ax,%eax
    fdd9:	89 05 b1 f4 00 00    	mov    %eax,0xf4b1(%rip)        # 1f290 <g_551>
    fddf:	8b 05 ab f4 00 00    	mov    0xf4ab(%rip),%eax        # 1f290 <g_551>
    fde5:	83 f8 05             	cmp    $0x5,%eax
    fde8:	7e 8f                	jle    fd79 <func_20+0x233e>
    fdea:	0f b7 85 38 f0 ff ff 	movzwl -0xfc8(%rbp),%eax
    fdf1:	0f b7 c0             	movzwl %ax,%eax
    fdf4:	48 8b 5d d8          	mov    -0x28(%rbp),%rbx
    fdf8:	64 48 33 1c 25 28 00 	xor    %fs:0x28,%rbx
    fdff:	00 00 
    fe01:	74 05                	je     fe08 <func_20+0x23cd>
    fe03:	e8 68 82 ff ff       	callq  8070 <__stack_chk_fail@plt>
    fe08:	48 81 c4 c8 0f 00 00 	add    $0xfc8,%rsp
    fe0f:	5b                   	pop    %rbx
    fe10:	41 5c                	pop    %r12
    fe12:	41 5d                	pop    %r13
    fe14:	5d                   	pop    %rbp
    fe15:	c3                   	retq   

000000000000fe16 <func_24>:
    fe16:	f3 0f 1e fa          	endbr64 
    fe1a:	55                   	push   %rbp
    fe1b:	48 89 e5             	mov    %rsp,%rbp
    fe1e:	41 57                	push   %r15
    fe20:	41 56                	push   %r14
    fe22:	41 55                	push   %r13
    fe24:	41 54                	push   %r12
    fe26:	53                   	push   %rbx
    fe27:	48 81 ec 00 10 00 00 	sub    $0x1000,%rsp
    fe2e:	48 83 0c 24 00       	orq    $0x0,(%rsp)
    fe33:	48 81 ec 38 0e 00 00 	sub    $0xe38,%rsp
    fe3a:	89 bd bc e1 ff ff    	mov    %edi,-0x1e44(%rbp)
    fe40:	89 f0                	mov    %esi,%eax
    fe42:	89 95 b4 e1 ff ff    	mov    %edx,-0x1e4c(%rbp)
    fe48:	89 8d b0 e1 ff ff    	mov    %ecx,-0x1e50(%rbp)
    fe4e:	44 89 c2             	mov    %r8d,%edx
    fe51:	66 89 85 b8 e1 ff ff 	mov    %ax,-0x1e48(%rbp)
    fe58:	89 d0                	mov    %edx,%eax
    fe5a:	66 89 85 ac e1 ff ff 	mov    %ax,-0x1e54(%rbp)
    fe61:	64 48 8b 04 25 28 00 	mov    %fs:0x28,%rax
    fe68:	00 00 
    fe6a:	48 89 45 c8          	mov    %rax,-0x38(%rbp)
    fe6e:	31 c0                	xor    %eax,%eax
    fe70:	48 8d 05 39 f3 00 00 	lea    0xf339(%rip),%rax        # 1f1b0 <g_200>
    fe77:	48 89 85 d8 e2 ff ff 	mov    %rax,-0x1d28(%rbp)
    fe7e:	48 8d 85 d8 e2 ff ff 	lea    -0x1d28(%rbp),%rax
    fe85:	48 89 85 78 e3 ff ff 	mov    %rax,-0x1c88(%rbp)
    fe8c:	48 b8 36 43 a6 21 b1 	movabs $0xd01538b121a64336,%rax
    fe93:	38 15 d0 
    fe96:	48 89 85 80 e3 ff ff 	mov    %rax,-0x1c80(%rbp)
    fe9d:	c7 85 d8 e1 ff ff fd 	movl   $0xfffffffd,-0x1e28(%rbp)
    fea4:	ff ff ff 
    fea7:	c7 85 50 e9 ff ff 7d 	movl   $0xea2b257d,-0x16b0(%rbp)
    feae:	25 2b ea 
    feb1:	c7 85 54 e9 ff ff 03 	movl   $0x3,-0x16ac(%rbp)
    feb8:	00 00 00 
    febb:	c7 85 58 e9 ff ff 8b 	movl   $0x39cc4c8b,-0x16a8(%rbp)
    fec2:	4c cc 39 
    fec5:	c7 85 5c e9 ff ff fd 	movl   $0xfffffffd,-0x16a4(%rbp)
    fecc:	ff ff ff 
    fecf:	c7 85 60 e9 ff ff 8b 	movl   $0x39cc4c8b,-0x16a0(%rbp)
    fed6:	4c cc 39 
    fed9:	c7 85 64 e9 ff ff 03 	movl   $0x3,-0x169c(%rbp)
    fee0:	00 00 00 
    fee3:	c7 85 68 e9 ff ff 7d 	movl   $0xea2b257d,-0x1698(%rbp)
    feea:	25 2b ea 
    feed:	c7 85 6c e9 ff ff 8b 	movl   $0x39cc4c8b,-0x1694(%rbp)
    fef4:	4c cc 39 
    fef7:	c7 85 70 e9 ff ff 87 	movl   $0xbc3da87,-0x1690(%rbp)
    fefe:	da c3 0b 
    ff01:	c7 85 74 e9 ff ff 46 	movl   $0xc05d2a46,-0x168c(%rbp)
    ff08:	2a 5d c0 
    ff0b:	c7 85 78 e9 ff ff 7d 	movl   $0x4d37d37d,-0x1688(%rbp)
    ff12:	d3 37 4d 
    ff15:	c7 85 7c e9 ff ff 1b 	movl   $0xe65bd11b,-0x1684(%rbp)
    ff1c:	d1 5b e6 
    ff1f:	c7 85 80 e9 ff ff f7 	movl   $0xab4422f7,-0x1680(%rbp)
    ff26:	22 44 ab 
    ff29:	c7 85 84 e9 ff ff 8b 	movl   $0x39cc4c8b,-0x167c(%rbp)
    ff30:	4c cc 39 
    ff33:	c7 85 88 e9 ff ff 1b 	movl   $0xe65bd11b,-0x1678(%rbp)
    ff3a:	d1 5b e6 
    ff3d:	c7 85 8c e9 ff ff 0f 	movl   $0xea64290f,-0x1674(%rbp)
    ff44:	29 64 ea 
    ff47:	c7 85 90 e9 ff ff 1b 	movl   $0xe65bd11b,-0x1670(%rbp)
    ff4e:	d1 5b e6 
    ff51:	c7 85 94 e9 ff ff 8b 	movl   $0x39cc4c8b,-0x166c(%rbp)
    ff58:	4c cc 39 
    ff5b:	c7 85 98 e9 ff ff 46 	movl   $0xc05d2a46,-0x1668(%rbp)
    ff62:	2a 5d c0 
    ff65:	c7 85 9c e9 ff ff 8b 	movl   $0x39cc4c8b,-0x1664(%rbp)
    ff6c:	4c cc 39 
    ff6f:	c7 85 a0 e9 ff ff 8b 	movl   $0x39cc4c8b,-0x1660(%rbp)
    ff76:	4c cc 39 
    ff79:	c7 85 a4 e9 ff ff 46 	movl   $0xc05d2a46,-0x165c(%rbp)
    ff80:	2a 5d c0 
    ff83:	c7 85 a8 e9 ff ff 7d 	movl   $0x4d37d37d,-0x1658(%rbp)
    ff8a:	d3 37 4d 
    ff8d:	c7 85 ac e9 ff ff 1b 	movl   $0xe65bd11b,-0x1654(%rbp)
    ff94:	d1 5b e6 
    ff97:	c7 85 b0 e9 ff ff f7 	movl   $0xab4422f7,-0x1650(%rbp)
    ff9e:	22 44 ab 
    ffa1:	c7 85 b4 e9 ff ff 8b 	movl   $0x39cc4c8b,-0x164c(%rbp)
    ffa8:	4c cc 39 
    ffab:	c7 85 b8 e9 ff ff 1b 	movl   $0xe65bd11b,-0x1648(%rbp)
    ffb2:	d1 5b e6 
    ffb5:	c7 85 bc e9 ff ff 7d 	movl   $0xea2b257d,-0x1644(%rbp)
    ffbc:	25 2b ea 
    ffbf:	c7 85 c0 e9 ff ff 8b 	movl   $0x39cc4c8b,-0x1640(%rbp)
    ffc6:	4c cc 39 
    ffc9:	c7 85 c4 e9 ff ff 87 	movl   $0xbc3da87,-0x163c(%rbp)
    ffd0:	da c3 0b 
    ffd3:	c7 85 c8 e9 ff ff f7 	movl   $0xab4422f7,-0x1638(%rbp)
    ffda:	22 44 ab 
    ffdd:	c7 85 cc e9 ff ff 03 	movl   $0x3,-0x1634(%rbp)
    ffe4:	00 00 00 
    ffe7:	c7 85 d0 e9 ff ff 03 	movl   $0x3,-0x1630(%rbp)
    ffee:	00 00 00 
    fff1:	c7 85 d4 e9 ff ff f7 	movl   $0xab4422f7,-0x162c(%rbp)
    fff8:	22 44 ab 
    fffb:	c7 85 d8 e9 ff ff 87 	movl   $0xbc3da87,-0x1628(%rbp)
   10002:	da c3 0b 
   10005:	c7 85 dc e9 ff ff 8b 	movl   $0x39cc4c8b,-0x1624(%rbp)
   1000c:	4c cc 39 
   1000f:	c7 85 e0 e9 ff ff f7 	movl   $0xab4422f7,-0x1620(%rbp)
   10016:	22 44 ab 
   10019:	c7 85 e4 e9 ff ff 7d 	movl   $0x4d37d37d,-0x161c(%rbp)
   10020:	d3 37 4d 
   10023:	c7 85 e8 e9 ff ff 87 	movl   $0xbc3da87,-0x1618(%rbp)
   1002a:	da c3 0b 
   1002d:	c7 85 ec e9 ff ff fd 	movl   $0xfffffffd,-0x1614(%rbp)
   10034:	ff ff ff 
   10037:	c7 85 f0 e9 ff ff 7d 	movl   $0x4d37d37d,-0x1610(%rbp)
   1003e:	d3 37 4d 
   10041:	c7 85 f4 e9 ff ff 8b 	movl   $0x39cc4c8b,-0x160c(%rbp)
   10048:	4c cc 39 
   1004b:	c7 85 f8 e9 ff ff 0f 	movl   $0xea64290f,-0x1608(%rbp)
   10052:	29 64 ea 
   10055:	c7 85 fc e9 ff ff 87 	movl   $0xbc3da87,-0x1604(%rbp)
   1005c:	da c3 0b 
   1005f:	c7 85 00 ea ff ff 87 	movl   $0xbc3da87,-0x1600(%rbp)
   10066:	da c3 0b 
   10069:	c7 85 04 ea ff ff 7d 	movl   $0xea2b257d,-0x15fc(%rbp)
   10070:	25 2b ea 
   10073:	c7 85 08 ea ff ff 03 	movl   $0x3,-0x15f8(%rbp)
   1007a:	00 00 00 
   1007d:	c7 85 0c ea ff ff 8b 	movl   $0x39cc4c8b,-0x15f4(%rbp)
   10084:	4c cc 39 
   10087:	c7 85 10 ea ff ff fd 	movl   $0xfffffffd,-0x15f0(%rbp)
   1008e:	ff ff ff 
   10091:	c7 85 14 ea ff ff 8b 	movl   $0x39cc4c8b,-0x15ec(%rbp)
   10098:	4c cc 39 
   1009b:	c7 85 18 ea ff ff 03 	movl   $0x3,-0x15e8(%rbp)
   100a2:	00 00 00 
   100a5:	c7 85 1c ea ff ff 7d 	movl   $0xea2b257d,-0x15e4(%rbp)
   100ac:	25 2b ea 
   100af:	c7 85 20 ea ff ff 8b 	movl   $0x39cc4c8b,-0x15e0(%rbp)
   100b6:	4c cc 39 
   100b9:	c7 85 24 ea ff ff 87 	movl   $0xbc3da87,-0x15dc(%rbp)
   100c0:	da c3 0b 
   100c3:	48 c7 85 e0 e2 ff ff 	movq   $0x0,-0x1d20(%rbp)
   100ca:	00 00 00 00 
   100ce:	48 c7 85 e8 e2 ff ff 	movq   $0x0,-0x1d18(%rbp)
   100d5:	00 00 00 00 
   100d9:	66 c7 85 e8 e2 ff ff 	movw   $0x4586,-0x1d18(%rbp)
   100e0:	86 45 
   100e2:	48 c7 85 f0 e2 ff ff 	movq   $0xffffffffffffffff,-0x1d10(%rbp)
   100e9:	ff ff ff ff 
   100ed:	48 c7 85 70 e3 ff ff 	movq   $0x0,-0x1c90(%rbp)
   100f4:	00 00 00 00 
   100f8:	48 c7 85 f8 e2 ff ff 	movq   $0x0,-0x1d08(%rbp)
   100ff:	00 00 00 00 
   10103:	66 c7 85 f8 e2 ff ff 	movw   $0xb3aa,-0x1d08(%rbp)
   1010a:	aa b3 
   1010c:	c7 85 fc e1 ff ff 00 	movl   $0x0,-0x1e04(%rbp)
   10113:	00 00 00 
   10116:	48 c7 85 00 e3 ff ff 	movq   $0x0,-0x1d00(%rbp)
   1011d:	00 00 00 00 
   10121:	66 c7 85 00 e3 ff ff 	movw   $0xfff9,-0x1d00(%rbp)
   10128:	f9 ff 
   1012a:	66 c7 85 d0 e1 ff ff 	movw   $0x9339,-0x1e30(%rbp)
   10131:	39 93 
   10133:	c7 85 00 e2 ff ff ff 	movl   $0xffffffff,-0x1e00(%rbp)
   1013a:	ff ff ff 
   1013d:	66 c7 85 b0 e8 ff ff 	movw   $0xffff,-0x1750(%rbp)
   10144:	ff ff 
   10146:	66 c7 85 b2 e8 ff ff 	movw   $0x1,-0x174e(%rbp)
   1014d:	01 00 
   1014f:	66 c7 85 b4 e8 ff ff 	movw   $0x1,-0x174c(%rbp)
   10156:	01 00 
   10158:	66 c7 85 b6 e8 ff ff 	movw   $0xfff6,-0x174a(%rbp)
   1015f:	f6 ff 
   10161:	66 c7 85 b8 e8 ff ff 	movw   $0xfff6,-0x1748(%rbp)
   10168:	f6 ff 
   1016a:	66 c7 85 ba e8 ff ff 	movw   $0x1,-0x1746(%rbp)
   10171:	01 00 
   10173:	66 c7 85 bc e8 ff ff 	movw   $0x1,-0x1744(%rbp)
   1017a:	01 00 
   1017c:	66 c7 85 be e8 ff ff 	movw   $0xffff,-0x1742(%rbp)
   10183:	ff ff 
   10185:	66 c7 85 c0 e8 ff ff 	movw   $0x1,-0x1740(%rbp)
   1018c:	01 00 
   1018e:	66 c7 85 c2 e8 ff ff 	movw   $0x1,-0x173e(%rbp)
   10195:	01 00 
   10197:	66 c7 85 c4 e8 ff ff 	movw   $0xfff6,-0x173c(%rbp)
   1019e:	f6 ff 
   101a0:	66 c7 85 c6 e8 ff ff 	movw   $0xfff6,-0x173a(%rbp)
   101a7:	f6 ff 
   101a9:	66 c7 85 c8 e8 ff ff 	movw   $0x1,-0x1738(%rbp)
   101b0:	01 00 
   101b2:	66 c7 85 ca e8 ff ff 	movw   $0x1,-0x1736(%rbp)
   101b9:	01 00 
   101bb:	66 c7 85 cc e8 ff ff 	movw   $0xffff,-0x1734(%rbp)
   101c2:	ff ff 
   101c4:	66 c7 85 ce e8 ff ff 	movw   $0x1,-0x1732(%rbp)
   101cb:	01 00 
   101cd:	66 c7 85 d0 e8 ff ff 	movw   $0x1,-0x1730(%rbp)
   101d4:	01 00 
   101d6:	66 c7 85 d2 e8 ff ff 	movw   $0xfff6,-0x172e(%rbp)
   101dd:	f6 ff 
   101df:	66 c7 85 d4 e8 ff ff 	movw   $0xfff6,-0x172c(%rbp)
   101e6:	f6 ff 
   101e8:	66 c7 85 d6 e8 ff ff 	movw   $0x1,-0x172a(%rbp)
   101ef:	01 00 
   101f1:	66 c7 85 d8 e8 ff ff 	movw   $0x1,-0x1728(%rbp)
   101f8:	01 00 
   101fa:	66 c7 85 da e8 ff ff 	movw   $0xffff,-0x1726(%rbp)
   10201:	ff ff 
   10203:	66 c7 85 dc e8 ff ff 	movw   $0x1,-0x1724(%rbp)
   1020a:	01 00 
   1020c:	66 c7 85 de e8 ff ff 	movw   $0x1,-0x1722(%rbp)
   10213:	01 00 
   10215:	66 c7 85 e0 e8 ff ff 	movw   $0xfff6,-0x1720(%rbp)
   1021c:	f6 ff 
   1021e:	66 c7 85 e2 e8 ff ff 	movw   $0xfff6,-0x171e(%rbp)
   10225:	f6 ff 
   10227:	66 c7 85 e4 e8 ff ff 	movw   $0x1,-0x171c(%rbp)
   1022e:	01 00 
   10230:	66 c7 85 e6 e8 ff ff 	movw   $0x1,-0x171a(%rbp)
   10237:	01 00 
   10239:	66 c7 85 e8 e8 ff ff 	movw   $0xffff,-0x1718(%rbp)
   10240:	ff ff 
   10242:	66 c7 85 ea e8 ff ff 	movw   $0x1,-0x1716(%rbp)
   10249:	01 00 
   1024b:	66 c7 85 ec e8 ff ff 	movw   $0x1,-0x1714(%rbp)
   10252:	01 00 
   10254:	66 c7 85 ee e8 ff ff 	movw   $0xfff6,-0x1712(%rbp)
   1025b:	f6 ff 
   1025d:	66 c7 85 f0 e8 ff ff 	movw   $0xfff6,-0x1710(%rbp)
   10264:	f6 ff 
   10266:	66 c7 85 f2 e8 ff ff 	movw   $0x1,-0x170e(%rbp)
   1026d:	01 00 
   1026f:	66 c7 85 f4 e8 ff ff 	movw   $0x1,-0x170c(%rbp)
   10276:	01 00 
   10278:	66 c7 85 f6 e8 ff ff 	movw   $0xffff,-0x170a(%rbp)
   1027f:	ff ff 
   10281:	66 c7 85 f8 e8 ff ff 	movw   $0x1,-0x1708(%rbp)
   10288:	01 00 
   1028a:	66 c7 85 fa e8 ff ff 	movw   $0x1,-0x1706(%rbp)
   10291:	01 00 
   10293:	66 c7 85 fc e8 ff ff 	movw   $0xfff6,-0x1704(%rbp)
   1029a:	f6 ff 
   1029c:	66 c7 85 fe e8 ff ff 	movw   $0xfff6,-0x1702(%rbp)
   102a3:	f6 ff 
   102a5:	66 c7 85 00 e9 ff ff 	movw   $0x1,-0x1700(%rbp)
   102ac:	01 00 
   102ae:	66 c7 85 02 e9 ff ff 	movw   $0x1,-0x16fe(%rbp)
   102b5:	01 00 
   102b7:	66 c7 85 04 e9 ff ff 	movw   $0xffff,-0x16fc(%rbp)
   102be:	ff ff 
   102c0:	66 c7 85 06 e9 ff ff 	movw   $0x1,-0x16fa(%rbp)
   102c7:	01 00 
   102c9:	66 c7 85 08 e9 ff ff 	movw   $0x1,-0x16f8(%rbp)
   102d0:	01 00 
   102d2:	66 c7 85 0a e9 ff ff 	movw   $0xfff6,-0x16f6(%rbp)
   102d9:	f6 ff 
   102db:	66 c7 85 0c e9 ff ff 	movw   $0xfff6,-0x16f4(%rbp)
   102e2:	f6 ff 
   102e4:	66 c7 85 0e e9 ff ff 	movw   $0x1,-0x16f2(%rbp)
   102eb:	01 00 
   102ed:	66 c7 85 10 e9 ff ff 	movw   $0x1,-0x16f0(%rbp)
   102f4:	01 00 
   102f6:	66 c7 85 12 e9 ff ff 	movw   $0xffff,-0x16ee(%rbp)
   102fd:	ff ff 
   102ff:	66 c7 85 14 e9 ff ff 	movw   $0x1,-0x16ec(%rbp)
   10306:	01 00 
   10308:	66 c7 85 16 e9 ff ff 	movw   $0x1,-0x16ea(%rbp)
   1030f:	01 00 
   10311:	66 c7 85 18 e9 ff ff 	movw   $0xfff6,-0x16e8(%rbp)
   10318:	f6 ff 
   1031a:	66 c7 85 1a e9 ff ff 	movw   $0xfff6,-0x16e6(%rbp)
   10321:	f6 ff 
   10323:	66 c7 85 1c e9 ff ff 	movw   $0x1,-0x16e4(%rbp)
   1032a:	01 00 
   1032c:	66 c7 85 1e e9 ff ff 	movw   $0x1,-0x16e2(%rbp)
   10333:	01 00 
   10335:	66 c7 85 20 e9 ff ff 	movw   $0xffff,-0x16e0(%rbp)
   1033c:	ff ff 
   1033e:	66 c7 85 22 e9 ff ff 	movw   $0x1,-0x16de(%rbp)
   10345:	01 00 
   10347:	66 c7 85 24 e9 ff ff 	movw   $0x1,-0x16dc(%rbp)
   1034e:	01 00 
   10350:	66 c7 85 26 e9 ff ff 	movw   $0xfff6,-0x16da(%rbp)
   10357:	f6 ff 
   10359:	66 c7 85 28 e9 ff ff 	movw   $0xfff6,-0x16d8(%rbp)
   10360:	f6 ff 
   10362:	66 c7 85 2a e9 ff ff 	movw   $0x1,-0x16d6(%rbp)
   10369:	01 00 
   1036b:	66 c7 85 2c e9 ff ff 	movw   $0x1,-0x16d4(%rbp)
   10372:	01 00 
   10374:	66 c7 85 2e e9 ff ff 	movw   $0xffff,-0x16d2(%rbp)
   1037b:	ff ff 
   1037d:	66 c7 85 30 e9 ff ff 	movw   $0x1,-0x16d0(%rbp)
   10384:	01 00 
   10386:	66 c7 85 32 e9 ff ff 	movw   $0x1,-0x16ce(%rbp)
   1038d:	01 00 
   1038f:	66 c7 85 34 e9 ff ff 	movw   $0xfff6,-0x16cc(%rbp)
   10396:	f6 ff 
   10398:	66 c7 85 36 e9 ff ff 	movw   $0xfff6,-0x16ca(%rbp)
   1039f:	f6 ff 
   103a1:	66 c7 85 38 e9 ff ff 	movw   $0x1,-0x16c8(%rbp)
   103a8:	01 00 
   103aa:	66 c7 85 3a e9 ff ff 	movw   $0x1,-0x16c6(%rbp)
   103b1:	01 00 
   103b3:	66 c7 85 3c e9 ff ff 	movw   $0xffff,-0x16c4(%rbp)
   103ba:	ff ff 
   103bc:	66 c7 85 3e e9 ff ff 	movw   $0x1,-0x16c2(%rbp)
   103c3:	01 00 
   103c5:	66 c7 85 40 e9 ff ff 	movw   $0x1,-0x16c0(%rbp)
   103cc:	01 00 
   103ce:	66 c7 85 42 e9 ff ff 	movw   $0xfff6,-0x16be(%rbp)
   103d5:	f6 ff 
   103d7:	66 c7 85 44 e9 ff ff 	movw   $0xfff6,-0x16bc(%rbp)
   103de:	f6 ff 
   103e0:	66 c7 85 46 e9 ff ff 	movw   $0x1,-0x16ba(%rbp)
   103e7:	01 00 
   103e9:	66 c7 85 48 e9 ff ff 	movw   $0x1,-0x16b8(%rbp)
   103f0:	01 00 
   103f2:	66 c7 85 4a e9 ff ff 	movw   $0xffff,-0x16b6(%rbp)
   103f9:	ff ff 
   103fb:	66 c7 85 4c e9 ff ff 	movw   $0x1,-0x16b4(%rbp)
   10402:	01 00 
   10404:	66 c7 85 4e e9 ff ff 	movw   $0x1,-0x16b2(%rbp)
   1040b:	01 00 
   1040d:	c6 85 c6 e1 ff ff f8 	movb   $0xf8,-0x1e3a(%rbp)
   10414:	66 c7 85 d2 e1 ff ff 	movw   $0x0,-0x1e2e(%rbp)
   1041b:	00 00 
   1041d:	c6 85 c8 e1 ff ff 3e 	movb   $0x3e,-0x1e38(%rbp)
   10424:	c7 85 dc e1 ff ff fb 	movl   $0xfffffffb,-0x1e24(%rbp)
   1042b:	ff ff ff 
   1042e:	48 8d 85 80 f4 ff ff 	lea    -0xb80(%rbp),%rax
   10435:	48 8d 15 64 fa 00 00 	lea    0xfa64(%rip),%rdx        # 1fea0 <g_2403+0x6b8>
   1043c:	b9 78 00 00 00       	mov    $0x78,%ecx
   10441:	48 89 c7             	mov    %rax,%rdi
   10444:	48 89 d6             	mov    %rdx,%rsi
   10447:	f3 48 a5             	rep movsq %ds:(%rsi),%es:(%rdi)
   1044a:	48 b8 18 95 94 92 72 	movabs $0xe6ae337292949518,%rax
   10451:	33 ae e6 
   10454:	48 89 85 20 e8 ff ff 	mov    %rax,-0x17e0(%rbp)
   1045b:	48 89 85 28 e8 ff ff 	mov    %rax,-0x17d8(%rbp)
   10462:	48 bb b7 c5 b1 f0 4a 	movabs $0x4895f84af0b1c5b7,%rbx
   10469:	f8 95 48 
   1046c:	48 89 9d 30 e8 ff ff 	mov    %rbx,-0x17d0(%rbp)
   10473:	48 89 85 38 e8 ff ff 	mov    %rax,-0x17c8(%rbp)
   1047a:	48 89 85 40 e8 ff ff 	mov    %rax,-0x17c0(%rbp)
   10481:	48 89 9d 48 e8 ff ff 	mov    %rbx,-0x17b8(%rbp)
   10488:	48 89 85 50 e8 ff ff 	mov    %rax,-0x17b0(%rbp)
   1048f:	48 89 85 58 e8 ff ff 	mov    %rax,-0x17a8(%rbp)
   10496:	48 89 9d 60 e8 ff ff 	mov    %rbx,-0x17a0(%rbp)
   1049d:	48 89 85 68 e8 ff ff 	mov    %rax,-0x1798(%rbp)
   104a4:	48 89 85 70 e8 ff ff 	mov    %rax,-0x1790(%rbp)
   104ab:	48 89 9d 78 e8 ff ff 	mov    %rbx,-0x1788(%rbp)
   104b2:	48 89 85 80 e8 ff ff 	mov    %rax,-0x1780(%rbp)
   104b9:	48 89 85 88 e8 ff ff 	mov    %rax,-0x1778(%rbp)
   104c0:	48 89 9d 90 e8 ff ff 	mov    %rbx,-0x1770(%rbp)
   104c7:	48 89 85 98 e8 ff ff 	mov    %rax,-0x1768(%rbp)
   104ce:	48 89 85 a0 e8 ff ff 	mov    %rax,-0x1760(%rbp)
   104d5:	48 89 9d a8 e8 ff ff 	mov    %rbx,-0x1758(%rbp)
   104dc:	c7 85 e0 e1 ff ff 01 	movl   $0x1,-0x1e20(%rbp)
   104e3:	00 00 00 
   104e6:	48 b8 e9 3e 78 2a 4c 	movabs $0xc37c164c2a783ee9,%rax
   104ed:	16 7c c3 
   104f0:	48 89 85 a0 e3 ff ff 	mov    %rax,-0x1c60(%rbp)
   104f7:	48 c7 85 30 ea ff ff 	movq   $0x0,-0x15d0(%rbp)
   104fe:	00 00 00 00 
   10502:	48 8d 05 27 14 01 00 	lea    0x11427(%rip),%rax        # 21930 <g_536>
   10509:	48 89 85 38 ea ff ff 	mov    %rax,-0x15c8(%rbp)
   10510:	48 8d 05 19 14 01 00 	lea    0x11419(%rip),%rax        # 21930 <g_536>
   10517:	48 89 85 40 ea ff ff 	mov    %rax,-0x15c0(%rbp)
   1051e:	48 c7 85 48 ea ff ff 	movq   $0x0,-0x15b8(%rbp)
   10525:	00 00 00 00 
   10529:	48 8d 05 00 14 01 00 	lea    0x11400(%rip),%rax        # 21930 <g_536>
   10530:	48 89 85 50 ea ff ff 	mov    %rax,-0x15b0(%rbp)
   10537:	48 8d 05 f2 13 01 00 	lea    0x113f2(%rip),%rax        # 21930 <g_536>
   1053e:	48 89 85 58 ea ff ff 	mov    %rax,-0x15a8(%rbp)
   10545:	48 8d 05 e4 13 01 00 	lea    0x113e4(%rip),%rax        # 21930 <g_536>
   1054c:	48 89 85 60 ea ff ff 	mov    %rax,-0x15a0(%rbp)
   10553:	48 c7 85 68 ea ff ff 	movq   $0x0,-0x1598(%rbp)
   1055a:	00 00 00 00 
   1055e:	48 8d 05 cb 13 01 00 	lea    0x113cb(%rip),%rax        # 21930 <g_536>
   10565:	48 89 85 70 ea ff ff 	mov    %rax,-0x1590(%rbp)
   1056c:	48 8d 05 bd 13 01 00 	lea    0x113bd(%rip),%rax        # 21930 <g_536>
   10573:	48 89 85 78 ea ff ff 	mov    %rax,-0x1588(%rbp)
   1057a:	48 8d 05 af 13 01 00 	lea    0x113af(%rip),%rax        # 21930 <g_536>
   10581:	48 89 85 80 ea ff ff 	mov    %rax,-0x1580(%rbp)
   10588:	48 c7 85 88 ea ff ff 	movq   $0x0,-0x1578(%rbp)
   1058f:	00 00 00 00 
   10593:	48 8d 05 96 13 01 00 	lea    0x11396(%rip),%rax        # 21930 <g_536>
   1059a:	48 89 85 90 ea ff ff 	mov    %rax,-0x1570(%rbp)
   105a1:	48 8d 05 88 13 01 00 	lea    0x11388(%rip),%rax        # 21930 <g_536>
   105a8:	48 89 85 98 ea ff ff 	mov    %rax,-0x1568(%rbp)
   105af:	48 8d 05 7a 13 01 00 	lea    0x1137a(%rip),%rax        # 21930 <g_536>
   105b6:	48 89 85 a0 ea ff ff 	mov    %rax,-0x1560(%rbp)
   105bd:	48 c7 85 a8 ea ff ff 	movq   $0x0,-0x1558(%rbp)
   105c4:	00 00 00 00 
   105c8:	48 8d 05 61 13 01 00 	lea    0x11361(%rip),%rax        # 21930 <g_536>
   105cf:	48 89 85 b0 ea ff ff 	mov    %rax,-0x1550(%rbp)
   105d6:	48 8d 05 53 13 01 00 	lea    0x11353(%rip),%rax        # 21930 <g_536>
   105dd:	48 89 85 b8 ea ff ff 	mov    %rax,-0x1548(%rbp)
   105e4:	48 8d 05 45 13 01 00 	lea    0x11345(%rip),%rax        # 21930 <g_536>
   105eb:	48 89 85 c0 ea ff ff 	mov    %rax,-0x1540(%rbp)
   105f2:	48 c7 85 c8 ea ff ff 	movq   $0x0,-0x1538(%rbp)
   105f9:	00 00 00 00 
   105fd:	48 8d 05 2c 13 01 00 	lea    0x1132c(%rip),%rax        # 21930 <g_536>
   10604:	48 89 85 d0 ea ff ff 	mov    %rax,-0x1530(%rbp)
   1060b:	48 8d 05 1e 13 01 00 	lea    0x1131e(%rip),%rax        # 21930 <g_536>
   10612:	48 89 85 d8 ea ff ff 	mov    %rax,-0x1528(%rbp)
   10619:	48 8d 05 10 13 01 00 	lea    0x11310(%rip),%rax        # 21930 <g_536>
   10620:	48 89 85 e0 ea ff ff 	mov    %rax,-0x1520(%rbp)
   10627:	48 c7 85 e8 ea ff ff 	movq   $0x0,-0x1518(%rbp)
   1062e:	00 00 00 00 
   10632:	48 8d 05 f7 12 01 00 	lea    0x112f7(%rip),%rax        # 21930 <g_536>
   10639:	48 89 85 f0 ea ff ff 	mov    %rax,-0x1510(%rbp)
   10640:	48 8d 05 e9 12 01 00 	lea    0x112e9(%rip),%rax        # 21930 <g_536>
   10647:	48 89 85 f8 ea ff ff 	mov    %rax,-0x1508(%rbp)
   1064e:	48 c7 85 00 eb ff ff 	movq   $0x0,-0x1500(%rbp)
   10655:	00 00 00 00 
   10659:	48 8d 05 c0 14 01 00 	lea    0x114c0(%rip),%rax        # 21b20 <g_812>
   10660:	48 89 85 08 e3 ff ff 	mov    %rax,-0x1cf8(%rbp)
   10667:	48 8d 85 60 e6 ff ff 	lea    -0x19a0(%rbp),%rax
   1066e:	48 83 c0 08          	add    $0x8,%rax
   10672:	48 89 85 a8 e3 ff ff 	mov    %rax,-0x1c58(%rbp)
   10679:	48 8d 85 20 f1 ff ff 	lea    -0xee0(%rbp),%rax
   10680:	48 8d 15 99 ac 00 00 	lea    0xac99(%rip),%rdx        # 1b320 <g_1219+0x1210>
   10687:	b9 6c 00 00 00       	mov    $0x6c,%ecx
   1068c:	48 89 c7             	mov    %rax,%rdi
   1068f:	48 89 d6             	mov    %rdx,%rsi
   10692:	f3 48 a5             	rep movsq %ds:(%rsi),%es:(%rdi)
   10695:	48 8d 85 f0 eb ff ff 	lea    -0x1410(%rbp),%rax
   1069c:	48 8d 15 dd af 00 00 	lea    0xafdd(%rip),%rdx        # 1b680 <g_1219+0x1570>
   106a3:	b9 2f 00 00 00       	mov    $0x2f,%ecx
   106a8:	48 89 c7             	mov    %rax,%rdi
   106ab:	48 89 d6             	mov    %rdx,%rsi
   106ae:	f3 48 a5             	rep movsq %ds:(%rsi),%es:(%rdi)
   106b1:	48 89 f2             	mov    %rsi,%rdx
   106b4:	48 89 f8             	mov    %rdi,%rax
   106b7:	0f b7 0a             	movzwl (%rdx),%ecx
   106ba:	66 89 08             	mov    %cx,(%rax)
   106bd:	48 c7 85 b0 e3 ff ff 	movq   $0x0,-0x1c50(%rbp)
   106c4:	00 00 00 00 
   106c8:	c6 85 c9 e1 ff ff 7e 	movb   $0x7e,-0x1e37(%rbp)
   106cf:	c6 85 ca e1 ff ff 9f 	movb   $0x9f,-0x1e36(%rbp)
   106d6:	48 b8 df 2f bc 32 69 	movabs $0xbdd6026932bc2fdf,%rax
   106dd:	02 d6 bd 
   106e0:	48 89 85 b8 e3 ff ff 	mov    %rax,-0x1c48(%rbp)
   106e7:	c7 85 1c e2 ff ff 00 	movl   $0x0,-0x1de4(%rbp)
   106ee:	00 00 00 
   106f1:	eb 1e                	jmp    10711 <func_24+0x8fb>
   106f3:	8b 85 1c e2 ff ff    	mov    -0x1de4(%rbp),%eax
   106f9:	48 98                	cltq   
   106fb:	48 8d 15 d2 ea 00 00 	lea    0xead2(%rip),%rdx        # 1f1d4 <g_426+0x4>
   10702:	48 89 94 c5 50 e7 ff 	mov    %rdx,-0x18b0(%rbp,%rax,8)
   10709:	ff 
   1070a:	83 85 1c e2 ff ff 01 	addl   $0x1,-0x1de4(%rbp)
   10711:	83 bd 1c e2 ff ff 08 	cmpl   $0x8,-0x1de4(%rbp)
   10718:	7e d9                	jle    106f3 <func_24+0x8dd>
   1071a:	c7 85 1c e2 ff ff 00 	movl   $0x0,-0x1de4(%rbp)
   10721:	00 00 00 
   10724:	eb 1e                	jmp    10744 <func_24+0x92e>
   10726:	8b 85 1c e2 ff ff    	mov    -0x1de4(%rbp),%eax
   1072c:	48 98                	cltq   
   1072e:	48 8d 15 e3 13 01 00 	lea    0x113e3(%rip),%rdx        # 21b18 <g_813>
   10735:	48 89 94 c5 60 e6 ff 	mov    %rdx,-0x19a0(%rbp,%rax,8)
   1073c:	ff 
   1073d:	83 85 1c e2 ff ff 01 	addl   $0x1,-0x1de4(%rbp)
   10744:	83 bd 1c e2 ff ff 01 	cmpl   $0x1,-0x1de4(%rbp)
   1074b:	7e d9                	jle    10726 <func_24+0x910>
   1074d:	90                   	nop
   1074e:	c6 05 1c e9 00 00 00 	movb   $0x0,0xe91c(%rip)        # 1f071 <g_121+0x1>
   10755:	90                   	nop
   10756:	0f b6 05 14 e9 00 00 	movzbl 0xe914(%rip),%eax        # 1f071 <g_121+0x1>
   1075d:	3c 09                	cmp    $0x9,%al
   1075f:	74 20                	je     10781 <func_24+0x96b>
   10761:	48 c7 85 68 e3 ff ff 	movq   $0x0,-0x1c98(%rbp)
   10768:	00 00 00 00 
   1076c:	66 c7 85 68 e3 ff ff 	movw   $0x91d,-0x1c98(%rbp)
   10773:	1d 09 
   10775:	48 8b 85 68 e3 ff ff 	mov    -0x1c98(%rbp),%rax
   1077c:	e9 6b 3f 00 00       	jmpq   146ec <func_24+0x48d6>
   10781:	c7 85 bc e1 ff ff 1c 	movl   $0x1c,-0x1e44(%rbp)
   10788:	00 00 00 
   1078b:	e9 8d 00 00 00       	jmpq   1081d <func_24+0xa07>
   10790:	48 8d 05 a1 e8 00 00 	lea    0xe8a1(%rip),%rax        # 1f038 <g_62>
   10797:	48 89 85 40 f8 ff ff 	mov    %rax,-0x7c0(%rbp)
   1079e:	48 8d 05 93 e8 00 00 	lea    0xe893(%rip),%rax        # 1f038 <g_62>
   107a5:	48 89 85 48 f8 ff ff 	mov    %rax,-0x7b8(%rbp)
   107ac:	48 c7 85 50 f8 ff ff 	movq   $0x0,-0x7b0(%rbp)
   107b3:	00 00 00 00 
   107b7:	48 8d 05 7a e8 00 00 	lea    0xe87a(%rip),%rax        # 1f038 <g_62>
   107be:	48 89 85 58 f8 ff ff 	mov    %rax,-0x7a8(%rbp)
   107c5:	48 8d 05 6c e8 00 00 	lea    0xe86c(%rip),%rax        # 1f038 <g_62>
   107cc:	48 89 85 60 f8 ff ff 	mov    %rax,-0x7a0(%rbp)
   107d3:	48 c7 85 68 f8 ff ff 	movq   $0x0,-0x798(%rbp)
   107da:	00 00 00 00 
   107de:	48 8d 05 53 e8 00 00 	lea    0xe853(%rip),%rax        # 1f038 <g_62>
   107e5:	48 89 85 70 f8 ff ff 	mov    %rax,-0x790(%rbp)
   107ec:	48 8d 05 45 e8 00 00 	lea    0xe845(%rip),%rax        # 1f038 <g_62>
   107f3:	48 89 85 78 f8 ff ff 	mov    %rax,-0x788(%rbp)
   107fa:	48 c7 85 80 f8 ff ff 	movq   $0x0,-0x780(%rbp)
   10801:	00 00 00 00 
   10805:	48 8b 05 44 0c 01 00 	mov    0x10c44(%rip),%rax        # 21450 <g_69>
   1080c:	48 8b 95 48 f8 ff ff 	mov    -0x7b8(%rbp),%rdx
   10813:	48 89 10             	mov    %rdx,(%rax)
   10816:	83 85 bc e1 ff ff 01 	addl   $0x1,-0x1e44(%rbp)
   1081d:	83 bd bc e1 ff ff 2b 	cmpl   $0x2b,-0x1e44(%rbp)
   10824:	0f 84 66 ff ff ff    	je     10790 <func_24+0x97a>
   1082a:	48 8b 05 f7 10 01 00 	mov    0x110f7(%rip),%rax        # 21928 <g_359>
   10831:	48 8b 10             	mov    (%rax),%rdx
   10834:	48 8b 85 78 e3 ff ff 	mov    -0x1c88(%rbp),%rax
   1083b:	48 c7 00 00 00 00 00 	movq   $0x0,(%rax)
   10842:	48 8b 85 78 e3 ff ff 	mov    -0x1c88(%rbp),%rax
   10849:	48 8b 00             	mov    (%rax),%rax
   1084c:	48 39 c2             	cmp    %rax,%rdx
   1084f:	0f 95 c0             	setne  %al
   10852:	44 0f b6 e8          	movzbl %al,%r13d
   10856:	48 8b 85 80 e3 ff ff 	mov    -0x1c80(%rbp),%rax
   1085d:	0f bf d8             	movswl %ax,%ebx
   10860:	48 8b 85 80 e3 ff ff 	mov    -0x1c80(%rbp),%rax
   10867:	44 0f b6 e0          	movzbl %al,%r12d
   1086b:	48 83 bd 80 e3 ff ff 	cmpq   $0x0,-0x1c80(%rbp)
   10872:	00 
   10873:	75 46                	jne    108bb <func_24+0xaa5>
   10875:	8b 85 bc e1 ff ff    	mov    -0x1e44(%rbp),%eax
   1087b:	48 89 c6             	mov    %rax,%rsi
   1087e:	bf 00 00 00 00       	mov    $0x0,%edi
   10883:	e8 6f 81 ff ff       	callq  89f7 <safe_div_func_int64_t_s_s>
   10888:	48 8b 05 e1 0b 01 00 	mov    0x10be1(%rip),%rax        # 21470 <g_82>
   1088f:	48 8b 10             	mov    (%rax),%rdx
   10892:	48 8d 85 ac e1 ff ff 	lea    -0x1e54(%rbp),%rax
   10899:	48 39 c2             	cmp    %rax,%rdx
   1089c:	0f 94 c0             	sete   %al
   1089f:	0f b6 c0             	movzbl %al,%eax
   108a2:	48 8b 15 e7 e7 00 00 	mov    0xe7e7(%rip),%rdx        # 1f090 <g_140>
   108a9:	48 c1 ea 20          	shr    $0x20,%rdx
   108ad:	83 e2 7f             	and    $0x7f,%edx
   108b0:	0f b6 d2             	movzbl %dl,%edx
   108b3:	83 e2 7e             	and    $0x7e,%edx
   108b6:	48 39 d0             	cmp    %rdx,%rax
   108b9:	75 07                	jne    108c2 <func_24+0xaac>
   108bb:	b8 01 00 00 00       	mov    $0x1,%eax
   108c0:	eb 05                	jmp    108c7 <func_24+0xab1>
   108c2:	b8 00 00 00 00       	mov    $0x0,%eax
   108c7:	89 85 d8 e1 ff ff    	mov    %eax,-0x1e28(%rbp)
   108cd:	8b 85 d8 e1 ff ff    	mov    -0x1e28(%rbp),%eax
   108d3:	83 f8 f8             	cmp    $0xfffffff8,%eax
   108d6:	0f 95 c0             	setne  %al
   108d9:	0f b6 c0             	movzbl %al,%eax
   108dc:	89 85 50 e9 ff ff    	mov    %eax,-0x16b0(%rbp)
   108e2:	8b 85 50 e9 ff ff    	mov    -0x16b0(%rbp),%eax
   108e8:	48 98                	cltq   
   108ea:	48 39 85 80 e3 ff ff 	cmp    %rax,-0x1c80(%rbp)
   108f1:	75 07                	jne    108fa <func_24+0xae4>
   108f3:	83 bd b4 e1 ff ff 00 	cmpl   $0x0,-0x1e4c(%rbp)
   108fa:	48 83 bd 80 e3 ff ff 	cmpq   $0x1,-0x1c80(%rbp)
   10901:	01 
   10902:	0f 97 c0             	seta   %al
   10905:	0f b6 c0             	movzbl %al,%eax
   10908:	48 39 85 80 e3 ff ff 	cmp    %rax,-0x1c80(%rbp)
   1090f:	0f 92 c0             	setb   %al
   10912:	0f b6 c0             	movzbl %al,%eax
   10915:	be ff 00 00 00       	mov    $0xff,%esi
   1091a:	89 c7                	mov    %eax,%edi
   1091c:	e8 72 82 ff ff       	callq  8b93 <safe_mul_func_uint8_t_u_u>
   10921:	0f b6 c0             	movzbl %al,%eax
   10924:	44 89 e6             	mov    %r12d,%esi
   10927:	89 c7                	mov    %eax,%edi
   10929:	e8 65 82 ff ff       	callq  8b93 <safe_mul_func_uint8_t_u_u>
   1092e:	89 de                	mov    %ebx,%esi
   10930:	bf 00 00 00 00       	mov    $0x0,%edi
   10935:	e8 bb 7a ff ff       	callq  83f5 <safe_mul_func_int16_t_s_s>
   1093a:	98                   	cwtl   
   1093b:	44 09 e8             	or     %r13d,%eax
   1093e:	85 c0                	test   %eax,%eax
   10940:	0f 84 40 0f 00 00    	je     11886 <func_24+0x1a70>
   10946:	48 8d 05 2b e8 00 00 	lea    0xe82b(%rip),%rax        # 1f178 <g_183+0xb8>
   1094d:	48 89 85 68 e5 ff ff 	mov    %rax,-0x1a98(%rbp)
   10954:	c7 85 98 e2 ff ff 67 	movl   $0xbfcb1b67,-0x1d68(%rbp)
   1095b:	1b cb bf 
   1095e:	c7 85 40 e3 ff ff 00 	movl   $0x0,-0x1cc0(%rbp)
   10965:	00 00 00 
   10968:	48 8d 05 45 e8 00 00 	lea    0xe845(%rip),%rax        # 1f1b4 <g_291>
   1096f:	48 89 85 10 e7 ff ff 	mov    %rax,-0x18f0(%rbp)
   10976:	48 8d 05 37 e8 00 00 	lea    0xe837(%rip),%rax        # 1f1b4 <g_291>
   1097d:	48 89 85 18 e7 ff ff 	mov    %rax,-0x18e8(%rbp)
   10984:	48 c7 85 20 e7 ff ff 	movq   $0x0,-0x18e0(%rbp)
   1098b:	00 00 00 00 
   1098f:	48 8d 05 1e e8 00 00 	lea    0xe81e(%rip),%rax        # 1f1b4 <g_291>
   10996:	48 89 85 28 e7 ff ff 	mov    %rax,-0x18d8(%rbp)
   1099d:	48 8d 05 10 e8 00 00 	lea    0xe810(%rip),%rax        # 1f1b4 <g_291>
   109a4:	48 89 85 30 e7 ff ff 	mov    %rax,-0x18d0(%rbp)
   109ab:	48 c7 85 38 e7 ff ff 	movq   $0x0,-0x18c8(%rbp)
   109b2:	00 00 00 00 
   109b6:	48 8d 05 f7 e7 00 00 	lea    0xe7f7(%rip),%rax        # 1f1b4 <g_291>
   109bd:	48 89 85 40 e7 ff ff 	mov    %rax,-0x18c0(%rbp)
   109c4:	48 c7 85 70 e5 ff ff 	movq   $0x0,-0x1a90(%rbp)
   109cb:	00 00 00 00 
   109cf:	48 8d 05 9a e6 00 00 	lea    0xe69a(%rip),%rax        # 1f070 <g_121>
   109d6:	48 89 85 48 e3 ff ff 	mov    %rax,-0x1cb8(%rbp)
   109dd:	48 8d 85 48 e3 ff ff 	lea    -0x1cb8(%rbp),%rax
   109e4:	48 89 85 78 e5 ff ff 	mov    %rax,-0x1a88(%rbp)
   109eb:	c7 85 9c e2 ff ff f7 	movl   $0xfffffff7,-0x1d64(%rbp)
   109f2:	ff ff ff 
   109f5:	c7 85 a0 e2 ff ff 04 	movl   $0x4,-0x1d60(%rbp)
   109fc:	00 00 00 
   109ff:	c7 85 a4 e2 ff ff 00 	movl   $0x0,-0x1d5c(%rbp)
   10a06:	00 00 00 
   10a09:	c7 85 a8 e2 ff ff b3 	movl   $0x458defb3,-0x1d58(%rbp)
   10a10:	ef 8d 45 
   10a13:	c7 85 ac e2 ff ff b4 	movl   $0xbda36eb4,-0x1d54(%rbp)
   10a1a:	6e a3 bd 
   10a1d:	c7 85 b0 e2 ff ff ff 	movl   $0xffffffff,-0x1d50(%rbp)
   10a24:	ff ff ff 
   10a27:	c7 85 b4 e2 ff ff 00 	movl   $0x0,-0x1d4c(%rbp)
   10a2e:	00 00 00 
   10a31:	c7 85 a0 e6 ff ff e2 	movl   $0x8e86ae2,-0x1960(%rbp)
   10a38:	6a e8 08 
   10a3b:	c7 85 a4 e6 ff ff 00 	movl   $0x0,-0x195c(%rbp)
   10a42:	00 00 00 
   10a45:	c7 85 a8 e6 ff ff 00 	movl   $0x0,-0x1958(%rbp)
   10a4c:	00 00 00 
   10a4f:	c7 85 ac e6 ff ff e2 	movl   $0x8e86ae2,-0x1954(%rbp)
   10a56:	6a e8 08 
   10a59:	c7 85 b0 e6 ff ff 00 	movl   $0x0,-0x1950(%rbp)
   10a60:	00 00 00 
   10a63:	c7 85 b4 e6 ff ff 00 	movl   $0x0,-0x194c(%rbp)
   10a6a:	00 00 00 
   10a6d:	c7 85 b8 e6 ff ff e2 	movl   $0x8e86ae2,-0x1948(%rbp)
   10a74:	6a e8 08 
   10a77:	c7 85 bc e6 ff ff 00 	movl   $0x0,-0x1944(%rbp)
   10a7e:	00 00 00 
   10a81:	c7 85 10 eb ff ff ff 	movl   $0xffffffff,-0x14f0(%rbp)
   10a88:	ff ff ff 
   10a8b:	c7 85 14 eb ff ff f3 	movl   $0x241cddf3,-0x14ec(%rbp)
   10a92:	dd 1c 24 
   10a95:	c7 85 18 eb ff ff f8 	movl   $0xfffffff8,-0x14e8(%rbp)
   10a9c:	ff ff ff 
   10a9f:	c7 85 1c eb ff ff f3 	movl   $0x241cddf3,-0x14e4(%rbp)
   10aa6:	dd 1c 24 
   10aa9:	c7 85 20 eb ff ff 67 	movl   $0x2e6bb467,-0x14e0(%rbp)
   10ab0:	b4 6b 2e 
   10ab3:	c7 85 24 eb ff ff 00 	movl   $0x0,-0x14dc(%rbp)
   10aba:	00 00 00 
   10abd:	c7 85 28 eb ff ff ff 	movl   $0xffffffff,-0x14d8(%rbp)
   10ac4:	ff ff ff 
   10ac7:	c7 85 2c eb ff ff 67 	movl   $0x2e6bb467,-0x14d4(%rbp)
   10ace:	b4 6b 2e 
   10ad1:	c7 85 30 eb ff ff 01 	movl   $0x1,-0x14d0(%rbp)
   10ad8:	00 00 00 
   10adb:	c7 85 34 eb ff ff fd 	movl   $0xce0d16fd,-0x14cc(%rbp)
   10ae2:	16 0d ce 
   10ae5:	c7 85 38 eb ff ff f3 	movl   $0x241cddf3,-0x14c8(%rbp)
   10aec:	dd 1c 24 
   10aef:	c7 85 3c eb ff ff 00 	movl   $0x0,-0x14c4(%rbp)
   10af6:	00 00 00 
   10af9:	c7 85 40 eb ff ff fd 	movl   $0xce0d16fd,-0x14c0(%rbp)
   10b00:	16 0d ce 
   10b03:	c7 85 44 eb ff ff fd 	movl   $0xce0d16fd,-0x14bc(%rbp)
   10b0a:	16 0d ce 
   10b0d:	c7 85 48 eb ff ff f8 	movl   $0xfffffff8,-0x14b8(%rbp)
   10b14:	ff ff ff 
   10b17:	c7 85 4c eb ff ff ff 	movl   $0xffffffff,-0x14b4(%rbp)
   10b1e:	ff ff ff 
   10b21:	c7 85 50 eb ff ff f3 	movl   $0x241cddf3,-0x14b0(%rbp)
   10b28:	dd 1c 24 
   10b2b:	c7 85 54 eb ff ff f8 	movl   $0xfffffff8,-0x14ac(%rbp)
   10b32:	ff ff ff 
   10b35:	c7 85 58 eb ff ff f3 	movl   $0x241cddf3,-0x14a8(%rbp)
   10b3c:	dd 1c 24 
   10b3f:	c7 85 5c eb ff ff b3 	movl   $0xe1a043b3,-0x14a4(%rbp)
   10b46:	43 a0 e1 
   10b49:	c7 85 60 eb ff ff 67 	movl   $0x2e6bb467,-0x14a0(%rbp)
   10b50:	b4 6b 2e 
   10b53:	c7 85 64 eb ff ff 00 	movl   $0x0,-0x149c(%rbp)
   10b5a:	00 00 00 
   10b5d:	c7 85 68 eb ff ff b3 	movl   $0xe1a043b3,-0x1498(%rbp)
   10b64:	43 a0 e1 
   10b67:	c7 85 6c eb ff ff 3f 	movl   $0x2eaf13f,-0x1494(%rbp)
   10b6e:	f1 ea 02 
   10b71:	c7 85 70 eb ff ff 01 	movl   $0x1,-0x1490(%rbp)
   10b78:	00 00 00 
   10b7b:	c7 85 74 eb ff ff e4 	movl   $0x949a21e4,-0x148c(%rbp)
   10b82:	21 9a 94 
   10b85:	c7 85 78 eb ff ff 67 	movl   $0x2e6bb467,-0x1488(%rbp)
   10b8c:	b4 6b 2e 
   10b8f:	c7 85 7c eb ff ff 01 	movl   $0x1,-0x1484(%rbp)
   10b96:	00 00 00 
   10b99:	c7 85 80 eb ff ff 01 	movl   $0x1,-0x1480(%rbp)
   10ba0:	00 00 00 
   10ba3:	c7 85 84 eb ff ff ff 	movl   $0xffffffff,-0x147c(%rbp)
   10baa:	ff ff ff 
   10bad:	c7 85 88 eb ff ff 00 	movl   $0x0,-0x1478(%rbp)
   10bb4:	00 00 00 
   10bb7:	c7 85 8c eb ff ff e4 	movl   $0x949a21e4,-0x1474(%rbp)
   10bbe:	21 9a 94 
   10bc1:	c7 85 90 eb ff ff ff 	movl   $0xffffffff,-0x1470(%rbp)
   10bc8:	ff ff ff 
   10bcb:	c7 85 94 eb ff ff e4 	movl   $0x949a21e4,-0x146c(%rbp)
   10bd2:	21 9a 94 
   10bd5:	c7 85 98 eb ff ff b3 	movl   $0xe1a043b3,-0x1468(%rbp)
   10bdc:	43 a0 e1 
   10bdf:	c7 85 9c eb ff ff 67 	movl   $0x2e6bb467,-0x1464(%rbp)
   10be6:	b4 6b 2e 
   10be9:	c7 85 a0 eb ff ff 00 	movl   $0x0,-0x1460(%rbp)
   10bf0:	00 00 00 
   10bf3:	c7 85 a4 eb ff ff b3 	movl   $0xe1a043b3,-0x145c(%rbp)
   10bfa:	43 a0 e1 
   10bfd:	c7 85 a8 eb ff ff 3f 	movl   $0x2eaf13f,-0x1458(%rbp)
   10c04:	f1 ea 02 
   10c07:	c7 85 ac eb ff ff 01 	movl   $0x1,-0x1454(%rbp)
   10c0e:	00 00 00 
   10c11:	c7 85 b0 eb ff ff e4 	movl   $0x949a21e4,-0x1450(%rbp)
   10c18:	21 9a 94 
   10c1b:	c7 85 b4 eb ff ff 67 	movl   $0x2e6bb467,-0x144c(%rbp)
   10c22:	b4 6b 2e 
   10c25:	48 c7 85 80 e5 ff ff 	movq   $0x0,-0x1a80(%rbp)
   10c2c:	00 00 00 00 
   10c30:	c7 85 b8 e2 ff ff c0 	movl   $0xa3357fc0,-0x1d48(%rbp)
   10c37:	7f 35 a3 
   10c3a:	48 8d 85 d8 e2 ff ff 	lea    -0x1d28(%rbp),%rax
   10c41:	48 89 85 88 e5 ff ff 	mov    %rax,-0x1a78(%rbp)
   10c48:	c6 85 ce e1 ff ff 2b 	movb   $0x2b,-0x1e32(%rbp)
   10c4f:	c7 85 bc e2 ff ff f7 	movl   $0xfffffff7,-0x1d44(%rbp)
   10c56:	ff ff ff 
   10c59:	48 8d 05 30 e6 00 00 	lea    0xe630(%rip),%rax        # 1f290 <g_551>
   10c60:	48 89 85 90 e5 ff ff 	mov    %rax,-0x1a70(%rbp)
   10c67:	48 8d 85 c6 e1 ff ff 	lea    -0x1e3a(%rbp),%rax
   10c6e:	48 89 85 98 e5 ff ff 	mov    %rax,-0x1a68(%rbp)
   10c75:	48 c7 85 50 e3 ff ff 	movq   $0x0,-0x1cb0(%rbp)
   10c7c:	00 00 00 00 
   10c80:	66 c7 85 50 e3 ff ff 	movw   $0x4,-0x1cb0(%rbp)
   10c87:	04 00 
   10c89:	c7 85 20 e2 ff ff 00 	movl   $0x0,-0x1de0(%rbp)
   10c90:	00 00 00 
   10c93:	eb 14                	jmp    10ca9 <func_24+0xe93>
   10c95:	8b 85 20 e2 ff ff    	mov    -0x1de0(%rbp),%eax
   10c9b:	48 98                	cltq   
   10c9d:	c6 44 05 c7 a9       	movb   $0xa9,-0x39(%rbp,%rax,1)
   10ca2:	83 85 20 e2 ff ff 01 	addl   $0x1,-0x1de0(%rbp)
   10ca9:	83 bd 20 e2 ff ff 00 	cmpl   $0x0,-0x1de0(%rbp)
   10cb0:	7e e3                	jle    10c95 <func_24+0xe7f>
   10cb2:	66 c7 05 f1 e3 00 00 	movw   $0x0,0xe3f1(%rip)        # 1f0ac <g_158>
   10cb9:	00 00 
   10cbb:	e9 a9 0b 00 00       	jmpq   11869 <func_24+0x1a53>
   10cc0:	c6 85 cf e1 ff ff 01 	movb   $0x1,-0x1e31(%rbp)
   10cc7:	48 c7 85 a0 e5 ff ff 	movq   $0x0,-0x1a60(%rbp)
   10cce:	00 00 00 00 
   10cd2:	48 8d 05 d7 e4 00 00 	lea    0xe4d7(%rip),%rax        # 1f1b0 <g_200>
   10cd9:	48 89 85 a8 e5 ff ff 	mov    %rax,-0x1a58(%rbp)
   10ce0:	48 c7 85 b0 e5 ff ff 	movq   $0x0,-0x1a50(%rbp)
   10ce7:	00 00 00 00 
   10ceb:	c7 85 24 e2 ff ff 01 	movl   $0x1,-0x1ddc(%rbp)
   10cf2:	00 00 00 
   10cf5:	48 8d 85 10 e7 ff ff 	lea    -0x18f0(%rbp),%rax
   10cfc:	48 83 c0 30          	add    $0x30,%rax
   10d00:	48 89 85 b8 e5 ff ff 	mov    %rax,-0x1a48(%rbp)
   10d07:	c7 85 d0 e6 ff ff 71 	movl   $0x71717171,-0x1930(%rbp)
   10d0e:	71 71 71 
   10d11:	c7 85 d4 e6 ff ff 71 	movl   $0x71717171,-0x192c(%rbp)
   10d18:	71 71 71 
   10d1b:	c7 85 d8 e6 ff ff 71 	movl   $0x71717171,-0x1928(%rbp)
   10d22:	71 71 71 
   10d25:	c7 85 dc e6 ff ff 71 	movl   $0x71717171,-0x1924(%rbp)
   10d2c:	71 71 71 
   10d2f:	c7 85 e0 e6 ff ff 71 	movl   $0x71717171,-0x1920(%rbp)
   10d36:	71 71 71 
   10d39:	c7 85 e4 e6 ff ff 71 	movl   $0x71717171,-0x191c(%rbp)
   10d40:	71 71 71 
   10d43:	c7 85 e8 e6 ff ff 71 	movl   $0x71717171,-0x1918(%rbp)
   10d4a:	71 71 71 
   10d4d:	c7 85 ec e6 ff ff 71 	movl   $0x71717171,-0x1914(%rbp)
   10d54:	71 71 71 
   10d57:	c7 85 f0 e6 ff ff 71 	movl   $0x71717171,-0x1910(%rbp)
   10d5e:	71 71 71 
   10d61:	c7 85 f4 e6 ff ff 71 	movl   $0x71717171,-0x190c(%rbp)
   10d68:	71 71 71 
   10d6b:	48 8d 85 70 ed ff ff 	lea    -0x1290(%rbp),%rax
   10d72:	48 8d 15 87 aa 00 00 	lea    0xaa87(%rip),%rdx        # 1b800 <g_1219+0x16f0>
   10d79:	b9 1e 00 00 00       	mov    $0x1e,%ecx
   10d7e:	48 89 c7             	mov    %rax,%rdi
   10d81:	48 89 d6             	mov    %rdx,%rsi
   10d84:	f3 48 a5             	rep movsq %ds:(%rsi),%es:(%rdi)
   10d87:	48 89 f2             	mov    %rsi,%rdx
   10d8a:	48 89 f8             	mov    %rdi,%rax
   10d8d:	0f b7 0a             	movzwl (%rdx),%ecx
   10d90:	66 89 08             	mov    %cx,(%rax)
   10d93:	48 8d 40 02          	lea    0x2(%rax),%rax
   10d97:	48 8d 52 02          	lea    0x2(%rdx),%rdx
   10d9b:	0f b6 0a             	movzbl (%rdx),%ecx
   10d9e:	88 08                	mov    %cl,(%rax)
   10da0:	c7 85 c0 e2 ff ff 00 	movl   $0x0,-0x1d40(%rbp)
   10da7:	00 00 00 
   10daa:	48 c7 85 c0 e5 ff ff 	movq   $0x0,-0x1a40(%rbp)
   10db1:	00 00 00 00 
   10db5:	48 c7 85 c8 e5 ff ff 	movq   $0x0,-0x1a38(%rbp)
   10dbc:	00 00 00 00 
   10dc0:	48 8d 85 40 e3 ff ff 	lea    -0x1cc0(%rbp),%rax
   10dc7:	48 89 85 a0 e7 ff ff 	mov    %rax,-0x1860(%rbp)
   10dce:	48 8d 85 a0 e6 ff ff 	lea    -0x1960(%rbp),%rax
   10dd5:	48 83 c0 0c          	add    $0xc,%rax
   10dd9:	48 89 85 a8 e7 ff ff 	mov    %rax,-0x1858(%rbp)
   10de0:	48 8d 85 40 e3 ff ff 	lea    -0x1cc0(%rbp),%rax
   10de7:	48 89 85 b0 e7 ff ff 	mov    %rax,-0x1850(%rbp)
   10dee:	48 8d 85 a0 e6 ff ff 	lea    -0x1960(%rbp),%rax
   10df5:	48 83 c0 0c          	add    $0xc,%rax
   10df9:	48 89 85 b8 e7 ff ff 	mov    %rax,-0x1848(%rbp)
   10e00:	48 8d 85 40 e3 ff ff 	lea    -0x1cc0(%rbp),%rax
   10e07:	48 89 85 c0 e7 ff ff 	mov    %rax,-0x1840(%rbp)
   10e0e:	48 8d 85 a0 e6 ff ff 	lea    -0x1960(%rbp),%rax
   10e15:	48 83 c0 0c          	add    $0xc,%rax
   10e19:	48 89 85 c8 e7 ff ff 	mov    %rax,-0x1838(%rbp)
   10e20:	48 8d 85 40 e3 ff ff 	lea    -0x1cc0(%rbp),%rax
   10e27:	48 89 85 d0 e7 ff ff 	mov    %rax,-0x1830(%rbp)
   10e2e:	48 8d 85 a0 e6 ff ff 	lea    -0x1960(%rbp),%rax
   10e35:	48 83 c0 0c          	add    $0xc,%rax
   10e39:	48 89 85 d8 e7 ff ff 	mov    %rax,-0x1828(%rbp)
   10e40:	48 8d 85 40 e3 ff ff 	lea    -0x1cc0(%rbp),%rax
   10e47:	48 89 85 e0 e7 ff ff 	mov    %rax,-0x1820(%rbp)
   10e4e:	48 8d 85 a0 e6 ff ff 	lea    -0x1960(%rbp),%rax
   10e55:	48 83 c0 0c          	add    $0xc,%rax
   10e59:	48 89 85 e8 e7 ff ff 	mov    %rax,-0x1818(%rbp)
   10e60:	c7 85 c4 e2 ff ff 87 	movl   $0x10e2de87,-0x1d3c(%rbp)
   10e67:	de e2 10 
   10e6a:	c7 85 28 e2 ff ff 00 	movl   $0x0,-0x1dd8(%rbp)
   10e71:	00 00 00 
   10e74:	eb 1a                	jmp    10e90 <func_24+0x107a>
   10e76:	8b 85 28 e2 ff ff    	mov    -0x1dd8(%rbp),%eax
   10e7c:	48 98                	cltq   
   10e7e:	c7 84 85 80 e6 ff ff 	movl   $0x0,-0x1980(%rbp,%rax,4)
   10e85:	00 00 00 00 
   10e89:	83 85 28 e2 ff ff 01 	addl   $0x1,-0x1dd8(%rbp)
   10e90:	83 bd 28 e2 ff ff 00 	cmpl   $0x0,-0x1dd8(%rbp)
   10e97:	7e dd                	jle    10e76 <func_24+0x1060>
   10e99:	48 c7 85 d0 e5 ff ff 	movq   $0x0,-0x1a30(%rbp)
   10ea0:	00 00 00 00 
   10ea4:	48 8d 85 f0 ee ff ff 	lea    -0x1110(%rbp),%rax
   10eab:	48 8d 15 ae f3 00 00 	lea    0xf3ae(%rip),%rdx        # 20260 <g_2403+0xa78>
   10eb2:	b9 24 00 00 00       	mov    $0x24,%ecx
   10eb7:	48 89 c7             	mov    %rax,%rdi
   10eba:	48 89 d6             	mov    %rdx,%rsi
   10ebd:	f3 48 a5             	rep movsq %ds:(%rsi),%es:(%rdi)
   10ec0:	48 8d 05 aa e1 00 00 	lea    0xe1aa(%rip),%rax        # 1f071 <g_121+0x1>
   10ec7:	48 89 85 58 e3 ff ff 	mov    %rax,-0x1ca8(%rbp)
   10ece:	48 c7 85 60 e3 ff ff 	movq   $0x0,-0x1ca0(%rbp)
   10ed5:	00 00 00 00 
   10ed9:	48 8d 85 60 e3 ff ff 	lea    -0x1ca0(%rbp),%rax
   10ee0:	48 89 85 d8 e5 ff ff 	mov    %rax,-0x1a28(%rbp)
   10ee7:	c7 85 c8 e2 ff ff 6b 	movl   $0xd5d53d6b,-0x1d38(%rbp)
   10eee:	3d d5 d5 
   10ef1:	48 8d 05 68 e1 00 00 	lea    0xe168(%rip),%rax        # 1f060 <g_77>
   10ef8:	48 89 85 e0 e5 ff ff 	mov    %rax,-0x1a20(%rbp)
   10eff:	c7 05 a7 e2 00 00 ec 	movl   $0xffffffec,0xe2a7(%rip)        # 1f1b0 <g_200>
   10f06:	ff ff ff 
   10f09:	e9 26 09 00 00       	jmpq   11834 <func_24+0x1a1e>
   10f0e:	c6 85 38 e3 ff ff ff 	movb   $0xff,-0x1cc8(%rbp)
   10f15:	c7 85 cc e2 ff ff 01 	movl   $0x1,-0x1d34(%rbp)
   10f1c:	00 00 00 
   10f1f:	48 8d 85 58 e3 ff ff 	lea    -0x1ca8(%rbp),%rax
   10f26:	48 89 85 e8 e5 ff ff 	mov    %rax,-0x1a18(%rbp)
   10f2d:	c7 85 d0 e2 ff ff 34 	movl   $0xa5422634,-0x1d30(%rbp)
   10f34:	26 42 a5 
   10f37:	48 8d 05 8a e2 00 00 	lea    0xe28a(%rip),%rax        # 1f1c8 <g_418>
   10f3e:	48 89 85 f0 e5 ff ff 	mov    %rax,-0x1a10(%rbp)
   10f45:	48 8d 05 18 e1 00 00 	lea    0xe118(%rip),%rax        # 1f064 <g_90>
   10f4c:	48 89 85 f8 e5 ff ff 	mov    %rax,-0x1a08(%rbp)
   10f53:	48 8d 05 72 e2 00 00 	lea    0xe272(%rip),%rax        # 1f1cc <g_422>
   10f5a:	48 89 85 00 e6 ff ff 	mov    %rax,-0x1a00(%rbp)
   10f61:	48 c7 85 08 e6 ff ff 	movq   $0x0,-0x19f8(%rbp)
   10f68:	00 00 00 00 
   10f6c:	48 8d 85 d8 e1 ff ff 	lea    -0x1e28(%rbp),%rax
   10f73:	48 89 85 10 e6 ff ff 	mov    %rax,-0x19f0(%rbp)
   10f7a:	48 c7 85 80 e3 ff ff 	movq   $0xb,-0x1c80(%rbp)
   10f81:	0b 00 00 00 
   10f85:	e9 c7 01 00 00       	jmpq   11151 <func_24+0x133b>
   10f8a:	48 c7 85 30 e6 ff ff 	movq   $0x0,-0x19d0(%rbp)
   10f91:	00 00 00 00 
   10f95:	48 c7 85 38 e6 ff ff 	movq   $0x0,-0x19c8(%rbp)
   10f9c:	00 00 00 00 
   10fa0:	48 8d 85 50 e9 ff ff 	lea    -0x16b0(%rbp),%rax
   10fa7:	48 05 c8 00 00 00    	add    $0xc8,%rax
   10fad:	48 89 85 40 e6 ff ff 	mov    %rax,-0x19c0(%rbp)
   10fb4:	48 8d 05 95 04 01 00 	lea    0x10495(%rip),%rax        # 21450 <g_69>
   10fbb:	48 89 85 48 e6 ff ff 	mov    %rax,-0x19b8(%rbp)
   10fc2:	48 c7 85 50 e6 ff ff 	movq   $0x0,-0x19b0(%rbp)
   10fc9:	00 00 00 00 
   10fcd:	48 8d 05 f8 e1 00 00 	lea    0xe1f8(%rip),%rax        # 1f1cc <g_422>
   10fd4:	48 89 85 58 e6 ff ff 	mov    %rax,-0x19a8(%rbp)
   10fdb:	48 8b 85 68 e5 ff ff 	mov    -0x1a98(%rbp),%rax
   10fe2:	48 3b 85 a0 e5 ff ff 	cmp    -0x1a60(%rbp),%rax
   10fe9:	0f 95 c0             	setne  %al
   10fec:	0f b6 d0             	movzbl %al,%edx
   10fef:	48 8b 85 40 e6 ff ff 	mov    -0x19c0(%rbp),%rax
   10ff6:	89 10                	mov    %edx,(%rax)
   10ff8:	48 83 bd d0 e5 ff ff 	cmpq   $0x0,-0x1a30(%rbp)
   10fff:	00 
   11000:	0f 85 2e 01 00 00    	jne    11134 <func_24+0x131e>
   11006:	48 8b 85 58 e6 ff ff 	mov    -0x19a8(%rbp),%rax
   1100d:	0f b7 00             	movzwl (%rax),%eax
   11010:	8d 50 01             	lea    0x1(%rax),%edx
   11013:	48 8b 85 58 e6 ff ff 	mov    -0x19a8(%rbp),%rax
   1101a:	66 89 10             	mov    %dx,(%rax)
   1101d:	48 8b 85 58 e7 ff ff 	mov    -0x18a8(%rbp),%rax
   11024:	48 85 c0             	test   %rax,%rax
   11027:	0f 95 c0             	setne  %al
   1102a:	0f b6 c0             	movzbl %al,%eax
   1102d:	be 01 00 00 00       	mov    $0x1,%esi
   11032:	89 c7                	mov    %eax,%edi
   11034:	e8 3f 7b ff ff       	callq  8b78 <safe_sub_func_uint8_t_u_u>
   11039:	0f b6 d0             	movzbl %al,%edx
   1103c:	0f b7 05 2f e0 00 00 	movzwl 0xe02f(%rip),%eax        # 1f072 <g_121+0x2>
   11043:	0f b7 c0             	movzwl %ax,%eax
   11046:	89 d6                	mov    %edx,%esi
   11048:	89 c7                	mov    %eax,%edi
   1104a:	e8 b0 7c ff ff       	callq  8cff <safe_add_func_uint16_t_u_u>
   1104f:	66 83 f8 6b          	cmp    $0x6b,%ax
   11053:	0f 96 c0             	setbe  %al
   11056:	0f b6 c0             	movzbl %al,%eax
   11059:	0b 85 98 e2 ff ff    	or     -0x1d68(%rbp),%eax
   1105f:	89 c3                	mov    %eax,%ebx
   11061:	48 8b 85 e0 e2 ff ff 	mov    -0x1d20(%rbp),%rax
   11068:	48 39 85 48 e6 ff ff 	cmp    %rax,-0x19b8(%rbp)
   1106f:	0f 95 c0             	setne  %al
   11072:	0f b6 c0             	movzbl %al,%eax
   11075:	be 05 00 00 00       	mov    $0x5,%esi
   1107a:	89 c7                	mov    %eax,%edi
   1107c:	e8 3d 7c ff ff       	callq  8cbe <safe_rshift_func_uint8_t_u_u>
   11081:	0f b6 c0             	movzbl %al,%eax
   11084:	89 de                	mov    %ebx,%esi
   11086:	89 c7                	mov    %eax,%edi
   11088:	e8 3f 76 ff ff       	callq  86cc <safe_mod_func_int32_t_s_s>
   1108d:	0f b7 95 ac e1 ff ff 	movzwl -0x1e54(%rbp),%edx
   11094:	0f bf d2             	movswl %dx,%edx
   11097:	31 d0                	xor    %edx,%eax
   11099:	48 63 d0             	movslq %eax,%rdx
   1109c:	0f b7 05 bf df 00 00 	movzwl 0xdfbf(%rip),%eax        # 1f062 <g_84>
   110a3:	48 0f bf c0          	movswq %ax,%rax
   110a7:	48 89 d6             	mov    %rdx,%rsi
   110aa:	48 89 c7             	mov    %rax,%rdi
   110ad:	e8 f6 77 ff ff       	callq  88a8 <safe_sub_func_int64_t_s_s>
   110b2:	48 8b 95 40 e6 ff ff 	mov    -0x19c0(%rbp),%rdx
   110b9:	8b 12                	mov    (%rdx),%edx
   110bb:	09 c2                	or     %eax,%edx
   110bd:	48 8b 85 40 e6 ff ff 	mov    -0x19c0(%rbp),%rax
   110c4:	89 10                	mov    %edx,(%rax)
   110c6:	8b 05 5c df 00 00    	mov    0xdf5c(%rip),%eax        # 1f028 <g_5>
   110cc:	0f bf d8             	movswl %ax,%ebx
   110cf:	0f bf 95 b8 e1 ff ff 	movswl -0x1e48(%rbp),%edx
   110d6:	8b 85 cc e2 ff ff    	mov    -0x1d34(%rbp),%eax
   110dc:	89 d6                	mov    %edx,%esi
   110de:	89 c7                	mov    %eax,%edi
   110e0:	e8 eb 7d ff ff       	callq  8ed0 <safe_sub_func_uint32_t_u_u>
   110e5:	89 c1                	mov    %eax,%ecx
   110e7:	0f b6 85 38 e3 ff ff 	movzbl -0x1cc8(%rbp),%eax
   110ee:	8d 50 ff             	lea    -0x1(%rax),%edx
   110f1:	88 95 38 e3 ff ff    	mov    %dl,-0x1cc8(%rbp)
   110f7:	0f b6 c0             	movzbl %al,%eax
   110fa:	89 ce                	mov    %ecx,%esi
   110fc:	89 c7                	mov    %eax,%edi
   110fe:	e8 cd 7d ff ff       	callq  8ed0 <safe_sub_func_uint32_t_u_u>
   11103:	8b 15 33 df 00 00    	mov    0xdf33(%rip),%edx        # 1f03c <g_62+0x4>
   11109:	39 d0                	cmp    %edx,%eax
   1110b:	0f 92 c0             	setb   %al
   1110e:	0f b6 c0             	movzbl %al,%eax
   11111:	89 de                	mov    %ebx,%esi
   11113:	89 c7                	mov    %eax,%edi
   11115:	e8 db 72 ff ff       	callq  83f5 <safe_mul_func_int16_t_s_s>
   1111a:	0f b6 85 cf e1 ff ff 	movzbl -0x1e31(%rbp),%eax
   11121:	33 85 b4 e1 ff ff    	xor    -0x1e4c(%rbp),%eax
   11127:	89 c2                	mov    %eax,%edx
   11129:	48 8b 85 40 e6 ff ff 	mov    -0x19c0(%rbp),%rax
   11130:	89 10                	mov    %edx,(%rax)
   11132:	eb 01                	jmp    11135 <func_24+0x131f>
   11134:	90                   	nop
   11135:	48 8b 85 80 e3 ff ff 	mov    -0x1c80(%rbp),%rax
   1113c:	be 01 00 00 00       	mov    $0x1,%esi
   11141:	89 c7                	mov    %eax,%edi
   11143:	e8 70 7d ff ff       	callq  8eb8 <safe_add_func_uint32_t_u_u>
   11148:	89 c0                	mov    %eax,%eax
   1114a:	48 89 85 80 e3 ff ff 	mov    %rax,-0x1c80(%rbp)
   11151:	48 83 bd 80 e3 ff ff 	cmpq   $0xa,-0x1c80(%rbp)
   11158:	0a 
   11159:	0f 86 2b fe ff ff    	jbe    10f8a <func_24+0x1174>
   1115f:	48 8b 05 ca de 00 00 	mov    0xdeca(%rip),%rax        # 1f030 <g_39>
   11166:	0f b7 d8             	movzwl %ax,%ebx
   11169:	48 8b 95 58 e3 ff ff 	mov    -0x1ca8(%rbp),%rdx
   11170:	48 8b 85 e8 e5 ff ff 	mov    -0x1a18(%rbp),%rax
   11177:	48 89 10             	mov    %rdx,(%rax)
   1117a:	48 8b 85 e8 e5 ff ff 	mov    -0x1a18(%rbp),%rax
   11181:	48 8b 10             	mov    (%rax),%rdx
   11184:	48 8d 85 38 e3 ff ff 	lea    -0x1cc8(%rbp),%rax
   1118b:	48 39 c2             	cmp    %rax,%rdx
   1118e:	75 3e                	jne    111ce <func_24+0x13b8>
   11190:	0f b7 05 07 df 00 00 	movzwl 0xdf07(%rip),%eax        # 1f09e <g_140+0xe>
   11197:	0f b6 d0             	movzbl %al,%edx
   1119a:	0f b7 85 ac e1 ff ff 	movzwl -0x1e54(%rbp),%eax
   111a1:	0f b6 c0             	movzbl %al,%eax
   111a4:	89 d6                	mov    %edx,%esi
   111a6:	89 c7                	mov    %eax,%edi
   111a8:	e8 2e 7a ff ff       	callq  8bdb <safe_div_func_uint8_t_u_u>
   111ad:	0f b6 d0             	movzbl %al,%edx
   111b0:	0f b6 85 cf e1 ff ff 	movzbl -0x1e31(%rbp),%eax
   111b7:	39 85 b0 e1 ff ff    	cmp    %eax,-0x1e50(%rbp)
   111bd:	0f 95 c0             	setne  %al
   111c0:	0f b6 c0             	movzbl %al,%eax
   111c3:	39 c2                	cmp    %eax,%edx
   111c5:	7c 07                	jl     111ce <func_24+0x13b8>
   111c7:	b8 01 00 00 00       	mov    $0x1,%eax
   111cc:	eb 05                	jmp    111d3 <func_24+0x13bd>
   111ce:	b8 00 00 00 00       	mov    $0x0,%eax
   111d3:	98                   	cwtl   
   111d4:	89 c6                	mov    %eax,%esi
   111d6:	bf 00 00 00 00       	mov    $0x0,%edi
   111db:	e8 75 72 ff ff       	callq  8455 <safe_div_func_int16_t_s_s>
   111e0:	66 85 c0             	test   %ax,%ax
   111e3:	74 0a                	je     111ef <func_24+0x13d9>
   111e5:	0f b7 85 ac e1 ff ff 	movzwl -0x1e54(%rbp),%eax
   111ec:	66 85 c0             	test   %ax,%ax
   111ef:	48 8b 05 32 07 01 00 	mov    0x10732(%rip),%rax        # 21928 <g_359>
   111f6:	48 8b 00             	mov    (%rax),%rax
   111f9:	48 39 85 a8 e5 ff ff 	cmp    %rax,-0x1a58(%rbp)
   11200:	0f 94 c0             	sete   %al
   11203:	0f b6 c0             	movzbl %al,%eax
   11206:	89 de                	mov    %ebx,%esi
   11208:	89 c7                	mov    %eax,%edi
   1120a:	e8 10 7b ff ff       	callq  8d1f <safe_sub_func_uint16_t_u_u>
   1120f:	0f b7 d0             	movzwl %ax,%edx
   11212:	8b 85 bc e1 ff ff    	mov    -0x1e44(%rbp),%eax
   11218:	0f b7 c0             	movzwl %ax,%eax
   1121b:	89 d6                	mov    %edx,%esi
   1121d:	89 c7                	mov    %eax,%edi
   1121f:	e8 56 7c ff ff       	callq  8e7a <safe_rshift_func_uint16_t_u_u>
   11224:	66 85 c0             	test   %ax,%ax
   11227:	74 07                	je     11230 <func_24+0x141a>
   11229:	b8 01 00 00 00       	mov    $0x1,%eax
   1122e:	eb 05                	jmp    11235 <func_24+0x141f>
   11230:	b8 00 00 00 00       	mov    $0x0,%eax
   11235:	0f b6 c0             	movzbl %al,%eax
   11238:	be 07 00 00 00       	mov    $0x7,%esi
   1123d:	89 c7                	mov    %eax,%edi
   1123f:	e8 7a 7a ff ff       	callq  8cbe <safe_rshift_func_uint8_t_u_u>
   11244:	84 c0                	test   %al,%al
   11246:	0f 84 cc 01 00 00    	je     11418 <func_24+0x1602>
   1124c:	48 c7 85 28 e6 ff ff 	movq   $0x0,-0x19d8(%rbp)
   11253:	00 00 00 00 
   11257:	c7 85 d4 e2 ff ff fc 	movl   $0x55fdb0fc,-0x1d2c(%rbp)
   1125e:	b0 fd 55 
   11261:	48 8d 85 40 f8 ff ff 	lea    -0x7c0(%rbp),%rax
   11268:	48 8d 15 11 f1 00 00 	lea    0xf111(%rip),%rdx        # 20380 <g_2403+0xb98>
   1126f:	b9 f0 00 00 00       	mov    $0xf0,%ecx
   11274:	48 89 c7             	mov    %rax,%rdi
   11277:	48 89 d6             	mov    %rdx,%rsi
   1127a:	f3 48 a5             	rep movsq %ds:(%rsi),%es:(%rdi)
   1127d:	0f b7 85 ac e1 ff ff 	movzwl -0x1e54(%rbp),%eax
   11284:	66 85 c0             	test   %ax,%ax
   11287:	0f 85 b8 05 00 00    	jne    11845 <func_24+0x1a2f>
   1128d:	48 8b 85 28 e6 ff ff 	mov    -0x19d8(%rbp),%rax
   11294:	48 89 85 d8 e5 ff ff 	mov    %rax,-0x1a28(%rbp)
   1129b:	48 83 bd d8 e5 ff ff 	cmpq   $0x0,-0x1a28(%rbp)
   112a2:	00 
   112a3:	0f 95 c0             	setne  %al
   112a6:	0f b6 c0             	movzbl %al,%eax
   112a9:	89 85 a8 e1 ff ff    	mov    %eax,-0x1e58(%rbp)
   112af:	0f b7 05 c8 dd 00 00 	movzwl 0xddc8(%rip),%eax        # 1f07e <g_121+0xe>
   112b6:	0f b6 d8             	movzbl %al,%ebx
   112b9:	0f b7 85 ac e1 ff ff 	movzwl -0x1e54(%rbp),%eax
   112c0:	44 0f bf e0          	movswl %ax,%r12d
   112c4:	0f b7 05 e1 dd 00 00 	movzwl 0xdde1(%rip),%eax        # 1f0ac <g_158>
   112cb:	44 0f be e8          	movsbl %al,%r13d
   112cf:	48 8b 05 92 01 01 00 	mov    0x10192(%rip),%rax        # 21468 <g_83>
   112d6:	0f b7 00             	movzwl (%rax),%eax
   112d9:	44 0f bf f0          	movswl %ax,%r14d
   112dd:	8b 85 d4 e2 ff ff    	mov    -0x1d2c(%rbp),%eax
   112e3:	66 89 05 76 dd 00 00 	mov    %ax,0xdd76(%rip)        # 1f060 <g_77>
   112ea:	8b 85 40 e3 ff ff    	mov    -0x1cc0(%rbp),%eax
   112f0:	44 0f be f8          	movsbl %al,%r15d
   112f4:	48 83 bd b0 e5 ff ff 	cmpq   $0x0,-0x1a50(%rbp)
   112fb:	00 
   112fc:	0f 95 c0             	setne  %al
   112ff:	0f b6 f0             	movzbl %al,%esi
   11302:	89 b5 a4 e1 ff ff    	mov    %esi,-0x1e5c(%rbp)
   11308:	48 8b 85 d0 e5 ff ff 	mov    -0x1a30(%rbp),%rax
   1130f:	83 c8 fd             	or     $0xfffffffd,%eax
   11312:	0f b6 c0             	movzbl %al,%eax
   11315:	be 00 00 00 00       	mov    $0x0,%esi
   1131a:	89 c7                	mov    %eax,%edi
   1131c:	e8 9d 79 ff ff       	callq  8cbe <safe_rshift_func_uint8_t_u_u>
   11321:	0f b6 c0             	movzbl %al,%eax
   11324:	39 85 a4 e1 ff ff    	cmp    %eax,-0x1e5c(%rbp)
   1132a:	0f 94 c0             	sete   %al
   1132d:	0f b6 c0             	movzbl %al,%eax
   11330:	44 89 fe             	mov    %r15d,%esi
   11333:	89 c7                	mov    %eax,%edi
   11335:	e8 d8 6e ff ff       	callq  8212 <safe_mul_func_int8_t_s_s>
   1133a:	0f be d0             	movsbl %al,%edx
   1133d:	8b 85 b0 e1 ff ff    	mov    -0x1e50(%rbp),%eax
   11343:	98                   	cwtl   
   11344:	89 d6                	mov    %edx,%esi
   11346:	89 c7                	mov    %eax,%edi
   11348:	e8 86 70 ff ff       	callq  83d3 <safe_sub_func_int16_t_s_s>
   1134d:	0f b7 05 06 df 00 00 	movzwl 0xdf06(%rip),%eax        # 1f25a <g_437+0x7a>
   11354:	48 8b 95 d0 e5 ff ff 	mov    -0x1a30(%rbp),%rdx
   1135b:	31 d0                	xor    %edx,%eax
   1135d:	98                   	cwtl   
   1135e:	44 89 f6             	mov    %r14d,%esi
   11361:	89 c7                	mov    %eax,%edi
   11363:	e8 ae 70 ff ff       	callq  8416 <safe_mod_func_int16_t_s_s>
   11368:	48 8b 85 58 e3 ff ff 	mov    -0x1ca8(%rbp),%rax
   1136f:	c6 00 01             	movb   $0x1,(%rax)
   11372:	44 89 ee             	mov    %r13d,%esi
   11375:	bf fe ff ff ff       	mov    $0xfffffffe,%edi
   1137a:	e8 eb 6e ff ff       	callq  826a <safe_div_func_int8_t_s_s>
   1137f:	0f be c0             	movsbl %al,%eax
   11382:	44 89 e6             	mov    %r12d,%esi
   11385:	89 c7                	mov    %eax,%edi
   11387:	e8 2a 72 ff ff       	callq  85b6 <safe_add_func_int32_t_s_s>
   1138c:	89 c2                	mov    %eax,%edx
   1138e:	48 8b 05 8b 05 01 00 	mov    0x1058b(%rip),%rax        # 21920 <g_360>
   11395:	8b 00                	mov    (%rax),%eax
   11397:	39 c2                	cmp    %eax,%edx
   11399:	0f 93 c0             	setae  %al
   1139c:	0f b6 c0             	movzbl %al,%eax
   1139f:	39 85 b4 e1 ff ff    	cmp    %eax,-0x1e4c(%rbp)
   113a5:	0f 9d c0             	setge  %al
   113a8:	0f b6 c0             	movzbl %al,%eax
   113ab:	be 06 00 00 00       	mov    $0x6,%esi
   113b0:	89 c7                	mov    %eax,%edi
   113b2:	e8 1c 70 ff ff       	callq  83d3 <safe_sub_func_int16_t_s_s>
   113b7:	66 83 f8 07          	cmp    $0x7,%ax
   113bb:	0f 97 c0             	seta   %al
   113be:	0f b6 c0             	movzbl %al,%eax
   113c1:	89 de                	mov    %ebx,%esi
   113c3:	89 c7                	mov    %eax,%edi
   113c5:	e8 c9 77 ff ff       	callq  8b93 <safe_mul_func_uint8_t_u_u>
   113ca:	0f b6 d0             	movzbl %al,%edx
   113cd:	0f b7 05 f8 dd 00 00 	movzwl 0xddf8(%rip),%eax        # 1f1cc <g_422>
   113d4:	66 39 c2             	cmp    %ax,%dx
   113d7:	0f 95 c0             	setne  %al
   113da:	0f b6 c0             	movzbl %al,%eax
   113dd:	39 85 a8 e1 ff ff    	cmp    %eax,-0x1e58(%rbp)
   113e3:	8b 85 cc e2 ff ff    	mov    -0x1d34(%rbp),%eax
   113e9:	48 39 85 d0 e5 ff ff 	cmp    %rax,-0x1a30(%rbp)
   113f0:	0f 96 c0             	setbe  %al
   113f3:	0f b6 c0             	movzbl %al,%eax
   113f6:	31 85 d0 e2 ff ff    	xor    %eax,-0x1d30(%rbp)
   113fc:	c7 85 c8 e2 ff ff fb 	movl   $0xfffffffb,-0x1d38(%rbp)
   11403:	ff ff ff 
   11406:	83 bd b4 e1 ff ff 00 	cmpl   $0x0,-0x1e4c(%rbp)
   1140d:	0f 84 77 02 00 00    	je     1168a <func_24+0x1874>
   11413:	e9 fe 03 00 00       	jmpq   11816 <func_24+0x1a00>
   11418:	48 c7 85 18 e6 ff ff 	movq   $0x0,-0x19e8(%rbp)
   1141f:	00 00 00 00 
   11423:	c7 85 40 f8 ff ff 29 	movl   $0x85cf5d29,-0x7c0(%rbp)
   1142a:	5d cf 85 
   1142d:	c7 85 44 f8 ff ff 8e 	movl   $0x5927678e,-0x7bc(%rbp)
   11434:	67 27 59 
   11437:	c7 85 48 f8 ff ff 29 	movl   $0x85cf5d29,-0x7b8(%rbp)
   1143e:	5d cf 85 
   11441:	c7 85 4c f8 ff ff 08 	movl   $0x8,-0x7b4(%rbp)
   11448:	00 00 00 
   1144b:	c7 85 50 f8 ff ff 29 	movl   $0x85cf5d29,-0x7b0(%rbp)
   11452:	5d cf 85 
   11455:	c7 85 54 f8 ff ff 8e 	movl   $0x5927678e,-0x7ac(%rbp)
   1145c:	67 27 59 
   1145f:	c7 85 58 f8 ff ff 29 	movl   $0x85cf5d29,-0x7a8(%rbp)
   11466:	5d cf 85 
   11469:	c7 85 5c f8 ff ff 08 	movl   $0x8,-0x7a4(%rbp)
   11470:	00 00 00 
   11473:	c7 85 60 f8 ff ff 29 	movl   $0x85cf5d29,-0x7a0(%rbp)
   1147a:	5d cf 85 
   1147d:	c7 85 64 f8 ff ff 8e 	movl   $0x5927678e,-0x79c(%rbp)
   11484:	67 27 59 
   11487:	c7 85 68 f8 ff ff f7 	movl   $0xfffffff7,-0x798(%rbp)
   1148e:	ff ff ff 
   11491:	c7 85 6c f8 ff ff 08 	movl   $0x8,-0x794(%rbp)
   11498:	00 00 00 
   1149b:	c7 85 70 f8 ff ff bf 	movl   $0x411e5fbf,-0x790(%rbp)
   114a2:	5f 1e 41 
   114a5:	c7 85 74 f8 ff ff 08 	movl   $0x8,-0x78c(%rbp)
   114ac:	00 00 00 
   114af:	c7 85 78 f8 ff ff f7 	movl   $0xfffffff7,-0x788(%rbp)
   114b6:	ff ff ff 
   114b9:	c7 85 7c f8 ff ff 08 	movl   $0x8,-0x784(%rbp)
   114c0:	00 00 00 
   114c3:	c7 85 80 f8 ff ff bf 	movl   $0x411e5fbf,-0x780(%rbp)
   114ca:	5f 1e 41 
   114cd:	c7 85 84 f8 ff ff 08 	movl   $0x8,-0x77c(%rbp)
   114d4:	00 00 00 
   114d7:	c7 85 88 f8 ff ff f7 	movl   $0xfffffff7,-0x778(%rbp)
   114de:	ff ff ff 
   114e1:	c7 85 8c f8 ff ff 08 	movl   $0x8,-0x774(%rbp)
   114e8:	00 00 00 
   114eb:	c7 85 90 f8 ff ff 29 	movl   $0x85cf5d29,-0x770(%rbp)
   114f2:	5d cf 85 
   114f5:	c7 85 94 f8 ff ff 08 	movl   $0x8,-0x76c(%rbp)
   114fc:	00 00 00 
   114ff:	c7 85 98 f8 ff ff 29 	movl   $0x85cf5d29,-0x768(%rbp)
   11506:	5d cf 85 
   11509:	c7 85 9c f8 ff ff 8e 	movl   $0x5927678e,-0x764(%rbp)
   11510:	67 27 59 
   11513:	c7 85 a0 f8 ff ff 29 	movl   $0x85cf5d29,-0x760(%rbp)
   1151a:	5d cf 85 
   1151d:	c7 85 a4 f8 ff ff 08 	movl   $0x8,-0x75c(%rbp)
   11524:	00 00 00 
   11527:	c7 85 a8 f8 ff ff 29 	movl   $0x85cf5d29,-0x758(%rbp)
   1152e:	5d cf 85 
   11531:	c7 85 ac f8 ff ff 8e 	movl   $0x5927678e,-0x754(%rbp)
   11538:	67 27 59 
   1153b:	c7 85 b0 f8 ff ff 29 	movl   $0x85cf5d29,-0x750(%rbp)
   11542:	5d cf 85 
   11545:	c7 85 b4 f8 ff ff 08 	movl   $0x8,-0x74c(%rbp)
   1154c:	00 00 00 
   1154f:	c7 85 b8 f8 ff ff f7 	movl   $0xfffffff7,-0x748(%rbp)
   11556:	ff ff ff 
   11559:	c7 85 bc f8 ff ff 8e 	movl   $0x5927678e,-0x744(%rbp)
   11560:	67 27 59 
   11563:	c7 85 c0 f8 ff ff bf 	movl   $0x411e5fbf,-0x740(%rbp)
   1156a:	5f 1e 41 
   1156d:	c7 85 c4 f8 ff ff 8e 	movl   $0x5927678e,-0x73c(%rbp)
   11574:	67 27 59 
   11577:	c7 85 c8 f8 ff ff f7 	movl   $0xfffffff7,-0x738(%rbp)
   1157e:	ff ff ff 
   11581:	c7 85 cc f8 ff ff 8e 	movl   $0x5927678e,-0x734(%rbp)
   11588:	67 27 59 
   1158b:	c7 85 d0 f8 ff ff bf 	movl   $0x411e5fbf,-0x730(%rbp)
   11592:	5f 1e 41 
   11595:	c7 85 d4 f8 ff ff 8e 	movl   $0x5927678e,-0x72c(%rbp)
   1159c:	67 27 59 
   1159f:	c7 85 d8 f8 ff ff f7 	movl   $0xfffffff7,-0x728(%rbp)
   115a6:	ff ff ff 
   115a9:	c7 85 dc f8 ff ff 8e 	movl   $0x5927678e,-0x724(%rbp)
   115b0:	67 27 59 
   115b3:	c7 85 e0 f8 ff ff 29 	movl   $0x85cf5d29,-0x720(%rbp)
   115ba:	5d cf 85 
   115bd:	c7 85 e4 f8 ff ff 8e 	movl   $0x5927678e,-0x71c(%rbp)
   115c4:	67 27 59 
   115c7:	c7 85 e8 f8 ff ff 29 	movl   $0x85cf5d29,-0x718(%rbp)
   115ce:	5d cf 85 
   115d1:	c7 85 ec f8 ff ff 08 	movl   $0x8,-0x714(%rbp)
   115d8:	00 00 00 
   115db:	c7 85 f0 f8 ff ff 29 	movl   $0x85cf5d29,-0x710(%rbp)
   115e2:	5d cf 85 
   115e5:	c7 85 f4 f8 ff ff 8e 	movl   $0x5927678e,-0x70c(%rbp)
   115ec:	67 27 59 
   115ef:	c7 85 f8 f8 ff ff 29 	movl   $0x85cf5d29,-0x708(%rbp)
   115f6:	5d cf 85 
   115f9:	c7 85 fc f8 ff ff 08 	movl   $0x8,-0x704(%rbp)
   11600:	00 00 00 
   11603:	c7 85 00 f9 ff ff 29 	movl   $0x85cf5d29,-0x700(%rbp)
   1160a:	5d cf 85 
   1160d:	c7 85 04 f9 ff ff 8e 	movl   $0x5927678e,-0x6fc(%rbp)
   11614:	67 27 59 
   11617:	48 c7 85 68 e3 ff ff 	movq   $0x0,-0x1c98(%rbp)
   1161e:	00 00 00 00 
   11622:	66 c7 85 68 e3 ff ff 	movw   $0x6,-0x1c98(%rbp)
   11629:	06 00 
   1162b:	48 8d 85 68 e3 ff ff 	lea    -0x1c98(%rbp),%rax
   11632:	48 89 85 20 e6 ff ff 	mov    %rax,-0x19e0(%rbp)
   11639:	0f b7 85 ac e1 ff ff 	movzwl -0x1e54(%rbp),%eax
   11640:	66 85 c0             	test   %ax,%ax
   11643:	0f 85 ff 01 00 00    	jne    11848 <func_24+0x1a32>
   11649:	8b 85 98 f8 ff ff    	mov    -0x768(%rbp),%eax
   1164f:	48 8b 95 18 e6 ff ff 	mov    -0x19e8(%rbp),%rdx
   11656:	31 d0                	xor    %edx,%eax
   11658:	89 85 98 f8 ff ff    	mov    %eax,-0x768(%rbp)
   1165e:	66 83 bd b8 e1 ff ff 	cmpw   $0x0,-0x1e48(%rbp)
   11665:	00 
   11666:	0f 85 df 01 00 00    	jne    1184b <func_24+0x1a35>
   1166c:	48 8b 05 e5 fd 00 00 	mov    0xfde5(%rip),%rax        # 21458 <g_68>
   11673:	48 8b 00             	mov    (%rax),%rax
   11676:	48 8b 95 a8 e5 ff ff 	mov    -0x1a58(%rbp),%rdx
   1167d:	48 89 10             	mov    %rdx,(%rax)
   11680:	48 8b 00             	mov    (%rax),%rax
   11683:	48 89 85 20 e6 ff ff 	mov    %rax,-0x19e0(%rbp)
   1168a:	0f b7 05 1b da 00 00 	movzwl 0xda1b(%rip),%eax        # 1f0ac <g_158>
   11691:	66 85 c0             	test   %ax,%ax
   11694:	0f 85 3f 01 00 00    	jne    117d9 <func_24+0x19c3>
   1169a:	8b 05 a0 d9 00 00    	mov    0xd9a0(%rip),%eax        # 1f040 <g_62+0x8>
   116a0:	0f be d8             	movsbl %al,%ebx
   116a3:	44 0f bf a5 b8 e1 ff 	movswl -0x1e48(%rbp),%r12d
   116aa:	ff 
   116ab:	8b 85 40 e3 ff ff    	mov    -0x1cc0(%rbp),%eax
   116b1:	44 0f b6 e8          	movzbl %al,%r13d
   116b5:	48 8b 85 58 e3 ff ff 	mov    -0x1ca8(%rbp),%rax
   116bc:	0f b6 10             	movzbl (%rax),%edx
   116bf:	83 c2 01             	add    $0x1,%edx
   116c2:	88 10                	mov    %dl,(%rax)
   116c4:	0f b7 05 a7 d9 00 00 	movzwl 0xd9a7(%rip),%eax        # 1f072 <g_121+0x2>
   116cb:	0f b7 d0             	movzwl %ax,%edx
   116ce:	0f b7 85 b8 e1 ff ff 	movzwl -0x1e48(%rbp),%eax
   116d5:	0f b7 c0             	movzwl %ax,%eax
   116d8:	89 d6                	mov    %edx,%esi
   116da:	89 c7                	mov    %eax,%edi
   116dc:	e8 1e 76 ff ff       	callq  8cff <safe_add_func_uint16_t_u_u>
   116e1:	8b 05 69 d9 00 00    	mov    0xd969(%rip),%eax        # 1f050 <g_70>
   116e7:	0f be c0             	movsbl %al,%eax
   116ea:	be 06 00 00 00       	mov    $0x6,%esi
   116ef:	89 c7                	mov    %eax,%edi
   116f1:	e8 f8 6b ff ff       	callq  82ee <safe_lshift_func_int8_t_s_u>
   116f6:	0f b7 15 69 db 00 00 	movzwl 0xdb69(%rip),%edx        # 1f266 <g_437+0x86>
   116fd:	66 98                	cbtw   
   116ff:	09 d0                	or     %edx,%eax
   11701:	66 89 05 5e db 00 00 	mov    %ax,0xdb5e(%rip)        # 1f266 <g_437+0x86>
   11708:	0f b7 05 57 db 00 00 	movzwl 0xdb57(%rip),%eax        # 1f266 <g_437+0x86>
   1170f:	0f b7 c0             	movzwl %ax,%eax
   11712:	89 85 c8 e2 ff ff    	mov    %eax,-0x1d38(%rbp)
   11718:	8b 05 5a d9 00 00    	mov    0xd95a(%rip),%eax        # 1f078 <g_121+0x8>
   1171e:	39 85 b0 e1 ff ff    	cmp    %eax,-0x1e50(%rbp)
   11724:	48 83 bd e0 e5 ff ff 	cmpq   $0x0,-0x1a20(%rbp)
   1172b:	00 
   1172c:	74 12                	je     11740 <func_24+0x192a>
   1172e:	0f b6 85 38 e3 ff ff 	movzbl -0x1cc8(%rbp),%eax
   11735:	84 c0                	test   %al,%al
   11737:	74 07                	je     11740 <func_24+0x192a>
   11739:	b8 01 00 00 00       	mov    $0x1,%eax
   1173e:	eb 05                	jmp    11745 <func_24+0x192f>
   11740:	b8 00 00 00 00       	mov    $0x0,%eax
   11745:	89 c1                	mov    %eax,%ecx
   11747:	48 8b 85 f0 e5 ff ff 	mov    -0x1a10(%rbp),%rax
   1174e:	8b 00                	mov    (%rax),%eax
   11750:	8d 50 ff             	lea    -0x1(%rax),%edx
   11753:	48 8b 85 f0 e5 ff ff 	mov    -0x1a10(%rbp),%rax
   1175a:	89 10                	mov    %edx,(%rax)
   1175c:	48 8b 85 f0 e5 ff ff 	mov    -0x1a10(%rbp),%rax
   11763:	8b 00                	mov    (%rax),%eax
   11765:	89 ce                	mov    %ecx,%esi
   11767:	89 c7                	mov    %eax,%edi
   11769:	e8 8f 77 ff ff       	callq  8efd <safe_mod_func_uint32_t_u_u>
   1176e:	c7 85 80 e6 ff ff 06 	movl   $0x6,-0x1980(%rbp)
   11775:	00 00 00 
   11778:	b8 01 00 00 00       	mov    $0x1,%eax
   1177d:	83 f8 f6             	cmp    $0xfffffff6,%eax
   11780:	0f 9d c0             	setge  %al
   11783:	89 c2                	mov    %eax,%edx
   11785:	48 8b 85 f8 e5 ff ff 	mov    -0x1a08(%rbp),%rax
   1178c:	88 10                	mov    %dl,(%rax)
   1178e:	48 8b 85 f8 e5 ff ff 	mov    -0x1a08(%rbp),%rax
   11795:	0f b6 00             	movzbl (%rax),%eax
   11798:	0f b6 c0             	movzbl %al,%eax
   1179b:	44 89 ee             	mov    %r13d,%esi
   1179e:	89 c7                	mov    %eax,%edi
   117a0:	e8 b5 73 ff ff       	callq  8b5a <safe_add_func_uint8_t_u_u>
   117a5:	0f b6 d0             	movzbl %al,%edx
   117a8:	48 8b 85 00 e6 ff ff 	mov    -0x1a00(%rbp),%rax
   117af:	66 89 10             	mov    %dx,(%rax)
   117b2:	48 8b 85 00 e6 ff ff 	mov    -0x1a00(%rbp),%rax
   117b9:	0f b7 00             	movzwl (%rax),%eax
   117bc:	0f b7 c0             	movzwl %ax,%eax
   117bf:	44 89 e6             	mov    %r12d,%esi
   117c2:	89 c7                	mov    %eax,%edi
   117c4:	e8 f5 75 ff ff       	callq  8dbe <safe_lshift_func_uint16_t_u_s>
   117c9:	0f be c0             	movsbl %al,%eax
   117cc:	89 de                	mov    %ebx,%esi
   117ce:	89 c7                	mov    %eax,%edi
   117d0:	e8 3d 6a ff ff       	callq  8212 <safe_mul_func_int8_t_s_s>
   117d5:	84 c0                	test   %al,%al
   117d7:	74 07                	je     117e0 <func_24+0x19ca>
   117d9:	b8 01 00 00 00       	mov    $0x1,%eax
   117de:	eb 05                	jmp    117e5 <func_24+0x19cf>
   117e0:	b8 00 00 00 00       	mov    $0x0,%eax
   117e5:	98                   	cwtl   
   117e6:	66 c7 05 c5 d9 00 00 	movw   $0xa0cf,0xd9c5(%rip)        # 1f1b4 <g_291>
   117ed:	cf a0 
   117ef:	89 c6                	mov    %eax,%esi
   117f1:	bf cf a0 ff ff       	mov    $0xffffa0cf,%edi
   117f6:	e8 1b 6c ff ff       	callq  8416 <safe_mod_func_int16_t_s_s>
   117fb:	0f bf d0             	movswl %ax,%edx
   117fe:	48 8b 85 10 e6 ff ff 	mov    -0x19f0(%rbp),%rax
   11805:	89 10                	mov    %edx,(%rax)
   11807:	48 8b 85 10 e6 ff ff 	mov    -0x19f0(%rbp),%rax
   1180e:	8b 00                	mov    (%rax),%eax
   11810:	31 85 24 e2 ff ff    	xor    %eax,-0x1ddc(%rbp)
   11816:	8b 05 94 d9 00 00    	mov    0xd994(%rip),%eax        # 1f1b0 <g_200>
   1181c:	0f b7 c0             	movzwl %ax,%eax
   1181f:	be 03 00 00 00       	mov    $0x3,%esi
   11824:	89 c7                	mov    %eax,%edi
   11826:	e8 d4 74 ff ff       	callq  8cff <safe_add_func_uint16_t_u_u>
   1182b:	0f b7 c0             	movzwl %ax,%eax
   1182e:	89 05 7c d9 00 00    	mov    %eax,0xd97c(%rip)        # 1f1b0 <g_200>
   11834:	8b 05 76 d9 00 00    	mov    0xd976(%rip),%eax        # 1f1b0 <g_200>
   1183a:	83 f8 3b             	cmp    $0x3b,%eax
   1183d:	0f 86 cb f6 ff ff    	jbe    10f0e <func_24+0x10f8>
   11843:	eb 07                	jmp    1184c <func_24+0x1a36>
   11845:	90                   	nop
   11846:	eb 04                	jmp    1184c <func_24+0x1a36>
   11848:	90                   	nop
   11849:	eb 01                	jmp    1184c <func_24+0x1a36>
   1184b:	90                   	nop
   1184c:	0f b7 05 59 d8 00 00 	movzwl 0xd859(%rip),%eax        # 1f0ac <g_158>
   11853:	0f b7 c0             	movzwl %ax,%eax
   11856:	be 01 00 00 00       	mov    $0x1,%esi
   1185b:	89 c7                	mov    %eax,%edi
   1185d:	e8 54 6d ff ff       	callq  85b6 <safe_add_func_int32_t_s_s>
   11862:	66 89 05 43 d8 00 00 	mov    %ax,0xd843(%rip)        # 1f0ac <g_158>
   11869:	0f b7 05 3c d8 00 00 	movzwl 0xd83c(%rip),%eax        # 1f0ac <g_158>
   11870:	66 83 f8 1a          	cmp    $0x1a,%ax
   11874:	0f 86 46 f4 ff ff    	jbe    10cc0 <func_24+0xeaa>
   1187a:	48 8b 85 50 e3 ff ff 	mov    -0x1cb0(%rbp),%rax
   11881:	e9 66 2e 00 00       	jmpq   146ec <func_24+0x48d6>
   11886:	48 8d 85 c6 e1 ff ff 	lea    -0x1e3a(%rbp),%rax
   1188d:	48 89 85 10 e3 ff ff 	mov    %rax,-0x1cf0(%rbp)
   11894:	48 8d 85 10 e3 ff ff 	lea    -0x1cf0(%rbp),%rax
   1189b:	48 89 85 a0 e7 ff ff 	mov    %rax,-0x1860(%rbp)
   118a2:	48 8d 85 10 e3 ff ff 	lea    -0x1cf0(%rbp),%rax
   118a9:	48 89 85 a8 e7 ff ff 	mov    %rax,-0x1858(%rbp)
   118b0:	48 8d 85 10 e3 ff ff 	lea    -0x1cf0(%rbp),%rax
   118b7:	48 89 85 b0 e7 ff ff 	mov    %rax,-0x1850(%rbp)
   118be:	48 8d 85 10 e3 ff ff 	lea    -0x1cf0(%rbp),%rax
   118c5:	48 89 85 b8 e7 ff ff 	mov    %rax,-0x1848(%rbp)
   118cc:	48 8d 85 10 e3 ff ff 	lea    -0x1cf0(%rbp),%rax
   118d3:	48 89 85 c0 e7 ff ff 	mov    %rax,-0x1840(%rbp)
   118da:	48 8d 85 10 e3 ff ff 	lea    -0x1cf0(%rbp),%rax
   118e1:	48 89 85 c8 e7 ff ff 	mov    %rax,-0x1838(%rbp)
   118e8:	48 8d 85 10 e3 ff ff 	lea    -0x1cf0(%rbp),%rax
   118ef:	48 89 85 d0 e7 ff ff 	mov    %rax,-0x1830(%rbp)
   118f6:	48 8d 85 10 e3 ff ff 	lea    -0x1cf0(%rbp),%rax
   118fd:	48 89 85 d8 e7 ff ff 	mov    %rax,-0x1828(%rbp)
   11904:	48 8d 85 10 e3 ff ff 	lea    -0x1cf0(%rbp),%rax
   1190b:	48 89 85 e0 e7 ff ff 	mov    %rax,-0x1820(%rbp)
   11912:	48 8d 85 10 e3 ff ff 	lea    -0x1cf0(%rbp),%rax
   11919:	48 89 85 e8 e7 ff ff 	mov    %rax,-0x1818(%rbp)
   11920:	48 8d 85 10 e3 ff ff 	lea    -0x1cf0(%rbp),%rax
   11927:	48 89 85 f0 e7 ff ff 	mov    %rax,-0x1810(%rbp)
   1192e:	48 8d 85 10 e3 ff ff 	lea    -0x1cf0(%rbp),%rax
   11935:	48 89 85 f8 e7 ff ff 	mov    %rax,-0x1808(%rbp)
   1193c:	48 8d 85 10 e3 ff ff 	lea    -0x1cf0(%rbp),%rax
   11943:	48 89 85 00 e8 ff ff 	mov    %rax,-0x1800(%rbp)
   1194a:	48 8d 85 10 e3 ff ff 	lea    -0x1cf0(%rbp),%rax
   11951:	48 89 85 08 e8 ff ff 	mov    %rax,-0x17f8(%rbp)
   11958:	48 8d 85 10 e3 ff ff 	lea    -0x1cf0(%rbp),%rax
   1195f:	48 89 85 10 e8 ff ff 	mov    %rax,-0x17f0(%rbp)
   11966:	48 8d 85 10 e3 ff ff 	lea    -0x1cf0(%rbp),%rax
   1196d:	48 89 85 18 e8 ff ff 	mov    %rax,-0x17e8(%rbp)
   11974:	48 8d 85 a0 e7 ff ff 	lea    -0x1860(%rbp),%rax
   1197b:	48 83 c0 08          	add    $0x8,%rax
   1197f:	48 89 85 c0 e3 ff ff 	mov    %rax,-0x1c40(%rbp)
   11986:	48 c7 85 18 e3 ff ff 	movq   $0x0,-0x1ce8(%rbp)
   1198d:	00 00 00 00 
   11991:	48 8d 85 18 e3 ff ff 	lea    -0x1ce8(%rbp),%rax
   11998:	48 89 85 20 e3 ff ff 	mov    %rax,-0x1ce0(%rbp)
   1199f:	48 8d 85 20 e3 ff ff 	lea    -0x1ce0(%rbp),%rax
   119a6:	48 89 85 28 e3 ff ff 	mov    %rax,-0x1cd8(%rbp)
   119ad:	48 8d 85 28 e3 ff ff 	lea    -0x1cd8(%rbp),%rax
   119b4:	48 89 85 c8 e3 ff ff 	mov    %rax,-0x1c38(%rbp)
   119bb:	c7 85 2c e2 ff ff 01 	movl   $0x1,-0x1dd4(%rbp)
   119c2:	00 00 00 
   119c5:	c7 85 e4 e1 ff ff fc 	movl   $0xfffffffc,-0x1e1c(%rbp)
   119cc:	ff ff ff 
   119cf:	c7 85 80 e6 ff ff 00 	movl   $0x0,-0x1980(%rbp)
   119d6:	00 00 00 
   119d9:	c7 85 84 e6 ff ff 2d 	movl   $0xb65c042d,-0x197c(%rbp)
   119e0:	04 5c b6 
   119e3:	c7 85 88 e6 ff ff 00 	movl   $0x0,-0x1978(%rbp)
   119ea:	00 00 00 
   119ed:	c7 85 8c e6 ff ff 00 	movl   $0x0,-0x1974(%rbp)
   119f4:	00 00 00 
   119f7:	c7 85 90 e6 ff ff 2d 	movl   $0xb65c042d,-0x1970(%rbp)
   119fe:	04 5c b6 
   11a01:	c7 85 94 e6 ff ff 00 	movl   $0x0,-0x196c(%rbp)
   11a08:	00 00 00 
   11a0b:	48 b8 e6 49 29 95 19 	movabs $0x67dafb19952949e6,%rax
   11a12:	fb da 67 
   11a15:	48 89 85 d0 e3 ff ff 	mov    %rax,-0x1c30(%rbp)
   11a1c:	48 8d 05 d5 d8 00 00 	lea    0xd8d5(%rip),%rax        # 1f2f8 <g_800>
   11a23:	48 89 85 d8 e3 ff ff 	mov    %rax,-0x1c28(%rbp)
   11a2a:	48 c7 85 30 e3 ff ff 	movq   $0x0,-0x1cd0(%rbp)
   11a31:	00 00 00 00 
   11a35:	48 8d 85 30 e3 ff ff 	lea    -0x1cd0(%rbp),%rax
   11a3c:	48 89 85 e0 e3 ff ff 	mov    %rax,-0x1c20(%rbp)
   11a43:	48 8d 05 b6 02 01 00 	lea    0x102b6(%rip),%rax        # 21d00 <g_983>
   11a4a:	48 89 85 e8 e3 ff ff 	mov    %rax,-0x1c18(%rbp)
   11a51:	48 8d 05 f8 f9 00 00 	lea    0xf9f8(%rip),%rax        # 21450 <g_69>
   11a58:	48 89 85 f0 e3 ff ff 	mov    %rax,-0x1c10(%rbp)
   11a5f:	48 8d 85 e8 e2 ff ff 	lea    -0x1d18(%rbp),%rax
   11a66:	48 89 85 f8 e3 ff ff 	mov    %rax,-0x1c08(%rbp)
   11a6d:	48 c7 85 88 e3 ff ff 	movq   $0x1,-0x1c78(%rbp)
   11a74:	01 00 00 00 
   11a78:	c7 85 30 e2 ff ff 5e 	movl   $0x95895f5e,-0x1dd0(%rbp)
   11a7f:	5f 89 95 
   11a82:	c6 05 58 d8 00 00 f9 	movb   $0xf9,0xd858(%rip)        # 1f2e1 <g_793+0x1>
   11a89:	e9 83 2a 00 00       	jmpq   14511 <func_24+0x46fb>
   11a8e:	c6 85 cb e1 ff ff bc 	movb   $0xbc,-0x1e35(%rbp)
   11a95:	c7 85 e8 e1 ff ff a1 	movl   $0xbd7537a1,-0x1e18(%rbp)
   11a9c:	37 75 bd 
   11a9f:	c7 85 ec e1 ff ff 6a 	movl   $0xc2f3f06a,-0x1e14(%rbp)
   11aa6:	f0 f3 c2 
   11aa9:	c7 85 f0 e1 ff ff 01 	movl   $0xdab13901,-0x1e10(%rbp)
   11ab0:	39 b1 da 
   11ab3:	c7 85 f4 e1 ff ff 08 	movl   $0x8,-0x1e0c(%rbp)
   11aba:	00 00 00 
   11abd:	c7 85 34 e2 ff ff 9b 	movl   $0xe75d679b,-0x1dcc(%rbp)
   11ac4:	67 5d e7 
   11ac7:	48 c7 85 38 e3 ff ff 	movq   $0x0,-0x1cc8(%rbp)
   11ace:	00 00 00 00 
   11ad2:	48 8d 85 f0 ee ff ff 	lea    -0x1110(%rbp),%rax
   11ad9:	48 8d 15 20 f0 00 00 	lea    0xf020(%rip),%rdx        # 20b00 <g_2403+0x1318>
   11ae0:	b9 46 00 00 00       	mov    $0x46,%ecx
   11ae5:	48 89 c7             	mov    %rax,%rdi
   11ae8:	48 89 d6             	mov    %rdx,%rsi
   11aeb:	f3 48 a5             	rep movsq %ds:(%rsi),%es:(%rdi)
   11aee:	48 8d 85 a0 e7 ff ff 	lea    -0x1860(%rbp),%rax
   11af5:	48 83 c0 40          	add    $0x40,%rax
   11af9:	48 89 85 d0 e6 ff ff 	mov    %rax,-0x1930(%rbp)
   11b00:	48 8d 85 a0 e7 ff ff 	lea    -0x1860(%rbp),%rax
   11b07:	48 83 c0 40          	add    $0x40,%rax
   11b0b:	48 89 85 d8 e6 ff ff 	mov    %rax,-0x1928(%rbp)
   11b12:	48 c7 85 e0 e6 ff ff 	movq   $0x0,-0x1920(%rbp)
   11b19:	00 00 00 00 
   11b1d:	48 8d 85 a0 e7 ff ff 	lea    -0x1860(%rbp),%rax
   11b24:	48 83 c0 40          	add    $0x40,%rax
   11b28:	48 89 85 e8 e6 ff ff 	mov    %rax,-0x1918(%rbp)
   11b2f:	48 8d 85 a0 e7 ff ff 	lea    -0x1860(%rbp),%rax
   11b36:	48 83 c0 40          	add    $0x40,%rax
   11b3a:	48 89 85 f0 e6 ff ff 	mov    %rax,-0x1910(%rbp)
   11b41:	48 c7 85 f8 e6 ff ff 	movq   $0x0,-0x1908(%rbp)
   11b48:	00 00 00 00 
   11b4c:	48 8d 85 a0 e7 ff ff 	lea    -0x1860(%rbp),%rax
   11b53:	48 83 c0 40          	add    $0x40,%rax
   11b57:	48 89 85 00 e7 ff ff 	mov    %rax,-0x1900(%rbp)
   11b5e:	48 8d 85 a0 e7 ff ff 	lea    -0x1860(%rbp),%rax
   11b65:	48 83 c0 40          	add    $0x40,%rax
   11b69:	48 89 85 08 e7 ff ff 	mov    %rax,-0x18f8(%rbp)
   11b70:	48 c7 85 40 e3 ff ff 	movq   $0x0,-0x1cc0(%rbp)
   11b77:	00 00 00 00 
   11b7b:	66 c7 85 40 e3 ff ff 	movw   $0xc6fd,-0x1cc0(%rbp)
   11b82:	fd c6 
   11b84:	48 8d 05 85 d7 00 00 	lea    0xd785(%rip),%rax        # 1f310 <g_1068>
   11b8b:	48 89 85 00 e4 ff ff 	mov    %rax,-0x1c00(%rbp)
   11b92:	48 8d 05 d7 d4 00 00 	lea    0xd4d7(%rip),%rax        # 1f070 <g_121>
   11b99:	48 89 85 48 e3 ff ff 	mov    %rax,-0x1cb8(%rbp)
   11ba0:	48 c7 85 08 e4 ff ff 	movq   $0x0,-0x1bf8(%rbp)
   11ba7:	00 00 00 00 
   11bab:	48 8d 85 ec e1 ff ff 	lea    -0x1e14(%rbp),%rax
   11bb2:	48 89 85 10 e4 ff ff 	mov    %rax,-0x1bf0(%rbp)
   11bb9:	c7 85 38 e2 ff ff 01 	movl   $0x1,-0x1dc8(%rbp)
   11bc0:	00 00 00 
   11bc3:	c7 85 3c e2 ff ff e3 	movl   $0x4eeeb8e3,-0x1dc4(%rbp)
   11bca:	b8 ee 4e 
   11bcd:	c7 85 40 e2 ff ff e1 	movl   $0x7c3a2ee1,-0x1dc0(%rbp)
   11bd4:	2e 3a 7c 
   11bd7:	c7 05 07 d7 00 00 0a 	movl   $0xa,0xd707(%rip)        # 1f2e8 <g_793+0x8>
   11bde:	00 00 00 
   11be1:	e9 5f 05 00 00       	jmpq   12145 <func_24+0x232f>
   11be6:	48 c7 85 50 e3 ff ff 	movq   $0x0,-0x1cb0(%rbp)
   11bed:	00 00 00 00 
   11bf1:	c7 85 04 e2 ff ff 02 	movl   $0x2,-0x1dfc(%rbp)
   11bf8:	00 00 00 
   11bfb:	c7 85 f8 e1 ff ff 01 	movl   $0x1,-0x1e08(%rbp)
   11c02:	00 00 00 
   11c05:	c7 85 64 e2 ff ff 06 	movl   $0x6,-0x1d9c(%rbp)
   11c0c:	00 00 00 
   11c0f:	48 c7 85 10 eb ff ff 	movq   $0x0,-0x14f0(%rbp)
   11c16:	00 00 00 00 
   11c1a:	48 c7 85 18 eb ff ff 	movq   $0x0,-0x14e8(%rbp)
   11c21:	00 00 00 00 
   11c25:	48 c7 85 20 eb ff ff 	movq   $0x0,-0x14e0(%rbp)
   11c2c:	00 00 00 00 
   11c30:	48 c7 85 28 eb ff ff 	movq   $0x0,-0x14d8(%rbp)
   11c37:	00 00 00 00 
   11c3b:	66 c7 85 10 eb ff ff 	movw   $0xfff7,-0x14f0(%rbp)
   11c42:	f7 ff 
   11c44:	66 c7 85 18 eb ff ff 	movw   $0xfff7,-0x14e8(%rbp)
   11c4b:	f7 ff 
   11c4d:	66 c7 85 20 eb ff ff 	movw   $0xfff7,-0x14e0(%rbp)
   11c54:	f7 ff 
   11c56:	66 c7 85 28 eb ff ff 	movw   $0xfff7,-0x14d8(%rbp)
   11c5d:	f7 ff 
   11c5f:	c6 85 c7 e1 ff ff 01 	movb   $0x1,-0x1e39(%rbp)
   11c66:	c7 85 08 e2 ff ff 00 	movl   $0x0,-0x1df8(%rbp)
   11c6d:	00 00 00 
   11c70:	eb 1e                	jmp    11c90 <func_24+0x1e7a>
   11c72:	8b 85 08 e2 ff ff    	mov    -0x1df8(%rbp),%eax
   11c78:	48 98                	cltq   
   11c7a:	48 8d 95 50 e3 ff ff 	lea    -0x1cb0(%rbp),%rdx
   11c81:	48 89 94 c5 10 e7 ff 	mov    %rdx,-0x18f0(%rbp,%rax,8)
   11c88:	ff 
   11c89:	83 85 08 e2 ff ff 01 	addl   $0x1,-0x1df8(%rbp)
   11c90:	83 bd 08 e2 ff ff 01 	cmpl   $0x1,-0x1df8(%rbp)
   11c97:	7e d9                	jle    11c72 <func_24+0x1e5c>
   11c99:	48 8b 05 d0 fe 00 00 	mov    0xfed0(%rip),%rax        # 21b70 <g_815>
   11ca0:	48 8b 95 c0 e3 ff ff 	mov    -0x1c40(%rbp),%rdx
   11ca7:	48 89 10             	mov    %rdx,(%rax)
   11caa:	48 8b 85 18 e7 ff ff 	mov    -0x18e8(%rbp),%rax
   11cb1:	48 89 85 c8 e3 ff ff 	mov    %rax,-0x1c38(%rbp)
   11cb8:	48 c7 85 f0 e2 ff ff 	movq   $0x0,-0x1d10(%rbp)
   11cbf:	00 00 00 00 
   11cc3:	e9 1f 03 00 00       	jmpq   11fe7 <func_24+0x21d1>
   11cc8:	48 b8 66 21 9e 23 46 	movabs $0x52517446239e2166,%rax
   11ccf:	74 51 52 
   11cd2:	48 89 85 90 e3 ff ff 	mov    %rax,-0x1c70(%rbp)
   11cd9:	48 c7 85 d0 e4 ff ff 	movq   $0x0,-0x1b30(%rbp)
   11ce0:	00 00 00 00 
   11ce4:	48 c7 85 58 e3 ff ff 	movq   $0x0,-0x1ca8(%rbp)
   11ceb:	00 00 00 00 
   11cef:	48 8d 85 58 e3 ff ff 	lea    -0x1ca8(%rbp),%rax
   11cf6:	48 89 85 d8 e4 ff ff 	mov    %rax,-0x1b28(%rbp)
   11cfd:	48 c7 85 e0 e4 ff ff 	movq   $0x0,-0x1b20(%rbp)
   11d04:	00 00 00 00 
   11d08:	48 8d 85 50 e9 ff ff 	lea    -0x16b0(%rbp),%rax
   11d0f:	48 83 c0 18          	add    $0x18,%rax
   11d13:	48 89 85 e8 e4 ff ff 	mov    %rax,-0x1b18(%rbp)
   11d1a:	48 c7 85 f0 e4 ff ff 	movq   $0x0,-0x1b10(%rbp)
   11d21:	00 00 00 00 
   11d25:	48 8d 85 a0 e6 ff ff 	lea    -0x1960(%rbp),%rax
   11d2c:	48 89 85 f8 e4 ff ff 	mov    %rax,-0x1b08(%rbp)
   11d33:	48 8d 85 a0 e6 ff ff 	lea    -0x1960(%rbp),%rax
   11d3a:	48 83 c0 08          	add    $0x8,%rax
   11d3e:	48 89 85 40 f8 ff ff 	mov    %rax,-0x7c0(%rbp)
   11d45:	48 8d 85 dc e1 ff ff 	lea    -0x1e24(%rbp),%rax
   11d4c:	48 89 85 48 f8 ff ff 	mov    %rax,-0x7b8(%rbp)
   11d53:	48 8d 85 a0 e6 ff ff 	lea    -0x1960(%rbp),%rax
   11d5a:	48 83 c0 08          	add    $0x8,%rax
   11d5e:	48 89 85 50 f8 ff ff 	mov    %rax,-0x7b0(%rbp)
   11d65:	48 8d 85 dc e1 ff ff 	lea    -0x1e24(%rbp),%rax
   11d6c:	48 89 85 58 f8 ff ff 	mov    %rax,-0x7a8(%rbp)
   11d73:	48 8d 85 a0 e6 ff ff 	lea    -0x1960(%rbp),%rax
   11d7a:	48 83 c0 08          	add    $0x8,%rax
   11d7e:	48 89 85 60 f8 ff ff 	mov    %rax,-0x7a0(%rbp)
   11d85:	48 8d 85 dc e1 ff ff 	lea    -0x1e24(%rbp),%rax
   11d8c:	48 89 85 68 f8 ff ff 	mov    %rax,-0x798(%rbp)
   11d93:	48 8d 85 a0 e6 ff ff 	lea    -0x1960(%rbp),%rax
   11d9a:	48 83 c0 08          	add    $0x8,%rax
   11d9e:	48 89 85 70 f8 ff ff 	mov    %rax,-0x790(%rbp)
   11da5:	48 8d 85 dc e1 ff ff 	lea    -0x1e24(%rbp),%rax
   11dac:	48 89 85 78 f8 ff ff 	mov    %rax,-0x788(%rbp)
   11db3:	48 8d 85 a0 e6 ff ff 	lea    -0x1960(%rbp),%rax
   11dba:	48 83 c0 08          	add    $0x8,%rax
   11dbe:	48 89 85 80 f8 ff ff 	mov    %rax,-0x780(%rbp)
   11dc5:	48 8d 85 dc e1 ff ff 	lea    -0x1e24(%rbp),%rax
   11dcc:	48 89 85 88 f8 ff ff 	mov    %rax,-0x778(%rbp)
   11dd3:	c7 85 0c e2 ff ff 00 	movl   $0x0,-0x1df4(%rbp)
   11dda:	00 00 00 
   11ddd:	eb 1a                	jmp    11df9 <func_24+0x1fe3>
   11ddf:	8b 85 0c e2 ff ff    	mov    -0x1df4(%rbp),%eax
   11de5:	48 98                	cltq   
   11de7:	c7 84 85 a0 e6 ff ff 	movl   $0xffffffff,-0x1960(%rbp,%rax,4)
   11dee:	ff ff ff ff 
   11df2:	83 85 0c e2 ff ff 01 	addl   $0x1,-0x1df4(%rbp)
   11df9:	83 bd 0c e2 ff ff 02 	cmpl   $0x2,-0x1df4(%rbp)
   11e00:	7e dd                	jle    11ddf <func_24+0x1fc9>
   11e02:	c6 85 c6 e1 ff ff 00 	movb   $0x0,-0x1e3a(%rbp)
   11e09:	e9 95 01 00 00       	jmpq   11fa3 <func_24+0x218d>
   11e0e:	48 c7 85 60 e3 ff ff 	movq   $0x0,-0x1ca0(%rbp)
   11e15:	00 00 00 00 
   11e19:	48 8d 85 60 e3 ff ff 	lea    -0x1ca0(%rbp),%rax
   11e20:	48 89 85 68 e3 ff ff 	mov    %rax,-0x1c98(%rbp)
   11e27:	48 8d 85 70 ed ff ff 	lea    -0x1290(%rbp),%rax
   11e2e:	48 83 c0 08          	add    $0x8,%rax
   11e32:	48 89 85 00 e5 ff ff 	mov    %rax,-0x1b00(%rbp)
   11e39:	48 c7 85 08 e5 ff ff 	movq   $0x0,-0x1af8(%rbp)
   11e40:	00 00 00 00 
   11e44:	48 c7 85 10 e5 ff ff 	movq   $0x0,-0x1af0(%rbp)
   11e4b:	00 00 00 00 
   11e4f:	48 8d 05 22 d3 00 00 	lea    0xd322(%rip),%rax        # 1f178 <g_183+0xb8>
   11e56:	48 89 85 18 e5 ff ff 	mov    %rax,-0x1ae8(%rbp)
   11e5d:	48 8d 05 d8 d1 00 00 	lea    0xd1d8(%rip),%rax        # 1f03c <g_62+0x4>
   11e64:	48 89 85 20 e5 ff ff 	mov    %rax,-0x1ae0(%rbp)
   11e6b:	c7 85 10 e2 ff ff 00 	movl   $0x0,-0x1df0(%rbp)
   11e72:	00 00 00 
   11e75:	eb 1e                	jmp    11e95 <func_24+0x207f>
   11e77:	8b 85 10 e2 ff ff    	mov    -0x1df0(%rbp),%eax
   11e7d:	48 98                	cltq   
   11e7f:	48 8d 95 68 e3 ff ff 	lea    -0x1c98(%rbp),%rdx
   11e86:	48 89 94 c5 70 ed ff 	mov    %rdx,-0x1290(%rbp,%rax,8)
   11e8d:	ff 
   11e8e:	83 85 10 e2 ff ff 01 	addl   $0x1,-0x1df0(%rbp)
   11e95:	83 bd 10 e2 ff ff 03 	cmpl   $0x3,-0x1df0(%rbp)
   11e9c:	7e d9                	jle    11e77 <func_24+0x2061>
   11e9e:	48 83 85 90 e3 ff ff 	addq   $0x1,-0x1c70(%rbp)
   11ea5:	01 
   11ea6:	83 bd 04 e2 ff ff 00 	cmpl   $0x0,-0x1dfc(%rbp)
   11ead:	0f 85 df 00 00 00    	jne    11f92 <func_24+0x217c>
   11eb3:	8b 85 2c e2 ff ff    	mov    -0x1dd4(%rbp),%eax
   11eb9:	0f be d8             	movsbl %al,%ebx
   11ebc:	48 83 bd 90 e3 ff ff 	cmpq   $0x0,-0x1c70(%rbp)
   11ec3:	00 
   11ec4:	0f 95 c0             	setne  %al
   11ec7:	0f b6 c0             	movzbl %al,%eax
   11eca:	89 85 a0 e6 ff ff    	mov    %eax,-0x1960(%rbp)
   11ed0:	8b 85 a0 e6 ff ff    	mov    -0x1960(%rbp),%eax
   11ed6:	89 85 04 e2 ff ff    	mov    %eax,-0x1dfc(%rbp)
   11edc:	48 8b 85 00 e5 ff ff 	mov    -0x1b00(%rbp),%rax
   11ee3:	48 89 85 d8 e4 ff ff 	mov    %rax,-0x1b28(%rbp)
   11eea:	48 8b 85 d8 e4 ff ff 	mov    -0x1b28(%rbp),%rax
   11ef1:	48 3b 85 d0 e4 ff ff 	cmp    -0x1b30(%rbp),%rax
   11ef8:	0f 94 c0             	sete   %al
   11efb:	0f b6 d0             	movzbl %al,%edx
   11efe:	48 8b 05 9b d1 00 00 	mov    0xd19b(%rip),%rax        # 1f0a0 <g_140+0x10>
   11f05:	c1 e0 02             	shl    $0x2,%eax
   11f08:	c1 f8 02             	sar    $0x2,%eax
   11f0b:	39 c2                	cmp    %eax,%edx
   11f0d:	0f 9c c0             	setl   %al
   11f10:	0f b6 c0             	movzbl %al,%eax
   11f13:	89 c7                	mov    %eax,%edi
   11f15:	e8 7c 66 ff ff       	callq  8596 <safe_unary_minus_func_int32_t_s>
   11f1a:	89 c2                	mov    %eax,%edx
   11f1c:	8b 85 bc e1 ff ff    	mov    -0x1e44(%rbp),%eax
   11f22:	89 c6                	mov    %eax,%esi
   11f24:	89 d7                	mov    %edx,%edi
   11f26:	e8 8d 6f ff ff       	callq  8eb8 <safe_add_func_uint32_t_u_u>
   11f2b:	0f be c0             	movsbl %al,%eax
   11f2e:	89 de                	mov    %ebx,%esi
   11f30:	89 c7                	mov    %eax,%edi
   11f32:	e8 33 63 ff ff       	callq  826a <safe_div_func_int8_t_s_s>
   11f37:	8b 85 f8 e1 ff ff    	mov    -0x1e08(%rbp),%eax
   11f3d:	83 e0 01             	and    $0x1,%eax
   11f40:	89 c2                	mov    %eax,%edx
   11f42:	0f b7 85 ac e1 ff ff 	movzwl -0x1e54(%rbp),%eax
   11f49:	98                   	cwtl   
   11f4a:	39 c2                	cmp    %eax,%edx
   11f4c:	0f 9c c0             	setl   %al
   11f4f:	0f b6 d0             	movzbl %al,%edx
   11f52:	8b 85 2c e2 ff ff    	mov    -0x1dd4(%rbp),%eax
   11f58:	89 d6                	mov    %edx,%esi
   11f5a:	89 c7                	mov    %eax,%edi
   11f5c:	e8 a4 66 ff ff       	callq  8605 <safe_sub_func_int32_t_s_s>
   11f61:	0f b6 c0             	movzbl %al,%eax
   11f64:	be 66 00 00 00       	mov    $0x66,%esi
   11f69:	89 c7                	mov    %eax,%edi
   11f6b:	e8 ea 6b ff ff       	callq  8b5a <safe_add_func_uint8_t_u_u>
   11f70:	ba 00 00 00 00       	mov    $0x0,%edx
   11f75:	48 8b 85 20 e5 ff ff 	mov    -0x1ae0(%rbp),%rax
   11f7c:	8b 00                	mov    (%rax),%eax
   11f7e:	09 c2                	or     %eax,%edx
   11f80:	48 8b 85 20 e5 ff ff 	mov    -0x1ae0(%rbp),%rax
   11f87:	89 10                	mov    %edx,(%rax)
   11f89:	83 bd bc e1 ff ff 00 	cmpl   $0x0,-0x1e44(%rbp)
   11f90:	eb 01                	jmp    11f93 <func_24+0x217d>
   11f92:	90                   	nop
   11f93:	0f b6 85 c6 e1 ff ff 	movzbl -0x1e3a(%rbp),%eax
   11f9a:	83 c0 01             	add    $0x1,%eax
   11f9d:	88 85 c6 e1 ff ff    	mov    %al,-0x1e3a(%rbp)
   11fa3:	0f b6 85 c6 e1 ff ff 	movzbl -0x1e3a(%rbp),%eax
   11faa:	3c 01                	cmp    $0x1,%al
   11fac:	0f 86 5c fe ff ff    	jbe    11e0e <func_24+0x1ff8>
   11fb2:	48 8b 05 b7 fc 00 00 	mov    0xfcb7(%rip),%rax        # 21c70 <g_856>
   11fb9:	48 8b 15 c8 fb 00 00 	mov    0xfbc8(%rip),%rdx        # 21b88 <g_851>
   11fc0:	48 89 10             	mov    %rdx,(%rax)
   11fc3:	48 8b 85 28 e8 ff ff 	mov    -0x17d8(%rbp),%rax
   11fca:	48 83 c0 01          	add    $0x1,%rax
   11fce:	48 89 85 28 e8 ff ff 	mov    %rax,-0x17d8(%rbp)
   11fd5:	48 8b 85 f0 e2 ff ff 	mov    -0x1d10(%rbp),%rax
   11fdc:	48 83 c0 01          	add    $0x1,%rax
   11fe0:	48 89 85 f0 e2 ff ff 	mov    %rax,-0x1d10(%rbp)
   11fe7:	48 8b 85 f0 e2 ff ff 	mov    -0x1d10(%rbp),%rax
   11fee:	48 83 f8 0f          	cmp    $0xf,%rax
   11ff2:	0f 87 d0 fc ff ff    	ja     11cc8 <func_24+0x1eb2>
   11ff8:	66 c7 85 d0 e1 ff ff 	movw   $0x0,-0x1e30(%rbp)
   11fff:	00 00 
   12001:	e9 0d 01 00 00       	jmpq   12113 <func_24+0x22fd>
   12006:	66 c7 85 d6 e1 ff ff 	movw   $0x1,-0x1e2a(%rbp)
   1200d:	01 00 
   1200f:	c7 05 df d2 00 00 01 	movl   $0x1,0xd2df(%rip)        # 1f2f8 <g_800>
   12016:	00 00 00 
   12019:	90                   	nop
   1201a:	8b 05 d8 d2 00 00    	mov    0xd2d8(%rip),%eax        # 1f2f8 <g_800>
   12020:	83 f8 05             	cmp    $0x5,%eax
   12023:	77 0c                	ja     12031 <func_24+0x221b>
   12025:	48 8b 85 10 eb ff ff 	mov    -0x14f0(%rbp),%rax
   1202c:	e9 bb 26 00 00       	jmpq   146ec <func_24+0x48d6>
   12031:	8b 85 b0 e1 ff ff    	mov    -0x1e50(%rbp),%eax
   12037:	89 c2                	mov    %eax,%edx
   12039:	0f b6 85 c7 e1 ff ff 	movzbl -0x1e39(%rbp),%eax
   12040:	21 d0                	and    %edx,%eax
   12042:	88 85 c7 e1 ff ff    	mov    %al,-0x1e39(%rbp)
   12048:	83 bd b4 e1 ff ff 00 	cmpl   $0x0,-0x1e4c(%rbp)
   1204f:	74 2c                	je     1207d <func_24+0x2267>
   12051:	83 bd 2c e2 ff ff 00 	cmpl   $0x0,-0x1dd4(%rbp)
   12058:	0f 85 c8 00 00 00    	jne    12126 <func_24+0x2310>
   1205e:	48 8b 15 1b f4 00 00 	mov    0xf41b(%rip),%rdx        # 21480 <g_145>
   12065:	48 8b 05 24 f4 00 00 	mov    0xf424(%rip),%rax        # 21490 <g_143>
   1206c:	48 8b 00             	mov    (%rax),%rax
   1206f:	48 8b 00             	mov    (%rax),%rax
   12072:	48 8b 12             	mov    (%rdx),%rdx
   12075:	48 89 10             	mov    %rdx,(%rax)
   12078:	e9 85 00 00 00       	jmpq   12102 <func_24+0x22ec>
   1207d:	48 8d 85 e8 e2 ff ff 	lea    -0x1d18(%rbp),%rax
   12084:	48 89 85 a0 e4 ff ff 	mov    %rax,-0x1b60(%rbp)
   1208b:	48 c7 85 a8 e4 ff ff 	movq   $0x0,-0x1b58(%rbp)
   12092:	00 00 00 00 
   12096:	48 8d 85 f8 e1 ff ff 	lea    -0x1e08(%rbp),%rax
   1209d:	48 89 85 b0 e4 ff ff 	mov    %rax,-0x1b50(%rbp)
   120a4:	48 8d 85 d8 e1 ff ff 	lea    -0x1e28(%rbp),%rax
   120ab:	48 89 85 b8 e4 ff ff 	mov    %rax,-0x1b48(%rbp)
   120b2:	48 8d 85 10 eb ff ff 	lea    -0x14f0(%rbp),%rax
   120b9:	48 89 85 c0 e4 ff ff 	mov    %rax,-0x1b40(%rbp)
   120c0:	48 8d 05 95 cf 00 00 	lea    0xcf95(%rip),%rax        # 1f05c <g_73>
   120c7:	48 89 85 c8 e4 ff ff 	mov    %rax,-0x1b38(%rbp)
   120ce:	48 c7 85 40 f8 ff ff 	movq   $0x0,-0x7c0(%rbp)
   120d5:	00 00 00 00 
   120d9:	48 c7 85 48 f8 ff ff 	movq   $0x0,-0x7b8(%rbp)
   120e0:	00 00 00 00 
   120e4:	48 c7 85 50 f8 ff ff 	movq   $0x0,-0x7b0(%rbp)
   120eb:	00 00 00 00 
   120ef:	48 c7 85 58 f8 ff ff 	movq   $0x0,-0x7a8(%rbp)
   120f6:	00 00 00 00 
   120fa:	66 83 85 d6 e1 ff ff 	addw   $0x1,-0x1e2a(%rbp)
   12101:	01 
   12102:	0f b7 85 d0 e1 ff ff 	movzwl -0x1e30(%rbp),%eax
   12109:	83 c0 01             	add    $0x1,%eax
   1210c:	66 89 85 d0 e1 ff ff 	mov    %ax,-0x1e30(%rbp)
   12113:	0f b7 85 d0 e1 ff ff 	movzwl -0x1e30(%rbp),%eax
   1211a:	66 83 f8 1e          	cmp    $0x1e,%ax
   1211e:	0f 84 e2 fe ff ff    	je     12006 <func_24+0x21f0>
   12124:	eb 01                	jmp    12127 <func_24+0x2311>
   12126:	90                   	nop
   12127:	8b 05 bb d1 00 00    	mov    0xd1bb(%rip),%eax        # 1f2e8 <g_793+0x8>
   1212d:	0f b6 c0             	movzbl %al,%eax
   12130:	be 02 00 00 00       	mov    $0x2,%esi
   12135:	89 c7                	mov    %eax,%edi
   12137:	e8 1e 6a ff ff       	callq  8b5a <safe_add_func_uint8_t_u_u>
   1213c:	0f b6 c0             	movzbl %al,%eax
   1213f:	89 05 a3 d1 00 00    	mov    %eax,0xd1a3(%rip)        # 1f2e8 <g_793+0x8>
   12145:	8b 05 9d d1 00 00    	mov    0xd19d(%rip),%eax        # 1f2e8 <g_793+0x8>
   1214b:	83 f8 3b             	cmp    $0x3b,%eax
   1214e:	0f 86 92 fa ff ff    	jbe    11be6 <func_24+0x1dd0>
   12154:	48 8b 05 e5 f7 00 00 	mov    0xf7e5(%rip),%rax        # 21940 <g_624>
   1215b:	8b 00                	mov    (%rax),%eax
   1215d:	85 c0                	test   %eax,%eax
   1215f:	0f 84 16 1e 00 00    	je     13f7b <func_24+0x4165>
   12165:	c7 85 48 e2 ff ff fb 	movl   $0xf3e9c0fb,-0x1db8(%rbp)
   1216c:	c0 e9 f3 
   1216f:	48 c7 85 58 e3 ff ff 	movq   $0x0,-0x1ca8(%rbp)
   12176:	00 00 00 00 
   1217a:	48 8d 85 58 e3 ff ff 	lea    -0x1ca8(%rbp),%rax
   12181:	48 89 85 98 e3 ff ff 	mov    %rax,-0x1c68(%rbp)
   12188:	48 c7 85 60 e3 ff ff 	movq   $0x0,-0x1ca0(%rbp)
   1218f:	00 00 00 00 
   12193:	48 8d 85 60 e3 ff ff 	lea    -0x1ca0(%rbp),%rax
   1219a:	48 89 85 48 e4 ff ff 	mov    %rax,-0x1bb8(%rbp)
   121a1:	48 8d 05 e8 d0 00 00 	lea    0xd0e8(%rip),%rax        # 1f290 <g_551>
   121a8:	48 89 85 50 e4 ff ff 	mov    %rax,-0x1bb0(%rbp)
   121af:	48 8d 85 50 e9 ff ff 	lea    -0x16b0(%rbp),%rax
   121b6:	48 89 85 58 e4 ff ff 	mov    %rax,-0x1ba8(%rbp)
   121bd:	48 8d 05 94 f2 00 00 	lea    0xf294(%rip),%rax        # 21458 <g_68>
   121c4:	48 89 85 10 eb ff ff 	mov    %rax,-0x14f0(%rbp)
   121cb:	48 8d 85 e0 e2 ff ff 	lea    -0x1d20(%rbp),%rax
   121d2:	48 89 85 18 eb ff ff 	mov    %rax,-0x14e8(%rbp)
   121d9:	48 8d 85 e0 e2 ff ff 	lea    -0x1d20(%rbp),%rax
   121e0:	48 89 85 20 eb ff ff 	mov    %rax,-0x14e0(%rbp)
   121e7:	48 8d 05 6a f2 00 00 	lea    0xf26a(%rip),%rax        # 21458 <g_68>
   121ee:	48 89 85 28 eb ff ff 	mov    %rax,-0x14d8(%rbp)
   121f5:	48 8d 85 e0 e2 ff ff 	lea    -0x1d20(%rbp),%rax
   121fc:	48 89 85 30 eb ff ff 	mov    %rax,-0x14d0(%rbp)
   12203:	48 8d 05 4e f2 00 00 	lea    0xf24e(%rip),%rax        # 21458 <g_68>
   1220a:	48 89 85 38 eb ff ff 	mov    %rax,-0x14c8(%rbp)
   12211:	48 8d 85 e0 e2 ff ff 	lea    -0x1d20(%rbp),%rax
   12218:	48 89 85 40 eb ff ff 	mov    %rax,-0x14c0(%rbp)
   1221f:	48 8d 05 32 f2 00 00 	lea    0xf232(%rip),%rax        # 21458 <g_68>
   12226:	48 89 85 48 eb ff ff 	mov    %rax,-0x14b8(%rbp)
   1222d:	48 8d 85 e0 e2 ff ff 	lea    -0x1d20(%rbp),%rax
   12234:	48 89 85 50 eb ff ff 	mov    %rax,-0x14b0(%rbp)
   1223b:	48 8d 85 e0 e2 ff ff 	lea    -0x1d20(%rbp),%rax
   12242:	48 89 85 58 eb ff ff 	mov    %rax,-0x14a8(%rbp)
   12249:	48 8d 85 e0 e2 ff ff 	lea    -0x1d20(%rbp),%rax
   12250:	48 89 85 60 eb ff ff 	mov    %rax,-0x14a0(%rbp)
   12257:	48 8d 85 e0 e2 ff ff 	lea    -0x1d20(%rbp),%rax
   1225e:	48 89 85 68 eb ff ff 	mov    %rax,-0x1498(%rbp)
   12265:	48 8d 05 ec f1 00 00 	lea    0xf1ec(%rip),%rax        # 21458 <g_68>
   1226c:	48 89 85 70 eb ff ff 	mov    %rax,-0x1490(%rbp)
   12273:	48 8d 05 de f1 00 00 	lea    0xf1de(%rip),%rax        # 21458 <g_68>
   1227a:	48 89 85 78 eb ff ff 	mov    %rax,-0x1488(%rbp)
   12281:	48 8d 85 e0 e2 ff ff 	lea    -0x1d20(%rbp),%rax
   12288:	48 89 85 80 eb ff ff 	mov    %rax,-0x1480(%rbp)
   1228f:	48 8d 85 e0 e2 ff ff 	lea    -0x1d20(%rbp),%rax
   12296:	48 89 85 88 eb ff ff 	mov    %rax,-0x1478(%rbp)
   1229d:	48 8d 85 e0 e2 ff ff 	lea    -0x1d20(%rbp),%rax
   122a4:	48 89 85 90 eb ff ff 	mov    %rax,-0x1470(%rbp)
   122ab:	48 8d 85 e0 e2 ff ff 	lea    -0x1d20(%rbp),%rax
   122b2:	48 89 85 98 eb ff ff 	mov    %rax,-0x1468(%rbp)
   122b9:	48 8d 85 e0 e2 ff ff 	lea    -0x1d20(%rbp),%rax
   122c0:	48 89 85 a0 eb ff ff 	mov    %rax,-0x1460(%rbp)
   122c7:	48 8d 05 8a f1 00 00 	lea    0xf18a(%rip),%rax        # 21458 <g_68>
   122ce:	48 89 85 a8 eb ff ff 	mov    %rax,-0x1458(%rbp)
   122d5:	48 8d 05 7c f1 00 00 	lea    0xf17c(%rip),%rax        # 21458 <g_68>
   122dc:	48 89 85 b0 eb ff ff 	mov    %rax,-0x1450(%rbp)
   122e3:	48 8d 05 6e f1 00 00 	lea    0xf16e(%rip),%rax        # 21458 <g_68>
   122ea:	48 89 85 b8 eb ff ff 	mov    %rax,-0x1448(%rbp)
   122f1:	48 8d 85 e0 e2 ff ff 	lea    -0x1d20(%rbp),%rax
   122f8:	48 89 85 c0 eb ff ff 	mov    %rax,-0x1440(%rbp)
   122ff:	48 8d 05 52 f1 00 00 	lea    0xf152(%rip),%rax        # 21458 <g_68>
   12306:	48 89 85 c8 eb ff ff 	mov    %rax,-0x1438(%rbp)
   1230d:	48 8d 85 e0 e2 ff ff 	lea    -0x1d20(%rbp),%rax
   12314:	48 89 85 d0 eb ff ff 	mov    %rax,-0x1430(%rbp)
   1231b:	48 8d 85 e0 e2 ff ff 	lea    -0x1d20(%rbp),%rax
   12322:	48 89 85 d8 eb ff ff 	mov    %rax,-0x1428(%rbp)
   12329:	48 8d 85 e0 e2 ff ff 	lea    -0x1d20(%rbp),%rax
   12330:	48 89 85 e0 eb ff ff 	mov    %rax,-0x1420(%rbp)
   12337:	48 8d 85 e0 e2 ff ff 	lea    -0x1d20(%rbp),%rax
   1233e:	48 89 85 e8 eb ff ff 	mov    %rax,-0x1418(%rbp)
   12345:	48 8d 85 58 e3 ff ff 	lea    -0x1ca8(%rbp),%rax
   1234c:	48 89 85 60 e4 ff ff 	mov    %rax,-0x1ba0(%rbp)
   12353:	c7 85 4c e2 ff ff f8 	movl   $0xfffffff8,-0x1db4(%rbp)
   1235a:	ff ff ff 
   1235d:	c7 85 50 e2 ff ff f7 	movl   $0xfffffff7,-0x1db0(%rbp)
   12364:	ff ff ff 
   12367:	48 8d 85 d0 e6 ff ff 	lea    -0x1930(%rbp),%rax
   1236e:	48 83 c0 10          	add    $0x10,%rax
   12372:	48 89 85 68 e3 ff ff 	mov    %rax,-0x1c98(%rbp)
   12379:	48 c7 85 68 e4 ff ff 	movq   $0x0,-0x1b98(%rbp)
   12380:	00 00 00 00 
   12384:	48 8d 85 80 f4 ff ff 	lea    -0xb80(%rbp),%rax
   1238b:	48 05 38 02 00 00    	add    $0x238,%rax
   12391:	48 89 85 40 f8 ff ff 	mov    %rax,-0x7c0(%rbp)
   12398:	48 8d 85 80 f4 ff ff 	lea    -0xb80(%rbp),%rax
   1239f:	48 05 38 02 00 00    	add    $0x238,%rax
   123a5:	48 89 85 48 f8 ff ff 	mov    %rax,-0x7b8(%rbp)
   123ac:	48 8d 85 80 f4 ff ff 	lea    -0xb80(%rbp),%rax
   123b3:	48 05 38 02 00 00    	add    $0x238,%rax
   123b9:	48 89 85 50 f8 ff ff 	mov    %rax,-0x7b0(%rbp)
   123c0:	48 8d 85 80 f4 ff ff 	lea    -0xb80(%rbp),%rax
   123c7:	48 05 38 02 00 00    	add    $0x238,%rax
   123cd:	48 89 85 58 f8 ff ff 	mov    %rax,-0x7a8(%rbp)
   123d4:	48 8d 85 80 f4 ff ff 	lea    -0xb80(%rbp),%rax
   123db:	48 05 38 02 00 00    	add    $0x238,%rax
   123e1:	48 89 85 60 f8 ff ff 	mov    %rax,-0x7a0(%rbp)
   123e8:	48 8d 85 80 f4 ff ff 	lea    -0xb80(%rbp),%rax
   123ef:	48 05 38 02 00 00    	add    $0x238,%rax
   123f5:	48 89 85 68 f8 ff ff 	mov    %rax,-0x798(%rbp)
   123fc:	48 8d 85 80 f4 ff ff 	lea    -0xb80(%rbp),%rax
   12403:	48 05 38 02 00 00    	add    $0x238,%rax
   12409:	48 89 85 70 f8 ff ff 	mov    %rax,-0x790(%rbp)
   12410:	48 8d 85 80 f4 ff ff 	lea    -0xb80(%rbp),%rax
   12417:	48 05 e8 02 00 00    	add    $0x2e8,%rax
   1241d:	48 89 85 78 f8 ff ff 	mov    %rax,-0x788(%rbp)
   12424:	48 8d 85 80 f4 ff ff 	lea    -0xb80(%rbp),%rax
   1242b:	48 05 e8 02 00 00    	add    $0x2e8,%rax
   12431:	48 89 85 80 f8 ff ff 	mov    %rax,-0x780(%rbp)
   12438:	48 8d 85 80 f4 ff ff 	lea    -0xb80(%rbp),%rax
   1243f:	48 05 e8 02 00 00    	add    $0x2e8,%rax
   12445:	48 89 85 88 f8 ff ff 	mov    %rax,-0x778(%rbp)
   1244c:	48 8d 85 80 f4 ff ff 	lea    -0xb80(%rbp),%rax
   12453:	48 05 e8 02 00 00    	add    $0x2e8,%rax
   12459:	48 89 85 90 f8 ff ff 	mov    %rax,-0x770(%rbp)
   12460:	48 8d 85 80 f4 ff ff 	lea    -0xb80(%rbp),%rax
   12467:	48 05 e8 02 00 00    	add    $0x2e8,%rax
   1246d:	48 89 85 98 f8 ff ff 	mov    %rax,-0x768(%rbp)
   12474:	48 8d 85 80 f4 ff ff 	lea    -0xb80(%rbp),%rax
   1247b:	48 05 e8 02 00 00    	add    $0x2e8,%rax
   12481:	48 89 85 a0 f8 ff ff 	mov    %rax,-0x760(%rbp)
   12488:	48 8d 85 80 f4 ff ff 	lea    -0xb80(%rbp),%rax
   1248f:	48 05 e8 02 00 00    	add    $0x2e8,%rax
   12495:	48 89 85 a8 f8 ff ff 	mov    %rax,-0x758(%rbp)
   1249c:	48 8d 85 80 f4 ff ff 	lea    -0xb80(%rbp),%rax
   124a3:	48 05 38 02 00 00    	add    $0x238,%rax
   124a9:	48 89 85 b0 f8 ff ff 	mov    %rax,-0x750(%rbp)
   124b0:	48 8d 85 80 f4 ff ff 	lea    -0xb80(%rbp),%rax
   124b7:	48 05 38 02 00 00    	add    $0x238,%rax
   124bd:	48 89 85 b8 f8 ff ff 	mov    %rax,-0x748(%rbp)
   124c4:	48 8d 85 80 f4 ff ff 	lea    -0xb80(%rbp),%rax
   124cb:	48 05 38 02 00 00    	add    $0x238,%rax
   124d1:	48 89 85 c0 f8 ff ff 	mov    %rax,-0x740(%rbp)
   124d8:	48 8d 85 80 f4 ff ff 	lea    -0xb80(%rbp),%rax
   124df:	48 05 38 02 00 00    	add    $0x238,%rax
   124e5:	48 89 85 c8 f8 ff ff 	mov    %rax,-0x738(%rbp)
   124ec:	48 8d 85 80 f4 ff ff 	lea    -0xb80(%rbp),%rax
   124f3:	48 05 38 02 00 00    	add    $0x238,%rax
   124f9:	48 89 85 d0 f8 ff ff 	mov    %rax,-0x730(%rbp)
   12500:	48 8d 85 80 f4 ff ff 	lea    -0xb80(%rbp),%rax
   12507:	48 05 38 02 00 00    	add    $0x238,%rax
   1250d:	48 89 85 d8 f8 ff ff 	mov    %rax,-0x728(%rbp)
   12514:	48 8d 85 80 f4 ff ff 	lea    -0xb80(%rbp),%rax
   1251b:	48 05 38 02 00 00    	add    $0x238,%rax
   12521:	48 89 85 e0 f8 ff ff 	mov    %rax,-0x720(%rbp)
   12528:	48 8d 85 80 f4 ff ff 	lea    -0xb80(%rbp),%rax
   1252f:	48 05 e8 02 00 00    	add    $0x2e8,%rax
   12535:	48 89 85 e8 f8 ff ff 	mov    %rax,-0x718(%rbp)
   1253c:	48 8d 85 80 f4 ff ff 	lea    -0xb80(%rbp),%rax
   12543:	48 05 e8 02 00 00    	add    $0x2e8,%rax
   12549:	48 89 85 f0 f8 ff ff 	mov    %rax,-0x710(%rbp)
   12550:	48 8d 85 80 f4 ff ff 	lea    -0xb80(%rbp),%rax
   12557:	48 05 e8 02 00 00    	add    $0x2e8,%rax
   1255d:	48 89 85 f8 f8 ff ff 	mov    %rax,-0x708(%rbp)
   12564:	48 8d 85 80 f4 ff ff 	lea    -0xb80(%rbp),%rax
   1256b:	48 05 e8 02 00 00    	add    $0x2e8,%rax
   12571:	48 89 85 00 f9 ff ff 	mov    %rax,-0x700(%rbp)
   12578:	48 8d 85 80 f4 ff ff 	lea    -0xb80(%rbp),%rax
   1257f:	48 05 e8 02 00 00    	add    $0x2e8,%rax
   12585:	48 89 85 08 f9 ff ff 	mov    %rax,-0x6f8(%rbp)
   1258c:	48 8d 85 80 f4 ff ff 	lea    -0xb80(%rbp),%rax
   12593:	48 05 e8 02 00 00    	add    $0x2e8,%rax
   12599:	48 89 85 10 f9 ff ff 	mov    %rax,-0x6f0(%rbp)
   125a0:	48 8d 85 80 f4 ff ff 	lea    -0xb80(%rbp),%rax
   125a7:	48 05 e8 02 00 00    	add    $0x2e8,%rax
   125ad:	48 89 85 18 f9 ff ff 	mov    %rax,-0x6e8(%rbp)
   125b4:	48 8d 85 80 f4 ff ff 	lea    -0xb80(%rbp),%rax
   125bb:	48 05 38 02 00 00    	add    $0x238,%rax
   125c1:	48 89 85 20 f9 ff ff 	mov    %rax,-0x6e0(%rbp)
   125c8:	48 8d 85 80 f4 ff ff 	lea    -0xb80(%rbp),%rax
   125cf:	48 05 38 02 00 00    	add    $0x238,%rax
   125d5:	48 89 85 28 f9 ff ff 	mov    %rax,-0x6d8(%rbp)
   125dc:	48 8d 85 80 f4 ff ff 	lea    -0xb80(%rbp),%rax
   125e3:	48 05 38 02 00 00    	add    $0x238,%rax
   125e9:	48 89 85 30 f9 ff ff 	mov    %rax,-0x6d0(%rbp)
   125f0:	48 8d 85 80 f4 ff ff 	lea    -0xb80(%rbp),%rax
   125f7:	48 05 38 02 00 00    	add    $0x238,%rax
   125fd:	48 89 85 38 f9 ff ff 	mov    %rax,-0x6c8(%rbp)
   12604:	48 8d 85 80 f4 ff ff 	lea    -0xb80(%rbp),%rax
   1260b:	48 05 38 02 00 00    	add    $0x238,%rax
   12611:	48 89 85 40 f9 ff ff 	mov    %rax,-0x6c0(%rbp)
   12618:	48 8d 85 80 f4 ff ff 	lea    -0xb80(%rbp),%rax
   1261f:	48 05 38 02 00 00    	add    $0x238,%rax
   12625:	48 89 85 48 f9 ff ff 	mov    %rax,-0x6b8(%rbp)
   1262c:	48 8d 85 80 f4 ff ff 	lea    -0xb80(%rbp),%rax
   12633:	48 05 38 02 00 00    	add    $0x238,%rax
   12639:	48 89 85 50 f9 ff ff 	mov    %rax,-0x6b0(%rbp)
   12640:	48 8d 85 80 f4 ff ff 	lea    -0xb80(%rbp),%rax
   12647:	48 05 e8 02 00 00    	add    $0x2e8,%rax
   1264d:	48 89 85 58 f9 ff ff 	mov    %rax,-0x6a8(%rbp)
   12654:	48 8d 85 80 f4 ff ff 	lea    -0xb80(%rbp),%rax
   1265b:	48 05 e8 02 00 00    	add    $0x2e8,%rax
   12661:	48 89 85 60 f9 ff ff 	mov    %rax,-0x6a0(%rbp)
   12668:	48 8d 85 80 f4 ff ff 	lea    -0xb80(%rbp),%rax
   1266f:	48 05 e8 02 00 00    	add    $0x2e8,%rax
   12675:	48 89 85 68 f9 ff ff 	mov    %rax,-0x698(%rbp)
   1267c:	48 8d 85 80 f4 ff ff 	lea    -0xb80(%rbp),%rax
   12683:	48 05 e8 02 00 00    	add    $0x2e8,%rax
   12689:	48 89 85 70 f9 ff ff 	mov    %rax,-0x690(%rbp)
   12690:	48 8d 85 80 f4 ff ff 	lea    -0xb80(%rbp),%rax
   12697:	48 05 e8 02 00 00    	add    $0x2e8,%rax
   1269d:	48 89 85 78 f9 ff ff 	mov    %rax,-0x688(%rbp)
   126a4:	48 8d 85 80 f4 ff ff 	lea    -0xb80(%rbp),%rax
   126ab:	48 05 e8 02 00 00    	add    $0x2e8,%rax
   126b1:	48 89 85 80 f9 ff ff 	mov    %rax,-0x680(%rbp)
   126b8:	48 8d 85 80 f4 ff ff 	lea    -0xb80(%rbp),%rax
   126bf:	48 05 e8 02 00 00    	add    $0x2e8,%rax
   126c5:	48 89 85 88 f9 ff ff 	mov    %rax,-0x678(%rbp)
   126cc:	48 8d 85 80 f4 ff ff 	lea    -0xb80(%rbp),%rax
   126d3:	48 05 38 02 00 00    	add    $0x238,%rax
   126d9:	48 89 85 90 f9 ff ff 	mov    %rax,-0x670(%rbp)
   126e0:	48 8d 85 80 f4 ff ff 	lea    -0xb80(%rbp),%rax
   126e7:	48 05 38 02 00 00    	add    $0x238,%rax
   126ed:	48 89 85 98 f9 ff ff 	mov    %rax,-0x668(%rbp)
   126f4:	48 8d 85 80 f4 ff ff 	lea    -0xb80(%rbp),%rax
   126fb:	48 05 38 02 00 00    	add    $0x238,%rax
   12701:	48 89 85 a0 f9 ff ff 	mov    %rax,-0x660(%rbp)
   12708:	48 8d 85 80 f4 ff ff 	lea    -0xb80(%rbp),%rax
   1270f:	48 05 38 02 00 00    	add    $0x238,%rax
   12715:	48 89 85 a8 f9 ff ff 	mov    %rax,-0x658(%rbp)
   1271c:	48 8d 85 80 f4 ff ff 	lea    -0xb80(%rbp),%rax
   12723:	48 05 38 02 00 00    	add    $0x238,%rax
   12729:	48 89 85 b0 f9 ff ff 	mov    %rax,-0x650(%rbp)
   12730:	48 8d 85 80 f4 ff ff 	lea    -0xb80(%rbp),%rax
   12737:	48 05 38 02 00 00    	add    $0x238,%rax
   1273d:	48 89 85 b8 f9 ff ff 	mov    %rax,-0x648(%rbp)
   12744:	48 8d 85 80 f4 ff ff 	lea    -0xb80(%rbp),%rax
   1274b:	48 05 38 02 00 00    	add    $0x238,%rax
   12751:	48 89 85 c0 f9 ff ff 	mov    %rax,-0x640(%rbp)
   12758:	48 8d 85 80 f4 ff ff 	lea    -0xb80(%rbp),%rax
   1275f:	48 05 e8 02 00 00    	add    $0x2e8,%rax
   12765:	48 89 85 c8 f9 ff ff 	mov    %rax,-0x638(%rbp)
   1276c:	48 8d 85 80 f4 ff ff 	lea    -0xb80(%rbp),%rax
   12773:	48 05 e8 02 00 00    	add    $0x2e8,%rax
   12779:	48 89 85 d0 f9 ff ff 	mov    %rax,-0x630(%rbp)
   12780:	48 8d 85 80 f4 ff ff 	lea    -0xb80(%rbp),%rax
   12787:	48 05 e8 02 00 00    	add    $0x2e8,%rax
   1278d:	48 89 85 d8 f9 ff ff 	mov    %rax,-0x628(%rbp)
   12794:	48 8d 85 80 f4 ff ff 	lea    -0xb80(%rbp),%rax
   1279b:	48 05 e8 02 00 00    	add    $0x2e8,%rax
   127a1:	48 89 85 e0 f9 ff ff 	mov    %rax,-0x620(%rbp)
   127a8:	48 8d 85 80 f4 ff ff 	lea    -0xb80(%rbp),%rax
   127af:	48 05 e8 02 00 00    	add    $0x2e8,%rax
   127b5:	48 89 85 e8 f9 ff ff 	mov    %rax,-0x618(%rbp)
   127bc:	48 8d 85 80 f4 ff ff 	lea    -0xb80(%rbp),%rax
   127c3:	48 05 e8 02 00 00    	add    $0x2e8,%rax
   127c9:	48 89 85 f0 f9 ff ff 	mov    %rax,-0x610(%rbp)
   127d0:	48 8d 85 80 f4 ff ff 	lea    -0xb80(%rbp),%rax
   127d7:	48 05 e8 02 00 00    	add    $0x2e8,%rax
   127dd:	48 89 85 f8 f9 ff ff 	mov    %rax,-0x608(%rbp)
   127e4:	48 8d 85 80 f4 ff ff 	lea    -0xb80(%rbp),%rax
   127eb:	48 05 38 02 00 00    	add    $0x238,%rax
   127f1:	48 89 85 00 fa ff ff 	mov    %rax,-0x600(%rbp)
   127f8:	48 8d 85 80 f4 ff ff 	lea    -0xb80(%rbp),%rax
   127ff:	48 05 38 02 00 00    	add    $0x238,%rax
   12805:	48 89 85 08 fa ff ff 	mov    %rax,-0x5f8(%rbp)
   1280c:	48 8d 85 80 f4 ff ff 	lea    -0xb80(%rbp),%rax
   12813:	48 05 38 02 00 00    	add    $0x238,%rax
   12819:	48 89 85 10 fa ff ff 	mov    %rax,-0x5f0(%rbp)
   12820:	48 8d 85 80 f4 ff ff 	lea    -0xb80(%rbp),%rax
   12827:	48 05 38 02 00 00    	add    $0x238,%rax
   1282d:	48 89 85 18 fa ff ff 	mov    %rax,-0x5e8(%rbp)
   12834:	48 8d 85 80 f4 ff ff 	lea    -0xb80(%rbp),%rax
   1283b:	48 05 38 02 00 00    	add    $0x238,%rax
   12841:	48 89 85 20 fa ff ff 	mov    %rax,-0x5e0(%rbp)
   12848:	48 8d 85 80 f4 ff ff 	lea    -0xb80(%rbp),%rax
   1284f:	48 05 38 02 00 00    	add    $0x238,%rax
   12855:	48 89 85 28 fa ff ff 	mov    %rax,-0x5d8(%rbp)
   1285c:	48 8d 85 80 f4 ff ff 	lea    -0xb80(%rbp),%rax
   12863:	48 05 38 02 00 00    	add    $0x238,%rax
   12869:	48 89 85 30 fa ff ff 	mov    %rax,-0x5d0(%rbp)
   12870:	48 8d 85 80 f4 ff ff 	lea    -0xb80(%rbp),%rax
   12877:	48 05 e8 02 00 00    	add    $0x2e8,%rax
   1287d:	48 89 85 38 fa ff ff 	mov    %rax,-0x5c8(%rbp)
   12884:	48 8d 85 80 f4 ff ff 	lea    -0xb80(%rbp),%rax
   1288b:	48 05 e8 02 00 00    	add    $0x2e8,%rax
   12891:	48 89 85 40 fa ff ff 	mov    %rax,-0x5c0(%rbp)
   12898:	48 8d 85 80 f4 ff ff 	lea    -0xb80(%rbp),%rax
   1289f:	48 05 e8 02 00 00    	add    $0x2e8,%rax
   128a5:	48 89 85 48 fa ff ff 	mov    %rax,-0x5b8(%rbp)
   128ac:	48 8d 85 80 f4 ff ff 	lea    -0xb80(%rbp),%rax
   128b3:	48 05 e8 02 00 00    	add    $0x2e8,%rax
   128b9:	48 89 85 50 fa ff ff 	mov    %rax,-0x5b0(%rbp)
   128c0:	48 8d 85 80 f4 ff ff 	lea    -0xb80(%rbp),%rax
   128c7:	48 05 e8 02 00 00    	add    $0x2e8,%rax
   128cd:	48 89 85 58 fa ff ff 	mov    %rax,-0x5a8(%rbp)
   128d4:	48 8d 85 80 f4 ff ff 	lea    -0xb80(%rbp),%rax
   128db:	48 05 e8 02 00 00    	add    $0x2e8,%rax
   128e1:	48 89 85 60 fa ff ff 	mov    %rax,-0x5a0(%rbp)
   128e8:	48 8d 85 80 f4 ff ff 	lea    -0xb80(%rbp),%rax
   128ef:	48 05 e8 02 00 00    	add    $0x2e8,%rax
   128f5:	48 89 85 68 fa ff ff 	mov    %rax,-0x598(%rbp)
   128fc:	48 8d 85 80 f4 ff ff 	lea    -0xb80(%rbp),%rax
   12903:	48 05 38 02 00 00    	add    $0x238,%rax
   12909:	48 89 85 70 fa ff ff 	mov    %rax,-0x590(%rbp)
   12910:	48 8d 85 80 f4 ff ff 	lea    -0xb80(%rbp),%rax
   12917:	48 05 38 02 00 00    	add    $0x238,%rax
   1291d:	48 89 85 78 fa ff ff 	mov    %rax,-0x588(%rbp)
   12924:	48 8d 85 80 f4 ff ff 	lea    -0xb80(%rbp),%rax
   1292b:	48 05 38 02 00 00    	add    $0x238,%rax
   12931:	48 89 85 80 fa ff ff 	mov    %rax,-0x580(%rbp)
   12938:	48 8d 85 80 f4 ff ff 	lea    -0xb80(%rbp),%rax
   1293f:	48 05 38 02 00 00    	add    $0x238,%rax
   12945:	48 89 85 88 fa ff ff 	mov    %rax,-0x578(%rbp)
   1294c:	48 8d 85 80 f4 ff ff 	lea    -0xb80(%rbp),%rax
   12953:	48 05 38 02 00 00    	add    $0x238,%rax
   12959:	48 89 85 90 fa ff ff 	mov    %rax,-0x570(%rbp)
   12960:	48 8d 85 80 f4 ff ff 	lea    -0xb80(%rbp),%rax
   12967:	48 05 38 02 00 00    	add    $0x238,%rax
   1296d:	48 89 85 98 fa ff ff 	mov    %rax,-0x568(%rbp)
   12974:	48 8d 85 80 f4 ff ff 	lea    -0xb80(%rbp),%rax
   1297b:	48 05 38 02 00 00    	add    $0x238,%rax
   12981:	48 89 85 a0 fa ff ff 	mov    %rax,-0x560(%rbp)
   12988:	48 8d 85 80 f4 ff ff 	lea    -0xb80(%rbp),%rax
   1298f:	48 05 e8 02 00 00    	add    $0x2e8,%rax
   12995:	48 89 85 a8 fa ff ff 	mov    %rax,-0x558(%rbp)
   1299c:	48 8d 85 80 f4 ff ff 	lea    -0xb80(%rbp),%rax
   129a3:	48 05 e8 02 00 00    	add    $0x2e8,%rax
   129a9:	48 89 85 b0 fa ff ff 	mov    %rax,-0x550(%rbp)
   129b0:	48 8d 85 80 f4 ff ff 	lea    -0xb80(%rbp),%rax
   129b7:	48 05 e8 02 00 00    	add    $0x2e8,%rax
   129bd:	48 89 85 b8 fa ff ff 	mov    %rax,-0x548(%rbp)
   129c4:	48 8d 85 80 f4 ff ff 	lea    -0xb80(%rbp),%rax
   129cb:	48 05 e8 02 00 00    	add    $0x2e8,%rax
   129d1:	48 89 85 c0 fa ff ff 	mov    %rax,-0x540(%rbp)
   129d8:	48 8d 85 80 f4 ff ff 	lea    -0xb80(%rbp),%rax
   129df:	48 05 e8 02 00 00    	add    $0x2e8,%rax
   129e5:	48 89 85 c8 fa ff ff 	mov    %rax,-0x538(%rbp)
   129ec:	48 8d 85 80 f4 ff ff 	lea    -0xb80(%rbp),%rax
   129f3:	48 05 e8 02 00 00    	add    $0x2e8,%rax
   129f9:	48 89 85 d0 fa ff ff 	mov    %rax,-0x530(%rbp)
   12a00:	48 8d 85 80 f4 ff ff 	lea    -0xb80(%rbp),%rax
   12a07:	48 05 e8 02 00 00    	add    $0x2e8,%rax
   12a0d:	48 89 85 d8 fa ff ff 	mov    %rax,-0x528(%rbp)
   12a14:	48 8d 85 80 f4 ff ff 	lea    -0xb80(%rbp),%rax
   12a1b:	48 05 38 02 00 00    	add    $0x238,%rax
   12a21:	48 89 85 e0 fa ff ff 	mov    %rax,-0x520(%rbp)
   12a28:	48 8d 85 80 f4 ff ff 	lea    -0xb80(%rbp),%rax
   12a2f:	48 05 38 02 00 00    	add    $0x238,%rax
   12a35:	48 89 85 e8 fa ff ff 	mov    %rax,-0x518(%rbp)
   12a3c:	48 8d 85 80 f4 ff ff 	lea    -0xb80(%rbp),%rax
   12a43:	48 05 38 02 00 00    	add    $0x238,%rax
   12a49:	48 89 85 f0 fa ff ff 	mov    %rax,-0x510(%rbp)
   12a50:	48 8d 85 80 f4 ff ff 	lea    -0xb80(%rbp),%rax
   12a57:	48 05 38 02 00 00    	add    $0x238,%rax
   12a5d:	48 89 85 f8 fa ff ff 	mov    %rax,-0x508(%rbp)
   12a64:	48 8d 85 80 f4 ff ff 	lea    -0xb80(%rbp),%rax
   12a6b:	48 05 38 02 00 00    	add    $0x238,%rax
   12a71:	48 89 85 00 fb ff ff 	mov    %rax,-0x500(%rbp)
   12a78:	48 8d 85 80 f4 ff ff 	lea    -0xb80(%rbp),%rax
   12a7f:	48 05 38 02 00 00    	add    $0x238,%rax
   12a85:	48 89 85 08 fb ff ff 	mov    %rax,-0x4f8(%rbp)
   12a8c:	48 8d 85 80 f4 ff ff 	lea    -0xb80(%rbp),%rax
   12a93:	48 05 38 02 00 00    	add    $0x238,%rax
   12a99:	48 89 85 10 fb ff ff 	mov    %rax,-0x4f0(%rbp)
   12aa0:	48 8d 85 80 f4 ff ff 	lea    -0xb80(%rbp),%rax
   12aa7:	48 05 e8 02 00 00    	add    $0x2e8,%rax
   12aad:	48 89 85 18 fb ff ff 	mov    %rax,-0x4e8(%rbp)
   12ab4:	48 8d 85 80 f4 ff ff 	lea    -0xb80(%rbp),%rax
   12abb:	48 05 e8 02 00 00    	add    $0x2e8,%rax
   12ac1:	48 89 85 20 fb ff ff 	mov    %rax,-0x4e0(%rbp)
   12ac8:	48 8d 85 80 f4 ff ff 	lea    -0xb80(%rbp),%rax
   12acf:	48 05 e8 02 00 00    	add    $0x2e8,%rax
   12ad5:	48 89 85 28 fb ff ff 	mov    %rax,-0x4d8(%rbp)
   12adc:	48 8d 85 80 f4 ff ff 	lea    -0xb80(%rbp),%rax
   12ae3:	48 05 e8 02 00 00    	add    $0x2e8,%rax
   12ae9:	48 89 85 30 fb ff ff 	mov    %rax,-0x4d0(%rbp)
   12af0:	48 8d 85 80 f4 ff ff 	lea    -0xb80(%rbp),%rax
   12af7:	48 05 e8 02 00 00    	add    $0x2e8,%rax
   12afd:	48 89 85 38 fb ff ff 	mov    %rax,-0x4c8(%rbp)
   12b04:	48 8d 85 80 f4 ff ff 	lea    -0xb80(%rbp),%rax
   12b0b:	48 05 e8 02 00 00    	add    $0x2e8,%rax
   12b11:	48 89 85 40 fb ff ff 	mov    %rax,-0x4c0(%rbp)
   12b18:	48 8d 85 80 f4 ff ff 	lea    -0xb80(%rbp),%rax
   12b1f:	48 05 e8 02 00 00    	add    $0x2e8,%rax
   12b25:	48 89 85 48 fb ff ff 	mov    %rax,-0x4b8(%rbp)
   12b2c:	48 8d 85 80 f4 ff ff 	lea    -0xb80(%rbp),%rax
   12b33:	48 05 38 02 00 00    	add    $0x238,%rax
   12b39:	48 89 85 50 fb ff ff 	mov    %rax,-0x4b0(%rbp)
   12b40:	48 8d 85 80 f4 ff ff 	lea    -0xb80(%rbp),%rax
   12b47:	48 05 38 02 00 00    	add    $0x238,%rax
   12b4d:	48 89 85 58 fb ff ff 	mov    %rax,-0x4a8(%rbp)
   12b54:	48 8d 85 80 f4 ff ff 	lea    -0xb80(%rbp),%rax
   12b5b:	48 05 38 02 00 00    	add    $0x238,%rax
   12b61:	48 89 85 60 fb ff ff 	mov    %rax,-0x4a0(%rbp)
   12b68:	48 8d 85 80 f4 ff ff 	lea    -0xb80(%rbp),%rax
   12b6f:	48 05 38 02 00 00    	add    $0x238,%rax
   12b75:	48 89 85 68 fb ff ff 	mov    %rax,-0x498(%rbp)
   12b7c:	48 8d 85 80 f4 ff ff 	lea    -0xb80(%rbp),%rax
   12b83:	48 05 38 02 00 00    	add    $0x238,%rax
   12b89:	48 89 85 70 fb ff ff 	mov    %rax,-0x490(%rbp)
   12b90:	48 8d 85 80 f4 ff ff 	lea    -0xb80(%rbp),%rax
   12b97:	48 05 38 02 00 00    	add    $0x238,%rax
   12b9d:	48 89 85 78 fb ff ff 	mov    %rax,-0x488(%rbp)
   12ba4:	48 8d 85 80 f4 ff ff 	lea    -0xb80(%rbp),%rax
   12bab:	48 05 38 02 00 00    	add    $0x238,%rax
   12bb1:	48 89 85 80 fb ff ff 	mov    %rax,-0x480(%rbp)
   12bb8:	48 8d 85 80 f4 ff ff 	lea    -0xb80(%rbp),%rax
   12bbf:	48 05 e8 02 00 00    	add    $0x2e8,%rax
   12bc5:	48 89 85 88 fb ff ff 	mov    %rax,-0x478(%rbp)
   12bcc:	48 8d 85 80 f4 ff ff 	lea    -0xb80(%rbp),%rax
   12bd3:	48 05 e8 02 00 00    	add    $0x2e8,%rax
   12bd9:	48 89 85 90 fb ff ff 	mov    %rax,-0x470(%rbp)
   12be0:	48 8d 85 80 f4 ff ff 	lea    -0xb80(%rbp),%rax
   12be7:	48 05 e8 02 00 00    	add    $0x2e8,%rax
   12bed:	48 89 85 98 fb ff ff 	mov    %rax,-0x468(%rbp)
   12bf4:	48 8d 85 80 f4 ff ff 	lea    -0xb80(%rbp),%rax
   12bfb:	48 05 e8 02 00 00    	add    $0x2e8,%rax
   12c01:	48 89 85 a0 fb ff ff 	mov    %rax,-0x460(%rbp)
   12c08:	48 8d 85 80 f4 ff ff 	lea    -0xb80(%rbp),%rax
   12c0f:	48 05 e8 02 00 00    	add    $0x2e8,%rax
   12c15:	48 89 85 a8 fb ff ff 	mov    %rax,-0x458(%rbp)
   12c1c:	48 8d 85 80 f4 ff ff 	lea    -0xb80(%rbp),%rax
   12c23:	48 05 e8 02 00 00    	add    $0x2e8,%rax
   12c29:	48 89 85 b0 fb ff ff 	mov    %rax,-0x450(%rbp)
   12c30:	48 8d 85 80 f4 ff ff 	lea    -0xb80(%rbp),%rax
   12c37:	48 05 e8 02 00 00    	add    $0x2e8,%rax
   12c3d:	48 89 85 b8 fb ff ff 	mov    %rax,-0x448(%rbp)
   12c44:	48 8d 85 80 f4 ff ff 	lea    -0xb80(%rbp),%rax
   12c4b:	48 05 38 02 00 00    	add    $0x238,%rax
   12c51:	48 89 85 c0 fb ff ff 	mov    %rax,-0x440(%rbp)
   12c58:	48 8d 85 80 f4 ff ff 	lea    -0xb80(%rbp),%rax
   12c5f:	48 05 38 02 00 00    	add    $0x238,%rax
   12c65:	48 89 85 c8 fb ff ff 	mov    %rax,-0x438(%rbp)
   12c6c:	48 8d 85 80 f4 ff ff 	lea    -0xb80(%rbp),%rax
   12c73:	48 05 38 02 00 00    	add    $0x238,%rax
   12c79:	48 89 85 d0 fb ff ff 	mov    %rax,-0x430(%rbp)
   12c80:	48 8d 85 80 f4 ff ff 	lea    -0xb80(%rbp),%rax
   12c87:	48 05 38 02 00 00    	add    $0x238,%rax
   12c8d:	48 89 85 d8 fb ff ff 	mov    %rax,-0x428(%rbp)
   12c94:	48 8d 85 80 f4 ff ff 	lea    -0xb80(%rbp),%rax
   12c9b:	48 05 38 02 00 00    	add    $0x238,%rax
   12ca1:	48 89 85 e0 fb ff ff 	mov    %rax,-0x420(%rbp)
   12ca8:	48 8d 85 80 f4 ff ff 	lea    -0xb80(%rbp),%rax
   12caf:	48 05 38 02 00 00    	add    $0x238,%rax
   12cb5:	48 89 85 e8 fb ff ff 	mov    %rax,-0x418(%rbp)
   12cbc:	48 8d 85 80 f4 ff ff 	lea    -0xb80(%rbp),%rax
   12cc3:	48 05 38 02 00 00    	add    $0x238,%rax
   12cc9:	48 89 85 f0 fb ff ff 	mov    %rax,-0x410(%rbp)
   12cd0:	48 8d 85 80 f4 ff ff 	lea    -0xb80(%rbp),%rax
   12cd7:	48 05 e8 02 00 00    	add    $0x2e8,%rax
   12cdd:	48 89 85 f8 fb ff ff 	mov    %rax,-0x408(%rbp)
   12ce4:	48 8d 85 80 f4 ff ff 	lea    -0xb80(%rbp),%rax
   12ceb:	48 05 e8 02 00 00    	add    $0x2e8,%rax
   12cf1:	48 89 85 00 fc ff ff 	mov    %rax,-0x400(%rbp)
   12cf8:	48 8d 85 80 f4 ff ff 	lea    -0xb80(%rbp),%rax
   12cff:	48 05 e8 02 00 00    	add    $0x2e8,%rax
   12d05:	48 89 85 08 fc ff ff 	mov    %rax,-0x3f8(%rbp)
   12d0c:	48 8d 85 80 f4 ff ff 	lea    -0xb80(%rbp),%rax
   12d13:	48 05 e8 02 00 00    	add    $0x2e8,%rax
   12d19:	48 89 85 10 fc ff ff 	mov    %rax,-0x3f0(%rbp)
   12d20:	48 8d 85 80 f4 ff ff 	lea    -0xb80(%rbp),%rax
   12d27:	48 05 e8 02 00 00    	add    $0x2e8,%rax
   12d2d:	48 89 85 18 fc ff ff 	mov    %rax,-0x3e8(%rbp)
   12d34:	48 8d 85 80 f4 ff ff 	lea    -0xb80(%rbp),%rax
   12d3b:	48 05 e8 02 00 00    	add    $0x2e8,%rax
   12d41:	48 89 85 20 fc ff ff 	mov    %rax,-0x3e0(%rbp)
   12d48:	48 8d 85 80 f4 ff ff 	lea    -0xb80(%rbp),%rax
   12d4f:	48 05 e8 02 00 00    	add    $0x2e8,%rax
   12d55:	48 89 85 28 fc ff ff 	mov    %rax,-0x3d8(%rbp)
   12d5c:	c7 85 14 e2 ff ff 00 	movl   $0x0,-0x1dec(%rbp)
   12d63:	00 00 00 
   12d66:	eb 1e                	jmp    12d86 <func_24+0x2f70>
   12d68:	8b 85 14 e2 ff ff    	mov    -0x1dec(%rbp),%eax
   12d6e:	48 98                	cltq   
   12d70:	48 8d 95 68 e3 ff ff 	lea    -0x1c98(%rbp),%rdx
   12d77:	48 89 94 c5 70 e6 ff 	mov    %rdx,-0x1990(%rbp,%rax,8)
   12d7e:	ff 
   12d7f:	83 85 14 e2 ff ff 01 	addl   $0x1,-0x1dec(%rbp)
   12d86:	83 bd 14 e2 ff ff 01 	cmpl   $0x1,-0x1dec(%rbp)
   12d8d:	7e d9                	jle    12d68 <func_24+0x2f52>
   12d8f:	48 83 bd d0 e3 ff ff 	cmpq   $0x0,-0x1c30(%rbp)
   12d96:	00 
   12d97:	0f 84 6b 07 00 00    	je     13508 <func_24+0x36f2>
   12d9d:	8b 85 b0 e1 ff ff    	mov    -0x1e50(%rbp),%eax
   12da3:	0f b6 d8             	movzbl %al,%ebx
   12da6:	0f b7 85 ac e1 ff ff 	movzwl -0x1e54(%rbp),%eax
   12dad:	44 0f bf e0          	movswl %ax,%r12d
   12db1:	0f b7 05 14 c4 00 00 	movzwl 0xc414(%rip),%eax        # 1f1cc <g_422>
   12db8:	44 0f be e8          	movsbl %al,%r13d
   12dbc:	48 8b 05 a5 e6 00 00 	mov    0xe6a5(%rip),%rax        # 21468 <g_83>
   12dc3:	0f b7 00             	movzwl (%rax),%eax
   12dc6:	0f b7 d0             	movzwl %ax,%edx
   12dc9:	48 8b 85 a0 e3 ff ff 	mov    -0x1c60(%rbp),%rax
   12dd0:	0f b7 c0             	movzwl %ax,%eax
   12dd3:	89 d6                	mov    %edx,%esi
   12dd5:	89 c7                	mov    %eax,%edi
   12dd7:	e8 61 5f ff ff       	callq  8d3d <safe_mul_func_uint16_t_u_u>
   12ddc:	8b 85 48 e2 ff ff    	mov    -0x1db8(%rbp),%eax
   12de2:	0f b7 c0             	movzwl %ax,%eax
   12de5:	89 c6                	mov    %eax,%esi
   12de7:	bf 00 00 00 00       	mov    $0x0,%edi
   12dec:	e8 4c 5f ff ff       	callq  8d3d <safe_mul_func_uint16_t_u_u>
   12df1:	66 3d f1 00          	cmp    $0xf1,%ax
   12df5:	0f 95 c0             	setne  %al
   12df8:	0f b6 c0             	movzbl %al,%eax
   12dfb:	be 00 00 00 00       	mov    $0x0,%esi
   12e00:	89 c7                	mov    %eax,%edi
   12e02:	e8 b7 5f ff ff       	callq  8dbe <safe_lshift_func_uint16_t_u_s>
   12e07:	0f be c0             	movsbl %al,%eax
   12e0a:	44 89 ee             	mov    %r13d,%esi
   12e0d:	89 c7                	mov    %eax,%edi
   12e0f:	e8 fe 53 ff ff       	callq  8212 <safe_mul_func_int8_t_s_s>
   12e14:	0f be c0             	movsbl %al,%eax
   12e17:	be 01 00 00 00       	mov    $0x1,%esi
   12e1c:	89 c7                	mov    %eax,%edi
   12e1e:	e8 ad 60 ff ff       	callq  8ed0 <safe_sub_func_uint32_t_u_u>
   12e23:	44 89 e6             	mov    %r12d,%esi
   12e26:	89 c7                	mov    %eax,%edi
   12e28:	e8 89 57 ff ff       	callq  85b6 <safe_add_func_int32_t_s_s>
   12e2d:	0f b7 85 00 e3 ff ff 	movzwl -0x1d00(%rbp),%eax
   12e34:	0f b7 d0             	movzwl %ax,%edx
   12e37:	8b 85 e0 e1 ff ff    	mov    -0x1e20(%rbp),%eax
   12e3d:	39 c2                	cmp    %eax,%edx
   12e3f:	0f 92 c0             	setb   %al
   12e42:	0f b6 d0             	movzbl %al,%edx
   12e45:	8b 85 ec e1 ff ff    	mov    -0x1e14(%rbp),%eax
   12e4b:	21 d0                	and    %edx,%eax
   12e4d:	89 85 ec e1 ff ff    	mov    %eax,-0x1e14(%rbp)
   12e53:	8b 85 ec e1 ff ff    	mov    -0x1e14(%rbp),%eax
   12e59:	0f b6 c0             	movzbl %al,%eax
   12e5c:	89 de                	mov    %ebx,%esi
   12e5e:	89 c7                	mov    %eax,%edi
   12e60:	e8 2e 5d ff ff       	callq  8b93 <safe_mul_func_uint8_t_u_u>
   12e65:	0f be c0             	movsbl %al,%eax
   12e68:	be 04 00 00 00       	mov    $0x4,%esi
   12e6d:	89 c7                	mov    %eax,%edi
   12e6f:	e8 c1 54 ff ff       	callq  8335 <safe_rshift_func_int8_t_s_s>
   12e74:	48 8d 85 e0 e2 ff ff 	lea    -0x1d20(%rbp),%rax
   12e7b:	48 89 85 a0 e6 ff ff 	mov    %rax,-0x1960(%rbp)
   12e82:	48 8d 85 e0 e2 ff ff 	lea    -0x1d20(%rbp),%rax
   12e89:	48 89 85 a8 e6 ff ff 	mov    %rax,-0x1958(%rbp)
   12e90:	48 8d 85 e0 e2 ff ff 	lea    -0x1d20(%rbp),%rax
   12e97:	48 89 85 b0 e6 ff ff 	mov    %rax,-0x1950(%rbp)
   12e9e:	48 8d 85 e0 e2 ff ff 	lea    -0x1d20(%rbp),%rax
   12ea5:	48 89 85 b8 e6 ff ff 	mov    %rax,-0x1948(%rbp)
   12eac:	48 8d 85 e0 e2 ff ff 	lea    -0x1d20(%rbp),%rax
   12eb3:	48 89 85 c0 e6 ff ff 	mov    %rax,-0x1940(%rbp)
   12eba:	48 8d 85 e0 e1 ff ff 	lea    -0x1e20(%rbp),%rax
   12ec1:	48 89 85 10 e7 ff ff 	mov    %rax,-0x18f0(%rbp)
   12ec8:	48 8d 85 e0 e1 ff ff 	lea    -0x1e20(%rbp),%rax
   12ecf:	48 89 85 18 e7 ff ff 	mov    %rax,-0x18e8(%rbp)
   12ed6:	48 8d 85 e0 e1 ff ff 	lea    -0x1e20(%rbp),%rax
   12edd:	48 89 85 20 e7 ff ff 	mov    %rax,-0x18e0(%rbp)
   12ee4:	48 8d 85 e0 e1 ff ff 	lea    -0x1e20(%rbp),%rax
   12eeb:	48 89 85 28 e7 ff ff 	mov    %rax,-0x18d8(%rbp)
   12ef2:	48 8d 85 e0 e1 ff ff 	lea    -0x1e20(%rbp),%rax
   12ef9:	48 89 85 30 e7 ff ff 	mov    %rax,-0x18d0(%rbp)
   12f00:	48 8d 85 e0 e1 ff ff 	lea    -0x1e20(%rbp),%rax
   12f07:	48 89 85 38 e7 ff ff 	mov    %rax,-0x18c8(%rbp)
   12f0e:	48 8d 85 e0 e1 ff ff 	lea    -0x1e20(%rbp),%rax
   12f15:	48 89 85 40 e7 ff ff 	mov    %rax,-0x18c0(%rbp)
   12f1c:	48 8d 85 e0 e1 ff ff 	lea    -0x1e20(%rbp),%rax
   12f23:	48 89 85 48 e7 ff ff 	mov    %rax,-0x18b8(%rbp)
   12f2a:	c7 85 5c e2 ff ff 00 	movl   $0x0,-0x1da4(%rbp)
   12f31:	00 00 00 
   12f34:	c6 05 86 c3 00 00 00 	movb   $0x0,0xc386(%rip)        # 1f2c1 <g_791+0x1>
   12f3b:	e9 b4 05 00 00       	jmpq   134f4 <func_24+0x36de>
   12f40:	48 c7 85 88 e4 ff ff 	movq   $0x0,-0x1b78(%rbp)
   12f47:	00 00 00 00 
   12f4b:	48 8d 85 e0 e1 ff ff 	lea    -0x1e20(%rbp),%rax
   12f52:	48 89 85 90 e4 ff ff 	mov    %rax,-0x1b70(%rbp)
   12f59:	c7 85 60 e2 ff ff 93 	movl   $0x54ed3593,-0x1da0(%rbp)
   12f60:	35 ed 54 
   12f63:	48 8d 05 62 c2 00 00 	lea    0xc262(%rip),%rax        # 1f1cc <g_422>
   12f6a:	48 89 85 70 ed ff ff 	mov    %rax,-0x1290(%rbp)
   12f71:	48 8d 85 d0 e1 ff ff 	lea    -0x1e30(%rbp),%rax
   12f78:	48 89 85 78 ed ff ff 	mov    %rax,-0x1288(%rbp)
   12f7f:	48 c7 85 80 ed ff ff 	movq   $0x0,-0x1280(%rbp)
   12f86:	00 00 00 00 
   12f8a:	48 8d 85 d0 e1 ff ff 	lea    -0x1e30(%rbp),%rax
   12f91:	48 89 85 88 ed ff ff 	mov    %rax,-0x1278(%rbp)
   12f98:	48 8d 05 2d c2 00 00 	lea    0xc22d(%rip),%rax        # 1f1cc <g_422>
   12f9f:	48 89 85 90 ed ff ff 	mov    %rax,-0x1270(%rbp)
   12fa6:	48 8d 05 ff c0 00 00 	lea    0xc0ff(%rip),%rax        # 1f0ac <g_158>
   12fad:	48 89 85 98 ed ff ff 	mov    %rax,-0x1268(%rbp)
   12fb4:	48 c7 85 a0 ed ff ff 	movq   $0x0,-0x1260(%rbp)
   12fbb:	00 00 00 00 
   12fbf:	48 c7 85 a8 ed ff ff 	movq   $0x0,-0x1258(%rbp)
   12fc6:	00 00 00 00 
   12fca:	48 8d 05 db c0 00 00 	lea    0xc0db(%rip),%rax        # 1f0ac <g_158>
   12fd1:	48 89 85 b0 ed ff ff 	mov    %rax,-0x1250(%rbp)
   12fd8:	48 8d 05 ed c1 00 00 	lea    0xc1ed(%rip),%rax        # 1f1cc <g_422>
   12fdf:	48 89 85 b8 ed ff ff 	mov    %rax,-0x1248(%rbp)
   12fe6:	48 8d 05 df c1 00 00 	lea    0xc1df(%rip),%rax        # 1f1cc <g_422>
   12fed:	48 89 85 c0 ed ff ff 	mov    %rax,-0x1240(%rbp)
   12ff4:	48 8d 05 b1 c0 00 00 	lea    0xc0b1(%rip),%rax        # 1f0ac <g_158>
   12ffb:	48 89 85 c8 ed ff ff 	mov    %rax,-0x1238(%rbp)
   13002:	48 8d 05 c3 c1 00 00 	lea    0xc1c3(%rip),%rax        # 1f1cc <g_422>
   13009:	48 89 85 d0 ed ff ff 	mov    %rax,-0x1230(%rbp)
   13010:	48 8d 05 95 c0 00 00 	lea    0xc095(%rip),%rax        # 1f0ac <g_158>
   13017:	48 89 85 d8 ed ff ff 	mov    %rax,-0x1228(%rbp)
   1301e:	48 8d 05 a7 c1 00 00 	lea    0xc1a7(%rip),%rax        # 1f1cc <g_422>
   13025:	48 89 85 e0 ed ff ff 	mov    %rax,-0x1220(%rbp)
   1302c:	48 c7 85 e8 ed ff ff 	movq   $0x0,-0x1218(%rbp)
   13033:	00 00 00 00 
   13037:	48 8d 05 8e c1 00 00 	lea    0xc18e(%rip),%rax        # 1f1cc <g_422>
   1303e:	48 89 85 f0 ed ff ff 	mov    %rax,-0x1210(%rbp)
   13045:	48 8d 05 80 c1 00 00 	lea    0xc180(%rip),%rax        # 1f1cc <g_422>
   1304c:	48 89 85 f8 ed ff ff 	mov    %rax,-0x1208(%rbp)
   13053:	48 8d 05 72 c1 00 00 	lea    0xc172(%rip),%rax        # 1f1cc <g_422>
   1305a:	48 89 85 00 ee ff ff 	mov    %rax,-0x1200(%rbp)
   13061:	48 c7 85 08 ee ff ff 	movq   $0x0,-0x11f8(%rbp)
   13068:	00 00 00 00 
   1306c:	48 8d 05 39 c0 00 00 	lea    0xc039(%rip),%rax        # 1f0ac <g_158>
   13073:	48 89 85 10 ee ff ff 	mov    %rax,-0x11f0(%rbp)
   1307a:	48 c7 85 18 ee ff ff 	movq   $0x0,-0x11e8(%rbp)
   13081:	00 00 00 00 
   13085:	48 c7 85 20 ee ff ff 	movq   $0x0,-0x11e0(%rbp)
   1308c:	00 00 00 00 
   13090:	48 c7 85 28 ee ff ff 	movq   $0x0,-0x11d8(%rbp)
   13097:	00 00 00 00 
   1309b:	48 8d 05 2a c1 00 00 	lea    0xc12a(%rip),%rax        # 1f1cc <g_422>
   130a2:	48 89 85 30 ee ff ff 	mov    %rax,-0x11d0(%rbp)
   130a9:	48 8d 05 1c c1 00 00 	lea    0xc11c(%rip),%rax        # 1f1cc <g_422>
   130b0:	48 89 85 38 ee ff ff 	mov    %rax,-0x11c8(%rbp)
   130b7:	48 8d 05 0e c1 00 00 	lea    0xc10e(%rip),%rax        # 1f1cc <g_422>
   130be:	48 89 85 40 ee ff ff 	mov    %rax,-0x11c0(%rbp)
   130c5:	48 c7 85 48 ee ff ff 	movq   $0x0,-0x11b8(%rbp)
   130cc:	00 00 00 00 
   130d0:	48 8d 85 f0 e2 ff ff 	lea    -0x1d10(%rbp),%rax
   130d7:	48 89 85 98 e4 ff ff 	mov    %rax,-0x1b68(%rbp)
   130de:	0f b7 85 ac e1 ff ff 	movzwl -0x1e54(%rbp),%eax
   130e5:	44 0f bf e8          	movswl %ax,%r13d
   130e9:	0f b6 05 d1 c1 00 00 	movzbl 0xc1d1(%rip),%eax        # 1f2c1 <g_791+0x1>
   130f0:	0f b6 c0             	movzbl %al,%eax
   130f3:	48 98                	cltq   
   130f5:	48 8d 14 c5 00 00 00 	lea    0x0(,%rax,8),%rdx
   130fc:	00 
   130fd:	48 8d 05 9c ea 00 00 	lea    0xea9c(%rip),%rax        # 21ba0 <g_854>
   13104:	48 8b 04 02          	mov    (%rdx,%rax,1),%rax
   13108:	48 39 85 98 e3 ff ff 	cmp    %rax,-0x1c68(%rbp)
   1310f:	8b 85 60 e2 ff ff    	mov    -0x1da0(%rbp),%eax
   13115:	48 63 d8             	movslq %eax,%rbx
   13118:	0f b7 05 53 bf 00 00 	movzwl 0xbf53(%rip),%eax        # 1f072 <g_121+0x2>
   1311f:	44 0f b7 e0          	movzwl %ax,%r12d
   13123:	0f b7 85 ac e1 ff ff 	movzwl -0x1e54(%rbp),%eax
   1312a:	0f bf d0             	movswl %ax,%edx
   1312d:	8b 85 b4 e1 ff ff    	mov    -0x1e4c(%rbp),%eax
   13133:	89 d6                	mov    %edx,%esi
   13135:	89 c7                	mov    %eax,%edi
   13137:	e8 c1 5d ff ff       	callq  8efd <safe_mod_func_uint32_t_u_u>
   1313c:	85 c0                	test   %eax,%eax
   1313e:	75 1b                	jne    1315b <func_24+0x3345>
   13140:	0f b6 05 7a c1 00 00 	movzbl 0xc17a(%rip),%eax        # 1f2c1 <g_791+0x1>
   13147:	0f b6 c0             	movzbl %al,%eax
   1314a:	48 98                	cltq   
   1314c:	48 8d 15 7d c0 00 00 	lea    0xc07d(%rip),%rdx        # 1f1d0 <g_426>
   13153:	0f b6 04 10          	movzbl (%rax,%rdx,1),%eax
   13157:	84 c0                	test   %al,%al
   13159:	74 07                	je     13162 <func_24+0x334c>
   1315b:	b8 01 00 00 00       	mov    $0x1,%eax
   13160:	eb 05                	jmp    13167 <func_24+0x3351>
   13162:	b8 00 00 00 00       	mov    $0x0,%eax
   13167:	0f b6 c0             	movzbl %al,%eax
   1316a:	44 89 e6             	mov    %r12d,%esi
   1316d:	89 c7                	mov    %eax,%edi
   1316f:	e8 19 5b ff ff       	callq  8c8d <safe_rshift_func_uint8_t_u_s>
   13174:	0f b6 d0             	movzbl %al,%edx
   13177:	0f b6 05 43 c1 00 00 	movzbl 0xc143(%rip),%eax        # 1f2c1 <g_791+0x1>
   1317e:	0f b6 c0             	movzbl %al,%eax
   13181:	48 98                	cltq   
   13183:	48 8d 0d 46 c0 00 00 	lea    0xc046(%rip),%rcx        # 1f1d0 <g_426>
   1318a:	0f b6 04 08          	movzbl (%rax,%rcx,1),%eax
   1318e:	0f be c0             	movsbl %al,%eax
   13191:	39 c2                	cmp    %eax,%edx
   13193:	0f 94 c0             	sete   %al
   13196:	0f b6 d0             	movzbl %al,%edx
   13199:	0f b7 05 c6 c0 00 00 	movzwl 0xc0c6(%rip),%eax        # 1f266 <g_437+0x86>
   131a0:	0f b7 c0             	movzwl %ax,%eax
   131a3:	39 c2                	cmp    %eax,%edx
   131a5:	0f 9f c0             	setg   %al
   131a8:	0f b6 d0             	movzbl %al,%edx
   131ab:	48 8b 85 90 e4 ff ff 	mov    -0x1b70(%rbp),%rax
   131b2:	89 10                	mov    %edx,(%rax)
   131b4:	48 8d 05 65 e9 00 00 	lea    0xe965(%rip),%rax        # 21b20 <g_812>
   131bb:	48 39 85 48 e4 ff ff 	cmp    %rax,-0x1bb8(%rbp)
   131c2:	0f 94 c0             	sete   %al
   131c5:	0f b6 c0             	movzbl %al,%eax
   131c8:	39 85 b4 e1 ff ff    	cmp    %eax,-0x1e4c(%rbp)
   131ce:	7f 22                	jg     131f2 <func_24+0x33dc>
   131d0:	0f b6 05 ea c0 00 00 	movzbl 0xc0ea(%rip),%eax        # 1f2c1 <g_791+0x1>
   131d7:	0f b6 c0             	movzbl %al,%eax
   131da:	48 98                	cltq   
   131dc:	48 8d 15 ed bf 00 00 	lea    0xbfed(%rip),%rdx        # 1f1d0 <g_426>
   131e3:	0f b6 04 10          	movzbl (%rax,%rdx,1),%eax
   131e7:	84 c0                	test   %al,%al
   131e9:	74 07                	je     131f2 <func_24+0x33dc>
   131eb:	b8 01 00 00 00       	mov    $0x1,%eax
   131f0:	eb 05                	jmp    131f7 <func_24+0x33e1>
   131f2:	b8 00 00 00 00       	mov    $0x0,%eax
   131f7:	48 98                	cltq   
   131f9:	48 89 de             	mov    %rbx,%rsi
   131fc:	48 89 c7             	mov    %rax,%rdi
   131ff:	e8 3d 56 ff ff       	callq  8841 <safe_add_func_int64_t_s_s>
   13204:	48 be b3 76 9d 04 bd 	movabs $0x57b9d6bd049d76b3,%rsi
   1320b:	d6 b9 57 
   1320e:	48 89 c7             	mov    %rax,%rdi
   13211:	e8 92 56 ff ff       	callq  88a8 <safe_sub_func_int64_t_s_s>
   13216:	be 07 00 00 00       	mov    $0x7,%esi
   1321b:	bf 01 00 00 00       	mov    $0x1,%edi
   13220:	e8 3e 53 ff ff       	callq  8563 <safe_rshift_func_int16_t_s_u>
   13225:	48 8d 85 e8 e2 ff ff 	lea    -0x1d18(%rbp),%rax
   1322c:	48 39 85 50 e4 ff ff 	cmp    %rax,-0x1bb0(%rbp)
   13233:	0f 94 c0             	sete   %al
   13236:	0f b6 c0             	movzbl %al,%eax
   13239:	66 89 05 8c bf 00 00 	mov    %ax,0xbf8c(%rip)        # 1f1cc <g_422>
   13240:	0f b7 05 85 bf 00 00 	movzwl 0xbf85(%rip),%eax        # 1f1cc <g_422>
   13247:	0f b7 d0             	movzwl %ax,%edx
   1324a:	0f b7 05 33 be 00 00 	movzwl 0xbe33(%rip),%eax        # 1f084 <g_121+0x14>
   13251:	66 25 ff 1f          	and    $0x1fff,%ax
   13255:	0f b7 c0             	movzwl %ax,%eax
   13258:	31 d0                	xor    %edx,%eax
   1325a:	48 98                	cltq   
   1325c:	48 89 05 cd bd 00 00 	mov    %rax,0xbdcd(%rip)        # 1f030 <g_39>
   13263:	48 8b 15 c6 bd 00 00 	mov    0xbdc6(%rip),%rdx        # 1f030 <g_39>
   1326a:	48 8b 05 bf e6 00 00 	mov    0xe6bf(%rip),%rax        # 21930 <g_536>
   13271:	48 8b 00             	mov    (%rax),%rax
   13274:	48 39 c2             	cmp    %rax,%rdx
   13277:	0f 94 c0             	sete   %al
   1327a:	0f b6 c0             	movzbl %al,%eax
   1327d:	44 89 ea             	mov    %r13d,%edx
   13280:	31 c2                	xor    %eax,%edx
   13282:	0f b7 05 59 c0 00 00 	movzwl 0xc059(%rip),%eax        # 1f2e2 <g_793+0x2>
   13289:	0f b7 c0             	movzwl %ax,%eax
   1328c:	39 c2                	cmp    %eax,%edx
   1328e:	0f 9f c0             	setg   %al
   13291:	0f b6 d0             	movzbl %al,%edx
   13294:	0f b6 05 26 c0 00 00 	movzbl 0xc026(%rip),%eax        # 1f2c1 <g_791+0x1>
   1329b:	0f b6 c0             	movzbl %al,%eax
   1329e:	48 98                	cltq   
   132a0:	48 8d 0d 29 bf 00 00 	lea    0xbf29(%rip),%rcx        # 1f1d0 <g_426>
   132a7:	0f b6 04 08          	movzbl (%rax,%rcx,1),%eax
   132ab:	48 0f be c0          	movsbq %al,%rax
   132af:	48 89 d6             	mov    %rdx,%rsi
   132b2:	48 89 c7             	mov    %rax,%rdi
   132b5:	e8 ee 55 ff ff       	callq  88a8 <safe_sub_func_int64_t_s_s>
   132ba:	b9 00 00 00 00       	mov    $0x0,%ecx
   132bf:	48 8b 85 98 e4 ff ff 	mov    -0x1b68(%rbp),%rax
   132c6:	48 8b 10             	mov    (%rax),%rdx
   132c9:	48 63 c1             	movslq %ecx,%rax
   132cc:	48 31 c2             	xor    %rax,%rdx
   132cf:	48 8b 85 98 e4 ff ff 	mov    -0x1b68(%rbp),%rax
   132d6:	48 89 10             	mov    %rdx,(%rax)
   132d9:	48 8b 85 98 e4 ff ff 	mov    -0x1b68(%rbp),%rax
   132e0:	48 8b 00             	mov    (%rax),%rax
   132e3:	48 ba a7 e4 fa 41 b5 	movabs $0xf22e40b541fae4a7,%rdx
   132ea:	40 2e f2 
   132ed:	48 39 d0             	cmp    %rdx,%rax
   132f0:	0f 94 c0             	sete   %al
   132f3:	0f b6 c0             	movzbl %al,%eax
   132f6:	be 02 00 00 00       	mov    $0x2,%esi
   132fb:	89 c7                	mov    %eax,%edi
   132fd:	e8 6a 50 ff ff       	callq  836c <safe_rshift_func_int8_t_s_u>
   13302:	84 c0                	test   %al,%al
   13304:	0f 95 c0             	setne  %al
   13307:	0f b6 c0             	movzbl %al,%eax
   1330a:	89 85 60 e2 ff ff    	mov    %eax,-0x1da0(%rbp)
   13310:	48 8b 05 41 e1 00 00 	mov    0xe141(%rip),%rax        # 21458 <g_68>
   13317:	48 8b 00             	mov    (%rax),%rax
   1331a:	48 8b 95 58 e4 ff ff 	mov    -0x1ba8(%rbp),%rdx
   13321:	48 89 10             	mov    %rdx,(%rax)
   13324:	48 8b 95 80 eb ff ff 	mov    -0x1480(%rbp),%rdx
   1332b:	48 8b 85 a0 e6 ff ff 	mov    -0x1960(%rbp),%rax
   13332:	48 39 c2             	cmp    %rax,%rdx
   13335:	0f 95 c0             	setne  %al
   13338:	0f b6 c0             	movzbl %al,%eax
   1333b:	66 89 05 72 be 00 00 	mov    %ax,0xbe72(%rip)        # 1f1b4 <g_291>
   13342:	0f b7 05 6b be 00 00 	movzwl 0xbe6b(%rip),%eax        # 1f1b4 <g_291>
   13349:	4c 0f bf e8          	movswq %ax,%r13
   1334d:	44 8b b5 b0 e1 ff ff 	mov    -0x1e50(%rbp),%r14d
   13354:	8b 85 b4 e1 ff ff    	mov    -0x1e4c(%rbp),%eax
   1335a:	0f b6 d8             	movzbl %al,%ebx
   1335d:	48 8b 95 60 ea ff ff 	mov    -0x15a0(%rbp),%rdx
   13364:	48 8b 05 15 e9 00 00 	mov    0xe915(%rip),%rax        # 21c80 <g_944>
   1336b:	48 39 c2             	cmp    %rax,%rdx
   1336e:	0f 95 c0             	setne  %al
   13371:	0f b6 c0             	movzbl %al,%eax
   13374:	0f b7 15 31 bd 00 00 	movzwl 0xbd31(%rip),%edx        # 1f0ac <g_158>
   1337b:	21 d0                	and    %edx,%eax
   1337d:	66 89 05 28 bd 00 00 	mov    %ax,0xbd28(%rip)        # 1f0ac <g_158>
   13384:	0f b7 05 21 bd 00 00 	movzwl 0xbd21(%rip),%eax        # 1f0ac <g_158>
   1338b:	0f b7 d0             	movzwl %ax,%edx
   1338e:	0f b7 05 4d bf 00 00 	movzwl 0xbf4d(%rip),%eax        # 1f2e2 <g_793+0x2>
   13395:	0f b7 c0             	movzwl %ax,%eax
   13398:	89 d6                	mov    %edx,%esi
   1339a:	89 c7                	mov    %eax,%edi
   1339c:	e8 7e 59 ff ff       	callq  8d1f <safe_sub_func_uint16_t_u_u>
   133a1:	44 0f b7 f8          	movzwl %ax,%r15d
   133a5:	0f b7 85 ac e1 ff ff 	movzwl -0x1e54(%rbp),%eax
   133ac:	44 0f bf e0          	movswl %ax,%r12d
   133b0:	48 8b 85 48 e7 ff ff 	mov    -0x18b8(%rbp),%rax
   133b7:	48 8d 15 3a bf 00 00 	lea    0xbf3a(%rip),%rdx        # 1f2f8 <g_800>
   133be:	48 39 d0             	cmp    %rdx,%rax
   133c1:	0f 95 c0             	setne  %al
   133c4:	0f b6 d0             	movzbl %al,%edx
   133c7:	0f b7 85 ac e1 ff ff 	movzwl -0x1e54(%rbp),%eax
   133ce:	98                   	cwtl   
   133cf:	39 c2                	cmp    %eax,%edx
   133d1:	0f 9f c0             	setg   %al
   133d4:	0f b6 c0             	movzbl %al,%eax
   133d7:	be 01 00 00 00       	mov    $0x1,%esi
   133dc:	89 c7                	mov    %eax,%edi
   133de:	e8 79 59 ff ff       	callq  8d5c <safe_mod_func_uint16_t_u_u>
   133e3:	8b 85 b4 e1 ff ff    	mov    -0x1e4c(%rbp),%eax
   133e9:	66 23 85 b8 e1 ff ff 	and    -0x1e48(%rbp),%ax
   133f0:	0f bf d0             	movswl %ax,%edx
   133f3:	48 8b 05 76 e8 00 00 	mov    0xe876(%rip),%rax        # 21c70 <g_856>
   133fa:	48 8b 00             	mov    (%rax),%rax
   133fd:	48 8b 00             	mov    (%rax),%rax
   13400:	48 8b 00             	mov    (%rax),%rax
   13403:	48 8b 00             	mov    (%rax),%rax
   13406:	0f b7 00             	movzwl (%rax),%eax
   13409:	98                   	cwtl   
   1340a:	89 d6                	mov    %edx,%esi
   1340c:	89 c7                	mov    %eax,%edi
   1340e:	e8 c0 4f ff ff       	callq  83d3 <safe_sub_func_int16_t_s_s>
   13413:	0f bf d0             	movswl %ax,%edx
   13416:	8b 05 ec be 00 00    	mov    0xbeec(%rip),%eax        # 1f308 <g_954>
   1341c:	31 d0                	xor    %edx,%eax
   1341e:	89 05 e4 be 00 00    	mov    %eax,0xbee4(%rip)        # 1f308 <g_954>
   13424:	8b 05 de be 00 00    	mov    0xbede(%rip),%eax        # 1f308 <g_954>
   1342a:	98                   	cwtl   
   1342b:	44 89 e6             	mov    %r12d,%esi
   1342e:	89 c7                	mov    %eax,%edi
   13430:	e8 c0 4f ff ff       	callq  83f5 <safe_mul_func_int16_t_s_s>
   13435:	66 85 c0             	test   %ax,%ax
   13438:	75 09                	jne    13443 <func_24+0x362d>
   1343a:	83 bd 5c e2 ff ff 00 	cmpl   $0x0,-0x1da4(%rbp)
   13441:	74 07                	je     1344a <func_24+0x3634>
   13443:	b8 01 00 00 00       	mov    $0x1,%eax
   13448:	eb 05                	jmp    1344f <func_24+0x3639>
   1344a:	b8 00 00 00 00       	mov    $0x0,%eax
   1344f:	23 85 60 e2 ff ff    	and    -0x1da0(%rbp),%eax
   13455:	41 39 c7             	cmp    %eax,%r15d
   13458:	7f 1b                	jg     13475 <func_24+0x365f>
   1345a:	0f b6 05 60 be 00 00 	movzbl 0xbe60(%rip),%eax        # 1f2c1 <g_791+0x1>
   13461:	0f b6 c0             	movzbl %al,%eax
   13464:	48 98                	cltq   
   13466:	48 8d 15 63 bd 00 00 	lea    0xbd63(%rip),%rdx        # 1f1d0 <g_426>
   1346d:	0f b6 04 10          	movzbl (%rax,%rdx,1),%eax
   13471:	84 c0                	test   %al,%al
   13473:	74 07                	je     1347c <func_24+0x3666>
   13475:	b8 01 00 00 00       	mov    $0x1,%eax
   1347a:	eb 05                	jmp    13481 <func_24+0x366b>
   1347c:	b8 00 00 00 00       	mov    $0x0,%eax
   13481:	3b 85 b4 e1 ff ff    	cmp    -0x1e4c(%rbp),%eax
   13487:	0f 9c c0             	setl   %al
   1348a:	0f b6 c0             	movzbl %al,%eax
   1348d:	89 de                	mov    %ebx,%esi
   1348f:	89 c7                	mov    %eax,%edi
   13491:	e8 fd 56 ff ff       	callq  8b93 <safe_mul_func_uint8_t_u_u>
   13496:	88 05 35 bd 00 00    	mov    %al,0xbd35(%rip)        # 1f1d1 <g_426+0x1>
   1349c:	0f b6 05 2e bd 00 00 	movzbl 0xbd2e(%rip),%eax        # 1f1d1 <g_426+0x1>
   134a3:	83 f0 01             	xor    $0x1,%eax
   134a6:	48 0f be c0          	movsbq %al,%rax
   134aa:	4c 21 f0             	and    %r14,%rax
   134ad:	49 39 c5             	cmp    %rax,%r13
   134b0:	0f 93 c0             	setae  %al
   134b3:	0f b6 c8             	movzbl %al,%ecx
   134b6:	48 8b 05 f3 df 00 00 	mov    0xdff3(%rip),%rax        # 214b0 <g_206>
   134bd:	48 8b 00             	mov    (%rax),%rax
   134c0:	48 8b 00             	mov    (%rax),%rax
   134c3:	8b 10                	mov    (%rax),%edx
   134c5:	48 8b 05 e4 df 00 00 	mov    0xdfe4(%rip),%rax        # 214b0 <g_206>
   134cc:	48 8b 00             	mov    (%rax),%rax
   134cf:	48 8b 00             	mov    (%rax),%rax
   134d2:	09 ca                	or     %ecx,%edx
   134d4:	89 10                	mov    %edx,(%rax)
   134d6:	83 bd 60 e2 ff ff 00 	cmpl   $0x0,-0x1da0(%rbp)
   134dd:	74 05                	je     134e4 <func_24+0x36ce>
   134df:	e9 6a d2 ff ff       	jmpq   1074e <func_24+0x938>
   134e4:	0f b6 05 d6 bd 00 00 	movzbl 0xbdd6(%rip),%eax        # 1f2c1 <g_791+0x1>
   134eb:	83 c0 01             	add    $0x1,%eax
   134ee:	88 05 cd bd 00 00    	mov    %al,0xbdcd(%rip)        # 1f2c1 <g_791+0x1>
   134f4:	0f b6 05 c6 bd 00 00 	movzbl 0xbdc6(%rip),%eax        # 1f2c1 <g_791+0x1>
   134fb:	3c 07                	cmp    $0x7,%al
   134fd:	0f 86 3d fa ff ff    	jbe    12f40 <func_24+0x312a>
   13503:	e9 7b 09 00 00       	jmpq   13e83 <func_24+0x406d>
   13508:	48 8d 85 d0 e6 ff ff 	lea    -0x1930(%rbp),%rax
   1350f:	48 83 c0 30          	add    $0x30,%rax
   13513:	48 89 85 70 e4 ff ff 	mov    %rax,-0x1b90(%rbp)
   1351a:	c7 85 18 e2 ff ff 00 	movl   $0x0,-0x1de8(%rbp)
   13521:	00 00 00 
   13524:	eb 1a                	jmp    13540 <func_24+0x372a>
   13526:	8b 85 18 e2 ff ff    	mov    -0x1de8(%rbp),%eax
   1352c:	48 98                	cltq   
   1352e:	c7 84 85 a0 e6 ff ff 	movl   $0xee93e007,-0x1960(%rbp,%rax,4)
   13535:	07 e0 93 ee 
   13539:	83 85 18 e2 ff ff 01 	addl   $0x1,-0x1de8(%rbp)
   13540:	83 bd 18 e2 ff ff 04 	cmpl   $0x4,-0x1de8(%rbp)
   13547:	7e dd                	jle    13526 <func_24+0x3710>
   13549:	0f b7 05 2e bb 00 00 	movzwl 0xbb2e(%rip),%eax        # 1f07e <g_121+0xe>
   13550:	66 85 c0             	test   %ax,%ax
   13553:	0f 94 c0             	sete   %al
   13556:	0f b6 d8             	movzbl %al,%ebx
   13559:	48 8b 85 38 e3 ff ff 	mov    -0x1cc8(%rbp),%rax
   13560:	41 89 c5             	mov    %eax,%r13d
   13563:	66 c7 85 b8 e1 ff ff 	movw   $0x8,-0x1e48(%rbp)
   1356a:	08 00 
   1356c:	be 08 00 00 00       	mov    $0x8,%esi
   13571:	bf fc ff 00 00       	mov    $0xfffc,%edi
   13576:	e8 84 57 ff ff       	callq  8cff <safe_add_func_uint16_t_u_u>
   1357b:	8b 85 b0 e1 ff ff    	mov    -0x1e50(%rbp),%eax
   13581:	0f b6 d0             	movzbl %al,%edx
   13584:	0f b7 85 ac e1 ff ff 	movzwl -0x1e54(%rbp),%eax
   1358b:	0f b6 c0             	movzbl %al,%eax
   1358e:	89 d6                	mov    %edx,%esi
   13590:	89 c7                	mov    %eax,%edi
   13592:	e8 c3 55 ff ff       	callq  8b5a <safe_add_func_uint8_t_u_u>
   13597:	44 0f b6 e0          	movzbl %al,%r12d
   1359b:	48 8b 05 c6 de 00 00 	mov    0xdec6(%rip),%rax        # 21468 <g_83>
   135a2:	0f b7 00             	movzwl (%rax),%eax
   135a5:	0f bf d0             	movswl %ax,%edx
   135a8:	48 8b 85 d8 e3 ff ff 	mov    -0x1c28(%rbp),%rax
   135af:	48 89 05 d2 e6 00 00 	mov    %rax,0xe6d2(%rip)        # 21c88 <g_971>
   135b6:	48 8b 0d cb e6 00 00 	mov    0xe6cb(%rip),%rcx        # 21c88 <g_971>
   135bd:	48 8d 85 e0 e1 ff ff 	lea    -0x1e20(%rbp),%rax
   135c4:	48 39 c1             	cmp    %rax,%rcx
   135c7:	0f 95 c1             	setne  %cl
   135ca:	48 8b 05 5f e3 00 00 	mov    0xe35f(%rip),%rax        # 21930 <g_536>
   135d1:	0f b6 c9             	movzbl %cl,%ecx
   135d4:	48 89 08             	mov    %rcx,(%rax)
   135d7:	48 8b 08             	mov    (%rax),%rcx
   135da:	48 0f be 85 cb e1 ff 	movsbq -0x1e35(%rbp),%rax
   135e1:	ff 
   135e2:	48 21 c1             	and    %rax,%rcx
   135e5:	8b 85 b0 e1 ff ff    	mov    -0x1e50(%rbp),%eax
   135eb:	48 39 c1             	cmp    %rax,%rcx
   135ee:	0f 93 c0             	setae  %al
   135f1:	0f b6 c0             	movzbl %al,%eax
   135f4:	89 d6                	mov    %edx,%esi
   135f6:	89 c7                	mov    %eax,%edi
   135f8:	e8 c1 57 ff ff       	callq  8dbe <safe_lshift_func_uint16_t_u_s>
   135fd:	be 01 00 00 00       	mov    $0x1,%esi
   13602:	bf f2 c6 ff ff       	mov    $0xffffc6f2,%edi
   13607:	e8 a7 4d ff ff       	callq  83b3 <safe_add_func_int16_t_s_s>
   1360c:	98                   	cwtl   
   1360d:	39 85 34 e2 ff ff    	cmp    %eax,-0x1dcc(%rbp)
   13613:	0f 97 c0             	seta   %al
   13616:	0f b6 c0             	movzbl %al,%eax
   13619:	41 39 c4             	cmp    %eax,%r12d
   1361c:	0f 9f c0             	setg   %al
   1361f:	0f b6 c0             	movzbl %al,%eax
   13622:	39 85 b0 e1 ff ff    	cmp    %eax,-0x1e50(%rbp)
   13628:	0f 97 c0             	seta   %al
   1362b:	0f b6 c0             	movzbl %al,%eax
   1362e:	44 89 ee             	mov    %r13d,%esi
   13631:	89 c7                	mov    %eax,%edi
   13633:	e8 34 4d ff ff       	callq  836c <safe_rshift_func_int8_t_s_u>
   13638:	84 c0                	test   %al,%al
   1363a:	0f 95 c0             	setne  %al
   1363d:	0f b6 c0             	movzbl %al,%eax
   13640:	66 89 85 ac e1 ff ff 	mov    %ax,-0x1e54(%rbp)
   13647:	0f b7 85 ac e1 ff ff 	movzwl -0x1e54(%rbp),%eax
   1364e:	98                   	cwtl   
   1364f:	09 c3                	or     %eax,%ebx
   13651:	89 da                	mov    %ebx,%edx
   13653:	48 8b 85 58 e4 ff ff 	mov    -0x1ba8(%rbp),%rax
   1365a:	89 10                	mov    %edx,(%rax)
   1365c:	48 8b 85 58 e4 ff ff 	mov    -0x1ba8(%rbp),%rax
   13663:	8b 00                	mov    (%rax),%eax
   13665:	3d 7e 9c d9 19       	cmp    $0x19d99c7e,%eax
   1366a:	0f 94 c0             	sete   %al
   1366d:	0f b6 d0             	movzbl %al,%edx
   13670:	8b 85 88 e6 ff ff    	mov    -0x1978(%rbp),%eax
   13676:	0f be c0             	movsbl %al,%eax
   13679:	89 d6                	mov    %edx,%esi
   1367b:	89 c7                	mov    %eax,%edi
   1367d:	e8 70 4b ff ff       	callq  81f2 <safe_sub_func_int8_t_s_s>
   13682:	0f be c0             	movsbl %al,%eax
   13685:	89 85 a0 e6 ff ff    	mov    %eax,-0x1960(%rbp)
   1368b:	8b 85 a0 e6 ff ff    	mov    -0x1960(%rbp),%eax
   13691:	85 c0                	test   %eax,%eax
   13693:	74 2a                	je     136bf <func_24+0x38a9>
   13695:	48 c7 85 78 e4 ff ff 	movq   $0x0,-0x1b88(%rbp)
   1369c:	00 00 00 00 
   136a0:	48 8b 05 39 e6 00 00 	mov    0xe639(%rip),%rax        # 21ce0 <g_978>
   136a7:	48 8b 95 e0 e3 ff ff 	mov    -0x1c20(%rbp),%rdx
   136ae:	48 89 10             	mov    %rdx,(%rax)
   136b1:	83 bd bc e1 ff ff 00 	cmpl   $0x0,-0x1e44(%rbp)
   136b8:	74 5f                	je     13719 <func_24+0x3903>
   136ba:	e9 36 0e 00 00       	jmpq   144f5 <func_24+0x46df>
   136bf:	66 c7 85 d4 e1 ff ff 	movw   $0xfffd,-0x1e2c(%rbp)
   136c6:	fd ff 
   136c8:	c7 85 54 e2 ff ff 1c 	movl   $0xb37e011c,-0x1dac(%rbp)
   136cf:	01 7e b3 
   136d2:	48 8b 05 47 e2 00 00 	mov    0xe247(%rip),%rax        # 21920 <g_360>
   136d9:	0f b7 95 d4 e1 ff ff 	movzwl -0x1e2c(%rbp),%edx
   136e0:	89 10                	mov    %edx,(%rax)
   136e2:	48 8b 05 1f e6 00 00 	mov    0xe61f(%rip),%rax        # 21d08 <g_982>
   136e9:	48 89 05 18 e6 00 00 	mov    %rax,0xe618(%rip)        # 21d08 <g_982>
   136f0:	48 8b 05 11 e6 00 00 	mov    0xe611(%rip),%rax        # 21d08 <g_982>
   136f7:	48 89 05 ca f4 00 00 	mov    %rax,0xf4ca(%rip)        # 22bc8 <g_987>
   136fe:	48 8b 05 c3 f4 00 00 	mov    0xf4c3(%rip),%rax        # 22bc8 <g_987>
   13705:	48 89 05 04 e6 00 00 	mov    %rax,0xe604(%rip)        # 21d10 <g_988>
   1370c:	83 bd 54 e2 ff ff 00 	cmpl   $0x0,-0x1dac(%rbp)
   13713:	0f 85 09 0e 00 00    	jne    14522 <func_24+0x470c>
   13719:	8b 85 b0 e6 ff ff    	mov    -0x1950(%rbp),%eax
   1371f:	85 c0                	test   %eax,%eax
   13721:	0f 85 cd 0d 00 00    	jne    144f4 <func_24+0x46de>
   13727:	0f b7 85 b8 e1 ff ff 	movzwl -0x1e48(%rbp),%eax
   1372e:	0f be d8             	movsbl %al,%ebx
   13731:	8b 85 bc e1 ff ff    	mov    -0x1e44(%rbp),%eax
   13737:	0f b7 c0             	movzwl %ax,%eax
   1373a:	be d8 44 00 00       	mov    $0x44d8,%esi
   1373f:	89 c7                	mov    %eax,%edi
   13741:	e8 f7 55 ff ff       	callq  8d3d <safe_mul_func_uint16_t_u_u>
   13746:	0f be c0             	movsbl %al,%eax
   13749:	89 de                	mov    %ebx,%esi
   1374b:	89 c7                	mov    %eax,%edi
   1374d:	e8 c0 4a ff ff       	callq  8212 <safe_mul_func_int8_t_s_s>
   13752:	84 c0                	test   %al,%al
   13754:	0f 84 67 01 00 00    	je     138c1 <func_24+0x3aab>
   1375a:	83 bd b4 e1 ff ff 00 	cmpl   $0x0,-0x1e4c(%rbp)
   13761:	0f 84 5a 01 00 00    	je     138c1 <func_24+0x3aab>
   13767:	c7 85 58 e2 ff ff fc 	movl   $0xfffffffc,-0x1da8(%rbp)
   1376e:	ff ff ff 
   13771:	48 8d 85 a0 e6 ff ff 	lea    -0x1960(%rbp),%rax
   13778:	48 89 85 80 e4 ff ff 	mov    %rax,-0x1b80(%rbp)
   1377f:	8b 85 a0 e6 ff ff    	mov    -0x1960(%rbp),%eax
   13785:	0f b6 d8             	movzbl %al,%ebx
   13788:	48 8b 05 b1 e1 00 00 	mov    0xe1b1(%rip),%rax        # 21940 <g_624>
   1378f:	48 8b 05 92 e1 00 00 	mov    0xe192(%rip),%rax        # 21928 <g_359>
   13796:	48 8b 00             	mov    (%rax),%rax
   13799:	48 85 c0             	test   %rax,%rax
   1379c:	0f 94 c0             	sete   %al
   1379f:	44 0f b6 e8          	movzbl %al,%r13d
   137a3:	0f b7 05 24 bb 00 00 	movzwl 0xbb24(%rip),%eax        # 1f2ce <g_791+0xe>
   137aa:	44 0f be e0          	movsbl %al,%r12d
   137ae:	48 8d 05 4b e5 00 00 	lea    0xe54b(%rip),%rax        # 21d00 <g_983>
   137b5:	48 89 85 60 e4 ff ff 	mov    %rax,-0x1ba0(%rbp)
   137bc:	48 8b 85 60 e4 ff ff 	mov    -0x1ba0(%rbp),%rax
   137c3:	48 89 85 e8 e3 ff ff 	mov    %rax,-0x1c18(%rbp)
   137ca:	48 8d 85 58 e3 ff ff 	lea    -0x1ca8(%rbp),%rax
   137d1:	48 39 85 e8 e3 ff ff 	cmp    %rax,-0x1c18(%rbp)
   137d8:	0f 95 c0             	setne  %al
   137db:	0f b6 c0             	movzbl %al,%eax
   137de:	be 0e 00 00 00       	mov    $0xe,%esi
   137e3:	89 c7                	mov    %eax,%edi
   137e5:	e8 f7 4c ff ff       	callq  84e1 <safe_lshift_func_int16_t_s_u>
   137ea:	0f be c0             	movsbl %al,%eax
   137ed:	44 89 e6             	mov    %r12d,%esi
   137f0:	89 c7                	mov    %eax,%edi
   137f2:	e8 1b 4a ff ff       	callq  8212 <safe_mul_func_int8_t_s_s>
   137f7:	0f be c0             	movsbl %al,%eax
   137fa:	41 39 c5             	cmp    %eax,%r13d
   137fd:	0f 9d c0             	setge  %al
   13800:	0f b6 c0             	movzbl %al,%eax
   13803:	be 01 00 00 00       	mov    $0x1,%esi
   13808:	89 c7                	mov    %eax,%edi
   1380a:	e8 a9 56 ff ff       	callq  8eb8 <safe_add_func_uint32_t_u_u>
   1380f:	0f b6 c0             	movzbl %al,%eax
   13812:	89 de                	mov    %ebx,%esi
   13814:	89 c7                	mov    %eax,%edi
   13816:	e8 5d 53 ff ff       	callq  8b78 <safe_sub_func_uint8_t_u_u>
   1381b:	89 c2                	mov    %eax,%edx
   1381d:	0f b6 05 b0 b9 00 00 	movzbl 0xb9b0(%rip),%eax        # 1f1d4 <g_426+0x4>
   13824:	21 d0                	and    %edx,%eax
   13826:	88 05 a8 b9 00 00    	mov    %al,0xb9a8(%rip)        # 1f1d4 <g_426+0x4>
   1382c:	0f b6 05 a1 b9 00 00 	movzbl 0xb9a1(%rip),%eax        # 1f1d4 <g_426+0x4>
   13833:	84 c0                	test   %al,%al
   13835:	75 10                	jne    13847 <func_24+0x3a31>
   13837:	0f b7 05 46 b8 00 00 	movzwl 0xb846(%rip),%eax        # 1f084 <g_121+0x14>
   1383e:	66 25 ff 1f          	and    $0x1fff,%ax
   13842:	66 85 c0             	test   %ax,%ax
   13845:	74 07                	je     1384e <func_24+0x3a38>
   13847:	b8 01 00 00 00       	mov    $0x1,%eax
   1384c:	eb 05                	jmp    13853 <func_24+0x3a3d>
   1384e:	b8 00 00 00 00       	mov    $0x0,%eax
   13853:	f7 d0                	not    %eax
   13855:	89 c2                	mov    %eax,%edx
   13857:	48 8b 85 58 e4 ff ff 	mov    -0x1ba8(%rbp),%rax
   1385e:	8b 00                	mov    (%rax),%eax
   13860:	09 c2                	or     %eax,%edx
   13862:	48 8b 85 58 e4 ff ff 	mov    -0x1ba8(%rbp),%rax
   13869:	89 10                	mov    %edx,(%rax)
   1386b:	0f b7 85 ac e1 ff ff 	movzwl -0x1e54(%rbp),%eax
   13872:	0f bf d8             	movswl %ax,%ebx
   13875:	48 0f bf 85 b8 e1 ff 	movswq -0x1e48(%rbp),%rax
   1387c:	ff 
   1387d:	48 89 c6             	mov    %rax,%rsi
   13880:	bf 07 00 00 00       	mov    $0x7,%edi
   13885:	e8 1e 50 ff ff       	callq  88a8 <safe_sub_func_int64_t_s_s>
   1388a:	48 8b 95 08 f1 ff ff 	mov    -0xef8(%rbp),%rdx
   13891:	48 85 d2             	test   %rdx,%rdx
   13894:	0f 95 c2             	setne  %dl
   13897:	0f b6 d2             	movzbl %dl,%edx
   1389a:	48 39 d0             	cmp    %rdx,%rax
   1389d:	0f 94 c0             	sete   %al
   138a0:	0f b6 c0             	movzbl %al,%eax
   138a3:	21 d8                	and    %ebx,%eax
   138a5:	89 85 58 e2 ff ff    	mov    %eax,-0x1da8(%rbp)
   138ab:	48 8b 05 96 db 00 00 	mov    0xdb96(%rip),%rax        # 21448 <g_60>
   138b2:	48 8b 00             	mov    (%rax),%rax
   138b5:	48 89 85 80 e4 ff ff 	mov    %rax,-0x1b80(%rbp)
   138bc:	e9 2e 03 00 00       	jmpq   13bef <func_24+0x3dd9>
   138c1:	66 c7 85 10 e7 ff ff 	movw   $0xfcfc,-0x18f0(%rbp)
   138c8:	fc fc 
   138ca:	66 c7 85 12 e7 ff ff 	movw   $0x9efc,-0x18ee(%rbp)
   138d1:	fc 9e 
   138d3:	66 c7 85 14 e7 ff ff 	movw   $0xfeff,-0x18ec(%rbp)
   138da:	ff fe 
   138dc:	66 c7 85 16 e7 ff ff 	movw   $0xfe9e,-0x18ea(%rbp)
   138e3:	9e fe 
   138e5:	66 c7 85 18 e7 ff ff 	movw   $0x9eff,-0x18e8(%rbp)
   138ec:	ff 9e 
   138ee:	66 c7 85 1a e7 ff ff 	movw   $0xfcfc,-0x18e6(%rbp)
   138f5:	fc fc 
   138f7:	66 c7 85 1c e7 ff ff 	movw   $0x9efc,-0x18e4(%rbp)
   138fe:	fc 9e 
   13900:	66 c7 85 1e e7 ff ff 	movw   $0xfeff,-0x18e2(%rbp)
   13907:	ff fe 
   13909:	66 c7 85 20 e7 ff ff 	movw   $0xfe9e,-0x18e0(%rbp)
   13910:	9e fe 
   13912:	66 c7 85 22 e7 ff ff 	movw   $0x9eff,-0x18de(%rbp)
   13919:	ff 9e 
   1391b:	48 8d 85 dc e1 ff ff 	lea    -0x1e24(%rbp),%rax
   13922:	48 89 85 70 ed ff ff 	mov    %rax,-0x1290(%rbp)
   13929:	48 8d 85 f4 e1 ff ff 	lea    -0x1e0c(%rbp),%rax
   13930:	48 89 85 78 ed ff ff 	mov    %rax,-0x1288(%rbp)
   13937:	48 8d 85 e8 e1 ff ff 	lea    -0x1e18(%rbp),%rax
   1393e:	48 89 85 80 ed ff ff 	mov    %rax,-0x1280(%rbp)
   13945:	48 c7 85 88 ed ff ff 	movq   $0x0,-0x1278(%rbp)
   1394c:	00 00 00 00 
   13950:	48 8d 85 e8 e1 ff ff 	lea    -0x1e18(%rbp),%rax
   13957:	48 89 85 90 ed ff ff 	mov    %rax,-0x1270(%rbp)
   1395e:	48 8d 85 f4 e1 ff ff 	lea    -0x1e0c(%rbp),%rax
   13965:	48 89 85 98 ed ff ff 	mov    %rax,-0x1268(%rbp)
   1396c:	48 8d 85 dc e1 ff ff 	lea    -0x1e24(%rbp),%rax
   13973:	48 89 85 a0 ed ff ff 	mov    %rax,-0x1260(%rbp)
   1397a:	48 8d 85 e4 e1 ff ff 	lea    -0x1e1c(%rbp),%rax
   13981:	48 89 85 a8 ed ff ff 	mov    %rax,-0x1258(%rbp)
   13988:	48 c7 85 b0 ed ff ff 	movq   $0x0,-0x1250(%rbp)
   1398f:	00 00 00 00 
   13993:	48 8d 85 e8 e1 ff ff 	lea    -0x1e18(%rbp),%rax
   1399a:	48 89 85 b8 ed ff ff 	mov    %rax,-0x1248(%rbp)
   139a1:	48 c7 85 c0 ed ff ff 	movq   $0x0,-0x1240(%rbp)
   139a8:	00 00 00 00 
   139ac:	48 8d 05 89 b6 00 00 	lea    0xb689(%rip),%rax        # 1f03c <g_62+0x4>
   139b3:	48 89 85 c8 ed ff ff 	mov    %rax,-0x1238(%rbp)
   139ba:	48 8d 85 80 e6 ff ff 	lea    -0x1980(%rbp),%rax
   139c1:	48 83 c0 10          	add    $0x10,%rax
   139c5:	48 89 85 d0 ed ff ff 	mov    %rax,-0x1230(%rbp)
   139cc:	48 8d 85 e4 e1 ff ff 	lea    -0x1e1c(%rbp),%rax
   139d3:	48 89 85 d8 ed ff ff 	mov    %rax,-0x1228(%rbp)
   139da:	48 c7 85 e0 ed ff ff 	movq   $0x0,-0x1220(%rbp)
   139e1:	00 00 00 00 
   139e5:	48 8d 85 80 e6 ff ff 	lea    -0x1980(%rbp),%rax
   139ec:	48 89 85 e8 ed ff ff 	mov    %rax,-0x1218(%rbp)
   139f3:	48 c7 85 f0 ed ff ff 	movq   $0x0,-0x1210(%rbp)
   139fa:	00 00 00 00 
   139fe:	48 c7 85 f8 ed ff ff 	movq   $0x0,-0x1208(%rbp)
   13a05:	00 00 00 00 
   13a09:	48 8d 85 a0 e6 ff ff 	lea    -0x1960(%rbp),%rax
   13a10:	48 83 c0 08          	add    $0x8,%rax
   13a14:	48 89 85 00 ee ff ff 	mov    %rax,-0x1200(%rbp)
   13a1b:	48 8d 85 80 e6 ff ff 	lea    -0x1980(%rbp),%rax
   13a22:	48 83 c0 10          	add    $0x10,%rax
   13a26:	48 89 85 08 ee ff ff 	mov    %rax,-0x11f8(%rbp)
   13a2d:	48 8d 85 80 e6 ff ff 	lea    -0x1980(%rbp),%rax
   13a34:	48 83 c0 10          	add    $0x10,%rax
   13a38:	48 89 85 10 ee ff ff 	mov    %rax,-0x11f0(%rbp)
   13a3f:	48 8d 85 a0 e6 ff ff 	lea    -0x1960(%rbp),%rax
   13a46:	48 83 c0 08          	add    $0x8,%rax
   13a4a:	48 89 85 18 ee ff ff 	mov    %rax,-0x11e8(%rbp)
   13a51:	48 c7 85 20 ee ff ff 	movq   $0x0,-0x11e0(%rbp)
   13a58:	00 00 00 00 
   13a5c:	48 c7 85 28 ee ff ff 	movq   $0x0,-0x11d8(%rbp)
   13a63:	00 00 00 00 
   13a67:	48 c7 85 30 ee ff ff 	movq   $0x0,-0x11d0(%rbp)
   13a6e:	00 00 00 00 
   13a72:	48 c7 85 38 ee ff ff 	movq   $0x0,-0x11c8(%rbp)
   13a79:	00 00 00 00 
   13a7d:	48 8d 85 f4 e1 ff ff 	lea    -0x1e0c(%rbp),%rax
   13a84:	48 89 85 40 ee ff ff 	mov    %rax,-0x11c0(%rbp)
   13a8b:	48 8d 85 80 e6 ff ff 	lea    -0x1980(%rbp),%rax
   13a92:	48 89 85 48 ee ff ff 	mov    %rax,-0x11b8(%rbp)
   13a99:	48 8d 85 e8 e1 ff ff 	lea    -0x1e18(%rbp),%rax
   13aa0:	48 89 85 50 ee ff ff 	mov    %rax,-0x11b0(%rbp)
   13aa7:	48 c7 85 58 ee ff ff 	movq   $0x0,-0x11a8(%rbp)
   13aae:	00 00 00 00 
   13ab2:	48 c7 85 60 ee ff ff 	movq   $0x0,-0x11a0(%rbp)
   13ab9:	00 00 00 00 
   13abd:	48 8d 85 ec e1 ff ff 	lea    -0x1e14(%rbp),%rax
   13ac4:	48 89 85 68 ee ff ff 	mov    %rax,-0x1198(%rbp)
   13acb:	48 8d 85 dc e1 ff ff 	lea    -0x1e24(%rbp),%rax
   13ad2:	48 89 85 70 ee ff ff 	mov    %rax,-0x1190(%rbp)
   13ad9:	48 8d 85 f0 e1 ff ff 	lea    -0x1e10(%rbp),%rax
   13ae0:	48 89 85 78 ee ff ff 	mov    %rax,-0x1188(%rbp)
   13ae7:	48 8d 85 f0 e1 ff ff 	lea    -0x1e10(%rbp),%rax
   13aee:	48 89 85 80 ee ff ff 	mov    %rax,-0x1180(%rbp)
   13af5:	48 c7 85 88 ee ff ff 	movq   $0x0,-0x1178(%rbp)
   13afc:	00 00 00 00 
   13b00:	48 8d 85 80 e6 ff ff 	lea    -0x1980(%rbp),%rax
   13b07:	48 89 85 90 ee ff ff 	mov    %rax,-0x1170(%rbp)
   13b0e:	48 c7 85 98 ee ff ff 	movq   $0x0,-0x1168(%rbp)
   13b15:	00 00 00 00 
   13b19:	48 8d 85 f0 e1 ff ff 	lea    -0x1e10(%rbp),%rax
   13b20:	48 89 85 a0 ee ff ff 	mov    %rax,-0x1160(%rbp)
   13b27:	48 8d 85 f0 e1 ff ff 	lea    -0x1e10(%rbp),%rax
   13b2e:	48 89 85 a8 ee ff ff 	mov    %rax,-0x1158(%rbp)
   13b35:	48 8d 85 e4 e1 ff ff 	lea    -0x1e1c(%rbp),%rax
   13b3c:	48 89 85 b0 ee ff ff 	mov    %rax,-0x1150(%rbp)
   13b43:	48 c7 85 b8 ee ff ff 	movq   $0x0,-0x1148(%rbp)
   13b4a:	00 00 00 00 
   13b4e:	48 8d 85 ec e1 ff ff 	lea    -0x1e14(%rbp),%rax
   13b55:	48 89 85 c0 ee ff ff 	mov    %rax,-0x1140(%rbp)
   13b5c:	48 8d 85 dc e1 ff ff 	lea    -0x1e24(%rbp),%rax
   13b63:	48 89 85 c8 ee ff ff 	mov    %rax,-0x1138(%rbp)
   13b6a:	48 c7 85 d0 ee ff ff 	movq   $0x0,-0x1130(%rbp)
   13b71:	00 00 00 00 
   13b75:	48 8d 85 a0 e6 ff ff 	lea    -0x1960(%rbp),%rax
   13b7c:	48 83 c0 08          	add    $0x8,%rax
   13b80:	48 89 85 d8 ee ff ff 	mov    %rax,-0x1128(%rbp)
   13b87:	48 8d 85 e8 e1 ff ff 	lea    -0x1e18(%rbp),%rax
   13b8e:	48 89 85 e0 ee ff ff 	mov    %rax,-0x1120(%rbp)
   13b95:	48 8d 85 f0 e1 ff ff 	lea    -0x1e10(%rbp),%rax
   13b9c:	48 89 85 e8 ee ff ff 	mov    %rax,-0x1118(%rbp)
   13ba3:	0f b6 85 20 e7 ff ff 	movzbl -0x18e0(%rbp),%eax
   13baa:	83 c0 01             	add    $0x1,%eax
   13bad:	88 85 20 e7 ff ff    	mov    %al,-0x18e0(%rbp)
   13bb3:	48 8b 85 58 e4 ff ff 	mov    -0x1ba8(%rbp),%rax
   13bba:	8b 00                	mov    (%rax),%eax
   13bbc:	33 85 b0 e1 ff ff    	xor    -0x1e50(%rbp),%eax
   13bc2:	89 c2                	mov    %eax,%edx
   13bc4:	48 8b 85 58 e4 ff ff 	mov    -0x1ba8(%rbp),%rax
   13bcb:	89 10                	mov    %edx,(%rax)
   13bcd:	48 8b 05 7c d8 00 00 	mov    0xd87c(%rip),%rax        # 21450 <g_69>
   13bd4:	48 8b 95 c8 ee ff ff 	mov    -0x1138(%rbp),%rdx
   13bdb:	48 89 10             	mov    %rdx,(%rax)
   13bde:	8b 85 a0 e6 ff ff    	mov    -0x1960(%rbp),%eax
   13be4:	35 3d 16 25 ce       	xor    $0xce25163d,%eax
   13be9:	89 85 a0 e6 ff ff    	mov    %eax,-0x1960(%rbp)
   13bef:	0f b7 85 ac e1 ff ff 	movzwl -0x1e54(%rbp),%eax
   13bf6:	0f bf d8             	movswl %ax,%ebx
   13bf9:	48 8b 05 28 dd 00 00 	mov    0xdd28(%rip),%rax        # 21928 <g_359>
   13c00:	48 8b 00             	mov    (%rax),%rax
   13c03:	48 85 c0             	test   %rax,%rax
   13c06:	0f 95 c0             	setne  %al
   13c09:	0f b6 c0             	movzbl %al,%eax
   13c0c:	89 85 a8 e1 ff ff    	mov    %eax,-0x1e58(%rbp)
   13c12:	48 8b 05 77 e0 00 00 	mov    0xe077(%rip),%rax        # 21c90 <g_980>
   13c19:	0f b7 00             	movzwl (%rax),%eax
   13c1c:	44 0f bf e0          	movswl %ax,%r12d
   13c20:	8b 85 90 e6 ff ff    	mov    -0x1970(%rbp),%eax
   13c26:	89 85 a4 e1 ff ff    	mov    %eax,-0x1e5c(%rbp)
   13c2c:	48 8b 05 4d e0 00 00 	mov    0xe04d(%rip),%rax        # 21c80 <g_944>
   13c33:	48 8b 00             	mov    (%rax),%rax
   13c36:	48 8b 10             	mov    (%rax),%rdx
   13c39:	8b 85 b4 e1 ff ff    	mov    -0x1e4c(%rbp),%eax
   13c3f:	48 98                	cltq   
   13c41:	48 09 d0             	or     %rdx,%rax
   13c44:	48 85 c0             	test   %rax,%rax
   13c47:	0f 84 2e 01 00 00    	je     13d7b <func_24+0x3f65>
   13c4d:	0f b7 05 3c b6 00 00 	movzwl 0xb63c(%rip),%eax        # 1f290 <g_551>
   13c54:	44 0f b7 e8          	movzwl %ax,%r13d
   13c58:	0f b6 05 15 b4 00 00 	movzbl 0xb415(%rip),%eax        # 1f074 <g_121+0x4>
   13c5f:	83 e0 7f             	and    $0x7f,%eax
   13c62:	44 0f b6 f0          	movzbl %al,%r14d
   13c66:	48 8b 85 38 e3 ff ff 	mov    -0x1cc8(%rbp),%rax
   13c6d:	44 0f b6 f8          	movzbl %al,%r15d
   13c71:	0f b7 85 b8 e1 ff ff 	movzwl -0x1e48(%rbp),%eax
   13c78:	0f be c0             	movsbl %al,%eax
   13c7b:	89 85 a0 e1 ff ff    	mov    %eax,-0x1e60(%rbp)
   13c81:	8b 85 b0 e1 ff ff    	mov    -0x1e50(%rbp),%eax
   13c87:	0f be d0             	movsbl %al,%edx
   13c8a:	48 8b 8d 00 e7 ff ff 	mov    -0x1900(%rbp),%rcx
   13c91:	48 8b 85 70 e4 ff ff 	mov    -0x1b90(%rbp),%rax
   13c98:	48 89 08             	mov    %rcx,(%rax)
   13c9b:	83 bd 34 e2 ff ff 01 	cmpl   $0x1,-0x1dcc(%rbp)
   13ca2:	0f 94 c0             	sete   %al
   13ca5:	0f b6 c0             	movzbl %al,%eax
   13ca8:	89 d6                	mov    %edx,%esi
   13caa:	89 c7                	mov    %eax,%edi
   13cac:	e8 61 45 ff ff       	callq  8212 <safe_mul_func_int8_t_s_s>
   13cb1:	84 c0                	test   %al,%al
   13cb3:	74 13                	je     13cc8 <func_24+0x3eb2>
   13cb5:	0f b7 85 ac e1 ff ff 	movzwl -0x1e54(%rbp),%eax
   13cbc:	66 85 c0             	test   %ax,%ax
   13cbf:	74 07                	je     13cc8 <func_24+0x3eb2>
   13cc1:	ba 01 00 00 00       	mov    $0x1,%edx
   13cc6:	eb 05                	jmp    13ccd <func_24+0x3eb7>
   13cc8:	ba 00 00 00 00       	mov    $0x0,%edx
   13ccd:	48 8b 05 2c e0 00 00 	mov    0xe02c(%rip),%rax        # 21d00 <g_983>
   13cd4:	48 8b 00             	mov    (%rax),%rax
   13cd7:	48 8b 00             	mov    (%rax),%rax
   13cda:	48 8b 00             	mov    (%rax),%rax
   13cdd:	0f b7 00             	movzwl (%rax),%eax
   13ce0:	98                   	cwtl   
   13ce1:	39 c2                	cmp    %eax,%edx
   13ce3:	0f 9e c0             	setle  %al
   13ce6:	0f b6 c0             	movzbl %al,%eax
   13ce9:	8b b5 a0 e1 ff ff    	mov    -0x1e60(%rbp),%esi
   13cef:	89 c7                	mov    %eax,%edi
   13cf1:	e8 74 45 ff ff       	callq  826a <safe_div_func_int8_t_s_s>
   13cf6:	84 c0                	test   %al,%al
   13cf8:	0f 9e c0             	setle  %al
   13cfb:	0f b6 c0             	movzbl %al,%eax
   13cfe:	44 89 fe             	mov    %r15d,%esi
   13d01:	89 c7                	mov    %eax,%edi
   13d03:	e8 8b 4e ff ff       	callq  8b93 <safe_mul_func_uint8_t_u_u>
   13d08:	0f be c0             	movsbl %al,%eax
   13d0b:	be 04 00 00 00       	mov    $0x4,%esi
   13d10:	89 c7                	mov    %eax,%edi
   13d12:	e8 8a 45 ff ff       	callq  82a1 <safe_lshift_func_int8_t_s_s>
   13d17:	84 c0                	test   %al,%al
   13d19:	0f 9f c0             	setg   %al
   13d1c:	0f b6 c0             	movzbl %al,%eax
   13d1f:	44 89 f6             	mov    %r14d,%esi
   13d22:	89 c7                	mov    %eax,%edi
   13d24:	e8 dc 4e ff ff       	callq  8c05 <safe_lshift_func_uint8_t_u_s>
   13d29:	0f b6 c0             	movzbl %al,%eax
   13d2c:	0b 85 b0 e1 ff ff    	or     -0x1e50(%rbp),%eax
   13d32:	89 c0                	mov    %eax,%eax
   13d34:	4c 89 ee             	mov    %r13,%rsi
   13d37:	48 89 c7             	mov    %rax,%rdi
   13d3a:	e8 ef 52 ff ff       	callq  902e <safe_add_func_uint64_t_u_u>
   13d3f:	ba 01 00 00 00       	mov    $0x1,%edx
   13d44:	0f b6 05 89 b4 00 00 	movzbl 0xb489(%rip),%eax        # 1f1d4 <g_426+0x4>
   13d4b:	09 d0                	or     %edx,%eax
   13d4d:	88 05 81 b4 00 00    	mov    %al,0xb481(%rip)        # 1f1d4 <g_426+0x4>
   13d53:	be 03 00 00 00       	mov    $0x3,%esi
   13d58:	bf 01 00 00 00       	mov    $0x1,%edi
   13d5d:	e8 01 48 ff ff       	callq  8563 <safe_rshift_func_int16_t_s_u>
   13d62:	98                   	cwtl   
   13d63:	be 01 00 00 00       	mov    $0x1,%esi
   13d68:	89 c7                	mov    %eax,%edi
   13d6a:	e8 23 47 ff ff       	callq  8492 <safe_lshift_func_int16_t_s_s>
   13d6f:	66 85 c0             	test   %ax,%ax
   13d72:	74 07                	je     13d7b <func_24+0x3f65>
   13d74:	b8 01 00 00 00       	mov    $0x1,%eax
   13d79:	eb 05                	jmp    13d80 <func_24+0x3f6a>
   13d7b:	b8 00 00 00 00       	mov    $0x0,%eax
   13d80:	48 98                	cltq   
   13d82:	48 39 85 d0 e3 ff ff 	cmp    %rax,-0x1c30(%rbp)
   13d89:	0f 92 c0             	setb   %al
   13d8c:	0f b6 c0             	movzbl %al,%eax
   13d8f:	be 02 00 00 00       	mov    $0x2,%esi
   13d94:	89 c7                	mov    %eax,%edi
   13d96:	e8 b1 4e ff ff       	callq  8c4c <safe_lshift_func_uint8_t_u_u>
   13d9b:	0f b6 d0             	movzbl %al,%edx
   13d9e:	0f b7 85 ac e1 ff ff 	movzwl -0x1e54(%rbp),%eax
   13da5:	98                   	cwtl   
   13da6:	39 c2                	cmp    %eax,%edx
   13da8:	0f 9e c0             	setle  %al
   13dab:	0f b6 c0             	movzbl %al,%eax
   13dae:	8b b5 a4 e1 ff ff    	mov    -0x1e5c(%rbp),%esi
   13db4:	89 c7                	mov    %eax,%edi
   13db6:	e8 15 51 ff ff       	callq  8ed0 <safe_sub_func_uint32_t_u_u>
   13dbb:	98                   	cwtl   
   13dbc:	44 89 e6             	mov    %r12d,%esi
   13dbf:	89 c7                	mov    %eax,%edi
   13dc1:	e8 50 46 ff ff       	callq  8416 <safe_mod_func_int16_t_s_s>
   13dc6:	98                   	cwtl   
   13dc7:	39 85 a8 e1 ff ff    	cmp    %eax,-0x1e58(%rbp)
   13dcd:	0f 9c c0             	setl   %al
   13dd0:	0f b6 c0             	movzbl %al,%eax
   13dd3:	89 de                	mov    %ebx,%esi
   13dd5:	89 c7                	mov    %eax,%edi
   13dd7:	e8 49 51 ff ff       	callq  8f25 <safe_div_func_uint32_t_u_u>
   13ddc:	8b 95 f0 e1 ff ff    	mov    -0x1e10(%rbp),%edx
   13de2:	09 d0                	or     %edx,%eax
   13de4:	89 85 f0 e1 ff ff    	mov    %eax,-0x1e10(%rbp)
   13dea:	8b 85 f0 e1 ff ff    	mov    -0x1e10(%rbp),%eax
   13df0:	0f bf d0             	movswl %ax,%edx
   13df3:	8b 85 a4 e6 ff ff    	mov    -0x195c(%rbp),%eax
   13df9:	98                   	cwtl   
   13dfa:	89 d6                	mov    %edx,%esi
   13dfc:	89 c7                	mov    %eax,%edi
   13dfe:	e8 b0 45 ff ff       	callq  83b3 <safe_add_func_int16_t_s_s>
   13e03:	0f bf d0             	movswl %ax,%edx
   13e06:	48 8b 85 58 e4 ff ff 	mov    -0x1ba8(%rbp),%rax
   13e0d:	89 10                	mov    %edx,(%rax)
   13e0f:	48 8b 85 58 e4 ff ff 	mov    -0x1ba8(%rbp),%rax
   13e16:	8b 00                	mov    (%rax),%eax
   13e18:	85 c0                	test   %eax,%eax
   13e1a:	74 0c                	je     13e28 <func_24+0x4012>
   13e1c:	48 8b 85 40 e3 ff ff 	mov    -0x1cc0(%rbp),%rax
   13e23:	e9 c4 08 00 00       	jmpq   146ec <func_24+0x48d6>
   13e28:	48 b8 37 37 ec cd 6f 	movabs $0x933a3a6fcdec3737,%rax
   13e2f:	3a 3a 93 
   13e32:	48 89 85 70 ed ff ff 	mov    %rax,-0x1290(%rbp)
   13e39:	48 89 85 78 ed ff ff 	mov    %rax,-0x1288(%rbp)
   13e40:	48 89 85 80 ed ff ff 	mov    %rax,-0x1280(%rbp)
   13e47:	48 89 85 88 ed ff ff 	mov    %rax,-0x1278(%rbp)
   13e4e:	48 89 85 90 ed ff ff 	mov    %rax,-0x1270(%rbp)
   13e55:	48 89 85 98 ed ff ff 	mov    %rax,-0x1268(%rbp)
   13e5c:	48 89 85 a0 ed ff ff 	mov    %rax,-0x1260(%rbp)
   13e63:	48 89 85 a8 ed ff ff 	mov    %rax,-0x1258(%rbp)
   13e6a:	48 89 85 b0 ed ff ff 	mov    %rax,-0x1250(%rbp)
   13e71:	48 8b 85 78 ed ff ff 	mov    -0x1288(%rbp),%rax
   13e78:	48 83 c0 01          	add    $0x1,%rax
   13e7c:	48 89 85 78 ed ff ff 	mov    %rax,-0x1288(%rbp)
   13e83:	83 85 50 e2 ff ff 01 	addl   $0x1,-0x1db0(%rbp)
   13e8a:	48 8b 05 bf d5 00 00 	mov    0xd5bf(%rip),%rax        # 21450 <g_69>
   13e91:	48 8d 95 dc e1 ff ff 	lea    -0x1e24(%rbp),%rdx
   13e98:	48 89 10             	mov    %rdx,(%rax)
   13e9b:	0f b7 85 40 e3 ff ff 	movzwl -0x1cc0(%rbp),%eax
   13ea2:	0f b7 d8             	movzwl %ax,%ebx
   13ea5:	48 8b 05 d4 d5 00 00 	mov    0xd5d4(%rip),%rax        # 21480 <g_145>
   13eac:	48 8b 10             	mov    (%rax),%rdx
   13eaf:	48 8d 85 ec e1 ff ff 	lea    -0x1e14(%rbp),%rax
   13eb6:	48 39 c2             	cmp    %rax,%rdx
   13eb9:	0f 94 c0             	sete   %al
   13ebc:	44 0f b6 e0          	movzbl %al,%r12d
   13ec0:	be 08 00 00 00       	mov    $0x8,%esi
   13ec5:	bf 01 00 00 00       	mov    $0x1,%edi
   13eca:	e8 8d 4e ff ff       	callq  8d5c <safe_mod_func_uint16_t_u_u>
   13ecf:	b8 07 00 00 00       	mov    $0x7,%eax
   13ed4:	66 83 f8 01          	cmp    $0x1,%ax
   13ed8:	0f 97 c0             	seta   %al
   13edb:	0f b6 d0             	movzbl %al,%edx
   13ede:	48 c7 85 08 e3 ff ff 	movq   $0x0,-0x1cf8(%rbp)
   13ee5:	00 00 00 00 
   13ee9:	48 8b 85 08 e3 ff ff 	mov    -0x1cf8(%rbp),%rax
   13ef0:	48 39 85 a8 e3 ff ff 	cmp    %rax,-0x1c58(%rbp)
   13ef7:	0f 95 c0             	setne  %al
   13efa:	0f b6 c0             	movzbl %al,%eax
   13efd:	89 d6                	mov    %edx,%esi
   13eff:	89 c7                	mov    %eax,%edi
   13f01:	e8 8d 4c ff ff       	callq  8b93 <safe_mul_func_uint8_t_u_u>
   13f06:	0f b6 c0             	movzbl %al,%eax
   13f09:	41 39 c4             	cmp    %eax,%r12d
   13f0c:	7e 0c                	jle    13f1a <func_24+0x4104>
   13f0e:	0f b6 05 df 61 00 00 	movzbl 0x61df(%rip),%eax        # 1a0f4 <g_741+0x94>
   13f15:	83 e0 7f             	and    $0x7f,%eax
   13f18:	84 c0                	test   %al,%al
   13f1a:	b9 01 00 00 00       	mov    $0x1,%ecx
   13f1f:	48 8b 05 c2 dd 00 00 	mov    0xddc2(%rip),%rax        # 21ce8 <g_986>
   13f26:	0f b7 10             	movzwl (%rax),%edx
   13f29:	48 8b 05 b8 dd 00 00 	mov    0xddb8(%rip),%rax        # 21ce8 <g_986>
   13f30:	31 ca                	xor    %ecx,%edx
   13f32:	66 89 10             	mov    %dx,(%rax)
   13f35:	0f b7 00             	movzwl (%rax),%eax
   13f38:	98                   	cwtl   
   13f39:	be 0f e3 ff ff       	mov    $0xffffe30f,%esi
   13f3e:	89 c7                	mov    %eax,%edi
   13f40:	e8 b0 44 ff ff       	callq  83f5 <safe_mul_func_int16_t_s_s>
   13f45:	98                   	cwtl   
   13f46:	89 de                	mov    %ebx,%esi
   13f48:	89 c7                	mov    %eax,%edi
   13f4a:	e8 db 45 ff ff       	callq  852a <safe_rshift_func_int16_t_s_s>
   13f4f:	89 c2                	mov    %eax,%edx
   13f51:	48 8b 05 60 d5 00 00 	mov    0xd560(%rip),%rax        # 214b8 <g_205>
   13f58:	48 8b 00             	mov    (%rax),%rax
   13f5b:	48 8b 00             	mov    (%rax),%rax
   13f5e:	48 8b 00             	mov    (%rax),%rax
   13f61:	0f bf d2             	movswl %dx,%edx
   13f64:	89 10                	mov    %edx,(%rax)
   13f66:	8b 10                	mov    (%rax),%edx
   13f68:	8b 85 e4 e1 ff ff    	mov    -0x1e1c(%rbp),%eax
   13f6e:	09 d0                	or     %edx,%eax
   13f70:	89 85 e4 e1 ff ff    	mov    %eax,-0x1e1c(%rbp)
   13f76:	e9 7a 05 00 00       	jmpq   144f5 <func_24+0x46df>
   13f7b:	48 c7 85 70 ed ff ff 	movq   $0x0,-0x1290(%rbp)
   13f82:	00 00 00 00 
   13f86:	48 8d 85 e0 e2 ff ff 	lea    -0x1d20(%rbp),%rax
   13f8d:	48 89 85 78 ed ff ff 	mov    %rax,-0x1288(%rbp)
   13f94:	48 c7 85 80 ed ff ff 	movq   $0x0,-0x1280(%rbp)
   13f9b:	00 00 00 00 
   13f9f:	48 8d 85 e0 e2 ff ff 	lea    -0x1d20(%rbp),%rax
   13fa6:	48 89 85 88 ed ff ff 	mov    %rax,-0x1278(%rbp)
   13fad:	48 c7 85 90 ed ff ff 	movq   $0x0,-0x1270(%rbp)
   13fb4:	00 00 00 00 
   13fb8:	48 8d 85 e0 e2 ff ff 	lea    -0x1d20(%rbp),%rax
   13fbf:	48 89 85 98 ed ff ff 	mov    %rax,-0x1268(%rbp)
   13fc6:	48 c7 85 a0 ed ff ff 	movq   $0x0,-0x1260(%rbp)
   13fcd:	00 00 00 00 
   13fd1:	48 8d 85 e0 e2 ff ff 	lea    -0x1d20(%rbp),%rax
   13fd8:	48 89 85 a8 ed ff ff 	mov    %rax,-0x1258(%rbp)
   13fdf:	48 c7 85 b0 ed ff ff 	movq   $0x0,-0x1250(%rbp)
   13fe6:	00 00 00 00 
   13fea:	48 8d 85 e0 e2 ff ff 	lea    -0x1d20(%rbp),%rax
   13ff1:	48 89 85 b8 ed ff ff 	mov    %rax,-0x1248(%rbp)
   13ff8:	48 c7 85 c0 ed ff ff 	movq   $0x0,-0x1240(%rbp)
   13fff:	00 00 00 00 
   14003:	48 8d 85 e0 e2 ff ff 	lea    -0x1d20(%rbp),%rax
   1400a:	48 89 85 c8 ed ff ff 	mov    %rax,-0x1238(%rbp)
   14011:	48 c7 85 d0 ed ff ff 	movq   $0x0,-0x1230(%rbp)
   14018:	00 00 00 00 
   1401c:	48 8d 85 e0 e2 ff ff 	lea    -0x1d20(%rbp),%rax
   14023:	48 89 85 d8 ed ff ff 	mov    %rax,-0x1228(%rbp)
   1402a:	48 c7 85 e0 ed ff ff 	movq   $0x0,-0x1220(%rbp)
   14031:	00 00 00 00 
   14035:	48 8d 85 e0 e2 ff ff 	lea    -0x1d20(%rbp),%rax
   1403c:	48 89 85 e8 ed ff ff 	mov    %rax,-0x1218(%rbp)
   14043:	48 c7 85 f0 ed ff ff 	movq   $0x0,-0x1210(%rbp)
   1404a:	00 00 00 00 
   1404e:	48 8d 85 e0 e2 ff ff 	lea    -0x1d20(%rbp),%rax
   14055:	48 89 85 f8 ed ff ff 	mov    %rax,-0x1208(%rbp)
   1405c:	48 c7 85 00 ee ff ff 	movq   $0x0,-0x1200(%rbp)
   14063:	00 00 00 00 
   14067:	48 8d 85 e0 e2 ff ff 	lea    -0x1d20(%rbp),%rax
   1406e:	48 89 85 08 ee ff ff 	mov    %rax,-0x11f8(%rbp)
   14075:	48 c7 85 10 ee ff ff 	movq   $0x0,-0x11f0(%rbp)
   1407c:	00 00 00 00 
   14080:	48 8d 85 e0 e2 ff ff 	lea    -0x1d20(%rbp),%rax
   14087:	48 89 85 18 ee ff ff 	mov    %rax,-0x11e8(%rbp)
   1408e:	48 c7 85 20 ee ff ff 	movq   $0x0,-0x11e0(%rbp)
   14095:	00 00 00 00 
   14099:	48 8d 85 e0 e2 ff ff 	lea    -0x1d20(%rbp),%rax
   140a0:	48 89 85 28 ee ff ff 	mov    %rax,-0x11d8(%rbp)
   140a7:	48 c7 85 18 e4 ff ff 	movq   $0x0,-0x1be8(%rbp)
   140ae:	00 00 00 00 
   140b2:	48 8d 05 b7 af 00 00 	lea    0xafb7(%rip),%rax        # 1f070 <g_121>
   140b9:	48 89 85 20 e4 ff ff 	mov    %rax,-0x1be0(%rbp)
   140c0:	48 8b 05 99 d3 00 00 	mov    0xd399(%rip),%rax        # 21460 <g_67>
   140c7:	48 8b 00             	mov    (%rax),%rax
   140ca:	48 89 85 08 e4 ff ff 	mov    %rax,-0x1bf8(%rbp)
   140d1:	48 8b 85 08 e4 ff ff 	mov    -0x1bf8(%rbp),%rax
   140d8:	48 89 85 f0 e3 ff ff 	mov    %rax,-0x1c10(%rbp)
   140df:	66 c7 05 cc b0 00 00 	movw   $0xffe9,0xb0cc(%rip)        # 1f1b4 <g_291>
   140e6:	e9 ff 
   140e8:	e9 e9 03 00 00       	jmpq   144d6 <func_24+0x46c0>
   140ed:	48 8d 05 5c d3 00 00 	lea    0xd35c(%rip),%rax        # 21450 <g_69>
   140f4:	48 89 85 28 e4 ff ff 	mov    %rax,-0x1bd8(%rbp)
   140fb:	48 8d 05 4e d3 00 00 	lea    0xd34e(%rip),%rax        # 21450 <g_69>
   14102:	48 89 85 30 e4 ff ff 	mov    %rax,-0x1bd0(%rbp)
   14109:	c7 85 44 e2 ff ff 2b 	movl   $0x1b08dd2b,-0x1dbc(%rbp)
   14110:	dd 08 1b 
   14113:	48 8d 85 48 e3 ff ff 	lea    -0x1cb8(%rbp),%rax
   1411a:	48 89 85 38 e4 ff ff 	mov    %rax,-0x1bc8(%rbp)
   14121:	48 8d 85 00 e3 ff ff 	lea    -0x1d00(%rbp),%rax
   14128:	48 89 85 40 e4 ff ff 	mov    %rax,-0x1bc0(%rbp)
   1412f:	48 8d 85 38 e3 ff ff 	lea    -0x1cc8(%rbp),%rax
   14136:	48 89 85 40 f8 ff ff 	mov    %rax,-0x7c0(%rbp)
   1413d:	48 8d 85 38 e3 ff ff 	lea    -0x1cc8(%rbp),%rax
   14144:	48 89 85 48 f8 ff ff 	mov    %rax,-0x7b8(%rbp)
   1414b:	48 8d 85 38 e3 ff ff 	lea    -0x1cc8(%rbp),%rax
   14152:	48 89 85 50 f8 ff ff 	mov    %rax,-0x7b0(%rbp)
   14159:	48 8d 05 d0 ae 00 00 	lea    0xaed0(%rip),%rax        # 1f030 <g_39>
   14160:	48 89 85 58 f8 ff ff 	mov    %rax,-0x7a8(%rbp)
   14167:	48 8d 85 38 e3 ff ff 	lea    -0x1cc8(%rbp),%rax
   1416e:	48 89 85 60 f8 ff ff 	mov    %rax,-0x7a0(%rbp)
   14175:	48 8d 85 38 e3 ff ff 	lea    -0x1cc8(%rbp),%rax
   1417c:	48 89 85 68 f8 ff ff 	mov    %rax,-0x798(%rbp)
   14183:	48 8d 85 38 e3 ff ff 	lea    -0x1cc8(%rbp),%rax
   1418a:	48 89 85 70 f8 ff ff 	mov    %rax,-0x790(%rbp)
   14191:	48 c7 85 78 f8 ff ff 	movq   $0x0,-0x788(%rbp)
   14198:	00 00 00 00 
   1419c:	48 c7 85 80 f8 ff ff 	movq   $0x0,-0x780(%rbp)
   141a3:	00 00 00 00 
   141a7:	48 c7 85 88 f8 ff ff 	movq   $0x0,-0x778(%rbp)
   141ae:	00 00 00 00 
   141b2:	48 c7 85 90 f8 ff ff 	movq   $0x0,-0x770(%rbp)
   141b9:	00 00 00 00 
   141bd:	48 8d 85 38 e3 ff ff 	lea    -0x1cc8(%rbp),%rax
   141c4:	48 89 85 98 f8 ff ff 	mov    %rax,-0x768(%rbp)
   141cb:	48 8d 85 38 e3 ff ff 	lea    -0x1cc8(%rbp),%rax
   141d2:	48 89 85 a0 f8 ff ff 	mov    %rax,-0x760(%rbp)
   141d9:	48 8d 85 38 e3 ff ff 	lea    -0x1cc8(%rbp),%rax
   141e0:	48 89 85 a8 f8 ff ff 	mov    %rax,-0x758(%rbp)
   141e7:	48 8d 05 42 ae 00 00 	lea    0xae42(%rip),%rax        # 1f030 <g_39>
   141ee:	48 89 85 b0 f8 ff ff 	mov    %rax,-0x750(%rbp)
   141f5:	48 8d 85 38 e3 ff ff 	lea    -0x1cc8(%rbp),%rax
   141fc:	48 89 85 b8 f8 ff ff 	mov    %rax,-0x748(%rbp)
   14203:	48 8d 85 38 e3 ff ff 	lea    -0x1cc8(%rbp),%rax
   1420a:	48 89 85 c0 f8 ff ff 	mov    %rax,-0x740(%rbp)
   14211:	48 8d 85 38 e3 ff ff 	lea    -0x1cc8(%rbp),%rax
   14218:	48 89 85 c8 f8 ff ff 	mov    %rax,-0x738(%rbp)
   1421f:	48 c7 85 d0 f8 ff ff 	movq   $0x0,-0x730(%rbp)
   14226:	00 00 00 00 
   1422a:	48 c7 85 d8 f8 ff ff 	movq   $0x0,-0x728(%rbp)
   14231:	00 00 00 00 
   14235:	48 c7 85 e0 f8 ff ff 	movq   $0x0,-0x720(%rbp)
   1423c:	00 00 00 00 
   14240:	48 c7 85 e8 f8 ff ff 	movq   $0x0,-0x718(%rbp)
   14247:	00 00 00 00 
   1424b:	48 8d 85 38 e3 ff ff 	lea    -0x1cc8(%rbp),%rax
   14252:	48 89 85 f0 f8 ff ff 	mov    %rax,-0x710(%rbp)
   14259:	48 8d 85 38 e3 ff ff 	lea    -0x1cc8(%rbp),%rax
   14260:	48 89 85 f8 f8 ff ff 	mov    %rax,-0x708(%rbp)
   14267:	48 8b 95 48 e3 ff ff 	mov    -0x1cb8(%rbp),%rdx
   1426e:	48 8b 85 38 e4 ff ff 	mov    -0x1bc8(%rbp),%rax
   14275:	48 89 10             	mov    %rdx,(%rax)
   14278:	48 c7 c6 f9 ff ff ff 	mov    $0xfffffffffffffff9,%rsi
   1427f:	bf 00 00 00 00       	mov    $0x0,%edi
   14284:	e8 a5 4d ff ff       	callq  902e <safe_add_func_uint64_t_u_u>
   14289:	48 83 f8 ff          	cmp    $0xffffffffffffffff,%rax
   1428d:	0f 94 c0             	sete   %al
   14290:	0f b6 d0             	movzbl %al,%edx
   14293:	48 8b 85 08 e4 ff ff 	mov    -0x1bf8(%rbp),%rax
   1429a:	48 89 85 30 e4 ff ff 	mov    %rax,-0x1bd0(%rbp)
   142a1:	48 8b 85 30 e4 ff ff 	mov    -0x1bd0(%rbp),%rax
   142a8:	48 3b 85 28 e4 ff ff 	cmp    -0x1bd8(%rbp),%rax
   142af:	48 8b 85 f8 e3 ff ff 	mov    -0x1c08(%rbp),%rax
   142b6:	48 3b 85 18 e4 ff ff 	cmp    -0x1be8(%rbp),%rax
   142bd:	0f 94 c0             	sete   %al
   142c0:	0f b6 c0             	movzbl %al,%eax
   142c3:	89 d6                	mov    %edx,%esi
   142c5:	89 c7                	mov    %eax,%edi
   142c7:	e8 f2 49 ff ff       	callq  8cbe <safe_rshift_func_uint8_t_u_u>
   142cc:	0f b6 c0             	movzbl %al,%eax
   142cf:	89 85 44 e2 ff ff    	mov    %eax,-0x1dbc(%rbp)
   142d5:	83 bd b4 e1 ff ff 00 	cmpl   $0x0,-0x1e4c(%rbp)
   142dc:	0f 85 07 02 00 00    	jne    144e9 <func_24+0x46d3>
   142e2:	48 8b 05 6f d1 00 00 	mov    0xd16f(%rip),%rax        # 21458 <g_68>
   142e9:	48 8b 10             	mov    (%rax),%rdx
   142ec:	48 8b 05 65 d1 00 00 	mov    0xd165(%rip),%rax        # 21458 <g_68>
   142f3:	48 8b 00             	mov    (%rax),%rax
   142f6:	48 8b 12             	mov    (%rdx),%rdx
   142f9:	48 89 10             	mov    %rdx,(%rax)
   142fc:	48 8b 00             	mov    (%rax),%rax
   142ff:	48 89 85 10 e4 ff ff 	mov    %rax,-0x1bf0(%rbp)
   14306:	48 0f bf 9d b8 e1 ff 	movswq -0x1e48(%rbp),%rbx
   1430d:	ff 
   1430e:	48 8b 05 7b d9 00 00 	mov    0xd97b(%rip),%rax        # 21c90 <g_980>
   14315:	0f b7 00             	movzwl (%rax),%eax
   14318:	44 0f b7 e0          	movzwl %ax,%r12d
   1431c:	48 8b 05 45 d1 00 00 	mov    0xd145(%rip),%rax        # 21468 <g_83>
   14323:	0f b7 00             	movzwl (%rax),%eax
   14326:	0f b7 85 ac e1 ff ff 	movzwl -0x1e54(%rbp),%eax
   1432d:	0f be c0             	movsbl %al,%eax
   14330:	be 01 00 00 00       	mov    $0x1,%esi
   14335:	89 c7                	mov    %eax,%edi
   14337:	e8 d6 3e ff ff       	callq  8212 <safe_mul_func_int8_t_s_s>
   1433c:	8b 85 bc e1 ff ff    	mov    -0x1e44(%rbp),%eax
   14342:	44 0f b6 e8          	movzbl %al,%r13d
   14346:	48 8b 05 db d5 00 00 	mov    0xd5db(%rip),%rax        # 21928 <g_359>
   1434d:	48 8b 00             	mov    (%rax),%rax
   14350:	44 8b 38             	mov    (%rax),%r15d
   14353:	48 8b 05 36 d9 00 00 	mov    0xd936(%rip),%rax        # 21c90 <g_980>
   1435a:	0f b7 00             	movzwl (%rax),%eax
   1435d:	44 0f bf f0          	movswl %ax,%r14d
   14361:	8b 85 b4 e1 ff ff    	mov    -0x1e4c(%rbp),%eax
   14367:	21 85 2c e2 ff ff    	and    %eax,-0x1dd4(%rbp)
   1436d:	8b 85 2c e2 ff ff    	mov    -0x1dd4(%rbp),%eax
   14373:	0f b7 15 f8 ac 00 00 	movzwl 0xacf8(%rip),%edx        # 1f072 <g_121+0x2>
   1437a:	0f b7 d2             	movzwl %dx,%edx
   1437d:	89 95 f8 e2 ff ff    	mov    %edx,-0x1d08(%rbp)
   14383:	8b 95 f8 e2 ff ff    	mov    -0x1d08(%rbp),%edx
   14389:	85 d2                	test   %edx,%edx
   1438b:	75 07                	jne    14394 <func_24+0x457e>
   1438d:	c6 05 40 ae 00 00 01 	movb   $0x1,0xae40(%rip)        # 1f1d4 <g_426+0x4>
   14394:	ba 01 00 00 00       	mov    $0x1,%edx
   14399:	89 c6                	mov    %eax,%esi
   1439b:	89 d7                	mov    %edx,%edi
   1439d:	e8 16 4b ff ff       	callq  8eb8 <safe_add_func_uint32_t_u_u>
   143a2:	98                   	cwtl   
   143a3:	44 89 f6             	mov    %r14d,%esi
   143a6:	89 c7                	mov    %eax,%edi
   143a8:	e8 69 40 ff ff       	callq  8416 <safe_mod_func_int16_t_s_s>
   143ad:	98                   	cwtl   
   143ae:	41 39 c7             	cmp    %eax,%r15d
   143b1:	0f 92 c0             	setb   %al
   143b4:	0f b6 c0             	movzbl %al,%eax
   143b7:	be 0e 00 00 00       	mov    $0xe,%esi
   143bc:	89 c7                	mov    %eax,%edi
   143be:	e8 b7 4a ff ff       	callq  8e7a <safe_rshift_func_uint16_t_u_u>
   143c3:	48 8b 05 c6 d8 00 00 	mov    0xd8c6(%rip),%rax        # 21c90 <g_980>
   143ca:	0f b7 00             	movzwl (%rax),%eax
   143cd:	66 85 c0             	test   %ax,%ax
   143d0:	0f 95 c0             	setne  %al
   143d3:	0f b6 c0             	movzbl %al,%eax
   143d6:	be 07 00 00 00       	mov    $0x7,%esi
   143db:	89 c7                	mov    %eax,%edi
   143dd:	e8 ff 40 ff ff       	callq  84e1 <safe_lshift_func_int16_t_s_u>
   143e2:	0f b7 95 ac e1 ff ff 	movzwl -0x1e54(%rbp),%edx
   143e9:	66 39 d0             	cmp    %dx,%ax
   143ec:	0f 94 c0             	sete   %al
   143ef:	0f b6 c0             	movzbl %al,%eax
   143f2:	44 89 ee             	mov    %r13d,%esi
   143f5:	89 c7                	mov    %eax,%edi
   143f7:	e8 df 47 ff ff       	callq  8bdb <safe_div_func_uint8_t_u_u>
   143fc:	66 83 bd b8 e1 ff ff 	cmpw   $0x0,-0x1e48(%rbp)
   14403:	00 
   14404:	0f 94 c0             	sete   %al
   14407:	0f b6 d0             	movzbl %al,%edx
   1440a:	0f b7 85 ac e1 ff ff 	movzwl -0x1e54(%rbp),%eax
   14411:	98                   	cwtl   
   14412:	89 d1                	mov    %edx,%ecx
   14414:	09 c1                	or     %eax,%ecx
   14416:	48 8b 05 d3 d8 00 00 	mov    0xd8d3(%rip),%rax        # 21cf0 <g_985>
   1441d:	48 8b 00             	mov    (%rax),%rax
   14420:	0f b7 10             	movzwl (%rax),%edx
   14423:	48 8b 05 c6 d8 00 00 	mov    0xd8c6(%rip),%rax        # 21cf0 <g_985>
   1442a:	48 8b 00             	mov    (%rax),%rax
   1442d:	21 ca                	and    %ecx,%edx
   1442f:	66 89 10             	mov    %dx,(%rax)
   14432:	0f b7 00             	movzwl (%rax),%eax
   14435:	98                   	cwtl   
   14436:	39 85 bc e1 ff ff    	cmp    %eax,-0x1e44(%rbp)
   1443c:	44 89 e6             	mov    %r12d,%esi
   1443f:	bf 01 00 00 00       	mov    $0x1,%edi
   14444:	e8 45 49 ff ff       	callq  8d8e <safe_div_func_uint16_t_u_u>
   14449:	48 8b 15 e0 d4 00 00 	mov    0xd4e0(%rip),%rdx        # 21930 <g_536>
   14450:	48 8b 02             	mov    (%rdx),%rax
   14453:	48 8d 48 01          	lea    0x1(%rax),%rcx
   14457:	48 89 0a             	mov    %rcx,(%rdx)
   1445a:	48 85 c0             	test   %rax,%rax
   1445d:	0f 95 c0             	setne  %al
   14460:	0f b6 c0             	movzbl %al,%eax
   14463:	be 04 00 00 00       	mov    $0x4,%esi
   14468:	89 c7                	mov    %eax,%edi
   1446a:	e8 d9 49 ff ff       	callq  8e48 <safe_rshift_func_uint16_t_u_s>
   1446f:	83 bd 38 e2 ff ff 06 	cmpl   $0x6,-0x1dc8(%rbp)
   14476:	0f 9f c0             	setg   %al
   14479:	0f b6 c0             	movzbl %al,%eax
   1447c:	48 89 05 ad ab 00 00 	mov    %rax,0xabad(%rip)        # 1f030 <g_39>
   14483:	48 8b 05 a6 ab 00 00 	mov    0xaba6(%rip),%rax        # 1f030 <g_39>
   1448a:	48 89 de             	mov    %rbx,%rsi
   1448d:	48 89 c7             	mov    %rax,%rdi
   14490:	e8 62 45 ff ff       	callq  89f7 <safe_div_func_int64_t_s_s>
   14495:	48 83 f8 ff          	cmp    $0xffffffffffffffff,%rax
   14499:	74 07                	je     144a2 <func_24+0x468c>
   1449b:	b8 01 00 00 00       	mov    $0x1,%eax
   144a0:	eb 05                	jmp    144a7 <func_24+0x4691>
   144a2:	b8 00 00 00 00       	mov    $0x0,%eax
   144a7:	39 85 bc e1 ff ff    	cmp    %eax,-0x1e44(%rbp)
   144ad:	0f 97 c0             	seta   %al
   144b0:	0f b6 c0             	movzbl %al,%eax
   144b3:	89 05 6f ae 00 00    	mov    %eax,0xae6f(%rip)        # 1f328 <g_1113>
   144b9:	0f b7 05 f4 ac 00 00 	movzwl 0xacf4(%rip),%eax        # 1f1b4 <g_291>
   144c0:	0f b7 c0             	movzwl %ax,%eax
   144c3:	be 06 00 00 00       	mov    $0x6,%esi
   144c8:	89 c7                	mov    %eax,%edi
   144ca:	e8 30 48 ff ff       	callq  8cff <safe_add_func_uint16_t_u_u>
   144cf:	66 89 05 de ac 00 00 	mov    %ax,0xacde(%rip)        # 1f1b4 <g_291>
   144d6:	0f b7 05 d7 ac 00 00 	movzwl 0xacd7(%rip),%eax        # 1f1b4 <g_291>
   144dd:	66 83 f8 05          	cmp    $0x5,%ax
   144e1:	0f 8e 06 fc ff ff    	jle    140ed <func_24+0x42d7>
   144e7:	eb 01                	jmp    144ea <func_24+0x46d4>
   144e9:	90                   	nop
   144ea:	48 83 85 88 e3 ff ff 	addq   $0x1,-0x1c78(%rbp)
   144f1:	01 
   144f2:	eb 01                	jmp    144f5 <func_24+0x46df>
   144f4:	90                   	nop
   144f5:	0f b6 05 e5 ad 00 00 	movzbl 0xade5(%rip),%eax        # 1f2e1 <g_793+0x1>
   144fc:	0f be c0             	movsbl %al,%eax
   144ff:	be 03 00 00 00       	mov    $0x3,%esi
   14504:	89 c7                	mov    %eax,%edi
   14506:	e8 c9 3c ff ff       	callq  81d4 <safe_add_func_int8_t_s_s>
   1450b:	88 05 d0 ad 00 00    	mov    %al,0xadd0(%rip)        # 1f2e1 <g_793+0x1>
   14511:	0f b6 05 c9 ad 00 00 	movzbl 0xadc9(%rip),%eax        # 1f2e1 <g_793+0x1>
   14518:	3c 09                	cmp    $0x9,%al
   1451a:	0f 84 6e d5 ff ff    	je     11a8e <func_24+0x1c78>
   14520:	eb 01                	jmp    14523 <func_24+0x470d>
   14522:	90                   	nop
   14523:	83 ad 30 e2 ff ff 01 	subl   $0x1,-0x1dd0(%rbp)
   1452a:	c7 85 d8 e1 ff ff fb 	movl   $0xfffffffb,-0x1e28(%rbp)
   14531:	ff ff ff 
   14534:	e9 9d 01 00 00       	jmpq   146d6 <func_24+0x48c0>
   14539:	c7 85 68 e2 ff ff fa 	movl   $0xfffffffa,-0x1d98(%rbp)
   14540:	ff ff ff 
   14543:	c7 85 6c e2 ff ff 01 	movl   $0x1,-0x1d94(%rbp)
   1454a:	00 00 00 
   1454d:	c6 85 cc e1 ff ff ff 	movb   $0xff,-0x1e34(%rbp)
   14554:	c7 85 70 e2 ff ff ff 	movl   $0xffffffff,-0x1d90(%rbp)
   1455b:	ff ff ff 
   1455e:	c7 85 74 e2 ff ff cd 	movl   $0x161e50cd,-0x1d8c(%rbp)
   14565:	50 1e 16 
   14568:	48 c7 85 28 e5 ff ff 	movq   $0xffffffffffffffff,-0x1ad8(%rbp)
   1456f:	ff ff ff ff 
   14573:	c7 85 78 e2 ff ff 00 	movl   $0x0,-0x1d88(%rbp)
   1457a:	00 00 00 
   1457d:	c7 85 7c e2 ff ff ff 	movl   $0xffffffff,-0x1d84(%rbp)
   14584:	ff ff ff 
   14587:	48 8d 05 32 d7 00 00 	lea    0xd732(%rip),%rax        # 21cc0 <g_979+0x20>
   1458e:	48 89 85 40 f8 ff ff 	mov    %rax,-0x7c0(%rbp)
   14595:	48 8d 05 04 d7 00 00 	lea    0xd704(%rip),%rax        # 21ca0 <g_979>
   1459c:	48 89 85 48 f8 ff ff 	mov    %rax,-0x7b8(%rbp)
   145a3:	48 8d 05 f6 d6 00 00 	lea    0xd6f6(%rip),%rax        # 21ca0 <g_979>
   145aa:	48 89 85 50 f8 ff ff 	mov    %rax,-0x7b0(%rbp)
   145b1:	48 8d 05 08 d7 00 00 	lea    0xd708(%rip),%rax        # 21cc0 <g_979+0x20>
   145b8:	48 89 85 58 f8 ff ff 	mov    %rax,-0x7a8(%rbp)
   145bf:	48 8d 05 da d6 00 00 	lea    0xd6da(%rip),%rax        # 21ca0 <g_979>
   145c6:	48 89 85 60 f8 ff ff 	mov    %rax,-0x7a0(%rbp)
   145cd:	48 8d 05 cc d6 00 00 	lea    0xd6cc(%rip),%rax        # 21ca0 <g_979>
   145d4:	48 89 85 68 f8 ff ff 	mov    %rax,-0x798(%rbp)
   145db:	48 8d 05 de d6 00 00 	lea    0xd6de(%rip),%rax        # 21cc0 <g_979+0x20>
   145e2:	48 89 85 70 f8 ff ff 	mov    %rax,-0x790(%rbp)
   145e9:	48 8d 05 b0 d6 00 00 	lea    0xd6b0(%rip),%rax        # 21ca0 <g_979>
   145f0:	48 89 85 78 f8 ff ff 	mov    %rax,-0x788(%rbp)
   145f7:	48 8d 05 a2 d6 00 00 	lea    0xd6a2(%rip),%rax        # 21ca0 <g_979>
   145fe:	48 89 85 80 f8 ff ff 	mov    %rax,-0x780(%rbp)
   14605:	c7 85 80 e2 ff ff f6 	movl   $0xfffffff6,-0x1d80(%rbp)
   1460c:	ff ff ff 
   1460f:	c7 85 84 e2 ff ff 3d 	movl   $0x687c343d,-0x1d7c(%rbp)
   14616:	34 7c 68 
   14619:	c7 85 88 e2 ff ff 00 	movl   $0x0,-0x1d78(%rbp)
   14620:	00 00 00 
   14623:	c7 85 8c e2 ff ff ff 	movl   $0xffffffff,-0x1d74(%rbp)
   1462a:	ff ff ff 
   1462d:	c7 85 90 e2 ff ff fd 	movl   $0xfffffffd,-0x1d70(%rbp)
   14634:	ff ff ff 
   14637:	48 b8 1d 86 3e d5 0b 	movabs $0xc5ad360bd53e861d,%rax
   1463e:	36 ad c5 
   14641:	48 89 85 30 e5 ff ff 	mov    %rax,-0x1ad0(%rbp)
   14648:	48 c7 85 38 e5 ff ff 	movq   $0x0,-0x1ac8(%rbp)
   1464f:	00 00 00 00 
   14653:	48 c7 85 40 e5 ff ff 	movq   $0x0,-0x1ac0(%rbp)
   1465a:	00 00 00 00 
   1465e:	48 8d 05 fb a9 00 00 	lea    0xa9fb(%rip),%rax        # 1f060 <g_77>
   14665:	48 89 85 48 e5 ff ff 	mov    %rax,-0x1ab8(%rbp)
   1466c:	c7 85 94 e2 ff ff 01 	movl   $0x1,-0x1d6c(%rbp)
   14673:	00 00 00 
   14676:	48 8d 85 08 e3 ff ff 	lea    -0x1cf8(%rbp),%rax
   1467d:	48 89 85 50 e5 ff ff 	mov    %rax,-0x1ab0(%rbp)
   14684:	c6 85 cd e1 ff ff cb 	movb   $0xcb,-0x1e33(%rbp)
   1468b:	48 8d 05 be cd 00 00 	lea    0xcdbe(%rip),%rax        # 21450 <g_69>
   14692:	48 89 85 58 e5 ff ff 	mov    %rax,-0x1aa8(%rbp)
   14699:	48 c7 85 60 e5 ff ff 	movq   $0xfffffffffffffffe,-0x1aa0(%rbp)
   146a0:	fe ff ff ff 
   146a4:	48 c7 85 68 e3 ff ff 	movq   $0x0,-0x1c98(%rbp)
   146ab:	00 00 00 00 
   146af:	66 c7 85 68 e3 ff ff 	movw   $0x6029,-0x1c98(%rbp)
   146b6:	29 60 
   146b8:	8b 85 d8 e1 ff ff    	mov    -0x1e28(%rbp),%eax
   146be:	0f b6 c0             	movzbl %al,%eax
   146c1:	be 04 00 00 00       	mov    $0x4,%esi
   146c6:	89 c7                	mov    %eax,%edi
   146c8:	e8 8d 44 ff ff       	callq  8b5a <safe_add_func_uint8_t_u_u>
   146cd:	0f b6 c0             	movzbl %al,%eax
   146d0:	89 85 d8 e1 ff ff    	mov    %eax,-0x1e28(%rbp)
   146d6:	8b 85 d8 e1 ff ff    	mov    -0x1e28(%rbp),%eax
   146dc:	83 f8 fc             	cmp    $0xfffffffc,%eax
   146df:	0f 8c 54 fe ff ff    	jl     14539 <func_24+0x4723>
   146e5:	48 8b 85 00 e3 ff ff 	mov    -0x1d00(%rbp),%rax
   146ec:	48 8b 4d c8          	mov    -0x38(%rbp),%rcx
   146f0:	64 48 33 0c 25 28 00 	xor    %fs:0x28,%rcx
   146f7:	00 00 
   146f9:	74 05                	je     14700 <func_24+0x48ea>
   146fb:	e8 70 39 ff ff       	callq  8070 <__stack_chk_fail@plt>
   14700:	48 81 c4 38 1e 00 00 	add    $0x1e38,%rsp
   14707:	5b                   	pop    %rbx
   14708:	41 5c                	pop    %r12
   1470a:	41 5d                	pop    %r13
   1470c:	41 5e                	pop    %r14
   1470e:	41 5f                	pop    %r15
   14710:	5d                   	pop    %rbp
   14711:	c3                   	retq   

0000000000014712 <func_32>:
   14712:	f3 0f 1e fa          	endbr64 
   14716:	55                   	push   %rbp
   14717:	48 89 e5             	mov    %rsp,%rbp
   1471a:	48 81 ec 00 02 00 00 	sub    $0x200,%rsp
   14721:	48 89 bd 18 fe ff ff 	mov    %rdi,-0x1e8(%rbp)
   14728:	48 89 b5 10 fe ff ff 	mov    %rsi,-0x1f0(%rbp)
   1472f:	89 95 0c fe ff ff    	mov    %edx,-0x1f4(%rbp)
   14735:	89 c8                	mov    %ecx,%eax
   14737:	44 89 85 04 fe ff ff 	mov    %r8d,-0x1fc(%rbp)
   1473e:	88 85 08 fe ff ff    	mov    %al,-0x1f8(%rbp)
   14744:	64 48 8b 04 25 28 00 	mov    %fs:0x28,%rax
   1474b:	00 00 
   1474d:	48 89 45 f8          	mov    %rax,-0x8(%rbp)
   14751:	31 c0                	xor    %eax,%eax
   14753:	c7 85 38 fe ff ff 01 	movl   $0x1010101,-0x1c8(%rbp)
   1475a:	01 01 01 
   1475d:	c7 85 3c fe ff ff 01 	movl   $0x1010101,-0x1c4(%rbp)
   14764:	01 01 01 
   14767:	c7 85 24 fe ff ff f6 	movl   $0xfffffff6,-0x1dc(%rbp)
   1476e:	ff ff ff 
   14771:	48 8d 85 24 fe ff ff 	lea    -0x1dc(%rbp),%rax
   14778:	48 89 85 28 fe ff ff 	mov    %rax,-0x1d8(%rbp)
   1477f:	48 c7 85 30 fe ff ff 	movq   $0x0,-0x1d0(%rbp)
   14786:	00 00 00 00 
   1478a:	48 c7 85 40 fe ff ff 	movq   $0x0,-0x1c0(%rbp)
   14791:	00 00 00 00 
   14795:	48 8d 05 9c a8 00 00 	lea    0xa89c(%rip),%rax        # 1f038 <g_62>
   1479c:	48 89 85 48 fe ff ff 	mov    %rax,-0x1b8(%rbp)
   147a3:	48 8d 85 24 fe ff ff 	lea    -0x1dc(%rbp),%rax
   147aa:	48 89 85 50 fe ff ff 	mov    %rax,-0x1b0(%rbp)
   147b1:	48 8d 05 80 a8 00 00 	lea    0xa880(%rip),%rax        # 1f038 <g_62>
   147b8:	48 89 85 58 fe ff ff 	mov    %rax,-0x1a8(%rbp)
   147bf:	48 c7 85 60 fe ff ff 	movq   $0x0,-0x1a0(%rbp)
   147c6:	00 00 00 00 
   147ca:	48 8d 85 24 fe ff ff 	lea    -0x1dc(%rbp),%rax
   147d1:	48 89 85 68 fe ff ff 	mov    %rax,-0x198(%rbp)
   147d8:	48 8d 05 59 a8 00 00 	lea    0xa859(%rip),%rax        # 1f038 <g_62>
   147df:	48 89 85 70 fe ff ff 	mov    %rax,-0x190(%rbp)
   147e6:	48 8d 05 53 a8 00 00 	lea    0xa853(%rip),%rax        # 1f040 <g_62+0x8>
   147ed:	48 89 85 78 fe ff ff 	mov    %rax,-0x188(%rbp)
   147f4:	48 c7 85 80 fe ff ff 	movq   $0x0,-0x180(%rbp)
   147fb:	00 00 00 00 
   147ff:	48 8d 05 32 a8 00 00 	lea    0xa832(%rip),%rax        # 1f038 <g_62>
   14806:	48 89 85 88 fe ff ff 	mov    %rax,-0x178(%rbp)
   1480d:	48 8d 05 2c a8 00 00 	lea    0xa82c(%rip),%rax        # 1f040 <g_62+0x8>
   14814:	48 89 85 90 fe ff ff 	mov    %rax,-0x170(%rbp)
   1481b:	48 8d 85 24 fe ff ff 	lea    -0x1dc(%rbp),%rax
   14822:	48 89 85 98 fe ff ff 	mov    %rax,-0x168(%rbp)
   14829:	48 8d 05 10 a8 00 00 	lea    0xa810(%rip),%rax        # 1f040 <g_62+0x8>
   14830:	48 89 85 a0 fe ff ff 	mov    %rax,-0x160(%rbp)
   14837:	48 8d 05 02 a8 00 00 	lea    0xa802(%rip),%rax        # 1f040 <g_62+0x8>
   1483e:	48 89 85 a8 fe ff ff 	mov    %rax,-0x158(%rbp)
   14845:	48 c7 85 b0 fe ff ff 	movq   $0x0,-0x150(%rbp)
   1484c:	00 00 00 00 
   14850:	48 8d 05 e9 a7 00 00 	lea    0xa7e9(%rip),%rax        # 1f040 <g_62+0x8>
   14857:	48 89 85 b8 fe ff ff 	mov    %rax,-0x148(%rbp)
   1485e:	48 8d 05 db a7 00 00 	lea    0xa7db(%rip),%rax        # 1f040 <g_62+0x8>
   14865:	48 89 85 c0 fe ff ff 	mov    %rax,-0x140(%rbp)
   1486c:	48 8d 85 24 fe ff ff 	lea    -0x1dc(%rbp),%rax
   14873:	48 89 85 c8 fe ff ff 	mov    %rax,-0x138(%rbp)
   1487a:	48 c7 85 d0 fe ff ff 	movq   $0x0,-0x130(%rbp)
   14881:	00 00 00 00 
   14885:	48 c7 85 d8 fe ff ff 	movq   $0x0,-0x128(%rbp)
   1488c:	00 00 00 00 
   14890:	48 c7 85 e0 fe ff ff 	movq   $0x0,-0x120(%rbp)
   14897:	00 00 00 00 
   1489b:	48 8d 05 9e a7 00 00 	lea    0xa79e(%rip),%rax        # 1f040 <g_62+0x8>
   148a2:	48 89 85 e8 fe ff ff 	mov    %rax,-0x118(%rbp)
   148a9:	48 8d 05 88 a7 00 00 	lea    0xa788(%rip),%rax        # 1f038 <g_62>
   148b0:	48 89 85 f0 fe ff ff 	mov    %rax,-0x110(%rbp)
   148b7:	48 8d 85 24 fe ff ff 	lea    -0x1dc(%rbp),%rax
   148be:	48 89 85 f8 fe ff ff 	mov    %rax,-0x108(%rbp)
   148c5:	48 c7 85 00 ff ff ff 	movq   $0x0,-0x100(%rbp)
   148cc:	00 00 00 00 
   148d0:	48 8d 05 61 a7 00 00 	lea    0xa761(%rip),%rax        # 1f038 <g_62>
   148d7:	48 89 85 08 ff ff ff 	mov    %rax,-0xf8(%rbp)
   148de:	48 8d 85 24 fe ff ff 	lea    -0x1dc(%rbp),%rax
   148e5:	48 89 85 10 ff ff ff 	mov    %rax,-0xf0(%rbp)
   148ec:	48 8d 05 45 a7 00 00 	lea    0xa745(%rip),%rax        # 1f038 <g_62>
   148f3:	48 89 85 18 ff ff ff 	mov    %rax,-0xe8(%rbp)
   148fa:	48 8d 05 3f a7 00 00 	lea    0xa73f(%rip),%rax        # 1f040 <g_62+0x8>
   14901:	48 89 85 20 ff ff ff 	mov    %rax,-0xe0(%rbp)
   14908:	48 8d 05 31 a7 00 00 	lea    0xa731(%rip),%rax        # 1f040 <g_62+0x8>
   1490f:	48 89 85 28 ff ff ff 	mov    %rax,-0xd8(%rbp)
   14916:	48 8d 85 24 fe ff ff 	lea    -0x1dc(%rbp),%rax
   1491d:	48 89 85 30 ff ff ff 	mov    %rax,-0xd0(%rbp)
   14924:	48 8d 85 24 fe ff ff 	lea    -0x1dc(%rbp),%rax
   1492b:	48 89 85 38 ff ff ff 	mov    %rax,-0xc8(%rbp)
   14932:	48 8d 05 07 a7 00 00 	lea    0xa707(%rip),%rax        # 1f040 <g_62+0x8>
   14939:	48 89 85 40 ff ff ff 	mov    %rax,-0xc0(%rbp)
   14940:	48 c7 85 48 ff ff ff 	movq   $0x0,-0xb8(%rbp)
   14947:	00 00 00 00 
   1494b:	48 8d 05 ea a6 00 00 	lea    0xa6ea(%rip),%rax        # 1f03c <g_62+0x4>
   14952:	48 89 85 50 ff ff ff 	mov    %rax,-0xb0(%rbp)
   14959:	48 8d 05 d8 a6 00 00 	lea    0xa6d8(%rip),%rax        # 1f038 <g_62>
   14960:	48 89 85 58 ff ff ff 	mov    %rax,-0xa8(%rbp)
   14967:	48 8d 05 ce a6 00 00 	lea    0xa6ce(%rip),%rax        # 1f03c <g_62+0x4>
   1496e:	48 89 85 60 ff ff ff 	mov    %rax,-0xa0(%rbp)
   14975:	48 8d 85 24 fe ff ff 	lea    -0x1dc(%rbp),%rax
   1497c:	48 89 85 68 ff ff ff 	mov    %rax,-0x98(%rbp)
   14983:	48 8d 05 ae a6 00 00 	lea    0xa6ae(%rip),%rax        # 1f038 <g_62>
   1498a:	48 89 85 70 ff ff ff 	mov    %rax,-0x90(%rbp)
   14991:	48 8d 05 a4 a6 00 00 	lea    0xa6a4(%rip),%rax        # 1f03c <g_62+0x4>
   14998:	48 89 85 78 ff ff ff 	mov    %rax,-0x88(%rbp)
   1499f:	48 c7 45 80 00 00 00 	movq   $0x0,-0x80(%rbp)
   149a6:	00 
   149a7:	48 8d 05 92 a6 00 00 	lea    0xa692(%rip),%rax        # 1f040 <g_62+0x8>
   149ae:	48 89 45 88          	mov    %rax,-0x78(%rbp)
   149b2:	48 8d 85 24 fe ff ff 	lea    -0x1dc(%rbp),%rax
   149b9:	48 89 45 90          	mov    %rax,-0x70(%rbp)
   149bd:	48 8d 85 24 fe ff ff 	lea    -0x1dc(%rbp),%rax
   149c4:	48 89 45 98          	mov    %rax,-0x68(%rbp)
   149c8:	48 8d 05 71 a6 00 00 	lea    0xa671(%rip),%rax        # 1f040 <g_62+0x8>
   149cf:	48 89 45 a0          	mov    %rax,-0x60(%rbp)
   149d3:	48 8d 05 82 a6 00 00 	lea    0xa682(%rip),%rax        # 1f05c <g_73>
   149da:	48 89 45 a8          	mov    %rax,-0x58(%rbp)
   149de:	48 8d 85 24 fe ff ff 	lea    -0x1dc(%rbp),%rax
   149e5:	48 89 45 b0          	mov    %rax,-0x50(%rbp)
   149e9:	48 8d 05 50 a6 00 00 	lea    0xa650(%rip),%rax        # 1f040 <g_62+0x8>
   149f0:	48 89 45 b8          	mov    %rax,-0x48(%rbp)
   149f4:	48 8d 85 24 fe ff ff 	lea    -0x1dc(%rbp),%rax
   149fb:	48 89 45 c0          	mov    %rax,-0x40(%rbp)
   149ff:	48 8d 05 56 a6 00 00 	lea    0xa656(%rip),%rax        # 1f05c <g_73>
   14a06:	48 89 45 c8          	mov    %rax,-0x38(%rbp)
   14a0a:	48 8d 05 27 a6 00 00 	lea    0xa627(%rip),%rax        # 1f038 <g_62>
   14a11:	48 89 45 d0          	mov    %rax,-0x30(%rbp)
   14a15:	48 8d 85 24 fe ff ff 	lea    -0x1dc(%rbp),%rax
   14a1c:	48 89 45 d8          	mov    %rax,-0x28(%rbp)
   14a20:	48 c7 45 e0 00 00 00 	movq   $0x0,-0x20(%rbp)
   14a27:	00 
   14a28:	48 8d 05 09 a6 00 00 	lea    0xa609(%rip),%rax        # 1f038 <g_62>
   14a2f:	48 89 45 e8          	mov    %rax,-0x18(%rbp)
   14a33:	0f b6 95 3e fe ff ff 	movzbl -0x1c2(%rbp),%edx
   14a3a:	48 8b 05 ff c9 00 00 	mov    0xc9ff(%rip),%rax        # 21440 <g_61>
   14a41:	0f be d2             	movsbl %dl,%edx
   14a44:	89 10                	mov    %edx,(%rax)
   14a46:	0f b7 05 77 a7 00 00 	movzwl 0xa777(%rip),%eax        # 1f1c4 <g_367>
   14a4d:	83 c0 01             	add    $0x1,%eax
   14a50:	66 89 05 6d a7 00 00 	mov    %ax,0xa76d(%rip)        # 1f1c4 <g_367>
   14a57:	0f b6 95 08 fe ff ff 	movzbl -0x1f8(%rbp),%edx
   14a5e:	48 8b 85 28 fe ff ff 	mov    -0x1d8(%rbp),%rax
   14a65:	89 10                	mov    %edx,(%rax)
   14a67:	80 bd 08 fe ff ff 00 	cmpb   $0x0,-0x1f8(%rbp)
   14a6e:	74 02                	je     14a72 <func_32+0x360>
   14a70:	eb d4                	jmp    14a46 <func_32+0x334>
   14a72:	48 8b 05 ef c9 00 00 	mov    0xc9ef(%rip),%rax        # 21468 <g_83>
   14a79:	0f b7 00             	movzwl (%rax),%eax
   14a7c:	48 8b 4d f8          	mov    -0x8(%rbp),%rcx
   14a80:	64 48 33 0c 25 28 00 	xor    %fs:0x28,%rcx
   14a87:	00 00 
   14a89:	74 05                	je     14a90 <func_32+0x37e>
   14a8b:	e8 e0 35 ff ff       	callq  8070 <__stack_chk_fail@plt>
   14a90:	c9                   	leaveq 
   14a91:	c3                   	retq   

0000000000014a92 <func_43>:
   14a92:	f3 0f 1e fa          	endbr64 
   14a96:	55                   	push   %rbp
   14a97:	48 89 e5             	mov    %rsp,%rbp
   14a9a:	41 55                	push   %r13
   14a9c:	41 54                	push   %r12
   14a9e:	53                   	push   %rbx
   14a9f:	48 81 ec 00 10 00 00 	sub    $0x1000,%rsp
   14aa6:	48 83 0c 24 00       	orq    $0x0,(%rsp)
   14aab:	48 81 ec 38 0f 00 00 	sub    $0xf38,%rsp
   14ab2:	48 89 bd b8 e0 ff ff 	mov    %rdi,-0x1f48(%rbp)
   14ab9:	89 f0                	mov    %esi,%eax
   14abb:	66 89 85 b4 e0 ff ff 	mov    %ax,-0x1f4c(%rbp)
   14ac2:	89 d0                	mov    %edx,%eax
   14ac4:	88 85 b0 e0 ff ff    	mov    %al,-0x1f50(%rbp)
   14aca:	64 48 8b 04 25 28 00 	mov    %fs:0x28,%rax
   14ad1:	00 00 
   14ad3:	48 89 45 d8          	mov    %rax,-0x28(%rbp)
   14ad7:	31 c0                	xor    %eax,%eax
   14ad9:	c7 85 ec e0 ff ff f6 	movl   $0xfffffff6,-0x1f14(%rbp)
   14ae0:	ff ff ff 
   14ae3:	48 8d 05 76 a5 00 00 	lea    0xa576(%rip),%rax        # 1f060 <g_77>
   14aea:	48 89 85 08 e1 ff ff 	mov    %rax,-0x1ef8(%rbp)
   14af1:	48 8d 85 08 e1 ff ff 	lea    -0x1ef8(%rbp),%rax
   14af8:	48 89 85 68 e1 ff ff 	mov    %rax,-0x1e98(%rbp)
   14aff:	48 8d 05 5e a5 00 00 	lea    0xa55e(%rip),%rax        # 1f064 <g_90>
   14b06:	48 89 85 10 e1 ff ff 	mov    %rax,-0x1ef0(%rbp)
   14b0d:	c7 85 d8 e0 ff ff ff 	movl   $0xffffffff,-0x1f28(%rbp)
   14b14:	ff ff ff 
   14b17:	48 8d 05 53 a5 00 00 	lea    0xa553(%rip),%rax        # 1f071 <g_121+0x1>
   14b1e:	48 89 85 70 e1 ff ff 	mov    %rax,-0x1e90(%rbp)
   14b25:	48 8d 05 10 a5 00 00 	lea    0xa510(%rip),%rax        # 1f03c <g_62+0x4>
   14b2c:	48 89 85 78 e1 ff ff 	mov    %rax,-0x1e88(%rbp)
   14b33:	48 c7 85 18 e1 ff ff 	movq   $0x0,-0x1ee8(%rbp)
   14b3a:	00 00 00 00 
   14b3e:	66 c7 85 18 e1 ff ff 	movw   $0xc8ce,-0x1ee8(%rbp)
   14b45:	ce c8 
   14b47:	c6 85 c8 e0 ff ff 74 	movb   $0x74,-0x1f38(%rbp)
   14b4e:	c6 85 c9 e0 ff ff ff 	movb   $0xff,-0x1f37(%rbp)
   14b55:	48 c7 85 80 e1 ff ff 	movq   $0x0,-0x1e80(%rbp)
   14b5c:	00 00 00 00 
   14b60:	66 c7 85 cc e0 ff ff 	movw   $0x48cf,-0x1f34(%rbp)
   14b67:	cf 48 
   14b69:	c7 85 f0 e0 ff ff 08 	movl   $0x8,-0x1f10(%rbp)
   14b70:	00 00 00 
   14b73:	48 8d 05 e2 a4 00 00 	lea    0xa4e2(%rip),%rax        # 1f05c <g_73>
   14b7a:	48 89 85 20 e1 ff ff 	mov    %rax,-0x1ee0(%rbp)
   14b81:	48 8d 85 20 e1 ff ff 	lea    -0x1ee0(%rbp),%rax
   14b88:	48 89 85 a0 e2 ff ff 	mov    %rax,-0x1d60(%rbp)
   14b8f:	48 8d 85 20 e1 ff ff 	lea    -0x1ee0(%rbp),%rax
   14b96:	48 89 85 a8 e2 ff ff 	mov    %rax,-0x1d58(%rbp)
   14b9d:	48 8d 85 20 e1 ff ff 	lea    -0x1ee0(%rbp),%rax
   14ba4:	48 89 85 b0 e2 ff ff 	mov    %rax,-0x1d50(%rbp)
   14bab:	48 8d 85 20 e1 ff ff 	lea    -0x1ee0(%rbp),%rax
   14bb2:	48 89 85 b8 e2 ff ff 	mov    %rax,-0x1d48(%rbp)
   14bb9:	48 8d 85 20 e1 ff ff 	lea    -0x1ee0(%rbp),%rax
   14bc0:	48 89 85 c0 e2 ff ff 	mov    %rax,-0x1d40(%rbp)
   14bc7:	48 8d 85 20 e1 ff ff 	lea    -0x1ee0(%rbp),%rax
   14bce:	48 89 85 c8 e2 ff ff 	mov    %rax,-0x1d38(%rbp)
   14bd5:	48 8d 85 20 e1 ff ff 	lea    -0x1ee0(%rbp),%rax
   14bdc:	48 89 85 d0 e2 ff ff 	mov    %rax,-0x1d30(%rbp)
   14be3:	48 8d 85 20 e1 ff ff 	lea    -0x1ee0(%rbp),%rax
   14bea:	48 89 85 d8 e2 ff ff 	mov    %rax,-0x1d28(%rbp)
   14bf1:	48 8d 85 20 e1 ff ff 	lea    -0x1ee0(%rbp),%rax
   14bf8:	48 89 85 e0 e2 ff ff 	mov    %rax,-0x1d20(%rbp)
   14bff:	48 8d 85 20 e1 ff ff 	lea    -0x1ee0(%rbp),%rax
   14c06:	48 89 85 e8 e2 ff ff 	mov    %rax,-0x1d18(%rbp)
   14c0d:	48 8d 85 20 e1 ff ff 	lea    -0x1ee0(%rbp),%rax
   14c14:	48 89 85 f0 e2 ff ff 	mov    %rax,-0x1d10(%rbp)
   14c1b:	48 8d 85 20 e1 ff ff 	lea    -0x1ee0(%rbp),%rax
   14c22:	48 89 85 f8 e2 ff ff 	mov    %rax,-0x1d08(%rbp)
   14c29:	48 8d 85 20 e1 ff ff 	lea    -0x1ee0(%rbp),%rax
   14c30:	48 89 85 00 e3 ff ff 	mov    %rax,-0x1d00(%rbp)
   14c37:	48 8d 85 20 e1 ff ff 	lea    -0x1ee0(%rbp),%rax
   14c3e:	48 89 85 08 e3 ff ff 	mov    %rax,-0x1cf8(%rbp)
   14c45:	48 8d 85 20 e1 ff ff 	lea    -0x1ee0(%rbp),%rax
   14c4c:	48 89 85 10 e3 ff ff 	mov    %rax,-0x1cf0(%rbp)
   14c53:	48 8d 85 20 e1 ff ff 	lea    -0x1ee0(%rbp),%rax
   14c5a:	48 89 85 18 e3 ff ff 	mov    %rax,-0x1ce8(%rbp)
   14c61:	48 8d 85 20 e1 ff ff 	lea    -0x1ee0(%rbp),%rax
   14c68:	48 89 85 20 e3 ff ff 	mov    %rax,-0x1ce0(%rbp)
   14c6f:	48 8d 85 20 e1 ff ff 	lea    -0x1ee0(%rbp),%rax
   14c76:	48 89 85 28 e3 ff ff 	mov    %rax,-0x1cd8(%rbp)
   14c7d:	48 8d 85 20 e1 ff ff 	lea    -0x1ee0(%rbp),%rax
   14c84:	48 89 85 30 e3 ff ff 	mov    %rax,-0x1cd0(%rbp)
   14c8b:	48 8d 85 20 e1 ff ff 	lea    -0x1ee0(%rbp),%rax
   14c92:	48 89 85 38 e3 ff ff 	mov    %rax,-0x1cc8(%rbp)
   14c99:	48 8d 85 20 e1 ff ff 	lea    -0x1ee0(%rbp),%rax
   14ca0:	48 89 85 40 e3 ff ff 	mov    %rax,-0x1cc0(%rbp)
   14ca7:	48 8d 85 20 e1 ff ff 	lea    -0x1ee0(%rbp),%rax
   14cae:	48 89 85 48 e3 ff ff 	mov    %rax,-0x1cb8(%rbp)
   14cb5:	48 8d 85 20 e1 ff ff 	lea    -0x1ee0(%rbp),%rax
   14cbc:	48 89 85 50 e3 ff ff 	mov    %rax,-0x1cb0(%rbp)
   14cc3:	48 8d 85 20 e1 ff ff 	lea    -0x1ee0(%rbp),%rax
   14cca:	48 89 85 58 e3 ff ff 	mov    %rax,-0x1ca8(%rbp)
   14cd1:	48 8d 85 20 e1 ff ff 	lea    -0x1ee0(%rbp),%rax
   14cd8:	48 89 85 60 e3 ff ff 	mov    %rax,-0x1ca0(%rbp)
   14cdf:	48 8d 85 20 e1 ff ff 	lea    -0x1ee0(%rbp),%rax
   14ce6:	48 89 85 68 e3 ff ff 	mov    %rax,-0x1c98(%rbp)
   14ced:	48 8d 85 20 e1 ff ff 	lea    -0x1ee0(%rbp),%rax
   14cf4:	48 89 85 70 e3 ff ff 	mov    %rax,-0x1c90(%rbp)
   14cfb:	48 8d 85 20 e1 ff ff 	lea    -0x1ee0(%rbp),%rax
   14d02:	48 89 85 78 e3 ff ff 	mov    %rax,-0x1c88(%rbp)
   14d09:	48 8d 85 20 e1 ff ff 	lea    -0x1ee0(%rbp),%rax
   14d10:	48 89 85 80 e3 ff ff 	mov    %rax,-0x1c80(%rbp)
   14d17:	48 8d 85 20 e1 ff ff 	lea    -0x1ee0(%rbp),%rax
   14d1e:	48 89 85 88 e3 ff ff 	mov    %rax,-0x1c78(%rbp)
   14d25:	48 8d 85 20 e1 ff ff 	lea    -0x1ee0(%rbp),%rax
   14d2c:	48 89 85 90 e3 ff ff 	mov    %rax,-0x1c70(%rbp)
   14d33:	48 8d 85 20 e1 ff ff 	lea    -0x1ee0(%rbp),%rax
   14d3a:	48 89 85 98 e3 ff ff 	mov    %rax,-0x1c68(%rbp)
   14d41:	48 8d 85 20 e1 ff ff 	lea    -0x1ee0(%rbp),%rax
   14d48:	48 89 85 a0 e3 ff ff 	mov    %rax,-0x1c60(%rbp)
   14d4f:	48 8d 85 20 e1 ff ff 	lea    -0x1ee0(%rbp),%rax
   14d56:	48 89 85 a8 e3 ff ff 	mov    %rax,-0x1c58(%rbp)
   14d5d:	48 8d 85 20 e1 ff ff 	lea    -0x1ee0(%rbp),%rax
   14d64:	48 89 85 b0 e3 ff ff 	mov    %rax,-0x1c50(%rbp)
   14d6b:	48 8d 85 20 e1 ff ff 	lea    -0x1ee0(%rbp),%rax
   14d72:	48 89 85 b8 e3 ff ff 	mov    %rax,-0x1c48(%rbp)
   14d79:	48 8d 85 20 e1 ff ff 	lea    -0x1ee0(%rbp),%rax
   14d80:	48 89 85 c0 e3 ff ff 	mov    %rax,-0x1c40(%rbp)
   14d87:	48 8d 85 20 e1 ff ff 	lea    -0x1ee0(%rbp),%rax
   14d8e:	48 89 85 c8 e3 ff ff 	mov    %rax,-0x1c38(%rbp)
   14d95:	48 8d 85 20 e1 ff ff 	lea    -0x1ee0(%rbp),%rax
   14d9c:	48 89 85 d0 e3 ff ff 	mov    %rax,-0x1c30(%rbp)
   14da3:	48 8d 85 20 e1 ff ff 	lea    -0x1ee0(%rbp),%rax
   14daa:	48 89 85 d8 e3 ff ff 	mov    %rax,-0x1c28(%rbp)
   14db1:	48 8d 85 20 e1 ff ff 	lea    -0x1ee0(%rbp),%rax
   14db8:	48 89 85 e0 e3 ff ff 	mov    %rax,-0x1c20(%rbp)
   14dbf:	48 8d 85 20 e1 ff ff 	lea    -0x1ee0(%rbp),%rax
   14dc6:	48 89 85 e8 e3 ff ff 	mov    %rax,-0x1c18(%rbp)
   14dcd:	48 8d 85 20 e1 ff ff 	lea    -0x1ee0(%rbp),%rax
   14dd4:	48 89 85 f0 e3 ff ff 	mov    %rax,-0x1c10(%rbp)
   14ddb:	48 8d 85 20 e1 ff ff 	lea    -0x1ee0(%rbp),%rax
   14de2:	48 89 85 f8 e3 ff ff 	mov    %rax,-0x1c08(%rbp)
   14de9:	48 8d 85 20 e1 ff ff 	lea    -0x1ee0(%rbp),%rax
   14df0:	48 89 85 00 e4 ff ff 	mov    %rax,-0x1c00(%rbp)
   14df7:	48 8d 85 20 e1 ff ff 	lea    -0x1ee0(%rbp),%rax
   14dfe:	48 89 85 08 e4 ff ff 	mov    %rax,-0x1bf8(%rbp)
   14e05:	48 8d 85 20 e1 ff ff 	lea    -0x1ee0(%rbp),%rax
   14e0c:	48 89 85 10 e4 ff ff 	mov    %rax,-0x1bf0(%rbp)
   14e13:	48 8d 85 20 e1 ff ff 	lea    -0x1ee0(%rbp),%rax
   14e1a:	48 89 85 18 e4 ff ff 	mov    %rax,-0x1be8(%rbp)
   14e21:	48 8d 85 20 e1 ff ff 	lea    -0x1ee0(%rbp),%rax
   14e28:	48 89 85 20 e4 ff ff 	mov    %rax,-0x1be0(%rbp)
   14e2f:	48 8d 85 20 e1 ff ff 	lea    -0x1ee0(%rbp),%rax
   14e36:	48 89 85 28 e4 ff ff 	mov    %rax,-0x1bd8(%rbp)
   14e3d:	48 8d 85 20 e1 ff ff 	lea    -0x1ee0(%rbp),%rax
   14e44:	48 89 85 30 e4 ff ff 	mov    %rax,-0x1bd0(%rbp)
   14e4b:	48 8d 85 20 e1 ff ff 	lea    -0x1ee0(%rbp),%rax
   14e52:	48 89 85 38 e4 ff ff 	mov    %rax,-0x1bc8(%rbp)
   14e59:	48 8d 85 20 e1 ff ff 	lea    -0x1ee0(%rbp),%rax
   14e60:	48 89 85 40 e4 ff ff 	mov    %rax,-0x1bc0(%rbp)
   14e67:	48 8d 85 20 e1 ff ff 	lea    -0x1ee0(%rbp),%rax
   14e6e:	48 89 85 48 e4 ff ff 	mov    %rax,-0x1bb8(%rbp)
   14e75:	48 8d 85 20 e1 ff ff 	lea    -0x1ee0(%rbp),%rax
   14e7c:	48 89 85 50 e4 ff ff 	mov    %rax,-0x1bb0(%rbp)
   14e83:	48 8d 85 20 e1 ff ff 	lea    -0x1ee0(%rbp),%rax
   14e8a:	48 89 85 58 e4 ff ff 	mov    %rax,-0x1ba8(%rbp)
   14e91:	48 8d 85 20 e1 ff ff 	lea    -0x1ee0(%rbp),%rax
   14e98:	48 89 85 60 e4 ff ff 	mov    %rax,-0x1ba0(%rbp)
   14e9f:	48 8d 85 20 e1 ff ff 	lea    -0x1ee0(%rbp),%rax
   14ea6:	48 89 85 68 e4 ff ff 	mov    %rax,-0x1b98(%rbp)
   14ead:	48 8d 85 20 e1 ff ff 	lea    -0x1ee0(%rbp),%rax
   14eb4:	48 89 85 70 e4 ff ff 	mov    %rax,-0x1b90(%rbp)
   14ebb:	48 8d 85 20 e1 ff ff 	lea    -0x1ee0(%rbp),%rax
   14ec2:	48 89 85 78 e4 ff ff 	mov    %rax,-0x1b88(%rbp)
   14ec9:	48 8d 85 a0 e2 ff ff 	lea    -0x1d60(%rbp),%rax
   14ed0:	48 05 68 01 00 00    	add    $0x168,%rax
   14ed6:	48 89 85 80 e4 ff ff 	mov    %rax,-0x1b80(%rbp)
   14edd:	48 8d 85 a0 e2 ff ff 	lea    -0x1d60(%rbp),%rax
   14ee4:	48 05 20 01 00 00    	add    $0x120,%rax
   14eea:	48 89 85 88 e4 ff ff 	mov    %rax,-0x1b78(%rbp)
   14ef1:	48 8d 85 a0 e2 ff ff 	lea    -0x1d60(%rbp),%rax
   14ef8:	48 05 68 01 00 00    	add    $0x168,%rax
   14efe:	48 89 85 90 e4 ff ff 	mov    %rax,-0x1b70(%rbp)
   14f05:	48 8d 85 a0 e2 ff ff 	lea    -0x1d60(%rbp),%rax
   14f0c:	48 05 68 01 00 00    	add    $0x168,%rax
   14f12:	48 89 85 98 e4 ff ff 	mov    %rax,-0x1b68(%rbp)
   14f19:	48 8d 85 a0 e2 ff ff 	lea    -0x1d60(%rbp),%rax
   14f20:	48 05 d8 01 00 00    	add    $0x1d8,%rax
   14f26:	48 89 85 a0 e4 ff ff 	mov    %rax,-0x1b60(%rbp)
   14f2d:	48 8d 85 a0 e2 ff ff 	lea    -0x1d60(%rbp),%rax
   14f34:	48 05 68 01 00 00    	add    $0x168,%rax
   14f3a:	48 89 85 a8 e4 ff ff 	mov    %rax,-0x1b58(%rbp)
   14f41:	48 8d 85 a0 e2 ff ff 	lea    -0x1d60(%rbp),%rax
   14f48:	48 83 c0 68          	add    $0x68,%rax
   14f4c:	48 89 85 b0 e4 ff ff 	mov    %rax,-0x1b50(%rbp)
   14f53:	48 8d 85 a0 e2 ff ff 	lea    -0x1d60(%rbp),%rax
   14f5a:	48 05 68 01 00 00    	add    $0x168,%rax
   14f60:	48 89 85 b8 e4 ff ff 	mov    %rax,-0x1b48(%rbp)
   14f67:	48 8d 85 a0 e2 ff ff 	lea    -0x1d60(%rbp),%rax
   14f6e:	48 05 c8 00 00 00    	add    $0xc8,%rax
   14f74:	48 89 85 c0 e4 ff ff 	mov    %rax,-0x1b40(%rbp)
   14f7b:	48 8d 85 a0 e2 ff ff 	lea    -0x1d60(%rbp),%rax
   14f82:	48 83 c0 68          	add    $0x68,%rax
   14f86:	48 89 85 c8 e4 ff ff 	mov    %rax,-0x1b38(%rbp)
   14f8d:	48 c7 85 d0 e4 ff ff 	movq   $0x0,-0x1b30(%rbp)
   14f94:	00 00 00 00 
   14f98:	48 8d 85 a0 e2 ff ff 	lea    -0x1d60(%rbp),%rax
   14f9f:	48 05 68 01 00 00    	add    $0x168,%rax
   14fa5:	48 89 85 d8 e4 ff ff 	mov    %rax,-0x1b28(%rbp)
   14fac:	48 8d 85 a0 e2 ff ff 	lea    -0x1d60(%rbp),%rax
   14fb3:	48 05 68 01 00 00    	add    $0x168,%rax
   14fb9:	48 89 85 e0 e4 ff ff 	mov    %rax,-0x1b20(%rbp)
   14fc0:	48 8d 85 a0 e2 ff ff 	lea    -0x1d60(%rbp),%rax
   14fc7:	48 05 08 01 00 00    	add    $0x108,%rax
   14fcd:	48 89 85 e8 e4 ff ff 	mov    %rax,-0x1b18(%rbp)
   14fd4:	48 8d 85 a0 e2 ff ff 	lea    -0x1d60(%rbp),%rax
   14fdb:	48 05 68 01 00 00    	add    $0x168,%rax
   14fe1:	48 89 85 f0 e4 ff ff 	mov    %rax,-0x1b10(%rbp)
   14fe8:	48 8d 85 a0 e2 ff ff 	lea    -0x1d60(%rbp),%rax
   14fef:	48 05 68 01 00 00    	add    $0x168,%rax
   14ff5:	48 89 85 f8 e4 ff ff 	mov    %rax,-0x1b08(%rbp)
   14ffc:	48 c7 85 00 e5 ff ff 	movq   $0x0,-0x1b00(%rbp)
   15003:	00 00 00 00 
   15007:	48 8d 85 a0 e2 ff ff 	lea    -0x1d60(%rbp),%rax
   1500e:	48 05 48 01 00 00    	add    $0x148,%rax
   15014:	48 89 85 08 e5 ff ff 	mov    %rax,-0x1af8(%rbp)
   1501b:	48 8d 85 a0 e2 ff ff 	lea    -0x1d60(%rbp),%rax
   15022:	48 05 d8 01 00 00    	add    $0x1d8,%rax
   15028:	48 89 85 10 e5 ff ff 	mov    %rax,-0x1af0(%rbp)
   1502f:	48 8d 85 a0 e2 ff ff 	lea    -0x1d60(%rbp),%rax
   15036:	48 05 68 01 00 00    	add    $0x168,%rax
   1503c:	48 89 85 18 e5 ff ff 	mov    %rax,-0x1ae8(%rbp)
   15043:	48 8d 85 a0 e2 ff ff 	lea    -0x1d60(%rbp),%rax
   1504a:	48 05 48 01 00 00    	add    $0x148,%rax
   15050:	48 89 85 20 e5 ff ff 	mov    %rax,-0x1ae0(%rbp)
   15057:	48 8d 85 a0 e2 ff ff 	lea    -0x1d60(%rbp),%rax
   1505e:	48 05 68 01 00 00    	add    $0x168,%rax
   15064:	48 89 85 28 e5 ff ff 	mov    %rax,-0x1ad8(%rbp)
   1506b:	48 8d 85 a0 e2 ff ff 	lea    -0x1d60(%rbp),%rax
   15072:	48 05 d8 01 00 00    	add    $0x1d8,%rax
   15078:	48 89 85 30 e5 ff ff 	mov    %rax,-0x1ad0(%rbp)
   1507f:	48 8d 85 a0 e2 ff ff 	lea    -0x1d60(%rbp),%rax
   15086:	48 05 68 01 00 00    	add    $0x168,%rax
   1508c:	48 89 85 38 e5 ff ff 	mov    %rax,-0x1ac8(%rbp)
   15093:	48 8d 85 a0 e2 ff ff 	lea    -0x1d60(%rbp),%rax
   1509a:	48 05 20 01 00 00    	add    $0x120,%rax
   150a0:	48 89 85 40 e5 ff ff 	mov    %rax,-0x1ac0(%rbp)
   150a7:	48 8d 85 a0 e2 ff ff 	lea    -0x1d60(%rbp),%rax
   150ae:	48 05 20 01 00 00    	add    $0x120,%rax
   150b4:	48 89 85 48 e5 ff ff 	mov    %rax,-0x1ab8(%rbp)
   150bb:	48 8d 85 a0 e2 ff ff 	lea    -0x1d60(%rbp),%rax
   150c2:	48 05 68 01 00 00    	add    $0x168,%rax
   150c8:	48 89 85 50 e5 ff ff 	mov    %rax,-0x1ab0(%rbp)
   150cf:	48 8d 85 a0 e2 ff ff 	lea    -0x1d60(%rbp),%rax
   150d6:	48 05 68 01 00 00    	add    $0x168,%rax
   150dc:	48 89 85 58 e5 ff ff 	mov    %rax,-0x1aa8(%rbp)
   150e3:	48 8d 85 a0 e2 ff ff 	lea    -0x1d60(%rbp),%rax
   150ea:	48 05 68 01 00 00    	add    $0x168,%rax
   150f0:	48 89 85 60 e5 ff ff 	mov    %rax,-0x1aa0(%rbp)
   150f7:	48 8d 85 a0 e2 ff ff 	lea    -0x1d60(%rbp),%rax
   150fe:	48 05 c8 00 00 00    	add    $0xc8,%rax
   15104:	48 89 85 68 e5 ff ff 	mov    %rax,-0x1a98(%rbp)
   1510b:	48 8d 85 a0 e2 ff ff 	lea    -0x1d60(%rbp),%rax
   15112:	48 05 d8 01 00 00    	add    $0x1d8,%rax
   15118:	48 89 85 70 e5 ff ff 	mov    %rax,-0x1a90(%rbp)
   1511f:	48 8d 85 a0 e2 ff ff 	lea    -0x1d60(%rbp),%rax
   15126:	48 05 68 01 00 00    	add    $0x168,%rax
   1512c:	48 89 85 78 e5 ff ff 	mov    %rax,-0x1a88(%rbp)
   15133:	48 8d 85 a0 e2 ff ff 	lea    -0x1d60(%rbp),%rax
   1513a:	48 05 68 01 00 00    	add    $0x168,%rax
   15140:	48 89 85 80 e5 ff ff 	mov    %rax,-0x1a80(%rbp)
   15147:	48 8d 85 a0 e2 ff ff 	lea    -0x1d60(%rbp),%rax
   1514e:	48 05 68 01 00 00    	add    $0x168,%rax
   15154:	48 89 85 88 e5 ff ff 	mov    %rax,-0x1a78(%rbp)
   1515b:	48 8d 85 a0 e2 ff ff 	lea    -0x1d60(%rbp),%rax
   15162:	48 05 20 01 00 00    	add    $0x120,%rax
   15168:	48 89 85 90 e5 ff ff 	mov    %rax,-0x1a70(%rbp)
   1516f:	48 8d 85 a0 e2 ff ff 	lea    -0x1d60(%rbp),%rax
   15176:	48 05 68 01 00 00    	add    $0x168,%rax
   1517c:	48 89 85 98 e5 ff ff 	mov    %rax,-0x1a68(%rbp)
   15183:	48 8d 85 a0 e2 ff ff 	lea    -0x1d60(%rbp),%rax
   1518a:	48 05 68 01 00 00    	add    $0x168,%rax
   15190:	48 89 85 a0 e5 ff ff 	mov    %rax,-0x1a60(%rbp)
   15197:	48 8d 85 a0 e2 ff ff 	lea    -0x1d60(%rbp),%rax
   1519e:	48 05 d8 01 00 00    	add    $0x1d8,%rax
   151a4:	48 89 85 a8 e5 ff ff 	mov    %rax,-0x1a58(%rbp)
   151ab:	48 8d 85 a0 e2 ff ff 	lea    -0x1d60(%rbp),%rax
   151b2:	48 05 68 01 00 00    	add    $0x168,%rax
   151b8:	48 89 85 b0 e5 ff ff 	mov    %rax,-0x1a50(%rbp)
   151bf:	48 8d 85 a0 e2 ff ff 	lea    -0x1d60(%rbp),%rax
   151c6:	48 83 c0 68          	add    $0x68,%rax
   151ca:	48 89 85 b8 e5 ff ff 	mov    %rax,-0x1a48(%rbp)
   151d1:	48 8d 85 a0 e2 ff ff 	lea    -0x1d60(%rbp),%rax
   151d8:	48 05 68 01 00 00    	add    $0x168,%rax
   151de:	48 89 85 c0 e5 ff ff 	mov    %rax,-0x1a40(%rbp)
   151e5:	48 8d 85 a0 e2 ff ff 	lea    -0x1d60(%rbp),%rax
   151ec:	48 05 c8 00 00 00    	add    $0xc8,%rax
   151f2:	48 89 85 c8 e5 ff ff 	mov    %rax,-0x1a38(%rbp)
   151f9:	48 8d 85 a0 e2 ff ff 	lea    -0x1d60(%rbp),%rax
   15200:	48 83 c0 68          	add    $0x68,%rax
   15204:	48 89 85 d0 e5 ff ff 	mov    %rax,-0x1a30(%rbp)
   1520b:	48 c7 85 d8 e5 ff ff 	movq   $0x0,-0x1a28(%rbp)
   15212:	00 00 00 00 
   15216:	48 8d 85 a0 e2 ff ff 	lea    -0x1d60(%rbp),%rax
   1521d:	48 05 68 01 00 00    	add    $0x168,%rax
   15223:	48 89 85 e0 e5 ff ff 	mov    %rax,-0x1a20(%rbp)
   1522a:	48 8d 85 a0 e2 ff ff 	lea    -0x1d60(%rbp),%rax
   15231:	48 05 68 01 00 00    	add    $0x168,%rax
   15237:	48 89 85 e8 e5 ff ff 	mov    %rax,-0x1a18(%rbp)
   1523e:	48 8d 85 a0 e2 ff ff 	lea    -0x1d60(%rbp),%rax
   15245:	48 05 08 01 00 00    	add    $0x108,%rax
   1524b:	48 89 85 f0 e5 ff ff 	mov    %rax,-0x1a10(%rbp)
   15252:	48 8d 85 a0 e2 ff ff 	lea    -0x1d60(%rbp),%rax
   15259:	48 05 68 01 00 00    	add    $0x168,%rax
   1525f:	48 89 85 f8 e5 ff ff 	mov    %rax,-0x1a08(%rbp)
   15266:	48 8d 85 a0 e2 ff ff 	lea    -0x1d60(%rbp),%rax
   1526d:	48 05 68 01 00 00    	add    $0x168,%rax
   15273:	48 89 85 00 e6 ff ff 	mov    %rax,-0x1a00(%rbp)
   1527a:	48 c7 85 08 e6 ff ff 	movq   $0x0,-0x19f8(%rbp)
   15281:	00 00 00 00 
   15285:	48 8d 85 a0 e2 ff ff 	lea    -0x1d60(%rbp),%rax
   1528c:	48 05 48 01 00 00    	add    $0x148,%rax
   15292:	48 89 85 10 e6 ff ff 	mov    %rax,-0x19f0(%rbp)
   15299:	48 8d 85 a0 e2 ff ff 	lea    -0x1d60(%rbp),%rax
   152a0:	48 05 d8 01 00 00    	add    $0x1d8,%rax
   152a6:	48 89 85 18 e6 ff ff 	mov    %rax,-0x19e8(%rbp)
   152ad:	48 8d 85 a0 e2 ff ff 	lea    -0x1d60(%rbp),%rax
   152b4:	48 05 68 01 00 00    	add    $0x168,%rax
   152ba:	48 89 85 20 e6 ff ff 	mov    %rax,-0x19e0(%rbp)
   152c1:	48 8d 85 a0 e2 ff ff 	lea    -0x1d60(%rbp),%rax
   152c8:	48 05 48 01 00 00    	add    $0x148,%rax
   152ce:	48 89 85 28 e6 ff ff 	mov    %rax,-0x19d8(%rbp)
   152d5:	48 8d 85 a0 e2 ff ff 	lea    -0x1d60(%rbp),%rax
   152dc:	48 05 68 01 00 00    	add    $0x168,%rax
   152e2:	48 89 85 30 e6 ff ff 	mov    %rax,-0x19d0(%rbp)
   152e9:	48 8d 85 a0 e2 ff ff 	lea    -0x1d60(%rbp),%rax
   152f0:	48 05 d8 01 00 00    	add    $0x1d8,%rax
   152f6:	48 89 85 38 e6 ff ff 	mov    %rax,-0x19c8(%rbp)
   152fd:	48 8d 85 a0 e2 ff ff 	lea    -0x1d60(%rbp),%rax
   15304:	48 05 68 01 00 00    	add    $0x168,%rax
   1530a:	48 89 85 40 e6 ff ff 	mov    %rax,-0x19c0(%rbp)
   15311:	48 8d 85 a0 e2 ff ff 	lea    -0x1d60(%rbp),%rax
   15318:	48 05 20 01 00 00    	add    $0x120,%rax
   1531e:	48 89 85 48 e6 ff ff 	mov    %rax,-0x19b8(%rbp)
   15325:	48 8d 85 a0 e2 ff ff 	lea    -0x1d60(%rbp),%rax
   1532c:	48 05 20 01 00 00    	add    $0x120,%rax
   15332:	48 89 85 50 e6 ff ff 	mov    %rax,-0x19b0(%rbp)
   15339:	48 8d 85 a0 e2 ff ff 	lea    -0x1d60(%rbp),%rax
   15340:	48 05 68 01 00 00    	add    $0x168,%rax
   15346:	48 89 85 58 e6 ff ff 	mov    %rax,-0x19a8(%rbp)
   1534d:	48 8d 85 a0 e2 ff ff 	lea    -0x1d60(%rbp),%rax
   15354:	48 05 68 01 00 00    	add    $0x168,%rax
   1535a:	48 89 85 60 e6 ff ff 	mov    %rax,-0x19a0(%rbp)
   15361:	48 8d 85 a0 e2 ff ff 	lea    -0x1d60(%rbp),%rax
   15368:	48 05 68 01 00 00    	add    $0x168,%rax
   1536e:	48 89 85 68 e6 ff ff 	mov    %rax,-0x1998(%rbp)
   15375:	48 8d 85 a0 e2 ff ff 	lea    -0x1d60(%rbp),%rax
   1537c:	48 05 c8 00 00 00    	add    $0xc8,%rax
   15382:	48 89 85 70 e6 ff ff 	mov    %rax,-0x1990(%rbp)
   15389:	48 8d 85 a0 e2 ff ff 	lea    -0x1d60(%rbp),%rax
   15390:	48 05 d8 01 00 00    	add    $0x1d8,%rax
   15396:	48 89 85 78 e6 ff ff 	mov    %rax,-0x1988(%rbp)
   1539d:	48 8d 85 a0 e2 ff ff 	lea    -0x1d60(%rbp),%rax
   153a4:	48 05 68 01 00 00    	add    $0x168,%rax
   153aa:	48 89 85 80 e6 ff ff 	mov    %rax,-0x1980(%rbp)
   153b1:	48 8d 85 a0 e2 ff ff 	lea    -0x1d60(%rbp),%rax
   153b8:	48 05 68 01 00 00    	add    $0x168,%rax
   153be:	48 89 85 88 e6 ff ff 	mov    %rax,-0x1978(%rbp)
   153c5:	48 8d 85 a0 e2 ff ff 	lea    -0x1d60(%rbp),%rax
   153cc:	48 05 68 01 00 00    	add    $0x168,%rax
   153d2:	48 89 85 90 e6 ff ff 	mov    %rax,-0x1970(%rbp)
   153d9:	48 8d 85 a0 e2 ff ff 	lea    -0x1d60(%rbp),%rax
   153e0:	48 05 20 01 00 00    	add    $0x120,%rax
   153e6:	48 89 85 98 e6 ff ff 	mov    %rax,-0x1968(%rbp)
   153ed:	48 8d 85 a0 e2 ff ff 	lea    -0x1d60(%rbp),%rax
   153f4:	48 05 68 01 00 00    	add    $0x168,%rax
   153fa:	48 89 85 a0 e6 ff ff 	mov    %rax,-0x1960(%rbp)
   15401:	48 8d 85 a0 e2 ff ff 	lea    -0x1d60(%rbp),%rax
   15408:	48 05 68 01 00 00    	add    $0x168,%rax
   1540e:	48 89 85 a8 e6 ff ff 	mov    %rax,-0x1958(%rbp)
   15415:	48 8d 85 a0 e2 ff ff 	lea    -0x1d60(%rbp),%rax
   1541c:	48 05 d8 01 00 00    	add    $0x1d8,%rax
   15422:	48 89 85 b0 e6 ff ff 	mov    %rax,-0x1950(%rbp)
   15429:	48 8d 85 a0 e2 ff ff 	lea    -0x1d60(%rbp),%rax
   15430:	48 05 68 01 00 00    	add    $0x168,%rax
   15436:	48 89 85 b8 e6 ff ff 	mov    %rax,-0x1948(%rbp)
   1543d:	48 8d 85 a0 e2 ff ff 	lea    -0x1d60(%rbp),%rax
   15444:	48 83 c0 68          	add    $0x68,%rax
   15448:	48 89 85 c0 e6 ff ff 	mov    %rax,-0x1940(%rbp)
   1544f:	48 8d 85 a0 e2 ff ff 	lea    -0x1d60(%rbp),%rax
   15456:	48 05 68 01 00 00    	add    $0x168,%rax
   1545c:	48 89 85 c8 e6 ff ff 	mov    %rax,-0x1938(%rbp)
   15463:	48 8d 85 a0 e2 ff ff 	lea    -0x1d60(%rbp),%rax
   1546a:	48 05 c8 00 00 00    	add    $0xc8,%rax
   15470:	48 89 85 d0 e6 ff ff 	mov    %rax,-0x1930(%rbp)
   15477:	48 8d 85 a0 e2 ff ff 	lea    -0x1d60(%rbp),%rax
   1547e:	48 83 c0 68          	add    $0x68,%rax
   15482:	48 89 85 d8 e6 ff ff 	mov    %rax,-0x1928(%rbp)
   15489:	48 c7 85 e0 e6 ff ff 	movq   $0x0,-0x1920(%rbp)
   15490:	00 00 00 00 
   15494:	48 8d 85 a0 e2 ff ff 	lea    -0x1d60(%rbp),%rax
   1549b:	48 05 68 01 00 00    	add    $0x168,%rax
   154a1:	48 89 85 e8 e6 ff ff 	mov    %rax,-0x1918(%rbp)
   154a8:	48 8d 85 a0 e2 ff ff 	lea    -0x1d60(%rbp),%rax
   154af:	48 05 68 01 00 00    	add    $0x168,%rax
   154b5:	48 89 85 f0 e6 ff ff 	mov    %rax,-0x1910(%rbp)
   154bc:	48 8d 85 a0 e2 ff ff 	lea    -0x1d60(%rbp),%rax
   154c3:	48 05 08 01 00 00    	add    $0x108,%rax
   154c9:	48 89 85 f8 e6 ff ff 	mov    %rax,-0x1908(%rbp)
   154d0:	48 8d 85 a0 e2 ff ff 	lea    -0x1d60(%rbp),%rax
   154d7:	48 05 68 01 00 00    	add    $0x168,%rax
   154dd:	48 89 85 00 e7 ff ff 	mov    %rax,-0x1900(%rbp)
   154e4:	48 8d 85 a0 e2 ff ff 	lea    -0x1d60(%rbp),%rax
   154eb:	48 05 68 01 00 00    	add    $0x168,%rax
   154f1:	48 89 85 08 e7 ff ff 	mov    %rax,-0x18f8(%rbp)
   154f8:	48 c7 85 10 e7 ff ff 	movq   $0x0,-0x18f0(%rbp)
   154ff:	00 00 00 00 
   15503:	48 8d 85 a0 e2 ff ff 	lea    -0x1d60(%rbp),%rax
   1550a:	48 05 48 01 00 00    	add    $0x148,%rax
   15510:	48 89 85 18 e7 ff ff 	mov    %rax,-0x18e8(%rbp)
   15517:	48 8d 85 a0 e2 ff ff 	lea    -0x1d60(%rbp),%rax
   1551e:	48 05 d8 01 00 00    	add    $0x1d8,%rax
   15524:	48 89 85 20 e7 ff ff 	mov    %rax,-0x18e0(%rbp)
   1552b:	48 8d 85 a0 e2 ff ff 	lea    -0x1d60(%rbp),%rax
   15532:	48 05 68 01 00 00    	add    $0x168,%rax
   15538:	48 89 85 28 e7 ff ff 	mov    %rax,-0x18d8(%rbp)
   1553f:	48 8d 85 a0 e2 ff ff 	lea    -0x1d60(%rbp),%rax
   15546:	48 05 48 01 00 00    	add    $0x148,%rax
   1554c:	48 89 85 30 e7 ff ff 	mov    %rax,-0x18d0(%rbp)
   15553:	48 8d 85 a0 e2 ff ff 	lea    -0x1d60(%rbp),%rax
   1555a:	48 05 68 01 00 00    	add    $0x168,%rax
   15560:	48 89 85 38 e7 ff ff 	mov    %rax,-0x18c8(%rbp)
   15567:	48 8d 85 a0 e2 ff ff 	lea    -0x1d60(%rbp),%rax
   1556e:	48 05 d8 01 00 00    	add    $0x1d8,%rax
   15574:	48 89 85 40 e7 ff ff 	mov    %rax,-0x18c0(%rbp)
   1557b:	48 8d 85 a0 e2 ff ff 	lea    -0x1d60(%rbp),%rax
   15582:	48 05 68 01 00 00    	add    $0x168,%rax
   15588:	48 89 85 48 e7 ff ff 	mov    %rax,-0x18b8(%rbp)
   1558f:	48 8d 85 80 e4 ff ff 	lea    -0x1b80(%rbp),%rax
   15596:	48 05 50 01 00 00    	add    $0x150,%rax
   1559c:	48 89 85 28 e1 ff ff 	mov    %rax,-0x1ed8(%rbp)
   155a3:	48 8d 85 28 e1 ff ff 	lea    -0x1ed8(%rbp),%rax
   155aa:	48 89 85 50 e7 ff ff 	mov    %rax,-0x18b0(%rbp)
   155b1:	48 c7 85 58 e7 ff ff 	movq   $0x0,-0x18a8(%rbp)
   155b8:	00 00 00 00 
   155bc:	48 c7 85 60 e7 ff ff 	movq   $0x0,-0x18a0(%rbp)
   155c3:	00 00 00 00 
   155c7:	48 c7 85 68 e7 ff ff 	movq   $0x0,-0x1898(%rbp)
   155ce:	00 00 00 00 
   155d2:	48 8d 85 28 e1 ff ff 	lea    -0x1ed8(%rbp),%rax
   155d9:	48 89 85 70 e7 ff ff 	mov    %rax,-0x1890(%rbp)
   155e0:	48 c7 85 78 e7 ff ff 	movq   $0x0,-0x1888(%rbp)
   155e7:	00 00 00 00 
   155eb:	48 8d 85 28 e1 ff ff 	lea    -0x1ed8(%rbp),%rax
   155f2:	48 89 85 80 e7 ff ff 	mov    %rax,-0x1880(%rbp)
   155f9:	48 8d 85 28 e1 ff ff 	lea    -0x1ed8(%rbp),%rax
   15600:	48 89 85 88 e7 ff ff 	mov    %rax,-0x1878(%rbp)
   15607:	48 8d 85 28 e1 ff ff 	lea    -0x1ed8(%rbp),%rax
   1560e:	48 89 85 90 e7 ff ff 	mov    %rax,-0x1870(%rbp)
   15615:	48 c7 85 98 e7 ff ff 	movq   $0x0,-0x1868(%rbp)
   1561c:	00 00 00 00 
   15620:	48 8d 85 28 e1 ff ff 	lea    -0x1ed8(%rbp),%rax
   15627:	48 89 85 a0 e7 ff ff 	mov    %rax,-0x1860(%rbp)
   1562e:	48 8d 85 28 e1 ff ff 	lea    -0x1ed8(%rbp),%rax
   15635:	48 89 85 a8 e7 ff ff 	mov    %rax,-0x1858(%rbp)
   1563c:	48 c7 85 b0 e7 ff ff 	movq   $0x0,-0x1850(%rbp)
   15643:	00 00 00 00 
   15647:	48 8d 85 28 e1 ff ff 	lea    -0x1ed8(%rbp),%rax
   1564e:	48 89 85 b8 e7 ff ff 	mov    %rax,-0x1848(%rbp)
   15655:	48 8d 85 28 e1 ff ff 	lea    -0x1ed8(%rbp),%rax
   1565c:	48 89 85 c0 e7 ff ff 	mov    %rax,-0x1840(%rbp)
   15663:	48 c7 85 c8 e7 ff ff 	movq   $0x0,-0x1838(%rbp)
   1566a:	00 00 00 00 
   1566e:	48 8d 85 28 e1 ff ff 	lea    -0x1ed8(%rbp),%rax
   15675:	48 89 85 d0 e7 ff ff 	mov    %rax,-0x1830(%rbp)
   1567c:	48 c7 85 d8 e7 ff ff 	movq   $0x0,-0x1828(%rbp)
   15683:	00 00 00 00 
   15687:	48 8d 85 28 e1 ff ff 	lea    -0x1ed8(%rbp),%rax
   1568e:	48 89 85 e0 e7 ff ff 	mov    %rax,-0x1820(%rbp)
   15695:	48 8d 85 28 e1 ff ff 	lea    -0x1ed8(%rbp),%rax
   1569c:	48 89 85 e8 e7 ff ff 	mov    %rax,-0x1818(%rbp)
   156a3:	48 8d 85 28 e1 ff ff 	lea    -0x1ed8(%rbp),%rax
   156aa:	48 89 85 f0 e7 ff ff 	mov    %rax,-0x1810(%rbp)
   156b1:	48 c7 85 f8 e7 ff ff 	movq   $0x0,-0x1808(%rbp)
   156b8:	00 00 00 00 
   156bc:	48 8d 85 28 e1 ff ff 	lea    -0x1ed8(%rbp),%rax
   156c3:	48 89 85 00 e8 ff ff 	mov    %rax,-0x1800(%rbp)
   156ca:	48 c7 85 08 e8 ff ff 	movq   $0x0,-0x17f8(%rbp)
   156d1:	00 00 00 00 
   156d5:	48 8d 85 28 e1 ff ff 	lea    -0x1ed8(%rbp),%rax
   156dc:	48 89 85 10 e8 ff ff 	mov    %rax,-0x17f0(%rbp)
   156e3:	48 8d 85 28 e1 ff ff 	lea    -0x1ed8(%rbp),%rax
   156ea:	48 89 85 18 e8 ff ff 	mov    %rax,-0x17e8(%rbp)
   156f1:	48 8d 85 28 e1 ff ff 	lea    -0x1ed8(%rbp),%rax
   156f8:	48 89 85 20 e8 ff ff 	mov    %rax,-0x17e0(%rbp)
   156ff:	48 8d 85 28 e1 ff ff 	lea    -0x1ed8(%rbp),%rax
   15706:	48 89 85 28 e8 ff ff 	mov    %rax,-0x17d8(%rbp)
   1570d:	48 8d 85 28 e1 ff ff 	lea    -0x1ed8(%rbp),%rax
   15714:	48 89 85 30 e8 ff ff 	mov    %rax,-0x17d0(%rbp)
   1571b:	48 8d 85 28 e1 ff ff 	lea    -0x1ed8(%rbp),%rax
   15722:	48 89 85 38 e8 ff ff 	mov    %rax,-0x17c8(%rbp)
   15729:	48 8d 85 28 e1 ff ff 	lea    -0x1ed8(%rbp),%rax
   15730:	48 89 85 40 e8 ff ff 	mov    %rax,-0x17c0(%rbp)
   15737:	48 8d 85 28 e1 ff ff 	lea    -0x1ed8(%rbp),%rax
   1573e:	48 89 85 48 e8 ff ff 	mov    %rax,-0x17b8(%rbp)
   15745:	48 c7 85 50 e8 ff ff 	movq   $0x0,-0x17b0(%rbp)
   1574c:	00 00 00 00 
   15750:	48 8d 85 28 e1 ff ff 	lea    -0x1ed8(%rbp),%rax
   15757:	48 89 85 58 e8 ff ff 	mov    %rax,-0x17a8(%rbp)
   1575e:	48 c7 85 60 e8 ff ff 	movq   $0x0,-0x17a0(%rbp)
   15765:	00 00 00 00 
   15769:	48 8d 85 28 e1 ff ff 	lea    -0x1ed8(%rbp),%rax
   15770:	48 89 85 68 e8 ff ff 	mov    %rax,-0x1798(%rbp)
   15777:	48 8d 85 28 e1 ff ff 	lea    -0x1ed8(%rbp),%rax
   1577e:	48 89 85 70 e8 ff ff 	mov    %rax,-0x1790(%rbp)
   15785:	48 8d 85 28 e1 ff ff 	lea    -0x1ed8(%rbp),%rax
   1578c:	48 89 85 78 e8 ff ff 	mov    %rax,-0x1788(%rbp)
   15793:	48 c7 85 80 e8 ff ff 	movq   $0x0,-0x1780(%rbp)
   1579a:	00 00 00 00 
   1579e:	48 8d 85 28 e1 ff ff 	lea    -0x1ed8(%rbp),%rax
   157a5:	48 89 85 88 e8 ff ff 	mov    %rax,-0x1778(%rbp)
   157ac:	48 8d 85 28 e1 ff ff 	lea    -0x1ed8(%rbp),%rax
   157b3:	48 89 85 90 e8 ff ff 	mov    %rax,-0x1770(%rbp)
   157ba:	48 c7 85 98 e8 ff ff 	movq   $0x0,-0x1768(%rbp)
   157c1:	00 00 00 00 
   157c5:	48 c7 85 a0 e8 ff ff 	movq   $0x0,-0x1760(%rbp)
   157cc:	00 00 00 00 
   157d0:	48 8d 85 28 e1 ff ff 	lea    -0x1ed8(%rbp),%rax
   157d7:	48 89 85 a8 e8 ff ff 	mov    %rax,-0x1758(%rbp)
   157de:	48 8d 85 28 e1 ff ff 	lea    -0x1ed8(%rbp),%rax
   157e5:	48 89 85 b0 e8 ff ff 	mov    %rax,-0x1750(%rbp)
   157ec:	48 8d 85 28 e1 ff ff 	lea    -0x1ed8(%rbp),%rax
   157f3:	48 89 85 b8 e8 ff ff 	mov    %rax,-0x1748(%rbp)
   157fa:	48 8d 85 28 e1 ff ff 	lea    -0x1ed8(%rbp),%rax
   15801:	48 89 85 c0 e8 ff ff 	mov    %rax,-0x1740(%rbp)
   15808:	48 c7 85 c8 e8 ff ff 	movq   $0x0,-0x1738(%rbp)
   1580f:	00 00 00 00 
   15813:	48 8d 85 28 e1 ff ff 	lea    -0x1ed8(%rbp),%rax
   1581a:	48 89 85 d0 e8 ff ff 	mov    %rax,-0x1730(%rbp)
   15821:	48 8d 85 28 e1 ff ff 	lea    -0x1ed8(%rbp),%rax
   15828:	48 89 85 d8 e8 ff ff 	mov    %rax,-0x1728(%rbp)
   1582f:	48 8d 85 28 e1 ff ff 	lea    -0x1ed8(%rbp),%rax
   15836:	48 89 85 e0 e8 ff ff 	mov    %rax,-0x1720(%rbp)
   1583d:	48 8d 85 28 e1 ff ff 	lea    -0x1ed8(%rbp),%rax
   15844:	48 89 85 e8 e8 ff ff 	mov    %rax,-0x1718(%rbp)
   1584b:	48 8d 85 28 e1 ff ff 	lea    -0x1ed8(%rbp),%rax
   15852:	48 89 85 f0 e8 ff ff 	mov    %rax,-0x1710(%rbp)
   15859:	48 8d 85 28 e1 ff ff 	lea    -0x1ed8(%rbp),%rax
   15860:	48 89 85 f8 e8 ff ff 	mov    %rax,-0x1708(%rbp)
   15867:	48 8d 85 28 e1 ff ff 	lea    -0x1ed8(%rbp),%rax
   1586e:	48 89 85 00 e9 ff ff 	mov    %rax,-0x1700(%rbp)
   15875:	48 8d 85 28 e1 ff ff 	lea    -0x1ed8(%rbp),%rax
   1587c:	48 89 85 08 e9 ff ff 	mov    %rax,-0x16f8(%rbp)
   15883:	48 c7 85 10 e9 ff ff 	movq   $0x0,-0x16f0(%rbp)
   1588a:	00 00 00 00 
   1588e:	48 8d 85 28 e1 ff ff 	lea    -0x1ed8(%rbp),%rax
   15895:	48 89 85 18 e9 ff ff 	mov    %rax,-0x16e8(%rbp)
   1589c:	48 c7 85 20 e9 ff ff 	movq   $0x0,-0x16e0(%rbp)
   158a3:	00 00 00 00 
   158a7:	48 8d 85 28 e1 ff ff 	lea    -0x1ed8(%rbp),%rax
   158ae:	48 89 85 28 e9 ff ff 	mov    %rax,-0x16d8(%rbp)
   158b5:	48 8d 85 28 e1 ff ff 	lea    -0x1ed8(%rbp),%rax
   158bc:	48 89 85 30 e9 ff ff 	mov    %rax,-0x16d0(%rbp)
   158c3:	48 c7 85 38 e9 ff ff 	movq   $0x0,-0x16c8(%rbp)
   158ca:	00 00 00 00 
   158ce:	48 c7 85 40 e9 ff ff 	movq   $0x0,-0x16c0(%rbp)
   158d5:	00 00 00 00 
   158d9:	48 8d 85 28 e1 ff ff 	lea    -0x1ed8(%rbp),%rax
   158e0:	48 89 85 48 e9 ff ff 	mov    %rax,-0x16b8(%rbp)
   158e7:	48 8d 85 28 e1 ff ff 	lea    -0x1ed8(%rbp),%rax
   158ee:	48 89 85 50 e9 ff ff 	mov    %rax,-0x16b0(%rbp)
   158f5:	48 c7 85 58 e9 ff ff 	movq   $0x0,-0x16a8(%rbp)
   158fc:	00 00 00 00 
   15900:	48 c7 85 60 e9 ff ff 	movq   $0x0,-0x16a0(%rbp)
   15907:	00 00 00 00 
   1590b:	48 8d 85 28 e1 ff ff 	lea    -0x1ed8(%rbp),%rax
   15912:	48 89 85 68 e9 ff ff 	mov    %rax,-0x1698(%rbp)
   15919:	48 8d 85 28 e1 ff ff 	lea    -0x1ed8(%rbp),%rax
   15920:	48 89 85 70 e9 ff ff 	mov    %rax,-0x1690(%rbp)
   15927:	48 c7 85 78 e9 ff ff 	movq   $0x0,-0x1688(%rbp)
   1592e:	00 00 00 00 
   15932:	48 8d 85 28 e1 ff ff 	lea    -0x1ed8(%rbp),%rax
   15939:	48 89 85 80 e9 ff ff 	mov    %rax,-0x1680(%rbp)
   15940:	48 c7 85 88 e9 ff ff 	movq   $0x0,-0x1678(%rbp)
   15947:	00 00 00 00 
   1594b:	48 8d 85 28 e1 ff ff 	lea    -0x1ed8(%rbp),%rax
   15952:	48 89 85 90 e9 ff ff 	mov    %rax,-0x1670(%rbp)
   15959:	48 8d 85 28 e1 ff ff 	lea    -0x1ed8(%rbp),%rax
   15960:	48 89 85 98 e9 ff ff 	mov    %rax,-0x1668(%rbp)
   15967:	48 8d 85 28 e1 ff ff 	lea    -0x1ed8(%rbp),%rax
   1596e:	48 89 85 a0 e9 ff ff 	mov    %rax,-0x1660(%rbp)
   15975:	48 8d 85 28 e1 ff ff 	lea    -0x1ed8(%rbp),%rax
   1597c:	48 89 85 a8 e9 ff ff 	mov    %rax,-0x1658(%rbp)
   15983:	48 8d 85 28 e1 ff ff 	lea    -0x1ed8(%rbp),%rax
   1598a:	48 89 85 b0 e9 ff ff 	mov    %rax,-0x1650(%rbp)
   15991:	48 8d 85 28 e1 ff ff 	lea    -0x1ed8(%rbp),%rax
   15998:	48 89 85 b8 e9 ff ff 	mov    %rax,-0x1648(%rbp)
   1599f:	48 8d 85 28 e1 ff ff 	lea    -0x1ed8(%rbp),%rax
   159a6:	48 89 85 c0 e9 ff ff 	mov    %rax,-0x1640(%rbp)
   159ad:	48 8d 85 28 e1 ff ff 	lea    -0x1ed8(%rbp),%rax
   159b4:	48 89 85 c8 e9 ff ff 	mov    %rax,-0x1638(%rbp)
   159bb:	48 c7 85 d0 e9 ff ff 	movq   $0x0,-0x1630(%rbp)
   159c2:	00 00 00 00 
   159c6:	48 8d 85 28 e1 ff ff 	lea    -0x1ed8(%rbp),%rax
   159cd:	48 89 85 d8 e9 ff ff 	mov    %rax,-0x1628(%rbp)
   159d4:	48 8d 85 28 e1 ff ff 	lea    -0x1ed8(%rbp),%rax
   159db:	48 89 85 e0 e9 ff ff 	mov    %rax,-0x1620(%rbp)
   159e2:	48 8d 85 28 e1 ff ff 	lea    -0x1ed8(%rbp),%rax
   159e9:	48 89 85 e8 e9 ff ff 	mov    %rax,-0x1618(%rbp)
   159f0:	48 8d 85 28 e1 ff ff 	lea    -0x1ed8(%rbp),%rax
   159f7:	48 89 85 f0 e9 ff ff 	mov    %rax,-0x1610(%rbp)
   159fe:	48 c7 85 f8 e9 ff ff 	movq   $0x0,-0x1608(%rbp)
   15a05:	00 00 00 00 
   15a09:	48 c7 85 00 ea ff ff 	movq   $0x0,-0x1600(%rbp)
   15a10:	00 00 00 00 
   15a14:	48 8d 85 28 e1 ff ff 	lea    -0x1ed8(%rbp),%rax
   15a1b:	48 89 85 08 ea ff ff 	mov    %rax,-0x15f8(%rbp)
   15a22:	48 8d 85 28 e1 ff ff 	lea    -0x1ed8(%rbp),%rax
   15a29:	48 89 85 10 ea ff ff 	mov    %rax,-0x15f0(%rbp)
   15a30:	48 c7 85 18 ea ff ff 	movq   $0x0,-0x15e8(%rbp)
   15a37:	00 00 00 00 
   15a3b:	48 8d 85 28 e1 ff ff 	lea    -0x1ed8(%rbp),%rax
   15a42:	48 89 85 20 ea ff ff 	mov    %rax,-0x15e0(%rbp)
   15a49:	48 8d 85 28 e1 ff ff 	lea    -0x1ed8(%rbp),%rax
   15a50:	48 89 85 28 ea ff ff 	mov    %rax,-0x15d8(%rbp)
   15a57:	48 8d 85 28 e1 ff ff 	lea    -0x1ed8(%rbp),%rax
   15a5e:	48 89 85 30 ea ff ff 	mov    %rax,-0x15d0(%rbp)
   15a65:	48 c7 85 38 ea ff ff 	movq   $0x0,-0x15c8(%rbp)
   15a6c:	00 00 00 00 
   15a70:	48 8d 85 28 e1 ff ff 	lea    -0x1ed8(%rbp),%rax
   15a77:	48 89 85 40 ea ff ff 	mov    %rax,-0x15c0(%rbp)
   15a7e:	48 c7 85 48 ea ff ff 	movq   $0x0,-0x15b8(%rbp)
   15a85:	00 00 00 00 
   15a89:	c6 85 b0 e0 ff ff f7 	movb   $0xf7,-0x1f50(%rbp)
   15a90:	e9 aa 1b 00 00       	jmpq   1763f <func_43+0x2bad>
   15a95:	c7 85 d4 e0 ff ff fb 	movl   $0xfffffffb,-0x1f2c(%rbp)
   15a9c:	ff ff ff 
   15a9f:	48 8d 05 c2 b9 00 00 	lea    0xb9c2(%rip),%rax        # 21468 <g_83>
   15aa6:	48 89 85 88 e1 ff ff 	mov    %rax,-0x1e78(%rbp)
   15aad:	48 8d 05 9c b9 00 00 	lea    0xb99c(%rip),%rax        # 21450 <g_69>
   15ab4:	48 89 85 30 e1 ff ff 	mov    %rax,-0x1ed0(%rbp)
   15abb:	48 8d 05 96 b9 00 00 	lea    0xb996(%rip),%rax        # 21458 <g_68>
   15ac2:	48 89 85 38 e1 ff ff 	mov    %rax,-0x1ec8(%rbp)
   15ac9:	48 c7 85 40 e1 ff ff 	movq   $0x0,-0x1ec0(%rbp)
   15ad0:	00 00 00 00 
   15ad4:	66 c7 85 40 e1 ff ff 	movw   $0xfffd,-0x1ec0(%rbp)
   15adb:	fd ff 
   15add:	48 8d 85 38 e1 ff ff 	lea    -0x1ec8(%rbp),%rax
   15ae4:	48 89 85 50 e2 ff ff 	mov    %rax,-0x1db0(%rbp)
   15aeb:	48 8d 85 38 e1 ff ff 	lea    -0x1ec8(%rbp),%rax
   15af2:	48 89 85 58 e2 ff ff 	mov    %rax,-0x1da8(%rbp)
   15af9:	48 8d 85 38 e1 ff ff 	lea    -0x1ec8(%rbp),%rax
   15b00:	48 89 85 60 e2 ff ff 	mov    %rax,-0x1da0(%rbp)
   15b07:	48 8d 85 38 e1 ff ff 	lea    -0x1ec8(%rbp),%rax
   15b0e:	48 89 85 68 e2 ff ff 	mov    %rax,-0x1d98(%rbp)
   15b15:	48 8d 85 38 e1 ff ff 	lea    -0x1ec8(%rbp),%rax
   15b1c:	48 89 85 70 e2 ff ff 	mov    %rax,-0x1d90(%rbp)
   15b23:	48 8d 85 38 e1 ff ff 	lea    -0x1ec8(%rbp),%rax
   15b2a:	48 89 85 78 e2 ff ff 	mov    %rax,-0x1d88(%rbp)
   15b31:	48 8d 85 38 e1 ff ff 	lea    -0x1ec8(%rbp),%rax
   15b38:	48 89 85 80 e2 ff ff 	mov    %rax,-0x1d80(%rbp)
   15b3f:	48 8d 85 38 e1 ff ff 	lea    -0x1ec8(%rbp),%rax
   15b46:	48 89 85 88 e2 ff ff 	mov    %rax,-0x1d78(%rbp)
   15b4d:	48 8d 85 38 e1 ff ff 	lea    -0x1ec8(%rbp),%rax
   15b54:	48 89 85 90 e2 ff ff 	mov    %rax,-0x1d70(%rbp)
   15b5b:	48 8d 85 10 e1 ff ff 	lea    -0x1ef0(%rbp),%rax
   15b62:	48 89 85 90 e1 ff ff 	mov    %rax,-0x1e70(%rbp)
   15b69:	48 8d 05 3c 95 00 00 	lea    0x953c(%rip),%rax        # 1f0ac <g_158>
   15b70:	48 89 85 98 e1 ff ff 	mov    %rax,-0x1e68(%rbp)
   15b77:	66 c7 85 b4 e0 ff ff 	movw   $0x0,-0x1f4c(%rbp)
   15b7e:	00 00 
   15b80:	e9 b3 07 00 00       	jmpq   16338 <func_43+0x18a6>
   15b85:	48 8d 85 d4 e0 ff ff 	lea    -0x1f2c(%rbp),%rax
   15b8c:	48 89 85 48 e1 ff ff 	mov    %rax,-0x1eb8(%rbp)
   15b93:	48 b8 b6 b6 5a b6 b6 	movabs $0xb6b65ab6b65ab6b6,%rax
   15b9a:	5a b6 b6 
   15b9d:	48 89 85 44 e2 ff ff 	mov    %rax,-0x1dbc(%rbp)
   15ba4:	66 c7 85 4c e2 ff ff 	movw   $0xb65a,-0x1db4(%rbp)
   15bab:	5a b6 
   15bad:	48 8d 05 b0 94 00 00 	lea    0x94b0(%rip),%rax        # 1f064 <g_90>
   15bb4:	48 89 85 c8 e1 ff ff 	mov    %rax,-0x1e38(%rbp)
   15bbb:	48 8d 85 30 e1 ff ff 	lea    -0x1ed0(%rbp),%rax
   15bc2:	48 89 85 d0 e1 ff ff 	mov    %rax,-0x1e30(%rbp)
   15bc9:	48 8d 85 08 e1 ff ff 	lea    -0x1ef8(%rbp),%rax
   15bd0:	48 89 85 50 f1 ff ff 	mov    %rax,-0xeb0(%rbp)
   15bd7:	48 8d 85 08 e1 ff ff 	lea    -0x1ef8(%rbp),%rax
   15bde:	48 89 85 58 f1 ff ff 	mov    %rax,-0xea8(%rbp)
   15be5:	48 8d 85 08 e1 ff ff 	lea    -0x1ef8(%rbp),%rax
   15bec:	48 89 85 60 f1 ff ff 	mov    %rax,-0xea0(%rbp)
   15bf3:	48 8d 85 08 e1 ff ff 	lea    -0x1ef8(%rbp),%rax
   15bfa:	48 89 85 68 f1 ff ff 	mov    %rax,-0xe98(%rbp)
   15c01:	48 8d 85 08 e1 ff ff 	lea    -0x1ef8(%rbp),%rax
   15c08:	48 89 85 70 f1 ff ff 	mov    %rax,-0xe90(%rbp)
   15c0f:	48 8d 85 08 e1 ff ff 	lea    -0x1ef8(%rbp),%rax
   15c16:	48 89 85 78 f1 ff ff 	mov    %rax,-0xe88(%rbp)
   15c1d:	48 8d 85 08 e1 ff ff 	lea    -0x1ef8(%rbp),%rax
   15c24:	48 89 85 80 f1 ff ff 	mov    %rax,-0xe80(%rbp)
   15c2b:	48 8d 85 08 e1 ff ff 	lea    -0x1ef8(%rbp),%rax
   15c32:	48 89 85 88 f1 ff ff 	mov    %rax,-0xe78(%rbp)
   15c39:	48 8b 85 48 e1 ff ff 	mov    -0x1eb8(%rbp),%rax
   15c40:	8b 95 d4 e0 ff ff    	mov    -0x1f2c(%rbp),%edx
   15c46:	89 10                	mov    %edx,(%rax)
   15c48:	48 c7 05 dd 93 00 00 	movq   $0x0,0x93dd(%rip)        # 1f030 <g_39>
   15c4f:	00 00 00 00 
   15c53:	eb 3c                	jmp    15c91 <func_43+0x11ff>
   15c55:	48 8d 85 48 e1 ff ff 	lea    -0x1eb8(%rbp),%rax
   15c5c:	48 89 85 50 e1 ff ff 	mov    %rax,-0x1eb0(%rbp)
   15c63:	48 8d 85 50 e1 ff ff 	lea    -0x1eb0(%rbp),%rax
   15c6a:	48 89 85 28 e2 ff ff 	mov    %rax,-0x1dd8(%rbp)
   15c71:	48 8d 05 e0 b7 00 00 	lea    0xb7e0(%rip),%rax        # 21458 <g_68>
   15c78:	48 89 85 30 e2 ff ff 	mov    %rax,-0x1dd0(%rbp)
   15c7f:	48 8b 05 aa 93 00 00 	mov    0x93aa(%rip),%rax        # 1f030 <g_39>
   15c86:	48 83 e8 01          	sub    $0x1,%rax
   15c8a:	48 89 05 9f 93 00 00 	mov    %rax,0x939f(%rip)        # 1f030 <g_39>
   15c91:	48 8b 05 98 93 00 00 	mov    0x9398(%rip),%rax        # 1f030 <g_39>
   15c98:	48 85 c0             	test   %rax,%rax
   15c9b:	79 b8                	jns    15c55 <func_43+0x11c3>
   15c9d:	c7 05 d1 93 00 00 00 	movl   $0x0,0x93d1(%rip)        # 1f078 <g_121+0x8>
   15ca4:	00 00 00 
   15ca7:	e9 1a 01 00 00       	jmpq   15dc6 <func_43+0x1334>
   15cac:	48 8d 85 08 e1 ff ff 	lea    -0x1ef8(%rbp),%rax
   15cb3:	48 89 85 20 e2 ff ff 	mov    %rax,-0x1de0(%rbp)
   15cba:	8b 15 b8 93 00 00    	mov    0x93b8(%rip),%edx        # 1f078 <g_121+0x8>
   15cc0:	8b 05 b2 93 00 00    	mov    0x93b2(%rip),%eax        # 1f078 <g_121+0x8>
   15cc6:	83 c0 08             	add    $0x8,%eax
   15cc9:	89 c1                	mov    %eax,%ecx
   15ccb:	89 d2                	mov    %edx,%edx
   15ccd:	48 89 d0             	mov    %rdx,%rax
   15cd0:	48 c1 e0 02          	shl    $0x2,%rax
   15cd4:	48 01 d0             	add    %rdx,%rax
   15cd7:	48 01 c0             	add    %rax,%rax
   15cda:	48 8d 5d e0          	lea    -0x20(%rbp),%rbx
   15cde:	48 01 d8             	add    %rbx,%rax
   15ce1:	48 01 c8             	add    %rcx,%rax
   15ce4:	48 2d 9c 1d 00 00    	sub    $0x1d9c,%rax
   15cea:	0f b6 00             	movzbl (%rax),%eax
   15ced:	0f be d8             	movsbl %al,%ebx
   15cf0:	0f b7 85 b4 e0 ff ff 	movzwl -0x1f4c(%rbp),%eax
   15cf7:	0f b7 c0             	movzwl %ax,%eax
   15cfa:	be 0e 00 00 00       	mov    $0xe,%esi
   15cff:	89 c7                	mov    %eax,%edi
   15d01:	e8 00 31 ff ff       	callq  8e06 <safe_lshift_func_uint16_t_u_u>
   15d06:	89 c2                	mov    %eax,%edx
   15d08:	48 8b 85 68 e1 ff ff 	mov    -0x1e98(%rbp),%rax
   15d0f:	48 8b 00             	mov    (%rax),%rax
   15d12:	66 89 10             	mov    %dx,(%rax)
   15d15:	0f b7 00             	movzwl (%rax),%eax
   15d18:	98                   	cwtl   
   15d19:	f7 d0                	not    %eax
   15d1b:	31 c3                	xor    %eax,%ebx
   15d1d:	89 de                	mov    %ebx,%esi
   15d1f:	48 8b 85 60 f1 ff ff 	mov    -0xea0(%rbp),%rax
   15d26:	48 39 85 20 e2 ff ff 	cmp    %rax,-0x1de0(%rbp)
   15d2d:	0f 95 c0             	setne  %al
   15d30:	0f b6 d0             	movzbl %al,%edx
   15d33:	48 8b 85 78 e1 ff ff 	mov    -0x1e88(%rbp),%rax
   15d3a:	8b 08                	mov    (%rax),%ecx
   15d3c:	48 8b 05 55 b7 00 00 	mov    0xb755(%rip),%rax        # 21498 <g_142>
   15d43:	48 85 c0             	test   %rax,%rax
   15d46:	0f 95 c0             	setne  %al
   15d49:	0f b6 c0             	movzbl %al,%eax
   15d4c:	39 c1                	cmp    %eax,%ecx
   15d4e:	0f 9e c0             	setle  %al
   15d51:	0f b6 c0             	movzbl %al,%eax
   15d54:	39 c2                	cmp    %eax,%edx
   15d56:	0f 9c c0             	setl   %al
   15d59:	0f b6 c0             	movzbl %al,%eax
   15d5c:	89 f3                	mov    %esi,%ebx
   15d5e:	09 c3                	or     %eax,%ebx
   15d60:	8b 05 f6 92 00 00    	mov    0x92f6(%rip),%eax        # 1f05c <g_73>
   15d66:	89 c2                	mov    %eax,%edx
   15d68:	8b 05 ba 92 00 00    	mov    0x92ba(%rip),%eax        # 1f028 <g_5>
   15d6e:	0f b6 c0             	movzbl %al,%eax
   15d71:	89 d6                	mov    %edx,%esi
   15d73:	89 c7                	mov    %eax,%edi
   15d75:	e8 d2 2e ff ff       	callq  8c4c <safe_lshift_func_uint8_t_u_u>
   15d7a:	0f b6 c0             	movzbl %al,%eax
   15d7d:	21 d8                	and    %ebx,%eax
   15d7f:	85 c0                	test   %eax,%eax
   15d81:	75 16                	jne    15d99 <func_43+0x1307>
   15d83:	48 8b 85 d0 e1 ff ff 	mov    -0x1e30(%rbp),%rax
   15d8a:	48 8b 00             	mov    (%rax),%rax
   15d8d:	48 8b 00             	mov    (%rax),%rax
   15d90:	48 8b 00             	mov    (%rax),%rax
   15d93:	8b 00                	mov    (%rax),%eax
   15d95:	85 c0                	test   %eax,%eax
   15d97:	74 07                	je     15da0 <func_43+0x130e>
   15d99:	ba 01 00 00 00       	mov    $0x1,%edx
   15d9e:	eb 05                	jmp    15da5 <func_43+0x1313>
   15da0:	ba 00 00 00 00       	mov    $0x0,%edx
   15da5:	48 8b 85 d0 e1 ff ff 	mov    -0x1e30(%rbp),%rax
   15dac:	48 8b 00             	mov    (%rax),%rax
   15daf:	48 8b 00             	mov    (%rax),%rax
   15db2:	48 8b 00             	mov    (%rax),%rax
   15db5:	89 10                	mov    %edx,(%rax)
   15db7:	8b 05 bb 92 00 00    	mov    0x92bb(%rip),%eax        # 1f078 <g_121+0x8>
   15dbd:	83 c0 01             	add    $0x1,%eax
   15dc0:	89 05 b2 92 00 00    	mov    %eax,0x92b2(%rip)        # 1f078 <g_121+0x8>
   15dc6:	8b 05 ac 92 00 00    	mov    0x92ac(%rip),%eax        # 1f078 <g_121+0x8>
   15dcc:	85 c0                	test   %eax,%eax
   15dce:	0f 84 d8 fe ff ff    	je     15cac <func_43+0x121a>
   15dd4:	48 c7 05 51 92 00 00 	movq   $0xffffffffffffffe8,0x9251(%rip)        # 1f030 <g_39>
   15ddb:	e8 ff ff ff 
   15ddf:	e9 26 05 00 00       	jmpq   1630a <func_43+0x1878>
   15de4:	48 c7 85 d8 e1 ff ff 	movq   $0x0,-0x1e28(%rbp)
   15deb:	00 00 00 00 
   15def:	48 8d 85 44 e2 ff ff 	lea    -0x1dbc(%rbp),%rax
   15df6:	48 83 c0 02          	add    $0x2,%rax
   15dfa:	48 89 85 e0 e1 ff ff 	mov    %rax,-0x1e20(%rbp)
   15e01:	48 8d 05 a4 92 00 00 	lea    0x92a4(%rip),%rax        # 1f0ac <g_158>
   15e08:	48 89 85 e8 e1 ff ff 	mov    %rax,-0x1e18(%rbp)
   15e0f:	48 c7 85 f0 e1 ff ff 	movq   $0x0,-0x1e10(%rbp)
   15e16:	00 00 00 00 
   15e1a:	c7 85 00 e1 ff ff e1 	movl   $0x9fbb92e1,-0x1f00(%rbp)
   15e21:	92 bb 9f 
   15e24:	66 c7 85 d2 e0 ff ff 	movw   $0x1,-0x1f2e(%rbp)
   15e2b:	01 00 
   15e2d:	c7 85 04 e1 ff ff 1c 	movl   $0xd028b11c,-0x1efc(%rbp)
   15e34:	b1 28 d0 
   15e37:	c6 85 cb e0 ff ff 01 	movb   $0x1,-0x1f35(%rbp)
   15e3e:	c7 85 dc e0 ff ff 00 	movl   $0x0,-0x1f24(%rbp)
   15e45:	00 00 00 
   15e48:	eb 1a                	jmp    15e64 <func_43+0x13d2>
   15e4a:	8b 85 dc e0 ff ff    	mov    -0x1f24(%rbp),%eax
   15e50:	48 98                	cltq   
   15e52:	c7 84 85 50 ea ff ff 	movl   $0x0,-0x15b0(%rbp,%rax,4)
   15e59:	00 00 00 00 
   15e5d:	83 85 dc e0 ff ff 01 	addl   $0x1,-0x1f24(%rbp)
   15e64:	83 bd dc e0 ff ff 05 	cmpl   $0x5,-0x1f24(%rbp)
   15e6b:	7e dd                	jle    15e4a <func_43+0x13b8>
   15e6d:	48 8b 85 e8 e1 ff ff 	mov    -0x1e18(%rbp),%rax
   15e74:	0f b7 00             	movzwl (%rax),%eax
   15e77:	8d 50 01             	lea    0x1(%rax),%edx
   15e7a:	48 8b 85 e8 e1 ff ff 	mov    -0x1e18(%rbp),%rax
   15e81:	66 89 10             	mov    %dx,(%rax)
   15e84:	0f be 9d b0 e0 ff ff 	movsbl -0x1f50(%rbp),%ebx
   15e8b:	0f b6 05 ff 91 00 00 	movzbl 0x91ff(%rip),%eax        # 1f091 <g_140+0x1>
   15e92:	44 0f b6 e0          	movzbl %al,%r12d
   15e96:	48 8b 85 d0 e1 ff ff 	mov    -0x1e30(%rbp),%rax
   15e9d:	48 8b 00             	mov    (%rax),%rax
   15ea0:	48 8b 00             	mov    (%rax),%rax
   15ea3:	48 8b 00             	mov    (%rax),%rax
   15ea6:	44 8b 28             	mov    (%rax),%r13d
   15ea9:	48 0f be 85 b0 e0 ff 	movsbq -0x1f50(%rbp),%rax
   15eb0:	ff 
   15eb1:	48 89 c6             	mov    %rax,%rsi
   15eb4:	bf d7 90 a7 09       	mov    $0x9a790d7,%edi
   15eb9:	e8 70 31 ff ff       	callq  902e <safe_add_func_uint64_t_u_u>
   15ebe:	0f b7 c0             	movzwl %ax,%eax
   15ec1:	be c7 59 00 00       	mov    $0x59c7,%esi
   15ec6:	89 c7                	mov    %eax,%edi
   15ec8:	e8 8f 2e ff ff       	callq  8d5c <safe_mod_func_uint16_t_u_u>
   15ecd:	66 85 c0             	test   %ax,%ax
   15ed0:	0f 95 c0             	setne  %al
   15ed3:	0f b6 c0             	movzbl %al,%eax
   15ed6:	be 98 ea ff ff       	mov    $0xffffea98,%esi
   15edb:	89 c7                	mov    %eax,%edi
   15edd:	e8 73 25 ff ff       	callq  8455 <safe_div_func_int16_t_s_s>
   15ee2:	44 89 ee             	mov    %r13d,%esi
   15ee5:	bf 00 00 00 00       	mov    $0x0,%edi
   15eea:	e8 9e 2d ff ff       	callq  8c8d <safe_rshift_func_uint8_t_u_s>
   15eef:	0f b6 d0             	movzbl %al,%edx
   15ef2:	0f bf 85 b4 e0 ff ff 	movswl -0x1f4c(%rbp),%eax
   15ef9:	39 c2                	cmp    %eax,%edx
   15efb:	0f 9d c0             	setge  %al
   15efe:	0f b6 d0             	movzbl %al,%edx
   15f01:	8b 85 50 ea ff ff    	mov    -0x15b0(%rbp),%eax
   15f07:	39 c2                	cmp    %eax,%edx
   15f09:	0f 95 c0             	setne  %al
   15f0c:	0f b6 c0             	movzbl %al,%eax
   15f0f:	4c 89 e6             	mov    %r12,%rsi
   15f12:	48 89 c7             	mov    %rax,%rdi
   15f15:	e8 14 31 ff ff       	callq  902e <safe_add_func_uint64_t_u_u>
   15f1a:	48 0f be 95 b0 e0 ff 	movsbq -0x1f50(%rbp),%rdx
   15f21:	ff 
   15f22:	48 39 d0             	cmp    %rdx,%rax
   15f25:	0f 92 c0             	setb   %al
   15f28:	0f b6 d0             	movzbl %al,%edx
   15f2b:	0f be 85 c8 e0 ff ff 	movsbl -0x1f38(%rbp),%eax
   15f32:	89 d6                	mov    %edx,%esi
   15f34:	89 c7                	mov    %eax,%edi
   15f36:	e8 99 22 ff ff       	callq  81d4 <safe_add_func_int8_t_s_s>
   15f3b:	0f b6 c0             	movzbl %al,%eax
   15f3e:	be fd 00 00 00       	mov    $0xfd,%esi
   15f43:	89 c7                	mov    %eax,%edi
   15f45:	e8 10 2c ff ff       	callq  8b5a <safe_add_func_uint8_t_u_u>
   15f4a:	0f be c0             	movsbl %al,%eax
   15f4d:	89 de                	mov    %ebx,%esi
   15f4f:	89 c7                	mov    %eax,%edi
   15f51:	e8 df 23 ff ff       	callq  8335 <safe_rshift_func_int8_t_s_s>
   15f56:	48 8b 85 c8 e1 ff ff 	mov    -0x1e38(%rbp),%rax
   15f5d:	0f b6 00             	movzbl (%rax),%eax
   15f60:	8b 95 54 ea ff ff    	mov    -0x15ac(%rbp),%edx
   15f66:	21 c2                	and    %eax,%edx
   15f68:	48 8b 85 c8 e1 ff ff 	mov    -0x1e38(%rbp),%rax
   15f6f:	88 10                	mov    %dl,(%rax)
   15f71:	48 8b 85 c8 e1 ff ff 	mov    -0x1e38(%rbp),%rax
   15f78:	0f b6 00             	movzbl (%rax),%eax
   15f7b:	0f b6 d0             	movzbl %al,%edx
   15f7e:	48 8b 85 38 e1 ff ff 	mov    -0x1ec8(%rbp),%rax
   15f85:	48 8b 00             	mov    (%rax),%rax
   15f88:	48 8b 00             	mov    (%rax),%rax
   15f8b:	48 8b 00             	mov    (%rax),%rax
   15f8e:	8b 00                	mov    (%rax),%eax
   15f90:	89 c1                	mov    %eax,%ecx
   15f92:	48 8b 85 e0 e1 ff ff 	mov    -0x1e20(%rbp),%rax
   15f99:	88 08                	mov    %cl,(%rax)
   15f9b:	48 8b 85 e0 e1 ff ff 	mov    -0x1e20(%rbp),%rax
   15fa2:	0f b6 00             	movzbl (%rax),%eax
   15fa5:	0f be c8             	movsbl %al,%ecx
   15fa8:	48 8b 85 70 e1 ff ff 	mov    -0x1e90(%rbp),%rax
   15faf:	48 3b 85 c8 e1 ff ff 	cmp    -0x1e38(%rbp),%rax
   15fb6:	0f 94 c0             	sete   %al
   15fb9:	0f b6 c0             	movzbl %al,%eax
   15fbc:	39 c1                	cmp    %eax,%ecx
   15fbe:	0f 9e c0             	setle  %al
   15fc1:	0f b6 c0             	movzbl %al,%eax
   15fc4:	39 c2                	cmp    %eax,%edx
   15fc6:	74 1f                	je     15fe7 <func_43+0x1555>
   15fc8:	48 8b 05 91 b4 00 00 	mov    0xb491(%rip),%rax        # 21460 <g_67>
   15fcf:	48 8b 00             	mov    (%rax),%rax
   15fd2:	48 8b 00             	mov    (%rax),%rax
   15fd5:	48 8b 00             	mov    (%rax),%rax
   15fd8:	8b 00                	mov    (%rax),%eax
   15fda:	85 c0                	test   %eax,%eax
   15fdc:	0f 84 5e 02 00 00    	je     16240 <func_43+0x17ae>
   15fe2:	e9 37 03 00 00       	jmpq   1631e <func_43+0x188c>
   15fe7:	48 8d 85 50 f8 ff ff 	lea    -0x7b0(%rbp),%rax
   15fee:	48 8d 15 0b 59 00 00 	lea    0x590b(%rip),%rdx        # 1b900 <g_1219+0x17f0>
   15ff5:	b9 36 00 00 00       	mov    $0x36,%ecx
   15ffa:	48 89 c7             	mov    %rax,%rdi
   15ffd:	48 89 d6             	mov    %rdx,%rsi
   16000:	f3 48 a5             	rep movsq %ds:(%rsi),%es:(%rdi)
   16003:	48 b8 55 0a 95 1a d6 	movabs $0x90806ad61a950a55,%rax
   1600a:	6a 80 90 
   1600d:	48 89 85 f8 e1 ff ff 	mov    %rax,-0x1e08(%rbp)
   16014:	c7 05 5a 90 00 00 00 	movl   $0x0,0x905a(%rip)        # 1f078 <g_121+0x8>
   1601b:	00 00 00 
   1601e:	e9 e0 01 00 00       	jmpq   16203 <func_43+0x1771>
   16023:	48 8d 05 4e 91 00 00 	lea    0x914e(%rip),%rax        # 1f178 <g_183+0xb8>
   1602a:	48 89 85 00 e2 ff ff 	mov    %rax,-0x1e00(%rbp)
   16031:	48 c7 85 08 e2 ff ff 	movq   $0x0,-0x1df8(%rbp)
   16038:	00 00 00 00 
   1603c:	48 c7 85 10 e2 ff ff 	movq   $0x0,-0x1df0(%rbp)
   16043:	00 00 00 00 
   16047:	48 8d 05 62 91 00 00 	lea    0x9162(%rip),%rax        # 1f1b0 <g_200>
   1604e:	48 89 85 18 e2 ff ff 	mov    %rax,-0x1de8(%rbp)
   16055:	c7 85 e0 e0 ff ff 00 	movl   $0x0,-0x1f20(%rbp)
   1605c:	00 00 00 
   1605f:	eb 1b                	jmp    1607c <func_43+0x15ea>
   16061:	8b 85 e0 e0 ff ff    	mov    -0x1f20(%rbp),%eax
   16067:	48 98                	cltq   
   16069:	48 c7 84 c5 38 e2 ff 	movq   $0x0,-0x1dc8(%rbp,%rax,8)
   16070:	ff 00 00 00 00 
   16075:	83 85 e0 e0 ff ff 01 	addl   $0x1,-0x1f20(%rbp)
   1607c:	83 bd e0 e0 ff ff 00 	cmpl   $0x0,-0x1f20(%rbp)
   16083:	7e dc                	jle    16061 <func_43+0x15cf>
   16085:	48 8b 85 f0 e1 ff ff 	mov    -0x1e10(%rbp),%rax
   1608c:	48 89 05 0d b4 00 00 	mov    %rax,0xb40d(%rip)        # 214a0 <g_182>
   16093:	80 bd b0 e0 ff ff 00 	cmpb   $0x0,-0x1f50(%rbp)
   1609a:	0f 85 53 01 00 00    	jne    161f3 <func_43+0x1761>
   160a0:	8b 85 a0 f9 ff ff    	mov    -0x660(%rbp),%eax
   160a6:	83 c0 01             	add    $0x1,%eax
   160a9:	89 85 a0 f9 ff ff    	mov    %eax,-0x660(%rbp)
   160af:	48 8b 05 7a 8f 00 00 	mov    0x8f7a(%rip),%rax        # 1f030 <g_39>
   160b6:	0f bf d8             	movswl %ax,%ebx
   160b9:	48 8b 05 b0 b3 00 00 	mov    0xb3b0(%rip),%rax        # 21470 <g_82>
   160c0:	48 8b 00             	mov    (%rax),%rax
   160c3:	0f b7 00             	movzwl (%rax),%eax
   160c6:	44 0f be ad b0 e0 ff 	movsbl -0x1f50(%rbp),%r13d
   160cd:	ff 
   160ce:	44 0f be a5 b0 e0 ff 	movsbl -0x1f50(%rbp),%r12d
   160d5:	ff 
   160d6:	48 8b 05 e3 b3 00 00 	mov    0xb3e3(%rip),%rax        # 214c0 <g_204>
   160dd:	48 89 05 dc b3 00 00 	mov    %rax,0xb3dc(%rip)        # 214c0 <g_204>
   160e4:	48 8b 05 d5 b3 00 00 	mov    0xb3d5(%rip),%rax        # 214c0 <g_204>
   160eb:	48 39 85 80 e1 ff ff 	cmp    %rax,-0x1e80(%rbp)
   160f2:	75 0a                	jne    160fe <func_43+0x166c>
   160f4:	48 83 bd f8 e1 ff ff 	cmpq   $0x0,-0x1e08(%rbp)
   160fb:	00 
   160fc:	74 07                	je     16105 <func_43+0x1673>
   160fe:	b8 01 00 00 00       	mov    $0x1,%eax
   16103:	eb 05                	jmp    1610a <func_43+0x1678>
   16105:	b8 00 00 00 00       	mov    $0x0,%eax
   1610a:	0f b6 c0             	movzbl %al,%eax
   1610d:	be 03 00 00 00       	mov    $0x3,%esi
   16112:	89 c7                	mov    %eax,%edi
   16114:	e8 74 2b ff ff       	callq  8c8d <safe_rshift_func_uint8_t_u_s>
   16119:	0f be 95 b0 e0 ff ff 	movsbl -0x1f50(%rbp),%edx
   16120:	48 8b 85 18 e2 ff ff 	mov    -0x1de8(%rbp),%rax
   16127:	8b 08                	mov    (%rax),%ecx
   16129:	0f bf 85 b4 e0 ff ff 	movswl -0x1f4c(%rbp),%eax
   16130:	21 c1                	and    %eax,%ecx
   16132:	48 8b 85 18 e2 ff ff 	mov    -0x1de8(%rbp),%rax
   16139:	89 08                	mov    %ecx,(%rax)
   1613b:	48 8b 85 18 e2 ff ff 	mov    -0x1de8(%rbp),%rax
   16142:	8b 08                	mov    (%rax),%ecx
   16144:	0f be 85 b0 e0 ff ff 	movsbl -0x1f50(%rbp),%eax
   1614b:	39 c1                	cmp    %eax,%ecx
   1614d:	0f 93 c0             	setae  %al
   16150:	0f b6 c0             	movzbl %al,%eax
   16153:	89 d6                	mov    %edx,%esi
   16155:	89 c7                	mov    %eax,%edi
   16157:	e8 92 21 ff ff       	callq  82ee <safe_lshift_func_int8_t_s_u>
   1615c:	0f be c0             	movsbl %al,%eax
   1615f:	89 85 00 e1 ff ff    	mov    %eax,-0x1f00(%rbp)
   16165:	8b 05 cd 8e 00 00    	mov    0x8ecd(%rip),%eax        # 1f038 <g_62>
   1616b:	0f b6 c0             	movzbl %al,%eax
   1616e:	44 89 e6             	mov    %r12d,%esi
   16171:	89 c7                	mov    %eax,%edi
   16173:	e8 15 2b ff ff       	callq  8c8d <safe_rshift_func_uint8_t_u_s>
   16178:	0f b6 c0             	movzbl %al,%eax
   1617b:	44 21 e8             	and    %r13d,%eax
   1617e:	85 c0                	test   %eax,%eax
   16180:	74 07                	je     16189 <func_43+0x16f7>
   16182:	80 bd b0 e0 ff ff 00 	cmpb   $0x0,-0x1f50(%rbp)
   16189:	0f bf 95 b4 e0 ff ff 	movswl -0x1f4c(%rbp),%edx
   16190:	48 8b 85 78 e1 ff ff 	mov    -0x1e88(%rbp),%rax
   16197:	8b 00                	mov    (%rax),%eax
   16199:	39 c2                	cmp    %eax,%edx
   1619b:	75 08                	jne    161a5 <func_43+0x1713>
   1619d:	66 83 bd d2 e0 ff ff 	cmpw   $0x0,-0x1f2e(%rbp)
   161a4:	00 
   161a5:	0f bf 85 b4 e0 ff ff 	movswl -0x1f4c(%rbp),%eax
   161ac:	be 61 39 00 00       	mov    $0x3961,%esi
   161b1:	89 c7                	mov    %eax,%edi
   161b3:	e8 3d 22 ff ff       	callq  83f5 <safe_mul_func_int16_t_s_s>
   161b8:	98                   	cwtl   
   161b9:	89 de                	mov    %ebx,%esi
   161bb:	89 c7                	mov    %eax,%edi
   161bd:	e8 54 22 ff ff       	callq  8416 <safe_mod_func_int16_t_s_s>
   161c2:	66 85 c0             	test   %ax,%ax
   161c5:	75 0a                	jne    161d1 <func_43+0x173f>
   161c7:	66 83 bd b4 e0 ff ff 	cmpw   $0x0,-0x1f4c(%rbp)
   161ce:	00 
   161cf:	74 07                	je     161d8 <func_43+0x1746>
   161d1:	b9 01 00 00 00       	mov    $0x1,%ecx
   161d6:	eb 05                	jmp    161dd <func_43+0x174b>
   161d8:	b9 00 00 00 00       	mov    $0x0,%ecx
   161dd:	48 8b 85 48 e1 ff ff 	mov    -0x1eb8(%rbp),%rax
   161e4:	8b 10                	mov    (%rax),%edx
   161e6:	48 8b 85 48 e1 ff ff 	mov    -0x1eb8(%rbp),%rax
   161ed:	09 ca                	or     %ecx,%edx
   161ef:	89 10                	mov    %edx,(%rax)
   161f1:	eb 01                	jmp    161f4 <func_43+0x1762>
   161f3:	90                   	nop
   161f4:	8b 05 7e 8e 00 00    	mov    0x8e7e(%rip),%eax        # 1f078 <g_121+0x8>
   161fa:	83 c0 01             	add    $0x1,%eax
   161fd:	89 05 75 8e 00 00    	mov    %eax,0x8e75(%rip)        # 1f078 <g_121+0x8>
   16203:	8b 05 6f 8e 00 00    	mov    0x8e6f(%rip),%eax        # 1f078 <g_121+0x8>
   16209:	83 f8 01             	cmp    $0x1,%eax
   1620c:	0f 86 11 fe ff ff    	jbe    16023 <func_43+0x1591>
   16212:	8b 85 f4 f8 ff ff    	mov    -0x70c(%rbp),%eax
   16218:	85 c0                	test   %eax,%eax
   1621a:	0f 85 ce 00 00 00    	jne    162ee <func_43+0x185c>
   16220:	48 8b 85 38 e1 ff ff 	mov    -0x1ec8(%rbp),%rax
   16227:	48 8b 00             	mov    (%rax),%rax
   1622a:	48 8b 10             	mov    (%rax),%rdx
   1622d:	48 8b 85 d0 e1 ff ff 	mov    -0x1e30(%rbp),%rax
   16234:	48 8b 00             	mov    (%rax),%rax
   16237:	48 8b 00             	mov    (%rax),%rax
   1623a:	48 8b 12             	mov    (%rdx),%rdx
   1623d:	48 89 10             	mov    %rdx,(%rax)
   16240:	8b 05 3a 67 00 00    	mov    0x673a(%rip),%eax        # 1c980 <l_219.5064>
   16246:	89 c7                	mov    %eax,%edi
   16248:	0f b7 05 11 8e 00 00 	movzwl 0x8e11(%rip),%eax        # 1f060 <g_77>
   1624f:	0f bf c8             	movswl %ax,%ecx
   16252:	0f b7 05 2b 8e 00 00 	movzwl 0x8e2b(%rip),%eax        # 1f084 <g_121+0x14>
   16259:	66 25 ff 1f          	and    $0x1fff,%ax
   1625d:	0f b7 f0             	movzwl %ax,%esi
   16260:	48 8b 05 f1 b1 00 00 	mov    0xb1f1(%rip),%rax        # 21458 <g_68>
   16267:	48 8b 00             	mov    (%rax),%rax
   1626a:	48 8b 00             	mov    (%rax),%rax
   1626d:	0f be 95 b0 e0 ff ff 	movsbl -0x1f50(%rbp),%edx
   16274:	89 10                	mov    %edx,(%rax)
   16276:	8b 10                	mov    (%rax),%edx
   16278:	0f bf 85 d2 e0 ff ff 	movswl -0x1f2e(%rbp),%eax
   1627f:	09 c2                	or     %eax,%edx
   16281:	0f b7 05 f0 8e 00 00 	movzwl 0x8ef0(%rip),%eax        # 1f178 <g_183+0xb8>
   16288:	0f b7 c0             	movzwl %ax,%eax
   1628b:	31 d0                	xor    %edx,%eax
   1628d:	39 c6                	cmp    %eax,%esi
   1628f:	0f 9f c0             	setg   %al
   16292:	0f b6 c0             	movzbl %al,%eax
   16295:	39 c1                	cmp    %eax,%ecx
   16297:	0f 94 c0             	sete   %al
   1629a:	0f b6 c0             	movzbl %al,%eax
   1629d:	89 fe                	mov    %edi,%esi
   1629f:	89 c7                	mov    %eax,%edi
   162a1:	e8 12 2c ff ff       	callq  8eb8 <safe_add_func_uint32_t_u_u>
   162a6:	8b 15 cc 8d 00 00    	mov    0x8dcc(%rip),%edx        # 1f078 <g_121+0x8>
   162ac:	39 d0                	cmp    %edx,%eax
   162ae:	0f 94 c0             	sete   %al
   162b1:	0f b6 d0             	movzbl %al,%edx
   162b4:	8b 85 04 e1 ff ff    	mov    -0x1efc(%rbp),%eax
   162ba:	0f b6 c0             	movzbl %al,%eax
   162bd:	89 d6                	mov    %edx,%esi
   162bf:	89 c7                	mov    %eax,%edi
   162c1:	e8 cd 28 ff ff       	callq  8b93 <safe_mul_func_uint8_t_u_u>
   162c6:	89 c2                	mov    %eax,%edx
   162c8:	8b 05 82 8d 00 00    	mov    0x8d82(%rip),%eax        # 1f050 <g_70>
   162ce:	09 d0                	or     %edx,%eax
   162d0:	0f b6 c0             	movzbl %al,%eax
   162d3:	be 06 00 00 00       	mov    $0x6,%esi
   162d8:	89 c7                	mov    %eax,%edi
   162da:	e8 df 29 ff ff       	callq  8cbe <safe_rshift_func_uint8_t_u_u>
   162df:	30 85 cb e0 ff ff    	xor    %al,-0x1f35(%rbp)
   162e5:	80 bd b0 e0 ff ff 00 	cmpb   $0x0,-0x1f50(%rbp)
   162ec:	75 2f                	jne    1631d <func_43+0x188b>
   162ee:	48 8b 05 3b 8d 00 00 	mov    0x8d3b(%rip),%rax        # 1f030 <g_39>
   162f5:	be 06 00 00 00       	mov    $0x6,%esi
   162fa:	89 c7                	mov    %eax,%edi
   162fc:	e8 b5 22 ff ff       	callq  85b6 <safe_add_func_int32_t_s_s>
   16301:	48 98                	cltq   
   16303:	48 89 05 26 8d 00 00 	mov    %rax,0x8d26(%rip)        # 1f030 <g_39>
   1630a:	48 8b 05 1f 8d 00 00 	mov    0x8d1f(%rip),%rax        # 1f030 <g_39>
   16311:	48 83 f8 10          	cmp    $0x10,%rax
   16315:	0f 8e c9 fa ff ff    	jle    15de4 <func_43+0x1352>
   1631b:	eb 01                	jmp    1631e <func_43+0x188c>
   1631d:	90                   	nop
   1631e:	0f bf 85 b4 e0 ff ff 	movswl -0x1f4c(%rbp),%eax
   16325:	be 05 00 00 00       	mov    $0x5,%esi
   1632a:	89 c7                	mov    %eax,%edi
   1632c:	e8 87 2b ff ff       	callq  8eb8 <safe_add_func_uint32_t_u_u>
   16331:	66 89 85 b4 e0 ff ff 	mov    %ax,-0x1f4c(%rbp)
   16338:	66 83 bd b4 e0 ff ff 	cmpw   $0x0,-0x1f4c(%rbp)
   1633f:	00 
   16340:	0f 85 3f f8 ff ff    	jne    15b85 <func_43+0x10f3>
   16346:	48 8b 05 fb b0 00 00 	mov    0xb0fb(%rip),%rax        # 21448 <g_60>
   1634d:	48 8b 00             	mov    (%rax),%rax
   16350:	8b 00                	mov    (%rax),%eax
   16352:	85 c0                	test   %eax,%eax
   16354:	0f 85 d4 12 00 00    	jne    1762e <func_43+0x2b9c>
   1635a:	48 8b 85 78 e1 ff ff 	mov    -0x1e88(%rbp),%rax
   16361:	8b 00                	mov    (%rax),%eax
   16363:	0f be c0             	movsbl %al,%eax
   16366:	be 04 00 00 00       	mov    $0x4,%esi
   1636b:	89 c7                	mov    %eax,%edi
   1636d:	e8 c3 1f ff ff       	callq  8335 <safe_rshift_func_int8_t_s_s>
   16372:	48 8b 85 b8 e0 ff ff 	mov    -0x1f48(%rbp),%rax
   16379:	48 8b 18             	mov    (%rax),%rbx
   1637c:	0f bf 95 b4 e0 ff ff 	movswl -0x1f4c(%rbp),%edx
   16383:	48 8d 85 38 e1 ff ff 	lea    -0x1ec8(%rbp),%rax
   1638a:	48 89 85 60 e2 ff ff 	mov    %rax,-0x1da0(%rbp)
   16391:	48 8b 85 60 e2 ff ff 	mov    -0x1da0(%rbp),%rax
   16398:	48 39 85 80 e1 ff ff 	cmp    %rax,-0x1e80(%rbp)
   1639f:	0f 95 c0             	setne  %al
   163a2:	0f b6 c0             	movzbl %al,%eax
   163a5:	39 c2                	cmp    %eax,%edx
   163a7:	0f 9e c0             	setle  %al
   163aa:	44 0f b6 e0          	movzbl %al,%r12d
   163ae:	48 8b 85 90 e1 ff ff 	mov    -0x1e70(%rbp),%rax
   163b5:	48 8d 15 a8 8c 00 00 	lea    0x8ca8(%rip),%rdx        # 1f064 <g_90>
   163bc:	48 89 10             	mov    %rdx,(%rax)
   163bf:	48 8b 85 90 e1 ff ff 	mov    -0x1e70(%rbp),%rax
   163c6:	48 8b 00             	mov    (%rax),%rax
   163c9:	48 8d 15 94 8c 00 00 	lea    0x8c94(%rip),%rdx        # 1f064 <g_90>
   163d0:	48 39 d0             	cmp    %rdx,%rax
   163d3:	0f 95 c0             	setne  %al
   163d6:	0f b6 c0             	movzbl %al,%eax
   163d9:	89 c6                	mov    %eax,%esi
   163db:	bf 06 00 00 00       	mov    $0x6,%edi
   163e0:	e8 0d 1e ff ff       	callq  81f2 <safe_sub_func_int8_t_s_s>
   163e5:	be 07 00 00 00       	mov    $0x7,%esi
   163ea:	bf 00 00 00 00       	mov    $0x0,%edi
   163ef:	e8 9e 20 ff ff       	callq  8492 <safe_lshift_func_int16_t_s_s>
   163f4:	66 85 c0             	test   %ax,%ax
   163f7:	74 27                	je     16420 <func_43+0x198e>
   163f9:	0f b7 95 b4 e0 ff ff 	movzwl -0x1f4c(%rbp),%edx
   16400:	48 8b 85 98 e1 ff ff 	mov    -0x1e68(%rbp),%rax
   16407:	66 89 10             	mov    %dx,(%rax)
   1640a:	48 8b 85 98 e1 ff ff 	mov    -0x1e68(%rbp),%rax
   16411:	0f b7 00             	movzwl (%rax),%eax
   16414:	66 85 c0             	test   %ax,%ax
   16417:	74 07                	je     16420 <func_43+0x198e>
   16419:	ba 01 00 00 00       	mov    $0x1,%edx
   1641e:	eb 05                	jmp    16425 <func_43+0x1993>
   16420:	ba 00 00 00 00       	mov    $0x0,%edx
   16425:	48 8b 05 8c b0 00 00 	mov    0xb08c(%rip),%rax        # 214b8 <g_205>
   1642c:	48 8b 00             	mov    (%rax),%rax
   1642f:	48 8b 00             	mov    (%rax),%rax
   16432:	48 8b 00             	mov    (%rax),%rax
   16435:	89 10                	mov    %edx,(%rax)
   16437:	8b 00                	mov    (%rax),%eax
   16439:	83 c8 01             	or     $0x1,%eax
   1643c:	41 39 c4             	cmp    %eax,%r12d
   1643f:	0f 97 c0             	seta   %al
   16442:	0f b6 c0             	movzbl %al,%eax
   16445:	48 89 de             	mov    %rbx,%rsi
   16448:	48 89 c7             	mov    %rax,%rdi
   1644b:	e8 a7 25 ff ff       	callq  89f7 <safe_div_func_int64_t_s_s>
   16450:	0f b7 15 47 8c 00 00 	movzwl 0x8c47(%rip),%edx        # 1f09e <g_140+0xe>
   16457:	0f b7 d2             	movzwl %dx,%edx
   1645a:	48 21 d0             	and    %rdx,%rax
   1645d:	48 85 c0             	test   %rax,%rax
   16460:	0f 84 4f 01 00 00    	je     165b5 <func_43+0x1b23>
   16466:	c7 85 fc e0 ff ff 07 	movl   $0x7,-0x1f04(%rbp)
   1646d:	00 00 00 
   16470:	48 c7 85 50 e1 ff ff 	movq   $0x0,-0x1eb0(%rbp)
   16477:	00 00 00 00 
   1647b:	48 c7 85 50 f1 ff ff 	movq   $0x0,-0xeb0(%rbp)
   16482:	00 00 00 00 
   16486:	48 8d 85 50 e1 ff ff 	lea    -0x1eb0(%rbp),%rax
   1648d:	48 89 85 58 f1 ff ff 	mov    %rax,-0xea8(%rbp)
   16494:	48 c7 85 60 f1 ff ff 	movq   $0x0,-0xea0(%rbp)
   1649b:	00 00 00 00 
   1649f:	48 8d 85 50 e1 ff ff 	lea    -0x1eb0(%rbp),%rax
   164a6:	48 89 85 68 f1 ff ff 	mov    %rax,-0xe98(%rbp)
   164ad:	48 c7 85 70 f1 ff ff 	movq   $0x0,-0xe90(%rbp)
   164b4:	00 00 00 00 
   164b8:	48 8d 85 50 e1 ff ff 	lea    -0x1eb0(%rbp),%rax
   164bf:	48 89 85 78 f1 ff ff 	mov    %rax,-0xe88(%rbp)
   164c6:	48 c7 85 80 f1 ff ff 	movq   $0x0,-0xe80(%rbp)
   164cd:	00 00 00 00 
   164d1:	48 8d 85 50 e1 ff ff 	lea    -0x1eb0(%rbp),%rax
   164d8:	48 89 85 88 f1 ff ff 	mov    %rax,-0xe78(%rbp)
   164df:	48 c7 85 40 e1 ff ff 	movq   $0x2,-0x1ec0(%rbp)
   164e6:	02 00 00 00 
   164ea:	90                   	nop
   164eb:	48 8b 85 40 e1 ff ff 	mov    -0x1ec0(%rbp),%rax
   164f2:	48 83 f8 08          	cmp    $0x8,%rax
   164f6:	77 0c                	ja     16504 <func_43+0x1a72>
   164f8:	0f b7 85 b4 e0 ff ff 	movzwl -0x1f4c(%rbp),%eax
   164ff:	e9 4f 11 00 00       	jmpq   17653 <func_43+0x2bc1>
   16504:	0f b7 05 6d 8c 00 00 	movzwl 0x8c6d(%rip),%eax        # 1f178 <g_183+0xb8>
   1650b:	0f b7 c0             	movzwl %ax,%eax
   1650e:	be 00 00 00 00       	mov    $0x0,%esi
   16513:	89 c7                	mov    %eax,%edi
   16515:	e8 60 29 ff ff       	callq  8e7a <safe_rshift_func_uint16_t_u_u>
   1651a:	66 89 85 b4 e0 ff ff 	mov    %ax,-0x1f4c(%rbp)
   16521:	0f b6 05 3c 8b 00 00 	movzbl 0x8b3c(%rip),%eax        # 1f064 <g_90>
   16528:	84 c0                	test   %al,%al
   1652a:	0f b7 85 cc e0 ff ff 	movzwl -0x1f34(%rbp),%eax
   16531:	0f b7 d0             	movzwl %ax,%edx
   16534:	0f b7 05 25 8b 00 00 	movzwl 0x8b25(%rip),%eax        # 1f060 <g_77>
   1653b:	0f b7 c0             	movzwl %ax,%eax
   1653e:	89 d6                	mov    %edx,%esi
   16540:	89 c7                	mov    %eax,%edi
   16542:	e8 47 28 ff ff       	callq  8d8e <safe_div_func_uint16_t_u_u>
   16547:	0f b7 d0             	movzwl %ax,%edx
   1654a:	0f b7 05 2d 8b 00 00 	movzwl 0x8b2d(%rip),%eax        # 1f07e <g_121+0xe>
   16551:	0f b7 c8             	movzwl %ax,%ecx
   16554:	8b 05 de 8a 00 00    	mov    0x8ade(%rip),%eax        # 1f038 <g_62>
   1655a:	39 c1                	cmp    %eax,%ecx
   1655c:	0f 9d c0             	setge  %al
   1655f:	0f b6 c8             	movzbl %al,%ecx
   16562:	48 8b 85 38 e1 ff ff 	mov    -0x1ec8(%rbp),%rax
   16569:	48 8b 00             	mov    (%rax),%rax
   1656c:	48 8b 00             	mov    (%rax),%rax
   1656f:	48 8b 00             	mov    (%rax),%rax
   16572:	8b 00                	mov    (%rax),%eax
   16574:	39 c1                	cmp    %eax,%ecx
   16576:	0f 9f c0             	setg   %al
   16579:	0f b6 c0             	movzbl %al,%eax
   1657c:	39 c2                	cmp    %eax,%edx
   1657e:	7f 0b                	jg     1658b <func_43+0x1af9>
   16580:	8b 05 22 8b 00 00    	mov    0x8b22(%rip),%eax        # 1f0a8 <g_147>
   16586:	e9 c8 10 00 00       	jmpq   17653 <func_43+0x2bc1>
   1658b:	48 8d 95 50 f8 ff ff 	lea    -0x7b0(%rbp),%rdx
   16592:	b8 00 00 00 00       	mov    $0x0,%eax
   16597:	b9 1e 00 00 00       	mov    $0x1e,%ecx
   1659c:	48 89 d7             	mov    %rdx,%rdi
   1659f:	f3 48 ab             	rep stos %rax,%es:(%rdi)
   165a2:	48 8b 85 90 f8 ff ff 	mov    -0x770(%rbp),%rax
   165a9:	48 89 85 50 f1 ff ff 	mov    %rax,-0xeb0(%rbp)
   165b0:	e9 7a 10 00 00       	jmpq   1762f <func_43+0x2b9d>
   165b5:	48 c7 85 a0 e1 ff ff 	movq   $0x0,-0x1e60(%rbp)
   165bc:	00 00 00 00 
   165c0:	48 8d 05 d9 ae 00 00 	lea    0xaed9(%rip),%rax        # 214a0 <g_182>
   165c7:	48 89 85 a8 e1 ff ff 	mov    %rax,-0x1e58(%rbp)
   165ce:	48 b8 d4 2b aa 3d d2 	movabs $0x7a093d23daa2bd4,%rax
   165d5:	93 a0 07 
   165d8:	48 89 85 58 e1 ff ff 	mov    %rax,-0x1ea8(%rbp)
   165df:	48 8d 85 30 e1 ff ff 	lea    -0x1ed0(%rbp),%rax
   165e6:	48 89 85 60 e1 ff ff 	mov    %rax,-0x1ea0(%rbp)
   165ed:	0f be 9d b0 e0 ff ff 	movsbl -0x1f50(%rbp),%ebx
   165f4:	48 8b 85 78 e1 ff ff 	mov    -0x1e88(%rbp),%rax
   165fb:	8b 00                	mov    (%rax),%eax
   165fd:	89 c6                	mov    %eax,%esi
   165ff:	bf 01 00 00 00       	mov    $0x1,%edi
   16604:	e8 f6 20 ff ff       	callq  86ff <safe_div_func_int32_t_s_s>
   16609:	89 de                	mov    %ebx,%esi
   1660b:	89 c7                	mov    %eax,%edi
   1660d:	e8 a4 1f ff ff       	callq  85b6 <safe_add_func_int32_t_s_s>
   16612:	0f b7 15 6b 8a 00 00 	movzwl 0x8a6b(%rip),%edx        # 1f084 <g_121+0x14>
   16619:	66 81 e2 ff 1f       	and    $0x1fff,%dx
   1661e:	0f b7 d2             	movzwl %dx,%edx
   16621:	09 d0                	or     %edx,%eax
   16623:	09 85 d8 e0 ff ff    	or     %eax,-0x1f28(%rbp)
   16629:	48 8b 15 18 ae 00 00 	mov    0xae18(%rip),%rdx        # 21448 <g_60>
   16630:	48 8b 85 38 e1 ff ff 	mov    -0x1ec8(%rbp),%rax
   16637:	48 8b 00             	mov    (%rax),%rax
   1663a:	48 8b 00             	mov    (%rax),%rax
   1663d:	48 8b 12             	mov    (%rdx),%rdx
   16640:	48 89 10             	mov    %rdx,(%rax)
   16643:	48 8b 00             	mov    (%rax),%rax
   16646:	48 89 85 a0 e1 ff ff 	mov    %rax,-0x1e60(%rbp)
   1664d:	66 c7 85 b4 e0 ff ff 	movw   $0x12,-0x1f4c(%rbp)
   16654:	12 00 
   16656:	e9 b1 0b 00 00       	jmpq   1720c <func_43+0x277a>
   1665b:	66 c7 85 ce e0 ff ff 	movw   $0x1,-0x1f32(%rbp)
   16662:	01 00 
   16664:	48 8d 05 d1 89 00 00 	lea    0x89d1(%rip),%rax        # 1f03c <g_62+0x4>
   1666b:	48 89 85 b0 e1 ff ff 	mov    %rax,-0x1e50(%rbp)
   16672:	48 8d 85 50 ea ff ff 	lea    -0x15b0(%rbp),%rax
   16679:	48 8d 15 c0 a6 00 00 	lea    0xa6c0(%rip),%rdx        # 20d40 <g_2403+0x1558>
   16680:	b9 e0 00 00 00       	mov    $0xe0,%ecx
   16685:	48 89 c7             	mov    %rax,%rdi
   16688:	48 89 d6             	mov    %rdx,%rsi
   1668b:	f3 48 a5             	rep movsq %ds:(%rsi),%es:(%rdi)
   1668e:	48 8d 85 50 ea ff ff 	lea    -0x15b0(%rbp),%rax
   16695:	48 05 90 05 00 00    	add    $0x590,%rax
   1669b:	48 89 85 b8 e1 ff ff 	mov    %rax,-0x1e48(%rbp)
   166a2:	48 8d 85 50 f8 ff ff 	lea    -0x7b0(%rbp),%rax
   166a9:	48 8d 15 10 54 00 00 	lea    0x5410(%rip),%rdx        # 1bac0 <g_1219+0x19b0>
   166b0:	b9 f0 00 00 00       	mov    $0xf0,%ecx
   166b5:	48 89 c7             	mov    %rax,%rdi
   166b8:	48 89 d6             	mov    %rdx,%rsi
   166bb:	f3 48 a5             	rep movsq %ds:(%rsi),%es:(%rdi)
   166be:	c7 85 f4 e0 ff ff f0 	movl   $0x73083cf0,-0x1f0c(%rbp)
   166c5:	3c 08 73 
   166c8:	48 c7 85 50 f1 ff ff 	movq   $0x0,-0xeb0(%rbp)
   166cf:	00 00 00 00 
   166d3:	48 8d 85 28 e1 ff ff 	lea    -0x1ed8(%rbp),%rax
   166da:	48 89 85 58 f1 ff ff 	mov    %rax,-0xea8(%rbp)
   166e1:	48 8d 85 28 e1 ff ff 	lea    -0x1ed8(%rbp),%rax
   166e8:	48 89 85 60 f1 ff ff 	mov    %rax,-0xea0(%rbp)
   166ef:	48 c7 85 68 f1 ff ff 	movq   $0x0,-0xe98(%rbp)
   166f6:	00 00 00 00 
   166fa:	48 c7 85 70 f1 ff ff 	movq   $0x0,-0xe90(%rbp)
   16701:	00 00 00 00 
   16705:	48 8d 85 28 e1 ff ff 	lea    -0x1ed8(%rbp),%rax
   1670c:	48 89 85 78 f1 ff ff 	mov    %rax,-0xe88(%rbp)
   16713:	48 c7 85 80 f1 ff ff 	movq   $0x0,-0xe80(%rbp)
   1671a:	00 00 00 00 
   1671e:	48 8d 85 28 e1 ff ff 	lea    -0x1ed8(%rbp),%rax
   16725:	48 89 85 88 f1 ff ff 	mov    %rax,-0xe78(%rbp)
   1672c:	48 c7 85 90 f1 ff ff 	movq   $0x0,-0xe70(%rbp)
   16733:	00 00 00 00 
   16737:	48 c7 85 98 f1 ff ff 	movq   $0x0,-0xe68(%rbp)
   1673e:	00 00 00 00 
   16742:	48 8d 85 28 e1 ff ff 	lea    -0x1ed8(%rbp),%rax
   16749:	48 89 85 a0 f1 ff ff 	mov    %rax,-0xe60(%rbp)
   16750:	48 8d 85 28 e1 ff ff 	lea    -0x1ed8(%rbp),%rax
   16757:	48 89 85 a8 f1 ff ff 	mov    %rax,-0xe58(%rbp)
   1675e:	48 c7 85 b0 f1 ff ff 	movq   $0x0,-0xe50(%rbp)
   16765:	00 00 00 00 
   16769:	48 8d 85 28 e1 ff ff 	lea    -0x1ed8(%rbp),%rax
   16770:	48 89 85 b8 f1 ff ff 	mov    %rax,-0xe48(%rbp)
   16777:	48 c7 85 c0 f1 ff ff 	movq   $0x0,-0xe40(%rbp)
   1677e:	00 00 00 00 
   16782:	48 8d 85 28 e1 ff ff 	lea    -0x1ed8(%rbp),%rax
   16789:	48 89 85 c8 f1 ff ff 	mov    %rax,-0xe38(%rbp)
   16790:	48 c7 85 d0 f1 ff ff 	movq   $0x0,-0xe30(%rbp)
   16797:	00 00 00 00 
   1679b:	48 8d 85 28 e1 ff ff 	lea    -0x1ed8(%rbp),%rax
   167a2:	48 89 85 d8 f1 ff ff 	mov    %rax,-0xe28(%rbp)
   167a9:	48 8d 85 28 e1 ff ff 	lea    -0x1ed8(%rbp),%rax
   167b0:	48 89 85 e0 f1 ff ff 	mov    %rax,-0xe20(%rbp)
   167b7:	48 c7 85 e8 f1 ff ff 	movq   $0x0,-0xe18(%rbp)
   167be:	00 00 00 00 
   167c2:	48 c7 85 f0 f1 ff ff 	movq   $0x0,-0xe10(%rbp)
   167c9:	00 00 00 00 
   167cd:	48 8d 85 28 e1 ff ff 	lea    -0x1ed8(%rbp),%rax
   167d4:	48 89 85 f8 f1 ff ff 	mov    %rax,-0xe08(%rbp)
   167db:	48 c7 85 00 f2 ff ff 	movq   $0x0,-0xe00(%rbp)
   167e2:	00 00 00 00 
   167e6:	48 8d 85 28 e1 ff ff 	lea    -0x1ed8(%rbp),%rax
   167ed:	48 89 85 08 f2 ff ff 	mov    %rax,-0xdf8(%rbp)
   167f4:	48 c7 85 10 f2 ff ff 	movq   $0x0,-0xdf0(%rbp)
   167fb:	00 00 00 00 
   167ff:	48 c7 85 18 f2 ff ff 	movq   $0x0,-0xde8(%rbp)
   16806:	00 00 00 00 
   1680a:	48 8d 85 28 e1 ff ff 	lea    -0x1ed8(%rbp),%rax
   16811:	48 89 85 20 f2 ff ff 	mov    %rax,-0xde0(%rbp)
   16818:	48 8d 85 28 e1 ff ff 	lea    -0x1ed8(%rbp),%rax
   1681f:	48 89 85 28 f2 ff ff 	mov    %rax,-0xdd8(%rbp)
   16826:	48 c7 85 30 f2 ff ff 	movq   $0x0,-0xdd0(%rbp)
   1682d:	00 00 00 00 
   16831:	48 8d 85 28 e1 ff ff 	lea    -0x1ed8(%rbp),%rax
   16838:	48 89 85 38 f2 ff ff 	mov    %rax,-0xdc8(%rbp)
   1683f:	48 c7 85 40 f2 ff ff 	movq   $0x0,-0xdc0(%rbp)
   16846:	00 00 00 00 
   1684a:	48 8d 85 28 e1 ff ff 	lea    -0x1ed8(%rbp),%rax
   16851:	48 89 85 48 f2 ff ff 	mov    %rax,-0xdb8(%rbp)
   16858:	48 c7 85 50 f2 ff ff 	movq   $0x0,-0xdb0(%rbp)
   1685f:	00 00 00 00 
   16863:	48 8d 85 28 e1 ff ff 	lea    -0x1ed8(%rbp),%rax
   1686a:	48 89 85 58 f2 ff ff 	mov    %rax,-0xda8(%rbp)
   16871:	48 8d 85 28 e1 ff ff 	lea    -0x1ed8(%rbp),%rax
   16878:	48 89 85 60 f2 ff ff 	mov    %rax,-0xda0(%rbp)
   1687f:	48 c7 85 68 f2 ff ff 	movq   $0x0,-0xd98(%rbp)
   16886:	00 00 00 00 
   1688a:	48 c7 85 70 f2 ff ff 	movq   $0x0,-0xd90(%rbp)
   16891:	00 00 00 00 
   16895:	48 8d 85 28 e1 ff ff 	lea    -0x1ed8(%rbp),%rax
   1689c:	48 89 85 78 f2 ff ff 	mov    %rax,-0xd88(%rbp)
   168a3:	48 c7 85 80 f2 ff ff 	movq   $0x0,-0xd80(%rbp)
   168aa:	00 00 00 00 
   168ae:	48 8d 85 28 e1 ff ff 	lea    -0x1ed8(%rbp),%rax
   168b5:	48 89 85 88 f2 ff ff 	mov    %rax,-0xd78(%rbp)
   168bc:	48 c7 85 90 f2 ff ff 	movq   $0x0,-0xd70(%rbp)
   168c3:	00 00 00 00 
   168c7:	48 c7 85 98 f2 ff ff 	movq   $0x0,-0xd68(%rbp)
   168ce:	00 00 00 00 
   168d2:	48 8d 85 28 e1 ff ff 	lea    -0x1ed8(%rbp),%rax
   168d9:	48 89 85 a0 f2 ff ff 	mov    %rax,-0xd60(%rbp)
   168e0:	48 8d 85 28 e1 ff ff 	lea    -0x1ed8(%rbp),%rax
   168e7:	48 89 85 a8 f2 ff ff 	mov    %rax,-0xd58(%rbp)
   168ee:	48 c7 85 b0 f2 ff ff 	movq   $0x0,-0xd50(%rbp)
   168f5:	00 00 00 00 
   168f9:	48 8d 85 28 e1 ff ff 	lea    -0x1ed8(%rbp),%rax
   16900:	48 89 85 b8 f2 ff ff 	mov    %rax,-0xd48(%rbp)
   16907:	48 c7 85 c0 f2 ff ff 	movq   $0x0,-0xd40(%rbp)
   1690e:	00 00 00 00 
   16912:	48 8d 85 28 e1 ff ff 	lea    -0x1ed8(%rbp),%rax
   16919:	48 89 85 c8 f2 ff ff 	mov    %rax,-0xd38(%rbp)
   16920:	48 c7 85 d0 f2 ff ff 	movq   $0x0,-0xd30(%rbp)
   16927:	00 00 00 00 
   1692b:	48 8d 85 28 e1 ff ff 	lea    -0x1ed8(%rbp),%rax
   16932:	48 89 85 d8 f2 ff ff 	mov    %rax,-0xd28(%rbp)
   16939:	48 8d 85 28 e1 ff ff 	lea    -0x1ed8(%rbp),%rax
   16940:	48 89 85 e0 f2 ff ff 	mov    %rax,-0xd20(%rbp)
   16947:	48 c7 85 e8 f2 ff ff 	movq   $0x0,-0xd18(%rbp)
   1694e:	00 00 00 00 
   16952:	48 c7 85 f0 f2 ff ff 	movq   $0x0,-0xd10(%rbp)
   16959:	00 00 00 00 
   1695d:	48 8d 85 28 e1 ff ff 	lea    -0x1ed8(%rbp),%rax
   16964:	48 89 85 f8 f2 ff ff 	mov    %rax,-0xd08(%rbp)
   1696b:	48 c7 85 00 f3 ff ff 	movq   $0x0,-0xd00(%rbp)
   16972:	00 00 00 00 
   16976:	48 8d 85 28 e1 ff ff 	lea    -0x1ed8(%rbp),%rax
   1697d:	48 89 85 08 f3 ff ff 	mov    %rax,-0xcf8(%rbp)
   16984:	48 c7 85 10 f3 ff ff 	movq   $0x0,-0xcf0(%rbp)
   1698b:	00 00 00 00 
   1698f:	48 c7 85 18 f3 ff ff 	movq   $0x0,-0xce8(%rbp)
   16996:	00 00 00 00 
   1699a:	48 8d 85 28 e1 ff ff 	lea    -0x1ed8(%rbp),%rax
   169a1:	48 89 85 20 f3 ff ff 	mov    %rax,-0xce0(%rbp)
   169a8:	48 8d 85 28 e1 ff ff 	lea    -0x1ed8(%rbp),%rax
   169af:	48 89 85 28 f3 ff ff 	mov    %rax,-0xcd8(%rbp)
   169b6:	48 c7 85 30 f3 ff ff 	movq   $0x0,-0xcd0(%rbp)
   169bd:	00 00 00 00 
   169c1:	48 8d 85 28 e1 ff ff 	lea    -0x1ed8(%rbp),%rax
   169c8:	48 89 85 38 f3 ff ff 	mov    %rax,-0xcc8(%rbp)
   169cf:	48 c7 85 40 f3 ff ff 	movq   $0x0,-0xcc0(%rbp)
   169d6:	00 00 00 00 
   169da:	48 8d 85 28 e1 ff ff 	lea    -0x1ed8(%rbp),%rax
   169e1:	48 89 85 48 f3 ff ff 	mov    %rax,-0xcb8(%rbp)
   169e8:	48 c7 85 50 f3 ff ff 	movq   $0x0,-0xcb0(%rbp)
   169ef:	00 00 00 00 
   169f3:	48 8d 85 28 e1 ff ff 	lea    -0x1ed8(%rbp),%rax
   169fa:	48 89 85 58 f3 ff ff 	mov    %rax,-0xca8(%rbp)
   16a01:	48 8d 85 28 e1 ff ff 	lea    -0x1ed8(%rbp),%rax
   16a08:	48 89 85 60 f3 ff ff 	mov    %rax,-0xca0(%rbp)
   16a0f:	48 c7 85 68 f3 ff ff 	movq   $0x0,-0xc98(%rbp)
   16a16:	00 00 00 00 
   16a1a:	48 c7 85 70 f3 ff ff 	movq   $0x0,-0xc90(%rbp)
   16a21:	00 00 00 00 
   16a25:	48 8d 85 28 e1 ff ff 	lea    -0x1ed8(%rbp),%rax
   16a2c:	48 89 85 78 f3 ff ff 	mov    %rax,-0xc88(%rbp)
   16a33:	48 c7 85 80 f3 ff ff 	movq   $0x0,-0xc80(%rbp)
   16a3a:	00 00 00 00 
   16a3e:	48 8d 85 28 e1 ff ff 	lea    -0x1ed8(%rbp),%rax
   16a45:	48 89 85 88 f3 ff ff 	mov    %rax,-0xc78(%rbp)
   16a4c:	48 c7 85 90 f3 ff ff 	movq   $0x0,-0xc70(%rbp)
   16a53:	00 00 00 00 
   16a57:	48 c7 85 98 f3 ff ff 	movq   $0x0,-0xc68(%rbp)
   16a5e:	00 00 00 00 
   16a62:	48 8d 85 28 e1 ff ff 	lea    -0x1ed8(%rbp),%rax
   16a69:	48 89 85 a0 f3 ff ff 	mov    %rax,-0xc60(%rbp)
   16a70:	48 8d 85 28 e1 ff ff 	lea    -0x1ed8(%rbp),%rax
   16a77:	48 89 85 a8 f3 ff ff 	mov    %rax,-0xc58(%rbp)
   16a7e:	48 c7 85 b0 f3 ff ff 	movq   $0x0,-0xc50(%rbp)
   16a85:	00 00 00 00 
   16a89:	48 8d 85 28 e1 ff ff 	lea    -0x1ed8(%rbp),%rax
   16a90:	48 89 85 b8 f3 ff ff 	mov    %rax,-0xc48(%rbp)
   16a97:	48 c7 85 c0 f3 ff ff 	movq   $0x0,-0xc40(%rbp)
   16a9e:	00 00 00 00 
   16aa2:	48 8d 85 28 e1 ff ff 	lea    -0x1ed8(%rbp),%rax
   16aa9:	48 89 85 c8 f3 ff ff 	mov    %rax,-0xc38(%rbp)
   16ab0:	48 c7 85 d0 f3 ff ff 	movq   $0x0,-0xc30(%rbp)
   16ab7:	00 00 00 00 
   16abb:	48 8d 85 28 e1 ff ff 	lea    -0x1ed8(%rbp),%rax
   16ac2:	48 89 85 d8 f3 ff ff 	mov    %rax,-0xc28(%rbp)
   16ac9:	48 8d 85 28 e1 ff ff 	lea    -0x1ed8(%rbp),%rax
   16ad0:	48 89 85 e0 f3 ff ff 	mov    %rax,-0xc20(%rbp)
   16ad7:	48 c7 85 e8 f3 ff ff 	movq   $0x0,-0xc18(%rbp)
   16ade:	00 00 00 00 
   16ae2:	48 c7 85 f0 f3 ff ff 	movq   $0x0,-0xc10(%rbp)
   16ae9:	00 00 00 00 
   16aed:	48 8d 85 28 e1 ff ff 	lea    -0x1ed8(%rbp),%rax
   16af4:	48 89 85 f8 f3 ff ff 	mov    %rax,-0xc08(%rbp)
   16afb:	48 c7 85 00 f4 ff ff 	movq   $0x0,-0xc00(%rbp)
   16b02:	00 00 00 00 
   16b06:	48 8d 85 28 e1 ff ff 	lea    -0x1ed8(%rbp),%rax
   16b0d:	48 89 85 08 f4 ff ff 	mov    %rax,-0xbf8(%rbp)
   16b14:	48 c7 85 10 f4 ff ff 	movq   $0x0,-0xbf0(%rbp)
   16b1b:	00 00 00 00 
   16b1f:	48 c7 85 18 f4 ff ff 	movq   $0x0,-0xbe8(%rbp)
   16b26:	00 00 00 00 
   16b2a:	48 8d 85 28 e1 ff ff 	lea    -0x1ed8(%rbp),%rax
   16b31:	48 89 85 20 f4 ff ff 	mov    %rax,-0xbe0(%rbp)
   16b38:	48 8d 85 28 e1 ff ff 	lea    -0x1ed8(%rbp),%rax
   16b3f:	48 89 85 28 f4 ff ff 	mov    %rax,-0xbd8(%rbp)
   16b46:	48 c7 85 30 f4 ff ff 	movq   $0x0,-0xbd0(%rbp)
   16b4d:	00 00 00 00 
   16b51:	48 8d 85 28 e1 ff ff 	lea    -0x1ed8(%rbp),%rax
   16b58:	48 89 85 38 f4 ff ff 	mov    %rax,-0xbc8(%rbp)
   16b5f:	48 c7 85 40 f4 ff ff 	movq   $0x0,-0xbc0(%rbp)
   16b66:	00 00 00 00 
   16b6a:	48 8d 85 28 e1 ff ff 	lea    -0x1ed8(%rbp),%rax
   16b71:	48 89 85 48 f4 ff ff 	mov    %rax,-0xbb8(%rbp)
   16b78:	48 c7 85 50 f4 ff ff 	movq   $0x0,-0xbb0(%rbp)
   16b7f:	00 00 00 00 
   16b83:	48 8d 85 28 e1 ff ff 	lea    -0x1ed8(%rbp),%rax
   16b8a:	48 89 85 58 f4 ff ff 	mov    %rax,-0xba8(%rbp)
   16b91:	48 8d 85 28 e1 ff ff 	lea    -0x1ed8(%rbp),%rax
   16b98:	48 89 85 60 f4 ff ff 	mov    %rax,-0xba0(%rbp)
   16b9f:	48 c7 85 68 f4 ff ff 	movq   $0x0,-0xb98(%rbp)
   16ba6:	00 00 00 00 
   16baa:	48 c7 85 70 f4 ff ff 	movq   $0x0,-0xb90(%rbp)
   16bb1:	00 00 00 00 
   16bb5:	48 8d 85 28 e1 ff ff 	lea    -0x1ed8(%rbp),%rax
   16bbc:	48 89 85 78 f4 ff ff 	mov    %rax,-0xb88(%rbp)
   16bc3:	48 c7 85 80 f4 ff ff 	movq   $0x0,-0xb80(%rbp)
   16bca:	00 00 00 00 
   16bce:	48 8d 85 28 e1 ff ff 	lea    -0x1ed8(%rbp),%rax
   16bd5:	48 89 85 88 f4 ff ff 	mov    %rax,-0xb78(%rbp)
   16bdc:	48 c7 85 90 f4 ff ff 	movq   $0x0,-0xb70(%rbp)
   16be3:	00 00 00 00 
   16be7:	48 c7 85 98 f4 ff ff 	movq   $0x0,-0xb68(%rbp)
   16bee:	00 00 00 00 
   16bf2:	48 8d 85 28 e1 ff ff 	lea    -0x1ed8(%rbp),%rax
   16bf9:	48 89 85 a0 f4 ff ff 	mov    %rax,-0xb60(%rbp)
   16c00:	48 8d 85 28 e1 ff ff 	lea    -0x1ed8(%rbp),%rax
   16c07:	48 89 85 a8 f4 ff ff 	mov    %rax,-0xb58(%rbp)
   16c0e:	48 c7 85 b0 f4 ff ff 	movq   $0x0,-0xb50(%rbp)
   16c15:	00 00 00 00 
   16c19:	48 8d 85 28 e1 ff ff 	lea    -0x1ed8(%rbp),%rax
   16c20:	48 89 85 b8 f4 ff ff 	mov    %rax,-0xb48(%rbp)
   16c27:	48 c7 85 c0 f4 ff ff 	movq   $0x0,-0xb40(%rbp)
   16c2e:	00 00 00 00 
   16c32:	48 8d 85 28 e1 ff ff 	lea    -0x1ed8(%rbp),%rax
   16c39:	48 89 85 c8 f4 ff ff 	mov    %rax,-0xb38(%rbp)
   16c40:	48 c7 85 d0 f4 ff ff 	movq   $0x0,-0xb30(%rbp)
   16c47:	00 00 00 00 
   16c4b:	48 8d 85 28 e1 ff ff 	lea    -0x1ed8(%rbp),%rax
   16c52:	48 89 85 d8 f4 ff ff 	mov    %rax,-0xb28(%rbp)
   16c59:	48 8d 85 28 e1 ff ff 	lea    -0x1ed8(%rbp),%rax
   16c60:	48 89 85 e0 f4 ff ff 	mov    %rax,-0xb20(%rbp)
   16c67:	48 c7 85 e8 f4 ff ff 	movq   $0x0,-0xb18(%rbp)
   16c6e:	00 00 00 00 
   16c72:	48 c7 85 f0 f4 ff ff 	movq   $0x0,-0xb10(%rbp)
   16c79:	00 00 00 00 
   16c7d:	48 8d 85 28 e1 ff ff 	lea    -0x1ed8(%rbp),%rax
   16c84:	48 89 85 f8 f4 ff ff 	mov    %rax,-0xb08(%rbp)
   16c8b:	48 c7 85 00 f5 ff ff 	movq   $0x0,-0xb00(%rbp)
   16c92:	00 00 00 00 
   16c96:	48 8d 85 28 e1 ff ff 	lea    -0x1ed8(%rbp),%rax
   16c9d:	48 89 85 08 f5 ff ff 	mov    %rax,-0xaf8(%rbp)
   16ca4:	48 c7 85 10 f5 ff ff 	movq   $0x0,-0xaf0(%rbp)
   16cab:	00 00 00 00 
   16caf:	48 c7 85 18 f5 ff ff 	movq   $0x0,-0xae8(%rbp)
   16cb6:	00 00 00 00 
   16cba:	48 8d 85 28 e1 ff ff 	lea    -0x1ed8(%rbp),%rax
   16cc1:	48 89 85 20 f5 ff ff 	mov    %rax,-0xae0(%rbp)
   16cc8:	48 8d 85 28 e1 ff ff 	lea    -0x1ed8(%rbp),%rax
   16ccf:	48 89 85 28 f5 ff ff 	mov    %rax,-0xad8(%rbp)
   16cd6:	48 c7 85 30 f5 ff ff 	movq   $0x0,-0xad0(%rbp)
   16cdd:	00 00 00 00 
   16ce1:	48 8d 85 28 e1 ff ff 	lea    -0x1ed8(%rbp),%rax
   16ce8:	48 89 85 38 f5 ff ff 	mov    %rax,-0xac8(%rbp)
   16cef:	48 c7 85 40 f5 ff ff 	movq   $0x0,-0xac0(%rbp)
   16cf6:	00 00 00 00 
   16cfa:	48 8d 85 28 e1 ff ff 	lea    -0x1ed8(%rbp),%rax
   16d01:	48 89 85 48 f5 ff ff 	mov    %rax,-0xab8(%rbp)
   16d08:	48 c7 85 50 f5 ff ff 	movq   $0x0,-0xab0(%rbp)
   16d0f:	00 00 00 00 
   16d13:	48 8d 85 28 e1 ff ff 	lea    -0x1ed8(%rbp),%rax
   16d1a:	48 89 85 58 f5 ff ff 	mov    %rax,-0xaa8(%rbp)
   16d21:	48 8d 85 28 e1 ff ff 	lea    -0x1ed8(%rbp),%rax
   16d28:	48 89 85 60 f5 ff ff 	mov    %rax,-0xaa0(%rbp)
   16d2f:	48 c7 85 68 f5 ff ff 	movq   $0x0,-0xa98(%rbp)
   16d36:	00 00 00 00 
   16d3a:	48 c7 85 70 f5 ff ff 	movq   $0x0,-0xa90(%rbp)
   16d41:	00 00 00 00 
   16d45:	48 8d 85 28 e1 ff ff 	lea    -0x1ed8(%rbp),%rax
   16d4c:	48 89 85 78 f5 ff ff 	mov    %rax,-0xa88(%rbp)
   16d53:	48 c7 85 80 f5 ff ff 	movq   $0x0,-0xa80(%rbp)
   16d5a:	00 00 00 00 
   16d5e:	48 8d 85 28 e1 ff ff 	lea    -0x1ed8(%rbp),%rax
   16d65:	48 89 85 88 f5 ff ff 	mov    %rax,-0xa78(%rbp)
   16d6c:	48 c7 85 90 f5 ff ff 	movq   $0x0,-0xa70(%rbp)
   16d73:	00 00 00 00 
   16d77:	48 c7 85 98 f5 ff ff 	movq   $0x0,-0xa68(%rbp)
   16d7e:	00 00 00 00 
   16d82:	48 8d 85 28 e1 ff ff 	lea    -0x1ed8(%rbp),%rax
   16d89:	48 89 85 a0 f5 ff ff 	mov    %rax,-0xa60(%rbp)
   16d90:	48 8d 85 28 e1 ff ff 	lea    -0x1ed8(%rbp),%rax
   16d97:	48 89 85 a8 f5 ff ff 	mov    %rax,-0xa58(%rbp)
   16d9e:	48 c7 85 b0 f5 ff ff 	movq   $0x0,-0xa50(%rbp)
   16da5:	00 00 00 00 
   16da9:	48 8d 85 28 e1 ff ff 	lea    -0x1ed8(%rbp),%rax
   16db0:	48 89 85 b8 f5 ff ff 	mov    %rax,-0xa48(%rbp)
   16db7:	48 c7 85 c0 f5 ff ff 	movq   $0x0,-0xa40(%rbp)
   16dbe:	00 00 00 00 
   16dc2:	48 8d 85 28 e1 ff ff 	lea    -0x1ed8(%rbp),%rax
   16dc9:	48 89 85 c8 f5 ff ff 	mov    %rax,-0xa38(%rbp)
   16dd0:	48 c7 85 d0 f5 ff ff 	movq   $0x0,-0xa30(%rbp)
   16dd7:	00 00 00 00 
   16ddb:	48 8d 85 28 e1 ff ff 	lea    -0x1ed8(%rbp),%rax
   16de2:	48 89 85 d8 f5 ff ff 	mov    %rax,-0xa28(%rbp)
   16de9:	48 8d 85 28 e1 ff ff 	lea    -0x1ed8(%rbp),%rax
   16df0:	48 89 85 e0 f5 ff ff 	mov    %rax,-0xa20(%rbp)
   16df7:	48 c7 85 e8 f5 ff ff 	movq   $0x0,-0xa18(%rbp)
   16dfe:	00 00 00 00 
   16e02:	48 c7 85 f0 f5 ff ff 	movq   $0x0,-0xa10(%rbp)
   16e09:	00 00 00 00 
   16e0d:	48 8d 85 28 e1 ff ff 	lea    -0x1ed8(%rbp),%rax
   16e14:	48 89 85 f8 f5 ff ff 	mov    %rax,-0xa08(%rbp)
   16e1b:	48 c7 85 00 f6 ff ff 	movq   $0x0,-0xa00(%rbp)
   16e22:	00 00 00 00 
   16e26:	48 8d 85 28 e1 ff ff 	lea    -0x1ed8(%rbp),%rax
   16e2d:	48 89 85 08 f6 ff ff 	mov    %rax,-0x9f8(%rbp)
   16e34:	48 c7 85 10 f6 ff ff 	movq   $0x0,-0x9f0(%rbp)
   16e3b:	00 00 00 00 
   16e3f:	48 c7 85 18 f6 ff ff 	movq   $0x0,-0x9e8(%rbp)
   16e46:	00 00 00 00 
   16e4a:	48 8d 85 28 e1 ff ff 	lea    -0x1ed8(%rbp),%rax
   16e51:	48 89 85 20 f6 ff ff 	mov    %rax,-0x9e0(%rbp)
   16e58:	48 8d 85 28 e1 ff ff 	lea    -0x1ed8(%rbp),%rax
   16e5f:	48 89 85 28 f6 ff ff 	mov    %rax,-0x9d8(%rbp)
   16e66:	48 c7 85 30 f6 ff ff 	movq   $0x0,-0x9d0(%rbp)
   16e6d:	00 00 00 00 
   16e71:	48 8d 85 28 e1 ff ff 	lea    -0x1ed8(%rbp),%rax
   16e78:	48 89 85 38 f6 ff ff 	mov    %rax,-0x9c8(%rbp)
   16e7f:	48 c7 85 40 f6 ff ff 	movq   $0x0,-0x9c0(%rbp)
   16e86:	00 00 00 00 
   16e8a:	48 8d 85 28 e1 ff ff 	lea    -0x1ed8(%rbp),%rax
   16e91:	48 89 85 48 f6 ff ff 	mov    %rax,-0x9b8(%rbp)
   16e98:	48 c7 85 50 f6 ff ff 	movq   $0x0,-0x9b0(%rbp)
   16e9f:	00 00 00 00 
   16ea3:	48 8d 85 28 e1 ff ff 	lea    -0x1ed8(%rbp),%rax
   16eaa:	48 89 85 58 f6 ff ff 	mov    %rax,-0x9a8(%rbp)
   16eb1:	48 8d 85 28 e1 ff ff 	lea    -0x1ed8(%rbp),%rax
   16eb8:	48 89 85 60 f6 ff ff 	mov    %rax,-0x9a0(%rbp)
   16ebf:	48 c7 85 68 f6 ff ff 	movq   $0x0,-0x998(%rbp)
   16ec6:	00 00 00 00 
   16eca:	48 c7 85 70 f6 ff ff 	movq   $0x0,-0x990(%rbp)
   16ed1:	00 00 00 00 
   16ed5:	48 8d 85 28 e1 ff ff 	lea    -0x1ed8(%rbp),%rax
   16edc:	48 89 85 78 f6 ff ff 	mov    %rax,-0x988(%rbp)
   16ee3:	48 c7 85 80 f6 ff ff 	movq   $0x0,-0x980(%rbp)
   16eea:	00 00 00 00 
   16eee:	48 8d 85 28 e1 ff ff 	lea    -0x1ed8(%rbp),%rax
   16ef5:	48 89 85 88 f6 ff ff 	mov    %rax,-0x978(%rbp)
   16efc:	48 c7 85 90 f6 ff ff 	movq   $0x0,-0x970(%rbp)
   16f03:	00 00 00 00 
   16f07:	48 c7 85 98 f6 ff ff 	movq   $0x0,-0x968(%rbp)
   16f0e:	00 00 00 00 
   16f12:	48 8d 85 28 e1 ff ff 	lea    -0x1ed8(%rbp),%rax
   16f19:	48 89 85 a0 f6 ff ff 	mov    %rax,-0x960(%rbp)
   16f20:	48 8d 85 28 e1 ff ff 	lea    -0x1ed8(%rbp),%rax
   16f27:	48 89 85 a8 f6 ff ff 	mov    %rax,-0x958(%rbp)
   16f2e:	48 c7 85 b0 f6 ff ff 	movq   $0x0,-0x950(%rbp)
   16f35:	00 00 00 00 
   16f39:	48 8d 85 28 e1 ff ff 	lea    -0x1ed8(%rbp),%rax
   16f40:	48 89 85 b8 f6 ff ff 	mov    %rax,-0x948(%rbp)
   16f47:	48 c7 85 c0 f6 ff ff 	movq   $0x0,-0x940(%rbp)
   16f4e:	00 00 00 00 
   16f52:	48 8d 85 28 e1 ff ff 	lea    -0x1ed8(%rbp),%rax
   16f59:	48 89 85 c8 f6 ff ff 	mov    %rax,-0x938(%rbp)
   16f60:	48 c7 85 d0 f6 ff ff 	movq   $0x0,-0x930(%rbp)
   16f67:	00 00 00 00 
   16f6b:	48 8d 85 28 e1 ff ff 	lea    -0x1ed8(%rbp),%rax
   16f72:	48 89 85 d8 f6 ff ff 	mov    %rax,-0x928(%rbp)
   16f79:	48 8d 85 28 e1 ff ff 	lea    -0x1ed8(%rbp),%rax
   16f80:	48 89 85 e0 f6 ff ff 	mov    %rax,-0x920(%rbp)
   16f87:	48 c7 85 e8 f6 ff ff 	movq   $0x0,-0x918(%rbp)
   16f8e:	00 00 00 00 
   16f92:	48 c7 85 f0 f6 ff ff 	movq   $0x0,-0x910(%rbp)
   16f99:	00 00 00 00 
   16f9d:	48 8d 85 28 e1 ff ff 	lea    -0x1ed8(%rbp),%rax
   16fa4:	48 89 85 f8 f6 ff ff 	mov    %rax,-0x908(%rbp)
   16fab:	48 c7 85 00 f7 ff ff 	movq   $0x0,-0x900(%rbp)
   16fb2:	00 00 00 00 
   16fb6:	48 8d 85 28 e1 ff ff 	lea    -0x1ed8(%rbp),%rax
   16fbd:	48 89 85 08 f7 ff ff 	mov    %rax,-0x8f8(%rbp)
   16fc4:	48 c7 85 10 f7 ff ff 	movq   $0x0,-0x8f0(%rbp)
   16fcb:	00 00 00 00 
   16fcf:	48 c7 85 18 f7 ff ff 	movq   $0x0,-0x8e8(%rbp)
   16fd6:	00 00 00 00 
   16fda:	48 8d 85 28 e1 ff ff 	lea    -0x1ed8(%rbp),%rax
   16fe1:	48 89 85 20 f7 ff ff 	mov    %rax,-0x8e0(%rbp)
   16fe8:	48 8d 85 28 e1 ff ff 	lea    -0x1ed8(%rbp),%rax
   16fef:	48 89 85 28 f7 ff ff 	mov    %rax,-0x8d8(%rbp)
   16ff6:	48 c7 85 30 f7 ff ff 	movq   $0x0,-0x8d0(%rbp)
   16ffd:	00 00 00 00 
   17001:	48 8d 85 28 e1 ff ff 	lea    -0x1ed8(%rbp),%rax
   17008:	48 89 85 38 f7 ff ff 	mov    %rax,-0x8c8(%rbp)
   1700f:	48 c7 85 40 f7 ff ff 	movq   $0x0,-0x8c0(%rbp)
   17016:	00 00 00 00 
   1701a:	48 8d 85 28 e1 ff ff 	lea    -0x1ed8(%rbp),%rax
   17021:	48 89 85 48 f7 ff ff 	mov    %rax,-0x8b8(%rbp)
   17028:	48 c7 85 50 f7 ff ff 	movq   $0x0,-0x8b0(%rbp)
   1702f:	00 00 00 00 
   17033:	48 8d 85 28 e1 ff ff 	lea    -0x1ed8(%rbp),%rax
   1703a:	48 89 85 58 f7 ff ff 	mov    %rax,-0x8a8(%rbp)
   17041:	48 8d 85 28 e1 ff ff 	lea    -0x1ed8(%rbp),%rax
   17048:	48 89 85 60 f7 ff ff 	mov    %rax,-0x8a0(%rbp)
   1704f:	48 c7 85 68 f7 ff ff 	movq   $0x0,-0x898(%rbp)
   17056:	00 00 00 00 
   1705a:	48 c7 85 70 f7 ff ff 	movq   $0x0,-0x890(%rbp)
   17061:	00 00 00 00 
   17065:	48 8d 85 28 e1 ff ff 	lea    -0x1ed8(%rbp),%rax
   1706c:	48 89 85 78 f7 ff ff 	mov    %rax,-0x888(%rbp)
   17073:	48 c7 85 80 f7 ff ff 	movq   $0x0,-0x880(%rbp)
   1707a:	00 00 00 00 
   1707e:	48 8d 85 28 e1 ff ff 	lea    -0x1ed8(%rbp),%rax
   17085:	48 89 85 88 f7 ff ff 	mov    %rax,-0x878(%rbp)
   1708c:	48 c7 85 90 f7 ff ff 	movq   $0x0,-0x870(%rbp)
   17093:	00 00 00 00 
   17097:	48 c7 85 98 f7 ff ff 	movq   $0x0,-0x868(%rbp)
   1709e:	00 00 00 00 
   170a2:	48 8d 85 28 e1 ff ff 	lea    -0x1ed8(%rbp),%rax
   170a9:	48 89 85 a0 f7 ff ff 	mov    %rax,-0x860(%rbp)
   170b0:	48 8d 85 28 e1 ff ff 	lea    -0x1ed8(%rbp),%rax
   170b7:	48 89 85 a8 f7 ff ff 	mov    %rax,-0x858(%rbp)
   170be:	48 c7 85 b0 f7 ff ff 	movq   $0x0,-0x850(%rbp)
   170c5:	00 00 00 00 
   170c9:	48 8d 85 28 e1 ff ff 	lea    -0x1ed8(%rbp),%rax
   170d0:	48 89 85 b8 f7 ff ff 	mov    %rax,-0x848(%rbp)
   170d7:	48 c7 85 c0 f7 ff ff 	movq   $0x0,-0x840(%rbp)
   170de:	00 00 00 00 
   170e2:	48 8d 85 28 e1 ff ff 	lea    -0x1ed8(%rbp),%rax
   170e9:	48 89 85 c8 f7 ff ff 	mov    %rax,-0x838(%rbp)
   170f0:	48 c7 85 d0 f7 ff ff 	movq   $0x0,-0x830(%rbp)
   170f7:	00 00 00 00 
   170fb:	48 8d 85 28 e1 ff ff 	lea    -0x1ed8(%rbp),%rax
   17102:	48 89 85 d8 f7 ff ff 	mov    %rax,-0x828(%rbp)
   17109:	48 8d 85 28 e1 ff ff 	lea    -0x1ed8(%rbp),%rax
   17110:	48 89 85 e0 f7 ff ff 	mov    %rax,-0x820(%rbp)
   17117:	48 c7 85 e8 f7 ff ff 	movq   $0x0,-0x818(%rbp)
   1711e:	00 00 00 00 
   17122:	48 c7 85 f0 f7 ff ff 	movq   $0x0,-0x810(%rbp)
   17129:	00 00 00 00 
   1712d:	48 8d 85 28 e1 ff ff 	lea    -0x1ed8(%rbp),%rax
   17134:	48 89 85 f8 f7 ff ff 	mov    %rax,-0x808(%rbp)
   1713b:	48 c7 85 00 f8 ff ff 	movq   $0x0,-0x800(%rbp)
   17142:	00 00 00 00 
   17146:	48 8d 85 28 e1 ff ff 	lea    -0x1ed8(%rbp),%rax
   1714d:	48 89 85 08 f8 ff ff 	mov    %rax,-0x7f8(%rbp)
   17154:	48 c7 85 10 f8 ff ff 	movq   $0x0,-0x7f0(%rbp)
   1715b:	00 00 00 00 
   1715f:	48 c7 85 18 f8 ff ff 	movq   $0x0,-0x7e8(%rbp)
   17166:	00 00 00 00 
   1716a:	48 8d 85 28 e1 ff ff 	lea    -0x1ed8(%rbp),%rax
   17171:	48 89 85 20 f8 ff ff 	mov    %rax,-0x7e0(%rbp)
   17178:	48 8d 85 28 e1 ff ff 	lea    -0x1ed8(%rbp),%rax
   1717f:	48 89 85 28 f8 ff ff 	mov    %rax,-0x7d8(%rbp)
   17186:	48 c7 85 30 f8 ff ff 	movq   $0x0,-0x7d0(%rbp)
   1718d:	00 00 00 00 
   17191:	48 8d 85 28 e1 ff ff 	lea    -0x1ed8(%rbp),%rax
   17198:	48 89 85 38 f8 ff ff 	mov    %rax,-0x7c8(%rbp)
   1719f:	48 c7 85 40 f8 ff ff 	movq   $0x0,-0x7c0(%rbp)
   171a6:	00 00 00 00 
   171aa:	48 8d 85 28 e1 ff ff 	lea    -0x1ed8(%rbp),%rax
   171b1:	48 89 85 48 f8 ff ff 	mov    %rax,-0x7b8(%rbp)
   171b8:	c7 85 e4 e0 ff ff 00 	movl   $0x0,-0x1f1c(%rbp)
   171bf:	00 00 00 
   171c2:	eb 1a                	jmp    171de <func_43+0x274c>
   171c4:	8b 85 e4 e0 ff ff    	mov    -0x1f1c(%rbp),%eax
   171ca:	48 98                	cltq   
   171cc:	c7 84 85 44 e2 ff ff 	movl   $0x5f2abc7d,-0x1dbc(%rbp,%rax,4)
   171d3:	7d bc 2a 5f 
   171d7:	83 85 e4 e0 ff ff 01 	addl   $0x1,-0x1f1c(%rbp)
   171de:	83 bd e4 e0 ff ff 02 	cmpl   $0x2,-0x1f1c(%rbp)
   171e5:	7e dd                	jle    171c4 <func_43+0x2732>
   171e7:	66 83 bd b4 e0 ff ff 	cmpw   $0x0,-0x1f4c(%rbp)
   171ee:	00 
   171ef:	75 2b                	jne    1721c <func_43+0x278a>
   171f1:	66 83 bd ce e0 ff ff 	cmpw   $0x0,-0x1f32(%rbp)
   171f8:	00 
   171f9:	75 24                	jne    1721f <func_43+0x278d>
   171fb:	0f b7 85 b4 e0 ff ff 	movzwl -0x1f4c(%rbp),%eax
   17202:	83 e8 01             	sub    $0x1,%eax
   17205:	66 89 85 b4 e0 ff ff 	mov    %ax,-0x1f4c(%rbp)
   1720c:	66 83 bd b4 e0 ff ff 	cmpw   $0xffef,-0x1f4c(%rbp)
   17213:	ef 
   17214:	0f 8d 41 f4 ff ff    	jge    1665b <func_43+0x1bc9>
   1721a:	eb 04                	jmp    17220 <func_43+0x278e>
   1721c:	90                   	nop
   1721d:	eb 01                	jmp    17220 <func_43+0x278e>
   1721f:	90                   	nop
   17220:	c6 85 c8 e0 ff ff 02 	movb   $0x2,-0x1f38(%rbp)
   17227:	e9 f3 03 00 00       	jmpq   1761f <func_43+0x2b8d>
   1722c:	c7 85 f8 e0 ff ff 13 	movl   $0xd6a5f113,-0x1f08(%rbp)
   17233:	f1 a5 d6 
   17236:	c7 85 e8 e0 ff ff 01 	movl   $0x1,-0x1f18(%rbp)
   1723d:	00 00 00 
   17240:	48 83 85 58 e1 ff ff 	addq   $0x1,-0x1ea8(%rbp)
   17247:	01 
   17248:	c6 05 22 7e 00 00 00 	movb   $0x0,0x7e22(%rip)        # 1f071 <g_121+0x1>
   1724f:	e9 38 02 00 00       	jmpq   1748c <func_43+0x29fa>
   17254:	c6 85 ca e0 ff ff b5 	movb   $0xb5,-0x1f36(%rbp)
   1725b:	66 c7 85 d0 e0 ff ff 	movw   $0x23e3,-0x1f30(%rbp)
   17262:	e3 23 
   17264:	48 c7 85 50 e1 ff ff 	movq   $0x0,-0x1eb0(%rbp)
   1726b:	00 00 00 00 
   1726f:	66 c7 05 34 7e 00 00 	movw   $0x0,0x7e34(%rip)        # 1f0ac <g_158>
   17276:	00 00 
   17278:	90                   	nop
   17279:	0f b7 05 2c 7e 00 00 	movzwl 0x7e2c(%rip),%eax        # 1f0ac <g_158>
   17280:	66 83 f8 02          	cmp    $0x2,%ax
   17284:	77 0b                	ja     17291 <func_43+0x27ff>
   17286:	8b 85 f8 e0 ff ff    	mov    -0x1f08(%rbp),%eax
   1728c:	e9 c2 03 00 00       	jmpq   17653 <func_43+0x2bc1>
   17291:	66 c7 05 1a 7f 00 00 	movw   $0x2,0x7f1a(%rip)        # 1f1b4 <g_291>
   17298:	02 00 
   1729a:	e9 ca 01 00 00       	jmpq   17469 <func_43+0x29d7>
   1729f:	48 8d 05 0a 7f 00 00 	lea    0x7f0a(%rip),%rax        # 1f1b0 <g_200>
   172a6:	48 89 85 c0 e1 ff ff 	mov    %rax,-0x1e40(%rbp)
   172ad:	0f b6 05 bd 7d 00 00 	movzbl 0x7dbd(%rip),%eax        # 1f071 <g_121+0x1>
   172b4:	0f b6 d0             	movzbl %al,%edx
   172b7:	0f be 85 c8 e0 ff ff 	movsbl -0x1f38(%rbp),%eax
   172be:	8d 78 03             	lea    0x3(%rax),%edi
   172c1:	0f b6 05 a9 7d 00 00 	movzbl 0x7da9(%rip),%eax        # 1f071 <g_121+0x1>
   172c8:	0f b6 c8             	movzbl %al,%ecx
   172cb:	0f be 85 c8 e0 ff ff 	movsbl -0x1f38(%rbp),%eax
   172d2:	8d 70 05             	lea    0x5(%rax),%esi
   172d5:	48 63 c7             	movslq %edi,%rax
   172d8:	48 63 d2             	movslq %edx,%rdx
   172db:	48 c1 e2 03          	shl    $0x3,%rdx
   172df:	48 01 d0             	add    %rdx,%rax
   172e2:	48 8d 14 c5 00 00 00 	lea    0x0(,%rax,8),%rdx
   172e9:	00 
   172ea:	48 8d 05 ef a1 00 00 	lea    0xa1ef(%rip),%rax        # 214e0 <g_308>
   172f1:	48 8b 04 02          	mov    (%rdx,%rax,1),%rax
   172f5:	48 63 d6             	movslq %esi,%rdx
   172f8:	48 63 c9             	movslq %ecx,%rcx
   172fb:	48 c1 e1 03          	shl    $0x3,%rcx
   172ff:	48 01 ca             	add    %rcx,%rdx
   17302:	48 8d 0c d5 00 00 00 	lea    0x0(,%rdx,8),%rcx
   17309:	00 
   1730a:	48 8d 15 cf a1 00 00 	lea    0xa1cf(%rip),%rdx        # 214e0 <g_308>
   17311:	48 89 04 11          	mov    %rax,(%rcx,%rdx,1)
   17315:	80 bd ca e0 ff ff 00 	cmpb   $0x0,-0x1f36(%rbp)
   1731c:	0f 85 59 01 00 00    	jne    1747b <func_43+0x29e9>
   17322:	66 83 bd d0 e0 ff ff 	cmpw   $0x0,-0x1f30(%rbp)
   17329:	00 
   1732a:	0f 85 27 01 00 00    	jne    17457 <func_43+0x29c5>
   17330:	0f b7 05 3b 7d 00 00 	movzwl 0x7d3b(%rip),%eax        # 1f072 <g_121+0x2>
   17337:	0f bf d8             	movswl %ax,%ebx
   1733a:	0f be 85 b0 e0 ff ff 	movsbl -0x1f50(%rbp),%eax
   17341:	89 c6                	mov    %eax,%esi
   17343:	bf a6 0a 00 00       	mov    $0xaa6,%edi
   17348:	e8 08 11 ff ff       	callq  8455 <safe_div_func_int16_t_s_s>
   1734d:	48 8b 05 4c 7d 00 00 	mov    0x7d4c(%rip),%rax        # 1f0a0 <g_140+0x10>
   17354:	c1 e0 02             	shl    $0x2,%eax
   17357:	c1 f8 02             	sar    $0x2,%eax
   1735a:	85 c0                	test   %eax,%eax
   1735c:	74 0e                	je     1736c <func_43+0x28da>
   1735e:	48 8d 05 f3 a0 00 00 	lea    0xa0f3(%rip),%rax        # 21458 <g_68>
   17365:	48 89 85 60 e1 ff ff 	mov    %rax,-0x1ea0(%rbp)
   1736c:	ba 00 00 00 00       	mov    $0x0,%edx
   17371:	48 8b 85 90 e1 ff ff 	mov    -0x1e70(%rbp),%rax
   17378:	48 8b 00             	mov    (%rax),%rax
   1737b:	88 10                	mov    %dl,(%rax)
   1737d:	0f b6 00             	movzbl (%rax),%eax
   17380:	84 c0                	test   %al,%al
   17382:	0f 94 c0             	sete   %al
   17385:	0f b6 c0             	movzbl %al,%eax
   17388:	89 de                	mov    %ebx,%esi
   1738a:	89 c7                	mov    %eax,%edi
   1738c:	e8 85 10 ff ff       	callq  8416 <safe_mod_func_int16_t_s_s>
   17391:	0f bf d0             	movswl %ax,%edx
   17394:	48 8b 85 c0 e1 ff ff 	mov    -0x1e40(%rbp),%rax
   1739b:	89 10                	mov    %edx,(%rax)
   1739d:	48 8b 85 c0 e1 ff ff 	mov    -0x1e40(%rbp),%rax
   173a4:	8b 00                	mov    (%rax),%eax
   173a6:	89 c2                	mov    %eax,%edx
   173a8:	0f b7 85 b4 e0 ff ff 	movzwl -0x1f4c(%rbp),%eax
   173af:	09 d0                	or     %edx,%eax
   173b1:	0f b6 c0             	movzbl %al,%eax
   173b4:	be 01 00 00 00       	mov    $0x1,%esi
   173b9:	89 c7                	mov    %eax,%edi
   173bb:	e8 8c 18 ff ff       	callq  8c4c <safe_lshift_func_uint8_t_u_u>
   173c0:	0f b6 d0             	movzbl %al,%edx
   173c3:	0f b7 05 e2 7c 00 00 	movzwl 0x7ce2(%rip),%eax        # 1f0ac <g_158>
   173ca:	66 39 c2             	cmp    %ax,%dx
   173cd:	0f 95 c0             	setne  %al
   173d0:	0f b6 d8             	movzbl %al,%ebx
   173d3:	0f b7 05 da 7d 00 00 	movzwl 0x7dda(%rip),%eax        # 1f1b4 <g_291>
   173da:	0f b6 c0             	movzbl %al,%eax
   173dd:	be 00 00 00 00       	mov    $0x0,%esi
   173e2:	89 c7                	mov    %eax,%edi
   173e4:	e8 71 17 ff ff       	callq  8b5a <safe_add_func_uint8_t_u_u>
   173e9:	84 c0                	test   %al,%al
   173eb:	74 1d                	je     1740a <func_43+0x2978>
   173ed:	48 8b 85 38 e1 ff ff 	mov    -0x1ec8(%rbp),%rax
   173f4:	48 8b 00             	mov    (%rax),%rax
   173f7:	48 8b 00             	mov    (%rax),%rax
   173fa:	48 8b 00             	mov    (%rax),%rax
   173fd:	8b 00                	mov    (%rax),%eax
   173ff:	85 c0                	test   %eax,%eax
   17401:	74 07                	je     1740a <func_43+0x2978>
   17403:	b8 01 00 00 00       	mov    $0x1,%eax
   17408:	eb 05                	jmp    1740f <func_43+0x297d>
   1740a:	b8 00 00 00 00       	mov    $0x0,%eax
   1740f:	48 63 d0             	movslq %eax,%rdx
   17412:	0f b6 05 a2 7d 00 00 	movzbl 0x7da2(%rip),%eax        # 1f1bb <g_341+0x5>
   17419:	89 c1                	mov    %eax,%ecx
   1741b:	89 d8                	mov    %ebx,%eax
   1741d:	31 c8                	xor    %ecx,%eax
   1741f:	88 05 96 7d 00 00    	mov    %al,0x7d96(%rip)        # 1f1bb <g_341+0x5>
   17425:	0f b6 05 8f 7d 00 00 	movzbl 0x7d8f(%rip),%eax        # 1f1bb <g_341+0x5>
   1742c:	0f b6 c0             	movzbl %al,%eax
   1742f:	48 39 c2             	cmp    %rax,%rdx
   17432:	0f 9f c0             	setg   %al
   17435:	0f b6 c0             	movzbl %al,%eax
   17438:	8b 95 f8 e0 ff ff    	mov    -0x1f08(%rbp),%edx
   1743e:	89 d6                	mov    %edx,%esi
   17440:	89 c7                	mov    %eax,%edi
   17442:	e8 85 12 ff ff       	callq  86cc <safe_mod_func_int32_t_s_s>
   17447:	85 c0                	test   %eax,%eax
   17449:	0f 94 c0             	sete   %al
   1744c:	0f b6 c0             	movzbl %al,%eax
   1744f:	09 85 e8 e0 ff ff    	or     %eax,-0x1f18(%rbp)
   17455:	eb 01                	jmp    17458 <func_43+0x29c6>
   17457:	90                   	nop
   17458:	0f b7 05 55 7d 00 00 	movzwl 0x7d55(%rip),%eax        # 1f1b4 <g_291>
   1745f:	83 e8 01             	sub    $0x1,%eax
   17462:	66 89 05 4b 7d 00 00 	mov    %ax,0x7d4b(%rip)        # 1f1b4 <g_291>
   17469:	0f b7 05 44 7d 00 00 	movzwl 0x7d44(%rip),%eax        # 1f1b4 <g_291>
   17470:	66 85 c0             	test   %ax,%ax
   17473:	0f 89 26 fe ff ff    	jns    1729f <func_43+0x280d>
   17479:	eb 01                	jmp    1747c <func_43+0x29ea>
   1747b:	90                   	nop
   1747c:	0f b6 05 ee 7b 00 00 	movzbl 0x7bee(%rip),%eax        # 1f071 <g_121+0x1>
   17483:	83 c0 01             	add    $0x1,%eax
   17486:	88 05 e5 7b 00 00    	mov    %al,0x7be5(%rip)        # 1f071 <g_121+0x1>
   1748c:	0f b6 05 de 7b 00 00 	movzbl 0x7bde(%rip),%eax        # 1f071 <g_121+0x1>
   17493:	3c 02                	cmp    $0x2,%al
   17495:	0f 86 b9 fd ff ff    	jbe    17254 <func_43+0x27c2>
   1749b:	0f b6 05 19 7d 00 00 	movzbl 0x7d19(%rip),%eax        # 1f1bb <g_341+0x5>
   174a2:	0f be d8             	movsbl %al,%ebx
   174a5:	0f b7 05 00 7c 00 00 	movzwl 0x7c00(%rip),%eax        # 1f0ac <g_158>
   174ac:	66 85 c0             	test   %ax,%ax
   174af:	74 25                	je     174d6 <func_43+0x2a44>
   174b1:	48 8b 05 e8 7b 00 00 	mov    0x7be8(%rip),%rax        # 1f0a0 <g_140+0x10>
   174b8:	c1 e0 02             	shl    $0x2,%eax
   174bb:	c1 f8 02             	sar    $0x2,%eax
   174be:	89 c2                	mov    %eax,%edx
   174c0:	8b 85 f8 e0 ff ff    	mov    -0x1f08(%rbp),%eax
   174c6:	0f be c0             	movsbl %al,%eax
   174c9:	89 d6                	mov    %edx,%esi
   174cb:	89 c7                	mov    %eax,%edi
   174cd:	e8 1c 0e ff ff       	callq  82ee <safe_lshift_func_int8_t_s_u>
   174d2:	84 c0                	test   %al,%al
   174d4:	75 38                	jne    1750e <func_43+0x2a7c>
   174d6:	48 8b 05 8b 9f 00 00 	mov    0x9f8b(%rip),%rax        # 21468 <g_83>
   174dd:	0f b7 00             	movzwl (%rax),%eax
   174e0:	98                   	cwtl   
   174e1:	be fc 4e 00 00       	mov    $0x4efc,%esi
   174e6:	89 c7                	mov    %eax,%edi
   174e8:	e8 e6 0e ff ff       	callq  83d3 <safe_sub_func_int16_t_s_s>
   174ed:	0f be 85 b0 e0 ff ff 	movsbl -0x1f50(%rbp),%eax
   174f4:	89 c6                	mov    %eax,%esi
   174f6:	bf 00 00 00 00       	mov    $0x0,%edi
   174fb:	e8 6a 0d ff ff       	callq  826a <safe_div_func_int8_t_s_s>
   17500:	84 c0                	test   %al,%al
   17502:	75 0a                	jne    1750e <func_43+0x2a7c>
   17504:	66 83 bd b4 e0 ff ff 	cmpw   $0x0,-0x1f4c(%rbp)
   1750b:	00 
   1750c:	74 07                	je     17515 <func_43+0x2a83>
   1750e:	ba 01 00 00 00       	mov    $0x1,%edx
   17513:	eb 05                	jmp    1751a <func_43+0x2a88>
   17515:	ba 00 00 00 00       	mov    $0x0,%edx
   1751a:	48 8b 85 60 e1 ff ff 	mov    -0x1ea0(%rbp),%rax
   17521:	48 8b 00             	mov    (%rax),%rax
   17524:	48 8b 00             	mov    (%rax),%rax
   17527:	48 8b 00             	mov    (%rax),%rax
   1752a:	8b 00                	mov    (%rax),%eax
   1752c:	39 c2                	cmp    %eax,%edx
   1752e:	89 de                	mov    %ebx,%esi
   17530:	bf ff ff ff ff       	mov    $0xffffffff,%edi
   17535:	e8 d8 0c ff ff       	callq  8212 <safe_mul_func_int8_t_s_s>
   1753a:	0f be c0             	movsbl %al,%eax
   1753d:	89 c7                	mov    %eax,%edi
   1753f:	e8 7b 0c ff ff       	callq  81bf <safe_unary_minus_func_int8_t_s>
   17544:	0f be c0             	movsbl %al,%eax
   17547:	be 02 00 00 00       	mov    $0x2,%esi
   1754c:	89 c7                	mov    %eax,%edi
   1754e:	e8 65 19 ff ff       	callq  8eb8 <safe_add_func_uint32_t_u_u>
   17553:	0f b7 d0             	movzwl %ax,%edx
   17556:	0f b7 85 b4 e0 ff ff 	movzwl -0x1f4c(%rbp),%eax
   1755d:	0f b7 c0             	movzwl %ax,%eax
   17560:	89 d6                	mov    %edx,%esi
   17562:	89 c7                	mov    %eax,%edi
   17564:	e8 d4 17 ff ff       	callq  8d3d <safe_mul_func_uint16_t_u_u>
   17569:	0f b7 d0             	movzwl %ax,%edx
   1756c:	8b 05 ea 7a 00 00    	mov    0x7aea(%rip),%eax        # 1f05c <g_73>
   17572:	09 d0                	or     %edx,%eax
   17574:	89 05 e2 7a 00 00    	mov    %eax,0x7ae2(%rip)        # 1f05c <g_73>
   1757a:	48 8b 05 2f 9f 00 00 	mov    0x9f2f(%rip),%rax        # 214b0 <g_206>
   17581:	48 8b 00             	mov    (%rax),%rax
   17584:	48 8b 00             	mov    (%rax),%rax
   17587:	8b 00                	mov    (%rax),%eax
   17589:	85 c0                	test   %eax,%eax
   1758b:	75 7e                	jne    1760b <func_43+0x2b79>
   1758d:	c6 85 c9 e0 ff ff 02 	movb   $0x2,-0x1f37(%rbp)
   17594:	eb 6a                	jmp    17600 <func_43+0x2b6e>
   17596:	48 8b 15 63 a0 00 00 	mov    0xa063(%rip),%rdx        # 21600 <g_356+0x40>
   1759d:	48 8b 05 84 a3 00 00 	mov    0xa384(%rip),%rax        # 21928 <g_359>
   175a4:	48 39 c2             	cmp    %rax,%rdx
   175a7:	0f 95 c2             	setne  %dl
   175aa:	48 8b 85 60 e1 ff ff 	mov    -0x1ea0(%rbp),%rax
   175b1:	48 8b 00             	mov    (%rax),%rax
   175b4:	48 8b 00             	mov    (%rax),%rax
   175b7:	48 8b 00             	mov    (%rax),%rax
   175ba:	0f b6 d2             	movzbl %dl,%edx
   175bd:	89 10                	mov    %edx,(%rax)
   175bf:	48 8b 05 7a 9e 00 00 	mov    0x9e7a(%rip),%rax        # 21440 <g_61>
   175c6:	8b 00                	mov    (%rax),%eax
   175c8:	85 c0                	test   %eax,%eax
   175ca:	75 23                	jne    175ef <func_43+0x2b5d>
   175cc:	48 8b 05 ad 9e 00 00 	mov    0x9ead(%rip),%rax        # 21480 <g_145>
   175d3:	48 c7 00 00 00 00 00 	movq   $0x0,(%rax)
   175da:	48 8b 05 cf 9e 00 00 	mov    0x9ecf(%rip),%rax        # 214b0 <g_206>
   175e1:	48 8b 00             	mov    (%rax),%rax
   175e4:	48 8b 00             	mov    (%rax),%rax
   175e7:	8b 00                	mov    (%rax),%eax
   175e9:	85 c0                	test   %eax,%eax
   175eb:	75 21                	jne    1760e <func_43+0x2b7c>
   175ed:	eb 01                	jmp    175f0 <func_43+0x2b5e>
   175ef:	90                   	nop
   175f0:	0f b6 85 c9 e0 ff ff 	movzbl -0x1f37(%rbp),%eax
   175f7:	83 e8 01             	sub    $0x1,%eax
   175fa:	88 85 c9 e0 ff ff    	mov    %al,-0x1f37(%rbp)
   17600:	80 bd c9 e0 ff ff 00 	cmpb   $0x0,-0x1f37(%rbp)
   17607:	79 8d                	jns    17596 <func_43+0x2b04>
   17609:	eb 04                	jmp    1760f <func_43+0x2b7d>
   1760b:	90                   	nop
   1760c:	eb 01                	jmp    1760f <func_43+0x2b7d>
   1760e:	90                   	nop
   1760f:	0f b6 85 c8 e0 ff ff 	movzbl -0x1f38(%rbp),%eax
   17616:	83 e8 01             	sub    $0x1,%eax
   17619:	88 85 c8 e0 ff ff    	mov    %al,-0x1f38(%rbp)
   1761f:	80 bd c8 e0 ff ff 00 	cmpb   $0x0,-0x1f38(%rbp)
   17626:	0f 89 00 fc ff ff    	jns    1722c <func_43+0x279a>
   1762c:	eb 01                	jmp    1762f <func_43+0x2b9d>
   1762e:	90                   	nop
   1762f:	0f b6 85 b0 e0 ff ff 	movzbl -0x1f50(%rbp),%eax
   17636:	83 c0 01             	add    $0x1,%eax
   17639:	88 85 b0 e0 ff ff    	mov    %al,-0x1f50(%rbp)
   1763f:	80 bd b0 e0 ff ff 07 	cmpb   $0x7,-0x1f50(%rbp)
   17646:	0f 8e 49 e4 ff ff    	jle    15a95 <func_43+0x1003>
   1764c:	0f b7 85 b4 e0 ff ff 	movzwl -0x1f4c(%rbp),%eax
   17653:	48 8b 5d d8          	mov    -0x28(%rbp),%rbx
   17657:	64 48 33 1c 25 28 00 	xor    %fs:0x28,%rbx
   1765e:	00 00 
   17660:	74 05                	je     17667 <func_43+0x2bd5>
   17662:	e8 09 0a ff ff       	callq  8070 <__stack_chk_fail@plt>
   17667:	48 81 c4 38 1f 00 00 	add    $0x1f38,%rsp
   1766e:	5b                   	pop    %rbx
   1766f:	41 5c                	pop    %r12
   17671:	41 5d                	pop    %r13
   17673:	5d                   	pop    %rbp
   17674:	c3                   	retq   

0000000000017675 <func_47>:
   17675:	f3 0f 1e fa          	endbr64 
   17679:	55                   	push   %rbp
   1767a:	48 89 e5             	mov    %rsp,%rbp
   1767d:	89 7d ec             	mov    %edi,-0x14(%rbp)
   17680:	48 89 75 e0          	mov    %rsi,-0x20(%rbp)
   17684:	48 8d 05 a5 79 00 00 	lea    0x79a5(%rip),%rax        # 1f030 <g_39>
   1768b:	48 89 45 f8          	mov    %rax,-0x8(%rbp)
   1768f:	48 8b 45 f8          	mov    -0x8(%rbp),%rax
   17693:	5d                   	pop    %rbp
   17694:	c3                   	retq   

0000000000017695 <main>:
   17695:	f3 0f 1e fa          	endbr64 
   17699:	55                   	push   %rbp
   1769a:	48 89 e5             	mov    %rsp,%rbp
   1769d:	48 83 ec 50          	sub    $0x50,%rsp
   176a1:	89 7d dc             	mov    %edi,-0x24(%rbp)
   176a4:	48 89 75 d0          	mov    %rsi,-0x30(%rbp)
   176a8:	64 48 8b 04 25 28 00 	mov    %fs:0x28,%rax
   176af:	00 00 
   176b1:	48 89 45 f8          	mov    %rax,-0x8(%rbp)
   176b5:	31 c0                	xor    %eax,%eax
   176b7:	c7 45 f4 00 00 00 00 	movl   $0x0,-0xc(%rbp)
   176be:	83 7d dc 02          	cmpl   $0x2,-0x24(%rbp)
   176c2:	75 25                	jne    176e9 <main+0x54>
   176c4:	48 8b 45 d0          	mov    -0x30(%rbp),%rax
   176c8:	48 83 c0 08          	add    $0x8,%rax
   176cc:	48 8b 00             	mov    (%rax),%rax
   176cf:	48 8d 35 6a 4b 00 00 	lea    0x4b6a(%rip),%rsi        # 1c240 <g_1219+0x2130>
   176d6:	48 89 c7             	mov    %rax,%rdi
   176d9:	e8 b2 09 ff ff       	callq  8090 <strcmp@plt>
   176de:	85 c0                	test   %eax,%eax
   176e0:	75 07                	jne    176e9 <main+0x54>
   176e2:	c7 45 f4 01 00 00 00 	movl   $0x1,-0xc(%rbp)
   176e9:	e8 9b 0a ff ff       	callq  8189 <platform_main_begin>
   176ee:	e8 a5 1e ff ff       	callq  9598 <crc32_gentab>
   176f3:	48 8d 45 b0          	lea    -0x50(%rbp),%rax
   176f7:	48 89 c7             	mov    %rax,%rdi
   176fa:	e8 b6 20 ff ff       	callq  97b5 <func_1>
   176ff:	c7 45 e8 00 00 00 00 	movl   $0x0,-0x18(%rbp)
   17706:	eb 4b                	jmp    17753 <main+0xbe>
   17708:	8b 45 e8             	mov    -0x18(%rbp),%eax
   1770b:	48 98                	cltq   
   1770d:	48 8d 14 85 00 00 00 	lea    0x0(,%rax,4),%rdx
   17714:	00 
   17715:	48 8d 05 0c 79 00 00 	lea    0x790c(%rip),%rax        # 1f028 <g_5>
   1771c:	8b 04 02             	mov    (%rdx,%rax,1),%eax
   1771f:	48 98                	cltq   
   17721:	8b 55 f4             	mov    -0xc(%rbp),%edx
   17724:	48 8d 35 17 4b 00 00 	lea    0x4b17(%rip),%rsi        # 1c242 <g_1219+0x2132>
   1772b:	48 89 c7             	mov    %rax,%rdi
   1772e:	e8 c0 1f ff ff       	callq  96f3 <transparent_crc>
   17733:	83 7d f4 00          	cmpl   $0x0,-0xc(%rbp)
   17737:	74 16                	je     1774f <main+0xba>
   17739:	8b 45 e8             	mov    -0x18(%rbp),%eax
   1773c:	89 c6                	mov    %eax,%esi
   1773e:	48 8d 3d 04 4b 00 00 	lea    0x4b04(%rip),%rdi        # 1c249 <g_1219+0x2139>
   17745:	b8 00 00 00 00       	mov    $0x0,%eax
   1774a:	e8 31 09 ff ff       	callq  8080 <printf@plt>
   1774f:	83 45 e8 01          	addl   $0x1,-0x18(%rbp)
   17753:	83 7d e8 01          	cmpl   $0x1,-0x18(%rbp)
   17757:	7e af                	jle    17708 <main+0x73>
   17759:	48 8b 05 d0 78 00 00 	mov    0x78d0(%rip),%rax        # 1f030 <g_39>
   17760:	48 89 c1             	mov    %rax,%rcx
   17763:	8b 45 f4             	mov    -0xc(%rbp),%eax
   17766:	89 c2                	mov    %eax,%edx
   17768:	48 8d 35 e8 4a 00 00 	lea    0x4ae8(%rip),%rsi        # 1c257 <g_1219+0x2147>
   1776f:	48 89 cf             	mov    %rcx,%rdi
   17772:	e8 7c 1f ff ff       	callq  96f3 <transparent_crc>
   17777:	c7 45 e8 00 00 00 00 	movl   $0x0,-0x18(%rbp)
   1777e:	eb 4b                	jmp    177cb <main+0x136>
   17780:	8b 45 e8             	mov    -0x18(%rbp),%eax
   17783:	48 98                	cltq   
   17785:	48 8d 14 85 00 00 00 	lea    0x0(,%rax,4),%rdx
   1778c:	00 
   1778d:	48 8d 05 a4 78 00 00 	lea    0x78a4(%rip),%rax        # 1f038 <g_62>
   17794:	8b 04 02             	mov    (%rdx,%rax,1),%eax
   17797:	48 98                	cltq   
   17799:	8b 55 f4             	mov    -0xc(%rbp),%edx
   1779c:	48 8d 35 b9 4a 00 00 	lea    0x4ab9(%rip),%rsi        # 1c25c <g_1219+0x214c>
   177a3:	48 89 c7             	mov    %rax,%rdi
   177a6:	e8 48 1f ff ff       	callq  96f3 <transparent_crc>
   177ab:	83 7d f4 00          	cmpl   $0x0,-0xc(%rbp)
   177af:	74 16                	je     177c7 <main+0x132>
   177b1:	8b 45 e8             	mov    -0x18(%rbp),%eax
   177b4:	89 c6                	mov    %eax,%esi
   177b6:	48 8d 3d 8c 4a 00 00 	lea    0x4a8c(%rip),%rdi        # 1c249 <g_1219+0x2139>
   177bd:	b8 00 00 00 00       	mov    $0x0,%eax
   177c2:	e8 b9 08 ff ff       	callq  8080 <printf@plt>
   177c7:	83 45 e8 01          	addl   $0x1,-0x18(%rbp)
   177cb:	83 7d e8 02          	cmpl   $0x2,-0x18(%rbp)
   177cf:	7e af                	jle    17780 <main+0xeb>
   177d1:	8b 05 79 78 00 00    	mov    0x7879(%rip),%eax        # 1f050 <g_70>
   177d7:	48 98                	cltq   
   177d9:	8b 55 f4             	mov    -0xc(%rbp),%edx
   177dc:	48 8d 35 81 4a 00 00 	lea    0x4a81(%rip),%rsi        # 1c264 <g_1219+0x2154>
   177e3:	48 89 c7             	mov    %rax,%rdi
   177e6:	e8 08 1f ff ff       	callq  96f3 <transparent_crc>
   177eb:	8b 05 63 78 00 00    	mov    0x7863(%rip),%eax        # 1f054 <g_71>
   177f1:	48 98                	cltq   
   177f3:	8b 55 f4             	mov    -0xc(%rbp),%edx
   177f6:	48 8d 35 6c 4a 00 00 	lea    0x4a6c(%rip),%rsi        # 1c269 <g_1219+0x2159>
   177fd:	48 89 c7             	mov    %rax,%rdi
   17800:	e8 ee 1e ff ff       	callq  96f3 <transparent_crc>
   17805:	8b 05 4d 78 00 00    	mov    0x784d(%rip),%eax        # 1f058 <g_72>
   1780b:	48 98                	cltq   
   1780d:	8b 55 f4             	mov    -0xc(%rbp),%edx
   17810:	48 8d 35 57 4a 00 00 	lea    0x4a57(%rip),%rsi        # 1c26e <g_1219+0x215e>
   17817:	48 89 c7             	mov    %rax,%rdi
   1781a:	e8 d4 1e ff ff       	callq  96f3 <transparent_crc>
   1781f:	8b 05 37 78 00 00    	mov    0x7837(%rip),%eax        # 1f05c <g_73>
   17825:	48 98                	cltq   
   17827:	8b 55 f4             	mov    -0xc(%rbp),%edx
   1782a:	48 8d 35 42 4a 00 00 	lea    0x4a42(%rip),%rsi        # 1c273 <g_1219+0x2163>
   17831:	48 89 c7             	mov    %rax,%rdi
   17834:	e8 ba 1e ff ff       	callq  96f3 <transparent_crc>
   17839:	0f b7 05 20 78 00 00 	movzwl 0x7820(%rip),%eax        # 1f060 <g_77>
   17840:	48 0f bf c0          	movswq %ax,%rax
   17844:	8b 55 f4             	mov    -0xc(%rbp),%edx
   17847:	48 8d 35 2a 4a 00 00 	lea    0x4a2a(%rip),%rsi        # 1c278 <g_1219+0x2168>
   1784e:	48 89 c7             	mov    %rax,%rdi
   17851:	e8 9d 1e ff ff       	callq  96f3 <transparent_crc>
   17856:	0f b7 05 05 78 00 00 	movzwl 0x7805(%rip),%eax        # 1f062 <g_84>
   1785d:	48 0f bf c0          	movswq %ax,%rax
   17861:	8b 55 f4             	mov    -0xc(%rbp),%edx
   17864:	48 8d 35 12 4a 00 00 	lea    0x4a12(%rip),%rsi        # 1c27d <g_1219+0x216d>
   1786b:	48 89 c7             	mov    %rax,%rdi
   1786e:	e8 80 1e ff ff       	callq  96f3 <transparent_crc>
   17873:	0f b6 05 ea 77 00 00 	movzbl 0x77ea(%rip),%eax        # 1f064 <g_90>
   1787a:	0f b6 c0             	movzbl %al,%eax
   1787d:	8b 55 f4             	mov    -0xc(%rbp),%edx
   17880:	48 8d 35 fb 49 00 00 	lea    0x49fb(%rip),%rsi        # 1c282 <g_1219+0x2172>
   17887:	48 89 c7             	mov    %rax,%rdi
   1788a:	e8 64 1e ff ff       	callq  96f3 <transparent_crc>
   1788f:	0f b6 05 da 77 00 00 	movzbl 0x77da(%rip),%eax        # 1f070 <g_121>
   17896:	83 e0 03             	and    $0x3,%eax
   17899:	0f b6 c0             	movzbl %al,%eax
   1789c:	8b 55 f4             	mov    -0xc(%rbp),%edx
   1789f:	48 8d 35 e1 49 00 00 	lea    0x49e1(%rip),%rsi        # 1c287 <g_1219+0x2177>
   178a6:	48 89 c7             	mov    %rax,%rdi
   178a9:	e8 45 1e ff ff       	callq  96f3 <transparent_crc>
   178ae:	0f b6 05 bc 77 00 00 	movzbl 0x77bc(%rip),%eax        # 1f071 <g_121+0x1>
   178b5:	0f b6 c0             	movzbl %al,%eax
   178b8:	8b 55 f4             	mov    -0xc(%rbp),%edx
   178bb:	48 8d 35 ce 49 00 00 	lea    0x49ce(%rip),%rsi        # 1c290 <g_1219+0x2180>
   178c2:	48 89 c7             	mov    %rax,%rdi
   178c5:	e8 29 1e ff ff       	callq  96f3 <transparent_crc>
   178ca:	0f b7 05 a1 77 00 00 	movzwl 0x77a1(%rip),%eax        # 1f072 <g_121+0x2>
   178d1:	0f b7 c0             	movzwl %ax,%eax
   178d4:	8b 55 f4             	mov    -0xc(%rbp),%edx
   178d7:	48 8d 35 bb 49 00 00 	lea    0x49bb(%rip),%rsi        # 1c299 <g_1219+0x2189>
   178de:	48 89 c7             	mov    %rax,%rdi
   178e1:	e8 0d 1e ff ff       	callq  96f3 <transparent_crc>
   178e6:	0f b6 05 87 77 00 00 	movzbl 0x7787(%rip),%eax        # 1f074 <g_121+0x4>
   178ed:	83 e0 7f             	and    $0x7f,%eax
   178f0:	0f b6 c0             	movzbl %al,%eax
   178f3:	8b 55 f4             	mov    -0xc(%rbp),%edx
   178f6:	48 8d 35 a5 49 00 00 	lea    0x49a5(%rip),%rsi        # 1c2a2 <g_1219+0x2192>
   178fd:	48 89 c7             	mov    %rax,%rdi
   17900:	e8 ee 1d ff ff       	callq  96f3 <transparent_crc>
   17905:	8b 05 6d 77 00 00    	mov    0x776d(%rip),%eax        # 1f078 <g_121+0x8>
   1790b:	89 c1                	mov    %eax,%ecx
   1790d:	8b 45 f4             	mov    -0xc(%rbp),%eax
   17910:	89 c2                	mov    %eax,%edx
   17912:	48 8d 35 92 49 00 00 	lea    0x4992(%rip),%rsi        # 1c2ab <g_1219+0x219b>
   17919:	48 89 cf             	mov    %rcx,%rdi
   1791c:	e8 d2 1d ff ff       	callq  96f3 <transparent_crc>
   17921:	0f b7 05 54 77 00 00 	movzwl 0x7754(%rip),%eax        # 1f07c <g_121+0xc>
   17928:	0f b7 c0             	movzwl %ax,%eax
   1792b:	8b 55 f4             	mov    -0xc(%rbp),%edx
   1792e:	48 8d 35 7f 49 00 00 	lea    0x497f(%rip),%rsi        # 1c2b4 <g_1219+0x21a4>
   17935:	48 89 c7             	mov    %rax,%rdi
   17938:	e8 b6 1d ff ff       	callq  96f3 <transparent_crc>
   1793d:	0f b7 05 3a 77 00 00 	movzwl 0x773a(%rip),%eax        # 1f07e <g_121+0xe>
   17944:	0f b7 c0             	movzwl %ax,%eax
   17947:	8b 55 f4             	mov    -0xc(%rbp),%edx
   1794a:	48 8d 35 6c 49 00 00 	lea    0x496c(%rip),%rsi        # 1c2bd <g_1219+0x21ad>
   17951:	48 89 c7             	mov    %rax,%rdi
   17954:	e8 9a 1d ff ff       	callq  96f3 <transparent_crc>
   17959:	48 8b 05 20 77 00 00 	mov    0x7720(%rip),%rax        # 1f080 <g_121+0x10>
   17960:	c1 e0 02             	shl    $0x2,%eax
   17963:	c1 f8 02             	sar    $0x2,%eax
   17966:	48 98                	cltq   
   17968:	8b 55 f4             	mov    -0xc(%rbp),%edx
   1796b:	48 8d 35 54 49 00 00 	lea    0x4954(%rip),%rsi        # 1c2c6 <g_1219+0x21b6>
   17972:	48 89 c7             	mov    %rax,%rdi
   17975:	e8 79 1d ff ff       	callq  96f3 <transparent_crc>
   1797a:	0f b7 05 03 77 00 00 	movzwl 0x7703(%rip),%eax        # 1f084 <g_121+0x14>
   17981:	66 25 ff 1f          	and    $0x1fff,%ax
   17985:	0f b7 c0             	movzwl %ax,%eax
   17988:	8b 55 f4             	mov    -0xc(%rbp),%edx
   1798b:	48 8d 35 3d 49 00 00 	lea    0x493d(%rip),%rsi        # 1c2cf <g_1219+0x21bf>
   17992:	48 89 c7             	mov    %rax,%rdi
   17995:	e8 59 1d ff ff       	callq  96f3 <transparent_crc>
   1799a:	48 8b 05 ef 76 00 00 	mov    0x76ef(%rip),%rax        # 1f090 <g_140>
   179a1:	83 e0 03             	and    $0x3,%eax
   179a4:	0f b6 c0             	movzbl %al,%eax
   179a7:	8b 55 f4             	mov    -0xc(%rbp),%edx
   179aa:	48 8d 35 27 49 00 00 	lea    0x4927(%rip),%rsi        # 1c2d8 <g_1219+0x21c8>
   179b1:	48 89 c7             	mov    %rax,%rdi
   179b4:	e8 3a 1d ff ff       	callq  96f3 <transparent_crc>
   179b9:	0f b6 05 d1 76 00 00 	movzbl 0x76d1(%rip),%eax        # 1f091 <g_140+0x1>
   179c0:	0f b6 c0             	movzbl %al,%eax
   179c3:	8b 55 f4             	mov    -0xc(%rbp),%edx
   179c6:	48 8d 35 14 49 00 00 	lea    0x4914(%rip),%rsi        # 1c2e1 <g_1219+0x21d1>
   179cd:	48 89 c7             	mov    %rax,%rdi
   179d0:	e8 1e 1d ff ff       	callq  96f3 <transparent_crc>
   179d5:	0f b7 05 b6 76 00 00 	movzwl 0x76b6(%rip),%eax        # 1f092 <g_140+0x2>
   179dc:	0f b7 c0             	movzwl %ax,%eax
   179df:	8b 55 f4             	mov    -0xc(%rbp),%edx
   179e2:	48 8d 35 01 49 00 00 	lea    0x4901(%rip),%rsi        # 1c2ea <g_1219+0x21da>
   179e9:	48 89 c7             	mov    %rax,%rdi
   179ec:	e8 02 1d ff ff       	callq  96f3 <transparent_crc>
   179f1:	48 8b 05 98 76 00 00 	mov    0x7698(%rip),%rax        # 1f090 <g_140>
   179f8:	48 c1 e8 20          	shr    $0x20,%rax
   179fc:	83 e0 7f             	and    $0x7f,%eax
   179ff:	0f b6 c0             	movzbl %al,%eax
   17a02:	8b 55 f4             	mov    -0xc(%rbp),%edx
   17a05:	48 8d 35 e7 48 00 00 	lea    0x48e7(%rip),%rsi        # 1c2f3 <g_1219+0x21e3>
   17a0c:	48 89 c7             	mov    %rax,%rdi
   17a0f:	e8 df 1c ff ff       	callq  96f3 <transparent_crc>
   17a14:	8b 05 7e 76 00 00    	mov    0x767e(%rip),%eax        # 1f098 <g_140+0x8>
   17a1a:	89 c1                	mov    %eax,%ecx
   17a1c:	8b 45 f4             	mov    -0xc(%rbp),%eax
   17a1f:	89 c2                	mov    %eax,%edx
   17a21:	48 8d 35 d4 48 00 00 	lea    0x48d4(%rip),%rsi        # 1c2fc <g_1219+0x21ec>
   17a28:	48 89 cf             	mov    %rcx,%rdi
   17a2b:	e8 c3 1c ff ff       	callq  96f3 <transparent_crc>
   17a30:	0f b7 05 65 76 00 00 	movzwl 0x7665(%rip),%eax        # 1f09c <g_140+0xc>
   17a37:	0f b7 c0             	movzwl %ax,%eax
   17a3a:	8b 55 f4             	mov    -0xc(%rbp),%edx
   17a3d:	48 8d 35 c1 48 00 00 	lea    0x48c1(%rip),%rsi        # 1c305 <g_1219+0x21f5>
   17a44:	48 89 c7             	mov    %rax,%rdi
   17a47:	e8 a7 1c ff ff       	callq  96f3 <transparent_crc>
   17a4c:	0f b7 05 4b 76 00 00 	movzwl 0x764b(%rip),%eax        # 1f09e <g_140+0xe>
   17a53:	0f b7 c0             	movzwl %ax,%eax
   17a56:	8b 55 f4             	mov    -0xc(%rbp),%edx
   17a59:	48 8d 35 ae 48 00 00 	lea    0x48ae(%rip),%rsi        # 1c30e <g_1219+0x21fe>
   17a60:	48 89 c7             	mov    %rax,%rdi
   17a63:	e8 8b 1c ff ff       	callq  96f3 <transparent_crc>
   17a68:	48 8b 05 31 76 00 00 	mov    0x7631(%rip),%rax        # 1f0a0 <g_140+0x10>
   17a6f:	c1 e0 02             	shl    $0x2,%eax
   17a72:	c1 f8 02             	sar    $0x2,%eax
   17a75:	48 98                	cltq   
   17a77:	8b 55 f4             	mov    -0xc(%rbp),%edx
   17a7a:	48 8d 35 96 48 00 00 	lea    0x4896(%rip),%rsi        # 1c317 <g_1219+0x2207>
   17a81:	48 89 c7             	mov    %rax,%rdi
   17a84:	e8 6a 1c ff ff       	callq  96f3 <transparent_crc>
   17a89:	48 8b 05 10 76 00 00 	mov    0x7610(%rip),%rax        # 1f0a0 <g_140+0x10>
   17a90:	48 c1 e8 20          	shr    $0x20,%rax
   17a94:	66 25 ff 1f          	and    $0x1fff,%ax
   17a98:	0f b7 c0             	movzwl %ax,%eax
   17a9b:	8b 55 f4             	mov    -0xc(%rbp),%edx
   17a9e:	48 8d 35 7b 48 00 00 	lea    0x487b(%rip),%rsi        # 1c320 <g_1219+0x2210>
   17aa5:	48 89 c7             	mov    %rax,%rdi
   17aa8:	e8 46 1c ff ff       	callq  96f3 <transparent_crc>
   17aad:	8b 05 f5 75 00 00    	mov    0x75f5(%rip),%eax        # 1f0a8 <g_147>
   17ab3:	48 98                	cltq   
   17ab5:	8b 55 f4             	mov    -0xc(%rbp),%edx
   17ab8:	48 8d 35 6a 48 00 00 	lea    0x486a(%rip),%rsi        # 1c329 <g_1219+0x2219>
   17abf:	48 89 c7             	mov    %rax,%rdi
   17ac2:	e8 2c 1c ff ff       	callq  96f3 <transparent_crc>
   17ac7:	0f b7 05 de 75 00 00 	movzwl 0x75de(%rip),%eax        # 1f0ac <g_158>
   17ace:	0f b7 c0             	movzwl %ax,%eax
   17ad1:	8b 55 f4             	mov    -0xc(%rbp),%edx
   17ad4:	48 8d 35 54 48 00 00 	lea    0x4854(%rip),%rsi        # 1c32f <g_1219+0x221f>
   17adb:	48 89 c7             	mov    %rax,%rdi
   17ade:	e8 10 1c ff ff       	callq  96f3 <transparent_crc>
   17ae3:	c7 45 e8 00 00 00 00 	movl   $0x0,-0x18(%rbp)
   17aea:	eb 77                	jmp    17b63 <main+0x4ce>
   17aec:	c7 45 ec 00 00 00 00 	movl   $0x0,-0x14(%rbp)
   17af3:	eb 64                	jmp    17b59 <main+0x4c4>
   17af5:	8b 45 ec             	mov    -0x14(%rbp),%eax
   17af8:	48 63 c8             	movslq %eax,%rcx
   17afb:	8b 45 e8             	mov    -0x18(%rbp),%eax
   17afe:	48 63 d0             	movslq %eax,%rdx
   17b01:	48 89 d0             	mov    %rdx,%rax
   17b04:	48 c1 e0 02          	shl    $0x2,%rax
   17b08:	48 01 d0             	add    %rdx,%rax
   17b0b:	48 01 c8             	add    %rcx,%rax
   17b0e:	48 8d 14 c5 00 00 00 	lea    0x0(,%rax,8),%rdx
   17b15:	00 
   17b16:	48 8d 05 a3 75 00 00 	lea    0x75a3(%rip),%rax        # 1f0c0 <g_183>
   17b1d:	0f b7 04 02          	movzwl (%rdx,%rax,1),%eax
   17b21:	0f b7 c0             	movzwl %ax,%eax
   17b24:	8b 55 f4             	mov    -0xc(%rbp),%edx
   17b27:	48 8d 35 07 48 00 00 	lea    0x4807(%rip),%rsi        # 1c335 <g_1219+0x2225>
   17b2e:	48 89 c7             	mov    %rax,%rdi
   17b31:	e8 bd 1b ff ff       	callq  96f3 <transparent_crc>
   17b36:	83 7d f4 00          	cmpl   $0x0,-0xc(%rbp)
   17b3a:	74 19                	je     17b55 <main+0x4c0>
   17b3c:	8b 55 ec             	mov    -0x14(%rbp),%edx
   17b3f:	8b 45 e8             	mov    -0x18(%rbp),%eax
   17b42:	89 c6                	mov    %eax,%esi
   17b44:	48 8d 3d f9 47 00 00 	lea    0x47f9(%rip),%rdi        # 1c344 <g_1219+0x2234>
   17b4b:	b8 00 00 00 00       	mov    $0x0,%eax
   17b50:	e8 2b 05 ff ff       	callq  8080 <printf@plt>
   17b55:	83 45 ec 01          	addl   $0x1,-0x14(%rbp)
   17b59:	83 7d ec 04          	cmpl   $0x4,-0x14(%rbp)
   17b5d:	7e 96                	jle    17af5 <main+0x460>
   17b5f:	83 45 e8 01          	addl   $0x1,-0x18(%rbp)
   17b63:	83 7d e8 05          	cmpl   $0x5,-0x18(%rbp)
   17b67:	7e 83                	jle    17aec <main+0x457>
   17b69:	8b 05 41 76 00 00    	mov    0x7641(%rip),%eax        # 1f1b0 <g_200>
   17b6f:	89 c1                	mov    %eax,%ecx
   17b71:	8b 45 f4             	mov    -0xc(%rbp),%eax
   17b74:	89 c2                	mov    %eax,%edx
   17b76:	48 8d 35 d9 47 00 00 	lea    0x47d9(%rip),%rsi        # 1c356 <g_1219+0x2246>
   17b7d:	48 89 cf             	mov    %rcx,%rdi
   17b80:	e8 6e 1b ff ff       	callq  96f3 <transparent_crc>
   17b85:	0f b7 05 28 76 00 00 	movzwl 0x7628(%rip),%eax        # 1f1b4 <g_291>
   17b8c:	48 0f bf c0          	movswq %ax,%rax
   17b90:	8b 55 f4             	mov    -0xc(%rbp),%edx
   17b93:	48 8d 35 c2 47 00 00 	lea    0x47c2(%rip),%rsi        # 1c35c <g_1219+0x224c>
   17b9a:	48 89 c7             	mov    %rax,%rdi
   17b9d:	e8 51 1b ff ff       	callq  96f3 <transparent_crc>
   17ba2:	c7 45 e8 00 00 00 00 	movl   $0x0,-0x18(%rbp)
   17ba9:	eb 45                	jmp    17bf0 <main+0x55b>
   17bab:	8b 45 e8             	mov    -0x18(%rbp),%eax
   17bae:	48 98                	cltq   
   17bb0:	48 8d 15 ff 75 00 00 	lea    0x75ff(%rip),%rdx        # 1f1b6 <g_341>
   17bb7:	0f b6 04 10          	movzbl (%rax,%rdx,1),%eax
   17bbb:	0f b6 c0             	movzbl %al,%eax
   17bbe:	8b 55 f4             	mov    -0xc(%rbp),%edx
   17bc1:	48 8d 35 9a 47 00 00 	lea    0x479a(%rip),%rsi        # 1c362 <g_1219+0x2252>
   17bc8:	48 89 c7             	mov    %rax,%rdi
   17bcb:	e8 23 1b ff ff       	callq  96f3 <transparent_crc>
   17bd0:	83 7d f4 00          	cmpl   $0x0,-0xc(%rbp)
   17bd4:	74 16                	je     17bec <main+0x557>
   17bd6:	8b 45 e8             	mov    -0x18(%rbp),%eax
   17bd9:	89 c6                	mov    %eax,%esi
   17bdb:	48 8d 3d 67 46 00 00 	lea    0x4667(%rip),%rdi        # 1c249 <g_1219+0x2139>
   17be2:	b8 00 00 00 00       	mov    $0x0,%eax
   17be7:	e8 94 04 ff ff       	callq  8080 <printf@plt>
   17bec:	83 45 e8 01          	addl   $0x1,-0x18(%rbp)
   17bf0:	83 7d e8 06          	cmpl   $0x6,-0x18(%rbp)
   17bf4:	7e b5                	jle    17bab <main+0x516>
   17bf6:	8b 05 c4 75 00 00    	mov    0x75c4(%rip),%eax        # 1f1c0 <g_358>
   17bfc:	89 c1                	mov    %eax,%ecx
   17bfe:	8b 45 f4             	mov    -0xc(%rbp),%eax
   17c01:	89 c2                	mov    %eax,%edx
   17c03:	48 8d 35 61 47 00 00 	lea    0x4761(%rip),%rsi        # 1c36b <g_1219+0x225b>
   17c0a:	48 89 cf             	mov    %rcx,%rdi
   17c0d:	e8 e1 1a ff ff       	callq  96f3 <transparent_crc>
   17c12:	0f b7 05 ab 75 00 00 	movzwl 0x75ab(%rip),%eax        # 1f1c4 <g_367>
   17c19:	0f b7 c0             	movzwl %ax,%eax
   17c1c:	8b 55 f4             	mov    -0xc(%rbp),%edx
   17c1f:	48 8d 35 4b 47 00 00 	lea    0x474b(%rip),%rsi        # 1c371 <g_1219+0x2261>
   17c26:	48 89 c7             	mov    %rax,%rdi
   17c29:	e8 c5 1a ff ff       	callq  96f3 <transparent_crc>
   17c2e:	8b 05 94 75 00 00    	mov    0x7594(%rip),%eax        # 1f1c8 <g_418>
   17c34:	89 c1                	mov    %eax,%ecx
   17c36:	8b 45 f4             	mov    -0xc(%rbp),%eax
   17c39:	89 c2                	mov    %eax,%edx
   17c3b:	48 8d 35 35 47 00 00 	lea    0x4735(%rip),%rsi        # 1c377 <g_1219+0x2267>
   17c42:	48 89 cf             	mov    %rcx,%rdi
   17c45:	e8 a9 1a ff ff       	callq  96f3 <transparent_crc>
   17c4a:	c7 45 e8 00 00 00 00 	movl   $0x0,-0x18(%rbp)
   17c51:	eb 49                	jmp    17c9c <main+0x607>
   17c53:	8b 45 e8             	mov    -0x18(%rbp),%eax
   17c56:	48 98                	cltq   
   17c58:	48 8d 14 00          	lea    (%rax,%rax,1),%rdx
   17c5c:	48 8d 05 69 75 00 00 	lea    0x7569(%rip),%rax        # 1f1cc <g_422>
   17c63:	0f b7 04 02          	movzwl (%rdx,%rax,1),%eax
   17c67:	0f b7 c0             	movzwl %ax,%eax
   17c6a:	8b 55 f4             	mov    -0xc(%rbp),%edx
   17c6d:	48 8d 35 09 47 00 00 	lea    0x4709(%rip),%rsi        # 1c37d <g_1219+0x226d>
   17c74:	48 89 c7             	mov    %rax,%rdi
   17c77:	e8 77 1a ff ff       	callq  96f3 <transparent_crc>
   17c7c:	83 7d f4 00          	cmpl   $0x0,-0xc(%rbp)
   17c80:	74 16                	je     17c98 <main+0x603>
   17c82:	8b 45 e8             	mov    -0x18(%rbp),%eax
   17c85:	89 c6                	mov    %eax,%esi
   17c87:	48 8d 3d bb 45 00 00 	lea    0x45bb(%rip),%rdi        # 1c249 <g_1219+0x2139>
   17c8e:	b8 00 00 00 00       	mov    $0x0,%eax
   17c93:	e8 e8 03 ff ff       	callq  8080 <printf@plt>
   17c98:	83 45 e8 01          	addl   $0x1,-0x18(%rbp)
   17c9c:	83 7d e8 00          	cmpl   $0x0,-0x18(%rbp)
   17ca0:	7e b1                	jle    17c53 <main+0x5be>
   17ca2:	c7 45 e8 00 00 00 00 	movl   $0x0,-0x18(%rbp)
   17ca9:	eb 46                	jmp    17cf1 <main+0x65c>
   17cab:	8b 45 e8             	mov    -0x18(%rbp),%eax
   17cae:	48 98                	cltq   
   17cb0:	48 8d 15 19 75 00 00 	lea    0x7519(%rip),%rdx        # 1f1d0 <g_426>
   17cb7:	0f b6 04 10          	movzbl (%rax,%rdx,1),%eax
   17cbb:	48 0f be c0          	movsbq %al,%rax
   17cbf:	8b 55 f4             	mov    -0xc(%rbp),%edx
   17cc2:	48 8d 35 bd 46 00 00 	lea    0x46bd(%rip),%rsi        # 1c386 <g_1219+0x2276>
   17cc9:	48 89 c7             	mov    %rax,%rdi
   17ccc:	e8 22 1a ff ff       	callq  96f3 <transparent_crc>
   17cd1:	83 7d f4 00          	cmpl   $0x0,-0xc(%rbp)
   17cd5:	74 16                	je     17ced <main+0x658>
   17cd7:	8b 45 e8             	mov    -0x18(%rbp),%eax
   17cda:	89 c6                	mov    %eax,%esi
   17cdc:	48 8d 3d 66 45 00 00 	lea    0x4566(%rip),%rdi        # 1c249 <g_1219+0x2139>
   17ce3:	b8 00 00 00 00       	mov    $0x0,%eax
   17ce8:	e8 93 03 ff ff       	callq  8080 <printf@plt>
   17ced:	83 45 e8 01          	addl   $0x1,-0x18(%rbp)
   17cf1:	83 7d e8 07          	cmpl   $0x7,-0x18(%rbp)
   17cf5:	7e b4                	jle    17cab <main+0x616>
   17cf7:	c7 45 e8 00 00 00 00 	movl   $0x0,-0x18(%rbp)
   17cfe:	e9 17 02 00 00       	jmpq   17f1a <main+0x885>
   17d03:	8b 45 e8             	mov    -0x18(%rbp),%eax
   17d06:	48 63 d0             	movslq %eax,%rdx
   17d09:	48 89 d0             	mov    %rdx,%rax
   17d0c:	48 01 c0             	add    %rax,%rax
   17d0f:	48 01 d0             	add    %rdx,%rax
   17d12:	48 c1 e0 03          	shl    $0x3,%rax
   17d16:	48 89 c2             	mov    %rax,%rdx
   17d19:	48 8d 05 c0 74 00 00 	lea    0x74c0(%rip),%rax        # 1f1e0 <g_437>
   17d20:	0f b6 04 02          	movzbl (%rdx,%rax,1),%eax
   17d24:	83 e0 03             	and    $0x3,%eax
   17d27:	0f b6 c0             	movzbl %al,%eax
   17d2a:	8b 55 f4             	mov    -0xc(%rbp),%edx
   17d2d:	48 8d 35 5b 46 00 00 	lea    0x465b(%rip),%rsi        # 1c38f <g_1219+0x227f>
   17d34:	48 89 c7             	mov    %rax,%rdi
   17d37:	e8 b7 19 ff ff       	callq  96f3 <transparent_crc>
   17d3c:	8b 45 e8             	mov    -0x18(%rbp),%eax
   17d3f:	48 63 d0             	movslq %eax,%rdx
   17d42:	48 89 d0             	mov    %rdx,%rax
   17d45:	48 01 c0             	add    %rax,%rax
   17d48:	48 01 d0             	add    %rdx,%rax
   17d4b:	48 c1 e0 03          	shl    $0x3,%rax
   17d4f:	48 89 c2             	mov    %rax,%rdx
   17d52:	48 8d 05 88 74 00 00 	lea    0x7488(%rip),%rax        # 1f1e1 <g_437+0x1>
   17d59:	0f b6 04 02          	movzbl (%rdx,%rax,1),%eax
   17d5d:	0f b6 c0             	movzbl %al,%eax
   17d60:	8b 55 f4             	mov    -0xc(%rbp),%edx
   17d63:	48 8d 35 31 46 00 00 	lea    0x4631(%rip),%rsi        # 1c39b <g_1219+0x228b>
   17d6a:	48 89 c7             	mov    %rax,%rdi
   17d6d:	e8 81 19 ff ff       	callq  96f3 <transparent_crc>
   17d72:	8b 45 e8             	mov    -0x18(%rbp),%eax
   17d75:	48 63 d0             	movslq %eax,%rdx
   17d78:	48 89 d0             	mov    %rdx,%rax
   17d7b:	48 01 c0             	add    %rax,%rax
   17d7e:	48 01 d0             	add    %rdx,%rax
   17d81:	48 c1 e0 03          	shl    $0x3,%rax
   17d85:	48 89 c2             	mov    %rax,%rdx
   17d88:	48 8d 05 53 74 00 00 	lea    0x7453(%rip),%rax        # 1f1e2 <g_437+0x2>
   17d8f:	0f b7 04 02          	movzwl (%rdx,%rax,1),%eax
   17d93:	0f b7 c0             	movzwl %ax,%eax
   17d96:	8b 55 f4             	mov    -0xc(%rbp),%edx
   17d99:	48 8d 35 07 46 00 00 	lea    0x4607(%rip),%rsi        # 1c3a7 <g_1219+0x2297>
   17da0:	48 89 c7             	mov    %rax,%rdi
   17da3:	e8 4b 19 ff ff       	callq  96f3 <transparent_crc>
   17da8:	8b 45 e8             	mov    -0x18(%rbp),%eax
   17dab:	48 63 d0             	movslq %eax,%rdx
   17dae:	48 89 d0             	mov    %rdx,%rax
   17db1:	48 01 c0             	add    %rax,%rax
   17db4:	48 01 d0             	add    %rdx,%rax
   17db7:	48 c1 e0 03          	shl    $0x3,%rax
   17dbb:	48 89 c2             	mov    %rax,%rdx
   17dbe:	48 8d 05 1b 74 00 00 	lea    0x741b(%rip),%rax        # 1f1e0 <g_437>
   17dc5:	0f b6 44 02 04       	movzbl 0x4(%rdx,%rax,1),%eax
   17dca:	83 e0 7f             	and    $0x7f,%eax
   17dcd:	0f b6 c0             	movzbl %al,%eax
   17dd0:	8b 55 f4             	mov    -0xc(%rbp),%edx
   17dd3:	48 8d 35 d9 45 00 00 	lea    0x45d9(%rip),%rsi        # 1c3b3 <g_1219+0x22a3>
   17dda:	48 89 c7             	mov    %rax,%rdi
   17ddd:	e8 11 19 ff ff       	callq  96f3 <transparent_crc>
   17de2:	8b 45 e8             	mov    -0x18(%rbp),%eax
   17de5:	48 63 d0             	movslq %eax,%rdx
   17de8:	48 89 d0             	mov    %rdx,%rax
   17deb:	48 01 c0             	add    %rax,%rax
   17dee:	48 01 d0             	add    %rdx,%rax
   17df1:	48 c1 e0 03          	shl    $0x3,%rax
   17df5:	48 89 c2             	mov    %rax,%rdx
   17df8:	48 8d 05 e9 73 00 00 	lea    0x73e9(%rip),%rax        # 1f1e8 <g_437+0x8>
   17dff:	8b 04 02             	mov    (%rdx,%rax,1),%eax
   17e02:	89 c1                	mov    %eax,%ecx
   17e04:	8b 45 f4             	mov    -0xc(%rbp),%eax
   17e07:	89 c2                	mov    %eax,%edx
   17e09:	48 8d 35 af 45 00 00 	lea    0x45af(%rip),%rsi        # 1c3bf <g_1219+0x22af>
   17e10:	48 89 cf             	mov    %rcx,%rdi
   17e13:	e8 db 18 ff ff       	callq  96f3 <transparent_crc>
   17e18:	8b 45 e8             	mov    -0x18(%rbp),%eax
   17e1b:	48 63 d0             	movslq %eax,%rdx
   17e1e:	48 89 d0             	mov    %rdx,%rax
   17e21:	48 01 c0             	add    %rax,%rax
   17e24:	48 01 d0             	add    %rdx,%rax
   17e27:	48 c1 e0 03          	shl    $0x3,%rax
   17e2b:	48 89 c2             	mov    %rax,%rdx
   17e2e:	48 8d 05 b7 73 00 00 	lea    0x73b7(%rip),%rax        # 1f1ec <g_437+0xc>
   17e35:	0f b7 04 02          	movzwl (%rdx,%rax,1),%eax
   17e39:	0f b7 c0             	movzwl %ax,%eax
   17e3c:	8b 55 f4             	mov    -0xc(%rbp),%edx
   17e3f:	48 8d 35 85 45 00 00 	lea    0x4585(%rip),%rsi        # 1c3cb <g_1219+0x22bb>
   17e46:	48 89 c7             	mov    %rax,%rdi
   17e49:	e8 a5 18 ff ff       	callq  96f3 <transparent_crc>
   17e4e:	8b 45 e8             	mov    -0x18(%rbp),%eax
   17e51:	48 63 d0             	movslq %eax,%rdx
   17e54:	48 89 d0             	mov    %rdx,%rax
   17e57:	48 01 c0             	add    %rax,%rax
   17e5a:	48 01 d0             	add    %rdx,%rax
   17e5d:	48 c1 e0 03          	shl    $0x3,%rax
   17e61:	48 89 c2             	mov    %rax,%rdx
   17e64:	48 8d 05 83 73 00 00 	lea    0x7383(%rip),%rax        # 1f1ee <g_437+0xe>
   17e6b:	0f b7 04 02          	movzwl (%rdx,%rax,1),%eax
   17e6f:	0f b7 c0             	movzwl %ax,%eax
   17e72:	8b 55 f4             	mov    -0xc(%rbp),%edx
   17e75:	48 8d 35 5b 45 00 00 	lea    0x455b(%rip),%rsi        # 1c3d7 <g_1219+0x22c7>
   17e7c:	48 89 c7             	mov    %rax,%rdi
   17e7f:	e8 6f 18 ff ff       	callq  96f3 <transparent_crc>
   17e84:	8b 45 e8             	mov    -0x18(%rbp),%eax
   17e87:	48 63 d0             	movslq %eax,%rdx
   17e8a:	48 89 d0             	mov    %rdx,%rax
   17e8d:	48 01 c0             	add    %rax,%rax
   17e90:	48 01 d0             	add    %rdx,%rax
   17e93:	48 c1 e0 03          	shl    $0x3,%rax
   17e97:	48 89 c2             	mov    %rax,%rdx
   17e9a:	48 8d 05 4f 73 00 00 	lea    0x734f(%rip),%rax        # 1f1f0 <g_437+0x10>
   17ea1:	48 8b 04 02          	mov    (%rdx,%rax,1),%rax
   17ea5:	c1 e0 02             	shl    $0x2,%eax
   17ea8:	c1 f8 02             	sar    $0x2,%eax
   17eab:	48 98                	cltq   
   17ead:	8b 55 f4             	mov    -0xc(%rbp),%edx
   17eb0:	48 8d 35 2c 45 00 00 	lea    0x452c(%rip),%rsi        # 1c3e3 <g_1219+0x22d3>
   17eb7:	48 89 c7             	mov    %rax,%rdi
   17eba:	e8 34 18 ff ff       	callq  96f3 <transparent_crc>
   17ebf:	8b 45 e8             	mov    -0x18(%rbp),%eax
   17ec2:	48 63 d0             	movslq %eax,%rdx
   17ec5:	48 89 d0             	mov    %rdx,%rax
   17ec8:	48 01 c0             	add    %rax,%rax
   17ecb:	48 01 d0             	add    %rdx,%rax
   17ece:	48 c1 e0 03          	shl    $0x3,%rax
   17ed2:	48 89 c2             	mov    %rax,%rdx
   17ed5:	48 8d 05 14 73 00 00 	lea    0x7314(%rip),%rax        # 1f1f0 <g_437+0x10>
   17edc:	0f b7 44 02 04       	movzwl 0x4(%rdx,%rax,1),%eax
   17ee1:	66 25 ff 1f          	and    $0x1fff,%ax
   17ee5:	0f b7 c0             	movzwl %ax,%eax
   17ee8:	8b 55 f4             	mov    -0xc(%rbp),%edx
   17eeb:	48 8d 35 fd 44 00 00 	lea    0x44fd(%rip),%rsi        # 1c3ef <g_1219+0x22df>
   17ef2:	48 89 c7             	mov    %rax,%rdi
   17ef5:	e8 f9 17 ff ff       	callq  96f3 <transparent_crc>
   17efa:	83 7d f4 00          	cmpl   $0x0,-0xc(%rbp)
   17efe:	74 16                	je     17f16 <main+0x881>
   17f00:	8b 45 e8             	mov    -0x18(%rbp),%eax
   17f03:	89 c6                	mov    %eax,%esi
   17f05:	48 8d 3d 3d 43 00 00 	lea    0x433d(%rip),%rdi        # 1c249 <g_1219+0x2139>
   17f0c:	b8 00 00 00 00       	mov    $0x0,%eax
   17f11:	e8 6a 01 ff ff       	callq  8080 <printf@plt>
   17f16:	83 45 e8 01          	addl   $0x1,-0x18(%rbp)
   17f1a:	83 7d e8 06          	cmpl   $0x6,-0x18(%rbp)
   17f1e:	0f 8e df fd ff ff    	jle    17d03 <main+0x66e>
   17f24:	48 8b 05 5d 73 00 00 	mov    0x735d(%rip),%rax        # 1f288 <g_537>
   17f2b:	8b 55 f4             	mov    -0xc(%rbp),%edx
   17f2e:	48 8d 35 c6 44 00 00 	lea    0x44c6(%rip),%rsi        # 1c3fb <g_1219+0x22eb>
   17f35:	48 89 c7             	mov    %rax,%rdi
   17f38:	e8 b6 17 ff ff       	callq  96f3 <transparent_crc>
   17f3d:	0f b7 05 4c 73 00 00 	movzwl 0x734c(%rip),%eax        # 1f290 <g_551>
   17f44:	0f b7 c0             	movzwl %ax,%eax
   17f47:	8b 55 f4             	mov    -0xc(%rbp),%edx
   17f4a:	48 8d 35 b0 44 00 00 	lea    0x44b0(%rip),%rsi        # 1c401 <g_1219+0x22f1>
   17f51:	48 89 c7             	mov    %rax,%rdi
   17f54:	e8 9a 17 ff ff       	callq  96f3 <transparent_crc>
   17f59:	8b 05 31 73 00 00    	mov    0x7331(%rip),%eax        # 1f290 <g_551>
   17f5f:	48 98                	cltq   
   17f61:	8b 55 f4             	mov    -0xc(%rbp),%edx
   17f64:	48 8d 35 9f 44 00 00 	lea    0x449f(%rip),%rsi        # 1c40a <g_1219+0x22fa>
   17f6b:	48 89 c7             	mov    %rax,%rdi
   17f6e:	e8 80 17 ff ff       	callq  96f3 <transparent_crc>
   17f73:	0f b6 05 26 73 00 00 	movzbl 0x7326(%rip),%eax        # 1f2a0 <g_616>
   17f7a:	83 e0 03             	and    $0x3,%eax
   17f7d:	0f b6 c0             	movzbl %al,%eax
   17f80:	8b 55 f4             	mov    -0xc(%rbp),%edx
   17f83:	48 8d 35 89 44 00 00 	lea    0x4489(%rip),%rsi        # 1c413 <g_1219+0x2303>
   17f8a:	48 89 c7             	mov    %rax,%rdi
   17f8d:	e8 61 17 ff ff       	callq  96f3 <transparent_crc>
   17f92:	0f b6 05 08 73 00 00 	movzbl 0x7308(%rip),%eax        # 1f2a1 <g_616+0x1>
   17f99:	0f b6 c0             	movzbl %al,%eax
   17f9c:	8b 55 f4             	mov    -0xc(%rbp),%edx
   17f9f:	48 8d 35 76 44 00 00 	lea    0x4476(%rip),%rsi        # 1c41c <g_1219+0x230c>
   17fa6:	48 89 c7             	mov    %rax,%rdi
   17fa9:	e8 45 17 ff ff       	callq  96f3 <transparent_crc>
   17fae:	0f b7 05 ed 72 00 00 	movzwl 0x72ed(%rip),%eax        # 1f2a2 <g_616+0x2>
   17fb5:	0f b7 c0             	movzwl %ax,%eax
   17fb8:	8b 55 f4             	mov    -0xc(%rbp),%edx
   17fbb:	48 8d 35 63 44 00 00 	lea    0x4463(%rip),%rsi        # 1c425 <g_1219+0x2315>
   17fc2:	48 89 c7             	mov    %rax,%rdi
   17fc5:	e8 29 17 ff ff       	callq  96f3 <transparent_crc>
   17fca:	0f b6 05 d3 72 00 00 	movzbl 0x72d3(%rip),%eax        # 1f2a4 <g_616+0x4>
   17fd1:	83 e0 7f             	and    $0x7f,%eax
   17fd4:	0f b6 c0             	movzbl %al,%eax
   17fd7:	8b 55 f4             	mov    -0xc(%rbp),%edx
   17fda:	48 8d 35 4d 44 00 00 	lea    0x444d(%rip),%rsi        # 1c42e <g_1219+0x231e>
   17fe1:	48 89 c7             	mov    %rax,%rdi
   17fe4:	e8 0a 17 ff ff       	callq  96f3 <transparent_crc>
   17fe9:	8b 05 b9 72 00 00    	mov    0x72b9(%rip),%eax        # 1f2a8 <g_616+0x8>
   17fef:	89 c1                	mov    %eax,%ecx
   17ff1:	8b 45 f4             	mov    -0xc(%rbp),%eax
   17ff4:	89 c2                	mov    %eax,%edx
   17ff6:	48 8d 35 3a 44 00 00 	lea    0x443a(%rip),%rsi        # 1c437 <g_1219+0x2327>
   17ffd:	48 89 cf             	mov    %rcx,%rdi
   18000:	e8 ee 16 ff ff       	callq  96f3 <transparent_crc>
   18005:	0f b7 05 a0 72 00 00 	movzwl 0x72a0(%rip),%eax        # 1f2ac <g_616+0xc>
   1800c:	0f b7 c0             	movzwl %ax,%eax
   1800f:	8b 55 f4             	mov    -0xc(%rbp),%edx
   18012:	48 8d 35 27 44 00 00 	lea    0x4427(%rip),%rsi        # 1c440 <g_1219+0x2330>
   18019:	48 89 c7             	mov    %rax,%rdi
   1801c:	e8 d2 16 ff ff       	callq  96f3 <transparent_crc>
   18021:	0f b7 05 86 72 00 00 	movzwl 0x7286(%rip),%eax        # 1f2ae <g_616+0xe>
   18028:	0f b7 c0             	movzwl %ax,%eax
   1802b:	8b 55 f4             	mov    -0xc(%rbp),%edx
   1802e:	48 8d 35 14 44 00 00 	lea    0x4414(%rip),%rsi        # 1c449 <g_1219+0x2339>
   18035:	48 89 c7             	mov    %rax,%rdi
   18038:	e8 b6 16 ff ff       	callq  96f3 <transparent_crc>
   1803d:	48 8b 05 6c 72 00 00 	mov    0x726c(%rip),%rax        # 1f2b0 <g_616+0x10>
   18044:	c1 e0 02             	shl    $0x2,%eax
   18047:	c1 f8 02             	sar    $0x2,%eax
   1804a:	48 98                	cltq   
   1804c:	8b 55 f4             	mov    -0xc(%rbp),%edx
   1804f:	48 8d 35 fc 43 00 00 	lea    0x43fc(%rip),%rsi        # 1c452 <g_1219+0x2342>
   18056:	48 89 c7             	mov    %rax,%rdi
   18059:	e8 95 16 ff ff       	callq  96f3 <transparent_crc>
   1805e:	0f b7 05 4f 72 00 00 	movzwl 0x724f(%rip),%eax        # 1f2b4 <g_616+0x14>
   18065:	66 25 ff 1f          	and    $0x1fff,%ax
   18069:	0f b7 c0             	movzwl %ax,%eax
   1806c:	8b 55 f4             	mov    -0xc(%rbp),%edx
   1806f:	48 8d 35 e5 43 00 00 	lea    0x43e5(%rip),%rsi        # 1c45b <g_1219+0x234b>
   18076:	48 89 c7             	mov    %rax,%rdi
   18079:	e8 75 16 ff ff       	callq  96f3 <transparent_crc>
   1807e:	c7 45 e8 00 00 00 00 	movl   $0x0,-0x18(%rbp)
   18085:	e9 17 02 00 00       	jmpq   182a1 <main+0xc0c>
   1808a:	8b 45 e8             	mov    -0x18(%rbp),%eax
   1808d:	48 63 d0             	movslq %eax,%rdx
   18090:	48 89 d0             	mov    %rdx,%rax
   18093:	48 01 c0             	add    %rax,%rax
   18096:	48 01 d0             	add    %rdx,%rax
   18099:	48 c1 e0 03          	shl    $0x3,%rax
   1809d:	48 89 c2             	mov    %rax,%rdx
   180a0:	48 8d 05 b9 1f 00 00 	lea    0x1fb9(%rip),%rax        # 1a060 <g_741>
   180a7:	0f b6 04 02          	movzbl (%rdx,%rax,1),%eax
   180ab:	83 e0 03             	and    $0x3,%eax
   180ae:	0f b6 c0             	movzbl %al,%eax
   180b1:	8b 55 f4             	mov    -0xc(%rbp),%edx
   180b4:	48 8d 35 a9 43 00 00 	lea    0x43a9(%rip),%rsi        # 1c464 <g_1219+0x2354>
   180bb:	48 89 c7             	mov    %rax,%rdi
   180be:	e8 30 16 ff ff       	callq  96f3 <transparent_crc>
   180c3:	8b 45 e8             	mov    -0x18(%rbp),%eax
   180c6:	48 63 d0             	movslq %eax,%rdx
   180c9:	48 89 d0             	mov    %rdx,%rax
   180cc:	48 01 c0             	add    %rax,%rax
   180cf:	48 01 d0             	add    %rdx,%rax
   180d2:	48 c1 e0 03          	shl    $0x3,%rax
   180d6:	48 89 c2             	mov    %rax,%rdx
   180d9:	48 8d 05 81 1f 00 00 	lea    0x1f81(%rip),%rax        # 1a061 <g_741+0x1>
   180e0:	0f b6 04 02          	movzbl (%rdx,%rax,1),%eax
   180e4:	0f b6 c0             	movzbl %al,%eax
   180e7:	8b 55 f4             	mov    -0xc(%rbp),%edx
   180ea:	48 8d 35 7f 43 00 00 	lea    0x437f(%rip),%rsi        # 1c470 <g_1219+0x2360>
   180f1:	48 89 c7             	mov    %rax,%rdi
   180f4:	e8 fa 15 ff ff       	callq  96f3 <transparent_crc>
   180f9:	8b 45 e8             	mov    -0x18(%rbp),%eax
   180fc:	48 63 d0             	movslq %eax,%rdx
   180ff:	48 89 d0             	mov    %rdx,%rax
   18102:	48 01 c0             	add    %rax,%rax
   18105:	48 01 d0             	add    %rdx,%rax
   18108:	48 c1 e0 03          	shl    $0x3,%rax
   1810c:	48 89 c2             	mov    %rax,%rdx
   1810f:	48 8d 05 4c 1f 00 00 	lea    0x1f4c(%rip),%rax        # 1a062 <g_741+0x2>
   18116:	0f b7 04 02          	movzwl (%rdx,%rax,1),%eax
   1811a:	0f b7 c0             	movzwl %ax,%eax
   1811d:	8b 55 f4             	mov    -0xc(%rbp),%edx
   18120:	48 8d 35 55 43 00 00 	lea    0x4355(%rip),%rsi        # 1c47c <g_1219+0x236c>
   18127:	48 89 c7             	mov    %rax,%rdi
   1812a:	e8 c4 15 ff ff       	callq  96f3 <transparent_crc>
   1812f:	8b 45 e8             	mov    -0x18(%rbp),%eax
   18132:	48 63 d0             	movslq %eax,%rdx
   18135:	48 89 d0             	mov    %rdx,%rax
   18138:	48 01 c0             	add    %rax,%rax
   1813b:	48 01 d0             	add    %rdx,%rax
   1813e:	48 c1 e0 03          	shl    $0x3,%rax
   18142:	48 89 c2             	mov    %rax,%rdx
   18145:	48 8d 05 14 1f 00 00 	lea    0x1f14(%rip),%rax        # 1a060 <g_741>
   1814c:	0f b6 44 02 04       	movzbl 0x4(%rdx,%rax,1),%eax
   18151:	83 e0 7f             	and    $0x7f,%eax
   18154:	0f b6 c0             	movzbl %al,%eax
   18157:	8b 55 f4             	mov    -0xc(%rbp),%edx
   1815a:	48 8d 35 27 43 00 00 	lea    0x4327(%rip),%rsi        # 1c488 <g_1219+0x2378>
   18161:	48 89 c7             	mov    %rax,%rdi
   18164:	e8 8a 15 ff ff       	callq  96f3 <transparent_crc>
   18169:	8b 45 e8             	mov    -0x18(%rbp),%eax
   1816c:	48 63 d0             	movslq %eax,%rdx
   1816f:	48 89 d0             	mov    %rdx,%rax
   18172:	48 01 c0             	add    %rax,%rax
   18175:	48 01 d0             	add    %rdx,%rax
   18178:	48 c1 e0 03          	shl    $0x3,%rax
   1817c:	48 89 c2             	mov    %rax,%rdx
   1817f:	48 8d 05 e2 1e 00 00 	lea    0x1ee2(%rip),%rax        # 1a068 <g_741+0x8>
   18186:	8b 04 02             	mov    (%rdx,%rax,1),%eax
   18189:	89 c1                	mov    %eax,%ecx
   1818b:	8b 45 f4             	mov    -0xc(%rbp),%eax
   1818e:	89 c2                	mov    %eax,%edx
   18190:	48 8d 35 fd 42 00 00 	lea    0x42fd(%rip),%rsi        # 1c494 <g_1219+0x2384>
   18197:	48 89 cf             	mov    %rcx,%rdi
   1819a:	e8 54 15 ff ff       	callq  96f3 <transparent_crc>
   1819f:	8b 45 e8             	mov    -0x18(%rbp),%eax
   181a2:	48 63 d0             	movslq %eax,%rdx
   181a5:	48 89 d0             	mov    %rdx,%rax
   181a8:	48 01 c0             	add    %rax,%rax
   181ab:	48 01 d0             	add    %rdx,%rax
   181ae:	48 c1 e0 03          	shl    $0x3,%rax
   181b2:	48 89 c2             	mov    %rax,%rdx
   181b5:	48 8d 05 b0 1e 00 00 	lea    0x1eb0(%rip),%rax        # 1a06c <g_741+0xc>
   181bc:	0f b7 04 02          	movzwl (%rdx,%rax,1),%eax
   181c0:	0f b7 c0             	movzwl %ax,%eax
   181c3:	8b 55 f4             	mov    -0xc(%rbp),%edx
   181c6:	48 8d 35 d3 42 00 00 	lea    0x42d3(%rip),%rsi        # 1c4a0 <g_1219+0x2390>
   181cd:	48 89 c7             	mov    %rax,%rdi
   181d0:	e8 1e 15 ff ff       	callq  96f3 <transparent_crc>
   181d5:	8b 45 e8             	mov    -0x18(%rbp),%eax
   181d8:	48 63 d0             	movslq %eax,%rdx
   181db:	48 89 d0             	mov    %rdx,%rax
   181de:	48 01 c0             	add    %rax,%rax
   181e1:	48 01 d0             	add    %rdx,%rax
   181e4:	48 c1 e0 03          	shl    $0x3,%rax
   181e8:	48 89 c2             	mov    %rax,%rdx
   181eb:	48 8d 05 7c 1e 00 00 	lea    0x1e7c(%rip),%rax        # 1a06e <g_741+0xe>
   181f2:	0f b7 04 02          	movzwl (%rdx,%rax,1),%eax
   181f6:	0f b7 c0             	movzwl %ax,%eax
   181f9:	8b 55 f4             	mov    -0xc(%rbp),%edx
   181fc:	48 8d 35 a9 42 00 00 	lea    0x42a9(%rip),%rsi        # 1c4ac <g_1219+0x239c>
   18203:	48 89 c7             	mov    %rax,%rdi
   18206:	e8 e8 14 ff ff       	callq  96f3 <transparent_crc>
   1820b:	8b 45 e8             	mov    -0x18(%rbp),%eax
   1820e:	48 63 d0             	movslq %eax,%rdx
   18211:	48 89 d0             	mov    %rdx,%rax
   18214:	48 01 c0             	add    %rax,%rax
   18217:	48 01 d0             	add    %rdx,%rax
   1821a:	48 c1 e0 03          	shl    $0x3,%rax
   1821e:	48 89 c2             	mov    %rax,%rdx
   18221:	48 8d 05 48 1e 00 00 	lea    0x1e48(%rip),%rax        # 1a070 <g_741+0x10>
   18228:	48 8b 04 02          	mov    (%rdx,%rax,1),%rax
   1822c:	c1 e0 02             	shl    $0x2,%eax
   1822f:	c1 f8 02             	sar    $0x2,%eax
   18232:	48 98                	cltq   
   18234:	8b 55 f4             	mov    -0xc(%rbp),%edx
   18237:	48 8d 35 7a 42 00 00 	lea    0x427a(%rip),%rsi        # 1c4b8 <g_1219+0x23a8>
   1823e:	48 89 c7             	mov    %rax,%rdi
   18241:	e8 ad 14 ff ff       	callq  96f3 <transparent_crc>
   18246:	8b 45 e8             	mov    -0x18(%rbp),%eax
   18249:	48 63 d0             	movslq %eax,%rdx
   1824c:	48 89 d0             	mov    %rdx,%rax
   1824f:	48 01 c0             	add    %rax,%rax
   18252:	48 01 d0             	add    %rdx,%rax
   18255:	48 c1 e0 03          	shl    $0x3,%rax
   18259:	48 89 c2             	mov    %rax,%rdx
   1825c:	48 8d 05 0d 1e 00 00 	lea    0x1e0d(%rip),%rax        # 1a070 <g_741+0x10>
   18263:	0f b7 44 02 04       	movzwl 0x4(%rdx,%rax,1),%eax
   18268:	66 25 ff 1f          	and    $0x1fff,%ax
   1826c:	0f b7 c0             	movzwl %ax,%eax
   1826f:	8b 55 f4             	mov    -0xc(%rbp),%edx
   18272:	48 8d 35 4b 42 00 00 	lea    0x424b(%rip),%rsi        # 1c4c4 <g_1219+0x23b4>
   18279:	48 89 c7             	mov    %rax,%rdi
   1827c:	e8 72 14 ff ff       	callq  96f3 <transparent_crc>
   18281:	83 7d f4 00          	cmpl   $0x0,-0xc(%rbp)
   18285:	74 16                	je     1829d <main+0xc08>
   18287:	8b 45 e8             	mov    -0x18(%rbp),%eax
   1828a:	89 c6                	mov    %eax,%esi
   1828c:	48 8d 3d b6 3f 00 00 	lea    0x3fb6(%rip),%rdi        # 1c249 <g_1219+0x2139>
   18293:	b8 00 00 00 00       	mov    $0x0,%eax
   18298:	e8 e3 fd fe ff       	callq  8080 <printf@plt>
   1829d:	83 45 e8 01          	addl   $0x1,-0x18(%rbp)
   182a1:	83 7d e8 06          	cmpl   $0x6,-0x18(%rbp)
   182a5:	0f 8e df fd ff ff    	jle    1808a <main+0x9f5>
   182ab:	8b 05 07 70 00 00    	mov    0x7007(%rip),%eax        # 1f2b8 <g_764>
   182b1:	48 98                	cltq   
   182b3:	8b 55 f4             	mov    -0xc(%rbp),%edx
   182b6:	48 8d 35 13 42 00 00 	lea    0x4213(%rip),%rsi        # 1c4d0 <g_1219+0x23c0>
   182bd:	48 89 c7             	mov    %rax,%rdi
   182c0:	e8 2e 14 ff ff       	callq  96f3 <transparent_crc>
   182c5:	0f b6 05 f4 6f 00 00 	movzbl 0x6ff4(%rip),%eax        # 1f2c0 <g_791>
   182cc:	83 e0 03             	and    $0x3,%eax
   182cf:	0f b6 c0             	movzbl %al,%eax
   182d2:	8b 55 f4             	mov    -0xc(%rbp),%edx
   182d5:	48 8d 35 fa 41 00 00 	lea    0x41fa(%rip),%rsi        # 1c4d6 <g_1219+0x23c6>
   182dc:	48 89 c7             	mov    %rax,%rdi
   182df:	e8 0f 14 ff ff       	callq  96f3 <transparent_crc>
   182e4:	0f b6 05 d6 6f 00 00 	movzbl 0x6fd6(%rip),%eax        # 1f2c1 <g_791+0x1>
   182eb:	0f b6 c0             	movzbl %al,%eax
   182ee:	8b 55 f4             	mov    -0xc(%rbp),%edx
   182f1:	48 8d 35 e7 41 00 00 	lea    0x41e7(%rip),%rsi        # 1c4df <g_1219+0x23cf>
   182f8:	48 89 c7             	mov    %rax,%rdi
   182fb:	e8 f3 13 ff ff       	callq  96f3 <transparent_crc>
   18300:	0f b7 05 bb 6f 00 00 	movzwl 0x6fbb(%rip),%eax        # 1f2c2 <g_791+0x2>
   18307:	0f b7 c0             	movzwl %ax,%eax
   1830a:	8b 55 f4             	mov    -0xc(%rbp),%edx
   1830d:	48 8d 35 d4 41 00 00 	lea    0x41d4(%rip),%rsi        # 1c4e8 <g_1219+0x23d8>
   18314:	48 89 c7             	mov    %rax,%rdi
   18317:	e8 d7 13 ff ff       	callq  96f3 <transparent_crc>
   1831c:	0f b6 05 a1 6f 00 00 	movzbl 0x6fa1(%rip),%eax        # 1f2c4 <g_791+0x4>
   18323:	83 e0 7f             	and    $0x7f,%eax
   18326:	0f b6 c0             	movzbl %al,%eax
   18329:	8b 55 f4             	mov    -0xc(%rbp),%edx
   1832c:	48 8d 35 be 41 00 00 	lea    0x41be(%rip),%rsi        # 1c4f1 <g_1219+0x23e1>
   18333:	48 89 c7             	mov    %rax,%rdi
   18336:	e8 b8 13 ff ff       	callq  96f3 <transparent_crc>
   1833b:	8b 05 87 6f 00 00    	mov    0x6f87(%rip),%eax        # 1f2c8 <g_791+0x8>
   18341:	89 c1                	mov    %eax,%ecx
   18343:	8b 45 f4             	mov    -0xc(%rbp),%eax
   18346:	89 c2                	mov    %eax,%edx
   18348:	48 8d 35 ab 41 00 00 	lea    0x41ab(%rip),%rsi        # 1c4fa <g_1219+0x23ea>
   1834f:	48 89 cf             	mov    %rcx,%rdi
   18352:	e8 9c 13 ff ff       	callq  96f3 <transparent_crc>
   18357:	0f b7 05 6e 6f 00 00 	movzwl 0x6f6e(%rip),%eax        # 1f2cc <g_791+0xc>
   1835e:	0f b7 c0             	movzwl %ax,%eax
   18361:	8b 55 f4             	mov    -0xc(%rbp),%edx
   18364:	48 8d 35 98 41 00 00 	lea    0x4198(%rip),%rsi        # 1c503 <g_1219+0x23f3>
   1836b:	48 89 c7             	mov    %rax,%rdi
   1836e:	e8 80 13 ff ff       	callq  96f3 <transparent_crc>
   18373:	0f b7 05 54 6f 00 00 	movzwl 0x6f54(%rip),%eax        # 1f2ce <g_791+0xe>
   1837a:	0f b7 c0             	movzwl %ax,%eax
   1837d:	8b 55 f4             	mov    -0xc(%rbp),%edx
   18380:	48 8d 35 85 41 00 00 	lea    0x4185(%rip),%rsi        # 1c50c <g_1219+0x23fc>
   18387:	48 89 c7             	mov    %rax,%rdi
   1838a:	e8 64 13 ff ff       	callq  96f3 <transparent_crc>
   1838f:	48 8b 05 3a 6f 00 00 	mov    0x6f3a(%rip),%rax        # 1f2d0 <g_791+0x10>
   18396:	c1 e0 02             	shl    $0x2,%eax
   18399:	c1 f8 02             	sar    $0x2,%eax
   1839c:	48 98                	cltq   
   1839e:	8b 55 f4             	mov    -0xc(%rbp),%edx
   183a1:	48 8d 35 6d 41 00 00 	lea    0x416d(%rip),%rsi        # 1c515 <g_1219+0x2405>
   183a8:	48 89 c7             	mov    %rax,%rdi
   183ab:	e8 43 13 ff ff       	callq  96f3 <transparent_crc>
   183b0:	0f b7 05 1d 6f 00 00 	movzwl 0x6f1d(%rip),%eax        # 1f2d4 <g_791+0x14>
   183b7:	66 25 ff 1f          	and    $0x1fff,%ax
   183bb:	0f b7 c0             	movzwl %ax,%eax
   183be:	8b 55 f4             	mov    -0xc(%rbp),%edx
   183c1:	48 8d 35 56 41 00 00 	lea    0x4156(%rip),%rsi        # 1c51e <g_1219+0x240e>
   183c8:	48 89 c7             	mov    %rax,%rdi
   183cb:	e8 23 13 ff ff       	callq  96f3 <transparent_crc>
   183d0:	0f b6 05 09 6f 00 00 	movzbl 0x6f09(%rip),%eax        # 1f2e0 <g_793>
   183d7:	83 e0 03             	and    $0x3,%eax
   183da:	0f b6 c0             	movzbl %al,%eax
   183dd:	8b 55 f4             	mov    -0xc(%rbp),%edx
   183e0:	48 8d 35 40 41 00 00 	lea    0x4140(%rip),%rsi        # 1c527 <g_1219+0x2417>
   183e7:	48 89 c7             	mov    %rax,%rdi
   183ea:	e8 04 13 ff ff       	callq  96f3 <transparent_crc>
   183ef:	0f b6 05 eb 6e 00 00 	movzbl 0x6eeb(%rip),%eax        # 1f2e1 <g_793+0x1>
   183f6:	0f b6 c0             	movzbl %al,%eax
   183f9:	8b 55 f4             	mov    -0xc(%rbp),%edx
   183fc:	48 8d 35 2d 41 00 00 	lea    0x412d(%rip),%rsi        # 1c530 <g_1219+0x2420>
   18403:	48 89 c7             	mov    %rax,%rdi
   18406:	e8 e8 12 ff ff       	callq  96f3 <transparent_crc>
   1840b:	0f b7 05 d0 6e 00 00 	movzwl 0x6ed0(%rip),%eax        # 1f2e2 <g_793+0x2>
   18412:	0f b7 c0             	movzwl %ax,%eax
   18415:	8b 55 f4             	mov    -0xc(%rbp),%edx
   18418:	48 8d 35 1a 41 00 00 	lea    0x411a(%rip),%rsi        # 1c539 <g_1219+0x2429>
   1841f:	48 89 c7             	mov    %rax,%rdi
   18422:	e8 cc 12 ff ff       	callq  96f3 <transparent_crc>
   18427:	0f b6 05 b6 6e 00 00 	movzbl 0x6eb6(%rip),%eax        # 1f2e4 <g_793+0x4>
   1842e:	83 e0 7f             	and    $0x7f,%eax
   18431:	0f b6 c0             	movzbl %al,%eax
   18434:	8b 55 f4             	mov    -0xc(%rbp),%edx
   18437:	48 8d 35 04 41 00 00 	lea    0x4104(%rip),%rsi        # 1c542 <g_1219+0x2432>
   1843e:	48 89 c7             	mov    %rax,%rdi
   18441:	e8 ad 12 ff ff       	callq  96f3 <transparent_crc>
   18446:	8b 05 9c 6e 00 00    	mov    0x6e9c(%rip),%eax        # 1f2e8 <g_793+0x8>
   1844c:	89 c1                	mov    %eax,%ecx
   1844e:	8b 45 f4             	mov    -0xc(%rbp),%eax
   18451:	89 c2                	mov    %eax,%edx
   18453:	48 8d 35 f1 40 00 00 	lea    0x40f1(%rip),%rsi        # 1c54b <g_1219+0x243b>
   1845a:	48 89 cf             	mov    %rcx,%rdi
   1845d:	e8 91 12 ff ff       	callq  96f3 <transparent_crc>
   18462:	0f b7 05 83 6e 00 00 	movzwl 0x6e83(%rip),%eax        # 1f2ec <g_793+0xc>
   18469:	0f b7 c0             	movzwl %ax,%eax
   1846c:	8b 55 f4             	mov    -0xc(%rbp),%edx
   1846f:	48 8d 35 de 40 00 00 	lea    0x40de(%rip),%rsi        # 1c554 <g_1219+0x2444>
   18476:	48 89 c7             	mov    %rax,%rdi
   18479:	e8 75 12 ff ff       	callq  96f3 <transparent_crc>
   1847e:	0f b7 05 69 6e 00 00 	movzwl 0x6e69(%rip),%eax        # 1f2ee <g_793+0xe>
   18485:	0f b7 c0             	movzwl %ax,%eax
   18488:	8b 55 f4             	mov    -0xc(%rbp),%edx
   1848b:	48 8d 35 cb 40 00 00 	lea    0x40cb(%rip),%rsi        # 1c55d <g_1219+0x244d>
   18492:	48 89 c7             	mov    %rax,%rdi
   18495:	e8 59 12 ff ff       	callq  96f3 <transparent_crc>
   1849a:	48 8b 05 4f 6e 00 00 	mov    0x6e4f(%rip),%rax        # 1f2f0 <g_793+0x10>
   184a1:	c1 e0 02             	shl    $0x2,%eax
   184a4:	c1 f8 02             	sar    $0x2,%eax
   184a7:	48 98                	cltq   
   184a9:	8b 55 f4             	mov    -0xc(%rbp),%edx
   184ac:	48 8d 35 b3 40 00 00 	lea    0x40b3(%rip),%rsi        # 1c566 <g_1219+0x2456>
   184b3:	48 89 c7             	mov    %rax,%rdi
   184b6:	e8 38 12 ff ff       	callq  96f3 <transparent_crc>
   184bb:	0f b7 05 32 6e 00 00 	movzwl 0x6e32(%rip),%eax        # 1f2f4 <g_793+0x14>
   184c2:	66 25 ff 1f          	and    $0x1fff,%ax
   184c6:	0f b7 c0             	movzwl %ax,%eax
   184c9:	8b 55 f4             	mov    -0xc(%rbp),%edx
   184cc:	48 8d 35 9c 40 00 00 	lea    0x409c(%rip),%rsi        # 1c56f <g_1219+0x245f>
   184d3:	48 89 c7             	mov    %rax,%rdi
   184d6:	e8 18 12 ff ff       	callq  96f3 <transparent_crc>
   184db:	8b 05 17 6e 00 00    	mov    0x6e17(%rip),%eax        # 1f2f8 <g_800>
   184e1:	89 c1                	mov    %eax,%ecx
   184e3:	8b 45 f4             	mov    -0xc(%rbp),%eax
   184e6:	89 c2                	mov    %eax,%edx
   184e8:	48 8d 35 89 40 00 00 	lea    0x4089(%rip),%rsi        # 1c578 <g_1219+0x2468>
   184ef:	48 89 cf             	mov    %rcx,%rdi
   184f2:	e8 fc 11 ff ff       	callq  96f3 <transparent_crc>
   184f7:	48 8b 05 02 6e 00 00 	mov    0x6e02(%rip),%rax        # 1f300 <g_946>
   184fe:	8b 55 f4             	mov    -0xc(%rbp),%edx
   18501:	48 8d 35 76 40 00 00 	lea    0x4076(%rip),%rsi        # 1c57e <g_1219+0x246e>
   18508:	48 89 c7             	mov    %rax,%rdi
   1850b:	e8 e3 11 ff ff       	callq  96f3 <transparent_crc>
   18510:	8b 05 f2 6d 00 00    	mov    0x6df2(%rip),%eax        # 1f308 <g_954>
   18516:	89 c1                	mov    %eax,%ecx
   18518:	8b 45 f4             	mov    -0xc(%rbp),%eax
   1851b:	89 c2                	mov    %eax,%edx
   1851d:	48 8d 35 60 40 00 00 	lea    0x4060(%rip),%rsi        # 1c584 <g_1219+0x2474>
   18524:	48 89 cf             	mov    %rcx,%rdi
   18527:	e8 c7 11 ff ff       	callq  96f3 <transparent_crc>
   1852c:	0f b6 05 dd 6d 00 00 	movzbl 0x6ddd(%rip),%eax        # 1f310 <g_1068>
   18533:	83 e0 03             	and    $0x3,%eax
   18536:	0f b6 c0             	movzbl %al,%eax
   18539:	8b 55 f4             	mov    -0xc(%rbp),%edx
   1853c:	48 8d 35 47 40 00 00 	lea    0x4047(%rip),%rsi        # 1c58a <g_1219+0x247a>
   18543:	48 89 c7             	mov    %rax,%rdi
   18546:	e8 a8 11 ff ff       	callq  96f3 <transparent_crc>
   1854b:	0f b6 05 bf 6d 00 00 	movzbl 0x6dbf(%rip),%eax        # 1f311 <g_1068+0x1>
   18552:	0f b6 c0             	movzbl %al,%eax
   18555:	8b 55 f4             	mov    -0xc(%rbp),%edx
   18558:	48 8d 35 35 40 00 00 	lea    0x4035(%rip),%rsi        # 1c594 <g_1219+0x2484>
   1855f:	48 89 c7             	mov    %rax,%rdi
   18562:	e8 8c 11 ff ff       	callq  96f3 <transparent_crc>
   18567:	0f b7 05 a4 6d 00 00 	movzwl 0x6da4(%rip),%eax        # 1f312 <g_1068+0x2>
   1856e:	0f b7 c0             	movzwl %ax,%eax
   18571:	8b 55 f4             	mov    -0xc(%rbp),%edx
   18574:	48 8d 35 23 40 00 00 	lea    0x4023(%rip),%rsi        # 1c59e <g_1219+0x248e>
   1857b:	48 89 c7             	mov    %rax,%rdi
   1857e:	e8 70 11 ff ff       	callq  96f3 <transparent_crc>
   18583:	0f b6 05 8a 6d 00 00 	movzbl 0x6d8a(%rip),%eax        # 1f314 <g_1068+0x4>
   1858a:	83 e0 7f             	and    $0x7f,%eax
   1858d:	0f b6 c0             	movzbl %al,%eax
   18590:	8b 55 f4             	mov    -0xc(%rbp),%edx
   18593:	48 8d 35 0e 40 00 00 	lea    0x400e(%rip),%rsi        # 1c5a8 <g_1219+0x2498>
   1859a:	48 89 c7             	mov    %rax,%rdi
   1859d:	e8 51 11 ff ff       	callq  96f3 <transparent_crc>
   185a2:	8b 05 70 6d 00 00    	mov    0x6d70(%rip),%eax        # 1f318 <g_1068+0x8>
   185a8:	89 c1                	mov    %eax,%ecx
   185aa:	8b 45 f4             	mov    -0xc(%rbp),%eax
   185ad:	89 c2                	mov    %eax,%edx
   185af:	48 8d 35 fc 3f 00 00 	lea    0x3ffc(%rip),%rsi        # 1c5b2 <g_1219+0x24a2>
   185b6:	48 89 cf             	mov    %rcx,%rdi
   185b9:	e8 35 11 ff ff       	callq  96f3 <transparent_crc>
   185be:	0f b7 05 57 6d 00 00 	movzwl 0x6d57(%rip),%eax        # 1f31c <g_1068+0xc>
   185c5:	0f b7 c0             	movzwl %ax,%eax
   185c8:	8b 55 f4             	mov    -0xc(%rbp),%edx
   185cb:	48 8d 35 ea 3f 00 00 	lea    0x3fea(%rip),%rsi        # 1c5bc <g_1219+0x24ac>
   185d2:	48 89 c7             	mov    %rax,%rdi
   185d5:	e8 19 11 ff ff       	callq  96f3 <transparent_crc>
   185da:	0f b7 05 3d 6d 00 00 	movzwl 0x6d3d(%rip),%eax        # 1f31e <g_1068+0xe>
   185e1:	0f b7 c0             	movzwl %ax,%eax
   185e4:	8b 55 f4             	mov    -0xc(%rbp),%edx
   185e7:	48 8d 35 d8 3f 00 00 	lea    0x3fd8(%rip),%rsi        # 1c5c6 <g_1219+0x24b6>
   185ee:	48 89 c7             	mov    %rax,%rdi
   185f1:	e8 fd 10 ff ff       	callq  96f3 <transparent_crc>
   185f6:	48 8b 05 23 6d 00 00 	mov    0x6d23(%rip),%rax        # 1f320 <g_1068+0x10>
   185fd:	c1 e0 02             	shl    $0x2,%eax
   18600:	c1 f8 02             	sar    $0x2,%eax
   18603:	48 98                	cltq   
   18605:	8b 55 f4             	mov    -0xc(%rbp),%edx
   18608:	48 8d 35 c1 3f 00 00 	lea    0x3fc1(%rip),%rsi        # 1c5d0 <g_1219+0x24c0>
   1860f:	48 89 c7             	mov    %rax,%rdi
   18612:	e8 dc 10 ff ff       	callq  96f3 <transparent_crc>
   18617:	0f b7 05 06 6d 00 00 	movzwl 0x6d06(%rip),%eax        # 1f324 <g_1068+0x14>
   1861e:	66 25 ff 1f          	and    $0x1fff,%ax
   18622:	0f b7 c0             	movzwl %ax,%eax
   18625:	8b 55 f4             	mov    -0xc(%rbp),%edx
   18628:	48 8d 35 ab 3f 00 00 	lea    0x3fab(%rip),%rsi        # 1c5da <g_1219+0x24ca>
   1862f:	48 89 c7             	mov    %rax,%rdi
   18632:	e8 bc 10 ff ff       	callq  96f3 <transparent_crc>
   18637:	8b 05 eb 6c 00 00    	mov    0x6ceb(%rip),%eax        # 1f328 <g_1113>
   1863d:	48 98                	cltq   
   1863f:	8b 55 f4             	mov    -0xc(%rbp),%edx
   18642:	48 8d 35 9b 3f 00 00 	lea    0x3f9b(%rip),%rsi        # 1c5e4 <g_1219+0x24d4>
   18649:	48 89 c7             	mov    %rax,%rdi
   1864c:	e8 a2 10 ff ff       	callq  96f3 <transparent_crc>
   18651:	0f b6 05 d8 6c 00 00 	movzbl 0x6cd8(%rip),%eax        # 1f330 <g_1147>
   18658:	83 e0 03             	and    $0x3,%eax
   1865b:	0f b6 c0             	movzbl %al,%eax
   1865e:	8b 55 f4             	mov    -0xc(%rbp),%edx
   18661:	48 8d 35 83 3f 00 00 	lea    0x3f83(%rip),%rsi        # 1c5eb <g_1219+0x24db>
   18668:	48 89 c7             	mov    %rax,%rdi
   1866b:	e8 83 10 ff ff       	callq  96f3 <transparent_crc>
   18670:	0f b6 05 ba 6c 00 00 	movzbl 0x6cba(%rip),%eax        # 1f331 <g_1147+0x1>
   18677:	0f b6 c0             	movzbl %al,%eax
   1867a:	8b 55 f4             	mov    -0xc(%rbp),%edx
   1867d:	48 8d 35 71 3f 00 00 	lea    0x3f71(%rip),%rsi        # 1c5f5 <g_1219+0x24e5>
   18684:	48 89 c7             	mov    %rax,%rdi
   18687:	e8 67 10 ff ff       	callq  96f3 <transparent_crc>
   1868c:	0f b7 05 9f 6c 00 00 	movzwl 0x6c9f(%rip),%eax        # 1f332 <g_1147+0x2>
   18693:	0f b7 c0             	movzwl %ax,%eax
   18696:	8b 55 f4             	mov    -0xc(%rbp),%edx
   18699:	48 8d 35 5f 3f 00 00 	lea    0x3f5f(%rip),%rsi        # 1c5ff <g_1219+0x24ef>
   186a0:	48 89 c7             	mov    %rax,%rdi
   186a3:	e8 4b 10 ff ff       	callq  96f3 <transparent_crc>
   186a8:	0f b6 05 85 6c 00 00 	movzbl 0x6c85(%rip),%eax        # 1f334 <g_1147+0x4>
   186af:	83 e0 7f             	and    $0x7f,%eax
   186b2:	0f b6 c0             	movzbl %al,%eax
   186b5:	8b 55 f4             	mov    -0xc(%rbp),%edx
   186b8:	48 8d 35 4a 3f 00 00 	lea    0x3f4a(%rip),%rsi        # 1c609 <g_1219+0x24f9>
   186bf:	48 89 c7             	mov    %rax,%rdi
   186c2:	e8 2c 10 ff ff       	callq  96f3 <transparent_crc>
   186c7:	8b 05 6b 6c 00 00    	mov    0x6c6b(%rip),%eax        # 1f338 <g_1147+0x8>
   186cd:	89 c1                	mov    %eax,%ecx
   186cf:	8b 45 f4             	mov    -0xc(%rbp),%eax
   186d2:	89 c2                	mov    %eax,%edx
   186d4:	48 8d 35 38 3f 00 00 	lea    0x3f38(%rip),%rsi        # 1c613 <g_1219+0x2503>
   186db:	48 89 cf             	mov    %rcx,%rdi
   186de:	e8 10 10 ff ff       	callq  96f3 <transparent_crc>
   186e3:	0f b7 05 52 6c 00 00 	movzwl 0x6c52(%rip),%eax        # 1f33c <g_1147+0xc>
   186ea:	0f b7 c0             	movzwl %ax,%eax
   186ed:	8b 55 f4             	mov    -0xc(%rbp),%edx
   186f0:	48 8d 35 26 3f 00 00 	lea    0x3f26(%rip),%rsi        # 1c61d <g_1219+0x250d>
   186f7:	48 89 c7             	mov    %rax,%rdi
   186fa:	e8 f4 0f ff ff       	callq  96f3 <transparent_crc>
   186ff:	0f b7 05 38 6c 00 00 	movzwl 0x6c38(%rip),%eax        # 1f33e <g_1147+0xe>
   18706:	0f b7 c0             	movzwl %ax,%eax
   18709:	8b 55 f4             	mov    -0xc(%rbp),%edx
   1870c:	48 8d 35 14 3f 00 00 	lea    0x3f14(%rip),%rsi        # 1c627 <g_1219+0x2517>
   18713:	48 89 c7             	mov    %rax,%rdi
   18716:	e8 d8 0f ff ff       	callq  96f3 <transparent_crc>
   1871b:	48 8b 05 1e 6c 00 00 	mov    0x6c1e(%rip),%rax        # 1f340 <g_1147+0x10>
   18722:	c1 e0 02             	shl    $0x2,%eax
   18725:	c1 f8 02             	sar    $0x2,%eax
   18728:	48 98                	cltq   
   1872a:	8b 55 f4             	mov    -0xc(%rbp),%edx
   1872d:	48 8d 35 fd 3e 00 00 	lea    0x3efd(%rip),%rsi        # 1c631 <g_1219+0x2521>
   18734:	48 89 c7             	mov    %rax,%rdi
   18737:	e8 b7 0f ff ff       	callq  96f3 <transparent_crc>
   1873c:	0f b7 05 01 6c 00 00 	movzwl 0x6c01(%rip),%eax        # 1f344 <g_1147+0x14>
   18743:	66 25 ff 1f          	and    $0x1fff,%ax
   18747:	0f b7 c0             	movzwl %ax,%eax
   1874a:	8b 55 f4             	mov    -0xc(%rbp),%edx
   1874d:	48 8d 35 e7 3e 00 00 	lea    0x3ee7(%rip),%rsi        # 1c63b <g_1219+0x252b>
   18754:	48 89 c7             	mov    %rax,%rdi
   18757:	e8 97 0f ff ff       	callq  96f3 <transparent_crc>
   1875c:	c7 45 e8 00 00 00 00 	movl   $0x0,-0x18(%rbp)
   18763:	eb 4d                	jmp    187b2 <main+0x111d>
   18765:	8b 45 e8             	mov    -0x18(%rbp),%eax
   18768:	48 98                	cltq   
   1876a:	48 8d 14 c5 00 00 00 	lea    0x0(,%rax,8),%rdx
   18771:	00 
   18772:	48 8d 05 e7 6b 00 00 	lea    0x6be7(%rip),%rax        # 1f360 <g_1191>
   18779:	0f b7 04 02          	movzwl (%rdx,%rax,1),%eax
   1877d:	0f b7 c0             	movzwl %ax,%eax
   18780:	8b 55 f4             	mov    -0xc(%rbp),%edx
   18783:	48 8d 35 bb 3e 00 00 	lea    0x3ebb(%rip),%rsi        # 1c645 <g_1219+0x2535>
   1878a:	48 89 c7             	mov    %rax,%rdi
   1878d:	e8 61 0f ff ff       	callq  96f3 <transparent_crc>
   18792:	83 7d f4 00          	cmpl   $0x0,-0xc(%rbp)
   18796:	74 16                	je     187ae <main+0x1119>
   18798:	8b 45 e8             	mov    -0x18(%rbp),%eax
   1879b:	89 c6                	mov    %eax,%esi
   1879d:	48 8d 3d a5 3a 00 00 	lea    0x3aa5(%rip),%rdi        # 1c249 <g_1219+0x2139>
   187a4:	b8 00 00 00 00       	mov    $0x0,%eax
   187a9:	e8 d2 f8 fe ff       	callq  8080 <printf@plt>
   187ae:	83 45 e8 01          	addl   $0x1,-0x18(%rbp)
   187b2:	83 7d e8 06          	cmpl   $0x6,-0x18(%rbp)
   187b6:	7e ad                	jle    18765 <main+0x10d0>
   187b8:	b8 00 00 00 00       	mov    $0x0,%eax
   187bd:	0f b6 c0             	movzbl %al,%eax
   187c0:	8b 55 f4             	mov    -0xc(%rbp),%edx
   187c3:	48 8d 35 88 3e 00 00 	lea    0x3e88(%rip),%rsi        # 1c652 <g_1219+0x2542>
   187ca:	48 89 c7             	mov    %rax,%rdi
   187cd:	e8 21 0f ff ff       	callq  96f3 <transparent_crc>
   187d2:	b8 fc ff ff ff       	mov    $0xfffffffc,%eax
   187d7:	0f b6 c0             	movzbl %al,%eax
   187da:	8b 55 f4             	mov    -0xc(%rbp),%edx
   187dd:	48 8d 35 78 3e 00 00 	lea    0x3e78(%rip),%rsi        # 1c65c <g_1219+0x254c>
   187e4:	48 89 c7             	mov    %rax,%rdi
   187e7:	e8 07 0f ff ff       	callq  96f3 <transparent_crc>
   187ec:	b8 67 df ff ff       	mov    $0xffffdf67,%eax
   187f1:	0f b7 c0             	movzwl %ax,%eax
   187f4:	8b 55 f4             	mov    -0xc(%rbp),%edx
   187f7:	48 8d 35 68 3e 00 00 	lea    0x3e68(%rip),%rsi        # 1c666 <g_1219+0x2556>
   187fe:	48 89 c7             	mov    %rax,%rdi
   18801:	e8 ed 0e ff ff       	callq  96f3 <transparent_crc>
   18806:	b8 03 00 00 00       	mov    $0x3,%eax
   1880b:	0f b6 c0             	movzbl %al,%eax
   1880e:	8b 55 f4             	mov    -0xc(%rbp),%edx
   18811:	48 8d 35 58 3e 00 00 	lea    0x3e58(%rip),%rsi        # 1c670 <g_1219+0x2560>
   18818:	48 89 c7             	mov    %rax,%rdi
   1881b:	e8 d3 0e ff ff       	callq  96f3 <transparent_crc>
   18820:	b8 3c ad 58 27       	mov    $0x2758ad3c,%eax
   18825:	89 c1                	mov    %eax,%ecx
   18827:	8b 45 f4             	mov    -0xc(%rbp),%eax
   1882a:	89 c2                	mov    %eax,%edx
   1882c:	48 8d 35 47 3e 00 00 	lea    0x3e47(%rip),%rsi        # 1c67a <g_1219+0x256a>
   18833:	48 89 cf             	mov    %rcx,%rdi
   18836:	e8 b8 0e ff ff       	callq  96f3 <transparent_crc>
   1883b:	0f b7 05 da 18 00 00 	movzwl 0x18da(%rip),%eax        # 1a11c <g_1219+0xc>
   18842:	0f b7 c0             	movzwl %ax,%eax
   18845:	8b 55 f4             	mov    -0xc(%rbp),%edx
   18848:	48 8d 35 35 3e 00 00 	lea    0x3e35(%rip),%rsi        # 1c684 <g_1219+0x2574>
   1884f:	48 89 c7             	mov    %rax,%rdi
   18852:	e8 9c 0e ff ff       	callq  96f3 <transparent_crc>
   18857:	b8 09 00 00 00       	mov    $0x9,%eax
   1885c:	0f b7 c0             	movzwl %ax,%eax
   1885f:	8b 55 f4             	mov    -0xc(%rbp),%edx
   18862:	48 8d 35 25 3e 00 00 	lea    0x3e25(%rip),%rsi        # 1c68e <g_1219+0x257e>
   18869:	48 89 c7             	mov    %rax,%rdi
   1886c:	e8 82 0e ff ff       	callq  96f3 <transparent_crc>
   18871:	48 8b 05 a8 18 00 00 	mov    0x18a8(%rip),%rax        # 1a120 <g_1219+0x10>
   18878:	c1 e0 02             	shl    $0x2,%eax
   1887b:	c1 f8 02             	sar    $0x2,%eax
   1887e:	48 98                	cltq   
   18880:	8b 55 f4             	mov    -0xc(%rbp),%edx
   18883:	48 8d 35 0e 3e 00 00 	lea    0x3e0e(%rip),%rsi        # 1c698 <g_1219+0x2588>
   1888a:	48 89 c7             	mov    %rax,%rdi
   1888d:	e8 61 0e ff ff       	callq  96f3 <transparent_crc>
   18892:	b8 22 00 00 00       	mov    $0x22,%eax
   18897:	0f b7 c0             	movzwl %ax,%eax
   1889a:	8b 55 f4             	mov    -0xc(%rbp),%edx
   1889d:	48 8d 35 fe 3d 00 00 	lea    0x3dfe(%rip),%rsi        # 1c6a2 <g_1219+0x2592>
   188a4:	48 89 c7             	mov    %rax,%rdi
   188a7:	e8 47 0e ff ff       	callq  96f3 <transparent_crc>
   188ac:	c7 45 e8 00 00 00 00 	movl   $0x0,-0x18(%rbp)
   188b3:	eb 4f                	jmp    18904 <main+0x126f>
   188b5:	8b 45 e8             	mov    -0x18(%rbp),%eax
   188b8:	48 98                	cltq   
   188ba:	48 8d 14 c5 00 00 00 	lea    0x0(,%rax,8),%rdx
   188c1:	00 
   188c2:	48 8d 05 d7 6a 00 00 	lea    0x6ad7(%rip),%rax        # 1f3a0 <g_1253>
   188c9:	48 8b 04 02          	mov    (%rdx,%rax,1),%rax
   188cd:	48 89 c1             	mov    %rax,%rcx
   188d0:	8b 45 f4             	mov    -0xc(%rbp),%eax
   188d3:	89 c2                	mov    %eax,%edx
   188d5:	48 8d 35 d0 3d 00 00 	lea    0x3dd0(%rip),%rsi        # 1c6ac <g_1219+0x259c>
   188dc:	48 89 cf             	mov    %rcx,%rdi
   188df:	e8 0f 0e ff ff       	callq  96f3 <transparent_crc>
   188e4:	83 7d f4 00          	cmpl   $0x0,-0xc(%rbp)
   188e8:	74 16                	je     18900 <main+0x126b>
   188ea:	8b 45 e8             	mov    -0x18(%rbp),%eax
   188ed:	89 c6                	mov    %eax,%esi
   188ef:	48 8d 3d 53 39 00 00 	lea    0x3953(%rip),%rdi        # 1c249 <g_1219+0x2139>
   188f6:	b8 00 00 00 00       	mov    $0x0,%eax
   188fb:	e8 80 f7 fe ff       	callq  8080 <printf@plt>
   18900:	83 45 e8 01          	addl   $0x1,-0x18(%rbp)
   18904:	83 7d e8 02          	cmpl   $0x2,-0x18(%rbp)
   18908:	7e ab                	jle    188b5 <main+0x1220>
   1890a:	0f b7 05 a7 6a 00 00 	movzwl 0x6aa7(%rip),%eax        # 1f3b8 <g_1336>
   18911:	0f b7 c0             	movzwl %ax,%eax
   18914:	8b 55 f4             	mov    -0xc(%rbp),%edx
   18917:	48 8d 35 98 3d 00 00 	lea    0x3d98(%rip),%rsi        # 1c6b6 <g_1219+0x25a6>
   1891e:	48 89 c7             	mov    %rax,%rdi
   18921:	e8 cd 0d ff ff       	callq  96f3 <transparent_crc>
   18926:	0f b6 05 93 6a 00 00 	movzbl 0x6a93(%rip),%eax        # 1f3c0 <g_1339>
   1892d:	83 e0 03             	and    $0x3,%eax
   18930:	0f b6 c0             	movzbl %al,%eax
   18933:	8b 55 f4             	mov    -0xc(%rbp),%edx
   18936:	48 8d 35 80 3d 00 00 	lea    0x3d80(%rip),%rsi        # 1c6bd <g_1219+0x25ad>
   1893d:	48 89 c7             	mov    %rax,%rdi
   18940:	e8 ae 0d ff ff       	callq  96f3 <transparent_crc>
   18945:	0f b6 05 75 6a 00 00 	movzbl 0x6a75(%rip),%eax        # 1f3c1 <g_1339+0x1>
   1894c:	0f b6 c0             	movzbl %al,%eax
   1894f:	8b 55 f4             	mov    -0xc(%rbp),%edx
   18952:	48 8d 35 6e 3d 00 00 	lea    0x3d6e(%rip),%rsi        # 1c6c7 <g_1219+0x25b7>
   18959:	48 89 c7             	mov    %rax,%rdi
   1895c:	e8 92 0d ff ff       	callq  96f3 <transparent_crc>
   18961:	0f b7 05 5a 6a 00 00 	movzwl 0x6a5a(%rip),%eax        # 1f3c2 <g_1339+0x2>
   18968:	0f b7 c0             	movzwl %ax,%eax
   1896b:	8b 55 f4             	mov    -0xc(%rbp),%edx
   1896e:	48 8d 35 5c 3d 00 00 	lea    0x3d5c(%rip),%rsi        # 1c6d1 <g_1219+0x25c1>
   18975:	48 89 c7             	mov    %rax,%rdi
   18978:	e8 76 0d ff ff       	callq  96f3 <transparent_crc>
   1897d:	0f b6 05 40 6a 00 00 	movzbl 0x6a40(%rip),%eax        # 1f3c4 <g_1339+0x4>
   18984:	83 e0 7f             	and    $0x7f,%eax
   18987:	0f b6 c0             	movzbl %al,%eax
   1898a:	8b 55 f4             	mov    -0xc(%rbp),%edx
   1898d:	48 8d 35 47 3d 00 00 	lea    0x3d47(%rip),%rsi        # 1c6db <g_1219+0x25cb>
   18994:	48 89 c7             	mov    %rax,%rdi
   18997:	e8 57 0d ff ff       	callq  96f3 <transparent_crc>
   1899c:	8b 05 26 6a 00 00    	mov    0x6a26(%rip),%eax        # 1f3c8 <g_1339+0x8>
   189a2:	89 c1                	mov    %eax,%ecx
   189a4:	8b 45 f4             	mov    -0xc(%rbp),%eax
   189a7:	89 c2                	mov    %eax,%edx
   189a9:	48 8d 35 35 3d 00 00 	lea    0x3d35(%rip),%rsi        # 1c6e5 <g_1219+0x25d5>
   189b0:	48 89 cf             	mov    %rcx,%rdi
   189b3:	e8 3b 0d ff ff       	callq  96f3 <transparent_crc>
   189b8:	0f b7 05 0d 6a 00 00 	movzwl 0x6a0d(%rip),%eax        # 1f3cc <g_1339+0xc>
   189bf:	0f b7 c0             	movzwl %ax,%eax
   189c2:	8b 55 f4             	mov    -0xc(%rbp),%edx
   189c5:	48 8d 35 23 3d 00 00 	lea    0x3d23(%rip),%rsi        # 1c6ef <g_1219+0x25df>
   189cc:	48 89 c7             	mov    %rax,%rdi
   189cf:	e8 1f 0d ff ff       	callq  96f3 <transparent_crc>
   189d4:	0f b7 05 f3 69 00 00 	movzwl 0x69f3(%rip),%eax        # 1f3ce <g_1339+0xe>
   189db:	0f b7 c0             	movzwl %ax,%eax
   189de:	8b 55 f4             	mov    -0xc(%rbp),%edx
   189e1:	48 8d 35 11 3d 00 00 	lea    0x3d11(%rip),%rsi        # 1c6f9 <g_1219+0x25e9>
   189e8:	48 89 c7             	mov    %rax,%rdi
   189eb:	e8 03 0d ff ff       	callq  96f3 <transparent_crc>
   189f0:	48 8b 05 d9 69 00 00 	mov    0x69d9(%rip),%rax        # 1f3d0 <g_1339+0x10>
   189f7:	c1 e0 02             	shl    $0x2,%eax
   189fa:	c1 f8 02             	sar    $0x2,%eax
   189fd:	48 98                	cltq   
   189ff:	8b 55 f4             	mov    -0xc(%rbp),%edx
   18a02:	48 8d 35 fa 3c 00 00 	lea    0x3cfa(%rip),%rsi        # 1c703 <g_1219+0x25f3>
   18a09:	48 89 c7             	mov    %rax,%rdi
   18a0c:	e8 e2 0c ff ff       	callq  96f3 <transparent_crc>
   18a11:	0f b7 05 bc 69 00 00 	movzwl 0x69bc(%rip),%eax        # 1f3d4 <g_1339+0x14>
   18a18:	66 25 ff 1f          	and    $0x1fff,%ax
   18a1c:	0f b7 c0             	movzwl %ax,%eax
   18a1f:	8b 55 f4             	mov    -0xc(%rbp),%edx
   18a22:	48 8d 35 e4 3c 00 00 	lea    0x3ce4(%rip),%rsi        # 1c70d <g_1219+0x25fd>
   18a29:	48 89 c7             	mov    %rax,%rdi
   18a2c:	e8 c2 0c ff ff       	callq  96f3 <transparent_crc>
   18a31:	48 8b 05 a0 69 00 00 	mov    0x69a0(%rip),%rax        # 1f3d8 <g_1534>
   18a38:	48 89 c1             	mov    %rax,%rcx
   18a3b:	8b 45 f4             	mov    -0xc(%rbp),%eax
   18a3e:	89 c2                	mov    %eax,%edx
   18a40:	48 8d 35 d0 3c 00 00 	lea    0x3cd0(%rip),%rsi        # 1c717 <g_1219+0x2607>
   18a47:	48 89 cf             	mov    %rcx,%rdi
   18a4a:	e8 a4 0c ff ff       	callq  96f3 <transparent_crc>
   18a4f:	c7 45 e8 00 00 00 00 	movl   $0x0,-0x18(%rbp)
   18a56:	e9 1d 02 00 00       	jmpq   18c78 <main+0x15e3>
   18a5b:	8b 45 e8             	mov    -0x18(%rbp),%eax
   18a5e:	48 63 d0             	movslq %eax,%rdx
   18a61:	48 89 d0             	mov    %rdx,%rax
   18a64:	48 01 c0             	add    %rax,%rax
   18a67:	48 01 d0             	add    %rdx,%rax
   18a6a:	48 c1 e0 03          	shl    $0x3,%rax
   18a6e:	48 89 c2             	mov    %rax,%rdx
   18a71:	48 8d 05 68 69 00 00 	lea    0x6968(%rip),%rax        # 1f3e0 <g_1563>
   18a78:	48 8b 04 02          	mov    (%rdx,%rax,1),%rax
   18a7c:	83 e0 03             	and    $0x3,%eax
   18a7f:	0f b6 c0             	movzbl %al,%eax
   18a82:	8b 55 f4             	mov    -0xc(%rbp),%edx
   18a85:	48 8d 35 92 3c 00 00 	lea    0x3c92(%rip),%rsi        # 1c71e <g_1219+0x260e>
   18a8c:	48 89 c7             	mov    %rax,%rdi
   18a8f:	e8 5f 0c ff ff       	callq  96f3 <transparent_crc>
   18a94:	8b 45 e8             	mov    -0x18(%rbp),%eax
   18a97:	48 63 d0             	movslq %eax,%rdx
   18a9a:	48 89 d0             	mov    %rdx,%rax
   18a9d:	48 01 c0             	add    %rax,%rax
   18aa0:	48 01 d0             	add    %rdx,%rax
   18aa3:	48 c1 e0 03          	shl    $0x3,%rax
   18aa7:	48 89 c2             	mov    %rax,%rdx
   18aaa:	48 8d 05 30 69 00 00 	lea    0x6930(%rip),%rax        # 1f3e1 <g_1563+0x1>
   18ab1:	0f b6 04 02          	movzbl (%rdx,%rax,1),%eax
   18ab5:	0f b6 c0             	movzbl %al,%eax
   18ab8:	8b 55 f4             	mov    -0xc(%rbp),%edx
   18abb:	48 8d 35 69 3c 00 00 	lea    0x3c69(%rip),%rsi        # 1c72b <g_1219+0x261b>
   18ac2:	48 89 c7             	mov    %rax,%rdi
   18ac5:	e8 29 0c ff ff       	callq  96f3 <transparent_crc>
   18aca:	8b 45 e8             	mov    -0x18(%rbp),%eax
   18acd:	48 63 d0             	movslq %eax,%rdx
   18ad0:	48 89 d0             	mov    %rdx,%rax
   18ad3:	48 01 c0             	add    %rax,%rax
   18ad6:	48 01 d0             	add    %rdx,%rax
   18ad9:	48 c1 e0 03          	shl    $0x3,%rax
   18add:	48 89 c2             	mov    %rax,%rdx
   18ae0:	48 8d 05 fb 68 00 00 	lea    0x68fb(%rip),%rax        # 1f3e2 <g_1563+0x2>
   18ae7:	0f b7 04 02          	movzwl (%rdx,%rax,1),%eax
   18aeb:	0f b7 c0             	movzwl %ax,%eax
   18aee:	8b 55 f4             	mov    -0xc(%rbp),%edx
   18af1:	48 8d 35 40 3c 00 00 	lea    0x3c40(%rip),%rsi        # 1c738 <g_1219+0x2628>
   18af8:	48 89 c7             	mov    %rax,%rdi
   18afb:	e8 f3 0b ff ff       	callq  96f3 <transparent_crc>
   18b00:	8b 45 e8             	mov    -0x18(%rbp),%eax
   18b03:	48 63 d0             	movslq %eax,%rdx
   18b06:	48 89 d0             	mov    %rdx,%rax
   18b09:	48 01 c0             	add    %rax,%rax
   18b0c:	48 01 d0             	add    %rdx,%rax
   18b0f:	48 c1 e0 03          	shl    $0x3,%rax
   18b13:	48 89 c2             	mov    %rax,%rdx
   18b16:	48 8d 05 c3 68 00 00 	lea    0x68c3(%rip),%rax        # 1f3e0 <g_1563>
   18b1d:	48 8b 04 02          	mov    (%rdx,%rax,1),%rax
   18b21:	48 c1 e8 20          	shr    $0x20,%rax
   18b25:	83 e0 7f             	and    $0x7f,%eax
   18b28:	0f b6 c0             	movzbl %al,%eax
   18b2b:	8b 55 f4             	mov    -0xc(%rbp),%edx
   18b2e:	48 8d 35 10 3c 00 00 	lea    0x3c10(%rip),%rsi        # 1c745 <g_1219+0x2635>
   18b35:	48 89 c7             	mov    %rax,%rdi
   18b38:	e8 b6 0b ff ff       	callq  96f3 <transparent_crc>
   18b3d:	8b 45 e8             	mov    -0x18(%rbp),%eax
   18b40:	48 63 d0             	movslq %eax,%rdx
   18b43:	48 89 d0             	mov    %rdx,%rax
   18b46:	48 01 c0             	add    %rax,%rax
   18b49:	48 01 d0             	add    %rdx,%rax
   18b4c:	48 c1 e0 03          	shl    $0x3,%rax
   18b50:	48 89 c2             	mov    %rax,%rdx
   18b53:	48 8d 05 8e 68 00 00 	lea    0x688e(%rip),%rax        # 1f3e8 <g_1563+0x8>
   18b5a:	8b 04 02             	mov    (%rdx,%rax,1),%eax
   18b5d:	89 c1                	mov    %eax,%ecx
   18b5f:	8b 45 f4             	mov    -0xc(%rbp),%eax
   18b62:	89 c2                	mov    %eax,%edx
   18b64:	48 8d 35 e7 3b 00 00 	lea    0x3be7(%rip),%rsi        # 1c752 <g_1219+0x2642>
   18b6b:	48 89 cf             	mov    %rcx,%rdi
   18b6e:	e8 80 0b ff ff       	callq  96f3 <transparent_crc>
   18b73:	8b 45 e8             	mov    -0x18(%rbp),%eax
   18b76:	48 63 d0             	movslq %eax,%rdx
   18b79:	48 89 d0             	mov    %rdx,%rax
   18b7c:	48 01 c0             	add    %rax,%rax
   18b7f:	48 01 d0             	add    %rdx,%rax
   18b82:	48 c1 e0 03          	shl    $0x3,%rax
   18b86:	48 89 c2             	mov    %rax,%rdx
   18b89:	48 8d 05 5c 68 00 00 	lea    0x685c(%rip),%rax        # 1f3ec <g_1563+0xc>
   18b90:	0f b7 04 02          	movzwl (%rdx,%rax,1),%eax
   18b94:	0f b7 c0             	movzwl %ax,%eax
   18b97:	8b 55 f4             	mov    -0xc(%rbp),%edx
   18b9a:	48 8d 35 be 3b 00 00 	lea    0x3bbe(%rip),%rsi        # 1c75f <g_1219+0x264f>
   18ba1:	48 89 c7             	mov    %rax,%rdi
   18ba4:	e8 4a 0b ff ff       	callq  96f3 <transparent_crc>
   18ba9:	8b 45 e8             	mov    -0x18(%rbp),%eax
   18bac:	48 63 d0             	movslq %eax,%rdx
   18baf:	48 89 d0             	mov    %rdx,%rax
   18bb2:	48 01 c0             	add    %rax,%rax
   18bb5:	48 01 d0             	add    %rdx,%rax
   18bb8:	48 c1 e0 03          	shl    $0x3,%rax
   18bbc:	48 89 c2             	mov    %rax,%rdx
   18bbf:	48 8d 05 28 68 00 00 	lea    0x6828(%rip),%rax        # 1f3ee <g_1563+0xe>
   18bc6:	0f b7 04 02          	movzwl (%rdx,%rax,1),%eax
   18bca:	0f b7 c0             	movzwl %ax,%eax
   18bcd:	8b 55 f4             	mov    -0xc(%rbp),%edx
   18bd0:	48 8d 35 95 3b 00 00 	lea    0x3b95(%rip),%rsi        # 1c76c <g_1219+0x265c>
   18bd7:	48 89 c7             	mov    %rax,%rdi
   18bda:	e8 14 0b ff ff       	callq  96f3 <transparent_crc>
   18bdf:	8b 45 e8             	mov    -0x18(%rbp),%eax
   18be2:	48 63 d0             	movslq %eax,%rdx
   18be5:	48 89 d0             	mov    %rdx,%rax
   18be8:	48 01 c0             	add    %rax,%rax
   18beb:	48 01 d0             	add    %rdx,%rax
   18bee:	48 c1 e0 03          	shl    $0x3,%rax
   18bf2:	48 89 c2             	mov    %rax,%rdx
   18bf5:	48 8d 05 f4 67 00 00 	lea    0x67f4(%rip),%rax        # 1f3f0 <g_1563+0x10>
   18bfc:	48 8b 04 02          	mov    (%rdx,%rax,1),%rax
   18c00:	c1 e0 02             	shl    $0x2,%eax
   18c03:	c1 f8 02             	sar    $0x2,%eax
   18c06:	48 98                	cltq   
   18c08:	8b 55 f4             	mov    -0xc(%rbp),%edx
   18c0b:	48 8d 35 67 3b 00 00 	lea    0x3b67(%rip),%rsi        # 1c779 <g_1219+0x2669>
   18c12:	48 89 c7             	mov    %rax,%rdi
   18c15:	e8 d9 0a ff ff       	callq  96f3 <transparent_crc>
   18c1a:	8b 45 e8             	mov    -0x18(%rbp),%eax
   18c1d:	48 63 d0             	movslq %eax,%rdx
   18c20:	48 89 d0             	mov    %rdx,%rax
   18c23:	48 01 c0             	add    %rax,%rax
   18c26:	48 01 d0             	add    %rdx,%rax
   18c29:	48 c1 e0 03          	shl    $0x3,%rax
   18c2d:	48 89 c2             	mov    %rax,%rdx
   18c30:	48 8d 05 b9 67 00 00 	lea    0x67b9(%rip),%rax        # 1f3f0 <g_1563+0x10>
   18c37:	48 8b 04 02          	mov    (%rdx,%rax,1),%rax
   18c3b:	48 c1 e8 20          	shr    $0x20,%rax
   18c3f:	66 25 ff 1f          	and    $0x1fff,%ax
   18c43:	0f b7 c0             	movzwl %ax,%eax
   18c46:	8b 55 f4             	mov    -0xc(%rbp),%edx
   18c49:	48 8d 35 36 3b 00 00 	lea    0x3b36(%rip),%rsi        # 1c786 <g_1219+0x2676>
   18c50:	48 89 c7             	mov    %rax,%rdi
   18c53:	e8 9b 0a ff ff       	callq  96f3 <transparent_crc>
   18c58:	83 7d f4 00          	cmpl   $0x0,-0xc(%rbp)
   18c5c:	74 16                	je     18c74 <main+0x15df>
   18c5e:	8b 45 e8             	mov    -0x18(%rbp),%eax
   18c61:	89 c6                	mov    %eax,%esi
   18c63:	48 8d 3d df 35 00 00 	lea    0x35df(%rip),%rdi        # 1c249 <g_1219+0x2139>
   18c6a:	b8 00 00 00 00       	mov    $0x0,%eax
   18c6f:	e8 0c f4 fe ff       	callq  8080 <printf@plt>
   18c74:	83 45 e8 01          	addl   $0x1,-0x18(%rbp)
   18c78:	83 7d e8 06          	cmpl   $0x6,-0x18(%rbp)
   18c7c:	0f 8e d9 fd ff ff    	jle    18a5b <main+0x13c6>
   18c82:	c7 45 e8 00 00 00 00 	movl   $0x0,-0x18(%rbp)
   18c89:	e9 17 02 00 00       	jmpq   18ea5 <main+0x1810>
   18c8e:	8b 45 e8             	mov    -0x18(%rbp),%eax
   18c91:	48 63 d0             	movslq %eax,%rdx
   18c94:	48 89 d0             	mov    %rdx,%rax
   18c97:	48 01 c0             	add    %rax,%rax
   18c9a:	48 01 d0             	add    %rdx,%rax
   18c9d:	48 c1 e0 03          	shl    $0x3,%rax
   18ca1:	48 89 c2             	mov    %rax,%rdx
   18ca4:	48 8d 05 f5 67 00 00 	lea    0x67f5(%rip),%rax        # 1f4a0 <g_1577>
   18cab:	0f b6 04 02          	movzbl (%rdx,%rax,1),%eax
   18caf:	83 e0 03             	and    $0x3,%eax
   18cb2:	0f b6 c0             	movzbl %al,%eax
   18cb5:	8b 55 f4             	mov    -0xc(%rbp),%edx
   18cb8:	48 8d 35 d4 3a 00 00 	lea    0x3ad4(%rip),%rsi        # 1c793 <g_1219+0x2683>
   18cbf:	48 89 c7             	mov    %rax,%rdi
   18cc2:	e8 2c 0a ff ff       	callq  96f3 <transparent_crc>
   18cc7:	8b 45 e8             	mov    -0x18(%rbp),%eax
   18cca:	48 63 d0             	movslq %eax,%rdx
   18ccd:	48 89 d0             	mov    %rdx,%rax
   18cd0:	48 01 c0             	add    %rax,%rax
   18cd3:	48 01 d0             	add    %rdx,%rax
   18cd6:	48 c1 e0 03          	shl    $0x3,%rax
   18cda:	48 89 c2             	mov    %rax,%rdx
   18cdd:	48 8d 05 bd 67 00 00 	lea    0x67bd(%rip),%rax        # 1f4a1 <g_1577+0x1>
   18ce4:	0f b6 04 02          	movzbl (%rdx,%rax,1),%eax
   18ce8:	0f b6 c0             	movzbl %al,%eax
   18ceb:	8b 55 f4             	mov    -0xc(%rbp),%edx
   18cee:	48 8d 35 ab 3a 00 00 	lea    0x3aab(%rip),%rsi        # 1c7a0 <g_1219+0x2690>
   18cf5:	48 89 c7             	mov    %rax,%rdi
   18cf8:	e8 f6 09 ff ff       	callq  96f3 <transparent_crc>
   18cfd:	8b 45 e8             	mov    -0x18(%rbp),%eax
   18d00:	48 63 d0             	movslq %eax,%rdx
   18d03:	48 89 d0             	mov    %rdx,%rax
   18d06:	48 01 c0             	add    %rax,%rax
   18d09:	48 01 d0             	add    %rdx,%rax
   18d0c:	48 c1 e0 03          	shl    $0x3,%rax
   18d10:	48 89 c2             	mov    %rax,%rdx
   18d13:	48 8d 05 88 67 00 00 	lea    0x6788(%rip),%rax        # 1f4a2 <g_1577+0x2>
   18d1a:	0f b7 04 02          	movzwl (%rdx,%rax,1),%eax
   18d1e:	0f b7 c0             	movzwl %ax,%eax
   18d21:	8b 55 f4             	mov    -0xc(%rbp),%edx
   18d24:	48 8d 35 82 3a 00 00 	lea    0x3a82(%rip),%rsi        # 1c7ad <g_1219+0x269d>
   18d2b:	48 89 c7             	mov    %rax,%rdi
   18d2e:	e8 c0 09 ff ff       	callq  96f3 <transparent_crc>
   18d33:	8b 45 e8             	mov    -0x18(%rbp),%eax
   18d36:	48 63 d0             	movslq %eax,%rdx
   18d39:	48 89 d0             	mov    %rdx,%rax
   18d3c:	48 01 c0             	add    %rax,%rax
   18d3f:	48 01 d0             	add    %rdx,%rax
   18d42:	48 c1 e0 03          	shl    $0x3,%rax
   18d46:	48 89 c2             	mov    %rax,%rdx
   18d49:	48 8d 05 50 67 00 00 	lea    0x6750(%rip),%rax        # 1f4a0 <g_1577>
   18d50:	0f b6 44 02 04       	movzbl 0x4(%rdx,%rax,1),%eax
   18d55:	83 e0 7f             	and    $0x7f,%eax
   18d58:	0f b6 c0             	movzbl %al,%eax
   18d5b:	8b 55 f4             	mov    -0xc(%rbp),%edx
   18d5e:	48 8d 35 55 3a 00 00 	lea    0x3a55(%rip),%rsi        # 1c7ba <g_1219+0x26aa>
   18d65:	48 89 c7             	mov    %rax,%rdi
   18d68:	e8 86 09 ff ff       	callq  96f3 <transparent_crc>
   18d6d:	8b 45 e8             	mov    -0x18(%rbp),%eax
   18d70:	48 63 d0             	movslq %eax,%rdx
   18d73:	48 89 d0             	mov    %rdx,%rax
   18d76:	48 01 c0             	add    %rax,%rax
   18d79:	48 01 d0             	add    %rdx,%rax
   18d7c:	48 c1 e0 03          	shl    $0x3,%rax
   18d80:	48 89 c2             	mov    %rax,%rdx
   18d83:	48 8d 05 1e 67 00 00 	lea    0x671e(%rip),%rax        # 1f4a8 <g_1577+0x8>
   18d8a:	8b 04 02             	mov    (%rdx,%rax,1),%eax
   18d8d:	89 c1                	mov    %eax,%ecx
   18d8f:	8b 45 f4             	mov    -0xc(%rbp),%eax
   18d92:	89 c2                	mov    %eax,%edx
   18d94:	48 8d 35 2c 3a 00 00 	lea    0x3a2c(%rip),%rsi        # 1c7c7 <g_1219+0x26b7>
   18d9b:	48 89 cf             	mov    %rcx,%rdi
   18d9e:	e8 50 09 ff ff       	callq  96f3 <transparent_crc>
   18da3:	8b 45 e8             	mov    -0x18(%rbp),%eax
   18da6:	48 63 d0             	movslq %eax,%rdx
   18da9:	48 89 d0             	mov    %rdx,%rax
   18dac:	48 01 c0             	add    %rax,%rax
   18daf:	48 01 d0             	add    %rdx,%rax
   18db2:	48 c1 e0 03          	shl    $0x3,%rax
   18db6:	48 89 c2             	mov    %rax,%rdx
   18db9:	48 8d 05 ec 66 00 00 	lea    0x66ec(%rip),%rax        # 1f4ac <g_1577+0xc>
   18dc0:	0f b7 04 02          	movzwl (%rdx,%rax,1),%eax
   18dc4:	0f b7 c0             	movzwl %ax,%eax
   18dc7:	8b 55 f4             	mov    -0xc(%rbp),%edx
   18dca:	48 8d 35 03 3a 00 00 	lea    0x3a03(%rip),%rsi        # 1c7d4 <g_1219+0x26c4>
   18dd1:	48 89 c7             	mov    %rax,%rdi
   18dd4:	e8 1a 09 ff ff       	callq  96f3 <transparent_crc>
   18dd9:	8b 45 e8             	mov    -0x18(%rbp),%eax
   18ddc:	48 63 d0             	movslq %eax,%rdx
   18ddf:	48 89 d0             	mov    %rdx,%rax
   18de2:	48 01 c0             	add    %rax,%rax
   18de5:	48 01 d0             	add    %rdx,%rax
   18de8:	48 c1 e0 03          	shl    $0x3,%rax
   18dec:	48 89 c2             	mov    %rax,%rdx
   18def:	48 8d 05 b8 66 00 00 	lea    0x66b8(%rip),%rax        # 1f4ae <g_1577+0xe>
   18df6:	0f b7 04 02          	movzwl (%rdx,%rax,1),%eax
   18dfa:	0f b7 c0             	movzwl %ax,%eax
   18dfd:	8b 55 f4             	mov    -0xc(%rbp),%edx
   18e00:	48 8d 35 da 39 00 00 	lea    0x39da(%rip),%rsi        # 1c7e1 <g_1219+0x26d1>
   18e07:	48 89 c7             	mov    %rax,%rdi
   18e0a:	e8 e4 08 ff ff       	callq  96f3 <transparent_crc>
   18e0f:	8b 45 e8             	mov    -0x18(%rbp),%eax
   18e12:	48 63 d0             	movslq %eax,%rdx
   18e15:	48 89 d0             	mov    %rdx,%rax
   18e18:	48 01 c0             	add    %rax,%rax
   18e1b:	48 01 d0             	add    %rdx,%rax
   18e1e:	48 c1 e0 03          	shl    $0x3,%rax
   18e22:	48 89 c2             	mov    %rax,%rdx
   18e25:	48 8d 05 84 66 00 00 	lea    0x6684(%rip),%rax        # 1f4b0 <g_1577+0x10>
   18e2c:	48 8b 04 02          	mov    (%rdx,%rax,1),%rax
   18e30:	c1 e0 02             	shl    $0x2,%eax
   18e33:	c1 f8 02             	sar    $0x2,%eax
   18e36:	48 98                	cltq   
   18e38:	8b 55 f4             	mov    -0xc(%rbp),%edx
   18e3b:	48 8d 35 ac 39 00 00 	lea    0x39ac(%rip),%rsi        # 1c7ee <g_1219+0x26de>
   18e42:	48 89 c7             	mov    %rax,%rdi
   18e45:	e8 a9 08 ff ff       	callq  96f3 <transparent_crc>
   18e4a:	8b 45 e8             	mov    -0x18(%rbp),%eax
   18e4d:	48 63 d0             	movslq %eax,%rdx
   18e50:	48 89 d0             	mov    %rdx,%rax
   18e53:	48 01 c0             	add    %rax,%rax
   18e56:	48 01 d0             	add    %rdx,%rax
   18e59:	48 c1 e0 03          	shl    $0x3,%rax
   18e5d:	48 89 c2             	mov    %rax,%rdx
   18e60:	48 8d 05 49 66 00 00 	lea    0x6649(%rip),%rax        # 1f4b0 <g_1577+0x10>
   18e67:	0f b7 44 02 04       	movzwl 0x4(%rdx,%rax,1),%eax
   18e6c:	66 25 ff 1f          	and    $0x1fff,%ax
   18e70:	0f b7 c0             	movzwl %ax,%eax
   18e73:	8b 55 f4             	mov    -0xc(%rbp),%edx
   18e76:	48 8d 35 7e 39 00 00 	lea    0x397e(%rip),%rsi        # 1c7fb <g_1219+0x26eb>
   18e7d:	48 89 c7             	mov    %rax,%rdi
   18e80:	e8 6e 08 ff ff       	callq  96f3 <transparent_crc>
   18e85:	83 7d f4 00          	cmpl   $0x0,-0xc(%rbp)
   18e89:	74 16                	je     18ea1 <main+0x180c>
   18e8b:	8b 45 e8             	mov    -0x18(%rbp),%eax
   18e8e:	89 c6                	mov    %eax,%esi
   18e90:	48 8d 3d b2 33 00 00 	lea    0x33b2(%rip),%rdi        # 1c249 <g_1219+0x2139>
   18e97:	b8 00 00 00 00       	mov    $0x0,%eax
   18e9c:	e8 df f1 fe ff       	callq  8080 <printf@plt>
   18ea1:	83 45 e8 01          	addl   $0x1,-0x18(%rbp)
   18ea5:	83 7d e8 02          	cmpl   $0x2,-0x18(%rbp)
   18ea9:	0f 8e df fd ff ff    	jle    18c8e <main+0x15f9>
   18eaf:	0f b6 05 3a 66 00 00 	movzbl 0x663a(%rip),%eax        # 1f4f0 <g_1585>
   18eb6:	83 e0 03             	and    $0x3,%eax
   18eb9:	0f b6 c0             	movzbl %al,%eax
   18ebc:	8b 55 f4             	mov    -0xc(%rbp),%edx
   18ebf:	48 8d 35 42 39 00 00 	lea    0x3942(%rip),%rsi        # 1c808 <g_1219+0x26f8>
   18ec6:	48 89 c7             	mov    %rax,%rdi
   18ec9:	e8 25 08 ff ff       	callq  96f3 <transparent_crc>
   18ece:	0f b6 05 1c 66 00 00 	movzbl 0x661c(%rip),%eax        # 1f4f1 <g_1585+0x1>
   18ed5:	0f b6 c0             	movzbl %al,%eax
   18ed8:	8b 55 f4             	mov    -0xc(%rbp),%edx
   18edb:	48 8d 35 30 39 00 00 	lea    0x3930(%rip),%rsi        # 1c812 <g_1219+0x2702>
   18ee2:	48 89 c7             	mov    %rax,%rdi
   18ee5:	e8 09 08 ff ff       	callq  96f3 <transparent_crc>
   18eea:	0f b7 05 01 66 00 00 	movzwl 0x6601(%rip),%eax        # 1f4f2 <g_1585+0x2>
   18ef1:	0f b7 c0             	movzwl %ax,%eax
   18ef4:	8b 55 f4             	mov    -0xc(%rbp),%edx
   18ef7:	48 8d 35 1e 39 00 00 	lea    0x391e(%rip),%rsi        # 1c81c <g_1219+0x270c>
   18efe:	48 89 c7             	mov    %rax,%rdi
   18f01:	e8 ed 07 ff ff       	callq  96f3 <transparent_crc>
   18f06:	0f b6 05 e7 65 00 00 	movzbl 0x65e7(%rip),%eax        # 1f4f4 <g_1585+0x4>
   18f0d:	83 e0 7f             	and    $0x7f,%eax
   18f10:	0f b6 c0             	movzbl %al,%eax
   18f13:	8b 55 f4             	mov    -0xc(%rbp),%edx
   18f16:	48 8d 35 09 39 00 00 	lea    0x3909(%rip),%rsi        # 1c826 <g_1219+0x2716>
   18f1d:	48 89 c7             	mov    %rax,%rdi
   18f20:	e8 ce 07 ff ff       	callq  96f3 <transparent_crc>
   18f25:	8b 05 cd 65 00 00    	mov    0x65cd(%rip),%eax        # 1f4f8 <g_1585+0x8>
   18f2b:	89 c1                	mov    %eax,%ecx
   18f2d:	8b 45 f4             	mov    -0xc(%rbp),%eax
   18f30:	89 c2                	mov    %eax,%edx
   18f32:	48 8d 35 f7 38 00 00 	lea    0x38f7(%rip),%rsi        # 1c830 <g_1219+0x2720>
   18f39:	48 89 cf             	mov    %rcx,%rdi
   18f3c:	e8 b2 07 ff ff       	callq  96f3 <transparent_crc>
   18f41:	0f b7 05 b4 65 00 00 	movzwl 0x65b4(%rip),%eax        # 1f4fc <g_1585+0xc>
   18f48:	0f b7 c0             	movzwl %ax,%eax
   18f4b:	8b 55 f4             	mov    -0xc(%rbp),%edx
   18f4e:	48 8d 35 e5 38 00 00 	lea    0x38e5(%rip),%rsi        # 1c83a <g_1219+0x272a>
   18f55:	48 89 c7             	mov    %rax,%rdi
   18f58:	e8 96 07 ff ff       	callq  96f3 <transparent_crc>
   18f5d:	0f b7 05 9a 65 00 00 	movzwl 0x659a(%rip),%eax        # 1f4fe <g_1585+0xe>
   18f64:	0f b7 c0             	movzwl %ax,%eax
   18f67:	8b 55 f4             	mov    -0xc(%rbp),%edx
   18f6a:	48 8d 35 d3 38 00 00 	lea    0x38d3(%rip),%rsi        # 1c844 <g_1219+0x2734>
   18f71:	48 89 c7             	mov    %rax,%rdi
   18f74:	e8 7a 07 ff ff       	callq  96f3 <transparent_crc>
   18f79:	48 8b 05 80 65 00 00 	mov    0x6580(%rip),%rax        # 1f500 <g_1585+0x10>
   18f80:	c1 e0 02             	shl    $0x2,%eax
   18f83:	c1 f8 02             	sar    $0x2,%eax
   18f86:	48 98                	cltq   
   18f88:	8b 55 f4             	mov    -0xc(%rbp),%edx
   18f8b:	48 8d 35 bc 38 00 00 	lea    0x38bc(%rip),%rsi        # 1c84e <g_1219+0x273e>
   18f92:	48 89 c7             	mov    %rax,%rdi
   18f95:	e8 59 07 ff ff       	callq  96f3 <transparent_crc>
   18f9a:	0f b7 05 63 65 00 00 	movzwl 0x6563(%rip),%eax        # 1f504 <g_1585+0x14>
   18fa1:	66 25 ff 1f          	and    $0x1fff,%ax
   18fa5:	0f b7 c0             	movzwl %ax,%eax
   18fa8:	8b 55 f4             	mov    -0xc(%rbp),%edx
   18fab:	48 8d 35 a6 38 00 00 	lea    0x38a6(%rip),%rsi        # 1c858 <g_1219+0x2748>
   18fb2:	48 89 c7             	mov    %rax,%rdi
   18fb5:	e8 39 07 ff ff       	callq  96f3 <transparent_crc>
   18fba:	c7 45 e8 00 00 00 00 	movl   $0x0,-0x18(%rbp)
   18fc1:	e9 ac 00 00 00       	jmpq   19072 <main+0x19dd>
   18fc6:	c7 45 ec 00 00 00 00 	movl   $0x0,-0x14(%rbp)
   18fcd:	e9 92 00 00 00       	jmpq   19064 <main+0x19cf>
   18fd2:	c7 45 f0 00 00 00 00 	movl   $0x0,-0x10(%rbp)
   18fd9:	eb 7b                	jmp    19056 <main+0x19c1>
   18fdb:	8b 45 f0             	mov    -0x10(%rbp),%eax
   18fde:	48 63 f0             	movslq %eax,%rsi
   18fe1:	8b 45 e8             	mov    -0x18(%rbp),%eax
   18fe4:	48 63 d0             	movslq %eax,%rdx
   18fe7:	8b 45 ec             	mov    -0x14(%rbp),%eax
   18fea:	48 63 c8             	movslq %eax,%rcx
   18fed:	48 89 d0             	mov    %rdx,%rax
   18ff0:	48 c1 e0 03          	shl    $0x3,%rax
   18ff4:	48 29 d0             	sub    %rdx,%rax
   18ff7:	48 c1 e0 02          	shl    $0x2,%rax
   18ffb:	48 89 ca             	mov    %rcx,%rdx
   18ffe:	48 c1 e2 03          	shl    $0x3,%rdx
   19002:	48 29 ca             	sub    %rcx,%rdx
   19005:	48 01 d0             	add    %rdx,%rax
   19008:	48 01 f0             	add    %rsi,%rax
   1900b:	48 8d 14 00          	lea    (%rax,%rax,1),%rdx
   1900f:	48 8d 05 0a 65 00 00 	lea    0x650a(%rip),%rax        # 1f520 <g_1707>
   19016:	0f b7 04 02          	movzwl (%rdx,%rax,1),%eax
   1901a:	48 0f bf c0          	movswq %ax,%rax
   1901e:	8b 55 f4             	mov    -0xc(%rbp),%edx
   19021:	48 8d 35 3a 38 00 00 	lea    0x383a(%rip),%rsi        # 1c862 <g_1219+0x2752>
   19028:	48 89 c7             	mov    %rax,%rdi
   1902b:	e8 c3 06 ff ff       	callq  96f3 <transparent_crc>
   19030:	83 7d f4 00          	cmpl   $0x0,-0xc(%rbp)
   19034:	74 1c                	je     19052 <main+0x19bd>
   19036:	8b 4d f0             	mov    -0x10(%rbp),%ecx
   19039:	8b 55 ec             	mov    -0x14(%rbp),%edx
   1903c:	8b 45 e8             	mov    -0x18(%rbp),%eax
   1903f:	89 c6                	mov    %eax,%esi
   19041:	48 8d 3d 2a 38 00 00 	lea    0x382a(%rip),%rdi        # 1c872 <g_1219+0x2762>
   19048:	b8 00 00 00 00       	mov    $0x0,%eax
   1904d:	e8 2e f0 fe ff       	callq  8080 <printf@plt>
   19052:	83 45 f0 01          	addl   $0x1,-0x10(%rbp)
   19056:	83 7d f0 06          	cmpl   $0x6,-0x10(%rbp)
   1905a:	0f 8e 7b ff ff ff    	jle    18fdb <main+0x1946>
   19060:	83 45 ec 01          	addl   $0x1,-0x14(%rbp)
   19064:	83 7d ec 03          	cmpl   $0x3,-0x14(%rbp)
   19068:	0f 8e 64 ff ff ff    	jle    18fd2 <main+0x193d>
   1906e:	83 45 e8 01          	addl   $0x1,-0x18(%rbp)
   19072:	83 7d e8 08          	cmpl   $0x8,-0x18(%rbp)
   19076:	0f 8e 4a ff ff ff    	jle    18fc6 <main+0x1931>
   1907c:	0f b6 05 9d 66 00 00 	movzbl 0x669d(%rip),%eax        # 1f720 <g_1741>
   19083:	83 e0 03             	and    $0x3,%eax
   19086:	0f b6 c0             	movzbl %al,%eax
   19089:	8b 55 f4             	mov    -0xc(%rbp),%edx
   1908c:	48 8d 35 f5 37 00 00 	lea    0x37f5(%rip),%rsi        # 1c888 <g_1219+0x2778>
   19093:	48 89 c7             	mov    %rax,%rdi
   19096:	e8 58 06 ff ff       	callq  96f3 <transparent_crc>
   1909b:	0f b6 05 7f 66 00 00 	movzbl 0x667f(%rip),%eax        # 1f721 <g_1741+0x1>
   190a2:	0f b6 c0             	movzbl %al,%eax
   190a5:	8b 55 f4             	mov    -0xc(%rbp),%edx
   190a8:	48 8d 35 e3 37 00 00 	lea    0x37e3(%rip),%rsi        # 1c892 <g_1219+0x2782>
   190af:	48 89 c7             	mov    %rax,%rdi
   190b2:	e8 3c 06 ff ff       	callq  96f3 <transparent_crc>
   190b7:	0f b7 05 64 66 00 00 	movzwl 0x6664(%rip),%eax        # 1f722 <g_1741+0x2>
   190be:	0f b7 c0             	movzwl %ax,%eax
   190c1:	8b 55 f4             	mov    -0xc(%rbp),%edx
   190c4:	48 8d 35 d1 37 00 00 	lea    0x37d1(%rip),%rsi        # 1c89c <g_1219+0x278c>
   190cb:	48 89 c7             	mov    %rax,%rdi
   190ce:	e8 20 06 ff ff       	callq  96f3 <transparent_crc>
   190d3:	0f b6 05 4a 66 00 00 	movzbl 0x664a(%rip),%eax        # 1f724 <g_1741+0x4>
   190da:	83 e0 7f             	and    $0x7f,%eax
   190dd:	0f b6 c0             	movzbl %al,%eax
   190e0:	8b 55 f4             	mov    -0xc(%rbp),%edx
   190e3:	48 8d 35 bc 37 00 00 	lea    0x37bc(%rip),%rsi        # 1c8a6 <g_1219+0x2796>
   190ea:	48 89 c7             	mov    %rax,%rdi
   190ed:	e8 01 06 ff ff       	callq  96f3 <transparent_crc>
   190f2:	8b 05 30 66 00 00    	mov    0x6630(%rip),%eax        # 1f728 <g_1741+0x8>
   190f8:	89 c1                	mov    %eax,%ecx
   190fa:	8b 45 f4             	mov    -0xc(%rbp),%eax
   190fd:	89 c2                	mov    %eax,%edx
   190ff:	48 8d 35 aa 37 00 00 	lea    0x37aa(%rip),%rsi        # 1c8b0 <g_1219+0x27a0>
   19106:	48 89 cf             	mov    %rcx,%rdi
   19109:	e8 e5 05 ff ff       	callq  96f3 <transparent_crc>
   1910e:	0f b7 05 17 66 00 00 	movzwl 0x6617(%rip),%eax        # 1f72c <g_1741+0xc>
   19115:	0f b7 c0             	movzwl %ax,%eax
   19118:	8b 55 f4             	mov    -0xc(%rbp),%edx
   1911b:	48 8d 35 98 37 00 00 	lea    0x3798(%rip),%rsi        # 1c8ba <g_1219+0x27aa>
   19122:	48 89 c7             	mov    %rax,%rdi
   19125:	e8 c9 05 ff ff       	callq  96f3 <transparent_crc>
   1912a:	0f b7 05 fd 65 00 00 	movzwl 0x65fd(%rip),%eax        # 1f72e <g_1741+0xe>
   19131:	0f b7 c0             	movzwl %ax,%eax
   19134:	8b 55 f4             	mov    -0xc(%rbp),%edx
   19137:	48 8d 35 86 37 00 00 	lea    0x3786(%rip),%rsi        # 1c8c4 <g_1219+0x27b4>
   1913e:	48 89 c7             	mov    %rax,%rdi
   19141:	e8 ad 05 ff ff       	callq  96f3 <transparent_crc>
   19146:	48 8b 05 e3 65 00 00 	mov    0x65e3(%rip),%rax        # 1f730 <g_1741+0x10>
   1914d:	c1 e0 02             	shl    $0x2,%eax
   19150:	c1 f8 02             	sar    $0x2,%eax
   19153:	48 98                	cltq   
   19155:	8b 55 f4             	mov    -0xc(%rbp),%edx
   19158:	48 8d 35 6f 37 00 00 	lea    0x376f(%rip),%rsi        # 1c8ce <g_1219+0x27be>
   1915f:	48 89 c7             	mov    %rax,%rdi
   19162:	e8 8c 05 ff ff       	callq  96f3 <transparent_crc>
   19167:	0f b7 05 c6 65 00 00 	movzwl 0x65c6(%rip),%eax        # 1f734 <g_1741+0x14>
   1916e:	66 25 ff 1f          	and    $0x1fff,%ax
   19172:	0f b7 c0             	movzwl %ax,%eax
   19175:	8b 55 f4             	mov    -0xc(%rbp),%edx
   19178:	48 8d 35 59 37 00 00 	lea    0x3759(%rip),%rsi        # 1c8d8 <g_1219+0x27c8>
   1917f:	48 89 c7             	mov    %rax,%rdi
   19182:	e8 6c 05 ff ff       	callq  96f3 <transparent_crc>
   19187:	c7 45 e8 00 00 00 00 	movl   $0x0,-0x18(%rbp)
   1918e:	eb 74                	jmp    19204 <main+0x1b6f>
   19190:	c7 45 ec 00 00 00 00 	movl   $0x0,-0x14(%rbp)
   19197:	eb 61                	jmp    191fa <main+0x1b65>
   19199:	8b 45 ec             	mov    -0x14(%rbp),%eax
   1919c:	48 63 c8             	movslq %eax,%rcx
   1919f:	8b 45 e8             	mov    -0x18(%rbp),%eax
   191a2:	48 63 d0             	movslq %eax,%rdx
   191a5:	48 89 d0             	mov    %rdx,%rax
   191a8:	48 01 c0             	add    %rax,%rax
   191ab:	48 01 d0             	add    %rdx,%rax
   191ae:	48 01 c8             	add    %rcx,%rax
   191b1:	48 8d 14 85 00 00 00 	lea    0x0(,%rax,4),%rdx
   191b8:	00 
   191b9:	48 8d 05 80 65 00 00 	lea    0x6580(%rip),%rax        # 1f740 <g_1841>
   191c0:	8b 04 02             	mov    (%rdx,%rax,1),%eax
   191c3:	48 98                	cltq   
   191c5:	8b 55 f4             	mov    -0xc(%rbp),%edx
   191c8:	48 8d 35 13 37 00 00 	lea    0x3713(%rip),%rsi        # 1c8e2 <g_1219+0x27d2>
   191cf:	48 89 c7             	mov    %rax,%rdi
   191d2:	e8 1c 05 ff ff       	callq  96f3 <transparent_crc>
   191d7:	83 7d f4 00          	cmpl   $0x0,-0xc(%rbp)
   191db:	74 19                	je     191f6 <main+0x1b61>
   191dd:	8b 55 ec             	mov    -0x14(%rbp),%edx
   191e0:	8b 45 e8             	mov    -0x18(%rbp),%eax
   191e3:	89 c6                	mov    %eax,%esi
   191e5:	48 8d 3d 58 31 00 00 	lea    0x3158(%rip),%rdi        # 1c344 <g_1219+0x2234>
   191ec:	b8 00 00 00 00       	mov    $0x0,%eax
   191f1:	e8 8a ee fe ff       	callq  8080 <printf@plt>
   191f6:	83 45 ec 01          	addl   $0x1,-0x14(%rbp)
   191fa:	83 7d ec 02          	cmpl   $0x2,-0x14(%rbp)
   191fe:	7e 99                	jle    19199 <main+0x1b04>
   19200:	83 45 e8 01          	addl   $0x1,-0x18(%rbp)
   19204:	83 7d e8 08          	cmpl   $0x8,-0x18(%rbp)
   19208:	7e 86                	jle    19190 <main+0x1afb>
   1920a:	0f b6 05 9f 65 00 00 	movzbl 0x659f(%rip),%eax        # 1f7b0 <g_1990>
   19211:	83 e0 03             	and    $0x3,%eax
   19214:	0f b6 c0             	movzbl %al,%eax
   19217:	8b 55 f4             	mov    -0xc(%rbp),%edx
   1921a:	48 8d 35 ce 36 00 00 	lea    0x36ce(%rip),%rsi        # 1c8ef <g_1219+0x27df>
   19221:	48 89 c7             	mov    %rax,%rdi
   19224:	e8 ca 04 ff ff       	callq  96f3 <transparent_crc>
   19229:	0f b6 05 81 65 00 00 	movzbl 0x6581(%rip),%eax        # 1f7b1 <g_1990+0x1>
   19230:	0f b6 c0             	movzbl %al,%eax
   19233:	8b 55 f4             	mov    -0xc(%rbp),%edx
   19236:	48 8d 35 bc 36 00 00 	lea    0x36bc(%rip),%rsi        # 1c8f9 <g_1219+0x27e9>
   1923d:	48 89 c7             	mov    %rax,%rdi
   19240:	e8 ae 04 ff ff       	callq  96f3 <transparent_crc>
   19245:	0f b7 05 66 65 00 00 	movzwl 0x6566(%rip),%eax        # 1f7b2 <g_1990+0x2>
   1924c:	0f b7 c0             	movzwl %ax,%eax
   1924f:	8b 55 f4             	mov    -0xc(%rbp),%edx
   19252:	48 8d 35 aa 36 00 00 	lea    0x36aa(%rip),%rsi        # 1c903 <g_1219+0x27f3>
   19259:	48 89 c7             	mov    %rax,%rdi
   1925c:	e8 92 04 ff ff       	callq  96f3 <transparent_crc>
   19261:	0f b6 05 4c 65 00 00 	movzbl 0x654c(%rip),%eax        # 1f7b4 <g_1990+0x4>
   19268:	83 e0 7f             	and    $0x7f,%eax
   1926b:	0f b6 c0             	movzbl %al,%eax
   1926e:	8b 55 f4             	mov    -0xc(%rbp),%edx
   19271:	48 8d 35 95 36 00 00 	lea    0x3695(%rip),%rsi        # 1c90d <g_1219+0x27fd>
   19278:	48 89 c7             	mov    %rax,%rdi
   1927b:	e8 73 04 ff ff       	callq  96f3 <transparent_crc>
   19280:	8b 05 32 65 00 00    	mov    0x6532(%rip),%eax        # 1f7b8 <g_1990+0x8>
   19286:	89 c1                	mov    %eax,%ecx
   19288:	8b 45 f4             	mov    -0xc(%rbp),%eax
   1928b:	89 c2                	mov    %eax,%edx
   1928d:	48 8d 35 83 36 00 00 	lea    0x3683(%rip),%rsi        # 1c917 <g_1219+0x2807>
   19294:	48 89 cf             	mov    %rcx,%rdi
   19297:	e8 57 04 ff ff       	callq  96f3 <transparent_crc>
   1929c:	0f b7 05 19 65 00 00 	movzwl 0x6519(%rip),%eax        # 1f7bc <g_1990+0xc>
   192a3:	0f b7 c0             	movzwl %ax,%eax
   192a6:	8b 55 f4             	mov    -0xc(%rbp),%edx
   192a9:	48 8d 35 71 36 00 00 	lea    0x3671(%rip),%rsi        # 1c921 <g_1219+0x2811>
   192b0:	48 89 c7             	mov    %rax,%rdi
   192b3:	e8 3b 04 ff ff       	callq  96f3 <transparent_crc>
   192b8:	0f b7 05 ff 64 00 00 	movzwl 0x64ff(%rip),%eax        # 1f7be <g_1990+0xe>
   192bf:	0f b7 c0             	movzwl %ax,%eax
   192c2:	8b 55 f4             	mov    -0xc(%rbp),%edx
   192c5:	48 8d 35 5f 36 00 00 	lea    0x365f(%rip),%rsi        # 1c92b <g_1219+0x281b>
   192cc:	48 89 c7             	mov    %rax,%rdi
   192cf:	e8 1f 04 ff ff       	callq  96f3 <transparent_crc>
   192d4:	48 8b 05 e5 64 00 00 	mov    0x64e5(%rip),%rax        # 1f7c0 <g_1990+0x10>
   192db:	c1 e0 02             	shl    $0x2,%eax
   192de:	c1 f8 02             	sar    $0x2,%eax
   192e1:	48 98                	cltq   
   192e3:	8b 55 f4             	mov    -0xc(%rbp),%edx
   192e6:	48 8d 35 48 36 00 00 	lea    0x3648(%rip),%rsi        # 1c935 <g_1219+0x2825>
   192ed:	48 89 c7             	mov    %rax,%rdi
   192f0:	e8 fe 03 ff ff       	callq  96f3 <transparent_crc>
   192f5:	0f b7 05 c8 64 00 00 	movzwl 0x64c8(%rip),%eax        # 1f7c4 <g_1990+0x14>
   192fc:	66 25 ff 1f          	and    $0x1fff,%ax
   19300:	0f b7 c0             	movzwl %ax,%eax
   19303:	8b 55 f4             	mov    -0xc(%rbp),%edx
   19306:	48 8d 35 32 36 00 00 	lea    0x3632(%rip),%rsi        # 1c93f <g_1219+0x282f>
   1930d:	48 89 c7             	mov    %rax,%rdi
   19310:	e8 de 03 ff ff       	callq  96f3 <transparent_crc>
   19315:	8b 05 bd 98 00 00    	mov    0x98bd(%rip),%eax        # 22bd8 <g_2194>
   1931b:	48 98                	cltq   
   1931d:	8b 55 f4             	mov    -0xc(%rbp),%edx
   19320:	48 8d 35 22 36 00 00 	lea    0x3622(%rip),%rsi        # 1c949 <g_1219+0x2839>
   19327:	48 89 c7             	mov    %rax,%rdi
   1932a:	e8 c4 03 ff ff       	callq  96f3 <transparent_crc>
   1932f:	c7 45 e8 00 00 00 00 	movl   $0x0,-0x18(%rbp)
   19336:	eb 46                	jmp    1937e <main+0x1ce9>
   19338:	8b 45 e8             	mov    -0x18(%rbp),%eax
   1933b:	48 98                	cltq   
   1933d:	48 8d 15 84 64 00 00 	lea    0x6484(%rip),%rdx        # 1f7c8 <g_2216>
   19344:	0f b6 04 10          	movzbl (%rax,%rdx,1),%eax
   19348:	48 0f be c0          	movsbq %al,%rax
   1934c:	8b 55 f4             	mov    -0xc(%rbp),%edx
   1934f:	48 8d 35 fa 35 00 00 	lea    0x35fa(%rip),%rsi        # 1c950 <g_1219+0x2840>
   19356:	48 89 c7             	mov    %rax,%rdi
   19359:	e8 95 03 ff ff       	callq  96f3 <transparent_crc>
   1935e:	83 7d f4 00          	cmpl   $0x0,-0xc(%rbp)
   19362:	74 16                	je     1937a <main+0x1ce5>
   19364:	8b 45 e8             	mov    -0x18(%rbp),%eax
   19367:	89 c6                	mov    %eax,%esi
   19369:	48 8d 3d d9 2e 00 00 	lea    0x2ed9(%rip),%rdi        # 1c249 <g_1219+0x2139>
   19370:	b8 00 00 00 00       	mov    $0x0,%eax
   19375:	e8 06 ed fe ff       	callq  8080 <printf@plt>
   1937a:	83 45 e8 01          	addl   $0x1,-0x18(%rbp)
   1937e:	83 7d e8 03          	cmpl   $0x3,-0x18(%rbp)
   19382:	7e b4                	jle    19338 <main+0x1ca3>
   19384:	48 8b 05 45 64 00 00 	mov    0x6445(%rip),%rax        # 1f7d0 <g_2257>
   1938b:	48 89 c1             	mov    %rax,%rcx
   1938e:	8b 45 f4             	mov    -0xc(%rbp),%eax
   19391:	89 c2                	mov    %eax,%edx
   19393:	48 8d 35 c0 35 00 00 	lea    0x35c0(%rip),%rsi        # 1c95a <g_1219+0x284a>
   1939a:	48 89 cf             	mov    %rcx,%rdi
   1939d:	e8 51 03 ff ff       	callq  96f3 <transparent_crc>
   193a2:	0f b6 05 2f 64 00 00 	movzbl 0x642f(%rip),%eax        # 1f7d8 <g_2266>
   193a9:	48 0f be c0          	movsbq %al,%rax
   193ad:	8b 55 f4             	mov    -0xc(%rbp),%edx
   193b0:	48 8d 35 aa 35 00 00 	lea    0x35aa(%rip),%rsi        # 1c961 <g_1219+0x2851>
   193b7:	48 89 c7             	mov    %rax,%rdi
   193ba:	e8 34 03 ff ff       	callq  96f3 <transparent_crc>
   193bf:	48 8b 05 1a 64 00 00 	mov    0x641a(%rip),%rax        # 1f7e0 <g_2307>
   193c6:	48 89 c1             	mov    %rax,%rcx
   193c9:	8b 45 f4             	mov    -0xc(%rbp),%eax
   193cc:	89 c2                	mov    %eax,%edx
   193ce:	48 8d 35 93 35 00 00 	lea    0x3593(%rip),%rsi        # 1c968 <g_1219+0x2858>
   193d5:	48 89 cf             	mov    %rcx,%rdi
   193d8:	e8 16 03 ff ff       	callq  96f3 <transparent_crc>
   193dd:	48 8b 05 04 64 00 00 	mov    0x6404(%rip),%rax        # 1f7e8 <g_2403>
   193e4:	8b 55 f4             	mov    -0xc(%rbp),%edx
   193e7:	48 8d 35 81 35 00 00 	lea    0x3581(%rip),%rsi        # 1c96f <g_1219+0x285f>
   193ee:	48 89 c7             	mov    %rax,%rdi
   193f1:	e8 fd 02 ff ff       	callq  96f3 <transparent_crc>
   193f6:	8b 05 24 5c 00 00    	mov    0x5c24(%rip),%eax        # 1f020 <crc32_context>
   193fc:	f7 d0                	not    %eax
   193fe:	89 c2                	mov    %eax,%edx
   19400:	8b 45 f4             	mov    -0xc(%rbp),%eax
   19403:	89 c6                	mov    %eax,%esi
   19405:	89 d7                	mov    %edx,%edi
   19407:	e8 88 ed fe ff       	callq  8194 <platform_main_end>
   1940c:	b8 00 00 00 00       	mov    $0x0,%eax
   19411:	48 8b 4d f8          	mov    -0x8(%rbp),%rcx
   19415:	64 48 33 0c 25 28 00 	xor    %fs:0x28,%rcx
   1941c:	00 00 
   1941e:	74 05                	je     19425 <main+0x1d90>
   19420:	e8 4b ec fe ff       	callq  8070 <__stack_chk_fail@plt>
   19425:	c9                   	leaveq 
   19426:	c3                   	retq   
   19427:	66 0f 1f 84 00 00 00 	nopw   0x0(%rax,%rax,1)
   1942e:	00 00 

0000000000019430 <__libc_csu_init>:
   19430:	f3 0f 1e fa          	endbr64 
   19434:	41 57                	push   %r15
   19436:	4c 8d 3d 6b 59 00 00 	lea    0x596b(%rip),%r15        # 1eda8 <__frame_dummy_init_array_entry>
   1943d:	41 56                	push   %r14
   1943f:	49 89 d6             	mov    %rdx,%r14
   19442:	41 55                	push   %r13
   19444:	49 89 f5             	mov    %rsi,%r13
   19447:	41 54                	push   %r12
   19449:	41 89 fc             	mov    %edi,%r12d
   1944c:	55                   	push   %rbp
   1944d:	48 8d 2d 5c 59 00 00 	lea    0x595c(%rip),%rbp        # 1edb0 <__do_global_dtors_aux_fini_array_entry>
   19454:	53                   	push   %rbx
   19455:	4c 29 fd             	sub    %r15,%rbp
   19458:	48 83 ec 08          	sub    $0x8,%rsp
   1945c:	e8 9f eb fe ff       	callq  8000 <_init>
   19461:	48 c1 fd 03          	sar    $0x3,%rbp
   19465:	74 1f                	je     19486 <__libc_csu_init+0x56>
   19467:	31 db                	xor    %ebx,%ebx
   19469:	0f 1f 80 00 00 00 00 	nopl   0x0(%rax)
   19470:	4c 89 f2             	mov    %r14,%rdx
   19473:	4c 89 ee             	mov    %r13,%rsi
   19476:	44 89 e7             	mov    %r12d,%edi
   19479:	41 ff 14 df          	callq  *(%r15,%rbx,8)
   1947d:	48 83 c3 01          	add    $0x1,%rbx
   19481:	48 39 dd             	cmp    %rbx,%rbp
   19484:	75 ea                	jne    19470 <__libc_csu_init+0x40>
   19486:	48 83 c4 08          	add    $0x8,%rsp
   1948a:	5b                   	pop    %rbx
   1948b:	5d                   	pop    %rbp
   1948c:	41 5c                	pop    %r12
   1948e:	41 5d                	pop    %r13
   19490:	41 5e                	pop    %r14
   19492:	41 5f                	pop    %r15
   19494:	c3                   	retq   
   19495:	66 66 2e 0f 1f 84 00 	data16 nopw %cs:0x0(%rax,%rax,1)
   1949c:	00 00 00 00 

00000000000194a0 <__libc_csu_fini>:
   194a0:	f3 0f 1e fa          	endbr64 
   194a4:	c3                   	retq   
