


Disassembly of section .text:

00000000000060a0 <_start>:
    60a0:	f3 0f 1e fa          	endbr64 
    60a4:	31 ed                	xor    %ebp,%ebp
    60a6:	49 89 d1             	mov    %rdx,%r9
    60a9:	5e                   	pop    %rsi
    60aa:	48 89 e2             	mov    %rsp,%rdx
    60ad:	48 83 e4 f0          	and    $0xfffffffffffffff0,%rsp
    60b1:	50                   	push   %rax
    60b2:	54                   	push   %rsp
    60b3:	4c 8d 05 e6 dd 00 00 	lea    0xdde6(%rip),%r8        # 13ea0 <__libc_csu_fini>
    60ba:	48 8d 0d 6f dd 00 00 	lea    0xdd6f(%rip),%rcx        # 13e30 <__libc_csu_init>
    60c1:	48 8d 3d de cb 00 00 	lea    0xcbde(%rip),%rdi        # 12ca6 <main>
    60c8:	ff 15 fa 1e 01 00    	callq  *0x11efa(%rip)        # 17fc8 <__libc_start_main@GLIBC_2.2.5>
    60ce:	f4                   	hlt    
    60cf:	90                   	nop

00000000000060d0 <deregister_tm_clones>:
    60d0:	48 8d 3d e9 52 01 00 	lea    0x152e9(%rip),%rdi        # 1b3c0 <__TMC_END__>
    60d7:	48 8d 05 e2 52 01 00 	lea    0x152e2(%rip),%rax        # 1b3c0 <__TMC_END__>
    60de:	48 39 f8             	cmp    %rdi,%rax
    60e1:	74 15                	je     60f8 <deregister_tm_clones+0x28>
    60e3:	48 8b 05 d6 1e 01 00 	mov    0x11ed6(%rip),%rax        # 17fc0 <_ITM_deregisterTMCloneTable>
    60ea:	48 85 c0             	test   %rax,%rax
    60ed:	74 09                	je     60f8 <deregister_tm_clones+0x28>
    60ef:	ff e0                	jmpq   *%rax
    60f1:	0f 1f 80 00 00 00 00 	nopl   0x0(%rax)
    60f8:	c3                   	retq   
    60f9:	0f 1f 80 00 00 00 00 	nopl   0x0(%rax)

0000000000006100 <register_tm_clones>:
    6100:	48 8d 3d b9 52 01 00 	lea    0x152b9(%rip),%rdi        # 1b3c0 <__TMC_END__>
    6107:	48 8d 35 b2 52 01 00 	lea    0x152b2(%rip),%rsi        # 1b3c0 <__TMC_END__>
    610e:	48 29 fe             	sub    %rdi,%rsi
    6111:	48 89 f0             	mov    %rsi,%rax
    6114:	48 c1 ee 3f          	shr    $0x3f,%rsi
    6118:	48 c1 f8 03          	sar    $0x3,%rax
    611c:	48 01 c6             	add    %rax,%rsi
    611f:	48 d1 fe             	sar    %rsi
    6122:	74 14                	je     6138 <register_tm_clones+0x38>
    6124:	48 8b 05 ad 1e 01 00 	mov    0x11ead(%rip),%rax        # 17fd8 <_ITM_registerTMCloneTable>
    612b:	48 85 c0             	test   %rax,%rax
    612e:	74 08                	je     6138 <register_tm_clones+0x38>
    6130:	ff e0                	jmpq   *%rax
    6132:	66 0f 1f 44 00 00    	nopw   0x0(%rax,%rax,1)
    6138:	c3                   	retq   
    6139:	0f 1f 80 00 00 00 00 	nopl   0x0(%rax)

0000000000006140 <__do_global_dtors_aux>:
    6140:	f3 0f 1e fa          	endbr64 
    6144:	80 3d 75 52 01 00 00 	cmpb   $0x0,0x15275(%rip)        # 1b3c0 <__TMC_END__>
    614b:	75 2b                	jne    6178 <__do_global_dtors_aux+0x38>
    614d:	55                   	push   %rbp
    614e:	48 83 3d 8a 1e 01 00 	cmpq   $0x0,0x11e8a(%rip)        # 17fe0 <__cxa_finalize@GLIBC_2.2.5>
    6155:	00 
    6156:	48 89 e5             	mov    %rsp,%rbp
    6159:	74 0c                	je     6167 <__do_global_dtors_aux+0x27>
    615b:	48 8b 3d a6 1e 01 00 	mov    0x11ea6(%rip),%rdi        # 18008 <__dso_handle>
    6162:	e8 f9 fe ff ff       	callq  6060 <__cxa_finalize@plt>
    6167:	e8 64 ff ff ff       	callq  60d0 <deregister_tm_clones>
    616c:	c6 05 4d 52 01 00 01 	movb   $0x1,0x1524d(%rip)        # 1b3c0 <__TMC_END__>
    6173:	5d                   	pop    %rbp
    6174:	c3                   	retq   
    6175:	0f 1f 00             	nopl   (%rax)
    6178:	c3                   	retq   
    6179:	0f 1f 80 00 00 00 00 	nopl   0x0(%rax)

0000000000006180 <frame_dummy>:
    6180:	f3 0f 1e fa          	endbr64 
    6184:	e9 77 ff ff ff       	jmpq   6100 <register_tm_clones>

0000000000006189 <platform_main_begin>:
    6189:	f3 0f 1e fa          	endbr64 
    618d:	55                   	push   %rbp
    618e:	48 89 e5             	mov    %rsp,%rbp
    6191:	90                   	nop
    6192:	5d                   	pop    %rbp
    6193:	c3                   	retq   

0000000000006194 <platform_main_end>:
    6194:	f3 0f 1e fa          	endbr64 
    6198:	55                   	push   %rbp
    6199:	48 89 e5             	mov    %rsp,%rbp
    619c:	48 83 ec 10          	sub    $0x10,%rsp
    61a0:	89 7d fc             	mov    %edi,-0x4(%rbp)
    61a3:	89 75 f8             	mov    %esi,-0x8(%rbp)
    61a6:	8b 45 fc             	mov    -0x4(%rbp),%eax
    61a9:	89 c6                	mov    %eax,%esi
    61ab:	48 8d 3d 6e de 00 00 	lea    0xde6e(%rip),%rdi        # 14020 <_IO_stdin_used+0x20>
    61b2:	b8 00 00 00 00       	mov    $0x0,%eax
    61b7:	e8 c4 fe ff ff       	callq  6080 <printf@plt>
    61bc:	90                   	nop
    61bd:	c9                   	leaveq 
    61be:	c3                   	retq   

00000000000061bf <safe_unary_minus_func_int8_t_s>:
    61bf:	f3 0f 1e fa          	endbr64 
    61c3:	55                   	push   %rbp
    61c4:	48 89 e5             	mov    %rsp,%rbp
    61c7:	89 f8                	mov    %edi,%eax
    61c9:	88 45 fc             	mov    %al,-0x4(%rbp)
    61cc:	0f b6 45 fc          	movzbl -0x4(%rbp),%eax
    61d0:	f7 d8                	neg    %eax
    61d2:	5d                   	pop    %rbp
    61d3:	c3                   	retq   

00000000000061d4 <safe_add_func_int8_t_s_s>:
    61d4:	f3 0f 1e fa          	endbr64 
    61d8:	55                   	push   %rbp
    61d9:	48 89 e5             	mov    %rsp,%rbp
    61dc:	89 fa                	mov    %edi,%edx
    61de:	89 f0                	mov    %esi,%eax
    61e0:	88 55 fc             	mov    %dl,-0x4(%rbp)
    61e3:	88 45 f8             	mov    %al,-0x8(%rbp)
    61e6:	0f b6 55 fc          	movzbl -0x4(%rbp),%edx
    61ea:	0f b6 45 f8          	movzbl -0x8(%rbp),%eax
    61ee:	01 d0                	add    %edx,%eax
    61f0:	5d                   	pop    %rbp
    61f1:	c3                   	retq   

00000000000061f2 <safe_sub_func_int8_t_s_s>:
    61f2:	f3 0f 1e fa          	endbr64 
    61f6:	55                   	push   %rbp
    61f7:	48 89 e5             	mov    %rsp,%rbp
    61fa:	89 fa                	mov    %edi,%edx
    61fc:	89 f0                	mov    %esi,%eax
    61fe:	88 55 fc             	mov    %dl,-0x4(%rbp)
    6201:	88 45 f8             	mov    %al,-0x8(%rbp)
    6204:	0f b6 55 fc          	movzbl -0x4(%rbp),%edx
    6208:	0f b6 45 f8          	movzbl -0x8(%rbp),%eax
    620c:	29 c2                	sub    %eax,%edx
    620e:	89 d0                	mov    %edx,%eax
    6210:	5d                   	pop    %rbp
    6211:	c3                   	retq   

0000000000006212 <safe_mul_func_int8_t_s_s>:
    6212:	f3 0f 1e fa          	endbr64 
    6216:	55                   	push   %rbp
    6217:	48 89 e5             	mov    %rsp,%rbp
    621a:	89 fa                	mov    %edi,%edx
    621c:	89 f0                	mov    %esi,%eax
    621e:	88 55 fc             	mov    %dl,-0x4(%rbp)
    6221:	88 45 f8             	mov    %al,-0x8(%rbp)
    6224:	0f b6 45 fc          	movzbl -0x4(%rbp),%eax
    6228:	0f b6 55 f8          	movzbl -0x8(%rbp),%edx
    622c:	0f af c2             	imul   %edx,%eax
    622f:	5d                   	pop    %rbp
    6230:	c3                   	retq   

0000000000006231 <safe_mod_func_int8_t_s_s>:
    6231:	f3 0f 1e fa          	endbr64 
    6235:	55                   	push   %rbp
    6236:	48 89 e5             	mov    %rsp,%rbp
    6239:	89 fa                	mov    %edi,%edx
    623b:	89 f0                	mov    %esi,%eax
    623d:	88 55 fc             	mov    %dl,-0x4(%rbp)
    6240:	88 45 f8             	mov    %al,-0x8(%rbp)
    6243:	80 7d f8 00          	cmpb   $0x0,-0x8(%rbp)
    6247:	74 1b                	je     6264 <safe_mod_func_int8_t_s_s+0x33>
    6249:	80 7d fc 80          	cmpb   $0x80,-0x4(%rbp)
    624d:	75 06                	jne    6255 <safe_mod_func_int8_t_s_s+0x24>
    624f:	80 7d f8 ff          	cmpb   $0xff,-0x8(%rbp)
    6253:	74 0f                	je     6264 <safe_mod_func_int8_t_s_s+0x33>
    6255:	0f be 45 fc          	movsbl -0x4(%rbp),%eax
    6259:	0f be 4d f8          	movsbl -0x8(%rbp),%ecx
    625d:	99                   	cltd   
    625e:	f7 f9                	idiv   %ecx
    6260:	89 d0                	mov    %edx,%eax
    6262:	eb 04                	jmp    6268 <safe_mod_func_int8_t_s_s+0x37>
    6264:	0f b6 45 fc          	movzbl -0x4(%rbp),%eax
    6268:	5d                   	pop    %rbp
    6269:	c3                   	retq   

000000000000626a <safe_div_func_int8_t_s_s>:
    626a:	f3 0f 1e fa          	endbr64 
    626e:	55                   	push   %rbp
    626f:	48 89 e5             	mov    %rsp,%rbp
    6272:	89 fa                	mov    %edi,%edx
    6274:	89 f0                	mov    %esi,%eax
    6276:	88 55 fc             	mov    %dl,-0x4(%rbp)
    6279:	88 45 f8             	mov    %al,-0x8(%rbp)
    627c:	80 7d f8 00          	cmpb   $0x0,-0x8(%rbp)
    6280:	74 19                	je     629b <safe_div_func_int8_t_s_s+0x31>
    6282:	80 7d fc 80          	cmpb   $0x80,-0x4(%rbp)
    6286:	75 06                	jne    628e <safe_div_func_int8_t_s_s+0x24>
    6288:	80 7d f8 ff          	cmpb   $0xff,-0x8(%rbp)
    628c:	74 0d                	je     629b <safe_div_func_int8_t_s_s+0x31>
    628e:	0f be 45 fc          	movsbl -0x4(%rbp),%eax
    6292:	0f be 4d f8          	movsbl -0x8(%rbp),%ecx
    6296:	99                   	cltd   
    6297:	f7 f9                	idiv   %ecx
    6299:	eb 04                	jmp    629f <safe_div_func_int8_t_s_s+0x35>
    629b:	0f b6 45 fc          	movzbl -0x4(%rbp),%eax
    629f:	5d                   	pop    %rbp
    62a0:	c3                   	retq   

00000000000062a1 <safe_lshift_func_int8_t_s_s>:
    62a1:	f3 0f 1e fa          	endbr64 
    62a5:	55                   	push   %rbp
    62a6:	48 89 e5             	mov    %rsp,%rbp
    62a9:	89 f8                	mov    %edi,%eax
    62ab:	89 75 f8             	mov    %esi,-0x8(%rbp)
    62ae:	88 45 fc             	mov    %al,-0x4(%rbp)
    62b1:	80 7d fc 00          	cmpb   $0x0,-0x4(%rbp)
    62b5:	78 31                	js     62e8 <safe_lshift_func_int8_t_s_s+0x47>
    62b7:	83 7d f8 00          	cmpl   $0x0,-0x8(%rbp)
    62bb:	78 2b                	js     62e8 <safe_lshift_func_int8_t_s_s+0x47>
    62bd:	83 7d f8 1f          	cmpl   $0x1f,-0x8(%rbp)
    62c1:	7f 25                	jg     62e8 <safe_lshift_func_int8_t_s_s+0x47>
    62c3:	0f be 55 fc          	movsbl -0x4(%rbp),%edx
    62c7:	8b 45 f8             	mov    -0x8(%rbp),%eax
    62ca:	be 7f 00 00 00       	mov    $0x7f,%esi
    62cf:	89 c1                	mov    %eax,%ecx
    62d1:	d3 fe                	sar    %cl,%esi
    62d3:	89 f0                	mov    %esi,%eax
    62d5:	39 c2                	cmp    %eax,%edx
    62d7:	7f 0f                	jg     62e8 <safe_lshift_func_int8_t_s_s+0x47>
    62d9:	0f be 55 fc          	movsbl -0x4(%rbp),%edx
    62dd:	8b 45 f8             	mov    -0x8(%rbp),%eax
    62e0:	89 c1                	mov    %eax,%ecx
    62e2:	d3 e2                	shl    %cl,%edx
    62e4:	89 d0                	mov    %edx,%eax
    62e6:	eb 04                	jmp    62ec <safe_lshift_func_int8_t_s_s+0x4b>
    62e8:	0f b6 45 fc          	movzbl -0x4(%rbp),%eax
    62ec:	5d                   	pop    %rbp
    62ed:	c3                   	retq   

00000000000062ee <safe_lshift_func_int8_t_s_u>:
    62ee:	f3 0f 1e fa          	endbr64 
    62f2:	55                   	push   %rbp
    62f3:	48 89 e5             	mov    %rsp,%rbp
    62f6:	89 f8                	mov    %edi,%eax
    62f8:	89 75 f8             	mov    %esi,-0x8(%rbp)
    62fb:	88 45 fc             	mov    %al,-0x4(%rbp)
    62fe:	80 7d fc 00          	cmpb   $0x0,-0x4(%rbp)
    6302:	78 2b                	js     632f <safe_lshift_func_int8_t_s_u+0x41>
    6304:	83 7d f8 1f          	cmpl   $0x1f,-0x8(%rbp)
    6308:	77 25                	ja     632f <safe_lshift_func_int8_t_s_u+0x41>
    630a:	0f be 55 fc          	movsbl -0x4(%rbp),%edx
    630e:	8b 45 f8             	mov    -0x8(%rbp),%eax
    6311:	be 7f 00 00 00       	mov    $0x7f,%esi
    6316:	89 c1                	mov    %eax,%ecx
    6318:	d3 fe                	sar    %cl,%esi
    631a:	89 f0                	mov    %esi,%eax
    631c:	39 c2                	cmp    %eax,%edx
    631e:	7f 0f                	jg     632f <safe_lshift_func_int8_t_s_u+0x41>
    6320:	0f be 55 fc          	movsbl -0x4(%rbp),%edx
    6324:	8b 45 f8             	mov    -0x8(%rbp),%eax
    6327:	89 c1                	mov    %eax,%ecx
    6329:	d3 e2                	shl    %cl,%edx
    632b:	89 d0                	mov    %edx,%eax
    632d:	eb 04                	jmp    6333 <safe_lshift_func_int8_t_s_u+0x45>
    632f:	0f b6 45 fc          	movzbl -0x4(%rbp),%eax
    6333:	5d                   	pop    %rbp
    6334:	c3                   	retq   

0000000000006335 <safe_rshift_func_int8_t_s_s>:
    6335:	f3 0f 1e fa          	endbr64 
    6339:	55                   	push   %rbp
    633a:	48 89 e5             	mov    %rsp,%rbp
    633d:	89 f8                	mov    %edi,%eax
    633f:	89 75 f8             	mov    %esi,-0x8(%rbp)
    6342:	88 45 fc             	mov    %al,-0x4(%rbp)
    6345:	80 7d fc 00          	cmpb   $0x0,-0x4(%rbp)
    6349:	78 1b                	js     6366 <safe_rshift_func_int8_t_s_s+0x31>
    634b:	83 7d f8 00          	cmpl   $0x0,-0x8(%rbp)
    634f:	78 15                	js     6366 <safe_rshift_func_int8_t_s_s+0x31>
    6351:	83 7d f8 1f          	cmpl   $0x1f,-0x8(%rbp)
    6355:	7f 0f                	jg     6366 <safe_rshift_func_int8_t_s_s+0x31>
    6357:	0f be 55 fc          	movsbl -0x4(%rbp),%edx
    635b:	8b 45 f8             	mov    -0x8(%rbp),%eax
    635e:	89 c1                	mov    %eax,%ecx
    6360:	d3 fa                	sar    %cl,%edx
    6362:	89 d0                	mov    %edx,%eax
    6364:	eb 04                	jmp    636a <safe_rshift_func_int8_t_s_s+0x35>
    6366:	0f b6 45 fc          	movzbl -0x4(%rbp),%eax
    636a:	5d                   	pop    %rbp
    636b:	c3                   	retq   

000000000000636c <safe_rshift_func_int8_t_s_u>:
    636c:	f3 0f 1e fa          	endbr64 
    6370:	55                   	push   %rbp
    6371:	48 89 e5             	mov    %rsp,%rbp
    6374:	89 f8                	mov    %edi,%eax
    6376:	89 75 f8             	mov    %esi,-0x8(%rbp)
    6379:	88 45 fc             	mov    %al,-0x4(%rbp)
    637c:	80 7d fc 00          	cmpb   $0x0,-0x4(%rbp)
    6380:	78 15                	js     6397 <safe_rshift_func_int8_t_s_u+0x2b>
    6382:	83 7d f8 1f          	cmpl   $0x1f,-0x8(%rbp)
    6386:	77 0f                	ja     6397 <safe_rshift_func_int8_t_s_u+0x2b>
    6388:	0f be 55 fc          	movsbl -0x4(%rbp),%edx
    638c:	8b 45 f8             	mov    -0x8(%rbp),%eax
    638f:	89 c1                	mov    %eax,%ecx
    6391:	d3 fa                	sar    %cl,%edx
    6393:	89 d0                	mov    %edx,%eax
    6395:	eb 04                	jmp    639b <safe_rshift_func_int8_t_s_u+0x2f>
    6397:	0f b6 45 fc          	movzbl -0x4(%rbp),%eax
    639b:	5d                   	pop    %rbp
    639c:	c3                   	retq   

000000000000639d <safe_unary_minus_func_int16_t_s>:
    639d:	f3 0f 1e fa          	endbr64 
    63a1:	55                   	push   %rbp
    63a2:	48 89 e5             	mov    %rsp,%rbp
    63a5:	89 f8                	mov    %edi,%eax
    63a7:	66 89 45 fc          	mov    %ax,-0x4(%rbp)
    63ab:	0f b7 45 fc          	movzwl -0x4(%rbp),%eax
    63af:	f7 d8                	neg    %eax
    63b1:	5d                   	pop    %rbp
    63b2:	c3                   	retq   

00000000000063b3 <safe_add_func_int16_t_s_s>:
    63b3:	f3 0f 1e fa          	endbr64 
    63b7:	55                   	push   %rbp
    63b8:	48 89 e5             	mov    %rsp,%rbp
    63bb:	89 fa                	mov    %edi,%edx
    63bd:	89 f0                	mov    %esi,%eax
    63bf:	66 89 55 fc          	mov    %dx,-0x4(%rbp)
    63c3:	66 89 45 f8          	mov    %ax,-0x8(%rbp)
    63c7:	0f b7 55 fc          	movzwl -0x4(%rbp),%edx
    63cb:	0f b7 45 f8          	movzwl -0x8(%rbp),%eax
    63cf:	01 d0                	add    %edx,%eax
    63d1:	5d                   	pop    %rbp
    63d2:	c3                   	retq   

00000000000063d3 <safe_sub_func_int16_t_s_s>:
    63d3:	f3 0f 1e fa          	endbr64 
    63d7:	55                   	push   %rbp
    63d8:	48 89 e5             	mov    %rsp,%rbp
    63db:	89 fa                	mov    %edi,%edx
    63dd:	89 f0                	mov    %esi,%eax
    63df:	66 89 55 fc          	mov    %dx,-0x4(%rbp)
    63e3:	66 89 45 f8          	mov    %ax,-0x8(%rbp)
    63e7:	0f b7 55 fc          	movzwl -0x4(%rbp),%edx
    63eb:	0f b7 45 f8          	movzwl -0x8(%rbp),%eax
    63ef:	29 c2                	sub    %eax,%edx
    63f1:	89 d0                	mov    %edx,%eax
    63f3:	5d                   	pop    %rbp
    63f4:	c3                   	retq   

00000000000063f5 <safe_mul_func_int16_t_s_s>:
    63f5:	f3 0f 1e fa          	endbr64 
    63f9:	55                   	push   %rbp
    63fa:	48 89 e5             	mov    %rsp,%rbp
    63fd:	89 fa                	mov    %edi,%edx
    63ff:	89 f0                	mov    %esi,%eax
    6401:	66 89 55 fc          	mov    %dx,-0x4(%rbp)
    6405:	66 89 45 f8          	mov    %ax,-0x8(%rbp)
    6409:	0f b7 55 fc          	movzwl -0x4(%rbp),%edx
    640d:	0f b7 45 f8          	movzwl -0x8(%rbp),%eax
    6411:	0f af c2             	imul   %edx,%eax
    6414:	5d                   	pop    %rbp
    6415:	c3                   	retq   

0000000000006416 <safe_mod_func_int16_t_s_s>:
    6416:	f3 0f 1e fa          	endbr64 
    641a:	55                   	push   %rbp
    641b:	48 89 e5             	mov    %rsp,%rbp
    641e:	89 fa                	mov    %edi,%edx
    6420:	89 f0                	mov    %esi,%eax
    6422:	66 89 55 fc          	mov    %dx,-0x4(%rbp)
    6426:	66 89 45 f8          	mov    %ax,-0x8(%rbp)
    642a:	66 83 7d f8 00       	cmpw   $0x0,-0x8(%rbp)
    642f:	74 1e                	je     644f <safe_mod_func_int16_t_s_s+0x39>
    6431:	66 81 7d fc 00 80    	cmpw   $0x8000,-0x4(%rbp)
    6437:	75 07                	jne    6440 <safe_mod_func_int16_t_s_s+0x2a>
    6439:	66 83 7d f8 ff       	cmpw   $0xffff,-0x8(%rbp)
    643e:	74 0f                	je     644f <safe_mod_func_int16_t_s_s+0x39>
    6440:	0f bf 45 fc          	movswl -0x4(%rbp),%eax
    6444:	0f bf 4d f8          	movswl -0x8(%rbp),%ecx
    6448:	99                   	cltd   
    6449:	f7 f9                	idiv   %ecx
    644b:	89 d0                	mov    %edx,%eax
    644d:	eb 04                	jmp    6453 <safe_mod_func_int16_t_s_s+0x3d>
    644f:	0f b7 45 fc          	movzwl -0x4(%rbp),%eax
    6453:	5d                   	pop    %rbp
    6454:	c3                   	retq   

0000000000006455 <safe_div_func_int16_t_s_s>:
    6455:	f3 0f 1e fa          	endbr64 
    6459:	55                   	push   %rbp
    645a:	48 89 e5             	mov    %rsp,%rbp
    645d:	89 fa                	mov    %edi,%edx
    645f:	89 f0                	mov    %esi,%eax
    6461:	66 89 55 fc          	mov    %dx,-0x4(%rbp)
    6465:	66 89 45 f8          	mov    %ax,-0x8(%rbp)
    6469:	66 83 7d f8 00       	cmpw   $0x0,-0x8(%rbp)
    646e:	74 1c                	je     648c <safe_div_func_int16_t_s_s+0x37>
    6470:	66 81 7d fc 00 80    	cmpw   $0x8000,-0x4(%rbp)
    6476:	75 07                	jne    647f <safe_div_func_int16_t_s_s+0x2a>
    6478:	66 83 7d f8 ff       	cmpw   $0xffff,-0x8(%rbp)
    647d:	74 0d                	je     648c <safe_div_func_int16_t_s_s+0x37>
    647f:	0f bf 45 fc          	movswl -0x4(%rbp),%eax
    6483:	0f bf 4d f8          	movswl -0x8(%rbp),%ecx
    6487:	99                   	cltd   
    6488:	f7 f9                	idiv   %ecx
    648a:	eb 04                	jmp    6490 <safe_div_func_int16_t_s_s+0x3b>
    648c:	0f b7 45 fc          	movzwl -0x4(%rbp),%eax
    6490:	5d                   	pop    %rbp
    6491:	c3                   	retq   

0000000000006492 <safe_lshift_func_int16_t_s_s>:
    6492:	f3 0f 1e fa          	endbr64 
    6496:	55                   	push   %rbp
    6497:	48 89 e5             	mov    %rsp,%rbp
    649a:	89 f8                	mov    %edi,%eax
    649c:	89 75 f8             	mov    %esi,-0x8(%rbp)
    649f:	66 89 45 fc          	mov    %ax,-0x4(%rbp)
    64a3:	66 83 7d fc 00       	cmpw   $0x0,-0x4(%rbp)
    64a8:	78 31                	js     64db <safe_lshift_func_int16_t_s_s+0x49>
    64aa:	83 7d f8 00          	cmpl   $0x0,-0x8(%rbp)
    64ae:	78 2b                	js     64db <safe_lshift_func_int16_t_s_s+0x49>
    64b0:	83 7d f8 1f          	cmpl   $0x1f,-0x8(%rbp)
    64b4:	7f 25                	jg     64db <safe_lshift_func_int16_t_s_s+0x49>
    64b6:	0f bf 55 fc          	movswl -0x4(%rbp),%edx
    64ba:	8b 45 f8             	mov    -0x8(%rbp),%eax
    64bd:	be ff 7f 00 00       	mov    $0x7fff,%esi
    64c2:	89 c1                	mov    %eax,%ecx
    64c4:	d3 fe                	sar    %cl,%esi
    64c6:	89 f0                	mov    %esi,%eax
    64c8:	39 c2                	cmp    %eax,%edx
    64ca:	7f 0f                	jg     64db <safe_lshift_func_int16_t_s_s+0x49>
    64cc:	0f bf 55 fc          	movswl -0x4(%rbp),%edx
    64d0:	8b 45 f8             	mov    -0x8(%rbp),%eax
    64d3:	89 c1                	mov    %eax,%ecx
    64d5:	d3 e2                	shl    %cl,%edx
    64d7:	89 d0                	mov    %edx,%eax
    64d9:	eb 04                	jmp    64df <safe_lshift_func_int16_t_s_s+0x4d>
    64db:	0f b7 45 fc          	movzwl -0x4(%rbp),%eax
    64df:	5d                   	pop    %rbp
    64e0:	c3                   	retq   

00000000000064e1 <safe_lshift_func_int16_t_s_u>:
    64e1:	f3 0f 1e fa          	endbr64 
    64e5:	55                   	push   %rbp
    64e6:	48 89 e5             	mov    %rsp,%rbp
    64e9:	89 f8                	mov    %edi,%eax
    64eb:	89 75 f8             	mov    %esi,-0x8(%rbp)
    64ee:	66 89 45 fc          	mov    %ax,-0x4(%rbp)
    64f2:	66 83 7d fc 00       	cmpw   $0x0,-0x4(%rbp)
    64f7:	78 2b                	js     6524 <safe_lshift_func_int16_t_s_u+0x43>
    64f9:	83 7d f8 1f          	cmpl   $0x1f,-0x8(%rbp)
    64fd:	77 25                	ja     6524 <safe_lshift_func_int16_t_s_u+0x43>
    64ff:	0f bf 55 fc          	movswl -0x4(%rbp),%edx
    6503:	8b 45 f8             	mov    -0x8(%rbp),%eax
    6506:	be ff 7f 00 00       	mov    $0x7fff,%esi
    650b:	89 c1                	mov    %eax,%ecx
    650d:	d3 fe                	sar    %cl,%esi
    650f:	89 f0                	mov    %esi,%eax
    6511:	39 c2                	cmp    %eax,%edx
    6513:	7f 0f                	jg     6524 <safe_lshift_func_int16_t_s_u+0x43>
    6515:	0f bf 55 fc          	movswl -0x4(%rbp),%edx
    6519:	8b 45 f8             	mov    -0x8(%rbp),%eax
    651c:	89 c1                	mov    %eax,%ecx
    651e:	d3 e2                	shl    %cl,%edx
    6520:	89 d0                	mov    %edx,%eax
    6522:	eb 04                	jmp    6528 <safe_lshift_func_int16_t_s_u+0x47>
    6524:	0f b7 45 fc          	movzwl -0x4(%rbp),%eax
    6528:	5d                   	pop    %rbp
    6529:	c3                   	retq   

000000000000652a <safe_rshift_func_int16_t_s_s>:
    652a:	f3 0f 1e fa          	endbr64 
    652e:	55                   	push   %rbp
    652f:	48 89 e5             	mov    %rsp,%rbp
    6532:	89 f8                	mov    %edi,%eax
    6534:	89 75 f8             	mov    %esi,-0x8(%rbp)
    6537:	66 89 45 fc          	mov    %ax,-0x4(%rbp)
    653b:	66 83 7d fc 00       	cmpw   $0x0,-0x4(%rbp)
    6540:	78 1b                	js     655d <safe_rshift_func_int16_t_s_s+0x33>
    6542:	83 7d f8 00          	cmpl   $0x0,-0x8(%rbp)
    6546:	78 15                	js     655d <safe_rshift_func_int16_t_s_s+0x33>
    6548:	83 7d f8 1f          	cmpl   $0x1f,-0x8(%rbp)
    654c:	7f 0f                	jg     655d <safe_rshift_func_int16_t_s_s+0x33>
    654e:	0f bf 55 fc          	movswl -0x4(%rbp),%edx
    6552:	8b 45 f8             	mov    -0x8(%rbp),%eax
    6555:	89 c1                	mov    %eax,%ecx
    6557:	d3 fa                	sar    %cl,%edx
    6559:	89 d0                	mov    %edx,%eax
    655b:	eb 04                	jmp    6561 <safe_rshift_func_int16_t_s_s+0x37>
    655d:	0f b7 45 fc          	movzwl -0x4(%rbp),%eax
    6561:	5d                   	pop    %rbp
    6562:	c3                   	retq   

0000000000006563 <safe_rshift_func_int16_t_s_u>:
    6563:	f3 0f 1e fa          	endbr64 
    6567:	55                   	push   %rbp
    6568:	48 89 e5             	mov    %rsp,%rbp
    656b:	89 f8                	mov    %edi,%eax
    656d:	89 75 f8             	mov    %esi,-0x8(%rbp)
    6570:	66 89 45 fc          	mov    %ax,-0x4(%rbp)
    6574:	66 83 7d fc 00       	cmpw   $0x0,-0x4(%rbp)
    6579:	78 15                	js     6590 <safe_rshift_func_int16_t_s_u+0x2d>
    657b:	83 7d f8 1f          	cmpl   $0x1f,-0x8(%rbp)
    657f:	77 0f                	ja     6590 <safe_rshift_func_int16_t_s_u+0x2d>
    6581:	0f bf 55 fc          	movswl -0x4(%rbp),%edx
    6585:	8b 45 f8             	mov    -0x8(%rbp),%eax
    6588:	89 c1                	mov    %eax,%ecx
    658a:	d3 fa                	sar    %cl,%edx
    658c:	89 d0                	mov    %edx,%eax
    658e:	eb 04                	jmp    6594 <safe_rshift_func_int16_t_s_u+0x31>
    6590:	0f b7 45 fc          	movzwl -0x4(%rbp),%eax
    6594:	5d                   	pop    %rbp
    6595:	c3                   	retq   

0000000000006596 <safe_unary_minus_func_int32_t_s>:
    6596:	f3 0f 1e fa          	endbr64 
    659a:	55                   	push   %rbp
    659b:	48 89 e5             	mov    %rsp,%rbp
    659e:	89 7d fc             	mov    %edi,-0x4(%rbp)
    65a1:	81 7d fc 00 00 00 80 	cmpl   $0x80000000,-0x4(%rbp)
    65a8:	74 07                	je     65b1 <safe_unary_minus_func_int32_t_s+0x1b>
    65aa:	8b 45 fc             	mov    -0x4(%rbp),%eax
    65ad:	f7 d8                	neg    %eax
    65af:	eb 03                	jmp    65b4 <safe_unary_minus_func_int32_t_s+0x1e>
    65b1:	8b 45 fc             	mov    -0x4(%rbp),%eax
    65b4:	5d                   	pop    %rbp
    65b5:	c3                   	retq   

00000000000065b6 <safe_add_func_int32_t_s_s>:
    65b6:	f3 0f 1e fa          	endbr64 
    65ba:	55                   	push   %rbp
    65bb:	48 89 e5             	mov    %rsp,%rbp
    65be:	89 7d fc             	mov    %edi,-0x4(%rbp)
    65c1:	89 75 f8             	mov    %esi,-0x8(%rbp)
    65c4:	83 7d fc 00          	cmpl   $0x0,-0x4(%rbp)
    65c8:	7e 13                	jle    65dd <safe_add_func_int32_t_s_s+0x27>
    65ca:	83 7d f8 00          	cmpl   $0x0,-0x8(%rbp)
    65ce:	7e 0d                	jle    65dd <safe_add_func_int32_t_s_s+0x27>
    65d0:	b8 ff ff ff 7f       	mov    $0x7fffffff,%eax
    65d5:	2b 45 f8             	sub    -0x8(%rbp),%eax
    65d8:	39 45 fc             	cmp    %eax,-0x4(%rbp)
    65db:	7f 23                	jg     6600 <safe_add_func_int32_t_s_s+0x4a>
    65dd:	83 7d fc 00          	cmpl   $0x0,-0x4(%rbp)
    65e1:	79 13                	jns    65f6 <safe_add_func_int32_t_s_s+0x40>
    65e3:	83 7d f8 00          	cmpl   $0x0,-0x8(%rbp)
    65e7:	79 0d                	jns    65f6 <safe_add_func_int32_t_s_s+0x40>
    65e9:	b8 00 00 00 80       	mov    $0x80000000,%eax
    65ee:	2b 45 f8             	sub    -0x8(%rbp),%eax
    65f1:	39 45 fc             	cmp    %eax,-0x4(%rbp)
    65f4:	7c 0a                	jl     6600 <safe_add_func_int32_t_s_s+0x4a>
    65f6:	8b 55 fc             	mov    -0x4(%rbp),%edx
    65f9:	8b 45 f8             	mov    -0x8(%rbp),%eax
    65fc:	01 d0                	add    %edx,%eax
    65fe:	eb 03                	jmp    6603 <safe_add_func_int32_t_s_s+0x4d>
    6600:	8b 45 fc             	mov    -0x4(%rbp),%eax
    6603:	5d                   	pop    %rbp
    6604:	c3                   	retq   

0000000000006605 <safe_sub_func_int32_t_s_s>:
    6605:	f3 0f 1e fa          	endbr64 
    6609:	55                   	push   %rbp
    660a:	48 89 e5             	mov    %rsp,%rbp
    660d:	89 7d fc             	mov    %edi,-0x4(%rbp)
    6610:	89 75 f8             	mov    %esi,-0x8(%rbp)
    6613:	8b 45 fc             	mov    -0x4(%rbp),%eax
    6616:	33 45 f8             	xor    -0x8(%rbp),%eax
    6619:	89 c2                	mov    %eax,%edx
    661b:	8b 45 fc             	mov    -0x4(%rbp),%eax
    661e:	33 45 f8             	xor    -0x8(%rbp),%eax
    6621:	25 00 00 00 80       	and    $0x80000000,%eax
    6626:	33 45 fc             	xor    -0x4(%rbp),%eax
    6629:	2b 45 f8             	sub    -0x8(%rbp),%eax
    662c:	33 45 f8             	xor    -0x8(%rbp),%eax
    662f:	21 d0                	and    %edx,%eax
    6631:	85 c0                	test   %eax,%eax
    6633:	78 08                	js     663d <safe_sub_func_int32_t_s_s+0x38>
    6635:	8b 45 fc             	mov    -0x4(%rbp),%eax
    6638:	2b 45 f8             	sub    -0x8(%rbp),%eax
    663b:	eb 03                	jmp    6640 <safe_sub_func_int32_t_s_s+0x3b>
    663d:	8b 45 fc             	mov    -0x4(%rbp),%eax
    6640:	5d                   	pop    %rbp
    6641:	c3                   	retq   

0000000000006642 <safe_mul_func_int32_t_s_s>:
    6642:	f3 0f 1e fa          	endbr64 
    6646:	55                   	push   %rbp
    6647:	48 89 e5             	mov    %rsp,%rbp
    664a:	89 7d fc             	mov    %edi,-0x4(%rbp)
    664d:	89 75 f8             	mov    %esi,-0x8(%rbp)
    6650:	83 7d fc 00          	cmpl   $0x0,-0x4(%rbp)
    6654:	7e 14                	jle    666a <safe_mul_func_int32_t_s_s+0x28>
    6656:	83 7d f8 00          	cmpl   $0x0,-0x8(%rbp)
    665a:	7e 0e                	jle    666a <safe_mul_func_int32_t_s_s+0x28>
    665c:	b8 ff ff ff 7f       	mov    $0x7fffffff,%eax
    6661:	99                   	cltd   
    6662:	f7 7d f8             	idivl  -0x8(%rbp)
    6665:	39 45 fc             	cmp    %eax,-0x4(%rbp)
    6668:	7f 5d                	jg     66c7 <safe_mul_func_int32_t_s_s+0x85>
    666a:	83 7d fc 00          	cmpl   $0x0,-0x4(%rbp)
    666e:	7e 14                	jle    6684 <safe_mul_func_int32_t_s_s+0x42>
    6670:	83 7d f8 00          	cmpl   $0x0,-0x8(%rbp)
    6674:	7f 0e                	jg     6684 <safe_mul_func_int32_t_s_s+0x42>
    6676:	b8 00 00 00 80       	mov    $0x80000000,%eax
    667b:	99                   	cltd   
    667c:	f7 7d fc             	idivl  -0x4(%rbp)
    667f:	39 45 f8             	cmp    %eax,-0x8(%rbp)
    6682:	7c 43                	jl     66c7 <safe_mul_func_int32_t_s_s+0x85>
    6684:	83 7d fc 00          	cmpl   $0x0,-0x4(%rbp)
    6688:	7f 14                	jg     669e <safe_mul_func_int32_t_s_s+0x5c>
    668a:	83 7d f8 00          	cmpl   $0x0,-0x8(%rbp)
    668e:	7e 0e                	jle    669e <safe_mul_func_int32_t_s_s+0x5c>
    6690:	b8 00 00 00 80       	mov    $0x80000000,%eax
    6695:	99                   	cltd   
    6696:	f7 7d f8             	idivl  -0x8(%rbp)
    6699:	39 45 fc             	cmp    %eax,-0x4(%rbp)
    669c:	7c 29                	jl     66c7 <safe_mul_func_int32_t_s_s+0x85>
    669e:	83 7d fc 00          	cmpl   $0x0,-0x4(%rbp)
    66a2:	7f 1a                	jg     66be <safe_mul_func_int32_t_s_s+0x7c>
    66a4:	83 7d f8 00          	cmpl   $0x0,-0x8(%rbp)
    66a8:	7f 14                	jg     66be <safe_mul_func_int32_t_s_s+0x7c>
    66aa:	83 7d fc 00          	cmpl   $0x0,-0x4(%rbp)
    66ae:	74 0e                	je     66be <safe_mul_func_int32_t_s_s+0x7c>
    66b0:	b8 ff ff ff 7f       	mov    $0x7fffffff,%eax
    66b5:	99                   	cltd   
    66b6:	f7 7d fc             	idivl  -0x4(%rbp)
    66b9:	39 45 f8             	cmp    %eax,-0x8(%rbp)
    66bc:	7c 09                	jl     66c7 <safe_mul_func_int32_t_s_s+0x85>
    66be:	8b 45 fc             	mov    -0x4(%rbp),%eax
    66c1:	0f af 45 f8          	imul   -0x8(%rbp),%eax
    66c5:	eb 03                	jmp    66ca <safe_mul_func_int32_t_s_s+0x88>
    66c7:	8b 45 fc             	mov    -0x4(%rbp),%eax
    66ca:	5d                   	pop    %rbp
    66cb:	c3                   	retq   

00000000000066cc <safe_mod_func_int32_t_s_s>:
    66cc:	f3 0f 1e fa          	endbr64 
    66d0:	55                   	push   %rbp
    66d1:	48 89 e5             	mov    %rsp,%rbp
    66d4:	89 7d fc             	mov    %edi,-0x4(%rbp)
    66d7:	89 75 f8             	mov    %esi,-0x8(%rbp)
    66da:	83 7d f8 00          	cmpl   $0x0,-0x8(%rbp)
    66de:	74 1a                	je     66fa <safe_mod_func_int32_t_s_s+0x2e>
    66e0:	81 7d fc 00 00 00 80 	cmpl   $0x80000000,-0x4(%rbp)
    66e7:	75 06                	jne    66ef <safe_mod_func_int32_t_s_s+0x23>
    66e9:	83 7d f8 ff          	cmpl   $0xffffffff,-0x8(%rbp)
    66ed:	74 0b                	je     66fa <safe_mod_func_int32_t_s_s+0x2e>
    66ef:	8b 45 fc             	mov    -0x4(%rbp),%eax
    66f2:	99                   	cltd   
    66f3:	f7 7d f8             	idivl  -0x8(%rbp)
    66f6:	89 d0                	mov    %edx,%eax
    66f8:	eb 03                	jmp    66fd <safe_mod_func_int32_t_s_s+0x31>
    66fa:	8b 45 fc             	mov    -0x4(%rbp),%eax
    66fd:	5d                   	pop    %rbp
    66fe:	c3                   	retq   

00000000000066ff <safe_div_func_int32_t_s_s>:
    66ff:	f3 0f 1e fa          	endbr64 
    6703:	55                   	push   %rbp
    6704:	48 89 e5             	mov    %rsp,%rbp
    6707:	89 7d fc             	mov    %edi,-0x4(%rbp)
    670a:	89 75 f8             	mov    %esi,-0x8(%rbp)
    670d:	83 7d f8 00          	cmpl   $0x0,-0x8(%rbp)
    6711:	74 18                	je     672b <safe_div_func_int32_t_s_s+0x2c>
    6713:	81 7d fc 00 00 00 80 	cmpl   $0x80000000,-0x4(%rbp)
    671a:	75 06                	jne    6722 <safe_div_func_int32_t_s_s+0x23>
    671c:	83 7d f8 ff          	cmpl   $0xffffffff,-0x8(%rbp)
    6720:	74 09                	je     672b <safe_div_func_int32_t_s_s+0x2c>
    6722:	8b 45 fc             	mov    -0x4(%rbp),%eax
    6725:	99                   	cltd   
    6726:	f7 7d f8             	idivl  -0x8(%rbp)
    6729:	eb 03                	jmp    672e <safe_div_func_int32_t_s_s+0x2f>
    672b:	8b 45 fc             	mov    -0x4(%rbp),%eax
    672e:	5d                   	pop    %rbp
    672f:	c3                   	retq   

0000000000006730 <safe_lshift_func_int32_t_s_s>:
    6730:	f3 0f 1e fa          	endbr64 
    6734:	55                   	push   %rbp
    6735:	48 89 e5             	mov    %rsp,%rbp
    6738:	89 7d fc             	mov    %edi,-0x4(%rbp)
    673b:	89 75 f8             	mov    %esi,-0x8(%rbp)
    673e:	83 7d fc 00          	cmpl   $0x0,-0x4(%rbp)
    6742:	78 2d                	js     6771 <safe_lshift_func_int32_t_s_s+0x41>
    6744:	83 7d f8 00          	cmpl   $0x0,-0x8(%rbp)
    6748:	78 27                	js     6771 <safe_lshift_func_int32_t_s_s+0x41>
    674a:	83 7d f8 1f          	cmpl   $0x1f,-0x8(%rbp)
    674e:	7f 21                	jg     6771 <safe_lshift_func_int32_t_s_s+0x41>
    6750:	8b 45 f8             	mov    -0x8(%rbp),%eax
    6753:	ba ff ff ff 7f       	mov    $0x7fffffff,%edx
    6758:	89 c1                	mov    %eax,%ecx
    675a:	d3 fa                	sar    %cl,%edx
    675c:	89 d0                	mov    %edx,%eax
    675e:	39 45 fc             	cmp    %eax,-0x4(%rbp)
    6761:	7f 0e                	jg     6771 <safe_lshift_func_int32_t_s_s+0x41>
    6763:	8b 45 f8             	mov    -0x8(%rbp),%eax
    6766:	8b 55 fc             	mov    -0x4(%rbp),%edx
    6769:	89 c1                	mov    %eax,%ecx
    676b:	d3 e2                	shl    %cl,%edx
    676d:	89 d0                	mov    %edx,%eax
    676f:	eb 03                	jmp    6774 <safe_lshift_func_int32_t_s_s+0x44>
    6771:	8b 45 fc             	mov    -0x4(%rbp),%eax
    6774:	5d                   	pop    %rbp
    6775:	c3                   	retq   

0000000000006776 <safe_lshift_func_int32_t_s_u>:
    6776:	f3 0f 1e fa          	endbr64 
    677a:	55                   	push   %rbp
    677b:	48 89 e5             	mov    %rsp,%rbp
    677e:	89 7d fc             	mov    %edi,-0x4(%rbp)
    6781:	89 75 f8             	mov    %esi,-0x8(%rbp)
    6784:	83 7d fc 00          	cmpl   $0x0,-0x4(%rbp)
    6788:	78 27                	js     67b1 <safe_lshift_func_int32_t_s_u+0x3b>
    678a:	83 7d f8 1f          	cmpl   $0x1f,-0x8(%rbp)
    678e:	77 21                	ja     67b1 <safe_lshift_func_int32_t_s_u+0x3b>
    6790:	8b 45 f8             	mov    -0x8(%rbp),%eax
    6793:	ba ff ff ff 7f       	mov    $0x7fffffff,%edx
    6798:	89 c1                	mov    %eax,%ecx
    679a:	d3 fa                	sar    %cl,%edx
    679c:	89 d0                	mov    %edx,%eax
    679e:	39 45 fc             	cmp    %eax,-0x4(%rbp)
    67a1:	7f 0e                	jg     67b1 <safe_lshift_func_int32_t_s_u+0x3b>
    67a3:	8b 45 f8             	mov    -0x8(%rbp),%eax
    67a6:	8b 55 fc             	mov    -0x4(%rbp),%edx
    67a9:	89 c1                	mov    %eax,%ecx
    67ab:	d3 e2                	shl    %cl,%edx
    67ad:	89 d0                	mov    %edx,%eax
    67af:	eb 03                	jmp    67b4 <safe_lshift_func_int32_t_s_u+0x3e>
    67b1:	8b 45 fc             	mov    -0x4(%rbp),%eax
    67b4:	5d                   	pop    %rbp
    67b5:	c3                   	retq   

00000000000067b6 <safe_rshift_func_int32_t_s_s>:
    67b6:	f3 0f 1e fa          	endbr64 
    67ba:	55                   	push   %rbp
    67bb:	48 89 e5             	mov    %rsp,%rbp
    67be:	89 7d fc             	mov    %edi,-0x4(%rbp)
    67c1:	89 75 f8             	mov    %esi,-0x8(%rbp)
    67c4:	83 7d fc 00          	cmpl   $0x0,-0x4(%rbp)
    67c8:	78 1a                	js     67e4 <safe_rshift_func_int32_t_s_s+0x2e>
    67ca:	83 7d f8 00          	cmpl   $0x0,-0x8(%rbp)
    67ce:	78 14                	js     67e4 <safe_rshift_func_int32_t_s_s+0x2e>
    67d0:	83 7d f8 1f          	cmpl   $0x1f,-0x8(%rbp)
    67d4:	7f 0e                	jg     67e4 <safe_rshift_func_int32_t_s_s+0x2e>
    67d6:	8b 45 f8             	mov    -0x8(%rbp),%eax
    67d9:	8b 55 fc             	mov    -0x4(%rbp),%edx
    67dc:	89 c1                	mov    %eax,%ecx
    67de:	d3 fa                	sar    %cl,%edx
    67e0:	89 d0                	mov    %edx,%eax
    67e2:	eb 03                	jmp    67e7 <safe_rshift_func_int32_t_s_s+0x31>
    67e4:	8b 45 fc             	mov    -0x4(%rbp),%eax
    67e7:	5d                   	pop    %rbp
    67e8:	c3                   	retq   

00000000000067e9 <safe_rshift_func_int32_t_s_u>:
    67e9:	f3 0f 1e fa          	endbr64 
    67ed:	55                   	push   %rbp
    67ee:	48 89 e5             	mov    %rsp,%rbp
    67f1:	89 7d fc             	mov    %edi,-0x4(%rbp)
    67f4:	89 75 f8             	mov    %esi,-0x8(%rbp)
    67f7:	83 7d fc 00          	cmpl   $0x0,-0x4(%rbp)
    67fb:	78 14                	js     6811 <safe_rshift_func_int32_t_s_u+0x28>
    67fd:	83 7d f8 1f          	cmpl   $0x1f,-0x8(%rbp)
    6801:	77 0e                	ja     6811 <safe_rshift_func_int32_t_s_u+0x28>
    6803:	8b 45 f8             	mov    -0x8(%rbp),%eax
    6806:	8b 55 fc             	mov    -0x4(%rbp),%edx
    6809:	89 c1                	mov    %eax,%ecx
    680b:	d3 fa                	sar    %cl,%edx
    680d:	89 d0                	mov    %edx,%eax
    680f:	eb 03                	jmp    6814 <safe_rshift_func_int32_t_s_u+0x2b>
    6811:	8b 45 fc             	mov    -0x4(%rbp),%eax
    6814:	5d                   	pop    %rbp
    6815:	c3                   	retq   

0000000000006816 <safe_unary_minus_func_int64_t_s>:
    6816:	f3 0f 1e fa          	endbr64 
    681a:	55                   	push   %rbp
    681b:	48 89 e5             	mov    %rsp,%rbp
    681e:	48 89 7d f8          	mov    %rdi,-0x8(%rbp)
    6822:	48 b8 00 00 00 00 00 	movabs $0x8000000000000000,%rax
    6829:	00 00 80 
    682c:	48 39 45 f8          	cmp    %rax,-0x8(%rbp)
    6830:	74 09                	je     683b <safe_unary_minus_func_int64_t_s+0x25>
    6832:	48 8b 45 f8          	mov    -0x8(%rbp),%rax
    6836:	48 f7 d8             	neg    %rax
    6839:	eb 04                	jmp    683f <safe_unary_minus_func_int64_t_s+0x29>
    683b:	48 8b 45 f8          	mov    -0x8(%rbp),%rax
    683f:	5d                   	pop    %rbp
    6840:	c3                   	retq   

0000000000006841 <safe_add_func_int64_t_s_s>:
    6841:	f3 0f 1e fa          	endbr64 
    6845:	55                   	push   %rbp
    6846:	48 89 e5             	mov    %rsp,%rbp
    6849:	48 89 7d f8          	mov    %rdi,-0x8(%rbp)
    684d:	48 89 75 f0          	mov    %rsi,-0x10(%rbp)
    6851:	48 83 7d f8 00       	cmpq   $0x0,-0x8(%rbp)
    6856:	7e 1b                	jle    6873 <safe_add_func_int64_t_s_s+0x32>
    6858:	48 83 7d f0 00       	cmpq   $0x0,-0x10(%rbp)
    685d:	7e 14                	jle    6873 <safe_add_func_int64_t_s_s+0x32>
    685f:	48 b8 ff ff ff ff ff 	movabs $0x7fffffffffffffff,%rax
    6866:	ff ff 7f 
    6869:	48 2b 45 f0          	sub    -0x10(%rbp),%rax
    686d:	48 39 45 f8          	cmp    %rax,-0x8(%rbp)
    6871:	7f 2f                	jg     68a2 <safe_add_func_int64_t_s_s+0x61>
    6873:	48 83 7d f8 00       	cmpq   $0x0,-0x8(%rbp)
    6878:	79 1b                	jns    6895 <safe_add_func_int64_t_s_s+0x54>
    687a:	48 83 7d f0 00       	cmpq   $0x0,-0x10(%rbp)
    687f:	79 14                	jns    6895 <safe_add_func_int64_t_s_s+0x54>
    6881:	48 b8 00 00 00 00 00 	movabs $0x8000000000000000,%rax
    6888:	00 00 80 
    688b:	48 2b 45 f0          	sub    -0x10(%rbp),%rax
    688f:	48 39 45 f8          	cmp    %rax,-0x8(%rbp)
    6893:	7c 0d                	jl     68a2 <safe_add_func_int64_t_s_s+0x61>
    6895:	48 8b 55 f8          	mov    -0x8(%rbp),%rdx
    6899:	48 8b 45 f0          	mov    -0x10(%rbp),%rax
    689d:	48 01 d0             	add    %rdx,%rax
    68a0:	eb 04                	jmp    68a6 <safe_add_func_int64_t_s_s+0x65>
    68a2:	48 8b 45 f8          	mov    -0x8(%rbp),%rax
    68a6:	5d                   	pop    %rbp
    68a7:	c3                   	retq   

00000000000068a8 <safe_sub_func_int64_t_s_s>:
    68a8:	f3 0f 1e fa          	endbr64 
    68ac:	55                   	push   %rbp
    68ad:	48 89 e5             	mov    %rsp,%rbp
    68b0:	48 89 7d f8          	mov    %rdi,-0x8(%rbp)
    68b4:	48 89 75 f0          	mov    %rsi,-0x10(%rbp)
    68b8:	48 8b 45 f8          	mov    -0x8(%rbp),%rax
    68bc:	48 33 45 f0          	xor    -0x10(%rbp),%rax
    68c0:	48 89 c2             	mov    %rax,%rdx
    68c3:	48 8b 45 f8          	mov    -0x8(%rbp),%rax
    68c7:	48 33 45 f0          	xor    -0x10(%rbp),%rax
    68cb:	48 b9 00 00 00 00 00 	movabs $0x8000000000000000,%rcx
    68d2:	00 00 80 
    68d5:	48 21 c8             	and    %rcx,%rax
    68d8:	48 33 45 f8          	xor    -0x8(%rbp),%rax
    68dc:	48 2b 45 f0          	sub    -0x10(%rbp),%rax
    68e0:	48 33 45 f0          	xor    -0x10(%rbp),%rax
    68e4:	48 21 d0             	and    %rdx,%rax
    68e7:	48 85 c0             	test   %rax,%rax
    68ea:	78 0a                	js     68f6 <safe_sub_func_int64_t_s_s+0x4e>
    68ec:	48 8b 45 f8          	mov    -0x8(%rbp),%rax
    68f0:	48 2b 45 f0          	sub    -0x10(%rbp),%rax
    68f4:	eb 04                	jmp    68fa <safe_sub_func_int64_t_s_s+0x52>
    68f6:	48 8b 45 f8          	mov    -0x8(%rbp),%rax
    68fa:	5d                   	pop    %rbp
    68fb:	c3                   	retq   

00000000000068fc <safe_mul_func_int64_t_s_s>:
    68fc:	f3 0f 1e fa          	endbr64 
    6900:	55                   	push   %rbp
    6901:	48 89 e5             	mov    %rsp,%rbp
    6904:	48 89 7d f8          	mov    %rdi,-0x8(%rbp)
    6908:	48 89 75 f0          	mov    %rsi,-0x10(%rbp)
    690c:	48 83 7d f8 00       	cmpq   $0x0,-0x8(%rbp)
    6911:	7e 1d                	jle    6930 <safe_mul_func_int64_t_s_s+0x34>
    6913:	48 83 7d f0 00       	cmpq   $0x0,-0x10(%rbp)
    6918:	7e 16                	jle    6930 <safe_mul_func_int64_t_s_s+0x34>
    691a:	48 b8 ff ff ff ff ff 	movabs $0x7fffffffffffffff,%rax
    6921:	ff ff 7f 
    6924:	48 99                	cqto   
    6926:	48 f7 7d f0          	idivq  -0x10(%rbp)
    692a:	48 39 45 f8          	cmp    %rax,-0x8(%rbp)
    692e:	7f 7e                	jg     69ae <safe_mul_func_int64_t_s_s+0xb2>
    6930:	48 83 7d f8 00       	cmpq   $0x0,-0x8(%rbp)
    6935:	7e 1d                	jle    6954 <safe_mul_func_int64_t_s_s+0x58>
    6937:	48 83 7d f0 00       	cmpq   $0x0,-0x10(%rbp)
    693c:	7f 16                	jg     6954 <safe_mul_func_int64_t_s_s+0x58>
    693e:	48 b8 00 00 00 00 00 	movabs $0x8000000000000000,%rax
    6945:	00 00 80 
    6948:	48 99                	cqto   
    694a:	48 f7 7d f8          	idivq  -0x8(%rbp)
    694e:	48 39 45 f0          	cmp    %rax,-0x10(%rbp)
    6952:	7c 5a                	jl     69ae <safe_mul_func_int64_t_s_s+0xb2>
    6954:	48 83 7d f8 00       	cmpq   $0x0,-0x8(%rbp)
    6959:	7f 1d                	jg     6978 <safe_mul_func_int64_t_s_s+0x7c>
    695b:	48 83 7d f0 00       	cmpq   $0x0,-0x10(%rbp)
    6960:	7e 16                	jle    6978 <safe_mul_func_int64_t_s_s+0x7c>
    6962:	48 b8 00 00 00 00 00 	movabs $0x8000000000000000,%rax
    6969:	00 00 80 
    696c:	48 99                	cqto   
    696e:	48 f7 7d f0          	idivq  -0x10(%rbp)
    6972:	48 39 45 f8          	cmp    %rax,-0x8(%rbp)
    6976:	7c 36                	jl     69ae <safe_mul_func_int64_t_s_s+0xb2>
    6978:	48 83 7d f8 00       	cmpq   $0x0,-0x8(%rbp)
    697d:	7f 24                	jg     69a3 <safe_mul_func_int64_t_s_s+0xa7>
    697f:	48 83 7d f0 00       	cmpq   $0x0,-0x10(%rbp)
    6984:	7f 1d                	jg     69a3 <safe_mul_func_int64_t_s_s+0xa7>
    6986:	48 83 7d f8 00       	cmpq   $0x0,-0x8(%rbp)
    698b:	74 16                	je     69a3 <safe_mul_func_int64_t_s_s+0xa7>
    698d:	48 b8 ff ff ff ff ff 	movabs $0x7fffffffffffffff,%rax
    6994:	ff ff 7f 
    6997:	48 99                	cqto   
    6999:	48 f7 7d f8          	idivq  -0x8(%rbp)
    699d:	48 39 45 f0          	cmp    %rax,-0x10(%rbp)
    69a1:	7c 0b                	jl     69ae <safe_mul_func_int64_t_s_s+0xb2>
    69a3:	48 8b 45 f8          	mov    -0x8(%rbp),%rax
    69a7:	48 0f af 45 f0       	imul   -0x10(%rbp),%rax
    69ac:	eb 04                	jmp    69b2 <safe_mul_func_int64_t_s_s+0xb6>
    69ae:	48 8b 45 f8          	mov    -0x8(%rbp),%rax
    69b2:	5d                   	pop    %rbp
    69b3:	c3                   	retq   

00000000000069b4 <safe_mod_func_int64_t_s_s>:
    69b4:	f3 0f 1e fa          	endbr64 
    69b8:	55                   	push   %rbp
    69b9:	48 89 e5             	mov    %rsp,%rbp
    69bc:	48 89 7d f8          	mov    %rdi,-0x8(%rbp)
    69c0:	48 89 75 f0          	mov    %rsi,-0x10(%rbp)
    69c4:	48 83 7d f0 00       	cmpq   $0x0,-0x10(%rbp)
    69c9:	74 26                	je     69f1 <safe_mod_func_int64_t_s_s+0x3d>
    69cb:	48 b8 00 00 00 00 00 	movabs $0x8000000000000000,%rax
    69d2:	00 00 80 
    69d5:	48 39 45 f8          	cmp    %rax,-0x8(%rbp)
    69d9:	75 07                	jne    69e2 <safe_mod_func_int64_t_s_s+0x2e>
    69db:	48 83 7d f0 ff       	cmpq   $0xffffffffffffffff,-0x10(%rbp)
    69e0:	74 0f                	je     69f1 <safe_mod_func_int64_t_s_s+0x3d>
    69e2:	48 8b 45 f8          	mov    -0x8(%rbp),%rax
    69e6:	48 99                	cqto   
    69e8:	48 f7 7d f0          	idivq  -0x10(%rbp)
    69ec:	48 89 d0             	mov    %rdx,%rax
    69ef:	eb 04                	jmp    69f5 <safe_mod_func_int64_t_s_s+0x41>
    69f1:	48 8b 45 f8          	mov    -0x8(%rbp),%rax
    69f5:	5d                   	pop    %rbp
    69f6:	c3                   	retq   

00000000000069f7 <safe_div_func_int64_t_s_s>:
    69f7:	f3 0f 1e fa          	endbr64 
    69fb:	55                   	push   %rbp
    69fc:	48 89 e5             	mov    %rsp,%rbp
    69ff:	48 89 7d f8          	mov    %rdi,-0x8(%rbp)
    6a03:	48 89 75 f0          	mov    %rsi,-0x10(%rbp)
    6a07:	48 83 7d f0 00       	cmpq   $0x0,-0x10(%rbp)
    6a0c:	74 23                	je     6a31 <safe_div_func_int64_t_s_s+0x3a>
    6a0e:	48 b8 00 00 00 00 00 	movabs $0x8000000000000000,%rax
    6a15:	00 00 80 
    6a18:	48 39 45 f8          	cmp    %rax,-0x8(%rbp)
    6a1c:	75 07                	jne    6a25 <safe_div_func_int64_t_s_s+0x2e>
    6a1e:	48 83 7d f0 ff       	cmpq   $0xffffffffffffffff,-0x10(%rbp)
    6a23:	74 0c                	je     6a31 <safe_div_func_int64_t_s_s+0x3a>
    6a25:	48 8b 45 f8          	mov    -0x8(%rbp),%rax
    6a29:	48 99                	cqto   
    6a2b:	48 f7 7d f0          	idivq  -0x10(%rbp)
    6a2f:	eb 04                	jmp    6a35 <safe_div_func_int64_t_s_s+0x3e>
    6a31:	48 8b 45 f8          	mov    -0x8(%rbp),%rax
    6a35:	5d                   	pop    %rbp
    6a36:	c3                   	retq   

0000000000006a37 <safe_lshift_func_int64_t_s_s>:
    6a37:	f3 0f 1e fa          	endbr64 
    6a3b:	55                   	push   %rbp
    6a3c:	48 89 e5             	mov    %rsp,%rbp
    6a3f:	48 89 7d f8          	mov    %rdi,-0x8(%rbp)
    6a43:	89 75 f4             	mov    %esi,-0xc(%rbp)
    6a46:	48 83 7d f8 00       	cmpq   $0x0,-0x8(%rbp)
    6a4b:	78 38                	js     6a85 <safe_lshift_func_int64_t_s_s+0x4e>
    6a4d:	83 7d f4 00          	cmpl   $0x0,-0xc(%rbp)
    6a51:	78 32                	js     6a85 <safe_lshift_func_int64_t_s_s+0x4e>
    6a53:	83 7d f4 1f          	cmpl   $0x1f,-0xc(%rbp)
    6a57:	7f 2c                	jg     6a85 <safe_lshift_func_int64_t_s_s+0x4e>
    6a59:	8b 45 f4             	mov    -0xc(%rbp),%eax
    6a5c:	48 ba ff ff ff ff ff 	movabs $0x7fffffffffffffff,%rdx
    6a63:	ff ff 7f 
    6a66:	89 c1                	mov    %eax,%ecx
    6a68:	48 d3 fa             	sar    %cl,%rdx
    6a6b:	48 89 d0             	mov    %rdx,%rax
    6a6e:	48 39 45 f8          	cmp    %rax,-0x8(%rbp)
    6a72:	7f 11                	jg     6a85 <safe_lshift_func_int64_t_s_s+0x4e>
    6a74:	8b 45 f4             	mov    -0xc(%rbp),%eax
    6a77:	48 8b 55 f8          	mov    -0x8(%rbp),%rdx
    6a7b:	89 c1                	mov    %eax,%ecx
    6a7d:	48 d3 e2             	shl    %cl,%rdx
    6a80:	48 89 d0             	mov    %rdx,%rax
    6a83:	eb 04                	jmp    6a89 <safe_lshift_func_int64_t_s_s+0x52>
    6a85:	48 8b 45 f8          	mov    -0x8(%rbp),%rax
    6a89:	5d                   	pop    %rbp
    6a8a:	c3                   	retq   

0000000000006a8b <safe_lshift_func_int64_t_s_u>:
    6a8b:	f3 0f 1e fa          	endbr64 
    6a8f:	55                   	push   %rbp
    6a90:	48 89 e5             	mov    %rsp,%rbp
    6a93:	48 89 7d f8          	mov    %rdi,-0x8(%rbp)
    6a97:	89 75 f4             	mov    %esi,-0xc(%rbp)
    6a9a:	48 83 7d f8 00       	cmpq   $0x0,-0x8(%rbp)
    6a9f:	78 32                	js     6ad3 <safe_lshift_func_int64_t_s_u+0x48>
    6aa1:	83 7d f4 1f          	cmpl   $0x1f,-0xc(%rbp)
    6aa5:	77 2c                	ja     6ad3 <safe_lshift_func_int64_t_s_u+0x48>
    6aa7:	8b 45 f4             	mov    -0xc(%rbp),%eax
    6aaa:	48 ba ff ff ff ff ff 	movabs $0x7fffffffffffffff,%rdx
    6ab1:	ff ff 7f 
    6ab4:	89 c1                	mov    %eax,%ecx
    6ab6:	48 d3 fa             	sar    %cl,%rdx
    6ab9:	48 89 d0             	mov    %rdx,%rax
    6abc:	48 39 45 f8          	cmp    %rax,-0x8(%rbp)
    6ac0:	7f 11                	jg     6ad3 <safe_lshift_func_int64_t_s_u+0x48>
    6ac2:	8b 45 f4             	mov    -0xc(%rbp),%eax
    6ac5:	48 8b 55 f8          	mov    -0x8(%rbp),%rdx
    6ac9:	89 c1                	mov    %eax,%ecx
    6acb:	48 d3 e2             	shl    %cl,%rdx
    6ace:	48 89 d0             	mov    %rdx,%rax
    6ad1:	eb 04                	jmp    6ad7 <safe_lshift_func_int64_t_s_u+0x4c>
    6ad3:	48 8b 45 f8          	mov    -0x8(%rbp),%rax
    6ad7:	5d                   	pop    %rbp
    6ad8:	c3                   	retq   

0000000000006ad9 <safe_rshift_func_int64_t_s_s>:
    6ad9:	f3 0f 1e fa          	endbr64 
    6add:	55                   	push   %rbp
    6ade:	48 89 e5             	mov    %rsp,%rbp
    6ae1:	48 89 7d f8          	mov    %rdi,-0x8(%rbp)
    6ae5:	89 75 f4             	mov    %esi,-0xc(%rbp)
    6ae8:	48 83 7d f8 00       	cmpq   $0x0,-0x8(%rbp)
    6aed:	78 1d                	js     6b0c <safe_rshift_func_int64_t_s_s+0x33>
    6aef:	83 7d f4 00          	cmpl   $0x0,-0xc(%rbp)
    6af3:	78 17                	js     6b0c <safe_rshift_func_int64_t_s_s+0x33>
    6af5:	83 7d f4 1f          	cmpl   $0x1f,-0xc(%rbp)
    6af9:	7f 11                	jg     6b0c <safe_rshift_func_int64_t_s_s+0x33>
    6afb:	8b 45 f4             	mov    -0xc(%rbp),%eax
    6afe:	48 8b 55 f8          	mov    -0x8(%rbp),%rdx
    6b02:	89 c1                	mov    %eax,%ecx
    6b04:	48 d3 fa             	sar    %cl,%rdx
    6b07:	48 89 d0             	mov    %rdx,%rax
    6b0a:	eb 04                	jmp    6b10 <safe_rshift_func_int64_t_s_s+0x37>
    6b0c:	48 8b 45 f8          	mov    -0x8(%rbp),%rax
    6b10:	5d                   	pop    %rbp
    6b11:	c3                   	retq   

0000000000006b12 <safe_rshift_func_int64_t_s_u>:
    6b12:	f3 0f 1e fa          	endbr64 
    6b16:	55                   	push   %rbp
    6b17:	48 89 e5             	mov    %rsp,%rbp
    6b1a:	48 89 7d f8          	mov    %rdi,-0x8(%rbp)
    6b1e:	89 75 f4             	mov    %esi,-0xc(%rbp)
    6b21:	48 83 7d f8 00       	cmpq   $0x0,-0x8(%rbp)
    6b26:	78 17                	js     6b3f <safe_rshift_func_int64_t_s_u+0x2d>
    6b28:	83 7d f4 1f          	cmpl   $0x1f,-0xc(%rbp)
    6b2c:	77 11                	ja     6b3f <safe_rshift_func_int64_t_s_u+0x2d>
    6b2e:	8b 45 f4             	mov    -0xc(%rbp),%eax
    6b31:	48 8b 55 f8          	mov    -0x8(%rbp),%rdx
    6b35:	89 c1                	mov    %eax,%ecx
    6b37:	48 d3 fa             	sar    %cl,%rdx
    6b3a:	48 89 d0             	mov    %rdx,%rax
    6b3d:	eb 04                	jmp    6b43 <safe_rshift_func_int64_t_s_u+0x31>
    6b3f:	48 8b 45 f8          	mov    -0x8(%rbp),%rax
    6b43:	5d                   	pop    %rbp
    6b44:	c3                   	retq   

0000000000006b45 <safe_unary_minus_func_uint8_t_u>:
    6b45:	f3 0f 1e fa          	endbr64 
    6b49:	55                   	push   %rbp
    6b4a:	48 89 e5             	mov    %rsp,%rbp
    6b4d:	89 f8                	mov    %edi,%eax
    6b4f:	88 45 fc             	mov    %al,-0x4(%rbp)
    6b52:	0f b6 45 fc          	movzbl -0x4(%rbp),%eax
    6b56:	f7 d8                	neg    %eax
    6b58:	5d                   	pop    %rbp
    6b59:	c3                   	retq   

0000000000006b5a <safe_add_func_uint8_t_u_u>:
    6b5a:	f3 0f 1e fa          	endbr64 
    6b5e:	55                   	push   %rbp
    6b5f:	48 89 e5             	mov    %rsp,%rbp
    6b62:	89 fa                	mov    %edi,%edx
    6b64:	89 f0                	mov    %esi,%eax
    6b66:	88 55 fc             	mov    %dl,-0x4(%rbp)
    6b69:	88 45 f8             	mov    %al,-0x8(%rbp)
    6b6c:	0f b6 55 fc          	movzbl -0x4(%rbp),%edx
    6b70:	0f b6 45 f8          	movzbl -0x8(%rbp),%eax
    6b74:	01 d0                	add    %edx,%eax
    6b76:	5d                   	pop    %rbp
    6b77:	c3                   	retq   

0000000000006b78 <safe_sub_func_uint8_t_u_u>:
    6b78:	f3 0f 1e fa          	endbr64 
    6b7c:	55                   	push   %rbp
    6b7d:	48 89 e5             	mov    %rsp,%rbp
    6b80:	89 fa                	mov    %edi,%edx
    6b82:	89 f0                	mov    %esi,%eax
    6b84:	88 55 fc             	mov    %dl,-0x4(%rbp)
    6b87:	88 45 f8             	mov    %al,-0x8(%rbp)
    6b8a:	0f b6 45 fc          	movzbl -0x4(%rbp),%eax
    6b8e:	2a 45 f8             	sub    -0x8(%rbp),%al
    6b91:	5d                   	pop    %rbp
    6b92:	c3                   	retq   

0000000000006b93 <safe_mul_func_uint8_t_u_u>:
    6b93:	f3 0f 1e fa          	endbr64 
    6b97:	55                   	push   %rbp
    6b98:	48 89 e5             	mov    %rsp,%rbp
    6b9b:	89 fa                	mov    %edi,%edx
    6b9d:	89 f0                	mov    %esi,%eax
    6b9f:	88 55 fc             	mov    %dl,-0x4(%rbp)
    6ba2:	88 45 f8             	mov    %al,-0x8(%rbp)
    6ba5:	0f b6 45 fc          	movzbl -0x4(%rbp),%eax
    6ba9:	f6 65 f8             	mulb   -0x8(%rbp)
    6bac:	5d                   	pop    %rbp
    6bad:	c3                   	retq   

0000000000006bae <safe_mod_func_uint8_t_u_u>:
    6bae:	f3 0f 1e fa          	endbr64 
    6bb2:	55                   	push   %rbp
    6bb3:	48 89 e5             	mov    %rsp,%rbp
    6bb6:	89 fa                	mov    %edi,%edx
    6bb8:	89 f0                	mov    %esi,%eax
    6bba:	88 55 fc             	mov    %dl,-0x4(%rbp)
    6bbd:	88 45 f8             	mov    %al,-0x8(%rbp)
    6bc0:	80 7d f8 00          	cmpb   $0x0,-0x8(%rbp)
    6bc4:	74 0f                	je     6bd5 <safe_mod_func_uint8_t_u_u+0x27>
    6bc6:	0f b6 45 fc          	movzbl -0x4(%rbp),%eax
    6bca:	0f b6 c0             	movzbl %al,%eax
    6bcd:	f6 75 f8             	divb   -0x8(%rbp)
    6bd0:	0f b6 c4             	movzbl %ah,%eax
    6bd3:	eb 04                	jmp    6bd9 <safe_mod_func_uint8_t_u_u+0x2b>
    6bd5:	0f b6 45 fc          	movzbl -0x4(%rbp),%eax
    6bd9:	5d                   	pop    %rbp
    6bda:	c3                   	retq   

0000000000006bdb <safe_div_func_uint8_t_u_u>:
    6bdb:	f3 0f 1e fa          	endbr64 
    6bdf:	55                   	push   %rbp
    6be0:	48 89 e5             	mov    %rsp,%rbp
    6be3:	89 fa                	mov    %edi,%edx
    6be5:	89 f0                	mov    %esi,%eax
    6be7:	88 55 fc             	mov    %dl,-0x4(%rbp)
    6bea:	88 45 f8             	mov    %al,-0x8(%rbp)
    6bed:	80 7d f8 00          	cmpb   $0x0,-0x8(%rbp)
    6bf1:	74 0c                	je     6bff <safe_div_func_uint8_t_u_u+0x24>
    6bf3:	0f b6 45 fc          	movzbl -0x4(%rbp),%eax
    6bf7:	0f b6 c0             	movzbl %al,%eax
    6bfa:	f6 75 f8             	divb   -0x8(%rbp)
    6bfd:	eb 04                	jmp    6c03 <safe_div_func_uint8_t_u_u+0x28>
    6bff:	0f b6 45 fc          	movzbl -0x4(%rbp),%eax
    6c03:	5d                   	pop    %rbp
    6c04:	c3                   	retq   

0000000000006c05 <safe_lshift_func_uint8_t_u_s>:
    6c05:	f3 0f 1e fa          	endbr64 
    6c09:	55                   	push   %rbp
    6c0a:	48 89 e5             	mov    %rsp,%rbp
    6c0d:	89 f8                	mov    %edi,%eax
    6c0f:	89 75 f8             	mov    %esi,-0x8(%rbp)
    6c12:	88 45 fc             	mov    %al,-0x4(%rbp)
    6c15:	83 7d f8 00          	cmpl   $0x0,-0x8(%rbp)
    6c19:	78 2b                	js     6c46 <safe_lshift_func_uint8_t_u_s+0x41>
    6c1b:	83 7d f8 1f          	cmpl   $0x1f,-0x8(%rbp)
    6c1f:	7f 25                	jg     6c46 <safe_lshift_func_uint8_t_u_s+0x41>
    6c21:	0f b6 55 fc          	movzbl -0x4(%rbp),%edx
    6c25:	8b 45 f8             	mov    -0x8(%rbp),%eax
    6c28:	be ff 00 00 00       	mov    $0xff,%esi
    6c2d:	89 c1                	mov    %eax,%ecx
    6c2f:	d3 fe                	sar    %cl,%esi
    6c31:	89 f0                	mov    %esi,%eax
    6c33:	39 c2                	cmp    %eax,%edx
    6c35:	7f 0f                	jg     6c46 <safe_lshift_func_uint8_t_u_s+0x41>
    6c37:	0f b6 55 fc          	movzbl -0x4(%rbp),%edx
    6c3b:	8b 45 f8             	mov    -0x8(%rbp),%eax
    6c3e:	89 c1                	mov    %eax,%ecx
    6c40:	d3 e2                	shl    %cl,%edx
    6c42:	89 d0                	mov    %edx,%eax
    6c44:	eb 04                	jmp    6c4a <safe_lshift_func_uint8_t_u_s+0x45>
    6c46:	0f b6 45 fc          	movzbl -0x4(%rbp),%eax
    6c4a:	5d                   	pop    %rbp
    6c4b:	c3                   	retq   

0000000000006c4c <safe_lshift_func_uint8_t_u_u>:
    6c4c:	f3 0f 1e fa          	endbr64 
    6c50:	55                   	push   %rbp
    6c51:	48 89 e5             	mov    %rsp,%rbp
    6c54:	89 f8                	mov    %edi,%eax
    6c56:	89 75 f8             	mov    %esi,-0x8(%rbp)
    6c59:	88 45 fc             	mov    %al,-0x4(%rbp)
    6c5c:	83 7d f8 1f          	cmpl   $0x1f,-0x8(%rbp)
    6c60:	77 25                	ja     6c87 <safe_lshift_func_uint8_t_u_u+0x3b>
    6c62:	0f b6 55 fc          	movzbl -0x4(%rbp),%edx
    6c66:	8b 45 f8             	mov    -0x8(%rbp),%eax
    6c69:	be ff 00 00 00       	mov    $0xff,%esi
    6c6e:	89 c1                	mov    %eax,%ecx
    6c70:	d3 fe                	sar    %cl,%esi
    6c72:	89 f0                	mov    %esi,%eax
    6c74:	39 c2                	cmp    %eax,%edx
    6c76:	7f 0f                	jg     6c87 <safe_lshift_func_uint8_t_u_u+0x3b>
    6c78:	0f b6 55 fc          	movzbl -0x4(%rbp),%edx
    6c7c:	8b 45 f8             	mov    -0x8(%rbp),%eax
    6c7f:	89 c1                	mov    %eax,%ecx
    6c81:	d3 e2                	shl    %cl,%edx
    6c83:	89 d0                	mov    %edx,%eax
    6c85:	eb 04                	jmp    6c8b <safe_lshift_func_uint8_t_u_u+0x3f>
    6c87:	0f b6 45 fc          	movzbl -0x4(%rbp),%eax
    6c8b:	5d                   	pop    %rbp
    6c8c:	c3                   	retq   

0000000000006c8d <safe_rshift_func_uint8_t_u_s>:
    6c8d:	f3 0f 1e fa          	endbr64 
    6c91:	55                   	push   %rbp
    6c92:	48 89 e5             	mov    %rsp,%rbp
    6c95:	89 f8                	mov    %edi,%eax
    6c97:	89 75 f8             	mov    %esi,-0x8(%rbp)
    6c9a:	88 45 fc             	mov    %al,-0x4(%rbp)
    6c9d:	83 7d f8 00          	cmpl   $0x0,-0x8(%rbp)
    6ca1:	78 15                	js     6cb8 <safe_rshift_func_uint8_t_u_s+0x2b>
    6ca3:	83 7d f8 1f          	cmpl   $0x1f,-0x8(%rbp)
    6ca7:	7f 0f                	jg     6cb8 <safe_rshift_func_uint8_t_u_s+0x2b>
    6ca9:	0f b6 55 fc          	movzbl -0x4(%rbp),%edx
    6cad:	8b 45 f8             	mov    -0x8(%rbp),%eax
    6cb0:	89 c1                	mov    %eax,%ecx
    6cb2:	d3 fa                	sar    %cl,%edx
    6cb4:	89 d0                	mov    %edx,%eax
    6cb6:	eb 04                	jmp    6cbc <safe_rshift_func_uint8_t_u_s+0x2f>
    6cb8:	0f b6 45 fc          	movzbl -0x4(%rbp),%eax
    6cbc:	5d                   	pop    %rbp
    6cbd:	c3                   	retq   

0000000000006cbe <safe_rshift_func_uint8_t_u_u>:
    6cbe:	f3 0f 1e fa          	endbr64 
    6cc2:	55                   	push   %rbp
    6cc3:	48 89 e5             	mov    %rsp,%rbp
    6cc6:	89 f8                	mov    %edi,%eax
    6cc8:	89 75 f8             	mov    %esi,-0x8(%rbp)
    6ccb:	88 45 fc             	mov    %al,-0x4(%rbp)
    6cce:	83 7d f8 1f          	cmpl   $0x1f,-0x8(%rbp)
    6cd2:	77 0f                	ja     6ce3 <safe_rshift_func_uint8_t_u_u+0x25>
    6cd4:	0f b6 55 fc          	movzbl -0x4(%rbp),%edx
    6cd8:	8b 45 f8             	mov    -0x8(%rbp),%eax
    6cdb:	89 c1                	mov    %eax,%ecx
    6cdd:	d3 fa                	sar    %cl,%edx
    6cdf:	89 d0                	mov    %edx,%eax
    6ce1:	eb 04                	jmp    6ce7 <safe_rshift_func_uint8_t_u_u+0x29>
    6ce3:	0f b6 45 fc          	movzbl -0x4(%rbp),%eax
    6ce7:	5d                   	pop    %rbp
    6ce8:	c3                   	retq   

0000000000006ce9 <safe_unary_minus_func_uint16_t_u>:
    6ce9:	f3 0f 1e fa          	endbr64 
    6ced:	55                   	push   %rbp
    6cee:	48 89 e5             	mov    %rsp,%rbp
    6cf1:	89 f8                	mov    %edi,%eax
    6cf3:	66 89 45 fc          	mov    %ax,-0x4(%rbp)
    6cf7:	0f b7 45 fc          	movzwl -0x4(%rbp),%eax
    6cfb:	f7 d8                	neg    %eax
    6cfd:	5d                   	pop    %rbp
    6cfe:	c3                   	retq   

0000000000006cff <safe_add_func_uint16_t_u_u>:
    6cff:	f3 0f 1e fa          	endbr64 
    6d03:	55                   	push   %rbp
    6d04:	48 89 e5             	mov    %rsp,%rbp
    6d07:	89 fa                	mov    %edi,%edx
    6d09:	89 f0                	mov    %esi,%eax
    6d0b:	66 89 55 fc          	mov    %dx,-0x4(%rbp)
    6d0f:	66 89 45 f8          	mov    %ax,-0x8(%rbp)
    6d13:	0f b7 55 fc          	movzwl -0x4(%rbp),%edx
    6d17:	0f b7 45 f8          	movzwl -0x8(%rbp),%eax
    6d1b:	01 d0                	add    %edx,%eax
    6d1d:	5d                   	pop    %rbp
    6d1e:	c3                   	retq   

0000000000006d1f <safe_sub_func_uint16_t_u_u>:
    6d1f:	f3 0f 1e fa          	endbr64 
    6d23:	55                   	push   %rbp
    6d24:	48 89 e5             	mov    %rsp,%rbp
    6d27:	89 fa                	mov    %edi,%edx
    6d29:	89 f0                	mov    %esi,%eax
    6d2b:	66 89 55 fc          	mov    %dx,-0x4(%rbp)
    6d2f:	66 89 45 f8          	mov    %ax,-0x8(%rbp)
    6d33:	0f b7 45 fc          	movzwl -0x4(%rbp),%eax
    6d37:	66 2b 45 f8          	sub    -0x8(%rbp),%ax
    6d3b:	5d                   	pop    %rbp
    6d3c:	c3                   	retq   

0000000000006d3d <safe_mul_func_uint16_t_u_u>:
    6d3d:	f3 0f 1e fa          	endbr64 
    6d41:	55                   	push   %rbp
    6d42:	48 89 e5             	mov    %rsp,%rbp
    6d45:	89 fa                	mov    %edi,%edx
    6d47:	89 f0                	mov    %esi,%eax
    6d49:	66 89 55 fc          	mov    %dx,-0x4(%rbp)
    6d4d:	66 89 45 f8          	mov    %ax,-0x8(%rbp)
    6d51:	0f b7 45 fc          	movzwl -0x4(%rbp),%eax
    6d55:	66 0f af 45 f8       	imul   -0x8(%rbp),%ax
    6d5a:	5d                   	pop    %rbp
    6d5b:	c3                   	retq   

0000000000006d5c <safe_mod_func_uint16_t_u_u>:
    6d5c:	f3 0f 1e fa          	endbr64 
    6d60:	55                   	push   %rbp
    6d61:	48 89 e5             	mov    %rsp,%rbp
    6d64:	89 fa                	mov    %edi,%edx
    6d66:	89 f0                	mov    %esi,%eax
    6d68:	66 89 55 fc          	mov    %dx,-0x4(%rbp)
    6d6c:	66 89 45 f8          	mov    %ax,-0x8(%rbp)
    6d70:	66 83 7d f8 00       	cmpw   $0x0,-0x8(%rbp)
    6d75:	74 11                	je     6d88 <safe_mod_func_uint16_t_u_u+0x2c>
    6d77:	0f b7 45 fc          	movzwl -0x4(%rbp),%eax
    6d7b:	ba 00 00 00 00       	mov    $0x0,%edx
    6d80:	66 f7 75 f8          	divw   -0x8(%rbp)
    6d84:	89 d0                	mov    %edx,%eax
    6d86:	eb 04                	jmp    6d8c <safe_mod_func_uint16_t_u_u+0x30>
    6d88:	0f b7 45 fc          	movzwl -0x4(%rbp),%eax
    6d8c:	5d                   	pop    %rbp
    6d8d:	c3                   	retq   

0000000000006d8e <safe_div_func_uint16_t_u_u>:
    6d8e:	f3 0f 1e fa          	endbr64 
    6d92:	55                   	push   %rbp
    6d93:	48 89 e5             	mov    %rsp,%rbp
    6d96:	89 fa                	mov    %edi,%edx
    6d98:	89 f0                	mov    %esi,%eax
    6d9a:	66 89 55 fc          	mov    %dx,-0x4(%rbp)
    6d9e:	66 89 45 f8          	mov    %ax,-0x8(%rbp)
    6da2:	66 83 7d f8 00       	cmpw   $0x0,-0x8(%rbp)
    6da7:	74 0f                	je     6db8 <safe_div_func_uint16_t_u_u+0x2a>
    6da9:	0f b7 45 fc          	movzwl -0x4(%rbp),%eax
    6dad:	ba 00 00 00 00       	mov    $0x0,%edx
    6db2:	66 f7 75 f8          	divw   -0x8(%rbp)
    6db6:	eb 04                	jmp    6dbc <safe_div_func_uint16_t_u_u+0x2e>
    6db8:	0f b7 45 fc          	movzwl -0x4(%rbp),%eax
    6dbc:	5d                   	pop    %rbp
    6dbd:	c3                   	retq   

0000000000006dbe <safe_lshift_func_uint16_t_u_s>:
    6dbe:	f3 0f 1e fa          	endbr64 
    6dc2:	55                   	push   %rbp
    6dc3:	48 89 e5             	mov    %rsp,%rbp
    6dc6:	89 f8                	mov    %edi,%eax
    6dc8:	89 75 f8             	mov    %esi,-0x8(%rbp)
    6dcb:	66 89 45 fc          	mov    %ax,-0x4(%rbp)
    6dcf:	83 7d f8 00          	cmpl   $0x0,-0x8(%rbp)
    6dd3:	78 2b                	js     6e00 <safe_lshift_func_uint16_t_u_s+0x42>
    6dd5:	83 7d f8 1f          	cmpl   $0x1f,-0x8(%rbp)
    6dd9:	7f 25                	jg     6e00 <safe_lshift_func_uint16_t_u_s+0x42>
    6ddb:	0f b7 55 fc          	movzwl -0x4(%rbp),%edx
    6ddf:	8b 45 f8             	mov    -0x8(%rbp),%eax
    6de2:	be ff ff 00 00       	mov    $0xffff,%esi
    6de7:	89 c1                	mov    %eax,%ecx
    6de9:	d3 fe                	sar    %cl,%esi
    6deb:	89 f0                	mov    %esi,%eax
    6ded:	39 c2                	cmp    %eax,%edx
    6def:	7f 0f                	jg     6e00 <safe_lshift_func_uint16_t_u_s+0x42>
    6df1:	0f b7 55 fc          	movzwl -0x4(%rbp),%edx
    6df5:	8b 45 f8             	mov    -0x8(%rbp),%eax
    6df8:	89 c1                	mov    %eax,%ecx
    6dfa:	d3 e2                	shl    %cl,%edx
    6dfc:	89 d0                	mov    %edx,%eax
    6dfe:	eb 04                	jmp    6e04 <safe_lshift_func_uint16_t_u_s+0x46>
    6e00:	0f b7 45 fc          	movzwl -0x4(%rbp),%eax
    6e04:	5d                   	pop    %rbp
    6e05:	c3                   	retq   

0000000000006e06 <safe_lshift_func_uint16_t_u_u>:
    6e06:	f3 0f 1e fa          	endbr64 
    6e0a:	55                   	push   %rbp
    6e0b:	48 89 e5             	mov    %rsp,%rbp
    6e0e:	89 f8                	mov    %edi,%eax
    6e10:	89 75 f8             	mov    %esi,-0x8(%rbp)
    6e13:	66 89 45 fc          	mov    %ax,-0x4(%rbp)
    6e17:	83 7d f8 1f          	cmpl   $0x1f,-0x8(%rbp)
    6e1b:	77 25                	ja     6e42 <safe_lshift_func_uint16_t_u_u+0x3c>
    6e1d:	0f b7 55 fc          	movzwl -0x4(%rbp),%edx
    6e21:	8b 45 f8             	mov    -0x8(%rbp),%eax
    6e24:	be ff ff 00 00       	mov    $0xffff,%esi
    6e29:	89 c1                	mov    %eax,%ecx
    6e2b:	d3 fe                	sar    %cl,%esi
    6e2d:	89 f0                	mov    %esi,%eax
    6e2f:	39 c2                	cmp    %eax,%edx
    6e31:	7f 0f                	jg     6e42 <safe_lshift_func_uint16_t_u_u+0x3c>
    6e33:	0f b7 55 fc          	movzwl -0x4(%rbp),%edx
    6e37:	8b 45 f8             	mov    -0x8(%rbp),%eax
    6e3a:	89 c1                	mov    %eax,%ecx
    6e3c:	d3 e2                	shl    %cl,%edx
    6e3e:	89 d0                	mov    %edx,%eax
    6e40:	eb 04                	jmp    6e46 <safe_lshift_func_uint16_t_u_u+0x40>
    6e42:	0f b7 45 fc          	movzwl -0x4(%rbp),%eax
    6e46:	5d                   	pop    %rbp
    6e47:	c3                   	retq   

0000000000006e48 <safe_rshift_func_uint16_t_u_s>:
    6e48:	f3 0f 1e fa          	endbr64 
    6e4c:	55                   	push   %rbp
    6e4d:	48 89 e5             	mov    %rsp,%rbp
    6e50:	89 f8                	mov    %edi,%eax
    6e52:	89 75 f8             	mov    %esi,-0x8(%rbp)
    6e55:	66 89 45 fc          	mov    %ax,-0x4(%rbp)
    6e59:	83 7d f8 00          	cmpl   $0x0,-0x8(%rbp)
    6e5d:	78 15                	js     6e74 <safe_rshift_func_uint16_t_u_s+0x2c>
    6e5f:	83 7d f8 1f          	cmpl   $0x1f,-0x8(%rbp)
    6e63:	7f 0f                	jg     6e74 <safe_rshift_func_uint16_t_u_s+0x2c>
    6e65:	0f b7 55 fc          	movzwl -0x4(%rbp),%edx
    6e69:	8b 45 f8             	mov    -0x8(%rbp),%eax
    6e6c:	89 c1                	mov    %eax,%ecx
    6e6e:	d3 fa                	sar    %cl,%edx
    6e70:	89 d0                	mov    %edx,%eax
    6e72:	eb 04                	jmp    6e78 <safe_rshift_func_uint16_t_u_s+0x30>
    6e74:	0f b7 45 fc          	movzwl -0x4(%rbp),%eax
    6e78:	5d                   	pop    %rbp
    6e79:	c3                   	retq   

0000000000006e7a <safe_rshift_func_uint16_t_u_u>:
    6e7a:	f3 0f 1e fa          	endbr64 
    6e7e:	55                   	push   %rbp
    6e7f:	48 89 e5             	mov    %rsp,%rbp
    6e82:	89 f8                	mov    %edi,%eax
    6e84:	89 75 f8             	mov    %esi,-0x8(%rbp)
    6e87:	66 89 45 fc          	mov    %ax,-0x4(%rbp)
    6e8b:	83 7d f8 1f          	cmpl   $0x1f,-0x8(%rbp)
    6e8f:	77 0f                	ja     6ea0 <safe_rshift_func_uint16_t_u_u+0x26>
    6e91:	0f b7 55 fc          	movzwl -0x4(%rbp),%edx
    6e95:	8b 45 f8             	mov    -0x8(%rbp),%eax
    6e98:	89 c1                	mov    %eax,%ecx
    6e9a:	d3 fa                	sar    %cl,%edx
    6e9c:	89 d0                	mov    %edx,%eax
    6e9e:	eb 04                	jmp    6ea4 <safe_rshift_func_uint16_t_u_u+0x2a>
    6ea0:	0f b7 45 fc          	movzwl -0x4(%rbp),%eax
    6ea4:	5d                   	pop    %rbp
    6ea5:	c3                   	retq   

0000000000006ea6 <safe_unary_minus_func_uint32_t_u>:
    6ea6:	f3 0f 1e fa          	endbr64 
    6eaa:	55                   	push   %rbp
    6eab:	48 89 e5             	mov    %rsp,%rbp
    6eae:	89 7d fc             	mov    %edi,-0x4(%rbp)
    6eb1:	8b 45 fc             	mov    -0x4(%rbp),%eax
    6eb4:	f7 d8                	neg    %eax
    6eb6:	5d                   	pop    %rbp
    6eb7:	c3                   	retq   

0000000000006eb8 <safe_add_func_uint32_t_u_u>:
    6eb8:	f3 0f 1e fa          	endbr64 
    6ebc:	55                   	push   %rbp
    6ebd:	48 89 e5             	mov    %rsp,%rbp
    6ec0:	89 7d fc             	mov    %edi,-0x4(%rbp)
    6ec3:	89 75 f8             	mov    %esi,-0x8(%rbp)
    6ec6:	8b 55 fc             	mov    -0x4(%rbp),%edx
    6ec9:	8b 45 f8             	mov    -0x8(%rbp),%eax
    6ecc:	01 d0                	add    %edx,%eax
    6ece:	5d                   	pop    %rbp
    6ecf:	c3                   	retq   

0000000000006ed0 <safe_sub_func_uint32_t_u_u>:
    6ed0:	f3 0f 1e fa          	endbr64 
    6ed4:	55                   	push   %rbp
    6ed5:	48 89 e5             	mov    %rsp,%rbp
    6ed8:	89 7d fc             	mov    %edi,-0x4(%rbp)
    6edb:	89 75 f8             	mov    %esi,-0x8(%rbp)
    6ede:	8b 45 fc             	mov    -0x4(%rbp),%eax
    6ee1:	2b 45 f8             	sub    -0x8(%rbp),%eax
    6ee4:	5d                   	pop    %rbp
    6ee5:	c3                   	retq   

0000000000006ee6 <safe_mul_func_uint32_t_u_u>:
    6ee6:	f3 0f 1e fa          	endbr64 
    6eea:	55                   	push   %rbp
    6eeb:	48 89 e5             	mov    %rsp,%rbp
    6eee:	89 7d fc             	mov    %edi,-0x4(%rbp)
    6ef1:	89 75 f8             	mov    %esi,-0x8(%rbp)
    6ef4:	8b 45 fc             	mov    -0x4(%rbp),%eax
    6ef7:	0f af 45 f8          	imul   -0x8(%rbp),%eax
    6efb:	5d                   	pop    %rbp
    6efc:	c3                   	retq   

0000000000006efd <safe_mod_func_uint32_t_u_u>:
    6efd:	f3 0f 1e fa          	endbr64 
    6f01:	55                   	push   %rbp
    6f02:	48 89 e5             	mov    %rsp,%rbp
    6f05:	89 7d fc             	mov    %edi,-0x4(%rbp)
    6f08:	89 75 f8             	mov    %esi,-0x8(%rbp)
    6f0b:	83 7d f8 00          	cmpl   $0x0,-0x8(%rbp)
    6f0f:	74 0f                	je     6f20 <safe_mod_func_uint32_t_u_u+0x23>
    6f11:	8b 45 fc             	mov    -0x4(%rbp),%eax
    6f14:	ba 00 00 00 00       	mov    $0x0,%edx
    6f19:	f7 75 f8             	divl   -0x8(%rbp)
    6f1c:	89 d0                	mov    %edx,%eax
    6f1e:	eb 03                	jmp    6f23 <safe_mod_func_uint32_t_u_u+0x26>
    6f20:	8b 45 fc             	mov    -0x4(%rbp),%eax
    6f23:	5d                   	pop    %rbp
    6f24:	c3                   	retq   

0000000000006f25 <safe_div_func_uint32_t_u_u>:
    6f25:	f3 0f 1e fa          	endbr64 
    6f29:	55                   	push   %rbp
    6f2a:	48 89 e5             	mov    %rsp,%rbp
    6f2d:	89 7d fc             	mov    %edi,-0x4(%rbp)
    6f30:	89 75 f8             	mov    %esi,-0x8(%rbp)
    6f33:	83 7d f8 00          	cmpl   $0x0,-0x8(%rbp)
    6f37:	74 0d                	je     6f46 <safe_div_func_uint32_t_u_u+0x21>
    6f39:	8b 45 fc             	mov    -0x4(%rbp),%eax
    6f3c:	ba 00 00 00 00       	mov    $0x0,%edx
    6f41:	f7 75 f8             	divl   -0x8(%rbp)
    6f44:	eb 03                	jmp    6f49 <safe_div_func_uint32_t_u_u+0x24>
    6f46:	8b 45 fc             	mov    -0x4(%rbp),%eax
    6f49:	5d                   	pop    %rbp
    6f4a:	c3                   	retq   

0000000000006f4b <safe_lshift_func_uint32_t_u_s>:
    6f4b:	f3 0f 1e fa          	endbr64 
    6f4f:	55                   	push   %rbp
    6f50:	48 89 e5             	mov    %rsp,%rbp
    6f53:	89 7d fc             	mov    %edi,-0x4(%rbp)
    6f56:	89 75 f8             	mov    %esi,-0x8(%rbp)
    6f59:	83 7d f8 00          	cmpl   $0x0,-0x8(%rbp)
    6f5d:	78 27                	js     6f86 <safe_lshift_func_uint32_t_u_s+0x3b>
    6f5f:	83 7d f8 1f          	cmpl   $0x1f,-0x8(%rbp)
    6f63:	7f 21                	jg     6f86 <safe_lshift_func_uint32_t_u_s+0x3b>
    6f65:	8b 45 f8             	mov    -0x8(%rbp),%eax
    6f68:	ba ff ff ff ff       	mov    $0xffffffff,%edx
    6f6d:	89 c1                	mov    %eax,%ecx
    6f6f:	d3 ea                	shr    %cl,%edx
    6f71:	89 d0                	mov    %edx,%eax
    6f73:	39 45 fc             	cmp    %eax,-0x4(%rbp)
    6f76:	77 0e                	ja     6f86 <safe_lshift_func_uint32_t_u_s+0x3b>
    6f78:	8b 45 f8             	mov    -0x8(%rbp),%eax
    6f7b:	8b 55 fc             	mov    -0x4(%rbp),%edx
    6f7e:	89 c1                	mov    %eax,%ecx
    6f80:	d3 e2                	shl    %cl,%edx
    6f82:	89 d0                	mov    %edx,%eax
    6f84:	eb 03                	jmp    6f89 <safe_lshift_func_uint32_t_u_s+0x3e>
    6f86:	8b 45 fc             	mov    -0x4(%rbp),%eax
    6f89:	5d                   	pop    %rbp
    6f8a:	c3                   	retq   

0000000000006f8b <safe_lshift_func_uint32_t_u_u>:
    6f8b:	f3 0f 1e fa          	endbr64 
    6f8f:	55                   	push   %rbp
    6f90:	48 89 e5             	mov    %rsp,%rbp
    6f93:	89 7d fc             	mov    %edi,-0x4(%rbp)
    6f96:	89 75 f8             	mov    %esi,-0x8(%rbp)
    6f99:	83 7d f8 1f          	cmpl   $0x1f,-0x8(%rbp)
    6f9d:	77 21                	ja     6fc0 <safe_lshift_func_uint32_t_u_u+0x35>
    6f9f:	8b 45 f8             	mov    -0x8(%rbp),%eax
    6fa2:	ba ff ff ff ff       	mov    $0xffffffff,%edx
    6fa7:	89 c1                	mov    %eax,%ecx
    6fa9:	d3 ea                	shr    %cl,%edx
    6fab:	89 d0                	mov    %edx,%eax
    6fad:	39 45 fc             	cmp    %eax,-0x4(%rbp)
    6fb0:	77 0e                	ja     6fc0 <safe_lshift_func_uint32_t_u_u+0x35>
    6fb2:	8b 45 f8             	mov    -0x8(%rbp),%eax
    6fb5:	8b 55 fc             	mov    -0x4(%rbp),%edx
    6fb8:	89 c1                	mov    %eax,%ecx
    6fba:	d3 e2                	shl    %cl,%edx
    6fbc:	89 d0                	mov    %edx,%eax
    6fbe:	eb 03                	jmp    6fc3 <safe_lshift_func_uint32_t_u_u+0x38>
    6fc0:	8b 45 fc             	mov    -0x4(%rbp),%eax
    6fc3:	5d                   	pop    %rbp
    6fc4:	c3                   	retq   

0000000000006fc5 <safe_rshift_func_uint32_t_u_s>:
    6fc5:	f3 0f 1e fa          	endbr64 
    6fc9:	55                   	push   %rbp
    6fca:	48 89 e5             	mov    %rsp,%rbp
    6fcd:	89 7d fc             	mov    %edi,-0x4(%rbp)
    6fd0:	89 75 f8             	mov    %esi,-0x8(%rbp)
    6fd3:	83 7d f8 00          	cmpl   $0x0,-0x8(%rbp)
    6fd7:	78 14                	js     6fed <safe_rshift_func_uint32_t_u_s+0x28>
    6fd9:	83 7d f8 1f          	cmpl   $0x1f,-0x8(%rbp)
    6fdd:	7f 0e                	jg     6fed <safe_rshift_func_uint32_t_u_s+0x28>
    6fdf:	8b 45 f8             	mov    -0x8(%rbp),%eax
    6fe2:	8b 55 fc             	mov    -0x4(%rbp),%edx
    6fe5:	89 c1                	mov    %eax,%ecx
    6fe7:	d3 ea                	shr    %cl,%edx
    6fe9:	89 d0                	mov    %edx,%eax
    6feb:	eb 03                	jmp    6ff0 <safe_rshift_func_uint32_t_u_s+0x2b>
    6fed:	8b 45 fc             	mov    -0x4(%rbp),%eax
    6ff0:	5d                   	pop    %rbp
    6ff1:	c3                   	retq   

0000000000006ff2 <safe_rshift_func_uint32_t_u_u>:
    6ff2:	f3 0f 1e fa          	endbr64 
    6ff6:	55                   	push   %rbp
    6ff7:	48 89 e5             	mov    %rsp,%rbp
    6ffa:	89 7d fc             	mov    %edi,-0x4(%rbp)
    6ffd:	89 75 f8             	mov    %esi,-0x8(%rbp)
    7000:	83 7d f8 1f          	cmpl   $0x1f,-0x8(%rbp)
    7004:	77 0e                	ja     7014 <safe_rshift_func_uint32_t_u_u+0x22>
    7006:	8b 45 f8             	mov    -0x8(%rbp),%eax
    7009:	8b 55 fc             	mov    -0x4(%rbp),%edx
    700c:	89 c1                	mov    %eax,%ecx
    700e:	d3 ea                	shr    %cl,%edx
    7010:	89 d0                	mov    %edx,%eax
    7012:	eb 03                	jmp    7017 <safe_rshift_func_uint32_t_u_u+0x25>
    7014:	8b 45 fc             	mov    -0x4(%rbp),%eax
    7017:	5d                   	pop    %rbp
    7018:	c3                   	retq   

0000000000007019 <safe_unary_minus_func_uint64_t_u>:
    7019:	f3 0f 1e fa          	endbr64 
    701d:	55                   	push   %rbp
    701e:	48 89 e5             	mov    %rsp,%rbp
    7021:	48 89 7d f8          	mov    %rdi,-0x8(%rbp)
    7025:	48 8b 45 f8          	mov    -0x8(%rbp),%rax
    7029:	48 f7 d8             	neg    %rax
    702c:	5d                   	pop    %rbp
    702d:	c3                   	retq   

000000000000702e <safe_add_func_uint64_t_u_u>:
    702e:	f3 0f 1e fa          	endbr64 
    7032:	55                   	push   %rbp
    7033:	48 89 e5             	mov    %rsp,%rbp
    7036:	48 89 7d f8          	mov    %rdi,-0x8(%rbp)
    703a:	48 89 75 f0          	mov    %rsi,-0x10(%rbp)
    703e:	48 8b 55 f8          	mov    -0x8(%rbp),%rdx
    7042:	48 8b 45 f0          	mov    -0x10(%rbp),%rax
    7046:	48 01 d0             	add    %rdx,%rax
    7049:	5d                   	pop    %rbp
    704a:	c3                   	retq   

000000000000704b <safe_sub_func_uint64_t_u_u>:
    704b:	f3 0f 1e fa          	endbr64 
    704f:	55                   	push   %rbp
    7050:	48 89 e5             	mov    %rsp,%rbp
    7053:	48 89 7d f8          	mov    %rdi,-0x8(%rbp)
    7057:	48 89 75 f0          	mov    %rsi,-0x10(%rbp)
    705b:	48 8b 45 f8          	mov    -0x8(%rbp),%rax
    705f:	48 2b 45 f0          	sub    -0x10(%rbp),%rax
    7063:	5d                   	pop    %rbp
    7064:	c3                   	retq   

0000000000007065 <safe_mul_func_uint64_t_u_u>:
    7065:	f3 0f 1e fa          	endbr64 
    7069:	55                   	push   %rbp
    706a:	48 89 e5             	mov    %rsp,%rbp
    706d:	48 89 7d f8          	mov    %rdi,-0x8(%rbp)
    7071:	48 89 75 f0          	mov    %rsi,-0x10(%rbp)
    7075:	48 8b 45 f8          	mov    -0x8(%rbp),%rax
    7079:	48 0f af 45 f0       	imul   -0x10(%rbp),%rax
    707e:	5d                   	pop    %rbp
    707f:	c3                   	retq   

0000000000007080 <safe_mod_func_uint64_t_u_u>:
    7080:	f3 0f 1e fa          	endbr64 
    7084:	55                   	push   %rbp
    7085:	48 89 e5             	mov    %rsp,%rbp
    7088:	48 89 7d f8          	mov    %rdi,-0x8(%rbp)
    708c:	48 89 75 f0          	mov    %rsi,-0x10(%rbp)
    7090:	48 83 7d f0 00       	cmpq   $0x0,-0x10(%rbp)
    7095:	74 12                	je     70a9 <safe_mod_func_uint64_t_u_u+0x29>
    7097:	48 8b 45 f8          	mov    -0x8(%rbp),%rax
    709b:	ba 00 00 00 00       	mov    $0x0,%edx
    70a0:	48 f7 75 f0          	divq   -0x10(%rbp)
    70a4:	48 89 d0             	mov    %rdx,%rax
    70a7:	eb 04                	jmp    70ad <safe_mod_func_uint64_t_u_u+0x2d>
    70a9:	48 8b 45 f8          	mov    -0x8(%rbp),%rax
    70ad:	5d                   	pop    %rbp
    70ae:	c3                   	retq   

00000000000070af <safe_div_func_uint64_t_u_u>:
    70af:	f3 0f 1e fa          	endbr64 
    70b3:	55                   	push   %rbp
    70b4:	48 89 e5             	mov    %rsp,%rbp
    70b7:	48 89 7d f8          	mov    %rdi,-0x8(%rbp)
    70bb:	48 89 75 f0          	mov    %rsi,-0x10(%rbp)
    70bf:	48 83 7d f0 00       	cmpq   $0x0,-0x10(%rbp)
    70c4:	74 0f                	je     70d5 <safe_div_func_uint64_t_u_u+0x26>
    70c6:	48 8b 45 f8          	mov    -0x8(%rbp),%rax
    70ca:	ba 00 00 00 00       	mov    $0x0,%edx
    70cf:	48 f7 75 f0          	divq   -0x10(%rbp)
    70d3:	eb 04                	jmp    70d9 <safe_div_func_uint64_t_u_u+0x2a>
    70d5:	48 8b 45 f8          	mov    -0x8(%rbp),%rax
    70d9:	5d                   	pop    %rbp
    70da:	c3                   	retq   

00000000000070db <safe_lshift_func_uint64_t_u_s>:
    70db:	f3 0f 1e fa          	endbr64 
    70df:	55                   	push   %rbp
    70e0:	48 89 e5             	mov    %rsp,%rbp
    70e3:	48 89 7d f8          	mov    %rdi,-0x8(%rbp)
    70e7:	89 75 f4             	mov    %esi,-0xc(%rbp)
    70ea:	83 7d f4 00          	cmpl   $0x0,-0xc(%rbp)
    70ee:	78 2f                	js     711f <safe_lshift_func_uint64_t_u_s+0x44>
    70f0:	83 7d f4 1f          	cmpl   $0x1f,-0xc(%rbp)
    70f4:	7f 29                	jg     711f <safe_lshift_func_uint64_t_u_s+0x44>
    70f6:	8b 45 f4             	mov    -0xc(%rbp),%eax
    70f9:	48 c7 c2 ff ff ff ff 	mov    $0xffffffffffffffff,%rdx
    7100:	89 c1                	mov    %eax,%ecx
    7102:	48 d3 ea             	shr    %cl,%rdx
    7105:	48 89 d0             	mov    %rdx,%rax
    7108:	48 39 45 f8          	cmp    %rax,-0x8(%rbp)
    710c:	77 11                	ja     711f <safe_lshift_func_uint64_t_u_s+0x44>
    710e:	8b 45 f4             	mov    -0xc(%rbp),%eax
    7111:	48 8b 55 f8          	mov    -0x8(%rbp),%rdx
    7115:	89 c1                	mov    %eax,%ecx
    7117:	48 d3 e2             	shl    %cl,%rdx
    711a:	48 89 d0             	mov    %rdx,%rax
    711d:	eb 04                	jmp    7123 <safe_lshift_func_uint64_t_u_s+0x48>
    711f:	48 8b 45 f8          	mov    -0x8(%rbp),%rax
    7123:	5d                   	pop    %rbp
    7124:	c3                   	retq   

0000000000007125 <safe_lshift_func_uint64_t_u_u>:
    7125:	f3 0f 1e fa          	endbr64 
    7129:	55                   	push   %rbp
    712a:	48 89 e5             	mov    %rsp,%rbp
    712d:	48 89 7d f8          	mov    %rdi,-0x8(%rbp)
    7131:	89 75 f4             	mov    %esi,-0xc(%rbp)
    7134:	83 7d f4 1f          	cmpl   $0x1f,-0xc(%rbp)
    7138:	77 29                	ja     7163 <safe_lshift_func_uint64_t_u_u+0x3e>
    713a:	8b 45 f4             	mov    -0xc(%rbp),%eax
    713d:	48 c7 c2 ff ff ff ff 	mov    $0xffffffffffffffff,%rdx
    7144:	89 c1                	mov    %eax,%ecx
    7146:	48 d3 ea             	shr    %cl,%rdx
    7149:	48 89 d0             	mov    %rdx,%rax
    714c:	48 39 45 f8          	cmp    %rax,-0x8(%rbp)
    7150:	77 11                	ja     7163 <safe_lshift_func_uint64_t_u_u+0x3e>
    7152:	8b 45 f4             	mov    -0xc(%rbp),%eax
    7155:	48 8b 55 f8          	mov    -0x8(%rbp),%rdx
    7159:	89 c1                	mov    %eax,%ecx
    715b:	48 d3 e2             	shl    %cl,%rdx
    715e:	48 89 d0             	mov    %rdx,%rax
    7161:	eb 04                	jmp    7167 <safe_lshift_func_uint64_t_u_u+0x42>
    7163:	48 8b 45 f8          	mov    -0x8(%rbp),%rax
    7167:	5d                   	pop    %rbp
    7168:	c3                   	retq   

0000000000007169 <safe_rshift_func_uint64_t_u_s>:
    7169:	f3 0f 1e fa          	endbr64 
    716d:	55                   	push   %rbp
    716e:	48 89 e5             	mov    %rsp,%rbp
    7171:	48 89 7d f8          	mov    %rdi,-0x8(%rbp)
    7175:	89 75 f4             	mov    %esi,-0xc(%rbp)
    7178:	83 7d f4 00          	cmpl   $0x0,-0xc(%rbp)
    717c:	78 17                	js     7195 <safe_rshift_func_uint64_t_u_s+0x2c>
    717e:	83 7d f4 1f          	cmpl   $0x1f,-0xc(%rbp)
    7182:	7f 11                	jg     7195 <safe_rshift_func_uint64_t_u_s+0x2c>
    7184:	8b 45 f4             	mov    -0xc(%rbp),%eax
    7187:	48 8b 55 f8          	mov    -0x8(%rbp),%rdx
    718b:	89 c1                	mov    %eax,%ecx
    718d:	48 d3 ea             	shr    %cl,%rdx
    7190:	48 89 d0             	mov    %rdx,%rax
    7193:	eb 04                	jmp    7199 <safe_rshift_func_uint64_t_u_s+0x30>
    7195:	48 8b 45 f8          	mov    -0x8(%rbp),%rax
    7199:	5d                   	pop    %rbp
    719a:	c3                   	retq   

000000000000719b <safe_rshift_func_uint64_t_u_u>:
    719b:	f3 0f 1e fa          	endbr64 
    719f:	55                   	push   %rbp
    71a0:	48 89 e5             	mov    %rsp,%rbp
    71a3:	48 89 7d f8          	mov    %rdi,-0x8(%rbp)
    71a7:	89 75 f4             	mov    %esi,-0xc(%rbp)
    71aa:	83 7d f4 1f          	cmpl   $0x1f,-0xc(%rbp)
    71ae:	77 11                	ja     71c1 <safe_rshift_func_uint64_t_u_u+0x26>
    71b0:	8b 45 f4             	mov    -0xc(%rbp),%eax
    71b3:	48 8b 55 f8          	mov    -0x8(%rbp),%rdx
    71b7:	89 c1                	mov    %eax,%ecx
    71b9:	48 d3 ea             	shr    %cl,%rdx
    71bc:	48 89 d0             	mov    %rdx,%rax
    71bf:	eb 04                	jmp    71c5 <safe_rshift_func_uint64_t_u_u+0x2a>
    71c1:	48 8b 45 f8          	mov    -0x8(%rbp),%rax
    71c5:	5d                   	pop    %rbp
    71c6:	c3                   	retq   

00000000000071c7 <safe_add_func_float_f_f>:
    71c7:	f3 0f 1e fa          	endbr64 
    71cb:	55                   	push   %rbp
    71cc:	48 89 e5             	mov    %rsp,%rbp
    71cf:	f3 0f 11 45 fc       	movss  %xmm0,-0x4(%rbp)
    71d4:	f3 0f 11 4d f8       	movss  %xmm1,-0x8(%rbp)
    71d9:	f3 0f 10 4d fc       	movss  -0x4(%rbp),%xmm1
    71de:	f3 0f 10 05 62 da 00 	movss  0xda62(%rip),%xmm0        # 14c48 <l_1443.4495+0x8>
    71e5:	00 
    71e6:	f3 0f 59 c8          	mulss  %xmm0,%xmm1
    71ea:	f3 0f 10 55 f8       	movss  -0x8(%rbp),%xmm2
    71ef:	f3 0f 10 05 51 da 00 	movss  0xda51(%rip),%xmm0        # 14c48 <l_1443.4495+0x8>
    71f6:	00 
    71f7:	f3 0f 59 c2          	mulss  %xmm2,%xmm0
    71fb:	f3 0f 58 c1          	addss  %xmm1,%xmm0
    71ff:	f3 0f 10 0d 49 da 00 	movss  0xda49(%rip),%xmm1        # 14c50 <l_1443.4495+0x10>
    7206:	00 
    7207:	0f 54 c1             	andps  %xmm1,%xmm0
    720a:	0f 2f 05 4f da 00 00 	comiss 0xda4f(%rip),%xmm0        # 14c60 <l_1443.4495+0x20>
    7211:	76 07                	jbe    721a <safe_add_func_float_f_f+0x53>
    7213:	f3 0f 10 45 fc       	movss  -0x4(%rbp),%xmm0
    7218:	eb 0a                	jmp    7224 <safe_add_func_float_f_f+0x5d>
    721a:	f3 0f 10 45 fc       	movss  -0x4(%rbp),%xmm0
    721f:	f3 0f 58 45 f8       	addss  -0x8(%rbp),%xmm0
    7224:	5d                   	pop    %rbp
    7225:	c3                   	retq   

0000000000007226 <safe_sub_func_float_f_f>:
    7226:	f3 0f 1e fa          	endbr64 
    722a:	55                   	push   %rbp
    722b:	48 89 e5             	mov    %rsp,%rbp
    722e:	f3 0f 11 45 fc       	movss  %xmm0,-0x4(%rbp)
    7233:	f3 0f 11 4d f8       	movss  %xmm1,-0x8(%rbp)
    7238:	f3 0f 10 4d fc       	movss  -0x4(%rbp),%xmm1
    723d:	f3 0f 10 05 03 da 00 	movss  0xda03(%rip),%xmm0        # 14c48 <l_1443.4495+0x8>
    7244:	00 
    7245:	f3 0f 59 c1          	mulss  %xmm1,%xmm0
    7249:	f3 0f 10 55 f8       	movss  -0x8(%rbp),%xmm2
    724e:	f3 0f 10 0d f2 d9 00 	movss  0xd9f2(%rip),%xmm1        # 14c48 <l_1443.4495+0x8>
    7255:	00 
    7256:	f3 0f 59 ca          	mulss  %xmm2,%xmm1
    725a:	f3 0f 5c c1          	subss  %xmm1,%xmm0
    725e:	f3 0f 10 0d ea d9 00 	movss  0xd9ea(%rip),%xmm1        # 14c50 <l_1443.4495+0x10>
    7265:	00 
    7266:	0f 54 c1             	andps  %xmm1,%xmm0
    7269:	0f 2f 05 f0 d9 00 00 	comiss 0xd9f0(%rip),%xmm0        # 14c60 <l_1443.4495+0x20>
    7270:	76 07                	jbe    7279 <safe_sub_func_float_f_f+0x53>
    7272:	f3 0f 10 45 fc       	movss  -0x4(%rbp),%xmm0
    7277:	eb 0a                	jmp    7283 <safe_sub_func_float_f_f+0x5d>
    7279:	f3 0f 10 45 fc       	movss  -0x4(%rbp),%xmm0
    727e:	f3 0f 5c 45 f8       	subss  -0x8(%rbp),%xmm0
    7283:	5d                   	pop    %rbp
    7284:	c3                   	retq   

0000000000007285 <safe_mul_func_float_f_f>:
    7285:	f3 0f 1e fa          	endbr64 
    7289:	55                   	push   %rbp
    728a:	48 89 e5             	mov    %rsp,%rbp
    728d:	f3 0f 11 45 fc       	movss  %xmm0,-0x4(%rbp)
    7292:	f3 0f 11 4d f8       	movss  %xmm1,-0x8(%rbp)
    7297:	f3 0f 10 4d fc       	movss  -0x4(%rbp),%xmm1
    729c:	f3 0f 10 05 c0 d9 00 	movss  0xd9c0(%rip),%xmm0        # 14c64 <l_1443.4495+0x24>
    72a3:	00 
    72a4:	f3 0f 59 c8          	mulss  %xmm0,%xmm1
    72a8:	f3 0f 10 55 f8       	movss  -0x8(%rbp),%xmm2
    72ad:	f3 0f 10 05 b3 d9 00 	movss  0xd9b3(%rip),%xmm0        # 14c68 <l_1443.4495+0x28>
    72b4:	00 
    72b5:	f3 0f 59 c2          	mulss  %xmm2,%xmm0
    72b9:	f3 0f 59 c1          	mulss  %xmm1,%xmm0
    72bd:	f3 0f 10 0d 8b d9 00 	movss  0xd98b(%rip),%xmm1        # 14c50 <l_1443.4495+0x10>
    72c4:	00 
    72c5:	0f 54 c1             	andps  %xmm1,%xmm0
    72c8:	0f 2f 05 9d d9 00 00 	comiss 0xd99d(%rip),%xmm0        # 14c6c <l_1443.4495+0x2c>
    72cf:	76 07                	jbe    72d8 <safe_mul_func_float_f_f+0x53>
    72d1:	f3 0f 10 45 fc       	movss  -0x4(%rbp),%xmm0
    72d6:	eb 0a                	jmp    72e2 <safe_mul_func_float_f_f+0x5d>
    72d8:	f3 0f 10 45 fc       	movss  -0x4(%rbp),%xmm0
    72dd:	f3 0f 59 45 f8       	mulss  -0x8(%rbp),%xmm0
    72e2:	5d                   	pop    %rbp
    72e3:	c3                   	retq   

00000000000072e4 <safe_div_func_float_f_f>:
    72e4:	f3 0f 1e fa          	endbr64 
    72e8:	55                   	push   %rbp
    72e9:	48 89 e5             	mov    %rsp,%rbp
    72ec:	f3 0f 11 45 fc       	movss  %xmm0,-0x4(%rbp)
    72f1:	f3 0f 11 4d f8       	movss  %xmm1,-0x8(%rbp)
    72f6:	f3 0f 10 45 f8       	movss  -0x8(%rbp),%xmm0
    72fb:	f3 0f 10 0d 4d d9 00 	movss  0xd94d(%rip),%xmm1        # 14c50 <l_1443.4495+0x10>
    7302:	00 
    7303:	0f 54 c8             	andps  %xmm0,%xmm1
    7306:	f3 0f 10 05 62 d9 00 	movss  0xd962(%rip),%xmm0        # 14c70 <l_1443.4495+0x30>
    730d:	00 
    730e:	0f 2f c1             	comiss %xmm1,%xmm0
    7311:	0f 97 c0             	seta   %al
    7314:	83 f0 01             	xor    $0x1,%eax
    7317:	84 c0                	test   %al,%al
    7319:	75 56                	jne    7371 <safe_div_func_float_f_f+0x8d>
    731b:	66 0f ef c0          	pxor   %xmm0,%xmm0
    731f:	0f 2e 45 f8          	ucomiss -0x8(%rbp),%xmm0
    7323:	7a 0a                	jp     732f <safe_div_func_float_f_f+0x4b>
    7325:	66 0f ef c0          	pxor   %xmm0,%xmm0
    7329:	0f 2e 45 f8          	ucomiss -0x8(%rbp),%xmm0
    732d:	74 4e                	je     737d <safe_div_func_float_f_f+0x99>
    732f:	f3 0f 10 4d fc       	movss  -0x4(%rbp),%xmm1
    7334:	f3 0f 10 05 38 d9 00 	movss  0xd938(%rip),%xmm0        # 14c74 <l_1443.4495+0x34>
    733b:	00 
    733c:	f3 0f 59 c1          	mulss  %xmm1,%xmm0
    7340:	f3 0f 10 55 f8       	movss  -0x8(%rbp),%xmm2
    7345:	f3 0f 10 0d 2b d9 00 	movss  0xd92b(%rip),%xmm1        # 14c78 <l_1443.4495+0x38>
    734c:	00 
    734d:	f3 0f 59 ca          	mulss  %xmm2,%xmm1
    7351:	f3 0f 5e c1          	divss  %xmm1,%xmm0
    7355:	f3 0f 10 0d f3 d8 00 	movss  0xd8f3(%rip),%xmm1        # 14c50 <l_1443.4495+0x10>
    735c:	00 
    735d:	0f 54 c1             	andps  %xmm1,%xmm0
    7360:	0f 2f 05 15 d9 00 00 	comiss 0xd915(%rip),%xmm0        # 14c7c <l_1443.4495+0x3c>
    7367:	0f 97 c0             	seta   %al
    736a:	83 f0 01             	xor    $0x1,%eax
    736d:	84 c0                	test   %al,%al
    736f:	74 0c                	je     737d <safe_div_func_float_f_f+0x99>
    7371:	f3 0f 10 45 fc       	movss  -0x4(%rbp),%xmm0
    7376:	f3 0f 5e 45 f8       	divss  -0x8(%rbp),%xmm0
    737b:	eb 05                	jmp    7382 <safe_div_func_float_f_f+0x9e>
    737d:	f3 0f 10 45 fc       	movss  -0x4(%rbp),%xmm0
    7382:	5d                   	pop    %rbp
    7383:	c3                   	retq   

0000000000007384 <safe_add_func_double_f_f>:
    7384:	f3 0f 1e fa          	endbr64 
    7388:	55                   	push   %rbp
    7389:	48 89 e5             	mov    %rsp,%rbp
    738c:	f2 0f 11 45 f8       	movsd  %xmm0,-0x8(%rbp)
    7391:	f2 0f 11 4d f0       	movsd  %xmm1,-0x10(%rbp)
    7396:	f2 0f 10 4d f8       	movsd  -0x8(%rbp),%xmm1
    739b:	f2 0f 10 05 dd d8 00 	movsd  0xd8dd(%rip),%xmm0        # 14c80 <l_1443.4495+0x40>
    73a2:	00 
    73a3:	f2 0f 59 c8          	mulsd  %xmm0,%xmm1
    73a7:	f2 0f 10 55 f0       	movsd  -0x10(%rbp),%xmm2
    73ac:	f2 0f 10 05 cc d8 00 	movsd  0xd8cc(%rip),%xmm0        # 14c80 <l_1443.4495+0x40>
    73b3:	00 
    73b4:	f2 0f 59 c2          	mulsd  %xmm2,%xmm0
    73b8:	f2 0f 58 c1          	addsd  %xmm1,%xmm0
    73bc:	f3 0f 7e 0d cc d8 00 	movq   0xd8cc(%rip),%xmm1        # 14c90 <l_1443.4495+0x50>
    73c3:	00 
    73c4:	66 0f 54 c1          	andpd  %xmm1,%xmm0
    73c8:	66 0f 2f 05 d0 d8 00 	comisd 0xd8d0(%rip),%xmm0        # 14ca0 <l_1443.4495+0x60>
    73cf:	00 
    73d0:	76 07                	jbe    73d9 <safe_add_func_double_f_f+0x55>
    73d2:	f2 0f 10 45 f8       	movsd  -0x8(%rbp),%xmm0
    73d7:	eb 0a                	jmp    73e3 <safe_add_func_double_f_f+0x5f>
    73d9:	f2 0f 10 45 f8       	movsd  -0x8(%rbp),%xmm0
    73de:	f2 0f 58 45 f0       	addsd  -0x10(%rbp),%xmm0
    73e3:	5d                   	pop    %rbp
    73e4:	c3                   	retq   

00000000000073e5 <safe_sub_func_double_f_f>:
    73e5:	f3 0f 1e fa          	endbr64 
    73e9:	55                   	push   %rbp
    73ea:	48 89 e5             	mov    %rsp,%rbp
    73ed:	f2 0f 11 45 f8       	movsd  %xmm0,-0x8(%rbp)
    73f2:	f2 0f 11 4d f0       	movsd  %xmm1,-0x10(%rbp)
    73f7:	f2 0f 10 4d f8       	movsd  -0x8(%rbp),%xmm1
    73fc:	f2 0f 10 05 7c d8 00 	movsd  0xd87c(%rip),%xmm0        # 14c80 <l_1443.4495+0x40>
    7403:	00 
    7404:	f2 0f 59 c1          	mulsd  %xmm1,%xmm0
    7408:	f2 0f 10 55 f0       	movsd  -0x10(%rbp),%xmm2
    740d:	f2 0f 10 0d 6b d8 00 	movsd  0xd86b(%rip),%xmm1        # 14c80 <l_1443.4495+0x40>
    7414:	00 
    7415:	f2 0f 59 ca          	mulsd  %xmm2,%xmm1
    7419:	f2 0f 5c c1          	subsd  %xmm1,%xmm0
    741d:	f3 0f 7e 0d 6b d8 00 	movq   0xd86b(%rip),%xmm1        # 14c90 <l_1443.4495+0x50>
    7424:	00 
    7425:	66 0f 54 c1          	andpd  %xmm1,%xmm0
    7429:	66 0f 2f 05 6f d8 00 	comisd 0xd86f(%rip),%xmm0        # 14ca0 <l_1443.4495+0x60>
    7430:	00 
    7431:	76 07                	jbe    743a <safe_sub_func_double_f_f+0x55>
    7433:	f2 0f 10 45 f8       	movsd  -0x8(%rbp),%xmm0
    7438:	eb 0a                	jmp    7444 <safe_sub_func_double_f_f+0x5f>
    743a:	f2 0f 10 45 f8       	movsd  -0x8(%rbp),%xmm0
    743f:	f2 0f 5c 45 f0       	subsd  -0x10(%rbp),%xmm0
    7444:	5d                   	pop    %rbp
    7445:	c3                   	retq   

0000000000007446 <safe_mul_func_double_f_f>:
    7446:	f3 0f 1e fa          	endbr64 
    744a:	55                   	push   %rbp
    744b:	48 89 e5             	mov    %rsp,%rbp
    744e:	f2 0f 11 45 f8       	movsd  %xmm0,-0x8(%rbp)
    7453:	f2 0f 11 4d f0       	movsd  %xmm1,-0x10(%rbp)
    7458:	f2 0f 10 4d f8       	movsd  -0x8(%rbp),%xmm1
    745d:	f2 0f 10 05 43 d8 00 	movsd  0xd843(%rip),%xmm0        # 14ca8 <l_1443.4495+0x68>
    7464:	00 
    7465:	f2 0f 59 c8          	mulsd  %xmm0,%xmm1
    7469:	f2 0f 10 55 f0       	movsd  -0x10(%rbp),%xmm2
    746e:	f2 0f 10 05 3a d8 00 	movsd  0xd83a(%rip),%xmm0        # 14cb0 <l_1443.4495+0x70>
    7475:	00 
    7476:	f2 0f 59 c2          	mulsd  %xmm2,%xmm0
    747a:	f2 0f 59 c1          	mulsd  %xmm1,%xmm0
    747e:	f3 0f 7e 0d 0a d8 00 	movq   0xd80a(%rip),%xmm1        # 14c90 <l_1443.4495+0x50>
    7485:	00 
    7486:	66 0f 54 c1          	andpd  %xmm1,%xmm0
    748a:	66 0f 2f 05 26 d8 00 	comisd 0xd826(%rip),%xmm0        # 14cb8 <l_1443.4495+0x78>
    7491:	00 
    7492:	76 07                	jbe    749b <safe_mul_func_double_f_f+0x55>
    7494:	f2 0f 10 45 f8       	movsd  -0x8(%rbp),%xmm0
    7499:	eb 0a                	jmp    74a5 <safe_mul_func_double_f_f+0x5f>
    749b:	f2 0f 10 45 f8       	movsd  -0x8(%rbp),%xmm0
    74a0:	f2 0f 59 45 f0       	mulsd  -0x10(%rbp),%xmm0
    74a5:	5d                   	pop    %rbp
    74a6:	c3                   	retq   

00000000000074a7 <safe_div_func_double_f_f>:
    74a7:	f3 0f 1e fa          	endbr64 
    74ab:	55                   	push   %rbp
    74ac:	48 89 e5             	mov    %rsp,%rbp
    74af:	f2 0f 11 45 f8       	movsd  %xmm0,-0x8(%rbp)
    74b4:	f2 0f 11 4d f0       	movsd  %xmm1,-0x10(%rbp)
    74b9:	f2 0f 10 45 f0       	movsd  -0x10(%rbp),%xmm0
    74be:	f3 0f 7e 0d ca d7 00 	movq   0xd7ca(%rip),%xmm1        # 14c90 <l_1443.4495+0x50>
    74c5:	00 
    74c6:	66 0f 54 c8          	andpd  %xmm0,%xmm1
    74ca:	f2 0f 10 05 ee d7 00 	movsd  0xd7ee(%rip),%xmm0        # 14cc0 <l_1443.4495+0x80>
    74d1:	00 
    74d2:	66 0f 2f c1          	comisd %xmm1,%xmm0
    74d6:	0f 97 c0             	seta   %al
    74d9:	83 f0 01             	xor    $0x1,%eax
    74dc:	84 c0                	test   %al,%al
    74de:	75 5a                	jne    753a <safe_div_func_double_f_f+0x93>
    74e0:	66 0f ef c0          	pxor   %xmm0,%xmm0
    74e4:	66 0f 2e 45 f0       	ucomisd -0x10(%rbp),%xmm0
    74e9:	7a 0b                	jp     74f6 <safe_div_func_double_f_f+0x4f>
    74eb:	66 0f ef c0          	pxor   %xmm0,%xmm0
    74ef:	66 0f 2e 45 f0       	ucomisd -0x10(%rbp),%xmm0
    74f4:	74 50                	je     7546 <safe_div_func_double_f_f+0x9f>
    74f6:	f2 0f 10 4d f8       	movsd  -0x8(%rbp),%xmm1
    74fb:	f2 0f 10 05 c5 d7 00 	movsd  0xd7c5(%rip),%xmm0        # 14cc8 <l_1443.4495+0x88>
    7502:	00 
    7503:	f2 0f 59 c1          	mulsd  %xmm1,%xmm0
    7507:	f2 0f 10 55 f0       	movsd  -0x10(%rbp),%xmm2
    750c:	f2 0f 10 0d bc d7 00 	movsd  0xd7bc(%rip),%xmm1        # 14cd0 <l_1443.4495+0x90>
    7513:	00 
    7514:	f2 0f 59 ca          	mulsd  %xmm2,%xmm1
    7518:	f2 0f 5e c1          	divsd  %xmm1,%xmm0
    751c:	f3 0f 7e 0d 6c d7 00 	movq   0xd76c(%rip),%xmm1        # 14c90 <l_1443.4495+0x50>
    7523:	00 
    7524:	66 0f 54 c1          	andpd  %xmm1,%xmm0
    7528:	66 0f 2f 05 a8 d7 00 	comisd 0xd7a8(%rip),%xmm0        # 14cd8 <l_1443.4495+0x98>
    752f:	00 
    7530:	0f 97 c0             	seta   %al
    7533:	83 f0 01             	xor    $0x1,%eax
    7536:	84 c0                	test   %al,%al
    7538:	74 0c                	je     7546 <safe_div_func_double_f_f+0x9f>
    753a:	f2 0f 10 45 f8       	movsd  -0x8(%rbp),%xmm0
    753f:	f2 0f 5e 45 f0       	divsd  -0x10(%rbp),%xmm0
    7544:	eb 05                	jmp    754b <safe_div_func_double_f_f+0xa4>
    7546:	f2 0f 10 45 f8       	movsd  -0x8(%rbp),%xmm0
    754b:	5d                   	pop    %rbp
    754c:	c3                   	retq   

000000000000754d <safe_convert_func_float_to_int32_t>:
    754d:	f3 0f 1e fa          	endbr64 
    7551:	55                   	push   %rbp
    7552:	48 89 e5             	mov    %rsp,%rbp
    7555:	f3 0f 11 45 fc       	movss  %xmm0,-0x4(%rbp)
    755a:	f3 0f 10 05 7e d7 00 	movss  0xd77e(%rip),%xmm0        # 14ce0 <l_1443.4495+0xa0>
    7561:	00 
    7562:	0f 2f 45 fc          	comiss -0x4(%rbp),%xmm0
    7566:	0f 93 c0             	setae  %al
    7569:	83 f0 01             	xor    $0x1,%eax
    756c:	84 c0                	test   %al,%al
    756e:	74 21                	je     7591 <safe_convert_func_float_to_int32_t+0x44>
    7570:	f3 0f 10 45 fc       	movss  -0x4(%rbp),%xmm0
    7575:	0f 2f 05 68 d7 00 00 	comiss 0xd768(%rip),%xmm0        # 14ce4 <l_1443.4495+0xa4>
    757c:	0f 93 c0             	setae  %al
    757f:	83 f0 01             	xor    $0x1,%eax
    7582:	84 c0                	test   %al,%al
    7584:	74 0b                	je     7591 <safe_convert_func_float_to_int32_t+0x44>
    7586:	f3 0f 10 45 fc       	movss  -0x4(%rbp),%xmm0
    758b:	f3 0f 2c c0          	cvttss2si %xmm0,%eax
    758f:	eb 05                	jmp    7596 <safe_convert_func_float_to_int32_t+0x49>
    7591:	b8 ff ff ff 7f       	mov    $0x7fffffff,%eax
    7596:	5d                   	pop    %rbp
    7597:	c3                   	retq   

0000000000007598 <crc32_gentab>:
    7598:	f3 0f 1e fa          	endbr64 
    759c:	55                   	push   %rbp
    759d:	48 89 e5             	mov    %rsp,%rbp
    75a0:	c7 45 fc 20 83 b8 ed 	movl   $0xedb88320,-0x4(%rbp)
    75a7:	c7 45 f4 00 00 00 00 	movl   $0x0,-0xc(%rbp)
    75ae:	eb 51                	jmp    7601 <crc32_gentab+0x69>
    75b0:	8b 45 f4             	mov    -0xc(%rbp),%eax
    75b3:	89 45 f0             	mov    %eax,-0x10(%rbp)
    75b6:	c7 45 f8 08 00 00 00 	movl   $0x8,-0x8(%rbp)
    75bd:	eb 1e                	jmp    75dd <crc32_gentab+0x45>
    75bf:	8b 45 f0             	mov    -0x10(%rbp),%eax
    75c2:	83 e0 01             	and    $0x1,%eax
    75c5:	85 c0                	test   %eax,%eax
    75c7:	74 0d                	je     75d6 <crc32_gentab+0x3e>
    75c9:	8b 45 f0             	mov    -0x10(%rbp),%eax
    75cc:	d1 e8                	shr    %eax
    75ce:	33 45 fc             	xor    -0x4(%rbp),%eax
    75d1:	89 45 f0             	mov    %eax,-0x10(%rbp)
    75d4:	eb 03                	jmp    75d9 <crc32_gentab+0x41>
    75d6:	d1 6d f0             	shrl   -0x10(%rbp)
    75d9:	83 6d f8 01          	subl   $0x1,-0x8(%rbp)
    75dd:	83 7d f8 00          	cmpl   $0x0,-0x8(%rbp)
    75e1:	7f dc                	jg     75bf <crc32_gentab+0x27>
    75e3:	8b 45 f4             	mov    -0xc(%rbp),%eax
    75e6:	48 98                	cltq   
    75e8:	48 8d 0c 85 00 00 00 	lea    0x0(,%rax,4),%rcx
    75ef:	00 
    75f0:	48 8d 15 e9 3d 01 00 	lea    0x13de9(%rip),%rdx        # 1b3e0 <crc32_tab>
    75f7:	8b 45 f0             	mov    -0x10(%rbp),%eax
    75fa:	89 04 11             	mov    %eax,(%rcx,%rdx,1)
    75fd:	83 45 f4 01          	addl   $0x1,-0xc(%rbp)
    7601:	81 7d f4 ff 00 00 00 	cmpl   $0xff,-0xc(%rbp)
    7608:	7e a6                	jle    75b0 <crc32_gentab+0x18>
    760a:	90                   	nop
    760b:	90                   	nop
    760c:	5d                   	pop    %rbp
    760d:	c3                   	retq   

000000000000760e <crc32_byte>:
    760e:	f3 0f 1e fa          	endbr64 
    7612:	55                   	push   %rbp
    7613:	48 89 e5             	mov    %rsp,%rbp
    7616:	89 f8                	mov    %edi,%eax
    7618:	88 45 fc             	mov    %al,-0x4(%rbp)
    761b:	8b 05 ff 09 01 00    	mov    0x109ff(%rip),%eax        # 18020 <crc32_context>
    7621:	c1 e8 08             	shr    $0x8,%eax
    7624:	89 c1                	mov    %eax,%ecx
    7626:	0f b6 55 fc          	movzbl -0x4(%rbp),%edx
    762a:	8b 05 f0 09 01 00    	mov    0x109f0(%rip),%eax        # 18020 <crc32_context>
    7630:	31 d0                	xor    %edx,%eax
    7632:	0f b6 c0             	movzbl %al,%eax
    7635:	89 c0                	mov    %eax,%eax
    7637:	48 8d 14 85 00 00 00 	lea    0x0(,%rax,4),%rdx
    763e:	00 
    763f:	48 8d 05 9a 3d 01 00 	lea    0x13d9a(%rip),%rax        # 1b3e0 <crc32_tab>
    7646:	8b 04 02             	mov    (%rdx,%rax,1),%eax
    7649:	31 c8                	xor    %ecx,%eax
    764b:	89 05 cf 09 01 00    	mov    %eax,0x109cf(%rip)        # 18020 <crc32_context>
    7651:	90                   	nop
    7652:	5d                   	pop    %rbp
    7653:	c3                   	retq   

0000000000007654 <crc32_8bytes>:
    7654:	f3 0f 1e fa          	endbr64 
    7658:	55                   	push   %rbp
    7659:	48 89 e5             	mov    %rsp,%rbp
    765c:	48 83 ec 08          	sub    $0x8,%rsp
    7660:	48 89 7d f8          	mov    %rdi,-0x8(%rbp)
    7664:	48 8b 45 f8          	mov    -0x8(%rbp),%rax
    7668:	0f b6 c0             	movzbl %al,%eax
    766b:	89 c7                	mov    %eax,%edi
    766d:	e8 9c ff ff ff       	callq  760e <crc32_byte>
    7672:	48 8b 45 f8          	mov    -0x8(%rbp),%rax
    7676:	48 c1 e8 08          	shr    $0x8,%rax
    767a:	0f b6 c0             	movzbl %al,%eax
    767d:	89 c7                	mov    %eax,%edi
    767f:	e8 8a ff ff ff       	callq  760e <crc32_byte>
    7684:	48 8b 45 f8          	mov    -0x8(%rbp),%rax
    7688:	48 c1 e8 10          	shr    $0x10,%rax
    768c:	0f b6 c0             	movzbl %al,%eax
    768f:	89 c7                	mov    %eax,%edi
    7691:	e8 78 ff ff ff       	callq  760e <crc32_byte>
    7696:	48 8b 45 f8          	mov    -0x8(%rbp),%rax
    769a:	48 c1 e8 18          	shr    $0x18,%rax
    769e:	0f b6 c0             	movzbl %al,%eax
    76a1:	89 c7                	mov    %eax,%edi
    76a3:	e8 66 ff ff ff       	callq  760e <crc32_byte>
    76a8:	48 8b 45 f8          	mov    -0x8(%rbp),%rax
    76ac:	48 c1 e8 20          	shr    $0x20,%rax
    76b0:	0f b6 c0             	movzbl %al,%eax
    76b3:	89 c7                	mov    %eax,%edi
    76b5:	e8 54 ff ff ff       	callq  760e <crc32_byte>
    76ba:	48 8b 45 f8          	mov    -0x8(%rbp),%rax
    76be:	48 c1 e8 28          	shr    $0x28,%rax
    76c2:	0f b6 c0             	movzbl %al,%eax
    76c5:	89 c7                	mov    %eax,%edi
    76c7:	e8 42 ff ff ff       	callq  760e <crc32_byte>
    76cc:	48 8b 45 f8          	mov    -0x8(%rbp),%rax
    76d0:	48 c1 e8 30          	shr    $0x30,%rax
    76d4:	0f b6 c0             	movzbl %al,%eax
    76d7:	89 c7                	mov    %eax,%edi
    76d9:	e8 30 ff ff ff       	callq  760e <crc32_byte>
    76de:	48 8b 45 f8          	mov    -0x8(%rbp),%rax
    76e2:	48 c1 e8 38          	shr    $0x38,%rax
    76e6:	0f b6 c0             	movzbl %al,%eax
    76e9:	89 c7                	mov    %eax,%edi
    76eb:	e8 1e ff ff ff       	callq  760e <crc32_byte>
    76f0:	90                   	nop
    76f1:	c9                   	leaveq 
    76f2:	c3                   	retq   

00000000000076f3 <transparent_crc>:
    76f3:	f3 0f 1e fa          	endbr64 
    76f7:	55                   	push   %rbp
    76f8:	48 89 e5             	mov    %rsp,%rbp
    76fb:	48 83 ec 20          	sub    $0x20,%rsp
    76ff:	48 89 7d f8          	mov    %rdi,-0x8(%rbp)
    7703:	48 89 75 f0          	mov    %rsi,-0x10(%rbp)
    7707:	89 55 ec             	mov    %edx,-0x14(%rbp)
    770a:	48 8b 45 f8          	mov    -0x8(%rbp),%rax
    770e:	48 89 c7             	mov    %rax,%rdi
    7711:	e8 3e ff ff ff       	callq  7654 <crc32_8bytes>
    7716:	83 7d ec 00          	cmpl   $0x0,-0x14(%rbp)
    771a:	74 22                	je     773e <transparent_crc+0x4b>
    771c:	8b 05 fe 08 01 00    	mov    0x108fe(%rip),%eax        # 18020 <crc32_context>
    7722:	f7 d0                	not    %eax
    7724:	89 c2                	mov    %eax,%edx
    7726:	48 8b 45 f0          	mov    -0x10(%rbp),%rax
    772a:	48 89 c6             	mov    %rax,%rsi
    772d:	48 8d 3d fc c8 00 00 	lea    0xc8fc(%rip),%rdi        # 14030 <_IO_stdin_used+0x30>
    7734:	b8 00 00 00 00       	mov    $0x0,%eax
    7739:	e8 42 e9 ff ff       	callq  6080 <printf@plt>
    773e:	90                   	nop
    773f:	c9                   	leaveq 
    7740:	c3                   	retq   

0000000000007741 <transparent_crc_bytes>:
    7741:	f3 0f 1e fa          	endbr64 
    7745:	55                   	push   %rbp
    7746:	48 89 e5             	mov    %rsp,%rbp
    7749:	48 83 ec 30          	sub    $0x30,%rsp
    774d:	48 89 7d e8          	mov    %rdi,-0x18(%rbp)
    7751:	89 75 e4             	mov    %esi,-0x1c(%rbp)
    7754:	48 89 55 d8          	mov    %rdx,-0x28(%rbp)
    7758:	89 4d e0             	mov    %ecx,-0x20(%rbp)
    775b:	c7 45 fc 00 00 00 00 	movl   $0x0,-0x4(%rbp)
    7762:	eb 1e                	jmp    7782 <transparent_crc_bytes+0x41>
    7764:	8b 45 fc             	mov    -0x4(%rbp),%eax
    7767:	48 63 d0             	movslq %eax,%rdx
    776a:	48 8b 45 e8          	mov    -0x18(%rbp),%rax
    776e:	48 01 d0             	add    %rdx,%rax
    7771:	0f b6 00             	movzbl (%rax),%eax
    7774:	0f b6 c0             	movzbl %al,%eax
    7777:	89 c7                	mov    %eax,%edi
    7779:	e8 90 fe ff ff       	callq  760e <crc32_byte>
    777e:	83 45 fc 01          	addl   $0x1,-0x4(%rbp)
    7782:	8b 45 fc             	mov    -0x4(%rbp),%eax
    7785:	3b 45 e4             	cmp    -0x1c(%rbp),%eax
    7788:	7c da                	jl     7764 <transparent_crc_bytes+0x23>
    778a:	83 7d e0 00          	cmpl   $0x0,-0x20(%rbp)
    778e:	74 22                	je     77b2 <transparent_crc_bytes+0x71>
    7790:	8b 05 8a 08 01 00    	mov    0x1088a(%rip),%eax        # 18020 <crc32_context>
    7796:	f7 d0                	not    %eax
    7798:	89 c2                	mov    %eax,%edx
    779a:	48 8b 45 d8          	mov    -0x28(%rbp),%rax
    779e:	48 89 c6             	mov    %rax,%rsi
    77a1:	48 8d 3d 88 c8 00 00 	lea    0xc888(%rip),%rdi        # 14030 <_IO_stdin_used+0x30>
    77a8:	b8 00 00 00 00       	mov    $0x0,%eax
    77ad:	e8 ce e8 ff ff       	callq  6080 <printf@plt>
    77b2:	90                   	nop
    77b3:	c9                   	leaveq 
    77b4:	c3                   	retq   

00000000000077b5 <func_1>:
    77b5:	f3 0f 1e fa          	endbr64 
    77b9:	55                   	push   %rbp
    77ba:	48 89 e5             	mov    %rsp,%rbp
    77bd:	41 57                	push   %r15
    77bf:	41 56                	push   %r14
    77c1:	41 55                	push   %r13
    77c3:	41 54                	push   %r12
    77c5:	53                   	push   %rbx
    77c6:	48 81 ec 00 10 00 00 	sub    $0x1000,%rsp
    77cd:	48 83 0c 24 00       	orq    $0x0,(%rsp)
    77d2:	48 81 ec 00 10 00 00 	sub    $0x1000,%rsp
    77d9:	48 83 0c 24 00       	orq    $0x0,(%rsp)
    77de:	48 81 ec 98 0a 00 00 	sub    $0xa98,%rsp
    77e5:	64 48 8b 04 25 28 00 	mov    %fs:0x28,%rax
    77ec:	00 00 
    77ee:	48 89 45 c8          	mov    %rax,-0x38(%rbp)
    77f2:	31 c0                	xor    %eax,%eax
    77f4:	c7 45 b7 c3 c3 c3 c3 	movl   $0xc3c3c3c3,-0x49(%rbp)
    77fb:	66 c7 45 bb c3 c3    	movw   $0xc3c3,-0x45(%rbp)
    7801:	c6 45 bd c3          	movb   $0xc3,-0x43(%rbp)
    7805:	48 8d 45 b7          	lea    -0x49(%rbp),%rax
    7809:	48 83 c0 01          	add    $0x1,%rax
    780d:	48 89 85 68 d7 ff ff 	mov    %rax,-0x2898(%rbp)
    7814:	48 8d 05 b7 09 01 00 	lea    0x109b7(%rip),%rax        # 181d2 <g_141>
    781b:	48 89 85 70 d7 ff ff 	mov    %rax,-0x2890(%rbp)
    7822:	c7 85 30 d6 ff ff 01 	movl   $0x1,-0x29d0(%rbp)
    7829:	00 00 00 
    782c:	c7 85 b4 d5 ff ff 81 	movl   $0x8c266181,-0x2a4c(%rbp)
    7833:	61 26 8c 
    7836:	c7 85 20 d6 ff ff 40 	movl   $0x856b8940,-0x29e0(%rbp)
    783d:	89 6b 85 
    7840:	48 8d 85 10 e2 ff ff 	lea    -0x1df0(%rbp),%rax
    7847:	48 8d 15 72 19 01 00 	lea    0x11972(%rip),%rdx        # 191c0 <g_1347+0x20>
    784e:	b9 d8 00 00 00       	mov    $0xd8,%ecx
    7853:	48 89 c7             	mov    %rax,%rdi
    7856:	48 89 d6             	mov    %rdx,%rsi
    7859:	f3 48 a5             	rep movsq %ds:(%rsi),%es:(%rdi)
    785c:	48 8d 85 d0 f7 ff ff 	lea    -0x830(%rbp),%rax
    7863:	48 8d 15 16 20 01 00 	lea    0x12016(%rip),%rdx        # 19880 <g_1347+0x6e0>
    786a:	b9 fc 00 00 00       	mov    $0xfc,%ecx
    786f:	48 89 c7             	mov    %rax,%rdi
    7872:	48 89 d6             	mov    %rdx,%rsi
    7875:	f3 48 a5             	rep movsq %ds:(%rsi),%es:(%rdi)
    7878:	48 8d 05 51 0b 01 00 	lea    0x10b51(%rip),%rax        # 183d0 <g_730>
    787f:	48 89 85 d0 d6 ff ff 	mov    %rax,-0x2930(%rbp)
    7886:	48 8d 05 2b 38 01 00 	lea    0x1382b(%rip),%rax        # 1b0b8 <g_116+0x8>
    788d:	48 89 85 d8 d6 ff ff 	mov    %rax,-0x2928(%rbp)
    7894:	48 8d 85 d8 d6 ff ff 	lea    -0x2928(%rbp),%rax
    789b:	48 89 85 70 dc ff ff 	mov    %rax,-0x2390(%rbp)
    78a2:	48 8d 85 d8 d6 ff ff 	lea    -0x2928(%rbp),%rax
    78a9:	48 89 85 78 dc ff ff 	mov    %rax,-0x2388(%rbp)
    78b0:	48 8d 85 d8 d6 ff ff 	lea    -0x2928(%rbp),%rax
    78b7:	48 89 85 80 dc ff ff 	mov    %rax,-0x2380(%rbp)
    78be:	48 8d 85 d8 d6 ff ff 	lea    -0x2928(%rbp),%rax
    78c5:	48 89 85 88 dc ff ff 	mov    %rax,-0x2378(%rbp)
    78cc:	48 8d 85 d8 d6 ff ff 	lea    -0x2928(%rbp),%rax
    78d3:	48 89 85 90 dc ff ff 	mov    %rax,-0x2370(%rbp)
    78da:	48 8d 85 d8 d6 ff ff 	lea    -0x2928(%rbp),%rax
    78e1:	48 89 85 98 dc ff ff 	mov    %rax,-0x2368(%rbp)
    78e8:	48 8d 85 d8 d6 ff ff 	lea    -0x2928(%rbp),%rax
    78ef:	48 89 85 a0 dc ff ff 	mov    %rax,-0x2360(%rbp)
    78f6:	48 8d 85 d8 d6 ff ff 	lea    -0x2928(%rbp),%rax
    78fd:	48 89 85 a8 dc ff ff 	mov    %rax,-0x2358(%rbp)
    7904:	48 8d 85 d8 d6 ff ff 	lea    -0x2928(%rbp),%rax
    790b:	48 89 85 b0 dc ff ff 	mov    %rax,-0x2350(%rbp)
    7912:	48 8d 85 d8 d6 ff ff 	lea    -0x2928(%rbp),%rax
    7919:	48 89 85 b8 dc ff ff 	mov    %rax,-0x2348(%rbp)
    7920:	48 8d 85 d8 d6 ff ff 	lea    -0x2928(%rbp),%rax
    7927:	48 89 85 c0 dc ff ff 	mov    %rax,-0x2340(%rbp)
    792e:	48 8d 85 d8 d6 ff ff 	lea    -0x2928(%rbp),%rax
    7935:	48 89 85 c8 dc ff ff 	mov    %rax,-0x2338(%rbp)
    793c:	48 8d 85 d8 d6 ff ff 	lea    -0x2928(%rbp),%rax
    7943:	48 89 85 d0 dc ff ff 	mov    %rax,-0x2330(%rbp)
    794a:	48 8d 85 d8 d6 ff ff 	lea    -0x2928(%rbp),%rax
    7951:	48 89 85 d8 dc ff ff 	mov    %rax,-0x2328(%rbp)
    7958:	48 8d 85 d8 d6 ff ff 	lea    -0x2928(%rbp),%rax
    795f:	48 89 85 e0 dc ff ff 	mov    %rax,-0x2320(%rbp)
    7966:	48 8d 85 d8 d6 ff ff 	lea    -0x2928(%rbp),%rax
    796d:	48 89 85 e8 dc ff ff 	mov    %rax,-0x2318(%rbp)
    7974:	48 8d 85 d8 d6 ff ff 	lea    -0x2928(%rbp),%rax
    797b:	48 89 85 f0 dc ff ff 	mov    %rax,-0x2310(%rbp)
    7982:	48 8d 85 d8 d6 ff ff 	lea    -0x2928(%rbp),%rax
    7989:	48 89 85 f8 dc ff ff 	mov    %rax,-0x2308(%rbp)
    7990:	48 8d 85 d8 d6 ff ff 	lea    -0x2928(%rbp),%rax
    7997:	48 89 85 00 dd ff ff 	mov    %rax,-0x2300(%rbp)
    799e:	48 8d 85 d8 d6 ff ff 	lea    -0x2928(%rbp),%rax
    79a5:	48 89 85 08 dd ff ff 	mov    %rax,-0x22f8(%rbp)
    79ac:	48 8d 85 d8 d6 ff ff 	lea    -0x2928(%rbp),%rax
    79b3:	48 89 85 10 dd ff ff 	mov    %rax,-0x22f0(%rbp)
    79ba:	48 8d 85 d8 d6 ff ff 	lea    -0x2928(%rbp),%rax
    79c1:	48 89 85 18 dd ff ff 	mov    %rax,-0x22e8(%rbp)
    79c8:	48 8d 85 d8 d6 ff ff 	lea    -0x2928(%rbp),%rax
    79cf:	48 89 85 20 dd ff ff 	mov    %rax,-0x22e0(%rbp)
    79d6:	48 8d 85 d8 d6 ff ff 	lea    -0x2928(%rbp),%rax
    79dd:	48 89 85 28 dd ff ff 	mov    %rax,-0x22d8(%rbp)
    79e4:	48 8d 85 d8 d6 ff ff 	lea    -0x2928(%rbp),%rax
    79eb:	48 89 85 30 dd ff ff 	mov    %rax,-0x22d0(%rbp)
    79f2:	48 8d 85 d8 d6 ff ff 	lea    -0x2928(%rbp),%rax
    79f9:	48 89 85 38 dd ff ff 	mov    %rax,-0x22c8(%rbp)
    7a00:	48 8d 85 d8 d6 ff ff 	lea    -0x2928(%rbp),%rax
    7a07:	48 89 85 40 dd ff ff 	mov    %rax,-0x22c0(%rbp)
    7a0e:	48 8d 85 d8 d6 ff ff 	lea    -0x2928(%rbp),%rax
    7a15:	48 89 85 48 dd ff ff 	mov    %rax,-0x22b8(%rbp)
    7a1c:	48 8d 85 d8 d6 ff ff 	lea    -0x2928(%rbp),%rax
    7a23:	48 89 85 50 dd ff ff 	mov    %rax,-0x22b0(%rbp)
    7a2a:	48 8d 85 d8 d6 ff ff 	lea    -0x2928(%rbp),%rax
    7a31:	48 89 85 58 dd ff ff 	mov    %rax,-0x22a8(%rbp)
    7a38:	48 8d 85 d8 d6 ff ff 	lea    -0x2928(%rbp),%rax
    7a3f:	48 89 85 60 dd ff ff 	mov    %rax,-0x22a0(%rbp)
    7a46:	48 8d 85 d8 d6 ff ff 	lea    -0x2928(%rbp),%rax
    7a4d:	48 89 85 68 dd ff ff 	mov    %rax,-0x2298(%rbp)
    7a54:	48 8d 85 d8 d6 ff ff 	lea    -0x2928(%rbp),%rax
    7a5b:	48 89 85 70 dd ff ff 	mov    %rax,-0x2290(%rbp)
    7a62:	48 8d 85 d8 d6 ff ff 	lea    -0x2928(%rbp),%rax
    7a69:	48 89 85 78 dd ff ff 	mov    %rax,-0x2288(%rbp)
    7a70:	48 8d 85 d8 d6 ff ff 	lea    -0x2928(%rbp),%rax
    7a77:	48 89 85 80 dd ff ff 	mov    %rax,-0x2280(%rbp)
    7a7e:	48 8d 85 d8 d6 ff ff 	lea    -0x2928(%rbp),%rax
    7a85:	48 89 85 88 dd ff ff 	mov    %rax,-0x2278(%rbp)
    7a8c:	48 8d 85 70 dc ff ff 	lea    -0x2390(%rbp),%rax
    7a93:	48 05 00 01 00 00    	add    $0x100,%rax
    7a99:	48 89 85 d0 e8 ff ff 	mov    %rax,-0x1730(%rbp)
    7aa0:	48 8d 85 70 dc ff ff 	lea    -0x2390(%rbp),%rax
    7aa7:	48 05 a8 00 00 00    	add    $0xa8,%rax
    7aad:	48 89 85 d8 e8 ff ff 	mov    %rax,-0x1728(%rbp)
    7ab4:	48 8d 85 70 dc ff ff 	lea    -0x2390(%rbp),%rax
    7abb:	48 05 a8 00 00 00    	add    $0xa8,%rax
    7ac1:	48 89 85 e0 e8 ff ff 	mov    %rax,-0x1720(%rbp)
    7ac8:	48 8d 85 70 dc ff ff 	lea    -0x2390(%rbp),%rax
    7acf:	48 05 00 01 00 00    	add    $0x100,%rax
    7ad5:	48 89 85 e8 e8 ff ff 	mov    %rax,-0x1718(%rbp)
    7adc:	48 8d 85 70 dc ff ff 	lea    -0x2390(%rbp),%rax
    7ae3:	48 83 c0 68          	add    $0x68,%rax
    7ae7:	48 89 85 f0 e8 ff ff 	mov    %rax,-0x1710(%rbp)
    7aee:	48 c7 85 f8 e8 ff ff 	movq   $0x0,-0x1708(%rbp)
    7af5:	00 00 00 00 
    7af9:	48 8d 85 70 dc ff ff 	lea    -0x2390(%rbp),%rax
    7b00:	48 05 00 01 00 00    	add    $0x100,%rax
    7b06:	48 89 85 00 e9 ff ff 	mov    %rax,-0x1700(%rbp)
    7b0d:	48 c7 85 08 e9 ff ff 	movq   $0x0,-0x16f8(%rbp)
    7b14:	00 00 00 00 
    7b18:	48 8d 85 70 dc ff ff 	lea    -0x2390(%rbp),%rax
    7b1f:	48 83 c0 10          	add    $0x10,%rax
    7b23:	48 89 85 10 e9 ff ff 	mov    %rax,-0x16f0(%rbp)
    7b2a:	48 8d 85 70 dc ff ff 	lea    -0x2390(%rbp),%rax
    7b31:	48 05 98 00 00 00    	add    $0x98,%rax
    7b37:	48 89 85 18 e9 ff ff 	mov    %rax,-0x16e8(%rbp)
    7b3e:	48 8d 85 70 dc ff ff 	lea    -0x2390(%rbp),%rax
    7b45:	48 83 c0 58          	add    $0x58,%rax
    7b49:	48 89 85 20 e9 ff ff 	mov    %rax,-0x16e0(%rbp)
    7b50:	48 c7 85 28 e9 ff ff 	movq   $0x0,-0x16d8(%rbp)
    7b57:	00 00 00 00 
    7b5b:	48 8d 85 70 dc ff ff 	lea    -0x2390(%rbp),%rax
    7b62:	48 83 c0 58          	add    $0x58,%rax
    7b66:	48 89 85 30 e9 ff ff 	mov    %rax,-0x16d0(%rbp)
    7b6d:	48 8d 85 70 dc ff ff 	lea    -0x2390(%rbp),%rax
    7b74:	48 05 a8 00 00 00    	add    $0xa8,%rax
    7b7a:	48 89 85 38 e9 ff ff 	mov    %rax,-0x16c8(%rbp)
    7b81:	48 c7 85 40 e9 ff ff 	movq   $0x0,-0x16c0(%rbp)
    7b88:	00 00 00 00 
    7b8c:	48 8d 85 70 dc ff ff 	lea    -0x2390(%rbp),%rax
    7b93:	48 05 00 01 00 00    	add    $0x100,%rax
    7b99:	48 89 85 48 e9 ff ff 	mov    %rax,-0x16b8(%rbp)
    7ba0:	48 8d 85 70 dc ff ff 	lea    -0x2390(%rbp),%rax
    7ba7:	48 05 a8 00 00 00    	add    $0xa8,%rax
    7bad:	48 89 85 50 e9 ff ff 	mov    %rax,-0x16b0(%rbp)
    7bb4:	48 8d 85 70 dc ff ff 	lea    -0x2390(%rbp),%rax
    7bbb:	48 05 b8 00 00 00    	add    $0xb8,%rax
    7bc1:	48 89 85 58 e9 ff ff 	mov    %rax,-0x16a8(%rbp)
    7bc8:	48 8d 85 70 dc ff ff 	lea    -0x2390(%rbp),%rax
    7bcf:	48 89 85 60 e9 ff ff 	mov    %rax,-0x16a0(%rbp)
    7bd6:	48 8d 85 70 dc ff ff 	lea    -0x2390(%rbp),%rax
    7bdd:	48 05 a8 00 00 00    	add    $0xa8,%rax
    7be3:	48 89 85 68 e9 ff ff 	mov    %rax,-0x1698(%rbp)
    7bea:	48 8d 85 70 dc ff ff 	lea    -0x2390(%rbp),%rax
    7bf1:	48 05 a8 00 00 00    	add    $0xa8,%rax
    7bf7:	48 89 85 70 e9 ff ff 	mov    %rax,-0x1690(%rbp)
    7bfe:	48 8d 85 70 dc ff ff 	lea    -0x2390(%rbp),%rax
    7c05:	48 05 a8 00 00 00    	add    $0xa8,%rax
    7c0b:	48 89 85 78 e9 ff ff 	mov    %rax,-0x1688(%rbp)
    7c12:	48 c7 85 80 e9 ff ff 	movq   $0x0,-0x1680(%rbp)
    7c19:	00 00 00 00 
    7c1d:	48 c7 85 88 e9 ff ff 	movq   $0x0,-0x1678(%rbp)
    7c24:	00 00 00 00 
    7c28:	48 8d 85 70 dc ff ff 	lea    -0x2390(%rbp),%rax
    7c2f:	48 05 a8 00 00 00    	add    $0xa8,%rax
    7c35:	48 89 85 90 e9 ff ff 	mov    %rax,-0x1670(%rbp)
    7c3c:	48 8d 85 70 dc ff ff 	lea    -0x2390(%rbp),%rax
    7c43:	48 83 c0 68          	add    $0x68,%rax
    7c47:	48 89 85 98 e9 ff ff 	mov    %rax,-0x1668(%rbp)
    7c4e:	48 c7 85 a0 e9 ff ff 	movq   $0x0,-0x1660(%rbp)
    7c55:	00 00 00 00 
    7c59:	48 c7 85 a8 e9 ff ff 	movq   $0x0,-0x1658(%rbp)
    7c60:	00 00 00 00 
    7c64:	48 8d 85 70 dc ff ff 	lea    -0x2390(%rbp),%rax
    7c6b:	48 05 a8 00 00 00    	add    $0xa8,%rax
    7c71:	48 89 85 b0 e9 ff ff 	mov    %rax,-0x1650(%rbp)
    7c78:	48 c7 85 b8 e9 ff ff 	movq   $0x0,-0x1648(%rbp)
    7c7f:	00 00 00 00 
    7c83:	48 8d 85 70 dc ff ff 	lea    -0x2390(%rbp),%rax
    7c8a:	48 05 a8 00 00 00    	add    $0xa8,%rax
    7c90:	48 89 85 c0 e9 ff ff 	mov    %rax,-0x1640(%rbp)
    7c97:	48 8d 85 70 dc ff ff 	lea    -0x2390(%rbp),%rax
    7c9e:	48 05 00 01 00 00    	add    $0x100,%rax
    7ca4:	48 89 85 c8 e9 ff ff 	mov    %rax,-0x1638(%rbp)
    7cab:	48 8d 85 70 dc ff ff 	lea    -0x2390(%rbp),%rax
    7cb2:	48 83 c0 68          	add    $0x68,%rax
    7cb6:	48 89 85 d0 e9 ff ff 	mov    %rax,-0x1630(%rbp)
    7cbd:	48 8d 85 70 dc ff ff 	lea    -0x2390(%rbp),%rax
    7cc4:	48 05 c0 00 00 00    	add    $0xc0,%rax
    7cca:	48 89 85 d8 e9 ff ff 	mov    %rax,-0x1628(%rbp)
    7cd1:	48 8d 85 70 dc ff ff 	lea    -0x2390(%rbp),%rax
    7cd8:	48 83 c0 58          	add    $0x58,%rax
    7cdc:	48 89 85 e0 e9 ff ff 	mov    %rax,-0x1620(%rbp)
    7ce3:	48 c7 85 e8 e9 ff ff 	movq   $0x0,-0x1618(%rbp)
    7cea:	00 00 00 00 
    7cee:	48 8d 85 70 dc ff ff 	lea    -0x2390(%rbp),%rax
    7cf5:	48 05 a8 00 00 00    	add    $0xa8,%rax
    7cfb:	48 89 85 f0 e9 ff ff 	mov    %rax,-0x1610(%rbp)
    7d02:	48 c7 85 f8 e9 ff ff 	movq   $0x0,-0x1608(%rbp)
    7d09:	00 00 00 00 
    7d0d:	48 8d 85 70 dc ff ff 	lea    -0x2390(%rbp),%rax
    7d14:	48 83 c0 58          	add    $0x58,%rax
    7d18:	48 89 85 00 ea ff ff 	mov    %rax,-0x1600(%rbp)
    7d1f:	48 8d 85 70 dc ff ff 	lea    -0x2390(%rbp),%rax
    7d26:	48 05 98 00 00 00    	add    $0x98,%rax
    7d2c:	48 89 85 08 ea ff ff 	mov    %rax,-0x15f8(%rbp)
    7d33:	48 8d 85 70 dc ff ff 	lea    -0x2390(%rbp),%rax
    7d3a:	48 05 a8 00 00 00    	add    $0xa8,%rax
    7d40:	48 89 85 10 ea ff ff 	mov    %rax,-0x15f0(%rbp)
    7d47:	48 8d 85 70 dc ff ff 	lea    -0x2390(%rbp),%rax
    7d4e:	48 05 c0 00 00 00    	add    $0xc0,%rax
    7d54:	48 89 85 18 ea ff ff 	mov    %rax,-0x15e8(%rbp)
    7d5b:	48 8d 85 70 dc ff ff 	lea    -0x2390(%rbp),%rax
    7d62:	48 05 a8 00 00 00    	add    $0xa8,%rax
    7d68:	48 89 85 20 ea ff ff 	mov    %rax,-0x15e0(%rbp)
    7d6f:	48 8d 85 70 dc ff ff 	lea    -0x2390(%rbp),%rax
    7d76:	48 83 c0 68          	add    $0x68,%rax
    7d7a:	48 89 85 28 ea ff ff 	mov    %rax,-0x15d8(%rbp)
    7d81:	48 8d 85 70 dc ff ff 	lea    -0x2390(%rbp),%rax
    7d88:	48 83 c0 58          	add    $0x58,%rax
    7d8c:	48 89 85 30 ea ff ff 	mov    %rax,-0x15d0(%rbp)
    7d93:	48 8d 85 70 dc ff ff 	lea    -0x2390(%rbp),%rax
    7d9a:	48 83 c0 68          	add    $0x68,%rax
    7d9e:	48 89 85 38 ea ff ff 	mov    %rax,-0x15c8(%rbp)
    7da5:	48 8d 85 70 dc ff ff 	lea    -0x2390(%rbp),%rax
    7dac:	48 05 10 01 00 00    	add    $0x110,%rax
    7db2:	48 89 85 40 ea ff ff 	mov    %rax,-0x15c0(%rbp)
    7db9:	48 8d 85 70 dc ff ff 	lea    -0x2390(%rbp),%rax
    7dc0:	48 05 c8 00 00 00    	add    $0xc8,%rax
    7dc6:	48 89 85 48 ea ff ff 	mov    %rax,-0x15b8(%rbp)
    7dcd:	48 8d 85 70 dc ff ff 	lea    -0x2390(%rbp),%rax
    7dd4:	48 05 c0 00 00 00    	add    $0xc0,%rax
    7dda:	48 89 85 50 ea ff ff 	mov    %rax,-0x15b0(%rbp)
    7de1:	48 8d 85 70 dc ff ff 	lea    -0x2390(%rbp),%rax
    7de8:	48 89 85 58 ea ff ff 	mov    %rax,-0x15a8(%rbp)
    7def:	48 8d 85 70 dc ff ff 	lea    -0x2390(%rbp),%rax
    7df6:	48 05 a8 00 00 00    	add    $0xa8,%rax
    7dfc:	48 89 85 60 ea ff ff 	mov    %rax,-0x15a0(%rbp)
    7e03:	48 c7 85 68 ea ff ff 	movq   $0x0,-0x1598(%rbp)
    7e0a:	00 00 00 00 
    7e0e:	48 8d 85 70 dc ff ff 	lea    -0x2390(%rbp),%rax
    7e15:	48 05 18 01 00 00    	add    $0x118,%rax
    7e1b:	48 89 85 70 ea ff ff 	mov    %rax,-0x1590(%rbp)
    7e22:	48 8d 85 70 dc ff ff 	lea    -0x2390(%rbp),%rax
    7e29:	48 83 c0 68          	add    $0x68,%rax
    7e2d:	48 89 85 78 ea ff ff 	mov    %rax,-0x1588(%rbp)
    7e34:	48 8d 85 70 dc ff ff 	lea    -0x2390(%rbp),%rax
    7e3b:	48 05 c0 00 00 00    	add    $0xc0,%rax
    7e41:	48 89 85 80 ea ff ff 	mov    %rax,-0x1580(%rbp)
    7e48:	48 c7 85 88 ea ff ff 	movq   $0x0,-0x1578(%rbp)
    7e4f:	00 00 00 00 
    7e53:	48 8d 85 70 dc ff ff 	lea    -0x2390(%rbp),%rax
    7e5a:	48 05 98 00 00 00    	add    $0x98,%rax
    7e60:	48 89 85 90 ea ff ff 	mov    %rax,-0x1570(%rbp)
    7e67:	48 8d 85 70 dc ff ff 	lea    -0x2390(%rbp),%rax
    7e6e:	48 05 98 00 00 00    	add    $0x98,%rax
    7e74:	48 89 85 98 ea ff ff 	mov    %rax,-0x1568(%rbp)
    7e7b:	48 c7 85 a0 ea ff ff 	movq   $0x0,-0x1560(%rbp)
    7e82:	00 00 00 00 
    7e86:	48 c7 85 a8 ea ff ff 	movq   $0x0,-0x1558(%rbp)
    7e8d:	00 00 00 00 
    7e91:	48 8d 85 70 dc ff ff 	lea    -0x2390(%rbp),%rax
    7e98:	48 05 a8 00 00 00    	add    $0xa8,%rax
    7e9e:	48 89 85 b0 ea ff ff 	mov    %rax,-0x1550(%rbp)
    7ea5:	48 c7 85 b8 ea ff ff 	movq   $0x0,-0x1548(%rbp)
    7eac:	00 00 00 00 
    7eb0:	48 8d 85 70 dc ff ff 	lea    -0x2390(%rbp),%rax
    7eb7:	48 05 10 01 00 00    	add    $0x110,%rax
    7ebd:	48 89 85 c0 ea ff ff 	mov    %rax,-0x1540(%rbp)
    7ec4:	48 8d 85 70 dc ff ff 	lea    -0x2390(%rbp),%rax
    7ecb:	48 05 c0 00 00 00    	add    $0xc0,%rax
    7ed1:	48 89 85 c8 ea ff ff 	mov    %rax,-0x1538(%rbp)
    7ed8:	48 c7 85 d0 ea ff ff 	movq   $0x0,-0x1530(%rbp)
    7edf:	00 00 00 00 
    7ee3:	48 8d 85 70 dc ff ff 	lea    -0x2390(%rbp),%rax
    7eea:	48 05 b8 00 00 00    	add    $0xb8,%rax
    7ef0:	48 89 85 d8 ea ff ff 	mov    %rax,-0x1528(%rbp)
    7ef7:	48 c7 85 e0 ea ff ff 	movq   $0x0,-0x1520(%rbp)
    7efe:	00 00 00 00 
    7f02:	48 c7 85 e8 ea ff ff 	movq   $0x0,-0x1518(%rbp)
    7f09:	00 00 00 00 
    7f0d:	48 8d 85 70 dc ff ff 	lea    -0x2390(%rbp),%rax
    7f14:	48 05 18 01 00 00    	add    $0x118,%rax
    7f1a:	48 89 85 f0 ea ff ff 	mov    %rax,-0x1510(%rbp)
    7f21:	48 8d 85 70 dc ff ff 	lea    -0x2390(%rbp),%rax
    7f28:	48 05 a8 00 00 00    	add    $0xa8,%rax
    7f2e:	48 89 85 f8 ea ff ff 	mov    %rax,-0x1508(%rbp)
    7f35:	48 c7 85 00 eb ff ff 	movq   $0x0,-0x1500(%rbp)
    7f3c:	00 00 00 00 
    7f40:	48 8d 85 70 dc ff ff 	lea    -0x2390(%rbp),%rax
    7f47:	48 83 c0 68          	add    $0x68,%rax
    7f4b:	48 89 85 08 eb ff ff 	mov    %rax,-0x14f8(%rbp)
    7f52:	48 8d 85 70 dc ff ff 	lea    -0x2390(%rbp),%rax
    7f59:	48 05 c8 00 00 00    	add    $0xc8,%rax
    7f5f:	48 89 85 10 eb ff ff 	mov    %rax,-0x14f0(%rbp)
    7f66:	48 8d 85 70 dc ff ff 	lea    -0x2390(%rbp),%rax
    7f6d:	48 05 c0 00 00 00    	add    $0xc0,%rax
    7f73:	48 89 85 18 eb ff ff 	mov    %rax,-0x14e8(%rbp)
    7f7a:	48 8d 85 70 dc ff ff 	lea    -0x2390(%rbp),%rax
    7f81:	48 05 98 00 00 00    	add    $0x98,%rax
    7f87:	48 89 85 20 eb ff ff 	mov    %rax,-0x14e0(%rbp)
    7f8e:	48 8d 85 70 dc ff ff 	lea    -0x2390(%rbp),%rax
    7f95:	48 83 c0 58          	add    $0x58,%rax
    7f99:	48 89 85 28 eb ff ff 	mov    %rax,-0x14d8(%rbp)
    7fa0:	48 c7 85 30 eb ff ff 	movq   $0x0,-0x14d0(%rbp)
    7fa7:	00 00 00 00 
    7fab:	48 8d 85 70 dc ff ff 	lea    -0x2390(%rbp),%rax
    7fb2:	48 05 a8 00 00 00    	add    $0xa8,%rax
    7fb8:	48 89 85 38 eb ff ff 	mov    %rax,-0x14c8(%rbp)
    7fbf:	48 c7 85 40 eb ff ff 	movq   $0x0,-0x14c0(%rbp)
    7fc6:	00 00 00 00 
    7fca:	48 c7 85 48 eb ff ff 	movq   $0x0,-0x14b8(%rbp)
    7fd1:	00 00 00 00 
    7fd5:	48 c7 85 50 eb ff ff 	movq   $0x0,-0x14b0(%rbp)
    7fdc:	00 00 00 00 
    7fe0:	48 c7 85 58 eb ff ff 	movq   $0x0,-0x14a8(%rbp)
    7fe7:	00 00 00 00 
    7feb:	48 8d 85 70 dc ff ff 	lea    -0x2390(%rbp),%rax
    7ff2:	48 05 b8 00 00 00    	add    $0xb8,%rax
    7ff8:	48 89 85 60 eb ff ff 	mov    %rax,-0x14a0(%rbp)
    7fff:	48 8d 85 70 dc ff ff 	lea    -0x2390(%rbp),%rax
    8006:	48 83 c0 68          	add    $0x68,%rax
    800a:	48 89 85 68 eb ff ff 	mov    %rax,-0x1498(%rbp)
    8011:	48 8d 85 70 dc ff ff 	lea    -0x2390(%rbp),%rax
    8018:	48 05 a8 00 00 00    	add    $0xa8,%rax
    801e:	48 89 85 70 eb ff ff 	mov    %rax,-0x1490(%rbp)
    8025:	48 c7 85 78 eb ff ff 	movq   $0x0,-0x1488(%rbp)
    802c:	00 00 00 00 
    8030:	48 8d 85 70 dc ff ff 	lea    -0x2390(%rbp),%rax
    8037:	48 05 a8 00 00 00    	add    $0xa8,%rax
    803d:	48 89 85 80 eb ff ff 	mov    %rax,-0x1480(%rbp)
    8044:	48 8d 85 70 dc ff ff 	lea    -0x2390(%rbp),%rax
    804b:	48 05 b8 00 00 00    	add    $0xb8,%rax
    8051:	48 89 85 88 eb ff ff 	mov    %rax,-0x1478(%rbp)
    8058:	48 c7 85 90 eb ff ff 	movq   $0x0,-0x1470(%rbp)
    805f:	00 00 00 00 
    8063:	48 8d 85 70 dc ff ff 	lea    -0x2390(%rbp),%rax
    806a:	48 05 b8 00 00 00    	add    $0xb8,%rax
    8070:	48 89 85 98 eb ff ff 	mov    %rax,-0x1468(%rbp)
    8077:	48 8d 85 70 dc ff ff 	lea    -0x2390(%rbp),%rax
    807e:	48 05 a8 00 00 00    	add    $0xa8,%rax
    8084:	48 89 85 a0 eb ff ff 	mov    %rax,-0x1460(%rbp)
    808b:	48 8d 85 70 dc ff ff 	lea    -0x2390(%rbp),%rax
    8092:	48 05 a8 00 00 00    	add    $0xa8,%rax
    8098:	48 89 85 a8 eb ff ff 	mov    %rax,-0x1458(%rbp)
    809f:	48 8d 85 70 dc ff ff 	lea    -0x2390(%rbp),%rax
    80a6:	48 05 a8 00 00 00    	add    $0xa8,%rax
    80ac:	48 89 85 b0 eb ff ff 	mov    %rax,-0x1450(%rbp)
    80b3:	48 8d 85 70 dc ff ff 	lea    -0x2390(%rbp),%rax
    80ba:	48 05 10 01 00 00    	add    $0x110,%rax
    80c0:	48 89 85 b8 eb ff ff 	mov    %rax,-0x1448(%rbp)
    80c7:	48 c7 85 c0 eb ff ff 	movq   $0x0,-0x1440(%rbp)
    80ce:	00 00 00 00 
    80d2:	48 8d 85 70 dc ff ff 	lea    -0x2390(%rbp),%rax
    80d9:	48 05 18 01 00 00    	add    $0x118,%rax
    80df:	48 89 85 c8 eb ff ff 	mov    %rax,-0x1438(%rbp)
    80e6:	48 c7 85 d0 eb ff ff 	movq   $0x0,-0x1430(%rbp)
    80ed:	00 00 00 00 
    80f1:	48 8d 85 70 dc ff ff 	lea    -0x2390(%rbp),%rax
    80f8:	48 05 c8 00 00 00    	add    $0xc8,%rax
    80fe:	48 89 85 d8 eb ff ff 	mov    %rax,-0x1428(%rbp)
    8105:	48 c7 85 e0 eb ff ff 	movq   $0x0,-0x1420(%rbp)
    810c:	00 00 00 00 
    8110:	48 8d 85 70 dc ff ff 	lea    -0x2390(%rbp),%rax
    8117:	48 05 10 01 00 00    	add    $0x110,%rax
    811d:	48 89 85 e8 eb ff ff 	mov    %rax,-0x1418(%rbp)
    8124:	48 8d 85 70 dc ff ff 	lea    -0x2390(%rbp),%rax
    812b:	48 05 10 01 00 00    	add    $0x110,%rax
    8131:	48 89 85 f0 eb ff ff 	mov    %rax,-0x1410(%rbp)
    8138:	48 8d 85 70 dc ff ff 	lea    -0x2390(%rbp),%rax
    813f:	48 05 c0 00 00 00    	add    $0xc0,%rax
    8145:	48 89 85 f8 eb ff ff 	mov    %rax,-0x1408(%rbp)
    814c:	48 c7 85 00 ec ff ff 	movq   $0x0,-0x1400(%rbp)
    8153:	00 00 00 00 
    8157:	48 c7 85 08 ec ff ff 	movq   $0x0,-0x13f8(%rbp)
    815e:	00 00 00 00 
    8162:	48 8d 85 70 dc ff ff 	lea    -0x2390(%rbp),%rax
    8169:	48 83 c0 70          	add    $0x70,%rax
    816d:	48 89 85 10 ec ff ff 	mov    %rax,-0x13f0(%rbp)
    8174:	48 8d 85 70 dc ff ff 	lea    -0x2390(%rbp),%rax
    817b:	48 83 c0 58          	add    $0x58,%rax
    817f:	48 89 85 18 ec ff ff 	mov    %rax,-0x13e8(%rbp)
    8186:	48 c7 85 20 ec ff ff 	movq   $0x0,-0x13e0(%rbp)
    818d:	00 00 00 00 
    8191:	48 8d 85 70 dc ff ff 	lea    -0x2390(%rbp),%rax
    8198:	48 05 10 01 00 00    	add    $0x110,%rax
    819e:	48 89 85 28 ec ff ff 	mov    %rax,-0x13d8(%rbp)
    81a5:	48 c7 85 30 ec ff ff 	movq   $0x0,-0x13d0(%rbp)
    81ac:	00 00 00 00 
    81b0:	48 8d 85 70 dc ff ff 	lea    -0x2390(%rbp),%rax
    81b7:	48 05 c0 00 00 00    	add    $0xc0,%rax
    81bd:	48 89 85 38 ec ff ff 	mov    %rax,-0x13c8(%rbp)
    81c4:	48 8d 85 70 dc ff ff 	lea    -0x2390(%rbp),%rax
    81cb:	48 05 a8 00 00 00    	add    $0xa8,%rax
    81d1:	48 89 85 40 ec ff ff 	mov    %rax,-0x13c0(%rbp)
    81d8:	48 8d 85 70 dc ff ff 	lea    -0x2390(%rbp),%rax
    81df:	48 05 a8 00 00 00    	add    $0xa8,%rax
    81e5:	48 89 85 48 ec ff ff 	mov    %rax,-0x13b8(%rbp)
    81ec:	48 8d 85 70 dc ff ff 	lea    -0x2390(%rbp),%rax
    81f3:	48 05 98 00 00 00    	add    $0x98,%rax
    81f9:	48 89 85 50 ec ff ff 	mov    %rax,-0x13b0(%rbp)
    8200:	48 8d 85 70 dc ff ff 	lea    -0x2390(%rbp),%rax
    8207:	48 05 a8 00 00 00    	add    $0xa8,%rax
    820d:	48 89 85 58 ec ff ff 	mov    %rax,-0x13a8(%rbp)
    8214:	48 8d 85 70 dc ff ff 	lea    -0x2390(%rbp),%rax
    821b:	48 05 10 01 00 00    	add    $0x110,%rax
    8221:	48 89 85 60 ec ff ff 	mov    %rax,-0x13a0(%rbp)
    8228:	48 8d 85 70 dc ff ff 	lea    -0x2390(%rbp),%rax
    822f:	48 05 a8 00 00 00    	add    $0xa8,%rax
    8235:	48 89 85 68 ec ff ff 	mov    %rax,-0x1398(%rbp)
    823c:	48 8d 85 70 dc ff ff 	lea    -0x2390(%rbp),%rax
    8243:	48 05 a8 00 00 00    	add    $0xa8,%rax
    8249:	48 89 85 70 ec ff ff 	mov    %rax,-0x1390(%rbp)
    8250:	48 8d 85 70 dc ff ff 	lea    -0x2390(%rbp),%rax
    8257:	48 05 18 01 00 00    	add    $0x118,%rax
    825d:	48 89 85 78 ec ff ff 	mov    %rax,-0x1388(%rbp)
    8264:	48 8d 85 70 dc ff ff 	lea    -0x2390(%rbp),%rax
    826b:	48 05 c0 00 00 00    	add    $0xc0,%rax
    8271:	48 89 85 80 ec ff ff 	mov    %rax,-0x1380(%rbp)
    8278:	48 8d 85 70 dc ff ff 	lea    -0x2390(%rbp),%rax
    827f:	48 83 c0 68          	add    $0x68,%rax
    8283:	48 89 85 88 ec ff ff 	mov    %rax,-0x1378(%rbp)
    828a:	48 8d 85 70 dc ff ff 	lea    -0x2390(%rbp),%rax
    8291:	48 05 a8 00 00 00    	add    $0xa8,%rax
    8297:	48 89 85 90 ec ff ff 	mov    %rax,-0x1370(%rbp)
    829e:	48 c7 85 98 ec ff ff 	movq   $0x0,-0x1368(%rbp)
    82a5:	00 00 00 00 
    82a9:	48 8d 85 70 dc ff ff 	lea    -0x2390(%rbp),%rax
    82b0:	48 05 a8 00 00 00    	add    $0xa8,%rax
    82b6:	48 89 85 a0 ec ff ff 	mov    %rax,-0x1360(%rbp)
    82bd:	48 c7 85 a8 ec ff ff 	movq   $0x0,-0x1358(%rbp)
    82c4:	00 00 00 00 
    82c8:	48 8d 85 70 dc ff ff 	lea    -0x2390(%rbp),%rax
    82cf:	48 05 a8 00 00 00    	add    $0xa8,%rax
    82d5:	48 89 85 b0 ec ff ff 	mov    %rax,-0x1350(%rbp)
    82dc:	48 8d 85 70 dc ff ff 	lea    -0x2390(%rbp),%rax
    82e3:	48 05 a8 00 00 00    	add    $0xa8,%rax
    82e9:	48 89 85 b8 ec ff ff 	mov    %rax,-0x1348(%rbp)
    82f0:	48 c7 85 c0 ec ff ff 	movq   $0x0,-0x1340(%rbp)
    82f7:	00 00 00 00 
    82fb:	48 8d 85 70 dc ff ff 	lea    -0x2390(%rbp),%rax
    8302:	48 05 c8 00 00 00    	add    $0xc8,%rax
    8308:	48 89 85 c8 ec ff ff 	mov    %rax,-0x1338(%rbp)
    830f:	48 8d 85 70 dc ff ff 	lea    -0x2390(%rbp),%rax
    8316:	48 83 c0 70          	add    $0x70,%rax
    831a:	48 89 85 d0 ec ff ff 	mov    %rax,-0x1330(%rbp)
    8321:	48 8d 85 70 dc ff ff 	lea    -0x2390(%rbp),%rax
    8328:	48 05 a8 00 00 00    	add    $0xa8,%rax
    832e:	48 89 85 d8 ec ff ff 	mov    %rax,-0x1328(%rbp)
    8335:	48 8d 85 70 dc ff ff 	lea    -0x2390(%rbp),%rax
    833c:	48 83 c0 58          	add    $0x58,%rax
    8340:	48 89 85 e0 ec ff ff 	mov    %rax,-0x1320(%rbp)
    8347:	48 8d 85 70 dc ff ff 	lea    -0x2390(%rbp),%rax
    834e:	48 83 c0 68          	add    $0x68,%rax
    8352:	48 89 85 e8 ec ff ff 	mov    %rax,-0x1318(%rbp)
    8359:	48 8d 85 70 dc ff ff 	lea    -0x2390(%rbp),%rax
    8360:	48 05 a8 00 00 00    	add    $0xa8,%rax
    8366:	48 89 85 f0 ec ff ff 	mov    %rax,-0x1310(%rbp)
    836d:	48 c7 85 f8 ec ff ff 	movq   $0x0,-0x1308(%rbp)
    8374:	00 00 00 00 
    8378:	48 8d 85 70 dc ff ff 	lea    -0x2390(%rbp),%rax
    837f:	48 83 c0 68          	add    $0x68,%rax
    8383:	48 89 85 00 ed ff ff 	mov    %rax,-0x1300(%rbp)
    838a:	48 8d 85 70 dc ff ff 	lea    -0x2390(%rbp),%rax
    8391:	48 05 10 01 00 00    	add    $0x110,%rax
    8397:	48 89 85 08 ed ff ff 	mov    %rax,-0x12f8(%rbp)
    839e:	48 c7 85 10 ed ff ff 	movq   $0x0,-0x12f0(%rbp)
    83a5:	00 00 00 00 
    83a9:	48 8d 85 70 dc ff ff 	lea    -0x2390(%rbp),%rax
    83b0:	48 05 90 00 00 00    	add    $0x90,%rax
    83b6:	48 89 85 18 ed ff ff 	mov    %rax,-0x12e8(%rbp)
    83bd:	48 c7 85 20 ed ff ff 	movq   $0x0,-0x12e0(%rbp)
    83c4:	00 00 00 00 
    83c8:	48 8d 85 70 dc ff ff 	lea    -0x2390(%rbp),%rax
    83cf:	48 05 a8 00 00 00    	add    $0xa8,%rax
    83d5:	48 89 85 28 ed ff ff 	mov    %rax,-0x12d8(%rbp)
    83dc:	48 8d 85 70 dc ff ff 	lea    -0x2390(%rbp),%rax
    83e3:	48 05 18 01 00 00    	add    $0x118,%rax
    83e9:	48 89 85 30 ed ff ff 	mov    %rax,-0x12d0(%rbp)
    83f0:	48 c7 85 38 ed ff ff 	movq   $0x0,-0x12c8(%rbp)
    83f7:	00 00 00 00 
    83fb:	48 8d 85 70 dc ff ff 	lea    -0x2390(%rbp),%rax
    8402:	48 05 b8 00 00 00    	add    $0xb8,%rax
    8408:	48 89 85 40 ed ff ff 	mov    %rax,-0x12c0(%rbp)
    840f:	48 8d 85 70 dc ff ff 	lea    -0x2390(%rbp),%rax
    8416:	48 05 a8 00 00 00    	add    $0xa8,%rax
    841c:	48 89 85 48 ed ff ff 	mov    %rax,-0x12b8(%rbp)
    8423:	48 8d 85 70 dc ff ff 	lea    -0x2390(%rbp),%rax
    842a:	48 05 a8 00 00 00    	add    $0xa8,%rax
    8430:	48 89 85 50 ed ff ff 	mov    %rax,-0x12b0(%rbp)
    8437:	48 8d 85 70 dc ff ff 	lea    -0x2390(%rbp),%rax
    843e:	48 05 a8 00 00 00    	add    $0xa8,%rax
    8444:	48 89 85 58 ed ff ff 	mov    %rax,-0x12a8(%rbp)
    844b:	48 8d 85 70 dc ff ff 	lea    -0x2390(%rbp),%rax
    8452:	48 05 98 00 00 00    	add    $0x98,%rax
    8458:	48 89 85 60 ed ff ff 	mov    %rax,-0x12a0(%rbp)
    845f:	48 8d 85 70 dc ff ff 	lea    -0x2390(%rbp),%rax
    8466:	48 05 a8 00 00 00    	add    $0xa8,%rax
    846c:	48 89 85 68 ed ff ff 	mov    %rax,-0x1298(%rbp)
    8473:	48 8d 85 70 dc ff ff 	lea    -0x2390(%rbp),%rax
    847a:	48 05 10 01 00 00    	add    $0x110,%rax
    8480:	48 89 85 70 ed ff ff 	mov    %rax,-0x1290(%rbp)
    8487:	48 8d 85 70 dc ff ff 	lea    -0x2390(%rbp),%rax
    848e:	48 83 c0 68          	add    $0x68,%rax
    8492:	48 89 85 78 ed ff ff 	mov    %rax,-0x1288(%rbp)
    8499:	48 c7 85 80 ed ff ff 	movq   $0x0,-0x1280(%rbp)
    84a0:	00 00 00 00 
    84a4:	48 c7 85 88 ed ff ff 	movq   $0x0,-0x1278(%rbp)
    84ab:	00 00 00 00 
    84af:	48 8d 85 70 dc ff ff 	lea    -0x2390(%rbp),%rax
    84b6:	48 83 c0 68          	add    $0x68,%rax
    84ba:	48 89 85 90 ed ff ff 	mov    %rax,-0x1270(%rbp)
    84c1:	48 8d 85 70 dc ff ff 	lea    -0x2390(%rbp),%rax
    84c8:	48 05 10 01 00 00    	add    $0x110,%rax
    84ce:	48 89 85 98 ed ff ff 	mov    %rax,-0x1268(%rbp)
    84d5:	48 8d 85 70 dc ff ff 	lea    -0x2390(%rbp),%rax
    84dc:	48 05 10 01 00 00    	add    $0x110,%rax
    84e2:	48 89 85 a0 ed ff ff 	mov    %rax,-0x1260(%rbp)
    84e9:	48 c7 85 a8 ed ff ff 	movq   $0x0,-0x1258(%rbp)
    84f0:	00 00 00 00 
    84f4:	48 8d 85 70 dc ff ff 	lea    -0x2390(%rbp),%rax
    84fb:	48 83 c0 10          	add    $0x10,%rax
    84ff:	48 89 85 b0 ed ff ff 	mov    %rax,-0x1250(%rbp)
    8506:	48 c7 85 b8 ed ff ff 	movq   $0x0,-0x1248(%rbp)
    850d:	00 00 00 00 
    8511:	48 8d 85 70 dc ff ff 	lea    -0x2390(%rbp),%rax
    8518:	48 05 a8 00 00 00    	add    $0xa8,%rax
    851e:	48 89 85 c0 ed ff ff 	mov    %rax,-0x1240(%rbp)
    8525:	48 8d 85 70 dc ff ff 	lea    -0x2390(%rbp),%rax
    852c:	48 05 c0 00 00 00    	add    $0xc0,%rax
    8532:	48 89 85 c8 ed ff ff 	mov    %rax,-0x1238(%rbp)
    8539:	48 8d 85 70 dc ff ff 	lea    -0x2390(%rbp),%rax
    8540:	48 83 c0 58          	add    $0x58,%rax
    8544:	48 89 85 d0 ed ff ff 	mov    %rax,-0x1230(%rbp)
    854b:	48 8d 85 70 dc ff ff 	lea    -0x2390(%rbp),%rax
    8552:	48 83 c0 68          	add    $0x68,%rax
    8556:	48 89 85 d8 ed ff ff 	mov    %rax,-0x1228(%rbp)
    855d:	48 8d 85 70 dc ff ff 	lea    -0x2390(%rbp),%rax
    8564:	48 05 18 01 00 00    	add    $0x118,%rax
    856a:	48 89 85 e0 ed ff ff 	mov    %rax,-0x1220(%rbp)
    8571:	48 c7 85 e8 ed ff ff 	movq   $0x0,-0x1218(%rbp)
    8578:	00 00 00 00 
    857c:	48 8d 85 70 dc ff ff 	lea    -0x2390(%rbp),%rax
    8583:	48 83 c0 70          	add    $0x70,%rax
    8587:	48 89 85 f0 ed ff ff 	mov    %rax,-0x1210(%rbp)
    858e:	48 c7 85 f8 ed ff ff 	movq   $0x0,-0x1208(%rbp)
    8595:	00 00 00 00 
    8599:	48 8d 85 70 dc ff ff 	lea    -0x2390(%rbp),%rax
    85a0:	48 05 a8 00 00 00    	add    $0xa8,%rax
    85a6:	48 89 85 00 ee ff ff 	mov    %rax,-0x1200(%rbp)
    85ad:	48 8d 85 70 dc ff ff 	lea    -0x2390(%rbp),%rax
    85b4:	48 05 c0 00 00 00    	add    $0xc0,%rax
    85ba:	48 89 85 08 ee ff ff 	mov    %rax,-0x11f8(%rbp)
    85c1:	48 c7 85 10 ee ff ff 	movq   $0x0,-0x11f0(%rbp)
    85c8:	00 00 00 00 
    85cc:	48 8d 85 70 dc ff ff 	lea    -0x2390(%rbp),%rax
    85d3:	48 05 10 01 00 00    	add    $0x110,%rax
    85d9:	48 89 85 18 ee ff ff 	mov    %rax,-0x11e8(%rbp)
    85e0:	48 8d 85 70 dc ff ff 	lea    -0x2390(%rbp),%rax
    85e7:	48 05 b8 00 00 00    	add    $0xb8,%rax
    85ed:	48 89 85 20 ee ff ff 	mov    %rax,-0x11e0(%rbp)
    85f4:	48 c7 85 28 ee ff ff 	movq   $0x0,-0x11d8(%rbp)
    85fb:	00 00 00 00 
    85ff:	48 8d 85 70 dc ff ff 	lea    -0x2390(%rbp),%rax
    8606:	48 05 18 01 00 00    	add    $0x118,%rax
    860c:	48 89 85 30 ee ff ff 	mov    %rax,-0x11d0(%rbp)
    8613:	48 8d 85 70 dc ff ff 	lea    -0x2390(%rbp),%rax
    861a:	48 83 c0 70          	add    $0x70,%rax
    861e:	48 89 85 38 ee ff ff 	mov    %rax,-0x11c8(%rbp)
    8625:	48 c7 85 40 ee ff ff 	movq   $0x0,-0x11c0(%rbp)
    862c:	00 00 00 00 
    8630:	48 8d 85 70 dc ff ff 	lea    -0x2390(%rbp),%rax
    8637:	48 05 a8 00 00 00    	add    $0xa8,%rax
    863d:	48 89 85 48 ee ff ff 	mov    %rax,-0x11b8(%rbp)
    8644:	48 8d 85 70 dc ff ff 	lea    -0x2390(%rbp),%rax
    864b:	48 05 18 01 00 00    	add    $0x118,%rax
    8651:	48 89 85 50 ee ff ff 	mov    %rax,-0x11b0(%rbp)
    8658:	48 c7 85 58 ee ff ff 	movq   $0x0,-0x11a8(%rbp)
    865f:	00 00 00 00 
    8663:	48 c7 85 60 ee ff ff 	movq   $0x0,-0x11a0(%rbp)
    866a:	00 00 00 00 
    866e:	48 8d 85 70 dc ff ff 	lea    -0x2390(%rbp),%rax
    8675:	48 05 b8 00 00 00    	add    $0xb8,%rax
    867b:	48 89 85 68 ee ff ff 	mov    %rax,-0x1198(%rbp)
    8682:	48 c7 85 70 ee ff ff 	movq   $0x0,-0x1190(%rbp)
    8689:	00 00 00 00 
    868d:	48 c7 85 78 ee ff ff 	movq   $0x0,-0x1188(%rbp)
    8694:	00 00 00 00 
    8698:	48 8d 85 70 dc ff ff 	lea    -0x2390(%rbp),%rax
    869f:	48 83 c0 68          	add    $0x68,%rax
    86a3:	48 89 85 80 ee ff ff 	mov    %rax,-0x1180(%rbp)
    86aa:	48 8d 85 70 dc ff ff 	lea    -0x2390(%rbp),%rax
    86b1:	48 05 c0 00 00 00    	add    $0xc0,%rax
    86b7:	48 89 85 88 ee ff ff 	mov    %rax,-0x1178(%rbp)
    86be:	48 8d 85 70 dc ff ff 	lea    -0x2390(%rbp),%rax
    86c5:	48 05 a8 00 00 00    	add    $0xa8,%rax
    86cb:	48 89 85 90 ee ff ff 	mov    %rax,-0x1170(%rbp)
    86d2:	48 8d 85 70 dc ff ff 	lea    -0x2390(%rbp),%rax
    86d9:	48 05 c8 00 00 00    	add    $0xc8,%rax
    86df:	48 89 85 98 ee ff ff 	mov    %rax,-0x1168(%rbp)
    86e6:	48 c7 85 a0 ee ff ff 	movq   $0x0,-0x1160(%rbp)
    86ed:	00 00 00 00 
    86f1:	48 8d 85 70 dc ff ff 	lea    -0x2390(%rbp),%rax
    86f8:	48 05 a8 00 00 00    	add    $0xa8,%rax
    86fe:	48 89 85 a8 ee ff ff 	mov    %rax,-0x1158(%rbp)
    8705:	48 8d 85 70 dc ff ff 	lea    -0x2390(%rbp),%rax
    870c:	48 05 a8 00 00 00    	add    $0xa8,%rax
    8712:	48 89 85 b0 ee ff ff 	mov    %rax,-0x1150(%rbp)
    8719:	48 c7 85 b8 ee ff ff 	movq   $0x0,-0x1148(%rbp)
    8720:	00 00 00 00 
    8724:	48 8d 85 70 dc ff ff 	lea    -0x2390(%rbp),%rax
    872b:	48 05 10 01 00 00    	add    $0x110,%rax
    8731:	48 89 85 c0 ee ff ff 	mov    %rax,-0x1140(%rbp)
    8738:	48 8d 85 70 dc ff ff 	lea    -0x2390(%rbp),%rax
    873f:	48 05 18 01 00 00    	add    $0x118,%rax
    8745:	48 89 85 c8 ee ff ff 	mov    %rax,-0x1138(%rbp)
    874c:	48 8d 85 70 dc ff ff 	lea    -0x2390(%rbp),%rax
    8753:	48 05 b8 00 00 00    	add    $0xb8,%rax
    8759:	48 89 85 d0 ee ff ff 	mov    %rax,-0x1130(%rbp)
    8760:	48 c7 85 d8 ee ff ff 	movq   $0x0,-0x1128(%rbp)
    8767:	00 00 00 00 
    876b:	48 8d 85 70 dc ff ff 	lea    -0x2390(%rbp),%rax
    8772:	48 05 98 00 00 00    	add    $0x98,%rax
    8778:	48 89 85 e0 ee ff ff 	mov    %rax,-0x1120(%rbp)
    877f:	48 c7 85 e8 ee ff ff 	movq   $0x0,-0x1118(%rbp)
    8786:	00 00 00 00 
    878a:	48 c7 85 f0 ee ff ff 	movq   $0x0,-0x1110(%rbp)
    8791:	00 00 00 00 
    8795:	48 8d 85 70 dc ff ff 	lea    -0x2390(%rbp),%rax
    879c:	48 05 90 00 00 00    	add    $0x90,%rax
    87a2:	48 89 85 f8 ee ff ff 	mov    %rax,-0x1108(%rbp)
    87a9:	48 c7 85 00 ef ff ff 	movq   $0x0,-0x1100(%rbp)
    87b0:	00 00 00 00 
    87b4:	48 8d 85 70 dc ff ff 	lea    -0x2390(%rbp),%rax
    87bb:	48 05 a8 00 00 00    	add    $0xa8,%rax
    87c1:	48 89 85 08 ef ff ff 	mov    %rax,-0x10f8(%rbp)
    87c8:	48 8d 85 70 dc ff ff 	lea    -0x2390(%rbp),%rax
    87cf:	48 05 98 00 00 00    	add    $0x98,%rax
    87d5:	48 89 85 10 ef ff ff 	mov    %rax,-0x10f0(%rbp)
    87dc:	48 8d 85 70 dc ff ff 	lea    -0x2390(%rbp),%rax
    87e3:	48 05 a8 00 00 00    	add    $0xa8,%rax
    87e9:	48 89 85 18 ef ff ff 	mov    %rax,-0x10e8(%rbp)
    87f0:	48 8d 85 70 dc ff ff 	lea    -0x2390(%rbp),%rax
    87f7:	48 05 a8 00 00 00    	add    $0xa8,%rax
    87fd:	48 89 85 20 ef ff ff 	mov    %rax,-0x10e0(%rbp)
    8804:	48 c7 85 28 ef ff ff 	movq   $0x0,-0x10d8(%rbp)
    880b:	00 00 00 00 
    880f:	48 c7 85 30 ef ff ff 	movq   $0x0,-0x10d0(%rbp)
    8816:	00 00 00 00 
    881a:	48 c7 85 38 ef ff ff 	movq   $0x0,-0x10c8(%rbp)
    8821:	00 00 00 00 
    8825:	48 8d 85 70 dc ff ff 	lea    -0x2390(%rbp),%rax
    882c:	48 83 c0 68          	add    $0x68,%rax
    8830:	48 89 85 40 ef ff ff 	mov    %rax,-0x10c0(%rbp)
    8837:	48 8d 85 70 dc ff ff 	lea    -0x2390(%rbp),%rax
    883e:	48 05 c8 00 00 00    	add    $0xc8,%rax
    8844:	48 89 85 48 ef ff ff 	mov    %rax,-0x10b8(%rbp)
    884b:	48 8d 85 70 dc ff ff 	lea    -0x2390(%rbp),%rax
    8852:	48 05 10 01 00 00    	add    $0x110,%rax
    8858:	48 89 85 50 ef ff ff 	mov    %rax,-0x10b0(%rbp)
    885f:	48 c7 85 58 ef ff ff 	movq   $0x0,-0x10a8(%rbp)
    8866:	00 00 00 00 
    886a:	48 8d 85 70 dc ff ff 	lea    -0x2390(%rbp),%rax
    8871:	48 05 10 01 00 00    	add    $0x110,%rax
    8877:	48 89 85 60 ef ff ff 	mov    %rax,-0x10a0(%rbp)
    887e:	48 8d 85 70 dc ff ff 	lea    -0x2390(%rbp),%rax
    8885:	48 83 c0 10          	add    $0x10,%rax
    8889:	48 89 85 68 ef ff ff 	mov    %rax,-0x1098(%rbp)
    8890:	48 8d 85 70 dc ff ff 	lea    -0x2390(%rbp),%rax
    8897:	48 05 a8 00 00 00    	add    $0xa8,%rax
    889d:	48 89 85 70 ef ff ff 	mov    %rax,-0x1090(%rbp)
    88a4:	48 c7 85 78 ef ff ff 	movq   $0x0,-0x1088(%rbp)
    88ab:	00 00 00 00 
    88af:	48 8d 85 70 dc ff ff 	lea    -0x2390(%rbp),%rax
    88b6:	48 05 c0 00 00 00    	add    $0xc0,%rax
    88bc:	48 89 85 80 ef ff ff 	mov    %rax,-0x1080(%rbp)
    88c3:	48 8d 85 70 dc ff ff 	lea    -0x2390(%rbp),%rax
    88ca:	48 05 c8 00 00 00    	add    $0xc8,%rax
    88d0:	48 89 85 88 ef ff ff 	mov    %rax,-0x1078(%rbp)
    88d7:	48 c7 85 90 ef ff ff 	movq   $0x0,-0x1070(%rbp)
    88de:	00 00 00 00 
    88e2:	48 8d 85 70 dc ff ff 	lea    -0x2390(%rbp),%rax
    88e9:	48 05 18 01 00 00    	add    $0x118,%rax
    88ef:	48 89 85 98 ef ff ff 	mov    %rax,-0x1068(%rbp)
    88f6:	48 8d 85 70 dc ff ff 	lea    -0x2390(%rbp),%rax
    88fd:	48 83 c0 68          	add    $0x68,%rax
    8901:	48 89 85 a0 ef ff ff 	mov    %rax,-0x1060(%rbp)
    8908:	48 8d 85 70 dc ff ff 	lea    -0x2390(%rbp),%rax
    890f:	48 05 c0 00 00 00    	add    $0xc0,%rax
    8915:	48 89 85 a8 ef ff ff 	mov    %rax,-0x1058(%rbp)
    891c:	48 c7 85 b0 ef ff ff 	movq   $0x0,-0x1050(%rbp)
    8923:	00 00 00 00 
    8927:	48 8d 85 70 dc ff ff 	lea    -0x2390(%rbp),%rax
    892e:	48 05 98 00 00 00    	add    $0x98,%rax
    8934:	48 89 85 b8 ef ff ff 	mov    %rax,-0x1048(%rbp)
    893b:	48 8d 85 70 dc ff ff 	lea    -0x2390(%rbp),%rax
    8942:	48 05 98 00 00 00    	add    $0x98,%rax
    8948:	48 89 85 c0 ef ff ff 	mov    %rax,-0x1040(%rbp)
    894f:	48 c7 85 c8 ef ff ff 	movq   $0x0,-0x1038(%rbp)
    8956:	00 00 00 00 
    895a:	48 c7 85 d0 ef ff ff 	movq   $0x0,-0x1030(%rbp)
    8961:	00 00 00 00 
    8965:	48 8d 85 70 dc ff ff 	lea    -0x2390(%rbp),%rax
    896c:	48 05 a8 00 00 00    	add    $0xa8,%rax
    8972:	48 89 85 d8 ef ff ff 	mov    %rax,-0x1028(%rbp)
    8979:	48 c7 85 e0 ef ff ff 	movq   $0x0,-0x1020(%rbp)
    8980:	00 00 00 00 
    8984:	48 8d 85 70 dc ff ff 	lea    -0x2390(%rbp),%rax
    898b:	48 05 10 01 00 00    	add    $0x110,%rax
    8991:	48 89 85 e8 ef ff ff 	mov    %rax,-0x1018(%rbp)
    8998:	48 8d 85 70 dc ff ff 	lea    -0x2390(%rbp),%rax
    899f:	48 05 c0 00 00 00    	add    $0xc0,%rax
    89a5:	48 89 85 f0 ef ff ff 	mov    %rax,-0x1010(%rbp)
    89ac:	48 c7 85 f8 ef ff ff 	movq   $0x0,-0x1008(%rbp)
    89b3:	00 00 00 00 
    89b7:	48 8d 85 70 dc ff ff 	lea    -0x2390(%rbp),%rax
    89be:	48 05 b8 00 00 00    	add    $0xb8,%rax
    89c4:	48 89 85 00 f0 ff ff 	mov    %rax,-0x1000(%rbp)
    89cb:	48 c7 85 08 f0 ff ff 	movq   $0x0,-0xff8(%rbp)
    89d2:	00 00 00 00 
    89d6:	48 c7 85 10 f0 ff ff 	movq   $0x0,-0xff0(%rbp)
    89dd:	00 00 00 00 
    89e1:	48 8d 85 70 dc ff ff 	lea    -0x2390(%rbp),%rax
    89e8:	48 05 18 01 00 00    	add    $0x118,%rax
    89ee:	48 89 85 18 f0 ff ff 	mov    %rax,-0xfe8(%rbp)
    89f5:	48 8d 85 70 dc ff ff 	lea    -0x2390(%rbp),%rax
    89fc:	48 05 a8 00 00 00    	add    $0xa8,%rax
    8a02:	48 89 85 20 f0 ff ff 	mov    %rax,-0xfe0(%rbp)
    8a09:	48 c7 85 28 f0 ff ff 	movq   $0x0,-0xfd8(%rbp)
    8a10:	00 00 00 00 
    8a14:	48 8d 85 70 dc ff ff 	lea    -0x2390(%rbp),%rax
    8a1b:	48 83 c0 68          	add    $0x68,%rax
    8a1f:	48 89 85 30 f0 ff ff 	mov    %rax,-0xfd0(%rbp)
    8a26:	48 8d 85 70 dc ff ff 	lea    -0x2390(%rbp),%rax
    8a2d:	48 05 c8 00 00 00    	add    $0xc8,%rax
    8a33:	48 89 85 38 f0 ff ff 	mov    %rax,-0xfc8(%rbp)
    8a3a:	48 8d 85 70 dc ff ff 	lea    -0x2390(%rbp),%rax
    8a41:	48 05 c0 00 00 00    	add    $0xc0,%rax
    8a47:	48 89 85 40 f0 ff ff 	mov    %rax,-0xfc0(%rbp)
    8a4e:	48 8d 85 70 dc ff ff 	lea    -0x2390(%rbp),%rax
    8a55:	48 05 98 00 00 00    	add    $0x98,%rax
    8a5b:	48 89 85 48 f0 ff ff 	mov    %rax,-0xfb8(%rbp)
    8a62:	c7 85 b8 d5 ff ff 00 	movl   $0x0,-0x2a48(%rbp)
    8a69:	00 00 00 
    8a6c:	c7 85 bc d5 ff ff fd 	movl   $0xfffffffd,-0x2a44(%rbp)
    8a73:	ff ff ff 
    8a76:	c7 85 34 d6 ff ff 1f 	movl   $0xe08dc1f,-0x29cc(%rbp)
    8a7d:	dc 08 0e 
    8a80:	c7 85 c0 d5 ff ff fb 	movl   $0xfffffffb,-0x2a40(%rbp)
    8a87:	ff ff ff 
    8a8a:	c6 85 7b d5 ff ff 72 	movb   $0x72,-0x2a85(%rbp)
    8a91:	48 8d 85 70 d9 ff ff 	lea    -0x2690(%rbp),%rax
    8a98:	48 83 c0 08          	add    $0x8,%rax
    8a9c:	48 89 85 e0 d6 ff ff 	mov    %rax,-0x2920(%rbp)
    8aa3:	48 8d 85 e0 d6 ff ff 	lea    -0x2920(%rbp),%rax
    8aaa:	48 89 85 78 d7 ff ff 	mov    %rax,-0x2888(%rbp)
    8ab1:	c7 85 c4 d5 ff ff f7 	movl   $0xfffffff7,-0x2a3c(%rbp)
    8ab8:	ff ff ff 
    8abb:	c7 85 00 da ff ff d7 	movl   $0x98da7fd7,-0x2600(%rbp)
    8ac2:	7f da 98 
    8ac5:	c7 85 04 da ff ff d7 	movl   $0x98da7fd7,-0x25fc(%rbp)
    8acc:	7f da 98 
    8acf:	c7 85 08 da ff ff d7 	movl   $0x98da7fd7,-0x25f8(%rbp)
    8ad6:	7f da 98 
    8ad9:	c7 85 0c da ff ff d7 	movl   $0x98da7fd7,-0x25f4(%rbp)
    8ae0:	7f da 98 
    8ae3:	c7 85 10 da ff ff d7 	movl   $0x98da7fd7,-0x25f0(%rbp)
    8aea:	7f da 98 
    8aed:	c7 85 14 da ff ff d7 	movl   $0x98da7fd7,-0x25ec(%rbp)
    8af4:	7f da 98 
    8af7:	c7 85 18 da ff ff d7 	movl   $0x98da7fd7,-0x25e8(%rbp)
    8afe:	7f da 98 
    8b01:	c7 85 1c da ff ff d7 	movl   $0x98da7fd7,-0x25e4(%rbp)
    8b08:	7f da 98 
    8b0b:	c7 85 20 da ff ff d7 	movl   $0x98da7fd7,-0x25e0(%rbp)
    8b12:	7f da 98 
    8b15:	c7 85 24 da ff ff d7 	movl   $0x98da7fd7,-0x25dc(%rbp)
    8b1c:	7f da 98 
    8b1f:	48 8d 05 92 25 01 00 	lea    0x12592(%rip),%rax        # 1b0b8 <g_116+0x8>
    8b26:	48 89 85 e8 d6 ff ff 	mov    %rax,-0x2918(%rbp)
    8b2d:	48 8d 85 e8 d6 ff ff 	lea    -0x2918(%rbp),%rax
    8b34:	48 89 85 f0 d6 ff ff 	mov    %rax,-0x2910(%rbp)
    8b3b:	48 8d 85 f0 d6 ff ff 	lea    -0x2910(%rbp),%rax
    8b42:	48 89 85 80 d7 ff ff 	mov    %rax,-0x2880(%rbp)
    8b49:	c7 85 38 d6 ff ff ff 	movl   $0xffffffff,-0x29c8(%rbp)
    8b50:	ff ff ff 
    8b53:	c7 85 24 d6 ff ff 35 	movl   $0x6477935,-0x29dc(%rbp)
    8b5a:	79 47 06 
    8b5d:	c7 85 80 d9 ff ff ff 	movl   $0xffffffff,-0x2680(%rbp)
    8b64:	ff ff ff 
    8b67:	c7 85 84 d9 ff ff ff 	movl   $0xffffffff,-0x267c(%rbp)
    8b6e:	ff ff ff 
    8b71:	c7 85 88 d9 ff ff ff 	movl   $0xffffffff,-0x2678(%rbp)
    8b78:	ff ff ff 
    8b7b:	c7 85 8c d9 ff ff ff 	movl   $0xffffffff,-0x2674(%rbp)
    8b82:	ff ff ff 
    8b85:	c7 85 90 d9 ff ff ff 	movl   $0xffffffff,-0x2670(%rbp)
    8b8c:	ff ff ff 
    8b8f:	c7 85 94 d9 ff ff ff 	movl   $0xffffffff,-0x266c(%rbp)
    8b96:	ff ff ff 
    8b99:	48 c7 85 f8 d6 ff ff 	movq   $0xfffffffffffffffb,-0x2908(%rbp)
    8ba0:	fb ff ff ff 
    8ba4:	66 c7 85 8a d5 ff ff 	movw   $0x3da5,-0x2a76(%rbp)
    8bab:	a5 3d 
    8bad:	c7 85 3c d6 ff ff 0d 	movl   $0x6bc0b60d,-0x29c4(%rbp)
    8bb4:	b6 c0 6b 
    8bb7:	c7 85 40 d6 ff ff d7 	movl   $0xf3600ad7,-0x29c0(%rbp)
    8bbe:	0a 60 f3 
    8bc1:	48 8d 05 00 f7 00 00 	lea    0xf700(%rip),%rax        # 182c8 <g_496>
    8bc8:	48 89 85 88 d7 ff ff 	mov    %rax,-0x2878(%rbp)
    8bcf:	66 c7 85 88 d5 ff ff 	movw   $0x5a27,-0x2a78(%rbp)
    8bd6:	27 5a 
    8bd8:	48 b8 75 51 1c da c5 	movabs $0xbb5438c5da1c5175,%rax
    8bdf:	38 54 bb 
    8be2:	48 89 85 60 d7 ff ff 	mov    %rax,-0x28a0(%rbp)
    8be9:	48 8d 85 00 da ff ff 	lea    -0x2600(%rbp),%rax
    8bf0:	48 83 c0 20          	add    $0x20,%rax
    8bf4:	48 89 85 90 d7 ff ff 	mov    %rax,-0x2870(%rbp)
    8bfb:	c7 85 c8 d5 ff ff b6 	movl   $0xa0328ab6,-0x2a38(%rbp)
    8c02:	8a 32 a0 
    8c05:	48 b8 ae da a6 9c 32 	movabs $0x30f4c7329ca6daae,%rax
    8c0c:	c7 f4 30 
    8c0f:	48 89 85 98 d7 ff ff 	mov    %rax,-0x2868(%rbp)
    8c16:	48 8d 85 30 da ff ff 	lea    -0x25d0(%rbp),%rax
    8c1d:	48 83 c0 20          	add    $0x20,%rax
    8c21:	48 89 85 00 d7 ff ff 	mov    %rax,-0x2900(%rbp)
    8c28:	48 8d 85 00 d7 ff ff 	lea    -0x2900(%rbp),%rax
    8c2f:	48 89 85 b0 da ff ff 	mov    %rax,-0x2550(%rbp)
    8c36:	48 8d 85 00 d7 ff ff 	lea    -0x2900(%rbp),%rax
    8c3d:	48 89 85 b8 da ff ff 	mov    %rax,-0x2548(%rbp)
    8c44:	48 8d 85 00 d7 ff ff 	lea    -0x2900(%rbp),%rax
    8c4b:	48 89 85 c0 da ff ff 	mov    %rax,-0x2540(%rbp)
    8c52:	48 8d 85 00 d7 ff ff 	lea    -0x2900(%rbp),%rax
    8c59:	48 89 85 c8 da ff ff 	mov    %rax,-0x2538(%rbp)
    8c60:	48 8d 85 00 d7 ff ff 	lea    -0x2900(%rbp),%rax
    8c67:	48 89 85 d0 da ff ff 	mov    %rax,-0x2530(%rbp)
    8c6e:	48 8d 85 00 d7 ff ff 	lea    -0x2900(%rbp),%rax
    8c75:	48 89 85 d8 da ff ff 	mov    %rax,-0x2528(%rbp)
    8c7c:	48 8d 85 00 d7 ff ff 	lea    -0x2900(%rbp),%rax
    8c83:	48 89 85 e0 da ff ff 	mov    %rax,-0x2520(%rbp)
    8c8a:	48 8d 85 00 d7 ff ff 	lea    -0x2900(%rbp),%rax
    8c91:	48 89 85 e8 da ff ff 	mov    %rax,-0x2518(%rbp)
    8c98:	48 8d 85 00 d7 ff ff 	lea    -0x2900(%rbp),%rax
    8c9f:	48 89 85 f0 da ff ff 	mov    %rax,-0x2510(%rbp)
    8ca6:	48 8d 85 00 d7 ff ff 	lea    -0x2900(%rbp),%rax
    8cad:	48 89 85 f8 da ff ff 	mov    %rax,-0x2508(%rbp)
    8cb4:	c7 85 44 d6 ff ff 01 	movl   $0x1,-0x29bc(%rbp)
    8cbb:	00 00 00 
    8cbe:	48 8d 85 b4 d5 ff ff 	lea    -0x2a4c(%rbp),%rax
    8cc5:	48 89 85 a0 d7 ff ff 	mov    %rax,-0x2860(%rbp)
    8ccc:	c7 85 18 d6 ff ff 00 	movl   $0x0,-0x29e8(%rbp)
    8cd3:	00 00 00 
    8cd6:	eb 1e                	jmp    8cf6 <func_1+0x1541>
    8cd8:	8b 85 18 d6 ff ff    	mov    -0x29e8(%rbp),%eax
    8cde:	48 98                	cltq   
    8ce0:	48 8d 15 49 24 01 00 	lea    0x12449(%rip),%rdx        # 1b130 <g_469+0x30>
    8ce7:	48 89 94 c5 60 da ff 	mov    %rdx,-0x25a0(%rbp,%rax,8)
    8cee:	ff 
    8cef:	83 85 18 d6 ff ff 01 	addl   $0x1,-0x29e8(%rbp)
    8cf6:	83 bd 18 d6 ff ff 09 	cmpl   $0x9,-0x29e8(%rbp)
    8cfd:	7e d9                	jle    8cd8 <func_1+0x1523>
    8cff:	c7 85 18 d6 ff ff 00 	movl   $0x0,-0x29e8(%rbp)
    8d06:	00 00 00 
    8d09:	eb 1b                	jmp    8d26 <func_1+0x1571>
    8d0b:	8b 85 18 d6 ff ff    	mov    -0x29e8(%rbp),%eax
    8d11:	48 98                	cltq   
    8d13:	48 c7 84 c5 70 d9 ff 	movq   $0x0,-0x2690(%rbp,%rax,8)
    8d1a:	ff 00 00 00 00 
    8d1f:	83 85 18 d6 ff ff 01 	addl   $0x1,-0x29e8(%rbp)
    8d26:	83 bd 18 d6 ff ff 01 	cmpl   $0x1,-0x29e8(%rbp)
    8d2d:	7e dc                	jle    8d0b <func_1+0x1556>
    8d2f:	c7 85 18 d6 ff ff 00 	movl   $0x0,-0x29e8(%rbp)
    8d36:	00 00 00 
    8d39:	eb 1a                	jmp    8d55 <func_1+0x15a0>
    8d3b:	8b 85 18 d6 ff ff    	mov    -0x29e8(%rbp),%eax
    8d41:	48 98                	cltq   
    8d43:	c7 84 85 64 d9 ff ff 	movl   $0x8,-0x269c(%rbp,%rax,4)
    8d4a:	08 00 00 00 
    8d4e:	83 85 18 d6 ff ff 01 	addl   $0x1,-0x29e8(%rbp)
    8d55:	83 bd 18 d6 ff ff 02 	cmpl   $0x2,-0x29e8(%rbp)
    8d5c:	7e dd                	jle    8d3b <func_1+0x1586>
    8d5e:	c7 85 18 d6 ff ff 00 	movl   $0x0,-0x29e8(%rbp)
    8d65:	00 00 00 
    8d68:	eb 19                	jmp    8d83 <func_1+0x15ce>
    8d6a:	8b 85 18 d6 ff ff    	mov    -0x29e8(%rbp),%eax
    8d70:	48 98                	cltq   
    8d72:	66 c7 84 45 52 d9 ff 	movw   $0x2,-0x26ae(%rbp,%rax,2)
    8d79:	ff 02 00 
    8d7c:	83 85 18 d6 ff ff 01 	addl   $0x1,-0x29e8(%rbp)
    8d83:	83 bd 18 d6 ff ff 00 	cmpl   $0x0,-0x29e8(%rbp)
    8d8a:	7e de                	jle    8d6a <func_1+0x15b5>
    8d8c:	c7 85 18 d6 ff ff 00 	movl   $0x0,-0x29e8(%rbp)
    8d93:	00 00 00 
    8d96:	eb 50                	jmp    8de8 <func_1+0x1633>
    8d98:	c7 85 1c d6 ff ff 00 	movl   $0x0,-0x29e4(%rbp)
    8d9f:	00 00 00 
    8da2:	eb 34                	jmp    8dd8 <func_1+0x1623>
    8da4:	8b 85 1c d6 ff ff    	mov    -0x29e4(%rbp),%eax
    8daa:	48 63 c8             	movslq %eax,%rcx
    8dad:	8b 85 18 d6 ff ff    	mov    -0x29e8(%rbp),%eax
    8db3:	48 63 d0             	movslq %eax,%rdx
    8db6:	48 89 d0             	mov    %rdx,%rax
    8db9:	48 01 c0             	add    %rax,%rax
    8dbc:	48 01 d0             	add    %rdx,%rax
    8dbf:	48 01 c8             	add    %rcx,%rax
    8dc2:	48 8d 15 d7 25 01 00 	lea    0x125d7(%rip),%rdx        # 1b3a0 <g_1342>
    8dc9:	48 89 94 c5 30 da ff 	mov    %rdx,-0x25d0(%rbp,%rax,8)
    8dd0:	ff 
    8dd1:	83 85 1c d6 ff ff 01 	addl   $0x1,-0x29e4(%rbp)
    8dd8:	83 bd 1c d6 ff ff 02 	cmpl   $0x2,-0x29e4(%rbp)
    8ddf:	7e c3                	jle    8da4 <func_1+0x15ef>
    8de1:	83 85 18 d6 ff ff 01 	addl   $0x1,-0x29e8(%rbp)
    8de8:	83 bd 18 d6 ff ff 01 	cmpl   $0x1,-0x29e8(%rbp)
    8def:	7e a7                	jle    8d98 <func_1+0x15e3>
    8df1:	8b 85 20 d6 ff ff    	mov    -0x29e0(%rbp),%eax
    8df7:	44 0f bf e0          	movswl %ax,%r12d
    8dfb:	b8 07 00 00 00       	mov    $0x7,%eax
    8e00:	44 0f bf e8          	movswl %ax,%r13d
    8e04:	8b 85 20 d6 ff ff    	mov    -0x29e0(%rbp),%eax
    8e0a:	44 0f b6 f0          	movzbl %al,%r14d
    8e0e:	8b 05 10 f2 00 00    	mov    0xf210(%rip),%eax        # 18024 <g_27>
    8e14:	44 0f b7 f8          	movzwl %ax,%r15d
    8e18:	8b 05 22 f5 00 00    	mov    0xf522(%rip),%eax        # 18340 <g_624+0x10>
    8e1e:	98                   	cwtl   
    8e1f:	89 85 6c d5 ff ff    	mov    %eax,-0x2a94(%rbp)
    8e25:	0f b7 05 9c f4 00 00 	movzwl 0xf49c(%rip),%eax        # 182c8 <g_496>
    8e2c:	0f b7 d8             	movzwl %ax,%ebx
    8e2f:	89 9d 60 d5 ff ff    	mov    %ebx,-0x2aa0(%rbp)
    8e35:	8b 05 b5 f4 00 00    	mov    0xf4b5(%rip),%eax        # 182f0 <g_502>
    8e3b:	89 c1                	mov    %eax,%ecx
    8e3d:	48 89 8d 58 d5 ff ff 	mov    %rcx,-0x2aa8(%rbp)
    8e44:	8b bd 20 d6 ff ff    	mov    -0x29e0(%rbp),%edi
    8e4a:	89 bd 68 d5 ff ff    	mov    %edi,-0x2a98(%rbp)
    8e50:	44 8b 8d 20 d6 ff ff 	mov    -0x29e0(%rbp),%r9d
    8e57:	44 89 8d 54 d5 ff ff 	mov    %r9d,-0x2aac(%rbp)
    8e5e:	8b 85 b4 d5 ff ff    	mov    -0x2a4c(%rbp),%eax
    8e64:	44 0f b7 d0          	movzwl %ax,%r10d
    8e68:	44 89 95 50 d5 ff ff 	mov    %r10d,-0x2ab0(%rbp)
    8e6f:	8b 05 7b f4 00 00    	mov    0xf47b(%rip),%eax        # 182f0 <g_502>
    8e75:	44 0f b6 d8          	movzbl %al,%r11d
    8e79:	44 89 9d 4c d5 ff ff 	mov    %r11d,-0x2ab4(%rbp)
    8e80:	0f b6 45 ba          	movzbl -0x46(%rbp),%eax
    8e84:	44 0f be c0          	movsbl %al,%r8d
    8e88:	44 89 85 48 d5 ff ff 	mov    %r8d,-0x2ab8(%rbp)
    8e8f:	0f b7 05 60 f4 00 00 	movzwl 0xf460(%rip),%eax        # 182f6 <g_502+0x6>
    8e96:	0f b7 d8             	movzwl %ax,%ebx
    8e99:	8b 05 85 f1 00 00    	mov    0xf185(%rip),%eax        # 18024 <g_27>
    8e9f:	89 c7                	mov    %eax,%edi
    8ea1:	e8 1f 73 00 00       	callq  101c5 <func_50>
    8ea6:	89 c2                	mov    %eax,%edx
    8ea8:	8b 05 76 f1 00 00    	mov    0xf176(%rip),%eax        # 18024 <g_27>
    8eae:	89 c6                	mov    %eax,%esi
    8eb0:	0f b6 45 b8          	movzbl -0x48(%rbp),%eax
    8eb4:	0f be c0             	movsbl %al,%eax
    8eb7:	89 d9                	mov    %ebx,%ecx
    8eb9:	89 c7                	mov    %eax,%edi
    8ebb:	e8 e0 6e 00 00       	callq  fda0 <func_45>
    8ec0:	0f b6 55 b8          	movzbl -0x48(%rbp),%edx
    8ec4:	0f be d2             	movsbl %dl,%edx
    8ec7:	39 d0                	cmp    %edx,%eax
    8ec9:	0f 92 c0             	setb   %al
    8ecc:	0f b6 c0             	movzbl %al,%eax
    8ecf:	be ff ff ff ff       	mov    $0xffffffff,%esi
    8ed4:	89 c7                	mov    %eax,%edi
    8ed6:	e8 1a d5 ff ff       	callq  63f5 <safe_mul_func_int16_t_s_s>
    8edb:	8b b5 48 d5 ff ff    	mov    -0x2ab8(%rbp),%esi
    8ee1:	bf 00 00 00 00       	mov    $0x0,%edi
    8ee6:	e8 14 d8 ff ff       	callq  66ff <safe_div_func_int32_t_s_s>
    8eeb:	89 c2                	mov    %eax,%edx
    8eed:	48 8b 85 68 d7 ff ff 	mov    -0x2898(%rbp),%rax
    8ef4:	88 10                	mov    %dl,(%rax)
    8ef6:	48 8b 85 68 d7 ff ff 	mov    -0x2898(%rbp),%rax
    8efd:	0f b6 00             	movzbl (%rax),%eax
    8f00:	0f be c0             	movsbl %al,%eax
    8f03:	be 03 00 00 00       	mov    $0x3,%esi
    8f08:	89 c7                	mov    %eax,%edi
    8f0a:	e8 5d d4 ff ff       	callq  636c <safe_rshift_func_int8_t_s_u>
    8f0f:	f7 d0                	not    %eax
    8f11:	c0 e8 07             	shr    $0x7,%al
    8f14:	89 c2                	mov    %eax,%edx
    8f16:	48 8b 85 70 d7 ff ff 	mov    -0x2890(%rbp),%rax
    8f1d:	88 10                	mov    %dl,(%rax)
    8f1f:	c7 85 30 d6 ff ff 01 	movl   $0x1,-0x29d0(%rbp)
    8f26:	00 00 00 
    8f29:	8b 95 30 d6 ff ff    	mov    -0x29d0(%rbp),%edx
    8f2f:	8b 05 ef f0 00 00    	mov    0xf0ef(%rip),%eax        # 18024 <g_27>
    8f35:	39 c2                	cmp    %eax,%edx
    8f37:	0f 94 c0             	sete   %al
    8f3a:	0f b6 c0             	movzbl %al,%eax
    8f3d:	8b b5 4c d5 ff ff    	mov    -0x2ab4(%rbp),%esi
    8f43:	89 c7                	mov    %eax,%edi
    8f45:	e8 64 dc ff ff       	callq  6bae <safe_mod_func_uint8_t_u_u>
    8f4a:	0f b6 c0             	movzbl %al,%eax
    8f4d:	8b b5 50 d5 ff ff    	mov    -0x2ab0(%rbp),%esi
    8f53:	89 c7                	mov    %eax,%edi
    8f55:	e8 e3 dd ff ff       	callq  6d3d <safe_mul_func_uint16_t_u_u>
    8f5a:	66 83 f8 05          	cmp    $0x5,%ax
    8f5e:	0f 94 c0             	sete   %al
    8f61:	0f b6 d0             	movzbl %al,%edx
    8f64:	8b 05 26 f3 00 00    	mov    0xf326(%rip),%eax        # 18290 <g_371>
    8f6a:	39 c2                	cmp    %eax,%edx
    8f6c:	0f 97 c0             	seta   %al
    8f6f:	0f b6 c0             	movzbl %al,%eax
    8f72:	8b b5 54 d5 ff ff    	mov    -0x2aac(%rbp),%esi
    8f78:	89 c7                	mov    %eax,%edi
    8f7a:	e8 51 df ff ff       	callq  6ed0 <safe_sub_func_uint32_t_u_u>
    8f7f:	0f be c0             	movsbl %al,%eax
    8f82:	8b 95 20 d6 ff ff    	mov    -0x29e0(%rbp),%edx
    8f88:	89 d6                	mov    %edx,%esi
    8f8a:	89 c7                	mov    %eax,%edi
    8f8c:	e8 10 d3 ff ff       	callq  62a1 <safe_lshift_func_int8_t_s_s>
    8f91:	66 98                	cbtw   
    8f93:	0f b7 c0             	movzwl %ax,%eax
    8f96:	8b 15 88 f0 00 00    	mov    0xf088(%rip),%edx        # 18024 <g_27>
    8f9c:	89 d7                	mov    %edx,%edi
    8f9e:	48 8b 8d 58 d5 ff ff 	mov    -0x2aa8(%rbp),%rcx
    8fa5:	8b 95 68 d5 ff ff    	mov    -0x2a98(%rbp),%edx
    8fab:	89 c6                	mov    %eax,%esi
    8fad:	e8 6b 6c 00 00       	callq  fc1d <func_22>
    8fb2:	8b 95 6c d5 ff ff    	mov    -0x2a94(%rbp),%edx
    8fb8:	8b b5 60 d5 ff ff    	mov    -0x2aa0(%rbp),%esi
    8fbe:	bf 01 00 00 00       	mov    $0x1,%edi
    8fc3:	e8 a9 67 00 00       	callq  f771 <func_17>
    8fc8:	0f b6 15 89 f3 00 00 	movzbl 0xf389(%rip),%edx        # 18358 <g_690>
    8fcf:	31 d0                	xor    %edx,%eax
    8fd1:	88 05 81 f3 00 00    	mov    %al,0xf381(%rip)        # 18358 <g_690>
    8fd7:	0f b6 05 7a f3 00 00 	movzbl 0xf37a(%rip),%eax        # 18358 <g_690>
    8fde:	3c 86                	cmp    $0x86,%al
    8fe0:	0f 97 c0             	seta   %al
    8fe3:	0f b6 c0             	movzbl %al,%eax
    8fe6:	48 63 d0             	movslq %eax,%rdx
    8fe9:	48 8b 05 70 f3 00 00 	mov    0xf370(%rip),%rax        # 18360 <g_692>
    8ff0:	48 09 d0             	or     %rdx,%rax
    8ff3:	48 89 05 66 f3 00 00 	mov    %rax,0xf366(%rip)        # 18360 <g_692>
    8ffa:	48 8b 05 5f f3 00 00 	mov    0xf35f(%rip),%rax        # 18360 <g_692>
    9001:	48 ba 85 f8 e6 4d 53 	movabs $0x609b2b534de6f885,%rdx
    9008:	2b 9b 60 
    900b:	48 21 c2             	and    %rax,%rdx
    900e:	8b 85 b4 d5 ff ff    	mov    -0x2a4c(%rbp),%eax
    9014:	48 98                	cltq   
    9016:	48 21 d0             	and    %rdx,%rax
    9019:	48 85 c0             	test   %rax,%rax
    901c:	74 07                	je     9025 <func_1+0x1870>
    901e:	b8 01 00 00 00       	mov    $0x1,%eax
    9023:	eb 05                	jmp    902a <func_1+0x1875>
    9025:	b8 00 00 00 00       	mov    $0x0,%eax
    902a:	be af aa 83 60       	mov    $0x6083aaaf,%esi
    902f:	89 c7                	mov    %eax,%edi
    9031:	e8 cf d5 ff ff       	callq  6605 <safe_sub_func_int32_t_s_s>
    9036:	0f b7 c0             	movzwl %ax,%eax
    9039:	44 89 fe             	mov    %r15d,%esi
    903c:	89 c7                	mov    %eax,%edi
    903e:	e8 dc dc ff ff       	callq  6d1f <safe_sub_func_uint16_t_u_u>
    9043:	89 c2                	mov    %eax,%edx
    9045:	8b 85 20 d6 ff ff    	mov    -0x29e0(%rbp),%eax
    904b:	21 d0                	and    %edx,%eax
    904d:	98                   	cwtl   
    904e:	44 89 f6             	mov    %r14d,%esi
    9051:	89 c7                	mov    %eax,%edi
    9053:	e8 9d 5a 00 00       	callq  eaf5 <func_10>
    9058:	3c 01                	cmp    $0x1,%al
    905a:	0f 97 c0             	seta   %al
    905d:	0f b6 c0             	movzbl %al,%eax
    9060:	44 89 ee             	mov    %r13d,%esi
    9063:	89 c7                	mov    %eax,%edi
    9065:	e8 73 5a 00 00       	callq  eadd <func_6>
    906a:	8b 15 20 f2 00 00    	mov    0xf220(%rip),%edx        # 18290 <g_371>
    9070:	89 d2                	mov    %edx,%edx
    9072:	48 39 d0             	cmp    %rdx,%rax
    9075:	0f 95 c0             	setne  %al
    9078:	0f b6 c0             	movzbl %al,%eax
    907b:	be d5 00 00 00       	mov    $0xd5,%esi
    9080:	89 c7                	mov    %eax,%edi
    9082:	e8 0c db ff ff       	callq  6b93 <safe_mul_func_uint8_t_u_u>
    9087:	0f b6 c0             	movzbl %al,%eax
    908a:	44 89 e6             	mov    %r12d,%esi
    908d:	89 c7                	mov    %eax,%edi
    908f:	e8 c1 d3 ff ff       	callq  6455 <safe_div_func_int16_t_s_s>
    9094:	66 85 c0             	test   %ax,%ax
    9097:	74 0f                	je     90a8 <func_1+0x18f3>
    9099:	48 8b 05 08 20 01 00 	mov    0x12008(%rip),%rax        # 1b0a8 <g_78>
    90a0:	0f b7 00             	movzwl (%rax),%eax
    90a3:	e9 0f 5a 00 00       	jmpq   eab7 <func_1+0x7302>
    90a8:	48 c7 85 a8 d7 ff ff 	movq   $0x0,-0x2858(%rbp)
    90af:	00 00 00 00 
    90b3:	48 8d 05 d6 f1 00 00 	lea    0xf1d6(%rip),%rax        # 18290 <g_371>
    90ba:	48 89 85 08 d7 ff ff 	mov    %rax,-0x28f8(%rbp)
    90c1:	48 8d 05 64 ef 00 00 	lea    0xef64(%rip),%rax        # 1802c <g_56>
    90c8:	48 89 85 10 d7 ff ff 	mov    %rax,-0x28f0(%rbp)
    90cf:	c7 85 cc d5 ff ff 93 	movl   $0x75104493,-0x2a34(%rbp)
    90d6:	44 10 75 
    90d9:	c6 85 7c d5 ff ff 32 	movb   $0x32,-0x2a84(%rbp)
    90e0:	48 8d 85 58 d9 ff ff 	lea    -0x26a8(%rbp),%rax
    90e7:	48 89 85 b0 d7 ff ff 	mov    %rax,-0x2850(%rbp)
    90ee:	48 b8 08 a6 f8 66 81 	movabs $0x25e2328166f8a608,%rax
    90f5:	32 e2 25 
    90f8:	48 89 85 58 d7 ff ff 	mov    %rax,-0x28a8(%rbp)
    90ff:	48 8d 85 d0 f7 ff ff 	lea    -0x830(%rbp),%rax
    9106:	48 05 98 02 00 00    	add    $0x298,%rax
    910c:	48 89 85 b8 d7 ff ff 	mov    %rax,-0x2848(%rbp)
    9113:	c6 85 7d d5 ff ff 4a 	movb   $0x4a,-0x2a83(%rbp)
    911a:	48 b8 66 17 96 6d e5 	movabs $0xf7ec5be56d961766,%rax
    9121:	5b ec f7 
    9124:	48 89 85 c0 d7 ff ff 	mov    %rax,-0x2840(%rbp)
    912b:	48 8d 05 0e f2 00 00 	lea    0xf20e(%rip),%rax        # 18340 <g_624+0x10>
    9132:	48 89 85 18 d7 ff ff 	mov    %rax,-0x28e8(%rbp)
    9139:	48 8d 85 cc d5 ff ff 	lea    -0x2a34(%rbp),%rax
    9140:	48 89 85 c8 d7 ff ff 	mov    %rax,-0x2838(%rbp)
    9147:	c7 85 d0 d5 ff ff 01 	movl   $0x1,-0x2a30(%rbp)
    914e:	00 00 00 
    9151:	c7 85 48 d6 ff ff f8 	movl   $0xfffffff8,-0x29b8(%rbp)
    9158:	ff ff ff 
    915b:	66 c7 85 8c d5 ff ff 	movw   $0x9064,-0x2a74(%rbp)
    9162:	64 90 
    9164:	66 c7 85 8e d5 ff ff 	movw   $0x0,-0x2a72(%rbp)
    916b:	00 00 
    916d:	c6 85 7e d5 ff ff bf 	movb   $0xbf,-0x2a82(%rbp)
    9174:	c7 85 d4 d5 ff ff ef 	movl   $0x74bfddef,-0x2a2c(%rbp)
    917b:	dd bf 74 
    917e:	48 8d 05 9f ee 00 00 	lea    0xee9f(%rip),%rax        # 18024 <g_27>
    9185:	48 89 85 d0 d7 ff ff 	mov    %rax,-0x2830(%rbp)
    918c:	48 8d 85 d8 d6 ff ff 	lea    -0x2928(%rbp),%rax
    9193:	48 89 85 d8 d7 ff ff 	mov    %rax,-0x2828(%rbp)
    919a:	c7 85 4c d6 ff ff 1c 	movl   $0x62c9e41c,-0x29b4(%rbp)
    91a1:	e4 c9 62 
    91a4:	c6 85 7f d5 ff ff d7 	movb   $0xd7,-0x2a81(%rbp)
    91ab:	c7 85 10 d6 ff ff 00 	movl   $0x0,-0x29f0(%rbp)
    91b2:	00 00 00 
    91b5:	eb 1b                	jmp    91d2 <func_1+0x1a1d>
    91b7:	8b 85 10 d6 ff ff    	mov    -0x29f0(%rbp),%eax
    91bd:	48 98                	cltq   
    91bf:	48 c7 84 c5 58 d9 ff 	movq   $0x0,-0x26a8(%rbp,%rax,8)
    91c6:	ff 00 00 00 00 
    91cb:	83 85 10 d6 ff ff 01 	addl   $0x1,-0x29f0(%rbp)
    91d2:	83 bd 10 d6 ff ff 00 	cmpl   $0x0,-0x29f0(%rbp)
    91d9:	7e dc                	jle    91b7 <func_1+0x1a02>
    91db:	0f b7 05 be f0 00 00 	movzwl 0xf0be(%rip),%eax        # 182a0 <g_371+0x10>
    91e2:	0f b7 c0             	movzwl %ax,%eax
    91e5:	48 ba a7 85 b8 7e 9f 	movabs $0xa6ae129f7eb885a7,%rdx
    91ec:	12 ae a6 
    91ef:	48 21 d0             	and    %rdx,%rax
    91f2:	48 85 c0             	test   %rax,%rax
    91f5:	0f 84 f7 1d 00 00    	je     aff2 <func_1+0x383d>
    91fb:	66 c7 85 96 d5 ff ff 	movw   $0x1,-0x2a6a(%rbp)
    9202:	01 00 
    9204:	48 8d 85 d8 d6 ff ff 	lea    -0x2928(%rbp),%rax
    920b:	48 89 85 50 f0 ff ff 	mov    %rax,-0xfb0(%rbp)
    9212:	48 8d 85 d8 d6 ff ff 	lea    -0x2928(%rbp),%rax
    9219:	48 89 85 58 f0 ff ff 	mov    %rax,-0xfa8(%rbp)
    9220:	48 8d 85 d8 d6 ff ff 	lea    -0x2928(%rbp),%rax
    9227:	48 89 85 60 f0 ff ff 	mov    %rax,-0xfa0(%rbp)
    922e:	48 8d 85 d8 d6 ff ff 	lea    -0x2928(%rbp),%rax
    9235:	48 89 85 68 f0 ff ff 	mov    %rax,-0xf98(%rbp)
    923c:	48 8d 85 d8 d6 ff ff 	lea    -0x2928(%rbp),%rax
    9243:	48 89 85 70 f0 ff ff 	mov    %rax,-0xf90(%rbp)
    924a:	48 8d 85 d8 d6 ff ff 	lea    -0x2928(%rbp),%rax
    9251:	48 89 85 78 f0 ff ff 	mov    %rax,-0xf88(%rbp)
    9258:	48 8d 85 d8 d6 ff ff 	lea    -0x2928(%rbp),%rax
    925f:	48 89 85 80 f0 ff ff 	mov    %rax,-0xf80(%rbp)
    9266:	48 8d 85 d8 d6 ff ff 	lea    -0x2928(%rbp),%rax
    926d:	48 89 85 88 f0 ff ff 	mov    %rax,-0xf78(%rbp)
    9274:	48 8d 85 d8 d6 ff ff 	lea    -0x2928(%rbp),%rax
    927b:	48 89 85 90 f0 ff ff 	mov    %rax,-0xf70(%rbp)
    9282:	48 8d 85 d8 d6 ff ff 	lea    -0x2928(%rbp),%rax
    9289:	48 89 85 98 f0 ff ff 	mov    %rax,-0xf68(%rbp)
    9290:	48 8d 85 d8 d6 ff ff 	lea    -0x2928(%rbp),%rax
    9297:	48 89 85 a0 f0 ff ff 	mov    %rax,-0xf60(%rbp)
    929e:	48 8d 85 d8 d6 ff ff 	lea    -0x2928(%rbp),%rax
    92a5:	48 89 85 a8 f0 ff ff 	mov    %rax,-0xf58(%rbp)
    92ac:	48 8d 85 d8 d6 ff ff 	lea    -0x2928(%rbp),%rax
    92b3:	48 89 85 b0 f0 ff ff 	mov    %rax,-0xf50(%rbp)
    92ba:	48 8d 85 d8 d6 ff ff 	lea    -0x2928(%rbp),%rax
    92c1:	48 89 85 b8 f0 ff ff 	mov    %rax,-0xf48(%rbp)
    92c8:	48 8d 85 d8 d6 ff ff 	lea    -0x2928(%rbp),%rax
    92cf:	48 89 85 c0 f0 ff ff 	mov    %rax,-0xf40(%rbp)
    92d6:	48 8d 85 d8 d6 ff ff 	lea    -0x2928(%rbp),%rax
    92dd:	48 89 85 c8 f0 ff ff 	mov    %rax,-0xf38(%rbp)
    92e4:	48 8d 85 d8 d6 ff ff 	lea    -0x2928(%rbp),%rax
    92eb:	48 89 85 d0 f0 ff ff 	mov    %rax,-0xf30(%rbp)
    92f2:	48 8d 85 d8 d6 ff ff 	lea    -0x2928(%rbp),%rax
    92f9:	48 89 85 d8 f0 ff ff 	mov    %rax,-0xf28(%rbp)
    9300:	48 8d 85 d8 d6 ff ff 	lea    -0x2928(%rbp),%rax
    9307:	48 89 85 e0 f0 ff ff 	mov    %rax,-0xf20(%rbp)
    930e:	48 8d 85 d8 d6 ff ff 	lea    -0x2928(%rbp),%rax
    9315:	48 89 85 e8 f0 ff ff 	mov    %rax,-0xf18(%rbp)
    931c:	48 8d 85 d8 d6 ff ff 	lea    -0x2928(%rbp),%rax
    9323:	48 89 85 f0 f0 ff ff 	mov    %rax,-0xf10(%rbp)
    932a:	48 8d 85 d8 d6 ff ff 	lea    -0x2928(%rbp),%rax
    9331:	48 89 85 f8 f0 ff ff 	mov    %rax,-0xf08(%rbp)
    9338:	48 8d 85 d8 d6 ff ff 	lea    -0x2928(%rbp),%rax
    933f:	48 89 85 00 f1 ff ff 	mov    %rax,-0xf00(%rbp)
    9346:	48 8d 85 d8 d6 ff ff 	lea    -0x2928(%rbp),%rax
    934d:	48 89 85 08 f1 ff ff 	mov    %rax,-0xef8(%rbp)
    9354:	48 8d 85 d8 d6 ff ff 	lea    -0x2928(%rbp),%rax
    935b:	48 89 85 10 f1 ff ff 	mov    %rax,-0xef0(%rbp)
    9362:	48 8d 85 d8 d6 ff ff 	lea    -0x2928(%rbp),%rax
    9369:	48 89 85 18 f1 ff ff 	mov    %rax,-0xee8(%rbp)
    9370:	48 8d 85 d8 d6 ff ff 	lea    -0x2928(%rbp),%rax
    9377:	48 89 85 20 f1 ff ff 	mov    %rax,-0xee0(%rbp)
    937e:	48 8d 85 d8 d6 ff ff 	lea    -0x2928(%rbp),%rax
    9385:	48 89 85 28 f1 ff ff 	mov    %rax,-0xed8(%rbp)
    938c:	48 8d 85 d8 d6 ff ff 	lea    -0x2928(%rbp),%rax
    9393:	48 89 85 30 f1 ff ff 	mov    %rax,-0xed0(%rbp)
    939a:	48 8d 85 d8 d6 ff ff 	lea    -0x2928(%rbp),%rax
    93a1:	48 89 85 38 f1 ff ff 	mov    %rax,-0xec8(%rbp)
    93a8:	48 8d 85 d8 d6 ff ff 	lea    -0x2928(%rbp),%rax
    93af:	48 89 85 40 f1 ff ff 	mov    %rax,-0xec0(%rbp)
    93b6:	48 8d 85 d8 d6 ff ff 	lea    -0x2928(%rbp),%rax
    93bd:	48 89 85 48 f1 ff ff 	mov    %rax,-0xeb8(%rbp)
    93c4:	48 8d 85 d8 d6 ff ff 	lea    -0x2928(%rbp),%rax
    93cb:	48 89 85 50 f1 ff ff 	mov    %rax,-0xeb0(%rbp)
    93d2:	48 8d 85 d8 d6 ff ff 	lea    -0x2928(%rbp),%rax
    93d9:	48 89 85 58 f1 ff ff 	mov    %rax,-0xea8(%rbp)
    93e0:	48 8d 85 d8 d6 ff ff 	lea    -0x2928(%rbp),%rax
    93e7:	48 89 85 60 f1 ff ff 	mov    %rax,-0xea0(%rbp)
    93ee:	48 8d 85 d8 d6 ff ff 	lea    -0x2928(%rbp),%rax
    93f5:	48 89 85 68 f1 ff ff 	mov    %rax,-0xe98(%rbp)
    93fc:	48 8d 85 d8 d6 ff ff 	lea    -0x2928(%rbp),%rax
    9403:	48 89 85 70 f1 ff ff 	mov    %rax,-0xe90(%rbp)
    940a:	48 8d 85 d8 d6 ff ff 	lea    -0x2928(%rbp),%rax
    9411:	48 89 85 78 f1 ff ff 	mov    %rax,-0xe88(%rbp)
    9418:	48 8d 85 d8 d6 ff ff 	lea    -0x2928(%rbp),%rax
    941f:	48 89 85 80 f1 ff ff 	mov    %rax,-0xe80(%rbp)
    9426:	48 8d 85 d8 d6 ff ff 	lea    -0x2928(%rbp),%rax
    942d:	48 89 85 88 f1 ff ff 	mov    %rax,-0xe78(%rbp)
    9434:	48 8d 85 d8 d6 ff ff 	lea    -0x2928(%rbp),%rax
    943b:	48 89 85 90 f1 ff ff 	mov    %rax,-0xe70(%rbp)
    9442:	48 8d 85 d8 d6 ff ff 	lea    -0x2928(%rbp),%rax
    9449:	48 89 85 98 f1 ff ff 	mov    %rax,-0xe68(%rbp)
    9450:	48 8d 85 d8 d6 ff ff 	lea    -0x2928(%rbp),%rax
    9457:	48 89 85 a0 f1 ff ff 	mov    %rax,-0xe60(%rbp)
    945e:	48 8d 85 d8 d6 ff ff 	lea    -0x2928(%rbp),%rax
    9465:	48 89 85 a8 f1 ff ff 	mov    %rax,-0xe58(%rbp)
    946c:	48 8d 85 d8 d6 ff ff 	lea    -0x2928(%rbp),%rax
    9473:	48 89 85 b0 f1 ff ff 	mov    %rax,-0xe50(%rbp)
    947a:	48 8d 85 d8 d6 ff ff 	lea    -0x2928(%rbp),%rax
    9481:	48 89 85 b8 f1 ff ff 	mov    %rax,-0xe48(%rbp)
    9488:	48 8d 85 d8 d6 ff ff 	lea    -0x2928(%rbp),%rax
    948f:	48 89 85 c0 f1 ff ff 	mov    %rax,-0xe40(%rbp)
    9496:	48 8d 85 d8 d6 ff ff 	lea    -0x2928(%rbp),%rax
    949d:	48 89 85 c8 f1 ff ff 	mov    %rax,-0xe38(%rbp)
    94a4:	48 8d 85 d8 d6 ff ff 	lea    -0x2928(%rbp),%rax
    94ab:	48 89 85 d0 f1 ff ff 	mov    %rax,-0xe30(%rbp)
    94b2:	48 8d 85 d8 d6 ff ff 	lea    -0x2928(%rbp),%rax
    94b9:	48 89 85 d8 f1 ff ff 	mov    %rax,-0xe28(%rbp)
    94c0:	48 8d 85 d8 d6 ff ff 	lea    -0x2928(%rbp),%rax
    94c7:	48 89 85 e0 f1 ff ff 	mov    %rax,-0xe20(%rbp)
    94ce:	48 8d 85 d8 d6 ff ff 	lea    -0x2928(%rbp),%rax
    94d5:	48 89 85 e8 f1 ff ff 	mov    %rax,-0xe18(%rbp)
    94dc:	48 8d 85 d8 d6 ff ff 	lea    -0x2928(%rbp),%rax
    94e3:	48 89 85 f0 f1 ff ff 	mov    %rax,-0xe10(%rbp)
    94ea:	48 8d 85 d8 d6 ff ff 	lea    -0x2928(%rbp),%rax
    94f1:	48 89 85 f8 f1 ff ff 	mov    %rax,-0xe08(%rbp)
    94f8:	48 8d 85 d8 d6 ff ff 	lea    -0x2928(%rbp),%rax
    94ff:	48 89 85 00 f2 ff ff 	mov    %rax,-0xe00(%rbp)
    9506:	48 8d 85 d8 d6 ff ff 	lea    -0x2928(%rbp),%rax
    950d:	48 89 85 08 f2 ff ff 	mov    %rax,-0xdf8(%rbp)
    9514:	48 8d 85 d8 d6 ff ff 	lea    -0x2928(%rbp),%rax
    951b:	48 89 85 10 f2 ff ff 	mov    %rax,-0xdf0(%rbp)
    9522:	48 8d 85 d8 d6 ff ff 	lea    -0x2928(%rbp),%rax
    9529:	48 89 85 18 f2 ff ff 	mov    %rax,-0xde8(%rbp)
    9530:	48 c7 85 20 f2 ff ff 	movq   $0x0,-0xde0(%rbp)
    9537:	00 00 00 00 
    953b:	48 8d 85 d8 d6 ff ff 	lea    -0x2928(%rbp),%rax
    9542:	48 89 85 28 f2 ff ff 	mov    %rax,-0xdd8(%rbp)
    9549:	48 8d 85 d8 d6 ff ff 	lea    -0x2928(%rbp),%rax
    9550:	48 89 85 30 f2 ff ff 	mov    %rax,-0xdd0(%rbp)
    9557:	48 8d 85 d8 d6 ff ff 	lea    -0x2928(%rbp),%rax
    955e:	48 89 85 38 f2 ff ff 	mov    %rax,-0xdc8(%rbp)
    9565:	48 8d 85 d8 d6 ff ff 	lea    -0x2928(%rbp),%rax
    956c:	48 89 85 40 f2 ff ff 	mov    %rax,-0xdc0(%rbp)
    9573:	48 8d 85 d8 d6 ff ff 	lea    -0x2928(%rbp),%rax
    957a:	48 89 85 48 f2 ff ff 	mov    %rax,-0xdb8(%rbp)
    9581:	48 8d 85 d8 d6 ff ff 	lea    -0x2928(%rbp),%rax
    9588:	48 89 85 50 f2 ff ff 	mov    %rax,-0xdb0(%rbp)
    958f:	48 8d 85 d8 d6 ff ff 	lea    -0x2928(%rbp),%rax
    9596:	48 89 85 58 f2 ff ff 	mov    %rax,-0xda8(%rbp)
    959d:	48 8d 85 d8 d6 ff ff 	lea    -0x2928(%rbp),%rax
    95a4:	48 89 85 60 f2 ff ff 	mov    %rax,-0xda0(%rbp)
    95ab:	48 8d 85 d8 d6 ff ff 	lea    -0x2928(%rbp),%rax
    95b2:	48 89 85 68 f2 ff ff 	mov    %rax,-0xd98(%rbp)
    95b9:	48 8d 85 d8 d6 ff ff 	lea    -0x2928(%rbp),%rax
    95c0:	48 89 85 70 f2 ff ff 	mov    %rax,-0xd90(%rbp)
    95c7:	48 8d 85 d8 d6 ff ff 	lea    -0x2928(%rbp),%rax
    95ce:	48 89 85 78 f2 ff ff 	mov    %rax,-0xd88(%rbp)
    95d5:	48 8d 85 d8 d6 ff ff 	lea    -0x2928(%rbp),%rax
    95dc:	48 89 85 80 f2 ff ff 	mov    %rax,-0xd80(%rbp)
    95e3:	48 8d 85 d8 d6 ff ff 	lea    -0x2928(%rbp),%rax
    95ea:	48 89 85 88 f2 ff ff 	mov    %rax,-0xd78(%rbp)
    95f1:	c7 85 28 d7 ff ff 01 	movl   $0x1,-0x28d8(%rbp)
    95f8:	00 00 00 
    95fb:	c7 85 88 d6 ff ff a2 	movl   $0x72e4bca2,-0x2978(%rbp)
    9602:	bc e4 72 
    9605:	48 8d 05 6c ec 00 00 	lea    0xec6c(%rip),%rax        # 18278 <g_342+0x8>
    960c:	48 89 85 78 d8 ff ff 	mov    %rax,-0x2788(%rbp)
    9613:	48 8d 05 ee 1a 01 00 	lea    0x11aee(%rip),%rax        # 1b108 <g_469+0x8>
    961a:	48 89 85 38 d7 ff ff 	mov    %rax,-0x28c8(%rbp)
    9621:	c7 85 8c d6 ff ff d9 	movl   $0xa5c4bfd9,-0x2974(%rbp)
    9628:	bf c4 a5 
    962b:	c7 85 90 d6 ff ff ff 	movl   $0xffffffff,-0x2970(%rbp)
    9632:	ff ff ff 
    9635:	66 c7 85 98 d5 ff ff 	movw   $0xd1a4,-0x2a68(%rbp)
    963c:	a4 d1 
    963e:	66 c7 85 9a d5 ff ff 	movw   $0x1,-0x2a66(%rbp)
    9645:	01 00 
    9647:	c7 85 94 d6 ff ff 00 	movl   $0x0,-0x296c(%rbp)
    964e:	00 00 00 
    9651:	48 c7 85 40 d7 ff ff 	movq   $0x6,-0x28c0(%rbp)
    9658:	06 00 00 00 
    965c:	66 c7 85 9c d5 ff ff 	movw   $0xfd8a,-0x2a64(%rbp)
    9663:	8a fd 
    9665:	c7 85 98 d6 ff ff 05 	movl   $0x5,-0x2968(%rbp)
    966c:	00 00 00 
    966f:	48 c7 85 80 d8 ff ff 	movq   $0x0,-0x2780(%rbp)
    9676:	00 00 00 00 
    967a:	66 c7 85 9e d5 ff ff 	movw   $0x8118,-0x2a62(%rbp)
    9681:	18 81 
    9683:	66 c7 85 a0 d5 ff ff 	movw   $0x9bac,-0x2a60(%rbp)
    968a:	ac 9b 
    968c:	66 c7 85 a2 d5 ff ff 	movw   $0x5ab7,-0x2a5e(%rbp)
    9693:	b7 5a 
    9695:	c7 85 14 d6 ff ff 00 	movl   $0x0,-0x29ec(%rbp)
    969c:	00 00 00 
    969f:	eb 14                	jmp    96b5 <func_1+0x1f00>
    96a1:	8b 85 14 d6 ff ff    	mov    -0x29ec(%rbp),%eax
    96a7:	48 98                	cltq   
    96a9:	c6 44 05 be c5       	movb   $0xc5,-0x42(%rbp,%rax,1)
    96ae:	83 85 14 d6 ff ff 01 	addl   $0x1,-0x29ec(%rbp)
    96b5:	83 bd 14 d6 ff ff 04 	cmpl   $0x4,-0x29ec(%rbp)
    96bc:	7e e3                	jle    96a1 <func_1+0x1eec>
    96be:	66 c7 05 af eb 00 00 	movw   $0xfffc,0xebaf(%rip)        # 18276 <g_342+0x6>
    96c5:	fc ff 
    96c7:	e9 97 08 00 00       	jmpq   9f63 <func_1+0x27ae>
    96cc:	48 8d 05 2d 21 01 00 	lea    0x1212d(%rip),%rax        # 1b800 <g_708>
    96d3:	48 89 85 88 d8 ff ff 	mov    %rax,-0x2778(%rbp)
    96da:	48 c7 85 90 d8 ff ff 	movq   $0x0,-0x2770(%rbp)
    96e1:	00 00 00 00 
    96e5:	48 8d 05 8c eb 00 00 	lea    0xeb8c(%rip),%rax        # 18278 <g_342+0x8>
    96ec:	48 89 85 98 d8 ff ff 	mov    %rax,-0x2768(%rbp)
    96f3:	48 8d 05 de ec 00 00 	lea    0xecde(%rip),%rax        # 183d8 <g_730+0x8>
    96fa:	48 89 85 a0 d8 ff ff 	mov    %rax,-0x2760(%rbp)
    9701:	c7 85 9c d6 ff ff ff 	movl   $0xffffffff,-0x2964(%rbp)
    9708:	ff ff ff 
    970b:	48 8d 85 60 da ff ff 	lea    -0x25a0(%rbp),%rax
    9712:	48 83 c0 08          	add    $0x8,%rax
    9716:	48 89 85 a8 d8 ff ff 	mov    %rax,-0x2758(%rbp)
    971d:	66 c7 85 a4 d5 ff ff 	movw   $0x642,-0x2a5c(%rbp)
    9724:	42 06 
    9726:	c7 85 00 d6 ff ff 00 	movl   $0x0,-0x2a00(%rbp)
    972d:	00 00 00 
    9730:	eb 1e                	jmp    9750 <func_1+0x1f9b>
    9732:	8b 85 00 d6 ff ff    	mov    -0x2a00(%rbp),%eax
    9738:	48 98                	cltq   
    973a:	48 8d 95 d0 e8 ff ff 	lea    -0x1730(%rbp),%rdx
    9741:	48 89 94 c5 b0 db ff 	mov    %rdx,-0x2450(%rbp,%rax,8)
    9748:	ff 
    9749:	83 85 00 d6 ff ff 01 	addl   $0x1,-0x2a00(%rbp)
    9750:	83 bd 00 d6 ff ff 01 	cmpl   $0x1,-0x2a00(%rbp)
    9757:	7e d9                	jle    9732 <func_1+0x1f7d>
    9759:	b8 07 00 00 00       	mov    $0x7,%eax
    975e:	0f bf d8             	movswl %ax,%ebx
    9761:	48 8b 15 b0 ea 00 00 	mov    0xeab0(%rip),%rdx        # 18218 <g_206+0x38>
    9768:	48 8b 85 98 d8 ff ff 	mov    -0x2768(%rbp),%rax
    976f:	48 89 10             	mov    %rdx,(%rax)
    9772:	48 8b 85 98 d8 ff ff 	mov    -0x2768(%rbp),%rax
    9779:	4c 8b 30             	mov    (%rax),%r14
    977c:	44 8b a5 9c d6 ff ff 	mov    -0x2964(%rbp),%r12d
    9783:	48 8b 05 36 19 01 00 	mov    0x11936(%rip),%rax        # 1b0c0 <g_168>
    978a:	0f b7 00             	movzwl (%rax),%eax
    978d:	44 0f bf e8          	movswl %ax,%r13d
    9791:	48 8b 85 a0 d8 ff ff 	mov    -0x2760(%rbp),%rax
    9798:	48 8b 00             	mov    (%rax),%rax
    979b:	48 8d 48 01          	lea    0x1(%rax),%rcx
    979f:	48 8b 95 a0 d8 ff ff 	mov    -0x2760(%rbp),%rdx
    97a6:	48 89 0a             	mov    %rcx,(%rdx)
    97a9:	48 8b 95 a8 d7 ff ff 	mov    -0x2858(%rbp),%rdx
    97b0:	48 89 d6             	mov    %rdx,%rsi
    97b3:	48 89 c7             	mov    %rax,%rdi
    97b6:	e8 f4 d8 ff ff       	callq  70af <safe_div_func_uint64_t_u_u>
    97bb:	48 85 c0             	test   %rax,%rax
    97be:	74 0a                	je     97ca <func_1+0x2015>
    97c0:	0f b7 05 2f eb 00 00 	movzwl 0xeb2f(%rip),%eax        # 182f6 <g_502+0x6>
    97c7:	66 85 c0             	test   %ax,%ax
    97ca:	48 8b 15 ff 1a 01 00 	mov    0x11aff(%rip),%rdx        # 1b2d0 <g_727>
    97d1:	48 8b 85 d0 d6 ff ff 	mov    -0x2930(%rbp),%rax
    97d8:	48 39 c2             	cmp    %rax,%rdx
    97db:	41 0f 94 c7          	sete   %r15b
    97df:	bf 00 00 00 00       	mov    $0x0,%edi
    97e4:	e8 00 d5 ff ff       	callq  6ce9 <safe_unary_minus_func_uint16_t_u>
    97e9:	66 85 c0             	test   %ax,%ax
    97ec:	0f 95 c0             	setne  %al
    97ef:	44 31 f8             	xor    %r15d,%eax
    97f2:	0f b6 c0             	movzbl %al,%eax
    97f5:	44 89 ee             	mov    %r13d,%esi
    97f8:	89 c7                	mov    %eax,%edi
    97fa:	e8 17 cc ff ff       	callq  6416 <safe_mod_func_int16_t_s_s>
    97ff:	44 89 e6             	mov    %r12d,%esi
    9802:	bf f8 ff ff ff       	mov    $0xfffffff8,%edi
    9807:	e8 ac d6 ff ff       	callq  6eb8 <safe_add_func_uint32_t_u_u>
    980c:	89 c2                	mov    %eax,%edx
    980e:	48 8b 05 e3 ea 00 00 	mov    0xeae3(%rip),%rax        # 182f8 <g_502+0x8>
    9815:	48 39 c2             	cmp    %rax,%rdx
    9818:	0f 94 c0             	sete   %al
    981b:	0f b6 c0             	movzbl %al,%eax
    981e:	49 39 c6             	cmp    %rax,%r14
    9821:	0f 92 c0             	setb   %al
    9824:	0f b6 c0             	movzbl %al,%eax
    9827:	8b 95 9c d6 ff ff    	mov    -0x2964(%rbp),%edx
    982d:	89 d6                	mov    %edx,%esi
    982f:	89 c7                	mov    %eax,%edi
    9831:	e8 c9 ce ff ff       	callq  66ff <safe_div_func_int32_t_s_s>
    9836:	89 de                	mov    %ebx,%esi
    9838:	bf 01 00 00 00       	mov    $0x1,%edi
    983d:	e8 b3 cb ff ff       	callq  63f5 <safe_mul_func_int16_t_s_s>
    9842:	66 33 85 96 d5 ff ff 	xor    -0x2a6a(%rbp),%ax
    9849:	0f bf d0             	movswl %ax,%edx
    984c:	0f bf 85 96 d5 ff ff 	movswl -0x2a6a(%rbp),%eax
    9853:	89 d6                	mov    %edx,%esi
    9855:	89 c7                	mov    %eax,%edi
    9857:	e8 a9 cd ff ff       	callq  6605 <safe_sub_func_int32_t_s_s>
    985c:	85 c0                	test   %eax,%eax
    985e:	74 11                	je     9871 <func_1+0x20bc>
    9860:	48 83 bd a8 d7 ff ff 	cmpq   $0x0,-0x2858(%rbp)
    9867:	00 
    9868:	74 07                	je     9871 <func_1+0x20bc>
    986a:	b8 01 00 00 00       	mov    $0x1,%eax
    986f:	eb 05                	jmp    9876 <func_1+0x20c1>
    9871:	b8 00 00 00 00       	mov    $0x0,%eax
    9876:	48 98                	cltq   
    9878:	48 c7 c6 f7 ff ff ff 	mov    $0xfffffffffffffff7,%rsi
    987f:	48 89 c7             	mov    %rax,%rdi
    9882:	e8 a7 d7 ff ff       	callq  702e <safe_add_func_uint64_t_u_u>
    9887:	48 8b 15 72 1f 01 00 	mov    0x11f72(%rip),%rdx        # 1b800 <g_708>
    988e:	48 8b 85 88 d8 ff ff 	mov    -0x2778(%rbp),%rax
    9895:	48 89 10             	mov    %rdx,(%rax)
    9898:	48 8b 85 88 d8 ff ff 	mov    -0x2778(%rbp),%rax
    989f:	48 8b 10             	mov    (%rax),%rdx
    98a2:	48 8b 85 68 f0 ff ff 	mov    -0xf98(%rbp),%rax
    98a9:	48 39 c2             	cmp    %rax,%rdx
    98ac:	0f 84 47 01 00 00    	je     99f9 <func_1+0x2244>
    98b2:	48 8d 95 90 dd ff ff 	lea    -0x2270(%rbp),%rdx
    98b9:	b8 00 00 00 00       	mov    $0x0,%eax
    98be:	b9 15 00 00 00       	mov    $0x15,%ecx
    98c3:	48 89 d7             	mov    %rdx,%rdi
    98c6:	f3 48 ab             	rep stos %rax,%es:(%rdi)
    98c9:	48 8d 85 d0 d6 ff ff 	lea    -0x2930(%rbp),%rax
    98d0:	48 89 85 d8 dd ff ff 	mov    %rax,-0x2228(%rbp)
    98d7:	48 8d 85 d0 d6 ff ff 	lea    -0x2930(%rbp),%rax
    98de:	48 89 85 f0 dd ff ff 	mov    %rax,-0x2210(%rbp)
    98e5:	c7 85 a0 d6 ff ff 65 	movl   $0xa8f40165,-0x2960(%rbp)
    98ec:	01 f4 a8 
    98ef:	48 8b 85 d0 d6 ff ff 	mov    -0x2930(%rbp),%rax
    98f6:	48 89 85 08 d7 ff ff 	mov    %rax,-0x28f8(%rbp)
    98fd:	66 c7 05 c2 e9 00 00 	movw   $0x4,0xe9c2(%rip)        # 182c8 <g_496>
    9904:	04 00 
    9906:	90                   	nop
    9907:	0f b7 05 ba e9 00 00 	movzwl 0xe9ba(%rip),%eax        # 182c8 <g_496>
    990e:	66 85 c0             	test   %ax,%ax
    9911:	0f 88 1b 01 00 00    	js     9a32 <func_1+0x227d>
    9917:	8b 85 a0 d6 ff ff    	mov    -0x2960(%rbp),%eax
    991d:	48 63 d0             	movslq %eax,%rdx
    9920:	0f b7 05 a1 e9 00 00 	movzwl 0xe9a1(%rip),%eax        # 182c8 <g_496>
    9927:	98                   	cwtl   
    9928:	48 98                	cltq   
    992a:	0f b6 44 05 b7       	movzbl -0x49(%rbp,%rax,1),%eax
    992f:	48 0f be c8          	movsbq %al,%rcx
    9933:	48 8b 85 98 d8 ff ff 	mov    -0x2768(%rbp),%rax
    993a:	48 89 08             	mov    %rcx,(%rax)
    993d:	48 8b 85 98 d8 ff ff 	mov    -0x2768(%rbp),%rax
    9944:	48 8b 00             	mov    (%rax),%rax
    9947:	48 89 d6             	mov    %rdx,%rsi
    994a:	48 89 c7             	mov    %rax,%rdi
    994d:	e8 dc d6 ff ff       	callq  702e <safe_add_func_uint64_t_u_u>
    9952:	89 c2                	mov    %eax,%edx
    9954:	48 8b 05 4d 17 01 00 	mov    0x1174d(%rip),%rax        # 1b0a8 <g_78>
    995b:	0f b7 00             	movzwl (%rax),%eax
    995e:	21 d0                	and    %edx,%eax
    9960:	0f be d0             	movsbl %al,%edx
    9963:	0f b7 05 5e e9 00 00 	movzwl 0xe95e(%rip),%eax        # 182c8 <g_496>
    996a:	98                   	cwtl   
    996b:	48 98                	cltq   
    996d:	0f b6 44 05 b7       	movzbl -0x49(%rbp,%rax,1),%eax
    9972:	0f be c0             	movsbl %al,%eax
    9975:	89 d6                	mov    %edx,%esi
    9977:	89 c7                	mov    %eax,%edi
    9979:	e8 94 c8 ff ff       	callq  6212 <safe_mul_func_int8_t_s_s>
    997e:	48 0f be c0          	movsbq %al,%rax
    9982:	48 ba 78 aa 99 9b 30 	movabs $0x29cc94309b99aa78,%rdx
    9989:	94 cc 29 
    998c:	48 31 d0             	xor    %rdx,%rax
    998f:	48 89 05 d2 e8 00 00 	mov    %rax,0xe8d2(%rip)        # 18268 <g_328>
    9996:	be 0e 00 00 00       	mov    $0xe,%esi
    999b:	bf 01 00 00 00       	mov    $0x1,%edi
    99a0:	e8 4d c8 ff ff       	callq  61f2 <safe_sub_func_int8_t_s_s>
    99a5:	48 0f be c0          	movsbq %al,%rax
    99a9:	be 00 00 00 00       	mov    $0x0,%esi
    99ae:	48 89 c7             	mov    %rax,%rdi
    99b1:	e8 8b ce ff ff       	callq  6841 <safe_add_func_int64_t_s_s>
    99b6:	0f b6 d0             	movzbl %al,%edx
    99b9:	0f b7 05 08 e9 00 00 	movzwl 0xe908(%rip),%eax        # 182c8 <g_496>
    99c0:	98                   	cwtl   
    99c1:	83 c0 01             	add    $0x1,%eax
    99c4:	48 98                	cltq   
    99c6:	0f b6 44 05 b7       	movzbl -0x49(%rbp,%rax,1),%eax
    99cb:	0f b6 c0             	movzbl %al,%eax
    99ce:	89 d6                	mov    %edx,%esi
    99d0:	89 c7                	mov    %eax,%edi
    99d2:	e8 a1 d1 ff ff       	callq  6b78 <safe_sub_func_uint8_t_u_u>
    99d7:	48 8b 95 10 d7 ff ff 	mov    -0x28f0(%rbp),%rdx
    99de:	8b 0a                	mov    (%rdx),%ecx
    99e0:	0f b6 d0             	movzbl %al,%edx
    99e3:	48 8b 85 10 d7 ff ff 	mov    -0x28f0(%rbp),%rax
    99ea:	31 ca                	xor    %ecx,%edx
    99ec:	89 10                	mov    %edx,(%rax)
    99ee:	8b 85 a0 d6 ff ff    	mov    -0x2960(%rbp),%eax
    99f4:	e9 be 50 00 00       	jmpq   eab7 <func_1+0x7302>
    99f9:	c6 85 83 d5 ff ff 27 	movb   $0x27,-0x2a7d(%rbp)
    9a00:	80 bd 83 d5 ff ff 00 	cmpb   $0x0,-0x2a7d(%rbp)
    9a07:	0f 85 69 05 00 00    	jne    9f76 <func_1+0x27c1>
    9a0d:	66 c7 05 8a e8 00 00 	movw   $0x0,0xe88a(%rip)        # 182a0 <g_371+0x10>
    9a14:	00 00 
    9a16:	90                   	nop
    9a17:	0f b7 05 82 e8 00 00 	movzwl 0xe882(%rip),%eax        # 182a0 <g_371+0x10>
    9a1e:	66 85 c0             	test   %ax,%ax
    9a21:	74 0f                	je     9a32 <func_1+0x227d>
    9a23:	48 8b 05 76 16 01 00 	mov    0x11676(%rip),%rax        # 1b0a0 <g_76>
    9a2a:	0f b7 00             	movzwl (%rax),%eax
    9a2d:	e9 85 50 00 00       	jmpq   eab7 <func_1+0x7302>
    9a32:	c7 85 20 d6 ff ff 04 	movl   $0x4,-0x29e0(%rbp)
    9a39:	00 00 00 
    9a3c:	e9 11 03 00 00       	jmpq   9d52 <func_1+0x259d>
    9a41:	48 c7 85 b0 d8 ff ff 	movq   $0x0,-0x2750(%rbp)
    9a48:	00 00 00 00 
    9a4c:	66 c7 85 a6 d5 ff ff 	movw   $0xfff8,-0x2a5a(%rbp)
    9a53:	f8 ff 
    9a55:	48 8d 85 d0 f7 ff ff 	lea    -0x830(%rbp),%rax
    9a5c:	48 05 98 02 00 00    	add    $0x298,%rax
    9a62:	48 89 85 b8 d8 ff ff 	mov    %rax,-0x2748(%rbp)
    9a69:	c7 05 ed e7 00 00 00 	movl   $0x0,0xe7ed(%rip)        # 18260 <g_289>
    9a70:	00 00 00 
    9a73:	eb 66                	jmp    9adb <func_1+0x2326>
    9a75:	48 8d 85 d0 e8 ff ff 	lea    -0x1730(%rbp),%rax
    9a7c:	48 89 85 c0 d8 ff ff 	mov    %rax,-0x2740(%rbp)
    9a83:	c7 85 a8 d6 ff ff 9f 	movl   $0x2152099f,-0x2958(%rbp)
    9a8a:	09 52 21 
    9a8d:	8b 0d cd e7 00 00    	mov    0xe7cd(%rip),%ecx        # 18260 <g_289>
    9a93:	8b 05 c7 e7 00 00    	mov    0xe7c7(%rip),%eax        # 18260 <g_289>
    9a99:	83 c0 03             	add    $0x3,%eax
    9a9c:	48 8d 95 70 dc ff ff 	lea    -0x2390(%rbp),%rdx
    9aa3:	89 c6                	mov    %eax,%esi
    9aa5:	89 c9                	mov    %ecx,%ecx
    9aa7:	48 89 c8             	mov    %rcx,%rax
    9aaa:	48 c1 e0 03          	shl    $0x3,%rax
    9aae:	48 01 c8             	add    %rcx,%rax
    9ab1:	48 01 f0             	add    %rsi,%rax
    9ab4:	48 c1 e0 03          	shl    $0x3,%rax
    9ab8:	48 01 c2             	add    %rax,%rdx
    9abb:	48 8b 85 c0 d8 ff ff 	mov    -0x2740(%rbp),%rax
    9ac2:	48 89 10             	mov    %rdx,(%rax)
    9ac5:	83 bd a8 d6 ff ff 00 	cmpl   $0x0,-0x2958(%rbp)
    9acc:	8b 05 8e e7 00 00    	mov    0xe78e(%rip),%eax        # 18260 <g_289>
    9ad2:	83 c0 01             	add    $0x1,%eax
    9ad5:	89 05 85 e7 00 00    	mov    %eax,0xe785(%rip)        # 18260 <g_289>
    9adb:	8b 05 7f e7 00 00    	mov    0xe77f(%rip),%eax        # 18260 <g_289>
    9ae1:	83 f8 03             	cmp    $0x3,%eax
    9ae4:	76 8f                	jbe    9a75 <func_1+0x22c0>
    9ae6:	48 8b 85 10 d7 ff ff 	mov    -0x28f0(%rbp),%rax
    9aed:	8b 10                	mov    (%rax),%edx
    9aef:	0f b7 05 d2 e7 00 00 	movzwl 0xe7d2(%rip),%eax        # 182c8 <g_496>
    9af6:	98                   	cwtl   
    9af7:	39 c2                	cmp    %eax,%edx
    9af9:	0f 9e c0             	setle  %al
    9afc:	0f b6 d8             	movzbl %al,%ebx
    9aff:	be 01 00 00 00       	mov    $0x1,%esi
    9b04:	bf 65 00 00 00       	mov    $0x65,%edi
    9b09:	e8 7f d1 ff ff       	callq  6c8d <safe_rshift_func_uint8_t_u_s>
    9b0e:	0f b6 c0             	movzbl %al,%eax
    9b11:	89 de                	mov    %ebx,%esi
    9b13:	89 c7                	mov    %eax,%edi
    9b15:	e8 ec d2 ff ff       	callq  6e06 <safe_lshift_func_uint16_t_u_u>
    9b1a:	0f b7 c0             	movzwl %ax,%eax
    9b1d:	48 21 85 b0 d8 ff ff 	and    %rax,-0x2750(%rbp)
    9b24:	48 8b 85 b0 d8 ff ff 	mov    -0x2750(%rbp),%rax
    9b2b:	0f bf d0             	movswl %ax,%edx
    9b2e:	48 8b 0d 73 15 01 00 	mov    0x11573(%rip),%rcx        # 1b0a8 <g_78>
    9b35:	48 8b 05 84 15 01 00 	mov    0x11584(%rip),%rax        # 1b0c0 <g_168>
    9b3c:	0f b7 09             	movzwl (%rcx),%ecx
    9b3f:	66 89 08             	mov    %cx,(%rax)
    9b42:	0f b7 00             	movzwl (%rax),%eax
    9b45:	98                   	cwtl   
    9b46:	89 d6                	mov    %edx,%esi
    9b48:	89 c7                	mov    %eax,%edi
    9b4a:	e8 64 c8 ff ff       	callq  63b3 <safe_add_func_int16_t_s_s>
    9b4f:	66 85 c0             	test   %ax,%ax
    9b52:	0f 84 84 00 00 00    	je     9bdc <func_1+0x2427>
    9b58:	66 c7 85 90 dd ff ff 	movw   $0xe367,-0x2270(%rbp)
    9b5f:	67 e3 
    9b61:	66 c7 85 92 dd ff ff 	movw   $0xe367,-0x226e(%rbp)
    9b68:	67 e3 
    9b6a:	66 c7 85 94 dd ff ff 	movw   $0xe367,-0x226c(%rbp)
    9b71:	67 e3 
    9b73:	66 c7 85 96 dd ff ff 	movw   $0xe367,-0x226a(%rbp)
    9b7a:	67 e3 
    9b7c:	66 c7 85 98 dd ff ff 	movw   $0xe367,-0x2268(%rbp)
    9b83:	67 e3 
    9b85:	66 c7 85 9a dd ff ff 	movw   $0xe367,-0x2266(%rbp)
    9b8c:	67 e3 
    9b8e:	66 c7 85 9c dd ff ff 	movw   $0xe367,-0x2264(%rbp)
    9b95:	67 e3 
    9b97:	66 c7 85 9e dd ff ff 	movw   $0xe367,-0x2262(%rbp)
    9b9e:	67 e3 
    9ba0:	48 8b 8d d0 d6 ff ff 	mov    -0x2930(%rbp),%rcx
    9ba7:	48 8b 05 42 e8 00 00 	mov    0xe842(%rip),%rax        # 183f0 <g_774>
    9bae:	48 8b 15 43 e8 00 00 	mov    0xe843(%rip),%rdx        # 183f8 <g_774+0x8>
    9bb5:	48 89 01             	mov    %rax,(%rcx)
    9bb8:	48 89 51 08          	mov    %rdx,0x8(%rcx)
    9bbc:	48 8b 05 3d e8 00 00 	mov    0xe83d(%rip),%rax        # 18400 <g_774+0x10>
    9bc3:	48 89 41 10          	mov    %rax,0x10(%rcx)
    9bc7:	0f b7 85 9c dd ff ff 	movzwl -0x2264(%rbp),%eax
    9bce:	66 85 c0             	test   %ax,%ax
    9bd1:	0f 84 49 01 00 00    	je     9d20 <func_1+0x256b>
    9bd7:	e9 83 01 00 00       	jmpq   9d5f <func_1+0x25aa>
    9bdc:	c7 85 a4 d6 ff ff 00 	movl   $0x0,-0x295c(%rbp)
    9be3:	00 00 00 
    9be6:	66 c7 85 a8 d5 ff ff 	movw   $0x0,-0x2a58(%rbp)
    9bed:	00 00 
    9bef:	0f b7 05 d2 e6 00 00 	movzwl 0xe6d2(%rip),%eax        # 182c8 <g_496>
    9bf6:	0f b7 d8             	movzwl %ax,%ebx
    9bf9:	48 8b 85 10 d7 ff ff 	mov    -0x28f0(%rbp),%rax
    9c00:	8b 00                	mov    (%rax),%eax
    9c02:	44 0f b6 e0          	movzbl %al,%r12d
    9c06:	48 8b 15 cb e6 00 00 	mov    0xe6cb(%rip),%rdx        # 182d8 <g_499+0x8>
    9c0d:	0f b7 05 f6 e7 00 00 	movzwl 0xe7f6(%rip),%eax        # 1840a <g_794>
    9c14:	0f b7 c0             	movzwl %ax,%eax
    9c17:	48 39 c2             	cmp    %rax,%rdx
    9c1a:	48 8b 85 10 d7 ff ff 	mov    -0x28f0(%rbp),%rax
    9c21:	8b 00                	mov    (%rax),%eax
    9c23:	83 c8 01             	or     $0x1,%eax
    9c26:	48 63 d0             	movslq %eax,%rdx
    9c29:	48 8b 05 30 e7 00 00 	mov    0xe730(%rip),%rax        # 18360 <g_692>
    9c30:	48 39 c2             	cmp    %rax,%rdx
    9c33:	8b 85 28 d7 ff ff    	mov    -0x28d8(%rbp),%eax
    9c39:	0f be d0             	movsbl %al,%edx
    9c3c:	0f b6 05 c5 e7 00 00 	movzbl 0xe7c5(%rip),%eax        # 18408 <g_793>
    9c43:	0f be c0             	movsbl %al,%eax
    9c46:	89 d6                	mov    %edx,%esi
    9c48:	89 c7                	mov    %eax,%edi
    9c4a:	e8 c3 c5 ff ff       	callq  6212 <safe_mul_func_int8_t_s_s>
    9c4f:	8b 85 a4 d6 ff ff    	mov    -0x295c(%rbp),%eax
    9c55:	89 c2                	mov    %eax,%edx
    9c57:	0f b7 85 a6 d5 ff ff 	movzwl -0x2a5a(%rbp),%eax
    9c5e:	21 d0                	and    %edx,%eax
    9c60:	66 89 85 a6 d5 ff ff 	mov    %ax,-0x2a5a(%rbp)
    9c67:	48 0f bf 85 a6 d5 ff 	movswq -0x2a5a(%rbp),%rax
    9c6e:	ff 
    9c6f:	48 ba 34 7a 08 8f cc 	movabs $0x6fed5ccc8f087a34,%rdx
    9c76:	5c ed 6f 
    9c79:	48 09 d0             	or     %rdx,%rax
    9c7c:	48 be c1 a6 d9 fa 6f 	movabs $0x1476206ffad9a6c1,%rsi
    9c83:	20 76 14 
    9c86:	48 89 c7             	mov    %rax,%rdi
    9c89:	e8 bd d3 ff ff       	callq  704b <safe_sub_func_uint64_t_u_u>
    9c8e:	be d5 70 02 a3       	mov    $0xa30270d5,%esi
    9c93:	89 c7                	mov    %eax,%edi
    9c95:	e8 63 d2 ff ff       	callq  6efd <safe_mod_func_uint32_t_u_u>
    9c9a:	0f b6 c0             	movzbl %al,%eax
    9c9d:	44 89 e6             	mov    %r12d,%esi
    9ca0:	89 c7                	mov    %eax,%edi
    9ca2:	e8 ec ce ff ff       	callq  6b93 <safe_mul_func_uint8_t_u_u>
    9ca7:	0f b6 c0             	movzbl %al,%eax
    9caa:	be 00 00 00 00       	mov    $0x0,%esi
    9caf:	89 c7                	mov    %eax,%edi
    9cb1:	e8 4f cf ff ff       	callq  6c05 <safe_lshift_func_uint8_t_u_s>
    9cb6:	be dc 4d 00 00       	mov    $0x4ddc,%esi
    9cbb:	bf 01 00 00 00       	mov    $0x1,%edi
    9cc0:	e8 ee c6 ff ff       	callq  63b3 <safe_add_func_int16_t_s_s>
    9cc5:	0f b7 c0             	movzwl %ax,%eax
    9cc8:	89 de                	mov    %ebx,%esi
    9cca:	89 c7                	mov    %eax,%edi
    9ccc:	e8 8b d0 ff ff       	callq  6d5c <safe_mod_func_uint16_t_u_u>
    9cd1:	48 8b 05 e8 13 01 00 	mov    0x113e8(%rip),%rax        # 1b0c0 <g_168>
    9cd8:	0f b7 00             	movzwl (%rax),%eax
    9cdb:	66 85 c0             	test   %ax,%ax
    9cde:	75 09                	jne    9ce9 <func_1+0x2534>
    9ce0:	83 bd 88 d6 ff ff 00 	cmpl   $0x0,-0x2978(%rbp)
    9ce7:	74 07                	je     9cf0 <func_1+0x253b>
    9ce9:	ba 01 00 00 00       	mov    $0x1,%edx
    9cee:	eb 05                	jmp    9cf5 <func_1+0x2540>
    9cf0:	ba 00 00 00 00       	mov    $0x0,%edx
    9cf5:	48 8b 85 10 d7 ff ff 	mov    -0x28f0(%rbp),%rax
    9cfc:	89 10                	mov    %edx,(%rax)
    9cfe:	48 8b 05 eb 15 01 00 	mov    0x115eb(%rip),%rax        # 1b2f0 <g_800>
    9d05:	48 8b 15 dc 15 01 00 	mov    0x115dc(%rip),%rdx        # 1b2e8 <g_797>
    9d0c:	48 89 10             	mov    %rdx,(%rax)
    9d0f:	48 8b 85 d8 d6 ff ff 	mov    -0x2928(%rbp),%rax
    9d16:	48 8d 95 cc d5 ff ff 	lea    -0x2a34(%rbp),%rdx
    9d1d:	48 89 10             	mov    %rdx,(%rax)
    9d20:	48 c7 05 35 e6 00 00 	movq   $0x1,0xe635(%rip)        # 18360 <g_692>
    9d27:	01 00 00 00 
    9d2b:	90                   	nop
    9d2c:	48 8b 05 2d e6 00 00 	mov    0xe62d(%rip),%rax        # 18360 <g_692>
    9d33:	48 83 f8 05          	cmp    $0x5,%rax
    9d37:	7f 12                	jg     9d4b <func_1+0x2596>
    9d39:	48 8b 05 98 15 01 00 	mov    0x11598(%rip),%rax        # 1b2d8 <g_799>
    9d40:	48 8b 00             	mov    (%rax),%rax
    9d43:	0f b7 00             	movzwl (%rax),%eax
    9d46:	e9 6c 4d 00 00       	jmpq   eab7 <func_1+0x7302>
    9d4b:	83 ad 20 d6 ff ff 01 	subl   $0x1,-0x29e0(%rbp)
    9d52:	83 bd 20 d6 ff ff 00 	cmpl   $0x0,-0x29e0(%rbp)
    9d59:	0f 8f e2 fc ff ff    	jg     9a41 <func_1+0x228c>
    9d5f:	8b 85 cc d5 ff ff    	mov    -0x2a34(%rbp),%eax
    9d65:	89 85 6c d5 ff ff    	mov    %eax,-0x2a94(%rbp)
    9d6b:	0f b6 05 c9 ae 00 00 	movzbl 0xaec9(%rip),%eax        # 14c3b <l_868.4231+0x2>
    9d72:	0f be d8             	movsbl %al,%ebx
    9d75:	8b 05 a9 e2 00 00    	mov    0xe2a9(%rip),%eax        # 18024 <g_27>
    9d7b:	89 c0                	mov    %eax,%eax
    9d7d:	48 89 85 60 d5 ff ff 	mov    %rax,-0x2aa0(%rbp)
    9d84:	4c 8b 35 6d e5 00 00 	mov    0xe56d(%rip),%r14        # 182f8 <g_502+0x8>
    9d8b:	80 bd 7b d5 ff ff 00 	cmpb   $0x0,-0x2a85(%rbp)
    9d92:	0f 85 4c 01 00 00    	jne    9ee4 <func_1+0x272f>
    9d98:	48 8b 05 21 13 01 00 	mov    0x11321(%rip),%rax        # 1b0c0 <g_168>
    9d9f:	0f b7 00             	movzwl (%rax),%eax
    9da2:	44 0f b7 e0          	movzwl %ax,%r12d
    9da6:	0f b7 05 3b 1a 01 00 	movzwl 0x11a3b(%rip),%eax        # 1b7e8 <g_75>
    9dad:	44 0f bf e8          	movswl %ax,%r13d
    9db1:	48 c7 85 b8 db ff ff 	movq   $0x0,-0x2448(%rbp)
    9db8:	00 00 00 00 
    9dbc:	48 8b 95 b8 db ff ff 	mov    -0x2448(%rbp),%rdx
    9dc3:	48 8b 05 ae 15 01 00 	mov    0x115ae(%rip),%rax        # 1b378 <g_849>
    9dca:	48 89 05 a7 15 01 00 	mov    %rax,0x115a7(%rip)        # 1b378 <g_849>
    9dd1:	48 8b 05 a0 15 01 00 	mov    0x115a0(%rip),%rax        # 1b378 <g_849>
    9dd8:	48 39 c2             	cmp    %rax,%rdx
    9ddb:	0f 95 c0             	setne  %al
    9dde:	44 0f b6 f8          	movzbl %al,%r15d
    9de2:	48 8b 85 10 d7 ff ff 	mov    -0x28f0(%rbp),%rax
    9de9:	8b 08                	mov    (%rax),%ecx
    9deb:	0f be 95 7c d5 ff ff 	movsbl -0x2a84(%rbp),%edx
    9df2:	48 8b 85 10 d7 ff ff 	mov    -0x28f0(%rbp),%rax
    9df9:	21 ca                	and    %ecx,%edx
    9dfb:	89 10                	mov    %edx,(%rax)
    9dfd:	8b 00                	mov    (%rax),%eax
    9dff:	85 c0                	test   %eax,%eax
    9e01:	74 50                	je     9e53 <func_1+0x269e>
    9e03:	48 8b 85 10 d7 ff ff 	mov    -0x28f0(%rbp),%rax
    9e0a:	8b 00                	mov    (%rax),%eax
    9e0c:	0f bf d0             	movswl %ax,%edx
    9e0f:	48 8b 05 aa 12 01 00 	mov    0x112aa(%rip),%rax        # 1b0c0 <g_168>
    9e16:	0f b7 00             	movzwl (%rax),%eax
    9e19:	98                   	cwtl   
    9e1a:	89 d6                	mov    %edx,%esi
    9e1c:	89 c7                	mov    %eax,%edi
    9e1e:	e8 b0 c5 ff ff       	callq  63d3 <safe_sub_func_int16_t_s_s>
    9e23:	0f be c0             	movsbl %al,%eax
    9e26:	be b4 ff ff ff       	mov    $0xffffffb4,%esi
    9e2b:	89 c7                	mov    %eax,%edi
    9e2d:	e8 c0 c3 ff ff       	callq  61f2 <safe_sub_func_int8_t_s_s>
    9e32:	48 8b 05 df e3 00 00 	mov    0xe3df(%rip),%rax        # 18218 <g_206+0x38>
    9e39:	8b 15 21 e4 00 00    	mov    0xe421(%rip),%edx        # 18260 <g_289>
    9e3f:	89 d2                	mov    %edx,%edx
    9e41:	48 31 d0             	xor    %rdx,%rax
    9e44:	48 3d d0 aa 00 00    	cmp    $0xaad0,%rax
    9e4a:	76 07                	jbe    9e53 <func_1+0x269e>
    9e4c:	b8 01 00 00 00       	mov    $0x1,%eax
    9e51:	eb 05                	jmp    9e58 <func_1+0x26a3>
    9e53:	b8 00 00 00 00       	mov    $0x0,%eax
    9e58:	0f be c0             	movsbl %al,%eax
    9e5b:	be 03 00 00 00       	mov    $0x3,%esi
    9e60:	89 c7                	mov    %eax,%edi
    9e62:	e8 ca c3 ff ff       	callq  6231 <safe_mod_func_int8_t_s_s>
    9e67:	48 8b 95 68 da ff ff 	mov    -0x2598(%rbp),%rdx
    9e6e:	48 8b 85 a8 d8 ff ff 	mov    -0x2758(%rbp),%rax
    9e75:	48 89 10             	mov    %rdx,(%rax)
    9e78:	48 8b 85 a8 d8 ff ff 	mov    -0x2758(%rbp),%rax
    9e7f:	48 8b 10             	mov    (%rax),%rdx
    9e82:	48 8b 85 38 d7 ff ff 	mov    -0x28c8(%rbp),%rax
    9e89:	48 39 c2             	cmp    %rax,%rdx
    9e8c:	0f 94 c0             	sete   %al
    9e8f:	0f b6 c0             	movzbl %al,%eax
    9e92:	41 39 c7             	cmp    %eax,%r15d
    9e95:	0f 9d c0             	setge  %al
    9e98:	0f b6 c0             	movzbl %al,%eax
    9e9b:	44 89 ee             	mov    %r13d,%esi
    9e9e:	89 c7                	mov    %eax,%edi
    9ea0:	e8 a7 cd ff ff       	callq  6c4c <safe_lshift_func_uint8_t_u_u>
    9ea5:	48 8b 85 b0 d7 ff ff 	mov    -0x2850(%rbp),%rax
    9eac:	48 3b 85 78 d7 ff ff 	cmp    -0x2888(%rbp),%rax
    9eb3:	0f 94 c0             	sete   %al
    9eb6:	0f b6 c0             	movzbl %al,%eax
    9eb9:	44 89 e6             	mov    %r12d,%esi
    9ebc:	89 c7                	mov    %eax,%edi
    9ebe:	e8 cb ce ff ff       	callq  6d8e <safe_div_func_uint16_t_u_u>
    9ec3:	0f b7 c0             	movzwl %ax,%eax
    9ec6:	be 06 00 00 00       	mov    $0x6,%esi
    9ecb:	89 c7                	mov    %eax,%edi
    9ecd:	e8 76 cf ff ff       	callq  6e48 <safe_rshift_func_uint16_t_u_s>
    9ed2:	0f b7 c0             	movzwl %ax,%eax
    9ed5:	8b 95 8c d6 ff ff    	mov    -0x2974(%rbp),%edx
    9edb:	89 d6                	mov    %edx,%esi
    9edd:	89 c7                	mov    %eax,%edi
    9edf:	e8 d4 cf ff ff       	callq  6eb8 <safe_add_func_uint32_t_u_u>
    9ee4:	b8 01 00 00 00       	mov    $0x1,%eax
    9ee9:	48 98                	cltq   
    9eeb:	4c 31 f0             	xor    %r14,%rax
    9eee:	48 8b b5 60 d5 ff ff 	mov    -0x2aa0(%rbp),%rsi
    9ef5:	48 89 c7             	mov    %rax,%rdi
    9ef8:	e8 ab c9 ff ff       	callq  68a8 <safe_sub_func_int64_t_s_s>
    9efd:	89 de                	mov    %ebx,%esi
    9eff:	89 c7                	mov    %eax,%edi
    9f01:	e8 ca cf ff ff       	callq  6ed0 <safe_sub_func_uint32_t_u_u>
    9f06:	8b b5 6c d5 ff ff    	mov    -0x2a94(%rbp),%esi
    9f0c:	89 c7                	mov    %eax,%edi
    9f0e:	e8 a5 cf ff ff       	callq  6eb8 <safe_add_func_uint32_t_u_u>
    9f13:	0f b7 95 a4 d5 ff ff 	movzwl -0x2a5c(%rbp),%edx
    9f1a:	48 8b 85 70 d7 ff ff 	mov    -0x2890(%rbp),%rax
    9f21:	0f b6 00             	movzbl (%rax),%eax
    9f24:	21 c2                	and    %eax,%edx
    9f26:	48 8b 85 70 d7 ff ff 	mov    -0x2890(%rbp),%rax
    9f2d:	88 10                	mov    %dl,(%rax)
    9f2f:	48 8b 85 70 d7 ff ff 	mov    -0x2890(%rbp),%rax
    9f36:	0f b6 00             	movzbl (%rax),%eax
    9f39:	3c ff                	cmp    $0xff,%al
    9f3b:	0f 9d c0             	setge  %al
    9f3e:	0f b6 c0             	movzbl %al,%eax
    9f41:	89 85 9c d6 ff ff    	mov    %eax,-0x2964(%rbp)
    9f47:	48 8b 85 10 d7 ff ff 	mov    -0x28f0(%rbp),%rax
    9f4e:	8b 00                	mov    (%rax),%eax
    9f50:	85 c0                	test   %eax,%eax
    9f52:	0f b7 05 1d e3 00 00 	movzwl 0xe31d(%rip),%eax        # 18276 <g_342+0x6>
    9f59:	83 c0 01             	add    $0x1,%eax
    9f5c:	66 89 05 13 e3 00 00 	mov    %ax,0xe313(%rip)        # 18276 <g_342+0x6>
    9f63:	0f b7 05 0c e3 00 00 	movzwl 0xe30c(%rip),%eax        # 18276 <g_342+0x6>
    9f6a:	66 83 f8 28          	cmp    $0x28,%ax
    9f6e:	0f 87 58 f7 ff ff    	ja     96cc <func_1+0x1f17>
    9f74:	eb 01                	jmp    9f77 <func_1+0x27c2>
    9f76:	90                   	nop
    9f77:	66 c7 05 50 e2 00 00 	movw   $0x19,0xe250(%rip)        # 181d0 <g_125>
    9f7e:	19 00 
    9f80:	eb 57                	jmp    9fd9 <func_1+0x2824>
    9f82:	48 8d 85 cc d5 ff ff 	lea    -0x2a34(%rbp),%rax
    9f89:	48 89 85 48 d7 ff ff 	mov    %rax,-0x28b8(%rbp)
    9f90:	48 8d 85 48 d7 ff ff 	lea    -0x28b8(%rbp),%rax
    9f97:	48 89 85 10 d9 ff ff 	mov    %rax,-0x26f0(%rbp)
    9f9e:	48 8b 05 23 11 01 00 	mov    0x11123(%rip),%rax        # 1b0c8 <g_213>
    9fa5:	48 8d 95 cc d5 ff ff 	lea    -0x2a34(%rbp),%rdx
    9fac:	48 89 10             	mov    %rdx,(%rax)
    9faf:	48 8b 10             	mov    (%rax),%rdx
    9fb2:	48 8b 85 10 d9 ff ff 	mov    -0x26f0(%rbp),%rax
    9fb9:	48 89 10             	mov    %rdx,(%rax)
    9fbc:	0f b7 05 0d e2 00 00 	movzwl 0xe20d(%rip),%eax        # 181d0 <g_125>
    9fc3:	0f b7 c0             	movzwl %ax,%eax
    9fc6:	be 02 00 00 00       	mov    $0x2,%esi
    9fcb:	89 c7                	mov    %eax,%edi
    9fcd:	e8 e4 c5 ff ff       	callq  65b6 <safe_add_func_int32_t_s_s>
    9fd2:	66 89 05 f7 e1 00 00 	mov    %ax,0xe1f7(%rip)        # 181d0 <g_125>
    9fd9:	0f b7 05 f0 e1 00 00 	movzwl 0xe1f0(%rip),%eax        # 181d0 <g_125>
    9fe0:	66 83 f8 22          	cmp    $0x22,%ax
    9fe4:	77 9c                	ja     9f82 <func_1+0x27cd>
    9fe6:	48 8b 85 10 d7 ff ff 	mov    -0x28f0(%rbp),%rax
    9fed:	8b 00                	mov    (%rax),%eax
    9fef:	85 c0                	test   %eax,%eax
    9ff1:	0f 84 d6 0b 00 00    	je     abcd <func_1+0x3418>
    9ff7:	48 c7 85 d0 d8 ff ff 	movq   $0x2,-0x2730(%rbp)
    9ffe:	02 00 00 00 
    a002:	48 8d 85 60 da ff ff 	lea    -0x25a0(%rbp),%rax
    a009:	48 83 c0 30          	add    $0x30,%rax
    a00d:	48 89 85 48 d7 ff ff 	mov    %rax,-0x28b8(%rbp)
    a014:	48 8d 85 48 d7 ff ff 	lea    -0x28b8(%rbp),%rax
    a01b:	48 89 85 d8 d8 ff ff 	mov    %rax,-0x2728(%rbp)
    a022:	48 8d 05 37 e3 00 00 	lea    0xe337(%rip),%rax        # 18360 <g_692>
    a029:	48 89 85 e0 d8 ff ff 	mov    %rax,-0x2720(%rbp)
    a030:	c6 85 84 d5 ff ff 00 	movb   $0x0,-0x2a7c(%rbp)
    a037:	c7 85 a0 d9 ff ff 00 	movl   $0xf9a90000,-0x2660(%rbp)
    a03e:	00 a9 f9 
    a041:	c7 85 a4 d9 ff ff 01 	movl   $0xa901ad01,-0x265c(%rbp)
    a048:	ad 01 a9 
    a04b:	c7 85 a8 d9 ff ff 01 	movl   $0x1a9a901,-0x2658(%rbp)
    a052:	a9 a9 01 
    a055:	c7 85 ac d9 ff ff 00 	movl   $0xa9f9a900,-0x2654(%rbp)
    a05c:	a9 f9 a9 
    a05f:	c7 85 b0 d9 ff ff a9 	movl   $0xf9f9ada9,-0x2650(%rbp)
    a066:	ad f9 f9 
    a069:	c7 85 b4 d9 ff ff 00 	movl   $0xf9a90000,-0x264c(%rbp)
    a070:	00 a9 f9 
    a073:	c7 85 b8 d9 ff ff 01 	movl   $0xa901ad01,-0x2648(%rbp)
    a07a:	ad 01 a9 
    a07d:	c7 85 bc d9 ff ff 01 	movl   $0x1a9a901,-0x2644(%rbp)
    a084:	a9 a9 01 
    a087:	c7 85 c0 d9 ff ff 00 	movl   $0xa9f9a900,-0x2640(%rbp)
    a08e:	a9 f9 a9 
    a091:	c7 85 ac d6 ff ff d7 	movl   $0x4b34e4d7,-0x2954(%rbp)
    a098:	e4 34 4b 
    a09b:	c7 85 04 d6 ff ff 00 	movl   $0x0,-0x29fc(%rbp)
    a0a2:	00 00 00 
    a0a5:	eb 1e                	jmp    a0c5 <func_1+0x2910>
    a0a7:	8b 85 04 d6 ff ff    	mov    -0x29fc(%rbp),%eax
    a0ad:	48 98                	cltq   
    a0af:	48 8d 95 10 d7 ff ff 	lea    -0x28f0(%rbp),%rdx
    a0b6:	48 89 94 c5 b0 db ff 	mov    %rdx,-0x2450(%rbp,%rax,8)
    a0bd:	ff 
    a0be:	83 85 04 d6 ff ff 01 	addl   $0x1,-0x29fc(%rbp)
    a0c5:	83 bd 04 d6 ff ff 05 	cmpl   $0x5,-0x29fc(%rbp)
    a0cc:	7e d9                	jle    a0a7 <func_1+0x28f2>
    a0ce:	48 8b 05 0b 10 01 00 	mov    0x1100b(%rip),%rax        # 1b0e0 <g_281>
    a0d5:	48 8b 85 d0 d8 ff ff 	mov    -0x2730(%rbp),%rax
    a0dc:	0f bf d8             	movswl %ax,%ebx
    a0df:	0f b7 05 1a e2 00 00 	movzwl 0xe21a(%rip),%eax        # 18300 <g_502+0x10>
    a0e6:	0f bf d0             	movswl %ax,%edx
    a0e9:	0f bf 8d 98 d5 ff ff 	movswl -0x2a68(%rbp),%ecx
    a0f0:	0f b7 85 9a d5 ff ff 	movzwl -0x2a66(%rbp),%eax
    a0f7:	39 c1                	cmp    %eax,%ecx
    a0f9:	0f 9e c1             	setle  %cl
    a0fc:	48 8b 05 d5 11 01 00 	mov    0x111d5(%rip),%rax        # 1b2d8 <g_799>
    a103:	48 8b 00             	mov    (%rax),%rax
    a106:	0f b6 c9             	movzbl %cl,%ecx
    a109:	66 89 08             	mov    %cx,(%rax)
    a10c:	0f b7 00             	movzwl (%rax),%eax
    a10f:	98                   	cwtl   
    a110:	89 d6                	mov    %edx,%esi
    a112:	89 c7                	mov    %eax,%edi
    a114:	e8 dc c2 ff ff       	callq  63f5 <safe_mul_func_int16_t_s_s>
    a119:	98                   	cwtl   
    a11a:	be 8a d5 ff ff       	mov    $0xffffd58a,%esi
    a11f:	89 c7                	mov    %eax,%edi
    a121:	e8 2f c3 ff ff       	callq  6455 <safe_div_func_int16_t_s_s>
    a126:	48 0f bf d0          	movswq %ax,%rdx
    a12a:	48 c7 05 43 e1 00 00 	movq   $0x0,0xe143(%rip)        # 18278 <g_342+0x8>
    a131:	00 00 00 00 
    a135:	48 8b 05 3c e1 00 00 	mov    0xe13c(%rip),%rax        # 18278 <g_342+0x8>
    a13c:	48 89 d6             	mov    %rdx,%rsi
    a13f:	48 89 c7             	mov    %rax,%rdi
    a142:	e8 68 cf ff ff       	callq  70af <safe_div_func_uint64_t_u_u>
    a147:	48 b8 23 94 c3 52 f4 	movabs $0xa12e12f452c39423,%rax
    a14e:	12 2e a1 
    a151:	48 85 c0             	test   %rax,%rax
    a154:	74 07                	je     a15d <func_1+0x29a8>
    a156:	b8 01 00 00 00       	mov    $0x1,%eax
    a15b:	eb 05                	jmp    a162 <func_1+0x29ad>
    a15d:	b8 00 00 00 00       	mov    $0x0,%eax
    a162:	48 98                	cltq   
    a164:	48 be 3d 9c d2 6a 81 	movabs $0x746e9c816ad29c3d,%rsi
    a16b:	9c 6e 74 
    a16e:	48 89 c7             	mov    %rax,%rdi
    a171:	e8 b8 ce ff ff       	callq  702e <safe_add_func_uint64_t_u_u>
    a176:	48 85 c0             	test   %rax,%rax
    a179:	48 83 bd d0 d8 ff ff 	cmpq   $0x0,-0x2730(%rbp)
    a180:	00 
    a181:	0f 95 c0             	setne  %al
    a184:	0f b6 c0             	movzbl %al,%eax
    a187:	89 de                	mov    %ebx,%esi
    a189:	89 c7                	mov    %eax,%edi
    a18b:	e8 c5 c2 ff ff       	callq  6455 <safe_div_func_int16_t_s_s>
    a190:	0f bf d0             	movswl %ax,%edx
    a193:	0f b6 85 7d d5 ff ff 	movzbl -0x2a83(%rbp),%eax
    a19a:	39 c2                	cmp    %eax,%edx
    a19c:	0f 9d c2             	setge  %dl
    a19f:	48 8b 85 10 d7 ff ff 	mov    -0x28f0(%rbp),%rax
    a1a6:	0f b6 d2             	movzbl %dl,%edx
    a1a9:	89 10                	mov    %edx,(%rax)
    a1ab:	8b 00                	mov    (%rax),%eax
    a1ad:	85 c0                	test   %eax,%eax
    a1af:	0f 84 d7 04 00 00    	je     a68c <func_1+0x2ed7>
    a1b5:	66 c7 85 ac d5 ff ff 	movw   $0xe96,-0x2a54(%rbp)
    a1bc:	96 0e 
    a1be:	66 c7 85 ae d5 ff ff 	movw   $0x7bfe,-0x2a52(%rbp)
    a1c5:	fe 7b 
    a1c7:	48 8d 05 e2 0e 01 00 	lea    0x10ee2(%rip),%rax        # 1b0b0 <g_116>
    a1ce:	48 89 85 00 d9 ff ff 	mov    %rax,-0x2700(%rbp)
    a1d5:	48 8d 05 ba e0 00 00 	lea    0xe0ba(%rip),%rax        # 18296 <g_371+0x6>
    a1dc:	48 89 85 08 d9 ff ff 	mov    %rax,-0x26f8(%rbp)
    a1e3:	48 c7 85 90 dd ff ff 	movq   $0x1,-0x2270(%rbp)
    a1ea:	01 00 00 00 
    a1ee:	48 c7 85 98 dd ff ff 	movq   $0x6,-0x2268(%rbp)
    a1f5:	06 00 00 00 
    a1f9:	48 c7 85 a0 dd ff ff 	movq   $0x1,-0x2260(%rbp)
    a200:	01 00 00 00 
    a204:	48 c7 85 a8 dd ff ff 	movq   $0x1,-0x2258(%rbp)
    a20b:	01 00 00 00 
    a20f:	48 c7 85 b0 dd ff ff 	movq   $0x6,-0x2250(%rbp)
    a216:	06 00 00 00 
    a21a:	48 c7 85 b8 dd ff ff 	movq   $0x1,-0x2248(%rbp)
    a221:	01 00 00 00 
    a225:	c7 85 08 d6 ff ff 9c 	movl   $0x4c18da9c,-0x29f8(%rbp)
    a22c:	da 18 4c 
    a22f:	c7 85 0c d6 ff ff 00 	movl   $0x0,-0x29f4(%rbp)
    a236:	00 00 00 
    a239:	eb 1a                	jmp    a255 <func_1+0x2aa0>
    a23b:	8b 85 0c d6 ff ff    	mov    -0x29f4(%rbp),%eax
    a241:	48 98                	cltq   
    a243:	c7 84 85 00 db ff ff 	movl   $0x64b237ee,-0x2500(%rbp,%rax,4)
    a24a:	ee 37 b2 64 
    a24e:	83 85 0c d6 ff ff 01 	addl   $0x1,-0x29f4(%rbp)
    a255:	83 bd 0c d6 ff ff 09 	cmpl   $0x9,-0x29f4(%rbp)
    a25c:	7e dd                	jle    a23b <func_1+0x2a86>
    a25e:	48 8b 15 83 10 01 00 	mov    0x11083(%rip),%rdx        # 1b2e8 <g_797>
    a265:	48 8b 05 7c 10 01 00 	mov    0x1107c(%rip),%rax        # 1b2e8 <g_797>
    a26c:	48 8b 12             	mov    (%rdx),%rdx
    a26f:	48 89 10             	mov    %rdx,(%rax)
    a272:	48 83 bd d0 d8 ff ff 	cmpq   $0x0,-0x2730(%rbp)
    a279:	00 
    a27a:	74 0f                	je     a28b <func_1+0x2ad6>
    a27c:	48 8b 05 3d 0e 01 00 	mov    0x10e3d(%rip),%rax        # 1b0c0 <g_168>
    a283:	0f b7 00             	movzwl (%rax),%eax
    a286:	e9 2c 48 00 00       	jmpq   eab7 <func_1+0x7302>
    a28b:	66 c7 85 b0 d5 ff ff 	movw   $0x53ab,-0x2a50(%rbp)
    a292:	ab 53 
    a294:	66 83 bd ac d5 ff ff 	cmpw   $0x0,-0x2a54(%rbp)
    a29b:	00 
    a29c:	0f 85 af 00 00 00    	jne    a351 <func_1+0x2b9c>
    a2a2:	48 8b 05 37 10 01 00 	mov    0x11037(%rip),%rax        # 1b2e0 <g_798>
    a2a9:	48 8b 00             	mov    (%rax),%rax
    a2ac:	48 8b 00             	mov    (%rax),%rax
    a2af:	0f b7 00             	movzwl (%rax),%eax
    a2b2:	0f bf d0             	movswl %ax,%edx
    a2b5:	48 8b 85 10 d7 ff ff 	mov    -0x28f0(%rbp),%rax
    a2bc:	8b 00                	mov    (%rax),%eax
    a2be:	89 85 94 d6 ff ff    	mov    %eax,-0x296c(%rbp)
    a2c4:	8b 85 94 d6 ff ff    	mov    -0x296c(%rbp),%eax
    a2ca:	89 c1                	mov    %eax,%ecx
    a2cc:	48 8b 85 d0 d8 ff ff 	mov    -0x2730(%rbp),%rax
    a2d3:	31 c8                	xor    %ecx,%eax
    a2d5:	0f b7 c0             	movzwl %ax,%eax
    a2d8:	89 d6                	mov    %edx,%esi
    a2da:	89 c7                	mov    %eax,%edi
    a2dc:	e8 dd ca ff ff       	callq  6dbe <safe_lshift_func_uint16_t_u_s>
    a2e1:	48 8b 85 10 d7 ff ff 	mov    -0x28f0(%rbp),%rax
    a2e8:	8b 10                	mov    (%rax),%edx
    a2ea:	8b 85 c4 d5 ff ff    	mov    -0x2a3c(%rbp),%eax
    a2f0:	39 c2                	cmp    %eax,%edx
    a2f2:	75 07                	jne    a2fb <func_1+0x2b46>
    a2f4:	ba fb 00 00 00       	mov    $0xfb,%edx
    a2f9:	eb 05                	jmp    a300 <func_1+0x2b4b>
    a2fb:	ba fa 00 00 00       	mov    $0xfa,%edx
    a300:	48 8b 05 d9 0f 01 00 	mov    0x10fd9(%rip),%rax        # 1b2e0 <g_798>
    a307:	48 8b 00             	mov    (%rax),%rax
    a30a:	48 8b 00             	mov    (%rax),%rax
    a30d:	66 89 10             	mov    %dx,(%rax)
    a310:	0f b7 00             	movzwl (%rax),%eax
    a313:	66 89 85 b0 d5 ff ff 	mov    %ax,-0x2a50(%rbp)
    a31a:	0f b7 95 b0 d5 ff ff 	movzwl -0x2a50(%rbp),%edx
    a321:	48 8b 85 d8 db ff ff 	mov    -0x2428(%rbp),%rax
    a328:	48 89 85 d8 db ff ff 	mov    %rax,-0x2428(%rbp)
    a32f:	48 8b 85 d8 db ff ff 	mov    -0x2428(%rbp),%rax
    a336:	48 39 85 00 d9 ff ff 	cmp    %rax,-0x2700(%rbp)
    a33d:	0f 95 c0             	setne  %al
    a340:	0f b6 c0             	movzbl %al,%eax
    a343:	89 d6                	mov    %edx,%esi
    a345:	89 c7                	mov    %eax,%edi
    a347:	e8 b3 c9 ff ff       	callq  6cff <safe_add_func_uint16_t_u_u>
    a34c:	66 85 c0             	test   %ax,%ax
    a34f:	74 07                	je     a358 <func_1+0x2ba3>
    a351:	ba 01 00 00 00       	mov    $0x1,%edx
    a356:	eb 05                	jmp    a35d <func_1+0x2ba8>
    a358:	ba 00 00 00 00       	mov    $0x0,%edx
    a35d:	48 8b 85 10 d7 ff ff 	mov    -0x28f0(%rbp),%rax
    a364:	89 10                	mov    %edx,(%rax)
    a366:	8b 00                	mov    (%rax),%eax
    a368:	89 c6                	mov    %eax,%esi
    a36a:	bf 99 04 59 c6       	mov    $0xc6590499,%edi
    a36f:	e8 58 c3 ff ff       	callq  66cc <safe_mod_func_int32_t_s_s>
    a374:	48 8b 95 b0 dd ff ff 	mov    -0x2250(%rbp),%rdx
    a37b:	48 98                	cltq   
    a37d:	48 31 d0             	xor    %rdx,%rax
    a380:	48 89 85 b0 dd ff ff 	mov    %rax,-0x2250(%rbp)
    a387:	48 8b 05 12 0d 01 00 	mov    0x10d12(%rip),%rax        # 1b0a0 <g_76>
    a38e:	0f b7 00             	movzwl (%rax),%eax
    a391:	b9 01 00 00 00       	mov    $0x1,%ecx
    a396:	48 8b 85 10 d7 ff ff 	mov    -0x28f0(%rbp),%rax
    a39d:	8b 10                	mov    (%rax),%edx
    a39f:	48 8b 85 10 d7 ff ff 	mov    -0x28f0(%rbp),%rax
    a3a6:	21 ca                	and    %ecx,%edx
    a3a8:	89 10                	mov    %edx,(%rax)
    a3aa:	48 8b 35 2f 0d 01 00 	mov    0x10d2f(%rip),%rsi        # 1b0e0 <g_281>
    a3b1:	48 8b 0d 28 0d 01 00 	mov    0x10d28(%rip),%rcx        # 1b0e0 <g_281>
    a3b8:	48 8b 06             	mov    (%rsi),%rax
    a3bb:	48 8b 56 08          	mov    0x8(%rsi),%rdx
    a3bf:	48 89 01             	mov    %rax,(%rcx)
    a3c2:	48 89 51 08          	mov    %rdx,0x8(%rcx)
    a3c6:	48 8b 46 10          	mov    0x10(%rsi),%rax
    a3ca:	48 89 41 10          	mov    %rax,0x10(%rcx)
    a3ce:	48 8b 8d 08 d7 ff ff 	mov    -0x28f8(%rbp),%rcx
    a3d5:	48 8b 05 34 e0 00 00 	mov    0xe034(%rip),%rax        # 18410 <g_921>
    a3dc:	48 8b 15 35 e0 00 00 	mov    0xe035(%rip),%rdx        # 18418 <g_921+0x8>
    a3e3:	48 89 01             	mov    %rax,(%rcx)
    a3e6:	48 89 51 08          	mov    %rdx,0x8(%rcx)
    a3ea:	48 8b 05 2f e0 00 00 	mov    0xe02f(%rip),%rax        # 18420 <g_921+0x10>
    a3f1:	48 89 41 10          	mov    %rax,0x10(%rcx)
    a3f5:	48 c7 85 58 d7 ff ff 	movq   $0x3,-0x28a8(%rbp)
    a3fc:	03 00 00 00 
    a400:	e9 33 02 00 00       	jmpq   a638 <func_1+0x2e83>
    a405:	c7 85 d0 d9 ff ff f7 	movl   $0xfffffff7,-0x2630(%rbp)
    a40c:	ff ff ff 
    a40f:	c7 85 d4 d9 ff ff 32 	movl   $0xa1fa0732,-0x262c(%rbp)
    a416:	07 fa a1 
    a419:	c7 85 d8 d9 ff ff 32 	movl   $0xa1fa0732,-0x2628(%rbp)
    a420:	07 fa a1 
    a423:	c7 85 dc d9 ff ff f7 	movl   $0xfffffff7,-0x2624(%rbp)
    a42a:	ff ff ff 
    a42d:	c7 85 e0 d9 ff ff 32 	movl   $0xa1fa0732,-0x2620(%rbp)
    a434:	07 fa a1 
    a437:	c7 85 e4 d9 ff ff 32 	movl   $0xa1fa0732,-0x261c(%rbp)
    a43e:	07 fa a1 
    a441:	c7 85 e8 d9 ff ff f7 	movl   $0xfffffff7,-0x2618(%rbp)
    a448:	ff ff ff 
    a44b:	c7 85 ec d9 ff ff 32 	movl   $0xa1fa0732,-0x2614(%rbp)
    a452:	07 fa a1 
    a455:	c7 85 f0 d9 ff ff 32 	movl   $0xa1fa0732,-0x2610(%rbp)
    a45c:	07 fa a1 
    a45f:	c7 85 bc d6 ff ff f9 	movl   $0xfffffff9,-0x2944(%rbp)
    a466:	ff ff ff 
    a469:	8b 85 00 db ff ff    	mov    -0x2500(%rbp),%eax
    a46f:	41 89 c6             	mov    %eax,%r14d
    a472:	48 8b 85 c0 d7 ff ff 	mov    -0x2840(%rbp),%rax
    a479:	41 89 c7             	mov    %eax,%r15d
    a47c:	8b 85 f0 d9 ff ff    	mov    -0x2610(%rbp),%eax
    a482:	0f b6 d8             	movzbl %al,%ebx
    a485:	48 8b 05 04 0f 01 00 	mov    0x10f04(%rip),%rax        # 1b390 <g_938>
    a48c:	48 85 c0             	test   %rax,%rax
    a48f:	0f 94 c0             	sete   %al
    a492:	44 0f b6 e8          	movzbl %al,%r13d
    a496:	0f b6 05 6b df 00 00 	movzbl 0xdf6b(%rip),%eax        # 18408 <g_793>
    a49d:	44 0f b6 e0          	movzbl %al,%r12d
    a4a1:	0f b7 85 9c d5 ff ff 	movzwl -0x2a64(%rbp),%eax
    a4a8:	0f b6 c0             	movzbl %al,%eax
    a4ab:	89 c6                	mov    %eax,%esi
    a4ad:	bf 29 00 00 00       	mov    $0x29,%edi
    a4b2:	e8 f7 c6 ff ff       	callq  6bae <safe_mod_func_uint8_t_u_u>
    a4b7:	0f b6 d0             	movzbl %al,%edx
    a4ba:	8b 05 10 df 00 00    	mov    0xdf10(%rip),%eax        # 183d0 <g_730>
    a4c0:	0f b7 c0             	movzwl %ax,%eax
    a4c3:	89 d6                	mov    %edx,%esi
    a4c5:	89 c7                	mov    %eax,%edi
    a4c7:	e8 71 c8 ff ff       	callq  6d3d <safe_mul_func_uint16_t_u_u>
    a4cc:	0f b6 c0             	movzbl %al,%eax
    a4cf:	44 89 e6             	mov    %r12d,%esi
    a4d2:	89 c7                	mov    %eax,%edi
    a4d4:	e8 9f c6 ff ff       	callq  6b78 <safe_sub_func_uint8_t_u_u>
    a4d9:	0f b6 c0             	movzbl %al,%eax
    a4dc:	66 89 05 81 dd 00 00 	mov    %ax,0xdd81(%rip)        # 18264 <g_327>
    a4e3:	0f b7 05 7a dd 00 00 	movzwl 0xdd7a(%rip),%eax        # 18264 <g_327>
    a4ea:	66 3d 00 70          	cmp    $0x7000,%ax
    a4ee:	0f 9e c0             	setle  %al
    a4f1:	0f b6 d0             	movzbl %al,%edx
    a4f4:	48 8b 05 5d dd 00 00 	mov    0xdd5d(%rip),%rax        # 18258 <g_229>
    a4fb:	48 39 c2             	cmp    %rax,%rdx
    a4fe:	0f 9e c0             	setle  %al
    a501:	0f b6 c0             	movzbl %al,%eax
    a504:	41 39 c5             	cmp    %eax,%r13d
    a507:	0f 9e c0             	setle  %al
    a50a:	0f b6 d0             	movzbl %al,%edx
    a50d:	48 8b 85 10 d7 ff ff 	mov    -0x28f0(%rbp),%rax
    a514:	8b 00                	mov    (%rax),%eax
    a516:	39 c2                	cmp    %eax,%edx
    a518:	0f 95 c0             	setne  %al
    a51b:	0f b6 c0             	movzbl %al,%eax
    a51e:	89 de                	mov    %ebx,%esi
    a520:	89 c7                	mov    %eax,%edi
    a522:	e8 51 c6 ff ff       	callq  6b78 <safe_sub_func_uint8_t_u_u>
    a527:	89 c2                	mov    %eax,%edx
    a529:	48 8b 85 10 d7 ff ff 	mov    -0x28f0(%rbp),%rax
    a530:	0f b6 d2             	movzbl %dl,%edx
    a533:	89 10                	mov    %edx,(%rax)
    a535:	8b 00                	mov    (%rax),%eax
    a537:	89 85 f0 d9 ff ff    	mov    %eax,-0x2610(%rbp)
    a53d:	8b 95 f0 d9 ff ff    	mov    -0x2610(%rbp),%edx
    a543:	0f bf 85 ae d5 ff ff 	movswl -0x2a52(%rbp),%eax
    a54a:	39 c2                	cmp    %eax,%edx
    a54c:	0f 9f c0             	setg   %al
    a54f:	0f b6 c0             	movzbl %al,%eax
    a552:	39 85 bc d6 ff ff    	cmp    %eax,-0x2944(%rbp)
    a558:	0f 9c c0             	setl   %al
    a55b:	0f b6 d0             	movzbl %al,%edx
    a55e:	48 8b 85 40 d7 ff ff 	mov    -0x28c0(%rbp),%rax
    a565:	48 39 c2             	cmp    %rax,%rdx
    a568:	0f 95 c0             	setne  %al
    a56b:	0f b6 c0             	movzbl %al,%eax
    a56e:	8b 95 bc d6 ff ff    	mov    -0x2944(%rbp),%edx
    a574:	89 d6                	mov    %edx,%esi
    a576:	89 c7                	mov    %eax,%edi
    a578:	e8 b8 bd ff ff       	callq  6335 <safe_rshift_func_int8_t_s_s>
    a57d:	66 98                	cbtw   
    a57f:	66 89 05 42 dd 00 00 	mov    %ax,0xdd42(%rip)        # 182c8 <g_496>
    a586:	0f b7 05 3b dd 00 00 	movzwl 0xdd3b(%rip),%eax        # 182c8 <g_496>
    a58d:	0f b7 d8             	movzwl %ax,%ebx
    a590:	48 8b 05 49 0d 01 00 	mov    0x10d49(%rip),%rax        # 1b2e0 <g_798>
    a597:	48 8b 00             	mov    (%rax),%rax
    a59a:	48 8b 10             	mov    (%rax),%rdx
    a59d:	48 8b 05 44 0d 01 00 	mov    0x10d44(%rip),%rax        # 1b2e8 <g_797>
    a5a4:	48 8b 00             	mov    (%rax),%rax
    a5a7:	48 8b 00             	mov    (%rax),%rax
    a5aa:	48 8b 00             	mov    (%rax),%rax
    a5ad:	0f b7 12             	movzwl (%rdx),%edx
    a5b0:	66 89 10             	mov    %dx,(%rax)
    a5b3:	0f b7 00             	movzwl (%rax),%eax
    a5b6:	98                   	cwtl   
    a5b7:	be 06 00 00 00       	mov    $0x6,%esi
    a5bc:	89 c7                	mov    %eax,%edi
    a5be:	e8 67 bf ff ff       	callq  652a <safe_rshift_func_int16_t_s_s>
    a5c3:	0f b7 c0             	movzwl %ax,%eax
    a5c6:	89 de                	mov    %ebx,%esi
    a5c8:	89 c7                	mov    %eax,%edi
    a5ca:	e8 6e c7 ff ff       	callq  6d3d <safe_mul_func_uint16_t_u_u>
    a5cf:	48 8b 95 08 d9 ff ff 	mov    -0x26f8(%rbp),%rdx
    a5d6:	66 89 02             	mov    %ax,(%rdx)
    a5d9:	48 8b 85 08 d9 ff ff 	mov    -0x26f8(%rbp),%rax
    a5e0:	0f b7 00             	movzwl (%rax),%eax
    a5e3:	0f b7 c0             	movzwl %ax,%eax
    a5e6:	44 89 fe             	mov    %r15d,%esi
    a5e9:	89 c7                	mov    %eax,%edi
    a5eb:	e8 ce c7 ff ff       	callq  6dbe <safe_lshift_func_uint16_t_u_s>
    a5f0:	b8 01 00 00 00       	mov    $0x1,%eax
    a5f5:	89 c6                	mov    %eax,%esi
    a5f7:	bf f6 ff 00 00       	mov    $0xfff6,%edi
    a5fc:	e8 79 c8 ff ff       	callq  6e7a <safe_rshift_func_uint16_t_u_u>
    a601:	0f b7 05 94 dd 00 00 	movzwl 0xdd94(%rip),%eax        # 1839c <g_728+0x1c>
    a608:	48 0f bf c0          	movswq %ax,%rax
    a60c:	48 ba a7 85 b8 7e 9f 	movabs $0xa6ae129f7eb885a7,%rdx
    a613:	12 ae a6 
    a616:	48 39 d0             	cmp    %rdx,%rax
    a619:	0f 97 c0             	seta   %al
    a61c:	0f b6 c0             	movzbl %al,%eax
    a61f:	44 89 f6             	mov    %r14d,%esi
    a622:	89 c7                	mov    %eax,%edi
    a624:	e8 01 bf ff ff       	callq  652a <safe_rshift_func_int16_t_s_s>
    a629:	98                   	cwtl   
    a62a:	21 85 08 d6 ff ff    	and    %eax,-0x29f8(%rbp)
    a630:	48 83 ad 58 d7 ff ff 	subq   $0x1,-0x28a8(%rbp)
    a637:	01 
    a638:	48 83 bd 58 d7 ff ff 	cmpq   $0x0,-0x28a8(%rbp)
    a63f:	00 
    a640:	0f 89 bf fd ff ff    	jns    a405 <func_1+0x2c50>
    a646:	48 8b 95 18 d7 ff ff 	mov    -0x28e8(%rbp),%rdx
    a64d:	48 8b 85 00 d9 ff ff 	mov    -0x2700(%rbp),%rax
    a654:	48 89 10             	mov    %rdx,(%rax)
    a657:	c7 05 ef e1 00 00 e0 	movl   $0x382960e0,0xe1ef(%rip)        # 18850 <g_1018+0x3f0>
    a65e:	60 29 38 
    a661:	66 c7 05 ea e1 00 00 	movw   $0x36ab,0xe1ea(%rip)        # 18854 <g_1018+0x3f4>
    a668:	ab 36 
    a66a:	66 c7 05 e3 e1 00 00 	movw   $0x481e,0xe1e3(%rip)        # 18856 <g_1018+0x3f6>
    a671:	1e 48 
    a673:	48 c7 05 da e1 00 00 	movq   $0x8,0xe1da(%rip)        # 18858 <g_1018+0x3f8>
    a67a:	08 00 00 00 
    a67e:	66 c7 05 d9 e1 00 00 	movw   $0x7,0xe1d9(%rip)        # 18860 <g_1018+0x400>
    a685:	07 00 
    a687:	e9 9d 05 00 00       	jmpq   ac29 <func_1+0x3474>
    a68c:	48 b8 f2 d0 56 ce 91 	movabs $0x8a9f6d91ce56d0f2,%rax
    a693:	6d 9f 8a 
    a696:	48 89 85 e8 d8 ff ff 	mov    %rax,-0x2718(%rbp)
    a69d:	c7 85 30 d7 ff ff fb 	movl   $0xfffffffb,-0x28d0(%rbp)
    a6a4:	ff ff ff 
    a6a7:	48 8d 05 22 0c 01 00 	lea    0x10c22(%rip),%rax        # 1b2d0 <g_727>
    a6ae:	48 89 85 90 dd ff ff 	mov    %rax,-0x2270(%rbp)
    a6b5:	48 c7 85 98 dd ff ff 	movq   $0x0,-0x2268(%rbp)
    a6bc:	00 00 00 00 
    a6c0:	48 8d 05 09 0c 01 00 	lea    0x10c09(%rip),%rax        # 1b2d0 <g_727>
    a6c7:	48 89 85 a0 dd ff ff 	mov    %rax,-0x2260(%rbp)
    a6ce:	48 c7 85 a8 dd ff ff 	movq   $0x0,-0x2258(%rbp)
    a6d5:	00 00 00 00 
    a6d9:	48 8d 85 08 d7 ff ff 	lea    -0x28f8(%rbp),%rax
    a6e0:	48 89 85 b0 dd ff ff 	mov    %rax,-0x2250(%rbp)
    a6e7:	48 c7 85 b8 dd ff ff 	movq   $0x0,-0x2248(%rbp)
    a6ee:	00 00 00 00 
    a6f2:	48 8d 85 d0 d6 ff ff 	lea    -0x2930(%rbp),%rax
    a6f9:	48 89 85 c0 dd ff ff 	mov    %rax,-0x2240(%rbp)
    a700:	48 c7 85 c8 dd ff ff 	movq   $0x0,-0x2238(%rbp)
    a707:	00 00 00 00 
    a70b:	48 c7 85 d0 dd ff ff 	movq   $0x0,-0x2230(%rbp)
    a712:	00 00 00 00 
    a716:	48 c7 85 d8 dd ff ff 	movq   $0x0,-0x2228(%rbp)
    a71d:	00 00 00 00 
    a721:	48 c7 85 e0 dd ff ff 	movq   $0x0,-0x2220(%rbp)
    a728:	00 00 00 00 
    a72c:	48 8d 05 9d 0b 01 00 	lea    0x10b9d(%rip),%rax        # 1b2d0 <g_727>
    a733:	48 89 85 e8 dd ff ff 	mov    %rax,-0x2218(%rbp)
    a73a:	48 8d 85 08 d7 ff ff 	lea    -0x28f8(%rbp),%rax
    a741:	48 89 85 f0 dd ff ff 	mov    %rax,-0x2210(%rbp)
    a748:	48 c7 85 f8 dd ff ff 	movq   $0x0,-0x2208(%rbp)
    a74f:	00 00 00 00 
    a753:	48 8d 05 76 0b 01 00 	lea    0x10b76(%rip),%rax        # 1b2d0 <g_727>
    a75a:	48 89 85 00 de ff ff 	mov    %rax,-0x2200(%rbp)
    a761:	48 c7 85 08 de ff ff 	movq   $0x0,-0x21f8(%rbp)
    a768:	00 00 00 00 
    a76c:	48 c7 85 10 de ff ff 	movq   $0x0,-0x21f0(%rbp)
    a773:	00 00 00 00 
    a777:	48 8d 85 d0 d6 ff ff 	lea    -0x2930(%rbp),%rax
    a77e:	48 89 85 18 de ff ff 	mov    %rax,-0x21e8(%rbp)
    a785:	48 8d 85 d0 d6 ff ff 	lea    -0x2930(%rbp),%rax
    a78c:	48 89 85 20 de ff ff 	mov    %rax,-0x21e0(%rbp)
    a793:	48 8d 85 d0 d6 ff ff 	lea    -0x2930(%rbp),%rax
    a79a:	48 89 85 28 de ff ff 	mov    %rax,-0x21d8(%rbp)
    a7a1:	48 c7 85 30 de ff ff 	movq   $0x0,-0x21d0(%rbp)
    a7a8:	00 00 00 00 
    a7ac:	48 8d 85 d0 d6 ff ff 	lea    -0x2930(%rbp),%rax
    a7b3:	48 89 85 38 de ff ff 	mov    %rax,-0x21c8(%rbp)
    a7ba:	48 8d 85 d0 d6 ff ff 	lea    -0x2930(%rbp),%rax
    a7c1:	48 89 85 40 de ff ff 	mov    %rax,-0x21c0(%rbp)
    a7c8:	48 c7 85 48 de ff ff 	movq   $0x0,-0x21b8(%rbp)
    a7cf:	00 00 00 00 
    a7d3:	48 c7 85 f0 d8 ff ff 	movq   $0x0,-0x2710(%rbp)
    a7da:	00 00 00 00 
    a7de:	66 c7 05 8f da 00 00 	movw   $0x5,0xda8f(%rip)        # 18276 <g_342+0x6>
    a7e5:	05 00 
    a7e7:	90                   	nop
    a7e8:	0f b7 05 87 da 00 00 	movzwl 0xda87(%rip),%eax        # 18276 <g_342+0x6>
    a7ef:	66 83 f8 07          	cmp    $0x7,%ax
    a7f3:	0f 86 48 03 00 00    	jbe    ab41 <func_1+0x338c>
    a7f9:	c7 85 b0 d6 ff ff 91 	movl   $0xd7020a91,-0x2950(%rbp)
    a800:	0a 02 d7 
    a803:	c7 85 b4 d6 ff ff 01 	movl   $0x1,-0x294c(%rbp)
    a80a:	00 00 00 
    a80d:	c7 85 b8 d6 ff ff 35 	movl   $0xbb402635,-0x2948(%rbp)
    a814:	26 40 bb 
    a817:	48 8d 05 d2 da 00 00 	lea    0xdad2(%rip),%rax        # 182f0 <g_502>
    a81e:	48 89 85 f8 d8 ff ff 	mov    %rax,-0x2708(%rbp)
    a825:	c7 85 f8 d5 ff ff 00 	movl   $0x0,-0x2a08(%rbp)
    a82c:	00 00 00 
    a82f:	eb 1b                	jmp    a84c <func_1+0x3097>
    a831:	8b 85 f8 d5 ff ff    	mov    -0x2a08(%rbp),%eax
    a837:	48 98                	cltq   
    a839:	48 c7 84 c5 00 db ff 	movq   $0x0,-0x2500(%rbp,%rax,8)
    a840:	ff 00 00 00 00 
    a845:	83 85 f8 d5 ff ff 01 	addl   $0x1,-0x2a08(%rbp)
    a84c:	83 bd f8 d5 ff ff 03 	cmpl   $0x3,-0x2a08(%rbp)
    a853:	7e dc                	jle    a831 <func_1+0x307c>
    a855:	48 8b 85 10 d7 ff ff 	mov    -0x28f0(%rbp),%rax
    a85c:	8b 00                	mov    (%rax),%eax
    a85e:	41 89 c6             	mov    %eax,%r14d
    a861:	48 8b 05 70 0a 01 00 	mov    0x10a70(%rip),%rax        # 1b2d8 <g_799>
    a868:	48 8b 00             	mov    (%rax),%rax
    a86b:	44 0f b7 28          	movzwl (%rax),%r13d
    a86f:	48 8b 05 62 0a 01 00 	mov    0x10a62(%rip),%rax        # 1b2d8 <g_799>
    a876:	48 8b 00             	mov    (%rax),%rax
    a879:	0f b7 00             	movzwl (%rax),%eax
    a87c:	0f bf d8             	movswl %ax,%ebx
    a87f:	8b 05 db d9 00 00    	mov    0xd9db(%rip),%eax        # 18260 <g_289>
    a885:	89 c2                	mov    %eax,%edx
    a887:	0f b7 05 48 da 00 00 	movzwl 0xda48(%rip),%eax        # 182d6 <g_499+0x6>
    a88e:	0f b7 c0             	movzwl %ax,%eax
    a891:	48 89 d6             	mov    %rdx,%rsi
    a894:	48 89 c7             	mov    %rax,%rdi
    a897:	e8 af c7 ff ff       	callq  704b <safe_sub_func_uint64_t_u_u>
    a89c:	49 89 c4             	mov    %rax,%r12
    a89f:	48 8b 85 e8 d8 ff ff 	mov    -0x2718(%rbp),%rax
    a8a6:	89 c6                	mov    %eax,%esi
    a8a8:	bf 01 00 00 00       	mov    $0x1,%edi
    a8ad:	e8 73 c6 ff ff       	callq  6f25 <safe_div_func_uint32_t_u_u>
    a8b2:	85 c0                	test   %eax,%eax
    a8b4:	74 10                	je     a8c6 <func_1+0x3111>
    a8b6:	83 bd b0 d6 ff ff 00 	cmpl   $0x0,-0x2950(%rbp)
    a8bd:	74 07                	je     a8c6 <func_1+0x3111>
    a8bf:	ba 01 00 00 00       	mov    $0x1,%edx
    a8c4:	eb 05                	jmp    a8cb <func_1+0x3116>
    a8c6:	ba 00 00 00 00       	mov    $0x0,%edx
    a8cb:	48 8b 85 e8 d8 ff ff 	mov    -0x2718(%rbp),%rax
    a8d2:	89 d6                	mov    %edx,%esi
    a8d4:	89 c7                	mov    %eax,%edi
    a8d6:	e8 24 be ff ff       	callq  66ff <safe_div_func_int32_t_s_s>
    a8db:	0f b6 05 26 db 00 00 	movzbl 0xdb26(%rip),%eax        # 18408 <g_793>
    a8e2:	0f b6 c0             	movzbl %al,%eax
    a8e5:	be e2 8d 00 00       	mov    $0x8de2,%esi
    a8ea:	89 c7                	mov    %eax,%edi
    a8ec:	e8 2e c4 ff ff       	callq  6d1f <safe_sub_func_uint16_t_u_u>
    a8f1:	08 85 84 d5 ff ff    	or     %al,-0x2a7c(%rbp)
    a8f7:	48 8b 85 e8 d8 ff ff 	mov    -0x2718(%rbp),%rax
    a8fe:	0d ff ff 00 00       	or     $0xffff,%eax
    a903:	89 c2                	mov    %eax,%edx
    a905:	48 8b 85 18 d7 ff ff 	mov    -0x28e8(%rbp),%rax
    a90c:	89 10                	mov    %edx,(%rax)
    a90e:	48 8b 85 38 d7 ff ff 	mov    -0x28c8(%rbp),%rax
    a915:	48 8b 95 18 db ff ff 	mov    -0x24e8(%rbp),%rdx
    a91c:	48 89 10             	mov    %rdx,(%rax)
    a91f:	48 8b 00             	mov    (%rax),%rax
    a922:	48 85 c0             	test   %rax,%rax
    a925:	0f 95 c0             	setne  %al
    a928:	0f b6 c0             	movzbl %al,%eax
    a92b:	be 02 00 00 00       	mov    $0x2,%esi
    a930:	89 c7                	mov    %eax,%edi
    a932:	e8 6a b9 ff ff       	callq  62a1 <safe_lshift_func_int8_t_s_s>
    a937:	48 0f be c0          	movsbq %al,%rax
    a93b:	49 39 c4             	cmp    %rax,%r12
    a93e:	48 8b 05 9b 09 01 00 	mov    0x1099b(%rip),%rax        # 1b2e0 <g_798>
    a945:	48 8b 00             	mov    (%rax),%rax
    a948:	48 8b 00             	mov    (%rax),%rax
    a94b:	0f b7 00             	movzwl (%rax),%eax
    a94e:	98                   	cwtl   
    a94f:	89 85 30 d7 ff ff    	mov    %eax,-0x28d0(%rbp)
    a955:	8b 85 30 d7 ff ff    	mov    -0x28d0(%rbp),%eax
    a95b:	98                   	cwtl   
    a95c:	89 de                	mov    %ebx,%esi
    a95e:	89 c7                	mov    %eax,%edi
    a960:	e8 2d bb ff ff       	callq  6492 <safe_lshift_func_int16_t_s_s>
    a965:	44 31 e8             	xor    %r13d,%eax
    a968:	98                   	cwtl   
    a969:	44 89 f6             	mov    %r14d,%esi
    a96c:	89 c7                	mov    %eax,%edi
    a96e:	e8 45 c5 ff ff       	callq  6eb8 <safe_add_func_uint32_t_u_u>
    a973:	89 85 b4 d6 ff ff    	mov    %eax,-0x294c(%rbp)
    a979:	48 8b 85 d8 d6 ff ff 	mov    -0x2928(%rbp),%rax
    a980:	48 8d 95 30 d7 ff ff 	lea    -0x28d0(%rbp),%rdx
    a987:	48 89 10             	mov    %rdx,(%rax)
    a98a:	48 8b 00             	mov    (%rax),%rax
    a98d:	48 89 85 10 d7 ff ff 	mov    %rax,-0x28f0(%rbp)
    a994:	48 8b 85 10 d7 ff ff 	mov    -0x28f0(%rbp),%rax
    a99b:	48 89 85 f0 d8 ff ff 	mov    %rax,-0x2710(%rbp)
    a9a2:	48 8b 05 37 09 01 00 	mov    0x10937(%rip),%rax        # 1b2e0 <g_798>
    a9a9:	48 8b 00             	mov    (%rax),%rax
    a9ac:	48 8b 00             	mov    (%rax),%rax
    a9af:	0f b7 00             	movzwl (%rax),%eax
    a9b2:	0f bf d8             	movswl %ax,%ebx
    a9b5:	48 b8 a7 85 b8 7e 9f 	movabs $0xa6ae129f7eb885a7,%rax
    a9bc:	12 ae a6 
    a9bf:	44 0f b6 e0          	movzbl %al,%r12d
    a9c3:	48 8b 85 f8 d8 ff ff 	mov    -0x2708(%rbp),%rax
    a9ca:	8b 00                	mov    (%rax),%eax
    a9cc:	8d 50 01             	lea    0x1(%rax),%edx
    a9cf:	48 8b 85 f8 d8 ff ff 	mov    -0x2708(%rbp),%rax
    a9d6:	89 10                	mov    %edx,(%rax)
    a9d8:	48 8b 85 18 d7 ff ff 	mov    -0x28e8(%rbp),%rax
    a9df:	c7 00 1c 00 00 00    	movl   $0x1c,(%rax)
    a9e5:	48 8b 85 f0 d8 ff ff 	mov    -0x2710(%rbp),%rax
    a9ec:	8b 00                	mov    (%rax),%eax
    a9ee:	41 89 c5             	mov    %eax,%r13d
    a9f1:	8b 85 b8 d6 ff ff    	mov    -0x2948(%rbp),%eax
    a9f7:	48 89 c6             	mov    %rax,%rsi
    a9fa:	bf 00 00 00 00       	mov    $0x0,%edi
    a9ff:	e8 ab c6 ff ff       	callq  70af <safe_div_func_uint64_t_u_u>
    aa04:	44 89 ee             	mov    %r13d,%esi
    aa07:	89 c7                	mov    %eax,%edi
    aa09:	e8 ef c4 ff ff       	callq  6efd <safe_mod_func_uint32_t_u_u>
    aa0e:	83 f8 1c             	cmp    $0x1c,%eax
    aa11:	0f 96 c0             	setbe  %al
    aa14:	44 0f b6 e8          	movzbl %al,%r13d
    aa18:	48 8b 05 b9 08 01 00 	mov    0x108b9(%rip),%rax        # 1b2d8 <g_799>
    aa1f:	48 8b 00             	mov    (%rax),%rax
    aa22:	0f b7 00             	movzwl (%rax),%eax
    aa25:	83 c8 fc             	or     $0xfffffffc,%eax
    aa28:	0f b7 c0             	movzwl %ax,%eax
    aa2b:	be fe ff 00 00       	mov    $0xfffe,%esi
    aa30:	89 c7                	mov    %eax,%edi
    aa32:	e8 e8 c2 ff ff       	callq  6d1f <safe_sub_func_uint16_t_u_u>
    aa37:	48 8b 85 10 d7 ff ff 	mov    -0x28f0(%rbp),%rax
    aa3e:	8b 00                	mov    (%rax),%eax
    aa40:	85 c0                	test   %eax,%eax
    aa42:	74 07                	je     aa4b <func_1+0x3296>
    aa44:	ba 01 00 00 00       	mov    $0x1,%edx
    aa49:	eb 05                	jmp    aa50 <func_1+0x329b>
    aa4b:	ba 00 00 00 00       	mov    $0x0,%edx
    aa50:	48 8b 85 10 d7 ff ff 	mov    -0x28f0(%rbp),%rax
    aa57:	8b 00                	mov    (%rax),%eax
    aa59:	39 c2                	cmp    %eax,%edx
    aa5b:	0f 94 c0             	sete   %al
    aa5e:	0f b6 c0             	movzbl %al,%eax
    aa61:	41 39 c5             	cmp    %eax,%r13d
    aa64:	0f 9d c0             	setge  %al
    aa67:	0f b6 c0             	movzbl %al,%eax
    aa6a:	44 89 e6             	mov    %r12d,%esi
    aa6d:	89 c7                	mov    %eax,%edi
    aa6f:	e8 e6 c0 ff ff       	callq  6b5a <safe_add_func_uint8_t_u_u>
    aa74:	0f b6 c0             	movzbl %al,%eax
    aa77:	89 c6                	mov    %eax,%esi
    aa79:	bf f7 ff ff ff       	mov    $0xfffffff7,%edi
    aa7e:	e8 35 c4 ff ff       	callq  6eb8 <safe_add_func_uint32_t_u_u>
    aa83:	0f b7 05 36 d8 00 00 	movzwl 0xd836(%rip),%eax        # 182c0 <g_473+0x10>
    aa8a:	0f b7 c0             	movzwl %ax,%eax
    aa8d:	39 85 b0 d6 ff ff    	cmp    %eax,-0x2950(%rbp)
    aa93:	0f 9c c0             	setl   %al
    aa96:	0f b6 c0             	movzbl %al,%eax
    aa99:	be eb ca 7d 4b       	mov    $0x4b7dcaeb,%esi
    aa9e:	89 c7                	mov    %eax,%edi
    aaa0:	e8 58 c4 ff ff       	callq  6efd <safe_mod_func_uint32_t_u_u>
    aaa5:	8b 95 b8 d6 ff ff    	mov    -0x2948(%rbp),%edx
    aaab:	48 8b 85 e0 d8 ff ff 	mov    -0x2720(%rbp),%rax
    aab2:	48 89 10             	mov    %rdx,(%rax)
    aab5:	48 8b 85 e0 d8 ff ff 	mov    -0x2720(%rbp),%rax
    aabc:	48 8b 10             	mov    (%rax),%rdx
    aabf:	8b 85 b4 d6 ff ff    	mov    -0x294c(%rbp),%eax
    aac5:	48 98                	cltq   
    aac7:	b9 fc ff ff ff       	mov    $0xfffffffc,%ecx
    aacc:	48 39 c8             	cmp    %rcx,%rax
    aacf:	0f 97 c0             	seta   %al
    aad2:	0f b6 c0             	movzbl %al,%eax
    aad5:	48 39 c2             	cmp    %rax,%rdx
    aad8:	0f 9f c0             	setg   %al
    aadb:	0f b6 d0             	movzbl %al,%edx
    aade:	48 8b 85 f0 d8 ff ff 	mov    -0x2710(%rbp),%rax
    aae5:	8b 00                	mov    (%rax),%eax
    aae7:	39 c2                	cmp    %eax,%edx
    aae9:	0f 9c c0             	setl   %al
    aaec:	0f b6 c0             	movzbl %al,%eax
    aaef:	89 de                	mov    %ebx,%esi
    aaf1:	89 c7                	mov    %eax,%edi
    aaf3:	e8 5d b9 ff ff       	callq  6455 <safe_div_func_int16_t_s_s>
    aaf8:	0f b6 85 ab d9 ff ff 	movzbl -0x2655(%rbp),%eax
    aaff:	3c 01                	cmp    $0x1,%al
    ab01:	0f 97 c0             	seta   %al
    ab04:	0f b6 d0             	movzbl %al,%edx
    ab07:	48 8b 85 f0 d8 ff ff 	mov    -0x2710(%rbp),%rax
    ab0e:	8b 00                	mov    (%rax),%eax
    ab10:	21 c2                	and    %eax,%edx
    ab12:	b8 07 00 00 00       	mov    $0x7,%eax
    ab17:	0f b7 c0             	movzwl %ax,%eax
    ab1a:	39 c2                	cmp    %eax,%edx
    ab1c:	0f 9f c0             	setg   %al
    ab1f:	0f b6 d0             	movzbl %al,%edx
    ab22:	48 8b 85 c8 d7 ff ff 	mov    -0x2838(%rbp),%rax
    ab29:	8b 00                	mov    (%rax),%eax
    ab2b:	31 c2                	xor    %eax,%edx
    ab2d:	48 8b 85 c8 d7 ff ff 	mov    -0x2838(%rbp),%rax
    ab34:	89 10                	mov    %edx,(%rax)
    ab36:	8b 85 ac d6 ff ff    	mov    -0x2954(%rbp),%eax
    ab3c:	e9 76 3f 00 00       	jmpq   eab7 <func_1+0x7302>
    ab41:	c7 85 bc d5 ff ff 00 	movl   $0x0,-0x2a44(%rbp)
    ab48:	00 00 00 
    ab4b:	eb 5b                	jmp    aba8 <func_1+0x33f3>
    ab4d:	48 8b 05 54 05 01 00 	mov    0x10554(%rip),%rax        # 1b0a8 <g_78>
    ab54:	0f b7 00             	movzwl (%rax),%eax
    ab57:	98                   	cwtl   
    ab58:	be 0e 00 00 00       	mov    $0xe,%esi
    ab5d:	89 c7                	mov    %eax,%edi
    ab5f:	e8 2e b9 ff ff       	callq  6492 <safe_lshift_func_int16_t_s_s>
    ab64:	89 c2                	mov    %eax,%edx
    ab66:	48 8b 85 18 d7 ff ff 	mov    -0x28e8(%rbp),%rax
    ab6d:	0f bf d2             	movswl %dx,%edx
    ab70:	89 10                	mov    %edx,(%rax)
    ab72:	48 8b 0d 57 07 01 00 	mov    0x10757(%rip),%rcx        # 1b2d0 <g_727>
    ab79:	48 8b 05 b0 d8 00 00 	mov    0xd8b0(%rip),%rax        # 18430 <g_1012>
    ab80:	48 8b 15 b1 d8 00 00 	mov    0xd8b1(%rip),%rdx        # 18438 <g_1012+0x8>
    ab87:	48 89 01             	mov    %rax,(%rcx)
    ab8a:	48 89 51 08          	mov    %rdx,0x8(%rcx)
    ab8e:	48 8b 05 ab d8 00 00 	mov    0xd8ab(%rip),%rax        # 18440 <g_1012+0x10>
    ab95:	48 89 41 10          	mov    %rax,0x10(%rcx)
    ab99:	8b 85 bc d5 ff ff    	mov    -0x2a44(%rbp),%eax
    ab9f:	83 c0 01             	add    $0x1,%eax
    aba2:	89 85 bc d5 ff ff    	mov    %eax,-0x2a44(%rbp)
    aba8:	8b 85 bc d5 ff ff    	mov    -0x2a44(%rbp),%eax
    abae:	83 f8 17             	cmp    $0x17,%eax
    abb1:	7e 9a                	jle    ab4d <func_1+0x3398>
    abb3:	66 83 85 8c d5 ff ff 	addw   $0x1,-0x2a74(%rbp)
    abba:	01 
    abbb:	48 8b 05 16 07 01 00 	mov    0x10716(%rip),%rax        # 1b2d8 <g_799>
    abc2:	48 8b 00             	mov    (%rax),%rax
    abc5:	0f b7 00             	movzwl (%rax),%eax
    abc8:	e9 ea 3e 00 00       	jmpq   eab7 <func_1+0x7302>
    abcd:	66 c7 85 aa d5 ff ff 	movw   $0x1,-0x2a56(%rbp)
    abd4:	01 00 
    abd6:	48 8d 85 28 d7 ff ff 	lea    -0x28d8(%rbp),%rax
    abdd:	48 89 85 c8 d8 ff ff 	mov    %rax,-0x2738(%rbp)
    abe4:	48 8d 85 90 dd ff ff 	lea    -0x2270(%rbp),%rax
    abeb:	48 8d 15 ee 94 00 00 	lea    0x94ee(%rip),%rdx        # 140e0 <g_1017+0x20>
    abf2:	b9 30 00 00 00       	mov    $0x30,%ecx
    abf7:	48 89 c7             	mov    %rax,%rdi
    abfa:	48 89 d6             	mov    %rdx,%rsi
    abfd:	f3 48 a5             	rep movsq %ds:(%rsi),%es:(%rdi)
    ac00:	48 c7 85 18 d7 ff ff 	movq   $0x0,-0x28e8(%rbp)
    ac07:	00 00 00 00 
    ac0b:	48 8b 95 d8 d6 ff ff 	mov    -0x2928(%rbp),%rdx
    ac12:	48 8b 05 b7 04 01 00 	mov    0x104b7(%rip),%rax        # 1b0d0 <g_212>
    ac19:	48 8b 00             	mov    (%rax),%rax
    ac1c:	48 8b 12             	mov    (%rdx),%rdx
    ac1f:	48 89 10             	mov    %rdx,(%rax)
    ac22:	83 85 98 d6 ff ff 01 	addl   $0x1,-0x2968(%rbp)
    ac29:	66 c7 05 c4 d6 00 00 	movw   $0x0,0xd6c4(%rip)        # 182f6 <g_502+0x6>
    ac30:	00 00 
    ac32:	e9 a5 03 00 00       	jmpq   afdc <func_1+0x3827>
    ac37:	c7 85 c0 d6 ff ff f6 	movl   $0xfffffff6,-0x2940(%rbp)
    ac3e:	ff ff ff 
    ac41:	48 c7 85 90 dd ff ff 	movq   $0x0,-0x2270(%rbp)
    ac48:	00 00 00 00 
    ac4c:	48 8d 05 05 dc 00 00 	lea    0xdc05(%rip),%rax        # 18858 <g_1018+0x3f8>
    ac53:	48 89 85 98 dd ff ff 	mov    %rax,-0x2268(%rbp)
    ac5a:	48 c7 85 a0 dd ff ff 	movq   $0x0,-0x2260(%rbp)
    ac61:	00 00 00 00 
    ac65:	48 c7 85 a8 dd ff ff 	movq   $0x0,-0x2258(%rbp)
    ac6c:	00 00 00 00 
    ac70:	48 8d 05 61 d7 00 00 	lea    0xd761(%rip),%rax        # 183d8 <g_730+0x8>
    ac77:	48 89 85 b0 dd ff ff 	mov    %rax,-0x2250(%rbp)
    ac7e:	48 8d 05 53 d7 00 00 	lea    0xd753(%rip),%rax        # 183d8 <g_730+0x8>
    ac85:	48 89 85 b8 dd ff ff 	mov    %rax,-0x2248(%rbp)
    ac8c:	48 c7 85 c0 dd ff ff 	movq   $0x0,-0x2240(%rbp)
    ac93:	00 00 00 00 
    ac97:	48 c7 85 c8 dd ff ff 	movq   $0x0,-0x2238(%rbp)
    ac9e:	00 00 00 00 
    aca2:	48 8d 05 2f d7 00 00 	lea    0xd72f(%rip),%rax        # 183d8 <g_730+0x8>
    aca9:	48 89 85 d0 dd ff ff 	mov    %rax,-0x2230(%rbp)
    acb0:	48 8d 05 a1 db 00 00 	lea    0xdba1(%rip),%rax        # 18858 <g_1018+0x3f8>
    acb7:	48 89 85 d8 dd ff ff 	mov    %rax,-0x2228(%rbp)
    acbe:	48 8d 05 13 d7 00 00 	lea    0xd713(%rip),%rax        # 183d8 <g_730+0x8>
    acc5:	48 89 85 e0 dd ff ff 	mov    %rax,-0x2220(%rbp)
    accc:	48 c7 85 e8 dd ff ff 	movq   $0x0,-0x2218(%rbp)
    acd3:	00 00 00 00 
    acd7:	48 8d 05 fa d6 00 00 	lea    0xd6fa(%rip),%rax        # 183d8 <g_730+0x8>
    acde:	48 89 85 f0 dd ff ff 	mov    %rax,-0x2210(%rbp)
    ace5:	48 c7 85 f8 dd ff ff 	movq   $0x0,-0x2208(%rbp)
    acec:	00 00 00 00 
    acf0:	48 c7 85 00 de ff ff 	movq   $0x0,-0x2200(%rbp)
    acf7:	00 00 00 00 
    acfb:	48 8d 05 d6 d6 00 00 	lea    0xd6d6(%rip),%rax        # 183d8 <g_730+0x8>
    ad02:	48 89 85 08 de ff ff 	mov    %rax,-0x21f8(%rbp)
    ad09:	48 8d 05 c8 d6 00 00 	lea    0xd6c8(%rip),%rax        # 183d8 <g_730+0x8>
    ad10:	48 89 85 10 de ff ff 	mov    %rax,-0x21f0(%rbp)
    ad17:	48 c7 85 18 de ff ff 	movq   $0x0,-0x21e8(%rbp)
    ad1e:	00 00 00 00 
    ad22:	48 c7 85 20 de ff ff 	movq   $0x0,-0x21e0(%rbp)
    ad29:	00 00 00 00 
    ad2d:	48 c7 85 28 de ff ff 	movq   $0x0,-0x21d8(%rbp)
    ad34:	00 00 00 00 
    ad38:	48 c7 85 30 de ff ff 	movq   $0x0,-0x21d0(%rbp)
    ad3f:	00 00 00 00 
    ad43:	48 8d 05 0e db 00 00 	lea    0xdb0e(%rip),%rax        # 18858 <g_1018+0x3f8>
    ad4a:	48 89 85 38 de ff ff 	mov    %rax,-0x21c8(%rbp)
    ad51:	48 c7 85 40 de ff ff 	movq   $0x0,-0x21c0(%rbp)
    ad58:	00 00 00 00 
    ad5c:	48 c7 85 48 de ff ff 	movq   $0x0,-0x21b8(%rbp)
    ad63:	00 00 00 00 
    ad67:	c7 85 c4 d6 ff ff 01 	movl   $0x1,-0x293c(%rbp)
    ad6e:	00 00 00 
    ad71:	c7 85 fc d5 ff ff 00 	movl   $0x0,-0x2a04(%rbp)
    ad78:	00 00 00 
    ad7b:	eb 19                	jmp    ad96 <func_1+0x35e1>
    ad7d:	8b 85 fc d5 ff ff    	mov    -0x2a04(%rbp),%eax
    ad83:	48 98                	cltq   
    ad85:	66 c7 84 45 b0 db ff 	movw   $0x97a6,-0x2450(%rbp,%rax,2)
    ad8c:	ff a6 97 
    ad8f:	83 85 fc d5 ff ff 01 	addl   $0x1,-0x2a04(%rbp)
    ad96:	83 bd fc d5 ff ff 02 	cmpl   $0x2,-0x2a04(%rbp)
    ad9d:	7e de                	jle    ad7d <func_1+0x35c8>
    ad9f:	c6 05 62 d6 00 00 e5 	movb   $0xe5,0xd662(%rip)        # 18408 <g_793>
    ada6:	eb 21                	jmp    adc9 <func_1+0x3614>
    ada8:	0f b7 85 b0 db ff ff 	movzwl -0x2450(%rbp),%eax
    adaf:	83 e8 01             	sub    $0x1,%eax
    adb2:	66 89 85 b0 db ff ff 	mov    %ax,-0x2450(%rbp)
    adb9:	0f b6 05 48 d6 00 00 	movzbl 0xd648(%rip),%eax        # 18408 <g_793>
    adc0:	83 c0 01             	add    $0x1,%eax
    adc3:	88 05 3f d6 00 00    	mov    %al,0xd63f(%rip)        # 18408 <g_793>
    adc9:	0f b6 05 38 d6 00 00 	movzbl 0xd638(%rip),%eax        # 18408 <g_793>
    add0:	3c 3c                	cmp    $0x3c,%al
    add2:	76 d4                	jbe    ada8 <func_1+0x35f3>
    add4:	8b 85 c0 d6 ff ff    	mov    -0x2940(%rbp),%eax
    adda:	0f be d8             	movsbl %al,%ebx
    addd:	0f b7 85 b0 db ff ff 	movzwl -0x2450(%rbp),%eax
    ade4:	44 0f b7 e0          	movzwl %ax,%r12d
    ade8:	48 8b 85 10 d7 ff ff 	mov    -0x28f0(%rbp),%rax
    adef:	44 8b 28             	mov    (%rax),%r13d
    adf2:	0f b7 05 11 d6 00 00 	movzwl 0xd611(%rip),%eax        # 1840a <g_794>
    adf9:	44 0f b6 f0          	movzbl %al,%r14d
    adfd:	0f b7 05 9c d4 00 00 	movzwl 0xd49c(%rip),%eax        # 182a0 <g_371+0x10>
    ae04:	44 0f b7 f8          	movzwl %ax,%r15d
    ae08:	0f b6 05 49 d5 00 00 	movzbl 0xd549(%rip),%eax        # 18358 <g_690>
    ae0f:	0f be c0             	movsbl %al,%eax
    ae12:	89 85 6c d5 ff ff    	mov    %eax,-0x2a94(%rbp)
    ae18:	0f b7 05 f7 d5 00 00 	movzwl 0xd5f7(%rip),%eax        # 18416 <g_921+0x6>
    ae1f:	0f b7 c0             	movzwl %ax,%eax
    ae22:	89 85 60 d5 ff ff    	mov    %eax,-0x2aa0(%rbp)
    ae28:	0f b7 85 a0 d5 ff ff 	movzwl -0x2a60(%rbp),%eax
    ae2f:	0f bf f8             	movswl %ax,%edi
    ae32:	89 bd 58 d5 ff ff    	mov    %edi,-0x2aa8(%rbp)
    ae38:	48 8b 85 10 d7 ff ff 	mov    -0x28f0(%rbp),%rax
    ae3f:	8b 00                	mov    (%rax),%eax
    ae41:	0f b6 d0             	movzbl %al,%edx
    ae44:	89 95 68 d5 ff ff    	mov    %edx,-0x2a98(%rbp)
    ae4a:	b8 07 00 00 00       	mov    $0x7,%eax
    ae4f:	0f b6 c0             	movzbl %al,%eax
    ae52:	89 c6                	mov    %eax,%esi
    ae54:	bf c0 00 00 00       	mov    $0xc0,%edi
    ae59:	e8 35 bd ff ff       	callq  6b93 <safe_mul_func_uint8_t_u_u>
    ae5e:	89 c2                	mov    %eax,%edx
    ae60:	48 8b 05 59 02 01 00 	mov    0x10259(%rip),%rax        # 1b0c0 <g_168>
    ae67:	0f b6 d2             	movzbl %dl,%edx
    ae6a:	66 89 10             	mov    %dx,(%rax)
    ae6d:	48 8b 05 64 04 01 00 	mov    0x10464(%rip),%rax        # 1b2d8 <g_799>
    ae74:	48 8b 00             	mov    (%rax),%rax
    ae77:	0f b7 00             	movzwl (%rax),%eax
    ae7a:	66 83 f8 01          	cmp    $0x1,%ax
    ae7e:	0f 94 c0             	sete   %al
    ae81:	0f b6 c0             	movzbl %al,%eax
    ae84:	8b b5 68 d5 ff ff    	mov    -0x2a98(%rbp),%esi
    ae8a:	89 c7                	mov    %eax,%edi
    ae8c:	e8 e7 bc ff ff       	callq  6b78 <safe_sub_func_uint8_t_u_u>
    ae91:	0f b6 c0             	movzbl %al,%eax
    ae94:	66 23 85 9e d5 ff ff 	and    -0x2a62(%rbp),%ax
    ae9b:	8b 15 2f d5 00 00    	mov    0xd52f(%rip),%edx        # 183d0 <g_730>
    aea1:	09 d0                	or     %edx,%eax
    aea3:	98                   	cwtl   
    aea4:	8b b5 58 d5 ff ff    	mov    -0x2aa8(%rbp),%esi
    aeaa:	89 c7                	mov    %eax,%edi
    aeac:	e8 22 b5 ff ff       	callq  63d3 <safe_sub_func_int16_t_s_s>
    aeb1:	98                   	cwtl   
    aeb2:	39 85 60 d5 ff ff    	cmp    %eax,-0x2aa0(%rbp)
    aeb8:	0f 94 c0             	sete   %al
    aebb:	0f b6 d0             	movzbl %al,%edx
    aebe:	0f b7 05 11 d5 00 00 	movzwl 0xd511(%rip),%eax        # 183d6 <g_730+0x6>
    aec5:	0f b7 c0             	movzwl %ax,%eax
    aec8:	31 d0                	xor    %edx,%eax
    aeca:	48 98                	cltq   
    aecc:	48 89 c6             	mov    %rax,%rsi
    aecf:	48 c7 c7 ff ff ff ff 	mov    $0xffffffffffffffff,%rdi
    aed6:	e8 a5 c1 ff ff       	callq  7080 <safe_mod_func_uint64_t_u_u>
    aedb:	48 85 c0             	test   %rax,%rax
    aede:	74 0b                	je     aeeb <func_1+0x3736>
    aee0:	48 8b 85 10 d7 ff ff 	mov    -0x28f0(%rbp),%rax
    aee7:	8b 00                	mov    (%rax),%eax
    aee9:	85 c0                	test   %eax,%eax
    aeeb:	0f b7 05 72 91 00 00 	movzwl 0x9172(%rip),%eax        # 14064 <g_693+0x4>
    aef2:	0f be c0             	movsbl %al,%eax
    aef5:	8b b5 6c d5 ff ff    	mov    -0x2a94(%rbp),%esi
    aefb:	89 c7                	mov    %eax,%edi
    aefd:	e8 10 b3 ff ff       	callq  6212 <safe_mul_func_int8_t_s_s>
    af02:	0f be c0             	movsbl %al,%eax
    af05:	39 85 c0 d6 ff ff    	cmp    %eax,-0x2940(%rbp)
    af0b:	0f 94 c0             	sete   %al
    af0e:	0f b6 c0             	movzbl %al,%eax
    af11:	44 89 fe             	mov    %r15d,%esi
    af14:	89 c7                	mov    %eax,%edi
    af16:	e8 86 b3 ff ff       	callq  62a1 <safe_lshift_func_int8_t_s_s>
    af1b:	0f b6 c0             	movzbl %al,%eax
    af1e:	44 89 f6             	mov    %r14d,%esi
    af21:	89 c7                	mov    %eax,%edi
    af23:	e8 6b bc ff ff       	callq  6b93 <safe_mul_func_uint8_t_u_u>
    af28:	48 8b 05 29 d9 00 00 	mov    0xd929(%rip),%rax        # 18858 <g_1018+0x3f8>
    af2f:	48 83 c0 01          	add    $0x1,%rax
    af33:	48 89 05 1e d9 00 00 	mov    %rax,0xd91e(%rip)        # 18858 <g_1018+0x3f8>
    af3a:	48 8b 15 17 d9 00 00 	mov    0xd917(%rip),%rdx        # 18858 <g_1018+0x3f8>
    af41:	8b 85 00 da ff ff    	mov    -0x2600(%rbp),%eax
    af47:	83 f8 01             	cmp    $0x1,%eax
    af4a:	0f 95 c0             	setne  %al
    af4d:	0f b6 c0             	movzbl %al,%eax
    af50:	0b 85 c0 d6 ff ff    	or     -0x2940(%rbp),%eax
    af56:	48 98                	cltq   
    af58:	48 39 c2             	cmp    %rax,%rdx
    af5b:	77 07                	ja     af64 <func_1+0x37af>
    af5d:	b8 01 00 00 00       	mov    $0x1,%eax
    af62:	eb 05                	jmp    af69 <func_1+0x37b4>
    af64:	b8 00 00 00 00       	mov    $0x0,%eax
    af69:	0f be c0             	movsbl %al,%eax
    af6c:	44 89 ee             	mov    %r13d,%esi
    af6f:	89 c7                	mov    %eax,%edi
    af71:	e8 2b b3 ff ff       	callq  62a1 <safe_lshift_func_int8_t_s_s>
    af76:	0f be c0             	movsbl %al,%eax
    af79:	89 c6                	mov    %eax,%esi
    af7b:	bf 00 00 00 00       	mov    $0x0,%edi
    af80:	e8 e5 b2 ff ff       	callq  626a <safe_div_func_int8_t_s_s>
    af85:	0f be c0             	movsbl %al,%eax
    af88:	44 89 e6             	mov    %r12d,%esi
    af8b:	89 c7                	mov    %eax,%edi
    af8d:	e8 3e bf ff ff       	callq  6ed0 <safe_sub_func_uint32_t_u_u>
    af92:	0f be c0             	movsbl %al,%eax
    af95:	89 de                	mov    %ebx,%esi
    af97:	89 c7                	mov    %eax,%edi
    af99:	e8 74 b2 ff ff       	callq  6212 <safe_mul_func_int8_t_s_s>
    af9e:	84 c0                	test   %al,%al
    afa0:	75 0a                	jne    afac <func_1+0x37f7>
    afa2:	66 83 bd a2 d5 ff ff 	cmpw   $0x0,-0x2a5e(%rbp)
    afa9:	00 
    afaa:	74 07                	je     afb3 <func_1+0x37fe>
    afac:	b8 01 00 00 00       	mov    $0x1,%eax
    afb1:	eb 05                	jmp    afb8 <func_1+0x3803>
    afb3:	b8 00 00 00 00       	mov    $0x0,%eax
    afb8:	48 63 d0             	movslq %eax,%rdx
    afbb:	48 8b 05 46 08 01 00 	mov    0x10846(%rip),%rax        # 1b808 <g_861>
    afc2:	48 09 d0             	or     %rdx,%rax
    afc5:	09 85 c4 d6 ff ff    	or     %eax,-0x293c(%rbp)
    afcb:	0f b7 05 24 d3 00 00 	movzwl 0xd324(%rip),%eax        # 182f6 <g_502+0x6>
    afd2:	83 c0 01             	add    $0x1,%eax
    afd5:	66 89 05 1a d3 00 00 	mov    %ax,0xd31a(%rip)        # 182f6 <g_502+0x6>
    afdc:	0f b7 05 13 d3 00 00 	movzwl 0xd313(%rip),%eax        # 182f6 <g_502+0x6>
    afe3:	66 83 f8 1c          	cmp    $0x1c,%ax
    afe7:	0f 87 4a fc ff ff    	ja     ac37 <func_1+0x3482>
    afed:	e9 4d 27 00 00       	jmpq   d73f <func_1+0x5f8a>
    aff2:	48 8d 05 c7 00 01 00 	lea    0x100c7(%rip),%rax        # 1b0c0 <g_168>
    aff9:	48 89 85 20 d7 ff ff 	mov    %rax,-0x28e0(%rbp)
    b000:	48 8d 85 20 d7 ff ff 	lea    -0x28e0(%rbp),%rax
    b007:	48 89 85 90 dd ff ff 	mov    %rax,-0x2270(%rbp)
    b00e:	48 8d 85 20 d7 ff ff 	lea    -0x28e0(%rbp),%rax
    b015:	48 89 85 98 dd ff ff 	mov    %rax,-0x2268(%rbp)
    b01c:	48 8d 85 20 d7 ff ff 	lea    -0x28e0(%rbp),%rax
    b023:	48 89 85 a0 dd ff ff 	mov    %rax,-0x2260(%rbp)
    b02a:	48 8d 85 20 d7 ff ff 	lea    -0x28e0(%rbp),%rax
    b031:	48 89 85 a8 dd ff ff 	mov    %rax,-0x2258(%rbp)
    b038:	48 8d 85 20 d7 ff ff 	lea    -0x28e0(%rbp),%rax
    b03f:	48 89 85 b0 dd ff ff 	mov    %rax,-0x2250(%rbp)
    b046:	48 8d 85 20 d7 ff ff 	lea    -0x28e0(%rbp),%rax
    b04d:	48 89 85 b8 dd ff ff 	mov    %rax,-0x2248(%rbp)
    b054:	48 8d 85 20 d7 ff ff 	lea    -0x28e0(%rbp),%rax
    b05b:	48 89 85 c0 dd ff ff 	mov    %rax,-0x2240(%rbp)
    b062:	48 8d 85 20 d7 ff ff 	lea    -0x28e0(%rbp),%rax
    b069:	48 89 85 c8 dd ff ff 	mov    %rax,-0x2238(%rbp)
    b070:	48 8d 85 20 d7 ff ff 	lea    -0x28e0(%rbp),%rax
    b077:	48 89 85 d0 dd ff ff 	mov    %rax,-0x2230(%rbp)
    b07e:	48 8d 85 20 d7 ff ff 	lea    -0x28e0(%rbp),%rax
    b085:	48 89 85 d8 dd ff ff 	mov    %rax,-0x2228(%rbp)
    b08c:	48 8d 85 20 d7 ff ff 	lea    -0x28e0(%rbp),%rax
    b093:	48 89 85 e0 dd ff ff 	mov    %rax,-0x2220(%rbp)
    b09a:	48 8d 85 20 d7 ff ff 	lea    -0x28e0(%rbp),%rax
    b0a1:	48 89 85 e8 dd ff ff 	mov    %rax,-0x2218(%rbp)
    b0a8:	48 8d 85 20 d7 ff ff 	lea    -0x28e0(%rbp),%rax
    b0af:	48 89 85 f0 dd ff ff 	mov    %rax,-0x2210(%rbp)
    b0b6:	48 8d 85 20 d7 ff ff 	lea    -0x28e0(%rbp),%rax
    b0bd:	48 89 85 f8 dd ff ff 	mov    %rax,-0x2208(%rbp)
    b0c4:	48 c7 85 00 de ff ff 	movq   $0x0,-0x2200(%rbp)
    b0cb:	00 00 00 00 
    b0cf:	48 8d 85 20 d7 ff ff 	lea    -0x28e0(%rbp),%rax
    b0d6:	48 89 85 08 de ff ff 	mov    %rax,-0x21f8(%rbp)
    b0dd:	48 c7 85 10 de ff ff 	movq   $0x0,-0x21f0(%rbp)
    b0e4:	00 00 00 00 
    b0e8:	48 8d 85 20 d7 ff ff 	lea    -0x28e0(%rbp),%rax
    b0ef:	48 89 85 18 de ff ff 	mov    %rax,-0x21e8(%rbp)
    b0f6:	48 8d 85 20 d7 ff ff 	lea    -0x28e0(%rbp),%rax
    b0fd:	48 89 85 20 de ff ff 	mov    %rax,-0x21e0(%rbp)
    b104:	48 c7 85 28 de ff ff 	movq   $0x0,-0x21d8(%rbp)
    b10b:	00 00 00 00 
    b10f:	48 8d 85 20 d7 ff ff 	lea    -0x28e0(%rbp),%rax
    b116:	48 89 85 30 de ff ff 	mov    %rax,-0x21d0(%rbp)
    b11d:	48 8d 85 20 d7 ff ff 	lea    -0x28e0(%rbp),%rax
    b124:	48 89 85 38 de ff ff 	mov    %rax,-0x21c8(%rbp)
    b12b:	48 8d 85 20 d7 ff ff 	lea    -0x28e0(%rbp),%rax
    b132:	48 89 85 40 de ff ff 	mov    %rax,-0x21c0(%rbp)
    b139:	48 8d 85 20 d7 ff ff 	lea    -0x28e0(%rbp),%rax
    b140:	48 89 85 48 de ff ff 	mov    %rax,-0x21b8(%rbp)
    b147:	48 8d 85 20 d7 ff ff 	lea    -0x28e0(%rbp),%rax
    b14e:	48 89 85 50 de ff ff 	mov    %rax,-0x21b0(%rbp)
    b155:	48 8d 85 20 d7 ff ff 	lea    -0x28e0(%rbp),%rax
    b15c:	48 89 85 58 de ff ff 	mov    %rax,-0x21a8(%rbp)
    b163:	48 8d 85 20 d7 ff ff 	lea    -0x28e0(%rbp),%rax
    b16a:	48 89 85 60 de ff ff 	mov    %rax,-0x21a0(%rbp)
    b171:	48 8d 85 20 d7 ff ff 	lea    -0x28e0(%rbp),%rax
    b178:	48 89 85 68 de ff ff 	mov    %rax,-0x2198(%rbp)
    b17f:	48 c7 85 70 de ff ff 	movq   $0x0,-0x2190(%rbp)
    b186:	00 00 00 00 
    b18a:	48 8d 85 20 d7 ff ff 	lea    -0x28e0(%rbp),%rax
    b191:	48 89 85 78 de ff ff 	mov    %rax,-0x2188(%rbp)
    b198:	48 8d 85 20 d7 ff ff 	lea    -0x28e0(%rbp),%rax
    b19f:	48 89 85 80 de ff ff 	mov    %rax,-0x2180(%rbp)
    b1a6:	48 c7 85 88 de ff ff 	movq   $0x0,-0x2178(%rbp)
    b1ad:	00 00 00 00 
    b1b1:	48 8d 85 20 d7 ff ff 	lea    -0x28e0(%rbp),%rax
    b1b8:	48 89 85 90 de ff ff 	mov    %rax,-0x2170(%rbp)
    b1bf:	48 c7 85 98 de ff ff 	movq   $0x0,-0x2168(%rbp)
    b1c6:	00 00 00 00 
    b1ca:	48 8d 85 20 d7 ff ff 	lea    -0x28e0(%rbp),%rax
    b1d1:	48 89 85 a0 de ff ff 	mov    %rax,-0x2160(%rbp)
    b1d8:	48 8d 85 20 d7 ff ff 	lea    -0x28e0(%rbp),%rax
    b1df:	48 89 85 a8 de ff ff 	mov    %rax,-0x2158(%rbp)
    b1e6:	48 8d 85 20 d7 ff ff 	lea    -0x28e0(%rbp),%rax
    b1ed:	48 89 85 b0 de ff ff 	mov    %rax,-0x2150(%rbp)
    b1f4:	48 8d 85 20 d7 ff ff 	lea    -0x28e0(%rbp),%rax
    b1fb:	48 89 85 b8 de ff ff 	mov    %rax,-0x2148(%rbp)
    b202:	48 8d 85 20 d7 ff ff 	lea    -0x28e0(%rbp),%rax
    b209:	48 89 85 c0 de ff ff 	mov    %rax,-0x2140(%rbp)
    b210:	48 8d 85 20 d7 ff ff 	lea    -0x28e0(%rbp),%rax
    b217:	48 89 85 c8 de ff ff 	mov    %rax,-0x2138(%rbp)
    b21e:	48 8d 85 20 d7 ff ff 	lea    -0x28e0(%rbp),%rax
    b225:	48 89 85 d0 de ff ff 	mov    %rax,-0x2130(%rbp)
    b22c:	48 8d 85 20 d7 ff ff 	lea    -0x28e0(%rbp),%rax
    b233:	48 89 85 d8 de ff ff 	mov    %rax,-0x2128(%rbp)
    b23a:	48 8d 85 20 d7 ff ff 	lea    -0x28e0(%rbp),%rax
    b241:	48 89 85 e0 de ff ff 	mov    %rax,-0x2120(%rbp)
    b248:	48 8d 85 20 d7 ff ff 	lea    -0x28e0(%rbp),%rax
    b24f:	48 89 85 e8 de ff ff 	mov    %rax,-0x2118(%rbp)
    b256:	48 8d 85 20 d7 ff ff 	lea    -0x28e0(%rbp),%rax
    b25d:	48 89 85 f0 de ff ff 	mov    %rax,-0x2110(%rbp)
    b264:	48 8d 85 20 d7 ff ff 	lea    -0x28e0(%rbp),%rax
    b26b:	48 89 85 f8 de ff ff 	mov    %rax,-0x2108(%rbp)
    b272:	48 8d 85 20 d7 ff ff 	lea    -0x28e0(%rbp),%rax
    b279:	48 89 85 00 df ff ff 	mov    %rax,-0x2100(%rbp)
    b280:	48 8d 85 20 d7 ff ff 	lea    -0x28e0(%rbp),%rax
    b287:	48 89 85 08 df ff ff 	mov    %rax,-0x20f8(%rbp)
    b28e:	48 8d 85 20 d7 ff ff 	lea    -0x28e0(%rbp),%rax
    b295:	48 89 85 10 df ff ff 	mov    %rax,-0x20f0(%rbp)
    b29c:	48 8d 85 90 dd ff ff 	lea    -0x2270(%rbp),%rax
    b2a3:	48 83 c0 10          	add    $0x10,%rax
    b2a7:	48 89 85 e0 d7 ff ff 	mov    %rax,-0x2820(%rbp)
    b2ae:	c7 85 50 d6 ff ff f7 	movl   $0xfffffff7,-0x29b0(%rbp)
    b2b5:	ff ff ff 
    b2b8:	48 c7 85 e8 d7 ff ff 	movq   $0x0,-0x2818(%rbp)
    b2bf:	00 00 00 00 
    b2c3:	c7 85 54 d6 ff ff 9a 	movl   $0xbc857b9a,-0x29ac(%rbp)
    b2ca:	7b 85 bc 
    b2cd:	48 8d 85 c4 d5 ff ff 	lea    -0x2a3c(%rbp),%rax
    b2d4:	48 89 85 f0 d7 ff ff 	mov    %rax,-0x2810(%rbp)
    b2db:	48 8d 05 28 d1 00 00 	lea    0xd128(%rip),%rax        # 1840a <g_794>
    b2e2:	48 89 85 28 d7 ff ff 	mov    %rax,-0x28d8(%rbp)
    b2e9:	c7 85 58 d6 ff ff fe 	movl   $0xfffffffe,-0x29a8(%rbp)
    b2f0:	ff ff ff 
    b2f3:	c7 85 b0 db ff ff ee 	movl   $0x359b5ee,-0x2450(%rbp)
    b2fa:	b5 59 03 
    b2fd:	c7 85 b4 db ff ff 00 	movl   $0x0,-0x244c(%rbp)
    b304:	00 00 00 
    b307:	c7 85 b8 db ff ff 00 	movl   $0x0,-0x2448(%rbp)
    b30e:	00 00 00 
    b311:	c7 85 bc db ff ff ee 	movl   $0x359b5ee,-0x2444(%rbp)
    b318:	b5 59 03 
    b31b:	c7 85 c0 db ff ff 9d 	movl   $0x97fb619d,-0x2440(%rbp)
    b322:	61 fb 97 
    b325:	c7 85 c4 db ff ff ff 	movl   $0xffffffff,-0x243c(%rbp)
    b32c:	ff ff ff 
    b32f:	c7 85 c8 db ff ff 98 	movl   $0x59c77e98,-0x2438(%rbp)
    b336:	7e c7 59 
    b339:	c7 85 cc db ff ff 3f 	movl   $0xc89463f,-0x2434(%rbp)
    b340:	46 89 0c 
    b343:	c7 85 d0 db ff ff e0 	movl   $0x8c593fe0,-0x2430(%rbp)
    b34a:	3f 59 8c 
    b34d:	c7 85 d4 db ff ff f9 	movl   $0xfffffff9,-0x242c(%rbp)
    b354:	ff ff ff 
    b357:	c7 85 d8 db ff ff 3f 	movl   $0xc89463f,-0x2428(%rbp)
    b35e:	46 89 0c 
    b361:	c7 85 dc db ff ff f4 	movl   $0xd4c651f4,-0x2424(%rbp)
    b368:	51 c6 d4 
    b36b:	c7 85 e0 db ff ff 3f 	movl   $0xc89463f,-0x2420(%rbp)
    b372:	46 89 0c 
    b375:	c7 85 e4 db ff ff 00 	movl   $0x0,-0x241c(%rbp)
    b37c:	00 00 00 
    b37f:	c7 85 e8 db ff ff 98 	movl   $0x59c77e98,-0x2418(%rbp)
    b386:	7e c7 59 
    b389:	c7 85 ec db ff ff 00 	movl   $0x0,-0x2414(%rbp)
    b390:	00 00 00 
    b393:	c7 85 f0 db ff ff 3f 	movl   $0xc89463f,-0x2410(%rbp)
    b39a:	46 89 0c 
    b39d:	c7 85 f4 db ff ff e5 	movl   $0xd82965e5,-0x240c(%rbp)
    b3a4:	65 29 d8 
    b3a7:	c7 85 f8 db ff ff f4 	movl   $0xd4c651f4,-0x2408(%rbp)
    b3ae:	51 c6 d4 
    b3b1:	c7 85 fc db ff ff 00 	movl   $0x0,-0x2404(%rbp)
    b3b8:	00 00 00 
    b3bb:	c7 85 00 dc ff ff 07 	movl   $0x7,-0x2400(%rbp)
    b3c2:	00 00 00 
    b3c5:	c7 85 04 dc ff ff ff 	movl   $0xffffffff,-0x23fc(%rbp)
    b3cc:	ff ff ff 
    b3cf:	c7 85 08 dc ff ff 00 	movl   $0x0,-0x23f8(%rbp)
    b3d6:	00 00 00 
    b3d9:	c7 85 0c dc ff ff 9d 	movl   $0x97fb619d,-0x23f4(%rbp)
    b3e0:	61 fb 97 
    b3e3:	c7 85 10 dc ff ff 9d 	movl   $0x97fb619d,-0x23f0(%rbp)
    b3ea:	61 fb 97 
    b3ed:	c7 85 14 dc ff ff ee 	movl   $0x359b5ee,-0x23ec(%rbp)
    b3f4:	b5 59 03 
    b3f7:	c7 85 18 dc ff ff 00 	movl   $0x0,-0x23e8(%rbp)
    b3fe:	00 00 00 
    b401:	c7 85 1c dc ff ff 00 	movl   $0x0,-0x23e4(%rbp)
    b408:	00 00 00 
    b40b:	c7 85 20 dc ff ff ee 	movl   $0x359b5ee,-0x23e0(%rbp)
    b412:	b5 59 03 
    b415:	c7 85 24 dc ff ff 9d 	movl   $0x97fb619d,-0x23dc(%rbp)
    b41c:	61 fb 97 
    b41f:	c7 85 28 dc ff ff ff 	movl   $0xffffffff,-0x23d8(%rbp)
    b426:	ff ff ff 
    b429:	c7 85 2c dc ff ff f9 	movl   $0xfffffff9,-0x23d4(%rbp)
    b430:	ff ff ff 
    b433:	c7 85 30 dc ff ff 07 	movl   $0x7,-0x23d0(%rbp)
    b43a:	00 00 00 
    b43d:	c7 85 34 dc ff ff 3f 	movl   $0xc89463f,-0x23cc(%rbp)
    b444:	46 89 0c 
    b447:	c7 85 38 dc ff ff 9d 	movl   $0x97fb619d,-0x23c8(%rbp)
    b44e:	61 fb 97 
    b451:	c7 85 3c dc ff ff e5 	movl   $0xd82965e5,-0x23c4(%rbp)
    b458:	65 29 d8 
    b45b:	c7 85 40 dc ff ff ee 	movl   $0x359b5ee,-0x23c0(%rbp)
    b462:	b5 59 03 
    b465:	c7 85 44 dc ff ff f4 	movl   $0xd4c651f4,-0x23bc(%rbp)
    b46c:	51 c6 d4 
    b46f:	c7 85 48 dc ff ff 98 	movl   $0x59c77e98,-0x23b8(%rbp)
    b476:	7e c7 59 
    b479:	c7 85 4c dc ff ff 9d 	movl   $0x97fb619d,-0x23b4(%rbp)
    b480:	61 fb 97 
    b483:	c7 85 50 dc ff ff 98 	movl   $0x59c77e98,-0x23b0(%rbp)
    b48a:	7e c7 59 
    b48d:	c7 85 54 dc ff ff f4 	movl   $0xd4c651f4,-0x23ac(%rbp)
    b494:	51 c6 d4 
    b497:	c7 85 58 dc ff ff ee 	movl   $0x359b5ee,-0x23a8(%rbp)
    b49e:	b5 59 03 
    b4a1:	c7 85 5c dc ff ff e5 	movl   $0xd82965e5,-0x23a4(%rbp)
    b4a8:	65 29 d8 
    b4ab:	c7 85 60 dc ff ff 9d 	movl   $0x97fb619d,-0x23a0(%rbp)
    b4b2:	61 fb 97 
    b4b5:	c7 85 64 dc ff ff 3f 	movl   $0xc89463f,-0x239c(%rbp)
    b4bc:	46 89 0c 
    b4bf:	c7 85 68 dc ff ff 07 	movl   $0x7,-0x2398(%rbp)
    b4c6:	00 00 00 
    b4c9:	c7 85 6c dc ff ff f9 	movl   $0xfffffff9,-0x2394(%rbp)
    b4d0:	ff ff ff 
    b4d3:	66 c7 85 90 d5 ff ff 	movw   $0xaeea,-0x2a70(%rbp)
    b4da:	ea ae 
    b4dc:	66 c7 85 92 d5 ff ff 	movw   $0x5bbd,-0x2a6e(%rbp)
    b4e3:	bd 5b 
    b4e5:	c7 85 f0 d5 ff ff 00 	movl   $0x0,-0x2a10(%rbp)
    b4ec:	00 00 00 
    b4ef:	eb 1a                	jmp    b50b <func_1+0x3d56>
    b4f1:	8b 85 f0 d5 ff ff    	mov    -0x2a10(%rbp),%eax
    b4f7:	48 98                	cltq   
    b4f9:	c7 84 85 d0 d9 ff ff 	movl   $0x8,-0x2630(%rbp,%rax,4)
    b500:	08 00 00 00 
    b504:	83 85 f0 d5 ff ff 01 	addl   $0x1,-0x2a10(%rbp)
    b50b:	83 bd f0 d5 ff ff 05 	cmpl   $0x5,-0x2a10(%rbp)
    b512:	7e dd                	jle    b4f1 <func_1+0x3d3c>
    b514:	c7 05 b2 ce 00 00 00 	movl   $0x0,0xceb2(%rip)        # 183d0 <g_730>
    b51b:	00 00 00 
    b51e:	e9 a4 04 00 00       	jmpq   b9c7 <func_1+0x4212>
    b523:	c7 85 50 f0 ff ff 06 	movl   $0x6,-0xfb0(%rbp)
    b52a:	00 00 00 
    b52d:	c7 85 54 f0 ff ff 8f 	movl   $0xea8e9e8f,-0xfac(%rbp)
    b534:	9e 8e ea 
    b537:	c7 85 58 f0 ff ff 06 	movl   $0x6,-0xfa8(%rbp)
    b53e:	00 00 00 
    b541:	c7 85 5c f0 ff ff 8f 	movl   $0xea8e9e8f,-0xfa4(%rbp)
    b548:	9e 8e ea 
    b54b:	c7 85 60 f0 ff ff 06 	movl   $0x6,-0xfa0(%rbp)
    b552:	00 00 00 
    b555:	c7 85 64 f0 ff ff 8f 	movl   $0xea8e9e8f,-0xf9c(%rbp)
    b55c:	9e 8e ea 
    b55f:	c7 85 68 f0 ff ff 06 	movl   $0x6,-0xf98(%rbp)
    b566:	00 00 00 
    b569:	c7 85 6c f0 ff ff 8f 	movl   $0xea8e9e8f,-0xf94(%rbp)
    b570:	9e 8e ea 
    b573:	c7 85 70 f0 ff ff 06 	movl   $0x6,-0xf90(%rbp)
    b57a:	00 00 00 
    b57d:	48 8d 85 70 dc ff ff 	lea    -0x2390(%rbp),%rax
    b584:	48 83 c0 20          	add    $0x20,%rax
    b588:	48 89 85 48 d8 ff ff 	mov    %rax,-0x27b8(%rbp)
    b58f:	48 c7 85 50 d8 ff ff 	movq   $0x0,-0x27b0(%rbp)
    b596:	00 00 00 00 
    b59a:	48 c7 85 58 d8 ff ff 	movq   $0x0,-0x27a8(%rbp)
    b5a1:	00 00 00 00 
    b5a5:	48 8d 85 bc d5 ff ff 	lea    -0x2a44(%rbp),%rax
    b5ac:	48 89 85 60 d8 ff ff 	mov    %rax,-0x27a0(%rbp)
    b5b3:	c7 85 f4 d5 ff ff 01 	movl   $0x1,-0x2a0c(%rbp)
    b5ba:	00 00 00 
    b5bd:	c7 85 74 d6 ff ff ee 	movl   $0xcabb6bee,-0x298c(%rbp)
    b5c4:	6b bb ca 
    b5c7:	c7 85 78 d6 ff ff 07 	movl   $0x7,-0x2988(%rbp)
    b5ce:	00 00 00 
    b5d1:	c7 85 7c d6 ff ff 6e 	movl   $0x22c5616e,-0x2984(%rbp)
    b5d8:	61 c5 22 
    b5db:	c7 85 00 db ff ff 36 	movl   $0x8d8ea836,-0x2500(%rbp)
    b5e2:	a8 8e 8d 
    b5e5:	c7 85 04 db ff ff 36 	movl   $0x8d8ea836,-0x24fc(%rbp)
    b5ec:	a8 8e 8d 
    b5ef:	c7 85 08 db ff ff 36 	movl   $0x8d8ea836,-0x24f8(%rbp)
    b5f6:	a8 8e 8d 
    b5f9:	c7 85 0c db ff ff 36 	movl   $0x8d8ea836,-0x24f4(%rbp)
    b600:	a8 8e 8d 
    b603:	c7 85 10 db ff ff 36 	movl   $0x8d8ea836,-0x24f0(%rbp)
    b60a:	a8 8e 8d 
    b60d:	c7 85 80 d6 ff ff 01 	movl   $0x1,-0x2980(%rbp)
    b614:	00 00 00 
    b617:	c7 85 b8 d5 ff ff ef 	movl   $0xffffffef,-0x2a48(%rbp)
    b61e:	ff ff ff 
    b621:	e9 1e 01 00 00       	jmpq   b744 <func_1+0x3f8f>
    b626:	48 8d 05 a3 cb 00 00 	lea    0xcba3(%rip),%rax        # 181d0 <g_125>
    b62d:	48 89 85 68 d8 ff ff 	mov    %rax,-0x2798(%rbp)
    b634:	c7 85 84 d6 ff ff 3e 	movl   $0xb2e40c3e,-0x297c(%rbp)
    b63b:	0c e4 b2 
    b63e:	48 c7 85 70 d8 ff ff 	movq   $0x0,-0x2790(%rbp)
    b645:	00 00 00 00 
    b649:	48 8b 35 90 fa 00 00 	mov    0xfa90(%rip),%rsi        # 1b0e0 <g_281>
    b650:	48 8b 8d 08 d7 ff ff 	mov    -0x28f8(%rbp),%rcx
    b657:	48 8b 06             	mov    (%rsi),%rax
    b65a:	48 8b 56 08          	mov    0x8(%rsi),%rdx
    b65e:	48 89 01             	mov    %rax,(%rcx)
    b661:	48 89 51 08          	mov    %rdx,0x8(%rcx)
    b665:	48 8b 46 10          	mov    0x10(%rsi),%rax
    b669:	48 89 41 10          	mov    %rax,0x10(%rcx)
    b66d:	48 8b 05 24 fd 00 00 	mov    0xfd24(%rip),%rax        # 1b398 <g_1091>
    b674:	48 89 05 1d fd 00 00 	mov    %rax,0xfd1d(%rip)        # 1b398 <g_1091>
    b67b:	0f b7 05 7e cd 00 00 	movzwl 0xcd7e(%rip),%eax        # 18400 <g_774+0x10>
    b682:	48 8b 05 ff fc 00 00 	mov    0xfcff(%rip),%rax        # 1b388 <g_939>
    b689:	48 8b 00             	mov    (%rax),%rax
    b68c:	0f b7 00             	movzwl (%rax),%eax
    b68f:	98                   	cwtl   
    b690:	89 c6                	mov    %eax,%esi
    b692:	bf fb 45 00 00       	mov    $0x45fb,%edi
    b697:	e8 59 ad ff ff       	callq  63f5 <safe_mul_func_int16_t_s_s>
    b69c:	8b 9d 84 d6 ff ff    	mov    -0x297c(%rbp),%ebx
    b6a2:	8b 85 84 d6 ff ff    	mov    -0x297c(%rbp),%eax
    b6a8:	0f b7 c0             	movzwl %ax,%eax
    b6ab:	be 0d 00 00 00       	mov    $0xd,%esi
    b6b0:	89 c7                	mov    %eax,%edi
    b6b2:	e8 c3 b7 ff ff       	callq  6e7a <safe_rshift_func_uint16_t_u_u>
    b6b7:	66 85 c0             	test   %ax,%ax
    b6ba:	74 0b                	je     b6c7 <func_1+0x3f12>
    b6bc:	48 8b 85 18 d7 ff ff 	mov    -0x28e8(%rbp),%rax
    b6c3:	8b 00                	mov    (%rax),%eax
    b6c5:	85 c0                	test   %eax,%eax
    b6c7:	89 de                	mov    %ebx,%esi
    b6c9:	bf 00 00 00 00       	mov    $0x0,%edi
    b6ce:	e8 90 ae ff ff       	callq  6563 <safe_rshift_func_int16_t_s_u>
    b6d3:	66 c1 e8 0f          	shr    $0xf,%ax
    b6d7:	0f b6 c0             	movzbl %al,%eax
    b6da:	be 00 00 00 00       	mov    $0x0,%esi
    b6df:	89 c7                	mov    %eax,%edi
    b6e1:	e8 2c ab ff ff       	callq  6212 <safe_mul_func_int8_t_s_s>
    b6e6:	48 8b 85 68 da ff ff 	mov    -0x2598(%rbp),%rax
    b6ed:	48 39 85 70 d8 ff ff 	cmp    %rax,-0x2790(%rbp)
    b6f4:	0f 94 c2             	sete   %dl
    b6f7:	48 8b 05 e2 fb 00 00 	mov    0xfbe2(%rip),%rax        # 1b2e0 <g_798>
    b6fe:	48 8b 00             	mov    (%rax),%rax
    b701:	48 8b 00             	mov    (%rax),%rax
    b704:	0f b6 d2             	movzbl %dl,%edx
    b707:	66 89 10             	mov    %dx,(%rax)
    b70a:	0f b7 00             	movzwl (%rax),%eax
    b70d:	88 05 86 da 00 00    	mov    %al,0xda86(%rip)        # 19199 <g_1104+0x1>
    b713:	b8 07 00 00 00       	mov    $0x7,%eax
    b718:	66 85 c0             	test   %ax,%ax
    b71b:	0f 95 c2             	setne  %dl
    b71e:	48 8b 85 10 d7 ff ff 	mov    -0x28f0(%rbp),%rax
    b725:	0f b6 d2             	movzbl %dl,%edx
    b728:	89 10                	mov    %edx,(%rax)
    b72a:	8b 85 b8 d5 ff ff    	mov    -0x2a48(%rbp),%eax
    b730:	98                   	cwtl   
    b731:	be 06 00 00 00       	mov    $0x6,%esi
    b736:	89 c7                	mov    %eax,%edi
    b738:	e8 76 ac ff ff       	callq  63b3 <safe_add_func_int16_t_s_s>
    b73d:	98                   	cwtl   
    b73e:	89 85 b8 d5 ff ff    	mov    %eax,-0x2a48(%rbp)
    b744:	8b 85 b8 d5 ff ff    	mov    -0x2a48(%rbp),%eax
    b74a:	83 f8 01             	cmp    $0x1,%eax
    b74d:	0f 85 d3 fe ff ff    	jne    b626 <func_1+0x3e71>
    b753:	48 8b 15 66 f9 00 00 	mov    0xf966(%rip),%rdx        # 1b0c0 <g_168>
    b75a:	48 8b 05 5f f9 00 00 	mov    0xf95f(%rip),%rax        # 1b0c0 <g_168>
    b761:	0f b7 12             	movzwl (%rdx),%edx
    b764:	66 89 10             	mov    %dx,(%rax)
    b767:	0f b7 00             	movzwl (%rax),%eax
    b76a:	98                   	cwtl   
    b76b:	be 66 77 00 00       	mov    $0x7766,%esi
    b770:	89 c7                	mov    %eax,%edi
    b772:	e8 5c ac ff ff       	callq  63d3 <safe_sub_func_int16_t_s_s>
    b777:	66 89 85 6c d5 ff ff 	mov    %ax,-0x2a94(%rbp)
    b77e:	48 8b 85 c8 d7 ff ff 	mov    -0x2838(%rbp),%rax
    b785:	8b 00                	mov    (%rax),%eax
    b787:	0f bf d8             	movswl %ax,%ebx
    b78a:	8b 85 24 d6 ff ff    	mov    -0x29dc(%rbp),%eax
    b790:	44 0f bf e0          	movswl %ax,%r12d
    b794:	44 8b 2d c5 ca 00 00 	mov    0xcac5(%rip),%r13d        # 18260 <g_289>
    b79b:	8b 85 50 d6 ff ff    	mov    -0x29b0(%rbp),%eax
    b7a1:	4c 63 f0             	movslq %eax,%r14
    b7a4:	8b 85 50 d6 ff ff    	mov    -0x29b0(%rbp),%eax
    b7aa:	44 0f bf f8          	movswl %ax,%r15d
    b7ae:	48 8b 85 e0 d7 ff ff 	mov    -0x2820(%rbp),%rax
    b7b5:	48 89 85 50 d8 ff ff 	mov    %rax,-0x27b0(%rbp)
    b7bc:	48 8b 05 2d fb 00 00 	mov    0xfb2d(%rip),%rax        # 1b2f0 <g_800>
    b7c3:	48 8b 00             	mov    (%rax),%rax
    b7c6:	48 39 85 50 d8 ff ff 	cmp    %rax,-0x27b0(%rbp)
    b7cd:	0f 94 c0             	sete   %al
    b7d0:	0f b6 c0             	movzbl %al,%eax
    b7d3:	89 85 60 d5 ff ff    	mov    %eax,-0x2aa0(%rbp)
    b7d9:	b8 07 00 00 00       	mov    $0x7,%eax
    b7de:	0f b7 c0             	movzwl %ax,%eax
    b7e1:	48 ba 23 94 c3 52 f4 	movabs $0xa12e12f452c39423,%rdx
    b7e8:	12 2e a1 
    b7eb:	48 89 c6             	mov    %rax,%rsi
    b7ee:	48 89 d7             	mov    %rdx,%rdi
    b7f1:	e8 8a b8 ff ff       	callq  7080 <safe_mod_func_uint64_t_u_u>
    b7f6:	89 c2                	mov    %eax,%edx
    b7f8:	48 8b 85 70 d7 ff ff 	mov    -0x2890(%rbp),%rax
    b7ff:	88 10                	mov    %dl,(%rax)
    b801:	48 8b 85 70 d7 ff ff 	mov    -0x2890(%rbp),%rax
    b808:	0f b6 00             	movzbl (%rax),%eax
    b80b:	0f be d0             	movsbl %al,%edx
    b80e:	8b 85 70 f0 ff ff    	mov    -0xf90(%rbp),%eax
    b814:	09 c2                	or     %eax,%edx
    b816:	8b 85 38 d6 ff ff    	mov    -0x29c8(%rbp),%eax
    b81c:	39 c2                	cmp    %eax,%edx
    b81e:	0f 93 c0             	setae  %al
    b821:	0f b6 c0             	movzbl %al,%eax
    b824:	39 85 60 d5 ff ff    	cmp    %eax,-0x2aa0(%rbp)
    b82a:	0f 9d c0             	setge  %al
    b82d:	0f b6 c0             	movzbl %al,%eax
    b830:	44 89 fe             	mov    %r15d,%esi
    b833:	89 c7                	mov    %eax,%edi
    b835:	e8 1b ac ff ff       	callq  6455 <safe_div_func_int16_t_s_s>
    b83a:	0f bf d0             	movswl %ax,%edx
    b83d:	0f b7 05 bc ca 00 00 	movzwl 0xcabc(%rip),%eax        # 18300 <g_502+0x10>
    b844:	0f b7 c0             	movzwl %ax,%eax
    b847:	21 d0                	and    %edx,%eax
    b849:	23 85 50 d6 ff ff    	and    -0x29b0(%rbp),%eax
    b84f:	48 98                	cltq   
    b851:	4c 89 f6             	mov    %r14,%rsi
    b854:	48 89 c7             	mov    %rax,%rdi
    b857:	e8 58 b1 ff ff       	callq  69b4 <safe_mod_func_int64_t_s_s>
    b85c:	0f b7 c0             	movzwl %ax,%eax
    b85f:	be 0d 00 00 00       	mov    $0xd,%esi
    b864:	89 c7                	mov    %eax,%edi
    b866:	e8 53 b5 ff ff       	callq  6dbe <safe_lshift_func_uint16_t_u_s>
    b86b:	0f be c0             	movsbl %al,%eax
    b86e:	44 89 ee             	mov    %r13d,%esi
    b871:	89 c7                	mov    %eax,%edi
    b873:	e8 76 aa ff ff       	callq  62ee <safe_lshift_func_int8_t_s_u>
    b878:	48 8b 95 60 d8 ff ff 	mov    -0x27a0(%rbp),%rdx
    b87f:	8b 12                	mov    (%rdx),%edx
    b881:	0f be c0             	movsbl %al,%eax
    b884:	09 c2                	or     %eax,%edx
    b886:	48 8b 85 60 d8 ff ff 	mov    -0x27a0(%rbp),%rax
    b88d:	89 10                	mov    %edx,(%rax)
    b88f:	be 09 00 00 00       	mov    $0x9,%esi
    b894:	bf 01 00 00 00       	mov    $0x1,%edi
    b899:	e8 87 b6 ff ff       	callq  6f25 <safe_div_func_uint32_t_u_u>
    b89e:	48 8b 85 48 d8 ff ff 	mov    -0x27b8(%rbp),%rax
    b8a5:	48 8b 00             	mov    (%rax),%rax
    b8a8:	48 85 c0             	test   %rax,%rax
    b8ab:	75 0a                	jne    b8b7 <func_1+0x4102>
    b8ad:	8b 85 60 f0 ff ff    	mov    -0xfa0(%rbp),%eax
    b8b3:	85 c0                	test   %eax,%eax
    b8b5:	74 07                	je     b8be <func_1+0x4109>
    b8b7:	b8 01 00 00 00       	mov    $0x1,%eax
    b8bc:	eb 05                	jmp    b8c3 <func_1+0x410e>
    b8be:	b8 00 00 00 00       	mov    $0x0,%eax
    b8c3:	98                   	cwtl   
    b8c4:	44 89 e6             	mov    %r12d,%esi
    b8c7:	89 c7                	mov    %eax,%edi
    b8c9:	e8 27 ab ff ff       	callq  63f5 <safe_mul_func_int16_t_s_s>
    b8ce:	98                   	cwtl   
    b8cf:	89 de                	mov    %ebx,%esi
    b8d1:	89 c7                	mov    %eax,%edi
    b8d3:	e8 db aa ff ff       	callq  63b3 <safe_add_func_int16_t_s_s>
    b8d8:	66 0b 85 6c d5 ff ff 	or     -0x2a94(%rbp),%ax
    b8df:	98                   	cwtl   
    b8e0:	0d 21 b5 7b a5       	or     $0xa57bb521,%eax
    b8e5:	89 c2                	mov    %eax,%edx
    b8e7:	48 8b 85 c8 d7 ff ff 	mov    -0x2838(%rbp),%rax
    b8ee:	89 10                	mov    %edx,(%rax)
    b8f0:	48 8b 85 c8 d7 ff ff 	mov    -0x2838(%rbp),%rax
    b8f7:	8b 00                	mov    (%rax),%eax
    b8f9:	89 85 80 d9 ff ff    	mov    %eax,-0x2680(%rbp)
    b8ff:	c7 05 1b c7 00 00 f0 	movl   $0xfffffff0,0xc71b(%rip)        # 18024 <g_27>
    b906:	ff ff ff 
    b909:	e9 85 00 00 00       	jmpq   b993 <func_1+0x41de>
    b90e:	83 85 f4 d5 ff ff 01 	addl   $0x1,-0x2a0c(%rbp)
    b915:	48 c7 85 58 d7 ff ff 	movq   $0x1,-0x28a8(%rbp)
    b91c:	01 00 00 00 
    b920:	eb 49                	jmp    b96b <func_1+0x41b6>
    b922:	66 c7 85 94 d5 ff ff 	movw   $0x1,-0x2a6c(%rbp)
    b929:	01 00 
    b92b:	48 8b b5 d0 d6 ff ff 	mov    -0x2930(%rbp),%rsi
    b932:	48 8b 8d 08 d7 ff ff 	mov    -0x28f8(%rbp),%rcx
    b939:	48 8b 06             	mov    (%rsi),%rax
    b93c:	48 8b 56 08          	mov    0x8(%rsi),%rdx
    b940:	48 89 01             	mov    %rax,(%rcx)
    b943:	48 89 51 08          	mov    %rdx,0x8(%rcx)
    b947:	48 8b 46 10          	mov    0x10(%rsi),%rax
    b94b:	48 89 41 10          	mov    %rax,0x10(%rcx)
    b94f:	48 8b 05 7a f7 00 00 	mov    0xf77a(%rip),%rax        # 1b0d0 <g_212>
    b956:	48 8b 00             	mov    (%rax),%rax
    b959:	48 8b 95 e8 d7 ff ff 	mov    -0x2818(%rbp),%rdx
    b960:	48 89 10             	mov    %rdx,(%rax)
    b963:	48 83 ad 58 d7 ff ff 	subq   $0x1,-0x28a8(%rbp)
    b96a:	01 
    b96b:	48 83 bd 58 d7 ff ff 	cmpq   $0x0,-0x28a8(%rbp)
    b972:	00 
    b973:	79 ad                	jns    b922 <func_1+0x416d>
    b975:	8b 05 a9 c6 00 00    	mov    0xc6a9(%rip),%eax        # 18024 <g_27>
    b97b:	0f be c0             	movsbl %al,%eax
    b97e:	be 01 00 00 00       	mov    $0x1,%esi
    b983:	89 c7                	mov    %eax,%edi
    b985:	e8 4a a8 ff ff       	callq  61d4 <safe_add_func_int8_t_s_s>
    b98a:	0f be c0             	movsbl %al,%eax
    b98d:	89 05 91 c6 00 00    	mov    %eax,0xc691(%rip)        # 18024 <g_27>
    b993:	8b 05 8b c6 00 00    	mov    0xc68b(%rip),%eax        # 18024 <g_27>
    b999:	83 f8 25             	cmp    $0x25,%eax
    b99c:	0f 87 6c ff ff ff    	ja     b90e <func_1+0x4159>
    b9a2:	83 ad 80 d6 ff ff 01 	subl   $0x1,-0x2980(%rbp)
    b9a9:	8b 05 21 ca 00 00    	mov    0xca21(%rip),%eax        # 183d0 <g_730>
    b9af:	0f b7 c0             	movzwl %ax,%eax
    b9b2:	be 04 00 00 00       	mov    $0x4,%esi
    b9b7:	89 c7                	mov    %eax,%edi
    b9b9:	e8 41 b3 ff ff       	callq  6cff <safe_add_func_uint16_t_u_u>
    b9be:	0f b7 c0             	movzwl %ax,%eax
    b9c1:	89 05 09 ca 00 00    	mov    %eax,0xca09(%rip)        # 183d0 <g_730>
    b9c7:	8b 05 03 ca 00 00    	mov    0xca03(%rip),%eax        # 183d0 <g_730>
    b9cd:	83 f8 22             	cmp    $0x22,%eax
    b9d0:	0f 86 4d fb ff ff    	jbe    b523 <func_1+0x3d6e>
    b9d6:	48 8b 05 fb f8 00 00 	mov    0xf8fb(%rip),%rax        # 1b2d8 <g_799>
    b9dd:	48 8b 00             	mov    (%rax),%rax
    b9e0:	0f b7 00             	movzwl (%rax),%eax
    b9e3:	0f bf d8             	movswl %ax,%ebx
    b9e6:	48 8b 05 1b fe 00 00 	mov    0xfe1b(%rip),%rax        # 1b808 <g_861>
    b9ed:	44 0f be e0          	movsbl %al,%r12d
    b9f1:	4c 8b 2d 10 fe 00 00 	mov    0xfe10(%rip),%r13        # 1b808 <g_861>
    b9f8:	48 8b 05 79 c8 00 00 	mov    0xc879(%rip),%rax        # 18278 <g_342+0x8>
    b9ff:	0f b6 d0             	movzbl %al,%edx
    ba02:	0f b7 85 8a d5 ff ff 	movzwl -0x2a76(%rbp),%eax
    ba09:	0f b6 c0             	movzbl %al,%eax
    ba0c:	89 d6                	mov    %edx,%esi
    ba0e:	89 c7                	mov    %eax,%edi
    ba10:	e8 7e b1 ff ff       	callq  6b93 <safe_mul_func_uint8_t_u_u>
    ba15:	0f b6 d0             	movzbl %al,%edx
    ba18:	48 8b 85 18 d7 ff ff 	mov    -0x28e8(%rbp),%rax
    ba1f:	48 89 85 d0 d7 ff ff 	mov    %rax,-0x2830(%rbp)
    ba26:	48 83 bd d0 d7 ff ff 	cmpq   $0x0,-0x2830(%rbp)
    ba2d:	00 
    ba2e:	0f 95 c0             	setne  %al
    ba31:	0f b6 c0             	movzbl %al,%eax
    ba34:	89 d6                	mov    %edx,%esi
    ba36:	89 c7                	mov    %eax,%edi
    ba38:	e8 e2 b2 ff ff       	callq  6d1f <safe_sub_func_uint16_t_u_u>
    ba3d:	66 85 c0             	test   %ax,%ax
    ba40:	74 45                	je     ba87 <func_1+0x42d2>
    ba42:	8b 85 d0 d9 ff ff    	mov    -0x2630(%rbp),%eax
    ba48:	83 f8 01             	cmp    $0x1,%eax
    ba4b:	0f 94 c0             	sete   %al
    ba4e:	0f b6 d0             	movzbl %al,%edx
    ba51:	48 8b 85 f0 d7 ff ff 	mov    -0x2810(%rbp),%rax
    ba58:	89 10                	mov    %edx,(%rax)
    ba5a:	48 8b 15 af fd 00 00 	mov    0xfdaf(%rip),%rdx        # 1b810 <g_1178>
    ba61:	48 8b 85 28 d7 ff ff 	mov    -0x28d8(%rbp),%rax
    ba68:	48 39 c2             	cmp    %rax,%rdx
    ba6b:	0f 95 c2             	setne  %dl
    ba6e:	48 8b 85 10 d7 ff ff 	mov    -0x28f0(%rbp),%rax
    ba75:	0f b6 d2             	movzbl %dl,%edx
    ba78:	89 10                	mov    %edx,(%rax)
    ba7a:	8b 00                	mov    (%rax),%eax
    ba7c:	85 c0                	test   %eax,%eax
    ba7e:	74 07                	je     ba87 <func_1+0x42d2>
    ba80:	b8 01 00 00 00       	mov    $0x1,%eax
    ba85:	eb 05                	jmp    ba8c <func_1+0x42d7>
    ba87:	b8 00 00 00 00       	mov    $0x0,%eax
    ba8c:	0f be c0             	movsbl %al,%eax
    ba8f:	be 8b ff ff ff       	mov    $0xffffff8b,%esi
    ba94:	89 c7                	mov    %eax,%edi
    ba96:	e8 57 a7 ff ff       	callq  61f2 <safe_sub_func_int8_t_s_s>
    ba9b:	8b 05 2b c7 00 00    	mov    0xc72b(%rip),%eax        # 181cc <g_117>
    baa1:	48 98                	cltq   
    baa3:	4c 89 ee             	mov    %r13,%rsi
    baa6:	48 89 c7             	mov    %rax,%rdi
    baa9:	e8 93 ad ff ff       	callq  6841 <safe_add_func_int64_t_s_s>
    baae:	98                   	cwtl   
    baaf:	be 08 00 00 00       	mov    $0x8,%esi
    bab4:	89 c7                	mov    %eax,%edi
    bab6:	e8 6f aa ff ff       	callq  652a <safe_rshift_func_int16_t_s_s>
    babb:	66 83 f8 0e          	cmp    $0xe,%ax
    babf:	0f 9f c0             	setg   %al
    bac2:	0f b6 c0             	movzbl %al,%eax
    bac5:	44 89 e6             	mov    %r12d,%esi
    bac8:	89 c7                	mov    %eax,%edi
    baca:	e8 43 a7 ff ff       	callq  6212 <safe_mul_func_int8_t_s_s>
    bacf:	89 de                	mov    %ebx,%esi
    bad1:	bf 27 45 00 00       	mov    $0x4527,%edi
    bad6:	e8 1a a9 ff ff       	callq  63f5 <safe_mul_func_int16_t_s_s>
    badb:	48 0f bf d0          	movswq %ax,%rdx
    badf:	48 8d 05 6a c8 00 00 	lea    0xc86a(%rip),%rax        # 18350 <g_627>
    bae6:	48 8b 00             	mov    (%rax),%rax
    bae9:	48 89 d6             	mov    %rdx,%rsi
    baec:	48 89 c7             	mov    %rax,%rdi
    baef:	e8 c0 ae ff ff       	callq  69b4 <safe_mod_func_int64_t_s_s>
    baf4:	be 07 00 00 00       	mov    $0x7,%esi
    baf9:	48 89 c7             	mov    %rax,%rdi
    bafc:	e8 b3 ae ff ff       	callq  69b4 <safe_mod_func_int64_t_s_s>
    bb01:	48 85 c0             	test   %rax,%rax
    bb04:	0f 84 22 18 00 00    	je     d32c <func_1+0x5b77>
    bb0a:	c6 85 80 d5 ff ff f9 	movb   $0xf9,-0x2a80(%rbp)
    bb11:	c7 85 d8 d5 ff ff 01 	movl   $0x1,-0x2a28(%rbp)
    bb18:	00 00 00 
    bb1b:	48 8d 85 b4 d5 ff ff 	lea    -0x2a4c(%rbp),%rax
    bb22:	48 89 85 50 d7 ff ff 	mov    %rax,-0x28b0(%rbp)
    bb29:	c6 85 81 d5 ff ff 89 	movb   $0x89,-0x2a7f(%rbp)
    bb30:	c7 85 64 d6 ff ff 00 	movl   $0x0,-0x299c(%rbp)
    bb37:	00 00 00 
    bb3a:	c7 45 be 01 01 01 01 	movl   $0x1010101,-0x42(%rbp)
    bb41:	66 c7 45 c2 01 01    	movw   $0x101,-0x3e(%rbp)
    bb47:	c7 85 ec d5 ff ff 00 	movl   $0x0,-0x2a14(%rbp)
    bb4e:	00 00 00 
    bb51:	eb 4b                	jmp    bb9e <func_1+0x43e9>
    bb53:	c7 85 dc d5 ff ff 00 	movl   $0x0,-0x2a24(%rbp)
    bb5a:	00 00 00 
    bb5d:	eb 2f                	jmp    bb8e <func_1+0x43d9>
    bb5f:	8b 85 dc d5 ff ff    	mov    -0x2a24(%rbp),%eax
    bb65:	48 98                	cltq   
    bb67:	8b 95 ec d5 ff ff    	mov    -0x2a14(%rbp),%edx
    bb6d:	48 63 d2             	movslq %edx,%rdx
    bb70:	48 c1 e2 02          	shl    $0x2,%rdx
    bb74:	48 8d 5d d0          	lea    -0x30(%rbp),%rbx
    bb78:	48 01 da             	add    %rbx,%rdx
    bb7b:	48 01 d0             	add    %rdx,%rax
    bb7e:	48 2d 7c 26 00 00    	sub    $0x267c,%rax
    bb84:	c6 00 00             	movb   $0x0,(%rax)
    bb87:	83 85 dc d5 ff ff 01 	addl   $0x1,-0x2a24(%rbp)
    bb8e:	83 bd dc d5 ff ff 03 	cmpl   $0x3,-0x2a24(%rbp)
    bb95:	7e c8                	jle    bb5f <func_1+0x43aa>
    bb97:	83 85 ec d5 ff ff 01 	addl   $0x1,-0x2a14(%rbp)
    bb9e:	83 bd ec d5 ff ff 00 	cmpl   $0x0,-0x2a14(%rbp)
    bba5:	7e ac                	jle    bb53 <func_1+0x439e>
    bba7:	83 bd 58 d6 ff ff 01 	cmpl   $0x1,-0x29a8(%rbp)
    bbae:	0f 97 c0             	seta   %al
    bbb1:	89 c2                	mov    %eax,%edx
    bbb3:	48 8b 85 70 d7 ff ff 	mov    -0x2890(%rbp),%rax
    bbba:	88 10                	mov    %dl,(%rax)
    bbbc:	48 8b 85 70 d7 ff ff 	mov    -0x2890(%rbp),%rax
    bbc3:	0f b6 00             	movzbl (%rax),%eax
    bbc6:	0f be c0             	movsbl %al,%eax
    bbc9:	be 00 00 00 00       	mov    $0x0,%esi
    bbce:	89 c7                	mov    %eax,%edi
    bbd0:	e8 60 a7 ff ff       	callq  6335 <safe_rshift_func_int8_t_s_s>
    bbd5:	8b 85 d4 d9 ff ff    	mov    -0x262c(%rbp),%eax
    bbdb:	48 98                	cltq   
    bbdd:	83 e0 01             	and    $0x1,%eax
    bbe0:	48 89 c2             	mov    %rax,%rdx
    bbe3:	48 8b 85 18 d7 ff ff 	mov    -0x28e8(%rbp),%rax
    bbea:	8b 00                	mov    (%rax),%eax
    bbec:	48 98                	cltq   
    bbee:	48 09 d0             	or     %rdx,%rax
    bbf1:	48 85 c0             	test   %rax,%rax
    bbf4:	74 07                	je     bbfd <func_1+0x4448>
    bbf6:	ba 01 00 00 00       	mov    $0x1,%edx
    bbfb:	eb 05                	jmp    bc02 <func_1+0x444d>
    bbfd:	ba 00 00 00 00       	mov    $0x0,%edx
    bc02:	48 8b 85 c8 d7 ff ff 	mov    -0x2838(%rbp),%rax
    bc09:	8b 00                	mov    (%rax),%eax
    bc0b:	09 c2                	or     %eax,%edx
    bc0d:	48 8b 85 c8 d7 ff ff 	mov    -0x2838(%rbp),%rax
    bc14:	89 10                	mov    %edx,(%rax)
    bc16:	48 8b 85 18 d7 ff ff 	mov    -0x28e8(%rbp),%rax
    bc1d:	48 8b 95 c8 d7 ff ff 	mov    -0x2838(%rbp),%rdx
    bc24:	8b 12                	mov    (%rdx),%edx
    bc26:	89 10                	mov    %edx,(%rax)
    bc28:	8b 85 d8 d9 ff ff    	mov    -0x2628(%rbp),%eax
    bc2e:	83 f8 01             	cmp    $0x1,%eax
    bc31:	0f 84 62 03 00 00    	je     bf99 <func_1+0x47e4>
    bc37:	c7 85 e0 d5 ff ff 01 	movl   $0x1,-0x2a20(%rbp)
    bc3e:	00 00 00 
    bc41:	48 8d 05 98 cc 00 00 	lea    0xcc98(%rip),%rax        # 188e0 <g_1018+0x480>
    bc48:	48 89 85 28 d8 ff ff 	mov    %rax,-0x27d8(%rbp)
    bc4f:	48 8d 85 08 d7 ff ff 	lea    -0x28f8(%rbp),%rax
    bc56:	48 89 85 30 d8 ff ff 	mov    %rax,-0x27d0(%rbp)
    bc5d:	c6 85 82 d5 ff ff 00 	movb   $0x0,-0x2a7e(%rbp)
    bc64:	48 c7 05 69 c7 00 00 	movq   $0x0,0xc769(%rip)        # 183d8 <g_730+0x8>
    bc6b:	00 00 00 00 
    bc6f:	e9 83 01 00 00       	jmpq   bdf7 <func_1+0x4642>
    bc74:	c7 85 70 d6 ff ff f8 	movl   $0xfffffff8,-0x2990(%rbp)
    bc7b:	ff ff ff 
    bc7e:	48 8b 85 18 d7 ff ff 	mov    -0x28e8(%rbp),%rax
    bc85:	8b 00                	mov    (%rax),%eax
    bc87:	89 c3                	mov    %eax,%ebx
    bc89:	83 bd 70 d6 ff ff 01 	cmpl   $0x1,-0x2990(%rbp)
    bc90:	0f 94 c0             	sete   %al
    bc93:	0f b6 d0             	movzbl %al,%edx
    bc96:	48 8b 05 3b f6 00 00 	mov    0xf63b(%rip),%rax        # 1b2d8 <g_799>
    bc9d:	48 8b 00             	mov    (%rax),%rax
    bca0:	0f b7 00             	movzwl (%rax),%eax
    bca3:	98                   	cwtl   
    bca4:	21 d0                	and    %edx,%eax
    bca6:	89 c2                	mov    %eax,%edx
    bca8:	8b 85 6c d9 ff ff    	mov    -0x2694(%rbp),%eax
    bcae:	39 85 70 d6 ff ff    	cmp    %eax,-0x2990(%rbp)
    bcb4:	0f 9e c0             	setle  %al
    bcb7:	0f b6 c0             	movzbl %al,%eax
    bcba:	89 d6                	mov    %edx,%esi
    bcbc:	89 c7                	mov    %eax,%edi
    bcbe:	e8 3a b2 ff ff       	callq  6efd <safe_mod_func_uint32_t_u_u>
    bcc3:	0f be c0             	movsbl %al,%eax
    bcc6:	be 38 00 00 00       	mov    $0x38,%esi
    bccb:	89 c7                	mov    %eax,%edi
    bccd:	e8 20 a5 ff ff       	callq  61f2 <safe_sub_func_int8_t_s_s>
    bcd2:	0f be d0             	movsbl %al,%edx
    bcd5:	48 8b 05 04 f6 00 00 	mov    0xf604(%rip),%rax        # 1b2e0 <g_798>
    bcdc:	48 8b 00             	mov    (%rax),%rax
    bcdf:	48 8b 00             	mov    (%rax),%rax
    bce2:	0f b7 00             	movzwl (%rax),%eax
    bce5:	98                   	cwtl   
    bce6:	89 d6                	mov    %edx,%esi
    bce8:	89 c7                	mov    %eax,%edi
    bcea:	e8 c4 a6 ff ff       	callq  63b3 <safe_add_func_int16_t_s_s>
    bcef:	0f b7 05 de c5 00 00 	movzwl 0xc5de(%rip),%eax        # 182d4 <g_499+0x4>
    bcf6:	8b 85 70 d6 ff ff    	mov    -0x2990(%rbp),%eax
    bcfc:	0f b6 c0             	movzbl %al,%eax
    bcff:	be 04 00 00 00       	mov    $0x4,%esi
    bd04:	89 c7                	mov    %eax,%edi
    bd06:	e8 b3 af ff ff       	callq  6cbe <safe_rshift_func_uint8_t_u_u>
    bd0b:	8b 85 40 d6 ff ff    	mov    -0x29c0(%rbp),%eax
    bd11:	c1 e8 1f             	shr    $0x1f,%eax
    bd14:	89 c2                	mov    %eax,%edx
    bd16:	48 8b 05 a3 f3 00 00 	mov    0xf3a3(%rip),%rax        # 1b0c0 <g_168>
    bd1d:	0f b6 d2             	movzbl %dl,%edx
    bd20:	66 89 10             	mov    %dx,(%rax)
    bd23:	0f b7 00             	movzwl (%rax),%eax
    bd26:	83 c8 05             	or     $0x5,%eax
    bd29:	98                   	cwtl   
    bd2a:	89 de                	mov    %ebx,%esi
    bd2c:	89 c7                	mov    %eax,%edi
    bd2e:	e8 ae a7 ff ff       	callq  64e1 <safe_lshift_func_int16_t_s_u>
    bd33:	89 c2                	mov    %eax,%edx
    bd35:	48 8b 85 28 d7 ff ff 	mov    -0x28d8(%rbp),%rax
    bd3c:	66 89 10             	mov    %dx,(%rax)
    bd3f:	0f b7 00             	movzwl (%rax),%eax
    bd42:	0f bf d8             	movswl %ax,%ebx
    bd45:	be 0e 00 00 00       	mov    $0xe,%esi
    bd4a:	bf 0f ef 00 00       	mov    $0xef0f,%edi
    bd4f:	e8 26 b1 ff ff       	callq  6e7a <safe_rshift_func_uint16_t_u_u>
    bd54:	98                   	cwtl   
    bd55:	89 de                	mov    %ebx,%esi
    bd57:	89 c7                	mov    %eax,%edi
    bd59:	e8 b8 a6 ff ff       	callq  6416 <safe_mod_func_int16_t_s_s>
    bd5e:	be ff 00 00 00       	mov    $0xff,%esi
    bd63:	bf 00 00 00 00       	mov    $0x0,%edi
    bd68:	e8 6e ae ff ff       	callq  6bdb <safe_div_func_uint8_t_u_u>
    bd6d:	0f b6 15 e4 c5 00 00 	movzbl 0xc5e4(%rip),%edx        # 18358 <g_690>
    bd74:	38 d0                	cmp    %dl,%al
    bd76:	0f 92 c0             	setb   %al
    bd79:	0f b6 d0             	movzbl %al,%edx
    bd7c:	8b 85 38 dc ff ff    	mov    -0x23c8(%rbp),%eax
    bd82:	09 d0                	or     %edx,%eax
    bd84:	89 85 38 dc ff ff    	mov    %eax,-0x23c8(%rbp)
    bd8a:	8b 85 38 dc ff ff    	mov    -0x23c8(%rbp),%eax
    bd90:	89 85 e0 d5 ff ff    	mov    %eax,-0x2a20(%rbp)
    bd96:	48 8b 05 33 f3 00 00 	mov    0xf333(%rip),%rax        # 1b0d0 <g_212>
    bd9d:	48 8b 00             	mov    (%rax),%rax
    bda0:	48 8d 95 d0 d9 ff ff 	lea    -0x2630(%rbp),%rdx
    bda7:	48 83 c2 08          	add    $0x8,%rdx
    bdab:	48 89 10             	mov    %rdx,(%rax)
    bdae:	0f b6 05 1d c4 00 00 	movzbl 0xc41d(%rip),%eax        # 181d2 <g_141>
    bdb5:	84 c0                	test   %al,%al
    bdb7:	0f 85 df 01 00 00    	jne    bf9c <func_1+0x47e7>
    bdbd:	48 8b 05 2c f5 00 00 	mov    0xf52c(%rip),%rax        # 1b2f0 <g_800>
    bdc4:	48 8b 00             	mov    (%rax),%rax
    bdc7:	48 8b 10             	mov    (%rax),%rdx
    bdca:	48 8b 05 0f f5 00 00 	mov    0xf50f(%rip),%rax        # 1b2e0 <g_798>
    bdd1:	48 8b 12             	mov    (%rdx),%rdx
    bdd4:	48 89 10             	mov    %rdx,(%rax)
    bdd7:	48 8b 05 fa c5 00 00 	mov    0xc5fa(%rip),%rax        # 183d8 <g_730+0x8>
    bdde:	0f b6 c0             	movzbl %al,%eax
    bde1:	be 03 00 00 00       	mov    $0x3,%esi
    bde6:	89 c7                	mov    %eax,%edi
    bde8:	e8 6d ad ff ff       	callq  6b5a <safe_add_func_uint8_t_u_u>
    bded:	0f b6 c0             	movzbl %al,%eax
    bdf0:	48 89 05 e1 c5 00 00 	mov    %rax,0xc5e1(%rip)        # 183d8 <g_730+0x8>
    bdf7:	48 8b 05 da c5 00 00 	mov    0xc5da(%rip),%rax        # 183d8 <g_730+0x8>
    bdfe:	48 83 f8 16          	cmp    $0x16,%rax
    be02:	0f 87 6c fe ff ff    	ja     bc74 <func_1+0x44bf>
    be08:	48 8b 85 30 d8 ff ff 	mov    -0x27d0(%rbp),%rax
    be0f:	48 8b 95 28 d8 ff ff 	mov    -0x27d8(%rbp),%rdx
    be16:	48 89 10             	mov    %rdx,(%rax)
    be19:	48 8b 85 30 d8 ff ff 	mov    -0x27d0(%rbp),%rax
    be20:	48 8b 10             	mov    (%rax),%rdx
    be23:	48 8b 85 30 d8 ff ff 	mov    -0x27d0(%rbp),%rax
    be2a:	48 89 10             	mov    %rdx,(%rax)
    be2d:	0f b7 85 88 d5 ff ff 	movzwl -0x2a78(%rbp),%eax
    be34:	0f b7 d8             	movzwl %ax,%ebx
    be37:	44 0f b6 a5 82 d5 ff 	movzbl -0x2a7e(%rbp),%r12d
    be3e:	ff 
    be3f:	48 8b 05 a2 f4 00 00 	mov    0xf4a2(%rip),%rax        # 1b2e8 <g_797>
    be46:	48 8b 00             	mov    (%rax),%rax
    be49:	48 8b 00             	mov    (%rax),%rax
    be4c:	48 8b 00             	mov    (%rax),%rax
    be4f:	8b 95 e0 d5 ff ff    	mov    -0x2a20(%rbp),%edx
    be55:	66 89 10             	mov    %dx,(%rax)
    be58:	0f b7 00             	movzwl (%rax),%eax
    be5b:	41 89 c7             	mov    %eax,%r15d
    be5e:	48 8b 85 c8 d7 ff ff 	mov    -0x2838(%rbp),%rax
    be65:	44 8b 28             	mov    (%rax),%r13d
    be68:	44 0f b7 35 f0 c9 00 	movzwl 0xc9f0(%rip),%r14d        # 18860 <g_1018+0x400>
    be6f:	00 
    be70:	80 bd 82 d5 ff ff 00 	cmpb   $0x0,-0x2a7e(%rbp)
    be77:	75 19                	jne    be92 <func_1+0x46dd>
    be79:	48 8b 85 10 d7 ff ff 	mov    -0x28f0(%rbp),%rax
    be80:	8b 00                	mov    (%rax),%eax
    be82:	85 c0                	test   %eax,%eax
    be84:	75 0c                	jne    be92 <func_1+0x46dd>
    be86:	0f b7 05 69 c4 00 00 	movzwl 0xc469(%rip),%eax        # 182f6 <g_502+0x6>
    be8d:	66 85 c0             	test   %ax,%ax
    be90:	74 11                	je     bea3 <func_1+0x46ee>
    be92:	8b 05 94 c1 00 00    	mov    0xc194(%rip),%eax        # 1802c <g_56>
    be98:	85 c0                	test   %eax,%eax
    be9a:	74 07                	je     bea3 <func_1+0x46ee>
    be9c:	b8 01 00 00 00       	mov    $0x1,%eax
    bea1:	eb 05                	jmp    bea8 <func_1+0x46f3>
    bea3:	b8 00 00 00 00       	mov    $0x0,%eax
    bea8:	0f be c0             	movsbl %al,%eax
    beab:	be d0 ff ff ff       	mov    $0xffffffd0,%esi
    beb0:	89 c7                	mov    %eax,%edi
    beb2:	e8 5b a3 ff ff       	callq  6212 <safe_mul_func_int8_t_s_s>
    beb7:	48 8b 85 c8 d7 ff ff 	mov    -0x2838(%rbp),%rax
    bebe:	8b 10                	mov    (%rax),%edx
    bec0:	0f b6 85 57 d9 ff ff 	movzbl -0x26a9(%rbp),%eax
    bec7:	0f b6 c0             	movzbl %al,%eax
    beca:	39 c2                	cmp    %eax,%edx
    becc:	0f 94 c0             	sete   %al
    becf:	0f b6 d0             	movzbl %al,%edx
    bed2:	80 bd 80 d5 ff ff 00 	cmpb   $0x0,-0x2a80(%rbp)
    bed9:	0f 94 c0             	sete   %al
    bedc:	0f b6 c0             	movzbl %al,%eax
    bedf:	89 d6                	mov    %edx,%esi
    bee1:	89 c7                	mov    %eax,%edi
    bee3:	e8 ec a2 ff ff       	callq  61d4 <safe_add_func_int8_t_s_s>
    bee8:	be 0f 00 00 00       	mov    $0xf,%esi
    beed:	bf 01 00 00 00       	mov    $0x1,%edi
    bef2:	e8 51 af ff ff       	callq  6e48 <safe_rshift_func_uint16_t_u_s>
    bef7:	44 09 f0             	or     %r14d,%eax
    befa:	66 85 c0             	test   %ax,%ax
    befd:	74 10                	je     bf0f <func_1+0x475a>
    beff:	80 bd 82 d5 ff ff 00 	cmpb   $0x0,-0x2a7e(%rbp)
    bf06:	74 07                	je     bf0f <func_1+0x475a>
    bf08:	b8 01 00 00 00       	mov    $0x1,%eax
    bf0d:	eb 05                	jmp    bf14 <func_1+0x475f>
    bf0f:	b8 00 00 00 00       	mov    $0x0,%eax
    bf14:	0f b6 c0             	movzbl %al,%eax
    bf17:	44 89 ee             	mov    %r13d,%esi
    bf1a:	89 c7                	mov    %eax,%edi
    bf1c:	e8 6c ad ff ff       	callq  6c8d <safe_rshift_func_uint8_t_u_s>
    bf21:	0f b6 95 54 d9 ff ff 	movzbl -0x26ac(%rbp),%edx
    bf28:	38 d0                	cmp    %dl,%al
    bf2a:	0f 97 c0             	seta   %al
    bf2d:	0f b6 d0             	movzbl %al,%edx
    bf30:	0f b6 05 62 d2 00 00 	movzbl 0xd262(%rip),%eax        # 19199 <g_1104+0x1>
    bf37:	0f be c0             	movsbl %al,%eax
    bf3a:	39 c2                	cmp    %eax,%edx
    bf3c:	0f 95 c0             	setne  %al
    bf3f:	44 31 f8             	xor    %r15d,%eax
    bf42:	0f be c0             	movsbl %al,%eax
    bf45:	44 89 e6             	mov    %r12d,%esi
    bf48:	89 c7                	mov    %eax,%edi
    bf4a:	e8 52 a3 ff ff       	callq  62a1 <safe_lshift_func_int8_t_s_s>
    bf4f:	0f be d0             	movsbl %al,%edx
    bf52:	48 8b 85 d0 d7 ff ff 	mov    -0x2830(%rbp),%rax
    bf59:	8b 00                	mov    (%rax),%eax
    bf5b:	8d 48 01             	lea    0x1(%rax),%ecx
    bf5e:	48 8b 85 d0 d7 ff ff 	mov    -0x2830(%rbp),%rax
    bf65:	89 08                	mov    %ecx,(%rax)
    bf67:	48 8b 85 d0 d7 ff ff 	mov    -0x2830(%rbp),%rax
    bf6e:	8b 00                	mov    (%rax),%eax
    bf70:	89 d6                	mov    %edx,%esi
    bf72:	89 c7                	mov    %eax,%edi
    bf74:	e8 84 af ff ff       	callq  6efd <safe_mod_func_uint32_t_u_u>
    bf79:	4c 8b a5 10 d7 ff ff 	mov    -0x28f0(%rbp),%r12
    bf80:	89 de                	mov    %ebx,%esi
    bf82:	89 c7                	mov    %eax,%edi
    bf84:	e8 43 a7 ff ff       	callq  66cc <safe_mod_func_int32_t_s_s>
    bf89:	41 89 04 24          	mov    %eax,(%r12)
    bf8d:	c6 05 3e c2 00 00 05 	movb   $0x5,0xc23e(%rip)        # 181d2 <g_141>
    bf94:	e9 58 13 00 00       	jmpq   d2f1 <func_1+0x5b3c>
    bf99:	90                   	nop
    bf9a:	eb 01                	jmp    bf9d <func_1+0x47e8>
    bf9c:	90                   	nop
    bf9d:	48 8b 05 2c f1 00 00 	mov    0xf12c(%rip),%rax        # 1b0d0 <g_212>
    bfa4:	48 8b 00             	mov    (%rax),%rax
    bfa7:	48 8d 95 d0 d9 ff ff 	lea    -0x2630(%rbp),%rdx
    bfae:	48 89 10             	mov    %rdx,(%rax)
    bfb1:	c7 05 b5 c2 00 00 00 	movl   $0x0,0xc2b5(%rip)        # 18270 <g_342>
    bfb8:	00 00 00 
    bfbb:	e9 8e 01 00 00       	jmpq   c14e <func_1+0x4999>
    bfc0:	48 b8 8f a6 0c b4 d1 	movabs $0x92eaddd1b40ca68f,%rax
    bfc7:	dd ea 92 
    bfca:	48 89 85 50 f0 ff ff 	mov    %rax,-0xfb0(%rbp)
    bfd1:	48 89 85 58 f0 ff ff 	mov    %rax,-0xfa8(%rbp)
    bfd8:	48 89 85 60 f0 ff ff 	mov    %rax,-0xfa0(%rbp)
    bfdf:	48 89 85 68 f0 ff ff 	mov    %rax,-0xf98(%rbp)
    bfe6:	48 89 85 70 f0 ff ff 	mov    %rax,-0xf90(%rbp)
    bfed:	48 89 85 78 f0 ff ff 	mov    %rax,-0xf88(%rbp)
    bff4:	48 89 85 80 f0 ff ff 	mov    %rax,-0xf80(%rbp)
    bffb:	48 89 85 88 f0 ff ff 	mov    %rax,-0xf78(%rbp)
    c002:	48 83 85 60 d7 ff ff 	addq   $0x1,-0x28a0(%rbp)
    c009:	01 
    c00a:	48 8b 05 7f f3 00 00 	mov    0xf37f(%rip),%rax        # 1b390 <g_938>
    c011:	48 85 c0             	test   %rax,%rax
    c014:	48 8b 05 c5 f2 00 00 	mov    0xf2c5(%rip),%rax        # 1b2e0 <g_798>
    c01b:	48 8b 00             	mov    (%rax),%rax
    c01e:	48 8b 00             	mov    (%rax),%rax
    c021:	0f b7 00             	movzwl (%rax),%eax
    c024:	0f bf d0             	movswl %ax,%edx
    c027:	48 8b 05 92 f0 00 00 	mov    0xf092(%rip),%rax        # 1b0c0 <g_168>
    c02e:	0f b7 00             	movzwl (%rax),%eax
    c031:	98                   	cwtl   
    c032:	89 d6                	mov    %edx,%esi
    c034:	89 c7                	mov    %eax,%edi
    c036:	e8 1a a4 ff ff       	callq  6455 <safe_div_func_int16_t_s_s>
    c03b:	66 85 c0             	test   %ax,%ax
    c03e:	74 0b                	je     c04b <func_1+0x4896>
    c040:	48 8b 85 18 d7 ff ff 	mov    -0x28e8(%rbp),%rax
    c047:	8b 00                	mov    (%rax),%eax
    c049:	85 c0                	test   %eax,%eax
    c04b:	48 8b 05 46 c2 00 00 	mov    0xc246(%rip),%rax        # 18298 <g_371+0x8>
    c052:	89 c2                	mov    %eax,%edx
    c054:	0f b7 05 9b c2 00 00 	movzwl 0xc29b(%rip),%eax        # 182f6 <g_502+0x6>
    c05b:	0f be c0             	movsbl %al,%eax
    c05e:	89 d6                	mov    %edx,%esi
    c060:	89 c7                	mov    %eax,%edi
    c062:	e8 ce a2 ff ff       	callq  6335 <safe_rshift_func_int8_t_s_s>
    c067:	0f be c0             	movsbl %al,%eax
    c06a:	39 85 64 d6 ff ff    	cmp    %eax,-0x299c(%rbp)
    c070:	0f 9e c0             	setle  %al
    c073:	0f b6 d0             	movzbl %al,%edx
    c076:	48 8b 85 c8 d7 ff ff 	mov    -0x2838(%rbp),%rax
    c07d:	89 10                	mov    %edx,(%rax)
    c07f:	48 8b 85 50 d7 ff ff 	mov    -0x28b0(%rbp),%rax
    c086:	8b 00                	mov    (%rax),%eax
    c088:	48 98                	cltq   
    c08a:	48 be ef ba 66 a9 96 	movabs $0xfaaf3e96a966baef,%rsi
    c091:	3e af fa 
    c094:	48 89 c7             	mov    %rax,%rdi
    c097:	e8 18 a9 ff ff       	callq  69b4 <safe_mod_func_int64_t_s_s>
    c09c:	83 bd 4c d6 ff ff 00 	cmpl   $0x0,-0x29b4(%rbp)
    c0a3:	74 07                	je     c0ac <func_1+0x48f7>
    c0a5:	b8 01 00 00 00       	mov    $0x1,%eax
    c0aa:	eb 05                	jmp    c0b1 <func_1+0x48fc>
    c0ac:	b8 00 00 00 00       	mov    $0x0,%eax
    c0b1:	98                   	cwtl   
    c0b2:	be 0b 00 00 00       	mov    $0xb,%esi
    c0b7:	89 c7                	mov    %eax,%edi
    c0b9:	e8 d4 a3 ff ff       	callq  6492 <safe_lshift_func_int16_t_s_s>
    c0be:	48 8b 15 fb ef 00 00 	mov    0xeffb(%rip),%rdx        # 1b0c0 <g_168>
    c0c5:	0f b7 12             	movzwl (%rdx),%edx
    c0c8:	66 39 d0             	cmp    %dx,%ax
    c0cb:	48 ba 23 94 c3 52 f4 	movabs $0xa12e12f452c39423,%rdx
    c0d2:	12 2e a1 
    c0d5:	48 0f bf 85 92 d5 ff 	movswq -0x2a6e(%rbp),%rax
    c0dc:	ff 
    c0dd:	48 39 c2             	cmp    %rax,%rdx
    c0e0:	48 8b 85 c8 d7 ff ff 	mov    -0x2838(%rbp),%rax
    c0e7:	8b 00                	mov    (%rax),%eax
    c0e9:	48 63 f0             	movslq %eax,%rsi
    c0ec:	0f b7 05 35 c3 00 00 	movzwl 0xc335(%rip),%eax        # 18428 <g_941>
    c0f3:	0f b7 c8             	movzwl %ax,%ecx
    c0f6:	48 8b 05 e3 f1 00 00 	mov    0xf1e3(%rip),%rax        # 1b2e0 <g_798>
    c0fd:	48 8b 00             	mov    (%rax),%rax
    c100:	48 8b 00             	mov    (%rax),%rax
    c103:	0f b7 85 52 d9 ff ff 	movzwl -0x26ae(%rbp),%eax
    c10a:	0f b6 c0             	movzbl %al,%eax
    c10d:	48 8b 95 d8 d7 ff ff 	mov    -0x2828(%rbp),%rdx
    c114:	48 8b 1a             	mov    (%rdx),%rbx
    c117:	48 8b 95 50 d7 ff ff 	mov    -0x28b0(%rbp),%rdx
    c11e:	49 89 f0             	mov    %rsi,%r8
    c121:	48 8d 35 c6 f6 00 00 	lea    0xf6c6(%rip),%rsi        # 1b7ee <g_75+0x6>
    c128:	89 c7                	mov    %eax,%edi
    c12a:	e8 ee 5c 00 00       	callq  11e1d <func_80>
    c12f:	48 89 03             	mov    %rax,(%rbx)
    c132:	48 8b 85 10 d7 ff ff 	mov    -0x28f0(%rbp),%rax
    c139:	c7 00 00 00 00 00    	movl   $0x0,(%rax)
    c13f:	8b 05 2b c1 00 00    	mov    0xc12b(%rip),%eax        # 18270 <g_342>
    c145:	83 c0 01             	add    $0x1,%eax
    c148:	89 05 22 c1 00 00    	mov    %eax,0xc122(%rip)        # 18270 <g_342>
    c14e:	8b 05 1c c1 00 00    	mov    0xc11c(%rip),%eax        # 18270 <g_342>
    c154:	83 f8 05             	cmp    $0x5,%eax
    c157:	0f 86 63 fe ff ff    	jbe    bfc0 <func_1+0x480b>
    c15d:	48 8b 05 44 ef 00 00 	mov    0xef44(%rip),%rax        # 1b0a8 <g_78>
    c164:	0f b7 00             	movzwl (%rax),%eax
    c167:	e9 4b 29 00 00       	jmpq   eab7 <func_1+0x7302>
    c16c:	48 8d 05 fd c0 00 00 	lea    0xc0fd(%rip),%rax        # 18270 <g_342>
    c173:	48 89 85 00 db ff ff 	mov    %rax,-0x2500(%rbp)
    c17a:	48 8d 05 ef c0 00 00 	lea    0xc0ef(%rip),%rax        # 18270 <g_342>
    c181:	48 89 85 08 db ff ff 	mov    %rax,-0x24f8(%rbp)
    c188:	48 c7 85 10 db ff ff 	movq   $0x0,-0x24f0(%rbp)
    c18f:	00 00 00 00 
    c193:	48 8d 05 d6 c0 00 00 	lea    0xc0d6(%rip),%rax        # 18270 <g_342>
    c19a:	48 89 85 18 db ff ff 	mov    %rax,-0x24e8(%rbp)
    c1a1:	48 8d 05 c8 c0 00 00 	lea    0xc0c8(%rip),%rax        # 18270 <g_342>
    c1a8:	48 89 85 20 db ff ff 	mov    %rax,-0x24e0(%rbp)
    c1af:	48 c7 85 28 db ff ff 	movq   $0x0,-0x24d8(%rbp)
    c1b6:	00 00 00 00 
    c1ba:	48 8d 05 af c0 00 00 	lea    0xc0af(%rip),%rax        # 18270 <g_342>
    c1c1:	48 89 85 30 db ff ff 	mov    %rax,-0x24d0(%rbp)
    c1c8:	48 8d 05 81 c6 00 00 	lea    0xc681(%rip),%rax        # 18850 <g_1018+0x3f0>
    c1cf:	48 89 85 38 db ff ff 	mov    %rax,-0x24c8(%rbp)
    c1d6:	48 8d 05 73 c6 00 00 	lea    0xc673(%rip),%rax        # 18850 <g_1018+0x3f0>
    c1dd:	48 89 85 40 db ff ff 	mov    %rax,-0x24c0(%rbp)
    c1e4:	48 8d 05 65 c6 00 00 	lea    0xc665(%rip),%rax        # 18850 <g_1018+0x3f0>
    c1eb:	48 89 85 48 db ff ff 	mov    %rax,-0x24b8(%rbp)
    c1f2:	48 8d 05 57 c6 00 00 	lea    0xc657(%rip),%rax        # 18850 <g_1018+0x3f0>
    c1f9:	48 89 85 50 db ff ff 	mov    %rax,-0x24b0(%rbp)
    c200:	48 8d 05 49 c6 00 00 	lea    0xc649(%rip),%rax        # 18850 <g_1018+0x3f0>
    c207:	48 89 85 58 db ff ff 	mov    %rax,-0x24a8(%rbp)
    c20e:	48 8d 05 3b c6 00 00 	lea    0xc63b(%rip),%rax        # 18850 <g_1018+0x3f0>
    c215:	48 89 85 60 db ff ff 	mov    %rax,-0x24a0(%rbp)
    c21c:	48 8d 05 2d c6 00 00 	lea    0xc62d(%rip),%rax        # 18850 <g_1018+0x3f0>
    c223:	48 89 85 68 db ff ff 	mov    %rax,-0x2498(%rbp)
    c22a:	48 c7 85 70 db ff ff 	movq   $0x0,-0x2490(%rbp)
    c231:	00 00 00 00 
    c235:	48 8d 05 34 c0 00 00 	lea    0xc034(%rip),%rax        # 18270 <g_342>
    c23c:	48 89 85 78 db ff ff 	mov    %rax,-0x2488(%rbp)
    c243:	48 c7 85 80 db ff ff 	movq   $0x0,-0x2480(%rbp)
    c24a:	00 00 00 00 
    c24e:	48 c7 85 88 db ff ff 	movq   $0x0,-0x2478(%rbp)
    c255:	00 00 00 00 
    c259:	48 8d 05 10 c0 00 00 	lea    0xc010(%rip),%rax        # 18270 <g_342>
    c260:	48 89 85 90 db ff ff 	mov    %rax,-0x2470(%rbp)
    c267:	48 c7 85 98 db ff ff 	movq   $0x0,-0x2468(%rbp)
    c26e:	00 00 00 00 
    c272:	48 c7 85 a0 db ff ff 	movq   $0x0,-0x2460(%rbp)
    c279:	00 00 00 00 
    c27d:	c7 85 68 d6 ff ff ff 	movl   $0xffffffff,-0x2998(%rbp)
    c284:	ff ff ff 
    c287:	48 8d 05 3a c0 00 00 	lea    0xc03a(%rip),%rax        # 182c8 <g_496>
    c28e:	48 89 85 30 d7 ff ff 	mov    %rax,-0x28d0(%rbp)
    c295:	48 8d 85 30 d7 ff ff 	lea    -0x28d0(%rbp),%rax
    c29c:	48 89 85 38 d7 ff ff 	mov    %rax,-0x28c8(%rbp)
    c2a3:	48 8d 85 38 d7 ff ff 	lea    -0x28c8(%rbp),%rax
    c2aa:	48 89 85 40 d7 ff ff 	mov    %rax,-0x28c0(%rbp)
    c2b1:	48 8d 85 40 d7 ff ff 	lea    -0x28c0(%rbp),%rax
    c2b8:	48 89 85 48 d7 ff ff 	mov    %rax,-0x28b8(%rbp)
    c2bf:	48 8d 85 48 d7 ff ff 	lea    -0x28b8(%rbp),%rax
    c2c6:	48 89 85 50 f0 ff ff 	mov    %rax,-0xfb0(%rbp)
    c2cd:	48 8d 85 48 d7 ff ff 	lea    -0x28b8(%rbp),%rax
    c2d4:	48 89 85 58 f0 ff ff 	mov    %rax,-0xfa8(%rbp)
    c2db:	48 8d 85 48 d7 ff ff 	lea    -0x28b8(%rbp),%rax
    c2e2:	48 89 85 60 f0 ff ff 	mov    %rax,-0xfa0(%rbp)
    c2e9:	48 c7 85 68 f0 ff ff 	movq   $0x0,-0xf98(%rbp)
    c2f0:	00 00 00 00 
    c2f4:	48 8d 85 48 d7 ff ff 	lea    -0x28b8(%rbp),%rax
    c2fb:	48 89 85 70 f0 ff ff 	mov    %rax,-0xf90(%rbp)
    c302:	48 8d 85 48 d7 ff ff 	lea    -0x28b8(%rbp),%rax
    c309:	48 89 85 78 f0 ff ff 	mov    %rax,-0xf88(%rbp)
    c310:	48 8d 85 48 d7 ff ff 	lea    -0x28b8(%rbp),%rax
    c317:	48 89 85 80 f0 ff ff 	mov    %rax,-0xf80(%rbp)
    c31e:	48 8d 85 48 d7 ff ff 	lea    -0x28b8(%rbp),%rax
    c325:	48 89 85 88 f0 ff ff 	mov    %rax,-0xf78(%rbp)
    c32c:	48 8d 85 48 d7 ff ff 	lea    -0x28b8(%rbp),%rax
    c333:	48 89 85 90 f0 ff ff 	mov    %rax,-0xf70(%rbp)
    c33a:	48 8d 85 48 d7 ff ff 	lea    -0x28b8(%rbp),%rax
    c341:	48 89 85 98 f0 ff ff 	mov    %rax,-0xf68(%rbp)
    c348:	48 8d 85 48 d7 ff ff 	lea    -0x28b8(%rbp),%rax
    c34f:	48 89 85 a0 f0 ff ff 	mov    %rax,-0xf60(%rbp)
    c356:	48 8d 85 48 d7 ff ff 	lea    -0x28b8(%rbp),%rax
    c35d:	48 89 85 a8 f0 ff ff 	mov    %rax,-0xf58(%rbp)
    c364:	48 8d 85 48 d7 ff ff 	lea    -0x28b8(%rbp),%rax
    c36b:	48 89 85 b0 f0 ff ff 	mov    %rax,-0xf50(%rbp)
    c372:	48 8d 85 48 d7 ff ff 	lea    -0x28b8(%rbp),%rax
    c379:	48 89 85 b8 f0 ff ff 	mov    %rax,-0xf48(%rbp)
    c380:	48 8d 85 48 d7 ff ff 	lea    -0x28b8(%rbp),%rax
    c387:	48 89 85 c0 f0 ff ff 	mov    %rax,-0xf40(%rbp)
    c38e:	48 8d 85 48 d7 ff ff 	lea    -0x28b8(%rbp),%rax
    c395:	48 89 85 c8 f0 ff ff 	mov    %rax,-0xf38(%rbp)
    c39c:	48 8d 85 48 d7 ff ff 	lea    -0x28b8(%rbp),%rax
    c3a3:	48 89 85 d0 f0 ff ff 	mov    %rax,-0xf30(%rbp)
    c3aa:	48 8d 85 48 d7 ff ff 	lea    -0x28b8(%rbp),%rax
    c3b1:	48 89 85 d8 f0 ff ff 	mov    %rax,-0xf28(%rbp)
    c3b8:	48 c7 85 e0 f0 ff ff 	movq   $0x0,-0xf20(%rbp)
    c3bf:	00 00 00 00 
    c3c3:	48 8d 85 48 d7 ff ff 	lea    -0x28b8(%rbp),%rax
    c3ca:	48 89 85 e8 f0 ff ff 	mov    %rax,-0xf18(%rbp)
    c3d1:	48 8d 85 48 d7 ff ff 	lea    -0x28b8(%rbp),%rax
    c3d8:	48 89 85 f0 f0 ff ff 	mov    %rax,-0xf10(%rbp)
    c3df:	48 8d 85 48 d7 ff ff 	lea    -0x28b8(%rbp),%rax
    c3e6:	48 89 85 f8 f0 ff ff 	mov    %rax,-0xf08(%rbp)
    c3ed:	48 8d 85 48 d7 ff ff 	lea    -0x28b8(%rbp),%rax
    c3f4:	48 89 85 00 f1 ff ff 	mov    %rax,-0xf00(%rbp)
    c3fb:	48 c7 85 08 f1 ff ff 	movq   $0x0,-0xef8(%rbp)
    c402:	00 00 00 00 
    c406:	48 8d 85 48 d7 ff ff 	lea    -0x28b8(%rbp),%rax
    c40d:	48 89 85 10 f1 ff ff 	mov    %rax,-0xef0(%rbp)
    c414:	48 c7 85 18 f1 ff ff 	movq   $0x0,-0xee8(%rbp)
    c41b:	00 00 00 00 
    c41f:	48 8d 85 48 d7 ff ff 	lea    -0x28b8(%rbp),%rax
    c426:	48 89 85 20 f1 ff ff 	mov    %rax,-0xee0(%rbp)
    c42d:	48 c7 85 28 f1 ff ff 	movq   $0x0,-0xed8(%rbp)
    c434:	00 00 00 00 
    c438:	48 8d 85 48 d7 ff ff 	lea    -0x28b8(%rbp),%rax
    c43f:	48 89 85 30 f1 ff ff 	mov    %rax,-0xed0(%rbp)
    c446:	48 8d 85 48 d7 ff ff 	lea    -0x28b8(%rbp),%rax
    c44d:	48 89 85 38 f1 ff ff 	mov    %rax,-0xec8(%rbp)
    c454:	48 c7 85 40 f1 ff ff 	movq   $0x0,-0xec0(%rbp)
    c45b:	00 00 00 00 
    c45f:	48 8d 85 48 d7 ff ff 	lea    -0x28b8(%rbp),%rax
    c466:	48 89 85 48 f1 ff ff 	mov    %rax,-0xeb8(%rbp)
    c46d:	48 c7 85 50 f1 ff ff 	movq   $0x0,-0xeb0(%rbp)
    c474:	00 00 00 00 
    c478:	48 8d 85 48 d7 ff ff 	lea    -0x28b8(%rbp),%rax
    c47f:	48 89 85 58 f1 ff ff 	mov    %rax,-0xea8(%rbp)
    c486:	48 8d 85 48 d7 ff ff 	lea    -0x28b8(%rbp),%rax
    c48d:	48 89 85 60 f1 ff ff 	mov    %rax,-0xea0(%rbp)
    c494:	48 c7 85 68 f1 ff ff 	movq   $0x0,-0xe98(%rbp)
    c49b:	00 00 00 00 
    c49f:	48 8d 85 48 d7 ff ff 	lea    -0x28b8(%rbp),%rax
    c4a6:	48 89 85 70 f1 ff ff 	mov    %rax,-0xe90(%rbp)
    c4ad:	48 8d 85 48 d7 ff ff 	lea    -0x28b8(%rbp),%rax
    c4b4:	48 89 85 78 f1 ff ff 	mov    %rax,-0xe88(%rbp)
    c4bb:	48 8d 85 48 d7 ff ff 	lea    -0x28b8(%rbp),%rax
    c4c2:	48 89 85 80 f1 ff ff 	mov    %rax,-0xe80(%rbp)
    c4c9:	48 8d 85 48 d7 ff ff 	lea    -0x28b8(%rbp),%rax
    c4d0:	48 89 85 88 f1 ff ff 	mov    %rax,-0xe78(%rbp)
    c4d7:	48 c7 85 90 f1 ff ff 	movq   $0x0,-0xe70(%rbp)
    c4de:	00 00 00 00 
    c4e2:	48 8d 85 48 d7 ff ff 	lea    -0x28b8(%rbp),%rax
    c4e9:	48 89 85 98 f1 ff ff 	mov    %rax,-0xe68(%rbp)
    c4f0:	48 8d 85 48 d7 ff ff 	lea    -0x28b8(%rbp),%rax
    c4f7:	48 89 85 a0 f1 ff ff 	mov    %rax,-0xe60(%rbp)
    c4fe:	48 c7 85 a8 f1 ff ff 	movq   $0x0,-0xe58(%rbp)
    c505:	00 00 00 00 
    c509:	48 8d 85 48 d7 ff ff 	lea    -0x28b8(%rbp),%rax
    c510:	48 89 85 b0 f1 ff ff 	mov    %rax,-0xe50(%rbp)
    c517:	48 c7 85 b8 f1 ff ff 	movq   $0x0,-0xe48(%rbp)
    c51e:	00 00 00 00 
    c522:	48 8d 85 48 d7 ff ff 	lea    -0x28b8(%rbp),%rax
    c529:	48 89 85 c0 f1 ff ff 	mov    %rax,-0xe40(%rbp)
    c530:	48 8d 85 48 d7 ff ff 	lea    -0x28b8(%rbp),%rax
    c537:	48 89 85 c8 f1 ff ff 	mov    %rax,-0xe38(%rbp)
    c53e:	48 c7 85 d0 f1 ff ff 	movq   $0x0,-0xe30(%rbp)
    c545:	00 00 00 00 
    c549:	48 8d 85 48 d7 ff ff 	lea    -0x28b8(%rbp),%rax
    c550:	48 89 85 d8 f1 ff ff 	mov    %rax,-0xe28(%rbp)
    c557:	48 c7 85 e0 f1 ff ff 	movq   $0x0,-0xe20(%rbp)
    c55e:	00 00 00 00 
    c562:	48 8d 85 48 d7 ff ff 	lea    -0x28b8(%rbp),%rax
    c569:	48 89 85 e8 f1 ff ff 	mov    %rax,-0xe18(%rbp)
    c570:	48 8d 85 48 d7 ff ff 	lea    -0x28b8(%rbp),%rax
    c577:	48 89 85 f0 f1 ff ff 	mov    %rax,-0xe10(%rbp)
    c57e:	48 8d 85 48 d7 ff ff 	lea    -0x28b8(%rbp),%rax
    c585:	48 89 85 f8 f1 ff ff 	mov    %rax,-0xe08(%rbp)
    c58c:	48 c7 85 00 f2 ff ff 	movq   $0x0,-0xe00(%rbp)
    c593:	00 00 00 00 
    c597:	48 c7 85 08 f2 ff ff 	movq   $0x0,-0xdf8(%rbp)
    c59e:	00 00 00 00 
    c5a2:	48 8d 85 48 d7 ff ff 	lea    -0x28b8(%rbp),%rax
    c5a9:	48 89 85 10 f2 ff ff 	mov    %rax,-0xdf0(%rbp)
    c5b0:	48 8d 85 48 d7 ff ff 	lea    -0x28b8(%rbp),%rax
    c5b7:	48 89 85 18 f2 ff ff 	mov    %rax,-0xde8(%rbp)
    c5be:	48 8d 85 48 d7 ff ff 	lea    -0x28b8(%rbp),%rax
    c5c5:	48 89 85 20 f2 ff ff 	mov    %rax,-0xde0(%rbp)
    c5cc:	48 8d 85 48 d7 ff ff 	lea    -0x28b8(%rbp),%rax
    c5d3:	48 89 85 28 f2 ff ff 	mov    %rax,-0xdd8(%rbp)
    c5da:	48 8d 85 48 d7 ff ff 	lea    -0x28b8(%rbp),%rax
    c5e1:	48 89 85 30 f2 ff ff 	mov    %rax,-0xdd0(%rbp)
    c5e8:	48 8d 85 48 d7 ff ff 	lea    -0x28b8(%rbp),%rax
    c5ef:	48 89 85 38 f2 ff ff 	mov    %rax,-0xdc8(%rbp)
    c5f6:	48 c7 85 40 f2 ff ff 	movq   $0x0,-0xdc0(%rbp)
    c5fd:	00 00 00 00 
    c601:	48 c7 85 48 f2 ff ff 	movq   $0x0,-0xdb8(%rbp)
    c608:	00 00 00 00 
    c60c:	48 8d 85 48 d7 ff ff 	lea    -0x28b8(%rbp),%rax
    c613:	48 89 85 50 f2 ff ff 	mov    %rax,-0xdb0(%rbp)
    c61a:	48 8d 85 48 d7 ff ff 	lea    -0x28b8(%rbp),%rax
    c621:	48 89 85 58 f2 ff ff 	mov    %rax,-0xda8(%rbp)
    c628:	48 8d 85 48 d7 ff ff 	lea    -0x28b8(%rbp),%rax
    c62f:	48 89 85 60 f2 ff ff 	mov    %rax,-0xda0(%rbp)
    c636:	48 c7 85 68 f2 ff ff 	movq   $0x0,-0xd98(%rbp)
    c63d:	00 00 00 00 
    c641:	48 8d 85 48 d7 ff ff 	lea    -0x28b8(%rbp),%rax
    c648:	48 89 85 70 f2 ff ff 	mov    %rax,-0xd90(%rbp)
    c64f:	48 8d 85 48 d7 ff ff 	lea    -0x28b8(%rbp),%rax
    c656:	48 89 85 78 f2 ff ff 	mov    %rax,-0xd88(%rbp)
    c65d:	48 8d 85 48 d7 ff ff 	lea    -0x28b8(%rbp),%rax
    c664:	48 89 85 80 f2 ff ff 	mov    %rax,-0xd80(%rbp)
    c66b:	48 8d 85 48 d7 ff ff 	lea    -0x28b8(%rbp),%rax
    c672:	48 89 85 88 f2 ff ff 	mov    %rax,-0xd78(%rbp)
    c679:	48 8d 85 48 d7 ff ff 	lea    -0x28b8(%rbp),%rax
    c680:	48 89 85 90 f2 ff ff 	mov    %rax,-0xd70(%rbp)
    c687:	48 c7 85 98 f2 ff ff 	movq   $0x0,-0xd68(%rbp)
    c68e:	00 00 00 00 
    c692:	48 8d 85 48 d7 ff ff 	lea    -0x28b8(%rbp),%rax
    c699:	48 89 85 a0 f2 ff ff 	mov    %rax,-0xd60(%rbp)
    c6a0:	48 8d 85 48 d7 ff ff 	lea    -0x28b8(%rbp),%rax
    c6a7:	48 89 85 a8 f2 ff ff 	mov    %rax,-0xd58(%rbp)
    c6ae:	48 8d 85 48 d7 ff ff 	lea    -0x28b8(%rbp),%rax
    c6b5:	48 89 85 b0 f2 ff ff 	mov    %rax,-0xd50(%rbp)
    c6bc:	48 8d 85 48 d7 ff ff 	lea    -0x28b8(%rbp),%rax
    c6c3:	48 89 85 b8 f2 ff ff 	mov    %rax,-0xd48(%rbp)
    c6ca:	48 8d 85 48 d7 ff ff 	lea    -0x28b8(%rbp),%rax
    c6d1:	48 89 85 c0 f2 ff ff 	mov    %rax,-0xd40(%rbp)
    c6d8:	48 8d 85 48 d7 ff ff 	lea    -0x28b8(%rbp),%rax
    c6df:	48 89 85 c8 f2 ff ff 	mov    %rax,-0xd38(%rbp)
    c6e6:	48 8d 85 48 d7 ff ff 	lea    -0x28b8(%rbp),%rax
    c6ed:	48 89 85 d0 f2 ff ff 	mov    %rax,-0xd30(%rbp)
    c6f4:	48 8d 85 48 d7 ff ff 	lea    -0x28b8(%rbp),%rax
    c6fb:	48 89 85 d8 f2 ff ff 	mov    %rax,-0xd28(%rbp)
    c702:	48 8d 85 48 d7 ff ff 	lea    -0x28b8(%rbp),%rax
    c709:	48 89 85 e0 f2 ff ff 	mov    %rax,-0xd20(%rbp)
    c710:	48 8d 85 48 d7 ff ff 	lea    -0x28b8(%rbp),%rax
    c717:	48 89 85 e8 f2 ff ff 	mov    %rax,-0xd18(%rbp)
    c71e:	48 8d 85 48 d7 ff ff 	lea    -0x28b8(%rbp),%rax
    c725:	48 89 85 f0 f2 ff ff 	mov    %rax,-0xd10(%rbp)
    c72c:	48 8d 85 48 d7 ff ff 	lea    -0x28b8(%rbp),%rax
    c733:	48 89 85 f8 f2 ff ff 	mov    %rax,-0xd08(%rbp)
    c73a:	48 8d 85 48 d7 ff ff 	lea    -0x28b8(%rbp),%rax
    c741:	48 89 85 00 f3 ff ff 	mov    %rax,-0xd00(%rbp)
    c748:	48 8d 85 48 d7 ff ff 	lea    -0x28b8(%rbp),%rax
    c74f:	48 89 85 08 f3 ff ff 	mov    %rax,-0xcf8(%rbp)
    c756:	48 c7 85 10 f3 ff ff 	movq   $0x0,-0xcf0(%rbp)
    c75d:	00 00 00 00 
    c761:	48 8d 85 48 d7 ff ff 	lea    -0x28b8(%rbp),%rax
    c768:	48 89 85 18 f3 ff ff 	mov    %rax,-0xce8(%rbp)
    c76f:	48 8d 85 48 d7 ff ff 	lea    -0x28b8(%rbp),%rax
    c776:	48 89 85 20 f3 ff ff 	mov    %rax,-0xce0(%rbp)
    c77d:	48 8d 85 48 d7 ff ff 	lea    -0x28b8(%rbp),%rax
    c784:	48 89 85 28 f3 ff ff 	mov    %rax,-0xcd8(%rbp)
    c78b:	48 8d 85 48 d7 ff ff 	lea    -0x28b8(%rbp),%rax
    c792:	48 89 85 30 f3 ff ff 	mov    %rax,-0xcd0(%rbp)
    c799:	48 c7 85 38 f3 ff ff 	movq   $0x0,-0xcc8(%rbp)
    c7a0:	00 00 00 00 
    c7a4:	48 8d 85 48 d7 ff ff 	lea    -0x28b8(%rbp),%rax
    c7ab:	48 89 85 40 f3 ff ff 	mov    %rax,-0xcc0(%rbp)
    c7b2:	48 c7 85 48 f3 ff ff 	movq   $0x0,-0xcb8(%rbp)
    c7b9:	00 00 00 00 
    c7bd:	48 8d 85 48 d7 ff ff 	lea    -0x28b8(%rbp),%rax
    c7c4:	48 89 85 50 f3 ff ff 	mov    %rax,-0xcb0(%rbp)
    c7cb:	48 c7 85 58 f3 ff ff 	movq   $0x0,-0xca8(%rbp)
    c7d2:	00 00 00 00 
    c7d6:	48 8d 85 48 d7 ff ff 	lea    -0x28b8(%rbp),%rax
    c7dd:	48 89 85 60 f3 ff ff 	mov    %rax,-0xca0(%rbp)
    c7e4:	48 8d 85 48 d7 ff ff 	lea    -0x28b8(%rbp),%rax
    c7eb:	48 89 85 68 f3 ff ff 	mov    %rax,-0xc98(%rbp)
    c7f2:	48 c7 85 70 f3 ff ff 	movq   $0x0,-0xc90(%rbp)
    c7f9:	00 00 00 00 
    c7fd:	48 8d 85 48 d7 ff ff 	lea    -0x28b8(%rbp),%rax
    c804:	48 89 85 78 f3 ff ff 	mov    %rax,-0xc88(%rbp)
    c80b:	48 8d 85 48 d7 ff ff 	lea    -0x28b8(%rbp),%rax
    c812:	48 89 85 80 f3 ff ff 	mov    %rax,-0xc80(%rbp)
    c819:	48 8d 85 48 d7 ff ff 	lea    -0x28b8(%rbp),%rax
    c820:	48 89 85 88 f3 ff ff 	mov    %rax,-0xc78(%rbp)
    c827:	48 8d 85 48 d7 ff ff 	lea    -0x28b8(%rbp),%rax
    c82e:	48 89 85 90 f3 ff ff 	mov    %rax,-0xc70(%rbp)
    c835:	48 8d 85 48 d7 ff ff 	lea    -0x28b8(%rbp),%rax
    c83c:	48 89 85 98 f3 ff ff 	mov    %rax,-0xc68(%rbp)
    c843:	48 8d 85 48 d7 ff ff 	lea    -0x28b8(%rbp),%rax
    c84a:	48 89 85 a0 f3 ff ff 	mov    %rax,-0xc60(%rbp)
    c851:	48 c7 85 a8 f3 ff ff 	movq   $0x0,-0xc58(%rbp)
    c858:	00 00 00 00 
    c85c:	48 8d 85 48 d7 ff ff 	lea    -0x28b8(%rbp),%rax
    c863:	48 89 85 b0 f3 ff ff 	mov    %rax,-0xc50(%rbp)
    c86a:	48 8d 85 48 d7 ff ff 	lea    -0x28b8(%rbp),%rax
    c871:	48 89 85 b8 f3 ff ff 	mov    %rax,-0xc48(%rbp)
    c878:	48 c7 85 c0 f3 ff ff 	movq   $0x0,-0xc40(%rbp)
    c87f:	00 00 00 00 
    c883:	48 8d 85 48 d7 ff ff 	lea    -0x28b8(%rbp),%rax
    c88a:	48 89 85 c8 f3 ff ff 	mov    %rax,-0xc38(%rbp)
    c891:	48 8d 85 48 d7 ff ff 	lea    -0x28b8(%rbp),%rax
    c898:	48 89 85 d0 f3 ff ff 	mov    %rax,-0xc30(%rbp)
    c89f:	48 8d 85 48 d7 ff ff 	lea    -0x28b8(%rbp),%rax
    c8a6:	48 89 85 d8 f3 ff ff 	mov    %rax,-0xc28(%rbp)
    c8ad:	48 8d 85 48 d7 ff ff 	lea    -0x28b8(%rbp),%rax
    c8b4:	48 89 85 e0 f3 ff ff 	mov    %rax,-0xc20(%rbp)
    c8bb:	48 8d 85 48 d7 ff ff 	lea    -0x28b8(%rbp),%rax
    c8c2:	48 89 85 e8 f3 ff ff 	mov    %rax,-0xc18(%rbp)
    c8c9:	48 8d 85 48 d7 ff ff 	lea    -0x28b8(%rbp),%rax
    c8d0:	48 89 85 f0 f3 ff ff 	mov    %rax,-0xc10(%rbp)
    c8d7:	48 8d 85 48 d7 ff ff 	lea    -0x28b8(%rbp),%rax
    c8de:	48 89 85 f8 f3 ff ff 	mov    %rax,-0xc08(%rbp)
    c8e5:	48 8d 85 48 d7 ff ff 	lea    -0x28b8(%rbp),%rax
    c8ec:	48 89 85 00 f4 ff ff 	mov    %rax,-0xc00(%rbp)
    c8f3:	48 8d 85 48 d7 ff ff 	lea    -0x28b8(%rbp),%rax
    c8fa:	48 89 85 08 f4 ff ff 	mov    %rax,-0xbf8(%rbp)
    c901:	48 8d 85 48 d7 ff ff 	lea    -0x28b8(%rbp),%rax
    c908:	48 89 85 10 f4 ff ff 	mov    %rax,-0xbf0(%rbp)
    c90f:	48 8d 85 48 d7 ff ff 	lea    -0x28b8(%rbp),%rax
    c916:	48 89 85 18 f4 ff ff 	mov    %rax,-0xbe8(%rbp)
    c91d:	48 8d 85 48 d7 ff ff 	lea    -0x28b8(%rbp),%rax
    c924:	48 89 85 20 f4 ff ff 	mov    %rax,-0xbe0(%rbp)
    c92b:	48 8d 85 48 d7 ff ff 	lea    -0x28b8(%rbp),%rax
    c932:	48 89 85 28 f4 ff ff 	mov    %rax,-0xbd8(%rbp)
    c939:	48 c7 85 30 f4 ff ff 	movq   $0x0,-0xbd0(%rbp)
    c940:	00 00 00 00 
    c944:	48 c7 85 38 f4 ff ff 	movq   $0x0,-0xbc8(%rbp)
    c94b:	00 00 00 00 
    c94f:	48 8d 85 48 d7 ff ff 	lea    -0x28b8(%rbp),%rax
    c956:	48 89 85 40 f4 ff ff 	mov    %rax,-0xbc0(%rbp)
    c95d:	48 c7 85 48 f4 ff ff 	movq   $0x0,-0xbb8(%rbp)
    c964:	00 00 00 00 
    c968:	48 c7 85 50 f4 ff ff 	movq   $0x0,-0xbb0(%rbp)
    c96f:	00 00 00 00 
    c973:	48 8d 85 48 d7 ff ff 	lea    -0x28b8(%rbp),%rax
    c97a:	48 89 85 58 f4 ff ff 	mov    %rax,-0xba8(%rbp)
    c981:	48 8d 85 48 d7 ff ff 	lea    -0x28b8(%rbp),%rax
    c988:	48 89 85 60 f4 ff ff 	mov    %rax,-0xba0(%rbp)
    c98f:	48 8d 85 48 d7 ff ff 	lea    -0x28b8(%rbp),%rax
    c996:	48 89 85 68 f4 ff ff 	mov    %rax,-0xb98(%rbp)
    c99d:	48 8d 85 48 d7 ff ff 	lea    -0x28b8(%rbp),%rax
    c9a4:	48 89 85 70 f4 ff ff 	mov    %rax,-0xb90(%rbp)
    c9ab:	48 8d 85 48 d7 ff ff 	lea    -0x28b8(%rbp),%rax
    c9b2:	48 89 85 78 f4 ff ff 	mov    %rax,-0xb88(%rbp)
    c9b9:	48 8d 85 48 d7 ff ff 	lea    -0x28b8(%rbp),%rax
    c9c0:	48 89 85 80 f4 ff ff 	mov    %rax,-0xb80(%rbp)
    c9c7:	48 8d 85 48 d7 ff ff 	lea    -0x28b8(%rbp),%rax
    c9ce:	48 89 85 88 f4 ff ff 	mov    %rax,-0xb78(%rbp)
    c9d5:	48 8d 85 48 d7 ff ff 	lea    -0x28b8(%rbp),%rax
    c9dc:	48 89 85 90 f4 ff ff 	mov    %rax,-0xb70(%rbp)
    c9e3:	48 8d 85 48 d7 ff ff 	lea    -0x28b8(%rbp),%rax
    c9ea:	48 89 85 98 f4 ff ff 	mov    %rax,-0xb68(%rbp)
    c9f1:	48 8d 85 48 d7 ff ff 	lea    -0x28b8(%rbp),%rax
    c9f8:	48 89 85 a0 f4 ff ff 	mov    %rax,-0xb60(%rbp)
    c9ff:	48 8d 85 48 d7 ff ff 	lea    -0x28b8(%rbp),%rax
    ca06:	48 89 85 a8 f4 ff ff 	mov    %rax,-0xb58(%rbp)
    ca0d:	48 8d 85 48 d7 ff ff 	lea    -0x28b8(%rbp),%rax
    ca14:	48 89 85 b0 f4 ff ff 	mov    %rax,-0xb50(%rbp)
    ca1b:	48 8d 85 48 d7 ff ff 	lea    -0x28b8(%rbp),%rax
    ca22:	48 89 85 b8 f4 ff ff 	mov    %rax,-0xb48(%rbp)
    ca29:	48 8d 85 48 d7 ff ff 	lea    -0x28b8(%rbp),%rax
    ca30:	48 89 85 c0 f4 ff ff 	mov    %rax,-0xb40(%rbp)
    ca37:	48 8d 85 48 d7 ff ff 	lea    -0x28b8(%rbp),%rax
    ca3e:	48 89 85 c8 f4 ff ff 	mov    %rax,-0xb38(%rbp)
    ca45:	48 8d 85 48 d7 ff ff 	lea    -0x28b8(%rbp),%rax
    ca4c:	48 89 85 d0 f4 ff ff 	mov    %rax,-0xb30(%rbp)
    ca53:	48 8d 85 48 d7 ff ff 	lea    -0x28b8(%rbp),%rax
    ca5a:	48 89 85 d8 f4 ff ff 	mov    %rax,-0xb28(%rbp)
    ca61:	48 8d 85 48 d7 ff ff 	lea    -0x28b8(%rbp),%rax
    ca68:	48 89 85 e0 f4 ff ff 	mov    %rax,-0xb20(%rbp)
    ca6f:	48 8d 85 48 d7 ff ff 	lea    -0x28b8(%rbp),%rax
    ca76:	48 89 85 e8 f4 ff ff 	mov    %rax,-0xb18(%rbp)
    ca7d:	48 c7 85 f0 f4 ff ff 	movq   $0x0,-0xb10(%rbp)
    ca84:	00 00 00 00 
    ca88:	48 8d 85 48 d7 ff ff 	lea    -0x28b8(%rbp),%rax
    ca8f:	48 89 85 f8 f4 ff ff 	mov    %rax,-0xb08(%rbp)
    ca96:	48 8d 85 48 d7 ff ff 	lea    -0x28b8(%rbp),%rax
    ca9d:	48 89 85 00 f5 ff ff 	mov    %rax,-0xb00(%rbp)
    caa4:	48 8d 85 48 d7 ff ff 	lea    -0x28b8(%rbp),%rax
    caab:	48 89 85 08 f5 ff ff 	mov    %rax,-0xaf8(%rbp)
    cab2:	48 c7 85 10 f5 ff ff 	movq   $0x0,-0xaf0(%rbp)
    cab9:	00 00 00 00 
    cabd:	48 8d 85 48 d7 ff ff 	lea    -0x28b8(%rbp),%rax
    cac4:	48 89 85 18 f5 ff ff 	mov    %rax,-0xae8(%rbp)
    cacb:	48 8d 85 48 d7 ff ff 	lea    -0x28b8(%rbp),%rax
    cad2:	48 89 85 20 f5 ff ff 	mov    %rax,-0xae0(%rbp)
    cad9:	48 8d 85 48 d7 ff ff 	lea    -0x28b8(%rbp),%rax
    cae0:	48 89 85 28 f5 ff ff 	mov    %rax,-0xad8(%rbp)
    cae7:	48 8d 85 48 d7 ff ff 	lea    -0x28b8(%rbp),%rax
    caee:	48 89 85 30 f5 ff ff 	mov    %rax,-0xad0(%rbp)
    caf5:	48 8d 85 48 d7 ff ff 	lea    -0x28b8(%rbp),%rax
    cafc:	48 89 85 38 f5 ff ff 	mov    %rax,-0xac8(%rbp)
    cb03:	48 8d 85 48 d7 ff ff 	lea    -0x28b8(%rbp),%rax
    cb0a:	48 89 85 40 f5 ff ff 	mov    %rax,-0xac0(%rbp)
    cb11:	48 8d 85 48 d7 ff ff 	lea    -0x28b8(%rbp),%rax
    cb18:	48 89 85 48 f5 ff ff 	mov    %rax,-0xab8(%rbp)
    cb1f:	48 8d 85 48 d7 ff ff 	lea    -0x28b8(%rbp),%rax
    cb26:	48 89 85 50 f5 ff ff 	mov    %rax,-0xab0(%rbp)
    cb2d:	48 8d 85 48 d7 ff ff 	lea    -0x28b8(%rbp),%rax
    cb34:	48 89 85 58 f5 ff ff 	mov    %rax,-0xaa8(%rbp)
    cb3b:	48 8d 85 48 d7 ff ff 	lea    -0x28b8(%rbp),%rax
    cb42:	48 89 85 60 f5 ff ff 	mov    %rax,-0xaa0(%rbp)
    cb49:	48 8d 85 48 d7 ff ff 	lea    -0x28b8(%rbp),%rax
    cb50:	48 89 85 68 f5 ff ff 	mov    %rax,-0xa98(%rbp)
    cb57:	48 8d 85 48 d7 ff ff 	lea    -0x28b8(%rbp),%rax
    cb5e:	48 89 85 70 f5 ff ff 	mov    %rax,-0xa90(%rbp)
    cb65:	48 c7 85 78 f5 ff ff 	movq   $0x0,-0xa88(%rbp)
    cb6c:	00 00 00 00 
    cb70:	48 8d 85 48 d7 ff ff 	lea    -0x28b8(%rbp),%rax
    cb77:	48 89 85 80 f5 ff ff 	mov    %rax,-0xa80(%rbp)
    cb7e:	48 8d 85 48 d7 ff ff 	lea    -0x28b8(%rbp),%rax
    cb85:	48 89 85 88 f5 ff ff 	mov    %rax,-0xa78(%rbp)
    cb8c:	48 8d 85 48 d7 ff ff 	lea    -0x28b8(%rbp),%rax
    cb93:	48 89 85 90 f5 ff ff 	mov    %rax,-0xa70(%rbp)
    cb9a:	48 8d 85 48 d7 ff ff 	lea    -0x28b8(%rbp),%rax
    cba1:	48 89 85 98 f5 ff ff 	mov    %rax,-0xa68(%rbp)
    cba8:	48 8d 85 48 d7 ff ff 	lea    -0x28b8(%rbp),%rax
    cbaf:	48 89 85 a0 f5 ff ff 	mov    %rax,-0xa60(%rbp)
    cbb6:	48 8d 85 48 d7 ff ff 	lea    -0x28b8(%rbp),%rax
    cbbd:	48 89 85 a8 f5 ff ff 	mov    %rax,-0xa58(%rbp)
    cbc4:	48 8d 85 48 d7 ff ff 	lea    -0x28b8(%rbp),%rax
    cbcb:	48 89 85 b0 f5 ff ff 	mov    %rax,-0xa50(%rbp)
    cbd2:	48 8d 85 48 d7 ff ff 	lea    -0x28b8(%rbp),%rax
    cbd9:	48 89 85 b8 f5 ff ff 	mov    %rax,-0xa48(%rbp)
    cbe0:	48 8d 85 48 d7 ff ff 	lea    -0x28b8(%rbp),%rax
    cbe7:	48 89 85 c0 f5 ff ff 	mov    %rax,-0xa40(%rbp)
    cbee:	48 8d 85 48 d7 ff ff 	lea    -0x28b8(%rbp),%rax
    cbf5:	48 89 85 c8 f5 ff ff 	mov    %rax,-0xa38(%rbp)
    cbfc:	48 8d 85 48 d7 ff ff 	lea    -0x28b8(%rbp),%rax
    cc03:	48 89 85 d0 f5 ff ff 	mov    %rax,-0xa30(%rbp)
    cc0a:	48 c7 85 d8 f5 ff ff 	movq   $0x0,-0xa28(%rbp)
    cc11:	00 00 00 00 
    cc15:	48 8d 85 48 d7 ff ff 	lea    -0x28b8(%rbp),%rax
    cc1c:	48 89 85 e0 f5 ff ff 	mov    %rax,-0xa20(%rbp)
    cc23:	48 8d 85 48 d7 ff ff 	lea    -0x28b8(%rbp),%rax
    cc2a:	48 89 85 e8 f5 ff ff 	mov    %rax,-0xa18(%rbp)
    cc31:	48 c7 85 f0 f5 ff ff 	movq   $0x0,-0xa10(%rbp)
    cc38:	00 00 00 00 
    cc3c:	48 8d 85 48 d7 ff ff 	lea    -0x28b8(%rbp),%rax
    cc43:	48 89 85 f8 f5 ff ff 	mov    %rax,-0xa08(%rbp)
    cc4a:	48 8d 85 48 d7 ff ff 	lea    -0x28b8(%rbp),%rax
    cc51:	48 89 85 00 f6 ff ff 	mov    %rax,-0xa00(%rbp)
    cc58:	48 8d 85 48 d7 ff ff 	lea    -0x28b8(%rbp),%rax
    cc5f:	48 89 85 08 f6 ff ff 	mov    %rax,-0x9f8(%rbp)
    cc66:	48 8d 85 48 d7 ff ff 	lea    -0x28b8(%rbp),%rax
    cc6d:	48 89 85 10 f6 ff ff 	mov    %rax,-0x9f0(%rbp)
    cc74:	48 8d 85 48 d7 ff ff 	lea    -0x28b8(%rbp),%rax
    cc7b:	48 89 85 18 f6 ff ff 	mov    %rax,-0x9e8(%rbp)
    cc82:	48 8d 85 48 d7 ff ff 	lea    -0x28b8(%rbp),%rax
    cc89:	48 89 85 20 f6 ff ff 	mov    %rax,-0x9e0(%rbp)
    cc90:	48 8d 85 48 d7 ff ff 	lea    -0x28b8(%rbp),%rax
    cc97:	48 89 85 28 f6 ff ff 	mov    %rax,-0x9d8(%rbp)
    cc9e:	48 8d 85 48 d7 ff ff 	lea    -0x28b8(%rbp),%rax
    cca5:	48 89 85 30 f6 ff ff 	mov    %rax,-0x9d0(%rbp)
    ccac:	48 8d 85 48 d7 ff ff 	lea    -0x28b8(%rbp),%rax
    ccb3:	48 89 85 38 f6 ff ff 	mov    %rax,-0x9c8(%rbp)
    ccba:	48 8d 85 48 d7 ff ff 	lea    -0x28b8(%rbp),%rax
    ccc1:	48 89 85 40 f6 ff ff 	mov    %rax,-0x9c0(%rbp)
    ccc8:	48 8d 85 48 d7 ff ff 	lea    -0x28b8(%rbp),%rax
    cccf:	48 89 85 48 f6 ff ff 	mov    %rax,-0x9b8(%rbp)
    ccd6:	48 8d 85 48 d7 ff ff 	lea    -0x28b8(%rbp),%rax
    ccdd:	48 89 85 50 f6 ff ff 	mov    %rax,-0x9b0(%rbp)
    cce4:	48 8d 85 48 d7 ff ff 	lea    -0x28b8(%rbp),%rax
    cceb:	48 89 85 58 f6 ff ff 	mov    %rax,-0x9a8(%rbp)
    ccf2:	48 c7 85 60 f6 ff ff 	movq   $0x0,-0x9a0(%rbp)
    ccf9:	00 00 00 00 
    ccfd:	48 c7 85 68 f6 ff ff 	movq   $0x0,-0x998(%rbp)
    cd04:	00 00 00 00 
    cd08:	48 8d 85 48 d7 ff ff 	lea    -0x28b8(%rbp),%rax
    cd0f:	48 89 85 70 f6 ff ff 	mov    %rax,-0x990(%rbp)
    cd16:	48 c7 85 78 f6 ff ff 	movq   $0x0,-0x988(%rbp)
    cd1d:	00 00 00 00 
    cd21:	48 c7 85 80 f6 ff ff 	movq   $0x0,-0x980(%rbp)
    cd28:	00 00 00 00 
    cd2c:	48 8d 85 48 d7 ff ff 	lea    -0x28b8(%rbp),%rax
    cd33:	48 89 85 88 f6 ff ff 	mov    %rax,-0x978(%rbp)
    cd3a:	48 8d 85 48 d7 ff ff 	lea    -0x28b8(%rbp),%rax
    cd41:	48 89 85 90 f6 ff ff 	mov    %rax,-0x970(%rbp)
    cd48:	48 8d 85 48 d7 ff ff 	lea    -0x28b8(%rbp),%rax
    cd4f:	48 89 85 98 f6 ff ff 	mov    %rax,-0x968(%rbp)
    cd56:	48 8d 85 48 d7 ff ff 	lea    -0x28b8(%rbp),%rax
    cd5d:	48 89 85 a0 f6 ff ff 	mov    %rax,-0x960(%rbp)
    cd64:	48 8d 85 48 d7 ff ff 	lea    -0x28b8(%rbp),%rax
    cd6b:	48 89 85 a8 f6 ff ff 	mov    %rax,-0x958(%rbp)
    cd72:	48 8d 85 48 d7 ff ff 	lea    -0x28b8(%rbp),%rax
    cd79:	48 89 85 b0 f6 ff ff 	mov    %rax,-0x950(%rbp)
    cd80:	48 8d 85 48 d7 ff ff 	lea    -0x28b8(%rbp),%rax
    cd87:	48 89 85 b8 f6 ff ff 	mov    %rax,-0x948(%rbp)
    cd8e:	48 8d 85 48 d7 ff ff 	lea    -0x28b8(%rbp),%rax
    cd95:	48 89 85 c0 f6 ff ff 	mov    %rax,-0x940(%rbp)
    cd9c:	48 8d 85 48 d7 ff ff 	lea    -0x28b8(%rbp),%rax
    cda3:	48 89 85 c8 f6 ff ff 	mov    %rax,-0x938(%rbp)
    cdaa:	48 8d 85 48 d7 ff ff 	lea    -0x28b8(%rbp),%rax
    cdb1:	48 89 85 d0 f6 ff ff 	mov    %rax,-0x930(%rbp)
    cdb8:	48 8d 85 48 d7 ff ff 	lea    -0x28b8(%rbp),%rax
    cdbf:	48 89 85 d8 f6 ff ff 	mov    %rax,-0x928(%rbp)
    cdc6:	48 8d 85 48 d7 ff ff 	lea    -0x28b8(%rbp),%rax
    cdcd:	48 89 85 e0 f6 ff ff 	mov    %rax,-0x920(%rbp)
    cdd4:	48 8d 85 48 d7 ff ff 	lea    -0x28b8(%rbp),%rax
    cddb:	48 89 85 e8 f6 ff ff 	mov    %rax,-0x918(%rbp)
    cde2:	48 8d 85 48 d7 ff ff 	lea    -0x28b8(%rbp),%rax
    cde9:	48 89 85 f0 f6 ff ff 	mov    %rax,-0x910(%rbp)
    cdf0:	48 8d 85 48 d7 ff ff 	lea    -0x28b8(%rbp),%rax
    cdf7:	48 89 85 f8 f6 ff ff 	mov    %rax,-0x908(%rbp)
    cdfe:	48 8d 85 48 d7 ff ff 	lea    -0x28b8(%rbp),%rax
    ce05:	48 89 85 00 f7 ff ff 	mov    %rax,-0x900(%rbp)
    ce0c:	48 8d 85 48 d7 ff ff 	lea    -0x28b8(%rbp),%rax
    ce13:	48 89 85 08 f7 ff ff 	mov    %rax,-0x8f8(%rbp)
    ce1a:	48 8d 85 48 d7 ff ff 	lea    -0x28b8(%rbp),%rax
    ce21:	48 89 85 10 f7 ff ff 	mov    %rax,-0x8f0(%rbp)
    ce28:	48 8d 85 48 d7 ff ff 	lea    -0x28b8(%rbp),%rax
    ce2f:	48 89 85 18 f7 ff ff 	mov    %rax,-0x8e8(%rbp)
    ce36:	48 c7 85 20 f7 ff ff 	movq   $0x0,-0x8e0(%rbp)
    ce3d:	00 00 00 00 
    ce41:	48 8d 85 48 d7 ff ff 	lea    -0x28b8(%rbp),%rax
    ce48:	48 89 85 28 f7 ff ff 	mov    %rax,-0x8d8(%rbp)
    ce4f:	48 8d 85 48 d7 ff ff 	lea    -0x28b8(%rbp),%rax
    ce56:	48 89 85 30 f7 ff ff 	mov    %rax,-0x8d0(%rbp)
    ce5d:	48 8d 85 48 d7 ff ff 	lea    -0x28b8(%rbp),%rax
    ce64:	48 89 85 38 f7 ff ff 	mov    %rax,-0x8c8(%rbp)
    ce6b:	48 c7 85 40 f7 ff ff 	movq   $0x0,-0x8c0(%rbp)
    ce72:	00 00 00 00 
    ce76:	48 8d 85 48 d7 ff ff 	lea    -0x28b8(%rbp),%rax
    ce7d:	48 89 85 48 f7 ff ff 	mov    %rax,-0x8b8(%rbp)
    ce84:	48 8d 85 48 d7 ff ff 	lea    -0x28b8(%rbp),%rax
    ce8b:	48 89 85 50 f7 ff ff 	mov    %rax,-0x8b0(%rbp)
    ce92:	48 8d 85 48 d7 ff ff 	lea    -0x28b8(%rbp),%rax
    ce99:	48 89 85 58 f7 ff ff 	mov    %rax,-0x8a8(%rbp)
    cea0:	48 8d 85 48 d7 ff ff 	lea    -0x28b8(%rbp),%rax
    cea7:	48 89 85 60 f7 ff ff 	mov    %rax,-0x8a0(%rbp)
    ceae:	48 8d 85 48 d7 ff ff 	lea    -0x28b8(%rbp),%rax
    ceb5:	48 89 85 68 f7 ff ff 	mov    %rax,-0x898(%rbp)
    cebc:	48 8d 85 48 d7 ff ff 	lea    -0x28b8(%rbp),%rax
    cec3:	48 89 85 70 f7 ff ff 	mov    %rax,-0x890(%rbp)
    ceca:	48 8d 85 48 d7 ff ff 	lea    -0x28b8(%rbp),%rax
    ced1:	48 89 85 78 f7 ff ff 	mov    %rax,-0x888(%rbp)
    ced8:	48 8d 85 48 d7 ff ff 	lea    -0x28b8(%rbp),%rax
    cedf:	48 89 85 80 f7 ff ff 	mov    %rax,-0x880(%rbp)
    cee6:	48 8d 85 48 d7 ff ff 	lea    -0x28b8(%rbp),%rax
    ceed:	48 89 85 88 f7 ff ff 	mov    %rax,-0x878(%rbp)
    cef4:	48 8d 85 48 d7 ff ff 	lea    -0x28b8(%rbp),%rax
    cefb:	48 89 85 90 f7 ff ff 	mov    %rax,-0x870(%rbp)
    cf02:	48 8d 85 48 d7 ff ff 	lea    -0x28b8(%rbp),%rax
    cf09:	48 89 85 98 f7 ff ff 	mov    %rax,-0x868(%rbp)
    cf10:	48 8d 85 48 d7 ff ff 	lea    -0x28b8(%rbp),%rax
    cf17:	48 89 85 a0 f7 ff ff 	mov    %rax,-0x860(%rbp)
    cf1e:	48 c7 85 a8 f7 ff ff 	movq   $0x0,-0x858(%rbp)
    cf25:	00 00 00 00 
    cf29:	48 8d 85 48 d7 ff ff 	lea    -0x28b8(%rbp),%rax
    cf30:	48 89 85 b0 f7 ff ff 	mov    %rax,-0x850(%rbp)
    cf37:	48 8d 85 48 d7 ff ff 	lea    -0x28b8(%rbp),%rax
    cf3e:	48 89 85 b8 f7 ff ff 	mov    %rax,-0x848(%rbp)
    cf45:	48 8d 85 48 d7 ff ff 	lea    -0x28b8(%rbp),%rax
    cf4c:	48 89 85 c0 f7 ff ff 	mov    %rax,-0x840(%rbp)
    cf53:	48 8d 85 48 d7 ff ff 	lea    -0x28b8(%rbp),%rax
    cf5a:	48 89 85 c8 f7 ff ff 	mov    %rax,-0x838(%rbp)
    cf61:	48 8d 05 ee b8 00 00 	lea    0xb8ee(%rip),%rax        # 18856 <g_1018+0x3f6>
    cf68:	48 89 85 38 d8 ff ff 	mov    %rax,-0x27c8(%rbp)
    cf6f:	48 8b 15 02 e4 00 00 	mov    0xe402(%rip),%rdx        # 1b378 <g_849>
    cf76:	48 8b 05 fb e3 00 00 	mov    0xe3fb(%rip),%rax        # 1b378 <g_849>
    cf7d:	48 8b 12             	mov    (%rdx),%rdx
    cf80:	48 89 10             	mov    %rdx,(%rax)
    cf83:	48 8b 00             	mov    (%rax),%rax
    cf86:	48 85 c0             	test   %rax,%rax
    cf89:	0f 84 ab 02 00 00    	je     d23a <func_1+0x5a85>
    cf8f:	c7 85 6c d6 ff ff fe 	movl   $0xfffffffe,-0x2994(%rbp)
    cf96:	ff ff ff 
    cf99:	c7 85 e4 d5 ff ff 00 	movl   $0x0,-0x2a1c(%rbp)
    cfa0:	00 00 00 
    cfa3:	eb 1e                	jmp    cfc3 <func_1+0x580e>
    cfa5:	8b 85 e4 d5 ff ff    	mov    -0x2a1c(%rbp),%eax
    cfab:	48 98                	cltq   
    cfad:	48 8d 15 44 b3 00 00 	lea    0xb344(%rip),%rdx        # 182f8 <g_502+0x8>
    cfb4:	48 89 94 c5 a0 d9 ff 	mov    %rdx,-0x2660(%rbp,%rax,8)
    cfbb:	ff 
    cfbc:	83 85 e4 d5 ff ff 01 	addl   $0x1,-0x2a1c(%rbp)
    cfc3:	83 bd e4 d5 ff ff 00 	cmpl   $0x0,-0x2a1c(%rbp)
    cfca:	7e d9                	jle    cfa5 <func_1+0x57f0>
    cfcc:	48 8b 95 10 d7 ff ff 	mov    -0x28f0(%rbp),%rdx
    cfd3:	48 8b 85 10 d7 ff ff 	mov    -0x28f0(%rbp),%rax
    cfda:	8b 12                	mov    (%rdx),%edx
    cfdc:	89 10                	mov    %edx,(%rax)
    cfde:	48 8b 85 a0 db ff ff 	mov    -0x2460(%rbp),%rax
    cfe5:	48 89 05 e4 e2 00 00 	mov    %rax,0xe2e4(%rip)        # 1b2d0 <g_727>
    cfec:	48 8b 85 50 d7 ff ff 	mov    -0x28b0(%rbp),%rax
    cff3:	8b 10                	mov    (%rax),%edx
    cff5:	0f b6 45 c2          	movzbl -0x3e(%rbp),%eax
    cff9:	0f be c0             	movsbl %al,%eax
    cffc:	31 c2                	xor    %eax,%edx
    cffe:	48 8b 85 50 d7 ff ff 	mov    -0x28b0(%rbp),%rax
    d005:	89 10                	mov    %edx,(%rax)
    d007:	0f b6 05 c4 b1 00 00 	movzbl 0xb1c4(%rip),%eax        # 181d2 <g_141>
    d00e:	0f be c0             	movsbl %al,%eax
    d011:	83 c0 01             	add    $0x1,%eax
    d014:	48 98                	cltq   
    d016:	c6 44 05 b7 04       	movb   $0x4,-0x49(%rbp,%rax,1)
    d01b:	b8 07 00 00 00       	mov    $0x7,%eax
    d020:	0f be d8             	movsbl %al,%ebx
    d023:	48 8b 85 50 d7 ff ff 	mov    -0x28b0(%rbp),%rax
    d02a:	44 8b 20             	mov    (%rax),%r12d
    d02d:	48 8b 05 d4 e7 00 00 	mov    0xe7d4(%rip),%rax        # 1b808 <g_861>
    d034:	44 0f be e8          	movsbl %al,%r13d
    d038:	83 bd 6c d6 ff ff 00 	cmpl   $0x0,-0x2994(%rbp)
    d03f:	0f 84 18 01 00 00    	je     d15d <func_1+0x59a8>
    d045:	48 8b 85 50 d7 ff ff 	mov    -0x28b0(%rbp),%rax
    d04c:	8b 00                	mov    (%rax),%eax
    d04e:	4c 63 f0             	movslq %eax,%r14
    d051:	8b 0d d9 b3 00 00    	mov    0xb3d9(%rip),%ecx        # 18430 <g_1012>
    d057:	0f b7 05 22 b2 00 00 	movzwl 0xb222(%rip),%eax        # 18280 <g_342+0x10>
    d05e:	0f b7 d0             	movzwl %ax,%edx
    d061:	48 8b 05 10 b2 00 00 	mov    0xb210(%rip),%rax        # 18278 <g_342+0x8>
    d068:	89 c9                	mov    %ecx,%ecx
    d06a:	48 09 c8             	or     %rcx,%rax
    d06d:	48 89 05 04 b2 00 00 	mov    %rax,0xb204(%rip)        # 18278 <g_342+0x8>
    d074:	48 8b 05 fd b1 00 00 	mov    0xb1fd(%rip),%rax        # 18278 <g_342+0x8>
    d07b:	48 39 c2             	cmp    %rax,%rdx
    d07e:	0f 92 c0             	setb   %al
    d081:	0f b6 d0             	movzbl %al,%edx
    d084:	b8 1e 48 00 00       	mov    $0x481e,%eax
    d089:	0f b6 c0             	movzbl %al,%eax
    d08c:	89 d6                	mov    %edx,%esi
    d08e:	89 c7                	mov    %eax,%edi
    d090:	e8 b7 9b ff ff       	callq  6c4c <safe_lshift_func_uint8_t_u_u>
    d095:	0f be c0             	movsbl %al,%eax
    d098:	be 00 00 00 00       	mov    $0x0,%esi
    d09d:	89 c7                	mov    %eax,%edi
    d09f:	e8 c8 92 ff ff       	callq  636c <safe_rshift_func_int8_t_s_u>
    d0a4:	0f be c0             	movsbl %al,%eax
    d0a7:	89 85 6c d5 ff ff    	mov    %eax,-0x2a94(%rbp)
    d0ad:	44 0f bf bd 90 d5 ff 	movswl -0x2a70(%rbp),%r15d
    d0b4:	ff 
    d0b5:	48 8b 85 50 d7 ff ff 	mov    -0x28b0(%rbp),%rax
    d0bc:	8b 38                	mov    (%rax),%edi
    d0be:	89 bd 60 d5 ff ff    	mov    %edi,-0x2aa0(%rbp)
    d0c4:	0f b7 05 b5 b1 00 00 	movzwl 0xb1b5(%rip),%eax        # 18280 <g_342+0x10>
    d0cb:	0f b7 d0             	movzwl %ax,%edx
    d0ce:	48 89 95 58 d5 ff ff 	mov    %rdx,-0x2aa8(%rbp)
    d0d5:	48 8b 85 38 d8 ff ff 	mov    -0x27c8(%rbp),%rax
    d0dc:	48 89 05 bd e2 00 00 	mov    %rax,0xe2bd(%rip)        # 1b3a0 <g_1342>
    d0e3:	48 8b 05 b6 e2 00 00 	mov    0xe2b6(%rip),%rax        # 1b3a0 <g_1342>
    d0ea:	48 8d 15 df b0 00 00 	lea    0xb0df(%rip),%rdx        # 181d0 <g_125>
    d0f1:	48 39 d0             	cmp    %rdx,%rax
    d0f4:	0f 95 c0             	setne  %al
    d0f7:	0f b6 c0             	movzbl %al,%eax
    d0fa:	8b 95 68 d6 ff ff    	mov    -0x2998(%rbp),%edx
    d100:	89 d6                	mov    %edx,%esi
    d102:	89 c7                	mov    %eax,%edi
    d104:	e8 fc 94 ff ff       	callq  6605 <safe_sub_func_int32_t_s_s>
    d109:	48 98                	cltq   
    d10b:	48 8b b5 58 d5 ff ff 	mov    -0x2aa8(%rbp),%rsi
    d112:	48 89 c7             	mov    %rax,%rdi
    d115:	e8 9a 98 ff ff       	callq  69b4 <safe_mod_func_int64_t_s_s>
    d11a:	8b b5 60 d5 ff ff    	mov    -0x2aa0(%rbp),%esi
    d120:	89 c7                	mov    %eax,%edi
    d122:	e8 d8 95 ff ff       	callq  66ff <safe_div_func_int32_t_s_s>
    d127:	44 89 fe             	mov    %r15d,%esi
    d12a:	89 c7                	mov    %eax,%edi
    d12c:	e8 d4 94 ff ff       	callq  6605 <safe_sub_func_int32_t_s_s>
    d131:	83 f8 fa             	cmp    $0xfffffffa,%eax
    d134:	0f 9c c0             	setl   %al
    d137:	0f b6 c0             	movzbl %al,%eax
    d13a:	39 85 6c d5 ff ff    	cmp    %eax,-0x2a94(%rbp)
    d140:	0f 9f c0             	setg   %al
    d143:	0f b6 c0             	movzbl %al,%eax
    d146:	4c 89 f6             	mov    %r14,%rsi
    d149:	48 89 c7             	mov    %rax,%rdi
    d14c:	e8 dd 9e ff ff       	callq  702e <safe_add_func_uint64_t_u_u>
    d151:	48 85 c0             	test   %rax,%rax
    d154:	74 07                	je     d15d <func_1+0x59a8>
    d156:	ba 01 00 00 00       	mov    $0x1,%edx
    d15b:	eb 05                	jmp    d162 <func_1+0x59ad>
    d15d:	ba 00 00 00 00       	mov    $0x0,%edx
    d162:	0f b7 05 8d b1 00 00 	movzwl 0xb18d(%rip),%eax        # 182f6 <g_502+0x6>
    d169:	0f b7 c0             	movzwl %ax,%eax
    d16c:	39 c2                	cmp    %eax,%edx
    d16e:	0f 9f c0             	setg   %al
    d171:	0f b6 c0             	movzbl %al,%eax
    d174:	be b3 3f c2 c8       	mov    $0xc8c23fb3,%esi
    d179:	89 c7                	mov    %eax,%edi
    d17b:	e8 38 9d ff ff       	callq  6eb8 <safe_add_func_uint32_t_u_u>
    d180:	89 c2                	mov    %eax,%edx
    d182:	48 8b 05 4f e1 00 00 	mov    0xe14f(%rip),%rax        # 1b2d8 <g_799>
    d189:	48 8b 00             	mov    (%rax),%rax
    d18c:	0f b7 00             	movzwl (%rax),%eax
    d18f:	09 d0                	or     %edx,%eax
    d191:	0f b7 c0             	movzwl %ax,%eax
    d194:	8b 95 6c d6 ff ff    	mov    -0x2994(%rbp),%edx
    d19a:	89 d6                	mov    %edx,%esi
    d19c:	89 c7                	mov    %eax,%edi
    d19e:	e8 1b 9c ff ff       	callq  6dbe <safe_lshift_func_uint16_t_u_s>
    d1a3:	8b 05 47 b2 00 00    	mov    0xb247(%rip),%eax        # 183f0 <g_774>
    d1a9:	0f be c0             	movsbl %al,%eax
    d1ac:	44 89 ee             	mov    %r13d,%esi
    d1af:	89 c7                	mov    %eax,%edi
    d1b1:	e8 5c 90 ff ff       	callq  6212 <safe_mul_func_int8_t_s_s>
    d1b6:	48 8b 95 18 d7 ff ff 	mov    -0x28e8(%rbp),%rdx
    d1bd:	8b 0a                	mov    (%rdx),%ecx
    d1bf:	0f be d0             	movsbl %al,%edx
    d1c2:	48 8b 85 18 d7 ff ff 	mov    -0x28e8(%rbp),%rax
    d1c9:	21 ca                	and    %ecx,%edx
    d1cb:	89 10                	mov    %edx,(%rax)
    d1cd:	8b 00                	mov    (%rax),%eax
    d1cf:	44 89 e6             	mov    %r12d,%esi
    d1d2:	89 c7                	mov    %eax,%edi
    d1d4:	e8 dd 93 ff ff       	callq  65b6 <safe_add_func_int32_t_s_s>
    d1d9:	48 98                	cltq   
    d1db:	48 89 05 26 e6 00 00 	mov    %rax,0xe626(%rip)        # 1b808 <g_861>
    d1e2:	48 8b 15 1f e6 00 00 	mov    0xe61f(%rip),%rdx        # 1b808 <g_861>
    d1e9:	48 8b 8d a8 f1 ff ff 	mov    -0xe58(%rbp),%rcx
    d1f0:	48 8d 85 58 d9 ff ff 	lea    -0x26a8(%rbp),%rax
    d1f7:	48 39 c1             	cmp    %rax,%rcx
    d1fa:	0f 94 c0             	sete   %al
    d1fd:	0f b6 c0             	movzbl %al,%eax
    d200:	48 89 d6             	mov    %rdx,%rsi
    d203:	48 89 c7             	mov    %rax,%rdi
    d206:	e8 ec 97 ff ff       	callq  69f7 <safe_div_func_int64_t_s_s>
    d20b:	0f be c0             	movsbl %al,%eax
    d20e:	89 de                	mov    %ebx,%esi
    d210:	89 c7                	mov    %eax,%edi
    d212:	e8 db 8f ff ff       	callq  61f2 <safe_sub_func_int8_t_s_s>
    d217:	b8 af ed 83 cb       	mov    $0xcb83edaf,%eax
    d21c:	85 c0                	test   %eax,%eax
    d21e:	0f 94 c0             	sete   %al
    d221:	0f b6 d0             	movzbl %al,%edx
    d224:	48 8b 85 c8 d7 ff ff 	mov    -0x2838(%rbp),%rax
    d22b:	8b 00                	mov    (%rax),%eax
    d22d:	21 c2                	and    %eax,%edx
    d22f:	48 8b 85 c8 d7 ff ff 	mov    -0x2838(%rbp),%rax
    d236:	89 10                	mov    %edx,(%rax)
    d238:	eb 1e                	jmp    d258 <func_1+0x5aa3>
    d23a:	48 8d 85 d8 d5 ff ff 	lea    -0x2a28(%rbp),%rax
    d241:	48 89 85 50 d7 ff ff 	mov    %rax,-0x28b0(%rbp)
    d248:	48 8b 85 10 d7 ff ff 	mov    -0x28f0(%rbp),%rax
    d24f:	0f be 95 7f d5 ff ff 	movsbl -0x2a81(%rbp),%edx
    d256:	89 10                	mov    %edx,(%rax)
    d258:	48 c7 05 15 b0 00 00 	movq   $0x0,0xb015(%rip)        # 18278 <g_342+0x8>
    d25f:	00 00 00 00 
    d263:	eb 6c                	jmp    d2d1 <func_1+0x5b1c>
    d265:	48 8d 85 20 d7 ff ff 	lea    -0x28e0(%rbp),%rax
    d26c:	48 89 85 40 d8 ff ff 	mov    %rax,-0x27c0(%rbp)
    d273:	48 8b 05 fe af 00 00 	mov    0xaffe(%rip),%rax        # 18278 <g_342+0x8>
    d27a:	8b 84 85 64 d9 ff ff 	mov    -0x269c(%rbp,%rax,4),%eax
    d281:	85 c0                	test   %eax,%eax
    d283:	75 5b                	jne    d2e0 <func_1+0x5b2b>
    d285:	48 8b 05 6c b0 00 00 	mov    0xb06c(%rip),%rax        # 182f8 <g_502+0x8>
    d28c:	0f b6 c0             	movzbl %al,%eax
    d28f:	be 00 00 00 00       	mov    $0x0,%esi
    d294:	89 c7                	mov    %eax,%edi
    d296:	e8 6a 99 ff ff       	callq  6c05 <safe_lshift_func_uint8_t_u_s>
    d29b:	89 c2                	mov    %eax,%edx
    d29d:	48 8b 05 d4 af 00 00 	mov    0xafd4(%rip),%rax        # 18278 <g_342+0x8>
    d2a4:	0f b6 d2             	movzbl %dl,%edx
    d2a7:	89 94 85 64 d9 ff ff 	mov    %edx,-0x269c(%rbp,%rax,4)
    d2ae:	48 8b 85 e0 d7 ff ff 	mov    -0x2820(%rbp),%rax
    d2b5:	48 8b 95 40 d8 ff ff 	mov    -0x27c0(%rbp),%rdx
    d2bc:	48 89 10             	mov    %rdx,(%rax)
    d2bf:	48 8b 05 b2 af 00 00 	mov    0xafb2(%rip),%rax        # 18278 <g_342+0x8>
    d2c6:	48 83 c0 01          	add    $0x1,%rax
    d2ca:	48 89 05 a7 af 00 00 	mov    %rax,0xafa7(%rip)        # 18278 <g_342+0x8>
    d2d1:	48 8b 05 a0 af 00 00 	mov    0xafa0(%rip),%rax        # 18278 <g_342+0x8>
    d2d8:	48 83 f8 02          	cmp    $0x2,%rax
    d2dc:	76 87                	jbe    d265 <func_1+0x5ab0>
    d2de:	eb 01                	jmp    d2e1 <func_1+0x5b2c>
    d2e0:	90                   	nop
    d2e1:	0f b6 05 ea ae 00 00 	movzbl 0xaeea(%rip),%eax        # 181d2 <g_141>
    d2e8:	83 e8 01             	sub    $0x1,%eax
    d2eb:	88 05 e1 ae 00 00    	mov    %al,0xaee1(%rip)        # 181d2 <g_141>
    d2f1:	0f b6 05 da ae 00 00 	movzbl 0xaeda(%rip),%eax        # 181d2 <g_141>
    d2f8:	84 c0                	test   %al,%al
    d2fa:	0f 89 6c ee ff ff    	jns    c16c <func_1+0x49b7>
    d300:	48 8b 8d 08 d7 ff ff 	mov    -0x28f8(%rbp),%rcx
    d307:	48 8b 05 92 be 00 00 	mov    0xbe92(%rip),%rax        # 191a0 <g_1347>
    d30e:	48 8b 15 93 be 00 00 	mov    0xbe93(%rip),%rdx        # 191a8 <g_1347+0x8>
    d315:	48 89 01             	mov    %rax,(%rcx)
    d318:	48 89 51 08          	mov    %rdx,0x8(%rcx)
    d31c:	48 8b 05 8d be 00 00 	mov    0xbe8d(%rip),%rax        # 191b0 <g_1347+0x10>
    d323:	48 89 41 10          	mov    %rax,0x10(%rcx)
    d327:	e9 13 04 00 00       	jmpq   d73f <func_1+0x5f8a>
    d32c:	c7 85 5c d6 ff ff 81 	movl   $0xf4a8ca81,-0x29a4(%rbp)
    d333:	ca a8 f4 
    d336:	48 8d 85 28 d7 ff ff 	lea    -0x28d8(%rbp),%rax
    d33d:	48 89 85 00 db ff ff 	mov    %rax,-0x2500(%rbp)
    d344:	48 8d 85 28 d7 ff ff 	lea    -0x28d8(%rbp),%rax
    d34b:	48 89 85 08 db ff ff 	mov    %rax,-0x24f8(%rbp)
    d352:	48 8d 05 47 e0 00 00 	lea    0xe047(%rip),%rax        # 1b3a0 <g_1342>
    d359:	48 89 85 10 db ff ff 	mov    %rax,-0x24f0(%rbp)
    d360:	48 8d 85 28 d7 ff ff 	lea    -0x28d8(%rbp),%rax
    d367:	48 89 85 18 db ff ff 	mov    %rax,-0x24e8(%rbp)
    d36e:	48 8d 85 28 d7 ff ff 	lea    -0x28d8(%rbp),%rax
    d375:	48 89 85 20 db ff ff 	mov    %rax,-0x24e0(%rbp)
    d37c:	48 8d 05 1d e0 00 00 	lea    0xe01d(%rip),%rax        # 1b3a0 <g_1342>
    d383:	48 89 85 28 db ff ff 	mov    %rax,-0x24d8(%rbp)
    d38a:	48 8d 85 00 db ff ff 	lea    -0x2500(%rbp),%rax
    d391:	48 89 85 50 f0 ff ff 	mov    %rax,-0xfb0(%rbp)
    d398:	48 8d 85 00 db ff ff 	lea    -0x2500(%rbp),%rax
    d39f:	48 89 85 58 f0 ff ff 	mov    %rax,-0xfa8(%rbp)
    d3a6:	48 8d 85 00 db ff ff 	lea    -0x2500(%rbp),%rax
    d3ad:	48 89 85 60 f0 ff ff 	mov    %rax,-0xfa0(%rbp)
    d3b4:	48 8d 85 00 db ff ff 	lea    -0x2500(%rbp),%rax
    d3bb:	48 89 85 68 f0 ff ff 	mov    %rax,-0xf98(%rbp)
    d3c2:	48 8d 85 00 db ff ff 	lea    -0x2500(%rbp),%rax
    d3c9:	48 89 85 70 f0 ff ff 	mov    %rax,-0xf90(%rbp)
    d3d0:	48 8d 85 00 db ff ff 	lea    -0x2500(%rbp),%rax
    d3d7:	48 89 85 78 f0 ff ff 	mov    %rax,-0xf88(%rbp)
    d3de:	48 8d 85 00 db ff ff 	lea    -0x2500(%rbp),%rax
    d3e5:	48 89 85 80 f0 ff ff 	mov    %rax,-0xf80(%rbp)
    d3ec:	48 8d 85 00 db ff ff 	lea    -0x2500(%rbp),%rax
    d3f3:	48 89 85 88 f0 ff ff 	mov    %rax,-0xf78(%rbp)
    d3fa:	48 8d 85 00 db ff ff 	lea    -0x2500(%rbp),%rax
    d401:	48 89 85 90 f0 ff ff 	mov    %rax,-0xf70(%rbp)
    d408:	48 8d 85 00 db ff ff 	lea    -0x2500(%rbp),%rax
    d40f:	48 89 85 98 f0 ff ff 	mov    %rax,-0xf68(%rbp)
    d416:	48 8d 85 00 db ff ff 	lea    -0x2500(%rbp),%rax
    d41d:	48 89 85 a0 f0 ff ff 	mov    %rax,-0xf60(%rbp)
    d424:	48 8d 85 00 db ff ff 	lea    -0x2500(%rbp),%rax
    d42b:	48 89 85 a8 f0 ff ff 	mov    %rax,-0xf58(%rbp)
    d432:	48 8d 85 d4 d5 ff ff 	lea    -0x2a2c(%rbp),%rax
    d439:	48 89 85 f8 d7 ff ff 	mov    %rax,-0x2808(%rbp)
    d440:	c7 85 60 d6 ff ff 45 	movl   $0x873c3c45,-0x29a0(%rbp)
    d447:	3c 3c 87 
    d44a:	c6 05 79 ad 00 00 00 	movb   $0x0,0xad79(%rip)        # 181ca <g_95>
    d451:	e9 ad 02 00 00       	jmpq   d703 <func_1+0x5f4e>
    d456:	48 8d 05 4b df 00 00 	lea    0xdf4b(%rip),%rax        # 1b3a8 <g_1361>
    d45d:	48 89 85 00 d8 ff ff 	mov    %rax,-0x2800(%rbp)
    d464:	48 8d 85 50 f0 ff ff 	lea    -0xfb0(%rbp),%rax
    d46b:	48 89 85 08 d8 ff ff 	mov    %rax,-0x27f8(%rbp)
    d472:	48 8d 05 27 af 00 00 	lea    0xaf27(%rip),%rax        # 183a0 <g_728+0x20>
    d479:	48 89 85 10 d8 ff ff 	mov    %rax,-0x27f0(%rbp)
    d480:	c7 85 a0 d9 ff ff 00 	movl   $0x0,-0x2660(%rbp)
    d487:	00 00 00 
    d48a:	c7 85 a4 d9 ff ff 00 	movl   $0x0,-0x265c(%rbp)
    d491:	00 00 00 
    d494:	c7 85 a8 d9 ff ff 00 	movl   $0x0,-0x2658(%rbp)
    d49b:	00 00 00 
    d49e:	c7 85 ac d9 ff ff 00 	movl   $0x0,-0x2654(%rbp)
    d4a5:	00 00 00 
    d4a8:	48 c7 85 18 d8 ff ff 	movq   $0x0,-0x27e8(%rbp)
    d4af:	00 00 00 00 
    d4b3:	48 8d 85 18 d7 ff ff 	lea    -0x28e8(%rbp),%rax
    d4ba:	48 89 85 20 d8 ff ff 	mov    %rax,-0x27e0(%rbp)
    d4c1:	be 01 00 00 00       	mov    $0x1,%esi
    d4c6:	bf 43 60 00 00       	mov    $0x6043,%edi
    d4cb:	e8 c2 8f ff ff       	callq  6492 <safe_lshift_func_int16_t_s_s>
    d4d0:	0f bf d0             	movswl %ax,%edx
    d4d3:	48 8b 85 d0 d7 ff ff 	mov    -0x2830(%rbp),%rax
    d4da:	89 10                	mov    %edx,(%rax)
    d4dc:	48 8b 85 d0 d7 ff ff 	mov    -0x2830(%rbp),%rax
    d4e3:	44 8b 28             	mov    (%rax),%r13d
    d4e6:	0f b7 05 b1 ae 00 00 	movzwl 0xaeb1(%rip),%eax        # 1839e <g_728+0x1e>
    d4ed:	0f b6 d8             	movzbl %al,%ebx
    d4f0:	8b 85 5c d6 ff ff    	mov    -0x29a4(%rbp),%eax
    d4f6:	0f be c0             	movsbl %al,%eax
    d4f9:	89 c6                	mov    %eax,%esi
    d4fb:	bf 00 00 00 00       	mov    $0x0,%edi
    d500:	e8 2c 8d ff ff       	callq  6231 <safe_mod_func_int8_t_s_s>
    d505:	4c 0f be f0          	movsbq %al,%r14
    d509:	0f b7 05 66 ad 00 00 	movzwl 0xad66(%rip),%eax        # 18276 <g_342+0x6>
    d510:	44 0f b7 e0          	movzwl %ax,%r12d
    d514:	48 8b 85 10 d7 ff ff 	mov    -0x28f0(%rbp),%rax
    d51b:	44 8b 38             	mov    (%rax),%r15d
    d51e:	48 8b 85 10 d7 ff ff 	mov    -0x28f0(%rbp),%rax
    d525:	8b 00                	mov    (%rax),%eax
    d527:	85 c0                	test   %eax,%eax
    d529:	75 61                	jne    d58c <func_1+0x5dd7>
    d52b:	48 8b 05 66 de 00 00 	mov    0xde66(%rip),%rax        # 1b398 <g_1091>
    d532:	48 8b 85 10 d8 ff ff 	mov    -0x27f0(%rbp),%rax
    d539:	48 c7 00 05 00 00 00 	movq   $0x5,(%rax)
    d540:	48 8b 85 10 d8 ff ff 	mov    -0x27f0(%rbp),%rax
    d547:	48 8b 00             	mov    (%rax),%rax
    d54a:	be 00 00 00 00       	mov    $0x0,%esi
    d54f:	48 89 c7             	mov    %rax,%rdi
    d552:	e8 d7 9a ff ff       	callq  702e <safe_add_func_uint64_t_u_u>
    d557:	48 8d 15 42 de 00 00 	lea    0xde42(%rip),%rdx        # 1b3a0 <g_1342>
    d55e:	48 8b 12             	mov    (%rdx),%rdx
    d561:	0f b7 12             	movzwl (%rdx),%edx
    d564:	89 c1                	mov    %eax,%ecx
    d566:	48 8d 05 33 de 00 00 	lea    0xde33(%rip),%rax        # 1b3a0 <g_1342>
    d56d:	48 8b 00             	mov    (%rax),%rax
    d570:	21 ca                	and    %ecx,%edx
    d572:	66 89 10             	mov    %dx,(%rax)
    d575:	0f b7 00             	movzwl (%rax),%eax
    d578:	0f b7 c0             	movzwl %ax,%eax
    d57b:	be 92 89 00 00       	mov    $0x8992,%esi
    d580:	89 c7                	mov    %eax,%edi
    d582:	e8 b6 97 ff ff       	callq  6d3d <safe_mul_func_uint16_t_u_u>
    d587:	66 85 c0             	test   %ax,%ax
    d58a:	74 07                	je     d593 <func_1+0x5dde>
    d58c:	b8 01 00 00 00       	mov    $0x1,%eax
    d591:	eb 05                	jmp    d598 <func_1+0x5de3>
    d593:	b8 00 00 00 00       	mov    $0x0,%eax
    d598:	0f bf d0             	movswl %ax,%edx
    d59b:	48 8b 0d 06 de 00 00 	mov    0xde06(%rip),%rcx        # 1b3a8 <g_1361>
    d5a2:	48 8b 85 00 d8 ff ff 	mov    -0x2800(%rbp),%rax
    d5a9:	48 89 08             	mov    %rcx,(%rax)
    d5ac:	48 8b 85 00 d8 ff ff 	mov    -0x2800(%rbp),%rax
    d5b3:	48 8b 30             	mov    (%rax),%rsi
    d5b6:	48 8b 8d a8 f0 ff ff 	mov    -0xf58(%rbp),%rcx
    d5bd:	48 8b 85 08 d8 ff ff 	mov    -0x27f8(%rbp),%rax
    d5c4:	48 89 08             	mov    %rcx,(%rax)
    d5c7:	48 8b 85 08 d8 ff ff 	mov    -0x27f8(%rbp),%rax
    d5ce:	48 8b 00             	mov    (%rax),%rax
    d5d1:	48 39 c6             	cmp    %rax,%rsi
    d5d4:	0f 94 c0             	sete   %al
    d5d7:	0f b6 c8             	movzbl %al,%ecx
    d5da:	8b 85 d8 d9 ff ff    	mov    -0x2628(%rbp),%eax
    d5e0:	31 c8                	xor    %ecx,%eax
    d5e2:	89 85 d8 d9 ff ff    	mov    %eax,-0x2628(%rbp)
    d5e8:	8b 85 d8 d9 ff ff    	mov    -0x2628(%rbp),%eax
    d5ee:	98                   	cwtl   
    d5ef:	89 d6                	mov    %edx,%esi
    d5f1:	89 c7                	mov    %eax,%edi
    d5f3:	e8 1e 8e ff ff       	callq  6416 <safe_mod_func_int16_t_s_s>
    d5f8:	0f bf d0             	movswl %ax,%edx
    d5fb:	8b 85 a8 d9 ff ff    	mov    -0x2658(%rbp),%eax
    d601:	39 c2                	cmp    %eax,%edx
    d603:	8b 85 a0 d9 ff ff    	mov    -0x2660(%rbp),%eax
    d609:	83 f0 08             	xor    $0x8,%eax
    d60c:	89 c2                	mov    %eax,%edx
    d60e:	48 8b 05 cb dc 00 00 	mov    0xdccb(%rip),%rax        # 1b2e0 <g_798>
    d615:	48 8b 00             	mov    (%rax),%rax
    d618:	48 8b 00             	mov    (%rax),%rax
    d61b:	0f b7 00             	movzwl (%rax),%eax
    d61e:	98                   	cwtl   
    d61f:	39 c2                	cmp    %eax,%edx
    d621:	74 07                	je     d62a <func_1+0x5e75>
    d623:	b8 01 00 00 00       	mov    $0x1,%eax
    d628:	eb 05                	jmp    d62f <func_1+0x5e7a>
    d62a:	b8 00 00 00 00       	mov    $0x0,%eax
    d62f:	44 09 f8             	or     %r15d,%eax
    d632:	3d f9 00 00 00       	cmp    $0xf9,%eax
    d637:	0f 96 c0             	setbe  %al
    d63a:	0f b6 d0             	movzbl %al,%edx
    d63d:	48 8b 05 34 ac 00 00 	mov    0xac34(%rip),%rax        # 18278 <g_342+0x8>
    d644:	48 39 c2             	cmp    %rax,%rdx
    d647:	0f 94 c0             	sete   %al
    d64a:	0f b6 c0             	movzbl %al,%eax
    d64d:	48 89 05 a4 ac 00 00 	mov    %rax,0xaca4(%rip)        # 182f8 <g_502+0x8>
    d654:	48 8b 05 9d ac 00 00 	mov    0xac9d(%rip),%rax        # 182f8 <g_502+0x8>
    d65b:	4c 89 e6             	mov    %r12,%rsi
    d65e:	48 89 c7             	mov    %rax,%rdi
    d661:	e8 e5 99 ff ff       	callq  704b <safe_sub_func_uint64_t_u_u>
    d666:	49 39 c6             	cmp    %rax,%r14
    d669:	0f 92 c0             	setb   %al
    d66c:	0f b6 c0             	movzbl %al,%eax
    d66f:	89 de                	mov    %ebx,%esi
    d671:	89 c7                	mov    %eax,%edi
    d673:	e8 1b 95 ff ff       	callq  6b93 <safe_mul_func_uint8_t_u_u>
    d678:	0f b6 d0             	movzbl %al,%edx
    d67b:	48 8b 85 10 d7 ff ff 	mov    -0x28f0(%rbp),%rax
    d682:	8b 00                	mov    (%rax),%eax
    d684:	09 d0                	or     %edx,%eax
    d686:	41 39 c5             	cmp    %eax,%r13d
    d689:	0f 94 c0             	sete   %al
    d68c:	0f b6 d0             	movzbl %al,%edx
    d68f:	8b 85 a8 d9 ff ff    	mov    -0x2658(%rbp),%eax
    d695:	39 c2                	cmp    %eax,%edx
    d697:	0f 94 c0             	sete   %al
    d69a:	0f b6 d0             	movzbl %al,%edx
    d69d:	0f b6 05 b4 ac 00 00 	movzbl 0xacb4(%rip),%eax        # 18358 <g_690>
    d6a4:	0f b6 c0             	movzbl %al,%eax
    d6a7:	39 c2                	cmp    %eax,%edx
    d6a9:	0f 9d c0             	setge  %al
    d6ac:	0f b6 d0             	movzbl %al,%edx
    d6af:	48 8b 85 28 d7 ff ff 	mov    -0x28d8(%rbp),%rax
    d6b6:	0f b7 00             	movzwl (%rax),%eax
    d6b9:	89 c1                	mov    %eax,%ecx
    d6bb:	89 d0                	mov    %edx,%eax
    d6bd:	21 c1                	and    %eax,%ecx
    d6bf:	89 ca                	mov    %ecx,%edx
    d6c1:	48 8b 85 28 d7 ff ff 	mov    -0x28d8(%rbp),%rax
    d6c8:	66 89 10             	mov    %dx,(%rax)
    d6cb:	0f b7 00             	movzwl (%rax),%eax
    d6ce:	0f b7 d0             	movzwl %ax,%edx
    d6d1:	8b 85 a8 d9 ff ff    	mov    -0x2658(%rbp),%eax
    d6d7:	21 c2                	and    %eax,%edx
    d6d9:	48 8b 85 c8 d7 ff ff 	mov    -0x2838(%rbp),%rax
    d6e0:	89 10                	mov    %edx,(%rax)
    d6e2:	48 8b 85 20 d8 ff ff 	mov    -0x27e0(%rbp),%rax
    d6e9:	48 8b 95 f8 d7 ff ff 	mov    -0x2808(%rbp),%rdx
    d6f0:	48 89 10             	mov    %rdx,(%rax)
    d6f3:	0f b6 05 d0 aa 00 00 	movzbl 0xaad0(%rip),%eax        # 181ca <g_95>
    d6fa:	83 c0 01             	add    $0x1,%eax
    d6fd:	88 05 c7 aa 00 00    	mov    %al,0xaac7(%rip)        # 181ca <g_95>
    d703:	0f b6 05 c0 aa 00 00 	movzbl 0xaac0(%rip),%eax        # 181ca <g_95>
    d70a:	3c 21                	cmp    $0x21,%al
    d70c:	0f 85 44 fd ff ff    	jne    d456 <func_1+0x5ca1>
    d712:	c7 85 30 d6 ff ff 03 	movl   $0x3,-0x29d0(%rbp)
    d719:	00 00 00 
    d71c:	83 bd 30 d6 ff ff e5 	cmpl   $0xffffffe5,-0x29d0(%rbp)
    d723:	75 0f                	jne    d734 <func_1+0x5f7f>
    d725:	48 8b 05 94 d9 00 00 	mov    0xd994(%rip),%rax        # 1b0c0 <g_168>
    d72c:	0f b7 00             	movzwl (%rax),%eax
    d72f:	e9 83 13 00 00       	jmpq   eab7 <func_1+0x7302>
    d734:	8b 85 60 d6 ff ff    	mov    -0x29a0(%rbp),%eax
    d73a:	e9 78 13 00 00       	jmpq   eab7 <func_1+0x7302>
    d73f:	48 8b 05 82 d9 00 00 	mov    0xd982(%rip),%rax        # 1b0c8 <g_213>
    d746:	48 8b 95 90 d7 ff ff 	mov    -0x2870(%rbp),%rdx
    d74d:	48 89 10             	mov    %rdx,(%rax)
    d750:	66 c7 05 57 ba 00 00 	movw   $0x0,0xba57(%rip)        # 191b0 <g_1347+0x10>
    d757:	00 00 
    d759:	e9 3e 13 00 00       	jmpq   ea9c <func_1+0x72e7>
    d75e:	c6 85 85 d5 ff ff 57 	movb   $0x57,-0x2a7b(%rbp)
    d765:	48 8d 85 00 da ff ff 	lea    -0x2600(%rbp),%rax
    d76c:	48 83 c0 0c          	add    $0xc,%rax
    d770:	48 89 85 18 d9 ff ff 	mov    %rax,-0x26e8(%rbp)
    d777:	48 8d 85 52 d9 ff ff 	lea    -0x26ae(%rbp),%rax
    d77e:	48 89 85 50 f0 ff ff 	mov    %rax,-0xfb0(%rbp)
    d785:	48 8d 85 88 d5 ff ff 	lea    -0x2a78(%rbp),%rax
    d78c:	48 89 85 58 f0 ff ff 	mov    %rax,-0xfa8(%rbp)
    d793:	48 8d 05 36 69 00 00 	lea    0x6936(%rip),%rax        # 140d0 <g_1017+0x10>
    d79a:	48 89 85 60 f0 ff ff 	mov    %rax,-0xfa0(%rbp)
    d7a1:	48 8d 05 28 69 00 00 	lea    0x6928(%rip),%rax        # 140d0 <g_1017+0x10>
    d7a8:	48 89 85 68 f0 ff ff 	mov    %rax,-0xf98(%rbp)
    d7af:	48 8d 85 88 d5 ff ff 	lea    -0x2a78(%rbp),%rax
    d7b6:	48 89 85 70 f0 ff ff 	mov    %rax,-0xf90(%rbp)
    d7bd:	48 8d 85 52 d9 ff ff 	lea    -0x26ae(%rbp),%rax
    d7c4:	48 89 85 78 f0 ff ff 	mov    %rax,-0xf88(%rbp)
    d7cb:	48 8d 05 94 68 00 00 	lea    0x6894(%rip),%rax        # 14066 <g_693+0x6>
    d7d2:	48 89 85 80 f0 ff ff 	mov    %rax,-0xf80(%rbp)
    d7d9:	48 c7 85 88 f0 ff ff 	movq   $0x0,-0xf78(%rbp)
    d7e0:	00 00 00 00 
    d7e4:	48 c7 85 90 f0 ff ff 	movq   $0x0,-0xf70(%rbp)
    d7eb:	00 00 00 00 
    d7ef:	48 c7 85 98 f0 ff ff 	movq   $0x0,-0xf68(%rbp)
    d7f6:	00 00 00 00 
    d7fa:	48 8d 85 88 d5 ff ff 	lea    -0x2a78(%rbp),%rax
    d801:	48 89 85 a0 f0 ff ff 	mov    %rax,-0xf60(%rbp)
    d808:	48 8d 05 67 aa 00 00 	lea    0xaa67(%rip),%rax        # 18276 <g_342+0x6>
    d80f:	48 89 85 a8 f0 ff ff 	mov    %rax,-0xf58(%rbp)
    d816:	48 8d 05 b3 68 00 00 	lea    0x68b3(%rip),%rax        # 140d0 <g_1017+0x10>
    d81d:	48 89 85 b0 f0 ff ff 	mov    %rax,-0xf50(%rbp)
    d824:	48 c7 85 b8 f0 ff ff 	movq   $0x0,-0xf48(%rbp)
    d82b:	00 00 00 00 
    d82f:	48 8d 85 52 d9 ff ff 	lea    -0x26ae(%rbp),%rax
    d836:	48 89 85 c0 f0 ff ff 	mov    %rax,-0xf40(%rbp)
    d83d:	48 c7 85 c8 f0 ff ff 	movq   $0x0,-0xf38(%rbp)
    d844:	00 00 00 00 
    d848:	48 c7 85 d0 f0 ff ff 	movq   $0x0,-0xf30(%rbp)
    d84f:	00 00 00 00 
    d853:	48 8d 85 52 d9 ff ff 	lea    -0x26ae(%rbp),%rax
    d85a:	48 89 85 d8 f0 ff ff 	mov    %rax,-0xf28(%rbp)
    d861:	48 c7 85 e0 f0 ff ff 	movq   $0x0,-0xf20(%rbp)
    d868:	00 00 00 00 
    d86c:	48 8d 05 5d 68 00 00 	lea    0x685d(%rip),%rax        # 140d0 <g_1017+0x10>
    d873:	48 89 85 e8 f0 ff ff 	mov    %rax,-0xf18(%rbp)
    d87a:	48 8d 85 88 d5 ff ff 	lea    -0x2a78(%rbp),%rax
    d881:	48 89 85 f0 f0 ff ff 	mov    %rax,-0xf10(%rbp)
    d888:	48 8d 85 88 d5 ff ff 	lea    -0x2a78(%rbp),%rax
    d88f:	48 89 85 f8 f0 ff ff 	mov    %rax,-0xf08(%rbp)
    d896:	48 c7 85 00 f1 ff ff 	movq   $0x0,-0xf00(%rbp)
    d89d:	00 00 00 00 
    d8a1:	48 8d 05 ce a9 00 00 	lea    0xa9ce(%rip),%rax        # 18276 <g_342+0x6>
    d8a8:	48 89 85 08 f1 ff ff 	mov    %rax,-0xef8(%rbp)
    d8af:	48 c7 85 10 f1 ff ff 	movq   $0x0,-0xef0(%rbp)
    d8b6:	00 00 00 00 
    d8ba:	48 8d 85 52 d9 ff ff 	lea    -0x26ae(%rbp),%rax
    d8c1:	48 89 85 18 f1 ff ff 	mov    %rax,-0xee8(%rbp)
    d8c8:	48 8d 05 01 68 00 00 	lea    0x6801(%rip),%rax        # 140d0 <g_1017+0x10>
    d8cf:	48 89 85 20 f1 ff ff 	mov    %rax,-0xee0(%rbp)
    d8d6:	48 8d 05 89 67 00 00 	lea    0x6789(%rip),%rax        # 14066 <g_693+0x6>
    d8dd:	48 89 85 28 f1 ff ff 	mov    %rax,-0xed8(%rbp)
    d8e4:	48 c7 85 30 f1 ff ff 	movq   $0x0,-0xed0(%rbp)
    d8eb:	00 00 00 00 
    d8ef:	48 c7 85 38 f1 ff ff 	movq   $0x0,-0xec8(%rbp)
    d8f6:	00 00 00 00 
    d8fa:	48 8d 85 52 d9 ff ff 	lea    -0x26ae(%rbp),%rax
    d901:	48 89 85 40 f1 ff ff 	mov    %rax,-0xec0(%rbp)
    d908:	48 8d 05 c1 67 00 00 	lea    0x67c1(%rip),%rax        # 140d0 <g_1017+0x10>
    d90f:	48 89 85 48 f1 ff ff 	mov    %rax,-0xeb8(%rbp)
    d916:	48 8d 05 49 67 00 00 	lea    0x6749(%rip),%rax        # 14066 <g_693+0x6>
    d91d:	48 89 85 50 f1 ff ff 	mov    %rax,-0xeb0(%rbp)
    d924:	48 c7 85 58 f1 ff ff 	movq   $0x0,-0xea8(%rbp)
    d92b:	00 00 00 00 
    d92f:	48 c7 85 60 f1 ff ff 	movq   $0x0,-0xea0(%rbp)
    d936:	00 00 00 00 
    d93a:	48 8d 05 25 67 00 00 	lea    0x6725(%rip),%rax        # 14066 <g_693+0x6>
    d941:	48 89 85 68 f1 ff ff 	mov    %rax,-0xe98(%rbp)
    d948:	48 8d 05 81 67 00 00 	lea    0x6781(%rip),%rax        # 140d0 <g_1017+0x10>
    d94f:	48 89 85 70 f1 ff ff 	mov    %rax,-0xe90(%rbp)
    d956:	48 8d 85 52 d9 ff ff 	lea    -0x26ae(%rbp),%rax
    d95d:	48 89 85 78 f1 ff ff 	mov    %rax,-0xe88(%rbp)
    d964:	48 c7 85 80 f1 ff ff 	movq   $0x0,-0xe80(%rbp)
    d96b:	00 00 00 00 
    d96f:	48 8d 05 00 a9 00 00 	lea    0xa900(%rip),%rax        # 18276 <g_342+0x6>
    d976:	48 89 85 88 f1 ff ff 	mov    %rax,-0xe78(%rbp)
    d97d:	48 c7 85 90 f1 ff ff 	movq   $0x0,-0xe70(%rbp)
    d984:	00 00 00 00 
    d988:	48 8d 85 88 d5 ff ff 	lea    -0x2a78(%rbp),%rax
    d98f:	48 89 85 98 f1 ff ff 	mov    %rax,-0xe68(%rbp)
    d996:	48 8d 05 d9 a8 00 00 	lea    0xa8d9(%rip),%rax        # 18276 <g_342+0x6>
    d99d:	48 89 85 a0 f1 ff ff 	mov    %rax,-0xe60(%rbp)
    d9a4:	48 8d 05 25 67 00 00 	lea    0x6725(%rip),%rax        # 140d0 <g_1017+0x10>
    d9ab:	48 89 85 a8 f1 ff ff 	mov    %rax,-0xe58(%rbp)
    d9b2:	48 c7 85 b0 f1 ff ff 	movq   $0x0,-0xe50(%rbp)
    d9b9:	00 00 00 00 
    d9bd:	48 8d 85 52 d9 ff ff 	lea    -0x26ae(%rbp),%rax
    d9c4:	48 89 85 b8 f1 ff ff 	mov    %rax,-0xe48(%rbp)
    d9cb:	48 c7 85 c0 f1 ff ff 	movq   $0x0,-0xe40(%rbp)
    d9d2:	00 00 00 00 
    d9d6:	48 c7 85 c8 f1 ff ff 	movq   $0x0,-0xe38(%rbp)
    d9dd:	00 00 00 00 
    d9e1:	48 8d 85 52 d9 ff ff 	lea    -0x26ae(%rbp),%rax
    d9e8:	48 89 85 d0 f1 ff ff 	mov    %rax,-0xe30(%rbp)
    d9ef:	48 c7 85 d8 f1 ff ff 	movq   $0x0,-0xe28(%rbp)
    d9f6:	00 00 00 00 
    d9fa:	48 c7 85 e0 f1 ff ff 	movq   $0x0,-0xe20(%rbp)
    da01:	00 00 00 00 
    da05:	48 8d 05 6a a8 00 00 	lea    0xa86a(%rip),%rax        # 18276 <g_342+0x6>
    da0c:	48 89 85 e8 f1 ff ff 	mov    %rax,-0xe18(%rbp)
    da13:	48 8d 05 5c a8 00 00 	lea    0xa85c(%rip),%rax        # 18276 <g_342+0x6>
    da1a:	48 89 85 f0 f1 ff ff 	mov    %rax,-0xe10(%rbp)
    da21:	48 c7 85 f8 f1 ff ff 	movq   $0x0,-0xe08(%rbp)
    da28:	00 00 00 00 
    da2c:	48 c7 85 00 f2 ff ff 	movq   $0x0,-0xe00(%rbp)
    da33:	00 00 00 00 
    da37:	48 c7 85 08 f2 ff ff 	movq   $0x0,-0xdf8(%rbp)
    da3e:	00 00 00 00 
    da42:	48 8d 05 1d 66 00 00 	lea    0x661d(%rip),%rax        # 14066 <g_693+0x6>
    da49:	48 89 85 10 f2 ff ff 	mov    %rax,-0xdf0(%rbp)
    da50:	48 8d 85 52 d9 ff ff 	lea    -0x26ae(%rbp),%rax
    da57:	48 89 85 18 f2 ff ff 	mov    %rax,-0xde8(%rbp)
    da5e:	48 8d 85 88 d5 ff ff 	lea    -0x2a78(%rbp),%rax
    da65:	48 89 85 20 f2 ff ff 	mov    %rax,-0xde0(%rbp)
    da6c:	48 8d 05 5d 66 00 00 	lea    0x665d(%rip),%rax        # 140d0 <g_1017+0x10>
    da73:	48 89 85 28 f2 ff ff 	mov    %rax,-0xdd8(%rbp)
    da7a:	48 c7 85 30 f2 ff ff 	movq   $0x0,-0xdd0(%rbp)
    da81:	00 00 00 00 
    da85:	48 8d 85 88 d5 ff ff 	lea    -0x2a78(%rbp),%rax
    da8c:	48 89 85 38 f2 ff ff 	mov    %rax,-0xdc8(%rbp)
    da93:	48 8d 05 cc 65 00 00 	lea    0x65cc(%rip),%rax        # 14066 <g_693+0x6>
    da9a:	48 89 85 40 f2 ff ff 	mov    %rax,-0xdc0(%rbp)
    daa1:	48 8d 05 ce a7 00 00 	lea    0xa7ce(%rip),%rax        # 18276 <g_342+0x6>
    daa8:	48 89 85 48 f2 ff ff 	mov    %rax,-0xdb8(%rbp)
    daaf:	48 8d 85 52 d9 ff ff 	lea    -0x26ae(%rbp),%rax
    dab6:	48 89 85 50 f2 ff ff 	mov    %rax,-0xdb0(%rbp)
    dabd:	48 8d 85 52 d9 ff ff 	lea    -0x26ae(%rbp),%rax
    dac4:	48 89 85 58 f2 ff ff 	mov    %rax,-0xda8(%rbp)
    dacb:	48 8d 05 a4 a7 00 00 	lea    0xa7a4(%rip),%rax        # 18276 <g_342+0x6>
    dad2:	48 89 85 60 f2 ff ff 	mov    %rax,-0xda0(%rbp)
    dad9:	48 8d 05 86 65 00 00 	lea    0x6586(%rip),%rax        # 14066 <g_693+0x6>
    dae0:	48 89 85 68 f2 ff ff 	mov    %rax,-0xd98(%rbp)
    dae7:	48 8d 85 88 d5 ff ff 	lea    -0x2a78(%rbp),%rax
    daee:	48 89 85 70 f2 ff ff 	mov    %rax,-0xd90(%rbp)
    daf5:	48 c7 85 78 f2 ff ff 	movq   $0x0,-0xd88(%rbp)
    dafc:	00 00 00 00 
    db00:	48 c7 85 80 f2 ff ff 	movq   $0x0,-0xd80(%rbp)
    db07:	00 00 00 00 
    db0b:	48 8d 05 be 65 00 00 	lea    0x65be(%rip),%rax        # 140d0 <g_1017+0x10>
    db12:	48 89 85 88 f2 ff ff 	mov    %rax,-0xd78(%rbp)
    db19:	48 c7 85 90 f2 ff ff 	movq   $0x0,-0xd70(%rbp)
    db20:	00 00 00 00 
    db24:	48 c7 85 98 f2 ff ff 	movq   $0x0,-0xd68(%rbp)
    db2b:	00 00 00 00 
    db2f:	48 8d 85 88 d5 ff ff 	lea    -0x2a78(%rbp),%rax
    db36:	48 89 85 a0 f2 ff ff 	mov    %rax,-0xd60(%rbp)
    db3d:	48 8d 05 22 65 00 00 	lea    0x6522(%rip),%rax        # 14066 <g_693+0x6>
    db44:	48 89 85 a8 f2 ff ff 	mov    %rax,-0xd58(%rbp)
    db4b:	48 8d 05 24 a7 00 00 	lea    0xa724(%rip),%rax        # 18276 <g_342+0x6>
    db52:	48 89 85 b0 f2 ff ff 	mov    %rax,-0xd50(%rbp)
    db59:	48 8d 85 52 d9 ff ff 	lea    -0x26ae(%rbp),%rax
    db60:	48 89 85 b8 f2 ff ff 	mov    %rax,-0xd48(%rbp)
    db67:	48 8d 85 52 d9 ff ff 	lea    -0x26ae(%rbp),%rax
    db6e:	48 89 85 c0 f2 ff ff 	mov    %rax,-0xd40(%rbp)
    db75:	48 8d 05 fa a6 00 00 	lea    0xa6fa(%rip),%rax        # 18276 <g_342+0x6>
    db7c:	48 89 85 c8 f2 ff ff 	mov    %rax,-0xd38(%rbp)
    db83:	48 8d 85 52 d9 ff ff 	lea    -0x26ae(%rbp),%rax
    db8a:	48 89 85 d0 f2 ff ff 	mov    %rax,-0xd30(%rbp)
    db91:	48 8d 85 88 d5 ff ff 	lea    -0x2a78(%rbp),%rax
    db98:	48 89 85 d8 f2 ff ff 	mov    %rax,-0xd28(%rbp)
    db9f:	48 8d 05 2a 65 00 00 	lea    0x652a(%rip),%rax        # 140d0 <g_1017+0x10>
    dba6:	48 89 85 e0 f2 ff ff 	mov    %rax,-0xd20(%rbp)
    dbad:	48 8d 05 1c 65 00 00 	lea    0x651c(%rip),%rax        # 140d0 <g_1017+0x10>
    dbb4:	48 89 85 e8 f2 ff ff 	mov    %rax,-0xd18(%rbp)
    dbbb:	48 8d 85 88 d5 ff ff 	lea    -0x2a78(%rbp),%rax
    dbc2:	48 89 85 f0 f2 ff ff 	mov    %rax,-0xd10(%rbp)
    dbc9:	48 8d 85 52 d9 ff ff 	lea    -0x26ae(%rbp),%rax
    dbd0:	48 89 85 f8 f2 ff ff 	mov    %rax,-0xd08(%rbp)
    dbd7:	48 8d 05 88 64 00 00 	lea    0x6488(%rip),%rax        # 14066 <g_693+0x6>
    dbde:	48 89 85 00 f3 ff ff 	mov    %rax,-0xd00(%rbp)
    dbe5:	48 c7 85 08 f3 ff ff 	movq   $0x0,-0xcf8(%rbp)
    dbec:	00 00 00 00 
    dbf0:	48 c7 85 10 f3 ff ff 	movq   $0x0,-0xcf0(%rbp)
    dbf7:	00 00 00 00 
    dbfb:	48 c7 85 18 f3 ff ff 	movq   $0x0,-0xce8(%rbp)
    dc02:	00 00 00 00 
    dc06:	48 8d 85 88 d5 ff ff 	lea    -0x2a78(%rbp),%rax
    dc0d:	48 89 85 20 f3 ff ff 	mov    %rax,-0xce0(%rbp)
    dc14:	48 8d 05 5b a6 00 00 	lea    0xa65b(%rip),%rax        # 18276 <g_342+0x6>
    dc1b:	48 89 85 28 f3 ff ff 	mov    %rax,-0xcd8(%rbp)
    dc22:	48 8d 05 a7 64 00 00 	lea    0x64a7(%rip),%rax        # 140d0 <g_1017+0x10>
    dc29:	48 89 85 30 f3 ff ff 	mov    %rax,-0xcd0(%rbp)
    dc30:	48 c7 85 38 f3 ff ff 	movq   $0x0,-0xcc8(%rbp)
    dc37:	00 00 00 00 
    dc3b:	48 8d 85 52 d9 ff ff 	lea    -0x26ae(%rbp),%rax
    dc42:	48 89 85 40 f3 ff ff 	mov    %rax,-0xcc0(%rbp)
    dc49:	48 c7 85 48 f3 ff ff 	movq   $0x0,-0xcb8(%rbp)
    dc50:	00 00 00 00 
    dc54:	48 c7 85 50 f3 ff ff 	movq   $0x0,-0xcb0(%rbp)
    dc5b:	00 00 00 00 
    dc5f:	48 8d 85 52 d9 ff ff 	lea    -0x26ae(%rbp),%rax
    dc66:	48 89 85 58 f3 ff ff 	mov    %rax,-0xca8(%rbp)
    dc6d:	48 c7 85 60 f3 ff ff 	movq   $0x0,-0xca0(%rbp)
    dc74:	00 00 00 00 
    dc78:	48 8d 05 51 64 00 00 	lea    0x6451(%rip),%rax        # 140d0 <g_1017+0x10>
    dc7f:	48 89 85 68 f3 ff ff 	mov    %rax,-0xc98(%rbp)
    dc86:	48 8d 85 88 d5 ff ff 	lea    -0x2a78(%rbp),%rax
    dc8d:	48 89 85 70 f3 ff ff 	mov    %rax,-0xc90(%rbp)
    dc94:	48 8d 85 88 d5 ff ff 	lea    -0x2a78(%rbp),%rax
    dc9b:	48 89 85 78 f3 ff ff 	mov    %rax,-0xc88(%rbp)
    dca2:	48 c7 85 80 f3 ff ff 	movq   $0x0,-0xc80(%rbp)
    dca9:	00 00 00 00 
    dcad:	48 8d 05 c2 a5 00 00 	lea    0xa5c2(%rip),%rax        # 18276 <g_342+0x6>
    dcb4:	48 89 85 88 f3 ff ff 	mov    %rax,-0xc78(%rbp)
    dcbb:	48 c7 85 90 f3 ff ff 	movq   $0x0,-0xc70(%rbp)
    dcc2:	00 00 00 00 
    dcc6:	48 8d 85 52 d9 ff ff 	lea    -0x26ae(%rbp),%rax
    dccd:	48 89 85 98 f3 ff ff 	mov    %rax,-0xc68(%rbp)
    dcd4:	48 8d 05 f5 63 00 00 	lea    0x63f5(%rip),%rax        # 140d0 <g_1017+0x10>
    dcdb:	48 89 85 a0 f3 ff ff 	mov    %rax,-0xc60(%rbp)
    dce2:	48 8d 05 7d 63 00 00 	lea    0x637d(%rip),%rax        # 14066 <g_693+0x6>
    dce9:	48 89 85 a8 f3 ff ff 	mov    %rax,-0xc58(%rbp)
    dcf0:	48 c7 85 b0 f3 ff ff 	movq   $0x0,-0xc50(%rbp)
    dcf7:	00 00 00 00 
    dcfb:	48 c7 85 b8 f3 ff ff 	movq   $0x0,-0xc48(%rbp)
    dd02:	00 00 00 00 
    dd06:	48 8d 85 52 d9 ff ff 	lea    -0x26ae(%rbp),%rax
    dd0d:	48 89 85 c0 f3 ff ff 	mov    %rax,-0xc40(%rbp)
    dd14:	48 8d 05 b5 63 00 00 	lea    0x63b5(%rip),%rax        # 140d0 <g_1017+0x10>
    dd1b:	48 89 85 c8 f3 ff ff 	mov    %rax,-0xc38(%rbp)
    dd22:	48 8d 05 3d 63 00 00 	lea    0x633d(%rip),%rax        # 14066 <g_693+0x6>
    dd29:	48 89 85 d0 f3 ff ff 	mov    %rax,-0xc30(%rbp)
    dd30:	48 c7 85 d8 f3 ff ff 	movq   $0x0,-0xc28(%rbp)
    dd37:	00 00 00 00 
    dd3b:	48 c7 85 e0 f3 ff ff 	movq   $0x0,-0xc20(%rbp)
    dd42:	00 00 00 00 
    dd46:	48 8d 05 19 63 00 00 	lea    0x6319(%rip),%rax        # 14066 <g_693+0x6>
    dd4d:	48 89 85 e8 f3 ff ff 	mov    %rax,-0xc18(%rbp)
    dd54:	48 8d 05 75 63 00 00 	lea    0x6375(%rip),%rax        # 140d0 <g_1017+0x10>
    dd5b:	48 89 85 f0 f3 ff ff 	mov    %rax,-0xc10(%rbp)
    dd62:	48 8d 85 52 d9 ff ff 	lea    -0x26ae(%rbp),%rax
    dd69:	48 89 85 f8 f3 ff ff 	mov    %rax,-0xc08(%rbp)
    dd70:	48 c7 85 00 f4 ff ff 	movq   $0x0,-0xc00(%rbp)
    dd77:	00 00 00 00 
    dd7b:	48 8d 05 f4 a4 00 00 	lea    0xa4f4(%rip),%rax        # 18276 <g_342+0x6>
    dd82:	48 89 85 08 f4 ff ff 	mov    %rax,-0xbf8(%rbp)
    dd89:	48 c7 85 10 f4 ff ff 	movq   $0x0,-0xbf0(%rbp)
    dd90:	00 00 00 00 
    dd94:	48 8d 85 88 d5 ff ff 	lea    -0x2a78(%rbp),%rax
    dd9b:	48 89 85 18 f4 ff ff 	mov    %rax,-0xbe8(%rbp)
    dda2:	48 8d 05 cd a4 00 00 	lea    0xa4cd(%rip),%rax        # 18276 <g_342+0x6>
    dda9:	48 89 85 20 f4 ff ff 	mov    %rax,-0xbe0(%rbp)
    ddb0:	48 8d 05 19 63 00 00 	lea    0x6319(%rip),%rax        # 140d0 <g_1017+0x10>
    ddb7:	48 89 85 28 f4 ff ff 	mov    %rax,-0xbd8(%rbp)
    ddbe:	48 c7 85 30 f4 ff ff 	movq   $0x0,-0xbd0(%rbp)
    ddc5:	00 00 00 00 
    ddc9:	48 8d 85 52 d9 ff ff 	lea    -0x26ae(%rbp),%rax
    ddd0:	48 89 85 38 f4 ff ff 	mov    %rax,-0xbc8(%rbp)
    ddd7:	48 c7 85 40 f4 ff ff 	movq   $0x0,-0xbc0(%rbp)
    ddde:	00 00 00 00 
    dde2:	48 c7 85 48 f4 ff ff 	movq   $0x0,-0xbb8(%rbp)
    dde9:	00 00 00 00 
    dded:	48 8d 85 52 d9 ff ff 	lea    -0x26ae(%rbp),%rax
    ddf4:	48 89 85 50 f4 ff ff 	mov    %rax,-0xbb0(%rbp)
    ddfb:	48 c7 85 58 f4 ff ff 	movq   $0x0,-0xba8(%rbp)
    de02:	00 00 00 00 
    de06:	48 c7 85 60 f4 ff ff 	movq   $0x0,-0xba0(%rbp)
    de0d:	00 00 00 00 
    de11:	48 8d 05 5e a4 00 00 	lea    0xa45e(%rip),%rax        # 18276 <g_342+0x6>
    de18:	48 89 85 68 f4 ff ff 	mov    %rax,-0xb98(%rbp)
    de1f:	48 8d 05 50 a4 00 00 	lea    0xa450(%rip),%rax        # 18276 <g_342+0x6>
    de26:	48 89 85 70 f4 ff ff 	mov    %rax,-0xb90(%rbp)
    de2d:	48 c7 85 78 f4 ff ff 	movq   $0x0,-0xb88(%rbp)
    de34:	00 00 00 00 
    de38:	48 c7 85 80 f4 ff ff 	movq   $0x0,-0xb80(%rbp)
    de3f:	00 00 00 00 
    de43:	48 c7 85 88 f4 ff ff 	movq   $0x0,-0xb78(%rbp)
    de4a:	00 00 00 00 
    de4e:	48 8d 05 11 62 00 00 	lea    0x6211(%rip),%rax        # 14066 <g_693+0x6>
    de55:	48 89 85 90 f4 ff ff 	mov    %rax,-0xb70(%rbp)
    de5c:	48 8d 85 52 d9 ff ff 	lea    -0x26ae(%rbp),%rax
    de63:	48 89 85 98 f4 ff ff 	mov    %rax,-0xb68(%rbp)
    de6a:	48 8d 85 88 d5 ff ff 	lea    -0x2a78(%rbp),%rax
    de71:	48 89 85 a0 f4 ff ff 	mov    %rax,-0xb60(%rbp)
    de78:	48 8d 05 51 62 00 00 	lea    0x6251(%rip),%rax        # 140d0 <g_1017+0x10>
    de7f:	48 89 85 a8 f4 ff ff 	mov    %rax,-0xb58(%rbp)
    de86:	48 c7 85 b0 f4 ff ff 	movq   $0x0,-0xb50(%rbp)
    de8d:	00 00 00 00 
    de91:	48 8d 85 88 d5 ff ff 	lea    -0x2a78(%rbp),%rax
    de98:	48 89 85 b8 f4 ff ff 	mov    %rax,-0xb48(%rbp)
    de9f:	48 8d 05 c0 61 00 00 	lea    0x61c0(%rip),%rax        # 14066 <g_693+0x6>
    dea6:	48 89 85 c0 f4 ff ff 	mov    %rax,-0xb40(%rbp)
    dead:	48 8d 05 c2 a3 00 00 	lea    0xa3c2(%rip),%rax        # 18276 <g_342+0x6>
    deb4:	48 89 85 c8 f4 ff ff 	mov    %rax,-0xb38(%rbp)
    debb:	48 8d 85 52 d9 ff ff 	lea    -0x26ae(%rbp),%rax
    dec2:	48 89 85 d0 f4 ff ff 	mov    %rax,-0xb30(%rbp)
    dec9:	48 8d 85 52 d9 ff ff 	lea    -0x26ae(%rbp),%rax
    ded0:	48 89 85 d8 f4 ff ff 	mov    %rax,-0xb28(%rbp)
    ded7:	48 8d 05 98 a3 00 00 	lea    0xa398(%rip),%rax        # 18276 <g_342+0x6>
    dede:	48 89 85 e0 f4 ff ff 	mov    %rax,-0xb20(%rbp)
    dee5:	48 8d 05 7a 61 00 00 	lea    0x617a(%rip),%rax        # 14066 <g_693+0x6>
    deec:	48 89 85 e8 f4 ff ff 	mov    %rax,-0xb18(%rbp)
    def3:	48 8d 85 88 d5 ff ff 	lea    -0x2a78(%rbp),%rax
    defa:	48 89 85 f0 f4 ff ff 	mov    %rax,-0xb10(%rbp)
    df01:	48 c7 85 f8 f4 ff ff 	movq   $0x0,-0xb08(%rbp)
    df08:	00 00 00 00 
    df0c:	48 c7 85 00 f5 ff ff 	movq   $0x0,-0xb00(%rbp)
    df13:	00 00 00 00 
    df17:	48 8d 05 b2 61 00 00 	lea    0x61b2(%rip),%rax        # 140d0 <g_1017+0x10>
    df1e:	48 89 85 08 f5 ff ff 	mov    %rax,-0xaf8(%rbp)
    df25:	48 c7 85 10 f5 ff ff 	movq   $0x0,-0xaf0(%rbp)
    df2c:	00 00 00 00 
    df30:	48 c7 85 18 f5 ff ff 	movq   $0x0,-0xae8(%rbp)
    df37:	00 00 00 00 
    df3b:	48 8d 85 88 d5 ff ff 	lea    -0x2a78(%rbp),%rax
    df42:	48 89 85 20 f5 ff ff 	mov    %rax,-0xae0(%rbp)
    df49:	48 8d 05 16 61 00 00 	lea    0x6116(%rip),%rax        # 14066 <g_693+0x6>
    df50:	48 89 85 28 f5 ff ff 	mov    %rax,-0xad8(%rbp)
    df57:	48 8d 05 18 a3 00 00 	lea    0xa318(%rip),%rax        # 18276 <g_342+0x6>
    df5e:	48 89 85 30 f5 ff ff 	mov    %rax,-0xad0(%rbp)
    df65:	48 8d 85 52 d9 ff ff 	lea    -0x26ae(%rbp),%rax
    df6c:	48 89 85 38 f5 ff ff 	mov    %rax,-0xac8(%rbp)
    df73:	48 8d 85 52 d9 ff ff 	lea    -0x26ae(%rbp),%rax
    df7a:	48 89 85 40 f5 ff ff 	mov    %rax,-0xac0(%rbp)
    df81:	48 8d 05 ee a2 00 00 	lea    0xa2ee(%rip),%rax        # 18276 <g_342+0x6>
    df88:	48 89 85 48 f5 ff ff 	mov    %rax,-0xab8(%rbp)
    df8f:	48 8d 85 52 d9 ff ff 	lea    -0x26ae(%rbp),%rax
    df96:	48 89 85 50 f5 ff ff 	mov    %rax,-0xab0(%rbp)
    df9d:	48 8d 85 88 d5 ff ff 	lea    -0x2a78(%rbp),%rax
    dfa4:	48 89 85 58 f5 ff ff 	mov    %rax,-0xaa8(%rbp)
    dfab:	48 8d 05 1e 61 00 00 	lea    0x611e(%rip),%rax        # 140d0 <g_1017+0x10>
    dfb2:	48 89 85 60 f5 ff ff 	mov    %rax,-0xaa0(%rbp)
    dfb9:	48 8d 05 10 61 00 00 	lea    0x6110(%rip),%rax        # 140d0 <g_1017+0x10>
    dfc0:	48 89 85 68 f5 ff ff 	mov    %rax,-0xa98(%rbp)
    dfc7:	48 8d 85 88 d5 ff ff 	lea    -0x2a78(%rbp),%rax
    dfce:	48 89 85 70 f5 ff ff 	mov    %rax,-0xa90(%rbp)
    dfd5:	48 8d 85 52 d9 ff ff 	lea    -0x26ae(%rbp),%rax
    dfdc:	48 89 85 78 f5 ff ff 	mov    %rax,-0xa88(%rbp)
    dfe3:	48 8d 05 7c 60 00 00 	lea    0x607c(%rip),%rax        # 14066 <g_693+0x6>
    dfea:	48 89 85 80 f5 ff ff 	mov    %rax,-0xa80(%rbp)
    dff1:	48 c7 85 88 f5 ff ff 	movq   $0x0,-0xa78(%rbp)
    dff8:	00 00 00 00 
    dffc:	48 c7 85 90 f5 ff ff 	movq   $0x0,-0xa70(%rbp)
    e003:	00 00 00 00 
    e007:	48 c7 85 98 f5 ff ff 	movq   $0x0,-0xa68(%rbp)
    e00e:	00 00 00 00 
    e012:	48 8d 85 88 d5 ff ff 	lea    -0x2a78(%rbp),%rax
    e019:	48 89 85 a0 f5 ff ff 	mov    %rax,-0xa60(%rbp)
    e020:	48 8d 05 4f a2 00 00 	lea    0xa24f(%rip),%rax        # 18276 <g_342+0x6>
    e027:	48 89 85 a8 f5 ff ff 	mov    %rax,-0xa58(%rbp)
    e02e:	48 8d 05 9b 60 00 00 	lea    0x609b(%rip),%rax        # 140d0 <g_1017+0x10>
    e035:	48 89 85 b0 f5 ff ff 	mov    %rax,-0xa50(%rbp)
    e03c:	48 c7 85 b8 f5 ff ff 	movq   $0x0,-0xa48(%rbp)
    e043:	00 00 00 00 
    e047:	48 8d 85 52 d9 ff ff 	lea    -0x26ae(%rbp),%rax
    e04e:	48 89 85 c0 f5 ff ff 	mov    %rax,-0xa40(%rbp)
    e055:	48 c7 85 c8 f5 ff ff 	movq   $0x0,-0xa38(%rbp)
    e05c:	00 00 00 00 
    e060:	48 c7 85 d0 f5 ff ff 	movq   $0x0,-0xa30(%rbp)
    e067:	00 00 00 00 
    e06b:	48 8d 85 52 d9 ff ff 	lea    -0x26ae(%rbp),%rax
    e072:	48 89 85 d8 f5 ff ff 	mov    %rax,-0xa28(%rbp)
    e079:	48 c7 85 e0 f5 ff ff 	movq   $0x0,-0xa20(%rbp)
    e080:	00 00 00 00 
    e084:	48 8d 05 45 60 00 00 	lea    0x6045(%rip),%rax        # 140d0 <g_1017+0x10>
    e08b:	48 89 85 e8 f5 ff ff 	mov    %rax,-0xa18(%rbp)
    e092:	48 8d 85 88 d5 ff ff 	lea    -0x2a78(%rbp),%rax
    e099:	48 89 85 f0 f5 ff ff 	mov    %rax,-0xa10(%rbp)
    e0a0:	48 8d 85 88 d5 ff ff 	lea    -0x2a78(%rbp),%rax
    e0a7:	48 89 85 f8 f5 ff ff 	mov    %rax,-0xa08(%rbp)
    e0ae:	48 c7 85 00 f6 ff ff 	movq   $0x0,-0xa00(%rbp)
    e0b5:	00 00 00 00 
    e0b9:	48 8d 05 b6 a1 00 00 	lea    0xa1b6(%rip),%rax        # 18276 <g_342+0x6>
    e0c0:	48 89 85 08 f6 ff ff 	mov    %rax,-0x9f8(%rbp)
    e0c7:	48 c7 85 10 f6 ff ff 	movq   $0x0,-0x9f0(%rbp)
    e0ce:	00 00 00 00 
    e0d2:	48 8d 85 52 d9 ff ff 	lea    -0x26ae(%rbp),%rax
    e0d9:	48 89 85 18 f6 ff ff 	mov    %rax,-0x9e8(%rbp)
    e0e0:	48 8d 05 e9 5f 00 00 	lea    0x5fe9(%rip),%rax        # 140d0 <g_1017+0x10>
    e0e7:	48 89 85 20 f6 ff ff 	mov    %rax,-0x9e0(%rbp)
    e0ee:	48 8d 05 71 5f 00 00 	lea    0x5f71(%rip),%rax        # 14066 <g_693+0x6>
    e0f5:	48 89 85 28 f6 ff ff 	mov    %rax,-0x9d8(%rbp)
    e0fc:	48 c7 85 30 f6 ff ff 	movq   $0x0,-0x9d0(%rbp)
    e103:	00 00 00 00 
    e107:	48 c7 85 38 f6 ff ff 	movq   $0x0,-0x9c8(%rbp)
    e10e:	00 00 00 00 
    e112:	48 8d 85 52 d9 ff ff 	lea    -0x26ae(%rbp),%rax
    e119:	48 89 85 40 f6 ff ff 	mov    %rax,-0x9c0(%rbp)
    e120:	48 8d 05 a9 5f 00 00 	lea    0x5fa9(%rip),%rax        # 140d0 <g_1017+0x10>
    e127:	48 89 85 48 f6 ff ff 	mov    %rax,-0x9b8(%rbp)
    e12e:	48 8d 05 31 5f 00 00 	lea    0x5f31(%rip),%rax        # 14066 <g_693+0x6>
    e135:	48 89 85 50 f6 ff ff 	mov    %rax,-0x9b0(%rbp)
    e13c:	48 c7 85 58 f6 ff ff 	movq   $0x0,-0x9a8(%rbp)
    e143:	00 00 00 00 
    e147:	48 c7 85 60 f6 ff ff 	movq   $0x0,-0x9a0(%rbp)
    e14e:	00 00 00 00 
    e152:	48 8d 05 0d 5f 00 00 	lea    0x5f0d(%rip),%rax        # 14066 <g_693+0x6>
    e159:	48 89 85 68 f6 ff ff 	mov    %rax,-0x998(%rbp)
    e160:	48 8d 05 69 5f 00 00 	lea    0x5f69(%rip),%rax        # 140d0 <g_1017+0x10>
    e167:	48 89 85 70 f6 ff ff 	mov    %rax,-0x990(%rbp)
    e16e:	48 8d 85 52 d9 ff ff 	lea    -0x26ae(%rbp),%rax
    e175:	48 89 85 78 f6 ff ff 	mov    %rax,-0x988(%rbp)
    e17c:	48 c7 85 80 f6 ff ff 	movq   $0x0,-0x980(%rbp)
    e183:	00 00 00 00 
    e187:	48 8d 05 e8 a0 00 00 	lea    0xa0e8(%rip),%rax        # 18276 <g_342+0x6>
    e18e:	48 89 85 88 f6 ff ff 	mov    %rax,-0x978(%rbp)
    e195:	48 8d 85 50 f0 ff ff 	lea    -0xfb0(%rbp),%rax
    e19c:	48 05 00 06 00 00    	add    $0x600,%rax
    e1a2:	48 89 85 38 d7 ff ff 	mov    %rax,-0x28c8(%rbp)
    e1a9:	48 8d 85 38 d7 ff ff 	lea    -0x28c8(%rbp),%rax
    e1b0:	48 89 85 40 d7 ff ff 	mov    %rax,-0x28c0(%rbp)
    e1b7:	48 8d 85 40 d7 ff ff 	lea    -0x28c0(%rbp),%rax
    e1be:	48 89 85 20 d9 ff ff 	mov    %rax,-0x26e0(%rbp)
    e1c5:	48 8d 05 cc a0 00 00 	lea    0xa0cc(%rip),%rax        # 18298 <g_371+0x8>
    e1cc:	48 89 85 28 d9 ff ff 	mov    %rax,-0x26d8(%rbp)
    e1d3:	c7 85 c8 d6 ff ff c6 	movl   $0x909220c6,-0x2938(%rbp)
    e1da:	20 92 90 
    e1dd:	c7 85 cc d6 ff ff 01 	movl   $0x92692401,-0x2934(%rbp)
    e1e4:	24 69 92 
    e1e7:	48 8d 85 c8 d5 ff ff 	lea    -0x2a38(%rbp),%rax
    e1ee:	48 89 85 48 d7 ff ff 	mov    %rax,-0x28b8(%rbp)
    e1f5:	48 8d 85 48 d7 ff ff 	lea    -0x28b8(%rbp),%rax
    e1fc:	48 89 85 30 d9 ff ff 	mov    %rax,-0x26d0(%rbp)
    e203:	48 c7 85 38 d9 ff ff 	movq   $0x1,-0x26c8(%rbp)
    e20a:	01 00 00 00 
    e20e:	48 8d 85 b0 db ff ff 	lea    -0x2450(%rbp),%rax
    e215:	48 83 c0 08          	add    $0x8,%rax
    e219:	48 89 85 40 d9 ff ff 	mov    %rax,-0x26c0(%rbp)
    e220:	c7 85 e8 d5 ff ff 00 	movl   $0x0,-0x2a18(%rbp)
    e227:	00 00 00 
    e22a:	eb 25                	jmp    e251 <func_1+0x6a9c>
    e22c:	8b 85 e8 d5 ff ff    	mov    -0x2a18(%rbp),%eax
    e232:	48 98                	cltq   
    e234:	48 8d 95 d0 f7 ff ff 	lea    -0x830(%rbp),%rdx
    e23b:	48 81 c2 78 06 00 00 	add    $0x678,%rdx
    e242:	48 89 94 c5 b0 db ff 	mov    %rdx,-0x2450(%rbp,%rax,8)
    e249:	ff 
    e24a:	83 85 e8 d5 ff ff 01 	addl   $0x1,-0x2a18(%rbp)
    e251:	83 bd e8 d5 ff ff 01 	cmpl   $0x1,-0x2a18(%rbp)
    e258:	7e d2                	jle    e22c <func_1+0x6a77>
    e25a:	0f b6 9d 85 d5 ff ff 	movzbl -0x2a7b(%rbp),%ebx
    e261:	0f b6 05 62 9f 00 00 	movzbl 0x9f62(%rip),%eax        # 181ca <g_95>
    e268:	44 0f be e0          	movsbl %al,%r12d
    e26c:	48 8b 05 4d ce 00 00 	mov    0xce4d(%rip),%rax        # 1b0c0 <g_168>
    e273:	0f b7 00             	movzwl (%rax),%eax
    e276:	44 0f b7 e8          	movzwl %ax,%r13d
    e27a:	48 8b 05 3f ce 00 00 	mov    0xce3f(%rip),%rax        # 1b0c0 <g_168>
    e281:	0f b7 00             	movzwl (%rax),%eax
    e284:	98                   	cwtl   
    e285:	be 00 00 00 00       	mov    $0x0,%esi
    e28a:	89 c7                	mov    %eax,%edi
    e28c:	e8 01 82 ff ff       	callq  6492 <safe_lshift_func_int16_t_s_s>
    e291:	0f bf d0             	movswl %ax,%edx
    e294:	48 8b 85 18 d9 ff ff 	mov    -0x26e8(%rbp),%rax
    e29b:	89 10                	mov    %edx,(%rax)
    e29d:	48 8b 85 18 d9 ff ff 	mov    -0x26e8(%rbp),%rax
    e2a4:	8b 00                	mov    (%rax),%eax
    e2a6:	85 c0                	test   %eax,%eax
    e2a8:	74 13                	je     e2bd <func_1+0x6b08>
    e2aa:	0f b7 05 a5 a5 00 00 	movzwl 0xa5a5(%rip),%eax        # 18856 <g_1018+0x3f6>
    e2b1:	66 85 c0             	test   %ax,%ax
    e2b4:	74 07                	je     e2bd <func_1+0x6b08>
    e2b6:	b8 01 00 00 00       	mov    $0x1,%eax
    e2bb:	eb 05                	jmp    e2c2 <func_1+0x6b0d>
    e2bd:	b8 00 00 00 00       	mov    $0x0,%eax
    e2c2:	48 63 d0             	movslq %eax,%rdx
    e2c5:	48 8b 85 28 d9 ff ff 	mov    -0x26d8(%rbp),%rax
    e2cc:	48 8b 00             	mov    (%rax),%rax
    e2cf:	48 8d 70 ff          	lea    -0x1(%rax),%rsi
    e2d3:	48 8b 8d 28 d9 ff ff 	mov    -0x26d8(%rbp),%rcx
    e2da:	48 89 31             	mov    %rsi,(%rcx)
    e2dd:	48 89 d6             	mov    %rdx,%rsi
    e2e0:	48 89 c7             	mov    %rax,%rdi
    e2e3:	e8 46 8d ff ff       	callq  702e <safe_add_func_uint64_t_u_u>
    e2e8:	8b 95 c8 d5 ff ff    	mov    -0x2a38(%rbp),%edx
    e2ee:	89 d2                	mov    %edx,%edx
    e2f0:	48 39 d0             	cmp    %rdx,%rax
    e2f3:	0f 97 c0             	seta   %al
    e2f6:	0f b6 d0             	movzbl %al,%edx
    e2f9:	48 8b 05 d8 cf 00 00 	mov    0xcfd8(%rip),%rax        # 1b2d8 <g_799>
    e300:	48 8b 00             	mov    (%rax),%rax
    e303:	0f b7 00             	movzwl (%rax),%eax
    e306:	98                   	cwtl   
    e307:	39 c2                	cmp    %eax,%edx
    e309:	0f 94 c0             	sete   %al
    e30c:	0f b6 d0             	movzbl %al,%edx
    e30f:	0f b7 05 ea 9f 00 00 	movzwl 0x9fea(%rip),%eax        # 18300 <g_502+0x10>
    e316:	0f b7 c0             	movzwl %ax,%eax
    e319:	39 c2                	cmp    %eax,%edx
    e31b:	0f 9c c0             	setl   %al
    e31e:	0f b6 c0             	movzbl %al,%eax
    e321:	44 89 ee             	mov    %r13d,%esi
    e324:	89 c7                	mov    %eax,%edi
    e326:	e8 63 8a ff ff       	callq  6d8e <safe_div_func_uint16_t_u_u>
    e32b:	48 8b 95 40 d7 ff ff 	mov    -0x28c0(%rbp),%rdx
    e332:	48 8b 85 20 d9 ff ff 	mov    -0x26e0(%rbp),%rax
    e339:	48 89 10             	mov    %rdx,(%rax)
    e33c:	48 8b 85 20 d9 ff ff 	mov    -0x26e0(%rbp),%rax
    e343:	48 8b 00             	mov    (%rax),%rax
    e346:	48 8d 15 fb 98 00 00 	lea    0x98fb(%rip),%rdx        # 17c48 <g_1362>
    e34d:	48 39 d0             	cmp    %rdx,%rax
    e350:	48 8b 05 81 cf 00 00 	mov    0xcf81(%rip),%rax        # 1b2d8 <g_799>
    e357:	48 8b 00             	mov    (%rax),%rax
    e35a:	48 8b 85 90 d7 ff ff 	mov    -0x2870(%rbp),%rax
    e361:	8b 00                	mov    (%rax),%eax
    e363:	85 c0                	test   %eax,%eax
    e365:	74 07                	je     e36e <func_1+0x6bb9>
    e367:	ba 01 00 00 00       	mov    $0x1,%edx
    e36c:	eb 05                	jmp    e373 <func_1+0x6bbe>
    e36e:	ba 00 00 00 00       	mov    $0x0,%edx
    e373:	0f b6 85 85 d5 ff ff 	movzbl -0x2a7b(%rbp),%eax
    e37a:	39 c2                	cmp    %eax,%edx
    e37c:	0f 9e c0             	setle  %al
    e37f:	0f b6 c0             	movzbl %al,%eax
    e382:	44 89 e6             	mov    %r12d,%esi
    e385:	89 c7                	mov    %eax,%edi
    e387:	e8 de 7e ff ff       	callq  626a <safe_div_func_int8_t_s_s>
    e38c:	0f b6 d0             	movzbl %al,%edx
    e38f:	48 8b 05 ca 9f 00 00 	mov    0x9fca(%rip),%rax        # 18360 <g_692>
    e396:	0f b6 c0             	movzbl %al,%eax
    e399:	89 d6                	mov    %edx,%esi
    e39b:	89 c7                	mov    %eax,%edi
    e39d:	e8 0c 88 ff ff       	callq  6bae <safe_mod_func_uint8_t_u_u>
    e3a2:	0f b6 c0             	movzbl %al,%eax
    e3a5:	48 89 de             	mov    %rbx,%rsi
    e3a8:	48 89 c7             	mov    %rax,%rdi
    e3ab:	e8 91 84 ff ff       	callq  6841 <safe_add_func_int64_t_s_s>
    e3b0:	48 89 c6             	mov    %rax,%rsi
    e3b3:	0f b7 05 1c 9f 00 00 	movzwl 0x9f1c(%rip),%eax        # 182d6 <g_499+0x6>
    e3ba:	0f b7 c8             	movzwl %ax,%ecx
    e3bd:	0f b6 85 85 d5 ff ff 	movzbl -0x2a7b(%rbp),%eax
    e3c4:	48 8b 9d d8 d6 ff ff 	mov    -0x2928(%rbp),%rbx
    e3cb:	48 8b 95 18 d9 ff ff 	mov    -0x26e8(%rbp),%rdx
    e3d2:	49 89 f0             	mov    %rsi,%r8
    e3d5:	48 8d 35 ec 9e 00 00 	lea    0x9eec(%rip),%rsi        # 182c8 <g_496>
    e3dc:	89 c7                	mov    %eax,%edi
    e3de:	e8 3a 3a 00 00       	callq  11e1d <func_80>
    e3e3:	48 89 03             	mov    %rax,(%rbx)
    e3e6:	48 8b 03             	mov    (%rbx),%rax
    e3e9:	48 89 05 c0 cf 00 00 	mov    %rax,0xcfc0(%rip)        # 1b3b0 <g_1405>
    e3f0:	48 8b 05 d9 cc 00 00 	mov    0xccd9(%rip),%rax        # 1b0d0 <g_212>
    e3f7:	48 8b 00             	mov    (%rax),%rax
    e3fa:	48 8b 15 af cf 00 00 	mov    0xcfaf(%rip),%rdx        # 1b3b0 <g_1405>
    e401:	48 89 10             	mov    %rdx,(%rax)
    e404:	48 8b 05 9d cf 00 00 	mov    0xcf9d(%rip),%rax        # 1b3a8 <g_1361>
    e40b:	48 8b 00             	mov    (%rax),%rax
    e40e:	48 8b 00             	mov    (%rax),%rax
    e411:	0f b7 00             	movzwl (%rax),%eax
    e414:	0f bf d8             	movswl %ax,%ebx
    e417:	48 8b 05 da cd 00 00 	mov    0xcdda(%rip),%rax        # 1b1f8 <g_469+0xf8>
    e41e:	48 89 05 93 cf 00 00 	mov    %rax,0xcf93(%rip)        # 1b3b8 <g_1411>
    e425:	48 8b 0d 8c cf 00 00 	mov    0xcf8c(%rip),%rcx        # 1b3b8 <g_1411>
    e42c:	48 8b 15 fd cc 00 00 	mov    0xccfd(%rip),%rdx        # 1b130 <g_469+0x30>
    e433:	48 8b 85 30 d9 ff ff 	mov    -0x26d0(%rbp),%rax
    e43a:	48 89 10             	mov    %rdx,(%rax)
    e43d:	48 8b 85 30 d9 ff ff 	mov    -0x26d0(%rbp),%rax
    e444:	48 8b 00             	mov    (%rax),%rax
    e447:	48 39 c1             	cmp    %rax,%rcx
    e44a:	0f 94 c0             	sete   %al
    e44d:	0f b6 d0             	movzbl %al,%edx
    e450:	48 8b 05 89 ce 00 00 	mov    0xce89(%rip),%rax        # 1b2e0 <g_798>
    e457:	48 8b 00             	mov    (%rax),%rax
    e45a:	48 8b 00             	mov    (%rax),%rax
    e45d:	0f b7 00             	movzwl (%rax),%eax
    e460:	f7 d0                	not    %eax
    e462:	66 c1 e8 0f          	shr    $0xf,%ax
    e466:	0f b6 c0             	movzbl %al,%eax
    e469:	39 c2                	cmp    %eax,%edx
    e46b:	0f 9f c0             	setg   %al
    e46e:	0f b6 c0             	movzbl %al,%eax
    e471:	48 8b 15 68 cc 00 00 	mov    0xcc68(%rip),%rdx        # 1b0e0 <g_281>
    e478:	48 8b 95 18 d9 ff ff 	mov    -0x26e8(%rbp),%rdx
    e47f:	8b 0a                	mov    (%rdx),%ecx
    e481:	48 8b 95 90 d7 ff ff 	mov    -0x2870(%rbp),%rdx
    e488:	89 0a                	mov    %ecx,(%rdx)
    e48a:	48 8b 95 90 d7 ff ff 	mov    -0x2870(%rbp),%rdx
    e491:	8b 12                	mov    (%rdx),%edx
    e493:	89 95 cc d6 ff ff    	mov    %edx,-0x2934(%rbp)
    e499:	89 c6                	mov    %eax,%esi
    e49b:	bf 00 00 00 00       	mov    $0x0,%edi
    e4a0:	e8 4d 7d ff ff       	callq  61f2 <safe_sub_func_int8_t_s_s>
    e4a5:	0f be c0             	movsbl %al,%eax
    e4a8:	89 de                	mov    %ebx,%esi
    e4aa:	89 c7                	mov    %eax,%edi
    e4ac:	e8 44 7f ff ff       	callq  63f5 <safe_mul_func_int16_t_s_s>
    e4b1:	89 c2                	mov    %eax,%edx
    e4b3:	48 8b 85 70 d7 ff ff 	mov    -0x2890(%rbp),%rax
    e4ba:	0f b6 00             	movzbl (%rax),%eax
    e4bd:	31 c2                	xor    %eax,%edx
    e4bf:	48 8b 85 70 d7 ff ff 	mov    -0x2890(%rbp),%rax
    e4c6:	88 10                	mov    %dl,(%rax)
    e4c8:	48 83 bd 38 d9 ff ff 	cmpq   $0x0,-0x26c8(%rbp)
    e4cf:	00 
    e4d0:	0f 8f 94 01 00 00    	jg     e66a <func_1+0x6eb5>
    e4d6:	c6 85 87 d5 ff ff f8 	movb   $0xf8,-0x2a79(%rbp)
    e4dd:	66 c7 85 90 dd ff ff 	movw   $0x4,-0x2270(%rbp)
    e4e4:	04 00 
    e4e6:	66 c7 85 92 dd ff ff 	movw   $0x4,-0x226e(%rbp)
    e4ed:	04 00 
    e4ef:	66 c7 85 94 dd ff ff 	movw   $0x0,-0x226c(%rbp)
    e4f6:	00 00 
    e4f8:	66 c7 85 96 dd ff ff 	movw   $0xb734,-0x226a(%rbp)
    e4ff:	34 b7 
    e501:	66 c7 85 98 dd ff ff 	movw   $0x41bc,-0x2268(%rbp)
    e508:	bc 41 
    e50a:	66 c7 85 9a dd ff ff 	movw   $0x16b6,-0x2266(%rbp)
    e511:	b6 16 
    e513:	66 c7 85 9c dd ff ff 	movw   $0x0,-0x2264(%rbp)
    e51a:	00 00 
    e51c:	66 c7 85 9e dd ff ff 	movw   $0xbe66,-0x2262(%rbp)
    e523:	66 be 
    e525:	66 c7 85 a0 dd ff ff 	movw   $0x0,-0x2260(%rbp)
    e52c:	00 00 
    e52e:	66 c7 85 a2 dd ff ff 	movw   $0x4,-0x225e(%rbp)
    e535:	04 00 
    e537:	66 c7 85 a4 dd ff ff 	movw   $0x1,-0x225c(%rbp)
    e53e:	01 00 
    e540:	66 c7 85 a6 dd ff ff 	movw   $0x16b6,-0x225a(%rbp)
    e547:	b6 16 
    e549:	66 c7 85 a8 dd ff ff 	movw   $0x16b6,-0x2258(%rbp)
    e550:	b6 16 
    e552:	66 c7 85 aa dd ff ff 	movw   $0x1,-0x2256(%rbp)
    e559:	01 00 
    e55b:	66 c7 85 ac dd ff ff 	movw   $0x4,-0x2254(%rbp)
    e562:	04 00 
    e564:	66 c7 85 ae dd ff ff 	movw   $0xb734,-0x2252(%rbp)
    e56b:	34 b7 
    e56d:	66 c7 85 b0 dd ff ff 	movw   $0x840,-0x2250(%rbp)
    e574:	40 08 
    e576:	66 c7 85 b2 dd ff ff 	movw   $0xa2dd,-0x224e(%rbp)
    e57d:	dd a2 
    e57f:	66 c7 85 b4 dd ff ff 	movw   $0xbe66,-0x224c(%rbp)
    e586:	66 be 
    e588:	66 c7 85 b6 dd ff ff 	movw   $0xab89,-0x224a(%rbp)
    e58f:	89 ab 
    e591:	66 c7 85 b8 dd ff ff 	movw   $0x0,-0x2248(%rbp)
    e598:	00 00 
    e59a:	66 c7 85 ba dd ff ff 	movw   $0x4,-0x2246(%rbp)
    e5a1:	04 00 
    e5a3:	66 c7 85 bc dd ff ff 	movw   $0xa2dd,-0x2244(%rbp)
    e5aa:	dd a2 
    e5ac:	66 c7 85 be dd ff ff 	movw   $0xa2dd,-0x2242(%rbp)
    e5b3:	dd a2 
    e5b5:	66 c7 85 c0 dd ff ff 	movw   $0x4,-0x2240(%rbp)
    e5bc:	04 00 
    e5be:	66 c7 85 c2 dd ff ff 	movw   $0x0,-0x223e(%rbp)
    e5c5:	00 00 
    e5c7:	66 c7 85 c4 dd ff ff 	movw   $0x1,-0x223c(%rbp)
    e5ce:	01 00 
    e5d0:	48 8b 05 d9 cd 00 00 	mov    0xcdd9(%rip),%rax        # 1b3b0 <g_1405>
    e5d7:	c7 00 fc ff ff ff    	movl   $0xfffffffc,(%rax)
    e5dd:	8b 00                	mov    (%rax),%eax
    e5df:	31 85 cc d6 ff ff    	xor    %eax,-0x2934(%rbp)
    e5e5:	48 8b 05 ec cc 00 00 	mov    0xccec(%rip),%rax        # 1b2d8 <g_799>
    e5ec:	48 8b 00             	mov    (%rax),%rax
    e5ef:	0f b7 00             	movzwl (%rax),%eax
    e5f2:	0f bf d8             	movswl %ax,%ebx
    e5f5:	48 8b 85 d0 da ff ff 	mov    -0x2530(%rbp),%rax
    e5fc:	48 8d 15 a5 cd 00 00 	lea    0xcda5(%rip),%rdx        # 1b3a8 <g_1361>
    e603:	48 39 d0             	cmp    %rdx,%rax
    e606:	0f 94 c0             	sete   %al
    e609:	0f b6 c0             	movzbl %al,%eax
    e60c:	be 01 00 00 00       	mov    $0x1,%esi
    e611:	89 c7                	mov    %eax,%edi
    e613:	e8 4b 7f ff ff       	callq  6563 <safe_rshift_func_int16_t_s_u>
    e618:	0f b7 c0             	movzwl %ax,%eax
    e61b:	89 c6                	mov    %eax,%esi
    e61d:	bf 00 00 00 00       	mov    $0x0,%edi
    e622:	e8 16 87 ff ff       	callq  6d3d <safe_mul_func_uint16_t_u_u>
    e627:	48 0f be 85 87 d5 ff 	movsbq -0x2a79(%rbp),%rax
    e62e:	ff 
    e62f:	48 c7 c6 06 00 ff ff 	mov    $0xffffffffffff0006,%rsi
    e636:	48 89 c7             	mov    %rax,%rdi
    e639:	e8 f0 89 ff ff       	callq  702e <safe_add_func_uint64_t_u_u>
    e63e:	0f b6 c0             	movzbl %al,%eax
    e641:	be 01 00 00 00       	mov    $0x1,%esi
    e646:	89 c7                	mov    %eax,%edi
    e648:	e8 46 85 ff ff       	callq  6b93 <safe_mul_func_uint8_t_u_u>
    e64d:	0f b6 c0             	movzbl %al,%eax
    e650:	89 de                	mov    %ebx,%esi
    e652:	89 c7                	mov    %eax,%edi
    e654:	e8 7a 7d ff ff       	callq  63d3 <safe_sub_func_int16_t_s_s>
    e659:	0f bf d0             	movswl %ax,%edx
    e65c:	48 8b 85 90 d7 ff ff 	mov    -0x2870(%rbp),%rax
    e663:	89 10                	mov    %edx,(%rax)
    e665:	e9 dc 03 00 00       	jmpq   ea46 <func_1+0x7291>
    e66a:	48 b8 a3 a3 a3 a3 a3 	movabs $0xa3a3a3a3a3a3a3a3,%rax
    e671:	a3 a3 a3 
    e674:	48 89 45 be          	mov    %rax,-0x42(%rbp)
    e678:	66 c7 45 c6 a3 a3    	movw   $0xa3a3,-0x3a(%rbp)
    e67e:	48 c7 85 48 d9 ff ff 	movq   $0x0,-0x26b8(%rbp)
    e685:	00 00 00 00 
    e689:	48 8b 85 90 d7 ff ff 	mov    -0x2870(%rbp),%rax
    e690:	8b 00                	mov    (%rax),%eax
    e692:	85 c0                	test   %eax,%eax
    e694:	0f 85 13 04 00 00    	jne    eaad <func_1+0x72f8>
    e69a:	c7 85 24 d6 ff ff 01 	movl   $0x1,-0x29dc(%rbp)
    e6a1:	00 00 00 
    e6a4:	e9 4c 02 00 00       	jmpq   e8f5 <func_1+0x7140>
    e6a9:	48 8d 85 90 dd ff ff 	lea    -0x2270(%rbp),%rax
    e6b0:	48 8d 15 a9 5b 00 00 	lea    0x5ba9(%rip),%rdx        # 14260 <g_1017+0x1a0>
    e6b7:	b9 90 00 00 00       	mov    $0x90,%ecx
    e6bc:	48 89 c7             	mov    %rax,%rdi
    e6bf:	48 89 d6             	mov    %rdx,%rsi
    e6c2:	f3 48 a5             	rep movsq %ds:(%rsi),%es:(%rdi)
    e6c5:	c7 85 28 d6 ff ff 3b 	movl   $0x8004ed3b,-0x29d8(%rbp)
    e6cc:	ed 04 80 
    e6cf:	66 c7 85 b2 d5 ff ff 	movw   $0x5b09,-0x2a4e(%rbp)
    e6d6:	09 5b 
    e6d8:	48 8b 85 30 d9 ff ff 	mov    -0x26d0(%rbp),%rax
    e6df:	48 8d 95 b8 d5 ff ff 	lea    -0x2a48(%rbp),%rdx
    e6e6:	48 89 10             	mov    %rdx,(%rax)
    e6e9:	48 8b 85 30 d9 ff ff 	mov    -0x26d0(%rbp),%rax
    e6f0:	48 8b 10             	mov    (%rax),%rdx
    e6f3:	48 8b 05 36 ca 00 00 	mov    0xca36(%rip),%rax        # 1b130 <g_469+0x30>
    e6fa:	48 39 c2             	cmp    %rax,%rdx
    e6fd:	48 8b 05 34 9d 00 00 	mov    0x9d34(%rip),%rax        # 18438 <g_1012+0x8>
    e704:	48 8b 05 9d cc 00 00 	mov    0xcc9d(%rip),%rax        # 1b3a8 <g_1361>
    e70b:	48 8b 00             	mov    (%rax),%rax
    e70e:	48 8b 00             	mov    (%rax),%rax
    e711:	0f b7 00             	movzwl (%rax),%eax
    e714:	0f bf d8             	movswl %ax,%ebx
    e717:	44 8b 25 26 65 00 00 	mov    0x6526(%rip),%r12d        # 14c44 <l_1443.4495+0x4>
    e71e:	48 8b 05 bb cb 00 00 	mov    0xcbbb(%rip),%rax        # 1b2e0 <g_798>
    e725:	48 8b 00             	mov    (%rax),%rax
    e728:	48 8b 00             	mov    (%rax),%rax
    e72b:	0f b7 00             	movzwl (%rax),%eax
    e72e:	0f bf d0             	movswl %ax,%edx
    e731:	48 8b 05 a0 cb 00 00 	mov    0xcba0(%rip),%rax        # 1b2d8 <g_799>
    e738:	48 8b 00             	mov    (%rax),%rax
    e73b:	0f b7 00             	movzwl (%rax),%eax
    e73e:	98                   	cwtl   
    e73f:	89 d6                	mov    %edx,%esi
    e741:	89 c7                	mov    %eax,%edi
    e743:	e8 4a 7d ff ff       	callq  6492 <safe_lshift_func_int16_t_s_s>
    e748:	66 85 c0             	test   %ax,%ax
    e74b:	0f 94 c0             	sete   %al
    e74e:	0f b6 d0             	movzbl %al,%edx
    e751:	48 8b 8d f8 e0 ff ff 	mov    -0x1f08(%rbp),%rcx
    e758:	48 8b 85 20 d9 ff ff 	mov    -0x26e0(%rbp),%rax
    e75f:	48 8b 00             	mov    (%rax),%rax
    e762:	48 8b 00             	mov    (%rax),%rax
    e765:	48 85 c0             	test   %rax,%rax
    e768:	0f 95 c0             	setne  %al
    e76b:	0f b6 c0             	movzbl %al,%eax
    e76e:	48 31 c8             	xor    %rcx,%rax
    e771:	48 89 85 f8 e0 ff ff 	mov    %rax,-0x1f08(%rbp)
    e778:	48 8b 85 f8 e0 ff ff 	mov    -0x1f08(%rbp),%rax
    e77f:	0f b7 c0             	movzwl %ax,%eax
    e782:	89 d6                	mov    %edx,%esi
    e784:	89 c7                	mov    %eax,%edi
    e786:	e8 74 85 ff ff       	callq  6cff <safe_add_func_uint16_t_u_u>
    e78b:	0f b7 d0             	movzwl %ax,%edx
    e78e:	0f b6 45 be          	movzbl -0x42(%rbp),%eax
    e792:	0f b6 c0             	movzbl %al,%eax
    e795:	09 d0                	or     %edx,%eax
    e797:	41 39 c4             	cmp    %eax,%r12d
    e79a:	0f 96 c0             	setbe  %al
    e79d:	0f b6 c0             	movzbl %al,%eax
    e7a0:	89 de                	mov    %ebx,%esi
    e7a2:	89 c7                	mov    %eax,%edi
    e7a4:	e8 4c 7c ff ff       	callq  63f5 <safe_mul_func_int16_t_s_s>
    e7a9:	0f b6 d0             	movzbl %al,%edx
    e7ac:	8b 05 ce a9 00 00    	mov    0xa9ce(%rip),%eax        # 19180 <g_1019>
    e7b2:	0f b6 c0             	movzbl %al,%eax
    e7b5:	89 d6                	mov    %edx,%esi
    e7b7:	89 c7                	mov    %eax,%edi
    e7b9:	e8 d5 83 ff ff       	callq  6b93 <safe_mul_func_uint8_t_u_u>
    e7be:	0f b6 c0             	movzbl %al,%eax
    e7c1:	8b 95 28 d6 ff ff    	mov    -0x29d8(%rbp),%edx
    e7c7:	89 d6                	mov    %edx,%esi
    e7c9:	89 c7                	mov    %eax,%edi
    e7cb:	e8 78 86 ff ff       	callq  6e48 <safe_rshift_func_uint16_t_u_s>
    e7d0:	48 8b 05 c1 cb 00 00 	mov    0xcbc1(%rip),%rax        # 1b398 <g_1091>
    e7d7:	8b 10                	mov    (%rax),%edx
    e7d9:	48 8b 85 18 d9 ff ff 	mov    -0x26e8(%rbp),%rax
    e7e0:	8b 00                	mov    (%rax),%eax
    e7e2:	31 c2                	xor    %eax,%edx
    e7e4:	48 8b 85 18 d9 ff ff 	mov    -0x26e8(%rbp),%rax
    e7eb:	89 10                	mov    %edx,(%rax)
    e7ed:	48 8b 05 f4 ca 00 00 	mov    0xcaf4(%rip),%rax        # 1b2e8 <g_797>
    e7f4:	48 8b 00             	mov    (%rax),%rax
    e7f7:	48 8b 00             	mov    (%rax),%rax
    e7fa:	48 8b 00             	mov    (%rax),%rax
    e7fd:	0f b7 00             	movzwl (%rax),%eax
    e800:	98                   	cwtl   
    e801:	be 0b 00 00 00       	mov    $0xb,%esi
    e806:	89 c7                	mov    %eax,%edi
    e808:	e8 56 7d ff ff       	callq  6563 <safe_rshift_func_int16_t_s_u>
    e80d:	0f bf d0             	movswl %ax,%edx
    e810:	48 8b 85 90 d7 ff ff 	mov    -0x2870(%rbp),%rax
    e817:	89 10                	mov    %edx,(%rax)
    e819:	48 c7 05 d4 9a 00 00 	movq   $0x0,0x9ad4(%rip)        # 182f8 <g_502+0x8>
    e820:	00 00 00 00 
    e824:	e9 b4 00 00 00       	jmpq   e8dd <func_1+0x7128>
    e829:	c7 85 2c d6 ff ff 00 	movl   $0x0,-0x29d4(%rbp)
    e830:	00 00 00 
    e833:	eb 19                	jmp    e84e <func_1+0x7099>
    e835:	8b 85 2c d6 ff ff    	mov    -0x29d4(%rbp),%eax
    e83b:	48 98                	cltq   
    e83d:	66 c7 84 45 00 db ff 	movw   $0x5cd6,-0x2500(%rbp,%rax,2)
    e844:	ff d6 5c 
    e847:	83 85 2c d6 ff ff 01 	addl   $0x1,-0x29d4(%rbp)
    e84e:	83 bd 2c d6 ff ff 05 	cmpl   $0x5,-0x29d4(%rbp)
    e855:	7e de                	jle    e835 <func_1+0x7080>
    e857:	c6 05 aa 9b 00 00 00 	movb   $0x0,0x9baa(%rip)        # 18408 <g_793>
    e85e:	48 8b 85 18 d9 ff ff 	mov    -0x26e8(%rbp),%rax
    e865:	8b 00                	mov    (%rax),%eax
    e867:	0f b6 d0             	movzbl %al,%edx
    e86a:	0f b7 8d 0a db ff ff 	movzwl -0x24f6(%rbp),%ecx
    e871:	0f b6 45 be          	movzbl -0x42(%rbp),%eax
    e875:	0f b6 c0             	movzbl %al,%eax
    e878:	66 39 c1             	cmp    %ax,%cx
    e87b:	0f 96 c0             	setbe  %al
    e87e:	0f b6 c8             	movzbl %al,%ecx
    e881:	0f b7 85 b2 d5 ff ff 	movzwl -0x2a4e(%rbp),%eax
    e888:	39 c1                	cmp    %eax,%ecx
    e88a:	0f 95 c0             	setne  %al
    e88d:	0f b6 c0             	movzbl %al,%eax
    e890:	89 d6                	mov    %edx,%esi
    e892:	89 c7                	mov    %eax,%edi
    e894:	e8 c1 82 ff ff       	callq  6b5a <safe_add_func_uint8_t_u_u>
    e899:	0f be c0             	movsbl %al,%eax
    e89c:	be 00 00 00 00       	mov    $0x0,%esi
    e8a1:	89 c7                	mov    %eax,%edi
    e8a3:	e8 c2 79 ff ff       	callq  626a <safe_div_func_int8_t_s_s>
    e8a8:	0f be c0             	movsbl %al,%eax
    e8ab:	31 85 28 d6 ff ff    	xor    %eax,-0x29d8(%rbp)
    e8b1:	0f b7 05 60 cf 00 00 	movzwl 0xcf60(%rip),%eax        # 1b818 <g_1461>
    e8b8:	66 85 c0             	test   %ax,%ax
    e8bb:	75 0d                	jne    e8ca <func_1+0x7115>
    e8bd:	48 8b 05 d4 ca 00 00 	mov    0xcad4(%rip),%rax        # 1b398 <g_1091>
    e8c4:	8b 00                	mov    (%rax),%eax
    e8c6:	85 c0                	test   %eax,%eax
    e8c8:	eb 01                	jmp    e8cb <func_1+0x7116>
    e8ca:	90                   	nop
    e8cb:	48 8b 05 26 9a 00 00 	mov    0x9a26(%rip),%rax        # 182f8 <g_502+0x8>
    e8d2:	48 83 c0 01          	add    $0x1,%rax
    e8d6:	48 89 05 1b 9a 00 00 	mov    %rax,0x9a1b(%rip)        # 182f8 <g_502+0x8>
    e8dd:	48 8b 05 14 9a 00 00 	mov    0x9a14(%rip),%rax        # 182f8 <g_502+0x8>
    e8e4:	48 83 f8 05          	cmp    $0x5,%rax
    e8e8:	0f 86 3b ff ff ff    	jbe    e829 <func_1+0x7074>
    e8ee:	83 85 24 d6 ff ff 01 	addl   $0x1,-0x29dc(%rbp)
    e8f5:	83 bd 24 d6 ff ff 05 	cmpl   $0x5,-0x29dc(%rbp)
    e8fc:	0f 86 a7 fd ff ff    	jbe    e6a9 <func_1+0x6ef4>
    e902:	66 c7 05 0d cf 00 00 	movw   $0xffe2,0xcf0d(%rip)        # 1b818 <g_1461>
    e909:	e2 ff 
    e90b:	90                   	nop
    e90c:	0f b7 05 05 cf 00 00 	movzwl 0xcf05(%rip),%eax        # 1b818 <g_1461>
    e913:	66 83 f8 fd          	cmp    $0xfffd,%ax
    e917:	7c 18                	jl     e931 <func_1+0x717c>
    e919:	48 8b 05 c8 c9 00 00 	mov    0xc9c8(%rip),%rax        # 1b2e8 <g_797>
    e920:	48 8b 00             	mov    (%rax),%rax
    e923:	48 8b 00             	mov    (%rax),%rax
    e926:	48 8b 00             	mov    (%rax),%rax
    e929:	0f b7 00             	movzwl (%rax),%eax
    e92c:	e9 86 01 00 00       	jmpq   eab7 <func_1+0x7302>
    e931:	48 c7 05 6c a8 00 00 	movq   $0x0,0xa86c(%rip)        # 191a8 <g_1347+0x8>
    e938:	00 00 00 00 
    e93c:	e9 f1 00 00 00       	jmpq   ea32 <func_1+0x727d>
    e941:	48 8b 05 80 c7 00 00 	mov    0xc780(%rip),%rax        # 1b0c8 <g_213>
    e948:	48 8b 00             	mov    (%rax),%rax
    e94b:	8b 00                	mov    (%rax),%eax
    e94d:	85 c0                	test   %eax,%eax
    e94f:	0f 85 f0 00 00 00    	jne    ea45 <func_1+0x7290>
    e955:	66 c7 05 ba ce 00 00 	movw   $0xfff5,0xceba(%rip)        # 1b818 <g_1461>
    e95c:	f5 ff 
    e95e:	90                   	nop
    e95f:	0f b7 05 b2 ce 00 00 	movzwl 0xceb2(%rip),%eax        # 1b818 <g_1461>
    e966:	66 83 f8 f8          	cmp    $0xfff8,%ax
    e96a:	0f 8c a1 00 00 00    	jl     ea11 <func_1+0x725c>
    e970:	c6 85 86 d5 ff ff ff 	movb   $0xff,-0x2a7a(%rbp)
    e977:	48 0f be 95 86 d5 ff 	movsbq -0x2a7a(%rbp),%rdx
    e97e:	ff 
    e97f:	48 8b 85 28 d9 ff ff 	mov    -0x26d8(%rbp),%rax
    e986:	48 89 10             	mov    %rdx,(%rax)
    e989:	48 8b 85 48 d9 ff ff 	mov    -0x26b8(%rbp),%rax
    e990:	89 c2                	mov    %eax,%edx
    e992:	0f b7 05 c7 9e 00 00 	movzwl 0x9ec7(%rip),%eax        # 18860 <g_1018+0x400>
    e999:	88 05 fa a7 00 00    	mov    %al,0xa7fa(%rip)        # 19199 <g_1104+0x1>
    e99f:	0f b6 05 f3 a7 00 00 	movzbl 0xa7f3(%rip),%eax        # 19199 <g_1104+0x1>
    e9a6:	0f be c0             	movsbl %al,%eax
    e9a9:	89 d6                	mov    %edx,%esi
    e9ab:	89 c7                	mov    %eax,%edi
    e9ad:	e8 ba 79 ff ff       	callq  636c <safe_rshift_func_int8_t_s_u>
    e9b2:	c7 85 44 d6 ff ff 01 	movl   $0x1,-0x29bc(%rbp)
    e9b9:	00 00 00 
    e9bc:	48 c7 85 f8 d6 ff ff 	movq   $0xc,-0x2908(%rbp)
    e9c3:	0c 00 00 00 
    e9c7:	eb 23                	jmp    e9ec <func_1+0x7237>
    e9c9:	48 8b 85 d8 d6 ff ff 	mov    -0x2928(%rbp),%rax
    e9d0:	48 8b 95 a0 d7 ff ff 	mov    -0x2860(%rbp),%rdx
    e9d7:	48 89 10             	mov    %rdx,(%rax)
    e9da:	48 8b 85 f8 d6 ff ff 	mov    -0x2908(%rbp),%rax
    e9e1:	48 83 e8 01          	sub    $0x1,%rax
    e9e5:	48 89 85 f8 d6 ff ff 	mov    %rax,-0x2908(%rbp)
    e9ec:	48 8b 85 f8 d6 ff ff 	mov    -0x2908(%rbp),%rax
    e9f3:	48 83 f8 f9          	cmp    $0xfffffffffffffff9,%rax
    e9f7:	75 d0                	jne    e9c9 <func_1+0x7214>
    e9f9:	48 8b 05 e8 c8 00 00 	mov    0xc8e8(%rip),%rax        # 1b2e8 <g_797>
    ea00:	48 8b 00             	mov    (%rax),%rax
    ea03:	48 8b 00             	mov    (%rax),%rax
    ea06:	48 8b 00             	mov    (%rax),%rax
    ea09:	0f b7 00             	movzwl (%rax),%eax
    ea0c:	e9 a6 00 00 00       	jmpq   eab7 <func_1+0x7302>
    ea11:	48 8b 05 90 a7 00 00 	mov    0xa790(%rip),%rax        # 191a8 <g_1347+0x8>
    ea18:	0f be c0             	movsbl %al,%eax
    ea1b:	be 08 00 00 00       	mov    $0x8,%esi
    ea20:	89 c7                	mov    %eax,%edi
    ea22:	e8 ad 77 ff ff       	callq  61d4 <safe_add_func_int8_t_s_s>
    ea27:	48 0f be c0          	movsbq %al,%rax
    ea2b:	48 89 05 76 a7 00 00 	mov    %rax,0xa776(%rip)        # 191a8 <g_1347+0x8>
    ea32:	48 8b 05 6f a7 00 00 	mov    0xa76f(%rip),%rax        # 191a8 <g_1347+0x8>
    ea39:	48 83 f8 38          	cmp    $0x38,%rax
    ea3d:	0f 87 fe fe ff ff    	ja     e941 <func_1+0x718c>
    ea43:	eb 01                	jmp    ea46 <func_1+0x7291>
    ea45:	90                   	nop
    ea46:	48 8b 05 83 c6 00 00 	mov    0xc683(%rip),%rax        # 1b0d0 <g_212>
    ea4d:	48 8b 00             	mov    (%rax),%rax
    ea50:	48 8b 00             	mov    (%rax),%rax
    ea53:	8b 00                	mov    (%rax),%eax
    ea55:	85 c0                	test   %eax,%eax
    ea57:	75 25                	jne    ea7e <func_1+0x72c9>
    ea59:	c7 85 34 d6 ff ff 00 	movl   $0x0,-0x29cc(%rbp)
    ea60:	00 00 00 
    ea63:	83 bd 34 d6 ff ff 00 	cmpl   $0x0,-0x29cc(%rbp)
    ea6a:	78 13                	js     ea7f <func_1+0x72ca>
    ea6c:	8b 85 34 d6 ff ff    	mov    -0x29cc(%rbp),%eax
    ea72:	48 98                	cltq   
    ea74:	0f b7 84 45 52 d9 ff 	movzwl -0x26ae(%rbp,%rax,2),%eax
    ea7b:	ff 
    ea7c:	eb 39                	jmp    eab7 <func_1+0x7302>
    ea7e:	90                   	nop
    ea7f:	0f b7 05 2a a7 00 00 	movzwl 0xa72a(%rip),%eax        # 191b0 <g_1347+0x10>
    ea86:	0f b7 c0             	movzwl %ax,%eax
    ea89:	be 01 00 00 00       	mov    $0x1,%esi
    ea8e:	89 c7                	mov    %eax,%edi
    ea90:	e8 23 84 ff ff       	callq  6eb8 <safe_add_func_uint32_t_u_u>
    ea95:	66 89 05 14 a7 00 00 	mov    %ax,0xa714(%rip)        # 191b0 <g_1347+0x10>
    ea9c:	0f b7 05 0d a7 00 00 	movzwl 0xa70d(%rip),%eax        # 191b0 <g_1347+0x10>
    eaa3:	66 83 f8 04          	cmp    $0x4,%ax
    eaa7:	0f 84 b1 ec ff ff    	je     d75e <func_1+0x5fa9>
    eaad:	48 8b 05 f4 c5 00 00 	mov    0xc5f4(%rip),%rax        # 1b0a8 <g_78>
    eab4:	0f b7 00             	movzwl (%rax),%eax
    eab7:	48 8b 5d c8          	mov    -0x38(%rbp),%rbx
    eabb:	64 48 33 1c 25 28 00 	xor    %fs:0x28,%rbx
    eac2:	00 00 
    eac4:	74 05                	je     eacb <func_1+0x7316>
    eac6:	e8 a5 75 ff ff       	callq  6070 <__stack_chk_fail@plt>
    eacb:	48 81 c4 98 2a 00 00 	add    $0x2a98,%rsp
    ead2:	5b                   	pop    %rbx
    ead3:	41 5c                	pop    %r12
    ead5:	41 5d                	pop    %r13
    ead7:	41 5e                	pop    %r14
    ead9:	41 5f                	pop    %r15
    eadb:	5d                   	pop    %rbp
    eadc:	c3                   	retq   

000000000000eadd <func_6>:
    eadd:	f3 0f 1e fa          	endbr64 
    eae1:	55                   	push   %rbp
    eae2:	48 89 e5             	mov    %rsp,%rbp
    eae5:	89 7d fc             	mov    %edi,-0x4(%rbp)
    eae8:	89 f0                	mov    %esi,%eax
    eaea:	66 89 45 f8          	mov    %ax,-0x8(%rbp)
    eaee:	48 0f bf 45 f8       	movswq -0x8(%rbp),%rax
    eaf3:	5d                   	pop    %rbp
    eaf4:	c3                   	retq   

000000000000eaf5 <func_10>:
    eaf5:	f3 0f 1e fa          	endbr64 
    eaf9:	55                   	push   %rbp
    eafa:	48 89 e5             	mov    %rsp,%rbp
    eafd:	48 81 ec 50 07 00 00 	sub    $0x750,%rsp
    eb04:	89 f8                	mov    %edi,%eax
    eb06:	89 f2                	mov    %esi,%edx
    eb08:	66 89 85 bc f8 ff ff 	mov    %ax,-0x744(%rbp)
    eb0f:	89 d0                	mov    %edx,%eax
    eb11:	88 85 b8 f8 ff ff    	mov    %al,-0x748(%rbp)
    eb17:	64 48 8b 04 25 28 00 	mov    %fs:0x28,%rax
    eb1e:	00 00 
    eb20:	48 89 45 f8          	mov    %rax,-0x8(%rbp)
    eb24:	31 c0                	xor    %eax,%eax
    eb26:	48 8d 05 93 c5 00 00 	lea    0xc593(%rip),%rax        # 1b0c0 <g_168>
    eb2d:	48 89 85 d0 f8 ff ff 	mov    %rax,-0x730(%rbp)
    eb34:	48 8d 85 d0 f8 ff ff 	lea    -0x730(%rbp),%rax
    eb3b:	48 89 85 d8 f8 ff ff 	mov    %rax,-0x728(%rbp)
    eb42:	48 8d 85 d8 f8 ff ff 	lea    -0x728(%rbp),%rax
    eb49:	48 89 85 e0 f8 ff ff 	mov    %rax,-0x720(%rbp)
    eb50:	48 8d 05 75 96 00 00 	lea    0x9675(%rip),%rax        # 181cc <g_117>
    eb57:	48 89 85 e8 f8 ff ff 	mov    %rax,-0x718(%rbp)
    eb5e:	c7 85 c0 f8 ff ff fa 	movl   $0xfffffffa,-0x740(%rbp)
    eb65:	ff ff ff 
    eb68:	c7 85 c4 f8 ff ff ff 	movl   $0xffffffff,-0x73c(%rbp)
    eb6f:	ff ff ff 
    eb72:	48 8d 05 cf 97 00 00 	lea    0x97cf(%rip),%rax        # 18348 <g_624+0x18>
    eb79:	48 89 85 f0 f8 ff ff 	mov    %rax,-0x710(%rbp)
    eb80:	48 8d 05 45 96 00 00 	lea    0x9645(%rip),%rax        # 181cc <g_117>
    eb87:	48 89 85 f8 f8 ff ff 	mov    %rax,-0x708(%rbp)
    eb8e:	48 8d 05 b3 97 00 00 	lea    0x97b3(%rip),%rax        # 18348 <g_624+0x18>
    eb95:	48 89 85 00 f9 ff ff 	mov    %rax,-0x700(%rbp)
    eb9c:	48 8d 05 91 97 00 00 	lea    0x9791(%rip),%rax        # 18334 <g_624+0x4>
    eba3:	48 89 85 08 f9 ff ff 	mov    %rax,-0x6f8(%rbp)
    ebaa:	48 8d 05 1b 96 00 00 	lea    0x961b(%rip),%rax        # 181cc <g_117>
    ebb1:	48 89 85 10 f9 ff ff 	mov    %rax,-0x6f0(%rbp)
    ebb8:	48 c7 85 18 f9 ff ff 	movq   $0x0,-0x6e8(%rbp)
    ebbf:	00 00 00 00 
    ebc3:	48 8d 05 76 97 00 00 	lea    0x9776(%rip),%rax        # 18340 <g_624+0x10>
    ebca:	48 89 85 20 f9 ff ff 	mov    %rax,-0x6e0(%rbp)
    ebd1:	48 8d 05 54 94 00 00 	lea    0x9454(%rip),%rax        # 1802c <g_56>
    ebd8:	48 89 85 28 f9 ff ff 	mov    %rax,-0x6d8(%rbp)
    ebdf:	48 8d 05 46 94 00 00 	lea    0x9446(%rip),%rax        # 1802c <g_56>
    ebe6:	48 89 85 30 f9 ff ff 	mov    %rax,-0x6d0(%rbp)
    ebed:	48 8d 85 c0 f8 ff ff 	lea    -0x740(%rbp),%rax
    ebf4:	48 89 85 38 f9 ff ff 	mov    %rax,-0x6c8(%rbp)
    ebfb:	48 c7 85 40 f9 ff ff 	movq   $0x0,-0x6c0(%rbp)
    ec02:	00 00 00 00 
    ec06:	48 c7 85 48 f9 ff ff 	movq   $0x0,-0x6b8(%rbp)
    ec0d:	00 00 00 00 
    ec11:	48 8d 85 c0 f8 ff ff 	lea    -0x740(%rbp),%rax
    ec18:	48 89 85 50 f9 ff ff 	mov    %rax,-0x6b0(%rbp)
    ec1f:	48 c7 85 58 f9 ff ff 	movq   $0x0,-0x6a8(%rbp)
    ec26:	00 00 00 00 
    ec2a:	48 c7 85 60 f9 ff ff 	movq   $0x0,-0x6a0(%rbp)
    ec31:	00 00 00 00 
    ec35:	48 8d 85 c0 f8 ff ff 	lea    -0x740(%rbp),%rax
    ec3c:	48 89 85 68 f9 ff ff 	mov    %rax,-0x698(%rbp)
    ec43:	48 8d 05 e2 93 00 00 	lea    0x93e2(%rip),%rax        # 1802c <g_56>
    ec4a:	48 89 85 70 f9 ff ff 	mov    %rax,-0x690(%rbp)
    ec51:	48 8d 05 dc 96 00 00 	lea    0x96dc(%rip),%rax        # 18334 <g_624+0x4>
    ec58:	48 89 85 78 f9 ff ff 	mov    %rax,-0x688(%rbp)
    ec5f:	48 8d 05 da 96 00 00 	lea    0x96da(%rip),%rax        # 18340 <g_624+0x10>
    ec66:	48 89 85 80 f9 ff ff 	mov    %rax,-0x680(%rbp)
    ec6d:	48 8d 05 d4 96 00 00 	lea    0x96d4(%rip),%rax        # 18348 <g_624+0x18>
    ec74:	48 89 85 88 f9 ff ff 	mov    %rax,-0x678(%rbp)
    ec7b:	48 8d 05 4a 95 00 00 	lea    0x954a(%rip),%rax        # 181cc <g_117>
    ec82:	48 89 85 90 f9 ff ff 	mov    %rax,-0x670(%rbp)
    ec89:	48 8d 05 3c 95 00 00 	lea    0x953c(%rip),%rax        # 181cc <g_117>
    ec90:	48 89 85 98 f9 ff ff 	mov    %rax,-0x668(%rbp)
    ec97:	48 8d 05 aa 96 00 00 	lea    0x96aa(%rip),%rax        # 18348 <g_624+0x18>
    ec9e:	48 89 85 a0 f9 ff ff 	mov    %rax,-0x660(%rbp)
    eca5:	48 8d 85 c4 f8 ff ff 	lea    -0x73c(%rbp),%rax
    ecac:	48 89 85 a8 f9 ff ff 	mov    %rax,-0x658(%rbp)
    ecb3:	48 8d 05 8e 96 00 00 	lea    0x968e(%rip),%rax        # 18348 <g_624+0x18>
    ecba:	48 89 85 b0 f9 ff ff 	mov    %rax,-0x650(%rbp)
    ecc1:	48 8d 85 c4 f8 ff ff 	lea    -0x73c(%rbp),%rax
    ecc8:	48 89 85 b8 f9 ff ff 	mov    %rax,-0x648(%rbp)
    eccf:	48 8d 05 56 93 00 00 	lea    0x9356(%rip),%rax        # 1802c <g_56>
    ecd6:	48 89 85 c0 f9 ff ff 	mov    %rax,-0x640(%rbp)
    ecdd:	48 8d 85 c4 f8 ff ff 	lea    -0x73c(%rbp),%rax
    ece4:	48 89 85 c8 f9 ff ff 	mov    %rax,-0x638(%rbp)
    eceb:	48 c7 85 d0 f9 ff ff 	movq   $0x0,-0x630(%rbp)
    ecf2:	00 00 00 00 
    ecf6:	48 8d 05 43 96 00 00 	lea    0x9643(%rip),%rax        # 18340 <g_624+0x10>
    ecfd:	48 89 85 d8 f9 ff ff 	mov    %rax,-0x628(%rbp)
    ed04:	48 8d 85 c4 f8 ff ff 	lea    -0x73c(%rbp),%rax
    ed0b:	48 89 85 e0 f9 ff ff 	mov    %rax,-0x620(%rbp)
    ed12:	48 c7 85 e8 f9 ff ff 	movq   $0x0,-0x618(%rbp)
    ed19:	00 00 00 00 
    ed1d:	48 8d 05 24 96 00 00 	lea    0x9624(%rip),%rax        # 18348 <g_624+0x18>
    ed24:	48 89 85 f0 f9 ff ff 	mov    %rax,-0x610(%rbp)
    ed2b:	48 8d 05 9a 94 00 00 	lea    0x949a(%rip),%rax        # 181cc <g_117>
    ed32:	48 89 85 f8 f9 ff ff 	mov    %rax,-0x608(%rbp)
    ed39:	48 8d 05 8c 94 00 00 	lea    0x948c(%rip),%rax        # 181cc <g_117>
    ed40:	48 89 85 00 fa ff ff 	mov    %rax,-0x600(%rbp)
    ed47:	48 8d 85 c0 f8 ff ff 	lea    -0x740(%rbp),%rax
    ed4e:	48 89 85 08 fa ff ff 	mov    %rax,-0x5f8(%rbp)
    ed55:	48 8d 85 c4 f8 ff ff 	lea    -0x73c(%rbp),%rax
    ed5c:	48 89 85 10 fa ff ff 	mov    %rax,-0x5f0(%rbp)
    ed63:	48 8d 85 c0 f8 ff ff 	lea    -0x740(%rbp),%rax
    ed6a:	48 89 85 18 fa ff ff 	mov    %rax,-0x5e8(%rbp)
    ed71:	48 c7 85 20 fa ff ff 	movq   $0x0,-0x5e0(%rbp)
    ed78:	00 00 00 00 
    ed7c:	48 c7 85 28 fa ff ff 	movq   $0x0,-0x5d8(%rbp)
    ed83:	00 00 00 00 
    ed87:	48 8d 85 c4 f8 ff ff 	lea    -0x73c(%rbp),%rax
    ed8e:	48 89 85 30 fa ff ff 	mov    %rax,-0x5d0(%rbp)
    ed95:	48 8d 85 c4 f8 ff ff 	lea    -0x73c(%rbp),%rax
    ed9c:	48 89 85 38 fa ff ff 	mov    %rax,-0x5c8(%rbp)
    eda3:	48 8d 05 22 94 00 00 	lea    0x9422(%rip),%rax        # 181cc <g_117>
    edaa:	48 89 85 40 fa ff ff 	mov    %rax,-0x5c0(%rbp)
    edb1:	48 8d 05 7c 95 00 00 	lea    0x957c(%rip),%rax        # 18334 <g_624+0x4>
    edb8:	48 89 85 48 fa ff ff 	mov    %rax,-0x5b8(%rbp)
    edbf:	48 8d 05 82 95 00 00 	lea    0x9582(%rip),%rax        # 18348 <g_624+0x18>
    edc6:	48 89 85 50 fa ff ff 	mov    %rax,-0x5b0(%rbp)
    edcd:	48 c7 85 58 fa ff ff 	movq   $0x0,-0x5a8(%rbp)
    edd4:	00 00 00 00 
    edd8:	48 8d 85 c4 f8 ff ff 	lea    -0x73c(%rbp),%rax
    eddf:	48 89 85 60 fa ff ff 	mov    %rax,-0x5a0(%rbp)
    ede6:	48 8d 05 df 93 00 00 	lea    0x93df(%rip),%rax        # 181cc <g_117>
    eded:	48 89 85 68 fa ff ff 	mov    %rax,-0x598(%rbp)
    edf4:	48 8d 85 c0 f8 ff ff 	lea    -0x740(%rbp),%rax
    edfb:	48 89 85 70 fa ff ff 	mov    %rax,-0x590(%rbp)
    ee02:	48 8d 05 23 92 00 00 	lea    0x9223(%rip),%rax        # 1802c <g_56>
    ee09:	48 89 85 78 fa ff ff 	mov    %rax,-0x588(%rbp)
    ee10:	48 8d 05 15 92 00 00 	lea    0x9215(%rip),%rax        # 1802c <g_56>
    ee17:	48 89 85 80 fa ff ff 	mov    %rax,-0x580(%rbp)
    ee1e:	48 8d 85 c4 f8 ff ff 	lea    -0x73c(%rbp),%rax
    ee25:	48 89 85 88 fa ff ff 	mov    %rax,-0x578(%rbp)
    ee2c:	48 c7 85 90 fa ff ff 	movq   $0x0,-0x570(%rbp)
    ee33:	00 00 00 00 
    ee37:	48 8d 05 ee 91 00 00 	lea    0x91ee(%rip),%rax        # 1802c <g_56>
    ee3e:	48 89 85 98 fa ff ff 	mov    %rax,-0x568(%rbp)
    ee45:	48 c7 85 a0 fa ff ff 	movq   $0x0,-0x560(%rbp)
    ee4c:	00 00 00 00 
    ee50:	48 8d 05 75 93 00 00 	lea    0x9375(%rip),%rax        # 181cc <g_117>
    ee57:	48 89 85 a8 fa ff ff 	mov    %rax,-0x558(%rbp)
    ee5e:	48 8d 05 c7 91 00 00 	lea    0x91c7(%rip),%rax        # 1802c <g_56>
    ee65:	48 89 85 b0 fa ff ff 	mov    %rax,-0x550(%rbp)
    ee6c:	48 c7 85 b8 fa ff ff 	movq   $0x0,-0x548(%rbp)
    ee73:	00 00 00 00 
    ee77:	48 8d 05 ae 91 00 00 	lea    0x91ae(%rip),%rax        # 1802c <g_56>
    ee7e:	48 89 85 c0 fa ff ff 	mov    %rax,-0x540(%rbp)
    ee85:	48 8d 05 a8 94 00 00 	lea    0x94a8(%rip),%rax        # 18334 <g_624+0x4>
    ee8c:	48 89 85 c8 fa ff ff 	mov    %rax,-0x538(%rbp)
    ee93:	48 8d 05 9a 94 00 00 	lea    0x949a(%rip),%rax        # 18334 <g_624+0x4>
    ee9a:	48 89 85 d0 fa ff ff 	mov    %rax,-0x530(%rbp)
    eea1:	48 8d 85 c4 f8 ff ff 	lea    -0x73c(%rbp),%rax
    eea8:	48 89 85 d8 fa ff ff 	mov    %rax,-0x528(%rbp)
    eeaf:	48 8d 85 c0 f8 ff ff 	lea    -0x740(%rbp),%rax
    eeb6:	48 89 85 e0 fa ff ff 	mov    %rax,-0x520(%rbp)
    eebd:	48 c7 85 e8 fa ff ff 	movq   $0x0,-0x518(%rbp)
    eec4:	00 00 00 00 
    eec8:	48 8d 85 c0 f8 ff ff 	lea    -0x740(%rbp),%rax
    eecf:	48 89 85 f0 fa ff ff 	mov    %rax,-0x510(%rbp)
    eed6:	48 8d 85 c0 f8 ff ff 	lea    -0x740(%rbp),%rax
    eedd:	48 89 85 f8 fa ff ff 	mov    %rax,-0x508(%rbp)
    eee4:	48 8d 85 c0 f8 ff ff 	lea    -0x740(%rbp),%rax
    eeeb:	48 89 85 00 fb ff ff 	mov    %rax,-0x500(%rbp)
    eef2:	48 8d 85 c0 f8 ff ff 	lea    -0x740(%rbp),%rax
    eef9:	48 89 85 08 fb ff ff 	mov    %rax,-0x4f8(%rbp)
    ef00:	48 8d 05 2d 94 00 00 	lea    0x942d(%rip),%rax        # 18334 <g_624+0x4>
    ef07:	48 89 85 10 fb ff ff 	mov    %rax,-0x4f0(%rbp)
    ef0e:	48 8d 05 b7 92 00 00 	lea    0x92b7(%rip),%rax        # 181cc <g_117>
    ef15:	48 89 85 18 fb ff ff 	mov    %rax,-0x4e8(%rbp)
    ef1c:	48 8d 05 09 91 00 00 	lea    0x9109(%rip),%rax        # 1802c <g_56>
    ef23:	48 89 85 20 fb ff ff 	mov    %rax,-0x4e0(%rbp)
    ef2a:	48 c7 85 28 fb ff ff 	movq   $0x0,-0x4d8(%rbp)
    ef31:	00 00 00 00 
    ef35:	48 8d 05 f0 90 00 00 	lea    0x90f0(%rip),%rax        # 1802c <g_56>
    ef3c:	48 89 85 30 fb ff ff 	mov    %rax,-0x4d0(%rbp)
    ef43:	48 8d 05 f6 93 00 00 	lea    0x93f6(%rip),%rax        # 18340 <g_624+0x10>
    ef4a:	48 89 85 38 fb ff ff 	mov    %rax,-0x4c8(%rbp)
    ef51:	48 c7 85 40 fb ff ff 	movq   $0x0,-0x4c0(%rbp)
    ef58:	00 00 00 00 
    ef5c:	48 8d 05 69 92 00 00 	lea    0x9269(%rip),%rax        # 181cc <g_117>
    ef63:	48 89 85 48 fb ff ff 	mov    %rax,-0x4b8(%rbp)
    ef6a:	48 c7 85 50 fb ff ff 	movq   $0x0,-0x4b0(%rbp)
    ef71:	00 00 00 00 
    ef75:	48 8d 05 50 92 00 00 	lea    0x9250(%rip),%rax        # 181cc <g_117>
    ef7c:	48 89 85 58 fb ff ff 	mov    %rax,-0x4a8(%rbp)
    ef83:	48 8d 05 a2 90 00 00 	lea    0x90a2(%rip),%rax        # 1802c <g_56>
    ef8a:	48 89 85 60 fb ff ff 	mov    %rax,-0x4a0(%rbp)
    ef91:	48 8d 05 34 92 00 00 	lea    0x9234(%rip),%rax        # 181cc <g_117>
    ef98:	48 89 85 68 fb ff ff 	mov    %rax,-0x498(%rbp)
    ef9f:	48 8d 85 c0 f8 ff ff 	lea    -0x740(%rbp),%rax
    efa6:	48 89 85 70 fb ff ff 	mov    %rax,-0x490(%rbp)
    efad:	48 8d 05 8c 93 00 00 	lea    0x938c(%rip),%rax        # 18340 <g_624+0x10>
    efb4:	48 89 85 78 fb ff ff 	mov    %rax,-0x488(%rbp)
    efbb:	48 8d 85 c4 f8 ff ff 	lea    -0x73c(%rbp),%rax
    efc2:	48 89 85 80 fb ff ff 	mov    %rax,-0x480(%rbp)
    efc9:	48 c7 85 88 fb ff ff 	movq   $0x0,-0x478(%rbp)
    efd0:	00 00 00 00 
    efd4:	48 8d 05 6d 93 00 00 	lea    0x936d(%rip),%rax        # 18348 <g_624+0x18>
    efdb:	48 89 85 90 fb ff ff 	mov    %rax,-0x470(%rbp)
    efe2:	48 8d 05 e3 91 00 00 	lea    0x91e3(%rip),%rax        # 181cc <g_117>
    efe9:	48 89 85 98 fb ff ff 	mov    %rax,-0x468(%rbp)
    eff0:	48 8d 05 d5 91 00 00 	lea    0x91d5(%rip),%rax        # 181cc <g_117>
    eff7:	48 89 85 a0 fb ff ff 	mov    %rax,-0x460(%rbp)
    effe:	48 8d 85 c0 f8 ff ff 	lea    -0x740(%rbp),%rax
    f005:	48 89 85 a8 fb ff ff 	mov    %rax,-0x458(%rbp)
    f00c:	48 8d 85 c4 f8 ff ff 	lea    -0x73c(%rbp),%rax
    f013:	48 89 85 b0 fb ff ff 	mov    %rax,-0x450(%rbp)
    f01a:	48 8d 85 c0 f8 ff ff 	lea    -0x740(%rbp),%rax
    f021:	48 89 85 b8 fb ff ff 	mov    %rax,-0x448(%rbp)
    f028:	48 c7 85 c0 fb ff ff 	movq   $0x0,-0x440(%rbp)
    f02f:	00 00 00 00 
    f033:	48 c7 85 c8 fb ff ff 	movq   $0x0,-0x438(%rbp)
    f03a:	00 00 00 00 
    f03e:	48 8d 85 c4 f8 ff ff 	lea    -0x73c(%rbp),%rax
    f045:	48 89 85 d0 fb ff ff 	mov    %rax,-0x430(%rbp)
    f04c:	48 8d 85 c4 f8 ff ff 	lea    -0x73c(%rbp),%rax
    f053:	48 89 85 d8 fb ff ff 	mov    %rax,-0x428(%rbp)
    f05a:	48 8d 05 6b 91 00 00 	lea    0x916b(%rip),%rax        # 181cc <g_117>
    f061:	48 89 85 e0 fb ff ff 	mov    %rax,-0x420(%rbp)
    f068:	48 8d 05 c5 92 00 00 	lea    0x92c5(%rip),%rax        # 18334 <g_624+0x4>
    f06f:	48 89 85 e8 fb ff ff 	mov    %rax,-0x418(%rbp)
    f076:	48 8d 05 cb 92 00 00 	lea    0x92cb(%rip),%rax        # 18348 <g_624+0x18>
    f07d:	48 89 85 f0 fb ff ff 	mov    %rax,-0x410(%rbp)
    f084:	48 c7 85 f8 fb ff ff 	movq   $0x0,-0x408(%rbp)
    f08b:	00 00 00 00 
    f08f:	48 8d 85 c4 f8 ff ff 	lea    -0x73c(%rbp),%rax
    f096:	48 89 85 00 fc ff ff 	mov    %rax,-0x400(%rbp)
    f09d:	48 8d 05 28 91 00 00 	lea    0x9128(%rip),%rax        # 181cc <g_117>
    f0a4:	48 89 85 08 fc ff ff 	mov    %rax,-0x3f8(%rbp)
    f0ab:	48 8d 85 c0 f8 ff ff 	lea    -0x740(%rbp),%rax
    f0b2:	48 89 85 10 fc ff ff 	mov    %rax,-0x3f0(%rbp)
    f0b9:	48 8d 05 6c 8f 00 00 	lea    0x8f6c(%rip),%rax        # 1802c <g_56>
    f0c0:	48 89 85 18 fc ff ff 	mov    %rax,-0x3e8(%rbp)
    f0c7:	48 8d 05 5e 8f 00 00 	lea    0x8f5e(%rip),%rax        # 1802c <g_56>
    f0ce:	48 89 85 20 fc ff ff 	mov    %rax,-0x3e0(%rbp)
    f0d5:	48 8d 85 c4 f8 ff ff 	lea    -0x73c(%rbp),%rax
    f0dc:	48 89 85 28 fc ff ff 	mov    %rax,-0x3d8(%rbp)
    f0e3:	48 c7 85 30 fc ff ff 	movq   $0x0,-0x3d0(%rbp)
    f0ea:	00 00 00 00 
    f0ee:	48 8d 05 37 8f 00 00 	lea    0x8f37(%rip),%rax        # 1802c <g_56>
    f0f5:	48 89 85 38 fc ff ff 	mov    %rax,-0x3c8(%rbp)
    f0fc:	48 c7 85 40 fc ff ff 	movq   $0x0,-0x3c0(%rbp)
    f103:	00 00 00 00 
    f107:	48 8d 05 be 90 00 00 	lea    0x90be(%rip),%rax        # 181cc <g_117>
    f10e:	48 89 85 48 fc ff ff 	mov    %rax,-0x3b8(%rbp)
    f115:	48 8d 05 10 8f 00 00 	lea    0x8f10(%rip),%rax        # 1802c <g_56>
    f11c:	48 89 85 50 fc ff ff 	mov    %rax,-0x3b0(%rbp)
    f123:	48 c7 85 58 fc ff ff 	movq   $0x0,-0x3a8(%rbp)
    f12a:	00 00 00 00 
    f12e:	48 8d 05 f7 8e 00 00 	lea    0x8ef7(%rip),%rax        # 1802c <g_56>
    f135:	48 89 85 60 fc ff ff 	mov    %rax,-0x3a0(%rbp)
    f13c:	48 8d 05 f1 91 00 00 	lea    0x91f1(%rip),%rax        # 18334 <g_624+0x4>
    f143:	48 89 85 68 fc ff ff 	mov    %rax,-0x398(%rbp)
    f14a:	48 8d 05 e3 91 00 00 	lea    0x91e3(%rip),%rax        # 18334 <g_624+0x4>
    f151:	48 89 85 70 fc ff ff 	mov    %rax,-0x390(%rbp)
    f158:	48 8d 85 c4 f8 ff ff 	lea    -0x73c(%rbp),%rax
    f15f:	48 89 85 78 fc ff ff 	mov    %rax,-0x388(%rbp)
    f166:	48 8d 85 c0 f8 ff ff 	lea    -0x740(%rbp),%rax
    f16d:	48 89 85 80 fc ff ff 	mov    %rax,-0x380(%rbp)
    f174:	48 c7 85 88 fc ff ff 	movq   $0x0,-0x378(%rbp)
    f17b:	00 00 00 00 
    f17f:	48 8d 85 c0 f8 ff ff 	lea    -0x740(%rbp),%rax
    f186:	48 89 85 90 fc ff ff 	mov    %rax,-0x370(%rbp)
    f18d:	48 8d 85 c0 f8 ff ff 	lea    -0x740(%rbp),%rax
    f194:	48 89 85 98 fc ff ff 	mov    %rax,-0x368(%rbp)
    f19b:	48 8d 85 c0 f8 ff ff 	lea    -0x740(%rbp),%rax
    f1a2:	48 89 85 a0 fc ff ff 	mov    %rax,-0x360(%rbp)
    f1a9:	48 8d 85 c0 f8 ff ff 	lea    -0x740(%rbp),%rax
    f1b0:	48 89 85 a8 fc ff ff 	mov    %rax,-0x358(%rbp)
    f1b7:	48 8d 05 76 91 00 00 	lea    0x9176(%rip),%rax        # 18334 <g_624+0x4>
    f1be:	48 89 85 b0 fc ff ff 	mov    %rax,-0x350(%rbp)
    f1c5:	48 8d 05 00 90 00 00 	lea    0x9000(%rip),%rax        # 181cc <g_117>
    f1cc:	48 89 85 b8 fc ff ff 	mov    %rax,-0x348(%rbp)
    f1d3:	48 8d 05 52 8e 00 00 	lea    0x8e52(%rip),%rax        # 1802c <g_56>
    f1da:	48 89 85 c0 fc ff ff 	mov    %rax,-0x340(%rbp)
    f1e1:	48 c7 85 c8 fc ff ff 	movq   $0x0,-0x338(%rbp)
    f1e8:	00 00 00 00 
    f1ec:	48 8d 05 39 8e 00 00 	lea    0x8e39(%rip),%rax        # 1802c <g_56>
    f1f3:	48 89 85 d0 fc ff ff 	mov    %rax,-0x330(%rbp)
    f1fa:	48 8d 05 3f 91 00 00 	lea    0x913f(%rip),%rax        # 18340 <g_624+0x10>
    f201:	48 89 85 d8 fc ff ff 	mov    %rax,-0x328(%rbp)
    f208:	48 c7 85 e0 fc ff ff 	movq   $0x0,-0x320(%rbp)
    f20f:	00 00 00 00 
    f213:	48 8d 05 b2 8f 00 00 	lea    0x8fb2(%rip),%rax        # 181cc <g_117>
    f21a:	48 89 85 e8 fc ff ff 	mov    %rax,-0x318(%rbp)
    f221:	48 c7 85 f0 fc ff ff 	movq   $0x0,-0x310(%rbp)
    f228:	00 00 00 00 
    f22c:	48 8d 05 99 8f 00 00 	lea    0x8f99(%rip),%rax        # 181cc <g_117>
    f233:	48 89 85 f8 fc ff ff 	mov    %rax,-0x308(%rbp)
    f23a:	48 8d 05 eb 8d 00 00 	lea    0x8deb(%rip),%rax        # 1802c <g_56>
    f241:	48 89 85 00 fd ff ff 	mov    %rax,-0x300(%rbp)
    f248:	48 8d 05 7d 8f 00 00 	lea    0x8f7d(%rip),%rax        # 181cc <g_117>
    f24f:	48 89 85 08 fd ff ff 	mov    %rax,-0x2f8(%rbp)
    f256:	48 8d 85 c0 f8 ff ff 	lea    -0x740(%rbp),%rax
    f25d:	48 89 85 10 fd ff ff 	mov    %rax,-0x2f0(%rbp)
    f264:	48 8d 05 d5 90 00 00 	lea    0x90d5(%rip),%rax        # 18340 <g_624+0x10>
    f26b:	48 89 85 18 fd ff ff 	mov    %rax,-0x2e8(%rbp)
    f272:	48 8d 85 c4 f8 ff ff 	lea    -0x73c(%rbp),%rax
    f279:	48 89 85 20 fd ff ff 	mov    %rax,-0x2e0(%rbp)
    f280:	48 c7 85 28 fd ff ff 	movq   $0x0,-0x2d8(%rbp)
    f287:	00 00 00 00 
    f28b:	48 8d 05 b6 90 00 00 	lea    0x90b6(%rip),%rax        # 18348 <g_624+0x18>
    f292:	48 89 85 30 fd ff ff 	mov    %rax,-0x2d0(%rbp)
    f299:	48 8d 05 2c 8f 00 00 	lea    0x8f2c(%rip),%rax        # 181cc <g_117>
    f2a0:	48 89 85 38 fd ff ff 	mov    %rax,-0x2c8(%rbp)
    f2a7:	48 8d 05 1e 8f 00 00 	lea    0x8f1e(%rip),%rax        # 181cc <g_117>
    f2ae:	48 89 85 40 fd ff ff 	mov    %rax,-0x2c0(%rbp)
    f2b5:	48 8d 85 c0 f8 ff ff 	lea    -0x740(%rbp),%rax
    f2bc:	48 89 85 48 fd ff ff 	mov    %rax,-0x2b8(%rbp)
    f2c3:	48 8d 85 c4 f8 ff ff 	lea    -0x73c(%rbp),%rax
    f2ca:	48 89 85 50 fd ff ff 	mov    %rax,-0x2b0(%rbp)
    f2d1:	48 8d 85 c0 f8 ff ff 	lea    -0x740(%rbp),%rax
    f2d8:	48 89 85 58 fd ff ff 	mov    %rax,-0x2a8(%rbp)
    f2df:	48 c7 85 60 fd ff ff 	movq   $0x0,-0x2a0(%rbp)
    f2e6:	00 00 00 00 
    f2ea:	48 c7 85 68 fd ff ff 	movq   $0x0,-0x298(%rbp)
    f2f1:	00 00 00 00 
    f2f5:	48 8d 85 c4 f8 ff ff 	lea    -0x73c(%rbp),%rax
    f2fc:	48 89 85 70 fd ff ff 	mov    %rax,-0x290(%rbp)
    f303:	48 8d 85 c4 f8 ff ff 	lea    -0x73c(%rbp),%rax
    f30a:	48 89 85 78 fd ff ff 	mov    %rax,-0x288(%rbp)
    f311:	48 8d 05 b4 8e 00 00 	lea    0x8eb4(%rip),%rax        # 181cc <g_117>
    f318:	48 89 85 80 fd ff ff 	mov    %rax,-0x280(%rbp)
    f31f:	48 8d 05 0e 90 00 00 	lea    0x900e(%rip),%rax        # 18334 <g_624+0x4>
    f326:	48 89 85 88 fd ff ff 	mov    %rax,-0x278(%rbp)
    f32d:	48 8d 05 14 90 00 00 	lea    0x9014(%rip),%rax        # 18348 <g_624+0x18>
    f334:	48 89 85 90 fd ff ff 	mov    %rax,-0x270(%rbp)
    f33b:	48 c7 85 98 fd ff ff 	movq   $0x0,-0x268(%rbp)
    f342:	00 00 00 00 
    f346:	48 8d 85 c4 f8 ff ff 	lea    -0x73c(%rbp),%rax
    f34d:	48 89 85 a0 fd ff ff 	mov    %rax,-0x260(%rbp)
    f354:	48 8d 05 71 8e 00 00 	lea    0x8e71(%rip),%rax        # 181cc <g_117>
    f35b:	48 89 85 a8 fd ff ff 	mov    %rax,-0x258(%rbp)
    f362:	48 8d 85 c0 f8 ff ff 	lea    -0x740(%rbp),%rax
    f369:	48 89 85 b0 fd ff ff 	mov    %rax,-0x250(%rbp)
    f370:	48 8d 05 b5 8c 00 00 	lea    0x8cb5(%rip),%rax        # 1802c <g_56>
    f377:	48 89 85 b8 fd ff ff 	mov    %rax,-0x248(%rbp)
    f37e:	48 8d 05 a7 8c 00 00 	lea    0x8ca7(%rip),%rax        # 1802c <g_56>
    f385:	48 89 85 c0 fd ff ff 	mov    %rax,-0x240(%rbp)
    f38c:	48 8d 85 c4 f8 ff ff 	lea    -0x73c(%rbp),%rax
    f393:	48 89 85 c8 fd ff ff 	mov    %rax,-0x238(%rbp)
    f39a:	48 c7 85 d0 fd ff ff 	movq   $0x0,-0x230(%rbp)
    f3a1:	00 00 00 00 
    f3a5:	48 8d 05 80 8c 00 00 	lea    0x8c80(%rip),%rax        # 1802c <g_56>
    f3ac:	48 89 85 d8 fd ff ff 	mov    %rax,-0x228(%rbp)
    f3b3:	48 c7 85 e0 fd ff ff 	movq   $0x0,-0x220(%rbp)
    f3ba:	00 00 00 00 
    f3be:	48 8d 05 07 8e 00 00 	lea    0x8e07(%rip),%rax        # 181cc <g_117>
    f3c5:	48 89 85 e8 fd ff ff 	mov    %rax,-0x218(%rbp)
    f3cc:	48 8d 05 59 8c 00 00 	lea    0x8c59(%rip),%rax        # 1802c <g_56>
    f3d3:	48 89 85 f0 fd ff ff 	mov    %rax,-0x210(%rbp)
    f3da:	48 c7 85 f8 fd ff ff 	movq   $0x0,-0x208(%rbp)
    f3e1:	00 00 00 00 
    f3e5:	48 8d 05 40 8c 00 00 	lea    0x8c40(%rip),%rax        # 1802c <g_56>
    f3ec:	48 89 85 00 fe ff ff 	mov    %rax,-0x200(%rbp)
    f3f3:	48 8d 05 3a 8f 00 00 	lea    0x8f3a(%rip),%rax        # 18334 <g_624+0x4>
    f3fa:	48 89 85 08 fe ff ff 	mov    %rax,-0x1f8(%rbp)
    f401:	48 8d 05 2c 8f 00 00 	lea    0x8f2c(%rip),%rax        # 18334 <g_624+0x4>
    f408:	48 89 85 10 fe ff ff 	mov    %rax,-0x1f0(%rbp)
    f40f:	48 8d 85 c4 f8 ff ff 	lea    -0x73c(%rbp),%rax
    f416:	48 89 85 18 fe ff ff 	mov    %rax,-0x1e8(%rbp)
    f41d:	48 8d 85 c0 f8 ff ff 	lea    -0x740(%rbp),%rax
    f424:	48 89 85 20 fe ff ff 	mov    %rax,-0x1e0(%rbp)
    f42b:	48 c7 85 28 fe ff ff 	movq   $0x0,-0x1d8(%rbp)
    f432:	00 00 00 00 
    f436:	48 8d 85 c0 f8 ff ff 	lea    -0x740(%rbp),%rax
    f43d:	48 89 85 30 fe ff ff 	mov    %rax,-0x1d0(%rbp)
    f444:	48 8d 85 c0 f8 ff ff 	lea    -0x740(%rbp),%rax
    f44b:	48 89 85 38 fe ff ff 	mov    %rax,-0x1c8(%rbp)
    f452:	48 8d 85 c0 f8 ff ff 	lea    -0x740(%rbp),%rax
    f459:	48 89 85 40 fe ff ff 	mov    %rax,-0x1c0(%rbp)
    f460:	48 8d 85 c0 f8 ff ff 	lea    -0x740(%rbp),%rax
    f467:	48 89 85 48 fe ff ff 	mov    %rax,-0x1b8(%rbp)
    f46e:	48 8d 05 bf 8e 00 00 	lea    0x8ebf(%rip),%rax        # 18334 <g_624+0x4>
    f475:	48 89 85 50 fe ff ff 	mov    %rax,-0x1b0(%rbp)
    f47c:	48 8d 05 49 8d 00 00 	lea    0x8d49(%rip),%rax        # 181cc <g_117>
    f483:	48 89 85 58 fe ff ff 	mov    %rax,-0x1a8(%rbp)
    f48a:	48 8d 05 9b 8b 00 00 	lea    0x8b9b(%rip),%rax        # 1802c <g_56>
    f491:	48 89 85 60 fe ff ff 	mov    %rax,-0x1a0(%rbp)
    f498:	48 c7 85 68 fe ff ff 	movq   $0x0,-0x198(%rbp)
    f49f:	00 00 00 00 
    f4a3:	48 8d 05 82 8b 00 00 	lea    0x8b82(%rip),%rax        # 1802c <g_56>
    f4aa:	48 89 85 70 fe ff ff 	mov    %rax,-0x190(%rbp)
    f4b1:	48 8d 05 88 8e 00 00 	lea    0x8e88(%rip),%rax        # 18340 <g_624+0x10>
    f4b8:	48 89 85 78 fe ff ff 	mov    %rax,-0x188(%rbp)
    f4bf:	48 c7 85 80 fe ff ff 	movq   $0x0,-0x180(%rbp)
    f4c6:	00 00 00 00 
    f4ca:	48 8d 05 fb 8c 00 00 	lea    0x8cfb(%rip),%rax        # 181cc <g_117>
    f4d1:	48 89 85 88 fe ff ff 	mov    %rax,-0x178(%rbp)
    f4d8:	48 c7 85 90 fe ff ff 	movq   $0x0,-0x170(%rbp)
    f4df:	00 00 00 00 
    f4e3:	48 8d 05 e2 8c 00 00 	lea    0x8ce2(%rip),%rax        # 181cc <g_117>
    f4ea:	48 89 85 98 fe ff ff 	mov    %rax,-0x168(%rbp)
    f4f1:	48 8d 05 34 8b 00 00 	lea    0x8b34(%rip),%rax        # 1802c <g_56>
    f4f8:	48 89 85 a0 fe ff ff 	mov    %rax,-0x160(%rbp)
    f4ff:	48 8d 05 c6 8c 00 00 	lea    0x8cc6(%rip),%rax        # 181cc <g_117>
    f506:	48 89 85 a8 fe ff ff 	mov    %rax,-0x158(%rbp)
    f50d:	48 8d 85 c0 f8 ff ff 	lea    -0x740(%rbp),%rax
    f514:	48 89 85 b0 fe ff ff 	mov    %rax,-0x150(%rbp)
    f51b:	48 8d 05 1e 8e 00 00 	lea    0x8e1e(%rip),%rax        # 18340 <g_624+0x10>
    f522:	48 89 85 b8 fe ff ff 	mov    %rax,-0x148(%rbp)
    f529:	48 8d 85 c4 f8 ff ff 	lea    -0x73c(%rbp),%rax
    f530:	48 89 85 c0 fe ff ff 	mov    %rax,-0x140(%rbp)
    f537:	48 c7 85 c8 fe ff ff 	movq   $0x0,-0x138(%rbp)
    f53e:	00 00 00 00 
    f542:	48 8d 05 ff 8d 00 00 	lea    0x8dff(%rip),%rax        # 18348 <g_624+0x18>
    f549:	48 89 85 d0 fe ff ff 	mov    %rax,-0x130(%rbp)
    f550:	48 8d 05 75 8c 00 00 	lea    0x8c75(%rip),%rax        # 181cc <g_117>
    f557:	48 89 85 d8 fe ff ff 	mov    %rax,-0x128(%rbp)
    f55e:	48 8d 05 67 8c 00 00 	lea    0x8c67(%rip),%rax        # 181cc <g_117>
    f565:	48 89 85 e0 fe ff ff 	mov    %rax,-0x120(%rbp)
    f56c:	48 8d 85 c0 f8 ff ff 	lea    -0x740(%rbp),%rax
    f573:	48 89 85 e8 fe ff ff 	mov    %rax,-0x118(%rbp)
    f57a:	48 8d 85 c4 f8 ff ff 	lea    -0x73c(%rbp),%rax
    f581:	48 89 85 f0 fe ff ff 	mov    %rax,-0x110(%rbp)
    f588:	48 8d 85 c0 f8 ff ff 	lea    -0x740(%rbp),%rax
    f58f:	48 89 85 f8 fe ff ff 	mov    %rax,-0x108(%rbp)
    f596:	48 c7 85 00 ff ff ff 	movq   $0x0,-0x100(%rbp)
    f59d:	00 00 00 00 
    f5a1:	48 c7 85 08 ff ff ff 	movq   $0x0,-0xf8(%rbp)
    f5a8:	00 00 00 00 
    f5ac:	48 8d 85 c4 f8 ff ff 	lea    -0x73c(%rbp),%rax
    f5b3:	48 89 85 10 ff ff ff 	mov    %rax,-0xf0(%rbp)
    f5ba:	48 8d 85 c4 f8 ff ff 	lea    -0x73c(%rbp),%rax
    f5c1:	48 89 85 18 ff ff ff 	mov    %rax,-0xe8(%rbp)
    f5c8:	48 8d 05 fd 8b 00 00 	lea    0x8bfd(%rip),%rax        # 181cc <g_117>
    f5cf:	48 89 85 20 ff ff ff 	mov    %rax,-0xe0(%rbp)
    f5d6:	48 8d 05 57 8d 00 00 	lea    0x8d57(%rip),%rax        # 18334 <g_624+0x4>
    f5dd:	48 89 85 28 ff ff ff 	mov    %rax,-0xd8(%rbp)
    f5e4:	48 8d 05 5d 8d 00 00 	lea    0x8d5d(%rip),%rax        # 18348 <g_624+0x18>
    f5eb:	48 89 85 30 ff ff ff 	mov    %rax,-0xd0(%rbp)
    f5f2:	48 c7 85 38 ff ff ff 	movq   $0x0,-0xc8(%rbp)
    f5f9:	00 00 00 00 
    f5fd:	48 8d 85 c4 f8 ff ff 	lea    -0x73c(%rbp),%rax
    f604:	48 89 85 40 ff ff ff 	mov    %rax,-0xc0(%rbp)
    f60b:	48 8d 05 ba 8b 00 00 	lea    0x8bba(%rip),%rax        # 181cc <g_117>
    f612:	48 89 85 48 ff ff ff 	mov    %rax,-0xb8(%rbp)
    f619:	48 8d 85 c0 f8 ff ff 	lea    -0x740(%rbp),%rax
    f620:	48 89 85 50 ff ff ff 	mov    %rax,-0xb0(%rbp)
    f627:	48 8d 05 fe 89 00 00 	lea    0x89fe(%rip),%rax        # 1802c <g_56>
    f62e:	48 89 85 58 ff ff ff 	mov    %rax,-0xa8(%rbp)
    f635:	48 8d 05 f0 89 00 00 	lea    0x89f0(%rip),%rax        # 1802c <g_56>
    f63c:	48 89 85 60 ff ff ff 	mov    %rax,-0xa0(%rbp)
    f643:	48 8d 85 c4 f8 ff ff 	lea    -0x73c(%rbp),%rax
    f64a:	48 89 85 68 ff ff ff 	mov    %rax,-0x98(%rbp)
    f651:	48 c7 85 70 ff ff ff 	movq   $0x0,-0x90(%rbp)
    f658:	00 00 00 00 
    f65c:	48 8d 05 c9 89 00 00 	lea    0x89c9(%rip),%rax        # 1802c <g_56>
    f663:	48 89 85 78 ff ff ff 	mov    %rax,-0x88(%rbp)
    f66a:	48 c7 45 80 00 00 00 	movq   $0x0,-0x80(%rbp)
    f671:	00 
    f672:	48 8d 05 53 8b 00 00 	lea    0x8b53(%rip),%rax        # 181cc <g_117>
    f679:	48 89 45 88          	mov    %rax,-0x78(%rbp)
    f67d:	48 8d 05 a8 89 00 00 	lea    0x89a8(%rip),%rax        # 1802c <g_56>
    f684:	48 89 45 90          	mov    %rax,-0x70(%rbp)
    f688:	48 c7 45 98 00 00 00 	movq   $0x0,-0x68(%rbp)
    f68f:	00 
    f690:	48 8d 05 95 89 00 00 	lea    0x8995(%rip),%rax        # 1802c <g_56>
    f697:	48 89 45 a0          	mov    %rax,-0x60(%rbp)
    f69b:	48 8d 05 92 8c 00 00 	lea    0x8c92(%rip),%rax        # 18334 <g_624+0x4>
    f6a2:	48 89 45 a8          	mov    %rax,-0x58(%rbp)
    f6a6:	48 8d 05 87 8c 00 00 	lea    0x8c87(%rip),%rax        # 18334 <g_624+0x4>
    f6ad:	48 89 45 b0          	mov    %rax,-0x50(%rbp)
    f6b1:	48 8d 85 c4 f8 ff ff 	lea    -0x73c(%rbp),%rax
    f6b8:	48 89 45 b8          	mov    %rax,-0x48(%rbp)
    f6bc:	48 8d 85 c0 f8 ff ff 	lea    -0x740(%rbp),%rax
    f6c3:	48 89 45 c0          	mov    %rax,-0x40(%rbp)
    f6c7:	48 c7 45 c8 00 00 00 	movq   $0x0,-0x38(%rbp)
    f6ce:	00 
    f6cf:	48 8d 85 c4 f8 ff ff 	lea    -0x73c(%rbp),%rax
    f6d6:	48 89 45 d0          	mov    %rax,-0x30(%rbp)
    f6da:	48 8d 85 c0 f8 ff ff 	lea    -0x740(%rbp),%rax
    f6e1:	48 89 45 d8          	mov    %rax,-0x28(%rbp)
    f6e5:	48 8d 85 c0 f8 ff ff 	lea    -0x740(%rbp),%rax
    f6ec:	48 89 45 e0          	mov    %rax,-0x20(%rbp)
    f6f0:	48 8d 85 c4 f8 ff ff 	lea    -0x73c(%rbp),%rax
    f6f7:	48 89 45 e8          	mov    %rax,-0x18(%rbp)
    f6fb:	c7 85 c8 f8 ff ff 3e 	movl   $0x657d6a3e,-0x738(%rbp)
    f702:	6a 7d 65 
    f705:	c7 85 cc f8 ff ff 0a 	movl   $0xe009e80a,-0x734(%rbp)
    f70c:	e8 09 e0 
    f70f:	48 8b 05 b2 bb 00 00 	mov    0xbbb2(%rip),%rax        # 1b2c8 <g_694>
    f716:	c7 00 af ed 83 cb    	movl   $0xcb83edaf,(%rax)
    f71c:	66 c7 40 04 00 00    	movw   $0x0,0x4(%rax)
    f722:	66 c7 40 06 df 37    	movw   $0x37df,0x6(%rax)
    f728:	48 b9 a7 85 b8 7e 9f 	movabs $0xa6ae129f7eb885a7,%rcx
    f72f:	12 ae a6 
    f732:	48 89 48 08          	mov    %rcx,0x8(%rax)
    f736:	66 c7 40 10 07 00    	movw   $0x7,0x10(%rax)
    f73c:	48 8b 95 d8 f8 ff ff 	mov    -0x728(%rbp),%rdx
    f743:	48 8b 85 e0 f8 ff ff 	mov    -0x720(%rbp),%rax
    f74a:	48 89 10             	mov    %rdx,(%rax)
    f74d:	83 85 cc f8 ff ff 01 	addl   $0x1,-0x734(%rbp)
    f754:	0f b7 05 09 8b 00 00 	movzwl 0x8b09(%rip),%eax        # 18264 <g_327>
    f75b:	48 8b 75 f8          	mov    -0x8(%rbp),%rsi
    f75f:	64 48 33 34 25 28 00 	xor    %fs:0x28,%rsi
    f766:	00 00 
    f768:	74 05                	je     f76f <func_10+0xc7a>
    f76a:	e8 01 69 ff ff       	callq  6070 <__stack_chk_fail@plt>
    f76f:	c9                   	leaveq 
    f770:	c3                   	retq   

000000000000f771 <func_17>:
    f771:	f3 0f 1e fa          	endbr64 
    f775:	55                   	push   %rbp
    f776:	48 89 e5             	mov    %rsp,%rbp
    f779:	41 55                	push   %r13
    f77b:	41 54                	push   %r12
    f77d:	53                   	push   %rbx
    f77e:	48 81 ec 08 01 00 00 	sub    $0x108,%rsp
    f785:	89 f1                	mov    %esi,%ecx
    f787:	89 d0                	mov    %edx,%eax
    f789:	89 fa                	mov    %edi,%edx
    f78b:	66 89 95 ec fe ff ff 	mov    %dx,-0x114(%rbp)
    f792:	89 ca                	mov    %ecx,%edx
    f794:	66 89 95 e8 fe ff ff 	mov    %dx,-0x118(%rbp)
    f79b:	66 89 85 e4 fe ff ff 	mov    %ax,-0x11c(%rbp)
    f7a2:	64 48 8b 04 25 28 00 	mov    %fs:0x28,%rax
    f7a9:	00 00 
    f7ab:	48 89 45 d8          	mov    %rax,-0x28(%rbp)
    f7af:	31 c0                	xor    %eax,%eax
    f7b1:	48 8d 05 08 bb 00 00 	lea    0xbb08(%rip),%rax        # 1b2c0 <g_625+0x20>
    f7b8:	48 89 85 10 ff ff ff 	mov    %rax,-0xf0(%rbp)
    f7bf:	48 c7 85 18 ff ff ff 	movq   $0x0,-0xe8(%rbp)
    f7c6:	00 00 00 00 
    f7ca:	48 8d 05 fb 89 00 00 	lea    0x89fb(%rip),%rax        # 181cc <g_117>
    f7d1:	48 89 85 20 ff ff ff 	mov    %rax,-0xe0(%rbp)
    f7d8:	48 8d 05 ed 89 00 00 	lea    0x89ed(%rip),%rax        # 181cc <g_117>
    f7df:	48 89 85 28 ff ff ff 	mov    %rax,-0xd8(%rbp)
    f7e6:	48 8d 05 3f 88 00 00 	lea    0x883f(%rip),%rax        # 1802c <g_56>
    f7ed:	48 89 85 30 ff ff ff 	mov    %rax,-0xd0(%rbp)
    f7f4:	c7 45 80 04 00 00 00 	movl   $0x4,-0x80(%rbp)
    f7fb:	c7 45 84 11 ee be 2c 	movl   $0x2cbeee11,-0x7c(%rbp)
    f802:	c7 45 88 04 00 00 00 	movl   $0x4,-0x78(%rbp)
    f809:	c7 45 8c 11 ee be 2c 	movl   $0x2cbeee11,-0x74(%rbp)
    f810:	c7 45 90 04 00 00 00 	movl   $0x4,-0x70(%rbp)
    f817:	c7 45 94 11 ee be 2c 	movl   $0x2cbeee11,-0x6c(%rbp)
    f81e:	c7 45 98 04 00 00 00 	movl   $0x4,-0x68(%rbp)
    f825:	c7 45 9c 11 ee be 2c 	movl   $0x2cbeee11,-0x64(%rbp)
    f82c:	48 8d 05 09 8b 00 00 	lea    0x8b09(%rip),%rax        # 1833c <g_624+0xc>
    f833:	48 89 85 38 ff ff ff 	mov    %rax,-0xc8(%rbp)
    f83a:	48 8d 05 ff 8a 00 00 	lea    0x8aff(%rip),%rax        # 18340 <g_624+0x10>
    f841:	48 89 85 40 ff ff ff 	mov    %rax,-0xc0(%rbp)
    f848:	48 8d 05 7d 89 00 00 	lea    0x897d(%rip),%rax        # 181cc <g_117>
    f84f:	48 89 85 48 ff ff ff 	mov    %rax,-0xb8(%rbp)
    f856:	48 8d 45 80          	lea    -0x80(%rbp),%rax
    f85a:	48 83 c0 18          	add    $0x18,%rax
    f85e:	48 89 85 50 ff ff ff 	mov    %rax,-0xb0(%rbp)
    f865:	c7 85 60 ff ff ff ff 	movl   $0xffffffff,-0xa0(%rbp)
    f86c:	ff ff ff 
    f86f:	c7 85 64 ff ff ff d8 	movl   $0x1533bed8,-0x9c(%rbp)
    f876:	be 33 15 
    f879:	c7 85 68 ff ff ff d8 	movl   $0x1533bed8,-0x98(%rbp)
    f880:	be 33 15 
    f883:	c7 85 6c ff ff ff ff 	movl   $0xffffffff,-0x94(%rbp)
    f88a:	ff ff ff 
    f88d:	c7 85 70 ff ff ff d8 	movl   $0x1533bed8,-0x90(%rbp)
    f894:	be 33 15 
    f897:	c7 85 74 ff ff ff d8 	movl   $0x1533bed8,-0x8c(%rbp)
    f89e:	be 33 15 
    f8a1:	c7 85 78 ff ff ff ff 	movl   $0xffffffff,-0x88(%rbp)
    f8a8:	ff ff ff 
    f8ab:	66 c7 85 f2 fe ff ff 	movw   $0x1fb8,-0x10e(%rbp)
    f8b2:	b8 1f 
    f8b4:	48 b8 4d 98 47 72 85 	movabs $0x1c5e5c857247984d,%rax
    f8bb:	5c 5e 1c 
    f8be:	48 89 85 08 ff ff ff 	mov    %rax,-0xf8(%rbp)
    f8c5:	48 8d 85 08 ff ff ff 	lea    -0xf8(%rbp),%rax
    f8cc:	48 89 85 58 ff ff ff 	mov    %rax,-0xa8(%rbp)
    f8d3:	c7 85 fc fe ff ff d7 	movl   $0x4c008d7,-0x104(%rbp)
    f8da:	08 c0 04 
    f8dd:	c7 85 f4 fe ff ff 00 	movl   $0x0,-0x10c(%rbp)
    f8e4:	00 00 00 
    f8e7:	eb 1b                	jmp    f904 <func_17+0x193>
    f8e9:	8b 85 f4 fe ff ff    	mov    -0x10c(%rbp),%eax
    f8ef:	48 98                	cltq   
    f8f1:	48 8d 15 34 87 00 00 	lea    0x8734(%rip),%rdx        # 1802c <g_56>
    f8f8:	48 89 54 c5 a0       	mov    %rdx,-0x60(%rbp,%rax,8)
    f8fd:	83 85 f4 fe ff ff 01 	addl   $0x1,-0x10c(%rbp)
    f904:	83 bd f4 fe ff ff 04 	cmpl   $0x4,-0x10c(%rbp)
    f90b:	7e dc                	jle    f8e9 <func_17+0x178>
    f90d:	48 8b 15 ac b9 00 00 	mov    0xb9ac(%rip),%rdx        # 1b2c0 <g_625+0x20>
    f914:	48 8b 85 10 ff ff ff 	mov    -0xf0(%rbp),%rax
    f91b:	48 89 10             	mov    %rdx,(%rax)
    f91e:	8b 85 70 ff ff ff    	mov    -0x90(%rbp),%eax
    f924:	83 e8 01             	sub    $0x1,%eax
    f927:	89 85 70 ff ff ff    	mov    %eax,-0x90(%rbp)
    f92d:	48 8b 85 08 ff ff ff 	mov    -0xf8(%rbp),%rax
    f934:	48 83 e8 01          	sub    $0x1,%rax
    f938:	48 89 85 08 ff ff ff 	mov    %rax,-0xf8(%rbp)
    f93f:	48 8b 85 50 ff ff ff 	mov    -0xb0(%rbp),%rax
    f946:	8b 00                	mov    (%rax),%eax
    f948:	0f bf d0             	movswl %ax,%edx
    f94b:	0f b7 85 e8 fe ff ff 	movzwl -0x118(%rbp),%eax
    f952:	98                   	cwtl   
    f953:	89 d6                	mov    %edx,%esi
    f955:	89 c7                	mov    %eax,%edi
    f957:	e8 57 6a ff ff       	callq  63b3 <safe_add_func_int16_t_s_s>
    f95c:	66 85 c0             	test   %ax,%ax
    f95f:	0f 84 e0 00 00 00    	je     fa45 <func_17+0x2d4>
    f965:	48 8b 85 48 ff ff ff 	mov    -0xb8(%rbp),%rax
    f96c:	44 8b 28             	mov    (%rax),%r13d
    f96f:	48 8b 85 30 ff ff ff 	mov    -0xd0(%rbp),%rax
    f976:	8b 00                	mov    (%rax),%eax
    f978:	85 c0                	test   %eax,%eax
    f97a:	0f 85 bd 00 00 00    	jne    fa3d <func_17+0x2cc>
    f980:	8b 05 c2 89 00 00    	mov    0x89c2(%rip),%eax        # 18348 <g_624+0x18>
    f986:	48 63 d8             	movslq %eax,%rbx
    f989:	48 8b 05 30 b7 00 00 	mov    0xb730(%rip),%rax        # 1b0c0 <g_168>
    f990:	0f b7 00             	movzwl (%rax),%eax
    f993:	44 0f b7 e0          	movzwl %ax,%r12d
    f997:	be f9 ff ff ff       	mov    $0xfffffff9,%esi
    f99c:	bf 56 e5 c1 11       	mov    $0x11c1e556,%edi
    f9a1:	e8 10 6c ff ff       	callq  65b6 <safe_add_func_int32_t_s_s>
    f9a6:	8b 15 9c 89 00 00    	mov    0x899c(%rip),%edx        # 18348 <g_624+0x18>
    f9ac:	39 d0                	cmp    %edx,%eax
    f9ae:	0f 9c c0             	setl   %al
    f9b1:	0f b6 d0             	movzbl %al,%edx
    f9b4:	0f b7 05 1b 89 00 00 	movzwl 0x891b(%rip),%eax        # 182d6 <g_499+0x6>
    f9bb:	0f b7 c0             	movzwl %ax,%eax
    f9be:	48 89 d6             	mov    %rdx,%rsi
    f9c1:	48 89 c7             	mov    %rax,%rdi
    f9c4:	e8 65 76 ff ff       	callq  702e <safe_add_func_uint64_t_u_u>
    f9c9:	0f b7 c0             	movzwl %ax,%eax
    f9cc:	44 89 e6             	mov    %r12d,%esi
    f9cf:	89 c7                	mov    %eax,%edi
    f9d1:	e8 67 73 ff ff       	callq  6d3d <safe_mul_func_uint16_t_u_u>
    f9d6:	0f b7 c0             	movzwl %ax,%eax
    f9d9:	48 be dd d0 23 87 76 	movabs $0xaef593768723d0dd,%rsi
    f9e0:	93 f5 ae 
    f9e3:	48 89 c7             	mov    %rax,%rdi
    f9e6:	e8 60 76 ff ff       	callq  704b <safe_sub_func_uint64_t_u_u>
    f9eb:	48 89 de             	mov    %rbx,%rsi
    f9ee:	48 89 c7             	mov    %rax,%rdi
    f9f1:	e8 55 76 ff ff       	callq  704b <safe_sub_func_uint64_t_u_u>
    f9f6:	66 83 bd e8 fe ff ff 	cmpw   $0x0,-0x118(%rbp)
    f9fd:	00 
    f9fe:	0f 94 c0             	sete   %al
    fa01:	0f b6 c0             	movzbl %al,%eax
    fa04:	66 0b 85 e4 fe ff ff 	or     -0x11c(%rbp),%ax
    fa0b:	98                   	cwtl   
    fa0c:	89 c6                	mov    %eax,%esi
    fa0e:	bf 00 00 00 00       	mov    $0x0,%edi
    fa13:	e8 dd 69 ff ff       	callq  63f5 <safe_mul_func_int16_t_s_s>
    fa18:	88 05 b4 87 00 00    	mov    %al,0x87b4(%rip)        # 181d2 <g_141>
    fa1e:	0f b6 05 ad 87 00 00 	movzbl 0x87ad(%rip),%eax        # 181d2 <g_141>
    fa25:	0f be c0             	movsbl %al,%eax
    fa28:	be 05 00 00 00       	mov    $0x5,%esi
    fa2d:	89 c7                	mov    %eax,%edi
    fa2f:	e8 01 69 ff ff       	callq  6335 <safe_rshift_func_int8_t_s_s>
    fa34:	3c ff                	cmp    $0xff,%al
    fa36:	b8 00 00 00 00       	mov    $0x0,%eax
    fa3b:	eb 05                	jmp    fa42 <func_17+0x2d1>
    fa3d:	b8 01 00 00 00       	mov    $0x1,%eax
    fa42:	44 39 e8             	cmp    %r13d,%eax
    fa45:	48 8b 85 58 ff ff ff 	mov    -0xa8(%rbp),%rax
    fa4c:	48 8b 00             	mov    (%rax),%rax
    fa4f:	48 8d 50 ff          	lea    -0x1(%rax),%rdx
    fa53:	48 8b 85 58 ff ff ff 	mov    -0xa8(%rbp),%rax
    fa5a:	48 89 10             	mov    %rdx,(%rax)
    fa5d:	48 8b 85 58 ff ff ff 	mov    -0xa8(%rbp),%rax
    fa64:	48 8b 10             	mov    (%rax),%rdx
    fa67:	48 8b 85 40 ff ff ff 	mov    -0xc0(%rbp),%rax
    fa6e:	8b 00                	mov    (%rax),%eax
    fa70:	48 98                	cltq   
    fa72:	48 39 c2             	cmp    %rax,%rdx
    fa75:	0f 82 35 01 00 00    	jb     fbb0 <func_17+0x43f>
    fa7b:	83 bd fc fe ff ff 00 	cmpl   $0x0,-0x104(%rbp)
    fa82:	0f 84 28 01 00 00    	je     fbb0 <func_17+0x43f>
    fa88:	c7 85 00 ff ff ff ed 	movl   $0xa6568fed,-0x100(%rbp)
    fa8f:	8f 56 a6 
    fa92:	c7 85 04 ff ff ff 00 	movl   $0x0,-0xfc(%rbp)
    fa99:	00 00 00 
    fa9c:	48 8b 85 50 ff ff ff 	mov    -0xb0(%rbp),%rax
    faa3:	8b 10                	mov    (%rax),%edx
    faa5:	0f bf 85 e4 fe ff ff 	movswl -0x11c(%rbp),%eax
    faac:	31 c2                	xor    %eax,%edx
    faae:	48 8b 85 50 ff ff ff 	mov    -0xb0(%rbp),%rax
    fab5:	89 10                	mov    %edx,(%rax)
    fab7:	0f bf 9d ec fe ff ff 	movswl -0x114(%rbp),%ebx
    fabe:	be 02 00 00 00       	mov    $0x2,%esi
    fac3:	bf 63 00 00 00       	mov    $0x63,%edi
    fac8:	e8 7f 71 ff ff       	callq  6c4c <safe_lshift_func_uint8_t_u_u>
    facd:	0f b6 c0             	movzbl %al,%eax
    fad0:	31 c3                	xor    %eax,%ebx
    fad2:	41 89 dc             	mov    %ebx,%r12d
    fad5:	0f bf 95 e4 fe ff ff 	movswl -0x11c(%rbp),%edx
    fadc:	48 8b 05 dd b5 00 00 	mov    0xb5dd(%rip),%rax        # 1b0c0 <g_168>
    fae3:	0f b7 00             	movzwl (%rax),%eax
    fae6:	98                   	cwtl   
    fae7:	89 d6                	mov    %edx,%esi
    fae9:	89 c7                	mov    %eax,%edi
    faeb:	e8 e3 68 ff ff       	callq  63d3 <safe_sub_func_int16_t_s_s>
    faf0:	66 83 f8 ff          	cmp    $0xffff,%ax
    faf4:	0f 9d c0             	setge  %al
    faf7:	0f b6 d0             	movzbl %al,%edx
    fafa:	0f bf 85 ec fe ff ff 	movswl -0x114(%rbp),%eax
    fb01:	39 c2                	cmp    %eax,%edx
    fb03:	0f 9c c0             	setl   %al
    fb06:	0f b6 d8             	movzbl %al,%ebx
    fb09:	8b 05 c1 87 00 00    	mov    0x87c1(%rip),%eax        # 182d0 <g_499>
    fb0f:	0f b7 c0             	movzwl %ax,%eax
    fb12:	89 c6                	mov    %eax,%esi
    fb14:	bf f9 ff 00 00       	mov    $0xfff9,%edi
    fb19:	e8 1f 72 ff ff       	callq  6d3d <safe_mul_func_uint16_t_u_u>
    fb1e:	0f b7 c0             	movzwl %ax,%eax
    fb21:	48 89 de             	mov    %rbx,%rsi
    fb24:	48 89 c7             	mov    %rax,%rdi
    fb27:	e8 02 75 ff ff       	callq  702e <safe_add_func_uint64_t_u_u>
    fb2c:	8b 85 00 ff ff ff    	mov    -0x100(%rbp),%eax
    fb32:	89 c6                	mov    %eax,%esi
    fb34:	bf d7 99 dd f8       	mov    $0xf8dd99d7,%edi
    fb39:	e8 e7 73 ff ff       	callq  6f25 <safe_div_func_uint32_t_u_u>
    fb3e:	0f bf 85 ec fe ff ff 	movswl -0x114(%rbp),%eax
    fb45:	be 4c d9 ff ff       	mov    $0xffffd94c,%esi
    fb4a:	89 c7                	mov    %eax,%edi
    fb4c:	e8 a4 68 ff ff       	callq  63f5 <safe_mul_func_int16_t_s_s>
    fb51:	98                   	cwtl   
    fb52:	41 39 c4             	cmp    %eax,%r12d
    fb55:	0f 9c c0             	setl   %al
    fb58:	0f b6 d8             	movzbl %al,%ebx
    fb5b:	0f b7 85 e8 fe ff ff 	movzwl -0x118(%rbp),%eax
    fb62:	98                   	cwtl   
    fb63:	be ff ff ff ff       	mov    $0xffffffff,%esi
    fb68:	89 c7                	mov    %eax,%edi
    fb6a:	e8 a7 68 ff ff       	callq  6416 <safe_mod_func_int16_t_s_s>
    fb6f:	89 de                	mov    %ebx,%esi
    fb71:	bf 01 00 00 00       	mov    $0x1,%edi
    fb76:	e8 58 68 ff ff       	callq  63d3 <safe_sub_func_int16_t_s_s>
    fb7b:	66 85 c0             	test   %ax,%ax
    fb7e:	74 11                	je     fb91 <func_17+0x420>
    fb80:	66 83 bd e8 fe ff ff 	cmpw   $0x0,-0x118(%rbp)
    fb87:	00 
    fb88:	74 07                	je     fb91 <func_17+0x420>
    fb8a:	ba 01 00 00 00       	mov    $0x1,%edx
    fb8f:	eb 05                	jmp    fb96 <func_17+0x425>
    fb91:	ba 00 00 00 00       	mov    $0x0,%edx
    fb96:	48 8b 85 38 ff ff ff 	mov    -0xc8(%rbp),%rax
    fb9d:	89 10                	mov    %edx,(%rax)
    fb9f:	48 8b 85 38 ff ff ff 	mov    -0xc8(%rbp),%rax
    fba6:	8b 00                	mov    (%rax),%eax
    fba8:	89 85 04 ff ff ff    	mov    %eax,-0xfc(%rbp)
    fbae:	eb 44                	jmp    fbf4 <func_17+0x483>
    fbb0:	c7 85 f8 fe ff ff 00 	movl   $0x0,-0x108(%rbp)
    fbb7:	00 00 00 
    fbba:	eb 14                	jmp    fbd0 <func_17+0x45f>
    fbbc:	8b 85 f8 fe ff ff    	mov    -0x108(%rbp),%eax
    fbc2:	48 98                	cltq   
    fbc4:	c6 44 05 d5 0a       	movb   $0xa,-0x2b(%rbp,%rax,1)
    fbc9:	83 85 f8 fe ff ff 01 	addl   $0x1,-0x108(%rbp)
    fbd0:	83 bd f8 fe ff ff 02 	cmpl   $0x2,-0x108(%rbp)
    fbd7:	7e e3                	jle    fbbc <func_17+0x44b>
    fbd9:	48 8b 85 38 ff ff ff 	mov    -0xc8(%rbp),%rax
    fbe0:	8b 10                	mov    (%rax),%edx
    fbe2:	0f b6 45 d6          	movzbl -0x2a(%rbp),%eax
    fbe6:	0f b6 c0             	movzbl %al,%eax
    fbe9:	09 c2                	or     %eax,%edx
    fbeb:	48 8b 85 38 ff ff ff 	mov    -0xc8(%rbp),%rax
    fbf2:	89 10                	mov    %edx,(%rax)
    fbf4:	48 8b 05 5d 86 00 00 	mov    0x865d(%rip),%rax        # 18258 <g_229>
    fbfb:	48 8b 4d d8          	mov    -0x28(%rbp),%rcx
    fbff:	64 48 33 0c 25 28 00 	xor    %fs:0x28,%rcx
    fc06:	00 00 
    fc08:	74 05                	je     fc0f <func_17+0x49e>
    fc0a:	e8 61 64 ff ff       	callq  6070 <__stack_chk_fail@plt>
    fc0f:	48 81 c4 08 01 00 00 	add    $0x108,%rsp
    fc16:	5b                   	pop    %rbx
    fc17:	41 5c                	pop    %r12
    fc19:	41 5d                	pop    %r13
    fc1b:	5d                   	pop    %rbp
    fc1c:	c3                   	retq   

000000000000fc1d <func_22>:
    fc1d:	f3 0f 1e fa          	endbr64 
    fc21:	55                   	push   %rbp
    fc22:	48 89 e5             	mov    %rsp,%rbp
    fc25:	48 83 ec 60          	sub    $0x60,%rsp
    fc29:	48 89 7d b8          	mov    %rdi,-0x48(%rbp)
    fc2d:	89 f0                	mov    %esi,%eax
    fc2f:	89 55 b0             	mov    %edx,-0x50(%rbp)
    fc32:	48 89 4d a8          	mov    %rcx,-0x58(%rbp)
    fc36:	66 89 45 b4          	mov    %ax,-0x4c(%rbp)
    fc3a:	64 48 8b 04 25 28 00 	mov    %fs:0x28,%rax
    fc41:	00 00 
    fc43:	48 89 45 f8          	mov    %rax,-0x8(%rbp)
    fc47:	31 c0                	xor    %eax,%eax
    fc49:	48 b8 cf 88 ba 18 22 	movabs $0x7e77792218ba88cf,%rax
    fc50:	79 77 7e 
    fc53:	48 89 45 e0          	mov    %rax,-0x20(%rbp)
    fc57:	48 8d 05 42 86 00 00 	lea    0x8642(%rip),%rax        # 182a0 <g_371+0x10>
    fc5e:	48 89 45 d0          	mov    %rax,-0x30(%rbp)
    fc62:	48 8d 45 d0          	lea    -0x30(%rbp),%rax
    fc66:	48 89 45 d8          	mov    %rax,-0x28(%rbp)
    fc6a:	48 8d 45 d8          	lea    -0x28(%rbp),%rax
    fc6e:	48 89 45 e8          	mov    %rax,-0x18(%rbp)
    fc72:	48 8d 05 b3 83 00 00 	lea    0x83b3(%rip),%rax        # 1802c <g_56>
    fc79:	48 89 45 f0          	mov    %rax,-0x10(%rbp)
    fc7d:	48 8b 45 e8          	mov    -0x18(%rbp),%rax
    fc81:	48 c7 00 00 00 00 00 	movq   $0x0,(%rax)
    fc88:	48 8b 05 11 b4 00 00 	mov    0xb411(%rip),%rax        # 1b0a0 <g_76>
    fc8f:	0f b7 00             	movzwl (%rax),%eax
    fc92:	8b 45 b0             	mov    -0x50(%rbp),%eax
    fc95:	48 0b 45 e0          	or     -0x20(%rbp),%rax
    fc99:	48 85 c0             	test   %rax,%rax
    fc9c:	75 05                	jne    fca3 <func_22+0x86>
    fc9e:	48 83 7d e0 00       	cmpq   $0x0,-0x20(%rbp)
    fca3:	0f b7 05 ec 85 00 00 	movzwl 0x85ec(%rip),%eax        # 18296 <g_371+0x6>
    fcaa:	83 f0 01             	xor    $0x1,%eax
    fcad:	0f b7 c0             	movzwl %ax,%eax
    fcb0:	48 8b 55 e0          	mov    -0x20(%rbp),%rdx
    fcb4:	83 ca 09             	or     $0x9,%edx
    fcb7:	f7 d2                	not    %edx
    fcb9:	89 c6                	mov    %eax,%esi
    fcbb:	89 d7                	mov    %edx,%edi
    fcbd:	e8 0a 6a ff ff       	callq  66cc <safe_mod_func_int32_t_s_s>
    fcc2:	0f b7 55 b4          	movzwl -0x4c(%rbp),%edx
    fcc6:	39 d0                	cmp    %edx,%eax
    fcc8:	0f 9f c0             	setg   %al
    fccb:	0f b6 c0             	movzbl %al,%eax
    fcce:	f7 d0                	not    %eax
    fcd0:	48 98                	cltq   
    fcd2:	48 8b 55 e0          	mov    -0x20(%rbp),%rdx
    fcd6:	48 89 d6             	mov    %rdx,%rsi
    fcd9:	48 89 c7             	mov    %rax,%rdi
    fcdc:	e8 9f 73 ff ff       	callq  7080 <safe_mod_func_uint64_t_u_u>
    fce1:	48 85 c0             	test   %rax,%rax
    fce4:	74 16                	je     fcfc <func_22+0xdf>
    fce6:	48 8b 05 e3 b3 00 00 	mov    0xb3e3(%rip),%rax        # 1b0d0 <g_212>
    fced:	48 8b 00             	mov    (%rax),%rax
    fcf0:	48 8b 55 f0          	mov    -0x10(%rbp),%rdx
    fcf4:	48 89 10             	mov    %rdx,(%rax)
    fcf7:	e9 88 00 00 00       	jmpq   fd84 <func_22+0x167>
    fcfc:	0f b7 15 11 85 00 00 	movzwl 0x8511(%rip),%edx        # 18214 <g_206+0x34>
    fd03:	48 8b 45 d0          	mov    -0x30(%rbp),%rax
    fd07:	0f b7 00             	movzwl (%rax),%eax
    fd0a:	31 c2                	xor    %eax,%edx
    fd0c:	48 8b 45 d0          	mov    -0x30(%rbp),%rax
    fd10:	66 89 10             	mov    %dx,(%rax)
    fd13:	0f b7 00             	movzwl (%rax),%eax
    fd16:	0f b7 d0             	movzwl %ax,%edx
    fd19:	48 8b 45 f0          	mov    -0x10(%rbp),%rax
    fd1d:	89 10                	mov    %edx,(%rax)
    fd1f:	48 c7 45 b8 00 00 00 	movq   $0x0,-0x48(%rbp)
    fd26:	00 
    fd27:	eb 54                	jmp    fd7d <func_22+0x160>
    fd29:	66 c7 45 ce fa ff    	movw   $0xfffa,-0x32(%rbp)
    fd2f:	48 c7 05 2e 85 00 00 	movq   $0x0,0x852e(%rip)        # 18268 <g_328>
    fd36:	00 00 00 00 
    fd3a:	eb 2a                	jmp    fd66 <func_22+0x149>
    fd3c:	48 8b 05 25 85 00 00 	mov    0x8525(%rip),%rax        # 18268 <g_328>
    fd43:	48 8d 14 00          	lea    (%rax,%rax,1),%rdx
    fd47:	48 8d 05 9a ba 00 00 	lea    0xba9a(%rip),%rax        # 1b7e8 <g_75>
    fd4e:	66 c7 04 02 55 de    	movw   $0xde55,(%rdx,%rax,1)
    fd54:	48 8b 05 0d 85 00 00 	mov    0x850d(%rip),%rax        # 18268 <g_328>
    fd5b:	48 83 c0 01          	add    $0x1,%rax
    fd5f:	48 89 05 02 85 00 00 	mov    %rax,0x8502(%rip)        # 18268 <g_328>
    fd66:	48 8b 05 fb 84 00 00 	mov    0x84fb(%rip),%rax        # 18268 <g_328>
    fd6d:	48 83 f8 04          	cmp    $0x4,%rax
    fd71:	7e c9                	jle    fd3c <func_22+0x11f>
    fd73:	66 83 7d ce 00       	cmpw   $0x0,-0x32(%rbp)
    fd78:	48 83 6d b8 01       	subq   $0x1,-0x48(%rbp)
    fd7d:	48 83 7d b8 ee       	cmpq   $0xffffffffffffffee,-0x48(%rbp)
    fd82:	74 a5                	je     fd29 <func_22+0x10c>
    fd84:	48 8b 45 f0          	mov    -0x10(%rbp),%rax
    fd88:	8b 00                	mov    (%rax),%eax
    fd8a:	48 8b 4d f8          	mov    -0x8(%rbp),%rcx
    fd8e:	64 48 33 0c 25 28 00 	xor    %fs:0x28,%rcx
    fd95:	00 00 
    fd97:	74 05                	je     fd9e <func_22+0x181>
    fd99:	e8 d2 62 ff ff       	callq  6070 <__stack_chk_fail@plt>
    fd9e:	c9                   	leaveq 
    fd9f:	c3                   	retq   

000000000000fda0 <func_45>:
    fda0:	f3 0f 1e fa          	endbr64 
    fda4:	55                   	push   %rbp
    fda5:	48 89 e5             	mov    %rsp,%rbp
    fda8:	41 57                	push   %r15
    fdaa:	41 56                	push   %r14
    fdac:	41 55                	push   %r13
    fdae:	41 54                	push   %r12
    fdb0:	53                   	push   %rbx
    fdb1:	48 81 ec 18 01 00 00 	sub    $0x118,%rsp
    fdb8:	89 bd ec fe ff ff    	mov    %edi,-0x114(%rbp)
    fdbe:	89 b5 e8 fe ff ff    	mov    %esi,-0x118(%rbp)
    fdc4:	89 95 e4 fe ff ff    	mov    %edx,-0x11c(%rbp)
    fdca:	89 c8                	mov    %ecx,%eax
    fdcc:	66 89 85 e0 fe ff ff 	mov    %ax,-0x120(%rbp)
    fdd3:	64 48 8b 04 25 28 00 	mov    %fs:0x28,%rax
    fdda:	00 00 
    fddc:	48 89 45 c8          	mov    %rax,-0x38(%rbp)
    fde0:	31 c0                	xor    %eax,%eax
    fde2:	48 8d 05 ad 84 00 00 	lea    0x84ad(%rip),%rax        # 18296 <g_371+0x6>
    fde9:	48 89 85 08 ff ff ff 	mov    %rax,-0xf8(%rbp)
    fdf0:	48 8d 05 b9 b2 00 00 	lea    0xb2b9(%rip),%rax        # 1b0b0 <g_116>
    fdf7:	48 89 85 00 ff ff ff 	mov    %rax,-0x100(%rbp)
    fdfe:	48 8d 05 93 84 00 00 	lea    0x8493(%rip),%rax        # 18298 <g_371+0x8>
    fe05:	48 89 85 10 ff ff ff 	mov    %rax,-0xf0(%rbp)
    fe0c:	48 c7 85 18 ff ff ff 	movq   $0x0,-0xe8(%rbp)
    fe13:	00 00 00 00 
    fe17:	48 8d 05 42 84 00 00 	lea    0x8442(%rip),%rax        # 18260 <g_289>
    fe1e:	48 89 85 20 ff ff ff 	mov    %rax,-0xe0(%rbp)
    fe25:	48 c7 85 70 ff ff ff 	movq   $0x2,-0x90(%rbp)
    fe2c:	02 00 00 00 
    fe30:	48 c7 85 78 ff ff ff 	movq   $0xffffffffffffffff,-0x88(%rbp)
    fe37:	ff ff ff ff 
    fe3b:	48 c7 45 80 02 00 00 	movq   $0x2,-0x80(%rbp)
    fe42:	00 
    fe43:	48 c7 45 88 02 00 00 	movq   $0x2,-0x78(%rbp)
    fe4a:	00 
    fe4b:	48 c7 45 90 ff ff ff 	movq   $0xffffffffffffffff,-0x70(%rbp)
    fe52:	ff 
    fe53:	48 c7 45 98 02 00 00 	movq   $0x2,-0x68(%rbp)
    fe5a:	00 
    fe5b:	48 c7 45 a0 02 00 00 	movq   $0x2,-0x60(%rbp)
    fe62:	00 
    fe63:	48 c7 45 a8 ff ff ff 	movq   $0xffffffffffffffff,-0x58(%rbp)
    fe6a:	ff 
    fe6b:	48 c7 45 b0 02 00 00 	movq   $0x2,-0x50(%rbp)
    fe72:	00 
    fe73:	48 c7 45 b8 02 00 00 	movq   $0x2,-0x48(%rbp)
    fe7a:	00 
    fe7b:	c7 85 fc fe ff ff 00 	movl   $0x0,-0x104(%rbp)
    fe82:	00 00 00 
    fe85:	c6 85 f6 fe ff ff fb 	movb   $0xfb,-0x10a(%rbp)
    fe8c:	c6 85 f7 fe ff ff dd 	movb   $0xdd,-0x109(%rbp)
    fe93:	c7 85 f8 fe ff ff 00 	movl   $0x0,-0x108(%rbp)
    fe9a:	00 00 00 
    fe9d:	eb 1a                	jmp    feb9 <func_45+0x119>
    fe9f:	8b 85 f8 fe ff ff    	mov    -0x108(%rbp),%eax
    fea5:	48 98                	cltq   
    fea7:	c7 84 85 28 ff ff ff 	movl   $0x1600efc2,-0xd8(%rbp,%rax,4)
    feae:	c2 ef 00 16 
    feb2:	83 85 f8 fe ff ff 01 	addl   $0x1,-0x108(%rbp)
    feb9:	83 bd f8 fe ff ff 01 	cmpl   $0x1,-0x108(%rbp)
    fec0:	7e dd                	jle    fe9f <func_45+0xff>
    fec2:	c7 85 f8 fe ff ff 00 	movl   $0x0,-0x108(%rbp)
    fec9:	00 00 00 
    fecc:	eb 1e                	jmp    feec <func_45+0x14c>
    fece:	8b 85 f8 fe ff ff    	mov    -0x108(%rbp),%eax
    fed4:	48 98                	cltq   
    fed6:	48 8d 95 00 ff ff ff 	lea    -0x100(%rbp),%rdx
    fedd:	48 89 94 c5 30 ff ff 	mov    %rdx,-0xd0(%rbp,%rax,8)
    fee4:	ff 
    fee5:	83 85 f8 fe ff ff 01 	addl   $0x1,-0x108(%rbp)
    feec:	83 bd f8 fe ff ff 07 	cmpl   $0x7,-0x108(%rbp)
    fef3:	7e d9                	jle    fece <func_45+0x12e>
    fef5:	0f b7 05 04 84 00 00 	movzwl 0x8404(%rip),%eax        # 18300 <g_502+0x10>
    fefc:	0f b7 c0             	movzwl %ax,%eax
    feff:	89 85 dc fe ff ff    	mov    %eax,-0x124(%rbp)
    ff05:	8b 05 65 83 00 00    	mov    0x8365(%rip),%eax        # 18270 <g_342>
    ff0b:	89 c1                	mov    %eax,%ecx
    ff0d:	48 89 8d d0 fe ff ff 	mov    %rcx,-0x130(%rbp)
    ff14:	0f b6 05 af 82 00 00 	movzbl 0x82af(%rip),%eax        # 181ca <g_95>
    ff1b:	0f b6 d8             	movzbl %al,%ebx
    ff1e:	44 0f b7 a5 e0 fe ff 	movzwl -0x120(%rbp),%r12d
    ff25:	ff 
    ff26:	48 8b 05 93 b1 00 00 	mov    0xb193(%rip),%rax        # 1b0c0 <g_168>
    ff2d:	0f b7 00             	movzwl (%rax),%eax
    ff30:	44 0f bf e8          	movswl %ax,%r13d
    ff34:	8b bd 2c ff ff ff    	mov    -0xd4(%rbp),%edi
    ff3a:	89 bd d8 fe ff ff    	mov    %edi,-0x128(%rbp)
    ff40:	48 8b 85 60 ff ff ff 	mov    -0xa0(%rbp),%rax
    ff47:	48 85 c0             	test   %rax,%rax
    ff4a:	0f 94 c0             	sete   %al
    ff4d:	0f b6 d0             	movzbl %al,%edx
    ff50:	89 95 cc fe ff ff    	mov    %edx,-0x134(%rbp)
    ff56:	48 8b 05 63 b1 00 00 	mov    0xb163(%rip),%rax        # 1b0c0 <g_168>
    ff5d:	0f b7 00             	movzwl (%rax),%eax
    ff60:	44 0f bf f0          	movswl %ax,%r14d
    ff64:	48 8b 05 55 b1 00 00 	mov    0xb155(%rip),%rax        # 1b0c0 <g_168>
    ff6b:	0f b7 00             	movzwl (%rax),%eax
    ff6e:	44 0f bf f8          	movswl %ax,%r15d
    ff72:	0f b7 05 fd 82 00 00 	movzwl 0x82fd(%rip),%eax        # 18276 <g_342+0x6>
    ff79:	0f b7 d0             	movzwl %ax,%edx
    ff7c:	48 8b 85 10 ff ff ff 	mov    -0xf0(%rbp),%rax
    ff83:	48 89 10             	mov    %rdx,(%rax)
    ff86:	48 8b 85 10 ff ff ff 	mov    -0xf0(%rbp),%rax
    ff8d:	48 8b 10             	mov    (%rax),%rdx
    ff90:	0f b7 85 e0 fe ff ff 	movzwl -0x120(%rbp),%eax
    ff97:	48 39 c2             	cmp    %rax,%rdx
    ff9a:	0f 93 c0             	setae  %al
    ff9d:	0f b6 d0             	movzbl %al,%edx
    ffa0:	48 8b 85 20 ff ff ff 	mov    -0xe0(%rbp),%rax
    ffa7:	8b 00                	mov    (%rax),%eax
    ffa9:	21 c2                	and    %eax,%edx
    ffab:	48 8b 85 20 ff ff ff 	mov    -0xe0(%rbp),%rax
    ffb2:	89 10                	mov    %edx,(%rax)
    ffb4:	8b 85 e4 fe ff ff    	mov    -0x11c(%rbp),%eax
    ffba:	98                   	cwtl   
    ffbb:	be 04 00 00 00       	mov    $0x4,%esi
    ffc0:	89 c7                	mov    %eax,%edi
    ffc2:	e8 9c 65 ff ff       	callq  6563 <safe_rshift_func_int16_t_s_u>
    ffc7:	0f b7 c0             	movzwl %ax,%eax
    ffca:	44 89 fe             	mov    %r15d,%esi
    ffcd:	89 c7                	mov    %eax,%edi
    ffcf:	e8 74 6e ff ff       	callq  6e48 <safe_rshift_func_uint16_t_u_s>
    ffd4:	98                   	cwtl   
    ffd5:	44 89 f6             	mov    %r14d,%esi
    ffd8:	89 c7                	mov    %eax,%edi
    ffda:	e8 f4 63 ff ff       	callq  63d3 <safe_sub_func_int16_t_s_s>
    ffdf:	98                   	cwtl   
    ffe0:	39 85 cc fe ff ff    	cmp    %eax,-0x134(%rbp)
    ffe6:	0f 9d c0             	setge  %al
    ffe9:	0f b6 d0             	movzbl %al,%edx
    ffec:	0f b7 85 e0 fe ff ff 	movzwl -0x120(%rbp),%eax
    fff3:	39 c2                	cmp    %eax,%edx
    fff5:	0f 9c c0             	setl   %al
    fff8:	44 0f b6 f0          	movzbl %al,%r14d
    fffc:	8b 85 28 ff ff ff    	mov    -0xd8(%rbp),%eax
   10002:	85 c0                	test   %eax,%eax
   10004:	0f 94 c0             	sete   %al
   10007:	0f b6 d0             	movzbl %al,%edx
   1000a:	48 8b 85 08 ff ff ff 	mov    -0xf8(%rbp),%rax
   10011:	0f b7 00             	movzwl (%rax),%eax
   10014:	8d 48 01             	lea    0x1(%rax),%ecx
   10017:	48 8b 85 08 ff ff ff 	mov    -0xf8(%rbp),%rax
   1001e:	66 89 08             	mov    %cx,(%rax)
   10021:	48 8b 85 08 ff ff ff 	mov    -0xf8(%rbp),%rax
   10028:	0f b7 00             	movzwl (%rax),%eax
   1002b:	0f b7 c0             	movzwl %ax,%eax
   1002e:	89 d6                	mov    %edx,%esi
   10030:	89 c7                	mov    %eax,%edi
   10032:	e8 c8 6c ff ff       	callq  6cff <safe_add_func_uint16_t_u_u>
   10037:	98                   	cwtl   
   10038:	44 89 f6             	mov    %r14d,%esi
   1003b:	89 c7                	mov    %eax,%edi
   1003d:	e8 b3 63 ff ff       	callq  63f5 <safe_mul_func_int16_t_s_s>
   10042:	66 83 f8 17          	cmp    $0x17,%ax
   10046:	0f 9e c0             	setle  %al
   10049:	0f b6 c0             	movzbl %al,%eax
   1004c:	be 55 00 00 00       	mov    $0x55,%esi
   10051:	89 c7                	mov    %eax,%edi
   10053:	e8 56 6b ff ff       	callq  6bae <safe_mod_func_uint8_t_u_u>
   10058:	0f b6 c0             	movzbl %al,%eax
   1005b:	39 85 e4 fe ff ff    	cmp    %eax,-0x11c(%rbp)
   10061:	0f 9d c0             	setge  %al
   10064:	0f b6 c0             	movzbl %al,%eax
   10067:	39 85 d8 fe ff ff    	cmp    %eax,-0x128(%rbp)
   1006d:	0f 9d c0             	setge  %al
   10070:	0f b6 c0             	movzbl %al,%eax
   10073:	44 89 ee             	mov    %r13d,%esi
   10076:	89 c7                	mov    %eax,%edi
   10078:	e8 56 63 ff ff       	callq  63d3 <safe_sub_func_int16_t_s_s>
   1007d:	0f b7 85 e0 fe ff ff 	movzwl -0x120(%rbp),%eax
   10084:	44 89 e6             	mov    %r12d,%esi
   10087:	89 c7                	mov    %eax,%edi
   10089:	e8 42 6e ff ff       	callq  6ed0 <safe_sub_func_uint32_t_u_u>
   1008e:	0f be c0             	movsbl %al,%eax
   10091:	89 de                	mov    %ebx,%esi
   10093:	89 c7                	mov    %eax,%edi
   10095:	e8 54 62 ff ff       	callq  62ee <safe_lshift_func_int8_t_s_u>
   1009a:	48 0f be c0          	movsbq %al,%rax
   1009e:	48 89 c6             	mov    %rax,%rsi
   100a1:	bf 00 00 00 00       	mov    $0x0,%edi
   100a6:	e8 d5 6f ff ff       	callq  7080 <safe_mod_func_uint64_t_u_u>
   100ab:	8b 95 ec fe ff ff    	mov    -0x114(%rbp),%edx
   100b1:	48 63 d2             	movslq %edx,%rdx
   100b4:	48 39 d0             	cmp    %rdx,%rax
   100b7:	0f 94 c0             	sete   %al
   100ba:	0f b6 d0             	movzbl %al,%edx
   100bd:	0f b7 05 26 b7 00 00 	movzwl 0xb726(%rip),%eax        # 1b7ea <g_75+0x2>
   100c4:	98                   	cwtl   
   100c5:	39 c2                	cmp    %eax,%edx
   100c7:	0f 95 c0             	setne  %al
   100ca:	0f b6 c0             	movzbl %al,%eax
   100cd:	89 c7                	mov    %eax,%edi
   100cf:	e8 71 6a ff ff       	callq  6b45 <safe_unary_minus_func_uint8_t_u>
   100d4:	0f b6 d0             	movzbl %al,%edx
   100d7:	48 8b 05 1a 82 00 00 	mov    0x821a(%rip),%rax        # 182f8 <g_502+0x8>
   100de:	48 39 c2             	cmp    %rax,%rdx
   100e1:	0f 93 c0             	setae  %al
   100e4:	0f b6 c0             	movzbl %al,%eax
   100e7:	48 8b b5 d0 fe ff ff 	mov    -0x130(%rbp),%rsi
   100ee:	48 89 c7             	mov    %rax,%rdi
   100f1:	e8 4b 67 ff ff       	callq  6841 <safe_add_func_int64_t_s_s>
   100f6:	83 f0 01             	xor    $0x1,%eax
   100f9:	0f bf d0             	movswl %ax,%edx
   100fc:	8b 85 28 ff ff ff    	mov    -0xd8(%rbp),%eax
   10102:	98                   	cwtl   
   10103:	89 d6                	mov    %edx,%esi
   10105:	89 c7                	mov    %eax,%edi
   10107:	e8 49 63 ff ff       	callq  6455 <safe_div_func_int16_t_s_s>
   1010c:	0f b6 c0             	movzbl %al,%eax
   1010f:	be 07 00 00 00       	mov    $0x7,%esi
   10114:	89 c7                	mov    %eax,%edi
   10116:	e8 31 6b ff ff       	callq  6c4c <safe_lshift_func_uint8_t_u_u>
   1011b:	0f b6 d0             	movzbl %al,%edx
   1011e:	48 8b 45 a0          	mov    -0x60(%rbp),%rax
   10122:	48 31 c2             	xor    %rax,%rdx
   10125:	48 b8 d0 76 41 94 be 	movabs $0x378815be944176d0,%rax
   1012c:	15 88 37 
   1012f:	48 39 c2             	cmp    %rax,%rdx
   10132:	0f 96 c0             	setbe  %al
   10135:	0f b6 c0             	movzbl %al,%eax
   10138:	39 85 dc fe ff ff    	cmp    %eax,-0x124(%rbp)
   1013e:	0f 9e c0             	setle  %al
   10141:	0f b6 c0             	movzbl %al,%eax
   10144:	39 85 ec fe ff ff    	cmp    %eax,-0x114(%rbp)
   1014a:	7c 11                	jl     1015d <func_45+0x3bd>
   1014c:	66 83 bd e0 fe ff ff 	cmpw   $0x0,-0x120(%rbp)
   10153:	00 
   10154:	74 07                	je     1015d <func_45+0x3bd>
   10156:	b8 01 00 00 00       	mov    $0x1,%eax
   1015b:	eb 05                	jmp    10162 <func_45+0x3c2>
   1015d:	b8 00 00 00 00       	mov    $0x0,%eax
   10162:	be 75 9d 68 f4       	mov    $0xf4689d75,%esi
   10167:	89 c7                	mov    %eax,%edi
   10169:	e8 97 64 ff ff       	callq  6605 <safe_sub_func_int32_t_s_s>
   1016e:	83 f8 01             	cmp    $0x1,%eax
   10171:	0f 94 c0             	sete   %al
   10174:	0f b6 c0             	movzbl %al,%eax
   10177:	89 c7                	mov    %eax,%edi
   10179:	e8 1f 62 ff ff       	callq  639d <safe_unary_minus_func_int16_t_s>
   1017e:	98                   	cwtl   
   1017f:	21 85 fc fe ff ff    	and    %eax,-0x104(%rbp)
   10185:	8b 85 fc fe ff ff    	mov    -0x104(%rbp),%eax
   1018b:	88 85 f6 fe ff ff    	mov    %al,-0x10a(%rbp)
   10191:	80 ad f7 fe ff ff 01 	subb   $0x1,-0x109(%rbp)
   10198:	0f b7 85 e0 fe ff ff 	movzwl -0x120(%rbp),%eax
   1019f:	48 8b 5d c8          	mov    -0x38(%rbp),%rbx
   101a3:	64 48 33 1c 25 28 00 	xor    %fs:0x28,%rbx
   101aa:	00 00 
   101ac:	74 05                	je     101b3 <func_45+0x413>
   101ae:	e8 bd 5e ff ff       	callq  6070 <__stack_chk_fail@plt>
   101b3:	48 81 c4 18 01 00 00 	add    $0x118,%rsp
   101ba:	5b                   	pop    %rbx
   101bb:	41 5c                	pop    %r12
   101bd:	41 5d                	pop    %r13
   101bf:	41 5e                	pop    %r14
   101c1:	41 5f                	pop    %r15
   101c3:	5d                   	pop    %rbp
   101c4:	c3                   	retq   

00000000000101c5 <func_50>:
   101c5:	f3 0f 1e fa          	endbr64 
   101c9:	55                   	push   %rbp
   101ca:	48 89 e5             	mov    %rsp,%rbp
   101cd:	41 57                	push   %r15
   101cf:	41 56                	push   %r14
   101d1:	41 55                	push   %r13
   101d3:	41 54                	push   %r12
   101d5:	53                   	push   %rbx
   101d6:	48 81 ec 58 0d 00 00 	sub    $0xd58,%rsp
   101dd:	89 bd 8c f2 ff ff    	mov    %edi,-0xd74(%rbp)
   101e3:	64 48 8b 04 25 28 00 	mov    %fs:0x28,%rax
   101ea:	00 00 
   101ec:	48 89 45 c8          	mov    %rax,-0x38(%rbp)
   101f0:	31 c0                	xor    %eax,%eax
   101f2:	c6 85 91 f2 ff ff f0 	movb   $0xf0,-0xd6f(%rbp)
   101f9:	c7 85 c4 f2 ff ff 24 	movl   $0xe5d08624,-0xd3c(%rbp)
   10200:	86 d0 e5 
   10203:	c7 85 c8 f2 ff ff d5 	movl   $0xf62464d5,-0xd38(%rbp)
   1020a:	64 24 f6 
   1020d:	c7 85 9c f2 ff ff 3a 	movl   $0x633c8c3a,-0xd64(%rbp)
   10214:	8c 3c 63 
   10217:	c7 85 cc f2 ff ff 08 	movl   $0x3421408,-0xd34(%rbp)
   1021e:	14 42 03 
   10221:	c7 85 d0 f2 ff ff 01 	movl   $0x1,-0xd30(%rbp)
   10228:	00 00 00 
   1022b:	c7 85 d4 f2 ff ff 09 	movl   $0x9,-0xd2c(%rbp)
   10232:	00 00 00 
   10235:	c7 85 d8 f2 ff ff e6 	movl   $0x96c6fe6,-0xd28(%rbp)
   1023c:	6f 6c 09 
   1023f:	c7 85 dc f2 ff ff d5 	movl   $0x7f81e8d5,-0xd24(%rbp)
   10246:	e8 81 7f 
   10249:	c7 85 a0 f2 ff ff ff 	movl   $0xffffffff,-0xd60(%rbp)
   10250:	ff ff ff 
   10253:	c7 85 e0 f2 ff ff f9 	movl   $0xfffffff9,-0xd20(%rbp)
   1025a:	ff ff ff 
   1025d:	c7 85 e4 f2 ff ff 77 	movl   $0x81bbb577,-0xd1c(%rbp)
   10264:	b5 bb 81 
   10267:	c7 85 e8 f2 ff ff 02 	movl   $0x2,-0xd18(%rbp)
   1026e:	00 00 00 
   10271:	c7 85 a4 f2 ff ff 15 	movl   $0xcbf07a15,-0xd5c(%rbp)
   10278:	7a f0 cb 
   1027b:	66 c7 85 96 f2 ff ff 	movw   $0x1,-0xd6a(%rbp)
   10282:	01 00 
   10284:	48 8d 05 05 af 00 00 	lea    0xaf05(%rip),%rax        # 1b190 <g_469+0x90>
   1028b:	48 89 85 80 f3 ff ff 	mov    %rax,-0xc80(%rbp)
   10292:	48 8d 05 af af 00 00 	lea    0xafaf(%rip),%rax        # 1b248 <g_469+0x148>
   10299:	48 89 85 88 f3 ff ff 	mov    %rax,-0xc78(%rbp)
   102a0:	48 8d 85 a0 f2 ff ff 	lea    -0xd60(%rbp),%rax
   102a7:	48 89 85 80 f4 ff ff 	mov    %rax,-0xb80(%rbp)
   102ae:	48 8d 85 a0 f2 ff ff 	lea    -0xd60(%rbp),%rax
   102b5:	48 89 85 88 f4 ff ff 	mov    %rax,-0xb78(%rbp)
   102bc:	48 8d 85 a0 f2 ff ff 	lea    -0xd60(%rbp),%rax
   102c3:	48 89 85 90 f4 ff ff 	mov    %rax,-0xb70(%rbp)
   102ca:	48 8d 85 a0 f2 ff ff 	lea    -0xd60(%rbp),%rax
   102d1:	48 89 85 98 f4 ff ff 	mov    %rax,-0xb68(%rbp)
   102d8:	c7 85 8c f2 ff ff 00 	movl   $0x0,-0xd74(%rbp)
   102df:	00 00 00 
   102e2:	e9 b4 18 00 00       	jmpq   11b9b <func_50+0x19d6>
   102e7:	48 8d 85 c0 f6 ff ff 	lea    -0x940(%rbp),%rax
   102ee:	48 8d 15 eb 43 00 00 	lea    0x43eb(%rip),%rdx        # 146e0 <g_1017+0x620>
   102f5:	b9 24 00 00 00       	mov    $0x24,%ecx
   102fa:	48 89 c7             	mov    %rax,%rdi
   102fd:	48 89 d6             	mov    %rdx,%rsi
   10300:	f3 48 a5             	rep movsq %ds:(%rsi),%es:(%rdi)
   10303:	48 8d 05 66 7f 00 00 	lea    0x7f66(%rip),%rax        # 18270 <g_342>
   1030a:	48 89 85 90 f3 ff ff 	mov    %rax,-0xc70(%rbp)
   10311:	48 b8 ee ca c3 45 b8 	movabs $0xb0ef38b845c3caee,%rax
   10318:	38 ef b0 
   1031b:	48 89 85 98 f3 ff ff 	mov    %rax,-0xc68(%rbp)
   10322:	48 8d 05 3f 7f 00 00 	lea    0x7f3f(%rip),%rax        # 18268 <g_328>
   10329:	48 89 85 a0 f3 ff ff 	mov    %rax,-0xc60(%rbp)
   10330:	c7 85 bc f2 ff ff ab 	movl   $0x755d46ab,-0xd44(%rbp)
   10337:	46 5d 75 
   1033a:	c7 85 c0 f2 ff ff 06 	movl   $0x6,-0xd40(%rbp)
   10341:	00 00 00 
   10344:	48 c7 85 a8 f3 ff ff 	movq   $0x0,-0xc58(%rbp)
   1034b:	00 00 00 00 
   1034f:	66 c7 85 94 f2 ff ff 	movw   $0x1,-0xd6c(%rbp)
   10356:	01 00 
   10358:	48 8d 05 01 7f 00 00 	lea    0x7f01(%rip),%rax        # 18260 <g_289>
   1035f:	48 89 85 d0 f4 ff ff 	mov    %rax,-0xb30(%rbp)
   10366:	48 8d 05 f3 7e 00 00 	lea    0x7ef3(%rip),%rax        # 18260 <g_289>
   1036d:	48 89 85 d8 f4 ff ff 	mov    %rax,-0xb28(%rbp)
   10374:	48 8d 05 e5 7e 00 00 	lea    0x7ee5(%rip),%rax        # 18260 <g_289>
   1037b:	48 89 85 e0 f4 ff ff 	mov    %rax,-0xb20(%rbp)
   10382:	48 8d 05 d7 7e 00 00 	lea    0x7ed7(%rip),%rax        # 18260 <g_289>
   10389:	48 89 85 e8 f4 ff ff 	mov    %rax,-0xb18(%rbp)
   10390:	48 8d 05 c9 7e 00 00 	lea    0x7ec9(%rip),%rax        # 18260 <g_289>
   10397:	48 89 85 f0 f4 ff ff 	mov    %rax,-0xb10(%rbp)
   1039e:	48 8d 05 bb 7e 00 00 	lea    0x7ebb(%rip),%rax        # 18260 <g_289>
   103a5:	48 89 85 f8 f4 ff ff 	mov    %rax,-0xb08(%rbp)
   103ac:	48 8d 05 ad 7e 00 00 	lea    0x7ead(%rip),%rax        # 18260 <g_289>
   103b3:	48 89 85 00 f5 ff ff 	mov    %rax,-0xb00(%rbp)
   103ba:	48 8d 05 9f 7e 00 00 	lea    0x7e9f(%rip),%rax        # 18260 <g_289>
   103c1:	48 89 85 08 f5 ff ff 	mov    %rax,-0xaf8(%rbp)
   103c8:	48 8d 05 91 7e 00 00 	lea    0x7e91(%rip),%rax        # 18260 <g_289>
   103cf:	48 89 85 10 f5 ff ff 	mov    %rax,-0xaf0(%rbp)
   103d6:	48 8d 85 a4 f2 ff ff 	lea    -0xd5c(%rbp),%rax
   103dd:	48 89 85 68 f3 ff ff 	mov    %rax,-0xc98(%rbp)
   103e4:	48 8d 05 c5 ac 00 00 	lea    0xacc5(%rip),%rax        # 1b0b0 <g_116>
   103eb:	48 89 85 b0 f3 ff ff 	mov    %rax,-0xc50(%rbp)
   103f2:	c7 85 1c f3 ff ff d4 	movl   $0xcc15aed4,-0xce4(%rbp)
   103f9:	ae 15 cc 
   103fc:	c7 85 ec f2 ff ff fb 	movl   $0x57428efb,-0xd14(%rbp)
   10403:	8e 42 57 
   10406:	c7 85 20 f3 ff ff 58 	movl   $0xf1ae8558,-0xce0(%rbp)
   1040d:	85 ae f1 
   10410:	c7 85 f0 f2 ff ff 00 	movl   $0x0,-0xd10(%rbp)
   10417:	00 00 00 
   1041a:	eb 1a                	jmp    10436 <func_50+0x271>
   1041c:	8b 85 f0 f2 ff ff    	mov    -0xd10(%rbp),%eax
   10422:	48 98                	cltq   
   10424:	c7 84 85 44 f4 ff ff 	movl   $0x7212622e,-0xbbc(%rbp,%rax,4)
   1042b:	2e 62 12 72 
   1042f:	83 85 f0 f2 ff ff 01 	addl   $0x1,-0xd10(%rbp)
   10436:	83 bd f0 f2 ff ff 00 	cmpl   $0x0,-0xd10(%rbp)
   1043d:	7e dd                	jle    1041c <func_50+0x257>
   1043f:	c7 85 f0 f2 ff ff 00 	movl   $0x0,-0xd10(%rbp)
   10446:	00 00 00 
   10449:	eb 1a                	jmp    10465 <func_50+0x2a0>
   1044b:	8b 85 f0 f2 ff ff    	mov    -0xd10(%rbp),%eax
   10451:	48 98                	cltq   
   10453:	c7 84 85 54 f4 ff ff 	movl   $0xfffffffc,-0xbac(%rbp,%rax,4)
   1045a:	fc ff ff ff 
   1045e:	83 85 f0 f2 ff ff 01 	addl   $0x1,-0xd10(%rbp)
   10465:	83 bd f0 f2 ff ff 02 	cmpl   $0x2,-0xd10(%rbp)
   1046c:	7e dd                	jle    1044b <func_50+0x286>
   1046e:	c7 05 b4 7b 00 00 01 	movl   $0x1,0x7bb4(%rip)        # 1802c <g_56>
   10475:	00 00 00 
   10478:	e9 f5 16 00 00       	jmpq   11b72 <func_50+0x19ad>
   1047d:	c7 85 a8 f2 ff ff fb 	movl   $0xfffffffb,-0xd58(%rbp)
   10484:	ff ff ff 
   10487:	48 8d 05 60 b3 00 00 	lea    0xb360(%rip),%rax        # 1b7ee <g_75+0x6>
   1048e:	48 89 85 b8 f3 ff ff 	mov    %rax,-0xc48(%rbp)
   10495:	48 8d 05 c4 7d 00 00 	lea    0x7dc4(%rip),%rax        # 18260 <g_289>
   1049c:	48 89 85 70 f3 ff ff 	mov    %rax,-0xc90(%rbp)
   104a3:	48 8d 05 26 7d 00 00 	lea    0x7d26(%rip),%rax        # 181d0 <g_125>
   104aa:	48 89 85 c0 f5 ff ff 	mov    %rax,-0xa40(%rbp)
   104b1:	48 8d 05 18 7d 00 00 	lea    0x7d18(%rip),%rax        # 181d0 <g_125>
   104b8:	48 89 85 c8 f5 ff ff 	mov    %rax,-0xa38(%rbp)
   104bf:	48 8d 05 0a 7d 00 00 	lea    0x7d0a(%rip),%rax        # 181d0 <g_125>
   104c6:	48 89 85 d0 f5 ff ff 	mov    %rax,-0xa30(%rbp)
   104cd:	48 8d 05 fc 7c 00 00 	lea    0x7cfc(%rip),%rax        # 181d0 <g_125>
   104d4:	48 89 85 d8 f5 ff ff 	mov    %rax,-0xa28(%rbp)
   104db:	48 8d 05 ee 7c 00 00 	lea    0x7cee(%rip),%rax        # 181d0 <g_125>
   104e2:	48 89 85 e0 f5 ff ff 	mov    %rax,-0xa20(%rbp)
   104e9:	48 8d 05 e0 7c 00 00 	lea    0x7ce0(%rip),%rax        # 181d0 <g_125>
   104f0:	48 89 85 e8 f5 ff ff 	mov    %rax,-0xa18(%rbp)
   104f7:	48 8d 05 d2 7c 00 00 	lea    0x7cd2(%rip),%rax        # 181d0 <g_125>
   104fe:	48 89 85 f0 f5 ff ff 	mov    %rax,-0xa10(%rbp)
   10505:	48 8d 05 c4 7c 00 00 	lea    0x7cc4(%rip),%rax        # 181d0 <g_125>
   1050c:	48 89 85 f8 f5 ff ff 	mov    %rax,-0xa08(%rbp)
   10513:	48 8d 05 b6 7c 00 00 	lea    0x7cb6(%rip),%rax        # 181d0 <g_125>
   1051a:	48 89 85 00 f6 ff ff 	mov    %rax,-0xa00(%rbp)
   10521:	48 8d 05 a8 7c 00 00 	lea    0x7ca8(%rip),%rax        # 181d0 <g_125>
   10528:	48 89 85 08 f6 ff ff 	mov    %rax,-0x9f8(%rbp)
   1052f:	48 8d 05 9a 7c 00 00 	lea    0x7c9a(%rip),%rax        # 181d0 <g_125>
   10536:	48 89 85 10 f6 ff ff 	mov    %rax,-0x9f0(%rbp)
   1053d:	48 8d 05 8c 7c 00 00 	lea    0x7c8c(%rip),%rax        # 181d0 <g_125>
   10544:	48 89 85 18 f6 ff ff 	mov    %rax,-0x9e8(%rbp)
   1054b:	48 8d 05 7e 7c 00 00 	lea    0x7c7e(%rip),%rax        # 181d0 <g_125>
   10552:	48 89 85 20 f6 ff ff 	mov    %rax,-0x9e0(%rbp)
   10559:	48 8d 05 70 7c 00 00 	lea    0x7c70(%rip),%rax        # 181d0 <g_125>
   10560:	48 89 85 28 f6 ff ff 	mov    %rax,-0x9d8(%rbp)
   10567:	48 8d 05 62 7c 00 00 	lea    0x7c62(%rip),%rax        # 181d0 <g_125>
   1056e:	48 89 85 30 f6 ff ff 	mov    %rax,-0x9d0(%rbp)
   10575:	48 8d 05 54 7c 00 00 	lea    0x7c54(%rip),%rax        # 181d0 <g_125>
   1057c:	48 89 85 38 f6 ff ff 	mov    %rax,-0x9c8(%rbp)
   10583:	48 8d 05 46 7c 00 00 	lea    0x7c46(%rip),%rax        # 181d0 <g_125>
   1058a:	48 89 85 40 f6 ff ff 	mov    %rax,-0x9c0(%rbp)
   10591:	48 8d 05 38 7c 00 00 	lea    0x7c38(%rip),%rax        # 181d0 <g_125>
   10598:	48 89 85 48 f6 ff ff 	mov    %rax,-0x9b8(%rbp)
   1059f:	48 8d 05 2a 7c 00 00 	lea    0x7c2a(%rip),%rax        # 181d0 <g_125>
   105a6:	48 89 85 50 f6 ff ff 	mov    %rax,-0x9b0(%rbp)
   105ad:	48 8d 05 1c 7c 00 00 	lea    0x7c1c(%rip),%rax        # 181d0 <g_125>
   105b4:	48 89 85 58 f6 ff ff 	mov    %rax,-0x9a8(%rbp)
   105bb:	48 8d 05 0e 7c 00 00 	lea    0x7c0e(%rip),%rax        # 181d0 <g_125>
   105c2:	48 89 85 60 f6 ff ff 	mov    %rax,-0x9a0(%rbp)
   105c9:	48 8d 05 00 7c 00 00 	lea    0x7c00(%rip),%rax        # 181d0 <g_125>
   105d0:	48 89 85 68 f6 ff ff 	mov    %rax,-0x998(%rbp)
   105d7:	48 8d 05 f2 7b 00 00 	lea    0x7bf2(%rip),%rax        # 181d0 <g_125>
   105de:	48 89 85 70 f6 ff ff 	mov    %rax,-0x990(%rbp)
   105e5:	48 8d 05 e4 7b 00 00 	lea    0x7be4(%rip),%rax        # 181d0 <g_125>
   105ec:	48 89 85 78 f6 ff ff 	mov    %rax,-0x988(%rbp)
   105f3:	48 8d 05 d6 7b 00 00 	lea    0x7bd6(%rip),%rax        # 181d0 <g_125>
   105fa:	48 89 85 80 f6 ff ff 	mov    %rax,-0x980(%rbp)
   10601:	48 8d 05 c8 7b 00 00 	lea    0x7bc8(%rip),%rax        # 181d0 <g_125>
   10608:	48 89 85 88 f6 ff ff 	mov    %rax,-0x978(%rbp)
   1060f:	48 8d 05 ba 7b 00 00 	lea    0x7bba(%rip),%rax        # 181d0 <g_125>
   10616:	48 89 85 90 f6 ff ff 	mov    %rax,-0x970(%rbp)
   1061d:	48 8d 05 ac 7b 00 00 	lea    0x7bac(%rip),%rax        # 181d0 <g_125>
   10624:	48 89 85 98 f6 ff ff 	mov    %rax,-0x968(%rbp)
   1062b:	48 8d 05 9e 7b 00 00 	lea    0x7b9e(%rip),%rax        # 181d0 <g_125>
   10632:	48 89 85 a0 f6 ff ff 	mov    %rax,-0x960(%rbp)
   10639:	48 8d 05 90 7b 00 00 	lea    0x7b90(%rip),%rax        # 181d0 <g_125>
   10640:	48 89 85 a8 f6 ff ff 	mov    %rax,-0x958(%rbp)
   10647:	48 8d 05 82 7b 00 00 	lea    0x7b82(%rip),%rax        # 181d0 <g_125>
   1064e:	48 89 85 b0 f6 ff ff 	mov    %rax,-0x950(%rbp)
   10655:	48 8d 05 74 7b 00 00 	lea    0x7b74(%rip),%rax        # 181d0 <g_125>
   1065c:	48 89 85 b8 f6 ff ff 	mov    %rax,-0x948(%rbp)
   10663:	48 8d 85 c0 f5 ff ff 	lea    -0xa40(%rbp),%rax
   1066a:	48 05 f8 00 00 00    	add    $0xf8,%rax
   10670:	48 89 85 c0 f3 ff ff 	mov    %rax,-0xc40(%rbp)
   10677:	48 8d 05 4e 7b 00 00 	lea    0x7b4e(%rip),%rax        # 181cc <g_117>
   1067e:	48 89 85 78 f3 ff ff 	mov    %rax,-0xc88(%rbp)
   10685:	48 c7 85 c8 f3 ff ff 	movq   $0x0,-0xc38(%rbp)
   1068c:	00 00 00 00 
   10690:	48 8d 85 91 f2 ff ff 	lea    -0xd6f(%rbp),%rax
   10697:	48 89 85 d0 f3 ff ff 	mov    %rax,-0xc30(%rbp)
   1069e:	48 8d 05 2d 7b 00 00 	lea    0x7b2d(%rip),%rax        # 181d2 <g_141>
   106a5:	48 89 85 d8 f3 ff ff 	mov    %rax,-0xc28(%rbp)
   106ac:	c7 85 24 f3 ff ff 01 	movl   $0x1,-0xcdc(%rbp)
   106b3:	00 00 00 
   106b6:	c7 85 28 f3 ff ff aa 	movl   $0xd8aa19aa,-0xcd8(%rbp)
   106bd:	19 aa d8 
   106c0:	c7 85 2c f3 ff ff 01 	movl   $0x1,-0xcd4(%rbp)
   106c7:	00 00 00 
   106ca:	66 c7 85 98 f2 ff ff 	movw   $0xfff6,-0xd68(%rbp)
   106d1:	f6 ff 
   106d3:	48 b8 07 f6 07 f6 07 	movabs $0xf607f607f607f607,%rax
   106da:	f6 07 f6 
   106dd:	48 89 45 c0          	mov    %rax,-0x40(%rbp)
   106e1:	48 c7 85 e0 f3 ff ff 	movq   $0x0,-0xc20(%rbp)
   106e8:	00 00 00 00 
   106ec:	48 8d 05 a5 7b 00 00 	lea    0x7ba5(%rip),%rax        # 18298 <g_371+0x8>
   106f3:	48 89 85 70 f5 ff ff 	mov    %rax,-0xa90(%rbp)
   106fa:	48 8d 05 97 7b 00 00 	lea    0x7b97(%rip),%rax        # 18298 <g_371+0x8>
   10701:	48 89 85 78 f5 ff ff 	mov    %rax,-0xa88(%rbp)
   10708:	48 c7 85 80 f5 ff ff 	movq   $0x0,-0xa80(%rbp)
   1070f:	00 00 00 00 
   10713:	48 8d 05 7e 7b 00 00 	lea    0x7b7e(%rip),%rax        # 18298 <g_371+0x8>
   1071a:	48 89 85 88 f5 ff ff 	mov    %rax,-0xa78(%rbp)
   10721:	48 c7 85 90 f5 ff ff 	movq   $0x0,-0xa70(%rbp)
   10728:	00 00 00 00 
   1072c:	48 8d 05 65 7b 00 00 	lea    0x7b65(%rip),%rax        # 18298 <g_371+0x8>
   10733:	48 89 85 98 f5 ff ff 	mov    %rax,-0xa68(%rbp)
   1073a:	48 8d 05 57 7b 00 00 	lea    0x7b57(%rip),%rax        # 18298 <g_371+0x8>
   10741:	48 89 85 a0 f5 ff ff 	mov    %rax,-0xa60(%rbp)
   10748:	48 c7 85 a8 f5 ff ff 	movq   $0x0,-0xa58(%rbp)
   1074f:	00 00 00 00 
   10753:	48 8d 05 3e 7b 00 00 	lea    0x7b3e(%rip),%rax        # 18298 <g_371+0x8>
   1075a:	48 89 85 b0 f5 ff ff 	mov    %rax,-0xa50(%rbp)
   10761:	48 c7 85 b8 f5 ff ff 	movq   $0x0,-0xa48(%rbp)
   10768:	00 00 00 00 
   1076c:	c6 85 92 f2 ff ff ff 	movb   $0xff,-0xd6e(%rbp)
   10773:	c7 85 f4 f2 ff ff 00 	movl   $0x0,-0xd0c(%rbp)
   1077a:	00 00 00 
   1077d:	eb 1a                	jmp    10799 <func_50+0x5d4>
   1077f:	8b 85 f4 f2 ff ff    	mov    -0xd0c(%rbp),%eax
   10785:	48 98                	cltq   
   10787:	c7 84 85 4c f4 ff ff 	movl   $0xfffffffb,-0xbb4(%rbp,%rax,4)
   1078e:	fb ff ff ff 
   10792:	83 85 f4 f2 ff ff 01 	addl   $0x1,-0xd0c(%rbp)
   10799:	83 bd f4 f2 ff ff 01 	cmpl   $0x1,-0xd0c(%rbp)
   107a0:	7e dd                	jle    1077f <func_50+0x5ba>
   107a2:	8b 85 a8 f2 ff ff    	mov    -0xd58(%rbp),%eax
   107a8:	85 c0                	test   %eax,%eax
   107aa:	0f 95 c0             	setne  %al
   107ad:	44 0f b6 f0          	movzbl %al,%r14d
   107b1:	8b 1d 75 78 00 00    	mov    0x7875(%rip),%ebx        # 1802c <g_56>
   107b7:	0f b6 85 91 f2 ff ff 	movzbl -0xd6f(%rbp),%eax
   107be:	84 c0                	test   %al,%al
   107c0:	0f 85 9f 00 00 00    	jne    10865 <func_50+0x6a0>
   107c6:	44 8b a5 c4 f2 ff ff 	mov    -0xd3c(%rbp),%r12d
   107cd:	8b 85 8c f2 ff ff    	mov    -0xd74(%rbp),%eax
   107d3:	98                   	cwtl   
   107d4:	be 03 00 00 00       	mov    $0x3,%esi
   107d9:	89 c7                	mov    %eax,%edi
   107db:	e8 b2 5c ff ff       	callq  6492 <safe_lshift_func_int16_t_s_s>
   107e0:	48 8b 95 b8 f3 ff ff 	mov    -0xc48(%rbp),%rdx
   107e7:	66 89 02             	mov    %ax,(%rdx)
   107ea:	48 8b 85 b8 f3 ff ff 	mov    -0xc48(%rbp),%rax
   107f1:	0f b7 00             	movzwl (%rax),%eax
   107f4:	0f bf d0             	movswl %ax,%edx
   107f7:	48 8b 0d a2 a8 00 00 	mov    0xa8a2(%rip),%rcx        # 1b0a0 <g_76>
   107fe:	48 8b 05 a3 a8 00 00 	mov    0xa8a3(%rip),%rax        # 1b0a8 <g_78>
   10805:	48 39 c1             	cmp    %rax,%rcx
   10808:	0f 94 c0             	sete   %al
   1080b:	0f b6 c0             	movzbl %al,%eax
   1080e:	21 d0                	and    %edx,%eax
   10810:	4c 63 e8             	movslq %eax,%r13
   10813:	8b 85 e0 f6 ff ff    	mov    -0x920(%rbp),%eax
   10819:	89 c6                	mov    %eax,%esi
   1081b:	bf 55 12 2a 1b       	mov    $0x1b2a1255,%edi
   10820:	e8 00 67 ff ff       	callq  6f25 <safe_div_func_uint32_t_u_u>
   10825:	89 c0                	mov    %eax,%eax
   10827:	4c 89 ee             	mov    %r13,%rsi
   1082a:	48 89 c7             	mov    %rax,%rdi
   1082d:	e8 a4 13 00 00       	callq  11bd6 <func_67>
   10832:	be ff ff ff ff       	mov    $0xffffffff,%esi
   10837:	89 c7                	mov    %eax,%edi
   10839:	e8 78 5d ff ff       	callq  65b6 <safe_add_func_int32_t_s_s>
   1083e:	0f be d0             	movsbl %al,%edx
   10841:	0f b6 85 91 f2 ff ff 	movzbl -0xd6f(%rbp),%eax
   10848:	0f be c0             	movsbl %al,%eax
   1084b:	89 d6                	mov    %edx,%esi
   1084d:	89 c7                	mov    %eax,%edi
   1084f:	e8 80 59 ff ff       	callq  61d4 <safe_add_func_int8_t_s_s>
   10854:	0f be c0             	movsbl %al,%eax
   10857:	44 89 e6             	mov    %r12d,%esi
   1085a:	89 c7                	mov    %eax,%edi
   1085c:	e8 40 5a ff ff       	callq  62a1 <safe_lshift_func_int8_t_s_s>
   10861:	84 c0                	test   %al,%al
   10863:	78 07                	js     1086c <func_50+0x6a7>
   10865:	b8 01 00 00 00       	mov    $0x1,%eax
   1086a:	eb 05                	jmp    10871 <func_50+0x6ac>
   1086c:	b8 00 00 00 00       	mov    $0x0,%eax
   10871:	98                   	cwtl   
   10872:	89 de                	mov    %ebx,%esi
   10874:	89 c7                	mov    %eax,%edi
   10876:	e8 af 5c ff ff       	callq  652a <safe_rshift_func_int16_t_s_s>
   1087b:	98                   	cwtl   
   1087c:	41 39 c6             	cmp    %eax,%r14d
   1087f:	48 8b 0d 5a a8 00 00 	mov    0xa85a(%rip),%rcx        # 1b0e0 <g_281>
   10886:	48 8b 05 83 79 00 00 	mov    0x7983(%rip),%rax        # 18210 <g_206+0x30>
   1088d:	48 8b 15 84 79 00 00 	mov    0x7984(%rip),%rdx        # 18218 <g_206+0x38>
   10894:	48 89 01             	mov    %rax,(%rcx)
   10897:	48 89 51 08          	mov    %rdx,0x8(%rcx)
   1089b:	48 8b 05 7e 79 00 00 	mov    0x797e(%rip),%rax        # 18220 <g_206+0x40>
   108a2:	48 89 41 10          	mov    %rax,0x10(%rcx)
   108a6:	8b 85 d4 f6 ff ff    	mov    -0x92c(%rbp),%eax
   108ac:	41 89 c6             	mov    %eax,%r14d
   108af:	8b 9d 8c f2 ff ff    	mov    -0xd74(%rbp),%ebx
   108b5:	48 8b 85 70 f3 ff ff 	mov    -0xc90(%rbp),%rax
   108bc:	8b 10                	mov    (%rax),%edx
   108be:	8d 4a ff             	lea    -0x1(%rdx),%ecx
   108c1:	89 08                	mov    %ecx,(%rax)
   108c3:	8b 85 8c f2 ff ff    	mov    -0xd74(%rbp),%eax
   108c9:	21 d0                	and    %edx,%eax
   108cb:	41 89 c7             	mov    %eax,%r15d
   108ce:	48 8b 05 eb a7 00 00 	mov    0xa7eb(%rip),%rax        # 1b0c0 <g_168>
   108d5:	0f b7 00             	movzwl (%rax),%eax
   108d8:	44 0f b7 e0          	movzwl %ax,%r12d
   108dc:	0f b6 85 91 f2 ff ff 	movzbl -0xd6f(%rbp),%eax
   108e3:	44 0f be e8          	movsbl %al,%r13d
   108e7:	8b 85 c4 f2 ff ff    	mov    -0xd3c(%rbp),%eax
   108ed:	be ff ff ff ff       	mov    $0xffffffff,%esi
   108f2:	89 c7                	mov    %eax,%edi
   108f4:	e8 d3 5d ff ff       	callq  66cc <safe_mod_func_int32_t_s_s>
   108f9:	0f b6 c0             	movzbl %al,%eax
   108fc:	be 06 00 00 00       	mov    $0x6,%esi
   10901:	89 c7                	mov    %eax,%edi
   10903:	e8 44 63 ff ff       	callq  6c4c <safe_lshift_func_uint8_t_u_u>
   10908:	0f be c0             	movsbl %al,%eax
   1090b:	44 89 ee             	mov    %r13d,%esi
   1090e:	89 c7                	mov    %eax,%edi
   10910:	e8 8c 59 ff ff       	callq  62a1 <safe_lshift_func_int8_t_s_s>
   10915:	48 8b 85 c0 f3 ff ff 	mov    -0xc40(%rbp),%rax
   1091c:	48 8d 15 ad 78 00 00 	lea    0x78ad(%rip),%rdx        # 181d0 <g_125>
   10923:	48 89 10             	mov    %rdx,(%rax)
   10926:	48 8b 85 c0 f3 ff ff 	mov    -0xc40(%rbp),%rax
   1092d:	48 8b 00             	mov    (%rax),%rax
   10930:	48 8d 15 99 78 00 00 	lea    0x7899(%rip),%rdx        # 181d0 <g_125>
   10937:	48 39 d0             	cmp    %rdx,%rax
   1093a:	0f 94 c0             	sete   %al
   1093d:	0f b6 d0             	movzbl %al,%edx
   10940:	8b 85 8c f2 ff ff    	mov    -0xd74(%rbp),%eax
   10946:	85 c0                	test   %eax,%eax
   10948:	0f 95 c0             	setne  %al
   1094b:	0f b6 c8             	movzbl %al,%ecx
   1094e:	8b 85 a8 f2 ff ff    	mov    -0xd58(%rbp),%eax
   10954:	39 c1                	cmp    %eax,%ecx
   10956:	0f 9e c0             	setle  %al
   10959:	0f b6 c0             	movzbl %al,%eax
   1095c:	89 d6                	mov    %edx,%esi
   1095e:	89 c7                	mov    %eax,%edi
   10960:	e8 51 5c ff ff       	callq  65b6 <safe_add_func_int32_t_s_s>
   10965:	85 c0                	test   %eax,%eax
   10967:	74 11                	je     1097a <func_50+0x7b5>
   10969:	8b 85 8c f2 ff ff    	mov    -0xd74(%rbp),%eax
   1096f:	85 c0                	test   %eax,%eax
   10971:	74 07                	je     1097a <func_50+0x7b5>
   10973:	b8 01 00 00 00       	mov    $0x1,%eax
   10978:	eb 05                	jmp    1097f <func_50+0x7ba>
   1097a:	b8 00 00 00 00       	mov    $0x0,%eax
   1097f:	f7 d0                	not    %eax
   10981:	83 f8 01             	cmp    $0x1,%eax
   10984:	0f 97 c0             	seta   %al
   10987:	0f b6 c0             	movzbl %al,%eax
   1098a:	44 89 e6             	mov    %r12d,%esi
   1098d:	89 c7                	mov    %eax,%edi
   1098f:	e8 a9 63 ff ff       	callq  6d3d <safe_mul_func_uint16_t_u_u>
   10994:	0f b7 d0             	movzwl %ax,%edx
   10997:	8b 85 a8 f2 ff ff    	mov    -0xd58(%rbp),%eax
   1099d:	39 c2                	cmp    %eax,%edx
   1099f:	0f 9c c0             	setl   %al
   109a2:	0f b6 c0             	movzbl %al,%eax
   109a5:	8b 95 c4 f2 ff ff    	mov    -0xd3c(%rbp),%edx
   109ab:	89 d6                	mov    %edx,%esi
   109ad:	89 c7                	mov    %eax,%edi
   109af:	e8 3a 59 ff ff       	callq  62ee <safe_lshift_func_int8_t_s_u>
   109b4:	0f b7 05 33 ae 00 00 	movzwl 0xae33(%rip),%eax        # 1b7ee <g_75+0x6>
   109bb:	0f b7 c0             	movzwl %ax,%eax
   109be:	be 0c 00 00 00       	mov    $0xc,%esi
   109c3:	89 c7                	mov    %eax,%edi
   109c5:	e8 f4 63 ff ff       	callq  6dbe <safe_lshift_func_uint16_t_u_s>
   109ca:	0f b7 d0             	movzwl %ax,%edx
   109cd:	8b 05 59 76 00 00    	mov    0x7659(%rip),%eax        # 1802c <g_56>
   109d3:	39 c2                	cmp    %eax,%edx
   109d5:	0f 9e c2             	setle  %dl
   109d8:	48 8b 85 78 f3 ff ff 	mov    -0xc88(%rbp),%rax
   109df:	0f b6 d2             	movzbl %dl,%edx
   109e2:	89 10                	mov    %edx,(%rax)
   109e4:	8b 00                	mov    (%rax),%eax
   109e6:	f7 d0                	not    %eax
   109e8:	44 89 fa             	mov    %r15d,%edx
   109eb:	31 c2                	xor    %eax,%edx
   109ed:	48 8b 85 d0 f3 ff ff 	mov    -0xc30(%rbp),%rax
   109f4:	88 10                	mov    %dl,(%rax)
   109f6:	48 8b 85 d0 f3 ff ff 	mov    -0xc30(%rbp),%rax
   109fd:	0f b6 10             	movzbl (%rax),%edx
   10a00:	48 8b 85 d8 f3 ff ff 	mov    -0xc28(%rbp),%rax
   10a07:	88 10                	mov    %dl,(%rax)
   10a09:	48 8b 85 d8 f3 ff ff 	mov    -0xc28(%rbp),%rax
   10a10:	0f b6 00             	movzbl (%rax),%eax
   10a13:	0f be d0             	movsbl %al,%edx
   10a16:	8b 05 10 76 00 00    	mov    0x7610(%rip),%eax        # 1802c <g_56>
   10a1c:	39 c2                	cmp    %eax,%edx
   10a1e:	0f 9f c0             	setg   %al
   10a21:	0f b6 c0             	movzbl %al,%eax
   10a24:	89 de                	mov    %ebx,%esi
   10a26:	89 c7                	mov    %eax,%edi
   10a28:	e8 fd 5a ff ff       	callq  652a <safe_rshift_func_int16_t_s_s>
   10a2d:	44 89 f6             	mov    %r14d,%esi
   10a30:	bf 00 00 00 00       	mov    $0x0,%edi
   10a35:	e8 32 59 ff ff       	callq  636c <safe_rshift_func_int8_t_s_u>
   10a3a:	48 0f be d0          	movsbq %al,%rdx
   10a3e:	0f b7 05 cf 77 00 00 	movzwl 0x77cf(%rip),%eax        # 18214 <g_206+0x34>
   10a45:	48 0f bf c0          	movswq %ax,%rax
   10a49:	48 89 d6             	mov    %rdx,%rsi
   10a4c:	48 89 c7             	mov    %rax,%rdi
   10a4f:	e8 ed 5d ff ff       	callq  6841 <safe_add_func_int64_t_s_s>
   10a54:	48 8d 05 09 78 00 00 	lea    0x7809(%rip),%rax        # 18264 <g_327>
   10a5b:	48 89 85 e8 f3 ff ff 	mov    %rax,-0xc18(%rbp)
   10a62:	48 8d 05 ef 77 00 00 	lea    0x77ef(%rip),%rax        # 18258 <g_229>
   10a69:	48 89 85 f0 f3 ff ff 	mov    %rax,-0xc10(%rbp)
   10a70:	c7 85 ac f2 ff ff 17 	movl   $0xa3fc1217,-0xd54(%rbp)
   10a77:	12 fc a3 
   10a7a:	c7 85 f8 f2 ff ff 05 	movl   $0x5,-0xd08(%rbp)
   10a81:	00 00 00 
   10a84:	c7 85 30 f3 ff ff 90 	movl   $0x1ae6ca90,-0xcd0(%rbp)
   10a8b:	ca e6 1a 
   10a8e:	c7 85 34 f3 ff ff fa 	movl   $0x305d00fa,-0xccc(%rbp)
   10a95:	00 5d 30 
   10a98:	c7 85 38 f3 ff ff e4 	movl   $0x3c0d08e4,-0xcc8(%rbp)
   10a9f:	08 0d 3c 
   10aa2:	c7 85 3c f3 ff ff d4 	movl   $0xbaa376d4,-0xcc4(%rbp)
   10aa9:	76 a3 ba 
   10aac:	c7 85 40 f3 ff ff a5 	movl   $0x48c3dfa5,-0xcc0(%rbp)
   10ab3:	df c3 48 
   10ab6:	c7 85 44 f3 ff ff 02 	movl   $0x2,-0xcbc(%rbp)
   10abd:	00 00 00 
   10ac0:	c7 85 b0 f2 ff ff 6a 	movl   $0xacb2256a,-0xd50(%rbp)
   10ac7:	25 b2 ac 
   10aca:	c7 85 48 f3 ff ff 01 	movl   $0x1,-0xcb8(%rbp)
   10ad1:	00 00 00 
   10ad4:	c7 85 fc f2 ff ff 07 	movl   $0x7,-0xd04(%rbp)
   10adb:	00 00 00 
   10ade:	c7 85 b4 f2 ff ff 26 	movl   $0xf7794426,-0xd4c(%rbp)
   10ae5:	44 79 f7 
   10ae8:	c7 85 4c f3 ff ff 27 	movl   $0x3642027,-0xcb4(%rbp)
   10aef:	20 64 03 
   10af2:	c7 85 50 f3 ff ff d2 	movl   $0xecf0d0d2,-0xcb0(%rbp)
   10af9:	d0 f0 ec 
   10afc:	c6 85 93 f2 ff ff 46 	movb   $0x46,-0xd6d(%rbp)
   10b03:	c7 85 54 f3 ff ff 00 	movl   $0x0,-0xcac(%rbp)
   10b0a:	00 00 00 
   10b0d:	c7 85 58 f3 ff ff b3 	movl   $0x1b8bc6b3,-0xca8(%rbp)
   10b14:	c6 8b 1b 
   10b17:	66 c7 85 a0 f4 ff ff 	movw   $0xe301,-0xb60(%rbp)
   10b1e:	01 e3 
   10b20:	66 c7 85 a2 f4 ff ff 	movw   $0xffff,-0xb5e(%rbp)
   10b27:	ff ff 
   10b29:	66 c7 85 a4 f4 ff ff 	movw   $0xe301,-0xb5c(%rbp)
   10b30:	01 e3 
   10b32:	66 c7 85 a6 f4 ff ff 	movw   $0xbde0,-0xb5a(%rbp)
   10b39:	e0 bd 
   10b3b:	66 c7 85 a8 f4 ff ff 	movw   $0xbde0,-0xb58(%rbp)
   10b42:	e0 bd 
   10b44:	66 c7 85 aa f4 ff ff 	movw   $0xbde0,-0xb56(%rbp)
   10b4b:	e0 bd 
   10b4d:	66 c7 85 ac f4 ff ff 	movw   $0xe301,-0xb54(%rbp)
   10b54:	01 e3 
   10b56:	66 c7 85 ae f4 ff ff 	movw   $0xffff,-0xb52(%rbp)
   10b5d:	ff ff 
   10b5f:	66 c7 85 b0 f4 ff ff 	movw   $0xe301,-0xb50(%rbp)
   10b66:	01 e3 
   10b68:	66 c7 85 b2 f4 ff ff 	movw   $0xbde0,-0xb4e(%rbp)
   10b6f:	e0 bd 
   10b71:	66 c7 85 b4 f4 ff ff 	movw   $0xbde0,-0xb4c(%rbp)
   10b78:	e0 bd 
   10b7a:	66 c7 85 b6 f4 ff ff 	movw   $0xbde0,-0xb4a(%rbp)
   10b81:	e0 bd 
   10b83:	66 c7 85 b8 f4 ff ff 	movw   $0xe301,-0xb48(%rbp)
   10b8a:	01 e3 
   10b8c:	66 c7 85 ba f4 ff ff 	movw   $0xffff,-0xb46(%rbp)
   10b93:	ff ff 
   10b95:	66 c7 85 bc f4 ff ff 	movw   $0xe301,-0xb44(%rbp)
   10b9c:	01 e3 
   10b9e:	66 c7 85 be f4 ff ff 	movw   $0xbde0,-0xb42(%rbp)
   10ba5:	e0 bd 
   10ba7:	66 c7 85 c0 f4 ff ff 	movw   $0xbde0,-0xb40(%rbp)
   10bae:	e0 bd 
   10bb0:	66 c7 85 c2 f4 ff ff 	movw   $0xbde0,-0xb3e(%rbp)
   10bb7:	e0 bd 
   10bb9:	66 c7 85 c4 f4 ff ff 	movw   $0xe301,-0xb3c(%rbp)
   10bc0:	01 e3 
   10bc2:	66 c7 85 c6 f4 ff ff 	movw   $0xffff,-0xb3a(%rbp)
   10bc9:	ff ff 
   10bcb:	66 c7 85 c8 f4 ff ff 	movw   $0xe301,-0xb38(%rbp)
   10bd2:	01 e3 
   10bd4:	66 c7 85 ca f4 ff ff 	movw   $0xbde0,-0xb36(%rbp)
   10bdb:	e0 bd 
   10bdd:	66 c7 85 cc f4 ff ff 	movw   $0xbde0,-0xb34(%rbp)
   10be4:	e0 bd 
   10be6:	66 c7 85 ce f4 ff ff 	movw   $0xbde0,-0xb32(%rbp)
   10bed:	e0 bd 
   10bef:	c7 85 b8 f2 ff ff ff 	movl   $0xffffffff,-0xd48(%rbp)
   10bf6:	ff ff ff 
   10bf9:	c7 85 00 f3 ff ff 00 	movl   $0x0,-0xd00(%rbp)
   10c00:	00 00 00 
   10c03:	eb 6a                	jmp    10c6f <func_50+0xaaa>
   10c05:	c7 85 04 f3 ff ff 00 	movl   $0x0,-0xcfc(%rbp)
   10c0c:	00 00 00 
   10c0f:	eb 4e                	jmp    10c5f <func_50+0xa9a>
   10c11:	c7 85 08 f3 ff ff 00 	movl   $0x0,-0xcf8(%rbp)
   10c18:	00 00 00 
   10c1b:	eb 32                	jmp    10c4f <func_50+0xa8a>
   10c1d:	8b 85 08 f3 ff ff    	mov    -0xcf8(%rbp),%eax
   10c23:	48 63 c8             	movslq %eax,%rcx
   10c26:	8b 85 04 f3 ff ff    	mov    -0xcfc(%rbp),%eax
   10c2c:	48 63 d0             	movslq %eax,%rdx
   10c2f:	8b 85 00 f3 ff ff    	mov    -0xd00(%rbp),%eax
   10c35:	48 98                	cltq   
   10c37:	48 01 ca             	add    %rcx,%rdx
   10c3a:	48 01 d0             	add    %rdx,%rax
   10c3d:	c7 84 85 60 f4 ff ff 	movl   $0x8838b347,-0xba0(%rbp,%rax,4)
   10c44:	47 b3 38 88 
   10c48:	83 85 08 f3 ff ff 01 	addl   $0x1,-0xcf8(%rbp)
   10c4f:	83 bd 08 f3 ff ff 00 	cmpl   $0x0,-0xcf8(%rbp)
   10c56:	7e c5                	jle    10c1d <func_50+0xa58>
   10c58:	83 85 04 f3 ff ff 01 	addl   $0x1,-0xcfc(%rbp)
   10c5f:	83 bd 04 f3 ff ff 00 	cmpl   $0x0,-0xcfc(%rbp)
   10c66:	7e a9                	jle    10c11 <func_50+0xa4c>
   10c68:	83 85 00 f3 ff ff 01 	addl   $0x1,-0xd00(%rbp)
   10c6f:	83 bd 00 f3 ff ff 06 	cmpl   $0x6,-0xd00(%rbp)
   10c76:	7e 8d                	jle    10c05 <func_50+0xa40>
   10c78:	8b 85 8c f2 ff ff    	mov    -0xd74(%rbp),%eax
   10c7e:	0f be d0             	movsbl %al,%edx
   10c81:	8b 85 24 f3 ff ff    	mov    -0xcdc(%rbp),%eax
   10c87:	0f be c0             	movsbl %al,%eax
   10c8a:	89 d6                	mov    %edx,%esi
   10c8c:	89 c7                	mov    %eax,%edi
   10c8e:	e8 9e 55 ff ff       	callq  6231 <safe_mod_func_int8_t_s_s>
   10c93:	0f be d8             	movsbl %al,%ebx
   10c96:	8b 85 8c f2 ff ff    	mov    -0xd74(%rbp),%eax
   10c9c:	4c 63 e0             	movslq %eax,%r12
   10c9f:	48 8b 05 02 a4 00 00 	mov    0xa402(%rip),%rax        # 1b0a8 <g_78>
   10ca6:	0f b7 00             	movzwl (%rax),%eax
   10ca9:	66 85 c0             	test   %ax,%ax
   10cac:	0f 84 84 00 00 00    	je     10d36 <func_50+0xb71>
   10cb2:	be 01 00 00 00       	mov    $0x1,%esi
   10cb7:	bf e8 ff ff ff       	mov    $0xffffffe8,%edi
   10cbc:	e8 13 55 ff ff       	callq  61d4 <safe_add_func_int8_t_s_s>
   10cc1:	0f b7 05 26 ab 00 00 	movzwl 0xab26(%rip),%eax        # 1b7ee <g_75+0x6>
   10cc8:	66 83 f8 fd          	cmp    $0xfffd,%ax
   10ccc:	0f 9d c0             	setge  %al
   10ccf:	0f b6 d0             	movzbl %al,%edx
   10cd2:	0f b6 85 91 f2 ff ff 	movzbl -0xd6f(%rbp),%eax
   10cd9:	0f be c0             	movsbl %al,%eax
   10cdc:	39 c2                	cmp    %eax,%edx
   10cde:	74 0c                	je     10cec <func_50+0xb27>
   10ce0:	48 b8 a2 0e 46 a9 c8 	movabs $0xb71109c8a9460ea2,%rax
   10ce7:	09 11 b7 
   10cea:	eb 0a                	jmp    10cf6 <func_50+0xb31>
   10cec:	48 b8 a3 0e 46 a9 c8 	movabs $0xb71109c8a9460ea3,%rax
   10cf3:	09 11 b7 
   10cf6:	48 8b 95 e8 f3 ff ff 	mov    -0xc18(%rbp),%rdx
   10cfd:	0f b7 12             	movzwl (%rdx),%edx
   10d00:	31 d0                	xor    %edx,%eax
   10d02:	89 c2                	mov    %eax,%edx
   10d04:	48 8b 85 e8 f3 ff ff 	mov    -0xc18(%rbp),%rax
   10d0b:	66 89 10             	mov    %dx,(%rax)
   10d0e:	48 8b 85 e8 f3 ff ff 	mov    -0xc18(%rbp),%rax
   10d15:	0f b7 00             	movzwl (%rax),%eax
   10d18:	48 0f bf c0          	movswq %ax,%rax
   10d1c:	48 89 05 45 75 00 00 	mov    %rax,0x7545(%rip)        # 18268 <g_328>
   10d23:	48 8b 05 3e 75 00 00 	mov    0x753e(%rip),%rax        # 18268 <g_328>
   10d2a:	48 85 c0             	test   %rax,%rax
   10d2d:	74 07                	je     10d36 <func_50+0xb71>
   10d2f:	ba 01 00 00 00       	mov    $0x1,%edx
   10d34:	eb 05                	jmp    10d3b <func_50+0xb76>
   10d36:	ba 00 00 00 00       	mov    $0x0,%edx
   10d3b:	0f b6 05 88 74 00 00 	movzbl 0x7488(%rip),%eax        # 181ca <g_95>
   10d42:	0f b6 c0             	movzbl %al,%eax
   10d45:	39 c2                	cmp    %eax,%edx
   10d47:	0f 9d c0             	setge  %al
   10d4a:	0f b6 c0             	movzbl %al,%eax
   10d4d:	be 03 00 00 00       	mov    $0x3,%esi
   10d52:	89 c7                	mov    %eax,%edi
   10d54:	e8 ac 5e ff ff       	callq  6c05 <safe_lshift_func_uint8_t_u_s>
   10d59:	0f b6 d0             	movzbl %al,%edx
   10d5c:	0f b6 05 6f 74 00 00 	movzbl 0x746f(%rip),%eax        # 181d2 <g_141>
   10d63:	0f be c0             	movsbl %al,%eax
   10d66:	21 d0                	and    %edx,%eax
   10d68:	3d 47 69 55 57       	cmp    $0x57556947,%eax
   10d6d:	0f 9e c0             	setle  %al
   10d70:	0f b6 c0             	movzbl %al,%eax
   10d73:	be 01 00 00 00       	mov    $0x1,%esi
   10d78:	89 c7                	mov    %eax,%edi
   10d7a:	e8 fb 60 ff ff       	callq  6e7a <safe_rshift_func_uint16_t_u_u>
   10d7f:	0f b7 d0             	movzwl %ax,%edx
   10d82:	0f b7 05 65 aa 00 00 	movzwl 0xaa65(%rip),%eax        # 1b7ee <g_75+0x6>
   10d89:	48 0f bf c0          	movswq %ax,%rax
   10d8d:	48 89 d6             	mov    %rdx,%rsi
   10d90:	48 89 c7             	mov    %rax,%rdi
   10d93:	e8 e8 62 ff ff       	callq  7080 <safe_mod_func_uint64_t_u_u>
   10d98:	4c 31 e0             	xor    %r12,%rax
   10d9b:	48 89 c2             	mov    %rax,%rdx
   10d9e:	48 8b 85 f0 f3 ff ff 	mov    -0xc10(%rbp),%rax
   10da5:	48 89 10             	mov    %rdx,(%rax)
   10da8:	48 8b 85 f0 f3 ff ff 	mov    -0xc10(%rbp),%rax
   10daf:	48 8b 00             	mov    (%rax),%rax
   10db2:	48 85 c0             	test   %rax,%rax
   10db5:	75 0a                	jne    10dc1 <func_50+0xbfc>
   10db7:	8b 05 6b 72 00 00    	mov    0x726b(%rip),%eax        # 18028 <g_55>
   10dbd:	85 c0                	test   %eax,%eax
   10dbf:	74 07                	je     10dc8 <func_50+0xc03>
   10dc1:	b8 01 00 00 00       	mov    $0x1,%eax
   10dc6:	eb 05                	jmp    10dcd <func_50+0xc08>
   10dc8:	b8 00 00 00 00       	mov    $0x0,%eax
   10dcd:	39 d8                	cmp    %ebx,%eax
   10dcf:	7e 11                	jle    10de2 <func_50+0xc1d>
   10dd1:	8b 85 8c f2 ff ff    	mov    -0xd74(%rbp),%eax
   10dd7:	85 c0                	test   %eax,%eax
   10dd9:	74 07                	je     10de2 <func_50+0xc1d>
   10ddb:	b8 01 00 00 00       	mov    $0x1,%eax
   10de0:	eb 05                	jmp    10de7 <func_50+0xc22>
   10de2:	b8 00 00 00 00       	mov    $0x0,%eax
   10de7:	0f be c0             	movsbl %al,%eax
   10dea:	be ff ff ff ff       	mov    $0xffffffff,%esi
   10def:	89 c7                	mov    %eax,%edi
   10df1:	e8 de 53 ff ff       	callq  61d4 <safe_add_func_int8_t_s_s>
   10df6:	89 c2                	mov    %eax,%edx
   10df8:	48 8b 85 78 f3 ff ff 	mov    -0xc88(%rbp),%rax
   10dff:	0f be d2             	movsbl %dl,%edx
   10e02:	89 10                	mov    %edx,(%rax)
   10e04:	8b 05 c2 73 00 00    	mov    0x73c2(%rip),%eax        # 181cc <g_117>
   10e0a:	41 89 c4             	mov    %eax,%r12d
   10e0d:	8b 95 8c f2 ff ff    	mov    -0xd74(%rbp),%edx
   10e13:	8b 05 13 72 00 00    	mov    0x7213(%rip),%eax        # 1802c <g_56>
   10e19:	48 98                	cltq   
   10e1b:	48 39 85 98 f3 ff ff 	cmp    %rax,-0xc68(%rbp)
   10e22:	0f 93 c0             	setae  %al
   10e25:	0f b6 c0             	movzbl %al,%eax
   10e28:	89 d6                	mov    %edx,%esi
   10e2a:	89 c7                	mov    %eax,%edi
   10e2c:	e8 17 60 ff ff       	callq  6e48 <safe_rshift_func_uint16_t_u_s>
   10e31:	0f b6 15 92 73 00 00 	movzbl 0x7392(%rip),%edx        # 181ca <g_95>
   10e38:	0f b6 d2             	movzbl %dl,%edx
   10e3b:	66 39 d0             	cmp    %dx,%ax
   10e3e:	0f 95 c0             	setne  %al
   10e41:	0f b6 c0             	movzbl %al,%eax
   10e44:	89 85 9c f2 ff ff    	mov    %eax,-0xd64(%rbp)
   10e4a:	8b 85 9c f2 ff ff    	mov    -0xd64(%rbp),%eax
   10e50:	85 c0                	test   %eax,%eax
   10e52:	48 8b 85 78 f3 ff ff 	mov    -0xc88(%rbp),%rax
   10e59:	8b 18                	mov    (%rax),%ebx
   10e5b:	be 08 5c 04 d0       	mov    $0xd0045c08,%esi
   10e60:	bf ac a5 db b0       	mov    $0xb0dba5ac,%edi
   10e65:	e8 4c 57 ff ff       	callq  65b6 <safe_add_func_int32_t_s_s>
   10e6a:	89 de                	mov    %ebx,%esi
   10e6c:	89 c7                	mov    %eax,%edi
   10e6e:	e8 92 57 ff ff       	callq  6605 <safe_sub_func_int32_t_s_s>
   10e73:	48 83 bd 90 f3 ff ff 	cmpq   $0x0,-0xc70(%rbp)
   10e7a:	00 
   10e7b:	0f 95 c0             	setne  %al
   10e7e:	0f b6 d0             	movzbl %al,%edx
   10e81:	8b 85 8c f2 ff ff    	mov    -0xd74(%rbp),%eax
   10e87:	39 c2                	cmp    %eax,%edx
   10e89:	0f 9d c0             	setge  %al
   10e8c:	0f b6 c0             	movzbl %al,%eax
   10e8f:	44 89 e6             	mov    %r12d,%esi
   10e92:	89 c7                	mov    %eax,%edi
   10e94:	e8 6d 5f ff ff       	callq  6e06 <safe_lshift_func_uint16_t_u_u>
   10e99:	48 c7 c6 fd ff ff ff 	mov    $0xfffffffffffffffd,%rsi
   10ea0:	48 bf b7 9d 36 d4 ea 	movabs $0xdf9f37ead4369db7,%rdi
   10ea7:	37 9f df 
   10eaa:	e8 00 62 ff ff       	callq  70af <safe_div_func_uint64_t_u_u>
   10eaf:	48 85 c0             	test   %rax,%rax
   10eb2:	75 08                	jne    10ebc <func_50+0xcf7>
   10eb4:	8b 85 8c f2 ff ff    	mov    -0xd74(%rbp),%eax
   10eba:	85 c0                	test   %eax,%eax
   10ebc:	48 8b 05 9d 6d 00 00 	mov    0x6d9d(%rip),%rax        # 17c60 <l_351.4650>
   10ec3:	48 39 85 a0 f3 ff ff 	cmp    %rax,-0xc60(%rbp)
   10eca:	0f 94 c0             	sete   %al
   10ecd:	0f b6 c0             	movzbl %al,%eax
   10ed0:	09 85 bc f2 ff ff    	or     %eax,-0xd44(%rbp)
   10ed6:	8b 85 bc f2 ff ff    	mov    -0xd44(%rbp),%eax
   10edc:	48 63 d8             	movslq %eax,%rbx
   10edf:	8b 85 d0 f7 ff ff    	mov    -0x830(%rbp),%eax
   10ee5:	98                   	cwtl   
   10ee6:	be 02 00 00 00       	mov    $0x2,%esi
   10eeb:	89 c7                	mov    %eax,%edi
   10eed:	e8 a0 55 ff ff       	callq  6492 <safe_lshift_func_int16_t_s_s>
   10ef2:	48 0f bf d0          	movswq %ax,%rdx
   10ef6:	48 8b 85 f0 f3 ff ff 	mov    -0xc10(%rbp),%rax
   10efd:	48 89 10             	mov    %rdx,(%rax)
   10f00:	48 8b 85 f0 f3 ff ff 	mov    -0xc10(%rbp),%rax
   10f07:	48 8b 00             	mov    (%rax),%rax
   10f0a:	48 89 c6             	mov    %rax,%rsi
   10f0d:	48 bf 3c f9 5a 0a 19 	movabs $0x4de2f1190a5af93c,%rdi
   10f14:	f1 e2 4d 
   10f17:	e8 2f 61 ff ff       	callq  704b <safe_sub_func_uint64_t_u_u>
   10f1c:	48 89 de             	mov    %rbx,%rsi
   10f1f:	48 89 c7             	mov    %rax,%rdi
   10f22:	e8 59 61 ff ff       	callq  7080 <safe_mod_func_uint64_t_u_u>
   10f27:	48 85 c0             	test   %rax,%rax
   10f2a:	0f 84 92 01 00 00    	je     110c2 <func_50+0xefd>
   10f30:	48 8d 05 93 72 00 00 	lea    0x7293(%rip),%rax        # 181ca <g_95>
   10f37:	48 89 85 f8 f3 ff ff 	mov    %rax,-0xc08(%rbp)
   10f3e:	8b 05 e8 70 00 00    	mov    0x70e8(%rip),%eax        # 1802c <g_56>
   10f44:	89 85 c0 f2 ff ff    	mov    %eax,-0xd40(%rbp)
   10f4a:	8b 85 c0 f2 ff ff    	mov    -0xd40(%rbp),%eax
   10f50:	48 63 d0             	movslq %eax,%rdx
   10f53:	48 8b 85 f0 f3 ff ff 	mov    -0xc10(%rbp),%rax
   10f5a:	48 89 10             	mov    %rdx,(%rax)
   10f5d:	48 8b 85 f0 f3 ff ff 	mov    -0xc10(%rbp),%rax
   10f64:	48 8b 00             	mov    (%rax),%rax
   10f67:	89 85 9c f2 ff ff    	mov    %eax,-0xd64(%rbp)
   10f6d:	8b 85 8c f2 ff ff    	mov    -0xd74(%rbp),%eax
   10f73:	41 89 c7             	mov    %eax,%r15d
   10f76:	8b 85 8c f2 ff ff    	mov    -0xd74(%rbp),%eax
   10f7c:	0f b7 d8             	movzwl %ax,%ebx
   10f7f:	8b 85 40 f7 ff ff    	mov    -0x8c0(%rbp),%eax
   10f85:	0f b6 d0             	movzbl %al,%edx
   10f88:	48 83 bd a0 f3 ff ff 	cmpq   $0x0,-0xc60(%rbp)
   10f8f:	00 
   10f90:	0f 94 c0             	sete   %al
   10f93:	0f b6 c0             	movzbl %al,%eax
   10f96:	89 d6                	mov    %edx,%esi
   10f98:	89 c7                	mov    %eax,%edi
   10f9a:	e8 0f 5c ff ff       	callq  6bae <safe_mod_func_uint8_t_u_u>
   10f9f:	48 8b 95 f8 f3 ff ff 	mov    -0xc08(%rbp),%rdx
   10fa6:	88 02                	mov    %al,(%rdx)
   10fa8:	48 8b 85 f8 f3 ff ff 	mov    -0xc08(%rbp),%rax
   10faf:	0f b6 00             	movzbl (%rax),%eax
   10fb2:	44 0f b6 f0          	movzbl %al,%r14d
   10fb6:	8b 85 8c f2 ff ff    	mov    -0xd74(%rbp),%eax
   10fbc:	44 0f be e0          	movsbl %al,%r12d
   10fc0:	48 8b 85 78 f3 ff ff 	mov    -0xc88(%rbp),%rax
   10fc7:	8b 00                	mov    (%rax),%eax
   10fc9:	4c 63 e8             	movslq %eax,%r13
   10fcc:	48 8b 05 0d a1 00 00 	mov    0xa10d(%rip),%rax        # 1b0e0 <g_281>
   10fd3:	8b 85 1c f7 ff ff    	mov    -0x8e4(%rbp),%eax
   10fd9:	89 c2                	mov    %eax,%edx
   10fdb:	8b 85 5c f7 ff ff    	mov    -0x8a4(%rbp),%eax
   10fe1:	89 d6                	mov    %edx,%esi
   10fe3:	89 c7                	mov    %eax,%edi
   10fe5:	e8 3b 5f ff ff       	callq  6f25 <safe_div_func_uint32_t_u_u>
   10fea:	89 c0                	mov    %eax,%eax
   10fec:	48 89 05 75 72 00 00 	mov    %rax,0x7275(%rip)        # 18268 <g_328>
   10ff3:	48 8b 85 98 f3 ff ff 	mov    -0xc68(%rbp),%rax
   10ffa:	4c 89 ee             	mov    %r13,%rsi
   10ffd:	48 89 c7             	mov    %rax,%rdi
   11000:	e8 7b 60 ff ff       	callq  7080 <safe_mod_func_uint64_t_u_u>
   11005:	0f be c0             	movsbl %al,%eax
   11008:	44 89 e6             	mov    %r12d,%esi
   1100b:	89 c7                	mov    %eax,%edi
   1100d:	e8 00 52 ff ff       	callq  6212 <safe_mul_func_int8_t_s_s>
   11012:	0f be d0             	movsbl %al,%edx
   11015:	48 8b 05 a4 a0 00 00 	mov    0xa0a4(%rip),%rax        # 1b0c0 <g_168>
   1101c:	0f b7 08             	movzwl (%rax),%ecx
   1101f:	8b 85 8c f2 ff ff    	mov    -0xd74(%rbp),%eax
   11025:	89 c6                	mov    %eax,%esi
   11027:	48 8b 05 92 a0 00 00 	mov    0xa092(%rip),%rax        # 1b0c0 <g_168>
   1102e:	09 f1                	or     %esi,%ecx
   11030:	66 89 08             	mov    %cx,(%rax)
   11033:	0f b7 00             	movzwl (%rax),%eax
   11036:	98                   	cwtl   
   11037:	89 d6                	mov    %edx,%esi
   11039:	89 c7                	mov    %eax,%edi
   1103b:	e8 15 54 ff ff       	callq  6455 <safe_div_func_int16_t_s_s>
   11040:	98                   	cwtl   
   11041:	41 39 c6             	cmp    %eax,%r14d
   11044:	7f 11                	jg     11057 <func_50+0xe92>
   11046:	8b 85 8c f2 ff ff    	mov    -0xd74(%rbp),%eax
   1104c:	85 c0                	test   %eax,%eax
   1104e:	74 07                	je     11057 <func_50+0xe92>
   11050:	b8 01 00 00 00       	mov    $0x1,%eax
   11055:	eb 05                	jmp    1105c <func_50+0xe97>
   11057:	b8 00 00 00 00       	mov    $0x0,%eax
   1105c:	0f b7 c0             	movzwl %ax,%eax
   1105f:	89 de                	mov    %ebx,%esi
   11061:	89 c7                	mov    %eax,%edi
   11063:	e8 97 5c ff ff       	callq  6cff <safe_add_func_uint16_t_u_u>
   11068:	0f b7 c0             	movzwl %ax,%eax
   1106b:	09 85 cc f2 ff ff    	or     %eax,-0xd34(%rbp)
   11071:	8b 85 cc f2 ff ff    	mov    -0xd34(%rbp),%eax
   11077:	66 0d 8f 7a          	or     $0x7a8f,%ax
   1107b:	0f b7 c0             	movzwl %ax,%eax
   1107e:	44 89 fe             	mov    %r15d,%esi
   11081:	89 c7                	mov    %eax,%edi
   11083:	e8 f2 5d ff ff       	callq  6e7a <safe_rshift_func_uint16_t_u_u>
   11088:	48 8b 8d 90 f3 ff ff 	mov    -0xc70(%rbp),%rcx
   1108f:	48 8b 05 fa 71 00 00 	mov    0x71fa(%rip),%rax        # 18290 <g_371>
   11096:	48 8b 15 fb 71 00 00 	mov    0x71fb(%rip),%rdx        # 18298 <g_371+0x8>
   1109d:	48 89 01             	mov    %rax,(%rcx)
   110a0:	48 89 51 08          	mov    %rdx,0x8(%rcx)
   110a4:	48 8b 05 f5 71 00 00 	mov    0x71f5(%rip),%rax        # 182a0 <g_371+0x10>
   110ab:	48 89 41 10          	mov    %rax,0x10(%rcx)
   110af:	8b 85 8c f2 ff ff    	mov    -0xd74(%rbp),%eax
   110b5:	85 c0                	test   %eax,%eax
   110b7:	0f 84 86 00 00 00    	je     11143 <func_50+0xf7e>
   110bd:	e9 be 0a 00 00       	jmpq   11b80 <func_50+0x19bb>
   110c2:	66 c7 05 b5 71 00 00 	movw   $0x0,0x71b5(%rip)        # 18280 <g_342+0x10>
   110c9:	00 00 
   110cb:	eb 54                	jmp    11121 <func_50+0xf5c>
   110cd:	8b 05 59 6f 00 00    	mov    0x6f59(%rip),%eax        # 1802c <g_56>
   110d3:	8d 50 01             	lea    0x1(%rax),%edx
   110d6:	0f b7 05 a3 71 00 00 	movzwl 0x71a3(%rip),%eax        # 18280 <g_342+0x10>
   110dd:	0f b7 c0             	movzwl %ax,%eax
   110e0:	8d 70 03             	lea    0x3(%rax),%esi
   110e3:	8b 05 43 6f 00 00    	mov    0x6f43(%rip),%eax        # 1802c <g_56>
   110e9:	48 63 c8             	movslq %eax,%rcx
   110ec:	48 63 d2             	movslq %edx,%rdx
   110ef:	48 63 f6             	movslq %esi,%rsi
   110f2:	48 89 d0             	mov    %rdx,%rax
   110f5:	48 c1 e0 03          	shl    $0x3,%rax
   110f9:	48 01 d0             	add    %rdx,%rax
   110fc:	48 01 f0             	add    %rsi,%rax
   110ff:	48 01 c0             	add    %rax,%rax
   11102:	48 01 c8             	add    %rcx,%rax
   11105:	8b 84 85 c0 f6 ff ff 	mov    -0x940(%rbp,%rax,4),%eax
   1110c:	85 c0                	test   %eax,%eax
   1110e:	75 20                	jne    11130 <func_50+0xf6b>
   11110:	0f b7 05 69 71 00 00 	movzwl 0x7169(%rip),%eax        # 18280 <g_342+0x10>
   11117:	83 c0 01             	add    $0x1,%eax
   1111a:	66 89 05 5f 71 00 00 	mov    %ax,0x715f(%rip)        # 18280 <g_342+0x10>
   11121:	0f b7 05 58 71 00 00 	movzwl 0x7158(%rip),%eax        # 18280 <g_342+0x10>
   11128:	66 83 f8 01          	cmp    $0x1,%ax
   1112c:	76 9f                	jbe    110cd <func_50+0xf08>
   1112e:	eb 01                	jmp    11131 <func_50+0xf6c>
   11130:	90                   	nop
   11131:	48 8b 95 78 f3 ff ff 	mov    -0xc88(%rbp),%rdx
   11138:	48 8b 85 78 f3 ff ff 	mov    -0xc88(%rbp),%rax
   1113f:	8b 12                	mov    (%rdx),%edx
   11141:	89 10                	mov    %edx,(%rax)
   11143:	8b 85 ac f2 ff ff    	mov    -0xd54(%rbp),%eax
   11149:	85 c0                	test   %eax,%eax
   1114b:	0f 85 12 0a 00 00    	jne    11b63 <func_50+0x199e>
   11151:	c7 85 bc f2 ff ff 03 	movl   $0x3,-0xd44(%rbp)
   11158:	00 00 00 
   1115b:	e9 7e 04 00 00       	jmpq   115de <func_50+0x1419>
   11160:	c7 85 60 f3 ff ff 2d 	movl   $0x9d75332d,-0xca0(%rbp)
   11167:	33 75 9d 
   1116a:	48 8d 85 e0 f7 ff ff 	lea    -0x820(%rbp),%rax
   11171:	48 8d 15 e8 8e 00 00 	lea    0x8ee8(%rip),%rdx        # 1a060 <g_1347+0xec0>
   11178:	b9 fa 00 00 00       	mov    $0xfa,%ecx
   1117d:	48 89 c7             	mov    %rax,%rdi
   11180:	48 89 d6             	mov    %rdx,%rsi
   11183:	f3 48 a5             	rep movsq %ds:(%rsi),%es:(%rdi)
   11186:	c7 85 64 f3 ff ff 4f 	movl   $0x8c4554f,-0xc9c(%rbp)
   1118d:	55 c4 08 
   11190:	c7 85 0c f3 ff ff 00 	movl   $0x0,-0xcf4(%rbp)
   11197:	00 00 00 
   1119a:	eb 42                	jmp    111de <func_50+0x1019>
   1119c:	c7 85 10 f3 ff ff 00 	movl   $0x0,-0xcf0(%rbp)
   111a3:	00 00 00 
   111a6:	eb 26                	jmp    111ce <func_50+0x1009>
   111a8:	8b 85 10 f3 ff ff    	mov    -0xcf0(%rbp),%eax
   111ae:	48 63 d0             	movslq %eax,%rdx
   111b1:	8b 85 0c f3 ff ff    	mov    -0xcf4(%rbp),%eax
   111b7:	48 98                	cltq   
   111b9:	48 01 d0             	add    %rdx,%rax
   111bc:	c7 84 85 48 f4 ff ff 	movl   $0x1522d0c0,-0xbb8(%rbp,%rax,4)
   111c3:	c0 d0 22 15 
   111c7:	83 85 10 f3 ff ff 01 	addl   $0x1,-0xcf0(%rbp)
   111ce:	83 bd 10 f3 ff ff 00 	cmpl   $0x0,-0xcf0(%rbp)
   111d5:	7e d1                	jle    111a8 <func_50+0xfe3>
   111d7:	83 85 0c f3 ff ff 01 	addl   $0x1,-0xcf4(%rbp)
   111de:	83 bd 0c f3 ff ff 00 	cmpl   $0x0,-0xcf4(%rbp)
   111e5:	7e b5                	jle    1119c <func_50+0xfd7>
   111e7:	c7 85 c8 f2 ff ff 00 	movl   $0x0,-0xd38(%rbp)
   111ee:	00 00 00 
   111f1:	eb 19                	jmp    1120c <func_50+0x1047>
   111f3:	48 8b 95 78 f3 ff ff 	mov    -0xc88(%rbp),%rdx
   111fa:	48 8b 85 78 f3 ff ff 	mov    -0xc88(%rbp),%rax
   11201:	8b 12                	mov    (%rdx),%edx
   11203:	89 10                	mov    %edx,(%rax)
   11205:	83 85 c8 f2 ff ff 01 	addl   $0x1,-0xd38(%rbp)
   1120c:	83 bd c8 f2 ff ff 03 	cmpl   $0x3,-0xd38(%rbp)
   11213:	7e de                	jle    111f3 <func_50+0x102e>
   11215:	8b 85 60 f3 ff ff    	mov    -0xca0(%rbp),%eax
   1121b:	48 63 d8             	movslq %eax,%rbx
   1121e:	8b 85 8c f2 ff ff    	mov    -0xd74(%rbp),%eax
   11224:	44 0f b7 e0          	movzwl %ax,%r12d
   11228:	8b 05 fe 6d 00 00    	mov    0x6dfe(%rip),%eax        # 1802c <g_56>
   1122e:	85 c0                	test   %eax,%eax
   11230:	0f 84 af 00 00 00    	je     112e5 <func_50+0x1120>
   11236:	48 8b 05 83 9e 00 00 	mov    0x9e83(%rip),%rax        # 1b0c0 <g_168>
   1123d:	44 0f b7 28          	movzwl (%rax),%r13d
   11241:	48 8b 05 78 9e 00 00 	mov    0x9e78(%rip),%rax        # 1b0c0 <g_168>
   11248:	0f b7 00             	movzwl (%rax),%eax
   1124b:	0f bf d0             	movswl %ax,%edx
   1124e:	0f b7 05 73 6f 00 00 	movzwl 0x6f73(%rip),%eax        # 181c8 <g_79>
   11255:	0f bf c8             	movswl %ax,%ecx
   11258:	48 8b 85 78 f3 ff ff 	mov    -0xc88(%rbp),%rax
   1125f:	8b 30                	mov    (%rax),%esi
   11261:	48 8b 85 a8 f3 ff ff 	mov    -0xc58(%rbp),%rax
   11268:	89 c7                	mov    %eax,%edi
   1126a:	48 8b 85 78 f3 ff ff 	mov    -0xc88(%rbp),%rax
   11271:	09 fe                	or     %edi,%esi
   11273:	89 30                	mov    %esi,(%rax)
   11275:	8b 00                	mov    (%rax),%eax
   11277:	48 63 f0             	movslq %eax,%rsi
   1127a:	48 8b 05 f7 6f 00 00 	mov    0x6ff7(%rip),%rax        # 18278 <g_342+0x8>
   11281:	48 39 c6             	cmp    %rax,%rsi
   11284:	0f 95 c0             	setne  %al
   11287:	0f b6 c0             	movzbl %al,%eax
   1128a:	21 c1                	and    %eax,%ecx
   1128c:	8b 85 8c f2 ff ff    	mov    -0xd74(%rbp),%eax
   11292:	39 c1                	cmp    %eax,%ecx
   11294:	0f 9c c0             	setl   %al
   11297:	0f b6 c0             	movzbl %al,%eax
   1129a:	89 d6                	mov    %edx,%esi
   1129c:	89 c7                	mov    %eax,%edi
   1129e:	e8 87 52 ff ff       	callq  652a <safe_rshift_func_int16_t_s_s>
   112a3:	66 41 39 c5          	cmp    %ax,%r13w
   112a7:	0f 94 c0             	sete   %al
   112aa:	0f b6 c0             	movzbl %al,%eax
   112ad:	8b 95 c8 f2 ff ff    	mov    -0xd38(%rbp),%edx
   112b3:	89 d6                	mov    %edx,%esi
   112b5:	89 c7                	mov    %eax,%edi
   112b7:	e8 43 54 ff ff       	callq  66ff <safe_div_func_int32_t_s_s>
   112bc:	8b 95 8c f2 ff ff    	mov    -0xd74(%rbp),%edx
   112c2:	39 d0                	cmp    %edx,%eax
   112c4:	0f 94 c0             	sete   %al
   112c7:	0f b6 c0             	movzbl %al,%eax
   112ca:	0f b7 15 a5 6f 00 00 	movzwl 0x6fa5(%rip),%edx        # 18276 <g_342+0x6>
   112d1:	21 d0                	and    %edx,%eax
   112d3:	0f b7 c0             	movzwl %ax,%eax
   112d6:	be cd 04 00 00       	mov    $0x4cd,%esi
   112db:	89 c7                	mov    %eax,%edi
   112dd:	e8 5b 5a ff ff       	callq  6d3d <safe_mul_func_uint16_t_u_u>
   112e2:	66 85 c0             	test   %ax,%ax
   112e5:	be 46 00 00 00       	mov    $0x46,%esi
   112ea:	bf b1 ff ff ff       	mov    $0xffffffb1,%edi
   112ef:	e8 fe 4e ff ff       	callq  61f2 <safe_sub_func_int8_t_s_s>
   112f4:	8b 85 f8 f2 ff ff    	mov    -0xd08(%rbp),%eax
   112fa:	89 c6                	mov    %eax,%esi
   112fc:	bf 01 00 00 00       	mov    $0x1,%edi
   11301:	e8 ca 5b ff ff       	callq  6ed0 <safe_sub_func_uint32_t_u_u>
   11306:	85 c0                	test   %eax,%eax
   11308:	75 0a                	jne    11314 <func_50+0x114f>
   1130a:	8b 85 a4 f7 ff ff    	mov    -0x85c(%rbp),%eax
   11310:	85 c0                	test   %eax,%eax
   11312:	74 07                	je     1131b <func_50+0x1156>
   11314:	ba 01 00 00 00       	mov    $0x1,%edx
   11319:	eb 05                	jmp    11320 <func_50+0x115b>
   1131b:	ba 00 00 00 00       	mov    $0x0,%edx
   11320:	48 8b 05 99 9d 00 00 	mov    0x9d99(%rip),%rax        # 1b0c0 <g_168>
   11327:	66 89 10             	mov    %dx,(%rax)
   1132a:	0f b7 05 bb a4 00 00 	movzwl 0xa4bb(%rip),%eax        # 1b7ec <g_75+0x4>
   11331:	48 0f bf c0          	movswq %ax,%rax
   11335:	48 be 50 40 d5 14 ad 	movabs $0xa9890dad14d54050,%rsi
   1133c:	0d 89 a9 
   1133f:	48 89 c7             	mov    %rax,%rdi
   11342:	e8 6d 56 ff ff       	callq  69b4 <safe_mod_func_int64_t_s_s>
   11347:	89 c2                	mov    %eax,%edx
   11349:	8b 85 9c f2 ff ff    	mov    -0xd64(%rbp),%eax
   1134f:	21 c2                	and    %eax,%edx
   11351:	48 8b 85 d0 f3 ff ff 	mov    -0xc30(%rbp),%rax
   11358:	88 10                	mov    %dl,(%rax)
   1135a:	48 8b 85 d0 f3 ff ff 	mov    -0xc30(%rbp),%rax
   11361:	0f b6 00             	movzbl (%rax),%eax
   11364:	83 c8 01             	or     $0x1,%eax
   11367:	0f be c0             	movsbl %al,%eax
   1136a:	39 85 60 f3 ff ff    	cmp    %eax,-0xca0(%rbp)
   11370:	0f 94 c0             	sete   %al
   11373:	0f b6 c0             	movzbl %al,%eax
   11376:	be 04 00 00 00       	mov    $0x4,%esi
   1137b:	89 c7                	mov    %eax,%edi
   1137d:	e8 f8 5a ff ff       	callq  6e7a <safe_rshift_func_uint16_t_u_u>
   11382:	0f b6 05 49 6e 00 00 	movzbl 0x6e49(%rip),%eax        # 181d2 <g_141>
   11389:	66 98                	cbtw   
   1138b:	0f b7 c0             	movzwl %ax,%eax
   1138e:	44 89 e6             	mov    %r12d,%esi
   11391:	89 c7                	mov    %eax,%edi
   11393:	e8 a5 59 ff ff       	callq  6d3d <safe_mul_func_uint16_t_u_u>
   11398:	0f b7 c0             	movzwl %ax,%eax
   1139b:	48 89 de             	mov    %rbx,%rsi
   1139e:	48 89 c7             	mov    %rax,%rdi
   113a1:	e8 02 55 ff ff       	callq  68a8 <safe_sub_func_int64_t_s_s>
   113a6:	89 85 c0 f2 ff ff    	mov    %eax,-0xd40(%rbp)
   113ac:	48 c7 85 10 f4 ff ff 	movq   $0x0,-0xbf0(%rbp)
   113b3:	00 00 00 00 
   113b7:	48 8d 85 9c f2 ff ff 	lea    -0xd64(%rbp),%rax
   113be:	48 89 85 18 f4 ff ff 	mov    %rax,-0xbe8(%rbp)
   113c5:	48 8d 85 9c f2 ff ff 	lea    -0xd64(%rbp),%rax
   113cc:	48 89 85 20 f4 ff ff 	mov    %rax,-0xbe0(%rbp)
   113d3:	48 8d 05 f2 6d 00 00 	lea    0x6df2(%rip),%rax        # 181cc <g_117>
   113da:	48 89 85 20 f5 ff ff 	mov    %rax,-0xae0(%rbp)
   113e1:	48 8d 85 ac f2 ff ff 	lea    -0xd54(%rbp),%rax
   113e8:	48 89 85 28 f5 ff ff 	mov    %rax,-0xad8(%rbp)
   113ef:	48 8d 05 d6 6d 00 00 	lea    0x6dd6(%rip),%rax        # 181cc <g_117>
   113f6:	48 89 85 30 f5 ff ff 	mov    %rax,-0xad0(%rbp)
   113fd:	48 8d 05 c8 6d 00 00 	lea    0x6dc8(%rip),%rax        # 181cc <g_117>
   11404:	48 89 85 38 f5 ff ff 	mov    %rax,-0xac8(%rbp)
   1140b:	48 8d 85 ac f2 ff ff 	lea    -0xd54(%rbp),%rax
   11412:	48 89 85 40 f5 ff ff 	mov    %rax,-0xac0(%rbp)
   11419:	48 8d 05 ac 6d 00 00 	lea    0x6dac(%rip),%rax        # 181cc <g_117>
   11420:	48 89 85 48 f5 ff ff 	mov    %rax,-0xab8(%rbp)
   11427:	66 c7 85 9a f2 ff ff 	movw   $0x8,-0xd66(%rbp)
   1142e:	08 00 
   11430:	48 8b 85 78 f3 ff ff 	mov    -0xc88(%rbp),%rax
   11437:	8b 08                	mov    (%rax),%ecx
   11439:	8b 85 8c f2 ff ff    	mov    -0xd74(%rbp),%eax
   1143f:	85 c0                	test   %eax,%eax
   11441:	0f 9f c0             	setg   %al
   11444:	0f b6 d0             	movzbl %al,%edx
   11447:	48 8b 85 78 f3 ff ff 	mov    -0xc88(%rbp),%rax
   1144e:	31 ca                	xor    %ecx,%edx
   11450:	89 10                	mov    %edx,(%rax)
   11452:	66 83 85 9a f2 ff ff 	addw   $0x1,-0xd66(%rbp)
   11459:	01 
   1145a:	48 8b 05 6f 9c 00 00 	mov    0x9c6f(%rip),%rax        # 1b0d0 <g_212>
   11461:	48 8b 00             	mov    (%rax),%rax
   11464:	48 c7 00 00 00 00 00 	movq   $0x0,(%rax)
   1146b:	c7 85 f8 f2 ff ff 00 	movl   $0x0,-0xd08(%rbp)
   11472:	00 00 00 
   11475:	83 bd f8 f2 ff ff 01 	cmpl   $0x1,-0xd08(%rbp)
   1147c:	77 0d                	ja     1148b <func_50+0x12c6>
   1147e:	0f b7 05 8f 6d 00 00 	movzwl 0x6d8f(%rip),%eax        # 18214 <g_206+0x34>
   11485:	98                   	cwtl   
   11486:	e9 25 07 00 00       	jmpq   11bb0 <func_50+0x19eb>
   1148b:	c7 85 fc f2 ff ff 00 	movl   $0x0,-0xd04(%rbp)
   11492:	00 00 00 
   11495:	e9 e8 00 00 00       	jmpq   11582 <func_50+0x13bd>
   1149a:	48 8d 85 b4 f2 ff ff 	lea    -0xd4c(%rbp),%rax
   114a1:	48 89 85 28 f4 ff ff 	mov    %rax,-0xbd8(%rbp)
   114a8:	48 8d 85 b8 f2 ff ff 	lea    -0xd48(%rbp),%rax
   114af:	48 89 85 30 f4 ff ff 	mov    %rax,-0xbd0(%rbp)
   114b6:	48 8d 85 b0 f2 ff ff 	lea    -0xd50(%rbp),%rax
   114bd:	48 89 85 20 f5 ff ff 	mov    %rax,-0xae0(%rbp)
   114c4:	48 c7 85 28 f5 ff ff 	movq   $0x0,-0xad8(%rbp)
   114cb:	00 00 00 00 
   114cf:	48 8d 85 b0 f2 ff ff 	lea    -0xd50(%rbp),%rax
   114d6:	48 89 85 30 f5 ff ff 	mov    %rax,-0xad0(%rbp)
   114dd:	48 c7 85 38 f5 ff ff 	movq   $0x0,-0xac8(%rbp)
   114e4:	00 00 00 00 
   114e8:	48 8d 85 b0 f2 ff ff 	lea    -0xd50(%rbp),%rax
   114ef:	48 89 85 40 f5 ff ff 	mov    %rax,-0xac0(%rbp)
   114f6:	48 c7 85 48 f5 ff ff 	movq   $0x0,-0xab8(%rbp)
   114fd:	00 00 00 00 
   11501:	48 8d 85 b0 f2 ff ff 	lea    -0xd50(%rbp),%rax
   11508:	48 89 85 50 f5 ff ff 	mov    %rax,-0xab0(%rbp)
   1150f:	48 c7 85 58 f5 ff ff 	movq   $0x0,-0xaa8(%rbp)
   11516:	00 00 00 00 
   1151a:	48 8d 85 b0 f2 ff ff 	lea    -0xd50(%rbp),%rax
   11521:	48 89 85 60 f5 ff ff 	mov    %rax,-0xaa0(%rbp)
   11528:	c7 85 14 f3 ff ff 00 	movl   $0x0,-0xcec(%rbp)
   1152f:	00 00 00 
   11532:	eb 14                	jmp    11548 <func_50+0x1383>
   11534:	8b 85 14 f3 ff ff    	mov    -0xcec(%rbp),%eax
   1153a:	48 98                	cltq   
   1153c:	c6 44 05 be b1       	movb   $0xb1,-0x42(%rbp,%rax,1)
   11541:	83 85 14 f3 ff ff 01 	addl   $0x1,-0xcec(%rbp)
   11548:	83 bd 14 f3 ff ff 01 	cmpl   $0x1,-0xcec(%rbp)
   1154f:	7e e3                	jle    11534 <func_50+0x136f>
   11551:	8b 85 8c f2 ff ff    	mov    -0xd74(%rbp),%eax
   11557:	85 c0                	test   %eax,%eax
   11559:	75 36                	jne    11591 <func_50+0x13cc>
   1155b:	0f b7 85 98 f2 ff ff 	movzwl -0xd68(%rbp),%eax
   11562:	83 c0 01             	add    $0x1,%eax
   11565:	66 89 85 98 f2 ff ff 	mov    %ax,-0xd68(%rbp)
   1156c:	8b 85 54 f4 ff ff    	mov    -0xbac(%rbp),%eax
   11572:	83 c0 01             	add    $0x1,%eax
   11575:	89 85 54 f4 ff ff    	mov    %eax,-0xbac(%rbp)
   1157b:	83 85 fc f2 ff ff 01 	addl   $0x1,-0xd04(%rbp)
   11582:	83 bd fc f2 ff ff 01 	cmpl   $0x1,-0xd04(%rbp)
   11589:	0f 8e 0b ff ff ff    	jle    1149a <func_50+0x12d5>
   1158f:	eb 01                	jmp    11592 <func_50+0x13cd>
   11591:	90                   	nop
   11592:	c7 85 b4 f2 ff ff 00 	movl   $0x0,-0xd4c(%rbp)
   11599:	00 00 00 
   1159c:	eb 2e                	jmp    115cc <func_50+0x1407>
   1159e:	48 8d 85 70 f3 ff ff 	lea    -0xc90(%rbp),%rax
   115a5:	48 89 85 38 f4 ff ff 	mov    %rax,-0xbc8(%rbp)
   115ac:	48 8b 05 dd 9c 00 00 	mov    0x9cdd(%rip),%rax        # 1b290 <g_467>
   115b3:	48 8b 95 38 f4 ff ff 	mov    -0xbc8(%rbp),%rdx
   115ba:	48 89 10             	mov    %rdx,(%rax)
   115bd:	8b 85 b4 f2 ff ff    	mov    -0xd4c(%rbp),%eax
   115c3:	83 c0 01             	add    $0x1,%eax
   115c6:	89 85 b4 f2 ff ff    	mov    %eax,-0xd4c(%rbp)
   115cc:	8b 85 b4 f2 ff ff    	mov    -0xd4c(%rbp),%eax
   115d2:	83 f8 01             	cmp    $0x1,%eax
   115d5:	7e c7                	jle    1159e <func_50+0x13d9>
   115d7:	83 ad bc f2 ff ff 01 	subl   $0x1,-0xd44(%rbp)
   115de:	83 bd bc f2 ff ff 00 	cmpl   $0x0,-0xd44(%rbp)
   115e5:	0f 89 75 fb ff ff    	jns    11160 <func_50+0xf9b>
   115eb:	8b 85 8c f2 ff ff    	mov    -0xd74(%rbp),%eax
   115f1:	41 89 c5             	mov    %eax,%r13d
   115f4:	48 8b 85 68 f3 ff ff 	mov    -0xc98(%rbp),%rax
   115fb:	44 8b 20             	mov    (%rax),%r12d
   115fe:	8b 85 8c f2 ff ff    	mov    -0xd74(%rbp),%eax
   11604:	0f b6 d8             	movzbl %al,%ebx
   11607:	0f b7 05 a6 6c 00 00 	movzwl 0x6ca6(%rip),%eax        # 182b4 <g_473+0x4>
   1160e:	8b 85 8c f2 ff ff    	mov    -0xd74(%rbp),%eax
   11614:	0f b6 d0             	movzbl %al,%edx
   11617:	48 8b 05 5a 6c 00 00 	mov    0x6c5a(%rip),%rax        # 18278 <g_342+0x8>
   1161e:	48 83 e8 01          	sub    $0x1,%rax
   11622:	48 89 05 4f 6c 00 00 	mov    %rax,0x6c4f(%rip)        # 18278 <g_342+0x8>
   11629:	48 8b 85 d8 f3 ff ff 	mov    -0xc28(%rbp),%rax
   11630:	c6 00 00             	movb   $0x0,(%rax)
   11633:	0f b7 05 e6 6b 00 00 	movzwl 0x6be6(%rip),%eax        # 18220 <g_206+0x40>
   1163a:	66 85 c0             	test   %ax,%ax
   1163d:	0f 95 c0             	setne  %al
   11640:	0f b6 c8             	movzbl %al,%ecx
   11643:	8b 85 8c f2 ff ff    	mov    -0xd74(%rbp),%eax
   11649:	39 c1                	cmp    %eax,%ecx
   1164b:	48 8b 85 78 f3 ff ff 	mov    -0xc88(%rbp),%rax
   11652:	8b 00                	mov    (%rax),%eax
   11654:	89 c1                	mov    %eax,%ecx
   11656:	48 83 bd b0 f3 ff ff 	cmpq   $0x0,-0xc50(%rbp)
   1165d:	00 
   1165e:	0f 94 c0             	sete   %al
   11661:	31 c8                	xor    %ecx,%eax
   11663:	0f b6 c0             	movzbl %al,%eax
   11666:	89 d6                	mov    %edx,%esi
   11668:	89 c7                	mov    %eax,%edi
   1166a:	e8 24 55 ff ff       	callq  6b93 <safe_mul_func_uint8_t_u_u>
   1166f:	48 8b 85 78 f3 ff ff 	mov    -0xc88(%rbp),%rax
   11676:	8b 10                	mov    (%rax),%edx
   11678:	48 8b 85 c0 f3 ff ff 	mov    -0xc40(%rbp),%rax
   1167f:	48 8b 00             	mov    (%rax),%rax
   11682:	66 89 10             	mov    %dx,(%rax)
   11685:	0f b6 45 c0          	movzbl -0x40(%rbp),%eax
   11689:	66 98                	cbtw   
   1168b:	8b 95 d0 f2 ff ff    	mov    -0xd30(%rbp),%edx
   11691:	31 d0                	xor    %edx,%eax
   11693:	98                   	cwtl   
   11694:	be 24 93 ff ff       	mov    $0xffff9324,%esi
   11699:	89 c7                	mov    %eax,%edi
   1169b:	e8 b5 4d ff ff       	callq  6455 <safe_div_func_int16_t_s_s>
   116a0:	0f b6 c0             	movzbl %al,%eax
   116a3:	89 de                	mov    %ebx,%esi
   116a5:	89 c7                	mov    %eax,%edi
   116a7:	e8 02 55 ff ff       	callq  6bae <safe_mod_func_uint8_t_u_u>
   116ac:	0f b6 c0             	movzbl %al,%eax
   116af:	41 39 c4             	cmp    %eax,%r12d
   116b2:	0f 9f c0             	setg   %al
   116b5:	0f b6 c0             	movzbl %al,%eax
   116b8:	be 01 00 00 00       	mov    $0x1,%esi
   116bd:	89 c7                	mov    %eax,%edi
   116bf:	e8 10 4b ff ff       	callq  61d4 <safe_add_func_int8_t_s_s>
   116c4:	66 98                	cbtw   
   116c6:	0f b7 c0             	movzwl %ax,%eax
   116c9:	44 89 ee             	mov    %r13d,%esi
   116cc:	89 c7                	mov    %eax,%edi
   116ce:	e8 a7 57 ff ff       	callq  6e7a <safe_rshift_func_uint16_t_u_u>
   116d3:	66 83 f8 01          	cmp    $0x1,%ax
   116d7:	0f 94 c2             	sete   %dl
   116da:	48 8b 85 68 f3 ff ff 	mov    -0xc98(%rbp),%rax
   116e1:	0f b6 d2             	movzbl %dl,%edx
   116e4:	89 10                	mov    %edx,(%rax)
   116e6:	c7 85 c0 f2 ff ff 00 	movl   $0x0,-0xd40(%rbp)
   116ed:	00 00 00 
   116f0:	e9 61 04 00 00       	jmpq   11b56 <func_50+0x1991>
   116f5:	48 8d 05 d6 6a 00 00 	lea    0x6ad6(%rip),%rax        # 181d2 <g_141>
   116fc:	48 89 85 00 f4 ff ff 	mov    %rax,-0xc00(%rbp)
   11703:	48 c7 85 08 f4 ff ff 	movq   $0x0,-0xbf8(%rbp)
   1170a:	00 00 00 00 
   1170e:	c7 85 18 f3 ff ff 00 	movl   $0x0,-0xce8(%rbp)
   11715:	00 00 00 
   11718:	eb 1b                	jmp    11735 <func_50+0x1570>
   1171a:	8b 85 18 f3 ff ff    	mov    -0xce8(%rbp),%eax
   11720:	48 98                	cltq   
   11722:	48 c7 84 c5 20 f5 ff 	movq   $0x0,-0xae0(%rbp,%rax,8)
   11729:	ff 00 00 00 00 
   1172e:	83 85 18 f3 ff ff 01 	addl   $0x1,-0xce8(%rbp)
   11735:	83 bd 18 f3 ff ff 05 	cmpl   $0x5,-0xce8(%rbp)
   1173c:	7e dc                	jle    1171a <func_50+0x1555>
   1173e:	c7 85 18 f3 ff ff 00 	movl   $0x0,-0xce8(%rbp)
   11745:	00 00 00 
   11748:	eb 1e                	jmp    11768 <func_50+0x15a3>
   1174a:	8b 85 18 f3 ff ff    	mov    -0xce8(%rbp),%eax
   11750:	48 98                	cltq   
   11752:	48 8d 95 a8 f2 ff ff 	lea    -0xd58(%rbp),%rdx
   11759:	48 89 94 c5 a0 f4 ff 	mov    %rdx,-0xb60(%rbp,%rax,8)
   11760:	ff 
   11761:	83 85 18 f3 ff ff 01 	addl   $0x1,-0xce8(%rbp)
   11768:	83 bd 18 f3 ff ff 03 	cmpl   $0x3,-0xce8(%rbp)
   1176f:	7e d9                	jle    1174a <func_50+0x1585>
   11771:	8b 05 55 6a 00 00    	mov    0x6a55(%rip),%eax        # 181cc <g_117>
   11777:	48 63 d8             	movslq %eax,%rbx
   1177a:	48 8b 85 78 f3 ff ff 	mov    -0xc88(%rbp),%rax
   11781:	8b 00                	mov    (%rax),%eax
   11783:	41 89 c4             	mov    %eax,%r12d
   11786:	48 8b 05 33 99 00 00 	mov    0x9933(%rip),%rax        # 1b0c0 <g_168>
   1178d:	0f b7 10             	movzwl (%rax),%edx
   11790:	8b 85 8c f2 ff ff    	mov    -0xd74(%rbp),%eax
   11796:	89 c1                	mov    %eax,%ecx
   11798:	48 8b 05 21 99 00 00 	mov    0x9921(%rip),%rax        # 1b0c0 <g_168>
   1179f:	31 ca                	xor    %ecx,%edx
   117a1:	66 89 10             	mov    %dx,(%rax)
   117a4:	48 8b 85 c0 f3 ff ff 	mov    -0xc40(%rbp),%rax
   117ab:	48 8b 00             	mov    (%rax),%rax
   117ae:	66 c7 00 04 00       	movw   $0x4,(%rax)
   117b3:	48 8d 05 18 6a 00 00 	lea    0x6a18(%rip),%rax        # 181d2 <g_141>
   117ba:	48 89 85 38 f5 ff ff 	mov    %rax,-0xac8(%rbp)
   117c1:	48 8b 85 38 f5 ff ff 	mov    -0xac8(%rbp),%rax
   117c8:	48 39 85 00 f4 ff ff 	cmp    %rax,-0xc00(%rbp)
   117cf:	0f 95 c0             	setne  %al
   117d2:	0f b6 c0             	movzbl %al,%eax
   117d5:	be fe ff 00 00       	mov    $0xfffe,%esi
   117da:	89 c7                	mov    %eax,%edi
   117dc:	e8 ad 55 ff ff       	callq  6d8e <safe_div_func_uint16_t_u_u>
   117e1:	48 8b 15 b0 6a 00 00 	mov    0x6ab0(%rip),%rdx        # 18298 <g_371+0x8>
   117e8:	0f b7 c0             	movzwl %ax,%eax
   117eb:	48 09 d0             	or     %rdx,%rax
   117ee:	48 89 05 a3 6a 00 00 	mov    %rax,0x6aa3(%rip)        # 18298 <g_371+0x8>
   117f5:	48 8b 15 9c 6a 00 00 	mov    0x6a9c(%rip),%rdx        # 18298 <g_371+0x8>
   117fc:	48 8b 05 f5 6a 00 00 	mov    0x6af5(%rip),%rax        # 182f8 <g_502+0x8>
   11803:	48 39 c2             	cmp    %rax,%rdx
   11806:	0f 96 c0             	setbe  %al
   11809:	0f b6 c0             	movzbl %al,%eax
   1180c:	44 89 e6             	mov    %r12d,%esi
   1180f:	89 c7                	mov    %eax,%edi
   11811:	e8 e7 56 ff ff       	callq  6efd <safe_mod_func_uint32_t_u_u>
   11816:	89 c2                	mov    %eax,%edx
   11818:	48 8b b5 b8 f6 ff ff 	mov    -0x948(%rbp),%rsi
   1181f:	8b 05 03 68 00 00    	mov    0x6803(%rip),%eax        # 18028 <g_55>
   11825:	0f b6 c0             	movzbl %al,%eax
   11828:	49 89 d8             	mov    %rbx,%r8
   1182b:	89 d1                	mov    %edx,%ecx
   1182d:	48 8d 15 98 69 00 00 	lea    0x6998(%rip),%rdx        # 181cc <g_117>
   11834:	89 c7                	mov    %eax,%edi
   11836:	e8 e2 05 00 00       	callq  11e1d <func_80>
   1183b:	48 8b 95 b0 f3 ff ff 	mov    -0xc50(%rbp),%rdx
   11842:	48 89 02             	mov    %rax,(%rdx)
   11845:	83 85 ec f2 ff ff 01 	addl   $0x1,-0xd14(%rbp)
   1184c:	8b 15 9e 6a 00 00    	mov    0x6a9e(%rip),%edx        # 182f0 <g_502>
   11852:	48 8b 85 78 f3 ff ff 	mov    -0xc88(%rbp),%rax
   11859:	8b 00                	mov    (%rax),%eax
   1185b:	39 c2                	cmp    %eax,%edx
   1185d:	77 07                	ja     11866 <func_50+0x16a1>
   1185f:	b8 01 00 00 00       	mov    $0x1,%eax
   11864:	eb 05                	jmp    1186b <func_50+0x16a6>
   11866:	b8 00 00 00 00       	mov    $0x0,%eax
   1186b:	84 c0                	test   %al,%al
   1186d:	0f 84 e0 00 00 00    	je     11953 <func_50+0x178e>
   11873:	48 b8 fd 01 b2 74 01 	movabs $0xfdb2740174b201fd,%rax
   1187a:	74 b2 fd 
   1187d:	48 89 85 e0 f7 ff ff 	mov    %rax,-0x820(%rbp)
   11884:	48 b8 74 01 77 74 f7 	movabs $0x7774f7f774770174,%rax
   1188b:	f7 74 77 
   1188e:	48 89 85 e8 f7 ff ff 	mov    %rax,-0x818(%rbp)
   11895:	48 b8 fd fd 01 b2 74 	movabs $0xb2740174b201fdfd,%rax
   1189c:	01 74 b2 
   1189f:	48 89 85 f0 f7 ff ff 	mov    %rax,-0x810(%rbp)
   118a6:	48 b8 77 b2 77 f7 b2 	movabs $0xb20101b2f777b277,%rax
   118ad:	01 01 b2 
   118b0:	48 89 85 f8 f7 ff ff 	mov    %rax,-0x808(%rbp)
   118b7:	48 b8 b2 01 01 b2 f7 	movabs $0x77b277f7b20101b2,%rax
   118be:	77 b2 77 
   118c1:	48 89 85 00 f8 ff ff 	mov    %rax,-0x800(%rbp)
   118c8:	48 b8 b2 74 01 74 b2 	movabs $0xfdfd01b2740174b2,%rax
   118cf:	01 fd fd 
   118d2:	48 89 85 08 f8 ff ff 	mov    %rax,-0x7f8(%rbp)
   118d9:	48 b8 77 74 f7 f7 74 	movabs $0x74017774f7f77477,%rax
   118e0:	77 01 74 
   118e3:	48 89 85 10 f8 ff ff 	mov    %rax,-0x7f0(%rbp)
   118ea:	48 b8 fd 01 f7 fd f7 	movabs $0x77fd01f7fdf701fd,%rax
   118f1:	01 fd 77 
   118f4:	48 89 85 18 f8 ff ff 	mov    %rax,-0x7e8(%rbp)
   118fb:	48 b8 74 b2 01 fd fd 	movabs $0x74b201fdfd01b274,%rax
   11902:	01 b2 74 
   11905:	48 89 85 20 f8 ff ff 	mov    %rax,-0x7e0(%rbp)
   1190c:	48 c7 05 e1 69 00 00 	movq   $0x0,0x69e1(%rip)        # 182f8 <g_502+0x8>
   11913:	00 00 00 00 
   11917:	90                   	nop
   11918:	48 8b 05 d9 69 00 00 	mov    0x69d9(%rip),%rax        # 182f8 <g_502+0x8>
   1191f:	48 83 f8 01          	cmp    $0x1,%rax
   11923:	77 0f                	ja     11934 <func_50+0x176f>
   11925:	0f b6 85 21 f8 ff ff 	movzbl -0x7df(%rbp),%eax
   1192c:	0f b6 c0             	movzbl %al,%eax
   1192f:	e9 7c 02 00 00       	jmpq   11bb0 <func_50+0x19eb>
   11934:	48 8b 85 68 f3 ff ff 	mov    -0xc98(%rbp),%rax
   1193b:	8b 08                	mov    (%rax),%ecx
   1193d:	8b 95 8c f2 ff ff    	mov    -0xd74(%rbp),%edx
   11943:	48 8b 85 68 f3 ff ff 	mov    -0xc98(%rbp),%rax
   1194a:	09 ca                	or     %ecx,%edx
   1194c:	89 10                	mov    %edx,(%rax)
   1194e:	e9 e5 01 00 00       	jmpq   11b38 <func_50+0x1973>
   11953:	48 8d 85 e0 f7 ff ff 	lea    -0x820(%rbp),%rax
   1195a:	48 8d 15 df 8e 00 00 	lea    0x8edf(%rip),%rdx        # 1a840 <g_1347+0x16a0>
   11961:	b9 2a 00 00 00       	mov    $0x2a,%ecx
   11966:	48 89 c7             	mov    %rax,%rdi
   11969:	48 89 d6             	mov    %rdx,%rsi
   1196c:	f3 48 a5             	rep movsq %ds:(%rsi),%es:(%rdi)
   1196f:	c7 85 5c f3 ff ff 3e 	movl   $0x2f361c3e,-0xca4(%rbp)
   11976:	1c 36 2f 
   11979:	48 8b 05 58 69 00 00 	mov    0x6958(%rip),%rax        # 182d8 <g_499+0x8>
   11980:	48 85 c0             	test   %rax,%rax
   11983:	0f 84 2b 01 00 00    	je     11ab4 <func_50+0x18ef>
   11989:	48 8b 05 50 97 00 00 	mov    0x9750(%rip),%rax        # 1b0e0 <g_281>
   11990:	0f b7 05 31 69 00 00 	movzwl 0x6931(%rip),%eax        # 182c8 <g_496>
   11997:	48 0f bf d8          	movswq %ax,%rbx
   1199b:	48 8b 05 1e 97 00 00 	mov    0x971e(%rip),%rax        # 1b0c0 <g_168>
   119a2:	0f b7 00             	movzwl (%rax),%eax
   119a5:	44 0f bf e0          	movswl %ax,%r12d
   119a9:	8b 85 8c f2 ff ff    	mov    -0xd74(%rbp),%eax
   119af:	4c 63 e8             	movslq %eax,%r13
   119b2:	8b 85 5c f3 ff ff    	mov    -0xca4(%rbp),%eax
   119b8:	48 98                	cltq   
   119ba:	ba 1f e9 46 e3       	mov    $0xe346e91f,%edx
   119bf:	48 09 c2             	or     %rax,%rdx
   119c2:	48 8b 05 9f 68 00 00 	mov    0x689f(%rip),%rax        # 18268 <g_328>
   119c9:	48 39 c2             	cmp    %rax,%rdx
   119cc:	0f 9c c0             	setl   %al
   119cf:	0f b6 d0             	movzbl %al,%edx
   119d2:	48 8b 85 68 f3 ff ff 	mov    -0xc98(%rbp),%rax
   119d9:	8b 00                	mov    (%rax),%eax
   119db:	09 c2                	or     %eax,%edx
   119dd:	0f b7 05 b0 68 00 00 	movzwl 0x68b0(%rip),%eax        # 18294 <g_371+0x4>
   119e4:	98                   	cwtl   
   119e5:	39 c2                	cmp    %eax,%edx
   119e7:	0f 95 c0             	setne  %al
   119ea:	0f b6 c0             	movzbl %al,%eax
   119ed:	89 85 5c f3 ff ff    	mov    %eax,-0xca4(%rbp)
   119f3:	be 00 00 00 00       	mov    $0x0,%esi
   119f8:	bf 01 00 00 00       	mov    $0x1,%edi
   119fd:	e8 4a 52 ff ff       	callq  6c4c <safe_lshift_func_uint8_t_u_u>
   11a02:	48 8b 05 5f 68 00 00 	mov    0x685f(%rip),%rax        # 18268 <g_328>
   11a09:	4c 89 ee             	mov    %r13,%rsi
   11a0c:	48 89 c7             	mov    %rax,%rdi
   11a0f:	e8 37 56 ff ff       	callq  704b <safe_sub_func_uint64_t_u_u>
   11a14:	98                   	cwtl   
   11a15:	44 89 e6             	mov    %r12d,%esi
   11a18:	89 c7                	mov    %eax,%edi
   11a1a:	e8 0b 4b ff ff       	callq  652a <safe_rshift_func_int16_t_s_s>
   11a1f:	bf 00 00 00 00       	mov    $0x0,%edi
   11a24:	e8 c0 52 ff ff       	callq  6ce9 <safe_unary_minus_func_uint16_t_u>
   11a29:	0f b7 c0             	movzwl %ax,%eax
   11a2c:	48 89 de             	mov    %rbx,%rsi
   11a2f:	48 89 c7             	mov    %rax,%rdi
   11a32:	e8 78 56 ff ff       	callq  70af <safe_div_func_uint64_t_u_u>
   11a37:	0f b7 c0             	movzwl %ax,%eax
   11a3a:	89 c7                	mov    %eax,%edi
   11a3c:	e8 a8 52 ff ff       	callq  6ce9 <safe_unary_minus_func_uint16_t_u>
   11a41:	89 c2                	mov    %eax,%edx
   11a43:	8b 85 8c f2 ff ff    	mov    -0xd74(%rbp),%eax
   11a49:	21 d0                	and    %edx,%eax
   11a4b:	0f b6 c0             	movzbl %al,%eax
   11a4e:	be fe 00 00 00       	mov    $0xfe,%esi
   11a53:	89 c7                	mov    %eax,%edi
   11a55:	e8 00 51 ff ff       	callq  6b5a <safe_add_func_uint8_t_u_u>
   11a5a:	48 8d 85 70 f3 ff ff 	lea    -0xc90(%rbp),%rax
   11a61:	48 89 85 80 f3 ff ff 	mov    %rax,-0xc80(%rbp)
   11a68:	48 8b 85 80 f3 ff ff 	mov    -0xc80(%rbp),%rax
   11a6f:	48 3b 85 88 f3 ff ff 	cmp    -0xc78(%rbp),%rax
   11a76:	0f 95 c0             	setne  %al
   11a79:	0f b6 c0             	movzbl %al,%eax
   11a7c:	89 c2                	mov    %eax,%edx
   11a7e:	0f b7 05 df 67 00 00 	movzwl 0x67df(%rip),%eax        # 18264 <g_327>
   11a85:	21 d0                	and    %edx,%eax
   11a87:	66 89 05 d6 67 00 00 	mov    %ax,0x67d6(%rip)        # 18264 <g_327>
   11a8e:	0f b7 05 cf 67 00 00 	movzwl 0x67cf(%rip),%eax        # 18264 <g_327>
   11a95:	48 0f bf c0          	movswq %ax,%rax
   11a99:	25 fd c8 00 00       	and    $0xc8fd,%eax
   11a9e:	48 85 c0             	test   %rax,%rax
   11aa1:	75 0a                	jne    11aad <func_50+0x18e8>
   11aa3:	8b 85 8c f2 ff ff    	mov    -0xd74(%rbp),%eax
   11aa9:	85 c0                	test   %eax,%eax
   11aab:	74 07                	je     11ab4 <func_50+0x18ef>
   11aad:	ba 01 00 00 00       	mov    $0x1,%edx
   11ab2:	eb 05                	jmp    11ab9 <func_50+0x18f4>
   11ab4:	ba 00 00 00 00       	mov    $0x0,%edx
   11ab9:	8b 85 4c f4 ff ff    	mov    -0xbb4(%rbp),%eax
   11abf:	31 d0                	xor    %edx,%eax
   11ac1:	89 85 4c f4 ff ff    	mov    %eax,-0xbb4(%rbp)
   11ac7:	8b 85 8c f2 ff ff    	mov    -0xd74(%rbp),%eax
   11acd:	85 c0                	test   %eax,%eax
   11acf:	75 0a                	jne    11adb <func_50+0x1916>
   11ad1:	48 83 bd 08 f4 ff ff 	cmpq   $0x0,-0xbf8(%rbp)
   11ad8:	00 
   11ad9:	74 07                	je     11ae2 <func_50+0x191d>
   11adb:	ba 01 00 00 00       	mov    $0x1,%edx
   11ae0:	eb 05                	jmp    11ae7 <func_50+0x1922>
   11ae2:	ba 00 00 00 00       	mov    $0x0,%edx
   11ae7:	48 8b 85 78 f3 ff ff 	mov    -0xc88(%rbp),%rax
   11aee:	89 10                	mov    %edx,(%rax)
   11af0:	48 c7 85 a8 f3 ff ff 	movq   $0x1,-0xc58(%rbp)
   11af7:	01 00 00 00 
   11afb:	eb 31                	jmp    11b2e <func_50+0x1969>
   11afd:	48 8b 95 78 f3 ff ff 	mov    -0xc88(%rbp),%rdx
   11b04:	48 8b 85 68 f3 ff ff 	mov    -0xc98(%rbp),%rax
   11b0b:	8b 12                	mov    (%rdx),%edx
   11b0d:	89 10                	mov    %edx,(%rax)
   11b0f:	48 8b 85 78 f3 ff ff 	mov    -0xc88(%rbp),%rax
   11b16:	8b 00                	mov    (%rax),%eax
   11b18:	85 c0                	test   %eax,%eax
   11b1a:	75 09                	jne    11b25 <func_50+0x1960>
   11b1c:	80 bd 92 f2 ff ff 00 	cmpb   $0x0,-0xd6e(%rbp)
   11b23:	eb 01                	jmp    11b26 <func_50+0x1961>
   11b25:	90                   	nop
   11b26:	48 83 ad a8 f3 ff ff 	subq   $0x1,-0xc58(%rbp)
   11b2d:	01 
   11b2e:	48 83 bd a8 f3 ff ff 	cmpq   $0x0,-0xc58(%rbp)
   11b35:	00 
   11b36:	79 c5                	jns    11afd <func_50+0x1938>
   11b38:	48 8b 05 99 95 00 00 	mov    0x9599(%rip),%rax        # 1b0d8 <g_211>
   11b3f:	48 8b 00             	mov    (%rax),%rax
   11b42:	48 8b 00             	mov    (%rax),%rax
   11b45:	48 8b 00             	mov    (%rax),%rax
   11b48:	48 89 85 90 f4 ff ff 	mov    %rax,-0xb70(%rbp)
   11b4f:	83 85 c0 f2 ff ff 01 	addl   $0x1,-0xd40(%rbp)
   11b56:	83 bd c0 f2 ff ff 01 	cmpl   $0x1,-0xd40(%rbp)
   11b5d:	0f 8e 92 fb ff ff    	jle    116f5 <func_50+0x1530>
   11b63:	8b 05 c3 64 00 00    	mov    0x64c3(%rip),%eax        # 1802c <g_56>
   11b69:	83 e8 01             	sub    $0x1,%eax
   11b6c:	89 05 ba 64 00 00    	mov    %eax,0x64ba(%rip)        # 1802c <g_56>
   11b72:	8b 05 b4 64 00 00    	mov    0x64b4(%rip),%eax        # 1802c <g_56>
   11b78:	85 c0                	test   %eax,%eax
   11b7a:	0f 89 fd e8 ff ff    	jns    1047d <func_50+0x2b8>
   11b80:	8b 85 8c f2 ff ff    	mov    -0xd74(%rbp),%eax
   11b86:	48 98                	cltq   
   11b88:	be 01 00 00 00       	mov    $0x1,%esi
   11b8d:	48 89 c7             	mov    %rax,%rdi
   11b90:	e8 ac 4c ff ff       	callq  6841 <safe_add_func_int64_t_s_s>
   11b95:	89 85 8c f2 ff ff    	mov    %eax,-0xd74(%rbp)
   11b9b:	8b 85 8c f2 ff ff    	mov    -0xd74(%rbp),%eax
   11ba1:	83 f8 18             	cmp    $0x18,%eax
   11ba4:	0f 8f 3d e7 ff ff    	jg     102e7 <func_50+0x122>
   11baa:	8b 05 b0 66 00 00    	mov    0x66b0(%rip),%eax        # 18260 <g_289>
   11bb0:	48 8b 5d c8          	mov    -0x38(%rbp),%rbx
   11bb4:	64 48 33 1c 25 28 00 	xor    %fs:0x28,%rbx
   11bbb:	00 00 
   11bbd:	74 05                	je     11bc4 <func_50+0x19ff>
   11bbf:	e8 ac 44 ff ff       	callq  6070 <__stack_chk_fail@plt>
   11bc4:	48 81 c4 58 0d 00 00 	add    $0xd58,%rsp
   11bcb:	5b                   	pop    %rbx
   11bcc:	41 5c                	pop    %r12
   11bce:	41 5d                	pop    %r13
   11bd0:	41 5e                	pop    %r14
   11bd2:	41 5f                	pop    %r15
   11bd4:	5d                   	pop    %rbp
   11bd5:	c3                   	retq   

0000000000011bd6 <func_67>:
   11bd6:	f3 0f 1e fa          	endbr64 
   11bda:	55                   	push   %rbp
   11bdb:	48 89 e5             	mov    %rsp,%rbp
   11bde:	41 57                	push   %r15
   11be0:	41 56                	push   %r14
   11be2:	41 55                	push   %r13
   11be4:	41 54                	push   %r12
   11be6:	53                   	push   %rbx
   11be7:	48 81 ec 68 07 00 00 	sub    $0x768,%rsp
   11bee:	48 89 bd 88 f8 ff ff 	mov    %rdi,-0x778(%rbp)
   11bf5:	48 89 b5 80 f8 ff ff 	mov    %rsi,-0x780(%rbp)
   11bfc:	64 48 8b 04 25 28 00 	mov    %fs:0x28,%rax
   11c03:	00 00 
   11c05:	48 89 45 c8          	mov    %rax,-0x38(%rbp)
   11c09:	31 c0                	xor    %eax,%eax
   11c0b:	c6 85 9f f8 ff ff 00 	movb   $0x0,-0x761(%rbp)
   11c12:	c7 85 a0 f8 ff ff 01 	movl   $0x1,-0x760(%rbp)
   11c19:	00 00 00 
   11c1c:	48 8d 05 c7 9b 00 00 	lea    0x9bc7(%rip),%rax        # 1b7ea <g_75+0x2>
   11c23:	48 89 85 b0 f8 ff ff 	mov    %rax,-0x750(%rbp)
   11c2a:	48 8d 05 fb 63 00 00 	lea    0x63fb(%rip),%rax        # 1802c <g_56>
   11c31:	48 89 85 a8 f8 ff ff 	mov    %rax,-0x758(%rbp)
   11c38:	48 8d 85 a8 f8 ff ff 	lea    -0x758(%rbp),%rax
   11c3f:	48 89 85 b8 f8 ff ff 	mov    %rax,-0x748(%rbp)
   11c46:	48 8d 85 c0 f8 ff ff 	lea    -0x740(%rbp),%rax
   11c4d:	48 8d 15 4c 8d 00 00 	lea    0x8d4c(%rip),%rdx        # 1a9a0 <g_1347+0x1800>
   11c54:	b9 e0 00 00 00       	mov    $0xe0,%ecx
   11c59:	48 89 c7             	mov    %rax,%rdi
   11c5c:	48 89 d6             	mov    %rdx,%rsi
   11c5f:	f3 48 a5             	rep movsq %ds:(%rsi),%es:(%rdi)
   11c62:	c7 85 a4 f8 ff ff fb 	movl   $0xfffffffb,-0x75c(%rbp)
   11c69:	ff ff ff 
   11c6c:	8b 05 b2 63 00 00    	mov    0x63b2(%rip),%eax        # 18024 <g_27>
   11c72:	89 c0                	mov    %eax,%eax
   11c74:	48 89 85 78 f8 ff ff 	mov    %rax,-0x788(%rbp)
   11c7b:	48 8b 85 80 f8 ff ff 	mov    -0x780(%rbp),%rax
   11c82:	41 89 c7             	mov    %eax,%r15d
   11c85:	48 8b 9d a8 fd ff ff 	mov    -0x258(%rbp),%rbx
   11c8c:	c7 85 a0 f8 ff ff c4 	movl   $0xc4,-0x760(%rbp)
   11c93:	00 00 00 
   11c96:	be 03 00 00 00       	mov    $0x3,%esi
   11c9b:	bf c4 00 00 00       	mov    $0xc4,%edi
   11ca0:	e8 a7 4f ff ff       	callq  6c4c <safe_lshift_func_uint8_t_u_u>
   11ca5:	38 85 9f f8 ff ff    	cmp    %al,-0x761(%rbp)
   11cab:	72 2d                	jb     11cda <func_67+0x104>
   11cad:	48 83 bd b0 f8 ff ff 	cmpq   $0x0,-0x750(%rbp)
   11cb4:	00 
   11cb5:	0f 94 c0             	sete   %al
   11cb8:	0f b6 c0             	movzbl %al,%eax
   11cbb:	be 05 00 00 00       	mov    $0x5,%esi
   11cc0:	89 c7                	mov    %eax,%edi
   11cc2:	e8 f7 4f ff ff       	callq  6cbe <safe_rshift_func_uint8_t_u_u>
   11cc7:	0f b6 c0             	movzbl %al,%eax
   11cca:	48 39 85 80 f8 ff ff 	cmp    %rax,-0x780(%rbp)
   11cd1:	7c 07                	jl     11cda <func_67+0x104>
   11cd3:	b8 01 00 00 00       	mov    $0x1,%eax
   11cd8:	eb 05                	jmp    11cdf <func_67+0x109>
   11cda:	b8 00 00 00 00       	mov    $0x0,%eax
   11cdf:	0f b7 c0             	movzwl %ax,%eax
   11ce2:	89 c7                	mov    %eax,%edi
   11ce4:	e8 a7 0f 00 00       	callq  12c90 <func_86>
   11ce9:	89 c2                	mov    %eax,%edx
   11ceb:	0f b6 05 d8 64 00 00 	movzbl 0x64d8(%rip),%eax        # 181ca <g_95>
   11cf2:	31 d0                	xor    %edx,%eax
   11cf4:	88 05 d0 64 00 00    	mov    %al,0x64d0(%rip)        # 181ca <g_95>
   11cfa:	0f b6 05 c9 64 00 00 	movzbl 0x64c9(%rip),%eax        # 181ca <g_95>
   11d01:	44 0f b6 f0          	movzbl %al,%r14d
   11d05:	48 8b 85 88 f8 ff ff 	mov    -0x778(%rbp),%rax
   11d0c:	89 85 74 f8 ff ff    	mov    %eax,-0x78c(%rbp)
   11d12:	0f b7 05 d3 9a 00 00 	movzwl 0x9ad3(%rip),%eax        # 1b7ec <g_75+0x4>
   11d19:	44 0f b7 e0          	movzwl %ax,%r12d
   11d1d:	8b 85 a4 f8 ff ff    	mov    -0x75c(%rbp),%eax
   11d23:	44 0f be e8          	movsbl %al,%r13d
   11d27:	0f b7 05 92 64 00 00 	movzwl 0x6492(%rip),%eax        # 181c0 <g_77+0x180>
   11d2e:	48 0f bf d0          	movswq %ax,%rdx
   11d32:	48 8b 8d a8 f8 ff ff 	mov    -0x758(%rbp),%rcx
   11d39:	48 8b 85 b8 f8 ff ff 	mov    -0x748(%rbp),%rax
   11d40:	48 89 08             	mov    %rcx,(%rax)
   11d43:	48 8b 85 b8 f8 ff ff 	mov    -0x748(%rbp),%rax
   11d4a:	48 8b 08             	mov    (%rax),%rcx
   11d4d:	48 8b 85 30 fa ff ff 	mov    -0x5d0(%rbp),%rax
   11d54:	48 39 c1             	cmp    %rax,%rcx
   11d57:	0f 95 c0             	setne  %al
   11d5a:	0f b6 c0             	movzbl %al,%eax
   11d5d:	48 89 d6             	mov    %rdx,%rsi
   11d60:	48 89 c7             	mov    %rax,%rdi
   11d63:	e8 18 53 ff ff       	callq  7080 <safe_mod_func_uint64_t_u_u>
   11d68:	48 8b 95 80 f8 ff ff 	mov    -0x780(%rbp),%rdx
   11d6f:	48 39 d0             	cmp    %rdx,%rax
   11d72:	0f 97 c0             	seta   %al
   11d75:	0f b6 c0             	movzbl %al,%eax
   11d78:	44 89 ee             	mov    %r13d,%esi
   11d7b:	89 c7                	mov    %eax,%edi
   11d7d:	e8 70 44 ff ff       	callq  61f2 <safe_sub_func_int8_t_s_s>
   11d82:	66 98                	cbtw   
   11d84:	0f b7 c0             	movzwl %ax,%eax
   11d87:	44 89 e6             	mov    %r12d,%esi
   11d8a:	89 c7                	mov    %eax,%edi
   11d8c:	e8 ac 4f ff ff       	callq  6d3d <safe_mul_func_uint16_t_u_u>
   11d91:	0f b6 c0             	movzbl %al,%eax
   11d94:	89 c6                	mov    %eax,%esi
   11d96:	bf ff 00 00 00       	mov    $0xff,%edi
   11d9b:	e8 3b 4e ff ff       	callq  6bdb <safe_div_func_uint8_t_u_u>
   11da0:	0f b6 c0             	movzbl %al,%eax
   11da3:	be f9 ff ff ff       	mov    $0xfffffff9,%esi
   11da8:	89 c7                	mov    %eax,%edi
   11daa:	e8 56 48 ff ff       	callq  6605 <safe_sub_func_int32_t_s_s>
   11daf:	0f b7 c0             	movzwl %ax,%eax
   11db2:	8b b5 74 f8 ff ff    	mov    -0x78c(%rbp),%esi
   11db8:	89 c7                	mov    %eax,%edi
   11dba:	e8 ff 4f ff ff       	callq  6dbe <safe_lshift_func_uint16_t_u_s>
   11dbf:	0f b7 c0             	movzwl %ax,%eax
   11dc2:	41 39 c6             	cmp    %eax,%r14d
   11dc5:	0f 9d c0             	setge  %al
   11dc8:	0f b6 c0             	movzbl %al,%eax
   11dcb:	4c 8b 85 78 f8 ff ff 	mov    -0x788(%rbp),%r8
   11dd2:	44 89 f9             	mov    %r15d,%ecx
   11dd5:	48 89 da             	mov    %rbx,%rdx
   11dd8:	48 8d 35 0f 9a 00 00 	lea    0x9a0f(%rip),%rsi        # 1b7ee <g_75+0x6>
   11ddf:	89 c7                	mov    %eax,%edi
   11de1:	e8 37 00 00 00       	callq  11e1d <func_80>
   11de6:	48 8b 95 b8 f8 ff ff 	mov    -0x748(%rbp),%rdx
   11ded:	48 89 02             	mov    %rax,(%rdx)
   11df0:	48 8b 85 88 f8 ff ff 	mov    -0x778(%rbp),%rax
   11df7:	48 8b 5d c8          	mov    -0x38(%rbp),%rbx
   11dfb:	64 48 33 1c 25 28 00 	xor    %fs:0x28,%rbx
   11e02:	00 00 
   11e04:	74 05                	je     11e0b <func_67+0x235>
   11e06:	e8 65 42 ff ff       	callq  6070 <__stack_chk_fail@plt>
   11e0b:	48 81 c4 68 07 00 00 	add    $0x768,%rsp
   11e12:	5b                   	pop    %rbx
   11e13:	41 5c                	pop    %r12
   11e15:	41 5d                	pop    %r13
   11e17:	41 5e                	pop    %r14
   11e19:	41 5f                	pop    %r15
   11e1b:	5d                   	pop    %rbp
   11e1c:	c3                   	retq   

0000000000011e1d <func_80>:
   11e1d:	f3 0f 1e fa          	endbr64 
   11e21:	55                   	push   %rbp
   11e22:	48 89 e5             	mov    %rsp,%rbp
   11e25:	41 55                	push   %r13
   11e27:	41 54                	push   %r12
   11e29:	53                   	push   %rbx
   11e2a:	48 81 ec 18 05 00 00 	sub    $0x518,%rsp
   11e31:	89 f8                	mov    %edi,%eax
   11e33:	48 89 b5 e0 fa ff ff 	mov    %rsi,-0x520(%rbp)
   11e3a:	48 89 95 d8 fa ff ff 	mov    %rdx,-0x528(%rbp)
   11e41:	89 8d e8 fa ff ff    	mov    %ecx,-0x518(%rbp)
   11e47:	4c 89 85 d0 fa ff ff 	mov    %r8,-0x530(%rbp)
   11e4e:	88 85 ec fa ff ff    	mov    %al,-0x514(%rbp)
   11e54:	64 48 8b 04 25 28 00 	mov    %fs:0x28,%rax
   11e5b:	00 00 
   11e5d:	48 89 45 d8          	mov    %rax,-0x28(%rbp)
   11e61:	31 c0                	xor    %eax,%eax
   11e63:	48 8d 05 c2 61 00 00 	lea    0x61c2(%rip),%rax        # 1802c <g_56>
   11e6a:	48 89 85 50 fc ff ff 	mov    %rax,-0x3b0(%rbp)
   11e71:	48 8d 05 b4 61 00 00 	lea    0x61b4(%rip),%rax        # 1802c <g_56>
   11e78:	48 89 85 58 fc ff ff 	mov    %rax,-0x3a8(%rbp)
   11e7f:	48 8d 05 a6 61 00 00 	lea    0x61a6(%rip),%rax        # 1802c <g_56>
   11e86:	48 89 85 60 fc ff ff 	mov    %rax,-0x3a0(%rbp)
   11e8d:	48 8d 05 98 61 00 00 	lea    0x6198(%rip),%rax        # 1802c <g_56>
   11e94:	48 89 85 68 fc ff ff 	mov    %rax,-0x398(%rbp)
   11e9b:	48 8d 05 8a 61 00 00 	lea    0x618a(%rip),%rax        # 1802c <g_56>
   11ea2:	48 89 85 70 fc ff ff 	mov    %rax,-0x390(%rbp)
   11ea9:	48 8d 05 7c 61 00 00 	lea    0x617c(%rip),%rax        # 1802c <g_56>
   11eb0:	48 89 85 78 fc ff ff 	mov    %rax,-0x388(%rbp)
   11eb7:	48 8d 05 6e 61 00 00 	lea    0x616e(%rip),%rax        # 1802c <g_56>
   11ebe:	48 89 85 80 fc ff ff 	mov    %rax,-0x380(%rbp)
   11ec5:	48 8d 05 60 61 00 00 	lea    0x6160(%rip),%rax        # 1802c <g_56>
   11ecc:	48 89 85 88 fc ff ff 	mov    %rax,-0x378(%rbp)
   11ed3:	48 8d 05 52 61 00 00 	lea    0x6152(%rip),%rax        # 1802c <g_56>
   11eda:	48 89 85 90 fc ff ff 	mov    %rax,-0x370(%rbp)
   11ee1:	c6 85 f4 fa ff ff 00 	movb   $0x0,-0x50c(%rbp)
   11ee8:	48 8d 05 dd 62 00 00 	lea    0x62dd(%rip),%rax        # 181cc <g_117>
   11eef:	48 89 85 40 fb ff ff 	mov    %rax,-0x4c0(%rbp)
   11ef6:	48 8d 05 d3 62 00 00 	lea    0x62d3(%rip),%rax        # 181d0 <g_125>
   11efd:	48 89 85 50 fb ff ff 	mov    %rax,-0x4b0(%rbp)
   11f04:	c6 85 f5 fa ff ff a2 	movb   $0xa2,-0x50b(%rbp)
   11f0b:	c7 85 08 fb ff ff 05 	movl   $0x5,-0x4f8(%rbp)
   11f12:	00 00 00 
   11f15:	c7 85 0c fb ff ff 81 	movl   $0xe4c42781,-0x4f4(%rbp)
   11f1c:	27 c4 e4 
   11f1f:	c7 85 10 fb ff ff fe 	movl   $0x9ef097fe,-0x4f0(%rbp)
   11f26:	97 f0 9e 
   11f29:	48 8d 05 28 63 00 00 	lea    0x6328(%rip),%rax        # 18258 <g_229>
   11f30:	48 89 85 58 fb ff ff 	mov    %rax,-0x4a8(%rbp)
   11f37:	48 8d 85 40 fb ff ff 	lea    -0x4c0(%rbp),%rax
   11f3e:	48 89 85 b0 fb ff ff 	mov    %rax,-0x450(%rbp)
   11f45:	48 8d 85 40 fb ff ff 	lea    -0x4c0(%rbp),%rax
   11f4c:	48 89 85 b8 fb ff ff 	mov    %rax,-0x448(%rbp)
   11f53:	48 8d 85 40 fb ff ff 	lea    -0x4c0(%rbp),%rax
   11f5a:	48 89 85 c0 fb ff ff 	mov    %rax,-0x440(%rbp)
   11f61:	48 8d 85 40 fb ff ff 	lea    -0x4c0(%rbp),%rax
   11f68:	48 89 85 c8 fb ff ff 	mov    %rax,-0x438(%rbp)
   11f6f:	48 8d 85 b0 fb ff ff 	lea    -0x450(%rbp),%rax
   11f76:	48 83 c0 18          	add    $0x18,%rax
   11f7a:	48 89 85 60 fb ff ff 	mov    %rax,-0x4a0(%rbp)
   11f81:	c7 85 14 fb ff ff fa 	movl   $0xfffffffa,-0x4ec(%rbp)
   11f88:	ff ff ff 
   11f8b:	48 c7 85 68 fb ff ff 	movq   $0x0,-0x498(%rbp)
   11f92:	00 00 00 00 
   11f96:	c6 85 ec fa ff ff ee 	movb   $0xee,-0x514(%rbp)
   11f9d:	eb 27                	jmp    11fc6 <func_80+0x1a9>
   11f9f:	48 8b 85 68 fc ff ff 	mov    -0x398(%rbp),%rax
   11fa6:	48 89 05 03 91 00 00 	mov    %rax,0x9103(%rip)        # 1b0b0 <g_116>
   11fad:	0f b6 85 ec fa ff ff 	movzbl -0x514(%rbp),%eax
   11fb4:	be 08 00 00 00       	mov    $0x8,%esi
   11fb9:	89 c7                	mov    %eax,%edi
   11fbb:	e8 3f 4d ff ff       	callq  6cff <safe_add_func_uint16_t_u_u>
   11fc0:	88 85 ec fa ff ff    	mov    %al,-0x514(%rbp)
   11fc6:	80 bd ec fa ff ff 39 	cmpb   $0x39,-0x514(%rbp)
   11fcd:	77 d0                	ja     11f9f <func_80+0x182>
   11fcf:	0f b6 95 f4 fa ff ff 	movzbl -0x50c(%rbp),%edx
   11fd6:	48 8b 85 40 fb ff ff 	mov    -0x4c0(%rbp),%rax
   11fdd:	48 85 c0             	test   %rax,%rax
   11fe0:	0f 95 c0             	setne  %al
   11fe3:	0f b6 c0             	movzbl %al,%eax
   11fe6:	09 d0                	or     %edx,%eax
   11fe8:	89 c2                	mov    %eax,%edx
   11fea:	48 8b 85 50 fb ff ff 	mov    -0x4b0(%rbp),%rax
   11ff1:	66 89 10             	mov    %dx,(%rax)
   11ff4:	48 8b 85 50 fb ff ff 	mov    -0x4b0(%rbp),%rax
   11ffb:	0f b7 00             	movzwl (%rax),%eax
   11ffe:	0f b7 c0             	movzwl %ax,%eax
   12001:	89 c6                	mov    %eax,%esi
   12003:	bf 01 00 00 00       	mov    $0x1,%edi
   12008:	e8 56 45 ff ff       	callq  6563 <safe_rshift_func_int16_t_s_u>
   1200d:	98                   	cwtl   
   1200e:	83 e0 01             	and    $0x1,%eax
   12011:	89 c2                	mov    %eax,%edx
   12013:	48 8b 05 86 90 00 00 	mov    0x9086(%rip),%rax        # 1b0a0 <g_76>
   1201a:	0f b7 00             	movzwl (%rax),%eax
   1201d:	98                   	cwtl   
   1201e:	89 d6                	mov    %edx,%esi
   12020:	89 c7                	mov    %eax,%edi
   12022:	e8 ce 43 ff ff       	callq  63f5 <safe_mul_func_int16_t_s_s>
   12027:	66 85 c0             	test   %ax,%ax
   1202a:	0f 84 91 09 00 00    	je     129c1 <func_80+0xba4>
   12030:	66 c7 85 8e fb ff ff 	movw   $0xffff,-0x472(%rbp)
   12037:	ff ff 
   12039:	c7 85 18 fb ff ff ff 	movl   $0xffffffff,-0x4e8(%rbp)
   12040:	ff ff ff 
   12043:	c7 85 fc fa ff ff ff 	movl   $0xffffffff,-0x504(%rbp)
   1204a:	ff ff ff 
   1204d:	c7 85 1c fb ff ff de 	movl   $0x9d88fcde,-0x4e4(%rbp)
   12054:	fc 88 9d 
   12057:	c7 85 20 fb ff ff 68 	movl   $0x75717668,-0x4e0(%rbp)
   1205e:	76 71 75 
   12061:	c7 85 24 fb ff ff 08 	movl   $0x8,-0x4dc(%rbp)
   12068:	00 00 00 
   1206b:	c7 85 00 fb ff ff 00 	movl   $0x0,-0x500(%rbp)
   12072:	00 00 00 
   12075:	eb 1a                	jmp    12091 <func_80+0x274>
   12077:	8b 85 00 fb ff ff    	mov    -0x500(%rbp),%eax
   1207d:	48 98                	cltq   
   1207f:	c7 84 85 f0 fb ff ff 	movl   $0x1,-0x410(%rbp,%rax,4)
   12086:	01 00 00 00 
   1208a:	83 85 00 fb ff ff 01 	addl   $0x1,-0x500(%rbp)
   12091:	83 bd 00 fb ff ff 09 	cmpl   $0x9,-0x500(%rbp)
   12098:	7e dd                	jle    12077 <func_80+0x25a>
   1209a:	0f b7 85 8e fb ff ff 	movzwl -0x472(%rbp),%eax
   120a1:	0f b6 d8             	movzbl %al,%ebx
   120a4:	8b 85 e8 fa ff ff    	mov    -0x518(%rbp),%eax
   120aa:	f7 d0                	not    %eax
   120ac:	c1 e8 1f             	shr    $0x1f,%eax
   120af:	0f b6 d0             	movzbl %al,%edx
   120b2:	0f b7 85 8e fb ff ff 	movzwl -0x472(%rbp),%eax
   120b9:	0f b6 c0             	movzbl %al,%eax
   120bc:	89 d6                	mov    %edx,%esi
   120be:	89 c7                	mov    %eax,%edi
   120c0:	e8 ce 4a ff ff       	callq  6b93 <safe_mul_func_uint8_t_u_u>
   120c5:	3c 01                	cmp    $0x1,%al
   120c7:	0f 95 c0             	setne  %al
   120ca:	0f b6 c0             	movzbl %al,%eax
   120cd:	0f b7 15 ec 60 00 00 	movzwl 0x60ec(%rip),%edx        # 181c0 <g_77+0x180>
   120d4:	0f be d2             	movsbl %dl,%edx
   120d7:	83 e2 01             	and    $0x1,%edx
   120da:	89 c6                	mov    %eax,%esi
   120dc:	89 d7                	mov    %edx,%edi
   120de:	e8 2f 41 ff ff       	callq  6212 <safe_mul_func_int8_t_s_s>
   120e3:	0f be d0             	movsbl %al,%edx
   120e6:	48 8b 85 88 fc ff ff 	mov    -0x378(%rbp),%rax
   120ed:	48 39 85 d8 fa ff ff 	cmp    %rax,-0x528(%rbp)
   120f4:	0f 94 c0             	sete   %al
   120f7:	0f b6 c8             	movzbl %al,%ecx
   120fa:	0f b7 85 8e fb ff ff 	movzwl -0x472(%rbp),%eax
   12101:	98                   	cwtl   
   12102:	39 c1                	cmp    %eax,%ecx
   12104:	7e 09                	jle    1210f <func_80+0x2f2>
   12106:	83 bd 18 fb ff ff 00 	cmpl   $0x0,-0x4e8(%rbp)
   1210d:	74 07                	je     12116 <func_80+0x2f9>
   1210f:	b8 01 00 00 00       	mov    $0x1,%eax
   12114:	eb 05                	jmp    1211b <func_80+0x2fe>
   12116:	b8 00 00 00 00       	mov    $0x0,%eax
   1211b:	39 d0                	cmp    %edx,%eax
   1211d:	0f 9f c0             	setg   %al
   12120:	0f b6 c0             	movzbl %al,%eax
   12123:	89 c6                	mov    %eax,%esi
   12125:	bf 4a 00 00 00       	mov    $0x4a,%edi
   1212a:	e8 49 4a ff ff       	callq  6b78 <safe_sub_func_uint8_t_u_u>
   1212f:	0f b6 d0             	movzbl %al,%edx
   12132:	8b 05 ec 5e 00 00    	mov    0x5eec(%rip),%eax        # 18024 <g_27>
   12138:	39 c2                	cmp    %eax,%edx
   1213a:	0f 92 c0             	setb   %al
   1213d:	0f b6 c0             	movzbl %al,%eax
   12140:	89 de                	mov    %ebx,%esi
   12142:	89 c7                	mov    %eax,%edi
   12144:	e8 92 4a ff ff       	callq  6bdb <safe_div_func_uint8_t_u_u>
   12149:	0f b7 05 80 60 00 00 	movzwl 0x6080(%rip),%eax        # 181d0 <g_125>
   12150:	66 85 c0             	test   %ax,%ax
   12153:	0f 95 c0             	setne  %al
   12156:	0f b6 c0             	movzbl %al,%eax
   12159:	be fd ff ff ff       	mov    $0xfffffffd,%esi
   1215e:	89 c7                	mov    %eax,%edi
   12160:	e8 05 41 ff ff       	callq  626a <safe_div_func_int8_t_s_s>
   12165:	66 c7 85 90 fb ff ff 	movw   $0x2c4c,-0x470(%rbp)
   1216c:	4c 2c 
   1216e:	66 c7 85 92 fb ff ff 	movw   $0x2c4c,-0x46e(%rbp)
   12175:	4c 2c 
   12177:	66 c7 85 94 fb ff ff 	movw   $0x2c4c,-0x46c(%rbp)
   1217e:	4c 2c 
   12180:	66 c7 85 96 fb ff ff 	movw   $0x2c4c,-0x46a(%rbp)
   12187:	4c 2c 
   12189:	66 c7 85 98 fb ff ff 	movw   $0x2c4c,-0x468(%rbp)
   12190:	4c 2c 
   12192:	66 c7 85 9a fb ff ff 	movw   $0x2c4c,-0x466(%rbp)
   12199:	4c 2c 
   1219b:	66 c7 85 9c fb ff ff 	movw   $0x2c4c,-0x464(%rbp)
   121a2:	4c 2c 
   121a4:	66 c7 85 9e fb ff ff 	movw   $0x2c4c,-0x462(%rbp)
   121ab:	4c 2c 
   121ad:	66 c7 85 a0 fb ff ff 	movw   $0x2c4c,-0x460(%rbp)
   121b4:	4c 2c 
   121b6:	c6 85 f6 fa ff ff fe 	movb   $0xfe,-0x50a(%rbp)
   121bd:	c7 85 28 fb ff ff b8 	movl   $0xd2cde1b8,-0x4d8(%rbp)
   121c4:	e1 cd d2 
   121c7:	c7 85 2c fb ff ff 00 	movl   $0x0,-0x4d4(%rbp)
   121ce:	00 00 00 
   121d1:	c7 85 30 fb ff ff 07 	movl   $0x7,-0x4d0(%rbp)
   121d8:	00 00 00 
   121db:	48 8d 05 ea 5f 00 00 	lea    0x5fea(%rip),%rax        # 181cc <g_117>
   121e2:	48 89 85 90 fd ff ff 	mov    %rax,-0x270(%rbp)
   121e9:	48 8d 85 fc fa ff ff 	lea    -0x504(%rbp),%rax
   121f0:	48 89 85 98 fd ff ff 	mov    %rax,-0x268(%rbp)
   121f7:	48 8d 05 ce 5f 00 00 	lea    0x5fce(%rip),%rax        # 181cc <g_117>
   121fe:	48 89 85 a0 fd ff ff 	mov    %rax,-0x260(%rbp)
   12205:	48 8d 85 fc fa ff ff 	lea    -0x504(%rbp),%rax
   1220c:	48 89 85 a8 fd ff ff 	mov    %rax,-0x258(%rbp)
   12213:	48 8d 05 b2 5f 00 00 	lea    0x5fb2(%rip),%rax        # 181cc <g_117>
   1221a:	48 89 85 b0 fd ff ff 	mov    %rax,-0x250(%rbp)
   12221:	48 8d 85 fc fa ff ff 	lea    -0x504(%rbp),%rax
   12228:	48 89 85 b8 fd ff ff 	mov    %rax,-0x248(%rbp)
   1222f:	48 8d 05 96 5f 00 00 	lea    0x5f96(%rip),%rax        # 181cc <g_117>
   12236:	48 89 85 c0 fd ff ff 	mov    %rax,-0x240(%rbp)
   1223d:	48 8d 85 fc fa ff ff 	lea    -0x504(%rbp),%rax
   12244:	48 89 85 c8 fd ff ff 	mov    %rax,-0x238(%rbp)
   1224b:	48 8d 05 7a 5f 00 00 	lea    0x5f7a(%rip),%rax        # 181cc <g_117>
   12252:	48 89 85 d0 fd ff ff 	mov    %rax,-0x230(%rbp)
   12259:	48 8d 85 fc fa ff ff 	lea    -0x504(%rbp),%rax
   12260:	48 89 85 d8 fd ff ff 	mov    %rax,-0x228(%rbp)
   12267:	48 8d 05 5e 5f 00 00 	lea    0x5f5e(%rip),%rax        # 181cc <g_117>
   1226e:	48 89 85 e0 fd ff ff 	mov    %rax,-0x220(%rbp)
   12275:	48 8d 85 fc fa ff ff 	lea    -0x504(%rbp),%rax
   1227c:	48 89 85 e8 fd ff ff 	mov    %rax,-0x218(%rbp)
   12283:	48 8d 05 42 5f 00 00 	lea    0x5f42(%rip),%rax        # 181cc <g_117>
   1228a:	48 89 85 f0 fd ff ff 	mov    %rax,-0x210(%rbp)
   12291:	48 8d 85 fc fa ff ff 	lea    -0x504(%rbp),%rax
   12298:	48 89 85 f8 fd ff ff 	mov    %rax,-0x208(%rbp)
   1229f:	48 8d 05 26 5f 00 00 	lea    0x5f26(%rip),%rax        # 181cc <g_117>
   122a6:	48 89 85 00 fe ff ff 	mov    %rax,-0x200(%rbp)
   122ad:	48 8d 85 fc fa ff ff 	lea    -0x504(%rbp),%rax
   122b4:	48 89 85 08 fe ff ff 	mov    %rax,-0x1f8(%rbp)
   122bb:	48 8d 05 0a 5f 00 00 	lea    0x5f0a(%rip),%rax        # 181cc <g_117>
   122c2:	48 89 85 10 fe ff ff 	mov    %rax,-0x1f0(%rbp)
   122c9:	48 8d 85 fc fa ff ff 	lea    -0x504(%rbp),%rax
   122d0:	48 89 85 18 fe ff ff 	mov    %rax,-0x1e8(%rbp)
   122d7:	48 8d 05 ee 5e 00 00 	lea    0x5eee(%rip),%rax        # 181cc <g_117>
   122de:	48 89 85 20 fe ff ff 	mov    %rax,-0x1e0(%rbp)
   122e5:	48 8d 85 fc fa ff ff 	lea    -0x504(%rbp),%rax
   122ec:	48 89 85 28 fe ff ff 	mov    %rax,-0x1d8(%rbp)
   122f3:	48 8d 05 d2 5e 00 00 	lea    0x5ed2(%rip),%rax        # 181cc <g_117>
   122fa:	48 89 85 30 fe ff ff 	mov    %rax,-0x1d0(%rbp)
   12301:	48 8d 85 fc fa ff ff 	lea    -0x504(%rbp),%rax
   12308:	48 89 85 38 fe ff ff 	mov    %rax,-0x1c8(%rbp)
   1230f:	48 8d 05 b6 5e 00 00 	lea    0x5eb6(%rip),%rax        # 181cc <g_117>
   12316:	48 89 85 40 fe ff ff 	mov    %rax,-0x1c0(%rbp)
   1231d:	48 8d 85 fc fa ff ff 	lea    -0x504(%rbp),%rax
   12324:	48 89 85 48 fe ff ff 	mov    %rax,-0x1b8(%rbp)
   1232b:	48 8d 05 9a 5e 00 00 	lea    0x5e9a(%rip),%rax        # 181cc <g_117>
   12332:	48 89 85 50 fe ff ff 	mov    %rax,-0x1b0(%rbp)
   12339:	48 8d 85 fc fa ff ff 	lea    -0x504(%rbp),%rax
   12340:	48 89 85 58 fe ff ff 	mov    %rax,-0x1a8(%rbp)
   12347:	48 8d 05 7e 5e 00 00 	lea    0x5e7e(%rip),%rax        # 181cc <g_117>
   1234e:	48 89 85 60 fe ff ff 	mov    %rax,-0x1a0(%rbp)
   12355:	48 8d 85 fc fa ff ff 	lea    -0x504(%rbp),%rax
   1235c:	48 89 85 68 fe ff ff 	mov    %rax,-0x198(%rbp)
   12363:	48 8d 05 62 5e 00 00 	lea    0x5e62(%rip),%rax        # 181cc <g_117>
   1236a:	48 89 85 70 fe ff ff 	mov    %rax,-0x190(%rbp)
   12371:	48 8d 85 fc fa ff ff 	lea    -0x504(%rbp),%rax
   12378:	48 89 85 78 fe ff ff 	mov    %rax,-0x188(%rbp)
   1237f:	48 8d 05 46 5e 00 00 	lea    0x5e46(%rip),%rax        # 181cc <g_117>
   12386:	48 89 85 80 fe ff ff 	mov    %rax,-0x180(%rbp)
   1238d:	48 8d 85 fc fa ff ff 	lea    -0x504(%rbp),%rax
   12394:	48 89 85 88 fe ff ff 	mov    %rax,-0x178(%rbp)
   1239b:	48 8d 05 2a 5e 00 00 	lea    0x5e2a(%rip),%rax        # 181cc <g_117>
   123a2:	48 89 85 90 fe ff ff 	mov    %rax,-0x170(%rbp)
   123a9:	48 8d 85 fc fa ff ff 	lea    -0x504(%rbp),%rax
   123b0:	48 89 85 98 fe ff ff 	mov    %rax,-0x168(%rbp)
   123b7:	48 8d 05 0e 5e 00 00 	lea    0x5e0e(%rip),%rax        # 181cc <g_117>
   123be:	48 89 85 a0 fe ff ff 	mov    %rax,-0x160(%rbp)
   123c5:	48 8d 85 fc fa ff ff 	lea    -0x504(%rbp),%rax
   123cc:	48 89 85 a8 fe ff ff 	mov    %rax,-0x158(%rbp)
   123d3:	48 8d 05 f2 5d 00 00 	lea    0x5df2(%rip),%rax        # 181cc <g_117>
   123da:	48 89 85 b0 fe ff ff 	mov    %rax,-0x150(%rbp)
   123e1:	48 8d 85 fc fa ff ff 	lea    -0x504(%rbp),%rax
   123e8:	48 89 85 b8 fe ff ff 	mov    %rax,-0x148(%rbp)
   123ef:	48 8d 05 d6 5d 00 00 	lea    0x5dd6(%rip),%rax        # 181cc <g_117>
   123f6:	48 89 85 c0 fe ff ff 	mov    %rax,-0x140(%rbp)
   123fd:	48 8d 85 fc fa ff ff 	lea    -0x504(%rbp),%rax
   12404:	48 89 85 c8 fe ff ff 	mov    %rax,-0x138(%rbp)
   1240b:	48 8d 05 ba 5d 00 00 	lea    0x5dba(%rip),%rax        # 181cc <g_117>
   12412:	48 89 85 d0 fe ff ff 	mov    %rax,-0x130(%rbp)
   12419:	48 8d 85 fc fa ff ff 	lea    -0x504(%rbp),%rax
   12420:	48 89 85 d8 fe ff ff 	mov    %rax,-0x128(%rbp)
   12427:	48 8d 05 9e 5d 00 00 	lea    0x5d9e(%rip),%rax        # 181cc <g_117>
   1242e:	48 89 85 e0 fe ff ff 	mov    %rax,-0x120(%rbp)
   12435:	48 8d 85 fc fa ff ff 	lea    -0x504(%rbp),%rax
   1243c:	48 89 85 e8 fe ff ff 	mov    %rax,-0x118(%rbp)
   12443:	48 8d 05 82 5d 00 00 	lea    0x5d82(%rip),%rax        # 181cc <g_117>
   1244a:	48 89 85 f0 fe ff ff 	mov    %rax,-0x110(%rbp)
   12451:	48 8d 85 fc fa ff ff 	lea    -0x504(%rbp),%rax
   12458:	48 89 85 f8 fe ff ff 	mov    %rax,-0x108(%rbp)
   1245f:	48 8d 05 66 5d 00 00 	lea    0x5d66(%rip),%rax        # 181cc <g_117>
   12466:	48 89 85 00 ff ff ff 	mov    %rax,-0x100(%rbp)
   1246d:	48 8d 85 fc fa ff ff 	lea    -0x504(%rbp),%rax
   12474:	48 89 85 08 ff ff ff 	mov    %rax,-0xf8(%rbp)
   1247b:	48 8d 05 4a 5d 00 00 	lea    0x5d4a(%rip),%rax        # 181cc <g_117>
   12482:	48 89 85 10 ff ff ff 	mov    %rax,-0xf0(%rbp)
   12489:	48 8d 85 fc fa ff ff 	lea    -0x504(%rbp),%rax
   12490:	48 89 85 18 ff ff ff 	mov    %rax,-0xe8(%rbp)
   12497:	48 8d 05 2e 5d 00 00 	lea    0x5d2e(%rip),%rax        # 181cc <g_117>
   1249e:	48 89 85 20 ff ff ff 	mov    %rax,-0xe0(%rbp)
   124a5:	48 8d 85 fc fa ff ff 	lea    -0x504(%rbp),%rax
   124ac:	48 89 85 28 ff ff ff 	mov    %rax,-0xd8(%rbp)
   124b3:	48 8d 05 12 5d 00 00 	lea    0x5d12(%rip),%rax        # 181cc <g_117>
   124ba:	48 89 85 30 ff ff ff 	mov    %rax,-0xd0(%rbp)
   124c1:	48 8d 85 fc fa ff ff 	lea    -0x504(%rbp),%rax
   124c8:	48 89 85 38 ff ff ff 	mov    %rax,-0xc8(%rbp)
   124cf:	48 8d 05 f6 5c 00 00 	lea    0x5cf6(%rip),%rax        # 181cc <g_117>
   124d6:	48 89 85 40 ff ff ff 	mov    %rax,-0xc0(%rbp)
   124dd:	48 8d 85 fc fa ff ff 	lea    -0x504(%rbp),%rax
   124e4:	48 89 85 48 ff ff ff 	mov    %rax,-0xb8(%rbp)
   124eb:	48 8d 05 da 5c 00 00 	lea    0x5cda(%rip),%rax        # 181cc <g_117>
   124f2:	48 89 85 50 ff ff ff 	mov    %rax,-0xb0(%rbp)
   124f9:	48 8d 85 fc fa ff ff 	lea    -0x504(%rbp),%rax
   12500:	48 89 85 58 ff ff ff 	mov    %rax,-0xa8(%rbp)
   12507:	48 8d 05 be 5c 00 00 	lea    0x5cbe(%rip),%rax        # 181cc <g_117>
   1250e:	48 89 85 60 ff ff ff 	mov    %rax,-0xa0(%rbp)
   12515:	48 8d 85 fc fa ff ff 	lea    -0x504(%rbp),%rax
   1251c:	48 89 85 68 ff ff ff 	mov    %rax,-0x98(%rbp)
   12523:	48 8d 05 a2 5c 00 00 	lea    0x5ca2(%rip),%rax        # 181cc <g_117>
   1252a:	48 89 85 70 ff ff ff 	mov    %rax,-0x90(%rbp)
   12531:	48 8d 85 fc fa ff ff 	lea    -0x504(%rbp),%rax
   12538:	48 89 85 78 ff ff ff 	mov    %rax,-0x88(%rbp)
   1253f:	48 8d 05 86 5c 00 00 	lea    0x5c86(%rip),%rax        # 181cc <g_117>
   12546:	48 89 45 80          	mov    %rax,-0x80(%rbp)
   1254a:	48 8d 85 fc fa ff ff 	lea    -0x504(%rbp),%rax
   12551:	48 89 45 88          	mov    %rax,-0x78(%rbp)
   12555:	48 8d 05 70 5c 00 00 	lea    0x5c70(%rip),%rax        # 181cc <g_117>
   1255c:	48 89 45 90          	mov    %rax,-0x70(%rbp)
   12560:	48 8d 85 fc fa ff ff 	lea    -0x504(%rbp),%rax
   12567:	48 89 45 98          	mov    %rax,-0x68(%rbp)
   1256b:	48 8d 05 5a 5c 00 00 	lea    0x5c5a(%rip),%rax        # 181cc <g_117>
   12572:	48 89 45 a0          	mov    %rax,-0x60(%rbp)
   12576:	48 8d 85 fc fa ff ff 	lea    -0x504(%rbp),%rax
   1257d:	48 89 45 a8          	mov    %rax,-0x58(%rbp)
   12581:	48 8d 05 44 5c 00 00 	lea    0x5c44(%rip),%rax        # 181cc <g_117>
   12588:	48 89 45 b0          	mov    %rax,-0x50(%rbp)
   1258c:	48 8d 85 fc fa ff ff 	lea    -0x504(%rbp),%rax
   12593:	48 89 45 b8          	mov    %rax,-0x48(%rbp)
   12597:	48 8d 05 2e 5c 00 00 	lea    0x5c2e(%rip),%rax        # 181cc <g_117>
   1259e:	48 89 45 c0          	mov    %rax,-0x40(%rbp)
   125a2:	48 8d 85 fc fa ff ff 	lea    -0x504(%rbp),%rax
   125a9:	48 89 45 c8          	mov    %rax,-0x38(%rbp)
   125ad:	48 c7 85 a0 fc ff ff 	movq   $0x0,-0x360(%rbp)
   125b4:	00 00 00 00 
   125b8:	48 8d 85 90 fd ff ff 	lea    -0x270(%rbp),%rax
   125bf:	48 05 b8 01 00 00    	add    $0x1b8,%rax
   125c5:	48 89 85 a8 fc ff ff 	mov    %rax,-0x358(%rbp)
   125cc:	48 8d 85 90 fd ff ff 	lea    -0x270(%rbp),%rax
   125d3:	48 05 b8 01 00 00    	add    $0x1b8,%rax
   125d9:	48 89 85 b0 fc ff ff 	mov    %rax,-0x350(%rbp)
   125e0:	48 8d 85 90 fd ff ff 	lea    -0x270(%rbp),%rax
   125e7:	48 05 b8 01 00 00    	add    $0x1b8,%rax
   125ed:	48 89 85 b8 fc ff ff 	mov    %rax,-0x348(%rbp)
   125f4:	48 c7 85 c0 fc ff ff 	movq   $0x0,-0x340(%rbp)
   125fb:	00 00 00 00 
   125ff:	48 8d 85 90 fd ff ff 	lea    -0x270(%rbp),%rax
   12606:	48 05 b8 01 00 00    	add    $0x1b8,%rax
   1260c:	48 89 85 c8 fc ff ff 	mov    %rax,-0x338(%rbp)
   12613:	48 c7 85 d0 fc ff ff 	movq   $0x0,-0x330(%rbp)
   1261a:	00 00 00 00 
   1261e:	48 c7 85 d8 fc ff ff 	movq   $0x0,-0x328(%rbp)
   12625:	00 00 00 00 
   12629:	48 c7 85 e0 fc ff ff 	movq   $0x0,-0x320(%rbp)
   12630:	00 00 00 00 
   12634:	48 8d 85 90 fd ff ff 	lea    -0x270(%rbp),%rax
   1263b:	48 05 b8 01 00 00    	add    $0x1b8,%rax
   12641:	48 89 85 e8 fc ff ff 	mov    %rax,-0x318(%rbp)
   12648:	48 c7 85 f0 fc ff ff 	movq   $0x0,-0x310(%rbp)
   1264f:	00 00 00 00 
   12653:	48 8d 85 90 fd ff ff 	lea    -0x270(%rbp),%rax
   1265a:	48 05 b8 01 00 00    	add    $0x1b8,%rax
   12660:	48 89 85 f8 fc ff ff 	mov    %rax,-0x308(%rbp)
   12667:	48 8d 85 90 fd ff ff 	lea    -0x270(%rbp),%rax
   1266e:	48 05 b8 01 00 00    	add    $0x1b8,%rax
   12674:	48 89 85 00 fd ff ff 	mov    %rax,-0x300(%rbp)
   1267b:	48 8d 85 90 fd ff ff 	lea    -0x270(%rbp),%rax
   12682:	48 05 b8 01 00 00    	add    $0x1b8,%rax
   12688:	48 89 85 08 fd ff ff 	mov    %rax,-0x2f8(%rbp)
   1268f:	48 c7 85 10 fd ff ff 	movq   $0x0,-0x2f0(%rbp)
   12696:	00 00 00 00 
   1269a:	48 8d 85 90 fd ff ff 	lea    -0x270(%rbp),%rax
   126a1:	48 05 b8 01 00 00    	add    $0x1b8,%rax
   126a7:	48 89 85 18 fd ff ff 	mov    %rax,-0x2e8(%rbp)
   126ae:	48 c7 85 20 fd ff ff 	movq   $0x0,-0x2e0(%rbp)
   126b5:	00 00 00 00 
   126b9:	48 c7 85 28 fd ff ff 	movq   $0x0,-0x2d8(%rbp)
   126c0:	00 00 00 00 
   126c4:	48 c7 85 30 fd ff ff 	movq   $0x0,-0x2d0(%rbp)
   126cb:	00 00 00 00 
   126cf:	48 8d 85 90 fd ff ff 	lea    -0x270(%rbp),%rax
   126d6:	48 05 b8 01 00 00    	add    $0x1b8,%rax
   126dc:	48 89 85 38 fd ff ff 	mov    %rax,-0x2c8(%rbp)
   126e3:	48 c7 85 40 fd ff ff 	movq   $0x0,-0x2c0(%rbp)
   126ea:	00 00 00 00 
   126ee:	48 8d 85 90 fd ff ff 	lea    -0x270(%rbp),%rax
   126f5:	48 05 b8 01 00 00    	add    $0x1b8,%rax
   126fb:	48 89 85 48 fd ff ff 	mov    %rax,-0x2b8(%rbp)
   12702:	48 8d 85 90 fd ff ff 	lea    -0x270(%rbp),%rax
   12709:	48 05 b8 01 00 00    	add    $0x1b8,%rax
   1270f:	48 89 85 50 fd ff ff 	mov    %rax,-0x2b0(%rbp)
   12716:	48 8d 85 90 fd ff ff 	lea    -0x270(%rbp),%rax
   1271d:	48 05 b8 01 00 00    	add    $0x1b8,%rax
   12723:	48 89 85 58 fd ff ff 	mov    %rax,-0x2a8(%rbp)
   1272a:	48 c7 85 60 fd ff ff 	movq   $0x0,-0x2a0(%rbp)
   12731:	00 00 00 00 
   12735:	48 8d 85 90 fd ff ff 	lea    -0x270(%rbp),%rax
   1273c:	48 05 b8 01 00 00    	add    $0x1b8,%rax
   12742:	48 89 85 68 fd ff ff 	mov    %rax,-0x298(%rbp)
   12749:	48 c7 85 70 fd ff ff 	movq   $0x0,-0x290(%rbp)
   12750:	00 00 00 00 
   12754:	48 c7 85 78 fd ff ff 	movq   $0x0,-0x288(%rbp)
   1275b:	00 00 00 00 
   1275f:	48 c7 85 80 fd ff ff 	movq   $0x0,-0x280(%rbp)
   12766:	00 00 00 00 
   1276a:	48 8d 85 90 fd ff ff 	lea    -0x270(%rbp),%rax
   12771:	48 05 b8 01 00 00    	add    $0x1b8,%rax
   12777:	48 89 85 88 fd ff ff 	mov    %rax,-0x278(%rbp)
   1277e:	48 8d 85 a0 fc ff ff 	lea    -0x360(%rbp),%rax
   12785:	48 83 c0 18          	add    $0x18,%rax
   12789:	48 89 85 70 fb ff ff 	mov    %rax,-0x490(%rbp)
   12790:	c6 85 f4 fa ff ff 07 	movb   $0x7,-0x50c(%rbp)
   12797:	e9 f1 00 00 00       	jmpq   1288d <func_80+0xa70>
   1279c:	48 8d 05 2f 5a 00 00 	lea    0x5a2f(%rip),%rax        # 181d2 <g_141>
   127a3:	48 89 85 78 fb ff ff 	mov    %rax,-0x488(%rbp)
   127aa:	c7 85 34 fb ff ff ff 	movl   $0xffffffff,-0x4cc(%rbp)
   127b1:	ff ff ff 
   127b4:	48 c7 85 80 fb ff ff 	movq   $0x0,-0x480(%rbp)
   127bb:	00 00 00 00 
   127bf:	48 8d 05 28 90 00 00 	lea    0x9028(%rip),%rax        # 1b7ee <g_75+0x6>
   127c6:	48 89 85 48 fb ff ff 	mov    %rax,-0x4b8(%rbp)
   127cd:	48 8d 85 48 fb ff ff 	lea    -0x4b8(%rbp),%rax
   127d4:	48 89 85 20 fc ff ff 	mov    %rax,-0x3e0(%rbp)
   127db:	48 8d 85 48 fb ff ff 	lea    -0x4b8(%rbp),%rax
   127e2:	48 89 85 28 fc ff ff 	mov    %rax,-0x3d8(%rbp)
   127e9:	48 8d 85 48 fb ff ff 	lea    -0x4b8(%rbp),%rax
   127f0:	48 89 85 30 fc ff ff 	mov    %rax,-0x3d0(%rbp)
   127f7:	48 8d 85 48 fb ff ff 	lea    -0x4b8(%rbp),%rax
   127fe:	48 89 85 38 fc ff ff 	mov    %rax,-0x3c8(%rbp)
   12805:	48 8d 85 48 fb ff ff 	lea    -0x4b8(%rbp),%rax
   1280c:	48 89 85 40 fc ff ff 	mov    %rax,-0x3c0(%rbp)
   12813:	48 8d 85 48 fb ff ff 	lea    -0x4b8(%rbp),%rax
   1281a:	48 89 85 48 fc ff ff 	mov    %rax,-0x3b8(%rbp)
   12821:	66 c7 85 f8 fa ff ff 	movw   $0x8115,-0x508(%rbp)
   12828:	15 81 
   1282a:	66 c7 85 fa fa ff ff 	movw   $0x696f,-0x506(%rbp)
   12831:	6f 69 
   12833:	c6 85 f7 fa ff ff 77 	movb   $0x77,-0x509(%rbp)
   1283a:	c7 85 38 fb ff ff 82 	movl   $0xb9bb5482,-0x4c8(%rbp)
   12841:	54 bb b9 
   12844:	c7 85 3c fb ff ff 07 	movl   $0x7,-0x4c4(%rbp)
   1284b:	00 00 00 
   1284e:	c7 85 04 fb ff ff 00 	movl   $0x0,-0x4fc(%rbp)
   12855:	00 00 00 
   12858:	eb 1a                	jmp    12874 <func_80+0xa57>
   1285a:	8b 85 04 fb ff ff    	mov    -0x4fc(%rbp),%eax
   12860:	48 98                	cltq   
   12862:	c7 84 85 d0 fb ff ff 	movl   $0xfffffff7,-0x430(%rbp,%rax,4)
   12869:	f7 ff ff ff 
   1286d:	83 85 04 fb ff ff 01 	addl   $0x1,-0x4fc(%rbp)
   12874:	83 bd 04 fb ff ff 07 	cmpl   $0x7,-0x4fc(%rbp)
   1287b:	7e dd                	jle    1285a <func_80+0xa3d>
   1287d:	0f b6 85 f4 fa ff ff 	movzbl -0x50c(%rbp),%eax
   12884:	83 c0 01             	add    $0x1,%eax
   12887:	88 85 f4 fa ff ff    	mov    %al,-0x50c(%rbp)
   1288d:	80 bd f4 fa ff ff 3a 	cmpb   $0x3a,-0x50c(%rbp)
   12894:	0f 86 02 ff ff ff    	jbe    1279c <func_80+0x97f>
   1289a:	48 8b 05 37 88 00 00 	mov    0x8837(%rip),%rax        # 1b0d8 <g_211>
   128a1:	48 8b 00             	mov    (%rax),%rax
   128a4:	48 8b 10             	mov    (%rax),%rdx
   128a7:	48 8b 05 22 88 00 00 	mov    0x8822(%rip),%rax        # 1b0d0 <g_212>
   128ae:	48 8b 00             	mov    (%rax),%rax
   128b1:	48 8b 12             	mov    (%rdx),%rdx
   128b4:	48 89 10             	mov    %rdx,(%rax)
   128b7:	8b 9d 14 fb ff ff    	mov    -0x4ec(%rbp),%ebx
   128bd:	8b 05 65 57 00 00    	mov    0x5765(%rip),%eax        # 18028 <g_55>
   128c3:	41 89 c4             	mov    %eax,%r12d
   128c6:	be 0a 00 00 00       	mov    $0xa,%esi
   128cb:	bf 00 00 00 00       	mov    $0x0,%edi
   128d0:	e8 55 3c ff ff       	callq  652a <safe_rshift_func_int16_t_s_s>
   128d5:	48 8d 85 b0 fb ff ff 	lea    -0x450(%rbp),%rax
   128dc:	48 83 c0 18          	add    $0x18,%rax
   128e0:	48 39 85 60 fb ff ff 	cmp    %rax,-0x4a0(%rbp)
   128e7:	0f 94 c0             	sete   %al
   128ea:	0f b6 c0             	movzbl %al,%eax
   128ed:	44 89 e6             	mov    %r12d,%esi
   128f0:	89 c7                	mov    %eax,%edi
   128f2:	e8 6c 3c ff ff       	callq  6563 <safe_rshift_func_int16_t_s_u>
   128f7:	0f bf d0             	movswl %ax,%edx
   128fa:	48 8b 85 58 fb ff ff 	mov    -0x4a8(%rbp),%rax
   12901:	48 8b 08             	mov    (%rax),%rcx
   12904:	48 8b 85 58 fb ff ff 	mov    -0x4a8(%rbp),%rax
   1290b:	48 89 08             	mov    %rcx,(%rax)
   1290e:	48 8b 85 58 fb ff ff 	mov    -0x4a8(%rbp),%rax
   12915:	48 8b 00             	mov    (%rax),%rax
   12918:	48 89 c1             	mov    %rax,%rcx
   1291b:	48 b8 ef e3 6b 68 57 	movabs $0xb30ef957686be3ef,%rax
   12922:	f9 0e b3 
   12925:	48 39 c1             	cmp    %rax,%rcx
   12928:	0f 97 c0             	seta   %al
   1292b:	0f b6 c0             	movzbl %al,%eax
   1292e:	89 d6                	mov    %edx,%esi
   12930:	89 c7                	mov    %eax,%edi
   12932:	e8 df 3a ff ff       	callq  6416 <safe_mod_func_int16_t_s_s>
   12937:	41 89 c5             	mov    %eax,%r13d
   1293a:	48 8b 85 e0 fa ff ff 	mov    -0x520(%rbp),%rax
   12941:	0f b7 00             	movzwl (%rax),%eax
   12944:	44 0f b7 e0          	movzwl %ax,%r12d
   12948:	be 22 ce 00 00       	mov    $0xce22,%esi
   1294d:	bf ff ff 00 00       	mov    $0xffff,%edi
   12952:	e8 e6 43 ff ff       	callq  6d3d <safe_mul_func_uint16_t_u_u>
   12957:	0f b7 c0             	movzwl %ax,%eax
   1295a:	44 89 e6             	mov    %r12d,%esi
   1295d:	89 c7                	mov    %eax,%edi
   1295f:	e8 f8 43 ff ff       	callq  6d5c <safe_mod_func_uint16_t_u_u>
   12964:	48 8b 85 40 fb ff ff 	mov    -0x4c0(%rbp),%rax
   1296b:	8b 00                	mov    (%rax),%eax
   1296d:	0f b7 c0             	movzwl %ax,%eax
   12970:	be 67 0c 00 00       	mov    $0xc67,%esi
   12975:	89 c7                	mov    %eax,%edi
   12977:	e8 12 44 ff ff       	callq  6d8e <safe_div_func_uint16_t_u_u>
   1297c:	0f b7 d0             	movzwl %ax,%edx
   1297f:	48 8b 05 3a 87 00 00 	mov    0x873a(%rip),%rax        # 1b0c0 <g_168>
   12986:	0f b7 00             	movzwl (%rax),%eax
   12989:	98                   	cwtl   
   1298a:	39 c2                	cmp    %eax,%edx
   1298c:	0f 9e c0             	setle  %al
   1298f:	0f b6 d0             	movzbl %al,%edx
   12992:	48 8b 05 27 87 00 00 	mov    0x8727(%rip),%rax        # 1b0c0 <g_168>
   12999:	0f b7 00             	movzwl (%rax),%eax
   1299c:	98                   	cwtl   
   1299d:	21 d0                	and    %edx,%eax
   1299f:	48 98                	cltq   
   129a1:	48 be 5f 3a 41 79 68 	movabs $0x923a026879413a5f,%rsi
   129a8:	02 3a 92 
   129ab:	48 89 c7             	mov    %rax,%rdi
   129ae:	e8 98 46 ff ff       	callq  704b <safe_sub_func_uint64_t_u_u>
   129b3:	48 85 c0             	test   %rax,%rax
   129b6:	0f 85 49 02 00 00    	jne    12c05 <func_80+0xde8>
   129bc:	e9 54 02 00 00       	jmpq   12c15 <func_80+0xdf8>
   129c1:	66 c7 85 90 fd ff ff 	movw   $0x2,-0x270(%rbp)
   129c8:	02 00 
   129ca:	66 c7 85 92 fd ff ff 	movw   $0x2769,-0x26e(%rbp)
   129d1:	69 27 
   129d3:	66 c7 85 94 fd ff ff 	movw   $0x4,-0x26c(%rbp)
   129da:	04 00 
   129dc:	66 c7 85 96 fd ff ff 	movw   $0x2769,-0x26a(%rbp)
   129e3:	69 27 
   129e5:	66 c7 85 98 fd ff ff 	movw   $0x2,-0x268(%rbp)
   129ec:	02 00 
   129ee:	66 c7 85 9a fd ff ff 	movw   $0xe896,-0x266(%rbp)
   129f5:	96 e8 
   129f7:	66 c7 85 9c fd ff ff 	movw   $0x2,-0x264(%rbp)
   129fe:	02 00 
   12a00:	66 c7 85 9e fd ff ff 	movw   $0x2769,-0x262(%rbp)
   12a07:	69 27 
   12a09:	66 c7 85 a0 fd ff ff 	movw   $0x4,-0x260(%rbp)
   12a10:	04 00 
   12a12:	66 c7 85 a2 fd ff ff 	movw   $0x2769,-0x25e(%rbp)
   12a19:	69 27 
   12a1b:	66 c7 85 a4 fd ff ff 	movw   $0x2,-0x25c(%rbp)
   12a22:	02 00 
   12a24:	66 c7 85 a6 fd ff ff 	movw   $0xe896,-0x25a(%rbp)
   12a2b:	96 e8 
   12a2d:	66 c7 85 a8 fd ff ff 	movw   $0x2,-0x258(%rbp)
   12a34:	02 00 
   12a36:	66 c7 85 aa fd ff ff 	movw   $0x2769,-0x256(%rbp)
   12a3d:	69 27 
   12a3f:	66 c7 85 ac fd ff ff 	movw   $0x4,-0x254(%rbp)
   12a46:	04 00 
   12a48:	66 c7 85 ae fd ff ff 	movw   $0x2769,-0x252(%rbp)
   12a4f:	69 27 
   12a51:	66 c7 85 b0 fd ff ff 	movw   $0x2,-0x250(%rbp)
   12a58:	02 00 
   12a5a:	66 c7 85 b2 fd ff ff 	movw   $0xe896,-0x24e(%rbp)
   12a61:	96 e8 
   12a63:	66 c7 85 b4 fd ff ff 	movw   $0x2,-0x24c(%rbp)
   12a6a:	02 00 
   12a6c:	66 c7 85 b6 fd ff ff 	movw   $0x2769,-0x24a(%rbp)
   12a73:	69 27 
   12a75:	66 c7 85 b8 fd ff ff 	movw   $0x4,-0x248(%rbp)
   12a7c:	04 00 
   12a7e:	66 c7 85 ba fd ff ff 	movw   $0x2769,-0x246(%rbp)
   12a85:	69 27 
   12a87:	66 c7 85 bc fd ff ff 	movw   $0x2,-0x244(%rbp)
   12a8e:	02 00 
   12a90:	66 c7 85 be fd ff ff 	movw   $0xe896,-0x242(%rbp)
   12a97:	96 e8 
   12a99:	66 c7 85 c0 fd ff ff 	movw   $0x2,-0x240(%rbp)
   12aa0:	02 00 
   12aa2:	66 c7 85 c2 fd ff ff 	movw   $0x2769,-0x23e(%rbp)
   12aa9:	69 27 
   12aab:	66 c7 85 c4 fd ff ff 	movw   $0x4,-0x23c(%rbp)
   12ab2:	04 00 
   12ab4:	66 c7 85 c6 fd ff ff 	movw   $0x2769,-0x23a(%rbp)
   12abb:	69 27 
   12abd:	66 c7 85 c8 fd ff ff 	movw   $0x2,-0x238(%rbp)
   12ac4:	02 00 
   12ac6:	66 c7 85 ca fd ff ff 	movw   $0xe896,-0x236(%rbp)
   12acd:	96 e8 
   12acf:	66 c7 85 cc fd ff ff 	movw   $0x2,-0x234(%rbp)
   12ad6:	02 00 
   12ad8:	66 c7 85 ce fd ff ff 	movw   $0x2769,-0x232(%rbp)
   12adf:	69 27 
   12ae1:	66 c7 85 d0 fd ff ff 	movw   $0x4,-0x230(%rbp)
   12ae8:	04 00 
   12aea:	66 c7 85 d2 fd ff ff 	movw   $0x2769,-0x22e(%rbp)
   12af1:	69 27 
   12af3:	66 c7 85 d4 fd ff ff 	movw   $0x2,-0x22c(%rbp)
   12afa:	02 00 
   12afc:	66 c7 85 d6 fd ff ff 	movw   $0xe896,-0x22a(%rbp)
   12b03:	96 e8 
   12b05:	66 c7 85 d8 fd ff ff 	movw   $0x2,-0x228(%rbp)
   12b0c:	02 00 
   12b0e:	66 c7 85 da fd ff ff 	movw   $0x2769,-0x226(%rbp)
   12b15:	69 27 
   12b17:	66 c7 85 dc fd ff ff 	movw   $0x4,-0x224(%rbp)
   12b1e:	04 00 
   12b20:	66 c7 85 de fd ff ff 	movw   $0x2769,-0x222(%rbp)
   12b27:	69 27 
   12b29:	66 c7 85 e0 fd ff ff 	movw   $0x2,-0x220(%rbp)
   12b30:	02 00 
   12b32:	66 c7 85 e2 fd ff ff 	movw   $0xe896,-0x21e(%rbp)
   12b39:	96 e8 
   12b3b:	66 c7 85 e4 fd ff ff 	movw   $0x2,-0x21c(%rbp)
   12b42:	02 00 
   12b44:	66 c7 85 e6 fd ff ff 	movw   $0x2769,-0x21a(%rbp)
   12b4b:	69 27 
   12b4d:	66 c7 85 e8 fd ff ff 	movw   $0x4,-0x218(%rbp)
   12b54:	04 00 
   12b56:	66 c7 85 ea fd ff ff 	movw   $0x2769,-0x216(%rbp)
   12b5d:	69 27 
   12b5f:	66 c7 85 ec fd ff ff 	movw   $0x2,-0x214(%rbp)
   12b66:	02 00 
   12b68:	66 c7 85 ee fd ff ff 	movw   $0xe896,-0x212(%rbp)
   12b6f:	96 e8 
   12b71:	66 c7 85 f0 fd ff ff 	movw   $0x2,-0x210(%rbp)
   12b78:	02 00 
   12b7a:	66 c7 85 f2 fd ff ff 	movw   $0x2769,-0x20e(%rbp)
   12b81:	69 27 
   12b83:	66 c7 85 f4 fd ff ff 	movw   $0x4,-0x20c(%rbp)
   12b8a:	04 00 
   12b8c:	66 c7 85 f6 fd ff ff 	movw   $0x2769,-0x20a(%rbp)
   12b93:	69 27 
   12b95:	66 c7 85 f8 fd ff ff 	movw   $0x2,-0x208(%rbp)
   12b9c:	02 00 
   12b9e:	66 c7 85 fa fd ff ff 	movw   $0xe896,-0x206(%rbp)
   12ba5:	96 e8 
   12ba7:	66 c7 85 fc fd ff ff 	movw   $0x2,-0x204(%rbp)
   12bae:	02 00 
   12bb0:	66 c7 85 fe fd ff ff 	movw   $0x2769,-0x202(%rbp)
   12bb7:	69 27 
   12bb9:	66 c7 85 00 fe ff ff 	movw   $0x4,-0x200(%rbp)
   12bc0:	04 00 
   12bc2:	66 c7 85 02 fe ff ff 	movw   $0x2769,-0x1fe(%rbp)
   12bc9:	69 27 
   12bcb:	66 c7 85 04 fe ff ff 	movw   $0x2,-0x1fc(%rbp)
   12bd2:	02 00 
   12bd4:	66 c7 85 06 fe ff ff 	movw   $0xe896,-0x1fa(%rbp)
   12bdb:	96 e8 
   12bdd:	0f b7 85 00 fe ff ff 	movzwl -0x200(%rbp),%eax
   12be4:	83 e8 01             	sub    $0x1,%eax
   12be7:	66 89 85 00 fe ff ff 	mov    %ax,-0x200(%rbp)
   12bee:	80 bd ec fa ff ff 00 	cmpb   $0x0,-0x514(%rbp)
   12bf5:	74 05                	je     12bfc <func_80+0xddf>
   12bf7:	e9 9a f3 ff ff       	jmpq   11f96 <func_80+0x179>
   12bfc:	48 8d 05 29 54 00 00 	lea    0x5429(%rip),%rax        # 1802c <g_56>
   12c03:	eb 69                	jmp    12c6e <func_80+0xe51>
   12c05:	80 bd ec fa ff ff 00 	cmpb   $0x0,-0x514(%rbp)
   12c0c:	74 07                	je     12c15 <func_80+0xdf8>
   12c0e:	b8 01 00 00 00       	mov    $0x1,%eax
   12c13:	eb 05                	jmp    12c1a <func_80+0xdfd>
   12c15:	b8 00 00 00 00       	mov    $0x0,%eax
   12c1a:	0f be d0             	movsbl %al,%edx
   12c1d:	0f b6 05 ae 55 00 00 	movzbl 0x55ae(%rip),%eax        # 181d2 <g_141>
   12c24:	0f be c0             	movsbl %al,%eax
   12c27:	89 d6                	mov    %edx,%esi
   12c29:	89 c7                	mov    %eax,%edi
   12c2b:	e8 01 36 ff ff       	callq  6231 <safe_mod_func_int8_t_s_s>
   12c30:	66 98                	cbtw   
   12c32:	66 41 39 c5          	cmp    %ax,%r13w
   12c36:	0f 9f c0             	setg   %al
   12c39:	0f b6 c0             	movzbl %al,%eax
   12c3c:	89 de                	mov    %ebx,%esi
   12c3e:	89 c7                	mov    %eax,%edi
   12c40:	e8 71 39 ff ff       	callq  65b6 <safe_add_func_int32_t_s_s>
   12c45:	48 8b 85 68 fb ff ff 	mov    -0x498(%rbp),%rax
   12c4c:	48 89 05 5d 84 00 00 	mov    %rax,0x845d(%rip)        # 1b0b0 <g_116>
   12c53:	48 8b 05 76 84 00 00 	mov    0x8476(%rip),%rax        # 1b0d0 <g_212>
   12c5a:	48 8b 00             	mov    (%rax),%rax
   12c5d:	48 8b 15 4c 84 00 00 	mov    0x844c(%rip),%rdx        # 1b0b0 <g_116>
   12c64:	48 89 10             	mov    %rdx,(%rax)
   12c67:	48 8b 85 d8 fa ff ff 	mov    -0x528(%rbp),%rax
   12c6e:	48 8b 5d d8          	mov    -0x28(%rbp),%rbx
   12c72:	64 48 33 1c 25 28 00 	xor    %fs:0x28,%rbx
   12c79:	00 00 
   12c7b:	74 05                	je     12c82 <func_80+0xe65>
   12c7d:	e8 ee 33 ff ff       	callq  6070 <__stack_chk_fail@plt>
   12c82:	48 81 c4 18 05 00 00 	add    $0x518,%rsp
   12c89:	5b                   	pop    %rbx
   12c8a:	41 5c                	pop    %r12
   12c8c:	41 5d                	pop    %r13
   12c8e:	5d                   	pop    %rbp
   12c8f:	c3                   	retq   

0000000000012c90 <func_86>:
   12c90:	f3 0f 1e fa          	endbr64 
   12c94:	55                   	push   %rbp
   12c95:	48 89 e5             	mov    %rsp,%rbp
   12c98:	89 f8                	mov    %edi,%eax
   12c9a:	66 89 45 fc          	mov    %ax,-0x4(%rbp)
   12c9e:	8b 05 88 53 00 00    	mov    0x5388(%rip),%eax        # 1802c <g_56>
   12ca4:	5d                   	pop    %rbp
   12ca5:	c3                   	retq   

0000000000012ca6 <main>:
   12ca6:	f3 0f 1e fa          	endbr64 
   12caa:	55                   	push   %rbp
   12cab:	48 89 e5             	mov    %rsp,%rbp
   12cae:	48 83 ec 20          	sub    $0x20,%rsp
   12cb2:	89 7d ec             	mov    %edi,-0x14(%rbp)
   12cb5:	48 89 75 e0          	mov    %rsi,-0x20(%rbp)
   12cb9:	c7 45 fc 00 00 00 00 	movl   $0x0,-0x4(%rbp)
   12cc0:	83 7d ec 02          	cmpl   $0x2,-0x14(%rbp)
   12cc4:	75 25                	jne    12ceb <main+0x45>
   12cc6:	48 8b 45 e0          	mov    -0x20(%rbp),%rax
   12cca:	48 83 c0 08          	add    $0x8,%rax
   12cce:	48 8b 00             	mov    (%rax),%rax
   12cd1:	48 8d 35 28 1b 00 00 	lea    0x1b28(%rip),%rsi        # 14800 <g_1017+0x740>
   12cd8:	48 89 c7             	mov    %rax,%rdi
   12cdb:	e8 b0 33 ff ff       	callq  6090 <strcmp@plt>
   12ce0:	85 c0                	test   %eax,%eax
   12ce2:	75 07                	jne    12ceb <main+0x45>
   12ce4:	c7 45 fc 01 00 00 00 	movl   $0x1,-0x4(%rbp)
   12ceb:	e8 99 34 ff ff       	callq  6189 <platform_main_begin>
   12cf0:	e8 a3 48 ff ff       	callq  7598 <crc32_gentab>
   12cf5:	e8 bb 4a ff ff       	callq  77b5 <func_1>
   12cfa:	8b 05 24 53 00 00    	mov    0x5324(%rip),%eax        # 18024 <g_27>
   12d00:	89 c1                	mov    %eax,%ecx
   12d02:	8b 45 fc             	mov    -0x4(%rbp),%eax
   12d05:	89 c2                	mov    %eax,%edx
   12d07:	48 8d 35 f4 1a 00 00 	lea    0x1af4(%rip),%rsi        # 14802 <g_1017+0x742>
   12d0e:	48 89 cf             	mov    %rcx,%rdi
   12d11:	e8 dd 49 ff ff       	callq  76f3 <transparent_crc>
   12d16:	8b 05 0c 53 00 00    	mov    0x530c(%rip),%eax        # 18028 <g_55>
   12d1c:	48 98                	cltq   
   12d1e:	8b 55 fc             	mov    -0x4(%rbp),%edx
   12d21:	48 8d 35 df 1a 00 00 	lea    0x1adf(%rip),%rsi        # 14807 <g_1017+0x747>
   12d28:	48 89 c7             	mov    %rax,%rdi
   12d2b:	e8 c3 49 ff ff       	callq  76f3 <transparent_crc>
   12d30:	8b 05 f6 52 00 00    	mov    0x52f6(%rip),%eax        # 1802c <g_56>
   12d36:	48 98                	cltq   
   12d38:	8b 55 fc             	mov    -0x4(%rbp),%edx
   12d3b:	48 8d 35 ca 1a 00 00 	lea    0x1aca(%rip),%rsi        # 1480c <g_1017+0x74c>
   12d42:	48 89 c7             	mov    %rax,%rdi
   12d45:	e8 a9 49 ff ff       	callq  76f3 <transparent_crc>
   12d4a:	c7 45 f0 00 00 00 00 	movl   $0x0,-0x10(%rbp)
   12d51:	eb 4a                	jmp    12d9d <main+0xf7>
   12d53:	8b 45 f0             	mov    -0x10(%rbp),%eax
   12d56:	48 98                	cltq   
   12d58:	48 8d 14 00          	lea    (%rax,%rax,1),%rdx
   12d5c:	48 8d 05 85 8a 00 00 	lea    0x8a85(%rip),%rax        # 1b7e8 <g_75>
   12d63:	0f b7 04 02          	movzwl (%rdx,%rax,1),%eax
   12d67:	48 0f bf c0          	movswq %ax,%rax
   12d6b:	8b 55 fc             	mov    -0x4(%rbp),%edx
   12d6e:	48 8d 35 9c 1a 00 00 	lea    0x1a9c(%rip),%rsi        # 14811 <g_1017+0x751>
   12d75:	48 89 c7             	mov    %rax,%rdi
   12d78:	e8 76 49 ff ff       	callq  76f3 <transparent_crc>
   12d7d:	83 7d fc 00          	cmpl   $0x0,-0x4(%rbp)
   12d81:	74 16                	je     12d99 <main+0xf3>
   12d83:	8b 45 f0             	mov    -0x10(%rbp),%eax
   12d86:	89 c6                	mov    %eax,%esi
   12d88:	48 8d 3d 8a 1a 00 00 	lea    0x1a8a(%rip),%rdi        # 14819 <g_1017+0x759>
   12d8f:	b8 00 00 00 00       	mov    $0x0,%eax
   12d94:	e8 e7 32 ff ff       	callq  6080 <printf@plt>
   12d99:	83 45 f0 01          	addl   $0x1,-0x10(%rbp)
   12d9d:	83 7d f0 04          	cmpl   $0x4,-0x10(%rbp)
   12da1:	7e b0                	jle    12d53 <main+0xad>
   12da3:	c7 45 f0 00 00 00 00 	movl   $0x0,-0x10(%rbp)
   12daa:	e9 ae 00 00 00       	jmpq   12e5d <main+0x1b7>
   12daf:	c7 45 f4 00 00 00 00 	movl   $0x0,-0xc(%rbp)
   12db6:	e9 94 00 00 00       	jmpq   12e4f <main+0x1a9>
   12dbb:	c7 45 f8 00 00 00 00 	movl   $0x0,-0x8(%rbp)
   12dc2:	eb 7d                	jmp    12e41 <main+0x19b>
   12dc4:	8b 45 f8             	mov    -0x8(%rbp),%eax
   12dc7:	48 63 f0             	movslq %eax,%rsi
   12dca:	8b 45 f0             	mov    -0x10(%rbp),%eax
   12dcd:	48 63 d0             	movslq %eax,%rdx
   12dd0:	8b 45 f4             	mov    -0xc(%rbp),%eax
   12dd3:	48 63 c8             	movslq %eax,%rcx
   12dd6:	48 89 d0             	mov    %rdx,%rax
   12dd9:	48 01 c0             	add    %rax,%rax
   12ddc:	48 01 d0             	add    %rdx,%rax
   12ddf:	48 c1 e0 04          	shl    $0x4,%rax
   12de3:	48 01 d0             	add    %rdx,%rax
   12de6:	48 89 ca             	mov    %rcx,%rdx
   12de9:	48 c1 e2 03          	shl    $0x3,%rdx
   12ded:	48 29 ca             	sub    %rcx,%rdx
   12df0:	48 01 d0             	add    %rdx,%rax
   12df3:	48 01 f0             	add    %rsi,%rax
   12df6:	48 8d 14 00          	lea    (%rax,%rax,1),%rdx
   12dfa:	48 8d 05 3f 52 00 00 	lea    0x523f(%rip),%rax        # 18040 <g_77>
   12e01:	0f b7 04 02          	movzwl (%rdx,%rax,1),%eax
   12e05:	48 0f bf c0          	movswq %ax,%rax
   12e09:	8b 55 fc             	mov    -0x4(%rbp),%edx
   12e0c:	48 8d 35 14 1a 00 00 	lea    0x1a14(%rip),%rsi        # 14827 <g_1017+0x767>
   12e13:	48 89 c7             	mov    %rax,%rdi
   12e16:	e8 d8 48 ff ff       	callq  76f3 <transparent_crc>
   12e1b:	83 7d fc 00          	cmpl   $0x0,-0x4(%rbp)
   12e1f:	74 1c                	je     12e3d <main+0x197>
   12e21:	8b 4d f8             	mov    -0x8(%rbp),%ecx
   12e24:	8b 55 f4             	mov    -0xc(%rbp),%edx
   12e27:	8b 45 f0             	mov    -0x10(%rbp),%eax
   12e2a:	89 c6                	mov    %eax,%esi
   12e2c:	48 8d 3d 02 1a 00 00 	lea    0x1a02(%rip),%rdi        # 14835 <g_1017+0x775>
   12e33:	b8 00 00 00 00       	mov    $0x0,%eax
   12e38:	e8 43 32 ff ff       	callq  6080 <printf@plt>
   12e3d:	83 45 f8 01          	addl   $0x1,-0x8(%rbp)
   12e41:	83 7d f8 06          	cmpl   $0x6,-0x8(%rbp)
   12e45:	0f 8e 79 ff ff ff    	jle    12dc4 <main+0x11e>
   12e4b:	83 45 f4 01          	addl   $0x1,-0xc(%rbp)
   12e4f:	83 7d f4 06          	cmpl   $0x6,-0xc(%rbp)
   12e53:	0f 8e 62 ff ff ff    	jle    12dbb <main+0x115>
   12e59:	83 45 f0 01          	addl   $0x1,-0x10(%rbp)
   12e5d:	83 7d f0 03          	cmpl   $0x3,-0x10(%rbp)
   12e61:	0f 8e 48 ff ff ff    	jle    12daf <main+0x109>
   12e67:	0f b7 05 5a 53 00 00 	movzwl 0x535a(%rip),%eax        # 181c8 <g_79>
   12e6e:	48 0f bf c0          	movswq %ax,%rax
   12e72:	8b 55 fc             	mov    -0x4(%rbp),%edx
   12e75:	48 8d 35 cf 19 00 00 	lea    0x19cf(%rip),%rsi        # 1484b <g_1017+0x78b>
   12e7c:	48 89 c7             	mov    %rax,%rdi
   12e7f:	e8 6f 48 ff ff       	callq  76f3 <transparent_crc>
   12e84:	0f b6 05 3f 53 00 00 	movzbl 0x533f(%rip),%eax        # 181ca <g_95>
   12e8b:	0f b6 c0             	movzbl %al,%eax
   12e8e:	8b 55 fc             	mov    -0x4(%rbp),%edx
   12e91:	48 8d 35 b8 19 00 00 	lea    0x19b8(%rip),%rsi        # 14850 <g_1017+0x790>
   12e98:	48 89 c7             	mov    %rax,%rdi
   12e9b:	e8 53 48 ff ff       	callq  76f3 <transparent_crc>
   12ea0:	8b 05 26 53 00 00    	mov    0x5326(%rip),%eax        # 181cc <g_117>
   12ea6:	48 98                	cltq   
   12ea8:	8b 55 fc             	mov    -0x4(%rbp),%edx
   12eab:	48 8d 35 a3 19 00 00 	lea    0x19a3(%rip),%rsi        # 14855 <g_1017+0x795>
   12eb2:	48 89 c7             	mov    %rax,%rdi
   12eb5:	e8 39 48 ff ff       	callq  76f3 <transparent_crc>
   12eba:	0f b7 05 0f 53 00 00 	movzwl 0x530f(%rip),%eax        # 181d0 <g_125>
   12ec1:	0f b7 c0             	movzwl %ax,%eax
   12ec4:	8b 55 fc             	mov    -0x4(%rbp),%edx
   12ec7:	48 8d 35 8d 19 00 00 	lea    0x198d(%rip),%rsi        # 1485b <g_1017+0x79b>
   12ece:	48 89 c7             	mov    %rax,%rdi
   12ed1:	e8 1d 48 ff ff       	callq  76f3 <transparent_crc>
   12ed6:	0f b6 05 f5 52 00 00 	movzbl 0x52f5(%rip),%eax        # 181d2 <g_141>
   12edd:	48 0f be c0          	movsbq %al,%rax
   12ee1:	8b 55 fc             	mov    -0x4(%rbp),%edx
   12ee4:	48 8d 35 76 19 00 00 	lea    0x1976(%rip),%rsi        # 14861 <g_1017+0x7a1>
   12eeb:	48 89 c7             	mov    %rax,%rdi
   12eee:	e8 00 48 ff ff       	callq  76f3 <transparent_crc>
   12ef3:	c7 45 f0 00 00 00 00 	movl   $0x0,-0x10(%rbp)
   12efa:	e9 2c 01 00 00       	jmpq   1302b <main+0x385>
   12eff:	8b 45 f0             	mov    -0x10(%rbp),%eax
   12f02:	48 63 d0             	movslq %eax,%rdx
   12f05:	48 89 d0             	mov    %rdx,%rax
   12f08:	48 01 c0             	add    %rax,%rax
   12f0b:	48 01 d0             	add    %rdx,%rax
   12f0e:	48 c1 e0 03          	shl    $0x3,%rax
   12f12:	48 89 c2             	mov    %rax,%rdx
   12f15:	48 8d 05 c4 52 00 00 	lea    0x52c4(%rip),%rax        # 181e0 <g_206>
   12f1c:	8b 04 02             	mov    (%rdx,%rax,1),%eax
   12f1f:	89 c1                	mov    %eax,%ecx
   12f21:	8b 45 fc             	mov    -0x4(%rbp),%eax
   12f24:	89 c2                	mov    %eax,%edx
   12f26:	48 8d 35 3a 19 00 00 	lea    0x193a(%rip),%rsi        # 14867 <g_1017+0x7a7>
   12f2d:	48 89 cf             	mov    %rcx,%rdi
   12f30:	e8 be 47 ff ff       	callq  76f3 <transparent_crc>
   12f35:	8b 45 f0             	mov    -0x10(%rbp),%eax
   12f38:	48 63 d0             	movslq %eax,%rdx
   12f3b:	48 89 d0             	mov    %rdx,%rax
   12f3e:	48 01 c0             	add    %rax,%rax
   12f41:	48 01 d0             	add    %rdx,%rax
   12f44:	48 c1 e0 03          	shl    $0x3,%rax
   12f48:	48 89 c2             	mov    %rax,%rdx
   12f4b:	48 8d 05 92 52 00 00 	lea    0x5292(%rip),%rax        # 181e4 <g_206+0x4>
   12f52:	0f b7 04 02          	movzwl (%rdx,%rax,1),%eax
   12f56:	48 0f bf c0          	movswq %ax,%rax
   12f5a:	8b 55 fc             	mov    -0x4(%rbp),%edx
   12f5d:	48 8d 35 0f 19 00 00 	lea    0x190f(%rip),%rsi        # 14873 <g_1017+0x7b3>
   12f64:	48 89 c7             	mov    %rax,%rdi
   12f67:	e8 87 47 ff ff       	callq  76f3 <transparent_crc>
   12f6c:	8b 45 f0             	mov    -0x10(%rbp),%eax
   12f6f:	48 63 d0             	movslq %eax,%rdx
   12f72:	48 89 d0             	mov    %rdx,%rax
   12f75:	48 01 c0             	add    %rax,%rax
   12f78:	48 01 d0             	add    %rdx,%rax
   12f7b:	48 c1 e0 03          	shl    $0x3,%rax
   12f7f:	48 89 c2             	mov    %rax,%rdx
   12f82:	48 8d 05 5d 52 00 00 	lea    0x525d(%rip),%rax        # 181e6 <g_206+0x6>
   12f89:	0f b7 04 02          	movzwl (%rdx,%rax,1),%eax
   12f8d:	0f b7 c0             	movzwl %ax,%eax
   12f90:	8b 55 fc             	mov    -0x4(%rbp),%edx
   12f93:	48 8d 35 e5 18 00 00 	lea    0x18e5(%rip),%rsi        # 1487f <g_1017+0x7bf>
   12f9a:	48 89 c7             	mov    %rax,%rdi
   12f9d:	e8 51 47 ff ff       	callq  76f3 <transparent_crc>
   12fa2:	8b 45 f0             	mov    -0x10(%rbp),%eax
   12fa5:	48 63 d0             	movslq %eax,%rdx
   12fa8:	48 89 d0             	mov    %rdx,%rax
   12fab:	48 01 c0             	add    %rax,%rax
   12fae:	48 01 d0             	add    %rdx,%rax
   12fb1:	48 c1 e0 03          	shl    $0x3,%rax
   12fb5:	48 89 c2             	mov    %rax,%rdx
   12fb8:	48 8d 05 29 52 00 00 	lea    0x5229(%rip),%rax        # 181e8 <g_206+0x8>
   12fbf:	48 8b 04 02          	mov    (%rdx,%rax,1),%rax
   12fc3:	8b 55 fc             	mov    -0x4(%rbp),%edx
   12fc6:	48 8d 35 be 18 00 00 	lea    0x18be(%rip),%rsi        # 1488b <g_1017+0x7cb>
   12fcd:	48 89 c7             	mov    %rax,%rdi
   12fd0:	e8 1e 47 ff ff       	callq  76f3 <transparent_crc>
   12fd5:	8b 45 f0             	mov    -0x10(%rbp),%eax
   12fd8:	48 63 d0             	movslq %eax,%rdx
   12fdb:	48 89 d0             	mov    %rdx,%rax
   12fde:	48 01 c0             	add    %rax,%rax
   12fe1:	48 01 d0             	add    %rdx,%rax
   12fe4:	48 c1 e0 03          	shl    $0x3,%rax
   12fe8:	48 89 c2             	mov    %rax,%rdx
   12feb:	48 8d 05 fe 51 00 00 	lea    0x51fe(%rip),%rax        # 181f0 <g_206+0x10>
   12ff2:	0f b7 04 02          	movzwl (%rdx,%rax,1),%eax
   12ff6:	0f b7 c0             	movzwl %ax,%eax
   12ff9:	8b 55 fc             	mov    -0x4(%rbp),%edx
   12ffc:	48 8d 35 94 18 00 00 	lea    0x1894(%rip),%rsi        # 14897 <g_1017+0x7d7>
   13003:	48 89 c7             	mov    %rax,%rdi
   13006:	e8 e8 46 ff ff       	callq  76f3 <transparent_crc>
   1300b:	83 7d fc 00          	cmpl   $0x0,-0x4(%rbp)
   1300f:	74 16                	je     13027 <main+0x381>
   13011:	8b 45 f0             	mov    -0x10(%rbp),%eax
   13014:	89 c6                	mov    %eax,%esi
   13016:	48 8d 3d fc 17 00 00 	lea    0x17fc(%rip),%rdi        # 14819 <g_1017+0x759>
   1301d:	b8 00 00 00 00       	mov    $0x0,%eax
   13022:	e8 59 30 ff ff       	callq  6080 <printf@plt>
   13027:	83 45 f0 01          	addl   $0x1,-0x10(%rbp)
   1302b:	83 7d f0 04          	cmpl   $0x4,-0x10(%rbp)
   1302f:	0f 8e ca fe ff ff    	jle    12eff <main+0x259>
   13035:	48 8b 05 1c 52 00 00 	mov    0x521c(%rip),%rax        # 18258 <g_229>
   1303c:	48 89 c1             	mov    %rax,%rcx
   1303f:	8b 45 fc             	mov    -0x4(%rbp),%eax
   13042:	89 c2                	mov    %eax,%edx
   13044:	48 8d 35 58 18 00 00 	lea    0x1858(%rip),%rsi        # 148a3 <g_1017+0x7e3>
   1304b:	48 89 cf             	mov    %rcx,%rdi
   1304e:	e8 a0 46 ff ff       	callq  76f3 <transparent_crc>
   13053:	8b 05 07 52 00 00    	mov    0x5207(%rip),%eax        # 18260 <g_289>
   13059:	89 c1                	mov    %eax,%ecx
   1305b:	8b 45 fc             	mov    -0x4(%rbp),%eax
   1305e:	89 c2                	mov    %eax,%edx
   13060:	48 8d 35 42 18 00 00 	lea    0x1842(%rip),%rsi        # 148a9 <g_1017+0x7e9>
   13067:	48 89 cf             	mov    %rcx,%rdi
   1306a:	e8 84 46 ff ff       	callq  76f3 <transparent_crc>
   1306f:	0f b7 05 ee 51 00 00 	movzwl 0x51ee(%rip),%eax        # 18264 <g_327>
   13076:	48 0f bf c0          	movswq %ax,%rax
   1307a:	8b 55 fc             	mov    -0x4(%rbp),%edx
   1307d:	48 8d 35 2b 18 00 00 	lea    0x182b(%rip),%rsi        # 148af <g_1017+0x7ef>
   13084:	48 89 c7             	mov    %rax,%rdi
   13087:	e8 67 46 ff ff       	callq  76f3 <transparent_crc>
   1308c:	48 8b 05 d5 51 00 00 	mov    0x51d5(%rip),%rax        # 18268 <g_328>
   13093:	48 89 c1             	mov    %rax,%rcx
   13096:	8b 45 fc             	mov    -0x4(%rbp),%eax
   13099:	89 c2                	mov    %eax,%edx
   1309b:	48 8d 35 13 18 00 00 	lea    0x1813(%rip),%rsi        # 148b5 <g_1017+0x7f5>
   130a2:	48 89 cf             	mov    %rcx,%rdi
   130a5:	e8 49 46 ff ff       	callq  76f3 <transparent_crc>
   130aa:	8b 05 c0 51 00 00    	mov    0x51c0(%rip),%eax        # 18270 <g_342>
   130b0:	89 c1                	mov    %eax,%ecx
   130b2:	8b 45 fc             	mov    -0x4(%rbp),%eax
   130b5:	89 c2                	mov    %eax,%edx
   130b7:	48 8d 35 fd 17 00 00 	lea    0x17fd(%rip),%rsi        # 148bb <g_1017+0x7fb>
   130be:	48 89 cf             	mov    %rcx,%rdi
   130c1:	e8 2d 46 ff ff       	callq  76f3 <transparent_crc>
   130c6:	0f b7 05 a7 51 00 00 	movzwl 0x51a7(%rip),%eax        # 18274 <g_342+0x4>
   130cd:	48 0f bf c0          	movswq %ax,%rax
   130d1:	8b 55 fc             	mov    -0x4(%rbp),%edx
   130d4:	48 8d 35 e9 17 00 00 	lea    0x17e9(%rip),%rsi        # 148c4 <g_1017+0x804>
   130db:	48 89 c7             	mov    %rax,%rdi
   130de:	e8 10 46 ff ff       	callq  76f3 <transparent_crc>
   130e3:	0f b7 05 8c 51 00 00 	movzwl 0x518c(%rip),%eax        # 18276 <g_342+0x6>
   130ea:	0f b7 c0             	movzwl %ax,%eax
   130ed:	8b 55 fc             	mov    -0x4(%rbp),%edx
   130f0:	48 8d 35 d6 17 00 00 	lea    0x17d6(%rip),%rsi        # 148cd <g_1017+0x80d>
   130f7:	48 89 c7             	mov    %rax,%rdi
   130fa:	e8 f4 45 ff ff       	callq  76f3 <transparent_crc>
   130ff:	48 8b 05 72 51 00 00 	mov    0x5172(%rip),%rax        # 18278 <g_342+0x8>
   13106:	8b 55 fc             	mov    -0x4(%rbp),%edx
   13109:	48 8d 35 c6 17 00 00 	lea    0x17c6(%rip),%rsi        # 148d6 <g_1017+0x816>
   13110:	48 89 c7             	mov    %rax,%rdi
   13113:	e8 db 45 ff ff       	callq  76f3 <transparent_crc>
   13118:	0f b7 05 61 51 00 00 	movzwl 0x5161(%rip),%eax        # 18280 <g_342+0x10>
   1311f:	0f b7 c0             	movzwl %ax,%eax
   13122:	8b 55 fc             	mov    -0x4(%rbp),%edx
   13125:	48 8d 35 b3 17 00 00 	lea    0x17b3(%rip),%rsi        # 148df <g_1017+0x81f>
   1312c:	48 89 c7             	mov    %rax,%rdi
   1312f:	e8 bf 45 ff ff       	callq  76f3 <transparent_crc>
   13134:	8b 05 56 51 00 00    	mov    0x5156(%rip),%eax        # 18290 <g_371>
   1313a:	89 c1                	mov    %eax,%ecx
   1313c:	8b 45 fc             	mov    -0x4(%rbp),%eax
   1313f:	89 c2                	mov    %eax,%edx
   13141:	48 8d 35 a0 17 00 00 	lea    0x17a0(%rip),%rsi        # 148e8 <g_1017+0x828>
   13148:	48 89 cf             	mov    %rcx,%rdi
   1314b:	e8 a3 45 ff ff       	callq  76f3 <transparent_crc>
   13150:	0f b7 05 3d 51 00 00 	movzwl 0x513d(%rip),%eax        # 18294 <g_371+0x4>
   13157:	48 0f bf c0          	movswq %ax,%rax
   1315b:	8b 55 fc             	mov    -0x4(%rbp),%edx
   1315e:	48 8d 35 8c 17 00 00 	lea    0x178c(%rip),%rsi        # 148f1 <g_1017+0x831>
   13165:	48 89 c7             	mov    %rax,%rdi
   13168:	e8 86 45 ff ff       	callq  76f3 <transparent_crc>
   1316d:	0f b7 05 22 51 00 00 	movzwl 0x5122(%rip),%eax        # 18296 <g_371+0x6>
   13174:	0f b7 c0             	movzwl %ax,%eax
   13177:	8b 55 fc             	mov    -0x4(%rbp),%edx
   1317a:	48 8d 35 79 17 00 00 	lea    0x1779(%rip),%rsi        # 148fa <g_1017+0x83a>
   13181:	48 89 c7             	mov    %rax,%rdi
   13184:	e8 6a 45 ff ff       	callq  76f3 <transparent_crc>
   13189:	48 8b 05 08 51 00 00 	mov    0x5108(%rip),%rax        # 18298 <g_371+0x8>
   13190:	8b 55 fc             	mov    -0x4(%rbp),%edx
   13193:	48 8d 35 69 17 00 00 	lea    0x1769(%rip),%rsi        # 14903 <g_1017+0x843>
   1319a:	48 89 c7             	mov    %rax,%rdi
   1319d:	e8 51 45 ff ff       	callq  76f3 <transparent_crc>
   131a2:	0f b7 05 f7 50 00 00 	movzwl 0x50f7(%rip),%eax        # 182a0 <g_371+0x10>
   131a9:	0f b7 c0             	movzwl %ax,%eax
   131ac:	8b 55 fc             	mov    -0x4(%rbp),%edx
   131af:	48 8d 35 56 17 00 00 	lea    0x1756(%rip),%rsi        # 1490c <g_1017+0x84c>
   131b6:	48 89 c7             	mov    %rax,%rdi
   131b9:	e8 35 45 ff ff       	callq  76f3 <transparent_crc>
   131be:	8b 05 e4 50 00 00    	mov    0x50e4(%rip),%eax        # 182a8 <g_415>
   131c4:	48 98                	cltq   
   131c6:	8b 55 fc             	mov    -0x4(%rbp),%edx
   131c9:	48 8d 35 45 17 00 00 	lea    0x1745(%rip),%rsi        # 14915 <g_1017+0x855>
   131d0:	48 89 c7             	mov    %rax,%rdi
   131d3:	e8 1b 45 ff ff       	callq  76f3 <transparent_crc>
   131d8:	8b 05 d2 50 00 00    	mov    0x50d2(%rip),%eax        # 182b0 <g_473>
   131de:	89 c1                	mov    %eax,%ecx
   131e0:	8b 45 fc             	mov    -0x4(%rbp),%eax
   131e3:	89 c2                	mov    %eax,%edx
   131e5:	48 8d 35 2f 17 00 00 	lea    0x172f(%rip),%rsi        # 1491b <g_1017+0x85b>
   131ec:	48 89 cf             	mov    %rcx,%rdi
   131ef:	e8 ff 44 ff ff       	callq  76f3 <transparent_crc>
   131f4:	0f b7 05 b9 50 00 00 	movzwl 0x50b9(%rip),%eax        # 182b4 <g_473+0x4>
   131fb:	48 0f bf c0          	movswq %ax,%rax
   131ff:	8b 55 fc             	mov    -0x4(%rbp),%edx
   13202:	48 8d 35 1b 17 00 00 	lea    0x171b(%rip),%rsi        # 14924 <g_1017+0x864>
   13209:	48 89 c7             	mov    %rax,%rdi
   1320c:	e8 e2 44 ff ff       	callq  76f3 <transparent_crc>
   13211:	0f b7 05 9e 50 00 00 	movzwl 0x509e(%rip),%eax        # 182b6 <g_473+0x6>
   13218:	0f b7 c0             	movzwl %ax,%eax
   1321b:	8b 55 fc             	mov    -0x4(%rbp),%edx
   1321e:	48 8d 35 08 17 00 00 	lea    0x1708(%rip),%rsi        # 1492d <g_1017+0x86d>
   13225:	48 89 c7             	mov    %rax,%rdi
   13228:	e8 c6 44 ff ff       	callq  76f3 <transparent_crc>
   1322d:	48 8b 05 84 50 00 00 	mov    0x5084(%rip),%rax        # 182b8 <g_473+0x8>
   13234:	8b 55 fc             	mov    -0x4(%rbp),%edx
   13237:	48 8d 35 f8 16 00 00 	lea    0x16f8(%rip),%rsi        # 14936 <g_1017+0x876>
   1323e:	48 89 c7             	mov    %rax,%rdi
   13241:	e8 ad 44 ff ff       	callq  76f3 <transparent_crc>
   13246:	0f b7 05 73 50 00 00 	movzwl 0x5073(%rip),%eax        # 182c0 <g_473+0x10>
   1324d:	0f b7 c0             	movzwl %ax,%eax
   13250:	8b 55 fc             	mov    -0x4(%rbp),%edx
   13253:	48 8d 35 e5 16 00 00 	lea    0x16e5(%rip),%rsi        # 1493f <g_1017+0x87f>
   1325a:	48 89 c7             	mov    %rax,%rdi
   1325d:	e8 91 44 ff ff       	callq  76f3 <transparent_crc>
   13262:	0f b7 05 5f 50 00 00 	movzwl 0x505f(%rip),%eax        # 182c8 <g_496>
   13269:	48 0f bf c0          	movswq %ax,%rax
   1326d:	8b 55 fc             	mov    -0x4(%rbp),%edx
   13270:	48 8d 35 d1 16 00 00 	lea    0x16d1(%rip),%rsi        # 14948 <g_1017+0x888>
   13277:	48 89 c7             	mov    %rax,%rdi
   1327a:	e8 74 44 ff ff       	callq  76f3 <transparent_crc>
   1327f:	8b 05 4b 50 00 00    	mov    0x504b(%rip),%eax        # 182d0 <g_499>
   13285:	89 c1                	mov    %eax,%ecx
   13287:	8b 45 fc             	mov    -0x4(%rbp),%eax
   1328a:	89 c2                	mov    %eax,%edx
   1328c:	48 8d 35 bb 16 00 00 	lea    0x16bb(%rip),%rsi        # 1494e <g_1017+0x88e>
   13293:	48 89 cf             	mov    %rcx,%rdi
   13296:	e8 58 44 ff ff       	callq  76f3 <transparent_crc>
   1329b:	0f b7 05 32 50 00 00 	movzwl 0x5032(%rip),%eax        # 182d4 <g_499+0x4>
   132a2:	48 0f bf c0          	movswq %ax,%rax
   132a6:	8b 55 fc             	mov    -0x4(%rbp),%edx
   132a9:	48 8d 35 a7 16 00 00 	lea    0x16a7(%rip),%rsi        # 14957 <g_1017+0x897>
   132b0:	48 89 c7             	mov    %rax,%rdi
   132b3:	e8 3b 44 ff ff       	callq  76f3 <transparent_crc>
   132b8:	0f b7 05 17 50 00 00 	movzwl 0x5017(%rip),%eax        # 182d6 <g_499+0x6>
   132bf:	0f b7 c0             	movzwl %ax,%eax
   132c2:	8b 55 fc             	mov    -0x4(%rbp),%edx
   132c5:	48 8d 35 94 16 00 00 	lea    0x1694(%rip),%rsi        # 14960 <g_1017+0x8a0>
   132cc:	48 89 c7             	mov    %rax,%rdi
   132cf:	e8 1f 44 ff ff       	callq  76f3 <transparent_crc>
   132d4:	48 8b 05 fd 4f 00 00 	mov    0x4ffd(%rip),%rax        # 182d8 <g_499+0x8>
   132db:	8b 55 fc             	mov    -0x4(%rbp),%edx
   132de:	48 8d 35 84 16 00 00 	lea    0x1684(%rip),%rsi        # 14969 <g_1017+0x8a9>
   132e5:	48 89 c7             	mov    %rax,%rdi
   132e8:	e8 06 44 ff ff       	callq  76f3 <transparent_crc>
   132ed:	0f b7 05 ec 4f 00 00 	movzwl 0x4fec(%rip),%eax        # 182e0 <g_499+0x10>
   132f4:	0f b7 c0             	movzwl %ax,%eax
   132f7:	8b 55 fc             	mov    -0x4(%rbp),%edx
   132fa:	48 8d 35 71 16 00 00 	lea    0x1671(%rip),%rsi        # 14972 <g_1017+0x8b2>
   13301:	48 89 c7             	mov    %rax,%rdi
   13304:	e8 ea 43 ff ff       	callq  76f3 <transparent_crc>
   13309:	8b 05 e1 4f 00 00    	mov    0x4fe1(%rip),%eax        # 182f0 <g_502>
   1330f:	89 c1                	mov    %eax,%ecx
   13311:	8b 45 fc             	mov    -0x4(%rbp),%eax
   13314:	89 c2                	mov    %eax,%edx
   13316:	48 8d 35 5e 16 00 00 	lea    0x165e(%rip),%rsi        # 1497b <g_1017+0x8bb>
   1331d:	48 89 cf             	mov    %rcx,%rdi
   13320:	e8 ce 43 ff ff       	callq  76f3 <transparent_crc>
   13325:	0f b7 05 c8 4f 00 00 	movzwl 0x4fc8(%rip),%eax        # 182f4 <g_502+0x4>
   1332c:	48 0f bf c0          	movswq %ax,%rax
   13330:	8b 55 fc             	mov    -0x4(%rbp),%edx
   13333:	48 8d 35 4a 16 00 00 	lea    0x164a(%rip),%rsi        # 14984 <g_1017+0x8c4>
   1333a:	48 89 c7             	mov    %rax,%rdi
   1333d:	e8 b1 43 ff ff       	callq  76f3 <transparent_crc>
   13342:	0f b7 05 ad 4f 00 00 	movzwl 0x4fad(%rip),%eax        # 182f6 <g_502+0x6>
   13349:	0f b7 c0             	movzwl %ax,%eax
   1334c:	8b 55 fc             	mov    -0x4(%rbp),%edx
   1334f:	48 8d 35 37 16 00 00 	lea    0x1637(%rip),%rsi        # 1498d <g_1017+0x8cd>
   13356:	48 89 c7             	mov    %rax,%rdi
   13359:	e8 95 43 ff ff       	callq  76f3 <transparent_crc>
   1335e:	48 8b 05 93 4f 00 00 	mov    0x4f93(%rip),%rax        # 182f8 <g_502+0x8>
   13365:	8b 55 fc             	mov    -0x4(%rbp),%edx
   13368:	48 8d 35 27 16 00 00 	lea    0x1627(%rip),%rsi        # 14996 <g_1017+0x8d6>
   1336f:	48 89 c7             	mov    %rax,%rdi
   13372:	e8 7c 43 ff ff       	callq  76f3 <transparent_crc>
   13377:	0f b7 05 82 4f 00 00 	movzwl 0x4f82(%rip),%eax        # 18300 <g_502+0x10>
   1337e:	0f b7 c0             	movzwl %ax,%eax
   13381:	8b 55 fc             	mov    -0x4(%rbp),%edx
   13384:	48 8d 35 14 16 00 00 	lea    0x1614(%rip),%rsi        # 1499f <g_1017+0x8df>
   1338b:	48 89 c7             	mov    %rax,%rdi
   1338e:	e8 60 43 ff ff       	callq  76f3 <transparent_crc>
   13393:	8b 05 77 4f 00 00    	mov    0x4f77(%rip),%eax        # 18310 <g_597>
   13399:	89 c1                	mov    %eax,%ecx
   1339b:	8b 45 fc             	mov    -0x4(%rbp),%eax
   1339e:	89 c2                	mov    %eax,%edx
   133a0:	48 8d 35 01 16 00 00 	lea    0x1601(%rip),%rsi        # 149a8 <g_1017+0x8e8>
   133a7:	48 89 cf             	mov    %rcx,%rdi
   133aa:	e8 44 43 ff ff       	callq  76f3 <transparent_crc>
   133af:	0f b7 05 5e 4f 00 00 	movzwl 0x4f5e(%rip),%eax        # 18314 <g_597+0x4>
   133b6:	48 0f bf c0          	movswq %ax,%rax
   133ba:	8b 55 fc             	mov    -0x4(%rbp),%edx
   133bd:	48 8d 35 ed 15 00 00 	lea    0x15ed(%rip),%rsi        # 149b1 <g_1017+0x8f1>
   133c4:	48 89 c7             	mov    %rax,%rdi
   133c7:	e8 27 43 ff ff       	callq  76f3 <transparent_crc>
   133cc:	0f b7 05 43 4f 00 00 	movzwl 0x4f43(%rip),%eax        # 18316 <g_597+0x6>
   133d3:	0f b7 c0             	movzwl %ax,%eax
   133d6:	8b 55 fc             	mov    -0x4(%rbp),%edx
   133d9:	48 8d 35 da 15 00 00 	lea    0x15da(%rip),%rsi        # 149ba <g_1017+0x8fa>
   133e0:	48 89 c7             	mov    %rax,%rdi
   133e3:	e8 0b 43 ff ff       	callq  76f3 <transparent_crc>
   133e8:	48 8b 05 29 4f 00 00 	mov    0x4f29(%rip),%rax        # 18318 <g_597+0x8>
   133ef:	8b 55 fc             	mov    -0x4(%rbp),%edx
   133f2:	48 8d 35 ca 15 00 00 	lea    0x15ca(%rip),%rsi        # 149c3 <g_1017+0x903>
   133f9:	48 89 c7             	mov    %rax,%rdi
   133fc:	e8 f2 42 ff ff       	callq  76f3 <transparent_crc>
   13401:	0f b7 05 18 4f 00 00 	movzwl 0x4f18(%rip),%eax        # 18320 <g_597+0x10>
   13408:	0f b7 c0             	movzwl %ax,%eax
   1340b:	8b 55 fc             	mov    -0x4(%rbp),%edx
   1340e:	48 8d 35 b7 15 00 00 	lea    0x15b7(%rip),%rsi        # 149cc <g_1017+0x90c>
   13415:	48 89 c7             	mov    %rax,%rdi
   13418:	e8 d6 42 ff ff       	callq  76f3 <transparent_crc>
   1341d:	c7 45 f0 00 00 00 00 	movl   $0x0,-0x10(%rbp)
   13424:	eb 4b                	jmp    13471 <main+0x7cb>
   13426:	8b 45 f0             	mov    -0x10(%rbp),%eax
   13429:	48 98                	cltq   
   1342b:	48 8d 14 85 00 00 00 	lea    0x0(,%rax,4),%rdx
   13432:	00 
   13433:	48 8d 05 f6 4e 00 00 	lea    0x4ef6(%rip),%rax        # 18330 <g_624>
   1343a:	8b 04 02             	mov    (%rdx,%rax,1),%eax
   1343d:	48 98                	cltq   
   1343f:	8b 55 fc             	mov    -0x4(%rbp),%edx
   13442:	48 8d 35 8c 15 00 00 	lea    0x158c(%rip),%rsi        # 149d5 <g_1017+0x915>
   13449:	48 89 c7             	mov    %rax,%rdi
   1344c:	e8 a2 42 ff ff       	callq  76f3 <transparent_crc>
   13451:	83 7d fc 00          	cmpl   $0x0,-0x4(%rbp)
   13455:	74 16                	je     1346d <main+0x7c7>
   13457:	8b 45 f0             	mov    -0x10(%rbp),%eax
   1345a:	89 c6                	mov    %eax,%esi
   1345c:	48 8d 3d b6 13 00 00 	lea    0x13b6(%rip),%rdi        # 14819 <g_1017+0x759>
   13463:	b8 00 00 00 00       	mov    $0x0,%eax
   13468:	e8 13 2c ff ff       	callq  6080 <printf@plt>
   1346d:	83 45 f0 01          	addl   $0x1,-0x10(%rbp)
   13471:	83 7d f0 06          	cmpl   $0x6,-0x10(%rbp)
   13475:	7e af                	jle    13426 <main+0x780>
   13477:	48 8b 05 d2 4e 00 00 	mov    0x4ed2(%rip),%rax        # 18350 <g_627>
   1347e:	48 89 c1             	mov    %rax,%rcx
   13481:	8b 45 fc             	mov    -0x4(%rbp),%eax
   13484:	89 c2                	mov    %eax,%edx
   13486:	48 8d 35 51 15 00 00 	lea    0x1551(%rip),%rsi        # 149de <g_1017+0x91e>
   1348d:	48 89 cf             	mov    %rcx,%rdi
   13490:	e8 5e 42 ff ff       	callq  76f3 <transparent_crc>
   13495:	0f b6 05 bc 4e 00 00 	movzbl 0x4ebc(%rip),%eax        # 18358 <g_690>
   1349c:	0f b6 c0             	movzbl %al,%eax
   1349f:	8b 55 fc             	mov    -0x4(%rbp),%edx
   134a2:	48 8d 35 3b 15 00 00 	lea    0x153b(%rip),%rsi        # 149e4 <g_1017+0x924>
   134a9:	48 89 c7             	mov    %rax,%rdi
   134ac:	e8 42 42 ff ff       	callq  76f3 <transparent_crc>
   134b1:	48 8b 05 a8 4e 00 00 	mov    0x4ea8(%rip),%rax        # 18360 <g_692>
   134b8:	48 89 c1             	mov    %rax,%rcx
   134bb:	8b 45 fc             	mov    -0x4(%rbp),%eax
   134be:	89 c2                	mov    %eax,%edx
   134c0:	48 8d 35 23 15 00 00 	lea    0x1523(%rip),%rsi        # 149ea <g_1017+0x92a>
   134c7:	48 89 cf             	mov    %rcx,%rdi
   134ca:	e8 24 42 ff ff       	callq  76f3 <transparent_crc>
   134cf:	b8 af ed 83 cb       	mov    $0xcb83edaf,%eax
   134d4:	89 c1                	mov    %eax,%ecx
   134d6:	8b 45 fc             	mov    -0x4(%rbp),%eax
   134d9:	89 c2                	mov    %eax,%edx
   134db:	48 8d 35 0e 15 00 00 	lea    0x150e(%rip),%rsi        # 149f0 <g_1017+0x930>
   134e2:	48 89 cf             	mov    %rcx,%rdi
   134e5:	e8 09 42 ff ff       	callq  76f3 <transparent_crc>
   134ea:	0f b7 05 73 0b 00 00 	movzwl 0xb73(%rip),%eax        # 14064 <g_693+0x4>
   134f1:	48 0f bf c0          	movswq %ax,%rax
   134f5:	8b 55 fc             	mov    -0x4(%rbp),%edx
   134f8:	48 8d 35 fa 14 00 00 	lea    0x14fa(%rip),%rsi        # 149f9 <g_1017+0x939>
   134ff:	48 89 c7             	mov    %rax,%rdi
   13502:	e8 ec 41 ff ff       	callq  76f3 <transparent_crc>
   13507:	b8 df 37 00 00       	mov    $0x37df,%eax
   1350c:	0f b7 c0             	movzwl %ax,%eax
   1350f:	8b 55 fc             	mov    -0x4(%rbp),%edx
   13512:	48 8d 35 e9 14 00 00 	lea    0x14e9(%rip),%rsi        # 14a02 <g_1017+0x942>
   13519:	48 89 c7             	mov    %rax,%rdi
   1351c:	e8 d2 41 ff ff       	callq  76f3 <transparent_crc>
   13521:	48 b9 a7 85 b8 7e 9f 	movabs $0xa6ae129f7eb885a7,%rcx
   13528:	12 ae a6 
   1352b:	8b 45 fc             	mov    -0x4(%rbp),%eax
   1352e:	89 c2                	mov    %eax,%edx
   13530:	48 8d 35 d4 14 00 00 	lea    0x14d4(%rip),%rsi        # 14a0b <g_1017+0x94b>
   13537:	48 89 cf             	mov    %rcx,%rdi
   1353a:	e8 b4 41 ff ff       	callq  76f3 <transparent_crc>
   1353f:	b8 07 00 00 00       	mov    $0x7,%eax
   13544:	0f b7 c0             	movzwl %ax,%eax
   13547:	8b 55 fc             	mov    -0x4(%rbp),%edx
   1354a:	48 8d 35 c3 14 00 00 	lea    0x14c3(%rip),%rsi        # 14a14 <g_1017+0x954>
   13551:	48 89 c7             	mov    %rax,%rdi
   13554:	e8 9a 41 ff ff       	callq  76f3 <transparent_crc>
   13559:	c7 45 f0 00 00 00 00 	movl   $0x0,-0x10(%rbp)
   13560:	e9 2c 01 00 00       	jmpq   13691 <main+0x9eb>
   13565:	8b 45 f0             	mov    -0x10(%rbp),%eax
   13568:	48 63 d0             	movslq %eax,%rdx
   1356b:	48 89 d0             	mov    %rdx,%rax
   1356e:	48 01 c0             	add    %rax,%rax
   13571:	48 01 d0             	add    %rdx,%rax
   13574:	48 c1 e0 03          	shl    $0x3,%rax
   13578:	48 89 c2             	mov    %rax,%rdx
   1357b:	48 8d 05 fe 4d 00 00 	lea    0x4dfe(%rip),%rax        # 18380 <g_728>
   13582:	8b 04 02             	mov    (%rdx,%rax,1),%eax
   13585:	89 c1                	mov    %eax,%ecx
   13587:	8b 45 fc             	mov    -0x4(%rbp),%eax
   1358a:	89 c2                	mov    %eax,%edx
   1358c:	48 8d 35 8a 14 00 00 	lea    0x148a(%rip),%rsi        # 14a1d <g_1017+0x95d>
   13593:	48 89 cf             	mov    %rcx,%rdi
   13596:	e8 58 41 ff ff       	callq  76f3 <transparent_crc>
   1359b:	8b 45 f0             	mov    -0x10(%rbp),%eax
   1359e:	48 63 d0             	movslq %eax,%rdx
   135a1:	48 89 d0             	mov    %rdx,%rax
   135a4:	48 01 c0             	add    %rax,%rax
   135a7:	48 01 d0             	add    %rdx,%rax
   135aa:	48 c1 e0 03          	shl    $0x3,%rax
   135ae:	48 89 c2             	mov    %rax,%rdx
   135b1:	48 8d 05 cc 4d 00 00 	lea    0x4dcc(%rip),%rax        # 18384 <g_728+0x4>
   135b8:	0f b7 04 02          	movzwl (%rdx,%rax,1),%eax
   135bc:	48 0f bf c0          	movswq %ax,%rax
   135c0:	8b 55 fc             	mov    -0x4(%rbp),%edx
   135c3:	48 8d 35 5f 14 00 00 	lea    0x145f(%rip),%rsi        # 14a29 <g_1017+0x969>
   135ca:	48 89 c7             	mov    %rax,%rdi
   135cd:	e8 21 41 ff ff       	callq  76f3 <transparent_crc>
   135d2:	8b 45 f0             	mov    -0x10(%rbp),%eax
   135d5:	48 63 d0             	movslq %eax,%rdx
   135d8:	48 89 d0             	mov    %rdx,%rax
   135db:	48 01 c0             	add    %rax,%rax
   135de:	48 01 d0             	add    %rdx,%rax
   135e1:	48 c1 e0 03          	shl    $0x3,%rax
   135e5:	48 89 c2             	mov    %rax,%rdx
   135e8:	48 8d 05 97 4d 00 00 	lea    0x4d97(%rip),%rax        # 18386 <g_728+0x6>
   135ef:	0f b7 04 02          	movzwl (%rdx,%rax,1),%eax
   135f3:	0f b7 c0             	movzwl %ax,%eax
   135f6:	8b 55 fc             	mov    -0x4(%rbp),%edx
   135f9:	48 8d 35 35 14 00 00 	lea    0x1435(%rip),%rsi        # 14a35 <g_1017+0x975>
   13600:	48 89 c7             	mov    %rax,%rdi
   13603:	e8 eb 40 ff ff       	callq  76f3 <transparent_crc>
   13608:	8b 45 f0             	mov    -0x10(%rbp),%eax
   1360b:	48 63 d0             	movslq %eax,%rdx
   1360e:	48 89 d0             	mov    %rdx,%rax
   13611:	48 01 c0             	add    %rax,%rax
   13614:	48 01 d0             	add    %rdx,%rax
   13617:	48 c1 e0 03          	shl    $0x3,%rax
   1361b:	48 89 c2             	mov    %rax,%rdx
   1361e:	48 8d 05 63 4d 00 00 	lea    0x4d63(%rip),%rax        # 18388 <g_728+0x8>
   13625:	48 8b 04 02          	mov    (%rdx,%rax,1),%rax
   13629:	8b 55 fc             	mov    -0x4(%rbp),%edx
   1362c:	48 8d 35 0e 14 00 00 	lea    0x140e(%rip),%rsi        # 14a41 <g_1017+0x981>
   13633:	48 89 c7             	mov    %rax,%rdi
   13636:	e8 b8 40 ff ff       	callq  76f3 <transparent_crc>
   1363b:	8b 45 f0             	mov    -0x10(%rbp),%eax
   1363e:	48 63 d0             	movslq %eax,%rdx
   13641:	48 89 d0             	mov    %rdx,%rax
   13644:	48 01 c0             	add    %rax,%rax
   13647:	48 01 d0             	add    %rdx,%rax
   1364a:	48 c1 e0 03          	shl    $0x3,%rax
   1364e:	48 89 c2             	mov    %rax,%rdx
   13651:	48 8d 05 38 4d 00 00 	lea    0x4d38(%rip),%rax        # 18390 <g_728+0x10>
   13658:	0f b7 04 02          	movzwl (%rdx,%rax,1),%eax
   1365c:	0f b7 c0             	movzwl %ax,%eax
   1365f:	8b 55 fc             	mov    -0x4(%rbp),%edx
   13662:	48 8d 35 e4 13 00 00 	lea    0x13e4(%rip),%rsi        # 14a4d <g_1017+0x98d>
   13669:	48 89 c7             	mov    %rax,%rdi
   1366c:	e8 82 40 ff ff       	callq  76f3 <transparent_crc>
   13671:	83 7d fc 00          	cmpl   $0x0,-0x4(%rbp)
   13675:	74 16                	je     1368d <main+0x9e7>
   13677:	8b 45 f0             	mov    -0x10(%rbp),%eax
   1367a:	89 c6                	mov    %eax,%esi
   1367c:	48 8d 3d 96 11 00 00 	lea    0x1196(%rip),%rdi        # 14819 <g_1017+0x759>
   13683:	b8 00 00 00 00       	mov    $0x0,%eax
   13688:	e8 f3 29 ff ff       	callq  6080 <printf@plt>
   1368d:	83 45 f0 01          	addl   $0x1,-0x10(%rbp)
   13691:	83 7d f0 02          	cmpl   $0x2,-0x10(%rbp)
   13695:	0f 8e ca fe ff ff    	jle    13565 <main+0x8bf>
   1369b:	8b 05 2f 4d 00 00    	mov    0x4d2f(%rip),%eax        # 183d0 <g_730>
   136a1:	89 c1                	mov    %eax,%ecx
   136a3:	8b 45 fc             	mov    -0x4(%rbp),%eax
   136a6:	89 c2                	mov    %eax,%edx
   136a8:	48 8d 35 aa 13 00 00 	lea    0x13aa(%rip),%rsi        # 14a59 <g_1017+0x999>
   136af:	48 89 cf             	mov    %rcx,%rdi
   136b2:	e8 3c 40 ff ff       	callq  76f3 <transparent_crc>
   136b7:	0f b7 05 16 4d 00 00 	movzwl 0x4d16(%rip),%eax        # 183d4 <g_730+0x4>
   136be:	48 0f bf c0          	movswq %ax,%rax
   136c2:	8b 55 fc             	mov    -0x4(%rbp),%edx
   136c5:	48 8d 35 96 13 00 00 	lea    0x1396(%rip),%rsi        # 14a62 <g_1017+0x9a2>
   136cc:	48 89 c7             	mov    %rax,%rdi
   136cf:	e8 1f 40 ff ff       	callq  76f3 <transparent_crc>
   136d4:	0f b7 05 fb 4c 00 00 	movzwl 0x4cfb(%rip),%eax        # 183d6 <g_730+0x6>
   136db:	0f b7 c0             	movzwl %ax,%eax
   136de:	8b 55 fc             	mov    -0x4(%rbp),%edx
   136e1:	48 8d 35 83 13 00 00 	lea    0x1383(%rip),%rsi        # 14a6b <g_1017+0x9ab>
   136e8:	48 89 c7             	mov    %rax,%rdi
   136eb:	e8 03 40 ff ff       	callq  76f3 <transparent_crc>
   136f0:	48 8b 05 e1 4c 00 00 	mov    0x4ce1(%rip),%rax        # 183d8 <g_730+0x8>
   136f7:	8b 55 fc             	mov    -0x4(%rbp),%edx
   136fa:	48 8d 35 73 13 00 00 	lea    0x1373(%rip),%rsi        # 14a74 <g_1017+0x9b4>
   13701:	48 89 c7             	mov    %rax,%rdi
   13704:	e8 ea 3f ff ff       	callq  76f3 <transparent_crc>
   13709:	0f b7 05 d0 4c 00 00 	movzwl 0x4cd0(%rip),%eax        # 183e0 <g_730+0x10>
   13710:	0f b7 c0             	movzwl %ax,%eax
   13713:	8b 55 fc             	mov    -0x4(%rbp),%edx
   13716:	48 8d 35 60 13 00 00 	lea    0x1360(%rip),%rsi        # 14a7d <g_1017+0x9bd>
   1371d:	48 89 c7             	mov    %rax,%rdi
   13720:	e8 ce 3f ff ff       	callq  76f3 <transparent_crc>
   13725:	c7 45 f0 00 00 00 00 	movl   $0x0,-0x10(%rbp)
   1372c:	eb 4a                	jmp    13778 <main+0xad2>
   1372e:	8b 45 f0             	mov    -0x10(%rbp),%eax
   13731:	48 98                	cltq   
   13733:	48 8d 14 c5 00 00 00 	lea    0x0(,%rax,8),%rdx
   1373a:	00 
   1373b:	48 8d 05 3e 09 00 00 	lea    0x93e(%rip),%rax        # 14080 <g_760>
   13742:	48 8b 04 02          	mov    (%rdx,%rax,1),%rax
   13746:	8b 55 fc             	mov    -0x4(%rbp),%edx
   13749:	48 8d 35 36 13 00 00 	lea    0x1336(%rip),%rsi        # 14a86 <g_1017+0x9c6>
   13750:	48 89 c7             	mov    %rax,%rdi
   13753:	e8 9b 3f ff ff       	callq  76f3 <transparent_crc>
   13758:	83 7d fc 00          	cmpl   $0x0,-0x4(%rbp)
   1375c:	74 16                	je     13774 <main+0xace>
   1375e:	8b 45 f0             	mov    -0x10(%rbp),%eax
   13761:	89 c6                	mov    %eax,%esi
   13763:	48 8d 3d af 10 00 00 	lea    0x10af(%rip),%rdi        # 14819 <g_1017+0x759>
   1376a:	b8 00 00 00 00       	mov    $0x0,%eax
   1376f:	e8 0c 29 ff ff       	callq  6080 <printf@plt>
   13774:	83 45 f0 01          	addl   $0x1,-0x10(%rbp)
   13778:	83 7d f0 07          	cmpl   $0x7,-0x10(%rbp)
   1377c:	7e b0                	jle    1372e <main+0xa88>
   1377e:	8b 05 6c 4c 00 00    	mov    0x4c6c(%rip),%eax        # 183f0 <g_774>
   13784:	89 c1                	mov    %eax,%ecx
   13786:	8b 45 fc             	mov    -0x4(%rbp),%eax
   13789:	89 c2                	mov    %eax,%edx
   1378b:	48 8d 35 fd 12 00 00 	lea    0x12fd(%rip),%rsi        # 14a8f <g_1017+0x9cf>
   13792:	48 89 cf             	mov    %rcx,%rdi
   13795:	e8 59 3f ff ff       	callq  76f3 <transparent_crc>
   1379a:	0f b7 05 53 4c 00 00 	movzwl 0x4c53(%rip),%eax        # 183f4 <g_774+0x4>
   137a1:	48 0f bf c0          	movswq %ax,%rax
   137a5:	8b 55 fc             	mov    -0x4(%rbp),%edx
   137a8:	48 8d 35 e9 12 00 00 	lea    0x12e9(%rip),%rsi        # 14a98 <g_1017+0x9d8>
   137af:	48 89 c7             	mov    %rax,%rdi
   137b2:	e8 3c 3f ff ff       	callq  76f3 <transparent_crc>
   137b7:	0f b7 05 38 4c 00 00 	movzwl 0x4c38(%rip),%eax        # 183f6 <g_774+0x6>
   137be:	0f b7 c0             	movzwl %ax,%eax
   137c1:	8b 55 fc             	mov    -0x4(%rbp),%edx
   137c4:	48 8d 35 d6 12 00 00 	lea    0x12d6(%rip),%rsi        # 14aa1 <g_1017+0x9e1>
   137cb:	48 89 c7             	mov    %rax,%rdi
   137ce:	e8 20 3f ff ff       	callq  76f3 <transparent_crc>
   137d3:	48 8b 05 1e 4c 00 00 	mov    0x4c1e(%rip),%rax        # 183f8 <g_774+0x8>
   137da:	8b 55 fc             	mov    -0x4(%rbp),%edx
   137dd:	48 8d 35 c6 12 00 00 	lea    0x12c6(%rip),%rsi        # 14aaa <g_1017+0x9ea>
   137e4:	48 89 c7             	mov    %rax,%rdi
   137e7:	e8 07 3f ff ff       	callq  76f3 <transparent_crc>
   137ec:	0f b7 05 0d 4c 00 00 	movzwl 0x4c0d(%rip),%eax        # 18400 <g_774+0x10>
   137f3:	0f b7 c0             	movzwl %ax,%eax
   137f6:	8b 55 fc             	mov    -0x4(%rbp),%edx
   137f9:	48 8d 35 b3 12 00 00 	lea    0x12b3(%rip),%rsi        # 14ab3 <g_1017+0x9f3>
   13800:	48 89 c7             	mov    %rax,%rdi
   13803:	e8 eb 3e ff ff       	callq  76f3 <transparent_crc>
   13808:	0f b6 05 f9 4b 00 00 	movzbl 0x4bf9(%rip),%eax        # 18408 <g_793>
   1380f:	0f b6 c0             	movzbl %al,%eax
   13812:	8b 55 fc             	mov    -0x4(%rbp),%edx
   13815:	48 8d 35 a0 12 00 00 	lea    0x12a0(%rip),%rsi        # 14abc <g_1017+0x9fc>
   1381c:	48 89 c7             	mov    %rax,%rdi
   1381f:	e8 cf 3e ff ff       	callq  76f3 <transparent_crc>
   13824:	0f b7 05 df 4b 00 00 	movzwl 0x4bdf(%rip),%eax        # 1840a <g_794>
   1382b:	0f b7 c0             	movzwl %ax,%eax
   1382e:	8b 55 fc             	mov    -0x4(%rbp),%edx
   13831:	48 8d 35 8a 12 00 00 	lea    0x128a(%rip),%rsi        # 14ac2 <g_1017+0xa02>
   13838:	48 89 c7             	mov    %rax,%rdi
   1383b:	e8 b3 3e ff ff       	callq  76f3 <transparent_crc>
   13840:	48 8b 05 c1 7f 00 00 	mov    0x7fc1(%rip),%rax        # 1b808 <g_861>
   13847:	48 89 c1             	mov    %rax,%rcx
   1384a:	8b 45 fc             	mov    -0x4(%rbp),%eax
   1384d:	89 c2                	mov    %eax,%edx
   1384f:	48 8d 35 72 12 00 00 	lea    0x1272(%rip),%rsi        # 14ac8 <g_1017+0xa08>
   13856:	48 89 cf             	mov    %rcx,%rdi
   13859:	e8 95 3e ff ff       	callq  76f3 <transparent_crc>
   1385e:	8b 05 ac 4b 00 00    	mov    0x4bac(%rip),%eax        # 18410 <g_921>
   13864:	89 c1                	mov    %eax,%ecx
   13866:	8b 45 fc             	mov    -0x4(%rbp),%eax
   13869:	89 c2                	mov    %eax,%edx
   1386b:	48 8d 35 5c 12 00 00 	lea    0x125c(%rip),%rsi        # 14ace <g_1017+0xa0e>
   13872:	48 89 cf             	mov    %rcx,%rdi
   13875:	e8 79 3e ff ff       	callq  76f3 <transparent_crc>
   1387a:	0f b7 05 93 4b 00 00 	movzwl 0x4b93(%rip),%eax        # 18414 <g_921+0x4>
   13881:	48 0f bf c0          	movswq %ax,%rax
   13885:	8b 55 fc             	mov    -0x4(%rbp),%edx
   13888:	48 8d 35 48 12 00 00 	lea    0x1248(%rip),%rsi        # 14ad7 <g_1017+0xa17>
   1388f:	48 89 c7             	mov    %rax,%rdi
   13892:	e8 5c 3e ff ff       	callq  76f3 <transparent_crc>
   13897:	0f b7 05 78 4b 00 00 	movzwl 0x4b78(%rip),%eax        # 18416 <g_921+0x6>
   1389e:	0f b7 c0             	movzwl %ax,%eax
   138a1:	8b 55 fc             	mov    -0x4(%rbp),%edx
   138a4:	48 8d 35 35 12 00 00 	lea    0x1235(%rip),%rsi        # 14ae0 <g_1017+0xa20>
   138ab:	48 89 c7             	mov    %rax,%rdi
   138ae:	e8 40 3e ff ff       	callq  76f3 <transparent_crc>
   138b3:	48 8b 05 5e 4b 00 00 	mov    0x4b5e(%rip),%rax        # 18418 <g_921+0x8>
   138ba:	8b 55 fc             	mov    -0x4(%rbp),%edx
   138bd:	48 8d 35 25 12 00 00 	lea    0x1225(%rip),%rsi        # 14ae9 <g_1017+0xa29>
   138c4:	48 89 c7             	mov    %rax,%rdi
   138c7:	e8 27 3e ff ff       	callq  76f3 <transparent_crc>
   138cc:	0f b7 05 4d 4b 00 00 	movzwl 0x4b4d(%rip),%eax        # 18420 <g_921+0x10>
   138d3:	0f b7 c0             	movzwl %ax,%eax
   138d6:	8b 55 fc             	mov    -0x4(%rbp),%edx
   138d9:	48 8d 35 12 12 00 00 	lea    0x1212(%rip),%rsi        # 14af2 <g_1017+0xa32>
   138e0:	48 89 c7             	mov    %rax,%rdi
   138e3:	e8 0b 3e ff ff       	callq  76f3 <transparent_crc>
   138e8:	0f b7 05 39 4b 00 00 	movzwl 0x4b39(%rip),%eax        # 18428 <g_941>
   138ef:	0f b7 c0             	movzwl %ax,%eax
   138f2:	8b 55 fc             	mov    -0x4(%rbp),%edx
   138f5:	48 8d 35 ff 11 00 00 	lea    0x11ff(%rip),%rsi        # 14afb <g_1017+0xa3b>
   138fc:	48 89 c7             	mov    %rax,%rdi
   138ff:	e8 ef 3d ff ff       	callq  76f3 <transparent_crc>
   13904:	8b 05 26 4b 00 00    	mov    0x4b26(%rip),%eax        # 18430 <g_1012>
   1390a:	89 c1                	mov    %eax,%ecx
   1390c:	8b 45 fc             	mov    -0x4(%rbp),%eax
   1390f:	89 c2                	mov    %eax,%edx
   13911:	48 8d 35 e9 11 00 00 	lea    0x11e9(%rip),%rsi        # 14b01 <g_1017+0xa41>
   13918:	48 89 cf             	mov    %rcx,%rdi
   1391b:	e8 d3 3d ff ff       	callq  76f3 <transparent_crc>
   13920:	0f b7 05 0d 4b 00 00 	movzwl 0x4b0d(%rip),%eax        # 18434 <g_1012+0x4>
   13927:	48 0f bf c0          	movswq %ax,%rax
   1392b:	8b 55 fc             	mov    -0x4(%rbp),%edx
   1392e:	48 8d 35 d6 11 00 00 	lea    0x11d6(%rip),%rsi        # 14b0b <g_1017+0xa4b>
   13935:	48 89 c7             	mov    %rax,%rdi
   13938:	e8 b6 3d ff ff       	callq  76f3 <transparent_crc>
   1393d:	0f b7 05 f2 4a 00 00 	movzwl 0x4af2(%rip),%eax        # 18436 <g_1012+0x6>
   13944:	0f b7 c0             	movzwl %ax,%eax
   13947:	8b 55 fc             	mov    -0x4(%rbp),%edx
   1394a:	48 8d 35 c4 11 00 00 	lea    0x11c4(%rip),%rsi        # 14b15 <g_1017+0xa55>
   13951:	48 89 c7             	mov    %rax,%rdi
   13954:	e8 9a 3d ff ff       	callq  76f3 <transparent_crc>
   13959:	48 8b 05 d8 4a 00 00 	mov    0x4ad8(%rip),%rax        # 18438 <g_1012+0x8>
   13960:	8b 55 fc             	mov    -0x4(%rbp),%edx
   13963:	48 8d 35 b5 11 00 00 	lea    0x11b5(%rip),%rsi        # 14b1f <g_1017+0xa5f>
   1396a:	48 89 c7             	mov    %rax,%rdi
   1396d:	e8 81 3d ff ff       	callq  76f3 <transparent_crc>
   13972:	0f b7 05 c7 4a 00 00 	movzwl 0x4ac7(%rip),%eax        # 18440 <g_1012+0x10>
   13979:	0f b7 c0             	movzwl %ax,%eax
   1397c:	8b 55 fc             	mov    -0x4(%rbp),%edx
   1397f:	48 8d 35 a3 11 00 00 	lea    0x11a3(%rip),%rsi        # 14b29 <g_1017+0xa69>
   13986:	48 89 c7             	mov    %rax,%rdi
   13989:	e8 65 3d ff ff       	callq  76f3 <transparent_crc>
   1398e:	b8 e0 60 29 38       	mov    $0x382960e0,%eax
   13993:	89 c1                	mov    %eax,%ecx
   13995:	8b 45 fc             	mov    -0x4(%rbp),%eax
   13998:	89 c2                	mov    %eax,%edx
   1399a:	48 8d 35 92 11 00 00 	lea    0x1192(%rip),%rsi        # 14b33 <g_1017+0xa73>
   139a1:	48 89 cf             	mov    %rcx,%rdi
   139a4:	e8 4a 3d ff ff       	callq  76f3 <transparent_crc>
   139a9:	0f b7 05 14 07 00 00 	movzwl 0x714(%rip),%eax        # 140c4 <g_1017+0x4>
   139b0:	48 0f bf c0          	movswq %ax,%rax
   139b4:	8b 55 fc             	mov    -0x4(%rbp),%edx
   139b7:	48 8d 35 7f 11 00 00 	lea    0x117f(%rip),%rsi        # 14b3d <g_1017+0xa7d>
   139be:	48 89 c7             	mov    %rax,%rdi
   139c1:	e8 2d 3d ff ff       	callq  76f3 <transparent_crc>
   139c6:	b8 1e 48 00 00       	mov    $0x481e,%eax
   139cb:	0f b7 c0             	movzwl %ax,%eax
   139ce:	8b 55 fc             	mov    -0x4(%rbp),%edx
   139d1:	48 8d 35 6f 11 00 00 	lea    0x116f(%rip),%rsi        # 14b47 <g_1017+0xa87>
   139d8:	48 89 c7             	mov    %rax,%rdi
   139db:	e8 13 3d ff ff       	callq  76f3 <transparent_crc>
   139e0:	b9 08 00 00 00       	mov    $0x8,%ecx
   139e5:	8b 45 fc             	mov    -0x4(%rbp),%eax
   139e8:	89 c2                	mov    %eax,%edx
   139ea:	48 8d 35 60 11 00 00 	lea    0x1160(%rip),%rsi        # 14b51 <g_1017+0xa91>
   139f1:	48 89 cf             	mov    %rcx,%rdi
   139f4:	e8 fa 3c ff ff       	callq  76f3 <transparent_crc>
   139f9:	b8 07 00 00 00       	mov    $0x7,%eax
   139fe:	0f b7 c0             	movzwl %ax,%eax
   13a01:	8b 55 fc             	mov    -0x4(%rbp),%edx
   13a04:	48 8d 35 50 11 00 00 	lea    0x1150(%rip),%rsi        # 14b5b <g_1017+0xa9b>
   13a0b:	48 89 c7             	mov    %rax,%rdi
   13a0e:	e8 e0 3c ff ff       	callq  76f3 <transparent_crc>
   13a13:	c7 45 f0 00 00 00 00 	movl   $0x0,-0x10(%rbp)
   13a1a:	e9 5a 02 00 00       	jmpq   13c79 <main+0xfd3>
   13a1f:	c7 45 f4 00 00 00 00 	movl   $0x0,-0xc(%rbp)
   13a26:	e9 40 02 00 00       	jmpq   13c6b <main+0xfc5>
   13a2b:	c7 45 f8 00 00 00 00 	movl   $0x0,-0x8(%rbp)
   13a32:	e9 26 02 00 00       	jmpq   13c5d <main+0xfb7>
   13a37:	8b 45 f8             	mov    -0x8(%rbp),%eax
   13a3a:	48 98                	cltq   
   13a3c:	8b 55 f4             	mov    -0xc(%rbp),%edx
   13a3f:	48 63 f2             	movslq %edx,%rsi
   13a42:	8b 55 f0             	mov    -0x10(%rbp),%edx
   13a45:	48 63 ca             	movslq %edx,%rcx
   13a48:	48 89 c2             	mov    %rax,%rdx
   13a4b:	48 01 d2             	add    %rdx,%rdx
   13a4e:	48 01 c2             	add    %rax,%rdx
   13a51:	48 8d 04 d5 00 00 00 	lea    0x0(,%rdx,8),%rax
   13a58:	00 
   13a59:	48 89 c2             	mov    %rax,%rdx
   13a5c:	48 89 f0             	mov    %rsi,%rax
   13a5f:	48 01 c0             	add    %rax,%rax
   13a62:	48 01 f0             	add    %rsi,%rax
   13a65:	48 c1 e0 05          	shl    $0x5,%rax
   13a69:	48 01 c2             	add    %rax,%rdx
   13a6c:	48 89 c8             	mov    %rcx,%rax
   13a6f:	48 c1 e0 04          	shl    $0x4,%rax
   13a73:	48 29 c8             	sub    %rcx,%rax
   13a76:	48 c1 e0 05          	shl    $0x5,%rax
   13a7a:	48 01 c2             	add    %rax,%rdx
   13a7d:	48 8d 05 dc 49 00 00 	lea    0x49dc(%rip),%rax        # 18460 <g_1018>
   13a84:	48 01 d0             	add    %rdx,%rax
   13a87:	8b 00                	mov    (%rax),%eax
   13a89:	89 c1                	mov    %eax,%ecx
   13a8b:	8b 45 fc             	mov    -0x4(%rbp),%eax
   13a8e:	89 c2                	mov    %eax,%edx
   13a90:	48 8d 35 ce 10 00 00 	lea    0x10ce(%rip),%rsi        # 14b65 <g_1017+0xaa5>
   13a97:	48 89 cf             	mov    %rcx,%rdi
   13a9a:	e8 54 3c ff ff       	callq  76f3 <transparent_crc>
   13a9f:	8b 45 f8             	mov    -0x8(%rbp),%eax
   13aa2:	48 98                	cltq   
   13aa4:	8b 55 f4             	mov    -0xc(%rbp),%edx
   13aa7:	48 63 f2             	movslq %edx,%rsi
   13aaa:	8b 55 f0             	mov    -0x10(%rbp),%edx
   13aad:	48 63 ca             	movslq %edx,%rcx
   13ab0:	48 89 c2             	mov    %rax,%rdx
   13ab3:	48 01 d2             	add    %rdx,%rdx
   13ab6:	48 01 c2             	add    %rax,%rdx
   13ab9:	48 8d 04 d5 00 00 00 	lea    0x0(,%rdx,8),%rax
   13ac0:	00 
   13ac1:	48 89 c2             	mov    %rax,%rdx
   13ac4:	48 89 f0             	mov    %rsi,%rax
   13ac7:	48 01 c0             	add    %rax,%rax
   13aca:	48 01 f0             	add    %rsi,%rax
   13acd:	48 c1 e0 05          	shl    $0x5,%rax
   13ad1:	48 01 c2             	add    %rax,%rdx
   13ad4:	48 89 c8             	mov    %rcx,%rax
   13ad7:	48 c1 e0 04          	shl    $0x4,%rax
   13adb:	48 29 c8             	sub    %rcx,%rax
   13ade:	48 c1 e0 05          	shl    $0x5,%rax
   13ae2:	48 01 c2             	add    %rax,%rdx
   13ae5:	48 8d 05 78 49 00 00 	lea    0x4978(%rip),%rax        # 18464 <g_1018+0x4>
   13aec:	48 01 d0             	add    %rdx,%rax
   13aef:	0f b7 00             	movzwl (%rax),%eax
   13af2:	48 0f bf c0          	movswq %ax,%rax
   13af6:	8b 55 fc             	mov    -0x4(%rbp),%edx
   13af9:	48 8d 35 78 10 00 00 	lea    0x1078(%rip),%rsi        # 14b78 <g_1017+0xab8>
   13b00:	48 89 c7             	mov    %rax,%rdi
   13b03:	e8 eb 3b ff ff       	callq  76f3 <transparent_crc>
   13b08:	8b 45 f8             	mov    -0x8(%rbp),%eax
   13b0b:	48 98                	cltq   
   13b0d:	8b 55 f4             	mov    -0xc(%rbp),%edx
   13b10:	48 63 f2             	movslq %edx,%rsi
   13b13:	8b 55 f0             	mov    -0x10(%rbp),%edx
   13b16:	48 63 ca             	movslq %edx,%rcx
   13b19:	48 89 c2             	mov    %rax,%rdx
   13b1c:	48 01 d2             	add    %rdx,%rdx
   13b1f:	48 01 c2             	add    %rax,%rdx
   13b22:	48 8d 04 d5 00 00 00 	lea    0x0(,%rdx,8),%rax
   13b29:	00 
   13b2a:	48 89 c2             	mov    %rax,%rdx
   13b2d:	48 89 f0             	mov    %rsi,%rax
   13b30:	48 01 c0             	add    %rax,%rax
   13b33:	48 01 f0             	add    %rsi,%rax
   13b36:	48 c1 e0 05          	shl    $0x5,%rax
   13b3a:	48 01 c2             	add    %rax,%rdx
   13b3d:	48 89 c8             	mov    %rcx,%rax
   13b40:	48 c1 e0 04          	shl    $0x4,%rax
   13b44:	48 29 c8             	sub    %rcx,%rax
   13b47:	48 c1 e0 05          	shl    $0x5,%rax
   13b4b:	48 01 c2             	add    %rax,%rdx
   13b4e:	48 8d 05 11 49 00 00 	lea    0x4911(%rip),%rax        # 18466 <g_1018+0x6>
   13b55:	48 01 d0             	add    %rdx,%rax
   13b58:	0f b7 00             	movzwl (%rax),%eax
   13b5b:	0f b7 c0             	movzwl %ax,%eax
   13b5e:	8b 55 fc             	mov    -0x4(%rbp),%edx
   13b61:	48 8d 35 23 10 00 00 	lea    0x1023(%rip),%rsi        # 14b8b <g_1017+0xacb>
   13b68:	48 89 c7             	mov    %rax,%rdi
   13b6b:	e8 83 3b ff ff       	callq  76f3 <transparent_crc>
   13b70:	8b 45 f8             	mov    -0x8(%rbp),%eax
   13b73:	48 98                	cltq   
   13b75:	8b 55 f4             	mov    -0xc(%rbp),%edx
   13b78:	48 63 f2             	movslq %edx,%rsi
   13b7b:	8b 55 f0             	mov    -0x10(%rbp),%edx
   13b7e:	48 63 ca             	movslq %edx,%rcx
   13b81:	48 89 c2             	mov    %rax,%rdx
   13b84:	48 01 d2             	add    %rdx,%rdx
   13b87:	48 01 c2             	add    %rax,%rdx
   13b8a:	48 8d 04 d5 00 00 00 	lea    0x0(,%rdx,8),%rax
   13b91:	00 
   13b92:	48 89 c2             	mov    %rax,%rdx
   13b95:	48 89 f0             	mov    %rsi,%rax
   13b98:	48 01 c0             	add    %rax,%rax
   13b9b:	48 01 f0             	add    %rsi,%rax
   13b9e:	48 c1 e0 05          	shl    $0x5,%rax
   13ba2:	48 01 c2             	add    %rax,%rdx
   13ba5:	48 89 c8             	mov    %rcx,%rax
   13ba8:	48 c1 e0 04          	shl    $0x4,%rax
   13bac:	48 29 c8             	sub    %rcx,%rax
   13baf:	48 c1 e0 05          	shl    $0x5,%rax
   13bb3:	48 01 c2             	add    %rax,%rdx
   13bb6:	48 8d 05 ab 48 00 00 	lea    0x48ab(%rip),%rax        # 18468 <g_1018+0x8>
   13bbd:	48 01 d0             	add    %rdx,%rax
   13bc0:	48 8b 00             	mov    (%rax),%rax
   13bc3:	8b 55 fc             	mov    -0x4(%rbp),%edx
   13bc6:	48 8d 35 d1 0f 00 00 	lea    0xfd1(%rip),%rsi        # 14b9e <g_1017+0xade>
   13bcd:	48 89 c7             	mov    %rax,%rdi
   13bd0:	e8 1e 3b ff ff       	callq  76f3 <transparent_crc>
   13bd5:	8b 45 f8             	mov    -0x8(%rbp),%eax
   13bd8:	48 63 d0             	movslq %eax,%rdx
   13bdb:	8b 45 f4             	mov    -0xc(%rbp),%eax
   13bde:	48 63 c8             	movslq %eax,%rcx
   13be1:	8b 45 f0             	mov    -0x10(%rbp),%eax
   13be4:	48 63 f0             	movslq %eax,%rsi
   13be7:	48 89 d0             	mov    %rdx,%rax
   13bea:	48 01 c0             	add    %rax,%rax
   13bed:	48 01 d0             	add    %rdx,%rax
   13bf0:	48 c1 e0 03          	shl    $0x3,%rax
   13bf4:	48 89 f2             	mov    %rsi,%rdx
   13bf7:	48 c1 e2 04          	shl    $0x4,%rdx
   13bfb:	48 29 f2             	sub    %rsi,%rdx
   13bfe:	48 c1 e2 05          	shl    $0x5,%rdx
   13c02:	48 01 c2             	add    %rax,%rdx
   13c05:	48 89 c8             	mov    %rcx,%rax
   13c08:	48 01 c0             	add    %rax,%rax
   13c0b:	48 01 c8             	add    %rcx,%rax
   13c0e:	48 c1 e0 05          	shl    $0x5,%rax
   13c12:	48 01 c2             	add    %rax,%rdx
   13c15:	48 8d 05 54 48 00 00 	lea    0x4854(%rip),%rax        # 18470 <g_1018+0x10>
   13c1c:	48 01 d0             	add    %rdx,%rax
   13c1f:	0f b7 00             	movzwl (%rax),%eax
   13c22:	0f b7 c0             	movzwl %ax,%eax
   13c25:	8b 55 fc             	mov    -0x4(%rbp),%edx
   13c28:	48 8d 35 82 0f 00 00 	lea    0xf82(%rip),%rsi        # 14bb1 <g_1017+0xaf1>
   13c2f:	48 89 c7             	mov    %rax,%rdi
   13c32:	e8 bc 3a ff ff       	callq  76f3 <transparent_crc>
   13c37:	83 7d fc 00          	cmpl   $0x0,-0x4(%rbp)
   13c3b:	74 1c                	je     13c59 <main+0xfb3>
   13c3d:	8b 4d f8             	mov    -0x8(%rbp),%ecx
   13c40:	8b 55 f4             	mov    -0xc(%rbp),%edx
   13c43:	8b 45 f0             	mov    -0x10(%rbp),%eax
   13c46:	89 c6                	mov    %eax,%esi
   13c48:	48 8d 3d e6 0b 00 00 	lea    0xbe6(%rip),%rdi        # 14835 <g_1017+0x775>
   13c4f:	b8 00 00 00 00       	mov    $0x0,%eax
   13c54:	e8 27 24 ff ff       	callq  6080 <printf@plt>
   13c59:	83 45 f8 01          	addl   $0x1,-0x8(%rbp)
   13c5d:	83 7d f8 03          	cmpl   $0x3,-0x8(%rbp)
   13c61:	0f 8e d0 fd ff ff    	jle    13a37 <main+0xd91>
   13c67:	83 45 f4 01          	addl   $0x1,-0xc(%rbp)
   13c6b:	83 7d f4 04          	cmpl   $0x4,-0xc(%rbp)
   13c6f:	0f 8e b6 fd ff ff    	jle    13a2b <main+0xd85>
   13c75:	83 45 f0 01          	addl   $0x1,-0x10(%rbp)
   13c79:	83 7d f0 06          	cmpl   $0x6,-0x10(%rbp)
   13c7d:	0f 8e 9c fd ff ff    	jle    13a1f <main+0xd79>
   13c83:	8b 05 f7 54 00 00    	mov    0x54f7(%rip),%eax        # 19180 <g_1019>
   13c89:	89 c1                	mov    %eax,%ecx
   13c8b:	8b 45 fc             	mov    -0x4(%rbp),%eax
   13c8e:	89 c2                	mov    %eax,%edx
   13c90:	48 8d 35 2d 0f 00 00 	lea    0xf2d(%rip),%rsi        # 14bc4 <g_1017+0xb04>
   13c97:	48 89 cf             	mov    %rcx,%rdi
   13c9a:	e8 54 3a ff ff       	callq  76f3 <transparent_crc>
   13c9f:	0f b7 05 de 54 00 00 	movzwl 0x54de(%rip),%eax        # 19184 <g_1019+0x4>
   13ca6:	48 0f bf c0          	movswq %ax,%rax
   13caa:	8b 55 fc             	mov    -0x4(%rbp),%edx
   13cad:	48 8d 35 1a 0f 00 00 	lea    0xf1a(%rip),%rsi        # 14bce <g_1017+0xb0e>
   13cb4:	48 89 c7             	mov    %rax,%rdi
   13cb7:	e8 37 3a ff ff       	callq  76f3 <transparent_crc>
   13cbc:	0f b7 05 c3 54 00 00 	movzwl 0x54c3(%rip),%eax        # 19186 <g_1019+0x6>
   13cc3:	0f b7 c0             	movzwl %ax,%eax
   13cc6:	8b 55 fc             	mov    -0x4(%rbp),%edx
   13cc9:	48 8d 35 08 0f 00 00 	lea    0xf08(%rip),%rsi        # 14bd8 <g_1017+0xb18>
   13cd0:	48 89 c7             	mov    %rax,%rdi
   13cd3:	e8 1b 3a ff ff       	callq  76f3 <transparent_crc>
   13cd8:	48 8b 05 a9 54 00 00 	mov    0x54a9(%rip),%rax        # 19188 <g_1019+0x8>
   13cdf:	8b 55 fc             	mov    -0x4(%rbp),%edx
   13ce2:	48 8d 35 f9 0e 00 00 	lea    0xef9(%rip),%rsi        # 14be2 <g_1017+0xb22>
   13ce9:	48 89 c7             	mov    %rax,%rdi
   13cec:	e8 02 3a ff ff       	callq  76f3 <transparent_crc>
   13cf1:	0f b7 05 98 54 00 00 	movzwl 0x5498(%rip),%eax        # 19190 <g_1019+0x10>
   13cf8:	0f b7 c0             	movzwl %ax,%eax
   13cfb:	8b 55 fc             	mov    -0x4(%rbp),%edx
   13cfe:	48 8d 35 e7 0e 00 00 	lea    0xee7(%rip),%rsi        # 14bec <g_1017+0xb2c>
   13d05:	48 89 c7             	mov    %rax,%rdi
   13d08:	e8 e6 39 ff ff       	callq  76f3 <transparent_crc>
   13d0d:	c7 45 f0 00 00 00 00 	movl   $0x0,-0x10(%rbp)
   13d14:	eb 46                	jmp    13d5c <main+0x10b6>
   13d16:	8b 45 f0             	mov    -0x10(%rbp),%eax
   13d19:	48 98                	cltq   
   13d1b:	48 8d 15 76 54 00 00 	lea    0x5476(%rip),%rdx        # 19198 <g_1104>
   13d22:	0f b6 04 10          	movzbl (%rax,%rdx,1),%eax
   13d26:	48 0f be c0          	movsbq %al,%rax
   13d2a:	8b 55 fc             	mov    -0x4(%rbp),%edx
   13d2d:	48 8d 35 c2 0e 00 00 	lea    0xec2(%rip),%rsi        # 14bf6 <g_1017+0xb36>
   13d34:	48 89 c7             	mov    %rax,%rdi
   13d37:	e8 b7 39 ff ff       	callq  76f3 <transparent_crc>
   13d3c:	83 7d fc 00          	cmpl   $0x0,-0x4(%rbp)
   13d40:	74 16                	je     13d58 <main+0x10b2>
   13d42:	8b 45 f0             	mov    -0x10(%rbp),%eax
   13d45:	89 c6                	mov    %eax,%esi
   13d47:	48 8d 3d cb 0a 00 00 	lea    0xacb(%rip),%rdi        # 14819 <g_1017+0x759>
   13d4e:	b8 00 00 00 00       	mov    $0x0,%eax
   13d53:	e8 28 23 ff ff       	callq  6080 <printf@plt>
   13d58:	83 45 f0 01          	addl   $0x1,-0x10(%rbp)
   13d5c:	83 7d f0 01          	cmpl   $0x1,-0x10(%rbp)
   13d60:	7e b4                	jle    13d16 <main+0x1070>
   13d62:	8b 05 38 54 00 00    	mov    0x5438(%rip),%eax        # 191a0 <g_1347>
   13d68:	89 c1                	mov    %eax,%ecx
   13d6a:	8b 45 fc             	mov    -0x4(%rbp),%eax
   13d6d:	89 c2                	mov    %eax,%edx
   13d6f:	48 8d 35 8a 0e 00 00 	lea    0xe8a(%rip),%rsi        # 14c00 <g_1017+0xb40>
   13d76:	48 89 cf             	mov    %rcx,%rdi
   13d79:	e8 75 39 ff ff       	callq  76f3 <transparent_crc>
   13d7e:	0f b7 05 1f 54 00 00 	movzwl 0x541f(%rip),%eax        # 191a4 <g_1347+0x4>
   13d85:	48 0f bf c0          	movswq %ax,%rax
   13d89:	8b 55 fc             	mov    -0x4(%rbp),%edx
   13d8c:	48 8d 35 77 0e 00 00 	lea    0xe77(%rip),%rsi        # 14c0a <g_1017+0xb4a>
   13d93:	48 89 c7             	mov    %rax,%rdi
   13d96:	e8 58 39 ff ff       	callq  76f3 <transparent_crc>
   13d9b:	0f b7 05 04 54 00 00 	movzwl 0x5404(%rip),%eax        # 191a6 <g_1347+0x6>
   13da2:	0f b7 c0             	movzwl %ax,%eax
   13da5:	8b 55 fc             	mov    -0x4(%rbp),%edx
   13da8:	48 8d 35 65 0e 00 00 	lea    0xe65(%rip),%rsi        # 14c14 <g_1017+0xb54>
   13daf:	48 89 c7             	mov    %rax,%rdi
   13db2:	e8 3c 39 ff ff       	callq  76f3 <transparent_crc>
   13db7:	48 8b 05 ea 53 00 00 	mov    0x53ea(%rip),%rax        # 191a8 <g_1347+0x8>
   13dbe:	8b 55 fc             	mov    -0x4(%rbp),%edx
   13dc1:	48 8d 35 56 0e 00 00 	lea    0xe56(%rip),%rsi        # 14c1e <g_1017+0xb5e>
   13dc8:	48 89 c7             	mov    %rax,%rdi
   13dcb:	e8 23 39 ff ff       	callq  76f3 <transparent_crc>
   13dd0:	0f b7 05 d9 53 00 00 	movzwl 0x53d9(%rip),%eax        # 191b0 <g_1347+0x10>
   13dd7:	0f b7 c0             	movzwl %ax,%eax
   13dda:	8b 55 fc             	mov    -0x4(%rbp),%edx
   13ddd:	48 8d 35 44 0e 00 00 	lea    0xe44(%rip),%rsi        # 14c28 <g_1017+0xb68>
   13de4:	48 89 c7             	mov    %rax,%rdi
   13de7:	e8 07 39 ff ff       	callq  76f3 <transparent_crc>
   13dec:	0f b7 05 25 7a 00 00 	movzwl 0x7a25(%rip),%eax        # 1b818 <g_1461>
   13df3:	48 0f bf c0          	movswq %ax,%rax
   13df7:	8b 55 fc             	mov    -0x4(%rbp),%edx
   13dfa:	48 8d 35 31 0e 00 00 	lea    0xe31(%rip),%rsi        # 14c32 <g_1017+0xb72>
   13e01:	48 89 c7             	mov    %rax,%rdi
   13e04:	e8 ea 38 ff ff       	callq  76f3 <transparent_crc>
   13e09:	8b 05 11 42 00 00    	mov    0x4211(%rip),%eax        # 18020 <crc32_context>
   13e0f:	f7 d0                	not    %eax
   13e11:	89 c2                	mov    %eax,%edx
   13e13:	8b 45 fc             	mov    -0x4(%rbp),%eax
   13e16:	89 c6                	mov    %eax,%esi
   13e18:	89 d7                	mov    %edx,%edi
   13e1a:	e8 75 23 ff ff       	callq  6194 <platform_main_end>
   13e1f:	b8 00 00 00 00       	mov    $0x0,%eax
   13e24:	c9                   	leaveq 
   13e25:	c3                   	retq   
   13e26:	66 2e 0f 1f 84 00 00 	nopw   %cs:0x0(%rax,%rax,1)
   13e2d:	00 00 00 

0000000000013e30 <__libc_csu_init>:
   13e30:	f3 0f 1e fa          	endbr64 
   13e34:	41 57                	push   %r15
   13e36:	4c 8d 3d f3 3d 00 00 	lea    0x3df3(%rip),%r15        # 17c30 <__frame_dummy_init_array_entry>
   13e3d:	41 56                	push   %r14
   13e3f:	49 89 d6             	mov    %rdx,%r14
   13e42:	41 55                	push   %r13
   13e44:	49 89 f5             	mov    %rsi,%r13
   13e47:	41 54                	push   %r12
   13e49:	41 89 fc             	mov    %edi,%r12d
   13e4c:	55                   	push   %rbp
   13e4d:	48 8d 2d e4 3d 00 00 	lea    0x3de4(%rip),%rbp        # 17c38 <__do_global_dtors_aux_fini_array_entry>
   13e54:	53                   	push   %rbx
   13e55:	4c 29 fd             	sub    %r15,%rbp
   13e58:	48 83 ec 08          	sub    $0x8,%rsp
   13e5c:	e8 9f 21 ff ff       	callq  6000 <_init>
   13e61:	48 c1 fd 03          	sar    $0x3,%rbp
   13e65:	74 1f                	je     13e86 <__libc_csu_init+0x56>
   13e67:	31 db                	xor    %ebx,%ebx
   13e69:	0f 1f 80 00 00 00 00 	nopl   0x0(%rax)
   13e70:	4c 89 f2             	mov    %r14,%rdx
   13e73:	4c 89 ee             	mov    %r13,%rsi
   13e76:	44 89 e7             	mov    %r12d,%edi
   13e79:	41 ff 14 df          	callq  *(%r15,%rbx,8)
   13e7d:	48 83 c3 01          	add    $0x1,%rbx
   13e81:	48 39 dd             	cmp    %rbx,%rbp
   13e84:	75 ea                	jne    13e70 <__libc_csu_init+0x40>
   13e86:	48 83 c4 08          	add    $0x8,%rsp
   13e8a:	5b                   	pop    %rbx
   13e8b:	5d                   	pop    %rbp
   13e8c:	41 5c                	pop    %r12
   13e8e:	41 5d                	pop    %r13
   13e90:	41 5e                	pop    %r14
   13e92:	41 5f                	pop    %r15
   13e94:	c3                   	retq   
   13e95:	66 66 2e 0f 1f 84 00 	data16 nopw %cs:0x0(%rax,%rax,1)
   13e9c:	00 00 00 00 

0000000000013ea0 <__libc_csu_fini>:
   13ea0:	f3 0f 1e fa          	endbr64 
   13ea4:	c3                   	retq   
