


Disassembly of section .text:

00000000000090a0 <_start>:
    90a0:	f3 0f 1e fa          	endbr64 
    90a4:	31 ed                	xor    %ebp,%ebp
    90a6:	49 89 d1             	mov    %rdx,%r9
    90a9:	5e                   	pop    %rsi
    90aa:	48 89 e2             	mov    %rsp,%rdx
    90ad:	48 83 e4 f0          	and    $0xfffffffffffffff0,%rsp
    90b1:	50                   	push   %rax
    90b2:	54                   	push   %rsp
    90b3:	4c 8d 05 46 c1 00 00 	lea    0xc146(%rip),%r8        # 15200 <__libc_csu_fini>
    90ba:	48 8d 0d cf c0 00 00 	lea    0xc0cf(%rip),%rcx        # 15190 <__libc_csu_init>
    90c1:	48 8d 3d 6e a6 00 00 	lea    0xa66e(%rip),%rdi        # 13736 <main>
    90c8:	ff 15 02 0f 01 00    	callq  *0x10f02(%rip)        # 19fd0 <__libc_start_main@GLIBC_2.2.5>
    90ce:	f4                   	hlt    
    90cf:	90                   	nop

00000000000090d0 <deregister_tm_clones>:
    90d0:	48 8d 3d 49 53 01 00 	lea    0x15349(%rip),%rdi        # 1e420 <__TMC_END__>
    90d7:	48 8d 05 42 53 01 00 	lea    0x15342(%rip),%rax        # 1e420 <__TMC_END__>
    90de:	48 39 f8             	cmp    %rdi,%rax
    90e1:	74 15                	je     90f8 <deregister_tm_clones+0x28>
    90e3:	48 8b 05 de 0e 01 00 	mov    0x10ede(%rip),%rax        # 19fc8 <_ITM_deregisterTMCloneTable>
    90ea:	48 85 c0             	test   %rax,%rax
    90ed:	74 09                	je     90f8 <deregister_tm_clones+0x28>
    90ef:	ff e0                	jmpq   *%rax
    90f1:	0f 1f 80 00 00 00 00 	nopl   0x0(%rax)
    90f8:	c3                   	retq   
    90f9:	0f 1f 80 00 00 00 00 	nopl   0x0(%rax)

0000000000009100 <register_tm_clones>:
    9100:	48 8d 3d 19 53 01 00 	lea    0x15319(%rip),%rdi        # 1e420 <__TMC_END__>
    9107:	48 8d 35 12 53 01 00 	lea    0x15312(%rip),%rsi        # 1e420 <__TMC_END__>
    910e:	48 29 fe             	sub    %rdi,%rsi
    9111:	48 89 f0             	mov    %rsi,%rax
    9114:	48 c1 ee 3f          	shr    $0x3f,%rsi
    9118:	48 c1 f8 03          	sar    $0x3,%rax
    911c:	48 01 c6             	add    %rax,%rsi
    911f:	48 d1 fe             	sar    %rsi
    9122:	74 14                	je     9138 <register_tm_clones+0x38>
    9124:	48 8b 05 b5 0e 01 00 	mov    0x10eb5(%rip),%rax        # 19fe0 <_ITM_registerTMCloneTable>
    912b:	48 85 c0             	test   %rax,%rax
    912e:	74 08                	je     9138 <register_tm_clones+0x38>
    9130:	ff e0                	jmpq   *%rax
    9132:	66 0f 1f 44 00 00    	nopw   0x0(%rax,%rax,1)
    9138:	c3                   	retq   
    9139:	0f 1f 80 00 00 00 00 	nopl   0x0(%rax)

0000000000009140 <__do_global_dtors_aux>:
    9140:	f3 0f 1e fa          	endbr64 
    9144:	80 3d d5 52 01 00 00 	cmpb   $0x0,0x152d5(%rip)        # 1e420 <__TMC_END__>
    914b:	75 2b                	jne    9178 <__do_global_dtors_aux+0x38>
    914d:	55                   	push   %rbp
    914e:	48 83 3d 92 0e 01 00 	cmpq   $0x0,0x10e92(%rip)        # 19fe8 <__cxa_finalize@GLIBC_2.2.5>
    9155:	00 
    9156:	48 89 e5             	mov    %rsp,%rbp
    9159:	74 0c                	je     9167 <__do_global_dtors_aux+0x27>
    915b:	48 8b 3d a6 0e 01 00 	mov    0x10ea6(%rip),%rdi        # 1a008 <__dso_handle>
    9162:	e8 f9 fe ff ff       	callq  9060 <__cxa_finalize@plt>
    9167:	e8 64 ff ff ff       	callq  90d0 <deregister_tm_clones>
    916c:	c6 05 ad 52 01 00 01 	movb   $0x1,0x152ad(%rip)        # 1e420 <__TMC_END__>
    9173:	5d                   	pop    %rbp
    9174:	c3                   	retq   
    9175:	0f 1f 00             	nopl   (%rax)
    9178:	c3                   	retq   
    9179:	0f 1f 80 00 00 00 00 	nopl   0x0(%rax)

0000000000009180 <frame_dummy>:
    9180:	f3 0f 1e fa          	endbr64 
    9184:	e9 77 ff ff ff       	jmpq   9100 <register_tm_clones>

0000000000009189 <platform_main_begin>:
    9189:	f3 0f 1e fa          	endbr64 
    918d:	55                   	push   %rbp
    918e:	48 89 e5             	mov    %rsp,%rbp
    9191:	90                   	nop
    9192:	5d                   	pop    %rbp
    9193:	c3                   	retq   

0000000000009194 <platform_main_end>:
    9194:	f3 0f 1e fa          	endbr64 
    9198:	55                   	push   %rbp
    9199:	48 89 e5             	mov    %rsp,%rbp
    919c:	48 83 ec 10          	sub    $0x10,%rsp
    91a0:	89 7d fc             	mov    %edi,-0x4(%rbp)
    91a3:	89 75 f8             	mov    %esi,-0x8(%rbp)
    91a6:	8b 45 fc             	mov    -0x4(%rbp),%eax
    91a9:	89 c6                	mov    %eax,%esi
    91ab:	48 8d 3d 6e ce 00 00 	lea    0xce6e(%rip),%rdi        # 16020 <_IO_stdin_used+0x20>
    91b2:	b8 00 00 00 00       	mov    $0x0,%eax
    91b7:	e8 c4 fe ff ff       	callq  9080 <printf@plt>
    91bc:	90                   	nop
    91bd:	c9                   	leaveq 
    91be:	c3                   	retq   

00000000000091bf <safe_unary_minus_func_int8_t_s>:
    91bf:	f3 0f 1e fa          	endbr64 
    91c3:	55                   	push   %rbp
    91c4:	48 89 e5             	mov    %rsp,%rbp
    91c7:	89 f8                	mov    %edi,%eax
    91c9:	88 45 fc             	mov    %al,-0x4(%rbp)
    91cc:	0f b6 45 fc          	movzbl -0x4(%rbp),%eax
    91d0:	f7 d8                	neg    %eax
    91d2:	5d                   	pop    %rbp
    91d3:	c3                   	retq   

00000000000091d4 <safe_add_func_int8_t_s_s>:
    91d4:	f3 0f 1e fa          	endbr64 
    91d8:	55                   	push   %rbp
    91d9:	48 89 e5             	mov    %rsp,%rbp
    91dc:	89 fa                	mov    %edi,%edx
    91de:	89 f0                	mov    %esi,%eax
    91e0:	88 55 fc             	mov    %dl,-0x4(%rbp)
    91e3:	88 45 f8             	mov    %al,-0x8(%rbp)
    91e6:	0f b6 55 fc          	movzbl -0x4(%rbp),%edx
    91ea:	0f b6 45 f8          	movzbl -0x8(%rbp),%eax
    91ee:	01 d0                	add    %edx,%eax
    91f0:	5d                   	pop    %rbp
    91f1:	c3                   	retq   

00000000000091f2 <safe_sub_func_int8_t_s_s>:
    91f2:	f3 0f 1e fa          	endbr64 
    91f6:	55                   	push   %rbp
    91f7:	48 89 e5             	mov    %rsp,%rbp
    91fa:	89 fa                	mov    %edi,%edx
    91fc:	89 f0                	mov    %esi,%eax
    91fe:	88 55 fc             	mov    %dl,-0x4(%rbp)
    9201:	88 45 f8             	mov    %al,-0x8(%rbp)
    9204:	0f b6 55 fc          	movzbl -0x4(%rbp),%edx
    9208:	0f b6 45 f8          	movzbl -0x8(%rbp),%eax
    920c:	29 c2                	sub    %eax,%edx
    920e:	89 d0                	mov    %edx,%eax
    9210:	5d                   	pop    %rbp
    9211:	c3                   	retq   

0000000000009212 <safe_mul_func_int8_t_s_s>:
    9212:	f3 0f 1e fa          	endbr64 
    9216:	55                   	push   %rbp
    9217:	48 89 e5             	mov    %rsp,%rbp
    921a:	89 fa                	mov    %edi,%edx
    921c:	89 f0                	mov    %esi,%eax
    921e:	88 55 fc             	mov    %dl,-0x4(%rbp)
    9221:	88 45 f8             	mov    %al,-0x8(%rbp)
    9224:	0f b6 45 fc          	movzbl -0x4(%rbp),%eax
    9228:	0f b6 55 f8          	movzbl -0x8(%rbp),%edx
    922c:	0f af c2             	imul   %edx,%eax
    922f:	5d                   	pop    %rbp
    9230:	c3                   	retq   

0000000000009231 <safe_mod_func_int8_t_s_s>:
    9231:	f3 0f 1e fa          	endbr64 
    9235:	55                   	push   %rbp
    9236:	48 89 e5             	mov    %rsp,%rbp
    9239:	89 fa                	mov    %edi,%edx
    923b:	89 f0                	mov    %esi,%eax
    923d:	88 55 fc             	mov    %dl,-0x4(%rbp)
    9240:	88 45 f8             	mov    %al,-0x8(%rbp)
    9243:	80 7d f8 00          	cmpb   $0x0,-0x8(%rbp)
    9247:	74 1b                	je     9264 <safe_mod_func_int8_t_s_s+0x33>
    9249:	80 7d fc 80          	cmpb   $0x80,-0x4(%rbp)
    924d:	75 06                	jne    9255 <safe_mod_func_int8_t_s_s+0x24>
    924f:	80 7d f8 ff          	cmpb   $0xff,-0x8(%rbp)
    9253:	74 0f                	je     9264 <safe_mod_func_int8_t_s_s+0x33>
    9255:	0f be 45 fc          	movsbl -0x4(%rbp),%eax
    9259:	0f be 4d f8          	movsbl -0x8(%rbp),%ecx
    925d:	99                   	cltd   
    925e:	f7 f9                	idiv   %ecx
    9260:	89 d0                	mov    %edx,%eax
    9262:	eb 04                	jmp    9268 <safe_mod_func_int8_t_s_s+0x37>
    9264:	0f b6 45 fc          	movzbl -0x4(%rbp),%eax
    9268:	5d                   	pop    %rbp
    9269:	c3                   	retq   

000000000000926a <safe_div_func_int8_t_s_s>:
    926a:	f3 0f 1e fa          	endbr64 
    926e:	55                   	push   %rbp
    926f:	48 89 e5             	mov    %rsp,%rbp
    9272:	89 fa                	mov    %edi,%edx
    9274:	89 f0                	mov    %esi,%eax
    9276:	88 55 fc             	mov    %dl,-0x4(%rbp)
    9279:	88 45 f8             	mov    %al,-0x8(%rbp)
    927c:	80 7d f8 00          	cmpb   $0x0,-0x8(%rbp)
    9280:	74 19                	je     929b <safe_div_func_int8_t_s_s+0x31>
    9282:	80 7d fc 80          	cmpb   $0x80,-0x4(%rbp)
    9286:	75 06                	jne    928e <safe_div_func_int8_t_s_s+0x24>
    9288:	80 7d f8 ff          	cmpb   $0xff,-0x8(%rbp)
    928c:	74 0d                	je     929b <safe_div_func_int8_t_s_s+0x31>
    928e:	0f be 45 fc          	movsbl -0x4(%rbp),%eax
    9292:	0f be 4d f8          	movsbl -0x8(%rbp),%ecx
    9296:	99                   	cltd   
    9297:	f7 f9                	idiv   %ecx
    9299:	eb 04                	jmp    929f <safe_div_func_int8_t_s_s+0x35>
    929b:	0f b6 45 fc          	movzbl -0x4(%rbp),%eax
    929f:	5d                   	pop    %rbp
    92a0:	c3                   	retq   

00000000000092a1 <safe_lshift_func_int8_t_s_s>:
    92a1:	f3 0f 1e fa          	endbr64 
    92a5:	55                   	push   %rbp
    92a6:	48 89 e5             	mov    %rsp,%rbp
    92a9:	89 f8                	mov    %edi,%eax
    92ab:	89 75 f8             	mov    %esi,-0x8(%rbp)
    92ae:	88 45 fc             	mov    %al,-0x4(%rbp)
    92b1:	80 7d fc 00          	cmpb   $0x0,-0x4(%rbp)
    92b5:	78 31                	js     92e8 <safe_lshift_func_int8_t_s_s+0x47>
    92b7:	83 7d f8 00          	cmpl   $0x0,-0x8(%rbp)
    92bb:	78 2b                	js     92e8 <safe_lshift_func_int8_t_s_s+0x47>
    92bd:	83 7d f8 1f          	cmpl   $0x1f,-0x8(%rbp)
    92c1:	7f 25                	jg     92e8 <safe_lshift_func_int8_t_s_s+0x47>
    92c3:	0f be 55 fc          	movsbl -0x4(%rbp),%edx
    92c7:	8b 45 f8             	mov    -0x8(%rbp),%eax
    92ca:	be 7f 00 00 00       	mov    $0x7f,%esi
    92cf:	89 c1                	mov    %eax,%ecx
    92d1:	d3 fe                	sar    %cl,%esi
    92d3:	89 f0                	mov    %esi,%eax
    92d5:	39 c2                	cmp    %eax,%edx
    92d7:	7f 0f                	jg     92e8 <safe_lshift_func_int8_t_s_s+0x47>
    92d9:	0f be 55 fc          	movsbl -0x4(%rbp),%edx
    92dd:	8b 45 f8             	mov    -0x8(%rbp),%eax
    92e0:	89 c1                	mov    %eax,%ecx
    92e2:	d3 e2                	shl    %cl,%edx
    92e4:	89 d0                	mov    %edx,%eax
    92e6:	eb 04                	jmp    92ec <safe_lshift_func_int8_t_s_s+0x4b>
    92e8:	0f b6 45 fc          	movzbl -0x4(%rbp),%eax
    92ec:	5d                   	pop    %rbp
    92ed:	c3                   	retq   

00000000000092ee <safe_lshift_func_int8_t_s_u>:
    92ee:	f3 0f 1e fa          	endbr64 
    92f2:	55                   	push   %rbp
    92f3:	48 89 e5             	mov    %rsp,%rbp
    92f6:	89 f8                	mov    %edi,%eax
    92f8:	89 75 f8             	mov    %esi,-0x8(%rbp)
    92fb:	88 45 fc             	mov    %al,-0x4(%rbp)
    92fe:	80 7d fc 00          	cmpb   $0x0,-0x4(%rbp)
    9302:	78 2b                	js     932f <safe_lshift_func_int8_t_s_u+0x41>
    9304:	83 7d f8 1f          	cmpl   $0x1f,-0x8(%rbp)
    9308:	77 25                	ja     932f <safe_lshift_func_int8_t_s_u+0x41>
    930a:	0f be 55 fc          	movsbl -0x4(%rbp),%edx
    930e:	8b 45 f8             	mov    -0x8(%rbp),%eax
    9311:	be 7f 00 00 00       	mov    $0x7f,%esi
    9316:	89 c1                	mov    %eax,%ecx
    9318:	d3 fe                	sar    %cl,%esi
    931a:	89 f0                	mov    %esi,%eax
    931c:	39 c2                	cmp    %eax,%edx
    931e:	7f 0f                	jg     932f <safe_lshift_func_int8_t_s_u+0x41>
    9320:	0f be 55 fc          	movsbl -0x4(%rbp),%edx
    9324:	8b 45 f8             	mov    -0x8(%rbp),%eax
    9327:	89 c1                	mov    %eax,%ecx
    9329:	d3 e2                	shl    %cl,%edx
    932b:	89 d0                	mov    %edx,%eax
    932d:	eb 04                	jmp    9333 <safe_lshift_func_int8_t_s_u+0x45>
    932f:	0f b6 45 fc          	movzbl -0x4(%rbp),%eax
    9333:	5d                   	pop    %rbp
    9334:	c3                   	retq   

0000000000009335 <safe_rshift_func_int8_t_s_s>:
    9335:	f3 0f 1e fa          	endbr64 
    9339:	55                   	push   %rbp
    933a:	48 89 e5             	mov    %rsp,%rbp
    933d:	89 f8                	mov    %edi,%eax
    933f:	89 75 f8             	mov    %esi,-0x8(%rbp)
    9342:	88 45 fc             	mov    %al,-0x4(%rbp)
    9345:	80 7d fc 00          	cmpb   $0x0,-0x4(%rbp)
    9349:	78 1b                	js     9366 <safe_rshift_func_int8_t_s_s+0x31>
    934b:	83 7d f8 00          	cmpl   $0x0,-0x8(%rbp)
    934f:	78 15                	js     9366 <safe_rshift_func_int8_t_s_s+0x31>
    9351:	83 7d f8 1f          	cmpl   $0x1f,-0x8(%rbp)
    9355:	7f 0f                	jg     9366 <safe_rshift_func_int8_t_s_s+0x31>
    9357:	0f be 55 fc          	movsbl -0x4(%rbp),%edx
    935b:	8b 45 f8             	mov    -0x8(%rbp),%eax
    935e:	89 c1                	mov    %eax,%ecx
    9360:	d3 fa                	sar    %cl,%edx
    9362:	89 d0                	mov    %edx,%eax
    9364:	eb 04                	jmp    936a <safe_rshift_func_int8_t_s_s+0x35>
    9366:	0f b6 45 fc          	movzbl -0x4(%rbp),%eax
    936a:	5d                   	pop    %rbp
    936b:	c3                   	retq   

000000000000936c <safe_rshift_func_int8_t_s_u>:
    936c:	f3 0f 1e fa          	endbr64 
    9370:	55                   	push   %rbp
    9371:	48 89 e5             	mov    %rsp,%rbp
    9374:	89 f8                	mov    %edi,%eax
    9376:	89 75 f8             	mov    %esi,-0x8(%rbp)
    9379:	88 45 fc             	mov    %al,-0x4(%rbp)
    937c:	80 7d fc 00          	cmpb   $0x0,-0x4(%rbp)
    9380:	78 15                	js     9397 <safe_rshift_func_int8_t_s_u+0x2b>
    9382:	83 7d f8 1f          	cmpl   $0x1f,-0x8(%rbp)
    9386:	77 0f                	ja     9397 <safe_rshift_func_int8_t_s_u+0x2b>
    9388:	0f be 55 fc          	movsbl -0x4(%rbp),%edx
    938c:	8b 45 f8             	mov    -0x8(%rbp),%eax
    938f:	89 c1                	mov    %eax,%ecx
    9391:	d3 fa                	sar    %cl,%edx
    9393:	89 d0                	mov    %edx,%eax
    9395:	eb 04                	jmp    939b <safe_rshift_func_int8_t_s_u+0x2f>
    9397:	0f b6 45 fc          	movzbl -0x4(%rbp),%eax
    939b:	5d                   	pop    %rbp
    939c:	c3                   	retq   

000000000000939d <safe_unary_minus_func_int16_t_s>:
    939d:	f3 0f 1e fa          	endbr64 
    93a1:	55                   	push   %rbp
    93a2:	48 89 e5             	mov    %rsp,%rbp
    93a5:	89 f8                	mov    %edi,%eax
    93a7:	66 89 45 fc          	mov    %ax,-0x4(%rbp)
    93ab:	0f b7 45 fc          	movzwl -0x4(%rbp),%eax
    93af:	f7 d8                	neg    %eax
    93b1:	5d                   	pop    %rbp
    93b2:	c3                   	retq   

00000000000093b3 <safe_add_func_int16_t_s_s>:
    93b3:	f3 0f 1e fa          	endbr64 
    93b7:	55                   	push   %rbp
    93b8:	48 89 e5             	mov    %rsp,%rbp
    93bb:	89 fa                	mov    %edi,%edx
    93bd:	89 f0                	mov    %esi,%eax
    93bf:	66 89 55 fc          	mov    %dx,-0x4(%rbp)
    93c3:	66 89 45 f8          	mov    %ax,-0x8(%rbp)
    93c7:	0f b7 55 fc          	movzwl -0x4(%rbp),%edx
    93cb:	0f b7 45 f8          	movzwl -0x8(%rbp),%eax
    93cf:	01 d0                	add    %edx,%eax
    93d1:	5d                   	pop    %rbp
    93d2:	c3                   	retq   

00000000000093d3 <safe_sub_func_int16_t_s_s>:
    93d3:	f3 0f 1e fa          	endbr64 
    93d7:	55                   	push   %rbp
    93d8:	48 89 e5             	mov    %rsp,%rbp
    93db:	89 fa                	mov    %edi,%edx
    93dd:	89 f0                	mov    %esi,%eax
    93df:	66 89 55 fc          	mov    %dx,-0x4(%rbp)
    93e3:	66 89 45 f8          	mov    %ax,-0x8(%rbp)
    93e7:	0f b7 55 fc          	movzwl -0x4(%rbp),%edx
    93eb:	0f b7 45 f8          	movzwl -0x8(%rbp),%eax
    93ef:	29 c2                	sub    %eax,%edx
    93f1:	89 d0                	mov    %edx,%eax
    93f3:	5d                   	pop    %rbp
    93f4:	c3                   	retq   

00000000000093f5 <safe_mul_func_int16_t_s_s>:
    93f5:	f3 0f 1e fa          	endbr64 
    93f9:	55                   	push   %rbp
    93fa:	48 89 e5             	mov    %rsp,%rbp
    93fd:	89 fa                	mov    %edi,%edx
    93ff:	89 f0                	mov    %esi,%eax
    9401:	66 89 55 fc          	mov    %dx,-0x4(%rbp)
    9405:	66 89 45 f8          	mov    %ax,-0x8(%rbp)
    9409:	0f b7 55 fc          	movzwl -0x4(%rbp),%edx
    940d:	0f b7 45 f8          	movzwl -0x8(%rbp),%eax
    9411:	0f af c2             	imul   %edx,%eax
    9414:	5d                   	pop    %rbp
    9415:	c3                   	retq   

0000000000009416 <safe_mod_func_int16_t_s_s>:
    9416:	f3 0f 1e fa          	endbr64 
    941a:	55                   	push   %rbp
    941b:	48 89 e5             	mov    %rsp,%rbp
    941e:	89 fa                	mov    %edi,%edx
    9420:	89 f0                	mov    %esi,%eax
    9422:	66 89 55 fc          	mov    %dx,-0x4(%rbp)
    9426:	66 89 45 f8          	mov    %ax,-0x8(%rbp)
    942a:	66 83 7d f8 00       	cmpw   $0x0,-0x8(%rbp)
    942f:	74 1e                	je     944f <safe_mod_func_int16_t_s_s+0x39>
    9431:	66 81 7d fc 00 80    	cmpw   $0x8000,-0x4(%rbp)
    9437:	75 07                	jne    9440 <safe_mod_func_int16_t_s_s+0x2a>
    9439:	66 83 7d f8 ff       	cmpw   $0xffff,-0x8(%rbp)
    943e:	74 0f                	je     944f <safe_mod_func_int16_t_s_s+0x39>
    9440:	0f bf 45 fc          	movswl -0x4(%rbp),%eax
    9444:	0f bf 4d f8          	movswl -0x8(%rbp),%ecx
    9448:	99                   	cltd   
    9449:	f7 f9                	idiv   %ecx
    944b:	89 d0                	mov    %edx,%eax
    944d:	eb 04                	jmp    9453 <safe_mod_func_int16_t_s_s+0x3d>
    944f:	0f b7 45 fc          	movzwl -0x4(%rbp),%eax
    9453:	5d                   	pop    %rbp
    9454:	c3                   	retq   

0000000000009455 <safe_div_func_int16_t_s_s>:
    9455:	f3 0f 1e fa          	endbr64 
    9459:	55                   	push   %rbp
    945a:	48 89 e5             	mov    %rsp,%rbp
    945d:	89 fa                	mov    %edi,%edx
    945f:	89 f0                	mov    %esi,%eax
    9461:	66 89 55 fc          	mov    %dx,-0x4(%rbp)
    9465:	66 89 45 f8          	mov    %ax,-0x8(%rbp)
    9469:	66 83 7d f8 00       	cmpw   $0x0,-0x8(%rbp)
    946e:	74 1c                	je     948c <safe_div_func_int16_t_s_s+0x37>
    9470:	66 81 7d fc 00 80    	cmpw   $0x8000,-0x4(%rbp)
    9476:	75 07                	jne    947f <safe_div_func_int16_t_s_s+0x2a>
    9478:	66 83 7d f8 ff       	cmpw   $0xffff,-0x8(%rbp)
    947d:	74 0d                	je     948c <safe_div_func_int16_t_s_s+0x37>
    947f:	0f bf 45 fc          	movswl -0x4(%rbp),%eax
    9483:	0f bf 4d f8          	movswl -0x8(%rbp),%ecx
    9487:	99                   	cltd   
    9488:	f7 f9                	idiv   %ecx
    948a:	eb 04                	jmp    9490 <safe_div_func_int16_t_s_s+0x3b>
    948c:	0f b7 45 fc          	movzwl -0x4(%rbp),%eax
    9490:	5d                   	pop    %rbp
    9491:	c3                   	retq   

0000000000009492 <safe_lshift_func_int16_t_s_s>:
    9492:	f3 0f 1e fa          	endbr64 
    9496:	55                   	push   %rbp
    9497:	48 89 e5             	mov    %rsp,%rbp
    949a:	89 f8                	mov    %edi,%eax
    949c:	89 75 f8             	mov    %esi,-0x8(%rbp)
    949f:	66 89 45 fc          	mov    %ax,-0x4(%rbp)
    94a3:	66 83 7d fc 00       	cmpw   $0x0,-0x4(%rbp)
    94a8:	78 31                	js     94db <safe_lshift_func_int16_t_s_s+0x49>
    94aa:	83 7d f8 00          	cmpl   $0x0,-0x8(%rbp)
    94ae:	78 2b                	js     94db <safe_lshift_func_int16_t_s_s+0x49>
    94b0:	83 7d f8 1f          	cmpl   $0x1f,-0x8(%rbp)
    94b4:	7f 25                	jg     94db <safe_lshift_func_int16_t_s_s+0x49>
    94b6:	0f bf 55 fc          	movswl -0x4(%rbp),%edx
    94ba:	8b 45 f8             	mov    -0x8(%rbp),%eax
    94bd:	be ff 7f 00 00       	mov    $0x7fff,%esi
    94c2:	89 c1                	mov    %eax,%ecx
    94c4:	d3 fe                	sar    %cl,%esi
    94c6:	89 f0                	mov    %esi,%eax
    94c8:	39 c2                	cmp    %eax,%edx
    94ca:	7f 0f                	jg     94db <safe_lshift_func_int16_t_s_s+0x49>
    94cc:	0f bf 55 fc          	movswl -0x4(%rbp),%edx
    94d0:	8b 45 f8             	mov    -0x8(%rbp),%eax
    94d3:	89 c1                	mov    %eax,%ecx
    94d5:	d3 e2                	shl    %cl,%edx
    94d7:	89 d0                	mov    %edx,%eax
    94d9:	eb 04                	jmp    94df <safe_lshift_func_int16_t_s_s+0x4d>
    94db:	0f b7 45 fc          	movzwl -0x4(%rbp),%eax
    94df:	5d                   	pop    %rbp
    94e0:	c3                   	retq   

00000000000094e1 <safe_lshift_func_int16_t_s_u>:
    94e1:	f3 0f 1e fa          	endbr64 
    94e5:	55                   	push   %rbp
    94e6:	48 89 e5             	mov    %rsp,%rbp
    94e9:	89 f8                	mov    %edi,%eax
    94eb:	89 75 f8             	mov    %esi,-0x8(%rbp)
    94ee:	66 89 45 fc          	mov    %ax,-0x4(%rbp)
    94f2:	66 83 7d fc 00       	cmpw   $0x0,-0x4(%rbp)
    94f7:	78 2b                	js     9524 <safe_lshift_func_int16_t_s_u+0x43>
    94f9:	83 7d f8 1f          	cmpl   $0x1f,-0x8(%rbp)
    94fd:	77 25                	ja     9524 <safe_lshift_func_int16_t_s_u+0x43>
    94ff:	0f bf 55 fc          	movswl -0x4(%rbp),%edx
    9503:	8b 45 f8             	mov    -0x8(%rbp),%eax
    9506:	be ff 7f 00 00       	mov    $0x7fff,%esi
    950b:	89 c1                	mov    %eax,%ecx
    950d:	d3 fe                	sar    %cl,%esi
    950f:	89 f0                	mov    %esi,%eax
    9511:	39 c2                	cmp    %eax,%edx
    9513:	7f 0f                	jg     9524 <safe_lshift_func_int16_t_s_u+0x43>
    9515:	0f bf 55 fc          	movswl -0x4(%rbp),%edx
    9519:	8b 45 f8             	mov    -0x8(%rbp),%eax
    951c:	89 c1                	mov    %eax,%ecx
    951e:	d3 e2                	shl    %cl,%edx
    9520:	89 d0                	mov    %edx,%eax
    9522:	eb 04                	jmp    9528 <safe_lshift_func_int16_t_s_u+0x47>
    9524:	0f b7 45 fc          	movzwl -0x4(%rbp),%eax
    9528:	5d                   	pop    %rbp
    9529:	c3                   	retq   

000000000000952a <safe_rshift_func_int16_t_s_s>:
    952a:	f3 0f 1e fa          	endbr64 
    952e:	55                   	push   %rbp
    952f:	48 89 e5             	mov    %rsp,%rbp
    9532:	89 f8                	mov    %edi,%eax
    9534:	89 75 f8             	mov    %esi,-0x8(%rbp)
    9537:	66 89 45 fc          	mov    %ax,-0x4(%rbp)
    953b:	66 83 7d fc 00       	cmpw   $0x0,-0x4(%rbp)
    9540:	78 1b                	js     955d <safe_rshift_func_int16_t_s_s+0x33>
    9542:	83 7d f8 00          	cmpl   $0x0,-0x8(%rbp)
    9546:	78 15                	js     955d <safe_rshift_func_int16_t_s_s+0x33>
    9548:	83 7d f8 1f          	cmpl   $0x1f,-0x8(%rbp)
    954c:	7f 0f                	jg     955d <safe_rshift_func_int16_t_s_s+0x33>
    954e:	0f bf 55 fc          	movswl -0x4(%rbp),%edx
    9552:	8b 45 f8             	mov    -0x8(%rbp),%eax
    9555:	89 c1                	mov    %eax,%ecx
    9557:	d3 fa                	sar    %cl,%edx
    9559:	89 d0                	mov    %edx,%eax
    955b:	eb 04                	jmp    9561 <safe_rshift_func_int16_t_s_s+0x37>
    955d:	0f b7 45 fc          	movzwl -0x4(%rbp),%eax
    9561:	5d                   	pop    %rbp
    9562:	c3                   	retq   

0000000000009563 <safe_rshift_func_int16_t_s_u>:
    9563:	f3 0f 1e fa          	endbr64 
    9567:	55                   	push   %rbp
    9568:	48 89 e5             	mov    %rsp,%rbp
    956b:	89 f8                	mov    %edi,%eax
    956d:	89 75 f8             	mov    %esi,-0x8(%rbp)
    9570:	66 89 45 fc          	mov    %ax,-0x4(%rbp)
    9574:	66 83 7d fc 00       	cmpw   $0x0,-0x4(%rbp)
    9579:	78 15                	js     9590 <safe_rshift_func_int16_t_s_u+0x2d>
    957b:	83 7d f8 1f          	cmpl   $0x1f,-0x8(%rbp)
    957f:	77 0f                	ja     9590 <safe_rshift_func_int16_t_s_u+0x2d>
    9581:	0f bf 55 fc          	movswl -0x4(%rbp),%edx
    9585:	8b 45 f8             	mov    -0x8(%rbp),%eax
    9588:	89 c1                	mov    %eax,%ecx
    958a:	d3 fa                	sar    %cl,%edx
    958c:	89 d0                	mov    %edx,%eax
    958e:	eb 04                	jmp    9594 <safe_rshift_func_int16_t_s_u+0x31>
    9590:	0f b7 45 fc          	movzwl -0x4(%rbp),%eax
    9594:	5d                   	pop    %rbp
    9595:	c3                   	retq   

0000000000009596 <safe_unary_minus_func_int32_t_s>:
    9596:	f3 0f 1e fa          	endbr64 
    959a:	55                   	push   %rbp
    959b:	48 89 e5             	mov    %rsp,%rbp
    959e:	89 7d fc             	mov    %edi,-0x4(%rbp)
    95a1:	81 7d fc 00 00 00 80 	cmpl   $0x80000000,-0x4(%rbp)
    95a8:	74 07                	je     95b1 <safe_unary_minus_func_int32_t_s+0x1b>
    95aa:	8b 45 fc             	mov    -0x4(%rbp),%eax
    95ad:	f7 d8                	neg    %eax
    95af:	eb 03                	jmp    95b4 <safe_unary_minus_func_int32_t_s+0x1e>
    95b1:	8b 45 fc             	mov    -0x4(%rbp),%eax
    95b4:	5d                   	pop    %rbp
    95b5:	c3                   	retq   

00000000000095b6 <safe_add_func_int32_t_s_s>:
    95b6:	f3 0f 1e fa          	endbr64 
    95ba:	55                   	push   %rbp
    95bb:	48 89 e5             	mov    %rsp,%rbp
    95be:	89 7d fc             	mov    %edi,-0x4(%rbp)
    95c1:	89 75 f8             	mov    %esi,-0x8(%rbp)
    95c4:	83 7d fc 00          	cmpl   $0x0,-0x4(%rbp)
    95c8:	7e 13                	jle    95dd <safe_add_func_int32_t_s_s+0x27>
    95ca:	83 7d f8 00          	cmpl   $0x0,-0x8(%rbp)
    95ce:	7e 0d                	jle    95dd <safe_add_func_int32_t_s_s+0x27>
    95d0:	b8 ff ff ff 7f       	mov    $0x7fffffff,%eax
    95d5:	2b 45 f8             	sub    -0x8(%rbp),%eax
    95d8:	39 45 fc             	cmp    %eax,-0x4(%rbp)
    95db:	7f 23                	jg     9600 <safe_add_func_int32_t_s_s+0x4a>
    95dd:	83 7d fc 00          	cmpl   $0x0,-0x4(%rbp)
    95e1:	79 13                	jns    95f6 <safe_add_func_int32_t_s_s+0x40>
    95e3:	83 7d f8 00          	cmpl   $0x0,-0x8(%rbp)
    95e7:	79 0d                	jns    95f6 <safe_add_func_int32_t_s_s+0x40>
    95e9:	b8 00 00 00 80       	mov    $0x80000000,%eax
    95ee:	2b 45 f8             	sub    -0x8(%rbp),%eax
    95f1:	39 45 fc             	cmp    %eax,-0x4(%rbp)
    95f4:	7c 0a                	jl     9600 <safe_add_func_int32_t_s_s+0x4a>
    95f6:	8b 55 fc             	mov    -0x4(%rbp),%edx
    95f9:	8b 45 f8             	mov    -0x8(%rbp),%eax
    95fc:	01 d0                	add    %edx,%eax
    95fe:	eb 03                	jmp    9603 <safe_add_func_int32_t_s_s+0x4d>
    9600:	8b 45 fc             	mov    -0x4(%rbp),%eax
    9603:	5d                   	pop    %rbp
    9604:	c3                   	retq   

0000000000009605 <safe_sub_func_int32_t_s_s>:
    9605:	f3 0f 1e fa          	endbr64 
    9609:	55                   	push   %rbp
    960a:	48 89 e5             	mov    %rsp,%rbp
    960d:	89 7d fc             	mov    %edi,-0x4(%rbp)
    9610:	89 75 f8             	mov    %esi,-0x8(%rbp)
    9613:	8b 45 fc             	mov    -0x4(%rbp),%eax
    9616:	33 45 f8             	xor    -0x8(%rbp),%eax
    9619:	89 c2                	mov    %eax,%edx
    961b:	8b 45 fc             	mov    -0x4(%rbp),%eax
    961e:	33 45 f8             	xor    -0x8(%rbp),%eax
    9621:	25 00 00 00 80       	and    $0x80000000,%eax
    9626:	33 45 fc             	xor    -0x4(%rbp),%eax
    9629:	2b 45 f8             	sub    -0x8(%rbp),%eax
    962c:	33 45 f8             	xor    -0x8(%rbp),%eax
    962f:	21 d0                	and    %edx,%eax
    9631:	85 c0                	test   %eax,%eax
    9633:	78 08                	js     963d <safe_sub_func_int32_t_s_s+0x38>
    9635:	8b 45 fc             	mov    -0x4(%rbp),%eax
    9638:	2b 45 f8             	sub    -0x8(%rbp),%eax
    963b:	eb 03                	jmp    9640 <safe_sub_func_int32_t_s_s+0x3b>
    963d:	8b 45 fc             	mov    -0x4(%rbp),%eax
    9640:	5d                   	pop    %rbp
    9641:	c3                   	retq   

0000000000009642 <safe_mul_func_int32_t_s_s>:
    9642:	f3 0f 1e fa          	endbr64 
    9646:	55                   	push   %rbp
    9647:	48 89 e5             	mov    %rsp,%rbp
    964a:	89 7d fc             	mov    %edi,-0x4(%rbp)
    964d:	89 75 f8             	mov    %esi,-0x8(%rbp)
    9650:	83 7d fc 00          	cmpl   $0x0,-0x4(%rbp)
    9654:	7e 14                	jle    966a <safe_mul_func_int32_t_s_s+0x28>
    9656:	83 7d f8 00          	cmpl   $0x0,-0x8(%rbp)
    965a:	7e 0e                	jle    966a <safe_mul_func_int32_t_s_s+0x28>
    965c:	b8 ff ff ff 7f       	mov    $0x7fffffff,%eax
    9661:	99                   	cltd   
    9662:	f7 7d f8             	idivl  -0x8(%rbp)
    9665:	39 45 fc             	cmp    %eax,-0x4(%rbp)
    9668:	7f 5d                	jg     96c7 <safe_mul_func_int32_t_s_s+0x85>
    966a:	83 7d fc 00          	cmpl   $0x0,-0x4(%rbp)
    966e:	7e 14                	jle    9684 <safe_mul_func_int32_t_s_s+0x42>
    9670:	83 7d f8 00          	cmpl   $0x0,-0x8(%rbp)
    9674:	7f 0e                	jg     9684 <safe_mul_func_int32_t_s_s+0x42>
    9676:	b8 00 00 00 80       	mov    $0x80000000,%eax
    967b:	99                   	cltd   
    967c:	f7 7d fc             	idivl  -0x4(%rbp)
    967f:	39 45 f8             	cmp    %eax,-0x8(%rbp)
    9682:	7c 43                	jl     96c7 <safe_mul_func_int32_t_s_s+0x85>
    9684:	83 7d fc 00          	cmpl   $0x0,-0x4(%rbp)
    9688:	7f 14                	jg     969e <safe_mul_func_int32_t_s_s+0x5c>
    968a:	83 7d f8 00          	cmpl   $0x0,-0x8(%rbp)
    968e:	7e 0e                	jle    969e <safe_mul_func_int32_t_s_s+0x5c>
    9690:	b8 00 00 00 80       	mov    $0x80000000,%eax
    9695:	99                   	cltd   
    9696:	f7 7d f8             	idivl  -0x8(%rbp)
    9699:	39 45 fc             	cmp    %eax,-0x4(%rbp)
    969c:	7c 29                	jl     96c7 <safe_mul_func_int32_t_s_s+0x85>
    969e:	83 7d fc 00          	cmpl   $0x0,-0x4(%rbp)
    96a2:	7f 1a                	jg     96be <safe_mul_func_int32_t_s_s+0x7c>
    96a4:	83 7d f8 00          	cmpl   $0x0,-0x8(%rbp)
    96a8:	7f 14                	jg     96be <safe_mul_func_int32_t_s_s+0x7c>
    96aa:	83 7d fc 00          	cmpl   $0x0,-0x4(%rbp)
    96ae:	74 0e                	je     96be <safe_mul_func_int32_t_s_s+0x7c>
    96b0:	b8 ff ff ff 7f       	mov    $0x7fffffff,%eax
    96b5:	99                   	cltd   
    96b6:	f7 7d fc             	idivl  -0x4(%rbp)
    96b9:	39 45 f8             	cmp    %eax,-0x8(%rbp)
    96bc:	7c 09                	jl     96c7 <safe_mul_func_int32_t_s_s+0x85>
    96be:	8b 45 fc             	mov    -0x4(%rbp),%eax
    96c1:	0f af 45 f8          	imul   -0x8(%rbp),%eax
    96c5:	eb 03                	jmp    96ca <safe_mul_func_int32_t_s_s+0x88>
    96c7:	8b 45 fc             	mov    -0x4(%rbp),%eax
    96ca:	5d                   	pop    %rbp
    96cb:	c3                   	retq   

00000000000096cc <safe_mod_func_int32_t_s_s>:
    96cc:	f3 0f 1e fa          	endbr64 
    96d0:	55                   	push   %rbp
    96d1:	48 89 e5             	mov    %rsp,%rbp
    96d4:	89 7d fc             	mov    %edi,-0x4(%rbp)
    96d7:	89 75 f8             	mov    %esi,-0x8(%rbp)
    96da:	83 7d f8 00          	cmpl   $0x0,-0x8(%rbp)
    96de:	74 1a                	je     96fa <safe_mod_func_int32_t_s_s+0x2e>
    96e0:	81 7d fc 00 00 00 80 	cmpl   $0x80000000,-0x4(%rbp)
    96e7:	75 06                	jne    96ef <safe_mod_func_int32_t_s_s+0x23>
    96e9:	83 7d f8 ff          	cmpl   $0xffffffff,-0x8(%rbp)
    96ed:	74 0b                	je     96fa <safe_mod_func_int32_t_s_s+0x2e>
    96ef:	8b 45 fc             	mov    -0x4(%rbp),%eax
    96f2:	99                   	cltd   
    96f3:	f7 7d f8             	idivl  -0x8(%rbp)
    96f6:	89 d0                	mov    %edx,%eax
    96f8:	eb 03                	jmp    96fd <safe_mod_func_int32_t_s_s+0x31>
    96fa:	8b 45 fc             	mov    -0x4(%rbp),%eax
    96fd:	5d                   	pop    %rbp
    96fe:	c3                   	retq   

00000000000096ff <safe_div_func_int32_t_s_s>:
    96ff:	f3 0f 1e fa          	endbr64 
    9703:	55                   	push   %rbp
    9704:	48 89 e5             	mov    %rsp,%rbp
    9707:	89 7d fc             	mov    %edi,-0x4(%rbp)
    970a:	89 75 f8             	mov    %esi,-0x8(%rbp)
    970d:	83 7d f8 00          	cmpl   $0x0,-0x8(%rbp)
    9711:	74 18                	je     972b <safe_div_func_int32_t_s_s+0x2c>
    9713:	81 7d fc 00 00 00 80 	cmpl   $0x80000000,-0x4(%rbp)
    971a:	75 06                	jne    9722 <safe_div_func_int32_t_s_s+0x23>
    971c:	83 7d f8 ff          	cmpl   $0xffffffff,-0x8(%rbp)
    9720:	74 09                	je     972b <safe_div_func_int32_t_s_s+0x2c>
    9722:	8b 45 fc             	mov    -0x4(%rbp),%eax
    9725:	99                   	cltd   
    9726:	f7 7d f8             	idivl  -0x8(%rbp)
    9729:	eb 03                	jmp    972e <safe_div_func_int32_t_s_s+0x2f>
    972b:	8b 45 fc             	mov    -0x4(%rbp),%eax
    972e:	5d                   	pop    %rbp
    972f:	c3                   	retq   

0000000000009730 <safe_lshift_func_int32_t_s_s>:
    9730:	f3 0f 1e fa          	endbr64 
    9734:	55                   	push   %rbp
    9735:	48 89 e5             	mov    %rsp,%rbp
    9738:	89 7d fc             	mov    %edi,-0x4(%rbp)
    973b:	89 75 f8             	mov    %esi,-0x8(%rbp)
    973e:	83 7d fc 00          	cmpl   $0x0,-0x4(%rbp)
    9742:	78 2d                	js     9771 <safe_lshift_func_int32_t_s_s+0x41>
    9744:	83 7d f8 00          	cmpl   $0x0,-0x8(%rbp)
    9748:	78 27                	js     9771 <safe_lshift_func_int32_t_s_s+0x41>
    974a:	83 7d f8 1f          	cmpl   $0x1f,-0x8(%rbp)
    974e:	7f 21                	jg     9771 <safe_lshift_func_int32_t_s_s+0x41>
    9750:	8b 45 f8             	mov    -0x8(%rbp),%eax
    9753:	ba ff ff ff 7f       	mov    $0x7fffffff,%edx
    9758:	89 c1                	mov    %eax,%ecx
    975a:	d3 fa                	sar    %cl,%edx
    975c:	89 d0                	mov    %edx,%eax
    975e:	39 45 fc             	cmp    %eax,-0x4(%rbp)
    9761:	7f 0e                	jg     9771 <safe_lshift_func_int32_t_s_s+0x41>
    9763:	8b 45 f8             	mov    -0x8(%rbp),%eax
    9766:	8b 55 fc             	mov    -0x4(%rbp),%edx
    9769:	89 c1                	mov    %eax,%ecx
    976b:	d3 e2                	shl    %cl,%edx
    976d:	89 d0                	mov    %edx,%eax
    976f:	eb 03                	jmp    9774 <safe_lshift_func_int32_t_s_s+0x44>
    9771:	8b 45 fc             	mov    -0x4(%rbp),%eax
    9774:	5d                   	pop    %rbp
    9775:	c3                   	retq   

0000000000009776 <safe_lshift_func_int32_t_s_u>:
    9776:	f3 0f 1e fa          	endbr64 
    977a:	55                   	push   %rbp
    977b:	48 89 e5             	mov    %rsp,%rbp
    977e:	89 7d fc             	mov    %edi,-0x4(%rbp)
    9781:	89 75 f8             	mov    %esi,-0x8(%rbp)
    9784:	83 7d fc 00          	cmpl   $0x0,-0x4(%rbp)
    9788:	78 27                	js     97b1 <safe_lshift_func_int32_t_s_u+0x3b>
    978a:	83 7d f8 1f          	cmpl   $0x1f,-0x8(%rbp)
    978e:	77 21                	ja     97b1 <safe_lshift_func_int32_t_s_u+0x3b>
    9790:	8b 45 f8             	mov    -0x8(%rbp),%eax
    9793:	ba ff ff ff 7f       	mov    $0x7fffffff,%edx
    9798:	89 c1                	mov    %eax,%ecx
    979a:	d3 fa                	sar    %cl,%edx
    979c:	89 d0                	mov    %edx,%eax
    979e:	39 45 fc             	cmp    %eax,-0x4(%rbp)
    97a1:	7f 0e                	jg     97b1 <safe_lshift_func_int32_t_s_u+0x3b>
    97a3:	8b 45 f8             	mov    -0x8(%rbp),%eax
    97a6:	8b 55 fc             	mov    -0x4(%rbp),%edx
    97a9:	89 c1                	mov    %eax,%ecx
    97ab:	d3 e2                	shl    %cl,%edx
    97ad:	89 d0                	mov    %edx,%eax
    97af:	eb 03                	jmp    97b4 <safe_lshift_func_int32_t_s_u+0x3e>
    97b1:	8b 45 fc             	mov    -0x4(%rbp),%eax
    97b4:	5d                   	pop    %rbp
    97b5:	c3                   	retq   

00000000000097b6 <safe_rshift_func_int32_t_s_s>:
    97b6:	f3 0f 1e fa          	endbr64 
    97ba:	55                   	push   %rbp
    97bb:	48 89 e5             	mov    %rsp,%rbp
    97be:	89 7d fc             	mov    %edi,-0x4(%rbp)
    97c1:	89 75 f8             	mov    %esi,-0x8(%rbp)
    97c4:	83 7d fc 00          	cmpl   $0x0,-0x4(%rbp)
    97c8:	78 1a                	js     97e4 <safe_rshift_func_int32_t_s_s+0x2e>
    97ca:	83 7d f8 00          	cmpl   $0x0,-0x8(%rbp)
    97ce:	78 14                	js     97e4 <safe_rshift_func_int32_t_s_s+0x2e>
    97d0:	83 7d f8 1f          	cmpl   $0x1f,-0x8(%rbp)
    97d4:	7f 0e                	jg     97e4 <safe_rshift_func_int32_t_s_s+0x2e>
    97d6:	8b 45 f8             	mov    -0x8(%rbp),%eax
    97d9:	8b 55 fc             	mov    -0x4(%rbp),%edx
    97dc:	89 c1                	mov    %eax,%ecx
    97de:	d3 fa                	sar    %cl,%edx
    97e0:	89 d0                	mov    %edx,%eax
    97e2:	eb 03                	jmp    97e7 <safe_rshift_func_int32_t_s_s+0x31>
    97e4:	8b 45 fc             	mov    -0x4(%rbp),%eax
    97e7:	5d                   	pop    %rbp
    97e8:	c3                   	retq   

00000000000097e9 <safe_rshift_func_int32_t_s_u>:
    97e9:	f3 0f 1e fa          	endbr64 
    97ed:	55                   	push   %rbp
    97ee:	48 89 e5             	mov    %rsp,%rbp
    97f1:	89 7d fc             	mov    %edi,-0x4(%rbp)
    97f4:	89 75 f8             	mov    %esi,-0x8(%rbp)
    97f7:	83 7d fc 00          	cmpl   $0x0,-0x4(%rbp)
    97fb:	78 14                	js     9811 <safe_rshift_func_int32_t_s_u+0x28>
    97fd:	83 7d f8 1f          	cmpl   $0x1f,-0x8(%rbp)
    9801:	77 0e                	ja     9811 <safe_rshift_func_int32_t_s_u+0x28>
    9803:	8b 45 f8             	mov    -0x8(%rbp),%eax
    9806:	8b 55 fc             	mov    -0x4(%rbp),%edx
    9809:	89 c1                	mov    %eax,%ecx
    980b:	d3 fa                	sar    %cl,%edx
    980d:	89 d0                	mov    %edx,%eax
    980f:	eb 03                	jmp    9814 <safe_rshift_func_int32_t_s_u+0x2b>
    9811:	8b 45 fc             	mov    -0x4(%rbp),%eax
    9814:	5d                   	pop    %rbp
    9815:	c3                   	retq   

0000000000009816 <safe_unary_minus_func_int64_t_s>:
    9816:	f3 0f 1e fa          	endbr64 
    981a:	55                   	push   %rbp
    981b:	48 89 e5             	mov    %rsp,%rbp
    981e:	48 89 7d f8          	mov    %rdi,-0x8(%rbp)
    9822:	48 b8 00 00 00 00 00 	movabs $0x8000000000000000,%rax
    9829:	00 00 80 
    982c:	48 39 45 f8          	cmp    %rax,-0x8(%rbp)
    9830:	74 09                	je     983b <safe_unary_minus_func_int64_t_s+0x25>
    9832:	48 8b 45 f8          	mov    -0x8(%rbp),%rax
    9836:	48 f7 d8             	neg    %rax
    9839:	eb 04                	jmp    983f <safe_unary_minus_func_int64_t_s+0x29>
    983b:	48 8b 45 f8          	mov    -0x8(%rbp),%rax
    983f:	5d                   	pop    %rbp
    9840:	c3                   	retq   

0000000000009841 <safe_add_func_int64_t_s_s>:
    9841:	f3 0f 1e fa          	endbr64 
    9845:	55                   	push   %rbp
    9846:	48 89 e5             	mov    %rsp,%rbp
    9849:	48 89 7d f8          	mov    %rdi,-0x8(%rbp)
    984d:	48 89 75 f0          	mov    %rsi,-0x10(%rbp)
    9851:	48 83 7d f8 00       	cmpq   $0x0,-0x8(%rbp)
    9856:	7e 1b                	jle    9873 <safe_add_func_int64_t_s_s+0x32>
    9858:	48 83 7d f0 00       	cmpq   $0x0,-0x10(%rbp)
    985d:	7e 14                	jle    9873 <safe_add_func_int64_t_s_s+0x32>
    985f:	48 b8 ff ff ff ff ff 	movabs $0x7fffffffffffffff,%rax
    9866:	ff ff 7f 
    9869:	48 2b 45 f0          	sub    -0x10(%rbp),%rax
    986d:	48 39 45 f8          	cmp    %rax,-0x8(%rbp)
    9871:	7f 2f                	jg     98a2 <safe_add_func_int64_t_s_s+0x61>
    9873:	48 83 7d f8 00       	cmpq   $0x0,-0x8(%rbp)
    9878:	79 1b                	jns    9895 <safe_add_func_int64_t_s_s+0x54>
    987a:	48 83 7d f0 00       	cmpq   $0x0,-0x10(%rbp)
    987f:	79 14                	jns    9895 <safe_add_func_int64_t_s_s+0x54>
    9881:	48 b8 00 00 00 00 00 	movabs $0x8000000000000000,%rax
    9888:	00 00 80 
    988b:	48 2b 45 f0          	sub    -0x10(%rbp),%rax
    988f:	48 39 45 f8          	cmp    %rax,-0x8(%rbp)
    9893:	7c 0d                	jl     98a2 <safe_add_func_int64_t_s_s+0x61>
    9895:	48 8b 55 f8          	mov    -0x8(%rbp),%rdx
    9899:	48 8b 45 f0          	mov    -0x10(%rbp),%rax
    989d:	48 01 d0             	add    %rdx,%rax
    98a0:	eb 04                	jmp    98a6 <safe_add_func_int64_t_s_s+0x65>
    98a2:	48 8b 45 f8          	mov    -0x8(%rbp),%rax
    98a6:	5d                   	pop    %rbp
    98a7:	c3                   	retq   

00000000000098a8 <safe_sub_func_int64_t_s_s>:
    98a8:	f3 0f 1e fa          	endbr64 
    98ac:	55                   	push   %rbp
    98ad:	48 89 e5             	mov    %rsp,%rbp
    98b0:	48 89 7d f8          	mov    %rdi,-0x8(%rbp)
    98b4:	48 89 75 f0          	mov    %rsi,-0x10(%rbp)
    98b8:	48 8b 45 f8          	mov    -0x8(%rbp),%rax
    98bc:	48 33 45 f0          	xor    -0x10(%rbp),%rax
    98c0:	48 89 c2             	mov    %rax,%rdx
    98c3:	48 8b 45 f8          	mov    -0x8(%rbp),%rax
    98c7:	48 33 45 f0          	xor    -0x10(%rbp),%rax
    98cb:	48 b9 00 00 00 00 00 	movabs $0x8000000000000000,%rcx
    98d2:	00 00 80 
    98d5:	48 21 c8             	and    %rcx,%rax
    98d8:	48 33 45 f8          	xor    -0x8(%rbp),%rax
    98dc:	48 2b 45 f0          	sub    -0x10(%rbp),%rax
    98e0:	48 33 45 f0          	xor    -0x10(%rbp),%rax
    98e4:	48 21 d0             	and    %rdx,%rax
    98e7:	48 85 c0             	test   %rax,%rax
    98ea:	78 0a                	js     98f6 <safe_sub_func_int64_t_s_s+0x4e>
    98ec:	48 8b 45 f8          	mov    -0x8(%rbp),%rax
    98f0:	48 2b 45 f0          	sub    -0x10(%rbp),%rax
    98f4:	eb 04                	jmp    98fa <safe_sub_func_int64_t_s_s+0x52>
    98f6:	48 8b 45 f8          	mov    -0x8(%rbp),%rax
    98fa:	5d                   	pop    %rbp
    98fb:	c3                   	retq   

00000000000098fc <safe_mul_func_int64_t_s_s>:
    98fc:	f3 0f 1e fa          	endbr64 
    9900:	55                   	push   %rbp
    9901:	48 89 e5             	mov    %rsp,%rbp
    9904:	48 89 7d f8          	mov    %rdi,-0x8(%rbp)
    9908:	48 89 75 f0          	mov    %rsi,-0x10(%rbp)
    990c:	48 83 7d f8 00       	cmpq   $0x0,-0x8(%rbp)
    9911:	7e 1d                	jle    9930 <safe_mul_func_int64_t_s_s+0x34>
    9913:	48 83 7d f0 00       	cmpq   $0x0,-0x10(%rbp)
    9918:	7e 16                	jle    9930 <safe_mul_func_int64_t_s_s+0x34>
    991a:	48 b8 ff ff ff ff ff 	movabs $0x7fffffffffffffff,%rax
    9921:	ff ff 7f 
    9924:	48 99                	cqto   
    9926:	48 f7 7d f0          	idivq  -0x10(%rbp)
    992a:	48 39 45 f8          	cmp    %rax,-0x8(%rbp)
    992e:	7f 7e                	jg     99ae <safe_mul_func_int64_t_s_s+0xb2>
    9930:	48 83 7d f8 00       	cmpq   $0x0,-0x8(%rbp)
    9935:	7e 1d                	jle    9954 <safe_mul_func_int64_t_s_s+0x58>
    9937:	48 83 7d f0 00       	cmpq   $0x0,-0x10(%rbp)
    993c:	7f 16                	jg     9954 <safe_mul_func_int64_t_s_s+0x58>
    993e:	48 b8 00 00 00 00 00 	movabs $0x8000000000000000,%rax
    9945:	00 00 80 
    9948:	48 99                	cqto   
    994a:	48 f7 7d f8          	idivq  -0x8(%rbp)
    994e:	48 39 45 f0          	cmp    %rax,-0x10(%rbp)
    9952:	7c 5a                	jl     99ae <safe_mul_func_int64_t_s_s+0xb2>
    9954:	48 83 7d f8 00       	cmpq   $0x0,-0x8(%rbp)
    9959:	7f 1d                	jg     9978 <safe_mul_func_int64_t_s_s+0x7c>
    995b:	48 83 7d f0 00       	cmpq   $0x0,-0x10(%rbp)
    9960:	7e 16                	jle    9978 <safe_mul_func_int64_t_s_s+0x7c>
    9962:	48 b8 00 00 00 00 00 	movabs $0x8000000000000000,%rax
    9969:	00 00 80 
    996c:	48 99                	cqto   
    996e:	48 f7 7d f0          	idivq  -0x10(%rbp)
    9972:	48 39 45 f8          	cmp    %rax,-0x8(%rbp)
    9976:	7c 36                	jl     99ae <safe_mul_func_int64_t_s_s+0xb2>
    9978:	48 83 7d f8 00       	cmpq   $0x0,-0x8(%rbp)
    997d:	7f 24                	jg     99a3 <safe_mul_func_int64_t_s_s+0xa7>
    997f:	48 83 7d f0 00       	cmpq   $0x0,-0x10(%rbp)
    9984:	7f 1d                	jg     99a3 <safe_mul_func_int64_t_s_s+0xa7>
    9986:	48 83 7d f8 00       	cmpq   $0x0,-0x8(%rbp)
    998b:	74 16                	je     99a3 <safe_mul_func_int64_t_s_s+0xa7>
    998d:	48 b8 ff ff ff ff ff 	movabs $0x7fffffffffffffff,%rax
    9994:	ff ff 7f 
    9997:	48 99                	cqto   
    9999:	48 f7 7d f8          	idivq  -0x8(%rbp)
    999d:	48 39 45 f0          	cmp    %rax,-0x10(%rbp)
    99a1:	7c 0b                	jl     99ae <safe_mul_func_int64_t_s_s+0xb2>
    99a3:	48 8b 45 f8          	mov    -0x8(%rbp),%rax
    99a7:	48 0f af 45 f0       	imul   -0x10(%rbp),%rax
    99ac:	eb 04                	jmp    99b2 <safe_mul_func_int64_t_s_s+0xb6>
    99ae:	48 8b 45 f8          	mov    -0x8(%rbp),%rax
    99b2:	5d                   	pop    %rbp
    99b3:	c3                   	retq   

00000000000099b4 <safe_mod_func_int64_t_s_s>:
    99b4:	f3 0f 1e fa          	endbr64 
    99b8:	55                   	push   %rbp
    99b9:	48 89 e5             	mov    %rsp,%rbp
    99bc:	48 89 7d f8          	mov    %rdi,-0x8(%rbp)
    99c0:	48 89 75 f0          	mov    %rsi,-0x10(%rbp)
    99c4:	48 83 7d f0 00       	cmpq   $0x0,-0x10(%rbp)
    99c9:	74 26                	je     99f1 <safe_mod_func_int64_t_s_s+0x3d>
    99cb:	48 b8 00 00 00 00 00 	movabs $0x8000000000000000,%rax
    99d2:	00 00 80 
    99d5:	48 39 45 f8          	cmp    %rax,-0x8(%rbp)
    99d9:	75 07                	jne    99e2 <safe_mod_func_int64_t_s_s+0x2e>
    99db:	48 83 7d f0 ff       	cmpq   $0xffffffffffffffff,-0x10(%rbp)
    99e0:	74 0f                	je     99f1 <safe_mod_func_int64_t_s_s+0x3d>
    99e2:	48 8b 45 f8          	mov    -0x8(%rbp),%rax
    99e6:	48 99                	cqto   
    99e8:	48 f7 7d f0          	idivq  -0x10(%rbp)
    99ec:	48 89 d0             	mov    %rdx,%rax
    99ef:	eb 04                	jmp    99f5 <safe_mod_func_int64_t_s_s+0x41>
    99f1:	48 8b 45 f8          	mov    -0x8(%rbp),%rax
    99f5:	5d                   	pop    %rbp
    99f6:	c3                   	retq   

00000000000099f7 <safe_div_func_int64_t_s_s>:
    99f7:	f3 0f 1e fa          	endbr64 
    99fb:	55                   	push   %rbp
    99fc:	48 89 e5             	mov    %rsp,%rbp
    99ff:	48 89 7d f8          	mov    %rdi,-0x8(%rbp)
    9a03:	48 89 75 f0          	mov    %rsi,-0x10(%rbp)
    9a07:	48 83 7d f0 00       	cmpq   $0x0,-0x10(%rbp)
    9a0c:	74 23                	je     9a31 <safe_div_func_int64_t_s_s+0x3a>
    9a0e:	48 b8 00 00 00 00 00 	movabs $0x8000000000000000,%rax
    9a15:	00 00 80 
    9a18:	48 39 45 f8          	cmp    %rax,-0x8(%rbp)
    9a1c:	75 07                	jne    9a25 <safe_div_func_int64_t_s_s+0x2e>
    9a1e:	48 83 7d f0 ff       	cmpq   $0xffffffffffffffff,-0x10(%rbp)
    9a23:	74 0c                	je     9a31 <safe_div_func_int64_t_s_s+0x3a>
    9a25:	48 8b 45 f8          	mov    -0x8(%rbp),%rax
    9a29:	48 99                	cqto   
    9a2b:	48 f7 7d f0          	idivq  -0x10(%rbp)
    9a2f:	eb 04                	jmp    9a35 <safe_div_func_int64_t_s_s+0x3e>
    9a31:	48 8b 45 f8          	mov    -0x8(%rbp),%rax
    9a35:	5d                   	pop    %rbp
    9a36:	c3                   	retq   

0000000000009a37 <safe_lshift_func_int64_t_s_s>:
    9a37:	f3 0f 1e fa          	endbr64 
    9a3b:	55                   	push   %rbp
    9a3c:	48 89 e5             	mov    %rsp,%rbp
    9a3f:	48 89 7d f8          	mov    %rdi,-0x8(%rbp)
    9a43:	89 75 f4             	mov    %esi,-0xc(%rbp)
    9a46:	48 83 7d f8 00       	cmpq   $0x0,-0x8(%rbp)
    9a4b:	78 38                	js     9a85 <safe_lshift_func_int64_t_s_s+0x4e>
    9a4d:	83 7d f4 00          	cmpl   $0x0,-0xc(%rbp)
    9a51:	78 32                	js     9a85 <safe_lshift_func_int64_t_s_s+0x4e>
    9a53:	83 7d f4 1f          	cmpl   $0x1f,-0xc(%rbp)
    9a57:	7f 2c                	jg     9a85 <safe_lshift_func_int64_t_s_s+0x4e>
    9a59:	8b 45 f4             	mov    -0xc(%rbp),%eax
    9a5c:	48 ba ff ff ff ff ff 	movabs $0x7fffffffffffffff,%rdx
    9a63:	ff ff 7f 
    9a66:	89 c1                	mov    %eax,%ecx
    9a68:	48 d3 fa             	sar    %cl,%rdx
    9a6b:	48 89 d0             	mov    %rdx,%rax
    9a6e:	48 39 45 f8          	cmp    %rax,-0x8(%rbp)
    9a72:	7f 11                	jg     9a85 <safe_lshift_func_int64_t_s_s+0x4e>
    9a74:	8b 45 f4             	mov    -0xc(%rbp),%eax
    9a77:	48 8b 55 f8          	mov    -0x8(%rbp),%rdx
    9a7b:	89 c1                	mov    %eax,%ecx
    9a7d:	48 d3 e2             	shl    %cl,%rdx
    9a80:	48 89 d0             	mov    %rdx,%rax
    9a83:	eb 04                	jmp    9a89 <safe_lshift_func_int64_t_s_s+0x52>
    9a85:	48 8b 45 f8          	mov    -0x8(%rbp),%rax
    9a89:	5d                   	pop    %rbp
    9a8a:	c3                   	retq   

0000000000009a8b <safe_lshift_func_int64_t_s_u>:
    9a8b:	f3 0f 1e fa          	endbr64 
    9a8f:	55                   	push   %rbp
    9a90:	48 89 e5             	mov    %rsp,%rbp
    9a93:	48 89 7d f8          	mov    %rdi,-0x8(%rbp)
    9a97:	89 75 f4             	mov    %esi,-0xc(%rbp)
    9a9a:	48 83 7d f8 00       	cmpq   $0x0,-0x8(%rbp)
    9a9f:	78 32                	js     9ad3 <safe_lshift_func_int64_t_s_u+0x48>
    9aa1:	83 7d f4 1f          	cmpl   $0x1f,-0xc(%rbp)
    9aa5:	77 2c                	ja     9ad3 <safe_lshift_func_int64_t_s_u+0x48>
    9aa7:	8b 45 f4             	mov    -0xc(%rbp),%eax
    9aaa:	48 ba ff ff ff ff ff 	movabs $0x7fffffffffffffff,%rdx
    9ab1:	ff ff 7f 
    9ab4:	89 c1                	mov    %eax,%ecx
    9ab6:	48 d3 fa             	sar    %cl,%rdx
    9ab9:	48 89 d0             	mov    %rdx,%rax
    9abc:	48 39 45 f8          	cmp    %rax,-0x8(%rbp)
    9ac0:	7f 11                	jg     9ad3 <safe_lshift_func_int64_t_s_u+0x48>
    9ac2:	8b 45 f4             	mov    -0xc(%rbp),%eax
    9ac5:	48 8b 55 f8          	mov    -0x8(%rbp),%rdx
    9ac9:	89 c1                	mov    %eax,%ecx
    9acb:	48 d3 e2             	shl    %cl,%rdx
    9ace:	48 89 d0             	mov    %rdx,%rax
    9ad1:	eb 04                	jmp    9ad7 <safe_lshift_func_int64_t_s_u+0x4c>
    9ad3:	48 8b 45 f8          	mov    -0x8(%rbp),%rax
    9ad7:	5d                   	pop    %rbp
    9ad8:	c3                   	retq   

0000000000009ad9 <safe_rshift_func_int64_t_s_s>:
    9ad9:	f3 0f 1e fa          	endbr64 
    9add:	55                   	push   %rbp
    9ade:	48 89 e5             	mov    %rsp,%rbp
    9ae1:	48 89 7d f8          	mov    %rdi,-0x8(%rbp)
    9ae5:	89 75 f4             	mov    %esi,-0xc(%rbp)
    9ae8:	48 83 7d f8 00       	cmpq   $0x0,-0x8(%rbp)
    9aed:	78 1d                	js     9b0c <safe_rshift_func_int64_t_s_s+0x33>
    9aef:	83 7d f4 00          	cmpl   $0x0,-0xc(%rbp)
    9af3:	78 17                	js     9b0c <safe_rshift_func_int64_t_s_s+0x33>
    9af5:	83 7d f4 1f          	cmpl   $0x1f,-0xc(%rbp)
    9af9:	7f 11                	jg     9b0c <safe_rshift_func_int64_t_s_s+0x33>
    9afb:	8b 45 f4             	mov    -0xc(%rbp),%eax
    9afe:	48 8b 55 f8          	mov    -0x8(%rbp),%rdx
    9b02:	89 c1                	mov    %eax,%ecx
    9b04:	48 d3 fa             	sar    %cl,%rdx
    9b07:	48 89 d0             	mov    %rdx,%rax
    9b0a:	eb 04                	jmp    9b10 <safe_rshift_func_int64_t_s_s+0x37>
    9b0c:	48 8b 45 f8          	mov    -0x8(%rbp),%rax
    9b10:	5d                   	pop    %rbp
    9b11:	c3                   	retq   

0000000000009b12 <safe_rshift_func_int64_t_s_u>:
    9b12:	f3 0f 1e fa          	endbr64 
    9b16:	55                   	push   %rbp
    9b17:	48 89 e5             	mov    %rsp,%rbp
    9b1a:	48 89 7d f8          	mov    %rdi,-0x8(%rbp)
    9b1e:	89 75 f4             	mov    %esi,-0xc(%rbp)
    9b21:	48 83 7d f8 00       	cmpq   $0x0,-0x8(%rbp)
    9b26:	78 17                	js     9b3f <safe_rshift_func_int64_t_s_u+0x2d>
    9b28:	83 7d f4 1f          	cmpl   $0x1f,-0xc(%rbp)
    9b2c:	77 11                	ja     9b3f <safe_rshift_func_int64_t_s_u+0x2d>
    9b2e:	8b 45 f4             	mov    -0xc(%rbp),%eax
    9b31:	48 8b 55 f8          	mov    -0x8(%rbp),%rdx
    9b35:	89 c1                	mov    %eax,%ecx
    9b37:	48 d3 fa             	sar    %cl,%rdx
    9b3a:	48 89 d0             	mov    %rdx,%rax
    9b3d:	eb 04                	jmp    9b43 <safe_rshift_func_int64_t_s_u+0x31>
    9b3f:	48 8b 45 f8          	mov    -0x8(%rbp),%rax
    9b43:	5d                   	pop    %rbp
    9b44:	c3                   	retq   

0000000000009b45 <safe_unary_minus_func_uint8_t_u>:
    9b45:	f3 0f 1e fa          	endbr64 
    9b49:	55                   	push   %rbp
    9b4a:	48 89 e5             	mov    %rsp,%rbp
    9b4d:	89 f8                	mov    %edi,%eax
    9b4f:	88 45 fc             	mov    %al,-0x4(%rbp)
    9b52:	0f b6 45 fc          	movzbl -0x4(%rbp),%eax
    9b56:	f7 d8                	neg    %eax
    9b58:	5d                   	pop    %rbp
    9b59:	c3                   	retq   

0000000000009b5a <safe_add_func_uint8_t_u_u>:
    9b5a:	f3 0f 1e fa          	endbr64 
    9b5e:	55                   	push   %rbp
    9b5f:	48 89 e5             	mov    %rsp,%rbp
    9b62:	89 fa                	mov    %edi,%edx
    9b64:	89 f0                	mov    %esi,%eax
    9b66:	88 55 fc             	mov    %dl,-0x4(%rbp)
    9b69:	88 45 f8             	mov    %al,-0x8(%rbp)
    9b6c:	0f b6 55 fc          	movzbl -0x4(%rbp),%edx
    9b70:	0f b6 45 f8          	movzbl -0x8(%rbp),%eax
    9b74:	01 d0                	add    %edx,%eax
    9b76:	5d                   	pop    %rbp
    9b77:	c3                   	retq   

0000000000009b78 <safe_sub_func_uint8_t_u_u>:
    9b78:	f3 0f 1e fa          	endbr64 
    9b7c:	55                   	push   %rbp
    9b7d:	48 89 e5             	mov    %rsp,%rbp
    9b80:	89 fa                	mov    %edi,%edx
    9b82:	89 f0                	mov    %esi,%eax
    9b84:	88 55 fc             	mov    %dl,-0x4(%rbp)
    9b87:	88 45 f8             	mov    %al,-0x8(%rbp)
    9b8a:	0f b6 45 fc          	movzbl -0x4(%rbp),%eax
    9b8e:	2a 45 f8             	sub    -0x8(%rbp),%al
    9b91:	5d                   	pop    %rbp
    9b92:	c3                   	retq   

0000000000009b93 <safe_mul_func_uint8_t_u_u>:
    9b93:	f3 0f 1e fa          	endbr64 
    9b97:	55                   	push   %rbp
    9b98:	48 89 e5             	mov    %rsp,%rbp
    9b9b:	89 fa                	mov    %edi,%edx
    9b9d:	89 f0                	mov    %esi,%eax
    9b9f:	88 55 fc             	mov    %dl,-0x4(%rbp)
    9ba2:	88 45 f8             	mov    %al,-0x8(%rbp)
    9ba5:	0f b6 45 fc          	movzbl -0x4(%rbp),%eax
    9ba9:	f6 65 f8             	mulb   -0x8(%rbp)
    9bac:	5d                   	pop    %rbp
    9bad:	c3                   	retq   

0000000000009bae <safe_mod_func_uint8_t_u_u>:
    9bae:	f3 0f 1e fa          	endbr64 
    9bb2:	55                   	push   %rbp
    9bb3:	48 89 e5             	mov    %rsp,%rbp
    9bb6:	89 fa                	mov    %edi,%edx
    9bb8:	89 f0                	mov    %esi,%eax
    9bba:	88 55 fc             	mov    %dl,-0x4(%rbp)
    9bbd:	88 45 f8             	mov    %al,-0x8(%rbp)
    9bc0:	80 7d f8 00          	cmpb   $0x0,-0x8(%rbp)
    9bc4:	74 0f                	je     9bd5 <safe_mod_func_uint8_t_u_u+0x27>
    9bc6:	0f b6 45 fc          	movzbl -0x4(%rbp),%eax
    9bca:	0f b6 c0             	movzbl %al,%eax
    9bcd:	f6 75 f8             	divb   -0x8(%rbp)
    9bd0:	0f b6 c4             	movzbl %ah,%eax
    9bd3:	eb 04                	jmp    9bd9 <safe_mod_func_uint8_t_u_u+0x2b>
    9bd5:	0f b6 45 fc          	movzbl -0x4(%rbp),%eax
    9bd9:	5d                   	pop    %rbp
    9bda:	c3                   	retq   

0000000000009bdb <safe_div_func_uint8_t_u_u>:
    9bdb:	f3 0f 1e fa          	endbr64 
    9bdf:	55                   	push   %rbp
    9be0:	48 89 e5             	mov    %rsp,%rbp
    9be3:	89 fa                	mov    %edi,%edx
    9be5:	89 f0                	mov    %esi,%eax
    9be7:	88 55 fc             	mov    %dl,-0x4(%rbp)
    9bea:	88 45 f8             	mov    %al,-0x8(%rbp)
    9bed:	80 7d f8 00          	cmpb   $0x0,-0x8(%rbp)
    9bf1:	74 0c                	je     9bff <safe_div_func_uint8_t_u_u+0x24>
    9bf3:	0f b6 45 fc          	movzbl -0x4(%rbp),%eax
    9bf7:	0f b6 c0             	movzbl %al,%eax
    9bfa:	f6 75 f8             	divb   -0x8(%rbp)
    9bfd:	eb 04                	jmp    9c03 <safe_div_func_uint8_t_u_u+0x28>
    9bff:	0f b6 45 fc          	movzbl -0x4(%rbp),%eax
    9c03:	5d                   	pop    %rbp
    9c04:	c3                   	retq   

0000000000009c05 <safe_lshift_func_uint8_t_u_s>:
    9c05:	f3 0f 1e fa          	endbr64 
    9c09:	55                   	push   %rbp
    9c0a:	48 89 e5             	mov    %rsp,%rbp
    9c0d:	89 f8                	mov    %edi,%eax
    9c0f:	89 75 f8             	mov    %esi,-0x8(%rbp)
    9c12:	88 45 fc             	mov    %al,-0x4(%rbp)
    9c15:	83 7d f8 00          	cmpl   $0x0,-0x8(%rbp)
    9c19:	78 2b                	js     9c46 <safe_lshift_func_uint8_t_u_s+0x41>
    9c1b:	83 7d f8 1f          	cmpl   $0x1f,-0x8(%rbp)
    9c1f:	7f 25                	jg     9c46 <safe_lshift_func_uint8_t_u_s+0x41>
    9c21:	0f b6 55 fc          	movzbl -0x4(%rbp),%edx
    9c25:	8b 45 f8             	mov    -0x8(%rbp),%eax
    9c28:	be ff 00 00 00       	mov    $0xff,%esi
    9c2d:	89 c1                	mov    %eax,%ecx
    9c2f:	d3 fe                	sar    %cl,%esi
    9c31:	89 f0                	mov    %esi,%eax
    9c33:	39 c2                	cmp    %eax,%edx
    9c35:	7f 0f                	jg     9c46 <safe_lshift_func_uint8_t_u_s+0x41>
    9c37:	0f b6 55 fc          	movzbl -0x4(%rbp),%edx
    9c3b:	8b 45 f8             	mov    -0x8(%rbp),%eax
    9c3e:	89 c1                	mov    %eax,%ecx
    9c40:	d3 e2                	shl    %cl,%edx
    9c42:	89 d0                	mov    %edx,%eax
    9c44:	eb 04                	jmp    9c4a <safe_lshift_func_uint8_t_u_s+0x45>
    9c46:	0f b6 45 fc          	movzbl -0x4(%rbp),%eax
    9c4a:	5d                   	pop    %rbp
    9c4b:	c3                   	retq   

0000000000009c4c <safe_lshift_func_uint8_t_u_u>:
    9c4c:	f3 0f 1e fa          	endbr64 
    9c50:	55                   	push   %rbp
    9c51:	48 89 e5             	mov    %rsp,%rbp
    9c54:	89 f8                	mov    %edi,%eax
    9c56:	89 75 f8             	mov    %esi,-0x8(%rbp)
    9c59:	88 45 fc             	mov    %al,-0x4(%rbp)
    9c5c:	83 7d f8 1f          	cmpl   $0x1f,-0x8(%rbp)
    9c60:	77 25                	ja     9c87 <safe_lshift_func_uint8_t_u_u+0x3b>
    9c62:	0f b6 55 fc          	movzbl -0x4(%rbp),%edx
    9c66:	8b 45 f8             	mov    -0x8(%rbp),%eax
    9c69:	be ff 00 00 00       	mov    $0xff,%esi
    9c6e:	89 c1                	mov    %eax,%ecx
    9c70:	d3 fe                	sar    %cl,%esi
    9c72:	89 f0                	mov    %esi,%eax
    9c74:	39 c2                	cmp    %eax,%edx
    9c76:	7f 0f                	jg     9c87 <safe_lshift_func_uint8_t_u_u+0x3b>
    9c78:	0f b6 55 fc          	movzbl -0x4(%rbp),%edx
    9c7c:	8b 45 f8             	mov    -0x8(%rbp),%eax
    9c7f:	89 c1                	mov    %eax,%ecx
    9c81:	d3 e2                	shl    %cl,%edx
    9c83:	89 d0                	mov    %edx,%eax
    9c85:	eb 04                	jmp    9c8b <safe_lshift_func_uint8_t_u_u+0x3f>
    9c87:	0f b6 45 fc          	movzbl -0x4(%rbp),%eax
    9c8b:	5d                   	pop    %rbp
    9c8c:	c3                   	retq   

0000000000009c8d <safe_rshift_func_uint8_t_u_s>:
    9c8d:	f3 0f 1e fa          	endbr64 
    9c91:	55                   	push   %rbp
    9c92:	48 89 e5             	mov    %rsp,%rbp
    9c95:	89 f8                	mov    %edi,%eax
    9c97:	89 75 f8             	mov    %esi,-0x8(%rbp)
    9c9a:	88 45 fc             	mov    %al,-0x4(%rbp)
    9c9d:	83 7d f8 00          	cmpl   $0x0,-0x8(%rbp)
    9ca1:	78 15                	js     9cb8 <safe_rshift_func_uint8_t_u_s+0x2b>
    9ca3:	83 7d f8 1f          	cmpl   $0x1f,-0x8(%rbp)
    9ca7:	7f 0f                	jg     9cb8 <safe_rshift_func_uint8_t_u_s+0x2b>
    9ca9:	0f b6 55 fc          	movzbl -0x4(%rbp),%edx
    9cad:	8b 45 f8             	mov    -0x8(%rbp),%eax
    9cb0:	89 c1                	mov    %eax,%ecx
    9cb2:	d3 fa                	sar    %cl,%edx
    9cb4:	89 d0                	mov    %edx,%eax
    9cb6:	eb 04                	jmp    9cbc <safe_rshift_func_uint8_t_u_s+0x2f>
    9cb8:	0f b6 45 fc          	movzbl -0x4(%rbp),%eax
    9cbc:	5d                   	pop    %rbp
    9cbd:	c3                   	retq   

0000000000009cbe <safe_rshift_func_uint8_t_u_u>:
    9cbe:	f3 0f 1e fa          	endbr64 
    9cc2:	55                   	push   %rbp
    9cc3:	48 89 e5             	mov    %rsp,%rbp
    9cc6:	89 f8                	mov    %edi,%eax
    9cc8:	89 75 f8             	mov    %esi,-0x8(%rbp)
    9ccb:	88 45 fc             	mov    %al,-0x4(%rbp)
    9cce:	83 7d f8 1f          	cmpl   $0x1f,-0x8(%rbp)
    9cd2:	77 0f                	ja     9ce3 <safe_rshift_func_uint8_t_u_u+0x25>
    9cd4:	0f b6 55 fc          	movzbl -0x4(%rbp),%edx
    9cd8:	8b 45 f8             	mov    -0x8(%rbp),%eax
    9cdb:	89 c1                	mov    %eax,%ecx
    9cdd:	d3 fa                	sar    %cl,%edx
    9cdf:	89 d0                	mov    %edx,%eax
    9ce1:	eb 04                	jmp    9ce7 <safe_rshift_func_uint8_t_u_u+0x29>
    9ce3:	0f b6 45 fc          	movzbl -0x4(%rbp),%eax
    9ce7:	5d                   	pop    %rbp
    9ce8:	c3                   	retq   

0000000000009ce9 <safe_unary_minus_func_uint16_t_u>:
    9ce9:	f3 0f 1e fa          	endbr64 
    9ced:	55                   	push   %rbp
    9cee:	48 89 e5             	mov    %rsp,%rbp
    9cf1:	89 f8                	mov    %edi,%eax
    9cf3:	66 89 45 fc          	mov    %ax,-0x4(%rbp)
    9cf7:	0f b7 45 fc          	movzwl -0x4(%rbp),%eax
    9cfb:	f7 d8                	neg    %eax
    9cfd:	5d                   	pop    %rbp
    9cfe:	c3                   	retq   

0000000000009cff <safe_add_func_uint16_t_u_u>:
    9cff:	f3 0f 1e fa          	endbr64 
    9d03:	55                   	push   %rbp
    9d04:	48 89 e5             	mov    %rsp,%rbp
    9d07:	89 fa                	mov    %edi,%edx
    9d09:	89 f0                	mov    %esi,%eax
    9d0b:	66 89 55 fc          	mov    %dx,-0x4(%rbp)
    9d0f:	66 89 45 f8          	mov    %ax,-0x8(%rbp)
    9d13:	0f b7 55 fc          	movzwl -0x4(%rbp),%edx
    9d17:	0f b7 45 f8          	movzwl -0x8(%rbp),%eax
    9d1b:	01 d0                	add    %edx,%eax
    9d1d:	5d                   	pop    %rbp
    9d1e:	c3                   	retq   

0000000000009d1f <safe_sub_func_uint16_t_u_u>:
    9d1f:	f3 0f 1e fa          	endbr64 
    9d23:	55                   	push   %rbp
    9d24:	48 89 e5             	mov    %rsp,%rbp
    9d27:	89 fa                	mov    %edi,%edx
    9d29:	89 f0                	mov    %esi,%eax
    9d2b:	66 89 55 fc          	mov    %dx,-0x4(%rbp)
    9d2f:	66 89 45 f8          	mov    %ax,-0x8(%rbp)
    9d33:	0f b7 45 fc          	movzwl -0x4(%rbp),%eax
    9d37:	66 2b 45 f8          	sub    -0x8(%rbp),%ax
    9d3b:	5d                   	pop    %rbp
    9d3c:	c3                   	retq   

0000000000009d3d <safe_mul_func_uint16_t_u_u>:
    9d3d:	f3 0f 1e fa          	endbr64 
    9d41:	55                   	push   %rbp
    9d42:	48 89 e5             	mov    %rsp,%rbp
    9d45:	89 fa                	mov    %edi,%edx
    9d47:	89 f0                	mov    %esi,%eax
    9d49:	66 89 55 fc          	mov    %dx,-0x4(%rbp)
    9d4d:	66 89 45 f8          	mov    %ax,-0x8(%rbp)
    9d51:	0f b7 45 fc          	movzwl -0x4(%rbp),%eax
    9d55:	66 0f af 45 f8       	imul   -0x8(%rbp),%ax
    9d5a:	5d                   	pop    %rbp
    9d5b:	c3                   	retq   

0000000000009d5c <safe_mod_func_uint16_t_u_u>:
    9d5c:	f3 0f 1e fa          	endbr64 
    9d60:	55                   	push   %rbp
    9d61:	48 89 e5             	mov    %rsp,%rbp
    9d64:	89 fa                	mov    %edi,%edx
    9d66:	89 f0                	mov    %esi,%eax
    9d68:	66 89 55 fc          	mov    %dx,-0x4(%rbp)
    9d6c:	66 89 45 f8          	mov    %ax,-0x8(%rbp)
    9d70:	66 83 7d f8 00       	cmpw   $0x0,-0x8(%rbp)
    9d75:	74 11                	je     9d88 <safe_mod_func_uint16_t_u_u+0x2c>
    9d77:	0f b7 45 fc          	movzwl -0x4(%rbp),%eax
    9d7b:	ba 00 00 00 00       	mov    $0x0,%edx
    9d80:	66 f7 75 f8          	divw   -0x8(%rbp)
    9d84:	89 d0                	mov    %edx,%eax
    9d86:	eb 04                	jmp    9d8c <safe_mod_func_uint16_t_u_u+0x30>
    9d88:	0f b7 45 fc          	movzwl -0x4(%rbp),%eax
    9d8c:	5d                   	pop    %rbp
    9d8d:	c3                   	retq   

0000000000009d8e <safe_div_func_uint16_t_u_u>:
    9d8e:	f3 0f 1e fa          	endbr64 
    9d92:	55                   	push   %rbp
    9d93:	48 89 e5             	mov    %rsp,%rbp
    9d96:	89 fa                	mov    %edi,%edx
    9d98:	89 f0                	mov    %esi,%eax
    9d9a:	66 89 55 fc          	mov    %dx,-0x4(%rbp)
    9d9e:	66 89 45 f8          	mov    %ax,-0x8(%rbp)
    9da2:	66 83 7d f8 00       	cmpw   $0x0,-0x8(%rbp)
    9da7:	74 0f                	je     9db8 <safe_div_func_uint16_t_u_u+0x2a>
    9da9:	0f b7 45 fc          	movzwl -0x4(%rbp),%eax
    9dad:	ba 00 00 00 00       	mov    $0x0,%edx
    9db2:	66 f7 75 f8          	divw   -0x8(%rbp)
    9db6:	eb 04                	jmp    9dbc <safe_div_func_uint16_t_u_u+0x2e>
    9db8:	0f b7 45 fc          	movzwl -0x4(%rbp),%eax
    9dbc:	5d                   	pop    %rbp
    9dbd:	c3                   	retq   

0000000000009dbe <safe_lshift_func_uint16_t_u_s>:
    9dbe:	f3 0f 1e fa          	endbr64 
    9dc2:	55                   	push   %rbp
    9dc3:	48 89 e5             	mov    %rsp,%rbp
    9dc6:	89 f8                	mov    %edi,%eax
    9dc8:	89 75 f8             	mov    %esi,-0x8(%rbp)
    9dcb:	66 89 45 fc          	mov    %ax,-0x4(%rbp)
    9dcf:	83 7d f8 00          	cmpl   $0x0,-0x8(%rbp)
    9dd3:	78 2b                	js     9e00 <safe_lshift_func_uint16_t_u_s+0x42>
    9dd5:	83 7d f8 1f          	cmpl   $0x1f,-0x8(%rbp)
    9dd9:	7f 25                	jg     9e00 <safe_lshift_func_uint16_t_u_s+0x42>
    9ddb:	0f b7 55 fc          	movzwl -0x4(%rbp),%edx
    9ddf:	8b 45 f8             	mov    -0x8(%rbp),%eax
    9de2:	be ff ff 00 00       	mov    $0xffff,%esi
    9de7:	89 c1                	mov    %eax,%ecx
    9de9:	d3 fe                	sar    %cl,%esi
    9deb:	89 f0                	mov    %esi,%eax
    9ded:	39 c2                	cmp    %eax,%edx
    9def:	7f 0f                	jg     9e00 <safe_lshift_func_uint16_t_u_s+0x42>
    9df1:	0f b7 55 fc          	movzwl -0x4(%rbp),%edx
    9df5:	8b 45 f8             	mov    -0x8(%rbp),%eax
    9df8:	89 c1                	mov    %eax,%ecx
    9dfa:	d3 e2                	shl    %cl,%edx
    9dfc:	89 d0                	mov    %edx,%eax
    9dfe:	eb 04                	jmp    9e04 <safe_lshift_func_uint16_t_u_s+0x46>
    9e00:	0f b7 45 fc          	movzwl -0x4(%rbp),%eax
    9e04:	5d                   	pop    %rbp
    9e05:	c3                   	retq   

0000000000009e06 <safe_lshift_func_uint16_t_u_u>:
    9e06:	f3 0f 1e fa          	endbr64 
    9e0a:	55                   	push   %rbp
    9e0b:	48 89 e5             	mov    %rsp,%rbp
    9e0e:	89 f8                	mov    %edi,%eax
    9e10:	89 75 f8             	mov    %esi,-0x8(%rbp)
    9e13:	66 89 45 fc          	mov    %ax,-0x4(%rbp)
    9e17:	83 7d f8 1f          	cmpl   $0x1f,-0x8(%rbp)
    9e1b:	77 25                	ja     9e42 <safe_lshift_func_uint16_t_u_u+0x3c>
    9e1d:	0f b7 55 fc          	movzwl -0x4(%rbp),%edx
    9e21:	8b 45 f8             	mov    -0x8(%rbp),%eax
    9e24:	be ff ff 00 00       	mov    $0xffff,%esi
    9e29:	89 c1                	mov    %eax,%ecx
    9e2b:	d3 fe                	sar    %cl,%esi
    9e2d:	89 f0                	mov    %esi,%eax
    9e2f:	39 c2                	cmp    %eax,%edx
    9e31:	7f 0f                	jg     9e42 <safe_lshift_func_uint16_t_u_u+0x3c>
    9e33:	0f b7 55 fc          	movzwl -0x4(%rbp),%edx
    9e37:	8b 45 f8             	mov    -0x8(%rbp),%eax
    9e3a:	89 c1                	mov    %eax,%ecx
    9e3c:	d3 e2                	shl    %cl,%edx
    9e3e:	89 d0                	mov    %edx,%eax
    9e40:	eb 04                	jmp    9e46 <safe_lshift_func_uint16_t_u_u+0x40>
    9e42:	0f b7 45 fc          	movzwl -0x4(%rbp),%eax
    9e46:	5d                   	pop    %rbp
    9e47:	c3                   	retq   

0000000000009e48 <safe_rshift_func_uint16_t_u_s>:
    9e48:	f3 0f 1e fa          	endbr64 
    9e4c:	55                   	push   %rbp
    9e4d:	48 89 e5             	mov    %rsp,%rbp
    9e50:	89 f8                	mov    %edi,%eax
    9e52:	89 75 f8             	mov    %esi,-0x8(%rbp)
    9e55:	66 89 45 fc          	mov    %ax,-0x4(%rbp)
    9e59:	83 7d f8 00          	cmpl   $0x0,-0x8(%rbp)
    9e5d:	78 15                	js     9e74 <safe_rshift_func_uint16_t_u_s+0x2c>
    9e5f:	83 7d f8 1f          	cmpl   $0x1f,-0x8(%rbp)
    9e63:	7f 0f                	jg     9e74 <safe_rshift_func_uint16_t_u_s+0x2c>
    9e65:	0f b7 55 fc          	movzwl -0x4(%rbp),%edx
    9e69:	8b 45 f8             	mov    -0x8(%rbp),%eax
    9e6c:	89 c1                	mov    %eax,%ecx
    9e6e:	d3 fa                	sar    %cl,%edx
    9e70:	89 d0                	mov    %edx,%eax
    9e72:	eb 04                	jmp    9e78 <safe_rshift_func_uint16_t_u_s+0x30>
    9e74:	0f b7 45 fc          	movzwl -0x4(%rbp),%eax
    9e78:	5d                   	pop    %rbp
    9e79:	c3                   	retq   

0000000000009e7a <safe_rshift_func_uint16_t_u_u>:
    9e7a:	f3 0f 1e fa          	endbr64 
    9e7e:	55                   	push   %rbp
    9e7f:	48 89 e5             	mov    %rsp,%rbp
    9e82:	89 f8                	mov    %edi,%eax
    9e84:	89 75 f8             	mov    %esi,-0x8(%rbp)
    9e87:	66 89 45 fc          	mov    %ax,-0x4(%rbp)
    9e8b:	83 7d f8 1f          	cmpl   $0x1f,-0x8(%rbp)
    9e8f:	77 0f                	ja     9ea0 <safe_rshift_func_uint16_t_u_u+0x26>
    9e91:	0f b7 55 fc          	movzwl -0x4(%rbp),%edx
    9e95:	8b 45 f8             	mov    -0x8(%rbp),%eax
    9e98:	89 c1                	mov    %eax,%ecx
    9e9a:	d3 fa                	sar    %cl,%edx
    9e9c:	89 d0                	mov    %edx,%eax
    9e9e:	eb 04                	jmp    9ea4 <safe_rshift_func_uint16_t_u_u+0x2a>
    9ea0:	0f b7 45 fc          	movzwl -0x4(%rbp),%eax
    9ea4:	5d                   	pop    %rbp
    9ea5:	c3                   	retq   

0000000000009ea6 <safe_unary_minus_func_uint32_t_u>:
    9ea6:	f3 0f 1e fa          	endbr64 
    9eaa:	55                   	push   %rbp
    9eab:	48 89 e5             	mov    %rsp,%rbp
    9eae:	89 7d fc             	mov    %edi,-0x4(%rbp)
    9eb1:	8b 45 fc             	mov    -0x4(%rbp),%eax
    9eb4:	f7 d8                	neg    %eax
    9eb6:	5d                   	pop    %rbp
    9eb7:	c3                   	retq   

0000000000009eb8 <safe_add_func_uint32_t_u_u>:
    9eb8:	f3 0f 1e fa          	endbr64 
    9ebc:	55                   	push   %rbp
    9ebd:	48 89 e5             	mov    %rsp,%rbp
    9ec0:	89 7d fc             	mov    %edi,-0x4(%rbp)
    9ec3:	89 75 f8             	mov    %esi,-0x8(%rbp)
    9ec6:	8b 55 fc             	mov    -0x4(%rbp),%edx
    9ec9:	8b 45 f8             	mov    -0x8(%rbp),%eax
    9ecc:	01 d0                	add    %edx,%eax
    9ece:	5d                   	pop    %rbp
    9ecf:	c3                   	retq   

0000000000009ed0 <safe_sub_func_uint32_t_u_u>:
    9ed0:	f3 0f 1e fa          	endbr64 
    9ed4:	55                   	push   %rbp
    9ed5:	48 89 e5             	mov    %rsp,%rbp
    9ed8:	89 7d fc             	mov    %edi,-0x4(%rbp)
    9edb:	89 75 f8             	mov    %esi,-0x8(%rbp)
    9ede:	8b 45 fc             	mov    -0x4(%rbp),%eax
    9ee1:	2b 45 f8             	sub    -0x8(%rbp),%eax
    9ee4:	5d                   	pop    %rbp
    9ee5:	c3                   	retq   

0000000000009ee6 <safe_mul_func_uint32_t_u_u>:
    9ee6:	f3 0f 1e fa          	endbr64 
    9eea:	55                   	push   %rbp
    9eeb:	48 89 e5             	mov    %rsp,%rbp
    9eee:	89 7d fc             	mov    %edi,-0x4(%rbp)
    9ef1:	89 75 f8             	mov    %esi,-0x8(%rbp)
    9ef4:	8b 45 fc             	mov    -0x4(%rbp),%eax
    9ef7:	0f af 45 f8          	imul   -0x8(%rbp),%eax
    9efb:	5d                   	pop    %rbp
    9efc:	c3                   	retq   

0000000000009efd <safe_mod_func_uint32_t_u_u>:
    9efd:	f3 0f 1e fa          	endbr64 
    9f01:	55                   	push   %rbp
    9f02:	48 89 e5             	mov    %rsp,%rbp
    9f05:	89 7d fc             	mov    %edi,-0x4(%rbp)
    9f08:	89 75 f8             	mov    %esi,-0x8(%rbp)
    9f0b:	83 7d f8 00          	cmpl   $0x0,-0x8(%rbp)
    9f0f:	74 0f                	je     9f20 <safe_mod_func_uint32_t_u_u+0x23>
    9f11:	8b 45 fc             	mov    -0x4(%rbp),%eax
    9f14:	ba 00 00 00 00       	mov    $0x0,%edx
    9f19:	f7 75 f8             	divl   -0x8(%rbp)
    9f1c:	89 d0                	mov    %edx,%eax
    9f1e:	eb 03                	jmp    9f23 <safe_mod_func_uint32_t_u_u+0x26>
    9f20:	8b 45 fc             	mov    -0x4(%rbp),%eax
    9f23:	5d                   	pop    %rbp
    9f24:	c3                   	retq   

0000000000009f25 <safe_div_func_uint32_t_u_u>:
    9f25:	f3 0f 1e fa          	endbr64 
    9f29:	55                   	push   %rbp
    9f2a:	48 89 e5             	mov    %rsp,%rbp
    9f2d:	89 7d fc             	mov    %edi,-0x4(%rbp)
    9f30:	89 75 f8             	mov    %esi,-0x8(%rbp)
    9f33:	83 7d f8 00          	cmpl   $0x0,-0x8(%rbp)
    9f37:	74 0d                	je     9f46 <safe_div_func_uint32_t_u_u+0x21>
    9f39:	8b 45 fc             	mov    -0x4(%rbp),%eax
    9f3c:	ba 00 00 00 00       	mov    $0x0,%edx
    9f41:	f7 75 f8             	divl   -0x8(%rbp)
    9f44:	eb 03                	jmp    9f49 <safe_div_func_uint32_t_u_u+0x24>
    9f46:	8b 45 fc             	mov    -0x4(%rbp),%eax
    9f49:	5d                   	pop    %rbp
    9f4a:	c3                   	retq   

0000000000009f4b <safe_lshift_func_uint32_t_u_s>:
    9f4b:	f3 0f 1e fa          	endbr64 
    9f4f:	55                   	push   %rbp
    9f50:	48 89 e5             	mov    %rsp,%rbp
    9f53:	89 7d fc             	mov    %edi,-0x4(%rbp)
    9f56:	89 75 f8             	mov    %esi,-0x8(%rbp)
    9f59:	83 7d f8 00          	cmpl   $0x0,-0x8(%rbp)
    9f5d:	78 27                	js     9f86 <safe_lshift_func_uint32_t_u_s+0x3b>
    9f5f:	83 7d f8 1f          	cmpl   $0x1f,-0x8(%rbp)
    9f63:	7f 21                	jg     9f86 <safe_lshift_func_uint32_t_u_s+0x3b>
    9f65:	8b 45 f8             	mov    -0x8(%rbp),%eax
    9f68:	ba ff ff ff ff       	mov    $0xffffffff,%edx
    9f6d:	89 c1                	mov    %eax,%ecx
    9f6f:	d3 ea                	shr    %cl,%edx
    9f71:	89 d0                	mov    %edx,%eax
    9f73:	39 45 fc             	cmp    %eax,-0x4(%rbp)
    9f76:	77 0e                	ja     9f86 <safe_lshift_func_uint32_t_u_s+0x3b>
    9f78:	8b 45 f8             	mov    -0x8(%rbp),%eax
    9f7b:	8b 55 fc             	mov    -0x4(%rbp),%edx
    9f7e:	89 c1                	mov    %eax,%ecx
    9f80:	d3 e2                	shl    %cl,%edx
    9f82:	89 d0                	mov    %edx,%eax
    9f84:	eb 03                	jmp    9f89 <safe_lshift_func_uint32_t_u_s+0x3e>
    9f86:	8b 45 fc             	mov    -0x4(%rbp),%eax
    9f89:	5d                   	pop    %rbp
    9f8a:	c3                   	retq   

0000000000009f8b <safe_lshift_func_uint32_t_u_u>:
    9f8b:	f3 0f 1e fa          	endbr64 
    9f8f:	55                   	push   %rbp
    9f90:	48 89 e5             	mov    %rsp,%rbp
    9f93:	89 7d fc             	mov    %edi,-0x4(%rbp)
    9f96:	89 75 f8             	mov    %esi,-0x8(%rbp)
    9f99:	83 7d f8 1f          	cmpl   $0x1f,-0x8(%rbp)
    9f9d:	77 21                	ja     9fc0 <safe_lshift_func_uint32_t_u_u+0x35>
    9f9f:	8b 45 f8             	mov    -0x8(%rbp),%eax
    9fa2:	ba ff ff ff ff       	mov    $0xffffffff,%edx
    9fa7:	89 c1                	mov    %eax,%ecx
    9fa9:	d3 ea                	shr    %cl,%edx
    9fab:	89 d0                	mov    %edx,%eax
    9fad:	39 45 fc             	cmp    %eax,-0x4(%rbp)
    9fb0:	77 0e                	ja     9fc0 <safe_lshift_func_uint32_t_u_u+0x35>
    9fb2:	8b 45 f8             	mov    -0x8(%rbp),%eax
    9fb5:	8b 55 fc             	mov    -0x4(%rbp),%edx
    9fb8:	89 c1                	mov    %eax,%ecx
    9fba:	d3 e2                	shl    %cl,%edx
    9fbc:	89 d0                	mov    %edx,%eax
    9fbe:	eb 03                	jmp    9fc3 <safe_lshift_func_uint32_t_u_u+0x38>
    9fc0:	8b 45 fc             	mov    -0x4(%rbp),%eax
    9fc3:	5d                   	pop    %rbp
    9fc4:	c3                   	retq   

0000000000009fc5 <safe_rshift_func_uint32_t_u_s>:
    9fc5:	f3 0f 1e fa          	endbr64 
    9fc9:	55                   	push   %rbp
    9fca:	48 89 e5             	mov    %rsp,%rbp
    9fcd:	89 7d fc             	mov    %edi,-0x4(%rbp)
    9fd0:	89 75 f8             	mov    %esi,-0x8(%rbp)
    9fd3:	83 7d f8 00          	cmpl   $0x0,-0x8(%rbp)
    9fd7:	78 14                	js     9fed <safe_rshift_func_uint32_t_u_s+0x28>
    9fd9:	83 7d f8 1f          	cmpl   $0x1f,-0x8(%rbp)
    9fdd:	7f 0e                	jg     9fed <safe_rshift_func_uint32_t_u_s+0x28>
    9fdf:	8b 45 f8             	mov    -0x8(%rbp),%eax
    9fe2:	8b 55 fc             	mov    -0x4(%rbp),%edx
    9fe5:	89 c1                	mov    %eax,%ecx
    9fe7:	d3 ea                	shr    %cl,%edx
    9fe9:	89 d0                	mov    %edx,%eax
    9feb:	eb 03                	jmp    9ff0 <safe_rshift_func_uint32_t_u_s+0x2b>
    9fed:	8b 45 fc             	mov    -0x4(%rbp),%eax
    9ff0:	5d                   	pop    %rbp
    9ff1:	c3                   	retq   

0000000000009ff2 <safe_rshift_func_uint32_t_u_u>:
    9ff2:	f3 0f 1e fa          	endbr64 
    9ff6:	55                   	push   %rbp
    9ff7:	48 89 e5             	mov    %rsp,%rbp
    9ffa:	89 7d fc             	mov    %edi,-0x4(%rbp)
    9ffd:	89 75 f8             	mov    %esi,-0x8(%rbp)
    a000:	83 7d f8 1f          	cmpl   $0x1f,-0x8(%rbp)
    a004:	77 0e                	ja     a014 <safe_rshift_func_uint32_t_u_u+0x22>
    a006:	8b 45 f8             	mov    -0x8(%rbp),%eax
    a009:	8b 55 fc             	mov    -0x4(%rbp),%edx
    a00c:	89 c1                	mov    %eax,%ecx
    a00e:	d3 ea                	shr    %cl,%edx
    a010:	89 d0                	mov    %edx,%eax
    a012:	eb 03                	jmp    a017 <safe_rshift_func_uint32_t_u_u+0x25>
    a014:	8b 45 fc             	mov    -0x4(%rbp),%eax
    a017:	5d                   	pop    %rbp
    a018:	c3                   	retq   

000000000000a019 <safe_unary_minus_func_uint64_t_u>:
    a019:	f3 0f 1e fa          	endbr64 
    a01d:	55                   	push   %rbp
    a01e:	48 89 e5             	mov    %rsp,%rbp
    a021:	48 89 7d f8          	mov    %rdi,-0x8(%rbp)
    a025:	48 8b 45 f8          	mov    -0x8(%rbp),%rax
    a029:	48 f7 d8             	neg    %rax
    a02c:	5d                   	pop    %rbp
    a02d:	c3                   	retq   

000000000000a02e <safe_add_func_uint64_t_u_u>:
    a02e:	f3 0f 1e fa          	endbr64 
    a032:	55                   	push   %rbp
    a033:	48 89 e5             	mov    %rsp,%rbp
    a036:	48 89 7d f8          	mov    %rdi,-0x8(%rbp)
    a03a:	48 89 75 f0          	mov    %rsi,-0x10(%rbp)
    a03e:	48 8b 55 f8          	mov    -0x8(%rbp),%rdx
    a042:	48 8b 45 f0          	mov    -0x10(%rbp),%rax
    a046:	48 01 d0             	add    %rdx,%rax
    a049:	5d                   	pop    %rbp
    a04a:	c3                   	retq   

000000000000a04b <safe_sub_func_uint64_t_u_u>:
    a04b:	f3 0f 1e fa          	endbr64 
    a04f:	55                   	push   %rbp
    a050:	48 89 e5             	mov    %rsp,%rbp
    a053:	48 89 7d f8          	mov    %rdi,-0x8(%rbp)
    a057:	48 89 75 f0          	mov    %rsi,-0x10(%rbp)
    a05b:	48 8b 45 f8          	mov    -0x8(%rbp),%rax
    a05f:	48 2b 45 f0          	sub    -0x10(%rbp),%rax
    a063:	5d                   	pop    %rbp
    a064:	c3                   	retq   

000000000000a065 <safe_mul_func_uint64_t_u_u>:
    a065:	f3 0f 1e fa          	endbr64 
    a069:	55                   	push   %rbp
    a06a:	48 89 e5             	mov    %rsp,%rbp
    a06d:	48 89 7d f8          	mov    %rdi,-0x8(%rbp)
    a071:	48 89 75 f0          	mov    %rsi,-0x10(%rbp)
    a075:	48 8b 45 f8          	mov    -0x8(%rbp),%rax
    a079:	48 0f af 45 f0       	imul   -0x10(%rbp),%rax
    a07e:	5d                   	pop    %rbp
    a07f:	c3                   	retq   

000000000000a080 <safe_mod_func_uint64_t_u_u>:
    a080:	f3 0f 1e fa          	endbr64 
    a084:	55                   	push   %rbp
    a085:	48 89 e5             	mov    %rsp,%rbp
    a088:	48 89 7d f8          	mov    %rdi,-0x8(%rbp)
    a08c:	48 89 75 f0          	mov    %rsi,-0x10(%rbp)
    a090:	48 83 7d f0 00       	cmpq   $0x0,-0x10(%rbp)
    a095:	74 12                	je     a0a9 <safe_mod_func_uint64_t_u_u+0x29>
    a097:	48 8b 45 f8          	mov    -0x8(%rbp),%rax
    a09b:	ba 00 00 00 00       	mov    $0x0,%edx
    a0a0:	48 f7 75 f0          	divq   -0x10(%rbp)
    a0a4:	48 89 d0             	mov    %rdx,%rax
    a0a7:	eb 04                	jmp    a0ad <safe_mod_func_uint64_t_u_u+0x2d>
    a0a9:	48 8b 45 f8          	mov    -0x8(%rbp),%rax
    a0ad:	5d                   	pop    %rbp
    a0ae:	c3                   	retq   

000000000000a0af <safe_div_func_uint64_t_u_u>:
    a0af:	f3 0f 1e fa          	endbr64 
    a0b3:	55                   	push   %rbp
    a0b4:	48 89 e5             	mov    %rsp,%rbp
    a0b7:	48 89 7d f8          	mov    %rdi,-0x8(%rbp)
    a0bb:	48 89 75 f0          	mov    %rsi,-0x10(%rbp)
    a0bf:	48 83 7d f0 00       	cmpq   $0x0,-0x10(%rbp)
    a0c4:	74 0f                	je     a0d5 <safe_div_func_uint64_t_u_u+0x26>
    a0c6:	48 8b 45 f8          	mov    -0x8(%rbp),%rax
    a0ca:	ba 00 00 00 00       	mov    $0x0,%edx
    a0cf:	48 f7 75 f0          	divq   -0x10(%rbp)
    a0d3:	eb 04                	jmp    a0d9 <safe_div_func_uint64_t_u_u+0x2a>
    a0d5:	48 8b 45 f8          	mov    -0x8(%rbp),%rax
    a0d9:	5d                   	pop    %rbp
    a0da:	c3                   	retq   

000000000000a0db <safe_lshift_func_uint64_t_u_s>:
    a0db:	f3 0f 1e fa          	endbr64 
    a0df:	55                   	push   %rbp
    a0e0:	48 89 e5             	mov    %rsp,%rbp
    a0e3:	48 89 7d f8          	mov    %rdi,-0x8(%rbp)
    a0e7:	89 75 f4             	mov    %esi,-0xc(%rbp)
    a0ea:	83 7d f4 00          	cmpl   $0x0,-0xc(%rbp)
    a0ee:	78 2f                	js     a11f <safe_lshift_func_uint64_t_u_s+0x44>
    a0f0:	83 7d f4 1f          	cmpl   $0x1f,-0xc(%rbp)
    a0f4:	7f 29                	jg     a11f <safe_lshift_func_uint64_t_u_s+0x44>
    a0f6:	8b 45 f4             	mov    -0xc(%rbp),%eax
    a0f9:	48 c7 c2 ff ff ff ff 	mov    $0xffffffffffffffff,%rdx
    a100:	89 c1                	mov    %eax,%ecx
    a102:	48 d3 ea             	shr    %cl,%rdx
    a105:	48 89 d0             	mov    %rdx,%rax
    a108:	48 39 45 f8          	cmp    %rax,-0x8(%rbp)
    a10c:	77 11                	ja     a11f <safe_lshift_func_uint64_t_u_s+0x44>
    a10e:	8b 45 f4             	mov    -0xc(%rbp),%eax
    a111:	48 8b 55 f8          	mov    -0x8(%rbp),%rdx
    a115:	89 c1                	mov    %eax,%ecx
    a117:	48 d3 e2             	shl    %cl,%rdx
    a11a:	48 89 d0             	mov    %rdx,%rax
    a11d:	eb 04                	jmp    a123 <safe_lshift_func_uint64_t_u_s+0x48>
    a11f:	48 8b 45 f8          	mov    -0x8(%rbp),%rax
    a123:	5d                   	pop    %rbp
    a124:	c3                   	retq   

000000000000a125 <safe_lshift_func_uint64_t_u_u>:
    a125:	f3 0f 1e fa          	endbr64 
    a129:	55                   	push   %rbp
    a12a:	48 89 e5             	mov    %rsp,%rbp
    a12d:	48 89 7d f8          	mov    %rdi,-0x8(%rbp)
    a131:	89 75 f4             	mov    %esi,-0xc(%rbp)
    a134:	83 7d f4 1f          	cmpl   $0x1f,-0xc(%rbp)
    a138:	77 29                	ja     a163 <safe_lshift_func_uint64_t_u_u+0x3e>
    a13a:	8b 45 f4             	mov    -0xc(%rbp),%eax
    a13d:	48 c7 c2 ff ff ff ff 	mov    $0xffffffffffffffff,%rdx
    a144:	89 c1                	mov    %eax,%ecx
    a146:	48 d3 ea             	shr    %cl,%rdx
    a149:	48 89 d0             	mov    %rdx,%rax
    a14c:	48 39 45 f8          	cmp    %rax,-0x8(%rbp)
    a150:	77 11                	ja     a163 <safe_lshift_func_uint64_t_u_u+0x3e>
    a152:	8b 45 f4             	mov    -0xc(%rbp),%eax
    a155:	48 8b 55 f8          	mov    -0x8(%rbp),%rdx
    a159:	89 c1                	mov    %eax,%ecx
    a15b:	48 d3 e2             	shl    %cl,%rdx
    a15e:	48 89 d0             	mov    %rdx,%rax
    a161:	eb 04                	jmp    a167 <safe_lshift_func_uint64_t_u_u+0x42>
    a163:	48 8b 45 f8          	mov    -0x8(%rbp),%rax
    a167:	5d                   	pop    %rbp
    a168:	c3                   	retq   

000000000000a169 <safe_rshift_func_uint64_t_u_s>:
    a169:	f3 0f 1e fa          	endbr64 
    a16d:	55                   	push   %rbp
    a16e:	48 89 e5             	mov    %rsp,%rbp
    a171:	48 89 7d f8          	mov    %rdi,-0x8(%rbp)
    a175:	89 75 f4             	mov    %esi,-0xc(%rbp)
    a178:	83 7d f4 00          	cmpl   $0x0,-0xc(%rbp)
    a17c:	78 17                	js     a195 <safe_rshift_func_uint64_t_u_s+0x2c>
    a17e:	83 7d f4 1f          	cmpl   $0x1f,-0xc(%rbp)
    a182:	7f 11                	jg     a195 <safe_rshift_func_uint64_t_u_s+0x2c>
    a184:	8b 45 f4             	mov    -0xc(%rbp),%eax
    a187:	48 8b 55 f8          	mov    -0x8(%rbp),%rdx
    a18b:	89 c1                	mov    %eax,%ecx
    a18d:	48 d3 ea             	shr    %cl,%rdx
    a190:	48 89 d0             	mov    %rdx,%rax
    a193:	eb 04                	jmp    a199 <safe_rshift_func_uint64_t_u_s+0x30>
    a195:	48 8b 45 f8          	mov    -0x8(%rbp),%rax
    a199:	5d                   	pop    %rbp
    a19a:	c3                   	retq   

000000000000a19b <safe_rshift_func_uint64_t_u_u>:
    a19b:	f3 0f 1e fa          	endbr64 
    a19f:	55                   	push   %rbp
    a1a0:	48 89 e5             	mov    %rsp,%rbp
    a1a3:	48 89 7d f8          	mov    %rdi,-0x8(%rbp)
    a1a7:	89 75 f4             	mov    %esi,-0xc(%rbp)
    a1aa:	83 7d f4 1f          	cmpl   $0x1f,-0xc(%rbp)
    a1ae:	77 11                	ja     a1c1 <safe_rshift_func_uint64_t_u_u+0x26>
    a1b0:	8b 45 f4             	mov    -0xc(%rbp),%eax
    a1b3:	48 8b 55 f8          	mov    -0x8(%rbp),%rdx
    a1b7:	89 c1                	mov    %eax,%ecx
    a1b9:	48 d3 ea             	shr    %cl,%rdx
    a1bc:	48 89 d0             	mov    %rdx,%rax
    a1bf:	eb 04                	jmp    a1c5 <safe_rshift_func_uint64_t_u_u+0x2a>
    a1c1:	48 8b 45 f8          	mov    -0x8(%rbp),%rax
    a1c5:	5d                   	pop    %rbp
    a1c6:	c3                   	retq   

000000000000a1c7 <safe_add_func_float_f_f>:
    a1c7:	f3 0f 1e fa          	endbr64 
    a1cb:	55                   	push   %rbp
    a1cc:	48 89 e5             	mov    %rsp,%rbp
    a1cf:	f3 0f 11 45 fc       	movss  %xmm0,-0x4(%rbp)
    a1d4:	f3 0f 11 4d f8       	movss  %xmm1,-0x8(%rbp)
    a1d9:	f3 0f 10 4d fc       	movss  -0x4(%rbp),%xmm1
    a1de:	f3 0f 10 05 b2 cb 00 	movss  0xcbb2(%rip),%xmm0        # 16d98 <l_3171.4692+0x18>
    a1e5:	00 
    a1e6:	f3 0f 59 c8          	mulss  %xmm0,%xmm1
    a1ea:	f3 0f 10 55 f8       	movss  -0x8(%rbp),%xmm2
    a1ef:	f3 0f 10 05 a1 cb 00 	movss  0xcba1(%rip),%xmm0        # 16d98 <l_3171.4692+0x18>
    a1f6:	00 
    a1f7:	f3 0f 59 c2          	mulss  %xmm2,%xmm0
    a1fb:	f3 0f 58 c1          	addss  %xmm1,%xmm0
    a1ff:	f3 0f 10 0d 99 cb 00 	movss  0xcb99(%rip),%xmm1        # 16da0 <l_3171.4692+0x20>
    a206:	00 
    a207:	0f 54 c1             	andps  %xmm1,%xmm0
    a20a:	0f 2f 05 9f cb 00 00 	comiss 0xcb9f(%rip),%xmm0        # 16db0 <l_3171.4692+0x30>
    a211:	76 07                	jbe    a21a <safe_add_func_float_f_f+0x53>
    a213:	f3 0f 10 45 fc       	movss  -0x4(%rbp),%xmm0
    a218:	eb 0a                	jmp    a224 <safe_add_func_float_f_f+0x5d>
    a21a:	f3 0f 10 45 fc       	movss  -0x4(%rbp),%xmm0
    a21f:	f3 0f 58 45 f8       	addss  -0x8(%rbp),%xmm0
    a224:	5d                   	pop    %rbp
    a225:	c3                   	retq   

000000000000a226 <safe_sub_func_float_f_f>:
    a226:	f3 0f 1e fa          	endbr64 
    a22a:	55                   	push   %rbp
    a22b:	48 89 e5             	mov    %rsp,%rbp
    a22e:	f3 0f 11 45 fc       	movss  %xmm0,-0x4(%rbp)
    a233:	f3 0f 11 4d f8       	movss  %xmm1,-0x8(%rbp)
    a238:	f3 0f 10 4d fc       	movss  -0x4(%rbp),%xmm1
    a23d:	f3 0f 10 05 53 cb 00 	movss  0xcb53(%rip),%xmm0        # 16d98 <l_3171.4692+0x18>
    a244:	00 
    a245:	f3 0f 59 c1          	mulss  %xmm1,%xmm0
    a249:	f3 0f 10 55 f8       	movss  -0x8(%rbp),%xmm2
    a24e:	f3 0f 10 0d 42 cb 00 	movss  0xcb42(%rip),%xmm1        # 16d98 <l_3171.4692+0x18>
    a255:	00 
    a256:	f3 0f 59 ca          	mulss  %xmm2,%xmm1
    a25a:	f3 0f 5c c1          	subss  %xmm1,%xmm0
    a25e:	f3 0f 10 0d 3a cb 00 	movss  0xcb3a(%rip),%xmm1        # 16da0 <l_3171.4692+0x20>
    a265:	00 
    a266:	0f 54 c1             	andps  %xmm1,%xmm0
    a269:	0f 2f 05 40 cb 00 00 	comiss 0xcb40(%rip),%xmm0        # 16db0 <l_3171.4692+0x30>
    a270:	76 07                	jbe    a279 <safe_sub_func_float_f_f+0x53>
    a272:	f3 0f 10 45 fc       	movss  -0x4(%rbp),%xmm0
    a277:	eb 0a                	jmp    a283 <safe_sub_func_float_f_f+0x5d>
    a279:	f3 0f 10 45 fc       	movss  -0x4(%rbp),%xmm0
    a27e:	f3 0f 5c 45 f8       	subss  -0x8(%rbp),%xmm0
    a283:	5d                   	pop    %rbp
    a284:	c3                   	retq   

000000000000a285 <safe_mul_func_float_f_f>:
    a285:	f3 0f 1e fa          	endbr64 
    a289:	55                   	push   %rbp
    a28a:	48 89 e5             	mov    %rsp,%rbp
    a28d:	f3 0f 11 45 fc       	movss  %xmm0,-0x4(%rbp)
    a292:	f3 0f 11 4d f8       	movss  %xmm1,-0x8(%rbp)
    a297:	f3 0f 10 4d fc       	movss  -0x4(%rbp),%xmm1
    a29c:	f3 0f 10 05 10 cb 00 	movss  0xcb10(%rip),%xmm0        # 16db4 <l_3171.4692+0x34>
    a2a3:	00 
    a2a4:	f3 0f 59 c8          	mulss  %xmm0,%xmm1
    a2a8:	f3 0f 10 55 f8       	movss  -0x8(%rbp),%xmm2
    a2ad:	f3 0f 10 05 03 cb 00 	movss  0xcb03(%rip),%xmm0        # 16db8 <l_3171.4692+0x38>
    a2b4:	00 
    a2b5:	f3 0f 59 c2          	mulss  %xmm2,%xmm0
    a2b9:	f3 0f 59 c1          	mulss  %xmm1,%xmm0
    a2bd:	f3 0f 10 0d db ca 00 	movss  0xcadb(%rip),%xmm1        # 16da0 <l_3171.4692+0x20>
    a2c4:	00 
    a2c5:	0f 54 c1             	andps  %xmm1,%xmm0
    a2c8:	0f 2f 05 ed ca 00 00 	comiss 0xcaed(%rip),%xmm0        # 16dbc <l_3171.4692+0x3c>
    a2cf:	76 07                	jbe    a2d8 <safe_mul_func_float_f_f+0x53>
    a2d1:	f3 0f 10 45 fc       	movss  -0x4(%rbp),%xmm0
    a2d6:	eb 0a                	jmp    a2e2 <safe_mul_func_float_f_f+0x5d>
    a2d8:	f3 0f 10 45 fc       	movss  -0x4(%rbp),%xmm0
    a2dd:	f3 0f 59 45 f8       	mulss  -0x8(%rbp),%xmm0
    a2e2:	5d                   	pop    %rbp
    a2e3:	c3                   	retq   

000000000000a2e4 <safe_div_func_float_f_f>:
    a2e4:	f3 0f 1e fa          	endbr64 
    a2e8:	55                   	push   %rbp
    a2e9:	48 89 e5             	mov    %rsp,%rbp
    a2ec:	f3 0f 11 45 fc       	movss  %xmm0,-0x4(%rbp)
    a2f1:	f3 0f 11 4d f8       	movss  %xmm1,-0x8(%rbp)
    a2f6:	f3 0f 10 45 f8       	movss  -0x8(%rbp),%xmm0
    a2fb:	f3 0f 10 0d 9d ca 00 	movss  0xca9d(%rip),%xmm1        # 16da0 <l_3171.4692+0x20>
    a302:	00 
    a303:	0f 54 c8             	andps  %xmm0,%xmm1
    a306:	f3 0f 10 05 b2 ca 00 	movss  0xcab2(%rip),%xmm0        # 16dc0 <l_3171.4692+0x40>
    a30d:	00 
    a30e:	0f 2f c1             	comiss %xmm1,%xmm0
    a311:	0f 97 c0             	seta   %al
    a314:	83 f0 01             	xor    $0x1,%eax
    a317:	84 c0                	test   %al,%al
    a319:	75 56                	jne    a371 <safe_div_func_float_f_f+0x8d>
    a31b:	66 0f ef c0          	pxor   %xmm0,%xmm0
    a31f:	0f 2e 45 f8          	ucomiss -0x8(%rbp),%xmm0
    a323:	7a 0a                	jp     a32f <safe_div_func_float_f_f+0x4b>
    a325:	66 0f ef c0          	pxor   %xmm0,%xmm0
    a329:	0f 2e 45 f8          	ucomiss -0x8(%rbp),%xmm0
    a32d:	74 4e                	je     a37d <safe_div_func_float_f_f+0x99>
    a32f:	f3 0f 10 4d fc       	movss  -0x4(%rbp),%xmm1
    a334:	f3 0f 10 05 88 ca 00 	movss  0xca88(%rip),%xmm0        # 16dc4 <l_3171.4692+0x44>
    a33b:	00 
    a33c:	f3 0f 59 c1          	mulss  %xmm1,%xmm0
    a340:	f3 0f 10 55 f8       	movss  -0x8(%rbp),%xmm2
    a345:	f3 0f 10 0d 7b ca 00 	movss  0xca7b(%rip),%xmm1        # 16dc8 <l_3171.4692+0x48>
    a34c:	00 
    a34d:	f3 0f 59 ca          	mulss  %xmm2,%xmm1
    a351:	f3 0f 5e c1          	divss  %xmm1,%xmm0
    a355:	f3 0f 10 0d 43 ca 00 	movss  0xca43(%rip),%xmm1        # 16da0 <l_3171.4692+0x20>
    a35c:	00 
    a35d:	0f 54 c1             	andps  %xmm1,%xmm0
    a360:	0f 2f 05 65 ca 00 00 	comiss 0xca65(%rip),%xmm0        # 16dcc <l_3171.4692+0x4c>
    a367:	0f 97 c0             	seta   %al
    a36a:	83 f0 01             	xor    $0x1,%eax
    a36d:	84 c0                	test   %al,%al
    a36f:	74 0c                	je     a37d <safe_div_func_float_f_f+0x99>
    a371:	f3 0f 10 45 fc       	movss  -0x4(%rbp),%xmm0
    a376:	f3 0f 5e 45 f8       	divss  -0x8(%rbp),%xmm0
    a37b:	eb 05                	jmp    a382 <safe_div_func_float_f_f+0x9e>
    a37d:	f3 0f 10 45 fc       	movss  -0x4(%rbp),%xmm0
    a382:	5d                   	pop    %rbp
    a383:	c3                   	retq   

000000000000a384 <safe_add_func_double_f_f>:
    a384:	f3 0f 1e fa          	endbr64 
    a388:	55                   	push   %rbp
    a389:	48 89 e5             	mov    %rsp,%rbp
    a38c:	f2 0f 11 45 f8       	movsd  %xmm0,-0x8(%rbp)
    a391:	f2 0f 11 4d f0       	movsd  %xmm1,-0x10(%rbp)
    a396:	f2 0f 10 4d f8       	movsd  -0x8(%rbp),%xmm1
    a39b:	f2 0f 10 05 2d ca 00 	movsd  0xca2d(%rip),%xmm0        # 16dd0 <l_3171.4692+0x50>
    a3a2:	00 
    a3a3:	f2 0f 59 c8          	mulsd  %xmm0,%xmm1
    a3a7:	f2 0f 10 55 f0       	movsd  -0x10(%rbp),%xmm2
    a3ac:	f2 0f 10 05 1c ca 00 	movsd  0xca1c(%rip),%xmm0        # 16dd0 <l_3171.4692+0x50>
    a3b3:	00 
    a3b4:	f2 0f 59 c2          	mulsd  %xmm2,%xmm0
    a3b8:	f2 0f 58 c1          	addsd  %xmm1,%xmm0
    a3bc:	f3 0f 7e 0d 1c ca 00 	movq   0xca1c(%rip),%xmm1        # 16de0 <l_3171.4692+0x60>
    a3c3:	00 
    a3c4:	66 0f 54 c1          	andpd  %xmm1,%xmm0
    a3c8:	66 0f 2f 05 20 ca 00 	comisd 0xca20(%rip),%xmm0        # 16df0 <l_3171.4692+0x70>
    a3cf:	00 
    a3d0:	76 07                	jbe    a3d9 <safe_add_func_double_f_f+0x55>
    a3d2:	f2 0f 10 45 f8       	movsd  -0x8(%rbp),%xmm0
    a3d7:	eb 0a                	jmp    a3e3 <safe_add_func_double_f_f+0x5f>
    a3d9:	f2 0f 10 45 f8       	movsd  -0x8(%rbp),%xmm0
    a3de:	f2 0f 58 45 f0       	addsd  -0x10(%rbp),%xmm0
    a3e3:	5d                   	pop    %rbp
    a3e4:	c3                   	retq   

000000000000a3e5 <safe_sub_func_double_f_f>:
    a3e5:	f3 0f 1e fa          	endbr64 
    a3e9:	55                   	push   %rbp
    a3ea:	48 89 e5             	mov    %rsp,%rbp
    a3ed:	f2 0f 11 45 f8       	movsd  %xmm0,-0x8(%rbp)
    a3f2:	f2 0f 11 4d f0       	movsd  %xmm1,-0x10(%rbp)
    a3f7:	f2 0f 10 4d f8       	movsd  -0x8(%rbp),%xmm1
    a3fc:	f2 0f 10 05 cc c9 00 	movsd  0xc9cc(%rip),%xmm0        # 16dd0 <l_3171.4692+0x50>
    a403:	00 
    a404:	f2 0f 59 c1          	mulsd  %xmm1,%xmm0
    a408:	f2 0f 10 55 f0       	movsd  -0x10(%rbp),%xmm2
    a40d:	f2 0f 10 0d bb c9 00 	movsd  0xc9bb(%rip),%xmm1        # 16dd0 <l_3171.4692+0x50>
    a414:	00 
    a415:	f2 0f 59 ca          	mulsd  %xmm2,%xmm1
    a419:	f2 0f 5c c1          	subsd  %xmm1,%xmm0
    a41d:	f3 0f 7e 0d bb c9 00 	movq   0xc9bb(%rip),%xmm1        # 16de0 <l_3171.4692+0x60>
    a424:	00 
    a425:	66 0f 54 c1          	andpd  %xmm1,%xmm0
    a429:	66 0f 2f 05 bf c9 00 	comisd 0xc9bf(%rip),%xmm0        # 16df0 <l_3171.4692+0x70>
    a430:	00 
    a431:	76 07                	jbe    a43a <safe_sub_func_double_f_f+0x55>
    a433:	f2 0f 10 45 f8       	movsd  -0x8(%rbp),%xmm0
    a438:	eb 0a                	jmp    a444 <safe_sub_func_double_f_f+0x5f>
    a43a:	f2 0f 10 45 f8       	movsd  -0x8(%rbp),%xmm0
    a43f:	f2 0f 5c 45 f0       	subsd  -0x10(%rbp),%xmm0
    a444:	5d                   	pop    %rbp
    a445:	c3                   	retq   

000000000000a446 <safe_mul_func_double_f_f>:
    a446:	f3 0f 1e fa          	endbr64 
    a44a:	55                   	push   %rbp
    a44b:	48 89 e5             	mov    %rsp,%rbp
    a44e:	f2 0f 11 45 f8       	movsd  %xmm0,-0x8(%rbp)
    a453:	f2 0f 11 4d f0       	movsd  %xmm1,-0x10(%rbp)
    a458:	f2 0f 10 4d f8       	movsd  -0x8(%rbp),%xmm1
    a45d:	f2 0f 10 05 93 c9 00 	movsd  0xc993(%rip),%xmm0        # 16df8 <l_3171.4692+0x78>
    a464:	00 
    a465:	f2 0f 59 c8          	mulsd  %xmm0,%xmm1
    a469:	f2 0f 10 55 f0       	movsd  -0x10(%rbp),%xmm2
    a46e:	f2 0f 10 05 8a c9 00 	movsd  0xc98a(%rip),%xmm0        # 16e00 <l_3171.4692+0x80>
    a475:	00 
    a476:	f2 0f 59 c2          	mulsd  %xmm2,%xmm0
    a47a:	f2 0f 59 c1          	mulsd  %xmm1,%xmm0
    a47e:	f3 0f 7e 0d 5a c9 00 	movq   0xc95a(%rip),%xmm1        # 16de0 <l_3171.4692+0x60>
    a485:	00 
    a486:	66 0f 54 c1          	andpd  %xmm1,%xmm0
    a48a:	66 0f 2f 05 76 c9 00 	comisd 0xc976(%rip),%xmm0        # 16e08 <l_3171.4692+0x88>
    a491:	00 
    a492:	76 07                	jbe    a49b <safe_mul_func_double_f_f+0x55>
    a494:	f2 0f 10 45 f8       	movsd  -0x8(%rbp),%xmm0
    a499:	eb 0a                	jmp    a4a5 <safe_mul_func_double_f_f+0x5f>
    a49b:	f2 0f 10 45 f8       	movsd  -0x8(%rbp),%xmm0
    a4a0:	f2 0f 59 45 f0       	mulsd  -0x10(%rbp),%xmm0
    a4a5:	5d                   	pop    %rbp
    a4a6:	c3                   	retq   

000000000000a4a7 <safe_div_func_double_f_f>:
    a4a7:	f3 0f 1e fa          	endbr64 
    a4ab:	55                   	push   %rbp
    a4ac:	48 89 e5             	mov    %rsp,%rbp
    a4af:	f2 0f 11 45 f8       	movsd  %xmm0,-0x8(%rbp)
    a4b4:	f2 0f 11 4d f0       	movsd  %xmm1,-0x10(%rbp)
    a4b9:	f2 0f 10 45 f0       	movsd  -0x10(%rbp),%xmm0
    a4be:	f3 0f 7e 0d 1a c9 00 	movq   0xc91a(%rip),%xmm1        # 16de0 <l_3171.4692+0x60>
    a4c5:	00 
    a4c6:	66 0f 54 c8          	andpd  %xmm0,%xmm1
    a4ca:	f2 0f 10 05 3e c9 00 	movsd  0xc93e(%rip),%xmm0        # 16e10 <l_3171.4692+0x90>
    a4d1:	00 
    a4d2:	66 0f 2f c1          	comisd %xmm1,%xmm0
    a4d6:	0f 97 c0             	seta   %al
    a4d9:	83 f0 01             	xor    $0x1,%eax
    a4dc:	84 c0                	test   %al,%al
    a4de:	75 5a                	jne    a53a <safe_div_func_double_f_f+0x93>
    a4e0:	66 0f ef c0          	pxor   %xmm0,%xmm0
    a4e4:	66 0f 2e 45 f0       	ucomisd -0x10(%rbp),%xmm0
    a4e9:	7a 0b                	jp     a4f6 <safe_div_func_double_f_f+0x4f>
    a4eb:	66 0f ef c0          	pxor   %xmm0,%xmm0
    a4ef:	66 0f 2e 45 f0       	ucomisd -0x10(%rbp),%xmm0
    a4f4:	74 50                	je     a546 <safe_div_func_double_f_f+0x9f>
    a4f6:	f2 0f 10 4d f8       	movsd  -0x8(%rbp),%xmm1
    a4fb:	f2 0f 10 05 15 c9 00 	movsd  0xc915(%rip),%xmm0        # 16e18 <l_3171.4692+0x98>
    a502:	00 
    a503:	f2 0f 59 c1          	mulsd  %xmm1,%xmm0
    a507:	f2 0f 10 55 f0       	movsd  -0x10(%rbp),%xmm2
    a50c:	f2 0f 10 0d 0c c9 00 	movsd  0xc90c(%rip),%xmm1        # 16e20 <l_3171.4692+0xa0>
    a513:	00 
    a514:	f2 0f 59 ca          	mulsd  %xmm2,%xmm1
    a518:	f2 0f 5e c1          	divsd  %xmm1,%xmm0
    a51c:	f3 0f 7e 0d bc c8 00 	movq   0xc8bc(%rip),%xmm1        # 16de0 <l_3171.4692+0x60>
    a523:	00 
    a524:	66 0f 54 c1          	andpd  %xmm1,%xmm0
    a528:	66 0f 2f 05 f8 c8 00 	comisd 0xc8f8(%rip),%xmm0        # 16e28 <l_3171.4692+0xa8>
    a52f:	00 
    a530:	0f 97 c0             	seta   %al
    a533:	83 f0 01             	xor    $0x1,%eax
    a536:	84 c0                	test   %al,%al
    a538:	74 0c                	je     a546 <safe_div_func_double_f_f+0x9f>
    a53a:	f2 0f 10 45 f8       	movsd  -0x8(%rbp),%xmm0
    a53f:	f2 0f 5e 45 f0       	divsd  -0x10(%rbp),%xmm0
    a544:	eb 05                	jmp    a54b <safe_div_func_double_f_f+0xa4>
    a546:	f2 0f 10 45 f8       	movsd  -0x8(%rbp),%xmm0
    a54b:	5d                   	pop    %rbp
    a54c:	c3                   	retq   

000000000000a54d <safe_convert_func_float_to_int32_t>:
    a54d:	f3 0f 1e fa          	endbr64 
    a551:	55                   	push   %rbp
    a552:	48 89 e5             	mov    %rsp,%rbp
    a555:	f3 0f 11 45 fc       	movss  %xmm0,-0x4(%rbp)
    a55a:	f3 0f 10 05 ce c8 00 	movss  0xc8ce(%rip),%xmm0        # 16e30 <l_3171.4692+0xb0>
    a561:	00 
    a562:	0f 2f 45 fc          	comiss -0x4(%rbp),%xmm0
    a566:	0f 93 c0             	setae  %al
    a569:	83 f0 01             	xor    $0x1,%eax
    a56c:	84 c0                	test   %al,%al
    a56e:	74 21                	je     a591 <safe_convert_func_float_to_int32_t+0x44>
    a570:	f3 0f 10 45 fc       	movss  -0x4(%rbp),%xmm0
    a575:	0f 2f 05 b8 c8 00 00 	comiss 0xc8b8(%rip),%xmm0        # 16e34 <l_3171.4692+0xb4>
    a57c:	0f 93 c0             	setae  %al
    a57f:	83 f0 01             	xor    $0x1,%eax
    a582:	84 c0                	test   %al,%al
    a584:	74 0b                	je     a591 <safe_convert_func_float_to_int32_t+0x44>
    a586:	f3 0f 10 45 fc       	movss  -0x4(%rbp),%xmm0
    a58b:	f3 0f 2c c0          	cvttss2si %xmm0,%eax
    a58f:	eb 05                	jmp    a596 <safe_convert_func_float_to_int32_t+0x49>
    a591:	b8 ff ff ff 7f       	mov    $0x7fffffff,%eax
    a596:	5d                   	pop    %rbp
    a597:	c3                   	retq   

000000000000a598 <crc32_gentab>:
    a598:	f3 0f 1e fa          	endbr64 
    a59c:	55                   	push   %rbp
    a59d:	48 89 e5             	mov    %rsp,%rbp
    a5a0:	c7 45 fc 20 83 b8 ed 	movl   $0xedb88320,-0x4(%rbp)
    a5a7:	c7 45 f4 00 00 00 00 	movl   $0x0,-0xc(%rbp)
    a5ae:	eb 51                	jmp    a601 <crc32_gentab+0x69>
    a5b0:	8b 45 f4             	mov    -0xc(%rbp),%eax
    a5b3:	89 45 f0             	mov    %eax,-0x10(%rbp)
    a5b6:	c7 45 f8 08 00 00 00 	movl   $0x8,-0x8(%rbp)
    a5bd:	eb 1e                	jmp    a5dd <crc32_gentab+0x45>
    a5bf:	8b 45 f0             	mov    -0x10(%rbp),%eax
    a5c2:	83 e0 01             	and    $0x1,%eax
    a5c5:	85 c0                	test   %eax,%eax
    a5c7:	74 0d                	je     a5d6 <crc32_gentab+0x3e>
    a5c9:	8b 45 f0             	mov    -0x10(%rbp),%eax
    a5cc:	d1 e8                	shr    %eax
    a5ce:	33 45 fc             	xor    -0x4(%rbp),%eax
    a5d1:	89 45 f0             	mov    %eax,-0x10(%rbp)
    a5d4:	eb 03                	jmp    a5d9 <crc32_gentab+0x41>
    a5d6:	d1 6d f0             	shrl   -0x10(%rbp)
    a5d9:	83 6d f8 01          	subl   $0x1,-0x8(%rbp)
    a5dd:	83 7d f8 00          	cmpl   $0x0,-0x8(%rbp)
    a5e1:	7f dc                	jg     a5bf <crc32_gentab+0x27>
    a5e3:	8b 45 f4             	mov    -0xc(%rbp),%eax
    a5e6:	48 98                	cltq   
    a5e8:	48 8d 0c 85 00 00 00 	lea    0x0(,%rax,4),%rcx
    a5ef:	00 
    a5f0:	48 8d 15 49 3e 01 00 	lea    0x13e49(%rip),%rdx        # 1e440 <crc32_tab>
    a5f7:	8b 45 f0             	mov    -0x10(%rbp),%eax
    a5fa:	89 04 11             	mov    %eax,(%rcx,%rdx,1)
    a5fd:	83 45 f4 01          	addl   $0x1,-0xc(%rbp)
    a601:	81 7d f4 ff 00 00 00 	cmpl   $0xff,-0xc(%rbp)
    a608:	7e a6                	jle    a5b0 <crc32_gentab+0x18>
    a60a:	90                   	nop
    a60b:	90                   	nop
    a60c:	5d                   	pop    %rbp
    a60d:	c3                   	retq   

000000000000a60e <crc32_byte>:
    a60e:	f3 0f 1e fa          	endbr64 
    a612:	55                   	push   %rbp
    a613:	48 89 e5             	mov    %rsp,%rbp
    a616:	89 f8                	mov    %edi,%eax
    a618:	88 45 fc             	mov    %al,-0x4(%rbp)
    a61b:	8b 05 ff f9 00 00    	mov    0xf9ff(%rip),%eax        # 1a020 <crc32_context>
    a621:	c1 e8 08             	shr    $0x8,%eax
    a624:	89 c1                	mov    %eax,%ecx
    a626:	0f b6 55 fc          	movzbl -0x4(%rbp),%edx
    a62a:	8b 05 f0 f9 00 00    	mov    0xf9f0(%rip),%eax        # 1a020 <crc32_context>
    a630:	31 d0                	xor    %edx,%eax
    a632:	0f b6 c0             	movzbl %al,%eax
    a635:	89 c0                	mov    %eax,%eax
    a637:	48 8d 14 85 00 00 00 	lea    0x0(,%rax,4),%rdx
    a63e:	00 
    a63f:	48 8d 05 fa 3d 01 00 	lea    0x13dfa(%rip),%rax        # 1e440 <crc32_tab>
    a646:	8b 04 02             	mov    (%rdx,%rax,1),%eax
    a649:	31 c8                	xor    %ecx,%eax
    a64b:	89 05 cf f9 00 00    	mov    %eax,0xf9cf(%rip)        # 1a020 <crc32_context>
    a651:	90                   	nop
    a652:	5d                   	pop    %rbp
    a653:	c3                   	retq   

000000000000a654 <crc32_8bytes>:
    a654:	f3 0f 1e fa          	endbr64 
    a658:	55                   	push   %rbp
    a659:	48 89 e5             	mov    %rsp,%rbp
    a65c:	48 83 ec 08          	sub    $0x8,%rsp
    a660:	48 89 7d f8          	mov    %rdi,-0x8(%rbp)
    a664:	48 8b 45 f8          	mov    -0x8(%rbp),%rax
    a668:	0f b6 c0             	movzbl %al,%eax
    a66b:	89 c7                	mov    %eax,%edi
    a66d:	e8 9c ff ff ff       	callq  a60e <crc32_byte>
    a672:	48 8b 45 f8          	mov    -0x8(%rbp),%rax
    a676:	48 c1 e8 08          	shr    $0x8,%rax
    a67a:	0f b6 c0             	movzbl %al,%eax
    a67d:	89 c7                	mov    %eax,%edi
    a67f:	e8 8a ff ff ff       	callq  a60e <crc32_byte>
    a684:	48 8b 45 f8          	mov    -0x8(%rbp),%rax
    a688:	48 c1 e8 10          	shr    $0x10,%rax
    a68c:	0f b6 c0             	movzbl %al,%eax
    a68f:	89 c7                	mov    %eax,%edi
    a691:	e8 78 ff ff ff       	callq  a60e <crc32_byte>
    a696:	48 8b 45 f8          	mov    -0x8(%rbp),%rax
    a69a:	48 c1 e8 18          	shr    $0x18,%rax
    a69e:	0f b6 c0             	movzbl %al,%eax
    a6a1:	89 c7                	mov    %eax,%edi
    a6a3:	e8 66 ff ff ff       	callq  a60e <crc32_byte>
    a6a8:	48 8b 45 f8          	mov    -0x8(%rbp),%rax
    a6ac:	48 c1 e8 20          	shr    $0x20,%rax
    a6b0:	0f b6 c0             	movzbl %al,%eax
    a6b3:	89 c7                	mov    %eax,%edi
    a6b5:	e8 54 ff ff ff       	callq  a60e <crc32_byte>
    a6ba:	48 8b 45 f8          	mov    -0x8(%rbp),%rax
    a6be:	48 c1 e8 28          	shr    $0x28,%rax
    a6c2:	0f b6 c0             	movzbl %al,%eax
    a6c5:	89 c7                	mov    %eax,%edi
    a6c7:	e8 42 ff ff ff       	callq  a60e <crc32_byte>
    a6cc:	48 8b 45 f8          	mov    -0x8(%rbp),%rax
    a6d0:	48 c1 e8 30          	shr    $0x30,%rax
    a6d4:	0f b6 c0             	movzbl %al,%eax
    a6d7:	89 c7                	mov    %eax,%edi
    a6d9:	e8 30 ff ff ff       	callq  a60e <crc32_byte>
    a6de:	48 8b 45 f8          	mov    -0x8(%rbp),%rax
    a6e2:	48 c1 e8 38          	shr    $0x38,%rax
    a6e6:	0f b6 c0             	movzbl %al,%eax
    a6e9:	89 c7                	mov    %eax,%edi
    a6eb:	e8 1e ff ff ff       	callq  a60e <crc32_byte>
    a6f0:	90                   	nop
    a6f1:	c9                   	leaveq 
    a6f2:	c3                   	retq   

000000000000a6f3 <transparent_crc>:
    a6f3:	f3 0f 1e fa          	endbr64 
    a6f7:	55                   	push   %rbp
    a6f8:	48 89 e5             	mov    %rsp,%rbp
    a6fb:	48 83 ec 20          	sub    $0x20,%rsp
    a6ff:	48 89 7d f8          	mov    %rdi,-0x8(%rbp)
    a703:	48 89 75 f0          	mov    %rsi,-0x10(%rbp)
    a707:	89 55 ec             	mov    %edx,-0x14(%rbp)
    a70a:	48 8b 45 f8          	mov    -0x8(%rbp),%rax
    a70e:	48 89 c7             	mov    %rax,%rdi
    a711:	e8 3e ff ff ff       	callq  a654 <crc32_8bytes>
    a716:	83 7d ec 00          	cmpl   $0x0,-0x14(%rbp)
    a71a:	74 22                	je     a73e <transparent_crc+0x4b>
    a71c:	8b 05 fe f8 00 00    	mov    0xf8fe(%rip),%eax        # 1a020 <crc32_context>
    a722:	f7 d0                	not    %eax
    a724:	89 c2                	mov    %eax,%edx
    a726:	48 8b 45 f0          	mov    -0x10(%rbp),%rax
    a72a:	48 89 c6             	mov    %rax,%rsi
    a72d:	48 8d 3d fc b8 00 00 	lea    0xb8fc(%rip),%rdi        # 16030 <_IO_stdin_used+0x30>
    a734:	b8 00 00 00 00       	mov    $0x0,%eax
    a739:	e8 42 e9 ff ff       	callq  9080 <printf@plt>
    a73e:	90                   	nop
    a73f:	c9                   	leaveq 
    a740:	c3                   	retq   

000000000000a741 <transparent_crc_bytes>:
    a741:	f3 0f 1e fa          	endbr64 
    a745:	55                   	push   %rbp
    a746:	48 89 e5             	mov    %rsp,%rbp
    a749:	48 83 ec 30          	sub    $0x30,%rsp
    a74d:	48 89 7d e8          	mov    %rdi,-0x18(%rbp)
    a751:	89 75 e4             	mov    %esi,-0x1c(%rbp)
    a754:	48 89 55 d8          	mov    %rdx,-0x28(%rbp)
    a758:	89 4d e0             	mov    %ecx,-0x20(%rbp)
    a75b:	c7 45 fc 00 00 00 00 	movl   $0x0,-0x4(%rbp)
    a762:	eb 1e                	jmp    a782 <transparent_crc_bytes+0x41>
    a764:	8b 45 fc             	mov    -0x4(%rbp),%eax
    a767:	48 63 d0             	movslq %eax,%rdx
    a76a:	48 8b 45 e8          	mov    -0x18(%rbp),%rax
    a76e:	48 01 d0             	add    %rdx,%rax
    a771:	0f b6 00             	movzbl (%rax),%eax
    a774:	0f b6 c0             	movzbl %al,%eax
    a777:	89 c7                	mov    %eax,%edi
    a779:	e8 90 fe ff ff       	callq  a60e <crc32_byte>
    a77e:	83 45 fc 01          	addl   $0x1,-0x4(%rbp)
    a782:	8b 45 fc             	mov    -0x4(%rbp),%eax
    a785:	3b 45 e4             	cmp    -0x1c(%rbp),%eax
    a788:	7c da                	jl     a764 <transparent_crc_bytes+0x23>
    a78a:	83 7d e0 00          	cmpl   $0x0,-0x20(%rbp)
    a78e:	74 22                	je     a7b2 <transparent_crc_bytes+0x71>
    a790:	8b 05 8a f8 00 00    	mov    0xf88a(%rip),%eax        # 1a020 <crc32_context>
    a796:	f7 d0                	not    %eax
    a798:	89 c2                	mov    %eax,%edx
    a79a:	48 8b 45 d8          	mov    -0x28(%rbp),%rax
    a79e:	48 89 c6             	mov    %rax,%rsi
    a7a1:	48 8d 3d 88 b8 00 00 	lea    0xb888(%rip),%rdi        # 16030 <_IO_stdin_used+0x30>
    a7a8:	b8 00 00 00 00       	mov    $0x0,%eax
    a7ad:	e8 ce e8 ff ff       	callq  9080 <printf@plt>
    a7b2:	90                   	nop
    a7b3:	c9                   	leaveq 
    a7b4:	c3                   	retq   

000000000000a7b5 <func_1>:
    a7b5:	f3 0f 1e fa          	endbr64 
    a7b9:	55                   	push   %rbp
    a7ba:	48 89 e5             	mov    %rsp,%rbp
    a7bd:	41 54                	push   %r12
    a7bf:	53                   	push   %rbx
    a7c0:	48 81 ec 60 08 00 00 	sub    $0x860,%rsp
    a7c7:	64 48 8b 04 25 28 00 	mov    %fs:0x28,%rax
    a7ce:	00 00 
    a7d0:	48 89 45 e8          	mov    %rax,-0x18(%rbp)
    a7d4:	31 c0                	xor    %eax,%eax
    a7d6:	66 c7 85 a8 f7 ff ff 	movw   $0x7,-0x858(%rbp)
    a7dd:	07 00 
    a7df:	c6 85 a0 f7 ff ff fc 	movb   $0xfc,-0x860(%rbp)
    a7e6:	c7 85 b4 f7 ff ff 01 	movl   $0x1,-0x84c(%rbp)
    a7ed:	00 00 00 
    a7f0:	c6 85 9f f7 ff ff f8 	movb   $0xf8,-0x861(%rbp)
    a7f7:	48 8d 85 40 f9 ff ff 	lea    -0x6c0(%rbp),%rax
    a7fe:	48 89 85 30 f8 ff ff 	mov    %rax,-0x7d0(%rbp)
    a805:	c7 85 c0 f9 ff ff 04 	movl   $0x4,-0x640(%rbp)
    a80c:	00 00 00 
    a80f:	c7 85 c4 f9 ff ff 04 	movl   $0x4,-0x63c(%rbp)
    a816:	00 00 00 
    a819:	c7 85 c8 f9 ff ff 9c 	movl   $0xf2ada89c,-0x638(%rbp)
    a820:	a8 ad f2 
    a823:	c7 85 cc f9 ff ff 04 	movl   $0x4,-0x634(%rbp)
    a82a:	00 00 00 
    a82d:	c7 85 d0 f9 ff ff 04 	movl   $0x4,-0x630(%rbp)
    a834:	00 00 00 
    a837:	c7 85 d4 f9 ff ff 01 	movl   $0x1,-0x62c(%rbp)
    a83e:	00 00 00 
    a841:	c7 85 d8 f9 ff ff 01 	movl   $0x1,-0x628(%rbp)
    a848:	00 00 00 
    a84b:	c7 85 dc f9 ff ff 04 	movl   $0x4,-0x624(%rbp)
    a852:	00 00 00 
    a855:	c7 85 e0 f9 ff ff 01 	movl   $0x1,-0x620(%rbp)
    a85c:	00 00 00 
    a85f:	c7 85 e4 f9 ff ff 04 	movl   $0x4,-0x61c(%rbp)
    a866:	00 00 00 
    a869:	c7 85 e8 f9 ff ff 01 	movl   $0x1,-0x618(%rbp)
    a870:	00 00 00 
    a873:	c7 85 ec f9 ff ff 01 	movl   $0x1,-0x614(%rbp)
    a87a:	00 00 00 
    a87d:	c7 85 f0 f9 ff ff 04 	movl   $0x4,-0x610(%rbp)
    a884:	00 00 00 
    a887:	c7 85 f4 f9 ff ff 04 	movl   $0x4,-0x60c(%rbp)
    a88e:	00 00 00 
    a891:	c7 85 f8 f9 ff ff 9c 	movl   $0xf2ada89c,-0x608(%rbp)
    a898:	a8 ad f2 
    a89b:	c7 85 fc f9 ff ff 04 	movl   $0x4,-0x604(%rbp)
    a8a2:	00 00 00 
    a8a5:	c7 85 00 fa ff ff 04 	movl   $0x4,-0x600(%rbp)
    a8ac:	00 00 00 
    a8af:	c7 85 04 fa ff ff 01 	movl   $0x1,-0x5fc(%rbp)
    a8b6:	00 00 00 
    a8b9:	c7 85 08 fa ff ff 01 	movl   $0x1,-0x5f8(%rbp)
    a8c0:	00 00 00 
    a8c3:	c7 85 0c fa ff ff 04 	movl   $0x4,-0x5f4(%rbp)
    a8ca:	00 00 00 
    a8cd:	c7 85 10 fa ff ff 01 	movl   $0x1,-0x5f0(%rbp)
    a8d4:	00 00 00 
    a8d7:	c7 85 14 fa ff ff 04 	movl   $0x4,-0x5ec(%rbp)
    a8de:	00 00 00 
    a8e1:	c7 85 18 fa ff ff 01 	movl   $0x1,-0x5e8(%rbp)
    a8e8:	00 00 00 
    a8eb:	c7 85 1c fa ff ff 01 	movl   $0x1,-0x5e4(%rbp)
    a8f2:	00 00 00 
    a8f5:	c7 85 20 fa ff ff 04 	movl   $0x4,-0x5e0(%rbp)
    a8fc:	00 00 00 
    a8ff:	c7 85 24 fa ff ff 04 	movl   $0x4,-0x5dc(%rbp)
    a906:	00 00 00 
    a909:	c7 85 28 fa ff ff 9c 	movl   $0xf2ada89c,-0x5d8(%rbp)
    a910:	a8 ad f2 
    a913:	c7 85 2c fa ff ff 04 	movl   $0x4,-0x5d4(%rbp)
    a91a:	00 00 00 
    a91d:	c7 85 30 fa ff ff 04 	movl   $0x4,-0x5d0(%rbp)
    a924:	00 00 00 
    a927:	c7 85 34 fa ff ff 01 	movl   $0x1,-0x5cc(%rbp)
    a92e:	00 00 00 
    a931:	c7 85 38 fa ff ff 01 	movl   $0x1,-0x5c8(%rbp)
    a938:	00 00 00 
    a93b:	c7 85 3c fa ff ff 04 	movl   $0x4,-0x5c4(%rbp)
    a942:	00 00 00 
    a945:	48 8d 05 bc 3a 01 00 	lea    0x13abc(%rip),%rax        # 1e408 <g_3105+0x8>
    a94c:	48 89 85 38 f8 ff ff 	mov    %rax,-0x7c8(%rbp)
    a953:	c7 85 c8 f7 ff ff 86 	movl   $0x71374686,-0x838(%rbp)
    a95a:	46 37 71 
    a95d:	48 8d 05 94 2e 01 00 	lea    0x12e94(%rip),%rax        # 1d7f8 <g_1323>
    a964:	48 89 85 40 f8 ff ff 	mov    %rax,-0x7c0(%rbp)
    a96b:	66 c7 85 aa f7 ff ff 	movw   $0x2581,-0x856(%rbp)
    a972:	81 25 
    a974:	c7 85 cc f7 ff ff 8b 	movl   $0x110ab08b,-0x834(%rbp)
    a97b:	b0 0a 11 
    a97e:	c7 85 d0 f7 ff ff 01 	movl   $0x1,-0x830(%rbp)
    a985:	00 00 00 
    a988:	48 8d 85 60 fd ff ff 	lea    -0x2a0(%rbp),%rax
    a98f:	48 8d 15 8a b7 00 00 	lea    0xb78a(%rip),%rdx        # 16120 <g_1320+0x18>
    a996:	b9 50 00 00 00       	mov    $0x50,%ecx
    a99b:	48 89 c7             	mov    %rax,%rdi
    a99e:	48 89 d6             	mov    %rdx,%rsi
    a9a1:	f3 48 a5             	rep movsq %ds:(%rsi),%es:(%rdi)
    a9a4:	c7 85 d4 f7 ff ff f9 	movl   $0xfffffff9,-0x82c(%rbp)
    a9ab:	ff ff ff 
    a9ae:	48 8d 05 fb 2f 01 00 	lea    0x12ffb(%rip),%rax        # 1d9b0 <g_2037>
    a9b5:	48 89 85 48 f8 ff ff 	mov    %rax,-0x7b8(%rbp)
    a9bc:	c7 85 d8 f7 ff ff 06 	movl   $0x6,-0x828(%rbp)
    a9c3:	00 00 00 
    a9c6:	c7 85 dc f7 ff ff 5b 	movl   $0x62dba75b,-0x824(%rbp)
    a9cd:	a7 db 62 
    a9d0:	66 c7 85 ac f7 ff ff 	movw   $0xcbb0,-0x854(%rbp)
    a9d7:	b0 cb 
    a9d9:	c7 85 e0 f7 ff ff 00 	movl   $0x0,-0x820(%rbp)
    a9e0:	00 00 00 
    a9e3:	48 c7 85 50 f8 ff ff 	movq   $0x0,-0x7b0(%rbp)
    a9ea:	00 00 00 00 
    a9ee:	66 c7 85 ae f7 ff ff 	movw   $0x4,-0x852(%rbp)
    a9f5:	04 00 
    a9f7:	48 c7 85 58 f8 ff ff 	movq   $0x0,-0x7a8(%rbp)
    a9fe:	00 00 00 00 
    aa02:	66 c7 85 b0 f7 ff ff 	movw   $0x9896,-0x850(%rbp)
    aa09:	96 98 
    aa0b:	48 8d 05 3a ff 00 00 	lea    0xff3a(%rip),%rax        # 1a94c <g_1891+0x2ec>
    aa12:	48 89 85 60 f8 ff ff 	mov    %rax,-0x7a0(%rbp)
    aa19:	48 8d 05 f8 39 01 00 	lea    0x139f8(%rip),%rax        # 1e418 <g_3104>
    aa20:	48 89 85 68 f8 ff ff 	mov    %rax,-0x798(%rbp)
    aa27:	48 c7 85 70 f8 ff ff 	movq   $0x3,-0x790(%rbp)
    aa2e:	03 00 00 00 
    aa32:	c7 85 b8 f7 ff ff 00 	movl   $0x0,-0x848(%rbp)
    aa39:	00 00 00 
    aa3c:	eb 1e                	jmp    aa5c <func_1+0x2a7>
    aa3e:	8b 85 b8 f7 ff ff    	mov    -0x848(%rbp),%eax
    aa44:	48 98                	cltq   
    aa46:	48 8d 15 4b 2f 01 00 	lea    0x12f4b(%rip),%rdx        # 1d998 <g_1983>
    aa4d:	48 89 94 c5 40 f9 ff 	mov    %rdx,-0x6c0(%rbp,%rax,8)
    aa54:	ff 
    aa55:	83 85 b8 f7 ff ff 01 	addl   $0x1,-0x848(%rbp)
    aa5c:	83 bd b8 f7 ff ff 01 	cmpl   $0x1,-0x848(%rbp)
    aa63:	7e d9                	jle    aa3e <func_1+0x289>
    aa65:	c7 85 b8 f7 ff ff 00 	movl   $0x0,-0x848(%rbp)
    aa6c:	00 00 00 
    aa6f:	eb 1a                	jmp    aa8b <func_1+0x2d6>
    aa71:	8b 85 b8 f7 ff ff    	mov    -0x848(%rbp),%eax
    aa77:	48 98                	cltq   
    aa79:	c7 84 85 34 f9 ff ff 	movl   $0x1,-0x6cc(%rbp,%rax,4)
    aa80:	01 00 00 00 
    aa84:	83 85 b8 f7 ff ff 01 	addl   $0x1,-0x848(%rbp)
    aa8b:	83 bd b8 f7 ff ff 02 	cmpl   $0x2,-0x848(%rbp)
    aa92:	7e dd                	jle    aa71 <func_1+0x2bc>
    aa94:	c7 85 b8 f7 ff ff 00 	movl   $0x0,-0x848(%rbp)
    aa9b:	00 00 00 
    aa9e:	eb 1a                	jmp    aaba <func_1+0x305>
    aaa0:	8b 85 b8 f7 ff ff    	mov    -0x848(%rbp),%eax
    aaa6:	48 98                	cltq   
    aaa8:	c7 84 85 50 f9 ff ff 	movl   $0x47ebc557,-0x6b0(%rbp,%rax,4)
    aaaf:	57 c5 eb 47 
    aab3:	83 85 b8 f7 ff ff 01 	addl   $0x1,-0x848(%rbp)
    aaba:	83 bd b8 f7 ff ff 08 	cmpl   $0x8,-0x848(%rbp)
    aac1:	7e dd                	jle    aaa0 <func_1+0x2eb>
    aac3:	c7 05 7b 3d 01 00 00 	movl   $0x0,0x13d7b(%rip)        # 1e848 <g_2>
    aaca:	00 00 00 
    aacd:	e9 cb 05 00 00       	jmpq   b09d <func_1+0x8e8>
    aad2:	c6 85 a1 f7 ff ff 08 	movb   $0x8,-0x85f(%rbp)
    aad9:	48 c7 85 78 f8 ff ff 	movq   $0x0,-0x788(%rbp)
    aae0:	00 00 00 00 
    aae4:	8b 05 5e 3d 01 00    	mov    0x13d5e(%rip),%eax        # 1e848 <g_2>
    aaea:	85 c0                	test   %eax,%eax
    aaec:	0f 85 bb 05 00 00    	jne    b0ad <func_1+0x8f8>
    aaf2:	c7 05 50 f5 00 00 fb 	movl   $0xfffffffb,0xf550(%rip)        # 1a04c <g_6+0xc>
    aaf9:	ff ff ff 
    aafc:	e9 7e 05 00 00       	jmpq   b07f <func_1+0x8ca>
    ab01:	48 8d 05 44 f5 00 00 	lea    0xf544(%rip),%rax        # 1a04c <g_6+0xc>
    ab08:	48 89 85 18 f8 ff ff 	mov    %rax,-0x7e8(%rbp)
    ab0f:	48 8d 85 18 f8 ff ff 	lea    -0x7e8(%rbp),%rax
    ab16:	48 89 85 20 f8 ff ff 	mov    %rax,-0x7e0(%rbp)
    ab1d:	66 c7 85 b2 f7 ff ff 	movw   $0xffff,-0x84e(%rbp)
    ab24:	ff ff 
    ab26:	c7 85 c0 fa ff ff 66 	movl   $0xb4215466,-0x540(%rbp)
    ab2d:	54 21 b4 
    ab30:	c7 85 c4 fa ff ff 30 	movl   $0x31448a30,-0x53c(%rbp)
    ab37:	8a 44 31 
    ab3a:	c7 85 c8 fa ff ff 02 	movl   $0x2,-0x538(%rbp)
    ab41:	00 00 00 
    ab44:	c7 85 cc fa ff ff 00 	movl   $0x0,-0x534(%rbp)
    ab4b:	00 00 00 
    ab4e:	c7 85 d0 fa ff ff 04 	movl   $0x4,-0x530(%rbp)
    ab55:	00 00 00 
    ab58:	c7 85 d4 fa ff ff 02 	movl   $0x2,-0x52c(%rbp)
    ab5f:	00 00 00 
    ab62:	c7 85 d8 fa ff ff 39 	movl   $0x957ad139,-0x528(%rbp)
    ab69:	d1 7a 95 
    ab6c:	c7 85 dc fa ff ff ff 	movl   $0xffffffff,-0x524(%rbp)
    ab73:	ff ff ff 
    ab76:	c7 85 e0 fa ff ff 39 	movl   $0x957ad139,-0x520(%rbp)
    ab7d:	d1 7a 95 
    ab80:	c7 85 e4 fa ff ff 02 	movl   $0x2,-0x51c(%rbp)
    ab87:	00 00 00 
    ab8a:	c7 85 e8 fa ff ff 04 	movl   $0x4,-0x518(%rbp)
    ab91:	00 00 00 
    ab94:	c7 85 ec fa ff ff 00 	movl   $0x0,-0x514(%rbp)
    ab9b:	00 00 00 
    ab9e:	c7 85 f0 fa ff ff 02 	movl   $0x2,-0x510(%rbp)
    aba5:	00 00 00 
    aba8:	c7 85 f4 fa ff ff 30 	movl   $0x31448a30,-0x50c(%rbp)
    abaf:	8a 44 31 
    abb2:	c7 85 f8 fa ff ff 66 	movl   $0xb4215466,-0x508(%rbp)
    abb9:	54 21 b4 
    abbc:	c7 85 fc fa ff ff 69 	movl   $0xf477d769,-0x504(%rbp)
    abc3:	d7 77 f4 
    abc6:	c7 85 00 fb ff ff 01 	movl   $0x1,-0x500(%rbp)
    abcd:	00 00 00 
    abd0:	c7 85 04 fb ff ff 7f 	movl   $0x27b5307f,-0x4fc(%rbp)
    abd7:	30 b5 27 
    abda:	c7 85 08 fb ff ff 7f 	movl   $0x27b5307f,-0x4f8(%rbp)
    abe1:	30 b5 27 
    abe4:	c7 85 0c fb ff ff 04 	movl   $0x4,-0x4f4(%rbp)
    abeb:	00 00 00 
    abee:	c7 85 10 fb ff ff 00 	movl   $0x0,-0x4f0(%rbp)
    abf5:	00 00 00 
    abf8:	c7 85 14 fb ff ff 04 	movl   $0x4,-0x4ec(%rbp)
    abff:	00 00 00 
    ac02:	c7 85 18 fb ff ff 7f 	movl   $0x27b5307f,-0x4e8(%rbp)
    ac09:	30 b5 27 
    ac0c:	c7 85 1c fb ff ff 7f 	movl   $0x27b5307f,-0x4e4(%rbp)
    ac13:	30 b5 27 
    ac16:	c7 85 20 fb ff ff 01 	movl   $0x1,-0x4e0(%rbp)
    ac1d:	00 00 00 
    ac20:	c7 85 24 fb ff ff 69 	movl   $0xf477d769,-0x4dc(%rbp)
    ac27:	d7 77 f4 
    ac2a:	c7 85 28 fb ff ff 66 	movl   $0xb4215466,-0x4d8(%rbp)
    ac31:	54 21 b4 
    ac34:	c7 85 2c fb ff ff 30 	movl   $0x31448a30,-0x4d4(%rbp)
    ac3b:	8a 44 31 
    ac3e:	c7 85 30 fb ff ff 02 	movl   $0x2,-0x4d0(%rbp)
    ac45:	00 00 00 
    ac48:	c7 85 34 fb ff ff 00 	movl   $0x0,-0x4cc(%rbp)
    ac4f:	00 00 00 
    ac52:	c7 85 38 fb ff ff 04 	movl   $0x4,-0x4c8(%rbp)
    ac59:	00 00 00 
    ac5c:	c7 85 3c fb ff ff 02 	movl   $0x2,-0x4c4(%rbp)
    ac63:	00 00 00 
    ac66:	c7 85 40 fb ff ff 39 	movl   $0x957ad139,-0x4c0(%rbp)
    ac6d:	d1 7a 95 
    ac70:	c7 85 44 fb ff ff ff 	movl   $0xffffffff,-0x4bc(%rbp)
    ac77:	ff ff ff 
    ac7a:	c7 85 48 fb ff ff 39 	movl   $0x957ad139,-0x4b8(%rbp)
    ac81:	d1 7a 95 
    ac84:	c7 85 4c fb ff ff 02 	movl   $0x2,-0x4b4(%rbp)
    ac8b:	00 00 00 
    ac8e:	c7 85 50 fb ff ff 04 	movl   $0x4,-0x4b0(%rbp)
    ac95:	00 00 00 
    ac98:	c7 85 54 fb ff ff 00 	movl   $0x0,-0x4ac(%rbp)
    ac9f:	00 00 00 
    aca2:	c7 85 58 fb ff ff 02 	movl   $0x2,-0x4a8(%rbp)
    aca9:	00 00 00 
    acac:	c7 85 5c fb ff ff 30 	movl   $0x31448a30,-0x4a4(%rbp)
    acb3:	8a 44 31 
    acb6:	c7 85 60 fb ff ff 66 	movl   $0xb4215466,-0x4a0(%rbp)
    acbd:	54 21 b4 
    acc0:	c7 85 64 fb ff ff 69 	movl   $0xf477d769,-0x49c(%rbp)
    acc7:	d7 77 f4 
    acca:	c7 85 68 fb ff ff 01 	movl   $0x1,-0x498(%rbp)
    acd1:	00 00 00 
    acd4:	c7 85 6c fb ff ff 7f 	movl   $0x27b5307f,-0x494(%rbp)
    acdb:	30 b5 27 
    acde:	c7 85 70 fb ff ff 7f 	movl   $0x27b5307f,-0x490(%rbp)
    ace5:	30 b5 27 
    ace8:	c7 85 74 fb ff ff 04 	movl   $0x4,-0x48c(%rbp)
    acef:	00 00 00 
    acf2:	c7 85 78 fb ff ff 00 	movl   $0x0,-0x488(%rbp)
    acf9:	00 00 00 
    acfc:	c7 85 7c fb ff ff 04 	movl   $0x4,-0x484(%rbp)
    ad03:	00 00 00 
    ad06:	c6 85 a2 f7 ff ff 69 	movb   $0x69,-0x85e(%rbp)
    ad0d:	48 8b 85 20 f8 ff ff 	mov    -0x7e0(%rbp),%rax
    ad14:	48 c7 00 00 00 00 00 	movq   $0x0,(%rax)
    ad1b:	c7 05 e7 f3 00 00 ee 	movl   $0xffffffee,0xf3e7(%rip)        # 1a10c <g_12>
    ad22:	ff ff ff 
    ad25:	e9 28 03 00 00       	jmpq   b052 <func_1+0x89d>
    ad2a:	c7 85 bc f7 ff ff 80 	movl   $0x11e2db80,-0x844(%rbp)
    ad31:	db e2 11 
    ad34:	c7 85 80 f9 ff ff 43 	movl   $0xbdf8d43,-0x680(%rbp)
    ad3b:	8d df 0b 
    ad3e:	c7 85 84 f9 ff ff 00 	movl   $0x0,-0x67c(%rbp)
    ad45:	00 00 00 
    ad48:	c7 85 88 f9 ff ff 43 	movl   $0xbdf8d43,-0x678(%rbp)
    ad4f:	8d df 0b 
    ad52:	c7 85 8c f9 ff ff 00 	movl   $0x0,-0x674(%rbp)
    ad59:	00 00 00 
    ad5c:	c7 85 90 f9 ff ff 43 	movl   $0xbdf8d43,-0x670(%rbp)
    ad63:	8d df 0b 
    ad66:	c7 85 94 f9 ff ff 00 	movl   $0x0,-0x66c(%rbp)
    ad6d:	00 00 00 
    ad70:	c7 85 98 f9 ff ff 43 	movl   $0xbdf8d43,-0x668(%rbp)
    ad77:	8d df 0b 
    ad7a:	c7 85 9c f9 ff ff 00 	movl   $0x0,-0x664(%rbp)
    ad81:	00 00 00 
    ad84:	c7 85 a0 f9 ff ff 43 	movl   $0xbdf8d43,-0x660(%rbp)
    ad8b:	8d df 0b 
    ad8e:	c7 85 a4 f9 ff ff 00 	movl   $0x0,-0x65c(%rbp)
    ad95:	00 00 00 
    ad98:	c7 85 a8 f9 ff ff 43 	movl   $0xbdf8d43,-0x658(%rbp)
    ad9f:	8d df 0b 
    ada2:	c7 85 ac f9 ff ff 00 	movl   $0x0,-0x654(%rbp)
    ada9:	00 00 00 
    adac:	c7 85 b0 f9 ff ff 43 	movl   $0xbdf8d43,-0x650(%rbp)
    adb3:	8d df 0b 
    adb6:	c7 85 b4 f9 ff ff 00 	movl   $0x0,-0x64c(%rbp)
    adbd:	00 00 00 
    adc0:	c7 85 b8 f9 ff ff 43 	movl   $0xbdf8d43,-0x648(%rbp)
    adc7:	8d df 0b 
    adca:	c7 85 bc f9 ff ff 00 	movl   $0x0,-0x644(%rbp)
    add1:	00 00 00 
    add4:	c7 85 e4 f7 ff ff d2 	movl   $0xddfe54d2,-0x81c(%rbp)
    addb:	54 fe dd 
    adde:	48 8d 05 df 00 01 00 	lea    0x100df(%rip),%rax        # 1aec4 <g_3320>
    ade5:	48 89 85 80 f8 ff ff 	mov    %rax,-0x780(%rbp)
    adec:	48 c7 85 88 f8 ff ff 	movq   $0x0,-0x778(%rbp)
    adf3:	00 00 00 00 
    adf7:	48 8d 95 40 fa ff ff 	lea    -0x5c0(%rbp),%rdx
    adfe:	b8 00 00 00 00       	mov    $0x0,%eax
    ae03:	b9 10 00 00 00       	mov    $0x10,%ecx
    ae08:	48 89 d7             	mov    %rdx,%rdi
    ae0b:	f3 48 ab             	rep stos %rax,%es:(%rdi)
    ae0e:	48 8d 05 9b 3a 01 00 	lea    0x13a9b(%rip),%rax        # 1e8b0 <g_1747>
    ae15:	48 89 85 90 fa ff ff 	mov    %rax,-0x570(%rbp)
    ae1c:	48 8d 05 8d 3a 01 00 	lea    0x13a8d(%rip),%rax        # 1e8b0 <g_1747>
    ae23:	48 89 85 a8 fa ff ff 	mov    %rax,-0x558(%rbp)
    ae2a:	c7 85 e8 f7 ff ff 00 	movl   $0x0,-0x818(%rbp)
    ae31:	00 00 00 
    ae34:	c7 05 d6 f2 00 00 00 	movl   $0x0,0xf2d6(%rip)        # 1a114 <g_17>
    ae3b:	00 00 00 
    ae3e:	e9 07 01 00 00       	jmpq   af4a <func_1+0x795>
    ae43:	48 8d 05 62 f2 00 00 	lea    0xf262(%rip),%rax        # 1a0ac <g_6+0x6c>
    ae4a:	48 89 85 90 f8 ff ff 	mov    %rax,-0x770(%rbp)
    ae51:	c7 05 bd f2 00 00 e4 	movl   $0xffffffe4,0xf2bd(%rip)        # 1a118 <g_20>
    ae58:	ff ff ff 
    ae5b:	eb 4b                	jmp    aea8 <func_1+0x6f3>
    ae5d:	48 8d 85 80 fb ff ff 	lea    -0x480(%rbp),%rax
    ae64:	48 8d 15 15 01 01 00 	lea    0x10115(%rip),%rdx        # 1af80 <g_3696+0x1a>
    ae6b:	b9 3c 00 00 00       	mov    $0x3c,%ecx
    ae70:	48 89 c7             	mov    %rax,%rdi
    ae73:	48 89 d6             	mov    %rdx,%rsi
    ae76:	f3 48 a5             	rep movsq %ds:(%rsi),%es:(%rdi)
    ae79:	8b 05 a5 f1 00 00    	mov    0xf1a5(%rip),%eax        # 1a024 <g_5>
    ae7f:	85 c0                	test   %eax,%eax
    ae81:	75 32                	jne    aeb5 <func_1+0x700>
    ae83:	c7 85 bc f7 ff ff 00 	movl   $0x0,-0x844(%rbp)
    ae8a:	00 00 00 
    ae8d:	8b 85 bc f7 ff ff    	mov    -0x844(%rbp),%eax
    ae93:	89 05 6f f2 00 00    	mov    %eax,0xf26f(%rip)        # 1a108 <g_11>
    ae99:	8b 05 79 f2 00 00    	mov    0xf279(%rip),%eax        # 1a118 <g_20>
    ae9f:	83 e8 01             	sub    $0x1,%eax
    aea2:	89 05 70 f2 00 00    	mov    %eax,0xf270(%rip)        # 1a118 <g_20>
    aea8:	8b 05 6a f2 00 00    	mov    0xf26a(%rip),%eax        # 1a118 <g_20>
    aeae:	83 f8 e2             	cmp    $0xffffffe2,%eax
    aeb1:	7c aa                	jl     ae5d <func_1+0x6a8>
    aeb3:	eb 01                	jmp    aeb6 <func_1+0x701>
    aeb5:	90                   	nop
    aeb6:	c7 05 58 f2 00 00 f9 	movl   $0xfffffff9,0xf258(%rip)        # 1a118 <g_20>
    aebd:	ff ff ff 
    aec0:	eb 6e                	jmp    af30 <func_1+0x77b>
    aec2:	48 8d 85 20 f8 ff ff 	lea    -0x7e0(%rbp),%rax
    aec9:	48 89 85 98 f8 ff ff 	mov    %rax,-0x768(%rbp)
    aed0:	c6 85 a3 f7 ff ff 08 	movb   $0x8,-0x85d(%rbp)
    aed7:	c7 85 ec f7 ff ff d6 	movl   $0x6e05ded6,-0x814(%rbp)
    aede:	de 05 6e 
    aee1:	48 8d 05 d8 ff 00 00 	lea    0xffd8(%rip),%rax        # 1aec0 <g_3297>
    aee8:	48 89 85 a0 f8 ff ff 	mov    %rax,-0x760(%rbp)
    aeef:	c6 85 a4 f7 ff ff 12 	movb   $0x12,-0x85c(%rbp)
    aef6:	48 8d 85 40 f9 ff ff 	lea    -0x6c0(%rbp),%rax
    aefd:	48 89 85 28 f8 ff ff 	mov    %rax,-0x7d8(%rbp)
    af04:	48 8d 85 28 f8 ff ff 	lea    -0x7d8(%rbp),%rax
    af0b:	48 89 85 a8 f8 ff ff 	mov    %rax,-0x758(%rbp)
    af12:	8b 05 00 f2 00 00    	mov    0xf200(%rip),%eax        # 1a118 <g_20>
    af18:	0f b6 c0             	movzbl %al,%eax
    af1b:	be 09 00 00 00       	mov    $0x9,%esi
    af20:	89 c7                	mov    %eax,%edi
    af22:	e8 33 ec ff ff       	callq  9b5a <safe_add_func_uint8_t_u_u>
    af27:	0f b6 c0             	movzbl %al,%eax
    af2a:	89 05 e8 f1 00 00    	mov    %eax,0xf1e8(%rip)        # 1a118 <g_20>
    af30:	8b 05 e2 f1 00 00    	mov    0xf1e2(%rip),%eax        # 1a118 <g_20>
    af36:	83 f8 02             	cmp    $0x2,%eax
    af39:	7e 87                	jle    aec2 <func_1+0x70d>
    af3b:	8b 05 d3 f1 00 00    	mov    0xf1d3(%rip),%eax        # 1a114 <g_17>
    af41:	83 c0 01             	add    $0x1,%eax
    af44:	89 05 ca f1 00 00    	mov    %eax,0xf1ca(%rip)        # 1a114 <g_17>
    af4a:	8b 05 c4 f1 00 00    	mov    0xf1c4(%rip),%eax        # 1a114 <g_17>
    af50:	83 f8 09             	cmp    $0x9,%eax
    af53:	0f 8f ea fe ff ff    	jg     ae43 <func_1+0x68e>
    af59:	8b 85 bc f7 ff ff    	mov    -0x844(%rbp),%eax
    af5f:	44 0f be e0          	movsbl %al,%r12d
    af63:	48 8b 05 86 28 01 00 	mov    0x12886(%rip),%rax        # 1d7f0 <g_1251>
    af6a:	8b 10                	mov    (%rax),%edx
    af6c:	83 c2 01             	add    $0x1,%edx
    af6f:	89 10                	mov    %edx,(%rax)
    af71:	48 8b 05 98 2c 01 00 	mov    0x12c98(%rip),%rax        # 1dc10 <g_2941>
    af78:	48 8b 00             	mov    (%rax),%rax
    af7b:	48 85 c0             	test   %rax,%rax
    af7e:	0f 94 c0             	sete   %al
    af81:	0f b6 d8             	movzbl %al,%ebx
    af84:	48 8b 85 80 f8 ff ff 	mov    -0x780(%rbp),%rax
    af8b:	0f b6 00             	movzbl (%rax),%eax
    af8e:	8d 48 ff             	lea    -0x1(%rax),%ecx
    af91:	48 8b 95 80 f8 ff ff 	mov    -0x780(%rbp),%rdx
    af98:	88 0a                	mov    %cl,(%rdx)
    af9a:	0f b6 c0             	movzbl %al,%eax
    af9d:	89 85 e4 f7 ff ff    	mov    %eax,-0x81c(%rbp)
    afa3:	8b 85 e4 f7 ff ff    	mov    -0x81c(%rbp),%eax
    afa9:	0f b6 c0             	movzbl %al,%eax
    afac:	be 02 00 00 00       	mov    $0x2,%esi
    afb1:	89 c7                	mov    %eax,%edi
    afb3:	e8 d5 ec ff ff       	callq  9c8d <safe_rshift_func_uint8_t_u_s>
    afb8:	0f b6 c0             	movzbl %al,%eax
    afbb:	89 de                	mov    %ebx,%esi
    afbd:	89 c7                	mov    %eax,%edi
    afbf:	e8 cf eb ff ff       	callq  9b93 <safe_mul_func_uint8_t_u_u>
    afc4:	8b 95 d0 fa ff ff    	mov    -0x530(%rbp),%edx
    afca:	8b 85 b4 f9 ff ff    	mov    -0x64c(%rbp),%eax
    afd0:	f7 d0                	not    %eax
    afd2:	89 c1                	mov    %eax,%ecx
    afd4:	48 8b 05 55 26 01 00 	mov    0x12655(%rip),%rax        # 1d630 <g_659>
    afdb:	48 8b 00             	mov    (%rax),%rax
    afde:	48 8b 00             	mov    (%rax),%rax
    afe1:	8b 00                	mov    (%rax),%eax
    afe3:	39 c1                	cmp    %eax,%ecx
    afe5:	0f 93 c0             	setae  %al
    afe8:	0f b6 c0             	movzbl %al,%eax
    afeb:	31 d0                	xor    %edx,%eax
    afed:	89 85 d0 fa ff ff    	mov    %eax,-0x530(%rbp)
    aff3:	0f b7 05 ba f5 00 00 	movzwl 0xf5ba(%rip),%eax        # 1a5b4 <g_1207+0x4>
    affa:	8d 1c 00             	lea    (%rax,%rax,1),%ebx
    affd:	66 d1 fb             	sar    %bx
    b000:	48 8b 05 c1 27 01 00 	mov    0x127c1(%rip),%rax        # 1d7c8 <g_865>
    b007:	0f b6 00             	movzbl (%rax),%eax
    b00a:	0f be d0             	movsbl %al,%edx
    b00d:	0f b6 85 9f f7 ff ff 	movzbl -0x861(%rbp),%eax
    b014:	0f be c0             	movsbl %al,%eax
    b017:	89 d6                	mov    %edx,%esi
    b019:	89 c7                	mov    %eax,%edi
    b01b:	e8 15 e3 ff ff       	callq  9335 <safe_rshift_func_int8_t_s_s>
    b020:	66 98                	cbtw   
    b022:	01 c0                	add    %eax,%eax
    b024:	66 d1 f8             	sar    %ax
    b027:	66 39 c3             	cmp    %ax,%bx
    b02a:	0f 9c c0             	setl   %al
    b02d:	0f b6 c0             	movzbl %al,%eax
    b030:	44 89 e6             	mov    %r12d,%esi
    b033:	89 c7                	mov    %eax,%edi
    b035:	e8 30 e2 ff ff       	callq  926a <safe_div_func_int8_t_s_s>
    b03a:	0f be c0             	movsbl %al,%eax
    b03d:	31 85 e8 f7 ff ff    	xor    %eax,-0x818(%rbp)
    b043:	8b 05 c3 f0 00 00    	mov    0xf0c3(%rip),%eax        # 1a10c <g_12>
    b049:	83 e8 01             	sub    $0x1,%eax
    b04c:	89 05 ba f0 00 00    	mov    %eax,0xf0ba(%rip)        # 1a10c <g_12>
    b052:	8b 05 b4 f0 00 00    	mov    0xf0b4(%rip),%eax        # 1a10c <g_12>
    b058:	83 f8 e8             	cmp    $0xffffffe8,%eax
    b05b:	0f 8d c9 fc ff ff    	jge    ad2a <func_1+0x575>
    b061:	8b 05 e5 ef 00 00    	mov    0xefe5(%rip),%eax        # 1a04c <g_6+0xc>
    b067:	0f b6 c0             	movzbl %al,%eax
    b06a:	be 06 00 00 00       	mov    $0x6,%esi
    b06f:	89 c7                	mov    %eax,%edi
    b071:	e8 e4 ea ff ff       	callq  9b5a <safe_add_func_uint8_t_u_u>
    b076:	0f b6 c0             	movzbl %al,%eax
    b079:	89 05 cd ef 00 00    	mov    %eax,0xefcd(%rip)        # 1a04c <g_6+0xc>
    b07f:	8b 05 c7 ef 00 00    	mov    0xefc7(%rip),%eax        # 1a04c <g_6+0xc>
    b085:	83 f8 0d             	cmp    $0xd,%eax
    b088:	0f 85 73 fa ff ff    	jne    ab01 <func_1+0x34c>
    b08e:	8b 05 b4 37 01 00    	mov    0x137b4(%rip),%eax        # 1e848 <g_2>
    b094:	83 c0 01             	add    $0x1,%eax
    b097:	89 05 ab 37 01 00    	mov    %eax,0x137ab(%rip)        # 1e848 <g_2>
    b09d:	8b 05 a5 37 01 00    	mov    0x137a5(%rip),%eax        # 1e848 <g_2>
    b0a3:	85 c0                	test   %eax,%eax
    b0a5:	0f 8e 27 fa ff ff    	jle    aad2 <func_1+0x31d>
    b0ab:	eb 01                	jmp    b0ae <func_1+0x8f9>
    b0ad:	90                   	nop
    b0ae:	c6 05 0f fe 00 00 00 	movb   $0x0,0xfe0f(%rip)        # 1aec4 <g_3320>
    b0b5:	e9 dc 02 00 00       	jmpq   b396 <func_1+0xbe1>
    b0ba:	c7 85 fc f7 ff ff 55 	movl   $0x984df455,-0x804(%rbp)
    b0c1:	f4 4d 98 
    b0c4:	c7 85 00 f8 ff ff be 	movl   $0x637112be,-0x800(%rbp)
    b0cb:	12 71 63 
    b0ce:	c7 85 04 f8 ff ff 9c 	movl   $0x36fc09c,-0x7fc(%rbp)
    b0d5:	c0 6f 03 
    b0d8:	c7 85 08 f8 ff ff 01 	movl   $0x1,-0x7f8(%rbp)
    b0df:	00 00 00 
    b0e2:	c7 85 0c f8 ff ff 77 	movl   $0xea441a77,-0x7f4(%rbp)
    b0e9:	1a 44 ea 
    b0ec:	48 c7 85 f0 f8 ff ff 	movq   $0x0,-0x710(%rbp)
    b0f3:	00 00 00 00 
    b0f7:	48 8d 05 32 29 01 00 	lea    0x12932(%rip),%rax        # 1da30 <g_2919+0x10>
    b0fe:	48 89 85 f8 f8 ff ff 	mov    %rax,-0x708(%rbp)
    b105:	c6 85 a6 f7 ff ff 01 	movb   $0x1,-0x85a(%rbp)
    b10c:	c7 85 c0 f7 ff ff 00 	movl   $0x0,-0x840(%rbp)
    b113:	00 00 00 
    b116:	eb 14                	jmp    b12c <func_1+0x977>
    b118:	8b 85 c0 f7 ff ff    	mov    -0x840(%rbp),%eax
    b11e:	48 98                	cltq   
    b120:	c6 44 05 e6 9f       	movb   $0x9f,-0x1a(%rbp,%rax,1)
    b125:	83 85 c0 f7 ff ff 01 	addl   $0x1,-0x840(%rbp)
    b12c:	83 bd c0 f7 ff ff 01 	cmpl   $0x1,-0x840(%rbp)
    b133:	7e e3                	jle    b118 <func_1+0x963>
    b135:	66 c7 05 28 f3 00 00 	movw   $0x0,0xf328(%rip)        # 1a466 <g_375>
    b13c:	00 00 
    b13e:	e9 1e 02 00 00       	jmpq   b361 <func_1+0xbac>
    b143:	48 8d 85 9f f7 ff ff 	lea    -0x861(%rbp),%rax
    b14a:	48 89 85 00 f9 ff ff 	mov    %rax,-0x700(%rbp)
    b151:	48 8d 05 70 26 01 00 	lea    0x12670(%rip),%rax        # 1d7c8 <g_865>
    b158:	48 89 85 08 f9 ff ff 	mov    %rax,-0x6f8(%rbp)
    b15f:	c7 85 10 f8 ff ff ff 	movl   $0xffffffff,-0x7f0(%rbp)
    b166:	ff ff ff 
    b169:	48 8d 05 ac f2 00 00 	lea    0xf2ac(%rip),%rax        # 1a41c <g_279+0x5c>
    b170:	48 89 85 10 f9 ff ff 	mov    %rax,-0x6f0(%rbp)
    b177:	48 8d 05 64 f4 00 00 	lea    0xf464(%rip),%rax        # 1a5e2 <g_1210+0x12>
    b17e:	48 89 85 18 f9 ff ff 	mov    %rax,-0x6e8(%rbp)
    b185:	c6 85 a7 f7 ff ff 00 	movb   $0x0,-0x859(%rbp)
    b18c:	48 8d 05 17 f3 00 00 	lea    0xf317(%rip),%rax        # 1a4aa <g_650+0xa>
    b193:	48 89 85 20 f9 ff ff 	mov    %rax,-0x6e0(%rbp)
    b19a:	c7 85 80 fb ff ff fe 	movl   $0x5a7a00fe,-0x480(%rbp)
    b1a1:	00 7a 5a 
    b1a4:	c7 85 84 fb ff ff a9 	movl   $0xcb90c4a9,-0x47c(%rbp)
    b1ab:	c4 90 cb 
    b1ae:	c7 85 88 fb ff ff b9 	movl   $0x606bd0b9,-0x478(%rbp)
    b1b5:	d0 6b 60 
    b1b8:	c7 85 8c fb ff ff fd 	movl   $0xfffffffd,-0x474(%rbp)
    b1bf:	ff ff ff 
    b1c2:	c7 85 90 fb ff ff 8b 	movl   $0x799fa78b,-0x470(%rbp)
    b1c9:	a7 9f 79 
    b1cc:	c7 85 94 fb ff ff b9 	movl   $0x606bd0b9,-0x46c(%rbp)
    b1d3:	d0 6b 60 
    b1d6:	c7 85 98 fb ff ff 06 	movl   $0x6,-0x468(%rbp)
    b1dd:	00 00 00 
    b1e0:	c7 85 9c fb ff ff b9 	movl   $0x606bd0b9,-0x464(%rbp)
    b1e7:	d0 6b 60 
    b1ea:	c7 85 a0 fb ff ff fe 	movl   $0x5a7a00fe,-0x460(%rbp)
    b1f1:	00 7a 5a 
    b1f4:	c7 85 a4 fb ff ff f8 	movl   $0xfffffff8,-0x45c(%rbp)
    b1fb:	ff ff ff 
    b1fe:	c7 85 a8 fb ff ff 19 	movl   $0x48f54f19,-0x458(%rbp)
    b205:	4f f5 48 
    b208:	c7 85 ac fb ff ff 00 	movl   $0x0,-0x454(%rbp)
    b20f:	00 00 00 
    b212:	c7 85 b0 fb ff ff b9 	movl   $0x606bd0b9,-0x450(%rbp)
    b219:	d0 6b 60 
    b21c:	c7 85 b4 fb ff ff b9 	movl   $0x606bd0b9,-0x44c(%rbp)
    b223:	d0 6b 60 
    b226:	c7 85 b8 fb ff ff 19 	movl   $0x48f54f19,-0x448(%rbp)
    b22d:	4f f5 48 
    b230:	c7 85 bc fb ff ff ff 	movl   $0xffffffff,-0x444(%rbp)
    b237:	ff ff ff 
    b23a:	c7 85 c0 fb ff ff 8b 	movl   $0x799fa78b,-0x440(%rbp)
    b241:	a7 9f 79 
    b244:	c7 85 c4 fb ff ff 04 	movl   $0x58555c04,-0x43c(%rbp)
    b24b:	5c 55 58 
    b24e:	c7 85 c8 fb ff ff ff 	movl   $0xffffffff,-0x438(%rbp)
    b255:	ff ff ff 
    b258:	c7 85 cc fb ff ff a9 	movl   $0xcb90c4a9,-0x434(%rbp)
    b25f:	c4 90 cb 
    b262:	c7 85 d0 fb ff ff f8 	movl   $0xfffffff8,-0x430(%rbp)
    b269:	ff ff ff 
    b26c:	c7 85 d4 fb ff ff b9 	movl   $0x606bd0b9,-0x42c(%rbp)
    b273:	d0 6b 60 
    b276:	c7 85 d8 fb ff ff fe 	movl   $0x5a7a00fe,-0x428(%rbp)
    b27d:	00 7a 5a 
    b280:	c7 85 dc fb ff ff 8b 	movl   $0x799fa78b,-0x424(%rbp)
    b287:	a7 9f 79 
    b28a:	c7 85 e0 fb ff ff f8 	movl   $0xfffffff8,-0x420(%rbp)
    b291:	ff ff ff 
    b294:	c7 85 e4 fb ff ff ff 	movl   $0xffffffff,-0x41c(%rbp)
    b29b:	ff ff ff 
    b29e:	c7 85 e8 fb ff ff f8 	movl   $0xfffffff8,-0x418(%rbp)
    b2a5:	ff ff ff 
    b2a8:	c7 85 ec fb ff ff 06 	movl   $0x6,-0x414(%rbp)
    b2af:	00 00 00 
    b2b2:	c7 85 f0 fb ff ff 00 	movl   $0x0,-0x410(%rbp)
    b2b9:	00 00 00 
    b2bc:	c7 85 f4 fb ff ff 04 	movl   $0x58555c04,-0x40c(%rbp)
    b2c3:	5c 55 58 
    b2c6:	c7 85 f8 fb ff ff fd 	movl   $0xfffffffd,-0x408(%rbp)
    b2cd:	ff ff ff 
    b2d0:	c7 85 fc fb ff ff 00 	movl   $0x0,-0x404(%rbp)
    b2d7:	00 00 00 
    b2da:	c7 85 00 fc ff ff 19 	movl   $0x48f54f19,-0x400(%rbp)
    b2e1:	4f f5 48 
    b2e4:	c7 85 04 fc ff ff fe 	movl   $0x5a7a00fe,-0x3fc(%rbp)
    b2eb:	00 7a 5a 
    b2ee:	c7 85 08 fc ff ff ff 	movl   $0xffffffff,-0x3f8(%rbp)
    b2f5:	ff ff ff 
    b2f8:	c7 85 0c fc ff ff 00 	movl   $0x0,-0x3f4(%rbp)
    b2ff:	00 00 00 
    b302:	c7 85 14 f8 ff ff c4 	movl   $0xaa824dc4,-0x7ec(%rbp)
    b309:	4d 82 aa 
    b30c:	48 b8 79 c6 03 20 00 	movabs $0xb57f13002003c679,%rax
    b313:	13 7f b5 
    b316:	48 89 85 28 f9 ff ff 	mov    %rax,-0x6d8(%rbp)
    b31d:	c7 85 c4 f7 ff ff 00 	movl   $0x0,-0x83c(%rbp)
    b324:	00 00 00 
    b327:	eb 1e                	jmp    b347 <func_1+0xb92>
    b329:	8b 85 c4 f7 ff ff    	mov    -0x83c(%rbp),%eax
    b32f:	48 98                	cltq   
    b331:	48 8d 15 24 f7 00 00 	lea    0xf724(%rip),%rdx        # 1aa5c <g_2345>
    b338:	48 89 94 c5 c0 fa ff 	mov    %rdx,-0x540(%rbp,%rax,8)
    b33f:	ff 
    b340:	83 85 c4 f7 ff ff 01 	addl   $0x1,-0x83c(%rbp)
    b347:	83 bd c4 f7 ff ff 01 	cmpl   $0x1,-0x83c(%rbp)
    b34e:	7e d9                	jle    b329 <func_1+0xb74>
    b350:	0f b7 05 0f f1 00 00 	movzwl 0xf10f(%rip),%eax        # 1a466 <g_375>
    b357:	83 c0 01             	add    $0x1,%eax
    b35a:	66 89 05 05 f1 00 00 	mov    %ax,0xf105(%rip)        # 1a466 <g_375>
    b361:	0f b7 05 fe f0 00 00 	movzwl 0xf0fe(%rip),%eax        # 1a466 <g_375>
    b368:	66 83 f8 18          	cmp    $0x18,%ax
    b36c:	0f 84 d1 fd ff ff    	je     b143 <func_1+0x98e>
    b372:	48 8b 15 5f 26 01 00 	mov    0x1265f(%rip),%rdx        # 1d9d8 <g_2255>
    b379:	48 8b 05 58 26 01 00 	mov    0x12658(%rip),%rax        # 1d9d8 <g_2255>
    b380:	48 8b 12             	mov    (%rdx),%rdx
    b383:	48 89 10             	mov    %rdx,(%rax)
    b386:	0f b6 05 37 fb 00 00 	movzbl 0xfb37(%rip),%eax        # 1aec4 <g_3320>
    b38d:	83 c0 01             	add    $0x1,%eax
    b390:	88 05 2e fb 00 00    	mov    %al,0xfb2e(%rip)        # 1aec4 <g_3320>
    b396:	0f b6 05 27 fb 00 00 	movzbl 0xfb27(%rip),%eax        # 1aec4 <g_3320>
    b39d:	3c 2f                	cmp    $0x2f,%al
    b39f:	0f 86 15 fd ff ff    	jbe    b0ba <func_1+0x905>
    b3a5:	c7 05 73 f2 00 00 0e 	movl   $0xe,0xf273(%rip)        # 1a622 <g_1278+0x12>
    b3ac:	00 00 00 
    b3af:	e9 1e 01 00 00       	jmpq   b4d2 <func_1+0xd1d>
    b3b4:	48 c7 85 b0 f8 ff ff 	movq   $0xfffffffffffffffe,-0x750(%rbp)
    b3bb:	fe ff ff ff 
    b3bf:	48 8d 05 6a f2 00 00 	lea    0xf26a(%rip),%rax        # 1a630 <g_1443>
    b3c6:	48 89 85 b8 f8 ff ff 	mov    %rax,-0x748(%rbp)
    b3cd:	48 c7 85 c0 f8 ff ff 	movq   $0xfffffffffffffff7,-0x740(%rbp)
    b3d4:	f7 ff ff ff 
    b3d8:	48 8d 85 b4 f7 ff ff 	lea    -0x84c(%rbp),%rax
    b3df:	48 89 85 c8 f8 ff ff 	mov    %rax,-0x738(%rbp)
    b3e6:	48 8d 05 3b ed 00 00 	lea    0xed3b(%rip),%rax        # 1a128 <g_95>
    b3ed:	48 89 85 80 fb ff ff 	mov    %rax,-0x480(%rbp)
    b3f4:	48 8d 05 51 ec 00 00 	lea    0xec51(%rip),%rax        # 1a04c <g_6+0xc>
    b3fb:	48 89 85 88 fb ff ff 	mov    %rax,-0x478(%rbp)
    b402:	48 8d 05 1f ed 00 00 	lea    0xed1f(%rip),%rax        # 1a128 <g_95>
    b409:	48 89 85 90 fb ff ff 	mov    %rax,-0x470(%rbp)
    b410:	48 8d 05 35 ec 00 00 	lea    0xec35(%rip),%rax        # 1a04c <g_6+0xc>
    b417:	48 89 85 98 fb ff ff 	mov    %rax,-0x468(%rbp)
    b41e:	48 8d 05 03 ed 00 00 	lea    0xed03(%rip),%rax        # 1a128 <g_95>
    b425:	48 89 85 a0 fb ff ff 	mov    %rax,-0x460(%rbp)
    b42c:	48 8d 05 19 ec 00 00 	lea    0xec19(%rip),%rax        # 1a04c <g_6+0xc>
    b433:	48 89 85 a8 fb ff ff 	mov    %rax,-0x458(%rbp)
    b43a:	48 8d 05 e7 ec 00 00 	lea    0xece7(%rip),%rax        # 1a128 <g_95>
    b441:	48 89 85 b0 fb ff ff 	mov    %rax,-0x450(%rbp)
    b448:	48 8d 05 fd eb 00 00 	lea    0xebfd(%rip),%rax        # 1a04c <g_6+0xc>
    b44f:	48 89 85 b8 fb ff ff 	mov    %rax,-0x448(%rbp)
    b456:	c7 85 f0 f7 ff ff ff 	movl   $0xffffffff,-0x810(%rbp)
    b45d:	ff ff ff 
    b460:	48 b8 ef ed 43 82 14 	movabs $0x775921148243edef,%rax
    b467:	21 59 77 
    b46a:	48 89 85 d0 f8 ff ff 	mov    %rax,-0x730(%rbp)
    b471:	c7 85 28 f8 ff ff ff 	movl   $0xffffffff,-0x7d8(%rbp)
    b478:	ff ff ff 
    b47b:	48 8d 05 ae f2 00 00 	lea    0xf2ae(%rip),%rax        # 1a730 <g_1891+0xd0>
    b482:	48 89 85 d8 f8 ff ff 	mov    %rax,-0x728(%rbp)
    b489:	48 8d 85 28 f8 ff ff 	lea    -0x7d8(%rbp),%rax
    b490:	48 89 85 e0 f8 ff ff 	mov    %rax,-0x720(%rbp)
    b497:	c6 85 a5 f7 ff ff f3 	movb   $0xf3,-0x85b(%rbp)
    b49e:	48 b8 d4 ee 6c 29 08 	movabs $0x1c364808296ceed4,%rax
    b4a5:	48 36 1c 
    b4a8:	48 89 85 e8 f8 ff ff 	mov    %rax,-0x718(%rbp)
    b4af:	c7 85 f4 f7 ff ff 06 	movl   $0xda9bf706,-0x80c(%rbp)
    b4b6:	f7 9b da 
    b4b9:	c7 85 f8 f7 ff ff 32 	movl   $0x534fe232,-0x808(%rbp)
    b4c0:	e2 4f 53 
    b4c3:	8b 05 59 f1 00 00    	mov    0xf159(%rip),%eax        # 1a622 <g_1278+0x12>
    b4c9:	83 c0 01             	add    $0x1,%eax
    b4cc:	89 05 50 f1 00 00    	mov    %eax,0xf150(%rip)        # 1a622 <g_1278+0x12>
    b4d2:	8b 05 4a f1 00 00    	mov    0xf14a(%rip),%eax        # 1a622 <g_1278+0x12>
    b4d8:	83 f8 28             	cmp    $0x28,%eax
    b4db:	0f 86 d3 fe ff ff    	jbe    b3b4 <func_1+0xbff>
    b4e1:	8b 95 3c f9 ff ff    	mov    -0x6c4(%rbp),%edx
    b4e7:	48 8b 85 40 f8 ff ff 	mov    -0x7c0(%rbp),%rax
    b4ee:	48 8b 00             	mov    (%rax),%rax
    b4f1:	48 8b 00             	mov    (%rax),%rax
    b4f4:	8b 00                	mov    (%rax),%eax
    b4f6:	31 d0                	xor    %edx,%eax
    b4f8:	89 85 3c f9 ff ff    	mov    %eax,-0x6c4(%rbp)
    b4fe:	48 8b 85 40 f8 ff ff 	mov    -0x7c0(%rbp),%rax
    b505:	48 8b 00             	mov    (%rax),%rax
    b508:	48 8b 00             	mov    (%rax),%rax
    b50b:	8b 00                	mov    (%rax),%eax
    b50d:	48 8b 5d e8          	mov    -0x18(%rbp),%rbx
    b511:	64 48 33 1c 25 28 00 	xor    %fs:0x28,%rbx
    b518:	00 00 
    b51a:	74 05                	je     b521 <func_1+0xd6c>
    b51c:	e8 4f db ff ff       	callq  9070 <__stack_chk_fail@plt>
    b521:	48 81 c4 60 08 00 00 	add    $0x860,%rsp
    b528:	5b                   	pop    %rbx
    b529:	41 5c                	pop    %r12
    b52b:	5d                   	pop    %rbp
    b52c:	c3                   	retq   

000000000000b52d <func_36>:
    b52d:	f3 0f 1e fa          	endbr64 
    b531:	55                   	push   %rbp
    b532:	48 89 e5             	mov    %rsp,%rbp
    b535:	41 55                	push   %r13
    b537:	41 54                	push   %r12
    b539:	53                   	push   %rbx
    b53a:	48 81 ec 00 10 00 00 	sub    $0x1000,%rsp
    b541:	48 83 0c 24 00       	orq    $0x0,(%rsp)
    b546:	48 81 ec 78 01 00 00 	sub    $0x178,%rsp
    b54d:	89 bd 7c ee ff ff    	mov    %edi,-0x1184(%rbp)
    b553:	64 48 8b 04 25 28 00 	mov    %fs:0x28,%rax
    b55a:	00 00 
    b55c:	48 89 45 d8          	mov    %rax,-0x28(%rbp)
    b560:	31 c0                	xor    %eax,%eax
    b562:	c7 85 1c ef ff ff 00 	movl   $0x0,-0x10e4(%rbp)
    b569:	00 00 00 
    b56c:	48 8d 05 ed 32 01 00 	lea    0x132ed(%rip),%rax        # 1e860 <g_326>
    b573:	48 89 85 20 f2 ff ff 	mov    %rax,-0xde0(%rbp)
    b57a:	48 8d 05 df 32 01 00 	lea    0x132df(%rip),%rax        # 1e860 <g_326>
    b581:	48 89 85 28 f2 ff ff 	mov    %rax,-0xdd8(%rbp)
    b588:	48 8d 05 d1 32 01 00 	lea    0x132d1(%rip),%rax        # 1e860 <g_326>
    b58f:	48 89 85 30 f2 ff ff 	mov    %rax,-0xdd0(%rbp)
    b596:	48 8d 05 c3 32 01 00 	lea    0x132c3(%rip),%rax        # 1e860 <g_326>
    b59d:	48 89 85 38 f2 ff ff 	mov    %rax,-0xdc8(%rbp)
    b5a4:	48 8d 05 b5 32 01 00 	lea    0x132b5(%rip),%rax        # 1e860 <g_326>
    b5ab:	48 89 85 40 f2 ff ff 	mov    %rax,-0xdc0(%rbp)
    b5b2:	48 8d 05 a7 32 01 00 	lea    0x132a7(%rip),%rax        # 1e860 <g_326>
    b5b9:	48 89 85 48 f2 ff ff 	mov    %rax,-0xdb8(%rbp)
    b5c0:	48 8d 05 99 32 01 00 	lea    0x13299(%rip),%rax        # 1e860 <g_326>
    b5c7:	48 89 85 50 f2 ff ff 	mov    %rax,-0xdb0(%rbp)
    b5ce:	48 8d 05 8b 32 01 00 	lea    0x1328b(%rip),%rax        # 1e860 <g_326>
    b5d5:	48 89 85 58 f2 ff ff 	mov    %rax,-0xda8(%rbp)
    b5dc:	48 8d 05 7d 32 01 00 	lea    0x1327d(%rip),%rax        # 1e860 <g_326>
    b5e3:	48 89 85 60 f2 ff ff 	mov    %rax,-0xda0(%rbp)
    b5ea:	48 8d 05 cf ec 00 00 	lea    0xeccf(%rip),%rax        # 1a2c0 <g_126>
    b5f1:	48 89 85 60 f0 ff ff 	mov    %rax,-0xfa0(%rbp)
    b5f8:	48 8d 05 7b ee 00 00 	lea    0xee7b(%rip),%rax        # 1a47a <g_380+0xa>
    b5ff:	48 89 85 20 ef ff ff 	mov    %rax,-0x10e0(%rbp)
    b606:	48 8d 05 4b 32 01 00 	lea    0x1324b(%rip),%rax        # 1e858 <g_324>
    b60d:	48 89 85 68 f0 ff ff 	mov    %rax,-0xf98(%rbp)
    b614:	c7 85 bc ee ff ff 24 	movl   $0x9a5be624,-0x1144(%rbp)
    b61b:	e6 5b 9a 
    b61e:	c7 85 18 ef ff ff f6 	movl   $0xfffffff6,-0x10e8(%rbp)
    b625:	ff ff ff 
    b628:	c7 85 f0 f0 ff ff ff 	movl   $0xffffffff,-0xf10(%rbp)
    b62f:	ff ff ff 
    b632:	c7 85 f4 f0 ff ff ff 	movl   $0xffffffff,-0xf0c(%rbp)
    b639:	ff ff ff 
    b63c:	c7 85 f8 f0 ff ff ff 	movl   $0xffffffff,-0xf08(%rbp)
    b643:	ff ff ff 
    b646:	c7 85 fc f0 ff ff ff 	movl   $0xffffffff,-0xf04(%rbp)
    b64d:	ff ff ff 
    b650:	c7 85 00 f1 ff ff ff 	movl   $0xffffffff,-0xf00(%rbp)
    b657:	ff ff ff 
    b65a:	c7 85 04 f1 ff ff ff 	movl   $0xffffffff,-0xefc(%rbp)
    b661:	ff ff ff 
    b664:	c7 85 08 f1 ff ff ff 	movl   $0xffffffff,-0xef8(%rbp)
    b66b:	ff ff ff 
    b66e:	c7 85 0c f1 ff ff ff 	movl   $0xffffffff,-0xef4(%rbp)
    b675:	ff ff ff 
    b678:	c7 85 10 f1 ff ff ff 	movl   $0xffffffff,-0xef0(%rbp)
    b67f:	ff ff ff 
    b682:	48 8d 05 37 21 01 00 	lea    0x12137(%rip),%rax        # 1d7c0 <g_717>
    b689:	48 89 85 28 ef ff ff 	mov    %rax,-0x10d8(%rbp)
    b690:	48 8d 85 28 ef ff ff 	lea    -0x10d8(%rbp),%rax
    b697:	48 89 85 30 ef ff ff 	mov    %rax,-0x10d0(%rbp)
    b69e:	48 8d 85 30 ef ff ff 	lea    -0x10d0(%rbp),%rax
    b6a5:	48 89 85 08 f0 ff ff 	mov    %rax,-0xff8(%rbp)
    b6ac:	48 8d 05 51 aa 00 00 	lea    0xaa51(%rip),%rax        # 16104 <g_1310>
    b6b3:	48 89 85 10 f0 ff ff 	mov    %rax,-0xff0(%rbp)
    b6ba:	c7 85 a8 ee ff ff 35 	movl   $0x31557a35,-0x1158(%rbp)
    b6c1:	7a 55 31 
    b6c4:	c7 85 fc ee ff ff 15 	movl   $0x7879cf15,-0x1104(%rbp)
    b6cb:	cf 79 78 
    b6ce:	c7 85 00 ef ff ff 01 	movl   $0x1,-0x1100(%rbp)
    b6d5:	00 00 00 
    b6d8:	48 8d 85 70 f0 ff ff 	lea    -0xf90(%rbp),%rax
    b6df:	48 89 85 18 f0 ff ff 	mov    %rax,-0xfe8(%rbp)
    b6e6:	48 8d 05 cf ec 00 00 	lea    0xeccf(%rip),%rax        # 1a3bc <g_256>
    b6ed:	48 89 85 20 f0 ff ff 	mov    %rax,-0xfe0(%rbp)
    b6f4:	48 8d 85 a8 ee ff ff 	lea    -0x1158(%rbp),%rax
    b6fb:	48 89 85 38 ef ff ff 	mov    %rax,-0x10c8(%rbp)
    b702:	66 c7 85 9e ee ff ff 	movw   $0xaf58,-0x1162(%rbp)
    b709:	58 af 
    b70b:	c6 85 87 ee ff ff 25 	movb   $0x25,-0x1179(%rbp)
    b712:	48 c7 85 40 ef ff ff 	movq   $0x0,-0x10c0(%rbp)
    b719:	00 00 00 00 
    b71d:	48 8d 85 40 ef ff ff 	lea    -0x10c0(%rbp),%rax
    b724:	48 89 85 48 ef ff ff 	mov    %rax,-0x10b8(%rbp)
    b72b:	48 8d 85 48 ef ff ff 	lea    -0x10b8(%rbp),%rax
    b732:	48 89 85 28 f0 ff ff 	mov    %rax,-0xfd8(%rbp)
    b739:	48 c7 85 30 f0 ff ff 	movq   $0x8,-0xfd0(%rbp)
    b740:	08 00 00 00 
    b744:	66 c7 85 a0 ee ff ff 	movw   $0x5b75,-0x1160(%rbp)
    b74b:	75 5b 
    b74d:	48 8d 05 2c 1d 01 00 	lea    0x11d2c(%rip),%rax        # 1d480 <g_374>
    b754:	48 89 85 50 ef ff ff 	mov    %rax,-0x10b0(%rbp)
    b75b:	48 8d 85 50 ef ff ff 	lea    -0x10b0(%rbp),%rax
    b762:	48 89 85 38 f0 ff ff 	mov    %rax,-0xfc8(%rbp)
    b769:	c7 85 04 ef ff ff 00 	movl   $0x0,-0x10fc(%rbp)
    b770:	00 00 00 
    b773:	48 8d 85 e0 f3 ff ff 	lea    -0xc20(%rbp),%rax
    b77a:	48 8d 15 1f ac 00 00 	lea    0xac1f(%rip),%rdx        # 163a0 <g_1320+0x298>
    b781:	b9 3c 00 00 00       	mov    $0x3c,%ecx
    b786:	48 89 c7             	mov    %rax,%rdi
    b789:	48 89 d6             	mov    %rdx,%rsi
    b78c:	f3 48 a5             	rep movsq %ds:(%rsi),%es:(%rdi)
    b78f:	c6 85 8f ee ff ff fa 	movb   $0xfa,-0x1171(%rbp)
    b796:	66 c7 85 a2 ee ff ff 	movw   $0x7f8c,-0x115e(%rbp)
    b79d:	8c 7f 
    b79f:	48 b8 00 15 b0 04 42 	movabs $0x1e2e504204b01500,%rax
    b7a6:	50 2e 1e 
    b7a9:	48 89 85 40 f0 ff ff 	mov    %rax,-0xfc0(%rbp)
    b7b0:	c7 85 08 ef ff ff 00 	movl   $0x0,-0x10f8(%rbp)
    b7b7:	00 00 00 
    b7ba:	c6 85 90 ee ff ff b5 	movb   $0xb5,-0x1170(%rbp)
    b7c1:	66 c7 85 a4 ee ff ff 	movw   $0xfffb,-0x115c(%rbp)
    b7c8:	fb ff 
    b7ca:	c7 85 0c ef ff ff 59 	movl   $0xcceb0059,-0x10f4(%rbp)
    b7d1:	00 eb cc 
    b7d4:	48 b8 3c dd b6 95 fa 	movabs $0xe06014fa95b6dd3c,%rax
    b7db:	14 60 e0 
    b7de:	48 89 85 48 f0 ff ff 	mov    %rax,-0xfb8(%rbp)
    b7e5:	66 c7 85 a6 ee ff ff 	movw   $0x7d4a,-0x115a(%rbp)
    b7ec:	4a 7d 
    b7ee:	c7 85 10 ef ff ff 63 	movl   $0x98514b63,-0x10f0(%rbp)
    b7f5:	4b 51 98 
    b7f8:	48 8d 85 c0 f8 ff ff 	lea    -0x740(%rbp),%rax
    b7ff:	48 8d 15 5a f9 00 00 	lea    0xf95a(%rip),%rdx        # 1b160 <g_3696+0x1fa>
    b806:	b9 e1 00 00 00       	mov    $0xe1,%ecx
    b80b:	48 89 c7             	mov    %rax,%rdi
    b80e:	48 89 d6             	mov    %rdx,%rsi
    b811:	f3 48 a5             	rep movsq %ds:(%rsi),%es:(%rdi)
    b814:	48 8d 05 dd 1f 01 00 	lea    0x11fdd(%rip),%rax        # 1d7f8 <g_1323>
    b81b:	48 89 85 50 f0 ff ff 	mov    %rax,-0xfb0(%rbp)
    b822:	c7 85 14 ef ff ff 8d 	movl   $0x71ac5d8d,-0x10ec(%rbp)
    b829:	5d ac 71 
    b82c:	48 b8 f0 78 b2 69 07 	movabs $0x1d99280769b278f0,%rax
    b833:	28 99 1d 
    b836:	48 89 85 58 f0 ff ff 	mov    %rax,-0xfa8(%rbp)
    b83d:	c7 85 ac ee ff ff ff 	movl   $0xffffffff,-0x1154(%rbp)
    b844:	ff ff ff 
    b847:	c6 85 91 ee ff ff fa 	movb   $0xfa,-0x116f(%rbp)
    b84e:	66 c7 85 92 ee ff ff 	movw   $0xffff,-0x116e(%rbp)
    b855:	ff ff 
    b857:	c6 85 88 ee ff ff 10 	movb   $0x10,-0x1178(%rbp)
    b85e:	66 c7 85 9c ee ff ff 	movw   $0x5e90,-0x1164(%rbp)
    b865:	90 5e 
    b867:	c7 85 ec ee ff ff ff 	movl   $0xffffffff,-0x1114(%rbp)
    b86e:	ff ff ff 
    b871:	c7 85 f0 ee ff ff ce 	movl   $0x2f8c57ce,-0x1110(%rbp)
    b878:	57 8c 2f 
    b87b:	c7 85 f4 ee ff ff fc 	movl   $0xbf8d06fc,-0x110c(%rbp)
    b882:	06 8d bf 
    b885:	48 b8 5e e1 52 93 6e 	movabs $0x5fc636e9352e15e,%rax
    b88c:	63 fc 05 
    b88f:	48 89 85 f8 ef ff ff 	mov    %rax,-0x1008(%rbp)
    b896:	48 c7 85 50 f1 ff ff 	movq   $0xffffffffffffffff,-0xeb0(%rbp)
    b89d:	ff ff ff ff 
    b8a1:	48 c7 85 58 f1 ff ff 	movq   $0xffffffffffffffff,-0xea8(%rbp)
    b8a8:	ff ff ff ff 
    b8ac:	48 c7 85 60 f1 ff ff 	movq   $0xffffffffffffffff,-0xea0(%rbp)
    b8b3:	ff ff ff ff 
    b8b7:	48 c7 85 68 f1 ff ff 	movq   $0xffffffffffffffff,-0xe98(%rbp)
    b8be:	ff ff ff ff 
    b8c2:	48 c7 85 70 f1 ff ff 	movq   $0xffffffffffffffff,-0xe90(%rbp)
    b8c9:	ff ff ff ff 
    b8cd:	48 c7 85 78 f1 ff ff 	movq   $0xffffffffffffffff,-0xe88(%rbp)
    b8d4:	ff ff ff ff 
    b8d8:	c7 85 f8 ee ff ff 01 	movl   $0x1,-0x1108(%rbp)
    b8df:	00 00 00 
    b8e2:	c6 85 8e ee ff ff b6 	movb   $0xb6,-0x1172(%rbp)
    b8e9:	48 8d 05 18 2b 01 00 	lea    0x12b18(%rip),%rax        # 1e408 <g_3105+0x8>
    b8f0:	48 89 85 00 f0 ff ff 	mov    %rax,-0x1000(%rbp)
    b8f7:	c7 85 e8 ee ff ff 00 	movl   $0x0,-0x1118(%rbp)
    b8fe:	00 00 00 
    b901:	c7 85 e0 ee ff ff 30 	movl   $0xc44f4330,-0x1120(%rbp)
    b908:	43 4f c4 
    b90b:	c6 85 8d ee ff ff 03 	movb   $0x3,-0x1173(%rbp)
    b912:	c7 85 e4 ee ff ff 45 	movl   $0x42d2f145,-0x111c(%rbp)
    b919:	f1 d2 42 
    b91c:	c7 85 b8 ee ff ff 00 	movl   $0x0,-0x1148(%rbp)
    b923:	00 00 00 
    b926:	eb 1b                	jmp    b943 <func_36+0x416>
    b928:	8b 85 b8 ee ff ff    	mov    -0x1148(%rbp),%eax
    b92e:	48 98                	cltq   
    b930:	48 c7 84 c5 70 f0 ff 	movq   $0x0,-0xf90(%rbp,%rax,8)
    b937:	ff 00 00 00 00 
    b93c:	83 85 b8 ee ff ff 01 	addl   $0x1,-0x1148(%rbp)
    b943:	83 bd b8 ee ff ff 00 	cmpl   $0x0,-0x1148(%rbp)
    b94a:	7e dc                	jle    b928 <func_36+0x3fb>
    b94c:	c7 85 b8 ee ff ff 00 	movl   $0x0,-0x1148(%rbp)
    b953:	00 00 00 
    b956:	eb 1a                	jmp    b972 <func_36+0x445>
    b958:	8b 85 b8 ee ff ff    	mov    -0x1148(%rbp),%eax
    b95e:	48 98                	cltq   
    b960:	c7 84 85 7c f0 ff ff 	movl   $0x1,-0xf84(%rbp,%rax,4)
    b967:	01 00 00 00 
    b96b:	83 85 b8 ee ff ff 01 	addl   $0x1,-0x1148(%rbp)
    b972:	83 bd b8 ee ff ff 01 	cmpl   $0x1,-0x1148(%rbp)
    b979:	7e dd                	jle    b958 <func_36+0x42b>
    b97b:	c7 85 b8 ee ff ff 00 	movl   $0x0,-0x1148(%rbp)
    b982:	00 00 00 
    b985:	eb 1e                	jmp    b9a5 <func_36+0x478>
    b987:	8b 85 b8 ee ff ff    	mov    -0x1148(%rbp),%eax
    b98d:	48 98                	cltq   
    b98f:	48 8d 15 5a 1e 01 00 	lea    0x11e5a(%rip),%rdx        # 1d7f0 <g_1251>
    b996:	48 89 94 c5 e0 f1 ff 	mov    %rdx,-0xe20(%rbp,%rax,8)
    b99d:	ff 
    b99e:	83 85 b8 ee ff ff 01 	addl   $0x1,-0x1148(%rbp)
    b9a5:	83 bd b8 ee ff ff 07 	cmpl   $0x7,-0x1148(%rbp)
    b9ac:	7e d9                	jle    b987 <func_36+0x45a>
    b9ae:	48 8b 85 60 f0 ff ff 	mov    -0xfa0(%rbp),%rax
    b9b5:	0f b6 00             	movzbl (%rax),%eax
    b9b8:	83 f0 fc             	xor    $0xfffffffc,%eax
    b9bb:	89 c2                	mov    %eax,%edx
    b9bd:	48 8b 85 60 f0 ff ff 	mov    -0xfa0(%rbp),%rax
    b9c4:	88 10                	mov    %dl,(%rax)
    b9c6:	48 8b 85 60 f0 ff ff 	mov    -0xfa0(%rbp),%rax
    b9cd:	0f b6 00             	movzbl (%rax),%eax
    b9d0:	0f b6 c0             	movzbl %al,%eax
    b9d3:	be 00 00 00 00       	mov    $0x0,%esi
    b9d8:	89 c7                	mov    %eax,%edi
    b9da:	e8 b4 e1 ff ff       	callq  9b93 <safe_mul_func_uint8_t_u_u>
    b9df:	89 c2                	mov    %eax,%edx
    b9e1:	48 8b 05 e0 1d 01 00 	mov    0x11de0(%rip),%rax        # 1d7c8 <g_865>
    b9e8:	88 10                	mov    %dl,(%rax)
    b9ea:	48 83 bd 60 f0 ff ff 	cmpq   $0x0,-0xfa0(%rbp)
    b9f1:	00 
    b9f2:	74 07                	je     b9fb <func_36+0x4ce>
    b9f4:	b8 01 00 00 00       	mov    $0x1,%eax
    b9f9:	eb 05                	jmp    ba00 <func_36+0x4d3>
    b9fb:	b8 00 00 00 00       	mov    $0x0,%eax
    ba00:	3b 85 1c ef ff ff    	cmp    -0x10e4(%rbp),%eax
    ba06:	0f 94 c0             	sete   %al
    ba09:	0f b6 c0             	movzbl %al,%eax
    ba0c:	8b 95 7c ee ff ff    	mov    -0x1184(%rbp),%edx
    ba12:	21 d0                	and    %edx,%eax
    ba14:	98                   	cwtl   
    ba15:	be ff ff ff ff       	mov    $0xffffffff,%esi
    ba1a:	89 c7                	mov    %eax,%edi
    ba1c:	e8 d4 d9 ff ff       	callq  93f5 <safe_mul_func_int16_t_s_s>
    ba21:	89 c2                	mov    %eax,%edx
    ba23:	48 8b 85 20 ef ff ff 	mov    -0x10e0(%rbp),%rax
    ba2a:	48 0f bf d2          	movswq %dx,%rdx
    ba2e:	48 89 10             	mov    %rdx,(%rax)
    ba31:	48 8b 05 40 1a 01 00 	mov    0x11a40(%rip),%rax        # 1d478 <g_325>
    ba38:	48 8b 00             	mov    (%rax),%rax
    ba3b:	48 39 85 68 f0 ff ff 	cmp    %rax,-0xf98(%rbp)
    ba42:	0f 94 c0             	sete   %al
    ba45:	0f b6 c0             	movzbl %al,%eax
    ba48:	09 85 bc ee ff ff    	or     %eax,-0x1144(%rbp)
    ba4e:	8b 85 bc ee ff ff    	mov    -0x1144(%rbp),%eax
    ba54:	48 98                	cltq   
    ba56:	48 89 c6             	mov    %rax,%rsi
    ba59:	48 bf 2d 66 14 7f 8a 	movabs $0xaa00618a7f14662d,%rdi
    ba60:	61 00 aa 
    ba63:	e8 e3 e5 ff ff       	callq  a04b <safe_sub_func_uint64_t_u_u>
    ba68:	89 c2                	mov    %eax,%edx
    ba6a:	48 8b 05 87 1d 01 00 	mov    0x11d87(%rip),%rax        # 1d7f8 <g_1323>
    ba71:	48 8b 18             	mov    (%rax),%rbx
    ba74:	be 01 00 00 00       	mov    $0x1,%esi
    ba79:	89 d7                	mov    %edx,%edi
    ba7b:	e8 85 db ff ff       	callq  9605 <safe_sub_func_int32_t_s_s>
    ba80:	89 03                	mov    %eax,(%rbx)
    ba82:	c7 05 36 eb 00 00 00 	movl   $0x0,0xeb36(%rip)        # 1a5c2 <g_1207+0x12>
    ba89:	00 00 00 
    ba8c:	e9 07 07 00 00       	jmpq   c198 <func_36+0xc6b>
    ba91:	48 8d 05 28 1d 01 00 	lea    0x11d28(%rip),%rax        # 1d7c0 <g_717>
    ba98:	48 89 85 58 ef ff ff 	mov    %rax,-0x10a8(%rbp)
    ba9f:	48 8d 85 58 ef ff ff 	lea    -0x10a8(%rbp),%rax
    baa6:	48 89 85 60 ef ff ff 	mov    %rax,-0x10a0(%rbp)
    baad:	48 8d 85 60 ef ff ff 	lea    -0x10a0(%rbp),%rax
    bab4:	48 89 85 c8 ef ff ff 	mov    %rax,-0x1038(%rbp)
    babb:	48 b8 79 db 1d 55 ea 	movabs $0x4e0472ea551ddb79,%rax
    bac2:	72 04 4e 
    bac5:	48 89 85 d0 ef ff ff 	mov    %rax,-0x1030(%rbp)
    bacc:	c7 85 d4 ee ff ff d1 	movl   $0x4c5043d1,-0x112c(%rbp)
    bad3:	43 50 4c 
    bad6:	c7 85 d8 ee ff ff b7 	movl   $0x820f5b7,-0x1128(%rbp)
    badd:	f5 20 08 
    bae0:	c7 85 dc ee ff ff 01 	movl   $0x1,-0x1124(%rbp)
    bae7:	00 00 00 
    baea:	48 8d 05 99 ea 00 00 	lea    0xea99(%rip),%rax        # 1a58a <g_1092+0xa>
    baf1:	48 89 85 c0 ef ff ff 	mov    %rax,-0x1040(%rbp)
    baf8:	48 8d 05 f1 1c 01 00 	lea    0x11cf1(%rip),%rax        # 1d7f0 <g_1251>
    baff:	48 89 85 68 ef ff ff 	mov    %rax,-0x1098(%rbp)
    bb06:	48 8d 85 68 ef ff ff 	lea    -0x1098(%rbp),%rax
    bb0d:	48 89 85 70 ef ff ff 	mov    %rax,-0x1090(%rbp)
    bb14:	48 8d 85 70 ef ff ff 	lea    -0x1090(%rbp),%rax
    bb1b:	48 89 85 80 f1 ff ff 	mov    %rax,-0xe80(%rbp)
    bb22:	48 8d 85 70 ef ff ff 	lea    -0x1090(%rbp),%rax
    bb29:	48 89 85 88 f1 ff ff 	mov    %rax,-0xe78(%rbp)
    bb30:	48 8d 85 70 ef ff ff 	lea    -0x1090(%rbp),%rax
    bb37:	48 89 85 90 f1 ff ff 	mov    %rax,-0xe70(%rbp)
    bb3e:	48 8d 85 70 ef ff ff 	lea    -0x1090(%rbp),%rax
    bb45:	48 89 85 98 f1 ff ff 	mov    %rax,-0xe68(%rbp)
    bb4c:	48 8d 85 70 ef ff ff 	lea    -0x1090(%rbp),%rax
    bb53:	48 89 85 a0 f1 ff ff 	mov    %rax,-0xe60(%rbp)
    bb5a:	48 8d 85 70 ef ff ff 	lea    -0x1090(%rbp),%rax
    bb61:	48 89 85 a8 f1 ff ff 	mov    %rax,-0xe58(%rbp)
    bb68:	48 8d 05 69 19 01 00 	lea    0x11969(%rip),%rax        # 1d4d8 <g_661+0x18>
    bb6f:	48 89 85 98 ef ff ff 	mov    %rax,-0x1068(%rbp)
    bb76:	c7 85 c0 ee ff ff 19 	movl   $0x64859119,-0x1140(%rbp)
    bb7d:	91 85 64 
    bb80:	48 b8 4e 2b a6 b6 97 	movabs $0xbdaeae97b6a62b4e,%rax
    bb87:	ae ae bd 
    bb8a:	48 89 85 a0 ef ff ff 	mov    %rax,-0x1060(%rbp)
    bb91:	48 c7 85 b0 f1 ff ff 	movq   $0x0,-0xe50(%rbp)
    bb98:	00 00 00 00 
    bb9c:	48 c7 85 b8 f1 ff ff 	movq   $0x0,-0xe48(%rbp)
    bba3:	00 00 00 00 
    bba7:	48 c7 85 c0 f1 ff ff 	movq   $0x0,-0xe40(%rbp)
    bbae:	00 00 00 00 
    bbb2:	48 c7 85 c8 f1 ff ff 	movq   $0x0,-0xe38(%rbp)
    bbb9:	00 00 00 00 
    bbbd:	48 c7 85 d0 f1 ff ff 	movq   $0x0,-0xe30(%rbp)
    bbc4:	00 00 00 00 
    bbc8:	48 c7 85 d8 f1 ff ff 	movq   $0x0,-0xe28(%rbp)
    bbcf:	00 00 00 00 
    bbd3:	c7 85 c4 ee ff ff 01 	movl   $0x1,-0x113c(%rbp)
    bbda:	00 00 00 
    bbdd:	c7 85 d0 f0 ff ff 01 	movl   $0x1,-0xf30(%rbp)
    bbe4:	00 00 00 
    bbe7:	c7 85 d4 f0 ff ff 01 	movl   $0x1,-0xf2c(%rbp)
    bbee:	00 00 00 
    bbf1:	c7 85 d8 f0 ff ff 01 	movl   $0x1,-0xf28(%rbp)
    bbf8:	00 00 00 
    bbfb:	c7 85 dc f0 ff ff 01 	movl   $0x1,-0xf24(%rbp)
    bc02:	00 00 00 
    bc05:	c7 85 e0 f0 ff ff 01 	movl   $0x1,-0xf20(%rbp)
    bc0c:	00 00 00 
    bc0f:	c7 85 e4 f0 ff ff 01 	movl   $0x1,-0xf1c(%rbp)
    bc16:	00 00 00 
    bc19:	c7 85 e8 f0 ff ff 01 	movl   $0x1,-0xf18(%rbp)
    bc20:	00 00 00 
    bc23:	c7 85 ec f0 ff ff 01 	movl   $0x1,-0xf14(%rbp)
    bc2a:	00 00 00 
    bc2d:	c7 85 c8 ee ff ff 00 	movl   $0x0,-0x1138(%rbp)
    bc34:	00 00 00 
    bc37:	c6 85 8c ee ff ff 13 	movb   $0x13,-0x1174(%rbp)
    bc3e:	48 8d 05 4b 18 01 00 	lea    0x1184b(%rip),%rax        # 1d490 <g_374+0x10>
    bc45:	48 89 85 a8 ef ff ff 	mov    %rax,-0x1058(%rbp)
    bc4c:	48 8d 05 15 2c 01 00 	lea    0x12c15(%rip),%rax        # 1e868 <g_719>
    bc53:	48 89 85 b0 ef ff ff 	mov    %rax,-0x1050(%rbp)
    bc5a:	48 8d 05 05 e8 00 00 	lea    0xe805(%rip),%rax        # 1a466 <g_375>
    bc61:	48 89 85 b8 ef ff ff 	mov    %rax,-0x1048(%rbp)
    bc68:	48 8d 05 e1 2b 01 00 	lea    0x12be1(%rip),%rax        # 1e850 <g_90>
    bc6f:	48 89 85 88 ef ff ff 	mov    %rax,-0x1078(%rbp)
    bc76:	66 c7 85 94 ee ff ff 	movw   $0x8a17,-0x116c(%rbp)
    bc7d:	17 8a 
    bc7f:	c6 85 89 ee ff ff 7b 	movb   $0x7b,-0x1177(%rbp)
    bc86:	66 c7 85 96 ee ff ff 	movw   $0x5,-0x116a(%rbp)
    bc8d:	05 00 
    bc8f:	c6 85 8a ee ff ff 56 	movb   $0x56,-0x1176(%rbp)
    bc96:	48 8d 85 c0 f5 ff ff 	lea    -0xa40(%rbp),%rax
    bc9d:	48 8d 15 dc fb 00 00 	lea    0xfbdc(%rip),%rdx        # 1b880 <g_3696+0x91a>
    bca4:	b9 60 00 00 00       	mov    $0x60,%ecx
    bca9:	48 89 c7             	mov    %rax,%rdi
    bcac:	48 89 d6             	mov    %rdx,%rsi
    bcaf:	f3 48 a5             	rep movsq %ds:(%rsi),%es:(%rdi)
    bcb2:	48 b8 92 ca 08 a2 c6 	movabs $0xdfc586c6a208ca92,%rax
    bcb9:	86 c5 df 
    bcbc:	48 89 85 90 ef ff ff 	mov    %rax,-0x1070(%rbp)
    bcc3:	c7 85 70 f2 ff ff 01 	movl   $0x1,-0xd90(%rbp)
    bcca:	00 00 00 
    bccd:	c7 85 74 f2 ff ff 01 	movl   $0x1,-0xd8c(%rbp)
    bcd4:	00 00 00 
    bcd7:	c7 85 78 f2 ff ff fa 	movl   $0x7be0b4fa,-0xd88(%rbp)
    bcde:	b4 e0 7b 
    bce1:	c7 85 7c f2 ff ff ff 	movl   $0xffffffff,-0xd84(%rbp)
    bce8:	ff ff ff 
    bceb:	c7 85 80 f2 ff ff 69 	movl   $0xd2cd2d69,-0xd80(%rbp)
    bcf2:	2d cd d2 
    bcf5:	c7 85 84 f2 ff ff 69 	movl   $0xd2cd2d69,-0xd7c(%rbp)
    bcfc:	2d cd d2 
    bcff:	c7 85 88 f2 ff ff fa 	movl   $0x7be0b4fa,-0xd78(%rbp)
    bd06:	b4 e0 7b 
    bd09:	c7 85 8c f2 ff ff 4d 	movl   $0xcefa5d4d,-0xd74(%rbp)
    bd10:	5d fa ce 
    bd13:	c7 85 90 f2 ff ff ff 	movl   $0xffffffff,-0xd70(%rbp)
    bd1a:	ff ff ff 
    bd1d:	c7 85 94 f2 ff ff ff 	movl   $0xffffffff,-0xd6c(%rbp)
    bd24:	ff ff ff 
    bd27:	c7 85 98 f2 ff ff 04 	movl   $0x4,-0xd68(%rbp)
    bd2e:	00 00 00 
    bd31:	c7 85 9c f2 ff ff ff 	movl   $0xffffffff,-0xd64(%rbp)
    bd38:	ff ff ff 
    bd3b:	c7 85 a0 f2 ff ff 01 	movl   $0x1,-0xd60(%rbp)
    bd42:	00 00 00 
    bd45:	c7 85 a4 f2 ff ff fa 	movl   $0x7be0b4fa,-0xd5c(%rbp)
    bd4c:	b4 e0 7b 
    bd4f:	c7 85 a8 f2 ff ff ff 	movl   $0xffffffff,-0xd58(%rbp)
    bd56:	ff ff ff 
    bd59:	c7 85 ac f2 ff ff 01 	movl   $0x1,-0xd54(%rbp)
    bd60:	00 00 00 
    bd63:	c7 85 b0 f2 ff ff 01 	movl   $0x1,-0xd50(%rbp)
    bd6a:	00 00 00 
    bd6d:	c7 85 b4 f2 ff ff 69 	movl   $0xd2cd2d69,-0xd4c(%rbp)
    bd74:	2d cd d2 
    bd77:	c7 85 b8 f2 ff ff ba 	movl   $0xffad74ba,-0xd48(%rbp)
    bd7e:	74 ad ff 
    bd81:	c7 85 bc f2 ff ff fa 	movl   $0x7be0b4fa,-0xd44(%rbp)
    bd88:	b4 e0 7b 
    bd8b:	c7 85 c0 f2 ff ff fa 	movl   $0x7be0b4fa,-0xd40(%rbp)
    bd92:	b4 e0 7b 
    bd95:	c7 85 c4 f2 ff ff 69 	movl   $0xd2cd2d69,-0xd3c(%rbp)
    bd9c:	2d cd d2 
    bd9f:	c7 85 c8 f2 ff ff 04 	movl   $0x4,-0xd38(%rbp)
    bda6:	00 00 00 
    bda9:	c7 85 cc f2 ff ff 0f 	movl   $0x16aafb0f,-0xd34(%rbp)
    bdb0:	fb aa 16 
    bdb3:	c7 85 d0 f2 ff ff ba 	movl   $0xffad74ba,-0xd30(%rbp)
    bdba:	74 ad ff 
    bdbd:	c7 85 d4 f2 ff ff 4d 	movl   $0xcefa5d4d,-0xd2c(%rbp)
    bdc4:	5d fa ce 
    bdc7:	c7 85 d8 f2 ff ff ba 	movl   $0xffad74ba,-0xd28(%rbp)
    bdce:	74 ad ff 
    bdd1:	c6 85 8b ee ff ff df 	movb   $0xdf,-0x1175(%rbp)
    bdd8:	48 8d 05 01 16 01 00 	lea    0x11601(%rip),%rax        # 1d3e0 <g_91>
    bddf:	48 89 85 e0 f2 ff ff 	mov    %rax,-0xd20(%rbp)
    bde6:	48 8d 05 f3 15 01 00 	lea    0x115f3(%rip),%rax        # 1d3e0 <g_91>
    bded:	48 89 85 e8 f2 ff ff 	mov    %rax,-0xd18(%rbp)
    bdf4:	48 c7 85 f0 f2 ff ff 	movq   $0x0,-0xd10(%rbp)
    bdfb:	00 00 00 00 
    bdff:	48 8d 05 da 15 01 00 	lea    0x115da(%rip),%rax        # 1d3e0 <g_91>
    be06:	48 89 85 f8 f2 ff ff 	mov    %rax,-0xd08(%rbp)
    be0d:	48 8d 05 cc 15 01 00 	lea    0x115cc(%rip),%rax        # 1d3e0 <g_91>
    be14:	48 89 85 00 f3 ff ff 	mov    %rax,-0xd00(%rbp)
    be1b:	48 8d 05 3e a2 00 00 	lea    0xa23e(%rip),%rax        # 16060 <g_1188>
    be22:	48 89 85 08 f3 ff ff 	mov    %rax,-0xcf8(%rbp)
    be29:	48 8d 05 b0 15 01 00 	lea    0x115b0(%rip),%rax        # 1d3e0 <g_91>
    be30:	48 89 85 10 f3 ff ff 	mov    %rax,-0xcf0(%rbp)
    be37:	48 c7 85 18 f3 ff ff 	movq   $0x0,-0xce8(%rbp)
    be3e:	00 00 00 00 
    be42:	48 8d 85 38 ef ff ff 	lea    -0x10c8(%rbp),%rax
    be49:	48 89 85 20 f3 ff ff 	mov    %rax,-0xce0(%rbp)
    be50:	48 8d 05 89 15 01 00 	lea    0x11589(%rip),%rax        # 1d3e0 <g_91>
    be57:	48 89 85 28 f3 ff ff 	mov    %rax,-0xcd8(%rbp)
    be5e:	48 8d 05 fb a1 00 00 	lea    0xa1fb(%rip),%rax        # 16060 <g_1188>
    be65:	48 89 85 30 f3 ff ff 	mov    %rax,-0xcd0(%rbp)
    be6c:	48 8d 85 38 ef ff ff 	lea    -0x10c8(%rbp),%rax
    be73:	48 89 85 38 f3 ff ff 	mov    %rax,-0xcc8(%rbp)
    be7a:	48 8d 05 5f 15 01 00 	lea    0x1155f(%rip),%rax        # 1d3e0 <g_91>
    be81:	48 89 85 40 f3 ff ff 	mov    %rax,-0xcc0(%rbp)
    be88:	48 8d 85 38 ef ff ff 	lea    -0x10c8(%rbp),%rax
    be8f:	48 89 85 48 f3 ff ff 	mov    %rax,-0xcb8(%rbp)
    be96:	48 8d 85 38 ef ff ff 	lea    -0x10c8(%rbp),%rax
    be9d:	48 89 85 50 f3 ff ff 	mov    %rax,-0xcb0(%rbp)
    bea4:	48 8d 05 35 15 01 00 	lea    0x11535(%rip),%rax        # 1d3e0 <g_91>
    beab:	48 89 85 58 f3 ff ff 	mov    %rax,-0xca8(%rbp)
    beb2:	48 8d 85 38 ef ff ff 	lea    -0x10c8(%rbp),%rax
    beb9:	48 89 85 60 f3 ff ff 	mov    %rax,-0xca0(%rbp)
    bec0:	48 8d 05 99 a1 00 00 	lea    0xa199(%rip),%rax        # 16060 <g_1188>
    bec7:	48 89 85 68 f3 ff ff 	mov    %rax,-0xc98(%rbp)
    bece:	48 8d 05 8b a1 00 00 	lea    0xa18b(%rip),%rax        # 16060 <g_1188>
    bed5:	48 89 85 70 f3 ff ff 	mov    %rax,-0xc90(%rbp)
    bedc:	48 8d 85 38 ef ff ff 	lea    -0x10c8(%rbp),%rax
    bee3:	48 89 85 78 f3 ff ff 	mov    %rax,-0xc88(%rbp)
    beea:	48 c7 85 80 f3 ff ff 	movq   $0x0,-0xc80(%rbp)
    bef1:	00 00 00 00 
    bef5:	48 8d 85 38 ef ff ff 	lea    -0x10c8(%rbp),%rax
    befc:	48 89 85 88 f3 ff ff 	mov    %rax,-0xc78(%rbp)
    bf03:	48 8d 05 d6 14 01 00 	lea    0x114d6(%rip),%rax        # 1d3e0 <g_91>
    bf0a:	48 89 85 90 f3 ff ff 	mov    %rax,-0xc70(%rbp)
    bf11:	48 8d 05 48 a1 00 00 	lea    0xa148(%rip),%rax        # 16060 <g_1188>
    bf18:	48 89 85 98 f3 ff ff 	mov    %rax,-0xc68(%rbp)
    bf1f:	48 8d 05 ba 14 01 00 	lea    0x114ba(%rip),%rax        # 1d3e0 <g_91>
    bf26:	48 89 85 a0 f3 ff ff 	mov    %rax,-0xc60(%rbp)
    bf2d:	48 c7 85 a8 f3 ff ff 	movq   $0x0,-0xc58(%rbp)
    bf34:	00 00 00 00 
    bf38:	48 c7 85 b0 f3 ff ff 	movq   $0x0,-0xc50(%rbp)
    bf3f:	00 00 00 00 
    bf43:	48 c7 85 b8 f3 ff ff 	movq   $0x0,-0xc48(%rbp)
    bf4a:	00 00 00 00 
    bf4e:	48 c7 85 c0 f3 ff ff 	movq   $0x0,-0xc40(%rbp)
    bf55:	00 00 00 00 
    bf59:	48 c7 85 c8 f3 ff ff 	movq   $0x0,-0xc38(%rbp)
    bf60:	00 00 00 00 
    bf64:	48 c7 85 d0 f3 ff ff 	movq   $0x0,-0xc30(%rbp)
    bf6b:	00 00 00 00 
    bf6f:	48 c7 85 d8 f3 ff ff 	movq   $0x0,-0xc28(%rbp)
    bf76:	00 00 00 00 
    bf7a:	48 b8 31 60 13 dc 2b 	movabs $0xf85b942bdc136031,%rax
    bf81:	94 5b f8 
    bf84:	48 89 85 78 ef ff ff 	mov    %rax,-0x1088(%rbp)
    bf8b:	48 c7 85 80 ef ff ff 	movq   $0x0,-0x1080(%rbp)
    bf92:	00 00 00 00 
    bf96:	c7 85 b0 ee ff ff 00 	movl   $0x0,-0x1150(%rbp)
    bf9d:	00 00 00 
    bfa0:	eb 46                	jmp    bfe8 <func_36+0xabb>
    bfa2:	c7 85 b4 ee ff ff 00 	movl   $0x0,-0x114c(%rbp)
    bfa9:	00 00 00 
    bfac:	eb 2a                	jmp    bfd8 <func_36+0xaab>
    bfae:	8b 85 b4 ee ff ff    	mov    -0x114c(%rbp),%eax
    bfb4:	48 63 d0             	movslq %eax,%rdx
    bfb7:	8b 85 b0 ee ff ff    	mov    -0x1150(%rbp),%eax
    bfbd:	48 98                	cltq   
    bfbf:	48 01 d0             	add    %rdx,%rax
    bfc2:	48 8d 15 07 18 01 00 	lea    0x11807(%rip),%rdx        # 1d7d0 <g_1091>
    bfc9:	48 89 94 c5 20 f1 ff 	mov    %rdx,-0xee0(%rbp,%rax,8)
    bfd0:	ff 
    bfd1:	83 85 b4 ee ff ff 01 	addl   $0x1,-0x114c(%rbp)
    bfd8:	83 bd b4 ee ff ff 00 	cmpl   $0x0,-0x114c(%rbp)
    bfdf:	7e cd                	jle    bfae <func_36+0xa81>
    bfe1:	83 85 b0 ee ff ff 01 	addl   $0x1,-0x1150(%rbp)
    bfe8:	83 bd b0 ee ff ff 04 	cmpl   $0x4,-0x1150(%rbp)
    bfef:	7e b1                	jle    bfa2 <func_36+0xa75>
    bff1:	c7 85 b0 ee ff ff 00 	movl   $0x0,-0x1150(%rbp)
    bff8:	00 00 00 
    bffb:	eb 22                	jmp    c01f <func_36+0xaf2>
    bffd:	8b 85 b0 ee ff ff    	mov    -0x1150(%rbp),%eax
    c003:	48 98                	cltq   
    c005:	48 8d 95 20 f1 ff ff 	lea    -0xee0(%rbp),%rdx
    c00c:	48 83 c2 08          	add    $0x8,%rdx
    c010:	48 89 94 c5 b0 f0 ff 	mov    %rdx,-0xf50(%rbp,%rax,8)
    c017:	ff 
    c018:	83 85 b0 ee ff ff 01 	addl   $0x1,-0x1150(%rbp)
    c01f:	83 bd b0 ee ff ff 03 	cmpl   $0x3,-0x1150(%rbp)
    c026:	7e d5                	jle    bffd <func_36+0xad0>
    c028:	c7 85 b0 ee ff ff 00 	movl   $0x0,-0x1150(%rbp)
    c02f:	00 00 00 
    c032:	eb 1a                	jmp    c04e <func_36+0xb21>
    c034:	8b 85 b0 ee ff ff    	mov    -0x1150(%rbp),%eax
    c03a:	48 98                	cltq   
    c03c:	c7 84 85 84 f0 ff ff 	movl   $0x0,-0xf7c(%rbp,%rax,4)
    c043:	00 00 00 00 
    c047:	83 85 b0 ee ff ff 01 	addl   $0x1,-0x1150(%rbp)
    c04e:	83 bd b0 ee ff ff 02 	cmpl   $0x2,-0x1150(%rbp)
    c055:	7e dd                	jle    c034 <func_36+0xb07>
    c057:	c7 85 b0 ee ff ff 00 	movl   $0x0,-0x1150(%rbp)
    c05e:	00 00 00 
    c061:	eb 14                	jmp    c077 <func_36+0xb4a>
    c063:	8b 85 b0 ee ff ff    	mov    -0x1150(%rbp),%eax
    c069:	48 98                	cltq   
    c06b:	c6 44 05 d3 22       	movb   $0x22,-0x2d(%rbp,%rax,1)
    c070:	83 85 b0 ee ff ff 01 	addl   $0x1,-0x1150(%rbp)
    c077:	83 bd b0 ee ff ff 04 	cmpl   $0x4,-0x1150(%rbp)
    c07e:	7e e3                	jle    c063 <func_36+0xb36>
    c080:	c7 85 b0 ee ff ff 00 	movl   $0x0,-0x1150(%rbp)
    c087:	00 00 00 
    c08a:	eb 1e                	jmp    c0aa <func_36+0xb7d>
    c08c:	8b 85 b0 ee ff ff    	mov    -0x1150(%rbp),%eax
    c092:	48 98                	cltq   
    c094:	48 8d 15 e5 27 01 00 	lea    0x127e5(%rip),%rdx        # 1e880 <g_792>
    c09b:	48 89 94 c5 90 f0 ff 	mov    %rdx,-0xf70(%rbp,%rax,8)
    c0a2:	ff 
    c0a3:	83 85 b0 ee ff ff 01 	addl   $0x1,-0x1150(%rbp)
    c0aa:	83 bd b0 ee ff ff 02 	cmpl   $0x2,-0x1150(%rbp)
    c0b1:	7e d9                	jle    c08c <func_36+0xb5f>
    c0b3:	8b 85 7c ee ff ff    	mov    -0x1184(%rbp),%eax
    c0b9:	44 0f b6 e0          	movzbl %al,%r12d
    c0bd:	b8 00 00 00 00       	mov    $0x0,%eax
    c0c2:	44 0f b7 e8          	movzwl %ax,%r13d
    c0c6:	8b 85 7c ee ff ff    	mov    -0x1184(%rbp),%eax
    c0cc:	0f b6 d8             	movzbl %al,%ebx
    c0cf:	8b 85 18 ef ff ff    	mov    -0x10e8(%rbp),%eax
    c0d5:	be c0 1f 24 cb       	mov    $0xcb241fc0,%esi
    c0da:	89 c7                	mov    %eax,%edi
    c0dc:	e8 d5 d4 ff ff       	callq  95b6 <safe_add_func_int32_t_s_s>
    c0e1:	85 c0                	test   %eax,%eax
    c0e3:	75 0c                	jne    c0f1 <func_36+0xbc4>
    c0e5:	48 8b 05 dc 16 01 00 	mov    0x116dc(%rip),%rax        # 1d7c8 <g_865>
    c0ec:	0f b6 00             	movzbl (%rax),%eax
    c0ef:	3c 02                	cmp    $0x2,%al
    c0f1:	48 8b 05 d0 16 01 00 	mov    0x116d0(%rip),%rax        # 1d7c8 <g_865>
    c0f8:	0f b6 00             	movzbl (%rax),%eax
    c0fb:	0f be c0             	movsbl %al,%eax
    c0fe:	be 07 00 00 00       	mov    $0x7,%esi
    c103:	89 c7                	mov    %eax,%edi
    c105:	e8 62 d2 ff ff       	callq  936c <safe_rshift_func_int8_t_s_u>
    c10a:	8b 85 bc ee ff ff    	mov    -0x1144(%rbp),%eax
    c110:	f7 d0                	not    %eax
    c112:	c1 e8 1f             	shr    $0x1f,%eax
    c115:	0f b6 c0             	movzbl %al,%eax
    c118:	89 de                	mov    %ebx,%esi
    c11a:	89 c7                	mov    %eax,%edi
    c11c:	e8 72 da ff ff       	callq  9b93 <safe_mul_func_uint8_t_u_u>
    c121:	0f b6 d0             	movzbl %al,%edx
    c124:	8b 85 f0 f0 ff ff    	mov    -0xf10(%rbp),%eax
    c12a:	21 d0                	and    %edx,%eax
    c12c:	89 c0                	mov    %eax,%eax
    c12e:	48 8b 1d c3 16 01 00 	mov    0x116c3(%rip),%rbx        # 1d7f8 <g_1323>
    c135:	48 89 c7             	mov    %rax,%rdi
    c138:	e8 b7 08 00 00       	callq  c9f4 <func_51>
    c13d:	48 89 03             	mov    %rax,(%rbx)
    c140:	48 8b 03             	mov    (%rbx),%rax
    c143:	48 85 c0             	test   %rax,%rax
    c146:	0f 95 c0             	setne  %al
    c149:	0f b6 d0             	movzbl %al,%edx
    c14c:	8b 85 7c ee ff ff    	mov    -0x1184(%rbp),%eax
    c152:	39 c2                	cmp    %eax,%edx
    c154:	0f 94 c0             	sete   %al
    c157:	0f b6 c0             	movzbl %al,%eax
    c15a:	44 89 ee             	mov    %r13d,%esi
    c15d:	89 c7                	mov    %eax,%edi
    c15f:	e8 d9 db ff ff       	callq  9d3d <safe_mul_func_uint16_t_u_u>
    c164:	0f b6 c0             	movzbl %al,%eax
    c167:	44 89 e6             	mov    %r12d,%esi
    c16a:	89 c7                	mov    %eax,%edi
    c16c:	e8 e9 d9 ff ff       	callq  9b5a <safe_add_func_uint8_t_u_u>
    c171:	0f b6 c0             	movzbl %al,%eax
    c174:	89 85 bc ee ff ff    	mov    %eax,-0x1144(%rbp)
    c17a:	8b 05 b0 e4 00 00    	mov    0xe4b0(%rip),%eax        # 1a630 <g_1443>
    c180:	85 c0                	test   %eax,%eax
    c182:	74 05                	je     c189 <func_36+0xc5c>
    c184:	e9 f9 f8 ff ff       	jmpq   ba82 <func_36+0x555>
    c189:	8b 05 33 e4 00 00    	mov    0xe433(%rip),%eax        # 1a5c2 <g_1207+0x12>
    c18f:	83 c0 01             	add    $0x1,%eax
    c192:	89 05 2a e4 00 00    	mov    %eax,0xe42a(%rip)        # 1a5c2 <g_1207+0x12>
    c198:	8b 05 24 e4 00 00    	mov    0xe424(%rip),%eax        # 1a5c2 <g_1207+0x12>
    c19e:	83 f8 08             	cmp    $0x8,%eax
    c1a1:	0f 86 ea f8 ff ff    	jbe    ba91 <func_36+0x564>
    c1a7:	48 8b 85 38 ef ff ff 	mov    -0x10c8(%rbp),%rax
    c1ae:	c7 00 ff ff ff ff    	movl   $0xffffffff,(%rax)
    c1b4:	66 c7 85 98 ee ff ff 	movw   $0x6be0,-0x1168(%rbp)
    c1bb:	e0 6b 
    c1bd:	66 c7 85 9a ee ff ff 	movw   $0x0,-0x1166(%rbp)
    c1c4:	00 00 
    c1c6:	48 c7 85 d8 ef ff ff 	movq   $0x0,-0x1028(%rbp)
    c1cd:	00 00 00 00 
    c1d1:	48 8d 85 e0 f3 ff ff 	lea    -0xc20(%rbp),%rax
    c1d8:	48 05 c8 01 00 00    	add    $0x1c8,%rax
    c1de:	48 89 85 e0 ef ff ff 	mov    %rax,-0x1020(%rbp)
    c1e5:	c7 85 70 f2 ff ff ea 	movl   $0x1f3e0eea,-0xd90(%rbp)
    c1ec:	0e 3e 1f 
    c1ef:	c7 85 74 f2 ff ff ea 	movl   $0x1f3e0eea,-0xd8c(%rbp)
    c1f6:	0e 3e 1f 
    c1f9:	c7 85 78 f2 ff ff ea 	movl   $0x1f3e0eea,-0xd88(%rbp)
    c200:	0e 3e 1f 
    c203:	c7 85 7c f2 ff ff ea 	movl   $0x1f3e0eea,-0xd84(%rbp)
    c20a:	0e 3e 1f 
    c20d:	c7 85 cc ee ff ff fa 	movl   $0xfffffffa,-0x1134(%rbp)
    c214:	ff ff ff 
    c217:	48 c7 85 e8 ef ff ff 	movq   $0x0,-0x1018(%rbp)
    c21e:	00 00 00 00 
    c222:	48 c7 85 70 ef ff ff 	movq   $0x0,-0x1090(%rbp)
    c229:	00 00 00 00 
    c22d:	48 8d 85 70 ef ff ff 	lea    -0x1090(%rbp),%rax
    c234:	48 89 85 f0 ef ff ff 	mov    %rax,-0x1010(%rbp)
    c23b:	48 c7 85 c0 f5 ff ff 	movq   $0x0,-0xa40(%rbp)
    c242:	00 00 00 00 
    c246:	48 c7 85 c8 f5 ff ff 	movq   $0x0,-0xa38(%rbp)
    c24d:	00 00 00 00 
    c251:	48 8d 85 28 ef ff ff 	lea    -0x10d8(%rbp),%rax
    c258:	48 89 85 d0 f5 ff ff 	mov    %rax,-0xa30(%rbp)
    c25f:	48 8d 05 42 17 01 00 	lea    0x11742(%rip),%rax        # 1d9a8 <g_2038>
    c266:	48 89 85 d8 f5 ff ff 	mov    %rax,-0xa28(%rbp)
    c26d:	48 8d 85 28 ef ff ff 	lea    -0x10d8(%rbp),%rax
    c274:	48 89 85 e0 f5 ff ff 	mov    %rax,-0xa20(%rbp)
    c27b:	48 8d 85 28 ef ff ff 	lea    -0x10d8(%rbp),%rax
    c282:	48 89 85 e8 f5 ff ff 	mov    %rax,-0xa18(%rbp)
    c289:	48 8d 05 18 17 01 00 	lea    0x11718(%rip),%rax        # 1d9a8 <g_2038>
    c290:	48 89 85 f0 f5 ff ff 	mov    %rax,-0xa10(%rbp)
    c297:	48 c7 85 f8 f5 ff ff 	movq   $0x0,-0xa08(%rbp)
    c29e:	00 00 00 00 
    c2a2:	48 8d 05 ff 16 01 00 	lea    0x116ff(%rip),%rax        # 1d9a8 <g_2038>
    c2a9:	48 89 85 00 f6 ff ff 	mov    %rax,-0xa00(%rbp)
    c2b0:	48 8d 05 f1 16 01 00 	lea    0x116f1(%rip),%rax        # 1d9a8 <g_2038>
    c2b7:	48 89 85 08 f6 ff ff 	mov    %rax,-0x9f8(%rbp)
    c2be:	48 c7 85 10 f6 ff ff 	movq   $0x0,-0x9f0(%rbp)
    c2c5:	00 00 00 00 
    c2c9:	48 8d 05 d8 16 01 00 	lea    0x116d8(%rip),%rax        # 1d9a8 <g_2038>
    c2d0:	48 89 85 18 f6 ff ff 	mov    %rax,-0x9e8(%rbp)
    c2d7:	48 c7 85 20 f6 ff ff 	movq   $0x0,-0x9e0(%rbp)
    c2de:	00 00 00 00 
    c2e2:	48 8d 05 bf 16 01 00 	lea    0x116bf(%rip),%rax        # 1d9a8 <g_2038>
    c2e9:	48 89 85 28 f6 ff ff 	mov    %rax,-0x9d8(%rbp)
    c2f0:	48 8d 05 b1 16 01 00 	lea    0x116b1(%rip),%rax        # 1d9a8 <g_2038>
    c2f7:	48 89 85 30 f6 ff ff 	mov    %rax,-0x9d0(%rbp)
    c2fe:	48 c7 85 38 f6 ff ff 	movq   $0x0,-0x9c8(%rbp)
    c305:	00 00 00 00 
    c309:	48 8d 05 98 16 01 00 	lea    0x11698(%rip),%rax        # 1d9a8 <g_2038>
    c310:	48 89 85 40 f6 ff ff 	mov    %rax,-0x9c0(%rbp)
    c317:	48 8d 85 28 ef ff ff 	lea    -0x10d8(%rbp),%rax
    c31e:	48 89 85 48 f6 ff ff 	mov    %rax,-0x9b8(%rbp)
    c325:	48 8d 85 28 ef ff ff 	lea    -0x10d8(%rbp),%rax
    c32c:	48 89 85 50 f6 ff ff 	mov    %rax,-0x9b0(%rbp)
    c333:	48 8d 05 6e 16 01 00 	lea    0x1166e(%rip),%rax        # 1d9a8 <g_2038>
    c33a:	48 89 85 58 f6 ff ff 	mov    %rax,-0x9a8(%rbp)
    c341:	48 8d 85 28 ef ff ff 	lea    -0x10d8(%rbp),%rax
    c348:	48 89 85 60 f6 ff ff 	mov    %rax,-0x9a0(%rbp)
    c34f:	48 c7 85 68 f6 ff ff 	movq   $0x0,-0x998(%rbp)
    c356:	00 00 00 00 
    c35a:	48 c7 85 70 f6 ff ff 	movq   $0x0,-0x990(%rbp)
    c361:	00 00 00 00 
    c365:	48 8d 05 3c 16 01 00 	lea    0x1163c(%rip),%rax        # 1d9a8 <g_2038>
    c36c:	48 89 85 78 f6 ff ff 	mov    %rax,-0x988(%rbp)
    c373:	48 8d 85 28 ef ff ff 	lea    -0x10d8(%rbp),%rax
    c37a:	48 89 85 80 f6 ff ff 	mov    %rax,-0x980(%rbp)
    c381:	48 8d 05 20 16 01 00 	lea    0x11620(%rip),%rax        # 1d9a8 <g_2038>
    c388:	48 89 85 88 f6 ff ff 	mov    %rax,-0x978(%rbp)
    c38f:	48 c7 85 90 f6 ff ff 	movq   $0x0,-0x970(%rbp)
    c396:	00 00 00 00 
    c39a:	48 8d 85 28 ef ff ff 	lea    -0x10d8(%rbp),%rax
    c3a1:	48 89 85 98 f6 ff ff 	mov    %rax,-0x968(%rbp)
    c3a8:	48 8d 05 f9 15 01 00 	lea    0x115f9(%rip),%rax        # 1d9a8 <g_2038>
    c3af:	48 89 85 a0 f6 ff ff 	mov    %rax,-0x960(%rbp)
    c3b6:	48 8d 05 eb 15 01 00 	lea    0x115eb(%rip),%rax        # 1d9a8 <g_2038>
    c3bd:	48 89 85 a8 f6 ff ff 	mov    %rax,-0x958(%rbp)
    c3c4:	48 8d 85 28 ef ff ff 	lea    -0x10d8(%rbp),%rax
    c3cb:	48 89 85 b0 f6 ff ff 	mov    %rax,-0x950(%rbp)
    c3d2:	48 8d 05 cf 15 01 00 	lea    0x115cf(%rip),%rax        # 1d9a8 <g_2038>
    c3d9:	48 89 85 b8 f6 ff ff 	mov    %rax,-0x948(%rbp)
    c3e0:	48 8d 05 c1 15 01 00 	lea    0x115c1(%rip),%rax        # 1d9a8 <g_2038>
    c3e7:	48 89 85 c0 f6 ff ff 	mov    %rax,-0x940(%rbp)
    c3ee:	48 8d 85 28 ef ff ff 	lea    -0x10d8(%rbp),%rax
    c3f5:	48 89 85 c8 f6 ff ff 	mov    %rax,-0x938(%rbp)
    c3fc:	48 c7 85 d0 f6 ff ff 	movq   $0x0,-0x930(%rbp)
    c403:	00 00 00 00 
    c407:	48 8d 05 9a 15 01 00 	lea    0x1159a(%rip),%rax        # 1d9a8 <g_2038>
    c40e:	48 89 85 d8 f6 ff ff 	mov    %rax,-0x928(%rbp)
    c415:	48 8d 85 28 ef ff ff 	lea    -0x10d8(%rbp),%rax
    c41c:	48 89 85 e0 f6 ff ff 	mov    %rax,-0x920(%rbp)
    c423:	48 8d 05 7e 15 01 00 	lea    0x1157e(%rip),%rax        # 1d9a8 <g_2038>
    c42a:	48 89 85 e8 f6 ff ff 	mov    %rax,-0x918(%rbp)
    c431:	48 c7 85 f0 f6 ff ff 	movq   $0x0,-0x910(%rbp)
    c438:	00 00 00 00 
    c43c:	48 c7 85 f8 f6 ff ff 	movq   $0x0,-0x908(%rbp)
    c443:	00 00 00 00 
    c447:	48 8d 85 28 ef ff ff 	lea    -0x10d8(%rbp),%rax
    c44e:	48 89 85 00 f7 ff ff 	mov    %rax,-0x900(%rbp)
    c455:	48 8d 05 4c 15 01 00 	lea    0x1154c(%rip),%rax        # 1d9a8 <g_2038>
    c45c:	48 89 85 08 f7 ff ff 	mov    %rax,-0x8f8(%rbp)
    c463:	48 8d 85 28 ef ff ff 	lea    -0x10d8(%rbp),%rax
    c46a:	48 89 85 10 f7 ff ff 	mov    %rax,-0x8f0(%rbp)
    c471:	48 8d 85 28 ef ff ff 	lea    -0x10d8(%rbp),%rax
    c478:	48 89 85 18 f7 ff ff 	mov    %rax,-0x8e8(%rbp)
    c47f:	48 8d 05 22 15 01 00 	lea    0x11522(%rip),%rax        # 1d9a8 <g_2038>
    c486:	48 89 85 20 f7 ff ff 	mov    %rax,-0x8e0(%rbp)
    c48d:	48 c7 85 28 f7 ff ff 	movq   $0x0,-0x8d8(%rbp)
    c494:	00 00 00 00 
    c498:	48 8d 05 09 15 01 00 	lea    0x11509(%rip),%rax        # 1d9a8 <g_2038>
    c49f:	48 89 85 30 f7 ff ff 	mov    %rax,-0x8d0(%rbp)
    c4a6:	48 8d 05 fb 14 01 00 	lea    0x114fb(%rip),%rax        # 1d9a8 <g_2038>
    c4ad:	48 89 85 38 f7 ff ff 	mov    %rax,-0x8c8(%rbp)
    c4b4:	48 c7 85 40 f7 ff ff 	movq   $0x0,-0x8c0(%rbp)
    c4bb:	00 00 00 00 
    c4bf:	48 8d 05 e2 14 01 00 	lea    0x114e2(%rip),%rax        # 1d9a8 <g_2038>
    c4c6:	48 89 85 48 f7 ff ff 	mov    %rax,-0x8b8(%rbp)
    c4cd:	c7 85 d0 ee ff ff 00 	movl   $0x0,-0x1130(%rbp)
    c4d4:	00 00 00 
    c4d7:	eb 1e                	jmp    c4f7 <func_36+0xfca>
    c4d9:	8b 85 d0 ee ff ff    	mov    -0x1130(%rbp),%eax
    c4df:	48 98                	cltq   
    c4e1:	48 8d 95 70 f0 ff ff 	lea    -0xf90(%rbp),%rdx
    c4e8:	48 89 94 c5 e0 f2 ff 	mov    %rdx,-0xd20(%rbp,%rax,8)
    c4ef:	ff 
    c4f0:	83 85 d0 ee ff ff 01 	addl   $0x1,-0x1130(%rbp)
    c4f7:	83 bd d0 ee ff ff 01 	cmpl   $0x1,-0x1130(%rbp)
    c4fe:	7e d9                	jle    c4d9 <func_36+0xfac>
    c500:	0f b7 9d 98 ee ff ff 	movzwl -0x1168(%rbp),%ebx
    c507:	8b 95 7c ee ff ff    	mov    -0x1184(%rbp),%edx
    c50d:	8b 85 7c ee ff ff    	mov    -0x1184(%rbp),%eax
    c513:	89 d6                	mov    %edx,%esi
    c515:	89 c7                	mov    %eax,%edi
    c517:	e8 b0 d1 ff ff       	callq  96cc <safe_mod_func_int32_t_s_s>
    c51c:	8b 95 7c ee ff ff    	mov    -0x1184(%rbp),%edx
    c522:	0f b7 85 98 ee ff ff 	movzwl -0x1168(%rbp),%eax
    c529:	89 d6                	mov    %edx,%esi
    c52b:	89 c7                	mov    %eax,%edi
    c52d:	e8 16 d9 ff ff       	callq  9e48 <safe_rshift_func_uint16_t_u_s>
    c532:	66 3d a2 5e          	cmp    $0x5ea2,%ax
    c536:	77 09                	ja     c541 <func_36+0x1014>
    c538:	66 83 bd 98 ee ff ff 	cmpw   $0x0,-0x1168(%rbp)
    c53f:	00 
    c540:	90                   	nop
    c541:	0f b7 85 98 ee ff ff 	movzwl -0x1168(%rbp),%eax
    c548:	48 89 de             	mov    %rbx,%rsi
    c54b:	48 89 c7             	mov    %rax,%rdi
    c54e:	e8 5c db ff ff       	callq  a0af <safe_div_func_uint64_t_u_u>
    c553:	0f b6 d0             	movzbl %al,%edx
    c556:	48 8b 85 38 ef ff ff 	mov    -0x10c8(%rbp),%rax
    c55d:	8b 00                	mov    (%rax),%eax
    c55f:	0f b6 c0             	movzbl %al,%eax
    c562:	89 d6                	mov    %edx,%esi
    c564:	89 c7                	mov    %eax,%edi
    c566:	e8 43 d6 ff ff       	callq  9bae <safe_mod_func_uint8_t_u_u>
    c56b:	0f b7 85 98 ee ff ff 	movzwl -0x1168(%rbp),%eax
    c572:	0f be d0             	movsbl %al,%edx
    c575:	8b 85 7c ee ff ff    	mov    -0x1184(%rbp),%eax
    c57b:	0f be c0             	movsbl %al,%eax
    c57e:	89 d6                	mov    %edx,%esi
    c580:	89 c7                	mov    %eax,%edi
    c582:	e8 8b cc ff ff       	callq  9212 <safe_mul_func_int8_t_s_s>
    c587:	0f be c0             	movsbl %al,%eax
    c58a:	be 01 00 00 00       	mov    $0x1,%esi
    c58f:	89 c7                	mov    %eax,%edi
    c591:	e8 58 cd ff ff       	callq  92ee <safe_lshift_func_int8_t_s_u>
    c596:	0f be c8             	movsbl %al,%ecx
    c599:	8b 95 7c ee ff ff    	mov    -0x1184(%rbp),%edx
    c59f:	48 8b 85 38 ef ff ff 	mov    -0x10c8(%rbp),%rax
    c5a6:	21 ca                	and    %ecx,%edx
    c5a8:	89 10                	mov    %edx,(%rax)
    c5aa:	8b 85 7c ee ff ff    	mov    -0x1184(%rbp),%eax
    c5b0:	c1 e8 1f             	shr    $0x1f,%eax
    c5b3:	44 0f b6 e0          	movzbl %al,%r12d
    c5b7:	66 83 bd 9a ee ff ff 	cmpw   $0x0,-0x1166(%rbp)
    c5be:	00 
    c5bf:	75 63                	jne    c624 <func_36+0x10f7>
    c5c1:	48 8b 05 d8 13 01 00 	mov    0x113d8(%rip),%rax        # 1d9a0 <g_1982>
    c5c8:	48 8b 00             	mov    (%rax),%rax
    c5cb:	0f b7 00             	movzwl (%rax),%eax
    c5ce:	0f bf d8             	movswl %ax,%ebx
    c5d1:	48 8b 05 e8 11 01 00 	mov    0x111e8(%rip),%rax        # 1d7c0 <g_717>
    c5d8:	48 8b 00             	mov    (%rax),%rax
    c5db:	48 39 85 d8 ef ff ff 	cmp    %rax,-0x1028(%rbp)
    c5e2:	0f 95 c0             	setne  %al
    c5e5:	0f b6 c0             	movzbl %al,%eax
    c5e8:	be 03 00 00 00       	mov    $0x3,%esi
    c5ed:	89 c7                	mov    %eax,%edi
    c5ef:	e8 e7 d5 ff ff       	callq  9bdb <safe_div_func_uint8_t_u_u>
    c5f4:	0f b6 c0             	movzbl %al,%eax
    c5f7:	89 de                	mov    %ebx,%esi
    c5f9:	89 c7                	mov    %eax,%edi
    c5fb:	e8 f5 cd ff ff       	callq  93f5 <safe_mul_func_int16_t_s_s>
    c600:	48 8d 85 7c ee ff ff 	lea    -0x1184(%rbp),%rax
    c607:	48 39 85 e0 ef ff ff 	cmp    %rax,-0x1020(%rbp)
    c60e:	0f 95 c0             	setne  %al
    c611:	0f b6 c0             	movzbl %al,%eax
    c614:	be 00 51 14 02       	mov    $0x2145100,%esi
    c619:	89 c7                	mov    %eax,%edi
    c61b:	e8 b0 d8 ff ff       	callq  9ed0 <safe_sub_func_uint32_t_u_u>
    c620:	85 c0                	test   %eax,%eax
    c622:	74 07                	je     c62b <func_36+0x10fe>
    c624:	ba 01 00 00 00       	mov    $0x1,%edx
    c629:	eb 05                	jmp    c630 <func_36+0x1103>
    c62b:	ba 00 00 00 00       	mov    $0x0,%edx
    c630:	48 8b 85 38 ef ff ff 	mov    -0x10c8(%rbp),%rax
    c637:	89 10                	mov    %edx,(%rax)
    c639:	8b 10                	mov    (%rax),%edx
    c63b:	8b 85 7c ee ff ff    	mov    -0x1184(%rbp),%eax
    c641:	89 d6                	mov    %edx,%esi
    c643:	89 c7                	mov    %eax,%edi
    c645:	e8 82 d0 ff ff       	callq  96cc <safe_mod_func_int32_t_s_s>
    c64a:	0f bf d0             	movswl %ax,%edx
    c64d:	0f b7 85 98 ee ff ff 	movzwl -0x1168(%rbp),%eax
    c654:	98                   	cwtl   
    c655:	89 d6                	mov    %edx,%esi
    c657:	89 c7                	mov    %eax,%edi
    c659:	e8 75 cd ff ff       	callq  93d3 <safe_sub_func_int16_t_s_s>
    c65e:	98                   	cwtl   
    c65f:	44 09 e0             	or     %r12d,%eax
    c662:	39 85 14 ef ff ff    	cmp    %eax,-0x10ec(%rbp)
    c668:	0f 92 c0             	setb   %al
    c66b:	0f b6 d0             	movzbl %al,%edx
    c66e:	8b 85 70 f2 ff ff    	mov    -0xd90(%rbp),%eax
    c674:	21 d0                	and    %edx,%eax
    c676:	89 85 70 f2 ff ff    	mov    %eax,-0xd90(%rbp)
    c67c:	b8 01 00 00 00       	mov    $0x1,%eax
    c681:	31 85 cc ee ff ff    	xor    %eax,-0x1134(%rbp)
    c687:	8b 85 7c ee ff ff    	mov    -0x1184(%rbp),%eax
    c68d:	48 8b 4d d8          	mov    -0x28(%rbp),%rcx
    c691:	64 48 33 0c 25 28 00 	xor    %fs:0x28,%rcx
    c698:	00 00 
    c69a:	74 05                	je     c6a1 <func_36+0x1174>
    c69c:	e8 cf c9 ff ff       	callq  9070 <__stack_chk_fail@plt>
    c6a1:	48 81 c4 78 11 00 00 	add    $0x1178,%rsp
    c6a8:	5b                   	pop    %rbx
    c6a9:	41 5c                	pop    %r12
    c6ab:	41 5d                	pop    %r13
    c6ad:	5d                   	pop    %rbp
    c6ae:	c3                   	retq   

000000000000c6af <func_38>:
    c6af:	f3 0f 1e fa          	endbr64 
    c6b3:	55                   	push   %rbp
    c6b4:	48 89 e5             	mov    %rsp,%rbp
    c6b7:	41 54                	push   %r12
    c6b9:	53                   	push   %rbx
    c6ba:	48 81 ec c0 01 00 00 	sub    $0x1c0,%rsp
    c6c1:	89 bd 3c fe ff ff    	mov    %edi,-0x1c4(%rbp)
    c6c7:	48 89 b5 30 fe ff ff 	mov    %rsi,-0x1d0(%rbp)
    c6ce:	89 95 38 fe ff ff    	mov    %edx,-0x1c8(%rbp)
    c6d4:	64 48 8b 04 25 28 00 	mov    %fs:0x28,%rax
    c6db:	00 00 
    c6dd:	48 89 45 e8          	mov    %rax,-0x18(%rbp)
    c6e1:	31 c0                	xor    %eax,%eax
    c6e3:	48 c7 85 60 fe ff ff 	movq   $0x0,-0x1a0(%rbp)
    c6ea:	00 00 00 00 
    c6ee:	48 8d 05 ab 0d 01 00 	lea    0x10dab(%rip),%rax        # 1d4a0 <g_374+0x20>
    c6f5:	48 89 85 58 fe ff ff 	mov    %rax,-0x1a8(%rbp)
    c6fc:	48 8d 05 9d 21 01 00 	lea    0x1219d(%rip),%rax        # 1e8a0 <g_792+0x20>
    c703:	48 89 85 68 fe ff ff 	mov    %rax,-0x198(%rbp)
    c70a:	c7 85 50 fe ff ff c0 	movl   $0xb0a68fc0,-0x1b0(%rbp)
    c711:	8f a6 b0 
    c714:	48 8d 05 a5 db 00 00 	lea    0xdba5(%rip),%rax        # 1a2c0 <g_126>
    c71b:	48 89 85 70 fe ff ff 	mov    %rax,-0x190(%rbp)
    c722:	66 c7 85 42 fe ff ff 	movw   $0xcd82,-0x1be(%rbp)
    c729:	82 cd 
    c72b:	48 c7 85 78 fe ff ff 	movq   $0x0,-0x188(%rbp)
    c732:	00 00 00 00 
    c736:	48 8d 05 63 de 00 00 	lea    0xde63(%rip),%rax        # 1a5a0 <g_1162>
    c73d:	48 89 85 80 fe ff ff 	mov    %rax,-0x180(%rbp)
    c744:	c7 85 54 fe ff ff c0 	movl   $0xd492b2c0,-0x1ac(%rbp)
    c74b:	b2 92 d4 
    c74e:	48 8d 05 23 0d 01 00 	lea    0x10d23(%rip),%rax        # 1d478 <g_325>
    c755:	48 89 85 88 fe ff ff 	mov    %rax,-0x178(%rbp)
    c75c:	c7 85 44 fe ff ff 00 	movl   $0x0,-0x1bc(%rbp)
    c763:	00 00 00 
    c766:	e9 85 00 00 00       	jmpq   c7f0 <func_38+0x141>
    c76b:	c7 85 48 fe ff ff 00 	movl   $0x0,-0x1b8(%rbp)
    c772:	00 00 00 
    c775:	eb 69                	jmp    c7e0 <func_38+0x131>
    c777:	c7 85 4c fe ff ff 00 	movl   $0x0,-0x1b4(%rbp)
    c77e:	00 00 00 
    c781:	eb 4d                	jmp    c7d0 <func_38+0x121>
    c783:	8b 85 4c fe ff ff    	mov    -0x1b4(%rbp),%eax
    c789:	48 63 f0             	movslq %eax,%rsi
    c78c:	8b 85 44 fe ff ff    	mov    -0x1bc(%rbp),%eax
    c792:	48 63 d0             	movslq %eax,%rdx
    c795:	8b 85 48 fe ff ff    	mov    -0x1b8(%rbp),%eax
    c79b:	48 63 c8             	movslq %eax,%rcx
    c79e:	48 89 d0             	mov    %rdx,%rax
    c7a1:	48 01 c0             	add    %rax,%rax
    c7a4:	48 01 d0             	add    %rdx,%rax
    c7a7:	48 01 c0             	add    %rax,%rax
    c7aa:	48 89 ca             	mov    %rcx,%rdx
    c7ad:	48 01 d2             	add    %rdx,%rdx
    c7b0:	48 01 ca             	add    %rcx,%rdx
    c7b3:	48 01 d0             	add    %rdx,%rax
    c7b6:	48 8d 14 30          	lea    (%rax,%rsi,1),%rdx
    c7ba:	48 8d 85 58 fe ff ff 	lea    -0x1a8(%rbp),%rax
    c7c1:	48 89 84 d5 90 fe ff 	mov    %rax,-0x170(%rbp,%rdx,8)
    c7c8:	ff 
    c7c9:	83 85 4c fe ff ff 01 	addl   $0x1,-0x1b4(%rbp)
    c7d0:	83 bd 4c fe ff ff 02 	cmpl   $0x2,-0x1b4(%rbp)
    c7d7:	7e aa                	jle    c783 <func_38+0xd4>
    c7d9:	83 85 48 fe ff ff 01 	addl   $0x1,-0x1b8(%rbp)
    c7e0:	83 bd 48 fe ff ff 01 	cmpl   $0x1,-0x1b8(%rbp)
    c7e7:	7e 8e                	jle    c777 <func_38+0xc8>
    c7e9:	83 85 44 fe ff ff 01 	addl   $0x1,-0x1bc(%rbp)
    c7f0:	83 bd 44 fe ff ff 06 	cmpl   $0x6,-0x1bc(%rbp)
    c7f7:	0f 8e 6e ff ff ff    	jle    c76b <func_38+0xbc>
    c7fd:	48 8b 05 c4 0f 01 00 	mov    0x10fc4(%rip),%rax        # 1d7c8 <g_865>
    c804:	c6 00 af             	movb   $0xaf,(%rax)
    c807:	8b 85 50 fe ff ff    	mov    -0x1b0(%rbp),%eax
    c80d:	89 c2                	mov    %eax,%edx
    c80f:	48 8b 85 70 fe ff ff 	mov    -0x190(%rbp),%rax
    c816:	88 10                	mov    %dl,(%rax)
    c818:	48 8b 85 70 fe ff ff 	mov    -0x190(%rbp),%rax
    c81f:	0f b6 00             	movzbl (%rax),%eax
    c822:	0f b6 c0             	movzbl %al,%eax
    c825:	be 04 00 00 00       	mov    $0x4,%esi
    c82a:	89 c7                	mov    %eax,%edi
    c82c:	e8 5c d4 ff ff       	callq  9c8d <safe_rshift_func_uint8_t_u_s>
    c831:	0f b6 c0             	movzbl %al,%eax
    c834:	66 21 85 42 fe ff ff 	and    %ax,-0x1be(%rbp)
    c83b:	0f b7 9d 42 fe ff ff 	movzwl -0x1be(%rbp),%ebx
    c842:	8b 85 38 fe ff ff    	mov    -0x1c8(%rbp),%eax
    c848:	44 0f b7 e0          	movzwl %ax,%r12d
    c84c:	8b 85 3c fe ff ff    	mov    -0x1c4(%rbp),%eax
    c852:	0f b6 c0             	movzbl %al,%eax
    c855:	89 c6                	mov    %eax,%esi
    c857:	bf f6 00 00 00       	mov    $0xf6,%edi
    c85c:	e8 4d d3 ff ff       	callq  9bae <safe_mod_func_uint8_t_u_u>
    c861:	89 c2                	mov    %eax,%edx
    c863:	48 8b 85 80 fe ff ff 	mov    -0x180(%rbp),%rax
    c86a:	88 10                	mov    %dl,(%rax)
    c86c:	48 8b 85 80 fe ff ff 	mov    -0x180(%rbp),%rax
    c873:	0f b6 00             	movzbl (%rax),%eax
    c876:	0f be c0             	movsbl %al,%eax
    c879:	39 85 38 fe ff ff    	cmp    %eax,-0x1c8(%rbp)
    c87f:	0f 94 c0             	sete   %al
    c882:	0f b6 c0             	movzbl %al,%eax
    c885:	39 85 38 fe ff ff    	cmp    %eax,-0x1c8(%rbp)
    c88b:	0f 96 c0             	setbe  %al
    c88e:	0f b6 c0             	movzbl %al,%eax
    c891:	8b 95 3c fe ff ff    	mov    -0x1c4(%rbp),%edx
    c897:	89 d6                	mov    %edx,%esi
    c899:	89 c7                	mov    %eax,%edi
    c89b:	e8 cc ca ff ff       	callq  936c <safe_rshift_func_int8_t_s_u>
    c8a0:	44 89 e6             	mov    %r12d,%esi
    c8a3:	bf 00 00 00 00       	mov    $0x0,%edi
    c8a8:	e8 52 d4 ff ff       	callq  9cff <safe_add_func_uint16_t_u_u>
    c8ad:	0f b7 c0             	movzwl %ax,%eax
    c8b0:	89 de                	mov    %ebx,%esi
    c8b2:	89 c7                	mov    %eax,%edi
    c8b4:	e8 ff d5 ff ff       	callq  9eb8 <safe_add_func_uint32_t_u_u>
    c8b9:	83 bd 50 fe ff ff 00 	cmpl   $0x0,-0x1b0(%rbp)
    c8c0:	0f 9f c0             	setg   %al
    c8c3:	0f b6 c0             	movzbl %al,%eax
    c8c6:	8b 95 3c fe ff ff    	mov    -0x1c4(%rbp),%edx
    c8cc:	89 d6                	mov    %edx,%esi
    c8ce:	89 c7                	mov    %eax,%edi
    c8d0:	e8 50 d6 ff ff       	callq  9f25 <safe_div_func_uint32_t_u_u>
    c8d5:	89 85 54 fe ff ff    	mov    %eax,-0x1ac(%rbp)
    c8db:	48 8b 05 38 dd 00 00 	mov    0xdd38(%rip),%rax        # 1a61a <g_1278+0xa>
    c8e2:	0f be c0             	movsbl %al,%eax
    c8e5:	be 07 00 00 00       	mov    $0x7,%esi
    c8ea:	89 c7                	mov    %eax,%edi
    c8ec:	e8 7b ca ff ff       	callq  936c <safe_rshift_func_int8_t_s_u>
    c8f1:	3c ff                	cmp    $0xff,%al
    c8f3:	0f 94 c0             	sete   %al
    c8f6:	0f b6 c0             	movzbl %al,%eax
    c8f9:	be 65 75 95 ac       	mov    $0xac957565,%esi
    c8fe:	89 c7                	mov    %eax,%edi
    c900:	e8 00 cd ff ff       	callq  9605 <safe_sub_func_int32_t_s_s>
    c905:	48 8d 05 64 0b 01 00 	lea    0x10b64(%rip),%rax        # 1d470 <g_322>
    c90c:	48 39 85 88 fe ff ff 	cmp    %rax,-0x178(%rbp)
    c913:	74 07                	je     c91c <func_38+0x26d>
    c915:	83 bd 50 fe ff ff 00 	cmpl   $0x0,-0x1b0(%rbp)
    c91c:	48 8b 95 d0 fe ff ff 	mov    -0x130(%rbp),%rdx
    c923:	48 8b 85 68 fe ff ff 	mov    -0x198(%rbp),%rax
    c92a:	48 89 10             	mov    %rdx,(%rax)
    c92d:	48 8b 85 68 fe ff ff 	mov    -0x198(%rbp),%rax
    c934:	48 8b 00             	mov    (%rax),%rax
    c937:	48 39 85 60 fe ff ff 	cmp    %rax,-0x1a0(%rbp)
    c93e:	0f 95 c0             	setne  %al
    c941:	0f b6 c0             	movzbl %al,%eax
    c944:	39 85 50 fe ff ff    	cmp    %eax,-0x1b0(%rbp)
    c94a:	48 8b 05 8f 0a 01 00 	mov    0x10a8f(%rip),%rax        # 1d3e0 <g_91>
    c951:	c7 00 00 00 00 00    	movl   $0x0,(%rax)
    c957:	8b 85 38 fe ff ff    	mov    -0x1c8(%rbp),%eax
    c95d:	48 8b 5d e8          	mov    -0x18(%rbp),%rbx
    c961:	64 48 33 1c 25 28 00 	xor    %fs:0x28,%rbx
    c968:	00 00 
    c96a:	74 05                	je     c971 <func_38+0x2c2>
    c96c:	e8 ff c6 ff ff       	callq  9070 <__stack_chk_fail@plt>
    c971:	48 81 c4 c0 01 00 00 	add    $0x1c0,%rsp
    c978:	5b                   	pop    %rbx
    c979:	41 5c                	pop    %r12
    c97b:	5d                   	pop    %rbp
    c97c:	c3                   	retq   

000000000000c97d <func_46>:
    c97d:	f3 0f 1e fa          	endbr64 
    c981:	55                   	push   %rbp
    c982:	48 89 e5             	mov    %rsp,%rbp
    c985:	48 83 ec 60          	sub    $0x60,%rsp
    c989:	48 89 7d b8          	mov    %rdi,-0x48(%rbp)
    c98d:	89 75 b4             	mov    %esi,-0x4c(%rbp)
    c990:	89 d0                	mov    %edx,%eax
    c992:	48 89 4d a8          	mov    %rcx,-0x58(%rbp)
    c996:	88 45 b0             	mov    %al,-0x50(%rbp)
    c999:	64 48 8b 04 25 28 00 	mov    %fs:0x28,%rax
    c9a0:	00 00 
    c9a2:	48 89 45 f8          	mov    %rax,-0x8(%rbp)
    c9a6:	31 c0                	xor    %eax,%eax
    c9a8:	c6 45 cb c3          	movb   $0xc3,-0x35(%rbp)
    c9ac:	c7 45 cc 00 00 00 00 	movl   $0x0,-0x34(%rbp)
    c9b3:	eb 15                	jmp    c9ca <func_46+0x4d>
    c9b5:	8b 45 cc             	mov    -0x34(%rbp),%eax
    c9b8:	48 98                	cltq   
    c9ba:	48 8d 15 5b d7 00 00 	lea    0xd75b(%rip),%rdx        # 1a11c <g_25>
    c9c1:	48 89 54 c5 d0       	mov    %rdx,-0x30(%rbp,%rax,8)
    c9c6:	83 45 cc 01          	addl   $0x1,-0x34(%rbp)
    c9ca:	83 7d cc 03          	cmpl   $0x3,-0x34(%rbp)
    c9ce:	7e e5                	jle    c9b5 <func_46+0x38>
    c9d0:	0f b6 45 cb          	movzbl -0x35(%rbp),%eax
    c9d4:	83 c0 01             	add    $0x1,%eax
    c9d7:	88 45 cb             	mov    %al,-0x35(%rbp)
    c9da:	0f b6 45 b0          	movzbl -0x50(%rbp),%eax
    c9de:	48 8b 4d f8          	mov    -0x8(%rbp),%rcx
    c9e2:	64 48 33 0c 25 28 00 	xor    %fs:0x28,%rcx
    c9e9:	00 00 
    c9eb:	74 05                	je     c9f2 <func_46+0x75>
    c9ed:	e8 7e c6 ff ff       	callq  9070 <__stack_chk_fail@plt>
    c9f2:	c9                   	leaveq 
    c9f3:	c3                   	retq   

000000000000c9f4 <func_51>:
    c9f4:	f3 0f 1e fa          	endbr64 
    c9f8:	55                   	push   %rbp
    c9f9:	48 89 e5             	mov    %rsp,%rbp
    c9fc:	53                   	push   %rbx
    c9fd:	48 81 ec f8 06 00 00 	sub    $0x6f8,%rsp
    ca04:	48 89 bd 08 f9 ff ff 	mov    %rdi,-0x6f8(%rbp)
    ca0b:	64 48 8b 04 25 28 00 	mov    %fs:0x28,%rax
    ca12:	00 00 
    ca14:	48 89 45 e8          	mov    %rax,-0x18(%rbp)
    ca18:	31 c0                	xor    %eax,%eax
    ca1a:	48 8d 05 0f dc 00 00 	lea    0xdc0f(%rip),%rax        # 1a630 <g_1443>
    ca21:	48 89 85 18 f9 ff ff 	mov    %rax,-0x6e8(%rbp)
    ca28:	48 8d 85 50 f9 ff ff 	lea    -0x6b0(%rbp),%rax
    ca2f:	48 8d 15 4a f1 00 00 	lea    0xf14a(%rip),%rdx        # 1bb80 <g_3696+0xc1a>
    ca36:	b9 d2 00 00 00       	mov    $0xd2,%ecx
    ca3b:	48 89 c7             	mov    %rax,%rdi
    ca3e:	48 89 d6             	mov    %rdx,%rsi
    ca41:	f3 48 a5             	rep movsq %ds:(%rsi),%es:(%rdi)
    ca44:	48 8d 05 71 d9 00 00 	lea    0xd971(%rip),%rax        # 1a3bc <g_256>
    ca4b:	48 89 85 20 f9 ff ff 	mov    %rax,-0x6e0(%rbp)
    ca52:	48 8d 05 0b da 00 00 	lea    0xda0b(%rip),%rax        # 1a464 <g_337>
    ca59:	48 89 85 28 f9 ff ff 	mov    %rax,-0x6d8(%rbp)
    ca60:	48 8d 05 f1 1d 01 00 	lea    0x11df1(%rip),%rax        # 1e858 <g_324>
    ca67:	48 89 85 30 f9 ff ff 	mov    %rax,-0x6d0(%rbp)
    ca6e:	c7 85 14 f9 ff ff ff 	movl   $0xffffffff,-0x6ec(%rbp)
    ca75:	ff ff ff 
    ca78:	48 c7 85 38 f9 ff ff 	movq   $0xffffffffffffffff,-0x6c8(%rbp)
    ca7f:	ff ff ff ff 
    ca83:	48 c7 85 40 f9 ff ff 	movq   $0x0,-0x6c0(%rbp)
    ca8a:	00 00 00 00 
    ca8e:	48 8d 05 87 d6 00 00 	lea    0xd687(%rip),%rax        # 1a11c <g_25>
    ca95:	48 89 85 48 f9 ff ff 	mov    %rax,-0x6b8(%rbp)
    ca9c:	48 8b 85 18 f9 ff ff 	mov    -0x6e8(%rbp),%rax
    caa3:	8b 00                	mov    (%rax),%eax
    caa5:	89 c2                	mov    %eax,%edx
    caa7:	48 8b 85 08 f9 ff ff 	mov    -0x6f8(%rbp),%rax
    caae:	09 d0                	or     %edx,%eax
    cab0:	89 c2                	mov    %eax,%edx
    cab2:	48 8b 85 18 f9 ff ff 	mov    -0x6e8(%rbp),%rax
    cab9:	89 10                	mov    %edx,(%rax)
    cabb:	48 8b 05 36 0d 01 00 	mov    0x10d36(%rip),%rax        # 1d7f8 <g_1323>
    cac2:	48 8b 95 18 f9 ff ff 	mov    -0x6e8(%rbp),%rdx
    cac9:	48 89 10             	mov    %rdx,(%rax)
    cacc:	48 8d 05 95 0c 01 00 	lea    0x10c95(%rip),%rax        # 1d768 <g_718+0x128>
    cad3:	48 89 05 e6 0c 01 00 	mov    %rax,0x10ce6(%rip)        # 1d7c0 <g_717>
    cada:	48 8b 85 18 f9 ff ff 	mov    -0x6e8(%rbp),%rax
    cae1:	8b 00                	mov    (%rax),%eax
    cae3:	89 c2                	mov    %eax,%edx
    cae5:	48 8b 85 28 f9 ff ff 	mov    -0x6d8(%rbp),%rax
    caec:	66 89 10             	mov    %dx,(%rax)
    caef:	48 8b 85 28 f9 ff ff 	mov    -0x6d8(%rbp),%rax
    caf6:	0f b7 00             	movzwl (%rax),%eax
    caf9:	0f b7 d0             	movzwl %ax,%edx
    cafc:	0f b7 05 61 da 00 00 	movzwl 0xda61(%rip),%eax        # 1a564 <g_1090+0x4>
    cb03:	01 c0                	add    %eax,%eax
    cb05:	66 d1 f8             	sar    %ax
    cb08:	89 c1                	mov    %eax,%ecx
    cb0a:	48 8b 85 20 f9 ff ff 	mov    -0x6e0(%rbp),%rax
    cb11:	66 89 08             	mov    %cx,(%rax)
    cb14:	48 8b 85 20 f9 ff ff 	mov    -0x6e0(%rbp),%rax
    cb1b:	0f b7 00             	movzwl (%rax),%eax
    cb1e:	0f b7 c0             	movzwl %ax,%eax
    cb21:	89 d6                	mov    %edx,%esi
    cb23:	89 c7                	mov    %eax,%edi
    cb25:	e8 f5 d1 ff ff       	callq  9d1f <safe_sub_func_uint16_t_u_u>
    cb2a:	48 8b 05 d7 0c 01 00 	mov    0x10cd7(%rip),%rax        # 1d808 <g_1408>
    cb31:	48 8b 00             	mov    (%rax),%rax
    cb34:	48 8b 00             	mov    (%rax),%rax
    cb37:	48 8d 15 2a 0c 01 00 	lea    0x10c2a(%rip),%rdx        # 1d768 <g_718+0x128>
    cb3e:	48 39 d0             	cmp    %rdx,%rax
    cb41:	0f 94 c0             	sete   %al
    cb44:	0f b6 d8             	movzbl %al,%ebx
    cb47:	48 8b 85 08 f9 ff ff 	mov    -0x6f8(%rbp),%rax
    cb4e:	0f b6 c0             	movzbl %al,%eax
    cb51:	89 c6                	mov    %eax,%esi
    cb53:	bf 1b 00 00 00       	mov    $0x1b,%edi
    cb58:	e8 1b d0 ff ff       	callq  9b78 <safe_sub_func_uint8_t_u_u>
    cb5d:	0f b6 c0             	movzbl %al,%eax
    cb60:	39 c3                	cmp    %eax,%ebx
    cb62:	7f 07                	jg     cb6b <func_51+0x177>
    cb64:	b8 01 00 00 00       	mov    $0x1,%eax
    cb69:	eb 05                	jmp    cb70 <func_51+0x17c>
    cb6b:	b8 00 00 00 00       	mov    $0x0,%eax
    cb70:	89 85 14 f9 ff ff    	mov    %eax,-0x6ec(%rbp)
    cb76:	8b 85 14 f9 ff ff    	mov    -0x6ec(%rbp),%eax
    cb7c:	48 98                	cltq   
    cb7e:	48 39 85 38 f9 ff ff 	cmp    %rax,-0x6c8(%rbp)
    cb85:	0f 95 c2             	setne  %dl
    cb88:	48 8b 05 51 08 01 00 	mov    0x10851(%rip),%rax        # 1d3e0 <g_91>
    cb8f:	0f b6 d2             	movzbl %dl,%edx
    cb92:	89 10                	mov    %edx,(%rax)
    cb94:	48 8b 85 18 f9 ff ff 	mov    -0x6e8(%rbp),%rax
    cb9b:	8b 10                	mov    (%rax),%edx
    cb9d:	48 8b 85 48 f9 ff ff 	mov    -0x6b8(%rbp),%rax
    cba4:	8b 00                	mov    (%rax),%eax
    cba6:	21 c2                	and    %eax,%edx
    cba8:	48 8b 85 48 f9 ff ff 	mov    -0x6b8(%rbp),%rax
    cbaf:	89 10                	mov    %edx,(%rax)
    cbb1:	c6 05 08 d7 00 00 00 	movb   $0x0,0xd708(%rip)        # 1a2c0 <g_126>
    cbb8:	90                   	nop
    cbb9:	0f b6 05 00 d7 00 00 	movzbl 0xd700(%rip),%eax        # 1a2c0 <g_126>
    cbc0:	3c 21                	cmp    $0x21,%al
    cbc2:	77 09                	ja     cbcd <func_51+0x1d9>
    cbc4:	48 8b 85 40 f9 ff ff 	mov    -0x6c0(%rbp),%rax
    cbcb:	eb 07                	jmp    cbd4 <func_51+0x1e0>
    cbcd:	48 8b 85 40 f9 ff ff 	mov    -0x6c0(%rbp),%rax
    cbd4:	48 8b 5d e8          	mov    -0x18(%rbp),%rbx
    cbd8:	64 48 33 1c 25 28 00 	xor    %fs:0x28,%rbx
    cbdf:	00 00 
    cbe1:	74 05                	je     cbe8 <func_51+0x1f4>
    cbe3:	e8 88 c4 ff ff       	callq  9070 <__stack_chk_fail@plt>
    cbe8:	48 81 c4 f8 06 00 00 	add    $0x6f8,%rsp
    cbef:	5b                   	pop    %rbx
    cbf0:	5d                   	pop    %rbp
    cbf1:	c3                   	retq   

000000000000cbf2 <func_55>:
    cbf2:	f3 0f 1e fa          	endbr64 
    cbf6:	55                   	push   %rbp
    cbf7:	48 89 e5             	mov    %rsp,%rbp
    cbfa:	48 81 ec 00 10 00 00 	sub    $0x1000,%rsp
    cc01:	48 83 0c 24 00       	orq    $0x0,(%rsp)
    cc06:	48 81 ec f0 01 00 00 	sub    $0x1f0,%rsp
    cc0d:	48 89 bd 18 ee ff ff 	mov    %rdi,-0x11e8(%rbp)
    cc14:	89 f0                	mov    %esi,%eax
    cc16:	88 85 14 ee ff ff    	mov    %al,-0x11ec(%rbp)
    cc1c:	64 48 8b 04 25 28 00 	mov    %fs:0x28,%rax
    cc23:	00 00 
    cc25:	48 89 45 f8          	mov    %rax,-0x8(%rbp)
    cc29:	31 c0                	xor    %eax,%eax
    cc2b:	48 b8 b5 3a e1 00 64 	movabs $0x6790df6400e13ab5,%rax
    cc32:	df 90 67 
    cc35:	48 89 85 48 ee ff ff 	mov    %rax,-0x11b8(%rbp)
    cc3c:	48 8d 85 10 f8 ff ff 	lea    -0x7f0(%rbp),%rax
    cc43:	48 8d 15 d6 f5 00 00 	lea    0xf5d6(%rip),%rdx        # 1c220 <g_3696+0x12ba>
    cc4a:	b9 fc 00 00 00       	mov    $0xfc,%ecx
    cc4f:	48 89 c7             	mov    %rax,%rdi
    cc52:	48 89 d6             	mov    %rdx,%rsi
    cc55:	f3 48 a5             	rep movsq %ds:(%rsi),%es:(%rdi)
    cc58:	c7 85 28 ee ff ff 00 	movl   $0x0,-0x11d8(%rbp)
    cc5f:	00 00 00 
    cc62:	48 8d 05 c3 d4 00 00 	lea    0xd4c3(%rip),%rax        # 1a12c <g_112>
    cc69:	48 89 85 50 ee ff ff 	mov    %rax,-0x11b0(%rbp)
    cc70:	48 8d 85 d0 ee ff ff 	lea    -0x1130(%rbp),%rax
    cc77:	48 83 c0 20          	add    $0x20,%rax
    cc7b:	48 89 85 58 ee ff ff 	mov    %rax,-0x11a8(%rbp)
    cc82:	48 8d 05 38 d6 00 00 	lea    0xd638(%rip),%rax        # 1a2c1 <g_178>
    cc89:	48 89 85 00 ef ff ff 	mov    %rax,-0x1100(%rbp)
    cc90:	48 8d 05 2a d6 00 00 	lea    0xd62a(%rip),%rax        # 1a2c1 <g_178>
    cc97:	48 89 85 08 ef ff ff 	mov    %rax,-0x10f8(%rbp)
    cc9e:	48 8d 05 1c d6 00 00 	lea    0xd61c(%rip),%rax        # 1a2c1 <g_178>
    cca5:	48 89 85 10 ef ff ff 	mov    %rax,-0x10f0(%rbp)
    ccac:	48 8d 05 0e d6 00 00 	lea    0xd60e(%rip),%rax        # 1a2c1 <g_178>
    ccb3:	48 89 85 18 ef ff ff 	mov    %rax,-0x10e8(%rbp)
    ccba:	48 8d 05 00 d6 00 00 	lea    0xd600(%rip),%rax        # 1a2c1 <g_178>
    ccc1:	48 89 85 20 ef ff ff 	mov    %rax,-0x10e0(%rbp)
    ccc8:	48 8d 05 f2 d5 00 00 	lea    0xd5f2(%rip),%rax        # 1a2c1 <g_178>
    cccf:	48 89 85 28 ef ff ff 	mov    %rax,-0x10d8(%rbp)
    ccd6:	48 8d 85 00 ef ff ff 	lea    -0x1100(%rbp),%rax
    ccdd:	48 83 c0 28          	add    $0x28,%rax
    cce1:	48 89 85 60 ee ff ff 	mov    %rax,-0x11a0(%rbp)
    cce8:	c7 85 2c ee ff ff 03 	movl   $0x3,-0x11d4(%rbp)
    ccef:	00 00 00 
    ccf2:	48 c7 85 40 f0 ff ff 	movq   $0x0,-0xfc0(%rbp)
    ccf9:	00 00 00 00 
    ccfd:	48 c7 85 48 f0 ff ff 	movq   $0x0,-0xfb8(%rbp)
    cd04:	00 00 00 00 
    cd08:	48 8d 05 0d d4 00 00 	lea    0xd40d(%rip),%rax        # 1a11c <g_25>
    cd0f:	48 89 85 50 f0 ff ff 	mov    %rax,-0xfb0(%rbp)
    cd16:	48 8d 05 4f d3 00 00 	lea    0xd34f(%rip),%rax        # 1a06c <g_6+0x2c>
    cd1d:	48 89 85 58 f0 ff ff 	mov    %rax,-0xfa8(%rbp)
    cd24:	48 8d 05 1d 1b 01 00 	lea    0x11b1d(%rip),%rax        # 1e848 <g_2>
    cd2b:	48 89 85 60 f0 ff ff 	mov    %rax,-0xfa0(%rbp)
    cd32:	48 8d 05 ef d3 00 00 	lea    0xd3ef(%rip),%rax        # 1a128 <g_95>
    cd39:	48 89 85 68 f0 ff ff 	mov    %rax,-0xf98(%rbp)
    cd40:	48 8d 05 cd d3 00 00 	lea    0xd3cd(%rip),%rax        # 1a114 <g_17>
    cd47:	48 89 85 70 f0 ff ff 	mov    %rax,-0xf90(%rbp)
    cd4e:	48 c7 85 78 f0 ff ff 	movq   $0x0,-0xf88(%rbp)
    cd55:	00 00 00 00 
    cd59:	48 c7 85 80 f0 ff ff 	movq   $0x0,-0xf80(%rbp)
    cd60:	00 00 00 00 
    cd64:	48 8d 05 dd 1a 01 00 	lea    0x11add(%rip),%rax        # 1e848 <g_2>
    cd6b:	48 89 85 88 f0 ff ff 	mov    %rax,-0xf78(%rbp)
    cd72:	48 8d 05 cf 1a 01 00 	lea    0x11acf(%rip),%rax        # 1e848 <g_2>
    cd79:	48 89 85 90 f0 ff ff 	mov    %rax,-0xf70(%rbp)
    cd80:	48 8d 05 c1 1a 01 00 	lea    0x11ac1(%rip),%rax        # 1e848 <g_2>
    cd87:	48 89 85 98 f0 ff ff 	mov    %rax,-0xf68(%rbp)
    cd8e:	48 8d 05 87 d3 00 00 	lea    0xd387(%rip),%rax        # 1a11c <g_25>
    cd95:	48 89 85 a0 f0 ff ff 	mov    %rax,-0xf60(%rbp)
    cd9c:	48 8d 05 a9 d2 00 00 	lea    0xd2a9(%rip),%rax        # 1a04c <g_6+0xc>
    cda3:	48 89 85 a8 f0 ff ff 	mov    %rax,-0xf58(%rbp)
    cdaa:	48 8d 05 6b d3 00 00 	lea    0xd36b(%rip),%rax        # 1a11c <g_25>
    cdb1:	48 89 85 b0 f0 ff ff 	mov    %rax,-0xf50(%rbp)
    cdb8:	48 8d 05 59 d3 00 00 	lea    0xd359(%rip),%rax        # 1a118 <g_20>
    cdbf:	48 89 85 b8 f0 ff ff 	mov    %rax,-0xf48(%rbp)
    cdc6:	48 8d 05 4b d3 00 00 	lea    0xd34b(%rip),%rax        # 1a118 <g_20>
    cdcd:	48 89 85 c0 f0 ff ff 	mov    %rax,-0xf40(%rbp)
    cdd4:	48 8d 05 41 d3 00 00 	lea    0xd341(%rip),%rax        # 1a11c <g_25>
    cddb:	48 89 85 c8 f0 ff ff 	mov    %rax,-0xf38(%rbp)
    cde2:	48 8d 05 63 d2 00 00 	lea    0xd263(%rip),%rax        # 1a04c <g_6+0xc>
    cde9:	48 89 85 d0 f0 ff ff 	mov    %rax,-0xf30(%rbp)
    cdf0:	48 8d 05 1d d3 00 00 	lea    0xd31d(%rip),%rax        # 1a114 <g_17>
    cdf7:	48 89 85 d8 f0 ff ff 	mov    %rax,-0xf28(%rbp)
    cdfe:	48 8d 85 2c ee ff ff 	lea    -0x11d4(%rbp),%rax
    ce05:	48 89 85 e0 f0 ff ff 	mov    %rax,-0xf20(%rbp)
    ce0c:	48 8d 05 59 d2 00 00 	lea    0xd259(%rip),%rax        # 1a06c <g_6+0x2c>
    ce13:	48 89 85 e8 f0 ff ff 	mov    %rax,-0xf18(%rbp)
    ce1a:	48 c7 85 f0 f0 ff ff 	movq   $0x0,-0xf10(%rbp)
    ce21:	00 00 00 00 
    ce25:	48 c7 85 f8 f0 ff ff 	movq   $0x0,-0xf08(%rbp)
    ce2c:	00 00 00 00 
    ce30:	48 8d 05 15 d2 00 00 	lea    0xd215(%rip),%rax        # 1a04c <g_6+0xc>
    ce37:	48 89 85 00 f1 ff ff 	mov    %rax,-0xf00(%rbp)
    ce3e:	48 8d 05 e3 d2 00 00 	lea    0xd2e3(%rip),%rax        # 1a128 <g_95>
    ce45:	48 89 85 08 f1 ff ff 	mov    %rax,-0xef8(%rbp)
    ce4c:	48 8d 05 c9 d2 00 00 	lea    0xd2c9(%rip),%rax        # 1a11c <g_25>
    ce53:	48 89 85 10 f1 ff ff 	mov    %rax,-0xef0(%rbp)
    ce5a:	48 8d 05 bb d2 00 00 	lea    0xd2bb(%rip),%rax        # 1a11c <g_25>
    ce61:	48 89 85 18 f1 ff ff 	mov    %rax,-0xee8(%rbp)
    ce68:	48 8d 05 b9 d2 00 00 	lea    0xd2b9(%rip),%rax        # 1a128 <g_95>
    ce6f:	48 89 85 20 f1 ff ff 	mov    %rax,-0xee0(%rbp)
    ce76:	48 8d 85 2c ee ff ff 	lea    -0x11d4(%rbp),%rax
    ce7d:	48 89 85 28 f1 ff ff 	mov    %rax,-0xed8(%rbp)
    ce84:	48 8d 05 bd 19 01 00 	lea    0x119bd(%rip),%rax        # 1e848 <g_2>
    ce8b:	48 89 85 30 f1 ff ff 	mov    %rax,-0xed0(%rbp)
    ce92:	48 8d 05 d3 d1 00 00 	lea    0xd1d3(%rip),%rax        # 1a06c <g_6+0x2c>
    ce99:	48 89 85 38 f1 ff ff 	mov    %rax,-0xec8(%rbp)
    cea0:	48 8d 05 81 d2 00 00 	lea    0xd281(%rip),%rax        # 1a128 <g_95>
    cea7:	48 89 85 40 f1 ff ff 	mov    %rax,-0xec0(%rbp)
    ceae:	48 8d 05 93 19 01 00 	lea    0x11993(%rip),%rax        # 1e848 <g_2>
    ceb5:	48 89 85 48 f1 ff ff 	mov    %rax,-0xeb8(%rbp)
    cebc:	48 8d 05 59 d2 00 00 	lea    0xd259(%rip),%rax        # 1a11c <g_25>
    cec3:	48 89 85 50 f1 ff ff 	mov    %rax,-0xeb0(%rbp)
    ceca:	48 8d 05 3b d2 00 00 	lea    0xd23b(%rip),%rax        # 1a10c <g_12>
    ced1:	48 89 85 58 f1 ff ff 	mov    %rax,-0xea8(%rbp)
    ced8:	48 8d 05 39 d2 00 00 	lea    0xd239(%rip),%rax        # 1a118 <g_20>
    cedf:	48 89 85 60 f1 ff ff 	mov    %rax,-0xea0(%rbp)
    cee6:	48 8d 05 3b d2 00 00 	lea    0xd23b(%rip),%rax        # 1a128 <g_95>
    ceed:	48 89 85 68 f1 ff ff 	mov    %rax,-0xe98(%rbp)
    cef4:	48 8d 05 1d d2 00 00 	lea    0xd21d(%rip),%rax        # 1a118 <g_20>
    cefb:	48 89 85 70 f1 ff ff 	mov    %rax,-0xe90(%rbp)
    cf02:	48 8d 05 03 d2 00 00 	lea    0xd203(%rip),%rax        # 1a10c <g_12>
    cf09:	48 89 85 78 f1 ff ff 	mov    %rax,-0xe88(%rbp)
    cf10:	48 8d 05 f5 d1 00 00 	lea    0xd1f5(%rip),%rax        # 1a10c <g_12>
    cf17:	48 89 85 80 f1 ff ff 	mov    %rax,-0xe80(%rbp)
    cf1e:	48 8d 05 23 19 01 00 	lea    0x11923(%rip),%rax        # 1e848 <g_2>
    cf25:	48 89 85 88 f1 ff ff 	mov    %rax,-0xe78(%rbp)
    cf2c:	48 8d 05 f5 d1 00 00 	lea    0xd1f5(%rip),%rax        # 1a128 <g_95>
    cf33:	48 89 85 90 f1 ff ff 	mov    %rax,-0xe70(%rbp)
    cf3a:	48 8d 85 2c ee ff ff 	lea    -0x11d4(%rbp),%rax
    cf41:	48 89 85 98 f1 ff ff 	mov    %rax,-0xe68(%rbp)
    cf48:	48 8d 05 c9 d1 00 00 	lea    0xd1c9(%rip),%rax        # 1a118 <g_20>
    cf4f:	48 89 85 a0 f1 ff ff 	mov    %rax,-0xe60(%rbp)
    cf56:	48 8d 05 eb 18 01 00 	lea    0x118eb(%rip),%rax        # 1e848 <g_2>
    cf5d:	48 89 85 a8 f1 ff ff 	mov    %rax,-0xe58(%rbp)
    cf64:	48 8d 05 a9 d1 00 00 	lea    0xd1a9(%rip),%rax        # 1a114 <g_17>
    cf6b:	48 89 85 b0 f1 ff ff 	mov    %rax,-0xe50(%rbp)
    cf72:	48 c7 85 b8 f1 ff ff 	movq   $0x0,-0xe48(%rbp)
    cf79:	00 00 00 00 
    cf7d:	48 8d 05 a4 d1 00 00 	lea    0xd1a4(%rip),%rax        # 1a128 <g_95>
    cf84:	48 89 85 c0 f1 ff ff 	mov    %rax,-0xe40(%rbp)
    cf8b:	48 8d 05 96 d1 00 00 	lea    0xd196(%rip),%rax        # 1a128 <g_95>
    cf92:	48 89 85 c8 f1 ff ff 	mov    %rax,-0xe38(%rbp)
    cf99:	48 8d 05 88 d1 00 00 	lea    0xd188(%rip),%rax        # 1a128 <g_95>
    cfa0:	48 89 85 d0 f1 ff ff 	mov    %rax,-0xe30(%rbp)
    cfa7:	48 c7 85 d8 f1 ff ff 	movq   $0x0,-0xe28(%rbp)
    cfae:	00 00 00 00 
    cfb2:	48 8d 05 5b d1 00 00 	lea    0xd15b(%rip),%rax        # 1a114 <g_17>
    cfb9:	48 89 85 e0 f1 ff ff 	mov    %rax,-0xe20(%rbp)
    cfc0:	48 8d 05 81 18 01 00 	lea    0x11881(%rip),%rax        # 1e848 <g_2>
    cfc7:	48 89 85 e8 f1 ff ff 	mov    %rax,-0xe18(%rbp)
    cfce:	48 8d 05 43 d1 00 00 	lea    0xd143(%rip),%rax        # 1a118 <g_20>
    cfd5:	48 89 85 f0 f1 ff ff 	mov    %rax,-0xe10(%rbp)
    cfdc:	48 8d 85 2c ee ff ff 	lea    -0x11d4(%rbp),%rax
    cfe3:	48 89 85 f8 f1 ff ff 	mov    %rax,-0xe08(%rbp)
    cfea:	48 8d 05 37 d1 00 00 	lea    0xd137(%rip),%rax        # 1a128 <g_95>
    cff1:	48 89 85 00 f2 ff ff 	mov    %rax,-0xe00(%rbp)
    cff8:	48 8d 05 49 18 01 00 	lea    0x11849(%rip),%rax        # 1e848 <g_2>
    cfff:	48 89 85 08 f2 ff ff 	mov    %rax,-0xdf8(%rbp)
    d006:	48 8d 05 ff d0 00 00 	lea    0xd0ff(%rip),%rax        # 1a10c <g_12>
    d00d:	48 89 85 10 f2 ff ff 	mov    %rax,-0xdf0(%rbp)
    d014:	48 8d 05 f1 d0 00 00 	lea    0xd0f1(%rip),%rax        # 1a10c <g_12>
    d01b:	48 89 85 18 f2 ff ff 	mov    %rax,-0xde8(%rbp)
    d022:	48 8d 05 ef d0 00 00 	lea    0xd0ef(%rip),%rax        # 1a118 <g_20>
    d029:	48 89 85 20 f2 ff ff 	mov    %rax,-0xde0(%rbp)
    d030:	48 8d 05 f1 d0 00 00 	lea    0xd0f1(%rip),%rax        # 1a128 <g_95>
    d037:	48 89 85 28 f2 ff ff 	mov    %rax,-0xdd8(%rbp)
    d03e:	48 8d 05 d3 d0 00 00 	lea    0xd0d3(%rip),%rax        # 1a118 <g_20>
    d045:	48 89 85 30 f2 ff ff 	mov    %rax,-0xdd0(%rbp)
    d04c:	48 8d 05 b9 d0 00 00 	lea    0xd0b9(%rip),%rax        # 1a10c <g_12>
    d053:	48 89 85 38 f2 ff ff 	mov    %rax,-0xdc8(%rbp)
    d05a:	48 8d 05 bb d0 00 00 	lea    0xd0bb(%rip),%rax        # 1a11c <g_25>
    d061:	48 89 85 40 f2 ff ff 	mov    %rax,-0xdc0(%rbp)
    d068:	48 8d 05 d9 17 01 00 	lea    0x117d9(%rip),%rax        # 1e848 <g_2>
    d06f:	48 89 85 48 f2 ff ff 	mov    %rax,-0xdb8(%rbp)
    d076:	48 8d 05 ab d0 00 00 	lea    0xd0ab(%rip),%rax        # 1a128 <g_95>
    d07d:	48 89 85 50 f2 ff ff 	mov    %rax,-0xdb0(%rbp)
    d084:	48 8d 05 e1 cf 00 00 	lea    0xcfe1(%rip),%rax        # 1a06c <g_6+0x2c>
    d08b:	48 89 85 58 f2 ff ff 	mov    %rax,-0xda8(%rbp)
    d092:	48 8d 05 af 17 01 00 	lea    0x117af(%rip),%rax        # 1e848 <g_2>
    d099:	48 89 85 60 f2 ff ff 	mov    %rax,-0xda0(%rbp)
    d0a0:	48 8d 85 2c ee ff ff 	lea    -0x11d4(%rbp),%rax
    d0a7:	48 89 85 68 f2 ff ff 	mov    %rax,-0xd98(%rbp)
    d0ae:	48 8d 05 73 d0 00 00 	lea    0xd073(%rip),%rax        # 1a128 <g_95>
    d0b5:	48 89 85 70 f2 ff ff 	mov    %rax,-0xd90(%rbp)
    d0bc:	48 8d 05 59 d0 00 00 	lea    0xd059(%rip),%rax        # 1a11c <g_25>
    d0c3:	48 89 85 78 f2 ff ff 	mov    %rax,-0xd88(%rbp)
    d0ca:	48 8d 05 4b d0 00 00 	lea    0xd04b(%rip),%rax        # 1a11c <g_25>
    d0d1:	48 89 85 80 f2 ff ff 	mov    %rax,-0xd80(%rbp)
    d0d8:	48 8d 05 49 d0 00 00 	lea    0xd049(%rip),%rax        # 1a128 <g_95>
    d0df:	48 89 85 88 f2 ff ff 	mov    %rax,-0xd78(%rbp)
    d0e6:	48 8d 05 5f cf 00 00 	lea    0xcf5f(%rip),%rax        # 1a04c <g_6+0xc>
    d0ed:	48 89 85 90 f2 ff ff 	mov    %rax,-0xd70(%rbp)
    d0f4:	48 c7 85 98 f2 ff ff 	movq   $0x0,-0xd68(%rbp)
    d0fb:	00 00 00 00 
    d0ff:	48 c7 85 a0 f2 ff ff 	movq   $0x0,-0xd60(%rbp)
    d106:	00 00 00 00 
    d10a:	48 8d 05 5b cf 00 00 	lea    0xcf5b(%rip),%rax        # 1a06c <g_6+0x2c>
    d111:	48 89 85 a8 f2 ff ff 	mov    %rax,-0xd58(%rbp)
    d118:	48 8d 85 2c ee ff ff 	lea    -0x11d4(%rbp),%rax
    d11f:	48 89 85 b0 f2 ff ff 	mov    %rax,-0xd50(%rbp)
    d126:	48 8d 05 e7 cf 00 00 	lea    0xcfe7(%rip),%rax        # 1a114 <g_17>
    d12d:	48 89 85 b8 f2 ff ff 	mov    %rax,-0xd48(%rbp)
    d134:	48 8d 05 11 cf 00 00 	lea    0xcf11(%rip),%rax        # 1a04c <g_6+0xc>
    d13b:	48 89 85 c0 f2 ff ff 	mov    %rax,-0xd40(%rbp)
    d142:	48 8d 05 d3 cf 00 00 	lea    0xcfd3(%rip),%rax        # 1a11c <g_25>
    d149:	48 89 85 c8 f2 ff ff 	mov    %rax,-0xd38(%rbp)
    d150:	48 8d 05 c1 cf 00 00 	lea    0xcfc1(%rip),%rax        # 1a118 <g_20>
    d157:	48 89 85 d0 f2 ff ff 	mov    %rax,-0xd30(%rbp)
    d15e:	48 8d 05 b3 cf 00 00 	lea    0xcfb3(%rip),%rax        # 1a118 <g_20>
    d165:	48 89 85 d8 f2 ff ff 	mov    %rax,-0xd28(%rbp)
    d16c:	48 8d 05 a9 cf 00 00 	lea    0xcfa9(%rip),%rax        # 1a11c <g_25>
    d173:	48 89 85 e0 f2 ff ff 	mov    %rax,-0xd20(%rbp)
    d17a:	48 8d 05 cb ce 00 00 	lea    0xcecb(%rip),%rax        # 1a04c <g_6+0xc>
    d181:	48 89 85 e8 f2 ff ff 	mov    %rax,-0xd18(%rbp)
    d188:	48 8d 05 8d cf 00 00 	lea    0xcf8d(%rip),%rax        # 1a11c <g_25>
    d18f:	48 89 85 f0 f2 ff ff 	mov    %rax,-0xd10(%rbp)
    d196:	48 8d 05 ab 16 01 00 	lea    0x116ab(%rip),%rax        # 1e848 <g_2>
    d19d:	48 89 85 f8 f2 ff ff 	mov    %rax,-0xd08(%rbp)
    d1a4:	48 8d 05 9d 16 01 00 	lea    0x1169d(%rip),%rax        # 1e848 <g_2>
    d1ab:	48 89 85 00 f3 ff ff 	mov    %rax,-0xd00(%rbp)
    d1b2:	48 8d 05 8f 16 01 00 	lea    0x1168f(%rip),%rax        # 1e848 <g_2>
    d1b9:	48 89 85 08 f3 ff ff 	mov    %rax,-0xcf8(%rbp)
    d1c0:	48 c7 85 10 f3 ff ff 	movq   $0x0,-0xcf0(%rbp)
    d1c7:	00 00 00 00 
    d1cb:	48 c7 85 18 f3 ff ff 	movq   $0x0,-0xce8(%rbp)
    d1d2:	00 00 00 00 
    d1d6:	48 8d 05 37 cf 00 00 	lea    0xcf37(%rip),%rax        # 1a114 <g_17>
    d1dd:	48 89 85 20 f3 ff ff 	mov    %rax,-0xce0(%rbp)
    d1e4:	48 8d 05 3d cf 00 00 	lea    0xcf3d(%rip),%rax        # 1a128 <g_95>
    d1eb:	48 89 85 28 f3 ff ff 	mov    %rax,-0xcd8(%rbp)
    d1f2:	48 8d 05 4f 16 01 00 	lea    0x1164f(%rip),%rax        # 1e848 <g_2>
    d1f9:	48 89 85 30 f3 ff ff 	mov    %rax,-0xcd0(%rbp)
    d200:	48 8d 05 21 cf 00 00 	lea    0xcf21(%rip),%rax        # 1a128 <g_95>
    d207:	48 89 85 38 f3 ff ff 	mov    %rax,-0xcc8(%rbp)
    d20e:	48 8d 05 07 cf 00 00 	lea    0xcf07(%rip),%rax        # 1a11c <g_25>
    d215:	48 89 85 40 f3 ff ff 	mov    %rax,-0xcc0(%rbp)
    d21c:	48 8d 85 2c ee ff ff 	lea    -0x11d4(%rbp),%rax
    d223:	48 89 85 48 f3 ff ff 	mov    %rax,-0xcb8(%rbp)
    d22a:	48 8d 05 eb ce 00 00 	lea    0xceeb(%rip),%rax        # 1a11c <g_25>
    d231:	48 89 85 50 f3 ff ff 	mov    %rax,-0xcb0(%rbp)
    d238:	48 8d 05 0d ce 00 00 	lea    0xce0d(%rip),%rax        # 1a04c <g_6+0xc>
    d23f:	48 89 85 58 f3 ff ff 	mov    %rax,-0xca8(%rbp)
    d246:	48 8d 85 2c ee ff ff 	lea    -0x11d4(%rbp),%rax
    d24d:	48 89 85 60 f3 ff ff 	mov    %rax,-0xca0(%rbp)
    d254:	48 8d 05 c1 ce 00 00 	lea    0xcec1(%rip),%rax        # 1a11c <g_25>
    d25b:	48 89 85 68 f3 ff ff 	mov    %rax,-0xc98(%rbp)
    d262:	48 8d 05 a3 ce 00 00 	lea    0xcea3(%rip),%rax        # 1a10c <g_12>
    d269:	48 89 85 70 f3 ff ff 	mov    %rax,-0xc90(%rbp)
    d270:	48 8d 05 a1 ce 00 00 	lea    0xcea1(%rip),%rax        # 1a118 <g_20>
    d277:	48 89 85 78 f3 ff ff 	mov    %rax,-0xc88(%rbp)
    d27e:	48 8d 05 a3 ce 00 00 	lea    0xcea3(%rip),%rax        # 1a128 <g_95>
    d285:	48 89 85 80 f3 ff ff 	mov    %rax,-0xc80(%rbp)
    d28c:	48 c7 85 88 f3 ff ff 	movq   $0x0,-0xc78(%rbp)
    d293:	00 00 00 00 
    d297:	48 8d 85 28 ee ff ff 	lea    -0x11d8(%rbp),%rax
    d29e:	48 89 85 90 f3 ff ff 	mov    %rax,-0xc70(%rbp)
    d2a5:	48 8d 85 28 ee ff ff 	lea    -0x11d8(%rbp),%rax
    d2ac:	48 89 85 98 f3 ff ff 	mov    %rax,-0xc68(%rbp)
    d2b3:	48 c7 85 a0 f3 ff ff 	movq   $0x0,-0xc60(%rbp)
    d2ba:	00 00 00 00 
    d2be:	48 8d 05 63 ce 00 00 	lea    0xce63(%rip),%rax        # 1a128 <g_95>
    d2c5:	48 89 85 a8 f3 ff ff 	mov    %rax,-0xc58(%rbp)
    d2cc:	48 8d 05 45 ce 00 00 	lea    0xce45(%rip),%rax        # 1a118 <g_20>
    d2d3:	48 89 85 b0 f3 ff ff 	mov    %rax,-0xc50(%rbp)
    d2da:	48 8d 05 2b ce 00 00 	lea    0xce2b(%rip),%rax        # 1a10c <g_12>
    d2e1:	48 89 85 b8 f3 ff ff 	mov    %rax,-0xc48(%rbp)
    d2e8:	48 8d 05 2d ce 00 00 	lea    0xce2d(%rip),%rax        # 1a11c <g_25>
    d2ef:	48 89 85 c0 f3 ff ff 	mov    %rax,-0xc40(%rbp)
    d2f6:	48 8d 85 2c ee ff ff 	lea    -0x11d4(%rbp),%rax
    d2fd:	48 89 85 c8 f3 ff ff 	mov    %rax,-0xc38(%rbp)
    d304:	48 8d 05 41 cd 00 00 	lea    0xcd41(%rip),%rax        # 1a04c <g_6+0xc>
    d30b:	48 89 85 d0 f3 ff ff 	mov    %rax,-0xc30(%rbp)
    d312:	48 8d 05 03 ce 00 00 	lea    0xce03(%rip),%rax        # 1a11c <g_25>
    d319:	48 89 85 d8 f3 ff ff 	mov    %rax,-0xc28(%rbp)
    d320:	48 8d 85 2c ee ff ff 	lea    -0x11d4(%rbp),%rax
    d327:	48 89 85 e0 f3 ff ff 	mov    %rax,-0xc20(%rbp)
    d32e:	48 8d 05 e7 cd 00 00 	lea    0xcde7(%rip),%rax        # 1a11c <g_25>
    d335:	48 89 85 e8 f3 ff ff 	mov    %rax,-0xc18(%rbp)
    d33c:	48 8d 05 e5 cd 00 00 	lea    0xcde5(%rip),%rax        # 1a128 <g_95>
    d343:	48 89 85 f0 f3 ff ff 	mov    %rax,-0xc10(%rbp)
    d34a:	48 8d 05 f7 14 01 00 	lea    0x114f7(%rip),%rax        # 1e848 <g_2>
    d351:	48 89 85 f8 f3 ff ff 	mov    %rax,-0xc08(%rbp)
    d358:	48 8d 85 28 ee ff ff 	lea    -0x11d8(%rbp),%rax
    d35f:	48 89 85 00 f4 ff ff 	mov    %rax,-0xc00(%rbp)
    d366:	48 8d 05 df cc 00 00 	lea    0xccdf(%rip),%rax        # 1a04c <g_6+0xc>
    d36d:	48 89 85 08 f4 ff ff 	mov    %rax,-0xbf8(%rbp)
    d374:	48 c7 85 10 f4 ff ff 	movq   $0x0,-0xbf0(%rbp)
    d37b:	00 00 00 00 
    d37f:	48 8d 85 2c ee ff ff 	lea    -0x11d4(%rbp),%rax
    d386:	48 89 85 18 f4 ff ff 	mov    %rax,-0xbe8(%rbp)
    d38d:	48 8d 05 b4 14 01 00 	lea    0x114b4(%rip),%rax        # 1e848 <g_2>
    d394:	48 89 85 20 f4 ff ff 	mov    %rax,-0xbe0(%rbp)
    d39b:	48 c7 85 28 f4 ff ff 	movq   $0x0,-0xbd8(%rbp)
    d3a2:	00 00 00 00 
    d3a6:	48 8d 05 7b cd 00 00 	lea    0xcd7b(%rip),%rax        # 1a128 <g_95>
    d3ad:	48 89 85 30 f4 ff ff 	mov    %rax,-0xbd0(%rbp)
    d3b4:	48 8d 05 61 cd 00 00 	lea    0xcd61(%rip),%rax        # 1a11c <g_25>
    d3bb:	48 89 85 38 f4 ff ff 	mov    %rax,-0xbc8(%rbp)
    d3c2:	48 c7 85 40 f4 ff ff 	movq   $0x0,-0xbc0(%rbp)
    d3c9:	00 00 00 00 
    d3cd:	48 8d 05 48 cd 00 00 	lea    0xcd48(%rip),%rax        # 1a11c <g_25>
    d3d4:	48 89 85 48 f4 ff ff 	mov    %rax,-0xbb8(%rbp)
    d3db:	48 8d 05 66 14 01 00 	lea    0x11466(%rip),%rax        # 1e848 <g_2>
    d3e2:	48 89 85 50 f4 ff ff 	mov    %rax,-0xbb0(%rbp)
    d3e9:	48 8d 05 58 14 01 00 	lea    0x11458(%rip),%rax        # 1e848 <g_2>
    d3f0:	48 89 85 58 f4 ff ff 	mov    %rax,-0xba8(%rbp)
    d3f7:	48 8d 05 1e cd 00 00 	lea    0xcd1e(%rip),%rax        # 1a11c <g_25>
    d3fe:	48 89 85 60 f4 ff ff 	mov    %rax,-0xba0(%rbp)
    d405:	48 8d 05 0c cd 00 00 	lea    0xcd0c(%rip),%rax        # 1a118 <g_20>
    d40c:	48 89 85 68 f4 ff ff 	mov    %rax,-0xb98(%rbp)
    d413:	48 8d 05 32 cc 00 00 	lea    0xcc32(%rip),%rax        # 1a04c <g_6+0xc>
    d41a:	48 89 85 70 f4 ff ff 	mov    %rax,-0xb90(%rbp)
    d421:	48 8d 05 00 cd 00 00 	lea    0xcd00(%rip),%rax        # 1a128 <g_95>
    d428:	48 89 85 78 f4 ff ff 	mov    %rax,-0xb88(%rbp)
    d42f:	48 8d 05 f2 cc 00 00 	lea    0xccf2(%rip),%rax        # 1a128 <g_95>
    d436:	48 89 85 80 f4 ff ff 	mov    %rax,-0xb80(%rbp)
    d43d:	48 c7 85 88 f4 ff ff 	movq   $0x0,-0xb78(%rbp)
    d444:	00 00 00 00 
    d448:	48 8d 05 cd cc 00 00 	lea    0xcccd(%rip),%rax        # 1a11c <g_25>
    d44f:	48 89 85 90 f4 ff ff 	mov    %rax,-0xb70(%rbp)
    d456:	48 c7 85 98 f4 ff ff 	movq   $0x0,-0xb68(%rbp)
    d45d:	00 00 00 00 
    d461:	48 8d 05 a4 cc 00 00 	lea    0xcca4(%rip),%rax        # 1a10c <g_12>
    d468:	48 89 85 a0 f4 ff ff 	mov    %rax,-0xb60(%rbp)
    d46f:	48 c7 85 a8 f4 ff ff 	movq   $0x0,-0xb58(%rbp)
    d476:	00 00 00 00 
    d47a:	48 8d 05 9b cc 00 00 	lea    0xcc9b(%rip),%rax        # 1a11c <g_25>
    d481:	48 89 85 b0 f4 ff ff 	mov    %rax,-0xb50(%rbp)
    d488:	48 8d 85 28 ee ff ff 	lea    -0x11d8(%rbp),%rax
    d48f:	48 89 85 b8 f4 ff ff 	mov    %rax,-0xb48(%rbp)
    d496:	48 8d 05 8b cc 00 00 	lea    0xcc8b(%rip),%rax        # 1a128 <g_95>
    d49d:	48 89 85 c0 f4 ff ff 	mov    %rax,-0xb40(%rbp)
    d4a4:	48 8d 05 7d cc 00 00 	lea    0xcc7d(%rip),%rax        # 1a128 <g_95>
    d4ab:	48 89 85 c8 f4 ff ff 	mov    %rax,-0xb38(%rbp)
    d4b2:	48 8d 05 6f cc 00 00 	lea    0xcc6f(%rip),%rax        # 1a128 <g_95>
    d4b9:	48 89 85 d0 f4 ff ff 	mov    %rax,-0xb30(%rbp)
    d4c0:	48 8d 05 55 cc 00 00 	lea    0xcc55(%rip),%rax        # 1a11c <g_25>
    d4c7:	48 89 85 d8 f4 ff ff 	mov    %rax,-0xb28(%rbp)
    d4ce:	48 c7 85 e0 f4 ff ff 	movq   $0x0,-0xb20(%rbp)
    d4d5:	00 00 00 00 
    d4d9:	48 8d 05 3c cc 00 00 	lea    0xcc3c(%rip),%rax        # 1a11c <g_25>
    d4e0:	48 89 85 e8 f4 ff ff 	mov    %rax,-0xb18(%rbp)
    d4e7:	48 8d 05 7e cb 00 00 	lea    0xcb7e(%rip),%rax        # 1a06c <g_6+0x2c>
    d4ee:	48 89 85 f0 f4 ff ff 	mov    %rax,-0xb10(%rbp)
    d4f5:	48 8d 05 4c 13 01 00 	lea    0x1134c(%rip),%rax        # 1e848 <g_2>
    d4fc:	48 89 85 f8 f4 ff ff 	mov    %rax,-0xb08(%rbp)
    d503:	48 8d 85 28 ee ff ff 	lea    -0x11d8(%rbp),%rax
    d50a:	48 89 85 00 f5 ff ff 	mov    %rax,-0xb00(%rbp)
    d511:	48 8d 05 30 13 01 00 	lea    0x11330(%rip),%rax        # 1e848 <g_2>
    d518:	48 89 85 08 f5 ff ff 	mov    %rax,-0xaf8(%rbp)
    d51f:	48 8d 05 46 cb 00 00 	lea    0xcb46(%rip),%rax        # 1a06c <g_6+0x2c>
    d526:	48 89 85 10 f5 ff ff 	mov    %rax,-0xaf0(%rbp)
    d52d:	48 8d 05 38 cb 00 00 	lea    0xcb38(%rip),%rax        # 1a06c <g_6+0x2c>
    d534:	48 89 85 18 f5 ff ff 	mov    %rax,-0xae8(%rbp)
    d53b:	48 8d 05 e6 cb 00 00 	lea    0xcbe6(%rip),%rax        # 1a128 <g_95>
    d542:	48 89 85 20 f5 ff ff 	mov    %rax,-0xae0(%rbp)
    d549:	48 8d 05 bc cb 00 00 	lea    0xcbbc(%rip),%rax        # 1a10c <g_12>
    d550:	48 89 85 28 f5 ff ff 	mov    %rax,-0xad8(%rbp)
    d557:	48 8d 05 ca cb 00 00 	lea    0xcbca(%rip),%rax        # 1a128 <g_95>
    d55e:	48 89 85 30 f5 ff ff 	mov    %rax,-0xad0(%rbp)
    d565:	48 8d 05 dc 12 01 00 	lea    0x112dc(%rip),%rax        # 1e848 <g_2>
    d56c:	48 89 85 38 f5 ff ff 	mov    %rax,-0xac8(%rbp)
    d573:	48 8d 05 ae cb 00 00 	lea    0xcbae(%rip),%rax        # 1a128 <g_95>
    d57a:	48 89 85 40 f5 ff ff 	mov    %rax,-0xac0(%rbp)
    d581:	48 8d 05 c4 ca 00 00 	lea    0xcac4(%rip),%rax        # 1a04c <g_6+0xc>
    d588:	48 89 85 48 f5 ff ff 	mov    %rax,-0xab8(%rbp)
    d58f:	48 8d 85 2c ee ff ff 	lea    -0x11d4(%rbp),%rax
    d596:	48 89 85 50 f5 ff ff 	mov    %rax,-0xab0(%rbp)
    d59d:	48 8d 05 68 cb 00 00 	lea    0xcb68(%rip),%rax        # 1a10c <g_12>
    d5a4:	48 89 85 58 f5 ff ff 	mov    %rax,-0xaa8(%rbp)
    d5ab:	48 8d 85 28 ee ff ff 	lea    -0x11d8(%rbp),%rax
    d5b2:	48 89 85 60 f5 ff ff 	mov    %rax,-0xaa0(%rbp)
    d5b9:	48 8d 05 4c cb 00 00 	lea    0xcb4c(%rip),%rax        # 1a10c <g_12>
    d5c0:	48 89 85 68 f5 ff ff 	mov    %rax,-0xa98(%rbp)
    d5c7:	48 8d 85 2c ee ff ff 	lea    -0x11d4(%rbp),%rax
    d5ce:	48 89 85 70 f5 ff ff 	mov    %rax,-0xa90(%rbp)
    d5d5:	48 8d 05 70 ca 00 00 	lea    0xca70(%rip),%rax        # 1a04c <g_6+0xc>
    d5dc:	48 89 85 78 f5 ff ff 	mov    %rax,-0xa88(%rbp)
    d5e3:	48 8d 05 3e cb 00 00 	lea    0xcb3e(%rip),%rax        # 1a128 <g_95>
    d5ea:	48 89 85 80 f5 ff ff 	mov    %rax,-0xa80(%rbp)
    d5f1:	48 8d 05 50 12 01 00 	lea    0x11250(%rip),%rax        # 1e848 <g_2>
    d5f8:	48 89 85 88 f5 ff ff 	mov    %rax,-0xa78(%rbp)
    d5ff:	48 8d 05 22 cb 00 00 	lea    0xcb22(%rip),%rax        # 1a128 <g_95>
    d606:	48 89 85 90 f5 ff ff 	mov    %rax,-0xa70(%rbp)
    d60d:	48 8d 05 f8 ca 00 00 	lea    0xcaf8(%rip),%rax        # 1a10c <g_12>
    d614:	48 89 85 98 f5 ff ff 	mov    %rax,-0xa68(%rbp)
    d61b:	48 8d 05 06 cb 00 00 	lea    0xcb06(%rip),%rax        # 1a128 <g_95>
    d622:	48 89 85 a0 f5 ff ff 	mov    %rax,-0xa60(%rbp)
    d629:	48 8d 05 3c ca 00 00 	lea    0xca3c(%rip),%rax        # 1a06c <g_6+0x2c>
    d630:	48 89 85 a8 f5 ff ff 	mov    %rax,-0xa58(%rbp)
    d637:	48 8d 05 2e ca 00 00 	lea    0xca2e(%rip),%rax        # 1a06c <g_6+0x2c>
    d63e:	48 89 85 b0 f5 ff ff 	mov    %rax,-0xa50(%rbp)
    d645:	48 8d 05 fc 11 01 00 	lea    0x111fc(%rip),%rax        # 1e848 <g_2>
    d64c:	48 89 85 b8 f5 ff ff 	mov    %rax,-0xa48(%rbp)
    d653:	48 8d 85 28 ee ff ff 	lea    -0x11d8(%rbp),%rax
    d65a:	48 89 85 c0 f5 ff ff 	mov    %rax,-0xa40(%rbp)
    d661:	48 8d 05 e0 11 01 00 	lea    0x111e0(%rip),%rax        # 1e848 <g_2>
    d668:	48 89 85 c8 f5 ff ff 	mov    %rax,-0xa38(%rbp)
    d66f:	48 8d 05 f6 c9 00 00 	lea    0xc9f6(%rip),%rax        # 1a06c <g_6+0x2c>
    d676:	48 89 85 d0 f5 ff ff 	mov    %rax,-0xa30(%rbp)
    d67d:	48 8d 05 98 ca 00 00 	lea    0xca98(%rip),%rax        # 1a11c <g_25>
    d684:	48 89 85 d8 f5 ff ff 	mov    %rax,-0xa28(%rbp)
    d68b:	48 c7 85 e0 f5 ff ff 	movq   $0x0,-0xa20(%rbp)
    d692:	00 00 00 00 
    d696:	48 8d 05 7f ca 00 00 	lea    0xca7f(%rip),%rax        # 1a11c <g_25>
    d69d:	48 89 85 e8 f5 ff ff 	mov    %rax,-0xa18(%rbp)
    d6a4:	48 8d 05 7d ca 00 00 	lea    0xca7d(%rip),%rax        # 1a128 <g_95>
    d6ab:	48 89 85 f0 f5 ff ff 	mov    %rax,-0xa10(%rbp)
    d6b2:	48 8d 05 6f ca 00 00 	lea    0xca6f(%rip),%rax        # 1a128 <g_95>
    d6b9:	48 89 85 f8 f5 ff ff 	mov    %rax,-0xa08(%rbp)
    d6c0:	48 8d 05 61 ca 00 00 	lea    0xca61(%rip),%rax        # 1a128 <g_95>
    d6c7:	48 89 85 00 f6 ff ff 	mov    %rax,-0xa00(%rbp)
    d6ce:	48 8d 85 28 ee ff ff 	lea    -0x11d8(%rbp),%rax
    d6d5:	48 89 85 08 f6 ff ff 	mov    %rax,-0x9f8(%rbp)
    d6dc:	48 8d 05 39 ca 00 00 	lea    0xca39(%rip),%rax        # 1a11c <g_25>
    d6e3:	48 89 85 10 f6 ff ff 	mov    %rax,-0x9f0(%rbp)
    d6ea:	48 c7 85 18 f6 ff ff 	movq   $0x0,-0x9e8(%rbp)
    d6f1:	00 00 00 00 
    d6f5:	48 8d 05 10 ca 00 00 	lea    0xca10(%rip),%rax        # 1a10c <g_12>
    d6fc:	48 89 85 20 f6 ff ff 	mov    %rax,-0x9e0(%rbp)
    d703:	48 c7 85 28 f6 ff ff 	movq   $0x0,-0x9d8(%rbp)
    d70a:	00 00 00 00 
    d70e:	48 8d 05 07 ca 00 00 	lea    0xca07(%rip),%rax        # 1a11c <g_25>
    d715:	48 89 85 30 f6 ff ff 	mov    %rax,-0x9d0(%rbp)
    d71c:	48 c7 85 38 f6 ff ff 	movq   $0x0,-0x9c8(%rbp)
    d723:	00 00 00 00 
    d727:	48 8d 05 fa c9 00 00 	lea    0xc9fa(%rip),%rax        # 1a128 <g_95>
    d72e:	48 89 85 40 f6 ff ff 	mov    %rax,-0x9c0(%rbp)
    d735:	48 8d 05 ec c9 00 00 	lea    0xc9ec(%rip),%rax        # 1a128 <g_95>
    d73c:	48 89 85 48 f6 ff ff 	mov    %rax,-0x9b8(%rbp)
    d743:	48 8d 05 02 c9 00 00 	lea    0xc902(%rip),%rax        # 1a04c <g_6+0xc>
    d74a:	48 89 85 50 f6 ff ff 	mov    %rax,-0x9b0(%rbp)
    d751:	48 8d 05 c0 c9 00 00 	lea    0xc9c0(%rip),%rax        # 1a118 <g_20>
    d758:	48 89 85 58 f6 ff ff 	mov    %rax,-0x9a8(%rbp)
    d75f:	48 8d 05 b6 c9 00 00 	lea    0xc9b6(%rip),%rax        # 1a11c <g_25>
    d766:	48 89 85 60 f6 ff ff 	mov    %rax,-0x9a0(%rbp)
    d76d:	48 8d 05 d4 10 01 00 	lea    0x110d4(%rip),%rax        # 1e848 <g_2>
    d774:	48 89 85 68 f6 ff ff 	mov    %rax,-0x998(%rbp)
    d77b:	48 8d 05 c6 10 01 00 	lea    0x110c6(%rip),%rax        # 1e848 <g_2>
    d782:	48 89 85 70 f6 ff ff 	mov    %rax,-0x990(%rbp)
    d789:	48 8d 05 8c c9 00 00 	lea    0xc98c(%rip),%rax        # 1a11c <g_25>
    d790:	48 89 85 78 f6 ff ff 	mov    %rax,-0x988(%rbp)
    d797:	48 c7 85 80 f6 ff ff 	movq   $0x0,-0x980(%rbp)
    d79e:	00 00 00 00 
    d7a2:	48 8d 05 73 c9 00 00 	lea    0xc973(%rip),%rax        # 1a11c <g_25>
    d7a9:	48 89 85 88 f6 ff ff 	mov    %rax,-0x978(%rbp)
    d7b0:	48 8d 05 71 c9 00 00 	lea    0xc971(%rip),%rax        # 1a128 <g_95>
    d7b7:	48 89 85 90 f6 ff ff 	mov    %rax,-0x970(%rbp)
    d7be:	48 c7 85 98 f6 ff ff 	movq   $0x0,-0x968(%rbp)
    d7c5:	00 00 00 00 
    d7c9:	48 8d 05 78 10 01 00 	lea    0x11078(%rip),%rax        # 1e848 <g_2>
    d7d0:	48 89 85 a0 f6 ff ff 	mov    %rax,-0x960(%rbp)
    d7d7:	48 8d 85 2c ee ff ff 	lea    -0x11d4(%rbp),%rax
    d7de:	48 89 85 a8 f6 ff ff 	mov    %rax,-0x958(%rbp)
    d7e5:	48 c7 85 b0 f6 ff ff 	movq   $0x0,-0x950(%rbp)
    d7ec:	00 00 00 00 
    d7f0:	48 8d 05 55 c8 00 00 	lea    0xc855(%rip),%rax        # 1a04c <g_6+0xc>
    d7f7:	48 89 85 b8 f6 ff ff 	mov    %rax,-0x948(%rbp)
    d7fe:	48 8d 85 28 ee ff ff 	lea    -0x11d8(%rbp),%rax
    d805:	48 89 85 c0 f6 ff ff 	mov    %rax,-0x940(%rbp)
    d80c:	48 8d 05 35 10 01 00 	lea    0x11035(%rip),%rax        # 1e848 <g_2>
    d813:	48 89 85 c8 f6 ff ff 	mov    %rax,-0x938(%rbp)
    d81a:	48 8d 05 07 c9 00 00 	lea    0xc907(%rip),%rax        # 1a128 <g_95>
    d821:	48 89 85 d0 f6 ff ff 	mov    %rax,-0x930(%rbp)
    d828:	48 8d 05 ed c8 00 00 	lea    0xc8ed(%rip),%rax        # 1a11c <g_25>
    d82f:	48 89 85 d8 f6 ff ff 	mov    %rax,-0x928(%rbp)
    d836:	48 8d 85 2c ee ff ff 	lea    -0x11d4(%rbp),%rax
    d83d:	48 89 85 e0 f6 ff ff 	mov    %rax,-0x920(%rbp)
    d844:	48 8d 05 d1 c8 00 00 	lea    0xc8d1(%rip),%rax        # 1a11c <g_25>
    d84b:	48 89 85 e8 f6 ff ff 	mov    %rax,-0x918(%rbp)
    d852:	48 8d 05 f3 c7 00 00 	lea    0xc7f3(%rip),%rax        # 1a04c <g_6+0xc>
    d859:	48 89 85 f0 f6 ff ff 	mov    %rax,-0x910(%rbp)
    d860:	48 8d 85 2c ee ff ff 	lea    -0x11d4(%rbp),%rax
    d867:	48 89 85 f8 f6 ff ff 	mov    %rax,-0x908(%rbp)
    d86e:	48 8d 05 a7 c8 00 00 	lea    0xc8a7(%rip),%rax        # 1a11c <g_25>
    d875:	48 89 85 00 f7 ff ff 	mov    %rax,-0x900(%rbp)
    d87c:	48 8d 05 89 c8 00 00 	lea    0xc889(%rip),%rax        # 1a10c <g_12>
    d883:	48 89 85 08 f7 ff ff 	mov    %rax,-0x8f8(%rbp)
    d88a:	48 8d 05 87 c8 00 00 	lea    0xc887(%rip),%rax        # 1a118 <g_20>
    d891:	48 89 85 10 f7 ff ff 	mov    %rax,-0x8f0(%rbp)
    d898:	48 8d 05 89 c8 00 00 	lea    0xc889(%rip),%rax        # 1a128 <g_95>
    d89f:	48 89 85 18 f7 ff ff 	mov    %rax,-0x8e8(%rbp)
    d8a6:	48 c7 85 20 f7 ff ff 	movq   $0x0,-0x8e0(%rbp)
    d8ad:	00 00 00 00 
    d8b1:	48 8d 85 28 ee ff ff 	lea    -0x11d8(%rbp),%rax
    d8b8:	48 89 85 28 f7 ff ff 	mov    %rax,-0x8d8(%rbp)
    d8bf:	48 8d 85 28 ee ff ff 	lea    -0x11d8(%rbp),%rax
    d8c6:	48 89 85 30 f7 ff ff 	mov    %rax,-0x8d0(%rbp)
    d8cd:	48 c7 85 38 f7 ff ff 	movq   $0x0,-0x8c8(%rbp)
    d8d4:	00 00 00 00 
    d8d8:	48 8d 05 49 c8 00 00 	lea    0xc849(%rip),%rax        # 1a128 <g_95>
    d8df:	48 89 85 40 f7 ff ff 	mov    %rax,-0x8c0(%rbp)
    d8e6:	48 8d 05 2b c8 00 00 	lea    0xc82b(%rip),%rax        # 1a118 <g_20>
    d8ed:	48 89 85 48 f7 ff ff 	mov    %rax,-0x8b8(%rbp)
    d8f4:	48 8d 05 11 c8 00 00 	lea    0xc811(%rip),%rax        # 1a10c <g_12>
    d8fb:	48 89 85 50 f7 ff ff 	mov    %rax,-0x8b0(%rbp)
    d902:	48 8d 05 13 c8 00 00 	lea    0xc813(%rip),%rax        # 1a11c <g_25>
    d909:	48 89 85 58 f7 ff ff 	mov    %rax,-0x8a8(%rbp)
    d910:	48 8d 85 2c ee ff ff 	lea    -0x11d4(%rbp),%rax
    d917:	48 89 85 60 f7 ff ff 	mov    %rax,-0x8a0(%rbp)
    d91e:	48 8d 05 27 c7 00 00 	lea    0xc727(%rip),%rax        # 1a04c <g_6+0xc>
    d925:	48 89 85 68 f7 ff ff 	mov    %rax,-0x898(%rbp)
    d92c:	48 8d 05 e9 c7 00 00 	lea    0xc7e9(%rip),%rax        # 1a11c <g_25>
    d933:	48 89 85 70 f7 ff ff 	mov    %rax,-0x890(%rbp)
    d93a:	48 8d 85 2c ee ff ff 	lea    -0x11d4(%rbp),%rax
    d941:	48 89 85 78 f7 ff ff 	mov    %rax,-0x888(%rbp)
    d948:	48 8d 05 cd c7 00 00 	lea    0xc7cd(%rip),%rax        # 1a11c <g_25>
    d94f:	48 89 85 80 f7 ff ff 	mov    %rax,-0x880(%rbp)
    d956:	48 8d 05 cb c7 00 00 	lea    0xc7cb(%rip),%rax        # 1a128 <g_95>
    d95d:	48 89 85 88 f7 ff ff 	mov    %rax,-0x878(%rbp)
    d964:	48 8d 05 dd 0e 01 00 	lea    0x10edd(%rip),%rax        # 1e848 <g_2>
    d96b:	48 89 85 90 f7 ff ff 	mov    %rax,-0x870(%rbp)
    d972:	48 8d 85 28 ee ff ff 	lea    -0x11d8(%rbp),%rax
    d979:	48 89 85 98 f7 ff ff 	mov    %rax,-0x868(%rbp)
    d980:	48 8d 05 c5 c6 00 00 	lea    0xc6c5(%rip),%rax        # 1a04c <g_6+0xc>
    d987:	48 89 85 a0 f7 ff ff 	mov    %rax,-0x860(%rbp)
    d98e:	48 c7 85 a8 f7 ff ff 	movq   $0x0,-0x858(%rbp)
    d995:	00 00 00 00 
    d999:	48 8d 85 2c ee ff ff 	lea    -0x11d4(%rbp),%rax
    d9a0:	48 89 85 b0 f7 ff ff 	mov    %rax,-0x850(%rbp)
    d9a7:	48 8d 05 9a 0e 01 00 	lea    0x10e9a(%rip),%rax        # 1e848 <g_2>
    d9ae:	48 89 85 b8 f7 ff ff 	mov    %rax,-0x848(%rbp)
    d9b5:	48 c7 85 c0 f7 ff ff 	movq   $0x0,-0x840(%rbp)
    d9bc:	00 00 00 00 
    d9c0:	48 8d 05 61 c7 00 00 	lea    0xc761(%rip),%rax        # 1a128 <g_95>
    d9c7:	48 89 85 c8 f7 ff ff 	mov    %rax,-0x838(%rbp)
    d9ce:	48 8d 05 47 c7 00 00 	lea    0xc747(%rip),%rax        # 1a11c <g_25>
    d9d5:	48 89 85 d0 f7 ff ff 	mov    %rax,-0x830(%rbp)
    d9dc:	48 c7 85 d8 f7 ff ff 	movq   $0x0,-0x828(%rbp)
    d9e3:	00 00 00 00 
    d9e7:	48 8d 05 2e c7 00 00 	lea    0xc72e(%rip),%rax        # 1a11c <g_25>
    d9ee:	48 89 85 e0 f7 ff ff 	mov    %rax,-0x820(%rbp)
    d9f5:	48 8d 05 4c 0e 01 00 	lea    0x10e4c(%rip),%rax        # 1e848 <g_2>
    d9fc:	48 89 85 e8 f7 ff ff 	mov    %rax,-0x818(%rbp)
    da03:	48 8d 05 3e 0e 01 00 	lea    0x10e3e(%rip),%rax        # 1e848 <g_2>
    da0a:	48 89 85 f0 f7 ff ff 	mov    %rax,-0x810(%rbp)
    da11:	48 8d 05 04 c7 00 00 	lea    0xc704(%rip),%rax        # 1a11c <g_25>
    da18:	48 89 85 f8 f7 ff ff 	mov    %rax,-0x808(%rbp)
    da1f:	48 8d 05 f2 c6 00 00 	lea    0xc6f2(%rip),%rax        # 1a118 <g_20>
    da26:	48 89 85 00 f8 ff ff 	mov    %rax,-0x800(%rbp)
    da2d:	48 8d 05 18 c6 00 00 	lea    0xc618(%rip),%rax        # 1a04c <g_6+0xc>
    da34:	48 89 85 08 f8 ff ff 	mov    %rax,-0x7f8(%rbp)
    da3b:	c7 85 38 ee ff ff ff 	movl   $0xffffffff,-0x11c8(%rbp)
    da42:	ff ff ff 
    da45:	48 8d 05 3c 0e 01 00 	lea    0x10e3c(%rip),%rax        # 1e888 <g_792+0x8>
    da4c:	48 89 85 68 ee ff ff 	mov    %rax,-0x1198(%rbp)
    da53:	48 8d 05 fe 0d 01 00 	lea    0x10dfe(%rip),%rax        # 1e858 <g_324>
    da5a:	48 89 85 70 ee ff ff 	mov    %rax,-0x1190(%rbp)
    da61:	48 c7 85 78 ee ff ff 	movq   $0x0,-0x1188(%rbp)
    da68:	00 00 00 00 
    da6c:	48 c7 85 80 ee ff ff 	movq   $0x0,-0x1180(%rbp)
    da73:	00 00 00 00 
    da77:	c7 85 3c ee ff ff 07 	movl   $0x7,-0x11c4(%rbp)
    da7e:	00 00 00 
    da81:	c7 85 80 ef ff ff aa 	movl   $0xe1bf76aa,-0x1080(%rbp)
    da88:	76 bf e1 
    da8b:	c7 85 84 ef ff ff ff 	movl   $0xffffffff,-0x107c(%rbp)
    da92:	ff ff ff 
    da95:	c7 85 88 ef ff ff d3 	movl   $0xb09fb6d3,-0x1078(%rbp)
    da9c:	b6 9f b0 
    da9f:	c7 85 8c ef ff ff ff 	movl   $0xffffffff,-0x1074(%rbp)
    daa6:	ff ff ff 
    daa9:	c7 85 90 ef ff ff aa 	movl   $0xe1bf76aa,-0x1070(%rbp)
    dab0:	76 bf e1 
    dab3:	c7 85 94 ef ff ff ff 	movl   $0xffffffff,-0x106c(%rbp)
    daba:	ff ff ff 
    dabd:	c7 85 98 ef ff ff d3 	movl   $0xb09fb6d3,-0x1068(%rbp)
    dac4:	b6 9f b0 
    dac7:	c7 85 9c ef ff ff ff 	movl   $0xffffffff,-0x1064(%rbp)
    dace:	ff ff ff 
    dad1:	c7 85 a0 ef ff ff aa 	movl   $0xe1bf76aa,-0x1060(%rbp)
    dad8:	76 bf e1 
    dadb:	c7 85 a4 ef ff ff ff 	movl   $0xffffffff,-0x105c(%rbp)
    dae2:	ff ff ff 
    dae5:	c7 85 a8 ef ff ff d3 	movl   $0xb09fb6d3,-0x1058(%rbp)
    daec:	b6 9f b0 
    daef:	c7 85 ac ef ff ff ff 	movl   $0xffffffff,-0x1054(%rbp)
    daf6:	ff ff ff 
    daf9:	c7 85 b0 ef ff ff aa 	movl   $0xe1bf76aa,-0x1050(%rbp)
    db00:	76 bf e1 
    db03:	c7 85 b4 ef ff ff ff 	movl   $0xffffffff,-0x104c(%rbp)
    db0a:	ff ff ff 
    db0d:	c7 85 b8 ef ff ff d3 	movl   $0xb09fb6d3,-0x1048(%rbp)
    db14:	b6 9f b0 
    db17:	c7 85 bc ef ff ff ff 	movl   $0xffffffff,-0x1044(%rbp)
    db1e:	ff ff ff 
    db21:	c7 85 c0 ef ff ff aa 	movl   $0xe1bf76aa,-0x1040(%rbp)
    db28:	76 bf e1 
    db2b:	c7 85 c4 ef ff ff ff 	movl   $0xffffffff,-0x103c(%rbp)
    db32:	ff ff ff 
    db35:	c7 85 c8 ef ff ff d3 	movl   $0xb09fb6d3,-0x1038(%rbp)
    db3c:	b6 9f b0 
    db3f:	c7 85 cc ef ff ff ff 	movl   $0xffffffff,-0x1034(%rbp)
    db46:	ff ff ff 
    db49:	c7 85 d0 ef ff ff aa 	movl   $0xe1bf76aa,-0x1030(%rbp)
    db50:	76 bf e1 
    db53:	c7 85 d4 ef ff ff ff 	movl   $0xffffffff,-0x102c(%rbp)
    db5a:	ff ff ff 
    db5d:	c7 85 d8 ef ff ff d3 	movl   $0xb09fb6d3,-0x1028(%rbp)
    db64:	b6 9f b0 
    db67:	c7 85 dc ef ff ff ff 	movl   $0xffffffff,-0x1024(%rbp)
    db6e:	ff ff ff 
    db71:	c7 85 e0 ef ff ff aa 	movl   $0xe1bf76aa,-0x1020(%rbp)
    db78:	76 bf e1 
    db7b:	c7 85 e4 ef ff ff ff 	movl   $0xffffffff,-0x101c(%rbp)
    db82:	ff ff ff 
    db85:	c7 85 e8 ef ff ff d3 	movl   $0xb09fb6d3,-0x1018(%rbp)
    db8c:	b6 9f b0 
    db8f:	c7 85 ec ef ff ff ff 	movl   $0xffffffff,-0x1014(%rbp)
    db96:	ff ff ff 
    db99:	c7 85 f0 ef ff ff aa 	movl   $0xe1bf76aa,-0x1010(%rbp)
    dba0:	76 bf e1 
    dba3:	c7 85 f4 ef ff ff ff 	movl   $0xffffffff,-0x100c(%rbp)
    dbaa:	ff ff ff 
    dbad:	c7 85 f8 ef ff ff d3 	movl   $0xb09fb6d3,-0x1008(%rbp)
    dbb4:	b6 9f b0 
    dbb7:	c7 85 fc ef ff ff ff 	movl   $0xffffffff,-0x1004(%rbp)
    dbbe:	ff ff ff 
    dbc1:	c7 85 00 f0 ff ff aa 	movl   $0xe1bf76aa,-0x1000(%rbp)
    dbc8:	76 bf e1 
    dbcb:	c7 85 04 f0 ff ff ff 	movl   $0xffffffff,-0xffc(%rbp)
    dbd2:	ff ff ff 
    dbd5:	c7 85 08 f0 ff ff d3 	movl   $0xb09fb6d3,-0xff8(%rbp)
    dbdc:	b6 9f b0 
    dbdf:	c7 85 0c f0 ff ff ff 	movl   $0xffffffff,-0xff4(%rbp)
    dbe6:	ff ff ff 
    dbe9:	c7 85 10 f0 ff ff aa 	movl   $0xe1bf76aa,-0xff0(%rbp)
    dbf0:	76 bf e1 
    dbf3:	c7 85 14 f0 ff ff ff 	movl   $0xffffffff,-0xfec(%rbp)
    dbfa:	ff ff ff 
    dbfd:	c7 85 18 f0 ff ff d3 	movl   $0xb09fb6d3,-0xfe8(%rbp)
    dc04:	b6 9f b0 
    dc07:	c7 85 1c f0 ff ff ff 	movl   $0xffffffff,-0xfe4(%rbp)
    dc0e:	ff ff ff 
    dc11:	c7 85 20 f0 ff ff aa 	movl   $0xe1bf76aa,-0xfe0(%rbp)
    dc18:	76 bf e1 
    dc1b:	c7 85 24 f0 ff ff ff 	movl   $0xffffffff,-0xfdc(%rbp)
    dc22:	ff ff ff 
    dc25:	c7 85 28 f0 ff ff d3 	movl   $0xb09fb6d3,-0xfd8(%rbp)
    dc2c:	b6 9f b0 
    dc2f:	c7 85 2c f0 ff ff ff 	movl   $0xffffffff,-0xfd4(%rbp)
    dc36:	ff ff ff 
    dc39:	c7 85 30 f0 ff ff aa 	movl   $0xe1bf76aa,-0xfd0(%rbp)
    dc40:	76 bf e1 
    dc43:	48 8d 05 66 fa 00 00 	lea    0xfa66(%rip),%rax        # 1d6b0 <g_718+0x70>
    dc4a:	48 89 85 88 ee ff ff 	mov    %rax,-0x1178(%rbp)
    dc51:	48 8d 05 28 84 00 00 	lea    0x8428(%rip),%rax        # 16080 <g_1276>
    dc58:	48 89 85 90 ee ff ff 	mov    %rax,-0x1170(%rbp)
    dc5f:	c7 85 40 ee ff ff 00 	movl   $0x0,-0x11c0(%rbp)
    dc66:	00 00 00 
    dc69:	48 b8 23 e6 cb 36 f6 	movabs $0xa38892f636cbe623,%rax
    dc70:	92 88 a3 
    dc73:	48 89 85 98 ee ff ff 	mov    %rax,-0x1168(%rbp)
    dc7a:	48 8d 85 c0 ee ff ff 	lea    -0x1140(%rbp),%rax
    dc81:	48 83 c0 08          	add    $0x8,%rax
    dc85:	48 89 85 a0 ee ff ff 	mov    %rax,-0x1160(%rbp)
    dc8c:	48 8d 05 e5 f7 00 00 	lea    0xf7e5(%rip),%rax        # 1d478 <g_325>
    dc93:	48 89 85 a8 ee ff ff 	mov    %rax,-0x1158(%rbp)
    dc9a:	66 c7 85 bc ee ff ff 	movw   $0x7de,-0x1144(%rbp)
    dca1:	de 07 
    dca3:	c7 85 44 ee ff ff 06 	movl   $0xf81e8006,-0x11bc(%rbp)
    dcaa:	80 1e f8 
    dcad:	48 8d 05 ac 0b 01 00 	lea    0x10bac(%rip),%rax        # 1e860 <g_326>
    dcb4:	48 89 85 b0 ee ff ff 	mov    %rax,-0x1150(%rbp)
    dcbb:	c6 85 27 ee ff ff cb 	movb   $0xcb,-0x11d9(%rbp)
    dcc2:	c7 85 30 ee ff ff 00 	movl   $0x0,-0x11d0(%rbp)
    dcc9:	00 00 00 
    dccc:	eb 1e                	jmp    dcec <func_55+0x10fa>
    dcce:	8b 85 30 ee ff ff    	mov    -0x11d0(%rbp),%eax
    dcd4:	48 98                	cltq   
    dcd6:	48 8d 15 e4 c5 00 00 	lea    0xc5e4(%rip),%rdx        # 1a2c1 <g_178>
    dcdd:	48 89 94 c5 d0 ee ff 	mov    %rdx,-0x1130(%rbp,%rax,8)
    dce4:	ff 
    dce5:	83 85 30 ee ff ff 01 	addl   $0x1,-0x11d0(%rbp)
    dcec:	83 bd 30 ee ff ff 04 	cmpl   $0x4,-0x11d0(%rbp)
    dcf3:	7e d9                	jle    dcce <func_55+0x10dc>
    dcf5:	c7 85 30 ee ff ff 00 	movl   $0x0,-0x11d0(%rbp)
    dcfc:	00 00 00 
    dcff:	eb 51                	jmp    dd52 <func_55+0x1160>
    dd01:	c7 85 34 ee ff ff 00 	movl   $0x0,-0x11cc(%rbp)
    dd08:	00 00 00 
    dd0b:	eb 35                	jmp    dd42 <func_55+0x1150>
    dd0d:	8b 85 34 ee ff ff    	mov    -0x11cc(%rbp),%eax
    dd13:	48 63 c8             	movslq %eax,%rcx
    dd16:	8b 85 30 ee ff ff    	mov    -0x11d0(%rbp),%eax
    dd1c:	48 63 d0             	movslq %eax,%rdx
    dd1f:	48 89 d0             	mov    %rdx,%rax
    dd22:	48 c1 e0 02          	shl    $0x2,%rax
    dd26:	48 01 d0             	add    %rdx,%rax
    dd29:	48 01 c8             	add    %rcx,%rax
    dd2c:	48 8d 15 5d f7 00 00 	lea    0xf75d(%rip),%rdx        # 1d490 <g_374+0x10>
    dd33:	48 89 94 c5 30 ef ff 	mov    %rdx,-0x10d0(%rbp,%rax,8)
    dd3a:	ff 
    dd3b:	83 85 34 ee ff ff 01 	addl   $0x1,-0x11cc(%rbp)
    dd42:	83 bd 34 ee ff ff 04 	cmpl   $0x4,-0x11cc(%rbp)
    dd49:	7e c2                	jle    dd0d <func_55+0x111b>
    dd4b:	83 85 30 ee ff ff 01 	addl   $0x1,-0x11d0(%rbp)
    dd52:	83 bd 30 ee ff ff 01 	cmpl   $0x1,-0x11d0(%rbp)
    dd59:	7e a6                	jle    dd01 <func_55+0x110f>
    dd5b:	c7 85 30 ee ff ff 00 	movl   $0x0,-0x11d0(%rbp)
    dd62:	00 00 00 
    dd65:	eb 14                	jmp    dd7b <func_55+0x1189>
    dd67:	8b 85 30 ee ff ff    	mov    -0x11d0(%rbp),%eax
    dd6d:	48 98                	cltq   
    dd6f:	c6 44 05 f3 f9       	movb   $0xf9,-0xd(%rbp,%rax,1)
    dd74:	83 85 30 ee ff ff 01 	addl   $0x1,-0x11d0(%rbp)
    dd7b:	83 bd 30 ee ff ff 04 	cmpl   $0x4,-0x11d0(%rbp)
    dd82:	7e e3                	jle    dd67 <func_55+0x1175>
    dd84:	c7 85 30 ee ff ff 00 	movl   $0x0,-0x11d0(%rbp)
    dd8b:	00 00 00 
    dd8e:	eb 1e                	jmp    ddae <func_55+0x11bc>
    dd90:	8b 85 30 ee ff ff    	mov    -0x11d0(%rbp),%eax
    dd96:	48 98                	cltq   
    dd98:	48 8d 15 59 fa 00 00 	lea    0xfa59(%rip),%rdx        # 1d7f8 <g_1323>
    dd9f:	48 89 94 c5 c0 ee ff 	mov    %rdx,-0x1140(%rbp,%rax,8)
    dda6:	ff 
    dda7:	83 85 30 ee ff ff 01 	addl   $0x1,-0x11d0(%rbp)
    ddae:	83 bd 30 ee ff ff 01 	cmpl   $0x1,-0x11d0(%rbp)
    ddb5:	7e d9                	jle    dd90 <func_55+0x119e>
    ddb7:	c7 85 30 ee ff ff 00 	movl   $0x0,-0x11d0(%rbp)
    ddbe:	00 00 00 
    ddc1:	eb 19                	jmp    dddc <func_55+0x11ea>
    ddc3:	8b 85 30 ee ff ff    	mov    -0x11d0(%rbp),%eax
    ddc9:	48 98                	cltq   
    ddcb:	66 c7 84 45 be ee ff 	movw   $0x3a7b,-0x1142(%rbp,%rax,2)
    ddd2:	ff 7b 3a 
    ddd5:	83 85 30 ee ff ff 01 	addl   $0x1,-0x11d0(%rbp)
    dddc:	83 bd 30 ee ff ff 00 	cmpl   $0x0,-0x11d0(%rbp)
    dde3:	7e de                	jle    ddc3 <func_55+0x11d1>
    dde5:	48 8b 05 dc f9 00 00 	mov    0xf9dc(%rip),%rax        # 1d7c8 <g_865>
    ddec:	0f b6 00             	movzbl (%rax),%eax
    ddef:	48 8b 75 f8          	mov    -0x8(%rbp),%rsi
    ddf3:	64 48 33 34 25 28 00 	xor    %fs:0x28,%rsi
    ddfa:	00 00 
    ddfc:	74 05                	je     de03 <func_55+0x1211>
    ddfe:	e8 6d b2 ff ff       	callq  9070 <__stack_chk_fail@plt>
    de03:	c9                   	leaveq 
    de04:	c3                   	retq   

000000000000de05 <func_58>:
    de05:	f3 0f 1e fa          	endbr64 
    de09:	55                   	push   %rbp
    de0a:	48 89 e5             	mov    %rsp,%rbp
    de0d:	41 54                	push   %r12
    de0f:	53                   	push   %rbx
    de10:	48 81 ec f0 01 00 00 	sub    $0x1f0,%rsp
    de17:	89 bd 0c fe ff ff    	mov    %edi,-0x1f4(%rbp)
    de1d:	64 48 8b 04 25 28 00 	mov    %fs:0x28,%rax
    de24:	00 00 
    de26:	48 89 45 e8          	mov    %rax,-0x18(%rbp)
    de2a:	31 c0                	xor    %eax,%eax
    de2c:	c6 85 19 fe ff ff 24 	movb   $0x24,-0x1e7(%rbp)
    de33:	48 c7 85 40 fe ff ff 	movq   $0x0,-0x1c0(%rbp)
    de3a:	00 00 00 00 
    de3e:	48 c7 85 48 fe ff ff 	movq   $0x0,-0x1b8(%rbp)
    de45:	00 00 00 00 
    de49:	c7 85 1c fe ff ff 01 	movl   $0x1,-0x1e4(%rbp)
    de50:	00 00 00 
    de53:	c7 85 2c fe ff ff ac 	movl   $0xbdf76fac,-0x1d4(%rbp)
    de5a:	6f f7 bd 
    de5d:	48 8d 05 ec c5 00 00 	lea    0xc5ec(%rip),%rax        # 1a450 <g_290+0x10>
    de64:	48 89 85 50 fe ff ff 	mov    %rax,-0x1b0(%rbp)
    de6b:	48 8d 05 de 09 01 00 	lea    0x109de(%rip),%rax        # 1e850 <g_90>
    de72:	48 89 85 58 fe ff ff 	mov    %rax,-0x1a8(%rbp)
    de79:	c7 05 6f c6 00 00 00 	movl   $0x0,0xc66f(%rip)        # 1a4f2 <g_654+0x12>
    de80:	00 00 00 
    de83:	e9 ae 06 00 00       	jmpq   e536 <func_58+0x731>
    de88:	c7 45 e1 a3 a3 a3 a3 	movl   $0xa3a3a3a3,-0x1f(%rbp)
    de8f:	66 c7 45 e5 a3 a3    	movw   $0xa3a3,-0x1b(%rbp)
    de95:	c6 45 e7 a3          	movb   $0xa3,-0x19(%rbp)
    de99:	66 c7 85 1a fe ff ff 	movw   $0xfffb,-0x1e6(%rbp)
    dea0:	fb ff 
    dea2:	48 c7 85 60 ff ff ff 	movq   $0x0,-0xa0(%rbp)
    dea9:	00 00 00 00 
    dead:	48 c7 85 68 ff ff ff 	movq   $0x0,-0x98(%rbp)
    deb4:	00 00 00 00 
    deb8:	48 8d 05 d9 f5 00 00 	lea    0xf5d9(%rip),%rax        # 1d498 <g_374+0x18>
    debf:	48 89 85 70 ff ff ff 	mov    %rax,-0x90(%rbp)
    dec6:	48 c7 85 78 ff ff ff 	movq   $0x0,-0x88(%rbp)
    decd:	00 00 00 00 
    ded1:	48 c7 45 80 00 00 00 	movq   $0x0,-0x80(%rbp)
    ded8:	00 
    ded9:	48 8d 05 a0 f5 00 00 	lea    0xf5a0(%rip),%rax        # 1d480 <g_374>
    dee0:	48 89 45 88          	mov    %rax,-0x78(%rbp)
    dee4:	48 8d 05 a5 f5 00 00 	lea    0xf5a5(%rip),%rax        # 1d490 <g_374+0x10>
    deeb:	48 89 45 90          	mov    %rax,-0x70(%rbp)
    deef:	48 8d 05 8a f5 00 00 	lea    0xf58a(%rip),%rax        # 1d480 <g_374>
    def6:	48 89 45 98          	mov    %rax,-0x68(%rbp)
    defa:	48 8d 05 7f f5 00 00 	lea    0xf57f(%rip),%rax        # 1d480 <g_374>
    df01:	48 89 45 a0          	mov    %rax,-0x60(%rbp)
    df05:	48 8d 05 84 f5 00 00 	lea    0xf584(%rip),%rax        # 1d490 <g_374+0x10>
    df0c:	48 89 45 a8          	mov    %rax,-0x58(%rbp)
    df10:	48 c7 45 b0 00 00 00 	movq   $0x0,-0x50(%rbp)
    df17:	00 
    df18:	48 c7 45 b8 00 00 00 	movq   $0x0,-0x48(%rbp)
    df1f:	00 
    df20:	48 c7 45 c0 00 00 00 	movq   $0x0,-0x40(%rbp)
    df27:	00 
    df28:	48 c7 45 c8 00 00 00 	movq   $0x0,-0x38(%rbp)
    df2f:	00 
    df30:	48 c7 45 d0 00 00 00 	movq   $0x0,-0x30(%rbp)
    df37:	00 
    df38:	48 8d 85 60 ff ff ff 	lea    -0xa0(%rbp),%rax
    df3f:	48 83 c0 60          	add    $0x60,%rax
    df43:	48 89 85 60 fe ff ff 	mov    %rax,-0x1a0(%rbp)
    df4a:	48 c7 85 68 fe ff ff 	movq   $0x0,-0x198(%rbp)
    df51:	00 00 00 00 
    df55:	48 8d 05 24 09 01 00 	lea    0x10924(%rip),%rax        # 1e880 <g_792>
    df5c:	48 89 85 70 fe ff ff 	mov    %rax,-0x190(%rbp)
    df63:	48 8d 05 ae c5 00 00 	lea    0xc5ae(%rip),%rax        # 1a518 <g_740>
    df6a:	48 89 85 78 fe ff ff 	mov    %rax,-0x188(%rbp)
    df71:	48 8d 05 ba c5 00 00 	lea    0xc5ba(%rip),%rax        # 1a532 <g_777+0x12>
    df78:	48 89 85 38 fe ff ff 	mov    %rax,-0x1c8(%rbp)
    df7f:	48 8d 85 38 fe ff ff 	lea    -0x1c8(%rbp),%rax
    df86:	48 89 85 80 fe ff ff 	mov    %rax,-0x180(%rbp)
    df8d:	48 c7 85 88 fe ff ff 	movq   $0x0,-0x178(%rbp)
    df94:	00 00 00 00 
    df98:	48 8d 05 f9 c4 00 00 	lea    0xc4f9(%rip),%rax        # 1a498 <g_551>
    df9f:	48 89 85 90 fe ff ff 	mov    %rax,-0x170(%rbp)
    dfa6:	48 8d 05 13 c3 00 00 	lea    0xc313(%rip),%rax        # 1a2c0 <g_126>
    dfad:	48 89 85 98 fe ff ff 	mov    %rax,-0x168(%rbp)
    dfb4:	48 8d 85 1c fe ff ff 	lea    -0x1e4(%rbp),%rax
    dfbb:	48 89 85 10 ff ff ff 	mov    %rax,-0xf0(%rbp)
    dfc2:	48 c7 85 18 ff ff ff 	movq   $0x0,-0xe8(%rbp)
    dfc9:	00 00 00 00 
    dfcd:	48 8d 85 1c fe ff ff 	lea    -0x1e4(%rbp),%rax
    dfd4:	48 89 85 20 ff ff ff 	mov    %rax,-0xe0(%rbp)
    dfdb:	48 c7 85 28 ff ff ff 	movq   $0x0,-0xd8(%rbp)
    dfe2:	00 00 00 00 
    dfe6:	48 8d 85 1c fe ff ff 	lea    -0x1e4(%rbp),%rax
    dfed:	48 89 85 30 ff ff ff 	mov    %rax,-0xd0(%rbp)
    dff4:	48 c7 85 38 ff ff ff 	movq   $0x0,-0xc8(%rbp)
    dffb:	00 00 00 00 
    dfff:	48 8d 85 1c fe ff ff 	lea    -0x1e4(%rbp),%rax
    e006:	48 89 85 40 ff ff ff 	mov    %rax,-0xc0(%rbp)
    e00d:	48 c7 85 48 ff ff ff 	movq   $0x0,-0xb8(%rbp)
    e014:	00 00 00 00 
    e018:	48 8d 85 1c fe ff ff 	lea    -0x1e4(%rbp),%rax
    e01f:	48 89 85 50 ff ff ff 	mov    %rax,-0xb0(%rbp)
    e026:	48 c7 85 58 ff ff ff 	movq   $0x0,-0xa8(%rbp)
    e02d:	00 00 00 00 
    e031:	c7 85 24 fe ff ff 00 	movl   $0x0,-0x1dc(%rbp)
    e038:	00 00 00 
    e03b:	eb 1e                	jmp    e05b <func_58+0x256>
    e03d:	8b 85 24 fe ff ff    	mov    -0x1dc(%rbp),%eax
    e043:	48 98                	cltq   
    e045:	48 8d 15 d4 c4 00 00 	lea    0xc4d4(%rip),%rdx        # 1a520 <g_777>
    e04c:	48 89 94 c5 c0 fe ff 	mov    %rdx,-0x140(%rbp,%rax,8)
    e053:	ff 
    e054:	83 85 24 fe ff ff 01 	addl   $0x1,-0x1dc(%rbp)
    e05b:	83 bd 24 fe ff ff 00 	cmpl   $0x0,-0x1dc(%rbp)
    e062:	7e d9                	jle    e03d <func_58+0x238>
    e064:	66 c7 05 4f c3 00 00 	movw   $0x8,0xc34f(%rip)        # 1a3bc <g_256>
    e06b:	08 00 
    e06d:	e9 a7 02 00 00       	jmpq   e319 <func_58+0x514>
    e072:	c7 85 30 fe ff ff 0b 	movl   $0x7c3e2a0b,-0x1d0(%rbp)
    e079:	2a 3e 7c 
    e07c:	c7 85 34 fe ff ff 01 	movl   $0x1,-0x1cc(%rbp)
    e083:	00 00 00 
    e086:	c6 05 33 c2 00 00 00 	movb   $0x0,0xc233(%rip)        # 1a2c0 <g_126>
    e08d:	e9 5a 02 00 00       	jmpq   e2ec <func_58+0x4e7>
    e092:	c7 85 20 fe ff ff 77 	movl   $0x54963777,-0x1e0(%rbp)
    e099:	37 96 54 
    e09c:	48 8d 05 2f c4 00 00 	lea    0xc42f(%rip),%rax        # 1a4d2 <g_653+0x12>
    e0a3:	48 89 85 a0 fe ff ff 	mov    %rax,-0x160(%rbp)
    e0aa:	48 8d 05 77 c0 00 00 	lea    0xc077(%rip),%rax        # 1a128 <g_95>
    e0b1:	48 89 85 a8 fe ff ff 	mov    %rax,-0x158(%rbp)
    e0b8:	48 8d 85 20 fe ff ff 	lea    -0x1e0(%rbp),%rax
    e0bf:	48 89 85 d0 fe ff ff 	mov    %rax,-0x130(%rbp)
    e0c6:	48 8d 85 20 fe ff ff 	lea    -0x1e0(%rbp),%rax
    e0cd:	48 89 85 d8 fe ff ff 	mov    %rax,-0x128(%rbp)
    e0d4:	48 8d 85 20 fe ff ff 	lea    -0x1e0(%rbp),%rax
    e0db:	48 89 85 e0 fe ff ff 	mov    %rax,-0x120(%rbp)
    e0e2:	48 8d 85 20 fe ff ff 	lea    -0x1e0(%rbp),%rax
    e0e9:	48 89 85 e8 fe ff ff 	mov    %rax,-0x118(%rbp)
    e0f0:	48 8d 85 1a fe ff ff 	lea    -0x1e6(%rbp),%rax
    e0f7:	48 89 85 b0 fe ff ff 	mov    %rax,-0x150(%rbp)
    e0fe:	48 8d 05 17 c0 00 00 	lea    0xc017(%rip),%rax        # 1a11c <g_25>
    e105:	48 89 85 b8 fe ff ff 	mov    %rax,-0x148(%rbp)
    e10c:	c7 85 28 fe ff ff 00 	movl   $0x0,-0x1d8(%rbp)
    e113:	00 00 00 
    e116:	eb 1e                	jmp    e136 <func_58+0x331>
    e118:	8b 85 28 fe ff ff    	mov    -0x1d8(%rbp),%eax
    e11e:	48 98                	cltq   
    e120:	48 8d 15 9a c1 00 00 	lea    0xc19a(%rip),%rdx        # 1a2c1 <g_178>
    e127:	48 89 94 c5 c8 fe ff 	mov    %rdx,-0x138(%rbp,%rax,8)
    e12e:	ff 
    e12f:	83 85 28 fe ff ff 01 	addl   $0x1,-0x1d8(%rbp)
    e136:	83 bd 28 fe ff ff 00 	cmpl   $0x0,-0x1d8(%rbp)
    e13d:	7e d9                	jle    e118 <func_58+0x313>
    e13f:	c7 85 28 fe ff ff 00 	movl   $0x0,-0x1d8(%rbp)
    e146:	00 00 00 
    e149:	eb 1e                	jmp    e169 <func_58+0x364>
    e14b:	8b 85 28 fe ff ff    	mov    -0x1d8(%rbp),%eax
    e151:	48 98                	cltq   
    e153:	48 8d 15 0a c3 00 00 	lea    0xc30a(%rip),%rdx        # 1a464 <g_337>
    e15a:	48 89 94 c5 f0 fe ff 	mov    %rdx,-0x110(%rbp,%rax,8)
    e161:	ff 
    e162:	83 85 28 fe ff ff 01 	addl   $0x1,-0x1d8(%rbp)
    e169:	83 bd 28 fe ff ff 03 	cmpl   $0x3,-0x1d8(%rbp)
    e170:	7e d9                	jle    e14b <func_58+0x346>
    e172:	83 bd 30 fe ff ff 00 	cmpl   $0x0,-0x1d0(%rbp)
    e179:	0f 84 11 01 00 00    	je     e290 <func_58+0x48b>
    e17f:	0f b6 45 e6          	movzbl -0x1a(%rbp),%eax
    e183:	0f be d0             	movsbl %al,%edx
    e186:	8b 85 0c fe ff ff    	mov    -0x1f4(%rbp),%eax
    e18c:	0f be c0             	movsbl %al,%eax
    e18f:	89 d6                	mov    %edx,%esi
    e191:	89 c7                	mov    %eax,%edi
    e193:	e8 3c b0 ff ff       	callq  91d4 <safe_add_func_int8_t_s_s>
    e198:	0f be d0             	movsbl %al,%edx
    e19b:	c7 05 dd c2 00 00 03 	movl   $0x3,0xc2dd(%rip)        # 1a482 <g_380+0x12>
    e1a2:	00 00 00 
    e1a5:	8b 05 d7 c2 00 00    	mov    0xc2d7(%rip),%eax        # 1a482 <g_380+0x12>
    e1ab:	89 d6                	mov    %edx,%esi
    e1ad:	89 c7                	mov    %eax,%edi
    e1af:	e8 49 bd ff ff       	callq  9efd <safe_mod_func_uint32_t_u_u>
    e1b4:	0f b7 c0             	movzwl %ax,%eax
    e1b7:	be 0d 00 00 00       	mov    $0xd,%esi
    e1bc:	89 c7                	mov    %eax,%edi
    e1be:	e8 b7 bc ff ff       	callq  9e7a <safe_rshift_func_uint16_t_u_u>
    e1c3:	66 85 c0             	test   %ax,%ax
    e1c6:	75 71                	jne    e239 <func_58+0x434>
    e1c8:	0f be 9d 19 fe ff ff 	movsbl -0x1e7(%rbp),%ebx
    e1cf:	44 8b a5 0c fe ff ff 	mov    -0x1f4(%rbp),%r12d
    e1d6:	0f b7 85 1a fe ff ff 	movzwl -0x1e6(%rbp),%eax
    e1dd:	0f b7 d0             	movzwl %ax,%edx
    e1e0:	0f be 85 19 fe ff ff 	movsbl -0x1e7(%rbp),%eax
    e1e7:	39 c2                	cmp    %eax,%edx
    e1e9:	0f 9f c0             	setg   %al
    e1ec:	0f b6 c0             	movzbl %al,%eax
    e1ef:	be 02 00 00 00       	mov    $0x2,%esi
    e1f4:	89 c7                	mov    %eax,%edi
    e1f6:	e8 71 b1 ff ff       	callq  936c <safe_rshift_func_int8_t_s_u>
    e1fb:	44 89 e6             	mov    %r12d,%esi
    e1fe:	bf 01 00 00 00       	mov    $0x1,%edi
    e203:	e8 e6 b0 ff ff       	callq  92ee <safe_lshift_func_int8_t_s_u>
    e208:	48 8b 85 c0 fe ff ff 	mov    -0x140(%rbp),%rax
    e20f:	48 85 c0             	test   %rax,%rax
    e212:	0f 95 c0             	setne  %al
    e215:	0f b6 c0             	movzbl %al,%eax
    e218:	89 85 34 fe ff ff    	mov    %eax,-0x1cc(%rbp)
    e21e:	8b 85 34 fe ff ff    	mov    -0x1cc(%rbp),%eax
    e224:	89 c2                	mov    %eax,%edx
    e226:	0f b7 85 1a fe ff ff 	movzwl -0x1e6(%rbp),%eax
    e22d:	21 d0                	and    %edx,%eax
    e22f:	98                   	cwtl   
    e230:	89 de                	mov    %ebx,%esi
    e232:	89 c7                	mov    %eax,%edi
    e234:	e8 2a b3 ff ff       	callq  9563 <safe_rshift_func_int16_t_s_u>
    e239:	b8 01 00 00 00       	mov    $0x1,%eax
    e23e:	89 c2                	mov    %eax,%edx
    e240:	48 8b 85 b0 fe ff ff 	mov    -0x150(%rbp),%rax
    e247:	66 89 10             	mov    %dx,(%rax)
    e24a:	66 c7 05 11 c2 00 00 	movw   $0xfff9,0xc211(%rip)        # 1a464 <g_337>
    e251:	f9 ff 
    e253:	48 8b 85 a0 fe ff ff 	mov    -0x160(%rbp),%rax
    e25a:	8b 00                	mov    (%rax),%eax
    e25c:	8d 48 ff             	lea    -0x1(%rax),%ecx
    e25f:	48 8b 95 a0 fe ff ff 	mov    -0x160(%rbp),%rdx
    e266:	89 0a                	mov    %ecx,(%rdx)
    e268:	85 c0                	test   %eax,%eax
    e26a:	75 24                	jne    e290 <func_58+0x48b>
    e26c:	48 8b 85 a8 fe ff ff 	mov    -0x158(%rbp),%rax
    e273:	8b 00                	mov    (%rax),%eax
    e275:	35 79 3c 14 be       	xor    $0xbe143c79,%eax
    e27a:	89 c2                	mov    %eax,%edx
    e27c:	48 8b 85 a8 fe ff ff 	mov    -0x158(%rbp),%rax
    e283:	89 10                	mov    %edx,(%rax)
    e285:	48 8b 85 a8 fe ff ff 	mov    -0x158(%rbp),%rax
    e28c:	8b 00                	mov    (%rax),%eax
    e28e:	85 c0                	test   %eax,%eax
    e290:	0f be 85 19 fe ff ff 	movsbl -0x1e7(%rbp),%eax
    e297:	39 85 0c fe ff ff    	cmp    %eax,-0x1f4(%rbp)
    e29d:	7e 0c                	jle    e2ab <func_58+0x4a6>
    e29f:	48 b8 bf f4 44 64 d1 	movabs $0xf1b11cd16444f4bf,%rax
    e2a6:	1c b1 f1 
    e2a9:	eb 0a                	jmp    e2b5 <func_58+0x4b0>
    e2ab:	48 b8 be f4 44 64 d1 	movabs $0xf1b11cd16444f4be,%rax
    e2b2:	1c b1 f1 
    e2b5:	8b 95 0c fe ff ff    	mov    -0x1f4(%rbp),%edx
    e2bb:	48 63 d2             	movslq %edx,%rdx
    e2be:	48 39 d0             	cmp    %rdx,%rax
    e2c1:	0f 97 c0             	seta   %al
    e2c4:	0f b6 d0             	movzbl %al,%edx
    e2c7:	48 8b 85 b8 fe ff ff 	mov    -0x148(%rbp),%rax
    e2ce:	89 10                	mov    %edx,(%rax)
    e2d0:	0f b6 05 e9 bf 00 00 	movzbl 0xbfe9(%rip),%eax        # 1a2c0 <g_126>
    e2d7:	0f b6 c0             	movzbl %al,%eax
    e2da:	be 01 00 00 00       	mov    $0x1,%esi
    e2df:	89 c7                	mov    %eax,%edi
    e2e1:	e8 74 b8 ff ff       	callq  9b5a <safe_add_func_uint8_t_u_u>
    e2e6:	88 05 d4 bf 00 00    	mov    %al,0xbfd4(%rip)        # 1a2c0 <g_126>
    e2ec:	0f b6 05 cd bf 00 00 	movzbl 0xbfcd(%rip),%eax        # 1a2c0 <g_126>
    e2f3:	3c 2c                	cmp    $0x2c,%al
    e2f5:	0f 87 97 fd ff ff    	ja     e092 <func_58+0x28d>
    e2fb:	0f b7 05 ba c0 00 00 	movzwl 0xc0ba(%rip),%eax        # 1a3bc <g_256>
    e302:	0f b7 c0             	movzwl %ax,%eax
    e305:	be 05 00 00 00       	mov    $0x5,%esi
    e30a:	48 89 c7             	mov    %rax,%rdi
    e30d:	e8 2f b5 ff ff       	callq  9841 <safe_add_func_int64_t_s_s>
    e312:	66 89 05 a3 c0 00 00 	mov    %ax,0xc0a3(%rip)        # 1a3bc <g_256>
    e319:	0f b7 05 9c c0 00 00 	movzwl 0xc09c(%rip),%eax        # 1a3bc <g_256>
    e320:	66 83 f8 34          	cmp    $0x34,%ax
    e324:	0f 86 48 fd ff ff    	jbe    e072 <func_58+0x26d>
    e32a:	48 83 bd 48 fe ff ff 	cmpq   $0x0,-0x1b8(%rbp)
    e331:	00 
    e332:	0f 94 c0             	sete   %al
    e335:	44 0f b6 e0          	movzbl %al,%r12d
    e339:	8b 85 0c fe ff ff    	mov    -0x1f4(%rbp),%eax
    e33f:	0f bf d8             	movswl %ax,%ebx
    e342:	48 8b 85 78 fe ff ff 	mov    -0x188(%rbp),%rax
    e349:	48 8b 00             	mov    (%rax),%rax
    e34c:	48 8d 50 ff          	lea    -0x1(%rax),%rdx
    e350:	48 8b 85 78 fe ff ff 	mov    -0x188(%rbp),%rax
    e357:	48 89 10             	mov    %rdx,(%rax)
    e35a:	8b 05 ec bc 00 00    	mov    0xbcec(%rip),%eax        # 1a04c <g_6+0xc>
    e360:	85 c0                	test   %eax,%eax
    e362:	8b 05 20 c1 00 00    	mov    0xc120(%rip),%eax        # 1a488 <g_448>
    e368:	39 85 2c fe ff ff    	cmp    %eax,-0x1d4(%rbp)
    e36e:	0f 92 c0             	setb   %al
    e371:	0f b6 c0             	movzbl %al,%eax
    e374:	be 7d 00 00 00       	mov    $0x7d,%esi
    e379:	89 c7                	mov    %eax,%edi
    e37b:	e8 13 b8 ff ff       	callq  9b93 <safe_mul_func_uint8_t_u_u>
    e380:	8b 85 0c fe ff ff    	mov    -0x1f4(%rbp),%eax
    e386:	0f b7 c0             	movzwl %ax,%eax
    e389:	be 8b ae 00 00       	mov    $0xae8b,%esi
    e38e:	89 c7                	mov    %eax,%edi
    e390:	e8 f9 b9 ff ff       	callq  9d8e <safe_div_func_uint16_t_u_u>
    e395:	0f be c0             	movsbl %al,%eax
    e398:	be 02 00 00 00       	mov    $0x2,%esi
    e39d:	89 c7                	mov    %eax,%edi
    e39f:	e8 c8 af ff ff       	callq  936c <safe_rshift_func_int8_t_s_u>
    e3a4:	66 98                	cbtw   
    e3a6:	0f b7 c0             	movzwl %ax,%eax
    e3a9:	be ff ff 00 00       	mov    $0xffff,%esi
    e3ae:	89 c7                	mov    %eax,%edi
    e3b0:	e8 88 b9 ff ff       	callq  9d3d <safe_mul_func_uint16_t_u_u>
    e3b5:	0f b6 45 e4          	movzbl -0x1c(%rbp),%eax
    e3b9:	38 85 19 fe ff ff    	cmp    %al,-0x1e7(%rbp)
    e3bf:	75 06                	jne    e3c7 <func_58+0x5c2>
    e3c1:	0f b6 45 e6          	movzbl -0x1a(%rbp),%eax
    e3c5:	84 c0                	test   %al,%al
    e3c7:	8b 85 0c fe ff ff    	mov    -0x1f4(%rbp),%eax
    e3cd:	48 98                	cltq   
    e3cf:	48 be ce 3e 1a 2e 77 	movabs $0xb46bc5772e1a3ece,%rsi
    e3d6:	c5 6b b4 
    e3d9:	48 89 c7             	mov    %rax,%rdi
    e3dc:	e8 ce bc ff ff       	callq  a0af <safe_div_func_uint64_t_u_u>
    e3e1:	8b 95 0c fe ff ff    	mov    -0x1f4(%rbp),%edx
    e3e7:	48 63 d2             	movslq %edx,%rdx
    e3ea:	48 39 d0             	cmp    %rdx,%rax
    e3ed:	48 8b 85 80 fe ff ff 	mov    -0x180(%rbp),%rax
    e3f4:	48 8d 15 65 c0 00 00 	lea    0xc065(%rip),%rdx        # 1a460 <g_290+0x20>
    e3fb:	48 89 10             	mov    %rdx,(%rax)
    e3fe:	48 8b 85 80 fe ff ff 	mov    -0x180(%rbp),%rax
    e405:	48 8b 00             	mov    (%rax),%rax
    e408:	48 39 85 50 fe ff ff 	cmp    %rax,-0x1b0(%rbp)
    e40f:	0f 95 c0             	setne  %al
    e412:	0f b6 c0             	movzbl %al,%eax
    e415:	48 89 c7             	mov    %rax,%rdi
    e418:	e8 fc bb ff ff       	callq  a019 <safe_unary_minus_func_uint64_t_u>
    e41d:	0f b6 45 e5          	movzbl -0x1b(%rbp),%eax
    e421:	0f be d0             	movsbl %al,%edx
    e424:	8b 85 1c fe ff ff    	mov    -0x1e4(%rbp),%eax
    e42a:	39 c2                	cmp    %eax,%edx
    e42c:	7f 0a                	jg     e438 <func_58+0x633>
    e42e:	8b 85 1c fe ff ff    	mov    -0x1e4(%rbp),%eax
    e434:	85 c0                	test   %eax,%eax
    e436:	74 07                	je     e43f <func_58+0x63a>
    e438:	b8 01 00 00 00       	mov    $0x1,%eax
    e43d:	eb 05                	jmp    e444 <func_58+0x63f>
    e43f:	b8 00 00 00 00       	mov    $0x0,%eax
    e444:	98                   	cwtl   
    e445:	89 de                	mov    %ebx,%esi
    e447:	89 c7                	mov    %eax,%edi
    e449:	e8 c8 af ff ff       	callq  9416 <safe_mod_func_int16_t_s_s>
    e44e:	83 c8 01             	or     $0x1,%eax
    e451:	48 0f bf d0          	movswq %ax,%rdx
    e455:	8b 85 1c fe ff ff    	mov    -0x1e4(%rbp),%eax
    e45b:	48 98                	cltq   
    e45d:	48 21 d0             	and    %rdx,%rax
    e460:	49 39 c4             	cmp    %rax,%r12
    e463:	0f 92 c0             	setb   %al
    e466:	0f b6 d0             	movzbl %al,%edx
    e469:	48 8b 0d 30 04 01 00 	mov    0x10430(%rip),%rcx        # 1e8a0 <g_792+0x20>
    e470:	48 8b 85 70 fe ff ff 	mov    -0x190(%rbp),%rax
    e477:	48 89 08             	mov    %rcx,(%rax)
    e47a:	48 8b 85 70 fe ff ff 	mov    -0x190(%rbp),%rax
    e481:	48 8b 00             	mov    (%rax),%rax
    e484:	48 89 85 40 fe ff ff 	mov    %rax,-0x1c0(%rbp)
    e48b:	48 8b 85 40 fe ff ff 	mov    -0x1c0(%rbp),%rax
    e492:	48 3b 85 60 fe ff ff 	cmp    -0x1a0(%rbp),%rax
    e499:	0f 94 c0             	sete   %al
    e49c:	0f b6 c0             	movzbl %al,%eax
    e49f:	89 d6                	mov    %edx,%esi
    e4a1:	89 c7                	mov    %eax,%edi
    e4a3:	e8 b2 b6 ff ff       	callq  9b5a <safe_add_func_uint8_t_u_u>
    e4a8:	8b 85 0c fe ff ff    	mov    -0x1f4(%rbp),%eax
    e4ae:	39 85 2c fe ff ff    	cmp    %eax,-0x1d4(%rbp)
    e4b4:	0f 93 c0             	setae  %al
    e4b7:	89 c2                	mov    %eax,%edx
    e4b9:	48 8b 85 90 fe ff ff 	mov    -0x170(%rbp),%rax
    e4c0:	88 10                	mov    %dl,(%rax)
    e4c2:	48 8b 85 90 fe ff ff 	mov    -0x170(%rbp),%rax
    e4c9:	0f b6 00             	movzbl (%rax),%eax
    e4cc:	0f be c0             	movsbl %al,%eax
    e4cf:	be 02 00 00 00       	mov    $0x2,%esi
    e4d4:	89 c7                	mov    %eax,%edi
    e4d6:	e8 c6 ad ff ff       	callq  92a1 <safe_lshift_func_int8_t_s_s>
    e4db:	0f be d0             	movsbl %al,%edx
    e4de:	8b 85 0c fe ff ff    	mov    -0x1f4(%rbp),%eax
    e4e4:	0f b6 c0             	movzbl %al,%eax
    e4e7:	89 d6                	mov    %edx,%esi
    e4e9:	89 c7                	mov    %eax,%edi
    e4eb:	e8 5c b7 ff ff       	callq  9c4c <safe_lshift_func_uint8_t_u_u>
    e4f0:	48 8b 95 98 fe ff ff 	mov    -0x168(%rbp),%rdx
    e4f7:	88 02                	mov    %al,(%rdx)
    e4f9:	48 8b 85 98 fe ff ff 	mov    -0x168(%rbp),%rax
    e500:	0f b6 00             	movzbl (%rax),%eax
    e503:	0f b6 d0             	movzbl %al,%edx
    e506:	8b 05 94 bf 00 00    	mov    0xbf94(%rip),%eax        # 1a4a0 <g_650>
    e50c:	39 c2                	cmp    %eax,%edx
    e50e:	0f b6 45 e6          	movzbl -0x1a(%rbp),%eax
    e512:	0f be c0             	movsbl %al,%eax
    e515:	89 85 0c fe ff ff    	mov    %eax,-0x1f4(%rbp)
    e51b:	8b 85 0c fe ff ff    	mov    -0x1f4(%rbp),%eax
    e521:	89 85 1c fe ff ff    	mov    %eax,-0x1e4(%rbp)
    e527:	8b 05 c5 bf 00 00    	mov    0xbfc5(%rip),%eax        # 1a4f2 <g_654+0x12>
    e52d:	83 c0 01             	add    $0x1,%eax
    e530:	89 05 bc bf 00 00    	mov    %eax,0xbfbc(%rip)        # 1a4f2 <g_654+0x12>
    e536:	8b 05 b6 bf 00 00    	mov    0xbfb6(%rip),%eax        # 1a4f2 <g_654+0x12>
    e53c:	83 f8 20             	cmp    $0x20,%eax
    e53f:	0f 87 43 f9 ff ff    	ja     de88 <func_58+0x83>
    e545:	48 8b 85 58 fe ff ff 	mov    -0x1a8(%rbp),%rax
    e54c:	48 8b 4d e8          	mov    -0x18(%rbp),%rcx
    e550:	64 48 33 0c 25 28 00 	xor    %fs:0x28,%rcx
    e557:	00 00 
    e559:	74 05                	je     e560 <func_58+0x75b>
    e55b:	e8 10 ab ff ff       	callq  9070 <__stack_chk_fail@plt>
    e560:	48 81 c4 f0 01 00 00 	add    $0x1f0,%rsp
    e567:	5b                   	pop    %rbx
    e568:	41 5c                	pop    %r12
    e56a:	5d                   	pop    %rbp
    e56b:	c3                   	retq   

000000000000e56c <func_60>:
    e56c:	f3 0f 1e fa          	endbr64 
    e570:	55                   	push   %rbp
    e571:	48 89 e5             	mov    %rsp,%rbp
    e574:	41 57                	push   %r15
    e576:	41 56                	push   %r14
    e578:	41 55                	push   %r13
    e57a:	41 54                	push   %r12
    e57c:	53                   	push   %rbx
    e57d:	48 83 ec 38          	sub    $0x38,%rsp
    e581:	48 89 7d a8          	mov    %rdi,-0x58(%rbp)
    e585:	c7 45 bc 01 00 00 00 	movl   $0x1,-0x44(%rbp)
    e58c:	48 8d 05 b9 ba 00 00 	lea    0xbab9(%rip),%rax        # 1a04c <g_6+0xc>
    e593:	48 89 45 c0          	mov    %rax,-0x40(%rbp)
    e597:	48 8d 05 8a bb 00 00 	lea    0xbb8a(%rip),%rax        # 1a128 <g_95>
    e59e:	48 89 45 c8          	mov    %rax,-0x38(%rbp)
    e5a2:	8b 05 0a bf 00 00    	mov    0xbf0a(%rip),%eax        # 1a4b2 <g_650+0x12>
    e5a8:	0f b7 d8             	movzwl %ax,%ebx
    e5ab:	48 8b 45 a8          	mov    -0x58(%rbp),%rax
    e5af:	44 0f bf e8          	movswl %ax,%r13d
    e5b3:	48 8b 45 a8          	mov    -0x58(%rbp),%rax
    e5b7:	44 0f b6 e0          	movzbl %al,%r12d
    e5bb:	44 8b 75 bc          	mov    -0x44(%rbp),%r14d
    e5bf:	48 8b 45 a8          	mov    -0x58(%rbp),%rax
    e5c3:	41 89 c7             	mov    %eax,%r15d
    e5c6:	48 83 7d a8 00       	cmpq   $0x0,-0x58(%rbp)
    e5cb:	75 2a                	jne    e5f7 <func_60+0x8b>
    e5cd:	8b 45 bc             	mov    -0x44(%rbp),%eax
    e5d0:	98                   	cwtl   
    e5d1:	be 01 00 00 00       	mov    $0x1,%esi
    e5d6:	89 c7                	mov    %eax,%edi
    e5d8:	e8 86 af ff ff       	callq  9563 <safe_rshift_func_int16_t_s_u>
    e5dd:	48 8b 45 a8          	mov    -0x58(%rbp),%rax
    e5e1:	89 c6                	mov    %eax,%esi
    e5e3:	bf f1 27 00 00       	mov    $0x27f1,%edi
    e5e8:	e8 a5 ae ff ff       	callq  9492 <safe_lshift_func_int16_t_s_s>
    e5ed:	48 0f bf c0          	movswq %ax,%rax
    e5f1:	48 39 45 a8          	cmp    %rax,-0x58(%rbp)
    e5f5:	73 07                	jae    e5fe <func_60+0x92>
    e5f7:	b8 01 00 00 00       	mov    $0x1,%eax
    e5fc:	eb 05                	jmp    e603 <func_60+0x97>
    e5fe:	b8 00 00 00 00       	mov    $0x0,%eax
    e603:	0f b6 c0             	movzbl %al,%eax
    e606:	be a2 00 00 00       	mov    $0xa2,%esi
    e60b:	89 c7                	mov    %eax,%edi
    e60d:	e8 81 b5 ff ff       	callq  9b93 <safe_mul_func_uint8_t_u_u>
    e612:	48 83 7d a8 00       	cmpq   $0x0,-0x58(%rbp)
    e617:	74 0d                	je     e626 <func_60+0xba>
    e619:	83 7d bc 00          	cmpl   $0x0,-0x44(%rbp)
    e61d:	74 07                	je     e626 <func_60+0xba>
    e61f:	b8 01 00 00 00       	mov    $0x1,%eax
    e624:	eb 05                	jmp    e62b <func_60+0xbf>
    e626:	b8 00 00 00 00       	mov    $0x0,%eax
    e62b:	48 98                	cltq   
    e62d:	48 be 68 a7 a3 29 1f 	movabs $0x9c36de1f29a3a768,%rsi
    e634:	de 36 9c 
    e637:	48 89 c7             	mov    %rax,%rdi
    e63a:	e8 b8 b3 ff ff       	callq  99f7 <safe_div_func_int64_t_s_s>
    e63f:	8b 05 d7 ba 00 00    	mov    0xbad7(%rip),%eax        # 1a11c <g_25>
    e645:	98                   	cwtl   
    e646:	48 8d 15 cf ba 00 00 	lea    0xbacf(%rip),%rdx        # 1a11c <g_25>
    e64d:	44 89 fe             	mov    %r15d,%esi
    e650:	89 c7                	mov    %eax,%edi
    e652:	e8 28 01 00 00       	callq  e77f <func_76>
    e657:	85 c0                	test   %eax,%eax
    e659:	74 07                	je     e662 <func_60+0xf6>
    e65b:	b8 01 00 00 00       	mov    $0x1,%eax
    e660:	eb 05                	jmp    e667 <func_60+0xfb>
    e662:	b8 00 00 00 00       	mov    $0x0,%eax
    e667:	39 45 bc             	cmp    %eax,-0x44(%rbp)
    e66a:	4c 89 f6             	mov    %r14,%rsi
    e66d:	bf 00 00 00 00       	mov    $0x0,%edi
    e672:	e8 b7 b9 ff ff       	callq  a02e <safe_add_func_uint64_t_u_u>
    e677:	48 89 c2             	mov    %rax,%rdx
    e67a:	48 8b 45 a8          	mov    -0x58(%rbp),%rax
    e67e:	48 89 05 9b ba 00 00 	mov    %rax,0xba9b(%rip)        # 1a120 <g_73>
    e685:	48 8b 05 94 ba 00 00 	mov    0xba94(%rip),%rax        # 1a120 <g_73>
    e68c:	48 89 d6             	mov    %rdx,%rsi
    e68f:	48 89 c7             	mov    %rax,%rdi
    e692:	e8 1d b3 ff ff       	callq  99b4 <safe_mod_func_int64_t_s_s>
    e697:	89 c7                	mov    %eax,%edi
    e699:	48 8b 45 c0          	mov    -0x40(%rbp),%rax
    e69d:	44 89 e9             	mov    %r13d,%ecx
    e6a0:	48 89 c2             	mov    %rax,%rdx
    e6a3:	44 89 e6             	mov    %r12d,%esi
    e6a6:	e8 38 00 00 00       	callq  e6e3 <func_66>
    e6ab:	0f b7 c0             	movzwl %ax,%eax
    e6ae:	89 de                	mov    %ebx,%esi
    e6b0:	89 c7                	mov    %eax,%edi
    e6b2:	e8 d7 b6 ff ff       	callq  9d8e <safe_div_func_uint16_t_u_u>
    e6b7:	0f b7 d0             	movzwl %ax,%edx
    e6ba:	48 8b 45 c0          	mov    -0x40(%rbp),%rax
    e6be:	8b 00                	mov    (%rax),%eax
    e6c0:	39 c2                	cmp    %eax,%edx
    e6c2:	0f 9c c0             	setl   %al
    e6c5:	0f b6 d0             	movzbl %al,%edx
    e6c8:	48 8b 45 c8          	mov    -0x38(%rbp),%rax
    e6cc:	89 10                	mov    %edx,(%rax)
    e6ce:	48 8b 45 c0          	mov    -0x40(%rbp),%rax
    e6d2:	8b 00                	mov    (%rax),%eax
    e6d4:	48 83 c4 38          	add    $0x38,%rsp
    e6d8:	5b                   	pop    %rbx
    e6d9:	41 5c                	pop    %r12
    e6db:	41 5d                	pop    %r13
    e6dd:	41 5e                	pop    %r14
    e6df:	41 5f                	pop    %r15
    e6e1:	5d                   	pop    %rbp
    e6e2:	c3                   	retq   

000000000000e6e3 <func_66>:
    e6e3:	f3 0f 1e fa          	endbr64 
    e6e7:	55                   	push   %rbp
    e6e8:	48 89 e5             	mov    %rsp,%rbp
    e6eb:	48 83 ec 60          	sub    $0x60,%rsp
    e6ef:	89 7d bc             	mov    %edi,-0x44(%rbp)
    e6f2:	48 89 55 b0          	mov    %rdx,-0x50(%rbp)
    e6f6:	89 c8                	mov    %ecx,%eax
    e6f8:	89 f2                	mov    %esi,%edx
    e6fa:	88 55 b8             	mov    %dl,-0x48(%rbp)
    e6fd:	66 89 45 ac          	mov    %ax,-0x54(%rbp)
    e701:	64 48 8b 04 25 28 00 	mov    %fs:0x28,%rax
    e708:	00 00 
    e70a:	48 89 45 f8          	mov    %rax,-0x8(%rbp)
    e70e:	31 c0                	xor    %eax,%eax
    e710:	48 c7 45 d0 00 00 00 	movq   $0x0,-0x30(%rbp)
    e717:	00 
    e718:	48 8d 05 f9 b9 00 00 	lea    0xb9f9(%rip),%rax        # 1a118 <g_20>
    e71f:	48 89 45 d8          	mov    %rax,-0x28(%rbp)
    e723:	48 c7 45 e0 00 00 00 	movq   $0x0,-0x20(%rbp)
    e72a:	00 
    e72b:	48 8d 05 e6 b9 00 00 	lea    0xb9e6(%rip),%rax        # 1a118 <g_20>
    e732:	48 89 45 e8          	mov    %rax,-0x18(%rbp)
    e736:	48 c7 45 f0 00 00 00 	movq   $0x0,-0x10(%rbp)
    e73d:	00 
    e73e:	48 8d 05 9b ec 00 00 	lea    0xec9b(%rip),%rax        # 1d3e0 <g_91>
    e745:	48 89 45 c8          	mov    %rax,-0x38(%rbp)
    e749:	66 c7 45 c6 9c fd    	movw   $0xfd9c,-0x3a(%rbp)
    e74f:	48 8b 55 f0          	mov    -0x10(%rbp),%rdx
    e753:	48 8b 45 c8          	mov    -0x38(%rbp),%rax
    e757:	48 89 10             	mov    %rdx,(%rax)
    e75a:	0f b7 45 c6          	movzwl -0x3a(%rbp),%eax
    e75e:	83 e8 01             	sub    $0x1,%eax
    e761:	66 89 45 c6          	mov    %ax,-0x3a(%rbp)
    e765:	0f b6 45 b8          	movzbl -0x48(%rbp),%eax
    e769:	48 8b 4d f8          	mov    -0x8(%rbp),%rcx
    e76d:	64 48 33 0c 25 28 00 	xor    %fs:0x28,%rcx
    e774:	00 00 
    e776:	74 05                	je     e77d <func_66+0x9a>
    e778:	e8 f3 a8 ff ff       	callq  9070 <__stack_chk_fail@plt>
    e77d:	c9                   	leaveq 
    e77e:	c3                   	retq   

000000000000e77f <func_76>:
    e77f:	f3 0f 1e fa          	endbr64 
    e783:	55                   	push   %rbp
    e784:	48 89 e5             	mov    %rsp,%rbp
    e787:	41 56                	push   %r14
    e789:	41 55                	push   %r13
    e78b:	41 54                	push   %r12
    e78d:	53                   	push   %rbx
    e78e:	48 81 ec 00 10 00 00 	sub    $0x1000,%rsp
    e795:	48 83 0c 24 00       	orq    $0x0,(%rsp)
    e79a:	48 81 ec 60 0a 00 00 	sub    $0xa60,%rsp
    e7a1:	89 f8                	mov    %edi,%eax
    e7a3:	89 b5 88 e5 ff ff    	mov    %esi,-0x1a78(%rbp)
    e7a9:	48 89 95 80 e5 ff ff 	mov    %rdx,-0x1a80(%rbp)
    e7b0:	66 89 85 8c e5 ff ff 	mov    %ax,-0x1a74(%rbp)
    e7b7:	64 48 8b 04 25 28 00 	mov    %fs:0x28,%rax
    e7be:	00 00 
    e7c0:	48 89 45 d8          	mov    %rax,-0x28(%rbp)
    e7c4:	31 c0                	xor    %eax,%eax
    e7c6:	48 8d 05 5b b9 00 00 	lea    0xb95b(%rip),%rax        # 1a128 <g_95>
    e7cd:	48 89 85 c8 e6 ff ff 	mov    %rax,-0x1938(%rbp)
    e7d4:	c7 85 1c e6 ff ff 8e 	movl   $0x1f3faf8e,-0x19e4(%rbp)
    e7db:	af 3f 1f 
    e7de:	c7 85 b4 e5 ff ff ff 	movl   $0xffffffff,-0x1a4c(%rbp)
    e7e5:	ff ff ff 
    e7e8:	c7 85 80 ea ff ff ba 	movl   $0xbdeca5ba,-0x1580(%rbp)
    e7ef:	a5 ec bd 
    e7f2:	c7 85 84 ea ff ff ba 	movl   $0xbdeca5ba,-0x157c(%rbp)
    e7f9:	a5 ec bd 
    e7fc:	c7 85 88 ea ff ff ba 	movl   $0xbdeca5ba,-0x1578(%rbp)
    e803:	a5 ec bd 
    e806:	c7 85 8c ea ff ff ba 	movl   $0xbdeca5ba,-0x1574(%rbp)
    e80d:	a5 ec bd 
    e810:	c7 85 90 ea ff ff ba 	movl   $0xbdeca5ba,-0x1570(%rbp)
    e817:	a5 ec bd 
    e81a:	c7 85 94 ea ff ff ba 	movl   $0xbdeca5ba,-0x156c(%rbp)
    e821:	a5 ec bd 
    e824:	c7 85 98 ea ff ff ba 	movl   $0xbdeca5ba,-0x1568(%rbp)
    e82b:	a5 ec bd 
    e82e:	c7 85 9c ea ff ff ba 	movl   $0xbdeca5ba,-0x1564(%rbp)
    e835:	a5 ec bd 
    e838:	c7 85 a0 ea ff ff ba 	movl   $0xbdeca5ba,-0x1560(%rbp)
    e83f:	a5 ec bd 
    e842:	c7 85 a4 ea ff ff ba 	movl   $0xbdeca5ba,-0x155c(%rbp)
    e849:	a5 ec bd 
    e84c:	48 c7 85 50 e7 ff ff 	movq   $0x0,-0x18b0(%rbp)
    e853:	00 00 00 00 
    e857:	48 8d 05 82 eb 00 00 	lea    0xeb82(%rip),%rax        # 1d3e0 <g_91>
    e85e:	48 89 85 10 eb ff ff 	mov    %rax,-0x14f0(%rbp)
    e865:	48 8d 05 74 eb 00 00 	lea    0xeb74(%rip),%rax        # 1d3e0 <g_91>
    e86c:	48 89 85 18 eb ff ff 	mov    %rax,-0x14e8(%rbp)
    e873:	48 8d 05 66 eb 00 00 	lea    0xeb66(%rip),%rax        # 1d3e0 <g_91>
    e87a:	48 89 85 20 eb ff ff 	mov    %rax,-0x14e0(%rbp)
    e881:	48 8d 05 58 eb 00 00 	lea    0xeb58(%rip),%rax        # 1d3e0 <g_91>
    e888:	48 89 85 28 eb ff ff 	mov    %rax,-0x14d8(%rbp)
    e88f:	48 8d 05 4a eb 00 00 	lea    0xeb4a(%rip),%rax        # 1d3e0 <g_91>
    e896:	48 89 85 30 eb ff ff 	mov    %rax,-0x14d0(%rbp)
    e89d:	48 8d 05 3c eb 00 00 	lea    0xeb3c(%rip),%rax        # 1d3e0 <g_91>
    e8a4:	48 89 85 38 eb ff ff 	mov    %rax,-0x14c8(%rbp)
    e8ab:	48 8d 05 2e eb 00 00 	lea    0xeb2e(%rip),%rax        # 1d3e0 <g_91>
    e8b2:	48 89 85 40 eb ff ff 	mov    %rax,-0x14c0(%rbp)
    e8b9:	48 8d 85 10 eb ff ff 	lea    -0x14f0(%rbp),%rax
    e8c0:	48 83 c0 18          	add    $0x18,%rax
    e8c4:	48 89 85 00 ea ff ff 	mov    %rax,-0x1600(%rbp)
    e8cb:	48 8d 85 10 eb ff ff 	lea    -0x14f0(%rbp),%rax
    e8d2:	48 83 c0 18          	add    $0x18,%rax
    e8d6:	48 89 85 08 ea ff ff 	mov    %rax,-0x15f8(%rbp)
    e8dd:	48 8d 85 10 eb ff ff 	lea    -0x14f0(%rbp),%rax
    e8e4:	48 83 c0 18          	add    $0x18,%rax
    e8e8:	48 89 85 10 ea ff ff 	mov    %rax,-0x15f0(%rbp)
    e8ef:	48 8d 85 10 eb ff ff 	lea    -0x14f0(%rbp),%rax
    e8f6:	48 83 c0 18          	add    $0x18,%rax
    e8fa:	48 89 85 18 ea ff ff 	mov    %rax,-0x15e8(%rbp)
    e901:	c7 85 20 ea ff ff c6 	movl   $0xa547c4c6,-0x15e0(%rbp)
    e908:	c4 47 a5 
    e90b:	c7 85 24 ea ff ff 01 	movl   $0x1,-0x15dc(%rbp)
    e912:	00 00 00 
    e915:	c7 85 28 ea ff ff 01 	movl   $0x1,-0x15d8(%rbp)
    e91c:	00 00 00 
    e91f:	c7 85 2c ea ff ff c6 	movl   $0xa547c4c6,-0x15d4(%rbp)
    e926:	c4 47 a5 
    e929:	c7 85 30 ea ff ff 01 	movl   $0x1,-0x15d0(%rbp)
    e930:	00 00 00 
    e933:	c7 85 34 ea ff ff 01 	movl   $0x1,-0x15cc(%rbp)
    e93a:	00 00 00 
    e93d:	c7 85 38 ea ff ff c6 	movl   $0xa547c4c6,-0x15c8(%rbp)
    e944:	c4 47 a5 
    e947:	c7 85 3c ea ff ff 01 	movl   $0x1,-0x15c4(%rbp)
    e94e:	00 00 00 
    e951:	48 8d 05 d4 b7 00 00 	lea    0xb7d4(%rip),%rax        # 1a12c <g_112>
    e958:	48 89 85 d0 e6 ff ff 	mov    %rax,-0x1930(%rbp)
    e95f:	48 8d 85 d0 e6 ff ff 	lea    -0x1930(%rbp),%rax
    e966:	48 89 85 d8 e6 ff ff 	mov    %rax,-0x1928(%rbp)
    e96d:	48 8d 85 d8 e6 ff ff 	lea    -0x1928(%rbp),%rax
    e974:	48 89 85 90 f0 ff ff 	mov    %rax,-0xf70(%rbp)
    e97b:	48 8d 85 d8 e6 ff ff 	lea    -0x1928(%rbp),%rax
    e982:	48 89 85 98 f0 ff ff 	mov    %rax,-0xf68(%rbp)
    e989:	48 8d 85 d8 e6 ff ff 	lea    -0x1928(%rbp),%rax
    e990:	48 89 85 a0 f0 ff ff 	mov    %rax,-0xf60(%rbp)
    e997:	48 8d 85 d8 e6 ff ff 	lea    -0x1928(%rbp),%rax
    e99e:	48 89 85 a8 f0 ff ff 	mov    %rax,-0xf58(%rbp)
    e9a5:	48 8d 85 d8 e6 ff ff 	lea    -0x1928(%rbp),%rax
    e9ac:	48 89 85 b0 f0 ff ff 	mov    %rax,-0xf50(%rbp)
    e9b3:	48 8d 85 d8 e6 ff ff 	lea    -0x1928(%rbp),%rax
    e9ba:	48 89 85 b8 f0 ff ff 	mov    %rax,-0xf48(%rbp)
    e9c1:	48 c7 85 c0 f0 ff ff 	movq   $0x0,-0xf40(%rbp)
    e9c8:	00 00 00 00 
    e9cc:	48 c7 85 c8 f0 ff ff 	movq   $0x0,-0xf38(%rbp)
    e9d3:	00 00 00 00 
    e9d7:	48 8d 85 d8 e6 ff ff 	lea    -0x1928(%rbp),%rax
    e9de:	48 89 85 d0 f0 ff ff 	mov    %rax,-0xf30(%rbp)
    e9e5:	48 8d 85 d8 e6 ff ff 	lea    -0x1928(%rbp),%rax
    e9ec:	48 89 85 d8 f0 ff ff 	mov    %rax,-0xf28(%rbp)
    e9f3:	48 8d 85 d8 e6 ff ff 	lea    -0x1928(%rbp),%rax
    e9fa:	48 89 85 e0 f0 ff ff 	mov    %rax,-0xf20(%rbp)
    ea01:	48 8d 85 d8 e6 ff ff 	lea    -0x1928(%rbp),%rax
    ea08:	48 89 85 e8 f0 ff ff 	mov    %rax,-0xf18(%rbp)
    ea0f:	48 8d 85 d8 e6 ff ff 	lea    -0x1928(%rbp),%rax
    ea16:	48 89 85 f0 f0 ff ff 	mov    %rax,-0xf10(%rbp)
    ea1d:	48 8d 85 d8 e6 ff ff 	lea    -0x1928(%rbp),%rax
    ea24:	48 89 85 f8 f0 ff ff 	mov    %rax,-0xf08(%rbp)
    ea2b:	48 8d 85 d8 e6 ff ff 	lea    -0x1928(%rbp),%rax
    ea32:	48 89 85 00 f1 ff ff 	mov    %rax,-0xf00(%rbp)
    ea39:	48 8d 85 d8 e6 ff ff 	lea    -0x1928(%rbp),%rax
    ea40:	48 89 85 08 f1 ff ff 	mov    %rax,-0xef8(%rbp)
    ea47:	48 8d 85 d8 e6 ff ff 	lea    -0x1928(%rbp),%rax
    ea4e:	48 89 85 10 f1 ff ff 	mov    %rax,-0xef0(%rbp)
    ea55:	48 8d 85 d8 e6 ff ff 	lea    -0x1928(%rbp),%rax
    ea5c:	48 89 85 18 f1 ff ff 	mov    %rax,-0xee8(%rbp)
    ea63:	48 8d 85 d8 e6 ff ff 	lea    -0x1928(%rbp),%rax
    ea6a:	48 89 85 20 f1 ff ff 	mov    %rax,-0xee0(%rbp)
    ea71:	48 8d 85 d8 e6 ff ff 	lea    -0x1928(%rbp),%rax
    ea78:	48 89 85 28 f1 ff ff 	mov    %rax,-0xed8(%rbp)
    ea7f:	48 8d 85 d8 e6 ff ff 	lea    -0x1928(%rbp),%rax
    ea86:	48 89 85 30 f1 ff ff 	mov    %rax,-0xed0(%rbp)
    ea8d:	48 c7 85 38 f1 ff ff 	movq   $0x0,-0xec8(%rbp)
    ea94:	00 00 00 00 
    ea98:	48 8d 85 d8 e6 ff ff 	lea    -0x1928(%rbp),%rax
    ea9f:	48 89 85 40 f1 ff ff 	mov    %rax,-0xec0(%rbp)
    eaa6:	48 8d 85 d8 e6 ff ff 	lea    -0x1928(%rbp),%rax
    eaad:	48 89 85 48 f1 ff ff 	mov    %rax,-0xeb8(%rbp)
    eab4:	48 8d 85 d8 e6 ff ff 	lea    -0x1928(%rbp),%rax
    eabb:	48 89 85 50 f1 ff ff 	mov    %rax,-0xeb0(%rbp)
    eac2:	48 8d 85 d8 e6 ff ff 	lea    -0x1928(%rbp),%rax
    eac9:	48 89 85 58 f1 ff ff 	mov    %rax,-0xea8(%rbp)
    ead0:	48 8d 85 d8 e6 ff ff 	lea    -0x1928(%rbp),%rax
    ead7:	48 89 85 60 f1 ff ff 	mov    %rax,-0xea0(%rbp)
    eade:	48 8d 85 d8 e6 ff ff 	lea    -0x1928(%rbp),%rax
    eae5:	48 89 85 68 f1 ff ff 	mov    %rax,-0xe98(%rbp)
    eaec:	48 8d 85 d8 e6 ff ff 	lea    -0x1928(%rbp),%rax
    eaf3:	48 89 85 70 f1 ff ff 	mov    %rax,-0xe90(%rbp)
    eafa:	48 8d 85 d8 e6 ff ff 	lea    -0x1928(%rbp),%rax
    eb01:	48 89 85 78 f1 ff ff 	mov    %rax,-0xe88(%rbp)
    eb08:	48 8d 85 d8 e6 ff ff 	lea    -0x1928(%rbp),%rax
    eb0f:	48 89 85 80 f1 ff ff 	mov    %rax,-0xe80(%rbp)
    eb16:	48 8d 85 d8 e6 ff ff 	lea    -0x1928(%rbp),%rax
    eb1d:	48 89 85 88 f1 ff ff 	mov    %rax,-0xe78(%rbp)
    eb24:	48 8d 85 d8 e6 ff ff 	lea    -0x1928(%rbp),%rax
    eb2b:	48 89 85 90 f1 ff ff 	mov    %rax,-0xe70(%rbp)
    eb32:	48 8d 85 d8 e6 ff ff 	lea    -0x1928(%rbp),%rax
    eb39:	48 89 85 98 f1 ff ff 	mov    %rax,-0xe68(%rbp)
    eb40:	48 8d 85 d8 e6 ff ff 	lea    -0x1928(%rbp),%rax
    eb47:	48 89 85 a0 f1 ff ff 	mov    %rax,-0xe60(%rbp)
    eb4e:	48 8d 85 d8 e6 ff ff 	lea    -0x1928(%rbp),%rax
    eb55:	48 89 85 a8 f1 ff ff 	mov    %rax,-0xe58(%rbp)
    eb5c:	48 8d 85 d8 e6 ff ff 	lea    -0x1928(%rbp),%rax
    eb63:	48 89 85 b0 f1 ff ff 	mov    %rax,-0xe50(%rbp)
    eb6a:	48 8d 85 d8 e6 ff ff 	lea    -0x1928(%rbp),%rax
    eb71:	48 89 85 b8 f1 ff ff 	mov    %rax,-0xe48(%rbp)
    eb78:	48 8d 85 d8 e6 ff ff 	lea    -0x1928(%rbp),%rax
    eb7f:	48 89 85 c0 f1 ff ff 	mov    %rax,-0xe40(%rbp)
    eb86:	48 c7 85 c8 f1 ff ff 	movq   $0x0,-0xe38(%rbp)
    eb8d:	00 00 00 00 
    eb91:	48 8d 85 d8 e6 ff ff 	lea    -0x1928(%rbp),%rax
    eb98:	48 89 85 d0 f1 ff ff 	mov    %rax,-0xe30(%rbp)
    eb9f:	48 8d 85 d8 e6 ff ff 	lea    -0x1928(%rbp),%rax
    eba6:	48 89 85 d8 f1 ff ff 	mov    %rax,-0xe28(%rbp)
    ebad:	48 c7 85 e0 f1 ff ff 	movq   $0x0,-0xe20(%rbp)
    ebb4:	00 00 00 00 
    ebb8:	48 8d 85 d8 e6 ff ff 	lea    -0x1928(%rbp),%rax
    ebbf:	48 89 85 e8 f1 ff ff 	mov    %rax,-0xe18(%rbp)
    ebc6:	48 8d 85 d8 e6 ff ff 	lea    -0x1928(%rbp),%rax
    ebcd:	48 89 85 f0 f1 ff ff 	mov    %rax,-0xe10(%rbp)
    ebd4:	48 8d 85 d8 e6 ff ff 	lea    -0x1928(%rbp),%rax
    ebdb:	48 89 85 f8 f1 ff ff 	mov    %rax,-0xe08(%rbp)
    ebe2:	48 8d 85 d8 e6 ff ff 	lea    -0x1928(%rbp),%rax
    ebe9:	48 89 85 00 f2 ff ff 	mov    %rax,-0xe00(%rbp)
    ebf0:	48 8d 85 d8 e6 ff ff 	lea    -0x1928(%rbp),%rax
    ebf7:	48 89 85 08 f2 ff ff 	mov    %rax,-0xdf8(%rbp)
    ebfe:	48 8d 85 d8 e6 ff ff 	lea    -0x1928(%rbp),%rax
    ec05:	48 89 85 10 f2 ff ff 	mov    %rax,-0xdf0(%rbp)
    ec0c:	48 8d 85 d8 e6 ff ff 	lea    -0x1928(%rbp),%rax
    ec13:	48 89 85 18 f2 ff ff 	mov    %rax,-0xde8(%rbp)
    ec1a:	48 8d 85 d8 e6 ff ff 	lea    -0x1928(%rbp),%rax
    ec21:	48 89 85 20 f2 ff ff 	mov    %rax,-0xde0(%rbp)
    ec28:	48 8d 85 d8 e6 ff ff 	lea    -0x1928(%rbp),%rax
    ec2f:	48 89 85 28 f2 ff ff 	mov    %rax,-0xdd8(%rbp)
    ec36:	48 8d 85 d8 e6 ff ff 	lea    -0x1928(%rbp),%rax
    ec3d:	48 89 85 30 f2 ff ff 	mov    %rax,-0xdd0(%rbp)
    ec44:	48 8d 85 d8 e6 ff ff 	lea    -0x1928(%rbp),%rax
    ec4b:	48 89 85 38 f2 ff ff 	mov    %rax,-0xdc8(%rbp)
    ec52:	48 c7 85 40 f2 ff ff 	movq   $0x0,-0xdc0(%rbp)
    ec59:	00 00 00 00 
    ec5d:	48 8d 85 d8 e6 ff ff 	lea    -0x1928(%rbp),%rax
    ec64:	48 89 85 48 f2 ff ff 	mov    %rax,-0xdb8(%rbp)
    ec6b:	48 8d 85 d8 e6 ff ff 	lea    -0x1928(%rbp),%rax
    ec72:	48 89 85 50 f2 ff ff 	mov    %rax,-0xdb0(%rbp)
    ec79:	48 c7 85 58 f2 ff ff 	movq   $0x0,-0xda8(%rbp)
    ec80:	00 00 00 00 
    ec84:	48 c7 85 60 f2 ff ff 	movq   $0x0,-0xda0(%rbp)
    ec8b:	00 00 00 00 
    ec8f:	48 8d 85 d8 e6 ff ff 	lea    -0x1928(%rbp),%rax
    ec96:	48 89 85 68 f2 ff ff 	mov    %rax,-0xd98(%rbp)
    ec9d:	48 8d 85 d8 e6 ff ff 	lea    -0x1928(%rbp),%rax
    eca4:	48 89 85 70 f2 ff ff 	mov    %rax,-0xd90(%rbp)
    ecab:	48 8d 85 d8 e6 ff ff 	lea    -0x1928(%rbp),%rax
    ecb2:	48 89 85 78 f2 ff ff 	mov    %rax,-0xd88(%rbp)
    ecb9:	48 8d 85 d8 e6 ff ff 	lea    -0x1928(%rbp),%rax
    ecc0:	48 89 85 80 f2 ff ff 	mov    %rax,-0xd80(%rbp)
    ecc7:	48 8d 85 d8 e6 ff ff 	lea    -0x1928(%rbp),%rax
    ecce:	48 89 85 88 f2 ff ff 	mov    %rax,-0xd78(%rbp)
    ecd5:	48 8d 85 d8 e6 ff ff 	lea    -0x1928(%rbp),%rax
    ecdc:	48 89 85 90 f2 ff ff 	mov    %rax,-0xd70(%rbp)
    ece3:	48 8d 85 d8 e6 ff ff 	lea    -0x1928(%rbp),%rax
    ecea:	48 89 85 98 f2 ff ff 	mov    %rax,-0xd68(%rbp)
    ecf1:	48 8d 85 d8 e6 ff ff 	lea    -0x1928(%rbp),%rax
    ecf8:	48 89 85 a0 f2 ff ff 	mov    %rax,-0xd60(%rbp)
    ecff:	48 8d 85 d8 e6 ff ff 	lea    -0x1928(%rbp),%rax
    ed06:	48 89 85 a8 f2 ff ff 	mov    %rax,-0xd58(%rbp)
    ed0d:	48 8d 85 d8 e6 ff ff 	lea    -0x1928(%rbp),%rax
    ed14:	48 89 85 b0 f2 ff ff 	mov    %rax,-0xd50(%rbp)
    ed1b:	48 8d 85 d8 e6 ff ff 	lea    -0x1928(%rbp),%rax
    ed22:	48 89 85 b8 f2 ff ff 	mov    %rax,-0xd48(%rbp)
    ed29:	48 8d 85 d8 e6 ff ff 	lea    -0x1928(%rbp),%rax
    ed30:	48 89 85 c0 f2 ff ff 	mov    %rax,-0xd40(%rbp)
    ed37:	48 8d 85 d8 e6 ff ff 	lea    -0x1928(%rbp),%rax
    ed3e:	48 89 85 c8 f2 ff ff 	mov    %rax,-0xd38(%rbp)
    ed45:	48 8d 85 d8 e6 ff ff 	lea    -0x1928(%rbp),%rax
    ed4c:	48 89 85 d0 f2 ff ff 	mov    %rax,-0xd30(%rbp)
    ed53:	48 8d 85 d8 e6 ff ff 	lea    -0x1928(%rbp),%rax
    ed5a:	48 89 85 d8 f2 ff ff 	mov    %rax,-0xd28(%rbp)
    ed61:	48 8d 85 d8 e6 ff ff 	lea    -0x1928(%rbp),%rax
    ed68:	48 89 85 e0 f2 ff ff 	mov    %rax,-0xd20(%rbp)
    ed6f:	48 c7 85 e8 f2 ff ff 	movq   $0x0,-0xd18(%rbp)
    ed76:	00 00 00 00 
    ed7a:	48 8d 85 d8 e6 ff ff 	lea    -0x1928(%rbp),%rax
    ed81:	48 89 85 f0 f2 ff ff 	mov    %rax,-0xd10(%rbp)
    ed88:	48 8d 85 d8 e6 ff ff 	lea    -0x1928(%rbp),%rax
    ed8f:	48 89 85 f8 f2 ff ff 	mov    %rax,-0xd08(%rbp)
    ed96:	48 8d 85 d8 e6 ff ff 	lea    -0x1928(%rbp),%rax
    ed9d:	48 89 85 00 f3 ff ff 	mov    %rax,-0xd00(%rbp)
    eda4:	48 8d 85 d8 e6 ff ff 	lea    -0x1928(%rbp),%rax
    edab:	48 89 85 08 f3 ff ff 	mov    %rax,-0xcf8(%rbp)
    edb2:	48 8d 85 d8 e6 ff ff 	lea    -0x1928(%rbp),%rax
    edb9:	48 89 85 10 f3 ff ff 	mov    %rax,-0xcf0(%rbp)
    edc0:	48 8d 85 d8 e6 ff ff 	lea    -0x1928(%rbp),%rax
    edc7:	48 89 85 18 f3 ff ff 	mov    %rax,-0xce8(%rbp)
    edce:	48 8d 85 d8 e6 ff ff 	lea    -0x1928(%rbp),%rax
    edd5:	48 89 85 20 f3 ff ff 	mov    %rax,-0xce0(%rbp)
    eddc:	48 8d 85 d8 e6 ff ff 	lea    -0x1928(%rbp),%rax
    ede3:	48 89 85 28 f3 ff ff 	mov    %rax,-0xcd8(%rbp)
    edea:	48 8d 85 d8 e6 ff ff 	lea    -0x1928(%rbp),%rax
    edf1:	48 89 85 30 f3 ff ff 	mov    %rax,-0xcd0(%rbp)
    edf8:	48 8d 85 d8 e6 ff ff 	lea    -0x1928(%rbp),%rax
    edff:	48 89 85 38 f3 ff ff 	mov    %rax,-0xcc8(%rbp)
    ee06:	48 8d 85 d8 e6 ff ff 	lea    -0x1928(%rbp),%rax
    ee0d:	48 89 85 40 f3 ff ff 	mov    %rax,-0xcc0(%rbp)
    ee14:	48 8d 85 d8 e6 ff ff 	lea    -0x1928(%rbp),%rax
    ee1b:	48 89 85 48 f3 ff ff 	mov    %rax,-0xcb8(%rbp)
    ee22:	48 8d 85 d8 e6 ff ff 	lea    -0x1928(%rbp),%rax
    ee29:	48 89 85 50 f3 ff ff 	mov    %rax,-0xcb0(%rbp)
    ee30:	48 8d 85 d8 e6 ff ff 	lea    -0x1928(%rbp),%rax
    ee37:	48 89 85 58 f3 ff ff 	mov    %rax,-0xca8(%rbp)
    ee3e:	48 c7 85 60 f3 ff ff 	movq   $0x0,-0xca0(%rbp)
    ee45:	00 00 00 00 
    ee49:	48 8d 85 d8 e6 ff ff 	lea    -0x1928(%rbp),%rax
    ee50:	48 89 85 68 f3 ff ff 	mov    %rax,-0xc98(%rbp)
    ee57:	48 8d 85 d8 e6 ff ff 	lea    -0x1928(%rbp),%rax
    ee5e:	48 89 85 70 f3 ff ff 	mov    %rax,-0xc90(%rbp)
    ee65:	48 8d 85 d8 e6 ff ff 	lea    -0x1928(%rbp),%rax
    ee6c:	48 89 85 78 f3 ff ff 	mov    %rax,-0xc88(%rbp)
    ee73:	48 8d 85 d8 e6 ff ff 	lea    -0x1928(%rbp),%rax
    ee7a:	48 89 85 80 f3 ff ff 	mov    %rax,-0xc80(%rbp)
    ee81:	48 8d 85 d8 e6 ff ff 	lea    -0x1928(%rbp),%rax
    ee88:	48 89 85 88 f3 ff ff 	mov    %rax,-0xc78(%rbp)
    ee8f:	48 8d 85 d8 e6 ff ff 	lea    -0x1928(%rbp),%rax
    ee96:	48 89 85 90 f3 ff ff 	mov    %rax,-0xc70(%rbp)
    ee9d:	48 8d 85 d8 e6 ff ff 	lea    -0x1928(%rbp),%rax
    eea4:	48 89 85 98 f3 ff ff 	mov    %rax,-0xc68(%rbp)
    eeab:	48 8d 85 d8 e6 ff ff 	lea    -0x1928(%rbp),%rax
    eeb2:	48 89 85 a0 f3 ff ff 	mov    %rax,-0xc60(%rbp)
    eeb9:	48 c7 85 a8 f3 ff ff 	movq   $0x0,-0xc58(%rbp)
    eec0:	00 00 00 00 
    eec4:	48 c7 85 b0 f3 ff ff 	movq   $0x0,-0xc50(%rbp)
    eecb:	00 00 00 00 
    eecf:	48 8d 85 d8 e6 ff ff 	lea    -0x1928(%rbp),%rax
    eed6:	48 89 85 b8 f3 ff ff 	mov    %rax,-0xc48(%rbp)
    eedd:	48 8d 85 d8 e6 ff ff 	lea    -0x1928(%rbp),%rax
    eee4:	48 89 85 c0 f3 ff ff 	mov    %rax,-0xc40(%rbp)
    eeeb:	48 8d 85 d8 e6 ff ff 	lea    -0x1928(%rbp),%rax
    eef2:	48 89 85 c8 f3 ff ff 	mov    %rax,-0xc38(%rbp)
    eef9:	48 8d 85 d8 e6 ff ff 	lea    -0x1928(%rbp),%rax
    ef00:	48 89 85 d0 f3 ff ff 	mov    %rax,-0xc30(%rbp)
    ef07:	48 8d 85 d8 e6 ff ff 	lea    -0x1928(%rbp),%rax
    ef0e:	48 89 85 d8 f3 ff ff 	mov    %rax,-0xc28(%rbp)
    ef15:	48 8d 85 d8 e6 ff ff 	lea    -0x1928(%rbp),%rax
    ef1c:	48 89 85 e0 f3 ff ff 	mov    %rax,-0xc20(%rbp)
    ef23:	48 8d 85 d8 e6 ff ff 	lea    -0x1928(%rbp),%rax
    ef2a:	48 89 85 e8 f3 ff ff 	mov    %rax,-0xc18(%rbp)
    ef31:	48 8d 85 d8 e6 ff ff 	lea    -0x1928(%rbp),%rax
    ef38:	48 89 85 f0 f3 ff ff 	mov    %rax,-0xc10(%rbp)
    ef3f:	48 8d 85 d8 e6 ff ff 	lea    -0x1928(%rbp),%rax
    ef46:	48 89 85 f8 f3 ff ff 	mov    %rax,-0xc08(%rbp)
    ef4d:	48 8d 85 d8 e6 ff ff 	lea    -0x1928(%rbp),%rax
    ef54:	48 89 85 00 f4 ff ff 	mov    %rax,-0xc00(%rbp)
    ef5b:	48 c7 85 08 f4 ff ff 	movq   $0x0,-0xbf8(%rbp)
    ef62:	00 00 00 00 
    ef66:	48 8d 85 d8 e6 ff ff 	lea    -0x1928(%rbp),%rax
    ef6d:	48 89 85 10 f4 ff ff 	mov    %rax,-0xbf0(%rbp)
    ef74:	48 8d 85 d8 e6 ff ff 	lea    -0x1928(%rbp),%rax
    ef7b:	48 89 85 18 f4 ff ff 	mov    %rax,-0xbe8(%rbp)
    ef82:	48 c7 85 20 f4 ff ff 	movq   $0x0,-0xbe0(%rbp)
    ef89:	00 00 00 00 
    ef8d:	48 8d 85 d8 e6 ff ff 	lea    -0x1928(%rbp),%rax
    ef94:	48 89 85 28 f4 ff ff 	mov    %rax,-0xbd8(%rbp)
    ef9b:	48 8d 85 d8 e6 ff ff 	lea    -0x1928(%rbp),%rax
    efa2:	48 89 85 30 f4 ff ff 	mov    %rax,-0xbd0(%rbp)
    efa9:	48 8d 85 d8 e6 ff ff 	lea    -0x1928(%rbp),%rax
    efb0:	48 89 85 38 f4 ff ff 	mov    %rax,-0xbc8(%rbp)
    efb7:	48 c7 85 40 f4 ff ff 	movq   $0x0,-0xbc0(%rbp)
    efbe:	00 00 00 00 
    efc2:	48 c7 85 48 f4 ff ff 	movq   $0x0,-0xbb8(%rbp)
    efc9:	00 00 00 00 
    efcd:	48 8d 85 d8 e6 ff ff 	lea    -0x1928(%rbp),%rax
    efd4:	48 89 85 50 f4 ff ff 	mov    %rax,-0xbb0(%rbp)
    efdb:	48 8d 85 d8 e6 ff ff 	lea    -0x1928(%rbp),%rax
    efe2:	48 89 85 58 f4 ff ff 	mov    %rax,-0xba8(%rbp)
    efe9:	48 8d 85 d8 e6 ff ff 	lea    -0x1928(%rbp),%rax
    eff0:	48 89 85 60 f4 ff ff 	mov    %rax,-0xba0(%rbp)
    eff7:	48 8d 85 d8 e6 ff ff 	lea    -0x1928(%rbp),%rax
    effe:	48 89 85 68 f4 ff ff 	mov    %rax,-0xb98(%rbp)
    f005:	48 8d 85 d8 e6 ff ff 	lea    -0x1928(%rbp),%rax
    f00c:	48 89 85 70 f4 ff ff 	mov    %rax,-0xb90(%rbp)
    f013:	48 8d 85 d8 e6 ff ff 	lea    -0x1928(%rbp),%rax
    f01a:	48 89 85 78 f4 ff ff 	mov    %rax,-0xb88(%rbp)
    f021:	c7 85 20 e6 ff ff 00 	movl   $0x0,-0x19e0(%rbp)
    f028:	00 00 00 
    f02b:	c7 85 24 e6 ff ff 6b 	movl   $0x17f3f56b,-0x19dc(%rbp)
    f032:	f5 f3 17 
    f035:	48 8d 05 24 f8 00 00 	lea    0xf824(%rip),%rax        # 1e860 <g_326>
    f03c:	48 89 85 58 e7 ff ff 	mov    %rax,-0x18a8(%rbp)
    f043:	c7 85 14 e6 ff ff 02 	movl   $0x2,-0x19ec(%rbp)
    f04a:	00 00 00 
    f04d:	c6 85 9e e5 ff ff f9 	movb   $0xf9,-0x1a62(%rbp)
    f054:	c7 85 18 e6 ff ff ff 	movl   $0xffffffff,-0x19e8(%rbp)
    f05b:	ff ff ff 
    f05e:	48 c7 85 e0 e6 ff ff 	movq   $0x0,-0x1920(%rbp)
    f065:	00 00 00 00 
    f069:	48 8d 85 e0 e6 ff ff 	lea    -0x1920(%rbp),%rax
    f070:	48 89 85 e8 e6 ff ff 	mov    %rax,-0x1918(%rbp)
    f077:	48 b8 7c 03 ce 9a 9c 	movabs $0x940e899c9ace037c,%rax
    f07e:	89 0e 94 
    f081:	48 89 85 60 e7 ff ff 	mov    %rax,-0x18a0(%rbp)
    f088:	48 8d 85 d0 e9 ff ff 	lea    -0x1630(%rbp),%rax
    f08f:	48 89 85 68 e7 ff ff 	mov    %rax,-0x1898(%rbp)
    f096:	48 c7 85 70 e7 ff ff 	movq   $0x1,-0x1890(%rbp)
    f09d:	01 00 00 00 
    f0a1:	c7 85 e4 e5 ff ff 00 	movl   $0x0,-0x1a1c(%rbp)
    f0a8:	00 00 00 
    f0ab:	48 c7 85 78 e7 ff ff 	movq   $0x0,-0x1888(%rbp)
    f0b2:	00 00 00 00 
    f0b6:	48 8d 05 d3 e3 00 00 	lea    0xe3d3(%rip),%rax        # 1d490 <g_374+0x10>
    f0bd:	48 89 85 80 e7 ff ff 	mov    %rax,-0x1880(%rbp)
    f0c4:	48 c7 85 88 e7 ff ff 	movq   $0x0,-0x1878(%rbp)
    f0cb:	00 00 00 00 
    f0cf:	c7 85 e8 e5 ff ff 00 	movl   $0x0,-0x1a18(%rbp)
    f0d6:	00 00 00 
    f0d9:	eb 1e                	jmp    f0f9 <func_76+0x97a>
    f0db:	8b 85 e8 e5 ff ff    	mov    -0x1a18(%rbp),%eax
    f0e1:	48 98                	cltq   
    f0e3:	48 8d 15 5e f7 00 00 	lea    0xf75e(%rip),%rdx        # 1e848 <g_2>
    f0ea:	48 89 94 c5 b0 ea ff 	mov    %rdx,-0x1550(%rbp,%rax,8)
    f0f1:	ff 
    f0f2:	83 85 e8 e5 ff ff 01 	addl   $0x1,-0x1a18(%rbp)
    f0f9:	83 bd e8 e5 ff ff 04 	cmpl   $0x4,-0x1a18(%rbp)
    f100:	7e d9                	jle    f0db <func_76+0x95c>
    f102:	c7 85 e8 e5 ff ff 00 	movl   $0x0,-0x1a18(%rbp)
    f109:	00 00 00 
    f10c:	eb 49                	jmp    f157 <func_76+0x9d8>
    f10e:	c7 85 ec e5 ff ff 00 	movl   $0x0,-0x1a14(%rbp)
    f115:	00 00 00 
    f118:	eb 2d                	jmp    f147 <func_76+0x9c8>
    f11a:	8b 85 ec e5 ff ff    	mov    -0x1a14(%rbp),%eax
    f120:	48 63 d0             	movslq %eax,%rdx
    f123:	8b 85 e8 e5 ff ff    	mov    -0x1a18(%rbp),%eax
    f129:	48 98                	cltq   
    f12b:	48 01 d0             	add    %rdx,%rax
    f12e:	48 bb 29 29 e4 35 c6 	movabs $0xefb914c635e42929,%rbx
    f135:	14 b9 ef 
    f138:	48 89 9c c5 d0 e9 ff 	mov    %rbx,-0x1630(%rbp,%rax,8)
    f13f:	ff 
    f140:	83 85 ec e5 ff ff 01 	addl   $0x1,-0x1a14(%rbp)
    f147:	83 bd ec e5 ff ff 00 	cmpl   $0x0,-0x1a14(%rbp)
    f14e:	7e ca                	jle    f11a <func_76+0x99b>
    f150:	83 85 e8 e5 ff ff 01 	addl   $0x1,-0x1a18(%rbp)
    f157:	83 bd e8 e5 ff ff 01 	cmpl   $0x1,-0x1a18(%rbp)
    f15e:	7e ae                	jle    f10e <func_76+0x98f>
    f160:	c7 85 e8 e5 ff ff 00 	movl   $0x0,-0x1a18(%rbp)
    f167:	00 00 00 
    f16a:	eb 14                	jmp    f180 <func_76+0xa01>
    f16c:	8b 85 e8 e5 ff ff    	mov    -0x1a18(%rbp),%eax
    f172:	48 98                	cltq   
    f174:	c6 44 05 d6 44       	movb   $0x44,-0x2a(%rbp,%rax,1)
    f179:	83 85 e8 e5 ff ff 01 	addl   $0x1,-0x1a18(%rbp)
    f180:	83 bd e8 e5 ff ff 01 	cmpl   $0x1,-0x1a18(%rbp)
    f187:	7e e3                	jle    f16c <func_76+0x9ed>
    f189:	48 8b 85 80 e5 ff ff 	mov    -0x1a80(%rbp),%rax
    f190:	8b 18                	mov    (%rax),%ebx
    f192:	48 8d 05 b3 ae 00 00 	lea    0xaeb3(%rip),%rax        # 1a04c <g_6+0xc>
    f199:	48 89 05 b0 f6 00 00 	mov    %rax,0xf6b0(%rip)        # 1e850 <g_90>
    f1a0:	48 8d 05 a5 ae 00 00 	lea    0xaea5(%rip),%rax        # 1a04c <g_6+0xc>
    f1a7:	48 89 05 32 e2 00 00 	mov    %rax,0xe232(%rip)        # 1d3e0 <g_91>
    f1ae:	48 8b 85 80 e5 ff ff 	mov    -0x1a80(%rbp),%rax
    f1b5:	8b 00                	mov    (%rax),%eax
    f1b7:	89 c6                	mov    %eax,%esi
    f1b9:	bf 01 00 00 00       	mov    $0x1,%edi
    f1be:	e8 62 ad ff ff       	callq  9f25 <safe_div_func_uint32_t_u_u>
    f1c3:	8b 05 4b af 00 00    	mov    0xaf4b(%rip),%eax        # 1a114 <g_17>
    f1c9:	83 f8 01             	cmp    $0x1,%eax
    f1cc:	0f 9e c0             	setle  %al
    f1cf:	0f b6 c0             	movzbl %al,%eax
    f1d2:	89 de                	mov    %ebx,%esi
    f1d4:	89 c7                	mov    %eax,%edi
    f1d6:	e8 db a3 ff ff       	callq  95b6 <safe_add_func_int32_t_s_s>
    f1db:	b9 00 00 00 00       	mov    $0x0,%ecx
    f1e0:	48 8b 85 c8 e6 ff ff 	mov    -0x1938(%rbp),%rax
    f1e7:	8b 10                	mov    (%rax),%edx
    f1e9:	48 8b 85 c8 e6 ff ff 	mov    -0x1938(%rbp),%rax
    f1f0:	09 ca                	or     %ecx,%edx
    f1f2:	89 10                	mov    %edx,(%rax)
    f1f4:	8b 10                	mov    (%rax),%edx
    f1f6:	8b 05 e4 ae 00 00    	mov    0xaee4(%rip),%eax        # 1a0e0 <g_6+0xa0>
    f1fc:	39 c2                	cmp    %eax,%edx
    f1fe:	0f 95 c0             	setne  %al
    f201:	0f b6 d0             	movzbl %al,%edx
    f204:	48 8b 85 80 e5 ff ff 	mov    -0x1a80(%rbp),%rax
    f20b:	8b 00                	mov    (%rax),%eax
    f20d:	39 c2                	cmp    %eax,%edx
    f20f:	0f 8e a1 21 00 00    	jle    113b6 <func_76+0x2c37>
    f215:	48 8d 05 0c af 00 00 	lea    0xaf0c(%rip),%rax        # 1a128 <g_95>
    f21c:	48 89 85 f8 e7 ff ff 	mov    %rax,-0x1808(%rbp)
    f223:	48 8d 05 b6 e1 00 00 	lea    0xe1b6(%rip),%rax        # 1d3e0 <g_91>
    f22a:	48 89 85 00 e8 ff ff 	mov    %rax,-0x1800(%rbp)
    f231:	48 8d 05 d4 ae 00 00 	lea    0xaed4(%rip),%rax        # 1a10c <g_12>
    f238:	48 89 85 08 e8 ff ff 	mov    %rax,-0x17f8(%rbp)
    f23f:	48 8d 05 c6 ae 00 00 	lea    0xaec6(%rip),%rax        # 1a10c <g_12>
    f246:	48 89 85 f0 e6 ff ff 	mov    %rax,-0x1910(%rbp)
    f24d:	48 8d 85 f0 e6 ff ff 	lea    -0x1910(%rbp),%rax
    f254:	48 89 85 10 e8 ff ff 	mov    %rax,-0x17f0(%rbp)
    f25b:	48 8d 85 c8 e6 ff ff 	lea    -0x1938(%rbp),%rax
    f262:	48 89 85 f8 e6 ff ff 	mov    %rax,-0x1908(%rbp)
    f269:	48 8d 85 f8 e6 ff ff 	lea    -0x1908(%rbp),%rax
    f270:	48 89 85 18 e8 ff ff 	mov    %rax,-0x17e8(%rbp)
    f277:	48 8d 05 ae ae 00 00 	lea    0xaeae(%rip),%rax        # 1a12c <g_112>
    f27e:	48 89 85 00 e7 ff ff 	mov    %rax,-0x1900(%rbp)
    f285:	c7 85 70 e6 ff ff 03 	movl   $0x3,-0x1990(%rbp)
    f28c:	00 00 00 
    f28f:	c7 85 74 e6 ff ff 9b 	movl   $0xb5287a9b,-0x198c(%rbp)
    f296:	7a 28 b5 
    f299:	c7 85 f0 e5 ff ff c1 	movl   $0x2231abc1,-0x1a10(%rbp)
    f2a0:	ab 31 22 
    f2a3:	48 8d 85 d8 e6 ff ff 	lea    -0x1928(%rbp),%rax
    f2aa:	48 89 85 08 e7 ff ff 	mov    %rax,-0x18f8(%rbp)
    f2b1:	48 c7 85 10 e7 ff ff 	movq   $0x0,-0x18f0(%rbp)
    f2b8:	00 00 00 00 
    f2bc:	48 8d 85 10 e7 ff ff 	lea    -0x18f0(%rbp),%rax
    f2c3:	48 89 85 18 e7 ff ff 	mov    %rax,-0x18e8(%rbp)
    f2ca:	48 8d 85 18 e7 ff ff 	lea    -0x18e8(%rbp),%rax
    f2d1:	48 89 85 20 e8 ff ff 	mov    %rax,-0x17e0(%rbp)
    f2d8:	48 8d 05 81 f5 00 00 	lea    0xf581(%rip),%rax        # 1e860 <g_326>
    f2df:	48 89 85 20 e7 ff ff 	mov    %rax,-0x18e0(%rbp)
    f2e6:	48 8d 05 5b af 00 00 	lea    0xaf5b(%rip),%rax        # 1a248 <g_117+0x68>
    f2ed:	48 89 85 28 e7 ff ff 	mov    %rax,-0x18d8(%rbp)
    f2f4:	48 8d 85 28 e7 ff ff 	lea    -0x18d8(%rbp),%rax
    f2fb:	48 89 85 28 e8 ff ff 	mov    %rax,-0x17d8(%rbp)
    f302:	c7 85 78 e6 ff ff 0e 	movl   $0xfd6ade0e,-0x1988(%rbp)
    f309:	de 6a fd 
    f30c:	c7 85 7c e6 ff ff 8b 	movl   $0x63fe7a8b,-0x1984(%rbp)
    f313:	7a fe 63 
    f316:	48 8d 05 9f b0 00 00 	lea    0xb09f(%rip),%rax        # 1a3bc <g_256>
    f31d:	48 89 85 30 e8 ff ff 	mov    %rax,-0x17d0(%rbp)
    f324:	48 8d 05 39 b1 00 00 	lea    0xb139(%rip),%rax        # 1a464 <g_337>
    f32b:	48 89 85 38 e8 ff ff 	mov    %rax,-0x17c8(%rbp)
    f332:	66 c7 85 ae e5 ff ff 	movw   $0x9f6a,-0x1a52(%rbp)
    f339:	6a 9f 
    f33b:	c6 85 a5 e5 ff ff be 	movb   $0xbe,-0x1a5b(%rbp)
    f342:	c7 85 80 e6 ff ff a7 	movl   $0x10d181a7,-0x1980(%rbp)
    f349:	81 d1 10 
    f34c:	c7 85 60 ea ff ff fa 	movl   $0xfffffffa,-0x15a0(%rbp)
    f353:	ff ff ff 
    f356:	c7 85 64 ea ff ff fa 	movl   $0xfffffffa,-0x159c(%rbp)
    f35d:	ff ff ff 
    f360:	c7 85 68 ea ff ff fa 	movl   $0xfffffffa,-0x1598(%rbp)
    f367:	ff ff ff 
    f36a:	c7 85 6c ea ff ff fa 	movl   $0xfffffffa,-0x1594(%rbp)
    f371:	ff ff ff 
    f374:	c7 85 70 ea ff ff fa 	movl   $0xfffffffa,-0x1590(%rbp)
    f37b:	ff ff ff 
    f37e:	c7 85 f4 e5 ff ff 00 	movl   $0x0,-0x1a0c(%rbp)
    f385:	00 00 00 
    f388:	eb 1a                	jmp    f3a4 <func_76+0xc25>
    f38a:	8b 85 f4 e5 ff ff    	mov    -0x1a0c(%rbp),%eax
    f390:	48 98                	cltq   
    f392:	c7 84 85 50 eb ff ff 	movl   $0xd0b8d769,-0x14b0(%rbp,%rax,4)
    f399:	69 d7 b8 d0 
    f39d:	83 85 f4 e5 ff ff 01 	addl   $0x1,-0x1a0c(%rbp)
    f3a4:	83 bd f4 e5 ff ff 06 	cmpl   $0x6,-0x1a0c(%rbp)
    f3ab:	7e dd                	jle    f38a <func_76+0xc0b>
    f3ad:	c7 85 f4 e5 ff ff 00 	movl   $0x0,-0x1a0c(%rbp)
    f3b4:	00 00 00 
    f3b7:	eb 1a                	jmp    f3d3 <func_76+0xc54>
    f3b9:	8b 85 f4 e5 ff ff    	mov    -0x1a0c(%rbp),%eax
    f3bf:	48 98                	cltq   
    f3c1:	c7 84 85 f0 e9 ff ff 	movl   $0x31eb68d2,-0x1610(%rbp,%rax,4)
    f3c8:	d2 68 eb 31 
    f3cc:	83 85 f4 e5 ff ff 01 	addl   $0x1,-0x1a0c(%rbp)
    f3d3:	83 bd f4 e5 ff ff 01 	cmpl   $0x1,-0x1a0c(%rbp)
    f3da:	7e dd                	jle    f3b9 <func_76+0xc3a>
    f3dc:	48 8b 85 80 e5 ff ff 	mov    -0x1a80(%rbp),%rax
    f3e3:	c7 00 01 00 00 00    	movl   $0x1,(%rax)
    f3e9:	48 8b 85 18 e8 ff ff 	mov    -0x17e8(%rbp),%rax
    f3f0:	48 8d 95 c8 e6 ff ff 	lea    -0x1938(%rbp),%rdx
    f3f7:	48 89 10             	mov    %rdx,(%rax)
    f3fa:	48 8b 85 18 e8 ff ff 	mov    -0x17e8(%rbp),%rax
    f401:	48 8b 00             	mov    (%rax),%rax
    f404:	48 8d 15 45 f4 00 00 	lea    0xf445(%rip),%rdx        # 1e850 <g_90>
    f40b:	48 39 d0             	cmp    %rdx,%rax
    f40e:	0f 95 c0             	setne  %al
    f411:	0f b6 d8             	movzbl %al,%ebx
    f414:	48 8b 95 f0 e6 ff ff 	mov    -0x1910(%rbp),%rdx
    f41b:	48 8b 85 10 e8 ff ff 	mov    -0x17f0(%rbp),%rax
    f422:	48 89 10             	mov    %rdx,(%rax)
    f425:	be 0f 00 00 00       	mov    $0xf,%esi
    f42a:	bf 01 00 00 00       	mov    $0x1,%edi
    f42f:	e8 5e a0 ff ff       	callq  9492 <safe_lshift_func_int16_t_s_s>
    f434:	0f be c0             	movsbl %al,%eax
    f437:	89 de                	mov    %ebx,%esi
    f439:	89 c7                	mov    %eax,%edi
    f43b:	e8 f5 9e ff ff       	callq  9335 <safe_rshift_func_int8_t_s_s>
    f440:	0f be c0             	movsbl %al,%eax
    f443:	be fb ff ff ff       	mov    $0xfffffffb,%esi
    f448:	89 c7                	mov    %eax,%edi
    f44a:	e8 b0 a2 ff ff       	callq  96ff <safe_div_func_int32_t_s_s>
    f44f:	89 c2                	mov    %eax,%edx
    f451:	48 8b 85 00 e7 ff ff 	mov    -0x1900(%rbp),%rax
    f458:	88 10                	mov    %dl,(%rax)
    f45a:	0f b6 00             	movzbl (%rax),%eax
    f45d:	0f be d0             	movsbl %al,%edx
    f460:	48 8b 8d 80 e5 ff ff 	mov    -0x1a80(%rbp),%rcx
    f467:	48 8b 85 00 e8 ff ff 	mov    -0x1800(%rbp),%rax
    f46e:	48 89 08             	mov    %rcx,(%rax)
    f471:	48 8b 85 00 e8 ff ff 	mov    -0x1800(%rbp),%rax
    f478:	48 8b 00             	mov    (%rax),%rax
    f47b:	48 39 85 f8 e7 ff ff 	cmp    %rax,-0x1808(%rbp)
    f482:	0f 94 c0             	sete   %al
    f485:	0f b6 c0             	movzbl %al,%eax
    f488:	89 d6                	mov    %edx,%esi
    f48a:	89 c7                	mov    %eax,%edi
    f48c:	e8 81 9d ff ff       	callq  9212 <safe_mul_func_int8_t_s_s>
    f491:	0f be d0             	movsbl %al,%edx
    f494:	8b 05 16 ac 00 00    	mov    0xac16(%rip),%eax        # 1a0b0 <g_6+0x70>
    f49a:	39 c2                	cmp    %eax,%edx
    f49c:	0f 8e 6d 17 00 00    	jle    10c0f <func_76+0x2490>
    f4a2:	c6 85 9f e5 ff ff 1f 	movb   $0x1f,-0x1a61(%rbp)
    f4a9:	c7 85 e0 e9 ff ff 00 	movl   $0x0,-0x1620(%rbp)
    f4b0:	00 00 00 
    f4b3:	c7 85 c0 eb ff ff 01 	movl   $0x1,-0x1440(%rbp)
    f4ba:	00 00 00 
    f4bd:	c7 85 c4 eb ff ff 01 	movl   $0x1,-0x143c(%rbp)
    f4c4:	00 00 00 
    f4c7:	c7 85 c8 eb ff ff 01 	movl   $0x1,-0x1438(%rbp)
    f4ce:	00 00 00 
    f4d1:	c7 85 cc eb ff ff 01 	movl   $0x1,-0x1434(%rbp)
    f4d8:	00 00 00 
    f4db:	c7 85 d0 eb ff ff 01 	movl   $0x1,-0x1430(%rbp)
    f4e2:	00 00 00 
    f4e5:	c7 85 d4 eb ff ff 01 	movl   $0x1,-0x142c(%rbp)
    f4ec:	00 00 00 
    f4ef:	c7 85 d8 eb ff ff 01 	movl   $0x1,-0x1428(%rbp)
    f4f6:	00 00 00 
    f4f9:	48 b8 e1 f6 dd 76 9f 	movabs $0x4e33999f76ddf6e1,%rax
    f500:	99 33 4e 
    f503:	48 89 85 30 e7 ff ff 	mov    %rax,-0x18d0(%rbp)
    f50a:	c6 85 a0 e5 ff ff fe 	movb   $0xfe,-0x1a60(%rbp)
    f511:	48 8d 85 a0 e5 ff ff 	lea    -0x1a60(%rbp),%rax
    f518:	48 89 85 88 e8 ff ff 	mov    %rax,-0x1778(%rbp)
    f51f:	48 8d 85 90 f0 ff ff 	lea    -0xf70(%rbp),%rax
    f526:	48 05 90 01 00 00    	add    $0x190,%rax
    f52c:	48 89 85 90 e8 ff ff 	mov    %rax,-0x1770(%rbp)
    f533:	c7 85 88 e6 ff ff fa 	movl   $0xa83970fa,-0x1978(%rbp)
    f53a:	70 39 a8 
    f53d:	48 8d 05 3c df 00 00 	lea    0xdf3c(%rip),%rax        # 1d480 <g_374>
    f544:	48 89 85 98 e8 ff ff 	mov    %rax,-0x1768(%rbp)
    f54b:	c6 05 da ab 00 00 00 	movb   $0x0,0xabda(%rip)        # 1a12c <g_112>
    f552:	e9 24 08 00 00       	jmpq   fd7b <func_76+0x15fc>
    f557:	48 8d 05 be ab 00 00 	lea    0xabbe(%rip),%rax        # 1a11c <g_25>
    f55e:	48 89 85 50 e9 ff ff 	mov    %rax,-0x16b0(%rbp)
    f565:	48 8d 05 b0 ab 00 00 	lea    0xabb0(%rip),%rax        # 1a11c <g_25>
    f56c:	48 89 85 58 e9 ff ff 	mov    %rax,-0x16a8(%rbp)
    f573:	48 8d 85 90 f9 ff ff 	lea    -0x670(%rbp),%rax
    f57a:	48 8d 15 7f d4 00 00 	lea    0xd47f(%rip),%rdx        # 1ca00 <g_3696+0x1a9a>
    f581:	b9 50 00 00 00       	mov    $0x50,%ecx
    f586:	48 89 c7             	mov    %rax,%rdi
    f589:	48 89 d6             	mov    %rdx,%rsi
    f58c:	f3 48 a5             	rep movsq %ds:(%rsi),%es:(%rdi)
    f58f:	48 8b 05 22 ad 00 00 	mov    0xad22(%rip),%rax        # 1a2b8 <g_118>
    f596:	48 83 c0 01          	add    $0x1,%rax
    f59a:	48 89 05 17 ad 00 00 	mov    %rax,0xad17(%rip)        # 1a2b8 <g_118>
    f5a1:	c7 05 7d ab 00 00 01 	movl   $0x1,0xab7d(%rip)        # 1a128 <g_95>
    f5a8:	00 00 00 
    f5ab:	e9 9b 06 00 00       	jmpq   fc4b <func_76+0x14cc>
    f5b0:	48 8d 05 09 ad 00 00 	lea    0xad09(%rip),%rax        # 1a2c0 <g_126>
    f5b7:	48 89 85 60 e9 ff ff 	mov    %rax,-0x16a0(%rbp)
    f5be:	c7 85 ac e6 ff ff ff 	movl   $0xffffffff,-0x1954(%rbp)
    f5c5:	ff ff ff 
    f5c8:	c7 85 b0 e6 ff ff 4b 	movl   $0xa9d8984b,-0x1950(%rbp)
    f5cf:	98 d8 a9 
    f5d2:	48 8d 85 00 e7 ff ff 	lea    -0x1900(%rbp),%rax
    f5d9:	48 89 85 40 e7 ff ff 	mov    %rax,-0x18c0(%rbp)
    f5e0:	48 8d 85 40 e7 ff ff 	lea    -0x18c0(%rbp),%rax
    f5e7:	48 89 85 68 e9 ff ff 	mov    %rax,-0x1698(%rbp)
    f5ee:	48 8d 05 2b de 00 00 	lea    0xde2b(%rip),%rax        # 1d420 <g_205>
    f5f5:	48 89 85 70 e9 ff ff 	mov    %rax,-0x1690(%rbp)
    f5fc:	c7 85 f8 e5 ff ff 00 	movl   $0x0,-0x1a08(%rbp)
    f603:	00 00 00 
    f606:	e9 87 00 00 00       	jmpq   f692 <func_76+0xf13>
    f60b:	c7 85 fc e5 ff ff 00 	movl   $0x0,-0x1a04(%rbp)
    f612:	00 00 00 
    f615:	eb 6b                	jmp    f682 <func_76+0xf03>
    f617:	c7 85 00 e6 ff ff 00 	movl   $0x0,-0x1a00(%rbp)
    f61e:	00 00 00 
    f621:	eb 4f                	jmp    f672 <func_76+0xef3>
    f623:	8b 85 00 e6 ff ff    	mov    -0x1a00(%rbp),%eax
    f629:	48 63 f0             	movslq %eax,%rsi
    f62c:	8b 85 f8 e5 ff ff    	mov    -0x1a08(%rbp),%eax
    f632:	48 98                	cltq   
    f634:	8b 95 fc e5 ff ff    	mov    -0x1a04(%rbp),%edx
    f63a:	48 63 ca             	movslq %edx,%rcx
    f63d:	48 89 c2             	mov    %rax,%rdx
    f640:	48 c1 e2 04          	shl    $0x4,%rdx
    f644:	48 29 c2             	sub    %rax,%rdx
    f647:	48 8d 04 12          	lea    (%rdx,%rdx,1),%rax
    f64b:	48 89 c2             	mov    %rax,%rdx
    f64e:	48 89 c8             	mov    %rcx,%rax
    f651:	48 01 c0             	add    %rax,%rax
    f654:	48 01 c8             	add    %rcx,%rax
    f657:	48 01 c0             	add    %rax,%rax
    f65a:	48 01 d0             	add    %rdx,%rax
    f65d:	48 01 f0             	add    %rsi,%rax
    f660:	c7 84 85 80 f4 ff ff 	movl   $0xa99fbd2c,-0xb80(%rbp,%rax,4)
    f667:	2c bd 9f a9 
    f66b:	83 85 00 e6 ff ff 01 	addl   $0x1,-0x1a00(%rbp)
    f672:	83 bd 00 e6 ff ff 05 	cmpl   $0x5,-0x1a00(%rbp)
    f679:	7e a8                	jle    f623 <func_76+0xea4>
    f67b:	83 85 fc e5 ff ff 01 	addl   $0x1,-0x1a04(%rbp)
    f682:	83 bd fc e5 ff ff 04 	cmpl   $0x4,-0x1a04(%rbp)
    f689:	7e 8c                	jle    f617 <func_76+0xe98>
    f68b:	83 85 f8 e5 ff ff 01 	addl   $0x1,-0x1a08(%rbp)
    f692:	83 bd f8 e5 ff ff 01 	cmpl   $0x1,-0x1a08(%rbp)
    f699:	0f 8e 6c ff ff ff    	jle    f60b <func_76+0xe8c>
    f69f:	c7 85 f8 e5 ff ff 00 	movl   $0x0,-0x1a08(%rbp)
    f6a6:	00 00 00 
    f6a9:	eb 4c                	jmp    f6f7 <func_76+0xf78>
    f6ab:	c7 85 fc e5 ff ff 00 	movl   $0x0,-0x1a04(%rbp)
    f6b2:	00 00 00 
    f6b5:	eb 30                	jmp    f6e7 <func_76+0xf68>
    f6b7:	8b 85 fc e5 ff ff    	mov    -0x1a04(%rbp),%eax
    f6bd:	48 63 c8             	movslq %eax,%rcx
    f6c0:	8b 85 f8 e5 ff ff    	mov    -0x1a08(%rbp),%eax
    f6c6:	48 63 d0             	movslq %eax,%rdx
    f6c9:	48 89 d0             	mov    %rdx,%rax
    f6cc:	48 01 c0             	add    %rax,%rax
    f6cf:	48 01 d0             	add    %rdx,%rax
    f6d2:	48 01 c8             	add    %rcx,%rax
    f6d5:	c7 84 85 d0 ec ff ff 	movl   $0xd10ae1d0,-0x1330(%rbp,%rax,4)
    f6dc:	d0 e1 0a d1 
    f6e0:	83 85 fc e5 ff ff 01 	addl   $0x1,-0x1a04(%rbp)
    f6e7:	83 bd fc e5 ff ff 02 	cmpl   $0x2,-0x1a04(%rbp)
    f6ee:	7e c7                	jle    f6b7 <func_76+0xf38>
    f6f0:	83 85 f8 e5 ff ff 01 	addl   $0x1,-0x1a08(%rbp)
    f6f7:	83 bd f8 e5 ff ff 09 	cmpl   $0x9,-0x1a08(%rbp)
    f6fe:	7e ab                	jle    f6ab <func_76+0xf2c>
    f700:	83 bd 88 e5 ff ff 00 	cmpl   $0x0,-0x1a78(%rbp)
    f707:	0f 84 97 00 00 00    	je     f7a4 <func_76+0x1025>
    f70d:	8b 05 01 aa 00 00    	mov    0xaa01(%rip),%eax        # 1a114 <g_17>
    f713:	0f b7 c0             	movzwl %ax,%eax
    f716:	be 0a 00 00 00       	mov    $0xa,%esi
    f71b:	89 c7                	mov    %eax,%edi
    f71d:	e8 58 a7 ff ff       	callq  9e7a <safe_rshift_func_uint16_t_u_u>
    f722:	48 8b 15 b7 dc 00 00 	mov    0xdcb7(%rip),%rdx        # 1d3e0 <g_91>
    f729:	48 8b 05 b0 dc 00 00 	mov    0xdcb0(%rip),%rax        # 1d3e0 <g_91>
    f730:	8b 12                	mov    (%rdx),%edx
    f732:	89 10                	mov    %edx,(%rax)
    f734:	44 8b 20             	mov    (%rax),%r12d
    f737:	be 06 00 00 00       	mov    $0x6,%esi
    f73c:	bf 5d ec 00 00       	mov    $0xec5d,%edi
    f741:	e8 02 a7 ff ff       	callq  9e48 <safe_rshift_func_uint16_t_u_s>
    f746:	0f b7 d8             	movzwl %ax,%ebx
    f749:	0f b7 05 e4 aa 00 00 	movzwl 0xaae4(%rip),%eax        # 1a234 <g_117+0x54>
    f750:	98                   	cwtl   
    f751:	be 08 00 00 00       	mov    $0x8,%esi
    f756:	89 c7                	mov    %eax,%edi
    f758:	e8 84 9d ff ff       	callq  94e1 <safe_lshift_func_int16_t_s_u>
    f75d:	0f b6 c0             	movzbl %al,%eax
    f760:	be 06 00 00 00       	mov    $0x6,%esi
    f765:	89 c7                	mov    %eax,%edi
    f767:	e8 e0 a4 ff ff       	callq  9c4c <safe_lshift_func_uint8_t_u_u>
    f76c:	0f b6 c0             	movzbl %al,%eax
    f76f:	48 89 de             	mov    %rbx,%rsi
    f772:	48 89 c7             	mov    %rax,%rdi
    f775:	e8 7d a2 ff ff       	callq  99f7 <safe_div_func_int64_t_s_s>
    f77a:	0f b6 95 9f e5 ff ff 	movzbl -0x1a61(%rbp),%edx
    f781:	48 0f be d2          	movsbq %dl,%rdx
    f785:	48 39 d0             	cmp    %rdx,%rax
    f788:	0f 94 c0             	sete   %al
    f78b:	0f b6 c0             	movzbl %al,%eax
    f78e:	39 85 88 e5 ff ff    	cmp    %eax,-0x1a78(%rbp)
    f794:	0f 94 c0             	sete   %al
    f797:	0f b6 c0             	movzbl %al,%eax
    f79a:	41 39 c4             	cmp    %eax,%r12d
    f79d:	b8 01 00 00 00       	mov    $0x1,%eax
    f7a2:	eb 05                	jmp    f7a9 <func_76+0x102a>
    f7a4:	b8 00 00 00 00       	mov    $0x0,%eax
    f7a9:	0f be d8             	movsbl %al,%ebx
    f7ac:	0f b7 85 8c e5 ff ff 	movzwl -0x1a74(%rbp),%eax
    f7b3:	89 c2                	mov    %eax,%edx
    f7b5:	48 8b 85 60 e9 ff ff 	mov    -0x16a0(%rbp),%rax
    f7bc:	88 10                	mov    %dl,(%rax)
    f7be:	48 8b 85 60 e9 ff ff 	mov    -0x16a0(%rbp),%rax
    f7c5:	0f b6 00             	movzbl (%rax),%eax
    f7c8:	0f b6 c0             	movzbl %al,%eax
    f7cb:	be 01 00 00 00       	mov    $0x1,%esi
    f7d0:	89 c7                	mov    %eax,%edi
    f7d2:	e8 e7 a4 ff ff       	callq  9cbe <safe_rshift_func_uint8_t_u_u>
    f7d7:	0f be c0             	movsbl %al,%eax
    f7da:	89 de                	mov    %ebx,%esi
    f7dc:	89 c7                	mov    %eax,%edi
    f7de:	e8 4e 9a ff ff       	callq  9231 <safe_mod_func_int8_t_s_s>
    f7e3:	84 c0                	test   %al,%al
    f7e5:	0f 84 cd 03 00 00    	je     fbb8 <func_76+0x1439>
    f7eb:	66 c7 85 b2 e5 ff ff 	movw   $0x2e2c,-0x1a4e(%rbp)
    f7f2:	2c 2e 
    f7f4:	48 8d 05 31 a9 00 00 	lea    0xa931(%rip),%rax        # 1a12c <g_112>
    f7fb:	48 89 85 80 e9 ff ff 	mov    %rax,-0x1680(%rbp)
    f802:	48 8d 05 b8 aa 00 00 	lea    0xaab8(%rip),%rax        # 1a2c1 <g_178>
    f809:	48 89 85 88 e9 ff ff 	mov    %rax,-0x1678(%rbp)
    f810:	48 8d 85 9f e5 ff ff 	lea    -0x1a61(%rbp),%rax
    f817:	48 89 85 90 e9 ff ff 	mov    %rax,-0x1670(%rbp)
    f81e:	c7 85 b4 e6 ff ff 00 	movl   $0x81ae9100,-0x194c(%rbp)
    f825:	91 ae 81 
    f828:	c7 85 b8 e6 ff ff 06 	movl   $0x6,-0x1948(%rbp)
    f82f:	00 00 00 
    f832:	48 b8 00 ff 27 ff 00 	movabs $0x4042700ff27ff00,%rax
    f839:	27 04 04 
    f83c:	48 89 85 40 ec ff ff 	mov    %rax,-0x13c0(%rbp)
    f843:	48 b8 3a ff f3 f3 ff 	movabs $0xffb13afff3f3ff3a,%rax
    f84a:	3a b1 ff 
    f84d:	48 89 85 48 ec ff ff 	mov    %rax,-0x13b8(%rbp)
    f854:	48 b8 04 b1 f3 04 f3 	movabs $0x3a04b1f304f3b104,%rax
    f85b:	b1 04 3a 
    f85e:	48 89 85 50 ec ff ff 	mov    %rax,-0x13b0(%rbp)
    f865:	48 b8 ff 00 27 04 04 	movabs $0xff002704042700ff,%rax
    f86c:	27 00 ff 
    f86f:	48 89 85 58 ec ff ff 	mov    %rax,-0x13a8(%rbp)
    f876:	c7 85 04 e6 ff ff 00 	movl   $0x0,-0x19fc(%rbp)
    f87d:	00 00 00 
    f880:	eb 1e                	jmp    f8a0 <func_76+0x1121>
    f882:	8b 85 04 e6 ff ff    	mov    -0x19fc(%rbp),%eax
    f888:	48 98                	cltq   
    f88a:	48 8d 15 27 aa 00 00 	lea    0xaa27(%rip),%rdx        # 1a2b8 <g_118>
    f891:	48 89 94 c5 40 ea ff 	mov    %rdx,-0x15c0(%rbp,%rax,8)
    f898:	ff 
    f899:	83 85 04 e6 ff ff 01 	addl   $0x1,-0x19fc(%rbp)
    f8a0:	83 bd 04 e6 ff ff 01 	cmpl   $0x1,-0x19fc(%rbp)
    f8a7:	7e d9                	jle    f882 <func_76+0x1103>
    f8a9:	c7 85 04 e6 ff ff 00 	movl   $0x0,-0x19fc(%rbp)
    f8b0:	00 00 00 
    f8b3:	eb 1a                	jmp    f8cf <func_76+0x1150>
    f8b5:	8b 85 04 e6 ff ff    	mov    -0x19fc(%rbp),%eax
    f8bb:	48 98                	cltq   
    f8bd:	c7 84 85 e0 ea ff ff 	movl   $0x4,-0x1520(%rbp,%rax,4)
    f8c4:	04 00 00 00 
    f8c8:	83 85 04 e6 ff ff 01 	addl   $0x1,-0x19fc(%rbp)
    f8cf:	83 bd 04 e6 ff ff 04 	cmpl   $0x4,-0x19fc(%rbp)
    f8d6:	7e dd                	jle    f8b5 <func_76+0x1136>
    f8d8:	48 8b 85 80 e5 ff ff 	mov    -0x1a80(%rbp),%rax
    f8df:	48 85 c0             	test   %rax,%rax
    f8e2:	48 8b 85 c8 e6 ff ff 	mov    -0x1938(%rbp),%rax
    f8e9:	8b 00                	mov    (%rax),%eax
    f8eb:	89 c2                	mov    %eax,%edx
    f8ed:	0f b7 85 8c e5 ff ff 	movzwl -0x1a74(%rbp),%eax
    f8f4:	09 d0                	or     %edx,%eax
    f8f6:	66 89 85 8c e5 ff ff 	mov    %ax,-0x1a74(%rbp)
    f8fd:	48 8b 85 18 e8 ff ff 	mov    -0x17e8(%rbp),%rax
    f904:	48 8b 00             	mov    (%rax),%rax
    f907:	48 8b 00             	mov    (%rax),%rax
    f90a:	48 85 c0             	test   %rax,%rax
    f90d:	0f 94 c2             	sete   %dl
    f910:	48 8b 05 c9 da 00 00 	mov    0xdac9(%rip),%rax        # 1d3e0 <g_91>
    f917:	0f b6 d2             	movzbl %dl,%edx
    f91a:	89 10                	mov    %edx,(%rax)
    f91c:	48 8b 85 00 e8 ff ff 	mov    -0x1800(%rbp),%rax
    f923:	48 8b 10             	mov    (%rax),%rdx
    f926:	48 8b 85 10 e8 ff ff 	mov    -0x17f0(%rbp),%rax
    f92d:	48 89 10             	mov    %rdx,(%rax)
    f930:	48 8b 85 f8 e6 ff ff 	mov    -0x1908(%rbp),%rax
    f937:	48 8b 95 10 e8 ff ff 	mov    -0x17f0(%rbp),%rdx
    f93e:	48 8b 12             	mov    (%rdx),%rdx
    f941:	48 89 10             	mov    %rdx,(%rax)
    f944:	8b 85 88 e5 ff ff    	mov    -0x1a78(%rbp),%eax
    f94a:	0f b7 d8             	movzwl %ax,%ebx
    f94d:	44 8b a5 88 e5 ff ff 	mov    -0x1a78(%rbp),%r12d
    f954:	48 8b 85 c8 e6 ff ff 	mov    -0x1938(%rbp),%rax
    f95b:	8b 00                	mov    (%rax),%eax
    f95d:	41 89 c5             	mov    %eax,%r13d
    f960:	0f b7 05 35 a9 00 00 	movzwl 0xa935(%rip),%eax        # 1a29c <g_117+0xbc>
    f967:	0f bf d0             	movswl %ax,%edx
    f96a:	8b 0d a4 a7 00 00    	mov    0xa7a4(%rip),%ecx        # 1a114 <g_17>
    f970:	8b 05 d2 ee 00 00    	mov    0xeed2(%rip),%eax        # 1e848 <g_2>
    f976:	39 c1                	cmp    %eax,%ecx
    f978:	0f 9d c0             	setge  %al
    f97b:	0f b6 c0             	movzbl %al,%eax
    f97e:	89 d6                	mov    %edx,%esi
    f980:	89 c7                	mov    %eax,%edi
    f982:	e8 ce 9a ff ff       	callq  9455 <safe_div_func_int16_t_s_s>
    f987:	48 83 bd 80 e9 ff ff 	cmpq   $0x0,-0x1680(%rbp)
    f98e:	00 
    f98f:	0f 94 c0             	sete   %al
    f992:	0f b6 c0             	movzbl %al,%eax
    f995:	be 0a 00 00 00       	mov    $0xa,%esi
    f99a:	89 c7                	mov    %eax,%edi
    f99c:	e8 a7 a4 ff ff       	callq  9e48 <safe_rshift_func_uint16_t_u_s>
    f9a1:	0f b7 c0             	movzwl %ax,%eax
    f9a4:	be 00 00 00 00       	mov    $0x0,%esi
    f9a9:	89 c7                	mov    %eax,%edi
    f9ab:	e8 ca a4 ff ff       	callq  9e7a <safe_rshift_func_uint16_t_u_u>
    f9b0:	0f b6 c0             	movzbl %al,%eax
    f9b3:	be c8 00 00 00       	mov    $0xc8,%esi
    f9b8:	89 c7                	mov    %eax,%edi
    f9ba:	e8 b9 a1 ff ff       	callq  9b78 <safe_sub_func_uint8_t_u_u>
    f9bf:	0f b6 c0             	movzbl %al,%eax
    f9c2:	44 89 ee             	mov    %r13d,%esi
    f9c5:	89 c7                	mov    %eax,%edi
    f9c7:	e8 59 a5 ff ff       	callq  9f25 <safe_div_func_uint32_t_u_u>
    f9cc:	85 c0                	test   %eax,%eax
    f9ce:	75 0c                	jne    f9dc <func_76+0x125d>
    f9d0:	0f b7 05 71 a8 00 00 	movzwl 0xa871(%rip),%eax        # 1a248 <g_117+0x68>
    f9d7:	66 85 c0             	test   %ax,%ax
    f9da:	74 07                	je     f9e3 <func_76+0x1264>
    f9dc:	b8 01 00 00 00       	mov    $0x1,%eax
    f9e1:	eb 05                	jmp    f9e8 <func_76+0x1269>
    f9e3:	b8 00 00 00 00       	mov    $0x0,%eax
    f9e8:	89 c2                	mov    %eax,%edx
    f9ea:	48 8b 85 88 e9 ff ff 	mov    -0x1678(%rbp),%rax
    f9f1:	88 10                	mov    %dl,(%rax)
    f9f3:	48 8b 85 88 e9 ff ff 	mov    -0x1678(%rbp),%rax
    f9fa:	0f b6 00             	movzbl (%rax),%eax
    f9fd:	84 c0                	test   %al,%al
    f9ff:	0f 94 c0             	sete   %al
    fa02:	0f b6 c0             	movzbl %al,%eax
    fa05:	be 02 00 00 00       	mov    $0x2,%esi
    fa0a:	89 c7                	mov    %eax,%edi
    fa0c:	e8 3b a2 ff ff       	callq  9c4c <safe_lshift_func_uint8_t_u_u>
    fa11:	0f b6 c0             	movzbl %al,%eax
    fa14:	be 2f 60 00 00       	mov    $0x602f,%esi
    fa19:	89 c7                	mov    %eax,%edi
    fa1b:	e8 1d a3 ff ff       	callq  9d3d <safe_mul_func_uint16_t_u_u>
    fa20:	89 c2                	mov    %eax,%edx
    fa22:	48 8b 85 c8 e6 ff ff 	mov    -0x1938(%rbp),%rax
    fa29:	0f b7 d2             	movzwl %dx,%edx
    fa2c:	89 10                	mov    %edx,(%rax)
    fa2e:	8b 00                	mov    (%rax),%eax
    fa30:	0f be d0             	movsbl %al,%edx
    fa33:	0f b6 85 9f e5 ff ff 	movzbl -0x1a61(%rbp),%eax
    fa3a:	0f be c0             	movsbl %al,%eax
    fa3d:	89 d6                	mov    %edx,%esi
    fa3f:	89 c7                	mov    %eax,%edi
    fa41:	e8 24 98 ff ff       	callq  926a <safe_div_func_int8_t_s_s>
    fa46:	0f be c0             	movsbl %al,%eax
    fa49:	89 c7                	mov    %eax,%edi
    fa4b:	e8 56 a4 ff ff       	callq  9ea6 <safe_unary_minus_func_uint32_t_u>
    fa50:	0f be d0             	movsbl %al,%edx
    fa53:	8b 85 88 e5 ff ff    	mov    -0x1a78(%rbp),%eax
    fa59:	0f be c0             	movsbl %al,%eax
    fa5c:	89 d6                	mov    %edx,%esi
    fa5e:	89 c7                	mov    %eax,%edi
    fa60:	e8 05 98 ff ff       	callq  926a <safe_div_func_int8_t_s_s>
    fa65:	66 98                	cbtw   
    fa67:	66 39 85 b2 e5 ff ff 	cmp    %ax,-0x1a4e(%rbp)
    fa6e:	7c 09                	jl     fa79 <func_76+0x12fa>
    fa70:	83 bd 88 e5 ff ff 00 	cmpl   $0x0,-0x1a78(%rbp)
    fa77:	74 07                	je     fa80 <func_76+0x1301>
    fa79:	b8 01 00 00 00       	mov    $0x1,%eax
    fa7e:	eb 05                	jmp    fa85 <func_76+0x1306>
    fa80:	b8 00 00 00 00       	mov    $0x0,%eax
    fa85:	39 85 88 e5 ff ff    	cmp    %eax,-0x1a78(%rbp)
    fa8b:	0f b7 85 8c e5 ff ff 	movzwl -0x1a74(%rbp),%eax
    fa92:	0f b7 c0             	movzwl %ax,%eax
    fa95:	be fa ff 00 00       	mov    $0xfffa,%esi
    fa9a:	89 c7                	mov    %eax,%edi
    fa9c:	e8 7e a2 ff ff       	callq  9d1f <safe_sub_func_uint16_t_u_u>
    faa1:	89 c2                	mov    %eax,%edx
    faa3:	48 8b 85 90 e9 ff ff 	mov    -0x1670(%rbp),%rax
    faaa:	88 10                	mov    %dl,(%rax)
    faac:	48 8b 85 90 e9 ff ff 	mov    -0x1670(%rbp),%rax
    fab3:	0f b6 00             	movzbl (%rax),%eax
    fab6:	66 98                	cbtw   
    fab8:	66 39 85 b2 e5 ff ff 	cmp    %ax,-0x1a4e(%rbp)
    fabf:	0f 9c c0             	setl   %al
    fac2:	0f b6 c0             	movzbl %al,%eax
    fac5:	44 89 e6             	mov    %r12d,%esi
    fac8:	89 c7                	mov    %eax,%edi
    faca:	e8 36 a1 ff ff       	callq  9c05 <safe_lshift_func_uint8_t_u_s>
    facf:	0f b6 c0             	movzbl %al,%eax
    fad2:	89 de                	mov    %ebx,%esi
    fad4:	89 c7                	mov    %eax,%edi
    fad6:	e8 44 a2 ff ff       	callq  9d1f <safe_sub_func_uint16_t_u_u>
    fadb:	0f b6 05 4a a6 00 00 	movzbl 0xa64a(%rip),%eax        # 1a12c <g_112>
    fae2:	0f b6 c0             	movzbl %al,%eax
    fae5:	8d 50 01             	lea    0x1(%rax),%edx
    fae8:	0f b6 05 3d a6 00 00 	movzbl 0xa63d(%rip),%eax        # 1a12c <g_112>
    faef:	0f b6 c0             	movzbl %al,%eax
    faf2:	48 63 c8             	movslq %eax,%rcx
    faf5:	48 63 d2             	movslq %edx,%rdx
    faf8:	48 89 d0             	mov    %rdx,%rax
    fafb:	48 c1 e0 02          	shl    $0x2,%rax
    faff:	48 01 d0             	add    %rdx,%rax
    fb02:	48 01 c8             	add    %rcx,%rax
    fb05:	48 8d 14 85 00 00 00 	lea    0x0(,%rax,4),%rdx
    fb0c:	00 
    fb0d:	48 8d 05 2c a6 00 00 	lea    0xa62c(%rip),%rax        # 1a140 <g_113>
    fb14:	c7 04 02 01 00 00 00 	movl   $0x1,(%rdx,%rax,1)
    fb1b:	48 c7 05 92 a7 00 00 	movq   $0x1,0xa792(%rip)        # 1a2b8 <g_118>
    fb22:	01 00 00 00 
    fb26:	48 8b 05 8b a7 00 00 	mov    0xa78b(%rip),%rax        # 1a2b8 <g_118>
    fb2d:	48 89 05 94 a7 00 00 	mov    %rax,0xa794(%rip)        # 1a2c8 <g_181>
    fb34:	0f bf 95 b2 e5 ff ff 	movswl -0x1a4e(%rbp),%edx
    fb3b:	48 8b 8d c8 e6 ff ff 	mov    -0x1938(%rbp),%rcx
    fb42:	48 8b 85 80 e5 ff ff 	mov    -0x1a80(%rbp),%rax
    fb49:	48 39 c1             	cmp    %rax,%rcx
    fb4c:	0f 94 c0             	sete   %al
    fb4f:	0f b6 c0             	movzbl %al,%eax
    fb52:	39 c2                	cmp    %eax,%edx
    fb54:	0f 94 c0             	sete   %al
    fb57:	0f b6 c0             	movzbl %al,%eax
    fb5a:	39 85 88 e5 ff ff    	cmp    %eax,-0x1a78(%rbp)
    fb60:	0f 96 c0             	setbe  %al
    fb63:	0f b6 c0             	movzbl %al,%eax
    fb66:	8b 15 ac a5 00 00    	mov    0xa5ac(%rip),%edx        # 1a118 <g_20>
    fb6c:	89 c6                	mov    %eax,%esi
    fb6e:	89 d7                	mov    %edx,%edi
    fb70:	e8 5b a3 ff ff       	callq  9ed0 <safe_sub_func_uint32_t_u_u>
    fb75:	0f b7 d0             	movzwl %ax,%edx
    fb78:	0f b7 05 37 a7 00 00 	movzwl 0xa737(%rip),%eax        # 1a2b6 <g_117+0xd6>
    fb7f:	0f b7 c0             	movzwl %ax,%eax
    fb82:	89 d6                	mov    %edx,%esi
    fb84:	89 c7                	mov    %eax,%edi
    fb86:	e8 b2 a1 ff ff       	callq  9d3d <safe_mul_func_uint16_t_u_u>
    fb8b:	0f b7 d0             	movzwl %ax,%edx
    fb8e:	8b 05 b4 ec 00 00    	mov    0xecb4(%rip),%eax        # 1e848 <g_2>
    fb94:	39 c2                	cmp    %eax,%edx
    fb96:	0f 95 c0             	setne  %al
    fb99:	0f b6 c0             	movzbl %al,%eax
    fb9c:	89 c6                	mov    %eax,%esi
    fb9e:	bf fb ff ff ff       	mov    $0xfffffffb,%edi
    fba3:	e8 0b 98 ff ff       	callq  93b3 <safe_add_func_int16_t_s_s>
    fba8:	98                   	cwtl   
    fba9:	89 85 70 e6 ff ff    	mov    %eax,-0x1990(%rbp)
    fbaf:	83 ad b0 e6 ff ff 01 	subl   $0x1,-0x1950(%rbp)
    fbb6:	eb 4c                	jmp    fc04 <func_76+0x1485>
    fbb8:	48 8d 85 50 eb ff ff 	lea    -0x14b0(%rbp),%rax
    fbbf:	48 83 c0 04          	add    $0x4,%rax
    fbc3:	48 89 85 78 e9 ff ff 	mov    %rax,-0x1688(%rbp)
    fbca:	48 8b 85 f8 e6 ff ff 	mov    -0x1908(%rbp),%rax
    fbd1:	48 8b 95 78 e9 ff ff 	mov    -0x1688(%rbp),%rdx
    fbd8:	48 89 10             	mov    %rdx,(%rax)
    fbdb:	48 83 bd 50 e7 ff ff 	cmpq   $0x0,-0x18b0(%rbp)
    fbe2:	00 
    fbe3:	0f 94 c0             	sete   %al
    fbe6:	0f b6 d0             	movzbl %al,%edx
    fbe9:	48 8b 85 78 e9 ff ff 	mov    -0x1688(%rbp),%rax
    fbf0:	89 10                	mov    %edx,(%rax)
    fbf2:	48 8b 85 78 e9 ff ff 	mov    -0x1688(%rbp),%rax
    fbf9:	8b 10                	mov    (%rax),%edx
    fbfb:	48 8b 85 50 e9 ff ff 	mov    -0x16b0(%rbp),%rax
    fc02:	89 10                	mov    %edx,(%rax)
    fc04:	48 8b 85 68 e9 ff ff 	mov    -0x1698(%rbp),%rax
    fc0b:	48 c7 00 00 00 00 00 	movq   $0x0,(%rax)
    fc12:	48 8b 15 07 d8 00 00 	mov    0xd807(%rip),%rdx        # 1d420 <g_205>
    fc19:	48 8b 85 70 e9 ff ff 	mov    -0x1690(%rbp),%rax
    fc20:	48 89 10             	mov    %rdx,(%rax)
    fc23:	48 8b 85 18 ea ff ff 	mov    -0x15e8(%rbp),%rax
    fc2a:	48 85 c0             	test   %rax,%rax
    fc2d:	0f 94 c2             	sete   %dl
    fc30:	48 8b 05 a9 d7 00 00 	mov    0xd7a9(%rip),%rax        # 1d3e0 <g_91>
    fc37:	0f b6 d2             	movzbl %dl,%edx
    fc3a:	89 10                	mov    %edx,(%rax)
    fc3c:	8b 05 e6 a4 00 00    	mov    0xa4e6(%rip),%eax        # 1a128 <g_95>
    fc42:	83 c0 01             	add    $0x1,%eax
    fc45:	89 05 dd a4 00 00    	mov    %eax,0xa4dd(%rip)        # 1a128 <g_95>
    fc4b:	8b 05 d7 a4 00 00    	mov    0xa4d7(%rip),%eax        # 1a128 <g_95>
    fc51:	83 f8 04             	cmp    $0x4,%eax
    fc54:	0f 8e 56 f9 ff ff    	jle    f5b0 <func_76+0xe31>
    fc5a:	48 8b 85 f8 e7 ff ff 	mov    -0x1808(%rbp),%rax
    fc61:	8b 10                	mov    (%rax),%edx
    fc63:	48 8b 85 80 e5 ff ff 	mov    -0x1a80(%rbp),%rax
    fc6a:	8b 00                	mov    (%rax),%eax
    fc6c:	21 c2                	and    %eax,%edx
    fc6e:	48 8b 85 f8 e7 ff ff 	mov    -0x1808(%rbp),%rax
    fc75:	89 10                	mov    %edx,(%rax)
    fc77:	8b 05 8f a4 00 00    	mov    0xa48f(%rip),%eax        # 1a10c <g_12>
    fc7d:	89 c3                	mov    %eax,%ebx
    fc7f:	0f b6 05 3a a6 00 00 	movzbl 0xa63a(%rip),%eax        # 1a2c0 <g_126>
    fc86:	0f b6 c0             	movzbl %al,%eax
    fc89:	89 c6                	mov    %eax,%esi
    fc8b:	bf 14 e1 00 00       	mov    $0xe114,%edi
    fc90:	e8 e5 a1 ff ff       	callq  9e7a <safe_rshift_func_uint16_t_u_u>
    fc95:	0f b7 c0             	movzwl %ax,%eax
    fc98:	89 de                	mov    %ebx,%esi
    fc9a:	89 c7                	mov    %eax,%edi
    fc9c:	e8 5c a2 ff ff       	callq  9efd <safe_mod_func_uint32_t_u_u>
    fca1:	89 c2                	mov    %eax,%edx
    fca3:	48 8b 05 be d7 00 00 	mov    0xd7be(%rip),%rax        # 1d468 <g_214>
    fcaa:	48 85 c0             	test   %rax,%rax
    fcad:	0f 95 c0             	setne  %al
    fcb0:	0f b6 c0             	movzbl %al,%eax
    fcb3:	48 89 d6             	mov    %rdx,%rsi
    fcb6:	48 89 c7             	mov    %rax,%rdi
    fcb9:	e8 f1 a3 ff ff       	callq  a0af <safe_div_func_uint64_t_u_u>
    fcbe:	0f b7 85 8c e5 ff ff 	movzwl -0x1a74(%rbp),%eax
    fcc5:	98                   	cwtl   
    fcc6:	23 85 88 e5 ff ff    	and    -0x1a78(%rbp),%eax
    fccc:	89 c2                	mov    %eax,%edx
    fcce:	8b 05 44 a4 00 00    	mov    0xa444(%rip),%eax        # 1a118 <g_20>
    fcd4:	48 98                	cltq   
    fcd6:	48 89 d6             	mov    %rdx,%rsi
    fcd9:	48 89 c7             	mov    %rax,%rdi
    fcdc:	e8 6a a3 ff ff       	callq  a04b <safe_sub_func_uint64_t_u_u>
    fce1:	48 8b 85 50 e9 ff ff 	mov    -0x16b0(%rbp),%rax
    fce8:	c7 00 01 00 00 00    	movl   $0x1,(%rax)
    fcee:	48 c7 05 cf a5 00 00 	movq   $0x4,0xa5cf(%rip)        # 1a2c8 <g_181>
    fcf5:	04 00 00 00 
    fcf9:	eb 64                	jmp    fd5f <func_76+0x15e0>
    fcfb:	c7 85 a4 e6 ff ff cd 	movl   $0x8bb56dcd,-0x195c(%rbp)
    fd02:	6d b5 8b 
    fd05:	c7 85 a8 e6 ff ff ef 	movl   $0x941c5eef,-0x1958(%rbp)
    fd0c:	5e 1c 94 
    fd0f:	c7 85 08 e6 ff ff 00 	movl   $0x0,-0x19f8(%rbp)
    fd16:	00 00 00 
    fd19:	eb 1a                	jmp    fd35 <func_76+0x15b6>
    fd1b:	8b 85 08 e6 ff ff    	mov    -0x19f8(%rbp),%eax
    fd21:	48 98                	cltq   
    fd23:	c7 84 85 80 f4 ff ff 	movl   $0xfffffffa,-0xb80(%rbp,%rax,4)
    fd2a:	fa ff ff ff 
    fd2e:	83 85 08 e6 ff ff 01 	addl   $0x1,-0x19f8(%rbp)
    fd35:	83 bd 08 e6 ff ff 05 	cmpl   $0x5,-0x19f8(%rbp)
    fd3c:	7e dd                	jle    fd1b <func_76+0x159c>
    fd3e:	8b 85 3c ea ff ff    	mov    -0x15c4(%rbp),%eax
    fd44:	83 e8 01             	sub    $0x1,%eax
    fd47:	89 85 3c ea ff ff    	mov    %eax,-0x15c4(%rbp)
    fd4d:	48 8b 05 74 a5 00 00 	mov    0xa574(%rip),%rax        # 1a2c8 <g_181>
    fd54:	48 83 e8 01          	sub    $0x1,%rax
    fd58:	48 89 05 69 a5 00 00 	mov    %rax,0xa569(%rip)        # 1a2c8 <g_181>
    fd5f:	48 8b 05 62 a5 00 00 	mov    0xa562(%rip),%rax        # 1a2c8 <g_181>
    fd66:	48 85 c0             	test   %rax,%rax
    fd69:	79 90                	jns    fcfb <func_76+0x157c>
    fd6b:	0f b6 05 ba a3 00 00 	movzbl 0xa3ba(%rip),%eax        # 1a12c <g_112>
    fd72:	83 c0 01             	add    $0x1,%eax
    fd75:	88 05 b1 a3 00 00    	mov    %al,0xa3b1(%rip)        # 1a12c <g_112>
    fd7b:	0f b6 05 aa a3 00 00 	movzbl 0xa3aa(%rip),%eax        # 1a12c <g_112>
    fd82:	3c 04                	cmp    $0x4,%al
    fd84:	0f 86 cd f7 ff ff    	jbe    f557 <func_76+0xdd8>
    fd8a:	c7 05 88 a3 00 00 00 	movl   $0x0,0xa388(%rip)        # 1a11c <g_25>
    fd91:	00 00 00 
    fd94:	e9 92 03 00 00       	jmpq   1012b <func_76+0x19ac>
    fd99:	c7 85 0c e6 ff ff 93 	movl   $0xc54ac593,-0x19f4(%rbp)
    fda0:	c5 4a c5 
    fda3:	48 8d 05 0e a5 00 00 	lea    0xa50e(%rip),%rax        # 1a2b8 <g_118>
    fdaa:	48 89 85 38 e7 ff ff 	mov    %rax,-0x18c8(%rbp)
    fdb1:	48 8d 85 38 e7 ff ff 	lea    -0x18c8(%rbp),%rax
    fdb8:	48 89 85 a0 e8 ff ff 	mov    %rax,-0x1760(%rbp)
    fdbf:	48 c7 05 fe a4 00 00 	movq   $0x0,0xa4fe(%rip)        # 1a2c8 <g_181>
    fdc6:	00 00 00 00 
    fdca:	e9 1d 03 00 00       	jmpq   100ec <func_76+0x196d>
    fdcf:	48 8d 85 38 e7 ff ff 	lea    -0x18c8(%rbp),%rax
    fdd6:	48 89 85 40 e7 ff ff 	mov    %rax,-0x18c0(%rbp)
    fddd:	48 8d 85 40 e7 ff ff 	lea    -0x18c0(%rbp),%rax
    fde4:	48 89 85 a8 e8 ff ff 	mov    %rax,-0x1758(%rbp)
    fdeb:	c7 85 10 e6 ff ff 00 	movl   $0x0,-0x19f0(%rbp)
    fdf2:	00 00 00 
    fdf5:	eb 1a                	jmp    fe11 <func_76+0x1692>
    fdf7:	8b 85 10 e6 ff ff    	mov    -0x19f0(%rbp),%eax
    fdfd:	48 98                	cltq   
    fdff:	c7 84 85 90 f9 ff ff 	movl   $0x8891e804,-0x670(%rbp,%rax,4)
    fe06:	04 e8 91 88 
    fe0a:	83 85 10 e6 ff ff 01 	addl   $0x1,-0x19f0(%rbp)
    fe11:	83 bd 10 e6 ff ff 02 	cmpl   $0x2,-0x19f0(%rbp)
    fe18:	7e dd                	jle    fdf7 <func_76+0x1678>
    fe1a:	8b 85 88 e5 ff ff    	mov    -0x1a78(%rbp),%eax
    fe20:	0f be c0             	movsbl %al,%eax
    fe23:	89 c6                	mov    %eax,%esi
    fe25:	bf e5 ff ff ff       	mov    $0xffffffe5,%edi
    fe2a:	e8 3b 94 ff ff       	callq  926a <safe_div_func_int8_t_s_s>
    fe2f:	8b 95 d4 eb ff ff    	mov    -0x142c(%rbp),%edx
    fe35:	0f be c0             	movsbl %al,%eax
    fe38:	31 d0                	xor    %edx,%eax
    fe3a:	89 85 d4 eb ff ff    	mov    %eax,-0x142c(%rbp)
    fe40:	83 ad 0c e6 ff ff 01 	subl   $0x1,-0x19f4(%rbp)
    fe47:	48 8b 85 a8 e8 ff ff 	mov    -0x1758(%rbp),%rax
    fe4e:	48 8b 95 a0 e8 ff ff 	mov    -0x1760(%rbp),%rdx
    fe55:	48 89 10             	mov    %rdx,(%rax)
    fe58:	48 c7 85 30 e7 ff ff 	movq   $0x0,-0x18d0(%rbp)
    fe5f:	00 00 00 00 
    fe63:	e9 58 02 00 00       	jmpq   100c0 <func_76+0x1941>
    fe68:	48 8d 85 08 e7 ff ff 	lea    -0x18f8(%rbp),%rax
    fe6f:	48 89 85 b0 e8 ff ff 	mov    %rax,-0x1750(%rbp)
    fe76:	48 c7 85 b8 e8 ff ff 	movq   $0x0,-0x1748(%rbp)
    fe7d:	00 00 00 00 
    fe81:	48 8d 05 34 a5 00 00 	lea    0xa534(%rip),%rax        # 1a3bc <g_256>
    fe88:	48 89 85 c0 e8 ff ff 	mov    %rax,-0x1740(%rbp)
    fe8f:	48 8d 85 c0 eb ff ff 	lea    -0x1440(%rbp),%rax
    fe96:	48 83 c0 0c          	add    $0xc,%rax
    fe9a:	48 89 85 c8 e8 ff ff 	mov    %rax,-0x1738(%rbp)
    fea1:	48 8b 85 80 e5 ff ff 	mov    -0x1a80(%rbp),%rax
    fea8:	8b 10                	mov    (%rax),%edx
    feaa:	8b 05 6c a2 00 00    	mov    0xa26c(%rip),%eax        # 1a11c <g_25>
    feb0:	39 c2                	cmp    %eax,%edx
    feb2:	0f 94 c0             	sete   %al
    feb5:	0f b6 d8             	movzbl %al,%ebx
    feb8:	8b 0d 8e a2 00 00    	mov    0xa28e(%rip),%ecx        # 1a14c <g_113+0xc>
    febe:	48 8b b5 20 f2 ff ff 	mov    -0xde0(%rbp),%rsi
    fec5:	48 8b 95 08 e7 ff ff 	mov    -0x18f8(%rbp),%rdx
    fecc:	48 8b 85 b0 e8 ff ff 	mov    -0x1750(%rbp),%rax
    fed3:	48 89 10             	mov    %rdx,(%rax)
    fed6:	48 8b 85 b0 e8 ff ff 	mov    -0x1750(%rbp),%rax
    fedd:	48 8b 00             	mov    (%rax),%rax
    fee0:	48 39 c6             	cmp    %rax,%rsi
    fee3:	0f 95 c0             	setne  %al
    fee6:	0f b6 c0             	movzbl %al,%eax
    fee9:	31 c8                	xor    %ecx,%eax
    feeb:	41 89 c5             	mov    %eax,%r13d
    feee:	48 8b 05 2b d5 00 00 	mov    0xd52b(%rip),%rax        # 1d420 <g_205>
    fef5:	48 85 c0             	test   %rax,%rax
    fef8:	0f 95 c0             	setne  %al
    fefb:	44 0f b6 e0          	movzbl %al,%r12d
    feff:	8b 05 43 e9 00 00    	mov    0xe943(%rip),%eax        # 1e848 <g_2>
    ff05:	0f bf d0             	movswl %ax,%edx
    ff08:	48 8b 85 c0 e8 ff ff 	mov    -0x1740(%rbp),%rax
    ff0f:	0f b7 00             	movzwl (%rax),%eax
    ff12:	89 c6                	mov    %eax,%esi
    ff14:	48 8b 05 9d a3 00 00 	mov    0xa39d(%rip),%rax        # 1a2b8 <g_118>
    ff1b:	48 85 c0             	test   %rax,%rax
    ff1e:	0f 95 c0             	setne  %al
    ff21:	0f b6 c8             	movzbl %al,%ecx
    ff24:	0f b7 85 8c e5 ff ff 	movzwl -0x1a74(%rbp),%eax
    ff2b:	98                   	cwtl   
    ff2c:	39 c1                	cmp    %eax,%ecx
    ff2e:	0f 9c c0             	setl   %al
    ff31:	0f b6 c0             	movzbl %al,%eax
    ff34:	21 f0                	and    %esi,%eax
    ff36:	89 c1                	mov    %eax,%ecx
    ff38:	48 8b 85 c0 e8 ff ff 	mov    -0x1740(%rbp),%rax
    ff3f:	66 89 08             	mov    %cx,(%rax)
    ff42:	48 8b 85 c0 e8 ff ff 	mov    -0x1740(%rbp),%rax
    ff49:	0f b7 00             	movzwl (%rax),%eax
    ff4c:	0f b7 c8             	movzwl %ax,%ecx
    ff4f:	8b 85 d8 eb ff ff    	mov    -0x1428(%rbp),%eax
    ff55:	39 c1                	cmp    %eax,%ecx
    ff57:	0f 9d c0             	setge  %al
    ff5a:	0f b6 c0             	movzbl %al,%eax
    ff5d:	89 d6                	mov    %edx,%esi
    ff5f:	89 c7                	mov    %eax,%edi
    ff61:	e8 b0 94 ff ff       	callq  9416 <safe_mod_func_int16_t_s_s>
    ff66:	98                   	cwtl   
    ff67:	be 01 00 00 00       	mov    $0x1,%esi
    ff6c:	89 c7                	mov    %eax,%edi
    ff6e:	e8 5d 9f ff ff       	callq  9ed0 <safe_sub_func_uint32_t_u_u>
    ff73:	44 89 e2             	mov    %r12d,%edx
    ff76:	31 c2                	xor    %eax,%edx
    ff78:	48 8b 85 10 e8 ff ff 	mov    -0x17f0(%rbp),%rax
    ff7f:	48 8b 00             	mov    (%rax),%rax
    ff82:	8b 00                	mov    (%rax),%eax
    ff84:	21 d0                	and    %edx,%eax
    ff86:	41 39 c5             	cmp    %eax,%r13d
    ff89:	75 07                	jne    ff92 <func_76+0x1813>
    ff8b:	b8 01 00 00 00       	mov    $0x1,%eax
    ff90:	eb 05                	jmp    ff97 <func_76+0x1818>
    ff92:	b8 00 00 00 00       	mov    $0x0,%eax
    ff97:	be 01 00 00 00       	mov    $0x1,%esi
    ff9c:	89 c7                	mov    %eax,%edi
    ff9e:	e8 4b 93 ff ff       	callq  92ee <safe_lshift_func_int8_t_s_u>
    ffa3:	0f be c0             	movsbl %al,%eax
    ffa6:	39 c3                	cmp    %eax,%ebx
    ffa8:	0f 95 c0             	setne  %al
    ffab:	0f b6 d0             	movzbl %al,%edx
    ffae:	0f b7 85 8c e5 ff ff 	movzwl -0x1a74(%rbp),%eax
    ffb5:	98                   	cwtl   
    ffb6:	39 c2                	cmp    %eax,%edx
    ffb8:	0f 9c c0             	setl   %al
    ffbb:	0f b6 d0             	movzbl %al,%edx
    ffbe:	48 8b 85 f8 e7 ff ff 	mov    -0x1808(%rbp),%rax
    ffc5:	8b 00                	mov    (%rax),%eax
    ffc7:	21 c2                	and    %eax,%edx
    ffc9:	48 8b 85 f8 e7 ff ff 	mov    -0x1808(%rbp),%rax
    ffd0:	89 10                	mov    %edx,(%rax)
    ffd2:	48 8b 05 df a2 00 00 	mov    0xa2df(%rip),%rax        # 1a2b8 <g_118>
    ffd9:	0f bf d8             	movswl %ax,%ebx
    ffdc:	0f b6 05 49 a1 00 00 	movzbl 0xa149(%rip),%eax        # 1a12c <g_112>
    ffe3:	3c ff                	cmp    $0xff,%al
    ffe5:	0f 94 c0             	sete   %al
    ffe8:	44 0f b6 e0          	movzbl %al,%r12d
    ffec:	bf 77 95 00 00       	mov    $0x9577,%edi
    fff1:	e8 f3 9c ff ff       	callq  9ce9 <safe_unary_minus_func_uint16_t_u>
    fff6:	48 8b 85 c0 e8 ff ff 	mov    -0x1740(%rbp),%rax
    fffd:	0f b7 00             	movzwl (%rax),%eax
   10000:	89 c1                	mov    %eax,%ecx
   10002:	48 8b 05 5f d4 00 00 	mov    0xd45f(%rip),%rax        # 1d468 <g_214>
   10009:	48 8b 10             	mov    (%rax),%rdx
   1000c:	48 8b 85 b0 e8 ff ff 	mov    -0x1750(%rbp),%rax
   10013:	48 8b 00             	mov    (%rax),%rax
   10016:	48 8b 00             	mov    (%rax),%rax
   10019:	48 39 c2             	cmp    %rax,%rdx
   1001c:	0f 95 c0             	setne  %al
   1001f:	0f b6 c0             	movzbl %al,%eax
   10022:	21 c8                	and    %ecx,%eax
   10024:	89 c2                	mov    %eax,%edx
   10026:	48 8b 85 c0 e8 ff ff 	mov    -0x1740(%rbp),%rax
   1002d:	66 89 10             	mov    %dx,(%rax)
   10030:	48 8b 85 c0 e8 ff ff 	mov    -0x1740(%rbp),%rax
   10037:	0f b7 00             	movzwl (%rax),%eax
   1003a:	0f b7 c0             	movzwl %ax,%eax
   1003d:	be 59 bb 00 00       	mov    $0xbb59,%esi
   10042:	89 c7                	mov    %eax,%edi
   10044:	e8 f4 9c ff ff       	callq  9d3d <safe_mul_func_uint16_t_u_u>
   10049:	0f be c0             	movsbl %al,%eax
   1004c:	be bc ff ff ff       	mov    $0xffffffbc,%esi
   10051:	89 c7                	mov    %eax,%edi
   10053:	e8 ba 91 ff ff       	callq  9212 <safe_mul_func_int8_t_s_s>
   10058:	84 c0                	test   %al,%al
   1005a:	74 14                	je     10070 <func_76+0x18f1>
   1005c:	48 8b 85 c8 e8 ff ff 	mov    -0x1738(%rbp),%rax
   10063:	8b 00                	mov    (%rax),%eax
   10065:	85 c0                	test   %eax,%eax
   10067:	74 07                	je     10070 <func_76+0x18f1>
   10069:	ba 01 00 00 00       	mov    $0x1,%edx
   1006e:	eb 05                	jmp    10075 <func_76+0x18f6>
   10070:	ba 00 00 00 00       	mov    $0x0,%edx
   10075:	0f b7 85 8c e5 ff ff 	movzwl -0x1a74(%rbp),%eax
   1007c:	98                   	cwtl   
   1007d:	09 d0                	or     %edx,%eax
   1007f:	41 39 c4             	cmp    %eax,%r12d
   10082:	0f 9e c0             	setle  %al
   10085:	0f b6 c0             	movzbl %al,%eax
   10088:	89 de                	mov    %ebx,%esi
   1008a:	89 c7                	mov    %eax,%edi
   1008c:	e8 c4 93 ff ff       	callq  9455 <safe_div_func_int16_t_s_s>
   10091:	8b 95 98 f9 ff ff    	mov    -0x668(%rbp),%edx
   10097:	98                   	cwtl   
   10098:	09 d0                	or     %edx,%eax
   1009a:	89 85 98 f9 ff ff    	mov    %eax,-0x668(%rbp)
   100a0:	48 8b 85 30 e7 ff ff 	mov    -0x18d0(%rbp),%rax
   100a7:	0f b6 c0             	movzbl %al,%eax
   100aa:	be 02 00 00 00       	mov    $0x2,%esi
   100af:	89 c7                	mov    %eax,%edi
   100b1:	e8 c2 9a ff ff       	callq  9b78 <safe_sub_func_uint8_t_u_u>
   100b6:	0f b6 c0             	movzbl %al,%eax
   100b9:	48 89 85 30 e7 ff ff 	mov    %rax,-0x18d0(%rbp)
   100c0:	48 8b 85 30 e7 ff ff 	mov    -0x18d0(%rbp),%rax
   100c7:	48 83 f8 ec          	cmp    $0xffffffffffffffec,%rax
   100cb:	0f 85 97 fd ff ff    	jne    fe68 <func_76+0x16e9>
   100d1:	48 8b 05 f0 a1 00 00 	mov    0xa1f0(%rip),%rax        # 1a2c8 <g_181>
   100d8:	be 04 00 00 00       	mov    $0x4,%esi
   100dd:	48 89 c7             	mov    %rax,%rdi
   100e0:	e8 49 9f ff ff       	callq  a02e <safe_add_func_uint64_t_u_u>
   100e5:	48 89 05 dc a1 00 00 	mov    %rax,0xa1dc(%rip)        # 1a2c8 <g_181>
   100ec:	48 8b 05 d5 a1 00 00 	mov    0xa1d5(%rip),%rax        # 1a2c8 <g_181>
   100f3:	48 83 f8 11          	cmp    $0x11,%rax
   100f7:	0f 8f d2 fc ff ff    	jg     fdcf <func_76+0x1650>
   100fd:	48 8b 85 80 e5 ff ff 	mov    -0x1a80(%rbp),%rax
   10104:	8b 10                	mov    (%rax),%edx
   10106:	48 8b 85 f8 e7 ff ff 	mov    -0x1808(%rbp),%rax
   1010d:	89 10                	mov    %edx,(%rax)
   1010f:	48 8b 85 80 e5 ff ff 	mov    -0x1a80(%rbp),%rax
   10116:	8b 00                	mov    (%rax),%eax
   10118:	85 c0                	test   %eax,%eax
   1011a:	75 20                	jne    1013c <func_76+0x19bd>
   1011c:	8b 05 fa 9f 00 00    	mov    0x9ffa(%rip),%eax        # 1a11c <g_25>
   10122:	83 e8 01             	sub    $0x1,%eax
   10125:	89 05 f1 9f 00 00    	mov    %eax,0x9ff1(%rip)        # 1a11c <g_25>
   1012b:	8b 05 eb 9f 00 00    	mov    0x9feb(%rip),%eax        # 1a11c <g_25>
   10131:	83 f8 e9             	cmp    $0xffffffe9,%eax
   10134:	0f 8c 5f fc ff ff    	jl     fd99 <func_76+0x161a>
   1013a:	eb 01                	jmp    1013d <func_76+0x19be>
   1013c:	90                   	nop
   1013d:	8b 05 c9 9f 00 00    	mov    0x9fc9(%rip),%eax        # 1a10c <g_12>
   10143:	0f bf d0             	movswl %ax,%edx
   10146:	8b 05 c8 9f 00 00    	mov    0x9fc8(%rip),%eax        # 1a114 <g_17>
   1014c:	98                   	cwtl   
   1014d:	89 d6                	mov    %edx,%esi
   1014f:	89 c7                	mov    %eax,%edi
   10151:	e8 9f 92 ff ff       	callq  93f5 <safe_mul_func_int16_t_s_s>
   10156:	c6 85 a6 e5 ff ff fe 	movb   $0xfe,-0x1a5a(%rbp)
   1015d:	48 8d 05 58 a2 00 00 	lea    0xa258(%rip),%rax        # 1a3bc <g_256>
   10164:	48 89 85 d0 e8 ff ff 	mov    %rax,-0x1730(%rbp)
   1016b:	48 8d 05 aa a2 00 00 	lea    0xa2aa(%rip),%rax        # 1a41c <g_279+0x5c>
   10172:	48 89 85 d8 e8 ff ff 	mov    %rax,-0x1728(%rbp)
   10179:	48 c7 85 e0 e8 ff ff 	movq   $0xfffffffffffffffe,-0x1720(%rbp)
   10180:	fe ff ff ff 
   10184:	c7 85 8c e6 ff ff d1 	movl   $0x68d6c9d1,-0x1974(%rbp)
   1018b:	c9 d6 68 
   1018e:	48 8d 05 db a2 00 00 	lea    0xa2db(%rip),%rax        # 1a470 <g_380>
   10195:	48 89 85 e8 e8 ff ff 	mov    %rax,-0x1718(%rbp)
   1019c:	c7 85 d8 e5 ff ff 00 	movl   $0x0,-0x1a28(%rbp)
   101a3:	00 00 00 
   101a6:	eb 1e                	jmp    101c6 <func_76+0x1a47>
   101a8:	8b 85 d8 e5 ff ff    	mov    -0x1a28(%rbp),%eax
   101ae:	48 98                	cltq   
   101b0:	48 8d 15 a9 a2 00 00 	lea    0xa2a9(%rip),%rdx        # 1a460 <g_290+0x20>
   101b7:	48 89 94 c5 90 f9 ff 	mov    %rdx,-0x670(%rbp,%rax,8)
   101be:	ff 
   101bf:	83 85 d8 e5 ff ff 01 	addl   $0x1,-0x1a28(%rbp)
   101c6:	83 bd d8 e5 ff ff 07 	cmpl   $0x7,-0x1a28(%rbp)
   101cd:	7e d9                	jle    101a8 <func_76+0x1a29>
   101cf:	c7 85 d8 e5 ff ff 00 	movl   $0x0,-0x1a28(%rbp)
   101d6:	00 00 00 
   101d9:	eb 1a                	jmp    101f5 <func_76+0x1a76>
   101db:	8b 85 d8 e5 ff ff    	mov    -0x1a28(%rbp),%eax
   101e1:	48 98                	cltq   
   101e3:	c7 84 85 40 ec ff ff 	movl   $0xffffffff,-0x13c0(%rbp,%rax,4)
   101ea:	ff ff ff ff 
   101ee:	83 85 d8 e5 ff ff 01 	addl   $0x1,-0x1a28(%rbp)
   101f5:	83 bd d8 e5 ff ff 01 	cmpl   $0x1,-0x1a28(%rbp)
   101fc:	7e dd                	jle    101db <func_76+0x1a5c>
   101fe:	48 8b 85 00 e8 ff ff 	mov    -0x1800(%rbp),%rax
   10205:	48 8b 00             	mov    (%rax),%rax
   10208:	c7 00 00 00 00 00    	movl   $0x0,(%rax)
   1020e:	48 8b 85 10 e8 ff ff 	mov    -0x17f0(%rbp),%rax
   10215:	48 8b 00             	mov    (%rax),%rax
   10218:	8b 00                	mov    (%rax),%eax
   1021a:	0f b6 c0             	movzbl %al,%eax
   1021d:	be f8 00 00 00       	mov    $0xf8,%esi
   10222:	89 c7                	mov    %eax,%edi
   10224:	e8 6a 99 ff ff       	callq  9b93 <safe_mul_func_uint8_t_u_u>
   10229:	8b 05 19 e6 00 00    	mov    0xe619(%rip),%eax        # 1e848 <g_2>
   1022f:	0f b6 d0             	movzbl %al,%edx
   10232:	48 8b 85 e0 e8 ff ff 	mov    -0x1720(%rbp),%rax
   10239:	83 e0 07             	and    $0x7,%eax
   1023c:	89 c1                	mov    %eax,%ecx
   1023e:	8b 05 d0 9e 00 00    	mov    0x9ed0(%rip),%eax        # 1a114 <g_17>
   10244:	09 c8                	or     %ecx,%eax
   10246:	0f b6 c0             	movzbl %al,%eax
   10249:	89 d6                	mov    %edx,%esi
   1024b:	89 c7                	mov    %eax,%edi
   1024d:	e8 08 99 ff ff       	callq  9b5a <safe_add_func_uint8_t_u_u>
   10252:	0f b6 05 67 a0 00 00 	movzbl 0xa067(%rip),%eax        # 1a2c0 <g_126>
   10259:	0f b6 c0             	movzbl %al,%eax
   1025c:	39 85 88 e5 ff ff    	cmp    %eax,-0x1a78(%rbp)
   10262:	0f 94 c0             	sete   %al
   10265:	0f b6 c0             	movzbl %al,%eax
   10268:	89 05 d6 a1 00 00    	mov    %eax,0xa1d6(%rip)        # 1a444 <g_290+0x4>
   1026e:	8b 05 d0 a1 00 00    	mov    0xa1d0(%rip),%eax        # 1a444 <g_290+0x4>
   10274:	be 4c 02 34 17       	mov    $0x1734024c,%esi
   10279:	89 c7                	mov    %eax,%edi
   1027b:	e8 7d 9c ff ff       	callq  9efd <safe_mod_func_uint32_t_u_u>
   10280:	be 29 00 00 00       	mov    $0x29,%esi
   10285:	bf 01 00 00 00       	mov    $0x1,%edi
   1028a:	e8 4c 99 ff ff       	callq  9bdb <safe_div_func_uint8_t_u_u>
   1028f:	0f b6 d8             	movzbl %al,%ebx
   10292:	66 0f be 95 a6 e5 ff 	movsbw -0x1a5a(%rbp),%dx
   10299:	ff 
   1029a:	48 8b 85 d0 e8 ff ff 	mov    -0x1730(%rbp),%rax
   102a1:	66 89 10             	mov    %dx,(%rax)
   102a4:	48 8b 85 d0 e8 ff ff 	mov    -0x1730(%rbp),%rax
   102ab:	0f b7 00             	movzwl (%rax),%eax
   102ae:	0f b7 c0             	movzwl %ax,%eax
   102b1:	be 02 00 00 00       	mov    $0x2,%esi
   102b6:	89 c7                	mov    %eax,%edi
   102b8:	e8 01 9b ff ff       	callq  9dbe <safe_lshift_func_uint16_t_u_s>
   102bd:	88 05 fe 9f 00 00    	mov    %al,0x9ffe(%rip)        # 1a2c1 <g_178>
   102c3:	0f b6 05 f7 9f 00 00 	movzbl 0x9ff7(%rip),%eax        # 1a2c1 <g_178>
   102ca:	0f be d0             	movsbl %al,%edx
   102cd:	0f b7 85 8c e5 ff ff 	movzwl -0x1a74(%rbp),%eax
   102d4:	0f bf c8             	movswl %ax,%ecx
   102d7:	48 8b 85 d8 e8 ff ff 	mov    -0x1728(%rbp),%rax
   102de:	8b 00                	mov    (%rax),%eax
   102e0:	25 8b 02 bf 88       	and    $0x88bf028b,%eax
   102e5:	89 c6                	mov    %eax,%esi
   102e7:	48 8b 85 d8 e8 ff ff 	mov    -0x1728(%rbp),%rax
   102ee:	89 30                	mov    %esi,(%rax)
   102f0:	48 8b 85 d8 e8 ff ff 	mov    -0x1728(%rbp),%rax
   102f7:	8b 00                	mov    (%rax),%eax
   102f9:	83 f8 08             	cmp    $0x8,%eax
   102fc:	0f 95 c0             	setne  %al
   102ff:	0f b6 c0             	movzbl %al,%eax
   10302:	39 c1                	cmp    %eax,%ecx
   10304:	0f 9f c0             	setg   %al
   10307:	0f b6 c0             	movzbl %al,%eax
   1030a:	39 c2                	cmp    %eax,%edx
   1030c:	0f 94 c0             	sete   %al
   1030f:	0f b6 c0             	movzbl %al,%eax
   10312:	48 89 de             	mov    %rbx,%rsi
   10315:	48 89 c7             	mov    %rax,%rdi
   10318:	e8 97 96 ff ff       	callq  99b4 <safe_mod_func_int64_t_s_s>
   1031d:	48 89 c2             	mov    %rax,%rdx
   10320:	48 8b 85 00 e7 ff ff 	mov    -0x1900(%rbp),%rax
   10327:	0f b6 00             	movzbl (%rax),%eax
   1032a:	89 c1                	mov    %eax,%ecx
   1032c:	89 d0                	mov    %edx,%eax
   1032e:	31 c1                	xor    %eax,%ecx
   10330:	89 ca                	mov    %ecx,%edx
   10332:	48 8b 85 00 e7 ff ff 	mov    -0x1900(%rbp),%rax
   10339:	88 10                	mov    %dl,(%rax)
   1033b:	0f b6 00             	movzbl (%rax),%eax
   1033e:	0f b6 d0             	movzbl %al,%edx
   10341:	0f b7 05 00 9f 00 00 	movzwl 0x9f00(%rip),%eax        # 1a248 <g_117+0x68>
   10348:	98                   	cwtl   
   10349:	21 d0                	and    %edx,%eax
   1034b:	85 c0                	test   %eax,%eax
   1034d:	0f 84 53 03 00 00    	je     106a6 <func_76+0x1f27>
   10353:	48 b8 94 60 b4 3b 55 	movabs $0xa85748553bb46094,%rax
   1035a:	48 57 a8 
   1035d:	48 89 85 40 e7 ff ff 	mov    %rax,-0x18c0(%rbp)
   10364:	48 c7 85 08 e9 ff ff 	movq   $0x0,-0x16f8(%rbp)
   1036b:	00 00 00 00 
   1036f:	48 8d 85 40 e7 ff ff 	lea    -0x18c0(%rbp),%rax
   10376:	48 89 85 10 e9 ff ff 	mov    %rax,-0x16f0(%rbp)
   1037d:	c7 85 f0 e5 ff ff 00 	movl   $0x0,-0x1a10(%rbp)
   10384:	00 00 00 
   10387:	e9 bf 01 00 00       	jmpq   1054b <func_76+0x1dcc>
   1038c:	48 c7 85 18 e9 ff ff 	movq   $0x0,-0x16e8(%rbp)
   10393:	00 00 00 00 
   10397:	48 c7 85 20 e9 ff ff 	movq   $0x0,-0x16e0(%rbp)
   1039e:	00 00 00 00 
   103a2:	48 8d 05 9f 9e 00 00 	lea    0x9e9f(%rip),%rax        # 1a248 <g_117+0x68>
   103a9:	48 89 85 28 e9 ff ff 	mov    %rax,-0x16d8(%rbp)
   103b0:	48 8b 85 f8 e6 ff ff 	mov    -0x1908(%rbp),%rax
   103b7:	48 8b 00             	mov    (%rax),%rax
   103ba:	44 8b 30             	mov    (%rax),%r14d
   103bd:	48 c7 85 88 e8 ff ff 	movq   $0x0,-0x1778(%rbp)
   103c4:	00 00 00 00 
   103c8:	48 8b 85 88 e8 ff ff 	mov    -0x1778(%rbp),%rax
   103cf:	48 3b 85 18 e9 ff ff 	cmp    -0x16e8(%rbp),%rax
   103d6:	0f 95 c0             	setne  %al
   103d9:	0f b6 d0             	movzbl %al,%edx
   103dc:	0f b7 85 8c e5 ff ff 	movzwl -0x1a74(%rbp),%eax
   103e3:	98                   	cwtl   
   103e4:	89 d6                	mov    %edx,%esi
   103e6:	89 c7                	mov    %eax,%edi
   103e8:	e8 76 91 ff ff       	callq  9563 <safe_rshift_func_int16_t_s_u>
   103ed:	41 89 c5             	mov    %eax,%r13d
   103f0:	0f be 9d a6 e5 ff ff 	movsbl -0x1a5a(%rbp),%ebx
   103f7:	0f b7 85 8c e5 ff ff 	movzwl -0x1a74(%rbp),%eax
   103fe:	44 0f b6 e0          	movzbl %al,%r12d
   10402:	48 8b 85 e0 e8 ff ff 	mov    -0x1720(%rbp),%rax
   10409:	0f b7 d0             	movzwl %ax,%edx
   1040c:	0f b7 85 8c e5 ff ff 	movzwl -0x1a74(%rbp),%eax
   10413:	98                   	cwtl   
   10414:	33 85 88 e5 ff ff    	xor    -0x1a78(%rbp),%eax
   1041a:	83 f8 2f             	cmp    $0x2f,%eax
   1041d:	74 11                	je     10430 <func_76+0x1cb1>
   1041f:	8b 05 f7 9c 00 00    	mov    0x9cf7(%rip),%eax        # 1a11c <g_25>
   10425:	85 c0                	test   %eax,%eax
   10427:	74 07                	je     10430 <func_76+0x1cb1>
   10429:	b8 01 00 00 00       	mov    $0x1,%eax
   1042e:	eb 05                	jmp    10435 <func_76+0x1cb6>
   10430:	b8 00 00 00 00       	mov    $0x0,%eax
   10435:	89 c1                	mov    %eax,%ecx
   10437:	48 8b 85 d0 e8 ff ff 	mov    -0x1730(%rbp),%rax
   1043e:	66 89 08             	mov    %cx,(%rax)
   10441:	48 8b 85 d0 e8 ff ff 	mov    -0x1730(%rbp),%rax
   10448:	0f b7 00             	movzwl (%rax),%eax
   1044b:	0f b7 c0             	movzwl %ax,%eax
   1044e:	89 d6                	mov    %edx,%esi
   10450:	89 c7                	mov    %eax,%edi
   10452:	e8 a8 98 ff ff       	callq  9cff <safe_add_func_uint16_t_u_u>
   10457:	b8 01 00 00 00       	mov    $0x1,%eax
   1045c:	89 c2                	mov    %eax,%edx
   1045e:	0f be 85 a6 e5 ff ff 	movsbl -0x1a5a(%rbp),%eax
   10465:	89 d6                	mov    %edx,%esi
   10467:	89 c7                	mov    %eax,%edi
   10469:	e8 f5 90 ff ff       	callq  9563 <safe_rshift_func_int16_t_s_u>
   1046e:	48 0f bf c0          	movswq %ax,%rax
   10472:	48 89 c6             	mov    %rax,%rsi
   10475:	48 c7 c7 f8 ff ff ff 	mov    $0xfffffffffffffff8,%rdi
   1047c:	e8 ad 9b ff ff       	callq  a02e <safe_add_func_uint64_t_u_u>
   10481:	48 85 c0             	test   %rax,%rax
   10484:	75 0d                	jne    10493 <func_76+0x1d14>
   10486:	48 8b 85 c8 e6 ff ff 	mov    -0x1938(%rbp),%rax
   1048d:	8b 00                	mov    (%rax),%eax
   1048f:	85 c0                	test   %eax,%eax
   10491:	74 07                	je     1049a <func_76+0x1d1b>
   10493:	b8 01 00 00 00       	mov    $0x1,%eax
   10498:	eb 05                	jmp    1049f <func_76+0x1d20>
   1049a:	b8 00 00 00 00       	mov    $0x0,%eax
   1049f:	98                   	cwtl   
   104a0:	be e5 5c 00 00       	mov    $0x5ce5,%esi
   104a5:	89 c7                	mov    %eax,%edi
   104a7:	e8 49 8f ff ff       	callq  93f5 <safe_mul_func_int16_t_s_s>
   104ac:	f7 d0                	not    %eax
   104ae:	66 c1 e8 0f          	shr    $0xf,%ax
   104b2:	0f b6 c0             	movzbl %al,%eax
   104b5:	44 89 e6             	mov    %r12d,%esi
   104b8:	89 c7                	mov    %eax,%edi
   104ba:	e8 d4 96 ff ff       	callq  9b93 <safe_mul_func_uint8_t_u_u>
   104bf:	0f b6 d0             	movzbl %al,%edx
   104c2:	48 8b 85 28 e9 ff ff 	mov    -0x16d8(%rbp),%rax
   104c9:	66 89 10             	mov    %dx,(%rax)
   104cc:	48 8b 85 28 e9 ff ff 	mov    -0x16d8(%rbp),%rax
   104d3:	0f b7 00             	movzwl (%rax),%eax
   104d6:	98                   	cwtl   
   104d7:	be 05 00 00 00       	mov    $0x5,%esi
   104dc:	89 c7                	mov    %eax,%edi
   104de:	e8 47 90 ff ff       	callq  952a <safe_rshift_func_int16_t_s_s>
   104e3:	0f b7 85 8c e5 ff ff 	movzwl -0x1a74(%rbp),%eax
   104ea:	98                   	cwtl   
   104eb:	89 de                	mov    %ebx,%esi
   104ed:	89 c7                	mov    %eax,%edi
   104ef:	e8 df 8e ff ff       	callq  93d3 <safe_sub_func_int16_t_s_s>
   104f4:	89 c2                	mov    %eax,%edx
   104f6:	8b 05 18 9c 00 00    	mov    0x9c18(%rip),%eax        # 1a114 <g_17>
   104fc:	09 d0                	or     %edx,%eax
   104fe:	0f be c0             	movsbl %al,%eax
   10501:	be da ff ff ff       	mov    $0xffffffda,%esi
   10506:	89 c7                	mov    %eax,%edi
   10508:	e8 5d 8d ff ff       	callq  926a <safe_div_func_int8_t_s_s>
   1050d:	66 98                	cbtw   
   1050f:	66 41 39 c5          	cmp    %ax,%r13w
   10513:	0f 9c c0             	setl   %al
   10516:	0f b6 c0             	movzbl %al,%eax
   10519:	41 39 c6             	cmp    %eax,%r14d
   1051c:	0f 9d c0             	setge  %al
   1051f:	0f b6 d0             	movzbl %al,%edx
   10522:	8b 85 d8 eb ff ff    	mov    -0x1428(%rbp),%eax
   10528:	09 d0                	or     %edx,%eax
   1052a:	89 85 d8 eb ff ff    	mov    %eax,-0x1428(%rbp)
   10530:	8b 85 f0 e5 ff ff    	mov    -0x1a10(%rbp),%eax
   10536:	48 98                	cltq   
   10538:	be 04 00 00 00       	mov    $0x4,%esi
   1053d:	48 89 c7             	mov    %rax,%rdi
   10540:	e8 63 93 ff ff       	callq  98a8 <safe_sub_func_int64_t_s_s>
   10545:	89 85 f0 e5 ff ff    	mov    %eax,-0x1a10(%rbp)
   1054b:	83 bd f0 e5 ff ff f1 	cmpl   $0xfffffff1,-0x1a10(%rbp)
   10552:	0f 8c 34 fe ff ff    	jl     1038c <func_76+0x1c0d>
   10558:	8b 85 e0 e9 ff ff    	mov    -0x1620(%rbp),%eax
   1055e:	48 63 d0             	movslq %eax,%rdx
   10561:	48 8b 85 10 e9 ff ff 	mov    -0x16f0(%rbp),%rax
   10568:	48 89 10             	mov    %rdx,(%rax)
   1056b:	48 8b 85 10 e9 ff ff 	mov    -0x16f0(%rbp),%rax
   10572:	48 8b 10             	mov    (%rax),%rdx
   10575:	8b 05 9d 9b 00 00    	mov    0x9b9d(%rip),%eax        # 1a118 <g_20>
   1057b:	48 98                	cltq   
   1057d:	48 39 c2             	cmp    %rax,%rdx
   10580:	0f 9d c2             	setge  %dl
   10583:	48 8b 05 56 ce 00 00 	mov    0xce56(%rip),%rax        # 1d3e0 <g_91>
   1058a:	0f b6 d2             	movzbl %dl,%edx
   1058d:	89 10                	mov    %edx,(%rax)
   1058f:	c6 85 9f e5 ff ff 00 	movb   $0x0,-0x1a61(%rbp)
   10596:	e9 cc 00 00 00       	jmpq   10667 <func_76+0x1ee8>
   1059b:	48 8d 05 d6 ce 00 00 	lea    0xced6(%rip),%rax        # 1d478 <g_325>
   105a2:	48 89 85 80 f4 ff ff 	mov    %rax,-0xb80(%rbp)
   105a9:	48 8d 05 c8 ce 00 00 	lea    0xcec8(%rip),%rax        # 1d478 <g_325>
   105b0:	48 89 85 88 f4 ff ff 	mov    %rax,-0xb78(%rbp)
   105b7:	48 8d 05 ba ce 00 00 	lea    0xceba(%rip),%rax        # 1d478 <g_325>
   105be:	48 89 85 90 f4 ff ff 	mov    %rax,-0xb70(%rbp)
   105c5:	48 8d 05 ac ce 00 00 	lea    0xceac(%rip),%rax        # 1d478 <g_325>
   105cc:	48 89 85 98 f4 ff ff 	mov    %rax,-0xb68(%rbp)
   105d3:	48 8d 05 9e ce 00 00 	lea    0xce9e(%rip),%rax        # 1d478 <g_325>
   105da:	48 89 85 a0 f4 ff ff 	mov    %rax,-0xb60(%rbp)
   105e1:	48 8d 05 90 ce 00 00 	lea    0xce90(%rip),%rax        # 1d478 <g_325>
   105e8:	48 89 85 a8 f4 ff ff 	mov    %rax,-0xb58(%rbp)
   105ef:	48 8d 05 82 ce 00 00 	lea    0xce82(%rip),%rax        # 1d478 <g_325>
   105f6:	48 89 85 b0 f4 ff ff 	mov    %rax,-0xb50(%rbp)
   105fd:	48 8b 85 20 e8 ff ff 	mov    -0x17e0(%rbp),%rax
   10604:	48 89 05 65 ce 00 00 	mov    %rax,0xce65(%rip)        # 1d470 <g_322>
   1060b:	48 8b 05 66 ce 00 00 	mov    0xce66(%rip),%rax        # 1d478 <g_325>
   10612:	48 89 85 20 e7 ff ff 	mov    %rax,-0x18e0(%rbp)
   10619:	48 8b 85 20 e7 ff ff 	mov    -0x18e0(%rbp),%rax
   10620:	48 89 05 51 ce 00 00 	mov    %rax,0xce51(%rip)        # 1d478 <g_325>
   10627:	0f b6 85 9f e5 ff ff 	movzbl -0x1a61(%rbp),%eax
   1062e:	0f be c0             	movsbl %al,%eax
   10631:	48 98                	cltq   
   10633:	48 8d 14 c5 00 00 00 	lea    0x0(,%rax,8),%rdx
   1063a:	00 
   1063b:	48 8d 05 de cd 00 00 	lea    0xcdde(%rip),%rax        # 1d420 <g_205>
   10642:	48 8b 04 02          	mov    (%rdx,%rax,1),%rax
   10646:	48 89 05 d3 cd 00 00 	mov    %rax,0xcdd3(%rip)        # 1d420 <g_205>
   1064d:	8b 85 e0 e9 ff ff    	mov    -0x1620(%rbp),%eax
   10653:	85 c0                	test   %eax,%eax
   10655:	75 21                	jne    10678 <func_76+0x1ef9>
   10657:	0f b6 85 9f e5 ff ff 	movzbl -0x1a61(%rbp),%eax
   1065e:	83 c0 01             	add    $0x1,%eax
   10661:	88 85 9f e5 ff ff    	mov    %al,-0x1a61(%rbp)
   10667:	0f b6 85 9f e5 ff ff 	movzbl -0x1a61(%rbp),%eax
   1066e:	3c 07                	cmp    $0x7,%al
   10670:	0f 8e 25 ff ff ff    	jle    1059b <func_76+0x1e1c>
   10676:	eb 01                	jmp    10679 <func_76+0x1efa>
   10678:	90                   	nop
   10679:	66 0f be 85 a6 e5 ff 	movsbw -0x1a5a(%rbp),%ax
   10680:	ff 
   10681:	0f b7 c0             	movzwl %ax,%eax
   10684:	be 01 00 00 00       	mov    $0x1,%esi
   10689:	89 c7                	mov    %eax,%edi
   1068b:	e8 b8 97 ff ff       	callq  9e48 <safe_rshift_func_uint16_t_u_s>
   10690:	89 c2                	mov    %eax,%edx
   10692:	48 8b 85 f8 e6 ff ff 	mov    -0x1908(%rbp),%rax
   10699:	48 8b 00             	mov    (%rax),%rax
   1069c:	0f b7 d2             	movzwl %dx,%edx
   1069f:	89 10                	mov    %edx,(%rax)
   106a1:	e9 0a 04 00 00       	jmpq   10ab0 <func_76+0x2331>
   106a6:	c7 85 90 e6 ff ff ff 	movl   $0xffffffff,-0x1970(%rbp)
   106ad:	ff ff ff 
   106b0:	48 c7 85 f0 e8 ff ff 	movq   $0x0,-0x1710(%rbp)
   106b7:	00 00 00 00 
   106bb:	48 8b 85 80 e5 ff ff 	mov    -0x1a80(%rbp),%rax
   106c2:	8b 00                	mov    (%rax),%eax
   106c4:	85 c0                	test   %eax,%eax
   106c6:	0f 84 38 01 00 00    	je     10804 <func_76+0x2085>
   106cc:	c7 85 94 e6 ff ff 00 	movl   $0x0,-0x196c(%rbp)
   106d3:	00 00 00 
   106d6:	48 c7 85 f8 e8 ff ff 	movq   $0x0,-0x1708(%rbp)
   106dd:	00 00 00 00 
   106e1:	48 8d 05 82 9b 00 00 	lea    0x9b82(%rip),%rax        # 1a26a <g_117+0x8a>
   106e8:	48 89 85 00 e9 ff ff 	mov    %rax,-0x1700(%rbp)
   106ef:	48 8b 85 f8 e6 ff ff 	mov    -0x1908(%rbp),%rax
   106f6:	48 c7 00 00 00 00 00 	movq   $0x0,(%rax)
   106fd:	8b 05 5d 9a 00 00    	mov    0x9a5d(%rip),%eax        # 1a160 <g_113+0x20>
   10703:	0f b6 d8             	movzbl %al,%ebx
   10706:	8b 85 88 e5 ff ff    	mov    -0x1a78(%rbp),%eax
   1070c:	44 0f b6 e0          	movzbl %al,%r12d
   10710:	8b 05 3a 9d 00 00    	mov    0x9d3a(%rip),%eax        # 1a450 <g_290+0x10>
   10716:	44 0f be e8          	movsbl %al,%r13d
   1071a:	8b 85 8c e6 ff ff    	mov    -0x1974(%rbp),%eax
   10720:	0f be c0             	movsbl %al,%eax
   10723:	be 06 00 00 00       	mov    $0x6,%esi
   10728:	89 c7                	mov    %eax,%edi
   1072a:	e8 02 8b ff ff       	callq  9231 <safe_mod_func_int8_t_s_s>
   1072f:	0f be c0             	movsbl %al,%eax
   10732:	44 89 ee             	mov    %r13d,%esi
   10735:	89 c7                	mov    %eax,%edi
   10737:	e8 d6 8a ff ff       	callq  9212 <safe_mul_func_int8_t_s_s>
   1073c:	0f be d0             	movsbl %al,%edx
   1073f:	0f b7 85 8c e5 ff ff 	movzwl -0x1a74(%rbp),%eax
   10746:	98                   	cwtl   
   10747:	09 d0                	or     %edx,%eax
   10749:	0b 85 88 e5 ff ff    	or     -0x1a78(%rbp),%eax
   1074f:	85 c0                	test   %eax,%eax
   10751:	75 07                	jne    1075a <func_76+0x1fdb>
   10753:	83 bd 94 e6 ff ff 00 	cmpl   $0x0,-0x196c(%rbp)
   1075a:	0f b7 85 8c e5 ff ff 	movzwl -0x1a74(%rbp),%eax
   10761:	0f b6 c0             	movzbl %al,%eax
   10764:	44 89 e6             	mov    %r12d,%esi
   10767:	89 c7                	mov    %eax,%edi
   10769:	e8 25 94 ff ff       	callq  9b93 <safe_mul_func_uint8_t_u_u>
   1076e:	48 8b 85 88 e8 ff ff 	mov    -0x1778(%rbp),%rax
   10775:	c6 00 01             	movb   $0x1,(%rax)
   10778:	48 8b 85 08 e7 ff ff 	mov    -0x18f8(%rbp),%rax
   1077f:	48 8b 00             	mov    (%rax),%rax
   10782:	48 8b 00             	mov    (%rax),%rax
   10785:	48 8b 95 88 e8 ff ff 	mov    -0x1778(%rbp),%rdx
   1078c:	0f b6 12             	movzbl (%rdx),%edx
   1078f:	88 10                	mov    %dl,(%rax)
   10791:	8b 85 88 e5 ff ff    	mov    -0x1a78(%rbp),%eax
   10797:	0f b6 c0             	movzbl %al,%eax
   1079a:	89 de                	mov    %ebx,%esi
   1079c:	89 c7                	mov    %eax,%edi
   1079e:	e8 d5 93 ff ff       	callq  9b78 <safe_sub_func_uint8_t_u_u>
   107a3:	3c 09                	cmp    $0x9,%al
   107a5:	8b 85 90 e6 ff ff    	mov    -0x1970(%rbp),%eax
   107ab:	89 c2                	mov    %eax,%edx
   107ad:	8b 85 94 e6 ff ff    	mov    -0x196c(%rbp),%eax
   107b3:	09 d0                	or     %edx,%eax
   107b5:	98                   	cwtl   
   107b6:	89 c7                	mov    %eax,%edi
   107b8:	e8 e0 8b ff ff       	callq  939d <safe_unary_minus_func_int16_t_s>
   107bd:	48 8b 95 00 e9 ff ff 	mov    -0x1700(%rbp),%rdx
   107c4:	66 89 02             	mov    %ax,(%rdx)
   107c7:	48 8b 85 00 e9 ff ff 	mov    -0x1700(%rbp),%rax
   107ce:	0f b7 00             	movzwl (%rax),%eax
   107d1:	98                   	cwtl   
   107d2:	be 07 00 00 00       	mov    $0x7,%esi
   107d7:	89 c7                	mov    %eax,%edi
   107d9:	e8 b4 8c ff ff       	callq  9492 <safe_lshift_func_int16_t_s_s>
   107de:	89 c2                	mov    %eax,%edx
   107e0:	48 8b 05 f9 cb 00 00 	mov    0xcbf9(%rip),%rax        # 1d3e0 <g_91>
   107e7:	0f bf d2             	movswl %dx,%edx
   107ea:	89 10                	mov    %edx,(%rax)
   107ec:	48 8b 85 f8 e6 ff ff 	mov    -0x1908(%rbp),%rax
   107f3:	48 8b 00             	mov    (%rax),%rax
   107f6:	48 85 c0             	test   %rax,%rax
   107f9:	0f 84 3f 02 00 00    	je     10a3e <func_76+0x22bf>
   107ff:	e9 2a 02 00 00       	jmpq   10a2e <func_76+0x22af>
   10804:	48 c7 85 40 e7 ff ff 	movq   $0x0,-0x18c0(%rbp)
   1080b:	00 00 00 00 
   1080f:	c7 85 dc e5 ff ff 00 	movl   $0x0,-0x1a24(%rbp)
   10816:	00 00 00 
   10819:	eb 1e                	jmp    10839 <func_76+0x20ba>
   1081b:	8b 85 dc e5 ff ff    	mov    -0x1a24(%rbp),%eax
   10821:	48 98                	cltq   
   10823:	48 8d 95 30 e7 ff ff 	lea    -0x18d0(%rbp),%rdx
   1082a:	48 89 94 c5 d0 ec ff 	mov    %rdx,-0x1330(%rbp,%rax,8)
   10831:	ff 
   10832:	83 85 dc e5 ff ff 01 	addl   $0x1,-0x1a24(%rbp)
   10839:	83 bd dc e5 ff ff 04 	cmpl   $0x4,-0x1a24(%rbp)
   10840:	7e d9                	jle    1081b <func_76+0x209c>
   10842:	c7 85 dc e5 ff ff 00 	movl   $0x0,-0x1a24(%rbp)
   10849:	00 00 00 
   1084c:	eb 1e                	jmp    1086c <func_76+0x20ed>
   1084e:	8b 85 dc e5 ff ff    	mov    -0x1a24(%rbp),%eax
   10854:	48 98                	cltq   
   10856:	48 8d 95 40 e7 ff ff 	lea    -0x18c0(%rbp),%rdx
   1085d:	48 89 94 c5 80 f4 ff 	mov    %rdx,-0xb80(%rbp,%rax,8)
   10864:	ff 
   10865:	83 85 dc e5 ff ff 01 	addl   $0x1,-0x1a24(%rbp)
   1086c:	83 bd dc e5 ff ff 04 	cmpl   $0x4,-0x1a24(%rbp)
   10873:	7e d9                	jle    1084e <func_76+0x20cf>
   10875:	48 8b 85 80 e5 ff ff 	mov    -0x1a80(%rbp),%rax
   1087c:	8b 00                	mov    (%rax),%eax
   1087e:	33 85 20 e6 ff ff    	xor    -0x19e0(%rbp),%eax
   10884:	89 c2                	mov    %eax,%edx
   10886:	48 8b 85 80 e5 ff ff 	mov    -0x1a80(%rbp),%rax
   1088d:	89 10                	mov    %edx,(%rax)
   1088f:	48 8b 05 ba df 00 00 	mov    0xdfba(%rip),%rax        # 1e850 <g_90>
   10896:	44 8b 28             	mov    (%rax),%r13d
   10899:	8b 05 c1 9b 00 00    	mov    0x9bc1(%rip),%eax        # 1a460 <g_290+0x20>
   1089f:	41 89 c6             	mov    %eax,%r14d
   108a2:	8b 05 70 98 00 00    	mov    0x9870(%rip),%eax        # 1a118 <g_20>
   108a8:	48 63 d8             	movslq %eax,%rbx
   108ab:	48 b8 21 0e 92 a6 f0 	movabs $0xad76d7f0a6920e21,%rax
   108b2:	d7 76 ad 
   108b5:	48 89 05 0c 9a 00 00 	mov    %rax,0x9a0c(%rip)        # 1a2c8 <g_181>
   108bc:	8b 85 88 e5 ff ff    	mov    -0x1a78(%rbp),%eax
   108c2:	44 0f b7 e0          	movzwl %ax,%r12d
   108c6:	48 8d 85 8c e5 ff ff 	lea    -0x1a74(%rbp),%rax
   108cd:	48 89 05 bc cb 00 00 	mov    %rax,0xcbbc(%rip)        # 1d490 <g_374+0x10>
   108d4:	48 8b 05 b5 cb 00 00 	mov    0xcbb5(%rip),%rax        # 1d490 <g_374+0x10>
   108db:	48 8d 15 66 99 00 00 	lea    0x9966(%rip),%rdx        # 1a248 <g_117+0x68>
   108e2:	48 39 d0             	cmp    %rdx,%rax
   108e5:	0f 94 c0             	sete   %al
   108e8:	0f b6 c0             	movzbl %al,%eax
   108eb:	39 85 88 e5 ff ff    	cmp    %eax,-0x1a78(%rbp)
   108f1:	0f 92 c0             	setb   %al
   108f4:	0f b6 c0             	movzbl %al,%eax
   108f7:	be 06 00 00 00       	mov    $0x6,%esi
   108fc:	89 c7                	mov    %eax,%edi
   108fe:	e8 32 8a ff ff       	callq  9335 <safe_rshift_func_int8_t_s_s>
   10903:	be 00 00 00 00       	mov    $0x0,%esi
   10908:	bf 01 00 00 00       	mov    $0x1,%edi
   1090d:	e8 8f 89 ff ff       	callq  92a1 <safe_lshift_func_int8_t_s_s>
   10912:	66 98                	cbtw   
   10914:	0f b7 c0             	movzwl %ax,%eax
   10917:	be 05 00 00 00       	mov    $0x5,%esi
   1091c:	89 c7                	mov    %eax,%edi
   1091e:	e8 9b 94 ff ff       	callq  9dbe <safe_lshift_func_uint16_t_u_s>
   10923:	0f b7 d0             	movzwl %ax,%edx
   10926:	48 8b 85 f8 e7 ff ff 	mov    -0x1808(%rbp),%rax
   1092d:	89 10                	mov    %edx,(%rax)
   1092f:	48 8b 85 f8 e7 ff ff 	mov    -0x1808(%rbp),%rax
   10936:	8b 10                	mov    (%rax),%edx
   10938:	0f be 85 a6 e5 ff ff 	movsbl -0x1a5a(%rbp),%eax
   1093f:	39 c2                	cmp    %eax,%edx
   10941:	74 11                	je     10954 <func_76+0x21d5>
   10943:	8b 85 e0 e9 ff ff    	mov    -0x1620(%rbp),%eax
   10949:	85 c0                	test   %eax,%eax
   1094b:	74 07                	je     10954 <func_76+0x21d5>
   1094d:	b8 01 00 00 00       	mov    $0x1,%eax
   10952:	eb 05                	jmp    10959 <func_76+0x21da>
   10954:	b8 00 00 00 00       	mov    $0x0,%eax
   10959:	89 c2                	mov    %eax,%edx
   1095b:	48 8b 85 d0 e8 ff ff 	mov    -0x1730(%rbp),%rax
   10962:	66 89 10             	mov    %dx,(%rax)
   10965:	48 8b 85 d0 e8 ff ff 	mov    -0x1730(%rbp),%rax
   1096c:	0f b7 00             	movzwl (%rax),%eax
   1096f:	0f b7 c0             	movzwl %ax,%eax
   10972:	44 89 e6             	mov    %r12d,%esi
   10975:	89 c7                	mov    %eax,%edi
   10977:	e8 83 93 ff ff       	callq  9cff <safe_add_func_uint16_t_u_u>
   1097c:	0f b7 d0             	movzwl %ax,%edx
   1097f:	0f b7 05 e0 9a 00 00 	movzwl 0x9ae0(%rip),%eax        # 1a466 <g_375>
   10986:	98                   	cwtl   
   10987:	39 c2                	cmp    %eax,%edx
   10989:	0f 9e c0             	setle  %al
   1098c:	0f b6 d0             	movzbl %al,%edx
   1098f:	0f b7 85 8c e5 ff ff 	movzwl -0x1a74(%rbp),%eax
   10996:	98                   	cwtl   
   10997:	39 c2                	cmp    %eax,%edx
   10999:	0f 9d c0             	setge  %al
   1099c:	0f b6 c0             	movzbl %al,%eax
   1099f:	be 29 00 00 00       	mov    $0x29,%esi
   109a4:	89 c7                	mov    %eax,%edi
   109a6:	e8 67 88 ff ff       	callq  9212 <safe_mul_func_int8_t_s_s>
   109ab:	48 0f be c0          	movsbq %al,%rax
   109af:	25 86 fa 00 00       	and    $0xfa86,%eax
   109b4:	48 89 de             	mov    %rbx,%rsi
   109b7:	48 89 c7             	mov    %rax,%rdi
   109ba:	e8 f0 96 ff ff       	callq  a0af <safe_div_func_uint64_t_u_u>
   109bf:	48 83 f8 01          	cmp    $0x1,%rax
   109c3:	0f 97 c0             	seta   %al
   109c6:	0f b6 d0             	movzbl %al,%edx
   109c9:	0f b7 05 96 9a 00 00 	movzwl 0x9a96(%rip),%eax        # 1a466 <g_375>
   109d0:	98                   	cwtl   
   109d1:	39 c2                	cmp    %eax,%edx
   109d3:	0f 9c c0             	setl   %al
   109d6:	0f b6 c0             	movzbl %al,%eax
   109d9:	be ff ff ff ff       	mov    $0xffffffff,%esi
   109de:	89 c7                	mov    %eax,%edi
   109e0:	e8 18 95 ff ff       	callq  9efd <safe_mod_func_uint32_t_u_u>
   109e5:	0f b7 d0             	movzwl %ax,%edx
   109e8:	8b 85 8c e6 ff ff    	mov    -0x1974(%rbp),%eax
   109ee:	0f b7 c0             	movzwl %ax,%eax
   109f1:	89 d6                	mov    %edx,%esi
   109f3:	89 c7                	mov    %eax,%edi
   109f5:	e8 05 93 ff ff       	callq  9cff <safe_add_func_uint16_t_u_u>
   109fa:	0f b7 c0             	movzwl %ax,%eax
   109fd:	4c 89 f6             	mov    %r14,%rsi
   10a00:	48 89 c7             	mov    %rax,%rdi
   10a03:	e8 a7 96 ff ff       	callq  a0af <safe_div_func_uint64_t_u_u>
   10a08:	48 83 f8 03          	cmp    $0x3,%rax
   10a0c:	0f 94 c0             	sete   %al
   10a0f:	0f b6 c0             	movzbl %al,%eax
   10a12:	41 39 c5             	cmp    %eax,%r13d
   10a15:	0f 95 c0             	setne  %al
   10a18:	0f b6 c0             	movzbl %al,%eax
   10a1b:	21 85 24 e6 ff ff    	and    %eax,-0x19dc(%rbp)
   10a21:	0f b7 85 8c e5 ff ff 	movzwl -0x1a74(%rbp),%eax
   10a28:	98                   	cwtl   
   10a29:	e9 e4 2c 00 00       	jmpq   13712 <func_76+0x4f93>
   10a2e:	83 bd 90 e6 ff ff 00 	cmpl   $0x0,-0x1970(%rbp)
   10a35:	74 07                	je     10a3e <func_76+0x22bf>
   10a37:	b8 01 00 00 00       	mov    $0x1,%eax
   10a3c:	eb 05                	jmp    10a43 <func_76+0x22c4>
   10a3e:	b8 00 00 00 00       	mov    $0x0,%eax
   10a43:	98                   	cwtl   
   10a44:	be 62 a1 ff ff       	mov    $0xffffa162,%esi
   10a49:	89 c7                	mov    %eax,%edi
   10a4b:	e8 83 89 ff ff       	callq  93d3 <safe_sub_func_int16_t_s_s>
   10a50:	0f b7 05 ad 97 00 00 	movzwl 0x97ad(%rip),%eax        # 1a204 <g_117+0x24>
   10a57:	66 85 c0             	test   %ax,%ax
   10a5a:	75 24                	jne    10a80 <func_76+0x2301>
   10a5c:	83 bd 88 e5 ff ff 00 	cmpl   $0x0,-0x1a78(%rbp)
   10a63:	0f 95 c0             	setne  %al
   10a66:	0f b6 d0             	movzbl %al,%edx
   10a69:	48 8b 85 d8 e8 ff ff 	mov    -0x1728(%rbp),%rax
   10a70:	89 10                	mov    %edx,(%rax)
   10a72:	48 8b 05 a7 c9 00 00 	mov    0xc9a7(%rip),%rax        # 1d420 <g_205>
   10a79:	48 39 85 e8 e8 ff ff 	cmp    %rax,-0x1718(%rbp)
   10a80:	48 8b 85 b8 ea ff ff 	mov    -0x1548(%rbp),%rax
   10a87:	48 89 85 80 e5 ff ff 	mov    %rax,-0x1a80(%rbp)
   10a8e:	48 8b 85 90 e8 ff ff 	mov    -0x1770(%rbp),%rax
   10a95:	48 8b 95 f0 e8 ff ff 	mov    -0x1710(%rbp),%rdx
   10a9c:	48 89 10             	mov    %rdx,(%rax)
   10a9f:	48 8b 95 80 e5 ff ff 	mov    -0x1a80(%rbp),%rdx
   10aa6:	48 8b 85 00 e8 ff ff 	mov    -0x1800(%rbp),%rax
   10aad:	48 89 10             	mov    %rdx,(%rax)
   10ab0:	c7 05 c8 99 00 00 fe 	movl   $0xfffffffe,0x99c8(%rip)        # 1a482 <g_380+0x12>
   10ab7:	ff ff ff 
   10aba:	e9 2a 01 00 00       	jmpq   10be9 <func_76+0x246a>
   10abf:	c7 85 98 e6 ff ff 09 	movl   $0x9,-0x1968(%rbp)
   10ac6:	00 00 00 
   10ac9:	c7 85 9c e6 ff ff 34 	movl   $0xc882e834,-0x1964(%rbp)
   10ad0:	e8 82 c8 
   10ad3:	c7 85 a0 e6 ff ff fd 	movl   $0xfffffffd,-0x1960(%rbp)
   10ada:	ff ff ff 
   10add:	66 c7 85 b0 e5 ff ff 	movw   $0x5,-0x1a50(%rbp)
   10ae4:	05 00 
   10ae6:	48 8d 05 73 c9 00 00 	lea    0xc973(%rip),%rax        # 1d460 <g_215>
   10aed:	48 89 85 30 e9 ff ff 	mov    %rax,-0x16d0(%rbp)
   10af4:	66 83 ad b0 e5 ff ff 	subw   $0x1,-0x1a50(%rbp)
   10afb:	01 
   10afc:	c6 05 bd 97 00 00 1d 	movb   $0x1d,0x97bd(%rip)        # 1a2c0 <g_126>
   10b03:	e9 c3 00 00 00       	jmpq   10bcb <func_76+0x244c>
   10b08:	48 c7 85 38 e9 ff ff 	movq   $0x0,-0x16c8(%rbp)
   10b0f:	00 00 00 00 
   10b13:	48 8d 05 60 99 00 00 	lea    0x9960(%rip),%rax        # 1a47a <g_380+0xa>
   10b1a:	48 89 85 40 e9 ff ff 	mov    %rax,-0x16c0(%rbp)
   10b21:	48 8d 05 a0 97 00 00 	lea    0x97a0(%rip),%rax        # 1a2c8 <g_181>
   10b28:	48 89 85 48 e9 ff ff 	mov    %rax,-0x16b8(%rbp)
   10b2f:	48 8b 85 40 e9 ff ff 	mov    -0x16c0(%rbp),%rax
   10b36:	48 c7 00 00 00 00 00 	movq   $0x0,(%rax)
   10b3d:	0f b7 85 8c e5 ff ff 	movzwl -0x1a74(%rbp),%eax
   10b44:	66 85 c0             	test   %ax,%ax
   10b47:	bb 00 00 00 00       	mov    $0x0,%ebx
   10b4c:	be 03 00 00 00       	mov    $0x3,%esi
   10b51:	bf a0 ff ff ff       	mov    $0xffffffa0,%edi
   10b56:	e8 93 87 ff ff       	callq  92ee <safe_lshift_func_int8_t_s_u>
   10b5b:	66 0f be d0          	movsbw %al,%dx
   10b5f:	0f b7 85 8c e5 ff ff 	movzwl -0x1a74(%rbp),%eax
   10b66:	66 39 c2             	cmp    %ax,%dx
   10b69:	0f 94 c0             	sete   %al
   10b6c:	0f b6 c0             	movzbl %al,%eax
   10b6f:	39 c3                	cmp    %eax,%ebx
   10b71:	0f 9f c0             	setg   %al
   10b74:	0f b6 d0             	movzbl %al,%edx
   10b77:	48 8b 85 48 e9 ff ff 	mov    -0x16b8(%rbp),%rax
   10b7e:	48 89 10             	mov    %rdx,(%rax)
   10b81:	48 8b 85 10 e7 ff ff 	mov    -0x18f0(%rbp),%rax
   10b88:	48 85 c0             	test   %rax,%rax
   10b8b:	0f 94 c0             	sete   %al
   10b8e:	0f b6 c0             	movzbl %al,%eax
   10b91:	89 85 40 ec ff ff    	mov    %eax,-0x13c0(%rbp)
   10b97:	c7 85 cc eb ff ff 00 	movl   $0x0,-0x1434(%rbp)
   10b9e:	00 00 00 
   10ba1:	48 8d 05 b8 c8 00 00 	lea    0xc8b8(%rip),%rax        # 1d460 <g_215>
   10ba8:	48 89 85 30 e9 ff ff 	mov    %rax,-0x16d0(%rbp)
   10baf:	0f b6 05 0a 97 00 00 	movzbl 0x970a(%rip),%eax        # 1a2c0 <g_126>
   10bb6:	0f b6 c0             	movzbl %al,%eax
   10bb9:	be 01 00 00 00       	mov    $0x1,%esi
   10bbe:	89 c7                	mov    %eax,%edi
   10bc0:	e8 f1 89 ff ff       	callq  95b6 <safe_add_func_int32_t_s_s>
   10bc5:	88 05 f5 96 00 00    	mov    %al,0x96f5(%rip)        # 1a2c0 <g_126>
   10bcb:	0f b6 05 ee 96 00 00 	movzbl 0x96ee(%rip),%eax        # 1a2c0 <g_126>
   10bd2:	3c 30                	cmp    $0x30,%al
   10bd4:	0f 86 2e ff ff ff    	jbe    10b08 <func_76+0x2389>
   10bda:	8b 05 a2 98 00 00    	mov    0x98a2(%rip),%eax        # 1a482 <g_380+0x12>
   10be0:	83 c0 01             	add    $0x1,%eax
   10be3:	89 05 99 98 00 00    	mov    %eax,0x9899(%rip)        # 1a482 <g_380+0x12>
   10be9:	8b 05 93 98 00 00    	mov    0x9893(%rip),%eax        # 1a482 <g_380+0x12>
   10bef:	83 f8 17             	cmp    $0x17,%eax
   10bf2:	0f 85 c7 fe ff ff    	jne    10abf <func_76+0x2340>
   10bf8:	48 8b 85 d8 e9 ff ff 	mov    -0x1628(%rbp),%rax
   10bff:	48 83 e8 01          	sub    $0x1,%rax
   10c03:	48 89 85 d8 e9 ff ff 	mov    %rax,-0x1628(%rbp)
   10c0a:	e9 e1 02 00 00       	jmpq   10ef0 <func_76+0x2771>
   10c0f:	48 c7 85 40 e8 ff ff 	movq   $0x0,-0x17c0(%rbp)
   10c16:	00 00 00 00 
   10c1a:	48 8d 85 20 e7 ff ff 	lea    -0x18e0(%rbp),%rax
   10c21:	48 89 85 48 e8 ff ff 	mov    %rax,-0x17b8(%rbp)
   10c28:	48 8d 05 71 c8 00 00 	lea    0xc871(%rip),%rax        # 1d4a0 <g_374+0x20>
   10c2f:	48 89 85 50 e8 ff ff 	mov    %rax,-0x17b0(%rbp)
   10c36:	c7 85 90 f9 ff ff 14 	movl   $0x76ec4814,-0x670(%rbp)
   10c3d:	48 ec 76 
   10c40:	c7 85 94 f9 ff ff 14 	movl   $0x76ec4814,-0x66c(%rbp)
   10c47:	48 ec 76 
   10c4a:	c7 85 98 f9 ff ff 14 	movl   $0x76ec4814,-0x668(%rbp)
   10c51:	48 ec 76 
   10c54:	c7 85 9c f9 ff ff 14 	movl   $0x76ec4814,-0x664(%rbp)
   10c5b:	48 ec 76 
   10c5e:	c7 85 a0 f9 ff ff 14 	movl   $0x76ec4814,-0x660(%rbp)
   10c65:	48 ec 76 
   10c68:	c7 85 84 e6 ff ff fc 	movl   $0x8d3e49fc,-0x197c(%rbp)
   10c6f:	49 3e 8d 
   10c72:	48 c7 85 58 e8 ff ff 	movq   $0x0,-0x17a8(%rbp)
   10c79:	00 00 00 00 
   10c7d:	48 8d 85 d0 e9 ff ff 	lea    -0x1630(%rbp),%rax
   10c84:	48 83 c0 08          	add    $0x8,%rax
   10c88:	48 89 85 60 e8 ff ff 	mov    %rax,-0x17a0(%rbp)
   10c8f:	48 8d 05 ce 97 00 00 	lea    0x97ce(%rip),%rax        # 1a464 <g_337>
   10c96:	48 89 85 68 e8 ff ff 	mov    %rax,-0x1798(%rbp)
   10c9d:	48 8d 05 6c 97 00 00 	lea    0x976c(%rip),%rax        # 1a410 <g_279+0x50>
   10ca4:	48 89 85 40 e7 ff ff 	mov    %rax,-0x18c0(%rbp)
   10cab:	48 8d 85 40 e7 ff ff 	lea    -0x18c0(%rbp),%rax
   10cb2:	48 89 85 70 e8 ff ff 	mov    %rax,-0x1790(%rbp)
   10cb9:	48 8d 85 d8 e6 ff ff 	lea    -0x1928(%rbp),%rax
   10cc0:	48 89 85 78 e8 ff ff 	mov    %rax,-0x1788(%rbp)
   10cc7:	48 8d 05 ac 97 00 00 	lea    0x97ac(%rip),%rax        # 1a47a <g_380+0xa>
   10cce:	48 89 85 80 e8 ff ff 	mov    %rax,-0x1780(%rbp)
   10cd5:	48 8b 85 48 e8 ff ff 	mov    -0x17b8(%rbp),%rax
   10cdc:	48 8b 95 58 e7 ff ff 	mov    -0x18a8(%rbp),%rdx
   10ce3:	48 89 10             	mov    %rdx,(%rax)
   10ce6:	8b 85 a0 f9 ff ff    	mov    -0x660(%rbp),%eax
   10cec:	89 c3                	mov    %eax,%ebx
   10cee:	48 8d 05 9b c7 00 00 	lea    0xc79b(%rip),%rax        # 1d490 <g_374+0x10>
   10cf5:	48 39 85 50 e8 ff ff 	cmp    %rax,-0x17b0(%rbp)
   10cfc:	0f 95 c0             	setne  %al
   10cff:	0f b6 c0             	movzbl %al,%eax
   10d02:	be 21 41 16 f7       	mov    $0xf7164121,%esi
   10d07:	89 c7                	mov    %eax,%edi
   10d09:	e8 17 92 ff ff       	callq  9f25 <safe_div_func_uint32_t_u_u>
   10d0e:	0f b7 c0             	movzwl %ax,%eax
   10d11:	89 de                	mov    %ebx,%esi
   10d13:	89 c7                	mov    %eax,%edi
   10d15:	e8 ec 90 ff ff       	callq  9e06 <safe_lshift_func_uint16_t_u_u>
   10d1a:	c7 85 a0 f9 ff ff 27 	movl   $0x27,-0x660(%rbp)
   10d21:	00 00 00 
   10d24:	8b 85 a0 f9 ff ff    	mov    -0x660(%rbp),%eax
   10d2a:	0f be d8             	movsbl %al,%ebx
   10d2d:	be 42 00 00 00       	mov    $0x42,%esi
   10d32:	bf 07 00 00 00       	mov    $0x7,%edi
   10d37:	e8 9f 8e ff ff       	callq  9bdb <safe_div_func_uint8_t_u_u>
   10d3c:	0f be c0             	movsbl %al,%eax
   10d3f:	89 de                	mov    %ebx,%esi
   10d41:	89 c7                	mov    %eax,%edi
   10d43:	e8 ca 84 ff ff       	callq  9212 <safe_mul_func_int8_t_s_s>
   10d48:	48 0f be c0          	movsbq %al,%rax
   10d4c:	48 89 c7             	mov    %rax,%rdi
   10d4f:	e8 c5 92 ff ff       	callq  a019 <safe_unary_minus_func_uint64_t_u>
   10d54:	8b 85 78 e6 ff ff    	mov    -0x1988(%rbp),%eax
   10d5a:	0f b7 c0             	movzwl %ax,%eax
   10d5d:	be 06 00 00 00       	mov    $0x6,%esi
   10d62:	89 c7                	mov    %eax,%edi
   10d64:	e8 df 90 ff ff       	callq  9e48 <safe_rshift_func_uint16_t_u_s>
   10d69:	0f b7 85 8c e5 ff ff 	movzwl -0x1a74(%rbp),%eax
   10d70:	66 85 c0             	test   %ax,%ax
   10d73:	74 07                	je     10d7c <func_76+0x25fd>
   10d75:	b9 01 00 00 00       	mov    $0x1,%ecx
   10d7a:	eb 05                	jmp    10d81 <func_76+0x2602>
   10d7c:	b9 00 00 00 00       	mov    $0x0,%ecx
   10d81:	48 8b 85 f8 e6 ff ff 	mov    -0x1908(%rbp),%rax
   10d88:	48 8b 00             	mov    (%rax),%rax
   10d8b:	8b 10                	mov    (%rax),%edx
   10d8d:	48 8b 85 f8 e6 ff ff 	mov    -0x1908(%rbp),%rax
   10d94:	48 8b 00             	mov    (%rax),%rax
   10d97:	21 ca                	and    %ecx,%edx
   10d99:	89 10                	mov    %edx,(%rax)
   10d9b:	48 8b 85 00 e8 ff ff 	mov    -0x1800(%rbp),%rax
   10da2:	48 8b 00             	mov    (%rax),%rax
   10da5:	8b 95 7c e6 ff ff    	mov    -0x1984(%rbp),%edx
   10dab:	89 10                	mov    %edx,(%rax)
   10dad:	48 8b 95 18 e8 ff ff 	mov    -0x17e8(%rbp),%rdx
   10db4:	48 8b 12             	mov    (%rdx),%rdx
   10db7:	48 8b 12             	mov    (%rdx),%rdx
   10dba:	8b 00                	mov    (%rax),%eax
   10dbc:	89 02                	mov    %eax,(%rdx)
   10dbe:	48 8b 85 60 e8 ff ff 	mov    -0x17a0(%rbp),%rax
   10dc5:	48 8b 00             	mov    (%rax),%rax
   10dc8:	48 8d 50 01          	lea    0x1(%rax),%rdx
   10dcc:	48 8b 85 60 e8 ff ff 	mov    -0x17a0(%rbp),%rax
   10dd3:	48 89 10             	mov    %rdx,(%rax)
   10dd6:	8b 05 38 93 00 00    	mov    0x9338(%rip),%eax        # 1a114 <g_17>
   10ddc:	89 c3                	mov    %eax,%ebx
   10dde:	8b 05 8c 96 00 00    	mov    0x968c(%rip),%eax        # 1a470 <g_380>
   10de4:	48 8b 8d f0 e6 ff ff 	mov    -0x1910(%rbp),%rcx
   10deb:	48 8b 95 70 e8 ff ff 	mov    -0x1790(%rbp),%rdx
   10df2:	48 89 0a             	mov    %rcx,(%rdx)
   10df5:	48 8b 95 70 e8 ff ff 	mov    -0x1790(%rbp),%rdx
   10dfc:	48 8b 12             	mov    (%rdx),%rdx
   10dff:	48 8d 0d 5a 96 00 00 	lea    0x965a(%rip),%rcx        # 1a460 <g_290+0x20>
   10e06:	48 39 ca             	cmp    %rcx,%rdx
   10e09:	89 c6                	mov    %eax,%esi
   10e0b:	bf 01 00 00 00       	mov    $0x1,%edi
   10e10:	e8 8c 84 ff ff       	callq  92a1 <safe_lshift_func_int8_t_s_s>
   10e15:	48 8b 85 68 e8 ff ff 	mov    -0x1798(%rbp),%rax
   10e1c:	0f b7 00             	movzwl (%rax),%eax
   10e1f:	8d 48 01             	lea    0x1(%rax),%ecx
   10e22:	48 8b 95 68 e8 ff ff 	mov    -0x1798(%rbp),%rdx
   10e29:	66 89 0a             	mov    %cx,(%rdx)
   10e2c:	0f b7 d0             	movzwl %ax,%edx
   10e2f:	0f b7 85 8c e5 ff ff 	movzwl -0x1a74(%rbp),%eax
   10e36:	98                   	cwtl   
   10e37:	21 d0                	and    %edx,%eax
   10e39:	85 c0                	test   %eax,%eax
   10e3b:	75 2a                	jne    10e67 <func_76+0x26e8>
   10e3d:	0f b7 85 8c e5 ff ff 	movzwl -0x1a74(%rbp),%eax
   10e44:	98                   	cwtl   
   10e45:	48 8b 95 50 e8 ff ff 	mov    -0x17b0(%rbp),%rdx
   10e4c:	48 8d 8d 8c e5 ff ff 	lea    -0x1a74(%rbp),%rcx
   10e53:	48 89 0a             	mov    %rcx,(%rdx)
   10e56:	89 c6                	mov    %eax,%esi
   10e58:	bf 00 00 00 00       	mov    $0x0,%edi
   10e5d:	e8 e6 8f ff ff       	callq  9e48 <safe_rshift_func_uint16_t_u_s>
   10e62:	66 85 c0             	test   %ax,%ax
   10e65:	74 07                	je     10e6e <func_76+0x26ef>
   10e67:	b8 01 00 00 00       	mov    $0x1,%eax
   10e6c:	eb 05                	jmp    10e73 <func_76+0x26f4>
   10e6e:	b8 00 00 00 00       	mov    $0x0,%eax
   10e73:	0f be c0             	movsbl %al,%eax
   10e76:	be 02 00 00 00       	mov    $0x2,%esi
   10e7b:	89 c7                	mov    %eax,%edi
   10e7d:	e8 6c 84 ff ff       	callq  92ee <safe_lshift_func_int8_t_s_u>
   10e82:	0f be d0             	movsbl %al,%edx
   10e85:	48 8b 85 10 e8 ff ff 	mov    -0x17f0(%rbp),%rax
   10e8c:	48 8b 00             	mov    (%rax),%rax
   10e8f:	8b 00                	mov    (%rax),%eax
   10e91:	31 d0                	xor    %edx,%eax
   10e93:	89 c6                	mov    %eax,%esi
   10e95:	bf fd ff ff ff       	mov    $0xfffffffd,%edi
   10e9a:	e8 42 86 ff ff       	callq  94e1 <safe_lshift_func_int16_t_s_u>
   10e9f:	0f bf d0             	movswl %ax,%edx
   10ea2:	48 8b 85 80 e5 ff ff 	mov    -0x1a80(%rbp),%rax
   10ea9:	8b 00                	mov    (%rax),%eax
   10eab:	89 d6                	mov    %edx,%esi
   10ead:	89 c7                	mov    %eax,%edi
   10eaf:	e8 18 88 ff ff       	callq  96cc <safe_mod_func_int32_t_s_s>
   10eb4:	89 de                	mov    %ebx,%esi
   10eb6:	89 c7                	mov    %eax,%edi
   10eb8:	e8 68 90 ff ff       	callq  9f25 <safe_div_func_uint32_t_u_u>
   10ebd:	8b 95 94 f9 ff ff    	mov    -0x66c(%rbp),%edx
   10ec3:	39 d0                	cmp    %edx,%eax
   10ec5:	0f 95 c0             	setne  %al
   10ec8:	0f b6 c0             	movzbl %al,%eax
   10ecb:	39 85 88 e5 ff ff    	cmp    %eax,-0x1a78(%rbp)
   10ed1:	48 8b 85 80 e8 ff ff 	mov    -0x1780(%rbp),%rax
   10ed8:	48 c7 00 ff ff ff ff 	movq   $0xffffffffffffffff,(%rax)
   10edf:	48 8b 85 f8 e6 ff ff 	mov    -0x1908(%rbp),%rax
   10ee6:	48 8b 95 80 e5 ff ff 	mov    -0x1a80(%rbp),%rdx
   10eed:	48 89 10             	mov    %rdx,(%rax)
   10ef0:	0f b6 05 35 92 00 00 	movzbl 0x9235(%rip),%eax        # 1a12c <g_112>
   10ef7:	0f b6 d0             	movzbl %al,%edx
   10efa:	48 8b 85 30 e8 ff ff 	mov    -0x17d0(%rbp),%rax
   10f01:	66 89 10             	mov    %dx,(%rax)
   10f04:	48 8b 85 30 e8 ff ff 	mov    -0x17d0(%rbp),%rax
   10f0b:	0f b7 10             	movzwl (%rax),%edx
   10f0e:	48 8b 85 38 e8 ff ff 	mov    -0x17c8(%rbp),%rax
   10f15:	66 89 10             	mov    %dx,(%rax)
   10f18:	48 8b 85 d8 e6 ff ff 	mov    -0x1928(%rbp),%rax
   10f1f:	48 8b 00             	mov    (%rax),%rax
   10f22:	0f b7 95 ae e5 ff ff 	movzwl -0x1a52(%rbp),%edx
   10f29:	88 10                	mov    %dl,(%rax)
   10f2b:	0f b6 00             	movzbl (%rax),%eax
   10f2e:	44 0f b6 e8          	movzbl %al,%r13d
   10f32:	0f b7 85 8c e5 ff ff 	movzwl -0x1a74(%rbp),%eax
   10f39:	0f bf d8             	movswl %ax,%ebx
   10f3c:	48 8b 85 08 e8 ff ff 	mov    -0x17f8(%rbp),%rax
   10f43:	8b 00                	mov    (%rax),%eax
   10f45:	44 0f bf e0          	movswl %ax,%r12d
   10f49:	bf f9 3d 00 00       	mov    $0x3df9,%edi
   10f4e:	e8 4a 84 ff ff       	callq  939d <safe_unary_minus_func_int16_t_s>
   10f53:	44 89 e6             	mov    %r12d,%esi
   10f56:	bf 01 00 00 00       	mov    $0x1,%edi
   10f5b:	e8 73 84 ff ff       	callq  93d3 <safe_sub_func_int16_t_s_s>
   10f60:	98                   	cwtl   
   10f61:	89 de                	mov    %ebx,%esi
   10f63:	89 c7                	mov    %eax,%edi
   10f65:	e8 28 85 ff ff       	callq  9492 <safe_lshift_func_int16_t_s_s>
   10f6a:	98                   	cwtl   
   10f6b:	41 39 c5             	cmp    %eax,%r13d
   10f6e:	7f 07                	jg     10f77 <func_76+0x27f8>
   10f70:	b8 01 00 00 00       	mov    $0x1,%eax
   10f75:	eb 05                	jmp    10f7c <func_76+0x27fd>
   10f77:	b8 00 00 00 00       	mov    $0x0,%eax
   10f7c:	0f b7 c0             	movzwl %ax,%eax
   10f7f:	8b 95 88 e5 ff ff    	mov    -0x1a78(%rbp),%edx
   10f85:	89 d6                	mov    %edx,%esi
   10f87:	89 c7                	mov    %eax,%edi
   10f89:	e8 78 8e ff ff       	callq  9e06 <safe_lshift_func_uint16_t_u_u>
   10f8e:	8b 85 88 e5 ff ff    	mov    -0x1a78(%rbp),%eax
   10f94:	0f b6 c0             	movzbl %al,%eax
   10f97:	89 c6                	mov    %eax,%esi
   10f99:	bf c3 00 00 00       	mov    $0xc3,%edi
   10f9e:	e8 38 8c ff ff       	callq  9bdb <safe_div_func_uint8_t_u_u>
   10fa3:	84 c0                	test   %al,%al
   10fa5:	0f 84 29 02 00 00    	je     111d4 <func_76+0x2a55>
   10fab:	c6 85 a7 e5 ff ff f7 	movb   $0xf7,-0x1a59(%rbp)
   10fb2:	48 8d 05 63 94 00 00 	lea    0x9463(%rip),%rax        # 1a41c <g_279+0x5c>
   10fb9:	48 89 85 a0 e9 ff ff 	mov    %rax,-0x1660(%rbp)
   10fc0:	48 8d 85 90 f9 ff ff 	lea    -0x670(%rbp),%rax
   10fc7:	48 8d 15 b2 55 00 00 	lea    0x55b2(%rip),%rdx        # 16580 <g_1320+0x478>
   10fce:	b9 3c 00 00 00       	mov    $0x3c,%ecx
   10fd3:	48 89 c7             	mov    %rax,%rdi
   10fd6:	48 89 d6             	mov    %rdx,%rsi
   10fd9:	f3 48 a5             	rep movsq %ds:(%rsi),%es:(%rdi)
   10fdc:	c7 85 c4 e6 ff ff 01 	movl   $0x1,-0x193c(%rbp)
   10fe3:	00 00 00 
   10fe6:	48 c7 85 a8 e9 ff ff 	movq   $0x0,-0x1658(%rbp)
   10fed:	00 00 00 00 
   10ff1:	48 8d 85 9e e5 ff ff 	lea    -0x1a62(%rbp),%rax
   10ff8:	48 89 85 b0 e9 ff ff 	mov    %rax,-0x1650(%rbp)
   10fff:	8b 1d 13 91 00 00    	mov    0x9113(%rip),%ebx        # 1a118 <g_20>
   11005:	8b 85 18 e6 ff ff    	mov    -0x19e8(%rbp),%eax
   1100b:	4c 63 e0             	movslq %eax,%r12
   1100e:	66 0f be 85 a7 e5 ff 	movsbw -0x1a59(%rbp),%ax
   11015:	ff 
   11016:	44 0f b7 e8          	movzwl %ax,%r13d
   1101a:	48 be c7 4d b8 94 f4 	movabs $0x2968caf494b84dc7,%rsi
   11021:	ca 68 29 
   11024:	bf 01 00 00 00       	mov    $0x1,%edi
   11029:	e8 81 90 ff ff       	callq  a0af <safe_div_func_uint64_t_u_u>
   1102e:	48 85 c0             	test   %rax,%rax
   11031:	0f 94 c0             	sete   %al
   11034:	0f b6 c0             	movzbl %al,%eax
   11037:	44 89 ee             	mov    %r13d,%esi
   1103a:	89 c7                	mov    %eax,%edi
   1103c:	e8 fc 8c ff ff       	callq  9d3d <safe_mul_func_uint16_t_u_u>
   11041:	8b 05 19 94 00 00    	mov    0x9419(%rip),%eax        # 1a460 <g_290+0x20>
   11047:	89 c0                	mov    %eax,%eax
   11049:	4c 89 e6             	mov    %r12,%rsi
   1104c:	48 89 c7             	mov    %rax,%rdi
   1104f:	e8 a3 89 ff ff       	callq  99f7 <safe_div_func_int64_t_s_s>
   11054:	89 c2                	mov    %eax,%edx
   11056:	48 8b 85 a0 e9 ff ff 	mov    -0x1660(%rbp),%rax
   1105d:	89 10                	mov    %edx,(%rax)
   1105f:	48 8b 85 a0 e9 ff ff 	mov    -0x1660(%rbp),%rax
   11066:	8b 00                	mov    (%rax),%eax
   11068:	85 c0                	test   %eax,%eax
   1106a:	75 07                	jne    11073 <func_76+0x28f4>
   1106c:	80 bd a7 e5 ff ff 00 	cmpb   $0x0,-0x1a59(%rbp)
   11073:	0f b7 85 ca f9 ff ff 	movzwl -0x636(%rbp),%eax
   1107a:	66 85 c0             	test   %ax,%ax
   1107d:	74 21                	je     110a0 <func_76+0x2921>
   1107f:	8b 05 c3 d7 00 00    	mov    0xd7c3(%rip),%eax        # 1e848 <g_2>
   11085:	85 c0                	test   %eax,%eax
   11087:	74 17                	je     110a0 <func_76+0x2921>
   11089:	48 8b 85 10 e8 ff ff 	mov    -0x17f0(%rbp),%rax
   11090:	48 8b 00             	mov    (%rax),%rax
   11093:	8b 00                	mov    (%rax),%eax
   11095:	85 c0                	test   %eax,%eax
   11097:	74 07                	je     110a0 <func_76+0x2921>
   11099:	b8 01 00 00 00       	mov    $0x1,%eax
   1109e:	eb 05                	jmp    110a5 <func_76+0x2926>
   110a0:	b8 00 00 00 00       	mov    $0x0,%eax
   110a5:	0f be c0             	movsbl %al,%eax
   110a8:	89 de                	mov    %ebx,%esi
   110aa:	89 c7                	mov    %eax,%edi
   110ac:	e8 84 82 ff ff       	callq  9335 <safe_rshift_func_int8_t_s_s>
   110b1:	be 7c 45 00 00       	mov    $0x457c,%esi
   110b6:	bf 01 00 00 00       	mov    $0x1,%edi
   110bb:	e8 9c 8c ff ff       	callq  9d5c <safe_mod_func_uint16_t_u_u>
   110c0:	0f b7 d0             	movzwl %ax,%edx
   110c3:	48 8b 85 80 e5 ff ff 	mov    -0x1a80(%rbp),%rax
   110ca:	8b 00                	mov    (%rax),%eax
   110cc:	39 c2                	cmp    %eax,%edx
   110ce:	0f 95 c0             	setne  %al
   110d1:	0f b6 c0             	movzbl %al,%eax
   110d4:	be 02 00 00 00       	mov    $0x2,%esi
   110d9:	89 c7                	mov    %eax,%edi
   110db:	e8 c1 81 ff ff       	callq  92a1 <safe_lshift_func_int8_t_s_s>
   110e0:	0f b6 d8             	movzbl %al,%ebx
   110e3:	0f be 8d a7 e5 ff ff 	movsbl -0x1a59(%rbp),%ecx
   110ea:	48 8b 85 08 e7 ff ff 	mov    -0x18f8(%rbp),%rax
   110f1:	48 8b 00             	mov    (%rax),%rax
   110f4:	48 8b 00             	mov    (%rax),%rax
   110f7:	48 8d 15 2e 90 00 00 	lea    0x902e(%rip),%rdx        # 1a12c <g_112>
   110fe:	48 39 d0             	cmp    %rdx,%rax
   11101:	0f 95 c0             	setne  %al
   11104:	0f b6 d0             	movzbl %al,%edx
   11107:	48 8b 85 30 e8 ff ff 	mov    -0x17d0(%rbp),%rax
   1110e:	66 89 10             	mov    %dx,(%rax)
   11111:	48 8b 85 30 e8 ff ff 	mov    -0x17d0(%rbp),%rax
   11118:	0f b7 00             	movzwl (%rax),%eax
   1111b:	0f b7 c0             	movzwl %ax,%eax
   1111e:	39 c1                	cmp    %eax,%ecx
   11120:	0f 95 c0             	setne  %al
   11123:	0f b6 d0             	movzbl %al,%edx
   11126:	8b 05 56 93 00 00    	mov    0x9356(%rip),%eax        # 1a482 <g_380+0x12>
   1112c:	0f b7 c0             	movzwl %ax,%eax
   1112f:	89 d6                	mov    %edx,%esi
   11131:	89 c7                	mov    %eax,%edi
   11133:	e8 e7 8b ff ff       	callq  9d1f <safe_sub_func_uint16_t_u_u>
   11138:	0f b6 c0             	movzbl %al,%eax
   1113b:	89 de                	mov    %ebx,%esi
   1113d:	89 c7                	mov    %eax,%edi
   1113f:	e8 97 8a ff ff       	callq  9bdb <safe_div_func_uint8_t_u_u>
   11144:	0f b6 d0             	movzbl %al,%edx
   11147:	48 8b 85 38 e8 ff ff 	mov    -0x17c8(%rbp),%rax
   1114e:	66 89 10             	mov    %dx,(%rax)
   11151:	48 8b 85 38 e8 ff ff 	mov    -0x17c8(%rbp),%rax
   11158:	0f b7 00             	movzwl (%rax),%eax
   1115b:	0f b7 d0             	movzwl %ax,%edx
   1115e:	0f be 85 a5 e5 ff ff 	movsbl -0x1a5b(%rbp),%eax
   11165:	39 c2                	cmp    %eax,%edx
   11167:	0f 9c c0             	setl   %al
   1116a:	0f b6 c0             	movzbl %al,%eax
   1116d:	89 85 c4 e6 ff ff    	mov    %eax,-0x193c(%rbp)
   11173:	0f b6 05 47 91 00 00 	movzbl 0x9147(%rip),%eax        # 1a2c1 <g_178>
   1117a:	66 98                	cbtw   
   1117c:	0f b7 c0             	movzwl %ax,%eax
   1117f:	89 c6                	mov    %eax,%esi
   11181:	bf 78 82 00 00       	mov    $0x8278,%edi
   11186:	e8 b2 8b ff ff       	callq  9d3d <safe_mul_func_uint16_t_u_u>
   1118b:	0f b7 d0             	movzwl %ax,%edx
   1118e:	48 8b 85 b0 e9 ff ff 	mov    -0x1650(%rbp),%rax
   11195:	0f b6 00             	movzbl (%rax),%eax
   11198:	8b 8d 80 e6 ff ff    	mov    -0x1980(%rbp),%ecx
   1119e:	21 c1                	and    %eax,%ecx
   111a0:	48 8b 85 b0 e9 ff ff 	mov    -0x1650(%rbp),%rax
   111a7:	88 08                	mov    %cl,(%rax)
   111a9:	48 8b 85 b0 e9 ff ff 	mov    -0x1650(%rbp),%rax
   111b0:	0f b6 00             	movzbl (%rax),%eax
   111b3:	0f be c8             	movsbl %al,%ecx
   111b6:	8b 05 50 8f 00 00    	mov    0x8f50(%rip),%eax        # 1a10c <g_12>
   111bc:	09 c8                	or     %ecx,%eax
   111be:	39 c2                	cmp    %eax,%edx
   111c0:	0f 9d c0             	setge  %al
   111c3:	0f b6 d0             	movzbl %al,%edx
   111c6:	48 8b 85 f8 e7 ff ff 	mov    -0x1808(%rbp),%rax
   111cd:	89 10                	mov    %edx,(%rax)
   111cf:	e9 c0 01 00 00       	jmpq   11394 <func_76+0x2c15>
   111d4:	c7 85 bc e6 ff ff 5a 	movl   $0x630d455a,-0x1944(%rbp)
   111db:	45 0d 63 
   111de:	c7 85 c0 e6 ff ff 96 	movl   $0x681fb296,-0x1940(%rbp)
   111e5:	b2 1f 68 
   111e8:	c7 85 40 e7 ff ff bf 	movl   $0x2c6c15bf,-0x18c0(%rbp)
   111ef:	15 6c 2c 
   111f2:	c7 85 e0 e5 ff ff 00 	movl   $0x0,-0x1a20(%rbp)
   111f9:	00 00 00 
   111fc:	eb 1a                	jmp    11218 <func_76+0x2a99>
   111fe:	8b 85 e0 e5 ff ff    	mov    -0x1a20(%rbp),%eax
   11204:	48 98                	cltq   
   11206:	c7 84 85 90 f9 ff ff 	movl   $0xfffffffc,-0x670(%rbp,%rax,4)
   1120d:	fc ff ff ff 
   11211:	83 85 e0 e5 ff ff 01 	addl   $0x1,-0x1a20(%rbp)
   11218:	83 bd e0 e5 ff ff 03 	cmpl   $0x3,-0x1a20(%rbp)
   1121f:	7e dd                	jle    111fe <func_76+0x2a7f>
   11221:	90                   	nop
   11222:	8b 85 6c ea ff ff    	mov    -0x1594(%rbp),%eax
   11228:	83 c0 01             	add    $0x1,%eax
   1122b:	89 85 6c ea ff ff    	mov    %eax,-0x1594(%rbp)
   11231:	c7 05 ed 8e 00 00 01 	movl   $0x1,0x8eed(%rip)        # 1a128 <g_95>
   11238:	00 00 00 
   1123b:	e9 a0 00 00 00       	jmpq   112e0 <func_76+0x2b61>
   11240:	48 8b 95 80 e5 ff ff 	mov    -0x1a80(%rbp),%rdx
   11247:	48 8b 85 10 e8 ff ff 	mov    -0x17f0(%rbp),%rax
   1124e:	48 89 10             	mov    %rdx,(%rax)
   11251:	c7 85 18 e6 ff ff 01 	movl   $0x1,-0x19e8(%rbp)
   11258:	00 00 00 
   1125b:	eb 68                	jmp    112c5 <func_76+0x2b46>
   1125d:	8b 85 18 e6 ff ff    	mov    -0x19e8(%rbp),%eax
   11263:	83 c0 04             	add    $0x4,%eax
   11266:	48 98                	cltq   
   11268:	48 8d 14 85 00 00 00 	lea    0x0(,%rax,4),%rdx
   1126f:	00 
   11270:	48 8d 05 c9 91 00 00 	lea    0x91c9(%rip),%rax        # 1a440 <g_290>
   11277:	8b 04 02             	mov    (%rdx,%rax,1),%eax
   1127a:	85 c0                	test   %eax,%eax
   1127c:	75 52                	jne    112d0 <func_76+0x2b51>
   1127e:	c7 85 24 e6 ff ff 00 	movl   $0x0,-0x19dc(%rbp)
   11285:	00 00 00 
   11288:	83 bd 24 e6 ff ff 01 	cmpl   $0x1,-0x19dc(%rbp)
   1128f:	77 2d                	ja     112be <func_76+0x2b3f>
   11291:	83 bd 24 e6 ff ff 00 	cmpl   $0x0,-0x19dc(%rbp)
   11298:	74 02                	je     1129c <func_76+0x2b1d>
   1129a:	eb 86                	jmp    11222 <func_76+0x2aa3>
   1129c:	8b 05 86 8e 00 00    	mov    0x8e86(%rip),%eax        # 1a128 <g_95>
   112a2:	83 c0 03             	add    $0x3,%eax
   112a5:	48 98                	cltq   
   112a7:	48 8d 14 85 00 00 00 	lea    0x0(,%rax,4),%rdx
   112ae:	00 
   112af:	48 8d 05 8a 91 00 00 	lea    0x918a(%rip),%rax        # 1a440 <g_290>
   112b6:	8b 04 02             	mov    (%rdx,%rax,1),%eax
   112b9:	e9 54 24 00 00       	jmpq   13712 <func_76+0x4f93>
   112be:	83 ad 18 e6 ff ff 01 	subl   $0x1,-0x19e8(%rbp)
   112c5:	83 bd 18 e6 ff ff 00 	cmpl   $0x0,-0x19e8(%rbp)
   112cc:	79 8f                	jns    1125d <func_76+0x2ade>
   112ce:	eb 01                	jmp    112d1 <func_76+0x2b52>
   112d0:	90                   	nop
   112d1:	8b 05 51 8e 00 00    	mov    0x8e51(%rip),%eax        # 1a128 <g_95>
   112d7:	83 e8 01             	sub    $0x1,%eax
   112da:	89 05 48 8e 00 00    	mov    %eax,0x8e48(%rip)        # 1a128 <g_95>
   112e0:	8b 05 42 8e 00 00    	mov    0x8e42(%rip),%eax        # 1a128 <g_95>
   112e6:	85 c0                	test   %eax,%eax
   112e8:	0f 89 52 ff ff ff    	jns    11240 <func_76+0x2ac1>
   112ee:	66 c7 85 8c e5 ff ff 	movw   $0x6,-0x1a74(%rbp)
   112f5:	06 00 
   112f7:	e9 88 00 00 00       	jmpq   11384 <func_76+0x2c05>
   112fc:	0f b7 05 63 91 00 00 	movzwl 0x9163(%rip),%eax        # 1a466 <g_375>
   11303:	66 85 c0             	test   %ax,%ax
   11306:	74 05                	je     1130d <func_76+0x2b8e>
   11308:	e9 24 ff ff ff       	jmpq   11231 <func_76+0x2ab2>
   1130d:	48 8b 85 80 e5 ff ff 	mov    -0x1a80(%rbp),%rax
   11314:	8b 00                	mov    (%rax),%eax
   11316:	85 c0                	test   %eax,%eax
   11318:	75 58                	jne    11372 <func_76+0x2bf3>
   1131a:	48 8b 85 18 e8 ff ff 	mov    -0x17e8(%rbp),%rax
   11321:	48 8b 00             	mov    (%rax),%rax
   11324:	48 8d 95 40 e7 ff ff 	lea    -0x18c0(%rbp),%rdx
   1132b:	48 89 10             	mov    %rdx,(%rax)
   1132e:	48 c7 05 41 91 00 00 	movq   $0x7,0x9141(%rip)        # 1a47a <g_380+0xa>
   11335:	07 00 00 00 
   11339:	90                   	nop
   1133a:	48 8b 05 39 91 00 00 	mov    0x9139(%rip),%rax        # 1a47a <g_380+0xa>
   11341:	48 85 c0             	test   %rax,%rax
   11344:	78 2d                	js     11373 <func_76+0x2bf4>
   11346:	48 8d 85 e8 e6 ff ff 	lea    -0x1918(%rbp),%rax
   1134d:	48 89 85 98 e9 ff ff 	mov    %rax,-0x1668(%rbp)
   11354:	48 8b 95 e8 e6 ff ff 	mov    -0x1918(%rbp),%rdx
   1135b:	48 8b 85 98 e9 ff ff 	mov    -0x1668(%rbp),%rax
   11362:	48 89 10             	mov    %rdx,(%rax)
   11365:	0f b7 85 8c e5 ff ff 	movzwl -0x1a74(%rbp),%eax
   1136c:	98                   	cwtl   
   1136d:	e9 a0 23 00 00       	jmpq   13712 <func_76+0x4f93>
   11372:	90                   	nop
   11373:	0f b7 85 8c e5 ff ff 	movzwl -0x1a74(%rbp),%eax
   1137a:	83 e8 01             	sub    $0x1,%eax
   1137d:	66 89 85 8c e5 ff ff 	mov    %ax,-0x1a74(%rbp)
   11384:	0f b7 85 8c e5 ff ff 	movzwl -0x1a74(%rbp),%eax
   1138b:	66 85 c0             	test   %ax,%ax
   1138e:	0f 89 68 ff ff ff    	jns    112fc <func_76+0x2b7d>
   11394:	c7 85 24 e6 ff ff 00 	movl   $0x0,-0x19dc(%rbp)
   1139b:	00 00 00 
   1139e:	83 bd 24 e6 ff ff 02 	cmpl   $0x2,-0x19dc(%rbp)
   113a5:	0f 87 5f 23 00 00    	ja     1370a <func_76+0x4f8b>
   113ab:	8b 85 88 e5 ff ff    	mov    -0x1a78(%rbp),%eax
   113b1:	e9 5c 23 00 00       	jmpq   13712 <func_76+0x4f93>
   113b6:	48 c7 85 90 e7 ff ff 	movq   $0x0,-0x1870(%rbp)
   113bd:	00 00 00 00 
   113c1:	48 8d 85 b4 e5 ff ff 	lea    -0x1a4c(%rbp),%rax
   113c8:	48 89 85 48 e7 ff ff 	mov    %rax,-0x18b8(%rbp)
   113cf:	48 8d 05 3e 8d 00 00 	lea    0x8d3e(%rip),%rax        # 1a114 <g_17>
   113d6:	48 89 85 98 e7 ff ff 	mov    %rax,-0x1868(%rbp)
   113dd:	c7 85 50 eb ff ff f6 	movl   $0xfffffff6,-0x14b0(%rbp)
   113e4:	ff ff ff 
   113e7:	c7 85 54 eb ff ff cc 	movl   $0x127feacc,-0x14ac(%rbp)
   113ee:	ea 7f 12 
   113f1:	c7 85 58 eb ff ff f6 	movl   $0xfffffff6,-0x14a8(%rbp)
   113f8:	ff ff ff 
   113fb:	c7 85 5c eb ff ff 09 	movl   $0x9,-0x14a4(%rbp)
   11402:	00 00 00 
   11405:	c7 85 60 eb ff ff 09 	movl   $0x9,-0x14a0(%rbp)
   1140c:	00 00 00 
   1140f:	c7 85 64 eb ff ff 13 	movl   $0xa717eb13,-0x149c(%rbp)
   11416:	eb 17 a7 
   11419:	c7 85 68 eb ff ff e7 	movl   $0xa3e97ae7,-0x1498(%rbp)
   11420:	7a e9 a3 
   11423:	c7 85 6c eb ff ff cc 	movl   $0x127feacc,-0x1494(%rbp)
   1142a:	ea 7f 12 
   1142d:	c7 85 70 eb ff ff e7 	movl   $0xa3e97ae7,-0x1490(%rbp)
   11434:	7a e9 a3 
   11437:	c7 85 74 eb ff ff 09 	movl   $0x9,-0x148c(%rbp)
   1143e:	00 00 00 
   11441:	c7 85 78 eb ff ff 13 	movl   $0xa717eb13,-0x1488(%rbp)
   11448:	eb 17 a7 
   1144b:	c7 85 7c eb ff ff 13 	movl   $0xa717eb13,-0x1484(%rbp)
   11452:	eb 17 a7 
   11455:	c7 85 80 eb ff ff f6 	movl   $0xfffffff6,-0x1480(%rbp)
   1145c:	ff ff ff 
   1145f:	c7 85 84 eb ff ff cc 	movl   $0x127feacc,-0x147c(%rbp)
   11466:	ea 7f 12 
   11469:	c7 85 88 eb ff ff f6 	movl   $0xfffffff6,-0x1478(%rbp)
   11470:	ff ff ff 
   11473:	c7 85 8c eb ff ff 09 	movl   $0x9,-0x1474(%rbp)
   1147a:	00 00 00 
   1147d:	c7 85 90 eb ff ff 09 	movl   $0x9,-0x1470(%rbp)
   11484:	00 00 00 
   11487:	c7 85 94 eb ff ff 13 	movl   $0xa717eb13,-0x146c(%rbp)
   1148e:	eb 17 a7 
   11491:	c7 85 98 eb ff ff e7 	movl   $0xa3e97ae7,-0x1468(%rbp)
   11498:	7a e9 a3 
   1149b:	c7 85 9c eb ff ff cc 	movl   $0x127feacc,-0x1464(%rbp)
   114a2:	ea 7f 12 
   114a5:	c7 85 a0 eb ff ff e7 	movl   $0xa3e97ae7,-0x1460(%rbp)
   114ac:	7a e9 a3 
   114af:	c7 85 a4 eb ff ff 09 	movl   $0x9,-0x145c(%rbp)
   114b6:	00 00 00 
   114b9:	c7 85 a8 eb ff ff 13 	movl   $0xa717eb13,-0x1458(%rbp)
   114c0:	eb 17 a7 
   114c3:	c7 85 ac eb ff ff 13 	movl   $0xa717eb13,-0x1454(%rbp)
   114ca:	eb 17 a7 
   114cd:	c7 85 b0 eb ff ff f6 	movl   $0xfffffff6,-0x1450(%rbp)
   114d4:	ff ff ff 
   114d7:	c7 85 b4 eb ff ff cc 	movl   $0x127feacc,-0x144c(%rbp)
   114de:	ea 7f 12 
   114e1:	c7 85 b8 eb ff ff f6 	movl   $0xfffffff6,-0x1448(%rbp)
   114e8:	ff ff ff 
   114eb:	48 8d 85 80 f4 ff ff 	lea    -0xb80(%rbp),%rax
   114f2:	48 8d 15 87 b7 00 00 	lea    0xb787(%rip),%rdx        # 1cc80 <g_3696+0x1d1a>
   114f9:	b9 a2 00 00 00       	mov    $0xa2,%ecx
   114fe:	48 89 c7             	mov    %rax,%rdi
   11501:	48 89 d6             	mov    %rdx,%rsi
   11504:	f3 48 a5             	rep movsq %ds:(%rsi),%es:(%rdi)
   11507:	48 8d 85 e8 e6 ff ff 	lea    -0x1918(%rbp),%rax
   1150e:	48 89 85 90 f9 ff ff 	mov    %rax,-0x670(%rbp)
   11515:	48 8d 85 e8 e6 ff ff 	lea    -0x1918(%rbp),%rax
   1151c:	48 89 85 98 f9 ff ff 	mov    %rax,-0x668(%rbp)
   11523:	48 c7 85 a0 f9 ff ff 	movq   $0x0,-0x660(%rbp)
   1152a:	00 00 00 00 
   1152e:	48 8d 85 e8 e6 ff ff 	lea    -0x1918(%rbp),%rax
   11535:	48 89 85 a8 f9 ff ff 	mov    %rax,-0x658(%rbp)
   1153c:	48 8d 85 e8 e6 ff ff 	lea    -0x1918(%rbp),%rax
   11543:	48 89 85 b0 f9 ff ff 	mov    %rax,-0x650(%rbp)
   1154a:	48 8d 85 e8 e6 ff ff 	lea    -0x1918(%rbp),%rax
   11551:	48 89 85 b8 f9 ff ff 	mov    %rax,-0x648(%rbp)
   11558:	48 8d 85 e8 e6 ff ff 	lea    -0x1918(%rbp),%rax
   1155f:	48 89 85 c0 f9 ff ff 	mov    %rax,-0x640(%rbp)
   11566:	48 8d 85 e8 e6 ff ff 	lea    -0x1918(%rbp),%rax
   1156d:	48 89 85 c8 f9 ff ff 	mov    %rax,-0x638(%rbp)
   11574:	48 8d 85 e8 e6 ff ff 	lea    -0x1918(%rbp),%rax
   1157b:	48 89 85 d0 f9 ff ff 	mov    %rax,-0x630(%rbp)
   11582:	48 c7 85 d8 f9 ff ff 	movq   $0x0,-0x628(%rbp)
   11589:	00 00 00 00 
   1158d:	48 8d 85 e8 e6 ff ff 	lea    -0x1918(%rbp),%rax
   11594:	48 89 85 e0 f9 ff ff 	mov    %rax,-0x620(%rbp)
   1159b:	48 8d 85 e8 e6 ff ff 	lea    -0x1918(%rbp),%rax
   115a2:	48 89 85 e8 f9 ff ff 	mov    %rax,-0x618(%rbp)
   115a9:	48 8d 85 e8 e6 ff ff 	lea    -0x1918(%rbp),%rax
   115b0:	48 89 85 f0 f9 ff ff 	mov    %rax,-0x610(%rbp)
   115b7:	48 8d 85 e8 e6 ff ff 	lea    -0x1918(%rbp),%rax
   115be:	48 89 85 f8 f9 ff ff 	mov    %rax,-0x608(%rbp)
   115c5:	48 8d 85 e8 e6 ff ff 	lea    -0x1918(%rbp),%rax
   115cc:	48 89 85 00 fa ff ff 	mov    %rax,-0x600(%rbp)
   115d3:	48 8d 85 e8 e6 ff ff 	lea    -0x1918(%rbp),%rax
   115da:	48 89 85 08 fa ff ff 	mov    %rax,-0x5f8(%rbp)
   115e1:	48 8d 85 e8 e6 ff ff 	lea    -0x1918(%rbp),%rax
   115e8:	48 89 85 10 fa ff ff 	mov    %rax,-0x5f0(%rbp)
   115ef:	48 c7 85 18 fa ff ff 	movq   $0x0,-0x5e8(%rbp)
   115f6:	00 00 00 00 
   115fa:	48 8d 85 e8 e6 ff ff 	lea    -0x1918(%rbp),%rax
   11601:	48 89 85 20 fa ff ff 	mov    %rax,-0x5e0(%rbp)
   11608:	48 8d 85 e8 e6 ff ff 	lea    -0x1918(%rbp),%rax
   1160f:	48 89 85 28 fa ff ff 	mov    %rax,-0x5d8(%rbp)
   11616:	48 8d 85 e8 e6 ff ff 	lea    -0x1918(%rbp),%rax
   1161d:	48 89 85 30 fa ff ff 	mov    %rax,-0x5d0(%rbp)
   11624:	48 8d 85 e8 e6 ff ff 	lea    -0x1918(%rbp),%rax
   1162b:	48 89 85 38 fa ff ff 	mov    %rax,-0x5c8(%rbp)
   11632:	48 c7 85 40 fa ff ff 	movq   $0x0,-0x5c0(%rbp)
   11639:	00 00 00 00 
   1163d:	48 8d 85 e8 e6 ff ff 	lea    -0x1918(%rbp),%rax
   11644:	48 89 85 48 fa ff ff 	mov    %rax,-0x5b8(%rbp)
   1164b:	48 8d 85 e8 e6 ff ff 	lea    -0x1918(%rbp),%rax
   11652:	48 89 85 50 fa ff ff 	mov    %rax,-0x5b0(%rbp)
   11659:	48 8d 85 e8 e6 ff ff 	lea    -0x1918(%rbp),%rax
   11660:	48 89 85 58 fa ff ff 	mov    %rax,-0x5a8(%rbp)
   11667:	48 8d 85 e8 e6 ff ff 	lea    -0x1918(%rbp),%rax
   1166e:	48 89 85 60 fa ff ff 	mov    %rax,-0x5a0(%rbp)
   11675:	48 c7 85 68 fa ff ff 	movq   $0x0,-0x598(%rbp)
   1167c:	00 00 00 00 
   11680:	48 8d 85 e8 e6 ff ff 	lea    -0x1918(%rbp),%rax
   11687:	48 89 85 70 fa ff ff 	mov    %rax,-0x590(%rbp)
   1168e:	48 8d 85 e8 e6 ff ff 	lea    -0x1918(%rbp),%rax
   11695:	48 89 85 78 fa ff ff 	mov    %rax,-0x588(%rbp)
   1169c:	48 8d 85 e8 e6 ff ff 	lea    -0x1918(%rbp),%rax
   116a3:	48 89 85 80 fa ff ff 	mov    %rax,-0x580(%rbp)
   116aa:	48 8d 85 e8 e6 ff ff 	lea    -0x1918(%rbp),%rax
   116b1:	48 89 85 88 fa ff ff 	mov    %rax,-0x578(%rbp)
   116b8:	48 8d 85 e8 e6 ff ff 	lea    -0x1918(%rbp),%rax
   116bf:	48 89 85 90 fa ff ff 	mov    %rax,-0x570(%rbp)
   116c6:	48 c7 85 98 fa ff ff 	movq   $0x0,-0x568(%rbp)
   116cd:	00 00 00 00 
   116d1:	48 8d 85 e8 e6 ff ff 	lea    -0x1918(%rbp),%rax
   116d8:	48 89 85 a0 fa ff ff 	mov    %rax,-0x560(%rbp)
   116df:	48 8d 85 e8 e6 ff ff 	lea    -0x1918(%rbp),%rax
   116e6:	48 89 85 a8 fa ff ff 	mov    %rax,-0x558(%rbp)
   116ed:	48 c7 85 b0 fa ff ff 	movq   $0x0,-0x550(%rbp)
   116f4:	00 00 00 00 
   116f8:	48 8d 85 e8 e6 ff ff 	lea    -0x1918(%rbp),%rax
   116ff:	48 89 85 b8 fa ff ff 	mov    %rax,-0x548(%rbp)
   11706:	48 8d 85 e8 e6 ff ff 	lea    -0x1918(%rbp),%rax
   1170d:	48 89 85 c0 fa ff ff 	mov    %rax,-0x540(%rbp)
   11714:	48 8d 85 e8 e6 ff ff 	lea    -0x1918(%rbp),%rax
   1171b:	48 89 85 c8 fa ff ff 	mov    %rax,-0x538(%rbp)
   11722:	48 8d 85 e8 e6 ff ff 	lea    -0x1918(%rbp),%rax
   11729:	48 89 85 d0 fa ff ff 	mov    %rax,-0x530(%rbp)
   11730:	48 8d 85 e8 e6 ff ff 	lea    -0x1918(%rbp),%rax
   11737:	48 89 85 d8 fa ff ff 	mov    %rax,-0x528(%rbp)
   1173e:	48 8d 85 e8 e6 ff ff 	lea    -0x1918(%rbp),%rax
   11745:	48 89 85 e0 fa ff ff 	mov    %rax,-0x520(%rbp)
   1174c:	48 c7 85 e8 fa ff ff 	movq   $0x0,-0x518(%rbp)
   11753:	00 00 00 00 
   11757:	48 8d 85 e8 e6 ff ff 	lea    -0x1918(%rbp),%rax
   1175e:	48 89 85 f0 fa ff ff 	mov    %rax,-0x510(%rbp)
   11765:	48 c7 85 f8 fa ff ff 	movq   $0x0,-0x508(%rbp)
   1176c:	00 00 00 00 
   11770:	48 8d 85 e8 e6 ff ff 	lea    -0x1918(%rbp),%rax
   11777:	48 89 85 00 fb ff ff 	mov    %rax,-0x500(%rbp)
   1177e:	48 8d 85 e8 e6 ff ff 	lea    -0x1918(%rbp),%rax
   11785:	48 89 85 08 fb ff ff 	mov    %rax,-0x4f8(%rbp)
   1178c:	48 c7 85 10 fb ff ff 	movq   $0x0,-0x4f0(%rbp)
   11793:	00 00 00 00 
   11797:	48 8d 85 e8 e6 ff ff 	lea    -0x1918(%rbp),%rax
   1179e:	48 89 85 18 fb ff ff 	mov    %rax,-0x4e8(%rbp)
   117a5:	48 8d 85 e8 e6 ff ff 	lea    -0x1918(%rbp),%rax
   117ac:	48 89 85 20 fb ff ff 	mov    %rax,-0x4e0(%rbp)
   117b3:	48 8d 85 e8 e6 ff ff 	lea    -0x1918(%rbp),%rax
   117ba:	48 89 85 28 fb ff ff 	mov    %rax,-0x4d8(%rbp)
   117c1:	48 8d 85 e8 e6 ff ff 	lea    -0x1918(%rbp),%rax
   117c8:	48 89 85 30 fb ff ff 	mov    %rax,-0x4d0(%rbp)
   117cf:	48 8d 85 e8 e6 ff ff 	lea    -0x1918(%rbp),%rax
   117d6:	48 89 85 38 fb ff ff 	mov    %rax,-0x4c8(%rbp)
   117dd:	48 8d 85 e8 e6 ff ff 	lea    -0x1918(%rbp),%rax
   117e4:	48 89 85 40 fb ff ff 	mov    %rax,-0x4c0(%rbp)
   117eb:	48 8d 85 e8 e6 ff ff 	lea    -0x1918(%rbp),%rax
   117f2:	48 89 85 48 fb ff ff 	mov    %rax,-0x4b8(%rbp)
   117f9:	48 8d 85 e8 e6 ff ff 	lea    -0x1918(%rbp),%rax
   11800:	48 89 85 50 fb ff ff 	mov    %rax,-0x4b0(%rbp)
   11807:	48 8d 85 e8 e6 ff ff 	lea    -0x1918(%rbp),%rax
   1180e:	48 89 85 58 fb ff ff 	mov    %rax,-0x4a8(%rbp)
   11815:	48 8d 85 e8 e6 ff ff 	lea    -0x1918(%rbp),%rax
   1181c:	48 89 85 60 fb ff ff 	mov    %rax,-0x4a0(%rbp)
   11823:	48 8d 85 e8 e6 ff ff 	lea    -0x1918(%rbp),%rax
   1182a:	48 89 85 68 fb ff ff 	mov    %rax,-0x498(%rbp)
   11831:	48 8d 85 e8 e6 ff ff 	lea    -0x1918(%rbp),%rax
   11838:	48 89 85 70 fb ff ff 	mov    %rax,-0x490(%rbp)
   1183f:	48 8d 85 e8 e6 ff ff 	lea    -0x1918(%rbp),%rax
   11846:	48 89 85 78 fb ff ff 	mov    %rax,-0x488(%rbp)
   1184d:	48 8d 85 e8 e6 ff ff 	lea    -0x1918(%rbp),%rax
   11854:	48 89 85 80 fb ff ff 	mov    %rax,-0x480(%rbp)
   1185b:	48 8d 85 e8 e6 ff ff 	lea    -0x1918(%rbp),%rax
   11862:	48 89 85 88 fb ff ff 	mov    %rax,-0x478(%rbp)
   11869:	48 8d 85 e8 e6 ff ff 	lea    -0x1918(%rbp),%rax
   11870:	48 89 85 90 fb ff ff 	mov    %rax,-0x470(%rbp)
   11877:	48 8d 85 e8 e6 ff ff 	lea    -0x1918(%rbp),%rax
   1187e:	48 89 85 98 fb ff ff 	mov    %rax,-0x468(%rbp)
   11885:	48 8d 85 e8 e6 ff ff 	lea    -0x1918(%rbp),%rax
   1188c:	48 89 85 a0 fb ff ff 	mov    %rax,-0x460(%rbp)
   11893:	48 8d 85 e8 e6 ff ff 	lea    -0x1918(%rbp),%rax
   1189a:	48 89 85 a8 fb ff ff 	mov    %rax,-0x458(%rbp)
   118a1:	48 c7 85 b0 fb ff ff 	movq   $0x0,-0x450(%rbp)
   118a8:	00 00 00 00 
   118ac:	48 8d 85 e8 e6 ff ff 	lea    -0x1918(%rbp),%rax
   118b3:	48 89 85 b8 fb ff ff 	mov    %rax,-0x448(%rbp)
   118ba:	48 8d 85 e8 e6 ff ff 	lea    -0x1918(%rbp),%rax
   118c1:	48 89 85 c0 fb ff ff 	mov    %rax,-0x440(%rbp)
   118c8:	48 c7 85 c8 fb ff ff 	movq   $0x0,-0x438(%rbp)
   118cf:	00 00 00 00 
   118d3:	48 8d 85 e8 e6 ff ff 	lea    -0x1918(%rbp),%rax
   118da:	48 89 85 d0 fb ff ff 	mov    %rax,-0x430(%rbp)
   118e1:	48 c7 85 d8 fb ff ff 	movq   $0x0,-0x428(%rbp)
   118e8:	00 00 00 00 
   118ec:	48 8d 85 e8 e6 ff ff 	lea    -0x1918(%rbp),%rax
   118f3:	48 89 85 e0 fb ff ff 	mov    %rax,-0x420(%rbp)
   118fa:	48 8d 85 e8 e6 ff ff 	lea    -0x1918(%rbp),%rax
   11901:	48 89 85 e8 fb ff ff 	mov    %rax,-0x418(%rbp)
   11908:	48 8d 85 e8 e6 ff ff 	lea    -0x1918(%rbp),%rax
   1190f:	48 89 85 f0 fb ff ff 	mov    %rax,-0x410(%rbp)
   11916:	48 8d 85 e8 e6 ff ff 	lea    -0x1918(%rbp),%rax
   1191d:	48 89 85 f8 fb ff ff 	mov    %rax,-0x408(%rbp)
   11924:	48 8d 85 e8 e6 ff ff 	lea    -0x1918(%rbp),%rax
   1192b:	48 89 85 00 fc ff ff 	mov    %rax,-0x400(%rbp)
   11932:	48 8d 85 e8 e6 ff ff 	lea    -0x1918(%rbp),%rax
   11939:	48 89 85 08 fc ff ff 	mov    %rax,-0x3f8(%rbp)
   11940:	48 c7 85 10 fc ff ff 	movq   $0x0,-0x3f0(%rbp)
   11947:	00 00 00 00 
   1194b:	48 8d 85 e8 e6 ff ff 	lea    -0x1918(%rbp),%rax
   11952:	48 89 85 18 fc ff ff 	mov    %rax,-0x3e8(%rbp)
   11959:	48 8d 85 e8 e6 ff ff 	lea    -0x1918(%rbp),%rax
   11960:	48 89 85 20 fc ff ff 	mov    %rax,-0x3e0(%rbp)
   11967:	48 c7 85 28 fc ff ff 	movq   $0x0,-0x3d8(%rbp)
   1196e:	00 00 00 00 
   11972:	48 8d 85 e8 e6 ff ff 	lea    -0x1918(%rbp),%rax
   11979:	48 89 85 30 fc ff ff 	mov    %rax,-0x3d0(%rbp)
   11980:	48 8d 85 e8 e6 ff ff 	lea    -0x1918(%rbp),%rax
   11987:	48 89 85 38 fc ff ff 	mov    %rax,-0x3c8(%rbp)
   1198e:	48 8d 85 e8 e6 ff ff 	lea    -0x1918(%rbp),%rax
   11995:	48 89 85 40 fc ff ff 	mov    %rax,-0x3c0(%rbp)
   1199c:	48 8d 85 e8 e6 ff ff 	lea    -0x1918(%rbp),%rax
   119a3:	48 89 85 48 fc ff ff 	mov    %rax,-0x3b8(%rbp)
   119aa:	48 8d 85 e8 e6 ff ff 	lea    -0x1918(%rbp),%rax
   119b1:	48 89 85 50 fc ff ff 	mov    %rax,-0x3b0(%rbp)
   119b8:	48 c7 85 58 fc ff ff 	movq   $0x0,-0x3a8(%rbp)
   119bf:	00 00 00 00 
   119c3:	48 8d 85 e8 e6 ff ff 	lea    -0x1918(%rbp),%rax
   119ca:	48 89 85 60 fc ff ff 	mov    %rax,-0x3a0(%rbp)
   119d1:	48 8d 85 e8 e6 ff ff 	lea    -0x1918(%rbp),%rax
   119d8:	48 89 85 68 fc ff ff 	mov    %rax,-0x398(%rbp)
   119df:	48 8d 85 e8 e6 ff ff 	lea    -0x1918(%rbp),%rax
   119e6:	48 89 85 70 fc ff ff 	mov    %rax,-0x390(%rbp)
   119ed:	48 8d 85 e8 e6 ff ff 	lea    -0x1918(%rbp),%rax
   119f4:	48 89 85 78 fc ff ff 	mov    %rax,-0x388(%rbp)
   119fb:	48 c7 85 80 fc ff ff 	movq   $0x0,-0x380(%rbp)
   11a02:	00 00 00 00 
   11a06:	48 8d 85 e8 e6 ff ff 	lea    -0x1918(%rbp),%rax
   11a0d:	48 89 85 88 fc ff ff 	mov    %rax,-0x378(%rbp)
   11a14:	48 8d 85 e8 e6 ff ff 	lea    -0x1918(%rbp),%rax
   11a1b:	48 89 85 90 fc ff ff 	mov    %rax,-0x370(%rbp)
   11a22:	48 8d 85 e8 e6 ff ff 	lea    -0x1918(%rbp),%rax
   11a29:	48 89 85 98 fc ff ff 	mov    %rax,-0x368(%rbp)
   11a30:	48 8d 85 e8 e6 ff ff 	lea    -0x1918(%rbp),%rax
   11a37:	48 89 85 a0 fc ff ff 	mov    %rax,-0x360(%rbp)
   11a3e:	48 c7 85 a8 fc ff ff 	movq   $0x0,-0x358(%rbp)
   11a45:	00 00 00 00 
   11a49:	48 8d 85 e8 e6 ff ff 	lea    -0x1918(%rbp),%rax
   11a50:	48 89 85 b0 fc ff ff 	mov    %rax,-0x350(%rbp)
   11a57:	48 8d 85 e8 e6 ff ff 	lea    -0x1918(%rbp),%rax
   11a5e:	48 89 85 b8 fc ff ff 	mov    %rax,-0x348(%rbp)
   11a65:	48 8d 85 e8 e6 ff ff 	lea    -0x1918(%rbp),%rax
   11a6c:	48 89 85 c0 fc ff ff 	mov    %rax,-0x340(%rbp)
   11a73:	48 8d 85 e8 e6 ff ff 	lea    -0x1918(%rbp),%rax
   11a7a:	48 89 85 c8 fc ff ff 	mov    %rax,-0x338(%rbp)
   11a81:	48 8d 85 e8 e6 ff ff 	lea    -0x1918(%rbp),%rax
   11a88:	48 89 85 d0 fc ff ff 	mov    %rax,-0x330(%rbp)
   11a8f:	48 8d 85 e8 e6 ff ff 	lea    -0x1918(%rbp),%rax
   11a96:	48 89 85 d8 fc ff ff 	mov    %rax,-0x328(%rbp)
   11a9d:	48 8d 85 e8 e6 ff ff 	lea    -0x1918(%rbp),%rax
   11aa4:	48 89 85 e0 fc ff ff 	mov    %rax,-0x320(%rbp)
   11aab:	48 c7 85 e8 fc ff ff 	movq   $0x0,-0x318(%rbp)
   11ab2:	00 00 00 00 
   11ab6:	48 8d 85 e8 e6 ff ff 	lea    -0x1918(%rbp),%rax
   11abd:	48 89 85 f0 fc ff ff 	mov    %rax,-0x310(%rbp)
   11ac4:	48 8d 85 e8 e6 ff ff 	lea    -0x1918(%rbp),%rax
   11acb:	48 89 85 f8 fc ff ff 	mov    %rax,-0x308(%rbp)
   11ad2:	48 8d 85 e8 e6 ff ff 	lea    -0x1918(%rbp),%rax
   11ad9:	48 89 85 00 fd ff ff 	mov    %rax,-0x300(%rbp)
   11ae0:	48 8d 85 e8 e6 ff ff 	lea    -0x1918(%rbp),%rax
   11ae7:	48 89 85 08 fd ff ff 	mov    %rax,-0x2f8(%rbp)
   11aee:	48 8d 85 e8 e6 ff ff 	lea    -0x1918(%rbp),%rax
   11af5:	48 89 85 10 fd ff ff 	mov    %rax,-0x2f0(%rbp)
   11afc:	48 8d 85 e8 e6 ff ff 	lea    -0x1918(%rbp),%rax
   11b03:	48 89 85 18 fd ff ff 	mov    %rax,-0x2e8(%rbp)
   11b0a:	48 c7 85 20 fd ff ff 	movq   $0x0,-0x2e0(%rbp)
   11b11:	00 00 00 00 
   11b15:	48 8d 85 e8 e6 ff ff 	lea    -0x1918(%rbp),%rax
   11b1c:	48 89 85 28 fd ff ff 	mov    %rax,-0x2d8(%rbp)
   11b23:	48 8d 85 e8 e6 ff ff 	lea    -0x1918(%rbp),%rax
   11b2a:	48 89 85 30 fd ff ff 	mov    %rax,-0x2d0(%rbp)
   11b31:	48 8d 85 e8 e6 ff ff 	lea    -0x1918(%rbp),%rax
   11b38:	48 89 85 38 fd ff ff 	mov    %rax,-0x2c8(%rbp)
   11b3f:	48 8d 85 e8 e6 ff ff 	lea    -0x1918(%rbp),%rax
   11b46:	48 89 85 40 fd ff ff 	mov    %rax,-0x2c0(%rbp)
   11b4d:	48 8d 85 e8 e6 ff ff 	lea    -0x1918(%rbp),%rax
   11b54:	48 89 85 48 fd ff ff 	mov    %rax,-0x2b8(%rbp)
   11b5b:	48 c7 85 50 fd ff ff 	movq   $0x0,-0x2b0(%rbp)
   11b62:	00 00 00 00 
   11b66:	48 8d 85 e8 e6 ff ff 	lea    -0x1918(%rbp),%rax
   11b6d:	48 89 85 58 fd ff ff 	mov    %rax,-0x2a8(%rbp)
   11b74:	48 8d 85 e8 e6 ff ff 	lea    -0x1918(%rbp),%rax
   11b7b:	48 89 85 60 fd ff ff 	mov    %rax,-0x2a0(%rbp)
   11b82:	48 8d 85 e8 e6 ff ff 	lea    -0x1918(%rbp),%rax
   11b89:	48 89 85 68 fd ff ff 	mov    %rax,-0x298(%rbp)
   11b90:	48 8d 85 e8 e6 ff ff 	lea    -0x1918(%rbp),%rax
   11b97:	48 89 85 70 fd ff ff 	mov    %rax,-0x290(%rbp)
   11b9e:	48 8d 85 e8 e6 ff ff 	lea    -0x1918(%rbp),%rax
   11ba5:	48 89 85 78 fd ff ff 	mov    %rax,-0x288(%rbp)
   11bac:	48 8d 85 e8 e6 ff ff 	lea    -0x1918(%rbp),%rax
   11bb3:	48 89 85 80 fd ff ff 	mov    %rax,-0x280(%rbp)
   11bba:	48 8d 85 e8 e6 ff ff 	lea    -0x1918(%rbp),%rax
   11bc1:	48 89 85 88 fd ff ff 	mov    %rax,-0x278(%rbp)
   11bc8:	48 8d 85 e8 e6 ff ff 	lea    -0x1918(%rbp),%rax
   11bcf:	48 89 85 90 fd ff ff 	mov    %rax,-0x270(%rbp)
   11bd6:	48 c7 85 98 fd ff ff 	movq   $0x0,-0x268(%rbp)
   11bdd:	00 00 00 00 
   11be1:	48 8d 85 e8 e6 ff ff 	lea    -0x1918(%rbp),%rax
   11be8:	48 89 85 a0 fd ff ff 	mov    %rax,-0x260(%rbp)
   11bef:	48 c7 85 a8 fd ff ff 	movq   $0x0,-0x258(%rbp)
   11bf6:	00 00 00 00 
   11bfa:	48 c7 85 b0 fd ff ff 	movq   $0x0,-0x250(%rbp)
   11c01:	00 00 00 00 
   11c05:	48 8d 85 e8 e6 ff ff 	lea    -0x1918(%rbp),%rax
   11c0c:	48 89 85 b8 fd ff ff 	mov    %rax,-0x248(%rbp)
   11c13:	48 8d 85 e8 e6 ff ff 	lea    -0x1918(%rbp),%rax
   11c1a:	48 89 85 c0 fd ff ff 	mov    %rax,-0x240(%rbp)
   11c21:	48 c7 85 c8 fd ff ff 	movq   $0x0,-0x238(%rbp)
   11c28:	00 00 00 00 
   11c2c:	48 8d 85 e8 e6 ff ff 	lea    -0x1918(%rbp),%rax
   11c33:	48 89 85 d0 fd ff ff 	mov    %rax,-0x230(%rbp)
   11c3a:	48 8d 85 e8 e6 ff ff 	lea    -0x1918(%rbp),%rax
   11c41:	48 89 85 d8 fd ff ff 	mov    %rax,-0x228(%rbp)
   11c48:	48 8d 85 e8 e6 ff ff 	lea    -0x1918(%rbp),%rax
   11c4f:	48 89 85 e0 fd ff ff 	mov    %rax,-0x220(%rbp)
   11c56:	48 c7 85 e8 fd ff ff 	movq   $0x0,-0x218(%rbp)
   11c5d:	00 00 00 00 
   11c61:	48 8d 85 e8 e6 ff ff 	lea    -0x1918(%rbp),%rax
   11c68:	48 89 85 f0 fd ff ff 	mov    %rax,-0x210(%rbp)
   11c6f:	48 8d 85 e8 e6 ff ff 	lea    -0x1918(%rbp),%rax
   11c76:	48 89 85 f8 fd ff ff 	mov    %rax,-0x208(%rbp)
   11c7d:	48 c7 85 00 fe ff ff 	movq   $0x0,-0x200(%rbp)
   11c84:	00 00 00 00 
   11c88:	48 c7 85 08 fe ff ff 	movq   $0x0,-0x1f8(%rbp)
   11c8f:	00 00 00 00 
   11c93:	48 8d 85 e8 e6 ff ff 	lea    -0x1918(%rbp),%rax
   11c9a:	48 89 85 10 fe ff ff 	mov    %rax,-0x1f0(%rbp)
   11ca1:	48 c7 85 18 fe ff ff 	movq   $0x0,-0x1e8(%rbp)
   11ca8:	00 00 00 00 
   11cac:	48 8d 85 e8 e6 ff ff 	lea    -0x1918(%rbp),%rax
   11cb3:	48 89 85 20 fe ff ff 	mov    %rax,-0x1e0(%rbp)
   11cba:	48 8d 85 e8 e6 ff ff 	lea    -0x1918(%rbp),%rax
   11cc1:	48 89 85 28 fe ff ff 	mov    %rax,-0x1d8(%rbp)
   11cc8:	48 8d 85 e8 e6 ff ff 	lea    -0x1918(%rbp),%rax
   11ccf:	48 89 85 30 fe ff ff 	mov    %rax,-0x1d0(%rbp)
   11cd6:	48 8d 85 e8 e6 ff ff 	lea    -0x1918(%rbp),%rax
   11cdd:	48 89 85 38 fe ff ff 	mov    %rax,-0x1c8(%rbp)
   11ce4:	48 8d 85 e8 e6 ff ff 	lea    -0x1918(%rbp),%rax
   11ceb:	48 89 85 40 fe ff ff 	mov    %rax,-0x1c0(%rbp)
   11cf2:	48 c7 85 48 fe ff ff 	movq   $0x0,-0x1b8(%rbp)
   11cf9:	00 00 00 00 
   11cfd:	48 8d 85 e8 e6 ff ff 	lea    -0x1918(%rbp),%rax
   11d04:	48 89 85 50 fe ff ff 	mov    %rax,-0x1b0(%rbp)
   11d0b:	48 c7 85 58 fe ff ff 	movq   $0x0,-0x1a8(%rbp)
   11d12:	00 00 00 00 
   11d16:	48 8d 85 e8 e6 ff ff 	lea    -0x1918(%rbp),%rax
   11d1d:	48 89 85 60 fe ff ff 	mov    %rax,-0x1a0(%rbp)
   11d24:	48 c7 85 68 fe ff ff 	movq   $0x0,-0x198(%rbp)
   11d2b:	00 00 00 00 
   11d2f:	48 8d 85 e8 e6 ff ff 	lea    -0x1918(%rbp),%rax
   11d36:	48 89 85 70 fe ff ff 	mov    %rax,-0x190(%rbp)
   11d3d:	48 c7 85 78 fe ff ff 	movq   $0x0,-0x188(%rbp)
   11d44:	00 00 00 00 
   11d48:	48 8d 85 e8 e6 ff ff 	lea    -0x1918(%rbp),%rax
   11d4f:	48 89 85 80 fe ff ff 	mov    %rax,-0x180(%rbp)
   11d56:	48 c7 85 88 fe ff ff 	movq   $0x0,-0x178(%rbp)
   11d5d:	00 00 00 00 
   11d61:	48 8d 85 e8 e6 ff ff 	lea    -0x1918(%rbp),%rax
   11d68:	48 89 85 90 fe ff ff 	mov    %rax,-0x170(%rbp)
   11d6f:	48 8d 85 e8 e6 ff ff 	lea    -0x1918(%rbp),%rax
   11d76:	48 89 85 98 fe ff ff 	mov    %rax,-0x168(%rbp)
   11d7d:	48 8d 85 e8 e6 ff ff 	lea    -0x1918(%rbp),%rax
   11d84:	48 89 85 a0 fe ff ff 	mov    %rax,-0x160(%rbp)
   11d8b:	48 8d 85 e8 e6 ff ff 	lea    -0x1918(%rbp),%rax
   11d92:	48 89 85 a8 fe ff ff 	mov    %rax,-0x158(%rbp)
   11d99:	48 8d 85 e8 e6 ff ff 	lea    -0x1918(%rbp),%rax
   11da0:	48 89 85 b0 fe ff ff 	mov    %rax,-0x150(%rbp)
   11da7:	48 8d 85 e8 e6 ff ff 	lea    -0x1918(%rbp),%rax
   11dae:	48 89 85 b8 fe ff ff 	mov    %rax,-0x148(%rbp)
   11db5:	48 8d 85 e8 e6 ff ff 	lea    -0x1918(%rbp),%rax
   11dbc:	48 89 85 c0 fe ff ff 	mov    %rax,-0x140(%rbp)
   11dc3:	48 8d 85 e8 e6 ff ff 	lea    -0x1918(%rbp),%rax
   11dca:	48 89 85 c8 fe ff ff 	mov    %rax,-0x138(%rbp)
   11dd1:	48 c7 85 d0 fe ff ff 	movq   $0x0,-0x130(%rbp)
   11dd8:	00 00 00 00 
   11ddc:	48 8d 85 e8 e6 ff ff 	lea    -0x1918(%rbp),%rax
   11de3:	48 89 85 d8 fe ff ff 	mov    %rax,-0x128(%rbp)
   11dea:	48 8d 85 e8 e6 ff ff 	lea    -0x1918(%rbp),%rax
   11df1:	48 89 85 e0 fe ff ff 	mov    %rax,-0x120(%rbp)
   11df8:	48 c7 85 e8 fe ff ff 	movq   $0x0,-0x118(%rbp)
   11dff:	00 00 00 00 
   11e03:	48 c7 85 f0 fe ff ff 	movq   $0x0,-0x110(%rbp)
   11e0a:	00 00 00 00 
   11e0e:	48 c7 85 f8 fe ff ff 	movq   $0x0,-0x108(%rbp)
   11e15:	00 00 00 00 
   11e19:	48 c7 85 00 ff ff ff 	movq   $0x0,-0x100(%rbp)
   11e20:	00 00 00 00 
   11e24:	48 8d 85 e8 e6 ff ff 	lea    -0x1918(%rbp),%rax
   11e2b:	48 89 85 08 ff ff ff 	mov    %rax,-0xf8(%rbp)
   11e32:	48 c7 85 10 ff ff ff 	movq   $0x0,-0xf0(%rbp)
   11e39:	00 00 00 00 
   11e3d:	48 8d 85 e8 e6 ff ff 	lea    -0x1918(%rbp),%rax
   11e44:	48 89 85 18 ff ff ff 	mov    %rax,-0xe8(%rbp)
   11e4b:	48 8d 85 e8 e6 ff ff 	lea    -0x1918(%rbp),%rax
   11e52:	48 89 85 20 ff ff ff 	mov    %rax,-0xe0(%rbp)
   11e59:	48 8d 85 e8 e6 ff ff 	lea    -0x1918(%rbp),%rax
   11e60:	48 89 85 28 ff ff ff 	mov    %rax,-0xd8(%rbp)
   11e67:	48 8d 85 e8 e6 ff ff 	lea    -0x1918(%rbp),%rax
   11e6e:	48 89 85 30 ff ff ff 	mov    %rax,-0xd0(%rbp)
   11e75:	48 8d 85 e8 e6 ff ff 	lea    -0x1918(%rbp),%rax
   11e7c:	48 89 85 38 ff ff ff 	mov    %rax,-0xc8(%rbp)
   11e83:	48 8d 85 e8 e6 ff ff 	lea    -0x1918(%rbp),%rax
   11e8a:	48 89 85 40 ff ff ff 	mov    %rax,-0xc0(%rbp)
   11e91:	48 c7 85 48 ff ff ff 	movq   $0x0,-0xb8(%rbp)
   11e98:	00 00 00 00 
   11e9c:	48 8d 85 e8 e6 ff ff 	lea    -0x1918(%rbp),%rax
   11ea3:	48 89 85 50 ff ff ff 	mov    %rax,-0xb0(%rbp)
   11eaa:	48 8d 85 e8 e6 ff ff 	lea    -0x1918(%rbp),%rax
   11eb1:	48 89 85 58 ff ff ff 	mov    %rax,-0xa8(%rbp)
   11eb8:	48 c7 85 60 ff ff ff 	movq   $0x0,-0xa0(%rbp)
   11ebf:	00 00 00 00 
   11ec3:	48 8d 85 e8 e6 ff ff 	lea    -0x1918(%rbp),%rax
   11eca:	48 89 85 68 ff ff ff 	mov    %rax,-0x98(%rbp)
   11ed1:	48 8d 85 e8 e6 ff ff 	lea    -0x1918(%rbp),%rax
   11ed8:	48 89 85 70 ff ff ff 	mov    %rax,-0x90(%rbp)
   11edf:	48 c7 85 78 ff ff ff 	movq   $0x0,-0x88(%rbp)
   11ee6:	00 00 00 00 
   11eea:	48 8d 85 e8 e6 ff ff 	lea    -0x1918(%rbp),%rax
   11ef1:	48 89 45 80          	mov    %rax,-0x80(%rbp)
   11ef5:	48 c7 45 88 00 00 00 	movq   $0x0,-0x78(%rbp)
   11efc:	00 
   11efd:	48 c7 45 90 00 00 00 	movq   $0x0,-0x70(%rbp)
   11f04:	00 
   11f05:	48 8d 85 e8 e6 ff ff 	lea    -0x1918(%rbp),%rax
   11f0c:	48 89 45 98          	mov    %rax,-0x68(%rbp)
   11f10:	48 8d 85 e8 e6 ff ff 	lea    -0x1918(%rbp),%rax
   11f17:	48 89 45 a0          	mov    %rax,-0x60(%rbp)
   11f1b:	48 8d 85 e8 e6 ff ff 	lea    -0x1918(%rbp),%rax
   11f22:	48 89 45 a8          	mov    %rax,-0x58(%rbp)
   11f26:	48 c7 45 b0 00 00 00 	movq   $0x0,-0x50(%rbp)
   11f2d:	00 
   11f2e:	48 8d 85 e8 e6 ff ff 	lea    -0x1918(%rbp),%rax
   11f35:	48 89 45 b8          	mov    %rax,-0x48(%rbp)
   11f39:	48 8d 85 e8 e6 ff ff 	lea    -0x1918(%rbp),%rax
   11f40:	48 89 45 c0          	mov    %rax,-0x40(%rbp)
   11f44:	48 8d 85 e8 e6 ff ff 	lea    -0x1918(%rbp),%rax
   11f4b:	48 89 45 c8          	mov    %rax,-0x38(%rbp)
   11f4f:	c6 85 a1 e5 ff ff fa 	movb   $0xfa,-0x1a5f(%rbp)
   11f56:	66 c7 85 aa e5 ff ff 	movw   $0xfff9,-0x1a56(%rbp)
   11f5d:	f9 ff 
   11f5f:	c6 85 30 e7 ff ff ff 	movb   $0xff,-0x18d0(%rbp)
   11f66:	c7 85 b8 e5 ff ff 00 	movl   $0x0,-0x1a48(%rbp)
   11f6d:	00 00 00 
   11f70:	eb 25                	jmp    11f97 <func_76+0x3818>
   11f72:	8b 85 b8 e5 ff ff    	mov    -0x1a48(%rbp),%eax
   11f78:	48 98                	cltq   
   11f7a:	48 8d 95 80 f4 ff ff 	lea    -0xb80(%rbp),%rdx
   11f81:	48 81 c2 58 01 00 00 	add    $0x158,%rdx
   11f88:	48 89 94 c5 40 ea ff 	mov    %rdx,-0x15c0(%rbp,%rax,8)
   11f8f:	ff 
   11f90:	83 85 b8 e5 ff ff 01 	addl   $0x1,-0x1a48(%rbp)
   11f97:	83 bd b8 e5 ff ff 03 	cmpl   $0x3,-0x1a48(%rbp)
   11f9e:	7e d2                	jle    11f72 <func_76+0x37f3>
   11fa0:	48 c7 85 80 e5 ff ff 	movq   $0x0,-0x1a80(%rbp)
   11fa7:	00 00 00 00 
   11fab:	c7 85 14 e6 ff ff 1b 	movl   $0x1b,-0x19ec(%rbp)
   11fb2:	00 00 00 
   11fb5:	e9 43 17 00 00       	jmpq   136fd <func_76+0x4f7e>
   11fba:	48 8d 85 d8 e6 ff ff 	lea    -0x1928(%rbp),%rax
   11fc1:	48 89 85 a0 e7 ff ff 	mov    %rax,-0x1860(%rbp)
   11fc8:	c7 85 bc e5 ff ff 56 	movl   $0x9399ce56,-0x1a44(%rbp)
   11fcf:	ce 99 93 
   11fd2:	c6 85 a2 e5 ff ff 1a 	movb   $0x1a,-0x1a5e(%rbp)
   11fd9:	48 8d 85 e0 e6 ff ff 	lea    -0x1920(%rbp),%rax
   11fe0:	48 89 85 a8 e7 ff ff 	mov    %rax,-0x1858(%rbp)
   11fe7:	c6 85 a3 e5 ff ff 06 	movb   $0x6,-0x1a5d(%rbp)
   11fee:	66 c7 85 a8 e5 ff ff 	movw   $0x8a2a,-0x1a58(%rbp)
   11ff5:	2a 8a 
   11ff7:	48 b8 4a 1b b2 11 3b 	movabs $0xeb8fdb3b11b21b4a,%rax
   11ffe:	db 8f eb 
   12001:	48 89 85 b0 e7 ff ff 	mov    %rax,-0x1850(%rbp)
   12008:	c7 85 40 ec ff ff 71 	movl   $0xad035371,-0x13c0(%rbp)
   1200f:	53 03 ad 
   12012:	c7 85 44 ec ff ff fb 	movl   $0xfffffffb,-0x13bc(%rbp)
   12019:	ff ff ff 
   1201c:	c7 85 48 ec ff ff fb 	movl   $0xfffffffb,-0x13b8(%rbp)
   12023:	ff ff ff 
   12026:	c7 85 4c ec ff ff 71 	movl   $0xad035371,-0x13b4(%rbp)
   1202d:	53 03 ad 
   12030:	c7 85 50 ec ff ff fb 	movl   $0xfffffffb,-0x13b0(%rbp)
   12037:	ff ff ff 
   1203a:	c7 85 54 ec ff ff fb 	movl   $0xfffffffb,-0x13ac(%rbp)
   12041:	ff ff ff 
   12044:	c7 85 58 ec ff ff 71 	movl   $0xad035371,-0x13a8(%rbp)
   1204b:	53 03 ad 
   1204e:	c7 85 5c ec ff ff fb 	movl   $0xfffffffb,-0x13a4(%rbp)
   12055:	ff ff ff 
   12058:	c7 85 60 ec ff ff fb 	movl   $0xfffffffb,-0x13a0(%rbp)
   1205f:	ff ff ff 
   12062:	c7 85 64 ec ff ff c0 	movl   $0xc86ad7c0,-0x139c(%rbp)
   12069:	d7 6a c8 
   1206c:	c7 85 68 ec ff ff d0 	movl   $0x2239a7d0,-0x1398(%rbp)
   12073:	a7 39 22 
   12076:	c7 85 6c ec ff ff fa 	movl   $0x8d6fbffa,-0x1394(%rbp)
   1207d:	bf 6f 8d 
   12080:	c7 85 70 ec ff ff 8f 	movl   $0x1cf0fb8f,-0x1390(%rbp)
   12087:	fb f0 1c 
   1208a:	c7 85 74 ec ff ff fa 	movl   $0x8d6fbffa,-0x138c(%rbp)
   12091:	bf 6f 8d 
   12094:	c7 85 78 ec ff ff d0 	movl   $0x2239a7d0,-0x1388(%rbp)
   1209b:	a7 39 22 
   1209e:	c7 85 7c ec ff ff c0 	movl   $0xc86ad7c0,-0x1384(%rbp)
   120a5:	d7 6a c8 
   120a8:	c7 85 80 ec ff ff d0 	movl   $0x2239a7d0,-0x1380(%rbp)
   120af:	a7 39 22 
   120b2:	c7 85 84 ec ff ff fa 	movl   $0x8d6fbffa,-0x137c(%rbp)
   120b9:	bf 6f 8d 
   120bc:	c7 85 88 ec ff ff 71 	movl   $0xad035371,-0x1378(%rbp)
   120c3:	53 03 ad 
   120c6:	c7 85 8c ec ff ff fb 	movl   $0xfffffffb,-0x1374(%rbp)
   120cd:	ff ff ff 
   120d0:	c7 85 90 ec ff ff fb 	movl   $0xfffffffb,-0x1370(%rbp)
   120d7:	ff ff ff 
   120da:	c7 85 94 ec ff ff 71 	movl   $0xad035371,-0x136c(%rbp)
   120e1:	53 03 ad 
   120e4:	c7 85 98 ec ff ff fb 	movl   $0xfffffffb,-0x1368(%rbp)
   120eb:	ff ff ff 
   120ee:	c7 85 9c ec ff ff fb 	movl   $0xfffffffb,-0x1364(%rbp)
   120f5:	ff ff ff 
   120f8:	c7 85 a0 ec ff ff 71 	movl   $0xad035371,-0x1360(%rbp)
   120ff:	53 03 ad 
   12102:	c7 85 a4 ec ff ff fb 	movl   $0xfffffffb,-0x135c(%rbp)
   12109:	ff ff ff 
   1210c:	c7 85 a8 ec ff ff fb 	movl   $0xfffffffb,-0x1358(%rbp)
   12113:	ff ff ff 
   12116:	c7 85 ac ec ff ff c0 	movl   $0xc86ad7c0,-0x1354(%rbp)
   1211d:	d7 6a c8 
   12120:	c7 85 b0 ec ff ff d0 	movl   $0x2239a7d0,-0x1350(%rbp)
   12127:	a7 39 22 
   1212a:	c7 85 b4 ec ff ff fa 	movl   $0x8d6fbffa,-0x134c(%rbp)
   12131:	bf 6f 8d 
   12134:	c7 85 b8 ec ff ff 8f 	movl   $0x1cf0fb8f,-0x1348(%rbp)
   1213b:	fb f0 1c 
   1213e:	c7 85 bc ec ff ff fa 	movl   $0x8d6fbffa,-0x1344(%rbp)
   12145:	bf 6f 8d 
   12148:	c7 85 c0 ec ff ff d0 	movl   $0x2239a7d0,-0x1340(%rbp)
   1214f:	a7 39 22 
   12152:	c7 85 c4 ec ff ff c0 	movl   $0xc86ad7c0,-0x133c(%rbp)
   12159:	d7 6a c8 
   1215c:	c7 85 c8 ec ff ff d0 	movl   $0x2239a7d0,-0x1338(%rbp)
   12163:	a7 39 22 
   12166:	c7 85 cc ec ff ff fa 	movl   $0x8d6fbffa,-0x1334(%rbp)
   1216d:	bf 6f 8d 
   12170:	c7 85 c0 e5 ff ff 00 	movl   $0x0,-0x1a40(%rbp)
   12177:	00 00 00 
   1217a:	eb 1a                	jmp    12196 <func_76+0x3a17>
   1217c:	8b 85 c0 e5 ff ff    	mov    -0x1a40(%rbp),%eax
   12182:	48 98                	cltq   
   12184:	c7 84 85 b8 e9 ff ff 	movl   $0xa2f0b874,-0x1648(%rbp,%rax,4)
   1218b:	74 b8 f0 a2 
   1218f:	83 85 c0 e5 ff ff 01 	addl   $0x1,-0x1a40(%rbp)
   12196:	83 bd c0 e5 ff ff 02 	cmpl   $0x2,-0x1a40(%rbp)
   1219d:	7e dd                	jle    1217c <func_76+0x39fd>
   1219f:	c7 85 c0 e5 ff ff 00 	movl   $0x0,-0x1a40(%rbp)
   121a6:	00 00 00 
   121a9:	eb 14                	jmp    121bf <func_76+0x3a40>
   121ab:	8b 85 c0 e5 ff ff    	mov    -0x1a40(%rbp),%eax
   121b1:	48 98                	cltq   
   121b3:	c6 44 05 d5 00       	movb   $0x0,-0x2b(%rbp,%rax,1)
   121b8:	83 85 c0 e5 ff ff 01 	addl   $0x1,-0x1a40(%rbp)
   121bf:	83 bd c0 e5 ff ff 00 	cmpl   $0x0,-0x1a40(%rbp)
   121c6:	7e e3                	jle    121ab <func_76+0x3a2c>
   121c8:	c7 85 c0 e5 ff ff 00 	movl   $0x0,-0x1a40(%rbp)
   121cf:	00 00 00 
   121d2:	eb 46                	jmp    1221a <func_76+0x3a9b>
   121d4:	c7 85 c4 e5 ff ff 00 	movl   $0x0,-0x1a3c(%rbp)
   121db:	00 00 00 
   121de:	eb 2a                	jmp    1220a <func_76+0x3a8b>
   121e0:	8b 85 c4 e5 ff ff    	mov    -0x1a3c(%rbp),%eax
   121e6:	48 98                	cltq   
   121e8:	8b 95 c0 e5 ff ff    	mov    -0x1a40(%rbp),%edx
   121ee:	48 63 d2             	movslq %edx,%rdx
   121f1:	48 c1 e2 03          	shl    $0x3,%rdx
   121f5:	48 01 d0             	add    %rdx,%rax
   121f8:	c7 84 85 60 ea ff ff 	movl   $0x185709b2,-0x15a0(%rbp,%rax,4)
   121ff:	b2 09 57 18 
   12203:	83 85 c4 e5 ff ff 01 	addl   $0x1,-0x1a3c(%rbp)
   1220a:	83 bd c4 e5 ff ff 07 	cmpl   $0x7,-0x1a3c(%rbp)
   12211:	7e cd                	jle    121e0 <func_76+0x3a61>
   12213:	83 85 c0 e5 ff ff 01 	addl   $0x1,-0x1a40(%rbp)
   1221a:	83 bd c0 e5 ff ff 00 	cmpl   $0x0,-0x1a40(%rbp)
   12221:	7e b1                	jle    121d4 <func_76+0x3a55>
   12223:	48 8b 05 b6 b1 00 00 	mov    0xb1b6(%rip),%rax        # 1d3e0 <g_91>
   1222a:	8b 18                	mov    (%rax),%ebx
   1222c:	8b 85 bc e9 ff ff    	mov    -0x1644(%rbp),%eax
   12232:	44 0f b7 e0          	movzwl %ax,%r12d
   12236:	8b 85 b8 e9 ff ff    	mov    -0x1648(%rbp),%eax
   1223c:	44 0f be e8          	movsbl %al,%r13d
   12240:	8b 85 88 e5 ff ff    	mov    -0x1a78(%rbp),%eax
   12246:	48 8b 95 60 e7 ff ff 	mov    -0x18a0(%rbp),%rdx
   1224d:	89 c6                	mov    %eax,%esi
   1224f:	89 d7                	mov    %edx,%edi
   12251:	e8 76 74 ff ff       	callq  96cc <safe_mod_func_int32_t_s_s>
   12256:	be 00 00 00 00       	mov    $0x0,%esi
   1225b:	89 c7                	mov    %eax,%edi
   1225d:	e8 54 73 ff ff       	callq  95b6 <safe_add_func_int32_t_s_s>
   12262:	0f be d0             	movsbl %al,%edx
   12265:	0f b6 85 a2 e5 ff ff 	movzbl -0x1a5e(%rbp),%eax
   1226c:	0f be c0             	movsbl %al,%eax
   1226f:	89 d6                	mov    %edx,%esi
   12271:	89 c7                	mov    %eax,%edi
   12273:	e8 9a 6f ff ff       	callq  9212 <safe_mul_func_int8_t_s_s>
   12278:	84 c0                	test   %al,%al
   1227a:	0f 94 c0             	sete   %al
   1227d:	44 0f b6 f0          	movzbl %al,%r14d
   12281:	be 03 00 00 00       	mov    $0x3,%esi
   12286:	bf 01 00 00 00       	mov    $0x1,%edi
   1228b:	e8 51 72 ff ff       	callq  94e1 <safe_lshift_func_int16_t_s_u>
   12290:	0f bf d0             	movswl %ax,%edx
   12293:	48 83 bd a0 e7 ff ff 	cmpq   $0x0,-0x1860(%rbp)
   1229a:	00 
   1229b:	0f 94 c0             	sete   %al
   1229e:	0f b6 c0             	movzbl %al,%eax
   122a1:	0b 85 bc e5 ff ff    	or     -0x1a44(%rbp),%eax
   122a7:	39 85 88 e5 ff ff    	cmp    %eax,-0x1a78(%rbp)
   122ad:	0f 96 c0             	setbe  %al
   122b0:	0f b6 c0             	movzbl %al,%eax
   122b3:	39 c2                	cmp    %eax,%edx
   122b5:	0f 94 c0             	sete   %al
   122b8:	0f b6 c0             	movzbl %al,%eax
   122bb:	44 89 f6             	mov    %r14d,%esi
   122be:	89 c7                	mov    %eax,%edi
   122c0:	e8 30 71 ff ff       	callq  93f5 <safe_mul_func_int16_t_s_s>
   122c5:	98                   	cwtl   
   122c6:	89 85 bc e5 ff ff    	mov    %eax,-0x1a44(%rbp)
   122cc:	8b 85 bc e5 ff ff    	mov    -0x1a44(%rbp),%eax
   122d2:	0f be c0             	movsbl %al,%eax
   122d5:	44 89 ee             	mov    %r13d,%esi
   122d8:	89 c7                	mov    %eax,%edi
   122da:	e8 33 6f ff ff       	callq  9212 <safe_mul_func_int8_t_s_s>
   122df:	44 89 e6             	mov    %r12d,%esi
   122e2:	bf f9 ff 00 00       	mov    $0xfff9,%edi
   122e7:	e8 13 7a ff ff       	callq  9cff <safe_add_func_uint16_t_u_u>
   122ec:	8b 85 bc e5 ff ff    	mov    -0x1a44(%rbp),%eax
   122f2:	98                   	cwtl   
   122f3:	be 08 00 00 00       	mov    $0x8,%esi
   122f8:	89 c7                	mov    %eax,%edi
   122fa:	e8 f6 70 ff ff       	callq  93f5 <safe_mul_func_int16_t_s_s>
   122ff:	48 8b 85 70 e7 ff ff 	mov    -0x1890(%rbp),%rax
   12306:	89 de                	mov    %ebx,%esi
   12308:	89 c7                	mov    %eax,%edi
   1230a:	e8 f0 73 ff ff       	callq  96ff <safe_div_func_int32_t_s_s>
   1230f:	85 c0                	test   %eax,%eax
   12311:	0f 84 87 09 00 00    	je     12c9e <func_76+0x451f>
   12317:	48 8d 85 80 ea ff ff 	lea    -0x1580(%rbp),%rax
   1231e:	48 83 c0 14          	add    $0x14,%rax
   12322:	48 89 85 d0 e7 ff ff 	mov    %rax,-0x1830(%rbp)
   12329:	48 8d 05 60 b1 00 00 	lea    0xb160(%rip),%rax        # 1d490 <g_374+0x10>
   12330:	48 89 85 d8 e7 ff ff 	mov    %rax,-0x1828(%rbp)
   12337:	c7 85 e0 ea ff ff 1c 	movl   $0x1460b31c,-0x1520(%rbp)
   1233e:	b3 60 14 
   12341:	c7 85 e4 ea ff ff 03 	movl   $0x92d02b03,-0x151c(%rbp)
   12348:	2b d0 92 
   1234b:	c7 85 e8 ea ff ff 03 	movl   $0x92d02b03,-0x1518(%rbp)
   12352:	2b d0 92 
   12355:	c7 85 ec ea ff ff 1c 	movl   $0x1460b31c,-0x1514(%rbp)
   1235c:	b3 60 14 
   1235f:	c7 85 f0 ea ff ff 03 	movl   $0x92d02b03,-0x1510(%rbp)
   12366:	2b d0 92 
   12369:	c7 85 f4 ea ff ff 03 	movl   $0x92d02b03,-0x150c(%rbp)
   12370:	2b d0 92 
   12373:	c7 85 f8 ea ff ff 1c 	movl   $0x1460b31c,-0x1508(%rbp)
   1237a:	b3 60 14 
   1237d:	c7 85 fc ea ff ff 03 	movl   $0x92d02b03,-0x1504(%rbp)
   12384:	2b d0 92 
   12387:	c7 85 00 eb ff ff 03 	movl   $0x92d02b03,-0x1500(%rbp)
   1238e:	2b d0 92 
   12391:	c7 85 04 eb ff ff 1c 	movl   $0x1460b31c,-0x14fc(%rbp)
   12398:	b3 60 14 
   1239b:	c6 85 38 e7 ff ff 01 	movb   $0x1,-0x18c8(%rbp)
   123a2:	c7 85 28 e6 ff ff fa 	movl   $0xfffffffa,-0x19d8(%rbp)
   123a9:	ff ff ff 
   123ac:	48 c7 05 d9 80 00 00 	movq   $0xfffffffffffffffb,0x80d9(%rip)        # 1a490 <g_459>
   123b3:	fb ff ff ff 
   123b7:	eb 34                	jmp    123ed <func_76+0x3c6e>
   123b9:	c7 85 6c e6 ff ff 01 	movl   $0x1,-0x1994(%rbp)
   123c0:	00 00 00 
   123c3:	48 8b 85 d0 e7 ff ff 	mov    -0x1830(%rbp),%rax
   123ca:	48 89 85 48 e7 ff ff 	mov    %rax,-0x18b8(%rbp)
   123d1:	0f b6 45 d5          	movzbl -0x2b(%rbp),%eax
   123d5:	83 c0 01             	add    $0x1,%eax
   123d8:	88 45 d5             	mov    %al,-0x2b(%rbp)
   123db:	48 8b 05 ae 80 00 00 	mov    0x80ae(%rip),%rax        # 1a490 <g_459>
   123e2:	48 83 c0 01          	add    $0x1,%rax
   123e6:	48 89 05 a3 80 00 00 	mov    %rax,0x80a3(%rip)        # 1a490 <g_459>
   123ed:	48 8b 05 9c 80 00 00 	mov    0x809c(%rip),%rax        # 1a490 <g_459>
   123f4:	48 83 f8 0a          	cmp    $0xa,%rax
   123f8:	77 bf                	ja     123b9 <func_76+0x3c3a>
   123fa:	66 c7 05 61 80 00 00 	movw   $0x0,0x8061(%rip)        # 1a464 <g_337>
   12401:	00 00 
   12403:	e9 48 03 00 00       	jmpq   12750 <func_76+0x3fd1>
   12408:	c7 85 c8 e5 ff ff e7 	movl   $0x4d154ae7,-0x1a38(%rbp)
   1240f:	4a 15 4d 
   12412:	48 c7 85 d0 ec ff ff 	movq   $0x0,-0x1330(%rbp)
   12419:	00 00 00 00 
   1241d:	48 8d 05 98 7f 00 00 	lea    0x7f98(%rip),%rax        # 1a3bc <g_256>
   12424:	48 89 85 d8 ec ff ff 	mov    %rax,-0x1328(%rbp)
   1242b:	48 c7 85 e0 ec ff ff 	movq   $0x0,-0x1320(%rbp)
   12432:	00 00 00 00 
   12436:	48 c7 85 e8 ec ff ff 	movq   $0x0,-0x1318(%rbp)
   1243d:	00 00 00 00 
   12441:	48 8d 05 74 7f 00 00 	lea    0x7f74(%rip),%rax        # 1a3bc <g_256>
   12448:	48 89 85 f0 ec ff ff 	mov    %rax,-0x1310(%rbp)
   1244f:	48 c7 85 f8 ec ff ff 	movq   $0x0,-0x1308(%rbp)
   12456:	00 00 00 00 
   1245a:	48 c7 85 00 ed ff ff 	movq   $0x0,-0x1300(%rbp)
   12461:	00 00 00 00 
   12465:	48 8b 85 d0 e7 ff ff 	mov    -0x1830(%rbp),%rax
   1246c:	8b 00                	mov    (%rax),%eax
   1246e:	89 c2                	mov    %eax,%edx
   12470:	0f b7 05 ed 7f 00 00 	movzwl 0x7fed(%rip),%eax        # 1a464 <g_337>
   12477:	0f b7 c0             	movzwl %ax,%eax
   1247a:	48 98                	cltq   
   1247c:	8b 84 85 b8 e9 ff ff 	mov    -0x1648(%rbp,%rax,4),%eax
   12483:	09 d0                	or     %edx,%eax
   12485:	89 c2                	mov    %eax,%edx
   12487:	48 8b 85 d0 e7 ff ff 	mov    -0x1830(%rbp),%rax
   1248e:	89 10                	mov    %edx,(%rax)
   12490:	66 c7 05 23 7f 00 00 	movw   $0x0,0x7f23(%rip)        # 1a3bc <g_256>
   12497:	00 00 
   12499:	e9 0c 01 00 00       	jmpq   125aa <func_76+0x3e2b>
   1249e:	83 85 e4 e5 ff ff 01 	addl   $0x1,-0x1a1c(%rbp)
   124a5:	48 8b 85 d0 e7 ff ff 	mov    -0x1830(%rbp),%rax
   124ac:	8b 00                	mov    (%rax),%eax
   124ae:	0f b6 d8             	movzbl %al,%ebx
   124b1:	48 8b 85 80 e5 ff ff 	mov    -0x1a80(%rbp),%rax
   124b8:	48 39 85 98 e7 ff ff 	cmp    %rax,-0x1868(%rbp)
   124bf:	0f 94 c0             	sete   %al
   124c2:	0f b6 c0             	movzbl %al,%eax
   124c5:	be 0f 00 00 00       	mov    $0xf,%esi
   124ca:	89 c7                	mov    %eax,%edi
   124cc:	e8 35 79 ff ff       	callq  9e06 <safe_lshift_func_uint16_t_u_u>
   124d1:	41 89 c5             	mov    %eax,%r13d
   124d4:	8b 85 c0 e9 ff ff    	mov    -0x1640(%rbp),%eax
   124da:	89 c6                	mov    %eax,%esi
   124dc:	bf 01 00 00 00       	mov    $0x1,%edi
   124e1:	e8 fb 6f ff ff       	callq  94e1 <safe_lshift_func_int16_t_s_u>
   124e6:	66 0d 96 bb          	or     $0xbb96,%ax
   124ea:	0f b7 c0             	movzwl %ax,%eax
   124ed:	be 06 00 00 00       	mov    $0x6,%esi
   124f2:	89 c7                	mov    %eax,%edi
   124f4:	e8 4f 79 ff ff       	callq  9e48 <safe_rshift_func_uint16_t_u_s>
   124f9:	44 0f be e0          	movsbl %al,%r12d
   124fd:	0f b6 45 d5          	movzbl -0x2b(%rbp),%eax
   12501:	0f b6 d0             	movzbl %al,%edx
   12504:	48 83 bd a8 e7 ff ff 	cmpq   $0x0,-0x1858(%rbp)
   1250b:	00 
   1250c:	0f 94 c0             	sete   %al
   1250f:	0f b6 c0             	movzbl %al,%eax
   12512:	0f b7 0d a3 7e 00 00 	movzwl 0x7ea3(%rip),%ecx        # 1a3bc <g_256>
   12519:	0f b7 c9             	movzwl %cx,%ecx
   1251c:	48 63 c9             	movslq %ecx,%rcx
   1251f:	8b b4 8d b8 e9 ff ff 	mov    -0x1648(%rbp,%rcx,4),%esi
   12526:	8b 8d c8 e5 ff ff    	mov    -0x1a38(%rbp),%ecx
   1252c:	09 f1                	or     %esi,%ecx
   1252e:	89 8d c8 e5 ff ff    	mov    %ecx,-0x1a38(%rbp)
   12534:	39 85 c8 e5 ff ff    	cmp    %eax,-0x1a38(%rbp)
   1253a:	0f 9e c0             	setle  %al
   1253d:	0f b6 c0             	movzbl %al,%eax
   12540:	89 d6                	mov    %edx,%esi
   12542:	89 c7                	mov    %eax,%edi
   12544:	e8 6f 79 ff ff       	callq  9eb8 <safe_add_func_uint32_t_u_u>
   12549:	44 89 e6             	mov    %r12d,%esi
   1254c:	bf 01 00 00 00       	mov    $0x1,%edi
   12551:	e8 14 6d ff ff       	callq  926a <safe_div_func_int8_t_s_s>
   12556:	84 c0                	test   %al,%al
   12558:	75 0d                	jne    12567 <func_76+0x3de8>
   1255a:	48 8b 85 48 e7 ff ff 	mov    -0x18b8(%rbp),%rax
   12561:	8b 00                	mov    (%rax),%eax
   12563:	85 c0                	test   %eax,%eax
   12565:	74 07                	je     1256e <func_76+0x3def>
   12567:	b8 01 00 00 00       	mov    $0x1,%eax
   1256c:	eb 05                	jmp    12573 <func_76+0x3df4>
   1256e:	b8 00 00 00 00       	mov    $0x0,%eax
   12573:	44 21 e8             	and    %r13d,%eax
   12576:	0f b6 c0             	movzbl %al,%eax
   12579:	89 de                	mov    %ebx,%esi
   1257b:	89 c7                	mov    %eax,%edi
   1257d:	e8 11 76 ff ff       	callq  9b93 <safe_mul_func_uint8_t_u_u>
   12582:	48 8b 95 c8 e6 ff ff 	mov    -0x1938(%rbp),%rdx
   12589:	8b 0a                	mov    (%rdx),%ecx
   1258b:	0f b6 d0             	movzbl %al,%edx
   1258e:	48 8b 85 c8 e6 ff ff 	mov    -0x1938(%rbp),%rax
   12595:	21 ca                	and    %ecx,%edx
   12597:	89 10                	mov    %edx,(%rax)
   12599:	0f b7 05 1c 7e 00 00 	movzwl 0x7e1c(%rip),%eax        # 1a3bc <g_256>
   125a0:	83 c0 01             	add    $0x1,%eax
   125a3:	66 89 05 12 7e 00 00 	mov    %ax,0x7e12(%rip)        # 1a3bc <g_256>
   125aa:	0f b7 05 0b 7e 00 00 	movzwl 0x7e0b(%rip),%eax        # 1a3bc <g_256>
   125b1:	66 83 f8 02          	cmp    $0x2,%ax
   125b5:	0f 86 e3 fe ff ff    	jbe    1249e <func_76+0x3d1f>
   125bb:	0f b7 85 8c e5 ff ff 	movzwl -0x1a74(%rbp),%eax
   125c2:	0f b6 d8             	movzbl %al,%ebx
   125c5:	48 8b 85 d0 e7 ff ff 	mov    -0x1830(%rbp),%rax
   125cc:	8b 00                	mov    (%rax),%eax
   125ce:	4c 63 e0             	movslq %eax,%r12
   125d1:	48 8b 05 a2 7e 00 00 	mov    0x7ea2(%rip),%rax        # 1a47a <g_380+0xa>
   125d8:	48 85 c0             	test   %rax,%rax
   125db:	0f 84 98 00 00 00    	je     12679 <func_76+0x3efa>
   125e1:	83 bd 88 e5 ff ff 3e 	cmpl   $0x3e,-0x1a78(%rbp)
   125e8:	0f 96 c0             	setbe  %al
   125eb:	44 0f b6 e8          	movzbl %al,%r13d
   125ef:	0f b7 85 8c e5 ff ff 	movzwl -0x1a74(%rbp),%eax
   125f6:	0f bf d0             	movswl %ax,%edx
   125f9:	8b 85 88 e5 ff ff    	mov    -0x1a78(%rbp),%eax
   125ff:	98                   	cwtl   
   12600:	89 d6                	mov    %edx,%esi
   12602:	89 c7                	mov    %eax,%edi
   12604:	e8 ca 6d ff ff       	callq  93d3 <safe_sub_func_int16_t_s_s>
   12609:	66 85 c0             	test   %ax,%ax
   1260c:	74 14                	je     12622 <func_76+0x3ea3>
   1260e:	48 8b 85 d0 e7 ff ff 	mov    -0x1830(%rbp),%rax
   12615:	8b 00                	mov    (%rax),%eax
   12617:	85 c0                	test   %eax,%eax
   12619:	74 07                	je     12622 <func_76+0x3ea3>
   1261b:	b8 01 00 00 00       	mov    $0x1,%eax
   12620:	eb 05                	jmp    12627 <func_76+0x3ea8>
   12622:	b8 00 00 00 00       	mov    $0x0,%eax
   12627:	0f be c0             	movsbl %al,%eax
   1262a:	89 c6                	mov    %eax,%esi
   1262c:	bf 05 00 00 00       	mov    $0x5,%edi
   12631:	e8 34 6c ff ff       	callq  926a <safe_div_func_int8_t_s_s>
   12636:	66 98                	cbtw   
   12638:	8b 95 88 e5 ff ff    	mov    -0x1a78(%rbp),%edx
   1263e:	21 d0                	and    %edx,%eax
   12640:	98                   	cwtl   
   12641:	be 09 00 00 00       	mov    $0x9,%esi
   12646:	89 c7                	mov    %eax,%edi
   12648:	e8 66 6d ff ff       	callq  93b3 <safe_add_func_int16_t_s_s>
   1264d:	0f b7 15 68 7d 00 00 	movzwl 0x7d68(%rip),%edx        # 1a3bc <g_256>
   12654:	21 d0                	and    %edx,%eax
   12656:	66 89 05 5f 7d 00 00 	mov    %ax,0x7d5f(%rip)        # 1a3bc <g_256>
   1265d:	0f b7 05 58 7d 00 00 	movzwl 0x7d58(%rip),%eax        # 1a3bc <g_256>
   12664:	0f b7 c0             	movzwl %ax,%eax
   12667:	89 c6                	mov    %eax,%esi
   12669:	bf 00 00 00 00       	mov    $0x0,%edi
   1266e:	e8 ca 76 ff ff       	callq  9d3d <safe_mul_func_uint16_t_u_u>
   12673:	0f b7 c0             	movzwl %ax,%eax
   12676:	41 39 c5             	cmp    %eax,%r13d
   12679:	48 83 bd d8 e7 ff ff 	cmpq   $0x0,-0x1828(%rbp)
   12680:	00 
   12681:	0f 95 c0             	setne  %al
   12684:	0f b6 c8             	movzbl %al,%ecx
   12687:	48 8b 85 c8 e6 ff ff 	mov    -0x1938(%rbp),%rax
   1268e:	8b 10                	mov    (%rax),%edx
   12690:	48 8b 85 c8 e6 ff ff 	mov    -0x1938(%rbp),%rax
   12697:	21 ca                	and    %ecx,%edx
   12699:	89 10                	mov    %edx,(%rax)
   1269b:	48 be d0 fb 0e 0b 2e 	movabs $0xa863ea2e0b0efbd0,%rsi
   126a2:	ea 63 a8 
   126a5:	48 c7 c7 f7 ff ff ff 	mov    $0xfffffffffffffff7,%rdi
   126ac:	e8 fe 79 ff ff       	callq  a0af <safe_div_func_uint64_t_u_u>
   126b1:	4c 89 e6             	mov    %r12,%rsi
   126b4:	bf 01 00 00 00       	mov    $0x1,%edi
   126b9:	e8 f6 72 ff ff       	callq  99b4 <safe_mod_func_int64_t_s_s>
   126be:	0f bf d0             	movswl %ax,%edx
   126c1:	0f b7 85 8c e5 ff ff 	movzwl -0x1a74(%rbp),%eax
   126c8:	98                   	cwtl   
   126c9:	89 d6                	mov    %edx,%esi
   126cb:	89 c7                	mov    %eax,%edi
   126cd:	e8 44 6d ff ff       	callq  9416 <safe_mod_func_int16_t_s_s>
   126d2:	0f b6 c0             	movzbl %al,%eax
   126d5:	89 de                	mov    %ebx,%esi
   126d7:	89 c7                	mov    %eax,%edi
   126d9:	e8 b5 74 ff ff       	callq  9b93 <safe_mul_func_uint8_t_u_u>
   126de:	84 c0                	test   %al,%al
   126e0:	48 8b 85 d0 e7 ff ff 	mov    -0x1830(%rbp),%rax
   126e7:	8b 10                	mov    (%rax),%edx
   126e9:	0f b7 85 8c e5 ff ff 	movzwl -0x1a74(%rbp),%eax
   126f0:	98                   	cwtl   
   126f1:	39 c2                	cmp    %eax,%edx
   126f3:	0f 9e c0             	setle  %al
   126f6:	0f b6 d0             	movzbl %al,%edx
   126f9:	8b 85 a0 eb ff ff    	mov    -0x1460(%rbp),%eax
   126ff:	09 d0                	or     %edx,%eax
   12701:	89 85 a0 eb ff ff    	mov    %eax,-0x1460(%rbp)
   12707:	83 bd bc e5 ff ff 00 	cmpl   $0x0,-0x1a44(%rbp)
   1270e:	75 53                	jne    12763 <func_76+0x3fe4>
   12710:	c7 85 bc e5 ff ff 00 	movl   $0x0,-0x1a44(%rbp)
   12717:	00 00 00 
   1271a:	83 bd bc e5 ff ff 02 	cmpl   $0x2,-0x1a44(%rbp)
   12721:	7f 1c                	jg     1273f <func_76+0x3fc0>
   12723:	c7 85 2c e6 ff ff be 	movl   $0xc50707be,-0x19d4(%rbp)
   1272a:	07 07 c5 
   1272d:	83 ad 2c e6 ff ff 01 	subl   $0x1,-0x19d4(%rbp)
   12734:	8b 85 88 e5 ff ff    	mov    -0x1a78(%rbp),%eax
   1273a:	e9 d3 0f 00 00       	jmpq   13712 <func_76+0x4f93>
   1273f:	0f b7 05 1e 7d 00 00 	movzwl 0x7d1e(%rip),%eax        # 1a464 <g_337>
   12746:	83 c0 01             	add    $0x1,%eax
   12749:	66 89 05 14 7d 00 00 	mov    %ax,0x7d14(%rip)        # 1a464 <g_337>
   12750:	0f b7 05 0d 7d 00 00 	movzwl 0x7d0d(%rip),%eax        # 1a464 <g_337>
   12757:	66 83 f8 02          	cmp    $0x2,%ax
   1275b:	0f 86 a7 fc ff ff    	jbe    12408 <func_76+0x3c89>
   12761:	eb 01                	jmp    12764 <func_76+0x3fe5>
   12763:	90                   	nop
   12764:	c7 05 ae 79 00 00 00 	movl   $0x0,0x79ae(%rip)        # 1a11c <g_25>
   1276b:	00 00 00 
   1276e:	e9 17 05 00 00       	jmpq   12c8a <func_76+0x450b>
   12773:	48 8d 05 26 7d 00 00 	lea    0x7d26(%rip),%rax        # 1a4a0 <g_650>
   1277a:	48 89 85 40 e7 ff ff 	mov    %rax,-0x18c0(%rbp)
   12781:	48 8d 85 40 e7 ff ff 	lea    -0x18c0(%rbp),%rax
   12788:	48 89 85 e0 e7 ff ff 	mov    %rax,-0x1820(%rbp)
   1278f:	48 8d 85 40 ea ff ff 	lea    -0x15c0(%rbp),%rax
   12796:	48 83 c0 10          	add    $0x10,%rax
   1279a:	48 89 85 e8 e7 ff ff 	mov    %rax,-0x1818(%rbp)
   127a1:	48 8d 05 bc 7c 00 00 	lea    0x7cbc(%rip),%rax        # 1a464 <g_337>
   127a8:	48 89 85 f0 e7 ff ff 	mov    %rax,-0x1810(%rbp)
   127af:	c7 85 cc e5 ff ff a7 	movl   $0x179faea7,-0x1a34(%rbp)
   127b6:	ae 9f 17 
   127b9:	c7 85 30 e6 ff ff d7 	movl   $0xa874c5d7,-0x19d0(%rbp)
   127c0:	c5 74 a8 
   127c3:	c7 85 34 e6 ff ff 07 	movl   $0x7,-0x19cc(%rbp)
   127ca:	00 00 00 
   127cd:	c7 85 38 e6 ff ff 00 	movl   $0x0,-0x19c8(%rbp)
   127d4:	00 00 00 
   127d7:	c7 85 3c e6 ff ff c2 	movl   $0x7c5195c2,-0x19c4(%rbp)
   127de:	95 51 7c 
   127e1:	48 8d 85 d0 ec ff ff 	lea    -0x1330(%rbp),%rax
   127e8:	48 8d 15 b1 a9 00 00 	lea    0xa9b1(%rip),%rdx        # 1d1a0 <g_3696+0x223a>
   127ef:	b9 46 00 00 00       	mov    $0x46,%ecx
   127f4:	48 89 c7             	mov    %rax,%rdi
   127f7:	48 89 d6             	mov    %rdx,%rsi
   127fa:	f3 48 a5             	rep movsq %ds:(%rsi),%es:(%rdi)
   127fd:	48 8d 85 30 e7 ff ff 	lea    -0x18d0(%rbp),%rax
   12804:	48 89 85 c0 eb ff ff 	mov    %rax,-0x1440(%rbp)
   1280b:	48 8d 85 38 e7 ff ff 	lea    -0x18c8(%rbp),%rax
   12812:	48 89 85 c8 eb ff ff 	mov    %rax,-0x1438(%rbp)
   12819:	48 8d 85 30 e7 ff ff 	lea    -0x18d0(%rbp),%rax
   12820:	48 89 85 d0 eb ff ff 	mov    %rax,-0x1430(%rbp)
   12827:	48 8d 85 38 e7 ff ff 	lea    -0x18c8(%rbp),%rax
   1282e:	48 89 85 d8 eb ff ff 	mov    %rax,-0x1428(%rbp)
   12835:	48 8d 85 30 e7 ff ff 	lea    -0x18d0(%rbp),%rax
   1283c:	48 89 85 e0 eb ff ff 	mov    %rax,-0x1420(%rbp)
   12843:	48 8d 85 38 e7 ff ff 	lea    -0x18c8(%rbp),%rax
   1284a:	48 89 85 e8 eb ff ff 	mov    %rax,-0x1418(%rbp)
   12851:	48 8d 85 30 e7 ff ff 	lea    -0x18d0(%rbp),%rax
   12858:	48 89 85 f0 eb ff ff 	mov    %rax,-0x1410(%rbp)
   1285f:	48 8d 85 38 e7 ff ff 	lea    -0x18c8(%rbp),%rax
   12866:	48 89 85 f8 eb ff ff 	mov    %rax,-0x1408(%rbp)
   1286d:	48 8d 85 30 e7 ff ff 	lea    -0x18d0(%rbp),%rax
   12874:	48 89 85 00 ec ff ff 	mov    %rax,-0x1400(%rbp)
   1287b:	48 8d 85 38 e7 ff ff 	lea    -0x18c8(%rbp),%rax
   12882:	48 89 85 08 ec ff ff 	mov    %rax,-0x13f8(%rbp)
   12889:	48 8d 85 30 e7 ff ff 	lea    -0x18d0(%rbp),%rax
   12890:	48 89 85 10 ec ff ff 	mov    %rax,-0x13f0(%rbp)
   12897:	48 8d 85 38 e7 ff ff 	lea    -0x18c8(%rbp),%rax
   1289e:	48 89 85 18 ec ff ff 	mov    %rax,-0x13e8(%rbp)
   128a5:	48 8d 85 30 e7 ff ff 	lea    -0x18d0(%rbp),%rax
   128ac:	48 89 85 20 ec ff ff 	mov    %rax,-0x13e0(%rbp)
   128b3:	48 8d 85 38 e7 ff ff 	lea    -0x18c8(%rbp),%rax
   128ba:	48 89 85 28 ec ff ff 	mov    %rax,-0x13d8(%rbp)
   128c1:	48 8d 85 30 e7 ff ff 	lea    -0x18d0(%rbp),%rax
   128c8:	48 89 85 30 ec ff ff 	mov    %rax,-0x13d0(%rbp)
   128cf:	48 8d 85 38 e7 ff ff 	lea    -0x18c8(%rbp),%rax
   128d6:	48 89 85 38 ec ff ff 	mov    %rax,-0x13c8(%rbp)
   128dd:	c7 85 d0 e5 ff ff 00 	movl   $0x0,-0x1a30(%rbp)
   128e4:	00 00 00 
   128e7:	eb 1a                	jmp    12903 <func_76+0x4184>
   128e9:	8b 85 d0 e5 ff ff    	mov    -0x1a30(%rbp),%eax
   128ef:	48 98                	cltq   
   128f1:	c7 84 85 c4 e9 ff ff 	movl   $0x2104276,-0x163c(%rbp,%rax,4)
   128f8:	76 42 10 02 
   128fc:	83 85 d0 e5 ff ff 01 	addl   $0x1,-0x1a30(%rbp)
   12903:	83 bd d0 e5 ff ff 02 	cmpl   $0x2,-0x1a30(%rbp)
   1290a:	7e dd                	jle    128e9 <func_76+0x416a>
   1290c:	c7 85 d0 e5 ff ff 00 	movl   $0x0,-0x1a30(%rbp)
   12913:	00 00 00 
   12916:	eb 25                	jmp    1293d <func_76+0x41be>
   12918:	8b 85 d0 e5 ff ff    	mov    -0x1a30(%rbp),%eax
   1291e:	48 98                	cltq   
   12920:	48 8d 95 d0 ec ff ff 	lea    -0x1330(%rbp),%rdx
   12927:	48 81 c2 a8 00 00 00 	add    $0xa8,%rdx
   1292e:	48 89 94 c5 e0 e9 ff 	mov    %rdx,-0x1620(%rbp,%rax,8)
   12935:	ff 
   12936:	83 85 d0 e5 ff ff 01 	addl   $0x1,-0x1a30(%rbp)
   1293d:	83 bd d0 e5 ff ff 01 	cmpl   $0x1,-0x1a30(%rbp)
   12944:	7e d2                	jle    12918 <func_76+0x4199>
   12946:	48 8b 95 50 ea ff ff 	mov    -0x15b0(%rbp),%rdx
   1294d:	48 8b 85 e8 e7 ff ff 	mov    -0x1818(%rbp),%rax
   12954:	48 89 10             	mov    %rdx,(%rax)
   12957:	48 8b 85 e8 e7 ff ff 	mov    -0x1818(%rbp),%rax
   1295e:	48 8b 00             	mov    (%rax),%rax
   12961:	48 39 85 e0 e7 ff ff 	cmp    %rax,-0x1820(%rbp)
   12968:	0f b6 9d a1 e5 ff ff 	movzbl -0x1a5f(%rbp),%ebx
   1296f:	48 8b 85 a8 fe ff ff 	mov    -0x158(%rbp),%rax
   12976:	48 89 85 78 e7 ff ff 	mov    %rax,-0x1888(%rbp)
   1297d:	48 8b 05 ac ac 00 00 	mov    0xacac(%rip),%rax        # 1d630 <g_659>
   12984:	48 39 85 78 e7 ff ff 	cmp    %rax,-0x1888(%rbp)
   1298b:	0f 94 c0             	sete   %al
   1298e:	0f b6 d0             	movzbl %al,%edx
   12991:	48 8b 85 f0 e7 ff ff 	mov    -0x1810(%rbp),%rax
   12998:	66 89 10             	mov    %dx,(%rax)
   1299b:	48 8b 85 f0 e7 ff ff 	mov    -0x1810(%rbp),%rax
   129a2:	0f b7 00             	movzwl (%rax),%eax
   129a5:	44 0f b7 e0          	movzwl %ax,%r12d
   129a9:	0f b7 85 8c e5 ff ff 	movzwl -0x1a74(%rbp),%eax
   129b0:	98                   	cwtl   
   129b1:	89 c6                	mov    %eax,%esi
   129b3:	bf 83 90 00 00       	mov    $0x9083,%edi
   129b8:	e8 01 74 ff ff       	callq  9dbe <safe_lshift_func_uint16_t_u_s>
   129bd:	66 3d c3 00          	cmp    $0xc3,%ax
   129c1:	0f 97 c0             	seta   %al
   129c4:	0f b6 c0             	movzbl %al,%eax
   129c7:	be 01 00 00 00       	mov    $0x1,%esi
   129cc:	48 89 c7             	mov    %rax,%rdi
   129cf:	e8 5a 76 ff ff       	callq  a02e <safe_add_func_uint64_t_u_u>
   129d4:	48 8b 95 c8 e6 ff ff 	mov    -0x1938(%rbp),%rdx
   129db:	8b 12                	mov    (%rdx),%edx
   129dd:	21 c2                	and    %eax,%edx
   129df:	48 8b 85 c8 e6 ff ff 	mov    -0x1938(%rbp),%rax
   129e6:	89 10                	mov    %edx,(%rax)
   129e8:	8b 00                	mov    (%rax),%eax
   129ea:	3d 9a f9 24 00       	cmp    $0x24f99a,%eax
   129ef:	0f 94 c0             	sete   %al
   129f2:	0f b6 c0             	movzbl %al,%eax
   129f5:	be a0 ff ff ff       	mov    $0xffffffa0,%esi
   129fa:	89 c7                	mov    %eax,%edi
   129fc:	e8 11 68 ff ff       	callq  9212 <safe_mul_func_int8_t_s_s>
   12a01:	0f be c0             	movsbl %al,%eax
   12a04:	41 39 c4             	cmp    %eax,%r12d
   12a07:	0f 9e c0             	setle  %al
   12a0a:	0f b6 c0             	movzbl %al,%eax
   12a0d:	89 85 bc e5 ff ff    	mov    %eax,-0x1a44(%rbp)
   12a13:	8b 85 bc e5 ff ff    	mov    -0x1a44(%rbp),%eax
   12a19:	0f b7 c0             	movzwl %ax,%eax
   12a1c:	89 de                	mov    %ebx,%esi
   12a1e:	89 c7                	mov    %eax,%edi
   12a20:	e8 18 73 ff ff       	callq  9d3d <safe_mul_func_uint16_t_u_u>
   12a25:	48 8b 85 d0 e7 ff ff 	mov    -0x1830(%rbp),%rax
   12a2c:	8b 00                	mov    (%rax),%eax
   12a2e:	85 c0                	test   %eax,%eax
   12a30:	0f 94 c2             	sete   %dl
   12a33:	48 8b 85 a0 e7 ff ff 	mov    -0x1860(%rbp),%rax
   12a3a:	48 8b 00             	mov    (%rax),%rax
   12a3d:	48 8b 00             	mov    (%rax),%rax
   12a40:	88 10                	mov    %dl,(%rax)
   12a42:	0f b7 15 45 78 00 00 	movzwl 0x7845(%rip),%edx        # 1a28e <g_117+0xae>
   12a49:	0f b7 85 8c e5 ff ff 	movzwl -0x1a74(%rbp),%eax
   12a50:	66 39 c2             	cmp    %ax,%dx
   12a53:	7c 20                	jl     12a75 <func_76+0x42f6>
   12a55:	c7 85 40 e6 ff ff 00 	movl   $0x0,-0x19c0(%rbp)
   12a5c:	00 00 00 
   12a5f:	83 85 40 e6 ff ff 01 	addl   $0x1,-0x19c0(%rbp)
   12a66:	c7 85 cc e5 ff ff e5 	movl   $0xffffffe5,-0x1a34(%rbp)
   12a6d:	ff ff ff 
   12a70:	e9 dd 00 00 00       	jmpq   12b52 <func_76+0x43d3>
   12a75:	48 8b 85 48 e7 ff ff 	mov    -0x18b8(%rbp),%rax
   12a7c:	8b 10                	mov    (%rax),%edx
   12a7e:	0f b6 85 38 e7 ff ff 	movzbl -0x18c8(%rbp),%eax
   12a85:	0f be c0             	movsbl %al,%eax
   12a88:	09 c2                	or     %eax,%edx
   12a8a:	48 8b 85 48 e7 ff ff 	mov    -0x18b8(%rbp),%rax
   12a91:	89 10                	mov    %edx,(%rax)
   12a93:	8b 85 88 e5 ff ff    	mov    -0x1a78(%rbp),%eax
   12a99:	e9 74 0c 00 00       	jmpq   13712 <func_76+0x4f93>
   12a9e:	66 c7 85 ac e5 ff ff 	movw   $0x8cbc,-0x1a54(%rbp)
   12aa5:	bc 8c 
   12aa7:	c7 85 44 e6 ff ff de 	movl   $0x8525cdde,-0x19bc(%rbp)
   12aae:	cd 25 85 
   12ab1:	c7 85 48 e6 ff ff f6 	movl   $0xfffffff6,-0x19b8(%rbp)
   12ab8:	ff ff ff 
   12abb:	c7 85 4c e6 ff ff ff 	movl   $0xffffffff,-0x19b4(%rbp)
   12ac2:	ff ff ff 
   12ac5:	c7 85 50 e6 ff ff ff 	movl   $0xffffffff,-0x19b0(%rbp)
   12acc:	ff ff ff 
   12acf:	c7 85 54 e6 ff ff 71 	movl   $0x93ce9371,-0x19ac(%rbp)
   12ad6:	93 ce 93 
   12ad9:	c7 85 58 e6 ff ff 03 	movl   $0x3,-0x19a8(%rbp)
   12ae0:	00 00 00 
   12ae3:	c7 85 5c e6 ff ff 01 	movl   $0x1,-0x19a4(%rbp)
   12aea:	00 00 00 
   12aed:	c7 85 60 e6 ff ff ff 	movl   $0xffffffff,-0x19a0(%rbp)
   12af4:	ff ff ff 
   12af7:	c7 85 64 e6 ff ff 1d 	movl   $0x8d71e01d,-0x199c(%rbp)
   12afe:	e0 71 8d 
   12b01:	c7 85 68 e6 ff ff 66 	movl   $0x54a43266,-0x1998(%rbp)
   12b08:	32 a4 54 
   12b0b:	c7 85 d4 e5 ff ff 00 	movl   $0x0,-0x1a2c(%rbp)
   12b12:	00 00 00 
   12b15:	eb 1a                	jmp    12b31 <func_76+0x43b2>
   12b17:	8b 85 d4 e5 ff ff    	mov    -0x1a2c(%rbp),%eax
   12b1d:	48 98                	cltq   
   12b1f:	c7 84 85 f0 e9 ff ff 	movl   $0xffffffff,-0x1610(%rbp,%rax,4)
   12b26:	ff ff ff ff 
   12b2a:	83 85 d4 e5 ff ff 01 	addl   $0x1,-0x1a2c(%rbp)
   12b31:	83 bd d4 e5 ff ff 03 	cmpl   $0x3,-0x1a2c(%rbp)
   12b38:	7e dd                	jle    12b17 <func_76+0x4398>
   12b3a:	0f b7 85 a8 e5 ff ff 	movzwl -0x1a58(%rbp),%eax
   12b41:	83 c0 01             	add    $0x1,%eax
   12b44:	66 89 85 a8 e5 ff ff 	mov    %ax,-0x1a58(%rbp)
   12b4b:	83 85 cc e5 ff ff 01 	addl   $0x1,-0x1a34(%rbp)
   12b52:	83 bd cc e5 ff ff 0a 	cmpl   $0xa,-0x1a34(%rbp)
   12b59:	0f 85 3f ff ff ff    	jne    12a9e <func_76+0x431f>
   12b5f:	48 8b 85 d0 e7 ff ff 	mov    -0x1830(%rbp),%rax
   12b66:	44 8b 20             	mov    (%rax),%r12d
   12b69:	48 8b 85 b0 e7 ff ff 	mov    -0x1850(%rbp),%rax
   12b70:	0f be d8             	movsbl %al,%ebx
   12b73:	0f b7 85 8c e5 ff ff 	movzwl -0x1a74(%rbp),%eax
   12b7a:	98                   	cwtl   
   12b7b:	48 8b 15 3e ac 00 00 	mov    0xac3e(%rip),%rdx        # 1d7c0 <g_717>
   12b82:	48 89 15 37 ac 00 00 	mov    %rdx,0xac37(%rip)        # 1d7c0 <g_717>
   12b89:	48 8b 0d 30 ac 00 00 	mov    0xac30(%rip),%rcx        # 1d7c0 <g_717>
   12b90:	48 8b 95 a0 e7 ff ff 	mov    -0x1860(%rbp),%rdx
   12b97:	48 8b 12             	mov    (%rdx),%rdx
   12b9a:	48 39 d1             	cmp    %rdx,%rcx
   12b9d:	0f 95 c2             	setne  %dl
   12ba0:	0f b6 d2             	movzbl %dl,%edx
   12ba3:	81 bd 30 e6 ff ff a1 	cmpl   $0x61a1,-0x19d0(%rbp)
   12baa:	61 00 00 
   12bad:	7f 07                	jg     12bb6 <func_76+0x4437>
   12baf:	b9 fe ff ff ff       	mov    $0xfffffffe,%ecx
   12bb4:	eb 05                	jmp    12bbb <func_76+0x443c>
   12bb6:	b9 ff ff ff ff       	mov    $0xffffffff,%ecx
   12bbb:	21 ca                	and    %ecx,%edx
   12bbd:	89 c6                	mov    %eax,%esi
   12bbf:	89 d7                	mov    %edx,%edi
   12bc1:	e8 39 6b ff ff       	callq  96ff <safe_div_func_int32_t_s_s>
   12bc6:	48 8d 05 d3 a8 00 00 	lea    0xa8d3(%rip),%rax        # 1d4a0 <g_374+0x20>
   12bcd:	48 89 85 80 e7 ff ff 	mov    %rax,-0x1880(%rbp)
   12bd4:	48 8d 05 b5 a8 00 00 	lea    0xa8b5(%rip),%rax        # 1d490 <g_374+0x10>
   12bdb:	48 39 85 80 e7 ff ff 	cmp    %rax,-0x1880(%rbp)
   12be2:	0f 94 c0             	sete   %al
   12be5:	0f b6 d0             	movzbl %al,%edx
   12be8:	0f b7 85 8c e5 ff ff 	movzwl -0x1a74(%rbp),%eax
   12bef:	98                   	cwtl   
   12bf0:	09 d0                	or     %edx,%eax
   12bf2:	85 c0                	test   %eax,%eax
   12bf4:	75 09                	jne    12bff <func_76+0x4480>
   12bf6:	83 bd 88 e5 ff ff 00 	cmpl   $0x0,-0x1a78(%rbp)
   12bfd:	74 07                	je     12c06 <func_76+0x4487>
   12bff:	b8 01 00 00 00       	mov    $0x1,%eax
   12c04:	eb 05                	jmp    12c0b <func_76+0x448c>
   12c06:	b8 00 00 00 00       	mov    $0x0,%eax
   12c0b:	0f b6 c0             	movzbl %al,%eax
   12c0e:	be 76 00 00 00       	mov    $0x76,%esi
   12c13:	89 c7                	mov    %eax,%edi
   12c15:	e8 c1 6f ff ff       	callq  9bdb <safe_div_func_uint8_t_u_u>
   12c1a:	0f b7 85 8c e5 ff ff 	movzwl -0x1a74(%rbp),%eax
   12c21:	f7 d0                	not    %eax
   12c23:	66 c1 e8 0f          	shr    $0xf,%ax
   12c27:	0f b6 c0             	movzbl %al,%eax
   12c2a:	31 85 3c e6 ff ff    	xor    %eax,-0x19c4(%rbp)
   12c30:	8b 85 3c e6 ff ff    	mov    -0x19c4(%rbp),%eax
   12c36:	0f be c0             	movsbl %al,%eax
   12c39:	89 de                	mov    %ebx,%esi
   12c3b:	89 c7                	mov    %eax,%edi
   12c3d:	e8 92 65 ff ff       	callq  91d4 <safe_add_func_int8_t_s_s>
   12c42:	66 0f be d0          	movsbw %al,%dx
   12c46:	0f b7 85 8c e5 ff ff 	movzwl -0x1a74(%rbp),%eax
   12c4d:	66 39 c2             	cmp    %ax,%dx
   12c50:	0f 9e c0             	setle  %al
   12c53:	0f b6 d0             	movzbl %al,%edx
   12c56:	48 8b 85 c8 e6 ff ff 	mov    -0x1938(%rbp),%rax
   12c5d:	8b 00                	mov    (%rax),%eax
   12c5f:	31 d0                	xor    %edx,%eax
   12c61:	44 31 e0             	xor    %r12d,%eax
   12c64:	89 c6                	mov    %eax,%esi
   12c66:	bf ae 40 f6 a0       	mov    $0xa0f640ae,%edi
   12c6b:	e8 60 72 ff ff       	callq  9ed0 <safe_sub_func_uint32_t_u_u>
   12c70:	89 c2                	mov    %eax,%edx
   12c72:	48 8b 85 c8 e6 ff ff 	mov    -0x1938(%rbp),%rax
   12c79:	89 10                	mov    %edx,(%rax)
   12c7b:	8b 05 9b 74 00 00    	mov    0x749b(%rip),%eax        # 1a11c <g_25>
   12c81:	83 c0 01             	add    $0x1,%eax
   12c84:	89 05 92 74 00 00    	mov    %eax,0x7492(%rip)        # 1a11c <g_25>
   12c8a:	8b 05 8c 74 00 00    	mov    0x748c(%rip),%eax        # 1a11c <g_25>
   12c90:	83 f8 11             	cmp    $0x11,%eax
   12c93:	0f 84 da fa ff ff    	je     12773 <func_76+0x3ff4>
   12c99:	e9 58 0a 00 00       	jmpq   136f6 <func_76+0x4f77>
   12c9e:	c6 85 a4 e5 ff ff 77 	movb   $0x77,-0x1a5c(%rbp)
   12ca5:	48 c7 85 b8 e7 ff ff 	movq   $0x0,-0x1848(%rbp)
   12cac:	00 00 00 00 
   12cb0:	48 8d 05 33 78 00 00 	lea    0x7833(%rip),%rax        # 1a4ea <g_654+0xa>
   12cb7:	48 89 85 c0 e7 ff ff 	mov    %rax,-0x1840(%rbp)
   12cbe:	48 c7 85 d0 ec ff ff 	movq   $0x0,-0x1330(%rbp)
   12cc5:	00 00 00 00 
   12cc9:	48 8d 85 80 f4 ff ff 	lea    -0xb80(%rbp),%rax
   12cd0:	48 05 88 01 00 00    	add    $0x188,%rax
   12cd6:	48 89 85 d8 ec ff ff 	mov    %rax,-0x1328(%rbp)
   12cdd:	48 8d 85 80 f4 ff ff 	lea    -0xb80(%rbp),%rax
   12ce4:	48 05 88 01 00 00    	add    $0x188,%rax
   12cea:	48 89 85 e0 ec ff ff 	mov    %rax,-0x1320(%rbp)
   12cf1:	48 c7 85 e8 ec ff ff 	movq   $0x0,-0x1318(%rbp)
   12cf8:	00 00 00 00 
   12cfc:	48 8d 85 80 f4 ff ff 	lea    -0xb80(%rbp),%rax
   12d03:	48 05 58 01 00 00    	add    $0x158,%rax
   12d09:	48 89 85 f0 ec ff ff 	mov    %rax,-0x1310(%rbp)
   12d10:	48 c7 85 f8 ec ff ff 	movq   $0x0,-0x1308(%rbp)
   12d17:	00 00 00 00 
   12d1b:	48 c7 85 00 ed ff ff 	movq   $0x0,-0x1300(%rbp)
   12d22:	00 00 00 00 
   12d26:	48 8d 85 80 f4 ff ff 	lea    -0xb80(%rbp),%rax
   12d2d:	48 05 58 01 00 00    	add    $0x158,%rax
   12d33:	48 89 85 08 ed ff ff 	mov    %rax,-0x12f8(%rbp)
   12d3a:	48 c7 85 10 ed ff ff 	movq   $0x0,-0x12f0(%rbp)
   12d41:	00 00 00 00 
   12d45:	48 8d 85 80 f4 ff ff 	lea    -0xb80(%rbp),%rax
   12d4c:	48 05 88 01 00 00    	add    $0x188,%rax
   12d52:	48 89 85 18 ed ff ff 	mov    %rax,-0x12e8(%rbp)
   12d59:	48 8d 85 80 f4 ff ff 	lea    -0xb80(%rbp),%rax
   12d60:	48 05 88 01 00 00    	add    $0x188,%rax
   12d66:	48 89 85 20 ed ff ff 	mov    %rax,-0x12e0(%rbp)
   12d6d:	48 c7 85 28 ed ff ff 	movq   $0x0,-0x12d8(%rbp)
   12d74:	00 00 00 00 
   12d78:	48 8d 85 80 f4 ff ff 	lea    -0xb80(%rbp),%rax
   12d7f:	48 83 c0 60          	add    $0x60,%rax
   12d83:	48 89 85 30 ed ff ff 	mov    %rax,-0x12d0(%rbp)
   12d8a:	48 8d 85 80 f4 ff ff 	lea    -0xb80(%rbp),%rax
   12d91:	48 83 c0 60          	add    $0x60,%rax
   12d95:	48 89 85 38 ed ff ff 	mov    %rax,-0x12c8(%rbp)
   12d9c:	48 8d 85 80 f4 ff ff 	lea    -0xb80(%rbp),%rax
   12da3:	48 05 88 01 00 00    	add    $0x188,%rax
   12da9:	48 89 85 40 ed ff ff 	mov    %rax,-0x12c0(%rbp)
   12db0:	48 8d 85 80 f4 ff ff 	lea    -0xb80(%rbp),%rax
   12db7:	48 05 58 01 00 00    	add    $0x158,%rax
   12dbd:	48 89 85 48 ed ff ff 	mov    %rax,-0x12b8(%rbp)
   12dc4:	48 8d 85 80 f4 ff ff 	lea    -0xb80(%rbp),%rax
   12dcb:	48 05 88 01 00 00    	add    $0x188,%rax
   12dd1:	48 89 85 50 ed ff ff 	mov    %rax,-0x12b0(%rbp)
   12dd8:	48 8d 85 80 f4 ff ff 	lea    -0xb80(%rbp),%rax
   12ddf:	48 83 c0 60          	add    $0x60,%rax
   12de3:	48 89 85 58 ed ff ff 	mov    %rax,-0x12a8(%rbp)
   12dea:	48 8d 85 80 f4 ff ff 	lea    -0xb80(%rbp),%rax
   12df1:	48 05 88 01 00 00    	add    $0x188,%rax
   12df7:	48 89 85 60 ed ff ff 	mov    %rax,-0x12a0(%rbp)
   12dfe:	48 8d 85 80 f4 ff ff 	lea    -0xb80(%rbp),%rax
   12e05:	48 05 58 01 00 00    	add    $0x158,%rax
   12e0b:	48 89 85 68 ed ff ff 	mov    %rax,-0x1298(%rbp)
   12e12:	48 8d 85 80 f4 ff ff 	lea    -0xb80(%rbp),%rax
   12e19:	48 05 58 01 00 00    	add    $0x158,%rax
   12e1f:	48 89 85 70 ed ff ff 	mov    %rax,-0x1290(%rbp)
   12e26:	48 8d 85 80 f4 ff ff 	lea    -0xb80(%rbp),%rax
   12e2d:	48 05 58 01 00 00    	add    $0x158,%rax
   12e33:	48 89 85 78 ed ff ff 	mov    %rax,-0x1288(%rbp)
   12e3a:	48 8d 85 80 f4 ff ff 	lea    -0xb80(%rbp),%rax
   12e41:	48 05 58 01 00 00    	add    $0x158,%rax
   12e47:	48 89 85 80 ed ff ff 	mov    %rax,-0x1280(%rbp)
   12e4e:	48 8d 85 80 f4 ff ff 	lea    -0xb80(%rbp),%rax
   12e55:	48 05 88 01 00 00    	add    $0x188,%rax
   12e5b:	48 89 85 88 ed ff ff 	mov    %rax,-0x1278(%rbp)
   12e62:	48 8d 85 80 f4 ff ff 	lea    -0xb80(%rbp),%rax
   12e69:	48 83 c0 60          	add    $0x60,%rax
   12e6d:	48 89 85 90 ed ff ff 	mov    %rax,-0x1270(%rbp)
   12e74:	48 8d 85 80 f4 ff ff 	lea    -0xb80(%rbp),%rax
   12e7b:	48 05 88 01 00 00    	add    $0x188,%rax
   12e81:	48 89 85 98 ed ff ff 	mov    %rax,-0x1268(%rbp)
   12e88:	48 8d 85 80 f4 ff ff 	lea    -0xb80(%rbp),%rax
   12e8f:	48 05 58 01 00 00    	add    $0x158,%rax
   12e95:	48 89 85 a0 ed ff ff 	mov    %rax,-0x1260(%rbp)
   12e9c:	48 8d 85 80 f4 ff ff 	lea    -0xb80(%rbp),%rax
   12ea3:	48 05 88 01 00 00    	add    $0x188,%rax
   12ea9:	48 89 85 a8 ed ff ff 	mov    %rax,-0x1258(%rbp)
   12eb0:	48 8d 85 80 f4 ff ff 	lea    -0xb80(%rbp),%rax
   12eb7:	48 83 c0 60          	add    $0x60,%rax
   12ebb:	48 89 85 b0 ed ff ff 	mov    %rax,-0x1250(%rbp)
   12ec2:	48 8d 85 80 f4 ff ff 	lea    -0xb80(%rbp),%rax
   12ec9:	48 83 c0 60          	add    $0x60,%rax
   12ecd:	48 89 85 b8 ed ff ff 	mov    %rax,-0x1248(%rbp)
   12ed4:	48 c7 85 c0 ed ff ff 	movq   $0x0,-0x1240(%rbp)
   12edb:	00 00 00 00 
   12edf:	48 8d 85 80 f4 ff ff 	lea    -0xb80(%rbp),%rax
   12ee6:	48 05 88 01 00 00    	add    $0x188,%rax
   12eec:	48 89 85 c8 ed ff ff 	mov    %rax,-0x1238(%rbp)
   12ef3:	48 8d 85 80 f4 ff ff 	lea    -0xb80(%rbp),%rax
   12efa:	48 05 88 01 00 00    	add    $0x188,%rax
   12f00:	48 89 85 d0 ed ff ff 	mov    %rax,-0x1230(%rbp)
   12f07:	48 c7 85 d8 ed ff ff 	movq   $0x0,-0x1228(%rbp)
   12f0e:	00 00 00 00 
   12f12:	48 8d 85 80 f4 ff ff 	lea    -0xb80(%rbp),%rax
   12f19:	48 05 58 01 00 00    	add    $0x158,%rax
   12f1f:	48 89 85 e0 ed ff ff 	mov    %rax,-0x1220(%rbp)
   12f26:	48 c7 85 e8 ed ff ff 	movq   $0x0,-0x1218(%rbp)
   12f2d:	00 00 00 00 
   12f31:	48 c7 85 f0 ed ff ff 	movq   $0x0,-0x1210(%rbp)
   12f38:	00 00 00 00 
   12f3c:	48 8d 85 80 f4 ff ff 	lea    -0xb80(%rbp),%rax
   12f43:	48 05 58 01 00 00    	add    $0x158,%rax
   12f49:	48 89 85 f8 ed ff ff 	mov    %rax,-0x1208(%rbp)
   12f50:	48 c7 85 00 ee ff ff 	movq   $0x0,-0x1200(%rbp)
   12f57:	00 00 00 00 
   12f5b:	48 8d 85 80 f4 ff ff 	lea    -0xb80(%rbp),%rax
   12f62:	48 05 88 01 00 00    	add    $0x188,%rax
   12f68:	48 89 85 08 ee ff ff 	mov    %rax,-0x11f8(%rbp)
   12f6f:	48 8d 85 80 f4 ff ff 	lea    -0xb80(%rbp),%rax
   12f76:	48 05 88 01 00 00    	add    $0x188,%rax
   12f7c:	48 89 85 10 ee ff ff 	mov    %rax,-0x11f0(%rbp)
   12f83:	48 c7 85 18 ee ff ff 	movq   $0x0,-0x11e8(%rbp)
   12f8a:	00 00 00 00 
   12f8e:	48 8d 85 80 f4 ff ff 	lea    -0xb80(%rbp),%rax
   12f95:	48 83 c0 60          	add    $0x60,%rax
   12f99:	48 89 85 20 ee ff ff 	mov    %rax,-0x11e0(%rbp)
   12fa0:	48 8d 85 80 f4 ff ff 	lea    -0xb80(%rbp),%rax
   12fa7:	48 83 c0 60          	add    $0x60,%rax
   12fab:	48 89 85 28 ee ff ff 	mov    %rax,-0x11d8(%rbp)
   12fb2:	48 8d 85 80 f4 ff ff 	lea    -0xb80(%rbp),%rax
   12fb9:	48 05 88 01 00 00    	add    $0x188,%rax
   12fbf:	48 89 85 30 ee ff ff 	mov    %rax,-0x11d0(%rbp)
   12fc6:	48 8d 85 80 f4 ff ff 	lea    -0xb80(%rbp),%rax
   12fcd:	48 05 58 01 00 00    	add    $0x158,%rax
   12fd3:	48 89 85 38 ee ff ff 	mov    %rax,-0x11c8(%rbp)
   12fda:	48 8d 85 80 f4 ff ff 	lea    -0xb80(%rbp),%rax
   12fe1:	48 05 88 01 00 00    	add    $0x188,%rax
   12fe7:	48 89 85 40 ee ff ff 	mov    %rax,-0x11c0(%rbp)
   12fee:	48 8d 85 80 f4 ff ff 	lea    -0xb80(%rbp),%rax
   12ff5:	48 83 c0 60          	add    $0x60,%rax
   12ff9:	48 89 85 48 ee ff ff 	mov    %rax,-0x11b8(%rbp)
   13000:	48 8d 85 80 f4 ff ff 	lea    -0xb80(%rbp),%rax
   13007:	48 05 88 01 00 00    	add    $0x188,%rax
   1300d:	48 89 85 50 ee ff ff 	mov    %rax,-0x11b0(%rbp)
   13014:	48 8d 85 80 f4 ff ff 	lea    -0xb80(%rbp),%rax
   1301b:	48 05 58 01 00 00    	add    $0x158,%rax
   13021:	48 89 85 58 ee ff ff 	mov    %rax,-0x11a8(%rbp)
   13028:	48 8d 85 80 f4 ff ff 	lea    -0xb80(%rbp),%rax
   1302f:	48 05 58 01 00 00    	add    $0x158,%rax
   13035:	48 89 85 60 ee ff ff 	mov    %rax,-0x11a0(%rbp)
   1303c:	48 8d 85 80 f4 ff ff 	lea    -0xb80(%rbp),%rax
   13043:	48 05 58 01 00 00    	add    $0x158,%rax
   13049:	48 89 85 68 ee ff ff 	mov    %rax,-0x1198(%rbp)
   13050:	48 8d 85 80 f4 ff ff 	lea    -0xb80(%rbp),%rax
   13057:	48 05 58 01 00 00    	add    $0x158,%rax
   1305d:	48 89 85 70 ee ff ff 	mov    %rax,-0x1190(%rbp)
   13064:	48 8d 85 80 f4 ff ff 	lea    -0xb80(%rbp),%rax
   1306b:	48 05 88 01 00 00    	add    $0x188,%rax
   13071:	48 89 85 78 ee ff ff 	mov    %rax,-0x1188(%rbp)
   13078:	48 8d 85 80 f4 ff ff 	lea    -0xb80(%rbp),%rax
   1307f:	48 83 c0 60          	add    $0x60,%rax
   13083:	48 89 85 80 ee ff ff 	mov    %rax,-0x1180(%rbp)
   1308a:	48 8d 85 80 f4 ff ff 	lea    -0xb80(%rbp),%rax
   13091:	48 05 88 01 00 00    	add    $0x188,%rax
   13097:	48 89 85 88 ee ff ff 	mov    %rax,-0x1178(%rbp)
   1309e:	48 8d 85 80 f4 ff ff 	lea    -0xb80(%rbp),%rax
   130a5:	48 05 58 01 00 00    	add    $0x158,%rax
   130ab:	48 89 85 90 ee ff ff 	mov    %rax,-0x1170(%rbp)
   130b2:	48 8d 85 80 f4 ff ff 	lea    -0xb80(%rbp),%rax
   130b9:	48 05 88 01 00 00    	add    $0x188,%rax
   130bf:	48 89 85 98 ee ff ff 	mov    %rax,-0x1168(%rbp)
   130c6:	48 8d 85 80 f4 ff ff 	lea    -0xb80(%rbp),%rax
   130cd:	48 83 c0 60          	add    $0x60,%rax
   130d1:	48 89 85 a0 ee ff ff 	mov    %rax,-0x1160(%rbp)
   130d8:	48 8d 85 80 f4 ff ff 	lea    -0xb80(%rbp),%rax
   130df:	48 83 c0 60          	add    $0x60,%rax
   130e3:	48 89 85 a8 ee ff ff 	mov    %rax,-0x1158(%rbp)
   130ea:	48 c7 85 b0 ee ff ff 	movq   $0x0,-0x1150(%rbp)
   130f1:	00 00 00 00 
   130f5:	48 8d 85 80 f4 ff ff 	lea    -0xb80(%rbp),%rax
   130fc:	48 05 88 01 00 00    	add    $0x188,%rax
   13102:	48 89 85 b8 ee ff ff 	mov    %rax,-0x1148(%rbp)
   13109:	48 8d 85 80 f4 ff ff 	lea    -0xb80(%rbp),%rax
   13110:	48 05 88 01 00 00    	add    $0x188,%rax
   13116:	48 89 85 c0 ee ff ff 	mov    %rax,-0x1140(%rbp)
   1311d:	48 c7 85 c8 ee ff ff 	movq   $0x0,-0x1138(%rbp)
   13124:	00 00 00 00 
   13128:	48 8d 85 80 f4 ff ff 	lea    -0xb80(%rbp),%rax
   1312f:	48 05 58 01 00 00    	add    $0x158,%rax
   13135:	48 89 85 d0 ee ff ff 	mov    %rax,-0x1130(%rbp)
   1313c:	48 c7 85 d8 ee ff ff 	movq   $0x0,-0x1128(%rbp)
   13143:	00 00 00 00 
   13147:	48 c7 85 e0 ee ff ff 	movq   $0x0,-0x1120(%rbp)
   1314e:	00 00 00 00 
   13152:	48 8d 85 80 f4 ff ff 	lea    -0xb80(%rbp),%rax
   13159:	48 05 58 01 00 00    	add    $0x158,%rax
   1315f:	48 89 85 e8 ee ff ff 	mov    %rax,-0x1118(%rbp)
   13166:	48 c7 85 f0 ee ff ff 	movq   $0x0,-0x1110(%rbp)
   1316d:	00 00 00 00 
   13171:	48 8d 85 80 f4 ff ff 	lea    -0xb80(%rbp),%rax
   13178:	48 05 88 01 00 00    	add    $0x188,%rax
   1317e:	48 89 85 f8 ee ff ff 	mov    %rax,-0x1108(%rbp)
   13185:	48 8d 85 80 f4 ff ff 	lea    -0xb80(%rbp),%rax
   1318c:	48 05 88 01 00 00    	add    $0x188,%rax
   13192:	48 89 85 00 ef ff ff 	mov    %rax,-0x1100(%rbp)
   13199:	48 c7 85 08 ef ff ff 	movq   $0x0,-0x10f8(%rbp)
   131a0:	00 00 00 00 
   131a4:	48 8d 85 80 f4 ff ff 	lea    -0xb80(%rbp),%rax
   131ab:	48 83 c0 60          	add    $0x60,%rax
   131af:	48 89 85 10 ef ff ff 	mov    %rax,-0x10f0(%rbp)
   131b6:	48 8d 85 80 f4 ff ff 	lea    -0xb80(%rbp),%rax
   131bd:	48 83 c0 60          	add    $0x60,%rax
   131c1:	48 89 85 18 ef ff ff 	mov    %rax,-0x10e8(%rbp)
   131c8:	48 8d 85 80 f4 ff ff 	lea    -0xb80(%rbp),%rax
   131cf:	48 05 88 01 00 00    	add    $0x188,%rax
   131d5:	48 89 85 20 ef ff ff 	mov    %rax,-0x10e0(%rbp)
   131dc:	48 8d 85 80 f4 ff ff 	lea    -0xb80(%rbp),%rax
   131e3:	48 05 58 01 00 00    	add    $0x158,%rax
   131e9:	48 89 85 28 ef ff ff 	mov    %rax,-0x10d8(%rbp)
   131f0:	48 8d 85 80 f4 ff ff 	lea    -0xb80(%rbp),%rax
   131f7:	48 05 88 01 00 00    	add    $0x188,%rax
   131fd:	48 89 85 30 ef ff ff 	mov    %rax,-0x10d0(%rbp)
   13204:	48 8d 85 80 f4 ff ff 	lea    -0xb80(%rbp),%rax
   1320b:	48 83 c0 60          	add    $0x60,%rax
   1320f:	48 89 85 38 ef ff ff 	mov    %rax,-0x10c8(%rbp)
   13216:	48 8d 85 80 f4 ff ff 	lea    -0xb80(%rbp),%rax
   1321d:	48 05 88 01 00 00    	add    $0x188,%rax
   13223:	48 89 85 40 ef ff ff 	mov    %rax,-0x10c0(%rbp)
   1322a:	48 8d 85 80 f4 ff ff 	lea    -0xb80(%rbp),%rax
   13231:	48 05 58 01 00 00    	add    $0x158,%rax
   13237:	48 89 85 48 ef ff ff 	mov    %rax,-0x10b8(%rbp)
   1323e:	48 8d 85 80 f4 ff ff 	lea    -0xb80(%rbp),%rax
   13245:	48 05 58 01 00 00    	add    $0x158,%rax
   1324b:	48 89 85 50 ef ff ff 	mov    %rax,-0x10b0(%rbp)
   13252:	48 8d 85 80 f4 ff ff 	lea    -0xb80(%rbp),%rax
   13259:	48 05 58 01 00 00    	add    $0x158,%rax
   1325f:	48 89 85 58 ef ff ff 	mov    %rax,-0x10a8(%rbp)
   13266:	48 8d 85 80 f4 ff ff 	lea    -0xb80(%rbp),%rax
   1326d:	48 05 58 01 00 00    	add    $0x158,%rax
   13273:	48 89 85 60 ef ff ff 	mov    %rax,-0x10a0(%rbp)
   1327a:	48 8d 85 80 f4 ff ff 	lea    -0xb80(%rbp),%rax
   13281:	48 05 88 01 00 00    	add    $0x188,%rax
   13287:	48 89 85 68 ef ff ff 	mov    %rax,-0x1098(%rbp)
   1328e:	48 8d 85 80 f4 ff ff 	lea    -0xb80(%rbp),%rax
   13295:	48 83 c0 60          	add    $0x60,%rax
   13299:	48 89 85 70 ef ff ff 	mov    %rax,-0x1090(%rbp)
   132a0:	48 8d 85 80 f4 ff ff 	lea    -0xb80(%rbp),%rax
   132a7:	48 05 88 01 00 00    	add    $0x188,%rax
   132ad:	48 89 85 78 ef ff ff 	mov    %rax,-0x1088(%rbp)
   132b4:	48 8d 85 80 f4 ff ff 	lea    -0xb80(%rbp),%rax
   132bb:	48 05 58 01 00 00    	add    $0x158,%rax
   132c1:	48 89 85 80 ef ff ff 	mov    %rax,-0x1080(%rbp)
   132c8:	48 8d 85 80 f4 ff ff 	lea    -0xb80(%rbp),%rax
   132cf:	48 05 88 01 00 00    	add    $0x188,%rax
   132d5:	48 89 85 88 ef ff ff 	mov    %rax,-0x1078(%rbp)
   132dc:	48 8d 85 80 f4 ff ff 	lea    -0xb80(%rbp),%rax
   132e3:	48 83 c0 60          	add    $0x60,%rax
   132e7:	48 89 85 90 ef ff ff 	mov    %rax,-0x1070(%rbp)
   132ee:	48 8d 85 80 f4 ff ff 	lea    -0xb80(%rbp),%rax
   132f5:	48 83 c0 60          	add    $0x60,%rax
   132f9:	48 89 85 98 ef ff ff 	mov    %rax,-0x1068(%rbp)
   13300:	48 c7 85 a0 ef ff ff 	movq   $0x0,-0x1060(%rbp)
   13307:	00 00 00 00 
   1330b:	48 8d 85 80 f4 ff ff 	lea    -0xb80(%rbp),%rax
   13312:	48 05 88 01 00 00    	add    $0x188,%rax
   13318:	48 89 85 a8 ef ff ff 	mov    %rax,-0x1058(%rbp)
   1331f:	48 8d 85 80 f4 ff ff 	lea    -0xb80(%rbp),%rax
   13326:	48 05 88 01 00 00    	add    $0x188,%rax
   1332c:	48 89 85 b0 ef ff ff 	mov    %rax,-0x1050(%rbp)
   13333:	48 c7 85 b8 ef ff ff 	movq   $0x0,-0x1048(%rbp)
   1333a:	00 00 00 00 
   1333e:	48 8d 85 80 f4 ff ff 	lea    -0xb80(%rbp),%rax
   13345:	48 05 58 01 00 00    	add    $0x158,%rax
   1334b:	48 89 85 c0 ef ff ff 	mov    %rax,-0x1040(%rbp)
   13352:	48 c7 85 c8 ef ff ff 	movq   $0x0,-0x1038(%rbp)
   13359:	00 00 00 00 
   1335d:	48 c7 85 d0 ef ff ff 	movq   $0x0,-0x1030(%rbp)
   13364:	00 00 00 00 
   13368:	48 8d 85 80 f4 ff ff 	lea    -0xb80(%rbp),%rax
   1336f:	48 05 58 01 00 00    	add    $0x158,%rax
   13375:	48 89 85 d8 ef ff ff 	mov    %rax,-0x1028(%rbp)
   1337c:	48 c7 85 e0 ef ff ff 	movq   $0x0,-0x1020(%rbp)
   13383:	00 00 00 00 
   13387:	48 8d 85 80 f4 ff ff 	lea    -0xb80(%rbp),%rax
   1338e:	48 05 88 01 00 00    	add    $0x188,%rax
   13394:	48 89 85 e8 ef ff ff 	mov    %rax,-0x1018(%rbp)
   1339b:	48 8d 85 80 f4 ff ff 	lea    -0xb80(%rbp),%rax
   133a2:	48 05 88 01 00 00    	add    $0x188,%rax
   133a8:	48 89 85 f0 ef ff ff 	mov    %rax,-0x1010(%rbp)
   133af:	48 c7 85 f8 ef ff ff 	movq   $0x0,-0x1008(%rbp)
   133b6:	00 00 00 00 
   133ba:	48 8d 85 80 f4 ff ff 	lea    -0xb80(%rbp),%rax
   133c1:	48 83 c0 60          	add    $0x60,%rax
   133c5:	48 89 85 00 f0 ff ff 	mov    %rax,-0x1000(%rbp)
   133cc:	48 8d 85 80 f4 ff ff 	lea    -0xb80(%rbp),%rax
   133d3:	48 83 c0 60          	add    $0x60,%rax
   133d7:	48 89 85 08 f0 ff ff 	mov    %rax,-0xff8(%rbp)
   133de:	48 8d 85 80 f4 ff ff 	lea    -0xb80(%rbp),%rax
   133e5:	48 05 88 01 00 00    	add    $0x188,%rax
   133eb:	48 89 85 10 f0 ff ff 	mov    %rax,-0xff0(%rbp)
   133f2:	48 8d 85 80 f4 ff ff 	lea    -0xb80(%rbp),%rax
   133f9:	48 05 58 01 00 00    	add    $0x158,%rax
   133ff:	48 89 85 18 f0 ff ff 	mov    %rax,-0xfe8(%rbp)
   13406:	48 8d 85 80 f4 ff ff 	lea    -0xb80(%rbp),%rax
   1340d:	48 05 88 01 00 00    	add    $0x188,%rax
   13413:	48 89 85 20 f0 ff ff 	mov    %rax,-0xfe0(%rbp)
   1341a:	48 8d 85 80 f4 ff ff 	lea    -0xb80(%rbp),%rax
   13421:	48 83 c0 60          	add    $0x60,%rax
   13425:	48 89 85 28 f0 ff ff 	mov    %rax,-0xfd8(%rbp)
   1342c:	48 8d 85 80 f4 ff ff 	lea    -0xb80(%rbp),%rax
   13433:	48 05 88 01 00 00    	add    $0x188,%rax
   13439:	48 89 85 30 f0 ff ff 	mov    %rax,-0xfd0(%rbp)
   13440:	48 8d 85 80 f4 ff ff 	lea    -0xb80(%rbp),%rax
   13447:	48 05 58 01 00 00    	add    $0x158,%rax
   1344d:	48 89 85 38 f0 ff ff 	mov    %rax,-0xfc8(%rbp)
   13454:	48 8d 85 80 f4 ff ff 	lea    -0xb80(%rbp),%rax
   1345b:	48 05 58 01 00 00    	add    $0x158,%rax
   13461:	48 89 85 40 f0 ff ff 	mov    %rax,-0xfc0(%rbp)
   13468:	48 8d 85 80 f4 ff ff 	lea    -0xb80(%rbp),%rax
   1346f:	48 05 58 01 00 00    	add    $0x158,%rax
   13475:	48 89 85 48 f0 ff ff 	mov    %rax,-0xfb8(%rbp)
   1347c:	48 8d 85 80 f4 ff ff 	lea    -0xb80(%rbp),%rax
   13483:	48 05 58 01 00 00    	add    $0x158,%rax
   13489:	48 89 85 50 f0 ff ff 	mov    %rax,-0xfb0(%rbp)
   13490:	48 8d 85 80 f4 ff ff 	lea    -0xb80(%rbp),%rax
   13497:	48 05 88 01 00 00    	add    $0x188,%rax
   1349d:	48 89 85 58 f0 ff ff 	mov    %rax,-0xfa8(%rbp)
   134a4:	48 8d 85 80 f4 ff ff 	lea    -0xb80(%rbp),%rax
   134ab:	48 83 c0 60          	add    $0x60,%rax
   134af:	48 89 85 60 f0 ff ff 	mov    %rax,-0xfa0(%rbp)
   134b6:	48 8d 85 80 f4 ff ff 	lea    -0xb80(%rbp),%rax
   134bd:	48 05 88 01 00 00    	add    $0x188,%rax
   134c3:	48 89 85 68 f0 ff ff 	mov    %rax,-0xf98(%rbp)
   134ca:	48 8d 85 80 f4 ff ff 	lea    -0xb80(%rbp),%rax
   134d1:	48 05 58 01 00 00    	add    $0x158,%rax
   134d7:	48 89 85 70 f0 ff ff 	mov    %rax,-0xf90(%rbp)
   134de:	48 8d 85 80 f4 ff ff 	lea    -0xb80(%rbp),%rax
   134e5:	48 05 88 01 00 00    	add    $0x188,%rax
   134eb:	48 89 85 78 f0 ff ff 	mov    %rax,-0xf88(%rbp)
   134f2:	48 8d 85 80 f4 ff ff 	lea    -0xb80(%rbp),%rax
   134f9:	48 83 c0 60          	add    $0x60,%rax
   134fd:	48 89 85 80 f0 ff ff 	mov    %rax,-0xf80(%rbp)
   13504:	48 8d 85 80 f4 ff ff 	lea    -0xb80(%rbp),%rax
   1350b:	48 83 c0 60          	add    $0x60,%rax
   1350f:	48 89 85 88 f0 ff ff 	mov    %rax,-0xf78(%rbp)
   13516:	48 8d 85 d0 ec ff ff 	lea    -0x1330(%rbp),%rax
   1351d:	48 83 c0 78          	add    $0x78,%rax
   13521:	48 89 85 c8 e7 ff ff 	mov    %rax,-0x1838(%rbp)
   13528:	66 0f be 85 a4 e5 ff 	movsbw -0x1a5c(%rbp),%ax
   1352f:	ff 
   13530:	0f b7 d8             	movzwl %ax,%ebx
   13533:	8b 85 88 e5 ff ff    	mov    -0x1a78(%rbp),%eax
   13539:	44 0f bf e0          	movswl %ax,%r12d
   1353d:	48 8b 85 d0 e6 ff ff 	mov    -0x1930(%rbp),%rax
   13544:	0f b6 00             	movzbl (%rax),%eax
   13547:	89 c2                	mov    %eax,%edx
   13549:	0f b7 85 8c e5 ff ff 	movzwl -0x1a74(%rbp),%eax
   13550:	09 c2                	or     %eax,%edx
   13552:	48 8b 85 d0 e6 ff ff 	mov    -0x1930(%rbp),%rax
   13559:	88 10                	mov    %dl,(%rax)
   1355b:	0f b6 00             	movzbl (%rax),%eax
   1355e:	44 0f b6 e8          	movzbl %al,%r13d
   13562:	be 05 00 00 00       	mov    $0x5,%esi
   13567:	bf ff ff ff ff       	mov    $0xffffffff,%edi
   1356c:	e8 30 5d ff ff       	callq  92a1 <safe_lshift_func_int8_t_s_s>
   13571:	0f be d0             	movsbl %al,%edx
   13574:	48 8b 85 48 e7 ff ff 	mov    -0x18b8(%rbp),%rax
   1357b:	89 10                	mov    %edx,(%rax)
   1357d:	48 8b 85 48 e7 ff ff 	mov    -0x18b8(%rbp),%rax
   13584:	8b 00                	mov    (%rax),%eax
   13586:	39 85 bc e5 ff ff    	cmp    %eax,-0x1a44(%rbp)
   1358c:	0f 9c c0             	setl   %al
   1358f:	0f b6 d0             	movzbl %al,%edx
   13592:	0f be 85 a4 e5 ff ff 	movsbl -0x1a5c(%rbp),%eax
   13599:	89 85 70 ea ff ff    	mov    %eax,-0x1590(%rbp)
   1359f:	c7 05 69 6f 00 00 01 	movl   $0x1,0x6f69(%rip)        # 1a512 <g_655+0x12>
   135a6:	00 00 00 
   135a9:	8b 0d 63 6f 00 00    	mov    0x6f63(%rip),%ecx        # 1a512 <g_655+0x12>
   135af:	0f b7 85 8c e5 ff ff 	movzwl -0x1a74(%rbp),%eax
   135b6:	98                   	cwtl   
   135b7:	09 c8                	or     %ecx,%eax
   135b9:	89 85 84 ec ff ff    	mov    %eax,-0x137c(%rbp)
   135bf:	8b 85 84 ec ff ff    	mov    -0x137c(%rbp),%eax
   135c5:	48 63 c8             	movslq %eax,%rcx
   135c8:	48 8b 05 1b 6f 00 00 	mov    0x6f1b(%rip),%rax        # 1a4ea <g_654+0xa>
   135cf:	48 09 c1             	or     %rax,%rcx
   135d2:	0f b7 85 8c e5 ff ff 	movzwl -0x1a74(%rbp),%eax
   135d9:	48 0f bf c0          	movswq %ax,%rax
   135dd:	48 39 c1             	cmp    %rax,%rcx
   135e0:	0f 9d c0             	setge  %al
   135e3:	0f b6 c0             	movzbl %al,%eax
   135e6:	39 85 88 e5 ff ff    	cmp    %eax,-0x1a78(%rbp)
   135ec:	0f 92 c0             	setb   %al
   135ef:	0f b6 c0             	movzbl %al,%eax
   135f2:	39 c2                	cmp    %eax,%edx
   135f4:	0f 9e c0             	setle  %al
   135f7:	0f b6 c0             	movzbl %al,%eax
   135fa:	41 39 c5             	cmp    %eax,%r13d
   135fd:	75 10                	jne    1360f <func_76+0x4e90>
   135ff:	80 bd a4 e5 ff ff 00 	cmpb   $0x0,-0x1a5c(%rbp)
   13606:	74 07                	je     1360f <func_76+0x4e90>
   13608:	b8 01 00 00 00       	mov    $0x1,%eax
   1360d:	eb 05                	jmp    13614 <func_76+0x4e95>
   1360f:	b8 00 00 00 00       	mov    $0x0,%eax
   13614:	48 63 d0             	movslq %eax,%rdx
   13617:	48 8b 85 c0 e7 ff ff 	mov    -0x1840(%rbp),%rax
   1361e:	48 89 10             	mov    %rdx,(%rax)
   13621:	48 8b 85 c0 e7 ff ff 	mov    -0x1840(%rbp),%rax
   13628:	48 8b 00             	mov    (%rax),%rax
   1362b:	48 85 c0             	test   %rax,%rax
   1362e:	75 0c                	jne    1363c <func_76+0x4ebd>
   13630:	0f b7 85 8c e5 ff ff 	movzwl -0x1a74(%rbp),%eax
   13637:	66 85 c0             	test   %ax,%ax
   1363a:	74 07                	je     13643 <func_76+0x4ec4>
   1363c:	b8 01 00 00 00       	mov    $0x1,%eax
   13641:	eb 05                	jmp    13648 <func_76+0x4ec9>
   13643:	b8 00 00 00 00       	mov    $0x0,%eax
   13648:	3d 73 cb 00 00       	cmp    $0xcb73,%eax
   1364d:	0f 94 c0             	sete   %al
   13650:	0f b6 c0             	movzbl %al,%eax
   13653:	44 89 e6             	mov    %r12d,%esi
   13656:	89 c7                	mov    %eax,%edi
   13658:	e8 f8 5d ff ff       	callq  9455 <safe_div_func_int16_t_s_s>
   1365d:	48 0f bf c0          	movswq %ax,%rax
   13661:	48 be 48 54 a4 2f aa 	movabs $0x78b653aa2fa45448,%rsi
   13668:	53 b6 78 
   1366b:	48 89 c7             	mov    %rax,%rdi
   1366e:	e8 bb 69 ff ff       	callq  a02e <safe_add_func_uint64_t_u_u>
   13673:	0f b6 c0             	movzbl %al,%eax
   13676:	89 c7                	mov    %eax,%edi
   13678:	e8 c8 64 ff ff       	callq  9b45 <safe_unary_minus_func_uint8_t_u>
   1367d:	0f b7 85 8c e5 ff ff 	movzwl -0x1a74(%rbp),%eax
   13684:	0f b7 c0             	movzwl %ax,%eax
   13687:	89 de                	mov    %ebx,%esi
   13689:	89 c7                	mov    %eax,%edi
   1368b:	e8 8f 66 ff ff       	callq  9d1f <safe_sub_func_uint16_t_u_u>
   13690:	0f b7 c0             	movzwl %ax,%eax
   13693:	89 c6                	mov    %eax,%esi
   13695:	bf fc cc 00 00       	mov    $0xccfc,%edi
   1369a:	e8 9e 66 ff ff       	callq  9d3d <safe_mul_func_uint16_t_u_u>
   1369f:	b9 42 99 94 ea       	mov    $0xea949942,%ecx
   136a4:	48 8b 85 c8 e6 ff ff 	mov    -0x1938(%rbp),%rax
   136ab:	8b 10                	mov    (%rax),%edx
   136ad:	48 8b 85 c8 e6 ff ff 	mov    -0x1938(%rbp),%rax
   136b4:	21 ca                	and    %ecx,%edx
   136b6:	89 10                	mov    %edx,(%rax)
   136b8:	48 8b 85 c8 e7 ff ff 	mov    -0x1838(%rbp),%rax
   136bf:	48 c7 00 00 00 00 00 	movq   $0x0,(%rax)
   136c6:	48 8b 85 c8 e7 ff ff 	mov    -0x1838(%rbp),%rax
   136cd:	48 8b 00             	mov    (%rax),%rax
   136d0:	48 39 85 88 e7 ff ff 	cmp    %rax,-0x1878(%rbp)
   136d7:	0f 94 c0             	sete   %al
   136da:	0f b6 d0             	movzbl %al,%edx
   136dd:	48 8b 05 34 6e 00 00 	mov    0x6e34(%rip),%rax        # 1a518 <g_740>
   136e4:	48 39 c2             	cmp    %rax,%rdx
   136e7:	0f 97 c0             	seta   %al
   136ea:	0f b6 d0             	movzbl %al,%edx
   136ed:	48 8b 85 48 e7 ff ff 	mov    -0x18b8(%rbp),%rax
   136f4:	89 10                	mov    %edx,(%rax)
   136f6:	83 85 14 e6 ff ff 01 	addl   $0x1,-0x19ec(%rbp)
   136fd:	83 bd 14 e6 ff ff 1d 	cmpl   $0x1d,-0x19ec(%rbp)
   13704:	0f 84 b0 e8 ff ff    	je     11fba <func_76+0x383b>
   1370a:	0f b7 85 8c e5 ff ff 	movzwl -0x1a74(%rbp),%eax
   13711:	98                   	cwtl   
   13712:	48 8b 5d d8          	mov    -0x28(%rbp),%rbx
   13716:	64 48 33 1c 25 28 00 	xor    %fs:0x28,%rbx
   1371d:	00 00 
   1371f:	74 05                	je     13726 <func_76+0x4fa7>
   13721:	e8 4a 59 ff ff       	callq  9070 <__stack_chk_fail@plt>
   13726:	48 81 c4 60 1a 00 00 	add    $0x1a60,%rsp
   1372d:	5b                   	pop    %rbx
   1372e:	41 5c                	pop    %r12
   13730:	41 5d                	pop    %r13
   13732:	41 5e                	pop    %r14
   13734:	5d                   	pop    %rbp
   13735:	c3                   	retq   

0000000000013736 <main>:
   13736:	f3 0f 1e fa          	endbr64 
   1373a:	55                   	push   %rbp
   1373b:	48 89 e5             	mov    %rsp,%rbp
   1373e:	48 83 ec 20          	sub    $0x20,%rsp
   13742:	89 7d ec             	mov    %edi,-0x14(%rbp)
   13745:	48 89 75 e0          	mov    %rsi,-0x20(%rbp)
   13749:	c7 45 fc 00 00 00 00 	movl   $0x0,-0x4(%rbp)
   13750:	83 7d ec 02          	cmpl   $0x2,-0x14(%rbp)
   13754:	75 25                	jne    1377b <main+0x45>
   13756:	48 8b 45 e0          	mov    -0x20(%rbp),%rax
   1375a:	48 83 c0 08          	add    $0x8,%rax
   1375e:	48 8b 00             	mov    (%rax),%rax
   13761:	48 8d 35 f8 2f 00 00 	lea    0x2ff8(%rip),%rsi        # 16760 <g_1320+0x658>
   13768:	48 89 c7             	mov    %rax,%rdi
   1376b:	e8 20 59 ff ff       	callq  9090 <strcmp@plt>
   13770:	85 c0                	test   %eax,%eax
   13772:	75 07                	jne    1377b <main+0x45>
   13774:	c7 45 fc 01 00 00 00 	movl   $0x1,-0x4(%rbp)
   1377b:	e8 09 5a ff ff       	callq  9189 <platform_main_begin>
   13780:	e8 13 6e ff ff       	callq  a598 <crc32_gentab>
   13785:	e8 2b 70 ff ff       	callq  a7b5 <func_1>
   1378a:	8b 05 b8 b0 00 00    	mov    0xb0b8(%rip),%eax        # 1e848 <g_2>
   13790:	48 98                	cltq   
   13792:	8b 55 fc             	mov    -0x4(%rbp),%edx
   13795:	48 8d 35 c6 2f 00 00 	lea    0x2fc6(%rip),%rsi        # 16762 <g_1320+0x65a>
   1379c:	48 89 c7             	mov    %rax,%rdi
   1379f:	e8 4f 6f ff ff       	callq  a6f3 <transparent_crc>
   137a4:	8b 05 7a 68 00 00    	mov    0x687a(%rip),%eax        # 1a024 <g_5>
   137aa:	48 98                	cltq   
   137ac:	8b 55 fc             	mov    -0x4(%rbp),%edx
   137af:	48 8d 35 b0 2f 00 00 	lea    0x2fb0(%rip),%rsi        # 16766 <g_1320+0x65e>
   137b6:	48 89 c7             	mov    %rax,%rdi
   137b9:	e8 35 6f ff ff       	callq  a6f3 <transparent_crc>
   137be:	c7 45 f0 00 00 00 00 	movl   $0x0,-0x10(%rbp)
   137c5:	e9 9b 00 00 00       	jmpq   13865 <main+0x12f>
   137ca:	c7 45 f4 00 00 00 00 	movl   $0x0,-0xc(%rbp)
   137d1:	e9 81 00 00 00       	jmpq   13857 <main+0x121>
   137d6:	c7 45 f8 00 00 00 00 	movl   $0x0,-0x8(%rbp)
   137dd:	eb 6e                	jmp    1384d <main+0x117>
   137df:	8b 45 f8             	mov    -0x8(%rbp),%eax
   137e2:	48 63 f0             	movslq %eax,%rsi
   137e5:	8b 45 f4             	mov    -0xc(%rbp),%eax
   137e8:	48 63 c8             	movslq %eax,%rcx
   137eb:	8b 45 f0             	mov    -0x10(%rbp),%eax
   137ee:	48 63 d0             	movslq %eax,%rdx
   137f1:	48 89 d0             	mov    %rdx,%rax
   137f4:	48 c1 e0 02          	shl    $0x2,%rax
   137f8:	48 01 d0             	add    %rdx,%rax
   137fb:	48 01 f0             	add    %rsi,%rax
   137fe:	48 01 c8             	add    %rcx,%rax
   13801:	48 8d 14 85 00 00 00 	lea    0x0(,%rax,4),%rdx
   13808:	00 
   13809:	48 8d 05 30 68 00 00 	lea    0x6830(%rip),%rax        # 1a040 <g_6>
   13810:	8b 04 02             	mov    (%rdx,%rax,1),%eax
   13813:	48 98                	cltq   
   13815:	8b 55 fc             	mov    -0x4(%rbp),%edx
   13818:	48 8d 35 4b 2f 00 00 	lea    0x2f4b(%rip),%rsi        # 1676a <g_1320+0x662>
   1381f:	48 89 c7             	mov    %rax,%rdi
   13822:	e8 cc 6e ff ff       	callq  a6f3 <transparent_crc>
   13827:	83 7d fc 00          	cmpl   $0x0,-0x4(%rbp)
   1382b:	74 1c                	je     13849 <main+0x113>
   1382d:	8b 4d f8             	mov    -0x8(%rbp),%ecx
   13830:	8b 55 f4             	mov    -0xc(%rbp),%edx
   13833:	8b 45 f0             	mov    -0x10(%rbp),%eax
   13836:	89 c6                	mov    %eax,%esi
   13838:	48 8d 3d 38 2f 00 00 	lea    0x2f38(%rip),%rdi        # 16777 <g_1320+0x66f>
   1383f:	b8 00 00 00 00       	mov    $0x0,%eax
   13844:	e8 37 58 ff ff       	callq  9080 <printf@plt>
   13849:	83 45 f8 01          	addl   $0x1,-0x8(%rbp)
   1384d:	83 7d f8 00          	cmpl   $0x0,-0x8(%rbp)
   13851:	7e 8c                	jle    137df <main+0xa9>
   13853:	83 45 f4 01          	addl   $0x1,-0xc(%rbp)
   13857:	83 7d f4 04          	cmpl   $0x4,-0xc(%rbp)
   1385b:	0f 8e 75 ff ff ff    	jle    137d6 <main+0xa0>
   13861:	83 45 f0 01          	addl   $0x1,-0x10(%rbp)
   13865:	83 7d f0 09          	cmpl   $0x9,-0x10(%rbp)
   13869:	0f 8e 5b ff ff ff    	jle    137ca <main+0x94>
   1386f:	8b 05 93 68 00 00    	mov    0x6893(%rip),%eax        # 1a108 <g_11>
   13875:	48 98                	cltq   
   13877:	8b 55 fc             	mov    -0x4(%rbp),%edx
   1387a:	48 8d 35 0c 2f 00 00 	lea    0x2f0c(%rip),%rsi        # 1678d <g_1320+0x685>
   13881:	48 89 c7             	mov    %rax,%rdi
   13884:	e8 6a 6e ff ff       	callq  a6f3 <transparent_crc>
   13889:	8b 05 7d 68 00 00    	mov    0x687d(%rip),%eax        # 1a10c <g_12>
   1388f:	48 98                	cltq   
   13891:	8b 55 fc             	mov    -0x4(%rbp),%edx
   13894:	48 8d 35 f7 2e 00 00 	lea    0x2ef7(%rip),%rsi        # 16792 <g_1320+0x68a>
   1389b:	48 89 c7             	mov    %rax,%rdi
   1389e:	e8 50 6e ff ff       	callq  a6f3 <transparent_crc>
   138a3:	8b 05 a3 af 00 00    	mov    0xafa3(%rip),%eax        # 1e84c <g_15>
   138a9:	48 98                	cltq   
   138ab:	8b 55 fc             	mov    -0x4(%rbp),%edx
   138ae:	48 8d 35 e2 2e 00 00 	lea    0x2ee2(%rip),%rsi        # 16797 <g_1320+0x68f>
   138b5:	48 89 c7             	mov    %rax,%rdi
   138b8:	e8 36 6e ff ff       	callq  a6f3 <transparent_crc>
   138bd:	8b 05 4d 68 00 00    	mov    0x684d(%rip),%eax        # 1a110 <g_16>
   138c3:	48 98                	cltq   
   138c5:	8b 55 fc             	mov    -0x4(%rbp),%edx
   138c8:	48 8d 35 cd 2e 00 00 	lea    0x2ecd(%rip),%rsi        # 1679c <g_1320+0x694>
   138cf:	48 89 c7             	mov    %rax,%rdi
   138d2:	e8 1c 6e ff ff       	callq  a6f3 <transparent_crc>
   138d7:	8b 05 37 68 00 00    	mov    0x6837(%rip),%eax        # 1a114 <g_17>
   138dd:	48 98                	cltq   
   138df:	8b 55 fc             	mov    -0x4(%rbp),%edx
   138e2:	48 8d 35 b8 2e 00 00 	lea    0x2eb8(%rip),%rsi        # 167a1 <g_1320+0x699>
   138e9:	48 89 c7             	mov    %rax,%rdi
   138ec:	e8 02 6e ff ff       	callq  a6f3 <transparent_crc>
   138f1:	8b 05 21 68 00 00    	mov    0x6821(%rip),%eax        # 1a118 <g_20>
   138f7:	48 98                	cltq   
   138f9:	8b 55 fc             	mov    -0x4(%rbp),%edx
   138fc:	48 8d 35 a3 2e 00 00 	lea    0x2ea3(%rip),%rsi        # 167a6 <g_1320+0x69e>
   13903:	48 89 c7             	mov    %rax,%rdi
   13906:	e8 e8 6d ff ff       	callq  a6f3 <transparent_crc>
   1390b:	8b 05 0b 68 00 00    	mov    0x680b(%rip),%eax        # 1a11c <g_25>
   13911:	48 98                	cltq   
   13913:	8b 55 fc             	mov    -0x4(%rbp),%edx
   13916:	48 8d 35 8e 2e 00 00 	lea    0x2e8e(%rip),%rsi        # 167ab <g_1320+0x6a3>
   1391d:	48 89 c7             	mov    %rax,%rdi
   13920:	e8 ce 6d ff ff       	callq  a6f3 <transparent_crc>
   13925:	48 8b 05 f4 67 00 00 	mov    0x67f4(%rip),%rax        # 1a120 <g_73>
   1392c:	48 89 c1             	mov    %rax,%rcx
   1392f:	8b 45 fc             	mov    -0x4(%rbp),%eax
   13932:	89 c2                	mov    %eax,%edx
   13934:	48 8d 35 75 2e 00 00 	lea    0x2e75(%rip),%rsi        # 167b0 <g_1320+0x6a8>
   1393b:	48 89 cf             	mov    %rcx,%rdi
   1393e:	e8 b0 6d ff ff       	callq  a6f3 <transparent_crc>
   13943:	8b 05 df 67 00 00    	mov    0x67df(%rip),%eax        # 1a128 <g_95>
   13949:	48 98                	cltq   
   1394b:	8b 55 fc             	mov    -0x4(%rbp),%edx
   1394e:	48 8d 35 60 2e 00 00 	lea    0x2e60(%rip),%rsi        # 167b5 <g_1320+0x6ad>
   13955:	48 89 c7             	mov    %rax,%rdi
   13958:	e8 96 6d ff ff       	callq  a6f3 <transparent_crc>
   1395d:	0f b6 05 c8 67 00 00 	movzbl 0x67c8(%rip),%eax        # 1a12c <g_112>
   13964:	0f b6 c0             	movzbl %al,%eax
   13967:	8b 55 fc             	mov    -0x4(%rbp),%edx
   1396a:	48 8d 35 49 2e 00 00 	lea    0x2e49(%rip),%rsi        # 167ba <g_1320+0x6b2>
   13971:	48 89 c7             	mov    %rax,%rdi
   13974:	e8 7a 6d ff ff       	callq  a6f3 <transparent_crc>
   13979:	c7 45 f0 00 00 00 00 	movl   $0x0,-0x10(%rbp)
   13980:	eb 75                	jmp    139f7 <main+0x2c1>
   13982:	c7 45 f4 00 00 00 00 	movl   $0x0,-0xc(%rbp)
   13989:	eb 62                	jmp    139ed <main+0x2b7>
   1398b:	8b 45 f4             	mov    -0xc(%rbp),%eax
   1398e:	48 63 c8             	movslq %eax,%rcx
   13991:	8b 45 f0             	mov    -0x10(%rbp),%eax
   13994:	48 63 d0             	movslq %eax,%rdx
   13997:	48 89 d0             	mov    %rdx,%rax
   1399a:	48 c1 e0 02          	shl    $0x2,%rax
   1399e:	48 01 d0             	add    %rdx,%rax
   139a1:	48 01 c8             	add    %rcx,%rax
   139a4:	48 8d 14 85 00 00 00 	lea    0x0(,%rax,4),%rdx
   139ab:	00 
   139ac:	48 8d 05 8d 67 00 00 	lea    0x678d(%rip),%rax        # 1a140 <g_113>
   139b3:	8b 04 02             	mov    (%rdx,%rax,1),%eax
   139b6:	48 98                	cltq   
   139b8:	8b 55 fc             	mov    -0x4(%rbp),%edx
   139bb:	48 8d 35 fe 2d 00 00 	lea    0x2dfe(%rip),%rsi        # 167c0 <g_1320+0x6b8>
   139c2:	48 89 c7             	mov    %rax,%rdi
   139c5:	e8 29 6d ff ff       	callq  a6f3 <transparent_crc>
   139ca:	83 7d fc 00          	cmpl   $0x0,-0x4(%rbp)
   139ce:	74 19                	je     139e9 <main+0x2b3>
   139d0:	8b 55 f4             	mov    -0xc(%rbp),%edx
   139d3:	8b 45 f0             	mov    -0x10(%rbp),%eax
   139d6:	89 c6                	mov    %eax,%esi
   139d8:	48 8d 3d ed 2d 00 00 	lea    0x2ded(%rip),%rdi        # 167cc <g_1320+0x6c4>
   139df:	b8 00 00 00 00       	mov    $0x0,%eax
   139e4:	e8 97 56 ff ff       	callq  9080 <printf@plt>
   139e9:	83 45 f4 01          	addl   $0x1,-0xc(%rbp)
   139ed:	83 7d f4 04          	cmpl   $0x4,-0xc(%rbp)
   139f1:	7e 98                	jle    1398b <main+0x255>
   139f3:	83 45 f0 01          	addl   $0x1,-0x10(%rbp)
   139f7:	83 7d f0 07          	cmpl   $0x7,-0x10(%rbp)
   139fb:	7e 85                	jle    13982 <main+0x24c>
   139fd:	c7 45 f0 00 00 00 00 	movl   $0x0,-0x10(%rbp)
   13a04:	e9 b5 00 00 00       	jmpq   13abe <main+0x388>
   13a09:	c7 45 f4 00 00 00 00 	movl   $0x0,-0xc(%rbp)
   13a10:	e9 9b 00 00 00       	jmpq   13ab0 <main+0x37a>
   13a15:	c7 45 f8 00 00 00 00 	movl   $0x0,-0x8(%rbp)
   13a1c:	e9 81 00 00 00       	jmpq   13aa2 <main+0x36c>
   13a21:	8b 45 f8             	mov    -0x8(%rbp),%eax
   13a24:	48 63 f0             	movslq %eax,%rsi
   13a27:	8b 45 f0             	mov    -0x10(%rbp),%eax
   13a2a:	48 63 d0             	movslq %eax,%rdx
   13a2d:	8b 45 f4             	mov    -0xc(%rbp),%eax
   13a30:	48 63 c8             	movslq %eax,%rcx
   13a33:	48 89 d0             	mov    %rdx,%rax
   13a36:	48 01 c0             	add    %rax,%rax
   13a39:	48 01 d0             	add    %rdx,%rax
   13a3c:	48 8d 14 c5 00 00 00 	lea    0x0(,%rax,8),%rdx
   13a43:	00 
   13a44:	48 01 d0             	add    %rdx,%rax
   13a47:	48 89 ca             	mov    %rcx,%rdx
   13a4a:	48 c1 e2 03          	shl    $0x3,%rdx
   13a4e:	48 01 ca             	add    %rcx,%rdx
   13a51:	48 01 d0             	add    %rdx,%rax
   13a54:	48 01 f0             	add    %rsi,%rax
   13a57:	48 8d 14 00          	lea    (%rax,%rax,1),%rdx
   13a5b:	48 8d 05 7e 67 00 00 	lea    0x677e(%rip),%rax        # 1a1e0 <g_117>
   13a62:	0f b7 04 02          	movzwl (%rdx,%rax,1),%eax
   13a66:	48 0f bf c0          	movswq %ax,%rax
   13a6a:	8b 55 fc             	mov    -0x4(%rbp),%edx
   13a6d:	48 8d 35 6a 2d 00 00 	lea    0x2d6a(%rip),%rsi        # 167de <g_1320+0x6d6>
   13a74:	48 89 c7             	mov    %rax,%rdi
   13a77:	e8 77 6c ff ff       	callq  a6f3 <transparent_crc>
   13a7c:	83 7d fc 00          	cmpl   $0x0,-0x4(%rbp)
   13a80:	74 1c                	je     13a9e <main+0x368>
   13a82:	8b 4d f8             	mov    -0x8(%rbp),%ecx
   13a85:	8b 55 f4             	mov    -0xc(%rbp),%edx
   13a88:	8b 45 f0             	mov    -0x10(%rbp),%eax
   13a8b:	89 c6                	mov    %eax,%esi
   13a8d:	48 8d 3d e3 2c 00 00 	lea    0x2ce3(%rip),%rdi        # 16777 <g_1320+0x66f>
   13a94:	b8 00 00 00 00       	mov    $0x0,%eax
   13a99:	e8 e2 55 ff ff       	callq  9080 <printf@plt>
   13a9e:	83 45 f8 01          	addl   $0x1,-0x8(%rbp)
   13aa2:	83 7d f8 08          	cmpl   $0x8,-0x8(%rbp)
   13aa6:	0f 8e 75 ff ff ff    	jle    13a21 <main+0x2eb>
   13aac:	83 45 f4 01          	addl   $0x1,-0xc(%rbp)
   13ab0:	83 7d f4 02          	cmpl   $0x2,-0xc(%rbp)
   13ab4:	0f 8e 5b ff ff ff    	jle    13a15 <main+0x2df>
   13aba:	83 45 f0 01          	addl   $0x1,-0x10(%rbp)
   13abe:	83 7d f0 03          	cmpl   $0x3,-0x10(%rbp)
   13ac2:	0f 8e 41 ff ff ff    	jle    13a09 <main+0x2d3>
   13ac8:	48 8b 05 e9 67 00 00 	mov    0x67e9(%rip),%rax        # 1a2b8 <g_118>
   13acf:	8b 55 fc             	mov    -0x4(%rbp),%edx
   13ad2:	48 8d 35 14 2d 00 00 	lea    0x2d14(%rip),%rsi        # 167ed <g_1320+0x6e5>
   13ad9:	48 89 c7             	mov    %rax,%rdi
   13adc:	e8 12 6c ff ff       	callq  a6f3 <transparent_crc>
   13ae1:	0f b6 05 d8 67 00 00 	movzbl 0x67d8(%rip),%eax        # 1a2c0 <g_126>
   13ae8:	0f b6 c0             	movzbl %al,%eax
   13aeb:	8b 55 fc             	mov    -0x4(%rbp),%edx
   13aee:	48 8d 35 fe 2c 00 00 	lea    0x2cfe(%rip),%rsi        # 167f3 <g_1320+0x6eb>
   13af5:	48 89 c7             	mov    %rax,%rdi
   13af8:	e8 f6 6b ff ff       	callq  a6f3 <transparent_crc>
   13afd:	0f b6 05 bd 67 00 00 	movzbl 0x67bd(%rip),%eax        # 1a2c1 <g_178>
   13b04:	48 0f be c0          	movsbq %al,%rax
   13b08:	8b 55 fc             	mov    -0x4(%rbp),%edx
   13b0b:	48 8d 35 e7 2c 00 00 	lea    0x2ce7(%rip),%rsi        # 167f9 <g_1320+0x6f1>
   13b12:	48 89 c7             	mov    %rax,%rdi
   13b15:	e8 d9 6b ff ff       	callq  a6f3 <transparent_crc>
   13b1a:	48 8b 05 a7 67 00 00 	mov    0x67a7(%rip),%rax        # 1a2c8 <g_181>
   13b21:	48 89 c1             	mov    %rax,%rcx
   13b24:	8b 45 fc             	mov    -0x4(%rbp),%eax
   13b27:	89 c2                	mov    %eax,%edx
   13b29:	48 8d 35 cf 2c 00 00 	lea    0x2ccf(%rip),%rsi        # 167ff <g_1320+0x6f7>
   13b30:	48 89 cf             	mov    %rcx,%rdi
   13b33:	e8 bb 6b ff ff       	callq  a6f3 <transparent_crc>
   13b38:	c7 45 f0 00 00 00 00 	movl   $0x0,-0x10(%rbp)
   13b3f:	e9 56 01 00 00       	jmpq   13c9a <main+0x564>
   13b44:	8b 45 f0             	mov    -0x10(%rbp),%eax
   13b47:	48 63 d0             	movslq %eax,%rdx
   13b4a:	48 89 d0             	mov    %rdx,%rax
   13b4d:	48 c1 e0 02          	shl    $0x2,%rax
   13b51:	48 01 d0             	add    %rdx,%rax
   13b54:	48 01 c0             	add    %rax,%rax
   13b57:	48 01 d0             	add    %rdx,%rax
   13b5a:	48 01 c0             	add    %rax,%rax
   13b5d:	48 89 c2             	mov    %rax,%rdx
   13b60:	48 8d 05 79 67 00 00 	lea    0x6779(%rip),%rax        # 1a2e0 <g_206>
   13b67:	8b 04 02             	mov    (%rdx,%rax,1),%eax
   13b6a:	48 98                	cltq   
   13b6c:	8b 55 fc             	mov    -0x4(%rbp),%edx
   13b6f:	48 8d 35 8f 2c 00 00 	lea    0x2c8f(%rip),%rsi        # 16805 <g_1320+0x6fd>
   13b76:	48 89 c7             	mov    %rax,%rdi
   13b79:	e8 75 6b ff ff       	callq  a6f3 <transparent_crc>
   13b7e:	8b 45 f0             	mov    -0x10(%rbp),%eax
   13b81:	48 63 d0             	movslq %eax,%rdx
   13b84:	48 89 d0             	mov    %rdx,%rax
   13b87:	48 c1 e0 02          	shl    $0x2,%rax
   13b8b:	48 01 d0             	add    %rdx,%rax
   13b8e:	48 01 c0             	add    %rax,%rax
   13b91:	48 01 d0             	add    %rdx,%rax
   13b94:	48 01 c0             	add    %rax,%rax
   13b97:	48 89 c2             	mov    %rax,%rdx
   13b9a:	48 8d 05 3f 67 00 00 	lea    0x673f(%rip),%rax        # 1a2e0 <g_206>
   13ba1:	0f b7 44 02 04       	movzwl 0x4(%rdx,%rax,1),%eax
   13ba6:	01 c0                	add    %eax,%eax
   13ba8:	66 d1 f8             	sar    %ax
   13bab:	48 0f bf c0          	movswq %ax,%rax
   13baf:	8b 55 fc             	mov    -0x4(%rbp),%edx
   13bb2:	48 8d 35 58 2c 00 00 	lea    0x2c58(%rip),%rsi        # 16811 <g_1320+0x709>
   13bb9:	48 89 c7             	mov    %rax,%rdi
   13bbc:	e8 32 6b ff ff       	callq  a6f3 <transparent_crc>
   13bc1:	8b 45 f0             	mov    -0x10(%rbp),%eax
   13bc4:	48 63 d0             	movslq %eax,%rdx
   13bc7:	48 89 d0             	mov    %rdx,%rax
   13bca:	48 c1 e0 02          	shl    $0x2,%rax
   13bce:	48 01 d0             	add    %rdx,%rax
   13bd1:	48 01 c0             	add    %rax,%rax
   13bd4:	48 01 d0             	add    %rdx,%rax
   13bd7:	48 01 c0             	add    %rax,%rax
   13bda:	48 89 c2             	mov    %rax,%rdx
   13bdd:	48 8d 05 fc 66 00 00 	lea    0x66fc(%rip),%rax        # 1a2e0 <g_206>
   13be4:	8b 44 02 06          	mov    0x6(%rdx,%rax,1),%eax
   13be8:	89 c1                	mov    %eax,%ecx
   13bea:	8b 45 fc             	mov    -0x4(%rbp),%eax
   13bed:	89 c2                	mov    %eax,%edx
   13bef:	48 8d 35 27 2c 00 00 	lea    0x2c27(%rip),%rsi        # 1681d <g_1320+0x715>
   13bf6:	48 89 cf             	mov    %rcx,%rdi
   13bf9:	e8 f5 6a ff ff       	callq  a6f3 <transparent_crc>
   13bfe:	8b 45 f0             	mov    -0x10(%rbp),%eax
   13c01:	48 63 d0             	movslq %eax,%rdx
   13c04:	48 89 d0             	mov    %rdx,%rax
   13c07:	48 c1 e0 02          	shl    $0x2,%rax
   13c0b:	48 01 d0             	add    %rdx,%rax
   13c0e:	48 01 c0             	add    %rax,%rax
   13c11:	48 01 d0             	add    %rdx,%rax
   13c14:	48 01 c0             	add    %rax,%rax
   13c17:	48 89 c2             	mov    %rax,%rdx
   13c1a:	48 8d 05 bf 66 00 00 	lea    0x66bf(%rip),%rax        # 1a2e0 <g_206>
   13c21:	48 8b 44 02 0a       	mov    0xa(%rdx,%rax,1),%rax
   13c26:	48 89 c1             	mov    %rax,%rcx
   13c29:	8b 45 fc             	mov    -0x4(%rbp),%eax
   13c2c:	89 c2                	mov    %eax,%edx
   13c2e:	48 8d 35 f4 2b 00 00 	lea    0x2bf4(%rip),%rsi        # 16829 <g_1320+0x721>
   13c35:	48 89 cf             	mov    %rcx,%rdi
   13c38:	e8 b6 6a ff ff       	callq  a6f3 <transparent_crc>
   13c3d:	8b 45 f0             	mov    -0x10(%rbp),%eax
   13c40:	48 63 d0             	movslq %eax,%rdx
   13c43:	48 89 d0             	mov    %rdx,%rax
   13c46:	48 c1 e0 02          	shl    $0x2,%rax
   13c4a:	48 01 d0             	add    %rdx,%rax
   13c4d:	48 01 c0             	add    %rax,%rax
   13c50:	48 01 d0             	add    %rdx,%rax
   13c53:	48 01 c0             	add    %rax,%rax
   13c56:	48 89 c2             	mov    %rax,%rdx
   13c59:	48 8d 05 90 66 00 00 	lea    0x6690(%rip),%rax        # 1a2f0 <g_206+0x10>
   13c60:	8b 44 02 02          	mov    0x2(%rdx,%rax,1),%eax
   13c64:	89 c1                	mov    %eax,%ecx
   13c66:	8b 45 fc             	mov    -0x4(%rbp),%eax
   13c69:	89 c2                	mov    %eax,%edx
   13c6b:	48 8d 35 c3 2b 00 00 	lea    0x2bc3(%rip),%rsi        # 16835 <g_1320+0x72d>
   13c72:	48 89 cf             	mov    %rcx,%rdi
   13c75:	e8 79 6a ff ff       	callq  a6f3 <transparent_crc>
   13c7a:	83 7d fc 00          	cmpl   $0x0,-0x4(%rbp)
   13c7e:	74 16                	je     13c96 <main+0x560>
   13c80:	8b 45 f0             	mov    -0x10(%rbp),%eax
   13c83:	89 c6                	mov    %eax,%esi
   13c85:	48 8d 3d b5 2b 00 00 	lea    0x2bb5(%rip),%rdi        # 16841 <g_1320+0x739>
   13c8c:	b8 00 00 00 00       	mov    $0x0,%eax
   13c91:	e8 ea 53 ff ff       	callq  9080 <printf@plt>
   13c96:	83 45 f0 01          	addl   $0x1,-0x10(%rbp)
   13c9a:	83 7d f0 09          	cmpl   $0x9,-0x10(%rbp)
   13c9e:	0f 8e a0 fe ff ff    	jle    13b44 <main+0x40e>
   13ca4:	0f b7 05 11 67 00 00 	movzwl 0x6711(%rip),%eax        # 1a3bc <g_256>
   13cab:	0f b7 c0             	movzwl %ax,%eax
   13cae:	8b 55 fc             	mov    -0x4(%rbp),%edx
   13cb1:	48 8d 35 97 2b 00 00 	lea    0x2b97(%rip),%rsi        # 1684f <g_1320+0x747>
   13cb8:	48 89 c7             	mov    %rax,%rdi
   13cbb:	e8 33 6a ff ff       	callq  a6f3 <transparent_crc>
   13cc0:	c7 45 f0 00 00 00 00 	movl   $0x0,-0x10(%rbp)
   13cc7:	e9 9f 00 00 00       	jmpq   13d6b <main+0x635>
   13ccc:	c7 45 f4 00 00 00 00 	movl   $0x0,-0xc(%rbp)
   13cd3:	e9 85 00 00 00       	jmpq   13d5d <main+0x627>
   13cd8:	c7 45 f8 00 00 00 00 	movl   $0x0,-0x8(%rbp)
   13cdf:	eb 72                	jmp    13d53 <main+0x61d>
   13ce1:	8b 45 f8             	mov    -0x8(%rbp),%eax
   13ce4:	48 63 c8             	movslq %eax,%rcx
   13ce7:	8b 45 f0             	mov    -0x10(%rbp),%eax
   13cea:	48 63 d0             	movslq %eax,%rdx
   13ced:	8b 45 f4             	mov    -0xc(%rbp),%eax
   13cf0:	48 63 f0             	movslq %eax,%rsi
   13cf3:	48 89 d0             	mov    %rdx,%rax
   13cf6:	48 01 c0             	add    %rax,%rax
   13cf9:	48 01 d0             	add    %rdx,%rax
   13cfc:	48 01 f0             	add    %rsi,%rax
   13cff:	48 01 c0             	add    %rax,%rax
   13d02:	48 01 c8             	add    %rcx,%rax
   13d05:	48 8d 14 85 00 00 00 	lea    0x0(,%rax,4),%rdx
   13d0c:	00 
   13d0d:	48 8d 05 ac 66 00 00 	lea    0x66ac(%rip),%rax        # 1a3c0 <g_279>
   13d14:	8b 04 02             	mov    (%rdx,%rax,1),%eax
   13d17:	89 c1                	mov    %eax,%ecx
   13d19:	8b 45 fc             	mov    -0x4(%rbp),%eax
   13d1c:	89 c2                	mov    %eax,%edx
   13d1e:	48 8d 35 30 2b 00 00 	lea    0x2b30(%rip),%rsi        # 16855 <g_1320+0x74d>
   13d25:	48 89 cf             	mov    %rcx,%rdi
   13d28:	e8 c6 69 ff ff       	callq  a6f3 <transparent_crc>
   13d2d:	83 7d fc 00          	cmpl   $0x0,-0x4(%rbp)
   13d31:	74 1c                	je     13d4f <main+0x619>
   13d33:	8b 4d f8             	mov    -0x8(%rbp),%ecx
   13d36:	8b 55 f4             	mov    -0xc(%rbp),%edx
   13d39:	8b 45 f0             	mov    -0x10(%rbp),%eax
   13d3c:	89 c6                	mov    %eax,%esi
   13d3e:	48 8d 3d 32 2a 00 00 	lea    0x2a32(%rip),%rdi        # 16777 <g_1320+0x66f>
   13d45:	b8 00 00 00 00       	mov    $0x0,%eax
   13d4a:	e8 31 53 ff ff       	callq  9080 <printf@plt>
   13d4f:	83 45 f8 01          	addl   $0x1,-0x8(%rbp)
   13d53:	83 7d f8 01          	cmpl   $0x1,-0x8(%rbp)
   13d57:	7e 88                	jle    13ce1 <main+0x5ab>
   13d59:	83 45 f4 01          	addl   $0x1,-0xc(%rbp)
   13d5d:	83 7d f4 02          	cmpl   $0x2,-0xc(%rbp)
   13d61:	0f 8e 71 ff ff ff    	jle    13cd8 <main+0x5a2>
   13d67:	83 45 f0 01          	addl   $0x1,-0x10(%rbp)
   13d6b:	83 7d f0 04          	cmpl   $0x4,-0x10(%rbp)
   13d6f:	0f 8e 57 ff ff ff    	jle    13ccc <main+0x596>
   13d75:	c7 45 f0 00 00 00 00 	movl   $0x0,-0x10(%rbp)
   13d7c:	eb 4d                	jmp    13dcb <main+0x695>
   13d7e:	8b 45 f0             	mov    -0x10(%rbp),%eax
   13d81:	48 98                	cltq   
   13d83:	48 8d 14 85 00 00 00 	lea    0x0(,%rax,4),%rdx
   13d8a:	00 
   13d8b:	48 8d 05 ae 66 00 00 	lea    0x66ae(%rip),%rax        # 1a440 <g_290>
   13d92:	8b 04 02             	mov    (%rdx,%rax,1),%eax
   13d95:	89 c1                	mov    %eax,%ecx
   13d97:	8b 45 fc             	mov    -0x4(%rbp),%eax
   13d9a:	89 c2                	mov    %eax,%edx
   13d9c:	48 8d 35 c1 2a 00 00 	lea    0x2ac1(%rip),%rsi        # 16864 <g_1320+0x75c>
   13da3:	48 89 cf             	mov    %rcx,%rdi
   13da6:	e8 48 69 ff ff       	callq  a6f3 <transparent_crc>
   13dab:	83 7d fc 00          	cmpl   $0x0,-0x4(%rbp)
   13daf:	74 16                	je     13dc7 <main+0x691>
   13db1:	8b 45 f0             	mov    -0x10(%rbp),%eax
   13db4:	89 c6                	mov    %eax,%esi
   13db6:	48 8d 3d 84 2a 00 00 	lea    0x2a84(%rip),%rdi        # 16841 <g_1320+0x739>
   13dbd:	b8 00 00 00 00       	mov    $0x0,%eax
   13dc2:	e8 b9 52 ff ff       	callq  9080 <printf@plt>
   13dc7:	83 45 f0 01          	addl   $0x1,-0x10(%rbp)
   13dcb:	83 7d f0 08          	cmpl   $0x8,-0x10(%rbp)
   13dcf:	7e ad                	jle    13d7e <main+0x648>
   13dd1:	0f b7 05 8c 66 00 00 	movzwl 0x668c(%rip),%eax        # 1a464 <g_337>
   13dd8:	0f b7 c0             	movzwl %ax,%eax
   13ddb:	8b 55 fc             	mov    -0x4(%rbp),%edx
   13dde:	48 8d 35 88 2a 00 00 	lea    0x2a88(%rip),%rsi        # 1686d <g_1320+0x765>
   13de5:	48 89 c7             	mov    %rax,%rdi
   13de8:	e8 06 69 ff ff       	callq  a6f3 <transparent_crc>
   13ded:	0f b7 05 72 66 00 00 	movzwl 0x6672(%rip),%eax        # 1a466 <g_375>
   13df4:	48 0f bf c0          	movswq %ax,%rax
   13df8:	8b 55 fc             	mov    -0x4(%rbp),%edx
   13dfb:	48 8d 35 71 2a 00 00 	lea    0x2a71(%rip),%rsi        # 16873 <g_1320+0x76b>
   13e02:	48 89 c7             	mov    %rax,%rdi
   13e05:	e8 e9 68 ff ff       	callq  a6f3 <transparent_crc>
   13e0a:	8b 05 60 66 00 00    	mov    0x6660(%rip),%eax        # 1a470 <g_380>
   13e10:	48 98                	cltq   
   13e12:	8b 55 fc             	mov    -0x4(%rbp),%edx
   13e15:	48 8d 35 5d 2a 00 00 	lea    0x2a5d(%rip),%rsi        # 16879 <g_1320+0x771>
   13e1c:	48 89 c7             	mov    %rax,%rdi
   13e1f:	e8 cf 68 ff ff       	callq  a6f3 <transparent_crc>
   13e24:	0f b7 05 49 66 00 00 	movzwl 0x6649(%rip),%eax        # 1a474 <g_380+0x4>
   13e2b:	01 c0                	add    %eax,%eax
   13e2d:	66 d1 f8             	sar    %ax
   13e30:	48 0f bf c0          	movswq %ax,%rax
   13e34:	8b 55 fc             	mov    -0x4(%rbp),%edx
   13e37:	48 8d 35 44 2a 00 00 	lea    0x2a44(%rip),%rsi        # 16882 <g_1320+0x77a>
   13e3e:	48 89 c7             	mov    %rax,%rdi
   13e41:	e8 ad 68 ff ff       	callq  a6f3 <transparent_crc>
   13e46:	8b 05 2a 66 00 00    	mov    0x662a(%rip),%eax        # 1a476 <g_380+0x6>
   13e4c:	89 c1                	mov    %eax,%ecx
   13e4e:	8b 45 fc             	mov    -0x4(%rbp),%eax
   13e51:	89 c2                	mov    %eax,%edx
   13e53:	48 8d 35 31 2a 00 00 	lea    0x2a31(%rip),%rsi        # 1688b <g_1320+0x783>
   13e5a:	48 89 cf             	mov    %rcx,%rdi
   13e5d:	e8 91 68 ff ff       	callq  a6f3 <transparent_crc>
   13e62:	48 8b 05 11 66 00 00 	mov    0x6611(%rip),%rax        # 1a47a <g_380+0xa>
   13e69:	48 89 c1             	mov    %rax,%rcx
   13e6c:	8b 45 fc             	mov    -0x4(%rbp),%eax
   13e6f:	89 c2                	mov    %eax,%edx
   13e71:	48 8d 35 1c 2a 00 00 	lea    0x2a1c(%rip),%rsi        # 16894 <g_1320+0x78c>
   13e78:	48 89 cf             	mov    %rcx,%rdi
   13e7b:	e8 73 68 ff ff       	callq  a6f3 <transparent_crc>
   13e80:	8b 05 fc 65 00 00    	mov    0x65fc(%rip),%eax        # 1a482 <g_380+0x12>
   13e86:	89 c1                	mov    %eax,%ecx
   13e88:	8b 45 fc             	mov    -0x4(%rbp),%eax
   13e8b:	89 c2                	mov    %eax,%edx
   13e8d:	48 8d 35 09 2a 00 00 	lea    0x2a09(%rip),%rsi        # 1689d <g_1320+0x795>
   13e94:	48 89 cf             	mov    %rcx,%rdi
   13e97:	e8 57 68 ff ff       	callq  a6f3 <transparent_crc>
   13e9c:	8b 05 e6 65 00 00    	mov    0x65e6(%rip),%eax        # 1a488 <g_448>
   13ea2:	48 98                	cltq   
   13ea4:	8b 55 fc             	mov    -0x4(%rbp),%edx
   13ea7:	48 8d 35 f8 29 00 00 	lea    0x29f8(%rip),%rsi        # 168a6 <g_1320+0x79e>
   13eae:	48 89 c7             	mov    %rax,%rdi
   13eb1:	e8 3d 68 ff ff       	callq  a6f3 <transparent_crc>
   13eb6:	48 8b 05 d3 65 00 00 	mov    0x65d3(%rip),%rax        # 1a490 <g_459>
   13ebd:	8b 55 fc             	mov    -0x4(%rbp),%edx
   13ec0:	48 8d 35 e5 29 00 00 	lea    0x29e5(%rip),%rsi        # 168ac <g_1320+0x7a4>
   13ec7:	48 89 c7             	mov    %rax,%rdi
   13eca:	e8 24 68 ff ff       	callq  a6f3 <transparent_crc>
   13ecf:	0f b6 05 c2 65 00 00 	movzbl 0x65c2(%rip),%eax        # 1a498 <g_551>
   13ed6:	48 0f be c0          	movsbq %al,%rax
   13eda:	8b 55 fc             	mov    -0x4(%rbp),%edx
   13edd:	48 8d 35 ce 29 00 00 	lea    0x29ce(%rip),%rsi        # 168b2 <g_1320+0x7aa>
   13ee4:	48 89 c7             	mov    %rax,%rdi
   13ee7:	e8 07 68 ff ff       	callq  a6f3 <transparent_crc>
   13eec:	8b 05 ae 65 00 00    	mov    0x65ae(%rip),%eax        # 1a4a0 <g_650>
   13ef2:	48 98                	cltq   
   13ef4:	8b 55 fc             	mov    -0x4(%rbp),%edx
   13ef7:	48 8d 35 ba 29 00 00 	lea    0x29ba(%rip),%rsi        # 168b8 <g_1320+0x7b0>
   13efe:	48 89 c7             	mov    %rax,%rdi
   13f01:	e8 ed 67 ff ff       	callq  a6f3 <transparent_crc>
   13f06:	0f b7 05 97 65 00 00 	movzwl 0x6597(%rip),%eax        # 1a4a4 <g_650+0x4>
   13f0d:	01 c0                	add    %eax,%eax
   13f0f:	66 d1 f8             	sar    %ax
   13f12:	48 0f bf c0          	movswq %ax,%rax
   13f16:	8b 55 fc             	mov    -0x4(%rbp),%edx
   13f19:	48 8d 35 a1 29 00 00 	lea    0x29a1(%rip),%rsi        # 168c1 <g_1320+0x7b9>
   13f20:	48 89 c7             	mov    %rax,%rdi
   13f23:	e8 cb 67 ff ff       	callq  a6f3 <transparent_crc>
   13f28:	8b 05 78 65 00 00    	mov    0x6578(%rip),%eax        # 1a4a6 <g_650+0x6>
   13f2e:	89 c1                	mov    %eax,%ecx
   13f30:	8b 45 fc             	mov    -0x4(%rbp),%eax
   13f33:	89 c2                	mov    %eax,%edx
   13f35:	48 8d 35 8e 29 00 00 	lea    0x298e(%rip),%rsi        # 168ca <g_1320+0x7c2>
   13f3c:	48 89 cf             	mov    %rcx,%rdi
   13f3f:	e8 af 67 ff ff       	callq  a6f3 <transparent_crc>
   13f44:	48 8b 05 5f 65 00 00 	mov    0x655f(%rip),%rax        # 1a4aa <g_650+0xa>
   13f4b:	48 89 c1             	mov    %rax,%rcx
   13f4e:	8b 45 fc             	mov    -0x4(%rbp),%eax
   13f51:	89 c2                	mov    %eax,%edx
   13f53:	48 8d 35 79 29 00 00 	lea    0x2979(%rip),%rsi        # 168d3 <g_1320+0x7cb>
   13f5a:	48 89 cf             	mov    %rcx,%rdi
   13f5d:	e8 91 67 ff ff       	callq  a6f3 <transparent_crc>
   13f62:	8b 05 4a 65 00 00    	mov    0x654a(%rip),%eax        # 1a4b2 <g_650+0x12>
   13f68:	89 c1                	mov    %eax,%ecx
   13f6a:	8b 45 fc             	mov    -0x4(%rbp),%eax
   13f6d:	89 c2                	mov    %eax,%edx
   13f6f:	48 8d 35 66 29 00 00 	lea    0x2966(%rip),%rsi        # 168dc <g_1320+0x7d4>
   13f76:	48 89 cf             	mov    %rcx,%rdi
   13f79:	e8 75 67 ff ff       	callq  a6f3 <transparent_crc>
   13f7e:	8b 05 3c 65 00 00    	mov    0x653c(%rip),%eax        # 1a4c0 <g_653>
   13f84:	48 98                	cltq   
   13f86:	8b 55 fc             	mov    -0x4(%rbp),%edx
   13f89:	48 8d 35 55 29 00 00 	lea    0x2955(%rip),%rsi        # 168e5 <g_1320+0x7dd>
   13f90:	48 89 c7             	mov    %rax,%rdi
   13f93:	e8 5b 67 ff ff       	callq  a6f3 <transparent_crc>
   13f98:	0f b7 05 25 65 00 00 	movzwl 0x6525(%rip),%eax        # 1a4c4 <g_653+0x4>
   13f9f:	01 c0                	add    %eax,%eax
   13fa1:	66 d1 f8             	sar    %ax
   13fa4:	48 0f bf c0          	movswq %ax,%rax
   13fa8:	8b 55 fc             	mov    -0x4(%rbp),%edx
   13fab:	48 8d 35 3c 29 00 00 	lea    0x293c(%rip),%rsi        # 168ee <g_1320+0x7e6>
   13fb2:	48 89 c7             	mov    %rax,%rdi
   13fb5:	e8 39 67 ff ff       	callq  a6f3 <transparent_crc>
   13fba:	8b 05 06 65 00 00    	mov    0x6506(%rip),%eax        # 1a4c6 <g_653+0x6>
   13fc0:	89 c1                	mov    %eax,%ecx
   13fc2:	8b 45 fc             	mov    -0x4(%rbp),%eax
   13fc5:	89 c2                	mov    %eax,%edx
   13fc7:	48 8d 35 29 29 00 00 	lea    0x2929(%rip),%rsi        # 168f7 <g_1320+0x7ef>
   13fce:	48 89 cf             	mov    %rcx,%rdi
   13fd1:	e8 1d 67 ff ff       	callq  a6f3 <transparent_crc>
   13fd6:	48 8b 05 ed 64 00 00 	mov    0x64ed(%rip),%rax        # 1a4ca <g_653+0xa>
   13fdd:	48 89 c1             	mov    %rax,%rcx
   13fe0:	8b 45 fc             	mov    -0x4(%rbp),%eax
   13fe3:	89 c2                	mov    %eax,%edx
   13fe5:	48 8d 35 14 29 00 00 	lea    0x2914(%rip),%rsi        # 16900 <g_1320+0x7f8>
   13fec:	48 89 cf             	mov    %rcx,%rdi
   13fef:	e8 ff 66 ff ff       	callq  a6f3 <transparent_crc>
   13ff4:	8b 05 d8 64 00 00    	mov    0x64d8(%rip),%eax        # 1a4d2 <g_653+0x12>
   13ffa:	89 c1                	mov    %eax,%ecx
   13ffc:	8b 45 fc             	mov    -0x4(%rbp),%eax
   13fff:	89 c2                	mov    %eax,%edx
   14001:	48 8d 35 01 29 00 00 	lea    0x2901(%rip),%rsi        # 16909 <g_1320+0x801>
   14008:	48 89 cf             	mov    %rcx,%rdi
   1400b:	e8 e3 66 ff ff       	callq  a6f3 <transparent_crc>
   14010:	8b 05 ca 64 00 00    	mov    0x64ca(%rip),%eax        # 1a4e0 <g_654>
   14016:	48 98                	cltq   
   14018:	8b 55 fc             	mov    -0x4(%rbp),%edx
   1401b:	48 8d 35 f0 28 00 00 	lea    0x28f0(%rip),%rsi        # 16912 <g_1320+0x80a>
   14022:	48 89 c7             	mov    %rax,%rdi
   14025:	e8 c9 66 ff ff       	callq  a6f3 <transparent_crc>
   1402a:	0f b7 05 b3 64 00 00 	movzwl 0x64b3(%rip),%eax        # 1a4e4 <g_654+0x4>
   14031:	01 c0                	add    %eax,%eax
   14033:	66 d1 f8             	sar    %ax
   14036:	48 0f bf c0          	movswq %ax,%rax
   1403a:	8b 55 fc             	mov    -0x4(%rbp),%edx
   1403d:	48 8d 35 d7 28 00 00 	lea    0x28d7(%rip),%rsi        # 1691b <g_1320+0x813>
   14044:	48 89 c7             	mov    %rax,%rdi
   14047:	e8 a7 66 ff ff       	callq  a6f3 <transparent_crc>
   1404c:	8b 05 94 64 00 00    	mov    0x6494(%rip),%eax        # 1a4e6 <g_654+0x6>
   14052:	89 c1                	mov    %eax,%ecx
   14054:	8b 45 fc             	mov    -0x4(%rbp),%eax
   14057:	89 c2                	mov    %eax,%edx
   14059:	48 8d 35 c4 28 00 00 	lea    0x28c4(%rip),%rsi        # 16924 <g_1320+0x81c>
   14060:	48 89 cf             	mov    %rcx,%rdi
   14063:	e8 8b 66 ff ff       	callq  a6f3 <transparent_crc>
   14068:	48 8b 05 7b 64 00 00 	mov    0x647b(%rip),%rax        # 1a4ea <g_654+0xa>
   1406f:	48 89 c1             	mov    %rax,%rcx
   14072:	8b 45 fc             	mov    -0x4(%rbp),%eax
   14075:	89 c2                	mov    %eax,%edx
   14077:	48 8d 35 af 28 00 00 	lea    0x28af(%rip),%rsi        # 1692d <g_1320+0x825>
   1407e:	48 89 cf             	mov    %rcx,%rdi
   14081:	e8 6d 66 ff ff       	callq  a6f3 <transparent_crc>
   14086:	8b 05 66 64 00 00    	mov    0x6466(%rip),%eax        # 1a4f2 <g_654+0x12>
   1408c:	89 c1                	mov    %eax,%ecx
   1408e:	8b 45 fc             	mov    -0x4(%rbp),%eax
   14091:	89 c2                	mov    %eax,%edx
   14093:	48 8d 35 9c 28 00 00 	lea    0x289c(%rip),%rsi        # 16936 <g_1320+0x82e>
   1409a:	48 89 cf             	mov    %rcx,%rdi
   1409d:	e8 51 66 ff ff       	callq  a6f3 <transparent_crc>
   140a2:	8b 05 58 64 00 00    	mov    0x6458(%rip),%eax        # 1a500 <g_655>
   140a8:	48 98                	cltq   
   140aa:	8b 55 fc             	mov    -0x4(%rbp),%edx
   140ad:	48 8d 35 8b 28 00 00 	lea    0x288b(%rip),%rsi        # 1693f <g_1320+0x837>
   140b4:	48 89 c7             	mov    %rax,%rdi
   140b7:	e8 37 66 ff ff       	callq  a6f3 <transparent_crc>
   140bc:	0f b7 05 41 64 00 00 	movzwl 0x6441(%rip),%eax        # 1a504 <g_655+0x4>
   140c3:	01 c0                	add    %eax,%eax
   140c5:	66 d1 f8             	sar    %ax
   140c8:	48 0f bf c0          	movswq %ax,%rax
   140cc:	8b 55 fc             	mov    -0x4(%rbp),%edx
   140cf:	48 8d 35 72 28 00 00 	lea    0x2872(%rip),%rsi        # 16948 <g_1320+0x840>
   140d6:	48 89 c7             	mov    %rax,%rdi
   140d9:	e8 15 66 ff ff       	callq  a6f3 <transparent_crc>
   140de:	8b 05 22 64 00 00    	mov    0x6422(%rip),%eax        # 1a506 <g_655+0x6>
   140e4:	89 c1                	mov    %eax,%ecx
   140e6:	8b 45 fc             	mov    -0x4(%rbp),%eax
   140e9:	89 c2                	mov    %eax,%edx
   140eb:	48 8d 35 5f 28 00 00 	lea    0x285f(%rip),%rsi        # 16951 <g_1320+0x849>
   140f2:	48 89 cf             	mov    %rcx,%rdi
   140f5:	e8 f9 65 ff ff       	callq  a6f3 <transparent_crc>
   140fa:	48 8b 05 09 64 00 00 	mov    0x6409(%rip),%rax        # 1a50a <g_655+0xa>
   14101:	48 89 c1             	mov    %rax,%rcx
   14104:	8b 45 fc             	mov    -0x4(%rbp),%eax
   14107:	89 c2                	mov    %eax,%edx
   14109:	48 8d 35 4a 28 00 00 	lea    0x284a(%rip),%rsi        # 1695a <g_1320+0x852>
   14110:	48 89 cf             	mov    %rcx,%rdi
   14113:	e8 db 65 ff ff       	callq  a6f3 <transparent_crc>
   14118:	8b 05 f4 63 00 00    	mov    0x63f4(%rip),%eax        # 1a512 <g_655+0x12>
   1411e:	89 c1                	mov    %eax,%ecx
   14120:	8b 45 fc             	mov    -0x4(%rbp),%eax
   14123:	89 c2                	mov    %eax,%edx
   14125:	48 8d 35 37 28 00 00 	lea    0x2837(%rip),%rsi        # 16963 <g_1320+0x85b>
   1412c:	48 89 cf             	mov    %rcx,%rdi
   1412f:	e8 bf 65 ff ff       	callq  a6f3 <transparent_crc>
   14134:	c7 45 f0 00 00 00 00 	movl   $0x0,-0x10(%rbp)
   1413b:	eb 69                	jmp    141a6 <main+0xa70>
   1413d:	c7 45 f4 00 00 00 00 	movl   $0x0,-0xc(%rbp)
   14144:	eb 56                	jmp    1419c <main+0xa66>
   14146:	8b 45 f4             	mov    -0xc(%rbp),%eax
   14149:	48 63 d0             	movslq %eax,%rdx
   1414c:	8b 45 f0             	mov    -0x10(%rbp),%eax
   1414f:	48 98                	cltq   
   14151:	48 01 d0             	add    %rdx,%rax
   14154:	48 8d 14 00          	lea    (%rax,%rax,1),%rdx
   14158:	48 8d 05 09 a7 00 00 	lea    0xa709(%rip),%rax        # 1e868 <g_719>
   1415f:	0f b7 04 02          	movzwl (%rdx,%rax,1),%eax
   14163:	48 0f bf c0          	movswq %ax,%rax
   14167:	8b 55 fc             	mov    -0x4(%rbp),%edx
   1416a:	48 8d 35 fb 27 00 00 	lea    0x27fb(%rip),%rsi        # 1696c <g_1320+0x864>
   14171:	48 89 c7             	mov    %rax,%rdi
   14174:	e8 7a 65 ff ff       	callq  a6f3 <transparent_crc>
   14179:	83 7d fc 00          	cmpl   $0x0,-0x4(%rbp)
   1417d:	74 19                	je     14198 <main+0xa62>
   1417f:	8b 55 f4             	mov    -0xc(%rbp),%edx
   14182:	8b 45 f0             	mov    -0x10(%rbp),%eax
   14185:	89 c6                	mov    %eax,%esi
   14187:	48 8d 3d 3e 26 00 00 	lea    0x263e(%rip),%rdi        # 167cc <g_1320+0x6c4>
   1418e:	b8 00 00 00 00       	mov    $0x0,%eax
   14193:	e8 e8 4e ff ff       	callq  9080 <printf@plt>
   14198:	83 45 f4 01          	addl   $0x1,-0xc(%rbp)
   1419c:	83 7d f4 00          	cmpl   $0x0,-0xc(%rbp)
   141a0:	7e a4                	jle    14146 <main+0xa10>
   141a2:	83 45 f0 01          	addl   $0x1,-0x10(%rbp)
   141a6:	83 7d f0 01          	cmpl   $0x1,-0x10(%rbp)
   141aa:	7e 91                	jle    1413d <main+0xa07>
   141ac:	48 8b 05 65 63 00 00 	mov    0x6365(%rip),%rax        # 1a518 <g_740>
   141b3:	8b 55 fc             	mov    -0x4(%rbp),%edx
   141b6:	48 8d 35 bb 27 00 00 	lea    0x27bb(%rip),%rsi        # 16978 <g_1320+0x870>
   141bd:	48 89 c7             	mov    %rax,%rdi
   141c0:	e8 2e 65 ff ff       	callq  a6f3 <transparent_crc>
   141c5:	8b 05 55 63 00 00    	mov    0x6355(%rip),%eax        # 1a520 <g_777>
   141cb:	48 98                	cltq   
   141cd:	8b 55 fc             	mov    -0x4(%rbp),%edx
   141d0:	48 8d 35 a7 27 00 00 	lea    0x27a7(%rip),%rsi        # 1697e <g_1320+0x876>
   141d7:	48 89 c7             	mov    %rax,%rdi
   141da:	e8 14 65 ff ff       	callq  a6f3 <transparent_crc>
   141df:	0f b7 05 3e 63 00 00 	movzwl 0x633e(%rip),%eax        # 1a524 <g_777+0x4>
   141e6:	01 c0                	add    %eax,%eax
   141e8:	66 d1 f8             	sar    %ax
   141eb:	48 0f bf c0          	movswq %ax,%rax
   141ef:	8b 55 fc             	mov    -0x4(%rbp),%edx
   141f2:	48 8d 35 8e 27 00 00 	lea    0x278e(%rip),%rsi        # 16987 <g_1320+0x87f>
   141f9:	48 89 c7             	mov    %rax,%rdi
   141fc:	e8 f2 64 ff ff       	callq  a6f3 <transparent_crc>
   14201:	8b 05 1f 63 00 00    	mov    0x631f(%rip),%eax        # 1a526 <g_777+0x6>
   14207:	89 c1                	mov    %eax,%ecx
   14209:	8b 45 fc             	mov    -0x4(%rbp),%eax
   1420c:	89 c2                	mov    %eax,%edx
   1420e:	48 8d 35 7b 27 00 00 	lea    0x277b(%rip),%rsi        # 16990 <g_1320+0x888>
   14215:	48 89 cf             	mov    %rcx,%rdi
   14218:	e8 d6 64 ff ff       	callq  a6f3 <transparent_crc>
   1421d:	48 8b 05 06 63 00 00 	mov    0x6306(%rip),%rax        # 1a52a <g_777+0xa>
   14224:	48 89 c1             	mov    %rax,%rcx
   14227:	8b 45 fc             	mov    -0x4(%rbp),%eax
   1422a:	89 c2                	mov    %eax,%edx
   1422c:	48 8d 35 66 27 00 00 	lea    0x2766(%rip),%rsi        # 16999 <g_1320+0x891>
   14233:	48 89 cf             	mov    %rcx,%rdi
   14236:	e8 b8 64 ff ff       	callq  a6f3 <transparent_crc>
   1423b:	8b 05 f1 62 00 00    	mov    0x62f1(%rip),%eax        # 1a532 <g_777+0x12>
   14241:	89 c1                	mov    %eax,%ecx
   14243:	8b 45 fc             	mov    -0x4(%rbp),%eax
   14246:	89 c2                	mov    %eax,%edx
   14248:	48 8d 35 53 27 00 00 	lea    0x2753(%rip),%rsi        # 169a2 <g_1320+0x89a>
   1424f:	48 89 cf             	mov    %rcx,%rdi
   14252:	e8 9c 64 ff ff       	callq  a6f3 <transparent_crc>
   14257:	8b 05 db 62 00 00    	mov    0x62db(%rip),%eax        # 1a538 <g_896>
   1425d:	48 98                	cltq   
   1425f:	8b 55 fc             	mov    -0x4(%rbp),%edx
   14262:	48 8d 35 42 27 00 00 	lea    0x2742(%rip),%rsi        # 169ab <g_1320+0x8a3>
   14269:	48 89 c7             	mov    %rax,%rdi
   1426c:	e8 82 64 ff ff       	callq  a6f3 <transparent_crc>
   14271:	8b 05 c5 62 00 00    	mov    0x62c5(%rip),%eax        # 1a53c <g_1029>
   14277:	89 c1                	mov    %eax,%ecx
   14279:	8b 45 fc             	mov    -0x4(%rbp),%eax
   1427c:	89 c2                	mov    %eax,%edx
   1427e:	48 8d 35 2c 27 00 00 	lea    0x272c(%rip),%rsi        # 169b1 <g_1320+0x8a9>
   14285:	48 89 cf             	mov    %rcx,%rdi
   14288:	e8 66 64 ff ff       	callq  a6f3 <transparent_crc>
   1428d:	8b 05 ad 62 00 00    	mov    0x62ad(%rip),%eax        # 1a540 <g_1088>
   14293:	48 98                	cltq   
   14295:	8b 55 fc             	mov    -0x4(%rbp),%edx
   14298:	48 8d 35 19 27 00 00 	lea    0x2719(%rip),%rsi        # 169b8 <g_1320+0x8b0>
   1429f:	48 89 c7             	mov    %rax,%rdi
   142a2:	e8 4c 64 ff ff       	callq  a6f3 <transparent_crc>
   142a7:	0f b7 05 96 62 00 00 	movzwl 0x6296(%rip),%eax        # 1a544 <g_1088+0x4>
   142ae:	01 c0                	add    %eax,%eax
   142b0:	66 d1 f8             	sar    %ax
   142b3:	48 0f bf c0          	movswq %ax,%rax
   142b7:	8b 55 fc             	mov    -0x4(%rbp),%edx
   142ba:	48 8d 35 01 27 00 00 	lea    0x2701(%rip),%rsi        # 169c2 <g_1320+0x8ba>
   142c1:	48 89 c7             	mov    %rax,%rdi
   142c4:	e8 2a 64 ff ff       	callq  a6f3 <transparent_crc>
   142c9:	8b 05 77 62 00 00    	mov    0x6277(%rip),%eax        # 1a546 <g_1088+0x6>
   142cf:	89 c1                	mov    %eax,%ecx
   142d1:	8b 45 fc             	mov    -0x4(%rbp),%eax
   142d4:	89 c2                	mov    %eax,%edx
   142d6:	48 8d 35 ef 26 00 00 	lea    0x26ef(%rip),%rsi        # 169cc <g_1320+0x8c4>
   142dd:	48 89 cf             	mov    %rcx,%rdi
   142e0:	e8 0e 64 ff ff       	callq  a6f3 <transparent_crc>
   142e5:	48 8b 05 5e 62 00 00 	mov    0x625e(%rip),%rax        # 1a54a <g_1088+0xa>
   142ec:	48 89 c1             	mov    %rax,%rcx
   142ef:	8b 45 fc             	mov    -0x4(%rbp),%eax
   142f2:	89 c2                	mov    %eax,%edx
   142f4:	48 8d 35 db 26 00 00 	lea    0x26db(%rip),%rsi        # 169d6 <g_1320+0x8ce>
   142fb:	48 89 cf             	mov    %rcx,%rdi
   142fe:	e8 f0 63 ff ff       	callq  a6f3 <transparent_crc>
   14303:	8b 05 49 62 00 00    	mov    0x6249(%rip),%eax        # 1a552 <g_1088+0x12>
   14309:	89 c1                	mov    %eax,%ecx
   1430b:	8b 45 fc             	mov    -0x4(%rbp),%eax
   1430e:	89 c2                	mov    %eax,%edx
   14310:	48 8d 35 c9 26 00 00 	lea    0x26c9(%rip),%rsi        # 169e0 <g_1320+0x8d8>
   14317:	48 89 cf             	mov    %rcx,%rdi
   1431a:	e8 d4 63 ff ff       	callq  a6f3 <transparent_crc>
   1431f:	8b 05 3b 62 00 00    	mov    0x623b(%rip),%eax        # 1a560 <g_1090>
   14325:	48 98                	cltq   
   14327:	8b 55 fc             	mov    -0x4(%rbp),%edx
   1432a:	48 8d 35 b9 26 00 00 	lea    0x26b9(%rip),%rsi        # 169ea <g_1320+0x8e2>
   14331:	48 89 c7             	mov    %rax,%rdi
   14334:	e8 ba 63 ff ff       	callq  a6f3 <transparent_crc>
   14339:	0f b7 05 24 62 00 00 	movzwl 0x6224(%rip),%eax        # 1a564 <g_1090+0x4>
   14340:	01 c0                	add    %eax,%eax
   14342:	66 d1 f8             	sar    %ax
   14345:	48 0f bf c0          	movswq %ax,%rax
   14349:	8b 55 fc             	mov    -0x4(%rbp),%edx
   1434c:	48 8d 35 a1 26 00 00 	lea    0x26a1(%rip),%rsi        # 169f4 <g_1320+0x8ec>
   14353:	48 89 c7             	mov    %rax,%rdi
   14356:	e8 98 63 ff ff       	callq  a6f3 <transparent_crc>
   1435b:	8b 05 05 62 00 00    	mov    0x6205(%rip),%eax        # 1a566 <g_1090+0x6>
   14361:	89 c1                	mov    %eax,%ecx
   14363:	8b 45 fc             	mov    -0x4(%rbp),%eax
   14366:	89 c2                	mov    %eax,%edx
   14368:	48 8d 35 8f 26 00 00 	lea    0x268f(%rip),%rsi        # 169fe <g_1320+0x8f6>
   1436f:	48 89 cf             	mov    %rcx,%rdi
   14372:	e8 7c 63 ff ff       	callq  a6f3 <transparent_crc>
   14377:	48 8b 05 ec 61 00 00 	mov    0x61ec(%rip),%rax        # 1a56a <g_1090+0xa>
   1437e:	48 89 c1             	mov    %rax,%rcx
   14381:	8b 45 fc             	mov    -0x4(%rbp),%eax
   14384:	89 c2                	mov    %eax,%edx
   14386:	48 8d 35 7b 26 00 00 	lea    0x267b(%rip),%rsi        # 16a08 <g_1320+0x900>
   1438d:	48 89 cf             	mov    %rcx,%rdi
   14390:	e8 5e 63 ff ff       	callq  a6f3 <transparent_crc>
   14395:	8b 05 d7 61 00 00    	mov    0x61d7(%rip),%eax        # 1a572 <g_1090+0x12>
   1439b:	89 c1                	mov    %eax,%ecx
   1439d:	8b 45 fc             	mov    -0x4(%rbp),%eax
   143a0:	89 c2                	mov    %eax,%edx
   143a2:	48 8d 35 69 26 00 00 	lea    0x2669(%rip),%rsi        # 16a12 <g_1320+0x90a>
   143a9:	48 89 cf             	mov    %rcx,%rdi
   143ac:	e8 42 63 ff ff       	callq  a6f3 <transparent_crc>
   143b1:	8b 05 c9 61 00 00    	mov    0x61c9(%rip),%eax        # 1a580 <g_1092>
   143b7:	48 98                	cltq   
   143b9:	8b 55 fc             	mov    -0x4(%rbp),%edx
   143bc:	48 8d 35 59 26 00 00 	lea    0x2659(%rip),%rsi        # 16a1c <g_1320+0x914>
   143c3:	48 89 c7             	mov    %rax,%rdi
   143c6:	e8 28 63 ff ff       	callq  a6f3 <transparent_crc>
   143cb:	0f b7 05 b2 61 00 00 	movzwl 0x61b2(%rip),%eax        # 1a584 <g_1092+0x4>
   143d2:	01 c0                	add    %eax,%eax
   143d4:	66 d1 f8             	sar    %ax
   143d7:	48 0f bf c0          	movswq %ax,%rax
   143db:	8b 55 fc             	mov    -0x4(%rbp),%edx
   143de:	48 8d 35 41 26 00 00 	lea    0x2641(%rip),%rsi        # 16a26 <g_1320+0x91e>
   143e5:	48 89 c7             	mov    %rax,%rdi
   143e8:	e8 06 63 ff ff       	callq  a6f3 <transparent_crc>
   143ed:	8b 05 93 61 00 00    	mov    0x6193(%rip),%eax        # 1a586 <g_1092+0x6>
   143f3:	89 c1                	mov    %eax,%ecx
   143f5:	8b 45 fc             	mov    -0x4(%rbp),%eax
   143f8:	89 c2                	mov    %eax,%edx
   143fa:	48 8d 35 2f 26 00 00 	lea    0x262f(%rip),%rsi        # 16a30 <g_1320+0x928>
   14401:	48 89 cf             	mov    %rcx,%rdi
   14404:	e8 ea 62 ff ff       	callq  a6f3 <transparent_crc>
   14409:	48 8b 05 7a 61 00 00 	mov    0x617a(%rip),%rax        # 1a58a <g_1092+0xa>
   14410:	48 89 c1             	mov    %rax,%rcx
   14413:	8b 45 fc             	mov    -0x4(%rbp),%eax
   14416:	89 c2                	mov    %eax,%edx
   14418:	48 8d 35 1b 26 00 00 	lea    0x261b(%rip),%rsi        # 16a3a <g_1320+0x932>
   1441f:	48 89 cf             	mov    %rcx,%rdi
   14422:	e8 cc 62 ff ff       	callq  a6f3 <transparent_crc>
   14427:	8b 05 65 61 00 00    	mov    0x6165(%rip),%eax        # 1a592 <g_1092+0x12>
   1442d:	89 c1                	mov    %eax,%ecx
   1442f:	8b 45 fc             	mov    -0x4(%rbp),%eax
   14432:	89 c2                	mov    %eax,%edx
   14434:	48 8d 35 09 26 00 00 	lea    0x2609(%rip),%rsi        # 16a44 <g_1320+0x93c>
   1443b:	48 89 cf             	mov    %rcx,%rdi
   1443e:	e8 b0 62 ff ff       	callq  a6f3 <transparent_crc>
   14443:	8b 05 4f 61 00 00    	mov    0x614f(%rip),%eax        # 1a598 <g_1124>
   14449:	89 c1                	mov    %eax,%ecx
   1444b:	8b 45 fc             	mov    -0x4(%rbp),%eax
   1444e:	89 c2                	mov    %eax,%edx
   14450:	48 8d 35 f7 25 00 00 	lea    0x25f7(%rip),%rsi        # 16a4e <g_1320+0x946>
   14457:	48 89 cf             	mov    %rcx,%rdi
   1445a:	e8 94 62 ff ff       	callq  a6f3 <transparent_crc>
   1445f:	8b 05 37 61 00 00    	mov    0x6137(%rip),%eax        # 1a59c <g_1136>
   14465:	48 98                	cltq   
   14467:	8b 55 fc             	mov    -0x4(%rbp),%edx
   1446a:	48 8d 35 e4 25 00 00 	lea    0x25e4(%rip),%rsi        # 16a55 <g_1320+0x94d>
   14471:	48 89 c7             	mov    %rax,%rdi
   14474:	e8 7a 62 ff ff       	callq  a6f3 <transparent_crc>
   14479:	0f b6 05 20 61 00 00 	movzbl 0x6120(%rip),%eax        # 1a5a0 <g_1162>
   14480:	48 0f be c0          	movsbq %al,%rax
   14484:	8b 55 fc             	mov    -0x4(%rbp),%edx
   14487:	48 8d 35 ce 25 00 00 	lea    0x25ce(%rip),%rsi        # 16a5c <g_1320+0x954>
   1448e:	48 89 c7             	mov    %rax,%rdi
   14491:	e8 5d 62 ff ff       	callq  a6f3 <transparent_crc>
   14496:	8b 05 08 61 00 00    	mov    0x6108(%rip),%eax        # 1a5a4 <g_1185>
   1449c:	48 98                	cltq   
   1449e:	8b 55 fc             	mov    -0x4(%rbp),%edx
   144a1:	48 8d 35 bb 25 00 00 	lea    0x25bb(%rip),%rsi        # 16a63 <g_1320+0x95b>
   144a8:	48 89 c7             	mov    %rax,%rdi
   144ab:	e8 43 62 ff ff       	callq  a6f3 <transparent_crc>
   144b0:	8b 05 fa 60 00 00    	mov    0x60fa(%rip),%eax        # 1a5b0 <g_1207>
   144b6:	48 98                	cltq   
   144b8:	8b 55 fc             	mov    -0x4(%rbp),%edx
   144bb:	48 8d 35 a8 25 00 00 	lea    0x25a8(%rip),%rsi        # 16a6a <g_1320+0x962>
   144c2:	48 89 c7             	mov    %rax,%rdi
   144c5:	e8 29 62 ff ff       	callq  a6f3 <transparent_crc>
   144ca:	0f b7 05 e3 60 00 00 	movzwl 0x60e3(%rip),%eax        # 1a5b4 <g_1207+0x4>
   144d1:	01 c0                	add    %eax,%eax
   144d3:	66 d1 f8             	sar    %ax
   144d6:	48 0f bf c0          	movswq %ax,%rax
   144da:	8b 55 fc             	mov    -0x4(%rbp),%edx
   144dd:	48 8d 35 90 25 00 00 	lea    0x2590(%rip),%rsi        # 16a74 <g_1320+0x96c>
   144e4:	48 89 c7             	mov    %rax,%rdi
   144e7:	e8 07 62 ff ff       	callq  a6f3 <transparent_crc>
   144ec:	8b 05 c4 60 00 00    	mov    0x60c4(%rip),%eax        # 1a5b6 <g_1207+0x6>
   144f2:	89 c1                	mov    %eax,%ecx
   144f4:	8b 45 fc             	mov    -0x4(%rbp),%eax
   144f7:	89 c2                	mov    %eax,%edx
   144f9:	48 8d 35 7e 25 00 00 	lea    0x257e(%rip),%rsi        # 16a7e <g_1320+0x976>
   14500:	48 89 cf             	mov    %rcx,%rdi
   14503:	e8 eb 61 ff ff       	callq  a6f3 <transparent_crc>
   14508:	48 8b 05 ab 60 00 00 	mov    0x60ab(%rip),%rax        # 1a5ba <g_1207+0xa>
   1450f:	48 89 c1             	mov    %rax,%rcx
   14512:	8b 45 fc             	mov    -0x4(%rbp),%eax
   14515:	89 c2                	mov    %eax,%edx
   14517:	48 8d 35 6a 25 00 00 	lea    0x256a(%rip),%rsi        # 16a88 <g_1320+0x980>
   1451e:	48 89 cf             	mov    %rcx,%rdi
   14521:	e8 cd 61 ff ff       	callq  a6f3 <transparent_crc>
   14526:	8b 05 96 60 00 00    	mov    0x6096(%rip),%eax        # 1a5c2 <g_1207+0x12>
   1452c:	89 c1                	mov    %eax,%ecx
   1452e:	8b 45 fc             	mov    -0x4(%rbp),%eax
   14531:	89 c2                	mov    %eax,%edx
   14533:	48 8d 35 58 25 00 00 	lea    0x2558(%rip),%rsi        # 16a92 <g_1320+0x98a>
   1453a:	48 89 cf             	mov    %rcx,%rdi
   1453d:	e8 b1 61 ff ff       	callq  a6f3 <transparent_crc>
   14542:	8b 05 88 60 00 00    	mov    0x6088(%rip),%eax        # 1a5d0 <g_1210>
   14548:	48 98                	cltq   
   1454a:	8b 55 fc             	mov    -0x4(%rbp),%edx
   1454d:	48 8d 35 48 25 00 00 	lea    0x2548(%rip),%rsi        # 16a9c <g_1320+0x994>
   14554:	48 89 c7             	mov    %rax,%rdi
   14557:	e8 97 61 ff ff       	callq  a6f3 <transparent_crc>
   1455c:	0f b7 05 71 60 00 00 	movzwl 0x6071(%rip),%eax        # 1a5d4 <g_1210+0x4>
   14563:	01 c0                	add    %eax,%eax
   14565:	66 d1 f8             	sar    %ax
   14568:	48 0f bf c0          	movswq %ax,%rax
   1456c:	8b 55 fc             	mov    -0x4(%rbp),%edx
   1456f:	48 8d 35 30 25 00 00 	lea    0x2530(%rip),%rsi        # 16aa6 <g_1320+0x99e>
   14576:	48 89 c7             	mov    %rax,%rdi
   14579:	e8 75 61 ff ff       	callq  a6f3 <transparent_crc>
   1457e:	8b 05 52 60 00 00    	mov    0x6052(%rip),%eax        # 1a5d6 <g_1210+0x6>
   14584:	89 c1                	mov    %eax,%ecx
   14586:	8b 45 fc             	mov    -0x4(%rbp),%eax
   14589:	89 c2                	mov    %eax,%edx
   1458b:	48 8d 35 1e 25 00 00 	lea    0x251e(%rip),%rsi        # 16ab0 <g_1320+0x9a8>
   14592:	48 89 cf             	mov    %rcx,%rdi
   14595:	e8 59 61 ff ff       	callq  a6f3 <transparent_crc>
   1459a:	48 8b 05 39 60 00 00 	mov    0x6039(%rip),%rax        # 1a5da <g_1210+0xa>
   145a1:	48 89 c1             	mov    %rax,%rcx
   145a4:	8b 45 fc             	mov    -0x4(%rbp),%eax
   145a7:	89 c2                	mov    %eax,%edx
   145a9:	48 8d 35 0a 25 00 00 	lea    0x250a(%rip),%rsi        # 16aba <g_1320+0x9b2>
   145b0:	48 89 cf             	mov    %rcx,%rdi
   145b3:	e8 3b 61 ff ff       	callq  a6f3 <transparent_crc>
   145b8:	8b 05 24 60 00 00    	mov    0x6024(%rip),%eax        # 1a5e2 <g_1210+0x12>
   145be:	89 c1                	mov    %eax,%ecx
   145c0:	8b 45 fc             	mov    -0x4(%rbp),%eax
   145c3:	89 c2                	mov    %eax,%edx
   145c5:	48 8d 35 f8 24 00 00 	lea    0x24f8(%rip),%rsi        # 16ac4 <g_1320+0x9bc>
   145cc:	48 89 cf             	mov    %rcx,%rdi
   145cf:	e8 1f 61 ff ff       	callq  a6f3 <transparent_crc>
   145d4:	8b 05 16 60 00 00    	mov    0x6016(%rip),%eax        # 1a5f0 <g_1273>
   145da:	48 98                	cltq   
   145dc:	8b 55 fc             	mov    -0x4(%rbp),%edx
   145df:	48 8d 35 e8 24 00 00 	lea    0x24e8(%rip),%rsi        # 16ace <g_1320+0x9c6>
   145e6:	48 89 c7             	mov    %rax,%rdi
   145e9:	e8 05 61 ff ff       	callq  a6f3 <transparent_crc>
   145ee:	0f b7 05 ff 5f 00 00 	movzwl 0x5fff(%rip),%eax        # 1a5f4 <g_1273+0x4>
   145f5:	01 c0                	add    %eax,%eax
   145f7:	66 d1 f8             	sar    %ax
   145fa:	48 0f bf c0          	movswq %ax,%rax
   145fe:	8b 55 fc             	mov    -0x4(%rbp),%edx
   14601:	48 8d 35 d0 24 00 00 	lea    0x24d0(%rip),%rsi        # 16ad8 <g_1320+0x9d0>
   14608:	48 89 c7             	mov    %rax,%rdi
   1460b:	e8 e3 60 ff ff       	callq  a6f3 <transparent_crc>
   14610:	8b 05 e0 5f 00 00    	mov    0x5fe0(%rip),%eax        # 1a5f6 <g_1273+0x6>
   14616:	89 c1                	mov    %eax,%ecx
   14618:	8b 45 fc             	mov    -0x4(%rbp),%eax
   1461b:	89 c2                	mov    %eax,%edx
   1461d:	48 8d 35 be 24 00 00 	lea    0x24be(%rip),%rsi        # 16ae2 <g_1320+0x9da>
   14624:	48 89 cf             	mov    %rcx,%rdi
   14627:	e8 c7 60 ff ff       	callq  a6f3 <transparent_crc>
   1462c:	48 8b 05 c7 5f 00 00 	mov    0x5fc7(%rip),%rax        # 1a5fa <g_1273+0xa>
   14633:	48 89 c1             	mov    %rax,%rcx
   14636:	8b 45 fc             	mov    -0x4(%rbp),%eax
   14639:	89 c2                	mov    %eax,%edx
   1463b:	48 8d 35 aa 24 00 00 	lea    0x24aa(%rip),%rsi        # 16aec <g_1320+0x9e4>
   14642:	48 89 cf             	mov    %rcx,%rdi
   14645:	e8 a9 60 ff ff       	callq  a6f3 <transparent_crc>
   1464a:	8b 05 b2 5f 00 00    	mov    0x5fb2(%rip),%eax        # 1a602 <g_1273+0x12>
   14650:	89 c1                	mov    %eax,%ecx
   14652:	8b 45 fc             	mov    -0x4(%rbp),%eax
   14655:	89 c2                	mov    %eax,%edx
   14657:	48 8d 35 98 24 00 00 	lea    0x2498(%rip),%rsi        # 16af6 <g_1320+0x9ee>
   1465e:	48 89 cf             	mov    %rcx,%rdi
   14661:	e8 8d 60 ff ff       	callq  a6f3 <transparent_crc>
   14666:	c7 45 f0 00 00 00 00 	movl   $0x0,-0x10(%rbp)
   1466d:	e9 56 01 00 00       	jmpq   147c8 <main+0x1092>
   14672:	8b 45 f0             	mov    -0x10(%rbp),%eax
   14675:	48 63 d0             	movslq %eax,%rdx
   14678:	48 89 d0             	mov    %rdx,%rax
   1467b:	48 c1 e0 02          	shl    $0x2,%rax
   1467f:	48 01 d0             	add    %rdx,%rax
   14682:	48 01 c0             	add    %rax,%rax
   14685:	48 01 d0             	add    %rdx,%rax
   14688:	48 01 c0             	add    %rax,%rax
   1468b:	48 89 c2             	mov    %rax,%rdx
   1468e:	48 8d 05 eb 19 00 00 	lea    0x19eb(%rip),%rax        # 16080 <g_1276>
   14695:	8b 04 02             	mov    (%rdx,%rax,1),%eax
   14698:	48 98                	cltq   
   1469a:	8b 55 fc             	mov    -0x4(%rbp),%edx
   1469d:	48 8d 35 5c 24 00 00 	lea    0x245c(%rip),%rsi        # 16b00 <g_1320+0x9f8>
   146a4:	48 89 c7             	mov    %rax,%rdi
   146a7:	e8 47 60 ff ff       	callq  a6f3 <transparent_crc>
   146ac:	8b 45 f0             	mov    -0x10(%rbp),%eax
   146af:	48 63 d0             	movslq %eax,%rdx
   146b2:	48 89 d0             	mov    %rdx,%rax
   146b5:	48 c1 e0 02          	shl    $0x2,%rax
   146b9:	48 01 d0             	add    %rdx,%rax
   146bc:	48 01 c0             	add    %rax,%rax
   146bf:	48 01 d0             	add    %rdx,%rax
   146c2:	48 01 c0             	add    %rax,%rax
   146c5:	48 89 c2             	mov    %rax,%rdx
   146c8:	48 8d 05 b1 19 00 00 	lea    0x19b1(%rip),%rax        # 16080 <g_1276>
   146cf:	0f b7 44 02 04       	movzwl 0x4(%rdx,%rax,1),%eax
   146d4:	01 c0                	add    %eax,%eax
   146d6:	66 d1 f8             	sar    %ax
   146d9:	48 0f bf c0          	movswq %ax,%rax
   146dd:	8b 55 fc             	mov    -0x4(%rbp),%edx
   146e0:	48 8d 35 26 24 00 00 	lea    0x2426(%rip),%rsi        # 16b0d <g_1320+0xa05>
   146e7:	48 89 c7             	mov    %rax,%rdi
   146ea:	e8 04 60 ff ff       	callq  a6f3 <transparent_crc>
   146ef:	8b 45 f0             	mov    -0x10(%rbp),%eax
   146f2:	48 63 d0             	movslq %eax,%rdx
   146f5:	48 89 d0             	mov    %rdx,%rax
   146f8:	48 c1 e0 02          	shl    $0x2,%rax
   146fc:	48 01 d0             	add    %rdx,%rax
   146ff:	48 01 c0             	add    %rax,%rax
   14702:	48 01 d0             	add    %rdx,%rax
   14705:	48 01 c0             	add    %rax,%rax
   14708:	48 89 c2             	mov    %rax,%rdx
   1470b:	48 8d 05 6e 19 00 00 	lea    0x196e(%rip),%rax        # 16080 <g_1276>
   14712:	8b 44 02 06          	mov    0x6(%rdx,%rax,1),%eax
   14716:	89 c1                	mov    %eax,%ecx
   14718:	8b 45 fc             	mov    -0x4(%rbp),%eax
   1471b:	89 c2                	mov    %eax,%edx
   1471d:	48 8d 35 f6 23 00 00 	lea    0x23f6(%rip),%rsi        # 16b1a <g_1320+0xa12>
   14724:	48 89 cf             	mov    %rcx,%rdi
   14727:	e8 c7 5f ff ff       	callq  a6f3 <transparent_crc>
   1472c:	8b 45 f0             	mov    -0x10(%rbp),%eax
   1472f:	48 63 d0             	movslq %eax,%rdx
   14732:	48 89 d0             	mov    %rdx,%rax
   14735:	48 c1 e0 02          	shl    $0x2,%rax
   14739:	48 01 d0             	add    %rdx,%rax
   1473c:	48 01 c0             	add    %rax,%rax
   1473f:	48 01 d0             	add    %rdx,%rax
   14742:	48 01 c0             	add    %rax,%rax
   14745:	48 89 c2             	mov    %rax,%rdx
   14748:	48 8d 05 31 19 00 00 	lea    0x1931(%rip),%rax        # 16080 <g_1276>
   1474f:	48 8b 44 02 0a       	mov    0xa(%rdx,%rax,1),%rax
   14754:	48 89 c1             	mov    %rax,%rcx
   14757:	8b 45 fc             	mov    -0x4(%rbp),%eax
   1475a:	89 c2                	mov    %eax,%edx
   1475c:	48 8d 35 c4 23 00 00 	lea    0x23c4(%rip),%rsi        # 16b27 <g_1320+0xa1f>
   14763:	48 89 cf             	mov    %rcx,%rdi
   14766:	e8 88 5f ff ff       	callq  a6f3 <transparent_crc>
   1476b:	8b 45 f0             	mov    -0x10(%rbp),%eax
   1476e:	48 63 d0             	movslq %eax,%rdx
   14771:	48 89 d0             	mov    %rdx,%rax
   14774:	48 c1 e0 02          	shl    $0x2,%rax
   14778:	48 01 d0             	add    %rdx,%rax
   1477b:	48 01 c0             	add    %rax,%rax
   1477e:	48 01 d0             	add    %rdx,%rax
   14781:	48 01 c0             	add    %rax,%rax
   14784:	48 89 c2             	mov    %rax,%rdx
   14787:	48 8d 05 02 19 00 00 	lea    0x1902(%rip),%rax        # 16090 <g_1276+0x10>
   1478e:	8b 44 02 02          	mov    0x2(%rdx,%rax,1),%eax
   14792:	89 c1                	mov    %eax,%ecx
   14794:	8b 45 fc             	mov    -0x4(%rbp),%eax
   14797:	89 c2                	mov    %eax,%edx
   14799:	48 8d 35 94 23 00 00 	lea    0x2394(%rip),%rsi        # 16b34 <g_1320+0xa2c>
   147a0:	48 89 cf             	mov    %rcx,%rdi
   147a3:	e8 4b 5f ff ff       	callq  a6f3 <transparent_crc>
   147a8:	83 7d fc 00          	cmpl   $0x0,-0x4(%rbp)
   147ac:	74 16                	je     147c4 <main+0x108e>
   147ae:	8b 45 f0             	mov    -0x10(%rbp),%eax
   147b1:	89 c6                	mov    %eax,%esi
   147b3:	48 8d 3d 87 20 00 00 	lea    0x2087(%rip),%rdi        # 16841 <g_1320+0x739>
   147ba:	b8 00 00 00 00       	mov    $0x0,%eax
   147bf:	e8 bc 48 ff ff       	callq  9080 <printf@plt>
   147c4:	83 45 f0 01          	addl   $0x1,-0x10(%rbp)
   147c8:	83 7d f0 05          	cmpl   $0x5,-0x10(%rbp)
   147cc:	0f 8e a0 fe ff ff    	jle    14672 <main+0xf3c>
   147d2:	8b 05 38 5e 00 00    	mov    0x5e38(%rip),%eax        # 1a610 <g_1278>
   147d8:	48 98                	cltq   
   147da:	8b 55 fc             	mov    -0x4(%rbp),%edx
   147dd:	48 8d 35 5d 23 00 00 	lea    0x235d(%rip),%rsi        # 16b41 <g_1320+0xa39>
   147e4:	48 89 c7             	mov    %rax,%rdi
   147e7:	e8 07 5f ff ff       	callq  a6f3 <transparent_crc>
   147ec:	0f b7 05 21 5e 00 00 	movzwl 0x5e21(%rip),%eax        # 1a614 <g_1278+0x4>
   147f3:	01 c0                	add    %eax,%eax
   147f5:	66 d1 f8             	sar    %ax
   147f8:	48 0f bf c0          	movswq %ax,%rax
   147fc:	8b 55 fc             	mov    -0x4(%rbp),%edx
   147ff:	48 8d 35 45 23 00 00 	lea    0x2345(%rip),%rsi        # 16b4b <g_1320+0xa43>
   14806:	48 89 c7             	mov    %rax,%rdi
   14809:	e8 e5 5e ff ff       	callq  a6f3 <transparent_crc>
   1480e:	8b 05 02 5e 00 00    	mov    0x5e02(%rip),%eax        # 1a616 <g_1278+0x6>
   14814:	89 c1                	mov    %eax,%ecx
   14816:	8b 45 fc             	mov    -0x4(%rbp),%eax
   14819:	89 c2                	mov    %eax,%edx
   1481b:	48 8d 35 33 23 00 00 	lea    0x2333(%rip),%rsi        # 16b55 <g_1320+0xa4d>
   14822:	48 89 cf             	mov    %rcx,%rdi
   14825:	e8 c9 5e ff ff       	callq  a6f3 <transparent_crc>
   1482a:	48 8b 05 e9 5d 00 00 	mov    0x5de9(%rip),%rax        # 1a61a <g_1278+0xa>
   14831:	48 89 c1             	mov    %rax,%rcx
   14834:	8b 45 fc             	mov    -0x4(%rbp),%eax
   14837:	89 c2                	mov    %eax,%edx
   14839:	48 8d 35 1f 23 00 00 	lea    0x231f(%rip),%rsi        # 16b5f <g_1320+0xa57>
   14840:	48 89 cf             	mov    %rcx,%rdi
   14843:	e8 ab 5e ff ff       	callq  a6f3 <transparent_crc>
   14848:	8b 05 d4 5d 00 00    	mov    0x5dd4(%rip),%eax        # 1a622 <g_1278+0x12>
   1484e:	89 c1                	mov    %eax,%ecx
   14850:	8b 45 fc             	mov    -0x4(%rbp),%eax
   14853:	89 c2                	mov    %eax,%edx
   14855:	48 8d 35 0d 23 00 00 	lea    0x230d(%rip),%rsi        # 16b69 <g_1320+0xa61>
   1485c:	48 89 cf             	mov    %rcx,%rdi
   1485f:	e8 8f 5e ff ff       	callq  a6f3 <transparent_crc>
   14864:	b8 ff ff ff ff       	mov    $0xffffffff,%eax
   14869:	48 98                	cltq   
   1486b:	8b 55 fc             	mov    -0x4(%rbp),%edx
   1486e:	48 8d 35 fe 22 00 00 	lea    0x22fe(%rip),%rsi        # 16b73 <g_1320+0xa6b>
   14875:	48 89 c7             	mov    %rax,%rdi
   14878:	e8 76 5e ff ff       	callq  a6f3 <transparent_crc>
   1487d:	b9 00 00 00 00       	mov    $0x0,%ecx
   14882:	8b 45 fc             	mov    -0x4(%rbp),%eax
   14885:	89 c2                	mov    %eax,%edx
   14887:	48 8d 35 ec 22 00 00 	lea    0x22ec(%rip),%rsi        # 16b7a <g_1320+0xa72>
   1488e:	48 89 cf             	mov    %rcx,%rdi
   14891:	e8 5d 5e ff ff       	callq  a6f3 <transparent_crc>
   14896:	0f b7 05 89 5d 00 00 	movzwl 0x5d89(%rip),%eax        # 1a626 <g_1385>
   1489d:	48 0f bf c0          	movswq %ax,%rax
   148a1:	8b 55 fc             	mov    -0x4(%rbp),%edx
   148a4:	48 8d 35 d6 22 00 00 	lea    0x22d6(%rip),%rsi        # 16b81 <g_1320+0xa79>
   148ab:	48 89 c7             	mov    %rax,%rdi
   148ae:	e8 40 5e ff ff       	callq  a6f3 <transparent_crc>
   148b3:	48 8b 05 6e 5d 00 00 	mov    0x5d6e(%rip),%rax        # 1a628 <g_1415>
   148ba:	8b 55 fc             	mov    -0x4(%rbp),%edx
   148bd:	48 8d 35 c4 22 00 00 	lea    0x22c4(%rip),%rsi        # 16b88 <g_1320+0xa80>
   148c4:	48 89 c7             	mov    %rax,%rdi
   148c7:	e8 27 5e ff ff       	callq  a6f3 <transparent_crc>
   148cc:	8b 05 5e 5d 00 00    	mov    0x5d5e(%rip),%eax        # 1a630 <g_1443>
   148d2:	48 98                	cltq   
   148d4:	8b 55 fc             	mov    -0x4(%rbp),%edx
   148d7:	48 8d 35 b1 22 00 00 	lea    0x22b1(%rip),%rsi        # 16b8f <g_1320+0xa87>
   148de:	48 89 c7             	mov    %rax,%rdi
   148e1:	e8 0d 5e ff ff       	callq  a6f3 <transparent_crc>
   148e6:	0f b6 05 c3 9f 00 00 	movzbl 0x9fc3(%rip),%eax        # 1e8b0 <g_1747>
   148ed:	0f b6 c0             	movzbl %al,%eax
   148f0:	8b 55 fc             	mov    -0x4(%rbp),%edx
   148f3:	48 8d 35 9c 22 00 00 	lea    0x229c(%rip),%rsi        # 16b96 <g_1320+0xa8e>
   148fa:	48 89 c7             	mov    %rax,%rdi
   148fd:	e8 f1 5d ff ff       	callq  a6f3 <transparent_crc>
   14902:	8b 05 38 5d 00 00    	mov    0x5d38(%rip),%eax        # 1a640 <g_1800>
   14908:	48 98                	cltq   
   1490a:	8b 55 fc             	mov    -0x4(%rbp),%edx
   1490d:	48 8d 35 89 22 00 00 	lea    0x2289(%rip),%rsi        # 16b9d <g_1320+0xa95>
   14914:	48 89 c7             	mov    %rax,%rdi
   14917:	e8 d7 5d ff ff       	callq  a6f3 <transparent_crc>
   1491c:	0f b7 05 21 5d 00 00 	movzwl 0x5d21(%rip),%eax        # 1a644 <g_1800+0x4>
   14923:	01 c0                	add    %eax,%eax
   14925:	66 d1 f8             	sar    %ax
   14928:	48 0f bf c0          	movswq %ax,%rax
   1492c:	8b 55 fc             	mov    -0x4(%rbp),%edx
   1492f:	48 8d 35 71 22 00 00 	lea    0x2271(%rip),%rsi        # 16ba7 <g_1320+0xa9f>
   14936:	48 89 c7             	mov    %rax,%rdi
   14939:	e8 b5 5d ff ff       	callq  a6f3 <transparent_crc>
   1493e:	8b 05 02 5d 00 00    	mov    0x5d02(%rip),%eax        # 1a646 <g_1800+0x6>
   14944:	89 c1                	mov    %eax,%ecx
   14946:	8b 45 fc             	mov    -0x4(%rbp),%eax
   14949:	89 c2                	mov    %eax,%edx
   1494b:	48 8d 35 5f 22 00 00 	lea    0x225f(%rip),%rsi        # 16bb1 <g_1320+0xaa9>
   14952:	48 89 cf             	mov    %rcx,%rdi
   14955:	e8 99 5d ff ff       	callq  a6f3 <transparent_crc>
   1495a:	48 8b 05 e9 5c 00 00 	mov    0x5ce9(%rip),%rax        # 1a64a <g_1800+0xa>
   14961:	48 89 c1             	mov    %rax,%rcx
   14964:	8b 45 fc             	mov    -0x4(%rbp),%eax
   14967:	89 c2                	mov    %eax,%edx
   14969:	48 8d 35 4b 22 00 00 	lea    0x224b(%rip),%rsi        # 16bbb <g_1320+0xab3>
   14970:	48 89 cf             	mov    %rcx,%rdi
   14973:	e8 7b 5d ff ff       	callq  a6f3 <transparent_crc>
   14978:	8b 05 d4 5c 00 00    	mov    0x5cd4(%rip),%eax        # 1a652 <g_1800+0x12>
   1497e:	89 c1                	mov    %eax,%ecx
   14980:	8b 45 fc             	mov    -0x4(%rbp),%eax
   14983:	89 c2                	mov    %eax,%edx
   14985:	48 8d 35 39 22 00 00 	lea    0x2239(%rip),%rsi        # 16bc5 <g_1320+0xabd>
   1498c:	48 89 cf             	mov    %rcx,%rdi
   1498f:	e8 5f 5d ff ff       	callq  a6f3 <transparent_crc>
   14994:	c7 45 f0 00 00 00 00 	movl   $0x0,-0x10(%rbp)
   1499b:	e9 ba 00 00 00       	jmpq   14a5a <main+0x1324>
   149a0:	c7 45 f4 00 00 00 00 	movl   $0x0,-0xc(%rbp)
   149a7:	e9 a0 00 00 00       	jmpq   14a4c <main+0x1316>
   149ac:	c7 45 f8 00 00 00 00 	movl   $0x0,-0x8(%rbp)
   149b3:	e9 86 00 00 00       	jmpq   14a3e <main+0x1308>
   149b8:	8b 45 f8             	mov    -0x8(%rbp),%eax
   149bb:	48 63 f0             	movslq %eax,%rsi
   149be:	8b 45 f0             	mov    -0x10(%rbp),%eax
   149c1:	48 98                	cltq   
   149c3:	8b 55 f4             	mov    -0xc(%rbp),%edx
   149c6:	48 63 ca             	movslq %edx,%rcx
   149c9:	48 89 c2             	mov    %rax,%rdx
   149cc:	48 c1 e2 03          	shl    $0x3,%rdx
   149d0:	48 01 c2             	add    %rax,%rdx
   149d3:	48 8d 04 95 00 00 00 	lea    0x0(,%rdx,4),%rax
   149da:	00 
   149db:	48 89 c2             	mov    %rax,%rdx
   149de:	48 89 c8             	mov    %rcx,%rax
   149e1:	48 01 c0             	add    %rax,%rax
   149e4:	48 01 c8             	add    %rcx,%rax
   149e7:	48 01 c0             	add    %rax,%rax
   149ea:	48 01 d0             	add    %rdx,%rax
   149ed:	48 01 f0             	add    %rsi,%rax
   149f0:	48 8d 14 85 00 00 00 	lea    0x0(,%rax,4),%rdx
   149f7:	00 
   149f8:	48 8d 05 61 5c 00 00 	lea    0x5c61(%rip),%rax        # 1a660 <g_1891>
   149ff:	8b 04 02             	mov    (%rdx,%rax,1),%eax
   14a02:	89 c1                	mov    %eax,%ecx
   14a04:	8b 45 fc             	mov    -0x4(%rbp),%eax
   14a07:	89 c2                	mov    %eax,%edx
   14a09:	48 8d 35 bf 21 00 00 	lea    0x21bf(%rip),%rsi        # 16bcf <g_1320+0xac7>
   14a10:	48 89 cf             	mov    %rcx,%rdi
   14a13:	e8 db 5c ff ff       	callq  a6f3 <transparent_crc>
   14a18:	83 7d fc 00          	cmpl   $0x0,-0x4(%rbp)
   14a1c:	74 1c                	je     14a3a <main+0x1304>
   14a1e:	8b 4d f8             	mov    -0x8(%rbp),%ecx
   14a21:	8b 55 f4             	mov    -0xc(%rbp),%edx
   14a24:	8b 45 f0             	mov    -0x10(%rbp),%eax
   14a27:	89 c6                	mov    %eax,%esi
   14a29:	48 8d 3d 47 1d 00 00 	lea    0x1d47(%rip),%rdi        # 16777 <g_1320+0x66f>
   14a30:	b8 00 00 00 00       	mov    $0x0,%eax
   14a35:	e8 46 46 ff ff       	callq  9080 <printf@plt>
   14a3a:	83 45 f8 01          	addl   $0x1,-0x8(%rbp)
   14a3e:	83 7d f8 05          	cmpl   $0x5,-0x8(%rbp)
   14a42:	0f 8e 70 ff ff ff    	jle    149b8 <main+0x1282>
   14a48:	83 45 f4 01          	addl   $0x1,-0xc(%rbp)
   14a4c:	83 7d f4 05          	cmpl   $0x5,-0xc(%rbp)
   14a50:	0f 8e 56 ff ff ff    	jle    149ac <main+0x1276>
   14a56:	83 45 f0 01          	addl   $0x1,-0x10(%rbp)
   14a5a:	83 7d f0 06          	cmpl   $0x6,-0x10(%rbp)
   14a5e:	0f 8e 3c ff ff ff    	jle    149a0 <main+0x126a>
   14a64:	48 8b 05 e5 5f 00 00 	mov    0x5fe5(%rip),%rax        # 1aa50 <g_1937>
   14a6b:	48 89 c1             	mov    %rax,%rcx
   14a6e:	8b 45 fc             	mov    -0x4(%rbp),%eax
   14a71:	89 c2                	mov    %eax,%edx
   14a73:	48 8d 35 65 21 00 00 	lea    0x2165(%rip),%rsi        # 16bdf <g_1320+0xad7>
   14a7a:	48 89 cf             	mov    %rcx,%rdi
   14a7d:	e8 71 5c ff ff       	callq  a6f3 <transparent_crc>
   14a82:	8b 05 d0 5f 00 00    	mov    0x5fd0(%rip),%eax        # 1aa58 <g_2144>
   14a88:	48 98                	cltq   
   14a8a:	8b 55 fc             	mov    -0x4(%rbp),%edx
   14a8d:	48 8d 35 52 21 00 00 	lea    0x2152(%rip),%rsi        # 16be6 <g_1320+0xade>
   14a94:	48 89 c7             	mov    %rax,%rdi
   14a97:	e8 57 5c ff ff       	callq  a6f3 <transparent_crc>
   14a9c:	0f b7 05 b9 5f 00 00 	movzwl 0x5fb9(%rip),%eax        # 1aa5c <g_2345>
   14aa3:	48 0f bf c0          	movswq %ax,%rax
   14aa7:	8b 55 fc             	mov    -0x4(%rbp),%edx
   14aaa:	48 8d 35 3c 21 00 00 	lea    0x213c(%rip),%rsi        # 16bed <g_1320+0xae5>
   14ab1:	48 89 c7             	mov    %rax,%rdi
   14ab4:	e8 3a 5c ff ff       	callq  a6f3 <transparent_crc>
   14ab9:	48 8b 05 a0 5f 00 00 	mov    0x5fa0(%rip),%rax        # 1aa60 <g_2401>
   14ac0:	48 89 c1             	mov    %rax,%rcx
   14ac3:	8b 45 fc             	mov    -0x4(%rbp),%eax
   14ac6:	89 c2                	mov    %eax,%edx
   14ac8:	48 8d 35 25 21 00 00 	lea    0x2125(%rip),%rsi        # 16bf4 <g_1320+0xaec>
   14acf:	48 89 cf             	mov    %rcx,%rdi
   14ad2:	e8 1c 5c ff ff       	callq  a6f3 <transparent_crc>
   14ad7:	c7 45 f0 00 00 00 00 	movl   $0x0,-0x10(%rbp)
   14ade:	e9 be 01 00 00       	jmpq   14ca1 <main+0x156b>
   14ae3:	c7 45 f4 00 00 00 00 	movl   $0x0,-0xc(%rbp)
   14aea:	e9 a4 01 00 00       	jmpq   14c93 <main+0x155d>
   14aef:	8b 45 f4             	mov    -0xc(%rbp),%eax
   14af2:	48 63 d0             	movslq %eax,%rdx
   14af5:	8b 45 f0             	mov    -0x10(%rbp),%eax
   14af8:	48 63 c8             	movslq %eax,%rcx
   14afb:	48 89 d0             	mov    %rdx,%rax
   14afe:	48 c1 e0 02          	shl    $0x2,%rax
   14b02:	48 01 d0             	add    %rdx,%rax
   14b05:	48 01 c0             	add    %rax,%rax
   14b08:	48 01 d0             	add    %rdx,%rax
   14b0b:	48 01 c0             	add    %rax,%rax
   14b0e:	48 69 d1 9a 00 00 00 	imul   $0x9a,%rcx,%rdx
   14b15:	48 01 c2             	add    %rax,%rdx
   14b18:	48 8d 05 61 5f 00 00 	lea    0x5f61(%rip),%rax        # 1aa80 <g_2533>
   14b1f:	48 01 d0             	add    %rdx,%rax
   14b22:	8b 00                	mov    (%rax),%eax
   14b24:	48 98                	cltq   
   14b26:	8b 55 fc             	mov    -0x4(%rbp),%edx
   14b29:	48 8d 35 cb 20 00 00 	lea    0x20cb(%rip),%rsi        # 16bfb <g_1320+0xaf3>
   14b30:	48 89 c7             	mov    %rax,%rdi
   14b33:	e8 bb 5b ff ff       	callq  a6f3 <transparent_crc>
   14b38:	8b 45 f4             	mov    -0xc(%rbp),%eax
   14b3b:	48 63 d0             	movslq %eax,%rdx
   14b3e:	8b 45 f0             	mov    -0x10(%rbp),%eax
   14b41:	48 63 c8             	movslq %eax,%rcx
   14b44:	48 89 d0             	mov    %rdx,%rax
   14b47:	48 c1 e0 02          	shl    $0x2,%rax
   14b4b:	48 01 d0             	add    %rdx,%rax
   14b4e:	48 01 c0             	add    %rax,%rax
   14b51:	48 01 d0             	add    %rdx,%rax
   14b54:	48 01 c0             	add    %rax,%rax
   14b57:	48 69 d1 9a 00 00 00 	imul   $0x9a,%rcx,%rdx
   14b5e:	48 01 c2             	add    %rax,%rdx
   14b61:	48 8d 05 18 5f 00 00 	lea    0x5f18(%rip),%rax        # 1aa80 <g_2533>
   14b68:	48 01 d0             	add    %rdx,%rax
   14b6b:	0f b7 40 04          	movzwl 0x4(%rax),%eax
   14b6f:	01 c0                	add    %eax,%eax
   14b71:	66 d1 f8             	sar    %ax
   14b74:	48 0f bf c0          	movswq %ax,%rax
   14b78:	8b 55 fc             	mov    -0x4(%rbp),%edx
   14b7b:	48 8d 35 89 20 00 00 	lea    0x2089(%rip),%rsi        # 16c0b <g_1320+0xb03>
   14b82:	48 89 c7             	mov    %rax,%rdi
   14b85:	e8 69 5b ff ff       	callq  a6f3 <transparent_crc>
   14b8a:	8b 45 f4             	mov    -0xc(%rbp),%eax
   14b8d:	48 63 d0             	movslq %eax,%rdx
   14b90:	8b 45 f0             	mov    -0x10(%rbp),%eax
   14b93:	48 63 c8             	movslq %eax,%rcx
   14b96:	48 89 d0             	mov    %rdx,%rax
   14b99:	48 c1 e0 02          	shl    $0x2,%rax
   14b9d:	48 01 d0             	add    %rdx,%rax
   14ba0:	48 01 c0             	add    %rax,%rax
   14ba3:	48 01 d0             	add    %rdx,%rax
   14ba6:	48 01 c0             	add    %rax,%rax
   14ba9:	48 69 d1 9a 00 00 00 	imul   $0x9a,%rcx,%rdx
   14bb0:	48 01 c2             	add    %rax,%rdx
   14bb3:	48 8d 05 c6 5e 00 00 	lea    0x5ec6(%rip),%rax        # 1aa80 <g_2533>
   14bba:	48 01 d0             	add    %rdx,%rax
   14bbd:	8b 40 06             	mov    0x6(%rax),%eax
   14bc0:	89 c1                	mov    %eax,%ecx
   14bc2:	8b 45 fc             	mov    -0x4(%rbp),%eax
   14bc5:	89 c2                	mov    %eax,%edx
   14bc7:	48 8d 35 4d 20 00 00 	lea    0x204d(%rip),%rsi        # 16c1b <g_1320+0xb13>
   14bce:	48 89 cf             	mov    %rcx,%rdi
   14bd1:	e8 1d 5b ff ff       	callq  a6f3 <transparent_crc>
   14bd6:	8b 45 f4             	mov    -0xc(%rbp),%eax
   14bd9:	48 63 d0             	movslq %eax,%rdx
   14bdc:	8b 45 f0             	mov    -0x10(%rbp),%eax
   14bdf:	48 63 c8             	movslq %eax,%rcx
   14be2:	48 89 d0             	mov    %rdx,%rax
   14be5:	48 c1 e0 02          	shl    $0x2,%rax
   14be9:	48 01 d0             	add    %rdx,%rax
   14bec:	48 01 c0             	add    %rax,%rax
   14bef:	48 01 d0             	add    %rdx,%rax
   14bf2:	48 01 c0             	add    %rax,%rax
   14bf5:	48 69 d1 9a 00 00 00 	imul   $0x9a,%rcx,%rdx
   14bfc:	48 01 c2             	add    %rax,%rdx
   14bff:	48 8d 05 7a 5e 00 00 	lea    0x5e7a(%rip),%rax        # 1aa80 <g_2533>
   14c06:	48 01 d0             	add    %rdx,%rax
   14c09:	48 8b 40 0a          	mov    0xa(%rax),%rax
   14c0d:	48 89 c1             	mov    %rax,%rcx
   14c10:	8b 45 fc             	mov    -0x4(%rbp),%eax
   14c13:	89 c2                	mov    %eax,%edx
   14c15:	48 8d 35 0f 20 00 00 	lea    0x200f(%rip),%rsi        # 16c2b <g_1320+0xb23>
   14c1c:	48 89 cf             	mov    %rcx,%rdi
   14c1f:	e8 cf 5a ff ff       	callq  a6f3 <transparent_crc>
   14c24:	8b 45 f4             	mov    -0xc(%rbp),%eax
   14c27:	48 63 d0             	movslq %eax,%rdx
   14c2a:	8b 45 f0             	mov    -0x10(%rbp),%eax
   14c2d:	48 63 c8             	movslq %eax,%rcx
   14c30:	48 89 d0             	mov    %rdx,%rax
   14c33:	48 c1 e0 02          	shl    $0x2,%rax
   14c37:	48 01 d0             	add    %rdx,%rax
   14c3a:	48 01 c0             	add    %rax,%rax
   14c3d:	48 01 d0             	add    %rdx,%rax
   14c40:	48 01 c0             	add    %rax,%rax
   14c43:	48 69 d1 9a 00 00 00 	imul   $0x9a,%rcx,%rdx
   14c4a:	48 01 c2             	add    %rax,%rdx
   14c4d:	48 8d 05 3c 5e 00 00 	lea    0x5e3c(%rip),%rax        # 1aa90 <g_2533+0x10>
   14c54:	48 01 d0             	add    %rdx,%rax
   14c57:	8b 40 02             	mov    0x2(%rax),%eax
   14c5a:	89 c1                	mov    %eax,%ecx
   14c5c:	8b 45 fc             	mov    -0x4(%rbp),%eax
   14c5f:	89 c2                	mov    %eax,%edx
   14c61:	48 8d 35 d3 1f 00 00 	lea    0x1fd3(%rip),%rsi        # 16c3b <g_1320+0xb33>
   14c68:	48 89 cf             	mov    %rcx,%rdi
   14c6b:	e8 83 5a ff ff       	callq  a6f3 <transparent_crc>
   14c70:	83 7d fc 00          	cmpl   $0x0,-0x4(%rbp)
   14c74:	74 19                	je     14c8f <main+0x1559>
   14c76:	8b 55 f4             	mov    -0xc(%rbp),%edx
   14c79:	8b 45 f0             	mov    -0x10(%rbp),%eax
   14c7c:	89 c6                	mov    %eax,%esi
   14c7e:	48 8d 3d 47 1b 00 00 	lea    0x1b47(%rip),%rdi        # 167cc <g_1320+0x6c4>
   14c85:	b8 00 00 00 00       	mov    $0x0,%eax
   14c8a:	e8 f1 43 ff ff       	callq  9080 <printf@plt>
   14c8f:	83 45 f4 01          	addl   $0x1,-0xc(%rbp)
   14c93:	83 7d f4 06          	cmpl   $0x6,-0xc(%rbp)
   14c97:	0f 8e 52 fe ff ff    	jle    14aef <main+0x13b9>
   14c9d:	83 45 f0 01          	addl   $0x1,-0x10(%rbp)
   14ca1:	83 7d f0 03          	cmpl   $0x3,-0x10(%rbp)
   14ca5:	0f 8e 38 fe ff ff    	jle    14ae3 <main+0x13ad>
   14cab:	c7 45 f0 00 00 00 00 	movl   $0x0,-0x10(%rbp)
   14cb2:	eb 76                	jmp    14d2a <main+0x15f4>
   14cb4:	c7 45 f4 00 00 00 00 	movl   $0x0,-0xc(%rbp)
   14cbb:	eb 63                	jmp    14d20 <main+0x15ea>
   14cbd:	8b 45 f4             	mov    -0xc(%rbp),%eax
   14cc0:	48 63 c8             	movslq %eax,%rcx
   14cc3:	8b 45 f0             	mov    -0x10(%rbp),%eax
   14cc6:	48 63 d0             	movslq %eax,%rdx
   14cc9:	48 89 d0             	mov    %rdx,%rax
   14ccc:	48 01 c0             	add    %rax,%rax
   14ccf:	48 01 d0             	add    %rdx,%rax
   14cd2:	48 01 c0             	add    %rax,%rax
   14cd5:	48 01 c8             	add    %rcx,%rax
   14cd8:	48 8d 14 c5 00 00 00 	lea    0x0(,%rax,8),%rdx
   14cdf:	00 
   14ce0:	48 8d 05 19 60 00 00 	lea    0x6019(%rip),%rax        # 1ad00 <g_2702>
   14ce7:	48 8b 04 02          	mov    (%rdx,%rax,1),%rax
   14ceb:	8b 55 fc             	mov    -0x4(%rbp),%edx
   14cee:	48 8d 35 56 1f 00 00 	lea    0x1f56(%rip),%rsi        # 16c4b <g_1320+0xb43>
   14cf5:	48 89 c7             	mov    %rax,%rdi
   14cf8:	e8 f6 59 ff ff       	callq  a6f3 <transparent_crc>
   14cfd:	83 7d fc 00          	cmpl   $0x0,-0x4(%rbp)
   14d01:	74 19                	je     14d1c <main+0x15e6>
   14d03:	8b 55 f4             	mov    -0xc(%rbp),%edx
   14d06:	8b 45 f0             	mov    -0x10(%rbp),%eax
   14d09:	89 c6                	mov    %eax,%esi
   14d0b:	48 8d 3d ba 1a 00 00 	lea    0x1aba(%rip),%rdi        # 167cc <g_1320+0x6c4>
   14d12:	b8 00 00 00 00       	mov    $0x0,%eax
   14d17:	e8 64 43 ff ff       	callq  9080 <printf@plt>
   14d1c:	83 45 f4 01          	addl   $0x1,-0xc(%rbp)
   14d20:	83 7d f4 05          	cmpl   $0x5,-0xc(%rbp)
   14d24:	7e 97                	jle    14cbd <main+0x1587>
   14d26:	83 45 f0 01          	addl   $0x1,-0x10(%rbp)
   14d2a:	83 7d f0 08          	cmpl   $0x8,-0x10(%rbp)
   14d2e:	7e 84                	jle    14cb4 <main+0x157e>
   14d30:	c7 45 f0 00 00 00 00 	movl   $0x0,-0x10(%rbp)
   14d37:	eb 4d                	jmp    14d86 <main+0x1650>
   14d39:	8b 45 f0             	mov    -0x10(%rbp),%eax
   14d3c:	48 98                	cltq   
   14d3e:	48 8d 14 85 00 00 00 	lea    0x0(,%rax,4),%rdx
   14d45:	00 
   14d46:	48 8d 05 63 61 00 00 	lea    0x6163(%rip),%rax        # 1aeb0 <g_2838>
   14d4d:	8b 04 02             	mov    (%rdx,%rax,1),%eax
   14d50:	89 c1                	mov    %eax,%ecx
   14d52:	8b 45 fc             	mov    -0x4(%rbp),%eax
   14d55:	89 c2                	mov    %eax,%edx
   14d57:	48 8d 35 fa 1e 00 00 	lea    0x1efa(%rip),%rsi        # 16c58 <g_1320+0xb50>
   14d5e:	48 89 cf             	mov    %rcx,%rdi
   14d61:	e8 8d 59 ff ff       	callq  a6f3 <transparent_crc>
   14d66:	83 7d fc 00          	cmpl   $0x0,-0x4(%rbp)
   14d6a:	74 16                	je     14d82 <main+0x164c>
   14d6c:	8b 45 f0             	mov    -0x10(%rbp),%eax
   14d6f:	89 c6                	mov    %eax,%esi
   14d71:	48 8d 3d c9 1a 00 00 	lea    0x1ac9(%rip),%rdi        # 16841 <g_1320+0x739>
   14d78:	b8 00 00 00 00       	mov    $0x0,%eax
   14d7d:	e8 fe 42 ff ff       	callq  9080 <printf@plt>
   14d82:	83 45 f0 01          	addl   $0x1,-0x10(%rbp)
   14d86:	83 7d f0 02          	cmpl   $0x2,-0x10(%rbp)
   14d8a:	7e ad                	jle    14d39 <main+0x1603>
   14d8c:	0f b6 05 29 61 00 00 	movzbl 0x6129(%rip),%eax        # 1aebc <g_2950>
   14d93:	48 0f be c0          	movsbq %al,%rax
   14d97:	8b 55 fc             	mov    -0x4(%rbp),%edx
   14d9a:	48 8d 35 c1 1e 00 00 	lea    0x1ec1(%rip),%rsi        # 16c62 <g_1320+0xb5a>
   14da1:	48 89 c7             	mov    %rax,%rdi
   14da4:	e8 4a 59 ff ff       	callq  a6f3 <transparent_crc>
   14da9:	0f b6 05 0d 61 00 00 	movzbl 0x610d(%rip),%eax        # 1aebd <g_2988>
   14db0:	48 0f be c0          	movsbq %al,%rax
   14db4:	8b 55 fc             	mov    -0x4(%rbp),%edx
   14db7:	48 8d 35 ab 1e 00 00 	lea    0x1eab(%rip),%rsi        # 16c69 <g_1320+0xb61>
   14dbe:	48 89 c7             	mov    %rax,%rdi
   14dc1:	e8 2d 59 ff ff       	callq  a6f3 <transparent_crc>
   14dc6:	8b 05 f4 60 00 00    	mov    0x60f4(%rip),%eax        # 1aec0 <g_3297>
   14dcc:	48 98                	cltq   
   14dce:	8b 55 fc             	mov    -0x4(%rbp),%edx
   14dd1:	48 8d 35 98 1e 00 00 	lea    0x1e98(%rip),%rsi        # 16c70 <g_1320+0xb68>
   14dd8:	48 89 c7             	mov    %rax,%rdi
   14ddb:	e8 13 59 ff ff       	callq  a6f3 <transparent_crc>
   14de0:	0f b6 05 dd 60 00 00 	movzbl 0x60dd(%rip),%eax        # 1aec4 <g_3320>
   14de7:	0f b6 c0             	movzbl %al,%eax
   14dea:	8b 55 fc             	mov    -0x4(%rbp),%edx
   14ded:	48 8d 35 83 1e 00 00 	lea    0x1e83(%rip),%rsi        # 16c77 <g_1320+0xb6f>
   14df4:	48 89 c7             	mov    %rax,%rdi
   14df7:	e8 f7 58 ff ff       	callq  a6f3 <transparent_crc>
   14dfc:	8b 05 c6 60 00 00    	mov    0x60c6(%rip),%eax        # 1aec8 <g_3324>
   14e02:	89 c1                	mov    %eax,%ecx
   14e04:	8b 45 fc             	mov    -0x4(%rbp),%eax
   14e07:	89 c2                	mov    %eax,%edx
   14e09:	48 8d 35 6e 1e 00 00 	lea    0x1e6e(%rip),%rsi        # 16c7e <g_1320+0xb76>
   14e10:	48 89 cf             	mov    %rcx,%rdi
   14e13:	e8 db 58 ff ff       	callq  a6f3 <transparent_crc>
   14e18:	0f b7 05 ad 60 00 00 	movzwl 0x60ad(%rip),%eax        # 1aecc <g_3366>
   14e1f:	0f b7 c0             	movzwl %ax,%eax
   14e22:	8b 55 fc             	mov    -0x4(%rbp),%edx
   14e25:	48 8d 35 59 1e 00 00 	lea    0x1e59(%rip),%rsi        # 16c85 <g_1320+0xb7d>
   14e2c:	48 89 c7             	mov    %rax,%rdi
   14e2f:	e8 bf 58 ff ff       	callq  a6f3 <transparent_crc>
   14e34:	8b 05 96 60 00 00    	mov    0x6096(%rip),%eax        # 1aed0 <g_3388>
   14e3a:	48 98                	cltq   
   14e3c:	8b 55 fc             	mov    -0x4(%rbp),%edx
   14e3f:	48 8d 35 46 1e 00 00 	lea    0x1e46(%rip),%rsi        # 16c8c <g_1320+0xb84>
   14e46:	48 89 c7             	mov    %rax,%rdi
   14e49:	e8 a5 58 ff ff       	callq  a6f3 <transparent_crc>
   14e4e:	48 8b 05 7b 60 00 00 	mov    0x607b(%rip),%rax        # 1aed0 <g_3388>
   14e55:	48 c1 e0 11          	shl    $0x11,%rax
   14e59:	48 c1 f8 31          	sar    $0x31,%rax
   14e5d:	48 0f bf c0          	movswq %ax,%rax
   14e61:	8b 55 fc             	mov    -0x4(%rbp),%edx
   14e64:	48 8d 35 2b 1e 00 00 	lea    0x1e2b(%rip),%rsi        # 16c96 <g_1320+0xb8e>
   14e6b:	48 89 c7             	mov    %rax,%rdi
   14e6e:	e8 80 58 ff ff       	callq  a6f3 <transparent_crc>
   14e73:	8b 05 5d 60 00 00    	mov    0x605d(%rip),%eax        # 1aed6 <g_3388+0x6>
   14e79:	89 c1                	mov    %eax,%ecx
   14e7b:	8b 45 fc             	mov    -0x4(%rbp),%eax
   14e7e:	89 c2                	mov    %eax,%edx
   14e80:	48 8d 35 19 1e 00 00 	lea    0x1e19(%rip),%rsi        # 16ca0 <g_1320+0xb98>
   14e87:	48 89 cf             	mov    %rcx,%rdi
   14e8a:	e8 64 58 ff ff       	callq  a6f3 <transparent_crc>
   14e8f:	48 8b 05 44 60 00 00 	mov    0x6044(%rip),%rax        # 1aeda <g_3388+0xa>
   14e96:	48 89 c1             	mov    %rax,%rcx
   14e99:	8b 45 fc             	mov    -0x4(%rbp),%eax
   14e9c:	89 c2                	mov    %eax,%edx
   14e9e:	48 8d 35 05 1e 00 00 	lea    0x1e05(%rip),%rsi        # 16caa <g_1320+0xba2>
   14ea5:	48 89 cf             	mov    %rcx,%rdi
   14ea8:	e8 46 58 ff ff       	callq  a6f3 <transparent_crc>
   14ead:	8b 05 2f 60 00 00    	mov    0x602f(%rip),%eax        # 1aee2 <g_3388+0x12>
   14eb3:	89 c1                	mov    %eax,%ecx
   14eb5:	8b 45 fc             	mov    -0x4(%rbp),%eax
   14eb8:	89 c2                	mov    %eax,%edx
   14eba:	48 8d 35 f3 1d 00 00 	lea    0x1df3(%rip),%rsi        # 16cb4 <g_1320+0xbac>
   14ec1:	48 89 cf             	mov    %rcx,%rdi
   14ec4:	e8 2a 58 ff ff       	callq  a6f3 <transparent_crc>
   14ec9:	c7 45 f0 00 00 00 00 	movl   $0x0,-0x10(%rbp)
   14ed0:	eb 46                	jmp    14f18 <main+0x17e2>
   14ed2:	8b 45 f0             	mov    -0x10(%rbp),%eax
   14ed5:	48 98                	cltq   
   14ed7:	48 8d 15 08 60 00 00 	lea    0x6008(%rip),%rdx        # 1aee6 <g_3432>
   14ede:	0f b6 04 10          	movzbl (%rax,%rdx,1),%eax
   14ee2:	48 0f be c0          	movsbq %al,%rax
   14ee6:	8b 55 fc             	mov    -0x4(%rbp),%edx
   14ee9:	48 8d 35 ce 1d 00 00 	lea    0x1dce(%rip),%rsi        # 16cbe <g_1320+0xbb6>
   14ef0:	48 89 c7             	mov    %rax,%rdi
   14ef3:	e8 fb 57 ff ff       	callq  a6f3 <transparent_crc>
   14ef8:	83 7d fc 00          	cmpl   $0x0,-0x4(%rbp)
   14efc:	74 16                	je     14f14 <main+0x17de>
   14efe:	8b 45 f0             	mov    -0x10(%rbp),%eax
   14f01:	89 c6                	mov    %eax,%esi
   14f03:	48 8d 3d 37 19 00 00 	lea    0x1937(%rip),%rdi        # 16841 <g_1320+0x739>
   14f0a:	b8 00 00 00 00       	mov    $0x0,%eax
   14f0f:	e8 6c 41 ff ff       	callq  9080 <printf@plt>
   14f14:	83 45 f0 01          	addl   $0x1,-0x10(%rbp)
   14f18:	83 7d f0 01          	cmpl   $0x1,-0x10(%rbp)
   14f1c:	7e b4                	jle    14ed2 <main+0x179c>
   14f1e:	8b 05 cc 5f 00 00    	mov    0x5fcc(%rip),%eax        # 1aef0 <g_3440>
   14f24:	48 98                	cltq   
   14f26:	8b 55 fc             	mov    -0x4(%rbp),%edx
   14f29:	48 8d 35 98 1d 00 00 	lea    0x1d98(%rip),%rsi        # 16cc8 <g_1320+0xbc0>
   14f30:	48 89 c7             	mov    %rax,%rdi
   14f33:	e8 bb 57 ff ff       	callq  a6f3 <transparent_crc>
   14f38:	48 8b 05 b1 5f 00 00 	mov    0x5fb1(%rip),%rax        # 1aef0 <g_3440>
   14f3f:	48 c1 e0 11          	shl    $0x11,%rax
   14f43:	48 c1 f8 31          	sar    $0x31,%rax
   14f47:	48 0f bf c0          	movswq %ax,%rax
   14f4b:	8b 55 fc             	mov    -0x4(%rbp),%edx
   14f4e:	48 8d 35 7d 1d 00 00 	lea    0x1d7d(%rip),%rsi        # 16cd2 <g_1320+0xbca>
   14f55:	48 89 c7             	mov    %rax,%rdi
   14f58:	e8 96 57 ff ff       	callq  a6f3 <transparent_crc>
   14f5d:	8b 05 93 5f 00 00    	mov    0x5f93(%rip),%eax        # 1aef6 <g_3440+0x6>
   14f63:	89 c1                	mov    %eax,%ecx
   14f65:	8b 45 fc             	mov    -0x4(%rbp),%eax
   14f68:	89 c2                	mov    %eax,%edx
   14f6a:	48 8d 35 6b 1d 00 00 	lea    0x1d6b(%rip),%rsi        # 16cdc <g_1320+0xbd4>
   14f71:	48 89 cf             	mov    %rcx,%rdi
   14f74:	e8 7a 57 ff ff       	callq  a6f3 <transparent_crc>
   14f79:	48 8b 05 7a 5f 00 00 	mov    0x5f7a(%rip),%rax        # 1aefa <g_3440+0xa>
   14f80:	48 89 c1             	mov    %rax,%rcx
   14f83:	8b 45 fc             	mov    -0x4(%rbp),%eax
   14f86:	89 c2                	mov    %eax,%edx
   14f88:	48 8d 35 57 1d 00 00 	lea    0x1d57(%rip),%rsi        # 16ce6 <g_1320+0xbde>
   14f8f:	48 89 cf             	mov    %rcx,%rdi
   14f92:	e8 5c 57 ff ff       	callq  a6f3 <transparent_crc>
   14f97:	8b 05 65 5f 00 00    	mov    0x5f65(%rip),%eax        # 1af02 <g_3440+0x12>
   14f9d:	89 c1                	mov    %eax,%ecx
   14f9f:	8b 45 fc             	mov    -0x4(%rbp),%eax
   14fa2:	89 c2                	mov    %eax,%edx
   14fa4:	48 8d 35 45 1d 00 00 	lea    0x1d45(%rip),%rsi        # 16cf0 <g_1320+0xbe8>
   14fab:	48 89 cf             	mov    %rcx,%rdi
   14fae:	e8 40 57 ff ff       	callq  a6f3 <transparent_crc>
   14fb3:	8b 05 57 5f 00 00    	mov    0x5f57(%rip),%eax        # 1af10 <g_3519>
   14fb9:	48 98                	cltq   
   14fbb:	8b 55 fc             	mov    -0x4(%rbp),%edx
   14fbe:	48 8d 35 35 1d 00 00 	lea    0x1d35(%rip),%rsi        # 16cfa <g_1320+0xbf2>
   14fc5:	48 89 c7             	mov    %rax,%rdi
   14fc8:	e8 26 57 ff ff       	callq  a6f3 <transparent_crc>
   14fcd:	48 8b 05 3c 5f 00 00 	mov    0x5f3c(%rip),%rax        # 1af10 <g_3519>
   14fd4:	48 c1 e0 11          	shl    $0x11,%rax
   14fd8:	48 c1 f8 31          	sar    $0x31,%rax
   14fdc:	48 0f bf c0          	movswq %ax,%rax
   14fe0:	8b 55 fc             	mov    -0x4(%rbp),%edx
   14fe3:	48 8d 35 1a 1d 00 00 	lea    0x1d1a(%rip),%rsi        # 16d04 <g_1320+0xbfc>
   14fea:	48 89 c7             	mov    %rax,%rdi
   14fed:	e8 01 57 ff ff       	callq  a6f3 <transparent_crc>
   14ff2:	8b 05 1e 5f 00 00    	mov    0x5f1e(%rip),%eax        # 1af16 <g_3519+0x6>
   14ff8:	89 c1                	mov    %eax,%ecx
   14ffa:	8b 45 fc             	mov    -0x4(%rbp),%eax
   14ffd:	89 c2                	mov    %eax,%edx
   14fff:	48 8d 35 08 1d 00 00 	lea    0x1d08(%rip),%rsi        # 16d0e <g_1320+0xc06>
   15006:	48 89 cf             	mov    %rcx,%rdi
   15009:	e8 e5 56 ff ff       	callq  a6f3 <transparent_crc>
   1500e:	48 8b 05 05 5f 00 00 	mov    0x5f05(%rip),%rax        # 1af1a <g_3519+0xa>
   15015:	48 89 c1             	mov    %rax,%rcx
   15018:	8b 45 fc             	mov    -0x4(%rbp),%eax
   1501b:	89 c2                	mov    %eax,%edx
   1501d:	48 8d 35 f4 1c 00 00 	lea    0x1cf4(%rip),%rsi        # 16d18 <g_1320+0xc10>
   15024:	48 89 cf             	mov    %rcx,%rdi
   15027:	e8 c7 56 ff ff       	callq  a6f3 <transparent_crc>
   1502c:	8b 05 f0 5e 00 00    	mov    0x5ef0(%rip),%eax        # 1af22 <g_3519+0x12>
   15032:	89 c1                	mov    %eax,%ecx
   15034:	8b 45 fc             	mov    -0x4(%rbp),%eax
   15037:	89 c2                	mov    %eax,%edx
   15039:	48 8d 35 e2 1c 00 00 	lea    0x1ce2(%rip),%rsi        # 16d22 <g_1320+0xc1a>
   15040:	48 89 cf             	mov    %rcx,%rdi
   15043:	e8 ab 56 ff ff       	callq  a6f3 <transparent_crc>
   15048:	8b 05 da 5e 00 00    	mov    0x5eda(%rip),%eax        # 1af28 <g_3582>
   1504e:	48 98                	cltq   
   15050:	8b 55 fc             	mov    -0x4(%rbp),%edx
   15053:	48 8d 35 d2 1c 00 00 	lea    0x1cd2(%rip),%rsi        # 16d2c <g_1320+0xc24>
   1505a:	48 89 c7             	mov    %rax,%rdi
   1505d:	e8 91 56 ff ff       	callq  a6f3 <transparent_crc>
   15062:	c7 45 f0 00 00 00 00 	movl   $0x0,-0x10(%rbp)
   15069:	eb 4b                	jmp    150b6 <main+0x1980>
   1506b:	8b 45 f0             	mov    -0x10(%rbp),%eax
   1506e:	48 98                	cltq   
   15070:	48 8d 14 85 00 00 00 	lea    0x0(,%rax,4),%rdx
   15077:	00 
   15078:	48 8d 05 b1 5e 00 00 	lea    0x5eb1(%rip),%rax        # 1af30 <g_3658>
   1507f:	8b 04 02             	mov    (%rdx,%rax,1),%eax
   15082:	48 98                	cltq   
   15084:	8b 55 fc             	mov    -0x4(%rbp),%edx
   15087:	48 8d 35 a5 1c 00 00 	lea    0x1ca5(%rip),%rsi        # 16d33 <g_1320+0xc2b>
   1508e:	48 89 c7             	mov    %rax,%rdi
   15091:	e8 5d 56 ff ff       	callq  a6f3 <transparent_crc>
   15096:	83 7d fc 00          	cmpl   $0x0,-0x4(%rbp)
   1509a:	74 16                	je     150b2 <main+0x197c>
   1509c:	8b 45 f0             	mov    -0x10(%rbp),%eax
   1509f:	89 c6                	mov    %eax,%esi
   150a1:	48 8d 3d 99 17 00 00 	lea    0x1799(%rip),%rdi        # 16841 <g_1320+0x739>
   150a8:	b8 00 00 00 00       	mov    $0x0,%eax
   150ad:	e8 ce 3f ff ff       	callq  9080 <printf@plt>
   150b2:	83 45 f0 01          	addl   $0x1,-0x10(%rbp)
   150b6:	83 7d f0 05          	cmpl   $0x5,-0x10(%rbp)
   150ba:	7e af                	jle    1506b <main+0x1935>
   150bc:	8b 05 8e 5e 00 00    	mov    0x5e8e(%rip),%eax        # 1af50 <g_3680>
   150c2:	48 98                	cltq   
   150c4:	8b 55 fc             	mov    -0x4(%rbp),%edx
   150c7:	48 8d 35 6f 1c 00 00 	lea    0x1c6f(%rip),%rsi        # 16d3d <g_1320+0xc35>
   150ce:	48 89 c7             	mov    %rax,%rdi
   150d1:	e8 1d 56 ff ff       	callq  a6f3 <transparent_crc>
   150d6:	48 8b 05 73 5e 00 00 	mov    0x5e73(%rip),%rax        # 1af50 <g_3680>
   150dd:	48 c1 e0 11          	shl    $0x11,%rax
   150e1:	48 c1 f8 31          	sar    $0x31,%rax
   150e5:	48 0f bf c0          	movswq %ax,%rax
   150e9:	8b 55 fc             	mov    -0x4(%rbp),%edx
   150ec:	48 8d 35 54 1c 00 00 	lea    0x1c54(%rip),%rsi        # 16d47 <g_1320+0xc3f>
   150f3:	48 89 c7             	mov    %rax,%rdi
   150f6:	e8 f8 55 ff ff       	callq  a6f3 <transparent_crc>
   150fb:	8b 05 55 5e 00 00    	mov    0x5e55(%rip),%eax        # 1af56 <g_3680+0x6>
   15101:	89 c1                	mov    %eax,%ecx
   15103:	8b 45 fc             	mov    -0x4(%rbp),%eax
   15106:	89 c2                	mov    %eax,%edx
   15108:	48 8d 35 42 1c 00 00 	lea    0x1c42(%rip),%rsi        # 16d51 <g_1320+0xc49>
   1510f:	48 89 cf             	mov    %rcx,%rdi
   15112:	e8 dc 55 ff ff       	callq  a6f3 <transparent_crc>
   15117:	48 8b 05 3c 5e 00 00 	mov    0x5e3c(%rip),%rax        # 1af5a <g_3680+0xa>
   1511e:	48 89 c1             	mov    %rax,%rcx
   15121:	8b 45 fc             	mov    -0x4(%rbp),%eax
   15124:	89 c2                	mov    %eax,%edx
   15126:	48 8d 35 2e 1c 00 00 	lea    0x1c2e(%rip),%rsi        # 16d5b <g_1320+0xc53>
   1512d:	48 89 cf             	mov    %rcx,%rdi
   15130:	e8 be 55 ff ff       	callq  a6f3 <transparent_crc>
   15135:	8b 05 27 5e 00 00    	mov    0x5e27(%rip),%eax        # 1af62 <g_3680+0x12>
   1513b:	89 c1                	mov    %eax,%ecx
   1513d:	8b 45 fc             	mov    -0x4(%rbp),%eax
   15140:	89 c2                	mov    %eax,%edx
   15142:	48 8d 35 1c 1c 00 00 	lea    0x1c1c(%rip),%rsi        # 16d65 <g_1320+0xc5d>
   15149:	48 89 cf             	mov    %rcx,%rdi
   1514c:	e8 a2 55 ff ff       	callq  a6f3 <transparent_crc>
   15151:	0f b6 05 0e 5e 00 00 	movzbl 0x5e0e(%rip),%eax        # 1af66 <g_3696>
   15158:	48 0f be c0          	movsbq %al,%rax
   1515c:	8b 55 fc             	mov    -0x4(%rbp),%edx
   1515f:	48 8d 35 09 1c 00 00 	lea    0x1c09(%rip),%rsi        # 16d6f <g_1320+0xc67>
   15166:	48 89 c7             	mov    %rax,%rdi
   15169:	e8 85 55 ff ff       	callq  a6f3 <transparent_crc>
   1516e:	8b 05 ac 4e 00 00    	mov    0x4eac(%rip),%eax        # 1a020 <crc32_context>
   15174:	f7 d0                	not    %eax
   15176:	89 c2                	mov    %eax,%edx
   15178:	8b 45 fc             	mov    -0x4(%rbp),%eax
   1517b:	89 c6                	mov    %eax,%esi
   1517d:	89 d7                	mov    %edx,%edi
   1517f:	e8 10 40 ff ff       	callq  9194 <platform_main_end>
   15184:	b8 00 00 00 00       	mov    $0x0,%eax
   15189:	c9                   	leaveq 
   1518a:	c3                   	retq   
   1518b:	0f 1f 44 00 00       	nopl   0x0(%rax,%rax,1)

0000000000015190 <__libc_csu_init>:
   15190:	f3 0f 1e fa          	endbr64 
   15194:	41 57                	push   %r15
   15196:	4c 8d 3d 73 4a 00 00 	lea    0x4a73(%rip),%r15        # 19c10 <__frame_dummy_init_array_entry>
   1519d:	41 56                	push   %r14
   1519f:	49 89 d6             	mov    %rdx,%r14
   151a2:	41 55                	push   %r13
   151a4:	49 89 f5             	mov    %rsi,%r13
   151a7:	41 54                	push   %r12
   151a9:	41 89 fc             	mov    %edi,%r12d
   151ac:	55                   	push   %rbp
   151ad:	48 8d 2d 64 4a 00 00 	lea    0x4a64(%rip),%rbp        # 19c18 <__do_global_dtors_aux_fini_array_entry>
   151b4:	53                   	push   %rbx
   151b5:	4c 29 fd             	sub    %r15,%rbp
   151b8:	48 83 ec 08          	sub    $0x8,%rsp
   151bc:	e8 3f 3e ff ff       	callq  9000 <_init>
   151c1:	48 c1 fd 03          	sar    $0x3,%rbp
   151c5:	74 1f                	je     151e6 <__libc_csu_init+0x56>
   151c7:	31 db                	xor    %ebx,%ebx
   151c9:	0f 1f 80 00 00 00 00 	nopl   0x0(%rax)
   151d0:	4c 89 f2             	mov    %r14,%rdx
   151d3:	4c 89 ee             	mov    %r13,%rsi
   151d6:	44 89 e7             	mov    %r12d,%edi
   151d9:	41 ff 14 df          	callq  *(%r15,%rbx,8)
   151dd:	48 83 c3 01          	add    $0x1,%rbx
   151e1:	48 39 dd             	cmp    %rbx,%rbp
   151e4:	75 ea                	jne    151d0 <__libc_csu_init+0x40>
   151e6:	48 83 c4 08          	add    $0x8,%rsp
   151ea:	5b                   	pop    %rbx
   151eb:	5d                   	pop    %rbp
   151ec:	41 5c                	pop    %r12
   151ee:	41 5d                	pop    %r13
   151f0:	41 5e                	pop    %r14
   151f2:	41 5f                	pop    %r15
   151f4:	c3                   	retq   
   151f5:	66 66 2e 0f 1f 84 00 	data16 nopw %cs:0x0(%rax,%rax,1)
   151fc:	00 00 00 00 

0000000000015200 <__libc_csu_fini>:
   15200:	f3 0f 1e fa          	endbr64 
   15204:	c3                   	retq   
